; Listing generated by Microsoft (R) Optimizing Compiler Version 19.44.35225.0 

	TITLE	C:\IAGOS\server\v18\Source\Output\WorldServer\Release\flyffevent.obj
	.686P
	.XMM
	include listing.inc
	.model	flat

INCLUDELIB LIBCMT
INCLUDELIB OLDNAMES

PUBLIC	?__empty_global_delete@@YAXPAX@Z		; __empty_global_delete
PUBLIC	?__empty_global_delete@@YAXPAXI@Z		; __empty_global_delete
PUBLIC	??0CFlyffEvent@@QAE@XZ				; CFlyffEvent::CFlyffEvent
PUBLIC	?SetState@CFlyffEvent@@QAEHHE@Z			; CFlyffEvent::SetState
PUBLIC	?GetState@CFlyffEvent@@QAEEH@Z			; CFlyffEvent::GetState
PUBLIC	?Serialize@CFlyffEvent@@QAEXAAVCAr@@@Z		; CFlyffEvent::Serialize
EXTRN	?Read@CAr@@QAEXPAXI@Z:PROC			; CAr::Read
EXTRN	?Write@CAr@@QAEXPBXI@Z:PROC			; CAr::Write
EXTRN	_memset:PROC
; Function compile flags: /Ogtp
; File C:\IAGOS\server\v18\Source\Source\_common\flyffevent.cpp
; File C:\IAGOS\server\v18\Source\Source\_Network\Misc\Include\ar.h
; File C:\IAGOS\server\v18\Source\Source\_common\flyffevent.cpp
; File C:\IAGOS\server\v18\Source\Source\_Network\Misc\Include\ar.h
; File C:\IAGOS\server\v18\Source\Source\_common\flyffevent.cpp
;	COMDAT ?Serialize@CFlyffEvent@@QAEXAAVCAr@@@Z
_TEXT	SEGMENT
_ar$ = 8						; size = 4
?Serialize@CFlyffEvent@@QAEXAAVCAr@@@Z PROC		; CFlyffEvent::Serialize, COMDAT
; _this$ = ecx

; 25   : {

  00000	55		 push	 ebp
  00001	8b ec		 mov	 ebp, esp
  00003	8b c1		 mov	 eax, ecx
; File C:\IAGOS\server\v18\Source\Source\_Network\Misc\Include\ar.h

; 146  : 	return (m_nMode & CAr::load) == 0;

  00005	8b 4d 08	 mov	 ecx, DWORD PTR _ar$[ebp]
; File C:\IAGOS\server\v18\Source\Source\_common\flyffevent.cpp

; 26   : 	if( ar.IsStoring() )

  00008	68 00 04 00 00	 push	 1024			; 00000400H
  0000d	50		 push	 eax
; File C:\IAGOS\server\v18\Source\Source\_Network\Misc\Include\ar.h

; 146  : 	return (m_nMode & CAr::load) == 0;

  0000e	f6 01 01	 test	 BYTE PTR [ecx], 1
; File C:\IAGOS\server\v18\Source\Source\_common\flyffevent.cpp

; 26   : 	if( ar.IsStoring() )

  00011	75 09		 jne	 SHORT $LN2@Serialize

; 27   : 	{
; 28   : 		ar.Write( (const void*)m_aEvent, sizeof(BYTE) * MAX_EVENT );

  00013	e8 00 00 00 00	 call	 ?Write@CAr@@QAEXPBXI@Z	; CAr::Write

; 33   : 	}
; 34   : }

  00018	5d		 pop	 ebp
  00019	c2 04 00	 ret	 4
$LN2@Serialize:

; 29   : 	}
; 30   : 	else
; 31   : 	{
; 32   : 		ar.Read( (void*)m_aEvent, sizeof(BYTE) * MAX_EVENT );

  0001c	e8 00 00 00 00	 call	 ?Read@CAr@@QAEXPAXI@Z	; CAr::Read

; 33   : 	}
; 34   : }

  00021	5d		 pop	 ebp
  00022	c2 04 00	 ret	 4
?Serialize@CFlyffEvent@@QAEXAAVCAr@@@Z ENDP		; CFlyffEvent::Serialize
_TEXT	ENDS
; Function compile flags: /Ogtp
; File C:\IAGOS\server\v18\Source\Source\_common\flyffevent.cpp
;	COMDAT ?GetState@CFlyffEvent@@QAEEH@Z
_TEXT	SEGMENT
_id$ = 8						; size = 4
?GetState@CFlyffEvent@@QAEEH@Z PROC			; CFlyffEvent::GetState, COMDAT
; _this$ = ecx

; 18   : {

  00000	55		 push	 ebp
  00001	8b ec		 mov	 ebp, esp

; 19   : 	if( id < 0 || id >= MAX_EVENT )

  00003	8b 45 08	 mov	 eax, DWORD PTR _id$[ebp]
  00006	3d ff 03 00 00	 cmp	 eax, 1023		; 000003ffH
  0000b	77 07		 ja	 SHORT $LN3@GetState

; 21   : 	return m_aEvent[id];

  0000d	8a 04 08	 mov	 al, BYTE PTR [eax+ecx]

; 22   : }

  00010	5d		 pop	 ebp
  00011	c2 04 00	 ret	 4
$LN3@GetState:

; 20   : 		return (BYTE)0;

  00014	32 c0		 xor	 al, al

; 22   : }

  00016	5d		 pop	 ebp
  00017	c2 04 00	 ret	 4
?GetState@CFlyffEvent@@QAEEH@Z ENDP			; CFlyffEvent::GetState
_TEXT	ENDS
; Function compile flags: /Ogtp
; File C:\IAGOS\server\v18\Source\Source\_common\flyffevent.cpp
;	COMDAT ?SetState@CFlyffEvent@@QAEHHE@Z
_TEXT	SEGMENT
_id$ = 8						; size = 4
_nState$ = 12						; size = 1
?SetState@CFlyffEvent@@QAEHHE@Z PROC			; CFlyffEvent::SetState, COMDAT
; _this$ = ecx

; 10   : {

  00000	55		 push	 ebp
  00001	8b ec		 mov	 ebp, esp

; 11   : 	if( id < 0 || id >= MAX_EVENT )

  00003	8b 55 08	 mov	 edx, DWORD PTR _id$[ebp]
  00006	81 fa ff 03 00
	00		 cmp	 edx, 1023		; 000003ffH
  0000c	77 0f		 ja	 SHORT $LN3@SetState

; 13   : 	m_aEvent[id]	= nState;

  0000e	8a 45 0c	 mov	 al, BYTE PTR _nState$[ebp]
  00011	88 04 0a	 mov	 BYTE PTR [edx+ecx], al

; 14   : 	return TRUE;

  00014	b8 01 00 00 00	 mov	 eax, 1

; 15   : }

  00019	5d		 pop	 ebp
  0001a	c2 08 00	 ret	 8
$LN3@SetState:

; 12   : 		return FALSE;

  0001d	33 c0		 xor	 eax, eax

; 15   : }

  0001f	5d		 pop	 ebp
  00020	c2 08 00	 ret	 8
?SetState@CFlyffEvent@@QAEHHE@Z ENDP			; CFlyffEvent::SetState
_TEXT	ENDS
; Function compile flags: /Ogtp
; File C:\IAGOS\server\v18\Source\Source\_common\flyffevent.cpp
;	COMDAT ??0CFlyffEvent@@QAE@XZ
_TEXT	SEGMENT
??0CFlyffEvent@@QAE@XZ PROC				; CFlyffEvent::CFlyffEvent, COMDAT
; _this$ = ecx

; 5    : {

  00000	56		 push	 esi

; 6    : 	memset( (void*)m_aEvent, 0, sizeof(BYTE) * MAX_EVENT );

  00001	68 00 04 00 00	 push	 1024			; 00000400H
  00006	8b f1		 mov	 esi, ecx
  00008	6a 00		 push	 0
  0000a	56		 push	 esi
  0000b	e8 00 00 00 00	 call	 _memset
  00010	83 c4 0c	 add	 esp, 12			; 0000000cH

; 7    : }

  00013	8b c6		 mov	 eax, esi
  00015	5e		 pop	 esi
  00016	c3		 ret	 0
??0CFlyffEvent@@QAE@XZ ENDP				; CFlyffEvent::CFlyffEvent
_TEXT	ENDS
; Function compile flags: /Ogtp
; File C:\IAGOS\server\v18\Source\Source\_common\flyffevent.cpp
;	COMDAT ?__empty_global_delete@@YAXPAXI@Z
_TEXT	SEGMENT
___formal$ = 8						; size = 4
___formal$ = 12						; size = 4
?__empty_global_delete@@YAXPAXI@Z PROC			; __empty_global_delete, COMDAT

  00000	c2 00 00	 ret	 0
?__empty_global_delete@@YAXPAXI@Z ENDP			; __empty_global_delete
_TEXT	ENDS
; Function compile flags: /Ogtp
; File C:\IAGOS\server\v18\Source\Source\_common\flyffevent.cpp
;	COMDAT ?__empty_global_delete@@YAXPAX@Z
_TEXT	SEGMENT
___formal$ = 8						; size = 4
?__empty_global_delete@@YAXPAX@Z PROC			; __empty_global_delete, COMDAT

  00000	c2 00 00	 ret	 0
?__empty_global_delete@@YAXPAX@Z ENDP			; __empty_global_delete
_TEXT	ENDS
END
