; Listing generated by Microsoft (R) Optimizing Compiler Version 19.44.35225.0 

	TITLE	C:\IAGOS\server\v18\Source\Output\WorldServer\Release\guild.obj
	.686P
	.XMM
	include listing.inc
	.model	flat

INCLUDELIB LIBCMT
INCLUDELIB OLDNAMES

PUBLIC	?sm_anMaxMemberSize@CGuild@@2PAHA		; CGuild::sm_anMaxMemberSize
PUBLIC	?sm_anMaxMemberLvSize@CGuild@@2PAHA		; CGuild::sm_anMaxMemberLvSize
CONST	SEGMENT
?piecewise_construct@std@@3Upiecewise_construct_t@1@B	ORG $+1 ; std::piecewise_construct
CONST	ENDS
_DATA	SEGMENT
?sm_anMaxMemberSize@CGuild@@2PAHA DD 01eH		; CGuild::sm_anMaxMemberSize
	DD	01eH
	DD	020H
	DD	020H
	DD	022H
	DD	022H
	DD	024H
	DD	024H
	DD	026H
	DD	026H
	DD	028H
	DD	028H
	DD	02aH
	DD	02aH
	DD	02cH
	DD	02cH
	DD	02eH
	DD	02eH
	DD	030H
	DD	030H
	DD	031H
	DD	032H
	DD	033H
	DD	034H
	DD	035H
	DD	036H
	DD	037H
	DD	038H
	DD	039H
	DD	03aH
	DD	03bH
	DD	03cH
	DD	03dH
	DD	03eH
	DD	03fH
	DD	040H
	DD	041H
	DD	042H
	DD	043H
	DD	044H
	DD	045H
	DD	046H
	DD	047H
	DD	048H
	DD	049H
	DD	04aH
	DD	04bH
	DD	04cH
	DD	04dH
	DD	050H
?sm_anMaxMemberLvSize@CGuild@@2PAHA DD 01H		; CGuild::sm_anMaxMemberLvSize
	DD	05H
	DD	0aH
	DD	014H
	DD	050H
_DATA	ENDS
PUBLIC	??_H@YGXPAXIIP6EPAX0@Z@Z			; `vector constructor iterator'
PUBLIC	?__empty_global_delete@@YAXPAX@Z		; __empty_global_delete
PUBLIC	?__empty_global_delete@@YAXPAXI@Z		; __empty_global_delete
PUBLIC	??0exception@std@@QAE@ABV01@@Z			; std::exception::exception
PUBLIC	??1exception@std@@UAE@XZ			; std::exception::~exception
PUBLIC	?what@exception@std@@UBEPBDXZ			; std::exception::what
PUBLIC	??_Gexception@std@@UAEPAXI@Z			; std::exception::`scalar deleting destructor'
PUBLIC	??0bad_alloc@std@@QAE@ABV01@@Z			; std::bad_alloc::bad_alloc
PUBLIC	??_Gbad_alloc@std@@UAEPAXI@Z			; std::bad_alloc::`scalar deleting destructor'
PUBLIC	??0bad_array_new_length@std@@QAE@XZ		; std::bad_array_new_length::bad_array_new_length
PUBLIC	??1bad_array_new_length@std@@UAE@XZ		; std::bad_array_new_length::~bad_array_new_length
PUBLIC	??0bad_array_new_length@std@@QAE@ABV01@@Z	; std::bad_array_new_length::bad_array_new_length
PUBLIC	??_Gbad_array_new_length@std@@UAEPAXI@Z		; std::bad_array_new_length::`scalar deleting destructor'
PUBLIC	?_Throw_bad_array_new_length@std@@YAXXZ		; std::_Throw_bad_array_new_length
PUBLIC	?_Xlen_string@std@@YAXXZ			; std::_Xlen_string
PUBLIC	??0?$basic_string@DU?$char_traits@D@std@@V?$allocator@D@2@@std@@QAE@QBD@Z ; std::basic_string<char,std::char_traits<char>,std::allocator<char> >::basic_string<char,std::char_traits<char>,std::allocator<char> >
PUBLIC	??1?$basic_string@DU?$char_traits@D@std@@V?$allocator@D@2@@std@@QAE@XZ ; std::basic_string<char,std::char_traits<char>,std::allocator<char> >::~basic_string<char,std::char_traits<char>,std::allocator<char> >
PUBLIC	?_Throw_tree_length_error@std@@YAXXZ		; std::_Throw_tree_length_error
PUBLIC	??0_GUILDQUEST@@QAE@XZ				; _GUILDQUEST::_GUILDQUEST
PUBLIC	??_ECItemElem@@UAEPAXI@Z			; CItemElem::`vector deleting destructor'
PUBLIC	?SetItemContainer@?$CItemContainer@VCItemElem@@@@QAEXKKK@Z ; CItemContainer<CItemElem>::SetItemContainer
PUBLIC	??0?$CItemContainer@VCItemElem@@@@QAE@XZ	; CItemContainer<CItemElem>::CItemContainer<CItemElem>
PUBLIC	??1?$CItemContainer@VCItemElem@@@@UAE@XZ	; CItemContainer<CItemElem>::~CItemContainer<CItemElem>
PUBLIC	?Clear@?$CItemContainer@VCItemElem@@@@QAEXXZ	; CItemContainer<CItemElem>::Clear
PUBLIC	?GetAtId@?$CItemContainer@VCItemElem@@@@QAEPAVCItemElem@@K@Z ; CItemContainer<CItemElem>::GetAtId
PUBLIC	?RemoveAtId@?$CItemContainer@VCItemElem@@@@QAEXK@Z ; CItemContainer<CItemElem>::RemoveAtId
PUBLIC	??_G?$CItemContainer@VCItemElem@@@@UAEPAXI@Z	; CItemContainer<CItemElem>::`scalar deleting destructor'
PUBLIC	??$?MDU?$char_traits@D@std@@V?$allocator@D@1@@std@@YA_NABV?$basic_string@DU?$char_traits@D@std@@V?$allocator@D@2@@0@0@Z ; std::operator<<char,std::char_traits<char>,std::allocator<char> >
PUBLIC	??$_Allocate_manually_vector_aligned@U_Default_allocate_traits@std@@@std@@YAPAXI@Z ; std::_Allocate_manually_vector_aligned<std::_Default_allocate_traits>
PUBLIC	??6@YAAAVCAr@@AAV0@AAUVOTE_INSERTED_INFO@@@Z	; operator<<
PUBLIC	??5@YAAAVCAr@@AAV0@AAUVOTE_INSERTED_INFO@@@Z	; operator>>
PUBLIC	??0CGuildVote@@QAE@XZ				; CGuildVote::CGuildVote
PUBLIC	??1CGuildVote@@UAE@XZ				; CGuildVote::~CGuildVote
PUBLIC	?Serialize@CGuildVote@@QAEXAAVCAr@@@Z		; CGuildVote::Serialize
PUBLIC	?Init@CGuildVote@@QAEXABUVOTE_INSERTED_INFO@@_NPAE@Z ; CGuildVote::Init
PUBLIC	?Cast@CGuildVote@@QAEXE@Z			; CGuildVote::Cast
PUBLIC	??_GCGuildVote@@UAEPAXI@Z			; CGuildVote::`scalar deleting destructor'
PUBLIC	??6@YAAAVCAr@@AAV0@AAUCONTRIBUTION_CHANGED_INFO@@@Z ; operator<<
PUBLIC	??5@YAAAVCAr@@AAV0@AAUCONTRIBUTION_CHANGED_INFO@@@Z ; operator>>
PUBLIC	??1CGuildTable@@UAE@XZ				; CGuildTable::~CGuildTable
PUBLIC	?GetPxpCount@CGuildTable@@QBEKG@Z		; CGuildTable::GetPxpCount
PUBLIC	?GetPenya@CGuildTable@@QBEKG@Z			; CGuildTable::GetPenya
PUBLIC	?GetMaxMemeber@CGuildTable@@QBEGG@Z		; CGuildTable::GetMaxMemeber
PUBLIC	?Serialize@CGuildTable@@QAEXAAVCAr@@@Z		; CGuildTable::Serialize
PUBLIC	?ReadBlock@CGuildTable@@QAEHAAVCScript@@@Z	; CGuildTable::ReadBlock
PUBLIC	?GetInstance@CGuildTable@@SAAAV1@XZ		; CGuildTable::GetInstance
PUBLIC	??0CGuildTable@@AAE@XZ				; CGuildTable::CGuildTable
PUBLIC	??_GCGuildTable@@UAEPAXI@Z			; CGuildTable::`scalar deleting destructor'
PUBLIC	??0CGuildMember@@QAE@XZ				; CGuildMember::CGuildMember
PUBLIC	??1CGuildMember@@UAE@XZ				; CGuildMember::~CGuildMember
PUBLIC	?Serialize@CGuildMember@@QAEXAAVCAr@@@Z		; CGuildMember::Serialize
PUBLIC	??4CGuildMember@@QAEAAV0@AAV0@@Z		; CGuildMember::operator=
PUBLIC	??_GCGuildMember@@UAEPAXI@Z			; CGuildMember::`scalar deleting destructor'
PUBLIC	??1?$_Tree@V?$_Tmap_traits@KPAVCGuildMember@@U?$less@K@std@@V?$allocator@U?$pair@$$CBKPAVCGuildMember@@@std@@@3@$0A@@std@@@std@@QAE@XZ ; std::_Tree<std::_Tmap_traits<unsigned long,CGuildMember *,std::less<unsigned long>,std::allocator<std::pair<unsigned long const ,CGuildMember *> >,0> >::~_Tree<std::_Tmap_traits<unsigned long,CGuildMember *,std::less<unsigned long>,std::allocator<std::pair<unsigned long const ,CGuildMember *> >,0> >
PUBLIC	?clear@?$_Tree@V?$_Tmap_traits@KPAVCGuildMember@@U?$less@K@std@@V?$allocator@U?$pair@$$CBKPAVCGuildMember@@@std@@@3@$0A@@std@@@std@@QAEXXZ ; std::_Tree<std::_Tmap_traits<unsigned long,CGuildMember *,std::less<unsigned long>,std::allocator<std::pair<unsigned long const ,CGuildMember *> >,0> >::clear
PUBLIC	?_Lrotate@?$_Tree_val@U?$_Tree_simple_types@U?$pair@$$CBKPAVCGuildMember@@@std@@@std@@@std@@QAEXPAU?$_Tree_node@U?$pair@$$CBKPAVCGuildMember@@@std@@PAX@2@@Z ; std::_Tree_val<std::_Tree_simple_types<std::pair<unsigned long const ,CGuildMember *> > >::_Lrotate
PUBLIC	?_Rrotate@?$_Tree_val@U?$_Tree_simple_types@U?$pair@$$CBKPAVCGuildMember@@@std@@@std@@@std@@QAEXPAU?$_Tree_node@U?$pair@$$CBKPAVCGuildMember@@@std@@PAX@2@@Z ; std::_Tree_val<std::_Tree_simple_types<std::pair<unsigned long const ,CGuildMember *> > >::_Rrotate
PUBLIC	?_Extract@?$_Tree_val@U?$_Tree_simple_types@U?$pair@$$CBKPAVCGuildMember@@@std@@@std@@@std@@QAEPAU?$_Tree_node@U?$pair@$$CBKPAVCGuildMember@@@std@@PAX@2@V?$_Tree_unchecked_const_iterator@V?$_Tree_val@U?$_Tree_simple_types@U?$pair@$$CBKPAVCGuildMember@@@std@@@std@@@std@@U_Iterator_base0@2@@2@@Z ; std::_Tree_val<std::_Tree_simple_types<std::pair<unsigned long const ,CGuildMember *> > >::_Extract
PUBLIC	?_Insert_node@?$_Tree_val@U?$_Tree_simple_types@U?$pair@$$CBKPAVCGuildMember@@@std@@@std@@@std@@QAEPAU?$_Tree_node@U?$pair@$$CBKPAVCGuildMember@@@std@@PAX@2@U?$_Tree_id@PAU?$_Tree_node@U?$pair@$$CBKPAVCGuildMember@@@std@@PAX@std@@@2@QAU32@@Z ; std::_Tree_val<std::_Tree_simple_types<std::pair<unsigned long const ,CGuildMember *> > >::_Insert_node
PUBLIC	??1?$map@KPAVCGuildMember@@U?$less@K@std@@V?$allocator@U?$pair@$$CBKPAVCGuildMember@@@std@@@3@@std@@QAE@XZ ; std::map<unsigned long,CGuildMember *,std::less<unsigned long>,std::allocator<std::pair<unsigned long const ,CGuildMember *> > >::~map<unsigned long,CGuildMember *,std::less<unsigned long>,std::allocator<std::pair<unsigned long const ,CGuildMember *> > >
PUBLIC	??1?$list@PAVCGuildVote@@V?$allocator@PAVCGuildVote@@@std@@@std@@QAE@XZ ; std::list<CGuildVote *,std::allocator<CGuildVote *> >::~list<CGuildVote *,std::allocator<CGuildVote *> >
PUBLIC	?push_back@?$list@PAVCGuildVote@@V?$allocator@PAVCGuildVote@@@std@@@std@@QAEXABQAVCGuildVote@@@Z ; std::list<CGuildVote *,std::allocator<CGuildVote *> >::push_back
PUBLIC	??0CGuild@@QAE@XZ				; CGuild::CGuild
PUBLIC	??1CGuild@@UAE@XZ				; CGuild::~CGuild
PUBLIC	?Clear@CGuild@@QAEXXZ				; CGuild::Clear
PUBLIC	?AddMember@CGuild@@QAEHPAVCGuildMember@@@Z	; CGuild::AddMember
PUBLIC	?RemoveMember@CGuild@@QAEHK@Z			; CGuild::RemoveMember
PUBLIC	?Serialize@CGuild@@QAEXAAVCAr@@H@Z		; CGuild::Serialize
PUBLIC	?SetLogo@CGuild@@QAEHK@Z			; CGuild::SetLogo
PUBLIC	?SetNotice@CGuild@@QAEXPBD@Z			; CGuild::SetNotice
PUBLIC	?SetContribution@CGuild@@QAEXAAUCONTRIBUTION_CHANGED_INFO@@@Z ; CGuild::SetContribution
PUBLIC	?AddContribution@CGuild@@QAEHKKK@Z		; CGuild::AddContribution
PUBLIC	?CanContribute@CGuild@@QAE?AW4CONTRIBUTION_RESULT@@KKK@Z ; CGuild::CanContribute
PUBLIC	?DecrementMemberContribution@CGuild@@QAEXKKK@Z	; CGuild::DecrementMemberContribution
PUBLIC	?AddVote@CGuild@@QAEXABUVOTE_INSERTED_INFO@@_NPAE@Z ; CGuild::AddVote
PUBLIC	?FindVote@CGuild@@QAEPAVCGuildVote@@K@Z		; CGuild::FindVote
PUBLIC	?ModifyVote@CGuild@@QAE_NKEE@Z			; CGuild::ModifyVote
PUBLIC	?GetMember@CGuild@@QAEPAVCGuildMember@@K@Z	; CGuild::GetMember
PUBLIC	?GetWar@CGuild@@QAEPAVCGuildWar@@XZ		; CGuild::GetWar
PUBLIC	?GetMaxMemberSize@CGuild@@QAEHXZ		; CGuild::GetMaxMemberSize
PUBLIC	?GetMemberLvSize@CGuild@@QAEHH@Z		; CGuild::GetMemberLvSize
PUBLIC	?GetMaxMemberLvSize@CGuild@@QAEHH@Z		; CGuild::GetMaxMemberLvSize
PUBLIC	??4CGuild@@QAEAAV0@AAV0@@Z			; CGuild::operator=
PUBLIC	?FindQuest@CGuild@@QAEPAU_GUILDQUEST@@H@Z	; CGuild::FindQuest
PUBLIC	?RemoveQuest@CGuild@@QAEHH@Z			; CGuild::RemoveQuest
PUBLIC	?SetQuest@CGuild@@QAEXHH@Z			; CGuild::SetQuest
PUBLIC	?ReplaceLodestar@CGuild@@QAEXABVCRect@@@Z	; CGuild::ReplaceLodestar
PUBLIC	?Replace@CGuild@@QAEXKAAUD3DXVECTOR3@@H@Z	; CGuild::Replace
PUBLIC	?GetItem@CGuild@@QAEPAVCItemElem@@KK@Z		; CGuild::GetItem
PUBLIC	?RemoveItem@CGuild@@QAEFKF@Z			; CGuild::RemoveItem
PUBLIC	??_GCGuild@@UAEPAXI@Z				; CGuild::`scalar deleting destructor'
PUBLIC	??1?$_Tree@V?$_Tmap_traits@KPAVCGuild@@U?$less@K@std@@V?$allocator@U?$pair@$$CBKPAVCGuild@@@std@@@3@$0A@@std@@@std@@QAE@XZ ; std::_Tree<std::_Tmap_traits<unsigned long,CGuild *,std::less<unsigned long>,std::allocator<std::pair<unsigned long const ,CGuild *> >,0> >::~_Tree<std::_Tmap_traits<unsigned long,CGuild *,std::less<unsigned long>,std::allocator<std::pair<unsigned long const ,CGuild *> >,0> >
PUBLIC	?clear@?$_Tree@V?$_Tmap_traits@KPAVCGuild@@U?$less@K@std@@V?$allocator@U?$pair@$$CBKPAVCGuild@@@std@@@3@$0A@@std@@@std@@QAEXXZ ; std::_Tree<std::_Tmap_traits<unsigned long,CGuild *,std::less<unsigned long>,std::allocator<std::pair<unsigned long const ,CGuild *> >,0> >::clear
PUBLIC	?_Lrotate@?$_Tree_val@U?$_Tree_simple_types@U?$pair@$$CBKPAVCGuild@@@std@@@std@@@std@@QAEXPAU?$_Tree_node@U?$pair@$$CBKPAVCGuild@@@std@@PAX@2@@Z ; std::_Tree_val<std::_Tree_simple_types<std::pair<unsigned long const ,CGuild *> > >::_Lrotate
PUBLIC	?_Rrotate@?$_Tree_val@U?$_Tree_simple_types@U?$pair@$$CBKPAVCGuild@@@std@@@std@@@std@@QAEXPAU?$_Tree_node@U?$pair@$$CBKPAVCGuild@@@std@@PAX@2@@Z ; std::_Tree_val<std::_Tree_simple_types<std::pair<unsigned long const ,CGuild *> > >::_Rrotate
PUBLIC	?_Extract@?$_Tree_val@U?$_Tree_simple_types@U?$pair@$$CBKPAVCGuild@@@std@@@std@@@std@@QAEPAU?$_Tree_node@U?$pair@$$CBKPAVCGuild@@@std@@PAX@2@V?$_Tree_unchecked_const_iterator@V?$_Tree_val@U?$_Tree_simple_types@U?$pair@$$CBKPAVCGuild@@@std@@@std@@@std@@U_Iterator_base0@2@@2@@Z ; std::_Tree_val<std::_Tree_simple_types<std::pair<unsigned long const ,CGuild *> > >::_Extract
PUBLIC	?_Insert_node@?$_Tree_val@U?$_Tree_simple_types@U?$pair@$$CBKPAVCGuild@@@std@@@std@@@std@@QAEPAU?$_Tree_node@U?$pair@$$CBKPAVCGuild@@@std@@PAX@2@U?$_Tree_id@PAU?$_Tree_node@U?$pair@$$CBKPAVCGuild@@@std@@PAX@std@@@2@QAU32@@Z ; std::_Tree_val<std::_Tree_simple_types<std::pair<unsigned long const ,CGuild *> > >::_Insert_node
PUBLIC	??1?$map@KPAVCGuild@@U?$less@K@std@@V?$allocator@U?$pair@$$CBKPAVCGuild@@@std@@@3@@std@@QAE@XZ ; std::map<unsigned long,CGuild *,std::less<unsigned long>,std::allocator<std::pair<unsigned long const ,CGuild *> > >::~map<unsigned long,CGuild *,std::less<unsigned long>,std::allocator<std::pair<unsigned long const ,CGuild *> > >
PUBLIC	?erase@?$_Tree@V?$_Tmap_traits@V?$basic_string@DU?$char_traits@D@std@@V?$allocator@D@2@@std@@PAVCGuild@@U?$less@V?$basic_string@DU?$char_traits@D@std@@V?$allocator@D@2@@std@@@2@V?$allocator@U?$pair@$$CBV?$basic_string@DU?$char_traits@D@std@@V?$allocator@D@2@@std@@PAVCGuild@@@std@@@2@$0A@@std@@@std@@QAEIABV?$basic_string@DU?$char_traits@D@std@@V?$allocator@D@2@@2@@Z ; std::_Tree<std::_Tmap_traits<std::basic_string<char,std::char_traits<char>,std::allocator<char> >,CGuild *,std::less<std::basic_string<char,std::char_traits<char>,std::allocator<char> > >,std::allocator<std::pair<std::basic_string<char,std::char_traits<char>,std::allocator<char> > const ,CGuild *> >,0> >::erase
PUBLIC	?_Lrotate@?$_Tree_val@U?$_Tree_simple_types@U?$pair@$$CBV?$basic_string@DU?$char_traits@D@std@@V?$allocator@D@2@@std@@PAVCGuild@@@std@@@std@@@std@@QAEXPAU?$_Tree_node@U?$pair@$$CBV?$basic_string@DU?$char_traits@D@std@@V?$allocator@D@2@@std@@PAVCGuild@@@std@@PAX@2@@Z ; std::_Tree_val<std::_Tree_simple_types<std::pair<std::basic_string<char,std::char_traits<char>,std::allocator<char> > const ,CGuild *> > >::_Lrotate
PUBLIC	?_Rrotate@?$_Tree_val@U?$_Tree_simple_types@U?$pair@$$CBV?$basic_string@DU?$char_traits@D@std@@V?$allocator@D@2@@std@@PAVCGuild@@@std@@@std@@@std@@QAEXPAU?$_Tree_node@U?$pair@$$CBV?$basic_string@DU?$char_traits@D@std@@V?$allocator@D@2@@std@@PAVCGuild@@@std@@PAX@2@@Z ; std::_Tree_val<std::_Tree_simple_types<std::pair<std::basic_string<char,std::char_traits<char>,std::allocator<char> > const ,CGuild *> > >::_Rrotate
PUBLIC	?_Extract@?$_Tree_val@U?$_Tree_simple_types@U?$pair@$$CBV?$basic_string@DU?$char_traits@D@std@@V?$allocator@D@2@@std@@PAVCGuild@@@std@@@std@@@std@@QAEPAU?$_Tree_node@U?$pair@$$CBV?$basic_string@DU?$char_traits@D@std@@V?$allocator@D@2@@std@@PAVCGuild@@@std@@PAX@2@V?$_Tree_unchecked_const_iterator@V?$_Tree_val@U?$_Tree_simple_types@U?$pair@$$CBV?$basic_string@DU?$char_traits@D@std@@V?$allocator@D@2@@std@@PAVCGuild@@@std@@@std@@@std@@U_Iterator_base0@2@@2@@Z ; std::_Tree_val<std::_Tree_simple_types<std::pair<std::basic_string<char,std::char_traits<char>,std::allocator<char> > const ,CGuild *> > >::_Extract
PUBLIC	?_Insert_node@?$_Tree_val@U?$_Tree_simple_types@U?$pair@$$CBV?$basic_string@DU?$char_traits@D@std@@V?$allocator@D@2@@std@@PAVCGuild@@@std@@@std@@@std@@QAEPAU?$_Tree_node@U?$pair@$$CBV?$basic_string@DU?$char_traits@D@std@@V?$allocator@D@2@@std@@PAVCGuild@@@std@@PAX@2@U?$_Tree_id@PAU?$_Tree_node@U?$pair@$$CBV?$basic_string@DU?$char_traits@D@std@@V?$allocator@D@2@@std@@PAVCGuild@@@std@@PAX@std@@@2@QAU32@@Z ; std::_Tree_val<std::_Tree_simple_types<std::pair<std::basic_string<char,std::char_traits<char>,std::allocator<char> > const ,CGuild *> > >::_Insert_node
PUBLIC	??0CGuildMng@@QAE@XZ				; CGuildMng::CGuildMng
PUBLIC	??1CGuildMng@@UAE@XZ				; CGuildMng::~CGuildMng
PUBLIC	?Clear@CGuildMng@@QAEXXZ			; CGuildMng::Clear
PUBLIC	?AddGuild@CGuildMng@@QAEKPAVCGuild@@@Z		; CGuildMng::AddGuild
PUBLIC	?RemoveGuild@CGuildMng@@QAEHK@Z			; CGuildMng::RemoveGuild
PUBLIC	?GetGuild@CGuildMng@@QAEPAVCGuild@@K@Z		; CGuildMng::GetGuild
PUBLIC	?GetGuild@CGuildMng@@QAEPAVCGuild@@PBD@Z	; CGuildMng::GetGuild
PUBLIC	?Serialize@CGuildMng@@QAEXAAVCAr@@H@Z		; CGuildMng::Serialize
PUBLIC	?SetName@CGuildMng@@QAEHPAVCGuild@@PBD@Z	; CGuildMng::SetName
PUBLIC	?Process@CGuildMng@@QAEXXZ			; CGuildMng::Process
PUBLIC	??_GCGuildMng@@UAEPAXI@Z			; CGuildMng::`scalar deleting destructor'
PUBLIC	??$?6K@CAr@@QAEAAV0@ABK@Z			; CAr::operator<<<unsigned long>
PUBLIC	??$?5K@CAr@@QAEAAV0@AAK@Z			; CAr::operator>><unsigned long>
PUBLIC	??$?6G@CAr@@QAEAAV0@ABG@Z			; CAr::operator<<<unsigned short>
PUBLIC	??$?6H@CAr@@QAEAAV0@ABH@Z			; CAr::operator<<<int>
PUBLIC	??$?5G@CAr@@QAEAAV0@AAG@Z			; CAr::operator>><unsigned short>
PUBLIC	??$?5H@CAr@@QAEAAV0@AAH@Z			; CAr::operator>><int>
PUBLIC	??$?6E@CAr@@QAEAAV0@ABE@Z			; CAr::operator<<<unsigned char>
PUBLIC	??$?5E@CAr@@QAEAAV0@AAE@Z			; CAr::operator>><unsigned char>
PUBLIC	??$?6F@CAr@@QAEAAV0@ABF@Z			; CAr::operator<<<short>
PUBLIC	??$?5F@CAr@@QAEAAV0@AAF@Z			; CAr::operator>><short>
PUBLIC	??E?$_Tree_unchecked_const_iterator@V?$_Tree_val@U?$_Tree_simple_types@U?$pair@$$CBKPAVCGuildMember@@@std@@@std@@@std@@U_Iterator_base0@2@@std@@QAEAAV01@XZ ; std::_Tree_unchecked_const_iterator<std::_Tree_val<std::_Tree_simple_types<std::pair<unsigned long const ,CGuildMember *> > >,std::_Iterator_base0>::operator++
PUBLIC	??$insert@$0A@$0A@@?$_Tree@V?$_Tmap_traits@KPAVCGuildMember@@U?$less@K@std@@V?$allocator@U?$pair@$$CBKPAVCGuildMember@@@std@@@3@$0A@@std@@@std@@QAE?AU?$pair@V?$_Tree_iterator@V?$_Tree_val@U?$_Tree_simple_types@U?$pair@$$CBKPAVCGuildMember@@@std@@@std@@@std@@@std@@_N@1@$$QAU?$pair@$$CBKPAVCGuildMember@@@1@@Z ; std::_Tree<std::_Tmap_traits<unsigned long,CGuildMember *,std::less<unsigned long>,std::allocator<std::pair<unsigned long const ,CGuildMember *> >,0> >::insert<0,0>
PUBLIC	??E?$_Tree_unchecked_const_iterator@V?$_Tree_val@U?$_Tree_simple_types@U?$pair@$$CBKPAVCGuild@@@std@@@std@@@std@@U_Iterator_base0@2@@std@@QAEAAV01@XZ ; std::_Tree_unchecked_const_iterator<std::_Tree_val<std::_Tree_simple_types<std::pair<unsigned long const ,CGuild *> > >,std::_Iterator_base0>::operator++
PUBLIC	??E?$_Tree_unchecked_const_iterator@V?$_Tree_val@U?$_Tree_simple_types@U?$pair@$$CBV?$basic_string@DU?$char_traits@D@std@@V?$allocator@D@2@@std@@PAVCGuild@@@std@@@std@@@std@@U_Iterator_base0@2@@std@@QAEAAV01@XZ ; std::_Tree_unchecked_const_iterator<std::_Tree_val<std::_Tree_simple_types<std::pair<std::basic_string<char,std::char_traits<char>,std::allocator<char> > const ,CGuild *> > >,std::_Iterator_base0>::operator++
PUBLIC	??1?$pair@$$CBV?$basic_string@DU?$char_traits@D@std@@V?$allocator@D@2@@std@@PAVCGuild@@@std@@QAE@XZ ; std::pair<std::basic_string<char,std::char_traits<char>,std::allocator<char> > const ,CGuild *>::~pair<std::basic_string<char,std::char_traits<char>,std::allocator<char> > const ,CGuild *>
PUBLIC	??$insert@$0A@$0A@@?$_Tree@V?$_Tmap_traits@KPAVCGuild@@U?$less@K@std@@V?$allocator@U?$pair@$$CBKPAVCGuild@@@std@@@3@$0A@@std@@@std@@QAE?AU?$pair@V?$_Tree_iterator@V?$_Tree_val@U?$_Tree_simple_types@U?$pair@$$CBKPAVCGuild@@@std@@@std@@@std@@@std@@_N@1@$$QAU?$pair@$$CBKPAVCGuild@@@1@@Z ; std::_Tree<std::_Tmap_traits<unsigned long,CGuild *,std::less<unsigned long>,std::allocator<std::pair<unsigned long const ,CGuild *> >,0> >::insert<0,0>
PUBLIC	??$_Emplace@U?$pair@$$CBV?$basic_string@DU?$char_traits@D@std@@V?$allocator@D@2@@std@@PAVCGuild@@@std@@@?$_Tree@V?$_Tmap_traits@V?$basic_string@DU?$char_traits@D@std@@V?$allocator@D@2@@std@@PAVCGuild@@U?$less@V?$basic_string@DU?$char_traits@D@std@@V?$allocator@D@2@@std@@@2@V?$allocator@U?$pair@$$CBV?$basic_string@DU?$char_traits@D@std@@V?$allocator@D@2@@std@@PAVCGuild@@@std@@@2@$0A@@std@@@std@@IAE?AU?$pair@PAU?$_Tree_node@U?$pair@$$CBV?$basic_string@DU?$char_traits@D@std@@V?$allocator@D@2@@std@@PAVCGuild@@@std@@PAX@std@@_N@1@$$QAU?$pair@$$CBV?$basic_string@DU?$char_traits@D@std@@V?$allocator@D@2@@std@@PAVCGuild@@@1@@Z ; std::_Tree<std::_Tmap_traits<std::basic_string<char,std::char_traits<char>,std::allocator<char> >,CGuild *,std::less<std::basic_string<char,std::char_traits<char>,std::allocator<char> > >,std::allocator<std::pair<std::basic_string<char,std::char_traits<char>,std::allocator<char> > const ,CGuild *> >,0> >::_Emplace<std::pair<std::basic_string<char,std::char_traits<char>,std::allocator<char> > const ,CGuild *> >
PUBLIC	??$_Erase_tree@V?$allocator@U?$_Tree_node@U?$pair@$$CBV?$basic_string@DU?$char_traits@D@std@@V?$allocator@D@2@@std@@PAVCGuild@@@std@@PAX@std@@@std@@@?$_Tree_val@U?$_Tree_simple_types@U?$pair@$$CBV?$basic_string@DU?$char_traits@D@std@@V?$allocator@D@2@@std@@PAVCGuild@@@std@@@std@@@std@@QAEXAAV?$allocator@U?$_Tree_node@U?$pair@$$CBV?$basic_string@DU?$char_traits@D@std@@V?$allocator@D@2@@std@@PAVCGuild@@@std@@PAX@std@@@1@PAU?$_Tree_node@U?$pair@$$CBV?$basic_string@DU?$char_traits@D@std@@V?$allocator@D@2@@std@@PAVCGuild@@@std@@PAX@1@@Z ; std::_Tree_val<std::_Tree_simple_types<std::pair<std::basic_string<char,std::char_traits<char>,std::allocator<char> > const ,CGuild *> > >::_Erase_tree<std::allocator<std::_Tree_node<std::pair<std::basic_string<char,std::char_traits<char>,std::allocator<char> > const ,CGuild *>,void *> > >
PUBLIC	??$_Erase_tree@V?$allocator@U?$_Tree_node@U?$pair@$$CBKPAVCGuild@@@std@@PAX@std@@@std@@@?$_Tree_val@U?$_Tree_simple_types@U?$pair@$$CBKPAVCGuild@@@std@@@std@@@std@@QAEXAAV?$allocator@U?$_Tree_node@U?$pair@$$CBKPAVCGuild@@@std@@PAX@std@@@1@PAU?$_Tree_node@U?$pair@$$CBKPAVCGuild@@@std@@PAX@1@@Z ; std::_Tree_val<std::_Tree_simple_types<std::pair<unsigned long const ,CGuild *> > >::_Erase_tree<std::allocator<std::_Tree_node<std::pair<unsigned long const ,CGuild *>,void *> > >
PUBLIC	??$_Erase_tree@V?$allocator@U?$_Tree_node@U?$pair@$$CBKPAVCGuildMember@@@std@@PAX@std@@@std@@@?$_Tree_val@U?$_Tree_simple_types@U?$pair@$$CBKPAVCGuildMember@@@std@@@std@@@std@@QAEXAAV?$allocator@U?$_Tree_node@U?$pair@$$CBKPAVCGuildMember@@@std@@PAX@std@@@1@PAU?$_Tree_node@U?$pair@$$CBKPAVCGuildMember@@@std@@PAX@1@@Z ; std::_Tree_val<std::_Tree_simple_types<std::pair<unsigned long const ,CGuildMember *> > >::_Erase_tree<std::allocator<std::_Tree_node<std::pair<unsigned long const ,CGuildMember *>,void *> > >
PUBLIC	??$_Find_lower_bound@K@?$_Tree@V?$_Tmap_traits@KPAVCGuildMember@@U?$less@K@std@@V?$allocator@U?$pair@$$CBKPAVCGuildMember@@@std@@@3@$0A@@std@@@std@@IBE?AU?$_Tree_find_result@PAU?$_Tree_node@U?$pair@$$CBKPAVCGuildMember@@@std@@PAX@std@@@1@ABK@Z ; std::_Tree<std::_Tmap_traits<unsigned long,CGuildMember *,std::less<unsigned long>,std::allocator<std::pair<unsigned long const ,CGuildMember *> >,0> >::_Find_lower_bound<unsigned long>
PUBLIC	??1?$_Alloc_construct_ptr@V?$allocator@U?$_Tree_node@U?$pair@$$CBKPAVCGuildMember@@@std@@PAX@std@@@std@@@std@@QAE@XZ ; std::_Alloc_construct_ptr<std::allocator<std::_Tree_node<std::pair<unsigned long const ,CGuildMember *>,void *> > >::~_Alloc_construct_ptr<std::allocator<std::_Tree_node<std::pair<unsigned long const ,CGuildMember *>,void *> > >
PUBLIC	??$_Find_lower_bound@V?$basic_string@DU?$char_traits@D@std@@V?$allocator@D@2@@std@@@?$_Tree@V?$_Tmap_traits@V?$basic_string@DU?$char_traits@D@std@@V?$allocator@D@2@@std@@PAVCGuild@@U?$less@V?$basic_string@DU?$char_traits@D@std@@V?$allocator@D@2@@std@@@2@V?$allocator@U?$pair@$$CBV?$basic_string@DU?$char_traits@D@std@@V?$allocator@D@2@@std@@PAVCGuild@@@std@@@2@$0A@@std@@@std@@IBE?AU?$_Tree_find_result@PAU?$_Tree_node@U?$pair@$$CBV?$basic_string@DU?$char_traits@D@std@@V?$allocator@D@2@@std@@PAVCGuild@@@std@@PAX@std@@@1@ABV?$basic_string@DU?$char_traits@D@std@@V?$allocator@D@2@@1@@Z ; std::_Tree<std::_Tmap_traits<std::basic_string<char,std::char_traits<char>,std::allocator<char> >,CGuild *,std::less<std::basic_string<char,std::char_traits<char>,std::allocator<char> > >,std::allocator<std::pair<std::basic_string<char,std::char_traits<char>,std::allocator<char> > const ,CGuild *> >,0> >::_Find_lower_bound<std::basic_string<char,std::char_traits<char>,std::allocator<char> > >
PUBLIC	??1?$_Alloc_construct_ptr@V?$allocator@U?$_Tree_node@U?$pair@$$CBV?$basic_string@DU?$char_traits@D@std@@V?$allocator@D@2@@std@@PAVCGuild@@@std@@PAX@std@@@std@@@std@@QAE@XZ ; std::_Alloc_construct_ptr<std::allocator<std::_Tree_node<std::pair<std::basic_string<char,std::char_traits<char>,std::allocator<char> > const ,CGuild *>,void *> > >::~_Alloc_construct_ptr<std::allocator<std::_Tree_node<std::pair<std::basic_string<char,std::char_traits<char>,std::allocator<char> > const ,CGuild *>,void *> > >
PUBLIC	??1?$_Tree_temp_node_alloc@V?$allocator@U?$_Tree_node@U?$pair@$$CBV?$basic_string@DU?$char_traits@D@std@@V?$allocator@D@2@@std@@PAVCGuild@@@std@@PAX@std@@@std@@@std@@QAE@XZ ; std::_Tree_temp_node_alloc<std::allocator<std::_Tree_node<std::pair<std::basic_string<char,std::char_traits<char>,std::allocator<char> > const ,CGuild *>,void *> > >::~_Tree_temp_node_alloc<std::allocator<std::_Tree_node<std::pair<std::basic_string<char,std::char_traits<char>,std::allocator<char> > const ,CGuild *>,void *> > >
PUBLIC	??$_Find_lower_bound@K@?$_Tree@V?$_Tmap_traits@KPAVCGuild@@U?$less@K@std@@V?$allocator@U?$pair@$$CBKPAVCGuild@@@std@@@3@$0A@@std@@@std@@IBE?AU?$_Tree_find_result@PAU?$_Tree_node@U?$pair@$$CBKPAVCGuild@@@std@@PAX@std@@@1@ABK@Z ; std::_Tree<std::_Tmap_traits<unsigned long,CGuild *,std::less<unsigned long>,std::allocator<std::pair<unsigned long const ,CGuild *> >,0> >::_Find_lower_bound<unsigned long>
PUBLIC	??1?$_Alloc_construct_ptr@V?$allocator@U?$_Tree_node@U?$pair@$$CBKPAVCGuild@@@std@@PAX@std@@@std@@@std@@QAE@XZ ; std::_Alloc_construct_ptr<std::allocator<std::_Tree_node<std::pair<unsigned long const ,CGuild *>,void *> > >::~_Alloc_construct_ptr<std::allocator<std::_Tree_node<std::pair<unsigned long const ,CGuild *>,void *> > >
PUBLIC	??1?$_Alloc_construct_ptr@V?$allocator@U?$_List_node@PAVCGuildVote@@PAX@std@@@std@@@std@@QAE@XZ ; std::_Alloc_construct_ptr<std::allocator<std::_List_node<CGuildVote *,void *> > >::~_Alloc_construct_ptr<std::allocator<std::_List_node<CGuildVote *,void *> > >
PUBLIC	??_7exception@std@@6B@				; std::exception::`vftable'
PUBLIC	??_C@_0BC@EOODALEL@Unknown?5exception@		; `string'
PUBLIC	??_7bad_alloc@std@@6B@				; std::bad_alloc::`vftable'
PUBLIC	??_7bad_array_new_length@std@@6B@		; std::bad_array_new_length::`vftable'
PUBLIC	??_C@_0BF@KINCDENJ@bad?5array?5new?5length@	; `string'
PUBLIC	??_R0?AVexception@std@@@8			; std::exception `RTTI Type Descriptor'
PUBLIC	__CT??_R0?AVexception@std@@@8??0exception@std@@QAE@ABV01@@Z12
PUBLIC	__TI3?AVbad_array_new_length@std@@
PUBLIC	__CTA3?AVbad_array_new_length@std@@
PUBLIC	??_R0?AVbad_array_new_length@std@@@8		; std::bad_array_new_length `RTTI Type Descriptor'
PUBLIC	__CT??_R0?AVbad_array_new_length@std@@@8??0bad_array_new_length@std@@QAE@ABV01@@Z12
PUBLIC	??_R0?AVbad_alloc@std@@@8			; std::bad_alloc `RTTI Type Descriptor'
PUBLIC	__CT??_R0?AVbad_alloc@std@@@8??0bad_alloc@std@@QAE@ABV01@@Z12
PUBLIC	??_C@_0BA@JFNIOLAK@string?5too?5long@		; `string'
PUBLIC	??_C@_0BB@GCADKGJO@map?1set?5too?5long@		; `string'
PUBLIC	??_7?$CItemContainer@VCItemElem@@@@6B@		; CItemContainer<CItemElem>::`vftable'
PUBLIC	??_R4exception@std@@6B@				; std::exception::`RTTI Complete Object Locator'
PUBLIC	??_R3exception@std@@8				; std::exception::`RTTI Class Hierarchy Descriptor'
PUBLIC	??_R2exception@std@@8				; std::exception::`RTTI Base Class Array'
PUBLIC	??_R1A@?0A@EA@exception@std@@8			; std::exception::`RTTI Base Class Descriptor at (0,-1,0,64)'
PUBLIC	??_R4bad_array_new_length@std@@6B@		; std::bad_array_new_length::`RTTI Complete Object Locator'
PUBLIC	??_R3bad_array_new_length@std@@8		; std::bad_array_new_length::`RTTI Class Hierarchy Descriptor'
PUBLIC	??_R2bad_array_new_length@std@@8		; std::bad_array_new_length::`RTTI Base Class Array'
PUBLIC	??_R1A@?0A@EA@bad_array_new_length@std@@8	; std::bad_array_new_length::`RTTI Base Class Descriptor at (0,-1,0,64)'
PUBLIC	??_R1A@?0A@EA@bad_alloc@std@@8			; std::bad_alloc::`RTTI Base Class Descriptor at (0,-1,0,64)'
PUBLIC	??_R3bad_alloc@std@@8				; std::bad_alloc::`RTTI Class Hierarchy Descriptor'
PUBLIC	??_R2bad_alloc@std@@8				; std::bad_alloc::`RTTI Base Class Array'
PUBLIC	??_R4bad_alloc@std@@6B@				; std::bad_alloc::`RTTI Complete Object Locator'
PUBLIC	??_R4?$CItemContainer@VCItemElem@@@@6B@		; CItemContainer<CItemElem>::`RTTI Complete Object Locator'
PUBLIC	??_R0?AV?$CItemContainer@VCItemElem@@@@@8	; CItemContainer<CItemElem> `RTTI Type Descriptor'
PUBLIC	??_R3?$CItemContainer@VCItemElem@@@@8		; CItemContainer<CItemElem>::`RTTI Class Hierarchy Descriptor'
PUBLIC	??_R2?$CItemContainer@VCItemElem@@@@8		; CItemContainer<CItemElem>::`RTTI Base Class Array'
PUBLIC	??_R1A@?0A@EA@?$CItemContainer@VCItemElem@@@@8	; CItemContainer<CItemElem>::`RTTI Base Class Descriptor at (0,-1,0,64)'
PUBLIC	??_7CGuildVote@@6B@				; CGuildVote::`vftable'
PUBLIC	??_7CGuildTable@@6B@				; CGuildTable::`vftable'
PUBLIC	??_7CGuildMember@@6B@				; CGuildMember::`vftable'
PUBLIC	??_7CGuild@@6B@					; CGuild::`vftable'
PUBLIC	??_7CGuildMng@@6B@				; CGuildMng::`vftable'
PUBLIC	?g_GuildMng@@3VCGuildMng@@A			; g_GuildMng
PUBLIC	??_C@_0O@NKNMEGII@list?5too?5long@		; `string'
PUBLIC	??_R4CGuild@@6B@				; CGuild::`RTTI Complete Object Locator'
PUBLIC	??_R0?AVCGuild@@@8				; CGuild `RTTI Type Descriptor'
PUBLIC	??_R3CGuild@@8					; CGuild::`RTTI Class Hierarchy Descriptor'
PUBLIC	??_R2CGuild@@8					; CGuild::`RTTI Base Class Array'
PUBLIC	??_R1A@?0A@EA@CGuild@@8				; CGuild::`RTTI Base Class Descriptor at (0,-1,0,64)'
PUBLIC	??_R4CGuildVote@@6B@				; CGuildVote::`RTTI Complete Object Locator'
PUBLIC	??_R0?AVCGuildVote@@@8				; CGuildVote `RTTI Type Descriptor'
PUBLIC	??_R3CGuildVote@@8				; CGuildVote::`RTTI Class Hierarchy Descriptor'
PUBLIC	??_R2CGuildVote@@8				; CGuildVote::`RTTI Base Class Array'
PUBLIC	??_R1A@?0A@EA@CGuildVote@@8			; CGuildVote::`RTTI Base Class Descriptor at (0,-1,0,64)'
PUBLIC	??_R4CGuildTable@@6B@				; CGuildTable::`RTTI Complete Object Locator'
PUBLIC	??_R0?AVCGuildTable@@@8				; CGuildTable `RTTI Type Descriptor'
PUBLIC	??_R3CGuildTable@@8				; CGuildTable::`RTTI Class Hierarchy Descriptor'
PUBLIC	??_R2CGuildTable@@8				; CGuildTable::`RTTI Base Class Array'
PUBLIC	??_R1A@?0A@EA@CGuildTable@@8			; CGuildTable::`RTTI Base Class Descriptor at (0,-1,0,64)'
PUBLIC	??_R4CGuildMember@@6B@				; CGuildMember::`RTTI Complete Object Locator'
PUBLIC	??_R0?AVCGuildMember@@@8			; CGuildMember `RTTI Type Descriptor'
PUBLIC	??_R3CGuildMember@@8				; CGuildMember::`RTTI Class Hierarchy Descriptor'
PUBLIC	??_R2CGuildMember@@8				; CGuildMember::`RTTI Base Class Array'
PUBLIC	??_R1A@?0A@EA@CGuildMember@@8			; CGuildMember::`RTTI Base Class Descriptor at (0,-1,0,64)'
PUBLIC	??_R4CGuildMng@@6B@				; CGuildMng::`RTTI Complete Object Locator'
PUBLIC	??_R0?AVCGuildMng@@@8				; CGuildMng `RTTI Type Descriptor'
PUBLIC	??_R3CGuildMng@@8				; CGuildMng::`RTTI Class Hierarchy Descriptor'
PUBLIC	??_R2CGuildMng@@8				; CGuildMng::`RTTI Base Class Array'
PUBLIC	??_R1A@?0A@EA@CGuildMng@@8			; CGuildMng::`RTTI Base Class Descriptor at (0,-1,0,64)'
EXTRN	??_L@YGXPAXIIP6EX0@Z1@Z:PROC			; `eh vector constructor iterator'
EXTRN	??_M@YGXPAXIIP6EX0@Z@Z:PROC			; `eh vector destructor iterator'
EXTRN	??2@YAPAXI@Z:PROC				; operator new
EXTRN	??3@YAXPAXI@Z:PROC				; operator delete
EXTRN	??_U@YAPAXI@Z:PROC				; operator new[]
EXTRN	??_V@YAXPAX@Z:PROC				; operator delete[]
EXTRN	??_V@YAXPAXI@Z:PROC				; operator delete[]
EXTRN	_atexit:PROC
EXTRN	__Init_thread_header:PROC
EXTRN	__Init_thread_footer:PROC
EXTRN	__invoke_watson:PROC
EXTRN	_strncpy:PROC
EXTRN	__imp__lstrcpyA@8:PROC
EXTRN	__imp__lstrlenA@4:PROC
EXTRN	__imp__PtInRect@12:PROC
EXTRN	__localtime64_s:PROC
EXTRN	__time64:PROC
EXTRN	?AfxThrowMemoryException@@YGXXZ:PROC		; AfxThrowMemoryException
EXTRN	?AfxThrowOleException@@YGXJ@Z:PROC		; AfxThrowOleException
EXTRN	___std_exception_copy:PROC
EXTRN	___std_exception_destroy:PROC
EXTRN	??_Eexception@std@@UAEPAXI@Z:PROC		; std::exception::`vector deleting destructor'
EXTRN	??_Ebad_alloc@std@@UAEPAXI@Z:PROC		; std::bad_alloc::`vector deleting destructor'
EXTRN	??_Ebad_array_new_length@std@@UAEPAXI@Z:PROC	; std::bad_array_new_length::`vector deleting destructor'
EXTRN	?_Xlength_error@std@@YAXPBD@Z:PROC		; std::_Xlength_error
EXTRN	?GetNumber@CScanner@@QAEHH@Z:PROC		; CScanner::GetNumber
EXTRN	?IsNearPC@CCtrl@@QAEHK@Z:PROC			; CCtrl::IsNearPC
EXTRN	??0CItemElem@@QAE@XZ:PROC			; CItemElem::CItemElem
EXTRN	??1CItemElem@@UAE@XZ:PROC			; CItemElem::~CItemElem
EXTRN	?Read@CAr@@QAEXPAXI@Z:PROC			; CAr::Read
EXTRN	?Write@CAr@@QAEXPBXI@Z:PROC			; CAr::Write
EXTRN	?CheckBuf@CAr@@QAEXI@Z:PROC			; CAr::CheckBuf
EXTRN	?WriteString@CAr@@QAEXPBD@Z:PROC		; CAr::WriteString
EXTRN	?ReadString@CAr@@QAEPADPADH@Z:PROC		; CAr::ReadString
EXTRN	??_E?$CItemContainer@VCItemElem@@@@UAEPAXI@Z:PROC ; CItemContainer<CItemElem>::`vector deleting destructor'
EXTRN	?UnequipRide@CMover@@QAEXXZ:PROC		; CMover::UnequipRide
EXTRN	?Replace@CMover@@QAEHKKAAUD3DXVECTOR3@@W4REPLACE_TYPE@@H@Z:PROC ; CMover::Replace
EXTRN	??_ECGuildVote@@UAEPAXI@Z:PROC			; CGuildVote::`vector deleting destructor'
EXTRN	??_ECGuildTable@@UAEPAXI@Z:PROC			; CGuildTable::`vector deleting destructor'
EXTRN	??_ECGuildMember@@UAEPAXI@Z:PROC		; CGuildMember::`vector deleting destructor'
EXTRN	??_ECGuild@@UAEPAXI@Z:PROC			; CGuild::`vector deleting destructor'
EXTRN	??_ECGuildMng@@UAEPAXI@Z:PROC			; CGuildMng::`vector deleting destructor'
EXTRN	?SendGuildGetPay@CDPDatabaseClient@@QAEXKKK@Z:PROC ; CDPDatabaseClient::SendGuildGetPay
EXTRN	?SendGuildGetPay@CDPCoreClient@@QAEXKK@Z:PROC	; CDPCoreClient::SendGuildGetPay
EXTRN	?AddSetGuildQuest@CUser@@QAEXHH@Z:PROC		; CUser::AddSetGuildQuest
EXTRN	?GetRevivalPos@CWorldMng@@QAEPAUREGIONELEM@@KPBD@Z:PROC ; CWorldMng::GetRevivalPos
EXTRN	?GetNearRevivalPos@CWorldMng@@QAEPAUREGIONELEM@@KAAUD3DXVECTOR3@@@Z:PROC ; CWorldMng::GetNearRevivalPos
EXTRN	?GetWar@CGuildWarMng@@QAEPAVCGuildWar@@K@Z:PROC	; CGuildWarMng::GetWar
EXTRN	@__security_check_cookie@4:PROC
EXTRN	__CxxThrowException@8:PROC
EXTRN	___CxxFrameHandler3:PROC
EXTRN	_memcpy:PROC
EXTRN	_memset:PROC
EXTRN	__Init_thread_epoch:DWORD
EXTRN	??_7type_info@@6B@:QWORD			; type_info::`vftable'
EXTRN	?prj@@3VCProject@@A:BYTE			; prj
EXTRN	?g_uIdofMulti@@3KA:DWORD			; g_uIdofMulti
EXTRN	?g_dpDBClient@@3VCDPDatabaseClient@@A:BYTE	; g_dpDBClient
EXTRN	?g_DPCoreClient@@3VCDPCoreClient@@A:BYTE	; g_DPCoreClient
EXTRN	?g_WorldMng@@3VCWorldMng@@A:BYTE		; g_WorldMng
EXTRN	?g_GuildWarMng@@3VCGuildWarMng@@A:BYTE		; g_GuildWarMng
EXTRN	___security_cookie:DWORD
EXTRN	__tls_array:DWORD
EXTRN	__tls_index:DWORD
;	COMDAT ?table@?1??GetInstance@CGuildTable@@SAAAV2@XZ@4V2@A
_BSS	SEGMENT
?table@?1??GetInstance@CGuildTable@@SAAAV2@XZ@4V2@A DB 0260H DUP (?) ; `CGuildTable::GetInstance'::`2'::table
_BSS	ENDS
;	COMDAT ?$TSS0@?1??GetInstance@CGuildTable@@SAAAV2@XZ@4HA
_BSS	SEGMENT
?$TSS0@?1??GetInstance@CGuildTable@@SAAAV2@XZ@4HA DD 01H DUP (?) ; `CGuildTable::GetInstance'::`2'::$TSS0
_BSS	ENDS
_BSS	SEGMENT
?g_GuildMng@@3VCGuildMng@@A DB 01cH DUP (?)		; g_GuildMng
_BSS	ENDS
CRT$XCU	SEGMENT
?g_GuildMng$initializer$@@3P6AXXZA DD FLAT:??__Eg_GuildMng@@YAXXZ ; g_GuildMng$initializer$
CRT$XCU	ENDS
;	COMDAT ??_R1A@?0A@EA@CGuildMng@@8
rdata$r	SEGMENT
??_R1A@?0A@EA@CGuildMng@@8 DD FLAT:??_R0?AVCGuildMng@@@8 ; CGuildMng::`RTTI Base Class Descriptor at (0,-1,0,64)'
	DD	00H
	DD	00H
	DD	0ffffffffH
	DD	00H
	DD	040H
	DD	FLAT:??_R3CGuildMng@@8
rdata$r	ENDS
;	COMDAT ??_R2CGuildMng@@8
rdata$r	SEGMENT
??_R2CGuildMng@@8 DD FLAT:??_R1A@?0A@EA@CGuildMng@@8	; CGuildMng::`RTTI Base Class Array'
rdata$r	ENDS
;	COMDAT ??_R3CGuildMng@@8
rdata$r	SEGMENT
??_R3CGuildMng@@8 DD 00H				; CGuildMng::`RTTI Class Hierarchy Descriptor'
	DD	00H
	DD	01H
	DD	FLAT:??_R2CGuildMng@@8
rdata$r	ENDS
;	COMDAT ??_R0?AVCGuildMng@@@8
data$rs	SEGMENT
??_R0?AVCGuildMng@@@8 DD FLAT:??_7type_info@@6B@	; CGuildMng `RTTI Type Descriptor'
	DD	00H
	DB	'.?AVCGuildMng@@', 00H
data$rs	ENDS
;	COMDAT ??_R4CGuildMng@@6B@
rdata$r	SEGMENT
??_R4CGuildMng@@6B@ DD 00H				; CGuildMng::`RTTI Complete Object Locator'
	DD	00H
	DD	00H
	DD	FLAT:??_R0?AVCGuildMng@@@8
	DD	FLAT:??_R3CGuildMng@@8
rdata$r	ENDS
;	COMDAT ??_R1A@?0A@EA@CGuildMember@@8
rdata$r	SEGMENT
??_R1A@?0A@EA@CGuildMember@@8 DD FLAT:??_R0?AVCGuildMember@@@8 ; CGuildMember::`RTTI Base Class Descriptor at (0,-1,0,64)'
	DD	00H
	DD	00H
	DD	0ffffffffH
	DD	00H
	DD	040H
	DD	FLAT:??_R3CGuildMember@@8
rdata$r	ENDS
;	COMDAT ??_R2CGuildMember@@8
rdata$r	SEGMENT
??_R2CGuildMember@@8 DD FLAT:??_R1A@?0A@EA@CGuildMember@@8 ; CGuildMember::`RTTI Base Class Array'
rdata$r	ENDS
;	COMDAT ??_R3CGuildMember@@8
rdata$r	SEGMENT
??_R3CGuildMember@@8 DD 00H				; CGuildMember::`RTTI Class Hierarchy Descriptor'
	DD	00H
	DD	01H
	DD	FLAT:??_R2CGuildMember@@8
rdata$r	ENDS
;	COMDAT ??_R0?AVCGuildMember@@@8
data$rs	SEGMENT
??_R0?AVCGuildMember@@@8 DD FLAT:??_7type_info@@6B@	; CGuildMember `RTTI Type Descriptor'
	DD	00H
	DB	'.?AVCGuildMember@@', 00H
data$rs	ENDS
;	COMDAT ??_R4CGuildMember@@6B@
rdata$r	SEGMENT
??_R4CGuildMember@@6B@ DD 00H				; CGuildMember::`RTTI Complete Object Locator'
	DD	00H
	DD	00H
	DD	FLAT:??_R0?AVCGuildMember@@@8
	DD	FLAT:??_R3CGuildMember@@8
rdata$r	ENDS
;	COMDAT ??_R1A@?0A@EA@CGuildTable@@8
rdata$r	SEGMENT
??_R1A@?0A@EA@CGuildTable@@8 DD FLAT:??_R0?AVCGuildTable@@@8 ; CGuildTable::`RTTI Base Class Descriptor at (0,-1,0,64)'
	DD	00H
	DD	00H
	DD	0ffffffffH
	DD	00H
	DD	040H
	DD	FLAT:??_R3CGuildTable@@8
rdata$r	ENDS
;	COMDAT ??_R2CGuildTable@@8
rdata$r	SEGMENT
??_R2CGuildTable@@8 DD FLAT:??_R1A@?0A@EA@CGuildTable@@8 ; CGuildTable::`RTTI Base Class Array'
rdata$r	ENDS
;	COMDAT ??_R3CGuildTable@@8
rdata$r	SEGMENT
??_R3CGuildTable@@8 DD 00H				; CGuildTable::`RTTI Class Hierarchy Descriptor'
	DD	00H
	DD	01H
	DD	FLAT:??_R2CGuildTable@@8
rdata$r	ENDS
;	COMDAT ??_R0?AVCGuildTable@@@8
data$rs	SEGMENT
??_R0?AVCGuildTable@@@8 DD FLAT:??_7type_info@@6B@	; CGuildTable `RTTI Type Descriptor'
	DD	00H
	DB	'.?AVCGuildTable@@', 00H
data$rs	ENDS
;	COMDAT ??_R4CGuildTable@@6B@
rdata$r	SEGMENT
??_R4CGuildTable@@6B@ DD 00H				; CGuildTable::`RTTI Complete Object Locator'
	DD	00H
	DD	00H
	DD	FLAT:??_R0?AVCGuildTable@@@8
	DD	FLAT:??_R3CGuildTable@@8
rdata$r	ENDS
;	COMDAT ??_R1A@?0A@EA@CGuildVote@@8
rdata$r	SEGMENT
??_R1A@?0A@EA@CGuildVote@@8 DD FLAT:??_R0?AVCGuildVote@@@8 ; CGuildVote::`RTTI Base Class Descriptor at (0,-1,0,64)'
	DD	00H
	DD	00H
	DD	0ffffffffH
	DD	00H
	DD	040H
	DD	FLAT:??_R3CGuildVote@@8
rdata$r	ENDS
;	COMDAT ??_R2CGuildVote@@8
rdata$r	SEGMENT
??_R2CGuildVote@@8 DD FLAT:??_R1A@?0A@EA@CGuildVote@@8	; CGuildVote::`RTTI Base Class Array'
rdata$r	ENDS
;	COMDAT ??_R3CGuildVote@@8
rdata$r	SEGMENT
??_R3CGuildVote@@8 DD 00H				; CGuildVote::`RTTI Class Hierarchy Descriptor'
	DD	00H
	DD	01H
	DD	FLAT:??_R2CGuildVote@@8
rdata$r	ENDS
;	COMDAT ??_R0?AVCGuildVote@@@8
data$rs	SEGMENT
??_R0?AVCGuildVote@@@8 DD FLAT:??_7type_info@@6B@	; CGuildVote `RTTI Type Descriptor'
	DD	00H
	DB	'.?AVCGuildVote@@', 00H
data$rs	ENDS
;	COMDAT ??_R4CGuildVote@@6B@
rdata$r	SEGMENT
??_R4CGuildVote@@6B@ DD 00H				; CGuildVote::`RTTI Complete Object Locator'
	DD	00H
	DD	00H
	DD	FLAT:??_R0?AVCGuildVote@@@8
	DD	FLAT:??_R3CGuildVote@@8
rdata$r	ENDS
;	COMDAT ??_R1A@?0A@EA@CGuild@@8
rdata$r	SEGMENT
??_R1A@?0A@EA@CGuild@@8 DD FLAT:??_R0?AVCGuild@@@8	; CGuild::`RTTI Base Class Descriptor at (0,-1,0,64)'
	DD	00H
	DD	00H
	DD	0ffffffffH
	DD	00H
	DD	040H
	DD	FLAT:??_R3CGuild@@8
rdata$r	ENDS
;	COMDAT ??_R2CGuild@@8
rdata$r	SEGMENT
??_R2CGuild@@8 DD FLAT:??_R1A@?0A@EA@CGuild@@8		; CGuild::`RTTI Base Class Array'
rdata$r	ENDS
;	COMDAT ??_R3CGuild@@8
rdata$r	SEGMENT
??_R3CGuild@@8 DD 00H					; CGuild::`RTTI Class Hierarchy Descriptor'
	DD	00H
	DD	01H
	DD	FLAT:??_R2CGuild@@8
rdata$r	ENDS
;	COMDAT ??_R0?AVCGuild@@@8
data$rs	SEGMENT
??_R0?AVCGuild@@@8 DD FLAT:??_7type_info@@6B@		; CGuild `RTTI Type Descriptor'
	DD	00H
	DB	'.?AVCGuild@@', 00H
data$rs	ENDS
;	COMDAT ??_R4CGuild@@6B@
rdata$r	SEGMENT
??_R4CGuild@@6B@ DD 00H					; CGuild::`RTTI Complete Object Locator'
	DD	00H
	DD	00H
	DD	FLAT:??_R0?AVCGuild@@@8
	DD	FLAT:??_R3CGuild@@8
rdata$r	ENDS
;	COMDAT ??_C@_0O@NKNMEGII@list?5too?5long@
CONST	SEGMENT
??_C@_0O@NKNMEGII@list?5too?5long@ DB 'list too long', 00H ; `string'
CONST	ENDS
;	COMDAT ??_7CGuildMng@@6B@
CONST	SEGMENT
??_7CGuildMng@@6B@ DD FLAT:??_R4CGuildMng@@6B@		; CGuildMng::`vftable'
	DD	FLAT:??_ECGuildMng@@UAEPAXI@Z
CONST	ENDS
;	COMDAT ??_7CGuild@@6B@
CONST	SEGMENT
??_7CGuild@@6B@ DD FLAT:??_R4CGuild@@6B@		; CGuild::`vftable'
	DD	FLAT:??_ECGuild@@UAEPAXI@Z
CONST	ENDS
;	COMDAT ??_7CGuildMember@@6B@
CONST	SEGMENT
??_7CGuildMember@@6B@ DD FLAT:??_R4CGuildMember@@6B@	; CGuildMember::`vftable'
	DD	FLAT:??_ECGuildMember@@UAEPAXI@Z
CONST	ENDS
;	COMDAT ??_7CGuildTable@@6B@
CONST	SEGMENT
??_7CGuildTable@@6B@ DD FLAT:??_R4CGuildTable@@6B@	; CGuildTable::`vftable'
	DD	FLAT:??_ECGuildTable@@UAEPAXI@Z
CONST	ENDS
;	COMDAT ??_7CGuildVote@@6B@
CONST	SEGMENT
??_7CGuildVote@@6B@ DD FLAT:??_R4CGuildVote@@6B@	; CGuildVote::`vftable'
	DD	FLAT:??_ECGuildVote@@UAEPAXI@Z
CONST	ENDS
;	COMDAT ??_R1A@?0A@EA@?$CItemContainer@VCItemElem@@@@8
rdata$r	SEGMENT
??_R1A@?0A@EA@?$CItemContainer@VCItemElem@@@@8 DD FLAT:??_R0?AV?$CItemContainer@VCItemElem@@@@@8 ; CItemContainer<CItemElem>::`RTTI Base Class Descriptor at (0,-1,0,64)'
	DD	00H
	DD	00H
	DD	0ffffffffH
	DD	00H
	DD	040H
	DD	FLAT:??_R3?$CItemContainer@VCItemElem@@@@8
rdata$r	ENDS
;	COMDAT ??_R2?$CItemContainer@VCItemElem@@@@8
rdata$r	SEGMENT
??_R2?$CItemContainer@VCItemElem@@@@8 DD FLAT:??_R1A@?0A@EA@?$CItemContainer@VCItemElem@@@@8 ; CItemContainer<CItemElem>::`RTTI Base Class Array'
rdata$r	ENDS
;	COMDAT ??_R3?$CItemContainer@VCItemElem@@@@8
rdata$r	SEGMENT
??_R3?$CItemContainer@VCItemElem@@@@8 DD 00H		; CItemContainer<CItemElem>::`RTTI Class Hierarchy Descriptor'
	DD	00H
	DD	01H
	DD	FLAT:??_R2?$CItemContainer@VCItemElem@@@@8
rdata$r	ENDS
;	COMDAT ??_R0?AV?$CItemContainer@VCItemElem@@@@@8
data$rs	SEGMENT
??_R0?AV?$CItemContainer@VCItemElem@@@@@8 DD FLAT:??_7type_info@@6B@ ; CItemContainer<CItemElem> `RTTI Type Descriptor'
	DD	00H
	DB	'.?AV?$CItemContainer@VCItemElem@@@@', 00H
data$rs	ENDS
;	COMDAT ??_R4?$CItemContainer@VCItemElem@@@@6B@
rdata$r	SEGMENT
??_R4?$CItemContainer@VCItemElem@@@@6B@ DD 00H		; CItemContainer<CItemElem>::`RTTI Complete Object Locator'
	DD	00H
	DD	00H
	DD	FLAT:??_R0?AV?$CItemContainer@VCItemElem@@@@@8
	DD	FLAT:??_R3?$CItemContainer@VCItemElem@@@@8
rdata$r	ENDS
;	COMDAT ??_R4bad_alloc@std@@6B@
rdata$r	SEGMENT
??_R4bad_alloc@std@@6B@ DD 00H				; std::bad_alloc::`RTTI Complete Object Locator'
	DD	00H
	DD	00H
	DD	FLAT:??_R0?AVbad_alloc@std@@@8
	DD	FLAT:??_R3bad_alloc@std@@8
rdata$r	ENDS
;	COMDAT ??_R2bad_alloc@std@@8
rdata$r	SEGMENT
??_R2bad_alloc@std@@8 DD FLAT:??_R1A@?0A@EA@bad_alloc@std@@8 ; std::bad_alloc::`RTTI Base Class Array'
	DD	FLAT:??_R1A@?0A@EA@exception@std@@8
rdata$r	ENDS
;	COMDAT ??_R3bad_alloc@std@@8
rdata$r	SEGMENT
??_R3bad_alloc@std@@8 DD 00H				; std::bad_alloc::`RTTI Class Hierarchy Descriptor'
	DD	00H
	DD	02H
	DD	FLAT:??_R2bad_alloc@std@@8
rdata$r	ENDS
;	COMDAT ??_R1A@?0A@EA@bad_alloc@std@@8
rdata$r	SEGMENT
??_R1A@?0A@EA@bad_alloc@std@@8 DD FLAT:??_R0?AVbad_alloc@std@@@8 ; std::bad_alloc::`RTTI Base Class Descriptor at (0,-1,0,64)'
	DD	01H
	DD	00H
	DD	0ffffffffH
	DD	00H
	DD	040H
	DD	FLAT:??_R3bad_alloc@std@@8
rdata$r	ENDS
;	COMDAT ??_R1A@?0A@EA@bad_array_new_length@std@@8
rdata$r	SEGMENT
??_R1A@?0A@EA@bad_array_new_length@std@@8 DD FLAT:??_R0?AVbad_array_new_length@std@@@8 ; std::bad_array_new_length::`RTTI Base Class Descriptor at (0,-1,0,64)'
	DD	02H
	DD	00H
	DD	0ffffffffH
	DD	00H
	DD	040H
	DD	FLAT:??_R3bad_array_new_length@std@@8
rdata$r	ENDS
;	COMDAT ??_R2bad_array_new_length@std@@8
rdata$r	SEGMENT
??_R2bad_array_new_length@std@@8 DD FLAT:??_R1A@?0A@EA@bad_array_new_length@std@@8 ; std::bad_array_new_length::`RTTI Base Class Array'
	DD	FLAT:??_R1A@?0A@EA@bad_alloc@std@@8
	DD	FLAT:??_R1A@?0A@EA@exception@std@@8
rdata$r	ENDS
;	COMDAT ??_R3bad_array_new_length@std@@8
rdata$r	SEGMENT
??_R3bad_array_new_length@std@@8 DD 00H			; std::bad_array_new_length::`RTTI Class Hierarchy Descriptor'
	DD	00H
	DD	03H
	DD	FLAT:??_R2bad_array_new_length@std@@8
rdata$r	ENDS
;	COMDAT ??_R4bad_array_new_length@std@@6B@
rdata$r	SEGMENT
??_R4bad_array_new_length@std@@6B@ DD 00H		; std::bad_array_new_length::`RTTI Complete Object Locator'
	DD	00H
	DD	00H
	DD	FLAT:??_R0?AVbad_array_new_length@std@@@8
	DD	FLAT:??_R3bad_array_new_length@std@@8
rdata$r	ENDS
;	COMDAT ??_R1A@?0A@EA@exception@std@@8
rdata$r	SEGMENT
??_R1A@?0A@EA@exception@std@@8 DD FLAT:??_R0?AVexception@std@@@8 ; std::exception::`RTTI Base Class Descriptor at (0,-1,0,64)'
	DD	00H
	DD	00H
	DD	0ffffffffH
	DD	00H
	DD	040H
	DD	FLAT:??_R3exception@std@@8
rdata$r	ENDS
;	COMDAT ??_R2exception@std@@8
rdata$r	SEGMENT
??_R2exception@std@@8 DD FLAT:??_R1A@?0A@EA@exception@std@@8 ; std::exception::`RTTI Base Class Array'
rdata$r	ENDS
;	COMDAT ??_R3exception@std@@8
rdata$r	SEGMENT
??_R3exception@std@@8 DD 00H				; std::exception::`RTTI Class Hierarchy Descriptor'
	DD	00H
	DD	01H
	DD	FLAT:??_R2exception@std@@8
rdata$r	ENDS
;	COMDAT ??_R4exception@std@@6B@
rdata$r	SEGMENT
??_R4exception@std@@6B@ DD 00H				; std::exception::`RTTI Complete Object Locator'
	DD	00H
	DD	00H
	DD	FLAT:??_R0?AVexception@std@@@8
	DD	FLAT:??_R3exception@std@@8
rdata$r	ENDS
;	COMDAT ??_7?$CItemContainer@VCItemElem@@@@6B@
CONST	SEGMENT
??_7?$CItemContainer@VCItemElem@@@@6B@ DD FLAT:??_R4?$CItemContainer@VCItemElem@@@@6B@ ; CItemContainer<CItemElem>::`vftable'
	DD	FLAT:??_E?$CItemContainer@VCItemElem@@@@UAEPAXI@Z
CONST	ENDS
;	COMDAT ??_C@_0BB@GCADKGJO@map?1set?5too?5long@
CONST	SEGMENT
??_C@_0BB@GCADKGJO@map?1set?5too?5long@ DB 'map/set too long', 00H ; `string'
CONST	ENDS
;	COMDAT ??_C@_0BA@JFNIOLAK@string?5too?5long@
CONST	SEGMENT
??_C@_0BA@JFNIOLAK@string?5too?5long@ DB 'string too long', 00H ; `string'
CONST	ENDS
;	COMDAT __CT??_R0?AVbad_alloc@std@@@8??0bad_alloc@std@@QAE@ABV01@@Z12
xdata$x	SEGMENT
__CT??_R0?AVbad_alloc@std@@@8??0bad_alloc@std@@QAE@ABV01@@Z12 DD 010H
	DD	FLAT:??_R0?AVbad_alloc@std@@@8
	DD	00H
	DD	0ffffffffH
	ORG $+4
	DD	0cH
	DD	FLAT:??0bad_alloc@std@@QAE@ABV01@@Z
xdata$x	ENDS
;	COMDAT ??_R0?AVbad_alloc@std@@@8
data$r	SEGMENT
??_R0?AVbad_alloc@std@@@8 DD FLAT:??_7type_info@@6B@	; std::bad_alloc `RTTI Type Descriptor'
	DD	00H
	DB	'.?AVbad_alloc@std@@', 00H
data$r	ENDS
;	COMDAT __CT??_R0?AVbad_array_new_length@std@@@8??0bad_array_new_length@std@@QAE@ABV01@@Z12
xdata$x	SEGMENT
__CT??_R0?AVbad_array_new_length@std@@@8??0bad_array_new_length@std@@QAE@ABV01@@Z12 DD 00H
	DD	FLAT:??_R0?AVbad_array_new_length@std@@@8
	DD	00H
	DD	0ffffffffH
	ORG $+4
	DD	0cH
	DD	FLAT:??0bad_array_new_length@std@@QAE@ABV01@@Z
xdata$x	ENDS
;	COMDAT ??_R0?AVbad_array_new_length@std@@@8
data$r	SEGMENT
??_R0?AVbad_array_new_length@std@@@8 DD FLAT:??_7type_info@@6B@ ; std::bad_array_new_length `RTTI Type Descriptor'
	DD	00H
	DB	'.?AVbad_array_new_length@std@@', 00H
data$r	ENDS
;	COMDAT __CTA3?AVbad_array_new_length@std@@
xdata$x	SEGMENT
__CTA3?AVbad_array_new_length@std@@ DD 03H
	DD	FLAT:__CT??_R0?AVbad_array_new_length@std@@@8??0bad_array_new_length@std@@QAE@ABV01@@Z12
	DD	FLAT:__CT??_R0?AVbad_alloc@std@@@8??0bad_alloc@std@@QAE@ABV01@@Z12
	DD	FLAT:__CT??_R0?AVexception@std@@@8??0exception@std@@QAE@ABV01@@Z12
xdata$x	ENDS
;	COMDAT __TI3?AVbad_array_new_length@std@@
xdata$x	SEGMENT
__TI3?AVbad_array_new_length@std@@ DD 00H
	DD	FLAT:??1bad_array_new_length@std@@UAE@XZ
	DD	00H
	DD	FLAT:__CTA3?AVbad_array_new_length@std@@
xdata$x	ENDS
;	COMDAT __CT??_R0?AVexception@std@@@8??0exception@std@@QAE@ABV01@@Z12
xdata$x	SEGMENT
__CT??_R0?AVexception@std@@@8??0exception@std@@QAE@ABV01@@Z12 DD 00H
	DD	FLAT:??_R0?AVexception@std@@@8
	DD	00H
	DD	0ffffffffH
	ORG $+4
	DD	0cH
	DD	FLAT:??0exception@std@@QAE@ABV01@@Z
xdata$x	ENDS
;	COMDAT ??_R0?AVexception@std@@@8
data$r	SEGMENT
??_R0?AVexception@std@@@8 DD FLAT:??_7type_info@@6B@	; std::exception `RTTI Type Descriptor'
	DD	00H
	DB	'.?AVexception@std@@', 00H
data$r	ENDS
;	COMDAT ??_C@_0BF@KINCDENJ@bad?5array?5new?5length@
CONST	SEGMENT
??_C@_0BF@KINCDENJ@bad?5array?5new?5length@ DB 'bad array new length', 00H ; `string'
CONST	ENDS
;	COMDAT ??_7bad_array_new_length@std@@6B@
CONST	SEGMENT
??_7bad_array_new_length@std@@6B@ DD FLAT:??_R4bad_array_new_length@std@@6B@ ; std::bad_array_new_length::`vftable'
	DD	FLAT:??_Ebad_array_new_length@std@@UAEPAXI@Z
	DD	FLAT:?what@exception@std@@UBEPBDXZ
CONST	ENDS
;	COMDAT ??_7bad_alloc@std@@6B@
CONST	SEGMENT
??_7bad_alloc@std@@6B@ DD FLAT:??_R4bad_alloc@std@@6B@	; std::bad_alloc::`vftable'
	DD	FLAT:??_Ebad_alloc@std@@UAEPAXI@Z
	DD	FLAT:?what@exception@std@@UBEPBDXZ
CONST	ENDS
;	COMDAT ??_C@_0BC@EOODALEL@Unknown?5exception@
CONST	SEGMENT
??_C@_0BC@EOODALEL@Unknown?5exception@ DB 'Unknown exception', 00H ; `string'
CONST	ENDS
;	COMDAT ??_7exception@std@@6B@
CONST	SEGMENT
??_7exception@std@@6B@ DD FLAT:??_R4exception@std@@6B@	; std::exception::`vftable'
	DD	FLAT:??_Eexception@std@@UAEPAXI@Z
	DD	FLAT:?what@exception@std@@UBEPBDXZ
CONST	ENDS
;	COMDAT xdata$x
xdata$x	SEGMENT
__unwindtable$??$?0ABQAVCGuildVote@@@?$_List_node_emplace_op2@V?$allocator@U?$_List_node@PAVCGuildVote@@PAX@std@@@std@@@std@@QAE@AAV?$allocator@U?$_List_node@PAVCGuildVote@@PAX@std@@@1@ABQAVCGuildVote@@@Z DD 0ffffffffH
	DD	FLAT:__unwindfunclet$??$?0ABQAVCGuildVote@@@?$_List_node_emplace_op2@V?$allocator@U?$_List_node@PAVCGuildVote@@PAX@std@@@std@@@std@@QAE@AAV?$allocator@U?$_List_node@PAVCGuildVote@@PAX@std@@@1@ABQAVCGuildVote@@@Z$0
__ehfuncinfo$??$?0ABQAVCGuildVote@@@?$_List_node_emplace_op2@V?$allocator@U?$_List_node@PAVCGuildVote@@PAX@std@@@std@@@std@@QAE@AAV?$allocator@U?$_List_node@PAVCGuildVote@@PAX@std@@@1@ABQAVCGuildVote@@@Z DD 019930522H
	DD	01H
	DD	FLAT:__unwindtable$??$?0ABQAVCGuildVote@@@?$_List_node_emplace_op2@V?$allocator@U?$_List_node@PAVCGuildVote@@PAX@std@@@std@@@std@@QAE@AAV?$allocator@U?$_List_node@PAVCGuildVote@@PAX@std@@@1@ABQAVCGuildVote@@@Z
	DD	2 DUP(00H)
	DD	2 DUP(00H)
	DD	00H
	DD	01H
xdata$x	ENDS
;	COMDAT xdata$x
xdata$x	SEGMENT
__unwindtable$??$?0U?$pair@$$CBKPAVCGuild@@@std@@@?$_Tree_temp_node@V?$allocator@U?$_Tree_node@U?$pair@$$CBKPAVCGuild@@@std@@PAX@std@@@std@@@std@@QAE@AAV?$allocator@U?$_Tree_node@U?$pair@$$CBKPAVCGuild@@@std@@PAX@std@@@1@PAU?$_Tree_node@U?$pair@$$CBKPAVCGuild@@@std@@PAX@1@$$QAU?$pair@$$CBKPAVCGuild@@@1@@Z DD 0ffffffffH
	DD	FLAT:__unwindfunclet$??$?0U?$pair@$$CBKPAVCGuild@@@std@@@?$_Tree_temp_node@V?$allocator@U?$_Tree_node@U?$pair@$$CBKPAVCGuild@@@std@@PAX@std@@@std@@@std@@QAE@AAV?$allocator@U?$_Tree_node@U?$pair@$$CBKPAVCGuild@@@std@@PAX@std@@@1@PAU?$_Tree_node@U?$pair@$$CBKPAVCGuild@@@std@@PAX@1@$$QAU?$pair@$$CBKPAVCGuild@@@1@@Z$1
__ehfuncinfo$??$?0U?$pair@$$CBKPAVCGuild@@@std@@@?$_Tree_temp_node@V?$allocator@U?$_Tree_node@U?$pair@$$CBKPAVCGuild@@@std@@PAX@std@@@std@@@std@@QAE@AAV?$allocator@U?$_Tree_node@U?$pair@$$CBKPAVCGuild@@@std@@PAX@std@@@1@PAU?$_Tree_node@U?$pair@$$CBKPAVCGuild@@@std@@PAX@1@$$QAU?$pair@$$CBKPAVCGuild@@@1@@Z DD 019930522H
	DD	01H
	DD	FLAT:__unwindtable$??$?0U?$pair@$$CBKPAVCGuild@@@std@@@?$_Tree_temp_node@V?$allocator@U?$_Tree_node@U?$pair@$$CBKPAVCGuild@@@std@@PAX@std@@@std@@@std@@QAE@AAV?$allocator@U?$_Tree_node@U?$pair@$$CBKPAVCGuild@@@std@@PAX@std@@@1@PAU?$_Tree_node@U?$pair@$$CBKPAVCGuild@@@std@@PAX@1@$$QAU?$pair@$$CBKPAVCGuild@@@1@@Z
	DD	2 DUP(00H)
	DD	2 DUP(00H)
	DD	00H
	DD	01H
xdata$x	ENDS
;	COMDAT xdata$x
xdata$x	SEGMENT
__unwindtable$??0?$_Tree_temp_node_alloc@V?$allocator@U?$_Tree_node@U?$pair@$$CBKPAVCGuild@@@std@@PAX@std@@@std@@@std@@QAE@AAV?$allocator@U?$_Tree_node@U?$pair@$$CBKPAVCGuild@@@std@@PAX@std@@@1@@Z DD 0ffffffffH
	DD	FLAT:__unwindfunclet$??0?$_Tree_temp_node_alloc@V?$allocator@U?$_Tree_node@U?$pair@$$CBKPAVCGuild@@@std@@PAX@std@@@std@@@std@@QAE@AAV?$allocator@U?$_Tree_node@U?$pair@$$CBKPAVCGuild@@@std@@PAX@std@@@1@@Z$0
__ehfuncinfo$??0?$_Tree_temp_node_alloc@V?$allocator@U?$_Tree_node@U?$pair@$$CBKPAVCGuild@@@std@@PAX@std@@@std@@@std@@QAE@AAV?$allocator@U?$_Tree_node@U?$pair@$$CBKPAVCGuild@@@std@@PAX@std@@@1@@Z DD 019930522H
	DD	01H
	DD	FLAT:__unwindtable$??0?$_Tree_temp_node_alloc@V?$allocator@U?$_Tree_node@U?$pair@$$CBKPAVCGuild@@@std@@PAX@std@@@std@@@std@@QAE@AAV?$allocator@U?$_Tree_node@U?$pair@$$CBKPAVCGuild@@@std@@PAX@std@@@1@@Z
	DD	2 DUP(00H)
	DD	2 DUP(00H)
	DD	00H
	DD	01H
xdata$x	ENDS
;	COMDAT xdata$x
xdata$x	SEGMENT
__unwindtable$??$?0U?$pair@$$CBV?$basic_string@DU?$char_traits@D@std@@V?$allocator@D@2@@std@@PAVCGuild@@@std@@@?$_Tree_temp_node@V?$allocator@U?$_Tree_node@U?$pair@$$CBV?$basic_string@DU?$char_traits@D@std@@V?$allocator@D@2@@std@@PAVCGuild@@@std@@PAX@std@@@std@@@std@@QAE@AAV?$allocator@U?$_Tree_node@U?$pair@$$CBV?$basic_string@DU?$char_traits@D@std@@V?$allocator@D@2@@std@@PAVCGuild@@@std@@PAX@std@@@1@PAU?$_Tree_node@U?$pair@$$CBV?$basic_string@DU?$char_traits@D@std@@V?$allocator@D@2@@std@@PAVCGuild@@@std@@PAX@1@$$QAU?$pair@$$CBV?$basic_string@DU?$char_traits@D@std@@V?$allocator@D@2@@std@@PAVCGuild@@@1@@Z DD 0ffffffffH
	DD	FLAT:__unwindfunclet$??$?0U?$pair@$$CBV?$basic_string@DU?$char_traits@D@std@@V?$allocator@D@2@@std@@PAVCGuild@@@std@@@?$_Tree_temp_node@V?$allocator@U?$_Tree_node@U?$pair@$$CBV?$basic_string@DU?$char_traits@D@std@@V?$allocator@D@2@@std@@PAVCGuild@@@std@@PAX@std@@@std@@@std@@QAE@AAV?$allocator@U?$_Tree_node@U?$pair@$$CBV?$basic_string@DU?$char_traits@D@std@@V?$allocator@D@2@@std@@PAVCGuild@@@std@@PAX@std@@@1@PAU?$_Tree_node@U?$pair@$$CBV?$basic_string@DU?$char_traits@D@std@@V?$allocator@D@2@@std@@PAVCGuild@@@std@@PAX@1@$$QAU?$pair@$$CBV?$basic_string@DU?$char_traits@D@std@@V?$allocator@D@2@@std@@PAVCGuild@@@1@@Z$1
	DD	0ffffffffH
	DD	FLAT:__unwindfunclet$??$?0U?$pair@$$CBV?$basic_string@DU?$char_traits@D@std@@V?$allocator@D@2@@std@@PAVCGuild@@@std@@@?$_Tree_temp_node@V?$allocator@U?$_Tree_node@U?$pair@$$CBV?$basic_string@DU?$char_traits@D@std@@V?$allocator@D@2@@std@@PAVCGuild@@@std@@PAX@std@@@std@@@std@@QAE@AAV?$allocator@U?$_Tree_node@U?$pair@$$CBV?$basic_string@DU?$char_traits@D@std@@V?$allocator@D@2@@std@@PAVCGuild@@@std@@PAX@std@@@1@PAU?$_Tree_node@U?$pair@$$CBV?$basic_string@DU?$char_traits@D@std@@V?$allocator@D@2@@std@@PAVCGuild@@@std@@PAX@1@$$QAU?$pair@$$CBV?$basic_string@DU?$char_traits@D@std@@V?$allocator@D@2@@std@@PAVCGuild@@@1@@Z$0
__ehfuncinfo$??$?0U?$pair@$$CBV?$basic_string@DU?$char_traits@D@std@@V?$allocator@D@2@@std@@PAVCGuild@@@std@@@?$_Tree_temp_node@V?$allocator@U?$_Tree_node@U?$pair@$$CBV?$basic_string@DU?$char_traits@D@std@@V?$allocator@D@2@@std@@PAVCGuild@@@std@@PAX@std@@@std@@@std@@QAE@AAV?$allocator@U?$_Tree_node@U?$pair@$$CBV?$basic_string@DU?$char_traits@D@std@@V?$allocator@D@2@@std@@PAVCGuild@@@std@@PAX@std@@@1@PAU?$_Tree_node@U?$pair@$$CBV?$basic_string@DU?$char_traits@D@std@@V?$allocator@D@2@@std@@PAVCGuild@@@std@@PAX@1@$$QAU?$pair@$$CBV?$basic_string@DU?$char_traits@D@std@@V?$allocator@D@2@@std@@PAVCGuild@@@1@@Z DD 019930522H
	DD	02H
	DD	FLAT:__unwindtable$??$?0U?$pair@$$CBV?$basic_string@DU?$char_traits@D@std@@V?$allocator@D@2@@std@@PAVCGuild@@@std@@@?$_Tree_temp_node@V?$allocator@U?$_Tree_node@U?$pair@$$CBV?$basic_string@DU?$char_traits@D@std@@V?$allocator@D@2@@std@@PAVCGuild@@@std@@PAX@std@@@std@@@std@@QAE@AAV?$allocator@U?$_Tree_node@U?$pair@$$CBV?$basic_string@DU?$char_traits@D@std@@V?$allocator@D@2@@std@@PAVCGuild@@@std@@PAX@std@@@1@PAU?$_Tree_node@U?$pair@$$CBV?$basic_string@DU?$char_traits@D@std@@V?$allocator@D@2@@std@@PAVCGuild@@@std@@PAX@1@$$QAU?$pair@$$CBV?$basic_string@DU?$char_traits@D@std@@V?$allocator@D@2@@std@@PAVCGuild@@@1@@Z
	DD	2 DUP(00H)
	DD	2 DUP(00H)
	DD	00H
	DD	01H
xdata$x	ENDS
;	COMDAT xdata$x
xdata$x	SEGMENT
__unwindtable$??0?$_Tree_temp_node_alloc@V?$allocator@U?$_Tree_node@U?$pair@$$CBV?$basic_string@DU?$char_traits@D@std@@V?$allocator@D@2@@std@@PAVCGuild@@@std@@PAX@std@@@std@@@std@@QAE@AAV?$allocator@U?$_Tree_node@U?$pair@$$CBV?$basic_string@DU?$char_traits@D@std@@V?$allocator@D@2@@std@@PAVCGuild@@@std@@PAX@std@@@1@@Z DD 0ffffffffH
	DD	FLAT:__unwindfunclet$??0?$_Tree_temp_node_alloc@V?$allocator@U?$_Tree_node@U?$pair@$$CBV?$basic_string@DU?$char_traits@D@std@@V?$allocator@D@2@@std@@PAVCGuild@@@std@@PAX@std@@@std@@@std@@QAE@AAV?$allocator@U?$_Tree_node@U?$pair@$$CBV?$basic_string@DU?$char_traits@D@std@@V?$allocator@D@2@@std@@PAVCGuild@@@std@@PAX@std@@@1@@Z$0
__ehfuncinfo$??0?$_Tree_temp_node_alloc@V?$allocator@U?$_Tree_node@U?$pair@$$CBV?$basic_string@DU?$char_traits@D@std@@V?$allocator@D@2@@std@@PAVCGuild@@@std@@PAX@std@@@std@@@std@@QAE@AAV?$allocator@U?$_Tree_node@U?$pair@$$CBV?$basic_string@DU?$char_traits@D@std@@V?$allocator@D@2@@std@@PAVCGuild@@@std@@PAX@std@@@1@@Z DD 019930522H
	DD	01H
	DD	FLAT:__unwindtable$??0?$_Tree_temp_node_alloc@V?$allocator@U?$_Tree_node@U?$pair@$$CBV?$basic_string@DU?$char_traits@D@std@@V?$allocator@D@2@@std@@PAVCGuild@@@std@@PAX@std@@@std@@@std@@QAE@AAV?$allocator@U?$_Tree_node@U?$pair@$$CBV?$basic_string@DU?$char_traits@D@std@@V?$allocator@D@2@@std@@PAVCGuild@@@std@@PAX@std@@@1@@Z
	DD	2 DUP(00H)
	DD	2 DUP(00H)
	DD	00H
	DD	01H
xdata$x	ENDS
;	COMDAT xdata$x
xdata$x	SEGMENT
__unwindtable$??$?0U?$pair@$$CBKPAVCGuildMember@@@std@@@?$_Tree_temp_node@V?$allocator@U?$_Tree_node@U?$pair@$$CBKPAVCGuildMember@@@std@@PAX@std@@@std@@@std@@QAE@AAV?$allocator@U?$_Tree_node@U?$pair@$$CBKPAVCGuildMember@@@std@@PAX@std@@@1@PAU?$_Tree_node@U?$pair@$$CBKPAVCGuildMember@@@std@@PAX@1@$$QAU?$pair@$$CBKPAVCGuildMember@@@1@@Z DD 0ffffffffH
	DD	FLAT:__unwindfunclet$??$?0U?$pair@$$CBKPAVCGuildMember@@@std@@@?$_Tree_temp_node@V?$allocator@U?$_Tree_node@U?$pair@$$CBKPAVCGuildMember@@@std@@PAX@std@@@std@@@std@@QAE@AAV?$allocator@U?$_Tree_node@U?$pair@$$CBKPAVCGuildMember@@@std@@PAX@std@@@1@PAU?$_Tree_node@U?$pair@$$CBKPAVCGuildMember@@@std@@PAX@1@$$QAU?$pair@$$CBKPAVCGuildMember@@@1@@Z$1
__ehfuncinfo$??$?0U?$pair@$$CBKPAVCGuildMember@@@std@@@?$_Tree_temp_node@V?$allocator@U?$_Tree_node@U?$pair@$$CBKPAVCGuildMember@@@std@@PAX@std@@@std@@@std@@QAE@AAV?$allocator@U?$_Tree_node@U?$pair@$$CBKPAVCGuildMember@@@std@@PAX@std@@@1@PAU?$_Tree_node@U?$pair@$$CBKPAVCGuildMember@@@std@@PAX@1@$$QAU?$pair@$$CBKPAVCGuildMember@@@1@@Z DD 019930522H
	DD	01H
	DD	FLAT:__unwindtable$??$?0U?$pair@$$CBKPAVCGuildMember@@@std@@@?$_Tree_temp_node@V?$allocator@U?$_Tree_node@U?$pair@$$CBKPAVCGuildMember@@@std@@PAX@std@@@std@@@std@@QAE@AAV?$allocator@U?$_Tree_node@U?$pair@$$CBKPAVCGuildMember@@@std@@PAX@std@@@1@PAU?$_Tree_node@U?$pair@$$CBKPAVCGuildMember@@@std@@PAX@1@$$QAU?$pair@$$CBKPAVCGuildMember@@@1@@Z
	DD	2 DUP(00H)
	DD	2 DUP(00H)
	DD	00H
	DD	01H
xdata$x	ENDS
;	COMDAT xdata$x
xdata$x	SEGMENT
__unwindtable$??0?$_Tree_temp_node_alloc@V?$allocator@U?$_Tree_node@U?$pair@$$CBKPAVCGuildMember@@@std@@PAX@std@@@std@@@std@@QAE@AAV?$allocator@U?$_Tree_node@U?$pair@$$CBKPAVCGuildMember@@@std@@PAX@std@@@1@@Z DD 0ffffffffH
	DD	FLAT:__unwindfunclet$??0?$_Tree_temp_node_alloc@V?$allocator@U?$_Tree_node@U?$pair@$$CBKPAVCGuildMember@@@std@@PAX@std@@@std@@@std@@QAE@AAV?$allocator@U?$_Tree_node@U?$pair@$$CBKPAVCGuildMember@@@std@@PAX@std@@@1@@Z$0
__ehfuncinfo$??0?$_Tree_temp_node_alloc@V?$allocator@U?$_Tree_node@U?$pair@$$CBKPAVCGuildMember@@@std@@PAX@std@@@std@@@std@@QAE@AAV?$allocator@U?$_Tree_node@U?$pair@$$CBKPAVCGuildMember@@@std@@PAX@std@@@1@@Z DD 019930522H
	DD	01H
	DD	FLAT:__unwindtable$??0?$_Tree_temp_node_alloc@V?$allocator@U?$_Tree_node@U?$pair@$$CBKPAVCGuildMember@@@std@@PAX@std@@@std@@@std@@QAE@AAV?$allocator@U?$_Tree_node@U?$pair@$$CBKPAVCGuildMember@@@std@@PAX@std@@@1@@Z
	DD	2 DUP(00H)
	DD	2 DUP(00H)
	DD	00H
	DD	01H
xdata$x	ENDS
;	COMDAT xdata$x
xdata$x	SEGMENT
__unwindtable$??$_Emplace@ABQAVCGuildVote@@@?$list@PAVCGuildVote@@V?$allocator@PAVCGuildVote@@@std@@@std@@QAEPAU?$_List_node@PAVCGuildVote@@PAX@1@QAU21@ABQAVCGuildVote@@@Z DD 0ffffffffH
	DD	FLAT:__unwindfunclet$??$_Emplace@ABQAVCGuildVote@@@?$list@PAVCGuildVote@@V?$allocator@PAVCGuildVote@@@std@@@std@@QAEPAU?$_List_node@PAVCGuildVote@@PAX@1@QAU21@ABQAVCGuildVote@@@Z$1
__ehfuncinfo$??$_Emplace@ABQAVCGuildVote@@@?$list@PAVCGuildVote@@V?$allocator@PAVCGuildVote@@@std@@@std@@QAEPAU?$_List_node@PAVCGuildVote@@PAX@1@QAU21@ABQAVCGuildVote@@@Z DD 019930522H
	DD	01H
	DD	FLAT:__unwindtable$??$_Emplace@ABQAVCGuildVote@@@?$list@PAVCGuildVote@@V?$allocator@PAVCGuildVote@@@std@@@std@@QAEPAU?$_List_node@PAVCGuildVote@@PAX@1@QAU21@ABQAVCGuildVote@@@Z
	DD	2 DUP(00H)
	DD	2 DUP(00H)
	DD	00H
	DD	01H
xdata$x	ENDS
;	COMDAT xdata$x
xdata$x	SEGMENT
__unwindtable$??$_Emplace@U?$pair@$$CBKPAVCGuild@@@std@@@?$_Tree@V?$_Tmap_traits@KPAVCGuild@@U?$less@K@std@@V?$allocator@U?$pair@$$CBKPAVCGuild@@@std@@@3@$0A@@std@@@std@@IAE?AU?$pair@PAU?$_Tree_node@U?$pair@$$CBKPAVCGuild@@@std@@PAX@std@@_N@1@$$QAU?$pair@$$CBKPAVCGuild@@@1@@Z DD 0ffffffffH
	DD	FLAT:__unwindfunclet$??$_Emplace@U?$pair@$$CBKPAVCGuild@@@std@@@?$_Tree@V?$_Tmap_traits@KPAVCGuild@@U?$less@K@std@@V?$allocator@U?$pair@$$CBKPAVCGuild@@@std@@@3@$0A@@std@@@std@@IAE?AU?$pair@PAU?$_Tree_node@U?$pair@$$CBKPAVCGuild@@@std@@PAX@std@@_N@1@$$QAU?$pair@$$CBKPAVCGuild@@@1@@Z$2
__ehfuncinfo$??$_Emplace@U?$pair@$$CBKPAVCGuild@@@std@@@?$_Tree@V?$_Tmap_traits@KPAVCGuild@@U?$less@K@std@@V?$allocator@U?$pair@$$CBKPAVCGuild@@@std@@@3@$0A@@std@@@std@@IAE?AU?$pair@PAU?$_Tree_node@U?$pair@$$CBKPAVCGuild@@@std@@PAX@std@@_N@1@$$QAU?$pair@$$CBKPAVCGuild@@@1@@Z DD 019930522H
	DD	01H
	DD	FLAT:__unwindtable$??$_Emplace@U?$pair@$$CBKPAVCGuild@@@std@@@?$_Tree@V?$_Tmap_traits@KPAVCGuild@@U?$less@K@std@@V?$allocator@U?$pair@$$CBKPAVCGuild@@@std@@@3@$0A@@std@@@std@@IAE?AU?$pair@PAU?$_Tree_node@U?$pair@$$CBKPAVCGuild@@@std@@PAX@std@@_N@1@$$QAU?$pair@$$CBKPAVCGuild@@@1@@Z
	DD	2 DUP(00H)
	DD	2 DUP(00H)
	DD	00H
	DD	01H
xdata$x	ENDS
;	COMDAT xdata$x
xdata$x	SEGMENT
__unwindtable$??$_Emplace@U?$pair@$$CBV?$basic_string@DU?$char_traits@D@std@@V?$allocator@D@2@@std@@PAVCGuild@@@std@@@?$_Tree@V?$_Tmap_traits@V?$basic_string@DU?$char_traits@D@std@@V?$allocator@D@2@@std@@PAVCGuild@@U?$less@V?$basic_string@DU?$char_traits@D@std@@V?$allocator@D@2@@std@@@2@V?$allocator@U?$pair@$$CBV?$basic_string@DU?$char_traits@D@std@@V?$allocator@D@2@@std@@PAVCGuild@@@std@@@2@$0A@@std@@@std@@IAE?AU?$pair@PAU?$_Tree_node@U?$pair@$$CBV?$basic_string@DU?$char_traits@D@std@@V?$allocator@D@2@@std@@PAVCGuild@@@std@@PAX@std@@_N@1@$$QAU?$pair@$$CBV?$basic_string@DU?$char_traits@D@std@@V?$allocator@D@2@@std@@PAVCGuild@@@1@@Z DD 0ffffffffH
	DD	FLAT:__unwindfunclet$??$_Emplace@U?$pair@$$CBV?$basic_string@DU?$char_traits@D@std@@V?$allocator@D@2@@std@@PAVCGuild@@@std@@@?$_Tree@V?$_Tmap_traits@V?$basic_string@DU?$char_traits@D@std@@V?$allocator@D@2@@std@@PAVCGuild@@U?$less@V?$basic_string@DU?$char_traits@D@std@@V?$allocator@D@2@@std@@@2@V?$allocator@U?$pair@$$CBV?$basic_string@DU?$char_traits@D@std@@V?$allocator@D@2@@std@@PAVCGuild@@@std@@@2@$0A@@std@@@std@@IAE?AU?$pair@PAU?$_Tree_node@U?$pair@$$CBV?$basic_string@DU?$char_traits@D@std@@V?$allocator@D@2@@std@@PAVCGuild@@@std@@PAX@std@@_N@1@$$QAU?$pair@$$CBV?$basic_string@DU?$char_traits@D@std@@V?$allocator@D@2@@std@@PAVCGuild@@@1@@Z$2
	DD	0ffffffffH
	DD	FLAT:__unwindfunclet$??$_Emplace@U?$pair@$$CBV?$basic_string@DU?$char_traits@D@std@@V?$allocator@D@2@@std@@PAVCGuild@@@std@@@?$_Tree@V?$_Tmap_traits@V?$basic_string@DU?$char_traits@D@std@@V?$allocator@D@2@@std@@PAVCGuild@@U?$less@V?$basic_string@DU?$char_traits@D@std@@V?$allocator@D@2@@std@@@2@V?$allocator@U?$pair@$$CBV?$basic_string@DU?$char_traits@D@std@@V?$allocator@D@2@@std@@PAVCGuild@@@std@@@2@$0A@@std@@@std@@IAE?AU?$pair@PAU?$_Tree_node@U?$pair@$$CBV?$basic_string@DU?$char_traits@D@std@@V?$allocator@D@2@@std@@PAVCGuild@@@std@@PAX@std@@_N@1@$$QAU?$pair@$$CBV?$basic_string@DU?$char_traits@D@std@@V?$allocator@D@2@@std@@PAVCGuild@@@1@@Z$1
__ehfuncinfo$??$_Emplace@U?$pair@$$CBV?$basic_string@DU?$char_traits@D@std@@V?$allocator@D@2@@std@@PAVCGuild@@@std@@@?$_Tree@V?$_Tmap_traits@V?$basic_string@DU?$char_traits@D@std@@V?$allocator@D@2@@std@@PAVCGuild@@U?$less@V?$basic_string@DU?$char_traits@D@std@@V?$allocator@D@2@@std@@@2@V?$allocator@U?$pair@$$CBV?$basic_string@DU?$char_traits@D@std@@V?$allocator@D@2@@std@@PAVCGuild@@@std@@@2@$0A@@std@@@std@@IAE?AU?$pair@PAU?$_Tree_node@U?$pair@$$CBV?$basic_string@DU?$char_traits@D@std@@V?$allocator@D@2@@std@@PAVCGuild@@@std@@PAX@std@@_N@1@$$QAU?$pair@$$CBV?$basic_string@DU?$char_traits@D@std@@V?$allocator@D@2@@std@@PAVCGuild@@@1@@Z DD 019930522H
	DD	02H
	DD	FLAT:__unwindtable$??$_Emplace@U?$pair@$$CBV?$basic_string@DU?$char_traits@D@std@@V?$allocator@D@2@@std@@PAVCGuild@@@std@@@?$_Tree@V?$_Tmap_traits@V?$basic_string@DU?$char_traits@D@std@@V?$allocator@D@2@@std@@PAVCGuild@@U?$less@V?$basic_string@DU?$char_traits@D@std@@V?$allocator@D@2@@std@@@2@V?$allocator@U?$pair@$$CBV?$basic_string@DU?$char_traits@D@std@@V?$allocator@D@2@@std@@PAVCGuild@@@std@@@2@$0A@@std@@@std@@IAE?AU?$pair@PAU?$_Tree_node@U?$pair@$$CBV?$basic_string@DU?$char_traits@D@std@@V?$allocator@D@2@@std@@PAVCGuild@@@std@@PAX@std@@_N@1@$$QAU?$pair@$$CBV?$basic_string@DU?$char_traits@D@std@@V?$allocator@D@2@@std@@PAVCGuild@@@1@@Z
	DD	2 DUP(00H)
	DD	2 DUP(00H)
	DD	00H
	DD	01H
xdata$x	ENDS
;	COMDAT xdata$x
xdata$x	SEGMENT
__unwindtable$??$_Emplace@U?$pair@$$CBKPAVCGuildMember@@@std@@@?$_Tree@V?$_Tmap_traits@KPAVCGuildMember@@U?$less@K@std@@V?$allocator@U?$pair@$$CBKPAVCGuildMember@@@std@@@3@$0A@@std@@@std@@IAE?AU?$pair@PAU?$_Tree_node@U?$pair@$$CBKPAVCGuildMember@@@std@@PAX@std@@_N@1@$$QAU?$pair@$$CBKPAVCGuildMember@@@1@@Z DD 0ffffffffH
	DD	FLAT:__unwindfunclet$??$_Emplace@U?$pair@$$CBKPAVCGuildMember@@@std@@@?$_Tree@V?$_Tmap_traits@KPAVCGuildMember@@U?$less@K@std@@V?$allocator@U?$pair@$$CBKPAVCGuildMember@@@std@@@3@$0A@@std@@@std@@IAE?AU?$pair@PAU?$_Tree_node@U?$pair@$$CBKPAVCGuildMember@@@std@@PAX@std@@_N@1@$$QAU?$pair@$$CBKPAVCGuildMember@@@1@@Z$2
__ehfuncinfo$??$_Emplace@U?$pair@$$CBKPAVCGuildMember@@@std@@@?$_Tree@V?$_Tmap_traits@KPAVCGuildMember@@U?$less@K@std@@V?$allocator@U?$pair@$$CBKPAVCGuildMember@@@std@@@3@$0A@@std@@@std@@IAE?AU?$pair@PAU?$_Tree_node@U?$pair@$$CBKPAVCGuildMember@@@std@@PAX@std@@_N@1@$$QAU?$pair@$$CBKPAVCGuildMember@@@1@@Z DD 019930522H
	DD	01H
	DD	FLAT:__unwindtable$??$_Emplace@U?$pair@$$CBKPAVCGuildMember@@@std@@@?$_Tree@V?$_Tmap_traits@KPAVCGuildMember@@U?$less@K@std@@V?$allocator@U?$pair@$$CBKPAVCGuildMember@@@std@@@3@$0A@@std@@@std@@IAE?AU?$pair@PAU?$_Tree_node@U?$pair@$$CBKPAVCGuildMember@@@std@@PAX@std@@_N@1@$$QAU?$pair@$$CBKPAVCGuildMember@@@1@@Z
	DD	2 DUP(00H)
	DD	2 DUP(00H)
	DD	00H
	DD	01H
xdata$x	ENDS
;	COMDAT xdata$x
xdata$x	SEGMENT
__unwindtable$??$insert@$0A@$0A@@?$_Tree@V?$_Tmap_traits@KPAVCGuild@@U?$less@K@std@@V?$allocator@U?$pair@$$CBKPAVCGuild@@@std@@@3@$0A@@std@@@std@@QAE?AU?$pair@V?$_Tree_iterator@V?$_Tree_val@U?$_Tree_simple_types@U?$pair@$$CBKPAVCGuild@@@std@@@std@@@std@@@std@@_N@1@$$QAU?$pair@$$CBKPAVCGuild@@@1@@Z DD 0ffffffffH
	DD	FLAT:__unwindfunclet$??$insert@$0A@$0A@@?$_Tree@V?$_Tmap_traits@KPAVCGuild@@U?$less@K@std@@V?$allocator@U?$pair@$$CBKPAVCGuild@@@std@@@3@$0A@@std@@@std@@QAE?AU?$pair@V?$_Tree_iterator@V?$_Tree_val@U?$_Tree_simple_types@U?$pair@$$CBKPAVCGuild@@@std@@@std@@@std@@@std@@_N@1@$$QAU?$pair@$$CBKPAVCGuild@@@1@@Z$2
__ehfuncinfo$??$insert@$0A@$0A@@?$_Tree@V?$_Tmap_traits@KPAVCGuild@@U?$less@K@std@@V?$allocator@U?$pair@$$CBKPAVCGuild@@@std@@@3@$0A@@std@@@std@@QAE?AU?$pair@V?$_Tree_iterator@V?$_Tree_val@U?$_Tree_simple_types@U?$pair@$$CBKPAVCGuild@@@std@@@std@@@std@@@std@@_N@1@$$QAU?$pair@$$CBKPAVCGuild@@@1@@Z DD 019930522H
	DD	01H
	DD	FLAT:__unwindtable$??$insert@$0A@$0A@@?$_Tree@V?$_Tmap_traits@KPAVCGuild@@U?$less@K@std@@V?$allocator@U?$pair@$$CBKPAVCGuild@@@std@@@3@$0A@@std@@@std@@QAE?AU?$pair@V?$_Tree_iterator@V?$_Tree_val@U?$_Tree_simple_types@U?$pair@$$CBKPAVCGuild@@@std@@@std@@@std@@@std@@_N@1@$$QAU?$pair@$$CBKPAVCGuild@@@1@@Z
	DD	2 DUP(00H)
	DD	2 DUP(00H)
	DD	00H
	DD	01H
xdata$x	ENDS
;	COMDAT xdata$x
xdata$x	SEGMENT
__unwindtable$??$insert@$0A@$0A@@?$_Tree@V?$_Tmap_traits@KPAVCGuildMember@@U?$less@K@std@@V?$allocator@U?$pair@$$CBKPAVCGuildMember@@@std@@@3@$0A@@std@@@std@@QAE?AU?$pair@V?$_Tree_iterator@V?$_Tree_val@U?$_Tree_simple_types@U?$pair@$$CBKPAVCGuildMember@@@std@@@std@@@std@@@std@@_N@1@$$QAU?$pair@$$CBKPAVCGuildMember@@@1@@Z DD 0ffffffffH
	DD	FLAT:__unwindfunclet$??$insert@$0A@$0A@@?$_Tree@V?$_Tmap_traits@KPAVCGuildMember@@U?$less@K@std@@V?$allocator@U?$pair@$$CBKPAVCGuildMember@@@std@@@3@$0A@@std@@@std@@QAE?AU?$pair@V?$_Tree_iterator@V?$_Tree_val@U?$_Tree_simple_types@U?$pair@$$CBKPAVCGuildMember@@@std@@@std@@@std@@@std@@_N@1@$$QAU?$pair@$$CBKPAVCGuildMember@@@1@@Z$2
__ehfuncinfo$??$insert@$0A@$0A@@?$_Tree@V?$_Tmap_traits@KPAVCGuildMember@@U?$less@K@std@@V?$allocator@U?$pair@$$CBKPAVCGuildMember@@@std@@@3@$0A@@std@@@std@@QAE?AU?$pair@V?$_Tree_iterator@V?$_Tree_val@U?$_Tree_simple_types@U?$pair@$$CBKPAVCGuildMember@@@std@@@std@@@std@@@std@@_N@1@$$QAU?$pair@$$CBKPAVCGuildMember@@@1@@Z DD 019930522H
	DD	01H
	DD	FLAT:__unwindtable$??$insert@$0A@$0A@@?$_Tree@V?$_Tmap_traits@KPAVCGuildMember@@U?$less@K@std@@V?$allocator@U?$pair@$$CBKPAVCGuildMember@@@std@@@3@$0A@@std@@@std@@QAE?AU?$pair@V?$_Tree_iterator@V?$_Tree_val@U?$_Tree_simple_types@U?$pair@$$CBKPAVCGuildMember@@@std@@@std@@@std@@@std@@_N@1@$$QAU?$pair@$$CBKPAVCGuildMember@@@1@@Z
	DD	2 DUP(00H)
	DD	2 DUP(00H)
	DD	00H
	DD	01H
xdata$x	ENDS
;	COMDAT xdata$x
xdata$x	SEGMENT
__unwindtable$?SetName@CGuildMng@@QAEHPAVCGuild@@PBD@Z DD 0ffffffffH
	DD	FLAT:__unwindfunclet$?SetName@CGuildMng@@QAEHPAVCGuild@@PBD@Z$1
__ehfuncinfo$?SetName@CGuildMng@@QAEHPAVCGuild@@PBD@Z DD 019930522H
	DD	01H
	DD	FLAT:__unwindtable$?SetName@CGuildMng@@QAEHPAVCGuild@@PBD@Z
	DD	2 DUP(00H)
	DD	2 DUP(00H)
	DD	00H
	DD	01H
xdata$x	ENDS
;	COMDAT xdata$x
xdata$x	SEGMENT
__unwindtable$?Serialize@CGuildMng@@QAEXAAVCAr@@H@Z DD 0ffffffffH
	DD	FLAT:__unwindfunclet$?Serialize@CGuildMng@@QAEXAAVCAr@@H@Z$0
	DD	0ffffffffH
	DD	FLAT:__unwindfunclet$?Serialize@CGuildMng@@QAEXAAVCAr@@H@Z$4
	DD	0ffffffffH
	DD	FLAT:__unwindfunclet$?Serialize@CGuildMng@@QAEXAAVCAr@@H@Z$1
__ehfuncinfo$?Serialize@CGuildMng@@QAEXAAVCAr@@H@Z DD 019930522H
	DD	03H
	DD	FLAT:__unwindtable$?Serialize@CGuildMng@@QAEXAAVCAr@@H@Z
	DD	2 DUP(00H)
	DD	2 DUP(00H)
	DD	00H
	DD	01H
xdata$x	ENDS
;	COMDAT xdata$x
xdata$x	SEGMENT
__unwindtable$?AddGuild@CGuildMng@@QAEKPAVCGuild@@@Z DD 0ffffffffH
	DD	FLAT:__unwindfunclet$?AddGuild@CGuildMng@@QAEKPAVCGuild@@@Z$0
__ehfuncinfo$?AddGuild@CGuildMng@@QAEKPAVCGuild@@@Z DD 019930522H
	DD	01H
	DD	FLAT:__unwindtable$?AddGuild@CGuildMng@@QAEKPAVCGuild@@@Z
	DD	2 DUP(00H)
	DD	2 DUP(00H)
	DD	00H
	DD	01H
xdata$x	ENDS
;	COMDAT xdata$x
xdata$x	SEGMENT
__unwindtable$??0CGuildMng@@QAE@XZ DD 0ffffffffH
	DD	FLAT:__unwindfunclet$??0CGuildMng@@QAE@XZ$0
__ehfuncinfo$??0CGuildMng@@QAE@XZ DD 019930522H
	DD	01H
	DD	FLAT:__unwindtable$??0CGuildMng@@QAE@XZ
	DD	2 DUP(00H)
	DD	2 DUP(00H)
	DD	00H
	DD	01H
xdata$x	ENDS
;	COMDAT xdata$x
xdata$x	SEGMENT
__unwindtable$?Serialize@CGuild@@QAEXAAVCAr@@H@Z DD 0ffffffffH
	DD	FLAT:__unwindfunclet$?Serialize@CGuild@@QAEXAAVCAr@@H@Z$7
	DD	0ffffffffH
	DD	FLAT:__unwindfunclet$?Serialize@CGuild@@QAEXAAVCAr@@H@Z$3
__ehfuncinfo$?Serialize@CGuild@@QAEXAAVCAr@@H@Z DD 019930522H
	DD	02H
	DD	FLAT:__unwindtable$?Serialize@CGuild@@QAEXAAVCAr@@H@Z
	DD	2 DUP(00H)
	DD	2 DUP(00H)
	DD	00H
	DD	01H
xdata$x	ENDS
;	COMDAT xdata$x
xdata$x	SEGMENT
__unwindtable$??0CGuild@@QAE@XZ DD 0ffffffffH
	DD	FLAT:__unwindfunclet$??0CGuild@@QAE@XZ$0
	DD	00H
	DD	FLAT:__unwindfunclet$??0CGuild@@QAE@XZ$1
	DD	01H
	DD	FLAT:__unwindfunclet$??0CGuild@@QAE@XZ$2
__ehfuncinfo$??0CGuild@@QAE@XZ DD 019930522H
	DD	03H
	DD	FLAT:__unwindtable$??0CGuild@@QAE@XZ
	DD	2 DUP(00H)
	DD	2 DUP(00H)
	DD	00H
	DD	01H
xdata$x	ENDS
;	COMDAT xdata$x
xdata$x	SEGMENT
__unwindtable$?push_back@?$list@PAVCGuildVote@@V?$allocator@PAVCGuildVote@@@std@@@std@@QAEXABQAVCGuildVote@@@Z DD 0ffffffffH
	DD	FLAT:__unwindfunclet$?push_back@?$list@PAVCGuildVote@@V?$allocator@PAVCGuildVote@@@std@@@std@@QAEXABQAVCGuildVote@@@Z$1
__ehfuncinfo$?push_back@?$list@PAVCGuildVote@@V?$allocator@PAVCGuildVote@@@std@@@std@@QAEXABQAVCGuildVote@@@Z DD 019930522H
	DD	01H
	DD	FLAT:__unwindtable$?push_back@?$list@PAVCGuildVote@@V?$allocator@PAVCGuildVote@@@std@@@std@@QAEXABQAVCGuildVote@@@Z
	DD	2 DUP(00H)
	DD	2 DUP(00H)
	DD	00H
	DD	01H
xdata$x	ENDS
;	COMDAT xdata$x
xdata$x	SEGMENT
__unwindtable$?SetItemContainer@?$CItemContainer@VCItemElem@@@@QAEXKKK@Z DD 0ffffffffH
	DD	FLAT:__unwindfunclet$?SetItemContainer@?$CItemContainer@VCItemElem@@@@QAEXKKK@Z$0
__ehfuncinfo$?SetItemContainer@?$CItemContainer@VCItemElem@@@@QAEXKKK@Z DD 019930522H
	DD	01H
	DD	FLAT:__unwindtable$?SetItemContainer@?$CItemContainer@VCItemElem@@@@QAEXKKK@Z
	DD	2 DUP(00H)
	DD	2 DUP(00H)
	DD	00H
	DD	01H
xdata$x	ENDS
;	COMDAT xdata$x
xdata$x	SEGMENT
__ehfuncinfo$??_ECItemElem@@UAEPAXI@Z DD 019930522H
	DD	00H
	DD	00H
	DD	2 DUP(00H)
	DD	2 DUP(00H)
	DD	00H
	DD	05H
xdata$x	ENDS
; Function compile flags: /Ogtp
; File C:\Program Files\Microsoft Visual Studio\2022\Professional\VC\Tools\MSVC\14.44.35207\include\xmemory
;	COMDAT ??1?$_Alloc_construct_ptr@V?$allocator@U?$_List_node@PAVCGuildVote@@PAX@std@@@std@@@std@@QAE@XZ
_TEXT	SEGMENT
??1?$_Alloc_construct_ptr@V?$allocator@U?$_List_node@PAVCGuildVote@@PAX@std@@@std@@@std@@QAE@XZ PROC ; std::_Alloc_construct_ptr<std::allocator<std::_List_node<CGuildVote *,void *> > >::~_Alloc_construct_ptr<std::allocator<std::_List_node<CGuildVote *,void *> > >, COMDAT
; _this$ = ecx

; 1172 :         if (_Ptr) {

  00000	8b 41 04	 mov	 eax, DWORD PTR [ecx+4]
  00003	85 c0		 test	 eax, eax
  00005	74 0b		 je	 SHORT $LN10@Alloc_cons

; 289  :         ::operator delete(_Ptr, _Bytes);

  00007	6a 0c		 push	 12			; 0000000cH
  00009	50		 push	 eax
  0000a	e8 00 00 00 00	 call	 ??3@YAXPAXI@Z		; operator delete
  0000f	83 c4 08	 add	 esp, 8
$LN10@Alloc_cons:

; 1173 :             _Al.deallocate(_Ptr, 1);
; 1174 :         }
; 1175 :     }

  00012	c3		 ret	 0
??1?$_Alloc_construct_ptr@V?$allocator@U?$_List_node@PAVCGuildVote@@PAX@std@@@std@@@std@@QAE@XZ ENDP ; std::_Alloc_construct_ptr<std::allocator<std::_List_node<CGuildVote *,void *> > >::~_Alloc_construct_ptr<std::allocator<std::_List_node<CGuildVote *,void *> > >
_TEXT	ENDS
; Function compile flags: /Ogtp
; File C:\Program Files\Microsoft Visual Studio\2022\Professional\VC\Tools\MSVC\14.44.35207\include\xmemory
;	COMDAT ??1?$_Alloc_construct_ptr@V?$allocator@U?$_Tree_node@U?$pair@$$CBKPAVCGuild@@@std@@PAX@std@@@std@@@std@@QAE@XZ
_TEXT	SEGMENT
??1?$_Alloc_construct_ptr@V?$allocator@U?$_Tree_node@U?$pair@$$CBKPAVCGuild@@@std@@PAX@std@@@std@@@std@@QAE@XZ PROC ; std::_Alloc_construct_ptr<std::allocator<std::_Tree_node<std::pair<unsigned long const ,CGuild *>,void *> > >::~_Alloc_construct_ptr<std::allocator<std::_Tree_node<std::pair<unsigned long const ,CGuild *>,void *> > >, COMDAT
; _this$ = ecx

; 1172 :         if (_Ptr) {

  00000	8b 41 04	 mov	 eax, DWORD PTR [ecx+4]
  00003	85 c0		 test	 eax, eax
  00005	74 0b		 je	 SHORT $LN10@Alloc_cons

; 289  :         ::operator delete(_Ptr, _Bytes);

  00007	6a 18		 push	 24			; 00000018H
  00009	50		 push	 eax
  0000a	e8 00 00 00 00	 call	 ??3@YAXPAXI@Z		; operator delete
  0000f	83 c4 08	 add	 esp, 8
$LN10@Alloc_cons:

; 1173 :             _Al.deallocate(_Ptr, 1);
; 1174 :         }
; 1175 :     }

  00012	c3		 ret	 0
??1?$_Alloc_construct_ptr@V?$allocator@U?$_Tree_node@U?$pair@$$CBKPAVCGuild@@@std@@PAX@std@@@std@@@std@@QAE@XZ ENDP ; std::_Alloc_construct_ptr<std::allocator<std::_Tree_node<std::pair<unsigned long const ,CGuild *>,void *> > >::~_Alloc_construct_ptr<std::allocator<std::_Tree_node<std::pair<unsigned long const ,CGuild *>,void *> > >
_TEXT	ENDS
; Function compile flags: /Ogtp
; File C:\Program Files\Microsoft Visual Studio\2022\Professional\VC\Tools\MSVC\14.44.35207\include\xtree
; File C:\Program Files\Microsoft Visual Studio\2022\Professional\VC\Tools\MSVC\14.44.35207\include\type_traits
; File C:\Program Files\Microsoft Visual Studio\2022\Professional\VC\Tools\MSVC\14.44.35207\include\xtree
; File C:\Program Files\Microsoft Visual Studio\2022\Professional\VC\Tools\MSVC\14.44.35207\include\type_traits
; File C:\Program Files\Microsoft Visual Studio\2022\Professional\VC\Tools\MSVC\14.44.35207\include\xtree
;	COMDAT ??$_Find_lower_bound@K@?$_Tree@V?$_Tmap_traits@KPAVCGuild@@U?$less@K@std@@V?$allocator@U?$pair@$$CBKPAVCGuild@@@std@@@3@$0A@@std@@@std@@IBE?AU?$_Tree_find_result@PAU?$_Tree_node@U?$pair@$$CBKPAVCGuild@@@std@@PAX@std@@@1@ABK@Z
_TEXT	SEGMENT
___$ReturnUdt$ = 8					; size = 4
__Keyval$ = 12						; size = 4
??$_Find_lower_bound@K@?$_Tree@V?$_Tmap_traits@KPAVCGuild@@U?$less@K@std@@V?$allocator@U?$pair@$$CBKPAVCGuild@@@std@@@3@$0A@@std@@@std@@IBE?AU?$_Tree_find_result@PAU?$_Tree_node@U?$pair@$$CBKPAVCGuild@@@std@@PAX@std@@@1@ABK@Z PROC ; std::_Tree<std::_Tmap_traits<unsigned long,CGuild *,std::less<unsigned long>,std::allocator<std::pair<unsigned long const ,CGuild *> >,0> >::_Find_lower_bound<unsigned long>, COMDAT
; _this$ = ecx

; 1628 :     _Tree_find_result<_Nodeptr> _Find_lower_bound(const _Keyty& _Keyval) const {

  00000	55		 push	 ebp
  00001	8b ec		 mov	 ebp, esp

; 1629 :         const auto _Scary = _Get_scary();
; 1630 :         _Tree_find_result<_Nodeptr> _Result{{_Scary->_Myhead->_Parent, _Tree_child::_Right}, _Scary->_Myhead};

  00003	8b 09		 mov	 ecx, DWORD PTR [ecx]
  00005	8b 55 08	 mov	 edx, DWORD PTR ___$ReturnUdt$[ebp]
  00008	8b 41 04	 mov	 eax, DWORD PTR [ecx+4]
  0000b	89 02		 mov	 DWORD PTR [edx], eax
  0000d	c7 42 04 00 00
	00 00		 mov	 DWORD PTR [edx+4], 0
  00014	89 4a 08	 mov	 DWORD PTR [edx+8], ecx

; 1631 :         _Nodeptr _Trynode = _Result._Location._Parent;
; 1632 :         while (!_Trynode->_Isnil) {

  00017	80 78 0d 00	 cmp	 BYTE PTR [eax+13], 0
  0001b	75 28		 jne	 SHORT $LN13@Find_lower
; File C:\Program Files\Microsoft Visual Studio\2022\Professional\VC\Tools\MSVC\14.44.35207\include\type_traits

; 2380 :         return _Left < _Right;

  0001d	8b 4d 0c	 mov	 ecx, DWORD PTR __Keyval$[ebp]
  00020	56		 push	 esi
  00021	8b 31		 mov	 esi, DWORD PTR [ecx]
$LL2@Find_lower:
; File C:\Program Files\Microsoft Visual Studio\2022\Professional\VC\Tools\MSVC\14.44.35207\include\xtree

; 1633 :             _Result._Location._Parent = _Trynode;

  00023	89 02		 mov	 DWORD PTR [edx], eax
; File C:\Program Files\Microsoft Visual Studio\2022\Professional\VC\Tools\MSVC\14.44.35207\include\type_traits

; 2380 :         return _Left < _Right;

  00025	39 70 10	 cmp	 DWORD PTR [eax+16], esi
; File C:\Program Files\Microsoft Visual Studio\2022\Professional\VC\Tools\MSVC\14.44.35207\include\xtree

; 1634 :             if (_DEBUG_LT_PRED(_Getcomp(), _Traits::_Kfn(_Trynode->_Myval), _Keyval)) {

  00028	73 07		 jae	 SHORT $LN4@Find_lower

; 1635 :                 _Result._Location._Child = _Tree_child::_Right;
; 1636 :                 _Trynode                 = _Trynode->_Right;

  0002a	8b 40 08	 mov	 eax, DWORD PTR [eax+8]
  0002d	33 c9		 xor	 ecx, ecx

; 1637 :             } else {

  0002f	eb 0a		 jmp	 SHORT $LN5@Find_lower
$LN4@Find_lower:

; 1638 :                 _Result._Location._Child = _Tree_child::_Left;
; 1639 :                 _Result._Bound           = _Trynode;

  00031	89 42 08	 mov	 DWORD PTR [edx+8], eax

; 1640 :                 _Trynode                 = _Trynode->_Left;

  00034	b9 01 00 00 00	 mov	 ecx, 1
  00039	8b 00		 mov	 eax, DWORD PTR [eax]
$LN5@Find_lower:

; 1631 :         _Nodeptr _Trynode = _Result._Location._Parent;
; 1632 :         while (!_Trynode->_Isnil) {

  0003b	89 4a 04	 mov	 DWORD PTR [edx+4], ecx
  0003e	80 78 0d 00	 cmp	 BYTE PTR [eax+13], 0
  00042	74 df		 je	 SHORT $LL2@Find_lower
  00044	5e		 pop	 esi
$LN13@Find_lower:

; 1641 :             }
; 1642 :         }
; 1643 : 
; 1644 :         return _Result;
; 1645 :     }

  00045	8b c2		 mov	 eax, edx
  00047	5d		 pop	 ebp
  00048	c2 08 00	 ret	 8
??$_Find_lower_bound@K@?$_Tree@V?$_Tmap_traits@KPAVCGuild@@U?$less@K@std@@V?$allocator@U?$pair@$$CBKPAVCGuild@@@std@@@3@$0A@@std@@@std@@IBE?AU?$_Tree_find_result@PAU?$_Tree_node@U?$pair@$$CBKPAVCGuild@@@std@@PAX@std@@@1@ABK@Z ENDP ; std::_Tree<std::_Tmap_traits<unsigned long,CGuild *,std::less<unsigned long>,std::allocator<std::pair<unsigned long const ,CGuild *> >,0> >::_Find_lower_bound<unsigned long>
_TEXT	ENDS
; Function compile flags: /Ogtp
; File C:\Program Files\Microsoft Visual Studio\2022\Professional\VC\Tools\MSVC\14.44.35207\include\xmemory
;	COMDAT ??1?$_Tree_temp_node_alloc@V?$allocator@U?$_Tree_node@U?$pair@$$CBV?$basic_string@DU?$char_traits@D@std@@V?$allocator@D@2@@std@@PAVCGuild@@@std@@PAX@std@@@std@@@std@@QAE@XZ
_TEXT	SEGMENT
??1?$_Tree_temp_node_alloc@V?$allocator@U?$_Tree_node@U?$pair@$$CBV?$basic_string@DU?$char_traits@D@std@@V?$allocator@D@2@@std@@PAVCGuild@@@std@@PAX@std@@@std@@@std@@QAE@XZ PROC ; std::_Tree_temp_node_alloc<std::allocator<std::_Tree_node<std::pair<std::basic_string<char,std::char_traits<char>,std::allocator<char> > const ,CGuild *>,void *> > >::~_Tree_temp_node_alloc<std::allocator<std::_Tree_node<std::pair<std::basic_string<char,std::char_traits<char>,std::allocator<char> > const ,CGuild *>,void *> > >, COMDAT
; _this$ = ecx

; 1172 :         if (_Ptr) {

  00000	8b 41 04	 mov	 eax, DWORD PTR [ecx+4]
  00003	85 c0		 test	 eax, eax
  00005	74 0b		 je	 SHORT $LN13@Tree_temp_

; 289  :         ::operator delete(_Ptr, _Bytes);

  00007	6a 2c		 push	 44			; 0000002cH
  00009	50		 push	 eax
  0000a	e8 00 00 00 00	 call	 ??3@YAXPAXI@Z		; operator delete
  0000f	83 c4 08	 add	 esp, 8
$LN13@Tree_temp_:
  00012	c3		 ret	 0
??1?$_Tree_temp_node_alloc@V?$allocator@U?$_Tree_node@U?$pair@$$CBV?$basic_string@DU?$char_traits@D@std@@V?$allocator@D@2@@std@@PAVCGuild@@@std@@PAX@std@@@std@@@std@@QAE@XZ ENDP ; std::_Tree_temp_node_alloc<std::allocator<std::_Tree_node<std::pair<std::basic_string<char,std::char_traits<char>,std::allocator<char> > const ,CGuild *>,void *> > >::~_Tree_temp_node_alloc<std::allocator<std::_Tree_node<std::pair<std::basic_string<char,std::char_traits<char>,std::allocator<char> > const ,CGuild *>,void *> > >
_TEXT	ENDS
; Function compile flags: /Ogtp
; File C:\Program Files\Microsoft Visual Studio\2022\Professional\VC\Tools\MSVC\14.44.35207\include\xmemory
;	COMDAT ??1?$_Alloc_construct_ptr@V?$allocator@U?$_Tree_node@U?$pair@$$CBV?$basic_string@DU?$char_traits@D@std@@V?$allocator@D@2@@std@@PAVCGuild@@@std@@PAX@std@@@std@@@std@@QAE@XZ
_TEXT	SEGMENT
??1?$_Alloc_construct_ptr@V?$allocator@U?$_Tree_node@U?$pair@$$CBV?$basic_string@DU?$char_traits@D@std@@V?$allocator@D@2@@std@@PAVCGuild@@@std@@PAX@std@@@std@@@std@@QAE@XZ PROC ; std::_Alloc_construct_ptr<std::allocator<std::_Tree_node<std::pair<std::basic_string<char,std::char_traits<char>,std::allocator<char> > const ,CGuild *>,void *> > >::~_Alloc_construct_ptr<std::allocator<std::_Tree_node<std::pair<std::basic_string<char,std::char_traits<char>,std::allocator<char> > const ,CGuild *>,void *> > >, COMDAT
; _this$ = ecx

; 1172 :         if (_Ptr) {

  00000	8b 41 04	 mov	 eax, DWORD PTR [ecx+4]
  00003	85 c0		 test	 eax, eax
  00005	74 0b		 je	 SHORT $LN10@Alloc_cons

; 289  :         ::operator delete(_Ptr, _Bytes);

  00007	6a 2c		 push	 44			; 0000002cH
  00009	50		 push	 eax
  0000a	e8 00 00 00 00	 call	 ??3@YAXPAXI@Z		; operator delete
  0000f	83 c4 08	 add	 esp, 8
$LN10@Alloc_cons:

; 1173 :             _Al.deallocate(_Ptr, 1);
; 1174 :         }
; 1175 :     }

  00012	c3		 ret	 0
??1?$_Alloc_construct_ptr@V?$allocator@U?$_Tree_node@U?$pair@$$CBV?$basic_string@DU?$char_traits@D@std@@V?$allocator@D@2@@std@@PAVCGuild@@@std@@PAX@std@@@std@@@std@@QAE@XZ ENDP ; std::_Alloc_construct_ptr<std::allocator<std::_Tree_node<std::pair<std::basic_string<char,std::char_traits<char>,std::allocator<char> > const ,CGuild *>,void *> > >::~_Alloc_construct_ptr<std::allocator<std::_Tree_node<std::pair<std::basic_string<char,std::char_traits<char>,std::allocator<char> > const ,CGuild *>,void *> > >
_TEXT	ENDS
; Function compile flags: /Ogtp
; File C:\Program Files\Microsoft Visual Studio\2022\Professional\VC\Tools\MSVC\14.44.35207\include\xtree
; File C:\Program Files\Microsoft Visual Studio\2022\Professional\VC\Tools\MSVC\14.44.35207\include\type_traits
; File C:\Program Files\Microsoft Visual Studio\2022\Professional\VC\Tools\MSVC\14.44.35207\include\xtree
;	COMDAT ??$_Find_lower_bound@V?$basic_string@DU?$char_traits@D@std@@V?$allocator@D@2@@std@@@?$_Tree@V?$_Tmap_traits@V?$basic_string@DU?$char_traits@D@std@@V?$allocator@D@2@@std@@PAVCGuild@@U?$less@V?$basic_string@DU?$char_traits@D@std@@V?$allocator@D@2@@std@@@2@V?$allocator@U?$pair@$$CBV?$basic_string@DU?$char_traits@D@std@@V?$allocator@D@2@@std@@PAVCGuild@@@std@@@2@$0A@@std@@@std@@IBE?AU?$_Tree_find_result@PAU?$_Tree_node@U?$pair@$$CBV?$basic_string@DU?$char_traits@D@std@@V?$allocator@D@2@@std@@PAVCGuild@@@std@@PAX@std@@@1@ABV?$basic_string@DU?$char_traits@D@std@@V?$allocator@D@2@@1@@Z
_TEXT	SEGMENT
___$ReturnUdt$ = 8					; size = 4
__Keyval$ = 12						; size = 4
??$_Find_lower_bound@V?$basic_string@DU?$char_traits@D@std@@V?$allocator@D@2@@std@@@?$_Tree@V?$_Tmap_traits@V?$basic_string@DU?$char_traits@D@std@@V?$allocator@D@2@@std@@PAVCGuild@@U?$less@V?$basic_string@DU?$char_traits@D@std@@V?$allocator@D@2@@std@@@2@V?$allocator@U?$pair@$$CBV?$basic_string@DU?$char_traits@D@std@@V?$allocator@D@2@@std@@PAVCGuild@@@std@@@2@$0A@@std@@@std@@IBE?AU?$_Tree_find_result@PAU?$_Tree_node@U?$pair@$$CBV?$basic_string@DU?$char_traits@D@std@@V?$allocator@D@2@@std@@PAVCGuild@@@std@@PAX@std@@@1@ABV?$basic_string@DU?$char_traits@D@std@@V?$allocator@D@2@@1@@Z PROC ; std::_Tree<std::_Tmap_traits<std::basic_string<char,std::char_traits<char>,std::allocator<char> >,CGuild *,std::less<std::basic_string<char,std::char_traits<char>,std::allocator<char> > >,std::allocator<std::pair<std::basic_string<char,std::char_traits<char>,std::allocator<char> > const ,CGuild *> >,0> >::_Find_lower_bound<std::basic_string<char,std::char_traits<char>,std::allocator<char> > >, COMDAT
; _this$ = ecx

; 1628 :     _Tree_find_result<_Nodeptr> _Find_lower_bound(const _Keyty& _Keyval) const {

  00000	55		 push	 ebp
  00001	8b ec		 mov	 ebp, esp

; 1629 :         const auto _Scary = _Get_scary();
; 1630 :         _Tree_find_result<_Nodeptr> _Result{{_Scary->_Myhead->_Parent, _Tree_child::_Right}, _Scary->_Myhead};

  00003	8b 01		 mov	 eax, DWORD PTR [ecx]
  00005	56		 push	 esi
  00006	57		 push	 edi
  00007	8b 7d 08	 mov	 edi, DWORD PTR ___$ReturnUdt$[ebp]
  0000a	8b 70 04	 mov	 esi, DWORD PTR [eax+4]
  0000d	89 37		 mov	 DWORD PTR [edi], esi

; 1631 :         _Nodeptr _Trynode = _Result._Location._Parent;
; 1632 :         while (!_Trynode->_Isnil) {

  0000f	80 7e 0d 00	 cmp	 BYTE PTR [esi+13], 0
  00013	c7 47 04 00 00
	00 00		 mov	 DWORD PTR [edi+4], 0
  0001a	89 47 08	 mov	 DWORD PTR [edi+8], eax
  0001d	75 32		 jne	 SHORT $LN13@Find_lower
  0001f	53		 push	 ebx
  00020	8b 5d 0c	 mov	 ebx, DWORD PTR __Keyval$[ebp]
$LL2@Find_lower:

; 1634 :             if (_DEBUG_LT_PRED(_Getcomp(), _Traits::_Kfn(_Trynode->_Myval), _Keyval)) {

  00023	8d 46 10	 lea	 eax, DWORD PTR [esi+16]
  00026	89 37		 mov	 DWORD PTR [edi], esi
; File C:\Program Files\Microsoft Visual Studio\2022\Professional\VC\Tools\MSVC\14.44.35207\include\type_traits

; 2380 :         return _Left < _Right;

  00028	53		 push	 ebx
  00029	50		 push	 eax
  0002a	e8 00 00 00 00	 call	 ??$?MDU?$char_traits@D@std@@V?$allocator@D@1@@std@@YA_NABV?$basic_string@DU?$char_traits@D@std@@V?$allocator@D@2@@0@0@Z ; std::operator<<char,std::char_traits<char>,std::allocator<char> >
  0002f	83 c4 08	 add	 esp, 8
; File C:\Program Files\Microsoft Visual Studio\2022\Professional\VC\Tools\MSVC\14.44.35207\include\xtree

; 1634 :             if (_DEBUG_LT_PRED(_Getcomp(), _Traits::_Kfn(_Trynode->_Myval), _Keyval)) {

  00032	84 c0		 test	 al, al
  00034	74 07		 je	 SHORT $LN4@Find_lower

; 1635 :                 _Result._Location._Child = _Tree_child::_Right;
; 1636 :                 _Trynode                 = _Trynode->_Right;

  00036	8b 76 08	 mov	 esi, DWORD PTR [esi+8]
  00039	33 c0		 xor	 eax, eax

; 1637 :             } else {

  0003b	eb 0a		 jmp	 SHORT $LN5@Find_lower
$LN4@Find_lower:

; 1638 :                 _Result._Location._Child = _Tree_child::_Left;
; 1639 :                 _Result._Bound           = _Trynode;

  0003d	89 77 08	 mov	 DWORD PTR [edi+8], esi

; 1640 :                 _Trynode                 = _Trynode->_Left;

  00040	b8 01 00 00 00	 mov	 eax, 1
  00045	8b 36		 mov	 esi, DWORD PTR [esi]
$LN5@Find_lower:

; 1631 :         _Nodeptr _Trynode = _Result._Location._Parent;
; 1632 :         while (!_Trynode->_Isnil) {

  00047	89 47 04	 mov	 DWORD PTR [edi+4], eax
  0004a	80 7e 0d 00	 cmp	 BYTE PTR [esi+13], 0
  0004e	74 d3		 je	 SHORT $LL2@Find_lower
  00050	5b		 pop	 ebx
$LN13@Find_lower:

; 1641 :             }
; 1642 :         }
; 1643 : 
; 1644 :         return _Result;
; 1645 :     }

  00051	8b c7		 mov	 eax, edi
  00053	5f		 pop	 edi
  00054	5e		 pop	 esi
  00055	5d		 pop	 ebp
  00056	c2 08 00	 ret	 8
??$_Find_lower_bound@V?$basic_string@DU?$char_traits@D@std@@V?$allocator@D@2@@std@@@?$_Tree@V?$_Tmap_traits@V?$basic_string@DU?$char_traits@D@std@@V?$allocator@D@2@@std@@PAVCGuild@@U?$less@V?$basic_string@DU?$char_traits@D@std@@V?$allocator@D@2@@std@@@2@V?$allocator@U?$pair@$$CBV?$basic_string@DU?$char_traits@D@std@@V?$allocator@D@2@@std@@PAVCGuild@@@std@@@2@$0A@@std@@@std@@IBE?AU?$_Tree_find_result@PAU?$_Tree_node@U?$pair@$$CBV?$basic_string@DU?$char_traits@D@std@@V?$allocator@D@2@@std@@PAVCGuild@@@std@@PAX@std@@@1@ABV?$basic_string@DU?$char_traits@D@std@@V?$allocator@D@2@@1@@Z ENDP ; std::_Tree<std::_Tmap_traits<std::basic_string<char,std::char_traits<char>,std::allocator<char> >,CGuild *,std::less<std::basic_string<char,std::char_traits<char>,std::allocator<char> > >,std::allocator<std::pair<std::basic_string<char,std::char_traits<char>,std::allocator<char> > const ,CGuild *> >,0> >::_Find_lower_bound<std::basic_string<char,std::char_traits<char>,std::allocator<char> > >
_TEXT	ENDS
; Function compile flags: /Ogtp
; File C:\Program Files\Microsoft Visual Studio\2022\Professional\VC\Tools\MSVC\14.44.35207\include\xmemory
;	COMDAT ??1?$_Alloc_construct_ptr@V?$allocator@U?$_Tree_node@U?$pair@$$CBKPAVCGuildMember@@@std@@PAX@std@@@std@@@std@@QAE@XZ
_TEXT	SEGMENT
??1?$_Alloc_construct_ptr@V?$allocator@U?$_Tree_node@U?$pair@$$CBKPAVCGuildMember@@@std@@PAX@std@@@std@@@std@@QAE@XZ PROC ; std::_Alloc_construct_ptr<std::allocator<std::_Tree_node<std::pair<unsigned long const ,CGuildMember *>,void *> > >::~_Alloc_construct_ptr<std::allocator<std::_Tree_node<std::pair<unsigned long const ,CGuildMember *>,void *> > >, COMDAT
; _this$ = ecx

; 1172 :         if (_Ptr) {

  00000	8b 41 04	 mov	 eax, DWORD PTR [ecx+4]
  00003	85 c0		 test	 eax, eax
  00005	74 0b		 je	 SHORT $LN10@Alloc_cons

; 289  :         ::operator delete(_Ptr, _Bytes);

  00007	6a 18		 push	 24			; 00000018H
  00009	50		 push	 eax
  0000a	e8 00 00 00 00	 call	 ??3@YAXPAXI@Z		; operator delete
  0000f	83 c4 08	 add	 esp, 8
$LN10@Alloc_cons:

; 1173 :             _Al.deallocate(_Ptr, 1);
; 1174 :         }
; 1175 :     }

  00012	c3		 ret	 0
??1?$_Alloc_construct_ptr@V?$allocator@U?$_Tree_node@U?$pair@$$CBKPAVCGuildMember@@@std@@PAX@std@@@std@@@std@@QAE@XZ ENDP ; std::_Alloc_construct_ptr<std::allocator<std::_Tree_node<std::pair<unsigned long const ,CGuildMember *>,void *> > >::~_Alloc_construct_ptr<std::allocator<std::_Tree_node<std::pair<unsigned long const ,CGuildMember *>,void *> > >
_TEXT	ENDS
; Function compile flags: /Ogtp
; File C:\Program Files\Microsoft Visual Studio\2022\Professional\VC\Tools\MSVC\14.44.35207\include\xtree
; File C:\Program Files\Microsoft Visual Studio\2022\Professional\VC\Tools\MSVC\14.44.35207\include\type_traits
; File C:\Program Files\Microsoft Visual Studio\2022\Professional\VC\Tools\MSVC\14.44.35207\include\xtree
; File C:\Program Files\Microsoft Visual Studio\2022\Professional\VC\Tools\MSVC\14.44.35207\include\type_traits
; File C:\Program Files\Microsoft Visual Studio\2022\Professional\VC\Tools\MSVC\14.44.35207\include\xtree
;	COMDAT ??$_Find_lower_bound@K@?$_Tree@V?$_Tmap_traits@KPAVCGuildMember@@U?$less@K@std@@V?$allocator@U?$pair@$$CBKPAVCGuildMember@@@std@@@3@$0A@@std@@@std@@IBE?AU?$_Tree_find_result@PAU?$_Tree_node@U?$pair@$$CBKPAVCGuildMember@@@std@@PAX@std@@@1@ABK@Z
_TEXT	SEGMENT
___$ReturnUdt$ = 8					; size = 4
__Keyval$ = 12						; size = 4
??$_Find_lower_bound@K@?$_Tree@V?$_Tmap_traits@KPAVCGuildMember@@U?$less@K@std@@V?$allocator@U?$pair@$$CBKPAVCGuildMember@@@std@@@3@$0A@@std@@@std@@IBE?AU?$_Tree_find_result@PAU?$_Tree_node@U?$pair@$$CBKPAVCGuildMember@@@std@@PAX@std@@@1@ABK@Z PROC ; std::_Tree<std::_Tmap_traits<unsigned long,CGuildMember *,std::less<unsigned long>,std::allocator<std::pair<unsigned long const ,CGuildMember *> >,0> >::_Find_lower_bound<unsigned long>, COMDAT
; _this$ = ecx

; 1628 :     _Tree_find_result<_Nodeptr> _Find_lower_bound(const _Keyty& _Keyval) const {

  00000	55		 push	 ebp
  00001	8b ec		 mov	 ebp, esp

; 1629 :         const auto _Scary = _Get_scary();
; 1630 :         _Tree_find_result<_Nodeptr> _Result{{_Scary->_Myhead->_Parent, _Tree_child::_Right}, _Scary->_Myhead};

  00003	8b 09		 mov	 ecx, DWORD PTR [ecx]
  00005	8b 55 08	 mov	 edx, DWORD PTR ___$ReturnUdt$[ebp]
  00008	8b 41 04	 mov	 eax, DWORD PTR [ecx+4]
  0000b	89 02		 mov	 DWORD PTR [edx], eax
  0000d	c7 42 04 00 00
	00 00		 mov	 DWORD PTR [edx+4], 0
  00014	89 4a 08	 mov	 DWORD PTR [edx+8], ecx

; 1631 :         _Nodeptr _Trynode = _Result._Location._Parent;
; 1632 :         while (!_Trynode->_Isnil) {

  00017	80 78 0d 00	 cmp	 BYTE PTR [eax+13], 0
  0001b	75 28		 jne	 SHORT $LN13@Find_lower
; File C:\Program Files\Microsoft Visual Studio\2022\Professional\VC\Tools\MSVC\14.44.35207\include\type_traits

; 2380 :         return _Left < _Right;

  0001d	8b 4d 0c	 mov	 ecx, DWORD PTR __Keyval$[ebp]
  00020	56		 push	 esi
  00021	8b 31		 mov	 esi, DWORD PTR [ecx]
$LL2@Find_lower:
; File C:\Program Files\Microsoft Visual Studio\2022\Professional\VC\Tools\MSVC\14.44.35207\include\xtree

; 1633 :             _Result._Location._Parent = _Trynode;

  00023	89 02		 mov	 DWORD PTR [edx], eax
; File C:\Program Files\Microsoft Visual Studio\2022\Professional\VC\Tools\MSVC\14.44.35207\include\type_traits

; 2380 :         return _Left < _Right;

  00025	39 70 10	 cmp	 DWORD PTR [eax+16], esi
; File C:\Program Files\Microsoft Visual Studio\2022\Professional\VC\Tools\MSVC\14.44.35207\include\xtree

; 1634 :             if (_DEBUG_LT_PRED(_Getcomp(), _Traits::_Kfn(_Trynode->_Myval), _Keyval)) {

  00028	73 07		 jae	 SHORT $LN4@Find_lower

; 1635 :                 _Result._Location._Child = _Tree_child::_Right;
; 1636 :                 _Trynode                 = _Trynode->_Right;

  0002a	8b 40 08	 mov	 eax, DWORD PTR [eax+8]
  0002d	33 c9		 xor	 ecx, ecx

; 1637 :             } else {

  0002f	eb 0a		 jmp	 SHORT $LN5@Find_lower
$LN4@Find_lower:

; 1638 :                 _Result._Location._Child = _Tree_child::_Left;
; 1639 :                 _Result._Bound           = _Trynode;

  00031	89 42 08	 mov	 DWORD PTR [edx+8], eax

; 1640 :                 _Trynode                 = _Trynode->_Left;

  00034	b9 01 00 00 00	 mov	 ecx, 1
  00039	8b 00		 mov	 eax, DWORD PTR [eax]
$LN5@Find_lower:

; 1631 :         _Nodeptr _Trynode = _Result._Location._Parent;
; 1632 :         while (!_Trynode->_Isnil) {

  0003b	89 4a 04	 mov	 DWORD PTR [edx+4], ecx
  0003e	80 78 0d 00	 cmp	 BYTE PTR [eax+13], 0
  00042	74 df		 je	 SHORT $LL2@Find_lower
  00044	5e		 pop	 esi
$LN13@Find_lower:

; 1641 :             }
; 1642 :         }
; 1643 : 
; 1644 :         return _Result;
; 1645 :     }

  00045	8b c2		 mov	 eax, edx
  00047	5d		 pop	 ebp
  00048	c2 08 00	 ret	 8
??$_Find_lower_bound@K@?$_Tree@V?$_Tmap_traits@KPAVCGuildMember@@U?$less@K@std@@V?$allocator@U?$pair@$$CBKPAVCGuildMember@@@std@@@3@$0A@@std@@@std@@IBE?AU?$_Tree_find_result@PAU?$_Tree_node@U?$pair@$$CBKPAVCGuildMember@@@std@@PAX@std@@@1@ABK@Z ENDP ; std::_Tree<std::_Tmap_traits<unsigned long,CGuildMember *,std::less<unsigned long>,std::allocator<std::pair<unsigned long const ,CGuildMember *> >,0> >::_Find_lower_bound<unsigned long>
_TEXT	ENDS
; Function compile flags: /Ogtp
; File C:\Program Files\Microsoft Visual Studio\2022\Professional\VC\Tools\MSVC\14.44.35207\include\xtree
; File C:\Program Files\Microsoft Visual Studio\2022\Professional\VC\Tools\MSVC\14.44.35207\include\utility
; File C:\Program Files\Microsoft Visual Studio\2022\Professional\VC\Tools\MSVC\14.44.35207\include\xmemory
; File C:\Program Files\Microsoft Visual Studio\2022\Professional\VC\Tools\MSVC\14.44.35207\include\xtree
;	COMDAT ??$_Erase_tree@V?$allocator@U?$_Tree_node@U?$pair@$$CBKPAVCGuildMember@@@std@@PAX@std@@@std@@@?$_Tree_val@U?$_Tree_simple_types@U?$pair@$$CBKPAVCGuildMember@@@std@@@std@@@std@@QAEXAAV?$allocator@U?$_Tree_node@U?$pair@$$CBKPAVCGuildMember@@@std@@PAX@std@@@1@PAU?$_Tree_node@U?$pair@$$CBKPAVCGuildMember@@@std@@PAX@1@@Z
_TEXT	SEGMENT
__Al$ = 8						; size = 4
__Rootnode$ = 12					; size = 4
??$_Erase_tree@V?$allocator@U?$_Tree_node@U?$pair@$$CBKPAVCGuildMember@@@std@@PAX@std@@@std@@@?$_Tree_val@U?$_Tree_simple_types@U?$pair@$$CBKPAVCGuildMember@@@std@@@std@@@std@@QAEXAAV?$allocator@U?$_Tree_node@U?$pair@$$CBKPAVCGuildMember@@@std@@PAX@std@@@1@PAU?$_Tree_node@U?$pair@$$CBKPAVCGuildMember@@@std@@PAX@1@@Z PROC ; std::_Tree_val<std::_Tree_simple_types<std::pair<unsigned long const ,CGuildMember *> > >::_Erase_tree<std::allocator<std::_Tree_node<std::pair<unsigned long const ,CGuildMember *>,void *> > >, COMDAT
; _this$ = ecx

; 767  :     void _Erase_tree(_Alnode& _Al, _Nodeptr _Rootnode) noexcept {

  00000	55		 push	 ebp
  00001	8b ec		 mov	 ebp, esp
  00003	53		 push	 ebx
  00004	56		 push	 esi

; 768  :         while (!_Rootnode->_Isnil) { // free subtrees, then node

  00005	8b 75 0c	 mov	 esi, DWORD PTR __Rootnode$[ebp]
  00008	8b d9		 mov	 ebx, ecx
  0000a	80 7e 0d 00	 cmp	 BYTE PTR [esi+13], 0
  0000e	75 25		 jne	 SHORT $LN34@Erase_tree
  00010	57		 push	 edi
  00011	8b 7d 08	 mov	 edi, DWORD PTR __Al$[ebp]
$LL2@Erase_tree:

; 769  :             _Erase_tree(_Al, _Rootnode->_Right);

  00014	ff 76 08	 push	 DWORD PTR [esi+8]
  00017	8b cb		 mov	 ecx, ebx
  00019	57		 push	 edi
  0001a	e8 00 00 00 00	 call	 ??$_Erase_tree@V?$allocator@U?$_Tree_node@U?$pair@$$CBKPAVCGuildMember@@@std@@PAX@std@@@std@@@?$_Tree_val@U?$_Tree_simple_types@U?$pair@$$CBKPAVCGuildMember@@@std@@@std@@@std@@QAEXAAV?$allocator@U?$_Tree_node@U?$pair@$$CBKPAVCGuildMember@@@std@@PAX@std@@@1@PAU?$_Tree_node@U?$pair@$$CBKPAVCGuildMember@@@std@@PAX@1@@Z ; std::_Tree_val<std::_Tree_simple_types<std::pair<unsigned long const ,CGuildMember *> > >::_Erase_tree<std::allocator<std::_Tree_node<std::pair<unsigned long const ,CGuildMember *>,void *> > >
; File C:\Program Files\Microsoft Visual Studio\2022\Professional\VC\Tools\MSVC\14.44.35207\include\utility

; 773  :     _Ty _Old_val = static_cast<_Ty&&>(_Val);

  0001f	8b c6		 mov	 eax, esi

; 774  :     _Val         = static_cast<_Other&&>(_New_val);

  00021	8b 36		 mov	 esi, DWORD PTR [esi]
; File C:\Program Files\Microsoft Visual Studio\2022\Professional\VC\Tools\MSVC\14.44.35207\include\xmemory

; 289  :         ::operator delete(_Ptr, _Bytes);

  00023	6a 18		 push	 24			; 00000018H
  00025	50		 push	 eax
  00026	e8 00 00 00 00	 call	 ??3@YAXPAXI@Z		; operator delete
  0002b	83 c4 08	 add	 esp, 8
; File C:\Program Files\Microsoft Visual Studio\2022\Professional\VC\Tools\MSVC\14.44.35207\include\xtree

; 768  :         while (!_Rootnode->_Isnil) { // free subtrees, then node

  0002e	80 7e 0d 00	 cmp	 BYTE PTR [esi+13], 0
  00032	74 e0		 je	 SHORT $LL2@Erase_tree
  00034	5f		 pop	 edi
$LN34@Erase_tree:
  00035	5e		 pop	 esi

; 770  :             _Alnode::value_type::_Freenode(_Al, _STD exchange(_Rootnode, _Rootnode->_Left));
; 771  :         }
; 772  :     }

  00036	5b		 pop	 ebx
  00037	5d		 pop	 ebp
  00038	c2 08 00	 ret	 8
??$_Erase_tree@V?$allocator@U?$_Tree_node@U?$pair@$$CBKPAVCGuildMember@@@std@@PAX@std@@@std@@@?$_Tree_val@U?$_Tree_simple_types@U?$pair@$$CBKPAVCGuildMember@@@std@@@std@@@std@@QAEXAAV?$allocator@U?$_Tree_node@U?$pair@$$CBKPAVCGuildMember@@@std@@PAX@std@@@1@PAU?$_Tree_node@U?$pair@$$CBKPAVCGuildMember@@@std@@PAX@1@@Z ENDP ; std::_Tree_val<std::_Tree_simple_types<std::pair<unsigned long const ,CGuildMember *> > >::_Erase_tree<std::allocator<std::_Tree_node<std::pair<unsigned long const ,CGuildMember *>,void *> > >
_TEXT	ENDS
; Function compile flags: /Ogtp
; File C:\Program Files\Microsoft Visual Studio\2022\Professional\VC\Tools\MSVC\14.44.35207\include\xtree
; File C:\Program Files\Microsoft Visual Studio\2022\Professional\VC\Tools\MSVC\14.44.35207\include\utility
; File C:\Program Files\Microsoft Visual Studio\2022\Professional\VC\Tools\MSVC\14.44.35207\include\xmemory
; File C:\Program Files\Microsoft Visual Studio\2022\Professional\VC\Tools\MSVC\14.44.35207\include\xtree
;	COMDAT ??$_Erase_tree@V?$allocator@U?$_Tree_node@U?$pair@$$CBKPAVCGuild@@@std@@PAX@std@@@std@@@?$_Tree_val@U?$_Tree_simple_types@U?$pair@$$CBKPAVCGuild@@@std@@@std@@@std@@QAEXAAV?$allocator@U?$_Tree_node@U?$pair@$$CBKPAVCGuild@@@std@@PAX@std@@@1@PAU?$_Tree_node@U?$pair@$$CBKPAVCGuild@@@std@@PAX@1@@Z
_TEXT	SEGMENT
__Al$ = 8						; size = 4
__Rootnode$ = 12					; size = 4
??$_Erase_tree@V?$allocator@U?$_Tree_node@U?$pair@$$CBKPAVCGuild@@@std@@PAX@std@@@std@@@?$_Tree_val@U?$_Tree_simple_types@U?$pair@$$CBKPAVCGuild@@@std@@@std@@@std@@QAEXAAV?$allocator@U?$_Tree_node@U?$pair@$$CBKPAVCGuild@@@std@@PAX@std@@@1@PAU?$_Tree_node@U?$pair@$$CBKPAVCGuild@@@std@@PAX@1@@Z PROC ; std::_Tree_val<std::_Tree_simple_types<std::pair<unsigned long const ,CGuild *> > >::_Erase_tree<std::allocator<std::_Tree_node<std::pair<unsigned long const ,CGuild *>,void *> > >, COMDAT
; _this$ = ecx

; 767  :     void _Erase_tree(_Alnode& _Al, _Nodeptr _Rootnode) noexcept {

  00000	55		 push	 ebp
  00001	8b ec		 mov	 ebp, esp
  00003	53		 push	 ebx
  00004	56		 push	 esi

; 768  :         while (!_Rootnode->_Isnil) { // free subtrees, then node

  00005	8b 75 0c	 mov	 esi, DWORD PTR __Rootnode$[ebp]
  00008	8b d9		 mov	 ebx, ecx
  0000a	80 7e 0d 00	 cmp	 BYTE PTR [esi+13], 0
  0000e	75 25		 jne	 SHORT $LN34@Erase_tree
  00010	57		 push	 edi
  00011	8b 7d 08	 mov	 edi, DWORD PTR __Al$[ebp]
$LL2@Erase_tree:

; 769  :             _Erase_tree(_Al, _Rootnode->_Right);

  00014	ff 76 08	 push	 DWORD PTR [esi+8]
  00017	8b cb		 mov	 ecx, ebx
  00019	57		 push	 edi
  0001a	e8 00 00 00 00	 call	 ??$_Erase_tree@V?$allocator@U?$_Tree_node@U?$pair@$$CBKPAVCGuild@@@std@@PAX@std@@@std@@@?$_Tree_val@U?$_Tree_simple_types@U?$pair@$$CBKPAVCGuild@@@std@@@std@@@std@@QAEXAAV?$allocator@U?$_Tree_node@U?$pair@$$CBKPAVCGuild@@@std@@PAX@std@@@1@PAU?$_Tree_node@U?$pair@$$CBKPAVCGuild@@@std@@PAX@1@@Z ; std::_Tree_val<std::_Tree_simple_types<std::pair<unsigned long const ,CGuild *> > >::_Erase_tree<std::allocator<std::_Tree_node<std::pair<unsigned long const ,CGuild *>,void *> > >
; File C:\Program Files\Microsoft Visual Studio\2022\Professional\VC\Tools\MSVC\14.44.35207\include\utility

; 773  :     _Ty _Old_val = static_cast<_Ty&&>(_Val);

  0001f	8b c6		 mov	 eax, esi

; 774  :     _Val         = static_cast<_Other&&>(_New_val);

  00021	8b 36		 mov	 esi, DWORD PTR [esi]
; File C:\Program Files\Microsoft Visual Studio\2022\Professional\VC\Tools\MSVC\14.44.35207\include\xmemory

; 289  :         ::operator delete(_Ptr, _Bytes);

  00023	6a 18		 push	 24			; 00000018H
  00025	50		 push	 eax
  00026	e8 00 00 00 00	 call	 ??3@YAXPAXI@Z		; operator delete
  0002b	83 c4 08	 add	 esp, 8
; File C:\Program Files\Microsoft Visual Studio\2022\Professional\VC\Tools\MSVC\14.44.35207\include\xtree

; 768  :         while (!_Rootnode->_Isnil) { // free subtrees, then node

  0002e	80 7e 0d 00	 cmp	 BYTE PTR [esi+13], 0
  00032	74 e0		 je	 SHORT $LL2@Erase_tree
  00034	5f		 pop	 edi
$LN34@Erase_tree:
  00035	5e		 pop	 esi

; 770  :             _Alnode::value_type::_Freenode(_Al, _STD exchange(_Rootnode, _Rootnode->_Left));
; 771  :         }
; 772  :     }

  00036	5b		 pop	 ebx
  00037	5d		 pop	 ebp
  00038	c2 08 00	 ret	 8
??$_Erase_tree@V?$allocator@U?$_Tree_node@U?$pair@$$CBKPAVCGuild@@@std@@PAX@std@@@std@@@?$_Tree_val@U?$_Tree_simple_types@U?$pair@$$CBKPAVCGuild@@@std@@@std@@@std@@QAEXAAV?$allocator@U?$_Tree_node@U?$pair@$$CBKPAVCGuild@@@std@@PAX@std@@@1@PAU?$_Tree_node@U?$pair@$$CBKPAVCGuild@@@std@@PAX@1@@Z ENDP ; std::_Tree_val<std::_Tree_simple_types<std::pair<unsigned long const ,CGuild *> > >::_Erase_tree<std::allocator<std::_Tree_node<std::pair<unsigned long const ,CGuild *>,void *> > >
_TEXT	ENDS
; Function compile flags: /Ogtp
; File C:\Program Files\Microsoft Visual Studio\2022\Professional\VC\Tools\MSVC\14.44.35207\include\xtree
; File C:\Program Files\Microsoft Visual Studio\2022\Professional\VC\Tools\MSVC\14.44.35207\include\utility
; File C:\Program Files\Microsoft Visual Studio\2022\Professional\VC\Tools\MSVC\14.44.35207\include\xtree
; File C:\Program Files\Microsoft Visual Studio\2022\Professional\VC\Tools\MSVC\14.44.35207\include\xmemory
; File C:\Program Files\Microsoft Visual Studio\2022\Professional\VC\Tools\MSVC\14.44.35207\include\xtree
; File C:\Program Files\Microsoft Visual Studio\2022\Professional\VC\Tools\MSVC\14.44.35207\include\xmemory
; File C:\Program Files\Microsoft Visual Studio\2022\Professional\VC\Tools\MSVC\14.44.35207\include\xtree
;	COMDAT ??$_Erase_tree@V?$allocator@U?$_Tree_node@U?$pair@$$CBV?$basic_string@DU?$char_traits@D@std@@V?$allocator@D@2@@std@@PAVCGuild@@@std@@PAX@std@@@std@@@?$_Tree_val@U?$_Tree_simple_types@U?$pair@$$CBV?$basic_string@DU?$char_traits@D@std@@V?$allocator@D@2@@std@@PAVCGuild@@@std@@@std@@@std@@QAEXAAV?$allocator@U?$_Tree_node@U?$pair@$$CBV?$basic_string@DU?$char_traits@D@std@@V?$allocator@D@2@@std@@PAVCGuild@@@std@@PAX@std@@@1@PAU?$_Tree_node@U?$pair@$$CBV?$basic_string@DU?$char_traits@D@std@@V?$allocator@D@2@@std@@PAVCGuild@@@std@@PAX@1@@Z
_TEXT	SEGMENT
_this$1$ = -4						; size = 4
__Al$ = 8						; size = 4
__Rootnode$ = 12					; size = 4
??$_Erase_tree@V?$allocator@U?$_Tree_node@U?$pair@$$CBV?$basic_string@DU?$char_traits@D@std@@V?$allocator@D@2@@std@@PAVCGuild@@@std@@PAX@std@@@std@@@?$_Tree_val@U?$_Tree_simple_types@U?$pair@$$CBV?$basic_string@DU?$char_traits@D@std@@V?$allocator@D@2@@std@@PAVCGuild@@@std@@@std@@@std@@QAEXAAV?$allocator@U?$_Tree_node@U?$pair@$$CBV?$basic_string@DU?$char_traits@D@std@@V?$allocator@D@2@@std@@PAVCGuild@@@std@@PAX@std@@@1@PAU?$_Tree_node@U?$pair@$$CBV?$basic_string@DU?$char_traits@D@std@@V?$allocator@D@2@@std@@PAVCGuild@@@std@@PAX@1@@Z PROC ; std::_Tree_val<std::_Tree_simple_types<std::pair<std::basic_string<char,std::char_traits<char>,std::allocator<char> > const ,CGuild *> > >::_Erase_tree<std::allocator<std::_Tree_node<std::pair<std::basic_string<char,std::char_traits<char>,std::allocator<char> > const ,CGuild *>,void *> > >, COMDAT
; _this$ = ecx

; 767  :     void _Erase_tree(_Alnode& _Al, _Nodeptr _Rootnode) noexcept {

  00000	55		 push	 ebp
  00001	8b ec		 mov	 ebp, esp
  00003	51		 push	 ecx
  00004	56		 push	 esi

; 768  :         while (!_Rootnode->_Isnil) { // free subtrees, then node

  00005	8b 75 0c	 mov	 esi, DWORD PTR __Rootnode$[ebp]
  00008	8b c1		 mov	 eax, ecx
  0000a	89 45 fc	 mov	 DWORD PTR _this$1$[ebp], eax
  0000d	80 7e 0d 00	 cmp	 BYTE PTR [esi+13], 0
  00011	75 32		 jne	 SHORT $LN45@Erase_tree
  00013	53		 push	 ebx
  00014	8b 5d 08	 mov	 ebx, DWORD PTR __Al$[ebp]
  00017	57		 push	 edi
$LL2@Erase_tree:

; 769  :             _Erase_tree(_Al, _Rootnode->_Right);

  00018	ff 76 08	 push	 DWORD PTR [esi+8]
  0001b	8b c8		 mov	 ecx, eax
  0001d	53		 push	 ebx
  0001e	e8 00 00 00 00	 call	 ??$_Erase_tree@V?$allocator@U?$_Tree_node@U?$pair@$$CBV?$basic_string@DU?$char_traits@D@std@@V?$allocator@D@2@@std@@PAVCGuild@@@std@@PAX@std@@@std@@@?$_Tree_val@U?$_Tree_simple_types@U?$pair@$$CBV?$basic_string@DU?$char_traits@D@std@@V?$allocator@D@2@@std@@PAVCGuild@@@std@@@std@@@std@@QAEXAAV?$allocator@U?$_Tree_node@U?$pair@$$CBV?$basic_string@DU?$char_traits@D@std@@V?$allocator@D@2@@std@@PAVCGuild@@@std@@PAX@std@@@1@PAU?$_Tree_node@U?$pair@$$CBV?$basic_string@DU?$char_traits@D@std@@V?$allocator@D@2@@std@@PAVCGuild@@@std@@PAX@1@@Z ; std::_Tree_val<std::_Tree_simple_types<std::pair<std::basic_string<char,std::char_traits<char>,std::allocator<char> > const ,CGuild *> > >::_Erase_tree<std::allocator<std::_Tree_node<std::pair<std::basic_string<char,std::char_traits<char>,std::allocator<char> > const ,CGuild *>,void *> > >
; File C:\Program Files\Microsoft Visual Studio\2022\Professional\VC\Tools\MSVC\14.44.35207\include\utility

; 773  :     _Ty _Old_val = static_cast<_Ty&&>(_Val);

  00023	8b fe		 mov	 edi, esi

; 774  :     _Val         = static_cast<_Other&&>(_New_val);

  00025	8b 36		 mov	 esi, DWORD PTR [esi]
; File C:\Program Files\Microsoft Visual Studio\2022\Professional\VC\Tools\MSVC\14.44.35207\include\xtree

; 381  :         allocator_traits<_Alloc>::destroy(_Al, _STD addressof(_Ptr->_Myval));

  00027	8d 4f 10	 lea	 ecx, DWORD PTR [edi+16]
  0002a	e8 00 00 00 00	 call	 ??1?$basic_string@DU?$char_traits@D@std@@V?$allocator@D@2@@std@@QAE@XZ ; std::basic_string<char,std::char_traits<char>,std::allocator<char> >::~basic_string<char,std::char_traits<char>,std::allocator<char> >
; File C:\Program Files\Microsoft Visual Studio\2022\Professional\VC\Tools\MSVC\14.44.35207\include\xmemory

; 289  :         ::operator delete(_Ptr, _Bytes);

  0002f	6a 2c		 push	 44			; 0000002cH
  00031	57		 push	 edi
  00032	e8 00 00 00 00	 call	 ??3@YAXPAXI@Z		; operator delete
; File C:\Program Files\Microsoft Visual Studio\2022\Professional\VC\Tools\MSVC\14.44.35207\include\xtree

; 768  :         while (!_Rootnode->_Isnil) { // free subtrees, then node

  00037	8b 45 fc	 mov	 eax, DWORD PTR _this$1$[ebp]
; File C:\Program Files\Microsoft Visual Studio\2022\Professional\VC\Tools\MSVC\14.44.35207\include\xmemory

; 289  :         ::operator delete(_Ptr, _Bytes);

  0003a	83 c4 08	 add	 esp, 8
; File C:\Program Files\Microsoft Visual Studio\2022\Professional\VC\Tools\MSVC\14.44.35207\include\xtree

; 768  :         while (!_Rootnode->_Isnil) { // free subtrees, then node

  0003d	80 7e 0d 00	 cmp	 BYTE PTR [esi+13], 0
  00041	74 d5		 je	 SHORT $LL2@Erase_tree
  00043	5f		 pop	 edi
  00044	5b		 pop	 ebx
$LN45@Erase_tree:
  00045	5e		 pop	 esi

; 770  :             _Alnode::value_type::_Freenode(_Al, _STD exchange(_Rootnode, _Rootnode->_Left));
; 771  :         }
; 772  :     }

  00046	8b e5		 mov	 esp, ebp
  00048	5d		 pop	 ebp
  00049	c2 08 00	 ret	 8
??$_Erase_tree@V?$allocator@U?$_Tree_node@U?$pair@$$CBV?$basic_string@DU?$char_traits@D@std@@V?$allocator@D@2@@std@@PAVCGuild@@@std@@PAX@std@@@std@@@?$_Tree_val@U?$_Tree_simple_types@U?$pair@$$CBV?$basic_string@DU?$char_traits@D@std@@V?$allocator@D@2@@std@@PAVCGuild@@@std@@@std@@@std@@QAEXAAV?$allocator@U?$_Tree_node@U?$pair@$$CBV?$basic_string@DU?$char_traits@D@std@@V?$allocator@D@2@@std@@PAVCGuild@@@std@@PAX@std@@@1@PAU?$_Tree_node@U?$pair@$$CBV?$basic_string@DU?$char_traits@D@std@@V?$allocator@D@2@@std@@PAVCGuild@@@std@@PAX@1@@Z ENDP ; std::_Tree_val<std::_Tree_simple_types<std::pair<std::basic_string<char,std::char_traits<char>,std::allocator<char> > const ,CGuild *> > >::_Erase_tree<std::allocator<std::_Tree_node<std::pair<std::basic_string<char,std::char_traits<char>,std::allocator<char> > const ,CGuild *>,void *> > >
_TEXT	ENDS
; Function compile flags: /Ogtp
; File C:\Program Files\Microsoft Visual Studio\2022\Professional\VC\Tools\MSVC\14.44.35207\include\xtree
; File C:\Program Files\Microsoft Visual Studio\2022\Professional\VC\Tools\MSVC\14.44.35207\include\type_traits
; File C:\Program Files\Microsoft Visual Studio\2022\Professional\VC\Tools\MSVC\14.44.35207\include\xtree
; File C:\Program Files\Microsoft Visual Studio\2022\Professional\VC\Tools\MSVC\14.44.35207\include\utility
; File C:\Program Files\Microsoft Visual Studio\2022\Professional\VC\Tools\MSVC\14.44.35207\include\xtree
; File C:\Program Files\Microsoft Visual Studio\2022\Professional\VC\Tools\MSVC\14.44.35207\include\xmemory
; File C:\Program Files\Microsoft Visual Studio\2022\Professional\VC\Tools\MSVC\14.44.35207\include\xtree
; File C:\Program Files\Microsoft Visual Studio\2022\Professional\VC\Tools\MSVC\14.44.35207\include\xmemory
; File C:\Program Files\Microsoft Visual Studio\2022\Professional\VC\Tools\MSVC\14.44.35207\include\xtree
; File C:\Program Files\Microsoft Visual Studio\2022\Professional\VC\Tools\MSVC\14.44.35207\include\xstring
; File C:\Program Files\Microsoft Visual Studio\2022\Professional\VC\Tools\MSVC\14.44.35207\include\__msvc_string_view.hpp
; File C:\Program Files\Microsoft Visual Studio\2022\Professional\VC\Tools\MSVC\14.44.35207\include\xstring
; File C:\Program Files\Microsoft Visual Studio\2022\Professional\VC\Tools\MSVC\14.44.35207\include\xmemory
; File C:\Program Files\Microsoft Visual Studio\2022\Professional\VC\Tools\MSVC\14.44.35207\include\xstring
; File C:\Program Files\Microsoft Visual Studio\2022\Professional\VC\Tools\MSVC\14.44.35207\include\xmemory
; File C:\Program Files\Microsoft Visual Studio\2022\Professional\VC\Tools\MSVC\14.44.35207\include\xstring
; File C:\Program Files\Microsoft Visual Studio\2022\Professional\VC\Tools\MSVC\14.44.35207\include\__msvc_string_view.hpp
; File C:\Program Files\Microsoft Visual Studio\2022\Professional\VC\Tools\MSVC\14.44.35207\include\xstring
; File C:\Program Files\Microsoft Visual Studio\2022\Professional\VC\Tools\MSVC\14.44.35207\include\__msvc_string_view.hpp
; File C:\Program Files\Microsoft Visual Studio\2022\Professional\VC\Tools\MSVC\14.44.35207\include\xstring
; File C:\Program Files\Microsoft Visual Studio\2022\Professional\VC\Tools\MSVC\14.44.35207\include\__msvc_string_view.hpp
; File C:\Program Files\Microsoft Visual Studio\2022\Professional\VC\Tools\MSVC\14.44.35207\include\utility
; File C:\Program Files\Microsoft Visual Studio\2022\Professional\VC\Tools\MSVC\14.44.35207\include\xtree
; File C:\Program Files\Microsoft Visual Studio\2022\Professional\VC\Tools\MSVC\14.44.35207\include\utility
; File C:\Program Files\Microsoft Visual Studio\2022\Professional\VC\Tools\MSVC\14.44.35207\include\xtree
; File C:\Program Files\Microsoft Visual Studio\2022\Professional\VC\Tools\MSVC\14.44.35207\include\utility
; File C:\Program Files\Microsoft Visual Studio\2022\Professional\VC\Tools\MSVC\14.44.35207\include\xtree
; File C:\Program Files\Microsoft Visual Studio\2022\Professional\VC\Tools\MSVC\14.44.35207\include\utility
; File C:\Program Files\Microsoft Visual Studio\2022\Professional\VC\Tools\MSVC\14.44.35207\include\xtree
; File C:\Program Files\Microsoft Visual Studio\2022\Professional\VC\Tools\MSVC\14.44.35207\include\xstring
; File C:\Program Files\Microsoft Visual Studio\2022\Professional\VC\Tools\MSVC\14.44.35207\include\xtree
;	COMDAT ??$_Emplace@U?$pair@$$CBV?$basic_string@DU?$char_traits@D@std@@V?$allocator@D@2@@std@@PAVCGuild@@@std@@@?$_Tree@V?$_Tmap_traits@V?$basic_string@DU?$char_traits@D@std@@V?$allocator@D@2@@std@@PAVCGuild@@U?$less@V?$basic_string@DU?$char_traits@D@std@@V?$allocator@D@2@@std@@@2@V?$allocator@U?$pair@$$CBV?$basic_string@DU?$char_traits@D@std@@V?$allocator@D@2@@std@@PAVCGuild@@@std@@@2@$0A@@std@@@std@@IAE?AU?$pair@PAU?$_Tree_node@U?$pair@$$CBV?$basic_string@DU?$char_traits@D@std@@V?$allocator@D@2@@std@@PAVCGuild@@@std@@PAX@std@@_N@1@$$QAU?$pair@$$CBV?$basic_string@DU?$char_traits@D@std@@V?$allocator@D@2@@std@@PAVCGuild@@@1@@Z
_TEXT	SEGMENT
__Loc$ = -52						; size = 12
$T2 = -40						; size = 12
$T3 = -36						; size = 8
__Myhead$1$ = -28					; size = 4
_this$1$ = -24						; size = 4
__Result$1$ = -20					; size = 4
__Count$1$ = -16					; size = 4
__$EHRec$ = -12						; size = 12
___$ReturnUdt$ = 8					; size = 4
_<_Vals_0>$ = 12					; size = 4
??$_Emplace@U?$pair@$$CBV?$basic_string@DU?$char_traits@D@std@@V?$allocator@D@2@@std@@PAVCGuild@@@std@@@?$_Tree@V?$_Tmap_traits@V?$basic_string@DU?$char_traits@D@std@@V?$allocator@D@2@@std@@PAVCGuild@@U?$less@V?$basic_string@DU?$char_traits@D@std@@V?$allocator@D@2@@std@@@2@V?$allocator@U?$pair@$$CBV?$basic_string@DU?$char_traits@D@std@@V?$allocator@D@2@@std@@PAVCGuild@@@std@@@2@$0A@@std@@@std@@IAE?AU?$pair@PAU?$_Tree_node@U?$pair@$$CBV?$basic_string@DU?$char_traits@D@std@@V?$allocator@D@2@@std@@PAVCGuild@@@std@@PAX@std@@_N@1@$$QAU?$pair@$$CBV?$basic_string@DU?$char_traits@D@std@@V?$allocator@D@2@@std@@PAVCGuild@@@1@@Z PROC ; std::_Tree<std::_Tmap_traits<std::basic_string<char,std::char_traits<char>,std::allocator<char> >,CGuild *,std::less<std::basic_string<char,std::char_traits<char>,std::allocator<char> > >,std::allocator<std::pair<std::basic_string<char,std::char_traits<char>,std::allocator<char> > const ,CGuild *> >,0> >::_Emplace<std::pair<std::basic_string<char,std::char_traits<char>,std::allocator<char> > const ,CGuild *> >, COMDAT
; _this$ = ecx

; 1010 :     pair<_Nodeptr, bool> _Emplace(_Valtys&&... _Vals) {

  00000	55		 push	 ebp
  00001	8b ec		 mov	 ebp, esp
  00003	6a ff		 push	 -1
  00005	68 00 00 00 00	 push	 __ehhandler$??$_Emplace@U?$pair@$$CBV?$basic_string@DU?$char_traits@D@std@@V?$allocator@D@2@@std@@PAVCGuild@@@std@@@?$_Tree@V?$_Tmap_traits@V?$basic_string@DU?$char_traits@D@std@@V?$allocator@D@2@@std@@PAVCGuild@@U?$less@V?$basic_string@DU?$char_traits@D@std@@V?$allocator@D@2@@std@@@2@V?$allocator@U?$pair@$$CBV?$basic_string@DU?$char_traits@D@std@@V?$allocator@D@2@@std@@PAVCGuild@@@std@@@2@$0A@@std@@@std@@IAE?AU?$pair@PAU?$_Tree_node@U?$pair@$$CBV?$basic_string@DU?$char_traits@D@std@@V?$allocator@D@2@@std@@PAVCGuild@@@std@@PAX@std@@_N@1@$$QAU?$pair@$$CBV?$basic_string@DU?$char_traits@D@std@@V?$allocator@D@2@@std@@PAVCGuild@@@1@@Z
  0000a	64 a1 00 00 00
	00		 mov	 eax, DWORD PTR fs:0
  00010	50		 push	 eax
  00011	83 ec 28	 sub	 esp, 40			; 00000028H
  00014	56		 push	 esi
  00015	57		 push	 edi
  00016	a1 00 00 00 00	 mov	 eax, DWORD PTR ___security_cookie
  0001b	33 c5		 xor	 eax, ebp
  0001d	50		 push	 eax
  0001e	8d 45 f4	 lea	 eax, DWORD PTR __$EHRec$[ebp]
  00021	64 a3 00 00 00
	00		 mov	 DWORD PTR fs:0, eax
  00027	89 4d e8	 mov	 DWORD PTR _this$1$[ebp], ecx

; 1011 :         using _In_place_key_extractor = typename _Traits::template _In_place_key_extractor<_Valtys...>;
; 1012 :         const auto _Scary             = _Get_scary();
; 1013 :         _Tree_find_result<_Nodeptr> _Loc;
; 1014 :         _Nodeptr _Inserted;
; 1015 :         if constexpr (!_Multi && _In_place_key_extractor::_Extractable) {
; 1016 :             const auto& _Keyval = _In_place_key_extractor::_Extract(_Vals...);
; 1017 :             _Loc                = _Find_lower_bound(_Keyval);

  0002a	8b 7d 0c	 mov	 edi, DWORD PTR _<_Vals_0>$[ebp]
  0002d	8d 45 d8	 lea	 eax, DWORD PTR $T2[ebp]
  00030	57		 push	 edi
  00031	50		 push	 eax
  00032	e8 00 00 00 00	 call	 ??$_Find_lower_bound@V?$basic_string@DU?$char_traits@D@std@@V?$allocator@D@2@@std@@@?$_Tree@V?$_Tmap_traits@V?$basic_string@DU?$char_traits@D@std@@V?$allocator@D@2@@std@@PAVCGuild@@U?$less@V?$basic_string@DU?$char_traits@D@std@@V?$allocator@D@2@@std@@@2@V?$allocator@U?$pair@$$CBV?$basic_string@DU?$char_traits@D@std@@V?$allocator@D@2@@std@@PAVCGuild@@@std@@@2@$0A@@std@@@std@@IBE?AU?$_Tree_find_result@PAU?$_Tree_node@U?$pair@$$CBV?$basic_string@DU?$char_traits@D@std@@V?$allocator@D@2@@std@@PAVCGuild@@@std@@PAX@std@@@1@ABV?$basic_string@DU?$char_traits@D@std@@V?$allocator@D@2@@1@@Z ; std::_Tree<std::_Tmap_traits<std::basic_string<char,std::char_traits<char>,std::allocator<char> >,CGuild *,std::less<std::basic_string<char,std::char_traits<char>,std::allocator<char> > >,std::allocator<std::pair<std::basic_string<char,std::char_traits<char>,std::allocator<char> > const ,CGuild *> >,0> >::_Find_lower_bound<std::basic_string<char,std::char_traits<char>,std::allocator<char> > >
  00037	8b 70 08	 mov	 esi, DWORD PTR [eax+8]
  0003a	f3 0f 7e 00	 movq	 xmm0, QWORD PTR [eax]
  0003e	66 0f d6 45 cc	 movq	 QWORD PTR __Loc$[ebp], xmm0

; 1624 :         return !_Bound->_Isnil && !_DEBUG_LT_PRED(_Getcomp(), _Keyval, _Traits::_Kfn(_Bound->_Myval));

  00043	80 7e 0d 00	 cmp	 BYTE PTR [esi+13], 0
  00047	75 2d		 jne	 SHORT $LN2@Emplace
  00049	8d 46 10	 lea	 eax, DWORD PTR [esi+16]
; File C:\Program Files\Microsoft Visual Studio\2022\Professional\VC\Tools\MSVC\14.44.35207\include\type_traits

; 2380 :         return _Left < _Right;

  0004c	50		 push	 eax
  0004d	57		 push	 edi
  0004e	e8 00 00 00 00	 call	 ??$?MDU?$char_traits@D@std@@V?$allocator@D@1@@std@@YA_NABV?$basic_string@DU?$char_traits@D@std@@V?$allocator@D@2@@0@0@Z ; std::operator<<char,std::char_traits<char>,std::allocator<char> >
  00053	83 c4 08	 add	 esp, 8
; File C:\Program Files\Microsoft Visual Studio\2022\Professional\VC\Tools\MSVC\14.44.35207\include\xtree

; 1624 :         return !_Bound->_Isnil && !_DEBUG_LT_PRED(_Getcomp(), _Keyval, _Traits::_Kfn(_Bound->_Myval));

  00056	84 c0		 test	 al, al
  00058	75 1c		 jne	 SHORT $LN2@Emplace
; File C:\Program Files\Microsoft Visual Studio\2022\Professional\VC\Tools\MSVC\14.44.35207\include\utility

; 274  :         : first(_STD forward<_Other1>(_Val1)), second(_STD forward<_Other2>(_Val2)) {

  0005a	8b 45 08	 mov	 eax, DWORD PTR ___$ReturnUdt$[ebp]
  0005d	89 30		 mov	 DWORD PTR [eax], esi
  0005f	c6 40 04 00	 mov	 BYTE PTR [eax+4], 0
; File C:\Program Files\Microsoft Visual Studio\2022\Professional\VC\Tools\MSVC\14.44.35207\include\xtree

; 1043 :     }

  00063	8b 4d f4	 mov	 ecx, DWORD PTR __$EHRec$[ebp]
  00066	64 89 0d 00 00
	00 00		 mov	 DWORD PTR fs:0, ecx
  0006d	59		 pop	 ecx
  0006e	5f		 pop	 edi
  0006f	5e		 pop	 esi
  00070	8b e5		 mov	 esp, ebp
  00072	5d		 pop	 ebp
  00073	c2 08 00	 ret	 8
$LN2@Emplace:

; 1648 :         if (max_size() == _Get_scary()->_Mysize) {

  00076	8b 45 e8	 mov	 eax, DWORD PTR _this$1$[ebp]
  00079	81 78 04 5d 74
	d1 05		 cmp	 DWORD PTR [eax+4], 97612893 ; 05d1745dH
  00080	0f 84 26 01 00
	00		 je	 $LN195@Emplace

; 1018 :             if (_Lower_bound_duplicate(_Loc._Bound, _Keyval)) {
; 1019 :                 return {_Loc._Bound, false};
; 1020 :             }
; 1021 : 
; 1022 :             _Check_grow_by_1();
; 1023 :             _Inserted = _Tree_temp_node<_Alnode>(_Getal(), _Scary->_Myhead, _STD forward<_Valtys>(_Vals)...)._Release();

  00086	8b 08		 mov	 ecx, DWORD PTR [eax]
  00088	89 4d e4	 mov	 DWORD PTR __Myhead$1$[ebp], ecx
; File C:\Program Files\Microsoft Visual Studio\2022\Professional\VC\Tools\MSVC\14.44.35207\include\xmemory

; 1160 :     _CONSTEXPR20 explicit _Alloc_construct_ptr(_Alloc& _Al_) : _Al(_Al_), _Ptr(nullptr) {}

  0008b	89 45 dc	 mov	 DWORD PTR $T3[ebp], eax

; 136  :         return ::operator new(_Bytes);

  0008e	6a 2c		 push	 44			; 0000002cH
; File C:\Program Files\Microsoft Visual Studio\2022\Professional\VC\Tools\MSVC\14.44.35207\include\xtree

; 808  :     explicit _Tree_temp_node_alloc(_Alnode& _Al_) : _Alloc_construct_ptr<_Alnode>(_Al_) {

  00090	c7 45 fc 00 00
	00 00		 mov	 DWORD PTR __$EHRec$[ebp+8], 0
; File C:\Program Files\Microsoft Visual Studio\2022\Professional\VC\Tools\MSVC\14.44.35207\include\xmemory

; 1167 :         _Ptr = nullptr; // if allocate throws, prevents double-free

  00097	c7 45 e0 00 00
	00 00		 mov	 DWORD PTR $T3[ebp+4], 0

; 136  :         return ::operator new(_Bytes);

  0009e	e8 00 00 00 00	 call	 ??2@YAPAXI@Z		; operator new

; 256  :         return _Traits::_Allocate(_Bytes);

  000a3	8b f0		 mov	 esi, eax

; 136  :         return ::operator new(_Bytes);

  000a5	83 c4 04	 add	 esp, 4

; 1168 :         _Ptr = _Al.allocate(1);

  000a8	89 75 e0	 mov	 DWORD PTR $T3[ebp+4], esi
  000ab	0f 57 c0	 xorps	 xmm0, xmm0
; File C:\Program Files\Microsoft Visual Studio\2022\Professional\VC\Tools\MSVC\14.44.35207\include\xtree

; 829  :         : _Tree_temp_node_alloc<_Alnode>(_Al_) {

  000ae	c7 45 fc 01 00
	00 00		 mov	 DWORD PTR __$EHRec$[ebp+8], 1
; File C:\Program Files\Microsoft Visual Studio\2022\Professional\VC\Tools\MSVC\14.44.35207\include\xstring

; 493  :         _CONSTEXPR20 _Bxty() noexcept : _Buf() {} // user-provided, for fancy pointers

  000b5	0f 11 46 10	 movups	 XMMWORD PTR [esi+16], xmm0

; 517  :     size_type _Mysize = 0; // current length of string (size)

  000b9	c7 46 20 00 00
	00 00		 mov	 DWORD PTR [esi+32], 0

; 444  :         const value_type* _Result = _Bx._Buf;

  000c0	8b cf		 mov	 ecx, edi

; 518  :     size_type _Myres  = 0; // current storage reserved for string (capacity)

  000c2	c7 46 24 00 00
	00 00		 mov	 DWORD PTR [esi+36], 0

; 453  :         return _Myres > _Small_string_capacity;

  000c9	83 7f 14 0f	 cmp	 DWORD PTR [edi+20], 15	; 0000000fH

; 444  :         const value_type* _Result = _Bx._Buf;

  000cd	89 7d ec	 mov	 DWORD PTR __Result$1$[ebp], edi

; 445  :         if (_Large_mode_engaged()) {

  000d0	76 05		 jbe	 SHORT $LN65@Emplace

; 446  :             _Result = _Unfancy(_Bx._Ptr);

  000d2	8b 0f		 mov	 ecx, DWORD PTR [edi]
  000d4	89 4d ec	 mov	 DWORD PTR __Result$1$[ebp], ecx
$LN65@Emplace:

; 718  :         _Construct<_Construct_strategy::_From_string>(_Right._Mypair._Myval2._Myptr(), _Right._Mypair._Myval2._Mysize);

  000d7	8b 47 10	 mov	 eax, DWORD PTR [edi+16]
  000da	89 45 f0	 mov	 DWORD PTR __Count$1$[ebp], eax

; 881  :         if (_Count > max_size()) {

  000dd	3d ff ff ff 7f	 cmp	 eax, 2147483647		; 7fffffffH
  000e2	0f 87 c9 00 00
	00		 ja	 $LN196@Emplace

; 883  :         }
; 884  : 
; 885  :         auto& _Al       = _Getal();
; 886  :         auto&& _Alproxy = _GET_PROXY_ALLOCATOR(_Alty, _Al);
; 887  :         _Container_proxy_ptr<_Alty> _Proxy(_Alproxy, _My_data);
; 888  : 
; 889  :         if (_Count <= _Small_string_capacity) {

  000e8	83 f8 0f	 cmp	 eax, 15			; 0000000fH
  000eb	77 13		 ja	 SHORT $LN73@Emplace

; 890  :             _My_data._Mysize = _Count;

  000ed	89 46 20	 mov	 DWORD PTR [esi+32], eax

; 891  :             _My_data._Myres  = _Small_string_capacity;

  000f0	c7 46 24 0f 00
	00 00		 mov	 DWORD PTR [esi+36], 15	; 0000000fH
; File C:\Program Files\Microsoft Visual Studio\2022\Professional\VC\Tools\MSVC\14.44.35207\include\__msvc_string_view.hpp

; 121  :         _CSTD memcpy(_First1, _First2, _Count * sizeof(_Elem));

  000f7	0f 10 01	 movups	 xmm0, XMMWORD PTR [ecx]
  000fa	0f 11 46 10	 movups	 XMMWORD PTR [esi+16], xmm0
; File C:\Program Files\Microsoft Visual Studio\2022\Professional\VC\Tools\MSVC\14.44.35207\include\xstring

; 908  :             return;

  000fe	eb 68		 jmp	 SHORT $LN99@Emplace
$LN73@Emplace:

; 2978 :         const size_type _Masked = _Requested | _Alloc_mask;

  00100	8b f8		 mov	 edi, eax
  00102	83 cf 0f	 or	 edi, 15			; 0000000fH
  00105	81 ff ff ff ff
	7f		 cmp	 edi, 2147483647		; 7fffffffH

; 2979 :         if (_Masked > _Max) { // the mask overflows, settle for max_size()

  0010b	76 12		 jbe	 SHORT $LN79@Emplace

; 2980 :             return _Max;

  0010d	b9 00 00 00 80	 mov	 ecx, -2147483648	; 80000000H
  00112	bf ff ff ff 7f	 mov	 edi, 2147483647		; 7fffffffH
; File C:\Program Files\Microsoft Visual Studio\2022\Professional\VC\Tools\MSVC\14.44.35207\include\xmemory

; 253  :             return _Allocate_manually_vector_aligned<_Traits>(_Bytes);

  00117	51		 push	 ecx
  00118	e8 00 00 00 00	 call	 ??$_Allocate_manually_vector_aligned@U_Default_allocate_traits@std@@@std@@YAPAXI@Z ; std::_Allocate_manually_vector_aligned<std::_Default_allocate_traits>
  0011d	eb 27		 jmp	 SHORT $LN193@Emplace
$LN79@Emplace:
; File C:\Program Files\Microsoft Visual Studio\2022\Professional\VC\Tools\MSVC\14.44.35207\include\xstring

; 2987 :         return (_STD max)(_Masked, _Old + _Old / 2);

  0011f	b9 16 00 00 00	 mov	 ecx, 22			; 00000016H
  00124	3b f9		 cmp	 edi, ecx
  00126	0f 42 f9	 cmovb	 edi, ecx

; 825  :         ++_Capacity; // Take null terminator into consideration

  00129	8d 4f 01	 lea	 ecx, DWORD PTR [edi+1]
; File C:\Program Files\Microsoft Visual Studio\2022\Professional\VC\Tools\MSVC\14.44.35207\include\xmemory

; 227  :     if (_Bytes == 0) {

  0012c	85 c9		 test	 ecx, ecx
  0012e	74 1e		 je	 SHORT $LN92@Emplace
$LN93@Emplace:

; 228  :         return nullptr;
; 229  :     }
; 230  : 
; 231  : #if _HAS_CXX20 // TRANSITION, GH-1532
; 232  :     if (_STD is_constant_evaluated()) {
; 233  :         return _Traits::_Allocate(_Bytes);
; 234  :     }
; 235  : #endif // _HAS_CXX20
; 236  : 
; 237  : #ifdef __cpp_aligned_new
; 238  :     if constexpr (_Align > __STDCPP_DEFAULT_NEW_ALIGNMENT__) {
; 239  :         size_t _Passed_align = _Align;
; 240  : #if defined(_M_IX86) || defined(_M_X64)
; 241  :         if (_Bytes >= _Big_allocation_threshold) {
; 242  :             // boost the alignment of big allocations to help autovectorization
; 243  :             _Passed_align = (_STD max)(_Align, _Big_allocation_alignment);
; 244  :         }
; 245  : #endif // defined(_M_IX86) || defined(_M_X64)
; 246  :         return _Traits::_Allocate_aligned(_Bytes, _Passed_align);
; 247  :     } else
; 248  : #endif // defined(__cpp_aligned_new)
; 249  :     {
; 250  : #if defined(_M_IX86) || defined(_M_X64)
; 251  :         if (_Bytes >= _Big_allocation_threshold) {

  00130	81 f9 00 10 00
	00		 cmp	 ecx, 4096		; 00001000H
  00136	72 08		 jb	 SHORT $LN94@Emplace

; 253  :             return _Allocate_manually_vector_aligned<_Traits>(_Bytes);

  00138	51		 push	 ecx
  00139	e8 00 00 00 00	 call	 ??$_Allocate_manually_vector_aligned@U_Default_allocate_traits@std@@@std@@YAPAXI@Z ; std::_Allocate_manually_vector_aligned<std::_Default_allocate_traits>
  0013e	eb 06		 jmp	 SHORT $LN193@Emplace
$LN94@Emplace:

; 136  :         return ::operator new(_Bytes);

  00140	51		 push	 ecx
  00141	e8 00 00 00 00	 call	 ??2@YAPAXI@Z		; operator new
$LN193@Emplace:
; File C:\Program Files\Microsoft Visual Studio\2022\Professional\VC\Tools\MSVC\14.44.35207\include\xstring

; 913  :         _Construct_in_place(_My_data._Bx._Ptr, _New_ptr);

  00146	8b c8		 mov	 ecx, eax
  00148	83 c4 04	 add	 esp, 4
  0014b	8b 45 f0	 mov	 eax, DWORD PTR __Count$1$[ebp]
$LN92@Emplace:

; 914  : 
; 915  :         _My_data._Mysize = _Count;

  0014e	89 46 20	 mov	 DWORD PTR [esi+32], eax

; 917  :         if constexpr (_Strat == _Construct_strategy::_From_char) {
; 918  :             _Traits::assign(_Unfancy(_New_ptr), _Count, _Arg);
; 919  :             _Traits::assign(_Unfancy(_New_ptr)[_Count], _Elem());
; 920  :         } else if constexpr (_Strat == _Construct_strategy::_From_ptr) {
; 921  :             _Traits::copy(_Unfancy(_New_ptr), _Arg, _Count);
; 922  :             _Traits::assign(_Unfancy(_New_ptr)[_Count], _Elem());
; 923  :         } else { // _Strat == _Construct_strategy::_From_string
; 924  :             _Traits::copy(_Unfancy(_New_ptr), _Arg, _Count + 1);

  00151	40		 inc	 eax
; File C:\Program Files\Microsoft Visual Studio\2022\Professional\VC\Tools\MSVC\14.44.35207\include\__msvc_string_view.hpp

; 121  :         _CSTD memcpy(_First1, _First2, _Count * sizeof(_Elem));

  00152	50		 push	 eax
  00153	ff 75 ec	 push	 DWORD PTR __Result$1$[ebp]
; File C:\Program Files\Microsoft Visual Studio\2022\Professional\VC\Tools\MSVC\14.44.35207\include\xstring

; 913  :         _Construct_in_place(_My_data._Bx._Ptr, _New_ptr);

  00156	89 4e 10	 mov	 DWORD PTR [esi+16], ecx
; File C:\Program Files\Microsoft Visual Studio\2022\Professional\VC\Tools\MSVC\14.44.35207\include\__msvc_string_view.hpp

; 121  :         _CSTD memcpy(_First1, _First2, _Count * sizeof(_Elem));

  00159	51		 push	 ecx
; File C:\Program Files\Microsoft Visual Studio\2022\Professional\VC\Tools\MSVC\14.44.35207\include\xstring

; 916  :         _My_data._Myres  = _New_capacity;

  0015a	89 7e 24	 mov	 DWORD PTR [esi+36], edi
; File C:\Program Files\Microsoft Visual Studio\2022\Professional\VC\Tools\MSVC\14.44.35207\include\__msvc_string_view.hpp

; 121  :         _CSTD memcpy(_First1, _First2, _Count * sizeof(_Elem));

  0015d	e8 00 00 00 00	 call	 _memcpy
  00162	8b 7d 0c	 mov	 edi, DWORD PTR _<_Vals_0>$[ebp]
  00165	83 c4 0c	 add	 esp, 12			; 0000000cH
$LN99@Emplace:
; File C:\Program Files\Microsoft Visual Studio\2022\Professional\VC\Tools\MSVC\14.44.35207\include\utility

; 278  :     pair(pair&&)      = default;

  00168	8b 47 18	 mov	 eax, DWORD PTR [edi+24]
; File C:\Program Files\Microsoft Visual Studio\2022\Professional\VC\Tools\MSVC\14.44.35207\include\xtree

; 1042 :         return {_Scary->_Insert_node(_Loc._Location, _Inserted), true};

  0016b	8b 4d e8	 mov	 ecx, DWORD PTR _this$1$[ebp]
; File C:\Program Files\Microsoft Visual Studio\2022\Professional\VC\Tools\MSVC\14.44.35207\include\utility

; 278  :     pair(pair&&)      = default;

  0016e	89 46 28	 mov	 DWORD PTR [esi+40], eax
; File C:\Program Files\Microsoft Visual Studio\2022\Professional\VC\Tools\MSVC\14.44.35207\include\xtree

; 831  :         _Construct_in_place(this->_Ptr->_Left, _Myhead);

  00171	8b 45 e4	 mov	 eax, DWORD PTR __Myhead$1$[ebp]

; 1042 :         return {_Scary->_Insert_node(_Loc._Location, _Inserted), true};

  00174	56		 push	 esi
  00175	ff 75 d0	 push	 DWORD PTR __Loc$[ebp+4]

; 831  :         _Construct_in_place(this->_Ptr->_Left, _Myhead);

  00178	89 06		 mov	 DWORD PTR [esi], eax

; 1042 :         return {_Scary->_Insert_node(_Loc._Location, _Inserted), true};

  0017a	ff 75 cc	 push	 DWORD PTR __Loc$[ebp]

; 832  :         _Construct_in_place(this->_Ptr->_Parent, _Myhead);

  0017d	89 46 04	 mov	 DWORD PTR [esi+4], eax

; 833  :         _Construct_in_place(this->_Ptr->_Right, _Myhead);

  00180	89 46 08	 mov	 DWORD PTR [esi+8], eax

; 834  :         this->_Ptr->_Color = _Red;

  00183	66 c7 46 0c 00
	00		 mov	 WORD PTR [esi+12], 0

; 1042 :         return {_Scary->_Insert_node(_Loc._Location, _Inserted), true};

  00189	e8 00 00 00 00	 call	 ?_Insert_node@?$_Tree_val@U?$_Tree_simple_types@U?$pair@$$CBV?$basic_string@DU?$char_traits@D@std@@V?$allocator@D@2@@std@@PAVCGuild@@@std@@@std@@@std@@QAEPAU?$_Tree_node@U?$pair@$$CBV?$basic_string@DU?$char_traits@D@std@@V?$allocator@D@2@@std@@PAVCGuild@@@std@@PAX@2@U?$_Tree_id@PAU?$_Tree_node@U?$pair@$$CBV?$basic_string@DU?$char_traits@D@std@@V?$allocator@D@2@@std@@PAVCGuild@@@std@@PAX@std@@@2@QAU32@@Z ; std::_Tree_val<std::_Tree_simple_types<std::pair<std::basic_string<char,std::char_traits<char>,std::allocator<char> > const ,CGuild *> > >::_Insert_node
; File C:\Program Files\Microsoft Visual Studio\2022\Professional\VC\Tools\MSVC\14.44.35207\include\utility

; 274  :         : first(_STD forward<_Other1>(_Val1)), second(_STD forward<_Other2>(_Val2)) {

  0018e	8b 4d 08	 mov	 ecx, DWORD PTR ___$ReturnUdt$[ebp]
  00191	89 01		 mov	 DWORD PTR [ecx], eax
; File C:\Program Files\Microsoft Visual Studio\2022\Professional\VC\Tools\MSVC\14.44.35207\include\xtree

; 1042 :         return {_Scary->_Insert_node(_Loc._Location, _Inserted), true};

  00193	8b c1		 mov	 eax, ecx
; File C:\Program Files\Microsoft Visual Studio\2022\Professional\VC\Tools\MSVC\14.44.35207\include\utility

; 274  :         : first(_STD forward<_Other1>(_Val1)), second(_STD forward<_Other2>(_Val2)) {

  00195	c6 41 04 01	 mov	 BYTE PTR [ecx+4], 1
; File C:\Program Files\Microsoft Visual Studio\2022\Professional\VC\Tools\MSVC\14.44.35207\include\xtree

; 1043 :     }

  00199	8b 4d f4	 mov	 ecx, DWORD PTR __$EHRec$[ebp]
  0019c	64 89 0d 00 00
	00 00		 mov	 DWORD PTR fs:0, ecx
  001a3	59		 pop	 ecx
  001a4	5f		 pop	 edi
  001a5	5e		 pop	 esi
  001a6	8b e5		 mov	 esp, ebp
  001a8	5d		 pop	 ebp
  001a9	c2 08 00	 ret	 8
$LN195@Emplace:

; 1649 :             _Throw_tree_length_error();

  001ac	e8 00 00 00 00	 call	 ?_Throw_tree_length_error@std@@YAXXZ ; std::_Throw_tree_length_error
$LN196@Emplace:
; File C:\Program Files\Microsoft Visual Studio\2022\Professional\VC\Tools\MSVC\14.44.35207\include\xstring

; 882  :             _Xlen_string(); // result too long

  001b1	e8 00 00 00 00	 call	 ?_Xlen_string@std@@YAXXZ ; std::_Xlen_string
$LN192@Emplace:
  001b6	cc		 int	 3
_TEXT	ENDS
;	COMDAT text$x
text$x	SEGMENT
__unwindfunclet$??$_Emplace@U?$pair@$$CBV?$basic_string@DU?$char_traits@D@std@@V?$allocator@D@2@@std@@PAVCGuild@@@std@@@?$_Tree@V?$_Tmap_traits@V?$basic_string@DU?$char_traits@D@std@@V?$allocator@D@2@@std@@PAVCGuild@@U?$less@V?$basic_string@DU?$char_traits@D@std@@V?$allocator@D@2@@std@@@2@V?$allocator@U?$pair@$$CBV?$basic_string@DU?$char_traits@D@std@@V?$allocator@D@2@@std@@PAVCGuild@@@std@@@2@$0A@@std@@@std@@IAE?AU?$pair@PAU?$_Tree_node@U?$pair@$$CBV?$basic_string@DU?$char_traits@D@std@@V?$allocator@D@2@@std@@PAVCGuild@@@std@@PAX@std@@_N@1@$$QAU?$pair@$$CBV?$basic_string@DU?$char_traits@D@std@@V?$allocator@D@2@@std@@PAVCGuild@@@1@@Z$2:
  00000	8d 4d dc	 lea	 ecx, DWORD PTR $T3[ebp]
  00003	e9 00 00 00 00	 jmp	 ??1?$_Alloc_construct_ptr@V?$allocator@U?$_Tree_node@U?$pair@$$CBV?$basic_string@DU?$char_traits@D@std@@V?$allocator@D@2@@std@@PAVCGuild@@@std@@PAX@std@@@std@@@std@@QAE@XZ ; std::_Alloc_construct_ptr<std::allocator<std::_Tree_node<std::pair<std::basic_string<char,std::char_traits<char>,std::allocator<char> > const ,CGuild *>,void *> > >::~_Alloc_construct_ptr<std::allocator<std::_Tree_node<std::pair<std::basic_string<char,std::char_traits<char>,std::allocator<char> > const ,CGuild *>,void *> > >
__unwindfunclet$??$_Emplace@U?$pair@$$CBV?$basic_string@DU?$char_traits@D@std@@V?$allocator@D@2@@std@@PAVCGuild@@@std@@@?$_Tree@V?$_Tmap_traits@V?$basic_string@DU?$char_traits@D@std@@V?$allocator@D@2@@std@@PAVCGuild@@U?$less@V?$basic_string@DU?$char_traits@D@std@@V?$allocator@D@2@@std@@@2@V?$allocator@U?$pair@$$CBV?$basic_string@DU?$char_traits@D@std@@V?$allocator@D@2@@std@@PAVCGuild@@@std@@@2@$0A@@std@@@std@@IAE?AU?$pair@PAU?$_Tree_node@U?$pair@$$CBV?$basic_string@DU?$char_traits@D@std@@V?$allocator@D@2@@std@@PAVCGuild@@@std@@PAX@std@@_N@1@$$QAU?$pair@$$CBV?$basic_string@DU?$char_traits@D@std@@V?$allocator@D@2@@std@@PAVCGuild@@@1@@Z$1:
  00008	8d 4d dc	 lea	 ecx, DWORD PTR $T3[ebp]
  0000b	e9 00 00 00 00	 jmp	 ??1?$_Tree_temp_node_alloc@V?$allocator@U?$_Tree_node@U?$pair@$$CBV?$basic_string@DU?$char_traits@D@std@@V?$allocator@D@2@@std@@PAVCGuild@@@std@@PAX@std@@@std@@@std@@QAE@XZ
  00010	cc		 int	 3
  00011	cc		 int	 3
  00012	cc		 int	 3
  00013	cc		 int	 3
  00014	cc		 int	 3
__ehhandler$??$_Emplace@U?$pair@$$CBV?$basic_string@DU?$char_traits@D@std@@V?$allocator@D@2@@std@@PAVCGuild@@@std@@@?$_Tree@V?$_Tmap_traits@V?$basic_string@DU?$char_traits@D@std@@V?$allocator@D@2@@std@@PAVCGuild@@U?$less@V?$basic_string@DU?$char_traits@D@std@@V?$allocator@D@2@@std@@@2@V?$allocator@U?$pair@$$CBV?$basic_string@DU?$char_traits@D@std@@V?$allocator@D@2@@std@@PAVCGuild@@@std@@@2@$0A@@std@@@std@@IAE?AU?$pair@PAU?$_Tree_node@U?$pair@$$CBV?$basic_string@DU?$char_traits@D@std@@V?$allocator@D@2@@std@@PAVCGuild@@@std@@PAX@std@@_N@1@$$QAU?$pair@$$CBV?$basic_string@DU?$char_traits@D@std@@V?$allocator@D@2@@std@@PAVCGuild@@@1@@Z:
  00015	90		 npad	 1
  00016	90		 npad	 1
  00017	8b 54 24 08	 mov	 edx, DWORD PTR [esp+8]
  0001b	8d 42 0c	 lea	 eax, DWORD PTR [edx+12]
  0001e	8b 4a cc	 mov	 ecx, DWORD PTR [edx-52]
  00021	33 c8		 xor	 ecx, eax
  00023	e8 00 00 00 00	 call	 @__security_check_cookie@4
  00028	b8 00 00 00 00	 mov	 eax, OFFSET __ehfuncinfo$??$_Emplace@U?$pair@$$CBV?$basic_string@DU?$char_traits@D@std@@V?$allocator@D@2@@std@@PAVCGuild@@@std@@@?$_Tree@V?$_Tmap_traits@V?$basic_string@DU?$char_traits@D@std@@V?$allocator@D@2@@std@@PAVCGuild@@U?$less@V?$basic_string@DU?$char_traits@D@std@@V?$allocator@D@2@@std@@@2@V?$allocator@U?$pair@$$CBV?$basic_string@DU?$char_traits@D@std@@V?$allocator@D@2@@std@@PAVCGuild@@@std@@@2@$0A@@std@@@std@@IAE?AU?$pair@PAU?$_Tree_node@U?$pair@$$CBV?$basic_string@DU?$char_traits@D@std@@V?$allocator@D@2@@std@@PAVCGuild@@@std@@PAX@std@@_N@1@$$QAU?$pair@$$CBV?$basic_string@DU?$char_traits@D@std@@V?$allocator@D@2@@std@@PAVCGuild@@@1@@Z
  0002d	e9 00 00 00 00	 jmp	 ___CxxFrameHandler3
text$x	ENDS
??$_Emplace@U?$pair@$$CBV?$basic_string@DU?$char_traits@D@std@@V?$allocator@D@2@@std@@PAVCGuild@@@std@@@?$_Tree@V?$_Tmap_traits@V?$basic_string@DU?$char_traits@D@std@@V?$allocator@D@2@@std@@PAVCGuild@@U?$less@V?$basic_string@DU?$char_traits@D@std@@V?$allocator@D@2@@std@@@2@V?$allocator@U?$pair@$$CBV?$basic_string@DU?$char_traits@D@std@@V?$allocator@D@2@@std@@PAVCGuild@@@std@@@2@$0A@@std@@@std@@IAE?AU?$pair@PAU?$_Tree_node@U?$pair@$$CBV?$basic_string@DU?$char_traits@D@std@@V?$allocator@D@2@@std@@PAVCGuild@@@std@@PAX@std@@_N@1@$$QAU?$pair@$$CBV?$basic_string@DU?$char_traits@D@std@@V?$allocator@D@2@@std@@PAVCGuild@@@1@@Z ENDP ; std::_Tree<std::_Tmap_traits<std::basic_string<char,std::char_traits<char>,std::allocator<char> >,CGuild *,std::less<std::basic_string<char,std::char_traits<char>,std::allocator<char> > >,std::allocator<std::pair<std::basic_string<char,std::char_traits<char>,std::allocator<char> > const ,CGuild *> >,0> >::_Emplace<std::pair<std::basic_string<char,std::char_traits<char>,std::allocator<char> > const ,CGuild *> >
; Function compile flags: /Ogtp
;	COMDAT ??__Fg_GuildMng@@YAXXZ
text$yd	SEGMENT
??__Fg_GuildMng@@YAXXZ PROC				; `dynamic atexit destructor for 'g_GuildMng'', COMDAT
  00000	b9 00 00 00 00	 mov	 ecx, OFFSET ?g_GuildMng@@3VCGuildMng@@A ; g_GuildMng
  00005	e9 00 00 00 00	 jmp	 ??1CGuildMng@@UAE@XZ	; CGuildMng::~CGuildMng
??__Fg_GuildMng@@YAXXZ ENDP				; `dynamic atexit destructor for 'g_GuildMng''
text$yd	ENDS
; Function compile flags: /Ogtp
; File C:\IAGOS\server\v18\Source\Source\_common\guild.cpp
;	COMDAT ??__Eg_GuildMng@@YAXXZ
text$di	SEGMENT
??__Eg_GuildMng@@YAXXZ PROC				; `dynamic initializer for 'g_GuildMng'', COMDAT

; 1136 : CGuildMng	g_GuildMng;

  00000	b9 00 00 00 00	 mov	 ecx, OFFSET ?g_GuildMng@@3VCGuildMng@@A ; g_GuildMng
  00005	e8 00 00 00 00	 call	 ??0CGuildMng@@QAE@XZ	; CGuildMng::CGuildMng
  0000a	68 00 00 00 00	 push	 OFFSET ??__Fg_GuildMng@@YAXXZ ; `dynamic atexit destructor for 'g_GuildMng''
  0000f	e8 00 00 00 00	 call	 _atexit
  00014	59		 pop	 ecx
  00015	c3		 ret	 0
??__Eg_GuildMng@@YAXXZ ENDP				; `dynamic initializer for 'g_GuildMng''
text$di	ENDS
; Function compile flags: /Ogtp
; File C:\Program Files\Microsoft Visual Studio\2022\Professional\VC\Tools\MSVC\14.44.35207\include\xtree
; File C:\Program Files\Microsoft Visual Studio\2022\Professional\VC\Tools\MSVC\14.44.35207\include\type_traits
; File C:\Program Files\Microsoft Visual Studio\2022\Professional\VC\Tools\MSVC\14.44.35207\include\xtree
; File C:\Program Files\Microsoft Visual Studio\2022\Professional\VC\Tools\MSVC\14.44.35207\include\utility
; File C:\Program Files\Microsoft Visual Studio\2022\Professional\VC\Tools\MSVC\14.44.35207\include\xtree
; File C:\Program Files\Microsoft Visual Studio\2022\Professional\VC\Tools\MSVC\14.44.35207\include\xmemory
; File C:\Program Files\Microsoft Visual Studio\2022\Professional\VC\Tools\MSVC\14.44.35207\include\xtree
; File C:\Program Files\Microsoft Visual Studio\2022\Professional\VC\Tools\MSVC\14.44.35207\include\xmemory
; File C:\Program Files\Microsoft Visual Studio\2022\Professional\VC\Tools\MSVC\14.44.35207\include\xtree
; File C:\Program Files\Microsoft Visual Studio\2022\Professional\VC\Tools\MSVC\14.44.35207\include\xmemory
; File C:\Program Files\Microsoft Visual Studio\2022\Professional\VC\Tools\MSVC\14.44.35207\include\xtree
; File C:\Program Files\Microsoft Visual Studio\2022\Professional\VC\Tools\MSVC\14.44.35207\include\utility
; File C:\Program Files\Microsoft Visual Studio\2022\Professional\VC\Tools\MSVC\14.44.35207\include\xtree
;	COMDAT ??$insert@$0A@$0A@@?$_Tree@V?$_Tmap_traits@KPAVCGuild@@U?$less@K@std@@V?$allocator@U?$pair@$$CBKPAVCGuild@@@std@@@3@$0A@@std@@@std@@QAE?AU?$pair@V?$_Tree_iterator@V?$_Tree_val@U?$_Tree_simple_types@U?$pair@$$CBKPAVCGuild@@@std@@@std@@@std@@@std@@_N@1@$$QAU?$pair@$$CBKPAVCGuild@@@1@@Z
_TEXT	SEGMENT
__Loc$2 = -36						; size = 12
$T3 = -24						; size = 12
$T4 = -20						; size = 8
__$EHRec$ = -12						; size = 12
___$ReturnUdt$ = 8					; size = 4
__Val$ = 12						; size = 4
??$insert@$0A@$0A@@?$_Tree@V?$_Tmap_traits@KPAVCGuild@@U?$less@K@std@@V?$allocator@U?$pair@$$CBKPAVCGuild@@@std@@@3@$0A@@std@@@std@@QAE?AU?$pair@V?$_Tree_iterator@V?$_Tree_val@U?$_Tree_simple_types@U?$pair@$$CBKPAVCGuild@@@std@@@std@@@std@@@std@@_N@1@$$QAU?$pair@$$CBKPAVCGuild@@@1@@Z PROC ; std::_Tree<std::_Tmap_traits<unsigned long,CGuild *,std::less<unsigned long>,std::allocator<std::pair<unsigned long const ,CGuild *> >,0> >::insert<0,0>, COMDAT
; _this$ = ecx

; 1245 :     pair<iterator, bool> insert(value_type&& _Val) {

  00000	55		 push	 ebp
  00001	8b ec		 mov	 ebp, esp
  00003	6a ff		 push	 -1
  00005	68 00 00 00 00	 push	 __ehhandler$??$insert@$0A@$0A@@?$_Tree@V?$_Tmap_traits@KPAVCGuild@@U?$less@K@std@@V?$allocator@U?$pair@$$CBKPAVCGuild@@@std@@@3@$0A@@std@@@std@@QAE?AU?$pair@V?$_Tree_iterator@V?$_Tree_val@U?$_Tree_simple_types@U?$pair@$$CBKPAVCGuild@@@std@@@std@@@std@@@std@@_N@1@$$QAU?$pair@$$CBKPAVCGuild@@@1@@Z
  0000a	64 a1 00 00 00
	00		 mov	 eax, DWORD PTR fs:0
  00010	50		 push	 eax
  00011	83 ec 18	 sub	 esp, 24			; 00000018H
  00014	53		 push	 ebx
  00015	56		 push	 esi
  00016	57		 push	 edi
  00017	a1 00 00 00 00	 mov	 eax, DWORD PTR ___security_cookie
  0001c	33 c5		 xor	 eax, ebp
  0001e	50		 push	 eax
  0001f	8d 45 f4	 lea	 eax, DWORD PTR __$EHRec$[ebp]
  00022	64 a3 00 00 00
	00		 mov	 DWORD PTR fs:0, eax
  00028	8b f9		 mov	 edi, ecx

; 1017 :             _Loc                = _Find_lower_bound(_Keyval);

  0002a	8b 5d 0c	 mov	 ebx, DWORD PTR __Val$[ebp]
  0002d	8d 45 e8	 lea	 eax, DWORD PTR $T3[ebp]
  00030	53		 push	 ebx
  00031	50		 push	 eax
  00032	e8 00 00 00 00	 call	 ??$_Find_lower_bound@K@?$_Tree@V?$_Tmap_traits@KPAVCGuild@@U?$less@K@std@@V?$allocator@U?$pair@$$CBKPAVCGuild@@@std@@@3@$0A@@std@@@std@@IBE?AU?$_Tree_find_result@PAU?$_Tree_node@U?$pair@$$CBKPAVCGuild@@@std@@PAX@std@@@1@ABK@Z ; std::_Tree<std::_Tmap_traits<unsigned long,CGuild *,std::less<unsigned long>,std::allocator<std::pair<unsigned long const ,CGuild *> >,0> >::_Find_lower_bound<unsigned long>
  00037	8b 48 08	 mov	 ecx, DWORD PTR [eax+8]
  0003a	f3 0f 7e 00	 movq	 xmm0, QWORD PTR [eax]
  0003e	66 0f d6 45 dc	 movq	 QWORD PTR __Loc$2[ebp], xmm0

; 1624 :         return !_Bound->_Isnil && !_DEBUG_LT_PRED(_Getcomp(), _Keyval, _Traits::_Kfn(_Bound->_Myval));

  00043	80 79 0d 00	 cmp	 BYTE PTR [ecx+13], 0
  00047	75 0b		 jne	 SHORT $LN4@insert
; File C:\Program Files\Microsoft Visual Studio\2022\Professional\VC\Tools\MSVC\14.44.35207\include\type_traits

; 2380 :         return _Left < _Right;

  00049	8b 03		 mov	 eax, DWORD PTR [ebx]
  0004b	3b 41 10	 cmp	 eax, DWORD PTR [ecx+16]
; File C:\Program Files\Microsoft Visual Studio\2022\Professional\VC\Tools\MSVC\14.44.35207\include\xtree

; 1624 :         return !_Bound->_Isnil && !_DEBUG_LT_PRED(_Getcomp(), _Keyval, _Traits::_Kfn(_Bound->_Myval));

  0004e	72 04		 jb	 SHORT $LN4@insert
; File C:\Program Files\Microsoft Visual Studio\2022\Professional\VC\Tools\MSVC\14.44.35207\include\utility

; 274  :         : first(_STD forward<_Other1>(_Val1)), second(_STD forward<_Other2>(_Val2)) {

  00050	32 d2		 xor	 dl, dl
; File C:\Program Files\Microsoft Visual Studio\2022\Professional\VC\Tools\MSVC\14.44.35207\include\xtree

; 1019 :                 return {_Loc._Bound, false};

  00052	eb 51		 jmp	 SHORT $LN84@insert
$LN4@insert:

; 1648 :         if (max_size() == _Get_scary()->_Mysize) {

  00054	81 7f 04 aa aa
	aa 0a		 cmp	 DWORD PTR [edi+4], 178956970 ; 0aaaaaaaH
  0005b	74 64		 je	 SHORT $LN103@insert

; 1023 :             _Inserted = _Tree_temp_node<_Alnode>(_Getal(), _Scary->_Myhead, _STD forward<_Valtys>(_Vals)...)._Release();

  0005d	8b 37		 mov	 esi, DWORD PTR [edi]
; File C:\Program Files\Microsoft Visual Studio\2022\Professional\VC\Tools\MSVC\14.44.35207\include\xmemory

; 1160 :     _CONSTEXPR20 explicit _Alloc_construct_ptr(_Alloc& _Al_) : _Al(_Al_), _Ptr(nullptr) {}

  0005f	89 7d ec	 mov	 DWORD PTR $T4[ebp], edi

; 136  :         return ::operator new(_Bytes);

  00062	6a 18		 push	 24			; 00000018H
; File C:\Program Files\Microsoft Visual Studio\2022\Professional\VC\Tools\MSVC\14.44.35207\include\xtree

; 808  :     explicit _Tree_temp_node_alloc(_Alnode& _Al_) : _Alloc_construct_ptr<_Alnode>(_Al_) {

  00064	c7 45 fc 00 00
	00 00		 mov	 DWORD PTR __$EHRec$[ebp+8], 0
; File C:\Program Files\Microsoft Visual Studio\2022\Professional\VC\Tools\MSVC\14.44.35207\include\xmemory

; 1167 :         _Ptr = nullptr; // if allocate throws, prevents double-free

  0006b	c7 45 f0 00 00
	00 00		 mov	 DWORD PTR $T4[ebp+4], 0

; 136  :         return ::operator new(_Bytes);

  00072	e8 00 00 00 00	 call	 ??2@YAPAXI@Z		; operator new
; File C:\Program Files\Microsoft Visual Studio\2022\Professional\VC\Tools\MSVC\14.44.35207\include\xtree

; 830  :         _Alnode_traits::construct(this->_Al, _STD addressof(this->_Ptr->_Myval), _STD forward<_Valtys>(_Vals)...);

  00077	8b 0b		 mov	 ecx, DWORD PTR [ebx]
; File C:\Program Files\Microsoft Visual Studio\2022\Professional\VC\Tools\MSVC\14.44.35207\include\xmemory

; 136  :         return ::operator new(_Bytes);

  00079	83 c4 04	 add	 esp, 4
; File C:\Program Files\Microsoft Visual Studio\2022\Professional\VC\Tools\MSVC\14.44.35207\include\xtree

; 830  :         _Alnode_traits::construct(this->_Al, _STD addressof(this->_Ptr->_Myval), _STD forward<_Valtys>(_Vals)...);

  0007c	8b 53 04	 mov	 edx, DWORD PTR [ebx+4]
  0007f	89 48 10	 mov	 DWORD PTR [eax+16], ecx

; 1042 :         return {_Scary->_Insert_node(_Loc._Location, _Inserted), true};

  00082	8b cf		 mov	 ecx, edi
  00084	50		 push	 eax
  00085	ff 75 e0	 push	 DWORD PTR __Loc$2[ebp+4]

; 830  :         _Alnode_traits::construct(this->_Al, _STD addressof(this->_Ptr->_Myval), _STD forward<_Valtys>(_Vals)...);

  00088	89 50 14	 mov	 DWORD PTR [eax+20], edx

; 1042 :         return {_Scary->_Insert_node(_Loc._Location, _Inserted), true};

  0008b	ff 75 dc	 push	 DWORD PTR __Loc$2[ebp]

; 831  :         _Construct_in_place(this->_Ptr->_Left, _Myhead);

  0008e	89 30		 mov	 DWORD PTR [eax], esi

; 832  :         _Construct_in_place(this->_Ptr->_Parent, _Myhead);

  00090	89 70 04	 mov	 DWORD PTR [eax+4], esi

; 833  :         _Construct_in_place(this->_Ptr->_Right, _Myhead);

  00093	89 70 08	 mov	 DWORD PTR [eax+8], esi

; 834  :         this->_Ptr->_Color = _Red;

  00096	66 c7 40 0c 00
	00		 mov	 WORD PTR [eax+12], 0

; 1042 :         return {_Scary->_Insert_node(_Loc._Location, _Inserted), true};

  0009c	e8 00 00 00 00	 call	 ?_Insert_node@?$_Tree_val@U?$_Tree_simple_types@U?$pair@$$CBKPAVCGuild@@@std@@@std@@@std@@QAEPAU?$_Tree_node@U?$pair@$$CBKPAVCGuild@@@std@@PAX@2@U?$_Tree_id@PAU?$_Tree_node@U?$pair@$$CBKPAVCGuild@@@std@@PAX@std@@@2@QAU32@@Z ; std::_Tree_val<std::_Tree_simple_types<std::pair<unsigned long const ,CGuild *> > >::_Insert_node
; File C:\Program Files\Microsoft Visual Studio\2022\Professional\VC\Tools\MSVC\14.44.35207\include\utility

; 274  :         : first(_STD forward<_Other1>(_Val1)), second(_STD forward<_Other2>(_Val2)) {

  000a1	8b c8		 mov	 ecx, eax
  000a3	b2 01		 mov	 dl, 1
$LN84@insert:
  000a5	8b 45 08	 mov	 eax, DWORD PTR ___$ReturnUdt$[ebp]
  000a8	89 08		 mov	 DWORD PTR [eax], ecx
  000aa	88 50 04	 mov	 BYTE PTR [eax+4], dl
; File C:\Program Files\Microsoft Visual Studio\2022\Professional\VC\Tools\MSVC\14.44.35207\include\xtree

; 1248 :     }

  000ad	8b 4d f4	 mov	 ecx, DWORD PTR __$EHRec$[ebp]
  000b0	64 89 0d 00 00
	00 00		 mov	 DWORD PTR fs:0, ecx
  000b7	59		 pop	 ecx
  000b8	5f		 pop	 edi
  000b9	5e		 pop	 esi
  000ba	5b		 pop	 ebx
  000bb	8b e5		 mov	 esp, ebp
  000bd	5d		 pop	 ebp
  000be	c2 08 00	 ret	 8
$LN103@insert:

; 1649 :             _Throw_tree_length_error();

  000c1	e8 00 00 00 00	 call	 ?_Throw_tree_length_error@std@@YAXXZ ; std::_Throw_tree_length_error
$LN101@insert:
  000c6	cc		 int	 3
_TEXT	ENDS
;	COMDAT text$x
text$x	SEGMENT
__unwindfunclet$??$insert@$0A@$0A@@?$_Tree@V?$_Tmap_traits@KPAVCGuild@@U?$less@K@std@@V?$allocator@U?$pair@$$CBKPAVCGuild@@@std@@@3@$0A@@std@@@std@@QAE?AU?$pair@V?$_Tree_iterator@V?$_Tree_val@U?$_Tree_simple_types@U?$pair@$$CBKPAVCGuild@@@std@@@std@@@std@@@std@@_N@1@$$QAU?$pair@$$CBKPAVCGuild@@@1@@Z$2:
  00000	8d 4d ec	 lea	 ecx, DWORD PTR $T4[ebp]
  00003	e9 00 00 00 00	 jmp	 ??1?$_Alloc_construct_ptr@V?$allocator@U?$_Tree_node@U?$pair@$$CBKPAVCGuild@@@std@@PAX@std@@@std@@@std@@QAE@XZ ; std::_Alloc_construct_ptr<std::allocator<std::_Tree_node<std::pair<unsigned long const ,CGuild *>,void *> > >::~_Alloc_construct_ptr<std::allocator<std::_Tree_node<std::pair<unsigned long const ,CGuild *>,void *> > >
  00008	cc		 int	 3
  00009	cc		 int	 3
  0000a	cc		 int	 3
  0000b	cc		 int	 3
  0000c	cc		 int	 3
__ehhandler$??$insert@$0A@$0A@@?$_Tree@V?$_Tmap_traits@KPAVCGuild@@U?$less@K@std@@V?$allocator@U?$pair@$$CBKPAVCGuild@@@std@@@3@$0A@@std@@@std@@QAE?AU?$pair@V?$_Tree_iterator@V?$_Tree_val@U?$_Tree_simple_types@U?$pair@$$CBKPAVCGuild@@@std@@@std@@@std@@@std@@_N@1@$$QAU?$pair@$$CBKPAVCGuild@@@1@@Z:
  0000d	90		 npad	 1
  0000e	90		 npad	 1
  0000f	8b 54 24 08	 mov	 edx, DWORD PTR [esp+8]
  00013	8d 42 0c	 lea	 eax, DWORD PTR [edx+12]
  00016	8b 4a d8	 mov	 ecx, DWORD PTR [edx-40]
  00019	33 c8		 xor	 ecx, eax
  0001b	e8 00 00 00 00	 call	 @__security_check_cookie@4
  00020	b8 00 00 00 00	 mov	 eax, OFFSET __ehfuncinfo$??$insert@$0A@$0A@@?$_Tree@V?$_Tmap_traits@KPAVCGuild@@U?$less@K@std@@V?$allocator@U?$pair@$$CBKPAVCGuild@@@std@@@3@$0A@@std@@@std@@QAE?AU?$pair@V?$_Tree_iterator@V?$_Tree_val@U?$_Tree_simple_types@U?$pair@$$CBKPAVCGuild@@@std@@@std@@@std@@@std@@_N@1@$$QAU?$pair@$$CBKPAVCGuild@@@1@@Z
  00025	e9 00 00 00 00	 jmp	 ___CxxFrameHandler3
text$x	ENDS
??$insert@$0A@$0A@@?$_Tree@V?$_Tmap_traits@KPAVCGuild@@U?$less@K@std@@V?$allocator@U?$pair@$$CBKPAVCGuild@@@std@@@3@$0A@@std@@@std@@QAE?AU?$pair@V?$_Tree_iterator@V?$_Tree_val@U?$_Tree_simple_types@U?$pair@$$CBKPAVCGuild@@@std@@@std@@@std@@@std@@_N@1@$$QAU?$pair@$$CBKPAVCGuild@@@1@@Z ENDP ; std::_Tree<std::_Tmap_traits<unsigned long,CGuild *,std::less<unsigned long>,std::allocator<std::pair<unsigned long const ,CGuild *> >,0> >::insert<0,0>
; Function compile flags: /Ogtp
;	COMDAT ??1?$pair@$$CBV?$basic_string@DU?$char_traits@D@std@@V?$allocator@D@2@@std@@PAVCGuild@@@std@@QAE@XZ
_TEXT	SEGMENT
??1?$pair@$$CBV?$basic_string@DU?$char_traits@D@std@@V?$allocator@D@2@@std@@PAVCGuild@@@std@@QAE@XZ PROC ; std::pair<std::basic_string<char,std::char_traits<char>,std::allocator<char> > const ,CGuild *>::~pair<std::basic_string<char,std::char_traits<char>,std::allocator<char> > const ,CGuild *>, COMDAT
; _this$ = ecx
  00000	e9 00 00 00 00	 jmp	 ??1?$basic_string@DU?$char_traits@D@std@@V?$allocator@D@2@@std@@QAE@XZ ; std::basic_string<char,std::char_traits<char>,std::allocator<char> >::~basic_string<char,std::char_traits<char>,std::allocator<char> >
??1?$pair@$$CBV?$basic_string@DU?$char_traits@D@std@@V?$allocator@D@2@@std@@PAVCGuild@@@std@@QAE@XZ ENDP ; std::pair<std::basic_string<char,std::char_traits<char>,std::allocator<char> > const ,CGuild *>::~pair<std::basic_string<char,std::char_traits<char>,std::allocator<char> > const ,CGuild *>
_TEXT	ENDS
; Function compile flags: /Ogtp
; File C:\Program Files\Microsoft Visual Studio\2022\Professional\VC\Tools\MSVC\14.44.35207\include\xtree
;	COMDAT ??E?$_Tree_unchecked_const_iterator@V?$_Tree_val@U?$_Tree_simple_types@U?$pair@$$CBV?$basic_string@DU?$char_traits@D@std@@V?$allocator@D@2@@std@@PAVCGuild@@@std@@@std@@@std@@U_Iterator_base0@2@@std@@QAEAAV01@XZ
_TEXT	SEGMENT
??E?$_Tree_unchecked_const_iterator@V?$_Tree_val@U?$_Tree_simple_types@U?$pair@$$CBV?$basic_string@DU?$char_traits@D@std@@V?$allocator@D@2@@std@@PAVCGuild@@@std@@@std@@@std@@U_Iterator_base0@2@@std@@QAEAAV01@XZ PROC ; std::_Tree_unchecked_const_iterator<std::_Tree_val<std::_Tree_simple_types<std::pair<std::basic_string<char,std::char_traits<char>,std::allocator<char> > const ,CGuild *> > >,std::_Iterator_base0>::operator++, COMDAT
; _this$ = ecx

; 49   :     _Tree_unchecked_const_iterator& operator++() noexcept {

  00000	56		 push	 esi
  00001	8b f1		 mov	 esi, ecx
  00003	57		 push	 edi

; 50   :         if (_Ptr->_Right->_Isnil) { // climb looking for right subtree

  00004	8b 16		 mov	 edx, DWORD PTR [esi]
  00006	8b 7a 08	 mov	 edi, DWORD PTR [edx+8]
  00009	80 7f 0d 00	 cmp	 BYTE PTR [edi+13], 0
  0000d	74 22		 je	 SHORT $LN4@operator

; 51   :             _Nodeptr _Pnode;
; 52   :             while (!(_Pnode = _Ptr->_Parent)->_Isnil && _Ptr == _Pnode->_Right) {

  0000f	8b 42 04	 mov	 eax, DWORD PTR [edx+4]
  00012	80 78 0d 00	 cmp	 BYTE PTR [eax+13], 0
  00016	75 12		 jne	 SHORT $LN21@operator
$LL2@operator:
  00018	3b 50 08	 cmp	 edx, DWORD PTR [eax+8]
  0001b	75 0d		 jne	 SHORT $LN21@operator

; 53   :                 _Ptr = _Pnode; // ==> parent while right subtree

  0001d	89 06		 mov	 DWORD PTR [esi], eax
  0001f	8b d0		 mov	 edx, eax
  00021	8b 40 04	 mov	 eax, DWORD PTR [eax+4]
  00024	80 78 0d 00	 cmp	 BYTE PTR [eax+13], 0
  00028	74 ee		 je	 SHORT $LL2@operator
$LN21@operator:

; 54   :             }
; 55   : 
; 56   :             _Ptr = _Pnode; // ==> parent (head if end())
; 57   :         } else {
; 58   :             _Ptr = _Mytree::_Min(_Ptr->_Right); // ==> smallest of right subtree
; 59   :         }
; 60   : 
; 61   :         return *this;

  0002a	89 06		 mov	 DWORD PTR [esi], eax

; 62   :     }

  0002c	8b c6		 mov	 eax, esi
  0002e	5f		 pop	 edi
  0002f	5e		 pop	 esi
  00030	c3		 ret	 0
$LN4@operator:

; 476  :         while (!_Pnode->_Left->_Isnil) {

  00031	8b 0f		 mov	 ecx, DWORD PTR [edi]
  00033	80 79 0d 00	 cmp	 BYTE PTR [ecx+13], 0
  00037	75 13		 jne	 SHORT $LN10@operator
  00039	0f 1f 80 00 00
	00 00		 npad	 7
$LL9@operator:
  00040	8b 01		 mov	 eax, DWORD PTR [ecx]

; 477  :             _Pnode = _Pnode->_Left;

  00042	8b f9		 mov	 edi, ecx
  00044	8b c8		 mov	 ecx, eax
  00046	80 78 0d 00	 cmp	 BYTE PTR [eax+13], 0
  0004a	74 f4		 je	 SHORT $LL9@operator
$LN10@operator:

; 54   :             }
; 55   : 
; 56   :             _Ptr = _Pnode; // ==> parent (head if end())
; 57   :         } else {
; 58   :             _Ptr = _Mytree::_Min(_Ptr->_Right); // ==> smallest of right subtree
; 59   :         }
; 60   : 
; 61   :         return *this;

  0004c	89 3e		 mov	 DWORD PTR [esi], edi

; 62   :     }

  0004e	8b c6		 mov	 eax, esi
  00050	5f		 pop	 edi
  00051	5e		 pop	 esi
  00052	c3		 ret	 0
??E?$_Tree_unchecked_const_iterator@V?$_Tree_val@U?$_Tree_simple_types@U?$pair@$$CBV?$basic_string@DU?$char_traits@D@std@@V?$allocator@D@2@@std@@PAVCGuild@@@std@@@std@@@std@@U_Iterator_base0@2@@std@@QAEAAV01@XZ ENDP ; std::_Tree_unchecked_const_iterator<std::_Tree_val<std::_Tree_simple_types<std::pair<std::basic_string<char,std::char_traits<char>,std::allocator<char> > const ,CGuild *> > >,std::_Iterator_base0>::operator++
_TEXT	ENDS
; Function compile flags: /Ogtp
; File C:\Program Files\Microsoft Visual Studio\2022\Professional\VC\Tools\MSVC\14.44.35207\include\xtree
;	COMDAT ??E?$_Tree_unchecked_const_iterator@V?$_Tree_val@U?$_Tree_simple_types@U?$pair@$$CBKPAVCGuild@@@std@@@std@@@std@@U_Iterator_base0@2@@std@@QAEAAV01@XZ
_TEXT	SEGMENT
??E?$_Tree_unchecked_const_iterator@V?$_Tree_val@U?$_Tree_simple_types@U?$pair@$$CBKPAVCGuild@@@std@@@std@@@std@@U_Iterator_base0@2@@std@@QAEAAV01@XZ PROC ; std::_Tree_unchecked_const_iterator<std::_Tree_val<std::_Tree_simple_types<std::pair<unsigned long const ,CGuild *> > >,std::_Iterator_base0>::operator++, COMDAT
; _this$ = ecx

; 49   :     _Tree_unchecked_const_iterator& operator++() noexcept {

  00000	56		 push	 esi
  00001	8b f1		 mov	 esi, ecx
  00003	57		 push	 edi

; 50   :         if (_Ptr->_Right->_Isnil) { // climb looking for right subtree

  00004	8b 16		 mov	 edx, DWORD PTR [esi]
  00006	8b 7a 08	 mov	 edi, DWORD PTR [edx+8]
  00009	80 7f 0d 00	 cmp	 BYTE PTR [edi+13], 0
  0000d	74 22		 je	 SHORT $LN4@operator

; 51   :             _Nodeptr _Pnode;
; 52   :             while (!(_Pnode = _Ptr->_Parent)->_Isnil && _Ptr == _Pnode->_Right) {

  0000f	8b 42 04	 mov	 eax, DWORD PTR [edx+4]
  00012	80 78 0d 00	 cmp	 BYTE PTR [eax+13], 0
  00016	75 12		 jne	 SHORT $LN21@operator
$LL2@operator:
  00018	3b 50 08	 cmp	 edx, DWORD PTR [eax+8]
  0001b	75 0d		 jne	 SHORT $LN21@operator

; 53   :                 _Ptr = _Pnode; // ==> parent while right subtree

  0001d	89 06		 mov	 DWORD PTR [esi], eax
  0001f	8b d0		 mov	 edx, eax
  00021	8b 40 04	 mov	 eax, DWORD PTR [eax+4]
  00024	80 78 0d 00	 cmp	 BYTE PTR [eax+13], 0
  00028	74 ee		 je	 SHORT $LL2@operator
$LN21@operator:

; 54   :             }
; 55   : 
; 56   :             _Ptr = _Pnode; // ==> parent (head if end())
; 57   :         } else {
; 58   :             _Ptr = _Mytree::_Min(_Ptr->_Right); // ==> smallest of right subtree
; 59   :         }
; 60   : 
; 61   :         return *this;

  0002a	89 06		 mov	 DWORD PTR [esi], eax

; 62   :     }

  0002c	8b c6		 mov	 eax, esi
  0002e	5f		 pop	 edi
  0002f	5e		 pop	 esi
  00030	c3		 ret	 0
$LN4@operator:

; 476  :         while (!_Pnode->_Left->_Isnil) {

  00031	8b 0f		 mov	 ecx, DWORD PTR [edi]
  00033	80 79 0d 00	 cmp	 BYTE PTR [ecx+13], 0
  00037	75 13		 jne	 SHORT $LN10@operator
  00039	0f 1f 80 00 00
	00 00		 npad	 7
$LL9@operator:
  00040	8b 01		 mov	 eax, DWORD PTR [ecx]

; 477  :             _Pnode = _Pnode->_Left;

  00042	8b f9		 mov	 edi, ecx
  00044	8b c8		 mov	 ecx, eax
  00046	80 78 0d 00	 cmp	 BYTE PTR [eax+13], 0
  0004a	74 f4		 je	 SHORT $LL9@operator
$LN10@operator:

; 54   :             }
; 55   : 
; 56   :             _Ptr = _Pnode; // ==> parent (head if end())
; 57   :         } else {
; 58   :             _Ptr = _Mytree::_Min(_Ptr->_Right); // ==> smallest of right subtree
; 59   :         }
; 60   : 
; 61   :         return *this;

  0004c	89 3e		 mov	 DWORD PTR [esi], edi

; 62   :     }

  0004e	8b c6		 mov	 eax, esi
  00050	5f		 pop	 edi
  00051	5e		 pop	 esi
  00052	c3		 ret	 0
??E?$_Tree_unchecked_const_iterator@V?$_Tree_val@U?$_Tree_simple_types@U?$pair@$$CBKPAVCGuild@@@std@@@std@@@std@@U_Iterator_base0@2@@std@@QAEAAV01@XZ ENDP ; std::_Tree_unchecked_const_iterator<std::_Tree_val<std::_Tree_simple_types<std::pair<unsigned long const ,CGuild *> > >,std::_Iterator_base0>::operator++
_TEXT	ENDS
; Function compile flags: /Ogtp
; File C:\Program Files\Microsoft Visual Studio\2022\Professional\VC\Tools\MSVC\14.44.35207\include\xtree
; File C:\Program Files\Microsoft Visual Studio\2022\Professional\VC\Tools\MSVC\14.44.35207\include\type_traits
; File C:\Program Files\Microsoft Visual Studio\2022\Professional\VC\Tools\MSVC\14.44.35207\include\xtree
; File C:\Program Files\Microsoft Visual Studio\2022\Professional\VC\Tools\MSVC\14.44.35207\include\utility
; File C:\Program Files\Microsoft Visual Studio\2022\Professional\VC\Tools\MSVC\14.44.35207\include\xtree
; File C:\Program Files\Microsoft Visual Studio\2022\Professional\VC\Tools\MSVC\14.44.35207\include\xmemory
; File C:\Program Files\Microsoft Visual Studio\2022\Professional\VC\Tools\MSVC\14.44.35207\include\xtree
; File C:\Program Files\Microsoft Visual Studio\2022\Professional\VC\Tools\MSVC\14.44.35207\include\xmemory
; File C:\Program Files\Microsoft Visual Studio\2022\Professional\VC\Tools\MSVC\14.44.35207\include\xtree
; File C:\Program Files\Microsoft Visual Studio\2022\Professional\VC\Tools\MSVC\14.44.35207\include\xmemory
; File C:\Program Files\Microsoft Visual Studio\2022\Professional\VC\Tools\MSVC\14.44.35207\include\xtree
; File C:\Program Files\Microsoft Visual Studio\2022\Professional\VC\Tools\MSVC\14.44.35207\include\utility
; File C:\Program Files\Microsoft Visual Studio\2022\Professional\VC\Tools\MSVC\14.44.35207\include\xtree
;	COMDAT ??$insert@$0A@$0A@@?$_Tree@V?$_Tmap_traits@KPAVCGuildMember@@U?$less@K@std@@V?$allocator@U?$pair@$$CBKPAVCGuildMember@@@std@@@3@$0A@@std@@@std@@QAE?AU?$pair@V?$_Tree_iterator@V?$_Tree_val@U?$_Tree_simple_types@U?$pair@$$CBKPAVCGuildMember@@@std@@@std@@@std@@@std@@_N@1@$$QAU?$pair@$$CBKPAVCGuildMember@@@1@@Z
_TEXT	SEGMENT
__Loc$2 = -36						; size = 12
$T3 = -24						; size = 12
$T4 = -20						; size = 8
__$EHRec$ = -12						; size = 12
___$ReturnUdt$ = 8					; size = 4
__Val$ = 12						; size = 4
??$insert@$0A@$0A@@?$_Tree@V?$_Tmap_traits@KPAVCGuildMember@@U?$less@K@std@@V?$allocator@U?$pair@$$CBKPAVCGuildMember@@@std@@@3@$0A@@std@@@std@@QAE?AU?$pair@V?$_Tree_iterator@V?$_Tree_val@U?$_Tree_simple_types@U?$pair@$$CBKPAVCGuildMember@@@std@@@std@@@std@@@std@@_N@1@$$QAU?$pair@$$CBKPAVCGuildMember@@@1@@Z PROC ; std::_Tree<std::_Tmap_traits<unsigned long,CGuildMember *,std::less<unsigned long>,std::allocator<std::pair<unsigned long const ,CGuildMember *> >,0> >::insert<0,0>, COMDAT
; _this$ = ecx

; 1245 :     pair<iterator, bool> insert(value_type&& _Val) {

  00000	55		 push	 ebp
  00001	8b ec		 mov	 ebp, esp
  00003	6a ff		 push	 -1
  00005	68 00 00 00 00	 push	 __ehhandler$??$insert@$0A@$0A@@?$_Tree@V?$_Tmap_traits@KPAVCGuildMember@@U?$less@K@std@@V?$allocator@U?$pair@$$CBKPAVCGuildMember@@@std@@@3@$0A@@std@@@std@@QAE?AU?$pair@V?$_Tree_iterator@V?$_Tree_val@U?$_Tree_simple_types@U?$pair@$$CBKPAVCGuildMember@@@std@@@std@@@std@@@std@@_N@1@$$QAU?$pair@$$CBKPAVCGuildMember@@@1@@Z
  0000a	64 a1 00 00 00
	00		 mov	 eax, DWORD PTR fs:0
  00010	50		 push	 eax
  00011	83 ec 18	 sub	 esp, 24			; 00000018H
  00014	53		 push	 ebx
  00015	56		 push	 esi
  00016	57		 push	 edi
  00017	a1 00 00 00 00	 mov	 eax, DWORD PTR ___security_cookie
  0001c	33 c5		 xor	 eax, ebp
  0001e	50		 push	 eax
  0001f	8d 45 f4	 lea	 eax, DWORD PTR __$EHRec$[ebp]
  00022	64 a3 00 00 00
	00		 mov	 DWORD PTR fs:0, eax
  00028	8b f9		 mov	 edi, ecx

; 1017 :             _Loc                = _Find_lower_bound(_Keyval);

  0002a	8b 5d 0c	 mov	 ebx, DWORD PTR __Val$[ebp]
  0002d	8d 45 e8	 lea	 eax, DWORD PTR $T3[ebp]
  00030	53		 push	 ebx
  00031	50		 push	 eax
  00032	e8 00 00 00 00	 call	 ??$_Find_lower_bound@K@?$_Tree@V?$_Tmap_traits@KPAVCGuildMember@@U?$less@K@std@@V?$allocator@U?$pair@$$CBKPAVCGuildMember@@@std@@@3@$0A@@std@@@std@@IBE?AU?$_Tree_find_result@PAU?$_Tree_node@U?$pair@$$CBKPAVCGuildMember@@@std@@PAX@std@@@1@ABK@Z ; std::_Tree<std::_Tmap_traits<unsigned long,CGuildMember *,std::less<unsigned long>,std::allocator<std::pair<unsigned long const ,CGuildMember *> >,0> >::_Find_lower_bound<unsigned long>
  00037	8b 48 08	 mov	 ecx, DWORD PTR [eax+8]
  0003a	f3 0f 7e 00	 movq	 xmm0, QWORD PTR [eax]
  0003e	66 0f d6 45 dc	 movq	 QWORD PTR __Loc$2[ebp], xmm0

; 1624 :         return !_Bound->_Isnil && !_DEBUG_LT_PRED(_Getcomp(), _Keyval, _Traits::_Kfn(_Bound->_Myval));

  00043	80 79 0d 00	 cmp	 BYTE PTR [ecx+13], 0
  00047	75 0b		 jne	 SHORT $LN4@insert
; File C:\Program Files\Microsoft Visual Studio\2022\Professional\VC\Tools\MSVC\14.44.35207\include\type_traits

; 2380 :         return _Left < _Right;

  00049	8b 03		 mov	 eax, DWORD PTR [ebx]
  0004b	3b 41 10	 cmp	 eax, DWORD PTR [ecx+16]
; File C:\Program Files\Microsoft Visual Studio\2022\Professional\VC\Tools\MSVC\14.44.35207\include\xtree

; 1624 :         return !_Bound->_Isnil && !_DEBUG_LT_PRED(_Getcomp(), _Keyval, _Traits::_Kfn(_Bound->_Myval));

  0004e	72 04		 jb	 SHORT $LN4@insert
; File C:\Program Files\Microsoft Visual Studio\2022\Professional\VC\Tools\MSVC\14.44.35207\include\utility

; 274  :         : first(_STD forward<_Other1>(_Val1)), second(_STD forward<_Other2>(_Val2)) {

  00050	32 d2		 xor	 dl, dl
; File C:\Program Files\Microsoft Visual Studio\2022\Professional\VC\Tools\MSVC\14.44.35207\include\xtree

; 1019 :                 return {_Loc._Bound, false};

  00052	eb 51		 jmp	 SHORT $LN84@insert
$LN4@insert:

; 1648 :         if (max_size() == _Get_scary()->_Mysize) {

  00054	81 7f 04 aa aa
	aa 0a		 cmp	 DWORD PTR [edi+4], 178956970 ; 0aaaaaaaH
  0005b	74 64		 je	 SHORT $LN103@insert

; 1023 :             _Inserted = _Tree_temp_node<_Alnode>(_Getal(), _Scary->_Myhead, _STD forward<_Valtys>(_Vals)...)._Release();

  0005d	8b 37		 mov	 esi, DWORD PTR [edi]
; File C:\Program Files\Microsoft Visual Studio\2022\Professional\VC\Tools\MSVC\14.44.35207\include\xmemory

; 1160 :     _CONSTEXPR20 explicit _Alloc_construct_ptr(_Alloc& _Al_) : _Al(_Al_), _Ptr(nullptr) {}

  0005f	89 7d ec	 mov	 DWORD PTR $T4[ebp], edi

; 136  :         return ::operator new(_Bytes);

  00062	6a 18		 push	 24			; 00000018H
; File C:\Program Files\Microsoft Visual Studio\2022\Professional\VC\Tools\MSVC\14.44.35207\include\xtree

; 808  :     explicit _Tree_temp_node_alloc(_Alnode& _Al_) : _Alloc_construct_ptr<_Alnode>(_Al_) {

  00064	c7 45 fc 00 00
	00 00		 mov	 DWORD PTR __$EHRec$[ebp+8], 0
; File C:\Program Files\Microsoft Visual Studio\2022\Professional\VC\Tools\MSVC\14.44.35207\include\xmemory

; 1167 :         _Ptr = nullptr; // if allocate throws, prevents double-free

  0006b	c7 45 f0 00 00
	00 00		 mov	 DWORD PTR $T4[ebp+4], 0

; 136  :         return ::operator new(_Bytes);

  00072	e8 00 00 00 00	 call	 ??2@YAPAXI@Z		; operator new
; File C:\Program Files\Microsoft Visual Studio\2022\Professional\VC\Tools\MSVC\14.44.35207\include\xtree

; 830  :         _Alnode_traits::construct(this->_Al, _STD addressof(this->_Ptr->_Myval), _STD forward<_Valtys>(_Vals)...);

  00077	8b 0b		 mov	 ecx, DWORD PTR [ebx]
; File C:\Program Files\Microsoft Visual Studio\2022\Professional\VC\Tools\MSVC\14.44.35207\include\xmemory

; 136  :         return ::operator new(_Bytes);

  00079	83 c4 04	 add	 esp, 4
; File C:\Program Files\Microsoft Visual Studio\2022\Professional\VC\Tools\MSVC\14.44.35207\include\xtree

; 830  :         _Alnode_traits::construct(this->_Al, _STD addressof(this->_Ptr->_Myval), _STD forward<_Valtys>(_Vals)...);

  0007c	8b 53 04	 mov	 edx, DWORD PTR [ebx+4]
  0007f	89 48 10	 mov	 DWORD PTR [eax+16], ecx

; 1042 :         return {_Scary->_Insert_node(_Loc._Location, _Inserted), true};

  00082	8b cf		 mov	 ecx, edi
  00084	50		 push	 eax
  00085	ff 75 e0	 push	 DWORD PTR __Loc$2[ebp+4]

; 830  :         _Alnode_traits::construct(this->_Al, _STD addressof(this->_Ptr->_Myval), _STD forward<_Valtys>(_Vals)...);

  00088	89 50 14	 mov	 DWORD PTR [eax+20], edx

; 1042 :         return {_Scary->_Insert_node(_Loc._Location, _Inserted), true};

  0008b	ff 75 dc	 push	 DWORD PTR __Loc$2[ebp]

; 831  :         _Construct_in_place(this->_Ptr->_Left, _Myhead);

  0008e	89 30		 mov	 DWORD PTR [eax], esi

; 832  :         _Construct_in_place(this->_Ptr->_Parent, _Myhead);

  00090	89 70 04	 mov	 DWORD PTR [eax+4], esi

; 833  :         _Construct_in_place(this->_Ptr->_Right, _Myhead);

  00093	89 70 08	 mov	 DWORD PTR [eax+8], esi

; 834  :         this->_Ptr->_Color = _Red;

  00096	66 c7 40 0c 00
	00		 mov	 WORD PTR [eax+12], 0

; 1042 :         return {_Scary->_Insert_node(_Loc._Location, _Inserted), true};

  0009c	e8 00 00 00 00	 call	 ?_Insert_node@?$_Tree_val@U?$_Tree_simple_types@U?$pair@$$CBKPAVCGuildMember@@@std@@@std@@@std@@QAEPAU?$_Tree_node@U?$pair@$$CBKPAVCGuildMember@@@std@@PAX@2@U?$_Tree_id@PAU?$_Tree_node@U?$pair@$$CBKPAVCGuildMember@@@std@@PAX@std@@@2@QAU32@@Z ; std::_Tree_val<std::_Tree_simple_types<std::pair<unsigned long const ,CGuildMember *> > >::_Insert_node
; File C:\Program Files\Microsoft Visual Studio\2022\Professional\VC\Tools\MSVC\14.44.35207\include\utility

; 274  :         : first(_STD forward<_Other1>(_Val1)), second(_STD forward<_Other2>(_Val2)) {

  000a1	8b c8		 mov	 ecx, eax
  000a3	b2 01		 mov	 dl, 1
$LN84@insert:
  000a5	8b 45 08	 mov	 eax, DWORD PTR ___$ReturnUdt$[ebp]
  000a8	89 08		 mov	 DWORD PTR [eax], ecx
  000aa	88 50 04	 mov	 BYTE PTR [eax+4], dl
; File C:\Program Files\Microsoft Visual Studio\2022\Professional\VC\Tools\MSVC\14.44.35207\include\xtree

; 1248 :     }

  000ad	8b 4d f4	 mov	 ecx, DWORD PTR __$EHRec$[ebp]
  000b0	64 89 0d 00 00
	00 00		 mov	 DWORD PTR fs:0, ecx
  000b7	59		 pop	 ecx
  000b8	5f		 pop	 edi
  000b9	5e		 pop	 esi
  000ba	5b		 pop	 ebx
  000bb	8b e5		 mov	 esp, ebp
  000bd	5d		 pop	 ebp
  000be	c2 08 00	 ret	 8
$LN103@insert:

; 1649 :             _Throw_tree_length_error();

  000c1	e8 00 00 00 00	 call	 ?_Throw_tree_length_error@std@@YAXXZ ; std::_Throw_tree_length_error
$LN101@insert:
  000c6	cc		 int	 3
_TEXT	ENDS
;	COMDAT text$x
text$x	SEGMENT
__unwindfunclet$??$insert@$0A@$0A@@?$_Tree@V?$_Tmap_traits@KPAVCGuildMember@@U?$less@K@std@@V?$allocator@U?$pair@$$CBKPAVCGuildMember@@@std@@@3@$0A@@std@@@std@@QAE?AU?$pair@V?$_Tree_iterator@V?$_Tree_val@U?$_Tree_simple_types@U?$pair@$$CBKPAVCGuildMember@@@std@@@std@@@std@@@std@@_N@1@$$QAU?$pair@$$CBKPAVCGuildMember@@@1@@Z$2:
  00000	8d 4d ec	 lea	 ecx, DWORD PTR $T4[ebp]
  00003	e9 00 00 00 00	 jmp	 ??1?$_Alloc_construct_ptr@V?$allocator@U?$_Tree_node@U?$pair@$$CBKPAVCGuildMember@@@std@@PAX@std@@@std@@@std@@QAE@XZ ; std::_Alloc_construct_ptr<std::allocator<std::_Tree_node<std::pair<unsigned long const ,CGuildMember *>,void *> > >::~_Alloc_construct_ptr<std::allocator<std::_Tree_node<std::pair<unsigned long const ,CGuildMember *>,void *> > >
  00008	cc		 int	 3
  00009	cc		 int	 3
  0000a	cc		 int	 3
  0000b	cc		 int	 3
  0000c	cc		 int	 3
__ehhandler$??$insert@$0A@$0A@@?$_Tree@V?$_Tmap_traits@KPAVCGuildMember@@U?$less@K@std@@V?$allocator@U?$pair@$$CBKPAVCGuildMember@@@std@@@3@$0A@@std@@@std@@QAE?AU?$pair@V?$_Tree_iterator@V?$_Tree_val@U?$_Tree_simple_types@U?$pair@$$CBKPAVCGuildMember@@@std@@@std@@@std@@@std@@_N@1@$$QAU?$pair@$$CBKPAVCGuildMember@@@1@@Z:
  0000d	90		 npad	 1
  0000e	90		 npad	 1
  0000f	8b 54 24 08	 mov	 edx, DWORD PTR [esp+8]
  00013	8d 42 0c	 lea	 eax, DWORD PTR [edx+12]
  00016	8b 4a d8	 mov	 ecx, DWORD PTR [edx-40]
  00019	33 c8		 xor	 ecx, eax
  0001b	e8 00 00 00 00	 call	 @__security_check_cookie@4
  00020	b8 00 00 00 00	 mov	 eax, OFFSET __ehfuncinfo$??$insert@$0A@$0A@@?$_Tree@V?$_Tmap_traits@KPAVCGuildMember@@U?$less@K@std@@V?$allocator@U?$pair@$$CBKPAVCGuildMember@@@std@@@3@$0A@@std@@@std@@QAE?AU?$pair@V?$_Tree_iterator@V?$_Tree_val@U?$_Tree_simple_types@U?$pair@$$CBKPAVCGuildMember@@@std@@@std@@@std@@@std@@_N@1@$$QAU?$pair@$$CBKPAVCGuildMember@@@1@@Z
  00025	e9 00 00 00 00	 jmp	 ___CxxFrameHandler3
text$x	ENDS
??$insert@$0A@$0A@@?$_Tree@V?$_Tmap_traits@KPAVCGuildMember@@U?$less@K@std@@V?$allocator@U?$pair@$$CBKPAVCGuildMember@@@std@@@3@$0A@@std@@@std@@QAE?AU?$pair@V?$_Tree_iterator@V?$_Tree_val@U?$_Tree_simple_types@U?$pair@$$CBKPAVCGuildMember@@@std@@@std@@@std@@@std@@_N@1@$$QAU?$pair@$$CBKPAVCGuildMember@@@1@@Z ENDP ; std::_Tree<std::_Tmap_traits<unsigned long,CGuildMember *,std::less<unsigned long>,std::allocator<std::pair<unsigned long const ,CGuildMember *> >,0> >::insert<0,0>
; Function compile flags: /Ogtp
; File C:\Program Files\Microsoft Visual Studio\2022\Professional\VC\Tools\MSVC\14.44.35207\include\xtree
;	COMDAT ??E?$_Tree_unchecked_const_iterator@V?$_Tree_val@U?$_Tree_simple_types@U?$pair@$$CBKPAVCGuildMember@@@std@@@std@@@std@@U_Iterator_base0@2@@std@@QAEAAV01@XZ
_TEXT	SEGMENT
??E?$_Tree_unchecked_const_iterator@V?$_Tree_val@U?$_Tree_simple_types@U?$pair@$$CBKPAVCGuildMember@@@std@@@std@@@std@@U_Iterator_base0@2@@std@@QAEAAV01@XZ PROC ; std::_Tree_unchecked_const_iterator<std::_Tree_val<std::_Tree_simple_types<std::pair<unsigned long const ,CGuildMember *> > >,std::_Iterator_base0>::operator++, COMDAT
; _this$ = ecx

; 49   :     _Tree_unchecked_const_iterator& operator++() noexcept {

  00000	56		 push	 esi
  00001	8b f1		 mov	 esi, ecx
  00003	57		 push	 edi

; 50   :         if (_Ptr->_Right->_Isnil) { // climb looking for right subtree

  00004	8b 16		 mov	 edx, DWORD PTR [esi]
  00006	8b 7a 08	 mov	 edi, DWORD PTR [edx+8]
  00009	80 7f 0d 00	 cmp	 BYTE PTR [edi+13], 0
  0000d	74 22		 je	 SHORT $LN4@operator

; 51   :             _Nodeptr _Pnode;
; 52   :             while (!(_Pnode = _Ptr->_Parent)->_Isnil && _Ptr == _Pnode->_Right) {

  0000f	8b 42 04	 mov	 eax, DWORD PTR [edx+4]
  00012	80 78 0d 00	 cmp	 BYTE PTR [eax+13], 0
  00016	75 12		 jne	 SHORT $LN21@operator
$LL2@operator:
  00018	3b 50 08	 cmp	 edx, DWORD PTR [eax+8]
  0001b	75 0d		 jne	 SHORT $LN21@operator

; 53   :                 _Ptr = _Pnode; // ==> parent while right subtree

  0001d	89 06		 mov	 DWORD PTR [esi], eax
  0001f	8b d0		 mov	 edx, eax
  00021	8b 40 04	 mov	 eax, DWORD PTR [eax+4]
  00024	80 78 0d 00	 cmp	 BYTE PTR [eax+13], 0
  00028	74 ee		 je	 SHORT $LL2@operator
$LN21@operator:

; 54   :             }
; 55   : 
; 56   :             _Ptr = _Pnode; // ==> parent (head if end())
; 57   :         } else {
; 58   :             _Ptr = _Mytree::_Min(_Ptr->_Right); // ==> smallest of right subtree
; 59   :         }
; 60   : 
; 61   :         return *this;

  0002a	89 06		 mov	 DWORD PTR [esi], eax

; 62   :     }

  0002c	8b c6		 mov	 eax, esi
  0002e	5f		 pop	 edi
  0002f	5e		 pop	 esi
  00030	c3		 ret	 0
$LN4@operator:

; 476  :         while (!_Pnode->_Left->_Isnil) {

  00031	8b 0f		 mov	 ecx, DWORD PTR [edi]
  00033	80 79 0d 00	 cmp	 BYTE PTR [ecx+13], 0
  00037	75 13		 jne	 SHORT $LN10@operator
  00039	0f 1f 80 00 00
	00 00		 npad	 7
$LL9@operator:
  00040	8b 01		 mov	 eax, DWORD PTR [ecx]

; 477  :             _Pnode = _Pnode->_Left;

  00042	8b f9		 mov	 edi, ecx
  00044	8b c8		 mov	 ecx, eax
  00046	80 78 0d 00	 cmp	 BYTE PTR [eax+13], 0
  0004a	74 f4		 je	 SHORT $LL9@operator
$LN10@operator:

; 54   :             }
; 55   : 
; 56   :             _Ptr = _Pnode; // ==> parent (head if end())
; 57   :         } else {
; 58   :             _Ptr = _Mytree::_Min(_Ptr->_Right); // ==> smallest of right subtree
; 59   :         }
; 60   : 
; 61   :         return *this;

  0004c	89 3e		 mov	 DWORD PTR [esi], edi

; 62   :     }

  0004e	8b c6		 mov	 eax, esi
  00050	5f		 pop	 edi
  00051	5e		 pop	 esi
  00052	c3		 ret	 0
??E?$_Tree_unchecked_const_iterator@V?$_Tree_val@U?$_Tree_simple_types@U?$pair@$$CBKPAVCGuildMember@@@std@@@std@@@std@@U_Iterator_base0@2@@std@@QAEAAV01@XZ ENDP ; std::_Tree_unchecked_const_iterator<std::_Tree_val<std::_Tree_simple_types<std::pair<unsigned long const ,CGuildMember *> > >,std::_Iterator_base0>::operator++
_TEXT	ENDS
; Function compile flags: /Ogtp
; File C:\IAGOS\server\v18\Source\Source\_Network\Misc\Include\ar.h
;	COMDAT ??$?5F@CAr@@QAEAAV0@AAF@Z
_TEXT	SEGMENT
_t$ = 8							; size = 4
??$?5F@CAr@@QAEAAV0@AAF@Z PROC				; CAr::operator>><short>, COMDAT
; _this$ = ecx

; 302  : {

  00000	55		 push	 ebp
  00001	8b ec		 mov	 ebp, esp
  00003	8b d1		 mov	 edx, ecx

; 303  : 	if (m_lpBufCur + sizeof(T) <= m_lpBufMax)

  00005	8b 4a 08	 mov	 ecx, DWORD PTR [edx+8]
  00008	8d 41 02	 lea	 eax, DWORD PTR [ecx+2]
  0000b	3b 42 0c	 cmp	 eax, DWORD PTR [edx+12]
  0000e	8b 45 08	 mov	 eax, DWORD PTR _t$[ebp]
  00011	77 10		 ja	 SHORT $LN2@operator

; 304  : 	{
; 305  : 		t = *(UNALIGNED T*)m_lpBufCur;

  00013	66 8b 09	 mov	 cx, WORD PTR [ecx]
  00016	66 89 08	 mov	 WORD PTR [eax], cx

; 312  : 	}
; 313  : 	return *this;
; 314  : }

  00019	8b c2		 mov	 eax, edx
  0001b	83 42 08 02	 add	 DWORD PTR [edx+8], 2
  0001f	5d		 pop	 ebp
  00020	c2 04 00	 ret	 4
$LN2@operator:

; 306  : 		m_lpBufCur += sizeof(T);
; 307  : 	}
; 308  : 	else
; 309  : 	{
; 310  : 		t = T();

  00023	33 c9		 xor	 ecx, ecx
  00025	66 89 08	 mov	 WORD PTR [eax], cx

; 311  : 		m_lpBufCur = m_lpBufMax;

  00028	8b 42 0c	 mov	 eax, DWORD PTR [edx+12]
  0002b	89 42 08	 mov	 DWORD PTR [edx+8], eax

; 312  : 	}
; 313  : 	return *this;
; 314  : }

  0002e	8b c2		 mov	 eax, edx
  00030	5d		 pop	 ebp
  00031	c2 04 00	 ret	 4
??$?5F@CAr@@QAEAAV0@AAF@Z ENDP				; CAr::operator>><short>
_TEXT	ENDS
; Function compile flags: /Ogtp
; File C:\IAGOS\server\v18\Source\Source\_Network\Misc\Include\ar.h
;	COMDAT ??$?6F@CAr@@QAEAAV0@ABF@Z
_TEXT	SEGMENT
_t$ = 8							; size = 4
??$?6F@CAr@@QAEAAV0@ABF@Z PROC				; CAr::operator<<<short>, COMDAT
; _this$ = ecx

; 255  : {

  00000	55		 push	 ebp
  00001	8b ec		 mov	 ebp, esp
  00003	56		 push	 esi

; 256  : 	CheckBuf(sizeof(T));

  00004	6a 02		 push	 2
  00006	8b f1		 mov	 esi, ecx
  00008	e8 00 00 00 00	 call	 ?CheckBuf@CAr@@QAEXI@Z	; CAr::CheckBuf

; 257  : 	*(UNALIGNED T*)m_lpBufCur = t;

  0000d	8b 45 08	 mov	 eax, DWORD PTR _t$[ebp]
  00010	8b 56 08	 mov	 edx, DWORD PTR [esi+8]
  00013	66 8b 00	 mov	 ax, WORD PTR [eax]
  00016	66 89 02	 mov	 WORD PTR [edx], ax

; 258  : 	m_lpBufCur += sizeof(T);
; 259  : 	return *this;

  00019	8b c6		 mov	 eax, esi
  0001b	83 46 08 02	 add	 DWORD PTR [esi+8], 2
  0001f	5e		 pop	 esi

; 260  : }

  00020	5d		 pop	 ebp
  00021	c2 04 00	 ret	 4
??$?6F@CAr@@QAEAAV0@ABF@Z ENDP				; CAr::operator<<<short>
_TEXT	ENDS
; Function compile flags: /Ogtp
;	COMDAT ??__Ftable@?1??GetInstance@CGuildTable@@SAAAV1@XZ@YAXXZ
text$yd	SEGMENT
??__Ftable@?1??GetInstance@CGuildTable@@SAAAV1@XZ@YAXXZ PROC ; `CGuildTable::GetInstance'::`2'::`dynamic atexit destructor for 'table'', COMDAT
  00000	b9 00 00 00 00	 mov	 ecx, OFFSET ?table@?1??GetInstance@CGuildTable@@SAAAV2@XZ@4V2@A
  00005	e9 00 00 00 00	 jmp	 ??1CGuildTable@@UAE@XZ	; CGuildTable::~CGuildTable
??__Ftable@?1??GetInstance@CGuildTable@@SAAAV1@XZ@YAXXZ ENDP ; `CGuildTable::GetInstance'::`2'::`dynamic atexit destructor for 'table''
text$yd	ENDS
; Function compile flags: /Ogtp
; File C:\IAGOS\server\v18\Source\Source\_Network\Misc\Include\ar.h
;	COMDAT ??$?5E@CAr@@QAEAAV0@AAE@Z
_TEXT	SEGMENT
_t$ = 8							; size = 4
??$?5E@CAr@@QAEAAV0@AAE@Z PROC				; CAr::operator>><unsigned char>, COMDAT
; _this$ = ecx

; 302  : {

  00000	55		 push	 ebp
  00001	8b ec		 mov	 ebp, esp
  00003	8b d1		 mov	 edx, ecx

; 303  : 	if (m_lpBufCur + sizeof(T) <= m_lpBufMax)

  00005	8b 4a 08	 mov	 ecx, DWORD PTR [edx+8]
  00008	8d 41 01	 lea	 eax, DWORD PTR [ecx+1]
  0000b	3b 42 0c	 cmp	 eax, DWORD PTR [edx+12]
  0000e	8b 45 08	 mov	 eax, DWORD PTR _t$[ebp]
  00011	77 0d		 ja	 SHORT $LN2@operator

; 304  : 	{
; 305  : 		t = *(UNALIGNED T*)m_lpBufCur;

  00013	8a 09		 mov	 cl, BYTE PTR [ecx]
  00015	88 08		 mov	 BYTE PTR [eax], cl

; 312  : 	}
; 313  : 	return *this;
; 314  : }

  00017	8b c2		 mov	 eax, edx
  00019	ff 42 08	 inc	 DWORD PTR [edx+8]
  0001c	5d		 pop	 ebp
  0001d	c2 04 00	 ret	 4
$LN2@operator:

; 306  : 		m_lpBufCur += sizeof(T);
; 307  : 	}
; 308  : 	else
; 309  : 	{
; 310  : 		t = T();

  00020	c6 00 00	 mov	 BYTE PTR [eax], 0

; 311  : 		m_lpBufCur = m_lpBufMax;

  00023	8b 42 0c	 mov	 eax, DWORD PTR [edx+12]
  00026	89 42 08	 mov	 DWORD PTR [edx+8], eax

; 312  : 	}
; 313  : 	return *this;
; 314  : }

  00029	8b c2		 mov	 eax, edx
  0002b	5d		 pop	 ebp
  0002c	c2 04 00	 ret	 4
??$?5E@CAr@@QAEAAV0@AAE@Z ENDP				; CAr::operator>><unsigned char>
_TEXT	ENDS
; Function compile flags: /Ogtp
; File C:\IAGOS\server\v18\Source\Source\_Network\Misc\Include\ar.h
;	COMDAT ??$?6E@CAr@@QAEAAV0@ABE@Z
_TEXT	SEGMENT
_t$ = 8							; size = 4
??$?6E@CAr@@QAEAAV0@ABE@Z PROC				; CAr::operator<<<unsigned char>, COMDAT
; _this$ = ecx

; 255  : {

  00000	55		 push	 ebp
  00001	8b ec		 mov	 ebp, esp
  00003	56		 push	 esi

; 256  : 	CheckBuf(sizeof(T));

  00004	6a 01		 push	 1
  00006	8b f1		 mov	 esi, ecx
  00008	e8 00 00 00 00	 call	 ?CheckBuf@CAr@@QAEXI@Z	; CAr::CheckBuf

; 257  : 	*(UNALIGNED T*)m_lpBufCur = t;

  0000d	8b 45 08	 mov	 eax, DWORD PTR _t$[ebp]
  00010	8b 56 08	 mov	 edx, DWORD PTR [esi+8]
  00013	8a 00		 mov	 al, BYTE PTR [eax]
  00015	88 02		 mov	 BYTE PTR [edx], al

; 258  : 	m_lpBufCur += sizeof(T);
; 259  : 	return *this;

  00017	8b c6		 mov	 eax, esi
  00019	ff 46 08	 inc	 DWORD PTR [esi+8]
  0001c	5e		 pop	 esi

; 260  : }

  0001d	5d		 pop	 ebp
  0001e	c2 04 00	 ret	 4
??$?6E@CAr@@QAEAAV0@ABE@Z ENDP				; CAr::operator<<<unsigned char>
_TEXT	ENDS
; Function compile flags: /Ogtp
; File C:\IAGOS\server\v18\Source\Source\_Network\Misc\Include\ar.h
;	COMDAT ??$?5H@CAr@@QAEAAV0@AAH@Z
_TEXT	SEGMENT
_t$ = 8							; size = 4
??$?5H@CAr@@QAEAAV0@AAH@Z PROC				; CAr::operator>><int>, COMDAT
; _this$ = ecx

; 302  : {

  00000	55		 push	 ebp
  00001	8b ec		 mov	 ebp, esp
  00003	8b d1		 mov	 edx, ecx

; 303  : 	if (m_lpBufCur + sizeof(T) <= m_lpBufMax)

  00005	8b 4a 08	 mov	 ecx, DWORD PTR [edx+8]
  00008	8d 41 04	 lea	 eax, DWORD PTR [ecx+4]
  0000b	3b 42 0c	 cmp	 eax, DWORD PTR [edx+12]
  0000e	8b 45 08	 mov	 eax, DWORD PTR _t$[ebp]
  00011	77 0e		 ja	 SHORT $LN2@operator

; 304  : 	{
; 305  : 		t = *(UNALIGNED T*)m_lpBufCur;

  00013	8b 09		 mov	 ecx, DWORD PTR [ecx]
  00015	89 08		 mov	 DWORD PTR [eax], ecx

; 312  : 	}
; 313  : 	return *this;
; 314  : }

  00017	8b c2		 mov	 eax, edx
  00019	83 42 08 04	 add	 DWORD PTR [edx+8], 4
  0001d	5d		 pop	 ebp
  0001e	c2 04 00	 ret	 4
$LN2@operator:

; 306  : 		m_lpBufCur += sizeof(T);
; 307  : 	}
; 308  : 	else
; 309  : 	{
; 310  : 		t = T();

  00021	c7 00 00 00 00
	00		 mov	 DWORD PTR [eax], 0

; 311  : 		m_lpBufCur = m_lpBufMax;

  00027	8b 42 0c	 mov	 eax, DWORD PTR [edx+12]
  0002a	89 42 08	 mov	 DWORD PTR [edx+8], eax

; 312  : 	}
; 313  : 	return *this;
; 314  : }

  0002d	8b c2		 mov	 eax, edx
  0002f	5d		 pop	 ebp
  00030	c2 04 00	 ret	 4
??$?5H@CAr@@QAEAAV0@AAH@Z ENDP				; CAr::operator>><int>
_TEXT	ENDS
; Function compile flags: /Ogtp
; File C:\IAGOS\server\v18\Source\Source\_Network\Misc\Include\ar.h
;	COMDAT ??$?5G@CAr@@QAEAAV0@AAG@Z
_TEXT	SEGMENT
_t$ = 8							; size = 4
??$?5G@CAr@@QAEAAV0@AAG@Z PROC				; CAr::operator>><unsigned short>, COMDAT
; _this$ = ecx

; 302  : {

  00000	55		 push	 ebp
  00001	8b ec		 mov	 ebp, esp
  00003	8b d1		 mov	 edx, ecx

; 303  : 	if (m_lpBufCur + sizeof(T) <= m_lpBufMax)

  00005	8b 4a 08	 mov	 ecx, DWORD PTR [edx+8]
  00008	8d 41 02	 lea	 eax, DWORD PTR [ecx+2]
  0000b	3b 42 0c	 cmp	 eax, DWORD PTR [edx+12]
  0000e	8b 45 08	 mov	 eax, DWORD PTR _t$[ebp]
  00011	77 10		 ja	 SHORT $LN2@operator

; 304  : 	{
; 305  : 		t = *(UNALIGNED T*)m_lpBufCur;

  00013	66 8b 09	 mov	 cx, WORD PTR [ecx]
  00016	66 89 08	 mov	 WORD PTR [eax], cx

; 312  : 	}
; 313  : 	return *this;
; 314  : }

  00019	8b c2		 mov	 eax, edx
  0001b	83 42 08 02	 add	 DWORD PTR [edx+8], 2
  0001f	5d		 pop	 ebp
  00020	c2 04 00	 ret	 4
$LN2@operator:

; 306  : 		m_lpBufCur += sizeof(T);
; 307  : 	}
; 308  : 	else
; 309  : 	{
; 310  : 		t = T();

  00023	33 c9		 xor	 ecx, ecx
  00025	66 89 08	 mov	 WORD PTR [eax], cx

; 311  : 		m_lpBufCur = m_lpBufMax;

  00028	8b 42 0c	 mov	 eax, DWORD PTR [edx+12]
  0002b	89 42 08	 mov	 DWORD PTR [edx+8], eax

; 312  : 	}
; 313  : 	return *this;
; 314  : }

  0002e	8b c2		 mov	 eax, edx
  00030	5d		 pop	 ebp
  00031	c2 04 00	 ret	 4
??$?5G@CAr@@QAEAAV0@AAG@Z ENDP				; CAr::operator>><unsigned short>
_TEXT	ENDS
; Function compile flags: /Ogtp
; File C:\IAGOS\server\v18\Source\Source\_Network\Misc\Include\ar.h
;	COMDAT ??$?6H@CAr@@QAEAAV0@ABH@Z
_TEXT	SEGMENT
_t$ = 8							; size = 4
??$?6H@CAr@@QAEAAV0@ABH@Z PROC				; CAr::operator<<<int>, COMDAT
; _this$ = ecx

; 255  : {

  00000	55		 push	 ebp
  00001	8b ec		 mov	 ebp, esp
  00003	56		 push	 esi

; 256  : 	CheckBuf(sizeof(T));

  00004	6a 04		 push	 4
  00006	8b f1		 mov	 esi, ecx
  00008	e8 00 00 00 00	 call	 ?CheckBuf@CAr@@QAEXI@Z	; CAr::CheckBuf

; 257  : 	*(UNALIGNED T*)m_lpBufCur = t;

  0000d	8b 56 08	 mov	 edx, DWORD PTR [esi+8]
  00010	8b 45 08	 mov	 eax, DWORD PTR _t$[ebp]
  00013	8b 00		 mov	 eax, DWORD PTR [eax]
  00015	89 02		 mov	 DWORD PTR [edx], eax

; 258  : 	m_lpBufCur += sizeof(T);
; 259  : 	return *this;

  00017	8b c6		 mov	 eax, esi
  00019	83 46 08 04	 add	 DWORD PTR [esi+8], 4
  0001d	5e		 pop	 esi

; 260  : }

  0001e	5d		 pop	 ebp
  0001f	c2 04 00	 ret	 4
??$?6H@CAr@@QAEAAV0@ABH@Z ENDP				; CAr::operator<<<int>
_TEXT	ENDS
; Function compile flags: /Ogtp
; File C:\IAGOS\server\v18\Source\Source\_Network\Misc\Include\ar.h
;	COMDAT ??$?6G@CAr@@QAEAAV0@ABG@Z
_TEXT	SEGMENT
_t$ = 8							; size = 4
??$?6G@CAr@@QAEAAV0@ABG@Z PROC				; CAr::operator<<<unsigned short>, COMDAT
; _this$ = ecx

; 255  : {

  00000	55		 push	 ebp
  00001	8b ec		 mov	 ebp, esp
  00003	56		 push	 esi

; 256  : 	CheckBuf(sizeof(T));

  00004	6a 02		 push	 2
  00006	8b f1		 mov	 esi, ecx
  00008	e8 00 00 00 00	 call	 ?CheckBuf@CAr@@QAEXI@Z	; CAr::CheckBuf

; 257  : 	*(UNALIGNED T*)m_lpBufCur = t;

  0000d	8b 45 08	 mov	 eax, DWORD PTR _t$[ebp]
  00010	8b 56 08	 mov	 edx, DWORD PTR [esi+8]
  00013	66 8b 00	 mov	 ax, WORD PTR [eax]
  00016	66 89 02	 mov	 WORD PTR [edx], ax

; 258  : 	m_lpBufCur += sizeof(T);
; 259  : 	return *this;

  00019	8b c6		 mov	 eax, esi
  0001b	83 46 08 02	 add	 DWORD PTR [esi+8], 2
  0001f	5e		 pop	 esi

; 260  : }

  00020	5d		 pop	 ebp
  00021	c2 04 00	 ret	 4
??$?6G@CAr@@QAEAAV0@ABG@Z ENDP				; CAr::operator<<<unsigned short>
_TEXT	ENDS
; Function compile flags: /Ogtp
; File C:\IAGOS\server\v18\Source\Source\_Network\Misc\Include\ar.h
;	COMDAT ??$?5K@CAr@@QAEAAV0@AAK@Z
_TEXT	SEGMENT
_t$ = 8							; size = 4
??$?5K@CAr@@QAEAAV0@AAK@Z PROC				; CAr::operator>><unsigned long>, COMDAT
; _this$ = ecx

; 302  : {

  00000	55		 push	 ebp
  00001	8b ec		 mov	 ebp, esp
  00003	8b d1		 mov	 edx, ecx

; 303  : 	if (m_lpBufCur + sizeof(T) <= m_lpBufMax)

  00005	8b 4a 08	 mov	 ecx, DWORD PTR [edx+8]
  00008	8d 41 04	 lea	 eax, DWORD PTR [ecx+4]
  0000b	3b 42 0c	 cmp	 eax, DWORD PTR [edx+12]
  0000e	8b 45 08	 mov	 eax, DWORD PTR _t$[ebp]
  00011	77 0e		 ja	 SHORT $LN2@operator

; 304  : 	{
; 305  : 		t = *(UNALIGNED T*)m_lpBufCur;

  00013	8b 09		 mov	 ecx, DWORD PTR [ecx]
  00015	89 08		 mov	 DWORD PTR [eax], ecx

; 312  : 	}
; 313  : 	return *this;
; 314  : }

  00017	8b c2		 mov	 eax, edx
  00019	83 42 08 04	 add	 DWORD PTR [edx+8], 4
  0001d	5d		 pop	 ebp
  0001e	c2 04 00	 ret	 4
$LN2@operator:

; 306  : 		m_lpBufCur += sizeof(T);
; 307  : 	}
; 308  : 	else
; 309  : 	{
; 310  : 		t = T();

  00021	c7 00 00 00 00
	00		 mov	 DWORD PTR [eax], 0

; 311  : 		m_lpBufCur = m_lpBufMax;

  00027	8b 42 0c	 mov	 eax, DWORD PTR [edx+12]
  0002a	89 42 08	 mov	 DWORD PTR [edx+8], eax

; 312  : 	}
; 313  : 	return *this;
; 314  : }

  0002d	8b c2		 mov	 eax, edx
  0002f	5d		 pop	 ebp
  00030	c2 04 00	 ret	 4
??$?5K@CAr@@QAEAAV0@AAK@Z ENDP				; CAr::operator>><unsigned long>
_TEXT	ENDS
; Function compile flags: /Ogtp
; File C:\IAGOS\server\v18\Source\Source\_Network\Misc\Include\ar.h
;	COMDAT ??$?6K@CAr@@QAEAAV0@ABK@Z
_TEXT	SEGMENT
_t$ = 8							; size = 4
??$?6K@CAr@@QAEAAV0@ABK@Z PROC				; CAr::operator<<<unsigned long>, COMDAT
; _this$ = ecx

; 255  : {

  00000	55		 push	 ebp
  00001	8b ec		 mov	 ebp, esp
  00003	56		 push	 esi

; 256  : 	CheckBuf(sizeof(T));

  00004	6a 04		 push	 4
  00006	8b f1		 mov	 esi, ecx
  00008	e8 00 00 00 00	 call	 ?CheckBuf@CAr@@QAEXI@Z	; CAr::CheckBuf

; 257  : 	*(UNALIGNED T*)m_lpBufCur = t;

  0000d	8b 56 08	 mov	 edx, DWORD PTR [esi+8]
  00010	8b 45 08	 mov	 eax, DWORD PTR _t$[ebp]
  00013	8b 00		 mov	 eax, DWORD PTR [eax]
  00015	89 02		 mov	 DWORD PTR [edx], eax

; 258  : 	m_lpBufCur += sizeof(T);
; 259  : 	return *this;

  00017	8b c6		 mov	 eax, esi
  00019	83 46 08 04	 add	 DWORD PTR [esi+8], 4
  0001d	5e		 pop	 esi

; 260  : }

  0001e	5d		 pop	 ebp
  0001f	c2 04 00	 ret	 4
??$?6K@CAr@@QAEAAV0@ABK@Z ENDP				; CAr::operator<<<unsigned long>
_TEXT	ENDS
; Function compile flags: /Ogtp
;	COMDAT ??_GCGuildMng@@UAEPAXI@Z
_TEXT	SEGMENT
___flags$ = 8						; size = 4
??_GCGuildMng@@UAEPAXI@Z PROC				; CGuildMng::`scalar deleting destructor', COMDAT
; _this$ = ecx
  00000	55		 push	 ebp
  00001	8b ec		 mov	 ebp, esp
  00003	56		 push	 esi
  00004	8b f1		 mov	 esi, ecx
  00006	e8 00 00 00 00	 call	 ??1CGuildMng@@UAE@XZ	; CGuildMng::~CGuildMng
  0000b	f6 45 08 01	 test	 BYTE PTR ___flags$[ebp], 1
  0000f	74 0b		 je	 SHORT $LN5@scalar
  00011	6a 1c		 push	 28			; 0000001cH
  00013	56		 push	 esi
  00014	e8 00 00 00 00	 call	 ??3@YAXPAXI@Z		; operator delete
  00019	83 c4 08	 add	 esp, 8
$LN5@scalar:
  0001c	8b c6		 mov	 eax, esi
  0001e	5e		 pop	 esi
  0001f	5d		 pop	 ebp
  00020	c2 04 00	 ret	 4
??_GCGuildMng@@UAEPAXI@Z ENDP				; CGuildMng::`scalar deleting destructor'
_TEXT	ENDS
; Function compile flags: /Ogtp
; File C:\IAGOS\server\v18\Source\Source\_common\guild.cpp
; File C:\Program Files\Microsoft Visual Studio\2022\Professional\VC\Tools\MSVC\14.44.35207\atlmfc\include\atltime.h
; File C:\IAGOS\server\v18\Source\Source\_common\guild.cpp
; File C:\Program Files\Microsoft Visual Studio\2022\Professional\VC\Tools\MSVC\14.44.35207\atlmfc\include\atltime.h
; File C:\IAGOS\server\v18\Source\Source\_common\guild.cpp
; File C:\Program Files\Microsoft Visual Studio\2022\Professional\VC\Tools\MSVC\14.44.35207\include\xtree
; File C:\IAGOS\server\v18\Source\Source\_common\guild.cpp
; File C:\Program Files\Microsoft Visual Studio\2022\Professional\VC\Tools\MSVC\14.44.35207\include\xtree
; File C:\IAGOS\server\v18\Source\Source\_common\guild.cpp
; File C:\Program Files\Microsoft Visual Studio\2022\Professional\VC\Tools\MSVC\14.44.35207\include\xtree
; File C:\IAGOS\server\v18\Source\Source\_common\guild.cpp
; File C:\Program Files\Microsoft Visual Studio\2022\Professional\VC\Tools\MSVC\14.44.35207\include\xtree
; File C:\IAGOS\server\v18\Source\Source\_common\guild.cpp
; File C:\Program Files\Microsoft Visual Studio\2022\Professional\VC\Tools\MSVC\14.44.35207\include\xtree
; File C:\IAGOS\server\v18\Source\Source\_common\guild.cpp
; File C:\Program Files\Microsoft Visual Studio\2022\Professional\VC\Tools\MSVC\14.44.35207\include\xtree
; File C:\IAGOS\server\v18\Source\Source\_common\guild.cpp
; File C:\Program Files\Microsoft Visual Studio\2022\Professional\VC\Tools\MSVC\14.44.35207\include\xtree
; File C:\IAGOS\server\v18\Source\Source\_common\guild.cpp
; File C:\Program Files\Microsoft Visual Studio\2022\Professional\VC\Tools\MSVC\14.44.35207\include\xtree
; File C:\IAGOS\server\v18\Source\Source\_common\guild.cpp
; File C:\Program Files\Microsoft Visual Studio\2022\Professional\VC\Tools\MSVC\14.44.35207\include\xtree
; File C:\IAGOS\server\v18\Source\Source\_common\guild.cpp
;	COMDAT ?Process@CGuildMng@@QAEXXZ
_TEXT	SEGMENT
_ttm$1 = -96						; size = 36
_timeCurr$ = -60					; size = 8
_this$GSCopy$1$ = -52					; size = 4
_i$2 = -48						; size = 4
_i$3 = -44						; size = 4
_i$4 = -44						; size = 4
_ptmTemp$5 = -40					; size = 36
_ptmTemp$6 = -40					; size = 36
__$ArrayPad$ = -4					; size = 4
?Process@CGuildMng@@QAEXXZ PROC				; CGuildMng::Process, COMDAT
; _this$ = ecx

; 1090 : {

  00000	55		 push	 ebp
  00001	8b ec		 mov	 ebp, esp
  00003	83 ec 60	 sub	 esp, 96			; 00000060H
  00006	a1 00 00 00 00	 mov	 eax, DWORD PTR ___security_cookie
  0000b	33 c5		 xor	 eax, ebp
  0000d	89 45 fc	 mov	 DWORD PTR __$ArrayPad$[ebp], eax
  00010	56		 push	 esi
  00011	57		 push	 edi
  00012	8b f9		 mov	 edi, ecx
; File C:\Program Files\Microsoft Visual Studio\2022\Professional\VC\Tools\MSVC\14.44.35207\atlmfc\include\atltime.h

; 377  : 	return( CTime( ::_time64( NULL ) ) );

  00014	6a 00		 push	 0
; File C:\IAGOS\server\v18\Source\Source\_common\guild.cpp

; 1090 : {

  00016	89 7d cc	 mov	 DWORD PTR _this$GSCopy$1$[ebp], edi
; File C:\Program Files\Microsoft Visual Studio\2022\Professional\VC\Tools\MSVC\14.44.35207\atlmfc\include\atltime.h

; 377  : 	return( CTime( ::_time64( NULL ) ) );

  00019	e8 00 00 00 00	 call	 __time64

; 420  : 	m_time( time )

  0001e	89 45 c4	 mov	 DWORD PTR _timeCurr$[ebp], eax

; 617  : 		errno_t err = _localtime64_s(&ptmTemp, &m_time);

  00021	8d 45 c4	 lea	 eax, DWORD PTR _timeCurr$[ebp]
  00024	50		 push	 eax
  00025	8d 45 d8	 lea	 eax, DWORD PTR _ptmTemp$5[ebp]

; 420  : 	m_time( time )

  00028	89 55 c8	 mov	 DWORD PTR _timeCurr$[ebp+4], edx

; 617  : 		errno_t err = _localtime64_s(&ptmTemp, &m_time);

  0002b	50		 push	 eax
  0002c	e8 00 00 00 00	 call	 __localtime64_s
  00031	83 c4 0c	 add	 esp, 12			; 0000000cH

; 618  : 
; 619  : 		if (err != 0)

  00034	85 c0		 test	 eax, eax
  00036	74 05		 je	 SHORT $LN118@Process

; 692  : 	return ptm ? ptm->tm_hour : -1 ;

  00038	83 ce ff	 or	 esi, -1
  0003b	eb 1c		 jmp	 SHORT $LN108@Process
$LN118@Process:

; 624  : 		*ptm = ptmTemp;

  0003d	0f 10 45 d8	 movups	 xmm0, XMMWORD PTR _ptmTemp$5[ebp]
  00041	8b 45 f8	 mov	 eax, DWORD PTR _ptmTemp$5[ebp+32]

; 625  : 		return ptm;

  00044	8d 75 a0	 lea	 esi, DWORD PTR _ttm$1[ebp]
  00047	89 45 c0	 mov	 DWORD PTR _ttm$1[ebp+32], eax
  0004a	0f 11 45 a0	 movups	 XMMWORD PTR _ttm$1[ebp], xmm0
  0004e	0f 10 45 e8	 movups	 xmm0, XMMWORD PTR _ptmTemp$5[ebp+16]
  00052	0f 11 45 b0	 movups	 XMMWORD PTR _ttm$1[ebp+16], xmm0

; 692  : 	return ptm ? ptm->tm_hour : -1 ;

  00056	8b 76 08	 mov	 esi, DWORD PTR [esi+8]
$LN108@Process:

; 617  : 		errno_t err = _localtime64_s(&ptmTemp, &m_time);

  00059	8d 45 c4	 lea	 eax, DWORD PTR _timeCurr$[ebp]
  0005c	50		 push	 eax
  0005d	8d 45 d8	 lea	 eax, DWORD PTR _ptmTemp$6[ebp]
  00060	50		 push	 eax
  00061	e8 00 00 00 00	 call	 __localtime64_s
  00066	83 c4 08	 add	 esp, 8
; File C:\IAGOS\server\v18\Source\Source\_common\guild.cpp

; 1094 : 	if( m_bSendPay == FALSE && nHour == 21 )

  00069	83 7f 18 00	 cmp	 DWORD PTR [edi+24], 0
  0006d	0f 85 c1 00 00
	00		 jne	 $LN203@Process
  00073	83 fe 15	 cmp	 esi, 21			; 00000015H
  00076	0f 85 f8 00 00
	00		 jne	 $LN15@Process

; 1095 : 	{
; 1096 : 		m_bSendPay = TRUE;

  0007c	c7 47 18 01 00
	00 00		 mov	 DWORD PTR [edi+24], 1
; File C:\Program Files\Microsoft Visual Studio\2022\Professional\VC\Tools\MSVC\14.44.35207\include\xtree

; 1142 :         return iterator(_Scary->_Myhead->_Left, _Scary);

  00083	8b 4f 08	 mov	 ecx, DWORD PTR [edi+8]

; 37   :     _Tree_unchecked_const_iterator(_Nodeptr _Pnode, const _Mytree* _Plist) noexcept : _Ptr(_Pnode) {

  00086	8b 01		 mov	 eax, DWORD PTR [ecx]
  00088	89 45 d4	 mov	 DWORD PTR _i$3[ebp], eax

; 237  :         return !(*this == _Right);

  0008b	3b c1		 cmp	 eax, ecx
; File C:\IAGOS\server\v18\Source\Source\_common\guild.cpp

; 1099 : 		for( map<u_long, CGuild*>::iterator i = m_mapPGuild.begin(); i != m_mapPGuild.end(); ++i )

  0008d	0f 84 e1 00 00
	00		 je	 $LN15@Process
  00093	53		 push	 ebx
$LL4@Process:

; 1100 : 		{
; 1101 : 			pGuild = i->second;

  00094	8b 78 14	 mov	 edi, DWORD PTR [eax+20]

; 1102 : 			if( pGuild->m_bSendPay == FALSE )

  00097	83 bf 00 01 00
	00 00		 cmp	 DWORD PTR [edi+256], 0
  0009e	75 6c		 jne	 SHORT $LN2@Process
; File C:\Program Files\Microsoft Visual Studio\2022\Professional\VC\Tools\MSVC\14.44.35207\include\xtree

; 1142 :         return iterator(_Scary->_Myhead->_Left, _Scary);

  000a0	8b 5f 38	 mov	 ebx, DWORD PTR [edi+56]
; File C:\IAGOS\server\v18\Source\Source\_common\guild.cpp

; 1104 : 				dwPay = 0;		

  000a3	33 f6		 xor	 esi, esi
; File C:\Program Files\Microsoft Visual Studio\2022\Professional\VC\Tools\MSVC\14.44.35207\include\xtree

; 37   :     _Tree_unchecked_const_iterator(_Nodeptr _Pnode, const _Mytree* _Plist) noexcept : _Ptr(_Pnode) {

  000a5	8b 03		 mov	 eax, DWORD PTR [ebx]
  000a7	89 45 d0	 mov	 DWORD PTR _i$2[ebp], eax

; 237  :         return !(*this == _Right);

  000aa	3b c3		 cmp	 eax, ebx
; File C:\IAGOS\server\v18\Source\Source\_common\guild.cpp

; 1106 : 				for( map<u_long, CGuildMember*>::iterator i = pGuild->m_mapPMember.begin(); i != pGuild->m_mapPMember.end(); ++i )

  000ac	74 5e		 je	 SHORT $LN2@Process
  000ae	66 90		 npad	 2
$LL7@Process:

; 1109 : 					dwPay += pGuild->m_adwPenya[ pMember->m_nMemberLv ];

  000b0	8b 40 14	 mov	 eax, DWORD PTR [eax+20]
; File C:\Program Files\Microsoft Visual Studio\2022\Professional\VC\Tools\MSVC\14.44.35207\include\xtree

; 198  :         _Mybase::operator++();

  000b3	8d 4d d0	 lea	 ecx, DWORD PTR _i$2[ebp]
; File C:\IAGOS\server\v18\Source\Source\_common\guild.cpp

; 1109 : 					dwPay += pGuild->m_adwPenya[ pMember->m_nMemberLv ];

  000b6	0f b6 40 48	 movzx	 eax, BYTE PTR [eax+72]
  000ba	03 74 87 5c	 add	 esi, DWORD PTR [edi+eax*4+92]
; File C:\Program Files\Microsoft Visual Studio\2022\Professional\VC\Tools\MSVC\14.44.35207\include\xtree

; 198  :         _Mybase::operator++();

  000be	e8 00 00 00 00	 call	 ??E?$_Tree_unchecked_const_iterator@V?$_Tree_val@U?$_Tree_simple_types@U?$pair@$$CBKPAVCGuildMember@@@std@@@std@@@std@@U_Iterator_base0@2@@std@@QAEAAV01@XZ ; std::_Tree_unchecked_const_iterator<std::_Tree_val<std::_Tree_simple_types<std::pair<unsigned long const ,CGuildMember *> > >,std::_Iterator_base0>::operator++

; 237  :         return !(*this == _Right);

  000c3	8b 45 d0	 mov	 eax, DWORD PTR _i$2[ebp]
  000c6	3b c3		 cmp	 eax, ebx
; File C:\IAGOS\server\v18\Source\Source\_common\guild.cpp

; 1106 : 				for( map<u_long, CGuildMember*>::iterator i = pGuild->m_mapPMember.begin(); i != pGuild->m_mapPMember.end(); ++i )

  000c8	75 e6		 jne	 SHORT $LL7@Process

; 1110 : 				}
; 1111 : 				
; 1112 : 				if( 0 < dwPay && dwPay <= pGuild->m_nGoldGuild )

  000ca	85 f6		 test	 esi, esi
  000cc	74 3e		 je	 SHORT $LN2@Process
  000ce	8b 87 18 01 00
	00		 mov	 eax, DWORD PTR [edi+280]
  000d4	3b f0		 cmp	 esi, eax
  000d6	77 34		 ja	 SHORT $LN2@Process

; 1113 : 				{
; 1114 : 					pGuild->m_bSendPay = TRUE;
; 1115 : 					pGuild->m_nGoldGuild -= dwPay;					

  000d8	2b c6		 sub	 eax, esi
  000da	c7 87 00 01 00
	00 01 00 00 00	 mov	 DWORD PTR [edi+256], 1

; 1116 : 					g_dpDBClient.SendGuildGetPay( pGuild->GetGuildId(), pGuild->m_nGoldGuild, dwPay );

  000e4	56		 push	 esi
  000e5	50		 push	 eax
  000e6	ff 77 04	 push	 DWORD PTR [edi+4]
  000e9	b9 00 00 00 00	 mov	 ecx, OFFSET ?g_dpDBClient@@3VCDPDatabaseClient@@A ; g_dpDBClient
  000ee	89 87 18 01 00
	00		 mov	 DWORD PTR [edi+280], eax
  000f4	e8 00 00 00 00	 call	 ?SendGuildGetPay@CDPDatabaseClient@@QAEXKKK@Z ; CDPDatabaseClient::SendGuildGetPay

; 1117 : 					g_DPCoreClient.SendGuildGetPay( pGuild->GetGuildId(), pGuild->m_nGoldGuild );

  000f9	ff b7 18 01 00
	00		 push	 DWORD PTR [edi+280]
  000ff	b9 00 00 00 00	 mov	 ecx, OFFSET ?g_DPCoreClient@@3VCDPCoreClient@@A ; g_DPCoreClient
  00104	ff 77 04	 push	 DWORD PTR [edi+4]
  00107	e8 00 00 00 00	 call	 ?SendGuildGetPay@CDPCoreClient@@QAEXKK@Z ; CDPCoreClient::SendGuildGetPay
$LN2@Process:
; File C:\Program Files\Microsoft Visual Studio\2022\Professional\VC\Tools\MSVC\14.44.35207\include\xtree

; 198  :         _Mybase::operator++();

  0010c	8d 4d d4	 lea	 ecx, DWORD PTR _i$3[ebp]
  0010f	e8 00 00 00 00	 call	 ??E?$_Tree_unchecked_const_iterator@V?$_Tree_val@U?$_Tree_simple_types@U?$pair@$$CBKPAVCGuild@@@std@@@std@@@std@@U_Iterator_base0@2@@std@@QAEAAV01@XZ ; std::_Tree_unchecked_const_iterator<std::_Tree_val<std::_Tree_simple_types<std::pair<unsigned long const ,CGuild *> > >,std::_Iterator_base0>::operator++

; 237  :         return !(*this == _Right);

  00114	8b 4d cc	 mov	 ecx, DWORD PTR _this$GSCopy$1$[ebp]
  00117	8b 45 d4	 mov	 eax, DWORD PTR _i$3[ebp]
  0011a	3b 41 08	 cmp	 eax, DWORD PTR [ecx+8]
; File C:\IAGOS\server\v18\Source\Source\_common\guild.cpp

; 1099 : 		for( map<u_long, CGuild*>::iterator i = m_mapPGuild.begin(); i != m_mapPGuild.end(); ++i )

  0011d	0f 85 71 ff ff
	ff		 jne	 $LL4@Process

; 1118 : 				}
; 1119 : 			}
; 1120 : 		}
; 1121 : 	}

  00123	5b		 pop	 ebx
  00124	5f		 pop	 edi

; 1132 : 	}
; 1133 : }

  00125	5e		 pop	 esi
  00126	8b 4d fc	 mov	 ecx, DWORD PTR __$ArrayPad$[ebp]
  00129	33 cd		 xor	 ecx, ebp
  0012b	e8 00 00 00 00	 call	 @__security_check_cookie@4
  00130	8b e5		 mov	 esp, ebp
  00132	5d		 pop	 ebp
  00133	c3		 ret	 0
$LN203@Process:

; 1122 : 	else
; 1123 : 	if( m_bSendPay && nHour == 22 )//1 )

  00134	83 fe 16	 cmp	 esi, 22			; 00000016H
  00137	75 3b		 jne	 SHORT $LN15@Process
; File C:\Program Files\Microsoft Visual Studio\2022\Professional\VC\Tools\MSVC\14.44.35207\include\xtree

; 1142 :         return iterator(_Scary->_Myhead->_Left, _Scary);

  00139	8b 4f 08	 mov	 ecx, DWORD PTR [edi+8]

; 37   :     _Tree_unchecked_const_iterator(_Nodeptr _Pnode, const _Mytree* _Plist) noexcept : _Ptr(_Pnode) {

  0013c	8b 01		 mov	 eax, DWORD PTR [ecx]
  0013e	89 45 d4	 mov	 DWORD PTR _i$4[ebp], eax

; 237  :         return !(*this == _Right);

  00141	3b c1		 cmp	 eax, ecx
; File C:\IAGOS\server\v18\Source\Source\_common\guild.cpp

; 1126 : 		for( map<u_long, CGuild*>::iterator i = m_mapPGuild.begin(); i != m_mapPGuild.end(); ++i )

  00143	74 28		 je	 SHORT $LN9@Process
  00145	66 66 66 0f 1f
	84 00 00 00 00
	00		 npad	 11
$LL10@Process:

; 1129 : 			pGuild->m_bSendPay = FALSE;

  00150	8b 40 14	 mov	 eax, DWORD PTR [eax+20]
; File C:\Program Files\Microsoft Visual Studio\2022\Professional\VC\Tools\MSVC\14.44.35207\include\xtree

; 198  :         _Mybase::operator++();

  00153	8d 4d d4	 lea	 ecx, DWORD PTR _i$4[ebp]
; File C:\IAGOS\server\v18\Source\Source\_common\guild.cpp

; 1129 : 			pGuild->m_bSendPay = FALSE;

  00156	c7 80 00 01 00
	00 00 00 00 00	 mov	 DWORD PTR [eax+256], 0
; File C:\Program Files\Microsoft Visual Studio\2022\Professional\VC\Tools\MSVC\14.44.35207\include\xtree

; 198  :         _Mybase::operator++();

  00160	e8 00 00 00 00	 call	 ??E?$_Tree_unchecked_const_iterator@V?$_Tree_val@U?$_Tree_simple_types@U?$pair@$$CBKPAVCGuild@@@std@@@std@@@std@@U_Iterator_base0@2@@std@@QAEAAV01@XZ ; std::_Tree_unchecked_const_iterator<std::_Tree_val<std::_Tree_simple_types<std::pair<unsigned long const ,CGuild *> > >,std::_Iterator_base0>::operator++

; 237  :         return !(*this == _Right);

  00165	8b 45 d4	 mov	 eax, DWORD PTR _i$4[ebp]
  00168	3b 47 08	 cmp	 eax, DWORD PTR [edi+8]
; File C:\IAGOS\server\v18\Source\Source\_common\guild.cpp

; 1126 : 		for( map<u_long, CGuild*>::iterator i = m_mapPGuild.begin(); i != m_mapPGuild.end(); ++i )

  0016b	75 e3		 jne	 SHORT $LL10@Process
$LN9@Process:

; 1130 : 		}
; 1131 : 		m_bSendPay = FALSE;

  0016d	c7 47 18 00 00
	00 00		 mov	 DWORD PTR [edi+24], 0
$LN15@Process:

; 1132 : 	}
; 1133 : }

  00174	8b 4d fc	 mov	 ecx, DWORD PTR __$ArrayPad$[ebp]
  00177	5f		 pop	 edi
  00178	33 cd		 xor	 ecx, ebp
  0017a	5e		 pop	 esi
  0017b	e8 00 00 00 00	 call	 @__security_check_cookie@4
  00180	8b e5		 mov	 esp, ebp
  00182	5d		 pop	 ebp
  00183	c3		 ret	 0
?Process@CGuildMng@@QAEXXZ ENDP				; CGuildMng::Process
_TEXT	ENDS
; Function compile flags: /Ogtp
; File C:\IAGOS\server\v18\Source\Source\_common\guild.cpp
; File C:\Program Files\Microsoft Visual Studio\2022\Professional\VC\Tools\MSVC\14.44.35207\include\utility
; File C:\Program Files\Microsoft Visual Studio\2022\Professional\VC\Tools\MSVC\14.44.35207\include\xtree
; File C:\IAGOS\server\v18\Source\Source\_common\guild.cpp
; File C:\Program Files\Microsoft Visual Studio\2022\Professional\VC\Tools\MSVC\14.44.35207\include\xtree
; File C:\IAGOS\server\v18\Source\Source\_common\guild.cpp
;	COMDAT ?SetName@CGuildMng@@QAEHPAVCGuild@@PBD@Z
_TEXT	SEGMENT
__Result$2 = -56					; size = 8
_pGuild$GSCopy$1$ = -52					; size = 4
_szName$GSCopy$1$ = -48					; size = 4
$T3 = -44						; size = 28
$T4 = -40						; size = 24
__$ArrayPad$ = -16					; size = 4
__$EHRec$ = -12						; size = 12
_pGuild$ = 8						; size = 4
_szName$ = 12						; size = 4
?SetName@CGuildMng@@QAEHPAVCGuild@@PBD@Z PROC		; CGuildMng::SetName, COMDAT
; _this$ = ecx

; 746  : {

  00000	55		 push	 ebp
  00001	8b ec		 mov	 ebp, esp
  00003	6a ff		 push	 -1
  00005	68 00 00 00 00	 push	 __ehhandler$?SetName@CGuildMng@@QAEHPAVCGuild@@PBD@Z
  0000a	64 a1 00 00 00
	00		 mov	 eax, DWORD PTR fs:0
  00010	50		 push	 eax
  00011	83 ec 2c	 sub	 esp, 44			; 0000002cH
  00014	a1 00 00 00 00	 mov	 eax, DWORD PTR ___security_cookie
  00019	33 c5		 xor	 eax, ebp
  0001b	89 45 f0	 mov	 DWORD PTR __$ArrayPad$[ebp], eax
  0001e	53		 push	 ebx
  0001f	56		 push	 esi
  00020	50		 push	 eax
  00021	8d 45 f4	 lea	 eax, DWORD PTR __$EHRec$[ebp]
  00024	64 a3 00 00 00
	00		 mov	 DWORD PTR fs:0, eax
  0002a	8b d9		 mov	 ebx, ecx
  0002c	8b 45 0c	 mov	 eax, DWORD PTR _szName$[ebp]
  0002f	8b 75 08	 mov	 esi, DWORD PTR _pGuild$[ebp]

; 747  : 	CGuild* ptmp	= GetGuild( szName );

  00032	50		 push	 eax
  00033	89 75 cc	 mov	 DWORD PTR _pGuild$GSCopy$1$[ebp], esi
  00036	89 45 d0	 mov	 DWORD PTR _szName$GSCopy$1$[ebp], eax
  00039	e8 00 00 00 00	 call	 ?GetGuild@CGuildMng@@QAEPAVCGuild@@PBD@Z ; CGuildMng::GetGuild

; 748  : 	if( ptmp )

  0003e	85 c0		 test	 eax, eax
  00040	74 04		 je	 SHORT $LN2@SetName

; 749  : 		return FALSE;

  00042	33 c0		 xor	 eax, eax
  00044	eb 73		 jmp	 SHORT $LN1@SetName
$LN2@SetName:

; 750  : 	if( lstrlen( pGuild->m_szGuild ) > 0 )

  00046	83 c6 08	 add	 esi, 8
  00049	56		 push	 esi
  0004a	ff 15 00 00 00
	00		 call	 DWORD PTR __imp__lstrlenA@4
  00050	85 c0		 test	 eax, eax
  00052	7e 1d		 jle	 SHORT $LN30@SetName

; 751  : 		m_mapPGuild2.erase( pGuild->m_szGuild );	// erase

  00054	56		 push	 esi
  00055	8d 4d d8	 lea	 ecx, DWORD PTR $T4[ebp]
  00058	e8 00 00 00 00	 call	 ??0?$basic_string@DU?$char_traits@D@std@@V?$allocator@D@2@@std@@QAE@QBD@Z ; std::basic_string<char,std::char_traits<char>,std::allocator<char> >::basic_string<char,std::char_traits<char>,std::allocator<char> >
  0005d	8d 45 d8	 lea	 eax, DWORD PTR $T4[ebp]
  00060	50		 push	 eax
  00061	8d 4b 10	 lea	 ecx, DWORD PTR [ebx+16]
  00064	e8 00 00 00 00	 call	 ?erase@?$_Tree@V?$_Tmap_traits@V?$basic_string@DU?$char_traits@D@std@@V?$allocator@D@2@@std@@PAVCGuild@@U?$less@V?$basic_string@DU?$char_traits@D@std@@V?$allocator@D@2@@std@@@2@V?$allocator@U?$pair@$$CBV?$basic_string@DU?$char_traits@D@std@@V?$allocator@D@2@@std@@PAVCGuild@@@std@@@2@$0A@@std@@@std@@QAEIABV?$basic_string@DU?$char_traits@D@std@@V?$allocator@D@2@@2@@Z ; std::_Tree<std::_Tmap_traits<std::basic_string<char,std::char_traits<char>,std::allocator<char> >,CGuild *,std::less<std::basic_string<char,std::char_traits<char>,std::allocator<char> > >,std::allocator<std::pair<std::basic_string<char,std::char_traits<char>,std::allocator<char> > const ,CGuild *> >,0> >::erase
  00069	8d 4d d8	 lea	 ecx, DWORD PTR $T4[ebp]
  0006c	e8 00 00 00 00	 call	 ??1?$basic_string@DU?$char_traits@D@std@@V?$allocator@D@2@@std@@QAE@XZ ; std::basic_string<char,std::char_traits<char>,std::allocator<char> >::~basic_string<char,std::char_traits<char>,std::allocator<char> >
$LN30@SetName:

; 752  : 	lstrcpy( pGuild->m_szGuild, szName );	// set

  00071	ff 75 d0	 push	 DWORD PTR _szName$GSCopy$1$[ebp]
  00074	56		 push	 esi
  00075	ff 15 00 00 00
	00		 call	 DWORD PTR __imp__lstrcpyA@8

; 753  : 	if( lstrlen( pGuild->m_szGuild ) > 0 )

  0007b	56		 push	 esi
  0007c	ff 15 00 00 00
	00		 call	 DWORD PTR __imp__lstrlenA@4
  00082	85 c0		 test	 eax, eax
  00084	7e 2e		 jle	 SHORT $LN26@SetName
; File C:\Program Files\Microsoft Visual Studio\2022\Professional\VC\Tools\MSVC\14.44.35207\include\utility

; 274  :         : first(_STD forward<_Other1>(_Val1)), second(_STD forward<_Other2>(_Val2)) {

  00086	56		 push	 esi
  00087	8d 4d d4	 lea	 ecx, DWORD PTR $T3[ebp]
  0008a	e8 00 00 00 00	 call	 ??0?$basic_string@DU?$char_traits@D@std@@V?$allocator@D@2@@std@@QAE@QBD@Z ; std::basic_string<char,std::char_traits<char>,std::allocator<char> >::basic_string<char,std::char_traits<char>,std::allocator<char> >
  0008f	8b 45 cc	 mov	 eax, DWORD PTR _pGuild$GSCopy$1$[ebp]
  00092	89 45 ec	 mov	 DWORD PTR $T3[ebp+24], eax
; File C:\Program Files\Microsoft Visual Studio\2022\Professional\VC\Tools\MSVC\14.44.35207\include\xtree

; 1246 :         const auto _Result = _Emplace(_STD move(_Val));

  00095	8d 45 d4	 lea	 eax, DWORD PTR $T3[ebp]
; File C:\IAGOS\server\v18\Source\Source\_common\guild.cpp

; 754  : 		m_mapPGuild2.insert( map<string, CGuild*>::value_type( pGuild->m_szGuild, pGuild ) );	// insert

  00098	c7 45 fc 00 00
	00 00		 mov	 DWORD PTR __$EHRec$[ebp+8], 0
; File C:\Program Files\Microsoft Visual Studio\2022\Professional\VC\Tools\MSVC\14.44.35207\include\xtree

; 1246 :         const auto _Result = _Emplace(_STD move(_Val));

  0009f	50		 push	 eax
  000a0	8d 45 c8	 lea	 eax, DWORD PTR __Result$2[ebp]
  000a3	50		 push	 eax
  000a4	8d 4b 10	 lea	 ecx, DWORD PTR [ebx+16]
  000a7	e8 00 00 00 00	 call	 ??$_Emplace@U?$pair@$$CBV?$basic_string@DU?$char_traits@D@std@@V?$allocator@D@2@@std@@PAVCGuild@@@std@@@?$_Tree@V?$_Tmap_traits@V?$basic_string@DU?$char_traits@D@std@@V?$allocator@D@2@@std@@PAVCGuild@@U?$less@V?$basic_string@DU?$char_traits@D@std@@V?$allocator@D@2@@std@@@2@V?$allocator@U?$pair@$$CBV?$basic_string@DU?$char_traits@D@std@@V?$allocator@D@2@@std@@PAVCGuild@@@std@@@2@$0A@@std@@@std@@IAE?AU?$pair@PAU?$_Tree_node@U?$pair@$$CBV?$basic_string@DU?$char_traits@D@std@@V?$allocator@D@2@@std@@PAVCGuild@@@std@@PAX@std@@_N@1@$$QAU?$pair@$$CBV?$basic_string@DU?$char_traits@D@std@@V?$allocator@D@2@@std@@PAVCGuild@@@1@@Z ; std::_Tree<std::_Tmap_traits<std::basic_string<char,std::char_traits<char>,std::allocator<char> >,CGuild *,std::less<std::basic_string<char,std::char_traits<char>,std::allocator<char> > >,std::allocator<std::pair<std::basic_string<char,std::char_traits<char>,std::allocator<char> > const ,CGuild *> >,0> >::_Emplace<std::pair<std::basic_string<char,std::char_traits<char>,std::allocator<char> > const ,CGuild *> >
  000ac	8d 4d d4	 lea	 ecx, DWORD PTR $T3[ebp]
  000af	e8 00 00 00 00	 call	 ??1?$basic_string@DU?$char_traits@D@std@@V?$allocator@D@2@@std@@QAE@XZ ; std::basic_string<char,std::char_traits<char>,std::allocator<char> >::~basic_string<char,std::char_traits<char>,std::allocator<char> >
$LN26@SetName:
; File C:\IAGOS\server\v18\Source\Source\_common\guild.cpp

; 755  : 	return TRUE;

  000b4	b8 01 00 00 00	 mov	 eax, 1
$LN1@SetName:

; 756  : }

  000b9	8b 4d f4	 mov	 ecx, DWORD PTR __$EHRec$[ebp]
  000bc	64 89 0d 00 00
	00 00		 mov	 DWORD PTR fs:0, ecx
  000c3	59		 pop	 ecx
  000c4	5e		 pop	 esi
  000c5	5b		 pop	 ebx
  000c6	8b 4d f0	 mov	 ecx, DWORD PTR __$ArrayPad$[ebp]
  000c9	33 cd		 xor	 ecx, ebp
  000cb	e8 00 00 00 00	 call	 @__security_check_cookie@4
  000d0	8b e5		 mov	 esp, ebp
  000d2	5d		 pop	 ebp
  000d3	c2 08 00	 ret	 8
_TEXT	ENDS
;	COMDAT text$x
text$x	SEGMENT
__unwindfunclet$?SetName@CGuildMng@@QAEHPAVCGuild@@PBD@Z$1:
  00000	8d 4d d4	 lea	 ecx, DWORD PTR $T3[ebp]
  00003	e9 00 00 00 00	 jmp	 ??1?$pair@$$CBV?$basic_string@DU?$char_traits@D@std@@V?$allocator@D@2@@std@@PAVCGuild@@@std@@QAE@XZ
  00008	cc		 int	 3
  00009	cc		 int	 3
  0000a	cc		 int	 3
  0000b	cc		 int	 3
  0000c	cc		 int	 3
__ehhandler$?SetName@CGuildMng@@QAEHPAVCGuild@@PBD@Z:
  0000d	90		 npad	 1
  0000e	90		 npad	 1
  0000f	8b 54 24 08	 mov	 edx, DWORD PTR [esp+8]
  00013	8d 42 0c	 lea	 eax, DWORD PTR [edx+12]
  00016	8b 4a c8	 mov	 ecx, DWORD PTR [edx-56]
  00019	33 c8		 xor	 ecx, eax
  0001b	e8 00 00 00 00	 call	 @__security_check_cookie@4
  00020	8b 4a fc	 mov	 ecx, DWORD PTR [edx-4]
  00023	33 c8		 xor	 ecx, eax
  00025	e8 00 00 00 00	 call	 @__security_check_cookie@4
  0002a	b8 00 00 00 00	 mov	 eax, OFFSET __ehfuncinfo$?SetName@CGuildMng@@QAEHPAVCGuild@@PBD@Z
  0002f	e9 00 00 00 00	 jmp	 ___CxxFrameHandler3
text$x	ENDS
?SetName@CGuildMng@@QAEHPAVCGuild@@PBD@Z ENDP		; CGuildMng::SetName
; Function compile flags: /Ogtp
; File C:\IAGOS\server\v18\Source\Source\_common\guild.cpp
; File C:\IAGOS\server\v18\Source\Source\_Network\Misc\Include\ar.h
; File C:\IAGOS\server\v18\Source\Source\_common\guild.cpp
; File C:\IAGOS\server\v18\Source\Source\_Network\Misc\Include\ar.h
; File C:\IAGOS\server\v18\Source\Source\_common\guild.cpp
; File C:\Program Files\Microsoft Visual Studio\2022\Professional\VC\Tools\MSVC\14.44.35207\include\xtree
; File C:\IAGOS\server\v18\Source\Source\_common\guild.cpp
; File C:\Program Files\Microsoft Visual Studio\2022\Professional\VC\Tools\MSVC\14.44.35207\include\xtree
; File C:\IAGOS\server\v18\Source\Source\_common\guild.cpp
; File C:\Program Files\Microsoft Visual Studio\2022\Professional\VC\Tools\MSVC\14.44.35207\include\utility
; File C:\Program Files\Microsoft Visual Studio\2022\Professional\VC\Tools\MSVC\14.44.35207\include\xtree
; File C:\Program Files\Microsoft Visual Studio\2022\Professional\VC\Tools\MSVC\14.44.35207\include\utility
; File C:\Program Files\Microsoft Visual Studio\2022\Professional\VC\Tools\MSVC\14.44.35207\include\xtree
; File C:\Program Files\Microsoft Visual Studio\2022\Professional\VC\Tools\MSVC\14.44.35207\include\utility
; File C:\Program Files\Microsoft Visual Studio\2022\Professional\VC\Tools\MSVC\14.44.35207\include\xtree
; File C:\Program Files\Microsoft Visual Studio\2022\Professional\VC\Tools\MSVC\14.44.35207\include\type_traits
; File C:\Program Files\Microsoft Visual Studio\2022\Professional\VC\Tools\MSVC\14.44.35207\include\xtree
; File C:\Program Files\Microsoft Visual Studio\2022\Professional\VC\Tools\MSVC\14.44.35207\include\xmemory
; File C:\Program Files\Microsoft Visual Studio\2022\Professional\VC\Tools\MSVC\14.44.35207\include\xtree
; File C:\Program Files\Microsoft Visual Studio\2022\Professional\VC\Tools\MSVC\14.44.35207\include\xmemory
; File C:\Program Files\Microsoft Visual Studio\2022\Professional\VC\Tools\MSVC\14.44.35207\include\xtree
; File C:\Program Files\Microsoft Visual Studio\2022\Professional\VC\Tools\MSVC\14.44.35207\include\xmemory
; File C:\Program Files\Microsoft Visual Studio\2022\Professional\VC\Tools\MSVC\14.44.35207\include\xtree
; File C:\Program Files\Microsoft Visual Studio\2022\Professional\VC\Tools\MSVC\14.44.35207\include\xmemory
; File C:\Program Files\Microsoft Visual Studio\2022\Professional\VC\Tools\MSVC\14.44.35207\include\xtree
; File C:\Program Files\Microsoft Visual Studio\2022\Professional\VC\Tools\MSVC\14.44.35207\include\utility
; File C:\Program Files\Microsoft Visual Studio\2022\Professional\VC\Tools\MSVC\14.44.35207\include\xtree
; File C:\IAGOS\server\v18\Source\Source\_common\guild.cpp
; File C:\Program Files\Microsoft Visual Studio\2022\Professional\VC\Tools\MSVC\14.44.35207\include\utility
; File C:\IAGOS\server\v18\Source\Source\_common\guild.cpp
; File C:\Program Files\Microsoft Visual Studio\2022\Professional\VC\Tools\MSVC\14.44.35207\include\xtree
; File C:\IAGOS\server\v18\Source\Source\_common\guild.cpp
; File C:\Program Files\Microsoft Visual Studio\2022\Professional\VC\Tools\MSVC\14.44.35207\include\xtree
; File C:\IAGOS\server\v18\Source\Source\_common\guild.cpp
; File C:\Program Files\Microsoft Visual Studio\2022\Professional\VC\Tools\MSVC\14.44.35207\include\xtree
; File C:\IAGOS\server\v18\Source\Source\_common\guild.cpp
; File C:\Program Files\Microsoft Visual Studio\2022\Professional\VC\Tools\MSVC\14.44.35207\include\xmemory
; File C:\Program Files\Microsoft Visual Studio\2022\Professional\VC\Tools\MSVC\14.44.35207\include\xtree
; File C:\IAGOS\server\v18\Source\Source\_common\guild.cpp
;	COMDAT ?Serialize@CGuildMng@@QAEXAAVCAr@@H@Z
_TEXT	SEGMENT
$T2 = -116						; size = 12
__Result$3 = -104					; size = 8
__Loc$4 = -96						; size = 12
$T5 = -84						; size = 4
$T6 = -80						; size = 8
$T7 = -72						; size = 8
_this$GSCopy$1$ = -64					; size = 4
_ar$GSCopy$1$ = -60					; size = 4
$T8 = -56						; size = 4
$T9 = -52						; size = 4
_nSize$10 = -52						; size = 4
_i$11 = -48						; size = 4
_this$1$ = -48						; size = 4
$T12 = -44						; size = 28
__$ArrayPad$ = -16					; size = 4
__$EHRec$ = -12						; size = 12
_ar$ = 8						; size = 4
_bDesc$ = 12						; size = 4
?Serialize@CGuildMng@@QAEXAAVCAr@@H@Z PROC		; CGuildMng::Serialize, COMDAT
; _this$ = ecx

; 803  : {

  00000	55		 push	 ebp
  00001	8b ec		 mov	 ebp, esp
  00003	6a ff		 push	 -1
  00005	68 00 00 00 00	 push	 __ehhandler$?Serialize@CGuildMng@@QAEXAAVCAr@@H@Z
  0000a	64 a1 00 00 00
	00		 mov	 eax, DWORD PTR fs:0
  00010	50		 push	 eax
  00011	83 ec 68	 sub	 esp, 104		; 00000068H
  00014	a1 00 00 00 00	 mov	 eax, DWORD PTR ___security_cookie
  00019	33 c5		 xor	 eax, ebp
  0001b	89 45 f0	 mov	 DWORD PTR __$ArrayPad$[ebp], eax
  0001e	53		 push	 ebx
  0001f	56		 push	 esi
  00020	57		 push	 edi
  00021	50		 push	 eax
  00022	8d 45 f4	 lea	 eax, DWORD PTR __$EHRec$[ebp]
  00025	64 a3 00 00 00
	00		 mov	 DWORD PTR fs:0, eax
  0002b	8b f1		 mov	 esi, ecx
  0002d	89 75 c0	 mov	 DWORD PTR _this$GSCopy$1$[ebp], esi
  00030	8b 5d 08	 mov	 ebx, DWORD PTR _ar$[ebp]
; File C:\IAGOS\server\v18\Source\Source\_Network\Misc\Include\ar.h

; 146  : 	return (m_nMode & CAr::load) == 0;

  00033	8d 46 04	 lea	 eax, DWORD PTR [esi+4]
; File C:\IAGOS\server\v18\Source\Source\_common\guild.cpp

; 803  : {

  00036	89 5d c4	 mov	 DWORD PTR _ar$GSCopy$1$[ebp], ebx

; 804  : 	if( ar.IsStoring() )

  00039	8b cb		 mov	 ecx, ebx
  0003b	50		 push	 eax
; File C:\IAGOS\server\v18\Source\Source\_Network\Misc\Include\ar.h

; 146  : 	return (m_nMode & CAr::load) == 0;

  0003c	f6 03 01	 test	 BYTE PTR [ebx], 1
; File C:\IAGOS\server\v18\Source\Source\_common\guild.cpp

; 804  : 	if( ar.IsStoring() )

  0003f	75 5d		 jne	 SHORT $LN8@Serialize

; 805  : 	{
; 806  : 		ar << m_id;

  00041	e8 00 00 00 00	 call	 ??$?6K@CAr@@QAEAAV0@ABK@Z ; CAr::operator<<<unsigned long>

; 807  : 		ar << GetSize();

  00046	8b 46 0c	 mov	 eax, DWORD PTR [esi+12]
  00049	8b cb		 mov	 ecx, ebx
  0004b	89 45 cc	 mov	 DWORD PTR $T9[ebp], eax
  0004e	8d 45 cc	 lea	 eax, DWORD PTR $T9[ebp]
  00051	50		 push	 eax
  00052	e8 00 00 00 00	 call	 ??$?6H@CAr@@QAEAAV0@ABH@Z ; CAr::operator<<<int>
; File C:\Program Files\Microsoft Visual Studio\2022\Professional\VC\Tools\MSVC\14.44.35207\include\xtree

; 1142 :         return iterator(_Scary->_Myhead->_Left, _Scary);

  00057	8b 4e 08	 mov	 ecx, DWORD PTR [esi+8]

; 37   :     _Tree_unchecked_const_iterator(_Nodeptr _Pnode, const _Mytree* _Plist) noexcept : _Ptr(_Pnode) {

  0005a	8b 01		 mov	 eax, DWORD PTR [ecx]
  0005c	89 45 d0	 mov	 DWORD PTR _i$11[ebp], eax

; 237  :         return !(*this == _Right);

  0005f	3b c1		 cmp	 eax, ecx
; File C:\IAGOS\server\v18\Source\Source\_common\guild.cpp

; 808  : 		for( map<u_long, CGuild*>::iterator i = m_mapPGuild.begin(); i != m_mapPGuild.end(); ++i )

  00061	74 1d		 je	 SHORT $LN6@Serialize
  00063	8b 7d 0c	 mov	 edi, DWORD PTR _bDesc$[ebp]
$LL4@Serialize:

; 809  : 			( i->second )->Serialize( ar, bDesc );

  00066	8b 48 14	 mov	 ecx, DWORD PTR [eax+20]
  00069	57		 push	 edi
  0006a	53		 push	 ebx
  0006b	e8 00 00 00 00	 call	 ?Serialize@CGuild@@QAEXAAVCAr@@H@Z ; CGuild::Serialize
; File C:\Program Files\Microsoft Visual Studio\2022\Professional\VC\Tools\MSVC\14.44.35207\include\xtree

; 198  :         _Mybase::operator++();

  00070	8d 4d d0	 lea	 ecx, DWORD PTR _i$11[ebp]
  00073	e8 00 00 00 00	 call	 ??E?$_Tree_unchecked_const_iterator@V?$_Tree_val@U?$_Tree_simple_types@U?$pair@$$CBKPAVCGuild@@@std@@@std@@@std@@U_Iterator_base0@2@@std@@QAEAAV01@XZ ; std::_Tree_unchecked_const_iterator<std::_Tree_val<std::_Tree_simple_types<std::pair<unsigned long const ,CGuild *> > >,std::_Iterator_base0>::operator++

; 237  :         return !(*this == _Right);

  00078	8b 45 d0	 mov	 eax, DWORD PTR _i$11[ebp]
  0007b	3b 46 08	 cmp	 eax, DWORD PTR [esi+8]
; File C:\IAGOS\server\v18\Source\Source\_common\guild.cpp

; 808  : 		for( map<u_long, CGuild*>::iterator i = m_mapPGuild.begin(); i != m_mapPGuild.end(); ++i )

  0007e	75 e6		 jne	 SHORT $LL4@Serialize
$LN6@Serialize:

; 838  : }

  00080	8b 4d f4	 mov	 ecx, DWORD PTR __$EHRec$[ebp]
  00083	64 89 0d 00 00
	00 00		 mov	 DWORD PTR fs:0, ecx
  0008a	59		 pop	 ecx
  0008b	5f		 pop	 edi
  0008c	5e		 pop	 esi
  0008d	5b		 pop	 ebx
  0008e	8b 4d f0	 mov	 ecx, DWORD PTR __$ArrayPad$[ebp]
  00091	33 cd		 xor	 ecx, ebp
  00093	e8 00 00 00 00	 call	 @__security_check_cookie@4
  00098	8b e5		 mov	 esp, ebp
  0009a	5d		 pop	 ebp
  0009b	c2 08 00	 ret	 8
$LN8@Serialize:

; 810  : 		
; 811  : 		// ±ćµĺ·©Ĺ© Á¤ş¸ ·Îµĺ
; 812  : #ifdef __GUILDRANK
; 813  : 		CGuildRank::Instance()->Serialize( ar );
; 814  : #endif
; 815  : 	}
; 816  : 	else
; 817  : 	{
; 818  : #ifdef __CLIENT
; 819  : 		Clear();
; 820  : #endif	// __CLIENT
; 821  : 		ar >> m_id;

  0009e	e8 00 00 00 00	 call	 ??$?5K@CAr@@QAEAAV0@AAK@Z ; CAr::operator>><unsigned long>

; 822  : 		int nSize;
; 823  : 		ar >> nSize;

  000a3	8d 45 cc	 lea	 eax, DWORD PTR _nSize$10[ebp]
  000a6	8b cb		 mov	 ecx, ebx
  000a8	50		 push	 eax
  000a9	e8 00 00 00 00	 call	 ??$?5H@CAr@@QAEAAV0@AAH@Z ; CAr::operator>><int>

; 824  : 		for( int i = 0; i < nSize; i++ )

  000ae	33 db		 xor	 ebx, ebx
  000b0	39 5d cc	 cmp	 DWORD PTR _nSize$10[ebp], ebx
  000b3	7e cb		 jle	 SHORT $LN6@Serialize
  000b5	83 c6 08	 add	 esi, 8
  000b8	89 75 d0	 mov	 DWORD PTR _this$1$[ebp], esi
  000bb	0f 1f 44 00 00	 npad	 5
$LL7@Serialize:

; 825  : 		{
; 826  : 			CGuild* pGuild	= new CGuild;

  000c0	68 48 0d 00 00	 push	 3400			; 00000d48H
  000c5	e8 00 00 00 00	 call	 ??2@YAPAXI@Z		; operator new
  000ca	83 c4 04	 add	 esp, 4
  000cd	89 45 ac	 mov	 DWORD PTR $T5[ebp], eax
  000d0	c7 45 fc 00 00
	00 00		 mov	 DWORD PTR __$EHRec$[ebp+8], 0
  000d7	85 c0		 test	 eax, eax
  000d9	74 0b		 je	 SHORT $LN12@Serialize
  000db	8b c8		 mov	 ecx, eax
  000dd	e8 00 00 00 00	 call	 ??0CGuild@@QAE@XZ	; CGuild::CGuild
  000e2	8b f8		 mov	 edi, eax
  000e4	eb 02		 jmp	 SHORT $LN13@Serialize
$LN12@Serialize:
  000e6	33 ff		 xor	 edi, edi
$LN13@Serialize:

; 827  : 			pGuild->Serialize( ar, bDesc );

  000e8	ff 75 0c	 push	 DWORD PTR _bDesc$[ebp]
  000eb	8b cf		 mov	 ecx, edi
  000ed	c7 45 fc ff ff
	ff ff		 mov	 DWORD PTR __$EHRec$[ebp+8], -1
  000f4	ff 75 c4	 push	 DWORD PTR _ar$GSCopy$1$[ebp]
  000f7	e8 00 00 00 00	 call	 ?Serialize@CGuild@@QAEXAAVCAr@@H@Z ; CGuild::Serialize
; File C:\Program Files\Microsoft Visual Studio\2022\Professional\VC\Tools\MSVC\14.44.35207\include\utility

; 274  :         : first(_STD forward<_Other1>(_Val1)), second(_STD forward<_Other2>(_Val2)) {

  000fc	8b 47 04	 mov	 eax, DWORD PTR [edi+4]
; File C:\Program Files\Microsoft Visual Studio\2022\Professional\VC\Tools\MSVC\14.44.35207\include\xtree

; 1017 :             _Loc                = _Find_lower_bound(_Keyval);

  000ff	8b ce		 mov	 ecx, esi
; File C:\Program Files\Microsoft Visual Studio\2022\Professional\VC\Tools\MSVC\14.44.35207\include\utility

; 274  :         : first(_STD forward<_Other1>(_Val1)), second(_STD forward<_Other2>(_Val2)) {

  00101	89 45 c8	 mov	 DWORD PTR $T8[ebp], eax
  00104	89 45 b8	 mov	 DWORD PTR $T7[ebp], eax
; File C:\Program Files\Microsoft Visual Studio\2022\Professional\VC\Tools\MSVC\14.44.35207\include\xtree

; 1017 :             _Loc                = _Find_lower_bound(_Keyval);

  00107	8d 45 b8	 lea	 eax, DWORD PTR $T7[ebp]
  0010a	50		 push	 eax
  0010b	8d 45 8c	 lea	 eax, DWORD PTR $T2[ebp]
; File C:\Program Files\Microsoft Visual Studio\2022\Professional\VC\Tools\MSVC\14.44.35207\include\utility

; 274  :         : first(_STD forward<_Other1>(_Val1)), second(_STD forward<_Other2>(_Val2)) {

  0010e	89 7d bc	 mov	 DWORD PTR $T7[ebp+4], edi
; File C:\Program Files\Microsoft Visual Studio\2022\Professional\VC\Tools\MSVC\14.44.35207\include\xtree

; 1017 :             _Loc                = _Find_lower_bound(_Keyval);

  00111	50		 push	 eax
  00112	e8 00 00 00 00	 call	 ??$_Find_lower_bound@K@?$_Tree@V?$_Tmap_traits@KPAVCGuild@@U?$less@K@std@@V?$allocator@U?$pair@$$CBKPAVCGuild@@@std@@@3@$0A@@std@@@std@@IBE?AU?$_Tree_find_result@PAU?$_Tree_node@U?$pair@$$CBKPAVCGuild@@@std@@PAX@std@@@1@ABK@Z ; std::_Tree<std::_Tmap_traits<unsigned long,CGuild *,std::less<unsigned long>,std::allocator<std::pair<unsigned long const ,CGuild *> >,0> >::_Find_lower_bound<unsigned long>
  00117	8b 48 08	 mov	 ecx, DWORD PTR [eax+8]
  0011a	f3 0f 7e 00	 movq	 xmm0, QWORD PTR [eax]
  0011e	66 0f d6 45 a0	 movq	 QWORD PTR __Loc$4[ebp], xmm0

; 1624 :         return !_Bound->_Isnil && !_DEBUG_LT_PRED(_Getcomp(), _Keyval, _Traits::_Kfn(_Bound->_Myval));

  00123	80 79 0d 00	 cmp	 BYTE PTR [ecx+13], 0
  00127	75 08		 jne	 SHORT $LN74@Serialize
; File C:\Program Files\Microsoft Visual Studio\2022\Professional\VC\Tools\MSVC\14.44.35207\include\type_traits

; 2380 :         return _Left < _Right;

  00129	8b 45 c8	 mov	 eax, DWORD PTR $T8[ebp]
  0012c	3b 41 10	 cmp	 eax, DWORD PTR [ecx+16]
; File C:\Program Files\Microsoft Visual Studio\2022\Professional\VC\Tools\MSVC\14.44.35207\include\xtree

; 1624 :         return !_Bound->_Isnil && !_DEBUG_LT_PRED(_Getcomp(), _Keyval, _Traits::_Kfn(_Bound->_Myval));

  0012f	73 61		 jae	 SHORT $LN149@Serialize
$LN74@Serialize:

; 1648 :         if (max_size() == _Get_scary()->_Mysize) {

  00131	81 7e 04 aa aa
	aa 0a		 cmp	 DWORD PTR [esi+4], 178956970 ; 0aaaaaaaH
  00138	0f 84 a9 00 00
	00		 je	 $LN189@Serialize
; File C:\Program Files\Microsoft Visual Studio\2022\Professional\VC\Tools\MSVC\14.44.35207\include\xmemory

; 1160 :     _CONSTEXPR20 explicit _Alloc_construct_ptr(_Alloc& _Al_) : _Al(_Al_), _Ptr(nullptr) {}

  0013e	8b 45 d0	 mov	 eax, DWORD PTR _this$1$[ebp]
; File C:\Program Files\Microsoft Visual Studio\2022\Professional\VC\Tools\MSVC\14.44.35207\include\xtree

; 1023 :             _Inserted = _Tree_temp_node<_Alnode>(_Getal(), _Scary->_Myhead, _STD forward<_Valtys>(_Vals)...)._Release();

  00141	8b 36		 mov	 esi, DWORD PTR [esi]
; File C:\Program Files\Microsoft Visual Studio\2022\Professional\VC\Tools\MSVC\14.44.35207\include\xmemory

; 1160 :     _CONSTEXPR20 explicit _Alloc_construct_ptr(_Alloc& _Al_) : _Al(_Al_), _Ptr(nullptr) {}

  00143	89 45 b0	 mov	 DWORD PTR $T6[ebp], eax

; 136  :         return ::operator new(_Bytes);

  00146	6a 18		 push	 24			; 00000018H
; File C:\Program Files\Microsoft Visual Studio\2022\Professional\VC\Tools\MSVC\14.44.35207\include\xtree

; 808  :     explicit _Tree_temp_node_alloc(_Alnode& _Al_) : _Alloc_construct_ptr<_Alnode>(_Al_) {

  00148	c7 45 fc 01 00
	00 00		 mov	 DWORD PTR __$EHRec$[ebp+8], 1
; File C:\Program Files\Microsoft Visual Studio\2022\Professional\VC\Tools\MSVC\14.44.35207\include\xmemory

; 1167 :         _Ptr = nullptr; // if allocate throws, prevents double-free

  0014f	c7 45 b4 00 00
	00 00		 mov	 DWORD PTR $T6[ebp+4], 0

; 136  :         return ::operator new(_Bytes);

  00156	e8 00 00 00 00	 call	 ??2@YAPAXI@Z		; operator new
; File C:\Program Files\Microsoft Visual Studio\2022\Professional\VC\Tools\MSVC\14.44.35207\include\xtree

; 830  :         _Alnode_traits::construct(this->_Al, _STD addressof(this->_Ptr->_Myval), _STD forward<_Valtys>(_Vals)...);

  0015b	8b 4d c8	 mov	 ecx, DWORD PTR $T8[ebp]
; File C:\Program Files\Microsoft Visual Studio\2022\Professional\VC\Tools\MSVC\14.44.35207\include\xmemory

; 136  :         return ::operator new(_Bytes);

  0015e	83 c4 04	 add	 esp, 4
; File C:\Program Files\Microsoft Visual Studio\2022\Professional\VC\Tools\MSVC\14.44.35207\include\xtree

; 810  :     }

  00161	c7 45 fc ff ff
	ff ff		 mov	 DWORD PTR __$EHRec$[ebp+8], -1
; File C:\Program Files\Microsoft Visual Studio\2022\Professional\VC\Tools\MSVC\14.44.35207\include\utility

; 774  :     _Val         = static_cast<_Other&&>(_New_val);

  00168	c7 45 b4 00 00
	00 00		 mov	 DWORD PTR $T6[ebp+4], 0
; File C:\Program Files\Microsoft Visual Studio\2022\Professional\VC\Tools\MSVC\14.44.35207\include\xtree

; 830  :         _Alnode_traits::construct(this->_Al, _STD addressof(this->_Ptr->_Myval), _STD forward<_Valtys>(_Vals)...);

  0016f	89 48 10	 mov	 DWORD PTR [eax+16], ecx

; 1042 :         return {_Scary->_Insert_node(_Loc._Location, _Inserted), true};

  00172	8b 4d d0	 mov	 ecx, DWORD PTR _this$1$[ebp]
  00175	50		 push	 eax
  00176	ff 75 a4	 push	 DWORD PTR __Loc$4[ebp+4]

; 830  :         _Alnode_traits::construct(this->_Al, _STD addressof(this->_Ptr->_Myval), _STD forward<_Valtys>(_Vals)...);

  00179	89 78 14	 mov	 DWORD PTR [eax+20], edi

; 1042 :         return {_Scary->_Insert_node(_Loc._Location, _Inserted), true};

  0017c	ff 75 a0	 push	 DWORD PTR __Loc$4[ebp]

; 831  :         _Construct_in_place(this->_Ptr->_Left, _Myhead);

  0017f	89 30		 mov	 DWORD PTR [eax], esi

; 832  :         _Construct_in_place(this->_Ptr->_Parent, _Myhead);

  00181	89 70 04	 mov	 DWORD PTR [eax+4], esi

; 833  :         _Construct_in_place(this->_Ptr->_Right, _Myhead);

  00184	89 70 08	 mov	 DWORD PTR [eax+8], esi

; 834  :         this->_Ptr->_Color = _Red;

  00187	66 c7 40 0c 00
	00		 mov	 WORD PTR [eax+12], 0

; 1042 :         return {_Scary->_Insert_node(_Loc._Location, _Inserted), true};

  0018d	e8 00 00 00 00	 call	 ?_Insert_node@?$_Tree_val@U?$_Tree_simple_types@U?$pair@$$CBKPAVCGuild@@@std@@@std@@@std@@QAEPAU?$_Tree_node@U?$pair@$$CBKPAVCGuild@@@std@@PAX@2@U?$_Tree_id@PAU?$_Tree_node@U?$pair@$$CBKPAVCGuild@@@std@@PAX@std@@@2@QAU32@@Z ; std::_Tree_val<std::_Tree_simple_types<std::pair<unsigned long const ,CGuild *> > >::_Insert_node
$LN149@Serialize:
; File C:\IAGOS\server\v18\Source\Source\_common\guild.cpp

; 829  : 			if( lstrlen( pGuild->m_szGuild ) > 0 )

  00192	8d 77 08	 lea	 esi, DWORD PTR [edi+8]
  00195	56		 push	 esi
  00196	ff 15 00 00 00
	00		 call	 DWORD PTR __imp__lstrlenA@4
  0019c	85 c0		 test	 eax, eax
  0019e	7e 35		 jle	 SHORT $LN5@Serialize
; File C:\Program Files\Microsoft Visual Studio\2022\Professional\VC\Tools\MSVC\14.44.35207\include\utility

; 274  :         : first(_STD forward<_Other1>(_Val1)), second(_STD forward<_Other2>(_Val2)) {

  001a0	56		 push	 esi
  001a1	8d 4d d4	 lea	 ecx, DWORD PTR $T12[ebp]
  001a4	e8 00 00 00 00	 call	 ??0?$basic_string@DU?$char_traits@D@std@@V?$allocator@D@2@@std@@QAE@QBD@Z ; std::basic_string<char,std::char_traits<char>,std::allocator<char> >::basic_string<char,std::char_traits<char>,std::allocator<char> >
  001a9	89 7d ec	 mov	 DWORD PTR $T12[ebp+24], edi
; File C:\IAGOS\server\v18\Source\Source\_common\guild.cpp

; 830  : 				m_mapPGuild2.insert( map<string, CGuild*>::value_type( pGuild->m_szGuild, pGuild ) );

  001ac	8b 4d c0	 mov	 ecx, DWORD PTR _this$GSCopy$1$[ebp]
; File C:\Program Files\Microsoft Visual Studio\2022\Professional\VC\Tools\MSVC\14.44.35207\include\xtree

; 1246 :         const auto _Result = _Emplace(_STD move(_Val));

  001af	8d 45 d4	 lea	 eax, DWORD PTR $T12[ebp]
  001b2	50		 push	 eax
  001b3	8d 45 98	 lea	 eax, DWORD PTR __Result$3[ebp]
; File C:\IAGOS\server\v18\Source\Source\_common\guild.cpp

; 830  : 				m_mapPGuild2.insert( map<string, CGuild*>::value_type( pGuild->m_szGuild, pGuild ) );

  001b6	c7 45 fc 02 00
	00 00		 mov	 DWORD PTR __$EHRec$[ebp+8], 2
; File C:\Program Files\Microsoft Visual Studio\2022\Professional\VC\Tools\MSVC\14.44.35207\include\xtree

; 1246 :         const auto _Result = _Emplace(_STD move(_Val));

  001bd	50		 push	 eax
; File C:\IAGOS\server\v18\Source\Source\_common\guild.cpp

; 830  : 				m_mapPGuild2.insert( map<string, CGuild*>::value_type( pGuild->m_szGuild, pGuild ) );

  001be	8d 49 10	 lea	 ecx, DWORD PTR [ecx+16]
; File C:\Program Files\Microsoft Visual Studio\2022\Professional\VC\Tools\MSVC\14.44.35207\include\xtree

; 1246 :         const auto _Result = _Emplace(_STD move(_Val));

  001c1	e8 00 00 00 00	 call	 ??$_Emplace@U?$pair@$$CBV?$basic_string@DU?$char_traits@D@std@@V?$allocator@D@2@@std@@PAVCGuild@@@std@@@?$_Tree@V?$_Tmap_traits@V?$basic_string@DU?$char_traits@D@std@@V?$allocator@D@2@@std@@PAVCGuild@@U?$less@V?$basic_string@DU?$char_traits@D@std@@V?$allocator@D@2@@std@@@2@V?$allocator@U?$pair@$$CBV?$basic_string@DU?$char_traits@D@std@@V?$allocator@D@2@@std@@PAVCGuild@@@std@@@2@$0A@@std@@@std@@IAE?AU?$pair@PAU?$_Tree_node@U?$pair@$$CBV?$basic_string@DU?$char_traits@D@std@@V?$allocator@D@2@@std@@PAVCGuild@@@std@@PAX@std@@_N@1@$$QAU?$pair@$$CBV?$basic_string@DU?$char_traits@D@std@@V?$allocator@D@2@@std@@PAVCGuild@@@1@@Z ; std::_Tree<std::_Tmap_traits<std::basic_string<char,std::char_traits<char>,std::allocator<char> >,CGuild *,std::less<std::basic_string<char,std::char_traits<char>,std::allocator<char> > >,std::allocator<std::pair<std::basic_string<char,std::char_traits<char>,std::allocator<char> > const ,CGuild *> >,0> >::_Emplace<std::pair<std::basic_string<char,std::char_traits<char>,std::allocator<char> > const ,CGuild *> >
  001c6	8d 4d d4	 lea	 ecx, DWORD PTR $T12[ebp]
; File C:\IAGOS\server\v18\Source\Source\_common\guild.cpp

; 830  : 				m_mapPGuild2.insert( map<string, CGuild*>::value_type( pGuild->m_szGuild, pGuild ) );

  001c9	c7 45 fc ff ff
	ff ff		 mov	 DWORD PTR __$EHRec$[ebp+8], -1
  001d0	e8 00 00 00 00	 call	 ??1?$basic_string@DU?$char_traits@D@std@@V?$allocator@D@2@@std@@QAE@XZ ; std::basic_string<char,std::char_traits<char>,std::allocator<char> >::~basic_string<char,std::char_traits<char>,std::allocator<char> >
$LN5@Serialize:

; 824  : 		for( int i = 0; i < nSize; i++ )

  001d5	8b 75 d0	 mov	 esi, DWORD PTR _this$1$[ebp]
  001d8	43		 inc	 ebx
  001d9	3b 5d cc	 cmp	 ebx, DWORD PTR _nSize$10[ebp]
  001dc	0f 8c de fe ff
	ff		 jl	 $LL7@Serialize
; File C:\Program Files\Microsoft Visual Studio\2022\Professional\VC\Tools\MSVC\14.44.35207\include\xmemory

; 219  :     _STL_VERIFY(_Back_shift >= _Min_back_shift && _Back_shift <= _Non_user_size, "invalid argument");

  001e2	e9 99 fe ff ff	 jmp	 $LN6@Serialize
$LN189@Serialize:
; File C:\Program Files\Microsoft Visual Studio\2022\Professional\VC\Tools\MSVC\14.44.35207\include\xtree

; 1649 :             _Throw_tree_length_error();

  001e7	e8 00 00 00 00	 call	 ?_Throw_tree_length_error@std@@YAXXZ ; std::_Throw_tree_length_error
$LN200@Serialize:
  001ec	cc		 int	 3
_TEXT	ENDS
;	COMDAT text$x
text$x	SEGMENT
__unwindfunclet$?Serialize@CGuildMng@@QAEXAAVCAr@@H@Z$0:
  00000	68 48 0d 00 00	 push	 3400			; 00000d48H
  00005	8b 45 ac	 mov	 eax, DWORD PTR $T5[ebp]
  00008	50		 push	 eax
  00009	e8 00 00 00 00	 call	 ??3@YAXPAXI@Z		; operator delete
  0000e	83 c4 08	 add	 esp, 8
  00011	c3		 ret	 0
__unwindfunclet$?Serialize@CGuildMng@@QAEXAAVCAr@@H@Z$4:
  00012	8d 4d b0	 lea	 ecx, DWORD PTR $T6[ebp]
  00015	e9 00 00 00 00	 jmp	 ??1?$_Alloc_construct_ptr@V?$allocator@U?$_Tree_node@U?$pair@$$CBKPAVCGuild@@@std@@PAX@std@@@std@@@std@@QAE@XZ ; std::_Alloc_construct_ptr<std::allocator<std::_Tree_node<std::pair<unsigned long const ,CGuild *>,void *> > >::~_Alloc_construct_ptr<std::allocator<std::_Tree_node<std::pair<unsigned long const ,CGuild *>,void *> > >
__unwindfunclet$?Serialize@CGuildMng@@QAEXAAVCAr@@H@Z$1:
  0001a	8d 4d d4	 lea	 ecx, DWORD PTR $T12[ebp]
  0001d	e9 00 00 00 00	 jmp	 ??1?$pair@$$CBV?$basic_string@DU?$char_traits@D@std@@V?$allocator@D@2@@std@@PAVCGuild@@@std@@QAE@XZ
  00022	cc		 int	 3
  00023	cc		 int	 3
  00024	cc		 int	 3
  00025	cc		 int	 3
  00026	cc		 int	 3
__ehhandler$?Serialize@CGuildMng@@QAEXAAVCAr@@H@Z:
  00027	90		 npad	 1
  00028	90		 npad	 1
  00029	8b 54 24 08	 mov	 edx, DWORD PTR [esp+8]
  0002d	8d 42 0c	 lea	 eax, DWORD PTR [edx+12]
  00030	8b 4a 88	 mov	 ecx, DWORD PTR [edx-120]
  00033	33 c8		 xor	 ecx, eax
  00035	e8 00 00 00 00	 call	 @__security_check_cookie@4
  0003a	8b 4a fc	 mov	 ecx, DWORD PTR [edx-4]
  0003d	33 c8		 xor	 ecx, eax
  0003f	e8 00 00 00 00	 call	 @__security_check_cookie@4
  00044	b8 00 00 00 00	 mov	 eax, OFFSET __ehfuncinfo$?Serialize@CGuildMng@@QAEXAAVCAr@@H@Z
  00049	e9 00 00 00 00	 jmp	 ___CxxFrameHandler3
text$x	ENDS
?Serialize@CGuildMng@@QAEXAAVCAr@@H@Z ENDP		; CGuildMng::Serialize
; Function compile flags: /Ogtp
; File C:\IAGOS\server\v18\Source\Source\_common\guild.cpp
; File C:\Program Files\Microsoft Visual Studio\2022\Professional\VC\Tools\MSVC\14.44.35207\include\xtree
; File C:\Program Files\Microsoft Visual Studio\2022\Professional\VC\Tools\MSVC\14.44.35207\include\type_traits
; File C:\Program Files\Microsoft Visual Studio\2022\Professional\VC\Tools\MSVC\14.44.35207\include\xtree
; File C:\Program Files\Microsoft Visual Studio\2022\Professional\VC\Tools\MSVC\14.44.35207\include\xstring
; File C:\Program Files\Microsoft Visual Studio\2022\Professional\VC\Tools\MSVC\14.44.35207\include\xmemory
; File C:\Program Files\Microsoft Visual Studio\2022\Professional\VC\Tools\MSVC\14.44.35207\include\xstring
; File C:\Program Files\Microsoft Visual Studio\2022\Professional\VC\Tools\MSVC\14.44.35207\include\xmemory
; File C:\Program Files\Microsoft Visual Studio\2022\Professional\VC\Tools\MSVC\14.44.35207\include\xtree
; File C:\IAGOS\server\v18\Source\Source\_common\guild.cpp
; File C:\Program Files\Microsoft Visual Studio\2022\Professional\VC\Tools\MSVC\14.44.35207\include\xmemory
; File C:\IAGOS\server\v18\Source\Source\_common\guild.cpp
;	COMDAT ?GetGuild@CGuildMng@@QAEPAVCGuild@@PBD@Z
_TEXT	SEGMENT
__Loc$1 = -40						; size = 12
$T2 = -28						; size = 24
__$ArrayPad$ = -4					; size = 4
_szGuild$ = 8						; size = 4
?GetGuild@CGuildMng@@QAEPAVCGuild@@PBD@Z PROC		; CGuildMng::GetGuild, COMDAT
; _this$ = ecx

; 795  : {

  00000	55		 push	 ebp
  00001	8b ec		 mov	 ebp, esp
  00003	83 ec 28	 sub	 esp, 40			; 00000028H
  00006	a1 00 00 00 00	 mov	 eax, DWORD PTR ___security_cookie
  0000b	33 c5		 xor	 eax, ebp
  0000d	89 45 fc	 mov	 DWORD PTR __$ArrayPad$[ebp], eax
  00010	8b 45 08	 mov	 eax, DWORD PTR _szGuild$[ebp]
  00013	56		 push	 esi
  00014	57		 push	 edi
  00015	8b f9		 mov	 edi, ecx

; 796  : 	map<string, CGuild*>::iterator i	= m_mapPGuild2.find( szGuild );

  00017	8d 4d e4	 lea	 ecx, DWORD PTR $T2[ebp]
  0001a	50		 push	 eax
  0001b	e8 00 00 00 00	 call	 ??0?$basic_string@DU?$char_traits@D@std@@V?$allocator@D@2@@std@@QAE@QBD@Z ; std::basic_string<char,std::char_traits<char>,std::allocator<char> >::basic_string<char,std::char_traits<char>,std::allocator<char> >
; File C:\Program Files\Microsoft Visual Studio\2022\Professional\VC\Tools\MSVC\14.44.35207\include\xtree

; 1384 :         const _Tree_find_result<_Nodeptr> _Loc = _Find_lower_bound(_Keyval);

  00020	8d 45 e4	 lea	 eax, DWORD PTR $T2[ebp]
  00023	50		 push	 eax
  00024	8d 45 d8	 lea	 eax, DWORD PTR __Loc$1[ebp]
  00027	50		 push	 eax
  00028	8d 4f 10	 lea	 ecx, DWORD PTR [edi+16]
  0002b	e8 00 00 00 00	 call	 ??$_Find_lower_bound@V?$basic_string@DU?$char_traits@D@std@@V?$allocator@D@2@@std@@@?$_Tree@V?$_Tmap_traits@V?$basic_string@DU?$char_traits@D@std@@V?$allocator@D@2@@std@@PAVCGuild@@U?$less@V?$basic_string@DU?$char_traits@D@std@@V?$allocator@D@2@@std@@@2@V?$allocator@U?$pair@$$CBV?$basic_string@DU?$char_traits@D@std@@V?$allocator@D@2@@std@@PAVCGuild@@@std@@@2@$0A@@std@@@std@@IBE?AU?$_Tree_find_result@PAU?$_Tree_node@U?$pair@$$CBV?$basic_string@DU?$char_traits@D@std@@V?$allocator@D@2@@std@@PAVCGuild@@@std@@PAX@std@@@1@ABV?$basic_string@DU?$char_traits@D@std@@V?$allocator@D@2@@1@@Z ; std::_Tree<std::_Tmap_traits<std::basic_string<char,std::char_traits<char>,std::allocator<char> >,CGuild *,std::less<std::basic_string<char,std::char_traits<char>,std::allocator<char> > >,std::allocator<std::pair<std::basic_string<char,std::char_traits<char>,std::allocator<char> > const ,CGuild *> >,0> >::_Find_lower_bound<std::basic_string<char,std::char_traits<char>,std::allocator<char> > >

; 1624 :         return !_Bound->_Isnil && !_DEBUG_LT_PRED(_Getcomp(), _Keyval, _Traits::_Kfn(_Bound->_Myval));

  00030	8b 75 e0	 mov	 esi, DWORD PTR __Loc$1[ebp+8]
  00033	80 7e 0d 00	 cmp	 BYTE PTR [esi+13], 0
  00037	75 14		 jne	 SHORT $LN8@GetGuild
  00039	8d 46 10	 lea	 eax, DWORD PTR [esi+16]
; File C:\Program Files\Microsoft Visual Studio\2022\Professional\VC\Tools\MSVC\14.44.35207\include\type_traits

; 2380 :         return _Left < _Right;

  0003c	50		 push	 eax
  0003d	8d 45 e4	 lea	 eax, DWORD PTR $T2[ebp]
  00040	50		 push	 eax
  00041	e8 00 00 00 00	 call	 ??$?MDU?$char_traits@D@std@@V?$allocator@D@1@@std@@YA_NABV?$basic_string@DU?$char_traits@D@std@@V?$allocator@D@2@@0@0@Z ; std::operator<<char,std::char_traits<char>,std::allocator<char> >
  00046	83 c4 08	 add	 esp, 8
; File C:\Program Files\Microsoft Visual Studio\2022\Professional\VC\Tools\MSVC\14.44.35207\include\xtree

; 1624 :         return !_Bound->_Isnil && !_DEBUG_LT_PRED(_Getcomp(), _Keyval, _Traits::_Kfn(_Bound->_Myval));

  00049	84 c0		 test	 al, al
  0004b	74 03		 je	 SHORT $LN7@GetGuild
$LN8@GetGuild:

; 1389 :         return _Get_scary()->_Myhead;

  0004d	8b 77 10	 mov	 esi, DWORD PTR [edi+16]
$LN7@GetGuild:
; File C:\Program Files\Microsoft Visual Studio\2022\Professional\VC\Tools\MSVC\14.44.35207\include\xstring

; 453  :         return _Myres > _Small_string_capacity;

  00050	8b 4d f8	 mov	 ecx, DWORD PTR $T2[ebp+20]
  00053	83 f9 0f	 cmp	 ecx, 15			; 0000000fH

; 3083 :         if (_My_data._Large_mode_engaged()) {

  00056	76 28		 jbe	 SHORT $LN46@GetGuild
; File C:\Program Files\Microsoft Visual Studio\2022\Professional\VC\Tools\MSVC\14.44.35207\include\xmemory

; 985  :         _STD _Deallocate<_New_alignof<_Ty>>(_Ptr, sizeof(_Ty) * _Count);

  00058	8b 55 e4	 mov	 edx, DWORD PTR $T2[ebp]
; File C:\Program Files\Microsoft Visual Studio\2022\Professional\VC\Tools\MSVC\14.44.35207\include\xstring

; 852  :         _Al.deallocate(_Old_ptr, _Capacity + 1); // +1 for null terminator

  0005b	41		 inc	 ecx
; File C:\Program Files\Microsoft Visual Studio\2022\Professional\VC\Tools\MSVC\14.44.35207\include\xmemory

; 985  :         _STD _Deallocate<_New_alignof<_Ty>>(_Ptr, sizeof(_Ty) * _Count);

  0005c	8b c2		 mov	 eax, edx

; 284  :         if (_Bytes >= _Big_allocation_threshold) {

  0005e	81 f9 00 10 00
	00		 cmp	 ecx, 4096		; 00001000H
  00064	72 10		 jb	 SHORT $LN51@GetGuild

; 205  :     const uintptr_t _Ptr_container   = _Ptr_user[-1];

  00066	8b 50 fc	 mov	 edx, DWORD PTR [eax-4]
  00069	83 c1 23	 add	 ecx, 35			; 00000023H
  0006c	2b c2		 sub	 eax, edx

; 219  :     _STL_VERIFY(_Back_shift >= _Min_back_shift && _Back_shift <= _Non_user_size, "invalid argument");

  0006e	83 c0 fc	 add	 eax, -4			; fffffffcH
  00071	83 f8 1f	 cmp	 eax, 31			; 0000001fH
  00074	77 38		 ja	 SHORT $LN93@GetGuild
$LN51@GetGuild:

; 289  :         ::operator delete(_Ptr, _Bytes);

  00076	51		 push	 ecx
  00077	52		 push	 edx
  00078	e8 00 00 00 00	 call	 ??3@YAXPAXI@Z		; operator delete
  0007d	83 c4 08	 add	 esp, 8
$LN46@GetGuild:
; File C:\Program Files\Microsoft Visual Studio\2022\Professional\VC\Tools\MSVC\14.44.35207\include\xtree

; 37   :     _Tree_unchecked_const_iterator(_Nodeptr _Pnode, const _Mytree* _Plist) noexcept : _Ptr(_Pnode) {

  00080	3b 77 10	 cmp	 esi, DWORD PTR [edi+16]
; File C:\IAGOS\server\v18\Source\Source\_common\guild.cpp

; 797  : 	if( i != m_mapPGuild2.end() )

  00083	74 15		 je	 SHORT $LN2@GetGuild

; 798  : 		return i->second;

  00085	8b 46 28	 mov	 eax, DWORD PTR [esi+40]
  00088	5f		 pop	 edi

; 800  : }

  00089	5e		 pop	 esi
  0008a	8b 4d fc	 mov	 ecx, DWORD PTR __$ArrayPad$[ebp]
  0008d	33 cd		 xor	 ecx, ebp
  0008f	e8 00 00 00 00	 call	 @__security_check_cookie@4
  00094	8b e5		 mov	 esp, ebp
  00096	5d		 pop	 ebp
  00097	c2 04 00	 ret	 4
$LN2@GetGuild:
  0009a	8b 4d fc	 mov	 ecx, DWORD PTR __$ArrayPad$[ebp]
  0009d	33 c0		 xor	 eax, eax
  0009f	5f		 pop	 edi
  000a0	33 cd		 xor	 ecx, ebp
  000a2	5e		 pop	 esi
  000a3	e8 00 00 00 00	 call	 @__security_check_cookie@4
  000a8	8b e5		 mov	 esp, ebp
  000aa	5d		 pop	 ebp
  000ab	c2 04 00	 ret	 4
$LN93@GetGuild:
; File C:\Program Files\Microsoft Visual Studio\2022\Professional\VC\Tools\MSVC\14.44.35207\include\xmemory

; 219  :     _STL_VERIFY(_Back_shift >= _Min_back_shift && _Back_shift <= _Non_user_size, "invalid argument");

  000ae	6a 00		 push	 0
  000b0	6a 00		 push	 0
  000b2	6a 00		 push	 0
  000b4	6a 00		 push	 0
  000b6	6a 00		 push	 0
  000b8	e8 00 00 00 00	 call	 __invoke_watson
$LN91@GetGuild:
  000bd	cc		 int	 3
?GetGuild@CGuildMng@@QAEPAVCGuild@@PBD@Z ENDP		; CGuildMng::GetGuild
_TEXT	ENDS
; Function compile flags: /Ogtp
; File C:\IAGOS\server\v18\Source\Source\_common\guild.cpp
; File C:\Program Files\Microsoft Visual Studio\2022\Professional\VC\Tools\MSVC\14.44.35207\include\xtree
; File C:\IAGOS\server\v18\Source\Source\_common\guild.cpp
; File C:\Program Files\Microsoft Visual Studio\2022\Professional\VC\Tools\MSVC\14.44.35207\include\xtree
; File C:\Program Files\Microsoft Visual Studio\2022\Professional\VC\Tools\MSVC\14.44.35207\include\type_traits
; File C:\Program Files\Microsoft Visual Studio\2022\Professional\VC\Tools\MSVC\14.44.35207\include\xtree
; File C:\IAGOS\server\v18\Source\Source\_common\guild.cpp
;	COMDAT ?GetGuild@CGuildMng@@QAEPAVCGuild@@K@Z
_TEXT	SEGMENT
__Loc$1 = -12						; size = 12
_idGuild$ = 8						; size = 4
?GetGuild@CGuildMng@@QAEPAVCGuild@@K@Z PROC		; CGuildMng::GetGuild, COMDAT
; _this$ = ecx

; 787  : {

  00000	55		 push	 ebp
  00001	8b ec		 mov	 ebp, esp
  00003	83 ec 0c	 sub	 esp, 12			; 0000000cH
  00006	56		 push	 esi
; File C:\Program Files\Microsoft Visual Studio\2022\Professional\VC\Tools\MSVC\14.44.35207\include\xtree

; 1384 :         const _Tree_find_result<_Nodeptr> _Loc = _Find_lower_bound(_Keyval);

  00007	8d 45 08	 lea	 eax, DWORD PTR _idGuild$[ebp]
  0000a	50		 push	 eax
; File C:\IAGOS\server\v18\Source\Source\_common\guild.cpp

; 788  : 	map<u_long, CGuild*>::iterator i	= m_mapPGuild.find( idGuild );

  0000b	8d 71 08	 lea	 esi, DWORD PTR [ecx+8]
; File C:\Program Files\Microsoft Visual Studio\2022\Professional\VC\Tools\MSVC\14.44.35207\include\xtree

; 1384 :         const _Tree_find_result<_Nodeptr> _Loc = _Find_lower_bound(_Keyval);

  0000e	8d 45 f4	 lea	 eax, DWORD PTR __Loc$1[ebp]
  00011	8b ce		 mov	 ecx, esi
  00013	50		 push	 eax
  00014	e8 00 00 00 00	 call	 ??$_Find_lower_bound@K@?$_Tree@V?$_Tmap_traits@KPAVCGuild@@U?$less@K@std@@V?$allocator@U?$pair@$$CBKPAVCGuild@@@std@@@3@$0A@@std@@@std@@IBE?AU?$_Tree_find_result@PAU?$_Tree_node@U?$pair@$$CBKPAVCGuild@@@std@@PAX@std@@@1@ABK@Z ; std::_Tree<std::_Tmap_traits<unsigned long,CGuild *,std::less<unsigned long>,std::allocator<std::pair<unsigned long const ,CGuild *> >,0> >::_Find_lower_bound<unsigned long>

; 1624 :         return !_Bound->_Isnil && !_DEBUG_LT_PRED(_Getcomp(), _Keyval, _Traits::_Kfn(_Bound->_Myval));

  00019	8b 45 fc	 mov	 eax, DWORD PTR __Loc$1[ebp+8]
  0001c	80 78 0d 00	 cmp	 BYTE PTR [eax+13], 0
  00020	75 16		 jne	 SHORT $LN2@GetGuild
; File C:\Program Files\Microsoft Visual Studio\2022\Professional\VC\Tools\MSVC\14.44.35207\include\type_traits

; 2380 :         return _Left < _Right;

  00022	8b 4d 08	 mov	 ecx, DWORD PTR _idGuild$[ebp]
  00025	3b 48 10	 cmp	 ecx, DWORD PTR [eax+16]
; File C:\Program Files\Microsoft Visual Studio\2022\Professional\VC\Tools\MSVC\14.44.35207\include\xtree

; 1624 :         return !_Bound->_Isnil && !_DEBUG_LT_PRED(_Getcomp(), _Keyval, _Traits::_Kfn(_Bound->_Myval));

  00028	72 0e		 jb	 SHORT $LN2@GetGuild

; 37   :     _Tree_unchecked_const_iterator(_Nodeptr _Pnode, const _Mytree* _Plist) noexcept : _Ptr(_Pnode) {

  0002a	3b 06		 cmp	 eax, DWORD PTR [esi]
; File C:\IAGOS\server\v18\Source\Source\_common\guild.cpp

; 789  : 	if( i != m_mapPGuild.end() )

  0002c	74 0a		 je	 SHORT $LN2@GetGuild

; 790  : 		return i->second;

  0002e	8b 40 14	 mov	 eax, DWORD PTR [eax+20]
  00031	5e		 pop	 esi

; 792  : }

  00032	8b e5		 mov	 esp, ebp
  00034	5d		 pop	 ebp
  00035	c2 04 00	 ret	 4
$LN2@GetGuild:

; 791  : 	return NULL;

  00038	33 c0		 xor	 eax, eax
  0003a	5e		 pop	 esi

; 792  : }

  0003b	8b e5		 mov	 esp, ebp
  0003d	5d		 pop	 ebp
  0003e	c2 04 00	 ret	 4
?GetGuild@CGuildMng@@QAEPAVCGuild@@K@Z ENDP		; CGuildMng::GetGuild
_TEXT	ENDS
; Function compile flags: /Ogtp
; File C:\IAGOS\server\v18\Source\Source\_common\guild.cpp
; File C:\Program Files\Microsoft Visual Studio\2022\Professional\VC\Tools\MSVC\14.44.35207\include\xtree
; File C:\IAGOS\server\v18\Source\Source\_common\guild.cpp
; File C:\Program Files\Microsoft Visual Studio\2022\Professional\VC\Tools\MSVC\14.44.35207\include\xtree
; File C:\Program Files\Microsoft Visual Studio\2022\Professional\VC\Tools\MSVC\14.44.35207\include\type_traits
; File C:\Program Files\Microsoft Visual Studio\2022\Professional\VC\Tools\MSVC\14.44.35207\include\xtree
; File C:\Program Files\Microsoft Visual Studio\2022\Professional\VC\Tools\MSVC\14.44.35207\include\type_traits
; File C:\Program Files\Microsoft Visual Studio\2022\Professional\VC\Tools\MSVC\14.44.35207\include\xtree
; File C:\Program Files\Microsoft Visual Studio\2022\Professional\VC\Tools\MSVC\14.44.35207\include\type_traits
; File C:\Program Files\Microsoft Visual Studio\2022\Professional\VC\Tools\MSVC\14.44.35207\include\xtree
; File C:\Program Files\Microsoft Visual Studio\2022\Professional\VC\Tools\MSVC\14.44.35207\include\xmemory
; File C:\Program Files\Microsoft Visual Studio\2022\Professional\VC\Tools\MSVC\14.44.35207\include\xtree
; File C:\Program Files\Microsoft Visual Studio\2022\Professional\VC\Tools\MSVC\14.44.35207\include\xmemory
; File C:\Program Files\Microsoft Visual Studio\2022\Professional\VC\Tools\MSVC\14.44.35207\include\xtree
; File C:\IAGOS\server\v18\Source\Source\_common\guild.cpp
;	COMDAT ?RemoveGuild@CGuildMng@@QAEHK@Z
_TEXT	SEGMENT
_this$GSCopy$1$ = -44					; size = 4
_pGuild$1$ = -40					; size = 4
__First$ = -36						; size = 4
_this$1$ = -32						; size = 4
$T1 = -28						; size = 24
__$ArrayPad$ = -4					; size = 4
_idGuild$ = 8						; size = 4
?RemoveGuild@CGuildMng@@QAEHK@Z PROC			; CGuildMng::RemoveGuild, COMDAT
; _this$ = ecx

; 772  : {

  00000	55		 push	 ebp
  00001	8b ec		 mov	 ebp, esp
  00003	83 ec 2c	 sub	 esp, 44			; 0000002cH
  00006	a1 00 00 00 00	 mov	 eax, DWORD PTR ___security_cookie
  0000b	33 c5		 xor	 eax, ebp
  0000d	89 45 fc	 mov	 DWORD PTR __$ArrayPad$[ebp], eax
  00010	8b 45 08	 mov	 eax, DWORD PTR _idGuild$[ebp]
  00013	53		 push	 ebx
  00014	56		 push	 esi
  00015	8b f1		 mov	 esi, ecx

; 773  : //	locked
; 774  : 	CGuild* pGuild	= GetGuild( idGuild );

  00017	50		 push	 eax
  00018	89 75 d4	 mov	 DWORD PTR _this$GSCopy$1$[ebp], esi
  0001b	e8 00 00 00 00	 call	 ?GetGuild@CGuildMng@@QAEPAVCGuild@@K@Z ; CGuildMng::GetGuild
  00020	8b d8		 mov	 ebx, eax
  00022	89 5d d8	 mov	 DWORD PTR _pGuild$1$[ebp], ebx

; 775  : 	if( pGuild )

  00025	85 db		 test	 ebx, ebx
  00027	0f 84 f9 00 00
	00		 je	 $LN2@RemoveGuil

; 777  : 		m_mapPGuild.erase( pGuild->m_idGuild );

  0002d	8d 56 08	 lea	 edx, DWORD PTR [esi+8]
  00030	57		 push	 edi
; File C:\Program Files\Microsoft Visual Studio\2022\Professional\VC\Tools\MSVC\14.44.35207\include\xtree

; 1709 :         _Nodeptr _Pnode   = _Scary->_Myhead->_Parent;

  00031	8b 3a		 mov	 edi, DWORD PTR [edx]

; 1710 :         _Nodeptr _Lonode  = _Scary->_Myhead; // end() if search fails

  00033	8b f7		 mov	 esi, edi
; File C:\IAGOS\server\v18\Source\Source\_common\guild.cpp

; 777  : 		m_mapPGuild.erase( pGuild->m_idGuild );

  00035	89 55 e0	 mov	 DWORD PTR _this$1$[ebp], edx
; File C:\Program Files\Microsoft Visual Studio\2022\Professional\VC\Tools\MSVC\14.44.35207\include\xtree

; 1709 :         _Nodeptr _Pnode   = _Scary->_Myhead->_Parent;

  00038	8b 4f 04	 mov	 ecx, DWORD PTR [edi+4]
  0003b	8b c1		 mov	 eax, ecx

; 1711 :         _Nodeptr _Hinode  = _Scary->_Myhead; // end() if search fails
; 1712 : 
; 1713 :         while (!_Pnode->_Isnil) {

  0003d	80 78 0d 00	 cmp	 BYTE PTR [eax+13], 0
  00041	75 2a		 jne	 SHORT $LN13@RemoveGuil
; File C:\Program Files\Microsoft Visual Studio\2022\Professional\VC\Tools\MSVC\14.44.35207\include\type_traits

; 2380 :         return _Left < _Right;

  00043	8b 5b 04	 mov	 ebx, DWORD PTR [ebx+4]
$LL12@RemoveGuil:
  00046	8b 50 10	 mov	 edx, DWORD PTR [eax+16]
  00049	3b d3		 cmp	 edx, ebx
; File C:\Program Files\Microsoft Visual Studio\2022\Professional\VC\Tools\MSVC\14.44.35207\include\xtree

; 1715 :             if (_DEBUG_LT_PRED(_Comp, _Nodekey, _Keyval)) {

  0004b	73 05		 jae	 SHORT $LN16@RemoveGuil

; 1716 :                 _Pnode = _Pnode->_Right; // descend right subtree

  0004d	8b 40 08	 mov	 eax, DWORD PTR [eax+8]

; 1717 :             } else { // _Pnode not less than _Keyval, remember it

  00050	eb 0f		 jmp	 SHORT $LN17@RemoveGuil
$LN16@RemoveGuil:

; 1718 :                 if (_Hinode->_Isnil && _DEBUG_LT_PRED(_Comp, _Keyval, _Nodekey)) {

  00052	80 7f 0d 00	 cmp	 BYTE PTR [edi+13], 0
  00056	74 05		 je	 SHORT $LN18@RemoveGuil
; File C:\Program Files\Microsoft Visual Studio\2022\Professional\VC\Tools\MSVC\14.44.35207\include\type_traits

; 2380 :         return _Left < _Right;

  00058	3b da		 cmp	 ebx, edx
; File C:\Program Files\Microsoft Visual Studio\2022\Professional\VC\Tools\MSVC\14.44.35207\include\xtree

; 1718 :                 if (_Hinode->_Isnil && _DEBUG_LT_PRED(_Comp, _Keyval, _Nodekey)) {

  0005a	0f 42 f8	 cmovb	 edi, eax
$LN18@RemoveGuil:

; 1719 :                     _Hinode = _Pnode; // _Pnode greater, remember it
; 1720 :                 }
; 1721 : 
; 1722 :                 _Lonode = _Pnode;

  0005d	8b f0		 mov	 esi, eax

; 1723 :                 _Pnode  = _Pnode->_Left; // descend left subtree

  0005f	8b 00		 mov	 eax, DWORD PTR [eax]
$LN17@RemoveGuil:

; 1711 :         _Nodeptr _Hinode  = _Scary->_Myhead; // end() if search fails
; 1712 : 
; 1713 :         while (!_Pnode->_Isnil) {

  00061	80 78 0d 00	 cmp	 BYTE PTR [eax+13], 0
  00065	74 df		 je	 SHORT $LL12@RemoveGuil
  00067	8b 5d d8	 mov	 ebx, DWORD PTR _pGuild$1$[ebp]
  0006a	8b 55 e0	 mov	 edx, DWORD PTR _this$1$[ebp]
$LN13@RemoveGuil:

; 1724 :             }
; 1725 :         }
; 1726 : 
; 1727 :         _Pnode = _Hinode->_Isnil ? _Scary->_Myhead->_Parent : _Hinode->_Left; // continue scan for upper bound

  0006d	80 7f 0d 00	 cmp	 BYTE PTR [edi+13], 0
  00071	75 02		 jne	 SHORT $LN23@RemoveGuil
  00073	8b 0f		 mov	 ecx, DWORD PTR [edi]
$LN23@RemoveGuil:

; 1728 :         while (!_Pnode->_Isnil) {

  00075	80 79 0d 00	 cmp	 BYTE PTR [ecx+13], 0
  00079	75 19		 jne	 SHORT $LN15@RemoveGuil
; File C:\Program Files\Microsoft Visual Studio\2022\Professional\VC\Tools\MSVC\14.44.35207\include\type_traits

; 2380 :         return _Left < _Right;

  0007b	8b 43 04	 mov	 eax, DWORD PTR [ebx+4]
  0007e	66 90		 npad	 2
$LL14@RemoveGuil:
  00080	3b 41 10	 cmp	 eax, DWORD PTR [ecx+16]
; File C:\Program Files\Microsoft Visual Studio\2022\Professional\VC\Tools\MSVC\14.44.35207\include\xtree

; 1729 :             if (_DEBUG_LT_PRED(_Getcomp(), _Keyval, _Traits::_Kfn(_Pnode->_Myval))) {

  00083	73 06		 jae	 SHORT $LN19@RemoveGuil

; 1730 :                 // _Pnode greater than _Keyval, remember it
; 1731 :                 _Hinode = _Pnode;

  00085	8b f9		 mov	 edi, ecx

; 1732 :                 _Pnode  = _Pnode->_Left; // descend left subtree

  00087	8b 09		 mov	 ecx, DWORD PTR [ecx]

; 1733 :             } else {

  00089	eb 03		 jmp	 SHORT $LN20@RemoveGuil
$LN19@RemoveGuil:

; 1734 :                 _Pnode = _Pnode->_Right; // descend right subtree

  0008b	8b 49 08	 mov	 ecx, DWORD PTR [ecx+8]
$LN20@RemoveGuil:

; 1728 :         while (!_Pnode->_Isnil) {

  0008e	80 79 0d 00	 cmp	 BYTE PTR [ecx+13], 0
  00092	74 ec		 je	 SHORT $LL14@RemoveGuil
$LN15@RemoveGuil:

; 96   :         return _Ptr == _Right._Ptr;

  00094	8b 02		 mov	 eax, DWORD PTR [edx]

; 1329 :         _Erase_unchecked(_First, _Last);

  00096	89 75 dc	 mov	 DWORD PTR __First$[ebp], esi

; 96   :         return _Ptr == _Right._Ptr;

  00099	3b 30		 cmp	 esi, DWORD PTR [eax]

; 1311 :         if (_First == _Begin && _Last._Ptr->_Isnil) {

  0009b	75 0f		 jne	 SHORT $LN130@RemoveGuil
  0009d	80 7f 0d 00	 cmp	 BYTE PTR [edi+13], 0
  000a1	74 09		 je	 SHORT $LN130@RemoveGuil

; 1312 :             // erase all
; 1313 :             clear();

  000a3	8b ca		 mov	 ecx, edx
  000a5	e8 00 00 00 00	 call	 ?clear@?$_Tree@V?$_Tmap_traits@KPAVCGuild@@U?$less@K@std@@V?$allocator@U?$pair@$$CBKPAVCGuild@@@std@@@3@$0A@@std@@@std@@QAEXXZ ; std::_Tree<std::_Tmap_traits<unsigned long,CGuild *,std::less<unsigned long>,std::allocator<std::pair<unsigned long const ,CGuild *> >,0> >::clear

; 1314 :             return _Last._Ptr;

  000aa	eb 2c		 jmp	 SHORT $LN136@RemoveGuil
$LN130@RemoveGuil:

; 101  :         return !(*this == _Right);

  000ac	3b f7		 cmp	 esi, edi

; 1318 :         while (_First != _Last) {

  000ae	74 28		 je	 SHORT $LN136@RemoveGuil
  000b0	8b 5d e0	 mov	 ebx, DWORD PTR _this$1$[ebp]
$LL70@RemoveGuil:

; 66   :         ++*this;

  000b3	8d 4d dc	 lea	 ecx, DWORD PTR __First$[ebp]
  000b6	e8 00 00 00 00	 call	 ??E?$_Tree_unchecked_const_iterator@V?$_Tree_val@U?$_Tree_simple_types@U?$pair@$$CBKPAVCGuild@@@std@@@std@@@std@@U_Iterator_base0@2@@std@@QAEAAV01@XZ ; std::_Tree_unchecked_const_iterator<std::_Tree_val<std::_Tree_simple_types<std::pair<unsigned long const ,CGuild *> > >,std::_Iterator_base0>::operator++

; 1303 :         _Nodeptr _Erasednode = _Scary->_Extract(_Where); // node to erase

  000bb	56		 push	 esi
  000bc	8b cb		 mov	 ecx, ebx
  000be	e8 00 00 00 00	 call	 ?_Extract@?$_Tree_val@U?$_Tree_simple_types@U?$pair@$$CBKPAVCGuild@@@std@@@std@@@std@@QAEPAU?$_Tree_node@U?$pair@$$CBKPAVCGuild@@@std@@PAX@2@V?$_Tree_unchecked_const_iterator@V?$_Tree_val@U?$_Tree_simple_types@U?$pair@$$CBKPAVCGuild@@@std@@@std@@@std@@U_Iterator_base0@2@@2@@Z ; std::_Tree_val<std::_Tree_simple_types<std::pair<unsigned long const ,CGuild *> > >::_Extract
; File C:\Program Files\Microsoft Visual Studio\2022\Professional\VC\Tools\MSVC\14.44.35207\include\xmemory

; 289  :         ::operator delete(_Ptr, _Bytes);

  000c3	6a 18		 push	 24			; 00000018H
  000c5	50		 push	 eax
  000c6	e8 00 00 00 00	 call	 ??3@YAXPAXI@Z		; operator delete
; File C:\Program Files\Microsoft Visual Studio\2022\Professional\VC\Tools\MSVC\14.44.35207\include\xtree

; 101  :         return !(*this == _Right);

  000cb	8b 75 dc	 mov	 esi, DWORD PTR __First$[ebp]
; File C:\Program Files\Microsoft Visual Studio\2022\Professional\VC\Tools\MSVC\14.44.35207\include\xmemory

; 289  :         ::operator delete(_Ptr, _Bytes);

  000ce	83 c4 08	 add	 esp, 8
; File C:\Program Files\Microsoft Visual Studio\2022\Professional\VC\Tools\MSVC\14.44.35207\include\xtree

; 101  :         return !(*this == _Right);

  000d1	3b f7		 cmp	 esi, edi

; 1318 :         while (_First != _Last) {

  000d3	75 de		 jne	 SHORT $LL70@RemoveGuil
  000d5	8b 5d d8	 mov	 ebx, DWORD PTR _pGuild$1$[ebp]
$LN136@RemoveGuil:
; File C:\IAGOS\server\v18\Source\Source\_common\guild.cpp

; 778  : 		if( lstrlen( pGuild->m_szGuild ) > 0 )

  000d8	8d 73 08	 lea	 esi, DWORD PTR [ebx+8]
  000db	56		 push	 esi
  000dc	ff 15 00 00 00
	00		 call	 DWORD PTR __imp__lstrlenA@4
  000e2	5f		 pop	 edi
  000e3	85 c0		 test	 eax, eax
  000e5	7e 20		 jle	 SHORT $LN3@RemoveGuil

; 779  : 			m_mapPGuild2.erase( pGuild->m_szGuild );

  000e7	56		 push	 esi
  000e8	8d 4d e4	 lea	 ecx, DWORD PTR $T1[ebp]
  000eb	e8 00 00 00 00	 call	 ??0?$basic_string@DU?$char_traits@D@std@@V?$allocator@D@2@@std@@QAE@QBD@Z ; std::basic_string<char,std::char_traits<char>,std::allocator<char> >::basic_string<char,std::char_traits<char>,std::allocator<char> >
  000f0	8b 4d d4	 mov	 ecx, DWORD PTR _this$GSCopy$1$[ebp]
  000f3	8d 45 e4	 lea	 eax, DWORD PTR $T1[ebp]
  000f6	50		 push	 eax
  000f7	83 c1 10	 add	 ecx, 16			; 00000010H
  000fa	e8 00 00 00 00	 call	 ?erase@?$_Tree@V?$_Tmap_traits@V?$basic_string@DU?$char_traits@D@std@@V?$allocator@D@2@@std@@PAVCGuild@@U?$less@V?$basic_string@DU?$char_traits@D@std@@V?$allocator@D@2@@std@@@2@V?$allocator@U?$pair@$$CBV?$basic_string@DU?$char_traits@D@std@@V?$allocator@D@2@@std@@PAVCGuild@@@std@@@2@$0A@@std@@@std@@QAEIABV?$basic_string@DU?$char_traits@D@std@@V?$allocator@D@2@@2@@Z ; std::_Tree<std::_Tmap_traits<std::basic_string<char,std::char_traits<char>,std::allocator<char> >,CGuild *,std::less<std::basic_string<char,std::char_traits<char>,std::allocator<char> > >,std::allocator<std::pair<std::basic_string<char,std::char_traits<char>,std::allocator<char> > const ,CGuild *> >,0> >::erase
  000ff	8d 4d e4	 lea	 ecx, DWORD PTR $T1[ebp]
  00102	e8 00 00 00 00	 call	 ??1?$basic_string@DU?$char_traits@D@std@@V?$allocator@D@2@@std@@QAE@XZ ; std::basic_string<char,std::char_traits<char>,std::allocator<char> >::~basic_string<char,std::char_traits<char>,std::allocator<char> >
$LN3@RemoveGuil:

; 780  : 		safe_delete( pGuild );

  00107	8b 03		 mov	 eax, DWORD PTR [ebx]
  00109	8b cb		 mov	 ecx, ebx
  0010b	6a 01		 push	 1
  0010d	ff 10		 call	 DWORD PTR [eax]
  0010f	5e		 pop	 esi

; 781  : 		return TRUE;

  00110	b8 01 00 00 00	 mov	 eax, 1

; 782  : 	}
; 783  : 	return FALSE;
; 784  : }

  00115	5b		 pop	 ebx
  00116	8b 4d fc	 mov	 ecx, DWORD PTR __$ArrayPad$[ebp]
  00119	33 cd		 xor	 ecx, ebp
  0011b	e8 00 00 00 00	 call	 @__security_check_cookie@4
  00120	8b e5		 mov	 esp, ebp
  00122	5d		 pop	 ebp
  00123	c2 04 00	 ret	 4
$LN2@RemoveGuil:
  00126	8b 4d fc	 mov	 ecx, DWORD PTR __$ArrayPad$[ebp]
  00129	33 c0		 xor	 eax, eax
  0012b	5e		 pop	 esi
  0012c	33 cd		 xor	 ecx, ebp
  0012e	5b		 pop	 ebx
  0012f	e8 00 00 00 00	 call	 @__security_check_cookie@4
  00134	8b e5		 mov	 esp, ebp
  00136	5d		 pop	 ebp
  00137	c2 04 00	 ret	 4
?RemoveGuild@CGuildMng@@QAEHK@Z ENDP			; CGuildMng::RemoveGuild
_TEXT	ENDS
; Function compile flags: /Ogtp
; File C:\IAGOS\server\v18\Source\Source\_common\guild.cpp
; File C:\Program Files\Microsoft Visual Studio\2022\Professional\VC\Tools\MSVC\14.44.35207\include\utility
; File C:\IAGOS\server\v18\Source\Source\_common\guild.cpp
; File C:\Program Files\Microsoft Visual Studio\2022\Professional\VC\Tools\MSVC\14.44.35207\include\utility
; File C:\IAGOS\server\v18\Source\Source\_common\guild.cpp
; File C:\Program Files\Microsoft Visual Studio\2022\Professional\VC\Tools\MSVC\14.44.35207\include\utility
; File C:\Program Files\Microsoft Visual Studio\2022\Professional\VC\Tools\MSVC\14.44.35207\include\xtree
; File C:\IAGOS\server\v18\Source\Source\_common\guild.cpp
; File C:\Program Files\Microsoft Visual Studio\2022\Professional\VC\Tools\MSVC\14.44.35207\include\xtree
; File C:\IAGOS\server\v18\Source\Source\_common\guild.cpp
; File C:\Program Files\Microsoft Visual Studio\2022\Professional\VC\Tools\MSVC\14.44.35207\include\xtree
; File C:\IAGOS\server\v18\Source\Source\_common\guild.cpp
;	COMDAT ?AddGuild@CGuildMng@@QAEKPAVCGuild@@@Z
_TEXT	SEGMENT
$T2 = -60						; size = 8
__Result$3 = -60					; size = 8
$T4 = -52						; size = 8
$T5 = -44						; size = 28
__$ArrayPad$ = -16					; size = 4
__$EHRec$ = -12						; size = 12
_pGuild$ = 8						; size = 4
?AddGuild@CGuildMng@@QAEKPAVCGuild@@@Z PROC		; CGuildMng::AddGuild, COMDAT
; _this$ = ecx

; 759  : {

  00000	55		 push	 ebp
  00001	8b ec		 mov	 ebp, esp
  00003	6a ff		 push	 -1
  00005	68 00 00 00 00	 push	 __ehhandler$?AddGuild@CGuildMng@@QAEKPAVCGuild@@@Z
  0000a	64 a1 00 00 00
	00		 mov	 eax, DWORD PTR fs:0
  00010	50		 push	 eax
  00011	83 ec 30	 sub	 esp, 48			; 00000030H
  00014	a1 00 00 00 00	 mov	 eax, DWORD PTR ___security_cookie
  00019	33 c5		 xor	 eax, ebp
  0001b	89 45 f0	 mov	 DWORD PTR __$ArrayPad$[ebp], eax
  0001e	53		 push	 ebx
  0001f	56		 push	 esi
  00020	57		 push	 edi
  00021	50		 push	 eax
  00022	8d 45 f4	 lea	 eax, DWORD PTR __$EHRec$[ebp]
  00025	64 a3 00 00 00
	00		 mov	 DWORD PTR fs:0, eax
  0002b	8b f9		 mov	 edi, ecx
  0002d	8b 5d 08	 mov	 ebx, DWORD PTR _pGuild$[ebp]

; 760  : //	locked
; 761  : 	m_id	= ( pGuild->m_idGuild != 0? pGuild->m_idGuild: m_id + 1 );

  00030	8b 73 04	 mov	 esi, DWORD PTR [ebx+4]
  00033	85 f6		 test	 esi, esi
  00035	75 04		 jne	 SHORT $LN6@AddGuild
  00037	8b 77 04	 mov	 esi, DWORD PTR [edi+4]
  0003a	46		 inc	 esi
$LN6@AddGuild:

; 762  : 	if( GetGuild( m_id ) )

  0003b	56		 push	 esi
  0003c	89 77 04	 mov	 DWORD PTR [edi+4], esi
  0003f	e8 00 00 00 00	 call	 ?GetGuild@CGuildMng@@QAEPAVCGuild@@K@Z ; CGuildMng::GetGuild
  00044	85 c0		 test	 eax, eax
  00046	74 04		 je	 SHORT $LN2@AddGuild

; 763  : 		return 0;

  00048	33 c0		 xor	 eax, eax
  0004a	eb 58		 jmp	 SHORT $LN1@AddGuild
$LN2@AddGuild:

; 764  : 	pGuild->m_idGuild	= m_id;

  0004c	89 73 04	 mov	 DWORD PTR [ebx+4], esi

; 765  : 	m_mapPGuild.insert( map<u_long, CGuild*>::value_type( m_id, pGuild ) );

  0004f	8d 4f 08	 lea	 ecx, DWORD PTR [edi+8]
; File C:\Program Files\Microsoft Visual Studio\2022\Professional\VC\Tools\MSVC\14.44.35207\include\utility

; 274  :         : first(_STD forward<_Other1>(_Val1)), second(_STD forward<_Other2>(_Val2)) {

  00052	8b 47 04	 mov	 eax, DWORD PTR [edi+4]
  00055	89 45 cc	 mov	 DWORD PTR $T4[ebp], eax
; File C:\IAGOS\server\v18\Source\Source\_common\guild.cpp

; 765  : 	m_mapPGuild.insert( map<u_long, CGuild*>::value_type( m_id, pGuild ) );

  00058	8d 45 cc	 lea	 eax, DWORD PTR $T4[ebp]
  0005b	50		 push	 eax
  0005c	8d 45 c4	 lea	 eax, DWORD PTR $T2[ebp]
; File C:\Program Files\Microsoft Visual Studio\2022\Professional\VC\Tools\MSVC\14.44.35207\include\utility

; 274  :         : first(_STD forward<_Other1>(_Val1)), second(_STD forward<_Other2>(_Val2)) {

  0005f	89 5d d0	 mov	 DWORD PTR $T4[ebp+4], ebx
; File C:\IAGOS\server\v18\Source\Source\_common\guild.cpp

; 765  : 	m_mapPGuild.insert( map<u_long, CGuild*>::value_type( m_id, pGuild ) );

  00062	50		 push	 eax
  00063	e8 00 00 00 00	 call	 ??$insert@$0A@$0A@@?$_Tree@V?$_Tmap_traits@KPAVCGuild@@U?$less@K@std@@V?$allocator@U?$pair@$$CBKPAVCGuild@@@std@@@3@$0A@@std@@@std@@QAE?AU?$pair@V?$_Tree_iterator@V?$_Tree_val@U?$_Tree_simple_types@U?$pair@$$CBKPAVCGuild@@@std@@@std@@@std@@@std@@_N@1@$$QAU?$pair@$$CBKPAVCGuild@@@1@@Z ; std::_Tree<std::_Tmap_traits<unsigned long,CGuild *,std::less<unsigned long>,std::allocator<std::pair<unsigned long const ,CGuild *> >,0> >::insert<0,0>

; 766  : 	if( lstrlen( pGuild->m_szGuild ) > 0 )

  00068	8d 73 08	 lea	 esi, DWORD PTR [ebx+8]
  0006b	56		 push	 esi
  0006c	ff 15 00 00 00
	00		 call	 DWORD PTR __imp__lstrlenA@4
  00072	85 c0		 test	 eax, eax
  00074	7e 2b		 jle	 SHORT $LN29@AddGuild
; File C:\Program Files\Microsoft Visual Studio\2022\Professional\VC\Tools\MSVC\14.44.35207\include\utility

; 274  :         : first(_STD forward<_Other1>(_Val1)), second(_STD forward<_Other2>(_Val2)) {

  00076	56		 push	 esi
  00077	8d 4d d4	 lea	 ecx, DWORD PTR $T5[ebp]
  0007a	e8 00 00 00 00	 call	 ??0?$basic_string@DU?$char_traits@D@std@@V?$allocator@D@2@@std@@QAE@QBD@Z ; std::basic_string<char,std::char_traits<char>,std::allocator<char> >::basic_string<char,std::char_traits<char>,std::allocator<char> >
  0007f	89 5d ec	 mov	 DWORD PTR $T5[ebp+24], ebx
; File C:\Program Files\Microsoft Visual Studio\2022\Professional\VC\Tools\MSVC\14.44.35207\include\xtree

; 1246 :         const auto _Result = _Emplace(_STD move(_Val));

  00082	8d 45 d4	 lea	 eax, DWORD PTR $T5[ebp]
; File C:\IAGOS\server\v18\Source\Source\_common\guild.cpp

; 767  : 		m_mapPGuild2.insert( map<string, CGuild*>::value_type( pGuild->m_szGuild, pGuild ) );

  00085	c7 45 fc 00 00
	00 00		 mov	 DWORD PTR __$EHRec$[ebp+8], 0
; File C:\Program Files\Microsoft Visual Studio\2022\Professional\VC\Tools\MSVC\14.44.35207\include\xtree

; 1246 :         const auto _Result = _Emplace(_STD move(_Val));

  0008c	50		 push	 eax
  0008d	8d 45 c4	 lea	 eax, DWORD PTR __Result$3[ebp]
  00090	50		 push	 eax
; File C:\IAGOS\server\v18\Source\Source\_common\guild.cpp

; 767  : 		m_mapPGuild2.insert( map<string, CGuild*>::value_type( pGuild->m_szGuild, pGuild ) );

  00091	8d 4f 10	 lea	 ecx, DWORD PTR [edi+16]
; File C:\Program Files\Microsoft Visual Studio\2022\Professional\VC\Tools\MSVC\14.44.35207\include\xtree

; 1246 :         const auto _Result = _Emplace(_STD move(_Val));

  00094	e8 00 00 00 00	 call	 ??$_Emplace@U?$pair@$$CBV?$basic_string@DU?$char_traits@D@std@@V?$allocator@D@2@@std@@PAVCGuild@@@std@@@?$_Tree@V?$_Tmap_traits@V?$basic_string@DU?$char_traits@D@std@@V?$allocator@D@2@@std@@PAVCGuild@@U?$less@V?$basic_string@DU?$char_traits@D@std@@V?$allocator@D@2@@std@@@2@V?$allocator@U?$pair@$$CBV?$basic_string@DU?$char_traits@D@std@@V?$allocator@D@2@@std@@PAVCGuild@@@std@@@2@$0A@@std@@@std@@IAE?AU?$pair@PAU?$_Tree_node@U?$pair@$$CBV?$basic_string@DU?$char_traits@D@std@@V?$allocator@D@2@@std@@PAVCGuild@@@std@@PAX@std@@_N@1@$$QAU?$pair@$$CBV?$basic_string@DU?$char_traits@D@std@@V?$allocator@D@2@@std@@PAVCGuild@@@1@@Z ; std::_Tree<std::_Tmap_traits<std::basic_string<char,std::char_traits<char>,std::allocator<char> >,CGuild *,std::less<std::basic_string<char,std::char_traits<char>,std::allocator<char> > >,std::allocator<std::pair<std::basic_string<char,std::char_traits<char>,std::allocator<char> > const ,CGuild *> >,0> >::_Emplace<std::pair<std::basic_string<char,std::char_traits<char>,std::allocator<char> > const ,CGuild *> >
  00099	8d 4d d4	 lea	 ecx, DWORD PTR $T5[ebp]
  0009c	e8 00 00 00 00	 call	 ??1?$basic_string@DU?$char_traits@D@std@@V?$allocator@D@2@@std@@QAE@XZ ; std::basic_string<char,std::char_traits<char>,std::allocator<char> >::~basic_string<char,std::char_traits<char>,std::allocator<char> >
$LN29@AddGuild:
; File C:\IAGOS\server\v18\Source\Source\_common\guild.cpp

; 768  : 	return m_id;

  000a1	8b 47 04	 mov	 eax, DWORD PTR [edi+4]
$LN1@AddGuild:

; 769  : }

  000a4	8b 4d f4	 mov	 ecx, DWORD PTR __$EHRec$[ebp]
  000a7	64 89 0d 00 00
	00 00		 mov	 DWORD PTR fs:0, ecx
  000ae	59		 pop	 ecx
  000af	5f		 pop	 edi
  000b0	5e		 pop	 esi
  000b1	5b		 pop	 ebx
  000b2	8b 4d f0	 mov	 ecx, DWORD PTR __$ArrayPad$[ebp]
  000b5	33 cd		 xor	 ecx, ebp
  000b7	e8 00 00 00 00	 call	 @__security_check_cookie@4
  000bc	8b e5		 mov	 esp, ebp
  000be	5d		 pop	 ebp
  000bf	c2 04 00	 ret	 4
_TEXT	ENDS
;	COMDAT text$x
text$x	SEGMENT
__unwindfunclet$?AddGuild@CGuildMng@@QAEKPAVCGuild@@@Z$0:
  00000	8d 4d d4	 lea	 ecx, DWORD PTR $T5[ebp]
  00003	e9 00 00 00 00	 jmp	 ??1?$pair@$$CBV?$basic_string@DU?$char_traits@D@std@@V?$allocator@D@2@@std@@PAVCGuild@@@std@@QAE@XZ
  00008	cc		 int	 3
  00009	cc		 int	 3
  0000a	cc		 int	 3
  0000b	cc		 int	 3
  0000c	cc		 int	 3
__ehhandler$?AddGuild@CGuildMng@@QAEKPAVCGuild@@@Z:
  0000d	90		 npad	 1
  0000e	90		 npad	 1
  0000f	8b 54 24 08	 mov	 edx, DWORD PTR [esp+8]
  00013	8d 42 0c	 lea	 eax, DWORD PTR [edx+12]
  00016	8b 4a c0	 mov	 ecx, DWORD PTR [edx-64]
  00019	33 c8		 xor	 ecx, eax
  0001b	e8 00 00 00 00	 call	 @__security_check_cookie@4
  00020	8b 4a fc	 mov	 ecx, DWORD PTR [edx-4]
  00023	33 c8		 xor	 ecx, eax
  00025	e8 00 00 00 00	 call	 @__security_check_cookie@4
  0002a	b8 00 00 00 00	 mov	 eax, OFFSET __ehfuncinfo$?AddGuild@CGuildMng@@QAEKPAVCGuild@@@Z
  0002f	e9 00 00 00 00	 jmp	 ___CxxFrameHandler3
text$x	ENDS
?AddGuild@CGuildMng@@QAEKPAVCGuild@@@Z ENDP		; CGuildMng::AddGuild
; Function compile flags: /Ogtp
; File C:\IAGOS\server\v18\Source\Source\_common\guild.cpp
; File C:\Program Files\Microsoft Visual Studio\2022\Professional\VC\Tools\MSVC\14.44.35207\include\xtree
; File C:\IAGOS\server\v18\Source\Source\_common\guild.cpp
; File C:\Program Files\Microsoft Visual Studio\2022\Professional\VC\Tools\MSVC\14.44.35207\include\xtree
; File C:\IAGOS\server\v18\Source\Source\_common\guild.cpp
; File C:\Program Files\Microsoft Visual Studio\2022\Professional\VC\Tools\MSVC\14.44.35207\include\xtree
; File C:\IAGOS\server\v18\Source\Source\_common\guild.cpp
; File C:\Program Files\Microsoft Visual Studio\2022\Professional\VC\Tools\MSVC\14.44.35207\include\xtree
; File C:\IAGOS\server\v18\Source\Source\_common\guild.cpp
;	COMDAT ?Clear@CGuildMng@@QAEXXZ
_TEXT	SEGMENT
_i$1 = -4						; size = 4
?Clear@CGuildMng@@QAEXXZ PROC				; CGuildMng::Clear, COMDAT
; _this$ = ecx

; 730  : {

  00000	55		 push	 ebp
  00001	8b ec		 mov	 ebp, esp
  00003	51		 push	 ecx
  00004	56		 push	 esi
  00005	57		 push	 edi
  00006	8b f9		 mov	 edi, ecx
; File C:\Program Files\Microsoft Visual Studio\2022\Professional\VC\Tools\MSVC\14.44.35207\include\xtree

; 1142 :         return iterator(_Scary->_Myhead->_Left, _Scary);

  00008	8b 57 08	 mov	 edx, DWORD PTR [edi+8]

; 37   :     _Tree_unchecked_const_iterator(_Nodeptr _Pnode, const _Mytree* _Plist) noexcept : _Ptr(_Pnode) {

  0000b	8b 02		 mov	 eax, DWORD PTR [edx]
  0000d	89 45 fc	 mov	 DWORD PTR _i$1[ebp], eax

; 237  :         return !(*this == _Right);

  00010	3b c2		 cmp	 eax, edx
; File C:\IAGOS\server\v18\Source\Source\_common\guild.cpp

; 735  : 	for( map<u_long, CGuild*>::iterator i = m_mapPGuild.begin(); i != m_mapPGuild.end(); ++i )

  00012	74 1d		 je	 SHORT $LN3@Clear
$LL4@Clear:

; 736  : 		safe_delete( i->second );

  00014	8b 48 14	 mov	 ecx, DWORD PTR [eax+20]
  00017	85 c9		 test	 ecx, ecx
  00019	74 06		 je	 SHORT $LN2@Clear
  0001b	8b 01		 mov	 eax, DWORD PTR [ecx]
  0001d	6a 01		 push	 1
  0001f	ff 10		 call	 DWORD PTR [eax]
$LN2@Clear:
; File C:\Program Files\Microsoft Visual Studio\2022\Professional\VC\Tools\MSVC\14.44.35207\include\xtree

; 198  :         _Mybase::operator++();

  00021	8d 4d fc	 lea	 ecx, DWORD PTR _i$1[ebp]
  00024	e8 00 00 00 00	 call	 ??E?$_Tree_unchecked_const_iterator@V?$_Tree_val@U?$_Tree_simple_types@U?$pair@$$CBKPAVCGuild@@@std@@@std@@@std@@U_Iterator_base0@2@@std@@QAEAAV01@XZ ; std::_Tree_unchecked_const_iterator<std::_Tree_val<std::_Tree_simple_types<std::pair<unsigned long const ,CGuild *> > >,std::_Iterator_base0>::operator++

; 237  :         return !(*this == _Right);

  00029	8b 45 fc	 mov	 eax, DWORD PTR _i$1[ebp]
  0002c	3b 47 08	 cmp	 eax, DWORD PTR [edi+8]
; File C:\IAGOS\server\v18\Source\Source\_common\guild.cpp

; 735  : 	for( map<u_long, CGuild*>::iterator i = m_mapPGuild.begin(); i != m_mapPGuild.end(); ++i )

  0002f	75 e3		 jne	 SHORT $LL4@Clear
$LN3@Clear:

; 737  : 	m_mapPGuild.clear();

  00031	8d 4f 08	 lea	 ecx, DWORD PTR [edi+8]
  00034	e8 00 00 00 00	 call	 ?clear@?$_Tree@V?$_Tmap_traits@KPAVCGuild@@U?$less@K@std@@V?$allocator@U?$pair@$$CBKPAVCGuild@@@std@@@3@$0A@@std@@@std@@QAEXXZ ; std::_Tree<std::_Tmap_traits<unsigned long,CGuild *,std::less<unsigned long>,std::allocator<std::pair<unsigned long const ,CGuild *> >,0> >::clear
; File C:\Program Files\Microsoft Visual Studio\2022\Professional\VC\Tools\MSVC\14.44.35207\include\xtree

; 1373 :         auto _Head = _Scary->_Myhead;

  00039	8b 77 10	 mov	 esi, DWORD PTR [edi+16]
; File C:\IAGOS\server\v18\Source\Source\_common\guild.cpp

; 738  : 	m_mapPGuild2.clear();

  0003c	83 c7 10	 add	 edi, 16			; 00000010H
; File C:\Program Files\Microsoft Visual Studio\2022\Professional\VC\Tools\MSVC\14.44.35207\include\xtree

; 1374 :         _Scary->_Erase_tree(_Getal(), _Head->_Parent);

  0003f	8b cf		 mov	 ecx, edi
  00041	ff 76 04	 push	 DWORD PTR [esi+4]
  00044	57		 push	 edi
  00045	e8 00 00 00 00	 call	 ??$_Erase_tree@V?$allocator@U?$_Tree_node@U?$pair@$$CBV?$basic_string@DU?$char_traits@D@std@@V?$allocator@D@2@@std@@PAVCGuild@@@std@@PAX@std@@@std@@@?$_Tree_val@U?$_Tree_simple_types@U?$pair@$$CBV?$basic_string@DU?$char_traits@D@std@@V?$allocator@D@2@@std@@PAVCGuild@@@std@@@std@@@std@@QAEXAAV?$allocator@U?$_Tree_node@U?$pair@$$CBV?$basic_string@DU?$char_traits@D@std@@V?$allocator@D@2@@std@@PAVCGuild@@@std@@PAX@std@@@1@PAU?$_Tree_node@U?$pair@$$CBV?$basic_string@DU?$char_traits@D@std@@V?$allocator@D@2@@std@@PAVCGuild@@@std@@PAX@1@@Z ; std::_Tree_val<std::_Tree_simple_types<std::pair<std::basic_string<char,std::char_traits<char>,std::allocator<char> > const ,CGuild *> > >::_Erase_tree<std::allocator<std::_Tree_node<std::pair<std::basic_string<char,std::char_traits<char>,std::allocator<char> > const ,CGuild *>,void *> > >

; 1375 :         _Head->_Parent  = _Head;

  0004a	89 76 04	 mov	 DWORD PTR [esi+4], esi

; 1376 :         _Head->_Left    = _Head;

  0004d	89 36		 mov	 DWORD PTR [esi], esi

; 1377 :         _Head->_Right   = _Head;

  0004f	89 76 08	 mov	 DWORD PTR [esi+8], esi

; 1378 :         _Scary->_Mysize = 0;

  00052	c7 47 04 00 00
	00 00		 mov	 DWORD PTR [edi+4], 0
  00059	5f		 pop	 edi
  0005a	5e		 pop	 esi
; File C:\IAGOS\server\v18\Source\Source\_common\guild.cpp

; 743  : }

  0005b	8b e5		 mov	 esp, ebp
  0005d	5d		 pop	 ebp
  0005e	c3		 ret	 0
?Clear@CGuildMng@@QAEXXZ ENDP				; CGuildMng::Clear
_TEXT	ENDS
; Function compile flags: /Ogtp
; File C:\IAGOS\server\v18\Source\Source\_common\guild.cpp
; File C:\Program Files\Microsoft Visual Studio\2022\Professional\VC\Tools\MSVC\14.44.35207\include\xtree
; File C:\IAGOS\server\v18\Source\Source\_common\guild.cpp
; File C:\Program Files\Microsoft Visual Studio\2022\Professional\VC\Tools\MSVC\14.44.35207\include\xtree
; File C:\Program Files\Microsoft Visual Studio\2022\Professional\VC\Tools\MSVC\14.44.35207\include\xmemory
; File C:\IAGOS\server\v18\Source\Source\_common\guild.cpp
;	COMDAT ??1CGuildMng@@UAE@XZ
_TEXT	SEGMENT
??1CGuildMng@@UAE@XZ PROC				; CGuildMng::~CGuildMng, COMDAT
; _this$ = ecx

; 725  : {

  00000	56		 push	 esi
  00001	57		 push	 edi
  00002	8b f9		 mov	 edi, ecx
  00004	c7 07 00 00 00
	00		 mov	 DWORD PTR [edi], OFFSET ??_7CGuildMng@@6B@

; 726  : 	Clear();

  0000a	e8 00 00 00 00	 call	 ?Clear@CGuildMng@@QAEXXZ ; CGuildMng::Clear
; File C:\Program Files\Microsoft Visual Studio\2022\Professional\VC\Tools\MSVC\14.44.35207\include\xtree

; 777  :         _Erase_tree(_Al, _Myhead->_Parent);

  0000f	8b 47 10	 mov	 eax, DWORD PTR [edi+16]
; File C:\IAGOS\server\v18\Source\Source\_common\guild.cpp

; 727  : }

  00012	8d 77 10	 lea	 esi, DWORD PTR [edi+16]
; File C:\Program Files\Microsoft Visual Studio\2022\Professional\VC\Tools\MSVC\14.44.35207\include\xtree

; 777  :         _Erase_tree(_Al, _Myhead->_Parent);

  00015	8b ce		 mov	 ecx, esi
  00017	ff 70 04	 push	 DWORD PTR [eax+4]
  0001a	56		 push	 esi
  0001b	e8 00 00 00 00	 call	 ??$_Erase_tree@V?$allocator@U?$_Tree_node@U?$pair@$$CBV?$basic_string@DU?$char_traits@D@std@@V?$allocator@D@2@@std@@PAVCGuild@@@std@@PAX@std@@@std@@@?$_Tree_val@U?$_Tree_simple_types@U?$pair@$$CBV?$basic_string@DU?$char_traits@D@std@@V?$allocator@D@2@@std@@PAVCGuild@@@std@@@std@@@std@@QAEXAAV?$allocator@U?$_Tree_node@U?$pair@$$CBV?$basic_string@DU?$char_traits@D@std@@V?$allocator@D@2@@std@@PAVCGuild@@@std@@PAX@std@@@1@PAU?$_Tree_node@U?$pair@$$CBV?$basic_string@DU?$char_traits@D@std@@V?$allocator@D@2@@std@@PAVCGuild@@@std@@PAX@1@@Z ; std::_Tree_val<std::_Tree_simple_types<std::pair<std::basic_string<char,std::char_traits<char>,std::allocator<char> > const ,CGuild *> > >::_Erase_tree<std::allocator<std::_Tree_node<std::pair<std::basic_string<char,std::char_traits<char>,std::allocator<char> > const ,CGuild *>,void *> > >
; File C:\Program Files\Microsoft Visual Studio\2022\Professional\VC\Tools\MSVC\14.44.35207\include\xmemory

; 289  :         ::operator delete(_Ptr, _Bytes);

  00020	6a 2c		 push	 44			; 0000002cH
  00022	ff 36		 push	 DWORD PTR [esi]
  00024	e8 00 00 00 00	 call	 ??3@YAXPAXI@Z		; operator delete
  00029	83 c4 08	 add	 esp, 8
; File C:\IAGOS\server\v18\Source\Source\_common\guild.cpp

; 727  : }

  0002c	8d 4f 08	 lea	 ecx, DWORD PTR [edi+8]
  0002f	5f		 pop	 edi
  00030	5e		 pop	 esi
  00031	e9 00 00 00 00	 jmp	 ??1?$_Tree@V?$_Tmap_traits@KPAVCGuild@@U?$less@K@std@@V?$allocator@U?$pair@$$CBKPAVCGuild@@@std@@@3@$0A@@std@@@std@@QAE@XZ ; std::_Tree<std::_Tmap_traits<unsigned long,CGuild *,std::less<unsigned long>,std::allocator<std::pair<unsigned long const ,CGuild *> >,0> >::~_Tree<std::_Tmap_traits<unsigned long,CGuild *,std::less<unsigned long>,std::allocator<std::pair<unsigned long const ,CGuild *> >,0> >
??1CGuildMng@@UAE@XZ ENDP				; CGuildMng::~CGuildMng
_TEXT	ENDS
; Function compile flags: /Ogtp
; File C:\IAGOS\server\v18\Source\Source\_common\guild.cpp
; File C:\Program Files\Microsoft Visual Studio\2022\Professional\VC\Tools\MSVC\14.44.35207\include\xmemory
; File C:\IAGOS\server\v18\Source\Source\_common\guild.cpp
; File C:\Program Files\Microsoft Visual Studio\2022\Professional\VC\Tools\MSVC\14.44.35207\include\xtree
; File C:\Program Files\Microsoft Visual Studio\2022\Professional\VC\Tools\MSVC\14.44.35207\include\xmemory
; File C:\Program Files\Microsoft Visual Studio\2022\Professional\VC\Tools\MSVC\14.44.35207\include\xtree
; File C:\IAGOS\server\v18\Source\Source\_common\guild.cpp
; File C:\Program Files\Microsoft Visual Studio\2022\Professional\VC\Tools\MSVC\14.44.35207\include\xmemory
; File C:\IAGOS\server\v18\Source\Source\_common\guild.cpp
; File C:\Program Files\Microsoft Visual Studio\2022\Professional\VC\Tools\MSVC\14.44.35207\include\xtree
; File C:\Program Files\Microsoft Visual Studio\2022\Professional\VC\Tools\MSVC\14.44.35207\include\xmemory
; File C:\Program Files\Microsoft Visual Studio\2022\Professional\VC\Tools\MSVC\14.44.35207\include\xtree
; File C:\IAGOS\server\v18\Source\Source\_common\guild.cpp
;	COMDAT ??0CGuildMng@@QAE@XZ
_TEXT	SEGMENT
_this$ = -20						; size = 4
_this$ = -20						; size = 4
_this$ = -16						; size = 4
__$EHRec$ = -12						; size = 12
??0CGuildMng@@QAE@XZ PROC				; CGuildMng::CGuildMng, COMDAT
; _this$ = ecx

; 717  : {

  00000	55		 push	 ebp
  00001	8b ec		 mov	 ebp, esp
  00003	6a ff		 push	 -1
  00005	68 00 00 00 00	 push	 __ehhandler$??0CGuildMng@@QAE@XZ
  0000a	64 a1 00 00 00
	00		 mov	 eax, DWORD PTR fs:0
  00010	50		 push	 eax
  00011	83 ec 08	 sub	 esp, 8
  00014	56		 push	 esi
  00015	57		 push	 edi
  00016	a1 00 00 00 00	 mov	 eax, DWORD PTR ___security_cookie
  0001b	33 c5		 xor	 eax, ebp
  0001d	50		 push	 eax
  0001e	8d 45 f4	 lea	 eax, DWORD PTR __$EHRec$[ebp]
  00021	64 a3 00 00 00
	00		 mov	 DWORD PTR fs:0, eax
  00027	8b f9		 mov	 edi, ecx
  00029	89 7d f0	 mov	 DWORD PTR _this$[ebp], edi
  0002c	8d 77 08	 lea	 esi, DWORD PTR [edi+8]
  0002f	c7 07 00 00 00
	00		 mov	 DWORD PTR [edi], OFFSET ??_7CGuildMng@@6B@
; File C:\Program Files\Microsoft Visual Studio\2022\Professional\VC\Tools\MSVC\14.44.35207\include\xmemory

; 136  :         return ::operator new(_Bytes);

  00035	6a 18		 push	 24			; 00000018H
; File C:\IAGOS\server\v18\Source\Source\_common\guild.cpp

; 717  : {

  00037	89 75 ec	 mov	 DWORD PTR _this$[ebp], esi
; File C:\Program Files\Microsoft Visual Studio\2022\Professional\VC\Tools\MSVC\14.44.35207\include\xtree

; 450  :     _Tree_val() noexcept : _Myhead(), _Mysize(0) {}

  0003a	c7 06 00 00 00
	00		 mov	 DWORD PTR [esi], 0
  00040	c7 46 04 00 00
	00 00		 mov	 DWORD PTR [esi+4], 0
; File C:\Program Files\Microsoft Visual Studio\2022\Professional\VC\Tools\MSVC\14.44.35207\include\xmemory

; 136  :         return ::operator new(_Bytes);

  00047	e8 00 00 00 00	 call	 ??2@YAPAXI@Z		; operator new
; File C:\Program Files\Microsoft Visual Studio\2022\Professional\VC\Tools\MSVC\14.44.35207\include\xtree

; 346  :         _Construct_in_place(_Pnode->_Left, _Pnode);

  0004c	89 00		 mov	 DWORD PTR [eax], eax

; 347  :         _Construct_in_place(_Pnode->_Parent, _Pnode);

  0004e	89 40 04	 mov	 DWORD PTR [eax+4], eax

; 348  :         _Construct_in_place(_Pnode->_Right, _Pnode);

  00051	89 40 08	 mov	 DWORD PTR [eax+8], eax

; 349  :         _Pnode->_Color = _Black;

  00054	66 c7 40 0c 01
	01		 mov	 WORD PTR [eax+12], 257	; 00000101H

; 1957 :         _Scary->_Myhead = _Node::_Buyheadnode(_Getal());

  0005a	89 06		 mov	 DWORD PTR [esi], eax
; File C:\IAGOS\server\v18\Source\Source\_common\guild.cpp

; 717  : {

  0005c	8d 77 10	 lea	 esi, DWORD PTR [edi+16]
  0005f	c7 45 fc 00 00
	00 00		 mov	 DWORD PTR __$EHRec$[ebp+8], 0
; File C:\Program Files\Microsoft Visual Studio\2022\Professional\VC\Tools\MSVC\14.44.35207\include\xmemory

; 136  :         return ::operator new(_Bytes);

  00066	6a 2c		 push	 44			; 0000002cH
; File C:\IAGOS\server\v18\Source\Source\_common\guild.cpp

; 717  : {

  00068	89 75 ec	 mov	 DWORD PTR _this$[ebp], esi
; File C:\Program Files\Microsoft Visual Studio\2022\Professional\VC\Tools\MSVC\14.44.35207\include\xtree

; 450  :     _Tree_val() noexcept : _Myhead(), _Mysize(0) {}

  0006b	c7 06 00 00 00
	00		 mov	 DWORD PTR [esi], 0
  00071	c7 46 04 00 00
	00 00		 mov	 DWORD PTR [esi+4], 0
; File C:\Program Files\Microsoft Visual Studio\2022\Professional\VC\Tools\MSVC\14.44.35207\include\xmemory

; 136  :         return ::operator new(_Bytes);

  00078	e8 00 00 00 00	 call	 ??2@YAPAXI@Z		; operator new
  0007d	83 c4 08	 add	 esp, 8
; File C:\Program Files\Microsoft Visual Studio\2022\Professional\VC\Tools\MSVC\14.44.35207\include\xtree

; 346  :         _Construct_in_place(_Pnode->_Left, _Pnode);

  00080	89 00		 mov	 DWORD PTR [eax], eax

; 347  :         _Construct_in_place(_Pnode->_Parent, _Pnode);

  00082	89 40 04	 mov	 DWORD PTR [eax+4], eax

; 348  :         _Construct_in_place(_Pnode->_Right, _Pnode);

  00085	89 40 08	 mov	 DWORD PTR [eax+8], eax

; 349  :         _Pnode->_Color = _Black;

  00088	66 c7 40 0c 01
	01		 mov	 WORD PTR [eax+12], 257	; 00000101H

; 1957 :         _Scary->_Myhead = _Node::_Buyheadnode(_Getal());

  0008e	89 06		 mov	 DWORD PTR [esi], eax
; File C:\IAGOS\server\v18\Source\Source\_common\guild.cpp

; 722  : }

  00090	8b c7		 mov	 eax, edi
  00092	c7 47 04 00 00
	00 00		 mov	 DWORD PTR [edi+4], 0
  00099	c7 47 18 00 00
	00 00		 mov	 DWORD PTR [edi+24], 0
  000a0	8b 4d f4	 mov	 ecx, DWORD PTR __$EHRec$[ebp]
  000a3	64 89 0d 00 00
	00 00		 mov	 DWORD PTR fs:0, ecx
  000aa	59		 pop	 ecx
  000ab	5f		 pop	 edi
  000ac	5e		 pop	 esi
  000ad	8b e5		 mov	 esp, ebp
  000af	5d		 pop	 ebp
  000b0	c3		 ret	 0
_TEXT	ENDS
;	COMDAT text$x
text$x	SEGMENT
__unwindfunclet$??0CGuildMng@@QAE@XZ$0:
  00000	8b 4d f0	 mov	 ecx, DWORD PTR _this$[ebp]
  00003	83 c1 08	 add	 ecx, 8
  00006	e9 00 00 00 00	 jmp	 ??1?$map@KPAVCGuild@@U?$less@K@std@@V?$allocator@U?$pair@$$CBKPAVCGuild@@@std@@@3@@std@@QAE@XZ
  0000b	cc		 int	 3
  0000c	cc		 int	 3
  0000d	cc		 int	 3
  0000e	cc		 int	 3
  0000f	cc		 int	 3
__ehhandler$??0CGuildMng@@QAE@XZ:
  00010	90		 npad	 1
  00011	90		 npad	 1
  00012	8b 54 24 08	 mov	 edx, DWORD PTR [esp+8]
  00016	8d 42 0c	 lea	 eax, DWORD PTR [edx+12]
  00019	8b 4a ec	 mov	 ecx, DWORD PTR [edx-20]
  0001c	33 c8		 xor	 ecx, eax
  0001e	e8 00 00 00 00	 call	 @__security_check_cookie@4
  00023	b8 00 00 00 00	 mov	 eax, OFFSET __ehfuncinfo$??0CGuildMng@@QAE@XZ
  00028	e9 00 00 00 00	 jmp	 ___CxxFrameHandler3
text$x	ENDS
??0CGuildMng@@QAE@XZ ENDP				; CGuildMng::CGuildMng
; Function compile flags: /Ogtp
; File C:\Program Files\Microsoft Visual Studio\2022\Professional\VC\Tools\MSVC\14.44.35207\include\xtree
;	COMDAT ?_Insert_node@?$_Tree_val@U?$_Tree_simple_types@U?$pair@$$CBV?$basic_string@DU?$char_traits@D@std@@V?$allocator@D@2@@std@@PAVCGuild@@@std@@@std@@@std@@QAEPAU?$_Tree_node@U?$pair@$$CBV?$basic_string@DU?$char_traits@D@std@@V?$allocator@D@2@@std@@PAVCGuild@@@std@@PAX@2@U?$_Tree_id@PAU?$_Tree_node@U?$pair@$$CBV?$basic_string@DU?$char_traits@D@std@@V?$allocator@D@2@@std@@PAVCGuild@@@std@@PAX@std@@@2@QAU32@@Z
_TEXT	SEGMENT
__Head$1$ = -4						; size = 4
__Loc$ = 8						; size = 8
__Newnode$ = 16						; size = 4
?_Insert_node@?$_Tree_val@U?$_Tree_simple_types@U?$pair@$$CBV?$basic_string@DU?$char_traits@D@std@@V?$allocator@D@2@@std@@PAVCGuild@@@std@@@std@@@std@@QAEPAU?$_Tree_node@U?$pair@$$CBV?$basic_string@DU?$char_traits@D@std@@V?$allocator@D@2@@std@@PAVCGuild@@@std@@PAX@2@U?$_Tree_id@PAU?$_Tree_node@U?$pair@$$CBV?$basic_string@DU?$char_traits@D@std@@V?$allocator@D@2@@std@@PAVCGuild@@@std@@PAX@std@@@2@QAU32@@Z PROC ; std::_Tree_val<std::_Tree_simple_types<std::pair<std::basic_string<char,std::char_traits<char>,std::allocator<char> > const ,CGuild *> > >::_Insert_node, COMDAT
; _this$ = ecx

; 669  :     _Nodeptr _Insert_node(const _Tree_id<_Nodeptr> _Loc, const _Nodeptr _Newnode) noexcept {

  00000	55		 push	 ebp
  00001	8b ec		 mov	 ebp, esp
  00003	51		 push	 ecx

; 670  :         ++_Mysize;
; 671  :         const auto _Head  = _Myhead;
; 672  :         _Newnode->_Parent = _Loc._Parent;

  00004	8b 55 08	 mov	 edx, DWORD PTR __Loc$[ebp]
  00007	53		 push	 ebx
  00008	8b d9		 mov	 ebx, ecx
  0000a	57		 push	 edi
  0000b	8b 7d 10	 mov	 edi, DWORD PTR __Newnode$[ebp]
  0000e	8b 03		 mov	 eax, DWORD PTR [ebx]
  00010	ff 43 04	 inc	 DWORD PTR [ebx+4]
  00013	89 45 fc	 mov	 DWORD PTR __Head$1$[ebp], eax
  00016	89 57 04	 mov	 DWORD PTR [edi+4], edx

; 673  :         if (_Loc._Parent == _Head) { // first node in tree, just set head values

  00019	3b d0		 cmp	 edx, eax
  0001b	75 16		 jne	 SHORT $LN5@Insert_nod

; 674  :             _Head->_Left     = _Newnode;

  0001d	89 38		 mov	 DWORD PTR [eax], edi

; 675  :             _Head->_Parent   = _Newnode;

  0001f	89 78 04	 mov	 DWORD PTR [eax+4], edi

; 676  :             _Head->_Right    = _Newnode;

  00022	89 78 08	 mov	 DWORD PTR [eax+8], edi

; 735  :         return _Newnode;
; 736  :     }

  00025	8b c7		 mov	 eax, edi
  00027	c6 47 0c 01	 mov	 BYTE PTR [edi+12], 1
  0002b	5f		 pop	 edi
  0002c	5b		 pop	 ebx
  0002d	8b e5		 mov	 esp, ebp
  0002f	5d		 pop	 ebp
  00030	c2 0c 00	 ret	 12			; 0000000cH
$LN5@Insert_nod:

; 677  :             _Newnode->_Color = _Black; // the root is black
; 678  :             return _Newnode;
; 679  :         }
; 680  : 
; 681  :         _STL_INTERNAL_CHECK(_Loc._Child != _Tree_child::_Unused);
; 682  :         if (_Loc._Child == _Tree_child::_Right) { // add to right of _Loc._Parent

  00033	83 7d 0c 00	 cmp	 DWORD PTR __Loc$[ebp+4], 0
  00037	75 0d		 jne	 SHORT $LN6@Insert_nod

; 683  :             _STL_INTERNAL_CHECK(_Loc._Parent->_Right->_Isnil);
; 684  :             _Loc._Parent->_Right = _Newnode;

  00039	89 7a 08	 mov	 DWORD PTR [edx+8], edi

; 685  :             if (_Loc._Parent == _Head->_Right) { // remember rightmost node

  0003c	3b 50 08	 cmp	 edx, DWORD PTR [eax+8]
  0003f	75 0d		 jne	 SHORT $LN9@Insert_nod

; 686  :                 _Head->_Right = _Newnode;

  00041	89 78 08	 mov	 DWORD PTR [eax+8], edi

; 687  :             }
; 688  :         } else { // add to left of _Loc._Parent

  00044	eb 08		 jmp	 SHORT $LN9@Insert_nod
$LN6@Insert_nod:

; 689  :             _STL_INTERNAL_CHECK(_Loc._Parent->_Left->_Isnil);
; 690  :             _Loc._Parent->_Left = _Newnode;

  00046	89 3a		 mov	 DWORD PTR [edx], edi

; 691  :             if (_Loc._Parent == _Head->_Left) { // remember leftmost node

  00048	3b 10		 cmp	 edx, DWORD PTR [eax]
  0004a	75 02		 jne	 SHORT $LN9@Insert_nod

; 692  :                 _Head->_Left = _Newnode;

  0004c	89 38		 mov	 DWORD PTR [eax], edi
$LN9@Insert_nod:

; 693  :             }
; 694  :         }
; 695  : 
; 696  :         for (_Nodeptr _Pnode = _Newnode; _Pnode->_Parent->_Color == _Red;) {

  0004e	8b 4f 04	 mov	 ecx, DWORD PTR [edi+4]
  00051	8b c7		 mov	 eax, edi
  00053	80 79 0c 00	 cmp	 BYTE PTR [ecx+12], 0
  00057	0f 85 7d 01 00
	00		 jne	 $LN3@Insert_nod
  0005d	56		 push	 esi
  0005e	66 90		 npad	 2
$LL4@Insert_nod:

; 697  :             if (_Pnode->_Parent == _Pnode->_Parent->_Parent->_Left) { // fixup red-red in left subtree

  00060	8b 50 04	 mov	 edx, DWORD PTR [eax+4]
  00063	8b 72 04	 mov	 esi, DWORD PTR [edx+4]
  00066	8b 0e		 mov	 ecx, DWORD PTR [esi]
  00068	3b d1		 cmp	 edx, ecx
  0006a	0f 85 aa 00 00
	00		 jne	 $LN10@Insert_nod

; 698  :                 const auto _Parent_sibling = _Pnode->_Parent->_Parent->_Right;

  00070	8b 4e 08	 mov	 ecx, DWORD PTR [esi+8]

; 699  :                 if (_Parent_sibling->_Color == _Red) { // parent's sibling has two red children, blacken both

  00073	80 79 0c 00	 cmp	 BYTE PTR [ecx+12], 0
  00077	0f 84 a3 00 00
	00		 je	 $LN82@Insert_nod

; 700  :                     _Pnode->_Parent->_Color          = _Black;
; 701  :                     _Parent_sibling->_Color          = _Black;
; 702  :                     _Pnode->_Parent->_Parent->_Color = _Red;
; 703  :                     _Pnode                           = _Pnode->_Parent->_Parent;
; 704  :                 } else { // parent's sibling has red and black children
; 705  :                     if (_Pnode == _Pnode->_Parent->_Right) { // rotate right child to left

  0007d	8b 72 08	 mov	 esi, DWORD PTR [edx+8]
  00080	3b c6		 cmp	 eax, esi
  00082	75 37		 jne	 SHORT $LN57@Insert_nod

; 485  :         _Wherenode->_Right = _Pnode->_Left;

  00084	8b 0e		 mov	 ecx, DWORD PTR [esi]

; 706  :                         _Pnode = _Pnode->_Parent;

  00086	8b c2		 mov	 eax, edx

; 485  :         _Wherenode->_Right = _Pnode->_Left;

  00088	89 4a 08	 mov	 DWORD PTR [edx+8], ecx

; 486  : 
; 487  :         if (!_Pnode->_Left->_Isnil) {

  0008b	8b 0e		 mov	 ecx, DWORD PTR [esi]
  0008d	80 79 0d 00	 cmp	 BYTE PTR [ecx+13], 0
  00091	75 03		 jne	 SHORT $LN21@Insert_nod

; 488  :             _Pnode->_Left->_Parent = _Wherenode;

  00093	89 41 04	 mov	 DWORD PTR [ecx+4], eax
$LN21@Insert_nod:

; 489  :         }
; 490  : 
; 491  :         _Pnode->_Parent = _Wherenode->_Parent;

  00096	8b 4a 04	 mov	 ecx, DWORD PTR [edx+4]
  00099	89 4e 04	 mov	 DWORD PTR [esi+4], ecx

; 492  : 
; 493  :         if (_Wherenode == _Myhead->_Parent) {

  0009c	8b 0b		 mov	 ecx, DWORD PTR [ebx]
  0009e	3b 41 04	 cmp	 eax, DWORD PTR [ecx+4]
  000a1	75 05		 jne	 SHORT $LN22@Insert_nod

; 494  :             _Myhead->_Parent = _Pnode;

  000a3	89 71 04	 mov	 DWORD PTR [ecx+4], esi
  000a6	eb 0e		 jmp	 SHORT $LN25@Insert_nod
$LN22@Insert_nod:

; 495  :         } else if (_Wherenode == _Wherenode->_Parent->_Left) {

  000a8	8b 4a 04	 mov	 ecx, DWORD PTR [edx+4]
  000ab	3b 01		 cmp	 eax, DWORD PTR [ecx]
  000ad	75 04		 jne	 SHORT $LN24@Insert_nod

; 496  :             _Wherenode->_Parent->_Left = _Pnode;

  000af	89 31		 mov	 DWORD PTR [ecx], esi

; 497  :         } else {

  000b1	eb 03		 jmp	 SHORT $LN25@Insert_nod
$LN24@Insert_nod:

; 498  :             _Wherenode->_Parent->_Right = _Pnode;

  000b3	89 71 08	 mov	 DWORD PTR [ecx+8], esi
$LN25@Insert_nod:

; 499  :         }
; 500  : 
; 501  :         _Pnode->_Left       = _Wherenode;

  000b6	89 06		 mov	 DWORD PTR [esi], eax

; 502  :         _Wherenode->_Parent = _Pnode;

  000b8	89 70 04	 mov	 DWORD PTR [eax+4], esi
$LN57@Insert_nod:

; 707  :                         _Lrotate(_Pnode);
; 708  :                     }
; 709  : 
; 710  :                     _Pnode->_Parent->_Color          = _Black; // propagate red up

  000bb	8b 48 04	 mov	 ecx, DWORD PTR [eax+4]
  000be	c6 41 0c 01	 mov	 BYTE PTR [ecx+12], 1

; 711  :                     _Pnode->_Parent->_Parent->_Color = _Red;

  000c2	8b 48 04	 mov	 ecx, DWORD PTR [eax+4]
  000c5	8b 49 04	 mov	 ecx, DWORD PTR [ecx+4]
  000c8	c6 41 0c 00	 mov	 BYTE PTR [ecx+12], 0

; 712  :                     _Rrotate(_Pnode->_Parent->_Parent);

  000cc	8b 48 04	 mov	 ecx, DWORD PTR [eax+4]
  000cf	8b 51 04	 mov	 edx, DWORD PTR [ecx+4]

; 506  :         _Nodeptr _Pnode   = _Wherenode->_Left;

  000d2	8b 32		 mov	 esi, DWORD PTR [edx]

; 507  :         _Wherenode->_Left = _Pnode->_Right;

  000d4	8b 4e 08	 mov	 ecx, DWORD PTR [esi+8]
  000d7	89 0a		 mov	 DWORD PTR [edx], ecx

; 508  : 
; 509  :         if (!_Pnode->_Right->_Isnil) {

  000d9	8b 4e 08	 mov	 ecx, DWORD PTR [esi+8]
  000dc	80 79 0d 00	 cmp	 BYTE PTR [ecx+13], 0
  000e0	75 03		 jne	 SHORT $LN29@Insert_nod

; 510  :             _Pnode->_Right->_Parent = _Wherenode;

  000e2	89 51 04	 mov	 DWORD PTR [ecx+4], edx
$LN29@Insert_nod:

; 511  :         }
; 512  : 
; 513  :         _Pnode->_Parent = _Wherenode->_Parent;

  000e5	8b 4a 04	 mov	 ecx, DWORD PTR [edx+4]
  000e8	89 4e 04	 mov	 DWORD PTR [esi+4], ecx

; 514  : 
; 515  :         if (_Wherenode == _Myhead->_Parent) {

  000eb	8b 0b		 mov	 ecx, DWORD PTR [ebx]
  000ed	3b 51 04	 cmp	 edx, DWORD PTR [ecx+4]
  000f0	75 0b		 jne	 SHORT $LN30@Insert_nod

; 516  :             _Myhead->_Parent = _Pnode;

  000f2	89 71 04	 mov	 DWORD PTR [ecx+4], esi

; 521  :         }
; 522  : 
; 523  :         _Pnode->_Right      = _Wherenode;

  000f5	89 56 08	 mov	 DWORD PTR [esi+8], edx

; 713  :                 }
; 714  :             } else { // fixup red-red in right subtree

  000f8	e9 cc 00 00 00	 jmp	 $LN81@Insert_nod
$LN30@Insert_nod:

; 517  :         } else if (_Wherenode == _Wherenode->_Parent->_Right) {

  000fd	8b 4a 04	 mov	 ecx, DWORD PTR [edx+4]
  00100	3b 51 08	 cmp	 edx, DWORD PTR [ecx+8]
  00103	75 0b		 jne	 SHORT $LN32@Insert_nod

; 518  :             _Wherenode->_Parent->_Right = _Pnode;

  00105	89 71 08	 mov	 DWORD PTR [ecx+8], esi

; 521  :         }
; 522  : 
; 523  :         _Pnode->_Right      = _Wherenode;

  00108	89 56 08	 mov	 DWORD PTR [esi+8], edx

; 713  :                 }
; 714  :             } else { // fixup red-red in right subtree

  0010b	e9 b9 00 00 00	 jmp	 $LN81@Insert_nod
$LN32@Insert_nod:

; 520  :             _Wherenode->_Parent->_Left = _Pnode;

  00110	89 31		 mov	 DWORD PTR [ecx], esi

; 521  :         }
; 522  : 
; 523  :         _Pnode->_Right      = _Wherenode;

  00112	89 56 08	 mov	 DWORD PTR [esi+8], edx

; 713  :                 }
; 714  :             } else { // fixup red-red in right subtree

  00115	e9 af 00 00 00	 jmp	 $LN81@Insert_nod
$LN10@Insert_nod:

; 715  :                 const auto _Parent_sibling = _Pnode->_Parent->_Parent->_Left;
; 716  :                 if (_Parent_sibling->_Color == _Red) { // parent's sibling has two red children, blacken both

  0011a	80 79 0c 00	 cmp	 BYTE PTR [ecx+12], 0
  0011e	75 1d		 jne	 SHORT $LN15@Insert_nod
$LN82@Insert_nod:

; 693  :             }
; 694  :         }
; 695  : 
; 696  :         for (_Nodeptr _Pnode = _Newnode; _Pnode->_Parent->_Color == _Red;) {

  00120	c6 42 0c 01	 mov	 BYTE PTR [edx+12], 1
  00124	c6 41 0c 01	 mov	 BYTE PTR [ecx+12], 1
  00128	8b 48 04	 mov	 ecx, DWORD PTR [eax+4]
  0012b	8b 49 04	 mov	 ecx, DWORD PTR [ecx+4]
  0012e	c6 41 0c 00	 mov	 BYTE PTR [ecx+12], 0
  00132	8b 48 04	 mov	 ecx, DWORD PTR [eax+4]
  00135	8b 41 04	 mov	 eax, DWORD PTR [ecx+4]
  00138	e9 8f 00 00 00	 jmp	 $LN2@Insert_nod
$LN15@Insert_nod:

; 717  :                     _Pnode->_Parent->_Color          = _Black;
; 718  :                     _Parent_sibling->_Color          = _Black;
; 719  :                     _Pnode->_Parent->_Parent->_Color = _Red;
; 720  :                     _Pnode                           = _Pnode->_Parent->_Parent;
; 721  :                 } else { // parent's sibling has red and black children
; 722  :                     if (_Pnode == _Pnode->_Parent->_Left) { // rotate left child to right

  0013d	8b 32		 mov	 esi, DWORD PTR [edx]
  0013f	3b c6		 cmp	 eax, esi
  00141	75 3a		 jne	 SHORT $LN42@Insert_nod

; 507  :         _Wherenode->_Left = _Pnode->_Right;

  00143	8b 4e 08	 mov	 ecx, DWORD PTR [esi+8]

; 723  :                         _Pnode = _Pnode->_Parent;

  00146	8b c2		 mov	 eax, edx

; 507  :         _Wherenode->_Left = _Pnode->_Right;

  00148	89 08		 mov	 DWORD PTR [eax], ecx

; 508  : 
; 509  :         if (!_Pnode->_Right->_Isnil) {

  0014a	8b 4e 08	 mov	 ecx, DWORD PTR [esi+8]
  0014d	80 79 0d 00	 cmp	 BYTE PTR [ecx+13], 0
  00151	75 03		 jne	 SHORT $LN37@Insert_nod

; 510  :             _Pnode->_Right->_Parent = _Wherenode;

  00153	89 41 04	 mov	 DWORD PTR [ecx+4], eax
$LN37@Insert_nod:

; 511  :         }
; 512  : 
; 513  :         _Pnode->_Parent = _Wherenode->_Parent;

  00156	8b 4a 04	 mov	 ecx, DWORD PTR [edx+4]
  00159	89 4e 04	 mov	 DWORD PTR [esi+4], ecx

; 514  : 
; 515  :         if (_Wherenode == _Myhead->_Parent) {

  0015c	8b 0b		 mov	 ecx, DWORD PTR [ebx]
  0015e	3b 41 04	 cmp	 eax, DWORD PTR [ecx+4]
  00161	75 05		 jne	 SHORT $LN38@Insert_nod

; 516  :             _Myhead->_Parent = _Pnode;

  00163	89 71 04	 mov	 DWORD PTR [ecx+4], esi
  00166	eb 0f		 jmp	 SHORT $LN41@Insert_nod
$LN38@Insert_nod:

; 517  :         } else if (_Wherenode == _Wherenode->_Parent->_Right) {

  00168	8b 4a 04	 mov	 ecx, DWORD PTR [edx+4]
  0016b	3b 41 08	 cmp	 eax, DWORD PTR [ecx+8]
  0016e	75 05		 jne	 SHORT $LN40@Insert_nod

; 518  :             _Wherenode->_Parent->_Right = _Pnode;

  00170	89 71 08	 mov	 DWORD PTR [ecx+8], esi

; 519  :         } else {

  00173	eb 02		 jmp	 SHORT $LN41@Insert_nod
$LN40@Insert_nod:

; 520  :             _Wherenode->_Parent->_Left = _Pnode;

  00175	89 31		 mov	 DWORD PTR [ecx], esi
$LN41@Insert_nod:

; 521  :         }
; 522  : 
; 523  :         _Pnode->_Right      = _Wherenode;

  00177	89 46 08	 mov	 DWORD PTR [esi+8], eax

; 524  :         _Wherenode->_Parent = _Pnode;

  0017a	89 70 04	 mov	 DWORD PTR [eax+4], esi
$LN42@Insert_nod:

; 724  :                         _Rrotate(_Pnode);
; 725  :                     }
; 726  : 
; 727  :                     _Pnode->_Parent->_Color          = _Black; // propagate red up

  0017d	8b 48 04	 mov	 ecx, DWORD PTR [eax+4]
  00180	c6 41 0c 01	 mov	 BYTE PTR [ecx+12], 1

; 728  :                     _Pnode->_Parent->_Parent->_Color = _Red;

  00184	8b 48 04	 mov	 ecx, DWORD PTR [eax+4]
  00187	8b 49 04	 mov	 ecx, DWORD PTR [ecx+4]
  0018a	c6 41 0c 00	 mov	 BYTE PTR [ecx+12], 0

; 729  :                     _Lrotate(_Pnode->_Parent->_Parent);

  0018e	8b 48 04	 mov	 ecx, DWORD PTR [eax+4]
  00191	8b 51 04	 mov	 edx, DWORD PTR [ecx+4]

; 484  :         _Nodeptr _Pnode    = _Wherenode->_Right;

  00194	8b 72 08	 mov	 esi, DWORD PTR [edx+8]

; 485  :         _Wherenode->_Right = _Pnode->_Left;

  00197	8b 0e		 mov	 ecx, DWORD PTR [esi]
  00199	89 4a 08	 mov	 DWORD PTR [edx+8], ecx

; 486  : 
; 487  :         if (!_Pnode->_Left->_Isnil) {

  0019c	8b 0e		 mov	 ecx, DWORD PTR [esi]
  0019e	80 79 0d 00	 cmp	 BYTE PTR [ecx+13], 0
  001a2	75 03		 jne	 SHORT $LN45@Insert_nod

; 488  :             _Pnode->_Left->_Parent = _Wherenode;

  001a4	89 51 04	 mov	 DWORD PTR [ecx+4], edx
$LN45@Insert_nod:

; 489  :         }
; 490  : 
; 491  :         _Pnode->_Parent = _Wherenode->_Parent;

  001a7	8b 4a 04	 mov	 ecx, DWORD PTR [edx+4]
  001aa	89 4e 04	 mov	 DWORD PTR [esi+4], ecx

; 492  : 
; 493  :         if (_Wherenode == _Myhead->_Parent) {

  001ad	8b 0b		 mov	 ecx, DWORD PTR [ebx]
  001af	3b 51 04	 cmp	 edx, DWORD PTR [ecx+4]
  001b2	75 05		 jne	 SHORT $LN46@Insert_nod

; 494  :             _Myhead->_Parent = _Pnode;

  001b4	89 71 04	 mov	 DWORD PTR [ecx+4], esi
  001b7	eb 0e		 jmp	 SHORT $LN49@Insert_nod
$LN46@Insert_nod:

; 495  :         } else if (_Wherenode == _Wherenode->_Parent->_Left) {

  001b9	8b 4a 04	 mov	 ecx, DWORD PTR [edx+4]
  001bc	3b 11		 cmp	 edx, DWORD PTR [ecx]
  001be	75 04		 jne	 SHORT $LN48@Insert_nod

; 496  :             _Wherenode->_Parent->_Left = _Pnode;

  001c0	89 31		 mov	 DWORD PTR [ecx], esi

; 497  :         } else {

  001c2	eb 03		 jmp	 SHORT $LN49@Insert_nod
$LN48@Insert_nod:

; 498  :             _Wherenode->_Parent->_Right = _Pnode;

  001c4	89 71 08	 mov	 DWORD PTR [ecx+8], esi
$LN49@Insert_nod:

; 499  :         }
; 500  : 
; 501  :         _Pnode->_Left       = _Wherenode;

  001c7	89 16		 mov	 DWORD PTR [esi], edx
$LN81@Insert_nod:

; 693  :             }
; 694  :         }
; 695  : 
; 696  :         for (_Nodeptr _Pnode = _Newnode; _Pnode->_Parent->_Color == _Red;) {

  001c9	89 72 04	 mov	 DWORD PTR [edx+4], esi
$LN2@Insert_nod:
  001cc	8b 48 04	 mov	 ecx, DWORD PTR [eax+4]
  001cf	80 79 0c 00	 cmp	 BYTE PTR [ecx+12], 0
  001d3	0f 84 87 fe ff
	ff		 je	 $LL4@Insert_nod
  001d9	5e		 pop	 esi
$LN3@Insert_nod:

; 730  :                 }
; 731  :             }
; 732  :         }
; 733  : 
; 734  :         _Head->_Parent->_Color = _Black; // root is always black

  001da	8b 45 fc	 mov	 eax, DWORD PTR __Head$1$[ebp]
  001dd	8b 40 04	 mov	 eax, DWORD PTR [eax+4]
  001e0	c6 40 0c 01	 mov	 BYTE PTR [eax+12], 1

; 735  :         return _Newnode;
; 736  :     }

  001e4	8b c7		 mov	 eax, edi
  001e6	5f		 pop	 edi
  001e7	5b		 pop	 ebx
  001e8	8b e5		 mov	 esp, ebp
  001ea	5d		 pop	 ebp
  001eb	c2 0c 00	 ret	 12			; 0000000cH
?_Insert_node@?$_Tree_val@U?$_Tree_simple_types@U?$pair@$$CBV?$basic_string@DU?$char_traits@D@std@@V?$allocator@D@2@@std@@PAVCGuild@@@std@@@std@@@std@@QAEPAU?$_Tree_node@U?$pair@$$CBV?$basic_string@DU?$char_traits@D@std@@V?$allocator@D@2@@std@@PAVCGuild@@@std@@PAX@2@U?$_Tree_id@PAU?$_Tree_node@U?$pair@$$CBV?$basic_string@DU?$char_traits@D@std@@V?$allocator@D@2@@std@@PAVCGuild@@@std@@PAX@std@@@2@QAU32@@Z ENDP ; std::_Tree_val<std::_Tree_simple_types<std::pair<std::basic_string<char,std::char_traits<char>,std::allocator<char> > const ,CGuild *> > >::_Insert_node
_TEXT	ENDS
; Function compile flags: /Ogtp
; File C:\Program Files\Microsoft Visual Studio\2022\Professional\VC\Tools\MSVC\14.44.35207\include\xtree
; File C:\Program Files\Microsoft Visual Studio\2022\Professional\VC\Tools\MSVC\14.44.35207\include\utility
; File C:\Program Files\Microsoft Visual Studio\2022\Professional\VC\Tools\MSVC\14.44.35207\include\xtree
;	COMDAT ?_Extract@?$_Tree_val@U?$_Tree_simple_types@U?$pair@$$CBV?$basic_string@DU?$char_traits@D@std@@V?$allocator@D@2@@std@@PAVCGuild@@@std@@@std@@@std@@QAEPAU?$_Tree_node@U?$pair@$$CBV?$basic_string@DU?$char_traits@D@std@@V?$allocator@D@2@@std@@PAVCGuild@@@std@@PAX@2@V?$_Tree_unchecked_const_iterator@V?$_Tree_val@U?$_Tree_simple_types@U?$pair@$$CBV?$basic_string@DU?$char_traits@D@std@@V?$allocator@D@2@@std@@PAVCGuild@@@std@@@std@@@std@@U_Iterator_base0@2@@2@@Z
_TEXT	SEGMENT
tv1039 = -16						; size = 4
tv1073 = -12						; size = 4
tv1093 = -12						; size = 4
$T1 = -12						; size = 4
__Erasednode$1$ = -8					; size = 4
_this$1$ = -4						; size = 4
__Where$ = 8						; size = 4
?_Extract@?$_Tree_val@U?$_Tree_simple_types@U?$pair@$$CBV?$basic_string@DU?$char_traits@D@std@@V?$allocator@D@2@@std@@PAVCGuild@@@std@@@std@@@std@@QAEPAU?$_Tree_node@U?$pair@$$CBV?$basic_string@DU?$char_traits@D@std@@V?$allocator@D@2@@std@@PAVCGuild@@@std@@PAX@2@V?$_Tree_unchecked_const_iterator@V?$_Tree_val@U?$_Tree_simple_types@U?$pair@$$CBV?$basic_string@DU?$char_traits@D@std@@V?$allocator@D@2@@std@@PAVCGuild@@@std@@@std@@@std@@U_Iterator_base0@2@@2@@Z PROC ; std::_Tree_val<std::_Tree_simple_types<std::pair<std::basic_string<char,std::char_traits<char>,std::allocator<char> > const ,CGuild *> > >::_Extract, COMDAT
; _this$ = ecx

; 527  :     _Nodeptr _Extract(_Unchecked_const_iterator _Where) noexcept {

  00000	55		 push	 ebp
  00001	8b ec		 mov	 ebp, esp
  00003	83 ec 10	 sub	 esp, 16			; 00000010H

; 528  :         _Nodeptr _Erasednode = _Where._Ptr; // node to erase

  00006	8b 45 08	 mov	 eax, DWORD PTR __Where$[ebp]
  00009	53		 push	 ebx
  0000a	56		 push	 esi
  0000b	8b d9		 mov	 ebx, ecx
  0000d	89 45 f8	 mov	 DWORD PTR __Erasednode$1$[ebp], eax
  00010	57		 push	 edi

; 529  :         ++_Where; // save successor iterator for return

  00011	8d 4d 08	 lea	 ecx, DWORD PTR __Where$[ebp]
  00014	89 5d fc	 mov	 DWORD PTR _this$1$[ebp], ebx
  00017	e8 00 00 00 00	 call	 ??E?$_Tree_unchecked_const_iterator@V?$_Tree_val@U?$_Tree_simple_types@U?$pair@$$CBV?$basic_string@DU?$char_traits@D@std@@V?$allocator@D@2@@std@@PAVCGuild@@@std@@@std@@@std@@U_Iterator_base0@2@@std@@QAEAAV01@XZ ; std::_Tree_unchecked_const_iterator<std::_Tree_val<std::_Tree_simple_types<std::pair<std::basic_string<char,std::char_traits<char>,std::allocator<char> > const ,CGuild *> > >,std::_Iterator_base0>::operator++

; 530  : 
; 531  :         _Nodeptr _Fixnode; // the node to recolor as needed
; 532  :         _Nodeptr _Fixnodeparent; // parent of _Fixnode (which may be nil)
; 533  :         _Nodeptr _Pnode = _Erasednode;
; 534  : 
; 535  :         if (_Pnode->_Left->_Isnil) {

  0001c	8b 4d f8	 mov	 ecx, DWORD PTR __Erasednode$1$[ebp]
  0001f	8b 01		 mov	 eax, DWORD PTR [ecx]
  00021	8b 79 08	 mov	 edi, DWORD PTR [ecx+8]
  00024	80 78 0d 00	 cmp	 BYTE PTR [eax+13], 0
  00028	75 18		 jne	 SHORT $LN94@Extract

; 536  :             _Fixnode = _Pnode->_Right; // stitch up right subtree
; 537  :         } else if (_Pnode->_Right->_Isnil) {

  0002a	80 7f 0d 00	 cmp	 BYTE PTR [edi+13], 0
  0002e	74 04		 je	 SHORT $LN7@Extract

; 538  :             _Fixnode = _Pnode->_Left; // stitch up left subtree

  00030	8b f8		 mov	 edi, eax

; 539  :         } else { // two subtrees, must lift successor node to replace erased

  00032	eb 0e		 jmp	 SHORT $LN94@Extract
$LN7@Extract:

; 540  :             _Pnode   = _Where._Ptr; // _Pnode is successor node

  00034	8b 55 08	 mov	 edx, DWORD PTR __Where$[ebp]

; 541  :             _Fixnode = _Pnode->_Right; // _Fixnode is only subtree

  00037	8b 7a 08	 mov	 edi, DWORD PTR [edx+8]
  0003a	3b d1		 cmp	 edx, ecx

; 542  :         }
; 543  : 
; 544  :         if (_Pnode == _Erasednode) { // at most one subtree, relink it

  0003c	0f 85 91 00 00
	00		 jne	 $LN9@Extract
$LN94@Extract:

; 545  :             _Fixnodeparent = _Erasednode->_Parent;
; 546  :             if (!_Fixnode->_Isnil) {

  00042	80 7f 0d 00	 cmp	 BYTE PTR [edi+13], 0
  00046	8b 71 04	 mov	 esi, DWORD PTR [ecx+4]
  00049	75 03		 jne	 SHORT $LN11@Extract

; 547  :                 _Fixnode->_Parent = _Fixnodeparent; // link up

  0004b	89 77 04	 mov	 DWORD PTR [edi+4], esi
$LN11@Extract:

; 548  :             }
; 549  : 
; 550  :             if (_Myhead->_Parent == _Erasednode) {

  0004e	8b 03		 mov	 eax, DWORD PTR [ebx]
  00050	39 48 04	 cmp	 DWORD PTR [eax+4], ecx
  00053	75 05		 jne	 SHORT $LN12@Extract

; 551  :                 _Myhead->_Parent = _Fixnode; // link down from root

  00055	89 78 04	 mov	 DWORD PTR [eax+4], edi
  00058	eb 0b		 jmp	 SHORT $LN15@Extract
$LN12@Extract:

; 552  :             } else if (_Fixnodeparent->_Left == _Erasednode) {

  0005a	39 0e		 cmp	 DWORD PTR [esi], ecx
  0005c	75 04		 jne	 SHORT $LN14@Extract

; 553  :                 _Fixnodeparent->_Left = _Fixnode; // link down to left

  0005e	89 3e		 mov	 DWORD PTR [esi], edi

; 554  :             } else {

  00060	eb 03		 jmp	 SHORT $LN15@Extract
$LN14@Extract:

; 555  :                 _Fixnodeparent->_Right = _Fixnode; // link down to right

  00062	89 7e 08	 mov	 DWORD PTR [esi+8], edi
$LN15@Extract:

; 556  :             }
; 557  : 
; 558  :             if (_Myhead->_Left == _Erasednode) {

  00065	8b 03		 mov	 eax, DWORD PTR [ebx]
  00067	39 08		 cmp	 DWORD PTR [eax], ecx
  00069	75 28		 jne	 SHORT $LN16@Extract

; 559  :                 _Myhead->_Left = _Fixnode->_Isnil ? _Fixnodeparent // smallest is parent of erased node

  0006b	80 7f 0d 00	 cmp	 BYTE PTR [edi+13], 0
  0006f	74 04		 je	 SHORT $LN42@Extract
  00071	8b d6		 mov	 edx, esi
  00073	eb 1c		 jmp	 SHORT $LN43@Extract
$LN42@Extract:

; 476  :         while (!_Pnode->_Left->_Isnil) {

  00075	8b 0f		 mov	 ecx, DWORD PTR [edi]

; 559  :                 _Myhead->_Left = _Fixnode->_Isnil ? _Fixnodeparent // smallest is parent of erased node

  00077	8b d7		 mov	 edx, edi

; 476  :         while (!_Pnode->_Left->_Isnil) {

  00079	80 79 0d 00	 cmp	 BYTE PTR [ecx+13], 0
  0007d	75 0f		 jne	 SHORT $LN49@Extract
  0007f	90		 npad	 1
$LL48@Extract:
  00080	8b 01		 mov	 eax, DWORD PTR [ecx]

; 477  :             _Pnode = _Pnode->_Left;

  00082	8b d1		 mov	 edx, ecx
  00084	8b c8		 mov	 ecx, eax
  00086	80 78 0d 00	 cmp	 BYTE PTR [eax+13], 0
  0008a	74 f4		 je	 SHORT $LL48@Extract
  0008c	8b 03		 mov	 eax, DWORD PTR [ebx]
$LN49@Extract:
  0008e	8b 4d f8	 mov	 ecx, DWORD PTR __Erasednode$1$[ebp]
$LN43@Extract:

; 559  :                 _Myhead->_Left = _Fixnode->_Isnil ? _Fixnodeparent // smallest is parent of erased node

  00091	89 10		 mov	 DWORD PTR [eax], edx
$LN16@Extract:

; 560  :                                                   : _Min(_Fixnode); // smallest in relinked subtree
; 561  :             }
; 562  : 
; 563  :             if (_Myhead->_Right == _Erasednode) {

  00093	8b 13		 mov	 edx, DWORD PTR [ebx]
  00095	39 4a 08	 cmp	 DWORD PTR [edx+8], ecx
  00098	75 34		 jne	 SHORT $LN17@Extract

; 564  :                 _Myhead->_Right = _Fixnode->_Isnil ? _Fixnodeparent // largest is parent of erased node

  0009a	80 7f 0d 00	 cmp	 BYTE PTR [edi+13], 0
  0009e	74 0d		 je	 SHORT $LN44@Extract

; 565  :                                                    : _Max(_Fixnode); // largest in relinked subtree
; 566  :             }
; 567  :         } else { // erased has two subtrees, _Pnode is successor to erased

  000a0	8b 45 f8	 mov	 eax, DWORD PTR __Erasednode$1$[ebp]
  000a3	8b ce		 mov	 ecx, esi
  000a5	89 4a 08	 mov	 DWORD PTR [edx+8], ecx
  000a8	e9 94 00 00 00	 jmp	 $LN58@Extract
$LN44@Extract:

; 468  :         while (!_Pnode->_Right->_Isnil) {

  000ad	8b 47 08	 mov	 eax, DWORD PTR [edi+8]

; 564  :                 _Myhead->_Right = _Fixnode->_Isnil ? _Fixnodeparent // largest is parent of erased node

  000b0	8b cf		 mov	 ecx, edi

; 468  :         while (!_Pnode->_Right->_Isnil) {

  000b2	80 78 0d 00	 cmp	 BYTE PTR [eax+13], 0
  000b6	75 13		 jne	 SHORT $LN54@Extract
  000b8	0f 1f 84 00 00
	00 00 00	 npad	 8
$LL53@Extract:

; 469  :             _Pnode = _Pnode->_Right;

  000c0	8b c8		 mov	 ecx, eax
  000c2	8b 41 08	 mov	 eax, DWORD PTR [ecx+8]
  000c5	80 78 0d 00	 cmp	 BYTE PTR [eax+13], 0
  000c9	74 f5		 je	 SHORT $LL53@Extract
$LN54@Extract:

; 564  :                 _Myhead->_Right = _Fixnode->_Isnil ? _Fixnodeparent // largest is parent of erased node

  000cb	89 4a 08	 mov	 DWORD PTR [edx+8], ecx
$LN17@Extract:

; 565  :                                                    : _Max(_Fixnode); // largest in relinked subtree
; 566  :             }
; 567  :         } else { // erased has two subtrees, _Pnode is successor to erased

  000ce	8b 45 f8	 mov	 eax, DWORD PTR __Erasednode$1$[ebp]
  000d1	eb 6e		 jmp	 SHORT $LN58@Extract
$LN9@Extract:

; 568  :             _Erasednode->_Left->_Parent = _Pnode; // link left up

  000d3	89 50 04	 mov	 DWORD PTR [eax+4], edx

; 569  :             _Pnode->_Left               = _Erasednode->_Left; // link successor down

  000d6	8b 01		 mov	 eax, DWORD PTR [ecx]
  000d8	89 02		 mov	 DWORD PTR [edx], eax

; 570  : 
; 571  :             if (_Pnode == _Erasednode->_Right) {

  000da	8d 42 04	 lea	 eax, DWORD PTR [edx+4]
  000dd	89 45 f4	 mov	 DWORD PTR $T1[ebp], eax
  000e0	3b 51 08	 cmp	 edx, DWORD PTR [ecx+8]
  000e3	75 04		 jne	 SHORT $LN18@Extract

; 572  :                 _Fixnodeparent = _Pnode; // successor is next to erased

  000e5	8b f2		 mov	 esi, edx

; 573  :             } else { // successor further down, link in place of erased

  000e7	eb 1f		 jmp	 SHORT $LN19@Extract
$LN18@Extract:

; 574  :                 _Fixnodeparent = _Pnode->_Parent; // parent is successor's
; 575  :                 if (!_Fixnode->_Isnil) {

  000e9	80 7f 0d 00	 cmp	 BYTE PTR [edi+13], 0
  000ed	8b 30		 mov	 esi, DWORD PTR [eax]
  000ef	75 03		 jne	 SHORT $LN20@Extract

; 576  :                     _Fixnode->_Parent = _Fixnodeparent; // link fix up

  000f1	89 77 04	 mov	 DWORD PTR [edi+4], esi
$LN20@Extract:

; 577  :                 }
; 578  : 
; 579  :                 _Fixnodeparent->_Left        = _Fixnode; // link fix down

  000f4	89 3e		 mov	 DWORD PTR [esi], edi

; 580  :                 _Pnode->_Right               = _Erasednode->_Right; // link next down

  000f6	8b 41 08	 mov	 eax, DWORD PTR [ecx+8]
  000f9	89 42 08	 mov	 DWORD PTR [edx+8], eax

; 581  :                 _Erasednode->_Right->_Parent = _Pnode; // right up

  000fc	8b 41 08	 mov	 eax, DWORD PTR [ecx+8]
  000ff	89 50 04	 mov	 DWORD PTR [eax+4], edx
  00102	8d 42 04	 lea	 eax, DWORD PTR [edx+4]
  00105	89 45 f4	 mov	 DWORD PTR $T1[ebp], eax
$LN19@Extract:

; 582  :             }
; 583  : 
; 584  :             if (_Myhead->_Parent == _Erasednode) {

  00108	8b 03		 mov	 eax, DWORD PTR [ebx]
  0010a	39 48 04	 cmp	 DWORD PTR [eax+4], ecx
  0010d	75 05		 jne	 SHORT $LN21@Extract

; 585  :                 _Myhead->_Parent = _Pnode; // link down from root

  0010f	89 50 04	 mov	 DWORD PTR [eax+4], edx
  00112	eb 0e		 jmp	 SHORT $LN141@Extract
$LN21@Extract:

; 586  :             } else if (_Erasednode->_Parent->_Left == _Erasednode) {

  00114	8b 41 04	 mov	 eax, DWORD PTR [ecx+4]
  00117	39 08		 cmp	 DWORD PTR [eax], ecx
  00119	75 04		 jne	 SHORT $LN23@Extract

; 587  :                 _Erasednode->_Parent->_Left = _Pnode; // link down to left

  0011b	89 10		 mov	 DWORD PTR [eax], edx

; 588  :             } else {

  0011d	eb 03		 jmp	 SHORT $LN141@Extract
$LN23@Extract:

; 589  :                 _Erasednode->_Parent->_Right = _Pnode; // link down to right

  0011f	89 50 08	 mov	 DWORD PTR [eax+8], edx
$LN141@Extract:

; 590  :             }
; 591  : 
; 592  :             _Pnode->_Parent = _Erasednode->_Parent; // link successor up

  00122	b8 04 00 00 00	 mov	 eax, 4
  00127	8b 04 08	 mov	 eax, DWORD PTR [eax+ecx]
  0012a	8b 4d f4	 mov	 ecx, DWORD PTR $T1[ebp]
  0012d	89 01		 mov	 DWORD PTR [ecx], eax
; File C:\Program Files\Microsoft Visual Studio\2022\Professional\VC\Tools\MSVC\14.44.35207\include\utility

; 140  :     _Left    = _STD move(_Right);

  0012f	8b 45 f8	 mov	 eax, DWORD PTR __Erasednode$1$[ebp]
  00132	8a 4a 0c	 mov	 cl, BYTE PTR [edx+12]
  00135	8a 40 0c	 mov	 al, BYTE PTR [eax+12]
  00138	88 42 0c	 mov	 BYTE PTR [edx+12], al

; 141  :     _Right   = _STD move(_Tmp);

  0013b	8b 45 f8	 mov	 eax, DWORD PTR __Erasednode$1$[ebp]
  0013e	88 48 0c	 mov	 BYTE PTR [eax+12], cl
$LN58@Extract:
; File C:\Program Files\Microsoft Visual Studio\2022\Professional\VC\Tools\MSVC\14.44.35207\include\xtree

; 596  :         if (_Erasednode->_Color == _Black) { // erasing black link, must recolor/rebalance tree

  00141	80 78 0c 01	 cmp	 BYTE PTR [eax+12], 1
  00145	0f 85 ba 01 00
	00		 jne	 $LN25@Extract

; 597  :             for (; _Fixnode != _Myhead->_Parent && _Fixnode->_Color == _Black; _Fixnodeparent = _Fixnode->_Parent) {

  0014b	8b 03		 mov	 eax, DWORD PTR [ebx]
  0014d	3b 78 04	 cmp	 edi, DWORD PTR [eax+4]
  00150	0f 84 a8 01 00
	00		 je	 $LN3@Extract
  00156	80 7f 0c 01	 cmp	 BYTE PTR [edi+12], 1
  0015a	89 75 f4	 mov	 DWORD PTR tv1093[ebp], esi
  0015d	0f 85 9b 01 00
	00		 jne	 $LN3@Extract
$LL4@Extract:

; 598  :                 if (_Fixnode == _Fixnodeparent->_Left) { // fixup left subtree

  00163	8b 0e		 mov	 ecx, DWORD PTR [esi]
  00165	3b f9		 cmp	 edi, ecx
  00167	0f 85 be 00 00
	00		 jne	 $LN26@Extract

; 599  :                     _Pnode = _Fixnodeparent->_Right;

  0016d	8b 4e 08	 mov	 ecx, DWORD PTR [esi+8]

; 600  :                     if (_Pnode->_Color == _Red) { // rotate red up from right subtree

  00170	80 79 0c 00	 cmp	 BYTE PTR [ecx+12], 0
  00174	75 54		 jne	 SHORT $LN95@Extract

; 601  :                         _Pnode->_Color         = _Black;

  00176	c6 41 0c 01	 mov	 BYTE PTR [ecx+12], 1

; 484  :         _Nodeptr _Pnode    = _Wherenode->_Right;

  0017a	8b 4e 08	 mov	 ecx, DWORD PTR [esi+8]

; 602  :                         _Fixnodeparent->_Color = _Red;

  0017d	c6 46 0c 00	 mov	 BYTE PTR [esi+12], 0

; 485  :         _Wherenode->_Right = _Pnode->_Left;

  00181	8b 01		 mov	 eax, DWORD PTR [ecx]
  00183	89 46 08	 mov	 DWORD PTR [esi+8], eax

; 486  : 
; 487  :         if (!_Pnode->_Left->_Isnil) {

  00186	8b 01		 mov	 eax, DWORD PTR [ecx]
  00188	80 78 0d 00	 cmp	 BYTE PTR [eax+13], 0
  0018c	75 03		 jne	 SHORT $LN61@Extract

; 488  :             _Pnode->_Left->_Parent = _Wherenode;

  0018e	89 70 04	 mov	 DWORD PTR [eax+4], esi
$LN61@Extract:

; 489  :         }
; 490  : 
; 491  :         _Pnode->_Parent = _Wherenode->_Parent;

  00191	8b 46 04	 mov	 eax, DWORD PTR [esi+4]
  00194	8d 56 04	 lea	 edx, DWORD PTR [esi+4]
  00197	89 41 04	 mov	 DWORD PTR [ecx+4], eax

; 492  : 
; 493  :         if (_Wherenode == _Myhead->_Parent) {

  0019a	8b 03		 mov	 eax, DWORD PTR [ebx]
  0019c	3b 70 04	 cmp	 esi, DWORD PTR [eax+4]
  0019f	75 0c		 jne	 SHORT $LN62@Extract

; 494  :             _Myhead->_Parent = _Pnode;

  001a1	89 48 04	 mov	 DWORD PTR [eax+4], ecx

; 499  :         }
; 500  : 
; 501  :         _Pnode->_Left       = _Wherenode;

  001a4	89 31		 mov	 DWORD PTR [ecx], esi

; 502  :         _Wherenode->_Parent = _Pnode;

  001a6	89 0a		 mov	 DWORD PTR [edx], ecx

; 603  :                         _Lrotate(_Fixnodeparent);
; 604  :                         _Pnode = _Fixnodeparent->_Right;

  001a8	8b 4e 08	 mov	 ecx, DWORD PTR [esi+8]
  001ab	eb 20		 jmp	 SHORT $LN87@Extract
$LN62@Extract:

; 495  :         } else if (_Wherenode == _Wherenode->_Parent->_Left) {

  001ad	8b 02		 mov	 eax, DWORD PTR [edx]
  001af	3b 30		 cmp	 esi, DWORD PTR [eax]
  001b1	75 0b		 jne	 SHORT $LN64@Extract

; 496  :             _Wherenode->_Parent->_Left = _Pnode;

  001b3	89 08		 mov	 DWORD PTR [eax], ecx

; 499  :         }
; 500  : 
; 501  :         _Pnode->_Left       = _Wherenode;

  001b5	89 31		 mov	 DWORD PTR [ecx], esi

; 502  :         _Wherenode->_Parent = _Pnode;

  001b7	89 0a		 mov	 DWORD PTR [edx], ecx

; 603  :                         _Lrotate(_Fixnodeparent);
; 604  :                         _Pnode = _Fixnodeparent->_Right;

  001b9	8b 4e 08	 mov	 ecx, DWORD PTR [esi+8]
  001bc	eb 0f		 jmp	 SHORT $LN87@Extract
$LN64@Extract:

; 498  :             _Wherenode->_Parent->_Right = _Pnode;

  001be	89 48 08	 mov	 DWORD PTR [eax+8], ecx

; 499  :         }
; 500  : 
; 501  :         _Pnode->_Left       = _Wherenode;

  001c1	89 31		 mov	 DWORD PTR [ecx], esi

; 502  :         _Wherenode->_Parent = _Pnode;

  001c3	89 0a		 mov	 DWORD PTR [edx], ecx

; 603  :                         _Lrotate(_Fixnodeparent);
; 604  :                         _Pnode = _Fixnodeparent->_Right;

  001c5	8b 4e 08	 mov	 ecx, DWORD PTR [esi+8]
  001c8	eb 03		 jmp	 SHORT $LN87@Extract
$LN95@Extract:
  001ca	8d 56 04	 lea	 edx, DWORD PTR [esi+4]
$LN87@Extract:

; 605  :                     }
; 606  : 
; 607  :                     if (_Pnode->_Isnil) {

  001cd	80 79 0d 00	 cmp	 BYTE PTR [ecx+13], 0
  001d1	0f 85 d0 00 00
	00		 jne	 $LN2@Extract

; 608  :                         _Fixnode = _Fixnodeparent; // shouldn't happen
; 609  :                     } else if (_Pnode->_Left->_Color == _Black
; 610  :                                && _Pnode->_Right->_Color == _Black) { // redden right subtree with black children

  001d7	8b 01		 mov	 eax, DWORD PTR [ecx]
  001d9	80 78 0c 01	 cmp	 BYTE PTR [eax+12], 1
  001dd	75 0d		 jne	 SHORT $LN97@Extract
  001df	8b 41 08	 mov	 eax, DWORD PTR [ecx+8]
  001e2	80 78 0c 01	 cmp	 BYTE PTR [eax+12], 1
  001e6	0f 84 b4 00 00
	00		 je	 $LN142@Extract
$LN97@Extract:

; 611  :                         _Pnode->_Color = _Red;
; 612  :                         _Fixnode       = _Fixnodeparent;
; 613  :                     } else { // must rearrange right subtree
; 614  :                         if (_Pnode->_Right->_Color == _Black) { // rotate red up from left sub-subtree

  001ec	8b 41 08	 mov	 eax, DWORD PTR [ecx+8]
  001ef	8b 5d fc	 mov	 ebx, DWORD PTR _this$1$[ebp]
  001f2	80 78 0c 01	 cmp	 BYTE PTR [eax+12], 1
  001f6	75 15		 jne	 SHORT $LN33@Extract

; 615  :                             _Pnode->_Left->_Color = _Black;

  001f8	8b 01		 mov	 eax, DWORD PTR [ecx]

; 616  :                             _Pnode->_Color        = _Red;
; 617  :                             _Rrotate(_Pnode);

  001fa	51		 push	 ecx
  001fb	c6 40 0c 01	 mov	 BYTE PTR [eax+12], 1
  001ff	c6 41 0c 00	 mov	 BYTE PTR [ecx+12], 0
  00203	8b cb		 mov	 ecx, ebx
  00205	e8 00 00 00 00	 call	 ?_Rrotate@?$_Tree_val@U?$_Tree_simple_types@U?$pair@$$CBV?$basic_string@DU?$char_traits@D@std@@V?$allocator@D@2@@std@@PAVCGuild@@@std@@@std@@@std@@QAEXPAU?$_Tree_node@U?$pair@$$CBV?$basic_string@DU?$char_traits@D@std@@V?$allocator@D@2@@std@@PAVCGuild@@@std@@PAX@2@@Z ; std::_Tree_val<std::_Tree_simple_types<std::pair<std::basic_string<char,std::char_traits<char>,std::allocator<char> > const ,CGuild *> > >::_Rrotate

; 618  :                             _Pnode = _Fixnodeparent->_Right;

  0020a	8b 4e 08	 mov	 ecx, DWORD PTR [esi+8]
$LN33@Extract:

; 619  :                         }
; 620  : 
; 621  :                         _Pnode->_Color         = _Fixnodeparent->_Color;

  0020d	8a 46 0c	 mov	 al, BYTE PTR [esi+12]
  00210	88 41 0c	 mov	 BYTE PTR [ecx+12], al

; 622  :                         _Fixnodeparent->_Color = _Black;

  00213	c6 46 0c 01	 mov	 BYTE PTR [esi+12], 1

; 623  :                         _Pnode->_Right->_Color = _Black;

  00217	8b 41 08	 mov	 eax, DWORD PTR [ecx+8]

; 624  :                         _Lrotate(_Fixnodeparent);

  0021a	8b cb		 mov	 ecx, ebx
  0021c	56		 push	 esi
  0021d	c6 40 0c 01	 mov	 BYTE PTR [eax+12], 1
  00221	e8 00 00 00 00	 call	 ?_Lrotate@?$_Tree_val@U?$_Tree_simple_types@U?$pair@$$CBV?$basic_string@DU?$char_traits@D@std@@V?$allocator@D@2@@std@@PAVCGuild@@@std@@@std@@@std@@QAEXPAU?$_Tree_node@U?$pair@$$CBV?$basic_string@DU?$char_traits@D@std@@V?$allocator@D@2@@std@@PAVCGuild@@@std@@PAX@2@@Z ; std::_Tree_val<std::_Tree_simple_types<std::pair<std::basic_string<char,std::char_traits<char>,std::allocator<char> > const ,CGuild *> > >::_Lrotate

; 625  :                         break; // tree now recolored/rebalanced

  00226	e9 d3 00 00 00	 jmp	 $LN3@Extract
$LN26@Extract:

; 626  :                     }
; 627  :                 } else { // fixup right subtree
; 628  :                     _Pnode = _Fixnodeparent->_Left;
; 629  :                     if (_Pnode->_Color == _Red) { // rotate red up from left subtree

  0022b	80 79 0c 00	 cmp	 BYTE PTR [ecx+12], 0
  0022f	75 55		 jne	 SHORT $LN96@Extract

; 630  :                         _Pnode->_Color         = _Black;

  00231	c6 41 0c 01	 mov	 BYTE PTR [ecx+12], 1

; 506  :         _Nodeptr _Pnode   = _Wherenode->_Left;

  00235	8b 0e		 mov	 ecx, DWORD PTR [esi]

; 631  :                         _Fixnodeparent->_Color = _Red;

  00237	c6 46 0c 00	 mov	 BYTE PTR [esi+12], 0

; 507  :         _Wherenode->_Left = _Pnode->_Right;

  0023b	8b 41 08	 mov	 eax, DWORD PTR [ecx+8]
  0023e	89 06		 mov	 DWORD PTR [esi], eax

; 508  : 
; 509  :         if (!_Pnode->_Right->_Isnil) {

  00240	8b 41 08	 mov	 eax, DWORD PTR [ecx+8]
  00243	80 78 0d 00	 cmp	 BYTE PTR [eax+13], 0
  00247	75 03		 jne	 SHORT $LN69@Extract

; 510  :             _Pnode->_Right->_Parent = _Wherenode;

  00249	89 70 04	 mov	 DWORD PTR [eax+4], esi
$LN69@Extract:

; 511  :         }
; 512  : 
; 513  :         _Pnode->_Parent = _Wherenode->_Parent;

  0024c	8b 46 04	 mov	 eax, DWORD PTR [esi+4]
  0024f	8d 56 04	 lea	 edx, DWORD PTR [esi+4]
  00252	89 41 04	 mov	 DWORD PTR [ecx+4], eax

; 514  : 
; 515  :         if (_Wherenode == _Myhead->_Parent) {

  00255	8b 03		 mov	 eax, DWORD PTR [ebx]
  00257	3b 70 04	 cmp	 esi, DWORD PTR [eax+4]
  0025a	75 0c		 jne	 SHORT $LN70@Extract

; 516  :             _Myhead->_Parent = _Pnode;

  0025c	89 48 04	 mov	 DWORD PTR [eax+4], ecx

; 521  :         }
; 522  : 
; 523  :         _Pnode->_Right      = _Wherenode;

  0025f	89 71 08	 mov	 DWORD PTR [ecx+8], esi

; 524  :         _Wherenode->_Parent = _Pnode;

  00262	89 0a		 mov	 DWORD PTR [edx], ecx

; 632  :                         _Rrotate(_Fixnodeparent);
; 633  :                         _Pnode = _Fixnodeparent->_Left;

  00264	8b 0e		 mov	 ecx, DWORD PTR [esi]
  00266	eb 21		 jmp	 SHORT $LN86@Extract
$LN70@Extract:

; 517  :         } else if (_Wherenode == _Wherenode->_Parent->_Right) {

  00268	8b 02		 mov	 eax, DWORD PTR [edx]
  0026a	3b 70 08	 cmp	 esi, DWORD PTR [eax+8]
  0026d	75 0c		 jne	 SHORT $LN72@Extract

; 518  :             _Wherenode->_Parent->_Right = _Pnode;

  0026f	89 48 08	 mov	 DWORD PTR [eax+8], ecx

; 521  :         }
; 522  : 
; 523  :         _Pnode->_Right      = _Wherenode;

  00272	89 71 08	 mov	 DWORD PTR [ecx+8], esi

; 524  :         _Wherenode->_Parent = _Pnode;

  00275	89 0a		 mov	 DWORD PTR [edx], ecx

; 632  :                         _Rrotate(_Fixnodeparent);
; 633  :                         _Pnode = _Fixnodeparent->_Left;

  00277	8b 0e		 mov	 ecx, DWORD PTR [esi]
  00279	eb 0e		 jmp	 SHORT $LN86@Extract
$LN72@Extract:

; 520  :             _Wherenode->_Parent->_Left = _Pnode;

  0027b	89 08		 mov	 DWORD PTR [eax], ecx

; 521  :         }
; 522  : 
; 523  :         _Pnode->_Right      = _Wherenode;

  0027d	89 71 08	 mov	 DWORD PTR [ecx+8], esi

; 524  :         _Wherenode->_Parent = _Pnode;

  00280	89 0a		 mov	 DWORD PTR [edx], ecx

; 632  :                         _Rrotate(_Fixnodeparent);
; 633  :                         _Pnode = _Fixnodeparent->_Left;

  00282	8b 0e		 mov	 ecx, DWORD PTR [esi]
  00284	eb 03		 jmp	 SHORT $LN86@Extract
$LN96@Extract:
  00286	8d 56 04	 lea	 edx, DWORD PTR [esi+4]
$LN86@Extract:

; 634  :                     }
; 635  : 
; 636  :                     if (_Pnode->_Isnil) {

  00289	80 79 0d 00	 cmp	 BYTE PTR [ecx+13], 0
  0028d	75 18		 jne	 SHORT $LN2@Extract

; 637  :                         _Fixnode = _Fixnodeparent; // shouldn't happen
; 638  :                     } else if (_Pnode->_Right->_Color == _Black
; 639  :                                && _Pnode->_Left->_Color == _Black) { // redden left subtree with black children

  0028f	8b 59 08	 mov	 ebx, DWORD PTR [ecx+8]
  00292	80 7b 0c 01	 cmp	 BYTE PTR [ebx+12], 1
  00296	75 2c		 jne	 SHORT $LN98@Extract
  00298	8b 01		 mov	 eax, DWORD PTR [ecx]
  0029a	80 78 0c 01	 cmp	 BYTE PTR [eax+12], 1
  0029e	75 24		 jne	 SHORT $LN98@Extract
$LN142@Extract:

; 597  :             for (; _Fixnode != _Myhead->_Parent && _Fixnode->_Color == _Black; _Fixnodeparent = _Fixnode->_Parent) {

  002a0	8b 5d fc	 mov	 ebx, DWORD PTR _this$1$[ebp]
  002a3	c6 41 0c 00	 mov	 BYTE PTR [ecx+12], 0
$LN2@Extract:
  002a7	8b 03		 mov	 eax, DWORD PTR [ebx]
  002a9	8b 4d f4	 mov	 ecx, DWORD PTR tv1093[ebp]
  002ac	8b f9		 mov	 edi, ecx
  002ae	8b 32		 mov	 esi, DWORD PTR [edx]
  002b0	3b 48 04	 cmp	 ecx, DWORD PTR [eax+4]
  002b3	74 49		 je	 SHORT $LN3@Extract
  002b5	80 7f 0c 01	 cmp	 BYTE PTR [edi+12], 1
  002b9	89 75 f4	 mov	 DWORD PTR tv1093[ebp], esi
  002bc	0f 84 a1 fe ff
	ff		 je	 $LL4@Extract
  002c2	eb 3a		 jmp	 SHORT $LN3@Extract
$LN98@Extract:

; 640  :                         _Pnode->_Color = _Red;
; 641  :                         _Fixnode       = _Fixnodeparent;
; 642  :                     } else { // must rearrange left subtree
; 643  :                         if (_Pnode->_Left->_Color == _Black) { // rotate red up from right sub-subtree

  002c4	8b 01		 mov	 eax, DWORD PTR [ecx]
  002c6	80 78 0c 01	 cmp	 BYTE PTR [eax+12], 1
  002ca	75 17		 jne	 SHORT $LN101@Extract

; 644  :                             _Pnode->_Right->_Color = _Black;

  002cc	c6 43 0c 01	 mov	 BYTE PTR [ebx+12], 1

; 645  :                             _Pnode->_Color         = _Red;
; 646  :                             _Lrotate(_Pnode);

  002d0	8b 5d fc	 mov	 ebx, DWORD PTR _this$1$[ebp]
  002d3	c6 41 0c 00	 mov	 BYTE PTR [ecx+12], 0
  002d7	51		 push	 ecx
  002d8	8b cb		 mov	 ecx, ebx
  002da	e8 00 00 00 00	 call	 ?_Lrotate@?$_Tree_val@U?$_Tree_simple_types@U?$pair@$$CBV?$basic_string@DU?$char_traits@D@std@@V?$allocator@D@2@@std@@PAVCGuild@@@std@@@std@@@std@@QAEXPAU?$_Tree_node@U?$pair@$$CBV?$basic_string@DU?$char_traits@D@std@@V?$allocator@D@2@@std@@PAVCGuild@@@std@@PAX@2@@Z ; std::_Tree_val<std::_Tree_simple_types<std::pair<std::basic_string<char,std::char_traits<char>,std::allocator<char> > const ,CGuild *> > >::_Lrotate

; 647  :                             _Pnode = _Fixnodeparent->_Left;

  002df	8b 0e		 mov	 ecx, DWORD PTR [esi]
  002e1	eb 03		 jmp	 SHORT $LN39@Extract
$LN101@Extract:

; 640  :                         _Pnode->_Color = _Red;
; 641  :                         _Fixnode       = _Fixnodeparent;
; 642  :                     } else { // must rearrange left subtree
; 643  :                         if (_Pnode->_Left->_Color == _Black) { // rotate red up from right sub-subtree

  002e3	8b 5d fc	 mov	 ebx, DWORD PTR _this$1$[ebp]
$LN39@Extract:

; 648  :                         }
; 649  : 
; 650  :                         _Pnode->_Color         = _Fixnodeparent->_Color;

  002e6	8a 46 0c	 mov	 al, BYTE PTR [esi+12]
  002e9	88 41 0c	 mov	 BYTE PTR [ecx+12], al

; 651  :                         _Fixnodeparent->_Color = _Black;

  002ec	c6 46 0c 01	 mov	 BYTE PTR [esi+12], 1

; 652  :                         _Pnode->_Left->_Color  = _Black;

  002f0	8b 01		 mov	 eax, DWORD PTR [ecx]

; 653  :                         _Rrotate(_Fixnodeparent);

  002f2	8b cb		 mov	 ecx, ebx
  002f4	56		 push	 esi
  002f5	c6 40 0c 01	 mov	 BYTE PTR [eax+12], 1
  002f9	e8 00 00 00 00	 call	 ?_Rrotate@?$_Tree_val@U?$_Tree_simple_types@U?$pair@$$CBV?$basic_string@DU?$char_traits@D@std@@V?$allocator@D@2@@std@@PAVCGuild@@@std@@@std@@@std@@QAEXPAU?$_Tree_node@U?$pair@$$CBV?$basic_string@DU?$char_traits@D@std@@V?$allocator@D@2@@std@@PAVCGuild@@@std@@PAX@2@@Z ; std::_Tree_val<std::_Tree_simple_types<std::pair<std::basic_string<char,std::char_traits<char>,std::allocator<char> > const ,CGuild *> > >::_Rrotate
$LN3@Extract:

; 654  :                         break; // tree now recolored/rebalanced
; 655  :                     }
; 656  :                 }
; 657  :             }
; 658  : 
; 659  :             _Fixnode->_Color = _Black; // stopping node is black

  002fe	8b 45 f8	 mov	 eax, DWORD PTR __Erasednode$1$[ebp]
  00301	c6 47 0c 01	 mov	 BYTE PTR [edi+12], 1
$LN25@Extract:

; 660  :         }
; 661  : 
; 662  :         if (0 < _Mysize) {

  00305	8b 4b 04	 mov	 ecx, DWORD PTR [ebx+4]
  00308	85 c9		 test	 ecx, ecx
  0030a	74 04		 je	 SHORT $LN40@Extract

; 663  :             --_Mysize;

  0030c	49		 dec	 ecx
  0030d	89 4b 04	 mov	 DWORD PTR [ebx+4], ecx
$LN40@Extract:

; 664  :         }
; 665  : 
; 666  :         return _Erasednode;
; 667  :     }

  00310	5f		 pop	 edi
  00311	5e		 pop	 esi
  00312	5b		 pop	 ebx
  00313	8b e5		 mov	 esp, ebp
  00315	5d		 pop	 ebp
  00316	c2 04 00	 ret	 4
?_Extract@?$_Tree_val@U?$_Tree_simple_types@U?$pair@$$CBV?$basic_string@DU?$char_traits@D@std@@V?$allocator@D@2@@std@@PAVCGuild@@@std@@@std@@@std@@QAEPAU?$_Tree_node@U?$pair@$$CBV?$basic_string@DU?$char_traits@D@std@@V?$allocator@D@2@@std@@PAVCGuild@@@std@@PAX@2@V?$_Tree_unchecked_const_iterator@V?$_Tree_val@U?$_Tree_simple_types@U?$pair@$$CBV?$basic_string@DU?$char_traits@D@std@@V?$allocator@D@2@@std@@PAVCGuild@@@std@@@std@@@std@@U_Iterator_base0@2@@2@@Z ENDP ; std::_Tree_val<std::_Tree_simple_types<std::pair<std::basic_string<char,std::char_traits<char>,std::allocator<char> > const ,CGuild *> > >::_Extract
_TEXT	ENDS
; Function compile flags: /Ogtp
; File C:\Program Files\Microsoft Visual Studio\2022\Professional\VC\Tools\MSVC\14.44.35207\include\xtree
;	COMDAT ?_Rrotate@?$_Tree_val@U?$_Tree_simple_types@U?$pair@$$CBV?$basic_string@DU?$char_traits@D@std@@V?$allocator@D@2@@std@@PAVCGuild@@@std@@@std@@@std@@QAEXPAU?$_Tree_node@U?$pair@$$CBV?$basic_string@DU?$char_traits@D@std@@V?$allocator@D@2@@std@@PAVCGuild@@@std@@PAX@2@@Z
_TEXT	SEGMENT
__Wherenode$ = 8					; size = 4
?_Rrotate@?$_Tree_val@U?$_Tree_simple_types@U?$pair@$$CBV?$basic_string@DU?$char_traits@D@std@@V?$allocator@D@2@@std@@PAVCGuild@@@std@@@std@@@std@@QAEXPAU?$_Tree_node@U?$pair@$$CBV?$basic_string@DU?$char_traits@D@std@@V?$allocator@D@2@@std@@PAVCGuild@@@std@@PAX@2@@Z PROC ; std::_Tree_val<std::_Tree_simple_types<std::pair<std::basic_string<char,std::char_traits<char>,std::allocator<char> > const ,CGuild *> > >::_Rrotate, COMDAT
; _this$ = ecx

; 505  :     void _Rrotate(_Nodeptr _Wherenode) noexcept { // promote left node to root of subtree

  00000	55		 push	 ebp
  00001	8b ec		 mov	 ebp, esp

; 506  :         _Nodeptr _Pnode   = _Wherenode->_Left;

  00003	8b 55 08	 mov	 edx, DWORD PTR __Wherenode$[ebp]
  00006	56		 push	 esi
  00007	8b 32		 mov	 esi, DWORD PTR [edx]

; 507  :         _Wherenode->_Left = _Pnode->_Right;

  00009	8b 46 08	 mov	 eax, DWORD PTR [esi+8]
  0000c	89 02		 mov	 DWORD PTR [edx], eax

; 508  : 
; 509  :         if (!_Pnode->_Right->_Isnil) {

  0000e	8b 46 08	 mov	 eax, DWORD PTR [esi+8]
  00011	80 78 0d 00	 cmp	 BYTE PTR [eax+13], 0
  00015	75 03		 jne	 SHORT $LN2@Rrotate

; 510  :             _Pnode->_Right->_Parent = _Wherenode;

  00017	89 50 04	 mov	 DWORD PTR [eax+4], edx
$LN2@Rrotate:

; 511  :         }
; 512  : 
; 513  :         _Pnode->_Parent = _Wherenode->_Parent;

  0001a	8b 42 04	 mov	 eax, DWORD PTR [edx+4]
  0001d	89 46 04	 mov	 DWORD PTR [esi+4], eax

; 514  : 
; 515  :         if (_Wherenode == _Myhead->_Parent) {

  00020	8b 01		 mov	 eax, DWORD PTR [ecx]
  00022	3b 50 04	 cmp	 edx, DWORD PTR [eax+4]
  00025	75 0e		 jne	 SHORT $LN3@Rrotate

; 516  :             _Myhead->_Parent = _Pnode;

  00027	89 70 04	 mov	 DWORD PTR [eax+4], esi

; 521  :         }
; 522  : 
; 523  :         _Pnode->_Right      = _Wherenode;
; 524  :         _Wherenode->_Parent = _Pnode;
; 525  :     }

  0002a	89 56 08	 mov	 DWORD PTR [esi+8], edx
  0002d	89 72 04	 mov	 DWORD PTR [edx+4], esi
  00030	5e		 pop	 esi
  00031	5d		 pop	 ebp
  00032	c2 04 00	 ret	 4
$LN3@Rrotate:

; 517  :         } else if (_Wherenode == _Wherenode->_Parent->_Right) {

  00035	8b 42 04	 mov	 eax, DWORD PTR [edx+4]
  00038	3b 50 08	 cmp	 edx, DWORD PTR [eax+8]
  0003b	75 0e		 jne	 SHORT $LN5@Rrotate

; 518  :             _Wherenode->_Parent->_Right = _Pnode;

  0003d	89 70 08	 mov	 DWORD PTR [eax+8], esi

; 521  :         }
; 522  : 
; 523  :         _Pnode->_Right      = _Wherenode;
; 524  :         _Wherenode->_Parent = _Pnode;
; 525  :     }

  00040	89 56 08	 mov	 DWORD PTR [esi+8], edx
  00043	89 72 04	 mov	 DWORD PTR [edx+4], esi
  00046	5e		 pop	 esi
  00047	5d		 pop	 ebp
  00048	c2 04 00	 ret	 4
$LN5@Rrotate:

; 519  :         } else {
; 520  :             _Wherenode->_Parent->_Left = _Pnode;

  0004b	89 30		 mov	 DWORD PTR [eax], esi

; 521  :         }
; 522  : 
; 523  :         _Pnode->_Right      = _Wherenode;
; 524  :         _Wherenode->_Parent = _Pnode;
; 525  :     }

  0004d	89 56 08	 mov	 DWORD PTR [esi+8], edx
  00050	89 72 04	 mov	 DWORD PTR [edx+4], esi
  00053	5e		 pop	 esi
  00054	5d		 pop	 ebp
  00055	c2 04 00	 ret	 4
?_Rrotate@?$_Tree_val@U?$_Tree_simple_types@U?$pair@$$CBV?$basic_string@DU?$char_traits@D@std@@V?$allocator@D@2@@std@@PAVCGuild@@@std@@@std@@@std@@QAEXPAU?$_Tree_node@U?$pair@$$CBV?$basic_string@DU?$char_traits@D@std@@V?$allocator@D@2@@std@@PAVCGuild@@@std@@PAX@2@@Z ENDP ; std::_Tree_val<std::_Tree_simple_types<std::pair<std::basic_string<char,std::char_traits<char>,std::allocator<char> > const ,CGuild *> > >::_Rrotate
_TEXT	ENDS
; Function compile flags: /Ogtp
; File C:\Program Files\Microsoft Visual Studio\2022\Professional\VC\Tools\MSVC\14.44.35207\include\xtree
;	COMDAT ?_Lrotate@?$_Tree_val@U?$_Tree_simple_types@U?$pair@$$CBV?$basic_string@DU?$char_traits@D@std@@V?$allocator@D@2@@std@@PAVCGuild@@@std@@@std@@@std@@QAEXPAU?$_Tree_node@U?$pair@$$CBV?$basic_string@DU?$char_traits@D@std@@V?$allocator@D@2@@std@@PAVCGuild@@@std@@PAX@2@@Z
_TEXT	SEGMENT
__Wherenode$ = 8					; size = 4
?_Lrotate@?$_Tree_val@U?$_Tree_simple_types@U?$pair@$$CBV?$basic_string@DU?$char_traits@D@std@@V?$allocator@D@2@@std@@PAVCGuild@@@std@@@std@@@std@@QAEXPAU?$_Tree_node@U?$pair@$$CBV?$basic_string@DU?$char_traits@D@std@@V?$allocator@D@2@@std@@PAVCGuild@@@std@@PAX@2@@Z PROC ; std::_Tree_val<std::_Tree_simple_types<std::pair<std::basic_string<char,std::char_traits<char>,std::allocator<char> > const ,CGuild *> > >::_Lrotate, COMDAT
; _this$ = ecx

; 483  :     void _Lrotate(_Nodeptr _Wherenode) noexcept { // promote right node to root of subtree

  00000	55		 push	 ebp
  00001	8b ec		 mov	 ebp, esp

; 484  :         _Nodeptr _Pnode    = _Wherenode->_Right;

  00003	8b 55 08	 mov	 edx, DWORD PTR __Wherenode$[ebp]
  00006	56		 push	 esi
  00007	8b 72 08	 mov	 esi, DWORD PTR [edx+8]

; 485  :         _Wherenode->_Right = _Pnode->_Left;

  0000a	8b 06		 mov	 eax, DWORD PTR [esi]
  0000c	89 42 08	 mov	 DWORD PTR [edx+8], eax

; 486  : 
; 487  :         if (!_Pnode->_Left->_Isnil) {

  0000f	8b 06		 mov	 eax, DWORD PTR [esi]
  00011	80 78 0d 00	 cmp	 BYTE PTR [eax+13], 0
  00015	75 03		 jne	 SHORT $LN2@Lrotate

; 488  :             _Pnode->_Left->_Parent = _Wherenode;

  00017	89 50 04	 mov	 DWORD PTR [eax+4], edx
$LN2@Lrotate:

; 489  :         }
; 490  : 
; 491  :         _Pnode->_Parent = _Wherenode->_Parent;

  0001a	8b 42 04	 mov	 eax, DWORD PTR [edx+4]
  0001d	89 46 04	 mov	 DWORD PTR [esi+4], eax

; 492  : 
; 493  :         if (_Wherenode == _Myhead->_Parent) {

  00020	8b 01		 mov	 eax, DWORD PTR [ecx]
  00022	3b 50 04	 cmp	 edx, DWORD PTR [eax+4]
  00025	75 0d		 jne	 SHORT $LN3@Lrotate

; 494  :             _Myhead->_Parent = _Pnode;

  00027	89 70 04	 mov	 DWORD PTR [eax+4], esi

; 499  :         }
; 500  : 
; 501  :         _Pnode->_Left       = _Wherenode;
; 502  :         _Wherenode->_Parent = _Pnode;
; 503  :     }

  0002a	89 16		 mov	 DWORD PTR [esi], edx
  0002c	89 72 04	 mov	 DWORD PTR [edx+4], esi
  0002f	5e		 pop	 esi
  00030	5d		 pop	 ebp
  00031	c2 04 00	 ret	 4
$LN3@Lrotate:

; 495  :         } else if (_Wherenode == _Wherenode->_Parent->_Left) {

  00034	8b 42 04	 mov	 eax, DWORD PTR [edx+4]
  00037	3b 10		 cmp	 edx, DWORD PTR [eax]
  00039	75 0c		 jne	 SHORT $LN5@Lrotate

; 496  :             _Wherenode->_Parent->_Left = _Pnode;

  0003b	89 30		 mov	 DWORD PTR [eax], esi

; 499  :         }
; 500  : 
; 501  :         _Pnode->_Left       = _Wherenode;
; 502  :         _Wherenode->_Parent = _Pnode;
; 503  :     }

  0003d	89 16		 mov	 DWORD PTR [esi], edx
  0003f	89 72 04	 mov	 DWORD PTR [edx+4], esi
  00042	5e		 pop	 esi
  00043	5d		 pop	 ebp
  00044	c2 04 00	 ret	 4
$LN5@Lrotate:

; 497  :         } else {
; 498  :             _Wherenode->_Parent->_Right = _Pnode;

  00047	89 70 08	 mov	 DWORD PTR [eax+8], esi

; 499  :         }
; 500  : 
; 501  :         _Pnode->_Left       = _Wherenode;
; 502  :         _Wherenode->_Parent = _Pnode;
; 503  :     }

  0004a	89 16		 mov	 DWORD PTR [esi], edx
  0004c	89 72 04	 mov	 DWORD PTR [edx+4], esi
  0004f	5e		 pop	 esi
  00050	5d		 pop	 ebp
  00051	c2 04 00	 ret	 4
?_Lrotate@?$_Tree_val@U?$_Tree_simple_types@U?$pair@$$CBV?$basic_string@DU?$char_traits@D@std@@V?$allocator@D@2@@std@@PAVCGuild@@@std@@@std@@@std@@QAEXPAU?$_Tree_node@U?$pair@$$CBV?$basic_string@DU?$char_traits@D@std@@V?$allocator@D@2@@std@@PAVCGuild@@@std@@PAX@2@@Z ENDP ; std::_Tree_val<std::_Tree_simple_types<std::pair<std::basic_string<char,std::char_traits<char>,std::allocator<char> > const ,CGuild *> > >::_Lrotate
_TEXT	ENDS
; Function compile flags: /Ogtp
; File C:\Program Files\Microsoft Visual Studio\2022\Professional\VC\Tools\MSVC\14.44.35207\include\xtree
; File C:\Program Files\Microsoft Visual Studio\2022\Professional\VC\Tools\MSVC\14.44.35207\include\type_traits
; File C:\Program Files\Microsoft Visual Studio\2022\Professional\VC\Tools\MSVC\14.44.35207\include\xtree
; File C:\Program Files\Microsoft Visual Studio\2022\Professional\VC\Tools\MSVC\14.44.35207\include\type_traits
; File C:\Program Files\Microsoft Visual Studio\2022\Professional\VC\Tools\MSVC\14.44.35207\include\xtree
; File C:\Program Files\Microsoft Visual Studio\2022\Professional\VC\Tools\MSVC\14.44.35207\include\type_traits
; File C:\Program Files\Microsoft Visual Studio\2022\Professional\VC\Tools\MSVC\14.44.35207\include\xtree
; File C:\Program Files\Microsoft Visual Studio\2022\Professional\VC\Tools\MSVC\14.44.35207\include\xutility
; File C:\Program Files\Microsoft Visual Studio\2022\Professional\VC\Tools\MSVC\14.44.35207\include\xtree
; File C:\Program Files\Microsoft Visual Studio\2022\Professional\VC\Tools\MSVC\14.44.35207\include\xutility
; File C:\Program Files\Microsoft Visual Studio\2022\Professional\VC\Tools\MSVC\14.44.35207\include\xtree
; File C:\Program Files\Microsoft Visual Studio\2022\Professional\VC\Tools\MSVC\14.44.35207\include\xutility
; File C:\Program Files\Microsoft Visual Studio\2022\Professional\VC\Tools\MSVC\14.44.35207\include\xtree
; File C:\Program Files\Microsoft Visual Studio\2022\Professional\VC\Tools\MSVC\14.44.35207\include\xutility
; File C:\Program Files\Microsoft Visual Studio\2022\Professional\VC\Tools\MSVC\14.44.35207\include\xtree
; File C:\Program Files\Microsoft Visual Studio\2022\Professional\VC\Tools\MSVC\14.44.35207\include\xmemory
; File C:\Program Files\Microsoft Visual Studio\2022\Professional\VC\Tools\MSVC\14.44.35207\include\xtree
; File C:\Program Files\Microsoft Visual Studio\2022\Professional\VC\Tools\MSVC\14.44.35207\include\xmemory
; File C:\Program Files\Microsoft Visual Studio\2022\Professional\VC\Tools\MSVC\14.44.35207\include\xtree
;	COMDAT ?erase@?$_Tree@V?$_Tmap_traits@V?$basic_string@DU?$char_traits@D@std@@V?$allocator@D@2@@std@@PAVCGuild@@U?$less@V?$basic_string@DU?$char_traits@D@std@@V?$allocator@D@2@@std@@@2@V?$allocator@U?$pair@$$CBV?$basic_string@DU?$char_traits@D@std@@V?$allocator@D@2@@std@@PAVCGuild@@@std@@@2@$0A@@std@@@std@@QAEIABV?$basic_string@DU?$char_traits@D@std@@V?$allocator@D@2@@2@@Z
_TEXT	SEGMENT
__Off$1$ = -12						; size = 4
tv727 = -12						; size = 4
_this$1$ = -8						; size = 4
__Head$1$ = -4						; size = 4
__Keyval$ = 8						; size = 4
__First$ = 8						; size = 4
?erase@?$_Tree@V?$_Tmap_traits@V?$basic_string@DU?$char_traits@D@std@@V?$allocator@D@2@@std@@PAVCGuild@@U?$less@V?$basic_string@DU?$char_traits@D@std@@V?$allocator@D@2@@std@@@2@V?$allocator@U?$pair@$$CBV?$basic_string@DU?$char_traits@D@std@@V?$allocator@D@2@@std@@PAVCGuild@@@std@@@2@$0A@@std@@@std@@QAEIABV?$basic_string@DU?$char_traits@D@std@@V?$allocator@D@2@@2@@Z PROC ; std::_Tree<std::_Tmap_traits<std::basic_string<char,std::char_traits<char>,std::allocator<char> >,CGuild *,std::less<std::basic_string<char,std::char_traits<char>,std::allocator<char> > >,std::allocator<std::pair<std::basic_string<char,std::char_traits<char>,std::allocator<char> > const ,CGuild *> >,0> >::erase, COMDAT
; _this$ = ecx

; 1357 :     size_type erase(const key_type& _Keyval) noexcept(noexcept(_Eqrange(_Keyval))) /* strengthened */ {

  00000	55		 push	 ebp
  00001	8b ec		 mov	 ebp, esp
  00003	83 ec 0c	 sub	 esp, 12			; 0000000cH
  00006	8b c1		 mov	 eax, ecx

; 1713 :         while (!_Pnode->_Isnil) {

  00008	8b 4d 08	 mov	 ecx, DWORD PTR __Keyval$[ebp]

; 1357 :     size_type erase(const key_type& _Keyval) noexcept(noexcept(_Eqrange(_Keyval))) /* strengthened */ {

  0000b	53		 push	 ebx
  0000c	89 45 f8	 mov	 DWORD PTR _this$1$[ebp], eax
  0000f	56		 push	 esi

; 1709 :         _Nodeptr _Pnode   = _Scary->_Myhead->_Parent;

  00010	8b 00		 mov	 eax, DWORD PTR [eax]

; 1710 :         _Nodeptr _Lonode  = _Scary->_Myhead; // end() if search fails

  00012	8b f0		 mov	 esi, eax

; 1357 :     size_type erase(const key_type& _Keyval) noexcept(noexcept(_Eqrange(_Keyval))) /* strengthened */ {

  00014	57		 push	 edi

; 1709 :         _Nodeptr _Pnode   = _Scary->_Myhead->_Parent;

  00015	89 45 fc	 mov	 DWORD PTR __Head$1$[ebp], eax

; 1711 :         _Nodeptr _Hinode  = _Scary->_Myhead; // end() if search fails

  00018	8b d8		 mov	 ebx, eax
  0001a	8b 50 04	 mov	 edx, DWORD PTR [eax+4]
  0001d	8b fa		 mov	 edi, edx
  0001f	89 55 f4	 mov	 DWORD PTR tv727[ebp], edx

; 1712 : 
; 1713 :         while (!_Pnode->_Isnil) {

  00022	80 7f 0d 00	 cmp	 BYTE PTR [edi+13], 0
  00026	75 40		 jne	 SHORT $LN6@erase
$LL5@erase:

; 1714 :             const auto& _Nodekey = _Traits::_Kfn(_Pnode->_Myval);

  00028	8d 47 10	 lea	 eax, DWORD PTR [edi+16]
; File C:\Program Files\Microsoft Visual Studio\2022\Professional\VC\Tools\MSVC\14.44.35207\include\type_traits

; 2380 :         return _Left < _Right;

  0002b	51		 push	 ecx
  0002c	50		 push	 eax
  0002d	e8 00 00 00 00	 call	 ??$?MDU?$char_traits@D@std@@V?$allocator@D@1@@std@@YA_NABV?$basic_string@DU?$char_traits@D@std@@V?$allocator@D@2@@0@0@Z ; std::operator<<char,std::char_traits<char>,std::allocator<char> >
  00032	83 c4 08	 add	 esp, 8
; File C:\Program Files\Microsoft Visual Studio\2022\Professional\VC\Tools\MSVC\14.44.35207\include\xtree

; 1715 :             if (_DEBUG_LT_PRED(_Comp, _Nodekey, _Keyval)) {

  00035	84 c0		 test	 al, al
  00037	74 05		 je	 SHORT $LN9@erase

; 1716 :                 _Pnode = _Pnode->_Right; // descend right subtree

  00039	8b 7f 08	 mov	 edi, DWORD PTR [edi+8]

; 1717 :             } else { // _Pnode not less than _Keyval, remember it

  0003c	eb 1e		 jmp	 SHORT $LN10@erase
$LN9@erase:

; 1718 :                 if (_Hinode->_Isnil && _DEBUG_LT_PRED(_Comp, _Keyval, _Nodekey)) {

  0003e	80 7b 0d 00	 cmp	 BYTE PTR [ebx+13], 0
  00042	74 14		 je	 SHORT $LN11@erase
; File C:\Program Files\Microsoft Visual Studio\2022\Professional\VC\Tools\MSVC\14.44.35207\include\type_traits

; 2380 :         return _Left < _Right;

  00044	8d 47 10	 lea	 eax, DWORD PTR [edi+16]
  00047	50		 push	 eax
  00048	ff 75 08	 push	 DWORD PTR __Keyval$[ebp]
  0004b	e8 00 00 00 00	 call	 ??$?MDU?$char_traits@D@std@@V?$allocator@D@1@@std@@YA_NABV?$basic_string@DU?$char_traits@D@std@@V?$allocator@D@2@@0@0@Z ; std::operator<<char,std::char_traits<char>,std::allocator<char> >
  00050	83 c4 08	 add	 esp, 8
; File C:\Program Files\Microsoft Visual Studio\2022\Professional\VC\Tools\MSVC\14.44.35207\include\xtree

; 1718 :                 if (_Hinode->_Isnil && _DEBUG_LT_PRED(_Comp, _Keyval, _Nodekey)) {

  00053	84 c0		 test	 al, al
  00055	0f 45 df	 cmovne	 ebx, edi
$LN11@erase:

; 1719 :                     _Hinode = _Pnode; // _Pnode greater, remember it
; 1720 :                 }
; 1721 : 
; 1722 :                 _Lonode = _Pnode;

  00058	8b f7		 mov	 esi, edi

; 1723 :                 _Pnode  = _Pnode->_Left; // descend left subtree

  0005a	8b 3f		 mov	 edi, DWORD PTR [edi]
$LN10@erase:

; 1712 : 
; 1713 :         while (!_Pnode->_Isnil) {

  0005c	80 7f 0d 00	 cmp	 BYTE PTR [edi+13], 0
  00060	8b 4d 08	 mov	 ecx, DWORD PTR __Keyval$[ebp]
  00063	74 c3		 je	 SHORT $LL5@erase
  00065	8b 55 f4	 mov	 edx, DWORD PTR tv727[ebp]
$LN6@erase:

; 1724 :             }
; 1725 :         }
; 1726 : 
; 1727 :         _Pnode = _Hinode->_Isnil ? _Scary->_Myhead->_Parent : _Hinode->_Left; // continue scan for upper bound

  00068	80 7b 0d 00	 cmp	 BYTE PTR [ebx+13], 0
  0006c	8b fa		 mov	 edi, edx
  0006e	75 02		 jne	 SHORT $LN16@erase
  00070	8b 3b		 mov	 edi, DWORD PTR [ebx]
$LN16@erase:

; 1728 :         while (!_Pnode->_Isnil) {

  00072	80 7f 0d 00	 cmp	 BYTE PTR [edi+13], 0
  00076	75 23		 jne	 SHORT $LN8@erase
$LL7@erase:

; 1729 :             if (_DEBUG_LT_PRED(_Getcomp(), _Keyval, _Traits::_Kfn(_Pnode->_Myval))) {

  00078	8d 47 10	 lea	 eax, DWORD PTR [edi+16]
; File C:\Program Files\Microsoft Visual Studio\2022\Professional\VC\Tools\MSVC\14.44.35207\include\type_traits

; 2380 :         return _Left < _Right;

  0007b	50		 push	 eax
  0007c	51		 push	 ecx
  0007d	e8 00 00 00 00	 call	 ??$?MDU?$char_traits@D@std@@V?$allocator@D@1@@std@@YA_NABV?$basic_string@DU?$char_traits@D@std@@V?$allocator@D@2@@0@0@Z ; std::operator<<char,std::char_traits<char>,std::allocator<char> >
  00082	83 c4 08	 add	 esp, 8
; File C:\Program Files\Microsoft Visual Studio\2022\Professional\VC\Tools\MSVC\14.44.35207\include\xtree

; 1729 :             if (_DEBUG_LT_PRED(_Getcomp(), _Keyval, _Traits::_Kfn(_Pnode->_Myval))) {

  00085	84 c0		 test	 al, al
  00087	74 06		 je	 SHORT $LN12@erase

; 1730 :                 // _Pnode greater than _Keyval, remember it
; 1731 :                 _Hinode = _Pnode;

  00089	8b df		 mov	 ebx, edi

; 1732 :                 _Pnode  = _Pnode->_Left; // descend left subtree

  0008b	8b 3f		 mov	 edi, DWORD PTR [edi]

; 1733 :             } else {

  0008d	eb 03		 jmp	 SHORT $LN13@erase
$LN12@erase:

; 1734 :                 _Pnode = _Pnode->_Right; // descend right subtree

  0008f	8b 7f 08	 mov	 edi, DWORD PTR [edi+8]
$LN13@erase:

; 1728 :         while (!_Pnode->_Isnil) {

  00092	80 7f 0d 00	 cmp	 BYTE PTR [edi+13], 0
  00096	8b 4d 08	 mov	 ecx, DWORD PTR __Keyval$[ebp]
  00099	74 dd		 je	 SHORT $LL7@erase
$LN8@erase:
; File C:\Program Files\Microsoft Visual Studio\2022\Professional\VC\Tools\MSVC\14.44.35207\include\xutility

; 1667 :         _Iter_diff_t<_InIt> _Off = 0;

  0009b	33 ff		 xor	 edi, edi
  0009d	8b c6		 mov	 eax, esi
  0009f	89 7d f4	 mov	 DWORD PTR __Off$1$[ebp], edi
; File C:\Program Files\Microsoft Visual Studio\2022\Professional\VC\Tools\MSVC\14.44.35207\include\xtree

; 101  :         return !(*this == _Right);

  000a2	3b f3		 cmp	 esi, ebx
; File C:\Program Files\Microsoft Visual Studio\2022\Professional\VC\Tools\MSVC\14.44.35207\include\xutility

; 1668 :         for (; _UFirst != _ULast; ++_UFirst) {

  000a4	74 4d		 je	 SHORT $LN41@erase
$LL42@erase:
; File C:\Program Files\Microsoft Visual Studio\2022\Professional\VC\Tools\MSVC\14.44.35207\include\xtree

; 50   :         if (_Ptr->_Right->_Isnil) { // climb looking for right subtree

  000a6	8b 48 08	 mov	 ecx, DWORD PTR [eax+8]
; File C:\Program Files\Microsoft Visual Studio\2022\Professional\VC\Tools\MSVC\14.44.35207\include\xutility

; 1669 :             ++_Off;

  000a9	47		 inc	 edi
; File C:\Program Files\Microsoft Visual Studio\2022\Professional\VC\Tools\MSVC\14.44.35207\include\xtree

; 50   :         if (_Ptr->_Right->_Isnil) { // climb looking for right subtree

  000aa	80 79 0d 00	 cmp	 BYTE PTR [ecx+13], 0
  000ae	74 24		 je	 SHORT $LN47@erase

; 51   :             _Nodeptr _Pnode;
; 52   :             while (!(_Pnode = _Ptr->_Parent)->_Isnil && _Ptr == _Pnode->_Right) {

  000b0	8b 48 04	 mov	 ecx, DWORD PTR [eax+4]
  000b3	80 79 0d 00	 cmp	 BYTE PTR [ecx+13], 0
  000b7	75 17		 jne	 SHORT $LN156@erase
  000b9	0f 1f 80 00 00
	00 00		 npad	 7
$LL45@erase:
  000c0	3b 41 08	 cmp	 eax, DWORD PTR [ecx+8]
  000c3	75 0b		 jne	 SHORT $LN156@erase

; 53   :                 _Ptr = _Pnode; // ==> parent while right subtree

  000c5	8b c1		 mov	 eax, ecx
  000c7	8b 49 04	 mov	 ecx, DWORD PTR [ecx+4]
  000ca	80 79 0d 00	 cmp	 BYTE PTR [ecx+13], 0
  000ce	74 f0		 je	 SHORT $LL45@erase
$LN156@erase:

; 54   :             }
; 55   : 
; 56   :             _Ptr = _Pnode; // ==> parent (head if end())

  000d0	8b c1		 mov	 eax, ecx

; 57   :         } else {

  000d2	eb 18		 jmp	 SHORT $LN53@erase
$LN47@erase:

; 58   :             _Ptr = _Mytree::_Min(_Ptr->_Right); // ==> smallest of right subtree

  000d4	8b c1		 mov	 eax, ecx

; 476  :         while (!_Pnode->_Left->_Isnil) {

  000d6	8b 10		 mov	 edx, DWORD PTR [eax]
  000d8	80 7a 0d 00	 cmp	 BYTE PTR [edx+13], 0
  000dc	75 0e		 jne	 SHORT $LN53@erase
  000de	66 90		 npad	 2
$LL52@erase:
  000e0	8b 0a		 mov	 ecx, DWORD PTR [edx]

; 477  :             _Pnode = _Pnode->_Left;

  000e2	8b c2		 mov	 eax, edx
  000e4	8b d1		 mov	 edx, ecx
  000e6	80 79 0d 00	 cmp	 BYTE PTR [ecx+13], 0
  000ea	74 f4		 je	 SHORT $LL52@erase
$LN53@erase:

; 101  :         return !(*this == _Right);

  000ec	3b c3		 cmp	 eax, ebx
; File C:\Program Files\Microsoft Visual Studio\2022\Professional\VC\Tools\MSVC\14.44.35207\include\xutility

; 1668 :         for (; _UFirst != _ULast; ++_UFirst) {

  000ee	75 b6		 jne	 SHORT $LL42@erase
  000f0	89 7d f4	 mov	 DWORD PTR __Off$1$[ebp], edi
$LN41@erase:
; File C:\Program Files\Microsoft Visual Studio\2022\Professional\VC\Tools\MSVC\14.44.35207\include\xtree

; 96   :         return _Ptr == _Right._Ptr;

  000f3	8b 45 fc	 mov	 eax, DWORD PTR __Head$1$[ebp]

; 1329 :         _Erase_unchecked(_First, _Last);

  000f6	89 75 08	 mov	 DWORD PTR __First$[ebp], esi

; 96   :         return _Ptr == _Right._Ptr;

  000f9	3b 30		 cmp	 esi, DWORD PTR [eax]

; 1311 :         if (_First == _Begin && _Last._Ptr->_Isnil) {

  000fb	75 31		 jne	 SHORT $LN136@erase
  000fd	80 7b 0d 00	 cmp	 BYTE PTR [ebx+13], 0
  00101	74 2b		 je	 SHORT $LN136@erase

; 1374 :         _Scary->_Erase_tree(_Getal(), _Head->_Parent);

  00103	ff 70 04	 push	 DWORD PTR [eax+4]
  00106	8b 5d f8	 mov	 ebx, DWORD PTR _this$1$[ebp]
  00109	8b cb		 mov	 ecx, ebx
  0010b	53		 push	 ebx
  0010c	e8 00 00 00 00	 call	 ??$_Erase_tree@V?$allocator@U?$_Tree_node@U?$pair@$$CBV?$basic_string@DU?$char_traits@D@std@@V?$allocator@D@2@@std@@PAVCGuild@@@std@@PAX@std@@@std@@@?$_Tree_val@U?$_Tree_simple_types@U?$pair@$$CBV?$basic_string@DU?$char_traits@D@std@@V?$allocator@D@2@@std@@PAVCGuild@@@std@@@std@@@std@@QAEXAAV?$allocator@U?$_Tree_node@U?$pair@$$CBV?$basic_string@DU?$char_traits@D@std@@V?$allocator@D@2@@std@@PAVCGuild@@@std@@PAX@std@@@1@PAU?$_Tree_node@U?$pair@$$CBV?$basic_string@DU?$char_traits@D@std@@V?$allocator@D@2@@std@@PAVCGuild@@@std@@PAX@1@@Z ; std::_Tree_val<std::_Tree_simple_types<std::pair<std::basic_string<char,std::char_traits<char>,std::allocator<char> > const ,CGuild *> > >::_Erase_tree<std::allocator<std::_Tree_node<std::pair<std::basic_string<char,std::char_traits<char>,std::allocator<char> > const ,CGuild *>,void *> > >

; 1375 :         _Head->_Parent  = _Head;

  00111	8b 45 fc	 mov	 eax, DWORD PTR __Head$1$[ebp]
  00114	89 40 04	 mov	 DWORD PTR [eax+4], eax

; 1376 :         _Head->_Left    = _Head;

  00117	89 00		 mov	 DWORD PTR [eax], eax

; 1377 :         _Head->_Right   = _Head;

  00119	89 40 08	 mov	 DWORD PTR [eax+8], eax

; 1378 :         _Scary->_Mysize = 0;

  0011c	c7 43 04 00 00
	00 00		 mov	 DWORD PTR [ebx+4], 0
$LN155@erase:

; 1358 :         return _Erase(_Eqrange(_Keyval));
; 1359 :     }

  00123	8b c7		 mov	 eax, edi
  00125	5f		 pop	 edi
  00126	5e		 pop	 esi
  00127	5b		 pop	 ebx
  00128	8b e5		 mov	 esp, ebp
  0012a	5d		 pop	 ebp
  0012b	c2 04 00	 ret	 4
$LN136@erase:

; 101  :         return !(*this == _Right);

  0012e	3b f3		 cmp	 esi, ebx

; 1318 :         while (_First != _Last) {

  00130	74 f1		 je	 SHORT $LN155@erase
  00132	8b 7d f8	 mov	 edi, DWORD PTR _this$1$[ebp]
$LL63@erase:

; 66   :         ++*this;

  00135	8d 4d 08	 lea	 ecx, DWORD PTR __First$[ebp]
  00138	e8 00 00 00 00	 call	 ??E?$_Tree_unchecked_const_iterator@V?$_Tree_val@U?$_Tree_simple_types@U?$pair@$$CBV?$basic_string@DU?$char_traits@D@std@@V?$allocator@D@2@@std@@PAVCGuild@@@std@@@std@@@std@@U_Iterator_base0@2@@std@@QAEAAV01@XZ ; std::_Tree_unchecked_const_iterator<std::_Tree_val<std::_Tree_simple_types<std::pair<std::basic_string<char,std::char_traits<char>,std::allocator<char> > const ,CGuild *> > >,std::_Iterator_base0>::operator++

; 1303 :         _Nodeptr _Erasednode = _Scary->_Extract(_Where); // node to erase

  0013d	56		 push	 esi
  0013e	8b cf		 mov	 ecx, edi
  00140	e8 00 00 00 00	 call	 ?_Extract@?$_Tree_val@U?$_Tree_simple_types@U?$pair@$$CBV?$basic_string@DU?$char_traits@D@std@@V?$allocator@D@2@@std@@PAVCGuild@@@std@@@std@@@std@@QAEPAU?$_Tree_node@U?$pair@$$CBV?$basic_string@DU?$char_traits@D@std@@V?$allocator@D@2@@std@@PAVCGuild@@@std@@PAX@2@V?$_Tree_unchecked_const_iterator@V?$_Tree_val@U?$_Tree_simple_types@U?$pair@$$CBV?$basic_string@DU?$char_traits@D@std@@V?$allocator@D@2@@std@@PAVCGuild@@@std@@@std@@@std@@U_Iterator_base0@2@@2@@Z ; std::_Tree_val<std::_Tree_simple_types<std::pair<std::basic_string<char,std::char_traits<char>,std::allocator<char> > const ,CGuild *> > >::_Extract
  00145	8b f0		 mov	 esi, eax

; 381  :         allocator_traits<_Alloc>::destroy(_Al, _STD addressof(_Ptr->_Myval));

  00147	8d 4e 10	 lea	 ecx, DWORD PTR [esi+16]
  0014a	e8 00 00 00 00	 call	 ??1?$basic_string@DU?$char_traits@D@std@@V?$allocator@D@2@@std@@QAE@XZ ; std::basic_string<char,std::char_traits<char>,std::allocator<char> >::~basic_string<char,std::char_traits<char>,std::allocator<char> >
; File C:\Program Files\Microsoft Visual Studio\2022\Professional\VC\Tools\MSVC\14.44.35207\include\xmemory

; 289  :         ::operator delete(_Ptr, _Bytes);

  0014f	6a 2c		 push	 44			; 0000002cH
  00151	56		 push	 esi
  00152	e8 00 00 00 00	 call	 ??3@YAXPAXI@Z		; operator delete
; File C:\Program Files\Microsoft Visual Studio\2022\Professional\VC\Tools\MSVC\14.44.35207\include\xtree

; 101  :         return !(*this == _Right);

  00157	8b 75 08	 mov	 esi, DWORD PTR __First$[ebp]
; File C:\Program Files\Microsoft Visual Studio\2022\Professional\VC\Tools\MSVC\14.44.35207\include\xmemory

; 289  :         ::operator delete(_Ptr, _Bytes);

  0015a	83 c4 08	 add	 esp, 8
; File C:\Program Files\Microsoft Visual Studio\2022\Professional\VC\Tools\MSVC\14.44.35207\include\xtree

; 101  :         return !(*this == _Right);

  0015d	3b f3		 cmp	 esi, ebx

; 1318 :         while (_First != _Last) {

  0015f	75 d4		 jne	 SHORT $LL63@erase

; 1358 :         return _Erase(_Eqrange(_Keyval));
; 1359 :     }

  00161	8b 45 f4	 mov	 eax, DWORD PTR __Off$1$[ebp]
  00164	5f		 pop	 edi
  00165	5e		 pop	 esi
  00166	5b		 pop	 ebx
  00167	8b e5		 mov	 esp, ebp
  00169	5d		 pop	 ebp
  0016a	c2 04 00	 ret	 4
?erase@?$_Tree@V?$_Tmap_traits@V?$basic_string@DU?$char_traits@D@std@@V?$allocator@D@2@@std@@PAVCGuild@@U?$less@V?$basic_string@DU?$char_traits@D@std@@V?$allocator@D@2@@std@@@2@V?$allocator@U?$pair@$$CBV?$basic_string@DU?$char_traits@D@std@@V?$allocator@D@2@@std@@PAVCGuild@@@std@@@2@$0A@@std@@@std@@QAEIABV?$basic_string@DU?$char_traits@D@std@@V?$allocator@D@2@@2@@Z ENDP ; std::_Tree<std::_Tmap_traits<std::basic_string<char,std::char_traits<char>,std::allocator<char> >,CGuild *,std::less<std::basic_string<char,std::char_traits<char>,std::allocator<char> > >,std::allocator<std::pair<std::basic_string<char,std::char_traits<char>,std::allocator<char> > const ,CGuild *> >,0> >::erase
_TEXT	ENDS
; Function compile flags: /Ogtp
;	COMDAT ??1?$map@KPAVCGuild@@U?$less@K@std@@V?$allocator@U?$pair@$$CBKPAVCGuild@@@std@@@3@@std@@QAE@XZ
_TEXT	SEGMENT
??1?$map@KPAVCGuild@@U?$less@K@std@@V?$allocator@U?$pair@$$CBKPAVCGuild@@@std@@@3@@std@@QAE@XZ PROC ; std::map<unsigned long,CGuild *,std::less<unsigned long>,std::allocator<std::pair<unsigned long const ,CGuild *> > >::~map<unsigned long,CGuild *,std::less<unsigned long>,std::allocator<std::pair<unsigned long const ,CGuild *> > >, COMDAT
; _this$ = ecx
  00000	e9 00 00 00 00	 jmp	 ??1?$_Tree@V?$_Tmap_traits@KPAVCGuild@@U?$less@K@std@@V?$allocator@U?$pair@$$CBKPAVCGuild@@@std@@@3@$0A@@std@@@std@@QAE@XZ ; std::_Tree<std::_Tmap_traits<unsigned long,CGuild *,std::less<unsigned long>,std::allocator<std::pair<unsigned long const ,CGuild *> >,0> >::~_Tree<std::_Tmap_traits<unsigned long,CGuild *,std::less<unsigned long>,std::allocator<std::pair<unsigned long const ,CGuild *> >,0> >
??1?$map@KPAVCGuild@@U?$less@K@std@@V?$allocator@U?$pair@$$CBKPAVCGuild@@@std@@@3@@std@@QAE@XZ ENDP ; std::map<unsigned long,CGuild *,std::less<unsigned long>,std::allocator<std::pair<unsigned long const ,CGuild *> > >::~map<unsigned long,CGuild *,std::less<unsigned long>,std::allocator<std::pair<unsigned long const ,CGuild *> > >
_TEXT	ENDS
; Function compile flags: /Ogtp
; File C:\Program Files\Microsoft Visual Studio\2022\Professional\VC\Tools\MSVC\14.44.35207\include\xtree
;	COMDAT ?_Insert_node@?$_Tree_val@U?$_Tree_simple_types@U?$pair@$$CBKPAVCGuild@@@std@@@std@@@std@@QAEPAU?$_Tree_node@U?$pair@$$CBKPAVCGuild@@@std@@PAX@2@U?$_Tree_id@PAU?$_Tree_node@U?$pair@$$CBKPAVCGuild@@@std@@PAX@std@@@2@QAU32@@Z
_TEXT	SEGMENT
__Head$1$ = -4						; size = 4
__Loc$ = 8						; size = 8
__Newnode$ = 16						; size = 4
?_Insert_node@?$_Tree_val@U?$_Tree_simple_types@U?$pair@$$CBKPAVCGuild@@@std@@@std@@@std@@QAEPAU?$_Tree_node@U?$pair@$$CBKPAVCGuild@@@std@@PAX@2@U?$_Tree_id@PAU?$_Tree_node@U?$pair@$$CBKPAVCGuild@@@std@@PAX@std@@@2@QAU32@@Z PROC ; std::_Tree_val<std::_Tree_simple_types<std::pair<unsigned long const ,CGuild *> > >::_Insert_node, COMDAT
; _this$ = ecx

; 669  :     _Nodeptr _Insert_node(const _Tree_id<_Nodeptr> _Loc, const _Nodeptr _Newnode) noexcept {

  00000	55		 push	 ebp
  00001	8b ec		 mov	 ebp, esp
  00003	51		 push	 ecx

; 670  :         ++_Mysize;
; 671  :         const auto _Head  = _Myhead;
; 672  :         _Newnode->_Parent = _Loc._Parent;

  00004	8b 55 08	 mov	 edx, DWORD PTR __Loc$[ebp]
  00007	53		 push	 ebx
  00008	8b d9		 mov	 ebx, ecx
  0000a	57		 push	 edi
  0000b	8b 7d 10	 mov	 edi, DWORD PTR __Newnode$[ebp]
  0000e	8b 03		 mov	 eax, DWORD PTR [ebx]
  00010	ff 43 04	 inc	 DWORD PTR [ebx+4]
  00013	89 45 fc	 mov	 DWORD PTR __Head$1$[ebp], eax
  00016	89 57 04	 mov	 DWORD PTR [edi+4], edx

; 673  :         if (_Loc._Parent == _Head) { // first node in tree, just set head values

  00019	3b d0		 cmp	 edx, eax
  0001b	75 16		 jne	 SHORT $LN5@Insert_nod

; 674  :             _Head->_Left     = _Newnode;

  0001d	89 38		 mov	 DWORD PTR [eax], edi

; 675  :             _Head->_Parent   = _Newnode;

  0001f	89 78 04	 mov	 DWORD PTR [eax+4], edi

; 676  :             _Head->_Right    = _Newnode;

  00022	89 78 08	 mov	 DWORD PTR [eax+8], edi

; 735  :         return _Newnode;
; 736  :     }

  00025	8b c7		 mov	 eax, edi
  00027	c6 47 0c 01	 mov	 BYTE PTR [edi+12], 1
  0002b	5f		 pop	 edi
  0002c	5b		 pop	 ebx
  0002d	8b e5		 mov	 esp, ebp
  0002f	5d		 pop	 ebp
  00030	c2 0c 00	 ret	 12			; 0000000cH
$LN5@Insert_nod:

; 677  :             _Newnode->_Color = _Black; // the root is black
; 678  :             return _Newnode;
; 679  :         }
; 680  : 
; 681  :         _STL_INTERNAL_CHECK(_Loc._Child != _Tree_child::_Unused);
; 682  :         if (_Loc._Child == _Tree_child::_Right) { // add to right of _Loc._Parent

  00033	83 7d 0c 00	 cmp	 DWORD PTR __Loc$[ebp+4], 0
  00037	75 0d		 jne	 SHORT $LN6@Insert_nod

; 683  :             _STL_INTERNAL_CHECK(_Loc._Parent->_Right->_Isnil);
; 684  :             _Loc._Parent->_Right = _Newnode;

  00039	89 7a 08	 mov	 DWORD PTR [edx+8], edi

; 685  :             if (_Loc._Parent == _Head->_Right) { // remember rightmost node

  0003c	3b 50 08	 cmp	 edx, DWORD PTR [eax+8]
  0003f	75 0d		 jne	 SHORT $LN9@Insert_nod

; 686  :                 _Head->_Right = _Newnode;

  00041	89 78 08	 mov	 DWORD PTR [eax+8], edi

; 687  :             }
; 688  :         } else { // add to left of _Loc._Parent

  00044	eb 08		 jmp	 SHORT $LN9@Insert_nod
$LN6@Insert_nod:

; 689  :             _STL_INTERNAL_CHECK(_Loc._Parent->_Left->_Isnil);
; 690  :             _Loc._Parent->_Left = _Newnode;

  00046	89 3a		 mov	 DWORD PTR [edx], edi

; 691  :             if (_Loc._Parent == _Head->_Left) { // remember leftmost node

  00048	3b 10		 cmp	 edx, DWORD PTR [eax]
  0004a	75 02		 jne	 SHORT $LN9@Insert_nod

; 692  :                 _Head->_Left = _Newnode;

  0004c	89 38		 mov	 DWORD PTR [eax], edi
$LN9@Insert_nod:

; 693  :             }
; 694  :         }
; 695  : 
; 696  :         for (_Nodeptr _Pnode = _Newnode; _Pnode->_Parent->_Color == _Red;) {

  0004e	8b 4f 04	 mov	 ecx, DWORD PTR [edi+4]
  00051	8b c7		 mov	 eax, edi
  00053	80 79 0c 00	 cmp	 BYTE PTR [ecx+12], 0
  00057	0f 85 7d 01 00
	00		 jne	 $LN3@Insert_nod
  0005d	56		 push	 esi
  0005e	66 90		 npad	 2
$LL4@Insert_nod:

; 697  :             if (_Pnode->_Parent == _Pnode->_Parent->_Parent->_Left) { // fixup red-red in left subtree

  00060	8b 50 04	 mov	 edx, DWORD PTR [eax+4]
  00063	8b 72 04	 mov	 esi, DWORD PTR [edx+4]
  00066	8b 0e		 mov	 ecx, DWORD PTR [esi]
  00068	3b d1		 cmp	 edx, ecx
  0006a	0f 85 aa 00 00
	00		 jne	 $LN10@Insert_nod

; 698  :                 const auto _Parent_sibling = _Pnode->_Parent->_Parent->_Right;

  00070	8b 4e 08	 mov	 ecx, DWORD PTR [esi+8]

; 699  :                 if (_Parent_sibling->_Color == _Red) { // parent's sibling has two red children, blacken both

  00073	80 79 0c 00	 cmp	 BYTE PTR [ecx+12], 0
  00077	0f 84 a3 00 00
	00		 je	 $LN82@Insert_nod

; 700  :                     _Pnode->_Parent->_Color          = _Black;
; 701  :                     _Parent_sibling->_Color          = _Black;
; 702  :                     _Pnode->_Parent->_Parent->_Color = _Red;
; 703  :                     _Pnode                           = _Pnode->_Parent->_Parent;
; 704  :                 } else { // parent's sibling has red and black children
; 705  :                     if (_Pnode == _Pnode->_Parent->_Right) { // rotate right child to left

  0007d	8b 72 08	 mov	 esi, DWORD PTR [edx+8]
  00080	3b c6		 cmp	 eax, esi
  00082	75 37		 jne	 SHORT $LN57@Insert_nod

; 485  :         _Wherenode->_Right = _Pnode->_Left;

  00084	8b 0e		 mov	 ecx, DWORD PTR [esi]

; 706  :                         _Pnode = _Pnode->_Parent;

  00086	8b c2		 mov	 eax, edx

; 485  :         _Wherenode->_Right = _Pnode->_Left;

  00088	89 4a 08	 mov	 DWORD PTR [edx+8], ecx

; 486  : 
; 487  :         if (!_Pnode->_Left->_Isnil) {

  0008b	8b 0e		 mov	 ecx, DWORD PTR [esi]
  0008d	80 79 0d 00	 cmp	 BYTE PTR [ecx+13], 0
  00091	75 03		 jne	 SHORT $LN21@Insert_nod

; 488  :             _Pnode->_Left->_Parent = _Wherenode;

  00093	89 41 04	 mov	 DWORD PTR [ecx+4], eax
$LN21@Insert_nod:

; 489  :         }
; 490  : 
; 491  :         _Pnode->_Parent = _Wherenode->_Parent;

  00096	8b 4a 04	 mov	 ecx, DWORD PTR [edx+4]
  00099	89 4e 04	 mov	 DWORD PTR [esi+4], ecx

; 492  : 
; 493  :         if (_Wherenode == _Myhead->_Parent) {

  0009c	8b 0b		 mov	 ecx, DWORD PTR [ebx]
  0009e	3b 41 04	 cmp	 eax, DWORD PTR [ecx+4]
  000a1	75 05		 jne	 SHORT $LN22@Insert_nod

; 494  :             _Myhead->_Parent = _Pnode;

  000a3	89 71 04	 mov	 DWORD PTR [ecx+4], esi
  000a6	eb 0e		 jmp	 SHORT $LN25@Insert_nod
$LN22@Insert_nod:

; 495  :         } else if (_Wherenode == _Wherenode->_Parent->_Left) {

  000a8	8b 4a 04	 mov	 ecx, DWORD PTR [edx+4]
  000ab	3b 01		 cmp	 eax, DWORD PTR [ecx]
  000ad	75 04		 jne	 SHORT $LN24@Insert_nod

; 496  :             _Wherenode->_Parent->_Left = _Pnode;

  000af	89 31		 mov	 DWORD PTR [ecx], esi

; 497  :         } else {

  000b1	eb 03		 jmp	 SHORT $LN25@Insert_nod
$LN24@Insert_nod:

; 498  :             _Wherenode->_Parent->_Right = _Pnode;

  000b3	89 71 08	 mov	 DWORD PTR [ecx+8], esi
$LN25@Insert_nod:

; 499  :         }
; 500  : 
; 501  :         _Pnode->_Left       = _Wherenode;

  000b6	89 06		 mov	 DWORD PTR [esi], eax

; 502  :         _Wherenode->_Parent = _Pnode;

  000b8	89 70 04	 mov	 DWORD PTR [eax+4], esi
$LN57@Insert_nod:

; 707  :                         _Lrotate(_Pnode);
; 708  :                     }
; 709  : 
; 710  :                     _Pnode->_Parent->_Color          = _Black; // propagate red up

  000bb	8b 48 04	 mov	 ecx, DWORD PTR [eax+4]
  000be	c6 41 0c 01	 mov	 BYTE PTR [ecx+12], 1

; 711  :                     _Pnode->_Parent->_Parent->_Color = _Red;

  000c2	8b 48 04	 mov	 ecx, DWORD PTR [eax+4]
  000c5	8b 49 04	 mov	 ecx, DWORD PTR [ecx+4]
  000c8	c6 41 0c 00	 mov	 BYTE PTR [ecx+12], 0

; 712  :                     _Rrotate(_Pnode->_Parent->_Parent);

  000cc	8b 48 04	 mov	 ecx, DWORD PTR [eax+4]
  000cf	8b 51 04	 mov	 edx, DWORD PTR [ecx+4]

; 506  :         _Nodeptr _Pnode   = _Wherenode->_Left;

  000d2	8b 32		 mov	 esi, DWORD PTR [edx]

; 507  :         _Wherenode->_Left = _Pnode->_Right;

  000d4	8b 4e 08	 mov	 ecx, DWORD PTR [esi+8]
  000d7	89 0a		 mov	 DWORD PTR [edx], ecx

; 508  : 
; 509  :         if (!_Pnode->_Right->_Isnil) {

  000d9	8b 4e 08	 mov	 ecx, DWORD PTR [esi+8]
  000dc	80 79 0d 00	 cmp	 BYTE PTR [ecx+13], 0
  000e0	75 03		 jne	 SHORT $LN29@Insert_nod

; 510  :             _Pnode->_Right->_Parent = _Wherenode;

  000e2	89 51 04	 mov	 DWORD PTR [ecx+4], edx
$LN29@Insert_nod:

; 511  :         }
; 512  : 
; 513  :         _Pnode->_Parent = _Wherenode->_Parent;

  000e5	8b 4a 04	 mov	 ecx, DWORD PTR [edx+4]
  000e8	89 4e 04	 mov	 DWORD PTR [esi+4], ecx

; 514  : 
; 515  :         if (_Wherenode == _Myhead->_Parent) {

  000eb	8b 0b		 mov	 ecx, DWORD PTR [ebx]
  000ed	3b 51 04	 cmp	 edx, DWORD PTR [ecx+4]
  000f0	75 0b		 jne	 SHORT $LN30@Insert_nod

; 516  :             _Myhead->_Parent = _Pnode;

  000f2	89 71 04	 mov	 DWORD PTR [ecx+4], esi

; 521  :         }
; 522  : 
; 523  :         _Pnode->_Right      = _Wherenode;

  000f5	89 56 08	 mov	 DWORD PTR [esi+8], edx

; 713  :                 }
; 714  :             } else { // fixup red-red in right subtree

  000f8	e9 cc 00 00 00	 jmp	 $LN81@Insert_nod
$LN30@Insert_nod:

; 517  :         } else if (_Wherenode == _Wherenode->_Parent->_Right) {

  000fd	8b 4a 04	 mov	 ecx, DWORD PTR [edx+4]
  00100	3b 51 08	 cmp	 edx, DWORD PTR [ecx+8]
  00103	75 0b		 jne	 SHORT $LN32@Insert_nod

; 518  :             _Wherenode->_Parent->_Right = _Pnode;

  00105	89 71 08	 mov	 DWORD PTR [ecx+8], esi

; 521  :         }
; 522  : 
; 523  :         _Pnode->_Right      = _Wherenode;

  00108	89 56 08	 mov	 DWORD PTR [esi+8], edx

; 713  :                 }
; 714  :             } else { // fixup red-red in right subtree

  0010b	e9 b9 00 00 00	 jmp	 $LN81@Insert_nod
$LN32@Insert_nod:

; 520  :             _Wherenode->_Parent->_Left = _Pnode;

  00110	89 31		 mov	 DWORD PTR [ecx], esi

; 521  :         }
; 522  : 
; 523  :         _Pnode->_Right      = _Wherenode;

  00112	89 56 08	 mov	 DWORD PTR [esi+8], edx

; 713  :                 }
; 714  :             } else { // fixup red-red in right subtree

  00115	e9 af 00 00 00	 jmp	 $LN81@Insert_nod
$LN10@Insert_nod:

; 715  :                 const auto _Parent_sibling = _Pnode->_Parent->_Parent->_Left;
; 716  :                 if (_Parent_sibling->_Color == _Red) { // parent's sibling has two red children, blacken both

  0011a	80 79 0c 00	 cmp	 BYTE PTR [ecx+12], 0
  0011e	75 1d		 jne	 SHORT $LN15@Insert_nod
$LN82@Insert_nod:

; 693  :             }
; 694  :         }
; 695  : 
; 696  :         for (_Nodeptr _Pnode = _Newnode; _Pnode->_Parent->_Color == _Red;) {

  00120	c6 42 0c 01	 mov	 BYTE PTR [edx+12], 1
  00124	c6 41 0c 01	 mov	 BYTE PTR [ecx+12], 1
  00128	8b 48 04	 mov	 ecx, DWORD PTR [eax+4]
  0012b	8b 49 04	 mov	 ecx, DWORD PTR [ecx+4]
  0012e	c6 41 0c 00	 mov	 BYTE PTR [ecx+12], 0
  00132	8b 48 04	 mov	 ecx, DWORD PTR [eax+4]
  00135	8b 41 04	 mov	 eax, DWORD PTR [ecx+4]
  00138	e9 8f 00 00 00	 jmp	 $LN2@Insert_nod
$LN15@Insert_nod:

; 717  :                     _Pnode->_Parent->_Color          = _Black;
; 718  :                     _Parent_sibling->_Color          = _Black;
; 719  :                     _Pnode->_Parent->_Parent->_Color = _Red;
; 720  :                     _Pnode                           = _Pnode->_Parent->_Parent;
; 721  :                 } else { // parent's sibling has red and black children
; 722  :                     if (_Pnode == _Pnode->_Parent->_Left) { // rotate left child to right

  0013d	8b 32		 mov	 esi, DWORD PTR [edx]
  0013f	3b c6		 cmp	 eax, esi
  00141	75 3a		 jne	 SHORT $LN42@Insert_nod

; 507  :         _Wherenode->_Left = _Pnode->_Right;

  00143	8b 4e 08	 mov	 ecx, DWORD PTR [esi+8]

; 723  :                         _Pnode = _Pnode->_Parent;

  00146	8b c2		 mov	 eax, edx

; 507  :         _Wherenode->_Left = _Pnode->_Right;

  00148	89 08		 mov	 DWORD PTR [eax], ecx

; 508  : 
; 509  :         if (!_Pnode->_Right->_Isnil) {

  0014a	8b 4e 08	 mov	 ecx, DWORD PTR [esi+8]
  0014d	80 79 0d 00	 cmp	 BYTE PTR [ecx+13], 0
  00151	75 03		 jne	 SHORT $LN37@Insert_nod

; 510  :             _Pnode->_Right->_Parent = _Wherenode;

  00153	89 41 04	 mov	 DWORD PTR [ecx+4], eax
$LN37@Insert_nod:

; 511  :         }
; 512  : 
; 513  :         _Pnode->_Parent = _Wherenode->_Parent;

  00156	8b 4a 04	 mov	 ecx, DWORD PTR [edx+4]
  00159	89 4e 04	 mov	 DWORD PTR [esi+4], ecx

; 514  : 
; 515  :         if (_Wherenode == _Myhead->_Parent) {

  0015c	8b 0b		 mov	 ecx, DWORD PTR [ebx]
  0015e	3b 41 04	 cmp	 eax, DWORD PTR [ecx+4]
  00161	75 05		 jne	 SHORT $LN38@Insert_nod

; 516  :             _Myhead->_Parent = _Pnode;

  00163	89 71 04	 mov	 DWORD PTR [ecx+4], esi
  00166	eb 0f		 jmp	 SHORT $LN41@Insert_nod
$LN38@Insert_nod:

; 517  :         } else if (_Wherenode == _Wherenode->_Parent->_Right) {

  00168	8b 4a 04	 mov	 ecx, DWORD PTR [edx+4]
  0016b	3b 41 08	 cmp	 eax, DWORD PTR [ecx+8]
  0016e	75 05		 jne	 SHORT $LN40@Insert_nod

; 518  :             _Wherenode->_Parent->_Right = _Pnode;

  00170	89 71 08	 mov	 DWORD PTR [ecx+8], esi

; 519  :         } else {

  00173	eb 02		 jmp	 SHORT $LN41@Insert_nod
$LN40@Insert_nod:

; 520  :             _Wherenode->_Parent->_Left = _Pnode;

  00175	89 31		 mov	 DWORD PTR [ecx], esi
$LN41@Insert_nod:

; 521  :         }
; 522  : 
; 523  :         _Pnode->_Right      = _Wherenode;

  00177	89 46 08	 mov	 DWORD PTR [esi+8], eax

; 524  :         _Wherenode->_Parent = _Pnode;

  0017a	89 70 04	 mov	 DWORD PTR [eax+4], esi
$LN42@Insert_nod:

; 724  :                         _Rrotate(_Pnode);
; 725  :                     }
; 726  : 
; 727  :                     _Pnode->_Parent->_Color          = _Black; // propagate red up

  0017d	8b 48 04	 mov	 ecx, DWORD PTR [eax+4]
  00180	c6 41 0c 01	 mov	 BYTE PTR [ecx+12], 1

; 728  :                     _Pnode->_Parent->_Parent->_Color = _Red;

  00184	8b 48 04	 mov	 ecx, DWORD PTR [eax+4]
  00187	8b 49 04	 mov	 ecx, DWORD PTR [ecx+4]
  0018a	c6 41 0c 00	 mov	 BYTE PTR [ecx+12], 0

; 729  :                     _Lrotate(_Pnode->_Parent->_Parent);

  0018e	8b 48 04	 mov	 ecx, DWORD PTR [eax+4]
  00191	8b 51 04	 mov	 edx, DWORD PTR [ecx+4]

; 484  :         _Nodeptr _Pnode    = _Wherenode->_Right;

  00194	8b 72 08	 mov	 esi, DWORD PTR [edx+8]

; 485  :         _Wherenode->_Right = _Pnode->_Left;

  00197	8b 0e		 mov	 ecx, DWORD PTR [esi]
  00199	89 4a 08	 mov	 DWORD PTR [edx+8], ecx

; 486  : 
; 487  :         if (!_Pnode->_Left->_Isnil) {

  0019c	8b 0e		 mov	 ecx, DWORD PTR [esi]
  0019e	80 79 0d 00	 cmp	 BYTE PTR [ecx+13], 0
  001a2	75 03		 jne	 SHORT $LN45@Insert_nod

; 488  :             _Pnode->_Left->_Parent = _Wherenode;

  001a4	89 51 04	 mov	 DWORD PTR [ecx+4], edx
$LN45@Insert_nod:

; 489  :         }
; 490  : 
; 491  :         _Pnode->_Parent = _Wherenode->_Parent;

  001a7	8b 4a 04	 mov	 ecx, DWORD PTR [edx+4]
  001aa	89 4e 04	 mov	 DWORD PTR [esi+4], ecx

; 492  : 
; 493  :         if (_Wherenode == _Myhead->_Parent) {

  001ad	8b 0b		 mov	 ecx, DWORD PTR [ebx]
  001af	3b 51 04	 cmp	 edx, DWORD PTR [ecx+4]
  001b2	75 05		 jne	 SHORT $LN46@Insert_nod

; 494  :             _Myhead->_Parent = _Pnode;

  001b4	89 71 04	 mov	 DWORD PTR [ecx+4], esi
  001b7	eb 0e		 jmp	 SHORT $LN49@Insert_nod
$LN46@Insert_nod:

; 495  :         } else if (_Wherenode == _Wherenode->_Parent->_Left) {

  001b9	8b 4a 04	 mov	 ecx, DWORD PTR [edx+4]
  001bc	3b 11		 cmp	 edx, DWORD PTR [ecx]
  001be	75 04		 jne	 SHORT $LN48@Insert_nod

; 496  :             _Wherenode->_Parent->_Left = _Pnode;

  001c0	89 31		 mov	 DWORD PTR [ecx], esi

; 497  :         } else {

  001c2	eb 03		 jmp	 SHORT $LN49@Insert_nod
$LN48@Insert_nod:

; 498  :             _Wherenode->_Parent->_Right = _Pnode;

  001c4	89 71 08	 mov	 DWORD PTR [ecx+8], esi
$LN49@Insert_nod:

; 499  :         }
; 500  : 
; 501  :         _Pnode->_Left       = _Wherenode;

  001c7	89 16		 mov	 DWORD PTR [esi], edx
$LN81@Insert_nod:

; 693  :             }
; 694  :         }
; 695  : 
; 696  :         for (_Nodeptr _Pnode = _Newnode; _Pnode->_Parent->_Color == _Red;) {

  001c9	89 72 04	 mov	 DWORD PTR [edx+4], esi
$LN2@Insert_nod:
  001cc	8b 48 04	 mov	 ecx, DWORD PTR [eax+4]
  001cf	80 79 0c 00	 cmp	 BYTE PTR [ecx+12], 0
  001d3	0f 84 87 fe ff
	ff		 je	 $LL4@Insert_nod
  001d9	5e		 pop	 esi
$LN3@Insert_nod:

; 730  :                 }
; 731  :             }
; 732  :         }
; 733  : 
; 734  :         _Head->_Parent->_Color = _Black; // root is always black

  001da	8b 45 fc	 mov	 eax, DWORD PTR __Head$1$[ebp]
  001dd	8b 40 04	 mov	 eax, DWORD PTR [eax+4]
  001e0	c6 40 0c 01	 mov	 BYTE PTR [eax+12], 1

; 735  :         return _Newnode;
; 736  :     }

  001e4	8b c7		 mov	 eax, edi
  001e6	5f		 pop	 edi
  001e7	5b		 pop	 ebx
  001e8	8b e5		 mov	 esp, ebp
  001ea	5d		 pop	 ebp
  001eb	c2 0c 00	 ret	 12			; 0000000cH
?_Insert_node@?$_Tree_val@U?$_Tree_simple_types@U?$pair@$$CBKPAVCGuild@@@std@@@std@@@std@@QAEPAU?$_Tree_node@U?$pair@$$CBKPAVCGuild@@@std@@PAX@2@U?$_Tree_id@PAU?$_Tree_node@U?$pair@$$CBKPAVCGuild@@@std@@PAX@std@@@2@QAU32@@Z ENDP ; std::_Tree_val<std::_Tree_simple_types<std::pair<unsigned long const ,CGuild *> > >::_Insert_node
_TEXT	ENDS
; Function compile flags: /Ogtp
; File C:\Program Files\Microsoft Visual Studio\2022\Professional\VC\Tools\MSVC\14.44.35207\include\xtree
; File C:\Program Files\Microsoft Visual Studio\2022\Professional\VC\Tools\MSVC\14.44.35207\include\utility
; File C:\Program Files\Microsoft Visual Studio\2022\Professional\VC\Tools\MSVC\14.44.35207\include\xtree
;	COMDAT ?_Extract@?$_Tree_val@U?$_Tree_simple_types@U?$pair@$$CBKPAVCGuild@@@std@@@std@@@std@@QAEPAU?$_Tree_node@U?$pair@$$CBKPAVCGuild@@@std@@PAX@2@V?$_Tree_unchecked_const_iterator@V?$_Tree_val@U?$_Tree_simple_types@U?$pair@$$CBKPAVCGuild@@@std@@@std@@@std@@U_Iterator_base0@2@@2@@Z
_TEXT	SEGMENT
tv1039 = -16						; size = 4
tv1073 = -12						; size = 4
tv1093 = -12						; size = 4
$T1 = -12						; size = 4
__Erasednode$1$ = -8					; size = 4
_this$1$ = -4						; size = 4
__Where$ = 8						; size = 4
?_Extract@?$_Tree_val@U?$_Tree_simple_types@U?$pair@$$CBKPAVCGuild@@@std@@@std@@@std@@QAEPAU?$_Tree_node@U?$pair@$$CBKPAVCGuild@@@std@@PAX@2@V?$_Tree_unchecked_const_iterator@V?$_Tree_val@U?$_Tree_simple_types@U?$pair@$$CBKPAVCGuild@@@std@@@std@@@std@@U_Iterator_base0@2@@2@@Z PROC ; std::_Tree_val<std::_Tree_simple_types<std::pair<unsigned long const ,CGuild *> > >::_Extract, COMDAT
; _this$ = ecx

; 527  :     _Nodeptr _Extract(_Unchecked_const_iterator _Where) noexcept {

  00000	55		 push	 ebp
  00001	8b ec		 mov	 ebp, esp
  00003	83 ec 10	 sub	 esp, 16			; 00000010H

; 528  :         _Nodeptr _Erasednode = _Where._Ptr; // node to erase

  00006	8b 45 08	 mov	 eax, DWORD PTR __Where$[ebp]
  00009	53		 push	 ebx
  0000a	56		 push	 esi
  0000b	8b d9		 mov	 ebx, ecx
  0000d	89 45 f8	 mov	 DWORD PTR __Erasednode$1$[ebp], eax
  00010	57		 push	 edi

; 529  :         ++_Where; // save successor iterator for return

  00011	8d 4d 08	 lea	 ecx, DWORD PTR __Where$[ebp]
  00014	89 5d fc	 mov	 DWORD PTR _this$1$[ebp], ebx
  00017	e8 00 00 00 00	 call	 ??E?$_Tree_unchecked_const_iterator@V?$_Tree_val@U?$_Tree_simple_types@U?$pair@$$CBKPAVCGuild@@@std@@@std@@@std@@U_Iterator_base0@2@@std@@QAEAAV01@XZ ; std::_Tree_unchecked_const_iterator<std::_Tree_val<std::_Tree_simple_types<std::pair<unsigned long const ,CGuild *> > >,std::_Iterator_base0>::operator++

; 530  : 
; 531  :         _Nodeptr _Fixnode; // the node to recolor as needed
; 532  :         _Nodeptr _Fixnodeparent; // parent of _Fixnode (which may be nil)
; 533  :         _Nodeptr _Pnode = _Erasednode;
; 534  : 
; 535  :         if (_Pnode->_Left->_Isnil) {

  0001c	8b 4d f8	 mov	 ecx, DWORD PTR __Erasednode$1$[ebp]
  0001f	8b 01		 mov	 eax, DWORD PTR [ecx]
  00021	8b 79 08	 mov	 edi, DWORD PTR [ecx+8]
  00024	80 78 0d 00	 cmp	 BYTE PTR [eax+13], 0
  00028	75 18		 jne	 SHORT $LN94@Extract

; 536  :             _Fixnode = _Pnode->_Right; // stitch up right subtree
; 537  :         } else if (_Pnode->_Right->_Isnil) {

  0002a	80 7f 0d 00	 cmp	 BYTE PTR [edi+13], 0
  0002e	74 04		 je	 SHORT $LN7@Extract

; 538  :             _Fixnode = _Pnode->_Left; // stitch up left subtree

  00030	8b f8		 mov	 edi, eax

; 539  :         } else { // two subtrees, must lift successor node to replace erased

  00032	eb 0e		 jmp	 SHORT $LN94@Extract
$LN7@Extract:

; 540  :             _Pnode   = _Where._Ptr; // _Pnode is successor node

  00034	8b 55 08	 mov	 edx, DWORD PTR __Where$[ebp]

; 541  :             _Fixnode = _Pnode->_Right; // _Fixnode is only subtree

  00037	8b 7a 08	 mov	 edi, DWORD PTR [edx+8]
  0003a	3b d1		 cmp	 edx, ecx

; 542  :         }
; 543  : 
; 544  :         if (_Pnode == _Erasednode) { // at most one subtree, relink it

  0003c	0f 85 91 00 00
	00		 jne	 $LN9@Extract
$LN94@Extract:

; 545  :             _Fixnodeparent = _Erasednode->_Parent;
; 546  :             if (!_Fixnode->_Isnil) {

  00042	80 7f 0d 00	 cmp	 BYTE PTR [edi+13], 0
  00046	8b 71 04	 mov	 esi, DWORD PTR [ecx+4]
  00049	75 03		 jne	 SHORT $LN11@Extract

; 547  :                 _Fixnode->_Parent = _Fixnodeparent; // link up

  0004b	89 77 04	 mov	 DWORD PTR [edi+4], esi
$LN11@Extract:

; 548  :             }
; 549  : 
; 550  :             if (_Myhead->_Parent == _Erasednode) {

  0004e	8b 03		 mov	 eax, DWORD PTR [ebx]
  00050	39 48 04	 cmp	 DWORD PTR [eax+4], ecx
  00053	75 05		 jne	 SHORT $LN12@Extract

; 551  :                 _Myhead->_Parent = _Fixnode; // link down from root

  00055	89 78 04	 mov	 DWORD PTR [eax+4], edi
  00058	eb 0b		 jmp	 SHORT $LN15@Extract
$LN12@Extract:

; 552  :             } else if (_Fixnodeparent->_Left == _Erasednode) {

  0005a	39 0e		 cmp	 DWORD PTR [esi], ecx
  0005c	75 04		 jne	 SHORT $LN14@Extract

; 553  :                 _Fixnodeparent->_Left = _Fixnode; // link down to left

  0005e	89 3e		 mov	 DWORD PTR [esi], edi

; 554  :             } else {

  00060	eb 03		 jmp	 SHORT $LN15@Extract
$LN14@Extract:

; 555  :                 _Fixnodeparent->_Right = _Fixnode; // link down to right

  00062	89 7e 08	 mov	 DWORD PTR [esi+8], edi
$LN15@Extract:

; 556  :             }
; 557  : 
; 558  :             if (_Myhead->_Left == _Erasednode) {

  00065	8b 03		 mov	 eax, DWORD PTR [ebx]
  00067	39 08		 cmp	 DWORD PTR [eax], ecx
  00069	75 28		 jne	 SHORT $LN16@Extract

; 559  :                 _Myhead->_Left = _Fixnode->_Isnil ? _Fixnodeparent // smallest is parent of erased node

  0006b	80 7f 0d 00	 cmp	 BYTE PTR [edi+13], 0
  0006f	74 04		 je	 SHORT $LN42@Extract
  00071	8b d6		 mov	 edx, esi
  00073	eb 1c		 jmp	 SHORT $LN43@Extract
$LN42@Extract:

; 476  :         while (!_Pnode->_Left->_Isnil) {

  00075	8b 0f		 mov	 ecx, DWORD PTR [edi]

; 559  :                 _Myhead->_Left = _Fixnode->_Isnil ? _Fixnodeparent // smallest is parent of erased node

  00077	8b d7		 mov	 edx, edi

; 476  :         while (!_Pnode->_Left->_Isnil) {

  00079	80 79 0d 00	 cmp	 BYTE PTR [ecx+13], 0
  0007d	75 0f		 jne	 SHORT $LN49@Extract
  0007f	90		 npad	 1
$LL48@Extract:
  00080	8b 01		 mov	 eax, DWORD PTR [ecx]

; 477  :             _Pnode = _Pnode->_Left;

  00082	8b d1		 mov	 edx, ecx
  00084	8b c8		 mov	 ecx, eax
  00086	80 78 0d 00	 cmp	 BYTE PTR [eax+13], 0
  0008a	74 f4		 je	 SHORT $LL48@Extract
  0008c	8b 03		 mov	 eax, DWORD PTR [ebx]
$LN49@Extract:
  0008e	8b 4d f8	 mov	 ecx, DWORD PTR __Erasednode$1$[ebp]
$LN43@Extract:

; 559  :                 _Myhead->_Left = _Fixnode->_Isnil ? _Fixnodeparent // smallest is parent of erased node

  00091	89 10		 mov	 DWORD PTR [eax], edx
$LN16@Extract:

; 560  :                                                   : _Min(_Fixnode); // smallest in relinked subtree
; 561  :             }
; 562  : 
; 563  :             if (_Myhead->_Right == _Erasednode) {

  00093	8b 13		 mov	 edx, DWORD PTR [ebx]
  00095	39 4a 08	 cmp	 DWORD PTR [edx+8], ecx
  00098	75 34		 jne	 SHORT $LN17@Extract

; 564  :                 _Myhead->_Right = _Fixnode->_Isnil ? _Fixnodeparent // largest is parent of erased node

  0009a	80 7f 0d 00	 cmp	 BYTE PTR [edi+13], 0
  0009e	74 0d		 je	 SHORT $LN44@Extract

; 565  :                                                    : _Max(_Fixnode); // largest in relinked subtree
; 566  :             }
; 567  :         } else { // erased has two subtrees, _Pnode is successor to erased

  000a0	8b 45 f8	 mov	 eax, DWORD PTR __Erasednode$1$[ebp]
  000a3	8b ce		 mov	 ecx, esi
  000a5	89 4a 08	 mov	 DWORD PTR [edx+8], ecx
  000a8	e9 94 00 00 00	 jmp	 $LN58@Extract
$LN44@Extract:

; 468  :         while (!_Pnode->_Right->_Isnil) {

  000ad	8b 47 08	 mov	 eax, DWORD PTR [edi+8]

; 564  :                 _Myhead->_Right = _Fixnode->_Isnil ? _Fixnodeparent // largest is parent of erased node

  000b0	8b cf		 mov	 ecx, edi

; 468  :         while (!_Pnode->_Right->_Isnil) {

  000b2	80 78 0d 00	 cmp	 BYTE PTR [eax+13], 0
  000b6	75 13		 jne	 SHORT $LN54@Extract
  000b8	0f 1f 84 00 00
	00 00 00	 npad	 8
$LL53@Extract:

; 469  :             _Pnode = _Pnode->_Right;

  000c0	8b c8		 mov	 ecx, eax
  000c2	8b 41 08	 mov	 eax, DWORD PTR [ecx+8]
  000c5	80 78 0d 00	 cmp	 BYTE PTR [eax+13], 0
  000c9	74 f5		 je	 SHORT $LL53@Extract
$LN54@Extract:

; 564  :                 _Myhead->_Right = _Fixnode->_Isnil ? _Fixnodeparent // largest is parent of erased node

  000cb	89 4a 08	 mov	 DWORD PTR [edx+8], ecx
$LN17@Extract:

; 565  :                                                    : _Max(_Fixnode); // largest in relinked subtree
; 566  :             }
; 567  :         } else { // erased has two subtrees, _Pnode is successor to erased

  000ce	8b 45 f8	 mov	 eax, DWORD PTR __Erasednode$1$[ebp]
  000d1	eb 6e		 jmp	 SHORT $LN58@Extract
$LN9@Extract:

; 568  :             _Erasednode->_Left->_Parent = _Pnode; // link left up

  000d3	89 50 04	 mov	 DWORD PTR [eax+4], edx

; 569  :             _Pnode->_Left               = _Erasednode->_Left; // link successor down

  000d6	8b 01		 mov	 eax, DWORD PTR [ecx]
  000d8	89 02		 mov	 DWORD PTR [edx], eax

; 570  : 
; 571  :             if (_Pnode == _Erasednode->_Right) {

  000da	8d 42 04	 lea	 eax, DWORD PTR [edx+4]
  000dd	89 45 f4	 mov	 DWORD PTR $T1[ebp], eax
  000e0	3b 51 08	 cmp	 edx, DWORD PTR [ecx+8]
  000e3	75 04		 jne	 SHORT $LN18@Extract

; 572  :                 _Fixnodeparent = _Pnode; // successor is next to erased

  000e5	8b f2		 mov	 esi, edx

; 573  :             } else { // successor further down, link in place of erased

  000e7	eb 1f		 jmp	 SHORT $LN19@Extract
$LN18@Extract:

; 574  :                 _Fixnodeparent = _Pnode->_Parent; // parent is successor's
; 575  :                 if (!_Fixnode->_Isnil) {

  000e9	80 7f 0d 00	 cmp	 BYTE PTR [edi+13], 0
  000ed	8b 30		 mov	 esi, DWORD PTR [eax]
  000ef	75 03		 jne	 SHORT $LN20@Extract

; 576  :                     _Fixnode->_Parent = _Fixnodeparent; // link fix up

  000f1	89 77 04	 mov	 DWORD PTR [edi+4], esi
$LN20@Extract:

; 577  :                 }
; 578  : 
; 579  :                 _Fixnodeparent->_Left        = _Fixnode; // link fix down

  000f4	89 3e		 mov	 DWORD PTR [esi], edi

; 580  :                 _Pnode->_Right               = _Erasednode->_Right; // link next down

  000f6	8b 41 08	 mov	 eax, DWORD PTR [ecx+8]
  000f9	89 42 08	 mov	 DWORD PTR [edx+8], eax

; 581  :                 _Erasednode->_Right->_Parent = _Pnode; // right up

  000fc	8b 41 08	 mov	 eax, DWORD PTR [ecx+8]
  000ff	89 50 04	 mov	 DWORD PTR [eax+4], edx
  00102	8d 42 04	 lea	 eax, DWORD PTR [edx+4]
  00105	89 45 f4	 mov	 DWORD PTR $T1[ebp], eax
$LN19@Extract:

; 582  :             }
; 583  : 
; 584  :             if (_Myhead->_Parent == _Erasednode) {

  00108	8b 03		 mov	 eax, DWORD PTR [ebx]
  0010a	39 48 04	 cmp	 DWORD PTR [eax+4], ecx
  0010d	75 05		 jne	 SHORT $LN21@Extract

; 585  :                 _Myhead->_Parent = _Pnode; // link down from root

  0010f	89 50 04	 mov	 DWORD PTR [eax+4], edx
  00112	eb 0e		 jmp	 SHORT $LN141@Extract
$LN21@Extract:

; 586  :             } else if (_Erasednode->_Parent->_Left == _Erasednode) {

  00114	8b 41 04	 mov	 eax, DWORD PTR [ecx+4]
  00117	39 08		 cmp	 DWORD PTR [eax], ecx
  00119	75 04		 jne	 SHORT $LN23@Extract

; 587  :                 _Erasednode->_Parent->_Left = _Pnode; // link down to left

  0011b	89 10		 mov	 DWORD PTR [eax], edx

; 588  :             } else {

  0011d	eb 03		 jmp	 SHORT $LN141@Extract
$LN23@Extract:

; 589  :                 _Erasednode->_Parent->_Right = _Pnode; // link down to right

  0011f	89 50 08	 mov	 DWORD PTR [eax+8], edx
$LN141@Extract:

; 590  :             }
; 591  : 
; 592  :             _Pnode->_Parent = _Erasednode->_Parent; // link successor up

  00122	b8 04 00 00 00	 mov	 eax, 4
  00127	8b 04 08	 mov	 eax, DWORD PTR [eax+ecx]
  0012a	8b 4d f4	 mov	 ecx, DWORD PTR $T1[ebp]
  0012d	89 01		 mov	 DWORD PTR [ecx], eax
; File C:\Program Files\Microsoft Visual Studio\2022\Professional\VC\Tools\MSVC\14.44.35207\include\utility

; 140  :     _Left    = _STD move(_Right);

  0012f	8b 45 f8	 mov	 eax, DWORD PTR __Erasednode$1$[ebp]
  00132	8a 4a 0c	 mov	 cl, BYTE PTR [edx+12]
  00135	8a 40 0c	 mov	 al, BYTE PTR [eax+12]
  00138	88 42 0c	 mov	 BYTE PTR [edx+12], al

; 141  :     _Right   = _STD move(_Tmp);

  0013b	8b 45 f8	 mov	 eax, DWORD PTR __Erasednode$1$[ebp]
  0013e	88 48 0c	 mov	 BYTE PTR [eax+12], cl
$LN58@Extract:
; File C:\Program Files\Microsoft Visual Studio\2022\Professional\VC\Tools\MSVC\14.44.35207\include\xtree

; 596  :         if (_Erasednode->_Color == _Black) { // erasing black link, must recolor/rebalance tree

  00141	80 78 0c 01	 cmp	 BYTE PTR [eax+12], 1
  00145	0f 85 ba 01 00
	00		 jne	 $LN25@Extract

; 597  :             for (; _Fixnode != _Myhead->_Parent && _Fixnode->_Color == _Black; _Fixnodeparent = _Fixnode->_Parent) {

  0014b	8b 03		 mov	 eax, DWORD PTR [ebx]
  0014d	3b 78 04	 cmp	 edi, DWORD PTR [eax+4]
  00150	0f 84 a8 01 00
	00		 je	 $LN3@Extract
  00156	80 7f 0c 01	 cmp	 BYTE PTR [edi+12], 1
  0015a	89 75 f4	 mov	 DWORD PTR tv1093[ebp], esi
  0015d	0f 85 9b 01 00
	00		 jne	 $LN3@Extract
$LL4@Extract:

; 598  :                 if (_Fixnode == _Fixnodeparent->_Left) { // fixup left subtree

  00163	8b 0e		 mov	 ecx, DWORD PTR [esi]
  00165	3b f9		 cmp	 edi, ecx
  00167	0f 85 be 00 00
	00		 jne	 $LN26@Extract

; 599  :                     _Pnode = _Fixnodeparent->_Right;

  0016d	8b 4e 08	 mov	 ecx, DWORD PTR [esi+8]

; 600  :                     if (_Pnode->_Color == _Red) { // rotate red up from right subtree

  00170	80 79 0c 00	 cmp	 BYTE PTR [ecx+12], 0
  00174	75 54		 jne	 SHORT $LN95@Extract

; 601  :                         _Pnode->_Color         = _Black;

  00176	c6 41 0c 01	 mov	 BYTE PTR [ecx+12], 1

; 484  :         _Nodeptr _Pnode    = _Wherenode->_Right;

  0017a	8b 4e 08	 mov	 ecx, DWORD PTR [esi+8]

; 602  :                         _Fixnodeparent->_Color = _Red;

  0017d	c6 46 0c 00	 mov	 BYTE PTR [esi+12], 0

; 485  :         _Wherenode->_Right = _Pnode->_Left;

  00181	8b 01		 mov	 eax, DWORD PTR [ecx]
  00183	89 46 08	 mov	 DWORD PTR [esi+8], eax

; 486  : 
; 487  :         if (!_Pnode->_Left->_Isnil) {

  00186	8b 01		 mov	 eax, DWORD PTR [ecx]
  00188	80 78 0d 00	 cmp	 BYTE PTR [eax+13], 0
  0018c	75 03		 jne	 SHORT $LN61@Extract

; 488  :             _Pnode->_Left->_Parent = _Wherenode;

  0018e	89 70 04	 mov	 DWORD PTR [eax+4], esi
$LN61@Extract:

; 489  :         }
; 490  : 
; 491  :         _Pnode->_Parent = _Wherenode->_Parent;

  00191	8b 46 04	 mov	 eax, DWORD PTR [esi+4]
  00194	8d 56 04	 lea	 edx, DWORD PTR [esi+4]
  00197	89 41 04	 mov	 DWORD PTR [ecx+4], eax

; 492  : 
; 493  :         if (_Wherenode == _Myhead->_Parent) {

  0019a	8b 03		 mov	 eax, DWORD PTR [ebx]
  0019c	3b 70 04	 cmp	 esi, DWORD PTR [eax+4]
  0019f	75 0c		 jne	 SHORT $LN62@Extract

; 494  :             _Myhead->_Parent = _Pnode;

  001a1	89 48 04	 mov	 DWORD PTR [eax+4], ecx

; 499  :         }
; 500  : 
; 501  :         _Pnode->_Left       = _Wherenode;

  001a4	89 31		 mov	 DWORD PTR [ecx], esi

; 502  :         _Wherenode->_Parent = _Pnode;

  001a6	89 0a		 mov	 DWORD PTR [edx], ecx

; 603  :                         _Lrotate(_Fixnodeparent);
; 604  :                         _Pnode = _Fixnodeparent->_Right;

  001a8	8b 4e 08	 mov	 ecx, DWORD PTR [esi+8]
  001ab	eb 20		 jmp	 SHORT $LN87@Extract
$LN62@Extract:

; 495  :         } else if (_Wherenode == _Wherenode->_Parent->_Left) {

  001ad	8b 02		 mov	 eax, DWORD PTR [edx]
  001af	3b 30		 cmp	 esi, DWORD PTR [eax]
  001b1	75 0b		 jne	 SHORT $LN64@Extract

; 496  :             _Wherenode->_Parent->_Left = _Pnode;

  001b3	89 08		 mov	 DWORD PTR [eax], ecx

; 499  :         }
; 500  : 
; 501  :         _Pnode->_Left       = _Wherenode;

  001b5	89 31		 mov	 DWORD PTR [ecx], esi

; 502  :         _Wherenode->_Parent = _Pnode;

  001b7	89 0a		 mov	 DWORD PTR [edx], ecx

; 603  :                         _Lrotate(_Fixnodeparent);
; 604  :                         _Pnode = _Fixnodeparent->_Right;

  001b9	8b 4e 08	 mov	 ecx, DWORD PTR [esi+8]
  001bc	eb 0f		 jmp	 SHORT $LN87@Extract
$LN64@Extract:

; 498  :             _Wherenode->_Parent->_Right = _Pnode;

  001be	89 48 08	 mov	 DWORD PTR [eax+8], ecx

; 499  :         }
; 500  : 
; 501  :         _Pnode->_Left       = _Wherenode;

  001c1	89 31		 mov	 DWORD PTR [ecx], esi

; 502  :         _Wherenode->_Parent = _Pnode;

  001c3	89 0a		 mov	 DWORD PTR [edx], ecx

; 603  :                         _Lrotate(_Fixnodeparent);
; 604  :                         _Pnode = _Fixnodeparent->_Right;

  001c5	8b 4e 08	 mov	 ecx, DWORD PTR [esi+8]
  001c8	eb 03		 jmp	 SHORT $LN87@Extract
$LN95@Extract:
  001ca	8d 56 04	 lea	 edx, DWORD PTR [esi+4]
$LN87@Extract:

; 605  :                     }
; 606  : 
; 607  :                     if (_Pnode->_Isnil) {

  001cd	80 79 0d 00	 cmp	 BYTE PTR [ecx+13], 0
  001d1	0f 85 d0 00 00
	00		 jne	 $LN2@Extract

; 608  :                         _Fixnode = _Fixnodeparent; // shouldn't happen
; 609  :                     } else if (_Pnode->_Left->_Color == _Black
; 610  :                                && _Pnode->_Right->_Color == _Black) { // redden right subtree with black children

  001d7	8b 01		 mov	 eax, DWORD PTR [ecx]
  001d9	80 78 0c 01	 cmp	 BYTE PTR [eax+12], 1
  001dd	75 0d		 jne	 SHORT $LN97@Extract
  001df	8b 41 08	 mov	 eax, DWORD PTR [ecx+8]
  001e2	80 78 0c 01	 cmp	 BYTE PTR [eax+12], 1
  001e6	0f 84 b4 00 00
	00		 je	 $LN142@Extract
$LN97@Extract:

; 611  :                         _Pnode->_Color = _Red;
; 612  :                         _Fixnode       = _Fixnodeparent;
; 613  :                     } else { // must rearrange right subtree
; 614  :                         if (_Pnode->_Right->_Color == _Black) { // rotate red up from left sub-subtree

  001ec	8b 41 08	 mov	 eax, DWORD PTR [ecx+8]
  001ef	8b 5d fc	 mov	 ebx, DWORD PTR _this$1$[ebp]
  001f2	80 78 0c 01	 cmp	 BYTE PTR [eax+12], 1
  001f6	75 15		 jne	 SHORT $LN33@Extract

; 615  :                             _Pnode->_Left->_Color = _Black;

  001f8	8b 01		 mov	 eax, DWORD PTR [ecx]

; 616  :                             _Pnode->_Color        = _Red;
; 617  :                             _Rrotate(_Pnode);

  001fa	51		 push	 ecx
  001fb	c6 40 0c 01	 mov	 BYTE PTR [eax+12], 1
  001ff	c6 41 0c 00	 mov	 BYTE PTR [ecx+12], 0
  00203	8b cb		 mov	 ecx, ebx
  00205	e8 00 00 00 00	 call	 ?_Rrotate@?$_Tree_val@U?$_Tree_simple_types@U?$pair@$$CBKPAVCGuild@@@std@@@std@@@std@@QAEXPAU?$_Tree_node@U?$pair@$$CBKPAVCGuild@@@std@@PAX@2@@Z ; std::_Tree_val<std::_Tree_simple_types<std::pair<unsigned long const ,CGuild *> > >::_Rrotate

; 618  :                             _Pnode = _Fixnodeparent->_Right;

  0020a	8b 4e 08	 mov	 ecx, DWORD PTR [esi+8]
$LN33@Extract:

; 619  :                         }
; 620  : 
; 621  :                         _Pnode->_Color         = _Fixnodeparent->_Color;

  0020d	8a 46 0c	 mov	 al, BYTE PTR [esi+12]
  00210	88 41 0c	 mov	 BYTE PTR [ecx+12], al

; 622  :                         _Fixnodeparent->_Color = _Black;

  00213	c6 46 0c 01	 mov	 BYTE PTR [esi+12], 1

; 623  :                         _Pnode->_Right->_Color = _Black;

  00217	8b 41 08	 mov	 eax, DWORD PTR [ecx+8]

; 624  :                         _Lrotate(_Fixnodeparent);

  0021a	8b cb		 mov	 ecx, ebx
  0021c	56		 push	 esi
  0021d	c6 40 0c 01	 mov	 BYTE PTR [eax+12], 1
  00221	e8 00 00 00 00	 call	 ?_Lrotate@?$_Tree_val@U?$_Tree_simple_types@U?$pair@$$CBKPAVCGuild@@@std@@@std@@@std@@QAEXPAU?$_Tree_node@U?$pair@$$CBKPAVCGuild@@@std@@PAX@2@@Z ; std::_Tree_val<std::_Tree_simple_types<std::pair<unsigned long const ,CGuild *> > >::_Lrotate

; 625  :                         break; // tree now recolored/rebalanced

  00226	e9 d3 00 00 00	 jmp	 $LN3@Extract
$LN26@Extract:

; 626  :                     }
; 627  :                 } else { // fixup right subtree
; 628  :                     _Pnode = _Fixnodeparent->_Left;
; 629  :                     if (_Pnode->_Color == _Red) { // rotate red up from left subtree

  0022b	80 79 0c 00	 cmp	 BYTE PTR [ecx+12], 0
  0022f	75 55		 jne	 SHORT $LN96@Extract

; 630  :                         _Pnode->_Color         = _Black;

  00231	c6 41 0c 01	 mov	 BYTE PTR [ecx+12], 1

; 506  :         _Nodeptr _Pnode   = _Wherenode->_Left;

  00235	8b 0e		 mov	 ecx, DWORD PTR [esi]

; 631  :                         _Fixnodeparent->_Color = _Red;

  00237	c6 46 0c 00	 mov	 BYTE PTR [esi+12], 0

; 507  :         _Wherenode->_Left = _Pnode->_Right;

  0023b	8b 41 08	 mov	 eax, DWORD PTR [ecx+8]
  0023e	89 06		 mov	 DWORD PTR [esi], eax

; 508  : 
; 509  :         if (!_Pnode->_Right->_Isnil) {

  00240	8b 41 08	 mov	 eax, DWORD PTR [ecx+8]
  00243	80 78 0d 00	 cmp	 BYTE PTR [eax+13], 0
  00247	75 03		 jne	 SHORT $LN69@Extract

; 510  :             _Pnode->_Right->_Parent = _Wherenode;

  00249	89 70 04	 mov	 DWORD PTR [eax+4], esi
$LN69@Extract:

; 511  :         }
; 512  : 
; 513  :         _Pnode->_Parent = _Wherenode->_Parent;

  0024c	8b 46 04	 mov	 eax, DWORD PTR [esi+4]
  0024f	8d 56 04	 lea	 edx, DWORD PTR [esi+4]
  00252	89 41 04	 mov	 DWORD PTR [ecx+4], eax

; 514  : 
; 515  :         if (_Wherenode == _Myhead->_Parent) {

  00255	8b 03		 mov	 eax, DWORD PTR [ebx]
  00257	3b 70 04	 cmp	 esi, DWORD PTR [eax+4]
  0025a	75 0c		 jne	 SHORT $LN70@Extract

; 516  :             _Myhead->_Parent = _Pnode;

  0025c	89 48 04	 mov	 DWORD PTR [eax+4], ecx

; 521  :         }
; 522  : 
; 523  :         _Pnode->_Right      = _Wherenode;

  0025f	89 71 08	 mov	 DWORD PTR [ecx+8], esi

; 524  :         _Wherenode->_Parent = _Pnode;

  00262	89 0a		 mov	 DWORD PTR [edx], ecx

; 632  :                         _Rrotate(_Fixnodeparent);
; 633  :                         _Pnode = _Fixnodeparent->_Left;

  00264	8b 0e		 mov	 ecx, DWORD PTR [esi]
  00266	eb 21		 jmp	 SHORT $LN86@Extract
$LN70@Extract:

; 517  :         } else if (_Wherenode == _Wherenode->_Parent->_Right) {

  00268	8b 02		 mov	 eax, DWORD PTR [edx]
  0026a	3b 70 08	 cmp	 esi, DWORD PTR [eax+8]
  0026d	75 0c		 jne	 SHORT $LN72@Extract

; 518  :             _Wherenode->_Parent->_Right = _Pnode;

  0026f	89 48 08	 mov	 DWORD PTR [eax+8], ecx

; 521  :         }
; 522  : 
; 523  :         _Pnode->_Right      = _Wherenode;

  00272	89 71 08	 mov	 DWORD PTR [ecx+8], esi

; 524  :         _Wherenode->_Parent = _Pnode;

  00275	89 0a		 mov	 DWORD PTR [edx], ecx

; 632  :                         _Rrotate(_Fixnodeparent);
; 633  :                         _Pnode = _Fixnodeparent->_Left;

  00277	8b 0e		 mov	 ecx, DWORD PTR [esi]
  00279	eb 0e		 jmp	 SHORT $LN86@Extract
$LN72@Extract:

; 520  :             _Wherenode->_Parent->_Left = _Pnode;

  0027b	89 08		 mov	 DWORD PTR [eax], ecx

; 521  :         }
; 522  : 
; 523  :         _Pnode->_Right      = _Wherenode;

  0027d	89 71 08	 mov	 DWORD PTR [ecx+8], esi

; 524  :         _Wherenode->_Parent = _Pnode;

  00280	89 0a		 mov	 DWORD PTR [edx], ecx

; 632  :                         _Rrotate(_Fixnodeparent);
; 633  :                         _Pnode = _Fixnodeparent->_Left;

  00282	8b 0e		 mov	 ecx, DWORD PTR [esi]
  00284	eb 03		 jmp	 SHORT $LN86@Extract
$LN96@Extract:
  00286	8d 56 04	 lea	 edx, DWORD PTR [esi+4]
$LN86@Extract:

; 634  :                     }
; 635  : 
; 636  :                     if (_Pnode->_Isnil) {

  00289	80 79 0d 00	 cmp	 BYTE PTR [ecx+13], 0
  0028d	75 18		 jne	 SHORT $LN2@Extract

; 637  :                         _Fixnode = _Fixnodeparent; // shouldn't happen
; 638  :                     } else if (_Pnode->_Right->_Color == _Black
; 639  :                                && _Pnode->_Left->_Color == _Black) { // redden left subtree with black children

  0028f	8b 59 08	 mov	 ebx, DWORD PTR [ecx+8]
  00292	80 7b 0c 01	 cmp	 BYTE PTR [ebx+12], 1
  00296	75 2c		 jne	 SHORT $LN98@Extract
  00298	8b 01		 mov	 eax, DWORD PTR [ecx]
  0029a	80 78 0c 01	 cmp	 BYTE PTR [eax+12], 1
  0029e	75 24		 jne	 SHORT $LN98@Extract
$LN142@Extract:

; 597  :             for (; _Fixnode != _Myhead->_Parent && _Fixnode->_Color == _Black; _Fixnodeparent = _Fixnode->_Parent) {

  002a0	8b 5d fc	 mov	 ebx, DWORD PTR _this$1$[ebp]
  002a3	c6 41 0c 00	 mov	 BYTE PTR [ecx+12], 0
$LN2@Extract:
  002a7	8b 03		 mov	 eax, DWORD PTR [ebx]
  002a9	8b 4d f4	 mov	 ecx, DWORD PTR tv1093[ebp]
  002ac	8b f9		 mov	 edi, ecx
  002ae	8b 32		 mov	 esi, DWORD PTR [edx]
  002b0	3b 48 04	 cmp	 ecx, DWORD PTR [eax+4]
  002b3	74 49		 je	 SHORT $LN3@Extract
  002b5	80 7f 0c 01	 cmp	 BYTE PTR [edi+12], 1
  002b9	89 75 f4	 mov	 DWORD PTR tv1093[ebp], esi
  002bc	0f 84 a1 fe ff
	ff		 je	 $LL4@Extract
  002c2	eb 3a		 jmp	 SHORT $LN3@Extract
$LN98@Extract:

; 640  :                         _Pnode->_Color = _Red;
; 641  :                         _Fixnode       = _Fixnodeparent;
; 642  :                     } else { // must rearrange left subtree
; 643  :                         if (_Pnode->_Left->_Color == _Black) { // rotate red up from right sub-subtree

  002c4	8b 01		 mov	 eax, DWORD PTR [ecx]
  002c6	80 78 0c 01	 cmp	 BYTE PTR [eax+12], 1
  002ca	75 17		 jne	 SHORT $LN101@Extract

; 644  :                             _Pnode->_Right->_Color = _Black;

  002cc	c6 43 0c 01	 mov	 BYTE PTR [ebx+12], 1

; 645  :                             _Pnode->_Color         = _Red;
; 646  :                             _Lrotate(_Pnode);

  002d0	8b 5d fc	 mov	 ebx, DWORD PTR _this$1$[ebp]
  002d3	c6 41 0c 00	 mov	 BYTE PTR [ecx+12], 0
  002d7	51		 push	 ecx
  002d8	8b cb		 mov	 ecx, ebx
  002da	e8 00 00 00 00	 call	 ?_Lrotate@?$_Tree_val@U?$_Tree_simple_types@U?$pair@$$CBKPAVCGuild@@@std@@@std@@@std@@QAEXPAU?$_Tree_node@U?$pair@$$CBKPAVCGuild@@@std@@PAX@2@@Z ; std::_Tree_val<std::_Tree_simple_types<std::pair<unsigned long const ,CGuild *> > >::_Lrotate

; 647  :                             _Pnode = _Fixnodeparent->_Left;

  002df	8b 0e		 mov	 ecx, DWORD PTR [esi]
  002e1	eb 03		 jmp	 SHORT $LN39@Extract
$LN101@Extract:

; 640  :                         _Pnode->_Color = _Red;
; 641  :                         _Fixnode       = _Fixnodeparent;
; 642  :                     } else { // must rearrange left subtree
; 643  :                         if (_Pnode->_Left->_Color == _Black) { // rotate red up from right sub-subtree

  002e3	8b 5d fc	 mov	 ebx, DWORD PTR _this$1$[ebp]
$LN39@Extract:

; 648  :                         }
; 649  : 
; 650  :                         _Pnode->_Color         = _Fixnodeparent->_Color;

  002e6	8a 46 0c	 mov	 al, BYTE PTR [esi+12]
  002e9	88 41 0c	 mov	 BYTE PTR [ecx+12], al

; 651  :                         _Fixnodeparent->_Color = _Black;

  002ec	c6 46 0c 01	 mov	 BYTE PTR [esi+12], 1

; 652  :                         _Pnode->_Left->_Color  = _Black;

  002f0	8b 01		 mov	 eax, DWORD PTR [ecx]

; 653  :                         _Rrotate(_Fixnodeparent);

  002f2	8b cb		 mov	 ecx, ebx
  002f4	56		 push	 esi
  002f5	c6 40 0c 01	 mov	 BYTE PTR [eax+12], 1
  002f9	e8 00 00 00 00	 call	 ?_Rrotate@?$_Tree_val@U?$_Tree_simple_types@U?$pair@$$CBKPAVCGuild@@@std@@@std@@@std@@QAEXPAU?$_Tree_node@U?$pair@$$CBKPAVCGuild@@@std@@PAX@2@@Z ; std::_Tree_val<std::_Tree_simple_types<std::pair<unsigned long const ,CGuild *> > >::_Rrotate
$LN3@Extract:

; 654  :                         break; // tree now recolored/rebalanced
; 655  :                     }
; 656  :                 }
; 657  :             }
; 658  : 
; 659  :             _Fixnode->_Color = _Black; // stopping node is black

  002fe	8b 45 f8	 mov	 eax, DWORD PTR __Erasednode$1$[ebp]
  00301	c6 47 0c 01	 mov	 BYTE PTR [edi+12], 1
$LN25@Extract:

; 660  :         }
; 661  : 
; 662  :         if (0 < _Mysize) {

  00305	8b 4b 04	 mov	 ecx, DWORD PTR [ebx+4]
  00308	85 c9		 test	 ecx, ecx
  0030a	74 04		 je	 SHORT $LN40@Extract

; 663  :             --_Mysize;

  0030c	49		 dec	 ecx
  0030d	89 4b 04	 mov	 DWORD PTR [ebx+4], ecx
$LN40@Extract:

; 664  :         }
; 665  : 
; 666  :         return _Erasednode;
; 667  :     }

  00310	5f		 pop	 edi
  00311	5e		 pop	 esi
  00312	5b		 pop	 ebx
  00313	8b e5		 mov	 esp, ebp
  00315	5d		 pop	 ebp
  00316	c2 04 00	 ret	 4
?_Extract@?$_Tree_val@U?$_Tree_simple_types@U?$pair@$$CBKPAVCGuild@@@std@@@std@@@std@@QAEPAU?$_Tree_node@U?$pair@$$CBKPAVCGuild@@@std@@PAX@2@V?$_Tree_unchecked_const_iterator@V?$_Tree_val@U?$_Tree_simple_types@U?$pair@$$CBKPAVCGuild@@@std@@@std@@@std@@U_Iterator_base0@2@@2@@Z ENDP ; std::_Tree_val<std::_Tree_simple_types<std::pair<unsigned long const ,CGuild *> > >::_Extract
_TEXT	ENDS
; Function compile flags: /Ogtp
; File C:\Program Files\Microsoft Visual Studio\2022\Professional\VC\Tools\MSVC\14.44.35207\include\xtree
;	COMDAT ?_Rrotate@?$_Tree_val@U?$_Tree_simple_types@U?$pair@$$CBKPAVCGuild@@@std@@@std@@@std@@QAEXPAU?$_Tree_node@U?$pair@$$CBKPAVCGuild@@@std@@PAX@2@@Z
_TEXT	SEGMENT
__Wherenode$ = 8					; size = 4
?_Rrotate@?$_Tree_val@U?$_Tree_simple_types@U?$pair@$$CBKPAVCGuild@@@std@@@std@@@std@@QAEXPAU?$_Tree_node@U?$pair@$$CBKPAVCGuild@@@std@@PAX@2@@Z PROC ; std::_Tree_val<std::_Tree_simple_types<std::pair<unsigned long const ,CGuild *> > >::_Rrotate, COMDAT
; _this$ = ecx

; 505  :     void _Rrotate(_Nodeptr _Wherenode) noexcept { // promote left node to root of subtree

  00000	55		 push	 ebp
  00001	8b ec		 mov	 ebp, esp

; 506  :         _Nodeptr _Pnode   = _Wherenode->_Left;

  00003	8b 55 08	 mov	 edx, DWORD PTR __Wherenode$[ebp]
  00006	56		 push	 esi
  00007	8b 32		 mov	 esi, DWORD PTR [edx]

; 507  :         _Wherenode->_Left = _Pnode->_Right;

  00009	8b 46 08	 mov	 eax, DWORD PTR [esi+8]
  0000c	89 02		 mov	 DWORD PTR [edx], eax

; 508  : 
; 509  :         if (!_Pnode->_Right->_Isnil) {

  0000e	8b 46 08	 mov	 eax, DWORD PTR [esi+8]
  00011	80 78 0d 00	 cmp	 BYTE PTR [eax+13], 0
  00015	75 03		 jne	 SHORT $LN2@Rrotate

; 510  :             _Pnode->_Right->_Parent = _Wherenode;

  00017	89 50 04	 mov	 DWORD PTR [eax+4], edx
$LN2@Rrotate:

; 511  :         }
; 512  : 
; 513  :         _Pnode->_Parent = _Wherenode->_Parent;

  0001a	8b 42 04	 mov	 eax, DWORD PTR [edx+4]
  0001d	89 46 04	 mov	 DWORD PTR [esi+4], eax

; 514  : 
; 515  :         if (_Wherenode == _Myhead->_Parent) {

  00020	8b 01		 mov	 eax, DWORD PTR [ecx]
  00022	3b 50 04	 cmp	 edx, DWORD PTR [eax+4]
  00025	75 0e		 jne	 SHORT $LN3@Rrotate

; 516  :             _Myhead->_Parent = _Pnode;

  00027	89 70 04	 mov	 DWORD PTR [eax+4], esi

; 521  :         }
; 522  : 
; 523  :         _Pnode->_Right      = _Wherenode;
; 524  :         _Wherenode->_Parent = _Pnode;
; 525  :     }

  0002a	89 56 08	 mov	 DWORD PTR [esi+8], edx
  0002d	89 72 04	 mov	 DWORD PTR [edx+4], esi
  00030	5e		 pop	 esi
  00031	5d		 pop	 ebp
  00032	c2 04 00	 ret	 4
$LN3@Rrotate:

; 517  :         } else if (_Wherenode == _Wherenode->_Parent->_Right) {

  00035	8b 42 04	 mov	 eax, DWORD PTR [edx+4]
  00038	3b 50 08	 cmp	 edx, DWORD PTR [eax+8]
  0003b	75 0e		 jne	 SHORT $LN5@Rrotate

; 518  :             _Wherenode->_Parent->_Right = _Pnode;

  0003d	89 70 08	 mov	 DWORD PTR [eax+8], esi

; 521  :         }
; 522  : 
; 523  :         _Pnode->_Right      = _Wherenode;
; 524  :         _Wherenode->_Parent = _Pnode;
; 525  :     }

  00040	89 56 08	 mov	 DWORD PTR [esi+8], edx
  00043	89 72 04	 mov	 DWORD PTR [edx+4], esi
  00046	5e		 pop	 esi
  00047	5d		 pop	 ebp
  00048	c2 04 00	 ret	 4
$LN5@Rrotate:

; 519  :         } else {
; 520  :             _Wherenode->_Parent->_Left = _Pnode;

  0004b	89 30		 mov	 DWORD PTR [eax], esi

; 521  :         }
; 522  : 
; 523  :         _Pnode->_Right      = _Wherenode;
; 524  :         _Wherenode->_Parent = _Pnode;
; 525  :     }

  0004d	89 56 08	 mov	 DWORD PTR [esi+8], edx
  00050	89 72 04	 mov	 DWORD PTR [edx+4], esi
  00053	5e		 pop	 esi
  00054	5d		 pop	 ebp
  00055	c2 04 00	 ret	 4
?_Rrotate@?$_Tree_val@U?$_Tree_simple_types@U?$pair@$$CBKPAVCGuild@@@std@@@std@@@std@@QAEXPAU?$_Tree_node@U?$pair@$$CBKPAVCGuild@@@std@@PAX@2@@Z ENDP ; std::_Tree_val<std::_Tree_simple_types<std::pair<unsigned long const ,CGuild *> > >::_Rrotate
_TEXT	ENDS
; Function compile flags: /Ogtp
; File C:\Program Files\Microsoft Visual Studio\2022\Professional\VC\Tools\MSVC\14.44.35207\include\xtree
;	COMDAT ?_Lrotate@?$_Tree_val@U?$_Tree_simple_types@U?$pair@$$CBKPAVCGuild@@@std@@@std@@@std@@QAEXPAU?$_Tree_node@U?$pair@$$CBKPAVCGuild@@@std@@PAX@2@@Z
_TEXT	SEGMENT
__Wherenode$ = 8					; size = 4
?_Lrotate@?$_Tree_val@U?$_Tree_simple_types@U?$pair@$$CBKPAVCGuild@@@std@@@std@@@std@@QAEXPAU?$_Tree_node@U?$pair@$$CBKPAVCGuild@@@std@@PAX@2@@Z PROC ; std::_Tree_val<std::_Tree_simple_types<std::pair<unsigned long const ,CGuild *> > >::_Lrotate, COMDAT
; _this$ = ecx

; 483  :     void _Lrotate(_Nodeptr _Wherenode) noexcept { // promote right node to root of subtree

  00000	55		 push	 ebp
  00001	8b ec		 mov	 ebp, esp

; 484  :         _Nodeptr _Pnode    = _Wherenode->_Right;

  00003	8b 55 08	 mov	 edx, DWORD PTR __Wherenode$[ebp]
  00006	56		 push	 esi
  00007	8b 72 08	 mov	 esi, DWORD PTR [edx+8]

; 485  :         _Wherenode->_Right = _Pnode->_Left;

  0000a	8b 06		 mov	 eax, DWORD PTR [esi]
  0000c	89 42 08	 mov	 DWORD PTR [edx+8], eax

; 486  : 
; 487  :         if (!_Pnode->_Left->_Isnil) {

  0000f	8b 06		 mov	 eax, DWORD PTR [esi]
  00011	80 78 0d 00	 cmp	 BYTE PTR [eax+13], 0
  00015	75 03		 jne	 SHORT $LN2@Lrotate

; 488  :             _Pnode->_Left->_Parent = _Wherenode;

  00017	89 50 04	 mov	 DWORD PTR [eax+4], edx
$LN2@Lrotate:

; 489  :         }
; 490  : 
; 491  :         _Pnode->_Parent = _Wherenode->_Parent;

  0001a	8b 42 04	 mov	 eax, DWORD PTR [edx+4]
  0001d	89 46 04	 mov	 DWORD PTR [esi+4], eax

; 492  : 
; 493  :         if (_Wherenode == _Myhead->_Parent) {

  00020	8b 01		 mov	 eax, DWORD PTR [ecx]
  00022	3b 50 04	 cmp	 edx, DWORD PTR [eax+4]
  00025	75 0d		 jne	 SHORT $LN3@Lrotate

; 494  :             _Myhead->_Parent = _Pnode;

  00027	89 70 04	 mov	 DWORD PTR [eax+4], esi

; 499  :         }
; 500  : 
; 501  :         _Pnode->_Left       = _Wherenode;
; 502  :         _Wherenode->_Parent = _Pnode;
; 503  :     }

  0002a	89 16		 mov	 DWORD PTR [esi], edx
  0002c	89 72 04	 mov	 DWORD PTR [edx+4], esi
  0002f	5e		 pop	 esi
  00030	5d		 pop	 ebp
  00031	c2 04 00	 ret	 4
$LN3@Lrotate:

; 495  :         } else if (_Wherenode == _Wherenode->_Parent->_Left) {

  00034	8b 42 04	 mov	 eax, DWORD PTR [edx+4]
  00037	3b 10		 cmp	 edx, DWORD PTR [eax]
  00039	75 0c		 jne	 SHORT $LN5@Lrotate

; 496  :             _Wherenode->_Parent->_Left = _Pnode;

  0003b	89 30		 mov	 DWORD PTR [eax], esi

; 499  :         }
; 500  : 
; 501  :         _Pnode->_Left       = _Wherenode;
; 502  :         _Wherenode->_Parent = _Pnode;
; 503  :     }

  0003d	89 16		 mov	 DWORD PTR [esi], edx
  0003f	89 72 04	 mov	 DWORD PTR [edx+4], esi
  00042	5e		 pop	 esi
  00043	5d		 pop	 ebp
  00044	c2 04 00	 ret	 4
$LN5@Lrotate:

; 497  :         } else {
; 498  :             _Wherenode->_Parent->_Right = _Pnode;

  00047	89 70 08	 mov	 DWORD PTR [eax+8], esi

; 499  :         }
; 500  : 
; 501  :         _Pnode->_Left       = _Wherenode;
; 502  :         _Wherenode->_Parent = _Pnode;
; 503  :     }

  0004a	89 16		 mov	 DWORD PTR [esi], edx
  0004c	89 72 04	 mov	 DWORD PTR [edx+4], esi
  0004f	5e		 pop	 esi
  00050	5d		 pop	 ebp
  00051	c2 04 00	 ret	 4
?_Lrotate@?$_Tree_val@U?$_Tree_simple_types@U?$pair@$$CBKPAVCGuild@@@std@@@std@@@std@@QAEXPAU?$_Tree_node@U?$pair@$$CBKPAVCGuild@@@std@@PAX@2@@Z ENDP ; std::_Tree_val<std::_Tree_simple_types<std::pair<unsigned long const ,CGuild *> > >::_Lrotate
_TEXT	ENDS
; Function compile flags: /Ogtp
; File C:\Program Files\Microsoft Visual Studio\2022\Professional\VC\Tools\MSVC\14.44.35207\include\xtree
; File C:\Program Files\Microsoft Visual Studio\2022\Professional\VC\Tools\MSVC\14.44.35207\include\utility
; File C:\Program Files\Microsoft Visual Studio\2022\Professional\VC\Tools\MSVC\14.44.35207\include\xmemory
; File C:\Program Files\Microsoft Visual Studio\2022\Professional\VC\Tools\MSVC\14.44.35207\include\xtree
;	COMDAT ?clear@?$_Tree@V?$_Tmap_traits@KPAVCGuild@@U?$less@K@std@@V?$allocator@U?$pair@$$CBKPAVCGuild@@@std@@@3@$0A@@std@@@std@@QAEXXZ
_TEXT	SEGMENT
?clear@?$_Tree@V?$_Tmap_traits@KPAVCGuild@@U?$less@K@std@@V?$allocator@U?$pair@$$CBKPAVCGuild@@@std@@@3@$0A@@std@@@std@@QAEXXZ PROC ; std::_Tree<std::_Tmap_traits<unsigned long,CGuild *,std::less<unsigned long>,std::allocator<std::pair<unsigned long const ,CGuild *> >,0> >::clear, COMDAT
; _this$ = ecx

; 1370 :     void clear() noexcept {

  00000	53		 push	 ebx
  00001	8b d9		 mov	 ebx, ecx
  00003	56		 push	 esi
  00004	57		 push	 edi

; 1371 :         const auto _Scary = _Get_scary();
; 1372 :         _Scary->_Orphan_ptr(nullptr);
; 1373 :         auto _Head = _Scary->_Myhead;

  00005	8b 3b		 mov	 edi, DWORD PTR [ebx]

; 1374 :         _Scary->_Erase_tree(_Getal(), _Head->_Parent);

  00007	8b 77 04	 mov	 esi, DWORD PTR [edi+4]

; 768  :         while (!_Rootnode->_Isnil) { // free subtrees, then node

  0000a	80 7e 0d 00	 cmp	 BYTE PTR [esi+13], 0
  0000e	75 20		 jne	 SHORT $LN38@clear
$LL5@clear:

; 769  :             _Erase_tree(_Al, _Rootnode->_Right);

  00010	ff 76 08	 push	 DWORD PTR [esi+8]
  00013	8b cb		 mov	 ecx, ebx
  00015	53		 push	 ebx
  00016	e8 00 00 00 00	 call	 ??$_Erase_tree@V?$allocator@U?$_Tree_node@U?$pair@$$CBKPAVCGuild@@@std@@PAX@std@@@std@@@?$_Tree_val@U?$_Tree_simple_types@U?$pair@$$CBKPAVCGuild@@@std@@@std@@@std@@QAEXAAV?$allocator@U?$_Tree_node@U?$pair@$$CBKPAVCGuild@@@std@@PAX@std@@@1@PAU?$_Tree_node@U?$pair@$$CBKPAVCGuild@@@std@@PAX@1@@Z ; std::_Tree_val<std::_Tree_simple_types<std::pair<unsigned long const ,CGuild *> > >::_Erase_tree<std::allocator<std::_Tree_node<std::pair<unsigned long const ,CGuild *>,void *> > >
; File C:\Program Files\Microsoft Visual Studio\2022\Professional\VC\Tools\MSVC\14.44.35207\include\utility

; 773  :     _Ty _Old_val = static_cast<_Ty&&>(_Val);

  0001b	8b c6		 mov	 eax, esi

; 774  :     _Val         = static_cast<_Other&&>(_New_val);

  0001d	8b 36		 mov	 esi, DWORD PTR [esi]
; File C:\Program Files\Microsoft Visual Studio\2022\Professional\VC\Tools\MSVC\14.44.35207\include\xmemory

; 289  :         ::operator delete(_Ptr, _Bytes);

  0001f	6a 18		 push	 24			; 00000018H
  00021	50		 push	 eax
  00022	e8 00 00 00 00	 call	 ??3@YAXPAXI@Z		; operator delete
  00027	83 c4 08	 add	 esp, 8
; File C:\Program Files\Microsoft Visual Studio\2022\Professional\VC\Tools\MSVC\14.44.35207\include\xtree

; 768  :         while (!_Rootnode->_Isnil) { // free subtrees, then node

  0002a	80 7e 0d 00	 cmp	 BYTE PTR [esi+13], 0
  0002e	74 e0		 je	 SHORT $LL5@clear
$LN38@clear:

; 1375 :         _Head->_Parent  = _Head;

  00030	89 7f 04	 mov	 DWORD PTR [edi+4], edi

; 1376 :         _Head->_Left    = _Head;

  00033	89 3f		 mov	 DWORD PTR [edi], edi

; 1377 :         _Head->_Right   = _Head;

  00035	89 7f 08	 mov	 DWORD PTR [edi+8], edi

; 1378 :         _Scary->_Mysize = 0;

  00038	5f		 pop	 edi
  00039	5e		 pop	 esi
  0003a	c7 43 04 00 00
	00 00		 mov	 DWORD PTR [ebx+4], 0
  00041	5b		 pop	 ebx

; 1379 :     }

  00042	c3		 ret	 0
?clear@?$_Tree@V?$_Tmap_traits@KPAVCGuild@@U?$less@K@std@@V?$allocator@U?$pair@$$CBKPAVCGuild@@@std@@@3@$0A@@std@@@std@@QAEXXZ ENDP ; std::_Tree<std::_Tmap_traits<unsigned long,CGuild *,std::less<unsigned long>,std::allocator<std::pair<unsigned long const ,CGuild *> >,0> >::clear
_TEXT	ENDS
; Function compile flags: /Ogtp
; File C:\Program Files\Microsoft Visual Studio\2022\Professional\VC\Tools\MSVC\14.44.35207\include\xtree
; File C:\Program Files\Microsoft Visual Studio\2022\Professional\VC\Tools\MSVC\14.44.35207\include\utility
; File C:\Program Files\Microsoft Visual Studio\2022\Professional\VC\Tools\MSVC\14.44.35207\include\xmemory
; File C:\Program Files\Microsoft Visual Studio\2022\Professional\VC\Tools\MSVC\14.44.35207\include\xtree
; File C:\Program Files\Microsoft Visual Studio\2022\Professional\VC\Tools\MSVC\14.44.35207\include\xmemory
; File C:\Program Files\Microsoft Visual Studio\2022\Professional\VC\Tools\MSVC\14.44.35207\include\xtree
;	COMDAT ??1?$_Tree@V?$_Tmap_traits@KPAVCGuild@@U?$less@K@std@@V?$allocator@U?$pair@$$CBKPAVCGuild@@@std@@@3@$0A@@std@@@std@@QAE@XZ
_TEXT	SEGMENT
??1?$_Tree@V?$_Tmap_traits@KPAVCGuild@@U?$less@K@std@@V?$allocator@U?$pair@$$CBKPAVCGuild@@@std@@@3@$0A@@std@@@std@@QAE@XZ PROC ; std::_Tree<std::_Tmap_traits<unsigned long,CGuild *,std::less<unsigned long>,std::allocator<std::pair<unsigned long const ,CGuild *> >,0> >::~_Tree<std::_Tmap_traits<unsigned long,CGuild *,std::less<unsigned long>,std::allocator<std::pair<unsigned long const ,CGuild *> >,0> >, COMDAT
; _this$ = ecx

; 1095 :     ~_Tree() noexcept {

  00000	56		 push	 esi
  00001	57		 push	 edi
  00002	8b f9		 mov	 edi, ecx

; 777  :         _Erase_tree(_Al, _Myhead->_Parent);

  00004	8b 37		 mov	 esi, DWORD PTR [edi]
  00006	8b 76 04	 mov	 esi, DWORD PTR [esi+4]

; 768  :         while (!_Rootnode->_Isnil) { // free subtrees, then node

  00009	80 7e 0d 00	 cmp	 BYTE PTR [esi+13], 0
  0000d	75 21		 jne	 SHORT $LN61@Tree
  0000f	90		 npad	 1
$LL8@Tree:

; 769  :             _Erase_tree(_Al, _Rootnode->_Right);

  00010	ff 76 08	 push	 DWORD PTR [esi+8]
  00013	8b cf		 mov	 ecx, edi
  00015	57		 push	 edi
  00016	e8 00 00 00 00	 call	 ??$_Erase_tree@V?$allocator@U?$_Tree_node@U?$pair@$$CBKPAVCGuild@@@std@@PAX@std@@@std@@@?$_Tree_val@U?$_Tree_simple_types@U?$pair@$$CBKPAVCGuild@@@std@@@std@@@std@@QAEXAAV?$allocator@U?$_Tree_node@U?$pair@$$CBKPAVCGuild@@@std@@PAX@std@@@1@PAU?$_Tree_node@U?$pair@$$CBKPAVCGuild@@@std@@PAX@1@@Z ; std::_Tree_val<std::_Tree_simple_types<std::pair<unsigned long const ,CGuild *> > >::_Erase_tree<std::allocator<std::_Tree_node<std::pair<unsigned long const ,CGuild *>,void *> > >
; File C:\Program Files\Microsoft Visual Studio\2022\Professional\VC\Tools\MSVC\14.44.35207\include\utility

; 773  :     _Ty _Old_val = static_cast<_Ty&&>(_Val);

  0001b	8b c6		 mov	 eax, esi

; 774  :     _Val         = static_cast<_Other&&>(_New_val);

  0001d	8b 36		 mov	 esi, DWORD PTR [esi]
; File C:\Program Files\Microsoft Visual Studio\2022\Professional\VC\Tools\MSVC\14.44.35207\include\xmemory

; 289  :         ::operator delete(_Ptr, _Bytes);

  0001f	6a 18		 push	 24			; 00000018H
  00021	50		 push	 eax
  00022	e8 00 00 00 00	 call	 ??3@YAXPAXI@Z		; operator delete
  00027	83 c4 08	 add	 esp, 8
; File C:\Program Files\Microsoft Visual Studio\2022\Professional\VC\Tools\MSVC\14.44.35207\include\xtree

; 768  :         while (!_Rootnode->_Isnil) { // free subtrees, then node

  0002a	80 7e 0d 00	 cmp	 BYTE PTR [esi+13], 0
  0002e	74 e0		 je	 SHORT $LL8@Tree
$LN61@Tree:
; File C:\Program Files\Microsoft Visual Studio\2022\Professional\VC\Tools\MSVC\14.44.35207\include\xmemory

; 289  :         ::operator delete(_Ptr, _Bytes);

  00030	6a 18		 push	 24			; 00000018H
  00032	ff 37		 push	 DWORD PTR [edi]
  00034	e8 00 00 00 00	 call	 ??3@YAXPAXI@Z		; operator delete
  00039	83 c4 08	 add	 esp, 8
  0003c	5f		 pop	 edi
  0003d	5e		 pop	 esi
; File C:\Program Files\Microsoft Visual Studio\2022\Professional\VC\Tools\MSVC\14.44.35207\include\xtree

; 1102 :     }

  0003e	c3		 ret	 0
??1?$_Tree@V?$_Tmap_traits@KPAVCGuild@@U?$less@K@std@@V?$allocator@U?$pair@$$CBKPAVCGuild@@@std@@@3@$0A@@std@@@std@@QAE@XZ ENDP ; std::_Tree<std::_Tmap_traits<unsigned long,CGuild *,std::less<unsigned long>,std::allocator<std::pair<unsigned long const ,CGuild *> >,0> >::~_Tree<std::_Tmap_traits<unsigned long,CGuild *,std::less<unsigned long>,std::allocator<std::pair<unsigned long const ,CGuild *> >,0> >
_TEXT	ENDS
; Function compile flags: /Ogtp
;	COMDAT ??_GCGuild@@UAEPAXI@Z
_TEXT	SEGMENT
___flags$ = 8						; size = 4
??_GCGuild@@UAEPAXI@Z PROC				; CGuild::`scalar deleting destructor', COMDAT
; _this$ = ecx
  00000	55		 push	 ebp
  00001	8b ec		 mov	 ebp, esp
  00003	56		 push	 esi
  00004	8b f1		 mov	 esi, ecx
  00006	e8 00 00 00 00	 call	 ??1CGuild@@UAE@XZ	; CGuild::~CGuild
  0000b	f6 45 08 01	 test	 BYTE PTR ___flags$[ebp], 1
  0000f	74 0e		 je	 SHORT $LN5@scalar
  00011	68 48 0d 00 00	 push	 3400			; 00000d48H
  00016	56		 push	 esi
  00017	e8 00 00 00 00	 call	 ??3@YAXPAXI@Z		; operator delete
  0001c	83 c4 08	 add	 esp, 8
$LN5@scalar:
  0001f	8b c6		 mov	 eax, esi
  00021	5e		 pop	 esi
  00022	5d		 pop	 ebp
  00023	c2 04 00	 ret	 4
??_GCGuild@@UAEPAXI@Z ENDP				; CGuild::`scalar deleting destructor'
_TEXT	ENDS
; Function compile flags: /Ogtp
; File C:\IAGOS\server\v18\Source\Source\_common\guild.cpp
;	COMDAT ?RemoveItem@CGuild@@QAEFKF@Z
_TEXT	SEGMENT
_dwId$ = 8						; size = 4
_nItemNum$ = 12						; size = 2
?RemoveItem@CGuild@@QAEFKF@Z PROC			; CGuild::RemoveItem, COMDAT
; _this$ = ecx

; 1065 : {

  00000	55		 push	 ebp
  00001	8b ec		 mov	 ebp, esp

; 1066 : 	if( nItemNum < 0 )
; 1067 : 		nItemNum	= 0;
; 1068 : 
; 1069 : 	short nRemoved	= 0;

  00003	66 8b 45 0c	 mov	 ax, WORD PTR _nItemNum$[ebp]
  00007	56		 push	 esi
  00008	33 f6		 xor	 esi, esi
  0000a	0f b7 d0	 movzx	 edx, ax
  0000d	57		 push	 edi

; 1070 : 	CItemElem* pItemElem	= m_GuildBank.GetAtId( dwId );

  0000e	ff 75 08	 push	 DWORD PTR _dwId$[ebp]
  00011	66 85 c0	 test	 ax, ax
  00014	8d b9 04 01 00
	00		 lea	 edi, DWORD PTR [ecx+260]
  0001a	8b cf		 mov	 ecx, edi
  0001c	0f 49 f2	 cmovns	 esi, edx
  0001f	0f b7 f6	 movzx	 esi, si
  00022	e8 00 00 00 00	 call	 ?GetAtId@?$CItemContainer@VCItemElem@@@@QAEPAVCItemElem@@K@Z ; CItemContainer<CItemElem>::GetAtId
  00027	8b d0		 mov	 edx, eax

; 1071 : 	if( pItemElem )

  00029	85 d2		 test	 edx, edx
  0002b	74 2c		 je	 SHORT $LN7@RemoveItem

; 1072 : 	{
; 1073 : 		if( pItemElem->m_nItemNum > nItemNum )

  0002d	0f b7 4a 74	 movzx	 ecx, WORD PTR [edx+116]
  00031	66 3b ce	 cmp	 cx, si
  00034	7e 0e		 jle	 SHORT $LN4@RemoveItem

; 1074 : 		{
; 1075 : 			nRemoved	= nItemNum;
; 1076 : 			pItemElem->m_nItemNum	-= nItemNum;

  00036	2b ce		 sub	 ecx, esi
  00038	8b c6		 mov	 eax, esi
  0003a	5f		 pop	 edi
  0003b	66 89 4a 74	 mov	 WORD PTR [edx+116], cx

; 1085 : }

  0003f	5e		 pop	 esi
  00040	5d		 pop	 ebp
  00041	c2 08 00	 ret	 8
$LN4@RemoveItem:

; 1077 : 		}
; 1078 : 		else
; 1079 : 		{
; 1080 : 			nRemoved	= pItemElem->m_nItemNum;
; 1081 : 			m_GuildBank.RemoveAtId( dwId );

  00044	ff 75 08	 push	 DWORD PTR _dwId$[ebp]
  00047	8b f1		 mov	 esi, ecx
  00049	8b cf		 mov	 ecx, edi
  0004b	e8 00 00 00 00	 call	 ?RemoveAtId@?$CItemContainer@VCItemElem@@@@QAEXK@Z ; CItemContainer<CItemElem>::RemoveAtId
  00050	5f		 pop	 edi

; 1082 : 		}
; 1083 : 	}
; 1084 : 	return nRemoved;

  00051	66 8b c6	 mov	 ax, si

; 1085 : }

  00054	5e		 pop	 esi
  00055	5d		 pop	 ebp
  00056	c2 08 00	 ret	 8
$LN7@RemoveItem:
  00059	5f		 pop	 edi

; 1082 : 		}
; 1083 : 	}
; 1084 : 	return nRemoved;

  0005a	33 c0		 xor	 eax, eax

; 1085 : }

  0005c	5e		 pop	 esi
  0005d	5d		 pop	 ebp
  0005e	c2 08 00	 ret	 8
?RemoveItem@CGuild@@QAEFKF@Z ENDP			; CGuild::RemoveItem
_TEXT	ENDS
; Function compile flags: /Ogtp
; File C:\IAGOS\server\v18\Source\Source\_common\guild.cpp
;	COMDAT ?GetItem@CGuild@@QAEPAVCItemElem@@KK@Z
_TEXT	SEGMENT
tv149 = -4						; size = 4
_dwItemId$ = 8						; size = 4
_iSerialNumber$ = 12					; size = 4
?GetItem@CGuild@@QAEPAVCItemElem@@KK@Z PROC		; CGuild::GetItem, COMDAT
; _this$ = ecx

; 1053 : {

  00000	55		 push	 ebp
  00001	8b ec		 mov	 ebp, esp
  00003	51		 push	 ecx
  00004	53		 push	 ebx
  00005	56		 push	 esi
  00006	57		 push	 edi

; 1054 : 	int cbMax	= m_GuildBank.m_dwItemMax;

  00007	8b b9 10 01 00
	00		 mov	 edi, DWORD PTR [ecx+272]

; 1055 : 	for( int i = 0; i < cbMax ; i++ )

  0000d	33 f6		 xor	 esi, esi
  0000f	85 ff		 test	 edi, edi
  00011	7e 30		 jle	 SHORT $LN10@GetItem
  00013	8b 5d 0c	 mov	 ebx, DWORD PTR _iSerialNumber$[ebp]
  00016	8d 81 04 01 00
	00		 lea	 eax, DWORD PTR [ecx+260]
  0001c	89 45 fc	 mov	 DWORD PTR tv149[ebp], eax
  0001f	90		 npad	 1
$LL4@GetItem:

; 1056 : 	{
; 1057 : 		CItemElem* pItemElem	= m_GuildBank.GetAtId( i );

  00020	56		 push	 esi
  00021	8b c8		 mov	 ecx, eax
  00023	e8 00 00 00 00	 call	 ?GetAtId@?$CItemContainer@VCItemElem@@@@QAEPAVCItemElem@@K@Z ; CItemContainer<CItemElem>::GetAtId

; 1058 : 		if( pItemElem && pItemElem->m_dwItemId == dwItemId && pItemElem->GetSerialNumber() == iSerialNumber )

  00028	85 c0		 test	 eax, eax
  0002a	74 0d		 je	 SHORT $LN2@GetItem
  0002c	8b 4d 08	 mov	 ecx, DWORD PTR _dwItemId$[ebp]
  0002f	39 48 0c	 cmp	 DWORD PTR [eax+12], ecx
  00032	75 05		 jne	 SHORT $LN2@GetItem
  00034	39 58 38	 cmp	 DWORD PTR [eax+56], ebx
  00037	74 0c		 je	 SHORT $LN1@GetItem
$LN2@GetItem:

; 1055 : 	for( int i = 0; i < cbMax ; i++ )

  00039	46		 inc	 esi
  0003a	3b f7		 cmp	 esi, edi
  0003c	7d 05		 jge	 SHORT $LN10@GetItem
  0003e	8b 45 fc	 mov	 eax, DWORD PTR tv149[ebp]
  00041	eb dd		 jmp	 SHORT $LL4@GetItem
$LN10@GetItem:

; 1059 : 			return pItemElem;
; 1060 : 	}
; 1061 : 	return NULL;

  00043	33 c0		 xor	 eax, eax
$LN1@GetItem:
  00045	5f		 pop	 edi

; 1062 : }

  00046	5e		 pop	 esi
  00047	5b		 pop	 ebx
  00048	8b e5		 mov	 esp, ebp
  0004a	5d		 pop	 ebp
  0004b	c2 08 00	 ret	 8
?GetItem@CGuild@@QAEPAVCItemElem@@KK@Z ENDP		; CGuild::GetItem
_TEXT	ENDS
; Function compile flags: /Ogtp
; File C:\IAGOS\server\v18\Source\Source\_common\guild.cpp
; File C:\Program Files\Microsoft Visual Studio\2022\Professional\VC\Tools\MSVC\14.44.35207\include\xtree
; File C:\Program Files\Microsoft Visual Studio\2022\Professional\VC\Tools\MSVC\14.44.35207\include\type_traits
; File C:\Program Files\Microsoft Visual Studio\2022\Professional\VC\Tools\MSVC\14.44.35207\include\xtree
; File C:\Program Files\Microsoft Visual Studio\2022\Professional\VC\Tools\MSVC\14.44.35207\include\type_traits
; File C:\Program Files\Microsoft Visual Studio\2022\Professional\VC\Tools\MSVC\14.44.35207\include\xtree
; File C:\IAGOS\server\v18\Source\Source\_Common\Project.h
; File C:\IAGOS\server\v18\Source\Source\_Common\Obj.h
; File C:\Program Files\Microsoft Visual Studio\2022\Professional\VC\Tools\MSVC\14.44.35207\include\xtree
; File C:\IAGOS\server\v18\Source\Source\_common\guild.cpp
; File C:\Program Files\Microsoft Visual Studio\2022\Professional\VC\Tools\MSVC\14.44.35207\include\xtree
; File C:\IAGOS\server\v18\Source\Source\_common\guild.cpp
; File C:\Program Files\Microsoft Visual Studio\2022\Professional\VC\Tools\MSVC\14.44.35207\include\xtree
; File C:\Program Files\Microsoft Visual Studio\2022\Professional\VC\Tools\MSVC\14.44.35207\include\type_traits
; File C:\Program Files\Microsoft Visual Studio\2022\Professional\VC\Tools\MSVC\14.44.35207\include\xtree
; File C:\Program Files\Microsoft Visual Studio\2022\Professional\VC\Tools\MSVC\14.44.35207\include\type_traits
; File C:\Program Files\Microsoft Visual Studio\2022\Professional\VC\Tools\MSVC\14.44.35207\include\xtree
; File C:\IAGOS\server\v18\Source\Source\_Common\Project.h
; File C:\IAGOS\server\v18\Source\Source\_Common\Obj.h
; File C:\IAGOS\server\v18\Source\Source\_common\guild.cpp
; File C:\IAGOS\server\v18\Source\Source\_common\guild.h
; File C:\IAGOS\server\v18\Source\Source\_common\guild.cpp
; File C:\Program Files\Microsoft Visual Studio\2022\Professional\VC\Tools\MSVC\14.44.35207\include\xtree
; File C:\IAGOS\server\v18\Source\Source\_common\guild.cpp
;	COMDAT ?Replace@CGuild@@QAEXKAAUD3DXVECTOR3@@H@Z
_TEXT	SEGMENT
_this$1$ = -4						; size = 4
_dwWorldId$ = 8						; size = 4
_vPos$ = 12						; size = 4
_bMasterAround$ = 16					; size = 4
_i$3 = 16						; size = 4
?Replace@CGuild@@QAEXKAAUD3DXVECTOR3@@H@Z PROC		; CGuild::Replace, COMDAT
; _this$ = ecx

; 1013 : {

  00000	55		 push	 ebp
  00001	8b ec		 mov	 ebp, esp
  00003	51		 push	 ecx
  00004	53		 push	 ebx

; 1014 : //	locked
; 1015 : 	CUser* pUser;
; 1016 : 	CGuildMember* pMember;
; 1017 : 	CUser* pMaster	= NULL;

  00005	33 db		 xor	 ebx, ebx
  00007	8b c1		 mov	 eax, ecx
  00009	57		 push	 edi

; 1018 : 	if( bMasterAround )

  0000a	8b 3d 28 00 00
	00		 mov	 edi, DWORD PTR ?prj@@3VCProject@@A+40
  00010	89 45 fc	 mov	 DWORD PTR _this$1$[ebp], eax
  00013	39 5d 10	 cmp	 DWORD PTR _bMasterAround$[ebp], ebx
  00016	74 4c		 je	 SHORT $LN6@Replace

; 1019 : 	{
; 1020 : 		pMaster	= (CUser*)prj.GetUserByID( m_idMaster );

  00018	8b 50 40	 mov	 edx, DWORD PTR [eax+64]
; File C:\Program Files\Microsoft Visual Studio\2022\Professional\VC\Tools\MSVC\14.44.35207\include\xtree

; 1630 :         _Tree_find_result<_Nodeptr> _Result{{_Scary->_Myhead->_Parent, _Tree_child::_Right}, _Scary->_Myhead};

  0001b	8b cf		 mov	 ecx, edi
  0001d	8b 47 04	 mov	 eax, DWORD PTR [edi+4]

; 1631 :         _Nodeptr _Trynode = _Result._Location._Parent;
; 1632 :         while (!_Trynode->_Isnil) {

  00020	38 58 0d	 cmp	 BYTE PTR [eax+13], bl
  00023	75 13		 jne	 SHORT $LN21@Replace
$LL20@Replace:
; File C:\Program Files\Microsoft Visual Studio\2022\Professional\VC\Tools\MSVC\14.44.35207\include\type_traits

; 2380 :         return _Left < _Right;

  00025	39 50 10	 cmp	 DWORD PTR [eax+16], edx
; File C:\Program Files\Microsoft Visual Studio\2022\Professional\VC\Tools\MSVC\14.44.35207\include\xtree

; 1634 :             if (_DEBUG_LT_PRED(_Getcomp(), _Traits::_Kfn(_Trynode->_Myval), _Keyval)) {

  00028	73 05		 jae	 SHORT $LN22@Replace

; 1635 :                 _Result._Location._Child = _Tree_child::_Right;
; 1636 :                 _Trynode                 = _Trynode->_Right;

  0002a	8b 40 08	 mov	 eax, DWORD PTR [eax+8]

; 1637 :             } else {

  0002d	eb 04		 jmp	 SHORT $LN23@Replace
$LN22@Replace:

; 1638 :                 _Result._Location._Child = _Tree_child::_Left;
; 1639 :                 _Result._Bound           = _Trynode;

  0002f	8b c8		 mov	 ecx, eax

; 1640 :                 _Trynode                 = _Trynode->_Left;

  00031	8b 00		 mov	 eax, DWORD PTR [eax]
$LN23@Replace:

; 1631 :         _Nodeptr _Trynode = _Result._Location._Parent;
; 1632 :         while (!_Trynode->_Isnil) {

  00033	38 58 0d	 cmp	 BYTE PTR [eax+13], bl
  00036	74 ed		 je	 SHORT $LL20@Replace
$LN21@Replace:

; 1624 :         return !_Bound->_Isnil && !_DEBUG_LT_PRED(_Getcomp(), _Keyval, _Traits::_Kfn(_Bound->_Myval));

  00038	38 59 0d	 cmp	 BYTE PTR [ecx+13], bl
  0003b	75 05		 jne	 SHORT $LN17@Replace
; File C:\Program Files\Microsoft Visual Studio\2022\Professional\VC\Tools\MSVC\14.44.35207\include\type_traits

; 2380 :         return _Left < _Right;

  0003d	3b 51 10	 cmp	 edx, DWORD PTR [ecx+16]
; File C:\Program Files\Microsoft Visual Studio\2022\Professional\VC\Tools\MSVC\14.44.35207\include\xtree

; 1624 :         return !_Bound->_Isnil && !_DEBUG_LT_PRED(_Getcomp(), _Keyval, _Traits::_Kfn(_Bound->_Myval));

  00040	73 02		 jae	 SHORT $LN16@Replace
$LN17@Replace:

; 1389 :         return _Get_scary()->_Myhead;

  00042	8b cf		 mov	 ecx, edi
$LN16@Replace:

; 37   :     _Tree_unchecked_const_iterator(_Nodeptr _Pnode, const _Mytree* _Plist) noexcept : _Ptr(_Pnode) {

  00044	3b cf		 cmp	 ecx, edi
; File C:\IAGOS\server\v18\Source\Source\_Common\Project.h

; 1436 : 	if( i != m_idPlayerToUserPtr.end() )

  00046	0f 84 cb 00 00
	00		 je	 $LN3@Replace

; 1437 : 		return i->second;

  0004c	8b 59 14	 mov	 ebx, DWORD PTR [ecx+20]
; File C:\IAGOS\server\v18\Source\Source\_Common\Obj.h

; 327  : 	return pObj && ( pObj->IsDelete() == FALSE ); 

  0004f	85 db		 test	 ebx, ebx
  00051	0f 84 c0 00 00
	00		 je	 $LN3@Replace

; 180  : 	BOOL			IsDelete()	{ return (m_dwFlags & OBJ_FLAG_DELETE);  }

  00057	f6 43 04 01	 test	 BYTE PTR [ebx+4], 1

; 327  : 	return pObj && ( pObj->IsDelete() == FALSE ); 

  0005b	0f 85 b6 00 00
	00		 jne	 $LN3@Replace
  00061	8b 45 fc	 mov	 eax, DWORD PTR _this$1$[ebp]
$LN6@Replace:
; File C:\Program Files\Microsoft Visual Studio\2022\Professional\VC\Tools\MSVC\14.44.35207\include\xtree

; 1142 :         return iterator(_Scary->_Myhead->_Left, _Scary);

  00064	8b 48 38	 mov	 ecx, DWORD PTR [eax+56]

; 37   :     _Tree_unchecked_const_iterator(_Nodeptr _Pnode, const _Mytree* _Plist) noexcept : _Ptr(_Pnode) {

  00067	8b 01		 mov	 eax, DWORD PTR [ecx]
  00069	89 45 10	 mov	 DWORD PTR _i$3[ebp], eax

; 237  :         return !(*this == _Right);

  0006c	3b c1		 cmp	 eax, ecx
; File C:\IAGOS\server\v18\Source\Source\_common\guild.cpp

; 1025 : 	for( map<u_long, CGuildMember*>::iterator i = m_mapPMember.begin(); i != m_mapPMember.end(); ++i )

  0006e	0f 84 a3 00 00
	00		 je	 $LN3@Replace
  00074	56		 push	 esi
$LL4@Replace:

; 1029 : 		pUser	= (CUser*)prj.GetUserByID( pMember->m_idPlayer );

  00075	8b 40 14	 mov	 eax, DWORD PTR [eax+20]
; File C:\Program Files\Microsoft Visual Studio\2022\Professional\VC\Tools\MSVC\14.44.35207\include\xtree

; 1630 :         _Tree_find_result<_Nodeptr> _Result{{_Scary->_Myhead->_Parent, _Tree_child::_Right}, _Scary->_Myhead};

  00078	8b cf		 mov	 ecx, edi
; File C:\IAGOS\server\v18\Source\Source\_common\guild.cpp

; 1029 : 		pUser	= (CUser*)prj.GetUserByID( pMember->m_idPlayer );

  0007a	8b 50 04	 mov	 edx, DWORD PTR [eax+4]
; File C:\Program Files\Microsoft Visual Studio\2022\Professional\VC\Tools\MSVC\14.44.35207\include\xtree

; 1630 :         _Tree_find_result<_Nodeptr> _Result{{_Scary->_Myhead->_Parent, _Tree_child::_Right}, _Scary->_Myhead};

  0007d	8b 47 04	 mov	 eax, DWORD PTR [edi+4]

; 1631 :         _Nodeptr _Trynode = _Result._Location._Parent;
; 1632 :         while (!_Trynode->_Isnil) {

  00080	80 78 0d 00	 cmp	 BYTE PTR [eax+13], 0
  00084	75 14		 jne	 SHORT $LN134@Replace
$LL133@Replace:
; File C:\Program Files\Microsoft Visual Studio\2022\Professional\VC\Tools\MSVC\14.44.35207\include\type_traits

; 2380 :         return _Left < _Right;

  00086	39 50 10	 cmp	 DWORD PTR [eax+16], edx
; File C:\Program Files\Microsoft Visual Studio\2022\Professional\VC\Tools\MSVC\14.44.35207\include\xtree

; 1634 :             if (_DEBUG_LT_PRED(_Getcomp(), _Traits::_Kfn(_Trynode->_Myval), _Keyval)) {

  00089	73 05		 jae	 SHORT $LN135@Replace

; 1635 :                 _Result._Location._Child = _Tree_child::_Right;
; 1636 :                 _Trynode                 = _Trynode->_Right;

  0008b	8b 40 08	 mov	 eax, DWORD PTR [eax+8]

; 1637 :             } else {

  0008e	eb 04		 jmp	 SHORT $LN136@Replace
$LN135@Replace:

; 1638 :                 _Result._Location._Child = _Tree_child::_Left;
; 1639 :                 _Result._Bound           = _Trynode;

  00090	8b c8		 mov	 ecx, eax

; 1640 :                 _Trynode                 = _Trynode->_Left;

  00092	8b 00		 mov	 eax, DWORD PTR [eax]
$LN136@Replace:

; 1631 :         _Nodeptr _Trynode = _Result._Location._Parent;
; 1632 :         while (!_Trynode->_Isnil) {

  00094	80 78 0d 00	 cmp	 BYTE PTR [eax+13], 0
  00098	74 ec		 je	 SHORT $LL133@Replace
$LN134@Replace:

; 1624 :         return !_Bound->_Isnil && !_DEBUG_LT_PRED(_Getcomp(), _Keyval, _Traits::_Kfn(_Bound->_Myval));

  0009a	80 79 0d 00	 cmp	 BYTE PTR [ecx+13], 0
  0009e	75 05		 jne	 SHORT $LN130@Replace
; File C:\Program Files\Microsoft Visual Studio\2022\Professional\VC\Tools\MSVC\14.44.35207\include\type_traits

; 2380 :         return _Left < _Right;

  000a0	3b 51 10	 cmp	 edx, DWORD PTR [ecx+16]
; File C:\Program Files\Microsoft Visual Studio\2022\Professional\VC\Tools\MSVC\14.44.35207\include\xtree

; 1624 :         return !_Bound->_Isnil && !_DEBUG_LT_PRED(_Getcomp(), _Keyval, _Traits::_Kfn(_Bound->_Myval));

  000a3	73 02		 jae	 SHORT $LN129@Replace
$LN130@Replace:

; 1389 :         return _Get_scary()->_Myhead;

  000a5	8b cf		 mov	 ecx, edi
$LN129@Replace:

; 37   :     _Tree_unchecked_const_iterator(_Nodeptr _Pnode, const _Mytree* _Plist) noexcept : _Ptr(_Pnode) {

  000a7	3b cf		 cmp	 ecx, edi
; File C:\IAGOS\server\v18\Source\Source\_Common\Project.h

; 1436 : 	if( i != m_idPlayerToUserPtr.end() )

  000a9	74 54		 je	 SHORT $LN2@Replace

; 1437 : 		return i->second;

  000ab	8b 71 14	 mov	 esi, DWORD PTR [ecx+20]
; File C:\IAGOS\server\v18\Source\Source\_Common\Obj.h

; 327  : 	return pObj && ( pObj->IsDelete() == FALSE ); 

  000ae	85 f6		 test	 esi, esi
  000b0	74 4d		 je	 SHORT $LN2@Replace

; 180  : 	BOOL			IsDelete()	{ return (m_dwFlags & OBJ_FLAG_DELETE);  }

  000b2	f6 46 04 01	 test	 BYTE PTR [esi+4], 1

; 327  : 	return pObj && ( pObj->IsDelete() == FALSE ); 

  000b6	75 47		 jne	 SHORT $LN2@Replace
; File C:\IAGOS\server\v18\Source\Source\_common\guild.cpp

; 1032 : 			if( pMaster && !pMaster->IsNearPC( pUser->GetId() ) )

  000b8	85 db		 test	 ebx, ebx
  000ba	74 11		 je	 SHORT $LN8@Replace
  000bc	ff b6 bc 01 00
	00		 push	 DWORD PTR [esi+444]
  000c2	8b cb		 mov	 ecx, ebx
  000c4	e8 00 00 00 00	 call	 ?IsNearPC@CCtrl@@QAEHK@Z ; CCtrl::IsNearPC
  000c9	85 c0		 test	 eax, eax
  000cb	74 2c		 je	 SHORT $LN223@Replace
$LN8@Replace:
; File C:\IAGOS\server\v18\Source\Source\_common\guild.h

; 351  : 	PGUILDQUEST		GetQuest( int nQuestId )	{	return FindQuest( nQuestId );	}

  000cd	8b 4d fc	 mov	 ecx, DWORD PTR _this$1$[ebp]
  000d0	6a 01		 push	 1
  000d2	e8 00 00 00 00	 call	 ?FindQuest@CGuild@@QAEPAU_GUILDQUEST@@H@Z ; CGuild::FindQuest
; File C:\IAGOS\server\v18\Source\Source\_common\guild.cpp

; 1035 : 			if( GetQuest( QUEST_WARMON_LV1 ) != NULL ) // Ĺ¬¶ôżöĹ© Äů˝şĆ®¸é şńÇŕ ÇŘÁ¦

  000d7	85 c0		 test	 eax, eax
  000d9	74 07		 je	 SHORT $LN9@Replace

; 1036 : 				pUser->UnequipRide();

  000db	8b ce		 mov	 ecx, esi
  000dd	e8 00 00 00 00	 call	 ?UnequipRide@CMover@@QAEXXZ ; CMover::UnequipRide
$LN9@Replace:

; 1037 : 			pUser->REPLACE( g_uIdofMulti, dwWorldId, vPos, REPLACE_NORMAL, nTempLayer );

  000e2	6a 00		 push	 0
  000e4	6a 00		 push	 0
  000e6	ff 75 0c	 push	 DWORD PTR _vPos$[ebp]
  000e9	8b ce		 mov	 ecx, esi
  000eb	ff 75 08	 push	 DWORD PTR _dwWorldId$[ebp]
  000ee	ff 35 00 00 00
	00		 push	 DWORD PTR ?g_uIdofMulti@@3KA ; g_uIdofMulti
  000f4	e8 00 00 00 00	 call	 ?Replace@CMover@@QAEHKKAAUD3DXVECTOR3@@W4REPLACE_TYPE@@H@Z ; CMover::Replace
$LN223@Replace:
; File C:\Program Files\Microsoft Visual Studio\2022\Professional\VC\Tools\MSVC\14.44.35207\include\xtree

; 198  :         _Mybase::operator++();

  000f9	8b 3d 28 00 00
	00		 mov	 edi, DWORD PTR ?prj@@3VCProject@@A+40
$LN2@Replace:
  000ff	8d 4d 10	 lea	 ecx, DWORD PTR _i$3[ebp]
  00102	e8 00 00 00 00	 call	 ??E?$_Tree_unchecked_const_iterator@V?$_Tree_val@U?$_Tree_simple_types@U?$pair@$$CBKPAVCGuildMember@@@std@@@std@@@std@@U_Iterator_base0@2@@std@@QAEAAV01@XZ ; std::_Tree_unchecked_const_iterator<std::_Tree_val<std::_Tree_simple_types<std::pair<unsigned long const ,CGuildMember *> > >,std::_Iterator_base0>::operator++

; 237  :         return !(*this == _Right);

  00107	8b 4d fc	 mov	 ecx, DWORD PTR _this$1$[ebp]
  0010a	8b 45 10	 mov	 eax, DWORD PTR _i$3[ebp]
  0010d	3b 41 38	 cmp	 eax, DWORD PTR [ecx+56]
; File C:\IAGOS\server\v18\Source\Source\_common\guild.cpp

; 1025 : 	for( map<u_long, CGuildMember*>::iterator i = m_mapPMember.begin(); i != m_mapPMember.end(); ++i )

  00110	0f 85 5f ff ff
	ff		 jne	 $LL4@Replace
  00116	5e		 pop	 esi
$LN3@Replace:
  00117	5f		 pop	 edi

; 1038 : 		}
; 1039 : 	}
; 1040 : }

  00118	5b		 pop	 ebx
  00119	8b e5		 mov	 esp, ebp
  0011b	5d		 pop	 ebp
  0011c	c2 0c 00	 ret	 12			; 0000000cH
?Replace@CGuild@@QAEXKAAUD3DXVECTOR3@@H@Z ENDP		; CGuild::Replace
_TEXT	ENDS
; Function compile flags: /Ogtp
; File C:\IAGOS\server\v18\Source\Source\_common\guild.cpp
; File C:\Program Files\Microsoft Visual Studio\2022\Professional\VC\Tools\MSVC\14.44.35207\include\xtree
; File C:\IAGOS\server\v18\Source\Source\_common\guild.cpp
; File C:\Program Files\Microsoft Visual Studio\2022\Professional\VC\Tools\MSVC\14.44.35207\include\xtree
; File C:\IAGOS\server\v18\Source\Source\_common\guild.cpp
; File C:\Program Files\Microsoft Visual Studio\2022\Professional\VC\Tools\MSVC\14.44.35207\include\xtree
; File C:\Program Files\Microsoft Visual Studio\2022\Professional\VC\Tools\MSVC\14.44.35207\include\type_traits
; File C:\Program Files\Microsoft Visual Studio\2022\Professional\VC\Tools\MSVC\14.44.35207\include\xtree
; File C:\Program Files\Microsoft Visual Studio\2022\Professional\VC\Tools\MSVC\14.44.35207\include\type_traits
; File C:\Program Files\Microsoft Visual Studio\2022\Professional\VC\Tools\MSVC\14.44.35207\include\xtree
; File C:\IAGOS\server\v18\Source\Source\_Common\Project.h
; File C:\IAGOS\server\v18\Source\Source\_Common\Obj.h
; File C:\IAGOS\server\v18\Source\Source\_common\guild.cpp
; File C:\IAGOS\server\v18\Source\Source\_Common\Obj.h
; File C:\IAGOS\server\v18\Source\Source\_common\guild.cpp
; File C:\IAGOS\server\v18\Source\Source\_Common\Obj.h
; File C:\IAGOS\server\v18\Source\Source\_common\guild.cpp
; File C:\Program Files\Microsoft Visual Studio\2022\Professional\VC\Tools\MSVC\14.44.35207\atlmfc\include\atltypes.h
; File C:\IAGOS\server\v18\Source\Source\_Common\Obj.h
; File C:\Program Files\Microsoft Visual Studio\2022\Professional\VC\Tools\MSVC\14.44.35207\atlmfc\include\atltypes.h
; File C:\IAGOS\server\v18\Source\Source\_common\guild.cpp
; File C:\IAGOS\server\v18\Source\Source\_Common\Obj.h
; File C:\IAGOS\server\v18\Source\Source\_common\guild.cpp
; File C:\IAGOS\server\v18\Source\Source\_Common\Obj.h
; File C:\IAGOS\server\v18\Source\Source\_common\guild.cpp
; File C:\IAGOS\server\v18\Source\Source\_Common\Obj.h
; File C:\IAGOS\server\v18\Source\Source\_common\guild.cpp
; File C:\Program Files\Microsoft Visual Studio\2022\Professional\VC\Tools\MSVC\14.44.35207\include\xtree
; File C:\IAGOS\server\v18\Source\Source\_common\guild.cpp
;	COMDAT ?ReplaceLodestar@CGuild@@QAEXABVCRect@@@Z
_TEXT	SEGMENT
$T2 = -52						; size = 12
$T3 = -40						; size = 12
_this$1$ = -28						; size = 4
_rect$GSCopy$1$ = -24					; size = 4
_i$4 = -20						; size = 4
$T5 = -16						; size = 12
__$ArrayPad$ = -4					; size = 4
_rect$ = 8						; size = 4
?ReplaceLodestar@CGuild@@QAEXABVCRect@@@Z PROC		; CGuild::ReplaceLodestar, COMDAT
; _this$ = ecx

; 983  : {

  00000	55		 push	 ebp
  00001	8b ec		 mov	 ebp, esp
  00003	83 ec 34	 sub	 esp, 52			; 00000034H
  00006	a1 00 00 00 00	 mov	 eax, DWORD PTR ___security_cookie
  0000b	33 c5		 xor	 eax, ebp
  0000d	89 45 fc	 mov	 DWORD PTR __$ArrayPad$[ebp], eax
  00010	8b c1		 mov	 eax, ecx
  00012	8b 4d 08	 mov	 ecx, DWORD PTR _rect$[ebp]
  00015	89 45 e4	 mov	 DWORD PTR _this$1$[ebp], eax
  00018	89 4d e8	 mov	 DWORD PTR _rect$GSCopy$1$[ebp], ecx
; File C:\Program Files\Microsoft Visual Studio\2022\Professional\VC\Tools\MSVC\14.44.35207\include\xtree

; 1142 :         return iterator(_Scary->_Myhead->_Left, _Scary);

  0001b	8b 50 38	 mov	 edx, DWORD PTR [eax+56]

; 37   :     _Tree_unchecked_const_iterator(_Nodeptr _Pnode, const _Mytree* _Plist) noexcept : _Ptr(_Pnode) {

  0001e	8b 02		 mov	 eax, DWORD PTR [edx]
  00020	89 45 ec	 mov	 DWORD PTR _i$4[ebp], eax

; 237  :         return !(*this == _Right);

  00023	3b c2		 cmp	 eax, edx
; File C:\IAGOS\server\v18\Source\Source\_common\guild.cpp

; 987  : 	for( map<u_long, CGuildMember*>::iterator i = m_mapPMember.begin(); i != m_mapPMember.end(); ++i )

  00025	0f 84 2b 01 00
	00		 je	 $LN3@ReplaceLod
  0002b	53		 push	 ebx
  0002c	8b 1d 28 00 00
	00		 mov	 ebx, DWORD PTR ?prj@@3VCProject@@A+40
  00032	56		 push	 esi
  00033	57		 push	 edi
$LL4@ReplaceLod:

; 990  : 		pUser	= (CUser*)prj.GetUserByID( pMember->m_idPlayer );

  00034	8b 40 14	 mov	 eax, DWORD PTR [eax+20]
; File C:\Program Files\Microsoft Visual Studio\2022\Professional\VC\Tools\MSVC\14.44.35207\include\xtree

; 1630 :         _Tree_find_result<_Nodeptr> _Result{{_Scary->_Myhead->_Parent, _Tree_child::_Right}, _Scary->_Myhead};

  00037	8b cb		 mov	 ecx, ebx
; File C:\IAGOS\server\v18\Source\Source\_common\guild.cpp

; 990  : 		pUser	= (CUser*)prj.GetUserByID( pMember->m_idPlayer );

  00039	8b 50 04	 mov	 edx, DWORD PTR [eax+4]
; File C:\Program Files\Microsoft Visual Studio\2022\Professional\VC\Tools\MSVC\14.44.35207\include\xtree

; 1630 :         _Tree_find_result<_Nodeptr> _Result{{_Scary->_Myhead->_Parent, _Tree_child::_Right}, _Scary->_Myhead};

  0003c	8b 43 04	 mov	 eax, DWORD PTR [ebx+4]

; 1631 :         _Nodeptr _Trynode = _Result._Location._Parent;
; 1632 :         while (!_Trynode->_Isnil) {

  0003f	80 78 0d 00	 cmp	 BYTE PTR [eax+13], 0
  00043	75 14		 jne	 SHORT $LN67@ReplaceLod
$LL66@ReplaceLod:
; File C:\Program Files\Microsoft Visual Studio\2022\Professional\VC\Tools\MSVC\14.44.35207\include\type_traits

; 2380 :         return _Left < _Right;

  00045	39 50 10	 cmp	 DWORD PTR [eax+16], edx
; File C:\Program Files\Microsoft Visual Studio\2022\Professional\VC\Tools\MSVC\14.44.35207\include\xtree

; 1634 :             if (_DEBUG_LT_PRED(_Getcomp(), _Traits::_Kfn(_Trynode->_Myval), _Keyval)) {

  00048	73 05		 jae	 SHORT $LN68@ReplaceLod

; 1635 :                 _Result._Location._Child = _Tree_child::_Right;
; 1636 :                 _Trynode                 = _Trynode->_Right;

  0004a	8b 40 08	 mov	 eax, DWORD PTR [eax+8]

; 1637 :             } else {

  0004d	eb 04		 jmp	 SHORT $LN69@ReplaceLod
$LN68@ReplaceLod:

; 1638 :                 _Result._Location._Child = _Tree_child::_Left;
; 1639 :                 _Result._Bound           = _Trynode;

  0004f	8b c8		 mov	 ecx, eax

; 1640 :                 _Trynode                 = _Trynode->_Left;

  00051	8b 00		 mov	 eax, DWORD PTR [eax]
$LN69@ReplaceLod:

; 1631 :         _Nodeptr _Trynode = _Result._Location._Parent;
; 1632 :         while (!_Trynode->_Isnil) {

  00053	80 78 0d 00	 cmp	 BYTE PTR [eax+13], 0
  00057	74 ec		 je	 SHORT $LL66@ReplaceLod
$LN67@ReplaceLod:

; 1624 :         return !_Bound->_Isnil && !_DEBUG_LT_PRED(_Getcomp(), _Keyval, _Traits::_Kfn(_Bound->_Myval));

  00059	80 79 0d 00	 cmp	 BYTE PTR [ecx+13], 0
  0005d	75 05		 jne	 SHORT $LN63@ReplaceLod
; File C:\Program Files\Microsoft Visual Studio\2022\Professional\VC\Tools\MSVC\14.44.35207\include\type_traits

; 2380 :         return _Left < _Right;

  0005f	3b 51 10	 cmp	 edx, DWORD PTR [ecx+16]
; File C:\Program Files\Microsoft Visual Studio\2022\Professional\VC\Tools\MSVC\14.44.35207\include\xtree

; 1624 :         return !_Bound->_Isnil && !_DEBUG_LT_PRED(_Getcomp(), _Keyval, _Traits::_Kfn(_Bound->_Myval));

  00062	73 02		 jae	 SHORT $LN62@ReplaceLod
$LN63@ReplaceLod:

; 1389 :         return _Get_scary()->_Myhead;

  00064	8b cb		 mov	 ecx, ebx
$LN62@ReplaceLod:

; 37   :     _Tree_unchecked_const_iterator(_Nodeptr _Pnode, const _Mytree* _Plist) noexcept : _Ptr(_Pnode) {

  00066	3b cb		 cmp	 ecx, ebx
; File C:\IAGOS\server\v18\Source\Source\_Common\Project.h

; 1436 : 	if( i != m_idPlayerToUserPtr.end() )

  00068	0f 84 ce 00 00
	00		 je	 $LN2@ReplaceLod

; 1437 : 		return i->second;

  0006e	8b 71 14	 mov	 esi, DWORD PTR [ecx+20]
; File C:\IAGOS\server\v18\Source\Source\_Common\Obj.h

; 327  : 	return pObj && ( pObj->IsDelete() == FALSE ); 

  00071	85 f6		 test	 esi, esi
  00073	0f 84 c3 00 00
	00		 je	 $LN2@ReplaceLod

; 180  : 	BOOL			IsDelete()	{ return (m_dwFlags & OBJ_FLAG_DELETE);  }

  00079	f6 46 04 01	 test	 BYTE PTR [esi+4], 1

; 327  : 	return pObj && ( pObj->IsDelete() == FALSE ); 

  0007d	0f 85 b9 00 00
	00		 jne	 $LN2@ReplaceLod
; File C:\IAGOS\server\v18\Source\Source\_common\guild.cpp

; 994  : 			if( pWorld )

  00083	8b be 6c 01 00
	00		 mov	 edi, DWORD PTR [esi+364]
  00089	85 ff		 test	 edi, edi
  0008b	0f 84 ab 00 00
	00		 je	 $LN2@ReplaceLod
; File C:\IAGOS\server\v18\Source\Source\_Common\Obj.h

; 215  : 	D3DXVECTOR3		GetPos()	{ return m_vPos; }

  00091	8b 86 68 01 00
	00		 mov	 eax, DWORD PTR [esi+360]
  00097	f3 0f 7e 86 60
	01 00 00	 movq	 xmm0, QWORD PTR [esi+352]
  0009f	89 45 d4	 mov	 DWORD PTR $T2[ebp+8], eax
; File C:\IAGOS\server\v18\Source\Source\_common\guild.cpp

; 996  : 				POINT point	= { (int)pUser->GetPos().x, (int)pUser->GetPos().z	};

  000a2	f3 0f 2c 45 d4	 cvttss2si eax, DWORD PTR $T2[ebp+8]
; File C:\IAGOS\server\v18\Source\Source\_Common\Obj.h

; 215  : 	D3DXVECTOR3		GetPos()	{ return m_vPos; }

  000a7	66 0f d6 45 d8	 movq	 QWORD PTR $T3[ebp], xmm0
  000ac	f3 0f 7e c0	 movq	 xmm0, xmm0
; File C:\IAGOS\server\v18\Source\Source\_common\guild.cpp

; 996  : 				POINT point	= { (int)pUser->GetPos().x, (int)pUser->GetPos().z	};

  000b0	f3 0f 2c 4d d8	 cvttss2si ecx, DWORD PTR $T3[ebp]
; File C:\Program Files\Microsoft Visual Studio\2022\Professional\VC\Tools\MSVC\14.44.35207\atlmfc\include\atltypes.h

; 652  : 	return ::PtInRect(this, point);

  000b5	50		 push	 eax
; File C:\IAGOS\server\v18\Source\Source\_Common\Obj.h

; 215  : 	D3DXVECTOR3		GetPos()	{ return m_vPos; }

  000b6	66 0f d6 45 cc	 movq	 QWORD PTR $T2[ebp], xmm0
; File C:\Program Files\Microsoft Visual Studio\2022\Professional\VC\Tools\MSVC\14.44.35207\atlmfc\include\atltypes.h

; 652  : 	return ::PtInRect(this, point);

  000bb	51		 push	 ecx
  000bc	ff 75 e8	 push	 DWORD PTR _rect$GSCopy$1$[ebp]
  000bf	ff 15 00 00 00
	00		 call	 DWORD PTR __imp__PtInRect@12
; File C:\IAGOS\server\v18\Source\Source\_common\guild.cpp

; 997  : 				if( rect.PtInRect( point ) )

  000c5	85 c0		 test	 eax, eax
  000c7	74 6d		 je	 SHORT $LN142@ReplaceLod

; 998  : 				{
; 999  : 					PRegionElem pRgnElem	= NULL;
; 1000 : 					if( pWorld->GetID() != pWorld->m_dwIdWorldRevival && pWorld->m_dwIdWorldRevival != 0 )

  000c9	8b 8f 00 93 08
	00		 mov	 ecx, DWORD PTR [edi+561920]
  000cf	39 0f		 cmp	 DWORD PTR [edi], ecx
  000d1	74 1c		 je	 SHORT $LN140@ReplaceLod
  000d3	85 c9		 test	 ecx, ecx
  000d5	74 18		 je	 SHORT $LN140@ReplaceLod

; 1001 : 						pRgnElem	= g_WorldMng.GetRevivalPos( pWorld->m_dwIdWorldRevival, pWorld->m_szKeyRevival );

  000d7	8d 87 e0 92 08
	00		 lea	 eax, DWORD PTR [edi+561888]
  000dd	50		 push	 eax
  000de	51		 push	 ecx
  000df	b9 00 00 00 00	 mov	 ecx, OFFSET ?g_WorldMng@@3VCWorldMng@@A ; g_WorldMng
  000e4	e8 00 00 00 00	 call	 ?GetRevivalPos@CWorldMng@@QAEPAUREGIONELEM@@KPBD@Z ; CWorldMng::GetRevivalPos
  000e9	8b c8		 mov	 ecx, eax

; 1002 : 					if( !pRgnElem )	// Find near revival pos

  000eb	85 c9		 test	 ecx, ecx
  000ed	75 2c		 jne	 SHORT $LN138@ReplaceLod
$LN140@ReplaceLod:
; File C:\IAGOS\server\v18\Source\Source\_Common\Obj.h

; 215  : 	D3DXVECTOR3		GetPos()	{ return m_vPos; }

  000ef	8b 86 68 01 00
	00		 mov	 eax, DWORD PTR [esi+360]
; File C:\IAGOS\server\v18\Source\Source\_common\guild.cpp

; 1003 : 						pRgnElem	= g_WorldMng.GetNearRevivalPos( pWorld->GetID(), pUser->GetPos() );

  000f5	b9 00 00 00 00	 mov	 ecx, OFFSET ?g_WorldMng@@3VCWorldMng@@A ; g_WorldMng
; File C:\IAGOS\server\v18\Source\Source\_Common\Obj.h

; 215  : 	D3DXVECTOR3		GetPos()	{ return m_vPos; }

  000fa	f3 0f 7e 86 60
	01 00 00	 movq	 xmm0, QWORD PTR [esi+352]
  00102	89 45 f8	 mov	 DWORD PTR $T5[ebp+8], eax
; File C:\IAGOS\server\v18\Source\Source\_common\guild.cpp

; 1003 : 						pRgnElem	= g_WorldMng.GetNearRevivalPos( pWorld->GetID(), pUser->GetPos() );

  00105	8d 45 f0	 lea	 eax, DWORD PTR $T5[ebp]
  00108	50		 push	 eax
  00109	ff 37		 push	 DWORD PTR [edi]
; File C:\IAGOS\server\v18\Source\Source\_Common\Obj.h

; 215  : 	D3DXVECTOR3		GetPos()	{ return m_vPos; }

  0010b	66 0f d6 45 f0	 movq	 QWORD PTR $T5[ebp], xmm0
; File C:\IAGOS\server\v18\Source\Source\_common\guild.cpp

; 1003 : 						pRgnElem	= g_WorldMng.GetNearRevivalPos( pWorld->GetID(), pUser->GetPos() );

  00110	e8 00 00 00 00	 call	 ?GetNearRevivalPos@CWorldMng@@QAEPAUREGIONELEM@@KAAUD3DXVECTOR3@@@Z ; CWorldMng::GetNearRevivalPos
  00115	8b c8		 mov	 ecx, eax

; 1004 : 					if( pRgnElem )

  00117	85 c9		 test	 ecx, ecx
  00119	74 1b		 je	 SHORT $LN142@ReplaceLod
$LN138@ReplaceLod:

; 1005 : 						pUser->REPLACE( g_uIdofMulti, pRgnElem->m_dwWorldId, pRgnElem->m_vPos, REPLACE_NORMAL, nRevivalLayer );

  0011b	6a 00		 push	 0
  0011d	6a 00		 push	 0
  0011f	8d 41 10	 lea	 eax, DWORD PTR [ecx+16]
  00122	50		 push	 eax
  00123	ff b1 c0 02 00
	00		 push	 DWORD PTR [ecx+704]
  00129	8b ce		 mov	 ecx, esi
  0012b	ff 35 00 00 00
	00		 push	 DWORD PTR ?g_uIdofMulti@@3KA ; g_uIdofMulti
  00131	e8 00 00 00 00	 call	 ?Replace@CMover@@QAEHKKAAUD3DXVECTOR3@@W4REPLACE_TYPE@@H@Z ; CMover::Replace
$LN142@ReplaceLod:
; File C:\Program Files\Microsoft Visual Studio\2022\Professional\VC\Tools\MSVC\14.44.35207\include\xtree

; 198  :         _Mybase::operator++();

  00136	8b 1d 28 00 00
	00		 mov	 ebx, DWORD PTR ?prj@@3VCProject@@A+40
$LN2@ReplaceLod:
  0013c	8d 4d ec	 lea	 ecx, DWORD PTR _i$4[ebp]
  0013f	e8 00 00 00 00	 call	 ??E?$_Tree_unchecked_const_iterator@V?$_Tree_val@U?$_Tree_simple_types@U?$pair@$$CBKPAVCGuildMember@@@std@@@std@@@std@@U_Iterator_base0@2@@std@@QAEAAV01@XZ ; std::_Tree_unchecked_const_iterator<std::_Tree_val<std::_Tree_simple_types<std::pair<unsigned long const ,CGuildMember *> > >,std::_Iterator_base0>::operator++

; 237  :         return !(*this == _Right);

  00144	8b 4d e4	 mov	 ecx, DWORD PTR _this$1$[ebp]
  00147	8b 45 ec	 mov	 eax, DWORD PTR _i$4[ebp]
  0014a	3b 41 38	 cmp	 eax, DWORD PTR [ecx+56]
; File C:\IAGOS\server\v18\Source\Source\_common\guild.cpp

; 987  : 	for( map<u_long, CGuildMember*>::iterator i = m_mapPMember.begin(); i != m_mapPMember.end(); ++i )

  0014d	0f 85 e1 fe ff
	ff		 jne	 $LL4@ReplaceLod
  00153	5f		 pop	 edi
  00154	5e		 pop	 esi
  00155	5b		 pop	 ebx
$LN3@ReplaceLod:

; 1006 : 				}
; 1007 : 			}
; 1008 : 		}
; 1009 : 	}
; 1010 : }

  00156	8b 4d fc	 mov	 ecx, DWORD PTR __$ArrayPad$[ebp]
  00159	33 cd		 xor	 ecx, ebp
  0015b	e8 00 00 00 00	 call	 @__security_check_cookie@4
  00160	8b e5		 mov	 esp, ebp
  00162	5d		 pop	 ebp
  00163	c2 04 00	 ret	 4
?ReplaceLodestar@CGuild@@QAEXABVCRect@@@Z ENDP		; CGuild::ReplaceLodestar
_TEXT	ENDS
; Function compile flags: /Ogtp
; File C:\IAGOS\server\v18\Source\Source\_common\guild.cpp
; File C:\Program Files\Microsoft Visual Studio\2022\Professional\VC\Tools\MSVC\14.44.35207\include\xtree
; File C:\IAGOS\server\v18\Source\Source\_common\guild.cpp
; File C:\Program Files\Microsoft Visual Studio\2022\Professional\VC\Tools\MSVC\14.44.35207\include\xtree
; File C:\IAGOS\server\v18\Source\Source\_common\guild.cpp
; File C:\Program Files\Microsoft Visual Studio\2022\Professional\VC\Tools\MSVC\14.44.35207\include\xtree
; File C:\Program Files\Microsoft Visual Studio\2022\Professional\VC\Tools\MSVC\14.44.35207\include\type_traits
; File C:\Program Files\Microsoft Visual Studio\2022\Professional\VC\Tools\MSVC\14.44.35207\include\xtree
; File C:\Program Files\Microsoft Visual Studio\2022\Professional\VC\Tools\MSVC\14.44.35207\include\type_traits
; File C:\Program Files\Microsoft Visual Studio\2022\Professional\VC\Tools\MSVC\14.44.35207\include\xtree
; File C:\IAGOS\server\v18\Source\Source\_Common\Project.h
; File C:\IAGOS\server\v18\Source\Source\_Common\Obj.h
; File C:\IAGOS\server\v18\Source\Source\_common\guild.cpp
; File C:\Program Files\Microsoft Visual Studio\2022\Professional\VC\Tools\MSVC\14.44.35207\include\xtree
; File C:\IAGOS\server\v18\Source\Source\_common\guild.cpp
;	COMDAT ?SetQuest@CGuild@@QAEXHH@Z
_TEXT	SEGMENT
_nQuestId$ = 8						; size = 4
_nState$ = 12						; size = 4
_i$2 = 12						; size = 4
?SetQuest@CGuild@@QAEXHH@Z PROC				; CGuild::SetQuest, COMDAT
; _this$ = ecx

; 910  : {

  00000	55		 push	 ebp
  00001	8b ec		 mov	 ebp, esp
  00003	53		 push	 ebx
  00004	56		 push	 esi

; 911  : 	PGUILDQUEST pQuest	= FindQuest( nQuestId );

  00005	8b 75 08	 mov	 esi, DWORD PTR _nQuestId$[ebp]
  00008	57		 push	 edi
  00009	56		 push	 esi
  0000a	8b f9		 mov	 edi, ecx
  0000c	e8 00 00 00 00	 call	 ?FindQuest@CGuild@@QAEPAU_GUILDQUEST@@H@Z ; CGuild::FindQuest

; 912  : 	if( !pQuest )

  00011	85 c0		 test	 eax, eax
  00013	75 4b		 jne	 SHORT $LN11@SetQuest

; 913  : 	{
; 914  : 		if( m_nQuestSize >= MAX_GUILD_QUEST )

  00015	8a 9f 40 0d 00
	00		 mov	 bl, BYTE PTR [edi+3392]

; 915  : 		{
; 916  : 			Error( "OVER MAX_GUILD_QUEST" );
; 917  : 			return;
; 918  : 		}
; 919  : 		for( int i = 0; i < m_nQuestSize; i++ )

  0001b	33 c9		 xor	 ecx, ecx
  0001d	0f b6 d3	 movzx	 edx, bl
  00020	84 db		 test	 bl, bl
  00022	74 25		 je	 SHORT $LN137@SetQuest

; 913  : 	{
; 914  : 		if( m_nQuestSize >= MAX_GUILD_QUEST )

  00024	8d 87 40 01 00
	00		 lea	 eax, DWORD PTR [edi+320]
  0002a	66 0f 1f 44 00
	00		 npad	 6
$LL4@SetQuest:

; 920  : 		{
; 921  : 			if( m_aQuest[i].nId == -1 )

  00030	83 38 ff	 cmp	 DWORD PTR [eax], -1
  00033	74 0a		 je	 SHORT $LN128@SetQuest

; 915  : 		{
; 916  : 			Error( "OVER MAX_GUILD_QUEST" );
; 917  : 			return;
; 918  : 		}
; 919  : 		for( int i = 0; i < m_nQuestSize; i++ )

  00035	41		 inc	 ecx
  00036	83 c0 0c	 add	 eax, 12			; 0000000cH
  00039	3b ca		 cmp	 ecx, edx
  0003b	7c f3		 jl	 SHORT $LL4@SetQuest

; 920  : 		{
; 921  : 			if( m_aQuest[i].nId == -1 )

  0003d	eb 0a		 jmp	 SHORT $LN137@SetQuest
$LN128@SetQuest:

; 922  : 			{
; 923  : 				pQuest	= m_pQuest	= &m_aQuest[i];

  0003f	89 87 44 0d 00
	00		 mov	 DWORD PTR [edi+3396], eax

; 924  : 				break;
; 925  : 			}
; 926  : 		}
; 927  : 		if( !pQuest )

  00045	85 c0		 test	 eax, eax
  00047	75 17		 jne	 SHORT $LN11@SetQuest
$LN137@SetQuest:

; 928  : 			pQuest	= m_pQuest	= &m_aQuest[m_nQuestSize++];

  00049	8d 42 28	 lea	 eax, DWORD PTR [edx+40]
  0004c	fe c3		 inc	 bl
  0004e	8d 04 42	 lea	 eax, DWORD PTR [edx+eax*2]
  00051	88 9f 40 0d 00
	00		 mov	 BYTE PTR [edi+3392], bl
  00057	8d 04 87	 lea	 eax, DWORD PTR [edi+eax*4]
  0005a	89 87 44 0d 00
	00		 mov	 DWORD PTR [edi+3396], eax
$LN11@SetQuest:

; 929  : 	}
; 930  : 	
; 931  : 	pQuest->nState	= nState;

  00060	8b 5d 0c	 mov	 ebx, DWORD PTR _nState$[ebp]
  00063	89 58 04	 mov	 DWORD PTR [eax+4], ebx

; 932  : 	pQuest->nId		= nQuestId;

  00066	89 30		 mov	 DWORD PTR [eax], esi
; File C:\Program Files\Microsoft Visual Studio\2022\Professional\VC\Tools\MSVC\14.44.35207\include\xtree

; 1142 :         return iterator(_Scary->_Myhead->_Left, _Scary);

  00068	8b 4f 38	 mov	 ecx, DWORD PTR [edi+56]

; 37   :     _Tree_unchecked_const_iterator(_Nodeptr _Pnode, const _Mytree* _Plist) noexcept : _Ptr(_Pnode) {

  0006b	8b 01		 mov	 eax, DWORD PTR [ecx]
  0006d	89 45 0c	 mov	 DWORD PTR _i$2[ebp], eax

; 237  :         return !(*this == _Right);

  00070	3b c1		 cmp	 eax, ecx
; File C:\IAGOS\server\v18\Source\Source\_common\guild.cpp

; 936  : 	for( map<u_long, CGuildMember*>::iterator i = m_mapPMember.begin(); i != m_mapPMember.end(); ++i )

  00072	74 6e		 je	 SHORT $LN6@SetQuest
  00074	8b 35 28 00 00
	00		 mov	 esi, DWORD PTR ?prj@@3VCProject@@A+40
  0007a	66 0f 1f 44 00
	00		 npad	 6
$LL7@SetQuest:

; 939  : 		pUser	= (CUser*)prj.GetUserByID( pMember->m_idPlayer );

  00080	8b 40 14	 mov	 eax, DWORD PTR [eax+20]
; File C:\Program Files\Microsoft Visual Studio\2022\Professional\VC\Tools\MSVC\14.44.35207\include\xtree

; 1630 :         _Tree_find_result<_Nodeptr> _Result{{_Scary->_Myhead->_Parent, _Tree_child::_Right}, _Scary->_Myhead};

  00083	8b ce		 mov	 ecx, esi
; File C:\IAGOS\server\v18\Source\Source\_common\guild.cpp

; 939  : 		pUser	= (CUser*)prj.GetUserByID( pMember->m_idPlayer );

  00085	8b 50 04	 mov	 edx, DWORD PTR [eax+4]
; File C:\Program Files\Microsoft Visual Studio\2022\Professional\VC\Tools\MSVC\14.44.35207\include\xtree

; 1630 :         _Tree_find_result<_Nodeptr> _Result{{_Scary->_Myhead->_Parent, _Tree_child::_Right}, _Scary->_Myhead};

  00088	8b 46 04	 mov	 eax, DWORD PTR [esi+4]

; 1631 :         _Nodeptr _Trynode = _Result._Location._Parent;
; 1632 :         while (!_Trynode->_Isnil) {

  0008b	80 78 0d 00	 cmp	 BYTE PTR [eax+13], 0
  0008f	75 14		 jne	 SHORT $LN69@SetQuest
$LL68@SetQuest:
; File C:\Program Files\Microsoft Visual Studio\2022\Professional\VC\Tools\MSVC\14.44.35207\include\type_traits

; 2380 :         return _Left < _Right;

  00091	39 50 10	 cmp	 DWORD PTR [eax+16], edx
; File C:\Program Files\Microsoft Visual Studio\2022\Professional\VC\Tools\MSVC\14.44.35207\include\xtree

; 1634 :             if (_DEBUG_LT_PRED(_Getcomp(), _Traits::_Kfn(_Trynode->_Myval), _Keyval)) {

  00094	73 05		 jae	 SHORT $LN70@SetQuest

; 1635 :                 _Result._Location._Child = _Tree_child::_Right;
; 1636 :                 _Trynode                 = _Trynode->_Right;

  00096	8b 40 08	 mov	 eax, DWORD PTR [eax+8]

; 1637 :             } else {

  00099	eb 04		 jmp	 SHORT $LN71@SetQuest
$LN70@SetQuest:

; 1638 :                 _Result._Location._Child = _Tree_child::_Left;
; 1639 :                 _Result._Bound           = _Trynode;

  0009b	8b c8		 mov	 ecx, eax

; 1640 :                 _Trynode                 = _Trynode->_Left;

  0009d	8b 00		 mov	 eax, DWORD PTR [eax]
$LN71@SetQuest:

; 1631 :         _Nodeptr _Trynode = _Result._Location._Parent;
; 1632 :         while (!_Trynode->_Isnil) {

  0009f	80 78 0d 00	 cmp	 BYTE PTR [eax+13], 0
  000a3	74 ec		 je	 SHORT $LL68@SetQuest
$LN69@SetQuest:

; 1624 :         return !_Bound->_Isnil && !_DEBUG_LT_PRED(_Getcomp(), _Keyval, _Traits::_Kfn(_Bound->_Myval));

  000a5	80 79 0d 00	 cmp	 BYTE PTR [ecx+13], 0
  000a9	75 05		 jne	 SHORT $LN65@SetQuest
; File C:\Program Files\Microsoft Visual Studio\2022\Professional\VC\Tools\MSVC\14.44.35207\include\type_traits

; 2380 :         return _Left < _Right;

  000ab	3b 51 10	 cmp	 edx, DWORD PTR [ecx+16]
; File C:\Program Files\Microsoft Visual Studio\2022\Professional\VC\Tools\MSVC\14.44.35207\include\xtree

; 1624 :         return !_Bound->_Isnil && !_DEBUG_LT_PRED(_Getcomp(), _Keyval, _Traits::_Kfn(_Bound->_Myval));

  000ae	73 02		 jae	 SHORT $LN64@SetQuest
$LN65@SetQuest:

; 1389 :         return _Get_scary()->_Myhead;

  000b0	8b ce		 mov	 ecx, esi
$LN64@SetQuest:

; 37   :     _Tree_unchecked_const_iterator(_Nodeptr _Pnode, const _Mytree* _Plist) noexcept : _Ptr(_Pnode) {

  000b2	3b ce		 cmp	 ecx, esi
; File C:\IAGOS\server\v18\Source\Source\_Common\Project.h

; 1436 : 	if( i != m_idPlayerToUserPtr.end() )

  000b4	74 1c		 je	 SHORT $LN5@SetQuest

; 1437 : 		return i->second;

  000b6	8b 49 14	 mov	 ecx, DWORD PTR [ecx+20]
; File C:\IAGOS\server\v18\Source\Source\_Common\Obj.h

; 327  : 	return pObj && ( pObj->IsDelete() == FALSE ); 

  000b9	85 c9		 test	 ecx, ecx
  000bb	74 15		 je	 SHORT $LN5@SetQuest

; 180  : 	BOOL			IsDelete()	{ return (m_dwFlags & OBJ_FLAG_DELETE);  }

  000bd	f6 41 04 01	 test	 BYTE PTR [ecx+4], 1

; 327  : 	return pObj && ( pObj->IsDelete() == FALSE ); 

  000c1	75 0f		 jne	 SHORT $LN5@SetQuest
; File C:\IAGOS\server\v18\Source\Source\_common\guild.cpp

; 941  : 			pUser->AddSetGuildQuest( nQuestId, nState );

  000c3	53		 push	 ebx
  000c4	ff 75 08	 push	 DWORD PTR _nQuestId$[ebp]
  000c7	e8 00 00 00 00	 call	 ?AddSetGuildQuest@CUser@@QAEXHH@Z ; CUser::AddSetGuildQuest
  000cc	8b 35 28 00 00
	00		 mov	 esi, DWORD PTR ?prj@@3VCProject@@A+40
$LN5@SetQuest:
; File C:\Program Files\Microsoft Visual Studio\2022\Professional\VC\Tools\MSVC\14.44.35207\include\xtree

; 198  :         _Mybase::operator++();

  000d2	8d 4d 0c	 lea	 ecx, DWORD PTR _i$2[ebp]
  000d5	e8 00 00 00 00	 call	 ??E?$_Tree_unchecked_const_iterator@V?$_Tree_val@U?$_Tree_simple_types@U?$pair@$$CBKPAVCGuildMember@@@std@@@std@@@std@@U_Iterator_base0@2@@std@@QAEAAV01@XZ ; std::_Tree_unchecked_const_iterator<std::_Tree_val<std::_Tree_simple_types<std::pair<unsigned long const ,CGuildMember *> > >,std::_Iterator_base0>::operator++

; 237  :         return !(*this == _Right);

  000da	8b 45 0c	 mov	 eax, DWORD PTR _i$2[ebp]
  000dd	3b 47 38	 cmp	 eax, DWORD PTR [edi+56]
; File C:\IAGOS\server\v18\Source\Source\_common\guild.cpp

; 936  : 	for( map<u_long, CGuildMember*>::iterator i = m_mapPMember.begin(); i != m_mapPMember.end(); ++i )

  000e0	75 9e		 jne	 SHORT $LL7@SetQuest
$LN6@SetQuest:
  000e2	5f		 pop	 edi

; 942  : 	}
; 943  : #endif	// __WORLDSERVER
; 944  : }

  000e3	5e		 pop	 esi
  000e4	5b		 pop	 ebx
  000e5	5d		 pop	 ebp
  000e6	c2 08 00	 ret	 8
?SetQuest@CGuild@@QAEXHH@Z ENDP				; CGuild::SetQuest
_TEXT	ENDS
; Function compile flags: /Ogtp
; File C:\IAGOS\server\v18\Source\Source\_common\guild.cpp
;	COMDAT ?RemoveQuest@CGuild@@QAEHH@Z
_TEXT	SEGMENT
_nQuestId$ = 8						; size = 4
?RemoveQuest@CGuild@@QAEHH@Z PROC			; CGuild::RemoveQuest, COMDAT
; _this$ = ecx

; 947  : {

  00000	55		 push	 ebp
  00001	8b ec		 mov	 ebp, esp

; 948  : 	PGUILDQUEST pQuest	= FindQuest( nQuestId );

  00003	ff 75 08	 push	 DWORD PTR _nQuestId$[ebp]
  00006	e8 00 00 00 00	 call	 ?FindQuest@CGuild@@QAEPAU_GUILDQUEST@@H@Z ; CGuild::FindQuest

; 949  : 	if( !pQuest )

  0000b	85 c0		 test	 eax, eax
  0000d	75 04		 jne	 SHORT $LN5@RemoveQues

; 953  : #ifdef __WORLDSERVER
; 954  : 	CUser* pUser;
; 955  : 	CGuildMember* pMember;
; 956  : 	for( map<u_long, CGuildMember*>::iterator i = m_mapPMember.begin(); i != m_mapPMember.end(); ++i )
; 957  : 	{
; 958  : 		pMember	= i->second;
; 959  : 		pUser	= (CUser*)prj.GetUserByID( pMember->m_idPlayer );
; 960  : 		if( IsValidObj( pUser ) )
; 961  : 			pUser->AddRemoveGuildQuest( nQuestId );
; 962  : 	}
; 963  : #endif	// __WORLDSERVER
; 964  : }

  0000f	5d		 pop	 ebp
  00010	c2 04 00	 ret	 4
$LN5@RemoveQues:

; 950  : 		return FALSE;
; 951  : 	pQuest->nId	= -1;

  00013	c7 00 ff ff ff
	ff		 mov	 DWORD PTR [eax], -1

; 952  : 	return TRUE;

  00019	b8 01 00 00 00	 mov	 eax, 1

; 953  : #ifdef __WORLDSERVER
; 954  : 	CUser* pUser;
; 955  : 	CGuildMember* pMember;
; 956  : 	for( map<u_long, CGuildMember*>::iterator i = m_mapPMember.begin(); i != m_mapPMember.end(); ++i )
; 957  : 	{
; 958  : 		pMember	= i->second;
; 959  : 		pUser	= (CUser*)prj.GetUserByID( pMember->m_idPlayer );
; 960  : 		if( IsValidObj( pUser ) )
; 961  : 			pUser->AddRemoveGuildQuest( nQuestId );
; 962  : 	}
; 963  : #endif	// __WORLDSERVER
; 964  : }

  0001e	5d		 pop	 ebp
  0001f	c2 04 00	 ret	 4
?RemoveQuest@CGuild@@QAEHH@Z ENDP			; CGuild::RemoveQuest
_TEXT	ENDS
; Function compile flags: /Ogtp
; File C:\IAGOS\server\v18\Source\Source\_common\guild.cpp
;	COMDAT ?FindQuest@CGuild@@QAEPAU_GUILDQUEST@@H@Z
_TEXT	SEGMENT
_nQuestId$ = 8						; size = 4
?FindQuest@CGuild@@QAEPAU_GUILDQUEST@@H@Z PROC		; CGuild::FindQuest, COMDAT
; _this$ = ecx

; 967  : {

  00000	55		 push	 ebp
  00001	8b ec		 mov	 ebp, esp
  00003	56		 push	 esi

; 968  : 	if( m_pQuest && m_pQuest->nId == nQuestId )

  00004	8b 75 08	 mov	 esi, DWORD PTR _nQuestId$[ebp]
  00007	57		 push	 edi
  00008	8b f9		 mov	 edi, ecx
  0000a	8b 87 44 0d 00
	00		 mov	 eax, DWORD PTR [edi+3396]
  00010	85 c0		 test	 eax, eax
  00012	74 04		 je	 SHORT $LN5@FindQuest
  00014	39 30		 cmp	 DWORD PTR [eax], esi
  00016	74 26		 je	 SHORT $LN1@FindQuest
$LN5@FindQuest:

; 969  : 		return m_pQuest;
; 970  : 	for( int i = 0; i < m_nQuestSize; i++ )

  00018	0f b6 97 40 0d
	00 00		 movzx	 edx, BYTE PTR [edi+3392]
  0001f	33 c9		 xor	 ecx, ecx
  00021	85 d2		 test	 edx, edx
  00023	74 17		 je	 SHORT $LN3@FindQuest
  00025	8d 87 40 01 00
	00		 lea	 eax, DWORD PTR [edi+320]
  0002b	0f 1f 44 00 00	 npad	 5
$LL4@FindQuest:

; 971  : 	{
; 972  : 		if( m_aQuest[i].nId == nQuestId )

  00030	39 30		 cmp	 DWORD PTR [eax], esi
  00032	74 10		 je	 SHORT $LN9@FindQuest

; 969  : 		return m_pQuest;
; 970  : 	for( int i = 0; i < m_nQuestSize; i++ )

  00034	41		 inc	 ecx
  00035	83 c0 0c	 add	 eax, 12			; 0000000cH
  00038	3b ca		 cmp	 ecx, edx
  0003a	7c f4		 jl	 SHORT $LL4@FindQuest
$LN3@FindQuest:

; 975  : 			return m_pQuest;
; 976  : 		}
; 977  : 	}
; 978  : 	return NULL;

  0003c	33 c0		 xor	 eax, eax
$LN1@FindQuest:
  0003e	5f		 pop	 edi

; 979  : }

  0003f	5e		 pop	 esi
  00040	5d		 pop	 ebp
  00041	c2 04 00	 ret	 4
$LN9@FindQuest:

; 973  : 		{
; 974  : 			m_pQuest	= &m_aQuest[i];

  00044	89 87 44 0d 00
	00		 mov	 DWORD PTR [edi+3396], eax
  0004a	5f		 pop	 edi

; 979  : }

  0004b	5e		 pop	 esi
  0004c	5d		 pop	 ebp
  0004d	c2 04 00	 ret	 4
?FindQuest@CGuild@@QAEPAU_GUILDQUEST@@H@Z ENDP		; CGuild::FindQuest
_TEXT	ENDS
; Function compile flags: /Ogtp
; File C:\IAGOS\server\v18\Source\Source\_common\guild.cpp
; File C:\Program Files\Microsoft Visual Studio\2022\Professional\VC\Tools\MSVC\14.44.35207\include\xtree
; File C:\IAGOS\server\v18\Source\Source\_common\guild.cpp
; File C:\Program Files\Microsoft Visual Studio\2022\Professional\VC\Tools\MSVC\14.44.35207\include\xtree
; File C:\IAGOS\server\v18\Source\Source\_common\guild.cpp
;	COMDAT ??4CGuild@@QAEAAV0@AAV0@@Z
_TEXT	SEGMENT
$T1 = -8						; size = 4
_i$2 = -4						; size = 4
_source$ = 8						; size = 4
??4CGuild@@QAEAAV0@AAV0@@Z PROC				; CGuild::operator=, COMDAT
; _this$ = ecx

; 685  : {

  00000	55		 push	 ebp
  00001	8b ec		 mov	 ebp, esp
  00003	83 ec 08	 sub	 esp, 8
  00006	53		 push	 ebx
  00007	56		 push	 esi

; 686  : //	memcpy( m_adwPenya, source.m_adwPenya, sizeof(DWORD)*MAX_GM_LEVEL );
; 687  : //	memcpy( m_adwPower, source.m_adwPower, sizeof(DWORD)*MAX_GM_LEVEL );
; 688  : //	m_bActive	= source.m_bActive;
; 689  : //	m_bSendPay	= source.m_bSendPay;
; 690  : //	m_dwContributionPxp	= source.m_dwContributionPxp;
; 691  : //	m_dwFlag	= source.m_dwFlag;
; 692  : //	m_dwLogo	= source.m_dwLogo;
; 693  : //	m_idEnemyGuild	= source.m_idEnemyGuild;
; 694  : 	m_idGuild	= source.m_idGuild;

  00008	8b 75 08	 mov	 esi, DWORD PTR _source$[ebp]
  0000b	8b d9		 mov	 ebx, ecx
  0000d	8b 46 04	 mov	 eax, DWORD PTR [esi+4]
  00010	89 43 04	 mov	 DWORD PTR [ebx+4], eax

; 695  : 	m_idMaster	= source.m_idMaster;

  00013	8b 46 40	 mov	 eax, DWORD PTR [esi+64]
  00016	89 43 40	 mov	 DWORD PTR [ebx+64], eax

; 696  : //	m_idWar	= source.m_idWar;
; 697  : //	m_nGoldGuild	= source.m_nGoldGuild;
; 698  : //	m_nLevel	= source.m_nLevel;
; 699  : //	m_nLose	= source.m_nLose;
; 700  : //	m_nSurrender	= source.m_nSurrender;
; 701  : //	m_nWin	= source.m_nWin;
; 702  : //	m_nWinPoint	= source.m_nWinPoint;
; 703  : 	lstrcpy( m_szGuild, source.m_szGuild );

  00019	8d 46 08	 lea	 eax, DWORD PTR [esi+8]
  0001c	50		 push	 eax
  0001d	8d 43 08	 lea	 eax, DWORD PTR [ebx+8]
  00020	50		 push	 eax
  00021	ff 15 00 00 00
	00		 call	 DWORD PTR __imp__lstrcpyA@8
; File C:\Program Files\Microsoft Visual Studio\2022\Professional\VC\Tools\MSVC\14.44.35207\include\xtree

; 1142 :         return iterator(_Scary->_Myhead->_Left, _Scary);

  00027	8b 46 38	 mov	 eax, DWORD PTR [esi+56]

; 37   :     _Tree_unchecked_const_iterator(_Nodeptr _Pnode, const _Mytree* _Plist) noexcept : _Ptr(_Pnode) {

  0002a	8b 30		 mov	 esi, DWORD PTR [eax]
  0002c	89 75 fc	 mov	 DWORD PTR _i$2[ebp], esi

; 237  :         return !(*this == _Right);

  0002f	3b f0		 cmp	 esi, eax
; File C:\IAGOS\server\v18\Source\Source\_common\guild.cpp

; 705  : 	for( map<u_long, CGuildMember*>::iterator i = source.m_mapPMember.begin(); i != source.m_mapPMember.end(); ++ i )

  00031	74 55		 je	 SHORT $LN62@operator
  00033	57		 push	 edi
$LL4@operator:

; 706  : 	{
; 707  : 		CGuildMember* pMember	= new CGuildMember;

  00034	6a 58		 push	 88			; 00000058H
  00036	e8 00 00 00 00	 call	 ??2@YAPAXI@Z		; operator new
  0003b	83 c4 04	 add	 esp, 4
  0003e	89 45 f8	 mov	 DWORD PTR $T1[ebp], eax
  00041	85 c0		 test	 eax, eax
  00043	74 0b		 je	 SHORT $LN8@operator
  00045	8b c8		 mov	 ecx, eax
  00047	e8 00 00 00 00	 call	 ??0CGuildMember@@QAE@XZ	; CGuildMember::CGuildMember
  0004c	8b f8		 mov	 edi, eax
  0004e	eb 02		 jmp	 SHORT $LN9@operator
$LN8@operator:
  00050	33 ff		 xor	 edi, edi
$LN9@operator:

; 708  : 		*pMember	= *( i->second );

  00052	ff 76 14	 push	 DWORD PTR [esi+20]
  00055	8b cf		 mov	 ecx, edi
  00057	e8 00 00 00 00	 call	 ??4CGuildMember@@QAEAAV0@AAV0@@Z ; CGuildMember::operator=

; 709  : 		if( !AddMember( pMember ) )

  0005c	57		 push	 edi
  0005d	8b cb		 mov	 ecx, ebx
  0005f	e8 00 00 00 00	 call	 ?AddMember@CGuild@@QAEHPAVCGuildMember@@@Z ; CGuild::AddMember
  00064	85 c0		 test	 eax, eax
  00066	75 0c		 jne	 SHORT $LN2@operator

; 710  : 			{	SAFE_DELETE( pMember );	}

  00068	85 ff		 test	 edi, edi
  0006a	74 08		 je	 SHORT $LN2@operator
  0006c	8b 07		 mov	 eax, DWORD PTR [edi]
  0006e	8b cf		 mov	 ecx, edi
  00070	6a 01		 push	 1
  00072	ff 10		 call	 DWORD PTR [eax]
$LN2@operator:
; File C:\Program Files\Microsoft Visual Studio\2022\Professional\VC\Tools\MSVC\14.44.35207\include\xtree

; 198  :         _Mybase::operator++();

  00074	8d 4d fc	 lea	 ecx, DWORD PTR _i$2[ebp]
  00077	e8 00 00 00 00	 call	 ??E?$_Tree_unchecked_const_iterator@V?$_Tree_val@U?$_Tree_simple_types@U?$pair@$$CBKPAVCGuildMember@@@std@@@std@@@std@@U_Iterator_base0@2@@std@@QAEAAV01@XZ ; std::_Tree_unchecked_const_iterator<std::_Tree_val<std::_Tree_simple_types<std::pair<unsigned long const ,CGuildMember *> > >,std::_Iterator_base0>::operator++

; 237  :         return !(*this == _Right);

  0007c	8b 45 08	 mov	 eax, DWORD PTR _source$[ebp]
  0007f	8b 75 fc	 mov	 esi, DWORD PTR _i$2[ebp]
  00082	3b 70 38	 cmp	 esi, DWORD PTR [eax+56]
; File C:\IAGOS\server\v18\Source\Source\_common\guild.cpp

; 705  : 	for( map<u_long, CGuildMember*>::iterator i = source.m_mapPMember.begin(); i != source.m_mapPMember.end(); ++ i )

  00085	75 ad		 jne	 SHORT $LL4@operator
  00087	5f		 pop	 edi
$LN62@operator:
  00088	5e		 pop	 esi

; 711  : 	}
; 712  : 	return *this;
; 713  : }

  00089	8b c3		 mov	 eax, ebx
  0008b	5b		 pop	 ebx
  0008c	8b e5		 mov	 esp, ebp
  0008e	5d		 pop	 ebp
  0008f	c2 04 00	 ret	 4
??4CGuild@@QAEAAV0@AAV0@@Z ENDP				; CGuild::operator=
_TEXT	ENDS
; Function compile flags: /Ogtp
; File C:\IAGOS\server\v18\Source\Source\_common\guild.cpp
;	COMDAT ?GetMaxMemberLvSize@CGuild@@QAEHH@Z
_TEXT	SEGMENT
_nMemberLv$ = 8						; size = 4
?GetMaxMemberLvSize@CGuild@@QAEHH@Z PROC		; CGuild::GetMaxMemberLvSize, COMDAT
; _this$ = ecx

; 500  : {

  00000	55		 push	 ebp
  00001	8b ec		 mov	 ebp, esp

; 501  : 	if( nMemberLv < 0 || nMemberLv >= MAX_GM_LEVEL )

  00003	8b 45 08	 mov	 eax, DWORD PTR _nMemberLv$[ebp]
  00006	83 f8 04	 cmp	 eax, 4
  00009	77 16		 ja	 SHORT $LN3@GetMaxMemb

; 503  : 	if( nMemberLv == GUD_ROOKIE )

  0000b	75 09		 jne	 SHORT $LN4@GetMaxMemb

; 504  : 		return GetMaxMemberSize();

  0000d	e8 00 00 00 00	 call	 ?GetMaxMemberSize@CGuild@@QAEHXZ ; CGuild::GetMaxMemberSize

; 506  : }

  00012	5d		 pop	 ebp
  00013	c2 04 00	 ret	 4
$LN4@GetMaxMemb:

; 505  : 	return( CGuild::sm_anMaxMemberLvSize[nMemberLv] );

  00016	8b 04 85 00 00
	00 00		 mov	 eax, DWORD PTR ?sm_anMaxMemberLvSize@CGuild@@2PAHA[eax*4]

; 506  : }

  0001d	5d		 pop	 ebp
  0001e	c2 04 00	 ret	 4
$LN3@GetMaxMemb:

; 502  : 		return 0;

  00021	33 c0		 xor	 eax, eax

; 506  : }

  00023	5d		 pop	 ebp
  00024	c2 04 00	 ret	 4
?GetMaxMemberLvSize@CGuild@@QAEHH@Z ENDP		; CGuild::GetMaxMemberLvSize
_TEXT	ENDS
; Function compile flags: /Ogtp
; File C:\IAGOS\server\v18\Source\Source\_common\guild.cpp
; File C:\Program Files\Microsoft Visual Studio\2022\Professional\VC\Tools\MSVC\14.44.35207\include\xtree
; File C:\IAGOS\server\v18\Source\Source\_common\guild.cpp
; File C:\Program Files\Microsoft Visual Studio\2022\Professional\VC\Tools\MSVC\14.44.35207\include\xtree
; File C:\IAGOS\server\v18\Source\Source\_common\guild.cpp
; File C:\Program Files\Microsoft Visual Studio\2022\Professional\VC\Tools\MSVC\14.44.35207\include\xtree
; File C:\IAGOS\server\v18\Source\Source\_common\guild.cpp
; File C:\Program Files\Microsoft Visual Studio\2022\Professional\VC\Tools\MSVC\14.44.35207\include\xtree
; File C:\IAGOS\server\v18\Source\Source\_common\guild.cpp
;	COMDAT ?GetMemberLvSize@CGuild@@QAEHH@Z
_TEXT	SEGMENT
_i$1 = -4						; size = 4
_nMemberLv$ = 8						; size = 4
?GetMemberLvSize@CGuild@@QAEHH@Z PROC			; CGuild::GetMemberLvSize, COMDAT
; _this$ = ecx

; 488  : {

  00000	55		 push	 ebp
  00001	8b ec		 mov	 ebp, esp
  00003	51		 push	 ecx
  00004	56		 push	 esi
  00005	57		 push	 edi
; File C:\Program Files\Microsoft Visual Studio\2022\Professional\VC\Tools\MSVC\14.44.35207\include\xtree

; 1142 :         return iterator(_Scary->_Myhead->_Left, _Scary);

  00006	8b 79 38	 mov	 edi, DWORD PTR [ecx+56]
; File C:\IAGOS\server\v18\Source\Source\_common\guild.cpp

; 489  : 	int cb	= 0;

  00009	33 f6		 xor	 esi, esi
; File C:\Program Files\Microsoft Visual Studio\2022\Professional\VC\Tools\MSVC\14.44.35207\include\xtree

; 37   :     _Tree_unchecked_const_iterator(_Nodeptr _Pnode, const _Mytree* _Plist) noexcept : _Ptr(_Pnode) {

  0000b	8b 07		 mov	 eax, DWORD PTR [edi]
  0000d	89 45 fc	 mov	 DWORD PTR _i$1[ebp], eax

; 237  :         return !(*this == _Right);

  00010	3b c7		 cmp	 eax, edi
; File C:\IAGOS\server\v18\Source\Source\_common\guild.cpp

; 491  : 		i != m_mapPMember.end(); ++i )

  00012	74 2d		 je	 SHORT $LN56@GetMemberL
  00014	53		 push	 ebx
  00015	8b 5d 08	 mov	 ebx, DWORD PTR _nMemberLv$[ebp]
  00018	0f 1f 84 00 00
	00 00 00	 npad	 8
$LL4@GetMemberL:

; 493  : 		if( i->second->m_nMemberLv == nMemberLv )

  00020	8b 40 14	 mov	 eax, DWORD PTR [eax+20]
; File C:\Program Files\Microsoft Visual Studio\2022\Professional\VC\Tools\MSVC\14.44.35207\include\xtree

; 198  :         _Mybase::operator++();

  00023	8d 4e 01	 lea	 ecx, DWORD PTR [esi+1]
; File C:\IAGOS\server\v18\Source\Source\_common\guild.cpp

; 493  : 		if( i->second->m_nMemberLv == nMemberLv )

  00026	0f b6 40 48	 movzx	 eax, BYTE PTR [eax+72]
; File C:\Program Files\Microsoft Visual Studio\2022\Professional\VC\Tools\MSVC\14.44.35207\include\xtree

; 198  :         _Mybase::operator++();

  0002a	3b c3		 cmp	 eax, ebx
  0002c	0f 45 ce	 cmovne	 ecx, esi
  0002f	8b f1		 mov	 esi, ecx
  00031	8d 4d fc	 lea	 ecx, DWORD PTR _i$1[ebp]
  00034	e8 00 00 00 00	 call	 ??E?$_Tree_unchecked_const_iterator@V?$_Tree_val@U?$_Tree_simple_types@U?$pair@$$CBKPAVCGuildMember@@@std@@@std@@@std@@U_Iterator_base0@2@@std@@QAEAAV01@XZ ; std::_Tree_unchecked_const_iterator<std::_Tree_val<std::_Tree_simple_types<std::pair<unsigned long const ,CGuildMember *> > >,std::_Iterator_base0>::operator++

; 237  :         return !(*this == _Right);

  00039	8b 45 fc	 mov	 eax, DWORD PTR _i$1[ebp]
  0003c	3b c7		 cmp	 eax, edi
; File C:\IAGOS\server\v18\Source\Source\_common\guild.cpp

; 491  : 		i != m_mapPMember.end(); ++i )

  0003e	75 e0		 jne	 SHORT $LL4@GetMemberL
  00040	5b		 pop	 ebx
$LN56@GetMemberL:
  00041	5f		 pop	 edi

; 494  : 			cb++;
; 495  : 	}
; 496  : 	return cb;
; 497  : }

  00042	8b c6		 mov	 eax, esi
  00044	5e		 pop	 esi
  00045	8b e5		 mov	 esp, ebp
  00047	5d		 pop	 ebp
  00048	c2 04 00	 ret	 4
?GetMemberLvSize@CGuild@@QAEHH@Z ENDP			; CGuild::GetMemberLvSize
_TEXT	ENDS
; Function compile flags: /Ogtp
; File C:\IAGOS\server\v18\Source\Source\_common\guild.cpp
;	COMDAT ?GetMaxMemberSize@CGuild@@QAEHXZ
_TEXT	SEGMENT
?GetMaxMemberSize@CGuild@@QAEHXZ PROC			; CGuild::GetMaxMemberSize, COMDAT
; _this$ = ecx

; 510  : //	if( m_nLevel < 1 || m_nLevel > MAX_GUILD_LEVEL )
; 511  : //		return 0;
; 512  : //	return( CGuild::sm_anMaxMemberSize[m_nLevel-1] );
; 513  : 	return (int)CGuildTable::GetInstance().GetMaxMemeber( m_nLevel );

  00000	0f b7 41 44	 movzx	 eax, WORD PTR [ecx+68]
  00004	50		 push	 eax
  00005	e8 00 00 00 00	 call	 ?GetInstance@CGuildTable@@SAAAV1@XZ ; CGuildTable::GetInstance
  0000a	8b c8		 mov	 ecx, eax
  0000c	e8 00 00 00 00	 call	 ?GetMaxMemeber@CGuildTable@@QBEGG@Z ; CGuildTable::GetMaxMemeber
  00011	0f b7 c0	 movzx	 eax, ax

; 514  : }

  00014	c3		 ret	 0
?GetMaxMemberSize@CGuild@@QAEHXZ ENDP			; CGuild::GetMaxMemberSize
_TEXT	ENDS
; Function compile flags: /Ogtp
; File C:\IAGOS\server\v18\Source\Source\_common\guild.cpp
;	COMDAT ?GetWar@CGuild@@QAEPAVCGuildWar@@XZ
_TEXT	SEGMENT
?GetWar@CGuild@@QAEPAVCGuildWar@@XZ PROC		; CGuild::GetWar, COMDAT
; _this$ = ecx

; 680  : // must lock g_GuildMng
; 681  : 	return g_GuildWarMng.GetWar( m_idWar );

  00000	ff b1 3c 01 00
	00		 push	 DWORD PTR [ecx+316]
  00006	b9 00 00 00 00	 mov	 ecx, OFFSET ?g_GuildWarMng@@3VCGuildWarMng@@A ; g_GuildWarMng
  0000b	e8 00 00 00 00	 call	 ?GetWar@CGuildWarMng@@QAEPAVCGuildWar@@K@Z ; CGuildWarMng::GetWar

; 682  : }

  00010	c3		 ret	 0
?GetWar@CGuild@@QAEPAVCGuildWar@@XZ ENDP		; CGuild::GetWar
_TEXT	ENDS
; Function compile flags: /Ogtp
; File C:\IAGOS\server\v18\Source\Source\_common\guild.cpp
; File C:\Program Files\Microsoft Visual Studio\2022\Professional\VC\Tools\MSVC\14.44.35207\include\xtree
; File C:\IAGOS\server\v18\Source\Source\_common\guild.cpp
; File C:\Program Files\Microsoft Visual Studio\2022\Professional\VC\Tools\MSVC\14.44.35207\include\xtree
; File C:\Program Files\Microsoft Visual Studio\2022\Professional\VC\Tools\MSVC\14.44.35207\include\type_traits
; File C:\Program Files\Microsoft Visual Studio\2022\Professional\VC\Tools\MSVC\14.44.35207\include\xtree
; File C:\IAGOS\server\v18\Source\Source\_common\guild.cpp
;	COMDAT ?GetMember@CGuild@@QAEPAVCGuildMember@@K@Z
_TEXT	SEGMENT
__Loc$1 = -12						; size = 12
_idPlayer$ = 8						; size = 4
?GetMember@CGuild@@QAEPAVCGuildMember@@K@Z PROC		; CGuild::GetMember, COMDAT
; _this$ = ecx

; 480  : {

  00000	55		 push	 ebp
  00001	8b ec		 mov	 ebp, esp
  00003	83 ec 0c	 sub	 esp, 12			; 0000000cH
  00006	56		 push	 esi
; File C:\Program Files\Microsoft Visual Studio\2022\Professional\VC\Tools\MSVC\14.44.35207\include\xtree

; 1384 :         const _Tree_find_result<_Nodeptr> _Loc = _Find_lower_bound(_Keyval);

  00007	8d 45 08	 lea	 eax, DWORD PTR _idPlayer$[ebp]
  0000a	50		 push	 eax
; File C:\IAGOS\server\v18\Source\Source\_common\guild.cpp

; 481  : 	map<u_long, CGuildMember*>::iterator i	= m_mapPMember.find( idPlayer );

  0000b	8d 71 38	 lea	 esi, DWORD PTR [ecx+56]
; File C:\Program Files\Microsoft Visual Studio\2022\Professional\VC\Tools\MSVC\14.44.35207\include\xtree

; 1384 :         const _Tree_find_result<_Nodeptr> _Loc = _Find_lower_bound(_Keyval);

  0000e	8d 45 f4	 lea	 eax, DWORD PTR __Loc$1[ebp]
  00011	8b ce		 mov	 ecx, esi
  00013	50		 push	 eax
  00014	e8 00 00 00 00	 call	 ??$_Find_lower_bound@K@?$_Tree@V?$_Tmap_traits@KPAVCGuildMember@@U?$less@K@std@@V?$allocator@U?$pair@$$CBKPAVCGuildMember@@@std@@@3@$0A@@std@@@std@@IBE?AU?$_Tree_find_result@PAU?$_Tree_node@U?$pair@$$CBKPAVCGuildMember@@@std@@PAX@std@@@1@ABK@Z ; std::_Tree<std::_Tmap_traits<unsigned long,CGuildMember *,std::less<unsigned long>,std::allocator<std::pair<unsigned long const ,CGuildMember *> >,0> >::_Find_lower_bound<unsigned long>

; 1624 :         return !_Bound->_Isnil && !_DEBUG_LT_PRED(_Getcomp(), _Keyval, _Traits::_Kfn(_Bound->_Myval));

  00019	8b 45 fc	 mov	 eax, DWORD PTR __Loc$1[ebp+8]
  0001c	80 78 0d 00	 cmp	 BYTE PTR [eax+13], 0
  00020	75 16		 jne	 SHORT $LN2@GetMember
; File C:\Program Files\Microsoft Visual Studio\2022\Professional\VC\Tools\MSVC\14.44.35207\include\type_traits

; 2380 :         return _Left < _Right;

  00022	8b 4d 08	 mov	 ecx, DWORD PTR _idPlayer$[ebp]
  00025	3b 48 10	 cmp	 ecx, DWORD PTR [eax+16]
; File C:\Program Files\Microsoft Visual Studio\2022\Professional\VC\Tools\MSVC\14.44.35207\include\xtree

; 1624 :         return !_Bound->_Isnil && !_DEBUG_LT_PRED(_Getcomp(), _Keyval, _Traits::_Kfn(_Bound->_Myval));

  00028	72 0e		 jb	 SHORT $LN2@GetMember

; 37   :     _Tree_unchecked_const_iterator(_Nodeptr _Pnode, const _Mytree* _Plist) noexcept : _Ptr(_Pnode) {

  0002a	3b 06		 cmp	 eax, DWORD PTR [esi]
; File C:\IAGOS\server\v18\Source\Source\_common\guild.cpp

; 482  : 	if( i != m_mapPMember.end() )

  0002c	74 0a		 je	 SHORT $LN2@GetMember

; 483  : 		return i->second;

  0002e	8b 40 14	 mov	 eax, DWORD PTR [eax+20]
  00031	5e		 pop	 esi

; 485  : }

  00032	8b e5		 mov	 esp, ebp
  00034	5d		 pop	 ebp
  00035	c2 04 00	 ret	 4
$LN2@GetMember:

; 484  : 	return NULL;

  00038	33 c0		 xor	 eax, eax
  0003a	5e		 pop	 esi

; 485  : }

  0003b	8b e5		 mov	 esp, ebp
  0003d	5d		 pop	 ebp
  0003e	c2 04 00	 ret	 4
?GetMember@CGuild@@QAEPAVCGuildMember@@K@Z ENDP		; CGuild::GetMember
_TEXT	ENDS
; Function compile flags: /Ogtp
; File C:\IAGOS\server\v18\Source\Source\_common\guild.cpp
; File C:\Program Files\Microsoft Visual Studio\2022\Professional\VC\Tools\MSVC\14.44.35207\include\list
; File C:\IAGOS\server\v18\Source\Source\_common\guild.cpp
; File C:\Program Files\Microsoft Visual Studio\2022\Professional\VC\Tools\MSVC\14.44.35207\include\list
; File C:\IAGOS\server\v18\Source\Source\_common\guild.cpp
; File C:\Program Files\Microsoft Visual Studio\2022\Professional\VC\Tools\MSVC\14.44.35207\include\list
; File C:\Program Files\Microsoft Visual Studio\2022\Professional\VC\Tools\MSVC\14.44.35207\include\xmemory
; File C:\Program Files\Microsoft Visual Studio\2022\Professional\VC\Tools\MSVC\14.44.35207\include\list
; File C:\Program Files\Microsoft Visual Studio\2022\Professional\VC\Tools\MSVC\14.44.35207\include\xmemory
; File C:\IAGOS\server\v18\Source\Source\_common\guild.cpp
;	COMDAT ?ModifyVote@CGuild@@QAE_NKEE@Z
_TEXT	SEGMENT
_idVote$ = 8						; size = 4
_cbOperation$ = 12					; size = 1
_cbExtra$ = 16						; size = 1
?ModifyVote@CGuild@@QAE_NKEE@Z PROC			; CGuild::ModifyVote, COMDAT
; _this$ = ecx

; 644  : {

  00000	55		 push	 ebp
  00001	8b ec		 mov	 ebp, esp
  00003	56		 push	 esi

; 645  : 	CGuildVote* pVote = FindVote( idVote );

  00004	8b 75 08	 mov	 esi, DWORD PTR _idVote$[ebp]
  00007	57		 push	 edi
  00008	56		 push	 esi
  00009	8b f9		 mov	 edi, ecx
  0000b	e8 00 00 00 00	 call	 ?FindVote@CGuild@@QAEPAVCGuildVote@@K@Z ; CGuild::FindVote
  00010	8b d0		 mov	 edx, eax

; 646  : 	if( pVote == NULL )

  00012	85 d2		 test	 edx, edx
  00014	75 08		 jne	 SHORT $LN7@ModifyVote

; 647  : 		return false;

  00016	5f		 pop	 edi
  00017	32 c0		 xor	 al, al

; 676  : }

  00019	5e		 pop	 esi
  0001a	5d		 pop	 ebp
  0001b	c2 0c 00	 ret	 12			; 0000000cH
$LN7@ModifyVote:

; 648  : 
; 649  : 	switch( cbOperation )

  0001e	0f b6 45 0c	 movzx	 eax, BYTE PTR _cbOperation$[ebp]
  00022	83 e8 00	 sub	 eax, 0
  00025	74 28		 je	 SHORT $LN8@ModifyVote
  00027	83 e8 01	 sub	 eax, 1
  0002a	74 17		 je	 SHORT $LN10@ModifyVote
  0002c	83 e8 01	 sub	 eax, 1
  0002f	75 65		 jne	 SHORT $LN5@ModifyVote

; 667  : 		break;
; 668  : 	case CAST_VOTE:
; 669  : 		pVote->Cast( cbExtra );

  00031	ff 75 10	 push	 DWORD PTR _cbExtra$[ebp]
  00034	8b ca		 mov	 ecx, edx
  00036	e8 00 00 00 00	 call	 ?Cast@CGuildVote@@QAEXE@Z ; CGuildVote::Cast
  0003b	5f		 pop	 edi

; 675  : 	return true;

  0003c	b0 01		 mov	 al, 1

; 676  : }

  0003e	5e		 pop	 esi
  0003f	5d		 pop	 ebp
  00040	c2 0c 00	 ret	 12			; 0000000cH
$LN10@ModifyVote:
  00043	5f		 pop	 edi

; 658  : 				{
; 659  : 					m_votes.erase( it );
; 660  : 					break;
; 661  : 				}
; 662  : 			}
; 663  : 		}
; 664  : 		break;
; 665  : 	case CLOSE_VOTE:
; 666  : 		pVote->SetComplete();

  00044	c6 42 08 01	 mov	 BYTE PTR [edx+8], 1

; 675  : 	return true;

  00048	b0 01		 mov	 al, 1

; 676  : }

  0004a	5e		 pop	 esi
  0004b	5d		 pop	 ebp
  0004c	c2 0c 00	 ret	 12			; 0000000cH
$LN8@ModifyVote:
; File C:\Program Files\Microsoft Visual Studio\2022\Professional\VC\Tools\MSVC\14.44.35207\include\list

; 1105 :         return iterator(_Mypair._Myval2._Myhead->_Next, _STD addressof(_Mypair._Myval2));

  0004f	8b 97 1c 01 00
	00		 mov	 edx, DWORD PTR [edi+284]

; 37   :     _List_unchecked_const_iterator(_Nodeptr _Pnode, const _Mylist* _Plist) noexcept : _Ptr(_Pnode) {

  00055	8b 02		 mov	 eax, DWORD PTR [edx]

; 202  :         return !(*this == _Right);

  00057	3b c2		 cmp	 eax, edx
; File C:\IAGOS\server\v18\Source\Source\_common\guild.cpp

; 655  : 			for ( ; it != m_votes.end() ; ++it )

  00059	74 3b		 je	 SHORT $LN5@ModifyVote
  0005b	0f 1f 44 00 00	 npad	 5
$LL6@ModifyVote:

; 656  : 			{
; 657  : 				if ( (*it)->GetID() == idVote )

  00060	8b 48 08	 mov	 ecx, DWORD PTR [eax+8]
  00063	39 71 04	 cmp	 DWORD PTR [ecx+4], esi
  00066	8b 08		 mov	 ecx, DWORD PTR [eax]
  00068	74 0e		 je	 SHORT $LN98@ModifyVote
; File C:\Program Files\Microsoft Visual Studio\2022\Professional\VC\Tools\MSVC\14.44.35207\include\list

; 164  :         this->_Ptr = this->_Ptr->_Next;

  0006a	8b c1		 mov	 eax, ecx

; 202  :         return !(*this == _Right);

  0006c	3b ca		 cmp	 ecx, edx
; File C:\IAGOS\server\v18\Source\Source\_common\guild.cpp

; 655  : 			for ( ; it != m_votes.end() ; ++it )

  0006e	75 f0		 jne	 SHORT $LL6@ModifyVote

; 675  : 	return true;

  00070	5f		 pop	 edi
  00071	b0 01		 mov	 al, 1

; 676  : }

  00073	5e		 pop	 esi
  00074	5d		 pop	 ebp
  00075	c2 0c 00	 ret	 12			; 0000000cH
$LN98@ModifyVote:
; File C:\Program Files\Microsoft Visual Studio\2022\Professional\VC\Tools\MSVC\14.44.35207\include\list

; 405  :         _Pnode->_Prev->_Next = _Pnode->_Next;

  00078	8b 50 04	 mov	 edx, DWORD PTR [eax+4]
; File C:\Program Files\Microsoft Visual Studio\2022\Professional\VC\Tools\MSVC\14.44.35207\include\xmemory

; 289  :         ::operator delete(_Ptr, _Bytes);

  0007b	6a 0c		 push	 12			; 0000000cH
  0007d	50		 push	 eax
; File C:\Program Files\Microsoft Visual Studio\2022\Professional\VC\Tools\MSVC\14.44.35207\include\list

; 405  :         _Pnode->_Prev->_Next = _Pnode->_Next;

  0007e	89 0a		 mov	 DWORD PTR [edx], ecx

; 406  :         _Pnode->_Next->_Prev = _Pnode->_Prev;

  00080	8b 10		 mov	 edx, DWORD PTR [eax]
  00082	8b 48 04	 mov	 ecx, DWORD PTR [eax+4]
  00085	89 4a 04	 mov	 DWORD PTR [edx+4], ecx

; 407  :         --_Mysize;

  00088	ff 8f 20 01 00
	00		 dec	 DWORD PTR [edi+288]
; File C:\Program Files\Microsoft Visual Studio\2022\Professional\VC\Tools\MSVC\14.44.35207\include\xmemory

; 289  :         ::operator delete(_Ptr, _Bytes);

  0008e	e8 00 00 00 00	 call	 ??3@YAXPAXI@Z		; operator delete
  00093	83 c4 08	 add	 esp, 8
$LN5@ModifyVote:
  00096	5f		 pop	 edi
; File C:\IAGOS\server\v18\Source\Source\_common\guild.cpp

; 675  : 	return true;

  00097	b0 01		 mov	 al, 1

; 676  : }

  00099	5e		 pop	 esi
  0009a	5d		 pop	 ebp
  0009b	c2 0c 00	 ret	 12			; 0000000cH
?ModifyVote@CGuild@@QAE_NKEE@Z ENDP			; CGuild::ModifyVote
_TEXT	ENDS
; Function compile flags: /Ogtp
; File C:\IAGOS\server\v18\Source\Source\_common\guild.cpp
; File C:\Program Files\Microsoft Visual Studio\2022\Professional\VC\Tools\MSVC\14.44.35207\include\list
; File C:\IAGOS\server\v18\Source\Source\_common\guild.cpp
; File C:\Program Files\Microsoft Visual Studio\2022\Professional\VC\Tools\MSVC\14.44.35207\include\list
; File C:\IAGOS\server\v18\Source\Source\_common\guild.cpp
; File C:\Program Files\Microsoft Visual Studio\2022\Professional\VC\Tools\MSVC\14.44.35207\include\list
; File C:\IAGOS\server\v18\Source\Source\_common\guild.cpp
;	COMDAT ?FindVote@CGuild@@QAEPAVCGuildVote@@K@Z
_TEXT	SEGMENT
_idVote$ = 8						; size = 4
?FindVote@CGuild@@QAEPAVCGuildVote@@K@Z PROC		; CGuild::FindVote, COMDAT
; _this$ = ecx

; 632  : {

  00000	55		 push	 ebp
  00001	8b ec		 mov	 ebp, esp
; File C:\Program Files\Microsoft Visual Studio\2022\Professional\VC\Tools\MSVC\14.44.35207\include\list

; 1105 :         return iterator(_Mypair._Myval2._Myhead->_Next, _STD addressof(_Mypair._Myval2));

  00003	8b 91 1c 01 00
	00		 mov	 edx, DWORD PTR [ecx+284]
; File C:\IAGOS\server\v18\Source\Source\_common\guild.cpp

; 632  : {

  00009	56		 push	 esi
; File C:\Program Files\Microsoft Visual Studio\2022\Professional\VC\Tools\MSVC\14.44.35207\include\list

; 37   :     _List_unchecked_const_iterator(_Nodeptr _Pnode, const _Mylist* _Plist) noexcept : _Ptr(_Pnode) {

  0000a	8b 02		 mov	 eax, DWORD PTR [edx]

; 202  :         return !(*this == _Right);

  0000c	3b c2		 cmp	 eax, edx
; File C:\IAGOS\server\v18\Source\Source\_common\guild.cpp

; 634  : 	for ( ; it != m_votes.end() ; ++it )

  0000e	74 13		 je	 SHORT $LN3@FindVote
  00010	8b 75 08	 mov	 esi, DWORD PTR _idVote$[ebp]
$LL4@FindVote:

; 635  : 	{
; 636  : 		if ( (*it)->GetID() == idVote )

  00013	8b 48 08	 mov	 ecx, DWORD PTR [eax+8]
  00016	39 71 04	 cmp	 DWORD PTR [ecx+4], esi
  00019	74 0f		 je	 SHORT $LN56@FindVote
; File C:\Program Files\Microsoft Visual Studio\2022\Professional\VC\Tools\MSVC\14.44.35207\include\list

; 164  :         this->_Ptr = this->_Ptr->_Next;

  0001b	8b 08		 mov	 ecx, DWORD PTR [eax]
  0001d	8b c1		 mov	 eax, ecx

; 202  :         return !(*this == _Right);

  0001f	3b ca		 cmp	 ecx, edx
; File C:\IAGOS\server\v18\Source\Source\_common\guild.cpp

; 634  : 	for ( ; it != m_votes.end() ; ++it )

  00021	75 f0		 jne	 SHORT $LL4@FindVote
$LN3@FindVote:

; 638  : 	}
; 639  : 	return NULL;

  00023	33 c0		 xor	 eax, eax
  00025	5e		 pop	 esi

; 640  : }

  00026	5d		 pop	 ebp
  00027	c2 04 00	 ret	 4
$LN56@FindVote:

; 637  : 			return *it;

  0002a	8b c1		 mov	 eax, ecx
  0002c	5e		 pop	 esi

; 640  : }

  0002d	5d		 pop	 ebp
  0002e	c2 04 00	 ret	 4
?FindVote@CGuild@@QAEPAVCGuildVote@@K@Z ENDP		; CGuild::FindVote
_TEXT	ENDS
; Function compile flags: /Ogtp
; File C:\IAGOS\server\v18\Source\Source\_common\guild.cpp
; File C:\Program Files\Microsoft Visual Studio\2022\Professional\VC\Tools\MSVC\14.44.35207\include\list
; File C:\IAGOS\server\v18\Source\Source\_common\guild.cpp
; File C:\Program Files\Microsoft Visual Studio\2022\Professional\VC\Tools\MSVC\14.44.35207\include\list
; File C:\Program Files\Microsoft Visual Studio\2022\Professional\VC\Tools\MSVC\14.44.35207\include\xmemory
; File C:\Program Files\Microsoft Visual Studio\2022\Professional\VC\Tools\MSVC\14.44.35207\include\list
; File C:\Program Files\Microsoft Visual Studio\2022\Professional\VC\Tools\MSVC\14.44.35207\include\xmemory
; File C:\Program Files\Microsoft Visual Studio\2022\Professional\VC\Tools\MSVC\14.44.35207\include\list
; File C:\Program Files\Microsoft Visual Studio\2022\Professional\VC\Tools\MSVC\14.44.35207\include\xmemory
; File C:\IAGOS\server\v18\Source\Source\_common\guild.cpp
;	COMDAT ?AddVote@CGuild@@QAEXABUVOTE_INSERTED_INFO@@_NPAE@Z
_TEXT	SEGMENT
_pVote$ = -4						; size = 4
$T1 = -4						; size = 4
_info$ = 8						; size = 4
_bCompleted$ = 12					; size = 1
_cbCounts$ = 16						; size = 4
?AddVote@CGuild@@QAEXABUVOTE_INSERTED_INFO@@_NPAE@Z PROC ; CGuild::AddVote, COMDAT
; _this$ = ecx

; 618  : {

  00000	55		 push	 ebp
  00001	8b ec		 mov	 ebp, esp
  00003	51		 push	 ecx

; 619  : 	if( m_votes.size() >= MAX_VOTE_ENTRY )

  00004	83 b9 20 01 00
	00 14		 cmp	 DWORD PTR [ecx+288], 20	; 00000014H
  0000b	56		 push	 esi
  0000c	8d b1 1c 01 00
	00		 lea	 esi, DWORD PTR [ecx+284]
  00012	72 30		 jb	 SHORT $LN42@AddVote
; File C:\Program Files\Microsoft Visual Studio\2022\Professional\VC\Tools\MSVC\14.44.35207\include\list

; 1225 :         return _Mypair._Myval2._Myhead->_Next->_Myval;

  00014	8b 06		 mov	 eax, DWORD PTR [esi]
; File C:\IAGOS\server\v18\Source\Source\_common\guild.cpp

; 621  : 		safe_delete( m_votes.front() );

  00016	8b 00		 mov	 eax, DWORD PTR [eax]
  00018	8b 48 08	 mov	 ecx, DWORD PTR [eax+8]
  0001b	85 c9		 test	 ecx, ecx
  0001d	74 06		 je	 SHORT $LN4@AddVote
  0001f	8b 01		 mov	 eax, DWORD PTR [ecx]
  00021	6a 01		 push	 1
  00023	ff 10		 call	 DWORD PTR [eax]
$LN4@AddVote:
; File C:\Program Files\Microsoft Visual Studio\2022\Professional\VC\Tools\MSVC\14.44.35207\include\list

; 1270 :         _Unchecked_erase(_Mypair._Myval2._Myhead->_Next);

  00025	8b 06		 mov	 eax, DWORD PTR [esi]
; File C:\Program Files\Microsoft Visual Studio\2022\Professional\VC\Tools\MSVC\14.44.35207\include\xmemory

; 289  :         ::operator delete(_Ptr, _Bytes);

  00027	6a 0c		 push	 12			; 0000000cH
; File C:\Program Files\Microsoft Visual Studio\2022\Professional\VC\Tools\MSVC\14.44.35207\include\list

; 1270 :         _Unchecked_erase(_Mypair._Myval2._Myhead->_Next);

  00029	8b 10		 mov	 edx, DWORD PTR [eax]
; File C:\Program Files\Microsoft Visual Studio\2022\Professional\VC\Tools\MSVC\14.44.35207\include\xmemory

; 289  :         ::operator delete(_Ptr, _Bytes);

  0002b	52		 push	 edx
; File C:\Program Files\Microsoft Visual Studio\2022\Professional\VC\Tools\MSVC\14.44.35207\include\list

; 1438 :         const auto _Result = _Pnode->_Next;

  0002c	8b 0a		 mov	 ecx, DWORD PTR [edx]

; 1439 :         _Mypair._Myval2._Orphan_ptr2(_Pnode);
; 1440 :         --_Mypair._Myval2._Mysize;

  0002e	ff 4e 04	 dec	 DWORD PTR [esi+4]

; 1441 :         _Pnode->_Prev->_Next = _Result;

  00031	8b 42 04	 mov	 eax, DWORD PTR [edx+4]
  00034	89 08		 mov	 DWORD PTR [eax], ecx

; 1442 :         _Result->_Prev       = _Pnode->_Prev;

  00036	8b 42 04	 mov	 eax, DWORD PTR [edx+4]
  00039	89 41 04	 mov	 DWORD PTR [ecx+4], eax
; File C:\Program Files\Microsoft Visual Studio\2022\Professional\VC\Tools\MSVC\14.44.35207\include\xmemory

; 289  :         ::operator delete(_Ptr, _Bytes);

  0003c	e8 00 00 00 00	 call	 ??3@YAXPAXI@Z		; operator delete
  00041	83 c4 08	 add	 esp, 8
$LN42@AddVote:
; File C:\IAGOS\server\v18\Source\Source\_common\guild.cpp

; 625  : 	CGuildVote* pVote = new CGuildVote;

  00044	68 28 01 00 00	 push	 296			; 00000128H
  00049	e8 00 00 00 00	 call	 ??2@YAPAXI@Z		; operator new
  0004e	83 c4 04	 add	 esp, 4
  00051	89 45 fc	 mov	 DWORD PTR $T1[ebp], eax
  00054	85 c0		 test	 eax, eax
  00056	74 09		 je	 SHORT $LN6@AddVote
  00058	8b c8		 mov	 ecx, eax
  0005a	e8 00 00 00 00	 call	 ??0CGuildVote@@QAE@XZ	; CGuildVote::CGuildVote
  0005f	eb 02		 jmp	 SHORT $LN7@AddVote
$LN6@AddVote:
  00061	33 c0		 xor	 eax, eax
$LN7@AddVote:

; 626  : 	pVote->Init( info, bCompleted, cbCounts );

  00063	ff 75 10	 push	 DWORD PTR _cbCounts$[ebp]
  00066	8b c8		 mov	 ecx, eax
  00068	89 45 fc	 mov	 DWORD PTR _pVote$[ebp], eax
  0006b	ff 75 0c	 push	 DWORD PTR _bCompleted$[ebp]
  0006e	ff 75 08	 push	 DWORD PTR _info$[ebp]
  00071	e8 00 00 00 00	 call	 ?Init@CGuildVote@@QAEXABUVOTE_INSERTED_INFO@@_NPAE@Z ; CGuildVote::Init

; 627  : 	m_votes.push_back( pVote );

  00076	8d 45 fc	 lea	 eax, DWORD PTR _pVote$[ebp]
  00079	8b ce		 mov	 ecx, esi
  0007b	50		 push	 eax
  0007c	e8 00 00 00 00	 call	 ?push_back@?$list@PAVCGuildVote@@V?$allocator@PAVCGuildVote@@@std@@@std@@QAEXABQAVCGuildVote@@@Z ; std::list<CGuildVote *,std::allocator<CGuildVote *> >::push_back
  00081	5e		 pop	 esi

; 628  : }

  00082	8b e5		 mov	 esp, ebp
  00084	5d		 pop	 ebp
  00085	c2 0c 00	 ret	 12			; 0000000cH
?AddVote@CGuild@@QAEXABUVOTE_INSERTED_INFO@@_NPAE@Z ENDP ; CGuild::AddVote
_TEXT	ENDS
; Function compile flags: /Ogtp
; File C:\IAGOS\server\v18\Source\Source\_common\guild.cpp
;	COMDAT ?DecrementMemberContribution@CGuild@@QAEXKKK@Z
_TEXT	SEGMENT
_idPlayer$ = 8						; size = 4
_dwPenya$ = 12						; size = 4
_dwPxpCount$ = 16					; size = 4
?DecrementMemberContribution@CGuild@@QAEXKKK@Z PROC	; CGuild::DecrementMemberContribution, COMDAT
; _this$ = ecx

; 542  : {

  00000	55		 push	 ebp
  00001	8b ec		 mov	 ebp, esp

; 543  : 	CGuildMember* pMember = GetMember( idPlayer );

  00003	ff 75 08	 push	 DWORD PTR _idPlayer$[ebp]
  00006	e8 00 00 00 00	 call	 ?GetMember@CGuild@@QAEPAVCGuildMember@@K@Z ; CGuild::GetMember

; 544  : 	if( pMember == NULL )	// ¸âąö Ĺ»Ĺđ?

  0000b	85 c0		 test	 eax, eax
  0000d	74 0c		 je	 SHORT $LN1@DecrementM

; 545  : 	{
; 546  : 		TRACE("CGuild::SetContribution - Guild[%d] idPlayer[%d] not found \n", m_idGuild, idPlayer );
; 547  : 		return;
; 548  : 	}
; 549  : 	pMember->m_dwGivePxpCount -= dwPxpCount;

  0000f	8b 4d 10	 mov	 ecx, DWORD PTR _dwPxpCount$[ebp]
  00012	29 48 10	 sub	 DWORD PTR [eax+16], ecx

; 550  : 	pMember->m_nGiveGold -= (int)dwPenya;

  00015	8b 4d 0c	 mov	 ecx, DWORD PTR _dwPenya$[ebp]
  00018	29 48 0c	 sub	 DWORD PTR [eax+12], ecx
$LN1@DecrementM:

; 551  : }

  0001b	5d		 pop	 ebp
  0001c	c2 0c 00	 ret	 12			; 0000000cH
?DecrementMemberContribution@CGuild@@QAEXKKK@Z ENDP	; CGuild::DecrementMemberContribution
_TEXT	ENDS
; Function compile flags: /Ogtp
; File C:\IAGOS\server\v18\Source\Source\_common\guild.cpp
;	COMDAT ?CanContribute@CGuild@@QAE?AW4CONTRIBUTION_RESULT@@KKK@Z
_TEXT	SEGMENT
_dwPxp$ = 8						; size = 4
_dwPenya$ = 12						; size = 4
_idPlayer$ = 16						; size = 4
?CanContribute@CGuild@@QAE?AW4CONTRIBUTION_RESULT@@KKK@Z PROC ; CGuild::CanContribute, COMDAT
; _this$ = ecx

; 555  : {

  00000	55		 push	 ebp
  00001	8b ec		 mov	 ebp, esp
  00003	56		 push	 esi
  00004	57		 push	 edi

; 556  : 	if( dwPxp > 0 && m_nLevel >= CGuildTable::GetInstance().GetMaxLevel() )  // pxp¸¸ ĂÖ´ë·ąş§żˇĽ­ ĂĽĹ© 

  00005	8b 7d 08	 mov	 edi, DWORD PTR _dwPxp$[ebp]
  00008	8b f1		 mov	 esi, ecx
  0000a	85 ff		 test	 edi, edi
  0000c	74 1b		 je	 SHORT $LN2@CanContrib
  0000e	e8 00 00 00 00	 call	 ?GetInstance@CGuildTable@@SAAAV1@XZ ; CGuildTable::GetInstance
  00013	8b 56 44	 mov	 edx, DWORD PTR [esi+68]
  00016	3b 90 5c 02 00
	00		 cmp	 edx, DWORD PTR [eax+604]
  0001c	7c 0b		 jl	 SHORT $LN2@CanContrib

; 557  : 		return CONTRIBUTION_FAIL_MAXLEVEL;

  0001e	5f		 pop	 edi
  0001f	b8 01 00 00 00	 mov	 eax, 1

; 576  : 		return CONTRIBUTION_FAIL_OVERFLOW_PENYA;
; 577  : 
; 578  : 	return CONTRIBUTION_OK;
; 579  : }

  00024	5e		 pop	 esi
  00025	5d		 pop	 ebp
  00026	c2 0c 00	 ret	 12			; 0000000cH
$LN2@CanContrib:

; 558  : 
; 559  : 	if( m_dwContributionPxp + dwPxp < m_dwContributionPxp )  

  00029	8b 4e 78	 mov	 ecx, DWORD PTR [esi+120]
  0002c	8d 04 39	 lea	 eax, DWORD PTR [ecx+edi]
  0002f	3b c1		 cmp	 eax, ecx
  00031	73 0b		 jae	 SHORT $LN3@CanContrib

; 560  : 		return CONTRIBUTION_FAIL_GUILD_OVERFLOW_PXP;

  00033	5f		 pop	 edi
  00034	b8 02 00 00 00	 mov	 eax, 2

; 576  : 		return CONTRIBUTION_FAIL_OVERFLOW_PENYA;
; 577  : 
; 578  : 	return CONTRIBUTION_OK;
; 579  : }

  00039	5e		 pop	 esi
  0003a	5d		 pop	 ebp
  0003b	c2 0c 00	 ret	 12			; 0000000cH
$LN3@CanContrib:

; 561  : 
; 562  : 	if( m_nGoldGuild + dwPenya < m_nGoldGuild )  

  0003e	8b 8e 18 01 00
	00		 mov	 ecx, DWORD PTR [esi+280]
  00044	53		 push	 ebx
  00045	8b 5d 0c	 mov	 ebx, DWORD PTR _dwPenya$[ebp]
  00048	8d 04 19	 lea	 eax, DWORD PTR [ecx+ebx]
  0004b	3b c1		 cmp	 eax, ecx
  0004d	73 0c		 jae	 SHORT $LN4@CanContrib

; 563  : 		return CONTRIBUTION_FAIL_GUILD_OVERFLOW_PENYA;

  0004f	5b		 pop	 ebx
  00050	5f		 pop	 edi
  00051	b8 03 00 00 00	 mov	 eax, 3

; 576  : 		return CONTRIBUTION_FAIL_OVERFLOW_PENYA;
; 577  : 
; 578  : 	return CONTRIBUTION_OK;
; 579  : }

  00056	5e		 pop	 esi
  00057	5d		 pop	 ebp
  00058	c2 0c 00	 ret	 12			; 0000000cH
$LN4@CanContrib:

; 564  : 	
; 565  : 	CGuildMember* pMember = GetMember( idPlayer );

  0005b	ff 75 10	 push	 DWORD PTR _idPlayer$[ebp]
  0005e	8b ce		 mov	 ecx, esi
  00060	e8 00 00 00 00	 call	 ?GetMember@CGuild@@QAEPAVCGuildMember@@K@Z ; CGuild::GetMember
  00065	8b d0		 mov	 edx, eax

; 566  : 	if( pMember == NULL )

  00067	85 d2		 test	 edx, edx
  00069	75 0a		 jne	 SHORT $LN5@CanContrib

; 567  : 	{
; 568  : 		TRACE("CanContribute - Guild[%d] idPlayer[%d] not found \n", m_idGuild, idPlayer );
; 569  : 		return CONTRIBUTION_FAIL_INVALID_CONDITION;

  0006b	5b		 pop	 ebx
  0006c	5f		 pop	 edi
  0006d	8d 42 04	 lea	 eax, DWORD PTR [edx+4]

; 576  : 		return CONTRIBUTION_FAIL_OVERFLOW_PENYA;
; 577  : 
; 578  : 	return CONTRIBUTION_OK;
; 579  : }

  00070	5e		 pop	 esi
  00071	5d		 pop	 ebp
  00072	c2 0c 00	 ret	 12			; 0000000cH
$LN5@CanContrib:

; 570  : 	}
; 571  : 
; 572  : 	if( pMember->m_dwGivePxpCount + dwPxp < pMember->m_dwGivePxpCount )  

  00075	8b 4a 10	 mov	 ecx, DWORD PTR [edx+16]
  00078	8d 04 39	 lea	 eax, DWORD PTR [ecx+edi]
  0007b	3b c1		 cmp	 eax, ecx
  0007d	73 0c		 jae	 SHORT $LN6@CanContrib

; 573  : 		return CONTRIBUTION_FAIL_OVERFLOW_PXP;

  0007f	5b		 pop	 ebx
  00080	5f		 pop	 edi
  00081	b8 05 00 00 00	 mov	 eax, 5

; 576  : 		return CONTRIBUTION_FAIL_OVERFLOW_PENYA;
; 577  : 
; 578  : 	return CONTRIBUTION_OK;
; 579  : }

  00086	5e		 pop	 esi
  00087	5d		 pop	 ebp
  00088	c2 0c 00	 ret	 12			; 0000000cH
$LN6@CanContrib:

; 574  : 
; 575  : 	if( pMember->m_nGiveGold + (int)dwPenya < pMember->m_nGiveGold )  

  0008b	8b 52 0c	 mov	 edx, DWORD PTR [edx+12]
  0008e	33 c0		 xor	 eax, eax
  00090	be 06 00 00 00	 mov	 esi, 6
  00095	8d 0c 1a	 lea	 ecx, DWORD PTR [edx+ebx]
  00098	5b		 pop	 ebx
  00099	3b ca		 cmp	 ecx, edx
  0009b	5f		 pop	 edi
  0009c	0f 4c c6	 cmovl	 eax, esi

; 576  : 		return CONTRIBUTION_FAIL_OVERFLOW_PENYA;
; 577  : 
; 578  : 	return CONTRIBUTION_OK;
; 579  : }

  0009f	5e		 pop	 esi
  000a0	5d		 pop	 ebp
  000a1	c2 0c 00	 ret	 12			; 0000000cH
?CanContribute@CGuild@@QAE?AW4CONTRIBUTION_RESULT@@KKK@Z ENDP ; CGuild::CanContribute
_TEXT	ENDS
; Function compile flags: /Ogtp
; File C:\IAGOS\server\v18\Source\Source\_common\guild.cpp
;	COMDAT ?AddContribution@CGuild@@QAEHKKK@Z
_TEXT	SEGMENT
_dwPxp$ = 8						; size = 4
_dwPenya$ = 12						; size = 4
_idPlayer$ = 16						; size = 4
?AddContribution@CGuild@@QAEHKKK@Z PROC			; CGuild::AddContribution, COMDAT
; _this$ = ecx

; 583  : {

  00000	55		 push	 ebp
  00001	8b ec		 mov	 ebp, esp
  00003	53		 push	 ebx

; 584  : 	if( CanContribute( dwPxp, dwPenya, idPlayer) != CONTRIBUTION_OK )

  00004	8b 5d 08	 mov	 ebx, DWORD PTR _dwPxp$[ebp]
  00007	56		 push	 esi
  00008	57		 push	 edi
  00009	ff 75 10	 push	 DWORD PTR _idPlayer$[ebp]
  0000c	8b 7d 0c	 mov	 edi, DWORD PTR _dwPenya$[ebp]
  0000f	8b f1		 mov	 esi, ecx
  00011	57		 push	 edi
  00012	53		 push	 ebx
  00013	e8 00 00 00 00	 call	 ?CanContribute@CGuild@@QAE?AW4CONTRIBUTION_RESULT@@KKK@Z ; CGuild::CanContribute
  00018	85 c0		 test	 eax, eax
  0001a	74 09		 je	 SHORT $LN2@AddContrib

; 604  : 	}
; 605  : 
; 606  : 	return TRUE;
; 607  : }

  0001c	5f		 pop	 edi
  0001d	5e		 pop	 esi
  0001e	33 c0		 xor	 eax, eax
  00020	5b		 pop	 ebx
  00021	5d		 pop	 ebp
  00022	c2 0c 00	 ret	 12			; 0000000cH
$LN2@AddContrib:

; 585  : 		return FALSE;
; 586  : 
; 587  : 	CGuildMember* pMember = GetMember( idPlayer );

  00025	ff 75 10	 push	 DWORD PTR _idPlayer$[ebp]
  00028	8b ce		 mov	 ecx, esi
  0002a	e8 00 00 00 00	 call	 ?GetMember@CGuild@@QAEPAVCGuildMember@@K@Z ; CGuild::GetMember

; 588  : 	pMember->m_dwGivePxpCount += dwPxp;

  0002f	01 58 10	 add	 DWORD PTR [eax+16], ebx

; 589  : 	pMember->m_nGiveGold += (int)dwPenya;

  00032	01 78 0c	 add	 DWORD PTR [eax+12], edi

; 590  : 
; 591  : 	m_dwContributionPxp += dwPxp;

  00035	01 5e 78	 add	 DWORD PTR [esi+120], ebx

; 592  : 	m_nGoldGuild += dwPenya;

  00038	01 be 18 01 00
	00		 add	 DWORD PTR [esi+280], edi

; 593  : 
; 594  : 	if( m_nLevel >= CGuildTable::GetInstance().GetMaxLevel() )

  0003e	e8 00 00 00 00	 call	 ?GetInstance@CGuildTable@@SAAAV1@XZ ; CGuildTable::GetInstance
  00043	8b 4e 44	 mov	 ecx, DWORD PTR [esi+68]
  00046	3b 88 5c 02 00
	00		 cmp	 ecx, DWORD PTR [eax+604]
  0004c	7d 49		 jge	 SHORT $LN4@AddContrib

; 595  : 		return TRUE;
; 596  : 	
; 597  : 	DWORD dwMaxPxp = CGuildTable::GetInstance().GetPxpCount( m_nLevel + 1 );

  0004e	8d 41 01	 lea	 eax, DWORD PTR [ecx+1]
  00051	50		 push	 eax
  00052	e8 00 00 00 00	 call	 ?GetInstance@CGuildTable@@SAAAV1@XZ ; CGuildTable::GetInstance
  00057	8b c8		 mov	 ecx, eax
  00059	e8 00 00 00 00	 call	 ?GetPxpCount@CGuildTable@@QBEKG@Z ; CGuildTable::GetPxpCount

; 598  : 	DWORD dwMaxPenya = CGuildTable::GetInstance().GetPenya( m_nLevel + 1);

  0005e	66 8b 4e 44	 mov	 cx, WORD PTR [esi+68]
  00062	8b f8		 mov	 edi, eax
  00064	66 41		 inc	 cx
  00066	0f b7 c9	 movzx	 ecx, cx
  00069	51		 push	 ecx
  0006a	e8 00 00 00 00	 call	 ?GetInstance@CGuildTable@@SAAAV1@XZ ; CGuildTable::GetInstance
  0006f	8b c8		 mov	 ecx, eax
  00071	e8 00 00 00 00	 call	 ?GetPenya@CGuildTable@@QBEKG@Z ; CGuildTable::GetPenya

; 599  : 	if( m_dwContributionPxp >= dwMaxPxp && m_nGoldGuild >= dwMaxPenya )

  00076	8b 56 78	 mov	 edx, DWORD PTR [esi+120]
  00079	3b d7		 cmp	 edx, edi
  0007b	72 1a		 jb	 SHORT $LN4@AddContrib
  0007d	8b 8e 18 01 00
	00		 mov	 ecx, DWORD PTR [esi+280]
  00083	3b c8		 cmp	 ecx, eax
  00085	72 10		 jb	 SHORT $LN4@AddContrib

; 600  : 	{
; 601  : 		m_dwContributionPxp -= dwMaxPxp;

  00087	2b d7		 sub	 edx, edi

; 602  : 		m_nGoldGuild -= dwMaxPenya;

  00089	2b c8		 sub	 ecx, eax

; 603  : 		++m_nLevel;  // LevelUP

  0008b	ff 46 44	 inc	 DWORD PTR [esi+68]
  0008e	89 56 78	 mov	 DWORD PTR [esi+120], edx
  00091	89 8e 18 01 00
	00		 mov	 DWORD PTR [esi+280], ecx
$LN4@AddContrib:

; 604  : 	}
; 605  : 
; 606  : 	return TRUE;
; 607  : }

  00097	5f		 pop	 edi
  00098	5e		 pop	 esi
  00099	b8 01 00 00 00	 mov	 eax, 1
  0009e	5b		 pop	 ebx
  0009f	5d		 pop	 ebp
  000a0	c2 0c 00	 ret	 12			; 0000000cH
?AddContribution@CGuild@@QAEHKKK@Z ENDP			; CGuild::AddContribution
_TEXT	ENDS
; Function compile flags: /Ogtp
; File C:\IAGOS\server\v18\Source\Source\_common\guild.cpp
;	COMDAT ?SetContribution@CGuild@@QAEXAAUCONTRIBUTION_CHANGED_INFO@@@Z
_TEXT	SEGMENT
_info$ = 8						; size = 4
?SetContribution@CGuild@@QAEXAAUCONTRIBUTION_CHANGED_INFO@@@Z PROC ; CGuild::SetContribution, COMDAT
; _this$ = ecx

; 526  : {

  00000	55		 push	 ebp
  00001	8b ec		 mov	 ebp, esp
  00003	56		 push	 esi

; 527  : 	m_nLevel			= info.nGuildLevel;

  00004	8b 75 08	 mov	 esi, DWORD PTR _info$[ebp]
  00007	0f b7 46 18	 movzx	 eax, WORD PTR [esi+24]
  0000b	89 41 44	 mov	 DWORD PTR [ecx+68], eax

; 528  : 	m_nGoldGuild		= info.dwGuildPenya;

  0000e	8b 46 14	 mov	 eax, DWORD PTR [esi+20]
  00011	89 81 18 01 00
	00		 mov	 DWORD PTR [ecx+280], eax

; 529  : 	m_dwContributionPxp	= info.dwGuildPxpCount;

  00017	8b 46 10	 mov	 eax, DWORD PTR [esi+16]
  0001a	89 41 78	 mov	 DWORD PTR [ecx+120], eax

; 530  : 
; 531  : 	CGuildMember* pMember = GetMember( info.idPlayer );

  0001d	ff 76 04	 push	 DWORD PTR [esi+4]
  00020	e8 00 00 00 00	 call	 ?GetMember@CGuild@@QAEPAVCGuildMember@@K@Z ; CGuild::GetMember

; 532  : 	if( pMember == NULL )	// ¸âąö Ĺ»Ĺđ?

  00025	85 c0		 test	 eax, eax
  00027	74 0c		 je	 SHORT $LN1@SetContrib

; 533  : 	{
; 534  : 		TRACE("CGuild::SetContribution - Guild[%d] idPlayer[%d] not found \n", m_idGuild, info.idPlayer );
; 535  : 		return;
; 536  : 	}
; 537  : 	pMember->m_dwGivePxpCount += info.dwPxpCount;

  00029	8b 4e 08	 mov	 ecx, DWORD PTR [esi+8]
  0002c	01 48 10	 add	 DWORD PTR [eax+16], ecx

; 538  : 	pMember->m_nGiveGold += (int)info.dwPenya;

  0002f	8b 4e 0c	 mov	 ecx, DWORD PTR [esi+12]
  00032	01 48 0c	 add	 DWORD PTR [eax+12], ecx
$LN1@SetContrib:
  00035	5e		 pop	 esi

; 539  : }

  00036	5d		 pop	 ebp
  00037	c2 04 00	 ret	 4
?SetContribution@CGuild@@QAEXAAUCONTRIBUTION_CHANGED_INFO@@@Z ENDP ; CGuild::SetContribution
_TEXT	ENDS
; Function compile flags: /Ogtp
; File C:\IAGOS\server\v18\Source\Source\_common\guild.cpp
;	COMDAT ?SetNotice@CGuild@@QAEXPBD@Z
_TEXT	SEGMENT
_szNotice$ = 8						; size = 4
?SetNotice@CGuild@@QAEXPBD@Z PROC			; CGuild::SetNotice, COMDAT
; _this$ = ecx

; 610  : {

  00000	55		 push	 ebp
  00001	8b ec		 mov	 ebp, esp
  00003	56		 push	 esi
  00004	8b f1		 mov	 esi, ecx

; 611  : 	ASSERT( szNotice );
; 612  : 	strncpy(m_szNotice, szNotice, MAX_BYTE_NOTICE);

  00006	68 80 00 00 00	 push	 128			; 00000080H
  0000b	ff 75 08	 push	 DWORD PTR _szNotice$[ebp]
  0000e	8d 46 7c	 lea	 eax, DWORD PTR [esi+124]
  00011	50		 push	 eax
  00012	e8 00 00 00 00	 call	 _strncpy
  00017	83 c4 0c	 add	 esp, 12			; 0000000cH

; 613  : 	m_szNotice[MAX_BYTE_NOTICE-1] = '\0';

  0001a	c6 86 fb 00 00
	00 00		 mov	 BYTE PTR [esi+251], 0
  00021	5e		 pop	 esi

; 614  : }

  00022	5d		 pop	 ebp
  00023	c2 04 00	 ret	 4
?SetNotice@CGuild@@QAEXPBD@Z ENDP			; CGuild::SetNotice
_TEXT	ENDS
; Function compile flags: /Ogtp
; File C:\IAGOS\server\v18\Source\Source\_common\guild.cpp
;	COMDAT ?SetLogo@CGuild@@QAEHK@Z
_TEXT	SEGMENT
_dwLogo$ = 8						; size = 4
?SetLogo@CGuild@@QAEHK@Z PROC				; CGuild::SetLogo, COMDAT
; _this$ = ecx

; 517  : {

  00000	55		 push	 ebp
  00001	8b ec		 mov	 ebp, esp

; 518  : 	if( m_dwLogo )		// ·Î°í´Â ÇŃąř¸¸ setting°ˇ´É 

  00003	83 79 74 00	 cmp	 DWORD PTR [ecx+116], 0
  00007	74 06		 je	 SHORT $LN2@SetLogo

; 519  : 		return FALSE;

  00009	33 c0		 xor	 eax, eax

; 523  : }

  0000b	5d		 pop	 ebp
  0000c	c2 04 00	 ret	 4
$LN2@SetLogo:

; 520  : 
; 521  : 	m_dwLogo = dwLogo;

  0000f	8b 45 08	 mov	 eax, DWORD PTR _dwLogo$[ebp]
  00012	89 41 74	 mov	 DWORD PTR [ecx+116], eax

; 522  : 	return TRUE;

  00015	b8 01 00 00 00	 mov	 eax, 1

; 523  : }

  0001a	5d		 pop	 ebp
  0001b	c2 04 00	 ret	 4
?SetLogo@CGuild@@QAEHK@Z ENDP				; CGuild::SetLogo
_TEXT	ENDS
; Function compile flags: /Ogtp
; File C:\IAGOS\server\v18\Source\Source\_common\guild.cpp
; File C:\IAGOS\server\v18\Source\Source\_Network\Misc\Include\ar.h
; File C:\IAGOS\server\v18\Source\Source\_common\guild.cpp
; File C:\IAGOS\server\v18\Source\Source\_Network\Misc\Include\ar.h
; File C:\IAGOS\server\v18\Source\Source\_common\guild.cpp
; File C:\Program Files\Microsoft Visual Studio\2022\Professional\VC\Tools\MSVC\14.44.35207\include\xtree
; File C:\IAGOS\server\v18\Source\Source\_common\guild.cpp
; File C:\Program Files\Microsoft Visual Studio\2022\Professional\VC\Tools\MSVC\14.44.35207\include\xtree
; File C:\IAGOS\server\v18\Source\Source\_common\guild.cpp
; File C:\Program Files\Microsoft Visual Studio\2022\Professional\VC\Tools\MSVC\14.44.35207\include\list
; File C:\IAGOS\server\v18\Source\Source\_common\guild.cpp
; File C:\Program Files\Microsoft Visual Studio\2022\Professional\VC\Tools\MSVC\14.44.35207\include\list
; File C:\IAGOS\server\v18\Source\Source\_common\guild.cpp
; File C:\Program Files\Microsoft Visual Studio\2022\Professional\VC\Tools\MSVC\14.44.35207\include\utility
; File C:\Program Files\Microsoft Visual Studio\2022\Professional\VC\Tools\MSVC\14.44.35207\include\xtree
; File C:\Program Files\Microsoft Visual Studio\2022\Professional\VC\Tools\MSVC\14.44.35207\include\utility
; File C:\Program Files\Microsoft Visual Studio\2022\Professional\VC\Tools\MSVC\14.44.35207\include\xtree
; File C:\Program Files\Microsoft Visual Studio\2022\Professional\VC\Tools\MSVC\14.44.35207\include\utility
; File C:\Program Files\Microsoft Visual Studio\2022\Professional\VC\Tools\MSVC\14.44.35207\include\xtree
; File C:\Program Files\Microsoft Visual Studio\2022\Professional\VC\Tools\MSVC\14.44.35207\include\type_traits
; File C:\Program Files\Microsoft Visual Studio\2022\Professional\VC\Tools\MSVC\14.44.35207\include\xtree
; File C:\Program Files\Microsoft Visual Studio\2022\Professional\VC\Tools\MSVC\14.44.35207\include\xmemory
; File C:\Program Files\Microsoft Visual Studio\2022\Professional\VC\Tools\MSVC\14.44.35207\include\xtree
; File C:\Program Files\Microsoft Visual Studio\2022\Professional\VC\Tools\MSVC\14.44.35207\include\xmemory
; File C:\Program Files\Microsoft Visual Studio\2022\Professional\VC\Tools\MSVC\14.44.35207\include\xtree
; File C:\Program Files\Microsoft Visual Studio\2022\Professional\VC\Tools\MSVC\14.44.35207\include\xmemory
; File C:\Program Files\Microsoft Visual Studio\2022\Professional\VC\Tools\MSVC\14.44.35207\include\xtree
; File C:\Program Files\Microsoft Visual Studio\2022\Professional\VC\Tools\MSVC\14.44.35207\include\utility
; File C:\Program Files\Microsoft Visual Studio\2022\Professional\VC\Tools\MSVC\14.44.35207\include\xtree
; File C:\IAGOS\server\v18\Source\Source\_common\guild.cpp
; File C:\Program Files\Microsoft Visual Studio\2022\Professional\VC\Tools\MSVC\14.44.35207\include\list
; File C:\Program Files\Microsoft Visual Studio\2022\Professional\VC\Tools\MSVC\14.44.35207\include\xmemory
; File C:\Program Files\Microsoft Visual Studio\2022\Professional\VC\Tools\MSVC\14.44.35207\include\list
; File C:\Program Files\Microsoft Visual Studio\2022\Professional\VC\Tools\MSVC\14.44.35207\include\xmemory
; File C:\Program Files\Microsoft Visual Studio\2022\Professional\VC\Tools\MSVC\14.44.35207\include\list
; File C:\Program Files\Microsoft Visual Studio\2022\Professional\VC\Tools\MSVC\14.44.35207\include\xmemory
; File C:\Program Files\Microsoft Visual Studio\2022\Professional\VC\Tools\MSVC\14.44.35207\include\list
; File C:\IAGOS\server\v18\Source\Source\_common\guild.cpp
; File C:\Program Files\Microsoft Visual Studio\2022\Professional\VC\Tools\MSVC\14.44.35207\include\list
; File C:\IAGOS\server\v18\Source\Source\_common\guild.cpp
; File C:\Program Files\Microsoft Visual Studio\2022\Professional\VC\Tools\MSVC\14.44.35207\include\list
; File C:\Program Files\Microsoft Visual Studio\2022\Professional\VC\Tools\MSVC\14.44.35207\include\xtree
; File C:\IAGOS\server\v18\Source\Source\_common\guild.cpp
;	COMDAT ?Serialize@CGuild@@QAEXAAVCAr@@H@Z
_TEXT	SEGMENT
$T2 = -60						; size = 12
__Loc$3 = -48						; size = 12
__Op$4 = -36						; size = 8
$T5 = -36						; size = 8
$T6 = -28						; size = 8
_i$1$ = -20						; size = 4
_i$2$ = -20						; size = 4
__Where$1$ = -16					; size = 4
$T7 = -16						; size = 4
__$EHRec$ = -12						; size = 12
_ar$ = 8						; size = 4
$T8 = 8							; size = 4
$T9 = 8							; size = 4
$T10 = 8						; size = 4
$T11 = 8						; size = 4
_bDesc$ = 12						; size = 4
_i$12 = 12						; size = 4
$T13 = 12						; size = 2
$T14 = 12						; size = 2
_nSize$15 = 12						; size = 2
?Serialize@CGuild@@QAEXAAVCAr@@H@Z PROC			; CGuild::Serialize, COMDAT
; _this$ = ecx

; 410  : {

  00000	55		 push	 ebp
  00001	8b ec		 mov	 ebp, esp
  00003	6a ff		 push	 -1
  00005	68 00 00 00 00	 push	 __ehhandler$?Serialize@CGuild@@QAEXAAVCAr@@H@Z
  0000a	64 a1 00 00 00
	00		 mov	 eax, DWORD PTR fs:0
  00010	50		 push	 eax
  00011	83 ec 30	 sub	 esp, 48			; 00000030H
  00014	53		 push	 ebx
  00015	56		 push	 esi
  00016	57		 push	 edi
  00017	a1 00 00 00 00	 mov	 eax, DWORD PTR ___security_cookie
  0001c	33 c5		 xor	 eax, ebp
  0001e	50		 push	 eax
  0001f	8d 45 f4	 lea	 eax, DWORD PTR __$EHRec$[ebp]
  00022	64 a3 00 00 00
	00		 mov	 DWORD PTR fs:0, eax
  00028	8b d9		 mov	 ebx, ecx
; File C:\IAGOS\server\v18\Source\Source\_Network\Misc\Include\ar.h

; 146  : 	return (m_nMode & CAr::load) == 0;

  0002a	8b 7d 08	 mov	 edi, DWORD PTR _ar$[ebp]
  0002d	8d 73 44	 lea	 esi, DWORD PTR [ebx+68]
; File C:\IAGOS\server\v18\Source\Source\_common\guild.cpp

; 411  : 	if( ar.IsStoring() )

  00030	56		 push	 esi
; File C:\IAGOS\server\v18\Source\Source\_Network\Misc\Include\ar.h

; 146  : 	return (m_nMode & CAr::load) == 0;

  00031	8d 43 40	 lea	 eax, DWORD PTR [ebx+64]
  00034	8d 4b 04	 lea	 ecx, DWORD PTR [ebx+4]
  00037	f6 07 01	 test	 BYTE PTR [edi], 1
; File C:\IAGOS\server\v18\Source\Source\_common\guild.cpp

; 411  : 	if( ar.IsStoring() )

  0003a	50		 push	 eax
  0003b	51		 push	 ecx
  0003c	8b cf		 mov	 ecx, edi
  0003e	0f 85 5b 01 00
	00		 jne	 $LN14@Serialize

; 412  : 	{
; 413  : 		ar << m_idGuild << m_idMaster << m_nLevel;

  00044	e8 00 00 00 00	 call	 ??$?6K@CAr@@QAEAAV0@ABK@Z ; CAr::operator<<<unsigned long>
  00049	8b c8		 mov	 ecx, eax
  0004b	e8 00 00 00 00	 call	 ??$?6K@CAr@@QAEAAV0@ABK@Z ; CAr::operator<<<unsigned long>
  00050	8b c8		 mov	 ecx, eax
  00052	e8 00 00 00 00	 call	 ??$?6H@CAr@@QAEAAV0@ABH@Z ; CAr::operator<<<int>

; 414  : 		ar.WriteString( m_szGuild );

  00057	8d 43 08	 lea	 eax, DWORD PTR [ebx+8]
  0005a	8b cf		 mov	 ecx, edi
  0005c	50		 push	 eax
  0005d	e8 00 00 00 00	 call	 ?WriteString@CAr@@QAEXPBD@Z ; CAr::WriteString

; 415  : 		ar << m_dwLogo;

  00062	8d 43 74	 lea	 eax, DWORD PTR [ebx+116]
  00065	8b cf		 mov	 ecx, edi
  00067	50		 push	 eax
  00068	e8 00 00 00 00	 call	 ??$?6K@CAr@@QAEAAV0@ABK@Z ; CAr::operator<<<unsigned long>

; 416  : 		ar << m_nGoldGuild;

  0006d	8d 83 18 01 00
	00		 lea	 eax, DWORD PTR [ebx+280]
  00073	8b cf		 mov	 ecx, edi
  00075	50		 push	 eax
  00076	e8 00 00 00 00	 call	 ??$?6K@CAr@@QAEAAV0@ABK@Z ; CAr::operator<<<unsigned long>

; 417  : 		ar << m_nWin << m_nLose << m_nSurrender;

  0007b	8d 83 34 01 00
	00		 lea	 eax, DWORD PTR [ebx+308]
  00081	8b cf		 mov	 ecx, edi
  00083	50		 push	 eax
  00084	8d 83 30 01 00
	00		 lea	 eax, DWORD PTR [ebx+304]
  0008a	50		 push	 eax
  0008b	8d 83 2c 01 00
	00		 lea	 eax, DWORD PTR [ebx+300]
  00091	50		 push	 eax
  00092	e8 00 00 00 00	 call	 ??$?6H@CAr@@QAEAAV0@ABH@Z ; CAr::operator<<<int>
  00097	8b c8		 mov	 ecx, eax
  00099	e8 00 00 00 00	 call	 ??$?6H@CAr@@QAEAAV0@ABH@Z ; CAr::operator<<<int>
  0009e	8b c8		 mov	 ecx, eax
  000a0	e8 00 00 00 00	 call	 ??$?6H@CAr@@QAEAAV0@ABH@Z ; CAr::operator<<<int>

; 418  : 		if( !bDesc )

  000a5	83 7d 0c 00	 cmp	 DWORD PTR _bDesc$[ebp], 0
  000a9	0f 85 86 03 00
	00		 jne	 $LN17@Serialize

; 419  : 		{
; 420  : 			ar.Write( m_adwPower, sizeof(m_adwPower) );

  000af	6a 14		 push	 20			; 00000014H
  000b1	8d 43 48	 lea	 eax, DWORD PTR [ebx+72]
  000b4	8b cf		 mov	 ecx, edi
  000b6	50		 push	 eax
  000b7	e8 00 00 00 00	 call	 ?Write@CAr@@QAEXPBXI@Z	; CAr::Write

; 421  : 			ar.Write( m_adwPenya, sizeof(m_adwPenya) );

  000bc	6a 14		 push	 20			; 00000014H
  000be	8d 43 5c	 lea	 eax, DWORD PTR [ebx+92]
  000c1	8b cf		 mov	 ecx, edi
  000c3	50		 push	 eax
  000c4	e8 00 00 00 00	 call	 ?Write@CAr@@QAEXPBXI@Z	; CAr::Write

; 422  : 			ar.WriteString( m_szNotice );	// °řÁö»çÇ× 

  000c9	8d 43 7c	 lea	 eax, DWORD PTR [ebx+124]
  000cc	8b cf		 mov	 ecx, edi
  000ce	50		 push	 eax
  000cf	e8 00 00 00 00	 call	 ?WriteString@CAr@@QAEXPBD@Z ; CAr::WriteString

; 423  : 			ar << m_dwContributionPxp;		// °řÇĺµČ PXP

  000d4	8d 43 78	 lea	 eax, DWORD PTR [ebx+120]
  000d7	8b cf		 mov	 ecx, edi
  000d9	50		 push	 eax
  000da	e8 00 00 00 00	 call	 ??$?6K@CAr@@QAEAAV0@ABK@Z ; CAr::operator<<<unsigned long>

; 424  : 			ar << m_nLevel;					// ·ąş§ 

  000df	56		 push	 esi
  000e0	8b cf		 mov	 ecx, edi
  000e2	e8 00 00 00 00	 call	 ??$?6H@CAr@@QAEAAV0@ABH@Z ; CAr::operator<<<int>

; 425  : 			ar << m_idEnemyGuild;

  000e7	8d 83 24 01 00
	00		 lea	 eax, DWORD PTR [ebx+292]
  000ed	8b cf		 mov	 ecx, edi
  000ef	50		 push	 eax
  000f0	e8 00 00 00 00	 call	 ??$?6K@CAr@@QAEAAV0@ABK@Z ; CAr::operator<<<unsigned long>

; 426  : 			ar << (short)GetSize();

  000f5	0f b7 43 3c	 movzx	 eax, WORD PTR [ebx+60]
  000f9	8b cf		 mov	 ecx, edi
  000fb	89 45 0c	 mov	 DWORD PTR $T13[ebp], eax
  000fe	8d 45 0c	 lea	 eax, DWORD PTR $T13[ebp]
  00101	50		 push	 eax
  00102	e8 00 00 00 00	 call	 ??$?6F@CAr@@QAEAAV0@ABF@Z ; CAr::operator<<<short>
; File C:\Program Files\Microsoft Visual Studio\2022\Professional\VC\Tools\MSVC\14.44.35207\include\xtree

; 1142 :         return iterator(_Scary->_Myhead->_Left, _Scary);

  00107	8b 4b 38	 mov	 ecx, DWORD PTR [ebx+56]

; 37   :     _Tree_unchecked_const_iterator(_Nodeptr _Pnode, const _Mytree* _Plist) noexcept : _Ptr(_Pnode) {

  0010a	8b 01		 mov	 eax, DWORD PTR [ecx]
  0010c	89 45 0c	 mov	 DWORD PTR _i$12[ebp], eax

; 237  :         return !(*this == _Right);

  0010f	3b c1		 cmp	 eax, ecx
; File C:\IAGOS\server\v18\Source\Source\_common\guild.cpp

; 427  : 			for( map<u_long, CGuildMember*>::iterator i = m_mapPMember.begin(); i != m_mapPMember.end(); ++i )

  00111	74 19		 je	 SHORT $LN3@Serialize
$LL4@Serialize:

; 428  : 				( i->second )->Serialize( ar );

  00113	8b 48 14	 mov	 ecx, DWORD PTR [eax+20]
  00116	57		 push	 edi
  00117	e8 00 00 00 00	 call	 ?Serialize@CGuildMember@@QAEXAAVCAr@@@Z ; CGuildMember::Serialize
; File C:\Program Files\Microsoft Visual Studio\2022\Professional\VC\Tools\MSVC\14.44.35207\include\xtree

; 198  :         _Mybase::operator++();

  0011c	8d 4d 0c	 lea	 ecx, DWORD PTR _i$12[ebp]
  0011f	e8 00 00 00 00	 call	 ??E?$_Tree_unchecked_const_iterator@V?$_Tree_val@U?$_Tree_simple_types@U?$pair@$$CBKPAVCGuildMember@@@std@@@std@@@std@@U_Iterator_base0@2@@std@@QAEAAV01@XZ ; std::_Tree_unchecked_const_iterator<std::_Tree_val<std::_Tree_simple_types<std::pair<unsigned long const ,CGuildMember *> > >,std::_Iterator_base0>::operator++

; 237  :         return !(*this == _Right);

  00124	8b 45 0c	 mov	 eax, DWORD PTR _i$12[ebp]
  00127	3b 43 38	 cmp	 eax, DWORD PTR [ebx+56]
; File C:\IAGOS\server\v18\Source\Source\_common\guild.cpp

; 427  : 			for( map<u_long, CGuildMember*>::iterator i = m_mapPMember.begin(); i != m_mapPMember.end(); ++i )

  0012a	75 e7		 jne	 SHORT $LL4@Serialize
$LN3@Serialize:

; 429  : 
; 430  : 			ar << (short)m_votes.size();

  0012c	0f b7 83 20 01
	00 00		 movzx	 eax, WORD PTR [ebx+288]
  00133	8b cf		 mov	 ecx, edi
  00135	89 45 0c	 mov	 DWORD PTR $T14[ebp], eax
  00138	8d 45 0c	 lea	 eax, DWORD PTR $T14[ebp]
  0013b	50		 push	 eax
  0013c	e8 00 00 00 00	 call	 ??$?6F@CAr@@QAEAAV0@ABF@Z ; CAr::operator<<<short>
; File C:\Program Files\Microsoft Visual Studio\2022\Professional\VC\Tools\MSVC\14.44.35207\include\list

; 1105 :         return iterator(_Mypair._Myval2._Myhead->_Next, _STD addressof(_Mypair._Myval2));

  00141	8b 83 1c 01 00
	00		 mov	 eax, DWORD PTR [ebx+284]

; 37   :     _List_unchecked_const_iterator(_Nodeptr _Pnode, const _Mylist* _Plist) noexcept : _Ptr(_Pnode) {

  00147	8b 30		 mov	 esi, DWORD PTR [eax]

; 202  :         return !(*this == _Right);

  00149	3b f0		 cmp	 esi, eax
; File C:\IAGOS\server\v18\Source\Source\_common\guild.cpp

; 431  : 			for ( list <CGuildVote*>::iterator it = m_votes.begin(); it!=m_votes.end(); ++it )

  0014b	74 18		 je	 SHORT $LN6@Serialize
  0014d	0f 1f 00	 npad	 3
$LL7@Serialize:

; 432  : 				(*it)->Serialize( ar );

  00150	8b 4e 08	 mov	 ecx, DWORD PTR [esi+8]
  00153	57		 push	 edi
  00154	e8 00 00 00 00	 call	 ?Serialize@CGuildVote@@QAEXAAVCAr@@@Z ; CGuildVote::Serialize
; File C:\Program Files\Microsoft Visual Studio\2022\Professional\VC\Tools\MSVC\14.44.35207\include\list

; 164  :         this->_Ptr = this->_Ptr->_Next;

  00159	8b 06		 mov	 eax, DWORD PTR [esi]
  0015b	8b f0		 mov	 esi, eax

; 202  :         return !(*this == _Right);

  0015d	3b 83 1c 01 00
	00		 cmp	 eax, DWORD PTR [ebx+284]
; File C:\IAGOS\server\v18\Source\Source\_common\guild.cpp

; 431  : 			for ( list <CGuildVote*>::iterator it = m_votes.begin(); it!=m_votes.end(); ++it )

  00163	75 eb		 jne	 SHORT $LL7@Serialize
$LN6@Serialize:

; 433  : 			ar << m_nQuestSize;

  00165	8d b3 40 0d 00
	00		 lea	 esi, DWORD PTR [ebx+3392]
  0016b	8b cf		 mov	 ecx, edi
  0016d	56		 push	 esi
  0016e	e8 00 00 00 00	 call	 ??$?6E@CAr@@QAEAAV0@ABE@Z ; CAr::operator<<<unsigned char>

; 434  : 			ar.Write( (const void*)m_aQuest, sizeof(GUILDQUEST) * m_nQuestSize );

  00173	0f b6 06	 movzx	 eax, BYTE PTR [esi]
  00176	8b cf		 mov	 ecx, edi
  00178	8d 04 40	 lea	 eax, DWORD PTR [eax+eax*2]
  0017b	c1 e0 02	 shl	 eax, 2
  0017e	50		 push	 eax
  0017f	8d 83 40 01 00
	00		 lea	 eax, DWORD PTR [ebx+320]
  00185	50		 push	 eax
  00186	e8 00 00 00 00	 call	 ?Write@CAr@@QAEXPBXI@Z	; CAr::Write

; 477  : }

  0018b	8b 4d f4	 mov	 ecx, DWORD PTR __$EHRec$[ebp]
  0018e	64 89 0d 00 00
	00 00		 mov	 DWORD PTR fs:0, ecx
  00195	59		 pop	 ecx
  00196	5f		 pop	 edi
  00197	5e		 pop	 esi
  00198	5b		 pop	 ebx
  00199	8b e5		 mov	 esp, ebp
  0019b	5d		 pop	 ebp
  0019c	c2 08 00	 ret	 8
$LN14@Serialize:

; 435  : 		}
; 436  : 	}
; 437  : 	else
; 438  : 	{
; 439  : #ifdef __CLIENT
; 440  : 		Clear();
; 441  : #endif	// __CLIENT
; 442  : 		ar >> m_idGuild >> m_idMaster >> m_nLevel;

  0019f	e8 00 00 00 00	 call	 ??$?5K@CAr@@QAEAAV0@AAK@Z ; CAr::operator>><unsigned long>
  001a4	8b c8		 mov	 ecx, eax
  001a6	e8 00 00 00 00	 call	 ??$?5K@CAr@@QAEAAV0@AAK@Z ; CAr::operator>><unsigned long>
  001ab	8b c8		 mov	 ecx, eax
  001ad	e8 00 00 00 00	 call	 ??$?5H@CAr@@QAEAAV0@AAH@Z ; CAr::operator>><int>

; 443  : 		ar.ReadString( m_szGuild, MAX_G_NAME );

  001b2	6a 30		 push	 48			; 00000030H
  001b4	8d 43 08	 lea	 eax, DWORD PTR [ebx+8]
  001b7	8b cf		 mov	 ecx, edi
  001b9	50		 push	 eax
  001ba	e8 00 00 00 00	 call	 ?ReadString@CAr@@QAEPADPADH@Z ; CAr::ReadString

; 444  : 		ar >> m_dwLogo;

  001bf	8d 43 74	 lea	 eax, DWORD PTR [ebx+116]
  001c2	8b cf		 mov	 ecx, edi
  001c4	50		 push	 eax
  001c5	e8 00 00 00 00	 call	 ??$?5K@CAr@@QAEAAV0@AAK@Z ; CAr::operator>><unsigned long>

; 445  : 		ar >> m_nGoldGuild;

  001ca	8d 83 18 01 00
	00		 lea	 eax, DWORD PTR [ebx+280]
  001d0	8b cf		 mov	 ecx, edi
  001d2	50		 push	 eax
  001d3	e8 00 00 00 00	 call	 ??$?5K@CAr@@QAEAAV0@AAK@Z ; CAr::operator>><unsigned long>

; 446  : 		ar >> m_nWin >> m_nLose >> m_nSurrender;

  001d8	8d 83 34 01 00
	00		 lea	 eax, DWORD PTR [ebx+308]
  001de	8b cf		 mov	 ecx, edi
  001e0	50		 push	 eax
  001e1	8d 83 30 01 00
	00		 lea	 eax, DWORD PTR [ebx+304]
  001e7	50		 push	 eax
  001e8	8d 83 2c 01 00
	00		 lea	 eax, DWORD PTR [ebx+300]
  001ee	50		 push	 eax
  001ef	e8 00 00 00 00	 call	 ??$?5H@CAr@@QAEAAV0@AAH@Z ; CAr::operator>><int>
  001f4	8b c8		 mov	 ecx, eax
  001f6	e8 00 00 00 00	 call	 ??$?5H@CAr@@QAEAAV0@AAH@Z ; CAr::operator>><int>
  001fb	8b c8		 mov	 ecx, eax
  001fd	e8 00 00 00 00	 call	 ??$?5H@CAr@@QAEAAV0@AAH@Z ; CAr::operator>><int>

; 447  : 		if( !bDesc )

  00202	83 7d 0c 00	 cmp	 DWORD PTR _bDesc$[ebp], 0
  00206	0f 85 29 02 00
	00		 jne	 $LN17@Serialize

; 448  : 		{
; 449  : 			ar.Read( m_adwPower, sizeof(m_adwPower) );

  0020c	6a 14		 push	 20			; 00000014H
  0020e	8d 43 48	 lea	 eax, DWORD PTR [ebx+72]
  00211	8b cf		 mov	 ecx, edi
  00213	50		 push	 eax
  00214	e8 00 00 00 00	 call	 ?Read@CAr@@QAEXPAXI@Z	; CAr::Read

; 450  : 			ar.Read( m_adwPenya, sizeof(m_adwPenya) );

  00219	6a 14		 push	 20			; 00000014H
  0021b	8d 43 5c	 lea	 eax, DWORD PTR [ebx+92]
  0021e	8b cf		 mov	 ecx, edi
  00220	50		 push	 eax
  00221	e8 00 00 00 00	 call	 ?Read@CAr@@QAEXPAXI@Z	; CAr::Read

; 451  : 			ar.ReadString( m_szNotice, MAX_BYTE_NOTICE );	// °řÁö»çÇ× 

  00226	68 80 00 00 00	 push	 128			; 00000080H
  0022b	8d 43 7c	 lea	 eax, DWORD PTR [ebx+124]
  0022e	8b cf		 mov	 ecx, edi
  00230	50		 push	 eax
  00231	e8 00 00 00 00	 call	 ?ReadString@CAr@@QAEPADPADH@Z ; CAr::ReadString

; 452  : 			ar >> m_dwContributionPxp;		// °řÇĺµČ PXP

  00236	8d 43 78	 lea	 eax, DWORD PTR [ebx+120]
  00239	8b cf		 mov	 ecx, edi
  0023b	50		 push	 eax
  0023c	e8 00 00 00 00	 call	 ??$?5K@CAr@@QAEAAV0@AAK@Z ; CAr::operator>><unsigned long>

; 453  : 			ar >> m_nLevel;					// ·ąş§ 

  00241	56		 push	 esi
  00242	8b cf		 mov	 ecx, edi
  00244	e8 00 00 00 00	 call	 ??$?5H@CAr@@QAEAAV0@AAH@Z ; CAr::operator>><int>

; 454  : 			ar >> m_idEnemyGuild;

  00249	8d 83 24 01 00
	00		 lea	 eax, DWORD PTR [ebx+292]
  0024f	8b cf		 mov	 ecx, edi
  00251	50		 push	 eax
  00252	e8 00 00 00 00	 call	 ??$?5K@CAr@@QAEAAV0@AAK@Z ; CAr::operator>><unsigned long>

; 455  : 
; 456  : 			short i, nSize	= 0;
; 457  : 			ar >> nSize;

  00257	8d 45 0c	 lea	 eax, DWORD PTR _nSize$15[ebp]
  0025a	c7 45 0c 00 00
	00 00		 mov	 DWORD PTR _nSize$15[ebp], 0
  00261	50		 push	 eax
  00262	8b cf		 mov	 ecx, edi
  00264	e8 00 00 00 00	 call	 ??$?5F@CAr@@QAEAAV0@AAF@Z ; CAr::operator>><short>

; 458  : 			for( i = 0; i < nSize; i++ )

  00269	33 c0		 xor	 eax, eax
  0026b	c7 45 ec 00 00
	00 00		 mov	 DWORD PTR _i$1$[ebp], 0
  00272	66 3b 45 0c	 cmp	 ax, WORD PTR _nSize$15[ebp]
  00276	0f 8d d9 00 00
	00		 jge	 $LN9@Serialize
  0027c	0f 1f 40 00	 npad	 4
$LL10@Serialize:

; 459  : 			{
; 460  : 				CGuildMember* pMember	= new CGuildMember;

  00280	6a 58		 push	 88			; 00000058H
  00282	e8 00 00 00 00	 call	 ??2@YAPAXI@Z		; operator new
  00287	83 c4 04	 add	 esp, 4
  0028a	89 45 08	 mov	 DWORD PTR $T8[ebp], eax
  0028d	85 c0		 test	 eax, eax
  0028f	74 0b		 je	 SHORT $LN19@Serialize
  00291	8b c8		 mov	 ecx, eax
  00293	e8 00 00 00 00	 call	 ??0CGuildMember@@QAE@XZ	; CGuildMember::CGuildMember
  00298	8b f0		 mov	 esi, eax
  0029a	eb 02		 jmp	 SHORT $LN298@Serialize
$LN19@Serialize:
  0029c	33 f6		 xor	 esi, esi
$LN298@Serialize:

; 461  : 				pMember->Serialize( ar );

  0029e	57		 push	 edi
  0029f	8b ce		 mov	 ecx, esi
  002a1	89 75 f0	 mov	 DWORD PTR $T7[ebp], esi
  002a4	e8 00 00 00 00	 call	 ?Serialize@CGuildMember@@QAEXAAVCAr@@@Z ; CGuildMember::Serialize
; File C:\Program Files\Microsoft Visual Studio\2022\Professional\VC\Tools\MSVC\14.44.35207\include\utility

; 274  :         : first(_STD forward<_Other1>(_Val1)), second(_STD forward<_Other2>(_Val2)) {

  002a9	8b 46 04	 mov	 eax, DWORD PTR [esi+4]
; File C:\Program Files\Microsoft Visual Studio\2022\Professional\VC\Tools\MSVC\14.44.35207\include\xtree

; 1017 :             _Loc                = _Find_lower_bound(_Keyval);

  002ac	8d 4b 38	 lea	 ecx, DWORD PTR [ebx+56]
; File C:\Program Files\Microsoft Visual Studio\2022\Professional\VC\Tools\MSVC\14.44.35207\include\utility

; 274  :         : first(_STD forward<_Other1>(_Val1)), second(_STD forward<_Other2>(_Val2)) {

  002af	89 45 08	 mov	 DWORD PTR $T11[ebp], eax
  002b2	89 45 e4	 mov	 DWORD PTR $T6[ebp], eax
; File C:\Program Files\Microsoft Visual Studio\2022\Professional\VC\Tools\MSVC\14.44.35207\include\xtree

; 1017 :             _Loc                = _Find_lower_bound(_Keyval);

  002b5	8d 45 e4	 lea	 eax, DWORD PTR $T6[ebp]
  002b8	50		 push	 eax
  002b9	8d 45 c4	 lea	 eax, DWORD PTR $T2[ebp]
; File C:\Program Files\Microsoft Visual Studio\2022\Professional\VC\Tools\MSVC\14.44.35207\include\utility

; 274  :         : first(_STD forward<_Other1>(_Val1)), second(_STD forward<_Other2>(_Val2)) {

  002bc	89 75 e8	 mov	 DWORD PTR $T6[ebp+4], esi
; File C:\Program Files\Microsoft Visual Studio\2022\Professional\VC\Tools\MSVC\14.44.35207\include\xtree

; 1017 :             _Loc                = _Find_lower_bound(_Keyval);

  002bf	50		 push	 eax
  002c0	e8 00 00 00 00	 call	 ??$_Find_lower_bound@K@?$_Tree@V?$_Tmap_traits@KPAVCGuildMember@@U?$less@K@std@@V?$allocator@U?$pair@$$CBKPAVCGuildMember@@@std@@@3@$0A@@std@@@std@@IBE?AU?$_Tree_find_result@PAU?$_Tree_node@U?$pair@$$CBKPAVCGuildMember@@@std@@PAX@std@@@1@ABK@Z ; std::_Tree<std::_Tmap_traits<unsigned long,CGuildMember *,std::less<unsigned long>,std::allocator<std::pair<unsigned long const ,CGuildMember *> >,0> >::_Find_lower_bound<unsigned long>
  002c5	8b 48 08	 mov	 ecx, DWORD PTR [eax+8]
  002c8	f3 0f 7e 00	 movq	 xmm0, QWORD PTR [eax]
  002cc	66 0f d6 45 d0	 movq	 QWORD PTR __Loc$3[ebp], xmm0

; 1624 :         return !_Bound->_Isnil && !_DEBUG_LT_PRED(_Getcomp(), _Keyval, _Traits::_Kfn(_Bound->_Myval));

  002d1	80 79 0d 00	 cmp	 BYTE PTR [ecx+13], 0
  002d5	75 08		 jne	 SHORT $LN169@Serialize
; File C:\Program Files\Microsoft Visual Studio\2022\Professional\VC\Tools\MSVC\14.44.35207\include\type_traits

; 2380 :         return _Left < _Right;

  002d7	8b 45 08	 mov	 eax, DWORD PTR $T11[ebp]
  002da	3b 41 10	 cmp	 eax, DWORD PTR [ecx+16]
; File C:\Program Files\Microsoft Visual Studio\2022\Professional\VC\Tools\MSVC\14.44.35207\include\xtree

; 1624 :         return !_Bound->_Isnil && !_DEBUG_LT_PRED(_Getcomp(), _Keyval, _Traits::_Kfn(_Bound->_Myval));

  002dd	73 65		 jae	 SHORT $LN244@Serialize
$LN169@Serialize:

; 1648 :         if (max_size() == _Get_scary()->_Mysize) {

  002df	81 7b 3c aa aa
	aa 0a		 cmp	 DWORD PTR [ebx+60], 178956970 ; 0aaaaaaaH
  002e6	0f 84 67 01 00
	00		 je	 $LN277@Serialize

; 1023 :             _Inserted = _Tree_temp_node<_Alnode>(_Getal(), _Scary->_Myhead, _STD forward<_Valtys>(_Vals)...)._Release();

  002ec	8b 73 38	 mov	 esi, DWORD PTR [ebx+56]
; File C:\Program Files\Microsoft Visual Studio\2022\Professional\VC\Tools\MSVC\14.44.35207\include\xmemory

; 1160 :     _CONSTEXPR20 explicit _Alloc_construct_ptr(_Alloc& _Al_) : _Al(_Al_), _Ptr(nullptr) {}

  002ef	8d 43 38	 lea	 eax, DWORD PTR [ebx+56]
  002f2	89 45 dc	 mov	 DWORD PTR $T5[ebp], eax

; 136  :         return ::operator new(_Bytes);

  002f5	6a 18		 push	 24			; 00000018H
; File C:\Program Files\Microsoft Visual Studio\2022\Professional\VC\Tools\MSVC\14.44.35207\include\xtree

; 808  :     explicit _Tree_temp_node_alloc(_Alnode& _Al_) : _Alloc_construct_ptr<_Alnode>(_Al_) {

  002f7	c7 45 fc 00 00
	00 00		 mov	 DWORD PTR __$EHRec$[ebp+8], 0
; File C:\Program Files\Microsoft Visual Studio\2022\Professional\VC\Tools\MSVC\14.44.35207\include\xmemory

; 1167 :         _Ptr = nullptr; // if allocate throws, prevents double-free

  002fe	c7 45 e0 00 00
	00 00		 mov	 DWORD PTR $T5[ebp+4], 0

; 136  :         return ::operator new(_Bytes);

  00305	e8 00 00 00 00	 call	 ??2@YAPAXI@Z		; operator new
; File C:\Program Files\Microsoft Visual Studio\2022\Professional\VC\Tools\MSVC\14.44.35207\include\xtree

; 830  :         _Alnode_traits::construct(this->_Al, _STD addressof(this->_Ptr->_Myval), _STD forward<_Valtys>(_Vals)...);

  0030a	8b 4d 08	 mov	 ecx, DWORD PTR $T11[ebp]
; File C:\Program Files\Microsoft Visual Studio\2022\Professional\VC\Tools\MSVC\14.44.35207\include\xmemory

; 136  :         return ::operator new(_Bytes);

  0030d	83 c4 04	 add	 esp, 4
; File C:\Program Files\Microsoft Visual Studio\2022\Professional\VC\Tools\MSVC\14.44.35207\include\xtree

; 810  :     }

  00310	c7 45 fc ff ff
	ff ff		 mov	 DWORD PTR __$EHRec$[ebp+8], -1
; File C:\Program Files\Microsoft Visual Studio\2022\Professional\VC\Tools\MSVC\14.44.35207\include\utility

; 774  :     _Val         = static_cast<_Other&&>(_New_val);

  00317	c7 45 e0 00 00
	00 00		 mov	 DWORD PTR $T5[ebp+4], 0
; File C:\Program Files\Microsoft Visual Studio\2022\Professional\VC\Tools\MSVC\14.44.35207\include\xtree

; 830  :         _Alnode_traits::construct(this->_Al, _STD addressof(this->_Ptr->_Myval), _STD forward<_Valtys>(_Vals)...);

  0031e	89 48 10	 mov	 DWORD PTR [eax+16], ecx
  00321	8b 4d f0	 mov	 ecx, DWORD PTR $T7[ebp]
  00324	89 48 14	 mov	 DWORD PTR [eax+20], ecx

; 1042 :         return {_Scary->_Insert_node(_Loc._Location, _Inserted), true};

  00327	8d 4b 38	 lea	 ecx, DWORD PTR [ebx+56]
  0032a	50		 push	 eax
  0032b	ff 75 d4	 push	 DWORD PTR __Loc$3[ebp+4]

; 831  :         _Construct_in_place(this->_Ptr->_Left, _Myhead);

  0032e	89 30		 mov	 DWORD PTR [eax], esi

; 1042 :         return {_Scary->_Insert_node(_Loc._Location, _Inserted), true};

  00330	ff 75 d0	 push	 DWORD PTR __Loc$3[ebp]

; 832  :         _Construct_in_place(this->_Ptr->_Parent, _Myhead);

  00333	89 70 04	 mov	 DWORD PTR [eax+4], esi

; 833  :         _Construct_in_place(this->_Ptr->_Right, _Myhead);

  00336	89 70 08	 mov	 DWORD PTR [eax+8], esi

; 834  :         this->_Ptr->_Color = _Red;

  00339	66 c7 40 0c 00
	00		 mov	 WORD PTR [eax+12], 0

; 1042 :         return {_Scary->_Insert_node(_Loc._Location, _Inserted), true};

  0033f	e8 00 00 00 00	 call	 ?_Insert_node@?$_Tree_val@U?$_Tree_simple_types@U?$pair@$$CBKPAVCGuildMember@@@std@@@std@@@std@@QAEPAU?$_Tree_node@U?$pair@$$CBKPAVCGuildMember@@@std@@PAX@2@U?$_Tree_id@PAU?$_Tree_node@U?$pair@$$CBKPAVCGuildMember@@@std@@PAX@std@@@2@QAU32@@Z ; std::_Tree_val<std::_Tree_simple_types<std::pair<unsigned long const ,CGuildMember *> > >::_Insert_node
$LN244@Serialize:
; File C:\IAGOS\server\v18\Source\Source\_common\guild.cpp

; 458  : 			for( i = 0; i < nSize; i++ )

  00344	8b 75 ec	 mov	 esi, DWORD PTR _i$1$[ebp]
  00347	46		 inc	 esi
  00348	89 75 ec	 mov	 DWORD PTR _i$1$[ebp], esi
  0034b	66 3b 75 0c	 cmp	 si, WORD PTR _nSize$15[ebp]
  0034f	0f 8c 2b ff ff
	ff		 jl	 $LL10@Serialize
$LN9@Serialize:

; 462  : 				m_mapPMember.insert( map<u_long, CGuildMember*>::value_type( pMember->m_idPlayer, pMember ) );
; 463  : 			}
; 464  : 
; 465  : 			ar >> nSize;

  00355	8d 45 0c	 lea	 eax, DWORD PTR _nSize$15[ebp]
  00358	8b cf		 mov	 ecx, edi
  0035a	50		 push	 eax
  0035b	e8 00 00 00 00	 call	 ??$?5F@CAr@@QAEAAV0@AAF@Z ; CAr::operator>><short>

; 466  : 			for( i = 0; i < nSize; i++ )

  00360	33 c0		 xor	 eax, eax
  00362	c7 45 ec 00 00
	00 00		 mov	 DWORD PTR _i$2$[ebp], 0
  00369	66 3b 45 0c	 cmp	 ax, WORD PTR _nSize$15[ebp]
  0036d	0f 8d 9c 00 00
	00		 jge	 $LN12@Serialize
  00373	8d b3 1c 01 00
	00		 lea	 esi, DWORD PTR [ebx+284]
  00379	0f 1f 80 00 00
	00 00		 npad	 7
$LL13@Serialize:

; 467  : 			{
; 468  : 				CGuildVote* pVote = new CGuildVote;

  00380	68 28 01 00 00	 push	 296			; 00000128H
  00385	e8 00 00 00 00	 call	 ??2@YAPAXI@Z		; operator new
  0038a	83 c4 04	 add	 esp, 4
  0038d	89 45 08	 mov	 DWORD PTR $T9[ebp], eax
  00390	85 c0		 test	 eax, eax
  00392	74 09		 je	 SHORT $LN21@Serialize
  00394	8b c8		 mov	 ecx, eax
  00396	e8 00 00 00 00	 call	 ??0CGuildVote@@QAE@XZ	; CGuildVote::CGuildVote
  0039b	eb 02		 jmp	 SHORT $LN299@Serialize
$LN21@Serialize:
  0039d	33 c0		 xor	 eax, eax
$LN299@Serialize:

; 469  : 				pVote->Serialize( ar );

  0039f	57		 push	 edi
  003a0	8b c8		 mov	 ecx, eax
  003a2	89 45 08	 mov	 DWORD PTR $T10[ebp], eax
  003a5	e8 00 00 00 00	 call	 ?Serialize@CGuildVote@@QAEXAAVCAr@@@Z ; CGuildVote::Serialize
; File C:\Program Files\Microsoft Visual Studio\2022\Professional\VC\Tools\MSVC\14.44.35207\include\list

; 1030 :         if (_Mysize == max_size()) {

  003aa	81 7e 04 55 55
	55 15		 cmp	 DWORD PTR [esi+4], 357913941 ; 15555555H

; 1274 :         _Emplace(_Mypair._Myval2._Myhead, _Val);

  003b1	8b 06		 mov	 eax, DWORD PTR [esi]
  003b3	89 45 f0	 mov	 DWORD PTR __Where$1$[ebp], eax

; 1030 :         if (_Mysize == max_size()) {

  003b6	0f 84 8d 00 00
	00		 je	 $LN279@Serialize
; File C:\Program Files\Microsoft Visual Studio\2022\Professional\VC\Tools\MSVC\14.44.35207\include\xmemory

; 1160 :     _CONSTEXPR20 explicit _Alloc_construct_ptr(_Alloc& _Al_) : _Al(_Al_), _Ptr(nullptr) {}

  003bc	89 75 dc	 mov	 DWORD PTR __Op$4[ebp], esi

; 136  :         return ::operator new(_Bytes);

  003bf	6a 0c		 push	 12			; 0000000cH
; File C:\Program Files\Microsoft Visual Studio\2022\Professional\VC\Tools\MSVC\14.44.35207\include\list

; 593  :     explicit _List_node_emplace_op2(_Alnode& _Al_, _Valtys&&... _Vals) : _Alloc_construct_ptr<_Alnode>(_Al_) {

  003c1	c7 45 fc 01 00
	00 00		 mov	 DWORD PTR __$EHRec$[ebp+8], 1
; File C:\Program Files\Microsoft Visual Studio\2022\Professional\VC\Tools\MSVC\14.44.35207\include\xmemory

; 1167 :         _Ptr = nullptr; // if allocate throws, prevents double-free

  003c8	c7 45 e0 00 00
	00 00		 mov	 DWORD PTR __Op$4[ebp+4], 0

; 136  :         return ::operator new(_Bytes);

  003cf	e8 00 00 00 00	 call	 ??2@YAPAXI@Z		; operator new
; File C:\Program Files\Microsoft Visual Studio\2022\Professional\VC\Tools\MSVC\14.44.35207\include\list

; 608  :         const pointer _Insert_after = _Insert_before->_Prev;

  003d4	8b 55 f0	 mov	 edx, DWORD PTR __Where$1$[ebp]
; File C:\Program Files\Microsoft Visual Studio\2022\Professional\VC\Tools\MSVC\14.44.35207\include\xmemory

; 136  :         return ::operator new(_Bytes);

  003d7	83 c4 04	 add	 esp, 4
; File C:\Program Files\Microsoft Visual Studio\2022\Professional\VC\Tools\MSVC\14.44.35207\include\list

; 595  :         _Alnode_traits::construct(this->_Al, _STD addressof(this->_Ptr->_Myval), _STD forward<_Valtys>(_Vals)...);

  003da	8b 4d 08	 mov	 ecx, DWORD PTR $T10[ebp]

; 596  :     }

  003dd	c7 45 fc ff ff
	ff ff		 mov	 DWORD PTR __$EHRec$[ebp+8], -1
  003e4	89 48 08	 mov	 DWORD PTR [eax+8], ecx

; 1035 :         ++_Mysize;

  003e7	ff 46 04	 inc	 DWORD PTR [esi+4]

; 608  :         const pointer _Insert_after = _Insert_before->_Prev;

  003ea	8b 4a 04	 mov	 ecx, DWORD PTR [edx+4]

; 609  :         _Construct_in_place(this->_Ptr->_Next, _Insert_before);

  003ed	89 10		 mov	 DWORD PTR [eax], edx

; 610  :         _Construct_in_place(this->_Ptr->_Prev, _Insert_after);

  003ef	89 48 04	 mov	 DWORD PTR [eax+4], ecx

; 613  :         _Insert_before->_Prev = _Result;

  003f2	89 42 04	 mov	 DWORD PTR [edx+4], eax

; 614  :         _Insert_after->_Next  = _Result;

  003f5	89 01		 mov	 DWORD PTR [ecx], eax
; File C:\IAGOS\server\v18\Source\Source\_common\guild.cpp

; 466  : 			for( i = 0; i < nSize; i++ )

  003f7	8b 45 ec	 mov	 eax, DWORD PTR _i$2$[ebp]
  003fa	40		 inc	 eax
; File C:\Program Files\Microsoft Visual Studio\2022\Professional\VC\Tools\MSVC\14.44.35207\include\list

; 612  :         this->_Ptr            = pointer{};

  003fb	c7 45 e0 00 00
	00 00		 mov	 DWORD PTR __Op$4[ebp+4], 0
; File C:\IAGOS\server\v18\Source\Source\_common\guild.cpp

; 466  : 			for( i = 0; i < nSize; i++ )

  00402	89 45 ec	 mov	 DWORD PTR _i$2$[ebp], eax
  00405	66 3b 45 0c	 cmp	 ax, WORD PTR _nSize$15[ebp]
  00409	0f 8c 71 ff ff
	ff		 jl	 $LL13@Serialize
$LN12@Serialize:

; 470  : 				m_votes.push_back( pVote );
; 471  : 			}
; 472  : 
; 473  : 			ar >> m_nQuestSize;

  0040f	8d b3 40 0d 00
	00		 lea	 esi, DWORD PTR [ebx+3392]
  00415	8b cf		 mov	 ecx, edi
  00417	56		 push	 esi
  00418	e8 00 00 00 00	 call	 ??$?5E@CAr@@QAEAAV0@AAE@Z ; CAr::operator>><unsigned char>

; 474  : 			ar.Read( (void*)m_aQuest, sizeof(GUILDQUEST) * m_nQuestSize );

  0041d	0f b6 06	 movzx	 eax, BYTE PTR [esi]
  00420	8b cf		 mov	 ecx, edi
  00422	8d 04 40	 lea	 eax, DWORD PTR [eax+eax*2]
  00425	c1 e0 02	 shl	 eax, 2
  00428	50		 push	 eax
  00429	8d 83 40 01 00
	00		 lea	 eax, DWORD PTR [ebx+320]
  0042f	50		 push	 eax
  00430	e8 00 00 00 00	 call	 ?Read@CAr@@QAEXPAXI@Z	; CAr::Read
$LN17@Serialize:

; 477  : }

  00435	8b 4d f4	 mov	 ecx, DWORD PTR __$EHRec$[ebp]
  00438	64 89 0d 00 00
	00 00		 mov	 DWORD PTR fs:0, ecx
  0043f	59		 pop	 ecx
  00440	5f		 pop	 edi
  00441	5e		 pop	 esi
  00442	5b		 pop	 ebx
  00443	8b e5		 mov	 esp, ebp
  00445	5d		 pop	 ebp
  00446	c2 08 00	 ret	 8
$LN279@Serialize:
; File C:\Program Files\Microsoft Visual Studio\2022\Professional\VC\Tools\MSVC\14.44.35207\include\list

; 1031 :             _Xlength_error("list too long");

  00449	68 00 00 00 00	 push	 OFFSET ??_C@_0O@NKNMEGII@list?5too?5long@
  0044e	e8 00 00 00 00	 call	 ?_Xlength_error@std@@YAXPBD@Z ; std::_Xlength_error
$LN277@Serialize:
; File C:\Program Files\Microsoft Visual Studio\2022\Professional\VC\Tools\MSVC\14.44.35207\include\xtree

; 1649 :             _Throw_tree_length_error();

  00453	e8 00 00 00 00	 call	 ?_Throw_tree_length_error@std@@YAXXZ ; std::_Throw_tree_length_error
$LN297@Serialize:
  00458	cc		 int	 3
_TEXT	ENDS
;	COMDAT text$x
text$x	SEGMENT
__unwindfunclet$?Serialize@CGuild@@QAEXAAVCAr@@H@Z$7:
  00000	8d 4d dc	 lea	 ecx, DWORD PTR $T5[ebp]
  00003	e9 00 00 00 00	 jmp	 ??1?$_Alloc_construct_ptr@V?$allocator@U?$_Tree_node@U?$pair@$$CBKPAVCGuildMember@@@std@@PAX@std@@@std@@@std@@QAE@XZ ; std::_Alloc_construct_ptr<std::allocator<std::_Tree_node<std::pair<unsigned long const ,CGuildMember *>,void *> > >::~_Alloc_construct_ptr<std::allocator<std::_Tree_node<std::pair<unsigned long const ,CGuildMember *>,void *> > >
__unwindfunclet$?Serialize@CGuild@@QAEXAAVCAr@@H@Z$3:
  00008	8d 4d dc	 lea	 ecx, DWORD PTR __Op$4[ebp]
  0000b	e9 00 00 00 00	 jmp	 ??1?$_Alloc_construct_ptr@V?$allocator@U?$_List_node@PAVCGuildVote@@PAX@std@@@std@@@std@@QAE@XZ ; std::_Alloc_construct_ptr<std::allocator<std::_List_node<CGuildVote *,void *> > >::~_Alloc_construct_ptr<std::allocator<std::_List_node<CGuildVote *,void *> > >
  00010	cc		 int	 3
  00011	cc		 int	 3
  00012	cc		 int	 3
  00013	cc		 int	 3
  00014	cc		 int	 3
__ehhandler$?Serialize@CGuild@@QAEXAAVCAr@@H@Z:
  00015	90		 npad	 1
  00016	90		 npad	 1
  00017	8b 54 24 08	 mov	 edx, DWORD PTR [esp+8]
  0001b	8d 42 0c	 lea	 eax, DWORD PTR [edx+12]
  0001e	8b 4a c0	 mov	 ecx, DWORD PTR [edx-64]
  00021	33 c8		 xor	 ecx, eax
  00023	e8 00 00 00 00	 call	 @__security_check_cookie@4
  00028	b8 00 00 00 00	 mov	 eax, OFFSET __ehfuncinfo$?Serialize@CGuild@@QAEXAAVCAr@@H@Z
  0002d	e9 00 00 00 00	 jmp	 ___CxxFrameHandler3
text$x	ENDS
?Serialize@CGuild@@QAEXAAVCAr@@H@Z ENDP			; CGuild::Serialize
; Function compile flags: /Ogtp
; File C:\IAGOS\server\v18\Source\Source\_common\guild.cpp
; File C:\Program Files\Microsoft Visual Studio\2022\Professional\VC\Tools\MSVC\14.44.35207\include\xtree
; File C:\IAGOS\server\v18\Source\Source\_common\guild.cpp
; File C:\Program Files\Microsoft Visual Studio\2022\Professional\VC\Tools\MSVC\14.44.35207\include\xtree
; File C:\Program Files\Microsoft Visual Studio\2022\Professional\VC\Tools\MSVC\14.44.35207\include\type_traits
; File C:\Program Files\Microsoft Visual Studio\2022\Professional\VC\Tools\MSVC\14.44.35207\include\xtree
; File C:\Program Files\Microsoft Visual Studio\2022\Professional\VC\Tools\MSVC\14.44.35207\include\type_traits
; File C:\Program Files\Microsoft Visual Studio\2022\Professional\VC\Tools\MSVC\14.44.35207\include\xtree
; File C:\Program Files\Microsoft Visual Studio\2022\Professional\VC\Tools\MSVC\14.44.35207\include\type_traits
; File C:\Program Files\Microsoft Visual Studio\2022\Professional\VC\Tools\MSVC\14.44.35207\include\xtree
; File C:\IAGOS\server\v18\Source\Source\_common\guild.cpp
; File C:\Program Files\Microsoft Visual Studio\2022\Professional\VC\Tools\MSVC\14.44.35207\include\xtree
; File C:\Program Files\Microsoft Visual Studio\2022\Professional\VC\Tools\MSVC\14.44.35207\include\xmemory
; File C:\Program Files\Microsoft Visual Studio\2022\Professional\VC\Tools\MSVC\14.44.35207\include\xtree
; File C:\Program Files\Microsoft Visual Studio\2022\Professional\VC\Tools\MSVC\14.44.35207\include\xmemory
; File C:\Program Files\Microsoft Visual Studio\2022\Professional\VC\Tools\MSVC\14.44.35207\include\xtree
; File C:\IAGOS\server\v18\Source\Source\_common\guild.cpp
;	COMDAT ?RemoveMember@CGuild@@QAEHK@Z
_TEXT	SEGMENT
__First$ = -4						; size = 4
_idPlayer$ = 8						; size = 4
_this$1$ = 8						; size = 4
?RemoveMember@CGuild@@QAEHK@Z PROC			; CGuild::RemoveMember, COMDAT
; _this$ = ecx

; 398  : {

  00000	55		 push	 ebp
  00001	8b ec		 mov	 ebp, esp
  00003	51		 push	 ecx
  00004	53		 push	 ebx

; 399  : 	CGuildMember* pMember	= GetMember( idPlayer );

  00005	8b 5d 08	 mov	 ebx, DWORD PTR _idPlayer$[ebp]
  00008	56		 push	 esi
  00009	53		 push	 ebx
  0000a	8b f1		 mov	 esi, ecx
  0000c	e8 00 00 00 00	 call	 ?GetMember@CGuild@@QAEPAVCGuildMember@@K@Z ; CGuild::GetMember

; 400  : 	if( pMember )

  00011	85 c0		 test	 eax, eax
  00013	0f 84 c7 00 00
	00		 je	 $LN2@RemoveMemb

; 401  : 	{
; 402  : 		safe_delete( pMember );

  00019	8b 10		 mov	 edx, DWORD PTR [eax]
  0001b	8b c8		 mov	 ecx, eax
  0001d	57		 push	 edi
  0001e	6a 01		 push	 1
  00020	ff 12		 call	 DWORD PTR [edx]
; File C:\Program Files\Microsoft Visual Studio\2022\Professional\VC\Tools\MSVC\14.44.35207\include\xtree

; 1709 :         _Nodeptr _Pnode   = _Scary->_Myhead->_Parent;

  00022	8b 7e 38	 mov	 edi, DWORD PTR [esi+56]
; File C:\IAGOS\server\v18\Source\Source\_common\guild.cpp

; 403  : 		m_mapPMember.erase( idPlayer );

  00025	8d 56 38	 lea	 edx, DWORD PTR [esi+56]
  00028	89 55 08	 mov	 DWORD PTR _this$1$[ebp], edx
; File C:\Program Files\Microsoft Visual Studio\2022\Professional\VC\Tools\MSVC\14.44.35207\include\xtree

; 1710 :         _Nodeptr _Lonode  = _Scary->_Myhead; // end() if search fails

  0002b	8b f7		 mov	 esi, edi
  0002d	8b 4f 04	 mov	 ecx, DWORD PTR [edi+4]
  00030	8b c1		 mov	 eax, ecx

; 1711 :         _Nodeptr _Hinode  = _Scary->_Myhead; // end() if search fails
; 1712 : 
; 1713 :         while (!_Pnode->_Isnil) {

  00032	80 78 0d 00	 cmp	 BYTE PTR [eax+13], 0
  00036	75 24		 jne	 SHORT $LN11@RemoveMemb
$LL10@RemoveMemb:
; File C:\Program Files\Microsoft Visual Studio\2022\Professional\VC\Tools\MSVC\14.44.35207\include\type_traits

; 2380 :         return _Left < _Right;

  00038	8b 50 10	 mov	 edx, DWORD PTR [eax+16]
  0003b	3b d3		 cmp	 edx, ebx
; File C:\Program Files\Microsoft Visual Studio\2022\Professional\VC\Tools\MSVC\14.44.35207\include\xtree

; 1715 :             if (_DEBUG_LT_PRED(_Comp, _Nodekey, _Keyval)) {

  0003d	73 05		 jae	 SHORT $LN14@RemoveMemb

; 1716 :                 _Pnode = _Pnode->_Right; // descend right subtree

  0003f	8b 40 08	 mov	 eax, DWORD PTR [eax+8]

; 1717 :             } else { // _Pnode not less than _Keyval, remember it

  00042	eb 0f		 jmp	 SHORT $LN15@RemoveMemb
$LN14@RemoveMemb:

; 1718 :                 if (_Hinode->_Isnil && _DEBUG_LT_PRED(_Comp, _Keyval, _Nodekey)) {

  00044	80 7f 0d 00	 cmp	 BYTE PTR [edi+13], 0
  00048	74 05		 je	 SHORT $LN16@RemoveMemb
; File C:\Program Files\Microsoft Visual Studio\2022\Professional\VC\Tools\MSVC\14.44.35207\include\type_traits

; 2380 :         return _Left < _Right;

  0004a	3b da		 cmp	 ebx, edx
; File C:\Program Files\Microsoft Visual Studio\2022\Professional\VC\Tools\MSVC\14.44.35207\include\xtree

; 1718 :                 if (_Hinode->_Isnil && _DEBUG_LT_PRED(_Comp, _Keyval, _Nodekey)) {

  0004c	0f 42 f8	 cmovb	 edi, eax
$LN16@RemoveMemb:

; 1719 :                     _Hinode = _Pnode; // _Pnode greater, remember it
; 1720 :                 }
; 1721 : 
; 1722 :                 _Lonode = _Pnode;

  0004f	8b f0		 mov	 esi, eax

; 1723 :                 _Pnode  = _Pnode->_Left; // descend left subtree

  00051	8b 00		 mov	 eax, DWORD PTR [eax]
$LN15@RemoveMemb:

; 1711 :         _Nodeptr _Hinode  = _Scary->_Myhead; // end() if search fails
; 1712 : 
; 1713 :         while (!_Pnode->_Isnil) {

  00053	80 78 0d 00	 cmp	 BYTE PTR [eax+13], 0
  00057	74 df		 je	 SHORT $LL10@RemoveMemb
  00059	8b 55 08	 mov	 edx, DWORD PTR _this$1$[ebp]
$LN11@RemoveMemb:

; 1724 :             }
; 1725 :         }
; 1726 : 
; 1727 :         _Pnode = _Hinode->_Isnil ? _Scary->_Myhead->_Parent : _Hinode->_Left; // continue scan for upper bound

  0005c	80 7f 0d 00	 cmp	 BYTE PTR [edi+13], 0
  00060	75 02		 jne	 SHORT $LN21@RemoveMemb
  00062	8b 0f		 mov	 ecx, DWORD PTR [edi]
$LN21@RemoveMemb:

; 1728 :         while (!_Pnode->_Isnil) {

  00064	80 79 0d 00	 cmp	 BYTE PTR [ecx+13], 0
  00068	75 1a		 jne	 SHORT $LN13@RemoveMemb
  0006a	66 0f 1f 44 00
	00		 npad	 6
$LL12@RemoveMemb:
; File C:\Program Files\Microsoft Visual Studio\2022\Professional\VC\Tools\MSVC\14.44.35207\include\type_traits

; 2380 :         return _Left < _Right;

  00070	3b 59 10	 cmp	 ebx, DWORD PTR [ecx+16]
; File C:\Program Files\Microsoft Visual Studio\2022\Professional\VC\Tools\MSVC\14.44.35207\include\xtree

; 1729 :             if (_DEBUG_LT_PRED(_Getcomp(), _Keyval, _Traits::_Kfn(_Pnode->_Myval))) {

  00073	73 06		 jae	 SHORT $LN17@RemoveMemb

; 1730 :                 // _Pnode greater than _Keyval, remember it
; 1731 :                 _Hinode = _Pnode;

  00075	8b f9		 mov	 edi, ecx

; 1732 :                 _Pnode  = _Pnode->_Left; // descend left subtree

  00077	8b 09		 mov	 ecx, DWORD PTR [ecx]

; 1733 :             } else {

  00079	eb 03		 jmp	 SHORT $LN18@RemoveMemb
$LN17@RemoveMemb:

; 1734 :                 _Pnode = _Pnode->_Right; // descend right subtree

  0007b	8b 49 08	 mov	 ecx, DWORD PTR [ecx+8]
$LN18@RemoveMemb:

; 1728 :         while (!_Pnode->_Isnil) {

  0007e	80 79 0d 00	 cmp	 BYTE PTR [ecx+13], 0
  00082	74 ec		 je	 SHORT $LL12@RemoveMemb
$LN13@RemoveMemb:

; 96   :         return _Ptr == _Right._Ptr;

  00084	8b 02		 mov	 eax, DWORD PTR [edx]

; 1329 :         _Erase_unchecked(_First, _Last);

  00086	89 75 fc	 mov	 DWORD PTR __First$[ebp], esi

; 96   :         return _Ptr == _Right._Ptr;

  00089	3b 30		 cmp	 esi, DWORD PTR [eax]

; 1311 :         if (_First == _Begin && _Last._Ptr->_Isnil) {

  0008b	75 1b		 jne	 SHORT $LN128@RemoveMemb
  0008d	80 7f 0d 00	 cmp	 BYTE PTR [edi+13], 0
  00091	74 15		 je	 SHORT $LN128@RemoveMemb

; 1312 :             // erase all
; 1313 :             clear();

  00093	8b ca		 mov	 ecx, edx
  00095	e8 00 00 00 00	 call	 ?clear@?$_Tree@V?$_Tmap_traits@KPAVCGuildMember@@U?$less@K@std@@V?$allocator@U?$pair@$$CBKPAVCGuildMember@@@std@@@3@$0A@@std@@@std@@QAEXXZ ; std::_Tree<std::_Tmap_traits<unsigned long,CGuildMember *,std::less<unsigned long>,std::allocator<std::pair<unsigned long const ,CGuildMember *> >,0> >::clear
; File C:\IAGOS\server\v18\Source\Source\_common\guild.cpp

; 404  : 		return TRUE;

  0009a	5f		 pop	 edi
  0009b	5e		 pop	 esi
  0009c	b8 01 00 00 00	 mov	 eax, 1

; 407  : }

  000a1	5b		 pop	 ebx
  000a2	8b e5		 mov	 esp, ebp
  000a4	5d		 pop	 ebp
  000a5	c2 04 00	 ret	 4
$LN128@RemoveMemb:
; File C:\Program Files\Microsoft Visual Studio\2022\Professional\VC\Tools\MSVC\14.44.35207\include\xtree

; 101  :         return !(*this == _Right);

  000a8	3b f7		 cmp	 esi, edi

; 1318 :         while (_First != _Last) {

  000aa	74 26		 je	 SHORT $LN134@RemoveMemb
  000ac	8b 5d 08	 mov	 ebx, DWORD PTR _this$1$[ebp]
  000af	90		 npad	 1
$LL68@RemoveMemb:

; 66   :         ++*this;

  000b0	8d 4d fc	 lea	 ecx, DWORD PTR __First$[ebp]
  000b3	e8 00 00 00 00	 call	 ??E?$_Tree_unchecked_const_iterator@V?$_Tree_val@U?$_Tree_simple_types@U?$pair@$$CBKPAVCGuildMember@@@std@@@std@@@std@@U_Iterator_base0@2@@std@@QAEAAV01@XZ ; std::_Tree_unchecked_const_iterator<std::_Tree_val<std::_Tree_simple_types<std::pair<unsigned long const ,CGuildMember *> > >,std::_Iterator_base0>::operator++

; 1303 :         _Nodeptr _Erasednode = _Scary->_Extract(_Where); // node to erase

  000b8	56		 push	 esi
  000b9	8b cb		 mov	 ecx, ebx
  000bb	e8 00 00 00 00	 call	 ?_Extract@?$_Tree_val@U?$_Tree_simple_types@U?$pair@$$CBKPAVCGuildMember@@@std@@@std@@@std@@QAEPAU?$_Tree_node@U?$pair@$$CBKPAVCGuildMember@@@std@@PAX@2@V?$_Tree_unchecked_const_iterator@V?$_Tree_val@U?$_Tree_simple_types@U?$pair@$$CBKPAVCGuildMember@@@std@@@std@@@std@@U_Iterator_base0@2@@2@@Z ; std::_Tree_val<std::_Tree_simple_types<std::pair<unsigned long const ,CGuildMember *> > >::_Extract
; File C:\Program Files\Microsoft Visual Studio\2022\Professional\VC\Tools\MSVC\14.44.35207\include\xmemory

; 289  :         ::operator delete(_Ptr, _Bytes);

  000c0	6a 18		 push	 24			; 00000018H
  000c2	50		 push	 eax
  000c3	e8 00 00 00 00	 call	 ??3@YAXPAXI@Z		; operator delete
; File C:\Program Files\Microsoft Visual Studio\2022\Professional\VC\Tools\MSVC\14.44.35207\include\xtree

; 101  :         return !(*this == _Right);

  000c8	8b 75 fc	 mov	 esi, DWORD PTR __First$[ebp]
; File C:\Program Files\Microsoft Visual Studio\2022\Professional\VC\Tools\MSVC\14.44.35207\include\xmemory

; 289  :         ::operator delete(_Ptr, _Bytes);

  000cb	83 c4 08	 add	 esp, 8
; File C:\Program Files\Microsoft Visual Studio\2022\Professional\VC\Tools\MSVC\14.44.35207\include\xtree

; 101  :         return !(*this == _Right);

  000ce	3b f7		 cmp	 esi, edi

; 1318 :         while (_First != _Last) {

  000d0	75 de		 jne	 SHORT $LL68@RemoveMemb
$LN134@RemoveMemb:
; File C:\IAGOS\server\v18\Source\Source\_common\guild.cpp

; 404  : 		return TRUE;

  000d2	5f		 pop	 edi
  000d3	5e		 pop	 esi
  000d4	b8 01 00 00 00	 mov	 eax, 1

; 407  : }

  000d9	5b		 pop	 ebx
  000da	8b e5		 mov	 esp, ebp
  000dc	5d		 pop	 ebp
  000dd	c2 04 00	 ret	 4
$LN2@RemoveMemb:
  000e0	5e		 pop	 esi

; 405  : 	}
; 406  : 	return FALSE;

  000e1	33 c0		 xor	 eax, eax

; 407  : }

  000e3	5b		 pop	 ebx
  000e4	8b e5		 mov	 esp, ebp
  000e6	5d		 pop	 ebp
  000e7	c2 04 00	 ret	 4
?RemoveMember@CGuild@@QAEHK@Z ENDP			; CGuild::RemoveMember
_TEXT	ENDS
; Function compile flags: /Ogtp
; File C:\IAGOS\server\v18\Source\Source\_common\guild.cpp
; File C:\Program Files\Microsoft Visual Studio\2022\Professional\VC\Tools\MSVC\14.44.35207\include\utility
; File C:\IAGOS\server\v18\Source\Source\_common\guild.cpp
; File C:\Program Files\Microsoft Visual Studio\2022\Professional\VC\Tools\MSVC\14.44.35207\include\utility
; File C:\IAGOS\server\v18\Source\Source\_common\guild.cpp
;	COMDAT ?AddMember@CGuild@@QAEHPAVCGuildMember@@@Z
_TEXT	SEGMENT
$T1 = -16						; size = 8
$T2 = -8						; size = 8
_pMember$ = 8						; size = 4
?AddMember@CGuild@@QAEHPAVCGuildMember@@@Z PROC		; CGuild::AddMember, COMDAT
; _this$ = ecx

; 390  : {

  00000	55		 push	 ebp
  00001	8b ec		 mov	 ebp, esp
  00003	83 ec 10	 sub	 esp, 16			; 00000010H
  00006	53		 push	 ebx
  00007	56		 push	 esi
  00008	57		 push	 edi

; 391  : 	if( GetMember( pMember->m_idPlayer ) )

  00009	8b 7d 08	 mov	 edi, DWORD PTR _pMember$[ebp]
  0000c	8b f1		 mov	 esi, ecx
  0000e	8b 5f 04	 mov	 ebx, DWORD PTR [edi+4]
  00011	53		 push	 ebx
  00012	e8 00 00 00 00	 call	 ?GetMember@CGuild@@QAEPAVCGuildMember@@K@Z ; CGuild::GetMember
  00017	85 c0		 test	 eax, eax
  00019	74 0b		 je	 SHORT $LN2@AddMember

; 394  : 	return TRUE;	//
; 395  : }

  0001b	5f		 pop	 edi
  0001c	5e		 pop	 esi
  0001d	33 c0		 xor	 eax, eax
  0001f	5b		 pop	 ebx
  00020	8b e5		 mov	 esp, ebp
  00022	5d		 pop	 ebp
  00023	c2 04 00	 ret	 4
$LN2@AddMember:

; 393  : 	m_mapPMember.insert( map<u_long, CGuildMember*>::value_type( pMember->m_idPlayer, pMember ) );

  00026	8d 45 f8	 lea	 eax, DWORD PTR $T2[ebp]
; File C:\Program Files\Microsoft Visual Studio\2022\Professional\VC\Tools\MSVC\14.44.35207\include\utility

; 274  :         : first(_STD forward<_Other1>(_Val1)), second(_STD forward<_Other2>(_Val2)) {

  00029	89 5d f8	 mov	 DWORD PTR $T2[ebp], ebx
; File C:\IAGOS\server\v18\Source\Source\_common\guild.cpp

; 393  : 	m_mapPMember.insert( map<u_long, CGuildMember*>::value_type( pMember->m_idPlayer, pMember ) );

  0002c	50		 push	 eax
  0002d	8d 45 f0	 lea	 eax, DWORD PTR $T1[ebp]
; File C:\Program Files\Microsoft Visual Studio\2022\Professional\VC\Tools\MSVC\14.44.35207\include\utility

; 274  :         : first(_STD forward<_Other1>(_Val1)), second(_STD forward<_Other2>(_Val2)) {

  00030	89 7d fc	 mov	 DWORD PTR $T2[ebp+4], edi
; File C:\IAGOS\server\v18\Source\Source\_common\guild.cpp

; 393  : 	m_mapPMember.insert( map<u_long, CGuildMember*>::value_type( pMember->m_idPlayer, pMember ) );

  00033	50		 push	 eax
  00034	8d 4e 38	 lea	 ecx, DWORD PTR [esi+56]
  00037	e8 00 00 00 00	 call	 ??$insert@$0A@$0A@@?$_Tree@V?$_Tmap_traits@KPAVCGuildMember@@U?$less@K@std@@V?$allocator@U?$pair@$$CBKPAVCGuildMember@@@std@@@3@$0A@@std@@@std@@QAE?AU?$pair@V?$_Tree_iterator@V?$_Tree_val@U?$_Tree_simple_types@U?$pair@$$CBKPAVCGuildMember@@@std@@@std@@@std@@@std@@_N@1@$$QAU?$pair@$$CBKPAVCGuildMember@@@1@@Z ; std::_Tree<std::_Tmap_traits<unsigned long,CGuildMember *,std::less<unsigned long>,std::allocator<std::pair<unsigned long const ,CGuildMember *> >,0> >::insert<0,0>
  0003c	5f		 pop	 edi

; 394  : 	return TRUE;	//
; 395  : }

  0003d	5e		 pop	 esi
  0003e	b8 01 00 00 00	 mov	 eax, 1
  00043	5b		 pop	 ebx
  00044	8b e5		 mov	 esp, ebp
  00046	5d		 pop	 ebp
  00047	c2 04 00	 ret	 4
?AddMember@CGuild@@QAEHPAVCGuildMember@@@Z ENDP		; CGuild::AddMember
_TEXT	ENDS
; Function compile flags: /Ogtp
; File C:\IAGOS\server\v18\Source\Source\_common\guild.cpp
; File C:\Program Files\Microsoft Visual Studio\2022\Professional\VC\Tools\MSVC\14.44.35207\include\xtree
; File C:\IAGOS\server\v18\Source\Source\_common\guild.cpp
; File C:\Program Files\Microsoft Visual Studio\2022\Professional\VC\Tools\MSVC\14.44.35207\include\xtree
; File C:\IAGOS\server\v18\Source\Source\_common\guild.cpp
; File C:\Program Files\Microsoft Visual Studio\2022\Professional\VC\Tools\MSVC\14.44.35207\include\list
; File C:\IAGOS\server\v18\Source\Source\_common\guild.cpp
; File C:\Program Files\Microsoft Visual Studio\2022\Professional\VC\Tools\MSVC\14.44.35207\include\list
; File C:\IAGOS\server\v18\Source\Source\_common\guild.cpp
; File C:\Program Files\Microsoft Visual Studio\2022\Professional\VC\Tools\MSVC\14.44.35207\include\list
; File C:\Program Files\Microsoft Visual Studio\2022\Professional\VC\Tools\MSVC\14.44.35207\include\xmemory
; File C:\Program Files\Microsoft Visual Studio\2022\Professional\VC\Tools\MSVC\14.44.35207\include\list
; File C:\IAGOS\server\v18\Source\Source\_common\guild.cpp
;	COMDAT ?Clear@CGuild@@QAEXXZ
_TEXT	SEGMENT
_i$1 = -4						; size = 4
?Clear@CGuild@@QAEXXZ PROC				; CGuild::Clear, COMDAT
; _this$ = ecx

; 375  : {

  00000	55		 push	 ebp
  00001	8b ec		 mov	 ebp, esp
  00003	51		 push	 ecx
  00004	56		 push	 esi
  00005	57		 push	 edi
  00006	8b f9		 mov	 edi, ecx
; File C:\Program Files\Microsoft Visual Studio\2022\Professional\VC\Tools\MSVC\14.44.35207\include\xtree

; 1142 :         return iterator(_Scary->_Myhead->_Left, _Scary);

  00008	8b 57 38	 mov	 edx, DWORD PTR [edi+56]

; 37   :     _Tree_unchecked_const_iterator(_Nodeptr _Pnode, const _Mytree* _Plist) noexcept : _Ptr(_Pnode) {

  0000b	8b 02		 mov	 eax, DWORD PTR [edx]
  0000d	89 45 fc	 mov	 DWORD PTR _i$1[ebp], eax

; 237  :         return !(*this == _Right);

  00010	3b c2		 cmp	 eax, edx
; File C:\IAGOS\server\v18\Source\Source\_common\guild.cpp

; 377  : 	for( map<u_long, CGuildMember*>::iterator i	= m_mapPMember.begin(); i != m_mapPMember.end(); ++i )

  00012	74 1d		 je	 SHORT $LN3@Clear
$LL4@Clear:

; 378  : 	{
; 379  : 		pMember	= i->second;

  00014	8b 48 14	 mov	 ecx, DWORD PTR [eax+20]

; 380  : 		SAFE_DELETE( pMember );

  00017	85 c9		 test	 ecx, ecx
  00019	74 06		 je	 SHORT $LN2@Clear
  0001b	8b 01		 mov	 eax, DWORD PTR [ecx]
  0001d	6a 01		 push	 1
  0001f	ff 10		 call	 DWORD PTR [eax]
$LN2@Clear:
; File C:\Program Files\Microsoft Visual Studio\2022\Professional\VC\Tools\MSVC\14.44.35207\include\xtree

; 198  :         _Mybase::operator++();

  00021	8d 4d fc	 lea	 ecx, DWORD PTR _i$1[ebp]
  00024	e8 00 00 00 00	 call	 ??E?$_Tree_unchecked_const_iterator@V?$_Tree_val@U?$_Tree_simple_types@U?$pair@$$CBKPAVCGuildMember@@@std@@@std@@@std@@U_Iterator_base0@2@@std@@QAEAAV01@XZ ; std::_Tree_unchecked_const_iterator<std::_Tree_val<std::_Tree_simple_types<std::pair<unsigned long const ,CGuildMember *> > >,std::_Iterator_base0>::operator++

; 237  :         return !(*this == _Right);

  00029	8b 45 fc	 mov	 eax, DWORD PTR _i$1[ebp]
  0002c	3b 47 38	 cmp	 eax, DWORD PTR [edi+56]
; File C:\IAGOS\server\v18\Source\Source\_common\guild.cpp

; 377  : 	for( map<u_long, CGuildMember*>::iterator i	= m_mapPMember.begin(); i != m_mapPMember.end(); ++i )

  0002f	75 e3		 jne	 SHORT $LL4@Clear
$LN3@Clear:

; 381  : 	}
; 382  : 	m_mapPMember.clear();

  00031	8d 4f 38	 lea	 ecx, DWORD PTR [edi+56]
  00034	e8 00 00 00 00	 call	 ?clear@?$_Tree@V?$_Tmap_traits@KPAVCGuildMember@@U?$less@K@std@@V?$allocator@U?$pair@$$CBKPAVCGuildMember@@@std@@@3@$0A@@std@@@std@@QAEXXZ ; std::_Tree<std::_Tmap_traits<unsigned long,CGuildMember *,std::less<unsigned long>,std::allocator<std::pair<unsigned long const ,CGuildMember *> >,0> >::clear
; File C:\Program Files\Microsoft Visual Studio\2022\Professional\VC\Tools\MSVC\14.44.35207\include\list

; 1105 :         return iterator(_Mypair._Myval2._Myhead->_Next, _STD addressof(_Mypair._Myval2));

  00039	8b 8f 1c 01 00
	00		 mov	 ecx, DWORD PTR [edi+284]

; 37   :     _List_unchecked_const_iterator(_Nodeptr _Pnode, const _Mylist* _Plist) noexcept : _Ptr(_Pnode) {

  0003f	8b 31		 mov	 esi, DWORD PTR [ecx]

; 202  :         return !(*this == _Right);

  00041	3b f1		 cmp	 esi, ecx
; File C:\IAGOS\server\v18\Source\Source\_common\guild.cpp

; 384  : 	for (list <CGuildVote*>::iterator it = m_votes.begin() ;it != m_votes.end(); ++it )

  00043	74 22		 je	 SHORT $LN6@Clear
$LL7@Clear:

; 385  : 		SAFE_DELETE( *it );

  00045	8b 4e 08	 mov	 ecx, DWORD PTR [esi+8]
  00048	85 c9		 test	 ecx, ecx
  0004a	74 0d		 je	 SHORT $LN5@Clear
  0004c	8b 01		 mov	 eax, DWORD PTR [ecx]
  0004e	6a 01		 push	 1
  00050	ff 10		 call	 DWORD PTR [eax]
  00052	c7 46 08 00 00
	00 00		 mov	 DWORD PTR [esi+8], 0
$LN5@Clear:
; File C:\Program Files\Microsoft Visual Studio\2022\Professional\VC\Tools\MSVC\14.44.35207\include\list

; 164  :         this->_Ptr = this->_Ptr->_Next;

  00059	8b 06		 mov	 eax, DWORD PTR [esi]
  0005b	8b f0		 mov	 esi, eax

; 37   :     _List_unchecked_const_iterator(_Nodeptr _Pnode, const _Mylist* _Plist) noexcept : _Ptr(_Pnode) {

  0005d	8b 8f 1c 01 00
	00		 mov	 ecx, DWORD PTR [edi+284]

; 202  :         return !(*this == _Right);

  00063	3b c1		 cmp	 eax, ecx
; File C:\IAGOS\server\v18\Source\Source\_common\guild.cpp

; 384  : 	for (list <CGuildVote*>::iterator it = m_votes.begin() ;it != m_votes.end(); ++it )

  00065	75 de		 jne	 SHORT $LL7@Clear
$LN6@Clear:
; File C:\Program Files\Microsoft Visual Studio\2022\Professional\VC\Tools\MSVC\14.44.35207\include\list

; 324  :         _Head->_Prev->_Next = nullptr;

  00067	8b 41 04	 mov	 eax, DWORD PTR [ecx+4]
  0006a	c7 00 00 00 00
	00		 mov	 DWORD PTR [eax], 0

; 325  : 
; 326  :         auto _Pnode = _Head->_Next;

  00070	8b 01		 mov	 eax, DWORD PTR [ecx]

; 327  :         for (_Nodeptr _Pnext; _Pnode; _Pnode = _Pnext) {

  00072	85 c0		 test	 eax, eax
  00074	74 13		 je	 SHORT $LN154@Clear
$LL51@Clear:

; 328  :             _Pnext = _Pnode->_Next;

  00076	8b 30		 mov	 esi, DWORD PTR [eax]
; File C:\Program Files\Microsoft Visual Studio\2022\Professional\VC\Tools\MSVC\14.44.35207\include\xmemory

; 289  :         ::operator delete(_Ptr, _Bytes);

  00078	6a 0c		 push	 12			; 0000000cH
  0007a	50		 push	 eax
  0007b	e8 00 00 00 00	 call	 ??3@YAXPAXI@Z		; operator delete
  00080	83 c4 08	 add	 esp, 8
; File C:\Program Files\Microsoft Visual Studio\2022\Professional\VC\Tools\MSVC\14.44.35207\include\list

; 327  :         for (_Nodeptr _Pnext; _Pnode; _Pnode = _Pnext) {

  00083	8b c6		 mov	 eax, esi
  00085	85 f6		 test	 esi, esi
  00087	75 ed		 jne	 SHORT $LL51@Clear
$LN154@Clear:

; 1508 :         _My_data._Myhead->_Next = _My_data._Myhead;

  00089	8b 87 1c 01 00
	00		 mov	 eax, DWORD PTR [edi+284]
  0008f	89 00		 mov	 DWORD PTR [eax], eax

; 1509 :         _My_data._Myhead->_Prev = _My_data._Myhead;

  00091	8b 87 1c 01 00
	00		 mov	 eax, DWORD PTR [edi+284]
  00097	89 40 04	 mov	 DWORD PTR [eax+4], eax

; 1510 :         _My_data._Mysize        = 0;

  0009a	c7 87 20 01 00
	00 00 00 00 00	 mov	 DWORD PTR [edi+288], 0
  000a4	5f		 pop	 edi
  000a5	5e		 pop	 esi
; File C:\IAGOS\server\v18\Source\Source\_common\guild.cpp

; 387  : }

  000a6	8b e5		 mov	 esp, ebp
  000a8	5d		 pop	 ebp
  000a9	c3		 ret	 0
?Clear@CGuild@@QAEXXZ ENDP				; CGuild::Clear
_TEXT	ENDS
; Function compile flags: /Ogtp
; File C:\IAGOS\server\v18\Source\Source\_common\guild.cpp
; File C:\Program Files\Microsoft Visual Studio\2022\Professional\VC\Tools\MSVC\14.44.35207\include\list
; File C:\Program Files\Microsoft Visual Studio\2022\Professional\VC\Tools\MSVC\14.44.35207\include\xmemory
; File C:\Program Files\Microsoft Visual Studio\2022\Professional\VC\Tools\MSVC\14.44.35207\include\list
; File C:\Program Files\Microsoft Visual Studio\2022\Professional\VC\Tools\MSVC\14.44.35207\include\xmemory
; File C:\IAGOS\server\v18\Source\Source\_common\guild.cpp
;	COMDAT ??1CGuild@@UAE@XZ
_TEXT	SEGMENT
??1CGuild@@UAE@XZ PROC					; CGuild::~CGuild, COMDAT
; _this$ = ecx

; 370  : {

  00000	57		 push	 edi
  00001	8b f9		 mov	 edi, ecx
  00003	c7 07 00 00 00
	00		 mov	 DWORD PTR [edi], OFFSET ??_7CGuild@@6B@

; 371  : 	Clear();

  00009	e8 00 00 00 00	 call	 ?Clear@CGuild@@QAEXXZ	; CGuild::Clear
; File C:\Program Files\Microsoft Visual Studio\2022\Professional\VC\Tools\MSVC\14.44.35207\include\list

; 1518 :         _Node::_Free_non_head(_Al, _My_data._Myhead);

  0000e	8b 97 1c 01 00
	00		 mov	 edx, DWORD PTR [edi+284]

; 324  :         _Head->_Prev->_Next = nullptr;

  00014	8b 42 04	 mov	 eax, DWORD PTR [edx+4]
  00017	c7 00 00 00 00
	00		 mov	 DWORD PTR [eax], 0

; 325  : 
; 326  :         auto _Pnode = _Head->_Next;

  0001d	8b 02		 mov	 eax, DWORD PTR [edx]

; 327  :         for (_Nodeptr _Pnext; _Pnode; _Pnode = _Pnext) {

  0001f	85 c0		 test	 eax, eax
  00021	74 15		 je	 SHORT $LN66@CGuild
  00023	56		 push	 esi
$LL13@CGuild:

; 328  :             _Pnext = _Pnode->_Next;

  00024	8b 30		 mov	 esi, DWORD PTR [eax]
; File C:\Program Files\Microsoft Visual Studio\2022\Professional\VC\Tools\MSVC\14.44.35207\include\xmemory

; 289  :         ::operator delete(_Ptr, _Bytes);

  00026	6a 0c		 push	 12			; 0000000cH
  00028	50		 push	 eax
  00029	e8 00 00 00 00	 call	 ??3@YAXPAXI@Z		; operator delete
  0002e	83 c4 08	 add	 esp, 8
; File C:\Program Files\Microsoft Visual Studio\2022\Professional\VC\Tools\MSVC\14.44.35207\include\list

; 327  :         for (_Nodeptr _Pnext; _Pnode; _Pnode = _Pnext) {

  00031	8b c6		 mov	 eax, esi
  00033	85 f6		 test	 esi, esi
  00035	75 ed		 jne	 SHORT $LL13@CGuild
  00037	5e		 pop	 esi
$LN66@CGuild:
; File C:\Program Files\Microsoft Visual Studio\2022\Professional\VC\Tools\MSVC\14.44.35207\include\xmemory

; 289  :         ::operator delete(_Ptr, _Bytes);

  00038	6a 0c		 push	 12			; 0000000cH
  0003a	ff b7 1c 01 00
	00		 push	 DWORD PTR [edi+284]
  00040	e8 00 00 00 00	 call	 ??3@YAXPAXI@Z		; operator delete
  00045	83 c4 08	 add	 esp, 8
; File C:\IAGOS\server\v18\Source\Source\_common\guild.cpp

; 372  : }

  00048	8d 8f 04 01 00
	00		 lea	 ecx, DWORD PTR [edi+260]
  0004e	e8 00 00 00 00	 call	 ??1?$CItemContainer@VCItemElem@@@@UAE@XZ ; CItemContainer<CItemElem>::~CItemContainer<CItemElem>
  00053	8d 4f 38	 lea	 ecx, DWORD PTR [edi+56]
  00056	5f		 pop	 edi
  00057	e9 00 00 00 00	 jmp	 ??1?$_Tree@V?$_Tmap_traits@KPAVCGuildMember@@U?$less@K@std@@V?$allocator@U?$pair@$$CBKPAVCGuildMember@@@std@@@3@$0A@@std@@@std@@QAE@XZ ; std::_Tree<std::_Tmap_traits<unsigned long,CGuildMember *,std::less<unsigned long>,std::allocator<std::pair<unsigned long const ,CGuildMember *> >,0> >::~_Tree<std::_Tmap_traits<unsigned long,CGuildMember *,std::less<unsigned long>,std::allocator<std::pair<unsigned long const ,CGuildMember *> >,0> >
??1CGuild@@UAE@XZ ENDP					; CGuild::~CGuild
_TEXT	ENDS
; Function compile flags: /Ogtp
; File C:\IAGOS\server\v18\Source\Source\_common\guild.cpp
; File C:\Program Files\Microsoft Visual Studio\2022\Professional\VC\Tools\MSVC\14.44.35207\include\xmemory
; File C:\IAGOS\server\v18\Source\Source\_common\guild.cpp
; File C:\Program Files\Microsoft Visual Studio\2022\Professional\VC\Tools\MSVC\14.44.35207\include\xtree
; File C:\Program Files\Microsoft Visual Studio\2022\Professional\VC\Tools\MSVC\14.44.35207\include\xmemory
; File C:\Program Files\Microsoft Visual Studio\2022\Professional\VC\Tools\MSVC\14.44.35207\include\xtree
; File C:\IAGOS\server\v18\Source\Source\_common\guild.cpp
; File C:\Program Files\Microsoft Visual Studio\2022\Professional\VC\Tools\MSVC\14.44.35207\include\xmemory
; File C:\IAGOS\server\v18\Source\Source\_common\guild.cpp
; File C:\Program Files\Microsoft Visual Studio\2022\Professional\VC\Tools\MSVC\14.44.35207\include\list
; File C:\Program Files\Microsoft Visual Studio\2022\Professional\VC\Tools\MSVC\14.44.35207\include\xmemory
; File C:\Program Files\Microsoft Visual Studio\2022\Professional\VC\Tools\MSVC\14.44.35207\include\list
; File C:\IAGOS\server\v18\Source\Source\_common\guild.cpp
; File C:\Program Files\Microsoft Visual Studio\2022\Professional\VC\Tools\MSVC\14.44.35207\include\list
; File C:\IAGOS\server\v18\Source\Source\_Common\guildquest.h
; File C:\IAGOS\server\v18\Source\Source\_common\guild.cpp
;	COMDAT ??0CGuild@@QAE@XZ
_TEXT	SEGMENT
_this$ = -20						; size = 4
_this$ = -16						; size = 4
__$EHRec$ = -12						; size = 12
??0CGuild@@QAE@XZ PROC					; CGuild::CGuild, COMDAT
; _this$ = ecx

; 332  : {

  00000	55		 push	 ebp
  00001	8b ec		 mov	 ebp, esp
  00003	6a ff		 push	 -1
  00005	68 00 00 00 00	 push	 __ehhandler$??0CGuild@@QAE@XZ
  0000a	64 a1 00 00 00
	00		 mov	 eax, DWORD PTR fs:0
  00010	50		 push	 eax
  00011	83 ec 08	 sub	 esp, 8
  00014	56		 push	 esi
  00015	57		 push	 edi
  00016	a1 00 00 00 00	 mov	 eax, DWORD PTR ___security_cookie
  0001b	33 c5		 xor	 eax, ebp
  0001d	50		 push	 eax
  0001e	8d 45 f4	 lea	 eax, DWORD PTR __$EHRec$[ebp]
  00021	64 a3 00 00 00
	00		 mov	 DWORD PTR fs:0, eax
  00027	8b f9		 mov	 edi, ecx
  00029	89 7d f0	 mov	 DWORD PTR _this$[ebp], edi
  0002c	8d 77 38	 lea	 esi, DWORD PTR [edi+56]
  0002f	c7 07 00 00 00
	00		 mov	 DWORD PTR [edi], OFFSET ??_7CGuild@@6B@
; File C:\Program Files\Microsoft Visual Studio\2022\Professional\VC\Tools\MSVC\14.44.35207\include\xmemory

; 136  :         return ::operator new(_Bytes);

  00035	6a 18		 push	 24			; 00000018H
; File C:\IAGOS\server\v18\Source\Source\_common\guild.cpp

; 332  : {

  00037	89 75 ec	 mov	 DWORD PTR _this$[ebp], esi
; File C:\Program Files\Microsoft Visual Studio\2022\Professional\VC\Tools\MSVC\14.44.35207\include\xtree

; 450  :     _Tree_val() noexcept : _Myhead(), _Mysize(0) {}

  0003a	c7 06 00 00 00
	00		 mov	 DWORD PTR [esi], 0
  00040	c7 46 04 00 00
	00 00		 mov	 DWORD PTR [esi+4], 0
; File C:\Program Files\Microsoft Visual Studio\2022\Professional\VC\Tools\MSVC\14.44.35207\include\xmemory

; 136  :         return ::operator new(_Bytes);

  00047	e8 00 00 00 00	 call	 ??2@YAPAXI@Z		; operator new
  0004c	83 c4 04	 add	 esp, 4
; File C:\Program Files\Microsoft Visual Studio\2022\Professional\VC\Tools\MSVC\14.44.35207\include\xtree

; 346  :         _Construct_in_place(_Pnode->_Left, _Pnode);

  0004f	89 00		 mov	 DWORD PTR [eax], eax

; 347  :         _Construct_in_place(_Pnode->_Parent, _Pnode);

  00051	89 40 04	 mov	 DWORD PTR [eax+4], eax

; 348  :         _Construct_in_place(_Pnode->_Right, _Pnode);

  00054	89 40 08	 mov	 DWORD PTR [eax+8], eax

; 349  :         _Pnode->_Color = _Black;

  00057	66 c7 40 0c 01
	01		 mov	 WORD PTR [eax+12], 257	; 00000101H

; 1957 :         _Scary->_Myhead = _Node::_Buyheadnode(_Getal());

  0005d	89 06		 mov	 DWORD PTR [esi], eax
; File C:\IAGOS\server\v18\Source\Source\_common\guild.cpp

; 332  : {

  0005f	8d 8f 04 01 00
	00		 lea	 ecx, DWORD PTR [edi+260]
  00065	c7 45 fc 00 00
	00 00		 mov	 DWORD PTR __$EHRec$[ebp+8], 0
  0006c	e8 00 00 00 00	 call	 ??0?$CItemContainer@VCItemElem@@@@QAE@XZ ; CItemContainer<CItemElem>::CItemContainer<CItemElem>
; File C:\Program Files\Microsoft Visual Studio\2022\Professional\VC\Tools\MSVC\14.44.35207\include\xmemory

; 136  :         return ::operator new(_Bytes);

  00071	6a 0c		 push	 12			; 0000000cH
; File C:\IAGOS\server\v18\Source\Source\_common\guild.cpp

; 332  : {

  00073	c6 45 fc 01	 mov	 BYTE PTR __$EHRec$[ebp+8], 1
; File C:\Program Files\Microsoft Visual Studio\2022\Professional\VC\Tools\MSVC\14.44.35207\include\list

; 353  :     _List_val() noexcept : _Myhead(), _Mysize(0) {} // initialize data

  00077	c7 87 1c 01 00
	00 00 00 00 00	 mov	 DWORD PTR [edi+284], 0
  00081	c7 87 20 01 00
	00 00 00 00 00	 mov	 DWORD PTR [edi+288], 0
; File C:\Program Files\Microsoft Visual Studio\2022\Professional\VC\Tools\MSVC\14.44.35207\include\xmemory

; 136  :         return ::operator new(_Bytes);

  0008b	e8 00 00 00 00	 call	 ??2@YAPAXI@Z		; operator new
  00090	83 c4 04	 add	 esp, 4
; File C:\Program Files\Microsoft Visual Studio\2022\Professional\VC\Tools\MSVC\14.44.35207\include\list

; 1852 :         _Construct_in_place(_Newhead->_Next, _Newhead);

  00093	89 00		 mov	 DWORD PTR [eax], eax

; 1853 :         _Construct_in_place(_Newhead->_Prev, _Newhead);

  00095	89 40 04	 mov	 DWORD PTR [eax+4], eax

; 1854 :         _Mypair._Myval2._Myhead = _Newhead;

  00098	89 87 1c 01 00
	00		 mov	 DWORD PTR [edi+284], eax
; File C:\IAGOS\server\v18\Source\Source\_common\guild.cpp

; 332  : {

  0009e	c6 45 fc 02	 mov	 BYTE PTR __$EHRec$[ebp+8], 2
  000a2	8d 87 40 01 00
	00		 lea	 eax, DWORD PTR [edi+320]
; File C:\Program Files\Microsoft Visual Studio\2022\Professional\VC\Tools\MSVC\14.44.35207\include\list

; 1851 :         auto _Newhead = _Al.allocate(1);

  000a8	b9 00 01 00 00	 mov	 ecx, 256		; 00000100H
  000ad	0f 1f 00	 npad	 3
$LL66@CGuild:
; File C:\IAGOS\server\v18\Source\Source\_Common\guildquest.h

; 48   : 			nId		= -1;

  000b0	c7 00 ff ff ff
	ff		 mov	 DWORD PTR [eax], -1
  000b6	8d 40 0c	 lea	 eax, DWORD PTR [eax+12]

; 49   : 			nState	= 0;

  000b9	c7 40 f8 00 00
	00 00		 mov	 DWORD PTR [eax-8], 0

; 50   : 			idGuild		= 0;

  000c0	c7 40 fc 00 00
	00 00		 mov	 DWORD PTR [eax-4], 0
  000c7	83 e9 01	 sub	 ecx, 1
  000ca	75 e4		 jne	 SHORT $LL66@CGuild
; File C:\IAGOS\server\v18\Source\Source\_common\guild.cpp

; 333  : 	m_idGuild				= 0;

  000cc	89 4f 04	 mov	 DWORD PTR [edi+4], ecx

; 334  : 	*m_szGuild				= '\0';

  000cf	88 4f 08	 mov	 BYTE PTR [edi+8], cl

; 335  : 	m_idMaster				= 0;
; 336  : 	m_nLevel				= 1;
; 337  : 	m_bActive				= FALSE;
; 338  : 	m_dwLogo				= 0;
; 339  : 	m_dwContributionPxp		= 0;
; 340  : 	*m_szNotice				= '\0';
; 341  : 
; 342  : #if !defined( __CORESERVER)	
; 343  : 	m_GuildBank.SetItemContainer( ITYPE_ITEM, MAX_GUILDBANK );

  000d2	6a ff		 push	 -1
  000d4	89 4f 40	 mov	 DWORD PTR [edi+64], ecx
  000d7	89 4f 70	 mov	 DWORD PTR [edi+112], ecx
  000da	89 4f 74	 mov	 DWORD PTR [edi+116], ecx
  000dd	89 4f 78	 mov	 DWORD PTR [edi+120], ecx
  000e0	6a 2a		 push	 42			; 0000002aH
  000e2	c7 47 44 01 00
	00 00		 mov	 DWORD PTR [edi+68], 1
  000e9	88 4f 7c	 mov	 BYTE PTR [edi+124], cl
  000ec	51		 push	 ecx
  000ed	8d 8f 04 01 00
	00		 lea	 ecx, DWORD PTR [edi+260]
  000f3	e8 00 00 00 00	 call	 ?SetItemContainer@?$CItemContainer@VCItemElem@@@@QAEXKKK@Z ; CItemContainer<CItemElem>::SetItemContainer
  000f8	0f 57 c0	 xorps	 xmm0, xmm0

; 344  : #endif
; 345  : 	
; 346  : 	ZeroMemory( m_adwPower, sizeof(m_adwPower) );
; 347  : 	ZeroMemory( m_adwPenya, sizeof(m_adwPenya) );
; 348  : 	
; 349  : 	m_nGoldGuild = 0;
; 350  : 
; 351  : 	m_bSendPay = FALSE;
; 352  : 	m_idWar		= 0;
; 353  : 	m_nWin	= 0;
; 354  : 	m_nLose	= 0;
; 355  : 	m_nSurrender	= 0;
; 356  : 	m_idEnemyGuild = 0;
; 357  : 	m_nWinPoint = 0;
; 358  : 	m_nDead		= 0;
; 359  : 
; 360  : 	ZeroMemory( m_aQuest, sizeof(m_aQuest) );

  000fb	8d 87 40 01 00
	00		 lea	 eax, DWORD PTR [edi+320]
  00101	0f 11 47 48	 movups	 XMMWORD PTR [edi+72], xmm0
  00105	c7 47 58 00 00
	00 00		 mov	 DWORD PTR [edi+88], 0
  0010c	0f 11 47 5c	 movups	 XMMWORD PTR [edi+92], xmm0
  00110	c7 47 6c 00 00
	00 00		 mov	 DWORD PTR [edi+108], 0
  00117	68 00 0c 00 00	 push	 3072			; 00000c00H
  0011c	6a 00		 push	 0
  0011e	50		 push	 eax
  0011f	c7 87 18 01 00
	00 00 00 00 00	 mov	 DWORD PTR [edi+280], 0
  00129	c7 87 00 01 00
	00 00 00 00 00	 mov	 DWORD PTR [edi+256], 0
  00133	c7 87 3c 01 00
	00 00 00 00 00	 mov	 DWORD PTR [edi+316], 0
  0013d	c7 87 2c 01 00
	00 00 00 00 00	 mov	 DWORD PTR [edi+300], 0
  00147	c7 87 30 01 00
	00 00 00 00 00	 mov	 DWORD PTR [edi+304], 0
  00151	c7 87 34 01 00
	00 00 00 00 00	 mov	 DWORD PTR [edi+308], 0
  0015b	c7 87 24 01 00
	00 00 00 00 00	 mov	 DWORD PTR [edi+292], 0
  00165	c7 87 28 01 00
	00 00 00 00 00	 mov	 DWORD PTR [edi+296], 0
  0016f	c7 87 38 01 00
	00 00 00 00 00	 mov	 DWORD PTR [edi+312], 0
  00179	e8 00 00 00 00	 call	 _memset
  0017e	83 c4 0c	 add	 esp, 12			; 0000000cH

; 361  : 	m_nQuestSize	= 0;

  00181	c6 87 40 0d 00
	00 00		 mov	 BYTE PTR [edi+3392], 0

; 362  : 	m_pQuest	= NULL;	

  00188	c7 87 44 0d 00
	00 00 00 00 00	 mov	 DWORD PTR [edi+3396], 0

; 363  : 
; 364  : #ifdef __CORESERVER
; 365  : 	m_bLog	= FALSE;
; 366  : #endif	// __CORESERVER
; 367  : }

  00192	8b c7		 mov	 eax, edi
  00194	8b 4d f4	 mov	 ecx, DWORD PTR __$EHRec$[ebp]
  00197	64 89 0d 00 00
	00 00		 mov	 DWORD PTR fs:0, ecx
  0019e	59		 pop	 ecx
  0019f	5f		 pop	 edi
  001a0	5e		 pop	 esi
  001a1	8b e5		 mov	 esp, ebp
  001a3	5d		 pop	 ebp
  001a4	c3		 ret	 0
_TEXT	ENDS
;	COMDAT text$x
text$x	SEGMENT
__unwindfunclet$??0CGuild@@QAE@XZ$0:
  00000	8b 4d f0	 mov	 ecx, DWORD PTR _this$[ebp]
  00003	83 c1 38	 add	 ecx, 56			; 00000038H
  00006	e9 00 00 00 00	 jmp	 ??1?$map@KPAVCGuildMember@@U?$less@K@std@@V?$allocator@U?$pair@$$CBKPAVCGuildMember@@@std@@@3@@std@@QAE@XZ
__unwindfunclet$??0CGuild@@QAE@XZ$1:
  0000b	8b 4d f0	 mov	 ecx, DWORD PTR _this$[ebp]
  0000e	81 c1 04 01 00
	00		 add	 ecx, 260		; 00000104H
  00014	e9 00 00 00 00	 jmp	 ??1?$CItemContainer@VCItemElem@@@@UAE@XZ ; CItemContainer<CItemElem>::~CItemContainer<CItemElem>
__unwindfunclet$??0CGuild@@QAE@XZ$2:
  00019	8b 4d f0	 mov	 ecx, DWORD PTR _this$[ebp]
  0001c	81 c1 1c 01 00
	00		 add	 ecx, 284		; 0000011cH
  00022	e9 00 00 00 00	 jmp	 ??1?$list@PAVCGuildVote@@V?$allocator@PAVCGuildVote@@@std@@@std@@QAE@XZ ; std::list<CGuildVote *,std::allocator<CGuildVote *> >::~list<CGuildVote *,std::allocator<CGuildVote *> >
  00027	cc		 int	 3
  00028	cc		 int	 3
  00029	cc		 int	 3
  0002a	cc		 int	 3
  0002b	cc		 int	 3
__ehhandler$??0CGuild@@QAE@XZ:
  0002c	90		 npad	 1
  0002d	90		 npad	 1
  0002e	8b 54 24 08	 mov	 edx, DWORD PTR [esp+8]
  00032	8d 42 0c	 lea	 eax, DWORD PTR [edx+12]
  00035	8b 4a ec	 mov	 ecx, DWORD PTR [edx-20]
  00038	33 c8		 xor	 ecx, eax
  0003a	e8 00 00 00 00	 call	 @__security_check_cookie@4
  0003f	b8 00 00 00 00	 mov	 eax, OFFSET __ehfuncinfo$??0CGuild@@QAE@XZ
  00044	e9 00 00 00 00	 jmp	 ___CxxFrameHandler3
text$x	ENDS
??0CGuild@@QAE@XZ ENDP					; CGuild::CGuild
; Function compile flags: /Ogtp
; File C:\Program Files\Microsoft Visual Studio\2022\Professional\VC\Tools\MSVC\14.44.35207\include\list
; File C:\Program Files\Microsoft Visual Studio\2022\Professional\VC\Tools\MSVC\14.44.35207\include\xmemory
; File C:\Program Files\Microsoft Visual Studio\2022\Professional\VC\Tools\MSVC\14.44.35207\include\list
; File C:\Program Files\Microsoft Visual Studio\2022\Professional\VC\Tools\MSVC\14.44.35207\include\xmemory
; File C:\Program Files\Microsoft Visual Studio\2022\Professional\VC\Tools\MSVC\14.44.35207\include\list
; File C:\Program Files\Microsoft Visual Studio\2022\Professional\VC\Tools\MSVC\14.44.35207\include\xmemory
; File C:\Program Files\Microsoft Visual Studio\2022\Professional\VC\Tools\MSVC\14.44.35207\include\list
;	COMDAT ?push_back@?$list@PAVCGuildVote@@V?$allocator@PAVCGuildVote@@@std@@@std@@QAEXABQAVCGuildVote@@@Z
_TEXT	SEGMENT
__Op$2 = -20						; size = 8
__$EHRec$ = -12						; size = 12
__Val$ = 8						; size = 4
?push_back@?$list@PAVCGuildVote@@V?$allocator@PAVCGuildVote@@@std@@@std@@QAEXABQAVCGuildVote@@@Z PROC ; std::list<CGuildVote *,std::allocator<CGuildVote *> >::push_back, COMDAT
; _this$ = ecx

; 1273 :     void push_back(const _Ty& _Val) {

  00000	55		 push	 ebp
  00001	8b ec		 mov	 ebp, esp
  00003	6a ff		 push	 -1
  00005	68 00 00 00 00	 push	 __ehhandler$?push_back@?$list@PAVCGuildVote@@V?$allocator@PAVCGuildVote@@@std@@@std@@QAEXABQAVCGuildVote@@@Z
  0000a	64 a1 00 00 00
	00		 mov	 eax, DWORD PTR fs:0
  00010	50		 push	 eax
  00011	83 ec 08	 sub	 esp, 8
  00014	56		 push	 esi
  00015	57		 push	 edi
  00016	a1 00 00 00 00	 mov	 eax, DWORD PTR ___security_cookie
  0001b	33 c5		 xor	 eax, ebp
  0001d	50		 push	 eax
  0001e	8d 45 f4	 lea	 eax, DWORD PTR __$EHRec$[ebp]
  00021	64 a3 00 00 00
	00		 mov	 DWORD PTR fs:0, eax
  00027	8b f1		 mov	 esi, ecx

; 1030 :         if (_Mysize == max_size()) {

  00029	81 7e 04 55 55
	55 15		 cmp	 DWORD PTR [esi+4], 357913941 ; 15555555H

; 1274 :         _Emplace(_Mypair._Myval2._Myhead, _Val);

  00030	8b 3e		 mov	 edi, DWORD PTR [esi]

; 1030 :         if (_Mysize == max_size()) {

  00032	74 46		 je	 SHORT $LN61@push_back
; File C:\Program Files\Microsoft Visual Studio\2022\Professional\VC\Tools\MSVC\14.44.35207\include\xmemory

; 1160 :     _CONSTEXPR20 explicit _Alloc_construct_ptr(_Alloc& _Al_) : _Al(_Al_), _Ptr(nullptr) {}

  00034	89 75 ec	 mov	 DWORD PTR __Op$2[ebp], esi

; 136  :         return ::operator new(_Bytes);

  00037	6a 0c		 push	 12			; 0000000cH
; File C:\Program Files\Microsoft Visual Studio\2022\Professional\VC\Tools\MSVC\14.44.35207\include\list

; 593  :     explicit _List_node_emplace_op2(_Alnode& _Al_, _Valtys&&... _Vals) : _Alloc_construct_ptr<_Alnode>(_Al_) {

  00039	c7 45 fc 00 00
	00 00		 mov	 DWORD PTR __$EHRec$[ebp+8], 0
; File C:\Program Files\Microsoft Visual Studio\2022\Professional\VC\Tools\MSVC\14.44.35207\include\xmemory

; 1167 :         _Ptr = nullptr; // if allocate throws, prevents double-free

  00040	c7 45 f0 00 00
	00 00		 mov	 DWORD PTR __Op$2[ebp+4], 0

; 136  :         return ::operator new(_Bytes);

  00047	e8 00 00 00 00	 call	 ??2@YAPAXI@Z		; operator new
; File C:\Program Files\Microsoft Visual Studio\2022\Professional\VC\Tools\MSVC\14.44.35207\include\list

; 595  :         _Alnode_traits::construct(this->_Al, _STD addressof(this->_Ptr->_Myval), _STD forward<_Valtys>(_Vals)...);

  0004c	8b 4d 08	 mov	 ecx, DWORD PTR __Val$[ebp]
; File C:\Program Files\Microsoft Visual Studio\2022\Professional\VC\Tools\MSVC\14.44.35207\include\xmemory

; 136  :         return ::operator new(_Bytes);

  0004f	83 c4 04	 add	 esp, 4
; File C:\Program Files\Microsoft Visual Studio\2022\Professional\VC\Tools\MSVC\14.44.35207\include\list

; 595  :         _Alnode_traits::construct(this->_Al, _STD addressof(this->_Ptr->_Myval), _STD forward<_Valtys>(_Vals)...);

  00052	8b 09		 mov	 ecx, DWORD PTR [ecx]
  00054	89 48 08	 mov	 DWORD PTR [eax+8], ecx

; 1035 :         ++_Mysize;

  00057	ff 46 04	 inc	 DWORD PTR [esi+4]

; 608  :         const pointer _Insert_after = _Insert_before->_Prev;

  0005a	8b 4f 04	 mov	 ecx, DWORD PTR [edi+4]

; 609  :         _Construct_in_place(this->_Ptr->_Next, _Insert_before);

  0005d	89 38		 mov	 DWORD PTR [eax], edi

; 610  :         _Construct_in_place(this->_Ptr->_Prev, _Insert_after);

  0005f	89 48 04	 mov	 DWORD PTR [eax+4], ecx

; 611  :         const auto _Result    = this->_Ptr;
; 612  :         this->_Ptr            = pointer{};
; 613  :         _Insert_before->_Prev = _Result;

  00062	89 47 04	 mov	 DWORD PTR [edi+4], eax

; 614  :         _Insert_after->_Next  = _Result;

  00065	89 01		 mov	 DWORD PTR [ecx], eax

; 1275 :     }

  00067	8b 4d f4	 mov	 ecx, DWORD PTR __$EHRec$[ebp]
  0006a	64 89 0d 00 00
	00 00		 mov	 DWORD PTR fs:0, ecx
  00071	59		 pop	 ecx
  00072	5f		 pop	 edi
  00073	5e		 pop	 esi
  00074	8b e5		 mov	 esp, ebp
  00076	5d		 pop	 ebp
  00077	c2 04 00	 ret	 4
$LN61@push_back:

; 1031 :             _Xlength_error("list too long");

  0007a	68 00 00 00 00	 push	 OFFSET ??_C@_0O@NKNMEGII@list?5too?5long@
  0007f	e8 00 00 00 00	 call	 ?_Xlength_error@std@@YAXPBD@Z ; std::_Xlength_error
$LN59@push_back:
  00084	cc		 int	 3
_TEXT	ENDS
;	COMDAT text$x
text$x	SEGMENT
__unwindfunclet$?push_back@?$list@PAVCGuildVote@@V?$allocator@PAVCGuildVote@@@std@@@std@@QAEXABQAVCGuildVote@@@Z$1:
  00000	8d 4d ec	 lea	 ecx, DWORD PTR __Op$2[ebp]
  00003	e9 00 00 00 00	 jmp	 ??1?$_Alloc_construct_ptr@V?$allocator@U?$_List_node@PAVCGuildVote@@PAX@std@@@std@@@std@@QAE@XZ ; std::_Alloc_construct_ptr<std::allocator<std::_List_node<CGuildVote *,void *> > >::~_Alloc_construct_ptr<std::allocator<std::_List_node<CGuildVote *,void *> > >
  00008	cc		 int	 3
  00009	cc		 int	 3
  0000a	cc		 int	 3
  0000b	cc		 int	 3
  0000c	cc		 int	 3
__ehhandler$?push_back@?$list@PAVCGuildVote@@V?$allocator@PAVCGuildVote@@@std@@@std@@QAEXABQAVCGuildVote@@@Z:
  0000d	90		 npad	 1
  0000e	90		 npad	 1
  0000f	8b 54 24 08	 mov	 edx, DWORD PTR [esp+8]
  00013	8d 42 0c	 lea	 eax, DWORD PTR [edx+12]
  00016	8b 4a ec	 mov	 ecx, DWORD PTR [edx-20]
  00019	33 c8		 xor	 ecx, eax
  0001b	e8 00 00 00 00	 call	 @__security_check_cookie@4
  00020	b8 00 00 00 00	 mov	 eax, OFFSET __ehfuncinfo$?push_back@?$list@PAVCGuildVote@@V?$allocator@PAVCGuildVote@@@std@@@std@@QAEXABQAVCGuildVote@@@Z
  00025	e9 00 00 00 00	 jmp	 ___CxxFrameHandler3
text$x	ENDS
?push_back@?$list@PAVCGuildVote@@V?$allocator@PAVCGuildVote@@@std@@@std@@QAEXABQAVCGuildVote@@@Z ENDP ; std::list<CGuildVote *,std::allocator<CGuildVote *> >::push_back
; Function compile flags: /Ogtp
; File C:\Program Files\Microsoft Visual Studio\2022\Professional\VC\Tools\MSVC\14.44.35207\include\list
; File C:\Program Files\Microsoft Visual Studio\2022\Professional\VC\Tools\MSVC\14.44.35207\include\xmemory
; File C:\Program Files\Microsoft Visual Studio\2022\Professional\VC\Tools\MSVC\14.44.35207\include\list
; File C:\Program Files\Microsoft Visual Studio\2022\Professional\VC\Tools\MSVC\14.44.35207\include\xmemory
; File C:\Program Files\Microsoft Visual Studio\2022\Professional\VC\Tools\MSVC\14.44.35207\include\list
;	COMDAT ??1?$list@PAVCGuildVote@@V?$allocator@PAVCGuildVote@@@std@@@std@@QAE@XZ
_TEXT	SEGMENT
??1?$list@PAVCGuildVote@@V?$allocator@PAVCGuildVote@@@std@@@std@@QAE@XZ PROC ; std::list<CGuildVote *,std::allocator<CGuildVote *> >::~list<CGuildVote *,std::allocator<CGuildVote *> >, COMDAT
; _this$ = ecx

; 1060 :     ~list() noexcept {

  00000	57		 push	 edi
  00001	8b f9		 mov	 edi, ecx

; 1518 :         _Node::_Free_non_head(_Al, _My_data._Myhead);

  00003	8b 17		 mov	 edx, DWORD PTR [edi]

; 324  :         _Head->_Prev->_Next = nullptr;

  00005	8b 42 04	 mov	 eax, DWORD PTR [edx+4]
  00008	c7 00 00 00 00
	00		 mov	 DWORD PTR [eax], 0

; 325  : 
; 326  :         auto _Pnode = _Head->_Next;

  0000e	8b 02		 mov	 eax, DWORD PTR [edx]

; 327  :         for (_Nodeptr _Pnext; _Pnode; _Pnode = _Pnext) {

  00010	85 c0		 test	 eax, eax
  00012	74 15		 je	 SHORT $LN57@list
  00014	56		 push	 esi
$LL10@list:

; 328  :             _Pnext = _Pnode->_Next;

  00015	8b 30		 mov	 esi, DWORD PTR [eax]
; File C:\Program Files\Microsoft Visual Studio\2022\Professional\VC\Tools\MSVC\14.44.35207\include\xmemory

; 289  :         ::operator delete(_Ptr, _Bytes);

  00017	6a 0c		 push	 12			; 0000000cH
  00019	50		 push	 eax
  0001a	e8 00 00 00 00	 call	 ??3@YAXPAXI@Z		; operator delete
  0001f	83 c4 08	 add	 esp, 8
; File C:\Program Files\Microsoft Visual Studio\2022\Professional\VC\Tools\MSVC\14.44.35207\include\list

; 327  :         for (_Nodeptr _Pnext; _Pnode; _Pnode = _Pnext) {

  00022	8b c6		 mov	 eax, esi
  00024	85 f6		 test	 esi, esi
  00026	75 ed		 jne	 SHORT $LL10@list
  00028	5e		 pop	 esi
$LN57@list:
; File C:\Program Files\Microsoft Visual Studio\2022\Professional\VC\Tools\MSVC\14.44.35207\include\xmemory

; 289  :         ::operator delete(_Ptr, _Bytes);

  00029	6a 0c		 push	 12			; 0000000cH
  0002b	ff 37		 push	 DWORD PTR [edi]
  0002d	e8 00 00 00 00	 call	 ??3@YAXPAXI@Z		; operator delete
  00032	83 c4 08	 add	 esp, 8
  00035	5f		 pop	 edi
; File C:\Program Files\Microsoft Visual Studio\2022\Professional\VC\Tools\MSVC\14.44.35207\include\list

; 1066 :     }

  00036	c3		 ret	 0
??1?$list@PAVCGuildVote@@V?$allocator@PAVCGuildVote@@@std@@@std@@QAE@XZ ENDP ; std::list<CGuildVote *,std::allocator<CGuildVote *> >::~list<CGuildVote *,std::allocator<CGuildVote *> >
_TEXT	ENDS
; Function compile flags: /Ogtp
;	COMDAT ??1?$map@KPAVCGuildMember@@U?$less@K@std@@V?$allocator@U?$pair@$$CBKPAVCGuildMember@@@std@@@3@@std@@QAE@XZ
_TEXT	SEGMENT
??1?$map@KPAVCGuildMember@@U?$less@K@std@@V?$allocator@U?$pair@$$CBKPAVCGuildMember@@@std@@@3@@std@@QAE@XZ PROC ; std::map<unsigned long,CGuildMember *,std::less<unsigned long>,std::allocator<std::pair<unsigned long const ,CGuildMember *> > >::~map<unsigned long,CGuildMember *,std::less<unsigned long>,std::allocator<std::pair<unsigned long const ,CGuildMember *> > >, COMDAT
; _this$ = ecx
  00000	e9 00 00 00 00	 jmp	 ??1?$_Tree@V?$_Tmap_traits@KPAVCGuildMember@@U?$less@K@std@@V?$allocator@U?$pair@$$CBKPAVCGuildMember@@@std@@@3@$0A@@std@@@std@@QAE@XZ ; std::_Tree<std::_Tmap_traits<unsigned long,CGuildMember *,std::less<unsigned long>,std::allocator<std::pair<unsigned long const ,CGuildMember *> >,0> >::~_Tree<std::_Tmap_traits<unsigned long,CGuildMember *,std::less<unsigned long>,std::allocator<std::pair<unsigned long const ,CGuildMember *> >,0> >
??1?$map@KPAVCGuildMember@@U?$less@K@std@@V?$allocator@U?$pair@$$CBKPAVCGuildMember@@@std@@@3@@std@@QAE@XZ ENDP ; std::map<unsigned long,CGuildMember *,std::less<unsigned long>,std::allocator<std::pair<unsigned long const ,CGuildMember *> > >::~map<unsigned long,CGuildMember *,std::less<unsigned long>,std::allocator<std::pair<unsigned long const ,CGuildMember *> > >
_TEXT	ENDS
; Function compile flags: /Ogtp
; File C:\Program Files\Microsoft Visual Studio\2022\Professional\VC\Tools\MSVC\14.44.35207\include\xtree
;	COMDAT ?_Insert_node@?$_Tree_val@U?$_Tree_simple_types@U?$pair@$$CBKPAVCGuildMember@@@std@@@std@@@std@@QAEPAU?$_Tree_node@U?$pair@$$CBKPAVCGuildMember@@@std@@PAX@2@U?$_Tree_id@PAU?$_Tree_node@U?$pair@$$CBKPAVCGuildMember@@@std@@PAX@std@@@2@QAU32@@Z
_TEXT	SEGMENT
__Head$1$ = -4						; size = 4
__Loc$ = 8						; size = 8
__Newnode$ = 16						; size = 4
?_Insert_node@?$_Tree_val@U?$_Tree_simple_types@U?$pair@$$CBKPAVCGuildMember@@@std@@@std@@@std@@QAEPAU?$_Tree_node@U?$pair@$$CBKPAVCGuildMember@@@std@@PAX@2@U?$_Tree_id@PAU?$_Tree_node@U?$pair@$$CBKPAVCGuildMember@@@std@@PAX@std@@@2@QAU32@@Z PROC ; std::_Tree_val<std::_Tree_simple_types<std::pair<unsigned long const ,CGuildMember *> > >::_Insert_node, COMDAT
; _this$ = ecx

; 669  :     _Nodeptr _Insert_node(const _Tree_id<_Nodeptr> _Loc, const _Nodeptr _Newnode) noexcept {

  00000	55		 push	 ebp
  00001	8b ec		 mov	 ebp, esp
  00003	51		 push	 ecx

; 670  :         ++_Mysize;
; 671  :         const auto _Head  = _Myhead;
; 672  :         _Newnode->_Parent = _Loc._Parent;

  00004	8b 55 08	 mov	 edx, DWORD PTR __Loc$[ebp]
  00007	53		 push	 ebx
  00008	8b d9		 mov	 ebx, ecx
  0000a	57		 push	 edi
  0000b	8b 7d 10	 mov	 edi, DWORD PTR __Newnode$[ebp]
  0000e	8b 03		 mov	 eax, DWORD PTR [ebx]
  00010	ff 43 04	 inc	 DWORD PTR [ebx+4]
  00013	89 45 fc	 mov	 DWORD PTR __Head$1$[ebp], eax
  00016	89 57 04	 mov	 DWORD PTR [edi+4], edx

; 673  :         if (_Loc._Parent == _Head) { // first node in tree, just set head values

  00019	3b d0		 cmp	 edx, eax
  0001b	75 16		 jne	 SHORT $LN5@Insert_nod

; 674  :             _Head->_Left     = _Newnode;

  0001d	89 38		 mov	 DWORD PTR [eax], edi

; 675  :             _Head->_Parent   = _Newnode;

  0001f	89 78 04	 mov	 DWORD PTR [eax+4], edi

; 676  :             _Head->_Right    = _Newnode;

  00022	89 78 08	 mov	 DWORD PTR [eax+8], edi

; 735  :         return _Newnode;
; 736  :     }

  00025	8b c7		 mov	 eax, edi
  00027	c6 47 0c 01	 mov	 BYTE PTR [edi+12], 1
  0002b	5f		 pop	 edi
  0002c	5b		 pop	 ebx
  0002d	8b e5		 mov	 esp, ebp
  0002f	5d		 pop	 ebp
  00030	c2 0c 00	 ret	 12			; 0000000cH
$LN5@Insert_nod:

; 677  :             _Newnode->_Color = _Black; // the root is black
; 678  :             return _Newnode;
; 679  :         }
; 680  : 
; 681  :         _STL_INTERNAL_CHECK(_Loc._Child != _Tree_child::_Unused);
; 682  :         if (_Loc._Child == _Tree_child::_Right) { // add to right of _Loc._Parent

  00033	83 7d 0c 00	 cmp	 DWORD PTR __Loc$[ebp+4], 0
  00037	75 0d		 jne	 SHORT $LN6@Insert_nod

; 683  :             _STL_INTERNAL_CHECK(_Loc._Parent->_Right->_Isnil);
; 684  :             _Loc._Parent->_Right = _Newnode;

  00039	89 7a 08	 mov	 DWORD PTR [edx+8], edi

; 685  :             if (_Loc._Parent == _Head->_Right) { // remember rightmost node

  0003c	3b 50 08	 cmp	 edx, DWORD PTR [eax+8]
  0003f	75 0d		 jne	 SHORT $LN9@Insert_nod

; 686  :                 _Head->_Right = _Newnode;

  00041	89 78 08	 mov	 DWORD PTR [eax+8], edi

; 687  :             }
; 688  :         } else { // add to left of _Loc._Parent

  00044	eb 08		 jmp	 SHORT $LN9@Insert_nod
$LN6@Insert_nod:

; 689  :             _STL_INTERNAL_CHECK(_Loc._Parent->_Left->_Isnil);
; 690  :             _Loc._Parent->_Left = _Newnode;

  00046	89 3a		 mov	 DWORD PTR [edx], edi

; 691  :             if (_Loc._Parent == _Head->_Left) { // remember leftmost node

  00048	3b 10		 cmp	 edx, DWORD PTR [eax]
  0004a	75 02		 jne	 SHORT $LN9@Insert_nod

; 692  :                 _Head->_Left = _Newnode;

  0004c	89 38		 mov	 DWORD PTR [eax], edi
$LN9@Insert_nod:

; 693  :             }
; 694  :         }
; 695  : 
; 696  :         for (_Nodeptr _Pnode = _Newnode; _Pnode->_Parent->_Color == _Red;) {

  0004e	8b 4f 04	 mov	 ecx, DWORD PTR [edi+4]
  00051	8b c7		 mov	 eax, edi
  00053	80 79 0c 00	 cmp	 BYTE PTR [ecx+12], 0
  00057	0f 85 7d 01 00
	00		 jne	 $LN3@Insert_nod
  0005d	56		 push	 esi
  0005e	66 90		 npad	 2
$LL4@Insert_nod:

; 697  :             if (_Pnode->_Parent == _Pnode->_Parent->_Parent->_Left) { // fixup red-red in left subtree

  00060	8b 50 04	 mov	 edx, DWORD PTR [eax+4]
  00063	8b 72 04	 mov	 esi, DWORD PTR [edx+4]
  00066	8b 0e		 mov	 ecx, DWORD PTR [esi]
  00068	3b d1		 cmp	 edx, ecx
  0006a	0f 85 aa 00 00
	00		 jne	 $LN10@Insert_nod

; 698  :                 const auto _Parent_sibling = _Pnode->_Parent->_Parent->_Right;

  00070	8b 4e 08	 mov	 ecx, DWORD PTR [esi+8]

; 699  :                 if (_Parent_sibling->_Color == _Red) { // parent's sibling has two red children, blacken both

  00073	80 79 0c 00	 cmp	 BYTE PTR [ecx+12], 0
  00077	0f 84 a3 00 00
	00		 je	 $LN82@Insert_nod

; 700  :                     _Pnode->_Parent->_Color          = _Black;
; 701  :                     _Parent_sibling->_Color          = _Black;
; 702  :                     _Pnode->_Parent->_Parent->_Color = _Red;
; 703  :                     _Pnode                           = _Pnode->_Parent->_Parent;
; 704  :                 } else { // parent's sibling has red and black children
; 705  :                     if (_Pnode == _Pnode->_Parent->_Right) { // rotate right child to left

  0007d	8b 72 08	 mov	 esi, DWORD PTR [edx+8]
  00080	3b c6		 cmp	 eax, esi
  00082	75 37		 jne	 SHORT $LN57@Insert_nod

; 485  :         _Wherenode->_Right = _Pnode->_Left;

  00084	8b 0e		 mov	 ecx, DWORD PTR [esi]

; 706  :                         _Pnode = _Pnode->_Parent;

  00086	8b c2		 mov	 eax, edx

; 485  :         _Wherenode->_Right = _Pnode->_Left;

  00088	89 4a 08	 mov	 DWORD PTR [edx+8], ecx

; 486  : 
; 487  :         if (!_Pnode->_Left->_Isnil) {

  0008b	8b 0e		 mov	 ecx, DWORD PTR [esi]
  0008d	80 79 0d 00	 cmp	 BYTE PTR [ecx+13], 0
  00091	75 03		 jne	 SHORT $LN21@Insert_nod

; 488  :             _Pnode->_Left->_Parent = _Wherenode;

  00093	89 41 04	 mov	 DWORD PTR [ecx+4], eax
$LN21@Insert_nod:

; 489  :         }
; 490  : 
; 491  :         _Pnode->_Parent = _Wherenode->_Parent;

  00096	8b 4a 04	 mov	 ecx, DWORD PTR [edx+4]
  00099	89 4e 04	 mov	 DWORD PTR [esi+4], ecx

; 492  : 
; 493  :         if (_Wherenode == _Myhead->_Parent) {

  0009c	8b 0b		 mov	 ecx, DWORD PTR [ebx]
  0009e	3b 41 04	 cmp	 eax, DWORD PTR [ecx+4]
  000a1	75 05		 jne	 SHORT $LN22@Insert_nod

; 494  :             _Myhead->_Parent = _Pnode;

  000a3	89 71 04	 mov	 DWORD PTR [ecx+4], esi
  000a6	eb 0e		 jmp	 SHORT $LN25@Insert_nod
$LN22@Insert_nod:

; 495  :         } else if (_Wherenode == _Wherenode->_Parent->_Left) {

  000a8	8b 4a 04	 mov	 ecx, DWORD PTR [edx+4]
  000ab	3b 01		 cmp	 eax, DWORD PTR [ecx]
  000ad	75 04		 jne	 SHORT $LN24@Insert_nod

; 496  :             _Wherenode->_Parent->_Left = _Pnode;

  000af	89 31		 mov	 DWORD PTR [ecx], esi

; 497  :         } else {

  000b1	eb 03		 jmp	 SHORT $LN25@Insert_nod
$LN24@Insert_nod:

; 498  :             _Wherenode->_Parent->_Right = _Pnode;

  000b3	89 71 08	 mov	 DWORD PTR [ecx+8], esi
$LN25@Insert_nod:

; 499  :         }
; 500  : 
; 501  :         _Pnode->_Left       = _Wherenode;

  000b6	89 06		 mov	 DWORD PTR [esi], eax

; 502  :         _Wherenode->_Parent = _Pnode;

  000b8	89 70 04	 mov	 DWORD PTR [eax+4], esi
$LN57@Insert_nod:

; 707  :                         _Lrotate(_Pnode);
; 708  :                     }
; 709  : 
; 710  :                     _Pnode->_Parent->_Color          = _Black; // propagate red up

  000bb	8b 48 04	 mov	 ecx, DWORD PTR [eax+4]
  000be	c6 41 0c 01	 mov	 BYTE PTR [ecx+12], 1

; 711  :                     _Pnode->_Parent->_Parent->_Color = _Red;

  000c2	8b 48 04	 mov	 ecx, DWORD PTR [eax+4]
  000c5	8b 49 04	 mov	 ecx, DWORD PTR [ecx+4]
  000c8	c6 41 0c 00	 mov	 BYTE PTR [ecx+12], 0

; 712  :                     _Rrotate(_Pnode->_Parent->_Parent);

  000cc	8b 48 04	 mov	 ecx, DWORD PTR [eax+4]
  000cf	8b 51 04	 mov	 edx, DWORD PTR [ecx+4]

; 506  :         _Nodeptr _Pnode   = _Wherenode->_Left;

  000d2	8b 32		 mov	 esi, DWORD PTR [edx]

; 507  :         _Wherenode->_Left = _Pnode->_Right;

  000d4	8b 4e 08	 mov	 ecx, DWORD PTR [esi+8]
  000d7	89 0a		 mov	 DWORD PTR [edx], ecx

; 508  : 
; 509  :         if (!_Pnode->_Right->_Isnil) {

  000d9	8b 4e 08	 mov	 ecx, DWORD PTR [esi+8]
  000dc	80 79 0d 00	 cmp	 BYTE PTR [ecx+13], 0
  000e0	75 03		 jne	 SHORT $LN29@Insert_nod

; 510  :             _Pnode->_Right->_Parent = _Wherenode;

  000e2	89 51 04	 mov	 DWORD PTR [ecx+4], edx
$LN29@Insert_nod:

; 511  :         }
; 512  : 
; 513  :         _Pnode->_Parent = _Wherenode->_Parent;

  000e5	8b 4a 04	 mov	 ecx, DWORD PTR [edx+4]
  000e8	89 4e 04	 mov	 DWORD PTR [esi+4], ecx

; 514  : 
; 515  :         if (_Wherenode == _Myhead->_Parent) {

  000eb	8b 0b		 mov	 ecx, DWORD PTR [ebx]
  000ed	3b 51 04	 cmp	 edx, DWORD PTR [ecx+4]
  000f0	75 0b		 jne	 SHORT $LN30@Insert_nod

; 516  :             _Myhead->_Parent = _Pnode;

  000f2	89 71 04	 mov	 DWORD PTR [ecx+4], esi

; 521  :         }
; 522  : 
; 523  :         _Pnode->_Right      = _Wherenode;

  000f5	89 56 08	 mov	 DWORD PTR [esi+8], edx

; 713  :                 }
; 714  :             } else { // fixup red-red in right subtree

  000f8	e9 cc 00 00 00	 jmp	 $LN81@Insert_nod
$LN30@Insert_nod:

; 517  :         } else if (_Wherenode == _Wherenode->_Parent->_Right) {

  000fd	8b 4a 04	 mov	 ecx, DWORD PTR [edx+4]
  00100	3b 51 08	 cmp	 edx, DWORD PTR [ecx+8]
  00103	75 0b		 jne	 SHORT $LN32@Insert_nod

; 518  :             _Wherenode->_Parent->_Right = _Pnode;

  00105	89 71 08	 mov	 DWORD PTR [ecx+8], esi

; 521  :         }
; 522  : 
; 523  :         _Pnode->_Right      = _Wherenode;

  00108	89 56 08	 mov	 DWORD PTR [esi+8], edx

; 713  :                 }
; 714  :             } else { // fixup red-red in right subtree

  0010b	e9 b9 00 00 00	 jmp	 $LN81@Insert_nod
$LN32@Insert_nod:

; 520  :             _Wherenode->_Parent->_Left = _Pnode;

  00110	89 31		 mov	 DWORD PTR [ecx], esi

; 521  :         }
; 522  : 
; 523  :         _Pnode->_Right      = _Wherenode;

  00112	89 56 08	 mov	 DWORD PTR [esi+8], edx

; 713  :                 }
; 714  :             } else { // fixup red-red in right subtree

  00115	e9 af 00 00 00	 jmp	 $LN81@Insert_nod
$LN10@Insert_nod:

; 715  :                 const auto _Parent_sibling = _Pnode->_Parent->_Parent->_Left;
; 716  :                 if (_Parent_sibling->_Color == _Red) { // parent's sibling has two red children, blacken both

  0011a	80 79 0c 00	 cmp	 BYTE PTR [ecx+12], 0
  0011e	75 1d		 jne	 SHORT $LN15@Insert_nod
$LN82@Insert_nod:

; 693  :             }
; 694  :         }
; 695  : 
; 696  :         for (_Nodeptr _Pnode = _Newnode; _Pnode->_Parent->_Color == _Red;) {

  00120	c6 42 0c 01	 mov	 BYTE PTR [edx+12], 1
  00124	c6 41 0c 01	 mov	 BYTE PTR [ecx+12], 1
  00128	8b 48 04	 mov	 ecx, DWORD PTR [eax+4]
  0012b	8b 49 04	 mov	 ecx, DWORD PTR [ecx+4]
  0012e	c6 41 0c 00	 mov	 BYTE PTR [ecx+12], 0
  00132	8b 48 04	 mov	 ecx, DWORD PTR [eax+4]
  00135	8b 41 04	 mov	 eax, DWORD PTR [ecx+4]
  00138	e9 8f 00 00 00	 jmp	 $LN2@Insert_nod
$LN15@Insert_nod:

; 717  :                     _Pnode->_Parent->_Color          = _Black;
; 718  :                     _Parent_sibling->_Color          = _Black;
; 719  :                     _Pnode->_Parent->_Parent->_Color = _Red;
; 720  :                     _Pnode                           = _Pnode->_Parent->_Parent;
; 721  :                 } else { // parent's sibling has red and black children
; 722  :                     if (_Pnode == _Pnode->_Parent->_Left) { // rotate left child to right

  0013d	8b 32		 mov	 esi, DWORD PTR [edx]
  0013f	3b c6		 cmp	 eax, esi
  00141	75 3a		 jne	 SHORT $LN42@Insert_nod

; 507  :         _Wherenode->_Left = _Pnode->_Right;

  00143	8b 4e 08	 mov	 ecx, DWORD PTR [esi+8]

; 723  :                         _Pnode = _Pnode->_Parent;

  00146	8b c2		 mov	 eax, edx

; 507  :         _Wherenode->_Left = _Pnode->_Right;

  00148	89 08		 mov	 DWORD PTR [eax], ecx

; 508  : 
; 509  :         if (!_Pnode->_Right->_Isnil) {

  0014a	8b 4e 08	 mov	 ecx, DWORD PTR [esi+8]
  0014d	80 79 0d 00	 cmp	 BYTE PTR [ecx+13], 0
  00151	75 03		 jne	 SHORT $LN37@Insert_nod

; 510  :             _Pnode->_Right->_Parent = _Wherenode;

  00153	89 41 04	 mov	 DWORD PTR [ecx+4], eax
$LN37@Insert_nod:

; 511  :         }
; 512  : 
; 513  :         _Pnode->_Parent = _Wherenode->_Parent;

  00156	8b 4a 04	 mov	 ecx, DWORD PTR [edx+4]
  00159	89 4e 04	 mov	 DWORD PTR [esi+4], ecx

; 514  : 
; 515  :         if (_Wherenode == _Myhead->_Parent) {

  0015c	8b 0b		 mov	 ecx, DWORD PTR [ebx]
  0015e	3b 41 04	 cmp	 eax, DWORD PTR [ecx+4]
  00161	75 05		 jne	 SHORT $LN38@Insert_nod

; 516  :             _Myhead->_Parent = _Pnode;

  00163	89 71 04	 mov	 DWORD PTR [ecx+4], esi
  00166	eb 0f		 jmp	 SHORT $LN41@Insert_nod
$LN38@Insert_nod:

; 517  :         } else if (_Wherenode == _Wherenode->_Parent->_Right) {

  00168	8b 4a 04	 mov	 ecx, DWORD PTR [edx+4]
  0016b	3b 41 08	 cmp	 eax, DWORD PTR [ecx+8]
  0016e	75 05		 jne	 SHORT $LN40@Insert_nod

; 518  :             _Wherenode->_Parent->_Right = _Pnode;

  00170	89 71 08	 mov	 DWORD PTR [ecx+8], esi

; 519  :         } else {

  00173	eb 02		 jmp	 SHORT $LN41@Insert_nod
$LN40@Insert_nod:

; 520  :             _Wherenode->_Parent->_Left = _Pnode;

  00175	89 31		 mov	 DWORD PTR [ecx], esi
$LN41@Insert_nod:

; 521  :         }
; 522  : 
; 523  :         _Pnode->_Right      = _Wherenode;

  00177	89 46 08	 mov	 DWORD PTR [esi+8], eax

; 524  :         _Wherenode->_Parent = _Pnode;

  0017a	89 70 04	 mov	 DWORD PTR [eax+4], esi
$LN42@Insert_nod:

; 724  :                         _Rrotate(_Pnode);
; 725  :                     }
; 726  : 
; 727  :                     _Pnode->_Parent->_Color          = _Black; // propagate red up

  0017d	8b 48 04	 mov	 ecx, DWORD PTR [eax+4]
  00180	c6 41 0c 01	 mov	 BYTE PTR [ecx+12], 1

; 728  :                     _Pnode->_Parent->_Parent->_Color = _Red;

  00184	8b 48 04	 mov	 ecx, DWORD PTR [eax+4]
  00187	8b 49 04	 mov	 ecx, DWORD PTR [ecx+4]
  0018a	c6 41 0c 00	 mov	 BYTE PTR [ecx+12], 0

; 729  :                     _Lrotate(_Pnode->_Parent->_Parent);

  0018e	8b 48 04	 mov	 ecx, DWORD PTR [eax+4]
  00191	8b 51 04	 mov	 edx, DWORD PTR [ecx+4]

; 484  :         _Nodeptr _Pnode    = _Wherenode->_Right;

  00194	8b 72 08	 mov	 esi, DWORD PTR [edx+8]

; 485  :         _Wherenode->_Right = _Pnode->_Left;

  00197	8b 0e		 mov	 ecx, DWORD PTR [esi]
  00199	89 4a 08	 mov	 DWORD PTR [edx+8], ecx

; 486  : 
; 487  :         if (!_Pnode->_Left->_Isnil) {

  0019c	8b 0e		 mov	 ecx, DWORD PTR [esi]
  0019e	80 79 0d 00	 cmp	 BYTE PTR [ecx+13], 0
  001a2	75 03		 jne	 SHORT $LN45@Insert_nod

; 488  :             _Pnode->_Left->_Parent = _Wherenode;

  001a4	89 51 04	 mov	 DWORD PTR [ecx+4], edx
$LN45@Insert_nod:

; 489  :         }
; 490  : 
; 491  :         _Pnode->_Parent = _Wherenode->_Parent;

  001a7	8b 4a 04	 mov	 ecx, DWORD PTR [edx+4]
  001aa	89 4e 04	 mov	 DWORD PTR [esi+4], ecx

; 492  : 
; 493  :         if (_Wherenode == _Myhead->_Parent) {

  001ad	8b 0b		 mov	 ecx, DWORD PTR [ebx]
  001af	3b 51 04	 cmp	 edx, DWORD PTR [ecx+4]
  001b2	75 05		 jne	 SHORT $LN46@Insert_nod

; 494  :             _Myhead->_Parent = _Pnode;

  001b4	89 71 04	 mov	 DWORD PTR [ecx+4], esi
  001b7	eb 0e		 jmp	 SHORT $LN49@Insert_nod
$LN46@Insert_nod:

; 495  :         } else if (_Wherenode == _Wherenode->_Parent->_Left) {

  001b9	8b 4a 04	 mov	 ecx, DWORD PTR [edx+4]
  001bc	3b 11		 cmp	 edx, DWORD PTR [ecx]
  001be	75 04		 jne	 SHORT $LN48@Insert_nod

; 496  :             _Wherenode->_Parent->_Left = _Pnode;

  001c0	89 31		 mov	 DWORD PTR [ecx], esi

; 497  :         } else {

  001c2	eb 03		 jmp	 SHORT $LN49@Insert_nod
$LN48@Insert_nod:

; 498  :             _Wherenode->_Parent->_Right = _Pnode;

  001c4	89 71 08	 mov	 DWORD PTR [ecx+8], esi
$LN49@Insert_nod:

; 499  :         }
; 500  : 
; 501  :         _Pnode->_Left       = _Wherenode;

  001c7	89 16		 mov	 DWORD PTR [esi], edx
$LN81@Insert_nod:

; 693  :             }
; 694  :         }
; 695  : 
; 696  :         for (_Nodeptr _Pnode = _Newnode; _Pnode->_Parent->_Color == _Red;) {

  001c9	89 72 04	 mov	 DWORD PTR [edx+4], esi
$LN2@Insert_nod:
  001cc	8b 48 04	 mov	 ecx, DWORD PTR [eax+4]
  001cf	80 79 0c 00	 cmp	 BYTE PTR [ecx+12], 0
  001d3	0f 84 87 fe ff
	ff		 je	 $LL4@Insert_nod
  001d9	5e		 pop	 esi
$LN3@Insert_nod:

; 730  :                 }
; 731  :             }
; 732  :         }
; 733  : 
; 734  :         _Head->_Parent->_Color = _Black; // root is always black

  001da	8b 45 fc	 mov	 eax, DWORD PTR __Head$1$[ebp]
  001dd	8b 40 04	 mov	 eax, DWORD PTR [eax+4]
  001e0	c6 40 0c 01	 mov	 BYTE PTR [eax+12], 1

; 735  :         return _Newnode;
; 736  :     }

  001e4	8b c7		 mov	 eax, edi
  001e6	5f		 pop	 edi
  001e7	5b		 pop	 ebx
  001e8	8b e5		 mov	 esp, ebp
  001ea	5d		 pop	 ebp
  001eb	c2 0c 00	 ret	 12			; 0000000cH
?_Insert_node@?$_Tree_val@U?$_Tree_simple_types@U?$pair@$$CBKPAVCGuildMember@@@std@@@std@@@std@@QAEPAU?$_Tree_node@U?$pair@$$CBKPAVCGuildMember@@@std@@PAX@2@U?$_Tree_id@PAU?$_Tree_node@U?$pair@$$CBKPAVCGuildMember@@@std@@PAX@std@@@2@QAU32@@Z ENDP ; std::_Tree_val<std::_Tree_simple_types<std::pair<unsigned long const ,CGuildMember *> > >::_Insert_node
_TEXT	ENDS
; Function compile flags: /Ogtp
; File C:\Program Files\Microsoft Visual Studio\2022\Professional\VC\Tools\MSVC\14.44.35207\include\xtree
; File C:\Program Files\Microsoft Visual Studio\2022\Professional\VC\Tools\MSVC\14.44.35207\include\utility
; File C:\Program Files\Microsoft Visual Studio\2022\Professional\VC\Tools\MSVC\14.44.35207\include\xtree
;	COMDAT ?_Extract@?$_Tree_val@U?$_Tree_simple_types@U?$pair@$$CBKPAVCGuildMember@@@std@@@std@@@std@@QAEPAU?$_Tree_node@U?$pair@$$CBKPAVCGuildMember@@@std@@PAX@2@V?$_Tree_unchecked_const_iterator@V?$_Tree_val@U?$_Tree_simple_types@U?$pair@$$CBKPAVCGuildMember@@@std@@@std@@@std@@U_Iterator_base0@2@@2@@Z
_TEXT	SEGMENT
tv1039 = -16						; size = 4
tv1073 = -12						; size = 4
tv1093 = -12						; size = 4
$T1 = -12						; size = 4
__Erasednode$1$ = -8					; size = 4
_this$1$ = -4						; size = 4
__Where$ = 8						; size = 4
?_Extract@?$_Tree_val@U?$_Tree_simple_types@U?$pair@$$CBKPAVCGuildMember@@@std@@@std@@@std@@QAEPAU?$_Tree_node@U?$pair@$$CBKPAVCGuildMember@@@std@@PAX@2@V?$_Tree_unchecked_const_iterator@V?$_Tree_val@U?$_Tree_simple_types@U?$pair@$$CBKPAVCGuildMember@@@std@@@std@@@std@@U_Iterator_base0@2@@2@@Z PROC ; std::_Tree_val<std::_Tree_simple_types<std::pair<unsigned long const ,CGuildMember *> > >::_Extract, COMDAT
; _this$ = ecx

; 527  :     _Nodeptr _Extract(_Unchecked_const_iterator _Where) noexcept {

  00000	55		 push	 ebp
  00001	8b ec		 mov	 ebp, esp
  00003	83 ec 10	 sub	 esp, 16			; 00000010H

; 528  :         _Nodeptr _Erasednode = _Where._Ptr; // node to erase

  00006	8b 45 08	 mov	 eax, DWORD PTR __Where$[ebp]
  00009	53		 push	 ebx
  0000a	56		 push	 esi
  0000b	8b d9		 mov	 ebx, ecx
  0000d	89 45 f8	 mov	 DWORD PTR __Erasednode$1$[ebp], eax
  00010	57		 push	 edi

; 529  :         ++_Where; // save successor iterator for return

  00011	8d 4d 08	 lea	 ecx, DWORD PTR __Where$[ebp]
  00014	89 5d fc	 mov	 DWORD PTR _this$1$[ebp], ebx
  00017	e8 00 00 00 00	 call	 ??E?$_Tree_unchecked_const_iterator@V?$_Tree_val@U?$_Tree_simple_types@U?$pair@$$CBKPAVCGuildMember@@@std@@@std@@@std@@U_Iterator_base0@2@@std@@QAEAAV01@XZ ; std::_Tree_unchecked_const_iterator<std::_Tree_val<std::_Tree_simple_types<std::pair<unsigned long const ,CGuildMember *> > >,std::_Iterator_base0>::operator++

; 530  : 
; 531  :         _Nodeptr _Fixnode; // the node to recolor as needed
; 532  :         _Nodeptr _Fixnodeparent; // parent of _Fixnode (which may be nil)
; 533  :         _Nodeptr _Pnode = _Erasednode;
; 534  : 
; 535  :         if (_Pnode->_Left->_Isnil) {

  0001c	8b 4d f8	 mov	 ecx, DWORD PTR __Erasednode$1$[ebp]
  0001f	8b 01		 mov	 eax, DWORD PTR [ecx]
  00021	8b 79 08	 mov	 edi, DWORD PTR [ecx+8]
  00024	80 78 0d 00	 cmp	 BYTE PTR [eax+13], 0
  00028	75 18		 jne	 SHORT $LN94@Extract

; 536  :             _Fixnode = _Pnode->_Right; // stitch up right subtree
; 537  :         } else if (_Pnode->_Right->_Isnil) {

  0002a	80 7f 0d 00	 cmp	 BYTE PTR [edi+13], 0
  0002e	74 04		 je	 SHORT $LN7@Extract

; 538  :             _Fixnode = _Pnode->_Left; // stitch up left subtree

  00030	8b f8		 mov	 edi, eax

; 539  :         } else { // two subtrees, must lift successor node to replace erased

  00032	eb 0e		 jmp	 SHORT $LN94@Extract
$LN7@Extract:

; 540  :             _Pnode   = _Where._Ptr; // _Pnode is successor node

  00034	8b 55 08	 mov	 edx, DWORD PTR __Where$[ebp]

; 541  :             _Fixnode = _Pnode->_Right; // _Fixnode is only subtree

  00037	8b 7a 08	 mov	 edi, DWORD PTR [edx+8]
  0003a	3b d1		 cmp	 edx, ecx

; 542  :         }
; 543  : 
; 544  :         if (_Pnode == _Erasednode) { // at most one subtree, relink it

  0003c	0f 85 91 00 00
	00		 jne	 $LN9@Extract
$LN94@Extract:

; 545  :             _Fixnodeparent = _Erasednode->_Parent;
; 546  :             if (!_Fixnode->_Isnil) {

  00042	80 7f 0d 00	 cmp	 BYTE PTR [edi+13], 0
  00046	8b 71 04	 mov	 esi, DWORD PTR [ecx+4]
  00049	75 03		 jne	 SHORT $LN11@Extract

; 547  :                 _Fixnode->_Parent = _Fixnodeparent; // link up

  0004b	89 77 04	 mov	 DWORD PTR [edi+4], esi
$LN11@Extract:

; 548  :             }
; 549  : 
; 550  :             if (_Myhead->_Parent == _Erasednode) {

  0004e	8b 03		 mov	 eax, DWORD PTR [ebx]
  00050	39 48 04	 cmp	 DWORD PTR [eax+4], ecx
  00053	75 05		 jne	 SHORT $LN12@Extract

; 551  :                 _Myhead->_Parent = _Fixnode; // link down from root

  00055	89 78 04	 mov	 DWORD PTR [eax+4], edi
  00058	eb 0b		 jmp	 SHORT $LN15@Extract
$LN12@Extract:

; 552  :             } else if (_Fixnodeparent->_Left == _Erasednode) {

  0005a	39 0e		 cmp	 DWORD PTR [esi], ecx
  0005c	75 04		 jne	 SHORT $LN14@Extract

; 553  :                 _Fixnodeparent->_Left = _Fixnode; // link down to left

  0005e	89 3e		 mov	 DWORD PTR [esi], edi

; 554  :             } else {

  00060	eb 03		 jmp	 SHORT $LN15@Extract
$LN14@Extract:

; 555  :                 _Fixnodeparent->_Right = _Fixnode; // link down to right

  00062	89 7e 08	 mov	 DWORD PTR [esi+8], edi
$LN15@Extract:

; 556  :             }
; 557  : 
; 558  :             if (_Myhead->_Left == _Erasednode) {

  00065	8b 03		 mov	 eax, DWORD PTR [ebx]
  00067	39 08		 cmp	 DWORD PTR [eax], ecx
  00069	75 28		 jne	 SHORT $LN16@Extract

; 559  :                 _Myhead->_Left = _Fixnode->_Isnil ? _Fixnodeparent // smallest is parent of erased node

  0006b	80 7f 0d 00	 cmp	 BYTE PTR [edi+13], 0
  0006f	74 04		 je	 SHORT $LN42@Extract
  00071	8b d6		 mov	 edx, esi
  00073	eb 1c		 jmp	 SHORT $LN43@Extract
$LN42@Extract:

; 476  :         while (!_Pnode->_Left->_Isnil) {

  00075	8b 0f		 mov	 ecx, DWORD PTR [edi]

; 559  :                 _Myhead->_Left = _Fixnode->_Isnil ? _Fixnodeparent // smallest is parent of erased node

  00077	8b d7		 mov	 edx, edi

; 476  :         while (!_Pnode->_Left->_Isnil) {

  00079	80 79 0d 00	 cmp	 BYTE PTR [ecx+13], 0
  0007d	75 0f		 jne	 SHORT $LN49@Extract
  0007f	90		 npad	 1
$LL48@Extract:
  00080	8b 01		 mov	 eax, DWORD PTR [ecx]

; 477  :             _Pnode = _Pnode->_Left;

  00082	8b d1		 mov	 edx, ecx
  00084	8b c8		 mov	 ecx, eax
  00086	80 78 0d 00	 cmp	 BYTE PTR [eax+13], 0
  0008a	74 f4		 je	 SHORT $LL48@Extract
  0008c	8b 03		 mov	 eax, DWORD PTR [ebx]
$LN49@Extract:
  0008e	8b 4d f8	 mov	 ecx, DWORD PTR __Erasednode$1$[ebp]
$LN43@Extract:

; 559  :                 _Myhead->_Left = _Fixnode->_Isnil ? _Fixnodeparent // smallest is parent of erased node

  00091	89 10		 mov	 DWORD PTR [eax], edx
$LN16@Extract:

; 560  :                                                   : _Min(_Fixnode); // smallest in relinked subtree
; 561  :             }
; 562  : 
; 563  :             if (_Myhead->_Right == _Erasednode) {

  00093	8b 13		 mov	 edx, DWORD PTR [ebx]
  00095	39 4a 08	 cmp	 DWORD PTR [edx+8], ecx
  00098	75 34		 jne	 SHORT $LN17@Extract

; 564  :                 _Myhead->_Right = _Fixnode->_Isnil ? _Fixnodeparent // largest is parent of erased node

  0009a	80 7f 0d 00	 cmp	 BYTE PTR [edi+13], 0
  0009e	74 0d		 je	 SHORT $LN44@Extract

; 565  :                                                    : _Max(_Fixnode); // largest in relinked subtree
; 566  :             }
; 567  :         } else { // erased has two subtrees, _Pnode is successor to erased

  000a0	8b 45 f8	 mov	 eax, DWORD PTR __Erasednode$1$[ebp]
  000a3	8b ce		 mov	 ecx, esi
  000a5	89 4a 08	 mov	 DWORD PTR [edx+8], ecx
  000a8	e9 94 00 00 00	 jmp	 $LN58@Extract
$LN44@Extract:

; 468  :         while (!_Pnode->_Right->_Isnil) {

  000ad	8b 47 08	 mov	 eax, DWORD PTR [edi+8]

; 564  :                 _Myhead->_Right = _Fixnode->_Isnil ? _Fixnodeparent // largest is parent of erased node

  000b0	8b cf		 mov	 ecx, edi

; 468  :         while (!_Pnode->_Right->_Isnil) {

  000b2	80 78 0d 00	 cmp	 BYTE PTR [eax+13], 0
  000b6	75 13		 jne	 SHORT $LN54@Extract
  000b8	0f 1f 84 00 00
	00 00 00	 npad	 8
$LL53@Extract:

; 469  :             _Pnode = _Pnode->_Right;

  000c0	8b c8		 mov	 ecx, eax
  000c2	8b 41 08	 mov	 eax, DWORD PTR [ecx+8]
  000c5	80 78 0d 00	 cmp	 BYTE PTR [eax+13], 0
  000c9	74 f5		 je	 SHORT $LL53@Extract
$LN54@Extract:

; 564  :                 _Myhead->_Right = _Fixnode->_Isnil ? _Fixnodeparent // largest is parent of erased node

  000cb	89 4a 08	 mov	 DWORD PTR [edx+8], ecx
$LN17@Extract:

; 565  :                                                    : _Max(_Fixnode); // largest in relinked subtree
; 566  :             }
; 567  :         } else { // erased has two subtrees, _Pnode is successor to erased

  000ce	8b 45 f8	 mov	 eax, DWORD PTR __Erasednode$1$[ebp]
  000d1	eb 6e		 jmp	 SHORT $LN58@Extract
$LN9@Extract:

; 568  :             _Erasednode->_Left->_Parent = _Pnode; // link left up

  000d3	89 50 04	 mov	 DWORD PTR [eax+4], edx

; 569  :             _Pnode->_Left               = _Erasednode->_Left; // link successor down

  000d6	8b 01		 mov	 eax, DWORD PTR [ecx]
  000d8	89 02		 mov	 DWORD PTR [edx], eax

; 570  : 
; 571  :             if (_Pnode == _Erasednode->_Right) {

  000da	8d 42 04	 lea	 eax, DWORD PTR [edx+4]
  000dd	89 45 f4	 mov	 DWORD PTR $T1[ebp], eax
  000e0	3b 51 08	 cmp	 edx, DWORD PTR [ecx+8]
  000e3	75 04		 jne	 SHORT $LN18@Extract

; 572  :                 _Fixnodeparent = _Pnode; // successor is next to erased

  000e5	8b f2		 mov	 esi, edx

; 573  :             } else { // successor further down, link in place of erased

  000e7	eb 1f		 jmp	 SHORT $LN19@Extract
$LN18@Extract:

; 574  :                 _Fixnodeparent = _Pnode->_Parent; // parent is successor's
; 575  :                 if (!_Fixnode->_Isnil) {

  000e9	80 7f 0d 00	 cmp	 BYTE PTR [edi+13], 0
  000ed	8b 30		 mov	 esi, DWORD PTR [eax]
  000ef	75 03		 jne	 SHORT $LN20@Extract

; 576  :                     _Fixnode->_Parent = _Fixnodeparent; // link fix up

  000f1	89 77 04	 mov	 DWORD PTR [edi+4], esi
$LN20@Extract:

; 577  :                 }
; 578  : 
; 579  :                 _Fixnodeparent->_Left        = _Fixnode; // link fix down

  000f4	89 3e		 mov	 DWORD PTR [esi], edi

; 580  :                 _Pnode->_Right               = _Erasednode->_Right; // link next down

  000f6	8b 41 08	 mov	 eax, DWORD PTR [ecx+8]
  000f9	89 42 08	 mov	 DWORD PTR [edx+8], eax

; 581  :                 _Erasednode->_Right->_Parent = _Pnode; // right up

  000fc	8b 41 08	 mov	 eax, DWORD PTR [ecx+8]
  000ff	89 50 04	 mov	 DWORD PTR [eax+4], edx
  00102	8d 42 04	 lea	 eax, DWORD PTR [edx+4]
  00105	89 45 f4	 mov	 DWORD PTR $T1[ebp], eax
$LN19@Extract:

; 582  :             }
; 583  : 
; 584  :             if (_Myhead->_Parent == _Erasednode) {

  00108	8b 03		 mov	 eax, DWORD PTR [ebx]
  0010a	39 48 04	 cmp	 DWORD PTR [eax+4], ecx
  0010d	75 05		 jne	 SHORT $LN21@Extract

; 585  :                 _Myhead->_Parent = _Pnode; // link down from root

  0010f	89 50 04	 mov	 DWORD PTR [eax+4], edx
  00112	eb 0e		 jmp	 SHORT $LN141@Extract
$LN21@Extract:

; 586  :             } else if (_Erasednode->_Parent->_Left == _Erasednode) {

  00114	8b 41 04	 mov	 eax, DWORD PTR [ecx+4]
  00117	39 08		 cmp	 DWORD PTR [eax], ecx
  00119	75 04		 jne	 SHORT $LN23@Extract

; 587  :                 _Erasednode->_Parent->_Left = _Pnode; // link down to left

  0011b	89 10		 mov	 DWORD PTR [eax], edx

; 588  :             } else {

  0011d	eb 03		 jmp	 SHORT $LN141@Extract
$LN23@Extract:

; 589  :                 _Erasednode->_Parent->_Right = _Pnode; // link down to right

  0011f	89 50 08	 mov	 DWORD PTR [eax+8], edx
$LN141@Extract:

; 590  :             }
; 591  : 
; 592  :             _Pnode->_Parent = _Erasednode->_Parent; // link successor up

  00122	b8 04 00 00 00	 mov	 eax, 4
  00127	8b 04 08	 mov	 eax, DWORD PTR [eax+ecx]
  0012a	8b 4d f4	 mov	 ecx, DWORD PTR $T1[ebp]
  0012d	89 01		 mov	 DWORD PTR [ecx], eax
; File C:\Program Files\Microsoft Visual Studio\2022\Professional\VC\Tools\MSVC\14.44.35207\include\utility

; 140  :     _Left    = _STD move(_Right);

  0012f	8b 45 f8	 mov	 eax, DWORD PTR __Erasednode$1$[ebp]
  00132	8a 4a 0c	 mov	 cl, BYTE PTR [edx+12]
  00135	8a 40 0c	 mov	 al, BYTE PTR [eax+12]
  00138	88 42 0c	 mov	 BYTE PTR [edx+12], al

; 141  :     _Right   = _STD move(_Tmp);

  0013b	8b 45 f8	 mov	 eax, DWORD PTR __Erasednode$1$[ebp]
  0013e	88 48 0c	 mov	 BYTE PTR [eax+12], cl
$LN58@Extract:
; File C:\Program Files\Microsoft Visual Studio\2022\Professional\VC\Tools\MSVC\14.44.35207\include\xtree

; 596  :         if (_Erasednode->_Color == _Black) { // erasing black link, must recolor/rebalance tree

  00141	80 78 0c 01	 cmp	 BYTE PTR [eax+12], 1
  00145	0f 85 ba 01 00
	00		 jne	 $LN25@Extract

; 597  :             for (; _Fixnode != _Myhead->_Parent && _Fixnode->_Color == _Black; _Fixnodeparent = _Fixnode->_Parent) {

  0014b	8b 03		 mov	 eax, DWORD PTR [ebx]
  0014d	3b 78 04	 cmp	 edi, DWORD PTR [eax+4]
  00150	0f 84 a8 01 00
	00		 je	 $LN3@Extract
  00156	80 7f 0c 01	 cmp	 BYTE PTR [edi+12], 1
  0015a	89 75 f4	 mov	 DWORD PTR tv1093[ebp], esi
  0015d	0f 85 9b 01 00
	00		 jne	 $LN3@Extract
$LL4@Extract:

; 598  :                 if (_Fixnode == _Fixnodeparent->_Left) { // fixup left subtree

  00163	8b 0e		 mov	 ecx, DWORD PTR [esi]
  00165	3b f9		 cmp	 edi, ecx
  00167	0f 85 be 00 00
	00		 jne	 $LN26@Extract

; 599  :                     _Pnode = _Fixnodeparent->_Right;

  0016d	8b 4e 08	 mov	 ecx, DWORD PTR [esi+8]

; 600  :                     if (_Pnode->_Color == _Red) { // rotate red up from right subtree

  00170	80 79 0c 00	 cmp	 BYTE PTR [ecx+12], 0
  00174	75 54		 jne	 SHORT $LN95@Extract

; 601  :                         _Pnode->_Color         = _Black;

  00176	c6 41 0c 01	 mov	 BYTE PTR [ecx+12], 1

; 484  :         _Nodeptr _Pnode    = _Wherenode->_Right;

  0017a	8b 4e 08	 mov	 ecx, DWORD PTR [esi+8]

; 602  :                         _Fixnodeparent->_Color = _Red;

  0017d	c6 46 0c 00	 mov	 BYTE PTR [esi+12], 0

; 485  :         _Wherenode->_Right = _Pnode->_Left;

  00181	8b 01		 mov	 eax, DWORD PTR [ecx]
  00183	89 46 08	 mov	 DWORD PTR [esi+8], eax

; 486  : 
; 487  :         if (!_Pnode->_Left->_Isnil) {

  00186	8b 01		 mov	 eax, DWORD PTR [ecx]
  00188	80 78 0d 00	 cmp	 BYTE PTR [eax+13], 0
  0018c	75 03		 jne	 SHORT $LN61@Extract

; 488  :             _Pnode->_Left->_Parent = _Wherenode;

  0018e	89 70 04	 mov	 DWORD PTR [eax+4], esi
$LN61@Extract:

; 489  :         }
; 490  : 
; 491  :         _Pnode->_Parent = _Wherenode->_Parent;

  00191	8b 46 04	 mov	 eax, DWORD PTR [esi+4]
  00194	8d 56 04	 lea	 edx, DWORD PTR [esi+4]
  00197	89 41 04	 mov	 DWORD PTR [ecx+4], eax

; 492  : 
; 493  :         if (_Wherenode == _Myhead->_Parent) {

  0019a	8b 03		 mov	 eax, DWORD PTR [ebx]
  0019c	3b 70 04	 cmp	 esi, DWORD PTR [eax+4]
  0019f	75 0c		 jne	 SHORT $LN62@Extract

; 494  :             _Myhead->_Parent = _Pnode;

  001a1	89 48 04	 mov	 DWORD PTR [eax+4], ecx

; 499  :         }
; 500  : 
; 501  :         _Pnode->_Left       = _Wherenode;

  001a4	89 31		 mov	 DWORD PTR [ecx], esi

; 502  :         _Wherenode->_Parent = _Pnode;

  001a6	89 0a		 mov	 DWORD PTR [edx], ecx

; 603  :                         _Lrotate(_Fixnodeparent);
; 604  :                         _Pnode = _Fixnodeparent->_Right;

  001a8	8b 4e 08	 mov	 ecx, DWORD PTR [esi+8]
  001ab	eb 20		 jmp	 SHORT $LN87@Extract
$LN62@Extract:

; 495  :         } else if (_Wherenode == _Wherenode->_Parent->_Left) {

  001ad	8b 02		 mov	 eax, DWORD PTR [edx]
  001af	3b 30		 cmp	 esi, DWORD PTR [eax]
  001b1	75 0b		 jne	 SHORT $LN64@Extract

; 496  :             _Wherenode->_Parent->_Left = _Pnode;

  001b3	89 08		 mov	 DWORD PTR [eax], ecx

; 499  :         }
; 500  : 
; 501  :         _Pnode->_Left       = _Wherenode;

  001b5	89 31		 mov	 DWORD PTR [ecx], esi

; 502  :         _Wherenode->_Parent = _Pnode;

  001b7	89 0a		 mov	 DWORD PTR [edx], ecx

; 603  :                         _Lrotate(_Fixnodeparent);
; 604  :                         _Pnode = _Fixnodeparent->_Right;

  001b9	8b 4e 08	 mov	 ecx, DWORD PTR [esi+8]
  001bc	eb 0f		 jmp	 SHORT $LN87@Extract
$LN64@Extract:

; 498  :             _Wherenode->_Parent->_Right = _Pnode;

  001be	89 48 08	 mov	 DWORD PTR [eax+8], ecx

; 499  :         }
; 500  : 
; 501  :         _Pnode->_Left       = _Wherenode;

  001c1	89 31		 mov	 DWORD PTR [ecx], esi

; 502  :         _Wherenode->_Parent = _Pnode;

  001c3	89 0a		 mov	 DWORD PTR [edx], ecx

; 603  :                         _Lrotate(_Fixnodeparent);
; 604  :                         _Pnode = _Fixnodeparent->_Right;

  001c5	8b 4e 08	 mov	 ecx, DWORD PTR [esi+8]
  001c8	eb 03		 jmp	 SHORT $LN87@Extract
$LN95@Extract:
  001ca	8d 56 04	 lea	 edx, DWORD PTR [esi+4]
$LN87@Extract:

; 605  :                     }
; 606  : 
; 607  :                     if (_Pnode->_Isnil) {

  001cd	80 79 0d 00	 cmp	 BYTE PTR [ecx+13], 0
  001d1	0f 85 d0 00 00
	00		 jne	 $LN2@Extract

; 608  :                         _Fixnode = _Fixnodeparent; // shouldn't happen
; 609  :                     } else if (_Pnode->_Left->_Color == _Black
; 610  :                                && _Pnode->_Right->_Color == _Black) { // redden right subtree with black children

  001d7	8b 01		 mov	 eax, DWORD PTR [ecx]
  001d9	80 78 0c 01	 cmp	 BYTE PTR [eax+12], 1
  001dd	75 0d		 jne	 SHORT $LN97@Extract
  001df	8b 41 08	 mov	 eax, DWORD PTR [ecx+8]
  001e2	80 78 0c 01	 cmp	 BYTE PTR [eax+12], 1
  001e6	0f 84 b4 00 00
	00		 je	 $LN142@Extract
$LN97@Extract:

; 611  :                         _Pnode->_Color = _Red;
; 612  :                         _Fixnode       = _Fixnodeparent;
; 613  :                     } else { // must rearrange right subtree
; 614  :                         if (_Pnode->_Right->_Color == _Black) { // rotate red up from left sub-subtree

  001ec	8b 41 08	 mov	 eax, DWORD PTR [ecx+8]
  001ef	8b 5d fc	 mov	 ebx, DWORD PTR _this$1$[ebp]
  001f2	80 78 0c 01	 cmp	 BYTE PTR [eax+12], 1
  001f6	75 15		 jne	 SHORT $LN33@Extract

; 615  :                             _Pnode->_Left->_Color = _Black;

  001f8	8b 01		 mov	 eax, DWORD PTR [ecx]

; 616  :                             _Pnode->_Color        = _Red;
; 617  :                             _Rrotate(_Pnode);

  001fa	51		 push	 ecx
  001fb	c6 40 0c 01	 mov	 BYTE PTR [eax+12], 1
  001ff	c6 41 0c 00	 mov	 BYTE PTR [ecx+12], 0
  00203	8b cb		 mov	 ecx, ebx
  00205	e8 00 00 00 00	 call	 ?_Rrotate@?$_Tree_val@U?$_Tree_simple_types@U?$pair@$$CBKPAVCGuildMember@@@std@@@std@@@std@@QAEXPAU?$_Tree_node@U?$pair@$$CBKPAVCGuildMember@@@std@@PAX@2@@Z ; std::_Tree_val<std::_Tree_simple_types<std::pair<unsigned long const ,CGuildMember *> > >::_Rrotate

; 618  :                             _Pnode = _Fixnodeparent->_Right;

  0020a	8b 4e 08	 mov	 ecx, DWORD PTR [esi+8]
$LN33@Extract:

; 619  :                         }
; 620  : 
; 621  :                         _Pnode->_Color         = _Fixnodeparent->_Color;

  0020d	8a 46 0c	 mov	 al, BYTE PTR [esi+12]
  00210	88 41 0c	 mov	 BYTE PTR [ecx+12], al

; 622  :                         _Fixnodeparent->_Color = _Black;

  00213	c6 46 0c 01	 mov	 BYTE PTR [esi+12], 1

; 623  :                         _Pnode->_Right->_Color = _Black;

  00217	8b 41 08	 mov	 eax, DWORD PTR [ecx+8]

; 624  :                         _Lrotate(_Fixnodeparent);

  0021a	8b cb		 mov	 ecx, ebx
  0021c	56		 push	 esi
  0021d	c6 40 0c 01	 mov	 BYTE PTR [eax+12], 1
  00221	e8 00 00 00 00	 call	 ?_Lrotate@?$_Tree_val@U?$_Tree_simple_types@U?$pair@$$CBKPAVCGuildMember@@@std@@@std@@@std@@QAEXPAU?$_Tree_node@U?$pair@$$CBKPAVCGuildMember@@@std@@PAX@2@@Z ; std::_Tree_val<std::_Tree_simple_types<std::pair<unsigned long const ,CGuildMember *> > >::_Lrotate

; 625  :                         break; // tree now recolored/rebalanced

  00226	e9 d3 00 00 00	 jmp	 $LN3@Extract
$LN26@Extract:

; 626  :                     }
; 627  :                 } else { // fixup right subtree
; 628  :                     _Pnode = _Fixnodeparent->_Left;
; 629  :                     if (_Pnode->_Color == _Red) { // rotate red up from left subtree

  0022b	80 79 0c 00	 cmp	 BYTE PTR [ecx+12], 0
  0022f	75 55		 jne	 SHORT $LN96@Extract

; 630  :                         _Pnode->_Color         = _Black;

  00231	c6 41 0c 01	 mov	 BYTE PTR [ecx+12], 1

; 506  :         _Nodeptr _Pnode   = _Wherenode->_Left;

  00235	8b 0e		 mov	 ecx, DWORD PTR [esi]

; 631  :                         _Fixnodeparent->_Color = _Red;

  00237	c6 46 0c 00	 mov	 BYTE PTR [esi+12], 0

; 507  :         _Wherenode->_Left = _Pnode->_Right;

  0023b	8b 41 08	 mov	 eax, DWORD PTR [ecx+8]
  0023e	89 06		 mov	 DWORD PTR [esi], eax

; 508  : 
; 509  :         if (!_Pnode->_Right->_Isnil) {

  00240	8b 41 08	 mov	 eax, DWORD PTR [ecx+8]
  00243	80 78 0d 00	 cmp	 BYTE PTR [eax+13], 0
  00247	75 03		 jne	 SHORT $LN69@Extract

; 510  :             _Pnode->_Right->_Parent = _Wherenode;

  00249	89 70 04	 mov	 DWORD PTR [eax+4], esi
$LN69@Extract:

; 511  :         }
; 512  : 
; 513  :         _Pnode->_Parent = _Wherenode->_Parent;

  0024c	8b 46 04	 mov	 eax, DWORD PTR [esi+4]
  0024f	8d 56 04	 lea	 edx, DWORD PTR [esi+4]
  00252	89 41 04	 mov	 DWORD PTR [ecx+4], eax

; 514  : 
; 515  :         if (_Wherenode == _Myhead->_Parent) {

  00255	8b 03		 mov	 eax, DWORD PTR [ebx]
  00257	3b 70 04	 cmp	 esi, DWORD PTR [eax+4]
  0025a	75 0c		 jne	 SHORT $LN70@Extract

; 516  :             _Myhead->_Parent = _Pnode;

  0025c	89 48 04	 mov	 DWORD PTR [eax+4], ecx

; 521  :         }
; 522  : 
; 523  :         _Pnode->_Right      = _Wherenode;

  0025f	89 71 08	 mov	 DWORD PTR [ecx+8], esi

; 524  :         _Wherenode->_Parent = _Pnode;

  00262	89 0a		 mov	 DWORD PTR [edx], ecx

; 632  :                         _Rrotate(_Fixnodeparent);
; 633  :                         _Pnode = _Fixnodeparent->_Left;

  00264	8b 0e		 mov	 ecx, DWORD PTR [esi]
  00266	eb 21		 jmp	 SHORT $LN86@Extract
$LN70@Extract:

; 517  :         } else if (_Wherenode == _Wherenode->_Parent->_Right) {

  00268	8b 02		 mov	 eax, DWORD PTR [edx]
  0026a	3b 70 08	 cmp	 esi, DWORD PTR [eax+8]
  0026d	75 0c		 jne	 SHORT $LN72@Extract

; 518  :             _Wherenode->_Parent->_Right = _Pnode;

  0026f	89 48 08	 mov	 DWORD PTR [eax+8], ecx

; 521  :         }
; 522  : 
; 523  :         _Pnode->_Right      = _Wherenode;

  00272	89 71 08	 mov	 DWORD PTR [ecx+8], esi

; 524  :         _Wherenode->_Parent = _Pnode;

  00275	89 0a		 mov	 DWORD PTR [edx], ecx

; 632  :                         _Rrotate(_Fixnodeparent);
; 633  :                         _Pnode = _Fixnodeparent->_Left;

  00277	8b 0e		 mov	 ecx, DWORD PTR [esi]
  00279	eb 0e		 jmp	 SHORT $LN86@Extract
$LN72@Extract:

; 520  :             _Wherenode->_Parent->_Left = _Pnode;

  0027b	89 08		 mov	 DWORD PTR [eax], ecx

; 521  :         }
; 522  : 
; 523  :         _Pnode->_Right      = _Wherenode;

  0027d	89 71 08	 mov	 DWORD PTR [ecx+8], esi

; 524  :         _Wherenode->_Parent = _Pnode;

  00280	89 0a		 mov	 DWORD PTR [edx], ecx

; 632  :                         _Rrotate(_Fixnodeparent);
; 633  :                         _Pnode = _Fixnodeparent->_Left;

  00282	8b 0e		 mov	 ecx, DWORD PTR [esi]
  00284	eb 03		 jmp	 SHORT $LN86@Extract
$LN96@Extract:
  00286	8d 56 04	 lea	 edx, DWORD PTR [esi+4]
$LN86@Extract:

; 634  :                     }
; 635  : 
; 636  :                     if (_Pnode->_Isnil) {

  00289	80 79 0d 00	 cmp	 BYTE PTR [ecx+13], 0
  0028d	75 18		 jne	 SHORT $LN2@Extract

; 637  :                         _Fixnode = _Fixnodeparent; // shouldn't happen
; 638  :                     } else if (_Pnode->_Right->_Color == _Black
; 639  :                                && _Pnode->_Left->_Color == _Black) { // redden left subtree with black children

  0028f	8b 59 08	 mov	 ebx, DWORD PTR [ecx+8]
  00292	80 7b 0c 01	 cmp	 BYTE PTR [ebx+12], 1
  00296	75 2c		 jne	 SHORT $LN98@Extract
  00298	8b 01		 mov	 eax, DWORD PTR [ecx]
  0029a	80 78 0c 01	 cmp	 BYTE PTR [eax+12], 1
  0029e	75 24		 jne	 SHORT $LN98@Extract
$LN142@Extract:

; 597  :             for (; _Fixnode != _Myhead->_Parent && _Fixnode->_Color == _Black; _Fixnodeparent = _Fixnode->_Parent) {

  002a0	8b 5d fc	 mov	 ebx, DWORD PTR _this$1$[ebp]
  002a3	c6 41 0c 00	 mov	 BYTE PTR [ecx+12], 0
$LN2@Extract:
  002a7	8b 03		 mov	 eax, DWORD PTR [ebx]
  002a9	8b 4d f4	 mov	 ecx, DWORD PTR tv1093[ebp]
  002ac	8b f9		 mov	 edi, ecx
  002ae	8b 32		 mov	 esi, DWORD PTR [edx]
  002b0	3b 48 04	 cmp	 ecx, DWORD PTR [eax+4]
  002b3	74 49		 je	 SHORT $LN3@Extract
  002b5	80 7f 0c 01	 cmp	 BYTE PTR [edi+12], 1
  002b9	89 75 f4	 mov	 DWORD PTR tv1093[ebp], esi
  002bc	0f 84 a1 fe ff
	ff		 je	 $LL4@Extract
  002c2	eb 3a		 jmp	 SHORT $LN3@Extract
$LN98@Extract:

; 640  :                         _Pnode->_Color = _Red;
; 641  :                         _Fixnode       = _Fixnodeparent;
; 642  :                     } else { // must rearrange left subtree
; 643  :                         if (_Pnode->_Left->_Color == _Black) { // rotate red up from right sub-subtree

  002c4	8b 01		 mov	 eax, DWORD PTR [ecx]
  002c6	80 78 0c 01	 cmp	 BYTE PTR [eax+12], 1
  002ca	75 17		 jne	 SHORT $LN101@Extract

; 644  :                             _Pnode->_Right->_Color = _Black;

  002cc	c6 43 0c 01	 mov	 BYTE PTR [ebx+12], 1

; 645  :                             _Pnode->_Color         = _Red;
; 646  :                             _Lrotate(_Pnode);

  002d0	8b 5d fc	 mov	 ebx, DWORD PTR _this$1$[ebp]
  002d3	c6 41 0c 00	 mov	 BYTE PTR [ecx+12], 0
  002d7	51		 push	 ecx
  002d8	8b cb		 mov	 ecx, ebx
  002da	e8 00 00 00 00	 call	 ?_Lrotate@?$_Tree_val@U?$_Tree_simple_types@U?$pair@$$CBKPAVCGuildMember@@@std@@@std@@@std@@QAEXPAU?$_Tree_node@U?$pair@$$CBKPAVCGuildMember@@@std@@PAX@2@@Z ; std::_Tree_val<std::_Tree_simple_types<std::pair<unsigned long const ,CGuildMember *> > >::_Lrotate

; 647  :                             _Pnode = _Fixnodeparent->_Left;

  002df	8b 0e		 mov	 ecx, DWORD PTR [esi]
  002e1	eb 03		 jmp	 SHORT $LN39@Extract
$LN101@Extract:

; 640  :                         _Pnode->_Color = _Red;
; 641  :                         _Fixnode       = _Fixnodeparent;
; 642  :                     } else { // must rearrange left subtree
; 643  :                         if (_Pnode->_Left->_Color == _Black) { // rotate red up from right sub-subtree

  002e3	8b 5d fc	 mov	 ebx, DWORD PTR _this$1$[ebp]
$LN39@Extract:

; 648  :                         }
; 649  : 
; 650  :                         _Pnode->_Color         = _Fixnodeparent->_Color;

  002e6	8a 46 0c	 mov	 al, BYTE PTR [esi+12]
  002e9	88 41 0c	 mov	 BYTE PTR [ecx+12], al

; 651  :                         _Fixnodeparent->_Color = _Black;

  002ec	c6 46 0c 01	 mov	 BYTE PTR [esi+12], 1

; 652  :                         _Pnode->_Left->_Color  = _Black;

  002f0	8b 01		 mov	 eax, DWORD PTR [ecx]

; 653  :                         _Rrotate(_Fixnodeparent);

  002f2	8b cb		 mov	 ecx, ebx
  002f4	56		 push	 esi
  002f5	c6 40 0c 01	 mov	 BYTE PTR [eax+12], 1
  002f9	e8 00 00 00 00	 call	 ?_Rrotate@?$_Tree_val@U?$_Tree_simple_types@U?$pair@$$CBKPAVCGuildMember@@@std@@@std@@@std@@QAEXPAU?$_Tree_node@U?$pair@$$CBKPAVCGuildMember@@@std@@PAX@2@@Z ; std::_Tree_val<std::_Tree_simple_types<std::pair<unsigned long const ,CGuildMember *> > >::_Rrotate
$LN3@Extract:

; 654  :                         break; // tree now recolored/rebalanced
; 655  :                     }
; 656  :                 }
; 657  :             }
; 658  : 
; 659  :             _Fixnode->_Color = _Black; // stopping node is black

  002fe	8b 45 f8	 mov	 eax, DWORD PTR __Erasednode$1$[ebp]
  00301	c6 47 0c 01	 mov	 BYTE PTR [edi+12], 1
$LN25@Extract:

; 660  :         }
; 661  : 
; 662  :         if (0 < _Mysize) {

  00305	8b 4b 04	 mov	 ecx, DWORD PTR [ebx+4]
  00308	85 c9		 test	 ecx, ecx
  0030a	74 04		 je	 SHORT $LN40@Extract

; 663  :             --_Mysize;

  0030c	49		 dec	 ecx
  0030d	89 4b 04	 mov	 DWORD PTR [ebx+4], ecx
$LN40@Extract:

; 664  :         }
; 665  : 
; 666  :         return _Erasednode;
; 667  :     }

  00310	5f		 pop	 edi
  00311	5e		 pop	 esi
  00312	5b		 pop	 ebx
  00313	8b e5		 mov	 esp, ebp
  00315	5d		 pop	 ebp
  00316	c2 04 00	 ret	 4
?_Extract@?$_Tree_val@U?$_Tree_simple_types@U?$pair@$$CBKPAVCGuildMember@@@std@@@std@@@std@@QAEPAU?$_Tree_node@U?$pair@$$CBKPAVCGuildMember@@@std@@PAX@2@V?$_Tree_unchecked_const_iterator@V?$_Tree_val@U?$_Tree_simple_types@U?$pair@$$CBKPAVCGuildMember@@@std@@@std@@@std@@U_Iterator_base0@2@@2@@Z ENDP ; std::_Tree_val<std::_Tree_simple_types<std::pair<unsigned long const ,CGuildMember *> > >::_Extract
_TEXT	ENDS
; Function compile flags: /Ogtp
; File C:\Program Files\Microsoft Visual Studio\2022\Professional\VC\Tools\MSVC\14.44.35207\include\xtree
;	COMDAT ?_Rrotate@?$_Tree_val@U?$_Tree_simple_types@U?$pair@$$CBKPAVCGuildMember@@@std@@@std@@@std@@QAEXPAU?$_Tree_node@U?$pair@$$CBKPAVCGuildMember@@@std@@PAX@2@@Z
_TEXT	SEGMENT
__Wherenode$ = 8					; size = 4
?_Rrotate@?$_Tree_val@U?$_Tree_simple_types@U?$pair@$$CBKPAVCGuildMember@@@std@@@std@@@std@@QAEXPAU?$_Tree_node@U?$pair@$$CBKPAVCGuildMember@@@std@@PAX@2@@Z PROC ; std::_Tree_val<std::_Tree_simple_types<std::pair<unsigned long const ,CGuildMember *> > >::_Rrotate, COMDAT
; _this$ = ecx

; 505  :     void _Rrotate(_Nodeptr _Wherenode) noexcept { // promote left node to root of subtree

  00000	55		 push	 ebp
  00001	8b ec		 mov	 ebp, esp

; 506  :         _Nodeptr _Pnode   = _Wherenode->_Left;

  00003	8b 55 08	 mov	 edx, DWORD PTR __Wherenode$[ebp]
  00006	56		 push	 esi
  00007	8b 32		 mov	 esi, DWORD PTR [edx]

; 507  :         _Wherenode->_Left = _Pnode->_Right;

  00009	8b 46 08	 mov	 eax, DWORD PTR [esi+8]
  0000c	89 02		 mov	 DWORD PTR [edx], eax

; 508  : 
; 509  :         if (!_Pnode->_Right->_Isnil) {

  0000e	8b 46 08	 mov	 eax, DWORD PTR [esi+8]
  00011	80 78 0d 00	 cmp	 BYTE PTR [eax+13], 0
  00015	75 03		 jne	 SHORT $LN2@Rrotate

; 510  :             _Pnode->_Right->_Parent = _Wherenode;

  00017	89 50 04	 mov	 DWORD PTR [eax+4], edx
$LN2@Rrotate:

; 511  :         }
; 512  : 
; 513  :         _Pnode->_Parent = _Wherenode->_Parent;

  0001a	8b 42 04	 mov	 eax, DWORD PTR [edx+4]
  0001d	89 46 04	 mov	 DWORD PTR [esi+4], eax

; 514  : 
; 515  :         if (_Wherenode == _Myhead->_Parent) {

  00020	8b 01		 mov	 eax, DWORD PTR [ecx]
  00022	3b 50 04	 cmp	 edx, DWORD PTR [eax+4]
  00025	75 0e		 jne	 SHORT $LN3@Rrotate

; 516  :             _Myhead->_Parent = _Pnode;

  00027	89 70 04	 mov	 DWORD PTR [eax+4], esi

; 521  :         }
; 522  : 
; 523  :         _Pnode->_Right      = _Wherenode;
; 524  :         _Wherenode->_Parent = _Pnode;
; 525  :     }

  0002a	89 56 08	 mov	 DWORD PTR [esi+8], edx
  0002d	89 72 04	 mov	 DWORD PTR [edx+4], esi
  00030	5e		 pop	 esi
  00031	5d		 pop	 ebp
  00032	c2 04 00	 ret	 4
$LN3@Rrotate:

; 517  :         } else if (_Wherenode == _Wherenode->_Parent->_Right) {

  00035	8b 42 04	 mov	 eax, DWORD PTR [edx+4]
  00038	3b 50 08	 cmp	 edx, DWORD PTR [eax+8]
  0003b	75 0e		 jne	 SHORT $LN5@Rrotate

; 518  :             _Wherenode->_Parent->_Right = _Pnode;

  0003d	89 70 08	 mov	 DWORD PTR [eax+8], esi

; 521  :         }
; 522  : 
; 523  :         _Pnode->_Right      = _Wherenode;
; 524  :         _Wherenode->_Parent = _Pnode;
; 525  :     }

  00040	89 56 08	 mov	 DWORD PTR [esi+8], edx
  00043	89 72 04	 mov	 DWORD PTR [edx+4], esi
  00046	5e		 pop	 esi
  00047	5d		 pop	 ebp
  00048	c2 04 00	 ret	 4
$LN5@Rrotate:

; 519  :         } else {
; 520  :             _Wherenode->_Parent->_Left = _Pnode;

  0004b	89 30		 mov	 DWORD PTR [eax], esi

; 521  :         }
; 522  : 
; 523  :         _Pnode->_Right      = _Wherenode;
; 524  :         _Wherenode->_Parent = _Pnode;
; 525  :     }

  0004d	89 56 08	 mov	 DWORD PTR [esi+8], edx
  00050	89 72 04	 mov	 DWORD PTR [edx+4], esi
  00053	5e		 pop	 esi
  00054	5d		 pop	 ebp
  00055	c2 04 00	 ret	 4
?_Rrotate@?$_Tree_val@U?$_Tree_simple_types@U?$pair@$$CBKPAVCGuildMember@@@std@@@std@@@std@@QAEXPAU?$_Tree_node@U?$pair@$$CBKPAVCGuildMember@@@std@@PAX@2@@Z ENDP ; std::_Tree_val<std::_Tree_simple_types<std::pair<unsigned long const ,CGuildMember *> > >::_Rrotate
_TEXT	ENDS
; Function compile flags: /Ogtp
; File C:\Program Files\Microsoft Visual Studio\2022\Professional\VC\Tools\MSVC\14.44.35207\include\xtree
;	COMDAT ?_Lrotate@?$_Tree_val@U?$_Tree_simple_types@U?$pair@$$CBKPAVCGuildMember@@@std@@@std@@@std@@QAEXPAU?$_Tree_node@U?$pair@$$CBKPAVCGuildMember@@@std@@PAX@2@@Z
_TEXT	SEGMENT
__Wherenode$ = 8					; size = 4
?_Lrotate@?$_Tree_val@U?$_Tree_simple_types@U?$pair@$$CBKPAVCGuildMember@@@std@@@std@@@std@@QAEXPAU?$_Tree_node@U?$pair@$$CBKPAVCGuildMember@@@std@@PAX@2@@Z PROC ; std::_Tree_val<std::_Tree_simple_types<std::pair<unsigned long const ,CGuildMember *> > >::_Lrotate, COMDAT
; _this$ = ecx

; 483  :     void _Lrotate(_Nodeptr _Wherenode) noexcept { // promote right node to root of subtree

  00000	55		 push	 ebp
  00001	8b ec		 mov	 ebp, esp

; 484  :         _Nodeptr _Pnode    = _Wherenode->_Right;

  00003	8b 55 08	 mov	 edx, DWORD PTR __Wherenode$[ebp]
  00006	56		 push	 esi
  00007	8b 72 08	 mov	 esi, DWORD PTR [edx+8]

; 485  :         _Wherenode->_Right = _Pnode->_Left;

  0000a	8b 06		 mov	 eax, DWORD PTR [esi]
  0000c	89 42 08	 mov	 DWORD PTR [edx+8], eax

; 486  : 
; 487  :         if (!_Pnode->_Left->_Isnil) {

  0000f	8b 06		 mov	 eax, DWORD PTR [esi]
  00011	80 78 0d 00	 cmp	 BYTE PTR [eax+13], 0
  00015	75 03		 jne	 SHORT $LN2@Lrotate

; 488  :             _Pnode->_Left->_Parent = _Wherenode;

  00017	89 50 04	 mov	 DWORD PTR [eax+4], edx
$LN2@Lrotate:

; 489  :         }
; 490  : 
; 491  :         _Pnode->_Parent = _Wherenode->_Parent;

  0001a	8b 42 04	 mov	 eax, DWORD PTR [edx+4]
  0001d	89 46 04	 mov	 DWORD PTR [esi+4], eax

; 492  : 
; 493  :         if (_Wherenode == _Myhead->_Parent) {

  00020	8b 01		 mov	 eax, DWORD PTR [ecx]
  00022	3b 50 04	 cmp	 edx, DWORD PTR [eax+4]
  00025	75 0d		 jne	 SHORT $LN3@Lrotate

; 494  :             _Myhead->_Parent = _Pnode;

  00027	89 70 04	 mov	 DWORD PTR [eax+4], esi

; 499  :         }
; 500  : 
; 501  :         _Pnode->_Left       = _Wherenode;
; 502  :         _Wherenode->_Parent = _Pnode;
; 503  :     }

  0002a	89 16		 mov	 DWORD PTR [esi], edx
  0002c	89 72 04	 mov	 DWORD PTR [edx+4], esi
  0002f	5e		 pop	 esi
  00030	5d		 pop	 ebp
  00031	c2 04 00	 ret	 4
$LN3@Lrotate:

; 495  :         } else if (_Wherenode == _Wherenode->_Parent->_Left) {

  00034	8b 42 04	 mov	 eax, DWORD PTR [edx+4]
  00037	3b 10		 cmp	 edx, DWORD PTR [eax]
  00039	75 0c		 jne	 SHORT $LN5@Lrotate

; 496  :             _Wherenode->_Parent->_Left = _Pnode;

  0003b	89 30		 mov	 DWORD PTR [eax], esi

; 499  :         }
; 500  : 
; 501  :         _Pnode->_Left       = _Wherenode;
; 502  :         _Wherenode->_Parent = _Pnode;
; 503  :     }

  0003d	89 16		 mov	 DWORD PTR [esi], edx
  0003f	89 72 04	 mov	 DWORD PTR [edx+4], esi
  00042	5e		 pop	 esi
  00043	5d		 pop	 ebp
  00044	c2 04 00	 ret	 4
$LN5@Lrotate:

; 497  :         } else {
; 498  :             _Wherenode->_Parent->_Right = _Pnode;

  00047	89 70 08	 mov	 DWORD PTR [eax+8], esi

; 499  :         }
; 500  : 
; 501  :         _Pnode->_Left       = _Wherenode;
; 502  :         _Wherenode->_Parent = _Pnode;
; 503  :     }

  0004a	89 16		 mov	 DWORD PTR [esi], edx
  0004c	89 72 04	 mov	 DWORD PTR [edx+4], esi
  0004f	5e		 pop	 esi
  00050	5d		 pop	 ebp
  00051	c2 04 00	 ret	 4
?_Lrotate@?$_Tree_val@U?$_Tree_simple_types@U?$pair@$$CBKPAVCGuildMember@@@std@@@std@@@std@@QAEXPAU?$_Tree_node@U?$pair@$$CBKPAVCGuildMember@@@std@@PAX@2@@Z ENDP ; std::_Tree_val<std::_Tree_simple_types<std::pair<unsigned long const ,CGuildMember *> > >::_Lrotate
_TEXT	ENDS
; Function compile flags: /Ogtp
; File C:\Program Files\Microsoft Visual Studio\2022\Professional\VC\Tools\MSVC\14.44.35207\include\xtree
; File C:\Program Files\Microsoft Visual Studio\2022\Professional\VC\Tools\MSVC\14.44.35207\include\utility
; File C:\Program Files\Microsoft Visual Studio\2022\Professional\VC\Tools\MSVC\14.44.35207\include\xmemory
; File C:\Program Files\Microsoft Visual Studio\2022\Professional\VC\Tools\MSVC\14.44.35207\include\xtree
;	COMDAT ?clear@?$_Tree@V?$_Tmap_traits@KPAVCGuildMember@@U?$less@K@std@@V?$allocator@U?$pair@$$CBKPAVCGuildMember@@@std@@@3@$0A@@std@@@std@@QAEXXZ
_TEXT	SEGMENT
?clear@?$_Tree@V?$_Tmap_traits@KPAVCGuildMember@@U?$less@K@std@@V?$allocator@U?$pair@$$CBKPAVCGuildMember@@@std@@@3@$0A@@std@@@std@@QAEXXZ PROC ; std::_Tree<std::_Tmap_traits<unsigned long,CGuildMember *,std::less<unsigned long>,std::allocator<std::pair<unsigned long const ,CGuildMember *> >,0> >::clear, COMDAT
; _this$ = ecx

; 1370 :     void clear() noexcept {

  00000	53		 push	 ebx
  00001	8b d9		 mov	 ebx, ecx
  00003	56		 push	 esi
  00004	57		 push	 edi

; 1371 :         const auto _Scary = _Get_scary();
; 1372 :         _Scary->_Orphan_ptr(nullptr);
; 1373 :         auto _Head = _Scary->_Myhead;

  00005	8b 3b		 mov	 edi, DWORD PTR [ebx]

; 1374 :         _Scary->_Erase_tree(_Getal(), _Head->_Parent);

  00007	8b 77 04	 mov	 esi, DWORD PTR [edi+4]

; 768  :         while (!_Rootnode->_Isnil) { // free subtrees, then node

  0000a	80 7e 0d 00	 cmp	 BYTE PTR [esi+13], 0
  0000e	75 20		 jne	 SHORT $LN38@clear
$LL5@clear:

; 769  :             _Erase_tree(_Al, _Rootnode->_Right);

  00010	ff 76 08	 push	 DWORD PTR [esi+8]
  00013	8b cb		 mov	 ecx, ebx
  00015	53		 push	 ebx
  00016	e8 00 00 00 00	 call	 ??$_Erase_tree@V?$allocator@U?$_Tree_node@U?$pair@$$CBKPAVCGuildMember@@@std@@PAX@std@@@std@@@?$_Tree_val@U?$_Tree_simple_types@U?$pair@$$CBKPAVCGuildMember@@@std@@@std@@@std@@QAEXAAV?$allocator@U?$_Tree_node@U?$pair@$$CBKPAVCGuildMember@@@std@@PAX@std@@@1@PAU?$_Tree_node@U?$pair@$$CBKPAVCGuildMember@@@std@@PAX@1@@Z ; std::_Tree_val<std::_Tree_simple_types<std::pair<unsigned long const ,CGuildMember *> > >::_Erase_tree<std::allocator<std::_Tree_node<std::pair<unsigned long const ,CGuildMember *>,void *> > >
; File C:\Program Files\Microsoft Visual Studio\2022\Professional\VC\Tools\MSVC\14.44.35207\include\utility

; 773  :     _Ty _Old_val = static_cast<_Ty&&>(_Val);

  0001b	8b c6		 mov	 eax, esi

; 774  :     _Val         = static_cast<_Other&&>(_New_val);

  0001d	8b 36		 mov	 esi, DWORD PTR [esi]
; File C:\Program Files\Microsoft Visual Studio\2022\Professional\VC\Tools\MSVC\14.44.35207\include\xmemory

; 289  :         ::operator delete(_Ptr, _Bytes);

  0001f	6a 18		 push	 24			; 00000018H
  00021	50		 push	 eax
  00022	e8 00 00 00 00	 call	 ??3@YAXPAXI@Z		; operator delete
  00027	83 c4 08	 add	 esp, 8
; File C:\Program Files\Microsoft Visual Studio\2022\Professional\VC\Tools\MSVC\14.44.35207\include\xtree

; 768  :         while (!_Rootnode->_Isnil) { // free subtrees, then node

  0002a	80 7e 0d 00	 cmp	 BYTE PTR [esi+13], 0
  0002e	74 e0		 je	 SHORT $LL5@clear
$LN38@clear:

; 1375 :         _Head->_Parent  = _Head;

  00030	89 7f 04	 mov	 DWORD PTR [edi+4], edi

; 1376 :         _Head->_Left    = _Head;

  00033	89 3f		 mov	 DWORD PTR [edi], edi

; 1377 :         _Head->_Right   = _Head;

  00035	89 7f 08	 mov	 DWORD PTR [edi+8], edi

; 1378 :         _Scary->_Mysize = 0;

  00038	5f		 pop	 edi
  00039	5e		 pop	 esi
  0003a	c7 43 04 00 00
	00 00		 mov	 DWORD PTR [ebx+4], 0
  00041	5b		 pop	 ebx

; 1379 :     }

  00042	c3		 ret	 0
?clear@?$_Tree@V?$_Tmap_traits@KPAVCGuildMember@@U?$less@K@std@@V?$allocator@U?$pair@$$CBKPAVCGuildMember@@@std@@@3@$0A@@std@@@std@@QAEXXZ ENDP ; std::_Tree<std::_Tmap_traits<unsigned long,CGuildMember *,std::less<unsigned long>,std::allocator<std::pair<unsigned long const ,CGuildMember *> >,0> >::clear
_TEXT	ENDS
; Function compile flags: /Ogtp
; File C:\Program Files\Microsoft Visual Studio\2022\Professional\VC\Tools\MSVC\14.44.35207\include\xtree
; File C:\Program Files\Microsoft Visual Studio\2022\Professional\VC\Tools\MSVC\14.44.35207\include\utility
; File C:\Program Files\Microsoft Visual Studio\2022\Professional\VC\Tools\MSVC\14.44.35207\include\xmemory
; File C:\Program Files\Microsoft Visual Studio\2022\Professional\VC\Tools\MSVC\14.44.35207\include\xtree
; File C:\Program Files\Microsoft Visual Studio\2022\Professional\VC\Tools\MSVC\14.44.35207\include\xmemory
; File C:\Program Files\Microsoft Visual Studio\2022\Professional\VC\Tools\MSVC\14.44.35207\include\xtree
;	COMDAT ??1?$_Tree@V?$_Tmap_traits@KPAVCGuildMember@@U?$less@K@std@@V?$allocator@U?$pair@$$CBKPAVCGuildMember@@@std@@@3@$0A@@std@@@std@@QAE@XZ
_TEXT	SEGMENT
??1?$_Tree@V?$_Tmap_traits@KPAVCGuildMember@@U?$less@K@std@@V?$allocator@U?$pair@$$CBKPAVCGuildMember@@@std@@@3@$0A@@std@@@std@@QAE@XZ PROC ; std::_Tree<std::_Tmap_traits<unsigned long,CGuildMember *,std::less<unsigned long>,std::allocator<std::pair<unsigned long const ,CGuildMember *> >,0> >::~_Tree<std::_Tmap_traits<unsigned long,CGuildMember *,std::less<unsigned long>,std::allocator<std::pair<unsigned long const ,CGuildMember *> >,0> >, COMDAT
; _this$ = ecx

; 1095 :     ~_Tree() noexcept {

  00000	56		 push	 esi
  00001	57		 push	 edi
  00002	8b f9		 mov	 edi, ecx

; 777  :         _Erase_tree(_Al, _Myhead->_Parent);

  00004	8b 37		 mov	 esi, DWORD PTR [edi]
  00006	8b 76 04	 mov	 esi, DWORD PTR [esi+4]

; 768  :         while (!_Rootnode->_Isnil) { // free subtrees, then node

  00009	80 7e 0d 00	 cmp	 BYTE PTR [esi+13], 0
  0000d	75 21		 jne	 SHORT $LN61@Tree
  0000f	90		 npad	 1
$LL8@Tree:

; 769  :             _Erase_tree(_Al, _Rootnode->_Right);

  00010	ff 76 08	 push	 DWORD PTR [esi+8]
  00013	8b cf		 mov	 ecx, edi
  00015	57		 push	 edi
  00016	e8 00 00 00 00	 call	 ??$_Erase_tree@V?$allocator@U?$_Tree_node@U?$pair@$$CBKPAVCGuildMember@@@std@@PAX@std@@@std@@@?$_Tree_val@U?$_Tree_simple_types@U?$pair@$$CBKPAVCGuildMember@@@std@@@std@@@std@@QAEXAAV?$allocator@U?$_Tree_node@U?$pair@$$CBKPAVCGuildMember@@@std@@PAX@std@@@1@PAU?$_Tree_node@U?$pair@$$CBKPAVCGuildMember@@@std@@PAX@1@@Z ; std::_Tree_val<std::_Tree_simple_types<std::pair<unsigned long const ,CGuildMember *> > >::_Erase_tree<std::allocator<std::_Tree_node<std::pair<unsigned long const ,CGuildMember *>,void *> > >
; File C:\Program Files\Microsoft Visual Studio\2022\Professional\VC\Tools\MSVC\14.44.35207\include\utility

; 773  :     _Ty _Old_val = static_cast<_Ty&&>(_Val);

  0001b	8b c6		 mov	 eax, esi

; 774  :     _Val         = static_cast<_Other&&>(_New_val);

  0001d	8b 36		 mov	 esi, DWORD PTR [esi]
; File C:\Program Files\Microsoft Visual Studio\2022\Professional\VC\Tools\MSVC\14.44.35207\include\xmemory

; 289  :         ::operator delete(_Ptr, _Bytes);

  0001f	6a 18		 push	 24			; 00000018H
  00021	50		 push	 eax
  00022	e8 00 00 00 00	 call	 ??3@YAXPAXI@Z		; operator delete
  00027	83 c4 08	 add	 esp, 8
; File C:\Program Files\Microsoft Visual Studio\2022\Professional\VC\Tools\MSVC\14.44.35207\include\xtree

; 768  :         while (!_Rootnode->_Isnil) { // free subtrees, then node

  0002a	80 7e 0d 00	 cmp	 BYTE PTR [esi+13], 0
  0002e	74 e0		 je	 SHORT $LL8@Tree
$LN61@Tree:
; File C:\Program Files\Microsoft Visual Studio\2022\Professional\VC\Tools\MSVC\14.44.35207\include\xmemory

; 289  :         ::operator delete(_Ptr, _Bytes);

  00030	6a 18		 push	 24			; 00000018H
  00032	ff 37		 push	 DWORD PTR [edi]
  00034	e8 00 00 00 00	 call	 ??3@YAXPAXI@Z		; operator delete
  00039	83 c4 08	 add	 esp, 8
  0003c	5f		 pop	 edi
  0003d	5e		 pop	 esi
; File C:\Program Files\Microsoft Visual Studio\2022\Professional\VC\Tools\MSVC\14.44.35207\include\xtree

; 1102 :     }

  0003e	c3		 ret	 0
??1?$_Tree@V?$_Tmap_traits@KPAVCGuildMember@@U?$less@K@std@@V?$allocator@U?$pair@$$CBKPAVCGuildMember@@@std@@@3@$0A@@std@@@std@@QAE@XZ ENDP ; std::_Tree<std::_Tmap_traits<unsigned long,CGuildMember *,std::less<unsigned long>,std::allocator<std::pair<unsigned long const ,CGuildMember *> >,0> >::~_Tree<std::_Tmap_traits<unsigned long,CGuildMember *,std::less<unsigned long>,std::allocator<std::pair<unsigned long const ,CGuildMember *> >,0> >
_TEXT	ENDS
; Function compile flags: /Ogtp
;	COMDAT ??_GCGuildMember@@UAEPAXI@Z
_TEXT	SEGMENT
___flags$ = 8						; size = 4
??_GCGuildMember@@UAEPAXI@Z PROC			; CGuildMember::`scalar deleting destructor', COMDAT
; _this$ = ecx
  00000	55		 push	 ebp
  00001	8b ec		 mov	 ebp, esp
  00003	56		 push	 esi
  00004	8b f1		 mov	 esi, ecx
  00006	e8 00 00 00 00	 call	 ??1CGuildMember@@UAE@XZ	; CGuildMember::~CGuildMember
  0000b	f6 45 08 01	 test	 BYTE PTR ___flags$[ebp], 1
  0000f	74 0b		 je	 SHORT $LN5@scalar
  00011	6a 58		 push	 88			; 00000058H
  00013	56		 push	 esi
  00014	e8 00 00 00 00	 call	 ??3@YAXPAXI@Z		; operator delete
  00019	83 c4 08	 add	 esp, 8
$LN5@scalar:
  0001c	8b c6		 mov	 eax, esi
  0001e	5e		 pop	 esi
  0001f	5d		 pop	 ebp
  00020	c2 04 00	 ret	 4
??_GCGuildMember@@UAEPAXI@Z ENDP			; CGuildMember::`scalar deleting destructor'
_TEXT	ENDS
; Function compile flags: /Ogtp
; File C:\IAGOS\server\v18\Source\Source\_common\guild.cpp
;	COMDAT ??4CGuildMember@@QAEAAV0@AAV0@@Z
_TEXT	SEGMENT
_source$ = 8						; size = 4
??4CGuildMember@@QAEAAV0@AAV0@@Z PROC			; CGuildMember::operator=, COMDAT
; _this$ = ecx

; 295  : {

  00000	55		 push	 ebp
  00001	8b ec		 mov	 ebp, esp

; 296  : //	m_nGiveGold	= source.m_nGiveGold;
; 297  : //	m_dwGivePxpCount	= source.m_dwGivePxpCount;
; 298  : //	m_dwSex	= source.m_dwSex;
; 299  : 	m_idPlayer	= source.m_idPlayer;

  00003	8b 55 08	 mov	 edx, DWORD PTR _source$[ebp]
  00006	8b 42 04	 mov	 eax, DWORD PTR [edx+4]
  00009	89 41 04	 mov	 DWORD PTR [ecx+4], eax

; 300  : //	m_idSelectedVote	= source.m_idSelectedVote;
; 301  : //	m_nJob	= source.m_nJob;
; 302  : //	m_nLevel	= source.m_nLevel;
; 303  : //	m_nLogin	= source.m_nLogin;
; 304  : //	m_nLose	= source.m_nLose;
; 305  : 	m_nMemberLv	= source.m_nMemberLv;

  0000c	8a 42 48	 mov	 al, BYTE PTR [edx+72]
  0000f	88 41 48	 mov	 BYTE PTR [ecx+72], al

; 306  : //	m_nMultiNo	= source.m_nMultiNo;
; 307  : //	m_nPay	= source.m_nPay;
; 308  : //	m_nSurrender	= source.m_nSurrender;
; 309  : //	m_nWin	= source.m_nWin;
; 310  : //	lstrcpy( m_szAlias, source.m_szAlias );
; 311  : 	return *this;

  00012	8b c1		 mov	 eax, ecx

; 312  : }

  00014	5d		 pop	 ebp
  00015	c2 04 00	 ret	 4
??4CGuildMember@@QAEAAV0@AAV0@@Z ENDP			; CGuildMember::operator=
_TEXT	ENDS
; Function compile flags: /Ogtp
; File C:\IAGOS\server\v18\Source\Source\_common\guild.cpp
; File C:\IAGOS\server\v18\Source\Source\_Network\Misc\Include\ar.h
; File C:\IAGOS\server\v18\Source\Source\_common\guild.cpp
; File C:\IAGOS\server\v18\Source\Source\_Network\Misc\Include\ar.h
; File C:\IAGOS\server\v18\Source\Source\_common\guild.cpp
; File C:\IAGOS\server\v18\Source\Source\_Network\Misc\Include\ar.h
; File C:\IAGOS\server\v18\Source\Source\_common\guild.cpp
; File C:\IAGOS\server\v18\Source\Source\_Network\Misc\Include\ar.h
; File C:\IAGOS\server\v18\Source\Source\_common\guild.cpp
;	COMDAT ?Serialize@CGuildMember@@QAEXAAVCAr@@@Z
_TEXT	SEGMENT
tv271 = -28						; size = 4
tv272 = -24						; size = 4
tv273 = -20						; size = 4
tv265 = -16						; size = 4
tv267 = -12						; size = 4
tv268 = -8						; size = 4
tv269 = -4						; size = 4
_ar$ = 8						; size = 4
?Serialize@CGuildMember@@QAEXAAVCAr@@@Z PROC		; CGuildMember::Serialize, COMDAT
; _this$ = ecx

; 267  : {

  00000	55		 push	 ebp
  00001	8b ec		 mov	 ebp, esp
  00003	83 ec 1c	 sub	 esp, 28			; 0000001cH
  00006	53		 push	 ebx
  00007	56		 push	 esi
; File C:\IAGOS\server\v18\Source\Source\_Network\Misc\Include\ar.h

; 146  : 	return (m_nMode & CAr::load) == 0;

  00008	8d 71 0c	 lea	 esi, DWORD PTR [ecx+12]
  0000b	89 75 ec	 mov	 DWORD PTR tv273[ebp], esi
  0000e	8d 41 48	 lea	 eax, DWORD PTR [ecx+72]
  00011	8d 71 08	 lea	 esi, DWORD PTR [ecx+8]
  00014	89 75 e8	 mov	 DWORD PTR tv272[ebp], esi
  00017	8d 51 16	 lea	 edx, DWORD PTR [ecx+22]
  0001a	8d 71 04	 lea	 esi, DWORD PTR [ecx+4]
  0001d	89 75 e4	 mov	 DWORD PTR tv271[ebp], esi
  00020	8d 59 10	 lea	 ebx, DWORD PTR [ecx+16]
  00023	8d 71 4c	 lea	 esi, DWORD PTR [ecx+76]
  00026	89 75 fc	 mov	 DWORD PTR tv269[ebp], esi
  00029	8d 71 50	 lea	 esi, DWORD PTR [ecx+80]
  0002c	89 75 f8	 mov	 DWORD PTR tv268[ebp], esi
  0002f	8d 71 54	 lea	 esi, DWORD PTR [ecx+84]
; File C:\IAGOS\server\v18\Source\Source\_common\guild.cpp

; 267  : {

  00032	57		 push	 edi
; File C:\IAGOS\server\v18\Source\Source\_Network\Misc\Include\ar.h

; 146  : 	return (m_nMode & CAr::load) == 0;

  00033	89 75 f4	 mov	 DWORD PTR tv267[ebp], esi
  00036	8d 79 14	 lea	 edi, DWORD PTR [ecx+20]
  00039	8d 71 18	 lea	 esi, DWORD PTR [ecx+24]
; File C:\IAGOS\server\v18\Source\Source\_common\guild.cpp

; 268  : 	if( ar.IsStoring() )

  0003c	50		 push	 eax
; File C:\IAGOS\server\v18\Source\Source\_Network\Misc\Include\ar.h

; 146  : 	return (m_nMode & CAr::load) == 0;

  0003d	89 75 f0	 mov	 DWORD PTR tv265[ebp], esi
  00040	8b 75 08	 mov	 esi, DWORD PTR _ar$[ebp]
; File C:\IAGOS\server\v18\Source\Source\_common\guild.cpp

; 268  : 	if( ar.IsStoring() )

  00043	52		 push	 edx
  00044	57		 push	 edi
  00045	53		 push	 ebx
; File C:\IAGOS\server\v18\Source\Source\_Network\Misc\Include\ar.h

; 146  : 	return (m_nMode & CAr::load) == 0;

  00046	f6 06 01	 test	 BYTE PTR [esi], 1
; File C:\IAGOS\server\v18\Source\Source\_common\guild.cpp

; 268  : 	if( ar.IsStoring() )

  00049	75 6e		 jne	 SHORT $LN2@Serialize

; 269  : 	{
; 270  : 		ar << m_idPlayer << m_nPay << m_nGiveGold << m_dwGivePxpCount << m_nWin << m_nLose << m_nMemberLv;

  0004b	8d 41 0c	 lea	 eax, DWORD PTR [ecx+12]
  0004e	50		 push	 eax
  0004f	8d 41 08	 lea	 eax, DWORD PTR [ecx+8]
  00052	50		 push	 eax
  00053	8d 41 04	 lea	 eax, DWORD PTR [ecx+4]
  00056	8b ce		 mov	 ecx, esi
  00058	50		 push	 eax
  00059	e8 00 00 00 00	 call	 ??$?6K@CAr@@QAEAAV0@ABK@Z ; CAr::operator<<<unsigned long>
  0005e	8b c8		 mov	 ecx, eax
  00060	e8 00 00 00 00	 call	 ??$?6H@CAr@@QAEAAV0@ABH@Z ; CAr::operator<<<int>
  00065	8b c8		 mov	 ecx, eax
  00067	e8 00 00 00 00	 call	 ??$?6H@CAr@@QAEAAV0@ABH@Z ; CAr::operator<<<int>
  0006c	8b c8		 mov	 ecx, eax
  0006e	e8 00 00 00 00	 call	 ??$?6K@CAr@@QAEAAV0@ABK@Z ; CAr::operator<<<unsigned long>
  00073	8b c8		 mov	 ecx, eax
  00075	e8 00 00 00 00	 call	 ??$?6F@CAr@@QAEAAV0@ABF@Z ; CAr::operator<<<short>
  0007a	8b c8		 mov	 ecx, eax
  0007c	e8 00 00 00 00	 call	 ??$?6F@CAr@@QAEAAV0@ABF@Z ; CAr::operator<<<short>
  00081	8b c8		 mov	 ecx, eax
  00083	e8 00 00 00 00	 call	 ??$?6E@CAr@@QAEAAV0@ABE@Z ; CAr::operator<<<unsigned char>

; 271  : #if __VER < 11 // __SYS_PLAYER_DATA
; 272  : 		ar << m_dwSex << m_nJob << m_nLevel;
; 273  : 		ar << m_nLogin << m_nMultiNo;
; 274  : #endif	// __SYS_PLAYER_DATA
; 275  : 		ar << m_idSelectedVote;

  00088	ff 75 fc	 push	 DWORD PTR tv269[ebp]
  0008b	8b ce		 mov	 ecx, esi
  0008d	e8 00 00 00 00	 call	 ??$?6K@CAr@@QAEAAV0@ABK@Z ; CAr::operator<<<unsigned long>

; 276  : 		ar << m_nSurrender;

  00092	ff 75 f8	 push	 DWORD PTR tv268[ebp]
  00095	8b ce		 mov	 ecx, esi
  00097	e8 00 00 00 00	 call	 ??$?6H@CAr@@QAEAAV0@ABH@Z ; CAr::operator<<<int>

; 277  : 		ar << m_nClass;

  0009c	ff 75 f4	 push	 DWORD PTR tv267[ebp]
  0009f	8b ce		 mov	 ecx, esi
  000a1	e8 00 00 00 00	 call	 ??$?6H@CAr@@QAEAAV0@ABH@Z ; CAr::operator<<<int>

; 278  : 		ar.WriteString( m_szAlias );

  000a6	ff 75 f0	 push	 DWORD PTR tv265[ebp]
  000a9	8b ce		 mov	 ecx, esi
  000ab	e8 00 00 00 00	 call	 ?WriteString@CAr@@QAEXPBD@Z ; CAr::WriteString
  000b0	5f		 pop	 edi

; 291  : 	}
; 292  : }

  000b1	5e		 pop	 esi
  000b2	5b		 pop	 ebx
  000b3	8b e5		 mov	 esp, ebp
  000b5	5d		 pop	 ebp
  000b6	c2 04 00	 ret	 4
$LN2@Serialize:

; 279  : 	}
; 280  : 	else
; 281  : 	{
; 282  : 		ar >> m_idPlayer >> m_nPay >> m_nGiveGold >> m_dwGivePxpCount >> m_nWin >> m_nLose >> m_nMemberLv;

  000b9	8b 45 ec	 mov	 eax, DWORD PTR tv273[ebp]
  000bc	8b ce		 mov	 ecx, esi
  000be	50		 push	 eax
  000bf	8b 45 e8	 mov	 eax, DWORD PTR tv272[ebp]
  000c2	50		 push	 eax
  000c3	8b 45 e4	 mov	 eax, DWORD PTR tv271[ebp]
  000c6	50		 push	 eax
  000c7	e8 00 00 00 00	 call	 ??$?5K@CAr@@QAEAAV0@AAK@Z ; CAr::operator>><unsigned long>
  000cc	8b c8		 mov	 ecx, eax
  000ce	e8 00 00 00 00	 call	 ??$?5H@CAr@@QAEAAV0@AAH@Z ; CAr::operator>><int>
  000d3	8b c8		 mov	 ecx, eax
  000d5	e8 00 00 00 00	 call	 ??$?5H@CAr@@QAEAAV0@AAH@Z ; CAr::operator>><int>
  000da	8b c8		 mov	 ecx, eax
  000dc	e8 00 00 00 00	 call	 ??$?5K@CAr@@QAEAAV0@AAK@Z ; CAr::operator>><unsigned long>
  000e1	8b c8		 mov	 ecx, eax
  000e3	e8 00 00 00 00	 call	 ??$?5F@CAr@@QAEAAV0@AAF@Z ; CAr::operator>><short>
  000e8	8b c8		 mov	 ecx, eax
  000ea	e8 00 00 00 00	 call	 ??$?5F@CAr@@QAEAAV0@AAF@Z ; CAr::operator>><short>
  000ef	8b c8		 mov	 ecx, eax
  000f1	e8 00 00 00 00	 call	 ??$?5E@CAr@@QAEAAV0@AAE@Z ; CAr::operator>><unsigned char>

; 283  : #if __VER < 11 // __SYS_PLAYER_DATA
; 284  : 		ar >> m_dwSex >> m_nJob >> m_nLevel;
; 285  : 		ar >> m_nLogin >> m_nMultiNo;
; 286  : #endif	// __SYS_PLAYER_DATA
; 287  : 		ar >> m_idSelectedVote;

  000f6	ff 75 fc	 push	 DWORD PTR tv269[ebp]
  000f9	8b ce		 mov	 ecx, esi
  000fb	e8 00 00 00 00	 call	 ??$?5K@CAr@@QAEAAV0@AAK@Z ; CAr::operator>><unsigned long>

; 288  : 		ar >> m_nSurrender;

  00100	ff 75 f8	 push	 DWORD PTR tv268[ebp]
  00103	8b ce		 mov	 ecx, esi
  00105	e8 00 00 00 00	 call	 ??$?5H@CAr@@QAEAAV0@AAH@Z ; CAr::operator>><int>

; 289  : 		ar >> m_nClass;

  0010a	ff 75 f4	 push	 DWORD PTR tv267[ebp]
  0010d	8b ce		 mov	 ecx, esi
  0010f	e8 00 00 00 00	 call	 ??$?5H@CAr@@QAEAAV0@AAH@Z ; CAr::operator>><int>

; 290  : 		ar.ReadString( m_szAlias, MAX_GM_ALIAS );

  00114	6a 30		 push	 48			; 00000030H
  00116	ff 75 f0	 push	 DWORD PTR tv265[ebp]
  00119	8b ce		 mov	 ecx, esi
  0011b	e8 00 00 00 00	 call	 ?ReadString@CAr@@QAEPADPADH@Z ; CAr::ReadString
  00120	5f		 pop	 edi

; 291  : 	}
; 292  : }

  00121	5e		 pop	 esi
  00122	5b		 pop	 ebx
  00123	8b e5		 mov	 esp, ebp
  00125	5d		 pop	 ebp
  00126	c2 04 00	 ret	 4
?Serialize@CGuildMember@@QAEXAAVCAr@@@Z ENDP		; CGuildMember::Serialize
_TEXT	ENDS
; Function compile flags: /Ogtp
; File C:\IAGOS\server\v18\Source\Source\_common\guild.cpp
;	COMDAT ??1CGuildMember@@UAE@XZ
_TEXT	SEGMENT
??1CGuildMember@@UAE@XZ PROC				; CGuildMember::~CGuildMember, COMDAT
; _this$ = ecx

; 262  : {

  00000	c7 01 00 00 00
	00		 mov	 DWORD PTR [ecx], OFFSET ??_7CGuildMember@@6B@

; 263  : 
; 264  : }

  00006	c3		 ret	 0
??1CGuildMember@@UAE@XZ ENDP				; CGuildMember::~CGuildMember
_TEXT	ENDS
; Function compile flags: /Ogtp
; File C:\IAGOS\server\v18\Source\Source\_common\guild.cpp
;	COMDAT ??0CGuildMember@@QAE@XZ
_TEXT	SEGMENT
??0CGuildMember@@QAE@XZ PROC				; CGuildMember::CGuildMember, COMDAT
; _this$ = ecx

; 241  : 	m_idPlayer		= 0;
; 242  : 	m_nPay			= 0;
; 243  : 	m_nGiveGold		= 0;
; 244  : 	m_dwGivePxpCount= 0;
; 245  : 	m_nWin			= 0;

  00000	33 c0		 xor	 eax, eax
  00002	c7 01 00 00 00
	00		 mov	 DWORD PTR [ecx], OFFSET ??_7CGuildMember@@6B@
  00008	89 41 14	 mov	 DWORD PTR [ecx+20], eax

; 246  : 	m_nLose			= 0;
; 247  : 	*m_szAlias		= '\0';

  0000b	88 41 18	 mov	 BYTE PTR [ecx+24], al

; 248  : 	m_nMemberLv		= 0;

  0000e	88 41 48	 mov	 BYTE PTR [ecx+72], al

; 249  : #if __VER < 11 // __SYS_PLAYER_DATA
; 250  : 	m_dwSex			= 0;
; 251  : 	m_nJob			= 0;
; 252  : 	m_nLevel		= 0;
; 253  : 	m_nLogin		= 0;
; 254  : 	m_nMultiNo		= 100;
; 255  : #endif	// __SYS_PLAYER_DATA
; 256  : 	m_idSelectedVote = 0; 

  00011	89 41 4c	 mov	 DWORD PTR [ecx+76], eax

; 257  : 	m_nSurrender	= 0;

  00014	89 41 50	 mov	 DWORD PTR [ecx+80], eax

; 258  : 	m_nClass = 0;

  00017	89 41 54	 mov	 DWORD PTR [ecx+84], eax

; 259  : }

  0001a	8b c1		 mov	 eax, ecx
  0001c	c7 41 04 00 00
	00 00		 mov	 DWORD PTR [ecx+4], 0
  00023	c7 41 08 00 00
	00 00		 mov	 DWORD PTR [ecx+8], 0
  0002a	c7 41 0c 00 00
	00 00		 mov	 DWORD PTR [ecx+12], 0
  00031	c7 41 10 00 00
	00 00		 mov	 DWORD PTR [ecx+16], 0
  00038	c3		 ret	 0
??0CGuildMember@@QAE@XZ ENDP				; CGuildMember::CGuildMember
_TEXT	ENDS
; Function compile flags: /Ogtp
;	COMDAT ??_GCGuildTable@@UAEPAXI@Z
_TEXT	SEGMENT
___flags$ = 8						; size = 4
??_GCGuildTable@@UAEPAXI@Z PROC				; CGuildTable::`scalar deleting destructor', COMDAT
; _this$ = ecx
  00000	55		 push	 ebp
  00001	8b ec		 mov	 ebp, esp
  00003	56		 push	 esi
  00004	8b f1		 mov	 esi, ecx
  00006	e8 00 00 00 00	 call	 ??1CGuildTable@@UAE@XZ	; CGuildTable::~CGuildTable
  0000b	f6 45 08 01	 test	 BYTE PTR ___flags$[ebp], 1
  0000f	74 0e		 je	 SHORT $LN5@scalar
  00011	68 60 02 00 00	 push	 608			; 00000260H
  00016	56		 push	 esi
  00017	e8 00 00 00 00	 call	 ??3@YAXPAXI@Z		; operator delete
  0001c	83 c4 08	 add	 esp, 8
$LN5@scalar:
  0001f	8b c6		 mov	 eax, esi
  00021	5e		 pop	 esi
  00022	5d		 pop	 ebp
  00023	c2 04 00	 ret	 4
??_GCGuildTable@@UAEPAXI@Z ENDP				; CGuildTable::`scalar deleting destructor'
_TEXT	ENDS
; Function compile flags: /Ogtp
; File C:\IAGOS\server\v18\Source\Source\_common\guild.cpp
;	COMDAT ??0CGuildTable@@AAE@XZ
_TEXT	SEGMENT
??0CGuildTable@@AAE@XZ PROC				; CGuildTable::CGuildTable, COMDAT
; _this$ = ecx

; 153  : {

  00000	c7 01 00 00 00
	00		 mov	 DWORD PTR [ecx], OFFSET ??_7CGuildTable@@6B@

; 154  : 	m_nCount = 0;
; 155  : }

  00006	8b c1		 mov	 eax, ecx
  00008	c7 81 5c 02 00
	00 00 00 00 00	 mov	 DWORD PTR [ecx+604], 0
  00012	c3		 ret	 0
??0CGuildTable@@AAE@XZ ENDP				; CGuildTable::CGuildTable
_TEXT	ENDS
; Function compile flags: /Ogtp
; File C:\IAGOS\server\v18\Source\Source\_common\guild.cpp
;	COMDAT ?GetInstance@CGuildTable@@SAAAV1@XZ
_TEXT	SEGMENT
?GetInstance@CGuildTable@@SAAAV1@XZ PROC		; CGuildTable::GetInstance, COMDAT

; 148  : 	static CGuildTable table;

  00000	64 a1 00 00 00
	00		 mov	 eax, DWORD PTR fs:__tls_array
  00006	8b 0d 00 00 00
	00		 mov	 ecx, DWORD PTR __tls_index
  0000c	8b 0c 88	 mov	 ecx, DWORD PTR [eax+ecx*4]
  0000f	a1 00 00 00 00	 mov	 eax, DWORD PTR ?$TSS0@?1??GetInstance@CGuildTable@@SAAAV2@XZ@4HA
  00014	3b 81 00 00 00
	00		 cmp	 eax, DWORD PTR __Init_thread_epoch[ecx]
  0001a	7f 06		 jg	 SHORT $LN8@GetInstanc
$LN5@GetInstanc:

; 149  : 	return table;
; 150  : }

  0001c	b8 00 00 00 00	 mov	 eax, OFFSET ?table@?1??GetInstance@CGuildTable@@SAAAV2@XZ@4V2@A
  00021	c3		 ret	 0
$LN8@GetInstanc:

; 148  : 	static CGuildTable table;

  00022	68 00 00 00 00	 push	 OFFSET ?$TSS0@?1??GetInstance@CGuildTable@@SAAAV2@XZ@4HA
  00027	e8 00 00 00 00	 call	 __Init_thread_header
  0002c	83 c4 04	 add	 esp, 4
  0002f	83 3d 00 00 00
	00 ff		 cmp	 DWORD PTR ?$TSS0@?1??GetInstance@CGuildTable@@SAAAV2@XZ@4HA, -1
  00036	75 e4		 jne	 SHORT $LN5@GetInstanc
  00038	b9 00 00 00 00	 mov	 ecx, OFFSET ?table@?1??GetInstance@CGuildTable@@SAAAV2@XZ@4V2@A
  0003d	e8 00 00 00 00	 call	 ??0CGuildTable@@AAE@XZ	; CGuildTable::CGuildTable
  00042	68 00 00 00 00	 push	 OFFSET ??__Ftable@?1??GetInstance@CGuildTable@@SAAAV1@XZ@YAXXZ ; `CGuildTable::GetInstance'::`2'::`dynamic atexit destructor for 'table''
  00047	e8 00 00 00 00	 call	 _atexit
  0004c	68 00 00 00 00	 push	 OFFSET ?$TSS0@?1??GetInstance@CGuildTable@@SAAAV2@XZ@4HA
  00051	e8 00 00 00 00	 call	 __Init_thread_footer
  00056	83 c4 08	 add	 esp, 8
  00059	eb c1		 jmp	 SHORT $LN5@GetInstanc
?GetInstance@CGuildTable@@SAAAV1@XZ ENDP		; CGuildTable::GetInstance
_TEXT	ENDS
; Function compile flags: /Ogtp
; File C:\IAGOS\server\v18\Source\Source\_common\guild.cpp
;	COMDAT ?ReadBlock@CGuildTable@@QAEHAAVCScript@@@Z
_TEXT	SEGMENT
_this$1$ = -4						; size = 4
_script$ = 8						; size = 4
?ReadBlock@CGuildTable@@QAEHAAVCScript@@@Z PROC		; CGuildTable::ReadBlock, COMDAT
; _this$ = ecx

; 188  : {

  00000	55		 push	 ebp
  00001	8b ec		 mov	 ebp, esp
  00003	51		 push	 ecx
  00004	53		 push	 ebx
  00005	56		 push	 esi

; 189  : 	script.GetToken(); // { 

  00006	8b 75 08	 mov	 esi, DWORD PTR _script$[ebp]
  00009	57		 push	 edi
  0000a	8b f9		 mov	 edi, ecx
  0000c	8b ce		 mov	 ecx, esi
  0000e	6a 00		 push	 0
  00010	8b 06		 mov	 eax, DWORD PTR [esi]
  00012	89 7d fc	 mov	 DWORD PTR _this$1$[ebp], edi
  00015	ff 50 14	 call	 DWORD PTR [eax+20]

; 190  : 	DWORD dwVal = script.GetNumber();

  00018	6a 00		 push	 0
  0001a	8b ce		 mov	 ecx, esi
  0001c	e8 00 00 00 00	 call	 ?GetNumber@CScanner@@QAEHH@Z ; CScanner::GetNumber

; 191  : 
; 192  : 	int i = NULL;
; 193  : 	for( ; *script.token != '}' ; ++i )

  00021	8b 4e 3c	 mov	 ecx, DWORD PTR [esi+60]
  00024	33 db		 xor	 ebx, ebx
  00026	8b d0		 mov	 edx, eax
  00028	80 39 7d	 cmp	 BYTE PTR [ecx], 125	; 0000007dH
  0002b	74 4c		 je	 SHORT $LN10@ReadBlock

; 189  : 	script.GetToken(); // { 

  0002d	83 c7 08	 add	 edi, 8
$LL4@ReadBlock:

; 194  : 	{
; 195  : 		m_table[ i ].dwPxpCount = dwVal;
; 196  : 		m_table[ i ].dwPenya    = script.GetNumber();

  00030	6a 00		 push	 0
  00032	8b ce		 mov	 ecx, esi
  00034	89 57 fc	 mov	 DWORD PTR [edi-4], edx
  00037	e8 00 00 00 00	 call	 ?GetNumber@CScanner@@QAEHH@Z ; CScanner::GetNumber

; 197  : 		m_table[ i ].nMaxMember = script.GetNumber();

  0003c	6a 00		 push	 0
  0003e	8b ce		 mov	 ecx, esi
  00040	89 07		 mov	 DWORD PTR [edi], eax
  00042	e8 00 00 00 00	 call	 ?GetNumber@CScanner@@QAEHH@Z ; CScanner::GetNumber

; 198  : 
; 199  : 		dwVal = script.GetNumber();

  00047	6a 00		 push	 0
  00049	8b ce		 mov	 ecx, esi
  0004b	66 89 47 04	 mov	 WORD PTR [edi+4], ax
  0004f	e8 00 00 00 00	 call	 ?GetNumber@CScanner@@QAEHH@Z ; CScanner::GetNumber
  00054	8b d0		 mov	 edx, eax
  00056	8d 7f 0c	 lea	 edi, DWORD PTR [edi+12]
  00059	8b 46 3c	 mov	 eax, DWORD PTR [esi+60]
  0005c	43		 inc	 ebx
  0005d	80 38 7d	 cmp	 BYTE PTR [eax], 125	; 0000007dH
  00060	75 ce		 jne	 SHORT $LL4@ReadBlock

; 200  : 	}
; 201  : 
; 202  : 	ASSERT( i <= MAX_GUILD_LEVEL );
; 203  : 	m_nCount = i;

  00062	8b 45 fc	 mov	 eax, DWORD PTR _this$1$[ebp]
  00065	5f		 pop	 edi

; 204  : 	return TRUE;
; 205  : }

  00066	5e		 pop	 esi
  00067	89 98 5c 02 00
	00		 mov	 DWORD PTR [eax+604], ebx
  0006d	b8 01 00 00 00	 mov	 eax, 1
  00072	5b		 pop	 ebx
  00073	8b e5		 mov	 esp, ebp
  00075	5d		 pop	 ebp
  00076	c2 04 00	 ret	 4
$LN10@ReadBlock:

; 200  : 	}
; 201  : 
; 202  : 	ASSERT( i <= MAX_GUILD_LEVEL );
; 203  : 	m_nCount = i;

  00079	89 9f 5c 02 00
	00		 mov	 DWORD PTR [edi+604], ebx

; 204  : 	return TRUE;
; 205  : }

  0007f	b8 01 00 00 00	 mov	 eax, 1
  00084	5f		 pop	 edi
  00085	5e		 pop	 esi
  00086	5b		 pop	 ebx
  00087	8b e5		 mov	 esp, ebp
  00089	5d		 pop	 ebp
  0008a	c2 04 00	 ret	 4
?ReadBlock@CGuildTable@@QAEHAAVCScript@@@Z ENDP		; CGuildTable::ReadBlock
_TEXT	ENDS
; Function compile flags: /Ogtp
; File C:\IAGOS\server\v18\Source\Source\_common\guild.cpp
; File C:\IAGOS\server\v18\Source\Source\_Network\Misc\Include\ar.h
; File C:\IAGOS\server\v18\Source\Source\_common\guild.cpp
; File C:\IAGOS\server\v18\Source\Source\_Network\Misc\Include\ar.h
; File C:\IAGOS\server\v18\Source\Source\_common\guild.cpp
;	COMDAT ?Serialize@CGuildTable@@QAEXAAVCAr@@@Z
_TEXT	SEGMENT
_ar$ = 8						; size = 4
_i$1$ = 8						; size = 4
_i$1$ = 8						; size = 4
?Serialize@CGuildTable@@QAEXAAVCAr@@@Z PROC		; CGuildTable::Serialize, COMDAT
; _this$ = ecx

; 163  : {

  00000	55		 push	 ebp
  00001	8b ec		 mov	 ebp, esp
  00003	53		 push	 ebx
  00004	56		 push	 esi
; File C:\IAGOS\server\v18\Source\Source\_Network\Misc\Include\ar.h

; 146  : 	return (m_nMode & CAr::load) == 0;

  00005	8b 75 08	 mov	 esi, DWORD PTR _ar$[ebp]
; File C:\IAGOS\server\v18\Source\Source\_common\guild.cpp

; 163  : {

  00008	57		 push	 edi
  00009	8b f9		 mov	 edi, ecx

; 164  : 	if( ar.IsStoring() )

  0000b	8b ce		 mov	 ecx, esi
; File C:\IAGOS\server\v18\Source\Source\_Network\Misc\Include\ar.h

; 146  : 	return (m_nMode & CAr::load) == 0;

  0000d	f6 06 01	 test	 BYTE PTR [esi], 1
  00010	8d 9f 5c 02 00
	00		 lea	 ebx, DWORD PTR [edi+604]
; File C:\IAGOS\server\v18\Source\Source\_common\guild.cpp

; 164  : 	if( ar.IsStoring() )

  00016	53		 push	 ebx
  00017	75 4a		 jne	 SHORT $LN8@Serialize

; 165  : 	{
; 166  : 		ar << m_nCount;

  00019	e8 00 00 00 00	 call	 ??$?6H@CAr@@QAEAAV0@ABH@Z ; CAr::operator<<<int>

; 167  : 		for( int i=0; i<m_nCount; i++ )

  0001e	83 3b 00	 cmp	 DWORD PTR [ebx], 0
  00021	c7 45 08 00 00
	00 00		 mov	 DWORD PTR _i$1$[ebp], 0
  00028	7e 79		 jle	 SHORT $LN6@Serialize

; 165  : 	{
; 166  : 		ar << m_nCount;

  0002a	83 c7 08	 add	 edi, 8
  0002d	0f 1f 00	 npad	 3
$LL4@Serialize:

; 168  : 		{
; 169  : 			ar << m_table[ i ].dwPxpCount;

  00030	8d 47 fc	 lea	 eax, DWORD PTR [edi-4]
  00033	8b ce		 mov	 ecx, esi
  00035	50		 push	 eax
  00036	e8 00 00 00 00	 call	 ??$?6K@CAr@@QAEAAV0@ABK@Z ; CAr::operator<<<unsigned long>

; 170  : 			ar << m_table[ i ].dwPenya;

  0003b	57		 push	 edi
  0003c	8b ce		 mov	 ecx, esi
  0003e	e8 00 00 00 00	 call	 ??$?6K@CAr@@QAEAAV0@ABK@Z ; CAr::operator<<<unsigned long>

; 171  : 			ar << m_table[ i ].nMaxMember;

  00043	8d 47 04	 lea	 eax, DWORD PTR [edi+4]
  00046	8b ce		 mov	 ecx, esi
  00048	50		 push	 eax
  00049	e8 00 00 00 00	 call	 ??$?6G@CAr@@QAEAAV0@ABG@Z ; CAr::operator<<<unsigned short>
  0004e	8b 45 08	 mov	 eax, DWORD PTR _i$1$[ebp]
  00051	83 c7 0c	 add	 edi, 12			; 0000000cH
  00054	40		 inc	 eax
  00055	89 45 08	 mov	 DWORD PTR _i$1$[ebp], eax
  00058	3b 03		 cmp	 eax, DWORD PTR [ebx]
  0005a	7c d4		 jl	 SHORT $LL4@Serialize

; 182  : 		}
; 183  : 	}
; 184  : }

  0005c	5f		 pop	 edi
  0005d	5e		 pop	 esi
  0005e	5b		 pop	 ebx
  0005f	5d		 pop	 ebp
  00060	c2 04 00	 ret	 4
$LN8@Serialize:

; 172  : 		}
; 173  : 	}
; 174  : 	else
; 175  : 	{
; 176  : 		ar >> m_nCount;

  00063	e8 00 00 00 00	 call	 ??$?5H@CAr@@QAEAAV0@AAH@Z ; CAr::operator>><int>

; 177  : 		for( int i=0; i<m_nCount; i++ )

  00068	83 3b 00	 cmp	 DWORD PTR [ebx], 0
  0006b	c7 45 08 00 00
	00 00		 mov	 DWORD PTR _i$1$[ebp], 0
  00072	7e 2f		 jle	 SHORT $LN6@Serialize

; 172  : 		}
; 173  : 	}
; 174  : 	else
; 175  : 	{
; 176  : 		ar >> m_nCount;

  00074	83 c7 08	 add	 edi, 8
$LL7@Serialize:

; 178  : 		{
; 179  : 			ar >> m_table[ i ].dwPxpCount;

  00077	8d 47 fc	 lea	 eax, DWORD PTR [edi-4]
  0007a	8b ce		 mov	 ecx, esi
  0007c	50		 push	 eax
  0007d	e8 00 00 00 00	 call	 ??$?5K@CAr@@QAEAAV0@AAK@Z ; CAr::operator>><unsigned long>

; 180  : 			ar >> m_table[ i ].dwPenya;

  00082	57		 push	 edi
  00083	8b ce		 mov	 ecx, esi
  00085	e8 00 00 00 00	 call	 ??$?5K@CAr@@QAEAAV0@AAK@Z ; CAr::operator>><unsigned long>

; 181  : 			ar >> m_table[ i ].nMaxMember;

  0008a	8d 47 04	 lea	 eax, DWORD PTR [edi+4]
  0008d	8b ce		 mov	 ecx, esi
  0008f	50		 push	 eax
  00090	e8 00 00 00 00	 call	 ??$?5G@CAr@@QAEAAV0@AAG@Z ; CAr::operator>><unsigned short>
  00095	8b 45 08	 mov	 eax, DWORD PTR _i$1$[ebp]
  00098	83 c7 0c	 add	 edi, 12			; 0000000cH
  0009b	40		 inc	 eax
  0009c	89 45 08	 mov	 DWORD PTR _i$1$[ebp], eax
  0009f	3b 03		 cmp	 eax, DWORD PTR [ebx]
  000a1	7c d4		 jl	 SHORT $LL7@Serialize
$LN6@Serialize:
  000a3	5f		 pop	 edi

; 182  : 		}
; 183  : 	}
; 184  : }

  000a4	5e		 pop	 esi
  000a5	5b		 pop	 ebx
  000a6	5d		 pop	 ebp
  000a7	c2 04 00	 ret	 4
?Serialize@CGuildTable@@QAEXAAVCAr@@@Z ENDP		; CGuildTable::Serialize
_TEXT	ENDS
; Function compile flags: /Ogtp
; File C:\IAGOS\server\v18\Source\Source\_common\guild.cpp
;	COMDAT ?GetMaxMemeber@CGuildTable@@QBEGG@Z
_TEXT	SEGMENT
_nLevel$ = 8						; size = 2
?GetMaxMemeber@CGuildTable@@QBEGG@Z PROC		; CGuildTable::GetMaxMemeber, COMDAT
; _this$ = ecx

; 223  : {

  00000	55		 push	 ebp
  00001	8b ec		 mov	 ebp, esp

; 224  : 	ASSERT( 1 <= nLevel && nLevel <= m_nCount );
; 225  : 	return m_table[nLevel - 1].nMaxMember;

  00003	0f b7 45 08	 movzx	 eax, WORD PTR _nLevel$[ebp]
  00007	8d 04 40	 lea	 eax, DWORD PTR [eax+eax*2]
  0000a	66 8b 04 81	 mov	 ax, WORD PTR [ecx+eax*4]

; 226  : }

  0000e	5d		 pop	 ebp
  0000f	c2 04 00	 ret	 4
?GetMaxMemeber@CGuildTable@@QBEGG@Z ENDP		; CGuildTable::GetMaxMemeber
_TEXT	ENDS
; Function compile flags: /Ogtp
; File C:\IAGOS\server\v18\Source\Source\_common\guild.cpp
;	COMDAT ?GetPenya@CGuildTable@@QBEKG@Z
_TEXT	SEGMENT
_nLevel$ = 8						; size = 2
?GetPenya@CGuildTable@@QBEKG@Z PROC			; CGuildTable::GetPenya, COMDAT
; _this$ = ecx

; 216  : {

  00000	55		 push	 ebp
  00001	8b ec		 mov	 ebp, esp

; 217  : 	ASSERT( 1 <= nLevel && nLevel <= m_nCount );
; 218  : 	return m_table[nLevel - 1].dwPenya;

  00003	0f b7 45 08	 movzx	 eax, WORD PTR _nLevel$[ebp]
  00007	8d 04 40	 lea	 eax, DWORD PTR [eax+eax*2]
  0000a	8b 44 81 fc	 mov	 eax, DWORD PTR [ecx+eax*4-4]

; 219  : }

  0000e	5d		 pop	 ebp
  0000f	c2 04 00	 ret	 4
?GetPenya@CGuildTable@@QBEKG@Z ENDP			; CGuildTable::GetPenya
_TEXT	ENDS
; Function compile flags: /Ogtp
; File C:\IAGOS\server\v18\Source\Source\_common\guild.cpp
;	COMDAT ?GetPxpCount@CGuildTable@@QBEKG@Z
_TEXT	SEGMENT
_nLevel$ = 8						; size = 2
?GetPxpCount@CGuildTable@@QBEKG@Z PROC			; CGuildTable::GetPxpCount, COMDAT
; _this$ = ecx

; 209  : {

  00000	55		 push	 ebp
  00001	8b ec		 mov	 ebp, esp

; 210  : 	ASSERT( 1 <= nLevel && nLevel <= m_nCount );
; 211  : 	return m_table[nLevel - 1].dwPxpCount;

  00003	0f b7 45 08	 movzx	 eax, WORD PTR _nLevel$[ebp]
  00007	8d 04 40	 lea	 eax, DWORD PTR [eax+eax*2]
  0000a	8b 44 81 f8	 mov	 eax, DWORD PTR [ecx+eax*4-8]

; 212  : }

  0000e	5d		 pop	 ebp
  0000f	c2 04 00	 ret	 4
?GetPxpCount@CGuildTable@@QBEKG@Z ENDP			; CGuildTable::GetPxpCount
_TEXT	ENDS
; Function compile flags: /Ogtp
; File C:\IAGOS\server\v18\Source\Source\_common\guild.cpp
;	COMDAT ??1CGuildTable@@UAE@XZ
_TEXT	SEGMENT
??1CGuildTable@@UAE@XZ PROC				; CGuildTable::~CGuildTable, COMDAT
; _this$ = ecx

; 158  : {

  00000	c7 01 00 00 00
	00		 mov	 DWORD PTR [ecx], OFFSET ??_7CGuildTable@@6B@

; 159  : }

  00006	c3		 ret	 0
??1CGuildTable@@UAE@XZ ENDP				; CGuildTable::~CGuildTable
_TEXT	ENDS
; Function compile flags: /Ogtp
; File C:\IAGOS\server\v18\Source\Source\_common\guild.cpp
;	COMDAT ??5@YAAAVCAr@@AAV0@AAUCONTRIBUTION_CHANGED_INFO@@@Z
_TEXT	SEGMENT
_ar$ = 8						; size = 4
_info$ = 12						; size = 4
??5@YAAAVCAr@@AAV0@AAUCONTRIBUTION_CHANGED_INFO@@@Z PROC ; operator>>, COMDAT

; 64   : {

  00000	55		 push	 ebp
  00001	8b ec		 mov	 ebp, esp
  00003	56		 push	 esi

; 65   : 	ar >> info.idGuild >> info.idPlayer >> info.dwPxpCount >> info.dwPenya;

  00004	8b 75 0c	 mov	 esi, DWORD PTR _info$[ebp]
  00007	57		 push	 edi
  00008	8b 7d 08	 mov	 edi, DWORD PTR _ar$[ebp]
  0000b	8b cf		 mov	 ecx, edi
  0000d	8d 46 0c	 lea	 eax, DWORD PTR [esi+12]
  00010	50		 push	 eax
  00011	8d 46 08	 lea	 eax, DWORD PTR [esi+8]
  00014	50		 push	 eax
  00015	8d 46 04	 lea	 eax, DWORD PTR [esi+4]
  00018	50		 push	 eax
  00019	56		 push	 esi
  0001a	e8 00 00 00 00	 call	 ??$?5K@CAr@@QAEAAV0@AAK@Z ; CAr::operator>><unsigned long>
  0001f	8b c8		 mov	 ecx, eax
  00021	e8 00 00 00 00	 call	 ??$?5K@CAr@@QAEAAV0@AAK@Z ; CAr::operator>><unsigned long>
  00026	8b c8		 mov	 ecx, eax
  00028	e8 00 00 00 00	 call	 ??$?5K@CAr@@QAEAAV0@AAK@Z ; CAr::operator>><unsigned long>
  0002d	8b c8		 mov	 ecx, eax
  0002f	e8 00 00 00 00	 call	 ??$?5K@CAr@@QAEAAV0@AAK@Z ; CAr::operator>><unsigned long>

; 66   : 	ar >> info.dwGuildPxpCount >> info.dwGuildPenya >> info.nGuildLevel;

  00034	8d 46 18	 lea	 eax, DWORD PTR [esi+24]
  00037	50		 push	 eax
  00038	8d 4e 14	 lea	 ecx, DWORD PTR [esi+20]
  0003b	51		 push	 ecx
  0003c	8d 4e 10	 lea	 ecx, DWORD PTR [esi+16]
  0003f	51		 push	 ecx
  00040	8b cf		 mov	 ecx, edi
  00042	e8 00 00 00 00	 call	 ??$?5K@CAr@@QAEAAV0@AAK@Z ; CAr::operator>><unsigned long>
  00047	8b c8		 mov	 ecx, eax
  00049	e8 00 00 00 00	 call	 ??$?5K@CAr@@QAEAAV0@AAK@Z ; CAr::operator>><unsigned long>
  0004e	8b c8		 mov	 ecx, eax
  00050	e8 00 00 00 00	 call	 ??$?5G@CAr@@QAEAAV0@AAG@Z ; CAr::operator>><unsigned short>

; 67   : 	return ar;

  00055	8b c7		 mov	 eax, edi
  00057	5f		 pop	 edi
  00058	5e		 pop	 esi

; 68   : }

  00059	5d		 pop	 ebp
  0005a	c3		 ret	 0
??5@YAAAVCAr@@AAV0@AAUCONTRIBUTION_CHANGED_INFO@@@Z ENDP ; operator>>
_TEXT	ENDS
; Function compile flags: /Ogtp
; File C:\IAGOS\server\v18\Source\Source\_common\guild.cpp
;	COMDAT ??6@YAAAVCAr@@AAV0@AAUCONTRIBUTION_CHANGED_INFO@@@Z
_TEXT	SEGMENT
_ar$ = 8						; size = 4
_info$ = 12						; size = 4
??6@YAAAVCAr@@AAV0@AAUCONTRIBUTION_CHANGED_INFO@@@Z PROC ; operator<<, COMDAT

; 57   : {

  00000	55		 push	 ebp
  00001	8b ec		 mov	 ebp, esp
  00003	56		 push	 esi

; 58   : 	ar << info.idGuild << info.idPlayer << info.dwPxpCount << info.dwPenya;

  00004	8b 75 0c	 mov	 esi, DWORD PTR _info$[ebp]
  00007	57		 push	 edi
  00008	8b 7d 08	 mov	 edi, DWORD PTR _ar$[ebp]
  0000b	8b cf		 mov	 ecx, edi
  0000d	8d 46 0c	 lea	 eax, DWORD PTR [esi+12]
  00010	50		 push	 eax
  00011	8d 46 08	 lea	 eax, DWORD PTR [esi+8]
  00014	50		 push	 eax
  00015	8d 46 04	 lea	 eax, DWORD PTR [esi+4]
  00018	50		 push	 eax
  00019	56		 push	 esi
  0001a	e8 00 00 00 00	 call	 ??$?6K@CAr@@QAEAAV0@ABK@Z ; CAr::operator<<<unsigned long>
  0001f	8b c8		 mov	 ecx, eax
  00021	e8 00 00 00 00	 call	 ??$?6K@CAr@@QAEAAV0@ABK@Z ; CAr::operator<<<unsigned long>
  00026	8b c8		 mov	 ecx, eax
  00028	e8 00 00 00 00	 call	 ??$?6K@CAr@@QAEAAV0@ABK@Z ; CAr::operator<<<unsigned long>
  0002d	8b c8		 mov	 ecx, eax
  0002f	e8 00 00 00 00	 call	 ??$?6K@CAr@@QAEAAV0@ABK@Z ; CAr::operator<<<unsigned long>

; 59   : 	ar << info.dwGuildPxpCount << info.dwGuildPenya << info.nGuildLevel;

  00034	8d 46 18	 lea	 eax, DWORD PTR [esi+24]
  00037	50		 push	 eax
  00038	8d 4e 14	 lea	 ecx, DWORD PTR [esi+20]
  0003b	51		 push	 ecx
  0003c	8d 4e 10	 lea	 ecx, DWORD PTR [esi+16]
  0003f	51		 push	 ecx
  00040	8b cf		 mov	 ecx, edi
  00042	e8 00 00 00 00	 call	 ??$?6K@CAr@@QAEAAV0@ABK@Z ; CAr::operator<<<unsigned long>
  00047	8b c8		 mov	 ecx, eax
  00049	e8 00 00 00 00	 call	 ??$?6K@CAr@@QAEAAV0@ABK@Z ; CAr::operator<<<unsigned long>
  0004e	8b c8		 mov	 ecx, eax
  00050	e8 00 00 00 00	 call	 ??$?6G@CAr@@QAEAAV0@ABG@Z ; CAr::operator<<<unsigned short>

; 60   : 	return ar;

  00055	8b c7		 mov	 eax, edi
  00057	5f		 pop	 edi
  00058	5e		 pop	 esi

; 61   : }

  00059	5d		 pop	 ebp
  0005a	c3		 ret	 0
??6@YAAAVCAr@@AAV0@AAUCONTRIBUTION_CHANGED_INFO@@@Z ENDP ; operator<<
_TEXT	ENDS
; Function compile flags: /Ogtp
;	COMDAT ??_GCGuildVote@@UAEPAXI@Z
_TEXT	SEGMENT
___flags$ = 8						; size = 4
??_GCGuildVote@@UAEPAXI@Z PROC				; CGuildVote::`scalar deleting destructor', COMDAT
; _this$ = ecx
  00000	55		 push	 ebp
  00001	8b ec		 mov	 ebp, esp
  00003	56		 push	 esi
  00004	8b f1		 mov	 esi, ecx
  00006	e8 00 00 00 00	 call	 ??1CGuildVote@@UAE@XZ	; CGuildVote::~CGuildVote
  0000b	f6 45 08 01	 test	 BYTE PTR ___flags$[ebp], 1
  0000f	74 0e		 je	 SHORT $LN5@scalar
  00011	68 28 01 00 00	 push	 296			; 00000128H
  00016	56		 push	 esi
  00017	e8 00 00 00 00	 call	 ??3@YAXPAXI@Z		; operator delete
  0001c	83 c4 08	 add	 esp, 8
$LN5@scalar:
  0001f	8b c6		 mov	 eax, esi
  00021	5e		 pop	 esi
  00022	5d		 pop	 ebp
  00023	c2 04 00	 ret	 4
??_GCGuildVote@@UAEPAXI@Z ENDP				; CGuildVote::`scalar deleting destructor'
_TEXT	ENDS
; Function compile flags: /Ogtp
; File C:\IAGOS\server\v18\Source\Source\_common\guild.cpp
;	COMDAT ?Cast@CGuildVote@@QAEXE@Z
_TEXT	SEGMENT
_cbSelect$ = 8						; size = 1
?Cast@CGuildVote@@QAEXE@Z PROC				; CGuildVote::Cast, COMDAT
; _this$ = ecx

; 109  : {

  00000	55		 push	 ebp
  00001	8b ec		 mov	 ebp, esp

; 110  : 	ASSERT( cbSelect < 4 );
; 111  : 	m_selects[cbSelect].cbCount++;

  00003	0f b6 45 08	 movzx	 eax, BYTE PTR _cbSelect$[ebp]
  00007	6b c0 16	 imul	 eax, eax, 22
  0000a	fe 84 08 e3 00
	00 00		 inc	 BYTE PTR [eax+ecx+227]

; 112  : }

  00011	5d		 pop	 ebp
  00012	c2 04 00	 ret	 4
?Cast@CGuildVote@@QAEXE@Z ENDP				; CGuildVote::Cast
_TEXT	ENDS
; Function compile flags: /Ogtp
; File C:\IAGOS\server\v18\Source\Source\_common\guild.cpp
;	COMDAT ?Init@CGuildVote@@QAEXABUVOTE_INSERTED_INFO@@_NPAE@Z
_TEXT	SEGMENT
_info$ = 8						; size = 4
_bCompleted$ = 12					; size = 1
_cbCounts$ = 16						; size = 4
?Init@CGuildVote@@QAEXABUVOTE_INSERTED_INFO@@_NPAE@Z PROC ; CGuildVote::Init, COMDAT
; _this$ = ecx

; 92   : {

  00000	55		 push	 ebp
  00001	8b ec		 mov	 ebp, esp
  00003	8b d1		 mov	 edx, ecx

; 93   : 	m_idVote = info.idVote;						
; 94   : 	m_bCompleted = bCompleted;							
; 95   : 	memcpy( m_szTitle, info.szTitle, MAX_BYTE_VOTETITLE );			
; 96   : 	memcpy( m_szQuestion, info.szQuestion, MAX_BYTE_VOTEQUESTION );

  00005	b9 2a 00 00 00	 mov	 ecx, 42			; 0000002aH
  0000a	53		 push	 ebx
  0000b	8b 5d 08	 mov	 ebx, DWORD PTR _info$[ebp]
  0000e	56		 push	 esi
  0000f	57		 push	 edi
  00010	8d 7a 23	 lea	 edi, DWORD PTR [edx+35]
  00013	8b 43 04	 mov	 eax, DWORD PTR [ebx+4]
  00016	8d 73 22	 lea	 esi, DWORD PTR [ebx+34]
  00019	89 42 04	 mov	 DWORD PTR [edx+4], eax
  0001c	8a 45 0c	 mov	 al, BYTE PTR _bCompleted$[ebp]
  0001f	88 42 08	 mov	 BYTE PTR [edx+8], al
  00022	0f 10 43 08	 movups	 xmm0, XMMWORD PTR [ebx+8]
  00026	0f 11 42 09	 movups	 XMMWORD PTR [edx+9], xmm0
  0002a	f3 0f 7e 43 18	 movq	 xmm0, QWORD PTR [ebx+24]
  0002f	66 0f d6 42 19	 movq	 QWORD PTR [edx+25], xmm0
  00034	66 8b 43 20	 mov	 ax, WORD PTR [ebx+32]
  00038	66 89 42 21	 mov	 WORD PTR [edx+33], ax
  0003c	f3 a5		 rep movsd

; 97   : 	for( int i=0; i<4; i++ )
; 98   : 	{
; 99   : 		if( cbCounts )

  0003e	8b 4d 10	 mov	 ecx, DWORD PTR _cbCounts$[ebp]
  00041	66 a5		 movsw
  00043	a4		 movsb
  00044	85 c9		 test	 ecx, ecx
  00046	74 04		 je	 SHORT $LN5@Init

; 100  : 			m_selects[i].cbCount = cbCounts[i];

  00048	8a 01		 mov	 al, BYTE PTR [ecx]
  0004a	eb 02		 jmp	 SHORT $LN6@Init
$LN5@Init:

; 101  : 		else
; 102  : 			m_selects[i].cbCount = 0;

  0004c	32 c0		 xor	 al, al
$LN6@Init:

; 103  : 		memcpy( m_selects[i].szString, info.szSelections[i], MAX_BYTE_VOTESELECT );

  0004e	88 82 e3 00 00
	00		 mov	 BYTE PTR [edx+227], al
  00054	0f 10 83 cd 00
	00 00		 movups	 xmm0, XMMWORD PTR [ebx+205]
  0005b	0f 11 82 ce 00
	00 00		 movups	 XMMWORD PTR [edx+206], xmm0
  00062	8b 83 dd 00 00
	00		 mov	 eax, DWORD PTR [ebx+221]
  00068	89 82 de 00 00
	00		 mov	 DWORD PTR [edx+222], eax
  0006e	8a 83 e1 00 00
	00		 mov	 al, BYTE PTR [ebx+225]
  00074	88 82 e2 00 00
	00		 mov	 BYTE PTR [edx+226], al
  0007a	85 c9		 test	 ecx, ecx
  0007c	74 05		 je	 SHORT $LN16@Init

; 100  : 			m_selects[i].cbCount = cbCounts[i];

  0007e	8a 41 01	 mov	 al, BYTE PTR [ecx+1]
  00081	eb 02		 jmp	 SHORT $LN17@Init
$LN16@Init:

; 101  : 		else
; 102  : 			m_selects[i].cbCount = 0;

  00083	32 c0		 xor	 al, al
$LN17@Init:

; 103  : 		memcpy( m_selects[i].szString, info.szSelections[i], MAX_BYTE_VOTESELECT );

  00085	88 82 f9 00 00
	00		 mov	 BYTE PTR [edx+249], al
  0008b	0f 10 83 e2 00
	00 00		 movups	 xmm0, XMMWORD PTR [ebx+226]
  00092	0f 11 82 e4 00
	00 00		 movups	 XMMWORD PTR [edx+228], xmm0
  00099	8b 83 f2 00 00
	00		 mov	 eax, DWORD PTR [ebx+242]
  0009f	89 82 f4 00 00
	00		 mov	 DWORD PTR [edx+244], eax
  000a5	8a 83 f6 00 00
	00		 mov	 al, BYTE PTR [ebx+246]
  000ab	88 82 f8 00 00
	00		 mov	 BYTE PTR [edx+248], al
  000b1	85 c9		 test	 ecx, ecx
  000b3	74 05		 je	 SHORT $LN19@Init

; 100  : 			m_selects[i].cbCount = cbCounts[i];

  000b5	8a 41 02	 mov	 al, BYTE PTR [ecx+2]
  000b8	eb 02		 jmp	 SHORT $LN20@Init
$LN19@Init:

; 101  : 		else
; 102  : 			m_selects[i].cbCount = 0;

  000ba	32 c0		 xor	 al, al
$LN20@Init:

; 103  : 		memcpy( m_selects[i].szString, info.szSelections[i], MAX_BYTE_VOTESELECT );

  000bc	88 82 0f 01 00
	00		 mov	 BYTE PTR [edx+271], al
  000c2	0f 10 83 f7 00
	00 00		 movups	 xmm0, XMMWORD PTR [ebx+247]
  000c9	0f 11 82 fa 00
	00 00		 movups	 XMMWORD PTR [edx+250], xmm0
  000d0	8b 83 07 01 00
	00		 mov	 eax, DWORD PTR [ebx+263]
  000d6	89 82 0a 01 00
	00		 mov	 DWORD PTR [edx+266], eax
  000dc	8a 83 0b 01 00
	00		 mov	 al, BYTE PTR [ebx+267]
  000e2	88 82 0e 01 00
	00		 mov	 BYTE PTR [edx+270], al
  000e8	85 c9		 test	 ecx, ecx
  000ea	74 05		 je	 SHORT $LN22@Init

; 100  : 			m_selects[i].cbCount = cbCounts[i];

  000ec	8a 41 03	 mov	 al, BYTE PTR [ecx+3]
  000ef	eb 02		 jmp	 SHORT $LN23@Init
$LN22@Init:

; 101  : 		else
; 102  : 			m_selects[i].cbCount = 0;

  000f1	32 c0		 xor	 al, al
$LN23@Init:

; 103  : 		memcpy( m_selects[i].szString, info.szSelections[i], MAX_BYTE_VOTESELECT );

  000f3	88 82 25 01 00
	00		 mov	 BYTE PTR [edx+293], al
  000f9	0f 10 83 0c 01
	00 00		 movups	 xmm0, XMMWORD PTR [ebx+268]
  00100	5f		 pop	 edi
  00101	5e		 pop	 esi
  00102	0f 11 82 10 01
	00 00		 movups	 XMMWORD PTR [edx+272], xmm0
  00109	8b 83 1c 01 00
	00		 mov	 eax, DWORD PTR [ebx+284]
  0010f	89 82 20 01 00
	00		 mov	 DWORD PTR [edx+288], eax
  00115	8a 83 20 01 00
	00		 mov	 al, BYTE PTR [ebx+288]
  0011b	88 82 24 01 00
	00		 mov	 BYTE PTR [edx+292], al
  00121	5b		 pop	 ebx

; 104  : 	}
; 105  : }

  00122	5d		 pop	 ebp
  00123	c2 0c 00	 ret	 12			; 0000000cH
?Init@CGuildVote@@QAEXABUVOTE_INSERTED_INFO@@_NPAE@Z ENDP ; CGuildVote::Init
_TEXT	ENDS
; Function compile flags: /Ogtp
; File C:\IAGOS\server\v18\Source\Source\_common\guild.cpp
; File C:\IAGOS\server\v18\Source\Source\_Network\Misc\Include\ar.h
; File C:\IAGOS\server\v18\Source\Source\_common\guild.cpp
; File C:\IAGOS\server\v18\Source\Source\_Network\Misc\Include\ar.h
; File C:\IAGOS\server\v18\Source\Source\_common\guild.cpp
;	COMDAT ?Serialize@CGuildVote@@QAEXAAVCAr@@@Z
_TEXT	SEGMENT
_this$1$ = -8						; size = 4
tv361 = -4						; size = 4
_ar$ = 8						; size = 4
$T1 = 11						; size = 1
_complete$2 = 11					; size = 1
?Serialize@CGuildVote@@QAEXAAVCAr@@@Z PROC		; CGuildVote::Serialize, COMDAT
; _this$ = ecx

; 115  : {

  00000	55		 push	 ebp
  00001	8b ec		 mov	 ebp, esp
  00003	83 ec 08	 sub	 esp, 8
  00006	53		 push	 ebx
  00007	8b c1		 mov	 eax, ecx
  00009	56		 push	 esi
  0000a	57		 push	 edi
; File C:\IAGOS\server\v18\Source\Source\_Network\Misc\Include\ar.h

; 146  : 	return (m_nMode & CAr::load) == 0;

  0000b	8b 7d 08	 mov	 edi, DWORD PTR _ar$[ebp]
  0000e	8d 50 23	 lea	 edx, DWORD PTR [eax+35]
; File C:\IAGOS\server\v18\Source\Source\_common\guild.cpp

; 115  : {

  00011	89 45 f8	 mov	 DWORD PTR _this$1$[ebp], eax
; File C:\IAGOS\server\v18\Source\Source\_Network\Misc\Include\ar.h

; 146  : 	return (m_nMode & CAr::load) == 0;

  00014	8d 48 04	 lea	 ecx, DWORD PTR [eax+4]
  00017	89 55 fc	 mov	 DWORD PTR tv361[ebp], edx
  0001a	8d 58 09	 lea	 ebx, DWORD PTR [eax+9]
  0001d	f6 07 01	 test	 BYTE PTR [edi], 1
  00020	8d b0 e3 00 00
	00		 lea	 esi, DWORD PTR [eax+227]
; File C:\IAGOS\server\v18\Source\Source\_common\guild.cpp

; 116  : 	if( ar.IsStoring() )

  00026	75 54		 jne	 SHORT $LN8@Serialize

; 117  : 	{
; 118  : 		ar << m_idVote << (BYTE)m_bCompleted;

  00028	8a 40 08	 mov	 al, BYTE PTR [eax+8]
  0002b	88 45 0b	 mov	 BYTE PTR $T1[ebp], al
  0002e	8d 45 0b	 lea	 eax, DWORD PTR $T1[ebp]
  00031	50		 push	 eax
  00032	51		 push	 ecx
  00033	8b cf		 mov	 ecx, edi
  00035	e8 00 00 00 00	 call	 ??$?6K@CAr@@QAEAAV0@ABK@Z ; CAr::operator<<<unsigned long>
  0003a	8b c8		 mov	 ecx, eax
  0003c	e8 00 00 00 00	 call	 ??$?6E@CAr@@QAEAAV0@ABE@Z ; CAr::operator<<<unsigned char>

; 119  : 		ar.WriteString( m_szTitle );

  00041	53		 push	 ebx
  00042	8b cf		 mov	 ecx, edi
  00044	e8 00 00 00 00	 call	 ?WriteString@CAr@@QAEXPBD@Z ; CAr::WriteString

; 120  : 		ar.WriteString( m_szQuestion );

  00049	ff 75 fc	 push	 DWORD PTR tv361[ebp]
  0004c	8b cf		 mov	 ecx, edi
  0004e	e8 00 00 00 00	 call	 ?WriteString@CAr@@QAEXPBD@Z ; CAr::WriteString
  00053	bb 04 00 00 00	 mov	 ebx, 4
$LL4@Serialize:

; 121  : 
; 122  : 		for( int i=0; i<4; ++i )
; 123  : 		{
; 124  : 			ar.WriteString( m_selects[i].szString );

  00058	8d 46 eb	 lea	 eax, DWORD PTR [esi-21]
  0005b	8b cf		 mov	 ecx, edi
  0005d	50		 push	 eax
  0005e	e8 00 00 00 00	 call	 ?WriteString@CAr@@QAEXPBD@Z ; CAr::WriteString

; 125  : 			ar << m_selects[i].cbCount;

  00063	56		 push	 esi
  00064	8b cf		 mov	 ecx, edi
  00066	e8 00 00 00 00	 call	 ??$?6E@CAr@@QAEAAV0@ABE@Z ; CAr::operator<<<unsigned char>
  0006b	83 c6 16	 add	 esi, 22			; 00000016H
  0006e	83 eb 01	 sub	 ebx, 1
  00071	75 e5		 jne	 SHORT $LL4@Serialize

; 142  : 	}
; 143  : }

  00073	5f		 pop	 edi
  00074	5e		 pop	 esi
  00075	5b		 pop	 ebx
  00076	8b e5		 mov	 esp, ebp
  00078	5d		 pop	 ebp
  00079	c2 04 00	 ret	 4
$LN8@Serialize:

; 126  : 		}	
; 127  : 	}
; 128  : 	else
; 129  : 	{
; 130  : 		BYTE complete;
; 131  : 		ar >> m_idVote >> complete;

  0007c	8d 45 0b	 lea	 eax, DWORD PTR _complete$2[ebp]
  0007f	50		 push	 eax
  00080	51		 push	 ecx
  00081	8b cf		 mov	 ecx, edi
  00083	e8 00 00 00 00	 call	 ??$?5K@CAr@@QAEAAV0@AAK@Z ; CAr::operator>><unsigned long>
  00088	8b c8		 mov	 ecx, eax
  0008a	e8 00 00 00 00	 call	 ??$?5E@CAr@@QAEAAV0@AAE@Z ; CAr::operator>><unsigned char>

; 132  : 		ar.ReadString( m_szTitle, MAX_BYTE_VOTETITLE );

  0008f	6a 1a		 push	 26			; 0000001aH
  00091	53		 push	 ebx
  00092	8b cf		 mov	 ecx, edi
  00094	e8 00 00 00 00	 call	 ?ReadString@CAr@@QAEPADPADH@Z ; CAr::ReadString

; 133  : 		ar.ReadString( m_szQuestion, MAX_BYTE_VOTEQUESTION );

  00099	68 ab 00 00 00	 push	 171			; 000000abH
  0009e	ff 75 fc	 push	 DWORD PTR tv361[ebp]
  000a1	8b cf		 mov	 ecx, edi
  000a3	e8 00 00 00 00	 call	 ?ReadString@CAr@@QAEPADPADH@Z ; CAr::ReadString
  000a8	bb 04 00 00 00	 mov	 ebx, 4
  000ad	0f 1f 00	 npad	 3
$LL7@Serialize:

; 134  : 
; 135  : 		for( int i=0; i<4; ++i )
; 136  : 		{
; 137  : 			ar.ReadString( m_selects[i].szString, MAX_BYTE_VOTESELECT );

  000b0	6a 15		 push	 21			; 00000015H
  000b2	8d 46 eb	 lea	 eax, DWORD PTR [esi-21]
  000b5	8b cf		 mov	 ecx, edi
  000b7	50		 push	 eax
  000b8	e8 00 00 00 00	 call	 ?ReadString@CAr@@QAEPADPADH@Z ; CAr::ReadString

; 138  : 			ar >> m_selects[i].cbCount;

  000bd	56		 push	 esi
  000be	8b cf		 mov	 ecx, edi
  000c0	e8 00 00 00 00	 call	 ??$?5E@CAr@@QAEAAV0@AAE@Z ; CAr::operator>><unsigned char>
  000c5	83 c6 16	 add	 esi, 22			; 00000016H
  000c8	83 eb 01	 sub	 ebx, 1
  000cb	75 e3		 jne	 SHORT $LL7@Serialize

; 139  : 		}	
; 140  : 
; 141  : 		m_bCompleted = (complete == 1);

  000cd	80 7d 0b 01	 cmp	 BYTE PTR _complete$2[ebp], 1
  000d1	8b 4d f8	 mov	 ecx, DWORD PTR _this$1$[ebp]
  000d4	5f		 pop	 edi
  000d5	0f 94 c0	 sete	 al

; 142  : 	}
; 143  : }

  000d8	5e		 pop	 esi
  000d9	88 41 08	 mov	 BYTE PTR [ecx+8], al
  000dc	5b		 pop	 ebx
  000dd	8b e5		 mov	 esp, ebp
  000df	5d		 pop	 ebp
  000e0	c2 04 00	 ret	 4
?Serialize@CGuildVote@@QAEXAAVCAr@@@Z ENDP		; CGuildVote::Serialize
_TEXT	ENDS
; Function compile flags: /Ogtp
; File C:\IAGOS\server\v18\Source\Source\_common\guild.cpp
;	COMDAT ??1CGuildVote@@UAE@XZ
_TEXT	SEGMENT
??1CGuildVote@@UAE@XZ PROC				; CGuildVote::~CGuildVote, COMDAT
; _this$ = ecx

; 87   : {

  00000	c7 01 00 00 00
	00		 mov	 DWORD PTR [ecx], OFFSET ??_7CGuildVote@@6B@

; 88   : }

  00006	c3		 ret	 0
??1CGuildVote@@UAE@XZ ENDP				; CGuildVote::~CGuildVote
_TEXT	ENDS
; Function compile flags: /Ogtp
; File C:\IAGOS\server\v18\Source\Source\_common\guild.cpp
;	COMDAT ??0CGuildVote@@QAE@XZ
_TEXT	SEGMENT
??0CGuildVote@@QAE@XZ PROC				; CGuildVote::CGuildVote, COMDAT
; _this$ = ecx

; 73   : {

  00000	c7 01 00 00 00
	00		 mov	 DWORD PTR [ecx], OFFSET ??_7CGuildVote@@6B@

; 74   : 	m_idVote = 0;				
; 75   : 	m_bCompleted = false;		
; 76   : 	m_szTitle[0] = '\0';		
; 77   : 	m_szQuestion[0] = '\0';		
; 78   : 	
; 79   : 	for( int i=0; i<4; ++i )
; 80   : 	{
; 81   : 		m_selects[i].szString[0] = '\0';
; 82   : 		m_selects[i].cbCount = 0;
; 83   : 	}
; 84   : }

  00006	8b c1		 mov	 eax, ecx
  00008	c7 41 04 00 00
	00 00		 mov	 DWORD PTR [ecx+4], 0
  0000f	66 c7 41 08 00
	00		 mov	 WORD PTR [ecx+8], 0
  00015	c6 41 23 00	 mov	 BYTE PTR [ecx+35], 0
  00019	c6 81 ce 00 00
	00 00		 mov	 BYTE PTR [ecx+206], 0
  00020	66 c7 81 e3 00
	00 00 00 00	 mov	 WORD PTR [ecx+227], 0
  00029	66 c7 81 f9 00
	00 00 00 00	 mov	 WORD PTR [ecx+249], 0
  00032	66 c7 81 0f 01
	00 00 00 00	 mov	 WORD PTR [ecx+271], 0
  0003b	c6 81 25 01 00
	00 00		 mov	 BYTE PTR [ecx+293], 0
  00042	c3		 ret	 0
??0CGuildVote@@QAE@XZ ENDP				; CGuildVote::CGuildVote
_TEXT	ENDS
; Function compile flags: /Ogtp
; File C:\IAGOS\server\v18\Source\Source\_common\guild.cpp
;	COMDAT ??5@YAAAVCAr@@AAV0@AAUVOTE_INSERTED_INFO@@@Z
_TEXT	SEGMENT
_ar$ = 8						; size = 4
_info$ = 12						; size = 4
??5@YAAAVCAr@@AAV0@AAUVOTE_INSERTED_INFO@@@Z PROC	; operator>>, COMDAT

; 44   : {

  00000	55		 push	 ebp
  00001	8b ec		 mov	 ebp, esp
  00003	53		 push	 ebx

; 45   : 	ar >> info.idGuild >> info.idVote;

  00004	8b 5d 08	 mov	 ebx, DWORD PTR _ar$[ebp]
  00007	8b cb		 mov	 ecx, ebx
  00009	56		 push	 esi
  0000a	8b 75 0c	 mov	 esi, DWORD PTR _info$[ebp]
  0000d	57		 push	 edi
  0000e	8d 46 04	 lea	 eax, DWORD PTR [esi+4]
  00011	50		 push	 eax
  00012	56		 push	 esi
  00013	e8 00 00 00 00	 call	 ??$?5K@CAr@@QAEAAV0@AAK@Z ; CAr::operator>><unsigned long>
  00018	8b c8		 mov	 ecx, eax
  0001a	e8 00 00 00 00	 call	 ??$?5K@CAr@@QAEAAV0@AAK@Z ; CAr::operator>><unsigned long>

; 46   : 	ar.ReadString( info.szTitle, MAX_BYTE_VOTETITLE );

  0001f	6a 1a		 push	 26			; 0000001aH
  00021	8d 46 08	 lea	 eax, DWORD PTR [esi+8]
  00024	8b cb		 mov	 ecx, ebx
  00026	50		 push	 eax
  00027	e8 00 00 00 00	 call	 ?ReadString@CAr@@QAEPADPADH@Z ; CAr::ReadString

; 47   : 	ar.ReadString( info.szQuestion, MAX_BYTE_VOTEQUESTION );

  0002c	68 ab 00 00 00	 push	 171			; 000000abH
  00031	8d 46 22	 lea	 eax, DWORD PTR [esi+34]
  00034	8b cb		 mov	 ecx, ebx
  00036	50		 push	 eax
  00037	e8 00 00 00 00	 call	 ?ReadString@CAr@@QAEPADPADH@Z ; CAr::ReadString
  0003c	81 c6 cd 00 00
	00		 add	 esi, 205		; 000000cdH
  00042	bf 04 00 00 00	 mov	 edi, 4
$LL4@operator:

; 48   : 	for( int i=0; i<4; ++i )
; 49   : 	{
; 50   : 		ar.ReadString( info.szSelections[i], MAX_BYTE_VOTESELECT );

  00047	6a 15		 push	 21			; 00000015H
  00049	56		 push	 esi
  0004a	8b cb		 mov	 ecx, ebx
  0004c	e8 00 00 00 00	 call	 ?ReadString@CAr@@QAEPADPADH@Z ; CAr::ReadString
  00051	83 c6 15	 add	 esi, 21			; 00000015H
  00054	83 ef 01	 sub	 edi, 1
  00057	75 ee		 jne	 SHORT $LL4@operator

; 51   : 	}			
; 52   : 	return ar;

  00059	5f		 pop	 edi
  0005a	5e		 pop	 esi
  0005b	8b c3		 mov	 eax, ebx
  0005d	5b		 pop	 ebx

; 53   : }

  0005e	5d		 pop	 ebp
  0005f	c3		 ret	 0
??5@YAAAVCAr@@AAV0@AAUVOTE_INSERTED_INFO@@@Z ENDP	; operator>>
_TEXT	ENDS
; Function compile flags: /Ogtp
; File C:\IAGOS\server\v18\Source\Source\_common\guild.cpp
;	COMDAT ??6@YAAAVCAr@@AAV0@AAUVOTE_INSERTED_INFO@@@Z
_TEXT	SEGMENT
_ar$ = 8						; size = 4
_info$ = 12						; size = 4
??6@YAAAVCAr@@AAV0@AAUVOTE_INSERTED_INFO@@@Z PROC	; operator<<, COMDAT

; 32   : {

  00000	55		 push	 ebp
  00001	8b ec		 mov	 ebp, esp
  00003	53		 push	 ebx

; 33   : 	ar << info.idGuild << info.idVote;

  00004	8b 5d 08	 mov	 ebx, DWORD PTR _ar$[ebp]
  00007	8b cb		 mov	 ecx, ebx
  00009	56		 push	 esi
  0000a	8b 75 0c	 mov	 esi, DWORD PTR _info$[ebp]
  0000d	57		 push	 edi
  0000e	8d 46 04	 lea	 eax, DWORD PTR [esi+4]
  00011	50		 push	 eax
  00012	56		 push	 esi
  00013	e8 00 00 00 00	 call	 ??$?6K@CAr@@QAEAAV0@ABK@Z ; CAr::operator<<<unsigned long>
  00018	8b c8		 mov	 ecx, eax
  0001a	e8 00 00 00 00	 call	 ??$?6K@CAr@@QAEAAV0@ABK@Z ; CAr::operator<<<unsigned long>

; 34   : 	ar.WriteString( info.szTitle );

  0001f	8d 46 08	 lea	 eax, DWORD PTR [esi+8]
  00022	8b cb		 mov	 ecx, ebx
  00024	50		 push	 eax
  00025	e8 00 00 00 00	 call	 ?WriteString@CAr@@QAEXPBD@Z ; CAr::WriteString

; 35   : 	ar.WriteString( info.szQuestion );

  0002a	8d 46 22	 lea	 eax, DWORD PTR [esi+34]
  0002d	8b cb		 mov	 ecx, ebx
  0002f	50		 push	 eax
  00030	e8 00 00 00 00	 call	 ?WriteString@CAr@@QAEXPBD@Z ; CAr::WriteString
  00035	81 c6 cd 00 00
	00		 add	 esi, 205		; 000000cdH
  0003b	bf 04 00 00 00	 mov	 edi, 4
$LL4@operator:

; 36   : 	for( int i=0; i<4; ++i )
; 37   : 	{
; 38   : 		ar.WriteString( info.szSelections[i]);

  00040	56		 push	 esi
  00041	8b cb		 mov	 ecx, ebx
  00043	e8 00 00 00 00	 call	 ?WriteString@CAr@@QAEXPBD@Z ; CAr::WriteString
  00048	83 c6 15	 add	 esi, 21			; 00000015H
  0004b	83 ef 01	 sub	 edi, 1
  0004e	75 f0		 jne	 SHORT $LL4@operator

; 39   : 	}			
; 40   : 	return ar;

  00050	5f		 pop	 edi
  00051	5e		 pop	 esi
  00052	8b c3		 mov	 eax, ebx
  00054	5b		 pop	 ebx

; 41   : }

  00055	5d		 pop	 ebp
  00056	c3		 ret	 0
??6@YAAAVCAr@@AAV0@AAUVOTE_INSERTED_INFO@@@Z ENDP	; operator<<
_TEXT	ENDS
; Function compile flags: /Ogtp
; File C:\Program Files\Microsoft Visual Studio\2022\Professional\VC\Tools\MSVC\14.44.35207\include\xmemory
;	COMDAT ??$_Allocate_manually_vector_aligned@U_Default_allocate_traits@std@@@std@@YAPAXI@Z
_TEXT	SEGMENT
__Bytes$ = 8						; size = 4
??$_Allocate_manually_vector_aligned@U_Default_allocate_traits@std@@@std@@YAPAXI@Z PROC ; std::_Allocate_manually_vector_aligned<std::_Default_allocate_traits>, COMDAT

; 182  : __declspec(allocator) void* _Allocate_manually_vector_aligned(const size_t _Bytes) {

  00000	55		 push	 ebp
  00001	8b ec		 mov	 ebp, esp

; 183  :     // allocate _Bytes manually aligned to at least _Big_allocation_alignment
; 184  :     const size_t _Block_size = _Non_user_size + _Bytes;

  00003	8b 45 08	 mov	 eax, DWORD PTR __Bytes$[ebp]
  00006	8d 48 23	 lea	 ecx, DWORD PTR [eax+35]

; 185  :     if (_Block_size <= _Bytes) {

  00009	3b c8		 cmp	 ecx, eax
  0000b	0f 86 00 00 00
	00		 jbe	 ?_Throw_bad_array_new_length@std@@YAXXZ ; std::_Throw_bad_array_new_length

; 136  :         return ::operator new(_Bytes);

  00011	51		 push	 ecx
  00012	e8 00 00 00 00	 call	 ??2@YAPAXI@Z		; operator new

; 186  :         _Throw_bad_array_new_length(); // add overflow
; 187  :     }
; 188  : 
; 189  :     const uintptr_t _Ptr_container = reinterpret_cast<uintptr_t>(_Traits::_Allocate(_Block_size));

  00017	8b c8		 mov	 ecx, eax

; 136  :         return ::operator new(_Bytes);

  00019	83 c4 04	 add	 esp, 4

; 190  :     _STL_VERIFY(_Ptr_container != 0, "invalid argument"); // validate even in release since we're doing p[-1]

  0001c	85 c9		 test	 ecx, ecx
  0001e	74 0b		 je	 SHORT $LN9@Allocate_m

; 191  :     void* const _Ptr = reinterpret_cast<void*>((_Ptr_container + _Non_user_size) & ~(_Big_allocation_alignment - 1));

  00020	8d 41 23	 lea	 eax, DWORD PTR [ecx+35]
  00023	83 e0 e0	 and	 eax, -32		; ffffffe0H

; 192  :     static_cast<uintptr_t*>(_Ptr)[-1] = _Ptr_container;

  00026	89 48 fc	 mov	 DWORD PTR [eax-4], ecx

; 193  : 
; 194  : #ifdef _DEBUG
; 195  :     static_cast<uintptr_t*>(_Ptr)[-2] = _Big_allocation_sentinel;
; 196  : #endif // defined(_DEBUG)
; 197  :     return _Ptr;
; 198  : }

  00029	5d		 pop	 ebp
  0002a	c3		 ret	 0
$LN9@Allocate_m:

; 190  :     _STL_VERIFY(_Ptr_container != 0, "invalid argument"); // validate even in release since we're doing p[-1]

  0002b	6a 00		 push	 0
  0002d	6a 00		 push	 0
  0002f	6a 00		 push	 0
  00031	6a 00		 push	 0
  00033	6a 00		 push	 0
  00035	e8 00 00 00 00	 call	 __invoke_watson
$LN7@Allocate_m:
  0003a	cc		 int	 3
??$_Allocate_manually_vector_aligned@U_Default_allocate_traits@std@@@std@@YAPAXI@Z ENDP ; std::_Allocate_manually_vector_aligned<std::_Default_allocate_traits>
_TEXT	ENDS
; Function compile flags: /Ogtp
; File C:\Program Files\Microsoft Visual Studio\2022\Professional\VC\Tools\MSVC\14.44.35207\include\xstring
; File C:\Program Files\Microsoft Visual Studio\2022\Professional\VC\Tools\MSVC\14.44.35207\include\__msvc_string_view.hpp
; File C:\Program Files\Microsoft Visual Studio\2022\Professional\VC\Tools\MSVC\14.44.35207\include\xstring
; File C:\Program Files\Microsoft Visual Studio\2022\Professional\VC\Tools\MSVC\14.44.35207\include\__msvc_string_view.hpp
; File C:\Program Files\Microsoft Visual Studio\2022\Professional\VC\Tools\MSVC\14.44.35207\include\xstring
; File C:\Program Files\Microsoft Visual Studio\2022\Professional\VC\Tools\MSVC\14.44.35207\include\__msvc_string_view.hpp
; File C:\Program Files\Microsoft Visual Studio\2022\Professional\VC\Tools\MSVC\14.44.35207\include\xstring
;	COMDAT ??$?MDU?$char_traits@D@std@@V?$allocator@D@1@@std@@YA_NABV?$basic_string@DU?$char_traits@D@std@@V?$allocator@D@2@@0@0@Z
_TEXT	SEGMENT
__Left$ = 8						; size = 4
__Right$ = 12						; size = 4
??$?MDU?$char_traits@D@std@@V?$allocator@D@1@@std@@YA_NABV?$basic_string@DU?$char_traits@D@std@@V?$allocator@D@2@@0@0@Z PROC ; std::operator<<char,std::char_traits<char>,std::allocator<char> >, COMDAT

; 3307 :     const basic_string<_Elem, _Traits, _Alloc>& _Left, const basic_string<_Elem, _Traits, _Alloc>& _Right) noexcept {

  00000	55		 push	 ebp
  00001	8b ec		 mov	 ebp, esp

; 444  :         const value_type* _Result = _Bx._Buf;

  00003	8b 45 0c	 mov	 eax, DWORD PTR __Right$[ebp]
  00006	8b c8		 mov	 ecx, eax

; 453  :         return _Myres > _Small_string_capacity;

  00008	83 78 14 0f	 cmp	 DWORD PTR [eax+20], 15	; 0000000fH

; 445  :         if (_Large_mode_engaged()) {

  0000c	76 02		 jbe	 SHORT $LN8@operator

; 446  :             _Result = _Unfancy(_Bx._Ptr);

  0000e	8b 08		 mov	 ecx, DWORD PTR [eax]
$LN8@operator:
  00010	53		 push	 ebx
  00011	56		 push	 esi

; 444  :         const value_type* _Result = _Bx._Buf;

  00012	8b 75 08	 mov	 esi, DWORD PTR __Left$[ebp]
  00015	8b d6		 mov	 edx, esi
  00017	57		 push	 edi

; 453  :         return _Myres > _Small_string_capacity;

  00018	83 7e 14 0f	 cmp	 DWORD PTR [esi+20], 15	; 0000000fH

; 445  :         if (_Large_mode_engaged()) {

  0001c	76 02		 jbe	 SHORT $LN15@operator

; 446  :             _Result = _Unfancy(_Bx._Ptr);

  0001e	8b 16		 mov	 edx, DWORD PTR [esi]
$LN15@operator:

; 2890 :         return _Traits_compare<_Traits>(_Mypair._Myval2._Myptr(), _Mypair._Myval2._Mysize,

  00020	8b 5e 10	 mov	 ebx, DWORD PTR [esi+16]
  00023	8b f3		 mov	 esi, ebx
  00025	8b 78 10	 mov	 edi, DWORD PTR [eax+16]
  00028	3b fb		 cmp	 edi, ebx
  0002a	0f 42 f7	 cmovb	 esi, edi
; File C:\Program Files\Microsoft Visual Studio\2022\Professional\VC\Tools\MSVC\14.44.35207\include\__msvc_string_view.hpp

; 439  :         return _CSTD memcmp(_First1, _First2, _Count);

  0002d	83 ee 04	 sub	 esi, 4
  00030	72 11		 jb	 SHORT $LN35@operator
$LL36@operator:
  00032	8b 02		 mov	 eax, DWORD PTR [edx]
  00034	3b 01		 cmp	 eax, DWORD PTR [ecx]
  00036	75 10		 jne	 SHORT $LN34@operator
  00038	83 c2 04	 add	 edx, 4
  0003b	83 c1 04	 add	 ecx, 4
  0003e	83 ee 04	 sub	 esi, 4
  00041	73 ef		 jae	 SHORT $LL36@operator
$LN35@operator:
  00043	83 fe fc	 cmp	 esi, -4			; fffffffcH
  00046	74 34		 je	 SHORT $LN33@operator
$LN34@operator:
  00048	8a 02		 mov	 al, BYTE PTR [edx]
  0004a	3a 01		 cmp	 al, BYTE PTR [ecx]
  0004c	75 27		 jne	 SHORT $LN37@operator
  0004e	83 fe fd	 cmp	 esi, -3			; fffffffdH
  00051	74 29		 je	 SHORT $LN33@operator
  00053	8a 42 01	 mov	 al, BYTE PTR [edx+1]
  00056	3a 41 01	 cmp	 al, BYTE PTR [ecx+1]
  00059	75 1a		 jne	 SHORT $LN37@operator
  0005b	83 fe fe	 cmp	 esi, -2			; fffffffeH
  0005e	74 1c		 je	 SHORT $LN33@operator
  00060	8a 42 02	 mov	 al, BYTE PTR [edx+2]
  00063	3a 41 02	 cmp	 al, BYTE PTR [ecx+2]
  00066	75 0d		 jne	 SHORT $LN37@operator
  00068	83 fe ff	 cmp	 esi, -1
  0006b	74 0f		 je	 SHORT $LN33@operator
  0006d	8a 42 03	 mov	 al, BYTE PTR [edx+3]
  00070	3a 41 03	 cmp	 al, BYTE PTR [ecx+3]
  00073	74 07		 je	 SHORT $LN33@operator
$LN37@operator:
  00075	1b c0		 sbb	 eax, eax
  00077	83 c8 01	 or	 eax, 1
  0007a	eb 02		 jmp	 SHORT $LN38@operator
$LN33@operator:
  0007c	33 c0		 xor	 eax, eax
$LN38@operator:

; 621  :     if (_Ans != 0) {

  0007e	85 c0		 test	 eax, eax
  00080	75 13		 jne	 SHORT $LN24@operator

; 622  :         return _Ans;
; 623  :     }
; 624  : 
; 625  :     if (_Left_size < _Right_size) {

  00082	3b fb		 cmp	 edi, ebx
  00084	76 0b		 jbe	 SHORT $LN51@operator
; File C:\Program Files\Microsoft Visual Studio\2022\Professional\VC\Tools\MSVC\14.44.35207\include\xstring

; 3308 :     return _Left.compare(_Right) < 0;

  00086	5f		 pop	 edi
; File C:\Program Files\Microsoft Visual Studio\2022\Professional\VC\Tools\MSVC\14.44.35207\include\__msvc_string_view.hpp

; 626  :         return -1;

  00087	83 c8 ff	 or	 eax, -1
; File C:\Program Files\Microsoft Visual Studio\2022\Professional\VC\Tools\MSVC\14.44.35207\include\xstring

; 3308 :     return _Left.compare(_Right) < 0;

  0008a	5e		 pop	 esi
  0008b	c1 e8 1f	 shr	 eax, 31			; 0000001fH
  0008e	5b		 pop	 ebx

; 3309 : }

  0008f	5d		 pop	 ebp
  00090	c3		 ret	 0
$LN51@operator:
; File C:\Program Files\Microsoft Visual Studio\2022\Professional\VC\Tools\MSVC\14.44.35207\include\__msvc_string_view.hpp

; 629  :     if (_Left_size > _Right_size) {

  00091	1b c0		 sbb	 eax, eax
  00093	f7 d8		 neg	 eax
$LN24@operator:
; File C:\Program Files\Microsoft Visual Studio\2022\Professional\VC\Tools\MSVC\14.44.35207\include\xstring

; 3308 :     return _Left.compare(_Right) < 0;

  00095	5f		 pop	 edi
  00096	5e		 pop	 esi
  00097	c1 e8 1f	 shr	 eax, 31			; 0000001fH
  0009a	5b		 pop	 ebx

; 3309 : }

  0009b	5d		 pop	 ebp
  0009c	c3		 ret	 0
??$?MDU?$char_traits@D@std@@V?$allocator@D@1@@std@@YA_NABV?$basic_string@DU?$char_traits@D@std@@V?$allocator@D@2@@0@0@Z ENDP ; std::operator<<char,std::char_traits<char>,std::allocator<char> >
_TEXT	ENDS
; Function compile flags: /Ogtp
;	COMDAT ??_G?$CItemContainer@VCItemElem@@@@UAEPAXI@Z
_TEXT	SEGMENT
___flags$ = 8						; size = 4
??_G?$CItemContainer@VCItemElem@@@@UAEPAXI@Z PROC	; CItemContainer<CItemElem>::`scalar deleting destructor', COMDAT
; _this$ = ecx
  00000	55		 push	 ebp
  00001	8b ec		 mov	 ebp, esp
  00003	56		 push	 esi
  00004	8b f1		 mov	 esi, ecx
  00006	e8 00 00 00 00	 call	 ??1?$CItemContainer@VCItemElem@@@@UAE@XZ ; CItemContainer<CItemElem>::~CItemContainer<CItemElem>
  0000b	f6 45 08 01	 test	 BYTE PTR ___flags$[ebp], 1
  0000f	74 0b		 je	 SHORT $LN5@scalar
  00011	6a 14		 push	 20			; 00000014H
  00013	56		 push	 esi
  00014	e8 00 00 00 00	 call	 ??3@YAXPAXI@Z		; operator delete
  00019	83 c4 08	 add	 esp, 8
$LN5@scalar:
  0001c	8b c6		 mov	 eax, esi
  0001e	5e		 pop	 esi
  0001f	5d		 pop	 ebp
  00020	c2 04 00	 ret	 4
??_G?$CItemContainer@VCItemElem@@@@UAEPAXI@Z ENDP	; CItemContainer<CItemElem>::`scalar deleting destructor'
_TEXT	ENDS
; Function compile flags: /Ogtp
; File C:\IAGOS\server\v18\Source\Source\_Common\Item.h
;	COMDAT ?RemoveAtId@?$CItemContainer@VCItemElem@@@@QAEXK@Z
_TEXT	SEGMENT
_dwObjId$ = 8						; size = 4
?RemoveAtId@?$CItemContainer@VCItemElem@@@@QAEXK@Z PROC	; CItemContainer<CItemElem>::RemoveAtId, COMDAT
; _this$ = ecx

; 764  : {

  00000	55		 push	 ebp
  00001	8b ec		 mov	 ebp, esp

; 765  : 	if( dwObjId >= m_dwItemMax )

  00003	8b 45 08	 mov	 eax, DWORD PTR _dwObjId$[ebp]
  00006	56		 push	 esi
  00007	8b f1		 mov	 esi, ecx
  00009	8b 56 0c	 mov	 edx, DWORD PTR [esi+12]
  0000c	3b c2		 cmp	 eax, edx
  0000e	73 38		 jae	 SHORT $LN4@RemoveAtId

; 766  : 		return;
; 767  : 	if( m_apItem[ dwObjId ].m_dwObjIndex >= m_dwItemMax )

  00010	8b 4e 10	 mov	 ecx, DWORD PTR [esi+16]
  00013	57		 push	 edi
  00014	69 f8 b0 00 00
	00		 imul	 edi, eax, 176
  0001a	03 cf		 add	 ecx, edi
  0001c	39 51 08	 cmp	 DWORD PTR [ecx+8], edx
  0001f	73 26		 jae	 SHORT $LN9@RemoveAtId

; 768  : 		return;
; 769  : 	m_apItem[ dwObjId ].Empty();

  00021	8b 01		 mov	 eax, DWORD PTR [ecx]
  00023	ff 50 0c	 call	 DWORD PTR [eax+12]

; 770  : 	if( m_apItem[ dwObjId ].m_dwObjIndex >= m_dwIndexNum )

  00026	8b 46 10	 mov	 eax, DWORD PTR [esi+16]
  00029	8b 4c 07 08	 mov	 ecx, DWORD PTR [edi+eax+8]
  0002d	3b 4e 08	 cmp	 ecx, DWORD PTR [esi+8]
  00030	72 15		 jb	 SHORT $LN9@RemoveAtId

; 771  : 	{
; 772  : 		m_apIndex[ m_apItem[ dwObjId ].m_dwObjIndex ] = NULL_ID;

  00032	8b 46 04	 mov	 eax, DWORD PTR [esi+4]
  00035	c7 04 88 ff ff
	ff ff		 mov	 DWORD PTR [eax+ecx*4], -1

; 773  : 		m_apItem[ dwObjId ].m_dwObjIndex = NULL_ID;

  0003c	8b 46 10	 mov	 eax, DWORD PTR [esi+16]
  0003f	c7 44 07 08 ff
	ff ff ff	 mov	 DWORD PTR [edi+eax+8], -1
$LN9@RemoveAtId:
  00047	5f		 pop	 edi
$LN4@RemoveAtId:
  00048	5e		 pop	 esi

; 774  : 	}
; 775  : }

  00049	5d		 pop	 ebp
  0004a	c2 04 00	 ret	 4
?RemoveAtId@?$CItemContainer@VCItemElem@@@@QAEXK@Z ENDP	; CItemContainer<CItemElem>::RemoveAtId
_TEXT	ENDS
; Function compile flags: /Ogtp
; File C:\IAGOS\server\v18\Source\Source\_Common\Item.h
;	COMDAT ?GetAtId@?$CItemContainer@VCItemElem@@@@QAEPAVCItemElem@@K@Z
_TEXT	SEGMENT
_dwId$ = 8						; size = 4
?GetAtId@?$CItemContainer@VCItemElem@@@@QAEPAVCItemElem@@K@Z PROC ; CItemContainer<CItemElem>::GetAtId, COMDAT
; _this$ = ecx

; 518  : {

  00000	55		 push	 ebp
  00001	8b ec		 mov	 ebp, esp

; 519  : 	if( dwId >= (DWORD)( GetMax() ) ) return NULL;

  00003	8b 45 08	 mov	 eax, DWORD PTR _dwId$[ebp]
  00006	3b 41 0c	 cmp	 eax, DWORD PTR [ecx+12]
  00009	73 15		 jae	 SHORT $LN7@GetAtId

; 520  : 	T* pItemElem = &m_apItem[ dwId ];

  0000b	69 c0 b0 00 00
	00		 imul	 eax, eax, 176
  00011	03 41 10	 add	 eax, DWORD PTR [ecx+16]

; 50   : 	BOOL			IsEmpty() { return m_dwItemId ? FALSE : TRUE; }

  00014	33 c9		 xor	 ecx, ecx
  00016	39 48 0c	 cmp	 DWORD PTR [eax+12], ecx
  00019	0f 44 c1	 cmove	 eax, ecx

; 523  : 	return pItemElem;
; 524  : }

  0001c	5d		 pop	 ebp
  0001d	c2 04 00	 ret	 4
$LN7@GetAtId:

; 521  : 	if( pItemElem->IsEmpty() ) 
; 522  : 		return NULL;

  00020	33 c0		 xor	 eax, eax

; 523  : 	return pItemElem;
; 524  : }

  00022	5d		 pop	 ebp
  00023	c2 04 00	 ret	 4
?GetAtId@?$CItemContainer@VCItemElem@@@@QAEPAVCItemElem@@K@Z ENDP ; CItemContainer<CItemElem>::GetAtId
_TEXT	ENDS
; Function compile flags: /Ogtp
; File C:\IAGOS\server\v18\Source\Source\_Common\Item.h
;	COMDAT ?Clear@?$CItemContainer@VCItemElem@@@@QAEXXZ
_TEXT	SEGMENT
?Clear@?$CItemContainer@VCItemElem@@@@QAEXXZ PROC	; CItemContainer<CItemElem>::Clear, COMDAT
; _this$ = ecx

; 483  : {

  00000	56		 push	 esi
  00001	57		 push	 edi
  00002	8b f9		 mov	 edi, ecx

; 484  : 	for( DWORD i = 0; i < m_dwItemMax; i++ )

  00004	33 f6		 xor	 esi, esi
  00006	39 77 0c	 cmp	 DWORD PTR [edi+12], esi
  00009	76 41		 jbe	 SHORT $LN3@Clear
  0000b	53		 push	 ebx
  0000c	33 db		 xor	 ebx, ebx
  0000e	66 90		 npad	 2
$LL4@Clear:

; 485  : 	{
; 486  : 		m_apItem[ i ].Empty();

  00010	8b 4f 10	 mov	 ecx, DWORD PTR [edi+16]
  00013	03 cb		 add	 ecx, ebx
  00015	8b 01		 mov	 eax, DWORD PTR [ecx]
  00017	ff 50 0c	 call	 DWORD PTR [eax+12]

; 487  : 		m_apItem[ i ].m_dwObjId = i;

  0001a	8b 47 10	 mov	 eax, DWORD PTR [edi+16]
  0001d	89 74 18 04	 mov	 DWORD PTR [eax+ebx+4], esi

; 488  : 		if( i < m_dwIndexNum )

  00021	3b 77 08	 cmp	 esi, DWORD PTR [edi+8]
  00024	73 0f		 jae	 SHORT $LN5@Clear

; 489  : 		{
; 490  : 			m_apItem[ i ].m_dwObjIndex = i;

  00026	8b 47 10	 mov	 eax, DWORD PTR [edi+16]
  00029	89 74 18 08	 mov	 DWORD PTR [eax+ebx+8], esi

; 491  : 			m_apIndex[ i ] = i;

  0002d	8b 47 04	 mov	 eax, DWORD PTR [edi+4]
  00030	89 34 b0	 mov	 DWORD PTR [eax+esi*4], esi

; 492  : 		}

  00033	eb 0a		 jmp	 SHORT $LN2@Clear
$LN5@Clear:

; 493  : 		else 
; 494  : 		{
; 495  : 			m_apIndex[ i ] = NULL_ID;

  00035	8b 47 04	 mov	 eax, DWORD PTR [edi+4]
  00038	c7 04 b0 ff ff
	ff ff		 mov	 DWORD PTR [eax+esi*4], -1
$LN2@Clear:

; 484  : 	for( DWORD i = 0; i < m_dwItemMax; i++ )

  0003f	46		 inc	 esi
  00040	81 c3 b0 00 00
	00		 add	 ebx, 176		; 000000b0H
  00046	3b 77 0c	 cmp	 esi, DWORD PTR [edi+12]
  00049	72 c5		 jb	 SHORT $LL4@Clear
  0004b	5b		 pop	 ebx
$LN3@Clear:
  0004c	5f		 pop	 edi

; 496  : 		}
; 497  : 	}
; 498  : }

  0004d	5e		 pop	 esi
  0004e	c3		 ret	 0
?Clear@?$CItemContainer@VCItemElem@@@@QAEXXZ ENDP	; CItemContainer<CItemElem>::Clear
_TEXT	ENDS
; Function compile flags: /Ogtp
; File C:\IAGOS\server\v18\Source\Source\_Common\Item.h
;	COMDAT ??1?$CItemContainer@VCItemElem@@@@UAE@XZ
_TEXT	SEGMENT
??1?$CItemContainer@VCItemElem@@@@UAE@XZ PROC		; CItemContainer<CItemElem>::~CItemContainer<CItemElem>, COMDAT
; _this$ = ecx

; 477  : {

  00000	56		 push	 esi
  00001	8b f1		 mov	 esi, ecx

; 478  : 	SAFE_DELETE_ARRAY( m_apItem );

  00003	8b 4e 10	 mov	 ecx, DWORD PTR [esi+16]
  00006	c7 06 00 00 00
	00		 mov	 DWORD PTR [esi], OFFSET ??_7?$CItemContainer@VCItemElem@@@@6B@
  0000c	85 c9		 test	 ecx, ecx
  0000e	74 23		 je	 SHORT $LN2@CItemConta
  00010	83 79 fc 00	 cmp	 DWORD PTR [ecx-4], 0
  00014	8d 41 fc	 lea	 eax, DWORD PTR [ecx-4]
  00017	74 08		 je	 SHORT $LN5@CItemConta
  00019	8b 01		 mov	 eax, DWORD PTR [ecx]
  0001b	6a 03		 push	 3
  0001d	ff 10		 call	 DWORD PTR [eax]
  0001f	eb 0b		 jmp	 SHORT $LN6@CItemConta
$LN5@CItemConta:
  00021	6a 04		 push	 4
  00023	50		 push	 eax
  00024	e8 00 00 00 00	 call	 ??_V@YAXPAXI@Z		; operator delete[]
  00029	83 c4 08	 add	 esp, 8
$LN6@CItemConta:
  0002c	c7 46 10 00 00
	00 00		 mov	 DWORD PTR [esi+16], 0
$LN2@CItemConta:

; 479  : 	SAFE_DELETE_ARRAY( m_apIndex );

  00033	8b 46 04	 mov	 eax, DWORD PTR [esi+4]
  00036	85 c0		 test	 eax, eax
  00038	74 10		 je	 SHORT $LN3@CItemConta
  0003a	50		 push	 eax
  0003b	e8 00 00 00 00	 call	 ??_V@YAXPAX@Z		; operator delete[]
  00040	83 c4 04	 add	 esp, 4
  00043	c7 46 04 00 00
	00 00		 mov	 DWORD PTR [esi+4], 0
$LN3@CItemConta:

; 480  : }

  0004a	5e		 pop	 esi
  0004b	c3		 ret	 0
??1?$CItemContainer@VCItemElem@@@@UAE@XZ ENDP		; CItemContainer<CItemElem>::~CItemContainer<CItemElem>
_TEXT	ENDS
; Function compile flags: /Ogtp
; File C:\IAGOS\server\v18\Source\Source\_Common\Item.h
;	COMDAT ??0?$CItemContainer@VCItemElem@@@@QAE@XZ
_TEXT	SEGMENT
??0?$CItemContainer@VCItemElem@@@@QAE@XZ PROC		; CItemContainer<CItemElem>::CItemContainer<CItemElem>, COMDAT
; _this$ = ecx

; 462  : {

  00000	c7 01 00 00 00
	00		 mov	 DWORD PTR [ecx], OFFSET ??_7?$CItemContainer@VCItemElem@@@@6B@

; 463  : 	m_dwIndexNum = 0;
; 464  : 	m_dwItemMax = 0;
; 465  : 
; 466  : 	m_apItem = NULL;
; 467  : 	m_apIndex = NULL;
; 468  : }

  00006	8b c1		 mov	 eax, ecx
  00008	c7 41 08 00 00
	00 00		 mov	 DWORD PTR [ecx+8], 0
  0000f	c7 41 0c 00 00
	00 00		 mov	 DWORD PTR [ecx+12], 0
  00016	c7 41 10 00 00
	00 00		 mov	 DWORD PTR [ecx+16], 0
  0001d	c7 41 04 00 00
	00 00		 mov	 DWORD PTR [ecx+4], 0
  00024	c3		 ret	 0
??0?$CItemContainer@VCItemElem@@@@QAE@XZ ENDP		; CItemContainer<CItemElem>::CItemContainer<CItemElem>
_TEXT	ENDS
; Function compile flags: /Ogtp
; File C:\IAGOS\server\v18\Source\Source\_Common\Item.h
;	COMDAT ?SetItemContainer@?$CItemContainer@VCItemElem@@@@QAEXKKK@Z
_TEXT	SEGMENT
__$EHRec$ = -12						; size = 12
_dwItemType$ = 8					; size = 4
_dwItemMax$ = 12					; size = 4
$T2 = 12						; size = 4
_dwExtra$ = 16						; size = 4
$T3 = 16						; size = 4
?SetItemContainer@?$CItemContainer@VCItemElem@@@@QAEXKKK@Z PROC ; CItemContainer<CItemElem>::SetItemContainer, COMDAT
; _this$ = ecx

; 501  : {

  00000	55		 push	 ebp
  00001	8b ec		 mov	 ebp, esp
  00003	6a ff		 push	 -1
  00005	68 00 00 00 00	 push	 __ehhandler$?SetItemContainer@?$CItemContainer@VCItemElem@@@@QAEXKKK@Z
  0000a	64 a1 00 00 00
	00		 mov	 eax, DWORD PTR fs:0
  00010	50		 push	 eax
  00011	53		 push	 ebx
  00012	56		 push	 esi
  00013	57		 push	 edi
  00014	a1 00 00 00 00	 mov	 eax, DWORD PTR ___security_cookie
  00019	33 c5		 xor	 eax, ebp
  0001b	50		 push	 eax
  0001c	8d 45 f4	 lea	 eax, DWORD PTR __$EHRec$[ebp]
  0001f	64 a3 00 00 00
	00		 mov	 DWORD PTR fs:0, eax
  00025	8b f1		 mov	 esi, ecx

; 502  : 	m_dwIndexNum = dwItemMax;

  00027	8b 45 0c	 mov	 eax, DWORD PTR _dwItemMax$[ebp]

; 503  : 	m_dwItemMax = dwItemMax;
; 504  : 	if( dwExtra != NULL_ID )

  0002a	8b 4d 10	 mov	 ecx, DWORD PTR _dwExtra$[ebp]
  0002d	89 46 08	 mov	 DWORD PTR [esi+8], eax
  00030	89 46 0c	 mov	 DWORD PTR [esi+12], eax
  00033	83 f9 ff	 cmp	 ecx, -1
  00036	74 05		 je	 SHORT $LN2@SetItemCon

; 505  : 		m_dwItemMax += dwExtra;

  00038	03 c1		 add	 eax, ecx
  0003a	89 46 0c	 mov	 DWORD PTR [esi+12], eax
$LN2@SetItemCon:

; 506  : 	
; 507  : 	SAFE_DELETE_ARRAY( m_apItem );

  0003d	8b 4e 10	 mov	 ecx, DWORD PTR [esi+16]
  00040	85 c9		 test	 ecx, ecx
  00042	74 23		 je	 SHORT $LN3@SetItemCon
  00044	83 79 fc 00	 cmp	 DWORD PTR [ecx-4], 0
  00048	8d 41 fc	 lea	 eax, DWORD PTR [ecx-4]
  0004b	74 08		 je	 SHORT $LN6@SetItemCon
  0004d	8b 01		 mov	 eax, DWORD PTR [ecx]
  0004f	6a 03		 push	 3
  00051	ff 10		 call	 DWORD PTR [eax]
  00053	eb 0b		 jmp	 SHORT $LN7@SetItemCon
$LN6@SetItemCon:
  00055	6a 04		 push	 4
  00057	50		 push	 eax
  00058	e8 00 00 00 00	 call	 ??_V@YAXPAXI@Z		; operator delete[]
  0005d	83 c4 08	 add	 esp, 8
$LN7@SetItemCon:
  00060	c7 46 10 00 00
	00 00		 mov	 DWORD PTR [esi+16], 0
$LN3@SetItemCon:

; 508  : 	SAFE_DELETE_ARRAY( m_apIndex );

  00067	8b 46 04	 mov	 eax, DWORD PTR [esi+4]
  0006a	85 c0		 test	 eax, eax
  0006c	74 10		 je	 SHORT $LN4@SetItemCon
  0006e	50		 push	 eax
  0006f	e8 00 00 00 00	 call	 ??_V@YAXPAX@Z		; operator delete[]
  00074	83 c4 04	 add	 esp, 4
  00077	c7 46 04 00 00
	00 00		 mov	 DWORD PTR [esi+4], 0
$LN4@SetItemCon:

; 509  : 
; 510  : 	m_apItem = new T[ m_dwItemMax ];

  0007e	8b 5e 0c	 mov	 ebx, DWORD PTR [esi+12]
  00081	b9 b0 00 00 00	 mov	 ecx, 176		; 000000b0H
  00086	8b c3		 mov	 eax, ebx
  00088	89 5d 0c	 mov	 DWORD PTR $T2[ebp], ebx
  0008b	f7 e1		 mul	 ecx
  0008d	b9 ff ff ff ff	 mov	 ecx, -1
  00092	0f 42 c1	 cmovb	 eax, ecx
  00095	83 c0 04	 add	 eax, 4
  00098	0f 42 c1	 cmovb	 eax, ecx
  0009b	50		 push	 eax
  0009c	e8 00 00 00 00	 call	 ??_U@YAPAXI@Z		; operator new[]
  000a1	83 c4 04	 add	 esp, 4
  000a4	89 45 10	 mov	 DWORD PTR $T3[ebp], eax
  000a7	c7 45 fc 00 00
	00 00		 mov	 DWORD PTR __$EHRec$[ebp+8], 0
  000ae	85 c0		 test	 eax, eax
  000b0	74 1d		 je	 SHORT $LN10@SetItemCon
  000b2	68 00 00 00 00	 push	 OFFSET ??1CItemElem@@UAE@XZ ; CItemElem::~CItemElem
  000b7	68 00 00 00 00	 push	 OFFSET ??0CItemElem@@QAE@XZ ; CItemElem::CItemElem
  000bc	53		 push	 ebx
  000bd	8d 78 04	 lea	 edi, DWORD PTR [eax+4]
  000c0	89 18		 mov	 DWORD PTR [eax], ebx
  000c2	68 b0 00 00 00	 push	 176			; 000000b0H
  000c7	57		 push	 edi
  000c8	e8 00 00 00 00	 call	 ??_L@YGXPAXIIP6EX0@Z1@Z
  000cd	eb 02		 jmp	 SHORT $LN11@SetItemCon
$LN10@SetItemCon:
  000cf	33 ff		 xor	 edi, edi
$LN11@SetItemCon:

; 511  : 	m_apIndex = new DWORD[ m_dwItemMax ];

  000d1	8b 46 0c	 mov	 eax, DWORD PTR [esi+12]
  000d4	b9 04 00 00 00	 mov	 ecx, 4
  000d9	f7 e1		 mul	 ecx
  000db	b9 ff ff ff ff	 mov	 ecx, -1
  000e0	c7 45 fc ff ff
	ff ff		 mov	 DWORD PTR __$EHRec$[ebp+8], -1
  000e7	89 7e 10	 mov	 DWORD PTR [esi+16], edi
  000ea	0f 42 c1	 cmovb	 eax, ecx
  000ed	50		 push	 eax
  000ee	e8 00 00 00 00	 call	 ??_U@YAPAXI@Z		; operator new[]
  000f3	83 c4 04	 add	 esp, 4
  000f6	89 46 04	 mov	 DWORD PTR [esi+4], eax

; 512  : 	Clear();

  000f9	8b ce		 mov	 ecx, esi
  000fb	e8 00 00 00 00	 call	 ?Clear@?$CItemContainer@VCItemElem@@@@QAEXXZ ; CItemContainer<CItemElem>::Clear

; 513  : }

  00100	8b 4d f4	 mov	 ecx, DWORD PTR __$EHRec$[ebp]
  00103	64 89 0d 00 00
	00 00		 mov	 DWORD PTR fs:0, ecx
  0010a	59		 pop	 ecx
  0010b	5f		 pop	 edi
  0010c	5e		 pop	 esi
  0010d	5b		 pop	 ebx
  0010e	8b e5		 mov	 esp, ebp
  00110	5d		 pop	 ebp
  00111	c2 0c 00	 ret	 12			; 0000000cH
_TEXT	ENDS
;	COMDAT text$x
text$x	SEGMENT
__unwindfunclet$?SetItemContainer@?$CItemContainer@VCItemElem@@@@QAEXKKK@Z$0:
  00000	8b 45 0c	 mov	 eax, DWORD PTR $T2[ebp]
  00003	b9 b0 00 00 00	 mov	 ecx, 176		; 000000b0H
  00008	f7 e1		 mul	 ecx
  0000a	8b c8		 mov	 ecx, eax
  0000c	b8 ff ff ff ff	 mov	 eax, -1
  00011	0f 42 c8	 cmovb	 ecx, eax
  00014	83 c1 04	 add	 ecx, 4
  00017	b8 ff ff ff ff	 mov	 eax, -1
  0001c	0f 42 c8	 cmovb	 ecx, eax
  0001f	51		 push	 ecx
  00020	8b 45 10	 mov	 eax, DWORD PTR $T3[ebp]
  00023	50		 push	 eax
  00024	e8 00 00 00 00	 call	 ??_V@YAXPAXI@Z		; operator delete[]
  00029	83 c4 08	 add	 esp, 8
  0002c	c3		 ret	 0
  0002d	cc		 int	 3
  0002e	cc		 int	 3
  0002f	cc		 int	 3
  00030	cc		 int	 3
  00031	cc		 int	 3
__ehhandler$?SetItemContainer@?$CItemContainer@VCItemElem@@@@QAEXKKK@Z:
  00032	90		 npad	 1
  00033	90		 npad	 1
  00034	8b 54 24 08	 mov	 edx, DWORD PTR [esp+8]
  00038	8d 42 0c	 lea	 eax, DWORD PTR [edx+12]
  0003b	8b 4a f0	 mov	 ecx, DWORD PTR [edx-16]
  0003e	33 c8		 xor	 ecx, eax
  00040	e8 00 00 00 00	 call	 @__security_check_cookie@4
  00045	b8 00 00 00 00	 mov	 eax, OFFSET __ehfuncinfo$?SetItemContainer@?$CItemContainer@VCItemElem@@@@QAEXKKK@Z
  0004a	e9 00 00 00 00	 jmp	 ___CxxFrameHandler3
text$x	ENDS
?SetItemContainer@?$CItemContainer@VCItemElem@@@@QAEXKKK@Z ENDP ; CItemContainer<CItemElem>::SetItemContainer
; Function compile flags: /Ogtp
;	COMDAT ??_ECItemElem@@UAEPAXI@Z
_TEXT	SEGMENT
__$EHRec$ = -12						; size = 12
___flags$ = 8						; size = 4
??_ECItemElem@@UAEPAXI@Z PROC				; CItemElem::`vector deleting destructor', COMDAT
; _this$ = ecx
  00000	55		 push	 ebp
  00001	8b ec		 mov	 ebp, esp
  00003	6a ff		 push	 -1
  00005	68 00 00 00 00	 push	 __ehhandler$??_ECItemElem@@UAEPAXI@Z
  0000a	64 a1 00 00 00
	00		 mov	 eax, DWORD PTR fs:0
  00010	50		 push	 eax
  00011	53		 push	 ebx
  00012	56		 push	 esi
  00013	57		 push	 edi
  00014	a1 00 00 00 00	 mov	 eax, DWORD PTR ___security_cookie
  00019	33 c5		 xor	 eax, ebp
  0001b	50		 push	 eax
  0001c	8d 45 f4	 lea	 eax, DWORD PTR __$EHRec$[ebp]
  0001f	64 a3 00 00 00
	00		 mov	 DWORD PTR fs:0, eax
  00025	8b f1		 mov	 esi, ecx
  00027	8b 45 08	 mov	 eax, DWORD PTR ___flags$[ebp]
  0002a	8b f8		 mov	 edi, eax
  0002c	83 e7 01	 and	 edi, 1
  0002f	a8 02		 test	 al, 2
  00031	74 43		 je	 SHORT $LN2@vector
  00033	68 00 00 00 00	 push	 OFFSET ??1CItemElem@@UAE@XZ ; CItemElem::~CItemElem
  00038	ff 76 fc	 push	 DWORD PTR [esi-4]
  0003b	8d 5e fc	 lea	 ebx, DWORD PTR [esi-4]
  0003e	68 b0 00 00 00	 push	 176			; 000000b0H
  00043	56		 push	 esi
  00044	e8 00 00 00 00	 call	 ??_M@YGXPAXIIP6EX0@Z@Z
  00049	85 ff		 test	 edi, edi
  0004b	74 13		 je	 SHORT $LN3@vector
  0004d	69 0b b0 00 00
	00		 imul	 ecx, DWORD PTR [ebx], 176
  00053	83 c1 04	 add	 ecx, 4
  00056	51		 push	 ecx
  00057	53		 push	 ebx
  00058	e8 00 00 00 00	 call	 ??_V@YAXPAXI@Z		; operator delete[]
  0005d	83 c4 08	 add	 esp, 8
$LN3@vector:
  00060	8b c3		 mov	 eax, ebx
  00062	8b 4d f4	 mov	 ecx, DWORD PTR __$EHRec$[ebp]
  00065	64 89 0d 00 00
	00 00		 mov	 DWORD PTR fs:0, ecx
  0006c	59		 pop	 ecx
  0006d	5f		 pop	 edi
  0006e	5e		 pop	 esi
  0006f	5b		 pop	 ebx
  00070	8b e5		 mov	 esp, ebp
  00072	5d		 pop	 ebp
  00073	c2 04 00	 ret	 4
$LN2@vector:
  00076	e8 00 00 00 00	 call	 ??1CItemElem@@UAE@XZ	; CItemElem::~CItemElem
  0007b	85 ff		 test	 edi, edi
  0007d	74 0e		 je	 SHORT $LN4@vector
  0007f	68 b0 00 00 00	 push	 176			; 000000b0H
  00084	56		 push	 esi
  00085	e8 00 00 00 00	 call	 ??3@YAXPAXI@Z		; operator delete
  0008a	83 c4 08	 add	 esp, 8
$LN4@vector:
  0008d	8b c6		 mov	 eax, esi
  0008f	8b 4d f4	 mov	 ecx, DWORD PTR __$EHRec$[ebp]
  00092	64 89 0d 00 00
	00 00		 mov	 DWORD PTR fs:0, ecx
  00099	59		 pop	 ecx
  0009a	5f		 pop	 edi
  0009b	5e		 pop	 esi
  0009c	5b		 pop	 ebx
  0009d	8b e5		 mov	 esp, ebp
  0009f	5d		 pop	 ebp
  000a0	c2 04 00	 ret	 4
  000a3	cc		 int	 3
  000a4	cc		 int	 3
  000a5	cc		 int	 3
  000a6	cc		 int	 3
  000a7	cc		 int	 3
_TEXT	ENDS
;	COMDAT text$x
text$x	SEGMENT
__ehhandler$??_ECItemElem@@UAEPAXI@Z:
  00000	90		 npad	 1
  00001	90		 npad	 1
  00002	8b 54 24 08	 mov	 edx, DWORD PTR [esp+8]
  00006	8d 42 0c	 lea	 eax, DWORD PTR [edx+12]
  00009	8b 4a f0	 mov	 ecx, DWORD PTR [edx-16]
  0000c	33 c8		 xor	 ecx, eax
  0000e	e8 00 00 00 00	 call	 @__security_check_cookie@4
  00013	b8 00 00 00 00	 mov	 eax, OFFSET __ehfuncinfo$??_ECItemElem@@UAEPAXI@Z
  00018	e9 00 00 00 00	 jmp	 ___CxxFrameHandler3
text$x	ENDS
??_ECItemElem@@UAEPAXI@Z ENDP				; CItemElem::`vector deleting destructor'
; Function compile flags: /Ogtp
; File C:\IAGOS\server\v18\Source\Source\_Common\guildquest.h
;	COMDAT ??0_GUILDQUEST@@QAE@XZ
_TEXT	SEGMENT
??0_GUILDQUEST@@QAE@XZ PROC				; _GUILDQUEST::_GUILDQUEST, COMDAT
; _this$ = ecx

; 47   : 		{
; 48   : 			nId		= -1;

  00000	c7 01 ff ff ff
	ff		 mov	 DWORD PTR [ecx], -1

; 49   : 			nState	= 0;
; 50   : 			idGuild		= 0;
; 51   : 		};

  00006	8b c1		 mov	 eax, ecx
  00008	c7 41 04 00 00
	00 00		 mov	 DWORD PTR [ecx+4], 0
  0000f	c7 41 08 00 00
	00 00		 mov	 DWORD PTR [ecx+8], 0
  00016	c3		 ret	 0
??0_GUILDQUEST@@QAE@XZ ENDP				; _GUILDQUEST::_GUILDQUEST
_TEXT	ENDS
; Function compile flags: /Ogtp
; File C:\Program Files\Microsoft Visual Studio\2022\Professional\VC\Tools\MSVC\14.44.35207\include\xtree
;	COMDAT ?_Throw_tree_length_error@std@@YAXXZ
_TEXT	SEGMENT
?_Throw_tree_length_error@std@@YAXXZ PROC		; std::_Throw_tree_length_error, COMDAT

; 417  :     _Xlength_error("map/set too long");

  00000	68 00 00 00 00	 push	 OFFSET ??_C@_0BB@GCADKGJO@map?1set?5too?5long@
  00005	e8 00 00 00 00	 call	 ?_Xlength_error@std@@YAXPBD@Z ; std::_Xlength_error
$LN3@Throw_tree:
  0000a	cc		 int	 3
?_Throw_tree_length_error@std@@YAXXZ ENDP		; std::_Throw_tree_length_error
_TEXT	ENDS
; Function compile flags: /Ogtp
; File C:\Program Files\Microsoft Visual Studio\2022\Professional\VC\Tools\MSVC\14.44.35207\include\xstring
; File C:\Program Files\Microsoft Visual Studio\2022\Professional\VC\Tools\MSVC\14.44.35207\include\xmemory
; File C:\Program Files\Microsoft Visual Studio\2022\Professional\VC\Tools\MSVC\14.44.35207\include\xstring
; File C:\Program Files\Microsoft Visual Studio\2022\Professional\VC\Tools\MSVC\14.44.35207\include\xmemory
; File C:\Program Files\Microsoft Visual Studio\2022\Professional\VC\Tools\MSVC\14.44.35207\include\xstring
; File C:\Program Files\Microsoft Visual Studio\2022\Professional\VC\Tools\MSVC\14.44.35207\include\xmemory
; File C:\Program Files\Microsoft Visual Studio\2022\Professional\VC\Tools\MSVC\14.44.35207\include\xstring
;	COMDAT ??1?$basic_string@DU?$char_traits@D@std@@V?$allocator@D@2@@std@@QAE@XZ
_TEXT	SEGMENT
??1?$basic_string@DU?$char_traits@D@std@@V?$allocator@D@2@@std@@QAE@XZ PROC ; std::basic_string<char,std::char_traits<char>,std::allocator<char> >::~basic_string<char,std::char_traits<char>,std::allocator<char> >, COMDAT
; _this$ = ecx

; 1382 :     _CONSTEXPR20 ~basic_string() noexcept {

  00000	56		 push	 esi
  00001	8b f1		 mov	 esi, ecx

; 453  :         return _Myres > _Small_string_capacity;

  00003	8b 4e 14	 mov	 ecx, DWORD PTR [esi+20]
  00006	83 f9 0f	 cmp	 ecx, 15			; 0000000fH

; 3083 :         if (_My_data._Large_mode_engaged()) {

  00009	76 27		 jbe	 SHORT $LN19@basic_stri
; File C:\Program Files\Microsoft Visual Studio\2022\Professional\VC\Tools\MSVC\14.44.35207\include\xmemory

; 985  :         _STD _Deallocate<_New_alignof<_Ty>>(_Ptr, sizeof(_Ty) * _Count);

  0000b	8b 06		 mov	 eax, DWORD PTR [esi]
; File C:\Program Files\Microsoft Visual Studio\2022\Professional\VC\Tools\MSVC\14.44.35207\include\xstring

; 852  :         _Al.deallocate(_Old_ptr, _Capacity + 1); // +1 for null terminator

  0000d	41		 inc	 ecx
; File C:\Program Files\Microsoft Visual Studio\2022\Professional\VC\Tools\MSVC\14.44.35207\include\xmemory

; 284  :         if (_Bytes >= _Big_allocation_threshold) {

  0000e	81 f9 00 10 00
	00		 cmp	 ecx, 4096		; 00001000H
  00014	72 12		 jb	 SHORT $LN24@basic_stri

; 205  :     const uintptr_t _Ptr_container   = _Ptr_user[-1];

  00016	8b 50 fc	 mov	 edx, DWORD PTR [eax-4]
  00019	83 c1 23	 add	 ecx, 35			; 00000023H

; 206  : 
; 207  :     // If the following asserts, it likely means that we are performing
; 208  :     // an aligned delete on memory coming from an unaligned allocation.
; 209  :     _STL_ASSERT(_Ptr_user[-2] == _Big_allocation_sentinel, "invalid argument");
; 210  : 
; 211  :     // Extra paranoia on aligned allocation/deallocation; ensure _Ptr_container is
; 212  :     // in range [_Min_back_shift, _Non_user_size]
; 213  : #ifdef _DEBUG
; 214  :     constexpr uintptr_t _Min_back_shift = 2 * sizeof(void*);
; 215  : #else // ^^^ defined(_DEBUG) / !defined(_DEBUG) vvv
; 216  :     constexpr uintptr_t _Min_back_shift = sizeof(void*);
; 217  : #endif // ^^^ !defined(_DEBUG) ^^^
; 218  :     const uintptr_t _Back_shift = reinterpret_cast<uintptr_t>(_Ptr) - _Ptr_container;

  0001c	2b c2		 sub	 eax, edx

; 219  :     _STL_VERIFY(_Back_shift >= _Min_back_shift && _Back_shift <= _Non_user_size, "invalid argument");

  0001e	83 c0 fc	 add	 eax, -4			; fffffffcH
  00021	83 f8 1f	 cmp	 eax, 31			; 0000001fH
  00024	77 1f		 ja	 SHORT $LN23@basic_stri

; 220  :     _Ptr = reinterpret_cast<void*>(_Ptr_container);

  00026	8b c2		 mov	 eax, edx
$LN24@basic_stri:

; 289  :         ::operator delete(_Ptr, _Bytes);

  00028	51		 push	 ecx
  00029	50		 push	 eax
  0002a	e8 00 00 00 00	 call	 ??3@YAXPAXI@Z		; operator delete
  0002f	83 c4 08	 add	 esp, 8
$LN19@basic_stri:
; File C:\Program Files\Microsoft Visual Studio\2022\Professional\VC\Tools\MSVC\14.44.35207\include\xstring

; 3090 :         _My_data._Mysize = 0;

  00032	c7 46 10 00 00
	00 00		 mov	 DWORD PTR [esi+16], 0

; 3091 :         _My_data._Myres  = _Small_string_capacity;

  00039	c7 46 14 0f 00
	00 00		 mov	 DWORD PTR [esi+20], 15	; 0000000fH

; 3092 :         // the _Traits::assign is last so the codegen doesn't think the char write can alias this
; 3093 :         _Traits::assign(_My_data._Bx._Buf[0], _Elem());

  00040	c6 06 00	 mov	 BYTE PTR [esi], 0
  00043	5e		 pop	 esi

; 1390 :     }

  00044	c3		 ret	 0
$LN23@basic_stri:
; File C:\Program Files\Microsoft Visual Studio\2022\Professional\VC\Tools\MSVC\14.44.35207\include\xmemory

; 219  :     _STL_VERIFY(_Back_shift >= _Min_back_shift && _Back_shift <= _Non_user_size, "invalid argument");

  00045	6a 00		 push	 0
  00047	6a 00		 push	 0
  00049	6a 00		 push	 0
  0004b	6a 00		 push	 0
  0004d	6a 00		 push	 0
  0004f	e8 00 00 00 00	 call	 __invoke_watson
$LN33@basic_stri:
  00054	cc		 int	 3
??1?$basic_string@DU?$char_traits@D@std@@V?$allocator@D@2@@std@@QAE@XZ ENDP ; std::basic_string<char,std::char_traits<char>,std::allocator<char> >::~basic_string<char,std::char_traits<char>,std::allocator<char> >
_TEXT	ENDS
; Function compile flags: /Ogtp
; File C:\Program Files\Microsoft Visual Studio\2022\Professional\VC\Tools\MSVC\14.44.35207\include\xstring
; File C:\Program Files\Microsoft Visual Studio\2022\Professional\VC\Tools\MSVC\14.44.35207\include\__msvc_string_view.hpp
; File C:\Program Files\Microsoft Visual Studio\2022\Professional\VC\Tools\MSVC\14.44.35207\include\xstring
; File C:\Program Files\Microsoft Visual Studio\2022\Professional\VC\Tools\MSVC\14.44.35207\include\__msvc_string_view.hpp
; File C:\Program Files\Microsoft Visual Studio\2022\Professional\VC\Tools\MSVC\14.44.35207\include\xstring
; File C:\Program Files\Microsoft Visual Studio\2022\Professional\VC\Tools\MSVC\14.44.35207\include\__msvc_string_view.hpp
; File C:\Program Files\Microsoft Visual Studio\2022\Professional\VC\Tools\MSVC\14.44.35207\include\xstring
; File C:\Program Files\Microsoft Visual Studio\2022\Professional\VC\Tools\MSVC\14.44.35207\include\__msvc_string_view.hpp
; File C:\Program Files\Microsoft Visual Studio\2022\Professional\VC\Tools\MSVC\14.44.35207\include\xstring
; File C:\Program Files\Microsoft Visual Studio\2022\Professional\VC\Tools\MSVC\14.44.35207\include\xmemory
; File C:\Program Files\Microsoft Visual Studio\2022\Professional\VC\Tools\MSVC\14.44.35207\include\xstring
; File C:\Program Files\Microsoft Visual Studio\2022\Professional\VC\Tools\MSVC\14.44.35207\include\xmemory
; File C:\Program Files\Microsoft Visual Studio\2022\Professional\VC\Tools\MSVC\14.44.35207\include\xstring
; File C:\Program Files\Microsoft Visual Studio\2022\Professional\VC\Tools\MSVC\14.44.35207\include\__msvc_string_view.hpp
; File C:\Program Files\Microsoft Visual Studio\2022\Professional\VC\Tools\MSVC\14.44.35207\include\xstring
; File C:\Program Files\Microsoft Visual Studio\2022\Professional\VC\Tools\MSVC\14.44.35207\include\__msvc_string_view.hpp
; File C:\Program Files\Microsoft Visual Studio\2022\Professional\VC\Tools\MSVC\14.44.35207\include\xstring
; File C:\Program Files\Microsoft Visual Studio\2022\Professional\VC\Tools\MSVC\14.44.35207\include\__msvc_string_view.hpp
; File C:\Program Files\Microsoft Visual Studio\2022\Professional\VC\Tools\MSVC\14.44.35207\include\xstring
;	COMDAT ??0?$basic_string@DU?$char_traits@D@std@@V?$allocator@D@2@@std@@QAE@QBD@Z
_TEXT	SEGMENT
$T1 = -4						; size = 4
__Ptr$ = 8						; size = 4
??0?$basic_string@DU?$char_traits@D@std@@V?$allocator@D@2@@std@@QAE@QBD@Z PROC ; std::basic_string<char,std::char_traits<char>,std::allocator<char> >::basic_string<char,std::char_traits<char>,std::allocator<char> >, COMDAT
; _this$ = ecx

; 768  :     _CONSTEXPR20 basic_string(_In_z_ const _Elem* const _Ptr) : _Mypair(_Zero_then_variadic_args_t{}) {

  00000	55		 push	 ebp
  00001	8b ec		 mov	 ebp, esp
  00003	51		 push	 ecx
  00004	53		 push	 ebx
  00005	56		 push	 esi
  00006	8b d9		 mov	 ebx, ecx
  00008	0f 57 c0	 xorps	 xmm0, xmm0
  0000b	57		 push	 edi
; File C:\Program Files\Microsoft Visual Studio\2022\Professional\VC\Tools\MSVC\14.44.35207\include\__msvc_string_view.hpp

; 459  :         return _CSTD strlen(reinterpret_cast<const char*>(_First));

  0000c	8b 7d 08	 mov	 edi, DWORD PTR __Ptr$[ebp]
  0000f	8b f7		 mov	 esi, edi
; File C:\Program Files\Microsoft Visual Studio\2022\Professional\VC\Tools\MSVC\14.44.35207\include\xstring

; 493  :         _CONSTEXPR20 _Bxty() noexcept : _Buf() {} // user-provided, for fancy pointers

  00011	0f 11 03	 movups	 XMMWORD PTR [ebx], xmm0

; 517  :     size_type _Mysize = 0; // current length of string (size)

  00014	c7 43 10 00 00
	00 00		 mov	 DWORD PTR [ebx+16], 0

; 518  :     size_type _Myres  = 0; // current storage reserved for string (capacity)

  0001b	c7 43 14 00 00
	00 00		 mov	 DWORD PTR [ebx+20], 0
; File C:\Program Files\Microsoft Visual Studio\2022\Professional\VC\Tools\MSVC\14.44.35207\include\__msvc_string_view.hpp

; 459  :         return _CSTD strlen(reinterpret_cast<const char*>(_First));

  00022	8d 4e 01	 lea	 ecx, DWORD PTR [esi+1]
$LL51@basic_stri:
  00025	8a 06		 mov	 al, BYTE PTR [esi]
  00027	46		 inc	 esi
  00028	84 c0		 test	 al, al
  0002a	75 f9		 jne	 SHORT $LL51@basic_stri
  0002c	2b f1		 sub	 esi, ecx
; File C:\Program Files\Microsoft Visual Studio\2022\Professional\VC\Tools\MSVC\14.44.35207\include\xstring

; 881  :         if (_Count > max_size()) {

  0002e	81 fe ff ff ff
	7f		 cmp	 esi, 2147483647		; 7fffffffH
  00034	0f 87 9b 00 00
	00		 ja	 $LN62@basic_stri

; 883  :         }
; 884  : 
; 885  :         auto& _Al       = _Getal();
; 886  :         auto&& _Alproxy = _GET_PROXY_ALLOCATOR(_Alty, _Al);
; 887  :         _Container_proxy_ptr<_Alty> _Proxy(_Alproxy, _My_data);
; 888  : 
; 889  :         if (_Count <= _Small_string_capacity) {

  0003a	83 fe 0f	 cmp	 esi, 15			; 0000000fH
  0003d	77 24		 ja	 SHORT $LN21@basic_stri
; File C:\Program Files\Microsoft Visual Studio\2022\Professional\VC\Tools\MSVC\14.44.35207\include\__msvc_string_view.hpp

; 121  :         _CSTD memcpy(_First1, _First2, _Count * sizeof(_Elem));

  0003f	56		 push	 esi
  00040	57		 push	 edi
  00041	53		 push	 ebx
; File C:\Program Files\Microsoft Visual Studio\2022\Professional\VC\Tools\MSVC\14.44.35207\include\xstring

; 890  :             _My_data._Mysize = _Count;

  00042	89 73 10	 mov	 DWORD PTR [ebx+16], esi

; 891  :             _My_data._Myres  = _Small_string_capacity;

  00045	c7 43 14 0f 00
	00 00		 mov	 DWORD PTR [ebx+20], 15	; 0000000fH
; File C:\Program Files\Microsoft Visual Studio\2022\Professional\VC\Tools\MSVC\14.44.35207\include\__msvc_string_view.hpp

; 121  :         _CSTD memcpy(_First1, _First2, _Count * sizeof(_Elem));

  0004c	e8 00 00 00 00	 call	 _memcpy
; File C:\Program Files\Microsoft Visual Studio\2022\Professional\VC\Tools\MSVC\14.44.35207\include\xstring

; 898  :                 _Traits::assign(_My_data._Bx._Buf[_Count], _Elem());

  00051	c6 04 1e 00	 mov	 BYTE PTR [esi+ebx], 0

; 769  :         _Construct<_Construct_strategy::_From_ptr>(_Ptr, _Convert_size<size_type>(_Traits::length(_Ptr)));
; 770  :     }

  00055	83 c4 0c	 add	 esp, 12			; 0000000cH
  00058	8b c3		 mov	 eax, ebx
  0005a	5f		 pop	 edi
  0005b	5e		 pop	 esi
  0005c	5b		 pop	 ebx
  0005d	8b e5		 mov	 esp, ebp
  0005f	5d		 pop	 ebp
  00060	c2 04 00	 ret	 4
$LN21@basic_stri:

; 2978 :         const size_type _Masked = _Requested | _Alloc_mask;

  00063	8b fe		 mov	 edi, esi
  00065	83 cf 0f	 or	 edi, 15			; 0000000fH
  00068	81 ff ff ff ff
	7f		 cmp	 edi, 2147483647		; 7fffffffH

; 2979 :         if (_Masked > _Max) { // the mask overflows, settle for max_size()

  0006e	76 12		 jbe	 SHORT $LN27@basic_stri

; 2980 :             return _Max;

  00070	b8 00 00 00 80	 mov	 eax, -2147483648	; 80000000H
  00075	bf ff ff ff 7f	 mov	 edi, 2147483647		; 7fffffffH
; File C:\Program Files\Microsoft Visual Studio\2022\Professional\VC\Tools\MSVC\14.44.35207\include\xmemory

; 253  :             return _Allocate_manually_vector_aligned<_Traits>(_Bytes);

  0007a	50		 push	 eax
  0007b	e8 00 00 00 00	 call	 ??$_Allocate_manually_vector_aligned@U_Default_allocate_traits@std@@@std@@YAPAXI@Z ; std::_Allocate_manually_vector_aligned<std::_Default_allocate_traits>
  00080	eb 26		 jmp	 SHORT $LN60@basic_stri
$LN27@basic_stri:
; File C:\Program Files\Microsoft Visual Studio\2022\Professional\VC\Tools\MSVC\14.44.35207\include\xstring

; 2987 :         return (_STD max)(_Masked, _Old + _Old / 2);

  00082	b8 16 00 00 00	 mov	 eax, 22			; 00000016H
  00087	3b f8		 cmp	 edi, eax
  00089	0f 42 f8	 cmovb	 edi, eax

; 825  :         ++_Capacity; // Take null terminator into consideration

  0008c	8d 47 01	 lea	 eax, DWORD PTR [edi+1]
; File C:\Program Files\Microsoft Visual Studio\2022\Professional\VC\Tools\MSVC\14.44.35207\include\xmemory

; 227  :     if (_Bytes == 0) {

  0008f	85 c0		 test	 eax, eax
  00091	74 18		 je	 SHORT $LN59@basic_stri
$LN41@basic_stri:

; 228  :         return nullptr;
; 229  :     }
; 230  : 
; 231  : #if _HAS_CXX20 // TRANSITION, GH-1532
; 232  :     if (_STD is_constant_evaluated()) {
; 233  :         return _Traits::_Allocate(_Bytes);
; 234  :     }
; 235  : #endif // _HAS_CXX20
; 236  : 
; 237  : #ifdef __cpp_aligned_new
; 238  :     if constexpr (_Align > __STDCPP_DEFAULT_NEW_ALIGNMENT__) {
; 239  :         size_t _Passed_align = _Align;
; 240  : #if defined(_M_IX86) || defined(_M_X64)
; 241  :         if (_Bytes >= _Big_allocation_threshold) {
; 242  :             // boost the alignment of big allocations to help autovectorization
; 243  :             _Passed_align = (_STD max)(_Align, _Big_allocation_alignment);
; 244  :         }
; 245  : #endif // defined(_M_IX86) || defined(_M_X64)
; 246  :         return _Traits::_Allocate_aligned(_Bytes, _Passed_align);
; 247  :     } else
; 248  : #endif // defined(__cpp_aligned_new)
; 249  :     {
; 250  : #if defined(_M_IX86) || defined(_M_X64)
; 251  :         if (_Bytes >= _Big_allocation_threshold) {

  00093	3d 00 10 00 00	 cmp	 eax, 4096		; 00001000H
  00098	72 08		 jb	 SHORT $LN42@basic_stri

; 253  :             return _Allocate_manually_vector_aligned<_Traits>(_Bytes);

  0009a	50		 push	 eax
  0009b	e8 00 00 00 00	 call	 ??$_Allocate_manually_vector_aligned@U_Default_allocate_traits@std@@@std@@YAPAXI@Z ; std::_Allocate_manually_vector_aligned<std::_Default_allocate_traits>
  000a0	eb 06		 jmp	 SHORT $LN60@basic_stri
$LN42@basic_stri:

; 136  :         return ::operator new(_Bytes);

  000a2	50		 push	 eax
  000a3	e8 00 00 00 00	 call	 ??2@YAPAXI@Z		; operator new
$LN60@basic_stri:
; File C:\Program Files\Microsoft Visual Studio\2022\Professional\VC\Tools\MSVC\14.44.35207\include\xstring

; 913  :         _Construct_in_place(_My_data._Bx._Ptr, _New_ptr);

  000a8	83 c4 04	 add	 esp, 4
$LN59@basic_stri:
; File C:\Program Files\Microsoft Visual Studio\2022\Professional\VC\Tools\MSVC\14.44.35207\include\__msvc_string_view.hpp

; 121  :         _CSTD memcpy(_First1, _First2, _Count * sizeof(_Elem));

  000ab	56		 push	 esi
  000ac	ff 75 08	 push	 DWORD PTR __Ptr$[ebp]
; File C:\Program Files\Microsoft Visual Studio\2022\Professional\VC\Tools\MSVC\14.44.35207\include\xstring

; 913  :         _Construct_in_place(_My_data._Bx._Ptr, _New_ptr);

  000af	89 45 fc	 mov	 DWORD PTR $T1[ebp], eax
; File C:\Program Files\Microsoft Visual Studio\2022\Professional\VC\Tools\MSVC\14.44.35207\include\__msvc_string_view.hpp

; 121  :         _CSTD memcpy(_First1, _First2, _Count * sizeof(_Elem));

  000b2	50		 push	 eax
; File C:\Program Files\Microsoft Visual Studio\2022\Professional\VC\Tools\MSVC\14.44.35207\include\xstring

; 913  :         _Construct_in_place(_My_data._Bx._Ptr, _New_ptr);

  000b3	89 03		 mov	 DWORD PTR [ebx], eax

; 914  : 
; 915  :         _My_data._Mysize = _Count;

  000b5	89 73 10	 mov	 DWORD PTR [ebx+16], esi

; 916  :         _My_data._Myres  = _New_capacity;

  000b8	89 7b 14	 mov	 DWORD PTR [ebx+20], edi
; File C:\Program Files\Microsoft Visual Studio\2022\Professional\VC\Tools\MSVC\14.44.35207\include\__msvc_string_view.hpp

; 121  :         _CSTD memcpy(_First1, _First2, _Count * sizeof(_Elem));

  000bb	e8 00 00 00 00	 call	 _memcpy
; File C:\Program Files\Microsoft Visual Studio\2022\Professional\VC\Tools\MSVC\14.44.35207\include\xstring

; 922  :             _Traits::assign(_Unfancy(_New_ptr)[_Count], _Elem());

  000c0	8b 45 fc	 mov	 eax, DWORD PTR $T1[ebp]

; 769  :         _Construct<_Construct_strategy::_From_ptr>(_Ptr, _Convert_size<size_type>(_Traits::length(_Ptr)));
; 770  :     }

  000c3	83 c4 0c	 add	 esp, 12			; 0000000cH
  000c6	5f		 pop	 edi

; 922  :             _Traits::assign(_Unfancy(_New_ptr)[_Count], _Elem());

  000c7	c6 04 30 00	 mov	 BYTE PTR [eax+esi], 0

; 769  :         _Construct<_Construct_strategy::_From_ptr>(_Ptr, _Convert_size<size_type>(_Traits::length(_Ptr)));
; 770  :     }

  000cb	8b c3		 mov	 eax, ebx
  000cd	5e		 pop	 esi
  000ce	5b		 pop	 ebx
  000cf	8b e5		 mov	 esp, ebp
  000d1	5d		 pop	 ebp
  000d2	c2 04 00	 ret	 4
$LN62@basic_stri:

; 882  :             _Xlen_string(); // result too long

  000d5	e8 00 00 00 00	 call	 ?_Xlen_string@std@@YAXXZ ; std::_Xlen_string
$LN57@basic_stri:
  000da	cc		 int	 3
??0?$basic_string@DU?$char_traits@D@std@@V?$allocator@D@2@@std@@QAE@QBD@Z ENDP ; std::basic_string<char,std::char_traits<char>,std::allocator<char> >::basic_string<char,std::char_traits<char>,std::allocator<char> >
_TEXT	ENDS
; Function compile flags: /Ogtp
; File C:\Program Files\Microsoft Visual Studio\2022\Professional\VC\Tools\MSVC\14.44.35207\include\xstring
;	COMDAT ?_Xlen_string@std@@YAXXZ
_TEXT	SEGMENT
?_Xlen_string@std@@YAXXZ PROC				; std::_Xlen_string, COMDAT

; 531  :     _Xlength_error("string too long");

  00000	68 00 00 00 00	 push	 OFFSET ??_C@_0BA@JFNIOLAK@string?5too?5long@
  00005	e8 00 00 00 00	 call	 ?_Xlength_error@std@@YAXPBD@Z ; std::_Xlength_error
$LN3@Xlen_strin:
  0000a	cc		 int	 3
?_Xlen_string@std@@YAXXZ ENDP				; std::_Xlen_string
_TEXT	ENDS
; Function compile flags: /Ogtp
; File C:\Program Files\Microsoft Visual Studio\2022\Professional\VC\Tools\MSVC\14.44.35207\include\xmemory
;	COMDAT ?_Throw_bad_array_new_length@std@@YAXXZ
_TEXT	SEGMENT
$T1 = -12						; size = 12
?_Throw_bad_array_new_length@std@@YAXXZ PROC		; std::_Throw_bad_array_new_length, COMDAT

; 107  : [[noreturn]] inline void _Throw_bad_array_new_length() {

  00000	55		 push	 ebp
  00001	8b ec		 mov	 ebp, esp
  00003	83 ec 0c	 sub	 esp, 12			; 0000000cH

; 108  :     _THROW(bad_array_new_length{});

  00006	8d 4d f4	 lea	 ecx, DWORD PTR $T1[ebp]
  00009	e8 00 00 00 00	 call	 ??0bad_array_new_length@std@@QAE@XZ ; std::bad_array_new_length::bad_array_new_length
  0000e	68 00 00 00 00	 push	 OFFSET __TI3?AVbad_array_new_length@std@@
  00013	8d 45 f4	 lea	 eax, DWORD PTR $T1[ebp]
  00016	50		 push	 eax
  00017	e8 00 00 00 00	 call	 __CxxThrowException@8
$LN3@Throw_bad_:
  0001c	cc		 int	 3
?_Throw_bad_array_new_length@std@@YAXXZ ENDP		; std::_Throw_bad_array_new_length
_TEXT	ENDS
; Function compile flags: /Ogtp
; File C:\Program Files\Microsoft Visual Studio\2022\Professional\VC\Tools\MSVC\14.44.35207\include\vcruntime_exception.h
;	COMDAT ??_Gbad_array_new_length@std@@UAEPAXI@Z
_TEXT	SEGMENT
___flags$ = 8						; size = 4
??_Gbad_array_new_length@std@@UAEPAXI@Z PROC		; std::bad_array_new_length::`scalar deleting destructor', COMDAT
; _this$ = ecx
  00000	55		 push	 ebp
  00001	8b ec		 mov	 ebp, esp

; 90   :     {

  00003	56		 push	 esi
  00004	8b f1		 mov	 esi, ecx

; 91   :         __std_exception_destroy(&_Data);

  00006	8d 46 04	 lea	 eax, DWORD PTR [esi+4]
  00009	c7 06 00 00 00
	00		 mov	 DWORD PTR [esi], OFFSET ??_7exception@std@@6B@
  0000f	50		 push	 eax
  00010	e8 00 00 00 00	 call	 ___std_exception_destroy
  00015	83 c4 04	 add	 esp, 4
  00018	f6 45 08 01	 test	 BYTE PTR ___flags$[ebp], 1
  0001c	74 0b		 je	 SHORT $LN18@scalar
  0001e	6a 0c		 push	 12			; 0000000cH
  00020	56		 push	 esi
  00021	e8 00 00 00 00	 call	 ??3@YAXPAXI@Z		; operator delete
  00026	83 c4 08	 add	 esp, 8
$LN18@scalar:
  00029	8b c6		 mov	 eax, esi
  0002b	5e		 pop	 esi
  0002c	5d		 pop	 ebp
  0002d	c2 04 00	 ret	 4
??_Gbad_array_new_length@std@@UAEPAXI@Z ENDP		; std::bad_array_new_length::`scalar deleting destructor'
_TEXT	ENDS
; Function compile flags: /Ogtp
; File C:\Program Files\Microsoft Visual Studio\2022\Professional\VC\Tools\MSVC\14.44.35207\include\vcruntime_exception.h
;	COMDAT ??0bad_array_new_length@std@@QAE@ABV01@@Z
_TEXT	SEGMENT
___that$ = 8						; size = 4
??0bad_array_new_length@std@@QAE@ABV01@@Z PROC		; std::bad_array_new_length::bad_array_new_length, COMDAT
; _this$ = ecx
  00000	55		 push	 ebp
  00001	8b ec		 mov	 ebp, esp

; 73   :     {

  00003	56		 push	 esi
  00004	8b f1		 mov	 esi, ecx
  00006	0f 57 c0	 xorps	 xmm0, xmm0

; 72   :         : _Data()

  00009	8d 46 04	 lea	 eax, DWORD PTR [esi+4]

; 74   :         __std_exception_copy(&_Other._Data, &_Data);

  0000c	50		 push	 eax
  0000d	c7 06 00 00 00
	00		 mov	 DWORD PTR [esi], OFFSET ??_7exception@std@@6B@
  00013	66 0f d6 00	 movq	 QWORD PTR [eax], xmm0
  00017	8b 45 08	 mov	 eax, DWORD PTR ___that$[ebp]
  0001a	83 c0 04	 add	 eax, 4
  0001d	50		 push	 eax
  0001e	e8 00 00 00 00	 call	 ___std_exception_copy
  00023	83 c4 08	 add	 esp, 8
  00026	c7 06 00 00 00
	00		 mov	 DWORD PTR [esi], OFFSET ??_7bad_array_new_length@std@@6B@
  0002c	8b c6		 mov	 eax, esi
  0002e	5e		 pop	 esi
  0002f	5d		 pop	 ebp
  00030	c2 04 00	 ret	 4
??0bad_array_new_length@std@@QAE@ABV01@@Z ENDP		; std::bad_array_new_length::bad_array_new_length
_TEXT	ENDS
; Function compile flags: /Ogtp
; File C:\Program Files\Microsoft Visual Studio\2022\Professional\VC\Tools\MSVC\14.44.35207\include\vcruntime_exception.h
;	COMDAT ??1bad_array_new_length@std@@UAE@XZ
_TEXT	SEGMENT
??1bad_array_new_length@std@@UAE@XZ PROC		; std::bad_array_new_length::~bad_array_new_length, COMDAT
; _this$ = ecx

; 91   :         __std_exception_destroy(&_Data);

  00000	8d 41 04	 lea	 eax, DWORD PTR [ecx+4]
  00003	c7 01 00 00 00
	00		 mov	 DWORD PTR [ecx], OFFSET ??_7exception@std@@6B@
  00009	50		 push	 eax
  0000a	e8 00 00 00 00	 call	 ___std_exception_destroy
  0000f	59		 pop	 ecx
  00010	c3		 ret	 0
??1bad_array_new_length@std@@UAE@XZ ENDP		; std::bad_array_new_length::~bad_array_new_length
_TEXT	ENDS
; Function compile flags: /Ogtp
; File C:\Program Files\Microsoft Visual Studio\2022\Professional\VC\Tools\MSVC\14.44.35207\include\vcruntime_exception.h
;	COMDAT ??0bad_array_new_length@std@@QAE@XZ
_TEXT	SEGMENT
??0bad_array_new_length@std@@QAE@XZ PROC		; std::bad_array_new_length::bad_array_new_length, COMDAT
; _this$ = ecx

; 144  :     {

  00000	0f 57 c0	 xorps	 xmm0, xmm0

; 145  :     }

  00003	8b c1		 mov	 eax, ecx

; 66   :         : _Data()

  00005	66 0f d6 41 04	 movq	 QWORD PTR [ecx+4], xmm0

; 67   :     {
; 68   :         _Data._What = _Message;

  0000a	c7 41 04 00 00
	00 00		 mov	 DWORD PTR [ecx+4], OFFSET ??_C@_0BF@KINCDENJ@bad?5array?5new?5length@

; 144  :     {

  00011	c7 01 00 00 00
	00		 mov	 DWORD PTR [ecx], OFFSET ??_7bad_array_new_length@std@@6B@

; 145  :     }

  00017	c3		 ret	 0
??0bad_array_new_length@std@@QAE@XZ ENDP		; std::bad_array_new_length::bad_array_new_length
_TEXT	ENDS
; Function compile flags: /Ogtp
; File C:\Program Files\Microsoft Visual Studio\2022\Professional\VC\Tools\MSVC\14.44.35207\include\vcruntime_exception.h
;	COMDAT ??_Gbad_alloc@std@@UAEPAXI@Z
_TEXT	SEGMENT
___flags$ = 8						; size = 4
??_Gbad_alloc@std@@UAEPAXI@Z PROC			; std::bad_alloc::`scalar deleting destructor', COMDAT
; _this$ = ecx
  00000	55		 push	 ebp
  00001	8b ec		 mov	 ebp, esp

; 90   :     {

  00003	56		 push	 esi
  00004	8b f1		 mov	 esi, ecx

; 91   :         __std_exception_destroy(&_Data);

  00006	8d 46 04	 lea	 eax, DWORD PTR [esi+4]
  00009	c7 06 00 00 00
	00		 mov	 DWORD PTR [esi], OFFSET ??_7exception@std@@6B@
  0000f	50		 push	 eax
  00010	e8 00 00 00 00	 call	 ___std_exception_destroy
  00015	83 c4 04	 add	 esp, 4
  00018	f6 45 08 01	 test	 BYTE PTR ___flags$[ebp], 1
  0001c	74 0b		 je	 SHORT $LN13@scalar
  0001e	6a 0c		 push	 12			; 0000000cH
  00020	56		 push	 esi
  00021	e8 00 00 00 00	 call	 ??3@YAXPAXI@Z		; operator delete
  00026	83 c4 08	 add	 esp, 8
$LN13@scalar:
  00029	8b c6		 mov	 eax, esi
  0002b	5e		 pop	 esi
  0002c	5d		 pop	 ebp
  0002d	c2 04 00	 ret	 4
??_Gbad_alloc@std@@UAEPAXI@Z ENDP			; std::bad_alloc::`scalar deleting destructor'
_TEXT	ENDS
; Function compile flags: /Ogtp
; File C:\Program Files\Microsoft Visual Studio\2022\Professional\VC\Tools\MSVC\14.44.35207\include\vcruntime_exception.h
;	COMDAT ??0bad_alloc@std@@QAE@ABV01@@Z
_TEXT	SEGMENT
___that$ = 8						; size = 4
??0bad_alloc@std@@QAE@ABV01@@Z PROC			; std::bad_alloc::bad_alloc, COMDAT
; _this$ = ecx
  00000	55		 push	 ebp
  00001	8b ec		 mov	 ebp, esp

; 73   :     {

  00003	56		 push	 esi
  00004	8b f1		 mov	 esi, ecx
  00006	0f 57 c0	 xorps	 xmm0, xmm0

; 72   :         : _Data()

  00009	8d 46 04	 lea	 eax, DWORD PTR [esi+4]

; 74   :         __std_exception_copy(&_Other._Data, &_Data);

  0000c	50		 push	 eax
  0000d	c7 06 00 00 00
	00		 mov	 DWORD PTR [esi], OFFSET ??_7exception@std@@6B@
  00013	66 0f d6 00	 movq	 QWORD PTR [eax], xmm0
  00017	8b 45 08	 mov	 eax, DWORD PTR ___that$[ebp]
  0001a	83 c0 04	 add	 eax, 4
  0001d	50		 push	 eax
  0001e	e8 00 00 00 00	 call	 ___std_exception_copy
  00023	83 c4 08	 add	 esp, 8
  00026	c7 06 00 00 00
	00		 mov	 DWORD PTR [esi], OFFSET ??_7bad_alloc@std@@6B@
  0002c	8b c6		 mov	 eax, esi
  0002e	5e		 pop	 esi
  0002f	5d		 pop	 ebp
  00030	c2 04 00	 ret	 4
??0bad_alloc@std@@QAE@ABV01@@Z ENDP			; std::bad_alloc::bad_alloc
_TEXT	ENDS
; Function compile flags: /Ogtp
; File C:\Program Files\Microsoft Visual Studio\2022\Professional\VC\Tools\MSVC\14.44.35207\include\vcruntime_exception.h
;	COMDAT ??_Gexception@std@@UAEPAXI@Z
_TEXT	SEGMENT
___flags$ = 8						; size = 4
??_Gexception@std@@UAEPAXI@Z PROC			; std::exception::`scalar deleting destructor', COMDAT
; _this$ = ecx
  00000	55		 push	 ebp
  00001	8b ec		 mov	 ebp, esp

; 90   :     {

  00003	56		 push	 esi
  00004	8b f1		 mov	 esi, ecx

; 91   :         __std_exception_destroy(&_Data);

  00006	8d 46 04	 lea	 eax, DWORD PTR [esi+4]
  00009	c7 06 00 00 00
	00		 mov	 DWORD PTR [esi], OFFSET ??_7exception@std@@6B@
  0000f	50		 push	 eax
  00010	e8 00 00 00 00	 call	 ___std_exception_destroy
  00015	83 c4 04	 add	 esp, 4
  00018	f6 45 08 01	 test	 BYTE PTR ___flags$[ebp], 1
  0001c	74 0b		 je	 SHORT $LN8@scalar
  0001e	6a 0c		 push	 12			; 0000000cH
  00020	56		 push	 esi
  00021	e8 00 00 00 00	 call	 ??3@YAXPAXI@Z		; operator delete
  00026	83 c4 08	 add	 esp, 8
$LN8@scalar:
  00029	8b c6		 mov	 eax, esi
  0002b	5e		 pop	 esi
  0002c	5d		 pop	 ebp
  0002d	c2 04 00	 ret	 4
??_Gexception@std@@UAEPAXI@Z ENDP			; std::exception::`scalar deleting destructor'
_TEXT	ENDS
; Function compile flags: /Ogtp
; File C:\Program Files\Microsoft Visual Studio\2022\Professional\VC\Tools\MSVC\14.44.35207\include\vcruntime_exception.h
;	COMDAT ?what@exception@std@@UBEPBDXZ
_TEXT	SEGMENT
?what@exception@std@@UBEPBDXZ PROC			; std::exception::what, COMDAT
; _this$ = ecx

; 96   :         return _Data._What ? _Data._What : "Unknown exception";

  00000	8b 49 04	 mov	 ecx, DWORD PTR [ecx+4]
  00003	b8 00 00 00 00	 mov	 eax, OFFSET ??_C@_0BC@EOODALEL@Unknown?5exception@
  00008	85 c9		 test	 ecx, ecx
  0000a	0f 45 c1	 cmovne	 eax, ecx

; 97   :     }

  0000d	c3		 ret	 0
?what@exception@std@@UBEPBDXZ ENDP			; std::exception::what
_TEXT	ENDS
; Function compile flags: /Ogtp
; File C:\Program Files\Microsoft Visual Studio\2022\Professional\VC\Tools\MSVC\14.44.35207\include\vcruntime_exception.h
;	COMDAT ??1exception@std@@UAE@XZ
_TEXT	SEGMENT
??1exception@std@@UAE@XZ PROC				; std::exception::~exception, COMDAT
; _this$ = ecx

; 91   :         __std_exception_destroy(&_Data);

  00000	8d 41 04	 lea	 eax, DWORD PTR [ecx+4]
  00003	c7 01 00 00 00
	00		 mov	 DWORD PTR [ecx], OFFSET ??_7exception@std@@6B@
  00009	50		 push	 eax
  0000a	e8 00 00 00 00	 call	 ___std_exception_destroy
  0000f	59		 pop	 ecx

; 92   :     }

  00010	c3		 ret	 0
??1exception@std@@UAE@XZ ENDP				; std::exception::~exception
_TEXT	ENDS
; Function compile flags: /Ogtp
; File C:\Program Files\Microsoft Visual Studio\2022\Professional\VC\Tools\MSVC\14.44.35207\include\vcruntime_exception.h
;	COMDAT ??0exception@std@@QAE@ABV01@@Z
_TEXT	SEGMENT
__Other$ = 8						; size = 4
??0exception@std@@QAE@ABV01@@Z PROC			; std::exception::exception, COMDAT
; _this$ = ecx

; 73   :     {

  00000	55		 push	 ebp
  00001	8b ec		 mov	 ebp, esp
  00003	56		 push	 esi
  00004	8b f1		 mov	 esi, ecx
  00006	0f 57 c0	 xorps	 xmm0, xmm0
  00009	8d 46 04	 lea	 eax, DWORD PTR [esi+4]

; 74   :         __std_exception_copy(&_Other._Data, &_Data);

  0000c	50		 push	 eax
  0000d	c7 06 00 00 00
	00		 mov	 DWORD PTR [esi], OFFSET ??_7exception@std@@6B@
  00013	66 0f d6 00	 movq	 QWORD PTR [eax], xmm0
  00017	8b 45 08	 mov	 eax, DWORD PTR __Other$[ebp]
  0001a	83 c0 04	 add	 eax, 4
  0001d	50		 push	 eax
  0001e	e8 00 00 00 00	 call	 ___std_exception_copy
  00023	83 c4 08	 add	 esp, 8

; 75   :     }

  00026	8b c6		 mov	 eax, esi
  00028	5e		 pop	 esi
  00029	5d		 pop	 ebp
  0002a	c2 04 00	 ret	 4
??0exception@std@@QAE@ABV01@@Z ENDP			; std::exception::exception
_TEXT	ENDS
; Function compile flags: /Ogtp
; File C:\IAGOS\server\v18\Source\Source\_common\guild.cpp
;	COMDAT ?__empty_global_delete@@YAXPAXI@Z
_TEXT	SEGMENT
___formal$ = 8						; size = 4
___formal$ = 12						; size = 4
?__empty_global_delete@@YAXPAXI@Z PROC			; __empty_global_delete, COMDAT

  00000	c2 00 00	 ret	 0
?__empty_global_delete@@YAXPAXI@Z ENDP			; __empty_global_delete
_TEXT	ENDS
; Function compile flags: /Ogtp
; File C:\IAGOS\server\v18\Source\Source\_common\guild.cpp
;	COMDAT ?__empty_global_delete@@YAXPAX@Z
_TEXT	SEGMENT
___formal$ = 8						; size = 4
?__empty_global_delete@@YAXPAX@Z PROC			; __empty_global_delete, COMDAT

  00000	c2 00 00	 ret	 0
?__empty_global_delete@@YAXPAX@Z ENDP			; __empty_global_delete
_TEXT	ENDS
; Function compile flags: /Ogtp
;	COMDAT ??_H@YGXPAXIIP6EPAX0@Z@Z
_TEXT	SEGMENT
___t$ = 8						; size = 4
___s$ = 12						; size = 4
___n$ = 16						; size = 4
___f$ = 20						; size = 4
??_H@YGXPAXIIP6EPAX0@Z@Z PROC				; `vector constructor iterator', COMDAT
  00000	55		 push	 ebp
  00001	8b ec		 mov	 ebp, esp
  00003	56		 push	 esi
  00004	8b 75 10	 mov	 esi, DWORD PTR ___n$[ebp]
  00007	85 f6		 test	 esi, esi
  00009	74 16		 je	 SHORT $LN6@vector
  0000b	53		 push	 ebx
  0000c	8b 5d 14	 mov	 ebx, DWORD PTR ___f$[ebp]
  0000f	57		 push	 edi
  00010	8b 7d 08	 mov	 edi, DWORD PTR ___t$[ebp]
$LL2@vector:
  00013	8b cf		 mov	 ecx, edi
  00015	ff d3		 call	 ebx
  00017	03 7d 0c	 add	 edi, DWORD PTR ___s$[ebp]
  0001a	83 ee 01	 sub	 esi, 1
  0001d	75 f4		 jne	 SHORT $LL2@vector
  0001f	5f		 pop	 edi
  00020	5b		 pop	 ebx
$LN6@vector:
  00021	5e		 pop	 esi
  00022	5d		 pop	 ebp
  00023	c2 10 00	 ret	 16			; 00000010H
??_H@YGXPAXIIP6EPAX0@Z@Z ENDP				; `vector constructor iterator'
_TEXT	ENDS
END
