; Listing generated by Microsoft (R) Optimizing Compiler Version 19.44.35225.0 

	TITLE	C:\IAGOS\server\v18\Source\Output\WorldServer\Release\GuildCombat1to1.obj
	.686P
	.XMM
	include listing.inc
	.model	flat

INCLUDELIB LIBCMT
INCLUDELIB OLDNAMES

CONST	SEGMENT
?piecewise_construct@std@@3Upiecewise_construct_t@1@B	ORG $+1 ; std::piecewise_construct
CONST	ENDS
PUBLIC	?__empty_global_delete@@YAXPAX@Z		; __empty_global_delete
PUBLIC	?__empty_global_delete@@YAXPAXI@Z		; __empty_global_delete
PUBLIC	___local_stdio_printf_options
PUBLIC	_sprintf
PUBLIC	?AtlThrowImpl@ATL@@YGXJ@Z			; ATL::AtlThrowImpl
PUBLIC	??1?$CSimpleStringT@D$0A@@ATL@@QAE@XZ		; ATL::CSimpleStringT<char,0>::~CSimpleStringT<char,0>
PUBLIC	?SetString@?$CSimpleStringT@D$0A@@ATL@@QAEXPBDH@Z ; ATL::CSimpleStringT<char,0>::SetString
PUBLIC	?ThrowMemoryException@?$CSimpleStringT@D$0A@@ATL@@KAXXZ ; ATL::CSimpleStringT<char,0>::ThrowMemoryException
PUBLIC	?Fork@?$CSimpleStringT@D$0A@@ATL@@AAEXH@Z	; ATL::CSimpleStringT<char,0>::Fork
PUBLIC	?PrepareWrite2@?$CSimpleStringT@D$0A@@ATL@@AAEXH@Z ; ATL::CSimpleStringT<char,0>::PrepareWrite2
PUBLIC	?Reallocate@?$CSimpleStringT@D$0A@@ATL@@AAEXH@Z	; ATL::CSimpleStringT<char,0>::Reallocate
PUBLIC	??0?$CStringT@DV?$StrTraitMFC@DV?$ChTraitsCRT@D@ATL@@@@@ATL@@QAE@XZ ; ATL::CStringT<char,StrTraitMFC<char,ATL::ChTraitsCRT<char> > >::CStringT<char,StrTraitMFC<char,ATL::ChTraitsCRT<char> > >
PUBLIC	??1?$CStringT@DV?$StrTraitMFC@DV?$ChTraitsCRT@D@ATL@@@@@ATL@@QAE@XZ ; ATL::CStringT<char,StrTraitMFC<char,ATL::ChTraitsCRT<char> > >::~CStringT<char,StrTraitMFC<char,ATL::ChTraitsCRT<char> > >
PUBLIC	?Format@?$CStringT@DV?$StrTraitMFC@DV?$ChTraitsCRT@D@ATL@@@@@ATL@@QAAXPBDZZ ; ATL::CStringT<char,StrTraitMFC<char,ATL::ChTraitsCRT<char> > >::Format
PUBLIC	?FormatV@?$CStringT@DV?$StrTraitMFC@DV?$ChTraitsCRT@D@ATL@@@@@ATL@@QAEXPBDPAD@Z ; ATL::CStringT<char,StrTraitMFC<char,ATL::ChTraitsCRT<char> > >::FormatV
PUBLIC	?LoadStringA@?$CStringT@DV?$StrTraitMFC@DV?$ChTraitsCRT@D@ATL@@@@@ATL@@QAEHI@Z ; ATL::CStringT<char,StrTraitMFC<char,ATL::ChTraitsCRT<char> > >::LoadStringA
PUBLIC	??0exception@std@@QAE@ABV01@@Z			; std::exception::exception
PUBLIC	??1exception@std@@UAE@XZ			; std::exception::~exception
PUBLIC	?what@exception@std@@UBEPBDXZ			; std::exception::what
PUBLIC	??_Gexception@std@@UAEPAXI@Z			; std::exception::`scalar deleting destructor'
PUBLIC	??0bad_alloc@std@@QAE@ABV01@@Z			; std::bad_alloc::bad_alloc
PUBLIC	??_Gbad_alloc@std@@UAEPAXI@Z			; std::bad_alloc::`scalar deleting destructor'
PUBLIC	??0bad_array_new_length@std@@QAE@XZ		; std::bad_array_new_length::bad_array_new_length
PUBLIC	??1bad_array_new_length@std@@UAE@XZ		; std::bad_array_new_length::~bad_array_new_length
PUBLIC	??0bad_array_new_length@std@@QAE@ABV01@@Z	; std::bad_array_new_length::bad_array_new_length
PUBLIC	??_Gbad_array_new_length@std@@UAEPAXI@Z		; std::bad_array_new_length::`scalar deleting destructor'
PUBLIC	?_Throw_bad_array_new_length@std@@YAXXZ		; std::_Throw_bad_array_new_length
PUBLIC	?_Throw_tree_length_error@std@@YAXXZ		; std::_Throw_tree_length_error
PUBLIC	??0_LogItemInfo@@QAE@XZ				; _LogItemInfo::_LogItemInfo
PUBLIC	?deallocate@?$allocator@K@std@@QAEXQAKI@Z	; std::allocator<unsigned long>::deallocate
PUBLIC	??4?$vector@KV?$allocator@K@std@@@std@@QAEAAV01@ABV01@@Z ; std::vector<unsigned long,std::allocator<unsigned long> >::operator=
PUBLIC	?_Buy_raw@?$vector@KV?$allocator@K@std@@@std@@AAEXI@Z ; std::vector<unsigned long,std::allocator<unsigned long> >::_Buy_raw
PUBLIC	?_Tidy@?$vector@KV?$allocator@K@std@@@std@@AAEXXZ ; std::vector<unsigned long,std::allocator<unsigned long> >::_Tidy
PUBLIC	?_Xlength@?$vector@KV?$allocator@K@std@@@std@@CAXXZ ; std::vector<unsigned long,std::allocator<unsigned long> >::_Xlength
PUBLIC	?_Insert_node@?$_Tree_val@U?$_Tree_simple_types@U?$pair@$$CBHH@std@@@std@@@std@@QAEPAU?$_Tree_node@U?$pair@$$CBHH@std@@PAX@2@U?$_Tree_id@PAU?$_Tree_node@U?$pair@$$CBHH@std@@PAX@std@@@2@QAU32@@Z ; std::_Tree_val<std::_Tree_simple_types<std::pair<int const ,int> > >::_Insert_node
PUBLIC	?GetText@CProject@@QAEPBDK@Z			; CProject::GetText
PUBLIC	?GetUserByID@CProject@@QAEPAVCMover@@K@Z	; CProject::GetUserByID
PUBLIC	??0CGuildCombat1to1Mng@@QAE@XZ			; CGuildCombat1to1Mng::CGuildCombat1to1Mng
PUBLIC	??1CGuildCombat1to1Mng@@UAE@XZ			; CGuildCombat1to1Mng::~CGuildCombat1to1Mng
PUBLIC	?ClearTime@CGuildCombat1to1Mng@@QAEXXZ		; CGuildCombat1to1Mng::ClearTime
PUBLIC	?LoadScript@CGuildCombat1to1Mng@@QAEHXZ		; CGuildCombat1to1Mng::LoadScript
PUBLIC	??1__GC1TO1TENDER@CGuildCombat1to1Mng@@QAE@XZ	; CGuildCombat1to1Mng::__GC1TO1TENDER::~__GC1TO1TENDER
PUBLIC	??0__GC1TO1TENDER@CGuildCombat1to1Mng@@QAE@ABU01@@Z ; CGuildCombat1to1Mng::__GC1TO1TENDER::__GC1TO1TENDER
PUBLIC	?GetTenderGuildIndexByUser@CGuildCombat1to1Mng@@QAEHPAVCUser@@@Z ; CGuildCombat1to1Mng::GetTenderGuildIndexByUser
PUBLIC	?GetTargetTenderGuildIndexByUser@CGuildCombat1to1Mng@@QAEHPAVCUser@@@Z ; CGuildCombat1to1Mng::GetTargetTenderGuildIndexByUser
PUBLIC	?IsGuildMaster@CGuildCombat1to1Mng@@QAEHPAVCUser@@@Z ; CGuildCombat1to1Mng::IsGuildMaster
PUBLIC	?IsGCTenderGuild@CGuildCombat1to1Mng@@QAEHPAVCUser@@@Z ; CGuildCombat1to1Mng::IsGCTenderGuild
PUBLIC	?IsLineUpMember@CGuildCombat1to1Mng@@QAEHPAVCUser@@@Z ; CGuildCombat1to1Mng::IsLineUpMember
PUBLIC	?IsPossibleUser@CGuildCombat1to1Mng@@QAEHPAVCUser@@@Z ; CGuildCombat1to1Mng::IsPossibleUser
PUBLIC	?Process@CGuildCombat1to1Mng@@QAEXXZ		; CGuildCombat1to1Mng::Process
PUBLIC	?SendNowState@CGuildCombat1to1Mng@@QAEXPAVCUser@@@Z ; CGuildCombat1to1Mng::SendNowState
PUBLIC	?GuildCombat1to1Open@CGuildCombat1to1Mng@@QAEXH@Z ; CGuildCombat1to1Mng::GuildCombat1to1Open
PUBLIC	?GuildCombat1to1AllClose@CGuildCombat1to1Mng@@QAEXXZ ; CGuildCombat1to1Mng::GuildCombat1to1AllClose
PUBLIC	?CreateGuildCombat1to1@CGuildCombat1to1Mng@@QAEXXZ ; CGuildCombat1to1Mng::CreateGuildCombat1to1
PUBLIC	?SendTenderGuildOpenWnd@CGuildCombat1to1Mng@@QAEXPAVCUser@@@Z ; CGuildCombat1to1Mng::SendTenderGuildOpenWnd
PUBLIC	?SendTenderGuildView@CGuildCombat1to1Mng@@QAEXPAVCUser@@@Z ; CGuildCombat1to1Mng::SendTenderGuildView
PUBLIC	?SetTenderGuild@CGuildCombat1to1Mng@@QAEXPAVCUser@@H@Z ; CGuildCombat1to1Mng::SetTenderGuild
PUBLIC	?SetCancelTenderGuild@CGuildCombat1to1Mng@@QAEXPAVCUser@@@Z ; CGuildCombat1to1Mng::SetCancelTenderGuild
PUBLIC	?SetFailedTenderGuild@CGuildCombat1to1Mng@@QAEXPAVCUser@@@Z ; CGuildCombat1to1Mng::SetFailedTenderGuild
PUBLIC	?SendMemberLineUpOpenWnd@CGuildCombat1to1Mng@@QAEXPAVCUser@@@Z ; CGuildCombat1to1Mng::SendMemberLineUpOpenWnd
PUBLIC	?SetMemberLineUp@CGuildCombat1to1Mng@@QAEXPAVCUser@@AAV?$vector@KV?$allocator@K@std@@@std@@@Z ; CGuildCombat1to1Mng::SetMemberLineUp
PUBLIC	?GuildCombat1to1EntranceWait@CGuildCombat1to1Mng@@QAEXXZ ; CGuildCombat1to1Mng::GuildCombat1to1EntranceWait
PUBLIC	?GuildCombat1to1War@CGuildCombat1to1Mng@@QAEXXZ	; CGuildCombat1to1Mng::GuildCombat1to1War
PUBLIC	?SetTeleportToNPC@CGuildCombat1to1Mng@@QAEXPAVCUser@@@Z ; CGuildCombat1to1Mng::SetTeleportToNPC
PUBLIC	?SetTeleportToStage@CGuildCombat1to1Mng@@QAEXPAVCUser@@@Z ; CGuildCombat1to1Mng::SetTeleportToStage
PUBLIC	??1?$vector@VCGuildCombat1to1@@V?$allocator@VCGuildCombat1to1@@@std@@@std@@QAE@XZ ; std::vector<CGuildCombat1to1,std::allocator<CGuildCombat1to1> >::~vector<CGuildCombat1to1,std::allocator<CGuildCombat1to1> >
PUBLIC	?_Xlength@?$vector@VCGuildCombat1to1@@V?$allocator@VCGuildCombat1to1@@@std@@@std@@CAXXZ ; std::vector<CGuildCombat1to1,std::allocator<CGuildCombat1to1> >::_Xlength
PUBLIC	?deallocate@?$allocator@U__GC1TO1TENDER@CGuildCombat1to1Mng@@@std@@QAEXQAU__GC1TO1TENDER@CGuildCombat1to1Mng@@I@Z ; std::allocator<CGuildCombat1to1Mng::__GC1TO1TENDER>::deallocate
PUBLIC	??1?$vector@U__GC1TO1TENDER@CGuildCombat1to1Mng@@V?$allocator@U__GC1TO1TENDER@CGuildCombat1to1Mng@@@std@@@std@@QAE@XZ ; std::vector<CGuildCombat1to1Mng::__GC1TO1TENDER,std::allocator<CGuildCombat1to1Mng::__GC1TO1TENDER> >::~vector<CGuildCombat1to1Mng::__GC1TO1TENDER,std::allocator<CGuildCombat1to1Mng::__GC1TO1TENDER> >
PUBLIC	?push_back@?$vector@U__GC1TO1TENDER@CGuildCombat1to1Mng@@V?$allocator@U__GC1TO1TENDER@CGuildCombat1to1Mng@@@std@@@std@@QAEXABU__GC1TO1TENDER@CGuildCombat1to1Mng@@@Z ; std::vector<CGuildCombat1to1Mng::__GC1TO1TENDER,std::allocator<CGuildCombat1to1Mng::__GC1TO1TENDER> >::push_back
PUBLIC	?erase@?$vector@U__GC1TO1TENDER@CGuildCombat1to1Mng@@V?$allocator@U__GC1TO1TENDER@CGuildCombat1to1Mng@@@std@@@std@@QAE?AV?$_Vector_iterator@V?$_Vector_val@U?$_Simple_types@U__GC1TO1TENDER@CGuildCombat1to1Mng@@@std@@@std@@@2@V?$_Vector_const_iterator@V?$_Vector_val@U?$_Simple_types@U__GC1TO1TENDER@CGuildCombat1to1Mng@@@std@@@std@@@2@@Z ; std::vector<CGuildCombat1to1Mng::__GC1TO1TENDER,std::allocator<CGuildCombat1to1Mng::__GC1TO1TENDER> >::erase
PUBLIC	?_Buy_raw@?$vector@U__GC1TO1TENDER@CGuildCombat1to1Mng@@V?$allocator@U__GC1TO1TENDER@CGuildCombat1to1Mng@@@std@@@std@@AAEXI@Z ; std::vector<CGuildCombat1to1Mng::__GC1TO1TENDER,std::allocator<CGuildCombat1to1Mng::__GC1TO1TENDER> >::_Buy_raw
PUBLIC	?_Tidy@?$vector@U__GC1TO1TENDER@CGuildCombat1to1Mng@@V?$allocator@U__GC1TO1TENDER@CGuildCombat1to1Mng@@@std@@@std@@AAEXXZ ; std::vector<CGuildCombat1to1Mng::__GC1TO1TENDER,std::allocator<CGuildCombat1to1Mng::__GC1TO1TENDER> >::_Tidy
PUBLIC	?_Xlength@?$vector@U__GC1TO1TENDER@CGuildCombat1to1Mng@@V?$allocator@U__GC1TO1TENDER@CGuildCombat1to1Mng@@@std@@@std@@CAXXZ ; std::vector<CGuildCombat1to1Mng::__GC1TO1TENDER,std::allocator<CGuildCombat1to1Mng::__GC1TO1TENDER> >::_Xlength
PUBLIC	??_GCGuildCombat1to1Mng@@UAEPAXI@Z		; CGuildCombat1to1Mng::`scalar deleting destructor'
PUBLIC	??0CGuildCombat1to1@@QAE@AAV?$vector@U__GC1TO1TENDER@CGuildCombat1to1Mng@@V?$allocator@U__GC1TO1TENDER@CGuildCombat1to1Mng@@@std@@@std@@H@Z ; CGuildCombat1to1::CGuildCombat1to1
PUBLIC	??1CGuildCombat1to1@@UAE@XZ			; CGuildCombat1to1::~CGuildCombat1to1
PUBLIC	?ClearTime@CGuildCombat1to1@@QAEXXZ		; CGuildCombat1to1::ClearTime
PUBLIC	?Process@CGuildCombat1to1@@QAEXXZ		; CGuildCombat1to1::Process
PUBLIC	?SendNowState@CGuildCombat1to1@@QAEXPAVCUser@@@Z ; CGuildCombat1to1::SendNowState
PUBLIC	?SendNowStateAllPlayer@CGuildCombat1to1@@QAEXXZ	; CGuildCombat1to1::SendNowStateAllPlayer
PUBLIC	?SendWarResultAllPlayer@CGuildCombat1to1@@QAEXXZ ; CGuildCombat1to1::SendWarResultAllPlayer
PUBLIC	?IsPossibleUser@CGuildCombat1to1@@QAEHPAVCUser@@@Z ; CGuildCombat1to1::IsPossibleUser
PUBLIC	?GetChipNum@CGuildCombat1to1@@QAEHXZ		; CGuildCombat1to1::GetChipNum
PUBLIC	?SetWinChip@CGuildCombat1to1@@QAEXPAVCUser@@0HH@Z ; CGuildCombat1to1::SetWinChip
PUBLIC	?GuildCombat1to1CloseWait@CGuildCombat1to1@@QAEXXZ ; CGuildCombat1to1::GuildCombat1to1CloseWait
PUBLIC	?GuildCombat1to1Close@CGuildCombat1to1@@QAEXXZ	; CGuildCombat1to1::GuildCombat1to1Close
PUBLIC	?GuildCombat1to1WarWait@CGuildCombat1to1@@QAEXXZ ; CGuildCombat1to1::GuildCombat1to1WarWait
PUBLIC	?GuildCombat1to1War@CGuildCombat1to1@@QAEXXZ	; CGuildCombat1to1::GuildCombat1to1War
PUBLIC	?GuildCombat1to1WarResultCheck@CGuildCombat1to1@@QAEXHPAVCUser@@@Z ; CGuildCombat1to1::GuildCombat1to1WarResultCheck
PUBLIC	?SetLost@CGuildCombat1to1@@QAEXPAVCUser@@@Z	; CGuildCombat1to1::SetLost
PUBLIC	?SetLastWinState@CGuildCombat1to1@@QAEXH@Z	; CGuildCombat1to1::SetLastWinState
PUBLIC	?SetTeleportToWaitStage@CGuildCombat1to1@@QAEXPAVCUser@@@Z ; CGuildCombat1to1::SetTeleportToWaitStage
PUBLIC	?SetTeleportToWarStage@CGuildCombat1to1@@QAEXPAVCUser@@@Z ; CGuildCombat1to1::SetTeleportToWarStage
PUBLIC	?SetTeleportToWaitStageNowPlayers@CGuildCombat1to1@@QAEXXZ ; CGuildCombat1to1::SetTeleportToWaitStageNowPlayers
PUBLIC	??0CGuildCombat1to1@@QAE@ABV0@@Z		; CGuildCombat1to1::CGuildCombat1to1
PUBLIC	??_GCGuildCombat1to1@@UAEPAXI@Z			; CGuildCombat1to1::`scalar deleting destructor'
PUBLIC	??$_Erase_tree@V?$allocator@U?$_Tree_node@U?$pair@$$CBHH@std@@PAX@std@@@std@@@?$_Tree_val@U?$_Tree_simple_types@U?$pair@$$CBHH@std@@@std@@@std@@QAEXAAV?$allocator@U?$_Tree_node@U?$pair@$$CBHH@std@@PAX@std@@@1@PAU?$_Tree_node@U?$pair@$$CBHH@std@@PAX@1@@Z ; std::_Tree_val<std::_Tree_simple_types<std::pair<int const ,int> > >::_Erase_tree<std::allocator<std::_Tree_node<std::pair<int const ,int>,void *> > >
PUBLIC	??$_Allocate_manually_vector_aligned@U_Default_allocate_traits@std@@@std@@YAPAXI@Z ; std::_Allocate_manually_vector_aligned<std::_Default_allocate_traits>
PUBLIC	??1?$_Tree@V?$_Tmap_traits@HHU?$less@H@std@@V?$allocator@U?$pair@$$CBHH@std@@@2@$00@std@@@std@@QAE@XZ ; std::_Tree<std::_Tmap_traits<int,int,std::less<int>,std::allocator<std::pair<int const ,int> >,1> >::~_Tree<std::_Tmap_traits<int,int,std::less<int>,std::allocator<std::pair<int const ,int> >,1> >
PUBLIC	??1?$multimap@HHU?$less@H@std@@V?$allocator@U?$pair@$$CBHH@std@@@2@@std@@QAE@XZ ; std::multimap<int,int,std::less<int>,std::allocator<std::pair<int const ,int> > >::~multimap<int,int,std::less<int>,std::allocator<std::pair<int const ,int> > >
PUBLIC	??$_Assign_counted_range@PAU__GC1TO1TENDER@CGuildCombat1to1Mng@@@?$vector@U__GC1TO1TENDER@CGuildCombat1to1Mng@@V?$allocator@U__GC1TO1TENDER@CGuildCombat1to1Mng@@@std@@@std@@AAEXPAU__GC1TO1TENDER@CGuildCombat1to1Mng@@I@Z ; std::vector<CGuildCombat1to1Mng::__GC1TO1TENDER,std::allocator<CGuildCombat1to1Mng::__GC1TO1TENDER> >::_Assign_counted_range<CGuildCombat1to1Mng::__GC1TO1TENDER *>
PUBLIC	??$_Uninitialized_copy_n@PAU__GC1TO1TENDER@CGuildCombat1to1Mng@@V?$allocator@U__GC1TO1TENDER@CGuildCombat1to1Mng@@@std@@@std@@YAPAU__GC1TO1TENDER@CGuildCombat1to1Mng@@PAU12@I0AAV?$allocator@U__GC1TO1TENDER@CGuildCombat1to1Mng@@@0@@Z ; std::_Uninitialized_copy_n<CGuildCombat1to1Mng::__GC1TO1TENDER *,std::allocator<CGuildCombat1to1Mng::__GC1TO1TENDER> >
PUBLIC	??$_Emplace_reallocate@ABU__GC1TO1TENDER@CGuildCombat1to1Mng@@@?$vector@U__GC1TO1TENDER@CGuildCombat1to1Mng@@V?$allocator@U__GC1TO1TENDER@CGuildCombat1to1Mng@@@std@@@std@@AAEPAU__GC1TO1TENDER@CGuildCombat1to1Mng@@QAU23@ABU23@@Z ; std::vector<CGuildCombat1to1Mng::__GC1TO1TENDER,std::allocator<CGuildCombat1to1Mng::__GC1TO1TENDER> >::_Emplace_reallocate<CGuildCombat1to1Mng::__GC1TO1TENDER const &>
PUBLIC	??$_Emplace_reallocate@ABVCGuildCombat1to1@@@?$vector@VCGuildCombat1to1@@V?$allocator@VCGuildCombat1to1@@@std@@@std@@AAEPAVCGuildCombat1to1@@QAV2@ABV2@@Z ; std::vector<CGuildCombat1to1,std::allocator<CGuildCombat1to1> >::_Emplace_reallocate<CGuildCombat1to1 const &>
PUBLIC	??$_Copy_memmove_n@PAKPAK@std@@YAPAKPAKI0@Z	; std::_Copy_memmove_n<unsigned long *,unsigned long *>
PUBLIC	??1?$_Uninitialized_backout_al@V?$allocator@U__GC1TO1TENDER@CGuildCombat1to1Mng@@@std@@@std@@QAE@XZ ; std::_Uninitialized_backout_al<std::allocator<CGuildCombat1to1Mng::__GC1TO1TENDER> >::~_Uninitialized_backout_al<std::allocator<CGuildCombat1to1Mng::__GC1TO1TENDER> >
PUBLIC	??1_Reallocation_guard@?$vector@U__GC1TO1TENDER@CGuildCombat1to1Mng@@V?$allocator@U__GC1TO1TENDER@CGuildCombat1to1Mng@@@std@@@std@@QAE@XZ ; std::vector<CGuildCombat1to1Mng::__GC1TO1TENDER,std::allocator<CGuildCombat1to1Mng::__GC1TO1TENDER> >::_Reallocation_guard::~_Reallocation_guard
PUBLIC	??$_Uninitialized_move@PAU__GC1TO1TENDER@CGuildCombat1to1Mng@@V?$allocator@U__GC1TO1TENDER@CGuildCombat1to1Mng@@@std@@@std@@YAPAU__GC1TO1TENDER@CGuildCombat1to1Mng@@QAU12@0PAU12@AAV?$allocator@U__GC1TO1TENDER@CGuildCombat1to1Mng@@@0@@Z ; std::_Uninitialized_move<CGuildCombat1to1Mng::__GC1TO1TENDER *,std::allocator<CGuildCombat1to1Mng::__GC1TO1TENDER> >
PUBLIC	??1_Reallocation_guard@?$vector@VCGuildCombat1to1@@V?$allocator@VCGuildCombat1to1@@@std@@@std@@QAE@XZ ; std::vector<CGuildCombat1to1,std::allocator<CGuildCombat1to1> >::_Reallocation_guard::~_Reallocation_guard
PUBLIC	??$_Uninitialized_move@PAVCGuildCombat1to1@@V?$allocator@VCGuildCombat1to1@@@std@@@std@@YAPAVCGuildCombat1to1@@QAV1@0PAV1@AAV?$allocator@VCGuildCombat1to1@@@0@@Z ; std::_Uninitialized_move<CGuildCombat1to1 *,std::allocator<CGuildCombat1to1> >
PUBLIC	??$_Copy_memmove_tail@PAK@std@@YAPAKQBDQAKII@Z	; std::_Copy_memmove_tail<unsigned long *>
PUBLIC	??$_Copy_memmove@PAKPAK@std@@YAPAKPAK00@Z	; std::_Copy_memmove<unsigned long *,unsigned long *>
PUBLIC	??1?$_Alloc_construct_ptr@V?$allocator@U?$_Tree_node@U?$pair@$$CBHH@std@@PAX@std@@@std@@@std@@QAE@XZ ; std::_Alloc_construct_ptr<std::allocator<std::_Tree_node<std::pair<int const ,int>,void *> > >::~_Alloc_construct_ptr<std::allocator<std::_Tree_node<std::pair<int const ,int>,void *> > >
PUBLIC	??1?$_Tree_temp_node@V?$allocator@U?$_Tree_node@U?$pair@$$CBHH@std@@PAX@std@@@std@@@std@@QAE@XZ ; std::_Tree_temp_node<std::allocator<std::_Tree_node<std::pair<int const ,int>,void *> > >::~_Tree_temp_node<std::allocator<std::_Tree_node<std::pair<int const ,int>,void *> > >
PUBLIC	??1?$_Uninitialized_backout_al@V?$allocator@VCGuildCombat1to1@@@std@@@std@@QAE@XZ ; std::_Uninitialized_backout_al<std::allocator<CGuildCombat1to1> >::~_Uninitialized_backout_al<std::allocator<CGuildCombat1to1> >
PUBLIC	??1?$_Tidy_guard@V?$vector@U__GC1TO1TENDER@CGuildCombat1to1Mng@@V?$allocator@U__GC1TO1TENDER@CGuildCombat1to1Mng@@@std@@@std@@@std@@QAE@XZ ; std::_Tidy_guard<std::vector<CGuildCombat1to1Mng::__GC1TO1TENDER,std::allocator<CGuildCombat1to1Mng::__GC1TO1TENDER> > >::~_Tidy_guard<std::vector<CGuildCombat1to1Mng::__GC1TO1TENDER,std::allocator<CGuildCombat1to1Mng::__GC1TO1TENDER> > >
PUBLIC	?_OptionsStorage@?1??__local_stdio_printf_options@@9@4_KA ; `__local_stdio_printf_options'::`2'::_OptionsStorage
PUBLIC	??_C@_02DPKJAMEF@?$CFd@				; `string'
PUBLIC	??_C@_00CNPNBAHC@@				; `string'
PUBLIC	??_7exception@std@@6B@				; std::exception::`vftable'
PUBLIC	??_C@_0BC@EOODALEL@Unknown?5exception@		; `string'
PUBLIC	??_7bad_alloc@std@@6B@				; std::bad_alloc::`vftable'
PUBLIC	??_7bad_array_new_length@std@@6B@		; std::bad_array_new_length::`vftable'
PUBLIC	??_C@_0BF@KINCDENJ@bad?5array?5new?5length@	; `string'
PUBLIC	??_R0?AVexception@std@@@8			; std::exception `RTTI Type Descriptor'
PUBLIC	__CT??_R0?AVexception@std@@@8??0exception@std@@QAE@ABV01@@Z12
PUBLIC	__TI3?AVbad_array_new_length@std@@
PUBLIC	__CTA3?AVbad_array_new_length@std@@
PUBLIC	??_R0?AVbad_array_new_length@std@@@8		; std::bad_array_new_length `RTTI Type Descriptor'
PUBLIC	__CT??_R0?AVbad_array_new_length@std@@@8??0bad_array_new_length@std@@QAE@ABV01@@Z12
PUBLIC	??_R0?AVbad_alloc@std@@@8			; std::bad_alloc `RTTI Type Descriptor'
PUBLIC	__CT??_R0?AVbad_alloc@std@@@8??0bad_alloc@std@@QAE@ABV01@@Z12
PUBLIC	??_C@_0BB@GCADKGJO@map?1set?5too?5long@		; `string'
PUBLIC	??_C@_0BM@HMFGHCP@?$CFs?5min?3?$CFd?0?5max?3?$CFd?0?5index?3?$CFd@ ; `string'
PUBLIC	??_C@_0BI@BEIFNGEL@GetItemProp?5range_error@	; `string'
PUBLIC	??_C@_0BE@OHDBLHOM@GetText?5range_error@	; `string'
PUBLIC	??_C@_05KKCIMGE@error@				; `string'
PUBLIC	??_7CGuildCombat1to1Mng@@6B@			; CGuildCombat1to1Mng::`vftable'
PUBLIC	??_7CGuildCombat1to1@@6B@			; CGuildCombat1to1::`vftable'
PUBLIC	??_C@_0BA@FOIKENOD@vector?5too?5long@		; `string'
PUBLIC	??_R4exception@std@@6B@				; std::exception::`RTTI Complete Object Locator'
PUBLIC	??_R3exception@std@@8				; std::exception::`RTTI Class Hierarchy Descriptor'
PUBLIC	??_R2exception@std@@8				; std::exception::`RTTI Base Class Array'
PUBLIC	??_R1A@?0A@EA@exception@std@@8			; std::exception::`RTTI Base Class Descriptor at (0,-1,0,64)'
PUBLIC	??_R4bad_array_new_length@std@@6B@		; std::bad_array_new_length::`RTTI Complete Object Locator'
PUBLIC	??_R3bad_array_new_length@std@@8		; std::bad_array_new_length::`RTTI Class Hierarchy Descriptor'
PUBLIC	??_R2bad_array_new_length@std@@8		; std::bad_array_new_length::`RTTI Base Class Array'
PUBLIC	??_R1A@?0A@EA@bad_array_new_length@std@@8	; std::bad_array_new_length::`RTTI Base Class Descriptor at (0,-1,0,64)'
PUBLIC	??_R1A@?0A@EA@bad_alloc@std@@8			; std::bad_alloc::`RTTI Base Class Descriptor at (0,-1,0,64)'
PUBLIC	??_R3bad_alloc@std@@8				; std::bad_alloc::`RTTI Class Hierarchy Descriptor'
PUBLIC	??_R2bad_alloc@std@@8				; std::bad_alloc::`RTTI Base Class Array'
PUBLIC	??_R4bad_alloc@std@@6B@				; std::bad_alloc::`RTTI Complete Object Locator'
PUBLIC	??_C@_08DJDJLEPK@?$CFd?5?$CFs?5?$CFs@		; `string'
PUBLIC	??_C@_0L@EMGOBKLG@WinChipNum@			; `string'
PUBLIC	??_C@_01ELNMCGJD@W@				; `string'
PUBLIC	??_C@_0BF@DIDDJIGH@GUILDCOMBAT1TO1_CHIP@	; `string'
PUBLIC	??_C@_0BH@CEBJEENP@GUILDCOMBAT1TO1_G_CHIP@	; `string'
PUBLIC	??_C@_0BK@NEMFLABP@GUILDCOMBAT1TO1_CHIP_POST@	; `string'
PUBLIC	??_C@_0BM@NHABGLPL@GUILDCOMBAT1TO1_CHIP_G_POST@	; `string'
PUBLIC	??_C@_0BB@JBOIJMPD@WarCloseWaitTime@		; `string'
PUBLIC	??_C@_0M@PIPIEKCG@WarWaitTime@			; `string'
PUBLIC	??_C@_07HNCNCHMB@WarTime@			; `string'
PUBLIC	??_C@_0BA@CPGKGMAH@Not?5Exist?5World@		; `string'
PUBLIC	??_C@_0BE@BGEDOEJD@GuildCombat1to1?4lua@	; `string'
PUBLIC	??_C@_0N@CHPIPPI@MinJoinPenya@			; `string'
PUBLIC	??_C@_0O@JHCECGHF@MinGuildLevel@		; `string'
PUBLIC	??_C@_0N@IGABIHDO@MinJoinGuild@			; `string'
PUBLIC	??_C@_0N@MGEOPPEI@MaxJoinGuild@			; `string'
PUBLIC	??_C@_0O@MDLHABA@MinJoinPlayer@			; `string'
PUBLIC	??_C@_0O@LFBNOLGB@MaxJoinPlayer@		; `string'
PUBLIC	??_C@_0BD@GPBMJCGJ@MinJoinPlayerLevel@		; `string'
PUBLIC	??_C@_0BB@FDEBMJPD@CancelReturnRate@		; `string'
PUBLIC	??_C@_0P@OIBAJGIA@FailReturnRate@		; `string'
PUBLIC	??_C@_0L@MPIDICKM@PlayerLife@			; `string'
PUBLIC	??_C@_0BB@GGCDBPMB@MemberLineUpTime@		; `string'
PUBLIC	??_C@_0BC@GNPCANLG@GetRemainNextTime@		; `string'
PUBLIC	??_C@_01LAKCGALK@9@				; `string'
PUBLIC	??_C@_0BA@PCMILOFB@GUILDCOMBAT1TO1@		; `string'
PUBLIC	??_C@_0BN@FMNHPOCB@GUILDCOMBAT1TO1_CANCELRETURN@ ; `string'
PUBLIC	??_C@_0BL@EBGKHODH@GUILDCOMBAT1TO1_FAILRETURN@	; `string'
PUBLIC	??_C@_0BB@LKDDGLJJ@EntranceWaitTime@		; `string'
PUBLIC	??_C@_06NDLDHKAP@flaris@			; `string'
PUBLIC	??_R4CGuildCombat1to1@@6B@			; CGuildCombat1to1::`RTTI Complete Object Locator'
PUBLIC	??_R0?AVCGuildCombat1to1@@@8			; CGuildCombat1to1 `RTTI Type Descriptor'
PUBLIC	??_R3CGuildCombat1to1@@8			; CGuildCombat1to1::`RTTI Class Hierarchy Descriptor'
PUBLIC	??_R2CGuildCombat1to1@@8			; CGuildCombat1to1::`RTTI Base Class Array'
PUBLIC	??_R1A@?0A@EA@CGuildCombat1to1@@8		; CGuildCombat1to1::`RTTI Base Class Descriptor at (0,-1,0,64)'
PUBLIC	??_R4CGuildCombat1to1Mng@@6B@			; CGuildCombat1to1Mng::`RTTI Complete Object Locator'
PUBLIC	??_R0?AVCGuildCombat1to1Mng@@@8			; CGuildCombat1to1Mng `RTTI Type Descriptor'
PUBLIC	??_R3CGuildCombat1to1Mng@@8			; CGuildCombat1to1Mng::`RTTI Class Hierarchy Descriptor'
PUBLIC	??_R2CGuildCombat1to1Mng@@8			; CGuildCombat1to1Mng::`RTTI Base Class Array'
PUBLIC	??_R1A@?0A@EA@CGuildCombat1to1Mng@@8		; CGuildCombat1to1Mng::`RTTI Base Class Descriptor at (0,-1,0,64)'
PUBLIC	__real@42c80000
EXTRN	??2@YAPAXI@Z:PROC				; operator new
EXTRN	??3@YAXPAXI@Z:PROC				; operator delete
EXTRN	__invalid_parameter_noinfo:PROC
EXTRN	__invoke_watson:PROC
EXTRN	__errno:PROC
EXTRN	__imp__GetTickCount@0:PROC
EXTRN	__imp__LoadResource@8:PROC
EXTRN	__imp__LockResource@4:PROC
EXTRN	__imp__SizeofResource@8:PROC
EXTRN	__imp__FindResourceW@12:PROC
EXTRN	__imp__WideCharToMultiByte@32:PROC
EXTRN	___stdio_common_vsprintf:PROC
EXTRN	___stdio_common_vsprintf_s:PROC
EXTRN	?AfxThrowMemoryException@@YGXXZ:PROC		; AfxThrowMemoryException
EXTRN	?AfxThrowOleException@@YGXJ@Z:PROC		; AfxThrowOleException
EXTRN	?AfxFindStringResourceHandle@@YGPAUHINSTANCE__@@I@Z:PROC ; AfxFindStringResourceHandle
EXTRN	?AfxGetStringManager@@YGPAUIAtlStringMgr@ATL@@XZ:PROC ; AfxGetStringManager
EXTRN	___std_exception_copy:PROC
EXTRN	___std_exception_destroy:PROC
EXTRN	??_Eexception@std@@UAEPAXI@Z:PROC		; std::exception::`vector deleting destructor'
EXTRN	??_Ebad_alloc@std@@UAEPAXI@Z:PROC		; std::bad_alloc::`vector deleting destructor'
EXTRN	??_Ebad_array_new_length@std@@UAEPAXI@Z:PROC	; std::bad_array_new_length::`vector deleting destructor'
EXTRN	?_Xlength_error@std@@YAXPBD@Z:PROC		; std::_Xlength_error
EXTRN	?Error@@YAPBDPBDZZ:PROC				; Error
EXTRN	?SetAngle@CObj@@QAEXM@Z:PROC			; CObj::SetAngle
EXTRN	_lua_tonumberx:PROC
EXTRN	??0CLuaBase@@QAE@XZ:PROC			; CLuaBase::CLuaBase
EXTRN	??1CLuaBase@@UAE@XZ:PROC			; CLuaBase::~CLuaBase
EXTRN	?RunScript@CLuaBase@@QAEHPBD@Z:PROC		; CLuaBase::RunScript
EXTRN	?Pop@CLuaBase@@QAEXH@Z:PROC			; CLuaBase::Pop
EXTRN	?GetGlobalNumber@CLuaBase@@QAENPAD@Z:PROC	; CLuaBase::GetGlobalNumber
EXTRN	?GetLuaFunction@CLuaBase@@QAEHPAD@Z:PROC	; CLuaBase::GetLuaFunction
EXTRN	?CallLuaFunction@CLuaBase@@QAEXHH@Z:PROC	; CLuaBase::CallLuaFunction
EXTRN	?SetSerialNumber@CItemBase@@QAEXXZ:PROC		; CItemBase::SetSerialNumber
EXTRN	??0CItemElem@@QAE@XZ:PROC			; CItemElem::CItemElem
EXTRN	??1CItemElem@@UAE@XZ:PROC			; CItemElem::~CItemElem
EXTRN	?RemoveCommonBuffs@CMover@@QAEXXZ:PROC		; CMover::RemoveCommonBuffs
EXTRN	?GetName@CMover@@QAEPBDH@Z:PROC			; CMover::GetName
EXTRN	?AddGold@CMover@@QAEHHH@Z:PROC			; CMover::AddGold
EXTRN	?GetItemNum@CMover@@QAEHK@Z:PROC		; CMover::GetItemNum
EXTRN	?GetGuild@CMover@@QAEPAVCGuild@@XZ:PROC		; CMover::GetGuild
EXTRN	?CreateItem@CMover@@QAEHPAVCItemBase@@PAEPAFE@Z:PROC ; CMover::CreateItem
EXTRN	?Replace@CMover@@QAEHKKAAUD3DXVECTOR3@@W4REPLACE_TYPE@@H@Z:PROC ; CMover::Replace
EXTRN	?GetState@CFlyffEvent@@QAEEH@Z:PROC		; CFlyffEvent::GetState
EXTRN	??_ECGuildCombat1to1Mng@@UAEPAXI@Z:PROC		; CGuildCombat1to1Mng::`vector deleting destructor'
EXTRN	??_ECGuildCombat1to1@@UAEPAXI@Z:PROC		; CGuildCombat1to1::`vector deleting destructor'
EXTRN	?GetWorld@CWorldMng@@QAEPAVCWorld@@K@Z:PROC	; CWorldMng::GetWorld
EXTRN	?GetRevivalPos@CWorldMng@@QAEPAUREGIONELEM@@KPBD@Z:PROC ; CWorldMng::GetRevivalPos
EXTRN	?GetMember@CGuild@@QAEPAVCGuildMember@@K@Z:PROC	; CGuild::GetMember
EXTRN	?GetGuild@CGuildMng@@QAEPAVCGuild@@K@Z:PROC	; CGuildMng::GetGuild
EXTRN	?FindGuildCombatMember@CGuildCombat@@QAEPAU__GuildCombatMember@1@K@Z:PROC ; CGuildCombat::FindGuildCombatMember
EXTRN	?AddDiagText@CUser@@QAEXPBD@Z:PROC		; CUser::AddDiagText
EXTRN	?AddText@CUser@@QAEXPBD@Z:PROC			; CUser::AddText
EXTRN	?AddDefinedText@CUser@@QAAXHPBDZZ:PROC		; CUser::AddDefinedText
EXTRN	?AddDefinedText@CUser@@QAEXH@Z:PROC		; CUser::AddDefinedText
EXTRN	?AddDefinedCaption@CUser@@QAAXHHPBDZZ:PROC	; CUser::AddDefinedCaption
EXTRN	?AddGC1to1TenderOpenWnd@CUser@@QAEXH@Z:PROC	; CUser::AddGC1to1TenderOpenWnd
EXTRN	?AddGC1to1TenderGuildView@CUser@@QAEXHHJAAV?$vector@U__GC1TO1TENDER@CGuildCombat1to1Mng@@V?$allocator@U__GC1TO1TENDER@CGuildCombat1to1Mng@@@std@@@std@@@Z:PROC ; CUser::AddGC1to1TenderGuildView
EXTRN	?AddGC1to1MemberLineUpOpenWnd@CUser@@QAEXAAV?$vector@KV?$allocator@K@std@@@std@@@Z:PROC ; CUser::AddGC1to1MemberLineUpOpenWnd
EXTRN	?AddGC1to1NowState@CUser@@QAEXHHH@Z:PROC	; CUser::AddGC1to1NowState
EXTRN	?AddGC1to1WarResult@CUser@@QAEXHKHH@Z:PROC	; CUser::AddGC1to1WarResult
EXTRN	?AddRemoveAllSkillInfluence@CUserMng@@QAEXPAVCMover@@@Z:PROC ; CUserMng::AddRemoveAllSkillInfluence
EXTRN	?AddGuildCombatUserState@CUserMng@@QAEXPAVCMover@@@Z:PROC ; CUserMng::AddGuildCombatUserState
EXTRN	?SendCaption@CDPCoreClient@@QAEXPBDKH@Z:PROC	; CDPCoreClient::SendCaption
EXTRN	?SendGCRemoveParty@CDPCoreClient@@QAEXKK@Z:PROC	; CDPCoreClient::SendGCRemoveParty
EXTRN	?SendQueryPostMail@CDPDatabaseClient@@QAEXKKAAVCItemElem@@HPAD1@Z:PROC ; CDPDatabaseClient::SendQueryPostMail
EXTRN	?SendGC1to1StateToDBSrvr@CDPDatabaseClient@@QAEXXZ:PROC ; CDPDatabaseClient::SendGC1to1StateToDBSrvr
EXTRN	?SendGC1to1Tender@CDPDatabaseClient@@QAEXDKHD@Z:PROC ; CDPDatabaseClient::SendGC1to1Tender
EXTRN	?SendGC1to1LineUp@CDPDatabaseClient@@QAEXKAAV?$vector@KV?$allocator@K@std@@@std@@@Z:PROC ; CDPDatabaseClient::SendGC1to1LineUp
EXTRN	?SendGC1to1WarPerson@CDPDatabaseClient@@QAEXKKD@Z:PROC ; CDPDatabaseClient::SendGC1to1WarPerson
EXTRN	?SendGC1to1WarGuild@CDPDatabaseClient@@QAEXKKKD@Z:PROC ; CDPDatabaseClient::SendGC1to1WarGuild
EXTRN	?OnLogItem@CDPSrvr@@QAEXAAU_LogItemInfo@@PAVCItemElem@@H@Z:PROC ; CDPSrvr::OnLogItem
EXTRN	@__security_check_cookie@4:PROC
EXTRN	__CxxThrowException@8:PROC
EXTRN	___CxxFrameHandler3:PROC
EXTRN	__ftol2_sse:PROC
EXTRN	_memcpy:PROC
EXTRN	_memmove:PROC
EXTRN	_memset:PROC
EXTRN	??_7type_info@@6B@:QWORD			; type_info::`vftable'
EXTRN	?g_next@@3KA:DWORD				; g_next
EXTRN	?prj@@3VCProject@@A:BYTE			; prj
EXTRN	?g_uIdofMulti@@3KA:DWORD			; g_uIdofMulti
EXTRN	?g_eLocal@@3VCFlyffEvent@@A:BYTE		; g_eLocal
EXTRN	?g_GuildCombat1to1Mng@@3VCGuildCombat1to1Mng@@A:BYTE ; g_GuildCombat1to1Mng
EXTRN	?g_WorldMng@@3VCWorldMng@@A:BYTE		; g_WorldMng
EXTRN	?g_DPSrvr@@3VCDPSrvr@@A:BYTE			; g_DPSrvr
EXTRN	?g_GuildMng@@3VCGuildMng@@A:BYTE		; g_GuildMng
EXTRN	?g_UserMng@@3VCUserMng@@A:BYTE			; g_UserMng
EXTRN	?g_DPCoreClient@@3VCDPCoreClient@@A:BYTE	; g_DPCoreClient
EXTRN	?g_GuildCombatMng@@3VCGuildCombat@@A:BYTE	; g_GuildCombatMng
EXTRN	?g_dpDBClient@@3VCDPDatabaseClient@@A:BYTE	; g_dpDBClient
EXTRN	___security_cookie:DWORD
EXTRN	__fltused:DWORD
;	COMDAT ?_OptionsStorage@?1??__local_stdio_printf_options@@9@4_KA
_BSS	SEGMENT
?_OptionsStorage@?1??__local_stdio_printf_options@@9@4_KA DQ 01H DUP (?) ; `__local_stdio_printf_options'::`2'::_OptionsStorage
_BSS	ENDS
;	COMDAT __real@42c80000
CONST	SEGMENT
__real@42c80000 DD 042c80000r			; 100
CONST	ENDS
;	COMDAT ??_R1A@?0A@EA@CGuildCombat1to1Mng@@8
rdata$r	SEGMENT
??_R1A@?0A@EA@CGuildCombat1to1Mng@@8 DD FLAT:??_R0?AVCGuildCombat1to1Mng@@@8 ; CGuildCombat1to1Mng::`RTTI Base Class Descriptor at (0,-1,0,64)'
	DD	00H
	DD	00H
	DD	0ffffffffH
	DD	00H
	DD	040H
	DD	FLAT:??_R3CGuildCombat1to1Mng@@8
rdata$r	ENDS
;	COMDAT ??_R2CGuildCombat1to1Mng@@8
rdata$r	SEGMENT
??_R2CGuildCombat1to1Mng@@8 DD FLAT:??_R1A@?0A@EA@CGuildCombat1to1Mng@@8 ; CGuildCombat1to1Mng::`RTTI Base Class Array'
rdata$r	ENDS
;	COMDAT ??_R3CGuildCombat1to1Mng@@8
rdata$r	SEGMENT
??_R3CGuildCombat1to1Mng@@8 DD 00H			; CGuildCombat1to1Mng::`RTTI Class Hierarchy Descriptor'
	DD	00H
	DD	01H
	DD	FLAT:??_R2CGuildCombat1to1Mng@@8
rdata$r	ENDS
;	COMDAT ??_R0?AVCGuildCombat1to1Mng@@@8
data$rs	SEGMENT
??_R0?AVCGuildCombat1to1Mng@@@8 DD FLAT:??_7type_info@@6B@ ; CGuildCombat1to1Mng `RTTI Type Descriptor'
	DD	00H
	DB	'.?AVCGuildCombat1to1Mng@@', 00H
data$rs	ENDS
;	COMDAT ??_R4CGuildCombat1to1Mng@@6B@
rdata$r	SEGMENT
??_R4CGuildCombat1to1Mng@@6B@ DD 00H			; CGuildCombat1to1Mng::`RTTI Complete Object Locator'
	DD	00H
	DD	00H
	DD	FLAT:??_R0?AVCGuildCombat1to1Mng@@@8
	DD	FLAT:??_R3CGuildCombat1to1Mng@@8
rdata$r	ENDS
;	COMDAT ??_R1A@?0A@EA@CGuildCombat1to1@@8
rdata$r	SEGMENT
??_R1A@?0A@EA@CGuildCombat1to1@@8 DD FLAT:??_R0?AVCGuildCombat1to1@@@8 ; CGuildCombat1to1::`RTTI Base Class Descriptor at (0,-1,0,64)'
	DD	00H
	DD	00H
	DD	0ffffffffH
	DD	00H
	DD	040H
	DD	FLAT:??_R3CGuildCombat1to1@@8
rdata$r	ENDS
;	COMDAT ??_R2CGuildCombat1to1@@8
rdata$r	SEGMENT
??_R2CGuildCombat1to1@@8 DD FLAT:??_R1A@?0A@EA@CGuildCombat1to1@@8 ; CGuildCombat1to1::`RTTI Base Class Array'
rdata$r	ENDS
;	COMDAT ??_R3CGuildCombat1to1@@8
rdata$r	SEGMENT
??_R3CGuildCombat1to1@@8 DD 00H				; CGuildCombat1to1::`RTTI Class Hierarchy Descriptor'
	DD	00H
	DD	01H
	DD	FLAT:??_R2CGuildCombat1to1@@8
rdata$r	ENDS
;	COMDAT ??_R0?AVCGuildCombat1to1@@@8
data$rs	SEGMENT
??_R0?AVCGuildCombat1to1@@@8 DD FLAT:??_7type_info@@6B@	; CGuildCombat1to1 `RTTI Type Descriptor'
	DD	00H
	DB	'.?AVCGuildCombat1to1@@', 00H
data$rs	ENDS
;	COMDAT ??_R4CGuildCombat1to1@@6B@
rdata$r	SEGMENT
??_R4CGuildCombat1to1@@6B@ DD 00H			; CGuildCombat1to1::`RTTI Complete Object Locator'
	DD	00H
	DD	00H
	DD	FLAT:??_R0?AVCGuildCombat1to1@@@8
	DD	FLAT:??_R3CGuildCombat1to1@@8
rdata$r	ENDS
;	COMDAT ??_C@_06NDLDHKAP@flaris@
CONST	SEGMENT
??_C@_06NDLDHKAP@flaris@ DB 'flaris', 00H		; `string'
CONST	ENDS
;	COMDAT ??_C@_0BB@LKDDGLJJ@EntranceWaitTime@
CONST	SEGMENT
??_C@_0BB@LKDDGLJJ@EntranceWaitTime@ DB 'EntranceWaitTime', 00H ; `string'
CONST	ENDS
;	COMDAT ??_C@_0BL@EBGKHODH@GUILDCOMBAT1TO1_FAILRETURN@
CONST	SEGMENT
??_C@_0BL@EBGKHODH@GUILDCOMBAT1TO1_FAILRETURN@ DB 'GUILDCOMBAT1TO1_FAILRE'
	DB	'TURN', 00H					; `string'
CONST	ENDS
;	COMDAT ??_C@_0BN@FMNHPOCB@GUILDCOMBAT1TO1_CANCELRETURN@
CONST	SEGMENT
??_C@_0BN@FMNHPOCB@GUILDCOMBAT1TO1_CANCELRETURN@ DB 'GUILDCOMBAT1TO1_CANC'
	DB	'ELRETURN', 00H				; `string'
CONST	ENDS
;	COMDAT ??_C@_0BA@PCMILOFB@GUILDCOMBAT1TO1@
CONST	SEGMENT
??_C@_0BA@PCMILOFB@GUILDCOMBAT1TO1@ DB 'GUILDCOMBAT1TO1', 00H ; `string'
CONST	ENDS
;	COMDAT ??_C@_01LAKCGALK@9@
CONST	SEGMENT
??_C@_01LAKCGALK@9@ DB '9', 00H				; `string'
CONST	ENDS
;	COMDAT ??_C@_0BC@GNPCANLG@GetRemainNextTime@
CONST	SEGMENT
??_C@_0BC@GNPCANLG@GetRemainNextTime@ DB 'GetRemainNextTime', 00H ; `string'
CONST	ENDS
;	COMDAT ??_C@_0BB@GGCDBPMB@MemberLineUpTime@
CONST	SEGMENT
??_C@_0BB@GGCDBPMB@MemberLineUpTime@ DB 'MemberLineUpTime', 00H ; `string'
CONST	ENDS
;	COMDAT ??_C@_0L@MPIDICKM@PlayerLife@
CONST	SEGMENT
??_C@_0L@MPIDICKM@PlayerLife@ DB 'PlayerLife', 00H	; `string'
CONST	ENDS
;	COMDAT ??_C@_0P@OIBAJGIA@FailReturnRate@
CONST	SEGMENT
??_C@_0P@OIBAJGIA@FailReturnRate@ DB 'FailReturnRate', 00H ; `string'
CONST	ENDS
;	COMDAT ??_C@_0BB@FDEBMJPD@CancelReturnRate@
CONST	SEGMENT
??_C@_0BB@FDEBMJPD@CancelReturnRate@ DB 'CancelReturnRate', 00H ; `string'
CONST	ENDS
;	COMDAT ??_C@_0BD@GPBMJCGJ@MinJoinPlayerLevel@
CONST	SEGMENT
??_C@_0BD@GPBMJCGJ@MinJoinPlayerLevel@ DB 'MinJoinPlayerLevel', 00H ; `string'
CONST	ENDS
;	COMDAT ??_C@_0O@LFBNOLGB@MaxJoinPlayer@
CONST	SEGMENT
??_C@_0O@LFBNOLGB@MaxJoinPlayer@ DB 'MaxJoinPlayer', 00H ; `string'
CONST	ENDS
;	COMDAT ??_C@_0O@MDLHABA@MinJoinPlayer@
CONST	SEGMENT
??_C@_0O@MDLHABA@MinJoinPlayer@ DB 'MinJoinPlayer', 00H	; `string'
CONST	ENDS
;	COMDAT ??_C@_0N@MGEOPPEI@MaxJoinGuild@
CONST	SEGMENT
??_C@_0N@MGEOPPEI@MaxJoinGuild@ DB 'MaxJoinGuild', 00H	; `string'
CONST	ENDS
;	COMDAT ??_C@_0N@IGABIHDO@MinJoinGuild@
CONST	SEGMENT
??_C@_0N@IGABIHDO@MinJoinGuild@ DB 'MinJoinGuild', 00H	; `string'
CONST	ENDS
;	COMDAT ??_C@_0O@JHCECGHF@MinGuildLevel@
CONST	SEGMENT
??_C@_0O@JHCECGHF@MinGuildLevel@ DB 'MinGuildLevel', 00H ; `string'
CONST	ENDS
;	COMDAT ??_C@_0N@CHPIPPI@MinJoinPenya@
CONST	SEGMENT
??_C@_0N@CHPIPPI@MinJoinPenya@ DB 'MinJoinPenya', 00H	; `string'
CONST	ENDS
;	COMDAT ??_C@_0BE@BGEDOEJD@GuildCombat1to1?4lua@
CONST	SEGMENT
??_C@_0BE@BGEDOEJD@GuildCombat1to1?4lua@ DB 'GuildCombat1to1.lua', 00H ; `string'
CONST	ENDS
;	COMDAT ??_C@_0BA@CPGKGMAH@Not?5Exist?5World@
CONST	SEGMENT
??_C@_0BA@CPGKGMAH@Not?5Exist?5World@ DB 'Not Exist World', 00H ; `string'
CONST	ENDS
;	COMDAT ??_C@_07HNCNCHMB@WarTime@
CONST	SEGMENT
??_C@_07HNCNCHMB@WarTime@ DB 'WarTime', 00H		; `string'
CONST	ENDS
;	COMDAT ??_C@_0M@PIPIEKCG@WarWaitTime@
CONST	SEGMENT
??_C@_0M@PIPIEKCG@WarWaitTime@ DB 'WarWaitTime', 00H	; `string'
CONST	ENDS
;	COMDAT ??_C@_0BB@JBOIJMPD@WarCloseWaitTime@
CONST	SEGMENT
??_C@_0BB@JBOIJMPD@WarCloseWaitTime@ DB 'WarCloseWaitTime', 00H ; `string'
CONST	ENDS
;	COMDAT ??_C@_0BM@NHABGLPL@GUILDCOMBAT1TO1_CHIP_G_POST@
CONST	SEGMENT
??_C@_0BM@NHABGLPL@GUILDCOMBAT1TO1_CHIP_G_POST@ DB 'GUILDCOMBAT1TO1_CHIP_'
	DB	'G_POST', 00H				; `string'
CONST	ENDS
;	COMDAT ??_C@_0BK@NEMFLABP@GUILDCOMBAT1TO1_CHIP_POST@
CONST	SEGMENT
??_C@_0BK@NEMFLABP@GUILDCOMBAT1TO1_CHIP_POST@ DB 'GUILDCOMBAT1TO1_CHIP_PO'
	DB	'ST', 00H					; `string'
CONST	ENDS
;	COMDAT ??_C@_0BH@CEBJEENP@GUILDCOMBAT1TO1_G_CHIP@
CONST	SEGMENT
??_C@_0BH@CEBJEENP@GUILDCOMBAT1TO1_G_CHIP@ DB 'GUILDCOMBAT1TO1_G_CHIP', 00H ; `string'
CONST	ENDS
;	COMDAT ??_C@_0BF@DIDDJIGH@GUILDCOMBAT1TO1_CHIP@
CONST	SEGMENT
??_C@_0BF@DIDDJIGH@GUILDCOMBAT1TO1_CHIP@ DB 'GUILDCOMBAT1TO1_CHIP', 00H ; `string'
CONST	ENDS
;	COMDAT ??_C@_01ELNMCGJD@W@
CONST	SEGMENT
??_C@_01ELNMCGJD@W@ DB 'W', 00H				; `string'
CONST	ENDS
;	COMDAT ??_C@_0L@EMGOBKLG@WinChipNum@
CONST	SEGMENT
??_C@_0L@EMGOBKLG@WinChipNum@ DB 'WinChipNum', 00H	; `string'
CONST	ENDS
;	COMDAT ??_C@_08DJDJLEPK@?$CFd?5?$CFs?5?$CFs@
CONST	SEGMENT
??_C@_08DJDJLEPK@?$CFd?5?$CFs?5?$CFs@ DB '%d %s %s', 00H ; `string'
CONST	ENDS
;	COMDAT ??_R4bad_alloc@std@@6B@
rdata$r	SEGMENT
??_R4bad_alloc@std@@6B@ DD 00H				; std::bad_alloc::`RTTI Complete Object Locator'
	DD	00H
	DD	00H
	DD	FLAT:??_R0?AVbad_alloc@std@@@8
	DD	FLAT:??_R3bad_alloc@std@@8
rdata$r	ENDS
;	COMDAT ??_R2bad_alloc@std@@8
rdata$r	SEGMENT
??_R2bad_alloc@std@@8 DD FLAT:??_R1A@?0A@EA@bad_alloc@std@@8 ; std::bad_alloc::`RTTI Base Class Array'
	DD	FLAT:??_R1A@?0A@EA@exception@std@@8
rdata$r	ENDS
;	COMDAT ??_R3bad_alloc@std@@8
rdata$r	SEGMENT
??_R3bad_alloc@std@@8 DD 00H				; std::bad_alloc::`RTTI Class Hierarchy Descriptor'
	DD	00H
	DD	02H
	DD	FLAT:??_R2bad_alloc@std@@8
rdata$r	ENDS
;	COMDAT ??_R1A@?0A@EA@bad_alloc@std@@8
rdata$r	SEGMENT
??_R1A@?0A@EA@bad_alloc@std@@8 DD FLAT:??_R0?AVbad_alloc@std@@@8 ; std::bad_alloc::`RTTI Base Class Descriptor at (0,-1,0,64)'
	DD	01H
	DD	00H
	DD	0ffffffffH
	DD	00H
	DD	040H
	DD	FLAT:??_R3bad_alloc@std@@8
rdata$r	ENDS
;	COMDAT ??_R1A@?0A@EA@bad_array_new_length@std@@8
rdata$r	SEGMENT
??_R1A@?0A@EA@bad_array_new_length@std@@8 DD FLAT:??_R0?AVbad_array_new_length@std@@@8 ; std::bad_array_new_length::`RTTI Base Class Descriptor at (0,-1,0,64)'
	DD	02H
	DD	00H
	DD	0ffffffffH
	DD	00H
	DD	040H
	DD	FLAT:??_R3bad_array_new_length@std@@8
rdata$r	ENDS
;	COMDAT ??_R2bad_array_new_length@std@@8
rdata$r	SEGMENT
??_R2bad_array_new_length@std@@8 DD FLAT:??_R1A@?0A@EA@bad_array_new_length@std@@8 ; std::bad_array_new_length::`RTTI Base Class Array'
	DD	FLAT:??_R1A@?0A@EA@bad_alloc@std@@8
	DD	FLAT:??_R1A@?0A@EA@exception@std@@8
rdata$r	ENDS
;	COMDAT ??_R3bad_array_new_length@std@@8
rdata$r	SEGMENT
??_R3bad_array_new_length@std@@8 DD 00H			; std::bad_array_new_length::`RTTI Class Hierarchy Descriptor'
	DD	00H
	DD	03H
	DD	FLAT:??_R2bad_array_new_length@std@@8
rdata$r	ENDS
;	COMDAT ??_R4bad_array_new_length@std@@6B@
rdata$r	SEGMENT
??_R4bad_array_new_length@std@@6B@ DD 00H		; std::bad_array_new_length::`RTTI Complete Object Locator'
	DD	00H
	DD	00H
	DD	FLAT:??_R0?AVbad_array_new_length@std@@@8
	DD	FLAT:??_R3bad_array_new_length@std@@8
rdata$r	ENDS
;	COMDAT ??_R1A@?0A@EA@exception@std@@8
rdata$r	SEGMENT
??_R1A@?0A@EA@exception@std@@8 DD FLAT:??_R0?AVexception@std@@@8 ; std::exception::`RTTI Base Class Descriptor at (0,-1,0,64)'
	DD	00H
	DD	00H
	DD	0ffffffffH
	DD	00H
	DD	040H
	DD	FLAT:??_R3exception@std@@8
rdata$r	ENDS
;	COMDAT ??_R2exception@std@@8
rdata$r	SEGMENT
??_R2exception@std@@8 DD FLAT:??_R1A@?0A@EA@exception@std@@8 ; std::exception::`RTTI Base Class Array'
rdata$r	ENDS
;	COMDAT ??_R3exception@std@@8
rdata$r	SEGMENT
??_R3exception@std@@8 DD 00H				; std::exception::`RTTI Class Hierarchy Descriptor'
	DD	00H
	DD	01H
	DD	FLAT:??_R2exception@std@@8
rdata$r	ENDS
;	COMDAT ??_R4exception@std@@6B@
rdata$r	SEGMENT
??_R4exception@std@@6B@ DD 00H				; std::exception::`RTTI Complete Object Locator'
	DD	00H
	DD	00H
	DD	FLAT:??_R0?AVexception@std@@@8
	DD	FLAT:??_R3exception@std@@8
rdata$r	ENDS
;	COMDAT ??_C@_0BA@FOIKENOD@vector?5too?5long@
CONST	SEGMENT
??_C@_0BA@FOIKENOD@vector?5too?5long@ DB 'vector too long', 00H ; `string'
CONST	ENDS
;	COMDAT ??_7CGuildCombat1to1@@6B@
CONST	SEGMENT
??_7CGuildCombat1to1@@6B@ DD FLAT:??_R4CGuildCombat1to1@@6B@ ; CGuildCombat1to1::`vftable'
	DD	FLAT:??_ECGuildCombat1to1@@UAEPAXI@Z
CONST	ENDS
;	COMDAT ??_7CGuildCombat1to1Mng@@6B@
CONST	SEGMENT
??_7CGuildCombat1to1Mng@@6B@ DD FLAT:??_R4CGuildCombat1to1Mng@@6B@ ; CGuildCombat1to1Mng::`vftable'
	DD	FLAT:??_ECGuildCombat1to1Mng@@UAEPAXI@Z
CONST	ENDS
;	COMDAT ??_C@_05KKCIMGE@error@
CONST	SEGMENT
??_C@_05KKCIMGE@error@ DB 'error', 00H			; `string'
CONST	ENDS
;	COMDAT ??_C@_0BE@OHDBLHOM@GetText?5range_error@
CONST	SEGMENT
??_C@_0BE@OHDBLHOM@GetText?5range_error@ DB 'GetText range_error', 00H ; `string'
CONST	ENDS
;	COMDAT ??_C@_0BI@BEIFNGEL@GetItemProp?5range_error@
CONST	SEGMENT
??_C@_0BI@BEIFNGEL@GetItemProp?5range_error@ DB 'GetItemProp range_error', 00H ; `string'
CONST	ENDS
;	COMDAT ??_C@_0BM@HMFGHCP@?$CFs?5min?3?$CFd?0?5max?3?$CFd?0?5index?3?$CFd@
CONST	SEGMENT
??_C@_0BM@HMFGHCP@?$CFs?5min?3?$CFd?0?5max?3?$CFd?0?5index?3?$CFd@ DB '%s'
	DB	' min:%d, max:%d, index:%d', 00H		; `string'
CONST	ENDS
;	COMDAT ??_C@_0BB@GCADKGJO@map?1set?5too?5long@
CONST	SEGMENT
??_C@_0BB@GCADKGJO@map?1set?5too?5long@ DB 'map/set too long', 00H ; `string'
CONST	ENDS
;	COMDAT __CT??_R0?AVbad_alloc@std@@@8??0bad_alloc@std@@QAE@ABV01@@Z12
xdata$x	SEGMENT
__CT??_R0?AVbad_alloc@std@@@8??0bad_alloc@std@@QAE@ABV01@@Z12 DD 010H
	DD	FLAT:??_R0?AVbad_alloc@std@@@8
	DD	00H
	DD	0ffffffffH
	ORG $+4
	DD	0cH
	DD	FLAT:??0bad_alloc@std@@QAE@ABV01@@Z
xdata$x	ENDS
;	COMDAT ??_R0?AVbad_alloc@std@@@8
data$r	SEGMENT
??_R0?AVbad_alloc@std@@@8 DD FLAT:??_7type_info@@6B@	; std::bad_alloc `RTTI Type Descriptor'
	DD	00H
	DB	'.?AVbad_alloc@std@@', 00H
data$r	ENDS
;	COMDAT __CT??_R0?AVbad_array_new_length@std@@@8??0bad_array_new_length@std@@QAE@ABV01@@Z12
xdata$x	SEGMENT
__CT??_R0?AVbad_array_new_length@std@@@8??0bad_array_new_length@std@@QAE@ABV01@@Z12 DD 00H
	DD	FLAT:??_R0?AVbad_array_new_length@std@@@8
	DD	00H
	DD	0ffffffffH
	ORG $+4
	DD	0cH
	DD	FLAT:??0bad_array_new_length@std@@QAE@ABV01@@Z
xdata$x	ENDS
;	COMDAT ??_R0?AVbad_array_new_length@std@@@8
data$r	SEGMENT
??_R0?AVbad_array_new_length@std@@@8 DD FLAT:??_7type_info@@6B@ ; std::bad_array_new_length `RTTI Type Descriptor'
	DD	00H
	DB	'.?AVbad_array_new_length@std@@', 00H
data$r	ENDS
;	COMDAT __CTA3?AVbad_array_new_length@std@@
xdata$x	SEGMENT
__CTA3?AVbad_array_new_length@std@@ DD 03H
	DD	FLAT:__CT??_R0?AVbad_array_new_length@std@@@8??0bad_array_new_length@std@@QAE@ABV01@@Z12
	DD	FLAT:__CT??_R0?AVbad_alloc@std@@@8??0bad_alloc@std@@QAE@ABV01@@Z12
	DD	FLAT:__CT??_R0?AVexception@std@@@8??0exception@std@@QAE@ABV01@@Z12
xdata$x	ENDS
;	COMDAT __TI3?AVbad_array_new_length@std@@
xdata$x	SEGMENT
__TI3?AVbad_array_new_length@std@@ DD 00H
	DD	FLAT:??1bad_array_new_length@std@@UAE@XZ
	DD	00H
	DD	FLAT:__CTA3?AVbad_array_new_length@std@@
xdata$x	ENDS
;	COMDAT __CT??_R0?AVexception@std@@@8??0exception@std@@QAE@ABV01@@Z12
xdata$x	SEGMENT
__CT??_R0?AVexception@std@@@8??0exception@std@@QAE@ABV01@@Z12 DD 00H
	DD	FLAT:??_R0?AVexception@std@@@8
	DD	00H
	DD	0ffffffffH
	ORG $+4
	DD	0cH
	DD	FLAT:??0exception@std@@QAE@ABV01@@Z
xdata$x	ENDS
;	COMDAT ??_R0?AVexception@std@@@8
data$r	SEGMENT
??_R0?AVexception@std@@@8 DD FLAT:??_7type_info@@6B@	; std::exception `RTTI Type Descriptor'
	DD	00H
	DB	'.?AVexception@std@@', 00H
data$r	ENDS
;	COMDAT ??_C@_0BF@KINCDENJ@bad?5array?5new?5length@
CONST	SEGMENT
??_C@_0BF@KINCDENJ@bad?5array?5new?5length@ DB 'bad array new length', 00H ; `string'
CONST	ENDS
;	COMDAT ??_7bad_array_new_length@std@@6B@
CONST	SEGMENT
??_7bad_array_new_length@std@@6B@ DD FLAT:??_R4bad_array_new_length@std@@6B@ ; std::bad_array_new_length::`vftable'
	DD	FLAT:??_Ebad_array_new_length@std@@UAEPAXI@Z
	DD	FLAT:?what@exception@std@@UBEPBDXZ
CONST	ENDS
;	COMDAT ??_7bad_alloc@std@@6B@
CONST	SEGMENT
??_7bad_alloc@std@@6B@ DD FLAT:??_R4bad_alloc@std@@6B@	; std::bad_alloc::`vftable'
	DD	FLAT:??_Ebad_alloc@std@@UAEPAXI@Z
	DD	FLAT:?what@exception@std@@UBEPBDXZ
CONST	ENDS
;	COMDAT ??_C@_0BC@EOODALEL@Unknown?5exception@
CONST	SEGMENT
??_C@_0BC@EOODALEL@Unknown?5exception@ DB 'Unknown exception', 00H ; `string'
CONST	ENDS
;	COMDAT ??_7exception@std@@6B@
CONST	SEGMENT
??_7exception@std@@6B@ DD FLAT:??_R4exception@std@@6B@	; std::exception::`vftable'
	DD	FLAT:??_Eexception@std@@UAEPAXI@Z
	DD	FLAT:?what@exception@std@@UBEPBDXZ
CONST	ENDS
;	COMDAT ??_C@_00CNPNBAHC@@
CONST	SEGMENT
??_C@_00CNPNBAHC@@ DB 00H				; `string'
CONST	ENDS
;	COMDAT ??_C@_02DPKJAMEF@?$CFd@
CONST	SEGMENT
??_C@_02DPKJAMEF@?$CFd@ DB '%d', 00H			; `string'
CONST	ENDS
;	COMDAT xdata$x
xdata$x	SEGMENT
__unwindtable$??$_Uninitialized_copy@PAU__GC1TO1TENDER@CGuildCombat1to1Mng@@PAU12@V?$allocator@U__GC1TO1TENDER@CGuildCombat1to1Mng@@@std@@@std@@YAPAU__GC1TO1TENDER@CGuildCombat1to1Mng@@PAU12@00AAV?$allocator@U__GC1TO1TENDER@CGuildCombat1to1Mng@@@0@@Z DD 0ffffffffH
	DD	FLAT:__unwindfunclet$??$_Uninitialized_copy@PAU__GC1TO1TENDER@CGuildCombat1to1Mng@@PAU12@V?$allocator@U__GC1TO1TENDER@CGuildCombat1to1Mng@@@std@@@std@@YAPAU__GC1TO1TENDER@CGuildCombat1to1Mng@@PAU12@00AAV?$allocator@U__GC1TO1TENDER@CGuildCombat1to1Mng@@@0@@Z$0
__ehfuncinfo$??$_Uninitialized_copy@PAU__GC1TO1TENDER@CGuildCombat1to1Mng@@PAU12@V?$allocator@U__GC1TO1TENDER@CGuildCombat1to1Mng@@@std@@@std@@YAPAU__GC1TO1TENDER@CGuildCombat1to1Mng@@PAU12@00AAV?$allocator@U__GC1TO1TENDER@CGuildCombat1to1Mng@@@0@@Z DD 019930522H
	DD	01H
	DD	FLAT:__unwindtable$??$_Uninitialized_copy@PAU__GC1TO1TENDER@CGuildCombat1to1Mng@@PAU12@V?$allocator@U__GC1TO1TENDER@CGuildCombat1to1Mng@@@std@@@std@@YAPAU__GC1TO1TENDER@CGuildCombat1to1Mng@@PAU12@00AAV?$allocator@U__GC1TO1TENDER@CGuildCombat1to1Mng@@@0@@Z
	DD	2 DUP(00H)
	DD	2 DUP(00H)
	DD	00H
	DD	01H
xdata$x	ENDS
;	COMDAT xdata$x
xdata$x	SEGMENT
__unwindtable$??$_Construct_n@ABQAU__GC1TO1TENDER@CGuildCombat1to1Mng@@ABQAU12@@?$vector@U__GC1TO1TENDER@CGuildCombat1to1Mng@@V?$allocator@U__GC1TO1TENDER@CGuildCombat1to1Mng@@@std@@@std@@AAEXIABQAU__GC1TO1TENDER@CGuildCombat1to1Mng@@0@Z DD 0ffffffffH
	DD	FLAT:__unwindfunclet$??$_Construct_n@ABQAU__GC1TO1TENDER@CGuildCombat1to1Mng@@ABQAU12@@?$vector@U__GC1TO1TENDER@CGuildCombat1to1Mng@@V?$allocator@U__GC1TO1TENDER@CGuildCombat1to1Mng@@@std@@@std@@AAEXIABQAU__GC1TO1TENDER@CGuildCombat1to1Mng@@0@Z$0
	DD	00H
	DD	FLAT:__unwindfunclet$??$_Construct_n@ABQAU__GC1TO1TENDER@CGuildCombat1to1Mng@@ABQAU12@@?$vector@U__GC1TO1TENDER@CGuildCombat1to1Mng@@V?$allocator@U__GC1TO1TENDER@CGuildCombat1to1Mng@@@std@@@std@@AAEXIABQAU__GC1TO1TENDER@CGuildCombat1to1Mng@@0@Z$1
__ehfuncinfo$??$_Construct_n@ABQAU__GC1TO1TENDER@CGuildCombat1to1Mng@@ABQAU12@@?$vector@U__GC1TO1TENDER@CGuildCombat1to1Mng@@V?$allocator@U__GC1TO1TENDER@CGuildCombat1to1Mng@@@std@@@std@@AAEXIABQAU__GC1TO1TENDER@CGuildCombat1to1Mng@@0@Z DD 019930522H
	DD	02H
	DD	FLAT:__unwindtable$??$_Construct_n@ABQAU__GC1TO1TENDER@CGuildCombat1to1Mng@@ABQAU12@@?$vector@U__GC1TO1TENDER@CGuildCombat1to1Mng@@V?$allocator@U__GC1TO1TENDER@CGuildCombat1to1Mng@@@std@@@std@@AAEXIABQAU__GC1TO1TENDER@CGuildCombat1to1Mng@@0@Z
	DD	2 DUP(00H)
	DD	2 DUP(00H)
	DD	00H
	DD	01H
xdata$x	ENDS
;	COMDAT xdata$x
xdata$x	SEGMENT
__unwindtable$??$?0U?$pair@KH@std@@@?$_Tree_temp_node@V?$allocator@U?$_Tree_node@U?$pair@$$CBHH@std@@PAX@std@@@std@@@std@@QAE@AAV?$allocator@U?$_Tree_node@U?$pair@$$CBHH@std@@PAX@std@@@1@PAU?$_Tree_node@U?$pair@$$CBHH@std@@PAX@1@$$QAU?$pair@KH@1@@Z DD 0ffffffffH
	DD	FLAT:__unwindfunclet$??$?0U?$pair@KH@std@@@?$_Tree_temp_node@V?$allocator@U?$_Tree_node@U?$pair@$$CBHH@std@@PAX@std@@@std@@@std@@QAE@AAV?$allocator@U?$_Tree_node@U?$pair@$$CBHH@std@@PAX@std@@@1@PAU?$_Tree_node@U?$pair@$$CBHH@std@@PAX@1@$$QAU?$pair@KH@1@@Z$1
__ehfuncinfo$??$?0U?$pair@KH@std@@@?$_Tree_temp_node@V?$allocator@U?$_Tree_node@U?$pair@$$CBHH@std@@PAX@std@@@std@@@std@@QAE@AAV?$allocator@U?$_Tree_node@U?$pair@$$CBHH@std@@PAX@std@@@1@PAU?$_Tree_node@U?$pair@$$CBHH@std@@PAX@1@$$QAU?$pair@KH@1@@Z DD 019930522H
	DD	01H
	DD	FLAT:__unwindtable$??$?0U?$pair@KH@std@@@?$_Tree_temp_node@V?$allocator@U?$_Tree_node@U?$pair@$$CBHH@std@@PAX@std@@@std@@@std@@QAE@AAV?$allocator@U?$_Tree_node@U?$pair@$$CBHH@std@@PAX@std@@@1@PAU?$_Tree_node@U?$pair@$$CBHH@std@@PAX@1@$$QAU?$pair@KH@1@@Z
	DD	2 DUP(00H)
	DD	2 DUP(00H)
	DD	00H
	DD	01H
xdata$x	ENDS
;	COMDAT xdata$x
xdata$x	SEGMENT
__unwindtable$??0?$_Tree_temp_node_alloc@V?$allocator@U?$_Tree_node@U?$pair@$$CBHH@std@@PAX@std@@@std@@@std@@QAE@AAV?$allocator@U?$_Tree_node@U?$pair@$$CBHH@std@@PAX@std@@@1@@Z DD 0ffffffffH
	DD	FLAT:__unwindfunclet$??0?$_Tree_temp_node_alloc@V?$allocator@U?$_Tree_node@U?$pair@$$CBHH@std@@PAX@std@@@std@@@std@@QAE@AAV?$allocator@U?$_Tree_node@U?$pair@$$CBHH@std@@PAX@std@@@1@@Z$0
__ehfuncinfo$??0?$_Tree_temp_node_alloc@V?$allocator@U?$_Tree_node@U?$pair@$$CBHH@std@@PAX@std@@@std@@@std@@QAE@AAV?$allocator@U?$_Tree_node@U?$pair@$$CBHH@std@@PAX@std@@@1@@Z DD 019930522H
	DD	01H
	DD	FLAT:__unwindtable$??0?$_Tree_temp_node_alloc@V?$allocator@U?$_Tree_node@U?$pair@$$CBHH@std@@PAX@std@@@std@@@std@@QAE@AAV?$allocator@U?$_Tree_node@U?$pair@$$CBHH@std@@PAX@std@@@1@@Z
	DD	2 DUP(00H)
	DD	2 DUP(00H)
	DD	00H
	DD	01H
xdata$x	ENDS
;	COMDAT xdata$x
xdata$x	SEGMENT
__unwindtable$??$_Uninitialized_move@PAVCGuildCombat1to1@@V?$allocator@VCGuildCombat1to1@@@std@@@std@@YAPAVCGuildCombat1to1@@QAV1@0PAV1@AAV?$allocator@VCGuildCombat1to1@@@0@@Z DD 0ffffffffH
	DD	FLAT:__unwindfunclet$??$_Uninitialized_move@PAVCGuildCombat1to1@@V?$allocator@VCGuildCombat1to1@@@std@@@std@@YAPAVCGuildCombat1to1@@QAV1@0PAV1@AAV?$allocator@VCGuildCombat1to1@@@0@@Z$0
__ehfuncinfo$??$_Uninitialized_move@PAVCGuildCombat1to1@@V?$allocator@VCGuildCombat1to1@@@std@@@std@@YAPAVCGuildCombat1to1@@QAV1@0PAV1@AAV?$allocator@VCGuildCombat1to1@@@0@@Z DD 019930522H
	DD	01H
	DD	FLAT:__unwindtable$??$_Uninitialized_move@PAVCGuildCombat1to1@@V?$allocator@VCGuildCombat1to1@@@std@@@std@@YAPAVCGuildCombat1to1@@QAV1@0PAV1@AAV?$allocator@VCGuildCombat1to1@@@0@@Z
	DD	2 DUP(00H)
	DD	2 DUP(00H)
	DD	00H
	DD	01H
xdata$x	ENDS
;	COMDAT xdata$x
xdata$x	SEGMENT
__unwindtable$??$_Uninitialized_copy@PAVCGuildCombat1to1@@PAV1@V?$allocator@VCGuildCombat1to1@@@std@@@std@@YAPAVCGuildCombat1to1@@PAV1@00AAV?$allocator@VCGuildCombat1to1@@@0@@Z DD 0ffffffffH
	DD	FLAT:__unwindfunclet$??$_Uninitialized_copy@PAVCGuildCombat1to1@@PAV1@V?$allocator@VCGuildCombat1to1@@@std@@@std@@YAPAVCGuildCombat1to1@@PAV1@00AAV?$allocator@VCGuildCombat1to1@@@0@@Z$0
__ehfuncinfo$??$_Uninitialized_copy@PAVCGuildCombat1to1@@PAV1@V?$allocator@VCGuildCombat1to1@@@std@@@std@@YAPAVCGuildCombat1to1@@PAV1@00AAV?$allocator@VCGuildCombat1to1@@@0@@Z DD 019930522H
	DD	01H
	DD	FLAT:__unwindtable$??$_Uninitialized_copy@PAVCGuildCombat1to1@@PAV1@V?$allocator@VCGuildCombat1to1@@@std@@@std@@YAPAVCGuildCombat1to1@@PAV1@00AAV?$allocator@VCGuildCombat1to1@@@0@@Z
	DD	2 DUP(00H)
	DD	2 DUP(00H)
	DD	00H
	DD	01H
xdata$x	ENDS
;	COMDAT xdata$x
xdata$x	SEGMENT
__unwindtable$??$_Emplace@U?$pair@KH@std@@@?$_Tree@V?$_Tmap_traits@HHU?$less@H@std@@V?$allocator@U?$pair@$$CBHH@std@@@2@$00@std@@@std@@IAE?AU?$pair@PAU?$_Tree_node@U?$pair@$$CBHH@std@@PAX@std@@_N@1@$$QAU?$pair@KH@1@@Z DD 0ffffffffH
	DD	FLAT:__unwindfunclet$??$_Emplace@U?$pair@KH@std@@@?$_Tree@V?$_Tmap_traits@HHU?$less@H@std@@V?$allocator@U?$pair@$$CBHH@std@@@2@$00@std@@@std@@IAE?AU?$pair@PAU?$_Tree_node@U?$pair@$$CBHH@std@@PAX@std@@_N@1@$$QAU?$pair@KH@1@@Z$2
	DD	0ffffffffH
	DD	FLAT:__unwindfunclet$??$_Emplace@U?$pair@KH@std@@@?$_Tree@V?$_Tmap_traits@HHU?$less@H@std@@V?$allocator@U?$pair@$$CBHH@std@@@2@$00@std@@@std@@IAE?AU?$pair@PAU?$_Tree_node@U?$pair@$$CBHH@std@@PAX@std@@_N@1@$$QAU?$pair@KH@1@@Z$0
__ehfuncinfo$??$_Emplace@U?$pair@KH@std@@@?$_Tree@V?$_Tmap_traits@HHU?$less@H@std@@V?$allocator@U?$pair@$$CBHH@std@@@2@$00@std@@@std@@IAE?AU?$pair@PAU?$_Tree_node@U?$pair@$$CBHH@std@@PAX@std@@_N@1@$$QAU?$pair@KH@1@@Z DD 019930522H
	DD	02H
	DD	FLAT:__unwindtable$??$_Emplace@U?$pair@KH@std@@@?$_Tree@V?$_Tmap_traits@HHU?$less@H@std@@V?$allocator@U?$pair@$$CBHH@std@@@2@$00@std@@@std@@IAE?AU?$pair@PAU?$_Tree_node@U?$pair@$$CBHH@std@@PAX@std@@_N@1@$$QAU?$pair@KH@1@@Z
	DD	2 DUP(00H)
	DD	2 DUP(00H)
	DD	00H
	DD	01H
xdata$x	ENDS
;	COMDAT xdata$x
xdata$x	SEGMENT
__unwindtable$??$_Emplace_reallocate@ABVCGuildCombat1to1@@@?$vector@VCGuildCombat1to1@@V?$allocator@VCGuildCombat1to1@@@std@@@std@@AAEPAVCGuildCombat1to1@@QAV2@ABV2@@Z DD 0ffffffffH
	DD	FLAT:__unwindfunclet$??$_Emplace_reallocate@ABVCGuildCombat1to1@@@?$vector@VCGuildCombat1to1@@V?$allocator@VCGuildCombat1to1@@@std@@@std@@AAEPAVCGuildCombat1to1@@QAV2@ABV2@@Z$0
	DD	00H
	DD	FLAT:__unwindfunclet$??$_Emplace_reallocate@ABVCGuildCombat1to1@@@?$vector@VCGuildCombat1to1@@V?$allocator@VCGuildCombat1to1@@@std@@@std@@AAEPAVCGuildCombat1to1@@QAV2@ABV2@@Z$1
__ehfuncinfo$??$_Emplace_reallocate@ABVCGuildCombat1to1@@@?$vector@VCGuildCombat1to1@@V?$allocator@VCGuildCombat1to1@@@std@@@std@@AAEPAVCGuildCombat1to1@@QAV2@ABV2@@Z DD 019930522H
	DD	02H
	DD	FLAT:__unwindtable$??$_Emplace_reallocate@ABVCGuildCombat1to1@@@?$vector@VCGuildCombat1to1@@V?$allocator@VCGuildCombat1to1@@@std@@@std@@AAEPAVCGuildCombat1to1@@QAV2@ABV2@@Z
	DD	2 DUP(00H)
	DD	2 DUP(00H)
	DD	00H
	DD	01H
xdata$x	ENDS
;	COMDAT xdata$x
xdata$x	SEGMENT
__unwindtable$??$_Emplace_reallocate@ABU__GC1TO1TENDER@CGuildCombat1to1Mng@@@?$vector@U__GC1TO1TENDER@CGuildCombat1to1Mng@@V?$allocator@U__GC1TO1TENDER@CGuildCombat1to1Mng@@@std@@@std@@AAEPAU__GC1TO1TENDER@CGuildCombat1to1Mng@@QAU23@ABU23@@Z DD 0ffffffffH
	DD	FLAT:__unwindfunclet$??$_Emplace_reallocate@ABU__GC1TO1TENDER@CGuildCombat1to1Mng@@@?$vector@U__GC1TO1TENDER@CGuildCombat1to1Mng@@V?$allocator@U__GC1TO1TENDER@CGuildCombat1to1Mng@@@std@@@std@@AAEPAU__GC1TO1TENDER@CGuildCombat1to1Mng@@QAU23@ABU23@@Z$0
__ehfuncinfo$??$_Emplace_reallocate@ABU__GC1TO1TENDER@CGuildCombat1to1Mng@@@?$vector@U__GC1TO1TENDER@CGuildCombat1to1Mng@@V?$allocator@U__GC1TO1TENDER@CGuildCombat1to1Mng@@@std@@@std@@AAEPAU__GC1TO1TENDER@CGuildCombat1to1Mng@@QAU23@ABU23@@Z DD 019930522H
	DD	01H
	DD	FLAT:__unwindtable$??$_Emplace_reallocate@ABU__GC1TO1TENDER@CGuildCombat1to1Mng@@@?$vector@U__GC1TO1TENDER@CGuildCombat1to1Mng@@V?$allocator@U__GC1TO1TENDER@CGuildCombat1to1Mng@@@std@@@std@@AAEPAU__GC1TO1TENDER@CGuildCombat1to1Mng@@QAU23@ABU23@@Z
	DD	2 DUP(00H)
	DD	2 DUP(00H)
	DD	00H
	DD	01H
xdata$x	ENDS
;	COMDAT xdata$x
xdata$x	SEGMENT
__unwindtable$??$_Uninitialized_copy_n@PAU__GC1TO1TENDER@CGuildCombat1to1Mng@@V?$allocator@U__GC1TO1TENDER@CGuildCombat1to1Mng@@@std@@@std@@YAPAU__GC1TO1TENDER@CGuildCombat1to1Mng@@PAU12@I0AAV?$allocator@U__GC1TO1TENDER@CGuildCombat1to1Mng@@@0@@Z DD 0ffffffffH
	DD	FLAT:__unwindfunclet$??$_Uninitialized_copy_n@PAU__GC1TO1TENDER@CGuildCombat1to1Mng@@V?$allocator@U__GC1TO1TENDER@CGuildCombat1to1Mng@@@std@@@std@@YAPAU__GC1TO1TENDER@CGuildCombat1to1Mng@@PAU12@I0AAV?$allocator@U__GC1TO1TENDER@CGuildCombat1to1Mng@@@0@@Z$0
__ehfuncinfo$??$_Uninitialized_copy_n@PAU__GC1TO1TENDER@CGuildCombat1to1Mng@@V?$allocator@U__GC1TO1TENDER@CGuildCombat1to1Mng@@@std@@@std@@YAPAU__GC1TO1TENDER@CGuildCombat1to1Mng@@PAU12@I0AAV?$allocator@U__GC1TO1TENDER@CGuildCombat1to1Mng@@@0@@Z DD 019930522H
	DD	01H
	DD	FLAT:__unwindtable$??$_Uninitialized_copy_n@PAU__GC1TO1TENDER@CGuildCombat1to1Mng@@V?$allocator@U__GC1TO1TENDER@CGuildCombat1to1Mng@@@std@@@std@@YAPAU__GC1TO1TENDER@CGuildCombat1to1Mng@@PAU12@I0AAV?$allocator@U__GC1TO1TENDER@CGuildCombat1to1Mng@@@0@@Z
	DD	2 DUP(00H)
	DD	2 DUP(00H)
	DD	00H
	DD	01H
xdata$x	ENDS
;	COMDAT xdata$x
xdata$x	SEGMENT
__unwindtable$??$emplace@U?$pair@KH@std@@@?$_Tree@V?$_Tmap_traits@HHU?$less@H@std@@V?$allocator@U?$pair@$$CBHH@std@@@2@$00@std@@@std@@QAE?AU?$pair@V?$_Tree_iterator@V?$_Tree_val@U?$_Tree_simple_types@U?$pair@$$CBHH@std@@@std@@@std@@@std@@_N@1@$$QAU?$pair@KH@1@@Z DD 0ffffffffH
	DD	FLAT:__unwindfunclet$??$emplace@U?$pair@KH@std@@@?$_Tree@V?$_Tmap_traits@HHU?$less@H@std@@V?$allocator@U?$pair@$$CBHH@std@@@2@$00@std@@@std@@QAE?AU?$pair@V?$_Tree_iterator@V?$_Tree_val@U?$_Tree_simple_types@U?$pair@$$CBHH@std@@@std@@@std@@@std@@_N@1@$$QAU?$pair@KH@1@@Z$2
	DD	0ffffffffH
	DD	FLAT:__unwindfunclet$??$emplace@U?$pair@KH@std@@@?$_Tree@V?$_Tmap_traits@HHU?$less@H@std@@V?$allocator@U?$pair@$$CBHH@std@@@2@$00@std@@@std@@QAE?AU?$pair@V?$_Tree_iterator@V?$_Tree_val@U?$_Tree_simple_types@U?$pair@$$CBHH@std@@@std@@@std@@@std@@_N@1@$$QAU?$pair@KH@1@@Z$0
__ehfuncinfo$??$emplace@U?$pair@KH@std@@@?$_Tree@V?$_Tmap_traits@HHU?$less@H@std@@V?$allocator@U?$pair@$$CBHH@std@@@2@$00@std@@@std@@QAE?AU?$pair@V?$_Tree_iterator@V?$_Tree_val@U?$_Tree_simple_types@U?$pair@$$CBHH@std@@@std@@@std@@@std@@_N@1@$$QAU?$pair@KH@1@@Z DD 019930522H
	DD	02H
	DD	FLAT:__unwindtable$??$emplace@U?$pair@KH@std@@@?$_Tree@V?$_Tmap_traits@HHU?$less@H@std@@V?$allocator@U?$pair@$$CBHH@std@@@2@$00@std@@@std@@QAE?AU?$pair@V?$_Tree_iterator@V?$_Tree_val@U?$_Tree_simple_types@U?$pair@$$CBHH@std@@@std@@@std@@@std@@_N@1@$$QAU?$pair@KH@1@@Z
	DD	2 DUP(00H)
	DD	2 DUP(00H)
	DD	00H
	DD	01H
xdata$x	ENDS
;	COMDAT xdata$x
xdata$x	SEGMENT
__unwindtable$??$_Assign_counted_range@PAU__GC1TO1TENDER@CGuildCombat1to1Mng@@@?$vector@U__GC1TO1TENDER@CGuildCombat1to1Mng@@V?$allocator@U__GC1TO1TENDER@CGuildCombat1to1Mng@@@std@@@std@@AAEXPAU__GC1TO1TENDER@CGuildCombat1to1Mng@@I@Z DD 0ffffffffH
	DD	FLAT:__unwindfunclet$??$_Assign_counted_range@PAU__GC1TO1TENDER@CGuildCombat1to1Mng@@@?$vector@U__GC1TO1TENDER@CGuildCombat1to1Mng@@V?$allocator@U__GC1TO1TENDER@CGuildCombat1to1Mng@@@std@@@std@@AAEXPAU__GC1TO1TENDER@CGuildCombat1to1Mng@@I@Z$1
__ehfuncinfo$??$_Assign_counted_range@PAU__GC1TO1TENDER@CGuildCombat1to1Mng@@@?$vector@U__GC1TO1TENDER@CGuildCombat1to1Mng@@V?$allocator@U__GC1TO1TENDER@CGuildCombat1to1Mng@@@std@@@std@@AAEXPAU__GC1TO1TENDER@CGuildCombat1to1Mng@@I@Z DD 019930522H
	DD	01H
	DD	FLAT:__unwindtable$??$_Assign_counted_range@PAU__GC1TO1TENDER@CGuildCombat1to1Mng@@@?$vector@U__GC1TO1TENDER@CGuildCombat1to1Mng@@V?$allocator@U__GC1TO1TENDER@CGuildCombat1to1Mng@@@std@@@std@@AAEXPAU__GC1TO1TENDER@CGuildCombat1to1Mng@@I@Z
	DD	2 DUP(00H)
	DD	2 DUP(00H)
	DD	00H
	DD	01H
xdata$x	ENDS
;	COMDAT xdata$x
xdata$x	SEGMENT
__unwindtable$??$emplace@U?$pair@KH@std@@@?$multimap@HHU?$less@H@std@@V?$allocator@U?$pair@$$CBHH@std@@@2@@std@@QAE?AV?$_Tree_iterator@V?$_Tree_val@U?$_Tree_simple_types@U?$pair@$$CBHH@std@@@std@@@std@@@1@$$QAU?$pair@KH@1@@Z DD 0ffffffffH
	DD	FLAT:__unwindfunclet$??$emplace@U?$pair@KH@std@@@?$multimap@HHU?$less@H@std@@V?$allocator@U?$pair@$$CBHH@std@@@2@@std@@QAE?AV?$_Tree_iterator@V?$_Tree_val@U?$_Tree_simple_types@U?$pair@$$CBHH@std@@@std@@@std@@@1@$$QAU?$pair@KH@1@@Z$2
	DD	0ffffffffH
	DD	FLAT:__unwindfunclet$??$emplace@U?$pair@KH@std@@@?$multimap@HHU?$less@H@std@@V?$allocator@U?$pair@$$CBHH@std@@@2@@std@@QAE?AV?$_Tree_iterator@V?$_Tree_val@U?$_Tree_simple_types@U?$pair@$$CBHH@std@@@std@@@std@@@1@$$QAU?$pair@KH@1@@Z$0
__ehfuncinfo$??$emplace@U?$pair@KH@std@@@?$multimap@HHU?$less@H@std@@V?$allocator@U?$pair@$$CBHH@std@@@2@@std@@QAE?AV?$_Tree_iterator@V?$_Tree_val@U?$_Tree_simple_types@U?$pair@$$CBHH@std@@@std@@@std@@@1@$$QAU?$pair@KH@1@@Z DD 019930522H
	DD	02H
	DD	FLAT:__unwindtable$??$emplace@U?$pair@KH@std@@@?$multimap@HHU?$less@H@std@@V?$allocator@U?$pair@$$CBHH@std@@@2@@std@@QAE?AV?$_Tree_iterator@V?$_Tree_val@U?$_Tree_simple_types@U?$pair@$$CBHH@std@@@std@@@std@@@1@$$QAU?$pair@KH@1@@Z
	DD	2 DUP(00H)
	DD	2 DUP(00H)
	DD	00H
	DD	01H
xdata$x	ENDS
;	COMDAT xdata$x
xdata$x	SEGMENT
__unwindtable$??$insert@U?$pair@KH@std@@$0A@@?$multimap@HHU?$less@H@std@@V?$allocator@U?$pair@$$CBHH@std@@@2@@std@@QAE?AV?$_Tree_iterator@V?$_Tree_val@U?$_Tree_simple_types@U?$pair@$$CBHH@std@@@std@@@std@@@1@$$QAU?$pair@KH@1@@Z DD 0ffffffffH
	DD	FLAT:__unwindfunclet$??$insert@U?$pair@KH@std@@$0A@@?$multimap@HHU?$less@H@std@@V?$allocator@U?$pair@$$CBHH@std@@@2@@std@@QAE?AV?$_Tree_iterator@V?$_Tree_val@U?$_Tree_simple_types@U?$pair@$$CBHH@std@@@std@@@std@@@1@$$QAU?$pair@KH@1@@Z$2
	DD	0ffffffffH
	DD	FLAT:__unwindfunclet$??$insert@U?$pair@KH@std@@$0A@@?$multimap@HHU?$less@H@std@@V?$allocator@U?$pair@$$CBHH@std@@@2@@std@@QAE?AV?$_Tree_iterator@V?$_Tree_val@U?$_Tree_simple_types@U?$pair@$$CBHH@std@@@std@@@std@@@1@$$QAU?$pair@KH@1@@Z$0
__ehfuncinfo$??$insert@U?$pair@KH@std@@$0A@@?$multimap@HHU?$less@H@std@@V?$allocator@U?$pair@$$CBHH@std@@@2@@std@@QAE?AV?$_Tree_iterator@V?$_Tree_val@U?$_Tree_simple_types@U?$pair@$$CBHH@std@@@std@@@std@@@1@$$QAU?$pair@KH@1@@Z DD 019930522H
	DD	02H
	DD	FLAT:__unwindtable$??$insert@U?$pair@KH@std@@$0A@@?$multimap@HHU?$less@H@std@@V?$allocator@U?$pair@$$CBHH@std@@@2@@std@@QAE?AV?$_Tree_iterator@V?$_Tree_val@U?$_Tree_simple_types@U?$pair@$$CBHH@std@@@std@@@std@@@1@$$QAU?$pair@KH@1@@Z
	DD	2 DUP(00H)
	DD	2 DUP(00H)
	DD	00H
	DD	01H
xdata$x	ENDS
;	COMDAT xdata$x
xdata$x	SEGMENT
__unwindtable$??0CGuildCombat1to1@@QAE@ABV0@@Z DD 0ffffffffH
	DD	FLAT:__unwindfunclet$??0CGuildCombat1to1@@QAE@ABV0@@Z$1
	DD	00H
	DD	FLAT:__unwindfunclet$??0CGuildCombat1to1@@QAE@ABV0@@Z$2
__ehfuncinfo$??0CGuildCombat1to1@@QAE@ABV0@@Z DD 019930522H
	DD	02H
	DD	FLAT:__unwindtable$??0CGuildCombat1to1@@QAE@ABV0@@Z
	DD	2 DUP(00H)
	DD	2 DUP(00H)
	DD	00H
	DD	01H
xdata$x	ENDS
;	COMDAT xdata$x
xdata$x	SEGMENT
__unwindtable$?SetWinChip@CGuildCombat1to1@@QAEXPAVCUser@@0HH@Z DD 0ffffffffH
	DD	FLAT:__unwindfunclet$?SetWinChip@CGuildCombat1to1@@QAEXPAVCUser@@0HH@Z$0
	DD	00H
	DD	FLAT:__unwindfunclet$?SetWinChip@CGuildCombat1to1@@QAEXPAVCUser@@0HH@Z$1
__ehfuncinfo$?SetWinChip@CGuildCombat1to1@@QAEXPAVCUser@@0HH@Z DD 019930522H
	DD	02H
	DD	FLAT:__unwindtable$?SetWinChip@CGuildCombat1to1@@QAEXPAVCUser@@0HH@Z
	DD	2 DUP(00H)
	DD	2 DUP(00H)
	DD	00H
	DD	01H
xdata$x	ENDS
;	COMDAT xdata$x
xdata$x	SEGMENT
__unwindtable$??0CGuildCombat1to1@@QAE@AAV?$vector@U__GC1TO1TENDER@CGuildCombat1to1Mng@@V?$allocator@U__GC1TO1TENDER@CGuildCombat1to1Mng@@@std@@@std@@H@Z DD 0ffffffffH
	DD	FLAT:__unwindfunclet$??0CGuildCombat1to1@@QAE@AAV?$vector@U__GC1TO1TENDER@CGuildCombat1to1Mng@@V?$allocator@U__GC1TO1TENDER@CGuildCombat1to1Mng@@@std@@@std@@H@Z$0
__ehfuncinfo$??0CGuildCombat1to1@@QAE@AAV?$vector@U__GC1TO1TENDER@CGuildCombat1to1Mng@@V?$allocator@U__GC1TO1TENDER@CGuildCombat1to1Mng@@@std@@@std@@H@Z DD 019930522H
	DD	01H
	DD	FLAT:__unwindtable$??0CGuildCombat1to1@@QAE@AAV?$vector@U__GC1TO1TENDER@CGuildCombat1to1Mng@@V?$allocator@U__GC1TO1TENDER@CGuildCombat1to1Mng@@@std@@@std@@H@Z
	DD	2 DUP(00H)
	DD	2 DUP(00H)
	DD	00H
	DD	01H
xdata$x	ENDS
;	COMDAT xdata$x
xdata$x	SEGMENT
__unwindtable$??0?$vector@U__GC1TO1TENDER@CGuildCombat1to1Mng@@V?$allocator@U__GC1TO1TENDER@CGuildCombat1to1Mng@@@std@@@std@@QAE@ABV01@@Z DD 0ffffffffH
	DD	FLAT:__unwindfunclet$??0?$vector@U__GC1TO1TENDER@CGuildCombat1to1Mng@@V?$allocator@U__GC1TO1TENDER@CGuildCombat1to1Mng@@@std@@@std@@QAE@ABV01@@Z$0
	DD	00H
	DD	FLAT:__unwindfunclet$??0?$vector@U__GC1TO1TENDER@CGuildCombat1to1Mng@@V?$allocator@U__GC1TO1TENDER@CGuildCombat1to1Mng@@@std@@@std@@QAE@ABV01@@Z$1
__ehfuncinfo$??0?$vector@U__GC1TO1TENDER@CGuildCombat1to1Mng@@V?$allocator@U__GC1TO1TENDER@CGuildCombat1to1Mng@@@std@@@std@@QAE@ABV01@@Z DD 019930522H
	DD	02H
	DD	FLAT:__unwindtable$??0?$vector@U__GC1TO1TENDER@CGuildCombat1to1Mng@@V?$allocator@U__GC1TO1TENDER@CGuildCombat1to1Mng@@@std@@@std@@QAE@ABV01@@Z
	DD	2 DUP(00H)
	DD	2 DUP(00H)
	DD	00H
	DD	01H
xdata$x	ENDS
;	COMDAT xdata$x
xdata$x	SEGMENT
__unwindtable$?SetFailedTenderGuild@CGuildCombat1to1Mng@@QAEXPAVCUser@@@Z DD 0ffffffffH
	DD	FLAT:__unwindfunclet$?SetFailedTenderGuild@CGuildCombat1to1Mng@@QAEXPAVCUser@@@Z$0
__ehfuncinfo$?SetFailedTenderGuild@CGuildCombat1to1Mng@@QAEXPAVCUser@@@Z DD 019930522H
	DD	01H
	DD	FLAT:__unwindtable$?SetFailedTenderGuild@CGuildCombat1to1Mng@@QAEXPAVCUser@@@Z
	DD	2 DUP(00H)
	DD	2 DUP(00H)
	DD	00H
	DD	01H
xdata$x	ENDS
;	COMDAT xdata$x
xdata$x	SEGMENT
__unwindtable$?SetCancelTenderGuild@CGuildCombat1to1Mng@@QAEXPAVCUser@@@Z DD 0ffffffffH
	DD	FLAT:__unwindfunclet$?SetCancelTenderGuild@CGuildCombat1to1Mng@@QAEXPAVCUser@@@Z$0
__ehfuncinfo$?SetCancelTenderGuild@CGuildCombat1to1Mng@@QAEXPAVCUser@@@Z DD 019930522H
	DD	01H
	DD	FLAT:__unwindtable$?SetCancelTenderGuild@CGuildCombat1to1Mng@@QAEXPAVCUser@@@Z
	DD	2 DUP(00H)
	DD	2 DUP(00H)
	DD	00H
	DD	01H
xdata$x	ENDS
;	COMDAT xdata$x
xdata$x	SEGMENT
__unwindtable$?SetTenderGuild@CGuildCombat1to1Mng@@QAEXPAVCUser@@H@Z DD 0ffffffffH
	DD	FLAT:__unwindfunclet$?SetTenderGuild@CGuildCombat1to1Mng@@QAEXPAVCUser@@H@Z$0
	DD	0ffffffffH
	DD	FLAT:__unwindfunclet$?SetTenderGuild@CGuildCombat1to1Mng@@QAEXPAVCUser@@H@Z$1
	DD	01H
	DD	FLAT:__unwindfunclet$?SetTenderGuild@CGuildCombat1to1Mng@@QAEXPAVCUser@@H@Z$2
	DD	0ffffffffH
	DD	FLAT:__unwindfunclet$?SetTenderGuild@CGuildCombat1to1Mng@@QAEXPAVCUser@@H@Z$3
__ehfuncinfo$?SetTenderGuild@CGuildCombat1to1Mng@@QAEXPAVCUser@@H@Z DD 019930522H
	DD	04H
	DD	FLAT:__unwindtable$?SetTenderGuild@CGuildCombat1to1Mng@@QAEXPAVCUser@@H@Z
	DD	2 DUP(00H)
	DD	2 DUP(00H)
	DD	00H
	DD	01H
xdata$x	ENDS
;	COMDAT xdata$x
xdata$x	SEGMENT
__unwindtable$?CreateGuildCombat1to1@CGuildCombat1to1Mng@@QAEXXZ DD 0ffffffffH
	DD	FLAT:__unwindfunclet$?CreateGuildCombat1to1@CGuildCombat1to1Mng@@QAEXXZ$0
	DD	00H
	DD	FLAT:__unwindfunclet$?CreateGuildCombat1to1@CGuildCombat1to1Mng@@QAEXXZ$5
	DD	00H
	DD	FLAT:__unwindfunclet$?CreateGuildCombat1to1@CGuildCombat1to1Mng@@QAEXXZ$3
	DD	00H
	DD	FLAT:__unwindfunclet$?CreateGuildCombat1to1@CGuildCombat1to1Mng@@QAEXXZ$1
__ehfuncinfo$?CreateGuildCombat1to1@CGuildCombat1to1Mng@@QAEXXZ DD 019930522H
	DD	04H
	DD	FLAT:__unwindtable$?CreateGuildCombat1to1@CGuildCombat1to1Mng@@QAEXXZ
	DD	2 DUP(00H)
	DD	2 DUP(00H)
	DD	00H
	DD	01H
xdata$x	ENDS
;	COMDAT xdata$x
xdata$x	SEGMENT
__unwindtable$?GuildCombat1to1Open@CGuildCombat1to1Mng@@QAEXH@Z DD 0ffffffffH
	DD	FLAT:__unwindfunclet$?GuildCombat1to1Open@CGuildCombat1to1Mng@@QAEXH@Z$0
__ehfuncinfo$?GuildCombat1to1Open@CGuildCombat1to1Mng@@QAEXH@Z DD 019930522H
	DD	01H
	DD	FLAT:__unwindtable$?GuildCombat1to1Open@CGuildCombat1to1Mng@@QAEXH@Z
	DD	2 DUP(00H)
	DD	2 DUP(00H)
	DD	00H
	DD	01H
xdata$x	ENDS
;	COMDAT xdata$x
xdata$x	SEGMENT
__unwindtable$?FormatV@?$CStringT@DV?$StrTraitMFC@DV?$ChTraitsCRT@D@ATL@@@@@ATL@@QAEXPBDPAD@Z DD 0ffffffffH
	DD	FLAT:__unwindfunclet$?FormatV@?$CStringT@DV?$StrTraitMFC@DV?$ChTraitsCRT@D@ATL@@@@@ATL@@QAEXPBDPAD@Z$1
	DD	0ffffffffH
	DD	FLAT:__unwindfunclet$?FormatV@?$CStringT@DV?$StrTraitMFC@DV?$ChTraitsCRT@D@ATL@@@@@ATL@@QAEXPBDPAD@Z$0
__ehfuncinfo$?FormatV@?$CStringT@DV?$StrTraitMFC@DV?$ChTraitsCRT@D@ATL@@@@@ATL@@QAEXPBDPAD@Z DD 019930522H
	DD	02H
	DD	FLAT:__unwindtable$?FormatV@?$CStringT@DV?$StrTraitMFC@DV?$ChTraitsCRT@D@ATL@@@@@ATL@@QAEXPBDPAD@Z
	DD	2 DUP(00H)
	DD	2 DUP(00H)
	DD	00H
	DD	01H
xdata$x	ENDS
;	COMDAT xdata$x
xdata$x	SEGMENT
__unwindtable$??0?$CStringT@DV?$StrTraitMFC@DV?$ChTraitsCRT@D@ATL@@@@@ATL@@QAE@PBDPAUIAtlStringMgr@1@@Z DD 0ffffffffH
	DD	FLAT:__unwindfunclet$??0?$CStringT@DV?$StrTraitMFC@DV?$ChTraitsCRT@D@ATL@@@@@ATL@@QAE@PBDPAUIAtlStringMgr@1@@Z$0
__ehfuncinfo$??0?$CStringT@DV?$StrTraitMFC@DV?$ChTraitsCRT@D@ATL@@@@@ATL@@QAE@PBDPAUIAtlStringMgr@1@@Z DD 019930522H
	DD	01H
	DD	FLAT:__unwindtable$??0?$CStringT@DV?$StrTraitMFC@DV?$ChTraitsCRT@D@ATL@@@@@ATL@@QAE@PBDPAUIAtlStringMgr@1@@Z
	DD	2 DUP(00H)
	DD	2 DUP(00H)
	DD	00H
	DD	01H
xdata$x	ENDS
; Function compile flags: /Ogtp
; File C:\Program Files\Microsoft Visual Studio\2022\Professional\VC\Tools\MSVC\14.44.35207\include\xmemory
;	COMDAT ??1?$_Tidy_guard@V?$vector@U__GC1TO1TENDER@CGuildCombat1to1Mng@@V?$allocator@U__GC1TO1TENDER@CGuildCombat1to1Mng@@@std@@@std@@@std@@QAE@XZ
_TEXT	SEGMENT
??1?$_Tidy_guard@V?$vector@U__GC1TO1TENDER@CGuildCombat1to1Mng@@V?$allocator@U__GC1TO1TENDER@CGuildCombat1to1Mng@@@std@@@std@@@std@@QAE@XZ PROC ; std::_Tidy_guard<std::vector<CGuildCombat1to1Mng::__GC1TO1TENDER,std::allocator<CGuildCombat1to1Mng::__GC1TO1TENDER> > >::~_Tidy_guard<std::vector<CGuildCombat1to1Mng::__GC1TO1TENDER,std::allocator<CGuildCombat1to1Mng::__GC1TO1TENDER> > >, COMDAT
; _this$ = ecx

; 87   :         if (_Target) {

  00000	8b 09		 mov	 ecx, DWORD PTR [ecx]
  00002	85 c9		 test	 ecx, ecx
  00004	0f 85 00 00 00
	00		 jne	 ?_Tidy@?$vector@U__GC1TO1TENDER@CGuildCombat1to1Mng@@V?$allocator@U__GC1TO1TENDER@CGuildCombat1to1Mng@@@std@@@std@@AAEXXZ ; std::vector<CGuildCombat1to1Mng::__GC1TO1TENDER,std::allocator<CGuildCombat1to1Mng::__GC1TO1TENDER> >::_Tidy

; 88   :             _Target->_Tidy();
; 89   :         }
; 90   :     }

  0000a	c3		 ret	 0
??1?$_Tidy_guard@V?$vector@U__GC1TO1TENDER@CGuildCombat1to1Mng@@V?$allocator@U__GC1TO1TENDER@CGuildCombat1to1Mng@@@std@@@std@@@std@@QAE@XZ ENDP ; std::_Tidy_guard<std::vector<CGuildCombat1to1Mng::__GC1TO1TENDER,std::allocator<CGuildCombat1to1Mng::__GC1TO1TENDER> > >::~_Tidy_guard<std::vector<CGuildCombat1to1Mng::__GC1TO1TENDER,std::allocator<CGuildCombat1to1Mng::__GC1TO1TENDER> > >
_TEXT	ENDS
; Function compile flags: /Ogtp
; File C:\Program Files\Microsoft Visual Studio\2022\Professional\VC\Tools\MSVC\14.44.35207\include\xmemory
;	COMDAT ??1?$_Uninitialized_backout_al@V?$allocator@VCGuildCombat1to1@@@std@@@std@@QAE@XZ
_TEXT	SEGMENT
??1?$_Uninitialized_backout_al@V?$allocator@VCGuildCombat1to1@@@std@@@std@@QAE@XZ PROC ; std::_Uninitialized_backout_al<std::allocator<CGuildCombat1to1> >::~_Uninitialized_backout_al<std::allocator<CGuildCombat1to1> >, COMDAT
; _this$ = ecx

; 1838 :     _CONSTEXPR20 ~_Uninitialized_backout_al() {

  00000	56		 push	 esi

; 1839 :         _STD _Destroy_range(_First, _Last, _Al);

  00001	8b 31		 mov	 esi, DWORD PTR [ecx]
  00003	57		 push	 edi
  00004	8b 79 04	 mov	 edi, DWORD PTR [ecx+4]

; 1102 :         for (; _First != _Last; ++_First) {

  00007	3b f7		 cmp	 esi, edi
  00009	74 14		 je	 SHORT $LN6@Uninitiali
  0000b	0f 1f 44 00 00	 npad	 5
$LL7@Uninitiali:

; 741  :         _Ptr->~_Uty();

  00010	8b 06		 mov	 eax, DWORD PTR [esi]
  00012	8b ce		 mov	 ecx, esi
  00014	6a 00		 push	 0
  00016	ff 10		 call	 DWORD PTR [eax]

; 1102 :         for (; _First != _Last; ++_First) {

  00018	83 c6 2c	 add	 esi, 44			; 0000002cH
  0001b	3b f7		 cmp	 esi, edi
  0001d	75 f1		 jne	 SHORT $LL7@Uninitiali
$LN6@Uninitiali:
  0001f	5f		 pop	 edi

; 1840 :     }

  00020	5e		 pop	 esi
  00021	c3		 ret	 0
??1?$_Uninitialized_backout_al@V?$allocator@VCGuildCombat1to1@@@std@@@std@@QAE@XZ ENDP ; std::_Uninitialized_backout_al<std::allocator<CGuildCombat1to1> >::~_Uninitialized_backout_al<std::allocator<CGuildCombat1to1> >
_TEXT	ENDS
; Function compile flags: /Ogtp
; File C:\Program Files\Microsoft Visual Studio\2022\Professional\VC\Tools\MSVC\14.44.35207\include\xtree
; File C:\Program Files\Microsoft Visual Studio\2022\Professional\VC\Tools\MSVC\14.44.35207\include\xmemory
; File C:\Program Files\Microsoft Visual Studio\2022\Professional\VC\Tools\MSVC\14.44.35207\include\xtree
;	COMDAT ??1?$_Tree_temp_node@V?$allocator@U?$_Tree_node@U?$pair@$$CBHH@std@@PAX@std@@@std@@@std@@QAE@XZ
_TEXT	SEGMENT
??1?$_Tree_temp_node@V?$allocator@U?$_Tree_node@U?$pair@$$CBHH@std@@PAX@std@@@std@@@std@@QAE@XZ PROC ; std::_Tree_temp_node<std::allocator<std::_Tree_node<std::pair<int const ,int>,void *> > >::~_Tree_temp_node<std::allocator<std::_Tree_node<std::pair<int const ,int>,void *> > >, COMDAT
; _this$ = ecx
; File C:\Program Files\Microsoft Visual Studio\2022\Professional\VC\Tools\MSVC\14.44.35207\include\xmemory

; 1172 :         if (_Ptr) {

  00000	8b 41 04	 mov	 eax, DWORD PTR [ecx+4]
  00003	85 c0		 test	 eax, eax
  00005	74 0b		 je	 SHORT $LN19@Tree_temp_

; 289  :         ::operator delete(_Ptr, _Bytes);

  00007	6a 18		 push	 24			; 00000018H
  00009	50		 push	 eax
  0000a	e8 00 00 00 00	 call	 ??3@YAXPAXI@Z		; operator delete
  0000f	83 c4 08	 add	 esp, 8
$LN19@Tree_temp_:
; File C:\Program Files\Microsoft Visual Studio\2022\Professional\VC\Tools\MSVC\14.44.35207\include\xtree

; 848  :     }

  00012	c3		 ret	 0
??1?$_Tree_temp_node@V?$allocator@U?$_Tree_node@U?$pair@$$CBHH@std@@PAX@std@@@std@@@std@@QAE@XZ ENDP ; std::_Tree_temp_node<std::allocator<std::_Tree_node<std::pair<int const ,int>,void *> > >::~_Tree_temp_node<std::allocator<std::_Tree_node<std::pair<int const ,int>,void *> > >
_TEXT	ENDS
; Function compile flags: /Ogtp
; File C:\Program Files\Microsoft Visual Studio\2022\Professional\VC\Tools\MSVC\14.44.35207\include\xmemory
;	COMDAT ??1?$_Alloc_construct_ptr@V?$allocator@U?$_Tree_node@U?$pair@$$CBHH@std@@PAX@std@@@std@@@std@@QAE@XZ
_TEXT	SEGMENT
??1?$_Alloc_construct_ptr@V?$allocator@U?$_Tree_node@U?$pair@$$CBHH@std@@PAX@std@@@std@@@std@@QAE@XZ PROC ; std::_Alloc_construct_ptr<std::allocator<std::_Tree_node<std::pair<int const ,int>,void *> > >::~_Alloc_construct_ptr<std::allocator<std::_Tree_node<std::pair<int const ,int>,void *> > >, COMDAT
; _this$ = ecx

; 1172 :         if (_Ptr) {

  00000	8b 41 04	 mov	 eax, DWORD PTR [ecx+4]
  00003	85 c0		 test	 eax, eax
  00005	74 0b		 je	 SHORT $LN10@Alloc_cons

; 289  :         ::operator delete(_Ptr, _Bytes);

  00007	6a 18		 push	 24			; 00000018H
  00009	50		 push	 eax
  0000a	e8 00 00 00 00	 call	 ??3@YAXPAXI@Z		; operator delete
  0000f	83 c4 08	 add	 esp, 8
$LN10@Alloc_cons:

; 1173 :             _Al.deallocate(_Ptr, 1);
; 1174 :         }
; 1175 :     }

  00012	c3		 ret	 0
??1?$_Alloc_construct_ptr@V?$allocator@U?$_Tree_node@U?$pair@$$CBHH@std@@PAX@std@@@std@@@std@@QAE@XZ ENDP ; std::_Alloc_construct_ptr<std::allocator<std::_Tree_node<std::pair<int const ,int>,void *> > >::~_Alloc_construct_ptr<std::allocator<std::_Tree_node<std::pair<int const ,int>,void *> > >
_TEXT	ENDS
; Function compile flags: /Ogtp
; File C:\Program Files\Microsoft Visual Studio\2022\Professional\VC\Tools\MSVC\14.44.35207\include\xutility
;	COMDAT ??$_Copy_memmove@PAKPAK@std@@YAPAKPAK00@Z
_TEXT	SEGMENT
__First$ = 8						; size = 4
__Last$ = 12						; size = 4
__Dest$ = 16						; size = 4
??$_Copy_memmove@PAKPAK@std@@YAPAKPAK00@Z PROC		; std::_Copy_memmove<unsigned long *,unsigned long *>, COMDAT

; 4762 : _OutCtgIt _Copy_memmove(_CtgIt _First, _CtgIt _Last, _OutCtgIt _Dest) {

  00000	55		 push	 ebp
  00001	8b ec		 mov	 ebp, esp

; 4763 :     _STL_INTERNAL_CHECK(_First <= _Last);
; 4764 :     const auto _First_ptr    = _STD _To_address(_First);
; 4765 :     const auto _Last_ptr     = _STD _To_address(_Last);
; 4766 :     const auto _Object_count = static_cast<size_t>(_Last_ptr - _First_ptr);

  00003	8b 55 08	 mov	 edx, DWORD PTR __First$[ebp]
  00006	8b 4d 0c	 mov	 ecx, DWORD PTR __Last$[ebp]
  00009	2b ca		 sub	 ecx, edx
  0000b	8b c1		 mov	 eax, ecx
  0000d	c1 f8 02	 sar	 eax, 2

; 4767 :     const auto _First_ch     = const_cast<const char*>(reinterpret_cast<const volatile char*>(_First_ptr));
; 4768 :     const auto _Last_ch      = const_cast<const char*>(reinterpret_cast<const volatile char*>(_Last_ptr));
; 4769 :     const auto _Byte_count   = static_cast<size_t>(_Last_ch - _First_ch);
; 4770 :     return _STD _Copy_memmove_tail(_First_ch, _STD move(_Dest), _Byte_count, _Object_count);

  00010	50		 push	 eax
  00011	51		 push	 ecx
  00012	ff 75 10	 push	 DWORD PTR __Dest$[ebp]
  00015	52		 push	 edx
  00016	e8 00 00 00 00	 call	 ??$_Copy_memmove_tail@PAK@std@@YAPAKQBDQAKII@Z ; std::_Copy_memmove_tail<unsigned long *>
  0001b	83 c4 10	 add	 esp, 16			; 00000010H

; 4771 : }

  0001e	5d		 pop	 ebp
  0001f	c3		 ret	 0
??$_Copy_memmove@PAKPAK@std@@YAPAKPAK00@Z ENDP		; std::_Copy_memmove<unsigned long *,unsigned long *>
_TEXT	ENDS
; Function compile flags: /Ogtp
; File C:\Program Files\Microsoft Visual Studio\2022\Professional\VC\Tools\MSVC\14.44.35207\include\xutility
;	COMDAT ??$_Copy_memmove_tail@PAK@std@@YAPAKQBDQAKII@Z
_TEXT	SEGMENT
__First_ch$ = 8						; size = 4
__Dest$ = 12						; size = 4
__Byte_count$ = 16					; size = 4
__Object_count$ = 20					; size = 4
??$_Copy_memmove_tail@PAK@std@@YAPAKQBDQAKII@Z PROC	; std::_Copy_memmove_tail<unsigned long *>, COMDAT

; 4747 :     const char* const _First_ch, const _OutCtgIt _Dest, const size_t _Byte_count, const size_t _Object_count) {

  00000	55		 push	 ebp
  00001	8b ec		 mov	 ebp, esp
  00003	56		 push	 esi

; 4748 :     _STL_INTERNAL_CHECK(_Byte_count == _Object_count * sizeof(*_Dest));
; 4749 :     const auto _Dest_ptr = _STD _To_address(_Dest);
; 4750 :     const auto _Dest_ch  = const_cast<char*>(reinterpret_cast<const volatile char*>(_Dest_ptr));
; 4751 :     _CSTD memmove(_Dest_ch, _First_ch, _Byte_count);

  00004	8b 75 0c	 mov	 esi, DWORD PTR __Dest$[ebp]
  00007	57		 push	 edi
  00008	8b 7d 10	 mov	 edi, DWORD PTR __Byte_count$[ebp]
  0000b	57		 push	 edi
  0000c	ff 75 08	 push	 DWORD PTR __First_ch$[ebp]
  0000f	56		 push	 esi
  00010	e8 00 00 00 00	 call	 _memmove
  00015	83 c4 0c	 add	 esp, 12			; 0000000cH

; 4752 :     if constexpr (is_pointer_v<_OutCtgIt>) {
; 4753 :         (void) _Object_count;
; 4754 :         // CodeQL [SM02986] This cast is correct: we're bypassing pointer arithmetic for performance.
; 4755 :         return reinterpret_cast<_OutCtgIt>(_Dest_ch + _Byte_count);

  00018	8d 04 3e	 lea	 eax, DWORD PTR [esi+edi]
  0001b	5f		 pop	 edi
  0001c	5e		 pop	 esi

; 4756 :     } else {
; 4757 :         return _Dest + static_cast<_Iter_diff_t<_OutCtgIt>>(_Object_count);
; 4758 :     }
; 4759 : }

  0001d	5d		 pop	 ebp
  0001e	c3		 ret	 0
??$_Copy_memmove_tail@PAK@std@@YAPAKQBDQAKII@Z ENDP	; std::_Copy_memmove_tail<unsigned long *>
_TEXT	ENDS
; Function compile flags: /Ogtp
; File C:\Program Files\Microsoft Visual Studio\2022\Professional\VC\Tools\MSVC\14.44.35207\include\xmemory
;	COMDAT ??$_Uninitialized_move@PAVCGuildCombat1to1@@V?$allocator@VCGuildCombat1to1@@@std@@@std@@YAPAVCGuildCombat1to1@@QAV1@0PAV1@AAV?$allocator@VCGuildCombat1to1@@@0@@Z
_TEXT	SEGMENT
__Backout$ = -24					; size = 12
__$EHRec$ = -12						; size = 12
__First$ = 8						; size = 4
__Last$ = 12						; size = 4
__Dest$ = 16						; size = 4
__Al$ = 20						; size = 4
??$_Uninitialized_move@PAVCGuildCombat1to1@@V?$allocator@VCGuildCombat1to1@@@std@@@std@@YAPAVCGuildCombat1to1@@QAV1@0PAV1@AAV?$allocator@VCGuildCombat1to1@@@0@@Z PROC ; std::_Uninitialized_move<CGuildCombat1to1 *,std::allocator<CGuildCombat1to1> >, COMDAT

; 1977 :     const _InIt _First, const _InIt _Last, _Alloc_ptr_t<_Alloc> _Dest, _Alloc& _Al) {

  00000	55		 push	 ebp
  00001	8b ec		 mov	 ebp, esp
  00003	6a ff		 push	 -1
  00005	68 00 00 00 00	 push	 __ehhandler$??$_Uninitialized_move@PAVCGuildCombat1to1@@V?$allocator@VCGuildCombat1to1@@@std@@@std@@YAPAVCGuildCombat1to1@@QAV1@0PAV1@AAV?$allocator@VCGuildCombat1to1@@@0@@Z
  0000a	64 a1 00 00 00
	00		 mov	 eax, DWORD PTR fs:0
  00010	50		 push	 eax
  00011	83 ec 0c	 sub	 esp, 12			; 0000000cH
  00014	53		 push	 ebx
  00015	56		 push	 esi
  00016	57		 push	 edi
  00017	a1 00 00 00 00	 mov	 eax, DWORD PTR ___security_cookie
  0001c	33 c5		 xor	 eax, ebp
  0001e	50		 push	 eax
  0001f	8d 45 f4	 lea	 eax, DWORD PTR __$EHRec$[ebp]
  00022	64 a3 00 00 00
	00		 mov	 DWORD PTR fs:0, eax

; 1833 :     _CONSTEXPR20 _Uninitialized_backout_al(pointer _Dest, _Alloc& _Al_) : _First(_Dest), _Last(_Dest), _Al(_Al_) {}

  00028	8b 7d 10	 mov	 edi, DWORD PTR __Dest$[ebp]
  0002b	8b 45 14	 mov	 eax, DWORD PTR __Al$[ebp]

; 1978 :     // move [_First, _Last) to raw _Dest, using _Al
; 1979 :     // note: only called internally from elsewhere in the STL
; 1980 : #ifdef _ENABLE_STL_INTERNAL_CHECK
; 1981 :     _STD _Adl_verify_range(_First, _Last);
; 1982 : #endif // ^^^ defined(_ENABLE_STL_INTERNAL_CHECK) ^^^
; 1983 :     using _Ptrval     = typename _Alloc::value_type*;
; 1984 :     auto _UFirst      = _STD _Get_unwrapped(_First);

  0002e	8b 75 08	 mov	 esi, DWORD PTR __First$[ebp]

; 1833 :     _CONSTEXPR20 _Uninitialized_backout_al(pointer _Dest, _Alloc& _Al_) : _First(_Dest), _Last(_Dest), _Al(_Al_) {}

  00031	89 7d e8	 mov	 DWORD PTR __Backout$[ebp], edi
  00034	89 7d ec	 mov	 DWORD PTR __Backout$[ebp+4], edi
  00037	89 45 f0	 mov	 DWORD PTR __Backout$[ebp+8], eax

; 1985 :     const auto _ULast = _STD _Get_unwrapped(_Last);
; 1986 :     if constexpr (conjunction_v<bool_constant<_Iter_move_cat<decltype(_UFirst), _Ptrval>::_Bitcopy_constructible>,
; 1987 :                       _Uses_default_construct<_Alloc, _Ptrval, decltype(_STD move(*_UFirst))>>) {
; 1988 : #if _HAS_CXX20
; 1989 :         if (!_STD is_constant_evaluated())
; 1990 : #endif // _HAS_CXX20
; 1991 :         {
; 1992 :             _STD _Copy_memmove(_UFirst, _ULast, _STD _Unfancy(_Dest));
; 1993 :             return _Dest + (_ULast - _UFirst);
; 1994 :         }
; 1995 :     }
; 1996 : 
; 1997 :     _Uninitialized_backout_al<_Alloc> _Backout{_Dest, _Al};
; 1998 :     for (; _UFirst != _ULast; ++_UFirst) {

  0003a	8b 5d 0c	 mov	 ebx, DWORD PTR __Last$[ebp]
  0003d	c7 45 fc 00 00
	00 00		 mov	 DWORD PTR __$EHRec$[ebp+8], 0
  00044	3b f3		 cmp	 esi, ebx
  00046	74 15		 je	 SHORT $LN34@Uninitiali
$LL4@Uninitiali:

; 732  :         ::new (const_cast<void*>(static_cast<const volatile void*>(_Ptr))) _Objty(_STD forward<_Types>(_Args)...);

  00048	56		 push	 esi
  00049	8b cf		 mov	 ecx, edi
  0004b	e8 00 00 00 00	 call	 ??0CGuildCombat1to1@@QAE@ABV0@@Z

; 1845 :         ++_Last;

  00050	83 c7 2c	 add	 edi, 44			; 0000002cH

; 1985 :     const auto _ULast = _STD _Get_unwrapped(_Last);
; 1986 :     if constexpr (conjunction_v<bool_constant<_Iter_move_cat<decltype(_UFirst), _Ptrval>::_Bitcopy_constructible>,
; 1987 :                       _Uses_default_construct<_Alloc, _Ptrval, decltype(_STD move(*_UFirst))>>) {
; 1988 : #if _HAS_CXX20
; 1989 :         if (!_STD is_constant_evaluated())
; 1990 : #endif // _HAS_CXX20
; 1991 :         {
; 1992 :             _STD _Copy_memmove(_UFirst, _ULast, _STD _Unfancy(_Dest));
; 1993 :             return _Dest + (_ULast - _UFirst);
; 1994 :         }
; 1995 :     }
; 1996 : 
; 1997 :     _Uninitialized_backout_al<_Alloc> _Backout{_Dest, _Al};
; 1998 :     for (; _UFirst != _ULast; ++_UFirst) {

  00053	83 c6 2c	 add	 esi, 44			; 0000002cH

; 1845 :         ++_Last;

  00056	89 7d ec	 mov	 DWORD PTR __Backout$[ebp+4], edi

; 1985 :     const auto _ULast = _STD _Get_unwrapped(_Last);
; 1986 :     if constexpr (conjunction_v<bool_constant<_Iter_move_cat<decltype(_UFirst), _Ptrval>::_Bitcopy_constructible>,
; 1987 :                       _Uses_default_construct<_Alloc, _Ptrval, decltype(_STD move(*_UFirst))>>) {
; 1988 : #if _HAS_CXX20
; 1989 :         if (!_STD is_constant_evaluated())
; 1990 : #endif // _HAS_CXX20
; 1991 :         {
; 1992 :             _STD _Copy_memmove(_UFirst, _ULast, _STD _Unfancy(_Dest));
; 1993 :             return _Dest + (_ULast - _UFirst);
; 1994 :         }
; 1995 :     }
; 1996 : 
; 1997 :     _Uninitialized_backout_al<_Alloc> _Backout{_Dest, _Al};
; 1998 :     for (; _UFirst != _ULast; ++_UFirst) {

  00059	3b f3		 cmp	 esi, ebx
  0005b	75 eb		 jne	 SHORT $LL4@Uninitiali
$LN34@Uninitiali:

; 1999 :         _Backout._Emplace_back(_STD move(*_UFirst));
; 2000 :     }
; 2001 : 
; 2002 :     return _Backout._Release();
; 2003 : }

  0005d	8b c7		 mov	 eax, edi
  0005f	8b 4d f4	 mov	 ecx, DWORD PTR __$EHRec$[ebp]
  00062	64 89 0d 00 00
	00 00		 mov	 DWORD PTR fs:0, ecx
  00069	59		 pop	 ecx
  0006a	5f		 pop	 edi
  0006b	5e		 pop	 esi
  0006c	5b		 pop	 ebx
  0006d	8b e5		 mov	 esp, ebp
  0006f	5d		 pop	 ebp
  00070	c3		 ret	 0
_TEXT	ENDS
;	COMDAT text$x
text$x	SEGMENT
__unwindfunclet$??$_Uninitialized_move@PAVCGuildCombat1to1@@V?$allocator@VCGuildCombat1to1@@@std@@@std@@YAPAVCGuildCombat1to1@@QAV1@0PAV1@AAV?$allocator@VCGuildCombat1to1@@@0@@Z$0:
  00000	8d 4d e8	 lea	 ecx, DWORD PTR __Backout$[ebp]
  00003	e9 00 00 00 00	 jmp	 ??1?$_Uninitialized_backout_al@V?$allocator@VCGuildCombat1to1@@@std@@@std@@QAE@XZ ; std::_Uninitialized_backout_al<std::allocator<CGuildCombat1to1> >::~_Uninitialized_backout_al<std::allocator<CGuildCombat1to1> >
  00008	cc		 int	 3
  00009	cc		 int	 3
  0000a	cc		 int	 3
  0000b	cc		 int	 3
  0000c	cc		 int	 3
__ehhandler$??$_Uninitialized_move@PAVCGuildCombat1to1@@V?$allocator@VCGuildCombat1to1@@@std@@@std@@YAPAVCGuildCombat1to1@@QAV1@0PAV1@AAV?$allocator@VCGuildCombat1to1@@@0@@Z:
  0000d	90		 npad	 1
  0000e	90		 npad	 1
  0000f	8b 54 24 08	 mov	 edx, DWORD PTR [esp+8]
  00013	8d 42 0c	 lea	 eax, DWORD PTR [edx+12]
  00016	8b 4a e4	 mov	 ecx, DWORD PTR [edx-28]
  00019	33 c8		 xor	 ecx, eax
  0001b	e8 00 00 00 00	 call	 @__security_check_cookie@4
  00020	b8 00 00 00 00	 mov	 eax, OFFSET __ehfuncinfo$??$_Uninitialized_move@PAVCGuildCombat1to1@@V?$allocator@VCGuildCombat1to1@@@std@@@std@@YAPAVCGuildCombat1to1@@QAV1@0PAV1@AAV?$allocator@VCGuildCombat1to1@@@0@@Z
  00025	e9 00 00 00 00	 jmp	 ___CxxFrameHandler3
text$x	ENDS
??$_Uninitialized_move@PAVCGuildCombat1to1@@V?$allocator@VCGuildCombat1to1@@@std@@@std@@YAPAVCGuildCombat1to1@@QAV1@0PAV1@AAV?$allocator@VCGuildCombat1to1@@@0@@Z ENDP ; std::_Uninitialized_move<CGuildCombat1to1 *,std::allocator<CGuildCombat1to1> >
; Function compile flags: /Ogtp
; File C:\Program Files\Microsoft Visual Studio\2022\Professional\VC\Tools\MSVC\14.44.35207\include\vector
; File C:\Program Files\Microsoft Visual Studio\2022\Professional\VC\Tools\MSVC\14.44.35207\include\xmemory
; File C:\Program Files\Microsoft Visual Studio\2022\Professional\VC\Tools\MSVC\14.44.35207\include\vector
; File C:\Program Files\Microsoft Visual Studio\2022\Professional\VC\Tools\MSVC\14.44.35207\include\xmemory
; File C:\Program Files\Microsoft Visual Studio\2022\Professional\VC\Tools\MSVC\14.44.35207\include\vector
;	COMDAT ??1_Reallocation_guard@?$vector@VCGuildCombat1to1@@V?$allocator@VCGuildCombat1to1@@@std@@@std@@QAE@XZ
_TEXT	SEGMENT
??1_Reallocation_guard@?$vector@VCGuildCombat1to1@@V?$allocator@VCGuildCombat1to1@@@std@@@std@@QAE@XZ PROC ; std::vector<CGuildCombat1to1,std::allocator<CGuildCombat1to1> >::_Reallocation_guard::~_Reallocation_guard, COMDAT
; _this$ = ecx

; 620  :         _CONSTEXPR20 ~_Reallocation_guard() noexcept {

  00000	57		 push	 edi
  00001	8b f9		 mov	 edi, ecx

; 621  :             if (_New_begin != nullptr) {

  00003	83 7f 04 00	 cmp	 DWORD PTR [edi+4], 0
  00007	74 48		 je	 SHORT $LN18@Reallocati

; 622  :                 _STD _Destroy_range(_Constructed_first, _Constructed_last, _Al);

  00009	53		 push	 ebx
  0000a	8b 5f 10	 mov	 ebx, DWORD PTR [edi+16]
  0000d	56		 push	 esi
  0000e	8b 77 0c	 mov	 esi, DWORD PTR [edi+12]
; File C:\Program Files\Microsoft Visual Studio\2022\Professional\VC\Tools\MSVC\14.44.35207\include\xmemory

; 1102 :         for (; _First != _Last; ++_First) {

  00011	3b f3		 cmp	 esi, ebx
  00013	74 0f		 je	 SHORT $LN7@Reallocati
$LL8@Reallocati:

; 741  :         _Ptr->~_Uty();

  00015	8b 06		 mov	 eax, DWORD PTR [esi]
  00017	8b ce		 mov	 ecx, esi
  00019	6a 00		 push	 0
  0001b	ff 10		 call	 DWORD PTR [eax]

; 1102 :         for (; _First != _Last; ++_First) {

  0001d	83 c6 2c	 add	 esi, 44			; 0000002cH
  00020	3b f3		 cmp	 esi, ebx
  00022	75 f1		 jne	 SHORT $LL8@Reallocati
$LN7@Reallocati:

; 985  :         _STD _Deallocate<_New_alignof<_Ty>>(_Ptr, sizeof(_Ty) * _Count);

  00024	6b 4f 08 2c	 imul	 ecx, DWORD PTR [edi+8], 44
  00028	8b 47 04	 mov	 eax, DWORD PTR [edi+4]
  0002b	5e		 pop	 esi
  0002c	5b		 pop	 ebx

; 284  :         if (_Bytes >= _Big_allocation_threshold) {

  0002d	81 f9 00 10 00
	00		 cmp	 ecx, 4096		; 00001000H
  00033	72 12		 jb	 SHORT $LN23@Reallocati

; 205  :     const uintptr_t _Ptr_container   = _Ptr_user[-1];

  00035	8b 50 fc	 mov	 edx, DWORD PTR [eax-4]
  00038	83 c1 23	 add	 ecx, 35			; 00000023H

; 206  : 
; 207  :     // If the following asserts, it likely means that we are performing
; 208  :     // an aligned delete on memory coming from an unaligned allocation.
; 209  :     _STL_ASSERT(_Ptr_user[-2] == _Big_allocation_sentinel, "invalid argument");
; 210  : 
; 211  :     // Extra paranoia on aligned allocation/deallocation; ensure _Ptr_container is
; 212  :     // in range [_Min_back_shift, _Non_user_size]
; 213  : #ifdef _DEBUG
; 214  :     constexpr uintptr_t _Min_back_shift = 2 * sizeof(void*);
; 215  : #else // ^^^ defined(_DEBUG) / !defined(_DEBUG) vvv
; 216  :     constexpr uintptr_t _Min_back_shift = sizeof(void*);
; 217  : #endif // ^^^ !defined(_DEBUG) ^^^
; 218  :     const uintptr_t _Back_shift = reinterpret_cast<uintptr_t>(_Ptr) - _Ptr_container;

  0003b	2b c2		 sub	 eax, edx

; 219  :     _STL_VERIFY(_Back_shift >= _Min_back_shift && _Back_shift <= _Non_user_size, "invalid argument");

  0003d	83 c0 fc	 add	 eax, -4			; fffffffcH
  00040	83 f8 1f	 cmp	 eax, 31			; 0000001fH
  00043	77 0e		 ja	 SHORT $LN22@Reallocati

; 220  :     _Ptr = reinterpret_cast<void*>(_Ptr_container);

  00045	8b c2		 mov	 eax, edx
$LN23@Reallocati:

; 289  :         ::operator delete(_Ptr, _Bytes);

  00047	51		 push	 ecx
  00048	50		 push	 eax
  00049	e8 00 00 00 00	 call	 ??3@YAXPAXI@Z		; operator delete
  0004e	83 c4 08	 add	 esp, 8
$LN18@Reallocati:
  00051	5f		 pop	 edi
; File C:\Program Files\Microsoft Visual Studio\2022\Professional\VC\Tools\MSVC\14.44.35207\include\vector

; 625  :         }

  00052	c3		 ret	 0
$LN22@Reallocati:
; File C:\Program Files\Microsoft Visual Studio\2022\Professional\VC\Tools\MSVC\14.44.35207\include\xmemory

; 219  :     _STL_VERIFY(_Back_shift >= _Min_back_shift && _Back_shift <= _Non_user_size, "invalid argument");

  00053	6a 00		 push	 0
  00055	6a 00		 push	 0
  00057	6a 00		 push	 0
  00059	6a 00		 push	 0
  0005b	6a 00		 push	 0
  0005d	e8 00 00 00 00	 call	 __invoke_watson
$LN35@Reallocati:
  00062	cc		 int	 3
??1_Reallocation_guard@?$vector@VCGuildCombat1to1@@V?$allocator@VCGuildCombat1to1@@@std@@@std@@QAE@XZ ENDP ; std::vector<CGuildCombat1to1,std::allocator<CGuildCombat1to1> >::_Reallocation_guard::~_Reallocation_guard
_TEXT	ENDS
; Function compile flags: /Ogtp
; File C:\Program Files\Microsoft Visual Studio\2022\Professional\VC\Tools\MSVC\14.44.35207\include\xmemory
; File C:\Program Files\Microsoft Visual Studio\2022\Professional\VC\Tools\MSVC\14.44.35207\include\utility
; File C:\Program Files\Microsoft Visual Studio\2022\Professional\VC\Tools\MSVC\14.44.35207\include\vector
; File C:\Program Files\Microsoft Visual Studio\2022\Professional\VC\Tools\MSVC\14.44.35207\include\xmemory
; File C:\Program Files\Microsoft Visual Studio\2022\Professional\VC\Tools\MSVC\14.44.35207\include\vector
; File C:\Program Files\Microsoft Visual Studio\2022\Professional\VC\Tools\MSVC\14.44.35207\include\xmemory
;	COMDAT ??$_Uninitialized_move@PAU__GC1TO1TENDER@CGuildCombat1to1Mng@@V?$allocator@U__GC1TO1TENDER@CGuildCombat1to1Mng@@@std@@@std@@YAPAU__GC1TO1TENDER@CGuildCombat1to1Mng@@QAU12@0PAU12@AAV?$allocator@U__GC1TO1TENDER@CGuildCombat1to1Mng@@@0@@Z
_TEXT	SEGMENT
__First$ = 8						; size = 4
__Last$ = 12						; size = 4
__Dest$ = 16						; size = 4
__Al$ = 20						; size = 4
??$_Uninitialized_move@PAU__GC1TO1TENDER@CGuildCombat1to1Mng@@V?$allocator@U__GC1TO1TENDER@CGuildCombat1to1Mng@@@std@@@std@@YAPAU__GC1TO1TENDER@CGuildCombat1to1Mng@@QAU12@0PAU12@AAV?$allocator@U__GC1TO1TENDER@CGuildCombat1to1Mng@@@0@@Z PROC ; std::_Uninitialized_move<CGuildCombat1to1Mng::__GC1TO1TENDER *,std::allocator<CGuildCombat1to1Mng::__GC1TO1TENDER> >, COMDAT

; 1977 :     const _InIt _First, const _InIt _Last, _Alloc_ptr_t<_Alloc> _Dest, _Alloc& _Al) {

  00000	55		 push	 ebp
  00001	8b ec		 mov	 ebp, esp

; 1998 :     for (; _UFirst != _ULast; ++_UFirst) {

  00003	8b 45 08	 mov	 eax, DWORD PTR __First$[ebp]
  00006	57		 push	 edi

; 1833 :     _CONSTEXPR20 _Uninitialized_backout_al(pointer _Dest, _Alloc& _Al_) : _First(_Dest), _Last(_Dest), _Al(_Al_) {}

  00007	8b 7d 10	 mov	 edi, DWORD PTR __Dest$[ebp]

; 1998 :     for (; _UFirst != _ULast; ++_UFirst) {

  0000a	3b 45 0c	 cmp	 eax, DWORD PTR __Last$[ebp]
  0000d	74 70		 je	 SHORT $LN69@Uninitiali
  0000f	53		 push	 ebx

; 1833 :     _CONSTEXPR20 _Uninitialized_backout_al(pointer _Dest, _Alloc& _Al_) : _First(_Dest), _Last(_Dest), _Al(_Al_) {}

  00010	8b df		 mov	 ebx, edi
  00012	8d 48 24	 lea	 ecx, DWORD PTR [eax+36]
  00015	56		 push	 esi
  00016	2b d8		 sub	 ebx, eax
$LL4@Uninitiali:
  00018	8b 41 dc	 mov	 eax, DWORD PTR [ecx-36]

; 1845 :         ++_Last;

  0001b	8d 49 2c	 lea	 ecx, DWORD PTR [ecx+44]
  0001e	89 07		 mov	 DWORD PTR [edi], eax
  00020	8b 41 b4	 mov	 eax, DWORD PTR [ecx-76]
  00023	89 47 04	 mov	 DWORD PTR [edi+4], eax
  00026	8b 41 b8	 mov	 eax, DWORD PTR [ecx-72]
  00029	89 47 08	 mov	 DWORD PTR [edi+8], eax
  0002c	8b 41 bc	 mov	 eax, DWORD PTR [ecx-68]
  0002f	89 47 0c	 mov	 DWORD PTR [edi+12], eax
  00032	8b 41 c0	 mov	 eax, DWORD PTR [ecx-64]
  00035	89 47 10	 mov	 DWORD PTR [edi+16], eax
  00038	8b 41 c4	 mov	 eax, DWORD PTR [ecx-60]
  0003b	89 47 14	 mov	 DWORD PTR [edi+20], eax
  0003e	8b 41 c8	 mov	 eax, DWORD PTR [ecx-56]
  00041	89 47 18	 mov	 DWORD PTR [edi+24], eax
  00044	8b 41 cc	 mov	 eax, DWORD PTR [ecx-52]
  00047	89 47 1c	 mov	 DWORD PTR [edi+28], eax
; File C:\Program Files\Microsoft Visual Studio\2022\Professional\VC\Tools\MSVC\14.44.35207\include\utility

; 773  :     _Ty _Old_val = static_cast<_Ty&&>(_Val);

  0004a	8b 51 d4	 mov	 edx, DWORD PTR [ecx-44]
  0004d	8b 71 d8	 mov	 esi, DWORD PTR [ecx-40]
  00050	8b 41 d0	 mov	 eax, DWORD PTR [ecx-48]

; 774  :     _Val         = static_cast<_Other&&>(_New_val);

  00053	c7 41 d8 00 00
	00 00		 mov	 DWORD PTR [ecx-40], 0
  0005a	c7 41 d4 00 00
	00 00		 mov	 DWORD PTR [ecx-44], 0
  00061	c7 41 d0 00 00
	00 00		 mov	 DWORD PTR [ecx-48], 0
; File C:\Program Files\Microsoft Visual Studio\2022\Professional\VC\Tools\MSVC\14.44.35207\include\vector

; 403  :         : _Myfirst(_First), _Mylast(_Last), _Myend(_End) {}

  00068	89 54 19 d4	 mov	 DWORD PTR [ecx+ebx-44], edx
; File C:\Program Files\Microsoft Visual Studio\2022\Professional\VC\Tools\MSVC\14.44.35207\include\xmemory

; 1998 :     for (; _UFirst != _ULast; ++_UFirst) {

  0006c	8d 51 dc	 lea	 edx, DWORD PTR [ecx-36]
; File C:\Program Files\Microsoft Visual Studio\2022\Professional\VC\Tools\MSVC\14.44.35207\include\vector

; 403  :         : _Myfirst(_First), _Mylast(_Last), _Myend(_End) {}

  0006f	89 47 20	 mov	 DWORD PTR [edi+32], eax
  00072	89 77 28	 mov	 DWORD PTR [edi+40], esi
; File C:\Program Files\Microsoft Visual Studio\2022\Professional\VC\Tools\MSVC\14.44.35207\include\xmemory

; 1845 :         ++_Last;

  00075	83 c7 2c	 add	 edi, 44			; 0000002cH

; 1998 :     for (; _UFirst != _ULast; ++_UFirst) {

  00078	3b 55 0c	 cmp	 edx, DWORD PTR __Last$[ebp]
  0007b	75 9b		 jne	 SHORT $LL4@Uninitiali
  0007d	5e		 pop	 esi
  0007e	5b		 pop	 ebx
$LN69@Uninitiali:

; 1999 :         _Backout._Emplace_back(_STD move(*_UFirst));
; 2000 :     }
; 2001 : 
; 2002 :     return _Backout._Release();
; 2003 : }

  0007f	8b c7		 mov	 eax, edi
  00081	5f		 pop	 edi
  00082	5d		 pop	 ebp
  00083	c3		 ret	 0
??$_Uninitialized_move@PAU__GC1TO1TENDER@CGuildCombat1to1Mng@@V?$allocator@U__GC1TO1TENDER@CGuildCombat1to1Mng@@@std@@@std@@YAPAU__GC1TO1TENDER@CGuildCombat1to1Mng@@QAU12@0PAU12@AAV?$allocator@U__GC1TO1TENDER@CGuildCombat1to1Mng@@@0@@Z ENDP ; std::_Uninitialized_move<CGuildCombat1to1Mng::__GC1TO1TENDER *,std::allocator<CGuildCombat1to1Mng::__GC1TO1TENDER> >
_TEXT	ENDS
; Function compile flags: /Ogtp
; File C:\Program Files\Microsoft Visual Studio\2022\Professional\VC\Tools\MSVC\14.44.35207\include\vector
; File C:\Program Files\Microsoft Visual Studio\2022\Professional\VC\Tools\MSVC\14.44.35207\include\xmemory
; File C:\Program Files\Microsoft Visual Studio\2022\Professional\VC\Tools\MSVC\14.44.35207\include\vector
; File C:\Program Files\Microsoft Visual Studio\2022\Professional\VC\Tools\MSVC\14.44.35207\include\xmemory
; File C:\Program Files\Microsoft Visual Studio\2022\Professional\VC\Tools\MSVC\14.44.35207\include\vector
; File C:\Program Files\Microsoft Visual Studio\2022\Professional\VC\Tools\MSVC\14.44.35207\include\xmemory
; File C:\Program Files\Microsoft Visual Studio\2022\Professional\VC\Tools\MSVC\14.44.35207\include\vector
;	COMDAT ??1_Reallocation_guard@?$vector@U__GC1TO1TENDER@CGuildCombat1to1Mng@@V?$allocator@U__GC1TO1TENDER@CGuildCombat1to1Mng@@@std@@@std@@QAE@XZ
_TEXT	SEGMENT
??1_Reallocation_guard@?$vector@U__GC1TO1TENDER@CGuildCombat1to1Mng@@V?$allocator@U__GC1TO1TENDER@CGuildCombat1to1Mng@@@std@@@std@@QAE@XZ PROC ; std::vector<CGuildCombat1to1Mng::__GC1TO1TENDER,std::allocator<CGuildCombat1to1Mng::__GC1TO1TENDER> >::_Reallocation_guard::~_Reallocation_guard, COMDAT
; _this$ = ecx

; 620  :         _CONSTEXPR20 ~_Reallocation_guard() noexcept {

  00000	57		 push	 edi
  00001	8b f9		 mov	 edi, ecx

; 621  :             if (_New_begin != nullptr) {

  00003	83 7f 04 00	 cmp	 DWORD PTR [edi+4], 0
  00007	74 48		 je	 SHORT $LN30@Reallocati

; 622  :                 _STD _Destroy_range(_Constructed_first, _Constructed_last, _Al);

  00009	53		 push	 ebx
  0000a	8b 5f 10	 mov	 ebx, DWORD PTR [edi+16]
  0000d	56		 push	 esi
  0000e	8b 77 0c	 mov	 esi, DWORD PTR [edi+12]
; File C:\Program Files\Microsoft Visual Studio\2022\Professional\VC\Tools\MSVC\14.44.35207\include\xmemory

; 1102 :         for (; _First != _Last; ++_First) {

  00011	3b f3		 cmp	 esi, ebx
  00013	74 0f		 je	 SHORT $LN7@Reallocati
$LL8@Reallocati:
; File C:\Program Files\Microsoft Visual Studio\2022\Professional\VC\Tools\MSVC\14.44.35207\include\vector

; 830  :         _Tidy();

  00015	8d 4e 20	 lea	 ecx, DWORD PTR [esi+32]
  00018	e8 00 00 00 00	 call	 ?_Tidy@?$vector@KV?$allocator@K@std@@@std@@AAEXXZ ; std::vector<unsigned long,std::allocator<unsigned long> >::_Tidy
; File C:\Program Files\Microsoft Visual Studio\2022\Professional\VC\Tools\MSVC\14.44.35207\include\xmemory

; 1102 :         for (; _First != _Last; ++_First) {

  0001d	83 c6 2c	 add	 esi, 44			; 0000002cH
  00020	3b f3		 cmp	 esi, ebx
  00022	75 f1		 jne	 SHORT $LL8@Reallocati
$LN7@Reallocati:

; 985  :         _STD _Deallocate<_New_alignof<_Ty>>(_Ptr, sizeof(_Ty) * _Count);

  00024	6b 4f 08 2c	 imul	 ecx, DWORD PTR [edi+8], 44
  00028	8b 47 04	 mov	 eax, DWORD PTR [edi+4]
  0002b	5e		 pop	 esi
  0002c	5b		 pop	 ebx

; 284  :         if (_Bytes >= _Big_allocation_threshold) {

  0002d	81 f9 00 10 00
	00		 cmp	 ecx, 4096		; 00001000H
  00033	72 12		 jb	 SHORT $LN35@Reallocati

; 205  :     const uintptr_t _Ptr_container   = _Ptr_user[-1];

  00035	8b 50 fc	 mov	 edx, DWORD PTR [eax-4]
  00038	83 c1 23	 add	 ecx, 35			; 00000023H

; 206  : 
; 207  :     // If the following asserts, it likely means that we are performing
; 208  :     // an aligned delete on memory coming from an unaligned allocation.
; 209  :     _STL_ASSERT(_Ptr_user[-2] == _Big_allocation_sentinel, "invalid argument");
; 210  : 
; 211  :     // Extra paranoia on aligned allocation/deallocation; ensure _Ptr_container is
; 212  :     // in range [_Min_back_shift, _Non_user_size]
; 213  : #ifdef _DEBUG
; 214  :     constexpr uintptr_t _Min_back_shift = 2 * sizeof(void*);
; 215  : #else // ^^^ defined(_DEBUG) / !defined(_DEBUG) vvv
; 216  :     constexpr uintptr_t _Min_back_shift = sizeof(void*);
; 217  : #endif // ^^^ !defined(_DEBUG) ^^^
; 218  :     const uintptr_t _Back_shift = reinterpret_cast<uintptr_t>(_Ptr) - _Ptr_container;

  0003b	2b c2		 sub	 eax, edx

; 219  :     _STL_VERIFY(_Back_shift >= _Min_back_shift && _Back_shift <= _Non_user_size, "invalid argument");

  0003d	83 c0 fc	 add	 eax, -4			; fffffffcH
  00040	83 f8 1f	 cmp	 eax, 31			; 0000001fH
  00043	77 0e		 ja	 SHORT $LN34@Reallocati

; 220  :     _Ptr = reinterpret_cast<void*>(_Ptr_container);

  00045	8b c2		 mov	 eax, edx
$LN35@Reallocati:

; 289  :         ::operator delete(_Ptr, _Bytes);

  00047	51		 push	 ecx
  00048	50		 push	 eax
  00049	e8 00 00 00 00	 call	 ??3@YAXPAXI@Z		; operator delete
  0004e	83 c4 08	 add	 esp, 8
$LN30@Reallocati:
  00051	5f		 pop	 edi
; File C:\Program Files\Microsoft Visual Studio\2022\Professional\VC\Tools\MSVC\14.44.35207\include\vector

; 625  :         }

  00052	c3		 ret	 0
$LN34@Reallocati:
; File C:\Program Files\Microsoft Visual Studio\2022\Professional\VC\Tools\MSVC\14.44.35207\include\xmemory

; 219  :     _STL_VERIFY(_Back_shift >= _Min_back_shift && _Back_shift <= _Non_user_size, "invalid argument");

  00053	6a 00		 push	 0
  00055	6a 00		 push	 0
  00057	6a 00		 push	 0
  00059	6a 00		 push	 0
  0005b	6a 00		 push	 0
  0005d	e8 00 00 00 00	 call	 __invoke_watson
$LN47@Reallocati:
  00062	cc		 int	 3
??1_Reallocation_guard@?$vector@U__GC1TO1TENDER@CGuildCombat1to1Mng@@V?$allocator@U__GC1TO1TENDER@CGuildCombat1to1Mng@@@std@@@std@@QAE@XZ ENDP ; std::vector<CGuildCombat1to1Mng::__GC1TO1TENDER,std::allocator<CGuildCombat1to1Mng::__GC1TO1TENDER> >::_Reallocation_guard::~_Reallocation_guard
_TEXT	ENDS
; Function compile flags: /Ogtp
; File C:\Program Files\Microsoft Visual Studio\2022\Professional\VC\Tools\MSVC\14.44.35207\include\xmemory
; File C:\Program Files\Microsoft Visual Studio\2022\Professional\VC\Tools\MSVC\14.44.35207\include\vector
; File C:\Program Files\Microsoft Visual Studio\2022\Professional\VC\Tools\MSVC\14.44.35207\include\xmemory
;	COMDAT ??1?$_Uninitialized_backout_al@V?$allocator@U__GC1TO1TENDER@CGuildCombat1to1Mng@@@std@@@std@@QAE@XZ
_TEXT	SEGMENT
??1?$_Uninitialized_backout_al@V?$allocator@U__GC1TO1TENDER@CGuildCombat1to1Mng@@@std@@@std@@QAE@XZ PROC ; std::_Uninitialized_backout_al<std::allocator<CGuildCombat1to1Mng::__GC1TO1TENDER> >::~_Uninitialized_backout_al<std::allocator<CGuildCombat1to1Mng::__GC1TO1TENDER> >, COMDAT
; _this$ = ecx

; 1838 :     _CONSTEXPR20 ~_Uninitialized_backout_al() {

  00000	56		 push	 esi

; 1839 :         _STD _Destroy_range(_First, _Last, _Al);

  00001	8b 31		 mov	 esi, DWORD PTR [ecx]
  00003	57		 push	 edi
  00004	8b 79 04	 mov	 edi, DWORD PTR [ecx+4]

; 1102 :         for (; _First != _Last; ++_First) {

  00007	3b f7		 cmp	 esi, edi
  00009	74 14		 je	 SHORT $LN6@Uninitiali
  0000b	0f 1f 44 00 00	 npad	 5
$LL7@Uninitiali:
; File C:\Program Files\Microsoft Visual Studio\2022\Professional\VC\Tools\MSVC\14.44.35207\include\vector

; 830  :         _Tidy();

  00010	8d 4e 20	 lea	 ecx, DWORD PTR [esi+32]
  00013	e8 00 00 00 00	 call	 ?_Tidy@?$vector@KV?$allocator@K@std@@@std@@AAEXXZ ; std::vector<unsigned long,std::allocator<unsigned long> >::_Tidy
; File C:\Program Files\Microsoft Visual Studio\2022\Professional\VC\Tools\MSVC\14.44.35207\include\xmemory

; 1102 :         for (; _First != _Last; ++_First) {

  00018	83 c6 2c	 add	 esi, 44			; 0000002cH
  0001b	3b f7		 cmp	 esi, edi
  0001d	75 f1		 jne	 SHORT $LL7@Uninitiali
$LN6@Uninitiali:
  0001f	5f		 pop	 edi

; 1840 :     }

  00020	5e		 pop	 esi
  00021	c3		 ret	 0
??1?$_Uninitialized_backout_al@V?$allocator@U__GC1TO1TENDER@CGuildCombat1to1Mng@@@std@@@std@@QAE@XZ ENDP ; std::_Uninitialized_backout_al<std::allocator<CGuildCombat1to1Mng::__GC1TO1TENDER> >::~_Uninitialized_backout_al<std::allocator<CGuildCombat1to1Mng::__GC1TO1TENDER> >
_TEXT	ENDS
; Function compile flags: /Ogtp
; File C:\Program Files\Microsoft Visual Studio\2022\Professional\VC\Tools\MSVC\14.44.35207\include\xutility
;	COMDAT ??$_Copy_memmove_n@PAKPAK@std@@YAPAKPAKI0@Z
_TEXT	SEGMENT
__First$ = 8						; size = 4
__Object_count$ = 12					; size = 4
__Dest$ = 16						; size = 4
??$_Copy_memmove_n@PAKPAK@std@@YAPAKPAKI0@Z PROC	; std::_Copy_memmove_n<unsigned long *,unsigned long *>, COMDAT

; 4774 : _OutCtgIt _Copy_memmove_n(_CtgIt _First, const size_t _Object_count, _OutCtgIt _Dest) {

  00000	55		 push	 ebp
  00001	8b ec		 mov	 ebp, esp

; 4775 :     const auto _First_ptr  = _STD _To_address(_First);
; 4776 :     const auto _First_ch   = const_cast<const char*>(reinterpret_cast<const volatile char*>(_First_ptr));
; 4777 :     const auto _Byte_count = _Object_count * sizeof(*_First_ptr);
; 4778 :     return _STD _Copy_memmove_tail(_First_ch, _STD move(_Dest), _Byte_count, _Object_count);

  00003	8b 45 0c	 mov	 eax, DWORD PTR __Object_count$[ebp]
  00006	50		 push	 eax
  00007	c1 e0 02	 shl	 eax, 2
  0000a	50		 push	 eax
  0000b	ff 75 10	 push	 DWORD PTR __Dest$[ebp]
  0000e	ff 75 08	 push	 DWORD PTR __First$[ebp]
  00011	e8 00 00 00 00	 call	 ??$_Copy_memmove_tail@PAK@std@@YAPAKQBDQAKII@Z ; std::_Copy_memmove_tail<unsigned long *>
  00016	83 c4 10	 add	 esp, 16			; 00000010H

; 4779 : }

  00019	5d		 pop	 ebp
  0001a	c3		 ret	 0
??$_Copy_memmove_n@PAKPAK@std@@YAPAKPAKI0@Z ENDP	; std::_Copy_memmove_n<unsigned long *,unsigned long *>
_TEXT	ENDS
; Function compile flags: /Ogtp
; File C:\Program Files\Microsoft Visual Studio\2022\Professional\VC\Tools\MSVC\14.44.35207\include\vector
; File C:\Program Files\Microsoft Visual Studio\2022\Professional\VC\Tools\MSVC\14.44.35207\include\xmemory
; File C:\Program Files\Microsoft Visual Studio\2022\Professional\VC\Tools\MSVC\14.44.35207\include\vector
; File C:\Program Files\Microsoft Visual Studio\2022\Professional\VC\Tools\MSVC\14.44.35207\include\xmemory
; File C:\Program Files\Microsoft Visual Studio\2022\Professional\VC\Tools\MSVC\14.44.35207\include\vector
; File C:\Program Files\Microsoft Visual Studio\2022\Professional\VC\Tools\MSVC\14.44.35207\include\xmemory
; File C:\Program Files\Microsoft Visual Studio\2022\Professional\VC\Tools\MSVC\14.44.35207\include\vector
; File C:\Program Files\Microsoft Visual Studio\2022\Professional\VC\Tools\MSVC\14.44.35207\include\xmemory
; File C:\Program Files\Microsoft Visual Studio\2022\Professional\VC\Tools\MSVC\14.44.35207\include\vector
; File C:\Program Files\Microsoft Visual Studio\2022\Professional\VC\Tools\MSVC\14.44.35207\include\xmemory
; File C:\Program Files\Microsoft Visual Studio\2022\Professional\VC\Tools\MSVC\14.44.35207\include\vector
; File C:\Program Files\Microsoft Visual Studio\2022\Professional\VC\Tools\MSVC\14.44.35207\include\xmemory
; File C:\Program Files\Microsoft Visual Studio\2022\Professional\VC\Tools\MSVC\14.44.35207\include\vector
; File C:\Program Files\Microsoft Visual Studio\2022\Professional\VC\Tools\MSVC\14.44.35207\include\xmemory
; File C:\Program Files\Microsoft Visual Studio\2022\Professional\VC\Tools\MSVC\14.44.35207\include\vector
; File C:\Program Files\Microsoft Visual Studio\2022\Professional\VC\Tools\MSVC\14.44.35207\include\xmemory
; File C:\Program Files\Microsoft Visual Studio\2022\Professional\VC\Tools\MSVC\14.44.35207\include\vector
; File C:\Program Files\Microsoft Visual Studio\2022\Professional\VC\Tools\MSVC\14.44.35207\include\xmemory
; File C:\Program Files\Microsoft Visual Studio\2022\Professional\VC\Tools\MSVC\14.44.35207\include\vector
; File C:\Program Files\Microsoft Visual Studio\2022\Professional\VC\Tools\MSVC\14.44.35207\include\xmemory
; File C:\Program Files\Microsoft Visual Studio\2022\Professional\VC\Tools\MSVC\14.44.35207\include\vector
;	COMDAT ??$_Emplace_reallocate@ABVCGuildCombat1to1@@@?$vector@VCGuildCombat1to1@@V?$allocator@VCGuildCombat1to1@@@std@@@std@@AAEPAVCGuildCombat1to1@@QAV2@ABV2@@Z
_TEXT	SEGMENT
__Guard$ = -64						; size = 20
__Backout$2 = -44					; size = 12
__Newsize$1$ = -32					; size = 4
_this$1$ = -28						; size = 4
tv634 = -24						; size = 4
__Whereoff$1$ = -20					; size = 4
tv633 = -20						; size = 4
$T3 = -16						; size = 4
__$EHRec$ = -12						; size = 12
__Whereptr$ = 8						; size = 4
__Last$1$ = 8						; size = 4
_<_Val_0>$ = 12						; size = 4
__ULast$1$ = 12						; size = 4
??$_Emplace_reallocate@ABVCGuildCombat1to1@@@?$vector@VCGuildCombat1to1@@V?$allocator@VCGuildCombat1to1@@@std@@@std@@AAEPAVCGuildCombat1to1@@QAV2@ABV2@@Z PROC ; std::vector<CGuildCombat1to1,std::allocator<CGuildCombat1to1> >::_Emplace_reallocate<CGuildCombat1to1 const &>, COMDAT
; _this$ = ecx

; 875  :     _CONSTEXPR20 pointer _Emplace_reallocate(const pointer _Whereptr, _Valty&&... _Val) {

  00000	55		 push	 ebp
  00001	8b ec		 mov	 ebp, esp
  00003	6a ff		 push	 -1
  00005	68 00 00 00 00	 push	 __ehhandler$??$_Emplace_reallocate@ABVCGuildCombat1to1@@@?$vector@VCGuildCombat1to1@@V?$allocator@VCGuildCombat1to1@@@std@@@std@@AAEPAVCGuildCombat1to1@@QAV2@ABV2@@Z
  0000a	64 a1 00 00 00
	00		 mov	 eax, DWORD PTR fs:0
  00010	50		 push	 eax
  00011	83 ec 34	 sub	 esp, 52			; 00000034H
  00014	53		 push	 ebx
  00015	56		 push	 esi
  00016	57		 push	 edi
  00017	a1 00 00 00 00	 mov	 eax, DWORD PTR ___security_cookie
  0001c	33 c5		 xor	 eax, ebp
  0001e	50		 push	 eax
  0001f	8d 45 f4	 lea	 eax, DWORD PTR __$EHRec$[ebp]
  00022	64 a3 00 00 00
	00		 mov	 DWORD PTR fs:0, eax
  00028	8b d9		 mov	 ebx, ecx
  0002a	89 5d e4	 mov	 DWORD PTR _this$1$[ebp], ebx

; 876  :         // reallocate and insert by perfectly forwarding _Val at _Whereptr
; 877  :         _Alty& _Al        = _Getal();
; 878  :         auto& _My_data    = _Mypair._Myval2;
; 879  :         pointer& _Myfirst = _My_data._Myfirst;
; 880  :         pointer& _Mylast  = _My_data._Mylast;
; 881  : 
; 882  :         _STL_INTERNAL_CHECK(_Mylast == _My_data._Myend); // check that we have no unused capacity
; 883  : 
; 884  :         const auto _Whereoff = static_cast<size_type>(_Whereptr - _Myfirst);

  0002d	8b 33		 mov	 esi, DWORD PTR [ebx]
  0002f	b8 e9 a2 8b 2e	 mov	 eax, 780903145		; 2e8ba2e9H
  00034	8b 55 08	 mov	 edx, DWORD PTR __Whereptr$[ebp]

; 885  :         const auto _Oldsize  = static_cast<size_type>(_Mylast - _Myfirst);

  00037	8b 4b 04	 mov	 ecx, DWORD PTR [ebx+4]
  0003a	2b d6		 sub	 edx, esi
  0003c	f7 ea		 imul	 edx
  0003e	2b ce		 sub	 ecx, esi
  00040	c1 fa 03	 sar	 edx, 3
  00043	8b c2		 mov	 eax, edx
  00045	c1 e8 1f	 shr	 eax, 31			; 0000001fH
  00048	03 c2		 add	 eax, edx
  0004a	89 45 ec	 mov	 DWORD PTR __Whereoff$1$[ebp], eax
  0004d	b8 e9 a2 8b 2e	 mov	 eax, 780903145		; 2e8ba2e9H
  00052	f7 e9		 imul	 ecx
  00054	c1 fa 03	 sar	 edx, 3
  00057	8b c2		 mov	 eax, edx
  00059	c1 e8 1f	 shr	 eax, 31			; 0000001fH
  0005c	03 c2		 add	 eax, edx

; 886  : 
; 887  :         if (_Oldsize == max_size()) {

  0005e	3d 5d 74 d1 05	 cmp	 eax, 97612893		; 05d1745dH
  00063	0f 84 c8 01 00
	00		 je	 $LN131@Emplace_re

; 1924 :         return static_cast<size_type>(_My_data._Myend - _My_data._Myfirst);

  00069	8b 4b 08	 mov	 ecx, DWORD PTR [ebx+8]

; 889  :         }
; 890  : 
; 891  :         const size_type _Newsize = _Oldsize + 1;

  0006c	8d 78 01	 lea	 edi, DWORD PTR [eax+1]

; 1924 :         return static_cast<size_type>(_My_data._Myend - _My_data._Myfirst);

  0006f	2b ce		 sub	 ecx, esi

; 889  :         }
; 890  : 
; 891  :         const size_type _Newsize = _Oldsize + 1;

  00071	89 7d e0	 mov	 DWORD PTR __Newsize$1$[ebp], edi

; 1924 :         return static_cast<size_type>(_My_data._Myend - _My_data._Myfirst);

  00074	b8 e9 a2 8b 2e	 mov	 eax, 780903145		; 2e8ba2e9H
  00079	f7 e9		 imul	 ecx

; 2011 :         if (_Oldcapacity > _Max - _Oldcapacity / 2) {

  0007b	b8 5d 74 d1 05	 mov	 eax, 97612893		; 05d1745dH

; 1924 :         return static_cast<size_type>(_My_data._Myend - _My_data._Myfirst);

  00080	c1 fa 03	 sar	 edx, 3
  00083	8b ca		 mov	 ecx, edx
  00085	c1 e9 1f	 shr	 ecx, 31			; 0000001fH
  00088	03 ca		 add	 ecx, edx

; 2011 :         if (_Oldcapacity > _Max - _Oldcapacity / 2) {

  0008a	8b d1		 mov	 edx, ecx
  0008c	d1 ea		 shr	 edx, 1
  0008e	2b c2		 sub	 eax, edx
  00090	3b c8		 cmp	 ecx, eax
  00092	76 1e		 jbe	 SHORT $LN8@Emplace_re

; 2012 :             return _Max; // geometric growth would overflow

  00094	b8 fc ff ff ff	 mov	 eax, -4			; fffffffcH
  00099	c7 45 e8 fc ff
	ff ff		 mov	 DWORD PTR tv634[ebp], -4 ; fffffffcH
; File C:\Program Files\Microsoft Visual Studio\2022\Professional\VC\Tools\MSVC\14.44.35207\include\xmemory

; 253  :             return _Allocate_manually_vector_aligned<_Traits>(_Bytes);

  000a0	50		 push	 eax
; File C:\Program Files\Microsoft Visual Studio\2022\Professional\VC\Tools\MSVC\14.44.35207\include\vector

; 2012 :             return _Max; // geometric growth would overflow

  000a1	be 5d 74 d1 05	 mov	 esi, 97612893		; 05d1745dH
; File C:\Program Files\Microsoft Visual Studio\2022\Professional\VC\Tools\MSVC\14.44.35207\include\xmemory

; 253  :             return _Allocate_manually_vector_aligned<_Traits>(_Bytes);

  000a6	e8 00 00 00 00	 call	 ??$_Allocate_manually_vector_aligned@U_Default_allocate_traits@std@@@std@@YAPAXI@Z ; std::_Allocate_manually_vector_aligned<std::_Default_allocate_traits>
  000ab	8b f8		 mov	 edi, eax
  000ad	89 7d f0	 mov	 DWORD PTR $T3[ebp], edi
  000b0	eb 46		 jmp	 SHORT $LN129@Emplace_re
$LN8@Emplace_re:
; File C:\Program Files\Microsoft Visual Studio\2022\Professional\VC\Tools\MSVC\14.44.35207\include\vector

; 2015 :         const size_type _Geometric = _Oldcapacity + _Oldcapacity / 2;

  000b2	8d 04 0a	 lea	 eax, DWORD PTR [edx+ecx]
; File C:\Program Files\Microsoft Visual Studio\2022\Professional\VC\Tools\MSVC\14.44.35207\include\xmemory

; 117  :         if (_Count > _Max_possible) {

  000b5	8b f7		 mov	 esi, edi
  000b7	3b c7		 cmp	 eax, edi
  000b9	0f 43 f0	 cmovae	 esi, eax
  000bc	81 fe 5d 74 d1
	05		 cmp	 esi, 97612893		; 05d1745dH
  000c2	0f 87 6e 01 00
	00		 ja	 $LN132@Emplace_re

; 119  :         }
; 120  :     }
; 121  : 
; 122  :     return _Count * _Ty_size;

  000c8	6b c6 2c	 imul	 eax, esi, 44
  000cb	89 45 e8	 mov	 DWORD PTR tv634[ebp], eax

; 227  :     if (_Bytes == 0) {

  000ce	85 c0		 test	 eax, eax
  000d0	75 07		 jne	 SHORT $LN23@Emplace_re

; 228  :         return nullptr;

  000d2	33 ff		 xor	 edi, edi
  000d4	89 7d f0	 mov	 DWORD PTR $T3[ebp], edi
  000d7	eb 22		 jmp	 SHORT $LN22@Emplace_re
$LN23@Emplace_re:

; 229  :     }
; 230  : 
; 231  : #if _HAS_CXX20 // TRANSITION, GH-1532
; 232  :     if (_STD is_constant_evaluated()) {
; 233  :         return _Traits::_Allocate(_Bytes);
; 234  :     }
; 235  : #endif // _HAS_CXX20
; 236  : 
; 237  : #ifdef __cpp_aligned_new
; 238  :     if constexpr (_Align > __STDCPP_DEFAULT_NEW_ALIGNMENT__) {
; 239  :         size_t _Passed_align = _Align;
; 240  : #if defined(_M_IX86) || defined(_M_X64)
; 241  :         if (_Bytes >= _Big_allocation_threshold) {
; 242  :             // boost the alignment of big allocations to help autovectorization
; 243  :             _Passed_align = (_STD max)(_Align, _Big_allocation_alignment);
; 244  :         }
; 245  : #endif // defined(_M_IX86) || defined(_M_X64)
; 246  :         return _Traits::_Allocate_aligned(_Bytes, _Passed_align);
; 247  :     } else
; 248  : #endif // defined(__cpp_aligned_new)
; 249  :     {
; 250  : #if defined(_M_IX86) || defined(_M_X64)
; 251  :         if (_Bytes >= _Big_allocation_threshold) {

  000d9	3d 00 10 00 00	 cmp	 eax, 4096		; 00001000H
  000de	72 0d		 jb	 SHORT $LN24@Emplace_re

; 253  :             return _Allocate_manually_vector_aligned<_Traits>(_Bytes);

  000e0	50		 push	 eax
  000e1	e8 00 00 00 00	 call	 ??$_Allocate_manually_vector_aligned@U_Default_allocate_traits@std@@@std@@YAPAXI@Z ; std::_Allocate_manually_vector_aligned<std::_Default_allocate_traits>
  000e6	8b f8		 mov	 edi, eax
  000e8	89 7d f0	 mov	 DWORD PTR $T3[ebp], edi
  000eb	eb 0b		 jmp	 SHORT $LN129@Emplace_re
$LN24@Emplace_re:

; 136  :         return ::operator new(_Bytes);

  000ed	50		 push	 eax
  000ee	e8 00 00 00 00	 call	 ??2@YAPAXI@Z		; operator new

; 256  :         return _Traits::_Allocate(_Bytes);

  000f3	8b f8		 mov	 edi, eax
  000f5	89 45 f0	 mov	 DWORD PTR $T3[ebp], eax
$LN129@Emplace_re:
; File C:\Program Files\Microsoft Visual Studio\2022\Professional\VC\Tools\MSVC\14.44.35207\include\vector

; 895  :         const pointer _Constructed_last = _Newvec + _Whereoff + 1;

  000f8	83 c4 04	 add	 esp, 4
$LN22@Emplace_re:
  000fb	6b 4d ec 2c	 imul	 ecx, DWORD PTR __Whereoff$1$[ebp], 44

; 897  :         _Reallocation_guard _Guard{_Al, _Newvec, _Newcapacity, _Constructed_last, _Constructed_last};

  000ff	89 5d c0	 mov	 DWORD PTR __Guard$[ebp], ebx
  00102	89 7d c4	 mov	 DWORD PTR __Guard$[ebp+4], edi
  00105	89 75 c8	 mov	 DWORD PTR __Guard$[ebp+8], esi
  00108	03 cf		 add	 ecx, edi
  0010a	89 4d ec	 mov	 DWORD PTR tv633[ebp], ecx
  0010d	8d 41 2c	 lea	 eax, DWORD PTR [ecx+44]
  00110	89 45 cc	 mov	 DWORD PTR __Guard$[ebp+12], eax
  00113	89 45 d0	 mov	 DWORD PTR __Guard$[ebp+16], eax
; File C:\Program Files\Microsoft Visual Studio\2022\Professional\VC\Tools\MSVC\14.44.35207\include\xmemory

; 732  :         ::new (const_cast<void*>(static_cast<const volatile void*>(_Ptr))) _Objty(_STD forward<_Types>(_Args)...);

  00116	ff 75 0c	 push	 DWORD PTR _<_Val_0>$[ebp]
; File C:\Program Files\Microsoft Visual Studio\2022\Professional\VC\Tools\MSVC\14.44.35207\include\vector

; 897  :         _Reallocation_guard _Guard{_Al, _Newvec, _Newcapacity, _Constructed_last, _Constructed_last};

  00119	c7 45 fc 00 00
	00 00		 mov	 DWORD PTR __$EHRec$[ebp+8], 0
; File C:\Program Files\Microsoft Visual Studio\2022\Professional\VC\Tools\MSVC\14.44.35207\include\xmemory

; 732  :         ::new (const_cast<void*>(static_cast<const volatile void*>(_Ptr))) _Objty(_STD forward<_Types>(_Args)...);

  00120	e8 00 00 00 00	 call	 ??0CGuildCombat1to1@@QAE@ABV0@@Z
; File C:\Program Files\Microsoft Visual Studio\2022\Professional\VC\Tools\MSVC\14.44.35207\include\vector

; 901  :         _Constructed_first = _Newvec + _Whereoff;

  00125	8b 45 ec	 mov	 eax, DWORD PTR tv633[ebp]

; 902  : 
; 903  :         if (_Whereptr == _Mylast) { // at back, provide strong guarantee

  00128	8b 4d 08	 mov	 ecx, DWORD PTR __Whereptr$[ebp]
  0012b	8b 33		 mov	 esi, DWORD PTR [ebx]
  0012d	89 45 cc	 mov	 DWORD PTR __Guard$[ebp+12], eax
  00130	8b 43 04	 mov	 eax, DWORD PTR [ebx+4]
  00133	89 45 0c	 mov	 DWORD PTR __ULast$1$[ebp], eax
  00136	3b c8		 cmp	 ecx, eax
  00138	0f 85 bd 00 00
	00		 jne	 $LN3@Emplace_re
; File C:\Program Files\Microsoft Visual Studio\2022\Professional\VC\Tools\MSVC\14.44.35207\include\xmemory

; 1833 :     _CONSTEXPR20 _Uninitialized_backout_al(pointer _Dest, _Alloc& _Al_) : _First(_Dest), _Last(_Dest), _Al(_Al_) {}

  0013e	89 7d d4	 mov	 DWORD PTR __Backout$2[ebp], edi
  00141	89 7d d8	 mov	 DWORD PTR __Backout$2[ebp+4], edi
  00144	89 5d dc	 mov	 DWORD PTR __Backout$2[ebp+8], ebx

; 1900 :     _Uninitialized_backout_al<_Alloc> _Backout{_Dest, _Al};

  00147	c6 45 fc 01	 mov	 BYTE PTR __$EHRec$[ebp+8], 1

; 1901 :     for (; _UFirst != _ULast; ++_UFirst) {

  0014b	3b f0		 cmp	 esi, eax
  0014d	74 1a		 je	 SHORT $LN126@Emplace_re
  0014f	8b d8		 mov	 ebx, eax
$LL35@Emplace_re:

; 732  :         ::new (const_cast<void*>(static_cast<const volatile void*>(_Ptr))) _Objty(_STD forward<_Types>(_Args)...);

  00151	56		 push	 esi
  00152	8b cf		 mov	 ecx, edi
  00154	e8 00 00 00 00	 call	 ??0CGuildCombat1to1@@QAE@ABV0@@Z

; 1845 :         ++_Last;

  00159	83 c7 2c	 add	 edi, 44			; 0000002cH

; 1901 :     for (; _UFirst != _ULast; ++_UFirst) {

  0015c	83 c6 2c	 add	 esi, 44			; 0000002cH

; 1845 :         ++_Last;

  0015f	89 7d d8	 mov	 DWORD PTR __Backout$2[ebp+4], edi

; 1901 :     for (; _UFirst != _ULast; ++_UFirst) {

  00162	3b f3		 cmp	 esi, ebx
  00164	75 eb		 jne	 SHORT $LL35@Emplace_re
; File C:\Program Files\Microsoft Visual Studio\2022\Professional\VC\Tools\MSVC\14.44.35207\include\vector

; 909  :         } else { // provide basic guarantee

  00166	8b 5d e4	 mov	 ebx, DWORD PTR _this$1$[ebp]
$LN126@Emplace_re:

; 2069 :         if (_Myfirst) { // destroy and deallocate old array

  00169	8b 7d f0	 mov	 edi, DWORD PTR $T3[ebp]
$LN4@Emplace_re:
  0016c	8b 33		 mov	 esi, DWORD PTR [ebx]
  0016e	85 f6		 test	 esi, esi
  00170	74 5f		 je	 SHORT $LN74@Emplace_re

; 2070 :             _STD _Destroy_range(_Myfirst, _Mylast, _Al);

  00172	8b 43 04	 mov	 eax, DWORD PTR [ebx+4]
  00175	89 45 08	 mov	 DWORD PTR __Last$1$[ebp], eax
; File C:\Program Files\Microsoft Visual Studio\2022\Professional\VC\Tools\MSVC\14.44.35207\include\xmemory

; 1102 :         for (; _First != _Last; ++_First) {

  00178	3b f0		 cmp	 esi, eax
  0017a	74 16		 je	 SHORT $LN63@Emplace_re
  0017c	8b f8		 mov	 edi, eax
  0017e	66 90		 npad	 2
$LL64@Emplace_re:

; 741  :         _Ptr->~_Uty();

  00180	8b 06		 mov	 eax, DWORD PTR [esi]
  00182	8b ce		 mov	 ecx, esi
  00184	6a 00		 push	 0
  00186	ff 10		 call	 DWORD PTR [eax]

; 1102 :         for (; _First != _Last; ++_First) {

  00188	83 c6 2c	 add	 esi, 44			; 0000002cH
  0018b	3b f7		 cmp	 esi, edi
  0018d	75 f1		 jne	 SHORT $LL64@Emplace_re
  0018f	8b 7d f0	 mov	 edi, DWORD PTR $T3[ebp]
$LN63@Emplace_re:
; File C:\Program Files\Microsoft Visual Studio\2022\Professional\VC\Tools\MSVC\14.44.35207\include\vector

; 2072 :             _Al.deallocate(_Myfirst, static_cast<size_type>(_Myend - _Myfirst));

  00192	8b 4b 08	 mov	 ecx, DWORD PTR [ebx+8]
  00195	b8 e9 a2 8b 2e	 mov	 eax, 780903145		; 2e8ba2e9H
  0019a	8b 33		 mov	 esi, DWORD PTR [ebx]
  0019c	2b ce		 sub	 ecx, esi
  0019e	f7 e9		 imul	 ecx
  001a0	c1 fa 03	 sar	 edx, 3
  001a3	8b c2		 mov	 eax, edx
  001a5	c1 e8 1f	 shr	 eax, 31			; 0000001fH
  001a8	03 c2		 add	 eax, edx
; File C:\Program Files\Microsoft Visual Studio\2022\Professional\VC\Tools\MSVC\14.44.35207\include\xmemory

; 985  :         _STD _Deallocate<_New_alignof<_Ty>>(_Ptr, sizeof(_Ty) * _Count);

  001aa	6b c8 2c	 imul	 ecx, eax, 44

; 284  :         if (_Bytes >= _Big_allocation_threshold) {

  001ad	81 f9 00 10 00
	00		 cmp	 ecx, 4096		; 00001000H
  001b3	72 12		 jb	 SHORT $LN79@Emplace_re

; 205  :     const uintptr_t _Ptr_container   = _Ptr_user[-1];

  001b5	8b 56 fc	 mov	 edx, DWORD PTR [esi-4]
  001b8	83 c1 23	 add	 ecx, 35			; 00000023H

; 206  : 
; 207  :     // If the following asserts, it likely means that we are performing
; 208  :     // an aligned delete on memory coming from an unaligned allocation.
; 209  :     _STL_ASSERT(_Ptr_user[-2] == _Big_allocation_sentinel, "invalid argument");
; 210  : 
; 211  :     // Extra paranoia on aligned allocation/deallocation; ensure _Ptr_container is
; 212  :     // in range [_Min_back_shift, _Non_user_size]
; 213  : #ifdef _DEBUG
; 214  :     constexpr uintptr_t _Min_back_shift = 2 * sizeof(void*);
; 215  : #else // ^^^ defined(_DEBUG) / !defined(_DEBUG) vvv
; 216  :     constexpr uintptr_t _Min_back_shift = sizeof(void*);
; 217  : #endif // ^^^ !defined(_DEBUG) ^^^
; 218  :     const uintptr_t _Back_shift = reinterpret_cast<uintptr_t>(_Ptr) - _Ptr_container;

  001bb	2b f2		 sub	 esi, edx

; 219  :     _STL_VERIFY(_Back_shift >= _Min_back_shift && _Back_shift <= _Non_user_size, "invalid argument");

  001bd	8d 46 fc	 lea	 eax, DWORD PTR [esi-4]
  001c0	83 f8 1f	 cmp	 eax, 31			; 0000001fH
  001c3	77 5d		 ja	 SHORT $LN78@Emplace_re

; 220  :     _Ptr = reinterpret_cast<void*>(_Ptr_container);

  001c5	8b f2		 mov	 esi, edx
$LN79@Emplace_re:

; 289  :         ::operator delete(_Ptr, _Bytes);

  001c7	51		 push	 ecx
  001c8	56		 push	 esi
  001c9	e8 00 00 00 00	 call	 ??3@YAXPAXI@Z		; operator delete
  001ce	83 c4 08	 add	 esp, 8
$LN74@Emplace_re:
; File C:\Program Files\Microsoft Visual Studio\2022\Professional\VC\Tools\MSVC\14.44.35207\include\vector

; 2076 :         _Mylast  = _Newvec + _Newsize;

  001d1	6b 4d e0 2c	 imul	 ecx, DWORD PTR __Newsize$1$[ebp], 44

; 913  :         }
; 914  : 
; 915  :         _Guard._New_begin = nullptr;
; 916  :         _Change_array(_Newvec, _Newsize, _Newcapacity);
; 917  :         return _Newvec + _Whereoff;

  001d5	8b 45 ec	 mov	 eax, DWORD PTR tv633[ebp]

; 2075 :         _Myfirst = _Newvec;

  001d8	89 3b		 mov	 DWORD PTR [ebx], edi

; 2076 :         _Mylast  = _Newvec + _Newsize;

  001da	03 cf		 add	 ecx, edi
  001dc	89 4b 04	 mov	 DWORD PTR [ebx+4], ecx

; 2077 :         _Myend   = _Newvec + _Newcapacity;

  001df	8b 4d e8	 mov	 ecx, DWORD PTR tv634[ebp]
  001e2	03 cf		 add	 ecx, edi
  001e4	89 4b 08	 mov	 DWORD PTR [ebx+8], ecx

; 918  :     }

  001e7	8b 4d f4	 mov	 ecx, DWORD PTR __$EHRec$[ebp]
  001ea	64 89 0d 00 00
	00 00		 mov	 DWORD PTR fs:0, ecx
  001f1	59		 pop	 ecx
  001f2	5f		 pop	 edi
  001f3	5e		 pop	 esi
  001f4	5b		 pop	 ebx
  001f5	8b e5		 mov	 esp, ebp
  001f7	5d		 pop	 ebp
  001f8	c2 08 00	 ret	 8
$LN3@Emplace_re:

; 910  :             _STD _Uninitialized_move(_Myfirst, _Whereptr, _Newvec, _Al);

  001fb	53		 push	 ebx
  001fc	57		 push	 edi
  001fd	51		 push	 ecx
  001fe	56		 push	 esi
  001ff	e8 00 00 00 00	 call	 ??$_Uninitialized_move@PAVCGuildCombat1to1@@V?$allocator@VCGuildCombat1to1@@@std@@@std@@YAPAVCGuildCombat1to1@@QAV1@0PAV1@AAV?$allocator@VCGuildCombat1to1@@@0@@Z ; std::_Uninitialized_move<CGuildCombat1to1 *,std::allocator<CGuildCombat1to1> >

; 911  :             _Constructed_first = _Newvec;
; 912  :             _STD _Uninitialized_move(_Whereptr, _Mylast, _Newvec + _Whereoff + 1, _Al);

  00204	8b 45 ec	 mov	 eax, DWORD PTR tv633[ebp]
  00207	53		 push	 ebx
  00208	83 c0 2c	 add	 eax, 44			; 0000002cH
  0020b	89 7d cc	 mov	 DWORD PTR __Guard$[ebp+12], edi
  0020e	50		 push	 eax
  0020f	ff 73 04	 push	 DWORD PTR [ebx+4]
  00212	ff 75 08	 push	 DWORD PTR __Whereptr$[ebp]
  00215	e8 00 00 00 00	 call	 ??$_Uninitialized_move@PAVCGuildCombat1to1@@V?$allocator@VCGuildCombat1to1@@@std@@@std@@YAPAVCGuildCombat1to1@@QAV1@0PAV1@AAV?$allocator@VCGuildCombat1to1@@@0@@Z ; std::_Uninitialized_move<CGuildCombat1to1 *,std::allocator<CGuildCombat1to1> >
  0021a	83 c4 20	 add	 esp, 32			; 00000020H
; File C:\Program Files\Microsoft Visual Studio\2022\Professional\VC\Tools\MSVC\14.44.35207\include\xmemory

; 1901 :     for (; _UFirst != _ULast; ++_UFirst) {

  0021d	e9 4a ff ff ff	 jmp	 $LN4@Emplace_re
$LN78@Emplace_re:

; 219  :     _STL_VERIFY(_Back_shift >= _Min_back_shift && _Back_shift <= _Non_user_size, "invalid argument");

  00222	6a 00		 push	 0
  00224	6a 00		 push	 0
  00226	6a 00		 push	 0
  00228	6a 00		 push	 0
  0022a	6a 00		 push	 0
  0022c	e8 00 00 00 00	 call	 __invoke_watson
$LN131@Emplace_re:
; File C:\Program Files\Microsoft Visual Studio\2022\Professional\VC\Tools\MSVC\14.44.35207\include\vector

; 888  :             _Xlength();

  00231	e8 00 00 00 00	 call	 ?_Xlength@?$vector@VCGuildCombat1to1@@V?$allocator@VCGuildCombat1to1@@@std@@@std@@CAXXZ ; std::vector<CGuildCombat1to1,std::allocator<CGuildCombat1to1> >::_Xlength
$LN132@Emplace_re:
; File C:\Program Files\Microsoft Visual Studio\2022\Professional\VC\Tools\MSVC\14.44.35207\include\xmemory

; 118  :             _Throw_bad_array_new_length(); // multiply overflow

  00236	e8 00 00 00 00	 call	 ?_Throw_bad_array_new_length@std@@YAXXZ ; std::_Throw_bad_array_new_length
$LN128@Emplace_re:
  0023b	cc		 int	 3
_TEXT	ENDS
;	COMDAT text$x
text$x	SEGMENT
__unwindfunclet$??$_Emplace_reallocate@ABVCGuildCombat1to1@@@?$vector@VCGuildCombat1to1@@V?$allocator@VCGuildCombat1to1@@@std@@@std@@AAEPAVCGuildCombat1to1@@QAV2@ABV2@@Z$0:
  00000	8d 4d c0	 lea	 ecx, DWORD PTR __Guard$[ebp]
  00003	e9 00 00 00 00	 jmp	 ??1_Reallocation_guard@?$vector@VCGuildCombat1to1@@V?$allocator@VCGuildCombat1to1@@@std@@@std@@QAE@XZ ; std::vector<CGuildCombat1to1,std::allocator<CGuildCombat1to1> >::_Reallocation_guard::~_Reallocation_guard
__unwindfunclet$??$_Emplace_reallocate@ABVCGuildCombat1to1@@@?$vector@VCGuildCombat1to1@@V?$allocator@VCGuildCombat1to1@@@std@@@std@@AAEPAVCGuildCombat1to1@@QAV2@ABV2@@Z$1:
  00008	8d 4d d4	 lea	 ecx, DWORD PTR __Backout$2[ebp]
  0000b	e9 00 00 00 00	 jmp	 ??1?$_Uninitialized_backout_al@V?$allocator@VCGuildCombat1to1@@@std@@@std@@QAE@XZ ; std::_Uninitialized_backout_al<std::allocator<CGuildCombat1to1> >::~_Uninitialized_backout_al<std::allocator<CGuildCombat1to1> >
  00010	cc		 int	 3
  00011	cc		 int	 3
  00012	cc		 int	 3
  00013	cc		 int	 3
  00014	cc		 int	 3
__ehhandler$??$_Emplace_reallocate@ABVCGuildCombat1to1@@@?$vector@VCGuildCombat1to1@@V?$allocator@VCGuildCombat1to1@@@std@@@std@@AAEPAVCGuildCombat1to1@@QAV2@ABV2@@Z:
  00015	90		 npad	 1
  00016	90		 npad	 1
  00017	8b 54 24 08	 mov	 edx, DWORD PTR [esp+8]
  0001b	8d 42 0c	 lea	 eax, DWORD PTR [edx+12]
  0001e	8b 4a bc	 mov	 ecx, DWORD PTR [edx-68]
  00021	33 c8		 xor	 ecx, eax
  00023	e8 00 00 00 00	 call	 @__security_check_cookie@4
  00028	b8 00 00 00 00	 mov	 eax, OFFSET __ehfuncinfo$??$_Emplace_reallocate@ABVCGuildCombat1to1@@@?$vector@VCGuildCombat1to1@@V?$allocator@VCGuildCombat1to1@@@std@@@std@@AAEPAVCGuildCombat1to1@@QAV2@ABV2@@Z
  0002d	e9 00 00 00 00	 jmp	 ___CxxFrameHandler3
text$x	ENDS
??$_Emplace_reallocate@ABVCGuildCombat1to1@@@?$vector@VCGuildCombat1to1@@V?$allocator@VCGuildCombat1to1@@@std@@@std@@AAEPAVCGuildCombat1to1@@QAV2@ABV2@@Z ENDP ; std::vector<CGuildCombat1to1,std::allocator<CGuildCombat1to1> >::_Emplace_reallocate<CGuildCombat1to1 const &>
; Function compile flags: /Ogtp
; File C:\Program Files\Microsoft Visual Studio\2022\Professional\VC\Tools\MSVC\14.44.35207\include\vector
; File C:\Program Files\Microsoft Visual Studio\2022\Professional\VC\Tools\MSVC\14.44.35207\include\xmemory
; File C:\Program Files\Microsoft Visual Studio\2022\Professional\VC\Tools\MSVC\14.44.35207\include\vector
; File C:\Program Files\Microsoft Visual Studio\2022\Professional\VC\Tools\MSVC\14.44.35207\include\xmemory
; File C:\Program Files\Microsoft Visual Studio\2022\Professional\VC\Tools\MSVC\14.44.35207\include\vector
; File C:\Program Files\Microsoft Visual Studio\2022\Professional\VC\Tools\MSVC\14.44.35207\include\xmemory
; File C:\Program Files\Microsoft Visual Studio\2022\Professional\VC\Tools\MSVC\14.44.35207\include\vector
; File C:\Program Files\Microsoft Visual Studio\2022\Professional\VC\Tools\MSVC\14.44.35207\include\xmemory
; File C:\Program Files\Microsoft Visual Studio\2022\Professional\VC\Tools\MSVC\14.44.35207\include\vector
; File C:\Program Files\Microsoft Visual Studio\2022\Professional\VC\Tools\MSVC\14.44.35207\include\xmemory
; File C:\Program Files\Microsoft Visual Studio\2022\Professional\VC\Tools\MSVC\14.44.35207\include\vector
; File C:\Program Files\Microsoft Visual Studio\2022\Professional\VC\Tools\MSVC\14.44.35207\include\xmemory
; File C:\Program Files\Microsoft Visual Studio\2022\Professional\VC\Tools\MSVC\14.44.35207\include\vector
; File C:\Program Files\Microsoft Visual Studio\2022\Professional\VC\Tools\MSVC\14.44.35207\include\xmemory
; File C:\Program Files\Microsoft Visual Studio\2022\Professional\VC\Tools\MSVC\14.44.35207\include\vector
; File C:\Program Files\Microsoft Visual Studio\2022\Professional\VC\Tools\MSVC\14.44.35207\include\xmemory
; File C:\Program Files\Microsoft Visual Studio\2022\Professional\VC\Tools\MSVC\14.44.35207\include\vector
; File C:\Program Files\Microsoft Visual Studio\2022\Professional\VC\Tools\MSVC\14.44.35207\include\xmemory
; File C:\Program Files\Microsoft Visual Studio\2022\Professional\VC\Tools\MSVC\14.44.35207\include\vector
; File C:\Program Files\Microsoft Visual Studio\2022\Professional\VC\Tools\MSVC\14.44.35207\include\xmemory
; File C:\Program Files\Microsoft Visual Studio\2022\Professional\VC\Tools\MSVC\14.44.35207\include\vector
;	COMDAT ??$_Emplace_reallocate@ABU__GC1TO1TENDER@CGuildCombat1to1Mng@@@?$vector@U__GC1TO1TENDER@CGuildCombat1to1Mng@@V?$allocator@U__GC1TO1TENDER@CGuildCombat1to1Mng@@@std@@@std@@AAEPAU__GC1TO1TENDER@CGuildCombat1to1Mng@@QAU23@ABU23@@Z
_TEXT	SEGMENT
__Guard$ = -52						; size = 20
tv601 = -32						; size = 4
__Newsize$1$ = -28					; size = 4
_this$1$ = -24						; size = 4
__Whereoff$1$ = -20					; size = 4
$T2 = -20						; size = 4
tv603 = -16						; size = 4
__$EHRec$ = -12						; size = 12
__Whereptr$ = 8						; size = 4
_<_Val_0>$ = 12						; size = 4
??$_Emplace_reallocate@ABU__GC1TO1TENDER@CGuildCombat1to1Mng@@@?$vector@U__GC1TO1TENDER@CGuildCombat1to1Mng@@V?$allocator@U__GC1TO1TENDER@CGuildCombat1to1Mng@@@std@@@std@@AAEPAU__GC1TO1TENDER@CGuildCombat1to1Mng@@QAU23@ABU23@@Z PROC ; std::vector<CGuildCombat1to1Mng::__GC1TO1TENDER,std::allocator<CGuildCombat1to1Mng::__GC1TO1TENDER> >::_Emplace_reallocate<CGuildCombat1to1Mng::__GC1TO1TENDER const &>, COMDAT
; _this$ = ecx

; 875  :     _CONSTEXPR20 pointer _Emplace_reallocate(const pointer _Whereptr, _Valty&&... _Val) {

  00000	55		 push	 ebp
  00001	8b ec		 mov	 ebp, esp
  00003	6a ff		 push	 -1
  00005	68 00 00 00 00	 push	 __ehhandler$??$_Emplace_reallocate@ABU__GC1TO1TENDER@CGuildCombat1to1Mng@@@?$vector@U__GC1TO1TENDER@CGuildCombat1to1Mng@@V?$allocator@U__GC1TO1TENDER@CGuildCombat1to1Mng@@@std@@@std@@AAEPAU__GC1TO1TENDER@CGuildCombat1to1Mng@@QAU23@ABU23@@Z
  0000a	64 a1 00 00 00
	00		 mov	 eax, DWORD PTR fs:0
  00010	50		 push	 eax
  00011	83 ec 28	 sub	 esp, 40			; 00000028H
  00014	53		 push	 ebx
  00015	56		 push	 esi
  00016	57		 push	 edi
  00017	a1 00 00 00 00	 mov	 eax, DWORD PTR ___security_cookie
  0001c	33 c5		 xor	 eax, ebp
  0001e	50		 push	 eax
  0001f	8d 45 f4	 lea	 eax, DWORD PTR __$EHRec$[ebp]
  00022	64 a3 00 00 00
	00		 mov	 DWORD PTR fs:0, eax
  00028	8b f9		 mov	 edi, ecx
  0002a	89 7d e8	 mov	 DWORD PTR _this$1$[ebp], edi

; 876  :         // reallocate and insert by perfectly forwarding _Val at _Whereptr
; 877  :         _Alty& _Al        = _Getal();
; 878  :         auto& _My_data    = _Mypair._Myval2;
; 879  :         pointer& _Myfirst = _My_data._Myfirst;
; 880  :         pointer& _Mylast  = _My_data._Mylast;
; 881  : 
; 882  :         _STL_INTERNAL_CHECK(_Mylast == _My_data._Myend); // check that we have no unused capacity
; 883  : 
; 884  :         const auto _Whereoff = static_cast<size_type>(_Whereptr - _Myfirst);

  0002d	8b 37		 mov	 esi, DWORD PTR [edi]
  0002f	b8 e9 a2 8b 2e	 mov	 eax, 780903145		; 2e8ba2e9H
  00034	8b 55 08	 mov	 edx, DWORD PTR __Whereptr$[ebp]

; 885  :         const auto _Oldsize  = static_cast<size_type>(_Mylast - _Myfirst);

  00037	8b 4f 04	 mov	 ecx, DWORD PTR [edi+4]
  0003a	2b d6		 sub	 edx, esi
  0003c	f7 ea		 imul	 edx
  0003e	2b ce		 sub	 ecx, esi
  00040	c1 fa 03	 sar	 edx, 3
  00043	8b c2		 mov	 eax, edx
  00045	c1 e8 1f	 shr	 eax, 31			; 0000001fH
  00048	03 c2		 add	 eax, edx
  0004a	89 45 ec	 mov	 DWORD PTR __Whereoff$1$[ebp], eax
  0004d	b8 e9 a2 8b 2e	 mov	 eax, 780903145		; 2e8ba2e9H
  00052	f7 e9		 imul	 ecx
  00054	c1 fa 03	 sar	 edx, 3
  00057	8b c2		 mov	 eax, edx
  00059	c1 e8 1f	 shr	 eax, 31			; 0000001fH
  0005c	03 c2		 add	 eax, edx

; 886  : 
; 887  :         if (_Oldsize == max_size()) {

  0005e	3d 5d 74 d1 05	 cmp	 eax, 97612893		; 05d1745dH
  00063	0f 84 78 01 00
	00		 je	 $LN121@Emplace_re

; 1924 :         return static_cast<size_type>(_My_data._Myend - _My_data._Myfirst);

  00069	8b 4f 08	 mov	 ecx, DWORD PTR [edi+8]

; 889  :         }
; 890  : 
; 891  :         const size_type _Newsize = _Oldsize + 1;

  0006c	8d 58 01	 lea	 ebx, DWORD PTR [eax+1]

; 1924 :         return static_cast<size_type>(_My_data._Myend - _My_data._Myfirst);

  0006f	2b ce		 sub	 ecx, esi

; 889  :         }
; 890  : 
; 891  :         const size_type _Newsize = _Oldsize + 1;

  00071	89 5d e4	 mov	 DWORD PTR __Newsize$1$[ebp], ebx

; 1924 :         return static_cast<size_type>(_My_data._Myend - _My_data._Myfirst);

  00074	b8 e9 a2 8b 2e	 mov	 eax, 780903145		; 2e8ba2e9H
  00079	f7 e9		 imul	 ecx

; 2011 :         if (_Oldcapacity > _Max - _Oldcapacity / 2) {

  0007b	b8 5d 74 d1 05	 mov	 eax, 97612893		; 05d1745dH

; 1924 :         return static_cast<size_type>(_My_data._Myend - _My_data._Myfirst);

  00080	c1 fa 03	 sar	 edx, 3
  00083	8b ca		 mov	 ecx, edx
  00085	c1 e9 1f	 shr	 ecx, 31			; 0000001fH
  00088	03 ca		 add	 ecx, edx

; 2011 :         if (_Oldcapacity > _Max - _Oldcapacity / 2) {

  0008a	8b d1		 mov	 edx, ecx
  0008c	d1 ea		 shr	 edx, 1
  0008e	2b c2		 sub	 eax, edx
  00090	3b c8		 cmp	 ecx, eax
  00092	76 19		 jbe	 SHORT $LN8@Emplace_re

; 2012 :             return _Max; // geometric growth would overflow

  00094	b8 fc ff ff ff	 mov	 eax, -4			; fffffffcH
  00099	c7 45 f0 fc ff
	ff ff		 mov	 DWORD PTR tv603[ebp], -4 ; fffffffcH
; File C:\Program Files\Microsoft Visual Studio\2022\Professional\VC\Tools\MSVC\14.44.35207\include\xmemory

; 253  :             return _Allocate_manually_vector_aligned<_Traits>(_Bytes);

  000a0	50		 push	 eax
; File C:\Program Files\Microsoft Visual Studio\2022\Professional\VC\Tools\MSVC\14.44.35207\include\vector

; 2012 :             return _Max; // geometric growth would overflow

  000a1	be 5d 74 d1 05	 mov	 esi, 97612893		; 05d1745dH
; File C:\Program Files\Microsoft Visual Studio\2022\Professional\VC\Tools\MSVC\14.44.35207\include\xmemory

; 253  :             return _Allocate_manually_vector_aligned<_Traits>(_Bytes);

  000a6	e8 00 00 00 00	 call	 ??$_Allocate_manually_vector_aligned@U_Default_allocate_traits@std@@@std@@YAPAXI@Z ; std::_Allocate_manually_vector_aligned<std::_Default_allocate_traits>
  000ab	eb 39		 jmp	 SHORT $LN119@Emplace_re
$LN8@Emplace_re:
; File C:\Program Files\Microsoft Visual Studio\2022\Professional\VC\Tools\MSVC\14.44.35207\include\vector

; 2015 :         const size_type _Geometric = _Oldcapacity + _Oldcapacity / 2;

  000ad	8d 04 0a	 lea	 eax, DWORD PTR [edx+ecx]
; File C:\Program Files\Microsoft Visual Studio\2022\Professional\VC\Tools\MSVC\14.44.35207\include\xmemory

; 117  :         if (_Count > _Max_possible) {

  000b0	8b f3		 mov	 esi, ebx
  000b2	3b c3		 cmp	 eax, ebx
  000b4	0f 43 f0	 cmovae	 esi, eax
  000b7	81 fe 5d 74 d1
	05		 cmp	 esi, 97612893		; 05d1745dH
  000bd	0f 87 23 01 00
	00		 ja	 $LN122@Emplace_re

; 119  :         }
; 120  :     }
; 121  : 
; 122  :     return _Count * _Ty_size;

  000c3	6b c6 2c	 imul	 eax, esi, 44
  000c6	89 45 f0	 mov	 DWORD PTR tv603[ebp], eax

; 227  :     if (_Bytes == 0) {

  000c9	85 c0		 test	 eax, eax
  000cb	75 04		 jne	 SHORT $LN23@Emplace_re

; 228  :         return nullptr;

  000cd	33 db		 xor	 ebx, ebx
  000cf	eb 1a		 jmp	 SHORT $LN22@Emplace_re
$LN23@Emplace_re:

; 229  :     }
; 230  : 
; 231  : #if _HAS_CXX20 // TRANSITION, GH-1532
; 232  :     if (_STD is_constant_evaluated()) {
; 233  :         return _Traits::_Allocate(_Bytes);
; 234  :     }
; 235  : #endif // _HAS_CXX20
; 236  : 
; 237  : #ifdef __cpp_aligned_new
; 238  :     if constexpr (_Align > __STDCPP_DEFAULT_NEW_ALIGNMENT__) {
; 239  :         size_t _Passed_align = _Align;
; 240  : #if defined(_M_IX86) || defined(_M_X64)
; 241  :         if (_Bytes >= _Big_allocation_threshold) {
; 242  :             // boost the alignment of big allocations to help autovectorization
; 243  :             _Passed_align = (_STD max)(_Align, _Big_allocation_alignment);
; 244  :         }
; 245  : #endif // defined(_M_IX86) || defined(_M_X64)
; 246  :         return _Traits::_Allocate_aligned(_Bytes, _Passed_align);
; 247  :     } else
; 248  : #endif // defined(__cpp_aligned_new)
; 249  :     {
; 250  : #if defined(_M_IX86) || defined(_M_X64)
; 251  :         if (_Bytes >= _Big_allocation_threshold) {

  000d1	3d 00 10 00 00	 cmp	 eax, 4096		; 00001000H
  000d6	72 08		 jb	 SHORT $LN24@Emplace_re

; 253  :             return _Allocate_manually_vector_aligned<_Traits>(_Bytes);

  000d8	50		 push	 eax
  000d9	e8 00 00 00 00	 call	 ??$_Allocate_manually_vector_aligned@U_Default_allocate_traits@std@@@std@@YAPAXI@Z ; std::_Allocate_manually_vector_aligned<std::_Default_allocate_traits>
  000de	eb 06		 jmp	 SHORT $LN119@Emplace_re
$LN24@Emplace_re:

; 136  :         return ::operator new(_Bytes);

  000e0	50		 push	 eax
  000e1	e8 00 00 00 00	 call	 ??2@YAPAXI@Z		; operator new
$LN119@Emplace_re:
; File C:\Program Files\Microsoft Visual Studio\2022\Professional\VC\Tools\MSVC\14.44.35207\include\vector

; 895  :         const pointer _Constructed_last = _Newvec + _Whereoff + 1;

  000e6	8b d8		 mov	 ebx, eax
  000e8	83 c4 04	 add	 esp, 4
$LN22@Emplace_re:
  000eb	6b 4d ec 2c	 imul	 ecx, DWORD PTR __Whereoff$1$[ebp], 44

; 897  :         _Reallocation_guard _Guard{_Al, _Newvec, _Newcapacity, _Constructed_last, _Constructed_last};

  000ef	89 7d cc	 mov	 DWORD PTR __Guard$[ebp], edi
  000f2	89 5d d0	 mov	 DWORD PTR __Guard$[ebp+4], ebx
  000f5	89 75 d4	 mov	 DWORD PTR __Guard$[ebp+8], esi
  000f8	03 cb		 add	 ecx, ebx
  000fa	89 4d e0	 mov	 DWORD PTR tv601[ebp], ecx
  000fd	8d 41 2c	 lea	 eax, DWORD PTR [ecx+44]
  00100	89 45 ec	 mov	 DWORD PTR $T2[ebp], eax
  00103	89 45 d8	 mov	 DWORD PTR __Guard$[ebp+12], eax
  00106	89 45 dc	 mov	 DWORD PTR __Guard$[ebp+16], eax
; File C:\Program Files\Microsoft Visual Studio\2022\Professional\VC\Tools\MSVC\14.44.35207\include\xmemory

; 732  :         ::new (const_cast<void*>(static_cast<const volatile void*>(_Ptr))) _Objty(_STD forward<_Types>(_Args)...);

  00109	ff 75 0c	 push	 DWORD PTR _<_Val_0>$[ebp]
; File C:\Program Files\Microsoft Visual Studio\2022\Professional\VC\Tools\MSVC\14.44.35207\include\vector

; 897  :         _Reallocation_guard _Guard{_Al, _Newvec, _Newcapacity, _Constructed_last, _Constructed_last};

  0010c	c7 45 fc 00 00
	00 00		 mov	 DWORD PTR __$EHRec$[ebp+8], 0
; File C:\Program Files\Microsoft Visual Studio\2022\Professional\VC\Tools\MSVC\14.44.35207\include\xmemory

; 732  :         ::new (const_cast<void*>(static_cast<const volatile void*>(_Ptr))) _Objty(_STD forward<_Types>(_Args)...);

  00113	e8 00 00 00 00	 call	 ??0__GC1TO1TENDER@CGuildCombat1to1Mng@@QAE@ABU01@@Z
; File C:\Program Files\Microsoft Visual Studio\2022\Professional\VC\Tools\MSVC\14.44.35207\include\vector

; 903  :         if (_Whereptr == _Mylast) { // at back, provide strong guarantee

  00118	8b 57 04	 mov	 edx, DWORD PTR [edi+4]
  0011b	8b 75 08	 mov	 esi, DWORD PTR __Whereptr$[ebp]
  0011e	8b 0f		 mov	 ecx, DWORD PTR [edi]
  00120	3b f2		 cmp	 esi, edx
  00122	75 04		 jne	 SHORT $LN3@Emplace_re

; 904  :             if constexpr (is_nothrow_move_constructible_v<_Ty> || !is_copy_constructible_v<_Ty>) {
; 905  :                 _STD _Uninitialized_move(_Myfirst, _Mylast, _Newvec, _Al);

  00124	8b c3		 mov	 eax, ebx

; 906  :             } else {
; 907  :                 _STD _Uninitialized_copy(_Myfirst, _Mylast, _Newvec, _Al);
; 908  :             }
; 909  :         } else { // provide basic guarantee

  00126	eb 14		 jmp	 SHORT $LN4@Emplace_re
$LN3@Emplace_re:

; 910  :             _STD _Uninitialized_move(_Myfirst, _Whereptr, _Newvec, _Al);

  00128	57		 push	 edi
  00129	53		 push	 ebx
  0012a	56		 push	 esi
  0012b	51		 push	 ecx
  0012c	e8 00 00 00 00	 call	 ??$_Uninitialized_move@PAU__GC1TO1TENDER@CGuildCombat1to1Mng@@V?$allocator@U__GC1TO1TENDER@CGuildCombat1to1Mng@@@std@@@std@@YAPAU__GC1TO1TENDER@CGuildCombat1to1Mng@@QAU12@0PAU12@AAV?$allocator@U__GC1TO1TENDER@CGuildCombat1to1Mng@@@0@@Z ; std::_Uninitialized_move<CGuildCombat1to1Mng::__GC1TO1TENDER *,std::allocator<CGuildCombat1to1Mng::__GC1TO1TENDER> >

; 911  :             _Constructed_first = _Newvec;
; 912  :             _STD _Uninitialized_move(_Whereptr, _Mylast, _Newvec + _Whereoff + 1, _Al);

  00131	8b 57 04	 mov	 edx, DWORD PTR [edi+4]
  00134	83 c4 10	 add	 esp, 16			; 00000010H
  00137	8b 45 ec	 mov	 eax, DWORD PTR $T2[ebp]
  0013a	8b ce		 mov	 ecx, esi
$LN4@Emplace_re:

; 913  :         }
; 914  : 
; 915  :         _Guard._New_begin = nullptr;

  0013c	57		 push	 edi
  0013d	50		 push	 eax
  0013e	52		 push	 edx
  0013f	51		 push	 ecx
  00140	e8 00 00 00 00	 call	 ??$_Uninitialized_move@PAU__GC1TO1TENDER@CGuildCombat1to1Mng@@V?$allocator@U__GC1TO1TENDER@CGuildCombat1to1Mng@@@std@@@std@@YAPAU__GC1TO1TENDER@CGuildCombat1to1Mng@@QAU12@0PAU12@AAV?$allocator@U__GC1TO1TENDER@CGuildCombat1to1Mng@@@0@@Z ; std::_Uninitialized_move<CGuildCombat1to1Mng::__GC1TO1TENDER *,std::allocator<CGuildCombat1to1Mng::__GC1TO1TENDER> >

; 2069 :         if (_Myfirst) { // destroy and deallocate old array

  00145	8b 37		 mov	 esi, DWORD PTR [edi]

; 913  :         }
; 914  : 
; 915  :         _Guard._New_begin = nullptr;

  00147	83 c4 10	 add	 esp, 16			; 00000010H

; 2069 :         if (_Myfirst) { // destroy and deallocate old array

  0014a	85 f6		 test	 esi, esi
  0014c	74 5a		 je	 SHORT $LN61@Emplace_re

; 2070 :             _STD _Destroy_range(_Myfirst, _Mylast, _Al);

  0014e	8b 47 04	 mov	 eax, DWORD PTR [edi+4]
; File C:\Program Files\Microsoft Visual Studio\2022\Professional\VC\Tools\MSVC\14.44.35207\include\xmemory

; 1102 :         for (; _First != _Last; ++_First) {

  00151	3b f0		 cmp	 esi, eax
  00153	74 14		 je	 SHORT $LN38@Emplace_re
  00155	8b f8		 mov	 edi, eax
$LL39@Emplace_re:
; File C:\Program Files\Microsoft Visual Studio\2022\Professional\VC\Tools\MSVC\14.44.35207\include\vector

; 830  :         _Tidy();

  00157	8d 4e 20	 lea	 ecx, DWORD PTR [esi+32]
  0015a	e8 00 00 00 00	 call	 ?_Tidy@?$vector@KV?$allocator@K@std@@@std@@AAEXXZ ; std::vector<unsigned long,std::allocator<unsigned long> >::_Tidy
; File C:\Program Files\Microsoft Visual Studio\2022\Professional\VC\Tools\MSVC\14.44.35207\include\xmemory

; 1102 :         for (; _First != _Last; ++_First) {

  0015f	83 c6 2c	 add	 esi, 44			; 0000002cH
  00162	3b f7		 cmp	 esi, edi
  00164	75 f1		 jne	 SHORT $LL39@Emplace_re
  00166	8b 7d e8	 mov	 edi, DWORD PTR _this$1$[ebp]
$LN38@Emplace_re:
; File C:\Program Files\Microsoft Visual Studio\2022\Professional\VC\Tools\MSVC\14.44.35207\include\vector

; 2072 :             _Al.deallocate(_Myfirst, static_cast<size_type>(_Myend - _Myfirst));

  00169	8b 4f 08	 mov	 ecx, DWORD PTR [edi+8]
  0016c	b8 e9 a2 8b 2e	 mov	 eax, 780903145		; 2e8ba2e9H
  00171	8b 37		 mov	 esi, DWORD PTR [edi]
  00173	2b ce		 sub	 ecx, esi
  00175	f7 e9		 imul	 ecx
  00177	c1 fa 03	 sar	 edx, 3
  0017a	8b c2		 mov	 eax, edx
  0017c	c1 e8 1f	 shr	 eax, 31			; 0000001fH
  0017f	03 c2		 add	 eax, edx
; File C:\Program Files\Microsoft Visual Studio\2022\Professional\VC\Tools\MSVC\14.44.35207\include\xmemory

; 985  :         _STD _Deallocate<_New_alignof<_Ty>>(_Ptr, sizeof(_Ty) * _Count);

  00181	6b c8 2c	 imul	 ecx, eax, 44

; 284  :         if (_Bytes >= _Big_allocation_threshold) {

  00184	81 f9 00 10 00
	00		 cmp	 ecx, 4096		; 00001000H
  0018a	72 12		 jb	 SHORT $LN66@Emplace_re

; 205  :     const uintptr_t _Ptr_container   = _Ptr_user[-1];

  0018c	8b 56 fc	 mov	 edx, DWORD PTR [esi-4]
  0018f	83 c1 23	 add	 ecx, 35			; 00000023H

; 206  : 
; 207  :     // If the following asserts, it likely means that we are performing
; 208  :     // an aligned delete on memory coming from an unaligned allocation.
; 209  :     _STL_ASSERT(_Ptr_user[-2] == _Big_allocation_sentinel, "invalid argument");
; 210  : 
; 211  :     // Extra paranoia on aligned allocation/deallocation; ensure _Ptr_container is
; 212  :     // in range [_Min_back_shift, _Non_user_size]
; 213  : #ifdef _DEBUG
; 214  :     constexpr uintptr_t _Min_back_shift = 2 * sizeof(void*);
; 215  : #else // ^^^ defined(_DEBUG) / !defined(_DEBUG) vvv
; 216  :     constexpr uintptr_t _Min_back_shift = sizeof(void*);
; 217  : #endif // ^^^ !defined(_DEBUG) ^^^
; 218  :     const uintptr_t _Back_shift = reinterpret_cast<uintptr_t>(_Ptr) - _Ptr_container;

  00192	2b f2		 sub	 esi, edx

; 219  :     _STL_VERIFY(_Back_shift >= _Min_back_shift && _Back_shift <= _Non_user_size, "invalid argument");

  00194	8d 46 fc	 lea	 eax, DWORD PTR [esi-4]
  00197	83 f8 1f	 cmp	 eax, 31			; 0000001fH
  0019a	77 36		 ja	 SHORT $LN65@Emplace_re

; 220  :     _Ptr = reinterpret_cast<void*>(_Ptr_container);

  0019c	8b f2		 mov	 esi, edx
$LN66@Emplace_re:

; 289  :         ::operator delete(_Ptr, _Bytes);

  0019e	51		 push	 ecx
  0019f	56		 push	 esi
  001a0	e8 00 00 00 00	 call	 ??3@YAXPAXI@Z		; operator delete
  001a5	83 c4 08	 add	 esp, 8
$LN61@Emplace_re:
; File C:\Program Files\Microsoft Visual Studio\2022\Professional\VC\Tools\MSVC\14.44.35207\include\vector

; 2076 :         _Mylast  = _Newvec + _Newsize;

  001a8	6b 4d e4 2c	 imul	 ecx, DWORD PTR __Newsize$1$[ebp], 44

; 916  :         _Change_array(_Newvec, _Newsize, _Newcapacity);
; 917  :         return _Newvec + _Whereoff;

  001ac	8b 45 e0	 mov	 eax, DWORD PTR tv601[ebp]

; 2075 :         _Myfirst = _Newvec;

  001af	89 1f		 mov	 DWORD PTR [edi], ebx

; 2076 :         _Mylast  = _Newvec + _Newsize;

  001b1	03 cb		 add	 ecx, ebx
  001b3	89 4f 04	 mov	 DWORD PTR [edi+4], ecx

; 2077 :         _Myend   = _Newvec + _Newcapacity;

  001b6	8b 4d f0	 mov	 ecx, DWORD PTR tv603[ebp]
  001b9	03 cb		 add	 ecx, ebx
  001bb	89 4f 08	 mov	 DWORD PTR [edi+8], ecx

; 918  :     }

  001be	8b 4d f4	 mov	 ecx, DWORD PTR __$EHRec$[ebp]
  001c1	64 89 0d 00 00
	00 00		 mov	 DWORD PTR fs:0, ecx
  001c8	59		 pop	 ecx
  001c9	5f		 pop	 edi
  001ca	5e		 pop	 esi
  001cb	5b		 pop	 ebx
  001cc	8b e5		 mov	 esp, ebp
  001ce	5d		 pop	 ebp
  001cf	c2 08 00	 ret	 8
$LN65@Emplace_re:
; File C:\Program Files\Microsoft Visual Studio\2022\Professional\VC\Tools\MSVC\14.44.35207\include\xmemory

; 219  :     _STL_VERIFY(_Back_shift >= _Min_back_shift && _Back_shift <= _Non_user_size, "invalid argument");

  001d2	6a 00		 push	 0
  001d4	6a 00		 push	 0
  001d6	6a 00		 push	 0
  001d8	6a 00		 push	 0
  001da	6a 00		 push	 0
  001dc	e8 00 00 00 00	 call	 __invoke_watson
$LN121@Emplace_re:
; File C:\Program Files\Microsoft Visual Studio\2022\Professional\VC\Tools\MSVC\14.44.35207\include\vector

; 888  :             _Xlength();

  001e1	e8 00 00 00 00	 call	 ?_Xlength@?$vector@U__GC1TO1TENDER@CGuildCombat1to1Mng@@V?$allocator@U__GC1TO1TENDER@CGuildCombat1to1Mng@@@std@@@std@@CAXXZ ; std::vector<CGuildCombat1to1Mng::__GC1TO1TENDER,std::allocator<CGuildCombat1to1Mng::__GC1TO1TENDER> >::_Xlength
$LN122@Emplace_re:
; File C:\Program Files\Microsoft Visual Studio\2022\Professional\VC\Tools\MSVC\14.44.35207\include\xmemory

; 118  :             _Throw_bad_array_new_length(); // multiply overflow

  001e6	e8 00 00 00 00	 call	 ?_Throw_bad_array_new_length@std@@YAXXZ ; std::_Throw_bad_array_new_length
$LN118@Emplace_re:
  001eb	cc		 int	 3
_TEXT	ENDS
;	COMDAT text$x
text$x	SEGMENT
__unwindfunclet$??$_Emplace_reallocate@ABU__GC1TO1TENDER@CGuildCombat1to1Mng@@@?$vector@U__GC1TO1TENDER@CGuildCombat1to1Mng@@V?$allocator@U__GC1TO1TENDER@CGuildCombat1to1Mng@@@std@@@std@@AAEPAU__GC1TO1TENDER@CGuildCombat1to1Mng@@QAU23@ABU23@@Z$0:
  00000	8d 4d cc	 lea	 ecx, DWORD PTR __Guard$[ebp]
  00003	e9 00 00 00 00	 jmp	 ??1_Reallocation_guard@?$vector@U__GC1TO1TENDER@CGuildCombat1to1Mng@@V?$allocator@U__GC1TO1TENDER@CGuildCombat1to1Mng@@@std@@@std@@QAE@XZ ; std::vector<CGuildCombat1to1Mng::__GC1TO1TENDER,std::allocator<CGuildCombat1to1Mng::__GC1TO1TENDER> >::_Reallocation_guard::~_Reallocation_guard
  00008	cc		 int	 3
  00009	cc		 int	 3
  0000a	cc		 int	 3
  0000b	cc		 int	 3
  0000c	cc		 int	 3
__ehhandler$??$_Emplace_reallocate@ABU__GC1TO1TENDER@CGuildCombat1to1Mng@@@?$vector@U__GC1TO1TENDER@CGuildCombat1to1Mng@@V?$allocator@U__GC1TO1TENDER@CGuildCombat1to1Mng@@@std@@@std@@AAEPAU__GC1TO1TENDER@CGuildCombat1to1Mng@@QAU23@ABU23@@Z:
  0000d	90		 npad	 1
  0000e	90		 npad	 1
  0000f	8b 54 24 08	 mov	 edx, DWORD PTR [esp+8]
  00013	8d 42 0c	 lea	 eax, DWORD PTR [edx+12]
  00016	8b 4a c8	 mov	 ecx, DWORD PTR [edx-56]
  00019	33 c8		 xor	 ecx, eax
  0001b	e8 00 00 00 00	 call	 @__security_check_cookie@4
  00020	b8 00 00 00 00	 mov	 eax, OFFSET __ehfuncinfo$??$_Emplace_reallocate@ABU__GC1TO1TENDER@CGuildCombat1to1Mng@@@?$vector@U__GC1TO1TENDER@CGuildCombat1to1Mng@@V?$allocator@U__GC1TO1TENDER@CGuildCombat1to1Mng@@@std@@@std@@AAEPAU__GC1TO1TENDER@CGuildCombat1to1Mng@@QAU23@ABU23@@Z
  00025	e9 00 00 00 00	 jmp	 ___CxxFrameHandler3
text$x	ENDS
??$_Emplace_reallocate@ABU__GC1TO1TENDER@CGuildCombat1to1Mng@@@?$vector@U__GC1TO1TENDER@CGuildCombat1to1Mng@@V?$allocator@U__GC1TO1TENDER@CGuildCombat1to1Mng@@@std@@@std@@AAEPAU__GC1TO1TENDER@CGuildCombat1to1Mng@@QAU23@ABU23@@Z ENDP ; std::vector<CGuildCombat1to1Mng::__GC1TO1TENDER,std::allocator<CGuildCombat1to1Mng::__GC1TO1TENDER> >::_Emplace_reallocate<CGuildCombat1to1Mng::__GC1TO1TENDER const &>
; Function compile flags: /Ogtp
; File C:\Program Files\Microsoft Visual Studio\2022\Professional\VC\Tools\MSVC\14.44.35207\include\xmemory
;	COMDAT ??$_Uninitialized_copy_n@PAU__GC1TO1TENDER@CGuildCombat1to1Mng@@V?$allocator@U__GC1TO1TENDER@CGuildCombat1to1Mng@@@std@@@std@@YAPAU__GC1TO1TENDER@CGuildCombat1to1Mng@@PAU12@I0AAV?$allocator@U__GC1TO1TENDER@CGuildCombat1to1Mng@@@0@@Z
_TEXT	SEGMENT
__Backout$ = -24					; size = 12
__$EHRec$ = -12						; size = 12
__First$ = 8						; size = 4
__Count$ = 12						; size = 4
__Dest$ = 16						; size = 4
__Al$ = 20						; size = 4
??$_Uninitialized_copy_n@PAU__GC1TO1TENDER@CGuildCombat1to1Mng@@V?$allocator@U__GC1TO1TENDER@CGuildCombat1to1Mng@@@std@@@std@@YAPAU__GC1TO1TENDER@CGuildCombat1to1Mng@@PAU12@I0AAV?$allocator@U__GC1TO1TENDER@CGuildCombat1to1Mng@@@0@@Z PROC ; std::_Uninitialized_copy_n<CGuildCombat1to1Mng::__GC1TO1TENDER *,std::allocator<CGuildCombat1to1Mng::__GC1TO1TENDER> >, COMDAT

; 1910 :     _InIt _First, size_t _Count, _Alloc_ptr_t<_Alloc> _Dest, _Alloc& _Al) {

  00000	55		 push	 ebp
  00001	8b ec		 mov	 ebp, esp
  00003	6a ff		 push	 -1
  00005	68 00 00 00 00	 push	 __ehhandler$??$_Uninitialized_copy_n@PAU__GC1TO1TENDER@CGuildCombat1to1Mng@@V?$allocator@U__GC1TO1TENDER@CGuildCombat1to1Mng@@@std@@@std@@YAPAU__GC1TO1TENDER@CGuildCombat1to1Mng@@PAU12@I0AAV?$allocator@U__GC1TO1TENDER@CGuildCombat1to1Mng@@@0@@Z
  0000a	64 a1 00 00 00
	00		 mov	 eax, DWORD PTR fs:0
  00010	50		 push	 eax
  00011	83 ec 0c	 sub	 esp, 12			; 0000000cH
  00014	53		 push	 ebx
  00015	56		 push	 esi
  00016	57		 push	 edi
  00017	a1 00 00 00 00	 mov	 eax, DWORD PTR ___security_cookie
  0001c	33 c5		 xor	 eax, ebp
  0001e	50		 push	 eax
  0001f	8d 45 f4	 lea	 eax, DWORD PTR __$EHRec$[ebp]
  00022	64 a3 00 00 00
	00		 mov	 DWORD PTR fs:0, eax

; 1833 :     _CONSTEXPR20 _Uninitialized_backout_al(pointer _Dest, _Alloc& _Al_) : _First(_Dest), _Last(_Dest), _Al(_Al_) {}

  00028	8b 75 10	 mov	 esi, DWORD PTR __Dest$[ebp]
  0002b	8b 45 14	 mov	 eax, DWORD PTR __Al$[ebp]

; 1911 :     // copy _First + [0, _Count) to raw _Dest, using _Al
; 1912 :     // note: only called internally from elsewhere in the STL
; 1913 :     using _Ptrval = typename _Alloc::value_type*;
; 1914 : 
; 1915 : #ifdef _ENABLE_STL_INTERNAL_CHECK
; 1916 :     auto _UFirst = _STD _Get_unwrapped_n(_STD move(_First), _Count);
; 1917 : #else // ^^^ Checking / No checking vvv
; 1918 :     auto _UFirst = _STD _Get_unwrapped(_STD move(_First));

  0002e	8b 7d 08	 mov	 edi, DWORD PTR __First$[ebp]

; 1833 :     _CONSTEXPR20 _Uninitialized_backout_al(pointer _Dest, _Alloc& _Al_) : _First(_Dest), _Last(_Dest), _Al(_Al_) {}

  00031	89 75 e8	 mov	 DWORD PTR __Backout$[ebp], esi
  00034	89 75 ec	 mov	 DWORD PTR __Backout$[ebp+4], esi
  00037	89 45 f0	 mov	 DWORD PTR __Backout$[ebp+8], eax

; 1919 : #endif // ^^^ No checking ^^^
; 1920 : 
; 1921 :     constexpr bool _Can_memmove =
; 1922 :         conjunction_v<bool_constant<_Iter_copy_cat<decltype(_UFirst), _Ptrval>::_Bitcopy_constructible>,
; 1923 :             _Uses_default_construct<_Alloc, _Ptrval, decltype(*_UFirst)>>;
; 1924 : 
; 1925 :     if constexpr (_Can_memmove) {
; 1926 : #if _HAS_CXX20
; 1927 :         if (!_STD is_constant_evaluated())
; 1928 : #endif // _HAS_CXX20
; 1929 :         {
; 1930 :             _STD _Copy_memmove_n(_UFirst, _Count, _STD _Unfancy(_Dest));
; 1931 :             _Dest += _Count;
; 1932 :             return _Dest;
; 1933 :         }
; 1934 :     }
; 1935 : 
; 1936 :     _Uninitialized_backout_al<_Alloc> _Backout{_Dest, _Al};
; 1937 :     for (; _Count != 0; ++_UFirst, (void) --_Count) {

  0003a	8b 5d 0c	 mov	 ebx, DWORD PTR __Count$[ebp]
  0003d	c7 45 fc 00 00
	00 00		 mov	 DWORD PTR __$EHRec$[ebp+8], 0
  00044	85 db		 test	 ebx, ebx
  00046	74 16		 je	 SHORT $LN46@Uninitiali
$LL4@Uninitiali:

; 732  :         ::new (const_cast<void*>(static_cast<const volatile void*>(_Ptr))) _Objty(_STD forward<_Types>(_Args)...);

  00048	57		 push	 edi
  00049	8b ce		 mov	 ecx, esi
  0004b	e8 00 00 00 00	 call	 ??0__GC1TO1TENDER@CGuildCombat1to1Mng@@QAE@ABU01@@Z

; 1845 :         ++_Last;

  00050	83 c6 2c	 add	 esi, 44			; 0000002cH

; 1919 : #endif // ^^^ No checking ^^^
; 1920 : 
; 1921 :     constexpr bool _Can_memmove =
; 1922 :         conjunction_v<bool_constant<_Iter_copy_cat<decltype(_UFirst), _Ptrval>::_Bitcopy_constructible>,
; 1923 :             _Uses_default_construct<_Alloc, _Ptrval, decltype(*_UFirst)>>;
; 1924 : 
; 1925 :     if constexpr (_Can_memmove) {
; 1926 : #if _HAS_CXX20
; 1927 :         if (!_STD is_constant_evaluated())
; 1928 : #endif // _HAS_CXX20
; 1929 :         {
; 1930 :             _STD _Copy_memmove_n(_UFirst, _Count, _STD _Unfancy(_Dest));
; 1931 :             _Dest += _Count;
; 1932 :             return _Dest;
; 1933 :         }
; 1934 :     }
; 1935 : 
; 1936 :     _Uninitialized_backout_al<_Alloc> _Backout{_Dest, _Al};
; 1937 :     for (; _Count != 0; ++_UFirst, (void) --_Count) {

  00053	83 c7 2c	 add	 edi, 44			; 0000002cH

; 1845 :         ++_Last;

  00056	89 75 ec	 mov	 DWORD PTR __Backout$[ebp+4], esi

; 1919 : #endif // ^^^ No checking ^^^
; 1920 : 
; 1921 :     constexpr bool _Can_memmove =
; 1922 :         conjunction_v<bool_constant<_Iter_copy_cat<decltype(_UFirst), _Ptrval>::_Bitcopy_constructible>,
; 1923 :             _Uses_default_construct<_Alloc, _Ptrval, decltype(*_UFirst)>>;
; 1924 : 
; 1925 :     if constexpr (_Can_memmove) {
; 1926 : #if _HAS_CXX20
; 1927 :         if (!_STD is_constant_evaluated())
; 1928 : #endif // _HAS_CXX20
; 1929 :         {
; 1930 :             _STD _Copy_memmove_n(_UFirst, _Count, _STD _Unfancy(_Dest));
; 1931 :             _Dest += _Count;
; 1932 :             return _Dest;
; 1933 :         }
; 1934 :     }
; 1935 : 
; 1936 :     _Uninitialized_backout_al<_Alloc> _Backout{_Dest, _Al};
; 1937 :     for (; _Count != 0; ++_UFirst, (void) --_Count) {

  00059	83 eb 01	 sub	 ebx, 1
  0005c	75 ea		 jne	 SHORT $LL4@Uninitiali
$LN46@Uninitiali:

; 1938 :         _Backout._Emplace_back(*_UFirst);
; 1939 :     }
; 1940 : 
; 1941 :     return _Backout._Release();
; 1942 : }

  0005e	8b c6		 mov	 eax, esi
  00060	8b 4d f4	 mov	 ecx, DWORD PTR __$EHRec$[ebp]
  00063	64 89 0d 00 00
	00 00		 mov	 DWORD PTR fs:0, ecx
  0006a	59		 pop	 ecx
  0006b	5f		 pop	 edi
  0006c	5e		 pop	 esi
  0006d	5b		 pop	 ebx
  0006e	8b e5		 mov	 esp, ebp
  00070	5d		 pop	 ebp
  00071	c3		 ret	 0
_TEXT	ENDS
;	COMDAT text$x
text$x	SEGMENT
__unwindfunclet$??$_Uninitialized_copy_n@PAU__GC1TO1TENDER@CGuildCombat1to1Mng@@V?$allocator@U__GC1TO1TENDER@CGuildCombat1to1Mng@@@std@@@std@@YAPAU__GC1TO1TENDER@CGuildCombat1to1Mng@@PAU12@I0AAV?$allocator@U__GC1TO1TENDER@CGuildCombat1to1Mng@@@0@@Z$0:
  00000	8d 4d e8	 lea	 ecx, DWORD PTR __Backout$[ebp]
  00003	e9 00 00 00 00	 jmp	 ??1?$_Uninitialized_backout_al@V?$allocator@U__GC1TO1TENDER@CGuildCombat1to1Mng@@@std@@@std@@QAE@XZ ; std::_Uninitialized_backout_al<std::allocator<CGuildCombat1to1Mng::__GC1TO1TENDER> >::~_Uninitialized_backout_al<std::allocator<CGuildCombat1to1Mng::__GC1TO1TENDER> >
  00008	cc		 int	 3
  00009	cc		 int	 3
  0000a	cc		 int	 3
  0000b	cc		 int	 3
  0000c	cc		 int	 3
__ehhandler$??$_Uninitialized_copy_n@PAU__GC1TO1TENDER@CGuildCombat1to1Mng@@V?$allocator@U__GC1TO1TENDER@CGuildCombat1to1Mng@@@std@@@std@@YAPAU__GC1TO1TENDER@CGuildCombat1to1Mng@@PAU12@I0AAV?$allocator@U__GC1TO1TENDER@CGuildCombat1to1Mng@@@0@@Z:
  0000d	90		 npad	 1
  0000e	90		 npad	 1
  0000f	8b 54 24 08	 mov	 edx, DWORD PTR [esp+8]
  00013	8d 42 0c	 lea	 eax, DWORD PTR [edx+12]
  00016	8b 4a e4	 mov	 ecx, DWORD PTR [edx-28]
  00019	33 c8		 xor	 ecx, eax
  0001b	e8 00 00 00 00	 call	 @__security_check_cookie@4
  00020	b8 00 00 00 00	 mov	 eax, OFFSET __ehfuncinfo$??$_Uninitialized_copy_n@PAU__GC1TO1TENDER@CGuildCombat1to1Mng@@V?$allocator@U__GC1TO1TENDER@CGuildCombat1to1Mng@@@std@@@std@@YAPAU__GC1TO1TENDER@CGuildCombat1to1Mng@@PAU12@I0AAV?$allocator@U__GC1TO1TENDER@CGuildCombat1to1Mng@@@0@@Z
  00025	e9 00 00 00 00	 jmp	 ___CxxFrameHandler3
text$x	ENDS
??$_Uninitialized_copy_n@PAU__GC1TO1TENDER@CGuildCombat1to1Mng@@V?$allocator@U__GC1TO1TENDER@CGuildCombat1to1Mng@@@std@@@std@@YAPAU__GC1TO1TENDER@CGuildCombat1to1Mng@@PAU12@I0AAV?$allocator@U__GC1TO1TENDER@CGuildCombat1to1Mng@@@0@@Z ENDP ; std::_Uninitialized_copy_n<CGuildCombat1to1Mng::__GC1TO1TENDER *,std::allocator<CGuildCombat1to1Mng::__GC1TO1TENDER> >
; Function compile flags: /Ogtp
; File C:\Program Files\Microsoft Visual Studio\2022\Professional\VC\Tools\MSVC\14.44.35207\include\vector
; File C:\Program Files\Microsoft Visual Studio\2022\Professional\VC\Tools\MSVC\14.44.35207\include\xmemory
; File C:\Program Files\Microsoft Visual Studio\2022\Professional\VC\Tools\MSVC\14.44.35207\include\vector
; File C:\Program Files\Microsoft Visual Studio\2022\Professional\VC\Tools\MSVC\14.44.35207\include\xmemory
; File C:\Program Files\Microsoft Visual Studio\2022\Professional\VC\Tools\MSVC\14.44.35207\include\vector
; File C:\Program Files\Microsoft Visual Studio\2022\Professional\VC\Tools\MSVC\14.44.35207\include\xmemory
; File C:\Program Files\Microsoft Visual Studio\2022\Professional\VC\Tools\MSVC\14.44.35207\include\vector
; File C:\Program Files\Microsoft Visual Studio\2022\Professional\VC\Tools\MSVC\14.44.35207\include\xutility
; File C:\Program Files\Microsoft Visual Studio\2022\Professional\VC\Tools\MSVC\14.44.35207\include\vector
; File C:\Program Files\Microsoft Visual Studio\2022\Professional\VC\Tools\MSVC\14.44.35207\include\xutility
; File C:\Program Files\Microsoft Visual Studio\2022\Professional\VC\Tools\MSVC\14.44.35207\include\vector
; File C:\Program Files\Microsoft Visual Studio\2022\Professional\VC\Tools\MSVC\14.44.35207\include\xmemory
; File C:\Program Files\Microsoft Visual Studio\2022\Professional\VC\Tools\MSVC\14.44.35207\include\vector
; File C:\Program Files\Microsoft Visual Studio\2022\Professional\VC\Tools\MSVC\14.44.35207\include\xmemory
; File C:\Program Files\Microsoft Visual Studio\2022\Professional\VC\Tools\MSVC\14.44.35207\include\vector
;	COMDAT ??$_Assign_counted_range@PAU__GC1TO1TENDER@CGuildCombat1to1Mng@@@?$vector@U__GC1TO1TENDER@CGuildCombat1to1Mng@@V?$allocator@U__GC1TO1TENDER@CGuildCombat1to1Mng@@@std@@@std@@AAEXPAU__GC1TO1TENDER@CGuildCombat1to1Mng@@I@Z
_TEXT	SEGMENT
__Backout$2 = -32					; size = 12
__Oldsize$1$ = -20					; size = 4
__Oldcapacity$1$ = -20					; size = 4
_this$1$ = -16						; size = 4
$T3 = -16						; size = 4
__$EHRec$ = -12						; size = 12
__First$ = 8						; size = 4
__Newsize$ = 12						; size = 4
__Newlast$1$ = 12					; size = 4
??$_Assign_counted_range@PAU__GC1TO1TENDER@CGuildCombat1to1Mng@@@?$vector@U__GC1TO1TENDER@CGuildCombat1to1Mng@@V?$allocator@U__GC1TO1TENDER@CGuildCombat1to1Mng@@@std@@@std@@AAEXPAU__GC1TO1TENDER@CGuildCombat1to1Mng@@I@Z PROC ; std::vector<CGuildCombat1to1Mng::__GC1TO1TENDER,std::allocator<CGuildCombat1to1Mng::__GC1TO1TENDER> >::_Assign_counted_range<CGuildCombat1to1Mng::__GC1TO1TENDER *>, COMDAT
; _this$ = ecx

; 1420 :     _CONSTEXPR20 void _Assign_counted_range(_Iter _First, const size_type _Newsize) {

  00000	55		 push	 ebp
  00001	8b ec		 mov	 ebp, esp
  00003	6a ff		 push	 -1
  00005	68 00 00 00 00	 push	 __ehhandler$??$_Assign_counted_range@PAU__GC1TO1TENDER@CGuildCombat1to1Mng@@@?$vector@U__GC1TO1TENDER@CGuildCombat1to1Mng@@V?$allocator@U__GC1TO1TENDER@CGuildCombat1to1Mng@@@std@@@std@@AAEXPAU__GC1TO1TENDER@CGuildCombat1to1Mng@@I@Z
  0000a	64 a1 00 00 00
	00		 mov	 eax, DWORD PTR fs:0
  00010	50		 push	 eax
  00011	83 ec 14	 sub	 esp, 20			; 00000014H
  00014	53		 push	 ebx
  00015	56		 push	 esi
  00016	57		 push	 edi
  00017	a1 00 00 00 00	 mov	 eax, DWORD PTR ___security_cookie
  0001c	33 c5		 xor	 eax, ebp
  0001e	50		 push	 eax
  0001f	8d 45 f4	 lea	 eax, DWORD PTR __$EHRec$[ebp]
  00022	64 a3 00 00 00
	00		 mov	 DWORD PTR fs:0, eax
  00028	8b d9		 mov	 ebx, ecx
  0002a	89 5d f0	 mov	 DWORD PTR _this$1$[ebp], ebx

; 1421 :         // assign elements from counted range _First + [0, _Newsize)
; 1422 :         auto& _Al         = _Getal();
; 1423 :         auto& _My_data    = _Mypair._Myval2;
; 1424 :         pointer& _Myfirst = _My_data._Myfirst;
; 1425 :         pointer& _Mylast  = _My_data._Mylast;
; 1426 :         pointer& _Myend   = _My_data._Myend;
; 1427 : 
; 1428 :         constexpr bool _Nothrow_construct = conjunction_v<is_nothrow_constructible<_Ty, _Iter_ref_t<_Iter>>,
; 1429 :             _Uses_default_construct<_Alloc, _Ty*, _Iter_ref_t<_Iter>>>;
; 1430 : 
; 1431 :         _My_data._Orphan_all();
; 1432 :         const auto _Oldcapacity = static_cast<size_type>(_Myend - _Myfirst);

  0002d	8b 53 08	 mov	 edx, DWORD PTR [ebx+8]
  00030	b8 e9 a2 8b 2e	 mov	 eax, 780903145		; 2e8ba2e9H
  00035	8b 33		 mov	 esi, DWORD PTR [ebx]
  00037	2b d6		 sub	 edx, esi

; 1433 :         if (_Newsize > _Oldcapacity) {

  00039	8b 7d 0c	 mov	 edi, DWORD PTR __Newsize$[ebp]
  0003c	f7 ea		 imul	 edx
  0003e	c1 fa 03	 sar	 edx, 3
  00041	8b c2		 mov	 eax, edx
  00043	c1 e8 1f	 shr	 eax, 31			; 0000001fH
  00046	03 c2		 add	 eax, edx
  00048	89 45 ec	 mov	 DWORD PTR __Oldcapacity$1$[ebp], eax
  0004b	3b f8		 cmp	 edi, eax
  0004d	0f 86 a4 00 00
	00		 jbe	 $LN5@Assign_cou

; 1703 :         if (_Newsize > max_size()) {

  00053	81 ff 5d 74 d1
	05		 cmp	 edi, 97612893		; 05d1745dH
  00059	0f 87 ee 01 00
	00		 ja	 $LN136@Assign_cou

; 2011 :         if (_Oldcapacity > _Max - _Oldcapacity / 2) {

  0005f	8b 55 ec	 mov	 edx, DWORD PTR __Oldcapacity$1$[ebp]
  00062	8b c8		 mov	 ecx, eax
  00064	d1 e9		 shr	 ecx, 1
  00066	b8 5d 74 d1 05	 mov	 eax, 97612893		; 05d1745dH
  0006b	2b c1		 sub	 eax, ecx
  0006d	3b d0		 cmp	 edx, eax
  0006f	76 09		 jbe	 SHORT $LN15@Assign_cou

; 2012 :             return _Max; // geometric growth would overflow

  00071	c7 45 f0 5d 74
	d1 05		 mov	 DWORD PTR $T3[ebp], 97612893 ; 05d1745dH
  00078	eb 0b		 jmp	 SHORT $LN16@Assign_cou
$LN15@Assign_cou:

; 2013 :         }
; 2014 : 
; 2015 :         const size_type _Geometric = _Oldcapacity + _Oldcapacity / 2;

  0007a	8d 04 11	 lea	 eax, DWORD PTR [ecx+edx]

; 2016 : 
; 2017 :         if (_Geometric < _Newsize) {

  0007d	3b c7		 cmp	 eax, edi
  0007f	0f 42 c7	 cmovb	 eax, edi
  00082	89 45 f0	 mov	 DWORD PTR $T3[ebp], eax
$LN16@Assign_cou:

; 1709 :         if (_Myfirst) { // destroy and deallocate old array

  00085	85 f6		 test	 esi, esi
  00087	74 50		 je	 SHORT $LN12@Assign_cou

; 1710 :             _Destroy_range(_Myfirst, _Mylast, _Al);

  00089	8b 43 04	 mov	 eax, DWORD PTR [ebx+4]
; File C:\Program Files\Microsoft Visual Studio\2022\Professional\VC\Tools\MSVC\14.44.35207\include\xmemory

; 1102 :         for (; _First != _Last; ++_First) {

  0008c	3b f0		 cmp	 esi, eax
  0008e	74 14		 je	 SHORT $LN23@Assign_cou
  00090	8b f8		 mov	 edi, eax
$LL24@Assign_cou:
; File C:\Program Files\Microsoft Visual Studio\2022\Professional\VC\Tools\MSVC\14.44.35207\include\vector

; 830  :         _Tidy();

  00092	8d 4e 20	 lea	 ecx, DWORD PTR [esi+32]
  00095	e8 00 00 00 00	 call	 ?_Tidy@?$vector@KV?$allocator@K@std@@@std@@AAEXXZ ; std::vector<unsigned long,std::allocator<unsigned long> >::_Tidy
; File C:\Program Files\Microsoft Visual Studio\2022\Professional\VC\Tools\MSVC\14.44.35207\include\xmemory

; 1102 :         for (; _First != _Last; ++_First) {

  0009a	83 c6 2c	 add	 esi, 44			; 0000002cH
  0009d	3b f7		 cmp	 esi, edi
  0009f	75 f1		 jne	 SHORT $LL24@Assign_cou
  000a1	8b 7d 0c	 mov	 edi, DWORD PTR __Newsize$[ebp]
$LN23@Assign_cou:
; File C:\Program Files\Microsoft Visual Studio\2022\Professional\VC\Tools\MSVC\14.44.35207\include\vector

; 1712 :             _Al.deallocate(_Myfirst, static_cast<size_type>(_Myend - _Myfirst));

  000a4	8b 33		 mov	 esi, DWORD PTR [ebx]
  000a6	b8 e9 a2 8b 2e	 mov	 eax, 780903145		; 2e8ba2e9H
  000ab	8b 4b 08	 mov	 ecx, DWORD PTR [ebx+8]
  000ae	2b ce		 sub	 ecx, esi
  000b0	f7 e9		 imul	 ecx
  000b2	8b cb		 mov	 ecx, ebx
  000b4	c1 fa 03	 sar	 edx, 3
  000b7	8b c2		 mov	 eax, edx
  000b9	c1 e8 1f	 shr	 eax, 31			; 0000001fH
  000bc	03 c2		 add	 eax, edx
  000be	50		 push	 eax
  000bf	56		 push	 esi
  000c0	e8 00 00 00 00	 call	 ?deallocate@?$allocator@U__GC1TO1TENDER@CGuildCombat1to1Mng@@@std@@QAEXQAU__GC1TO1TENDER@CGuildCombat1to1Mng@@I@Z ; std::allocator<CGuildCombat1to1Mng::__GC1TO1TENDER>::deallocate

; 1713 : 
; 1714 :             _Myfirst = nullptr;

  000c5	c7 03 00 00 00
	00		 mov	 DWORD PTR [ebx], 0

; 1715 :             _Mylast  = nullptr;

  000cb	c7 43 04 00 00
	00 00		 mov	 DWORD PTR [ebx+4], 0

; 1716 :             _Myend   = nullptr;

  000d2	c7 43 08 00 00
	00 00		 mov	 DWORD PTR [ebx+8], 0
$LN12@Assign_cou:

; 1717 :         }
; 1718 : 
; 1719 :         _Buy_raw(_Newcapacity);

  000d9	ff 75 f0	 push	 DWORD PTR $T3[ebp]
  000dc	8b cb		 mov	 ecx, ebx
  000de	e8 00 00 00 00	 call	 ?_Buy_raw@?$vector@U__GC1TO1TENDER@CGuildCombat1to1Mng@@V?$allocator@U__GC1TO1TENDER@CGuildCombat1to1Mng@@@std@@@std@@AAEXI@Z ; std::vector<CGuildCombat1to1Mng::__GC1TO1TENDER,std::allocator<CGuildCombat1to1Mng::__GC1TO1TENDER> >::_Buy_raw

; 1434 :             _Clear_and_reserve_geometric(_Newsize);
; 1435 :             if constexpr (_Nothrow_construct) {
; 1436 :                 _Mylast = _STD _Uninitialized_copy_n(_STD move(_First), _Newsize, _Myfirst, _Al);
; 1437 :                 _ASAN_VECTOR_CREATE;
; 1438 :             } else {
; 1439 :                 _ASAN_VECTOR_CREATE_GUARD;
; 1440 :                 _Mylast = _STD _Uninitialized_copy_n(_STD move(_First), _Newsize, _Myfirst, _Al);

  000e3	53		 push	 ebx
  000e4	ff 33		 push	 DWORD PTR [ebx]
  000e6	57		 push	 edi
  000e7	ff 75 08	 push	 DWORD PTR __First$[ebp]
  000ea	e8 00 00 00 00	 call	 ??$_Uninitialized_copy_n@PAU__GC1TO1TENDER@CGuildCombat1to1Mng@@V?$allocator@U__GC1TO1TENDER@CGuildCombat1to1Mng@@@std@@@std@@YAPAU__GC1TO1TENDER@CGuildCombat1to1Mng@@PAU12@I0AAV?$allocator@U__GC1TO1TENDER@CGuildCombat1to1Mng@@@0@@Z ; std::_Uninitialized_copy_n<CGuildCombat1to1Mng::__GC1TO1TENDER *,std::allocator<CGuildCombat1to1Mng::__GC1TO1TENDER> >
  000ef	83 c4 10	 add	 esp, 16			; 00000010H

; 1441 :             }
; 1442 :             return;

  000f2	e9 3f 01 00 00	 jmp	 $LN90@Assign_cou
$LN5@Assign_cou:

; 1443 :         }
; 1444 : 
; 1445 :         const auto _Oldsize = static_cast<size_type>(_Mylast - _Myfirst);

  000f7	8b 5b 04	 mov	 ebx, DWORD PTR [ebx+4]
  000fa	b8 e9 a2 8b 2e	 mov	 eax, 780903145		; 2e8ba2e9H
  000ff	8b cb		 mov	 ecx, ebx
  00101	2b ce		 sub	 ecx, esi
  00103	f7 e9		 imul	 ecx
  00105	c1 fa 03	 sar	 edx, 3
  00108	8b c2		 mov	 eax, edx
  0010a	c1 e8 1f	 shr	 eax, 31			; 0000001fH
  0010d	03 c2		 add	 eax, edx
  0010f	89 45 ec	 mov	 DWORD PTR __Oldsize$1$[ebp], eax

; 1446 :         if (_Newsize > _Oldsize) {

  00112	3b f8		 cmp	 edi, eax
  00114	0f 86 9e 00 00
	00		 jbe	 $LN6@Assign_cou

; 1447 :             bool _Copied = false;
; 1448 :             if constexpr (_Iter_copy_cat<_Iter, pointer>::_Bitcopy_assignable) {
; 1449 : #if _HAS_CXX20
; 1450 :                 if (!_STD is_constant_evaluated())
; 1451 : #endif // _HAS_CXX20
; 1452 :                 {
; 1453 :                     _Copy_memmove_n(_First, static_cast<size_t>(_Oldsize), _Myfirst);
; 1454 :                     _First += _Oldsize;
; 1455 :                     _Copied = true;
; 1456 :                 }
; 1457 :             }
; 1458 : 
; 1459 :             if (!_Copied) {
; 1460 :                 for (auto _Mid = _Myfirst; _Mid != _Mylast; ++_Mid, (void) ++_First) {

  0011a	8b 7d 08	 mov	 edi, DWORD PTR __First$[ebp]
  0011d	3b f3		 cmp	 esi, ebx
  0011f	74 4c		 je	 SHORT $LN132@Assign_cou
$LL4@Assign_cou:
  00121	8b 07		 mov	 eax, DWORD PTR [edi]
  00123	8d 4e 20	 lea	 ecx, DWORD PTR [esi+32]
  00126	89 06		 mov	 DWORD PTR [esi], eax
  00128	8b 47 04	 mov	 eax, DWORD PTR [edi+4]
  0012b	89 46 04	 mov	 DWORD PTR [esi+4], eax
  0012e	8b 47 08	 mov	 eax, DWORD PTR [edi+8]
  00131	89 46 08	 mov	 DWORD PTR [esi+8], eax
  00134	8b 47 0c	 mov	 eax, DWORD PTR [edi+12]
  00137	89 46 0c	 mov	 DWORD PTR [esi+12], eax
  0013a	8b 47 10	 mov	 eax, DWORD PTR [edi+16]
  0013d	89 46 10	 mov	 DWORD PTR [esi+16], eax
  00140	8b 47 14	 mov	 eax, DWORD PTR [edi+20]
  00143	89 46 14	 mov	 DWORD PTR [esi+20], eax
  00146	8b 47 18	 mov	 eax, DWORD PTR [edi+24]
  00149	89 46 18	 mov	 DWORD PTR [esi+24], eax
  0014c	8b 47 1c	 mov	 eax, DWORD PTR [edi+28]
  0014f	89 46 1c	 mov	 DWORD PTR [esi+28], eax
  00152	8d 47 20	 lea	 eax, DWORD PTR [edi+32]
  00155	50		 push	 eax
  00156	e8 00 00 00 00	 call	 ??4?$vector@KV?$allocator@K@std@@@std@@QAEAAV01@ABV01@@Z ; std::vector<unsigned long,std::allocator<unsigned long> >::operator=
  0015b	8b 45 f0	 mov	 eax, DWORD PTR _this$1$[ebp]
  0015e	83 c6 2c	 add	 esi, 44			; 0000002cH
  00161	83 c7 2c	 add	 edi, 44			; 0000002cH
  00164	8b 58 04	 mov	 ebx, DWORD PTR [eax+4]
  00167	3b f3		 cmp	 esi, ebx
  00169	75 b6		 jne	 SHORT $LL4@Assign_cou
  0016b	eb 03		 jmp	 SHORT $LN3@Assign_cou
$LN132@Assign_cou:
  0016d	8b 45 f0	 mov	 eax, DWORD PTR _this$1$[ebp]
$LN3@Assign_cou:

; 1470 :                 _Mylast = _STD _Uninitialized_copy_n(_STD move(_First), _Newsize - _Oldsize, _Mylast, _Al);

  00170	8b 75 0c	 mov	 esi, DWORD PTR __Newsize$[ebp]
  00173	2b 75 ec	 sub	 esi, DWORD PTR __Oldsize$1$[ebp]
; File C:\Program Files\Microsoft Visual Studio\2022\Professional\VC\Tools\MSVC\14.44.35207\include\xmemory

; 1833 :     _CONSTEXPR20 _Uninitialized_backout_al(pointer _Dest, _Alloc& _Al_) : _First(_Dest), _Last(_Dest), _Al(_Al_) {}

  00176	89 5d e0	 mov	 DWORD PTR __Backout$2[ebp], ebx
  00179	89 5d e4	 mov	 DWORD PTR __Backout$2[ebp+4], ebx
  0017c	89 45 e8	 mov	 DWORD PTR __Backout$2[ebp+8], eax

; 1936 :     _Uninitialized_backout_al<_Alloc> _Backout{_Dest, _Al};

  0017f	c7 45 fc 00 00
	00 00		 mov	 DWORD PTR __$EHRec$[ebp+8], 0

; 1937 :     for (; _Count != 0; ++_UFirst, (void) --_Count) {

  00186	74 19		 je	 SHORT $LN46@Assign_cou
$LL47@Assign_cou:

; 732  :         ::new (const_cast<void*>(static_cast<const volatile void*>(_Ptr))) _Objty(_STD forward<_Types>(_Args)...);

  00188	57		 push	 edi
  00189	8b cb		 mov	 ecx, ebx
  0018b	e8 00 00 00 00	 call	 ??0__GC1TO1TENDER@CGuildCombat1to1Mng@@QAE@ABU01@@Z

; 1845 :         ++_Last;

  00190	83 c3 2c	 add	 ebx, 44			; 0000002cH

; 1937 :     for (; _Count != 0; ++_UFirst, (void) --_Count) {

  00193	83 c7 2c	 add	 edi, 44			; 0000002cH

; 1845 :         ++_Last;

  00196	89 5d e4	 mov	 DWORD PTR __Backout$2[ebp+4], ebx

; 1937 :     for (; _Count != 0; ++_UFirst, (void) --_Count) {

  00199	83 ee 01	 sub	 esi, 1
  0019c	75 ea		 jne	 SHORT $LL47@Assign_cou
  0019e	8b 45 f0	 mov	 eax, DWORD PTR _this$1$[ebp]
$LN46@Assign_cou:
; File C:\Program Files\Microsoft Visual Studio\2022\Professional\VC\Tools\MSVC\14.44.35207\include\vector

; 1470 :                 _Mylast = _STD _Uninitialized_copy_n(_STD move(_First), _Newsize - _Oldsize, _Mylast, _Al);

  001a1	89 58 04	 mov	 DWORD PTR [eax+4], ebx

; 1480 :     }

  001a4	8b 4d f4	 mov	 ecx, DWORD PTR __$EHRec$[ebp]
  001a7	64 89 0d 00 00
	00 00		 mov	 DWORD PTR fs:0, ecx
  001ae	59		 pop	 ecx
  001af	5f		 pop	 edi
  001b0	5e		 pop	 esi
  001b1	5b		 pop	 ebx
  001b2	8b e5		 mov	 esp, ebp
  001b4	5d		 pop	 ebp
  001b5	c2 08 00	 ret	 8
$LN6@Assign_cou:

; 1474 :             const pointer _Newlast = _Myfirst + _Newsize;

  001b8	6b c7 2c	 imul	 eax, edi, 44
  001bb	03 c6		 add	 eax, esi
  001bd	89 45 0c	 mov	 DWORD PTR __Newlast$1$[ebp], eax
; File C:\Program Files\Microsoft Visual Studio\2022\Professional\VC\Tools\MSVC\14.44.35207\include\xutility

; 4812 :     for (; _Count != 0; ++_Dest, (void) ++_First, --_Count) {

  001c0	85 ff		 test	 edi, edi
  001c2	74 54		 je	 SHORT $LN83@Assign_cou
; File C:\Program Files\Microsoft Visual Studio\2022\Professional\VC\Tools\MSVC\14.44.35207\include\vector

; 1474 :             const pointer _Newlast = _Myfirst + _Newsize;

  001c4	8b 5d 08	 mov	 ebx, DWORD PTR __First$[ebp]
  001c7	83 c3 08	 add	 ebx, 8
  001ca	66 0f 1f 44 00
	00		 npad	 6
$LL84@Assign_cou:
  001d0	8b 43 f8	 mov	 eax, DWORD PTR [ebx-8]
  001d3	8d 4e 20	 lea	 ecx, DWORD PTR [esi+32]
  001d6	89 06		 mov	 DWORD PTR [esi], eax
  001d8	8b 43 fc	 mov	 eax, DWORD PTR [ebx-4]
  001db	89 46 04	 mov	 DWORD PTR [esi+4], eax
  001de	8b 03		 mov	 eax, DWORD PTR [ebx]
  001e0	89 46 08	 mov	 DWORD PTR [esi+8], eax
  001e3	8b 43 04	 mov	 eax, DWORD PTR [ebx+4]
  001e6	89 46 0c	 mov	 DWORD PTR [esi+12], eax
  001e9	8b 43 08	 mov	 eax, DWORD PTR [ebx+8]
  001ec	89 46 10	 mov	 DWORD PTR [esi+16], eax
  001ef	8b 43 0c	 mov	 eax, DWORD PTR [ebx+12]
  001f2	89 46 14	 mov	 DWORD PTR [esi+20], eax
  001f5	8b 43 10	 mov	 eax, DWORD PTR [ebx+16]
  001f8	89 46 18	 mov	 DWORD PTR [esi+24], eax
  001fb	8b 43 14	 mov	 eax, DWORD PTR [ebx+20]
  001fe	89 46 1c	 mov	 DWORD PTR [esi+28], eax
  00201	8d 43 18	 lea	 eax, DWORD PTR [ebx+24]
  00204	50		 push	 eax
  00205	e8 00 00 00 00	 call	 ??4?$vector@KV?$allocator@K@std@@@std@@QAEAAV01@ABV01@@Z ; std::vector<unsigned long,std::allocator<unsigned long> >::operator=
; File C:\Program Files\Microsoft Visual Studio\2022\Professional\VC\Tools\MSVC\14.44.35207\include\xutility

; 4812 :     for (; _Count != 0; ++_Dest, (void) ++_First, --_Count) {

  0020a	8d 76 2c	 lea	 esi, DWORD PTR [esi+44]
  0020d	8d 5b 2c	 lea	 ebx, DWORD PTR [ebx+44]
  00210	83 ef 01	 sub	 edi, 1
  00213	75 bb		 jne	 SHORT $LL84@Assign_cou
  00215	8b 45 0c	 mov	 eax, DWORD PTR __Newlast$1$[ebp]
$LN83@Assign_cou:
; File C:\Program Files\Microsoft Visual Studio\2022\Professional\VC\Tools\MSVC\14.44.35207\include\vector

; 1476 :             _STD _Destroy_range(_Newlast, _Mylast, _Al);

  00218	8b 5d f0	 mov	 ebx, DWORD PTR _this$1$[ebp]
  0021b	8b f0		 mov	 esi, eax
  0021d	8b 7b 04	 mov	 edi, DWORD PTR [ebx+4]
; File C:\Program Files\Microsoft Visual Studio\2022\Professional\VC\Tools\MSVC\14.44.35207\include\xmemory

; 1102 :         for (; _First != _Last; ++_First) {

  00220	3b c7		 cmp	 eax, edi
  00222	74 12		 je	 SHORT $LN90@Assign_cou
$LL91@Assign_cou:
; File C:\Program Files\Microsoft Visual Studio\2022\Professional\VC\Tools\MSVC\14.44.35207\include\vector

; 830  :         _Tidy();

  00224	8d 4e 20	 lea	 ecx, DWORD PTR [esi+32]
  00227	e8 00 00 00 00	 call	 ?_Tidy@?$vector@KV?$allocator@K@std@@@std@@AAEXXZ ; std::vector<unsigned long,std::allocator<unsigned long> >::_Tidy
; File C:\Program Files\Microsoft Visual Studio\2022\Professional\VC\Tools\MSVC\14.44.35207\include\xmemory

; 1102 :         for (; _First != _Last; ++_First) {

  0022c	83 c6 2c	 add	 esi, 44			; 0000002cH
  0022f	3b f7		 cmp	 esi, edi
  00231	75 f1		 jne	 SHORT $LL91@Assign_cou
  00233	8b 45 0c	 mov	 eax, DWORD PTR __Newlast$1$[ebp]
$LN90@Assign_cou:
; File C:\Program Files\Microsoft Visual Studio\2022\Professional\VC\Tools\MSVC\14.44.35207\include\vector

; 1480 :     }

  00236	89 43 04	 mov	 DWORD PTR [ebx+4], eax
  00239	8b 4d f4	 mov	 ecx, DWORD PTR __$EHRec$[ebp]
  0023c	64 89 0d 00 00
	00 00		 mov	 DWORD PTR fs:0, ecx
  00243	59		 pop	 ecx
  00244	5f		 pop	 edi
  00245	5e		 pop	 esi
  00246	5b		 pop	 ebx
  00247	8b e5		 mov	 esp, ebp
  00249	5d		 pop	 ebp
  0024a	c2 08 00	 ret	 8
$LN136@Assign_cou:

; 1704 :             _Xlength();

  0024d	e8 00 00 00 00	 call	 ?_Xlength@?$vector@U__GC1TO1TENDER@CGuildCombat1to1Mng@@V?$allocator@U__GC1TO1TENDER@CGuildCombat1to1Mng@@@std@@@std@@CAXXZ ; std::vector<CGuildCombat1to1Mng::__GC1TO1TENDER,std::allocator<CGuildCombat1to1Mng::__GC1TO1TENDER> >::_Xlength
$LN134@Assign_cou:
  00252	cc		 int	 3
_TEXT	ENDS
;	COMDAT text$x
text$x	SEGMENT
__unwindfunclet$??$_Assign_counted_range@PAU__GC1TO1TENDER@CGuildCombat1to1Mng@@@?$vector@U__GC1TO1TENDER@CGuildCombat1to1Mng@@V?$allocator@U__GC1TO1TENDER@CGuildCombat1to1Mng@@@std@@@std@@AAEXPAU__GC1TO1TENDER@CGuildCombat1to1Mng@@I@Z$1:
  00000	8d 4d e0	 lea	 ecx, DWORD PTR __Backout$2[ebp]
  00003	e9 00 00 00 00	 jmp	 ??1?$_Uninitialized_backout_al@V?$allocator@U__GC1TO1TENDER@CGuildCombat1to1Mng@@@std@@@std@@QAE@XZ ; std::_Uninitialized_backout_al<std::allocator<CGuildCombat1to1Mng::__GC1TO1TENDER> >::~_Uninitialized_backout_al<std::allocator<CGuildCombat1to1Mng::__GC1TO1TENDER> >
  00008	cc		 int	 3
  00009	cc		 int	 3
  0000a	cc		 int	 3
  0000b	cc		 int	 3
  0000c	cc		 int	 3
__ehhandler$??$_Assign_counted_range@PAU__GC1TO1TENDER@CGuildCombat1to1Mng@@@?$vector@U__GC1TO1TENDER@CGuildCombat1to1Mng@@V?$allocator@U__GC1TO1TENDER@CGuildCombat1to1Mng@@@std@@@std@@AAEXPAU__GC1TO1TENDER@CGuildCombat1to1Mng@@I@Z:
  0000d	90		 npad	 1
  0000e	90		 npad	 1
  0000f	8b 54 24 08	 mov	 edx, DWORD PTR [esp+8]
  00013	8d 42 0c	 lea	 eax, DWORD PTR [edx+12]
  00016	8b 4a dc	 mov	 ecx, DWORD PTR [edx-36]
  00019	33 c8		 xor	 ecx, eax
  0001b	e8 00 00 00 00	 call	 @__security_check_cookie@4
  00020	b8 00 00 00 00	 mov	 eax, OFFSET __ehfuncinfo$??$_Assign_counted_range@PAU__GC1TO1TENDER@CGuildCombat1to1Mng@@@?$vector@U__GC1TO1TENDER@CGuildCombat1to1Mng@@V?$allocator@U__GC1TO1TENDER@CGuildCombat1to1Mng@@@std@@@std@@AAEXPAU__GC1TO1TENDER@CGuildCombat1to1Mng@@I@Z
  00025	e9 00 00 00 00	 jmp	 ___CxxFrameHandler3
text$x	ENDS
??$_Assign_counted_range@PAU__GC1TO1TENDER@CGuildCombat1to1Mng@@@?$vector@U__GC1TO1TENDER@CGuildCombat1to1Mng@@V?$allocator@U__GC1TO1TENDER@CGuildCombat1to1Mng@@@std@@@std@@AAEXPAU__GC1TO1TENDER@CGuildCombat1to1Mng@@I@Z ENDP ; std::vector<CGuildCombat1to1Mng::__GC1TO1TENDER,std::allocator<CGuildCombat1to1Mng::__GC1TO1TENDER> >::_Assign_counted_range<CGuildCombat1to1Mng::__GC1TO1TENDER *>
; Function compile flags: /Ogtp
;	COMDAT ??1?$multimap@HHU?$less@H@std@@V?$allocator@U?$pair@$$CBHH@std@@@2@@std@@QAE@XZ
_TEXT	SEGMENT
??1?$multimap@HHU?$less@H@std@@V?$allocator@U?$pair@$$CBHH@std@@@2@@std@@QAE@XZ PROC ; std::multimap<int,int,std::less<int>,std::allocator<std::pair<int const ,int> > >::~multimap<int,int,std::less<int>,std::allocator<std::pair<int const ,int> > >, COMDAT
; _this$ = ecx
  00000	e9 00 00 00 00	 jmp	 ??1?$_Tree@V?$_Tmap_traits@HHU?$less@H@std@@V?$allocator@U?$pair@$$CBHH@std@@@2@$00@std@@@std@@QAE@XZ ; std::_Tree<std::_Tmap_traits<int,int,std::less<int>,std::allocator<std::pair<int const ,int> >,1> >::~_Tree<std::_Tmap_traits<int,int,std::less<int>,std::allocator<std::pair<int const ,int> >,1> >
??1?$multimap@HHU?$less@H@std@@V?$allocator@U?$pair@$$CBHH@std@@@2@@std@@QAE@XZ ENDP ; std::multimap<int,int,std::less<int>,std::allocator<std::pair<int const ,int> > >::~multimap<int,int,std::less<int>,std::allocator<std::pair<int const ,int> > >
_TEXT	ENDS
; Function compile flags: /Ogtp
; File C:\Program Files\Microsoft Visual Studio\2022\Professional\VC\Tools\MSVC\14.44.35207\include\xtree
; File C:\Program Files\Microsoft Visual Studio\2022\Professional\VC\Tools\MSVC\14.44.35207\include\utility
; File C:\Program Files\Microsoft Visual Studio\2022\Professional\VC\Tools\MSVC\14.44.35207\include\xmemory
; File C:\Program Files\Microsoft Visual Studio\2022\Professional\VC\Tools\MSVC\14.44.35207\include\xtree
; File C:\Program Files\Microsoft Visual Studio\2022\Professional\VC\Tools\MSVC\14.44.35207\include\xmemory
; File C:\Program Files\Microsoft Visual Studio\2022\Professional\VC\Tools\MSVC\14.44.35207\include\xtree
;	COMDAT ??1?$_Tree@V?$_Tmap_traits@HHU?$less@H@std@@V?$allocator@U?$pair@$$CBHH@std@@@2@$00@std@@@std@@QAE@XZ
_TEXT	SEGMENT
??1?$_Tree@V?$_Tmap_traits@HHU?$less@H@std@@V?$allocator@U?$pair@$$CBHH@std@@@2@$00@std@@@std@@QAE@XZ PROC ; std::_Tree<std::_Tmap_traits<int,int,std::less<int>,std::allocator<std::pair<int const ,int> >,1> >::~_Tree<std::_Tmap_traits<int,int,std::less<int>,std::allocator<std::pair<int const ,int> >,1> >, COMDAT
; _this$ = ecx

; 1095 :     ~_Tree() noexcept {

  00000	56		 push	 esi
  00001	57		 push	 edi
  00002	8b f9		 mov	 edi, ecx

; 777  :         _Erase_tree(_Al, _Myhead->_Parent);

  00004	8b 37		 mov	 esi, DWORD PTR [edi]
  00006	8b 76 04	 mov	 esi, DWORD PTR [esi+4]

; 768  :         while (!_Rootnode->_Isnil) { // free subtrees, then node

  00009	80 7e 0d 00	 cmp	 BYTE PTR [esi+13], 0
  0000d	75 21		 jne	 SHORT $LN61@Tree
  0000f	90		 npad	 1
$LL8@Tree:

; 769  :             _Erase_tree(_Al, _Rootnode->_Right);

  00010	ff 76 08	 push	 DWORD PTR [esi+8]
  00013	8b cf		 mov	 ecx, edi
  00015	57		 push	 edi
  00016	e8 00 00 00 00	 call	 ??$_Erase_tree@V?$allocator@U?$_Tree_node@U?$pair@$$CBHH@std@@PAX@std@@@std@@@?$_Tree_val@U?$_Tree_simple_types@U?$pair@$$CBHH@std@@@std@@@std@@QAEXAAV?$allocator@U?$_Tree_node@U?$pair@$$CBHH@std@@PAX@std@@@1@PAU?$_Tree_node@U?$pair@$$CBHH@std@@PAX@1@@Z ; std::_Tree_val<std::_Tree_simple_types<std::pair<int const ,int> > >::_Erase_tree<std::allocator<std::_Tree_node<std::pair<int const ,int>,void *> > >
; File C:\Program Files\Microsoft Visual Studio\2022\Professional\VC\Tools\MSVC\14.44.35207\include\utility

; 773  :     _Ty _Old_val = static_cast<_Ty&&>(_Val);

  0001b	8b c6		 mov	 eax, esi

; 774  :     _Val         = static_cast<_Other&&>(_New_val);

  0001d	8b 36		 mov	 esi, DWORD PTR [esi]
; File C:\Program Files\Microsoft Visual Studio\2022\Professional\VC\Tools\MSVC\14.44.35207\include\xmemory

; 289  :         ::operator delete(_Ptr, _Bytes);

  0001f	6a 18		 push	 24			; 00000018H
  00021	50		 push	 eax
  00022	e8 00 00 00 00	 call	 ??3@YAXPAXI@Z		; operator delete
  00027	83 c4 08	 add	 esp, 8
; File C:\Program Files\Microsoft Visual Studio\2022\Professional\VC\Tools\MSVC\14.44.35207\include\xtree

; 768  :         while (!_Rootnode->_Isnil) { // free subtrees, then node

  0002a	80 7e 0d 00	 cmp	 BYTE PTR [esi+13], 0
  0002e	74 e0		 je	 SHORT $LL8@Tree
$LN61@Tree:
; File C:\Program Files\Microsoft Visual Studio\2022\Professional\VC\Tools\MSVC\14.44.35207\include\xmemory

; 289  :         ::operator delete(_Ptr, _Bytes);

  00030	6a 18		 push	 24			; 00000018H
  00032	ff 37		 push	 DWORD PTR [edi]
  00034	e8 00 00 00 00	 call	 ??3@YAXPAXI@Z		; operator delete
  00039	83 c4 08	 add	 esp, 8
  0003c	5f		 pop	 edi
  0003d	5e		 pop	 esi
; File C:\Program Files\Microsoft Visual Studio\2022\Professional\VC\Tools\MSVC\14.44.35207\include\xtree

; 1102 :     }

  0003e	c3		 ret	 0
??1?$_Tree@V?$_Tmap_traits@HHU?$less@H@std@@V?$allocator@U?$pair@$$CBHH@std@@@2@$00@std@@@std@@QAE@XZ ENDP ; std::_Tree<std::_Tmap_traits<int,int,std::less<int>,std::allocator<std::pair<int const ,int> >,1> >::~_Tree<std::_Tmap_traits<int,int,std::less<int>,std::allocator<std::pair<int const ,int> >,1> >
_TEXT	ENDS
; Function compile flags: /Ogtp
; File C:\Program Files\Microsoft Visual Studio\2022\Professional\VC\Tools\MSVC\14.44.35207\include\xmemory
;	COMDAT ??$_Allocate_manually_vector_aligned@U_Default_allocate_traits@std@@@std@@YAPAXI@Z
_TEXT	SEGMENT
__Bytes$ = 8						; size = 4
??$_Allocate_manually_vector_aligned@U_Default_allocate_traits@std@@@std@@YAPAXI@Z PROC ; std::_Allocate_manually_vector_aligned<std::_Default_allocate_traits>, COMDAT

; 182  : __declspec(allocator) void* _Allocate_manually_vector_aligned(const size_t _Bytes) {

  00000	55		 push	 ebp
  00001	8b ec		 mov	 ebp, esp

; 183  :     // allocate _Bytes manually aligned to at least _Big_allocation_alignment
; 184  :     const size_t _Block_size = _Non_user_size + _Bytes;

  00003	8b 45 08	 mov	 eax, DWORD PTR __Bytes$[ebp]
  00006	8d 48 23	 lea	 ecx, DWORD PTR [eax+35]

; 185  :     if (_Block_size <= _Bytes) {

  00009	3b c8		 cmp	 ecx, eax
  0000b	0f 86 00 00 00
	00		 jbe	 ?_Throw_bad_array_new_length@std@@YAXXZ ; std::_Throw_bad_array_new_length

; 136  :         return ::operator new(_Bytes);

  00011	51		 push	 ecx
  00012	e8 00 00 00 00	 call	 ??2@YAPAXI@Z		; operator new

; 186  :         _Throw_bad_array_new_length(); // add overflow
; 187  :     }
; 188  : 
; 189  :     const uintptr_t _Ptr_container = reinterpret_cast<uintptr_t>(_Traits::_Allocate(_Block_size));

  00017	8b c8		 mov	 ecx, eax

; 136  :         return ::operator new(_Bytes);

  00019	83 c4 04	 add	 esp, 4

; 190  :     _STL_VERIFY(_Ptr_container != 0, "invalid argument"); // validate even in release since we're doing p[-1]

  0001c	85 c9		 test	 ecx, ecx
  0001e	74 0b		 je	 SHORT $LN9@Allocate_m

; 191  :     void* const _Ptr = reinterpret_cast<void*>((_Ptr_container + _Non_user_size) & ~(_Big_allocation_alignment - 1));

  00020	8d 41 23	 lea	 eax, DWORD PTR [ecx+35]
  00023	83 e0 e0	 and	 eax, -32		; ffffffe0H

; 192  :     static_cast<uintptr_t*>(_Ptr)[-1] = _Ptr_container;

  00026	89 48 fc	 mov	 DWORD PTR [eax-4], ecx

; 193  : 
; 194  : #ifdef _DEBUG
; 195  :     static_cast<uintptr_t*>(_Ptr)[-2] = _Big_allocation_sentinel;
; 196  : #endif // defined(_DEBUG)
; 197  :     return _Ptr;
; 198  : }

  00029	5d		 pop	 ebp
  0002a	c3		 ret	 0
$LN9@Allocate_m:

; 190  :     _STL_VERIFY(_Ptr_container != 0, "invalid argument"); // validate even in release since we're doing p[-1]

  0002b	6a 00		 push	 0
  0002d	6a 00		 push	 0
  0002f	6a 00		 push	 0
  00031	6a 00		 push	 0
  00033	6a 00		 push	 0
  00035	e8 00 00 00 00	 call	 __invoke_watson
$LN7@Allocate_m:
  0003a	cc		 int	 3
??$_Allocate_manually_vector_aligned@U_Default_allocate_traits@std@@@std@@YAPAXI@Z ENDP ; std::_Allocate_manually_vector_aligned<std::_Default_allocate_traits>
_TEXT	ENDS
; Function compile flags: /Ogtp
; File C:\Program Files\Microsoft Visual Studio\2022\Professional\VC\Tools\MSVC\14.44.35207\include\xtree
; File C:\Program Files\Microsoft Visual Studio\2022\Professional\VC\Tools\MSVC\14.44.35207\include\utility
; File C:\Program Files\Microsoft Visual Studio\2022\Professional\VC\Tools\MSVC\14.44.35207\include\xmemory
; File C:\Program Files\Microsoft Visual Studio\2022\Professional\VC\Tools\MSVC\14.44.35207\include\xtree
;	COMDAT ??$_Erase_tree@V?$allocator@U?$_Tree_node@U?$pair@$$CBHH@std@@PAX@std@@@std@@@?$_Tree_val@U?$_Tree_simple_types@U?$pair@$$CBHH@std@@@std@@@std@@QAEXAAV?$allocator@U?$_Tree_node@U?$pair@$$CBHH@std@@PAX@std@@@1@PAU?$_Tree_node@U?$pair@$$CBHH@std@@PAX@1@@Z
_TEXT	SEGMENT
__Al$ = 8						; size = 4
__Rootnode$ = 12					; size = 4
??$_Erase_tree@V?$allocator@U?$_Tree_node@U?$pair@$$CBHH@std@@PAX@std@@@std@@@?$_Tree_val@U?$_Tree_simple_types@U?$pair@$$CBHH@std@@@std@@@std@@QAEXAAV?$allocator@U?$_Tree_node@U?$pair@$$CBHH@std@@PAX@std@@@1@PAU?$_Tree_node@U?$pair@$$CBHH@std@@PAX@1@@Z PROC ; std::_Tree_val<std::_Tree_simple_types<std::pair<int const ,int> > >::_Erase_tree<std::allocator<std::_Tree_node<std::pair<int const ,int>,void *> > >, COMDAT
; _this$ = ecx

; 767  :     void _Erase_tree(_Alnode& _Al, _Nodeptr _Rootnode) noexcept {

  00000	55		 push	 ebp
  00001	8b ec		 mov	 ebp, esp
  00003	53		 push	 ebx
  00004	56		 push	 esi

; 768  :         while (!_Rootnode->_Isnil) { // free subtrees, then node

  00005	8b 75 0c	 mov	 esi, DWORD PTR __Rootnode$[ebp]
  00008	8b d9		 mov	 ebx, ecx
  0000a	80 7e 0d 00	 cmp	 BYTE PTR [esi+13], 0
  0000e	75 25		 jne	 SHORT $LN34@Erase_tree
  00010	57		 push	 edi
  00011	8b 7d 08	 mov	 edi, DWORD PTR __Al$[ebp]
$LL2@Erase_tree:

; 769  :             _Erase_tree(_Al, _Rootnode->_Right);

  00014	ff 76 08	 push	 DWORD PTR [esi+8]
  00017	8b cb		 mov	 ecx, ebx
  00019	57		 push	 edi
  0001a	e8 00 00 00 00	 call	 ??$_Erase_tree@V?$allocator@U?$_Tree_node@U?$pair@$$CBHH@std@@PAX@std@@@std@@@?$_Tree_val@U?$_Tree_simple_types@U?$pair@$$CBHH@std@@@std@@@std@@QAEXAAV?$allocator@U?$_Tree_node@U?$pair@$$CBHH@std@@PAX@std@@@1@PAU?$_Tree_node@U?$pair@$$CBHH@std@@PAX@1@@Z ; std::_Tree_val<std::_Tree_simple_types<std::pair<int const ,int> > >::_Erase_tree<std::allocator<std::_Tree_node<std::pair<int const ,int>,void *> > >
; File C:\Program Files\Microsoft Visual Studio\2022\Professional\VC\Tools\MSVC\14.44.35207\include\utility

; 773  :     _Ty _Old_val = static_cast<_Ty&&>(_Val);

  0001f	8b c6		 mov	 eax, esi

; 774  :     _Val         = static_cast<_Other&&>(_New_val);

  00021	8b 36		 mov	 esi, DWORD PTR [esi]
; File C:\Program Files\Microsoft Visual Studio\2022\Professional\VC\Tools\MSVC\14.44.35207\include\xmemory

; 289  :         ::operator delete(_Ptr, _Bytes);

  00023	6a 18		 push	 24			; 00000018H
  00025	50		 push	 eax
  00026	e8 00 00 00 00	 call	 ??3@YAXPAXI@Z		; operator delete
  0002b	83 c4 08	 add	 esp, 8
; File C:\Program Files\Microsoft Visual Studio\2022\Professional\VC\Tools\MSVC\14.44.35207\include\xtree

; 768  :         while (!_Rootnode->_Isnil) { // free subtrees, then node

  0002e	80 7e 0d 00	 cmp	 BYTE PTR [esi+13], 0
  00032	74 e0		 je	 SHORT $LL2@Erase_tree
  00034	5f		 pop	 edi
$LN34@Erase_tree:
  00035	5e		 pop	 esi

; 770  :             _Alnode::value_type::_Freenode(_Al, _STD exchange(_Rootnode, _Rootnode->_Left));
; 771  :         }
; 772  :     }

  00036	5b		 pop	 ebx
  00037	5d		 pop	 ebp
  00038	c2 08 00	 ret	 8
??$_Erase_tree@V?$allocator@U?$_Tree_node@U?$pair@$$CBHH@std@@PAX@std@@@std@@@?$_Tree_val@U?$_Tree_simple_types@U?$pair@$$CBHH@std@@@std@@@std@@QAEXAAV?$allocator@U?$_Tree_node@U?$pair@$$CBHH@std@@PAX@std@@@1@PAU?$_Tree_node@U?$pair@$$CBHH@std@@PAX@1@@Z ENDP ; std::_Tree_val<std::_Tree_simple_types<std::pair<int const ,int> > >::_Erase_tree<std::allocator<std::_Tree_node<std::pair<int const ,int>,void *> > >
_TEXT	ENDS
; Function compile flags: /Ogtp
;	COMDAT ??_GCGuildCombat1to1@@UAEPAXI@Z
_TEXT	SEGMENT
___flags$ = 8						; size = 4
??_GCGuildCombat1to1@@UAEPAXI@Z PROC			; CGuildCombat1to1::`scalar deleting destructor', COMDAT
; _this$ = ecx
  00000	55		 push	 ebp
  00001	8b ec		 mov	 ebp, esp
  00003	56		 push	 esi
  00004	8b f1		 mov	 esi, ecx
  00006	e8 00 00 00 00	 call	 ??1CGuildCombat1to1@@UAE@XZ ; CGuildCombat1to1::~CGuildCombat1to1
  0000b	f6 45 08 01	 test	 BYTE PTR ___flags$[ebp], 1
  0000f	74 0b		 je	 SHORT $LN5@scalar
  00011	6a 2c		 push	 44			; 0000002cH
  00013	56		 push	 esi
  00014	e8 00 00 00 00	 call	 ??3@YAXPAXI@Z		; operator delete
  00019	83 c4 08	 add	 esp, 8
$LN5@scalar:
  0001c	8b c6		 mov	 eax, esi
  0001e	5e		 pop	 esi
  0001f	5d		 pop	 ebp
  00020	c2 04 00	 ret	 4
??_GCGuildCombat1to1@@UAEPAXI@Z ENDP			; CGuildCombat1to1::`scalar deleting destructor'
_TEXT	ENDS
; Function compile flags: /Ogtp
; File C:\Program Files\Microsoft Visual Studio\2022\Professional\VC\Tools\MSVC\14.44.35207\include\vector
; File C:\Program Files\Microsoft Visual Studio\2022\Professional\VC\Tools\MSVC\14.44.35207\include\xmemory
; File C:\Program Files\Microsoft Visual Studio\2022\Professional\VC\Tools\MSVC\14.44.35207\include\vector
; File C:\Program Files\Microsoft Visual Studio\2022\Professional\VC\Tools\MSVC\14.44.35207\include\xmemory
; File C:\Program Files\Microsoft Visual Studio\2022\Professional\VC\Tools\MSVC\14.44.35207\include\vector
;	COMDAT ??0CGuildCombat1to1@@QAE@ABV0@@Z
_TEXT	SEGMENT
__Backout$2 = -40					; size = 12
__Guard$3 = -28						; size = 4
_this$ = -24						; size = 4
__Last$1$ = -20						; size = 4
_this$1$ = -16						; size = 4
__$EHRec$ = -12						; size = 12
___that$ = 8						; size = 4
??0CGuildCombat1to1@@QAE@ABV0@@Z PROC			; CGuildCombat1to1::CGuildCombat1to1, COMDAT
; _this$ = ecx
  00000	55		 push	 ebp
  00001	8b ec		 mov	 ebp, esp
  00003	6a ff		 push	 -1
  00005	68 00 00 00 00	 push	 __ehhandler$??0CGuildCombat1to1@@QAE@ABV0@@Z
  0000a	64 a1 00 00 00
	00		 mov	 eax, DWORD PTR fs:0
  00010	50		 push	 eax
  00011	83 ec 1c	 sub	 esp, 28			; 0000001cH
  00014	53		 push	 ebx
  00015	56		 push	 esi
  00016	57		 push	 edi
  00017	a1 00 00 00 00	 mov	 eax, DWORD PTR ___security_cookie
  0001c	33 c5		 xor	 eax, ebp
  0001e	50		 push	 eax
  0001f	8d 45 f4	 lea	 eax, DWORD PTR __$EHRec$[ebp]
  00022	64 a3 00 00 00
	00		 mov	 DWORD PTR fs:0, eax
  00028	8b f1		 mov	 esi, ecx
  0002a	89 75 e8	 mov	 DWORD PTR _this$[ebp], esi

; 747  :         const auto& _Right_data = _Right._Mypair._Myval2;

  0002d	8b 5d 08	 mov	 ebx, DWORD PTR ___that$[ebp]
  00030	8d 7e 04	 lea	 edi, DWORD PTR [esi+4]
  00033	c7 06 00 00 00
	00		 mov	 DWORD PTR [esi], OFFSET ??_7CGuildCombat1to1@@6B@

; 748  :         const auto _Count       = static_cast<size_type>(_Right_data._Mylast - _Right_data._Myfirst);

  00039	b8 e9 a2 8b 2e	 mov	 eax, 780903145		; 2e8ba2e9H

; 400  :     _CONSTEXPR20 _Vector_val() noexcept : _Myfirst(), _Mylast(), _Myend() {}

  0003e	c7 07 00 00 00
	00		 mov	 DWORD PTR [edi], 0
  00044	c7 47 04 00 00
	00 00		 mov	 DWORD PTR [edi+4], 0
  0004b	c7 47 08 00 00
	00 00		 mov	 DWORD PTR [edi+8], 0

; 748  :         const auto _Count       = static_cast<size_type>(_Right_data._Mylast - _Right_data._Myfirst);

  00052	8b 4b 08	 mov	 ecx, DWORD PTR [ebx+8]
  00055	2b 4b 04	 sub	 ecx, DWORD PTR [ebx+4]
  00058	f7 e9		 imul	 ecx
  0005a	89 7d f0	 mov	 DWORD PTR _this$1$[ebp], edi
  0005d	c1 fa 03	 sar	 edx, 3
  00060	8b c2		 mov	 eax, edx
  00062	c1 e8 1f	 shr	 eax, 31			; 0000001fH
  00065	03 c2		 add	 eax, edx

; 2111 :         if (_Count != 0) {

  00067	74 5f		 je	 SHORT $LN58@CGuildComb

; 2051 :         if (_Newcapacity > max_size()) {

  00069	3d 5d 74 d1 05	 cmp	 eax, 97612893		; 05d1745dH
  0006e	0f 87 94 00 00
	00		 ja	 $LN74@CGuildComb

; 2053 :         }
; 2054 : 
; 2055 :         _Buy_raw(_Newcapacity);

  00074	50		 push	 eax
  00075	8b cf		 mov	 ecx, edi
  00077	e8 00 00 00 00	 call	 ?_Buy_raw@?$vector@U__GC1TO1TENDER@CGuildCombat1to1Mng@@V?$allocator@U__GC1TO1TENDER@CGuildCombat1to1Mng@@@std@@@std@@AAEXI@Z ; std::vector<CGuildCombat1to1Mng::__GC1TO1TENDER,std::allocator<CGuildCombat1to1Mng::__GC1TO1TENDER> >::_Buy_raw

; 2113 :             _Tidy_guard<vector> _Guard{this};

  0007c	89 7d e4	 mov	 DWORD PTR __Guard$3[ebp], edi

; 2120 :                 _My_data._Mylast = _STD _Uninitialized_copy(_STD forward<_Valty>(_Val)..., _My_data._Myfirst, _Al);

  0007f	8b 3f		 mov	 edi, DWORD PTR [edi]
  00081	8b 43 08	 mov	 eax, DWORD PTR [ebx+8]
; File C:\Program Files\Microsoft Visual Studio\2022\Professional\VC\Tools\MSVC\14.44.35207\include\xmemory

; 1833 :     _CONSTEXPR20 _Uninitialized_backout_al(pointer _Dest, _Alloc& _Al_) : _First(_Dest), _Last(_Dest), _Al(_Al_) {}

  00084	8b 4d f0	 mov	 ecx, DWORD PTR _this$1$[ebp]
; File C:\Program Files\Microsoft Visual Studio\2022\Professional\VC\Tools\MSVC\14.44.35207\include\vector

; 2120 :                 _My_data._Mylast = _STD _Uninitialized_copy(_STD forward<_Valty>(_Val)..., _My_data._Myfirst, _Al);

  00087	8b 73 04	 mov	 esi, DWORD PTR [ebx+4]
  0008a	c7 45 fc 00 00
	00 00		 mov	 DWORD PTR __$EHRec$[ebp+8], 0
  00091	89 45 ec	 mov	 DWORD PTR __Last$1$[ebp], eax
; File C:\Program Files\Microsoft Visual Studio\2022\Professional\VC\Tools\MSVC\14.44.35207\include\xmemory

; 1833 :     _CONSTEXPR20 _Uninitialized_backout_al(pointer _Dest, _Alloc& _Al_) : _First(_Dest), _Last(_Dest), _Al(_Al_) {}

  00094	89 7d d8	 mov	 DWORD PTR __Backout$2[ebp], edi
  00097	89 7d dc	 mov	 DWORD PTR __Backout$2[ebp+4], edi
  0009a	89 4d e0	 mov	 DWORD PTR __Backout$2[ebp+8], ecx

; 1900 :     _Uninitialized_backout_al<_Alloc> _Backout{_Dest, _Al};

  0009d	c6 45 fc 01	 mov	 BYTE PTR __$EHRec$[ebp+8], 1

; 1901 :     for (; _UFirst != _ULast; ++_UFirst) {

  000a1	3b f0		 cmp	 esi, eax
  000a3	74 1a		 je	 SHORT $LN22@CGuildComb
  000a5	8b d8		 mov	 ebx, eax
$LL23@CGuildComb:

; 732  :         ::new (const_cast<void*>(static_cast<const volatile void*>(_Ptr))) _Objty(_STD forward<_Types>(_Args)...);

  000a7	56		 push	 esi
  000a8	8b cf		 mov	 ecx, edi
  000aa	e8 00 00 00 00	 call	 ??0__GC1TO1TENDER@CGuildCombat1to1Mng@@QAE@ABU01@@Z

; 1845 :         ++_Last;

  000af	83 c7 2c	 add	 edi, 44			; 0000002cH

; 1901 :     for (; _UFirst != _ULast; ++_UFirst) {

  000b2	83 c6 2c	 add	 esi, 44			; 0000002cH

; 1845 :         ++_Last;

  000b5	89 7d dc	 mov	 DWORD PTR __Backout$2[ebp+4], edi

; 1901 :     for (; _UFirst != _ULast; ++_UFirst) {

  000b8	3b f3		 cmp	 esi, ebx
  000ba	75 eb		 jne	 SHORT $LL23@CGuildComb
  000bc	8b 5d 08	 mov	 ebx, DWORD PTR ___that$[ebp]
$LN22@CGuildComb:
; File C:\Program Files\Microsoft Visual Studio\2022\Professional\VC\Tools\MSVC\14.44.35207\include\vector

; 2120 :                 _My_data._Mylast = _STD _Uninitialized_copy(_STD forward<_Valty>(_Val)..., _My_data._Myfirst, _Al);

  000bf	8b 45 f0	 mov	 eax, DWORD PTR _this$1$[ebp]
  000c2	8b 75 e8	 mov	 esi, DWORD PTR _this$[ebp]
  000c5	89 78 04	 mov	 DWORD PTR [eax+4], edi
$LN58@CGuildComb:
  000c8	8b 43 10	 mov	 eax, DWORD PTR [ebx+16]
  000cb	89 46 10	 mov	 DWORD PTR [esi+16], eax
  000ce	8b 43 14	 mov	 eax, DWORD PTR [ebx+20]
  000d1	89 46 14	 mov	 DWORD PTR [esi+20], eax
  000d4	8b 43 18	 mov	 eax, DWORD PTR [ebx+24]
  000d7	89 46 18	 mov	 DWORD PTR [esi+24], eax
  000da	8b 43 1c	 mov	 eax, DWORD PTR [ebx+28]
  000dd	89 46 1c	 mov	 DWORD PTR [esi+28], eax
  000e0	8b 43 20	 mov	 eax, DWORD PTR [ebx+32]
  000e3	89 46 20	 mov	 DWORD PTR [esi+32], eax
  000e6	8b 43 24	 mov	 eax, DWORD PTR [ebx+36]
  000e9	8b 4b 28	 mov	 ecx, DWORD PTR [ebx+40]
  000ec	89 46 24	 mov	 DWORD PTR [esi+36], eax
  000ef	8b c6		 mov	 eax, esi
  000f1	89 4e 28	 mov	 DWORD PTR [esi+40], ecx
  000f4	8b 4d f4	 mov	 ecx, DWORD PTR __$EHRec$[ebp]
  000f7	64 89 0d 00 00
	00 00		 mov	 DWORD PTR fs:0, ecx
  000fe	59		 pop	 ecx
  000ff	5f		 pop	 edi
  00100	5e		 pop	 esi
  00101	5b		 pop	 ebx
  00102	8b e5		 mov	 esp, ebp
  00104	5d		 pop	 ebp
  00105	c2 04 00	 ret	 4
$LN74@CGuildComb:

; 2052 :             _Xlength();

  00108	e8 00 00 00 00	 call	 ?_Xlength@?$vector@U__GC1TO1TENDER@CGuildCombat1to1Mng@@V?$allocator@U__GC1TO1TENDER@CGuildCombat1to1Mng@@@std@@@std@@CAXXZ ; std::vector<CGuildCombat1to1Mng::__GC1TO1TENDER,std::allocator<CGuildCombat1to1Mng::__GC1TO1TENDER> >::_Xlength
$LN72@CGuildComb:
  0010d	cc		 int	 3
_TEXT	ENDS
;	COMDAT text$x
text$x	SEGMENT
__unwindfunclet$??0CGuildCombat1to1@@QAE@ABV0@@Z$1:
  00000	8d 4d e4	 lea	 ecx, DWORD PTR __Guard$3[ebp]
  00003	e9 00 00 00 00	 jmp	 ??1?$_Tidy_guard@V?$vector@U__GC1TO1TENDER@CGuildCombat1to1Mng@@V?$allocator@U__GC1TO1TENDER@CGuildCombat1to1Mng@@@std@@@std@@@std@@QAE@XZ ; std::_Tidy_guard<std::vector<CGuildCombat1to1Mng::__GC1TO1TENDER,std::allocator<CGuildCombat1to1Mng::__GC1TO1TENDER> > >::~_Tidy_guard<std::vector<CGuildCombat1to1Mng::__GC1TO1TENDER,std::allocator<CGuildCombat1to1Mng::__GC1TO1TENDER> > >
__unwindfunclet$??0CGuildCombat1to1@@QAE@ABV0@@Z$2:
  00008	8d 4d d8	 lea	 ecx, DWORD PTR __Backout$2[ebp]
  0000b	e9 00 00 00 00	 jmp	 ??1?$_Uninitialized_backout_al@V?$allocator@U__GC1TO1TENDER@CGuildCombat1to1Mng@@@std@@@std@@QAE@XZ ; std::_Uninitialized_backout_al<std::allocator<CGuildCombat1to1Mng::__GC1TO1TENDER> >::~_Uninitialized_backout_al<std::allocator<CGuildCombat1to1Mng::__GC1TO1TENDER> >
  00010	cc		 int	 3
  00011	cc		 int	 3
  00012	cc		 int	 3
  00013	cc		 int	 3
  00014	cc		 int	 3
__ehhandler$??0CGuildCombat1to1@@QAE@ABV0@@Z:
  00015	90		 npad	 1
  00016	90		 npad	 1
  00017	8b 54 24 08	 mov	 edx, DWORD PTR [esp+8]
  0001b	8d 42 0c	 lea	 eax, DWORD PTR [edx+12]
  0001e	8b 4a d4	 mov	 ecx, DWORD PTR [edx-44]
  00021	33 c8		 xor	 ecx, eax
  00023	e8 00 00 00 00	 call	 @__security_check_cookie@4
  00028	b8 00 00 00 00	 mov	 eax, OFFSET __ehfuncinfo$??0CGuildCombat1to1@@QAE@ABV0@@Z
  0002d	e9 00 00 00 00	 jmp	 ___CxxFrameHandler3
text$x	ENDS
??0CGuildCombat1to1@@QAE@ABV0@@Z ENDP			; CGuildCombat1to1::CGuildCombat1to1
; Function compile flags: /Ogtp
; File C:\IAGOS\server\v18\Source\Source\_Common\GuildCombat1to1.cpp
; File C:\Program Files\Microsoft Visual Studio\2022\Professional\VC\Tools\MSVC\14.44.35207\include\vector
; File C:\IAGOS\server\v18\Source\Source\_Common\GuildCombat1to1.cpp
; File C:\Program Files\Microsoft Visual Studio\2022\Professional\VC\Tools\MSVC\14.44.35207\include\vector
; File C:\IAGOS\server\v18\Source\Source\_Common\GuildCombat1to1.cpp
; File C:\Program Files\Microsoft Visual Studio\2022\Professional\VC\Tools\MSVC\14.44.35207\include\vector
; File C:\IAGOS\server\v18\Source\Source\_Common\GuildCombat1to1.cpp
; File C:\Program Files\Microsoft Visual Studio\2022\Professional\VC\Tools\MSVC\14.44.35207\include\vector
; File C:\IAGOS\server\v18\Source\Source\_Common\GuildCombat1to1.cpp
; File C:\Program Files\Microsoft Visual Studio\2022\Professional\VC\Tools\MSVC\14.44.35207\include\xtree
; File C:\Program Files\Microsoft Visual Studio\2022\Professional\VC\Tools\MSVC\14.44.35207\include\type_traits
; File C:\Program Files\Microsoft Visual Studio\2022\Professional\VC\Tools\MSVC\14.44.35207\include\xtree
; File C:\Program Files\Microsoft Visual Studio\2022\Professional\VC\Tools\MSVC\14.44.35207\include\type_traits
; File C:\Program Files\Microsoft Visual Studio\2022\Professional\VC\Tools\MSVC\14.44.35207\include\xtree
; File C:\IAGOS\server\v18\Source\Source\_Common\Project.h
; File C:\IAGOS\server\v18\Source\Source\_Common\GuildCombat1to1.cpp
; File C:\IAGOS\server\v18\Source\Source\_Common\Project.h
; File C:\IAGOS\server\v18\Source\Source\_Common\GuildCombat1to1.cpp
; File C:\Program Files\Microsoft Visual Studio\2022\Professional\VC\Tools\MSVC\14.44.35207\include\vector
; File C:\IAGOS\server\v18\Source\Source\_Common\GuildCombat1to1.cpp
; File C:\Program Files\Microsoft Visual Studio\2022\Professional\VC\Tools\MSVC\14.44.35207\include\vector
; File C:\IAGOS\server\v18\Source\Source\_Common\GuildCombat1to1.cpp
; File C:\Program Files\Microsoft Visual Studio\2022\Professional\VC\Tools\MSVC\14.44.35207\include\xtree
; File C:\IAGOS\server\v18\Source\Source\_Common\GuildCombat1to1.cpp
; File C:\Program Files\Microsoft Visual Studio\2022\Professional\VC\Tools\MSVC\14.44.35207\include\xtree
; File C:\Program Files\Microsoft Visual Studio\2022\Professional\VC\Tools\MSVC\14.44.35207\include\type_traits
; File C:\Program Files\Microsoft Visual Studio\2022\Professional\VC\Tools\MSVC\14.44.35207\include\xtree
; File C:\Program Files\Microsoft Visual Studio\2022\Professional\VC\Tools\MSVC\14.44.35207\include\type_traits
; File C:\Program Files\Microsoft Visual Studio\2022\Professional\VC\Tools\MSVC\14.44.35207\include\xtree
; File C:\IAGOS\server\v18\Source\Source\_Common\Project.h
; File C:\IAGOS\server\v18\Source\Source\_Common\GuildCombat1to1.cpp
;	COMDAT ?SetTeleportToWaitStageNowPlayers@CGuildCombat1to1@@QAEXXZ
_TEXT	SEGMENT
_this$1$ = -8						; size = 4
$T3 = -4						; size = 4
?SetTeleportToWaitStageNowPlayers@CGuildCombat1to1@@QAEXXZ PROC ; CGuildCombat1to1::SetTeleportToWaitStageNowPlayers, COMDAT
; _this$ = ecx

; 617  : {

  00000	55		 push	 ebp
  00001	8b ec		 mov	 ebp, esp
  00003	83 ec 08	 sub	 esp, 8
; File C:\Program Files\Microsoft Visual Studio\2022\Professional\VC\Tools\MSVC\14.44.35207\include\vector

; 1934 :         return _My_data._Myfirst[_Pos];

  00006	6b 41 24 2c	 imul	 eax, DWORD PTR [ecx+36], 44

; 1914 :         auto& _My_data = _Mypair._Myval2;

  0000a	8b 51 04	 mov	 edx, DWORD PTR [ecx+4]
; File C:\IAGOS\server\v18\Source\Source\_Common\GuildCombat1to1.cpp

; 617  : {

  0000d	53		 push	 ebx
  0000e	56		 push	 esi

; 621  : 	if( (int)( m_vecTenderGuild[m_nIndex[0]].vecMemberId.size() ) > m_nProgWarCount	)

  0000f	8b 71 1c	 mov	 esi, DWORD PTR [ecx+28]
  00012	33 db		 xor	 ebx, ebx
  00014	c1 e6 02	 shl	 esi, 2
  00017	89 75 fc	 mov	 DWORD PTR $T3[ebp], esi
; File C:\Program Files\Microsoft Visual Studio\2022\Professional\VC\Tools\MSVC\14.44.35207\include\vector

; 1915 :         return static_cast<size_type>(_My_data._Mylast - _My_data._Myfirst);

  0001a	8b 71 04	 mov	 esi, DWORD PTR [ecx+4]
  0001d	8b 54 10 20	 mov	 edx, DWORD PTR [eax+edx+32]
; File C:\IAGOS\server\v18\Source\Source\_Common\GuildCombat1to1.cpp

; 617  : {

  00021	57		 push	 edi

; 618  : 	CUser* pUser0 = NULL;

  00022	33 ff		 xor	 edi, edi
  00024	89 4d f8	 mov	 DWORD PTR _this$1$[ebp], ecx
; File C:\Program Files\Microsoft Visual Studio\2022\Professional\VC\Tools\MSVC\14.44.35207\include\vector

; 1915 :         return static_cast<size_type>(_My_data._Mylast - _My_data._Myfirst);

  00027	8b 44 30 24	 mov	 eax, DWORD PTR [eax+esi+36]
; File C:\IAGOS\server\v18\Source\Source\_Common\GuildCombat1to1.cpp

; 621  : 	if( (int)( m_vecTenderGuild[m_nIndex[0]].vecMemberId.size() ) > m_nProgWarCount	)

  0002b	8b 35 28 00 00
	00		 mov	 esi, DWORD PTR ?prj@@3VCProject@@A+40
; File C:\Program Files\Microsoft Visual Studio\2022\Professional\VC\Tools\MSVC\14.44.35207\include\vector

; 1915 :         return static_cast<size_type>(_My_data._Mylast - _My_data._Myfirst);

  00031	2b c2		 sub	 eax, edx
  00033	c1 f8 02	 sar	 eax, 2
; File C:\IAGOS\server\v18\Source\Source\_Common\GuildCombat1to1.cpp

; 621  : 	if( (int)( m_vecTenderGuild[m_nIndex[0]].vecMemberId.size() ) > m_nProgWarCount	)

  00036	3b 41 1c	 cmp	 eax, DWORD PTR [ecx+28]
  00039	8b 45 fc	 mov	 eax, DWORD PTR $T3[ebp]
  0003c	7e 44		 jle	 SHORT $LN159@SetTelepor

; 622  : 		pUser0 = (CUser*)prj.GetUserByID( m_vecTenderGuild[m_nIndex[0]].vecMemberId[m_nProgWarCount] );

  0003e	8b 14 02	 mov	 edx, DWORD PTR [edx+eax]
; File C:\Program Files\Microsoft Visual Studio\2022\Professional\VC\Tools\MSVC\14.44.35207\include\xtree

; 1630 :         _Tree_find_result<_Nodeptr> _Result{{_Scary->_Myhead->_Parent, _Tree_child::_Right}, _Scary->_Myhead};

  00041	8b ce		 mov	 ecx, esi
  00043	8b 46 04	 mov	 eax, DWORD PTR [esi+4]

; 1631 :         _Nodeptr _Trynode = _Result._Location._Parent;
; 1632 :         while (!_Trynode->_Isnil) {

  00046	38 58 0d	 cmp	 BYTE PTR [eax+13], bl
  00049	75 18		 jne	 SHORT $LN29@SetTelepor
  0004b	0f 1f 44 00 00	 npad	 5
$LL28@SetTelepor:
; File C:\Program Files\Microsoft Visual Studio\2022\Professional\VC\Tools\MSVC\14.44.35207\include\type_traits

; 2380 :         return _Left < _Right;

  00050	39 50 10	 cmp	 DWORD PTR [eax+16], edx
; File C:\Program Files\Microsoft Visual Studio\2022\Professional\VC\Tools\MSVC\14.44.35207\include\xtree

; 1634 :             if (_DEBUG_LT_PRED(_Getcomp(), _Traits::_Kfn(_Trynode->_Myval), _Keyval)) {

  00053	73 05		 jae	 SHORT $LN30@SetTelepor

; 1635 :                 _Result._Location._Child = _Tree_child::_Right;
; 1636 :                 _Trynode                 = _Trynode->_Right;

  00055	8b 40 08	 mov	 eax, DWORD PTR [eax+8]

; 1637 :             } else {

  00058	eb 04		 jmp	 SHORT $LN31@SetTelepor
$LN30@SetTelepor:

; 1638 :                 _Result._Location._Child = _Tree_child::_Left;
; 1639 :                 _Result._Bound           = _Trynode;

  0005a	8b c8		 mov	 ecx, eax

; 1640 :                 _Trynode                 = _Trynode->_Left;

  0005c	8b 00		 mov	 eax, DWORD PTR [eax]
$LN31@SetTelepor:

; 1631 :         _Nodeptr _Trynode = _Result._Location._Parent;
; 1632 :         while (!_Trynode->_Isnil) {

  0005e	38 58 0d	 cmp	 BYTE PTR [eax+13], bl
  00061	74 ed		 je	 SHORT $LL28@SetTelepor
$LN29@SetTelepor:

; 1624 :         return !_Bound->_Isnil && !_DEBUG_LT_PRED(_Getcomp(), _Keyval, _Traits::_Kfn(_Bound->_Myval));

  00063	38 59 0d	 cmp	 BYTE PTR [ecx+13], bl
  00066	75 05		 jne	 SHORT $LN25@SetTelepor
; File C:\Program Files\Microsoft Visual Studio\2022\Professional\VC\Tools\MSVC\14.44.35207\include\type_traits

; 2380 :         return _Left < _Right;

  00068	3b 51 10	 cmp	 edx, DWORD PTR [ecx+16]
; File C:\Program Files\Microsoft Visual Studio\2022\Professional\VC\Tools\MSVC\14.44.35207\include\xtree

; 1624 :         return !_Bound->_Isnil && !_DEBUG_LT_PRED(_Getcomp(), _Keyval, _Traits::_Kfn(_Bound->_Myval));

  0006b	73 02		 jae	 SHORT $LN24@SetTelepor
$LN25@SetTelepor:

; 1389 :         return _Get_scary()->_Myhead;

  0006d	8b ce		 mov	 ecx, esi
$LN24@SetTelepor:

; 37   :     _Tree_unchecked_const_iterator(_Nodeptr _Pnode, const _Mytree* _Plist) noexcept : _Ptr(_Pnode) {

  0006f	3b ce		 cmp	 ecx, esi
; File C:\IAGOS\server\v18\Source\Source\_Common\Project.h

; 1436 : 	if( i != m_idPlayerToUserPtr.end() )

  00071	74 08		 je	 SHORT $LN20@SetTelepor

; 1437 : 		return i->second;

  00073	8b 79 14	 mov	 edi, DWORD PTR [ecx+20]
; File C:\IAGOS\server\v18\Source\Source\_Common\GuildCombat1to1.cpp

; 622  : 		pUser0 = (CUser*)prj.GetUserByID( m_vecTenderGuild[m_nIndex[0]].vecMemberId[m_nProgWarCount] );

  00076	8b 4d f8	 mov	 ecx, DWORD PTR _this$1$[ebp]
  00079	eb 0a		 jmp	 SHORT $LN2@SetTelepor
$LN20@SetTelepor:
  0007b	8b 4d f8	 mov	 ecx, DWORD PTR _this$1$[ebp]
; File C:\IAGOS\server\v18\Source\Source\_Common\Project.h

; 1438 : 	return NULL;

  0007e	33 ff		 xor	 edi, edi
; File C:\IAGOS\server\v18\Source\Source\_Common\GuildCombat1to1.cpp

; 622  : 		pUser0 = (CUser*)prj.GetUserByID( m_vecTenderGuild[m_nIndex[0]].vecMemberId[m_nProgWarCount] );

  00080	eb 03		 jmp	 SHORT $LN2@SetTelepor
$LN159@SetTelepor:
  00082	89 45 fc	 mov	 DWORD PTR $T3[ebp], eax
$LN2@SetTelepor:
; File C:\Program Files\Microsoft Visual Studio\2022\Professional\VC\Tools\MSVC\14.44.35207\include\vector

; 1934 :         return _My_data._Myfirst[_Pos];

  00085	6b 41 28 2c	 imul	 eax, DWORD PTR [ecx+40], 44

; 1915 :         return static_cast<size_type>(_My_data._Mylast - _My_data._Myfirst);

  00089	8b 51 04	 mov	 edx, DWORD PTR [ecx+4]
  0008c	8b 71 04	 mov	 esi, DWORD PTR [ecx+4]
  0008f	8b 54 10 20	 mov	 edx, DWORD PTR [eax+edx+32]
  00093	8b 44 30 24	 mov	 eax, DWORD PTR [eax+esi+36]
; File C:\IAGOS\server\v18\Source\Source\_Common\GuildCombat1to1.cpp

; 623  : 	if( (int)( m_vecTenderGuild[m_nIndex[1]].vecMemberId.size() ) > m_nProgWarCount	)

  00097	8b 35 28 00 00
	00		 mov	 esi, DWORD PTR ?prj@@3VCProject@@A+40
; File C:\Program Files\Microsoft Visual Studio\2022\Professional\VC\Tools\MSVC\14.44.35207\include\vector

; 1915 :         return static_cast<size_type>(_My_data._Mylast - _My_data._Myfirst);

  0009d	2b c2		 sub	 eax, edx
  0009f	c1 f8 02	 sar	 eax, 2
; File C:\IAGOS\server\v18\Source\Source\_Common\GuildCombat1to1.cpp

; 623  : 	if( (int)( m_vecTenderGuild[m_nIndex[1]].vecMemberId.size() ) > m_nProgWarCount	)

  000a2	3b 41 1c	 cmp	 eax, DWORD PTR [ecx+28]
  000a5	7e 3d		 jle	 SHORT $LN3@SetTelepor

; 624  : 		pUser1 = (CUser*)prj.GetUserByID( m_vecTenderGuild[m_nIndex[1]].vecMemberId[m_nProgWarCount] );

  000a7	8b 45 fc	 mov	 eax, DWORD PTR $T3[ebp]
; File C:\Program Files\Microsoft Visual Studio\2022\Professional\VC\Tools\MSVC\14.44.35207\include\xtree

; 1630 :         _Tree_find_result<_Nodeptr> _Result{{_Scary->_Myhead->_Parent, _Tree_child::_Right}, _Scary->_Myhead};

  000aa	8b ce		 mov	 ecx, esi
; File C:\IAGOS\server\v18\Source\Source\_Common\GuildCombat1to1.cpp

; 624  : 		pUser1 = (CUser*)prj.GetUserByID( m_vecTenderGuild[m_nIndex[1]].vecMemberId[m_nProgWarCount] );

  000ac	8b 14 02	 mov	 edx, DWORD PTR [edx+eax]
; File C:\Program Files\Microsoft Visual Studio\2022\Professional\VC\Tools\MSVC\14.44.35207\include\xtree

; 1630 :         _Tree_find_result<_Nodeptr> _Result{{_Scary->_Myhead->_Parent, _Tree_child::_Right}, _Scary->_Myhead};

  000af	8b 46 04	 mov	 eax, DWORD PTR [esi+4]

; 1631 :         _Nodeptr _Trynode = _Result._Location._Parent;
; 1632 :         while (!_Trynode->_Isnil) {

  000b2	38 58 0d	 cmp	 BYTE PTR [eax+13], bl
  000b5	75 13		 jne	 SHORT $LN101@SetTelepor
$LL100@SetTelepor:
; File C:\Program Files\Microsoft Visual Studio\2022\Professional\VC\Tools\MSVC\14.44.35207\include\type_traits

; 2380 :         return _Left < _Right;

  000b7	39 50 10	 cmp	 DWORD PTR [eax+16], edx
; File C:\Program Files\Microsoft Visual Studio\2022\Professional\VC\Tools\MSVC\14.44.35207\include\xtree

; 1634 :             if (_DEBUG_LT_PRED(_Getcomp(), _Traits::_Kfn(_Trynode->_Myval), _Keyval)) {

  000ba	73 05		 jae	 SHORT $LN102@SetTelepor

; 1635 :                 _Result._Location._Child = _Tree_child::_Right;
; 1636 :                 _Trynode                 = _Trynode->_Right;

  000bc	8b 40 08	 mov	 eax, DWORD PTR [eax+8]

; 1637 :             } else {

  000bf	eb 04		 jmp	 SHORT $LN103@SetTelepor
$LN102@SetTelepor:

; 1638 :                 _Result._Location._Child = _Tree_child::_Left;
; 1639 :                 _Result._Bound           = _Trynode;

  000c1	8b c8		 mov	 ecx, eax

; 1640 :                 _Trynode                 = _Trynode->_Left;

  000c3	8b 00		 mov	 eax, DWORD PTR [eax]
$LN103@SetTelepor:

; 1631 :         _Nodeptr _Trynode = _Result._Location._Parent;
; 1632 :         while (!_Trynode->_Isnil) {

  000c5	38 58 0d	 cmp	 BYTE PTR [eax+13], bl
  000c8	74 ed		 je	 SHORT $LL100@SetTelepor
$LN101@SetTelepor:

; 1624 :         return !_Bound->_Isnil && !_DEBUG_LT_PRED(_Getcomp(), _Keyval, _Traits::_Kfn(_Bound->_Myval));

  000ca	38 59 0d	 cmp	 BYTE PTR [ecx+13], bl
  000cd	75 05		 jne	 SHORT $LN97@SetTelepor
; File C:\Program Files\Microsoft Visual Studio\2022\Professional\VC\Tools\MSVC\14.44.35207\include\type_traits

; 2380 :         return _Left < _Right;

  000cf	3b 51 10	 cmp	 edx, DWORD PTR [ecx+16]
; File C:\Program Files\Microsoft Visual Studio\2022\Professional\VC\Tools\MSVC\14.44.35207\include\xtree

; 1624 :         return !_Bound->_Isnil && !_DEBUG_LT_PRED(_Getcomp(), _Keyval, _Traits::_Kfn(_Bound->_Myval));

  000d2	73 02		 jae	 SHORT $LN96@SetTelepor
$LN97@SetTelepor:

; 1389 :         return _Get_scary()->_Myhead;

  000d4	8b ce		 mov	 ecx, esi
$LN96@SetTelepor:

; 37   :     _Tree_unchecked_const_iterator(_Nodeptr _Pnode, const _Mytree* _Plist) noexcept : _Ptr(_Pnode) {

  000d6	3b ce		 cmp	 ecx, esi
; File C:\IAGOS\server\v18\Source\Source\_Common\Project.h

; 1436 : 	if( i != m_idPlayerToUserPtr.end() )

  000d8	74 05		 je	 SHORT $LN92@SetTelepor

; 1437 : 		return i->second;

  000da	8b 59 14	 mov	 ebx, DWORD PTR [ecx+20]
  000dd	eb 02		 jmp	 SHORT $LN91@SetTelepor
$LN92@SetTelepor:

; 1438 : 	return NULL;

  000df	33 db		 xor	 ebx, ebx
$LN91@SetTelepor:
  000e1	8b 4d f8	 mov	 ecx, DWORD PTR _this$1$[ebp]
$LN3@SetTelepor:
; File C:\IAGOS\server\v18\Source\Source\_Common\GuildCombat1to1.cpp

; 626  : 	if( IsPossibleUser( pUser0 ) )

  000e4	57		 push	 edi
  000e5	e8 00 00 00 00	 call	 ?IsPossibleUser@CGuildCombat1to1@@QAEHPAVCUser@@@Z ; CGuildCombat1to1::IsPossibleUser
  000ea	8b 75 f8	 mov	 esi, DWORD PTR _this$1$[ebp]
  000ed	85 c0		 test	 eax, eax
  000ef	74 08		 je	 SHORT $LN4@SetTelepor

; 627  : 		SetTeleportToWaitStage( pUser0 );

  000f1	57		 push	 edi
  000f2	8b ce		 mov	 ecx, esi
  000f4	e8 00 00 00 00	 call	 ?SetTeleportToWaitStage@CGuildCombat1to1@@QAEXPAVCUser@@@Z ; CGuildCombat1to1::SetTeleportToWaitStage
$LN4@SetTelepor:

; 628  : 	if( IsPossibleUser( pUser1 ) )

  000f9	53		 push	 ebx
  000fa	8b ce		 mov	 ecx, esi
  000fc	e8 00 00 00 00	 call	 ?IsPossibleUser@CGuildCombat1to1@@QAEHPAVCUser@@@Z ; CGuildCombat1to1::IsPossibleUser
  00101	85 c0		 test	 eax, eax
  00103	74 08		 je	 SHORT $LN5@SetTelepor

; 629  : 		SetTeleportToWaitStage( pUser1 );

  00105	53		 push	 ebx
  00106	8b ce		 mov	 ecx, esi
  00108	e8 00 00 00 00	 call	 ?SetTeleportToWaitStage@CGuildCombat1to1@@QAEXPAVCUser@@@Z ; CGuildCombat1to1::SetTeleportToWaitStage
$LN5@SetTelepor:

; 630  : }

  0010d	5f		 pop	 edi
  0010e	5e		 pop	 esi
  0010f	5b		 pop	 ebx
  00110	8b e5		 mov	 esp, ebp
  00112	5d		 pop	 ebp
  00113	c3		 ret	 0
?SetTeleportToWaitStageNowPlayers@CGuildCombat1to1@@QAEXXZ ENDP ; CGuildCombat1to1::SetTeleportToWaitStageNowPlayers
_TEXT	ENDS
; Function compile flags: /Ogtp
; File C:\IAGOS\server\v18\Source\Source\_Common\GuildCombat1to1.cpp
; File C:\Program Files\Microsoft Visual Studio\2022\Professional\VC\Tools\MSVC\14.44.35207\include\vector
; File C:\IAGOS\server\v18\Source\Source\_Common\GuildCombat1to1.cpp
; File C:\IAGOS\server\v18\Source\Source\DX_SDK\d3dx9math.inl
; File C:\IAGOS\server\v18\Source\Source\_Common\GuildCombat1to1.cpp
; File C:\IAGOS\server\v18\Source\Source\DX_SDK\d3dx9math.inl
; File C:\IAGOS\server\v18\Source\Source\_Common\GuildCombat1to1.cpp
;	COMDAT ?SetTeleportToWarStage@CGuildCombat1to1@@QAEXPAVCUser@@@Z
_TEXT	SEGMENT
$T1 = -16						; size = 12
$T2 = -16						; size = 12
__$ArrayPad$ = -4					; size = 4
_pUser$ = 8						; size = 4
?SetTeleportToWarStage@CGuildCombat1to1@@QAEXPAVCUser@@@Z PROC ; CGuildCombat1to1::SetTeleportToWarStage, COMDAT
; _this$ = ecx

; 660  : {

  00000	55		 push	 ebp
  00001	8b ec		 mov	 ebp, esp
  00003	83 ec 10	 sub	 esp, 16			; 00000010H
  00006	a1 00 00 00 00	 mov	 eax, DWORD PTR ___security_cookie
  0000b	33 c5		 xor	 eax, ebp
  0000d	89 45 fc	 mov	 DWORD PTR __$ArrayPad$[ebp], eax
  00010	53		 push	 ebx
  00011	56		 push	 esi
  00012	57		 push	 edi
  00013	8b 7d 08	 mov	 edi, DWORD PTR _pUser$[ebp]
  00016	8b d9		 mov	 ebx, ecx

; 661  : 	int nIndex = g_GuildCombat1to1Mng.GetTenderGuildIndexByUser( pUser );

  00018	57		 push	 edi
  00019	b9 00 00 00 00	 mov	 ecx, OFFSET ?g_GuildCombat1to1Mng@@3VCGuildCombat1to1Mng@@A ; g_GuildCombat1to1Mng
  0001e	e8 00 00 00 00	 call	 ?GetTenderGuildIndexByUser@CGuildCombat1to1Mng@@QAEHPAVCUser@@@Z ; CGuildCombat1to1Mng::GetTenderGuildIndexByUser

; 662  : 
; 663  : 	pUser->m_nGuildCombatState = 1; // ±ćµĺ´ëŔü ¸đµĺ
; 664  : 	g_UserMng.AddGuildCombatUserState( pUser );

  00023	57		 push	 edi
  00024	b9 00 00 00 00	 mov	 ecx, OFFSET ?g_UserMng@@3VCUserMng@@A ; g_UserMng
  00029	c7 87 b0 0d 00
	00 01 00 00 00	 mov	 DWORD PTR [edi+3504], 1
  00033	8b f0		 mov	 esi, eax
  00035	e8 00 00 00 00	 call	 ?AddGuildCombatUserState@CUserMng@@QAEXPAVCMover@@@Z ; CUserMng::AddGuildCombatUserState

; 665  : 	if( m_vecTenderGuild[nIndex].nPosition == 0 )

  0003a	8b 43 04	 mov	 eax, DWORD PTR [ebx+4]
; File C:\Program Files\Microsoft Visual Studio\2022\Professional\VC\Tools\MSVC\14.44.35207\include\vector

; 1934 :         return _My_data._Myfirst[_Pos];

  0003d	6b f6 2c	 imul	 esi, esi, 44
; File C:\IAGOS\server\v18\Source\Source\_Common\GuildCombat1to1.cpp

; 665  : 	if( m_vecTenderGuild[nIndex].nPosition == 0 )

  00040	51		 push	 ecx
  00041	8b cf		 mov	 ecx, edi
  00043	83 7c 06 0c 00	 cmp	 DWORD PTR [esi+eax+12], 0
  00048	75 15		 jne	 SHORT $LN2@SetTelepor

; 666  : 	{
; 667  : 		pUser->SetAngle( 0 );

  0004a	c7 04 24 00 00
	00 00		 mov	 DWORD PTR [esp], 0
  00051	e8 00 00 00 00	 call	 ?SetAngle@CObj@@QAEXM@Z	; CObj::SetAngle
; File C:\IAGOS\server\v18\Source\Source\DX_SDK\d3dx9math.inl

; 302  :     z = fz;

  00056	c7 45 f8 00 00
	7c 43		 mov	 DWORD PTR $T1[ebp+8], 1132199936 ; 437c0000H
; File C:\IAGOS\server\v18\Source\Source\_Common\GuildCombat1to1.cpp

; 669  : 	}

  0005d	eb 13		 jmp	 SHORT $LN19@SetTelepor
$LN2@SetTelepor:

; 670  : 	else
; 671  : 	{
; 672  : 		pUser->SetAngle( 180 );

  0005f	c7 04 24 00 00
	34 43		 mov	 DWORD PTR [esp], 1127481344 ; 43340000H
  00066	e8 00 00 00 00	 call	 ?SetAngle@CObj@@QAEXM@Z	; CObj::SetAngle
; File C:\IAGOS\server\v18\Source\Source\DX_SDK\d3dx9math.inl

; 302  :     z = fz;

  0006b	c7 45 f8 00 00
	6b 43		 mov	 DWORD PTR $T2[ebp+8], 1131085824 ; 436b0000H
$LN19@SetTelepor:
; File C:\IAGOS\server\v18\Source\Source\_Common\GuildCombat1to1.cpp

; 675  : }

  00072	6a 00		 push	 0
  00074	6a 00		 push	 0
  00076	8d 45 f0	 lea	 eax, DWORD PTR $T2[ebp]
  00079	c7 45 f0 00 00
	82 43		 mov	 DWORD PTR $T2[ebp], 1132593152 ; 43820000H
  00080	50		 push	 eax
  00081	8b 43 04	 mov	 eax, DWORD PTR [ebx+4]
  00084	8b cf		 mov	 ecx, edi
  00086	c7 45 f4 00 00
	96 42		 mov	 DWORD PTR $T2[ebp+4], 1117126656 ; 42960000H
  0008d	ff 74 30 10	 push	 DWORD PTR [eax+esi+16]
  00091	ff 35 00 00 00
	00		 push	 DWORD PTR ?g_uIdofMulti@@3KA ; g_uIdofMulti
  00097	e8 00 00 00 00	 call	 ?Replace@CMover@@QAEHKKAAUD3DXVECTOR3@@W4REPLACE_TYPE@@H@Z ; CMover::Replace
  0009c	8b 4d fc	 mov	 ecx, DWORD PTR __$ArrayPad$[ebp]
  0009f	5f		 pop	 edi
  000a0	5e		 pop	 esi
  000a1	33 cd		 xor	 ecx, ebp
  000a3	5b		 pop	 ebx
  000a4	e8 00 00 00 00	 call	 @__security_check_cookie@4
  000a9	8b e5		 mov	 esp, ebp
  000ab	5d		 pop	 ebp
  000ac	c2 04 00	 ret	 4
?SetTeleportToWarStage@CGuildCombat1to1@@QAEXPAVCUser@@@Z ENDP ; CGuildCombat1to1::SetTeleportToWarStage
_TEXT	ENDS
; Function compile flags: /Ogtp
; File C:\IAGOS\server\v18\Source\Source\_Common\GuildCombat1to1.cpp
; File C:\Program Files\Microsoft Visual Studio\2022\Professional\VC\Tools\MSVC\14.44.35207\include\vector
; File C:\IAGOS\server\v18\Source\Source\_Common\GuildCombat1to1.cpp
; File C:\IAGOS\server\v18\Source\Source\_Common\xUtil.h
; File C:\IAGOS\server\v18\Source\Source\_Common\GuildCombat1to1.cpp
; File C:\IAGOS\server\v18\Source\Source\_Common\xUtil.h
; File C:\IAGOS\server\v18\Source\Source\_Common\GuildCombat1to1.cpp
; File C:\IAGOS\server\v18\Source\Source\_Common\xUtil.h
; File C:\IAGOS\server\v18\Source\Source\_Common\GuildCombat1to1.cpp
; File C:\IAGOS\server\v18\Source\Source\_Common\xUtil.h
; File C:\IAGOS\server\v18\Source\Source\_Common\GuildCombat1to1.cpp
; File C:\IAGOS\server\v18\Source\Source\DX_SDK\d3dx9math.inl
; File C:\IAGOS\server\v18\Source\Source\_Common\GuildCombat1to1.cpp
; File C:\IAGOS\server\v18\Source\Source\DX_SDK\d3dx9math.inl
; File C:\IAGOS\server\v18\Source\Source\_Common\GuildCombat1to1.cpp
;	COMDAT ?SetTeleportToWaitStage@CGuildCombat1to1@@QAEXPAVCUser@@@Z
_TEXT	SEGMENT
tv398 = -24						; size = 4
_this$GSCopy$1$ = -20					; size = 4
$T1 = -16						; size = 12
__$ArrayPad$ = -4					; size = 4
_pUser$ = 8						; size = 4
?SetTeleportToWaitStage@CGuildCombat1to1@@QAEXPAVCUser@@@Z PROC ; CGuildCombat1to1::SetTeleportToWaitStage, COMDAT
; _this$ = ecx

; 634  : {

  00000	55		 push	 ebp
  00001	8b ec		 mov	 ebp, esp
  00003	83 ec 18	 sub	 esp, 24			; 00000018H
  00006	a1 00 00 00 00	 mov	 eax, DWORD PTR ___security_cookie
  0000b	33 c5		 xor	 eax, ebp
  0000d	89 45 fc	 mov	 DWORD PTR __$ArrayPad$[ebp], eax
  00010	53		 push	 ebx
  00011	56		 push	 esi
  00012	8b 75 08	 mov	 esi, DWORD PTR _pUser$[ebp]
  00015	8b d9		 mov	 ebx, ecx

; 635  : 	int nIndex = g_GuildCombat1to1Mng.GetTenderGuildIndexByUser( pUser );

  00017	56		 push	 esi
  00018	b9 00 00 00 00	 mov	 ecx, OFFSET ?g_GuildCombat1to1Mng@@3VCGuildCombat1to1Mng@@A ; g_GuildCombat1to1Mng
  0001d	89 5d ec	 mov	 DWORD PTR _this$GSCopy$1$[ebp], ebx
  00020	e8 00 00 00 00	 call	 ?GetTenderGuildIndexByUser@CGuildCombat1to1Mng@@QAEHPAVCUser@@@Z ; CGuildCombat1to1Mng::GetTenderGuildIndexByUser
; File C:\Program Files\Microsoft Visual Studio\2022\Professional\VC\Tools\MSVC\14.44.35207\include\vector

; 1934 :         return _My_data._Myfirst[_Pos];

  00025	6b c8 2c	 imul	 ecx, eax, 44
  00028	8b 43 04	 mov	 eax, DWORD PTR [ebx+4]
  0002b	89 4d e8	 mov	 DWORD PTR tv398[ebp], ecx
; File C:\IAGOS\server\v18\Source\Source\_Common\GuildCombat1to1.cpp

; 636  : 	if( !g_WorldMng.GetWorld( m_vecTenderGuild[nIndex].dwWorldId ) )

  0002e	ff 74 08 10	 push	 DWORD PTR [eax+ecx+16]
  00032	b9 00 00 00 00	 mov	 ecx, OFFSET ?g_WorldMng@@3VCWorldMng@@A ; g_WorldMng
  00037	e8 00 00 00 00	 call	 ?GetWorld@CWorldMng@@QAEPAVCWorld@@K@Z ; CWorldMng::GetWorld
  0003c	85 c0		 test	 eax, eax
  0003e	75 1e		 jne	 SHORT $LN2@SetTelepor

; 637  : 	{
; 638  : 		pUser->AddText( "Not Exist World" );

  00040	68 00 00 00 00	 push	 OFFSET ??_C@_0BA@CPGKGMAH@Not?5Exist?5World@
  00045	8b ce		 mov	 ecx, esi
  00047	e8 00 00 00 00	 call	 ?AddText@CUser@@QAEXPBD@Z ; CUser::AddText
  0004c	5e		 pop	 esi

; 655  : 	}
; 656  : }

  0004d	5b		 pop	 ebx
  0004e	8b 4d fc	 mov	 ecx, DWORD PTR __$ArrayPad$[ebp]
  00051	33 cd		 xor	 ecx, ebp
  00053	e8 00 00 00 00	 call	 @__security_check_cookie@4
  00058	8b e5		 mov	 esp, ebp
  0005a	5d		 pop	 ebp
  0005b	c2 04 00	 ret	 4
$LN2@SetTelepor:
  0005e	57		 push	 edi

; 639  : 		return;
; 640  : 	}
; 641  : 	pUser->m_nGuildCombatState = 2; // °üŔüŔÚ ¸đµĺ
; 642  : 	g_UserMng.AddGuildCombatUserState( pUser );

  0005f	56		 push	 esi
  00060	b9 00 00 00 00	 mov	 ecx, OFFSET ?g_UserMng@@3VCUserMng@@A ; g_UserMng
  00065	c7 86 b0 0d 00
	00 02 00 00 00	 mov	 DWORD PTR [esi+3504], 2
  0006f	e8 00 00 00 00	 call	 ?AddGuildCombatUserState@CUserMng@@QAEXPAVCMover@@@Z ; CUserMng::AddGuildCombatUserState
; File C:\IAGOS\server\v18\Source\Source\_Common\xUtil.h

; 16   : 	g_next = g_next * 1103515245 + 12345;// + nRandomSeed[ i++ ];

  00074	69 05 00 00 00
	00 6d 4e c6 41	 imul	 eax, DWORD PTR ?g_next@@3KA, 1103515245 ; g_next
; File C:\IAGOS\server\v18\Source\Source\_Common\GuildCombat1to1.cpp

; 646  : 	if( m_vecTenderGuild[nIndex].nPosition == 0 )

  0007e	8b 4d e8	 mov	 ecx, DWORD PTR tv398[ebp]
  00081	51		 push	 ecx
; File C:\IAGOS\server\v18\Source\Source\_Common\xUtil.h

; 16   : 	g_next = g_next * 1103515245 + 12345;// + nRandomSeed[ i++ ];

  00082	05 39 30 00 00	 add	 eax, 12345		; 00003039H
; File C:\IAGOS\server\v18\Source\Source\_Common\GuildCombat1to1.cpp

; 644  : 	int nRandx = xRandom(4) - 2;

  00087	69 f8 6d 4e c6
	41		 imul	 edi, eax, 1103515245
; File C:\IAGOS\server\v18\Source\Source\_Common\xUtil.h

; 16   : 	g_next = g_next * 1103515245 + 12345;// + nRandomSeed[ i++ ];

  0008d	8b d8		 mov	 ebx, eax
; File C:\IAGOS\server\v18\Source\Source\_Common\GuildCombat1to1.cpp

; 646  : 	if( m_vecTenderGuild[nIndex].nPosition == 0 )

  0008f	8b 45 ec	 mov	 eax, DWORD PTR _this$GSCopy$1$[ebp]
; File C:\IAGOS\server\v18\Source\Source\_Common\xUtil.h

; 16   : 	g_next = g_next * 1103515245 + 12345;// + nRandomSeed[ i++ ];

  00092	83 e3 03	 and	 ebx, 3
  00095	81 c7 39 30 00
	00		 add	 edi, 12345		; 00003039H
  0009b	89 3d 00 00 00
	00		 mov	 DWORD PTR ?g_next@@3KA, edi ; g_next
  000a1	83 e7 03	 and	 edi, 3
; File C:\IAGOS\server\v18\Source\Source\_Common\GuildCombat1to1.cpp

; 646  : 	if( m_vecTenderGuild[nIndex].nPosition == 0 )

  000a4	8b 40 04	 mov	 eax, DWORD PTR [eax+4]
  000a7	83 7c 08 0c 00	 cmp	 DWORD PTR [eax+ecx+12], 0
  000ac	8b ce		 mov	 ecx, esi
  000ae	75 1e		 jne	 SHORT $LN3@SetTelepor

; 647  : 	{
; 648  : 		pUser->SetAngle( 0 );

  000b0	c7 04 24 00 00
	00 00		 mov	 DWORD PTR [esp], 0
  000b7	e8 00 00 00 00	 call	 ?SetAngle@CObj@@QAEXM@Z	; CObj::SetAngle

; 649  : 		pUser->REPLACE( g_uIdofMulti, m_vecTenderGuild[nIndex].dwWorldId, D3DXVECTOR3( (float)( 256+nRandx ), 90.0f, (float)( 277+nRandz ) ), REPLACE_NORMAL, nDefaultLayer );

  000bc	8d 83 fe 00 00
	00		 lea	 eax, DWORD PTR [ebx+254]
  000c2	66 0f 6e c0	 movd	 xmm0, eax
  000c6	8d 87 13 01 00
	00		 lea	 eax, DWORD PTR [edi+275]

; 650  : 	}

  000cc	eb 1c		 jmp	 SHORT $LN33@SetTelepor
$LN3@SetTelepor:

; 651  : 	else
; 652  : 	{
; 653  : 		pUser->SetAngle( 180 );

  000ce	c7 04 24 00 00
	34 43		 mov	 DWORD PTR [esp], 1127481344 ; 43340000H
  000d5	e8 00 00 00 00	 call	 ?SetAngle@CObj@@QAEXM@Z	; CObj::SetAngle

; 654  : 		pUser->REPLACE( g_uIdofMulti, m_vecTenderGuild[nIndex].dwWorldId, D3DXVECTOR3( (float)( 272+nRandx ), 90.0f, (float)( 212+nRandz ) ), REPLACE_NORMAL, nDefaultLayer );

  000da	8d 83 0e 01 00
	00		 lea	 eax, DWORD PTR [ebx+270]
  000e0	66 0f 6e c0	 movd	 xmm0, eax
  000e4	8d 87 d2 00 00
	00		 lea	 eax, DWORD PTR [edi+210]
$LN33@SetTelepor:
  000ea	8b 4d e8	 mov	 ecx, DWORD PTR tv398[ebp]
  000ed	0f 5b c0	 cvtdq2ps xmm0, xmm0
  000f0	6a 00		 push	 0
  000f2	6a 00		 push	 0
; File C:\IAGOS\server\v18\Source\Source\DX_SDK\d3dx9math.inl

; 301  :     y = fy;

  000f4	c7 45 f4 00 00
	b4 42		 mov	 DWORD PTR $T1[ebp+4], 1119092736 ; 42b40000H
  000fb	f3 0f 11 45 f0	 movss	 DWORD PTR $T1[ebp], xmm0
  00100	66 0f 6e c0	 movd	 xmm0, eax
; File C:\IAGOS\server\v18\Source\Source\_Common\GuildCombat1to1.cpp

; 654  : 		pUser->REPLACE( g_uIdofMulti, m_vecTenderGuild[nIndex].dwWorldId, D3DXVECTOR3( (float)( 272+nRandx ), 90.0f, (float)( 212+nRandz ) ), REPLACE_NORMAL, nDefaultLayer );

  00104	8d 45 f0	 lea	 eax, DWORD PTR $T1[ebp]
  00107	50		 push	 eax
  00108	8b 45 ec	 mov	 eax, DWORD PTR _this$GSCopy$1$[ebp]
  0010b	0f 5b c0	 cvtdq2ps xmm0, xmm0
  0010e	8b 40 04	 mov	 eax, DWORD PTR [eax+4]
; File C:\IAGOS\server\v18\Source\Source\DX_SDK\d3dx9math.inl

; 302  :     z = fz;

  00111	f3 0f 11 45 f8	 movss	 DWORD PTR $T1[ebp+8], xmm0
; File C:\IAGOS\server\v18\Source\Source\_Common\GuildCombat1to1.cpp

; 654  : 		pUser->REPLACE( g_uIdofMulti, m_vecTenderGuild[nIndex].dwWorldId, D3DXVECTOR3( (float)( 272+nRandx ), 90.0f, (float)( 212+nRandz ) ), REPLACE_NORMAL, nDefaultLayer );

  00116	ff 74 08 10	 push	 DWORD PTR [eax+ecx+16]
  0011a	8b ce		 mov	 ecx, esi
  0011c	ff 35 00 00 00
	00		 push	 DWORD PTR ?g_uIdofMulti@@3KA ; g_uIdofMulti
  00122	e8 00 00 00 00	 call	 ?Replace@CMover@@QAEHKKAAUD3DXVECTOR3@@W4REPLACE_TYPE@@H@Z ; CMover::Replace

; 655  : 	}
; 656  : }

  00127	8b 4d fc	 mov	 ecx, DWORD PTR __$ArrayPad$[ebp]
  0012a	5f		 pop	 edi
  0012b	5e		 pop	 esi
  0012c	33 cd		 xor	 ecx, ebp
  0012e	5b		 pop	 ebx
  0012f	e8 00 00 00 00	 call	 @__security_check_cookie@4
  00134	8b e5		 mov	 esp, ebp
  00136	5d		 pop	 ebp
  00137	c2 04 00	 ret	 4
?SetTeleportToWaitStage@CGuildCombat1to1@@QAEXPAVCUser@@@Z ENDP ; CGuildCombat1to1::SetTeleportToWaitStage
_TEXT	ENDS
; Function compile flags: /Ogtp
; File C:\IAGOS\server\v18\Source\Source\_Common\GuildCombat1to1.cpp
; File C:\Program Files\Microsoft Visual Studio\2022\Professional\VC\Tools\MSVC\14.44.35207\include\vector
; File C:\IAGOS\server\v18\Source\Source\_Common\GuildCombat1to1.cpp
; File C:\Program Files\Microsoft Visual Studio\2022\Professional\VC\Tools\MSVC\14.44.35207\include\vector
; File C:\IAGOS\server\v18\Source\Source\_Common\GuildCombat1to1.cpp
; File C:\Program Files\Microsoft Visual Studio\2022\Professional\VC\Tools\MSVC\14.44.35207\include\vector
; File C:\IAGOS\server\v18\Source\Source\_Common\GuildCombat1to1.cpp
; File C:\Program Files\Microsoft Visual Studio\2022\Professional\VC\Tools\MSVC\14.44.35207\include\vector
; File C:\IAGOS\server\v18\Source\Source\_Common\GuildCombat1to1.cpp
; File C:\Program Files\Microsoft Visual Studio\2022\Professional\VC\Tools\MSVC\14.44.35207\include\vector
; File C:\IAGOS\server\v18\Source\Source\_Common\GuildCombat1to1.cpp
; File C:\Program Files\Microsoft Visual Studio\2022\Professional\VC\Tools\MSVC\14.44.35207\include\vector
; File C:\IAGOS\server\v18\Source\Source\_Common\GuildCombat1to1.cpp
; File C:\Program Files\Microsoft Visual Studio\2022\Professional\VC\Tools\MSVC\14.44.35207\include\vector
; File C:\IAGOS\server\v18\Source\Source\_Common\GuildCombat1to1.cpp
; File C:\Program Files\Microsoft Visual Studio\2022\Professional\VC\Tools\MSVC\14.44.35207\include\vector
; File C:\IAGOS\server\v18\Source\Source\_Common\GuildCombat1to1.cpp
; File C:\Program Files\Microsoft Visual Studio\2022\Professional\VC\Tools\MSVC\14.44.35207\include\vector
; File C:\IAGOS\server\v18\Source\Source\_Common\GuildCombat1to1.cpp
; File C:\Program Files\Microsoft Visual Studio\2022\Professional\VC\Tools\MSVC\14.44.35207\include\vector
; File C:\IAGOS\server\v18\Source\Source\_Common\GuildCombat1to1.cpp
; File C:\Program Files\Microsoft Visual Studio\2022\Professional\VC\Tools\MSVC\14.44.35207\include\vector
; File C:\IAGOS\server\v18\Source\Source\_Common\GuildCombat1to1.cpp
; File C:\Program Files\Microsoft Visual Studio\2022\Professional\VC\Tools\MSVC\14.44.35207\include\vector
; File C:\IAGOS\server\v18\Source\Source\_Common\GuildCombat1to1.cpp
; File C:\Program Files\Microsoft Visual Studio\2022\Professional\VC\Tools\MSVC\14.44.35207\include\vector
; File C:\IAGOS\server\v18\Source\Source\_Common\GuildCombat1to1.cpp
; File C:\Program Files\Microsoft Visual Studio\2022\Professional\VC\Tools\MSVC\14.44.35207\include\vector
; File C:\IAGOS\server\v18\Source\Source\_Common\GuildCombat1to1.cpp
; File C:\Program Files\Microsoft Visual Studio\2022\Professional\VC\Tools\MSVC\14.44.35207\include\vector
; File C:\IAGOS\server\v18\Source\Source\_Common\GuildCombat1to1.cpp
; File C:\Program Files\Microsoft Visual Studio\2022\Professional\VC\Tools\MSVC\14.44.35207\include\vector
; File C:\IAGOS\server\v18\Source\Source\_Common\GuildCombat1to1.cpp
; File C:\Program Files\Microsoft Visual Studio\2022\Professional\VC\Tools\MSVC\14.44.35207\include\vector
; File C:\IAGOS\server\v18\Source\Source\_Common\GuildCombat1to1.cpp
; File C:\Program Files\Microsoft Visual Studio\2022\Professional\VC\Tools\MSVC\14.44.35207\include\vector
; File C:\IAGOS\server\v18\Source\Source\_Common\GuildCombat1to1.cpp
; File C:\Program Files\Microsoft Visual Studio\2022\Professional\VC\Tools\MSVC\14.44.35207\include\vector
; File C:\IAGOS\server\v18\Source\Source\_Common\GuildCombat1to1.cpp
; File C:\Program Files\Microsoft Visual Studio\2022\Professional\VC\Tools\MSVC\14.44.35207\include\vector
; File C:\IAGOS\server\v18\Source\Source\_Common\GuildCombat1to1.cpp
;	COMDAT ?SetLastWinState@CGuildCombat1to1@@QAEXH@Z
_TEXT	SEGMENT
_nIndex$ = 8						; size = 4
?SetLastWinState@CGuildCombat1to1@@QAEXH@Z PROC		; CGuildCombat1to1::SetLastWinState, COMDAT
; _this$ = ecx

; 557  : {

  00000	55		 push	 ebp
  00001	8b ec		 mov	 ebp, esp

; 560  : 		m_vecTenderGuild[m_nIndex[i]].nNowPlayerLife = g_GuildCombat1to1Mng.m_nPlayerLife;

  00003	a1 2c 00 00 00	 mov	 eax, DWORD PTR ?g_GuildCombat1to1Mng@@3VCGuildCombat1to1Mng@@A+44
  00008	56		 push	 esi
  00009	57		 push	 edi
  0000a	8b f9		 mov	 edi, ecx
; File C:\Program Files\Microsoft Visual Studio\2022\Professional\VC\Tools\MSVC\14.44.35207\include\vector

; 1934 :         return _My_data._Myfirst[_Pos];

  0000c	6b 77 24 2c	 imul	 esi, DWORD PTR [edi+36], 44
; File C:\IAGOS\server\v18\Source\Source\_Common\GuildCombat1to1.cpp

; 560  : 		m_vecTenderGuild[m_nIndex[i]].nNowPlayerLife = g_GuildCombat1to1Mng.m_nPlayerLife;

  00010	8b 57 04	 mov	 edx, DWORD PTR [edi+4]
  00013	89 44 16 18	 mov	 DWORD PTR [esi+edx+24], eax
; File C:\Program Files\Microsoft Visual Studio\2022\Professional\VC\Tools\MSVC\14.44.35207\include\vector

; 1934 :         return _My_data._Myfirst[_Pos];

  00017	6b 57 28 2c	 imul	 edx, DWORD PTR [edi+40], 44
; File C:\IAGOS\server\v18\Source\Source\_Common\GuildCombat1to1.cpp

; 560  : 		m_vecTenderGuild[m_nIndex[i]].nNowPlayerLife = g_GuildCombat1to1Mng.m_nPlayerLife;

  0001b	8b 4f 04	 mov	 ecx, DWORD PTR [edi+4]
  0001e	a1 2c 00 00 00	 mov	 eax, DWORD PTR ?g_GuildCombat1to1Mng@@3VCGuildCombat1to1Mng@@A+44
  00023	89 44 0a 18	 mov	 DWORD PTR [edx+ecx+24], eax

; 561  : 
; 562  : 	switch( nIndex )

  00027	8b 45 08	 mov	 eax, DWORD PTR _nIndex$[ebp]
  0002a	83 e8 00	 sub	 eax, 0
  0002d	0f 84 df 00 00
	00		 je	 $LN7@SetLastWin
  00033	83 e8 01	 sub	 eax, 1
  00036	74 75		 je	 SHORT $LN10@SetLastWin
  00038	83 e8 01	 sub	 eax, 1
  0003b	0f 85 43 01 00
	00		 jne	 $LN9@SetLastWin
; File C:\Program Files\Microsoft Visual Studio\2022\Professional\VC\Tools\MSVC\14.44.35207\include\vector

; 1934 :         return _My_data._Myfirst[_Pos];

  00041	6b 4f 24 2c	 imul	 ecx, DWORD PTR [edi+36], 44
; File C:\IAGOS\server\v18\Source\Source\_Common\GuildCombat1to1.cpp

; 583  : 			m_vecTenderGuild[m_nIndex[0]].nLastWinState = g_GuildCombat1to1Mng.GC1TO1_PLAYER_DRAW;

  00045	8b 47 04	 mov	 eax, DWORD PTR [edi+4]
  00048	c7 44 01 1c cc
	00 00 00	 mov	 DWORD PTR [ecx+eax+28], 204 ; 000000ccH
; File C:\Program Files\Microsoft Visual Studio\2022\Professional\VC\Tools\MSVC\14.44.35207\include\vector

; 1934 :         return _My_data._Myfirst[_Pos];

  00050	6b 4f 24 2c	 imul	 ecx, DWORD PTR [edi+36], 44
; File C:\IAGOS\server\v18\Source\Source\_Common\GuildCombat1to1.cpp

; 584  : 			if( (int)( m_vecTenderGuild[m_nIndex[0]].vecMemberId.size() ) > m_nProgWarCount	)

  00054	8b 77 1c	 mov	 esi, DWORD PTR [edi+28]
; File C:\Program Files\Microsoft Visual Studio\2022\Professional\VC\Tools\MSVC\14.44.35207\include\vector

; 1914 :         auto& _My_data = _Mypair._Myval2;

  00057	03 4f 04	 add	 ecx, DWORD PTR [edi+4]

; 1915 :         return static_cast<size_type>(_My_data._Mylast - _My_data._Myfirst);

  0005a	8b 41 24	 mov	 eax, DWORD PTR [ecx+36]
  0005d	8b 51 20	 mov	 edx, DWORD PTR [ecx+32]
  00060	2b c2		 sub	 eax, edx
  00062	c1 f8 02	 sar	 eax, 2
; File C:\IAGOS\server\v18\Source\Source\_Common\GuildCombat1to1.cpp

; 584  : 			if( (int)( m_vecTenderGuild[m_nIndex[0]].vecMemberId.size() ) > m_nProgWarCount	)

  00065	3b c6		 cmp	 eax, esi
  00067	7e 11		 jle	 SHORT $LN14@SetLastWin

; 585  : 				g_dpDBClient.SendGC1to1WarPerson( m_vecTenderGuild[m_nIndex[0]].ulGuildId, m_vecTenderGuild[m_nIndex[0]].vecMemberId[m_nProgWarCount], 'D' );

  00069	6a 44		 push	 68			; 00000044H
  0006b	ff 34 b2	 push	 DWORD PTR [edx+esi*4]
  0006e	ff 31		 push	 DWORD PTR [ecx]
  00070	b9 00 00 00 00	 mov	 ecx, OFFSET ?g_dpDBClient@@3VCDPDatabaseClient@@A ; g_dpDBClient
  00075	e8 00 00 00 00	 call	 ?SendGC1to1WarPerson@CDPDatabaseClient@@QAEXKKD@Z ; CDPDatabaseClient::SendGC1to1WarPerson
$LN14@SetLastWin:
; File C:\Program Files\Microsoft Visual Studio\2022\Professional\VC\Tools\MSVC\14.44.35207\include\vector

; 1934 :         return _My_data._Myfirst[_Pos];

  0007a	6b 4f 28 2c	 imul	 ecx, DWORD PTR [edi+40], 44
; File C:\IAGOS\server\v18\Source\Source\_Common\GuildCombat1to1.cpp

; 586  : 			m_vecTenderGuild[m_nIndex[1]].nLastWinState = g_GuildCombat1to1Mng.GC1TO1_PLAYER_DRAW;

  0007e	8b 47 04	 mov	 eax, DWORD PTR [edi+4]
  00081	c7 44 01 1c cc
	00 00 00	 mov	 DWORD PTR [ecx+eax+28], 204 ; 000000ccH
; File C:\Program Files\Microsoft Visual Studio\2022\Professional\VC\Tools\MSVC\14.44.35207\include\vector

; 1934 :         return _My_data._Myfirst[_Pos];

  00089	6b 4f 28 2c	 imul	 ecx, DWORD PTR [edi+40], 44
; File C:\IAGOS\server\v18\Source\Source\_Common\GuildCombat1to1.cpp

; 587  : 			if( (int)( m_vecTenderGuild[m_nIndex[1]].vecMemberId.size() ) > m_nProgWarCount	)

  0008d	8b 77 1c	 mov	 esi, DWORD PTR [edi+28]
; File C:\Program Files\Microsoft Visual Studio\2022\Professional\VC\Tools\MSVC\14.44.35207\include\vector

; 1914 :         auto& _My_data = _Mypair._Myval2;

  00090	03 4f 04	 add	 ecx, DWORD PTR [edi+4]

; 1915 :         return static_cast<size_type>(_My_data._Mylast - _My_data._Myfirst);

  00093	8b 41 24	 mov	 eax, DWORD PTR [ecx+36]
  00096	8b 51 20	 mov	 edx, DWORD PTR [ecx+32]
  00099	2b c2		 sub	 eax, edx
  0009b	c1 f8 02	 sar	 eax, 2
; File C:\IAGOS\server\v18\Source\Source\_Common\GuildCombat1to1.cpp

; 587  : 			if( (int)( m_vecTenderGuild[m_nIndex[1]].vecMemberId.size() ) > m_nProgWarCount	)

  0009e	3b c6		 cmp	 eax, esi
  000a0	0f 8e de 00 00
	00		 jle	 $LN9@SetLastWin

; 588  : 				g_dpDBClient.SendGC1to1WarPerson( m_vecTenderGuild[m_nIndex[1]].ulGuildId, m_vecTenderGuild[m_nIndex[1]].vecMemberId[m_nProgWarCount], 'D' );

  000a6	6a 44		 push	 68			; 00000044H
  000a8	e9 c8 00 00 00	 jmp	 $LN143@SetLastWin
$LN10@SetLastWin:
; File C:\Program Files\Microsoft Visual Studio\2022\Professional\VC\Tools\MSVC\14.44.35207\include\vector

; 1934 :         return _My_data._Myfirst[_Pos];

  000ad	6b 4f 24 2c	 imul	 ecx, DWORD PTR [edi+36], 44
; File C:\IAGOS\server\v18\Source\Source\_Common\GuildCombat1to1.cpp

; 574  : 			m_vecTenderGuild[m_nIndex[0]].nLastWinState = g_GuildCombat1to1Mng.GC1TO1_PLAYER_LOSE;

  000b1	8b 47 04	 mov	 eax, DWORD PTR [edi+4]
  000b4	c7 44 01 1c cb
	00 00 00	 mov	 DWORD PTR [ecx+eax+28], 203 ; 000000cbH
; File C:\Program Files\Microsoft Visual Studio\2022\Professional\VC\Tools\MSVC\14.44.35207\include\vector

; 1934 :         return _My_data._Myfirst[_Pos];

  000bc	6b 4f 24 2c	 imul	 ecx, DWORD PTR [edi+36], 44
; File C:\IAGOS\server\v18\Source\Source\_Common\GuildCombat1to1.cpp

; 575  : 			if( (int)( m_vecTenderGuild[m_nIndex[0]].vecMemberId.size() ) > m_nProgWarCount	)

  000c0	8b 77 1c	 mov	 esi, DWORD PTR [edi+28]
; File C:\Program Files\Microsoft Visual Studio\2022\Professional\VC\Tools\MSVC\14.44.35207\include\vector

; 1914 :         auto& _My_data = _Mypair._Myval2;

  000c3	03 4f 04	 add	 ecx, DWORD PTR [edi+4]

; 1915 :         return static_cast<size_type>(_My_data._Mylast - _My_data._Myfirst);

  000c6	8b 41 24	 mov	 eax, DWORD PTR [ecx+36]
  000c9	8b 51 20	 mov	 edx, DWORD PTR [ecx+32]
  000cc	2b c2		 sub	 eax, edx
  000ce	c1 f8 02	 sar	 eax, 2
; File C:\IAGOS\server\v18\Source\Source\_Common\GuildCombat1to1.cpp

; 575  : 			if( (int)( m_vecTenderGuild[m_nIndex[0]].vecMemberId.size() ) > m_nProgWarCount	)

  000d1	3b c6		 cmp	 eax, esi
  000d3	7e 11		 jle	 SHORT $LN11@SetLastWin

; 576  : 				g_dpDBClient.SendGC1to1WarPerson( m_vecTenderGuild[m_nIndex[0]].ulGuildId, m_vecTenderGuild[m_nIndex[0]].vecMemberId[m_nProgWarCount], 'L' );

  000d5	6a 4c		 push	 76			; 0000004cH
  000d7	ff 34 b2	 push	 DWORD PTR [edx+esi*4]
  000da	ff 31		 push	 DWORD PTR [ecx]
  000dc	b9 00 00 00 00	 mov	 ecx, OFFSET ?g_dpDBClient@@3VCDPDatabaseClient@@A ; g_dpDBClient
  000e1	e8 00 00 00 00	 call	 ?SendGC1to1WarPerson@CDPDatabaseClient@@QAEXKKD@Z ; CDPDatabaseClient::SendGC1to1WarPerson
$LN11@SetLastWin:
; File C:\Program Files\Microsoft Visual Studio\2022\Professional\VC\Tools\MSVC\14.44.35207\include\vector

; 1934 :         return _My_data._Myfirst[_Pos];

  000e6	6b 4f 28 2c	 imul	 ecx, DWORD PTR [edi+40], 44
; File C:\IAGOS\server\v18\Source\Source\_Common\GuildCombat1to1.cpp

; 577  : 			m_vecTenderGuild[m_nIndex[1]].nLastWinState = g_GuildCombat1to1Mng.GC1TO1_PLAYER_WIN;

  000ea	8b 47 04	 mov	 eax, DWORD PTR [edi+4]
  000ed	c7 44 01 1c ca
	00 00 00	 mov	 DWORD PTR [ecx+eax+28], 202 ; 000000caH
; File C:\Program Files\Microsoft Visual Studio\2022\Professional\VC\Tools\MSVC\14.44.35207\include\vector

; 1934 :         return _My_data._Myfirst[_Pos];

  000f5	6b 4f 28 2c	 imul	 ecx, DWORD PTR [edi+40], 44
; File C:\IAGOS\server\v18\Source\Source\_Common\GuildCombat1to1.cpp

; 578  : 			if( (int)( m_vecTenderGuild[m_nIndex[1]].vecMemberId.size() ) > m_nProgWarCount	)

  000f9	8b 77 1c	 mov	 esi, DWORD PTR [edi+28]
; File C:\Program Files\Microsoft Visual Studio\2022\Professional\VC\Tools\MSVC\14.44.35207\include\vector

; 1914 :         auto& _My_data = _Mypair._Myval2;

  000fc	03 4f 04	 add	 ecx, DWORD PTR [edi+4]

; 1915 :         return static_cast<size_type>(_My_data._Mylast - _My_data._Myfirst);

  000ff	8b 41 24	 mov	 eax, DWORD PTR [ecx+36]
  00102	8b 51 20	 mov	 edx, DWORD PTR [ecx+32]
  00105	2b c2		 sub	 eax, edx
  00107	c1 f8 02	 sar	 eax, 2
; File C:\IAGOS\server\v18\Source\Source\_Common\GuildCombat1to1.cpp

; 578  : 			if( (int)( m_vecTenderGuild[m_nIndex[1]].vecMemberId.size() ) > m_nProgWarCount	)

  0010a	3b c6		 cmp	 eax, esi
  0010c	7e 76		 jle	 SHORT $LN9@SetLastWin

; 579  : 				g_dpDBClient.SendGC1to1WarPerson( m_vecTenderGuild[m_nIndex[1]].ulGuildId, m_vecTenderGuild[m_nIndex[1]].vecMemberId[m_nProgWarCount], 'W' );

  0010e	6a 57		 push	 87			; 00000057H

; 580  : 			break;

  00110	eb 63		 jmp	 SHORT $LN143@SetLastWin
$LN7@SetLastWin:
; File C:\Program Files\Microsoft Visual Studio\2022\Professional\VC\Tools\MSVC\14.44.35207\include\vector

; 1934 :         return _My_data._Myfirst[_Pos];

  00112	6b 4f 24 2c	 imul	 ecx, DWORD PTR [edi+36], 44
; File C:\IAGOS\server\v18\Source\Source\_Common\GuildCombat1to1.cpp

; 565  : 			m_vecTenderGuild[m_nIndex[0]].nLastWinState = g_GuildCombat1to1Mng.GC1TO1_PLAYER_WIN;

  00116	8b 47 04	 mov	 eax, DWORD PTR [edi+4]
  00119	c7 44 01 1c ca
	00 00 00	 mov	 DWORD PTR [ecx+eax+28], 202 ; 000000caH
; File C:\Program Files\Microsoft Visual Studio\2022\Professional\VC\Tools\MSVC\14.44.35207\include\vector

; 1934 :         return _My_data._Myfirst[_Pos];

  00121	6b 4f 24 2c	 imul	 ecx, DWORD PTR [edi+36], 44
; File C:\IAGOS\server\v18\Source\Source\_Common\GuildCombat1to1.cpp

; 566  : 			if( (int)( m_vecTenderGuild[m_nIndex[0]].vecMemberId.size() ) > m_nProgWarCount	)

  00125	8b 77 1c	 mov	 esi, DWORD PTR [edi+28]
; File C:\Program Files\Microsoft Visual Studio\2022\Professional\VC\Tools\MSVC\14.44.35207\include\vector

; 1914 :         auto& _My_data = _Mypair._Myval2;

  00128	03 4f 04	 add	 ecx, DWORD PTR [edi+4]

; 1915 :         return static_cast<size_type>(_My_data._Mylast - _My_data._Myfirst);

  0012b	8b 41 24	 mov	 eax, DWORD PTR [ecx+36]
  0012e	8b 51 20	 mov	 edx, DWORD PTR [ecx+32]
  00131	2b c2		 sub	 eax, edx
  00133	c1 f8 02	 sar	 eax, 2
; File C:\IAGOS\server\v18\Source\Source\_Common\GuildCombat1to1.cpp

; 566  : 			if( (int)( m_vecTenderGuild[m_nIndex[0]].vecMemberId.size() ) > m_nProgWarCount	)

  00136	3b c6		 cmp	 eax, esi
  00138	7e 11		 jle	 SHORT $LN8@SetLastWin

; 567  : 				g_dpDBClient.SendGC1to1WarPerson( m_vecTenderGuild[m_nIndex[0]].ulGuildId, m_vecTenderGuild[m_nIndex[0]].vecMemberId[m_nProgWarCount], 'W' );

  0013a	6a 57		 push	 87			; 00000057H
  0013c	ff 34 b2	 push	 DWORD PTR [edx+esi*4]
  0013f	ff 31		 push	 DWORD PTR [ecx]
  00141	b9 00 00 00 00	 mov	 ecx, OFFSET ?g_dpDBClient@@3VCDPDatabaseClient@@A ; g_dpDBClient
  00146	e8 00 00 00 00	 call	 ?SendGC1to1WarPerson@CDPDatabaseClient@@QAEXKKD@Z ; CDPDatabaseClient::SendGC1to1WarPerson
$LN8@SetLastWin:
; File C:\Program Files\Microsoft Visual Studio\2022\Professional\VC\Tools\MSVC\14.44.35207\include\vector

; 1934 :         return _My_data._Myfirst[_Pos];

  0014b	6b 4f 28 2c	 imul	 ecx, DWORD PTR [edi+40], 44
; File C:\IAGOS\server\v18\Source\Source\_Common\GuildCombat1to1.cpp

; 568  : 			m_vecTenderGuild[m_nIndex[1]].nLastWinState = g_GuildCombat1to1Mng.GC1TO1_PLAYER_LOSE;

  0014f	8b 47 04	 mov	 eax, DWORD PTR [edi+4]
  00152	c7 44 01 1c cb
	00 00 00	 mov	 DWORD PTR [ecx+eax+28], 203 ; 000000cbH
; File C:\Program Files\Microsoft Visual Studio\2022\Professional\VC\Tools\MSVC\14.44.35207\include\vector

; 1934 :         return _My_data._Myfirst[_Pos];

  0015a	6b 4f 28 2c	 imul	 ecx, DWORD PTR [edi+40], 44
; File C:\IAGOS\server\v18\Source\Source\_Common\GuildCombat1to1.cpp

; 569  : 			if( (int)( m_vecTenderGuild[m_nIndex[1]].vecMemberId.size() ) > m_nProgWarCount	)

  0015e	8b 77 1c	 mov	 esi, DWORD PTR [edi+28]
; File C:\Program Files\Microsoft Visual Studio\2022\Professional\VC\Tools\MSVC\14.44.35207\include\vector

; 1914 :         auto& _My_data = _Mypair._Myval2;

  00161	03 4f 04	 add	 ecx, DWORD PTR [edi+4]

; 1915 :         return static_cast<size_type>(_My_data._Mylast - _My_data._Myfirst);

  00164	8b 41 24	 mov	 eax, DWORD PTR [ecx+36]
  00167	8b 51 20	 mov	 edx, DWORD PTR [ecx+32]
  0016a	2b c2		 sub	 eax, edx
  0016c	c1 f8 02	 sar	 eax, 2
; File C:\IAGOS\server\v18\Source\Source\_Common\GuildCombat1to1.cpp

; 569  : 			if( (int)( m_vecTenderGuild[m_nIndex[1]].vecMemberId.size() ) > m_nProgWarCount	)

  0016f	3b c6		 cmp	 eax, esi
  00171	7e 11		 jle	 SHORT $LN9@SetLastWin

; 570  : 				g_dpDBClient.SendGC1to1WarPerson( m_vecTenderGuild[m_nIndex[1]].ulGuildId, m_vecTenderGuild[m_nIndex[1]].vecMemberId[m_nProgWarCount], 'L' );

  00173	6a 4c		 push	 76			; 0000004cH
$LN143@SetLastWin:

; 589  : 			break;
; 590  : 	}
; 591  : }

  00175	ff 34 b2	 push	 DWORD PTR [edx+esi*4]
  00178	ff 31		 push	 DWORD PTR [ecx]
  0017a	b9 00 00 00 00	 mov	 ecx, OFFSET ?g_dpDBClient@@3VCDPDatabaseClient@@A ; g_dpDBClient
  0017f	e8 00 00 00 00	 call	 ?SendGC1to1WarPerson@CDPDatabaseClient@@QAEXKKD@Z ; CDPDatabaseClient::SendGC1to1WarPerson
$LN9@SetLastWin:
  00184	5f		 pop	 edi
  00185	5e		 pop	 esi
  00186	5d		 pop	 ebp
  00187	c2 04 00	 ret	 4
?SetLastWinState@CGuildCombat1to1@@QAEXH@Z ENDP		; CGuildCombat1to1::SetLastWinState
_TEXT	ENDS
; Function compile flags: /Ogtp
; File C:\IAGOS\server\v18\Source\Source\_Common\GuildCombat1to1.cpp
; File C:\Program Files\Microsoft Visual Studio\2022\Professional\VC\Tools\MSVC\14.44.35207\include\vector
; File C:\IAGOS\server\v18\Source\Source\_Common\GuildCombat1to1.cpp
; File C:\Program Files\Microsoft Visual Studio\2022\Professional\VC\Tools\MSVC\14.44.35207\include\vector
; File C:\IAGOS\server\v18\Source\Source\_Common\GuildCombat1to1.cpp
; File C:\Program Files\Microsoft Visual Studio\2022\Professional\VC\Tools\MSVC\14.44.35207\include\vector
; File C:\IAGOS\server\v18\Source\Source\_Common\GuildCombat1to1.cpp
; File C:\Program Files\Microsoft Visual Studio\2022\Professional\VC\Tools\MSVC\14.44.35207\include\vector
; File C:\IAGOS\server\v18\Source\Source\_Common\GuildCombat1to1.cpp
; File C:\Program Files\Microsoft Visual Studio\2022\Professional\VC\Tools\MSVC\14.44.35207\include\xtree
; File C:\IAGOS\server\v18\Source\Source\_Common\GuildCombat1to1.cpp
; File C:\Program Files\Microsoft Visual Studio\2022\Professional\VC\Tools\MSVC\14.44.35207\include\xtree
; File C:\Program Files\Microsoft Visual Studio\2022\Professional\VC\Tools\MSVC\14.44.35207\include\type_traits
; File C:\Program Files\Microsoft Visual Studio\2022\Professional\VC\Tools\MSVC\14.44.35207\include\xtree
; File C:\Program Files\Microsoft Visual Studio\2022\Professional\VC\Tools\MSVC\14.44.35207\include\type_traits
; File C:\Program Files\Microsoft Visual Studio\2022\Professional\VC\Tools\MSVC\14.44.35207\include\xtree
; File C:\IAGOS\server\v18\Source\Source\_Common\Project.h
; File C:\IAGOS\server\v18\Source\Source\_Common\GuildCombat1to1.cpp
; File C:\Program Files\Microsoft Visual Studio\2022\Professional\VC\Tools\MSVC\14.44.35207\include\vector
; File C:\IAGOS\server\v18\Source\Source\_Common\GuildCombat1to1.cpp
; File C:\Program Files\Microsoft Visual Studio\2022\Professional\VC\Tools\MSVC\14.44.35207\include\vector
; File C:\IAGOS\server\v18\Source\Source\_Common\GuildCombat1to1.cpp
; File C:\Program Files\Microsoft Visual Studio\2022\Professional\VC\Tools\MSVC\14.44.35207\include\xtree
; File C:\IAGOS\server\v18\Source\Source\_Common\GuildCombat1to1.cpp
; File C:\Program Files\Microsoft Visual Studio\2022\Professional\VC\Tools\MSVC\14.44.35207\include\xtree
; File C:\Program Files\Microsoft Visual Studio\2022\Professional\VC\Tools\MSVC\14.44.35207\include\type_traits
; File C:\Program Files\Microsoft Visual Studio\2022\Professional\VC\Tools\MSVC\14.44.35207\include\xtree
; File C:\Program Files\Microsoft Visual Studio\2022\Professional\VC\Tools\MSVC\14.44.35207\include\type_traits
; File C:\Program Files\Microsoft Visual Studio\2022\Professional\VC\Tools\MSVC\14.44.35207\include\xtree
; File C:\IAGOS\server\v18\Source\Source\_Common\Project.h
; File C:\IAGOS\server\v18\Source\Source\_Common\GuildCombat1to1.cpp
; File C:\Program Files\Microsoft Visual Studio\2022\Professional\VC\Tools\MSVC\14.44.35207\include\vector
; File C:\IAGOS\server\v18\Source\Source\_Common\GuildCombat1to1.cpp
; File C:\Program Files\Microsoft Visual Studio\2022\Professional\VC\Tools\MSVC\14.44.35207\include\vector
; File C:\IAGOS\server\v18\Source\Source\_Common\GuildCombat1to1.cpp
;	COMDAT ?SetLost@CGuildCombat1to1@@QAEXPAVCUser@@@Z
_TEXT	SEGMENT
$T3 = -8						; size = 4
_pUser0$1$ = -4						; size = 4
_pUserDef$ = 8						; size = 4
?SetLost@CGuildCombat1to1@@QAEXPAVCUser@@@Z PROC	; CGuildCombat1to1::SetLost, COMDAT
; _this$ = ecx

; 595  : {

  00000	55		 push	 ebp
  00001	8b ec		 mov	 ebp, esp
  00003	83 ec 08	 sub	 esp, 8
  00006	53		 push	 ebx
  00007	56		 push	 esi
  00008	8b f1		 mov	 esi, ecx

; 596  : 	CUser* pUser0 = NULL;

  0000a	c7 45 fc 00 00
	00 00		 mov	 DWORD PTR _pUser0$1$[ebp], 0
  00011	57		 push	 edi

; 597  : 	CUser* pUser1 = NULL;

  00012	33 db		 xor	 ebx, ebx
; File C:\Program Files\Microsoft Visual Studio\2022\Professional\VC\Tools\MSVC\14.44.35207\include\vector

; 1934 :         return _My_data._Myfirst[_Pos];

  00014	6b 46 24 2c	 imul	 eax, DWORD PTR [esi+36], 44

; 1914 :         auto& _My_data = _Mypair._Myval2;

  00018	8b 4e 04	 mov	 ecx, DWORD PTR [esi+4]
; File C:\IAGOS\server\v18\Source\Source\_Common\GuildCombat1to1.cpp

; 599  : 	if( (int)( m_vecTenderGuild[m_nIndex[0]].vecMemberId.size() ) > m_nProgWarCount	)

  0001b	8b 7e 1c	 mov	 edi, DWORD PTR [esi+28]
; File C:\Program Files\Microsoft Visual Studio\2022\Professional\VC\Tools\MSVC\14.44.35207\include\vector

; 1915 :         return static_cast<size_type>(_My_data._Mylast - _My_data._Myfirst);

  0001e	8b 54 08 20	 mov	 edx, DWORD PTR [eax+ecx+32]
; File C:\IAGOS\server\v18\Source\Source\_Common\GuildCombat1to1.cpp

; 599  : 	if( (int)( m_vecTenderGuild[m_nIndex[0]].vecMemberId.size() ) > m_nProgWarCount	)

  00022	8d 0c bd 00 00
	00 00		 lea	 ecx, DWORD PTR [edi*4]
  00029	89 4d f8	 mov	 DWORD PTR $T3[ebp], ecx
; File C:\Program Files\Microsoft Visual Studio\2022\Professional\VC\Tools\MSVC\14.44.35207\include\vector

; 1915 :         return static_cast<size_type>(_My_data._Mylast - _My_data._Myfirst);

  0002c	8b 4e 04	 mov	 ecx, DWORD PTR [esi+4]
  0002f	8b 44 08 24	 mov	 eax, DWORD PTR [eax+ecx+36]
; File C:\IAGOS\server\v18\Source\Source\_Common\GuildCombat1to1.cpp

; 599  : 	if( (int)( m_vecTenderGuild[m_nIndex[0]].vecMemberId.size() ) > m_nProgWarCount	)

  00033	8b 4d f8	 mov	 ecx, DWORD PTR $T3[ebp]
; File C:\Program Files\Microsoft Visual Studio\2022\Professional\VC\Tools\MSVC\14.44.35207\include\vector

; 1915 :         return static_cast<size_type>(_My_data._Mylast - _My_data._Myfirst);

  00036	2b c2		 sub	 eax, edx
  00038	c1 f8 02	 sar	 eax, 2
; File C:\IAGOS\server\v18\Source\Source\_Common\GuildCombat1to1.cpp

; 599  : 	if( (int)( m_vecTenderGuild[m_nIndex[0]].vecMemberId.size() ) > m_nProgWarCount	)

  0003b	3b c7		 cmp	 eax, edi
  0003d	8b 3d 28 00 00
	00		 mov	 edi, DWORD PTR ?prj@@3VCProject@@A+40
  00043	7e 3e		 jle	 SHORT $LN167@SetLost
; File C:\Program Files\Microsoft Visual Studio\2022\Professional\VC\Tools\MSVC\14.44.35207\include\xtree

; 1630 :         _Tree_find_result<_Nodeptr> _Result{{_Scary->_Myhead->_Parent, _Tree_child::_Right}, _Scary->_Myhead};

  00045	8b 47 04	 mov	 eax, DWORD PTR [edi+4]
; File C:\IAGOS\server\v18\Source\Source\_Common\GuildCombat1to1.cpp

; 600  : 		pUser0 = (CUser*)prj.GetUserByID( m_vecTenderGuild[m_nIndex[0]].vecMemberId[m_nProgWarCount] );

  00048	8b 14 0a	 mov	 edx, DWORD PTR [edx+ecx]
; File C:\Program Files\Microsoft Visual Studio\2022\Professional\VC\Tools\MSVC\14.44.35207\include\xtree

; 1630 :         _Tree_find_result<_Nodeptr> _Result{{_Scary->_Myhead->_Parent, _Tree_child::_Right}, _Scary->_Myhead};

  0004b	8b cf		 mov	 ecx, edi

; 1631 :         _Nodeptr _Trynode = _Result._Location._Parent;
; 1632 :         while (!_Trynode->_Isnil) {

  0004d	38 58 0d	 cmp	 BYTE PTR [eax+13], bl
  00050	75 13		 jne	 SHORT $LN31@SetLost
$LL30@SetLost:
; File C:\Program Files\Microsoft Visual Studio\2022\Professional\VC\Tools\MSVC\14.44.35207\include\type_traits

; 2380 :         return _Left < _Right;

  00052	39 50 10	 cmp	 DWORD PTR [eax+16], edx
; File C:\Program Files\Microsoft Visual Studio\2022\Professional\VC\Tools\MSVC\14.44.35207\include\xtree

; 1634 :             if (_DEBUG_LT_PRED(_Getcomp(), _Traits::_Kfn(_Trynode->_Myval), _Keyval)) {

  00055	73 05		 jae	 SHORT $LN32@SetLost

; 1635 :                 _Result._Location._Child = _Tree_child::_Right;
; 1636 :                 _Trynode                 = _Trynode->_Right;

  00057	8b 40 08	 mov	 eax, DWORD PTR [eax+8]

; 1637 :             } else {

  0005a	eb 04		 jmp	 SHORT $LN33@SetLost
$LN32@SetLost:

; 1638 :                 _Result._Location._Child = _Tree_child::_Left;
; 1639 :                 _Result._Bound           = _Trynode;

  0005c	8b c8		 mov	 ecx, eax

; 1640 :                 _Trynode                 = _Trynode->_Left;

  0005e	8b 00		 mov	 eax, DWORD PTR [eax]
$LN33@SetLost:

; 1631 :         _Nodeptr _Trynode = _Result._Location._Parent;
; 1632 :         while (!_Trynode->_Isnil) {

  00060	38 58 0d	 cmp	 BYTE PTR [eax+13], bl
  00063	74 ed		 je	 SHORT $LL30@SetLost
$LN31@SetLost:

; 1624 :         return !_Bound->_Isnil && !_DEBUG_LT_PRED(_Getcomp(), _Keyval, _Traits::_Kfn(_Bound->_Myval));

  00065	38 59 0d	 cmp	 BYTE PTR [ecx+13], bl
  00068	75 05		 jne	 SHORT $LN27@SetLost
; File C:\Program Files\Microsoft Visual Studio\2022\Professional\VC\Tools\MSVC\14.44.35207\include\type_traits

; 2380 :         return _Left < _Right;

  0006a	3b 51 10	 cmp	 edx, DWORD PTR [ecx+16]
; File C:\Program Files\Microsoft Visual Studio\2022\Professional\VC\Tools\MSVC\14.44.35207\include\xtree

; 1624 :         return !_Bound->_Isnil && !_DEBUG_LT_PRED(_Getcomp(), _Keyval, _Traits::_Kfn(_Bound->_Myval));

  0006d	73 02		 jae	 SHORT $LN26@SetLost
$LN27@SetLost:

; 1389 :         return _Get_scary()->_Myhead;

  0006f	8b cf		 mov	 ecx, edi
$LN26@SetLost:

; 37   :     _Tree_unchecked_const_iterator(_Nodeptr _Pnode, const _Mytree* _Plist) noexcept : _Ptr(_Pnode) {

  00071	3b cf		 cmp	 ecx, edi
; File C:\IAGOS\server\v18\Source\Source\_Common\Project.h

; 1436 : 	if( i != m_idPlayerToUserPtr.end() )

  00073	74 08		 je	 SHORT $LN22@SetLost

; 1437 : 		return i->second;

  00075	8b 41 14	 mov	 eax, DWORD PTR [ecx+20]
  00078	89 45 fc	 mov	 DWORD PTR _pUser0$1$[ebp], eax
  0007b	eb 03		 jmp	 SHORT $LN21@SetLost
$LN22@SetLost:

; 1438 : 	return NULL;

  0007d	89 5d fc	 mov	 DWORD PTR _pUser0$1$[ebp], ebx
$LN21@SetLost:
; File C:\IAGOS\server\v18\Source\Source\_Common\GuildCombat1to1.cpp

; 600  : 		pUser0 = (CUser*)prj.GetUserByID( m_vecTenderGuild[m_nIndex[0]].vecMemberId[m_nProgWarCount] );

  00080	8b 4d f8	 mov	 ecx, DWORD PTR $T3[ebp]
$LN167@SetLost:
; File C:\Program Files\Microsoft Visual Studio\2022\Professional\VC\Tools\MSVC\14.44.35207\include\vector

; 1934 :         return _My_data._Myfirst[_Pos];

  00083	6b 46 28 2c	 imul	 eax, DWORD PTR [esi+40], 44

; 1915 :         return static_cast<size_type>(_My_data._Mylast - _My_data._Myfirst);

  00087	8b 56 04	 mov	 edx, DWORD PTR [esi+4]
  0008a	8b 7e 04	 mov	 edi, DWORD PTR [esi+4]
  0008d	8b 54 10 20	 mov	 edx, DWORD PTR [eax+edx+32]
  00091	8b 44 38 24	 mov	 eax, DWORD PTR [eax+edi+36]
; File C:\IAGOS\server\v18\Source\Source\_Common\GuildCombat1to1.cpp

; 601  : 	if( (int)( m_vecTenderGuild[m_nIndex[1]].vecMemberId.size() ) > m_nProgWarCount	)

  00095	8b 3d 28 00 00
	00		 mov	 edi, DWORD PTR ?prj@@3VCProject@@A+40
; File C:\Program Files\Microsoft Visual Studio\2022\Professional\VC\Tools\MSVC\14.44.35207\include\vector

; 1915 :         return static_cast<size_type>(_My_data._Mylast - _My_data._Myfirst);

  0009b	2b c2		 sub	 eax, edx
  0009d	c1 f8 02	 sar	 eax, 2
; File C:\IAGOS\server\v18\Source\Source\_Common\GuildCombat1to1.cpp

; 601  : 	if( (int)( m_vecTenderGuild[m_nIndex[1]].vecMemberId.size() ) > m_nProgWarCount	)

  000a0	3b 46 1c	 cmp	 eax, DWORD PTR [esi+28]
  000a3	7e 37		 jle	 SHORT $LN93@SetLost
; File C:\Program Files\Microsoft Visual Studio\2022\Professional\VC\Tools\MSVC\14.44.35207\include\xtree

; 1630 :         _Tree_find_result<_Nodeptr> _Result{{_Scary->_Myhead->_Parent, _Tree_child::_Right}, _Scary->_Myhead};

  000a5	8b 47 04	 mov	 eax, DWORD PTR [edi+4]
; File C:\IAGOS\server\v18\Source\Source\_Common\GuildCombat1to1.cpp

; 602  : 		pUser1 = (CUser*)prj.GetUserByID( m_vecTenderGuild[m_nIndex[1]].vecMemberId[m_nProgWarCount] );

  000a8	8b 14 0a	 mov	 edx, DWORD PTR [edx+ecx]
; File C:\Program Files\Microsoft Visual Studio\2022\Professional\VC\Tools\MSVC\14.44.35207\include\xtree

; 1630 :         _Tree_find_result<_Nodeptr> _Result{{_Scary->_Myhead->_Parent, _Tree_child::_Right}, _Scary->_Myhead};

  000ab	8b cf		 mov	 ecx, edi

; 1631 :         _Nodeptr _Trynode = _Result._Location._Parent;
; 1632 :         while (!_Trynode->_Isnil) {

  000ad	38 58 0d	 cmp	 BYTE PTR [eax+13], bl
  000b0	75 13		 jne	 SHORT $LN103@SetLost
$LL102@SetLost:
; File C:\Program Files\Microsoft Visual Studio\2022\Professional\VC\Tools\MSVC\14.44.35207\include\type_traits

; 2380 :         return _Left < _Right;

  000b2	39 50 10	 cmp	 DWORD PTR [eax+16], edx
; File C:\Program Files\Microsoft Visual Studio\2022\Professional\VC\Tools\MSVC\14.44.35207\include\xtree

; 1634 :             if (_DEBUG_LT_PRED(_Getcomp(), _Traits::_Kfn(_Trynode->_Myval), _Keyval)) {

  000b5	73 05		 jae	 SHORT $LN104@SetLost

; 1635 :                 _Result._Location._Child = _Tree_child::_Right;
; 1636 :                 _Trynode                 = _Trynode->_Right;

  000b7	8b 40 08	 mov	 eax, DWORD PTR [eax+8]

; 1637 :             } else {

  000ba	eb 04		 jmp	 SHORT $LN105@SetLost
$LN104@SetLost:

; 1638 :                 _Result._Location._Child = _Tree_child::_Left;
; 1639 :                 _Result._Bound           = _Trynode;

  000bc	8b c8		 mov	 ecx, eax

; 1640 :                 _Trynode                 = _Trynode->_Left;

  000be	8b 00		 mov	 eax, DWORD PTR [eax]
$LN105@SetLost:

; 1631 :         _Nodeptr _Trynode = _Result._Location._Parent;
; 1632 :         while (!_Trynode->_Isnil) {

  000c0	38 58 0d	 cmp	 BYTE PTR [eax+13], bl
  000c3	74 ed		 je	 SHORT $LL102@SetLost
$LN103@SetLost:

; 1624 :         return !_Bound->_Isnil && !_DEBUG_LT_PRED(_Getcomp(), _Keyval, _Traits::_Kfn(_Bound->_Myval));

  000c5	38 59 0d	 cmp	 BYTE PTR [ecx+13], bl
  000c8	75 05		 jne	 SHORT $LN99@SetLost
; File C:\Program Files\Microsoft Visual Studio\2022\Professional\VC\Tools\MSVC\14.44.35207\include\type_traits

; 2380 :         return _Left < _Right;

  000ca	3b 51 10	 cmp	 edx, DWORD PTR [ecx+16]
; File C:\Program Files\Microsoft Visual Studio\2022\Professional\VC\Tools\MSVC\14.44.35207\include\xtree

; 1624 :         return !_Bound->_Isnil && !_DEBUG_LT_PRED(_Getcomp(), _Keyval, _Traits::_Kfn(_Bound->_Myval));

  000cd	73 02		 jae	 SHORT $LN98@SetLost
$LN99@SetLost:

; 1389 :         return _Get_scary()->_Myhead;

  000cf	8b cf		 mov	 ecx, edi
$LN98@SetLost:

; 37   :     _Tree_unchecked_const_iterator(_Nodeptr _Pnode, const _Mytree* _Plist) noexcept : _Ptr(_Pnode) {

  000d1	3b cf		 cmp	 ecx, edi
; File C:\IAGOS\server\v18\Source\Source\_Common\Project.h

; 1436 : 	if( i != m_idPlayerToUserPtr.end() )

  000d3	74 05		 je	 SHORT $LN94@SetLost

; 1437 : 		return i->second;

  000d5	8b 59 14	 mov	 ebx, DWORD PTR [ecx+20]
  000d8	eb 02		 jmp	 SHORT $LN93@SetLost
$LN94@SetLost:

; 1438 : 	return NULL;

  000da	33 db		 xor	 ebx, ebx
$LN93@SetLost:
; File C:\IAGOS\server\v18\Source\Source\_Common\GuildCombat1to1.cpp

; 604  : 	if( IsPossibleUser( pUser0 ) && IsPossibleUser( pUser1 ) )

  000dc	8b 7d fc	 mov	 edi, DWORD PTR _pUser0$1$[ebp]
  000df	8b ce		 mov	 ecx, esi
  000e1	57		 push	 edi
  000e2	e8 00 00 00 00	 call	 ?IsPossibleUser@CGuildCombat1to1@@QAEHPAVCUser@@@Z ; CGuildCombat1to1::IsPossibleUser
  000e7	85 c0		 test	 eax, eax
  000e9	74 28		 je	 SHORT $LN7@SetLost
  000eb	53		 push	 ebx
  000ec	8b ce		 mov	 ecx, esi
  000ee	e8 00 00 00 00	 call	 ?IsPossibleUser@CGuildCombat1to1@@QAEHPAVCUser@@@Z ; CGuildCombat1to1::IsPossibleUser
  000f3	85 c0		 test	 eax, eax
  000f5	74 1c		 je	 SHORT $LN7@SetLost

; 605  : 	{
; 606  : 		if( pUser0 == pUserDef )

  000f7	8b 45 08	 mov	 eax, DWORD PTR _pUserDef$[ebp]
  000fa	3b f8		 cmp	 edi, eax
  000fc	75 06		 jne	 SHORT $LN5@SetLost
; File C:\Program Files\Microsoft Visual Studio\2022\Professional\VC\Tools\MSVC\14.44.35207\include\vector

; 1934 :         return _My_data._Myfirst[_Pos];

  000fe	6b 4e 24 2c	 imul	 ecx, DWORD PTR [esi+36], 44
; File C:\IAGOS\server\v18\Source\Source\_Common\GuildCombat1to1.cpp

; 607  : 			m_vecTenderGuild[m_nIndex[0]].nNowPlayerLife--;

  00102	eb 08		 jmp	 SHORT $LN182@SetLost
$LN5@SetLost:

; 608  : 		else if( pUser1 == pUserDef )

  00104	3b d8		 cmp	 ebx, eax
  00106	75 0b		 jne	 SHORT $LN7@SetLost
; File C:\Program Files\Microsoft Visual Studio\2022\Professional\VC\Tools\MSVC\14.44.35207\include\vector

; 1934 :         return _My_data._Myfirst[_Pos];

  00108	6b 4e 28 2c	 imul	 ecx, DWORD PTR [esi+40], 44
$LN182@SetLost:
; File C:\IAGOS\server\v18\Source\Source\_Common\GuildCombat1to1.cpp

; 612  : 	GuildCombat1to1WarResultCheck();

  0010c	8b 46 04	 mov	 eax, DWORD PTR [esi+4]
  0010f	ff 4c 01 18	 dec	 DWORD PTR [ecx+eax+24]
$LN7@SetLost:
  00113	6a 00		 push	 0
  00115	6a 00		 push	 0
  00117	8b ce		 mov	 ecx, esi
  00119	e8 00 00 00 00	 call	 ?GuildCombat1to1WarResultCheck@CGuildCombat1to1@@QAEXHPAVCUser@@@Z ; CGuildCombat1to1::GuildCombat1to1WarResultCheck
  0011e	5f		 pop	 edi
  0011f	5e		 pop	 esi
  00120	5b		 pop	 ebx

; 613  : }

  00121	8b e5		 mov	 esp, ebp
  00123	5d		 pop	 ebp
  00124	c2 04 00	 ret	 4
?SetLost@CGuildCombat1to1@@QAEXPAVCUser@@@Z ENDP	; CGuildCombat1to1::SetLost
_TEXT	ENDS
; Function compile flags: /Ogtp
; File C:\IAGOS\server\v18\Source\Source\_Common\GuildCombat1to1.cpp
; File C:\Program Files\Microsoft Visual Studio\2022\Professional\VC\Tools\MSVC\14.44.35207\include\vector
; File C:\IAGOS\server\v18\Source\Source\_Common\GuildCombat1to1.cpp
; File C:\Program Files\Microsoft Visual Studio\2022\Professional\VC\Tools\MSVC\14.44.35207\include\vector
; File C:\IAGOS\server\v18\Source\Source\_Common\GuildCombat1to1.cpp
; File C:\Program Files\Microsoft Visual Studio\2022\Professional\VC\Tools\MSVC\14.44.35207\include\vector
; File C:\IAGOS\server\v18\Source\Source\_Common\GuildCombat1to1.cpp
; File C:\Program Files\Microsoft Visual Studio\2022\Professional\VC\Tools\MSVC\14.44.35207\include\vector
; File C:\IAGOS\server\v18\Source\Source\_Common\GuildCombat1to1.cpp
; File C:\Program Files\Microsoft Visual Studio\2022\Professional\VC\Tools\MSVC\14.44.35207\include\xtree
; File C:\Program Files\Microsoft Visual Studio\2022\Professional\VC\Tools\MSVC\14.44.35207\include\type_traits
; File C:\Program Files\Microsoft Visual Studio\2022\Professional\VC\Tools\MSVC\14.44.35207\include\xtree
; File C:\Program Files\Microsoft Visual Studio\2022\Professional\VC\Tools\MSVC\14.44.35207\include\type_traits
; File C:\Program Files\Microsoft Visual Studio\2022\Professional\VC\Tools\MSVC\14.44.35207\include\xtree
; File C:\IAGOS\server\v18\Source\Source\_Common\Project.h
; File C:\IAGOS\server\v18\Source\Source\_Common\GuildCombat1to1.cpp
; File C:\Program Files\Microsoft Visual Studio\2022\Professional\VC\Tools\MSVC\14.44.35207\include\vector
; File C:\IAGOS\server\v18\Source\Source\_Common\GuildCombat1to1.cpp
; File C:\Program Files\Microsoft Visual Studio\2022\Professional\VC\Tools\MSVC\14.44.35207\include\vector
; File C:\IAGOS\server\v18\Source\Source\_Common\GuildCombat1to1.cpp
; File C:\Program Files\Microsoft Visual Studio\2022\Professional\VC\Tools\MSVC\14.44.35207\include\xtree
; File C:\IAGOS\server\v18\Source\Source\_Common\GuildCombat1to1.cpp
; File C:\Program Files\Microsoft Visual Studio\2022\Professional\VC\Tools\MSVC\14.44.35207\include\xtree
; File C:\Program Files\Microsoft Visual Studio\2022\Professional\VC\Tools\MSVC\14.44.35207\include\type_traits
; File C:\Program Files\Microsoft Visual Studio\2022\Professional\VC\Tools\MSVC\14.44.35207\include\xtree
; File C:\Program Files\Microsoft Visual Studio\2022\Professional\VC\Tools\MSVC\14.44.35207\include\type_traits
; File C:\Program Files\Microsoft Visual Studio\2022\Professional\VC\Tools\MSVC\14.44.35207\include\xtree
; File C:\IAGOS\server\v18\Source\Source\_Common\Project.h
; File C:\IAGOS\server\v18\Source\Source\_Common\GuildCombat1to1.cpp
; File C:\Program Files\Microsoft Visual Studio\2022\Professional\VC\Tools\MSVC\14.44.35207\include\vector
; File C:\IAGOS\server\v18\Source\Source\_Common\GuildCombat1to1.cpp
; File C:\Program Files\Microsoft Visual Studio\2022\Professional\VC\Tools\MSVC\14.44.35207\include\vector
; File C:\IAGOS\server\v18\Source\Source\_Common\GuildCombat1to1.cpp
; File C:\Program Files\Microsoft Visual Studio\2022\Professional\VC\Tools\MSVC\14.44.35207\include\vector
; File C:\IAGOS\server\v18\Source\Source\_Common\GuildCombat1to1.cpp
; File C:\Program Files\Microsoft Visual Studio\2022\Professional\VC\Tools\MSVC\14.44.35207\include\vector
; File C:\IAGOS\server\v18\Source\Source\_Common\GuildCombat1to1.cpp
; File C:\Program Files\Microsoft Visual Studio\2022\Professional\VC\Tools\MSVC\14.44.35207\include\vector
; File C:\IAGOS\server\v18\Source\Source\_Common\GuildCombat1to1.cpp
; File C:\Program Files\Microsoft Visual Studio\2022\Professional\VC\Tools\MSVC\14.44.35207\include\vector
; File C:\IAGOS\server\v18\Source\Source\_Common\GuildCombat1to1.cpp
; File C:\Program Files\Microsoft Visual Studio\2022\Professional\VC\Tools\MSVC\14.44.35207\include\vector
; File C:\IAGOS\server\v18\Source\Source\_Common\GuildCombat1to1.cpp
;	COMDAT ?GuildCombat1to1WarResultCheck@CGuildCombat1to1@@QAEXHPAVCUser@@@Z
_TEXT	SEGMENT
$T3 = -8						; size = 4
$T4 = -4						; size = 4
_bLogOut$ = 8						; size = 4
$T5 = 8							; size = 4
_pUserLogOut$ = 12					; size = 4
$T6 = 12						; size = 4
?GuildCombat1to1WarResultCheck@CGuildCombat1to1@@QAEXHPAVCUser@@@Z PROC ; CGuildCombat1to1::GuildCombat1to1WarResultCheck, COMDAT
; _this$ = ecx

; 471  : {

  00000	55		 push	 ebp
  00001	8b ec		 mov	 ebp, esp
  00003	83 ec 08	 sub	 esp, 8
  00006	53		 push	 ebx
  00007	56		 push	 esi
  00008	8b f1		 mov	 esi, ecx

; 472  : 	CUser* pUser0 = NULL;

  0000a	33 db		 xor	 ebx, ebx
  0000c	57		 push	 edi

; 473  : 	CUser* pUser1 = NULL;

  0000d	33 ff		 xor	 edi, edi
  0000f	89 7d fc	 mov	 DWORD PTR $T4[ebp], edi
; File C:\Program Files\Microsoft Visual Studio\2022\Professional\VC\Tools\MSVC\14.44.35207\include\vector

; 1934 :         return _My_data._Myfirst[_Pos];

  00012	6b 46 24 2c	 imul	 eax, DWORD PTR [esi+36], 44
; File C:\IAGOS\server\v18\Source\Source\_Common\GuildCombat1to1.cpp

; 474  : 	if( (int)( m_vecTenderGuild[m_nIndex[0]].vecMemberId.size() ) > m_nProgWarCount	)

  00016	8b 56 1c	 mov	 edx, DWORD PTR [esi+28]
; File C:\Program Files\Microsoft Visual Studio\2022\Professional\VC\Tools\MSVC\14.44.35207\include\vector

; 1914 :         auto& _My_data = _Mypair._Myval2;

  00019	8b 4e 04	 mov	 ecx, DWORD PTR [esi+4]
; File C:\IAGOS\server\v18\Source\Source\_Common\GuildCombat1to1.cpp

; 474  : 	if( (int)( m_vecTenderGuild[m_nIndex[0]].vecMemberId.size() ) > m_nProgWarCount	)

  0001c	c1 e2 02	 shl	 edx, 2
  0001f	89 55 f8	 mov	 DWORD PTR $T3[ebp], edx
; File C:\Program Files\Microsoft Visual Studio\2022\Professional\VC\Tools\MSVC\14.44.35207\include\vector

; 1915 :         return static_cast<size_type>(_My_data._Mylast - _My_data._Myfirst);

  00022	8b 56 04	 mov	 edx, DWORD PTR [esi+4]
  00025	8b 4c 08 20	 mov	 ecx, DWORD PTR [eax+ecx+32]
  00029	8b 44 10 24	 mov	 eax, DWORD PTR [eax+edx+36]
; File C:\IAGOS\server\v18\Source\Source\_Common\GuildCombat1to1.cpp

; 474  : 	if( (int)( m_vecTenderGuild[m_nIndex[0]].vecMemberId.size() ) > m_nProgWarCount	)

  0002d	8b 15 28 00 00
	00		 mov	 edx, DWORD PTR ?prj@@3VCProject@@A+40
; File C:\Program Files\Microsoft Visual Studio\2022\Professional\VC\Tools\MSVC\14.44.35207\include\vector

; 1915 :         return static_cast<size_type>(_My_data._Mylast - _My_data._Myfirst);

  00033	2b c1		 sub	 eax, ecx
  00035	c1 f8 02	 sar	 eax, 2
; File C:\IAGOS\server\v18\Source\Source\_Common\GuildCombat1to1.cpp

; 474  : 	if( (int)( m_vecTenderGuild[m_nIndex[0]].vecMemberId.size() ) > m_nProgWarCount	)

  00038	3b 46 1c	 cmp	 eax, DWORD PTR [esi+28]
  0003b	8b 45 f8	 mov	 eax, DWORD PTR $T3[ebp]
  0003e	7e 3e		 jle	 SHORT $LN212@GuildComba

; 475  : 		pUser0 = (CUser*)prj.GetUserByID( m_vecTenderGuild[m_nIndex[0]].vecMemberId[m_nProgWarCount] );

  00040	8b 0c 01	 mov	 ecx, DWORD PTR [ecx+eax]
; File C:\Program Files\Microsoft Visual Studio\2022\Professional\VC\Tools\MSVC\14.44.35207\include\xtree

; 1630 :         _Tree_find_result<_Nodeptr> _Result{{_Scary->_Myhead->_Parent, _Tree_child::_Right}, _Scary->_Myhead};

  00043	8b da		 mov	 ebx, edx
  00045	8b 42 04	 mov	 eax, DWORD PTR [edx+4]

; 1631 :         _Nodeptr _Trynode = _Result._Location._Parent;
; 1632 :         while (!_Trynode->_Isnil) {

  00048	80 78 0d 00	 cmp	 BYTE PTR [eax+13], 0
  0004c	75 16		 jne	 SHORT $LN65@GuildComba
  0004e	66 90		 npad	 2
$LL64@GuildComba:
; File C:\Program Files\Microsoft Visual Studio\2022\Professional\VC\Tools\MSVC\14.44.35207\include\type_traits

; 2380 :         return _Left < _Right;

  00050	39 48 10	 cmp	 DWORD PTR [eax+16], ecx
; File C:\Program Files\Microsoft Visual Studio\2022\Professional\VC\Tools\MSVC\14.44.35207\include\xtree

; 1634 :             if (_DEBUG_LT_PRED(_Getcomp(), _Traits::_Kfn(_Trynode->_Myval), _Keyval)) {

  00053	73 05		 jae	 SHORT $LN66@GuildComba

; 1635 :                 _Result._Location._Child = _Tree_child::_Right;
; 1636 :                 _Trynode                 = _Trynode->_Right;

  00055	8b 40 08	 mov	 eax, DWORD PTR [eax+8]

; 1637 :             } else {

  00058	eb 04		 jmp	 SHORT $LN67@GuildComba
$LN66@GuildComba:

; 1638 :                 _Result._Location._Child = _Tree_child::_Left;
; 1639 :                 _Result._Bound           = _Trynode;

  0005a	8b d8		 mov	 ebx, eax

; 1640 :                 _Trynode                 = _Trynode->_Left;

  0005c	8b 00		 mov	 eax, DWORD PTR [eax]
$LN67@GuildComba:

; 1631 :         _Nodeptr _Trynode = _Result._Location._Parent;
; 1632 :         while (!_Trynode->_Isnil) {

  0005e	80 78 0d 00	 cmp	 BYTE PTR [eax+13], 0
  00062	74 ec		 je	 SHORT $LL64@GuildComba
$LN65@GuildComba:

; 1624 :         return !_Bound->_Isnil && !_DEBUG_LT_PRED(_Getcomp(), _Keyval, _Traits::_Kfn(_Bound->_Myval));

  00064	80 7b 0d 00	 cmp	 BYTE PTR [ebx+13], 0
  00068	75 05		 jne	 SHORT $LN61@GuildComba
; File C:\Program Files\Microsoft Visual Studio\2022\Professional\VC\Tools\MSVC\14.44.35207\include\type_traits

; 2380 :         return _Left < _Right;

  0006a	3b 4b 10	 cmp	 ecx, DWORD PTR [ebx+16]
; File C:\Program Files\Microsoft Visual Studio\2022\Professional\VC\Tools\MSVC\14.44.35207\include\xtree

; 1624 :         return !_Bound->_Isnil && !_DEBUG_LT_PRED(_Getcomp(), _Keyval, _Traits::_Kfn(_Bound->_Myval));

  0006d	73 02		 jae	 SHORT $LN60@GuildComba
$LN61@GuildComba:

; 1389 :         return _Get_scary()->_Myhead;

  0006f	8b da		 mov	 ebx, edx
$LN60@GuildComba:

; 37   :     _Tree_unchecked_const_iterator(_Nodeptr _Pnode, const _Mytree* _Plist) noexcept : _Ptr(_Pnode) {

  00071	3b da		 cmp	 ebx, edx
; File C:\IAGOS\server\v18\Source\Source\_Common\Project.h

; 1436 : 	if( i != m_idPlayerToUserPtr.end() )

  00073	74 05		 je	 SHORT $LN56@GuildComba

; 1437 : 		return i->second;

  00075	8b 5b 14	 mov	 ebx, DWORD PTR [ebx+20]
  00078	eb 07		 jmp	 SHORT $LN5@GuildComba
$LN56@GuildComba:

; 1438 : 	return NULL;

  0007a	33 db		 xor	 ebx, ebx
; File C:\IAGOS\server\v18\Source\Source\_Common\GuildCombat1to1.cpp

; 475  : 		pUser0 = (CUser*)prj.GetUserByID( m_vecTenderGuild[m_nIndex[0]].vecMemberId[m_nProgWarCount] );

  0007c	eb 03		 jmp	 SHORT $LN5@GuildComba
$LN212@GuildComba:
  0007e	89 45 f8	 mov	 DWORD PTR $T3[ebp], eax
$LN5@GuildComba:
; File C:\Program Files\Microsoft Visual Studio\2022\Professional\VC\Tools\MSVC\14.44.35207\include\vector

; 1934 :         return _My_data._Myfirst[_Pos];

  00081	6b 46 28 2c	 imul	 eax, DWORD PTR [esi+40], 44

; 1915 :         return static_cast<size_type>(_My_data._Mylast - _My_data._Myfirst);

  00085	8b 4e 04	 mov	 ecx, DWORD PTR [esi+4]
  00088	8b 7e 04	 mov	 edi, DWORD PTR [esi+4]
  0008b	8b 4c 08 20	 mov	 ecx, DWORD PTR [eax+ecx+32]
  0008f	8b 44 38 24	 mov	 eax, DWORD PTR [eax+edi+36]
; File C:\IAGOS\server\v18\Source\Source\_Common\GuildCombat1to1.cpp

; 476  : 	if( (int)( m_vecTenderGuild[m_nIndex[1]].vecMemberId.size() ) > m_nProgWarCount	)

  00093	bf 00 00 00 00	 mov	 edi, 0
; File C:\Program Files\Microsoft Visual Studio\2022\Professional\VC\Tools\MSVC\14.44.35207\include\vector

; 1915 :         return static_cast<size_type>(_My_data._Mylast - _My_data._Myfirst);

  00098	2b c1		 sub	 eax, ecx
  0009a	c1 f8 02	 sar	 eax, 2
; File C:\IAGOS\server\v18\Source\Source\_Common\GuildCombat1to1.cpp

; 476  : 	if( (int)( m_vecTenderGuild[m_nIndex[1]].vecMemberId.size() ) > m_nProgWarCount	)

  0009d	3b 46 1c	 cmp	 eax, DWORD PTR [esi+28]
  000a0	7e 40		 jle	 SHORT $LN121@GuildComba

; 477  : 		pUser1 = (CUser*)prj.GetUserByID( m_vecTenderGuild[m_nIndex[1]].vecMemberId[m_nProgWarCount] );

  000a2	8b 45 f8	 mov	 eax, DWORD PTR $T3[ebp]
; File C:\Program Files\Microsoft Visual Studio\2022\Professional\VC\Tools\MSVC\14.44.35207\include\xtree

; 1630 :         _Tree_find_result<_Nodeptr> _Result{{_Scary->_Myhead->_Parent, _Tree_child::_Right}, _Scary->_Myhead};

  000a5	8b fa		 mov	 edi, edx
; File C:\IAGOS\server\v18\Source\Source\_Common\GuildCombat1to1.cpp

; 477  : 		pUser1 = (CUser*)prj.GetUserByID( m_vecTenderGuild[m_nIndex[1]].vecMemberId[m_nProgWarCount] );

  000a7	8b 0c 01	 mov	 ecx, DWORD PTR [ecx+eax]
; File C:\Program Files\Microsoft Visual Studio\2022\Professional\VC\Tools\MSVC\14.44.35207\include\xtree

; 1630 :         _Tree_find_result<_Nodeptr> _Result{{_Scary->_Myhead->_Parent, _Tree_child::_Right}, _Scary->_Myhead};

  000aa	8b 42 04	 mov	 eax, DWORD PTR [edx+4]

; 1631 :         _Nodeptr _Trynode = _Result._Location._Parent;
; 1632 :         while (!_Trynode->_Isnil) {

  000ad	80 78 0d 00	 cmp	 BYTE PTR [eax+13], 0
  000b1	75 14		 jne	 SHORT $LN131@GuildComba
$LL130@GuildComba:
; File C:\Program Files\Microsoft Visual Studio\2022\Professional\VC\Tools\MSVC\14.44.35207\include\type_traits

; 2380 :         return _Left < _Right;

  000b3	39 48 10	 cmp	 DWORD PTR [eax+16], ecx
; File C:\Program Files\Microsoft Visual Studio\2022\Professional\VC\Tools\MSVC\14.44.35207\include\xtree

; 1634 :             if (_DEBUG_LT_PRED(_Getcomp(), _Traits::_Kfn(_Trynode->_Myval), _Keyval)) {

  000b6	73 05		 jae	 SHORT $LN132@GuildComba

; 1635 :                 _Result._Location._Child = _Tree_child::_Right;
; 1636 :                 _Trynode                 = _Trynode->_Right;

  000b8	8b 40 08	 mov	 eax, DWORD PTR [eax+8]

; 1637 :             } else {

  000bb	eb 04		 jmp	 SHORT $LN133@GuildComba
$LN132@GuildComba:

; 1638 :                 _Result._Location._Child = _Tree_child::_Left;
; 1639 :                 _Result._Bound           = _Trynode;

  000bd	8b f8		 mov	 edi, eax

; 1640 :                 _Trynode                 = _Trynode->_Left;

  000bf	8b 00		 mov	 eax, DWORD PTR [eax]
$LN133@GuildComba:

; 1631 :         _Nodeptr _Trynode = _Result._Location._Parent;
; 1632 :         while (!_Trynode->_Isnil) {

  000c1	80 78 0d 00	 cmp	 BYTE PTR [eax+13], 0
  000c5	74 ec		 je	 SHORT $LL130@GuildComba
$LN131@GuildComba:

; 1624 :         return !_Bound->_Isnil && !_DEBUG_LT_PRED(_Getcomp(), _Keyval, _Traits::_Kfn(_Bound->_Myval));

  000c7	80 7f 0d 00	 cmp	 BYTE PTR [edi+13], 0
  000cb	75 05		 jne	 SHORT $LN127@GuildComba
; File C:\Program Files\Microsoft Visual Studio\2022\Professional\VC\Tools\MSVC\14.44.35207\include\type_traits

; 2380 :         return _Left < _Right;

  000cd	3b 4f 10	 cmp	 ecx, DWORD PTR [edi+16]
; File C:\Program Files\Microsoft Visual Studio\2022\Professional\VC\Tools\MSVC\14.44.35207\include\xtree

; 1624 :         return !_Bound->_Isnil && !_DEBUG_LT_PRED(_Getcomp(), _Keyval, _Traits::_Kfn(_Bound->_Myval));

  000d0	73 02		 jae	 SHORT $LN126@GuildComba
$LN127@GuildComba:

; 1389 :         return _Get_scary()->_Myhead;

  000d2	8b fa		 mov	 edi, edx
$LN126@GuildComba:

; 37   :     _Tree_unchecked_const_iterator(_Nodeptr _Pnode, const _Mytree* _Plist) noexcept : _Ptr(_Pnode) {

  000d4	3b fa		 cmp	 edi, edx
; File C:\IAGOS\server\v18\Source\Source\_Common\Project.h

; 1436 : 	if( i != m_idPlayerToUserPtr.end() )

  000d6	74 05		 je	 SHORT $LN122@GuildComba

; 1437 : 		return i->second;

  000d8	8b 7f 14	 mov	 edi, DWORD PTR [edi+20]
  000db	eb 02		 jmp	 SHORT $LN239@GuildComba
$LN122@GuildComba:

; 1438 : 	return NULL;

  000dd	33 ff		 xor	 edi, edi
$LN239@GuildComba:
; File C:\IAGOS\server\v18\Source\Source\_Common\GuildCombat1to1.cpp

; 480  : 	if( bLogOut )

  000df	89 7d fc	 mov	 DWORD PTR $T4[ebp], edi
$LN121@GuildComba:
  000e2	83 7d 08 00	 cmp	 DWORD PTR _bLogOut$[ebp], 0
  000e6	74 14		 je	 SHORT $LN9@GuildComba

; 481  : 	{
; 482  : 		if( pUser0 == pUserLogOut )
; 483  : 			pUser0 = NULL;
; 484  : 		if( pUser1 == pUserLogOut )

  000e8	33 c0		 xor	 eax, eax
  000ea	3b 5d 0c	 cmp	 ebx, DWORD PTR _pUserLogOut$[ebp]
  000ed	0f 45 c3	 cmovne	 eax, ebx
  000f0	8b d8		 mov	 ebx, eax
  000f2	3b 7d 0c	 cmp	 edi, DWORD PTR _pUserLogOut$[ebp]
  000f5	75 05		 jne	 SHORT $LN9@GuildComba

; 485  : 			pUser1 = NULL;

  000f7	33 ff		 xor	 edi, edi
  000f9	89 7d fc	 mov	 DWORD PTR $T4[ebp], edi
$LN9@GuildComba:

; 486  : 	}
; 487  : 
; 488  : 	// ľçÂĘ Ľ±Ľö°ˇ ¸đµÎ Á¸ŔçÇŇ ¶§
; 489  : 	if( IsPossibleUser( pUser0 ) && IsPossibleUser( pUser1 ) )

  000fc	53		 push	 ebx
  000fd	8b ce		 mov	 ecx, esi
  000ff	e8 00 00 00 00	 call	 ?IsPossibleUser@CGuildCombat1to1@@QAEHPAVCUser@@@Z ; CGuildCombat1to1::IsPossibleUser
  00104	85 c0		 test	 eax, eax
  00106	0f 84 14 01 00
	00		 je	 $LN10@GuildComba
  0010c	57		 push	 edi
  0010d	8b ce		 mov	 ecx, esi
  0010f	e8 00 00 00 00	 call	 ?IsPossibleUser@CGuildCombat1to1@@QAEHPAVCUser@@@Z ; CGuildCombat1to1::IsPossibleUser
  00114	85 c0		 test	 eax, eax
  00116	0f 84 04 01 00
	00		 je	 $LN10@GuildComba
; File C:\Program Files\Microsoft Visual Studio\2022\Professional\VC\Tools\MSVC\14.44.35207\include\vector

; 1934 :         return _My_data._Myfirst[_Pos];

  0011c	8b 56 04	 mov	 edx, DWORD PTR [esi+4]
  0011f	8d 4e 24	 lea	 ecx, DWORD PTR [esi+36]
; File C:\IAGOS\server\v18\Source\Source\_Common\GuildCombat1to1.cpp

; 491  : 		for( int i=0; i<2; i++ )

  00122	33 ff		 xor	 edi, edi
$LL4@GuildComba:
; File C:\Program Files\Microsoft Visual Studio\2022\Professional\VC\Tools\MSVC\14.44.35207\include\vector

; 1934 :         return _My_data._Myfirst[_Pos];

  00124	6b 01 2c	 imul	 eax, DWORD PTR [ecx], 44
; File C:\IAGOS\server\v18\Source\Source\_Common\GuildCombat1to1.cpp

; 493  : 			if( m_vecTenderGuild[m_nIndex[i]].nNowPlayerLife == 0 )

  00127	47		 inc	 edi
  00128	83 7c 10 18 00	 cmp	 DWORD PTR [eax+edx+24], 0
  0012d	0f 84 8c 00 00
	00		 je	 $LN202@GuildComba

; 491  : 		for( int i=0; i<2; i++ )

  00133	83 c1 04	 add	 ecx, 4
  00136	83 ff 02	 cmp	 edi, 2
  00139	7c e9		 jl	 SHORT $LL4@GuildComba

; 504  : 			}
; 505  : 		}
; 506  : 		
; 507  : 		// ŔüŔď ˝Ă°ŁŔĚ Áľ·áµÇľúŔ» ¶§
; 508  : 		if( m_nWaitTime <= 0 )

  0013b	83 7e 14 00	 cmp	 DWORD PTR [esi+20], 0
  0013f	0f 8f a2 01 00
	00		 jg	 $LN23@GuildComba
; File C:\Program Files\Microsoft Visual Studio\2022\Professional\VC\Tools\MSVC\14.44.35207\include\vector

; 1934 :         return _My_data._Myfirst[_Pos];

  00145	6b 46 24 2c	 imul	 eax, DWORD PTR [esi+36], 44
; File C:\IAGOS\server\v18\Source\Source\_Common\GuildCombat1to1.cpp

; 510  : 			if( m_vecTenderGuild[m_nIndex[0]].nNowPlayerLife > m_vecTenderGuild[m_nIndex[1]].nNowPlayerLife )

  00149	8b ca		 mov	 ecx, edx
; File C:\Program Files\Microsoft Visual Studio\2022\Professional\VC\Tools\MSVC\14.44.35207\include\vector

; 1934 :         return _My_data._Myfirst[_Pos];

  0014b	6b 56 28 2c	 imul	 edx, DWORD PTR [esi+40], 44
; File C:\IAGOS\server\v18\Source\Source\_Common\GuildCombat1to1.cpp

; 510  : 			if( m_vecTenderGuild[m_nIndex[0]].nNowPlayerLife > m_vecTenderGuild[m_nIndex[1]].nNowPlayerLife )

  0014f	8b 7c 08 18	 mov	 edi, DWORD PTR [eax+ecx+24]
  00153	3b 7c 0a 18	 cmp	 edi, DWORD PTR [edx+ecx+24]
  00157	7e 0f		 jle	 SHORT $LN16@GuildComba

; 511  : 			{
; 512  : 				m_vecTenderGuild[m_nIndex[0]].nWinCount++;

  00159	ff 44 08 14	 inc	 DWORD PTR [eax+ecx+20]

; 513  : 				SetLastWinState( 0 );
; 514  : 				SetWinChip( pUser0, pUser1 );	// Ä¨ Áö±Ţ

  0015d	33 c0		 xor	 eax, eax
  0015f	c7 45 0c 00 00
	00 00		 mov	 DWORD PTR $T6[ebp], 0

; 515  : 			}

  00166	eb 2e		 jmp	 SHORT $LN240@GuildComba
$LN16@GuildComba:

; 516  : 			else if( m_vecTenderGuild[m_nIndex[0]].nNowPlayerLife < m_vecTenderGuild[m_nIndex[1]].nNowPlayerLife )

  00168	7d 1d		 jge	 SHORT $LN18@GuildComba

; 517  : 			{
; 518  : 				m_vecTenderGuild[m_nIndex[1]].nWinCount++;
; 519  : 				SetLastWinState( 1 );
; 520  : 				SetWinChip( pUser1, pUser0 );	// Ä¨ Áö±Ţ

  0016a	8b 7d fc	 mov	 edi, DWORD PTR $T4[ebp]
  0016d	b8 01 00 00 00	 mov	 eax, 1
  00172	ff 44 0a 14	 inc	 DWORD PTR [edx+ecx+20]
  00176	89 7d 08	 mov	 DWORD PTR $T5[ebp], edi
  00179	8b fb		 mov	 edi, ebx

; 521  : 			}

  0017b	8b 5d 08	 mov	 ebx, DWORD PTR $T5[ebp]
  0017e	c7 45 0c 00 00
	00 00		 mov	 DWORD PTR $T6[ebp], 0
  00185	eb 12		 jmp	 SHORT $LN19@GuildComba
$LN18@GuildComba:

; 522  : 			else
; 523  : 			{
; 524  : 				SetLastWinState( 2 );	// 2´Â şń°ĺŔ» ¶§
; 525  : 				SetWinChip( pUser0, pUser1, TRUE );	// Ä¨ Áö±ŢÇĎÁö ľĘ°í şń±č ¸ŢĽĽÁö Ăâ·Â

  00187	89 5d 08	 mov	 DWORD PTR $T5[ebp], ebx
  0018a	b8 02 00 00 00	 mov	 eax, 2
  0018f	c7 45 0c 01 00
	00 00		 mov	 DWORD PTR $T6[ebp], 1
$LN240@GuildComba:

; 526  : 			}
; 527  : 				
; 528  : 			m_nState = GC1TO1WAR_FINISH;

  00196	8b 7d fc	 mov	 edi, DWORD PTR $T4[ebp]
$LN19@GuildComba:
  00199	50		 push	 eax
  0019a	8b ce		 mov	 ecx, esi
  0019c	e8 00 00 00 00	 call	 ?SetLastWinState@CGuildCombat1to1@@QAEXH@Z ; CGuildCombat1to1::SetLastWinState
  001a1	6a 01		 push	 1
  001a3	ff 75 0c	 push	 DWORD PTR $T6[ebp]
  001a6	8b ce		 mov	 ecx, esi
  001a8	57		 push	 edi
  001a9	53		 push	 ebx
  001aa	e8 00 00 00 00	 call	 ?SetWinChip@CGuildCombat1to1@@QAEXPAVCUser@@0HH@Z ; CGuildCombat1to1::SetWinChip
  001af	5f		 pop	 edi
  001b0	c7 46 10 67 00
	00 00		 mov	 DWORD PTR [esi+16], 103	; 00000067H

; 552  : 	}
; 553  : }

  001b7	5e		 pop	 esi
  001b8	5b		 pop	 ebx
  001b9	8b e5		 mov	 esp, ebp
  001bb	5d		 pop	 ebp
  001bc	c2 08 00	 ret	 8
$LN202@GuildComba:

; 495  : 				m_vecTenderGuild[m_nIndex[(i+1)%2]].nWinCount++;

  001bf	81 e7 01 00 00
	80		 and	 edi, -2147483647	; 80000001H
  001c5	79 05		 jns	 SHORT $LN238@GuildComba
  001c7	4f		 dec	 edi
  001c8	83 cf fe	 or	 edi, -2			; fffffffeH
  001cb	47		 inc	 edi
$LN238@GuildComba:
; File C:\Program Files\Microsoft Visual Studio\2022\Professional\VC\Tools\MSVC\14.44.35207\include\vector

; 1934 :         return _My_data._Myfirst[_Pos];

  001cc	6b 4c be 24 2c	 imul	 ecx, DWORD PTR [esi+edi*4+36], 44
; File C:\IAGOS\server\v18\Source\Source\_Common\GuildCombat1to1.cpp

; 495  : 				m_vecTenderGuild[m_nIndex[(i+1)%2]].nWinCount++;

  001d1	8b c2		 mov	 eax, edx

; 496  : 				SetLastWinState( (i+1)%2 );

  001d3	57		 push	 edi
  001d4	ff 44 01 14	 inc	 DWORD PTR [ecx+eax+20]
  001d8	8b ce		 mov	 ecx, esi
  001da	e8 00 00 00 00	 call	 ?SetLastWinState@CGuildCombat1to1@@QAEXH@Z ; CGuildCombat1to1::SetLastWinState

; 497  : 				m_nState = GC1TO1WAR_FINISH;

  001df	c7 46 10 67 00
	00 00		 mov	 DWORD PTR [esi+16], 103	; 00000067H

; 498  : 				// ˝Â¸®( Ä¨ Áö±Ţ )
; 499  : 				if( (i+1)%2 == 0 )

  001e6	85 ff		 test	 edi, edi
  001e8	75 1b		 jne	 SHORT $LN13@GuildComba

; 500  : 					SetWinChip( pUser0, pUser1 );

  001ea	8b 7d fc	 mov	 edi, DWORD PTR $T4[ebp]
  001ed	8b c3		 mov	 eax, ebx

; 503  : 				return;

  001ef	6a 01		 push	 1
  001f1	6a 00		 push	 0
  001f3	57		 push	 edi
  001f4	50		 push	 eax

; 552  : 	}
; 553  : }

  001f5	8b ce		 mov	 ecx, esi
  001f7	e8 00 00 00 00	 call	 ?SetWinChip@CGuildCombat1to1@@QAEXPAVCUser@@0HH@Z ; CGuildCombat1to1::SetWinChip
  001fc	5f		 pop	 edi
  001fd	5e		 pop	 esi
  001fe	5b		 pop	 ebx
  001ff	8b e5		 mov	 esp, ebp
  00201	5d		 pop	 ebp
  00202	c2 08 00	 ret	 8
$LN13@GuildComba:

; 501  : 				else
; 502  : 					SetWinChip( pUser1, pUser0 );

  00205	8b 45 fc	 mov	 eax, DWORD PTR $T4[ebp]
  00208	8b fb		 mov	 edi, ebx

; 503  : 				return;

  0020a	6a 01		 push	 1
  0020c	6a 00		 push	 0
  0020e	57		 push	 edi
  0020f	50		 push	 eax

; 552  : 	}
; 553  : }

  00210	8b ce		 mov	 ecx, esi
  00212	e8 00 00 00 00	 call	 ?SetWinChip@CGuildCombat1to1@@QAEXPAVCUser@@0HH@Z ; CGuildCombat1to1::SetWinChip
  00217	5f		 pop	 edi
  00218	5e		 pop	 esi
  00219	5b		 pop	 ebx
  0021a	8b e5		 mov	 esp, ebp
  0021c	5d		 pop	 ebp
  0021d	c2 08 00	 ret	 8
$LN10@GuildComba:

; 529  : 		}
; 530  : 	}
; 531  : 	else if( IsPossibleUser( pUser0 ) && !IsPossibleUser( pUser1 ) )

  00220	53		 push	 ebx
  00221	8b ce		 mov	 ecx, esi
  00223	e8 00 00 00 00	 call	 ?IsPossibleUser@CGuildCombat1to1@@QAEHPAVCUser@@@Z ; CGuildCombat1to1::IsPossibleUser
  00228	85 c0		 test	 eax, eax
  0022a	74 49		 je	 SHORT $LN20@GuildComba
  0022c	57		 push	 edi
  0022d	8b ce		 mov	 ecx, esi
  0022f	e8 00 00 00 00	 call	 ?IsPossibleUser@CGuildCombat1to1@@QAEHPAVCUser@@@Z ; CGuildCombat1to1::IsPossibleUser
  00234	85 c0		 test	 eax, eax
  00236	75 3d		 jne	 SHORT $LN20@GuildComba
; File C:\Program Files\Microsoft Visual Studio\2022\Professional\VC\Tools\MSVC\14.44.35207\include\vector

; 1934 :         return _My_data._Myfirst[_Pos];

  00238	6b 4e 24 2c	 imul	 ecx, DWORD PTR [esi+36], 44
; File C:\IAGOS\server\v18\Source\Source\_Common\GuildCombat1to1.cpp

; 533  : 		m_vecTenderGuild[m_nIndex[0]].nWinCount++;

  0023c	8b 46 04	 mov	 eax, DWORD PTR [esi+4]

; 534  : 		SetLastWinState( 0 );

  0023f	6a 00		 push	 0
  00241	ff 44 01 14	 inc	 DWORD PTR [ecx+eax+20]
  00245	8b ce		 mov	 ecx, esi
  00247	e8 00 00 00 00	 call	 ?SetLastWinState@CGuildCombat1to1@@QAEXH@Z ; CGuildCombat1to1::SetLastWinState

; 535  : 		m_nState = GC1TO1WAR_FINISH;
; 536  : 		SetWinChip( pUser0, pUser1 );	// ˝Â¸®( Ä¨ Áö±Ţ )

  0024c	6a 01		 push	 1
  0024e	6a 00		 push	 0
  00250	57		 push	 edi
  00251	53		 push	 ebx
  00252	8b ce		 mov	 ecx, esi
  00254	c7 46 10 67 00
	00 00		 mov	 DWORD PTR [esi+16], 103	; 00000067H
  0025b	e8 00 00 00 00	 call	 ?SetWinChip@CGuildCombat1to1@@QAEXPAVCUser@@0HH@Z ; CGuildCombat1to1::SetWinChip

; 537  : 		pUser0->AddDefinedText( TID_GAME_GUILDCOMBAT1TO1_WARNOOTHER );

  00260	68 68 0d 00 00	 push	 3432			; 00000d68H
  00265	8b cb		 mov	 ecx, ebx
  00267	e8 00 00 00 00	 call	 ?AddDefinedText@CUser@@QAEXH@Z ; CUser::AddDefinedText
  0026c	5f		 pop	 edi

; 552  : 	}
; 553  : }

  0026d	5e		 pop	 esi
  0026e	5b		 pop	 ebx
  0026f	8b e5		 mov	 esp, ebp
  00271	5d		 pop	 ebp
  00272	c2 08 00	 ret	 8
$LN20@GuildComba:

; 538  : 	}
; 539  : 	else if( !IsPossibleUser( pUser0 ) && IsPossibleUser( pUser1 ) )

  00275	53		 push	 ebx
  00276	8b ce		 mov	 ecx, esi
  00278	e8 00 00 00 00	 call	 ?IsPossibleUser@CGuildCombat1to1@@QAEHPAVCUser@@@Z ; CGuildCombat1to1::IsPossibleUser
  0027d	85 c0		 test	 eax, eax
  0027f	75 49		 jne	 SHORT $LN22@GuildComba
  00281	57		 push	 edi
  00282	8b ce		 mov	 ecx, esi
  00284	e8 00 00 00 00	 call	 ?IsPossibleUser@CGuildCombat1to1@@QAEHPAVCUser@@@Z ; CGuildCombat1to1::IsPossibleUser
  00289	85 c0		 test	 eax, eax
  0028b	74 3d		 je	 SHORT $LN22@GuildComba
; File C:\Program Files\Microsoft Visual Studio\2022\Professional\VC\Tools\MSVC\14.44.35207\include\vector

; 1934 :         return _My_data._Myfirst[_Pos];

  0028d	6b 4e 28 2c	 imul	 ecx, DWORD PTR [esi+40], 44
; File C:\IAGOS\server\v18\Source\Source\_Common\GuildCombat1to1.cpp

; 541  : 		m_vecTenderGuild[m_nIndex[1]].nWinCount++;

  00291	8b 46 04	 mov	 eax, DWORD PTR [esi+4]

; 542  : 		SetLastWinState( 1 );

  00294	6a 01		 push	 1
  00296	ff 44 01 14	 inc	 DWORD PTR [ecx+eax+20]
  0029a	8b ce		 mov	 ecx, esi
  0029c	e8 00 00 00 00	 call	 ?SetLastWinState@CGuildCombat1to1@@QAEXH@Z ; CGuildCombat1to1::SetLastWinState

; 543  : 		m_nState = GC1TO1WAR_FINISH;
; 544  : 		SetWinChip( pUser1, pUser0 );	// ˝Â¸®( Ä¨ Áö±Ţ )

  002a1	6a 01		 push	 1
  002a3	6a 00		 push	 0
  002a5	53		 push	 ebx
  002a6	57		 push	 edi
  002a7	8b ce		 mov	 ecx, esi
  002a9	c7 46 10 67 00
	00 00		 mov	 DWORD PTR [esi+16], 103	; 00000067H
  002b0	e8 00 00 00 00	 call	 ?SetWinChip@CGuildCombat1to1@@QAEXPAVCUser@@0HH@Z ; CGuildCombat1to1::SetWinChip

; 545  : 		pUser1->AddDefinedText( TID_GAME_GUILDCOMBAT1TO1_WARNOOTHER );

  002b5	68 68 0d 00 00	 push	 3432			; 00000d68H
  002ba	8b cf		 mov	 ecx, edi
  002bc	e8 00 00 00 00	 call	 ?AddDefinedText@CUser@@QAEXH@Z ; CUser::AddDefinedText
  002c1	5f		 pop	 edi

; 552  : 	}
; 553  : }

  002c2	5e		 pop	 esi
  002c3	5b		 pop	 ebx
  002c4	8b e5		 mov	 esp, ebp
  002c6	5d		 pop	 ebp
  002c7	c2 08 00	 ret	 8
$LN22@GuildComba:

; 546  : 	}
; 547  : 	else
; 548  : 	{
; 549  : 		SetLastWinState( 2 );	// 2´Â şń°ĺŔ» ¶§

  002ca	6a 02		 push	 2
  002cc	8b ce		 mov	 ecx, esi
  002ce	e8 00 00 00 00	 call	 ?SetLastWinState@CGuildCombat1to1@@QAEXH@Z ; CGuildCombat1to1::SetLastWinState

; 550  : 		m_nState = GC1TO1WAR_FINISH;
; 551  : 		SetWinChip( pUser0, pUser1, TRUE );	// şń±č

  002d3	6a 01		 push	 1
  002d5	6a 01		 push	 1
  002d7	57		 push	 edi
  002d8	53		 push	 ebx

; 552  : 	}
; 553  : }

  002d9	8b ce		 mov	 ecx, esi
  002db	c7 46 10 67 00
	00 00		 mov	 DWORD PTR [esi+16], 103	; 00000067H
  002e2	e8 00 00 00 00	 call	 ?SetWinChip@CGuildCombat1to1@@QAEXPAVCUser@@0HH@Z ; CGuildCombat1to1::SetWinChip
$LN23@GuildComba:
  002e7	5f		 pop	 edi
  002e8	5e		 pop	 esi
  002e9	5b		 pop	 ebx
  002ea	8b e5		 mov	 esp, ebp
  002ec	5d		 pop	 ebp
  002ed	c2 08 00	 ret	 8
?GuildCombat1to1WarResultCheck@CGuildCombat1to1@@QAEXHPAVCUser@@@Z ENDP ; CGuildCombat1to1::GuildCombat1to1WarResultCheck
_TEXT	ENDS
; Function compile flags: /Ogtp
; File C:\IAGOS\server\v18\Source\Source\_Common\GuildCombat1to1.cpp
; File C:\Program Files\Microsoft Visual Studio\2022\Professional\VC\Tools\MSVC\14.44.35207\include\vector
; File C:\IAGOS\server\v18\Source\Source\_Common\GuildCombat1to1.cpp
; File C:\Program Files\Microsoft Visual Studio\2022\Professional\VC\Tools\MSVC\14.44.35207\include\vector
; File C:\IAGOS\server\v18\Source\Source\_Common\GuildCombat1to1.cpp
; File C:\Program Files\Microsoft Visual Studio\2022\Professional\VC\Tools\MSVC\14.44.35207\include\xtree
; File C:\IAGOS\server\v18\Source\Source\_Common\GuildCombat1to1.cpp
; File C:\Program Files\Microsoft Visual Studio\2022\Professional\VC\Tools\MSVC\14.44.35207\include\xtree
; File C:\Program Files\Microsoft Visual Studio\2022\Professional\VC\Tools\MSVC\14.44.35207\include\type_traits
; File C:\Program Files\Microsoft Visual Studio\2022\Professional\VC\Tools\MSVC\14.44.35207\include\xtree
; File C:\Program Files\Microsoft Visual Studio\2022\Professional\VC\Tools\MSVC\14.44.35207\include\type_traits
; File C:\Program Files\Microsoft Visual Studio\2022\Professional\VC\Tools\MSVC\14.44.35207\include\xtree
; File C:\IAGOS\server\v18\Source\Source\_Common\Project.h
; File C:\IAGOS\server\v18\Source\Source\_Common\GuildCombat1to1.cpp
; File C:\Program Files\Microsoft Visual Studio\2022\Professional\VC\Tools\MSVC\14.44.35207\include\vector
; File C:\IAGOS\server\v18\Source\Source\_Common\GuildCombat1to1.cpp
; File C:\Program Files\Microsoft Visual Studio\2022\Professional\VC\Tools\MSVC\14.44.35207\include\xtree
; File C:\IAGOS\server\v18\Source\Source\_Common\GuildCombat1to1.cpp
; File C:\Program Files\Microsoft Visual Studio\2022\Professional\VC\Tools\MSVC\14.44.35207\include\xtree
; File C:\Program Files\Microsoft Visual Studio\2022\Professional\VC\Tools\MSVC\14.44.35207\include\type_traits
; File C:\Program Files\Microsoft Visual Studio\2022\Professional\VC\Tools\MSVC\14.44.35207\include\xtree
; File C:\Program Files\Microsoft Visual Studio\2022\Professional\VC\Tools\MSVC\14.44.35207\include\type_traits
; File C:\Program Files\Microsoft Visual Studio\2022\Professional\VC\Tools\MSVC\14.44.35207\include\xtree
; File C:\IAGOS\server\v18\Source\Source\_Common\Project.h
; File C:\IAGOS\server\v18\Source\Source\_Common\GuildCombat1to1.cpp
; File C:\Program Files\Microsoft Visual Studio\2022\Professional\VC\Tools\MSVC\14.44.35207\include\vector
; File C:\IAGOS\server\v18\Source\Source\_Common\GuildCombat1to1.cpp
; File C:\Program Files\Microsoft Visual Studio\2022\Professional\VC\Tools\MSVC\14.44.35207\include\vector
; File C:\IAGOS\server\v18\Source\Source\_Common\GuildCombat1to1.cpp
; File C:\Program Files\Microsoft Visual Studio\2022\Professional\VC\Tools\MSVC\14.44.35207\include\vector
; File C:\IAGOS\server\v18\Source\Source\_Common\GuildCombat1to1.cpp
;	COMDAT ?GuildCombat1to1War@CGuildCombat1to1@@QAEXXZ
_TEXT	SEGMENT
_pUser1$1$ = -8						; size = 4
_pUser0$1$ = -4						; size = 4
?GuildCombat1to1War@CGuildCombat1to1@@QAEXXZ PROC	; CGuildCombat1to1::GuildCombat1to1War, COMDAT
; _this$ = ecx

; 441  : {

  00000	55		 push	 ebp
  00001	8b ec		 mov	 ebp, esp
  00003	83 ec 08	 sub	 esp, 8
  00006	53		 push	 ebx
  00007	8b d9		 mov	 ebx, ecx

; 442  : 	CUser* pUser0 = NULL;

  00009	c7 45 fc 00 00
	00 00		 mov	 DWORD PTR _pUser0$1$[ebp], 0
  00010	56		 push	 esi
  00011	57		 push	 edi

; 443  : 	CUser* pUser1 = NULL;

  00012	c7 45 f8 00 00
	00 00		 mov	 DWORD PTR _pUser1$1$[ebp], 0
; File C:\Program Files\Microsoft Visual Studio\2022\Professional\VC\Tools\MSVC\14.44.35207\include\vector

; 1934 :         return _My_data._Myfirst[_Pos];

  00019	6b 43 24 2c	 imul	 eax, DWORD PTR [ebx+36], 44

; 1914 :         auto& _My_data = _Mypair._Myval2;

  0001d	8b 4b 04	 mov	 ecx, DWORD PTR [ebx+4]
; File C:\IAGOS\server\v18\Source\Source\_Common\GuildCombat1to1.cpp

; 445  : 	if( (int)( m_vecTenderGuild[m_nIndex[0]].vecMemberId.size() ) > m_nProgWarCount	)

  00020	8b 53 1c	 mov	 edx, DWORD PTR [ebx+28]
  00023	8d 3c 95 00 00
	00 00		 lea	 edi, DWORD PTR [edx*4]
; File C:\Program Files\Microsoft Visual Studio\2022\Professional\VC\Tools\MSVC\14.44.35207\include\vector

; 1915 :         return static_cast<size_type>(_My_data._Mylast - _My_data._Myfirst);

  0002a	8b 74 08 20	 mov	 esi, DWORD PTR [eax+ecx+32]
  0002e	8b 44 08 24	 mov	 eax, DWORD PTR [eax+ecx+36]
  00032	2b c6		 sub	 eax, esi
  00034	c1 f8 02	 sar	 eax, 2
; File C:\IAGOS\server\v18\Source\Source\_Common\GuildCombat1to1.cpp

; 445  : 	if( (int)( m_vecTenderGuild[m_nIndex[0]].vecMemberId.size() ) > m_nProgWarCount	)

  00037	3b c2		 cmp	 eax, edx
  00039	8b 15 28 00 00
	00		 mov	 edx, DWORD PTR ?prj@@3VCProject@@A+40
  0003f	7e 46		 jle	 SHORT $LN177@GuildComba
; File C:\Program Files\Microsoft Visual Studio\2022\Professional\VC\Tools\MSVC\14.44.35207\include\xtree

; 1630 :         _Tree_find_result<_Nodeptr> _Result{{_Scary->_Myhead->_Parent, _Tree_child::_Right}, _Scary->_Myhead};

  00041	8b 42 04	 mov	 eax, DWORD PTR [edx+4]
  00044	8b ca		 mov	 ecx, edx
; File C:\IAGOS\server\v18\Source\Source\_Common\GuildCombat1to1.cpp

; 446  : 		pUser0 = (CUser*)prj.GetUserByID( m_vecTenderGuild[m_nIndex[0]].vecMemberId[m_nProgWarCount] );

  00046	8b 34 3e	 mov	 esi, DWORD PTR [esi+edi]
; File C:\Program Files\Microsoft Visual Studio\2022\Professional\VC\Tools\MSVC\14.44.35207\include\xtree

; 1632 :         while (!_Trynode->_Isnil) {

  00049	80 78 0d 00	 cmp	 BYTE PTR [eax+13], 0
  0004d	75 15		 jne	 SHORT $LN35@GuildComba
  0004f	90		 npad	 1
$LL34@GuildComba:
; File C:\Program Files\Microsoft Visual Studio\2022\Professional\VC\Tools\MSVC\14.44.35207\include\type_traits

; 2380 :         return _Left < _Right;

  00050	39 70 10	 cmp	 DWORD PTR [eax+16], esi
; File C:\Program Files\Microsoft Visual Studio\2022\Professional\VC\Tools\MSVC\14.44.35207\include\xtree

; 1634 :             if (_DEBUG_LT_PRED(_Getcomp(), _Traits::_Kfn(_Trynode->_Myval), _Keyval)) {

  00053	73 05		 jae	 SHORT $LN36@GuildComba

; 1635 :                 _Result._Location._Child = _Tree_child::_Right;
; 1636 :                 _Trynode                 = _Trynode->_Right;

  00055	8b 40 08	 mov	 eax, DWORD PTR [eax+8]

; 1637 :             } else {

  00058	eb 04		 jmp	 SHORT $LN37@GuildComba
$LN36@GuildComba:

; 1638 :                 _Result._Location._Child = _Tree_child::_Left;
; 1639 :                 _Result._Bound           = _Trynode;

  0005a	8b c8		 mov	 ecx, eax

; 1640 :                 _Trynode                 = _Trynode->_Left;

  0005c	8b 00		 mov	 eax, DWORD PTR [eax]
$LN37@GuildComba:

; 1632 :         while (!_Trynode->_Isnil) {

  0005e	80 78 0d 00	 cmp	 BYTE PTR [eax+13], 0
  00062	74 ec		 je	 SHORT $LL34@GuildComba
$LN35@GuildComba:

; 1624 :         return !_Bound->_Isnil && !_DEBUG_LT_PRED(_Getcomp(), _Keyval, _Traits::_Kfn(_Bound->_Myval));

  00064	80 79 0d 00	 cmp	 BYTE PTR [ecx+13], 0
  00068	75 05		 jne	 SHORT $LN31@GuildComba
; File C:\Program Files\Microsoft Visual Studio\2022\Professional\VC\Tools\MSVC\14.44.35207\include\type_traits

; 2380 :         return _Left < _Right;

  0006a	3b 71 10	 cmp	 esi, DWORD PTR [ecx+16]
; File C:\Program Files\Microsoft Visual Studio\2022\Professional\VC\Tools\MSVC\14.44.35207\include\xtree

; 1624 :         return !_Bound->_Isnil && !_DEBUG_LT_PRED(_Getcomp(), _Keyval, _Traits::_Kfn(_Bound->_Myval));

  0006d	73 02		 jae	 SHORT $LN30@GuildComba
$LN31@GuildComba:

; 1389 :         return _Get_scary()->_Myhead;

  0006f	8b ca		 mov	 ecx, edx
$LN30@GuildComba:

; 37   :     _Tree_unchecked_const_iterator(_Nodeptr _Pnode, const _Mytree* _Plist) noexcept : _Ptr(_Pnode) {

  00071	3b ca		 cmp	 ecx, edx
; File C:\IAGOS\server\v18\Source\Source\_Common\Project.h

; 1436 : 	if( i != m_idPlayerToUserPtr.end() )

  00073	74 08		 je	 SHORT $LN26@GuildComba

; 1437 : 		return i->second;

  00075	8b 41 14	 mov	 eax, DWORD PTR [ecx+20]
  00078	89 45 fc	 mov	 DWORD PTR _pUser0$1$[ebp], eax
  0007b	eb 07		 jmp	 SHORT $LN25@GuildComba
$LN26@GuildComba:

; 1438 : 	return NULL;

  0007d	c7 45 fc 00 00
	00 00		 mov	 DWORD PTR _pUser0$1$[ebp], 0
$LN25@GuildComba:
; File C:\IAGOS\server\v18\Source\Source\_Common\GuildCombat1to1.cpp

; 446  : 		pUser0 = (CUser*)prj.GetUserByID( m_vecTenderGuild[m_nIndex[0]].vecMemberId[m_nProgWarCount] );

  00084	8b 4b 04	 mov	 ecx, DWORD PTR [ebx+4]
$LN177@GuildComba:
; File C:\Program Files\Microsoft Visual Studio\2022\Professional\VC\Tools\MSVC\14.44.35207\include\vector

; 1934 :         return _My_data._Myfirst[_Pos];

  00087	6b 43 28 2c	 imul	 eax, DWORD PTR [ebx+40], 44

; 1915 :         return static_cast<size_type>(_My_data._Mylast - _My_data._Myfirst);

  0008b	8b 74 08 20	 mov	 esi, DWORD PTR [eax+ecx+32]
  0008f	8b 44 08 24	 mov	 eax, DWORD PTR [eax+ecx+36]
  00093	2b c6		 sub	 eax, esi
  00095	c1 f8 02	 sar	 eax, 2
; File C:\IAGOS\server\v18\Source\Source\_Common\GuildCombat1to1.cpp

; 447  : 	if( (int)( m_vecTenderGuild[m_nIndex[1]].vecMemberId.size() ) > m_nProgWarCount	)

  00098	3b 43 1c	 cmp	 eax, DWORD PTR [ebx+28]
  0009b	7e 47		 jle	 SHORT $LN91@GuildComba
; File C:\Program Files\Microsoft Visual Studio\2022\Professional\VC\Tools\MSVC\14.44.35207\include\xtree

; 1630 :         _Tree_find_result<_Nodeptr> _Result{{_Scary->_Myhead->_Parent, _Tree_child::_Right}, _Scary->_Myhead};

  0009d	8b 42 04	 mov	 eax, DWORD PTR [edx+4]
  000a0	8b ca		 mov	 ecx, edx
; File C:\IAGOS\server\v18\Source\Source\_Common\GuildCombat1to1.cpp

; 448  : 		pUser1 = (CUser*)prj.GetUserByID( m_vecTenderGuild[m_nIndex[1]].vecMemberId[m_nProgWarCount] );

  000a2	8b 34 3e	 mov	 esi, DWORD PTR [esi+edi]
; File C:\Program Files\Microsoft Visual Studio\2022\Professional\VC\Tools\MSVC\14.44.35207\include\xtree

; 1632 :         while (!_Trynode->_Isnil) {

  000a5	80 78 0d 00	 cmp	 BYTE PTR [eax+13], 0
  000a9	75 19		 jne	 SHORT $LN101@GuildComba
  000ab	0f 1f 44 00 00	 npad	 5
$LL100@GuildComba:
; File C:\Program Files\Microsoft Visual Studio\2022\Professional\VC\Tools\MSVC\14.44.35207\include\type_traits

; 2380 :         return _Left < _Right;

  000b0	39 70 10	 cmp	 DWORD PTR [eax+16], esi
; File C:\Program Files\Microsoft Visual Studio\2022\Professional\VC\Tools\MSVC\14.44.35207\include\xtree

; 1634 :             if (_DEBUG_LT_PRED(_Getcomp(), _Traits::_Kfn(_Trynode->_Myval), _Keyval)) {

  000b3	73 05		 jae	 SHORT $LN102@GuildComba

; 1635 :                 _Result._Location._Child = _Tree_child::_Right;
; 1636 :                 _Trynode                 = _Trynode->_Right;

  000b5	8b 40 08	 mov	 eax, DWORD PTR [eax+8]

; 1637 :             } else {

  000b8	eb 04		 jmp	 SHORT $LN103@GuildComba
$LN102@GuildComba:

; 1638 :                 _Result._Location._Child = _Tree_child::_Left;
; 1639 :                 _Result._Bound           = _Trynode;

  000ba	8b c8		 mov	 ecx, eax

; 1640 :                 _Trynode                 = _Trynode->_Left;

  000bc	8b 00		 mov	 eax, DWORD PTR [eax]
$LN103@GuildComba:

; 1632 :         while (!_Trynode->_Isnil) {

  000be	80 78 0d 00	 cmp	 BYTE PTR [eax+13], 0
  000c2	74 ec		 je	 SHORT $LL100@GuildComba
$LN101@GuildComba:

; 1624 :         return !_Bound->_Isnil && !_DEBUG_LT_PRED(_Getcomp(), _Keyval, _Traits::_Kfn(_Bound->_Myval));

  000c4	80 79 0d 00	 cmp	 BYTE PTR [ecx+13], 0
  000c8	75 05		 jne	 SHORT $LN97@GuildComba
; File C:\Program Files\Microsoft Visual Studio\2022\Professional\VC\Tools\MSVC\14.44.35207\include\type_traits

; 2380 :         return _Left < _Right;

  000ca	3b 71 10	 cmp	 esi, DWORD PTR [ecx+16]
; File C:\Program Files\Microsoft Visual Studio\2022\Professional\VC\Tools\MSVC\14.44.35207\include\xtree

; 1624 :         return !_Bound->_Isnil && !_DEBUG_LT_PRED(_Getcomp(), _Keyval, _Traits::_Kfn(_Bound->_Myval));

  000cd	73 02		 jae	 SHORT $LN96@GuildComba
$LN97@GuildComba:

; 1389 :         return _Get_scary()->_Myhead;

  000cf	8b ca		 mov	 ecx, edx
$LN96@GuildComba:

; 37   :     _Tree_unchecked_const_iterator(_Nodeptr _Pnode, const _Mytree* _Plist) noexcept : _Ptr(_Pnode) {

  000d1	3b ca		 cmp	 ecx, edx
; File C:\IAGOS\server\v18\Source\Source\_Common\Project.h

; 1436 : 	if( i != m_idPlayerToUserPtr.end() )

  000d3	74 08		 je	 SHORT $LN92@GuildComba

; 1437 : 		return i->second;

  000d5	8b 41 14	 mov	 eax, DWORD PTR [ecx+20]
  000d8	89 45 f8	 mov	 DWORD PTR _pUser1$1$[ebp], eax
  000db	eb 07		 jmp	 SHORT $LN91@GuildComba
$LN92@GuildComba:

; 1438 : 	return NULL;

  000dd	c7 45 f8 00 00
	00 00		 mov	 DWORD PTR _pUser1$1$[ebp], 0
$LN91@GuildComba:
; File C:\IAGOS\server\v18\Source\Source\_Common\GuildCombat1to1.cpp

; 451  : 	if( IsPossibleUser( pUser0 ) && IsPossibleUser( pUser1 ) )

  000e4	ff 75 fc	 push	 DWORD PTR _pUser0$1$[ebp]
  000e7	8b cb		 mov	 ecx, ebx
  000e9	e8 00 00 00 00	 call	 ?IsPossibleUser@CGuildCombat1to1@@QAEHPAVCUser@@@Z ; CGuildCombat1to1::IsPossibleUser
  000ee	85 c0		 test	 eax, eax
  000f0	0f 84 a2 00 00
	00		 je	 $LN4@GuildComba
  000f6	ff 75 f8	 push	 DWORD PTR _pUser1$1$[ebp]
  000f9	8b cb		 mov	 ecx, ebx
  000fb	e8 00 00 00 00	 call	 ?IsPossibleUser@CGuildCombat1to1@@QAEHPAVCUser@@@Z ; CGuildCombat1to1::IsPossibleUser
  00100	85 c0		 test	 eax, eax
  00102	0f 84 90 00 00
	00		 je	 $LN4@GuildComba
; File C:\Program Files\Microsoft Visual Studio\2022\Professional\VC\Tools\MSVC\14.44.35207\include\vector

; 1934 :         return _My_data._Myfirst[_Pos];

  00108	6b 73 24 2c	 imul	 esi, DWORD PTR [ebx+36], 44
  0010c	8b 53 04	 mov	 edx, DWORD PTR [ebx+4]
  0010f	8b 4b 1c	 mov	 ecx, DWORD PTR [ebx+28]
; File C:\IAGOS\server\v18\Source\Source\_Common\GuildCombat1to1.cpp

; 453  : 		g_dpDBClient.SendGC1to1WarPerson( m_vecTenderGuild[m_nIndex[0]].ulGuildId, m_vecTenderGuild[m_nIndex[0]].vecMemberId[m_nProgWarCount], 'N' );

  00112	6a 4e		 push	 78			; 0000004eH
  00114	8b 44 16 20	 mov	 eax, DWORD PTR [esi+edx+32]
  00118	ff 34 88	 push	 DWORD PTR [eax+ecx*4]
  0011b	b9 00 00 00 00	 mov	 ecx, OFFSET ?g_dpDBClient@@3VCDPDatabaseClient@@A ; g_dpDBClient
  00120	ff 34 16	 push	 DWORD PTR [esi+edx]
  00123	e8 00 00 00 00	 call	 ?SendGC1to1WarPerson@CDPDatabaseClient@@QAEXKKD@Z ; CDPDatabaseClient::SendGC1to1WarPerson
; File C:\Program Files\Microsoft Visual Studio\2022\Professional\VC\Tools\MSVC\14.44.35207\include\vector

; 1934 :         return _My_data._Myfirst[_Pos];

  00128	6b 7b 28 2c	 imul	 edi, DWORD PTR [ebx+40], 44
; File C:\IAGOS\server\v18\Source\Source\_Common\GuildCombat1to1.cpp

; 454  : 		g_dpDBClient.SendGC1to1WarPerson( m_vecTenderGuild[m_nIndex[1]].ulGuildId, m_vecTenderGuild[m_nIndex[1]].vecMemberId[m_nProgWarCount], 'N' );

  0012c	b9 00 00 00 00	 mov	 ecx, OFFSET ?g_dpDBClient@@3VCDPDatabaseClient@@A ; g_dpDBClient
; File C:\Program Files\Microsoft Visual Studio\2022\Professional\VC\Tools\MSVC\14.44.35207\include\vector

; 1934 :         return _My_data._Myfirst[_Pos];

  00131	8b 73 04	 mov	 esi, DWORD PTR [ebx+4]
  00134	8b 53 1c	 mov	 edx, DWORD PTR [ebx+28]
; File C:\IAGOS\server\v18\Source\Source\_Common\GuildCombat1to1.cpp

; 454  : 		g_dpDBClient.SendGC1to1WarPerson( m_vecTenderGuild[m_nIndex[1]].ulGuildId, m_vecTenderGuild[m_nIndex[1]].vecMemberId[m_nProgWarCount], 'N' );

  00137	6a 4e		 push	 78			; 0000004eH
  00139	8b 44 37 20	 mov	 eax, DWORD PTR [edi+esi+32]
  0013d	ff 34 90	 push	 DWORD PTR [eax+edx*4]
  00140	ff 34 37	 push	 DWORD PTR [edi+esi]
  00143	e8 00 00 00 00	 call	 ?SendGC1to1WarPerson@CDPDatabaseClient@@QAEXKKD@Z ; CDPDatabaseClient::SendGC1to1WarPerson

; 455  : 		SetTeleportToWarStage( pUser0 );	// ´ëŔüŔĺŔ¸·Î ĹÚ·ąĆ÷Ć®

  00148	ff 75 fc	 push	 DWORD PTR _pUser0$1$[ebp]
  0014b	8b cb		 mov	 ecx, ebx
  0014d	e8 00 00 00 00	 call	 ?SetTeleportToWarStage@CGuildCombat1to1@@QAEXPAVCUser@@@Z ; CGuildCombat1to1::SetTeleportToWarStage

; 456  : 		SetTeleportToWarStage( pUser1 );	// ´ëŔüŔĺŔ¸·Î ĹÚ·ąĆ÷Ć® 

  00152	ff 75 f8	 push	 DWORD PTR _pUser1$1$[ebp]
  00155	8b cb		 mov	 ecx, ebx
  00157	e8 00 00 00 00	 call	 ?SetTeleportToWarStage@CGuildCombat1to1@@QAEXPAVCUser@@@Z ; CGuildCombat1to1::SetTeleportToWarStage

; 457  : 
; 458  : 		m_nState = GC1TO1WAR_WAR;
; 459  : 		m_nWaitTime = (int)g_GuildCombat1to1Mng.m_Lua.GetGlobalNumber( "WarTime" );

  0015c	68 00 00 00 00	 push	 OFFSET ??_C@_07HNCNCHMB@WarTime@
  00161	b9 20 00 00 00	 mov	 ecx, OFFSET ?g_GuildCombat1to1Mng@@3VCGuildCombat1to1Mng@@A+32
  00166	c7 43 10 66 00
	00 00		 mov	 DWORD PTR [ebx+16], 102	; 00000066H
  0016d	e8 00 00 00 00	 call	 ?GetGlobalNumber@CLuaBase@@QAENPAD@Z ; CLuaBase::GetGlobalNumber
  00172	e8 00 00 00 00	 call	 __ftol2_sse
  00177	89 43 14	 mov	 DWORD PTR [ebx+20], eax

; 460  : 		m_dwTime = GetTickCount();

  0017a	ff 15 00 00 00
	00		 call	 DWORD PTR __imp__GetTickCount@0

; 461  : 		SendNowStateAllPlayer();

  00180	8b cb		 mov	 ecx, ebx
  00182	89 43 18	 mov	 DWORD PTR [ebx+24], eax
  00185	e8 00 00 00 00	 call	 ?SendNowStateAllPlayer@CGuildCombat1to1@@QAEXXZ ; CGuildCombat1to1::SendNowStateAllPlayer

; 462  : 		SendWarResultAllPlayer();	// ´ëŔü ˝ĂŔŰ ľË¸˛

  0018a	8b cb		 mov	 ecx, ebx
  0018c	e8 00 00 00 00	 call	 ?SendWarResultAllPlayer@CGuildCombat1to1@@QAEXXZ ; CGuildCombat1to1::SendWarResultAllPlayer
  00191	5f		 pop	 edi

; 466  : 
; 467  : }

  00192	5e		 pop	 esi
  00193	5b		 pop	 ebx
  00194	8b e5		 mov	 esp, ebp
  00196	5d		 pop	 ebp
  00197	c3		 ret	 0
$LN4@GuildComba:

; 463  : 	}
; 464  : 	else
; 465  : 		GuildCombat1to1WarWait();

  00198	8b cb		 mov	 ecx, ebx
  0019a	e8 00 00 00 00	 call	 ?GuildCombat1to1WarWait@CGuildCombat1to1@@QAEXXZ ; CGuildCombat1to1::GuildCombat1to1WarWait
  0019f	5f		 pop	 edi

; 466  : 
; 467  : }

  001a0	5e		 pop	 esi
  001a1	5b		 pop	 ebx
  001a2	8b e5		 mov	 esp, ebp
  001a4	5d		 pop	 ebp
  001a5	c3		 ret	 0
?GuildCombat1to1War@CGuildCombat1to1@@QAEXXZ ENDP	; CGuildCombat1to1::GuildCombat1to1War
_TEXT	ENDS
; Function compile flags: /Ogtp
; File C:\IAGOS\server\v18\Source\Source\_Common\GuildCombat1to1.cpp
; File C:\Program Files\Microsoft Visual Studio\2022\Professional\VC\Tools\MSVC\14.44.35207\include\vector
; File C:\IAGOS\server\v18\Source\Source\_Common\GuildCombat1to1.cpp
; File C:\Program Files\Microsoft Visual Studio\2022\Professional\VC\Tools\MSVC\14.44.35207\include\vector
; File C:\IAGOS\server\v18\Source\Source\_Common\GuildCombat1to1.cpp
; File C:\Program Files\Microsoft Visual Studio\2022\Professional\VC\Tools\MSVC\14.44.35207\include\vector
; File C:\IAGOS\server\v18\Source\Source\_Common\GuildCombat1to1.cpp
;	COMDAT ?GuildCombat1to1WarWait@CGuildCombat1to1@@QAEXXZ
_TEXT	SEGMENT
_pUser0$1$ = -4						; size = 4
?GuildCombat1to1WarWait@CGuildCombat1to1@@QAEXXZ PROC	; CGuildCombat1to1::GuildCombat1to1WarWait, COMDAT
; _this$ = ecx

; 391  : {

  00000	55		 push	 ebp
  00001	8b ec		 mov	 ebp, esp
  00003	51		 push	 ecx
  00004	56		 push	 esi
  00005	8b f1		 mov	 esi, ecx
  00007	57		 push	 edi

; 392  : 	// ¸đµç ´ëŔüŔĚ łˇłµŔ» ¶§
; 393  : 	if( (m_nProgWarCount >= m_nTotalWarCount) || (m_nProgWarCount >= g_GuildCombat1to1Mng.m_nMaxJoinPlayer) )

  00008	8b 7e 1c	 mov	 edi, DWORD PTR [esi+28]
  0000b	3b 7e 20	 cmp	 edi, DWORD PTR [esi+32]
  0000e	0f 8d c5 00 00
	00		 jge	 $LN3@GuildComba
  00014	3b 3d 0c 00 00
	00		 cmp	 edi, DWORD PTR ?g_GuildCombat1to1Mng@@3VCGuildCombat1to1Mng@@A+12
  0001a	0f 8d b9 00 00
	00		 jge	 $LN3@GuildComba
; File C:\Program Files\Microsoft Visual Studio\2022\Professional\VC\Tools\MSVC\14.44.35207\include\vector

; 1934 :         return _My_data._Myfirst[_Pos];

  00020	6b 46 24 2c	 imul	 eax, DWORD PTR [esi+36], 44
  00024	53		 push	 ebx

; 1914 :         auto& _My_data = _Mypair._Myval2;

  00025	8b 5e 04	 mov	 ebx, DWORD PTR [esi+4]
; File C:\IAGOS\server\v18\Source\Source\_Common\GuildCombat1to1.cpp

; 399  : 	CUser* pUser0 = NULL;

  00028	c7 45 fc 00 00
	00 00		 mov	 DWORD PTR _pUser0$1$[ebp], 0
; File C:\Program Files\Microsoft Visual Studio\2022\Professional\VC\Tools\MSVC\14.44.35207\include\vector

; 1915 :         return static_cast<size_type>(_My_data._Mylast - _My_data._Myfirst);

  0002f	8b 4c 18 20	 mov	 ecx, DWORD PTR [eax+ebx+32]
  00033	8b 44 18 24	 mov	 eax, DWORD PTR [eax+ebx+36]
  00037	2b c1		 sub	 eax, ecx
  00039	c1 f8 02	 sar	 eax, 2
; File C:\IAGOS\server\v18\Source\Source\_Common\GuildCombat1to1.cpp

; 417  : 	if( (int)( m_vecTenderGuild[m_nIndex[0]].vecMemberId.size() ) > m_nProgWarCount	)

  0003c	3b c7		 cmp	 eax, edi
  0003e	7e 10		 jle	 SHORT $LN33@GuildComba

; 418  : 	{
; 419  : 		pUser0 = (CUser*)prj.GetUserByID( m_vecTenderGuild[m_nIndex[0]].vecMemberId[m_nProgWarCount] );

  00040	ff 34 b9	 push	 DWORD PTR [ecx+edi*4]
  00043	b9 00 00 00 00	 mov	 ecx, OFFSET ?prj@@3VCProject@@A ; prj
  00048	e8 00 00 00 00	 call	 ?GetUserByID@CProject@@QAEPAVCMover@@K@Z ; CProject::GetUserByID
  0004d	89 45 fc	 mov	 DWORD PTR _pUser0$1$[ebp], eax
$LN33@GuildComba:
; File C:\Program Files\Microsoft Visual Studio\2022\Professional\VC\Tools\MSVC\14.44.35207\include\vector

; 1934 :         return _My_data._Myfirst[_Pos];

  00050	6b 56 28 2c	 imul	 edx, DWORD PTR [esi+40], 44

; 1915 :         return static_cast<size_type>(_My_data._Mylast - _My_data._Myfirst);

  00054	8b 44 1a 20	 mov	 eax, DWORD PTR [edx+ebx+32]
  00058	8b 54 1a 24	 mov	 edx, DWORD PTR [edx+ebx+36]
  0005c	2b d0		 sub	 edx, eax
  0005e	c1 fa 02	 sar	 edx, 2
; File C:\IAGOS\server\v18\Source\Source\_Common\GuildCombat1to1.cpp

; 422  : 	if( (int)( m_vecTenderGuild[m_nIndex[1]].vecMemberId.size() ) > m_nProgWarCount	)

  00061	3b d7		 cmp	 edx, edi
  00063	7e 11		 jle	 SHORT $LN34@GuildComba

; 423  : 	{
; 424  : 		pUser1 = (CUser*)prj.GetUserByID( m_vecTenderGuild[m_nIndex[1]].vecMemberId[m_nProgWarCount] );

  00065	ff 34 b8	 push	 DWORD PTR [eax+edi*4]
  00068	b9 00 00 00 00	 mov	 ecx, OFFSET ?prj@@3VCProject@@A ; prj
  0006d	e8 00 00 00 00	 call	 ?GetUserByID@CProject@@QAEPAVCMover@@K@Z ; CProject::GetUserByID
  00072	8b d8		 mov	 ebx, eax
  00074	eb 02		 jmp	 SHORT $LN5@GuildComba
$LN34@GuildComba:

; 422  : 	if( (int)( m_vecTenderGuild[m_nIndex[1]].vecMemberId.size() ) > m_nProgWarCount	)

  00076	33 db		 xor	 ebx, ebx
$LN5@GuildComba:

; 425  : 	}
; 426  : 		
; 427  : 	// ľçÂĘ ´ëŔüŔÚ°ˇ ¸đµÎ Á¸ŔçÇŇ °ćżě ŔüĹő´ë±â
; 428  : 	if( IsPossibleUser( pUser0 ) && IsPossibleUser( pUser1 ) )

  00078	ff 75 fc	 push	 DWORD PTR _pUser0$1$[ebp]
  0007b	8b ce		 mov	 ecx, esi
  0007d	e8 00 00 00 00	 call	 ?IsPossibleUser@CGuildCombat1to1@@QAEHPAVCUser@@@Z ; CGuildCombat1to1::IsPossibleUser
  00082	85 c0		 test	 eax, eax
  00084	74 41		 je	 SHORT $LN6@GuildComba
  00086	53		 push	 ebx
  00087	8b ce		 mov	 ecx, esi
  00089	e8 00 00 00 00	 call	 ?IsPossibleUser@CGuildCombat1to1@@QAEHPAVCUser@@@Z ; CGuildCombat1to1::IsPossibleUser
  0008e	85 c0		 test	 eax, eax
  00090	74 35		 je	 SHORT $LN6@GuildComba

; 429  : 	{
; 430  : 		m_nState = GC1TO1WAR_WAIT;
; 431  : 		m_nWaitTime = (int)g_GuildCombat1to1Mng.m_Lua.GetGlobalNumber( "WarWaitTime" );

  00092	68 00 00 00 00	 push	 OFFSET ??_C@_0M@PIPIEKCG@WarWaitTime@
  00097	b9 20 00 00 00	 mov	 ecx, OFFSET ?g_GuildCombat1to1Mng@@3VCGuildCombat1to1Mng@@A+32
  0009c	c7 46 10 65 00
	00 00		 mov	 DWORD PTR [esi+16], 101	; 00000065H
  000a3	e8 00 00 00 00	 call	 ?GetGlobalNumber@CLuaBase@@QAENPAD@Z ; CLuaBase::GetGlobalNumber
  000a8	e8 00 00 00 00	 call	 __ftol2_sse
  000ad	89 46 14	 mov	 DWORD PTR [esi+20], eax

; 432  : 		m_dwTime	= GetTickCount();

  000b0	ff 15 00 00 00
	00		 call	 DWORD PTR __imp__GetTickCount@0

; 433  : 		SendNowStateAllPlayer();

  000b6	8b ce		 mov	 ecx, esi
  000b8	89 46 18	 mov	 DWORD PTR [esi+24], eax
  000bb	e8 00 00 00 00	 call	 ?SendNowStateAllPlayer@CGuildCombat1to1@@QAEXXZ ; CGuildCombat1to1::SendNowStateAllPlayer
  000c0	5b		 pop	 ebx
  000c1	5f		 pop	 edi

; 437  : }

  000c2	5e		 pop	 esi
  000c3	8b e5		 mov	 esp, ebp
  000c5	5d		 pop	 ebp
  000c6	c3		 ret	 0
$LN6@GuildComba:

; 434  : 	}
; 435  : 	else	// ÇŃÂĘ ´ëŔüŔÚ°ˇ ľřŔ» °ćżě ˝ÂĆĐĂł¸®
; 436  : 		GuildCombat1to1WarResultCheck();

  000c7	6a 00		 push	 0
  000c9	6a 00		 push	 0
  000cb	8b ce		 mov	 ecx, esi
  000cd	e8 00 00 00 00	 call	 ?GuildCombat1to1WarResultCheck@CGuildCombat1to1@@QAEXHPAVCUser@@@Z ; CGuildCombat1to1::GuildCombat1to1WarResultCheck
  000d2	5b		 pop	 ebx
  000d3	5f		 pop	 edi

; 437  : }

  000d4	5e		 pop	 esi
  000d5	8b e5		 mov	 esp, ebp
  000d7	5d		 pop	 ebp
  000d8	c3		 ret	 0
$LN3@GuildComba:

; 394  : 	{
; 395  : 		GuildCombat1to1CloseWait();

  000d9	e8 00 00 00 00	 call	 ?GuildCombat1to1CloseWait@CGuildCombat1to1@@QAEXXZ ; CGuildCombat1to1::GuildCombat1to1CloseWait
  000de	5f		 pop	 edi

; 437  : }

  000df	5e		 pop	 esi
  000e0	8b e5		 mov	 esp, ebp
  000e2	5d		 pop	 ebp
  000e3	c3		 ret	 0
?GuildCombat1to1WarWait@CGuildCombat1to1@@QAEXXZ ENDP	; CGuildCombat1to1::GuildCombat1to1WarWait
_TEXT	ENDS
; Function compile flags: /Ogtp
; File C:\IAGOS\server\v18\Source\Source\_Common\GuildCombat1to1.cpp
; File C:\Program Files\Microsoft Visual Studio\2022\Professional\VC\Tools\MSVC\14.44.35207\include\vector
; File C:\IAGOS\server\v18\Source\Source\_Common\GuildCombat1to1.cpp
; File C:\Program Files\Microsoft Visual Studio\2022\Professional\VC\Tools\MSVC\14.44.35207\include\vector
; File C:\IAGOS\server\v18\Source\Source\_Common\GuildCombat1to1.cpp
; File C:\Program Files\Microsoft Visual Studio\2022\Professional\VC\Tools\MSVC\14.44.35207\include\vector
; File C:\Program Files\Microsoft Visual Studio\2022\Professional\VC\Tools\MSVC\14.44.35207\include\xtree
; File C:\IAGOS\server\v18\Source\Source\_Common\GuildCombat1to1.cpp
; File C:\Program Files\Microsoft Visual Studio\2022\Professional\VC\Tools\MSVC\14.44.35207\include\xtree
; File C:\Program Files\Microsoft Visual Studio\2022\Professional\VC\Tools\MSVC\14.44.35207\include\type_traits
; File C:\Program Files\Microsoft Visual Studio\2022\Professional\VC\Tools\MSVC\14.44.35207\include\xtree
; File C:\Program Files\Microsoft Visual Studio\2022\Professional\VC\Tools\MSVC\14.44.35207\include\type_traits
; File C:\Program Files\Microsoft Visual Studio\2022\Professional\VC\Tools\MSVC\14.44.35207\include\xtree
; File C:\IAGOS\server\v18\Source\Source\_Common\Project.h
; File C:\IAGOS\server\v18\Source\Source\_Common\GuildCombat1to1.cpp
; File C:\IAGOS\server\v18\Source\Source\DX_SDK\d3dx9math.inl
; File C:\IAGOS\server\v18\Source\Source\_Common\GuildCombat1to1.cpp
; File C:\IAGOS\server\v18\Source\Source\DX_SDK\d3dx9math.inl
; File C:\IAGOS\server\v18\Source\Source\_Common\GuildCombat1to1.cpp
; File C:\Program Files\Microsoft Visual Studio\2022\Professional\VC\Tools\MSVC\14.44.35207\include\vector
; File C:\IAGOS\server\v18\Source\Source\_Common\GuildCombat1to1.cpp
; File C:\Program Files\Microsoft Visual Studio\2022\Professional\VC\Tools\MSVC\14.44.35207\include\vector
; File C:\IAGOS\server\v18\Source\Source\_Common\GuildCombat1to1.cpp
;	COMDAT ?GuildCombat1to1Close@CGuildCombat1to1@@QAEXXZ
_TEXT	SEGMENT
tv653 = -24						; size = 4
tv652 = -20						; size = 4
$T2 = -16						; size = 12
__$ArrayPad$ = -4					; size = 4
?GuildCombat1to1Close@CGuildCombat1to1@@QAEXXZ PROC	; CGuildCombat1to1::GuildCombat1to1Close, COMDAT
; _this$ = ecx

; 370  : {

  00000	55		 push	 ebp
  00001	8b ec		 mov	 ebp, esp
  00003	83 ec 18	 sub	 esp, 24			; 00000018H
  00006	a1 00 00 00 00	 mov	 eax, DWORD PTR ___security_cookie
  0000b	33 c5		 xor	 eax, ebp
  0000d	89 45 fc	 mov	 DWORD PTR __$ArrayPad$[ebp], eax
  00010	53		 push	 ebx
  00011	56		 push	 esi
  00012	57		 push	 edi
  00013	8b f9		 mov	 edi, ecx

; 371  : 	ClearTime();

  00015	e8 00 00 00 00	 call	 ?ClearTime@CGuildCombat1to1@@QAEXXZ ; CGuildCombat1to1::ClearTime
  0001a	8d 47 24	 lea	 eax, DWORD PTR [edi+36]

; 372  : 	m_nState = GC1TO1WAR_CLOSE;

  0001d	c7 47 10 64 00
	00 00		 mov	 DWORD PTR [edi+16], 100	; 00000064H
  00024	89 45 ec	 mov	 DWORD PTR tv652[ebp], eax
  00027	c7 45 e8 02 00
	00 00		 mov	 DWORD PTR tv653[ebp], 2
  0002e	66 90		 npad	 2
$LL4@GuildComba:
; File C:\Program Files\Microsoft Visual Studio\2022\Professional\VC\Tools\MSVC\14.44.35207\include\vector

; 1934 :         return _My_data._Myfirst[_Pos];

  00030	8b 30		 mov	 esi, DWORD PTR [eax]
; File C:\IAGOS\server\v18\Source\Source\_Common\GuildCombat1to1.cpp

; 377  : 		for( int j=0; j<(int)( m_vecTenderGuild[m_nIndex[i]].vecMemberId.size() ); j++ )

  00032	33 db		 xor	 ebx, ebx
; File C:\Program Files\Microsoft Visual Studio\2022\Professional\VC\Tools\MSVC\14.44.35207\include\vector

; 1914 :         auto& _My_data = _Mypair._Myval2;

  00034	8b 57 04	 mov	 edx, DWORD PTR [edi+4]

; 1934 :         return _My_data._Myfirst[_Pos];

  00037	6b ce 2c	 imul	 ecx, esi, 44

; 1915 :         return static_cast<size_type>(_My_data._Mylast - _My_data._Myfirst);

  0003a	8b 44 11 24	 mov	 eax, DWORD PTR [ecx+edx+36]
  0003e	2b 44 11 20	 sub	 eax, DWORD PTR [ecx+edx+32]
; File C:\IAGOS\server\v18\Source\Source\_Common\GuildCombat1to1.cpp

; 377  : 		for( int j=0; j<(int)( m_vecTenderGuild[m_nIndex[i]].vecMemberId.size() ); j++ )

  00042	a9 fc ff ff ff	 test	 eax, -4			; fffffffcH
  00047	0f 8e ae 00 00
	00		 jle	 $LN2@GuildComba
  0004d	0f 1f 00	 npad	 3
$LL7@GuildComba:
; File C:\Program Files\Microsoft Visual Studio\2022\Professional\VC\Tools\MSVC\14.44.35207\include\vector

; 1934 :         return _My_data._Myfirst[_Pos];

  00050	6b c6 2c	 imul	 eax, esi, 44
; File C:\Program Files\Microsoft Visual Studio\2022\Professional\VC\Tools\MSVC\14.44.35207\include\xtree

; 1630 :         _Tree_find_result<_Nodeptr> _Result{{_Scary->_Myhead->_Parent, _Tree_child::_Right}, _Scary->_Myhead};

  00053	8b 35 28 00 00
	00		 mov	 esi, DWORD PTR ?prj@@3VCProject@@A+40
  00059	8b ce		 mov	 ecx, esi
; File C:\IAGOS\server\v18\Source\Source\_Common\GuildCombat1to1.cpp

; 379  : 			pUser = (CUser*)prj.GetUserByID( m_vecTenderGuild[m_nIndex[i]].vecMemberId[j] );

  0005b	8b 44 10 20	 mov	 eax, DWORD PTR [eax+edx+32]
  0005f	8b 14 98	 mov	 edx, DWORD PTR [eax+ebx*4]
; File C:\Program Files\Microsoft Visual Studio\2022\Professional\VC\Tools\MSVC\14.44.35207\include\xtree

; 1630 :         _Tree_find_result<_Nodeptr> _Result{{_Scary->_Myhead->_Parent, _Tree_child::_Right}, _Scary->_Myhead};

  00062	8b 46 04	 mov	 eax, DWORD PTR [esi+4]

; 1631 :         _Nodeptr _Trynode = _Result._Location._Parent;
; 1632 :         while (!_Trynode->_Isnil) {

  00065	80 78 0d 00	 cmp	 BYTE PTR [eax+13], 0
  00069	75 19		 jne	 SHORT $LN32@GuildComba
  0006b	0f 1f 44 00 00	 npad	 5
$LL31@GuildComba:
; File C:\Program Files\Microsoft Visual Studio\2022\Professional\VC\Tools\MSVC\14.44.35207\include\type_traits

; 2380 :         return _Left < _Right;

  00070	39 50 10	 cmp	 DWORD PTR [eax+16], edx
; File C:\Program Files\Microsoft Visual Studio\2022\Professional\VC\Tools\MSVC\14.44.35207\include\xtree

; 1634 :             if (_DEBUG_LT_PRED(_Getcomp(), _Traits::_Kfn(_Trynode->_Myval), _Keyval)) {

  00073	73 05		 jae	 SHORT $LN33@GuildComba

; 1635 :                 _Result._Location._Child = _Tree_child::_Right;
; 1636 :                 _Trynode                 = _Trynode->_Right;

  00075	8b 40 08	 mov	 eax, DWORD PTR [eax+8]

; 1637 :             } else {

  00078	eb 04		 jmp	 SHORT $LN34@GuildComba
$LN33@GuildComba:

; 1638 :                 _Result._Location._Child = _Tree_child::_Left;
; 1639 :                 _Result._Bound           = _Trynode;

  0007a	8b c8		 mov	 ecx, eax

; 1640 :                 _Trynode                 = _Trynode->_Left;

  0007c	8b 00		 mov	 eax, DWORD PTR [eax]
$LN34@GuildComba:

; 1631 :         _Nodeptr _Trynode = _Result._Location._Parent;
; 1632 :         while (!_Trynode->_Isnil) {

  0007e	80 78 0d 00	 cmp	 BYTE PTR [eax+13], 0
  00082	74 ec		 je	 SHORT $LL31@GuildComba
$LN32@GuildComba:

; 1624 :         return !_Bound->_Isnil && !_DEBUG_LT_PRED(_Getcomp(), _Keyval, _Traits::_Kfn(_Bound->_Myval));

  00084	80 79 0d 00	 cmp	 BYTE PTR [ecx+13], 0
  00088	75 05		 jne	 SHORT $LN28@GuildComba
; File C:\Program Files\Microsoft Visual Studio\2022\Professional\VC\Tools\MSVC\14.44.35207\include\type_traits

; 2380 :         return _Left < _Right;

  0008a	3b 51 10	 cmp	 edx, DWORD PTR [ecx+16]
; File C:\Program Files\Microsoft Visual Studio\2022\Professional\VC\Tools\MSVC\14.44.35207\include\xtree

; 1624 :         return !_Bound->_Isnil && !_DEBUG_LT_PRED(_Getcomp(), _Keyval, _Traits::_Kfn(_Bound->_Myval));

  0008d	73 02		 jae	 SHORT $LN27@GuildComba
$LN28@GuildComba:

; 1389 :         return _Get_scary()->_Myhead;

  0008f	8b ce		 mov	 ecx, esi
$LN27@GuildComba:

; 37   :     _Tree_unchecked_const_iterator(_Nodeptr _Pnode, const _Mytree* _Plist) noexcept : _Ptr(_Pnode) {

  00091	3b ce		 cmp	 ecx, esi
; File C:\IAGOS\server\v18\Source\Source\_Common\Project.h

; 1436 : 	if( i != m_idPlayerToUserPtr.end() )

  00093	74 05		 je	 SHORT $LN23@GuildComba

; 1437 : 		return i->second;

  00095	8b 71 14	 mov	 esi, DWORD PTR [ecx+20]
  00098	eb 02		 jmp	 SHORT $LN22@GuildComba
$LN23@GuildComba:

; 1438 : 	return NULL;

  0009a	33 f6		 xor	 esi, esi
$LN22@GuildComba:
; File C:\IAGOS\server\v18\Source\Source\_Common\GuildCombat1to1.cpp

; 380  : 			if( IsPossibleUser( pUser ) )

  0009c	56		 push	 esi
  0009d	8b cf		 mov	 ecx, edi
  0009f	e8 00 00 00 00	 call	 ?IsPossibleUser@CGuildCombat1to1@@QAEHPAVCUser@@@Z ; CGuildCombat1to1::IsPossibleUser
  000a4	85 c0		 test	 eax, eax
  000a6	74 34		 je	 SHORT $LN5@GuildComba

; 381  : 			{
; 382  : 				SendNowState( pUser );

  000a8	56		 push	 esi
  000a9	8b cf		 mov	 ecx, edi
  000ab	e8 00 00 00 00	 call	 ?SendNowState@CGuildCombat1to1@@QAEXPAVCUser@@@Z ; CGuildCombat1to1::SendNowState

; 383  : 				pUser->REPLACE( g_uIdofMulti, WI_WORLD_MADRIGAL, D3DXVECTOR3( 6983.0f, 0.0f, 3326.0f ), REPLACE_NORMAL, nDefaultLayer );

  000b0	6a 00		 push	 0
  000b2	6a 00		 push	 0
  000b4	8d 45 f0	 lea	 eax, DWORD PTR $T2[ebp]
; File C:\IAGOS\server\v18\Source\Source\DX_SDK\d3dx9math.inl

; 300  :     x = fx;

  000b7	c7 45 f0 00 38
	da 45		 mov	 DWORD PTR $T2[ebp], 1171929088 ; 45da3800H
; File C:\IAGOS\server\v18\Source\Source\_Common\GuildCombat1to1.cpp

; 383  : 				pUser->REPLACE( g_uIdofMulti, WI_WORLD_MADRIGAL, D3DXVECTOR3( 6983.0f, 0.0f, 3326.0f ), REPLACE_NORMAL, nDefaultLayer );

  000be	50		 push	 eax
  000bf	6a 01		 push	 1
  000c1	ff 35 00 00 00
	00		 push	 DWORD PTR ?g_uIdofMulti@@3KA ; g_uIdofMulti
  000c7	8b ce		 mov	 ecx, esi
; File C:\IAGOS\server\v18\Source\Source\DX_SDK\d3dx9math.inl

; 301  :     y = fy;

  000c9	c7 45 f4 00 00
	00 00		 mov	 DWORD PTR $T2[ebp+4], 0

; 302  :     z = fz;

  000d0	c7 45 f8 00 e0
	4f 45		 mov	 DWORD PTR $T2[ebp+8], 1162862592 ; 454fe000H
; File C:\IAGOS\server\v18\Source\Source\_Common\GuildCombat1to1.cpp

; 383  : 				pUser->REPLACE( g_uIdofMulti, WI_WORLD_MADRIGAL, D3DXVECTOR3( 6983.0f, 0.0f, 3326.0f ), REPLACE_NORMAL, nDefaultLayer );

  000d7	e8 00 00 00 00	 call	 ?Replace@CMover@@QAEHKKAAUD3DXVECTOR3@@W4REPLACE_TYPE@@H@Z ; CMover::Replace
$LN5@GuildComba:
; File C:\Program Files\Microsoft Visual Studio\2022\Professional\VC\Tools\MSVC\14.44.35207\include\vector

; 1934 :         return _My_data._Myfirst[_Pos];

  000dc	8b 45 ec	 mov	 eax, DWORD PTR tv652[ebp]
; File C:\IAGOS\server\v18\Source\Source\_Common\GuildCombat1to1.cpp

; 377  : 		for( int j=0; j<(int)( m_vecTenderGuild[m_nIndex[i]].vecMemberId.size() ); j++ )

  000df	43		 inc	 ebx
; File C:\Program Files\Microsoft Visual Studio\2022\Professional\VC\Tools\MSVC\14.44.35207\include\vector

; 1914 :         auto& _My_data = _Mypair._Myval2;

  000e0	8b 57 04	 mov	 edx, DWORD PTR [edi+4]

; 1934 :         return _My_data._Myfirst[_Pos];

  000e3	8b 30		 mov	 esi, DWORD PTR [eax]
  000e5	6b ce 2c	 imul	 ecx, esi, 44

; 1915 :         return static_cast<size_type>(_My_data._Mylast - _My_data._Myfirst);

  000e8	8b 44 11 24	 mov	 eax, DWORD PTR [ecx+edx+36]
  000ec	2b 44 11 20	 sub	 eax, DWORD PTR [ecx+edx+32]
  000f0	c1 f8 02	 sar	 eax, 2
; File C:\IAGOS\server\v18\Source\Source\_Common\GuildCombat1to1.cpp

; 377  : 		for( int j=0; j<(int)( m_vecTenderGuild[m_nIndex[i]].vecMemberId.size() ); j++ )

  000f3	3b d8		 cmp	 ebx, eax
  000f5	0f 8c 55 ff ff
	ff		 jl	 $LL7@GuildComba
$LN2@GuildComba:

; 373  : 
; 374  : 	CUser* pUser = NULL;
; 375  : 	for( int i=0; i<2; i++ )

  000fb	8b 45 ec	 mov	 eax, DWORD PTR tv652[ebp]
  000fe	83 c0 04	 add	 eax, 4
  00101	83 6d e8 01	 sub	 DWORD PTR tv653[ebp], 1
  00105	89 45 ec	 mov	 DWORD PTR tv652[ebp], eax
  00108	0f 85 22 ff ff
	ff		 jne	 $LL4@GuildComba

; 384  : 			}
; 385  : 		}
; 386  : 	}
; 387  : }

  0010e	8b 4d fc	 mov	 ecx, DWORD PTR __$ArrayPad$[ebp]
  00111	5f		 pop	 edi
  00112	5e		 pop	 esi
  00113	33 cd		 xor	 ecx, ebp
  00115	5b		 pop	 ebx
  00116	e8 00 00 00 00	 call	 @__security_check_cookie@4
  0011b	8b e5		 mov	 esp, ebp
  0011d	5d		 pop	 ebp
  0011e	c3		 ret	 0
?GuildCombat1to1Close@CGuildCombat1to1@@QAEXXZ ENDP	; CGuildCombat1to1::GuildCombat1to1Close
_TEXT	ENDS
; Function compile flags: /Ogtp
; File C:\IAGOS\server\v18\Source\Source\_Common\GuildCombat1to1.cpp
; File C:\Program Files\Microsoft Visual Studio\2022\Professional\VC\Tools\MSVC\14.44.35207\include\vector
; File C:\IAGOS\server\v18\Source\Source\_Common\GuildCombat1to1.cpp
; File C:\Program Files\Microsoft Visual Studio\2022\Professional\VC\Tools\MSVC\14.44.35207\include\vector
; File C:\IAGOS\server\v18\Source\Source\_Common\GuildCombat1to1.cpp
; File C:\Program Files\Microsoft Visual Studio\2022\Professional\VC\Tools\MSVC\14.44.35207\include\vector
; File C:\IAGOS\server\v18\Source\Source\_Common\GuildCombat1to1.cpp
; File C:\Program Files\Microsoft Visual Studio\2022\Professional\VC\Tools\MSVC\14.44.35207\include\vector
; File C:\IAGOS\server\v18\Source\Source\_Common\GuildCombat1to1.cpp
; File C:\Program Files\Microsoft Visual Studio\2022\Professional\VC\Tools\MSVC\14.44.35207\include\vector
; File C:\IAGOS\server\v18\Source\Source\_Common\GuildCombat1to1.cpp
; File C:\Program Files\Microsoft Visual Studio\2022\Professional\VC\Tools\MSVC\14.44.35207\include\xtree
; File C:\Program Files\Microsoft Visual Studio\2022\Professional\VC\Tools\MSVC\14.44.35207\include\vector
; File C:\Program Files\Microsoft Visual Studio\2022\Professional\VC\Tools\MSVC\14.44.35207\include\xtree
; File C:\IAGOS\server\v18\Source\Source\_Common\GuildCombat1to1.cpp
; File C:\Program Files\Microsoft Visual Studio\2022\Professional\VC\Tools\MSVC\14.44.35207\include\xtree
; File C:\Program Files\Microsoft Visual Studio\2022\Professional\VC\Tools\MSVC\14.44.35207\include\type_traits
; File C:\Program Files\Microsoft Visual Studio\2022\Professional\VC\Tools\MSVC\14.44.35207\include\xtree
; File C:\Program Files\Microsoft Visual Studio\2022\Professional\VC\Tools\MSVC\14.44.35207\include\type_traits
; File C:\Program Files\Microsoft Visual Studio\2022\Professional\VC\Tools\MSVC\14.44.35207\include\xtree
; File C:\IAGOS\server\v18\Source\Source\_Common\Project.h
; File C:\IAGOS\server\v18\Source\Source\_Common\GuildCombat1to1.cpp
; File C:\Program Files\Microsoft Visual Studio\2022\Professional\VC\Tools\MSVC\14.44.35207\include\vector
; File C:\IAGOS\server\v18\Source\Source\_Common\GuildCombat1to1.cpp
; File C:\Program Files\Microsoft Visual Studio\2022\Professional\VC\Tools\MSVC\14.44.35207\include\vector
; File C:\IAGOS\server\v18\Source\Source\_Common\GuildCombat1to1.cpp
; File C:\Program Files\Microsoft Visual Studio\2022\Professional\VC\Tools\MSVC\14.44.35207\include\vector
; File C:\IAGOS\server\v18\Source\Source\_Common\GuildCombat1to1.cpp
; File C:\Program Files\Microsoft Visual Studio\2022\Professional\VC\Tools\MSVC\14.44.35207\include\vector
; File C:\IAGOS\server\v18\Source\Source\_Common\GuildCombat1to1.cpp
; File C:\Program Files\Microsoft Visual Studio\2022\Professional\VC\Tools\MSVC\14.44.35207\include\vector
; File C:\IAGOS\server\v18\Source\Source\_Common\GuildCombat1to1.cpp
; File C:\Program Files\Microsoft Visual Studio\2022\Professional\VC\Tools\MSVC\14.44.35207\include\vector
; File C:\IAGOS\server\v18\Source\Source\_Common\GuildCombat1to1.cpp
;	COMDAT ?GuildCombat1to1CloseWait@CGuildCombat1to1@@QAEXXZ
_TEXT	SEGMENT
tv960 = -16						; size = 4
_nWinIndex$2$ = -12					; size = 4
_j$1$ = -8						; size = 4
tv949 = -4						; size = 4
?GuildCombat1to1CloseWait@CGuildCombat1to1@@QAEXXZ PROC	; CGuildCombat1to1::GuildCombat1to1CloseWait, COMDAT
; _this$ = ecx

; 318  : {

  00000	55		 push	 ebp
  00001	8b ec		 mov	 ebp, esp
  00003	83 ec 10	 sub	 esp, 16			; 00000010H
  00006	53		 push	 ebx
  00007	56		 push	 esi
  00008	57		 push	 edi
  00009	8b f9		 mov	 edi, ecx

; 319  : 	ClearTime();

  0000b	e8 00 00 00 00	 call	 ?ClearTime@CGuildCombat1to1@@QAEXXZ ; CGuildCombat1to1::ClearTime

; 320  : 	m_nState = GC1TO1WAR_CLOSEWAIT;
; 321  : 	m_nWaitTime = (int)( g_GuildCombat1to1Mng.m_Lua.GetGlobalNumber( "WarCloseWaitTime" ) );

  00010	68 00 00 00 00	 push	 OFFSET ??_C@_0BB@JBOIJMPD@WarCloseWaitTime@
  00015	b9 20 00 00 00	 mov	 ecx, OFFSET ?g_GuildCombat1to1Mng@@3VCGuildCombat1to1Mng@@A+32
  0001a	c7 47 10 68 00
	00 00		 mov	 DWORD PTR [edi+16], 104	; 00000068H
  00021	e8 00 00 00 00	 call	 ?GetGlobalNumber@CLuaBase@@QAENPAD@Z ; CLuaBase::GetGlobalNumber
  00026	e8 00 00 00 00	 call	 __ftol2_sse
  0002b	89 47 14	 mov	 DWORD PTR [edi+20], eax

; 322  : 	m_dwTime = GetTickCount();

  0002e	ff 15 00 00 00
	00		 call	 DWORD PTR __imp__GetTickCount@0

; 323  : 	SendNowStateAllPlayer();

  00034	8b cf		 mov	 ecx, edi
  00036	89 47 18	 mov	 DWORD PTR [edi+24], eax
  00039	e8 00 00 00 00	 call	 ?SendNowStateAllPlayer@CGuildCombat1to1@@QAEXXZ ; CGuildCombat1to1::SendNowStateAllPlayer
; File C:\Program Files\Microsoft Visual Studio\2022\Professional\VC\Tools\MSVC\14.44.35207\include\vector

; 1934 :         return _My_data._Myfirst[_Pos];

  0003e	8b 77 24	 mov	 esi, DWORD PTR [edi+36]
; File C:\IAGOS\server\v18\Source\Source\_Common\GuildCombat1to1.cpp

; 327  : 	if( m_vecTenderGuild[m_nIndex[0]].nWinCount > m_vecTenderGuild[m_nIndex[1]].nWinCount )

  00041	8b 5f 04	 mov	 ebx, DWORD PTR [edi+4]
; File C:\Program Files\Microsoft Visual Studio\2022\Professional\VC\Tools\MSVC\14.44.35207\include\vector

; 1934 :         return _My_data._Myfirst[_Pos];

  00044	8b 57 28	 mov	 edx, DWORD PTR [edi+40]
  00047	6b c6 2c	 imul	 eax, esi, 44
  0004a	89 75 f4	 mov	 DWORD PTR _nWinIndex$2$[ebp], esi
; File C:\IAGOS\server\v18\Source\Source\_Common\GuildCombat1to1.cpp

; 327  : 	if( m_vecTenderGuild[m_nIndex[0]].nWinCount > m_vecTenderGuild[m_nIndex[1]].nWinCount )

  0004d	8b 4c 18 14	 mov	 ecx, DWORD PTR [eax+ebx+20]
; File C:\Program Files\Microsoft Visual Studio\2022\Professional\VC\Tools\MSVC\14.44.35207\include\vector

; 1934 :         return _My_data._Myfirst[_Pos];

  00051	6b c2 2c	 imul	 eax, edx, 44
; File C:\IAGOS\server\v18\Source\Source\_Common\GuildCombat1to1.cpp

; 327  : 	if( m_vecTenderGuild[m_nIndex[0]].nWinCount > m_vecTenderGuild[m_nIndex[1]].nWinCount )

  00054	8b 44 18 14	 mov	 eax, DWORD PTR [eax+ebx+20]
  00058	3b c8		 cmp	 ecx, eax
  0005a	7f 0b		 jg	 SHORT $LN10@GuildComba

; 328  : 		nWinIndex = m_nIndex[0];
; 329  : 	else if( m_vecTenderGuild[m_nIndex[0]].nWinCount < m_vecTenderGuild[m_nIndex[1]].nWinCount )

  0005c	83 ce ff	 or	 esi, -1
  0005f	3b c8		 cmp	 ecx, eax
  00061	0f 4c f2	 cmovl	 esi, edx
  00064	89 75 f4	 mov	 DWORD PTR _nWinIndex$2$[ebp], esi
$LN10@GuildComba:

; 330  : 		nWinIndex = m_nIndex[1];
; 331  : 	
; 332  : 	// ±ćµĺ ˝ÂĆĐ ¸ŢĽĽÁö Ăâ·Â(˝Â¸® ±ćµĺ´Â Ä¨ Ăß°ˇ Áö±Ţ)
; 333  : 	CUser* pUser = NULL;
; 334  : 	for( int i=0; i<2; i++ )

  00067	8d 47 24	 lea	 eax, DWORD PTR [edi+36]
  0006a	c7 45 f0 02 00
	00 00		 mov	 DWORD PTR tv960[ebp], 2
  00071	89 45 fc	 mov	 DWORD PTR tv949[ebp], eax
$LL4@GuildComba:
; File C:\Program Files\Microsoft Visual Studio\2022\Professional\VC\Tools\MSVC\14.44.35207\include\vector

; 1934 :         return _My_data._Myfirst[_Pos];

  00074	8b 30		 mov	 esi, DWORD PTR [eax]
; File C:\IAGOS\server\v18\Source\Source\_Common\GuildCombat1to1.cpp

; 336  : 		for( int j=0; j<(int)( m_vecTenderGuild[m_nIndex[i]].vecMemberId.size() ); j++ )

  00076	33 c9		 xor	 ecx, ecx
  00078	89 4d f8	 mov	 DWORD PTR _j$1$[ebp], ecx
; File C:\Program Files\Microsoft Visual Studio\2022\Professional\VC\Tools\MSVC\14.44.35207\include\vector

; 1915 :         return static_cast<size_type>(_My_data._Mylast - _My_data._Myfirst);

  0007b	8b d3		 mov	 edx, ebx

; 1934 :         return _My_data._Myfirst[_Pos];

  0007d	6b ce 2c	 imul	 ecx, esi, 44

; 1915 :         return static_cast<size_type>(_My_data._Mylast - _My_data._Myfirst);

  00080	8b 44 19 24	 mov	 eax, DWORD PTR [ecx+ebx+36]
  00084	2b 44 19 20	 sub	 eax, DWORD PTR [ecx+ebx+32]
; File C:\IAGOS\server\v18\Source\Source\_Common\GuildCombat1to1.cpp

; 336  : 		for( int j=0; j<(int)( m_vecTenderGuild[m_nIndex[i]].vecMemberId.size() ); j++ )

  00088	a9 fc ff ff ff	 test	 eax, -4			; fffffffcH
  0008d	0f 8e 0a 01 00
	00		 jle	 $LN2@GuildComba
$LL7@GuildComba:
; File C:\Program Files\Microsoft Visual Studio\2022\Professional\VC\Tools\MSVC\14.44.35207\include\xtree

; 1630 :         _Tree_find_result<_Nodeptr> _Result{{_Scary->_Myhead->_Parent, _Tree_child::_Right}, _Scary->_Myhead};

  00093	8b 15 28 00 00
	00		 mov	 edx, DWORD PTR ?prj@@3VCProject@@A+40
; File C:\Program Files\Microsoft Visual Studio\2022\Professional\VC\Tools\MSVC\14.44.35207\include\vector

; 1934 :         return _My_data._Myfirst[_Pos];

  00099	6b c6 2c	 imul	 eax, esi, 44
; File C:\Program Files\Microsoft Visual Studio\2022\Professional\VC\Tools\MSVC\14.44.35207\include\xtree

; 1630 :         _Tree_find_result<_Nodeptr> _Result{{_Scary->_Myhead->_Parent, _Tree_child::_Right}, _Scary->_Myhead};

  0009c	8b f2		 mov	 esi, edx
; File C:\IAGOS\server\v18\Source\Source\_Common\GuildCombat1to1.cpp

; 338  : 			pUser = (CUser*)prj.GetUserByID( m_vecTenderGuild[m_nIndex[i]].vecMemberId[j] );

  0009e	8b 44 18 20	 mov	 eax, DWORD PTR [eax+ebx+32]
  000a2	8b 5d f8	 mov	 ebx, DWORD PTR _j$1$[ebp]
  000a5	8b 0c 98	 mov	 ecx, DWORD PTR [eax+ebx*4]
; File C:\Program Files\Microsoft Visual Studio\2022\Professional\VC\Tools\MSVC\14.44.35207\include\xtree

; 1630 :         _Tree_find_result<_Nodeptr> _Result{{_Scary->_Myhead->_Parent, _Tree_child::_Right}, _Scary->_Myhead};

  000a8	8b 42 04	 mov	 eax, DWORD PTR [edx+4]

; 1631 :         _Nodeptr _Trynode = _Result._Location._Parent;
; 1632 :         while (!_Trynode->_Isnil) {

  000ab	80 78 0d 00	 cmp	 BYTE PTR [eax+13], 0
  000af	75 14		 jne	 SHORT $LN39@GuildComba
$LL38@GuildComba:
; File C:\Program Files\Microsoft Visual Studio\2022\Professional\VC\Tools\MSVC\14.44.35207\include\type_traits

; 2380 :         return _Left < _Right;

  000b1	39 48 10	 cmp	 DWORD PTR [eax+16], ecx
; File C:\Program Files\Microsoft Visual Studio\2022\Professional\VC\Tools\MSVC\14.44.35207\include\xtree

; 1634 :             if (_DEBUG_LT_PRED(_Getcomp(), _Traits::_Kfn(_Trynode->_Myval), _Keyval)) {

  000b4	73 05		 jae	 SHORT $LN40@GuildComba

; 1635 :                 _Result._Location._Child = _Tree_child::_Right;
; 1636 :                 _Trynode                 = _Trynode->_Right;

  000b6	8b 40 08	 mov	 eax, DWORD PTR [eax+8]

; 1637 :             } else {

  000b9	eb 04		 jmp	 SHORT $LN41@GuildComba
$LN40@GuildComba:

; 1638 :                 _Result._Location._Child = _Tree_child::_Left;
; 1639 :                 _Result._Bound           = _Trynode;

  000bb	8b f0		 mov	 esi, eax

; 1640 :                 _Trynode                 = _Trynode->_Left;

  000bd	8b 00		 mov	 eax, DWORD PTR [eax]
$LN41@GuildComba:

; 1631 :         _Nodeptr _Trynode = _Result._Location._Parent;
; 1632 :         while (!_Trynode->_Isnil) {

  000bf	80 78 0d 00	 cmp	 BYTE PTR [eax+13], 0
  000c3	74 ec		 je	 SHORT $LL38@GuildComba
$LN39@GuildComba:

; 1624 :         return !_Bound->_Isnil && !_DEBUG_LT_PRED(_Getcomp(), _Keyval, _Traits::_Kfn(_Bound->_Myval));

  000c5	80 7e 0d 00	 cmp	 BYTE PTR [esi+13], 0
  000c9	75 05		 jne	 SHORT $LN35@GuildComba
; File C:\Program Files\Microsoft Visual Studio\2022\Professional\VC\Tools\MSVC\14.44.35207\include\type_traits

; 2380 :         return _Left < _Right;

  000cb	3b 4e 10	 cmp	 ecx, DWORD PTR [esi+16]
; File C:\Program Files\Microsoft Visual Studio\2022\Professional\VC\Tools\MSVC\14.44.35207\include\xtree

; 1624 :         return !_Bound->_Isnil && !_DEBUG_LT_PRED(_Getcomp(), _Keyval, _Traits::_Kfn(_Bound->_Myval));

  000ce	73 02		 jae	 SHORT $LN34@GuildComba
$LN35@GuildComba:

; 1389 :         return _Get_scary()->_Myhead;

  000d0	8b f2		 mov	 esi, edx
$LN34@GuildComba:

; 37   :     _Tree_unchecked_const_iterator(_Nodeptr _Pnode, const _Mytree* _Plist) noexcept : _Ptr(_Pnode) {

  000d2	3b f2		 cmp	 esi, edx
; File C:\IAGOS\server\v18\Source\Source\_Common\Project.h

; 1436 : 	if( i != m_idPlayerToUserPtr.end() )

  000d4	74 05		 je	 SHORT $LN30@GuildComba

; 1437 : 		return i->second;

  000d6	8b 76 14	 mov	 esi, DWORD PTR [esi+20]
  000d9	eb 02		 jmp	 SHORT $LN29@GuildComba
$LN30@GuildComba:

; 1438 : 	return NULL;

  000db	33 f6		 xor	 esi, esi
$LN29@GuildComba:
; File C:\IAGOS\server\v18\Source\Source\_Common\GuildCombat1to1.cpp

; 339  : 			if( IsPossibleUser( pUser ) )

  000dd	56		 push	 esi
  000de	8b cf		 mov	 ecx, edi
  000e0	e8 00 00 00 00	 call	 ?IsPossibleUser@CGuildCombat1to1@@QAEHPAVCUser@@@Z ; CGuildCombat1to1::IsPossibleUser
  000e5	85 c0		 test	 eax, eax
  000e7	0f 84 8b 00 00
	00		 je	 $LN5@GuildComba

; 340  : 			{
; 341  : 				if( m_nIndex[i] == nWinIndex )	// ˝Â¸® ±ćµĺ

  000ed	8b 45 fc	 mov	 eax, DWORD PTR tv949[ebp]
  000f0	8b 4d f4	 mov	 ecx, DWORD PTR _nWinIndex$2$[ebp]
  000f3	6a 00		 push	 0
  000f5	39 08		 cmp	 DWORD PTR [eax], ecx
  000f7	75 3b		 jne	 SHORT $LN12@GuildComba

; 342  : 				{
; 343  : 					SetWinChip( pUser, NULL, FALSE, FALSE );

  000f9	6a 00		 push	 0
  000fb	6a 00		 push	 0
  000fd	56		 push	 esi
  000fe	8b cf		 mov	 ecx, edi
  00100	e8 00 00 00 00	 call	 ?SetWinChip@CGuildCombat1to1@@QAEXPAVCUser@@0HH@Z ; CGuildCombat1to1::SetWinChip

; 344  : 					pUser->AddDefinedCaption( TRUE, TID_GAME_GUILDCOMBAT1TO1_WARGUILDWIN, "" );

  00105	68 00 00 00 00	 push	 OFFSET ??_C@_00CNPNBAHC@@
  0010a	68 64 0d 00 00	 push	 3428			; 00000d64H
  0010f	6a 01		 push	 1
  00111	56		 push	 esi
  00112	e8 00 00 00 00	 call	 ?AddDefinedCaption@CUser@@QAAXHHPBDZZ ; CUser::AddDefinedCaption
  00117	83 c4 10	 add	 esp, 16			; 00000010H

; 345  : 					pUser->AddDefinedText( TID_GAME_GUILDCOMBAT1TO1_WARGUILDWINCHIP, "%d", GetChipNum() );

  0011a	8b cf		 mov	 ecx, edi
  0011c	e8 00 00 00 00	 call	 ?GetChipNum@CGuildCombat1to1@@QAEHXZ ; CGuildCombat1to1::GetChipNum
  00121	50		 push	 eax
  00122	68 00 00 00 00	 push	 OFFSET ??_C@_02DPKJAMEF@?$CFd@
  00127	68 67 0d 00 00	 push	 3431			; 00000d67H
  0012c	56		 push	 esi
  0012d	e8 00 00 00 00	 call	 ?AddDefinedText@CUser@@QAAXHPBDZZ ; CUser::AddDefinedText

; 346  : 				}

  00132	eb 39		 jmp	 SHORT $LN139@GuildComba
$LN12@GuildComba:

; 347  : 				else if( nWinIndex == NULL_ID ) // şń±č

  00134	83 f9 ff	 cmp	 ecx, -1
  00137	8b cf		 mov	 ecx, edi
  00139	75 16		 jne	 SHORT $LN14@GuildComba

; 348  : 				{
; 349  : 					SetWinChip( pUser, NULL, TRUE, FALSE );

  0013b	6a 01		 push	 1
  0013d	6a 00		 push	 0
  0013f	56		 push	 esi
  00140	e8 00 00 00 00	 call	 ?SetWinChip@CGuildCombat1to1@@QAEXPAVCUser@@0HH@Z ; CGuildCombat1to1::SetWinChip

; 350  : 					pUser->AddDefinedCaption( TRUE, TID_GAME_GUILDCOMBAT1TO1_WARGUILDDRAW, "" );

  00145	68 00 00 00 00	 push	 OFFSET ??_C@_00CNPNBAHC@@
  0014a	68 66 0d 00 00	 push	 3430			; 00000d66H

; 351  : 				}

  0014f	eb 14		 jmp	 SHORT $LN140@GuildComba
$LN14@GuildComba:

; 352  : 				else							// ĆĐąč ±ćµĺ
; 353  : 				{
; 354  : 					SetWinChip( NULL, pUser, FALSE, FALSE );

  00151	6a 00		 push	 0
  00153	56		 push	 esi
  00154	6a 00		 push	 0
  00156	e8 00 00 00 00	 call	 ?SetWinChip@CGuildCombat1to1@@QAEXPAVCUser@@0HH@Z ; CGuildCombat1to1::SetWinChip

; 355  : 					pUser->AddDefinedCaption( TRUE, TID_GAME_GUILDCOMBAT1TO1_WARGUILDLOST, "" );

  0015b	68 00 00 00 00	 push	 OFFSET ??_C@_00CNPNBAHC@@
  00160	68 65 0d 00 00	 push	 3429			; 00000d65H
$LN140@GuildComba:

; 356  : 				}
; 357  : 
; 358  : 				SendNowState( pUser );

  00165	6a 01		 push	 1
  00167	56		 push	 esi
  00168	e8 00 00 00 00	 call	 ?AddDefinedCaption@CUser@@QAAXHHPBDZZ ; CUser::AddDefinedCaption
$LN139@GuildComba:
  0016d	83 c4 10	 add	 esp, 16			; 00000010H
  00170	8b cf		 mov	 ecx, edi
  00172	56		 push	 esi
  00173	e8 00 00 00 00	 call	 ?SendNowState@CGuildCombat1to1@@QAEXPAVCUser@@@Z ; CGuildCombat1to1::SendNowState
$LN5@GuildComba:
; File C:\Program Files\Microsoft Visual Studio\2022\Professional\VC\Tools\MSVC\14.44.35207\include\vector

; 1934 :         return _My_data._Myfirst[_Pos];

  00178	8b 45 fc	 mov	 eax, DWORD PTR tv949[ebp]
; File C:\IAGOS\server\v18\Source\Source\_Common\GuildCombat1to1.cpp

; 336  : 		for( int j=0; j<(int)( m_vecTenderGuild[m_nIndex[i]].vecMemberId.size() ); j++ )

  0017b	43		 inc	 ebx
; File C:\Program Files\Microsoft Visual Studio\2022\Professional\VC\Tools\MSVC\14.44.35207\include\vector

; 1914 :         auto& _My_data = _Mypair._Myval2;

  0017c	8b 57 04	 mov	 edx, DWORD PTR [edi+4]
; File C:\IAGOS\server\v18\Source\Source\_Common\GuildCombat1to1.cpp

; 336  : 		for( int j=0; j<(int)( m_vecTenderGuild[m_nIndex[i]].vecMemberId.size() ); j++ )

  0017f	89 5d f8	 mov	 DWORD PTR _j$1$[ebp], ebx
; File C:\Program Files\Microsoft Visual Studio\2022\Professional\VC\Tools\MSVC\14.44.35207\include\vector

; 1915 :         return static_cast<size_type>(_My_data._Mylast - _My_data._Myfirst);

  00182	8b da		 mov	 ebx, edx

; 1934 :         return _My_data._Myfirst[_Pos];

  00184	8b 30		 mov	 esi, DWORD PTR [eax]
  00186	6b ce 2c	 imul	 ecx, esi, 44

; 1915 :         return static_cast<size_type>(_My_data._Mylast - _My_data._Myfirst);

  00189	8b 44 11 24	 mov	 eax, DWORD PTR [ecx+edx+36]
  0018d	2b 44 11 20	 sub	 eax, DWORD PTR [ecx+edx+32]
  00191	c1 f8 02	 sar	 eax, 2
; File C:\IAGOS\server\v18\Source\Source\_Common\GuildCombat1to1.cpp

; 336  : 		for( int j=0; j<(int)( m_vecTenderGuild[m_nIndex[i]].vecMemberId.size() ); j++ )

  00194	39 45 f8	 cmp	 DWORD PTR _j$1$[ebp], eax
  00197	0f 8c f6 fe ff
	ff		 jl	 $LL7@GuildComba
$LN2@GuildComba:

; 330  : 		nWinIndex = m_nIndex[1];
; 331  : 	
; 332  : 	// ±ćµĺ ˝ÂĆĐ ¸ŢĽĽÁö Ăâ·Â(˝Â¸® ±ćµĺ´Â Ä¨ Ăß°ˇ Áö±Ţ)
; 333  : 	CUser* pUser = NULL;
; 334  : 	for( int i=0; i<2; i++ )

  0019d	8b 45 fc	 mov	 eax, DWORD PTR tv949[ebp]
  001a0	8b da		 mov	 ebx, edx
  001a2	83 c0 04	 add	 eax, 4
  001a5	83 6d f0 01	 sub	 DWORD PTR tv960[ebp], 1
  001a9	89 45 fc	 mov	 DWORD PTR tv949[ebp], eax
  001ac	0f 85 c2 fe ff
	ff		 jne	 $LL4@GuildComba
; File C:\Program Files\Microsoft Visual Studio\2022\Professional\VC\Tools\MSVC\14.44.35207\include\vector

; 1934 :         return _My_data._Myfirst[_Pos];

  001b2	6b 47 24 2c	 imul	 eax, DWORD PTR [edi+36], 44
; File C:\IAGOS\server\v18\Source\Source\_Common\GuildCombat1to1.cpp

; 363  : 	g_dpDBClient.SendGC1to1Tender( 'U', m_vecTenderGuild[m_nIndex[0]].ulGuildId, m_vecTenderGuild[m_nIndex[0]].nPenya, 'E' );

  001b6	b9 00 00 00 00	 mov	 ecx, OFFSET ?g_dpDBClient@@3VCDPDatabaseClient@@A ; g_dpDBClient
  001bb	6a 45		 push	 69			; 00000045H
  001bd	ff 74 10 04	 push	 DWORD PTR [eax+edx+4]
  001c1	ff 34 10	 push	 DWORD PTR [eax+edx]
  001c4	6a 55		 push	 85			; 00000055H
  001c6	e8 00 00 00 00	 call	 ?SendGC1to1Tender@CDPDatabaseClient@@QAEXDKHD@Z ; CDPDatabaseClient::SendGC1to1Tender
; File C:\Program Files\Microsoft Visual Studio\2022\Professional\VC\Tools\MSVC\14.44.35207\include\vector

; 1934 :         return _My_data._Myfirst[_Pos];

  001cb	6b 4f 28 2c	 imul	 ecx, DWORD PTR [edi+40], 44
; File C:\IAGOS\server\v18\Source\Source\_Common\GuildCombat1to1.cpp

; 364  : 	g_dpDBClient.SendGC1to1Tender( 'U', m_vecTenderGuild[m_nIndex[1]].ulGuildId, m_vecTenderGuild[m_nIndex[1]].nPenya, 'E' );

  001cf	8b 47 04	 mov	 eax, DWORD PTR [edi+4]
  001d2	6a 45		 push	 69			; 00000045H
  001d4	ff 74 01 04	 push	 DWORD PTR [ecx+eax+4]
  001d8	ff 34 01	 push	 DWORD PTR [ecx+eax]
  001db	b9 00 00 00 00	 mov	 ecx, OFFSET ?g_dpDBClient@@3VCDPDatabaseClient@@A ; g_dpDBClient
  001e0	6a 55		 push	 85			; 00000055H
  001e2	e8 00 00 00 00	 call	 ?SendGC1to1Tender@CDPDatabaseClient@@QAEXDKHD@Z ; CDPDatabaseClient::SendGC1to1Tender
; File C:\Program Files\Microsoft Visual Studio\2022\Professional\VC\Tools\MSVC\14.44.35207\include\vector

; 1934 :         return _My_data._Myfirst[_Pos];

  001e7	6b 57 24 2c	 imul	 edx, DWORD PTR [edi+36], 44
; File C:\IAGOS\server\v18\Source\Source\_Common\GuildCombat1to1.cpp

; 365  : 	g_dpDBClient.SendGC1to1WarGuild( m_vecTenderGuild[m_nIndex[0]].dwWorldId, 0, 0, 'E' );

  001eb	b9 00 00 00 00	 mov	 ecx, OFFSET ?g_dpDBClient@@3VCDPDatabaseClient@@A ; g_dpDBClient
  001f0	8b 47 04	 mov	 eax, DWORD PTR [edi+4]
  001f3	6a 45		 push	 69			; 00000045H
  001f5	6a 00		 push	 0
  001f7	6a 00		 push	 0
  001f9	ff 74 02 10	 push	 DWORD PTR [edx+eax+16]
  001fd	e8 00 00 00 00	 call	 ?SendGC1to1WarGuild@CDPDatabaseClient@@QAEXKKKD@Z ; CDPDatabaseClient::SendGC1to1WarGuild
  00202	5f		 pop	 edi
  00203	5e		 pop	 esi
  00204	5b		 pop	 ebx

; 366  : }

  00205	8b e5		 mov	 esp, ebp
  00207	5d		 pop	 ebp
  00208	c3		 ret	 0
?GuildCombat1to1CloseWait@CGuildCombat1to1@@QAEXXZ ENDP	; CGuildCombat1to1::GuildCombat1to1CloseWait
_TEXT	ENDS
; Function compile flags: /Ogtp
; File C:\IAGOS\server\v18\Source\Source\_Common\GuildCombat1to1.cpp
; File C:\IAGOS\server\v18\Source\Source\_Common\Project.h
; File C:\IAGOS\server\v18\Source\Source\_Common\data.h
; File C:\IAGOS\server\v18\Source\Source\_Common\Project.h
; File C:\IAGOS\server\v18\Source\Source\_Common\GuildCombat1to1.cpp
; File C:\IAGOS\server\v18\Source\Source\_Common\Project.h
; File C:\IAGOS\server\v18\Source\Source\_Common\data.h
; File C:\IAGOS\server\v18\Source\Source\_Common\Project.h
; File C:\IAGOS\server\v18\Source\Source\_Common\GuildCombat1to1.cpp
; File C:\IAGOS\server\v18\Source\Source\_Common\Project.h
; File C:\IAGOS\server\v18\Source\Source\_Common\data.h
; File C:\IAGOS\server\v18\Source\Source\_Common\Project.h
; File C:\IAGOS\server\v18\Source\Source\_Common\GuildCombat1to1.cpp
; File C:\IAGOS\server\v18\Source\Source\_Common\Project.h
; File C:\IAGOS\server\v18\Source\Source\_Common\data.h
; File C:\IAGOS\server\v18\Source\Source\_Common\Project.h
; File C:\IAGOS\server\v18\Source\Source\_Common\data.h
; File C:\IAGOS\server\v18\Source\Source\_Common\Project.h
; File C:\IAGOS\server\v18\Source\Source\_Common\GuildCombat1to1.cpp
; File C:\Program Files\Microsoft Visual Studio\2022\Professional\VC\Tools\MSVC\14.44.35207\atlmfc\include\afxstr.h
; File C:\Program Files\Microsoft Visual Studio\2022\Professional\VC\Tools\MSVC\14.44.35207\atlmfc\include\atlsimpstr.h
; File C:\IAGOS\server\v18\Source\Source\_Common\Project.h
; File C:\IAGOS\server\v18\Source\Source\_Common\GuildCombat1to1.cpp
; File C:\IAGOS\server\v18\Source\Source\_Common\Project.h
; File C:\IAGOS\server\v18\Source\Source\_Common\data.h
; File C:\IAGOS\server\v18\Source\Source\_Common\Project.h
; File C:\IAGOS\server\v18\Source\Source\_Common\GuildCombat1to1.cpp
; File C:\Program Files\Microsoft Visual Studio\2022\Professional\VC\Tools\MSVC\14.44.35207\atlmfc\include\atlsimpstr.h
; File C:\IAGOS\server\v18\Source\Source\_Common\GuildCombat1to1.cpp
; File C:\IAGOS\server\v18\Source\Source\_Common\Project.h
; File C:\IAGOS\server\v18\Source\Source\_Common\GuildCombat1to1.cpp
; File C:\IAGOS\server\v18\Source\Source\_Common\data.h
; File C:\IAGOS\server\v18\Source\Source\_Common\Project.h
; File C:\IAGOS\server\v18\Source\Source\_Common\GuildCombat1to1.cpp
; File C:\Program Files\Microsoft Visual Studio\2022\Professional\VC\Tools\MSVC\14.44.35207\atlmfc\include\atlsimpstr.h
; File C:\IAGOS\server\v18\Source\Source\_Common\GuildCombat1to1.cpp
;	COMDAT ?SetWinChip@CGuildCombat1to1@@QAEXPAVCUser@@0HH@Z
_TEXT	SEGMENT
_pUserLost$GSCopy$1$ = -400				; size = 4
_strTemp$2 = -396					; size = 4
_aLogItem$3 = -392					; size = 200
_itemElem$4 = -192					; size = 176
__$ArrayPad$ = -16					; size = 4
__$EHRec$ = -12						; size = 12
_pUserWin$ = 8						; size = 4
_pUserLost$ = 12					; size = 4
_bDraw$ = 16						; size = 4
_bDiag$ = 20						; size = 4
?SetWinChip@CGuildCombat1to1@@QAEXPAVCUser@@0HH@Z PROC	; CGuildCombat1to1::SetWinChip, COMDAT
; _this$ = ecx

; 256  : {

  00000	55		 push	 ebp
  00001	8b ec		 mov	 ebp, esp
  00003	6a ff		 push	 -1
  00005	68 00 00 00 00	 push	 __ehhandler$?SetWinChip@CGuildCombat1to1@@QAEXPAVCUser@@0HH@Z
  0000a	64 a1 00 00 00
	00		 mov	 eax, DWORD PTR fs:0
  00010	50		 push	 eax
  00011	81 ec 84 01 00
	00		 sub	 esp, 388		; 00000184H
  00017	a1 00 00 00 00	 mov	 eax, DWORD PTR ___security_cookie
  0001c	33 c5		 xor	 eax, ebp
  0001e	89 45 f0	 mov	 DWORD PTR __$ArrayPad$[ebp], eax
  00021	53		 push	 ebx
  00022	56		 push	 esi
  00023	57		 push	 edi
  00024	50		 push	 eax
  00025	8d 45 f4	 lea	 eax, DWORD PTR __$EHRec$[ebp]
  00028	64 a3 00 00 00
	00		 mov	 DWORD PTR fs:0, eax
  0002e	8b d9		 mov	 ebx, ecx

; 257  : 	if( bDraw )	// şń°ĺŔ» ¶§(Ä¨ Áö±Ţ ľČÇĎ°í ¸ŢĽĽÁö¸¸ Ăâ·Â)

  00030	83 7d 10 00	 cmp	 DWORD PTR _bDraw$[ebp], 0
  00034	8b 75 0c	 mov	 esi, DWORD PTR _pUserLost$[ebp]
  00037	8b 7d 08	 mov	 edi, DWORD PTR _pUserWin$[ebp]
  0003a	89 b5 70 fe ff
	ff		 mov	 DWORD PTR _pUserLost$GSCopy$1$[ebp], esi
  00040	0f 84 ab 00 00
	00		 je	 $LN2@SetWinChip

; 258  : 	{
; 259  : 		if( bDiag )	// °łŔÎ ˝ÂĆĐ¸¸ ¸ŢĽĽÁö ąÚ˝ş Ăâ·Â

  00046	83 7d 14 00	 cmp	 DWORD PTR _bDiag$[ebp], 0
  0004a	0f 84 d0 03 00
	00		 je	 $LN13@SetWinChip

; 260  : 		{
; 261  : 			if( IsPossibleUser( pUserWin ) )

  00050	57		 push	 edi
  00051	e8 00 00 00 00	 call	 ?IsPossibleUser@CGuildCombat1to1@@QAEHPAVCUser@@@Z ; CGuildCombat1to1::IsPossibleUser
  00056	85 c0		 test	 eax, eax
  00058	74 50		 je	 SHORT $LN4@SetWinChip
; File C:\IAGOS\server\v18\Source\Source\_Common\Project.h

; 1427 : 	VERIFY_RANGE( (int)( dwIndex ), 0, m_colorText.GetSize(), "GetText range_error", "error" );

  0005a	a1 ac 02 00 00	 mov	 eax, DWORD PTR ?prj@@3VCProject@@A+684
  0005f	3d 55 0d 00 00	 cmp	 eax, 3413		; 00000d55H
  00064	7f 21		 jg	 SHORT $LN18@SetWinChip

; 579  : 	LPCTSTR szErr = Error( _T( "%s min:%d, max:%d, index:%d" ), szMsg, nMin, nMax, nIndex ); 

  00066	68 55 0d 00 00	 push	 3413			; 00000d55H
  0006b	50		 push	 eax
  0006c	6a 00		 push	 0
  0006e	68 00 00 00 00	 push	 OFFSET ??_C@_0BE@OHDBLHOM@GetText?5range_error@
  00073	68 00 00 00 00	 push	 OFFSET ??_C@_0BM@HMFGHCP@?$CFs?5min?3?$CFd?0?5max?3?$CFd?0?5index?3?$CFd@
  00078	e8 00 00 00 00	 call	 ?Error@@YAPBDPBDZZ	; Error
  0007d	83 c4 14	 add	 esp, 20			; 00000014H

; 1427 : 	VERIFY_RANGE( (int)( dwIndex ), 0, m_colorText.GetSize(), "GetText range_error", "error" );

  00080	b8 00 00 00 00	 mov	 eax, OFFSET ??_C@_05KKCIMGE@error@
  00085	eb 1b		 jmp	 SHORT $LN17@SetWinChip
$LN18@SetWinChip:
; File C:\IAGOS\server\v18\Source\Source\_Common\data.h

; 270  : 	if( dwIndex >= (DWORD)m_nMaxIndex )

  00087	76 14		 jbe	 SHORT $LN152@SetWinChip

; 271  : 		return NULL;
; 272  : 	return (T*) m_apOffset[ dwIndex ];

  00089	a1 9c 02 00 00	 mov	 eax, DWORD PTR ?prj@@3VCProject@@A+668
  0008e	8b 80 54 35 00
	00		 mov	 eax, DWORD PTR [eax+13652]
; File C:\IAGOS\server\v18\Source\Source\_Common\Project.h

; 1428 : 	if( m_colorText.GetAt( dwIndex ) == NULL )

  00094	85 c0		 test	 eax, eax
  00096	74 05		 je	 SHORT $LN152@SetWinChip

; 1430 : 	return m_colorText.GetAt( dwIndex )->lpszData; 

  00098	8b 40 04	 mov	 eax, DWORD PTR [eax+4]
  0009b	eb 05		 jmp	 SHORT $LN17@SetWinChip
$LN152@SetWinChip:

; 1429 : 		return "";

  0009d	b8 00 00 00 00	 mov	 eax, OFFSET ??_C@_00CNPNBAHC@@
$LN17@SetWinChip:
; File C:\IAGOS\server\v18\Source\Source\_Common\GuildCombat1to1.cpp

; 262  : 				pUserWin->AddDiagText( prj.GetText( TID_GAME_GUILDCOMBAT_1TO1_WARDRAW ) );

  000a2	50		 push	 eax
  000a3	8b cf		 mov	 ecx, edi
  000a5	e8 00 00 00 00	 call	 ?AddDiagText@CUser@@QAEXPBD@Z ; CUser::AddDiagText
$LN4@SetWinChip:

; 263  : 			if( IsPossibleUser( pUserLost ) )

  000aa	56		 push	 esi
  000ab	8b cb		 mov	 ecx, ebx
  000ad	e8 00 00 00 00	 call	 ?IsPossibleUser@CGuildCombat1to1@@QAEHPAVCUser@@@Z ; CGuildCombat1to1::IsPossibleUser
  000b2	85 c0		 test	 eax, eax
  000b4	0f 84 66 03 00
	00		 je	 $LN13@SetWinChip
; File C:\IAGOS\server\v18\Source\Source\_Common\Project.h

; 1427 : 	VERIFY_RANGE( (int)( dwIndex ), 0, m_colorText.GetSize(), "GetText range_error", "error" );

  000ba	a1 ac 02 00 00	 mov	 eax, DWORD PTR ?prj@@3VCProject@@A+684
  000bf	3d 55 0d 00 00	 cmp	 eax, 3413		; 00000d55H
  000c4	7f 0a		 jg	 SHORT $LN34@SetWinChip

; 579  : 	LPCTSTR szErr = Error( _T( "%s min:%d, max:%d, index:%d" ), szMsg, nMin, nMax, nIndex ); 

  000c6	68 55 0d 00 00	 push	 3413			; 00000d55H

; 1427 : 	VERIFY_RANGE( (int)( dwIndex ), 0, m_colorText.GetSize(), "GetText range_error", "error" );

  000cb	e9 11 03 00 00	 jmp	 $LN161@SetWinChip
$LN34@SetWinChip:
; File C:\IAGOS\server\v18\Source\Source\_Common\data.h

; 270  : 	if( dwIndex >= (DWORD)m_nMaxIndex )

  000d0	0f 86 3d 03 00
	00		 jbe	 $LN156@SetWinChip

; 271  : 		return NULL;
; 272  : 	return (T*) m_apOffset[ dwIndex ];

  000d6	a1 9c 02 00 00	 mov	 eax, DWORD PTR ?prj@@3VCProject@@A+668
  000db	8b 80 54 35 00
	00		 mov	 eax, DWORD PTR [eax+13652]
; File C:\IAGOS\server\v18\Source\Source\_Common\Project.h

; 1428 : 	if( m_colorText.GetAt( dwIndex ) == NULL )

  000e1	85 c0		 test	 eax, eax
  000e3	0f 84 2a 03 00
	00		 je	 $LN156@SetWinChip

; 1430 : 	return m_colorText.GetAt( dwIndex )->lpszData; 

  000e9	8b 40 04	 mov	 eax, DWORD PTR [eax+4]
  000ec	e9 27 03 00 00	 jmp	 $LN135@SetWinChip
$LN2@SetWinChip:
; File C:\IAGOS\server\v18\Source\Source\_Common\GuildCombat1to1.cpp

; 269  : 	if( IsPossibleUser( pUserWin ) )

  000f1	57		 push	 edi
  000f2	e8 00 00 00 00	 call	 ?IsPossibleUser@CGuildCombat1to1@@QAEHPAVCUser@@@Z ; CGuildCombat1to1::IsPossibleUser
  000f7	85 c0		 test	 eax, eax
  000f9	0f 84 bf 02 00
	00		 je	 $LN6@SetWinChip

; 270  : 	{
; 271  : 		CItemElem itemElem;

  000ff	8d 8d 40 ff ff
	ff		 lea	 ecx, DWORD PTR _itemElem$4[ebp]
  00105	e8 00 00 00 00	 call	 ??0CItemElem@@QAE@XZ	; CItemElem::CItemElem

; 272  : 		itemElem.m_dwItemId = II_CHP_RED;
; 273  : 		itemElem.m_nItemNum = GetChipNum();

  0010a	8b cb		 mov	 ecx, ebx
  0010c	c7 45 fc 00 00
	00 00		 mov	 DWORD PTR __$EHRec$[ebp+8], 0
  00113	c7 85 4c ff ff
	ff 5c 67 00 00	 mov	 DWORD PTR _itemElem$4[ebp+12], 26460 ; 0000675cH
  0011d	e8 00 00 00 00	 call	 ?GetChipNum@CGuildCombat1to1@@QAEHXZ ; CGuildCombat1to1::GetChipNum
  00122	0f b7 c0	 movzx	 eax, ax
  00125	66 89 45 b4	 mov	 WORD PTR _itemElem$4[ebp+116], ax
  00129	66 83 f8 01	 cmp	 ax, 1

; 274  : 		if( itemElem.m_nItemNum < 1 )

  0012d	7d 09		 jge	 SHORT $LN7@SetWinChip

; 275  : 			itemElem.m_nItemNum = 1;

  0012f	b8 01 00 00 00	 mov	 eax, 1
  00134	66 89 45 b4	 mov	 WORD PTR _itemElem$4[ebp+116], ax
$LN7@SetWinChip:
; File C:\IAGOS\server\v18\Source\Source\_Common\Project.h

; 1389 : 	VERIFY_RANGE_ASSERT( nIndex, 0, m_aPropItem.GetSize(), "GetItemProp range_error", NULL );

  00138	8b 8d 4c ff ff
	ff		 mov	 ecx, DWORD PTR _itemElem$4[ebp+12]
  0013e	a1 40 02 00 00	 mov	 eax, DWORD PTR ?prj@@3VCProject@@A+576
  00143	85 c9		 test	 ecx, ecx
  00145	78 10		 js	 SHORT $LN56@SetWinChip
  00147	3b c8		 cmp	 ecx, eax
  00149	7d 0c		 jge	 SHORT $LN56@SetWinChip
; File C:\IAGOS\server\v18\Source\Source\_Common\data.h

; 270  : 	if( dwIndex >= (DWORD)m_nMaxIndex )

  0014b	73 20		 jae	 SHORT $LN159@SetWinChip

; 271  : 		return NULL;
; 272  : 	return (T*) m_apOffset[ dwIndex ];

  0014d	a1 30 02 00 00	 mov	 eax, DWORD PTR ?prj@@3VCProject@@A+560
  00152	8b 04 88	 mov	 eax, DWORD PTR [eax+ecx*4]
; File C:\IAGOS\server\v18\Source\Source\_Common\Project.h

; 1390 : 	return m_aPropItem.GetAt( nIndex ); 

  00155	eb 18		 jmp	 SHORT $LN51@SetWinChip
$LN56@SetWinChip:

; 579  : 	LPCTSTR szErr = Error( _T( "%s min:%d, max:%d, index:%d" ), szMsg, nMin, nMax, nIndex ); 

  00157	51		 push	 ecx
  00158	50		 push	 eax
  00159	6a 00		 push	 0
  0015b	68 00 00 00 00	 push	 OFFSET ??_C@_0BI@BEIFNGEL@GetItemProp?5range_error@
  00160	68 00 00 00 00	 push	 OFFSET ??_C@_0BM@HMFGHCP@?$CFs?5min?3?$CFd?0?5max?3?$CFd?0?5index?3?$CFd@
  00165	e8 00 00 00 00	 call	 ?Error@@YAPBDPBDZZ	; Error
  0016a	83 c4 14	 add	 esp, 20			; 00000014H
$LN159@SetWinChip:
; File C:\IAGOS\server\v18\Source\Source\_Common\GuildCombat1to1.cpp

; 276  : 		itemElem.m_bCharged = itemElem.GetProp()->bCharged;

  0016d	33 c0		 xor	 eax, eax
$LN51@SetWinChip:
  0016f	8b 80 ec 00 00
	00		 mov	 eax, DWORD PTR [eax+236]

; 277  : 		itemElem.SetSerialNumber();

  00175	8d 8d 40 ff ff
	ff		 lea	 ecx, DWORD PTR _itemElem$4[ebp]
  0017b	89 45 e4	 mov	 DWORD PTR _itemElem$4[ebp+164], eax
  0017e	e8 00 00 00 00	 call	 ?SetSerialNumber@CItemBase@@QAEXXZ ; CItemBase::SetSerialNumber

; 278  : 
; 279  : 		LogItemInfo aLogItem;

  00183	8d 8d 78 fe ff
	ff		 lea	 ecx, DWORD PTR _aLogItem$3[ebp]
  00189	e8 00 00 00 00	 call	 ??0_LogItemInfo@@QAE@XZ	; _LogItemInfo::_LogItemInfo

; 280  : 		aLogItem.Action = "W";
; 281  : 		aLogItem.Gold = pUserWin->GetItemNum( II_CHP_RED );

  0018e	68 5c 67 00 00	 push	 26460			; 0000675cH
  00193	8b cf		 mov	 ecx, edi
  00195	c7 85 78 fe ff
	ff 00 00 00 00	 mov	 DWORD PTR _aLogItem$3[ebp], OFFSET ??_C@_01ELNMCGJD@W@
  0019f	e8 00 00 00 00	 call	 ?GetItemNum@CMover@@QAEHK@Z ; CMover::GetItemNum

; 282  : 		aLogItem.Gold2 = pUserWin->GetItemNum( II_CHP_RED ) + itemElem.m_nItemNum;

  001a4	0f bf 75 b4	 movsx	 esi, WORD PTR _itemElem$4[ebp+116]
  001a8	8b cf		 mov	 ecx, edi
  001aa	68 5c 67 00 00	 push	 26460			; 0000675cH
  001af	89 85 88 fe ff
	ff		 mov	 DWORD PTR _aLogItem$3[ebp+16], eax
  001b5	e8 00 00 00 00	 call	 ?GetItemNum@CMover@@QAEHK@Z ; CMover::GetItemNum
  001ba	03 c6		 add	 eax, esi

; 283  : 		aLogItem.Gold_1 = itemElem.m_nItemNum;

  001bc	89 b5 c4 fe ff
	ff		 mov	 DWORD PTR _aLogItem$3[ebp+76], esi

; 284  : 		aLogItem.SendName = pUserWin->GetName();

  001c2	6a 00		 push	 0
  001c4	8b cf		 mov	 ecx, edi
  001c6	89 85 8c fe ff
	ff		 mov	 DWORD PTR _aLogItem$3[ebp+20], eax
  001cc	e8 00 00 00 00	 call	 ?GetName@CMover@@QAEPBDH@Z ; CMover::GetName
  001d1	89 85 7c fe ff
	ff		 mov	 DWORD PTR _aLogItem$3[ebp+4], eax

; 285  : 		aLogItem.WorldId = pUserWin->GetWorld()->m_dwWorldID;
; 286  : 				
; 287  : 		if( pUserWin->CreateItem( &itemElem ) )

  001d7	8b cf		 mov	 ecx, edi
  001d9	8b 87 6c 01 00
	00		 mov	 eax, DWORD PTR [edi+364]
  001df	6a 00		 push	 0
  001e1	6a 00		 push	 0
  001e3	6a 00		 push	 0
  001e5	8b 00		 mov	 eax, DWORD PTR [eax]
  001e7	89 85 84 fe ff
	ff		 mov	 DWORD PTR _aLogItem$3[ebp+12], eax
  001ed	8d 85 40 ff ff
	ff		 lea	 eax, DWORD PTR _itemElem$4[ebp]
  001f3	50		 push	 eax
  001f4	e8 00 00 00 00	 call	 ?CreateItem@CMover@@QAEHPAVCItemBase@@PAEPAFE@Z ; CMover::CreateItem
  001f9	85 c0		 test	 eax, eax
  001fb	74 23		 je	 SHORT $LN66@SetWinChip

; 288  : 		{
; 289  : 			aLogItem.RecvName = "GUILDCOMBAT1TO1_CHIP";
; 290  : 			if( !bDiag )

  001fd	83 7d 14 00	 cmp	 DWORD PTR _bDiag$[ebp], 0
  00201	c7 85 80 fe ff
	ff 00 00 00 00	 mov	 DWORD PTR _aLogItem$3[ebp+8], OFFSET ??_C@_0BF@DIDDJIGH@GUILDCOMBAT1TO1_CHIP@
  0020b	0f 85 cd 00 00
	00		 jne	 $LN151@SetWinChip

; 291  : 				aLogItem.RecvName = "GUILDCOMBAT1TO1_G_CHIP";

  00211	c7 85 80 fe ff
	ff 00 00 00 00	 mov	 DWORD PTR _aLogItem$3[ebp+8], OFFSET ??_C@_0BH@CEBJEENP@GUILDCOMBAT1TO1_G_CHIP@

; 292  : 		}

  0021b	e9 69 01 00 00	 jmp	 $LN133@SetWinChip
$LN66@SetWinChip:
; File C:\IAGOS\server\v18\Source\Source\_Common\Project.h

; 1427 : 	VERIFY_RANGE( (int)( dwIndex ), 0, m_colorText.GetSize(), "GetText range_error", "error" );

  00220	a1 ac 02 00 00	 mov	 eax, DWORD PTR ?prj@@3VCProject@@A+684
  00225	3d 7f 0d 00 00	 cmp	 eax, 3455		; 00000d7fH
  0022a	7f 21		 jg	 SHORT $LN64@SetWinChip

; 579  : 	LPCTSTR szErr = Error( _T( "%s min:%d, max:%d, index:%d" ), szMsg, nMin, nMax, nIndex ); 

  0022c	68 7f 0d 00 00	 push	 3455			; 00000d7fH
  00231	50		 push	 eax
  00232	6a 00		 push	 0
  00234	68 00 00 00 00	 push	 OFFSET ??_C@_0BE@OHDBLHOM@GetText?5range_error@
  00239	68 00 00 00 00	 push	 OFFSET ??_C@_0BM@HMFGHCP@?$CFs?5min?3?$CFd?0?5max?3?$CFd?0?5index?3?$CFd@
  0023e	e8 00 00 00 00	 call	 ?Error@@YAPBDPBDZZ	; Error
  00243	83 c4 14	 add	 esp, 20			; 00000014H

; 1427 : 	VERIFY_RANGE( (int)( dwIndex ), 0, m_colorText.GetSize(), "GetText range_error", "error" );

  00246	be 00 00 00 00	 mov	 esi, OFFSET ??_C@_05KKCIMGE@error@
  0024b	eb 1b		 jmp	 SHORT $LN63@SetWinChip
$LN64@SetWinChip:
; File C:\IAGOS\server\v18\Source\Source\_Common\data.h

; 270  : 	if( dwIndex >= (DWORD)m_nMaxIndex )

  0024d	76 14		 jbe	 SHORT $LN154@SetWinChip

; 271  : 		return NULL;
; 272  : 	return (T*) m_apOffset[ dwIndex ];

  0024f	a1 9c 02 00 00	 mov	 eax, DWORD PTR ?prj@@3VCProject@@A+668
  00254	8b b0 fc 35 00
	00		 mov	 esi, DWORD PTR [eax+13820]
; File C:\IAGOS\server\v18\Source\Source\_Common\Project.h

; 1428 : 	if( m_colorText.GetAt( dwIndex ) == NULL )

  0025a	85 f6		 test	 esi, esi
  0025c	74 05		 je	 SHORT $LN154@SetWinChip

; 1430 : 	return m_colorText.GetAt( dwIndex )->lpszData; 

  0025e	8b 76 04	 mov	 esi, DWORD PTR [esi+4]
  00261	eb 05		 jmp	 SHORT $LN63@SetWinChip
$LN154@SetWinChip:

; 1429 : 		return "";

  00263	be 00 00 00 00	 mov	 esi, OFFSET ??_C@_00CNPNBAHC@@
$LN63@SetWinChip:

; 1389 : 	VERIFY_RANGE_ASSERT( nIndex, 0, m_aPropItem.GetSize(), "GetItemProp range_error", NULL );

  00268	8b 8d 4c ff ff
	ff		 mov	 ecx, DWORD PTR _itemElem$4[ebp+12]
  0026e	a1 40 02 00 00	 mov	 eax, DWORD PTR ?prj@@3VCProject@@A+576
  00273	85 c9		 test	 ecx, ecx
  00275	78 10		 js	 SHORT $LN86@SetWinChip
  00277	3b c8		 cmp	 ecx, eax
  00279	7d 0c		 jge	 SHORT $LN86@SetWinChip
; File C:\IAGOS\server\v18\Source\Source\_Common\data.h

; 270  : 	if( dwIndex >= (DWORD)m_nMaxIndex )

  0027b	73 20		 jae	 SHORT $LN160@SetWinChip

; 271  : 		return NULL;
; 272  : 	return (T*) m_apOffset[ dwIndex ];

  0027d	a1 30 02 00 00	 mov	 eax, DWORD PTR ?prj@@3VCProject@@A+560
  00282	8b 04 88	 mov	 eax, DWORD PTR [eax+ecx*4]
; File C:\IAGOS\server\v18\Source\Source\_Common\Project.h

; 1390 : 	return m_aPropItem.GetAt( nIndex ); 

  00285	eb 18		 jmp	 SHORT $LN81@SetWinChip
$LN86@SetWinChip:

; 579  : 	LPCTSTR szErr = Error( _T( "%s min:%d, max:%d, index:%d" ), szMsg, nMin, nMax, nIndex ); 

  00287	51		 push	 ecx
  00288	50		 push	 eax
  00289	6a 00		 push	 0
  0028b	68 00 00 00 00	 push	 OFFSET ??_C@_0BI@BEIFNGEL@GetItemProp?5range_error@
  00290	68 00 00 00 00	 push	 OFFSET ??_C@_0BM@HMFGHCP@?$CFs?5min?3?$CFd?0?5max?3?$CFd?0?5index?3?$CFd@
  00295	e8 00 00 00 00	 call	 ?Error@@YAPBDPBDZZ	; Error
  0029a	83 c4 14	 add	 esp, 20			; 00000014H
$LN160@SetWinChip:
; File C:\IAGOS\server\v18\Source\Source\_Common\GuildCombat1to1.cpp

; 295  : 			g_dpDBClient.SendQueryPostMail( pUserWin->m_idPlayer, 0, itemElem, 0, itemElem.GetProp()->szName, (char*)GETTEXT( TID_GAME_GUILDCOMBAT1TO1_WINCHIPPOST ) );

  0029d	33 c0		 xor	 eax, eax
$LN81@SetWinChip:
  0029f	56		 push	 esi
  002a0	83 c0 04	 add	 eax, 4
  002a3	b9 00 00 00 00	 mov	 ecx, OFFSET ?g_dpDBClient@@3VCDPDatabaseClient@@A ; g_dpDBClient
  002a8	50		 push	 eax
  002a9	6a 00		 push	 0
  002ab	8d 85 40 ff ff
	ff		 lea	 eax, DWORD PTR _itemElem$4[ebp]
  002b1	50		 push	 eax
  002b2	6a 00		 push	 0
  002b4	ff b7 34 02 00
	00		 push	 DWORD PTR [edi+564]
  002ba	e8 00 00 00 00	 call	 ?SendQueryPostMail@CDPDatabaseClient@@QAEXKKAAVCItemElem@@HPAD1@Z ; CDPDatabaseClient::SendQueryPostMail

; 296  : 			//pUserWin->AddDefinedText( TID_GAME_MINIGAME_ITEM_POST );
; 297  : 			aLogItem.RecvName = "GUILDCOMBAT1TO1_CHIP_POST";
; 298  : 			if( !bDiag )

  002bf	83 7d 14 00	 cmp	 DWORD PTR _bDiag$[ebp], 0
  002c3	c7 85 80 fe ff
	ff 00 00 00 00	 mov	 DWORD PTR _aLogItem$3[ebp+8], OFFSET ??_C@_0BK@NEMFLABP@GUILDCOMBAT1TO1_CHIP_POST@
  002cd	75 0f		 jne	 SHORT $LN151@SetWinChip

; 299  : 				aLogItem.RecvName = "GUILDCOMBAT1TO1_CHIP_G_POST";

  002cf	c7 85 80 fe ff
	ff 00 00 00 00	 mov	 DWORD PTR _aLogItem$3[ebp+8], OFFSET ??_C@_0BM@NHABGLPL@GUILDCOMBAT1TO1_CHIP_G_POST@

; 300  : 		}
; 301  : 		
; 302  : 		if( bDiag ) // °łŔÎ ˝ÂĆĐ¸¸ ¸ŢĽĽÁö ąÚ˝ş Ăâ·Â

  002d9	e9 ab 00 00 00	 jmp	 $LN133@SetWinChip
$LN151@SetWinChip:
; File C:\Program Files\Microsoft Visual Studio\2022\Professional\VC\Tools\MSVC\14.44.35207\atlmfc\include\afxstr.h

; 56   : 		return( AfxGetStringManager() );

  002de	e8 00 00 00 00	 call	 ?AfxGetStringManager@@YGPAUIAtlStringMgr@ATL@@XZ ; AfxGetStringManager
  002e3	8b c8		 mov	 ecx, eax
; File C:\Program Files\Microsoft Visual Studio\2022\Professional\VC\Tools\MSVC\14.44.35207\atlmfc\include\atlsimpstr.h

; 209  : 		ATLENSURE( pStringMgr != NULL );

  002e5	85 c9		 test	 ecx, ecx
  002e7	0f 84 51 01 00
	00		 je	 $LN163@SetWinChip

; 210  : 		CStringData* pData = pStringMgr->GetNilString();

  002ed	8b 01		 mov	 eax, DWORD PTR [ecx]
  002ef	ff 50 0c	 call	 DWORD PTR [eax+12]

; 211  : 		Attach( pData );

  002f2	83 c0 10	 add	 eax, 16			; 00000010H
  002f5	89 85 74 fe ff
	ff		 mov	 DWORD PTR _strTemp$2[ebp], eax
; File C:\IAGOS\server\v18\Source\Source\_Common\Project.h

; 1427 : 	VERIFY_RANGE( (int)( dwIndex ), 0, m_colorText.GetSize(), "GetText range_error", "error" );

  002fb	a1 ac 02 00 00	 mov	 eax, DWORD PTR ?prj@@3VCProject@@A+684
; File C:\IAGOS\server\v18\Source\Source\_Common\GuildCombat1to1.cpp

; 304  : 			CString strTemp;

  00300	c6 45 fc 01	 mov	 BYTE PTR __$EHRec$[ebp+8], 1
; File C:\IAGOS\server\v18\Source\Source\_Common\Project.h

; 1427 : 	VERIFY_RANGE( (int)( dwIndex ), 0, m_colorText.GetSize(), "GetText range_error", "error" );

  00304	3d 53 0d 00 00	 cmp	 eax, 3411		; 00000d53H
  00309	7f 21		 jg	 SHORT $LN109@SetWinChip

; 579  : 	LPCTSTR szErr = Error( _T( "%s min:%d, max:%d, index:%d" ), szMsg, nMin, nMax, nIndex ); 

  0030b	68 53 0d 00 00	 push	 3411			; 00000d53H
  00310	50		 push	 eax
  00311	6a 00		 push	 0
  00313	68 00 00 00 00	 push	 OFFSET ??_C@_0BE@OHDBLHOM@GetText?5range_error@
  00318	68 00 00 00 00	 push	 OFFSET ??_C@_0BM@HMFGHCP@?$CFs?5min?3?$CFd?0?5max?3?$CFd?0?5index?3?$CFd@
  0031d	e8 00 00 00 00	 call	 ?Error@@YAPBDPBDZZ	; Error
  00322	83 c4 14	 add	 esp, 20			; 00000014H

; 1427 : 	VERIFY_RANGE( (int)( dwIndex ), 0, m_colorText.GetSize(), "GetText range_error", "error" );

  00325	be 00 00 00 00	 mov	 esi, OFFSET ??_C@_05KKCIMGE@error@
  0032a	eb 1b		 jmp	 SHORT $LN108@SetWinChip
$LN109@SetWinChip:
; File C:\IAGOS\server\v18\Source\Source\_Common\data.h

; 270  : 	if( dwIndex >= (DWORD)m_nMaxIndex )

  0032c	76 14		 jbe	 SHORT $LN155@SetWinChip

; 271  : 		return NULL;
; 272  : 	return (T*) m_apOffset[ dwIndex ];

  0032e	a1 9c 02 00 00	 mov	 eax, DWORD PTR ?prj@@3VCProject@@A+668
  00333	8b b0 4c 35 00
	00		 mov	 esi, DWORD PTR [eax+13644]
; File C:\IAGOS\server\v18\Source\Source\_Common\Project.h

; 1428 : 	if( m_colorText.GetAt( dwIndex ) == NULL )

  00339	85 f6		 test	 esi, esi
  0033b	74 05		 je	 SHORT $LN155@SetWinChip

; 1430 : 	return m_colorText.GetAt( dwIndex )->lpszData; 

  0033d	8b 76 04	 mov	 esi, DWORD PTR [esi+4]
  00340	eb 05		 jmp	 SHORT $LN108@SetWinChip
$LN155@SetWinChip:

; 1429 : 		return "";

  00342	be 00 00 00 00	 mov	 esi, OFFSET ??_C@_00CNPNBAHC@@
$LN108@SetWinChip:
; File C:\IAGOS\server\v18\Source\Source\_Common\GuildCombat1to1.cpp

; 305  : 			strTemp.Format( prj.GetText( TID_GAME_GUILDCOMBAT_1TO1_WARWIN ), GetChipNum() );

  00347	8b cb		 mov	 ecx, ebx
  00349	e8 00 00 00 00	 call	 ?GetChipNum@CGuildCombat1to1@@QAEHXZ ; CGuildCombat1to1::GetChipNum
  0034e	50		 push	 eax
  0034f	8d 85 74 fe ff
	ff		 lea	 eax, DWORD PTR _strTemp$2[ebp]
  00355	56		 push	 esi
  00356	50		 push	 eax
  00357	e8 00 00 00 00	 call	 ?Format@?$CStringT@DV?$StrTraitMFC@DV?$ChTraitsCRT@D@ATL@@@@@ATL@@QAAXPBDZZ ; ATL::CStringT<char,StrTraitMFC<char,ATL::ChTraitsCRT<char> > >::Format

; 306  : 			pUserWin->AddDiagText( strTemp );

  0035c	8b b5 74 fe ff
	ff		 mov	 esi, DWORD PTR _strTemp$2[ebp]
  00362	83 c4 0c	 add	 esp, 12			; 0000000cH
  00365	8b cf		 mov	 ecx, edi
  00367	56		 push	 esi
  00368	e8 00 00 00 00	 call	 ?AddDiagText@CUser@@QAEXPBD@Z ; CUser::AddDiagText

; 307  : 		}

  0036d	c6 45 fc 00	 mov	 BYTE PTR __$EHRec$[ebp+8], 0
; File C:\Program Files\Microsoft Visual Studio\2022\Professional\VC\Tools\MSVC\14.44.35207\atlmfc\include\atlsimpstr.h

; 804  : 		return( reinterpret_cast< CStringData* >( m_pszData )-1 );

  00371	83 c6 f0	 add	 esi, -16		; fffffff0H

; 92   : 		if( _InterlockedDecrement( &nRefs ) <= 0 )

  00374	83 c8 ff	 or	 eax, -1
  00377	f0 0f c1 46 0c	 lock	  xadd	 DWORD PTR [esi+12], eax
  0037c	48		 dec	 eax
  0037d	85 c0		 test	 eax, eax
  0037f	7f 08		 jg	 SHORT $LN133@SetWinChip

; 93   : 		{
; 94   : 			pStringMgr->Free( this );

  00381	8b 0e		 mov	 ecx, DWORD PTR [esi]
  00383	56		 push	 esi
  00384	8b 01		 mov	 eax, DWORD PTR [ecx]
  00386	ff 50 04	 call	 DWORD PTR [eax+4]
$LN133@SetWinChip:
; File C:\IAGOS\server\v18\Source\Source\_Common\GuildCombat1to1.cpp

; 309  : 		g_DPSrvr.OnLogItem( aLogItem, &itemElem, itemElem.m_nItemNum );

  00389	0f bf 45 b4	 movsx	 eax, WORD PTR _itemElem$4[ebp+116]
  0038d	b9 00 00 00 00	 mov	 ecx, OFFSET ?g_DPSrvr@@3VCDPSrvr@@A ; g_DPSrvr
  00392	50		 push	 eax
  00393	8d 85 40 ff ff
	ff		 lea	 eax, DWORD PTR _itemElem$4[ebp]
  00399	50		 push	 eax
  0039a	8d 85 78 fe ff
	ff		 lea	 eax, DWORD PTR _aLogItem$3[ebp]
  003a0	50		 push	 eax
  003a1	e8 00 00 00 00	 call	 ?OnLogItem@CDPSrvr@@QAEXAAU_LogItemInfo@@PAVCItemElem@@H@Z ; CDPSrvr::OnLogItem

; 310  : 	}

  003a6	8d 8d 40 ff ff
	ff		 lea	 ecx, DWORD PTR _itemElem$4[ebp]
  003ac	c7 45 fc ff ff
	ff ff		 mov	 DWORD PTR __$EHRec$[ebp+8], -1
  003b3	e8 00 00 00 00	 call	 ??1CItemElem@@UAE@XZ	; CItemElem::~CItemElem
  003b8	8b b5 70 fe ff
	ff		 mov	 esi, DWORD PTR _pUserLost$GSCopy$1$[ebp]
$LN6@SetWinChip:

; 311  : 
; 312  : 	if( IsPossibleUser( pUserLost ) && bDiag )

  003be	56		 push	 esi
  003bf	8b cb		 mov	 ecx, ebx
  003c1	e8 00 00 00 00	 call	 ?IsPossibleUser@CGuildCombat1to1@@QAEHPAVCUser@@@Z ; CGuildCombat1to1::IsPossibleUser
  003c6	85 c0		 test	 eax, eax
  003c8	74 56		 je	 SHORT $LN13@SetWinChip
  003ca	83 7d 14 00	 cmp	 DWORD PTR _bDiag$[ebp], 0
  003ce	74 50		 je	 SHORT $LN13@SetWinChip
; File C:\IAGOS\server\v18\Source\Source\_Common\Project.h

; 1427 : 	VERIFY_RANGE( (int)( dwIndex ), 0, m_colorText.GetSize(), "GetText range_error", "error" );

  003d0	a1 ac 02 00 00	 mov	 eax, DWORD PTR ?prj@@3VCProject@@A+684
  003d5	3d 54 0d 00 00	 cmp	 eax, 3412		; 00000d54H
  003da	7f 21		 jg	 SHORT $LN136@SetWinChip

; 579  : 	LPCTSTR szErr = Error( _T( "%s min:%d, max:%d, index:%d" ), szMsg, nMin, nMax, nIndex ); 

  003dc	68 54 0d 00 00	 push	 3412			; 00000d54H
$LN161@SetWinChip:
; File C:\IAGOS\server\v18\Source\Source\_Common\GuildCombat1to1.cpp

; 314  : }

  003e1	50		 push	 eax
  003e2	6a 00		 push	 0
  003e4	68 00 00 00 00	 push	 OFFSET ??_C@_0BE@OHDBLHOM@GetText?5range_error@
  003e9	68 00 00 00 00	 push	 OFFSET ??_C@_0BM@HMFGHCP@?$CFs?5min?3?$CFd?0?5max?3?$CFd?0?5index?3?$CFd@
  003ee	e8 00 00 00 00	 call	 ?Error@@YAPBDPBDZZ	; Error
  003f3	83 c4 14	 add	 esp, 20			; 00000014H
  003f6	b8 00 00 00 00	 mov	 eax, OFFSET ??_C@_05KKCIMGE@error@
  003fb	eb 1b		 jmp	 SHORT $LN135@SetWinChip
$LN136@SetWinChip:
; File C:\IAGOS\server\v18\Source\Source\_Common\data.h

; 270  : 	if( dwIndex >= (DWORD)m_nMaxIndex )

  003fd	76 14		 jbe	 SHORT $LN156@SetWinChip

; 271  : 		return NULL;
; 272  : 	return (T*) m_apOffset[ dwIndex ];

  003ff	a1 9c 02 00 00	 mov	 eax, DWORD PTR ?prj@@3VCProject@@A+668
  00404	8b 80 50 35 00
	00		 mov	 eax, DWORD PTR [eax+13648]
; File C:\IAGOS\server\v18\Source\Source\_Common\Project.h

; 1428 : 	if( m_colorText.GetAt( dwIndex ) == NULL )

  0040a	85 c0		 test	 eax, eax
  0040c	74 05		 je	 SHORT $LN156@SetWinChip

; 1430 : 	return m_colorText.GetAt( dwIndex )->lpszData; 

  0040e	8b 40 04	 mov	 eax, DWORD PTR [eax+4]
  00411	eb 05		 jmp	 SHORT $LN135@SetWinChip
$LN156@SetWinChip:
; File C:\IAGOS\server\v18\Source\Source\_Common\GuildCombat1to1.cpp

; 314  : }

  00413	b8 00 00 00 00	 mov	 eax, OFFSET ??_C@_00CNPNBAHC@@
$LN135@SetWinChip:
  00418	50		 push	 eax
  00419	8b ce		 mov	 ecx, esi
  0041b	e8 00 00 00 00	 call	 ?AddDiagText@CUser@@QAEXPBD@Z ; CUser::AddDiagText
$LN13@SetWinChip:
  00420	8b 4d f4	 mov	 ecx, DWORD PTR __$EHRec$[ebp]
  00423	64 89 0d 00 00
	00 00		 mov	 DWORD PTR fs:0, ecx
  0042a	59		 pop	 ecx
  0042b	5f		 pop	 edi
  0042c	5e		 pop	 esi
  0042d	5b		 pop	 ebx
  0042e	8b 4d f0	 mov	 ecx, DWORD PTR __$ArrayPad$[ebp]
  00431	33 cd		 xor	 ecx, ebp
  00433	e8 00 00 00 00	 call	 @__security_check_cookie@4
  00438	8b e5		 mov	 esp, ebp
  0043a	5d		 pop	 ebp
  0043b	c2 10 00	 ret	 16			; 00000010H
$LN163@SetWinChip:
; File C:\Program Files\Microsoft Visual Studio\2022\Professional\VC\Tools\MSVC\14.44.35207\atlmfc\include\atlsimpstr.h

; 209  : 		ATLENSURE( pStringMgr != NULL );

  0043e	68 05 40 00 80	 push	 -2147467259		; 80004005H
  00443	e8 00 00 00 00	 call	 ?AtlThrowImpl@ATL@@YGXJ@Z ; ATL::AtlThrowImpl
$LN158@SetWinChip:
  00448	cc		 int	 3
_TEXT	ENDS
;	COMDAT text$x
text$x	SEGMENT
__unwindfunclet$?SetWinChip@CGuildCombat1to1@@QAEXPAVCUser@@0HH@Z$0:
  00000	8d 8d 40 ff ff
	ff		 lea	 ecx, DWORD PTR _itemElem$4[ebp]
  00006	e9 00 00 00 00	 jmp	 ??1CItemElem@@UAE@XZ	; CItemElem::~CItemElem
__unwindfunclet$?SetWinChip@CGuildCombat1to1@@QAEXPAVCUser@@0HH@Z$1:
  0000b	8d 8d 74 fe ff
	ff		 lea	 ecx, DWORD PTR _strTemp$2[ebp]
  00011	e9 00 00 00 00	 jmp	 ??1?$CStringT@DV?$StrTraitMFC@DV?$ChTraitsCRT@D@ATL@@@@@ATL@@QAE@XZ ; ATL::CStringT<char,StrTraitMFC<char,ATL::ChTraitsCRT<char> > >::~CStringT<char,StrTraitMFC<char,ATL::ChTraitsCRT<char> > >
  00016	cc		 int	 3
  00017	cc		 int	 3
  00018	cc		 int	 3
  00019	cc		 int	 3
  0001a	cc		 int	 3
__ehhandler$?SetWinChip@CGuildCombat1to1@@QAEXPAVCUser@@0HH@Z:
  0001b	90		 npad	 1
  0001c	90		 npad	 1
  0001d	8b 54 24 08	 mov	 edx, DWORD PTR [esp+8]
  00021	8d 42 0c	 lea	 eax, DWORD PTR [edx+12]
  00024	8b 8a 6c fe ff
	ff		 mov	 ecx, DWORD PTR [edx-404]
  0002a	33 c8		 xor	 ecx, eax
  0002c	e8 00 00 00 00	 call	 @__security_check_cookie@4
  00031	8b 4a fc	 mov	 ecx, DWORD PTR [edx-4]
  00034	33 c8		 xor	 ecx, eax
  00036	e8 00 00 00 00	 call	 @__security_check_cookie@4
  0003b	b8 00 00 00 00	 mov	 eax, OFFSET __ehfuncinfo$?SetWinChip@CGuildCombat1to1@@QAEXPAVCUser@@0HH@Z
  00040	e9 00 00 00 00	 jmp	 ___CxxFrameHandler3
text$x	ENDS
?SetWinChip@CGuildCombat1to1@@QAEXPAVCUser@@0HH@Z ENDP	; CGuildCombat1to1::SetWinChip
; Function compile flags: /Ogtp
; File C:\IAGOS\server\v18\Source\Source\_Common\GuildCombat1to1.cpp
;	COMDAT ?GetChipNum@CGuildCombat1to1@@QAEHXZ
_TEXT	SEGMENT
tv71 = -8						; size = 8
?GetChipNum@CGuildCombat1to1@@QAEHXZ PROC		; CGuildCombat1to1::GetChipNum, COMDAT
; _this$ = ecx

; 250  : {

  00000	55		 push	 ebp
  00001	8b ec		 mov	 ebp, esp
  00003	83 ec 08	 sub	 esp, 8

; 251  : 	return (int)g_GuildCombat1to1Mng.m_Lua.GetGlobalNumber( "WinChipNum" );

  00006	68 00 00 00 00	 push	 OFFSET ??_C@_0L@EMGOBKLG@WinChipNum@
  0000b	b9 20 00 00 00	 mov	 ecx, OFFSET ?g_GuildCombat1to1Mng@@3VCGuildCombat1to1Mng@@A+32
  00010	e8 00 00 00 00	 call	 ?GetGlobalNumber@CLuaBase@@QAENPAD@Z ; CLuaBase::GetGlobalNumber
  00015	dd 5d f8	 fstp	 QWORD PTR tv71[ebp]
  00018	f2 0f 2c 45 f8	 cvttsd2si eax, QWORD PTR tv71[ebp]

; 252  : }

  0001d	8b e5		 mov	 esp, ebp
  0001f	5d		 pop	 ebp
  00020	c3		 ret	 0
?GetChipNum@CGuildCombat1to1@@QAEHXZ ENDP		; CGuildCombat1to1::GetChipNum
_TEXT	ENDS
; Function compile flags: /Ogtp
; File C:\IAGOS\server\v18\Source\Source\_Common\GuildCombat1to1.cpp
; File C:\Program Files\Microsoft Visual Studio\2022\Professional\VC\Tools\MSVC\14.44.35207\include\vector
; File C:\IAGOS\server\v18\Source\Source\_Common\GuildCombat1to1.cpp
;	COMDAT ?IsPossibleUser@CGuildCombat1to1@@QAEHPAVCUser@@@Z
_TEXT	SEGMENT
_pUser$ = 8						; size = 4
?IsPossibleUser@CGuildCombat1to1@@QAEHPAVCUser@@@Z PROC	; CGuildCombat1to1::IsPossibleUser, COMDAT
; _this$ = ecx

; 233  : {

  00000	55		 push	 ebp
  00001	8b ec		 mov	 ebp, esp
  00003	56		 push	 esi

; 234  : 	if( !pUser )

  00004	8b 75 08	 mov	 esi, DWORD PTR _pUser$[ebp]
  00007	57		 push	 edi
  00008	8b f9		 mov	 edi, ecx
  0000a	85 f6		 test	 esi, esi
  0000c	74 31		 je	 SHORT $LN4@IsPossible

; 235  : 		return FALSE;
; 236  : 	
; 237  : 	int nIndex = g_GuildCombat1to1Mng.GetTenderGuildIndexByUser( pUser );

  0000e	56		 push	 esi
  0000f	b9 00 00 00 00	 mov	 ecx, OFFSET ?g_GuildCombat1to1Mng@@3VCGuildCombat1to1Mng@@A ; g_GuildCombat1to1Mng
  00014	e8 00 00 00 00	 call	 ?GetTenderGuildIndexByUser@CGuildCombat1to1Mng@@QAEHPAVCUser@@@Z ; CGuildCombat1to1Mng::GetTenderGuildIndexByUser

; 238  : 	if( nIndex != NULL_ID )

  00019	83 f8 ff	 cmp	 eax, -1
  0001c	74 21		 je	 SHORT $LN4@IsPossible

; 239  : 	{
; 240  : 		CWorld* pWorld = pUser->GetWorld();

  0001e	8b 8e 6c 01 00
	00		 mov	 ecx, DWORD PTR [esi+364]

; 241  : 		if( pWorld && pWorld->GetID() == m_vecTenderGuild[nIndex].dwWorldId )

  00024	85 c9		 test	 ecx, ecx
  00026	74 17		 je	 SHORT $LN4@IsPossible
  00028	8b 57 04	 mov	 edx, DWORD PTR [edi+4]
  0002b	8b 09		 mov	 ecx, DWORD PTR [ecx]
; File C:\Program Files\Microsoft Visual Studio\2022\Professional\VC\Tools\MSVC\14.44.35207\include\vector

; 1934 :         return _My_data._Myfirst[_Pos];

  0002d	6b f0 2c	 imul	 esi, eax, 44
; File C:\IAGOS\server\v18\Source\Source\_Common\GuildCombat1to1.cpp

; 241  : 		if( pWorld && pWorld->GetID() == m_vecTenderGuild[nIndex].dwWorldId )

  00030	33 c0		 xor	 eax, eax
  00032	5f		 pop	 edi
  00033	3b 4c 16 10	 cmp	 ecx, DWORD PTR [esi+edx+16]

; 246  : }

  00037	5e		 pop	 esi
  00038	0f 94 c0	 sete	 al
  0003b	5d		 pop	 ebp
  0003c	c2 04 00	 ret	 4
$LN4@IsPossible:
  0003f	5f		 pop	 edi

; 242  : 			return TRUE;
; 243  : 	}
; 244  : 		
; 245  : 	return FALSE;

  00040	33 c0		 xor	 eax, eax

; 246  : }

  00042	5e		 pop	 esi
  00043	5d		 pop	 ebp
  00044	c2 04 00	 ret	 4
?IsPossibleUser@CGuildCombat1to1@@QAEHPAVCUser@@@Z ENDP	; CGuildCombat1to1::IsPossibleUser
_TEXT	ENDS
; Function compile flags: /Ogtp
; File C:\IAGOS\server\v18\Source\Source\_Common\GuildCombat1to1.cpp
; File C:\Program Files\Microsoft Visual Studio\2022\Professional\VC\Tools\MSVC\14.44.35207\include\vector
; File C:\IAGOS\server\v18\Source\Source\_Common\GuildCombat1to1.cpp
; File C:\Program Files\Microsoft Visual Studio\2022\Professional\VC\Tools\MSVC\14.44.35207\include\vector
; File C:\IAGOS\server\v18\Source\Source\_Common\GuildCombat1to1.cpp
; File C:\Program Files\Microsoft Visual Studio\2022\Professional\VC\Tools\MSVC\14.44.35207\include\vector
; File C:\IAGOS\server\v18\Source\Source\_Common\GuildCombat1to1.cpp
; File C:\Program Files\Microsoft Visual Studio\2022\Professional\VC\Tools\MSVC\14.44.35207\include\vector
; File C:\IAGOS\server\v18\Source\Source\_Common\GuildCombat1to1.cpp
; File C:\Program Files\Microsoft Visual Studio\2022\Professional\VC\Tools\MSVC\14.44.35207\include\vector
; File C:\Program Files\Microsoft Visual Studio\2022\Professional\VC\Tools\MSVC\14.44.35207\include\xtree
; File C:\IAGOS\server\v18\Source\Source\_Common\GuildCombat1to1.cpp
; File C:\Program Files\Microsoft Visual Studio\2022\Professional\VC\Tools\MSVC\14.44.35207\include\xtree
; File C:\Program Files\Microsoft Visual Studio\2022\Professional\VC\Tools\MSVC\14.44.35207\include\type_traits
; File C:\Program Files\Microsoft Visual Studio\2022\Professional\VC\Tools\MSVC\14.44.35207\include\xtree
; File C:\Program Files\Microsoft Visual Studio\2022\Professional\VC\Tools\MSVC\14.44.35207\include\type_traits
; File C:\Program Files\Microsoft Visual Studio\2022\Professional\VC\Tools\MSVC\14.44.35207\include\xtree
; File C:\IAGOS\server\v18\Source\Source\_Common\Project.h
; File C:\IAGOS\server\v18\Source\Source\_Common\GuildCombat1to1.cpp
; File C:\Program Files\Microsoft Visual Studio\2022\Professional\VC\Tools\MSVC\14.44.35207\include\vector
; File C:\IAGOS\server\v18\Source\Source\_Common\GuildCombat1to1.cpp
; File C:\Program Files\Microsoft Visual Studio\2022\Professional\VC\Tools\MSVC\14.44.35207\include\vector
; File C:\IAGOS\server\v18\Source\Source\_Common\GuildCombat1to1.cpp
; File C:\Program Files\Microsoft Visual Studio\2022\Professional\VC\Tools\MSVC\14.44.35207\include\vector
; File C:\IAGOS\server\v18\Source\Source\_Common\GuildCombat1to1.cpp
; File C:\Program Files\Microsoft Visual Studio\2022\Professional\VC\Tools\MSVC\14.44.35207\include\vector
; File C:\IAGOS\server\v18\Source\Source\_Common\GuildCombat1to1.cpp
; File C:\Program Files\Microsoft Visual Studio\2022\Professional\VC\Tools\MSVC\14.44.35207\include\vector
; File C:\IAGOS\server\v18\Source\Source\_Common\GuildCombat1to1.cpp
; File C:\Program Files\Microsoft Visual Studio\2022\Professional\VC\Tools\MSVC\14.44.35207\include\vector
; File C:\IAGOS\server\v18\Source\Source\_Common\GuildCombat1to1.cpp
; File C:\Program Files\Microsoft Visual Studio\2022\Professional\VC\Tools\MSVC\14.44.35207\include\vector
; File C:\IAGOS\server\v18\Source\Source\_Common\GuildCombat1to1.cpp
; File C:\Program Files\Microsoft Visual Studio\2022\Professional\VC\Tools\MSVC\14.44.35207\include\xtree
; File C:\Program Files\Microsoft Visual Studio\2022\Professional\VC\Tools\MSVC\14.44.35207\include\type_traits
; File C:\Program Files\Microsoft Visual Studio\2022\Professional\VC\Tools\MSVC\14.44.35207\include\xtree
; File C:\Program Files\Microsoft Visual Studio\2022\Professional\VC\Tools\MSVC\14.44.35207\include\type_traits
; File C:\Program Files\Microsoft Visual Studio\2022\Professional\VC\Tools\MSVC\14.44.35207\include\xtree
; File C:\IAGOS\server\v18\Source\Source\_Common\Project.h
; File C:\IAGOS\server\v18\Source\Source\_Common\Obj.h
; File C:\IAGOS\server\v18\Source\Source\_Common\GuildCombat1to1.cpp
; File C:\Program Files\Microsoft Visual Studio\2022\Professional\VC\Tools\MSVC\14.44.35207\include\vector
; File C:\IAGOS\server\v18\Source\Source\_Common\GuildCombat1to1.cpp
; File C:\Program Files\Microsoft Visual Studio\2022\Professional\VC\Tools\MSVC\14.44.35207\include\vector
; File C:\IAGOS\server\v18\Source\Source\_Common\GuildCombat1to1.cpp
;	COMDAT ?SendWarResultAllPlayer@CGuildCombat1to1@@QAEXXZ
_TEXT	SEGMENT
_pGuild$1$ = -20					; size = 4
tv1330 = -20						; size = 4
tv1334 = -16						; size = 4
_j$1$ = -12						; size = 4
_i$1$ = -8						; size = 4
_this$1$ = -4						; size = 4
?SendWarResultAllPlayer@CGuildCombat1to1@@QAEXXZ PROC	; CGuildCombat1to1::SendWarResultAllPlayer, COMDAT
; _this$ = ecx

; 171  : {

  00000	55		 push	 ebp
  00001	8b ec		 mov	 ebp, esp
  00003	83 ec 14	 sub	 esp, 20			; 00000014H

; 172  : 	CUser* pUser = NULL;
; 173  : 	for( int i=0; i<2; i++ )

  00006	8b 15 28 00 00
	00		 mov	 edx, DWORD PTR ?prj@@3VCProject@@A+40
  0000c	8b c1		 mov	 eax, ecx
  0000e	53		 push	 ebx
  0000f	33 c9		 xor	 ecx, ecx
  00011	89 45 fc	 mov	 DWORD PTR _this$1$[ebp], eax
  00014	56		 push	 esi
  00015	89 4d f8	 mov	 DWORD PTR _i$1$[ebp], ecx
  00018	57		 push	 edi
  00019	0f 1f 80 00 00
	00 00		 npad	 7
$LL4@SendWarRes:
; File C:\Program Files\Microsoft Visual Studio\2022\Professional\VC\Tools\MSVC\14.44.35207\include\vector

; 1914 :         auto& _My_data = _Mypair._Myval2;

  00020	8b 78 04	 mov	 edi, DWORD PTR [eax+4]
; File C:\IAGOS\server\v18\Source\Source\_Common\GuildCombat1to1.cpp

; 175  : 		for( int j=0; j<(int)( m_vecTenderGuild[m_nIndex[i]].vecMemberId.size() ); j++ )

  00023	8d 49 09	 lea	 ecx, DWORD PTR [ecx+9]
; File C:\Program Files\Microsoft Visual Studio\2022\Professional\VC\Tools\MSVC\14.44.35207\include\vector

; 1934 :         return _My_data._Myfirst[_Pos];

  00026	8b 34 88	 mov	 esi, DWORD PTR [eax+ecx*4]
; File C:\IAGOS\server\v18\Source\Source\_Common\GuildCombat1to1.cpp

; 175  : 		for( int j=0; j<(int)( m_vecTenderGuild[m_nIndex[i]].vecMemberId.size() ); j++ )

  00029	8d 0c 88	 lea	 ecx, DWORD PTR [eax+ecx*4]
  0002c	89 4d f0	 mov	 DWORD PTR tv1334[ebp], ecx
  0002f	33 db		 xor	 ebx, ebx
; File C:\Program Files\Microsoft Visual Studio\2022\Professional\VC\Tools\MSVC\14.44.35207\include\vector

; 1934 :         return _My_data._Myfirst[_Pos];

  00031	6b ce 2c	 imul	 ecx, esi, 44
; File C:\IAGOS\server\v18\Source\Source\_Common\GuildCombat1to1.cpp

; 175  : 		for( int j=0; j<(int)( m_vecTenderGuild[m_nIndex[i]].vecMemberId.size() ); j++ )

  00034	89 5d f4	 mov	 DWORD PTR _j$1$[ebp], ebx
; File C:\Program Files\Microsoft Visual Studio\2022\Professional\VC\Tools\MSVC\14.44.35207\include\vector

; 1915 :         return static_cast<size_type>(_My_data._Mylast - _My_data._Myfirst);

  00037	8b 44 39 24	 mov	 eax, DWORD PTR [ecx+edi+36]
  0003b	2b 44 39 20	 sub	 eax, DWORD PTR [ecx+edi+32]
; File C:\IAGOS\server\v18\Source\Source\_Common\GuildCombat1to1.cpp

; 175  : 		for( int j=0; j<(int)( m_vecTenderGuild[m_nIndex[i]].vecMemberId.size() ); j++ )

  0003f	a9 fc ff ff ff	 test	 eax, -4			; fffffffcH
  00044	0f 8e e8 01 00
	00		 jle	 $LN2@SendWarRes
  0004a	66 0f 1f 44 00
	00		 npad	 6
$LL7@SendWarRes:
; File C:\Program Files\Microsoft Visual Studio\2022\Professional\VC\Tools\MSVC\14.44.35207\include\vector

; 1934 :         return _My_data._Myfirst[_Pos];

  00050	6b c6 2c	 imul	 eax, esi, 44
; File C:\Program Files\Microsoft Visual Studio\2022\Professional\VC\Tools\MSVC\14.44.35207\include\xtree

; 1630 :         _Tree_find_result<_Nodeptr> _Result{{_Scary->_Myhead->_Parent, _Tree_child::_Right}, _Scary->_Myhead};

  00053	8b ca		 mov	 ecx, edx
; File C:\IAGOS\server\v18\Source\Source\_Common\GuildCombat1to1.cpp

; 177  : 			pUser = (CUser*)prj.GetUserByID( m_vecTenderGuild[m_nIndex[i]].vecMemberId[j] );

  00055	8b 44 38 20	 mov	 eax, DWORD PTR [eax+edi+32]
  00059	8b 34 98	 mov	 esi, DWORD PTR [eax+ebx*4]
; File C:\Program Files\Microsoft Visual Studio\2022\Professional\VC\Tools\MSVC\14.44.35207\include\xtree

; 1630 :         _Tree_find_result<_Nodeptr> _Result{{_Scary->_Myhead->_Parent, _Tree_child::_Right}, _Scary->_Myhead};

  0005c	8b 42 04	 mov	 eax, DWORD PTR [edx+4]

; 1631 :         _Nodeptr _Trynode = _Result._Location._Parent;
; 1632 :         while (!_Trynode->_Isnil) {

  0005f	80 78 0d 00	 cmp	 BYTE PTR [eax+13], 0
  00063	75 14		 jne	 SHORT $LN45@SendWarRes
$LL44@SendWarRes:
; File C:\Program Files\Microsoft Visual Studio\2022\Professional\VC\Tools\MSVC\14.44.35207\include\type_traits

; 2380 :         return _Left < _Right;

  00065	39 70 10	 cmp	 DWORD PTR [eax+16], esi
; File C:\Program Files\Microsoft Visual Studio\2022\Professional\VC\Tools\MSVC\14.44.35207\include\xtree

; 1634 :             if (_DEBUG_LT_PRED(_Getcomp(), _Traits::_Kfn(_Trynode->_Myval), _Keyval)) {

  00068	73 05		 jae	 SHORT $LN46@SendWarRes

; 1635 :                 _Result._Location._Child = _Tree_child::_Right;
; 1636 :                 _Trynode                 = _Trynode->_Right;

  0006a	8b 40 08	 mov	 eax, DWORD PTR [eax+8]

; 1637 :             } else {

  0006d	eb 04		 jmp	 SHORT $LN47@SendWarRes
$LN46@SendWarRes:

; 1638 :                 _Result._Location._Child = _Tree_child::_Left;
; 1639 :                 _Result._Bound           = _Trynode;

  0006f	8b c8		 mov	 ecx, eax

; 1640 :                 _Trynode                 = _Trynode->_Left;

  00071	8b 00		 mov	 eax, DWORD PTR [eax]
$LN47@SendWarRes:

; 1631 :         _Nodeptr _Trynode = _Result._Location._Parent;
; 1632 :         while (!_Trynode->_Isnil) {

  00073	80 78 0d 00	 cmp	 BYTE PTR [eax+13], 0
  00077	74 ec		 je	 SHORT $LL44@SendWarRes
$LN45@SendWarRes:

; 1624 :         return !_Bound->_Isnil && !_DEBUG_LT_PRED(_Getcomp(), _Keyval, _Traits::_Kfn(_Bound->_Myval));

  00079	80 79 0d 00	 cmp	 BYTE PTR [ecx+13], 0
  0007d	75 05		 jne	 SHORT $LN41@SendWarRes
; File C:\Program Files\Microsoft Visual Studio\2022\Professional\VC\Tools\MSVC\14.44.35207\include\type_traits

; 2380 :         return _Left < _Right;

  0007f	3b 71 10	 cmp	 esi, DWORD PTR [ecx+16]
; File C:\Program Files\Microsoft Visual Studio\2022\Professional\VC\Tools\MSVC\14.44.35207\include\xtree

; 1624 :         return !_Bound->_Isnil && !_DEBUG_LT_PRED(_Getcomp(), _Keyval, _Traits::_Kfn(_Bound->_Myval));

  00082	73 02		 jae	 SHORT $LN40@SendWarRes
$LN41@SendWarRes:

; 1389 :         return _Get_scary()->_Myhead;

  00084	8b ca		 mov	 ecx, edx
$LN40@SendWarRes:

; 37   :     _Tree_unchecked_const_iterator(_Nodeptr _Pnode, const _Mytree* _Plist) noexcept : _Ptr(_Pnode) {

  00086	3b ca		 cmp	 ecx, edx
; File C:\IAGOS\server\v18\Source\Source\_Common\Project.h

; 1436 : 	if( i != m_idPlayerToUserPtr.end() )

  00088	74 05		 je	 SHORT $LN36@SendWarRes

; 1437 : 		return i->second;

  0008a	8b 59 14	 mov	 ebx, DWORD PTR [ecx+20]
  0008d	eb 02		 jmp	 SHORT $LN35@SendWarRes
$LN36@SendWarRes:

; 1438 : 	return NULL;

  0008f	33 db		 xor	 ebx, ebx
$LN35@SendWarRes:
; File C:\IAGOS\server\v18\Source\Source\_Common\GuildCombat1to1.cpp

; 178  : 			if( IsPossibleUser( pUser ) )

  00091	8b 75 fc	 mov	 esi, DWORD PTR _this$1$[ebp]
  00094	8b ce		 mov	 ecx, esi
  00096	53		 push	 ebx
  00097	e8 00 00 00 00	 call	 ?IsPossibleUser@CGuildCombat1to1@@QAEHPAVCUser@@@Z ; CGuildCombat1to1::IsPossibleUser
  0009c	85 c0		 test	 eax, eax
  0009e	0f 84 60 01 00
	00		 je	 $LN218@SendWarRes
; File C:\Program Files\Microsoft Visual Studio\2022\Professional\VC\Tools\MSVC\14.44.35207\include\vector

; 1934 :         return _My_data._Myfirst[_Pos];

  000a4	8b 45 f0	 mov	 eax, DWORD PTR tv1334[ebp]
; File C:\IAGOS\server\v18\Source\Source\_Common\GuildCombat1to1.cpp

; 180  : 				u_long uIdPlayer = NULL_ID;

  000a7	83 c9 ff	 or	 ecx, -1

; 181  : 				if( (int)( m_vecTenderGuild[m_nIndex[i]].vecMemberId.size() ) > m_nProgWarCount	)

  000aa	8b 7e 1c	 mov	 edi, DWORD PTR [esi+28]
; File C:\Program Files\Microsoft Visual Studio\2022\Professional\VC\Tools\MSVC\14.44.35207\include\vector

; 1934 :         return _My_data._Myfirst[_Pos];

  000ad	6b 00 2c	 imul	 eax, DWORD PTR [eax], 44

; 1914 :         auto& _My_data = _Mypair._Myval2;

  000b0	03 46 04	 add	 eax, DWORD PTR [esi+4]
  000b3	89 45 ec	 mov	 DWORD PTR tv1330[ebp], eax

; 1915 :         return static_cast<size_type>(_My_data._Mylast - _My_data._Myfirst);

  000b6	8b 50 20	 mov	 edx, DWORD PTR [eax+32]
  000b9	8b 40 24	 mov	 eax, DWORD PTR [eax+36]
  000bc	2b c2		 sub	 eax, edx
  000be	c1 f8 02	 sar	 eax, 2
; File C:\IAGOS\server\v18\Source\Source\_Common\GuildCombat1to1.cpp

; 181  : 				if( (int)( m_vecTenderGuild[m_nIndex[i]].vecMemberId.size() ) > m_nProgWarCount	)

  000c1	3b c7		 cmp	 eax, edi
  000c3	7e 03		 jle	 SHORT $LN11@SendWarRes

; 182  : 					uIdPlayer = m_vecTenderGuild[m_nIndex[i]].vecMemberId[m_nProgWarCount];

  000c5	8b 0c ba	 mov	 ecx, DWORD PTR [edx+edi*4]
$LN11@SendWarRes:

; 183  : 				//else
; 184  : 				//	continue;
; 185  : 
; 186  : 				switch( m_nState )

  000c8	8b 46 10	 mov	 eax, DWORD PTR [esi+16]
  000cb	83 e8 66	 sub	 eax, 102		; 00000066H
  000ce	0f 84 1f 01 00
	00		 je	 $LN12@SendWarRes
  000d4	83 e8 01	 sub	 eax, 1
  000d7	0f 85 27 01 00
	00		 jne	 $LN218@SendWarRes

; 191  : 						break;
; 192  : 					}
; 193  : 
; 194  : 					case GC1TO1WAR_FINISH :		// °ć±â Áľ·á˝Ă
; 195  : 					{
; 196  : 						int nOurWinCount = m_vecTenderGuild[m_nIndex[i]].nWinCount;
; 197  : 						int nOtherWinCount = m_vecTenderGuild[m_nIndex[(i+1)%2]].nWinCount;

  000dd	8b 45 f8	 mov	 eax, DWORD PTR _i$1$[ebp]
  000e0	40		 inc	 eax
  000e1	25 01 00 00 80	 and	 eax, -2147483647	; 80000001H
  000e6	79 05		 jns	 SHORT $LN239@SendWarRes
  000e8	48		 dec	 eax
  000e9	83 c8 fe	 or	 eax, -2			; fffffffeH
  000ec	40		 inc	 eax
$LN239@SendWarRes:
; File C:\Program Files\Microsoft Visual Studio\2022\Professional\VC\Tools\MSVC\14.44.35207\include\vector

; 1934 :         return _My_data._Myfirst[_Pos];

  000ed	6b 44 86 24 2c	 imul	 eax, DWORD PTR [esi+eax*4+36], 44
; File C:\IAGOS\server\v18\Source\Source\_Common\GuildCombat1to1.cpp

; 199  : 						pUser->AddGC1to1WarResult( m_vecTenderGuild[m_nIndex[i]].nLastWinState, uIdPlayer, nOurWinCount, nOtherWinCount );

  000f2	8b 56 04	 mov	 edx, DWORD PTR [esi+4]
  000f5	ff 74 10 14	 push	 DWORD PTR [eax+edx+20]
  000f9	8b 45 ec	 mov	 eax, DWORD PTR tv1330[ebp]
  000fc	ff 70 14	 push	 DWORD PTR [eax+20]
  000ff	51		 push	 ecx
  00100	ff 70 1c	 push	 DWORD PTR [eax+28]
  00103	8b cb		 mov	 ecx, ebx
  00105	e8 00 00 00 00	 call	 ?AddGC1to1WarResult@CUser@@QAEXHKHH@Z ; CUser::AddGC1to1WarResult
; File C:\Program Files\Microsoft Visual Studio\2022\Professional\VC\Tools\MSVC\14.44.35207\include\vector

; 1934 :         return _My_data._Myfirst[_Pos];

  0010a	6b 46 24 2c	 imul	 eax, DWORD PTR [esi+36], 44
; File C:\IAGOS\server\v18\Source\Source\_Common\GuildCombat1to1.cpp

; 203  : 						if( m_vecTenderGuild[m_nIndex[0]].nLastWinState == g_GuildCombat1to1Mng.GC1TO1_PLAYER_WIN )

  0010e	8b 4e 04	 mov	 ecx, DWORD PTR [esi+4]
  00111	81 7c 08 1c ca
	00 00 00	 cmp	 DWORD PTR [eax+ecx+28], 202 ; 000000caH
  00119	75 04		 jne	 SHORT $LN14@SendWarRes

; 204  : 							nIndex = 0; // 0±ćµĺ°ˇ ˝Â¸®ÇßŔ» ¶§

  0011b	33 c0		 xor	 eax, eax
  0011d	eb 17		 jmp	 SHORT $LN17@SendWarRes
$LN14@SendWarRes:
; File C:\Program Files\Microsoft Visual Studio\2022\Professional\VC\Tools\MSVC\14.44.35207\include\vector

; 1934 :         return _My_data._Myfirst[_Pos];

  0011f	6b 46 28 2c	 imul	 eax, DWORD PTR [esi+40], 44
; File C:\IAGOS\server\v18\Source\Source\_Common\GuildCombat1to1.cpp

; 205  : 						else if( m_vecTenderGuild[m_nIndex[1]].nLastWinState == g_GuildCombat1to1Mng.GC1TO1_PLAYER_WIN )

  00123	81 7c 08 1c ca
	00 00 00	 cmp	 DWORD PTR [eax+ecx+28], 202 ; 000000caH
  0012b	0f 85 a6 00 00
	00		 jne	 $LN217@SendWarRes

; 206  : 							nIndex = 1;	// 1±ćµĺ°ˇ ˝Â¸®ÇßŔ» ¶§

  00131	b8 01 00 00 00	 mov	 eax, 1
$LN17@SendWarRes:
; File C:\Program Files\Microsoft Visual Studio\2022\Professional\VC\Tools\MSVC\14.44.35207\include\vector

; 1934 :         return _My_data._Myfirst[_Pos];

  00136	6b 44 86 24 2c	 imul	 eax, DWORD PTR [esi+eax*4+36], 44
; File C:\IAGOS\server\v18\Source\Source\_Common\GuildCombat1to1.cpp

; 214  : 							if( (int)( m_vecTenderGuild[m_nIndex[nIndex]].vecMemberId.size() ) > m_nProgWarCount	)								

  0013b	8b 76 1c	 mov	 esi, DWORD PTR [esi+28]
; File C:\Program Files\Microsoft Visual Studio\2022\Professional\VC\Tools\MSVC\14.44.35207\include\vector

; 1915 :         return static_cast<size_type>(_My_data._Mylast - _My_data._Myfirst);

  0013e	8b 54 08 20	 mov	 edx, DWORD PTR [eax+ecx+32]
  00142	8b 44 08 24	 mov	 eax, DWORD PTR [eax+ecx+36]
  00146	2b c2		 sub	 eax, edx
  00148	c1 f8 02	 sar	 eax, 2
; File C:\IAGOS\server\v18\Source\Source\_Common\GuildCombat1to1.cpp

; 214  : 							if( (int)( m_vecTenderGuild[m_nIndex[nIndex]].vecMemberId.size() ) > m_nProgWarCount	)								

  0014b	3b c6		 cmp	 eax, esi
  0014d	0f 8e b1 00 00
	00		 jle	 $LN218@SendWarRes

; 215  : 								pWinUser = (CUser*)prj.GetUserByID( m_vecTenderGuild[m_nIndex[nIndex]].vecMemberId[m_nProgWarCount] );

  00153	8b 34 b2	 mov	 esi, DWORD PTR [edx+esi*4]
; File C:\Program Files\Microsoft Visual Studio\2022\Professional\VC\Tools\MSVC\14.44.35207\include\xtree

; 1630 :         _Tree_find_result<_Nodeptr> _Result{{_Scary->_Myhead->_Parent, _Tree_child::_Right}, _Scary->_Myhead};

  00156	8b 15 28 00 00
	00		 mov	 edx, DWORD PTR ?prj@@3VCProject@@A+40
  0015c	8b ca		 mov	 ecx, edx
  0015e	8b 42 04	 mov	 eax, DWORD PTR [edx+4]

; 1631 :         _Nodeptr _Trynode = _Result._Location._Parent;
; 1632 :         while (!_Trynode->_Isnil) {

  00161	80 78 0d 00	 cmp	 BYTE PTR [eax+13], 0
  00165	75 14		 jne	 SHORT $LN150@SendWarRes
$LL149@SendWarRes:
; File C:\Program Files\Microsoft Visual Studio\2022\Professional\VC\Tools\MSVC\14.44.35207\include\type_traits

; 2380 :         return _Left < _Right;

  00167	39 70 10	 cmp	 DWORD PTR [eax+16], esi
; File C:\Program Files\Microsoft Visual Studio\2022\Professional\VC\Tools\MSVC\14.44.35207\include\xtree

; 1634 :             if (_DEBUG_LT_PRED(_Getcomp(), _Traits::_Kfn(_Trynode->_Myval), _Keyval)) {

  0016a	73 05		 jae	 SHORT $LN151@SendWarRes

; 1635 :                 _Result._Location._Child = _Tree_child::_Right;
; 1636 :                 _Trynode                 = _Trynode->_Right;

  0016c	8b 40 08	 mov	 eax, DWORD PTR [eax+8]

; 1637 :             } else {

  0016f	eb 04		 jmp	 SHORT $LN152@SendWarRes
$LN151@SendWarRes:

; 1638 :                 _Result._Location._Child = _Tree_child::_Left;
; 1639 :                 _Result._Bound           = _Trynode;

  00171	8b c8		 mov	 ecx, eax

; 1640 :                 _Trynode                 = _Trynode->_Left;

  00173	8b 00		 mov	 eax, DWORD PTR [eax]
$LN152@SendWarRes:

; 1631 :         _Nodeptr _Trynode = _Result._Location._Parent;
; 1632 :         while (!_Trynode->_Isnil) {

  00175	80 78 0d 00	 cmp	 BYTE PTR [eax+13], 0
  00179	74 ec		 je	 SHORT $LL149@SendWarRes
$LN150@SendWarRes:

; 1624 :         return !_Bound->_Isnil && !_DEBUG_LT_PRED(_Getcomp(), _Keyval, _Traits::_Kfn(_Bound->_Myval));

  0017b	80 79 0d 00	 cmp	 BYTE PTR [ecx+13], 0
  0017f	75 05		 jne	 SHORT $LN146@SendWarRes
; File C:\Program Files\Microsoft Visual Studio\2022\Professional\VC\Tools\MSVC\14.44.35207\include\type_traits

; 2380 :         return _Left < _Right;

  00181	3b 71 10	 cmp	 esi, DWORD PTR [ecx+16]
; File C:\Program Files\Microsoft Visual Studio\2022\Professional\VC\Tools\MSVC\14.44.35207\include\xtree

; 1624 :         return !_Bound->_Isnil && !_DEBUG_LT_PRED(_Getcomp(), _Keyval, _Traits::_Kfn(_Bound->_Myval));

  00184	73 02		 jae	 SHORT $LN145@SendWarRes
$LN146@SendWarRes:

; 1389 :         return _Get_scary()->_Myhead;

  00186	8b ca		 mov	 ecx, edx
$LN145@SendWarRes:

; 37   :     _Tree_unchecked_const_iterator(_Nodeptr _Pnode, const _Mytree* _Plist) noexcept : _Ptr(_Pnode) {

  00188	3b ca		 cmp	 ecx, edx
; File C:\IAGOS\server\v18\Source\Source\_Common\Project.h

; 1436 : 	if( i != m_idPlayerToUserPtr.end() )

  0018a	74 7e		 je	 SHORT $LN5@SendWarRes

; 1437 : 		return i->second;

  0018c	8b 79 14	 mov	 edi, DWORD PTR [ecx+20]
; File C:\IAGOS\server\v18\Source\Source\_Common\Obj.h

; 327  : 	return pObj && ( pObj->IsDelete() == FALSE ); 

  0018f	85 ff		 test	 edi, edi
  00191	74 77		 je	 SHORT $LN5@SendWarRes

; 180  : 	BOOL			IsDelete()	{ return (m_dwFlags & OBJ_FLAG_DELETE);  }

  00193	f6 47 04 01	 test	 BYTE PTR [edi+4], 1

; 327  : 	return pObj && ( pObj->IsDelete() == FALSE ); 

  00197	75 71		 jne	 SHORT $LN5@SendWarRes
; File C:\IAGOS\server\v18\Source\Source\_Common\GuildCombat1to1.cpp

; 218  : 								CGuild* pGuild = pWinUser->GetGuild();

  00199	8b cf		 mov	 ecx, edi
  0019b	e8 00 00 00 00	 call	 ?GetGuild@CMover@@QAEPAVCGuild@@XZ ; CMover::GetGuild
  001a0	89 45 ec	 mov	 DWORD PTR _pGuild$1$[ebp], eax

; 219  : 								if( pGuild )

  001a3	85 c0		 test	 eax, eax
  001a5	74 5d		 je	 SHORT $LN218@SendWarRes

; 220  : 									pUser->AddDefinedCaption( TRUE, TID_GAME_GUILDCOMBAT1TO1_WINMSG, "%d %s %s", m_nProgWarCount+1, pGuild->m_szGuild, pWinUser->GetName() );

  001a7	8b 75 fc	 mov	 esi, DWORD PTR _this$1$[ebp]
  001aa	8b cf		 mov	 ecx, edi
  001ac	6a 00		 push	 0
  001ae	8b 76 1c	 mov	 esi, DWORD PTR [esi+28]
  001b1	46		 inc	 esi
  001b2	e8 00 00 00 00	 call	 ?GetName@CMover@@QAEPBDH@Z ; CMover::GetName
  001b7	50		 push	 eax
  001b8	8b 45 ec	 mov	 eax, DWORD PTR _pGuild$1$[ebp]
  001bb	83 c0 08	 add	 eax, 8
  001be	50		 push	 eax
  001bf	56		 push	 esi
  001c0	68 00 00 00 00	 push	 OFFSET ??_C@_08DJDJLEPK@?$CFd?5?$CFs?5?$CFs@
  001c5	68 79 0d 00 00	 push	 3449			; 00000d79H
  001ca	6a 01		 push	 1
  001cc	53		 push	 ebx
  001cd	e8 00 00 00 00	 call	 ?AddDefinedCaption@CUser@@QAAXHHPBDZZ ; CUser::AddDefinedCaption
  001d2	83 c4 1c	 add	 esp, 28			; 0000001cH
  001d5	eb 2d		 jmp	 SHORT $LN218@SendWarRes
$LN217@SendWarRes:

; 207  : 						
; 208  : 						// ´ëŔüŔĺŔÇ ¸đµç Ľ±Ľöżˇ°Ô ¸ŢĽĽÁö Ăâ·Â	
; 209  : 						if( nIndex == 2 ) // şń°ĺŔ» ¶§
; 210  : 							pUser->AddDefinedCaption( TRUE, TID_GAME_GUILDCOMBAT1TO1_DRAWMSG, "%d", m_nProgWarCount+1 );

  001d7	8b 46 1c	 mov	 eax, DWORD PTR [esi+28]
  001da	40		 inc	 eax
  001db	50		 push	 eax
  001dc	68 00 00 00 00	 push	 OFFSET ??_C@_02DPKJAMEF@?$CFd@
  001e1	68 7a 0d 00 00	 push	 3450			; 00000d7aH
  001e6	6a 01		 push	 1
  001e8	53		 push	 ebx
  001e9	e8 00 00 00 00	 call	 ?AddDefinedCaption@CUser@@QAAXHHPBDZZ ; CUser::AddDefinedCaption
  001ee	83 c4 14	 add	 esp, 20			; 00000014H
  001f1	eb 11		 jmp	 SHORT $LN218@SendWarRes
$LN12@SendWarRes:

; 187  : 				{
; 188  : 					case GC1TO1WAR_WAR :	// °ć±â ˝ĂŔŰ˝Ă
; 189  : 					{
; 190  : 						pUser->AddGC1to1WarResult( g_GuildCombat1to1Mng.GC1TO1_PLAYER_WAR, uIdPlayer, 0, 0 );

  001f3	6a 00		 push	 0
  001f5	6a 00		 push	 0
  001f7	51		 push	 ecx
  001f8	68 c9 00 00 00	 push	 201			; 000000c9H
  001fd	8b cb		 mov	 ecx, ebx
  001ff	e8 00 00 00 00	 call	 ?AddGC1to1WarResult@CUser@@QAEXHKHH@Z ; CUser::AddGC1to1WarResult
$LN218@SendWarRes:

; 175  : 		for( int j=0; j<(int)( m_vecTenderGuild[m_nIndex[i]].vecMemberId.size() ); j++ )

  00204	8b 15 28 00 00
	00		 mov	 edx, DWORD PTR ?prj@@3VCProject@@A+40
$LN5@SendWarRes:
; File C:\Program Files\Microsoft Visual Studio\2022\Professional\VC\Tools\MSVC\14.44.35207\include\vector

; 1934 :         return _My_data._Myfirst[_Pos];

  0020a	8b 45 f0	 mov	 eax, DWORD PTR tv1334[ebp]
; File C:\IAGOS\server\v18\Source\Source\_Common\GuildCombat1to1.cpp

; 175  : 		for( int j=0; j<(int)( m_vecTenderGuild[m_nIndex[i]].vecMemberId.size() ); j++ )

  0020d	8b 5d f4	 mov	 ebx, DWORD PTR _j$1$[ebp]
  00210	43		 inc	 ebx
  00211	89 5d f4	 mov	 DWORD PTR _j$1$[ebp], ebx
; File C:\Program Files\Microsoft Visual Studio\2022\Professional\VC\Tools\MSVC\14.44.35207\include\vector

; 1934 :         return _My_data._Myfirst[_Pos];

  00214	8b 30		 mov	 esi, DWORD PTR [eax]

; 1914 :         auto& _My_data = _Mypair._Myval2;

  00216	8b 45 fc	 mov	 eax, DWORD PTR _this$1$[ebp]

; 1934 :         return _My_data._Myfirst[_Pos];

  00219	6b ce 2c	 imul	 ecx, esi, 44

; 1914 :         auto& _My_data = _Mypair._Myval2;

  0021c	8b 78 04	 mov	 edi, DWORD PTR [eax+4]

; 1915 :         return static_cast<size_type>(_My_data._Mylast - _My_data._Myfirst);

  0021f	8b 44 39 24	 mov	 eax, DWORD PTR [ecx+edi+36]
  00223	2b 44 39 20	 sub	 eax, DWORD PTR [ecx+edi+32]
  00227	c1 f8 02	 sar	 eax, 2
; File C:\IAGOS\server\v18\Source\Source\_Common\GuildCombat1to1.cpp

; 175  : 		for( int j=0; j<(int)( m_vecTenderGuild[m_nIndex[i]].vecMemberId.size() ); j++ )

  0022a	3b d8		 cmp	 ebx, eax
  0022c	0f 8c 1e fe ff
	ff		 jl	 $LL7@SendWarRes
$LN2@SendWarRes:

; 172  : 	CUser* pUser = NULL;
; 173  : 	for( int i=0; i<2; i++ )

  00232	8b 4d f8	 mov	 ecx, DWORD PTR _i$1$[ebp]
  00235	8b 45 fc	 mov	 eax, DWORD PTR _this$1$[ebp]
  00238	41		 inc	 ecx
  00239	89 4d f8	 mov	 DWORD PTR _i$1$[ebp], ecx
  0023c	83 f9 02	 cmp	 ecx, 2
  0023f	0f 8c db fd ff
	ff		 jl	 $LL4@SendWarRes
  00245	5f		 pop	 edi
  00246	5e		 pop	 esi
  00247	5b		 pop	 ebx

; 221  : 							}
; 222  : 						}
; 223  : 						break;
; 224  : 					}
; 225  : 				} // switch
; 226  : 			} // if
; 227  : 		} // for j
; 228  : 	} // for i
; 229  : }

  00248	8b e5		 mov	 esp, ebp
  0024a	5d		 pop	 ebp
  0024b	c3		 ret	 0
?SendWarResultAllPlayer@CGuildCombat1to1@@QAEXXZ ENDP	; CGuildCombat1to1::SendWarResultAllPlayer
_TEXT	ENDS
; Function compile flags: /Ogtp
; File C:\IAGOS\server\v18\Source\Source\_Common\GuildCombat1to1.cpp
; File C:\Program Files\Microsoft Visual Studio\2022\Professional\VC\Tools\MSVC\14.44.35207\include\vector
; File C:\IAGOS\server\v18\Source\Source\_Common\GuildCombat1to1.cpp
; File C:\Program Files\Microsoft Visual Studio\2022\Professional\VC\Tools\MSVC\14.44.35207\include\vector
; File C:\IAGOS\server\v18\Source\Source\_Common\GuildCombat1to1.cpp
; File C:\Program Files\Microsoft Visual Studio\2022\Professional\VC\Tools\MSVC\14.44.35207\include\vector
; File C:\IAGOS\server\v18\Source\Source\_Common\GuildCombat1to1.cpp
; File C:\Program Files\Microsoft Visual Studio\2022\Professional\VC\Tools\MSVC\14.44.35207\include\xtree
; File C:\IAGOS\server\v18\Source\Source\_Common\GuildCombat1to1.cpp
; File C:\Program Files\Microsoft Visual Studio\2022\Professional\VC\Tools\MSVC\14.44.35207\include\xtree
; File C:\Program Files\Microsoft Visual Studio\2022\Professional\VC\Tools\MSVC\14.44.35207\include\type_traits
; File C:\Program Files\Microsoft Visual Studio\2022\Professional\VC\Tools\MSVC\14.44.35207\include\xtree
; File C:\Program Files\Microsoft Visual Studio\2022\Professional\VC\Tools\MSVC\14.44.35207\include\type_traits
; File C:\Program Files\Microsoft Visual Studio\2022\Professional\VC\Tools\MSVC\14.44.35207\include\xtree
; File C:\IAGOS\server\v18\Source\Source\_Common\Project.h
; File C:\IAGOS\server\v18\Source\Source\_Common\GuildCombat1to1.cpp
; File C:\Program Files\Microsoft Visual Studio\2022\Professional\VC\Tools\MSVC\14.44.35207\include\vector
; File C:\IAGOS\server\v18\Source\Source\_Common\GuildCombat1to1.cpp
; File C:\Program Files\Microsoft Visual Studio\2022\Professional\VC\Tools\MSVC\14.44.35207\include\vector
; File C:\IAGOS\server\v18\Source\Source\_Common\GuildCombat1to1.cpp
;	COMDAT ?SendNowStateAllPlayer@CGuildCombat1to1@@QAEXXZ
_TEXT	SEGMENT
tv619 = -8						; size = 4
tv618 = -4						; size = 4
?SendNowStateAllPlayer@CGuildCombat1to1@@QAEXXZ PROC	; CGuildCombat1to1::SendNowStateAllPlayer, COMDAT
; _this$ = ecx

; 126  : {

  00000	55		 push	 ebp
  00001	8b ec		 mov	 ebp, esp
  00003	83 ec 08	 sub	 esp, 8
  00006	53		 push	 ebx
  00007	56		 push	 esi
  00008	57		 push	 edi
  00009	8b f9		 mov	 edi, ecx

; 127  : 	CUser* pUser = NULL;
; 128  : 	for( int i=0; i<2; i++ )

  0000b	c7 45 f8 02 00
	00 00		 mov	 DWORD PTR tv619[ebp], 2
  00012	8d 47 24	 lea	 eax, DWORD PTR [edi+36]
  00015	89 45 fc	 mov	 DWORD PTR tv618[ebp], eax
$LL4@SendNowSta:
; File C:\Program Files\Microsoft Visual Studio\2022\Professional\VC\Tools\MSVC\14.44.35207\include\vector

; 1934 :         return _My_data._Myfirst[_Pos];

  00018	8b 10		 mov	 edx, DWORD PTR [eax]
; File C:\IAGOS\server\v18\Source\Source\_Common\GuildCombat1to1.cpp

; 130  : 		for( int j=0; j<(int)( m_vecTenderGuild[m_nIndex[i]].vecMemberId.size() ); j++ )

  0001a	33 db		 xor	 ebx, ebx
; File C:\Program Files\Microsoft Visual Studio\2022\Professional\VC\Tools\MSVC\14.44.35207\include\vector

; 1914 :         auto& _My_data = _Mypair._Myval2;

  0001c	8b 77 04	 mov	 esi, DWORD PTR [edi+4]

; 1934 :         return _My_data._Myfirst[_Pos];

  0001f	6b ca 2c	 imul	 ecx, edx, 44

; 1915 :         return static_cast<size_type>(_My_data._Mylast - _My_data._Myfirst);

  00022	8b 44 31 24	 mov	 eax, DWORD PTR [ecx+esi+36]
  00026	2b 44 31 20	 sub	 eax, DWORD PTR [ecx+esi+32]
; File C:\IAGOS\server\v18\Source\Source\_Common\GuildCombat1to1.cpp

; 130  : 		for( int j=0; j<(int)( m_vecTenderGuild[m_nIndex[i]].vecMemberId.size() ); j++ )

  0002a	a9 fc ff ff ff	 test	 eax, -4			; fffffffcH
  0002f	7e 7a		 jle	 SHORT $LN2@SendNowSta
$LL7@SendNowSta:
; File C:\Program Files\Microsoft Visual Studio\2022\Professional\VC\Tools\MSVC\14.44.35207\include\vector

; 1934 :         return _My_data._Myfirst[_Pos];

  00031	6b c2 2c	 imul	 eax, edx, 44
; File C:\IAGOS\server\v18\Source\Source\_Common\GuildCombat1to1.cpp

; 132  : 			pUser = (CUser*)prj.GetUserByID( m_vecTenderGuild[m_nIndex[i]].vecMemberId[j] );

  00034	8b 44 30 20	 mov	 eax, DWORD PTR [eax+esi+32]
; File C:\Program Files\Microsoft Visual Studio\2022\Professional\VC\Tools\MSVC\14.44.35207\include\xtree

; 1630 :         _Tree_find_result<_Nodeptr> _Result{{_Scary->_Myhead->_Parent, _Tree_child::_Right}, _Scary->_Myhead};

  00038	8b 35 28 00 00
	00		 mov	 esi, DWORD PTR ?prj@@3VCProject@@A+40
  0003e	8b ce		 mov	 ecx, esi
; File C:\IAGOS\server\v18\Source\Source\_Common\GuildCombat1to1.cpp

; 132  : 			pUser = (CUser*)prj.GetUserByID( m_vecTenderGuild[m_nIndex[i]].vecMemberId[j] );

  00040	8b 14 98	 mov	 edx, DWORD PTR [eax+ebx*4]
; File C:\Program Files\Microsoft Visual Studio\2022\Professional\VC\Tools\MSVC\14.44.35207\include\xtree

; 1630 :         _Tree_find_result<_Nodeptr> _Result{{_Scary->_Myhead->_Parent, _Tree_child::_Right}, _Scary->_Myhead};

  00043	8b 46 04	 mov	 eax, DWORD PTR [esi+4]

; 1631 :         _Nodeptr _Trynode = _Result._Location._Parent;
; 1632 :         while (!_Trynode->_Isnil) {

  00046	80 78 0d 00	 cmp	 BYTE PTR [eax+13], 0
  0004a	75 18		 jne	 SHORT $LN32@SendNowSta
  0004c	0f 1f 40 00	 npad	 4
$LL31@SendNowSta:
; File C:\Program Files\Microsoft Visual Studio\2022\Professional\VC\Tools\MSVC\14.44.35207\include\type_traits

; 2380 :         return _Left < _Right;

  00050	39 50 10	 cmp	 DWORD PTR [eax+16], edx
; File C:\Program Files\Microsoft Visual Studio\2022\Professional\VC\Tools\MSVC\14.44.35207\include\xtree

; 1634 :             if (_DEBUG_LT_PRED(_Getcomp(), _Traits::_Kfn(_Trynode->_Myval), _Keyval)) {

  00053	73 05		 jae	 SHORT $LN33@SendNowSta

; 1635 :                 _Result._Location._Child = _Tree_child::_Right;
; 1636 :                 _Trynode                 = _Trynode->_Right;

  00055	8b 40 08	 mov	 eax, DWORD PTR [eax+8]

; 1637 :             } else {

  00058	eb 04		 jmp	 SHORT $LN34@SendNowSta
$LN33@SendNowSta:

; 1638 :                 _Result._Location._Child = _Tree_child::_Left;
; 1639 :                 _Result._Bound           = _Trynode;

  0005a	8b c8		 mov	 ecx, eax

; 1640 :                 _Trynode                 = _Trynode->_Left;

  0005c	8b 00		 mov	 eax, DWORD PTR [eax]
$LN34@SendNowSta:

; 1631 :         _Nodeptr _Trynode = _Result._Location._Parent;
; 1632 :         while (!_Trynode->_Isnil) {

  0005e	80 78 0d 00	 cmp	 BYTE PTR [eax+13], 0
  00062	74 ec		 je	 SHORT $LL31@SendNowSta
$LN32@SendNowSta:

; 1624 :         return !_Bound->_Isnil && !_DEBUG_LT_PRED(_Getcomp(), _Keyval, _Traits::_Kfn(_Bound->_Myval));

  00064	80 79 0d 00	 cmp	 BYTE PTR [ecx+13], 0
  00068	75 05		 jne	 SHORT $LN28@SendNowSta
; File C:\Program Files\Microsoft Visual Studio\2022\Professional\VC\Tools\MSVC\14.44.35207\include\type_traits

; 2380 :         return _Left < _Right;

  0006a	3b 51 10	 cmp	 edx, DWORD PTR [ecx+16]
; File C:\Program Files\Microsoft Visual Studio\2022\Professional\VC\Tools\MSVC\14.44.35207\include\xtree

; 1624 :         return !_Bound->_Isnil && !_DEBUG_LT_PRED(_Getcomp(), _Keyval, _Traits::_Kfn(_Bound->_Myval));

  0006d	73 02		 jae	 SHORT $LN27@SendNowSta
$LN28@SendNowSta:

; 1389 :         return _Get_scary()->_Myhead;

  0006f	8b ce		 mov	 ecx, esi
$LN27@SendNowSta:

; 37   :     _Tree_unchecked_const_iterator(_Nodeptr _Pnode, const _Mytree* _Plist) noexcept : _Ptr(_Pnode) {

  00071	3b ce		 cmp	 ecx, esi
; File C:\IAGOS\server\v18\Source\Source\_Common\Project.h

; 1436 : 	if( i != m_idPlayerToUserPtr.end() )

  00073	74 05		 je	 SHORT $LN23@SendNowSta

; 1437 : 		return i->second;

  00075	8b 71 14	 mov	 esi, DWORD PTR [ecx+20]
  00078	eb 02		 jmp	 SHORT $LN22@SendNowSta
$LN23@SendNowSta:

; 1438 : 	return NULL;

  0007a	33 f6		 xor	 esi, esi
$LN22@SendNowSta:
; File C:\IAGOS\server\v18\Source\Source\_Common\GuildCombat1to1.cpp

; 133  : 			if( IsPossibleUser( pUser ) )

  0007c	56		 push	 esi
  0007d	8b cf		 mov	 ecx, edi
  0007f	e8 00 00 00 00	 call	 ?IsPossibleUser@CGuildCombat1to1@@QAEHPAVCUser@@@Z ; CGuildCombat1to1::IsPossibleUser
  00084	85 c0		 test	 eax, eax
  00086	74 08		 je	 SHORT $LN5@SendNowSta

; 134  : 				SendNowState( pUser );

  00088	56		 push	 esi
  00089	8b cf		 mov	 ecx, edi
  0008b	e8 00 00 00 00	 call	 ?SendNowState@CGuildCombat1to1@@QAEXPAVCUser@@@Z ; CGuildCombat1to1::SendNowState
$LN5@SendNowSta:
; File C:\Program Files\Microsoft Visual Studio\2022\Professional\VC\Tools\MSVC\14.44.35207\include\vector

; 1934 :         return _My_data._Myfirst[_Pos];

  00090	8b 45 fc	 mov	 eax, DWORD PTR tv618[ebp]
; File C:\IAGOS\server\v18\Source\Source\_Common\GuildCombat1to1.cpp

; 130  : 		for( int j=0; j<(int)( m_vecTenderGuild[m_nIndex[i]].vecMemberId.size() ); j++ )

  00093	43		 inc	 ebx
; File C:\Program Files\Microsoft Visual Studio\2022\Professional\VC\Tools\MSVC\14.44.35207\include\vector

; 1914 :         auto& _My_data = _Mypair._Myval2;

  00094	8b 77 04	 mov	 esi, DWORD PTR [edi+4]

; 1934 :         return _My_data._Myfirst[_Pos];

  00097	8b 10		 mov	 edx, DWORD PTR [eax]
  00099	6b ca 2c	 imul	 ecx, edx, 44

; 1915 :         return static_cast<size_type>(_My_data._Mylast - _My_data._Myfirst);

  0009c	8b 44 31 24	 mov	 eax, DWORD PTR [ecx+esi+36]
  000a0	2b 44 31 20	 sub	 eax, DWORD PTR [ecx+esi+32]
  000a4	c1 f8 02	 sar	 eax, 2
; File C:\IAGOS\server\v18\Source\Source\_Common\GuildCombat1to1.cpp

; 130  : 		for( int j=0; j<(int)( m_vecTenderGuild[m_nIndex[i]].vecMemberId.size() ); j++ )

  000a7	3b d8		 cmp	 ebx, eax
  000a9	7c 86		 jl	 SHORT $LL7@SendNowSta
$LN2@SendNowSta:

; 127  : 	CUser* pUser = NULL;
; 128  : 	for( int i=0; i<2; i++ )

  000ab	8b 45 fc	 mov	 eax, DWORD PTR tv618[ebp]
  000ae	83 c0 04	 add	 eax, 4
  000b1	83 6d f8 01	 sub	 DWORD PTR tv619[ebp], 1
  000b5	89 45 fc	 mov	 DWORD PTR tv618[ebp], eax
  000b8	0f 85 5a ff ff
	ff		 jne	 $LL4@SendNowSta
  000be	5f		 pop	 edi
  000bf	5e		 pop	 esi
  000c0	5b		 pop	 ebx

; 135  : 		}
; 136  : 	}
; 137  : }

  000c1	8b e5		 mov	 esp, ebp
  000c3	5d		 pop	 ebp
  000c4	c3		 ret	 0
?SendNowStateAllPlayer@CGuildCombat1to1@@QAEXXZ ENDP	; CGuildCombat1to1::SendNowStateAllPlayer
_TEXT	ENDS
; Function compile flags: /Ogtp
; File C:\IAGOS\server\v18\Source\Source\_Common\GuildCombat1to1.cpp
;	COMDAT ?SendNowState@CGuildCombat1to1@@QAEXPAVCUser@@@Z
_TEXT	SEGMENT
_pUser$ = 8						; size = 4
?SendNowState@CGuildCombat1to1@@QAEXPAVCUser@@@Z PROC	; CGuildCombat1to1::SendNowState, COMDAT
; _this$ = ecx

; 141  : {

  00000	55		 push	 ebp
  00001	8b ec		 mov	 ebp, esp
  00003	56		 push	 esi
  00004	8b f1		 mov	 esi, ecx

; 142  : 	switch( m_nState )

  00006	8b 46 10	 mov	 eax, DWORD PTR [esi+16]
  00009	83 c0 9c	 add	 eax, -100		; ffffff9cH
  0000c	83 f8 04	 cmp	 eax, 4
  0000f	77 69		 ja	 SHORT $LN11@SendNowSta
  00011	57		 push	 edi
  00012	ff 24 85 00 00
	00 00		 jmp	 DWORD PTR $LN13@SendNowSta[eax*4]
$LN4@SendNowSta:

; 143  : 	{
; 144  : 		case GC1TO1WAR_WAIT :
; 145  : 		{
; 146  : 			if( IsPossibleUser( pUser ) )

  00019	8b 7d 08	 mov	 edi, DWORD PTR _pUser$[ebp]
  0001c	57		 push	 edi
  0001d	e8 00 00 00 00	 call	 ?IsPossibleUser@CGuildCombat1to1@@QAEHPAVCUser@@@Z ; CGuildCombat1to1::IsPossibleUser
  00022	85 c0		 test	 eax, eax
  00024	74 53		 je	 SHORT $LN18@SendNowSta

; 147  : 				pUser->AddGC1to1NowState( m_nState, m_nWaitTime, m_nProgWarCount );

  00026	ff 76 1c	 push	 DWORD PTR [esi+28]

; 163  : 				pUser->AddGC1to1NowState( m_nState, 0 );

  00029	8b cf		 mov	 ecx, edi
  0002b	ff 76 14	 push	 DWORD PTR [esi+20]
  0002e	ff 76 10	 push	 DWORD PTR [esi+16]
  00031	e8 00 00 00 00	 call	 ?AddGC1to1NowState@CUser@@QAEXHHH@Z ; CUser::AddGC1to1NowState
  00036	5f		 pop	 edi
  00037	5e		 pop	 esi

; 164  : 			break;
; 165  : 		}
; 166  : 	}
; 167  : }

  00038	5d		 pop	 ebp
  00039	c2 04 00	 ret	 4
$LN6@SendNowSta:

; 148  : 			break;
; 149  : 		}
; 150  : 		
; 151  : 		case GC1TO1WAR_WAR :
; 152  : 		case GC1TO1WAR_CLOSEWAIT :
; 153  : 		{
; 154  : 			if( IsPossibleUser( pUser ) )

  0003c	8b 7d 08	 mov	 edi, DWORD PTR _pUser$[ebp]
  0003f	57		 push	 edi
  00040	e8 00 00 00 00	 call	 ?IsPossibleUser@CGuildCombat1to1@@QAEHPAVCUser@@@Z ; CGuildCombat1to1::IsPossibleUser
  00045	85 c0		 test	 eax, eax
  00047	74 30		 je	 SHORT $LN18@SendNowSta

; 155  : 				pUser->AddGC1to1NowState( m_nState, m_nWaitTime );

  00049	6a 00		 push	 0
  0004b	ff 76 14	 push	 DWORD PTR [esi+20]

; 163  : 				pUser->AddGC1to1NowState( m_nState, 0 );

  0004e	8b cf		 mov	 ecx, edi
  00050	ff 76 10	 push	 DWORD PTR [esi+16]
  00053	e8 00 00 00 00	 call	 ?AddGC1to1NowState@CUser@@QAEXHHH@Z ; CUser::AddGC1to1NowState
  00058	5f		 pop	 edi
  00059	5e		 pop	 esi

; 164  : 			break;
; 165  : 		}
; 166  : 	}
; 167  : }

  0005a	5d		 pop	 ebp
  0005b	c2 04 00	 ret	 4
$LN9@SendNowSta:

; 156  : 			break;
; 157  : 		}
; 158  : 
; 159  : 		case GC1TO1WAR_FINISH :
; 160  : 		case GC1TO1WAR_CLOSE :
; 161  : 		{
; 162  : 			if( IsPossibleUser( pUser ) )

  0005e	8b 7d 08	 mov	 edi, DWORD PTR _pUser$[ebp]
  00061	57		 push	 edi
  00062	e8 00 00 00 00	 call	 ?IsPossibleUser@CGuildCombat1to1@@QAEHPAVCUser@@@Z ; CGuildCombat1to1::IsPossibleUser
  00067	85 c0		 test	 eax, eax
  00069	74 0e		 je	 SHORT $LN18@SendNowSta

; 163  : 				pUser->AddGC1to1NowState( m_nState, 0 );

  0006b	6a 00		 push	 0
  0006d	6a 00		 push	 0
  0006f	ff 76 10	 push	 DWORD PTR [esi+16]
  00072	8b cf		 mov	 ecx, edi
  00074	e8 00 00 00 00	 call	 ?AddGC1to1NowState@CUser@@QAEXHHH@Z ; CUser::AddGC1to1NowState
$LN18@SendNowSta:
  00079	5f		 pop	 edi
$LN11@SendNowSta:
  0007a	5e		 pop	 esi

; 164  : 			break;
; 165  : 		}
; 166  : 	}
; 167  : }

  0007b	5d		 pop	 ebp
  0007c	c2 04 00	 ret	 4
  0007f	90		 npad	 1
$LN13@SendNowSta:
  00080	00 00 00 00	 DD	 $LN9@SendNowSta
  00084	00 00 00 00	 DD	 $LN4@SendNowSta
  00088	00 00 00 00	 DD	 $LN6@SendNowSta
  0008c	00 00 00 00	 DD	 $LN9@SendNowSta
  00090	00 00 00 00	 DD	 $LN6@SendNowSta
?SendNowState@CGuildCombat1to1@@QAEXPAVCUser@@@Z ENDP	; CGuildCombat1to1::SendNowState
_TEXT	ENDS
; Function compile flags: /Ogtp
; File C:\IAGOS\server\v18\Source\Source\_Common\GuildCombat1to1.cpp
;	COMDAT ?Process@CGuildCombat1to1@@QAEXXZ
_TEXT	SEGMENT
?Process@CGuildCombat1to1@@QAEXXZ PROC			; CGuildCombat1to1::Process, COMDAT
; _this$ = ecx

; 71   : {

  00000	53		 push	 ebx
  00001	8b d9		 mov	 ebx, ecx

; 72   : 	
; 73   : 	if( m_nWaitTime > 0 )

  00003	83 7b 14 00	 cmp	 DWORD PTR [ebx+20], 0
  00007	7e 1c		 jle	 SHORT $LN4@Process

; 74   : 	{
; 75   : 		m_nWaitTime -= GetTickCount() - m_dwTime;

  00009	57		 push	 edi
  0000a	8b 7b 14	 mov	 edi, DWORD PTR [ebx+20]
  0000d	03 7b 18	 add	 edi, DWORD PTR [ebx+24]
  00010	ff 15 00 00 00
	00		 call	 DWORD PTR __imp__GetTickCount@0
  00016	2b f8		 sub	 edi, eax
  00018	89 7b 14	 mov	 DWORD PTR [ebx+20], edi

; 76   : 		m_dwTime = GetTickCount();	

  0001b	ff 15 00 00 00
	00		 call	 DWORD PTR __imp__GetTickCount@0
  00021	89 43 18	 mov	 DWORD PTR [ebx+24], eax
  00024	5f		 pop	 edi
$LN4@Process:

; 77   : 	}
; 78   : 	
; 79   : 	switch( m_nState )

  00025	8b 43 10	 mov	 eax, DWORD PTR [ebx+16]
  00028	83 c0 9b	 add	 eax, -101		; ffffff9bH
  0002b	83 f8 03	 cmp	 eax, 3
  0002e	77 34		 ja	 SHORT $LN12@Process
  00030	ff 24 85 00 00
	00 00		 jmp	 DWORD PTR $LN14@Process[eax*4]
$LN6@Process:

; 80   : 	{
; 81   : 		case GC1TO1WAR_CLOSE :	// 
; 82   : 			break;
; 83   : 		
; 84   : 		case GC1TO1WAR_WAIT :	// ÇöŔç ĽřąřŔÇ Ľ±Ľö ´ëŔü ´ë±âÁß...
; 85   : 		{
; 86   : 			if( m_nWaitTime <=0 )

  00037	83 7b 14 00	 cmp	 DWORD PTR [ebx+20], 0
  0003b	7f 27		 jg	 SHORT $LN12@Process

; 87   : 			{
; 88   : 				ClearTime();

  0003d	8b cb		 mov	 ecx, ebx
  0003f	e8 00 00 00 00	 call	 ?ClearTime@CGuildCombat1to1@@QAEXXZ ; CGuildCombat1to1::ClearTime

; 89   : 				GuildCombat1to1War();

  00044	8b cb		 mov	 ecx, ebx
  00046	5b		 pop	 ebx
  00047	e9 00 00 00 00	 jmp	 ?GuildCombat1to1War@CGuildCombat1to1@@QAEXXZ ; CGuildCombat1to1::GuildCombat1to1War
$LN8@Process:

; 90   : 			}
; 91   : 			break;
; 92   : 		}
; 93   : 
; 94   : 		case GC1TO1WAR_WAR :	// ÇöŔç ĽřĽ±ŔÇ Ľ±Ľö ´ëŔü Áß...
; 95   : 		{
; 96   : 			if( m_nWaitTime <= 0 )

  0004c	83 7b 14 00	 cmp	 DWORD PTR [ebx+20], 0
  00050	7f 12		 jg	 SHORT $LN12@Process

; 97   : 			{
; 98   : 				ClearTime();

  00052	8b cb		 mov	 ecx, ebx
  00054	e8 00 00 00 00	 call	 ?ClearTime@CGuildCombat1to1@@QAEXXZ ; CGuildCombat1to1::ClearTime

; 99   : 				GuildCombat1to1WarResultCheck();

  00059	6a 00		 push	 0
  0005b	6a 00		 push	 0
  0005d	8b cb		 mov	 ecx, ebx
  0005f	e8 00 00 00 00	 call	 ?GuildCombat1to1WarResultCheck@CGuildCombat1to1@@QAEXHPAVCUser@@@Z ; CGuildCombat1to1::GuildCombat1to1WarResultCheck
$LN12@Process:
  00064	5b		 pop	 ebx

; 119  : 			break;
; 120  : 		}
; 121  : 	}
; 122  : }

  00065	c3		 ret	 0
$LN10@Process:

; 100  : 			}
; 101  : 			break;
; 102  : 		}
; 103  : 		
; 104  : 		case GC1TO1WAR_FINISH :		// ÇöŔç ĽřąřŔÇ Ľ±Ľö ´ëŔü Áľ·á(°á°ú Ăł¸®)
; 105  : 		{
; 106  : 			ClearTime();

  00066	8b cb		 mov	 ecx, ebx
  00068	e8 00 00 00 00	 call	 ?ClearTime@CGuildCombat1to1@@QAEXXZ ; CGuildCombat1to1::ClearTime

; 107  : 			SendNowStateAllPlayer();

  0006d	8b cb		 mov	 ecx, ebx
  0006f	e8 00 00 00 00	 call	 ?SendNowStateAllPlayer@CGuildCombat1to1@@QAEXXZ ; CGuildCombat1to1::SendNowStateAllPlayer

; 108  : 			SendWarResultAllPlayer();

  00074	8b cb		 mov	 ecx, ebx
  00076	e8 00 00 00 00	 call	 ?SendWarResultAllPlayer@CGuildCombat1to1@@QAEXXZ ; CGuildCombat1to1::SendWarResultAllPlayer

; 109  : 			SetTeleportToWaitStageNowPlayers();

  0007b	8b cb		 mov	 ecx, ebx
  0007d	e8 00 00 00 00	 call	 ?SetTeleportToWaitStageNowPlayers@CGuildCombat1to1@@QAEXXZ ; CGuildCombat1to1::SetTeleportToWaitStageNowPlayers

; 110  : 			m_nProgWarCount++;

  00082	ff 43 1c	 inc	 DWORD PTR [ebx+28]

; 111  : 			GuildCombat1to1WarWait();

  00085	8b cb		 mov	 ecx, ebx
  00087	5b		 pop	 ebx
  00088	e9 00 00 00 00	 jmp	 ?GuildCombat1to1WarWait@CGuildCombat1to1@@QAEXXZ ; CGuildCombat1to1::GuildCombat1to1WarWait
$LN11@Process:

; 112  : 			break;
; 113  : 		}
; 114  : 
; 115  : 		case GC1TO1WAR_CLOSEWAIT:	// ÇöŔç ´ëŔüŔĺŔÇ ´ëŔüŔĚ ¸đµÎ Áľ·áµÇ°í ¸¶Ŕ»·Î ĹÚ·ÎĆ÷Ć® ÇĎ±âŔü ´ë±â ˝Ă°Ł..
; 116  : 		{
; 117  : 			if( m_nWaitTime <= 0 )

  0008d	83 7b 14 00	 cmp	 DWORD PTR [ebx+20], 0
  00091	7f d1		 jg	 SHORT $LN12@Process

; 118  : 				GuildCombat1to1Close();

  00093	8b cb		 mov	 ecx, ebx
  00095	5b		 pop	 ebx
  00096	e9 00 00 00 00	 jmp	 ?GuildCombat1to1Close@CGuildCombat1to1@@QAEXXZ ; CGuildCombat1to1::GuildCombat1to1Close
  0009b	90		 npad	 1
$LN14@Process:

; 119  : 			break;
; 120  : 		}
; 121  : 	}
; 122  : }

  0009c	00 00 00 00	 DD	 $LN6@Process
  000a0	00 00 00 00	 DD	 $LN8@Process
  000a4	00 00 00 00	 DD	 $LN10@Process
  000a8	00 00 00 00	 DD	 $LN11@Process
?Process@CGuildCombat1to1@@QAEXXZ ENDP			; CGuildCombat1to1::Process
_TEXT	ENDS
; Function compile flags: /Ogtp
; File C:\IAGOS\server\v18\Source\Source\_Common\GuildCombat1to1.cpp
;	COMDAT ?ClearTime@CGuildCombat1to1@@QAEXXZ
_TEXT	SEGMENT
?ClearTime@CGuildCombat1to1@@QAEXXZ PROC		; CGuildCombat1to1::ClearTime, COMDAT
; _this$ = ecx

; 66   : 	m_nWaitTime = 0;

  00000	c7 41 14 00 00
	00 00		 mov	 DWORD PTR [ecx+20], 0

; 67   : 	m_dwTime = 0;

  00007	c7 41 18 00 00
	00 00		 mov	 DWORD PTR [ecx+24], 0

; 68   : }

  0000e	c3		 ret	 0
?ClearTime@CGuildCombat1to1@@QAEXXZ ENDP		; CGuildCombat1to1::ClearTime
_TEXT	ENDS
; Function compile flags: /Ogtp
; File C:\IAGOS\server\v18\Source\Source\_Common\GuildCombat1to1.cpp
; File C:\Program Files\Microsoft Visual Studio\2022\Professional\VC\Tools\MSVC\14.44.35207\include\vector
; File C:\IAGOS\server\v18\Source\Source\_Common\GuildCombat1to1.cpp
;	COMDAT ??1CGuildCombat1to1@@UAE@XZ
_TEXT	SEGMENT
??1CGuildCombat1to1@@UAE@XZ PROC			; CGuildCombat1to1::~CGuildCombat1to1, COMDAT
; _this$ = ecx

; 60   : {

  00000	c7 01 00 00 00
	00		 mov	 DWORD PTR [ecx], OFFSET ??_7CGuildCombat1to1@@6B@

; 62   : }

  00006	83 c1 04	 add	 ecx, 4
; File C:\Program Files\Microsoft Visual Studio\2022\Professional\VC\Tools\MSVC\14.44.35207\include\vector

; 830  :         _Tidy();

  00009	e9 00 00 00 00	 jmp	 ?_Tidy@?$vector@U__GC1TO1TENDER@CGuildCombat1to1Mng@@V?$allocator@U__GC1TO1TENDER@CGuildCombat1to1Mng@@@std@@@std@@AAEXXZ ; std::vector<CGuildCombat1to1Mng::__GC1TO1TENDER,std::allocator<CGuildCombat1to1Mng::__GC1TO1TENDER> >::_Tidy
??1CGuildCombat1to1@@UAE@XZ ENDP			; CGuildCombat1to1::~CGuildCombat1to1
_TEXT	ENDS
; Function compile flags: /Ogtp
; File C:\IAGOS\server\v18\Source\Source\_Common\GuildCombat1to1.cpp
; File C:\Program Files\Microsoft Visual Studio\2022\Professional\VC\Tools\MSVC\14.44.35207\include\vector
; File C:\IAGOS\server\v18\Source\Source\_Common\GuildCombat1to1.cpp
; File C:\Program Files\Microsoft Visual Studio\2022\Professional\VC\Tools\MSVC\14.44.35207\include\vector
; File C:\IAGOS\server\v18\Source\Source\_Common\GuildCombat1to1.cpp
; File C:\Program Files\Microsoft Visual Studio\2022\Professional\VC\Tools\MSVC\14.44.35207\include\vector
; File C:\IAGOS\server\v18\Source\Source\_Common\GuildCombat1to1.cpp
; File C:\Program Files\Microsoft Visual Studio\2022\Professional\VC\Tools\MSVC\14.44.35207\include\vector
; File C:\IAGOS\server\v18\Source\Source\_Common\GuildCombat1to1.cpp
; File C:\Program Files\Microsoft Visual Studio\2022\Professional\VC\Tools\MSVC\14.44.35207\include\vector
; File C:\IAGOS\server\v18\Source\Source\_Common\GuildCombat1to1.cpp
; File C:\Program Files\Microsoft Visual Studio\2022\Professional\VC\Tools\MSVC\14.44.35207\include\vector
; File C:\IAGOS\server\v18\Source\Source\_Common\GuildCombat1to1.cpp
; File C:\Program Files\Microsoft Visual Studio\2022\Professional\VC\Tools\MSVC\14.44.35207\include\vector
; File C:\IAGOS\server\v18\Source\Source\_Common\GuildCombat1to1.cpp
; File C:\Program Files\Microsoft Visual Studio\2022\Professional\VC\Tools\MSVC\14.44.35207\include\vector
; File C:\IAGOS\server\v18\Source\Source\_Common\GuildCombat1to1.cpp
; File C:\Program Files\Microsoft Visual Studio\2022\Professional\VC\Tools\MSVC\14.44.35207\include\vector
; File C:\IAGOS\server\v18\Source\Source\_Common\GuildCombat1to1.cpp
; File C:\Program Files\Microsoft Visual Studio\2022\Professional\VC\Tools\MSVC\14.44.35207\include\vector
; File C:\IAGOS\server\v18\Source\Source\_Common\GuildCombat1to1.cpp
;	COMDAT ??0CGuildCombat1to1@@QAE@AAV?$vector@U__GC1TO1TENDER@CGuildCombat1to1Mng@@V?$allocator@U__GC1TO1TENDER@CGuildCombat1to1Mng@@@std@@@std@@H@Z
_TEXT	SEGMENT
_this$ = -20						; size = 4
$T2 = -20						; size = 4
_nIndex$1$ = -16					; size = 4
__$EHRec$ = -12						; size = 12
_vecTenderGuild$ = 8					; size = 4
_i$1$ = 8						; size = 4
_nStageId$ = 12						; size = 4
??0CGuildCombat1to1@@QAE@AAV?$vector@U__GC1TO1TENDER@CGuildCombat1to1Mng@@V?$allocator@U__GC1TO1TENDER@CGuildCombat1to1Mng@@@std@@@std@@H@Z PROC ; CGuildCombat1to1::CGuildCombat1to1, COMDAT
; _this$ = ecx

; 35   : {

  00000	55		 push	 ebp
  00001	8b ec		 mov	 ebp, esp
  00003	6a ff		 push	 -1
  00005	68 00 00 00 00	 push	 __ehhandler$??0CGuildCombat1to1@@QAE@AAV?$vector@U__GC1TO1TENDER@CGuildCombat1to1Mng@@V?$allocator@U__GC1TO1TENDER@CGuildCombat1to1Mng@@@std@@@std@@H@Z
  0000a	64 a1 00 00 00
	00		 mov	 eax, DWORD PTR fs:0
  00010	50		 push	 eax
  00011	83 ec 08	 sub	 esp, 8
  00014	53		 push	 ebx
  00015	56		 push	 esi
  00016	57		 push	 edi
  00017	a1 00 00 00 00	 mov	 eax, DWORD PTR ___security_cookie
  0001c	33 c5		 xor	 eax, ebp
  0001e	50		 push	 eax
  0001f	8d 45 f4	 lea	 eax, DWORD PTR __$EHRec$[ebp]
  00022	64 a3 00 00 00
	00		 mov	 DWORD PTR fs:0, eax
  00028	8b f9		 mov	 edi, ecx
  0002a	89 7d ec	 mov	 DWORD PTR _this$[ebp], edi
  0002d	8d 5f 04	 lea	 ebx, DWORD PTR [edi+4]
  00030	c7 07 00 00 00
	00		 mov	 DWORD PTR [edi], OFFSET ??_7CGuildCombat1to1@@6B@
; File C:\Program Files\Microsoft Visual Studio\2022\Professional\VC\Tools\MSVC\14.44.35207\include\vector

; 400  :     _CONSTEXPR20 _Vector_val() noexcept : _Myfirst(), _Mylast(), _Myend() {}

  00036	c7 03 00 00 00
	00		 mov	 DWORD PTR [ebx], 0
  0003c	c7 43 04 00 00
	00 00		 mov	 DWORD PTR [ebx+4], 0
  00043	c7 43 08 00 00
	00 00		 mov	 DWORD PTR [ebx+8], 0
; File C:\IAGOS\server\v18\Source\Source\_Common\GuildCombat1to1.cpp

; 35   : {

  0004a	c7 45 fc 00 00
	00 00		 mov	 DWORD PTR __$EHRec$[ebp+8], 0

; 36   : 	ClearTime();

  00051	e8 00 00 00 00	 call	 ?ClearTime@CGuildCombat1to1@@QAEXXZ ; CGuildCombat1to1::ClearTime
; File C:\Program Files\Microsoft Visual Studio\2022\Professional\VC\Tools\MSVC\14.44.35207\include\vector

; 1524 :         if (this == _STD addressof(_Right)) {

  00056	8b 4d 08	 mov	 ecx, DWORD PTR _vecTenderGuild$[ebp]
; File C:\IAGOS\server\v18\Source\Source\_Common\GuildCombat1to1.cpp

; 37   : 	m_nState = GC1TO1WAR_CLOSE;

  00059	c7 47 10 64 00
	00 00		 mov	 DWORD PTR [edi+16], 100	; 00000064H

; 38   : 	m_nProgWarCount = m_nTotalWarCount = 0;

  00060	c7 47 20 00 00
	00 00		 mov	 DWORD PTR [edi+32], 0
  00067	c7 47 1c 00 00
	00 00		 mov	 DWORD PTR [edi+28], 0
; File C:\Program Files\Microsoft Visual Studio\2022\Professional\VC\Tools\MSVC\14.44.35207\include\vector

; 1524 :         if (this == _STD addressof(_Right)) {

  0006e	3b d9		 cmp	 ebx, ecx
  00070	74 21		 je	 SHORT $LN18@CGuildComb

; 1525 :             return *this;
; 1526 :         }
; 1527 : 
; 1528 :         auto& _Al       = _Getal();
; 1529 :         auto& _Right_al = _Right._Getal();
; 1530 :         if constexpr (_Choose_pocca_v<_Alty>) {
; 1531 :             if (_Al != _Right_al) {
; 1532 :                 _Tidy();
; 1533 :                 _Mypair._Myval2._Reload_proxy(_GET_PROXY_ALLOCATOR(_Alty, _Al), _GET_PROXY_ALLOCATOR(_Alty, _Right_al));
; 1534 :             }
; 1535 :         }
; 1536 : 
; 1537 :         _Pocca(_Al, _Right_al);
; 1538 :         auto& _Right_data = _Right._Mypair._Myval2;
; 1539 :         _Assign_counted_range(_Right_data._Myfirst, static_cast<size_type>(_Right_data._Mylast - _Right_data._Myfirst));

  00072	8b 31		 mov	 esi, DWORD PTR [ecx]
  00074	b8 e9 a2 8b 2e	 mov	 eax, 780903145		; 2e8ba2e9H
  00079	8b 49 04	 mov	 ecx, DWORD PTR [ecx+4]
  0007c	2b ce		 sub	 ecx, esi
  0007e	f7 e9		 imul	 ecx
  00080	8b cb		 mov	 ecx, ebx
  00082	c1 fa 03	 sar	 edx, 3
  00085	8b c2		 mov	 eax, edx
  00087	c1 e8 1f	 shr	 eax, 31			; 0000001fH
  0008a	03 c2		 add	 eax, edx
  0008c	50		 push	 eax
  0008d	56		 push	 esi
  0008e	e8 00 00 00 00	 call	 ??$_Assign_counted_range@PAU__GC1TO1TENDER@CGuildCombat1to1Mng@@@?$vector@U__GC1TO1TENDER@CGuildCombat1to1Mng@@V?$allocator@U__GC1TO1TENDER@CGuildCombat1to1Mng@@@std@@@std@@AAEXPAU__GC1TO1TENDER@CGuildCombat1to1Mng@@I@Z ; std::vector<CGuildCombat1to1Mng::__GC1TO1TENDER,std::allocator<CGuildCombat1to1Mng::__GC1TO1TENDER> >::_Assign_counted_range<CGuildCombat1to1Mng::__GC1TO1TENDER *>
$LN18@CGuildComb:

; 1915 :         return static_cast<size_type>(_My_data._Mylast - _My_data._Myfirst);

  00093	8b 33		 mov	 esi, DWORD PTR [ebx]
  00095	b8 e9 a2 8b 2e	 mov	 eax, 780903145		; 2e8ba2e9H
  0009a	8b 4b 04	 mov	 ecx, DWORD PTR [ebx+4]
  0009d	2b ce		 sub	 ecx, esi
; File C:\IAGOS\server\v18\Source\Source\_Common\GuildCombat1to1.cpp

; 42   : 	int nIndex = 0;

  0009f	c7 45 f0 00 00
	00 00		 mov	 DWORD PTR _nIndex$1$[ebp], 0
; File C:\Program Files\Microsoft Visual Studio\2022\Professional\VC\Tools\MSVC\14.44.35207\include\vector

; 1915 :         return static_cast<size_type>(_My_data._Mylast - _My_data._Myfirst);

  000a6	f7 e9		 imul	 ecx
; File C:\IAGOS\server\v18\Source\Source\_Common\GuildCombat1to1.cpp

; 43   : 	for( int i=0; i<(int)( m_vecTenderGuild.size() ); i++ )

  000a8	c7 45 08 00 00
	00 00		 mov	 DWORD PTR _i$1$[ebp], 0
; File C:\Program Files\Microsoft Visual Studio\2022\Professional\VC\Tools\MSVC\14.44.35207\include\vector

; 1915 :         return static_cast<size_type>(_My_data._Mylast - _My_data._Myfirst);

  000af	c1 fa 03	 sar	 edx, 3
  000b2	8b c2		 mov	 eax, edx
  000b4	89 75 ec	 mov	 DWORD PTR $T2[ebp], esi
  000b7	c1 e8 1f	 shr	 eax, 31			; 0000001fH
  000ba	03 c2		 add	 eax, edx
; File C:\IAGOS\server\v18\Source\Source\_Common\GuildCombat1to1.cpp

; 43   : 	for( int i=0; i<(int)( m_vecTenderGuild.size() ); i++ )

  000bc	85 c0		 test	 eax, eax
  000be	7e 73		 jle	 SHORT $LN49@CGuildComb
  000c0	33 db		 xor	 ebx, ebx
  000c2	33 c9		 xor	 ecx, ecx
$LL4@CGuildComb:

; 44   : 	{
; 45   : 		if( m_vecTenderGuild[i].nStageId == nStageId )

  000c4	8b 45 ec	 mov	 eax, DWORD PTR $T2[ebp]
  000c7	8b 55 0c	 mov	 edx, DWORD PTR _nStageId$[ebp]
  000ca	39 54 03 08	 cmp	 DWORD PTR [ebx+eax+8], edx
  000ce	8d 57 04	 lea	 edx, DWORD PTR [edi+4]
  000d1	75 37		 jne	 SHORT $LN2@CGuildComb

; 46   : 		{
; 47   : 			m_nIndex[nIndex] = i;

  000d3	8b 75 f0	 mov	 esi, DWORD PTR _nIndex$1$[ebp]

; 48   : 			m_vecTenderGuild[i].nPosition = nIndex;
; 49   : 			m_vecTenderGuild[i].nNowPlayerLife = g_GuildCombat1to1Mng.m_nPlayerLife;	// »ý¸íĽö ĂĘ±âČ­
; 50   : 			nIndex = 1;

  000d6	c7 45 f0 01 00
	00 00		 mov	 DWORD PTR _nIndex$1$[ebp], 1
  000dd	89 4c b7 24	 mov	 DWORD PTR [edi+esi*4+36], ecx
  000e1	8b 02		 mov	 eax, DWORD PTR [edx]
  000e3	89 74 03 0c	 mov	 DWORD PTR [ebx+eax+12], esi
  000e7	8b 0a		 mov	 ecx, DWORD PTR [edx]
  000e9	a1 2c 00 00 00	 mov	 eax, DWORD PTR ?g_GuildCombat1to1Mng@@3VCGuildCombat1to1Mng@@A+44
  000ee	89 44 0b 18	 mov	 DWORD PTR [ebx+ecx+24], eax
; File C:\Program Files\Microsoft Visual Studio\2022\Professional\VC\Tools\MSVC\14.44.35207\include\vector

; 1914 :         auto& _My_data = _Mypair._Myval2;

  000f2	8b 32		 mov	 esi, DWORD PTR [edx]
; File C:\IAGOS\server\v18\Source\Source\_Common\GuildCombat1to1.cpp

; 53   : 			if( (int)( m_vecTenderGuild[i].vecMemberId.size() ) > m_nTotalWarCount )

  000f4	8b 4d 08	 mov	 ecx, DWORD PTR _i$1$[ebp]
; File C:\Program Files\Microsoft Visual Studio\2022\Professional\VC\Tools\MSVC\14.44.35207\include\vector

; 1915 :         return static_cast<size_type>(_My_data._Mylast - _My_data._Myfirst);

  000f7	8b 44 33 24	 mov	 eax, DWORD PTR [ebx+esi+36]
  000fb	2b 44 33 20	 sub	 eax, DWORD PTR [ebx+esi+32]
  000ff	c1 f8 02	 sar	 eax, 2
; File C:\IAGOS\server\v18\Source\Source\_Common\GuildCombat1to1.cpp

; 53   : 			if( (int)( m_vecTenderGuild[i].vecMemberId.size() ) > m_nTotalWarCount )

  00102	3b 47 20	 cmp	 eax, DWORD PTR [edi+32]
  00105	7e 03		 jle	 SHORT $LN2@CGuildComb

; 54   : 				m_nTotalWarCount = m_vecTenderGuild[i].vecMemberId.size();		

  00107	89 47 20	 mov	 DWORD PTR [edi+32], eax
$LN2@CGuildComb:

; 43   : 	for( int i=0; i<(int)( m_vecTenderGuild.size() ); i++ )

  0010a	41		 inc	 ecx
  0010b	8b c6		 mov	 eax, esi
  0010d	89 4d 08	 mov	 DWORD PTR _i$1$[ebp], ecx
  00110	83 c3 2c	 add	 ebx, 44			; 0000002cH
; File C:\Program Files\Microsoft Visual Studio\2022\Professional\VC\Tools\MSVC\14.44.35207\include\vector

; 1915 :         return static_cast<size_type>(_My_data._Mylast - _My_data._Myfirst);

  00113	8b 4a 04	 mov	 ecx, DWORD PTR [edx+4]
  00116	2b c8		 sub	 ecx, eax
; File C:\IAGOS\server\v18\Source\Source\_Common\GuildCombat1to1.cpp

; 43   : 	for( int i=0; i<(int)( m_vecTenderGuild.size() ); i++ )

  00118	89 45 ec	 mov	 DWORD PTR $T2[ebp], eax
; File C:\Program Files\Microsoft Visual Studio\2022\Professional\VC\Tools\MSVC\14.44.35207\include\vector

; 1915 :         return static_cast<size_type>(_My_data._Mylast - _My_data._Myfirst);

  0011b	b8 e9 a2 8b 2e	 mov	 eax, 780903145		; 2e8ba2e9H
  00120	f7 e9		 imul	 ecx
; File C:\IAGOS\server\v18\Source\Source\_Common\GuildCombat1to1.cpp

; 43   : 	for( int i=0; i<(int)( m_vecTenderGuild.size() ); i++ )

  00122	8b 4d 08	 mov	 ecx, DWORD PTR _i$1$[ebp]
; File C:\Program Files\Microsoft Visual Studio\2022\Professional\VC\Tools\MSVC\14.44.35207\include\vector

; 1915 :         return static_cast<size_type>(_My_data._Mylast - _My_data._Myfirst);

  00125	c1 fa 03	 sar	 edx, 3
  00128	8b c2		 mov	 eax, edx
  0012a	c1 e8 1f	 shr	 eax, 31			; 0000001fH
  0012d	03 c2		 add	 eax, edx
; File C:\IAGOS\server\v18\Source\Source\_Common\GuildCombat1to1.cpp

; 43   : 	for( int i=0; i<(int)( m_vecTenderGuild.size() ); i++ )

  0012f	3b c8		 cmp	 ecx, eax
  00131	7c 91		 jl	 SHORT $LL4@CGuildComb
$LN49@CGuildComb:

; 55   : 		}
; 56   : 	}
; 57   : }

  00133	8b c7		 mov	 eax, edi
  00135	8b 4d f4	 mov	 ecx, DWORD PTR __$EHRec$[ebp]
  00138	64 89 0d 00 00
	00 00		 mov	 DWORD PTR fs:0, ecx
  0013f	59		 pop	 ecx
  00140	5f		 pop	 edi
  00141	5e		 pop	 esi
  00142	5b		 pop	 ebx
  00143	8b e5		 mov	 esp, ebp
  00145	5d		 pop	 ebp
  00146	c2 08 00	 ret	 8
_TEXT	ENDS
;	COMDAT text$x
text$x	SEGMENT
__unwindfunclet$??0CGuildCombat1to1@@QAE@AAV?$vector@U__GC1TO1TENDER@CGuildCombat1to1Mng@@V?$allocator@U__GC1TO1TENDER@CGuildCombat1to1Mng@@@std@@@std@@H@Z$0:
  00000	8b 4d ec	 mov	 ecx, DWORD PTR _this$[ebp]
  00003	83 c1 04	 add	 ecx, 4
  00006	e9 00 00 00 00	 jmp	 ??1?$vector@U__GC1TO1TENDER@CGuildCombat1to1Mng@@V?$allocator@U__GC1TO1TENDER@CGuildCombat1to1Mng@@@std@@@std@@QAE@XZ ; std::vector<CGuildCombat1to1Mng::__GC1TO1TENDER,std::allocator<CGuildCombat1to1Mng::__GC1TO1TENDER> >::~vector<CGuildCombat1to1Mng::__GC1TO1TENDER,std::allocator<CGuildCombat1to1Mng::__GC1TO1TENDER> >
  0000b	cc		 int	 3
  0000c	cc		 int	 3
  0000d	cc		 int	 3
  0000e	cc		 int	 3
  0000f	cc		 int	 3
__ehhandler$??0CGuildCombat1to1@@QAE@AAV?$vector@U__GC1TO1TENDER@CGuildCombat1to1Mng@@V?$allocator@U__GC1TO1TENDER@CGuildCombat1to1Mng@@@std@@@std@@H@Z:
  00010	90		 npad	 1
  00011	90		 npad	 1
  00012	8b 54 24 08	 mov	 edx, DWORD PTR [esp+8]
  00016	8d 42 0c	 lea	 eax, DWORD PTR [edx+12]
  00019	8b 4a e8	 mov	 ecx, DWORD PTR [edx-24]
  0001c	33 c8		 xor	 ecx, eax
  0001e	e8 00 00 00 00	 call	 @__security_check_cookie@4
  00023	b8 00 00 00 00	 mov	 eax, OFFSET __ehfuncinfo$??0CGuildCombat1to1@@QAE@AAV?$vector@U__GC1TO1TENDER@CGuildCombat1to1Mng@@V?$allocator@U__GC1TO1TENDER@CGuildCombat1to1Mng@@@std@@@std@@H@Z
  00028	e9 00 00 00 00	 jmp	 ___CxxFrameHandler3
text$x	ENDS
??0CGuildCombat1to1@@QAE@AAV?$vector@U__GC1TO1TENDER@CGuildCombat1to1Mng@@V?$allocator@U__GC1TO1TENDER@CGuildCombat1to1Mng@@@std@@@std@@H@Z ENDP ; CGuildCombat1to1::CGuildCombat1to1
; Function compile flags: /Ogtp
;	COMDAT ??_GCGuildCombat1to1Mng@@UAEPAXI@Z
_TEXT	SEGMENT
___flags$ = 8						; size = 4
??_GCGuildCombat1to1Mng@@UAEPAXI@Z PROC			; CGuildCombat1to1Mng::`scalar deleting destructor', COMDAT
; _this$ = ecx
  00000	55		 push	 ebp
  00001	8b ec		 mov	 ebp, esp
  00003	56		 push	 esi
  00004	8b f1		 mov	 esi, ecx
  00006	e8 00 00 00 00	 call	 ??1CGuildCombat1to1Mng@@UAE@XZ ; CGuildCombat1to1Mng::~CGuildCombat1to1Mng
  0000b	f6 45 08 01	 test	 BYTE PTR ___flags$[ebp], 1
  0000f	74 0b		 je	 SHORT $LN5@scalar
  00011	6a 64		 push	 100			; 00000064H
  00013	56		 push	 esi
  00014	e8 00 00 00 00	 call	 ??3@YAXPAXI@Z		; operator delete
  00019	83 c4 08	 add	 esp, 8
$LN5@scalar:
  0001c	8b c6		 mov	 eax, esi
  0001e	5e		 pop	 esi
  0001f	5d		 pop	 ebp
  00020	c2 04 00	 ret	 4
??_GCGuildCombat1to1Mng@@UAEPAXI@Z ENDP			; CGuildCombat1to1Mng::`scalar deleting destructor'
_TEXT	ENDS
; Function compile flags: /Ogtp
; File C:\Program Files\Microsoft Visual Studio\2022\Professional\VC\Tools\MSVC\14.44.35207\include\vector
;	COMDAT ?_Xlength@?$vector@U__GC1TO1TENDER@CGuildCombat1to1Mng@@V?$allocator@U__GC1TO1TENDER@CGuildCombat1to1Mng@@@std@@@std@@CAXXZ
_TEXT	SEGMENT
?_Xlength@?$vector@U__GC1TO1TENDER@CGuildCombat1to1Mng@@V?$allocator@U__GC1TO1TENDER@CGuildCombat1to1Mng@@@std@@@std@@CAXXZ PROC ; std::vector<CGuildCombat1to1Mng::__GC1TO1TENDER,std::allocator<CGuildCombat1to1Mng::__GC1TO1TENDER> >::_Xlength, COMDAT

; 2184 :         _Xlength_error("vector too long");

  00000	68 00 00 00 00	 push	 OFFSET ??_C@_0BA@FOIKENOD@vector?5too?5long@
  00005	e8 00 00 00 00	 call	 ?_Xlength_error@std@@YAXPBD@Z ; std::_Xlength_error
$LN3@Xlength:
  0000a	cc		 int	 3
?_Xlength@?$vector@U__GC1TO1TENDER@CGuildCombat1to1Mng@@V?$allocator@U__GC1TO1TENDER@CGuildCombat1to1Mng@@@std@@@std@@CAXXZ ENDP ; std::vector<CGuildCombat1to1Mng::__GC1TO1TENDER,std::allocator<CGuildCombat1to1Mng::__GC1TO1TENDER> >::_Xlength
_TEXT	ENDS
; Function compile flags: /Ogtp
; File C:\Program Files\Microsoft Visual Studio\2022\Professional\VC\Tools\MSVC\14.44.35207\include\vector
; File C:\Program Files\Microsoft Visual Studio\2022\Professional\VC\Tools\MSVC\14.44.35207\include\xmemory
; File C:\Program Files\Microsoft Visual Studio\2022\Professional\VC\Tools\MSVC\14.44.35207\include\vector
; File C:\Program Files\Microsoft Visual Studio\2022\Professional\VC\Tools\MSVC\14.44.35207\include\xmemory
; File C:\Program Files\Microsoft Visual Studio\2022\Professional\VC\Tools\MSVC\14.44.35207\include\vector
; File C:\Program Files\Microsoft Visual Studio\2022\Professional\VC\Tools\MSVC\14.44.35207\include\xmemory
; File C:\Program Files\Microsoft Visual Studio\2022\Professional\VC\Tools\MSVC\14.44.35207\include\vector
; File C:\Program Files\Microsoft Visual Studio\2022\Professional\VC\Tools\MSVC\14.44.35207\include\xmemory
; File C:\Program Files\Microsoft Visual Studio\2022\Professional\VC\Tools\MSVC\14.44.35207\include\vector
; File C:\Program Files\Microsoft Visual Studio\2022\Professional\VC\Tools\MSVC\14.44.35207\include\xmemory
; File C:\Program Files\Microsoft Visual Studio\2022\Professional\VC\Tools\MSVC\14.44.35207\include\vector
; File C:\Program Files\Microsoft Visual Studio\2022\Professional\VC\Tools\MSVC\14.44.35207\include\xmemory
; File C:\Program Files\Microsoft Visual Studio\2022\Professional\VC\Tools\MSVC\14.44.35207\include\vector
;	COMDAT ?_Tidy@?$vector@U__GC1TO1TENDER@CGuildCombat1to1Mng@@V?$allocator@U__GC1TO1TENDER@CGuildCombat1to1Mng@@@std@@@std@@AAEXXZ
_TEXT	SEGMENT
?_Tidy@?$vector@U__GC1TO1TENDER@CGuildCombat1to1Mng@@V?$allocator@U__GC1TO1TENDER@CGuildCombat1to1Mng@@@std@@@std@@AAEXXZ PROC ; std::vector<CGuildCombat1to1Mng::__GC1TO1TENDER,std::allocator<CGuildCombat1to1Mng::__GC1TO1TENDER> >::_Tidy, COMDAT
; _this$ = ecx

; 2081 :     _CONSTEXPR20 void _Tidy() noexcept { // free all storage

  00000	56		 push	 esi
  00001	57		 push	 edi
  00002	8b f9		 mov	 edi, ecx

; 2082 :         auto& _Al         = _Getal();
; 2083 :         auto& _My_data    = _Mypair._Myval2;
; 2084 :         pointer& _Myfirst = _My_data._Myfirst;
; 2085 :         pointer& _Mylast  = _My_data._Mylast;
; 2086 :         pointer& _Myend   = _My_data._Myend;
; 2087 : 
; 2088 :         _My_data._Orphan_all();
; 2089 : 
; 2090 :         if (_Myfirst) { // destroy and deallocate old array

  00004	8b 37		 mov	 esi, DWORD PTR [edi]
  00006	85 f6		 test	 esi, esi
  00008	74 6b		 je	 SHORT $LN2@Tidy

; 2091 :             _STD _Destroy_range(_Myfirst, _Mylast, _Al);

  0000a	53		 push	 ebx
  0000b	8b 5f 04	 mov	 ebx, DWORD PTR [edi+4]
; File C:\Program Files\Microsoft Visual Studio\2022\Professional\VC\Tools\MSVC\14.44.35207\include\xmemory

; 1102 :         for (; _First != _Last; ++_First) {

  0000e	3b f3		 cmp	 esi, ebx
  00010	74 0f		 je	 SHORT $LN7@Tidy
$LL8@Tidy:
; File C:\Program Files\Microsoft Visual Studio\2022\Professional\VC\Tools\MSVC\14.44.35207\include\vector

; 830  :         _Tidy();

  00012	8d 4e 20	 lea	 ecx, DWORD PTR [esi+32]
  00015	e8 00 00 00 00	 call	 ?_Tidy@?$vector@KV?$allocator@K@std@@@std@@AAEXXZ ; std::vector<unsigned long,std::allocator<unsigned long> >::_Tidy
; File C:\Program Files\Microsoft Visual Studio\2022\Professional\VC\Tools\MSVC\14.44.35207\include\xmemory

; 1102 :         for (; _First != _Last; ++_First) {

  0001a	83 c6 2c	 add	 esi, 44			; 0000002cH
  0001d	3b f3		 cmp	 esi, ebx
  0001f	75 f1		 jne	 SHORT $LL8@Tidy
$LN7@Tidy:
; File C:\Program Files\Microsoft Visual Studio\2022\Professional\VC\Tools\MSVC\14.44.35207\include\vector

; 2093 :             _Al.deallocate(_Myfirst, static_cast<size_type>(_Myend - _Myfirst));

  00021	8b 4f 08	 mov	 ecx, DWORD PTR [edi+8]
  00024	b8 e9 a2 8b 2e	 mov	 eax, 780903145		; 2e8ba2e9H
  00029	8b 37		 mov	 esi, DWORD PTR [edi]
  0002b	2b ce		 sub	 ecx, esi
  0002d	f7 e9		 imul	 ecx
; File C:\Program Files\Microsoft Visual Studio\2022\Professional\VC\Tools\MSVC\14.44.35207\include\xmemory

; 985  :         _STD _Deallocate<_New_alignof<_Ty>>(_Ptr, sizeof(_Ty) * _Count);

  0002f	5b		 pop	 ebx
; File C:\Program Files\Microsoft Visual Studio\2022\Professional\VC\Tools\MSVC\14.44.35207\include\vector

; 2093 :             _Al.deallocate(_Myfirst, static_cast<size_type>(_Myend - _Myfirst));

  00030	c1 fa 03	 sar	 edx, 3
  00033	8b c2		 mov	 eax, edx
  00035	c1 e8 1f	 shr	 eax, 31			; 0000001fH
  00038	03 c2		 add	 eax, edx
; File C:\Program Files\Microsoft Visual Studio\2022\Professional\VC\Tools\MSVC\14.44.35207\include\xmemory

; 985  :         _STD _Deallocate<_New_alignof<_Ty>>(_Ptr, sizeof(_Ty) * _Count);

  0003a	6b c8 2c	 imul	 ecx, eax, 44

; 284  :         if (_Bytes >= _Big_allocation_threshold) {

  0003d	81 f9 00 10 00
	00		 cmp	 ecx, 4096		; 00001000H
  00043	72 12		 jb	 SHORT $LN35@Tidy

; 205  :     const uintptr_t _Ptr_container   = _Ptr_user[-1];

  00045	8b 56 fc	 mov	 edx, DWORD PTR [esi-4]
  00048	83 c1 23	 add	 ecx, 35			; 00000023H

; 206  : 
; 207  :     // If the following asserts, it likely means that we are performing
; 208  :     // an aligned delete on memory coming from an unaligned allocation.
; 209  :     _STL_ASSERT(_Ptr_user[-2] == _Big_allocation_sentinel, "invalid argument");
; 210  : 
; 211  :     // Extra paranoia on aligned allocation/deallocation; ensure _Ptr_container is
; 212  :     // in range [_Min_back_shift, _Non_user_size]
; 213  : #ifdef _DEBUG
; 214  :     constexpr uintptr_t _Min_back_shift = 2 * sizeof(void*);
; 215  : #else // ^^^ defined(_DEBUG) / !defined(_DEBUG) vvv
; 216  :     constexpr uintptr_t _Min_back_shift = sizeof(void*);
; 217  : #endif // ^^^ !defined(_DEBUG) ^^^
; 218  :     const uintptr_t _Back_shift = reinterpret_cast<uintptr_t>(_Ptr) - _Ptr_container;

  0004b	2b f2		 sub	 esi, edx

; 219  :     _STL_VERIFY(_Back_shift >= _Min_back_shift && _Back_shift <= _Non_user_size, "invalid argument");

  0004d	8d 46 fc	 lea	 eax, DWORD PTR [esi-4]
  00050	83 f8 1f	 cmp	 eax, 31			; 0000001fH
  00053	77 23		 ja	 SHORT $LN34@Tidy

; 220  :     _Ptr = reinterpret_cast<void*>(_Ptr_container);

  00055	8b f2		 mov	 esi, edx
$LN35@Tidy:

; 289  :         ::operator delete(_Ptr, _Bytes);

  00057	51		 push	 ecx
  00058	56		 push	 esi
  00059	e8 00 00 00 00	 call	 ??3@YAXPAXI@Z		; operator delete
; File C:\Program Files\Microsoft Visual Studio\2022\Professional\VC\Tools\MSVC\14.44.35207\include\vector

; 2095 :             _Myfirst = nullptr;

  0005e	c7 07 00 00 00
	00		 mov	 DWORD PTR [edi], 0
; File C:\Program Files\Microsoft Visual Studio\2022\Professional\VC\Tools\MSVC\14.44.35207\include\xmemory

; 289  :         ::operator delete(_Ptr, _Bytes);

  00064	83 c4 08	 add	 esp, 8
; File C:\Program Files\Microsoft Visual Studio\2022\Professional\VC\Tools\MSVC\14.44.35207\include\vector

; 2096 :             _Mylast  = nullptr;

  00067	c7 47 04 00 00
	00 00		 mov	 DWORD PTR [edi+4], 0

; 2097 :             _Myend   = nullptr;

  0006e	c7 47 08 00 00
	00 00		 mov	 DWORD PTR [edi+8], 0
$LN2@Tidy:

; 2099 :     }

  00075	5f		 pop	 edi
  00076	5e		 pop	 esi
  00077	c3		 ret	 0
$LN34@Tidy:
; File C:\Program Files\Microsoft Visual Studio\2022\Professional\VC\Tools\MSVC\14.44.35207\include\xmemory

; 219  :     _STL_VERIFY(_Back_shift >= _Min_back_shift && _Back_shift <= _Non_user_size, "invalid argument");

  00078	6a 00		 push	 0
  0007a	6a 00		 push	 0
  0007c	6a 00		 push	 0
  0007e	6a 00		 push	 0
  00080	6a 00		 push	 0
  00082	e8 00 00 00 00	 call	 __invoke_watson
$LN47@Tidy:
  00087	cc		 int	 3
?_Tidy@?$vector@U__GC1TO1TENDER@CGuildCombat1to1Mng@@V?$allocator@U__GC1TO1TENDER@CGuildCombat1to1Mng@@@std@@@std@@AAEXXZ ENDP ; std::vector<CGuildCombat1to1Mng::__GC1TO1TENDER,std::allocator<CGuildCombat1to1Mng::__GC1TO1TENDER> >::_Tidy
_TEXT	ENDS
; Function compile flags: /Ogtp
; File C:\Program Files\Microsoft Visual Studio\2022\Professional\VC\Tools\MSVC\14.44.35207\include\vector
; File C:\Program Files\Microsoft Visual Studio\2022\Professional\VC\Tools\MSVC\14.44.35207\include\xmemory
; File C:\Program Files\Microsoft Visual Studio\2022\Professional\VC\Tools\MSVC\14.44.35207\include\vector
; File C:\Program Files\Microsoft Visual Studio\2022\Professional\VC\Tools\MSVC\14.44.35207\include\xmemory
; File C:\Program Files\Microsoft Visual Studio\2022\Professional\VC\Tools\MSVC\14.44.35207\include\vector
; File C:\Program Files\Microsoft Visual Studio\2022\Professional\VC\Tools\MSVC\14.44.35207\include\xmemory
; File C:\Program Files\Microsoft Visual Studio\2022\Professional\VC\Tools\MSVC\14.44.35207\include\vector
; File C:\Program Files\Microsoft Visual Studio\2022\Professional\VC\Tools\MSVC\14.44.35207\include\xmemory
; File C:\Program Files\Microsoft Visual Studio\2022\Professional\VC\Tools\MSVC\14.44.35207\include\vector
; File C:\Program Files\Microsoft Visual Studio\2022\Professional\VC\Tools\MSVC\14.44.35207\include\xmemory
; File C:\Program Files\Microsoft Visual Studio\2022\Professional\VC\Tools\MSVC\14.44.35207\include\vector
;	COMDAT ?_Buy_raw@?$vector@U__GC1TO1TENDER@CGuildCombat1to1Mng@@V?$allocator@U__GC1TO1TENDER@CGuildCombat1to1Mng@@@std@@@std@@AAEXI@Z
_TEXT	SEGMENT
__Newcapacity$ = 8					; size = 4
?_Buy_raw@?$vector@U__GC1TO1TENDER@CGuildCombat1to1Mng@@V?$allocator@U__GC1TO1TENDER@CGuildCombat1to1Mng@@@std@@@std@@AAEXI@Z PROC ; std::vector<CGuildCombat1to1Mng::__GC1TO1TENDER,std::allocator<CGuildCombat1to1Mng::__GC1TO1TENDER> >::_Buy_raw, COMDAT
; _this$ = ecx

; 2024 :     _CONSTEXPR20 void _Buy_raw(size_type _Newcapacity) {

  00000	55		 push	 ebp
  00001	8b ec		 mov	 ebp, esp
; File C:\Program Files\Microsoft Visual Studio\2022\Professional\VC\Tools\MSVC\14.44.35207\include\xmemory

; 117  :         if (_Count > _Max_possible) {

  00003	8b 45 08	 mov	 eax, DWORD PTR __Newcapacity$[ebp]
; File C:\Program Files\Microsoft Visual Studio\2022\Professional\VC\Tools\MSVC\14.44.35207\include\vector

; 2024 :     _CONSTEXPR20 void _Buy_raw(size_type _Newcapacity) {

  00006	57		 push	 edi
  00007	8b f9		 mov	 edi, ecx
; File C:\Program Files\Microsoft Visual Studio\2022\Professional\VC\Tools\MSVC\14.44.35207\include\xmemory

; 117  :         if (_Count > _Max_possible) {

  00009	3d 5d 74 d1 05	 cmp	 eax, 97612893		; 05d1745dH
  0000e	77 53		 ja	 SHORT $LN25@Buy_raw
  00010	56		 push	 esi

; 119  :         }
; 120  :     }
; 121  : 
; 122  :     return _Count * _Ty_size;

  00011	6b f0 2c	 imul	 esi, eax, 44

; 227  :     if (_Bytes == 0) {

  00014	85 f6		 test	 esi, esi
  00016	75 12		 jne	 SHORT $LN12@Buy_raw

; 228  :         return nullptr;

  00018	33 c0		 xor	 eax, eax
; File C:\Program Files\Microsoft Visual Studio\2022\Professional\VC\Tools\MSVC\14.44.35207\include\vector

; 2035 :         _Myfirst              = _Newvec;

  0001a	89 07		 mov	 DWORD PTR [edi], eax

; 2036 :         _Mylast               = _Newvec;

  0001c	89 47 04	 mov	 DWORD PTR [edi+4], eax

; 2037 :         _Myend                = _Newvec + _Newcapacity;

  0001f	8b c6		 mov	 eax, esi
  00021	89 47 08	 mov	 DWORD PTR [edi+8], eax
  00024	5e		 pop	 esi

; 2038 :     }

  00025	5f		 pop	 edi
  00026	5d		 pop	 ebp
  00027	c2 04 00	 ret	 4
$LN12@Buy_raw:
; File C:\Program Files\Microsoft Visual Studio\2022\Professional\VC\Tools\MSVC\14.44.35207\include\xmemory

; 251  :         if (_Bytes >= _Big_allocation_threshold) {

  0002a	56		 push	 esi
  0002b	81 fe 00 10 00
	00		 cmp	 esi, 4096		; 00001000H
  00031	72 18		 jb	 SHORT $LN13@Buy_raw

; 252  :             // boost the alignment of big allocations to help autovectorization
; 253  :             return _Allocate_manually_vector_aligned<_Traits>(_Bytes);

  00033	e8 00 00 00 00	 call	 ??$_Allocate_manually_vector_aligned@U_Default_allocate_traits@std@@@std@@YAPAXI@Z ; std::_Allocate_manually_vector_aligned<std::_Default_allocate_traits>
; File C:\Program Files\Microsoft Visual Studio\2022\Professional\VC\Tools\MSVC\14.44.35207\include\vector

; 2035 :         _Myfirst              = _Newvec;

  00038	83 c4 04	 add	 esp, 4
  0003b	89 07		 mov	 DWORD PTR [edi], eax

; 2036 :         _Mylast               = _Newvec;

  0003d	89 47 04	 mov	 DWORD PTR [edi+4], eax

; 2037 :         _Myend                = _Newvec + _Newcapacity;

  00040	03 c6		 add	 eax, esi
  00042	89 47 08	 mov	 DWORD PTR [edi+8], eax
  00045	5e		 pop	 esi

; 2038 :     }

  00046	5f		 pop	 edi
  00047	5d		 pop	 ebp
  00048	c2 04 00	 ret	 4
$LN13@Buy_raw:
; File C:\Program Files\Microsoft Visual Studio\2022\Professional\VC\Tools\MSVC\14.44.35207\include\xmemory

; 136  :         return ::operator new(_Bytes);

  0004b	e8 00 00 00 00	 call	 ??2@YAPAXI@Z		; operator new
; File C:\Program Files\Microsoft Visual Studio\2022\Professional\VC\Tools\MSVC\14.44.35207\include\vector

; 2035 :         _Myfirst              = _Newvec;

  00050	83 c4 04	 add	 esp, 4
  00053	89 07		 mov	 DWORD PTR [edi], eax

; 2036 :         _Mylast               = _Newvec;

  00055	89 47 04	 mov	 DWORD PTR [edi+4], eax

; 2037 :         _Myend                = _Newvec + _Newcapacity;

  00058	03 c6		 add	 eax, esi
  0005a	89 47 08	 mov	 DWORD PTR [edi+8], eax
  0005d	5e		 pop	 esi

; 2038 :     }

  0005e	5f		 pop	 edi
  0005f	5d		 pop	 ebp
  00060	c2 04 00	 ret	 4
$LN25@Buy_raw:
; File C:\Program Files\Microsoft Visual Studio\2022\Professional\VC\Tools\MSVC\14.44.35207\include\xmemory

; 118  :             _Throw_bad_array_new_length(); // multiply overflow

  00063	e8 00 00 00 00	 call	 ?_Throw_bad_array_new_length@std@@YAXXZ ; std::_Throw_bad_array_new_length
$LN22@Buy_raw:
  00068	cc		 int	 3
?_Buy_raw@?$vector@U__GC1TO1TENDER@CGuildCombat1to1Mng@@V?$allocator@U__GC1TO1TENDER@CGuildCombat1to1Mng@@@std@@@std@@AAEXI@Z ENDP ; std::vector<CGuildCombat1to1Mng::__GC1TO1TENDER,std::allocator<CGuildCombat1to1Mng::__GC1TO1TENDER> >::_Buy_raw
_TEXT	ENDS
; Function compile flags: /Ogtp
; File C:\Program Files\Microsoft Visual Studio\2022\Professional\VC\Tools\MSVC\14.44.35207\include\vector
; File C:\Program Files\Microsoft Visual Studio\2022\Professional\VC\Tools\MSVC\14.44.35207\include\xutility
; File C:\Program Files\Microsoft Visual Studio\2022\Professional\VC\Tools\MSVC\14.44.35207\include\vector
; File C:\Program Files\Microsoft Visual Studio\2022\Professional\VC\Tools\MSVC\14.44.35207\include\xutility
; File C:\Program Files\Microsoft Visual Studio\2022\Professional\VC\Tools\MSVC\14.44.35207\include\vector
;	COMDAT ?erase@?$vector@U__GC1TO1TENDER@CGuildCombat1to1Mng@@V?$allocator@U__GC1TO1TENDER@CGuildCombat1to1Mng@@@std@@@std@@QAE?AV?$_Vector_iterator@V?$_Vector_val@U?$_Simple_types@U__GC1TO1TENDER@CGuildCombat1to1Mng@@@std@@@std@@@2@V?$_Vector_const_iterator@V?$_Vector_val@U?$_Simple_types@U__GC1TO1TENDER@CGuildCombat1to1Mng@@@std@@@std@@@2@@Z
_TEXT	SEGMENT
__Whereptr$1$ = -16					; size = 4
_this$1$ = -12						; size = 4
__Last$1$ = -8						; size = 4
__First$1$ = -4						; size = 4
___$ReturnUdt$ = 8					; size = 4
__Where$ = 12						; size = 4
?erase@?$vector@U__GC1TO1TENDER@CGuildCombat1to1Mng@@V?$allocator@U__GC1TO1TENDER@CGuildCombat1to1Mng@@@std@@@std@@QAE?AV?$_Vector_iterator@V?$_Vector_val@U?$_Simple_types@U__GC1TO1TENDER@CGuildCombat1to1Mng@@@std@@@std@@@2@V?$_Vector_const_iterator@V?$_Vector_val@U?$_Simple_types@U__GC1TO1TENDER@CGuildCombat1to1Mng@@@std@@@std@@@2@@Z PROC ; std::vector<CGuildCombat1to1Mng::__GC1TO1TENDER,std::allocator<CGuildCombat1to1Mng::__GC1TO1TENDER> >::erase, COMDAT
; _this$ = ecx

; 1763 :         noexcept(is_nothrow_move_assignable_v<value_type>) /* strengthened */ {

  00000	55		 push	 ebp
  00001	8b ec		 mov	 ebp, esp
  00003	83 ec 10	 sub	 esp, 16			; 00000010H

; 1764 :         const pointer _Whereptr = _Where._Ptr;

  00006	8b 55 0c	 mov	 edx, DWORD PTR __Where$[ebp]
  00009	53		 push	 ebx
  0000a	8b d9		 mov	 ebx, ecx
  0000c	89 55 f0	 mov	 DWORD PTR __Whereptr$1$[ebp], edx
  0000f	89 5d f4	 mov	 DWORD PTR _this$1$[ebp], ebx

; 1767 : 
; 1768 : #if _ITERATOR_DEBUG_LEVEL == 2
; 1769 :         _STL_VERIFY(
; 1770 :             _Where._Getcont() == _STD addressof(_My_data) && _Whereptr >= _My_data._Myfirst && _Mylast > _Whereptr,
; 1771 :             "vector erase iterator outside range");
; 1772 : #endif // _ITERATOR_DEBUG_LEVEL == 2
; 1773 : 
; 1774 :         _Orphan_range(_Whereptr, _Mylast);
; 1775 :         _STD _Move_unchecked(_Whereptr + 1, _Mylast, _Whereptr);

  00012	8d 42 2c	 lea	 eax, DWORD PTR [edx+44]
  00015	89 45 fc	 mov	 DWORD PTR __First$1$[ebp], eax
  00018	8b 4b 04	 mov	 ecx, DWORD PTR [ebx+4]
  0001b	89 4d f8	 mov	 DWORD PTR __Last$1$[ebp], ecx
; File C:\Program Files\Microsoft Visual Studio\2022\Professional\VC\Tools\MSVC\14.44.35207\include\xutility

; 5151 :         for (; _First != _Last; ++_Dest, (void) ++_First) {

  0001e	3b c1		 cmp	 eax, ecx
  00020	0f 84 84 00 00
	00		 je	 $LN6@erase
; File C:\Program Files\Microsoft Visual Studio\2022\Professional\VC\Tools\MSVC\14.44.35207\include\vector

; 1766 :         pointer& _Mylast        = _My_data._Mylast;

  00026	56		 push	 esi
  00027	57		 push	 edi
  00028	8d 70 28	 lea	 esi, DWORD PTR [eax+40]
  0002b	8d 5a 28	 lea	 ebx, DWORD PTR [edx+40]
  0002e	66 90		 npad	 2
$LL7@erase:
  00030	8b 00		 mov	 eax, DWORD PTR [eax]
  00032	89 43 d8	 mov	 DWORD PTR [ebx-40], eax
  00035	8b 46 dc	 mov	 eax, DWORD PTR [esi-36]
  00038	89 43 dc	 mov	 DWORD PTR [ebx-36], eax
  0003b	8b 46 e0	 mov	 eax, DWORD PTR [esi-32]
  0003e	89 43 e0	 mov	 DWORD PTR [ebx-32], eax
  00041	8b 46 e4	 mov	 eax, DWORD PTR [esi-28]
  00044	89 43 e4	 mov	 DWORD PTR [ebx-28], eax
  00047	8b 46 e8	 mov	 eax, DWORD PTR [esi-24]
  0004a	89 43 e8	 mov	 DWORD PTR [ebx-24], eax
  0004d	8b 46 ec	 mov	 eax, DWORD PTR [esi-20]
  00050	89 43 ec	 mov	 DWORD PTR [ebx-20], eax
  00053	8b 46 f0	 mov	 eax, DWORD PTR [esi-16]
  00056	89 43 f0	 mov	 DWORD PTR [ebx-16], eax
  00059	8b 46 f4	 mov	 eax, DWORD PTR [esi-12]
  0005c	89 43 f4	 mov	 DWORD PTR [ebx-12], eax

; 800  :         if (this == _STD addressof(_Right)) {

  0005f	3b de		 cmp	 ebx, esi
  00061	74 2f		 je	 SHORT $LN5@erase

; 801  :             return *this;
; 802  :         }
; 803  : 
; 804  :         _Alty& _Al                = _Getal();
; 805  :         _Alty& _Right_al          = _Right._Getal();
; 806  :         constexpr auto _Pocma_val = _Choose_pocma_v<_Alty>;
; 807  :         if constexpr (_Pocma_val == _Pocma_values::_No_propagate_allocators) {
; 808  :             if (_Al != _Right_al) {
; 809  :                 _Move_assign_unequal_alloc(_Right);
; 810  :                 return *this;
; 811  :             }
; 812  :         }
; 813  : 
; 814  :         _Tidy();

  00063	8d 4b f8	 lea	 ecx, DWORD PTR [ebx-8]
  00066	e8 00 00 00 00	 call	 ?_Tidy@?$vector@KV?$allocator@K@std@@@std@@AAEXXZ ; std::vector<unsigned long,std::allocator<unsigned long> >::_Tidy

; 427  :         _Myfirst = _Right._Myfirst;

  0006b	8b 46 f8	 mov	 eax, DWORD PTR [esi-8]
  0006e	8b 4d f8	 mov	 ecx, DWORD PTR __Last$1$[ebp]
  00071	89 43 f8	 mov	 DWORD PTR [ebx-8], eax

; 428  :         _Mylast  = _Right._Mylast;

  00074	8b 46 fc	 mov	 eax, DWORD PTR [esi-4]
  00077	89 43 fc	 mov	 DWORD PTR [ebx-4], eax

; 429  :         _Myend   = _Right._Myend;

  0007a	8b 06		 mov	 eax, DWORD PTR [esi]
  0007c	89 03		 mov	 DWORD PTR [ebx], eax

; 430  : 
; 431  :         _Right._Myfirst = nullptr;

  0007e	c7 46 f8 00 00
	00 00		 mov	 DWORD PTR [esi-8], 0

; 432  :         _Right._Mylast  = nullptr;

  00085	c7 46 fc 00 00
	00 00		 mov	 DWORD PTR [esi-4], 0

; 433  :         _Right._Myend   = nullptr;

  0008c	c7 06 00 00 00
	00		 mov	 DWORD PTR [esi], 0
$LN5@erase:
; File C:\Program Files\Microsoft Visual Studio\2022\Professional\VC\Tools\MSVC\14.44.35207\include\xutility

; 5151 :         for (; _First != _Last; ++_Dest, (void) ++_First) {

  00092	8b 45 fc	 mov	 eax, DWORD PTR __First$1$[ebp]
  00095	83 c3 2c	 add	 ebx, 44			; 0000002cH
  00098	83 c0 2c	 add	 eax, 44			; 0000002cH
  0009b	83 c6 2c	 add	 esi, 44			; 0000002cH
  0009e	89 45 fc	 mov	 DWORD PTR __First$1$[ebp], eax
  000a1	3b c1		 cmp	 eax, ecx
  000a3	75 8b		 jne	 SHORT $LL7@erase
  000a5	8b 5d f4	 mov	 ebx, DWORD PTR _this$1$[ebp]
  000a8	5f		 pop	 edi
  000a9	5e		 pop	 esi
$LN6@erase:
; File C:\Program Files\Microsoft Visual Studio\2022\Professional\VC\Tools\MSVC\14.44.35207\include\vector

; 1776 :         _Alty_traits::destroy(_Getal(), _Unfancy(_Mylast - 1));

  000aa	8b 4b 04	 mov	 ecx, DWORD PTR [ebx+4]
  000ad	83 e9 0c	 sub	 ecx, 12			; 0000000cH

; 830  :         _Tidy();

  000b0	e8 00 00 00 00	 call	 ?_Tidy@?$vector@KV?$allocator@K@std@@@std@@AAEXXZ ; std::vector<unsigned long,std::allocator<unsigned long> >::_Tidy

; 46   :     _CONSTEXPR20 _Vector_const_iterator(_Tptr _Parg, const _Container_base* _Pvector) noexcept : _Ptr(_Parg) {

  000b5	8b 45 08	 mov	 eax, DWORD PTR ___$ReturnUdt$[ebp]

; 1777 :         _ASAN_VECTOR_MODIFY(-1);
; 1778 :         --_Mylast;

  000b8	83 43 04 d4	 add	 DWORD PTR [ebx+4], -44	; ffffffd4H

; 46   :     _CONSTEXPR20 _Vector_const_iterator(_Tptr _Parg, const _Container_base* _Pvector) noexcept : _Ptr(_Parg) {

  000bc	8b 4d f0	 mov	 ecx, DWORD PTR __Whereptr$1$[ebp]

; 1779 :         return iterator(_Whereptr, _STD addressof(_My_data));

  000bf	5b		 pop	 ebx

; 46   :     _CONSTEXPR20 _Vector_const_iterator(_Tptr _Parg, const _Container_base* _Pvector) noexcept : _Ptr(_Parg) {

  000c0	89 08		 mov	 DWORD PTR [eax], ecx

; 1780 :     }

  000c2	8b e5		 mov	 esp, ebp
  000c4	5d		 pop	 ebp
  000c5	c2 08 00	 ret	 8
?erase@?$vector@U__GC1TO1TENDER@CGuildCombat1to1Mng@@V?$allocator@U__GC1TO1TENDER@CGuildCombat1to1Mng@@@std@@@std@@QAE?AV?$_Vector_iterator@V?$_Vector_val@U?$_Simple_types@U__GC1TO1TENDER@CGuildCombat1to1Mng@@@std@@@std@@@2@V?$_Vector_const_iterator@V?$_Vector_val@U?$_Simple_types@U__GC1TO1TENDER@CGuildCombat1to1Mng@@@std@@@std@@@2@@Z ENDP ; std::vector<CGuildCombat1to1Mng::__GC1TO1TENDER,std::allocator<CGuildCombat1to1Mng::__GC1TO1TENDER> >::erase
_TEXT	ENDS
; Function compile flags: /Ogtp
; File C:\Program Files\Microsoft Visual Studio\2022\Professional\VC\Tools\MSVC\14.44.35207\include\vector
; File C:\Program Files\Microsoft Visual Studio\2022\Professional\VC\Tools\MSVC\14.44.35207\include\xmemory
; File C:\Program Files\Microsoft Visual Studio\2022\Professional\VC\Tools\MSVC\14.44.35207\include\vector
;	COMDAT ?push_back@?$vector@U__GC1TO1TENDER@CGuildCombat1to1Mng@@V?$allocator@U__GC1TO1TENDER@CGuildCombat1to1Mng@@@std@@@std@@QAEXABU__GC1TO1TENDER@CGuildCombat1to1Mng@@@Z
_TEXT	SEGMENT
__Val$ = 8						; size = 4
?push_back@?$vector@U__GC1TO1TENDER@CGuildCombat1to1Mng@@V?$allocator@U__GC1TO1TENDER@CGuildCombat1to1Mng@@@std@@@std@@QAEXABU__GC1TO1TENDER@CGuildCombat1to1Mng@@@Z PROC ; std::vector<CGuildCombat1to1Mng::__GC1TO1TENDER,std::allocator<CGuildCombat1to1Mng::__GC1TO1TENDER> >::push_back, COMDAT
; _this$ = ecx

; 932  :     _CONSTEXPR20 void push_back(const _Ty& _Val) { // insert element at end, provide strong guarantee

  00000	55		 push	 ebp
  00001	8b ec		 mov	 ebp, esp
  00003	56		 push	 esi

; 844  :         if (_Mylast != _My_data._Myend) {

  00004	ff 75 08	 push	 DWORD PTR __Val$[ebp]

; 932  :     _CONSTEXPR20 void push_back(const _Ty& _Val) { // insert element at end, provide strong guarantee

  00007	8b f1		 mov	 esi, ecx

; 844  :         if (_Mylast != _My_data._Myend) {

  00009	8b 46 04	 mov	 eax, DWORD PTR [esi+4]
  0000c	3b 46 08	 cmp	 eax, DWORD PTR [esi+8]
  0000f	74 10		 je	 SHORT $LN4@push_back
; File C:\Program Files\Microsoft Visual Studio\2022\Professional\VC\Tools\MSVC\14.44.35207\include\xmemory

; 732  :         ::new (const_cast<void*>(static_cast<const volatile void*>(_Ptr))) _Objty(_STD forward<_Types>(_Args)...);

  00011	8b c8		 mov	 ecx, eax
  00013	e8 00 00 00 00	 call	 ??0__GC1TO1TENDER@CGuildCombat1to1Mng@@QAE@ABU01@@Z
; File C:\Program Files\Microsoft Visual Studio\2022\Professional\VC\Tools\MSVC\14.44.35207\include\vector

; 869  :         ++_Mylast;

  00018	83 46 04 2c	 add	 DWORD PTR [esi+4], 44	; 0000002cH
  0001c	5e		 pop	 esi

; 933  :         _Emplace_one_at_back(_Val);
; 934  :     }

  0001d	5d		 pop	 ebp
  0001e	c2 04 00	 ret	 4
$LN4@push_back:

; 848  :         return *_Emplace_reallocate(_Mylast, _STD forward<_Valty>(_Val)...);

  00021	50		 push	 eax
  00022	e8 00 00 00 00	 call	 ??$_Emplace_reallocate@ABU__GC1TO1TENDER@CGuildCombat1to1Mng@@@?$vector@U__GC1TO1TENDER@CGuildCombat1to1Mng@@V?$allocator@U__GC1TO1TENDER@CGuildCombat1to1Mng@@@std@@@std@@AAEPAU__GC1TO1TENDER@CGuildCombat1to1Mng@@QAU23@ABU23@@Z ; std::vector<CGuildCombat1to1Mng::__GC1TO1TENDER,std::allocator<CGuildCombat1to1Mng::__GC1TO1TENDER> >::_Emplace_reallocate<CGuildCombat1to1Mng::__GC1TO1TENDER const &>
  00027	5e		 pop	 esi

; 933  :         _Emplace_one_at_back(_Val);
; 934  :     }

  00028	5d		 pop	 ebp
  00029	c2 04 00	 ret	 4
?push_back@?$vector@U__GC1TO1TENDER@CGuildCombat1to1Mng@@V?$allocator@U__GC1TO1TENDER@CGuildCombat1to1Mng@@@std@@@std@@QAEXABU__GC1TO1TENDER@CGuildCombat1to1Mng@@@Z ENDP ; std::vector<CGuildCombat1to1Mng::__GC1TO1TENDER,std::allocator<CGuildCombat1to1Mng::__GC1TO1TENDER> >::push_back
_TEXT	ENDS
; Function compile flags: /Ogtp
; File C:\Program Files\Microsoft Visual Studio\2022\Professional\VC\Tools\MSVC\14.44.35207\include\vector
;	COMDAT ??1?$vector@U__GC1TO1TENDER@CGuildCombat1to1Mng@@V?$allocator@U__GC1TO1TENDER@CGuildCombat1to1Mng@@@std@@@std@@QAE@XZ
_TEXT	SEGMENT
??1?$vector@U__GC1TO1TENDER@CGuildCombat1to1Mng@@V?$allocator@U__GC1TO1TENDER@CGuildCombat1to1Mng@@@std@@@std@@QAE@XZ PROC ; std::vector<CGuildCombat1to1Mng::__GC1TO1TENDER,std::allocator<CGuildCombat1to1Mng::__GC1TO1TENDER> >::~vector<CGuildCombat1to1Mng::__GC1TO1TENDER,std::allocator<CGuildCombat1to1Mng::__GC1TO1TENDER> >, COMDAT
; _this$ = ecx

; 830  :         _Tidy();

  00000	e9 00 00 00 00	 jmp	 ?_Tidy@?$vector@U__GC1TO1TENDER@CGuildCombat1to1Mng@@V?$allocator@U__GC1TO1TENDER@CGuildCombat1to1Mng@@@std@@@std@@AAEXXZ ; std::vector<CGuildCombat1to1Mng::__GC1TO1TENDER,std::allocator<CGuildCombat1to1Mng::__GC1TO1TENDER> >::_Tidy
??1?$vector@U__GC1TO1TENDER@CGuildCombat1to1Mng@@V?$allocator@U__GC1TO1TENDER@CGuildCombat1to1Mng@@@std@@@std@@QAE@XZ ENDP ; std::vector<CGuildCombat1to1Mng::__GC1TO1TENDER,std::allocator<CGuildCombat1to1Mng::__GC1TO1TENDER> >::~vector<CGuildCombat1to1Mng::__GC1TO1TENDER,std::allocator<CGuildCombat1to1Mng::__GC1TO1TENDER> >
_TEXT	ENDS
; Function compile flags: /Ogtp
; File C:\Program Files\Microsoft Visual Studio\2022\Professional\VC\Tools\MSVC\14.44.35207\include\xmemory
;	COMDAT ?deallocate@?$allocator@U__GC1TO1TENDER@CGuildCombat1to1Mng@@@std@@QAEXQAU__GC1TO1TENDER@CGuildCombat1to1Mng@@I@Z
_TEXT	SEGMENT
__Ptr$ = 8						; size = 4
__Count$ = 12						; size = 4
?deallocate@?$allocator@U__GC1TO1TENDER@CGuildCombat1to1Mng@@@std@@QAEXQAU__GC1TO1TENDER@CGuildCombat1to1Mng@@I@Z PROC ; std::allocator<CGuildCombat1to1Mng::__GC1TO1TENDER>::deallocate, COMDAT
; _this$ = ecx

; 982  :     _CONSTEXPR20 void deallocate(_Ty* const _Ptr, const size_t _Count) noexcept /* strengthened */ {

  00000	55		 push	 ebp
  00001	8b ec		 mov	 ebp, esp

; 983  :         _STL_ASSERT(_Ptr != nullptr || _Count == 0, "null pointer cannot point to a block of non-zero size");
; 984  :         // no overflow check on the following multiply; we assume _Allocate did that check
; 985  :         _STD _Deallocate<_New_alignof<_Ty>>(_Ptr, sizeof(_Ty) * _Count);

  00003	6b 4d 0c 2c	 imul	 ecx, DWORD PTR __Count$[ebp], 44
  00007	8b 45 08	 mov	 eax, DWORD PTR __Ptr$[ebp]

; 284  :         if (_Bytes >= _Big_allocation_threshold) {

  0000a	81 f9 00 10 00
	00		 cmp	 ecx, 4096		; 00001000H
  00010	72 12		 jb	 SHORT $LN11@deallocate

; 205  :     const uintptr_t _Ptr_container   = _Ptr_user[-1];

  00012	8b 50 fc	 mov	 edx, DWORD PTR [eax-4]
  00015	83 c1 23	 add	 ecx, 35			; 00000023H

; 206  : 
; 207  :     // If the following asserts, it likely means that we are performing
; 208  :     // an aligned delete on memory coming from an unaligned allocation.
; 209  :     _STL_ASSERT(_Ptr_user[-2] == _Big_allocation_sentinel, "invalid argument");
; 210  : 
; 211  :     // Extra paranoia on aligned allocation/deallocation; ensure _Ptr_container is
; 212  :     // in range [_Min_back_shift, _Non_user_size]
; 213  : #ifdef _DEBUG
; 214  :     constexpr uintptr_t _Min_back_shift = 2 * sizeof(void*);
; 215  : #else // ^^^ defined(_DEBUG) / !defined(_DEBUG) vvv
; 216  :     constexpr uintptr_t _Min_back_shift = sizeof(void*);
; 217  : #endif // ^^^ !defined(_DEBUG) ^^^
; 218  :     const uintptr_t _Back_shift = reinterpret_cast<uintptr_t>(_Ptr) - _Ptr_container;

  00018	2b c2		 sub	 eax, edx

; 219  :     _STL_VERIFY(_Back_shift >= _Min_back_shift && _Back_shift <= _Non_user_size, "invalid argument");

  0001a	83 c0 fc	 add	 eax, -4			; fffffffcH
  0001d	83 f8 1f	 cmp	 eax, 31			; 0000001fH
  00020	77 10		 ja	 SHORT $LN10@deallocate

; 220  :     _Ptr = reinterpret_cast<void*>(_Ptr_container);

  00022	8b c2		 mov	 eax, edx
$LN11@deallocate:

; 289  :         ::operator delete(_Ptr, _Bytes);

  00024	51		 push	 ecx
  00025	50		 push	 eax
  00026	e8 00 00 00 00	 call	 ??3@YAXPAXI@Z		; operator delete
  0002b	83 c4 08	 add	 esp, 8

; 986  :     }

  0002e	5d		 pop	 ebp
  0002f	c2 08 00	 ret	 8
$LN10@deallocate:

; 219  :     _STL_VERIFY(_Back_shift >= _Min_back_shift && _Back_shift <= _Non_user_size, "invalid argument");

  00032	6a 00		 push	 0
  00034	6a 00		 push	 0
  00036	6a 00		 push	 0
  00038	6a 00		 push	 0
  0003a	6a 00		 push	 0
  0003c	e8 00 00 00 00	 call	 __invoke_watson
$LN14@deallocate:
  00041	cc		 int	 3
?deallocate@?$allocator@U__GC1TO1TENDER@CGuildCombat1to1Mng@@@std@@QAEXQAU__GC1TO1TENDER@CGuildCombat1to1Mng@@I@Z ENDP ; std::allocator<CGuildCombat1to1Mng::__GC1TO1TENDER>::deallocate
_TEXT	ENDS
; Function compile flags: /Ogtp
; File C:\Program Files\Microsoft Visual Studio\2022\Professional\VC\Tools\MSVC\14.44.35207\include\vector
;	COMDAT ?_Xlength@?$vector@VCGuildCombat1to1@@V?$allocator@VCGuildCombat1to1@@@std@@@std@@CAXXZ
_TEXT	SEGMENT
?_Xlength@?$vector@VCGuildCombat1to1@@V?$allocator@VCGuildCombat1to1@@@std@@@std@@CAXXZ PROC ; std::vector<CGuildCombat1to1,std::allocator<CGuildCombat1to1> >::_Xlength, COMDAT

; 2184 :         _Xlength_error("vector too long");

  00000	68 00 00 00 00	 push	 OFFSET ??_C@_0BA@FOIKENOD@vector?5too?5long@
  00005	e8 00 00 00 00	 call	 ?_Xlength_error@std@@YAXPBD@Z ; std::_Xlength_error
$LN3@Xlength:
  0000a	cc		 int	 3
?_Xlength@?$vector@VCGuildCombat1to1@@V?$allocator@VCGuildCombat1to1@@@std@@@std@@CAXXZ ENDP ; std::vector<CGuildCombat1to1,std::allocator<CGuildCombat1to1> >::_Xlength
_TEXT	ENDS
; Function compile flags: /Ogtp
; File C:\Program Files\Microsoft Visual Studio\2022\Professional\VC\Tools\MSVC\14.44.35207\include\vector
; File C:\Program Files\Microsoft Visual Studio\2022\Professional\VC\Tools\MSVC\14.44.35207\include\xmemory
; File C:\Program Files\Microsoft Visual Studio\2022\Professional\VC\Tools\MSVC\14.44.35207\include\vector
; File C:\Program Files\Microsoft Visual Studio\2022\Professional\VC\Tools\MSVC\14.44.35207\include\xmemory
; File C:\Program Files\Microsoft Visual Studio\2022\Professional\VC\Tools\MSVC\14.44.35207\include\vector
; File C:\Program Files\Microsoft Visual Studio\2022\Professional\VC\Tools\MSVC\14.44.35207\include\xmemory
; File C:\Program Files\Microsoft Visual Studio\2022\Professional\VC\Tools\MSVC\14.44.35207\include\vector
; File C:\Program Files\Microsoft Visual Studio\2022\Professional\VC\Tools\MSVC\14.44.35207\include\xmemory
; File C:\Program Files\Microsoft Visual Studio\2022\Professional\VC\Tools\MSVC\14.44.35207\include\vector
; File C:\Program Files\Microsoft Visual Studio\2022\Professional\VC\Tools\MSVC\14.44.35207\include\xmemory
; File C:\Program Files\Microsoft Visual Studio\2022\Professional\VC\Tools\MSVC\14.44.35207\include\vector
;	COMDAT ??1?$vector@VCGuildCombat1to1@@V?$allocator@VCGuildCombat1to1@@@std@@@std@@QAE@XZ
_TEXT	SEGMENT
??1?$vector@VCGuildCombat1to1@@V?$allocator@VCGuildCombat1to1@@@std@@@std@@QAE@XZ PROC ; std::vector<CGuildCombat1to1,std::allocator<CGuildCombat1to1> >::~vector<CGuildCombat1to1,std::allocator<CGuildCombat1to1> >, COMDAT
; _this$ = ecx

; 829  :     _CONSTEXPR20 ~vector() noexcept {

  00000	56		 push	 esi
  00001	57		 push	 edi
  00002	8b f9		 mov	 edi, ecx

; 2090 :         if (_Myfirst) { // destroy and deallocate old array

  00004	8b 37		 mov	 esi, DWORD PTR [edi]
  00006	85 f6		 test	 esi, esi
  00008	74 6b		 je	 SHORT $LN5@vector
  0000a	53		 push	 ebx

; 2091 :             _STD _Destroy_range(_Myfirst, _Mylast, _Al);

  0000b	8b 5f 04	 mov	 ebx, DWORD PTR [edi+4]
; File C:\Program Files\Microsoft Visual Studio\2022\Professional\VC\Tools\MSVC\14.44.35207\include\xmemory

; 1102 :         for (; _First != _Last; ++_First) {

  0000e	3b f3		 cmp	 esi, ebx
  00010	74 0f		 je	 SHORT $LN10@vector
$LL11@vector:

; 741  :         _Ptr->~_Uty();

  00012	8b 06		 mov	 eax, DWORD PTR [esi]
  00014	8b ce		 mov	 ecx, esi
  00016	6a 00		 push	 0
  00018	ff 10		 call	 DWORD PTR [eax]

; 1102 :         for (; _First != _Last; ++_First) {

  0001a	83 c6 2c	 add	 esi, 44			; 0000002cH
  0001d	3b f3		 cmp	 esi, ebx
  0001f	75 f1		 jne	 SHORT $LL11@vector
$LN10@vector:
; File C:\Program Files\Microsoft Visual Studio\2022\Professional\VC\Tools\MSVC\14.44.35207\include\vector

; 2093 :             _Al.deallocate(_Myfirst, static_cast<size_type>(_Myend - _Myfirst));

  00021	8b 4f 08	 mov	 ecx, DWORD PTR [edi+8]
  00024	b8 e9 a2 8b 2e	 mov	 eax, 780903145		; 2e8ba2e9H
  00029	8b 37		 mov	 esi, DWORD PTR [edi]
  0002b	2b ce		 sub	 ecx, esi
  0002d	f7 e9		 imul	 ecx
; File C:\Program Files\Microsoft Visual Studio\2022\Professional\VC\Tools\MSVC\14.44.35207\include\xmemory

; 985  :         _STD _Deallocate<_New_alignof<_Ty>>(_Ptr, sizeof(_Ty) * _Count);

  0002f	5b		 pop	 ebx
; File C:\Program Files\Microsoft Visual Studio\2022\Professional\VC\Tools\MSVC\14.44.35207\include\vector

; 2093 :             _Al.deallocate(_Myfirst, static_cast<size_type>(_Myend - _Myfirst));

  00030	c1 fa 03	 sar	 edx, 3
  00033	8b c2		 mov	 eax, edx
  00035	c1 e8 1f	 shr	 eax, 31			; 0000001fH
  00038	03 c2		 add	 eax, edx
; File C:\Program Files\Microsoft Visual Studio\2022\Professional\VC\Tools\MSVC\14.44.35207\include\xmemory

; 985  :         _STD _Deallocate<_New_alignof<_Ty>>(_Ptr, sizeof(_Ty) * _Count);

  0003a	6b c8 2c	 imul	 ecx, eax, 44

; 284  :         if (_Bytes >= _Big_allocation_threshold) {

  0003d	81 f9 00 10 00
	00		 cmp	 ecx, 4096		; 00001000H
  00043	72 12		 jb	 SHORT $LN26@vector

; 205  :     const uintptr_t _Ptr_container   = _Ptr_user[-1];

  00045	8b 56 fc	 mov	 edx, DWORD PTR [esi-4]
  00048	83 c1 23	 add	 ecx, 35			; 00000023H

; 206  : 
; 207  :     // If the following asserts, it likely means that we are performing
; 208  :     // an aligned delete on memory coming from an unaligned allocation.
; 209  :     _STL_ASSERT(_Ptr_user[-2] == _Big_allocation_sentinel, "invalid argument");
; 210  : 
; 211  :     // Extra paranoia on aligned allocation/deallocation; ensure _Ptr_container is
; 212  :     // in range [_Min_back_shift, _Non_user_size]
; 213  : #ifdef _DEBUG
; 214  :     constexpr uintptr_t _Min_back_shift = 2 * sizeof(void*);
; 215  : #else // ^^^ defined(_DEBUG) / !defined(_DEBUG) vvv
; 216  :     constexpr uintptr_t _Min_back_shift = sizeof(void*);
; 217  : #endif // ^^^ !defined(_DEBUG) ^^^
; 218  :     const uintptr_t _Back_shift = reinterpret_cast<uintptr_t>(_Ptr) - _Ptr_container;

  0004b	2b f2		 sub	 esi, edx

; 219  :     _STL_VERIFY(_Back_shift >= _Min_back_shift && _Back_shift <= _Non_user_size, "invalid argument");

  0004d	8d 46 fc	 lea	 eax, DWORD PTR [esi-4]
  00050	83 f8 1f	 cmp	 eax, 31			; 0000001fH
  00053	77 23		 ja	 SHORT $LN25@vector

; 220  :     _Ptr = reinterpret_cast<void*>(_Ptr_container);

  00055	8b f2		 mov	 esi, edx
$LN26@vector:

; 289  :         ::operator delete(_Ptr, _Bytes);

  00057	51		 push	 ecx
  00058	56		 push	 esi
  00059	e8 00 00 00 00	 call	 ??3@YAXPAXI@Z		; operator delete
; File C:\Program Files\Microsoft Visual Studio\2022\Professional\VC\Tools\MSVC\14.44.35207\include\vector

; 2095 :             _Myfirst = nullptr;

  0005e	c7 07 00 00 00
	00		 mov	 DWORD PTR [edi], 0
; File C:\Program Files\Microsoft Visual Studio\2022\Professional\VC\Tools\MSVC\14.44.35207\include\xmemory

; 289  :         ::operator delete(_Ptr, _Bytes);

  00064	83 c4 08	 add	 esp, 8
; File C:\Program Files\Microsoft Visual Studio\2022\Professional\VC\Tools\MSVC\14.44.35207\include\vector

; 2096 :             _Mylast  = nullptr;

  00067	c7 47 04 00 00
	00 00		 mov	 DWORD PTR [edi+4], 0

; 2097 :             _Myend   = nullptr;

  0006e	c7 47 08 00 00
	00 00		 mov	 DWORD PTR [edi+8], 0
$LN5@vector:
  00075	5f		 pop	 edi

; 835  :     }

  00076	5e		 pop	 esi
  00077	c3		 ret	 0
$LN25@vector:
; File C:\Program Files\Microsoft Visual Studio\2022\Professional\VC\Tools\MSVC\14.44.35207\include\xmemory

; 219  :     _STL_VERIFY(_Back_shift >= _Min_back_shift && _Back_shift <= _Non_user_size, "invalid argument");

  00078	6a 00		 push	 0
  0007a	6a 00		 push	 0
  0007c	6a 00		 push	 0
  0007e	6a 00		 push	 0
  00080	6a 00		 push	 0
  00082	e8 00 00 00 00	 call	 __invoke_watson
$LN39@vector:
  00087	cc		 int	 3
??1?$vector@VCGuildCombat1to1@@V?$allocator@VCGuildCombat1to1@@@std@@@std@@QAE@XZ ENDP ; std::vector<CGuildCombat1to1,std::allocator<CGuildCombat1to1> >::~vector<CGuildCombat1to1,std::allocator<CGuildCombat1to1> >
_TEXT	ENDS
; Function compile flags: /Ogtp
; File C:\IAGOS\server\v18\Source\Source\_Common\GuildCombat1to1.cpp
; File C:\Program Files\Microsoft Visual Studio\2022\Professional\VC\Tools\MSVC\14.44.35207\include\vector
; File C:\IAGOS\server\v18\Source\Source\_Common\GuildCombat1to1.cpp
; File C:\Program Files\Microsoft Visual Studio\2022\Professional\VC\Tools\MSVC\14.44.35207\include\vector
; File C:\IAGOS\server\v18\Source\Source\_Common\GuildCombat1to1.cpp
; File C:\Program Files\Microsoft Visual Studio\2022\Professional\VC\Tools\MSVC\14.44.35207\include\vector
; File C:\IAGOS\server\v18\Source\Source\_Common\GuildCombat1to1.cpp
;	COMDAT ?SetTeleportToStage@CGuildCombat1to1Mng@@QAEXPAVCUser@@@Z
_TEXT	SEGMENT
_pUser$ = 8						; size = 4
?SetTeleportToStage@CGuildCombat1to1Mng@@QAEXPAVCUser@@@Z PROC ; CGuildCombat1to1Mng::SetTeleportToStage, COMDAT
; _this$ = ecx

; 1636 : {

  00000	55		 push	 ebp
  00001	8b ec		 mov	 ebp, esp
  00003	57		 push	 edi
  00004	8b f9		 mov	 edi, ecx

; 1637 : 	if( m_nState != GC1TO1_ENTRANCE )

  00006	83 7f 04 02	 cmp	 DWORD PTR [edi+4], 2
  0000a	74 12		 je	 SHORT $LN2@SetTelepor

; 1638 : 	{
; 1639 : 		pUser->AddDefinedText( TID_GAME_GUILDCOMBAT1TO1_NOENTRANCETIME );

  0000c	8b 4d 08	 mov	 ecx, DWORD PTR _pUser$[ebp]
  0000f	68 78 0d 00 00	 push	 3448			; 00000d78H
  00014	e8 00 00 00 00	 call	 ?AddDefinedText@CUser@@QAEXH@Z ; CUser::AddDefinedText
  00019	5f		 pop	 edi

; 1663 : }	

  0001a	5d		 pop	 ebp
  0001b	c2 04 00	 ret	 4
$LN2@SetTelepor:
  0001e	56		 push	 esi

; 1640 : 		return;
; 1641 : 	}
; 1642 : 	
; 1643 : 	if( !IsLineUpMember( pUser ) )

  0001f	8b 75 08	 mov	 esi, DWORD PTR _pUser$[ebp]
  00022	56		 push	 esi
  00023	e8 00 00 00 00	 call	 ?IsLineUpMember@CGuildCombat1to1Mng@@QAEHPAVCUser@@@Z ; CGuildCombat1to1Mng::IsLineUpMember
  00028	85 c0		 test	 eax, eax
  0002a	75 12		 jne	 SHORT $LN3@SetTelepor

; 1644 : 	{
; 1645 : 		pUser->AddDefinedText( TID_GAME_GUILDCOMBAT1TO1_NOT_GUILD_MEMBER );

  0002c	68 5c 0d 00 00	 push	 3420			; 00000d5cH
  00031	8b ce		 mov	 ecx, esi
  00033	e8 00 00 00 00	 call	 ?AddDefinedText@CUser@@QAEXH@Z ; CUser::AddDefinedText
  00038	5e		 pop	 esi
  00039	5f		 pop	 edi

; 1663 : }	

  0003a	5d		 pop	 ebp
  0003b	c2 04 00	 ret	 4
$LN3@SetTelepor:

; 1646 : 		return;
; 1647 : 	}
; 1648 : 
; 1649 : 	int nIndex = GetTenderGuildIndexByUser( pUser );

  0003e	56		 push	 esi
  0003f	8b cf		 mov	 ecx, edi
  00041	e8 00 00 00 00	 call	 ?GetTenderGuildIndexByUser@CGuildCombat1to1Mng@@QAEHPAVCUser@@@Z ; CGuildCombat1to1Mng::GetTenderGuildIndexByUser

; 1650 : 	if( nIndex == NULL_ID )

  00046	83 f8 ff	 cmp	 eax, -1
  00049	74 48		 je	 SHORT $LN19@SetTelepor
; File C:\Program Files\Microsoft Visual Studio\2022\Professional\VC\Tools\MSVC\14.44.35207\include\vector

; 1934 :         return _My_data._Myfirst[_Pos];

  0004b	6b c8 2c	 imul	 ecx, eax, 44
; File C:\IAGOS\server\v18\Source\Source\_Common\GuildCombat1to1.cpp

; 1652 : 	int nStageId = m_vecTenderGuild[nIndex].nStageId;

  0004e	8b 47 4c	 mov	 eax, DWORD PTR [edi+76]
  00051	8b 44 01 08	 mov	 eax, DWORD PTR [ecx+eax+8]

; 1653 : 	if( nStageId == NULL_ID )

  00055	83 f8 ff	 cmp	 eax, -1
  00058	74 39		 je	 SHORT $LN19@SetTelepor
; File C:\Program Files\Microsoft Visual Studio\2022\Professional\VC\Tools\MSVC\14.44.35207\include\vector

; 1934 :         return _My_data._Myfirst[_Pos];

  0005a	6b c8 2c	 imul	 ecx, eax, 44
; File C:\IAGOS\server\v18\Source\Source\_Common\GuildCombat1to1.cpp

; 1655 : 	m_vecGuilCombat1to1[nStageId].SetTeleportToWaitStage( pUser );

  0005d	56		 push	 esi
; File C:\Program Files\Microsoft Visual Studio\2022\Professional\VC\Tools\MSVC\14.44.35207\include\vector

; 1934 :         return _My_data._Myfirst[_Pos];

  0005e	03 4f 40	 add	 ecx, DWORD PTR [edi+64]
; File C:\IAGOS\server\v18\Source\Source\_Common\GuildCombat1to1.cpp

; 1655 : 	m_vecGuilCombat1to1[nStageId].SetTeleportToWaitStage( pUser );

  00061	e8 00 00 00 00	 call	 ?SetTeleportToWaitStage@CGuildCombat1to1@@QAEXPAVCUser@@@Z ; CGuildCombat1to1::SetTeleportToWaitStage

; 1656 : 	
; 1657 : 	// ąöÇÁ ľřľÖ±â
; 1658 : 	pUser->RemoveCommonBuffs();

  00066	8b ce		 mov	 ecx, esi
  00068	e8 00 00 00 00	 call	 ?RemoveCommonBuffs@CMover@@QAEXXZ ; CMover::RemoveCommonBuffs

; 1659 : 	g_UserMng.AddRemoveAllSkillInfluence( pUser );

  0006d	56		 push	 esi
  0006e	b9 00 00 00 00	 mov	 ecx, OFFSET ?g_UserMng@@3VCUserMng@@A ; g_UserMng
  00073	e8 00 00 00 00	 call	 ?AddRemoveAllSkillInfluence@CUserMng@@QAEXPAVCMover@@@Z ; CUserMng::AddRemoveAllSkillInfluence

; 1660 : 	// ĆÄĆĽ Ĺ»Ĺđ
; 1661 : 	if( pUser->GetPartyId() > 0 )

  00078	8b 86 10 07 00
	00		 mov	 eax, DWORD PTR [esi+1808]
  0007e	85 c0		 test	 eax, eax
  00080	74 11		 je	 SHORT $LN19@SetTelepor

; 1662 : 		g_DPCoreClient.SendGCRemoveParty( pUser->GetPartyId(), pUser->m_idPlayer );

  00082	ff b6 34 02 00
	00		 push	 DWORD PTR [esi+564]
  00088	b9 00 00 00 00	 mov	 ecx, OFFSET ?g_DPCoreClient@@3VCDPCoreClient@@A ; g_DPCoreClient
  0008d	50		 push	 eax
  0008e	e8 00 00 00 00	 call	 ?SendGCRemoveParty@CDPCoreClient@@QAEXKK@Z ; CDPCoreClient::SendGCRemoveParty
$LN19@SetTelepor:
  00093	5e		 pop	 esi
  00094	5f		 pop	 edi

; 1663 : }	

  00095	5d		 pop	 ebp
  00096	c2 04 00	 ret	 4
?SetTeleportToStage@CGuildCombat1to1Mng@@QAEXPAVCUser@@@Z ENDP ; CGuildCombat1to1Mng::SetTeleportToStage
_TEXT	ENDS
; Function compile flags: /Ogtp
; File C:\IAGOS\server\v18\Source\Source\_Common\GuildCombat1to1.cpp
; File C:\IAGOS\server\v18\Source\Source\DX_SDK\d3dx9math.inl
; File C:\IAGOS\server\v18\Source\Source\_Common\GuildCombat1to1.cpp
; File C:\IAGOS\server\v18\Source\Source\DX_SDK\d3dx9math.inl
; File C:\IAGOS\server\v18\Source\Source\_Common\GuildCombat1to1.cpp
;	COMDAT ?SetTeleportToNPC@CGuildCombat1to1Mng@@QAEXPAVCUser@@@Z
_TEXT	SEGMENT
$T1 = -16						; size = 12
__$ArrayPad$ = -4					; size = 4
_pUser$ = 8						; size = 4
?SetTeleportToNPC@CGuildCombat1to1Mng@@QAEXPAVCUser@@@Z PROC ; CGuildCombat1to1Mng::SetTeleportToNPC, COMDAT
; _this$ = ecx

; 1622 : {

  00000	55		 push	 ebp
  00001	8b ec		 mov	 ebp, esp
  00003	83 ec 10	 sub	 esp, 16			; 00000010H
  00006	a1 00 00 00 00	 mov	 eax, DWORD PTR ___security_cookie
  0000b	33 c5		 xor	 eax, ebp
  0000d	89 45 fc	 mov	 DWORD PTR __$ArrayPad$[ebp], eax

; 1623 : 	if( m_nState != GC1TO1_ENTRANCE )

  00010	83 79 04 02	 cmp	 DWORD PTR [ecx+4], 2
  00014	56		 push	 esi
  00015	8b 75 08	 mov	 esi, DWORD PTR _pUser$[ebp]
  00018	74 1d		 je	 SHORT $LN2@SetTelepor

; 1624 : 	{
; 1625 : 		pUser->AddDefinedText( TID_GAME_GUILDCOMBAT1TO1_NOENTRANCETIME );

  0001a	68 78 0d 00 00	 push	 3448			; 00000d78H
  0001f	8b ce		 mov	 ecx, esi
  00021	e8 00 00 00 00	 call	 ?AddDefinedText@CUser@@QAEXH@Z ; CUser::AddDefinedText
  00026	5e		 pop	 esi

; 1632 : }

  00027	8b 4d fc	 mov	 ecx, DWORD PTR __$ArrayPad$[ebp]
  0002a	33 cd		 xor	 ecx, ebp
  0002c	e8 00 00 00 00	 call	 @__security_check_cookie@4
  00031	8b e5		 mov	 esp, ebp
  00033	5d		 pop	 ebp
  00034	c2 04 00	 ret	 4
$LN2@SetTelepor:

; 1626 : 		return;
; 1627 : 	}
; 1628 : 	
; 1629 : 	PRegionElem pRgnElem = g_WorldMng.GetRevivalPos( WI_WORLD_MADRIGAL, "flaris" );

  00037	68 00 00 00 00	 push	 OFFSET ??_C@_06NDLDHKAP@flaris@
  0003c	6a 01		 push	 1
  0003e	b9 00 00 00 00	 mov	 ecx, OFFSET ?g_WorldMng@@3VCWorldMng@@A ; g_WorldMng
  00043	e8 00 00 00 00	 call	 ?GetRevivalPos@CWorldMng@@QAEPAUREGIONELEM@@KPBD@Z ; CWorldMng::GetRevivalPos

; 1630 : 	if( pRgnElem )

  00048	85 c0		 test	 eax, eax
  0004a	74 2c		 je	 SHORT $LN3@SetTelepor

; 1631 : 		pUser->REPLACE( g_uIdofMulti, WI_WORLD_MADRIGAL, D3DXVECTOR3( 6983.0f, 0.0f, 3326.0f ), REPLACE_NORMAL, nDefaultLayer );

  0004c	6a 00		 push	 0
  0004e	6a 00		 push	 0
  00050	8d 45 f0	 lea	 eax, DWORD PTR $T1[ebp]
; File C:\IAGOS\server\v18\Source\Source\DX_SDK\d3dx9math.inl

; 300  :     x = fx;

  00053	c7 45 f0 00 38
	da 45		 mov	 DWORD PTR $T1[ebp], 1171929088 ; 45da3800H
; File C:\IAGOS\server\v18\Source\Source\_Common\GuildCombat1to1.cpp

; 1631 : 		pUser->REPLACE( g_uIdofMulti, WI_WORLD_MADRIGAL, D3DXVECTOR3( 6983.0f, 0.0f, 3326.0f ), REPLACE_NORMAL, nDefaultLayer );

  0005a	50		 push	 eax
  0005b	6a 01		 push	 1
  0005d	ff 35 00 00 00
	00		 push	 DWORD PTR ?g_uIdofMulti@@3KA ; g_uIdofMulti
  00063	8b ce		 mov	 ecx, esi
; File C:\IAGOS\server\v18\Source\Source\DX_SDK\d3dx9math.inl

; 301  :     y = fy;

  00065	c7 45 f4 00 00
	00 00		 mov	 DWORD PTR $T1[ebp+4], 0

; 302  :     z = fz;

  0006c	c7 45 f8 00 e0
	4f 45		 mov	 DWORD PTR $T1[ebp+8], 1162862592 ; 454fe000H
; File C:\IAGOS\server\v18\Source\Source\_Common\GuildCombat1to1.cpp

; 1631 : 		pUser->REPLACE( g_uIdofMulti, WI_WORLD_MADRIGAL, D3DXVECTOR3( 6983.0f, 0.0f, 3326.0f ), REPLACE_NORMAL, nDefaultLayer );

  00073	e8 00 00 00 00	 call	 ?Replace@CMover@@QAEHKKAAUD3DXVECTOR3@@W4REPLACE_TYPE@@H@Z ; CMover::Replace
$LN3@SetTelepor:

; 1632 : }

  00078	8b 4d fc	 mov	 ecx, DWORD PTR __$ArrayPad$[ebp]
  0007b	33 cd		 xor	 ecx, ebp
  0007d	5e		 pop	 esi
  0007e	e8 00 00 00 00	 call	 @__security_check_cookie@4
  00083	8b e5		 mov	 esp, ebp
  00085	5d		 pop	 ebp
  00086	c2 04 00	 ret	 4
?SetTeleportToNPC@CGuildCombat1to1Mng@@QAEXPAVCUser@@@Z ENDP ; CGuildCombat1to1Mng::SetTeleportToNPC
_TEXT	ENDS
; Function compile flags: /Ogtp
; File C:\IAGOS\server\v18\Source\Source\_Common\GuildCombat1to1.cpp
; File C:\Program Files\Microsoft Visual Studio\2022\Professional\VC\Tools\MSVC\14.44.35207\include\vector
; File C:\IAGOS\server\v18\Source\Source\_Common\GuildCombat1to1.cpp
; File C:\Program Files\Microsoft Visual Studio\2022\Professional\VC\Tools\MSVC\14.44.35207\include\vector
; File C:\IAGOS\server\v18\Source\Source\_Common\GuildCombat1to1.cpp
; File C:\Program Files\Microsoft Visual Studio\2022\Professional\VC\Tools\MSVC\14.44.35207\include\vector
; File C:\IAGOS\server\v18\Source\Source\_Common\GuildCombat1to1.cpp
; File C:\Program Files\Microsoft Visual Studio\2022\Professional\VC\Tools\MSVC\14.44.35207\include\vector
; File C:\IAGOS\server\v18\Source\Source\_Common\GuildCombat1to1.cpp
; File C:\Program Files\Microsoft Visual Studio\2022\Professional\VC\Tools\MSVC\14.44.35207\include\xtree
; File C:\IAGOS\server\v18\Source\Source\_Common\GuildCombat1to1.cpp
; File C:\Program Files\Microsoft Visual Studio\2022\Professional\VC\Tools\MSVC\14.44.35207\include\xtree
; File C:\Program Files\Microsoft Visual Studio\2022\Professional\VC\Tools\MSVC\14.44.35207\include\type_traits
; File C:\Program Files\Microsoft Visual Studio\2022\Professional\VC\Tools\MSVC\14.44.35207\include\xtree
; File C:\Program Files\Microsoft Visual Studio\2022\Professional\VC\Tools\MSVC\14.44.35207\include\type_traits
; File C:\Program Files\Microsoft Visual Studio\2022\Professional\VC\Tools\MSVC\14.44.35207\include\xtree
; File C:\IAGOS\server\v18\Source\Source\_Common\Project.h
; File C:\IAGOS\server\v18\Source\Source\_Common\Obj.h
; File C:\IAGOS\server\v18\Source\Source\_Common\GuildCombat1to1.cpp
; File C:\Program Files\Microsoft Visual Studio\2022\Professional\VC\Tools\MSVC\14.44.35207\include\vector
; File C:\IAGOS\server\v18\Source\Source\_Common\GuildCombat1to1.cpp
; File C:\Program Files\Microsoft Visual Studio\2022\Professional\VC\Tools\MSVC\14.44.35207\include\vector
; File C:\IAGOS\server\v18\Source\Source\_Common\GuildCombat1to1.cpp
; File C:\Program Files\Microsoft Visual Studio\2022\Professional\VC\Tools\MSVC\14.44.35207\include\vector
; File C:\IAGOS\server\v18\Source\Source\_Common\GuildCombat1to1.cpp
; File C:\Program Files\Microsoft Visual Studio\2022\Professional\VC\Tools\MSVC\14.44.35207\include\vector
; File C:\IAGOS\server\v18\Source\Source\_Common\GuildCombat1to1.cpp
; File C:\Program Files\Microsoft Visual Studio\2022\Professional\VC\Tools\MSVC\14.44.35207\include\vector
; File C:\IAGOS\server\v18\Source\Source\_Common\GuildCombat1to1.cpp
; File C:\Program Files\Microsoft Visual Studio\2022\Professional\VC\Tools\MSVC\14.44.35207\include\vector
; File C:\IAGOS\server\v18\Source\Source\_Common\GuildCombat1to1.cpp
; File C:\Program Files\Microsoft Visual Studio\2022\Professional\VC\Tools\MSVC\14.44.35207\include\vector
; File C:\IAGOS\server\v18\Source\Source\_Common\GuildCombat1to1.cpp
; File C:\Program Files\Microsoft Visual Studio\2022\Professional\VC\Tools\MSVC\14.44.35207\include\vector
; File C:\IAGOS\server\v18\Source\Source\_Common\GuildCombat1to1.cpp
; File C:\Program Files\Microsoft Visual Studio\2022\Professional\VC\Tools\MSVC\14.44.35207\include\vector
; File C:\IAGOS\server\v18\Source\Source\_Common\GuildCombat1to1.cpp
; File C:\Program Files\Microsoft Visual Studio\2022\Professional\VC\Tools\MSVC\14.44.35207\include\vector
; File C:\IAGOS\server\v18\Source\Source\_Common\GuildCombat1to1.cpp
; File C:\Program Files\Microsoft Visual Studio\2022\Professional\VC\Tools\MSVC\14.44.35207\include\vector
; File C:\IAGOS\server\v18\Source\Source\_Common\GuildCombat1to1.cpp
; File C:\Program Files\Microsoft Visual Studio\2022\Professional\VC\Tools\MSVC\14.44.35207\include\vector
; File C:\IAGOS\server\v18\Source\Source\_Common\GuildCombat1to1.cpp
; File C:\Program Files\Microsoft Visual Studio\2022\Professional\VC\Tools\MSVC\14.44.35207\include\vector
; File C:\IAGOS\server\v18\Source\Source\_Common\GuildCombat1to1.cpp
;	COMDAT ?GuildCombat1to1War@CGuildCombat1to1Mng@@QAEXXZ
_TEXT	SEGMENT
_i$1$ = -12						; size = 4
tv930 = -12						; size = 4
_i$1$ = -8						; size = 4
_this$1$ = -4						; size = 4
?GuildCombat1to1War@CGuildCombat1to1Mng@@QAEXXZ PROC	; CGuildCombat1to1Mng::GuildCombat1to1War, COMDAT
; _this$ = ecx

; 1128 : {

  00000	55		 push	 ebp
  00001	8b ec		 mov	 ebp, esp
  00003	83 ec 0c	 sub	 esp, 12			; 0000000cH
  00006	53		 push	 ebx
  00007	56		 push	 esi
  00008	8b d9		 mov	 ebx, ecx
  0000a	57		 push	 edi
  0000b	89 5d fc	 mov	 DWORD PTR _this$1$[ebp], ebx

; 1129 : 	ClearTime();

  0000e	e8 00 00 00 00	 call	 ?ClearTime@CGuildCombat1to1Mng@@QAEXXZ ; CGuildCombat1to1Mng::ClearTime

; 1131 : 	for( int i=0; i<(int)( m_vecTenderGuild.size() ); i++ )

  00013	33 c9		 xor	 ecx, ecx
  00015	c7 43 04 03 00
	00 00		 mov	 DWORD PTR [ebx+4], 3
; File C:\Program Files\Microsoft Visual Studio\2022\Professional\VC\Tools\MSVC\14.44.35207\include\vector

; 1915 :         return static_cast<size_type>(_My_data._Mylast - _My_data._Myfirst);

  0001c	8b 7b 4c	 mov	 edi, DWORD PTR [ebx+76]
  0001f	b8 e9 a2 8b 2e	 mov	 eax, 780903145		; 2e8ba2e9H
; File C:\IAGOS\server\v18\Source\Source\_Common\GuildCombat1to1.cpp

; 1131 : 	for( int i=0; i<(int)( m_vecTenderGuild.size() ); i++ )

  00024	89 4d f8	 mov	 DWORD PTR _i$1$[ebp], ecx
; File C:\Program Files\Microsoft Visual Studio\2022\Professional\VC\Tools\MSVC\14.44.35207\include\vector

; 1915 :         return static_cast<size_type>(_My_data._Mylast - _My_data._Myfirst);

  00027	8b 4b 50	 mov	 ecx, DWORD PTR [ebx+80]
  0002a	2b cf		 sub	 ecx, edi
  0002c	f7 e9		 imul	 ecx
  0002e	c1 fa 03	 sar	 edx, 3
  00031	8b c2		 mov	 eax, edx
  00033	c1 e8 1f	 shr	 eax, 31			; 0000001fH
  00036	03 c2		 add	 eax, edx
; File C:\IAGOS\server\v18\Source\Source\_Common\GuildCombat1to1.cpp

; 1131 : 	for( int i=0; i<(int)( m_vecTenderGuild.size() ); i++ )

  00038	85 c0		 test	 eax, eax
  0003a	0f 8e c1 00 00
	00		 jle	 $LN3@GuildComba
  00040	8b 35 28 00 00
	00		 mov	 esi, DWORD PTR ?prj@@3VCProject@@A+40
  00046	33 c9		 xor	 ecx, ecx
  00048	89 4d f4	 mov	 DWORD PTR tv930[ebp], ecx
  0004b	0f 1f 44 00 00	 npad	 5
$LL4@GuildComba:
; File C:\Program Files\Microsoft Visual Studio\2022\Professional\VC\Tools\MSVC\14.44.35207\include\vector

; 1915 :         return static_cast<size_type>(_My_data._Mylast - _My_data._Myfirst);

  00050	8b 44 39 24	 mov	 eax, DWORD PTR [ecx+edi+36]
; File C:\IAGOS\server\v18\Source\Source\_Common\GuildCombat1to1.cpp

; 1133 : 		for( int j=0; j<(int)( m_vecTenderGuild[i].vecMemberId.size() ); j++ )

  00054	33 db		 xor	 ebx, ebx
; File C:\Program Files\Microsoft Visual Studio\2022\Professional\VC\Tools\MSVC\14.44.35207\include\vector

; 1915 :         return static_cast<size_type>(_My_data._Mylast - _My_data._Myfirst);

  00056	2b 44 39 20	 sub	 eax, DWORD PTR [ecx+edi+32]
  0005a	8b d7		 mov	 edx, edi
; File C:\IAGOS\server\v18\Source\Source\_Common\GuildCombat1to1.cpp

; 1133 : 		for( int j=0; j<(int)( m_vecTenderGuild[i].vecMemberId.size() ); j++ )

  0005c	a9 fc ff ff ff	 test	 eax, -4			; fffffffcH
  00061	7e 6e		 jle	 SHORT $LN2@GuildComba
$LL7@GuildComba:

; 1135 : 			CUser* pUser = (CUser*)prj.GetUserByID( m_vecTenderGuild[i].vecMemberId[j] );

  00063	8b 44 39 20	 mov	 eax, DWORD PTR [ecx+edi+32]
; File C:\Program Files\Microsoft Visual Studio\2022\Professional\VC\Tools\MSVC\14.44.35207\include\xtree

; 1630 :         _Tree_find_result<_Nodeptr> _Result{{_Scary->_Myhead->_Parent, _Tree_child::_Right}, _Scary->_Myhead};

  00067	8b ce		 mov	 ecx, esi
; File C:\IAGOS\server\v18\Source\Source\_Common\GuildCombat1to1.cpp

; 1135 : 			CUser* pUser = (CUser*)prj.GetUserByID( m_vecTenderGuild[i].vecMemberId[j] );

  00069	8b 14 98	 mov	 edx, DWORD PTR [eax+ebx*4]
; File C:\Program Files\Microsoft Visual Studio\2022\Professional\VC\Tools\MSVC\14.44.35207\include\xtree

; 1630 :         _Tree_find_result<_Nodeptr> _Result{{_Scary->_Myhead->_Parent, _Tree_child::_Right}, _Scary->_Myhead};

  0006c	8b 46 04	 mov	 eax, DWORD PTR [esi+4]

; 1631 :         _Nodeptr _Trynode = _Result._Location._Parent;
; 1632 :         while (!_Trynode->_Isnil) {

  0006f	80 78 0d 00	 cmp	 BYTE PTR [eax+13], 0
  00073	75 14		 jne	 SHORT $LN41@GuildComba
$LL40@GuildComba:
; File C:\Program Files\Microsoft Visual Studio\2022\Professional\VC\Tools\MSVC\14.44.35207\include\type_traits

; 2380 :         return _Left < _Right;

  00075	39 50 10	 cmp	 DWORD PTR [eax+16], edx
; File C:\Program Files\Microsoft Visual Studio\2022\Professional\VC\Tools\MSVC\14.44.35207\include\xtree

; 1634 :             if (_DEBUG_LT_PRED(_Getcomp(), _Traits::_Kfn(_Trynode->_Myval), _Keyval)) {

  00078	73 05		 jae	 SHORT $LN42@GuildComba

; 1635 :                 _Result._Location._Child = _Tree_child::_Right;
; 1636 :                 _Trynode                 = _Trynode->_Right;

  0007a	8b 40 08	 mov	 eax, DWORD PTR [eax+8]

; 1637 :             } else {

  0007d	eb 04		 jmp	 SHORT $LN43@GuildComba
$LN42@GuildComba:

; 1638 :                 _Result._Location._Child = _Tree_child::_Left;
; 1639 :                 _Result._Bound           = _Trynode;

  0007f	8b c8		 mov	 ecx, eax

; 1640 :                 _Trynode                 = _Trynode->_Left;

  00081	8b 00		 mov	 eax, DWORD PTR [eax]
$LN43@GuildComba:

; 1631 :         _Nodeptr _Trynode = _Result._Location._Parent;
; 1632 :         while (!_Trynode->_Isnil) {

  00083	80 78 0d 00	 cmp	 BYTE PTR [eax+13], 0
  00087	74 ec		 je	 SHORT $LL40@GuildComba
$LN41@GuildComba:

; 1624 :         return !_Bound->_Isnil && !_DEBUG_LT_PRED(_Getcomp(), _Keyval, _Traits::_Kfn(_Bound->_Myval));

  00089	80 79 0d 00	 cmp	 BYTE PTR [ecx+13], 0
  0008d	75 05		 jne	 SHORT $LN37@GuildComba
; File C:\Program Files\Microsoft Visual Studio\2022\Professional\VC\Tools\MSVC\14.44.35207\include\type_traits

; 2380 :         return _Left < _Right;

  0008f	3b 51 10	 cmp	 edx, DWORD PTR [ecx+16]
; File C:\Program Files\Microsoft Visual Studio\2022\Professional\VC\Tools\MSVC\14.44.35207\include\xtree

; 1624 :         return !_Bound->_Isnil && !_DEBUG_LT_PRED(_Getcomp(), _Keyval, _Traits::_Kfn(_Bound->_Myval));

  00092	73 02		 jae	 SHORT $LN36@GuildComba
$LN37@GuildComba:

; 1389 :         return _Get_scary()->_Myhead;

  00094	8b ce		 mov	 ecx, esi
$LN36@GuildComba:

; 37   :     _Tree_unchecked_const_iterator(_Nodeptr _Pnode, const _Mytree* _Plist) noexcept : _Ptr(_Pnode) {

  00096	3b ce		 cmp	 ecx, esi
; File C:\IAGOS\server\v18\Source\Source\_Common\Project.h

; 1436 : 	if( i != m_idPlayerToUserPtr.end() )

  00098	74 1c		 je	 SHORT $LN5@GuildComba

; 1437 : 		return i->second;

  0009a	8b 41 14	 mov	 eax, DWORD PTR [ecx+20]
; File C:\IAGOS\server\v18\Source\Source\_Common\Obj.h

; 327  : 	return pObj && ( pObj->IsDelete() == FALSE ); 

  0009d	85 c0		 test	 eax, eax
  0009f	74 15		 je	 SHORT $LN5@GuildComba

; 180  : 	BOOL			IsDelete()	{ return (m_dwFlags & OBJ_FLAG_DELETE);  }

  000a1	f6 40 04 01	 test	 BYTE PTR [eax+4], 1

; 327  : 	return pObj && ( pObj->IsDelete() == FALSE ); 

  000a5	75 0f		 jne	 SHORT $LN5@GuildComba
; File C:\IAGOS\server\v18\Source\Source\_Common\GuildCombat1to1.cpp

; 1137 : 				SendNowState( pUser );

  000a7	8b 4d fc	 mov	 ecx, DWORD PTR _this$1$[ebp]
  000aa	50		 push	 eax
  000ab	e8 00 00 00 00	 call	 ?SendNowState@CGuildCombat1to1Mng@@QAEXPAVCUser@@@Z ; CGuildCombat1to1Mng::SendNowState
  000b0	8b 35 28 00 00
	00		 mov	 esi, DWORD PTR ?prj@@3VCProject@@A+40
$LN5@GuildComba:
; File C:\Program Files\Microsoft Visual Studio\2022\Professional\VC\Tools\MSVC\14.44.35207\include\vector

; 1914 :         auto& _My_data = _Mypair._Myval2;

  000b6	8b 45 fc	 mov	 eax, DWORD PTR _this$1$[ebp]
; File C:\IAGOS\server\v18\Source\Source\_Common\GuildCombat1to1.cpp

; 1133 : 		for( int j=0; j<(int)( m_vecTenderGuild[i].vecMemberId.size() ); j++ )

  000b9	43		 inc	 ebx
; File C:\Program Files\Microsoft Visual Studio\2022\Professional\VC\Tools\MSVC\14.44.35207\include\vector

; 1915 :         return static_cast<size_type>(_My_data._Mylast - _My_data._Myfirst);

  000ba	8b 4d f4	 mov	 ecx, DWORD PTR tv930[ebp]
  000bd	8b 50 4c	 mov	 edx, DWORD PTR [eax+76]
  000c0	8b fa		 mov	 edi, edx
  000c2	8b 44 11 24	 mov	 eax, DWORD PTR [ecx+edx+36]
  000c6	2b 44 11 20	 sub	 eax, DWORD PTR [ecx+edx+32]
  000ca	c1 f8 02	 sar	 eax, 2
; File C:\IAGOS\server\v18\Source\Source\_Common\GuildCombat1to1.cpp

; 1133 : 		for( int j=0; j<(int)( m_vecTenderGuild[i].vecMemberId.size() ); j++ )

  000cd	3b d8		 cmp	 ebx, eax
  000cf	7c 92		 jl	 SHORT $LL7@GuildComba
$LN2@GuildComba:
; File C:\Program Files\Microsoft Visual Studio\2022\Professional\VC\Tools\MSVC\14.44.35207\include\vector

; 1915 :         return static_cast<size_type>(_My_data._Mylast - _My_data._Myfirst);

  000d1	8b 5d fc	 mov	 ebx, DWORD PTR _this$1$[ebp]
; File C:\IAGOS\server\v18\Source\Source\_Common\GuildCombat1to1.cpp

; 1131 : 	for( int i=0; i<(int)( m_vecTenderGuild.size() ); i++ )

  000d4	83 c1 2c	 add	 ecx, 44			; 0000002cH
  000d7	ff 45 f8	 inc	 DWORD PTR _i$1$[ebp]
; File C:\Program Files\Microsoft Visual Studio\2022\Professional\VC\Tools\MSVC\14.44.35207\include\vector

; 1915 :         return static_cast<size_type>(_My_data._Mylast - _My_data._Myfirst);

  000da	8b fa		 mov	 edi, edx
; File C:\IAGOS\server\v18\Source\Source\_Common\GuildCombat1to1.cpp

; 1131 : 	for( int i=0; i<(int)( m_vecTenderGuild.size() ); i++ )

  000dc	89 4d f4	 mov	 DWORD PTR tv930[ebp], ecx
; File C:\Program Files\Microsoft Visual Studio\2022\Professional\VC\Tools\MSVC\14.44.35207\include\vector

; 1915 :         return static_cast<size_type>(_My_data._Mylast - _My_data._Myfirst);

  000df	b8 e9 a2 8b 2e	 mov	 eax, 780903145		; 2e8ba2e9H
  000e4	8b 4b 50	 mov	 ecx, DWORD PTR [ebx+80]
  000e7	2b ca		 sub	 ecx, edx
  000e9	f7 e9		 imul	 ecx
; File C:\IAGOS\server\v18\Source\Source\_Common\GuildCombat1to1.cpp

; 1131 : 	for( int i=0; i<(int)( m_vecTenderGuild.size() ); i++ )

  000eb	8b 4d f4	 mov	 ecx, DWORD PTR tv930[ebp]
; File C:\Program Files\Microsoft Visual Studio\2022\Professional\VC\Tools\MSVC\14.44.35207\include\vector

; 1915 :         return static_cast<size_type>(_My_data._Mylast - _My_data._Myfirst);

  000ee	c1 fa 03	 sar	 edx, 3
  000f1	8b c2		 mov	 eax, edx
  000f3	c1 e8 1f	 shr	 eax, 31			; 0000001fH
  000f6	03 c2		 add	 eax, edx
; File C:\IAGOS\server\v18\Source\Source\_Common\GuildCombat1to1.cpp

; 1131 : 	for( int i=0; i<(int)( m_vecTenderGuild.size() ); i++ )

  000f8	39 45 f8	 cmp	 DWORD PTR _i$1$[ebp], eax
  000fb	0f 8c 4f ff ff
	ff		 jl	 $LL4@GuildComba
$LN3@GuildComba:
; File C:\Program Files\Microsoft Visual Studio\2022\Professional\VC\Tools\MSVC\14.44.35207\include\vector

; 1915 :         return static_cast<size_type>(_My_data._Mylast - _My_data._Myfirst);

  00101	8b 7b 40	 mov	 edi, DWORD PTR [ebx+64]
; File C:\IAGOS\server\v18\Source\Source\_Common\GuildCombat1to1.cpp

; 1141 : 	for( int i=0; i<(int)( m_vecGuilCombat1to1.size() ); i++ )

  00104	33 c9		 xor	 ecx, ecx
  00106	89 4d f4	 mov	 DWORD PTR _i$1$[ebp], ecx
; File C:\Program Files\Microsoft Visual Studio\2022\Professional\VC\Tools\MSVC\14.44.35207\include\vector

; 1915 :         return static_cast<size_type>(_My_data._Mylast - _My_data._Myfirst);

  00109	b8 e9 a2 8b 2e	 mov	 eax, 780903145		; 2e8ba2e9H
  0010e	8b 4b 44	 mov	 ecx, DWORD PTR [ebx+68]
  00111	2b cf		 sub	 ecx, edi
  00113	f7 e9		 imul	 ecx
  00115	c1 fa 03	 sar	 edx, 3
  00118	8b c2		 mov	 eax, edx
  0011a	c1 e8 1f	 shr	 eax, 31			; 0000001fH
  0011d	03 c2		 add	 eax, edx
; File C:\IAGOS\server\v18\Source\Source\_Common\GuildCombat1to1.cpp

; 1141 : 	for( int i=0; i<(int)( m_vecGuilCombat1to1.size() ); i++ )

  0011f	85 c0		 test	 eax, eax
  00121	7e 5e		 jle	 SHORT $LN9@GuildComba
; File C:\Program Files\Microsoft Visual Studio\2022\Professional\VC\Tools\MSVC\14.44.35207\include\vector

; 1914 :         auto& _My_data = _Mypair._Myval2;

  00123	33 f6		 xor	 esi, esi
  00125	66 66 66 0f 1f
	84 00 00 00 00
	00		 npad	 11
$LL10@GuildComba:

; 1934 :         return _My_data._Myfirst[_Pos];

  00130	6b 44 3e 28 2c	 imul	 eax, DWORD PTR [esi+edi+40], 44
; File C:\IAGOS\server\v18\Source\Source\_Common\GuildCombat1to1.cpp

; 1145 : 		u_long uGuildId_1 = m_vecTenderGuild[m_vecGuilCombat1to1[i].m_nIndex[1]].ulGuildId;

  00135	8b 4b 4c	 mov	 ecx, DWORD PTR [ebx+76]
; File C:\Program Files\Microsoft Visual Studio\2022\Professional\VC\Tools\MSVC\14.44.35207\include\vector

; 1934 :         return _My_data._Myfirst[_Pos];

  00138	6b 54 3e 24 2c	 imul	 edx, DWORD PTR [esi+edi+36], 44
; File C:\IAGOS\server\v18\Source\Source\_Common\GuildCombat1to1.cpp

; 1146 : 		g_dpDBClient.SendGC1to1WarGuild( dwWorldId, uGuildId_0, uGuildId_1, 'W' );

  0013d	6a 57		 push	 87			; 00000057H
  0013f	ff 34 08	 push	 DWORD PTR [eax+ecx]
  00142	ff 34 0a	 push	 DWORD PTR [edx+ecx]
  00145	ff 74 0a 10	 push	 DWORD PTR [edx+ecx+16]
  00149	b9 00 00 00 00	 mov	 ecx, OFFSET ?g_dpDBClient@@3VCDPDatabaseClient@@A ; g_dpDBClient
  0014e	e8 00 00 00 00	 call	 ?SendGC1to1WarGuild@CDPDatabaseClient@@QAEXKKKD@Z ; CDPDatabaseClient::SendGC1to1WarGuild
; File C:\Program Files\Microsoft Visual Studio\2022\Professional\VC\Tools\MSVC\14.44.35207\include\vector

; 1934 :         return _My_data._Myfirst[_Pos];

  00153	8b 4b 40	 mov	 ecx, DWORD PTR [ebx+64]
  00156	03 ce		 add	 ecx, esi
; File C:\IAGOS\server\v18\Source\Source\_Common\GuildCombat1to1.cpp

; 1148 : 		m_vecGuilCombat1to1[i].GuildCombat1to1WarWait();

  00158	e8 00 00 00 00	 call	 ?GuildCombat1to1WarWait@CGuildCombat1to1@@QAEXXZ ; CGuildCombat1to1::GuildCombat1to1WarWait
; File C:\Program Files\Microsoft Visual Studio\2022\Professional\VC\Tools\MSVC\14.44.35207\include\vector

; 1915 :         return static_cast<size_type>(_My_data._Mylast - _My_data._Myfirst);

  0015d	8b 4b 44	 mov	 ecx, DWORD PTR [ebx+68]
  00160	b8 e9 a2 8b 2e	 mov	 eax, 780903145		; 2e8ba2e9H
  00165	8b 7b 40	 mov	 edi, DWORD PTR [ebx+64]
; File C:\IAGOS\server\v18\Source\Source\_Common\GuildCombat1to1.cpp

; 1141 : 	for( int i=0; i<(int)( m_vecGuilCombat1to1.size() ); i++ )

  00168	83 c6 2c	 add	 esi, 44			; 0000002cH
  0016b	ff 45 f4	 inc	 DWORD PTR _i$1$[ebp]
; File C:\Program Files\Microsoft Visual Studio\2022\Professional\VC\Tools\MSVC\14.44.35207\include\vector

; 1915 :         return static_cast<size_type>(_My_data._Mylast - _My_data._Myfirst);

  0016e	2b cf		 sub	 ecx, edi
  00170	f7 e9		 imul	 ecx
  00172	c1 fa 03	 sar	 edx, 3
  00175	8b c2		 mov	 eax, edx
  00177	c1 e8 1f	 shr	 eax, 31			; 0000001fH
  0017a	03 c2		 add	 eax, edx
; File C:\IAGOS\server\v18\Source\Source\_Common\GuildCombat1to1.cpp

; 1141 : 	for( int i=0; i<(int)( m_vecGuilCombat1to1.size() ); i++ )

  0017c	39 45 f4	 cmp	 DWORD PTR _i$1$[ebp], eax
  0017f	7c af		 jl	 SHORT $LL10@GuildComba
$LN9@GuildComba:
  00181	5f		 pop	 edi

; 1149 : 	}
; 1150 : }

  00182	5e		 pop	 esi
  00183	5b		 pop	 ebx
  00184	8b e5		 mov	 esp, ebp
  00186	5d		 pop	 ebp
  00187	c3		 ret	 0
?GuildCombat1to1War@CGuildCombat1to1Mng@@QAEXXZ ENDP	; CGuildCombat1to1Mng::GuildCombat1to1War
_TEXT	ENDS
; Function compile flags: /Ogtp
; File C:\IAGOS\server\v18\Source\Source\_Common\GuildCombat1to1.cpp
; File C:\Program Files\Microsoft Visual Studio\2022\Professional\VC\Tools\MSVC\14.44.35207\include\vector
; File C:\IAGOS\server\v18\Source\Source\_Common\GuildCombat1to1.cpp
; File C:\Program Files\Microsoft Visual Studio\2022\Professional\VC\Tools\MSVC\14.44.35207\include\vector
; File C:\IAGOS\server\v18\Source\Source\_Common\GuildCombat1to1.cpp
; File C:\Program Files\Microsoft Visual Studio\2022\Professional\VC\Tools\MSVC\14.44.35207\include\xtree
; File C:\IAGOS\server\v18\Source\Source\_Common\GuildCombat1to1.cpp
; File C:\Program Files\Microsoft Visual Studio\2022\Professional\VC\Tools\MSVC\14.44.35207\include\xtree
; File C:\Program Files\Microsoft Visual Studio\2022\Professional\VC\Tools\MSVC\14.44.35207\include\type_traits
; File C:\Program Files\Microsoft Visual Studio\2022\Professional\VC\Tools\MSVC\14.44.35207\include\xtree
; File C:\Program Files\Microsoft Visual Studio\2022\Professional\VC\Tools\MSVC\14.44.35207\include\type_traits
; File C:\Program Files\Microsoft Visual Studio\2022\Professional\VC\Tools\MSVC\14.44.35207\include\xtree
; File C:\IAGOS\server\v18\Source\Source\_Common\Project.h
; File C:\IAGOS\server\v18\Source\Source\_Common\Obj.h
; File C:\IAGOS\server\v18\Source\Source\_Common\GuildCombat1to1.cpp
; File C:\Program Files\Microsoft Visual Studio\2022\Professional\VC\Tools\MSVC\14.44.35207\include\vector
; File C:\IAGOS\server\v18\Source\Source\_Common\GuildCombat1to1.cpp
; File C:\Program Files\Microsoft Visual Studio\2022\Professional\VC\Tools\MSVC\14.44.35207\include\vector
; File C:\IAGOS\server\v18\Source\Source\_Common\GuildCombat1to1.cpp
; File C:\Program Files\Microsoft Visual Studio\2022\Professional\VC\Tools\MSVC\14.44.35207\include\xtree
; File C:\IAGOS\server\v18\Source\Source\_Common\GuildCombat1to1.cpp
; File C:\Program Files\Microsoft Visual Studio\2022\Professional\VC\Tools\MSVC\14.44.35207\include\xtree
; File C:\Program Files\Microsoft Visual Studio\2022\Professional\VC\Tools\MSVC\14.44.35207\include\type_traits
; File C:\Program Files\Microsoft Visual Studio\2022\Professional\VC\Tools\MSVC\14.44.35207\include\xtree
; File C:\Program Files\Microsoft Visual Studio\2022\Professional\VC\Tools\MSVC\14.44.35207\include\type_traits
; File C:\Program Files\Microsoft Visual Studio\2022\Professional\VC\Tools\MSVC\14.44.35207\include\xtree
; File C:\IAGOS\server\v18\Source\Source\_Common\Project.h
; File C:\IAGOS\server\v18\Source\Source\_Common\Obj.h
; File C:\IAGOS\server\v18\Source\Source\_Common\GuildCombat1to1.cpp
; File C:\Program Files\Microsoft Visual Studio\2022\Professional\VC\Tools\MSVC\14.44.35207\include\vector
; File C:\IAGOS\server\v18\Source\Source\_Common\GuildCombat1to1.cpp
; File C:\Program Files\Microsoft Visual Studio\2022\Professional\VC\Tools\MSVC\14.44.35207\include\vector
; File C:\IAGOS\server\v18\Source\Source\_Common\GuildCombat1to1.cpp
; File C:\Program Files\Microsoft Visual Studio\2022\Professional\VC\Tools\MSVC\14.44.35207\include\vector
; File C:\IAGOS\server\v18\Source\Source\_Common\GuildCombat1to1.cpp
; File C:\Program Files\Microsoft Visual Studio\2022\Professional\VC\Tools\MSVC\14.44.35207\include\vector
; File C:\IAGOS\server\v18\Source\Source\_Common\GuildCombat1to1.cpp
; File C:\Program Files\Microsoft Visual Studio\2022\Professional\VC\Tools\MSVC\14.44.35207\include\vector
; File C:\IAGOS\server\v18\Source\Source\_Common\GuildCombat1to1.cpp
;	COMDAT ?GuildCombat1to1EntranceWait@CGuildCombat1to1Mng@@QAEXXZ
_TEXT	SEGMENT
_i$1$ = -12						; size = 4
tv1030 = -8						; size = 4
_this$1$ = -4						; size = 4
?GuildCombat1to1EntranceWait@CGuildCombat1to1Mng@@QAEXXZ PROC ; CGuildCombat1to1Mng::GuildCombat1to1EntranceWait, COMDAT
; _this$ = ecx

; 1593 : {

  00000	55		 push	 ebp
  00001	8b ec		 mov	 ebp, esp
  00003	83 ec 0c	 sub	 esp, 12			; 0000000cH
  00006	53		 push	 ebx
  00007	8b d9		 mov	 ebx, ecx
  00009	56		 push	 esi

; 1594 : 	m_nState = GC1TO1_ENTRANCE;
; 1595 : 	m_nWaitTime = (int)m_Lua.GetGlobalNumber( "EntranceWaitTime" );

  0000a	68 00 00 00 00	 push	 OFFSET ??_C@_0BB@LKDDGLJJ@EntranceWaitTime@
  0000f	89 5d fc	 mov	 DWORD PTR _this$1$[ebp], ebx
  00012	8d 4b 20	 lea	 ecx, DWORD PTR [ebx+32]
  00015	c7 43 04 02 00
	00 00		 mov	 DWORD PTR [ebx+4], 2
  0001c	e8 00 00 00 00	 call	 ?GetGlobalNumber@CLuaBase@@QAENPAD@Z ; CLuaBase::GetGlobalNumber
  00021	e8 00 00 00 00	 call	 __ftol2_sse
  00026	89 43 18	 mov	 DWORD PTR [ebx+24], eax

; 1596 : 	m_dwTime = GetTickCount();

  00029	ff 15 00 00 00
	00		 call	 DWORD PTR __imp__GetTickCount@0
  0002f	89 43 1c	 mov	 DWORD PTR [ebx+28], eax
; File C:\Program Files\Microsoft Visual Studio\2022\Professional\VC\Tools\MSVC\14.44.35207\include\vector

; 1915 :         return static_cast<size_type>(_My_data._Mylast - _My_data._Myfirst);

  00032	b8 e9 a2 8b 2e	 mov	 eax, 780903145		; 2e8ba2e9H
  00037	8b 4b 50	 mov	 ecx, DWORD PTR [ebx+80]
  0003a	8b 73 4c	 mov	 esi, DWORD PTR [ebx+76]
  0003d	2b ce		 sub	 ecx, esi
  0003f	f7 e9		 imul	 ecx
; File C:\IAGOS\server\v18\Source\Source\_Common\GuildCombat1to1.cpp

; 1598 : 	for( int i=0; i<(int)( m_vecTenderGuild.size() ); i++ )

  00041	c7 45 f4 00 00
	00 00		 mov	 DWORD PTR _i$1$[ebp], 0
; File C:\Program Files\Microsoft Visual Studio\2022\Professional\VC\Tools\MSVC\14.44.35207\include\vector

; 1915 :         return static_cast<size_type>(_My_data._Mylast - _My_data._Myfirst);

  00048	c1 fa 03	 sar	 edx, 3
  0004b	8b c2		 mov	 eax, edx
  0004d	c1 e8 1f	 shr	 eax, 31			; 0000001fH
  00050	03 c2		 add	 eax, edx
; File C:\IAGOS\server\v18\Source\Source\_Common\GuildCombat1to1.cpp

; 1598 : 	for( int i=0; i<(int)( m_vecTenderGuild.size() ); i++ )

  00052	85 c0		 test	 eax, eax
  00054	0f 8e 4d 01 00
	00		 jle	 $LN3@GuildComba
  0005a	33 c0		 xor	 eax, eax
  0005c	89 45 f8	 mov	 DWORD PTR tv1030[ebp], eax
  0005f	57		 push	 edi
$LL4@GuildComba:

; 1599 : 	{
; 1600 : 		CGuild* pGuild = g_GuildMng.GetGuild( m_vecTenderGuild[i].ulGuildId );

  00060	ff 34 06	 push	 DWORD PTR [esi+eax]
  00063	b9 00 00 00 00	 mov	 ecx, OFFSET ?g_GuildMng@@3VCGuildMng@@A ; g_GuildMng
  00068	e8 00 00 00 00	 call	 ?GetGuild@CGuildMng@@QAEPAVCGuild@@K@Z ; CGuildMng::GetGuild

; 1601 : 		if( pGuild )

  0006d	85 c0		 test	 eax, eax
  0006f	74 5a		 je	 SHORT $LN180@GuildComba
; File C:\Program Files\Microsoft Visual Studio\2022\Professional\VC\Tools\MSVC\14.44.35207\include\xtree

; 1630 :         _Tree_find_result<_Nodeptr> _Result{{_Scary->_Myhead->_Parent, _Tree_child::_Right}, _Scary->_Myhead};

  00071	8b 3d 28 00 00
	00		 mov	 edi, DWORD PTR ?prj@@3VCProject@@A+40
  00077	8b cf		 mov	 ecx, edi
; File C:\IAGOS\server\v18\Source\Source\_Common\GuildCombat1to1.cpp

; 1603 : 			CUser* pUser = (CUser*)prj.GetUserByID( pGuild->m_idMaster );

  00079	8b 50 40	 mov	 edx, DWORD PTR [eax+64]
; File C:\Program Files\Microsoft Visual Studio\2022\Professional\VC\Tools\MSVC\14.44.35207\include\xtree

; 1630 :         _Tree_find_result<_Nodeptr> _Result{{_Scary->_Myhead->_Parent, _Tree_child::_Right}, _Scary->_Myhead};

  0007c	8b 47 04	 mov	 eax, DWORD PTR [edi+4]

; 1631 :         _Nodeptr _Trynode = _Result._Location._Parent;
; 1632 :         while (!_Trynode->_Isnil) {

  0007f	80 78 0d 00	 cmp	 BYTE PTR [eax+13], 0
  00083	75 14		 jne	 SHORT $LN28@GuildComba
$LL27@GuildComba:
; File C:\Program Files\Microsoft Visual Studio\2022\Professional\VC\Tools\MSVC\14.44.35207\include\type_traits

; 2380 :         return _Left < _Right;

  00085	39 50 10	 cmp	 DWORD PTR [eax+16], edx
; File C:\Program Files\Microsoft Visual Studio\2022\Professional\VC\Tools\MSVC\14.44.35207\include\xtree

; 1634 :             if (_DEBUG_LT_PRED(_Getcomp(), _Traits::_Kfn(_Trynode->_Myval), _Keyval)) {

  00088	73 05		 jae	 SHORT $LN29@GuildComba

; 1635 :                 _Result._Location._Child = _Tree_child::_Right;
; 1636 :                 _Trynode                 = _Trynode->_Right;

  0008a	8b 40 08	 mov	 eax, DWORD PTR [eax+8]

; 1637 :             } else {

  0008d	eb 04		 jmp	 SHORT $LN30@GuildComba
$LN29@GuildComba:

; 1638 :                 _Result._Location._Child = _Tree_child::_Left;
; 1639 :                 _Result._Bound           = _Trynode;

  0008f	8b c8		 mov	 ecx, eax

; 1640 :                 _Trynode                 = _Trynode->_Left;

  00091	8b 00		 mov	 eax, DWORD PTR [eax]
$LN30@GuildComba:

; 1631 :         _Nodeptr _Trynode = _Result._Location._Parent;
; 1632 :         while (!_Trynode->_Isnil) {

  00093	80 78 0d 00	 cmp	 BYTE PTR [eax+13], 0
  00097	74 ec		 je	 SHORT $LL27@GuildComba
$LN28@GuildComba:

; 1624 :         return !_Bound->_Isnil && !_DEBUG_LT_PRED(_Getcomp(), _Keyval, _Traits::_Kfn(_Bound->_Myval));

  00099	80 79 0d 00	 cmp	 BYTE PTR [ecx+13], 0
  0009d	75 05		 jne	 SHORT $LN24@GuildComba
; File C:\Program Files\Microsoft Visual Studio\2022\Professional\VC\Tools\MSVC\14.44.35207\include\type_traits

; 2380 :         return _Left < _Right;

  0009f	3b 51 10	 cmp	 edx, DWORD PTR [ecx+16]
; File C:\Program Files\Microsoft Visual Studio\2022\Professional\VC\Tools\MSVC\14.44.35207\include\xtree

; 1624 :         return !_Bound->_Isnil && !_DEBUG_LT_PRED(_Getcomp(), _Keyval, _Traits::_Kfn(_Bound->_Myval));

  000a2	73 02		 jae	 SHORT $LN23@GuildComba
$LN24@GuildComba:

; 1389 :         return _Get_scary()->_Myhead;

  000a4	8b cf		 mov	 ecx, edi
$LN23@GuildComba:

; 37   :     _Tree_unchecked_const_iterator(_Nodeptr _Pnode, const _Mytree* _Plist) noexcept : _Ptr(_Pnode) {

  000a6	3b cf		 cmp	 ecx, edi
; File C:\IAGOS\server\v18\Source\Source\_Common\Project.h

; 1436 : 	if( i != m_idPlayerToUserPtr.end() )

  000a8	74 27		 je	 SHORT $LN9@GuildComba

; 1437 : 		return i->second;

  000aa	8b 71 14	 mov	 esi, DWORD PTR [ecx+20]
; File C:\IAGOS\server\v18\Source\Source\_Common\Obj.h

; 327  : 	return pObj && ( pObj->IsDelete() == FALSE ); 

  000ad	85 f6		 test	 esi, esi
  000af	74 20		 je	 SHORT $LN9@GuildComba

; 180  : 	BOOL			IsDelete()	{ return (m_dwFlags & OBJ_FLAG_DELETE);  }

  000b1	f6 46 04 01	 test	 BYTE PTR [esi+4], 1

; 327  : 	return pObj && ( pObj->IsDelete() == FALSE ); 

  000b5	75 1a		 jne	 SHORT $LN9@GuildComba
; File C:\IAGOS\server\v18\Source\Source\_Common\GuildCombat1to1.cpp

; 1604 : 			if( IsValidObj( pUser ) && !IsLineUpMember( pUser ) )

  000b7	56		 push	 esi
  000b8	8b cb		 mov	 ecx, ebx
  000ba	e8 00 00 00 00	 call	 ?IsLineUpMember@CGuildCombat1to1Mng@@QAEHPAVCUser@@@Z ; CGuildCombat1to1Mng::IsLineUpMember
  000bf	85 c0		 test	 eax, eax
  000c1	75 08		 jne	 SHORT $LN180@GuildComba

; 1605 : 				SendNowState( pUser );

  000c3	56		 push	 esi
  000c4	8b cb		 mov	 ecx, ebx
  000c6	e8 00 00 00 00	 call	 ?SendNowState@CGuildCombat1to1Mng@@QAEXPAVCUser@@@Z ; CGuildCombat1to1Mng::SendNowState
$LN180@GuildComba:

; 1608 : 		for( int j=0; j<(int)( m_vecTenderGuild[i].vecMemberId.size() ); j++ )

  000cb	8b 3d 28 00 00
	00		 mov	 edi, DWORD PTR ?prj@@3VCProject@@A+40
$LN9@GuildComba:
; File C:\Program Files\Microsoft Visual Studio\2022\Professional\VC\Tools\MSVC\14.44.35207\include\vector

; 1914 :         auto& _My_data = _Mypair._Myval2;

  000d1	8b 75 fc	 mov	 esi, DWORD PTR _this$1$[ebp]
; File C:\IAGOS\server\v18\Source\Source\_Common\GuildCombat1to1.cpp

; 1608 : 		for( int j=0; j<(int)( m_vecTenderGuild[i].vecMemberId.size() ); j++ )

  000d4	33 db		 xor	 ebx, ebx
; File C:\Program Files\Microsoft Visual Studio\2022\Professional\VC\Tools\MSVC\14.44.35207\include\vector

; 1915 :         return static_cast<size_type>(_My_data._Mylast - _My_data._Myfirst);

  000d6	8b 4d f8	 mov	 ecx, DWORD PTR tv1030[ebp]
  000d9	8b 76 4c	 mov	 esi, DWORD PTR [esi+76]
  000dc	8b 44 0e 24	 mov	 eax, DWORD PTR [esi+ecx+36]
  000e0	2b 44 0e 20	 sub	 eax, DWORD PTR [esi+ecx+32]
; File C:\IAGOS\server\v18\Source\Source\_Common\GuildCombat1to1.cpp

; 1608 : 		for( int j=0; j<(int)( m_vecTenderGuild[i].vecMemberId.size() ); j++ )

  000e4	a9 fc ff ff ff	 test	 eax, -4			; fffffffcH
  000e9	0f 8e 86 00 00
	00		 jle	 $LN2@GuildComba
  000ef	90		 npad	 1
$LL7@GuildComba:

; 1610 : 			CUser* pUser = (CUser*)prj.GetUserByID( m_vecTenderGuild[i].vecMemberId[j] );

  000f0	8b 44 0e 20	 mov	 eax, DWORD PTR [esi+ecx+32]
; File C:\Program Files\Microsoft Visual Studio\2022\Professional\VC\Tools\MSVC\14.44.35207\include\xtree

; 1630 :         _Tree_find_result<_Nodeptr> _Result{{_Scary->_Myhead->_Parent, _Tree_child::_Right}, _Scary->_Myhead};

  000f4	8b cf		 mov	 ecx, edi
; File C:\IAGOS\server\v18\Source\Source\_Common\GuildCombat1to1.cpp

; 1610 : 			CUser* pUser = (CUser*)prj.GetUserByID( m_vecTenderGuild[i].vecMemberId[j] );

  000f6	8b 14 98	 mov	 edx, DWORD PTR [eax+ebx*4]
; File C:\Program Files\Microsoft Visual Studio\2022\Professional\VC\Tools\MSVC\14.44.35207\include\xtree

; 1630 :         _Tree_find_result<_Nodeptr> _Result{{_Scary->_Myhead->_Parent, _Tree_child::_Right}, _Scary->_Myhead};

  000f9	8b 47 04	 mov	 eax, DWORD PTR [edi+4]

; 1631 :         _Nodeptr _Trynode = _Result._Location._Parent;
; 1632 :         while (!_Trynode->_Isnil) {

  000fc	80 78 0d 00	 cmp	 BYTE PTR [eax+13], 0
  00100	75 14		 jne	 SHORT $LN106@GuildComba
$LL105@GuildComba:
; File C:\Program Files\Microsoft Visual Studio\2022\Professional\VC\Tools\MSVC\14.44.35207\include\type_traits

; 2380 :         return _Left < _Right;

  00102	39 50 10	 cmp	 DWORD PTR [eax+16], edx
; File C:\Program Files\Microsoft Visual Studio\2022\Professional\VC\Tools\MSVC\14.44.35207\include\xtree

; 1634 :             if (_DEBUG_LT_PRED(_Getcomp(), _Traits::_Kfn(_Trynode->_Myval), _Keyval)) {

  00105	73 05		 jae	 SHORT $LN107@GuildComba

; 1635 :                 _Result._Location._Child = _Tree_child::_Right;
; 1636 :                 _Trynode                 = _Trynode->_Right;

  00107	8b 40 08	 mov	 eax, DWORD PTR [eax+8]

; 1637 :             } else {

  0010a	eb 04		 jmp	 SHORT $LN108@GuildComba
$LN107@GuildComba:

; 1638 :                 _Result._Location._Child = _Tree_child::_Left;
; 1639 :                 _Result._Bound           = _Trynode;

  0010c	8b c8		 mov	 ecx, eax

; 1640 :                 _Trynode                 = _Trynode->_Left;

  0010e	8b 00		 mov	 eax, DWORD PTR [eax]
$LN108@GuildComba:

; 1631 :         _Nodeptr _Trynode = _Result._Location._Parent;
; 1632 :         while (!_Trynode->_Isnil) {

  00110	80 78 0d 00	 cmp	 BYTE PTR [eax+13], 0
  00114	74 ec		 je	 SHORT $LL105@GuildComba
$LN106@GuildComba:

; 1624 :         return !_Bound->_Isnil && !_DEBUG_LT_PRED(_Getcomp(), _Keyval, _Traits::_Kfn(_Bound->_Myval));

  00116	80 79 0d 00	 cmp	 BYTE PTR [ecx+13], 0
  0011a	75 05		 jne	 SHORT $LN102@GuildComba
; File C:\Program Files\Microsoft Visual Studio\2022\Professional\VC\Tools\MSVC\14.44.35207\include\type_traits

; 2380 :         return _Left < _Right;

  0011c	3b 51 10	 cmp	 edx, DWORD PTR [ecx+16]
; File C:\Program Files\Microsoft Visual Studio\2022\Professional\VC\Tools\MSVC\14.44.35207\include\xtree

; 1624 :         return !_Bound->_Isnil && !_DEBUG_LT_PRED(_Getcomp(), _Keyval, _Traits::_Kfn(_Bound->_Myval));

  0011f	73 02		 jae	 SHORT $LN101@GuildComba
$LN102@GuildComba:

; 1389 :         return _Get_scary()->_Myhead;

  00121	8b cf		 mov	 ecx, edi
$LN101@GuildComba:

; 37   :     _Tree_unchecked_const_iterator(_Nodeptr _Pnode, const _Mytree* _Plist) noexcept : _Ptr(_Pnode) {

  00123	3b cf		 cmp	 ecx, edi
; File C:\IAGOS\server\v18\Source\Source\_Common\Project.h

; 1436 : 	if( i != m_idPlayerToUserPtr.end() )

  00125	74 31		 je	 SHORT $LN5@GuildComba

; 1437 : 		return i->second;

  00127	8b 71 14	 mov	 esi, DWORD PTR [ecx+20]
; File C:\IAGOS\server\v18\Source\Source\_Common\Obj.h

; 327  : 	return pObj && ( pObj->IsDelete() == FALSE ); 

  0012a	85 f6		 test	 esi, esi
  0012c	74 2a		 je	 SHORT $LN5@GuildComba

; 180  : 	BOOL			IsDelete()	{ return (m_dwFlags & OBJ_FLAG_DELETE);  }

  0012e	f6 46 04 01	 test	 BYTE PTR [esi+4], 1

; 327  : 	return pObj && ( pObj->IsDelete() == FALSE ); 

  00132	75 24		 jne	 SHORT $LN5@GuildComba
; File C:\IAGOS\server\v18\Source\Source\_Common\GuildCombat1to1.cpp

; 1613 : 				pUser->AddDefinedCaption( TRUE, TID_GAME_GUILDCOMBAT1TO1_ENTRANCETIME, "" );

  00134	68 00 00 00 00	 push	 OFFSET ??_C@_00CNPNBAHC@@
  00139	68 77 0d 00 00	 push	 3447			; 00000d77H
  0013e	6a 01		 push	 1
  00140	56		 push	 esi
  00141	e8 00 00 00 00	 call	 ?AddDefinedCaption@CUser@@QAAXHHPBDZZ ; CUser::AddDefinedCaption

; 1614 : 				SendNowState( pUser );

  00146	8b 4d fc	 mov	 ecx, DWORD PTR _this$1$[ebp]
  00149	83 c4 10	 add	 esp, 16			; 00000010H
  0014c	56		 push	 esi
  0014d	e8 00 00 00 00	 call	 ?SendNowState@CGuildCombat1to1Mng@@QAEXPAVCUser@@@Z ; CGuildCombat1to1Mng::SendNowState
  00152	8b 3d 28 00 00
	00		 mov	 edi, DWORD PTR ?prj@@3VCProject@@A+40
$LN5@GuildComba:
; File C:\Program Files\Microsoft Visual Studio\2022\Professional\VC\Tools\MSVC\14.44.35207\include\vector

; 1914 :         auto& _My_data = _Mypair._Myval2;

  00158	8b 45 fc	 mov	 eax, DWORD PTR _this$1$[ebp]
; File C:\IAGOS\server\v18\Source\Source\_Common\GuildCombat1to1.cpp

; 1608 : 		for( int j=0; j<(int)( m_vecTenderGuild[i].vecMemberId.size() ); j++ )

  0015b	43		 inc	 ebx
; File C:\Program Files\Microsoft Visual Studio\2022\Professional\VC\Tools\MSVC\14.44.35207\include\vector

; 1915 :         return static_cast<size_type>(_My_data._Mylast - _My_data._Myfirst);

  0015c	8b 4d f8	 mov	 ecx, DWORD PTR tv1030[ebp]
  0015f	8b 70 4c	 mov	 esi, DWORD PTR [eax+76]
  00162	8b 44 0e 24	 mov	 eax, DWORD PTR [esi+ecx+36]
  00166	2b 44 0e 20	 sub	 eax, DWORD PTR [esi+ecx+32]
  0016a	c1 f8 02	 sar	 eax, 2
; File C:\IAGOS\server\v18\Source\Source\_Common\GuildCombat1to1.cpp

; 1608 : 		for( int j=0; j<(int)( m_vecTenderGuild[i].vecMemberId.size() ); j++ )

  0016d	3b d8		 cmp	 ebx, eax
  0016f	0f 8c 7b ff ff
	ff		 jl	 $LL7@GuildComba
$LN2@GuildComba:
; File C:\Program Files\Microsoft Visual Studio\2022\Professional\VC\Tools\MSVC\14.44.35207\include\vector

; 1915 :         return static_cast<size_type>(_My_data._Mylast - _My_data._Myfirst);

  00175	8b 5d fc	 mov	 ebx, DWORD PTR _this$1$[ebp]
; File C:\IAGOS\server\v18\Source\Source\_Common\GuildCombat1to1.cpp

; 1598 : 	for( int i=0; i<(int)( m_vecTenderGuild.size() ); i++ )

  00178	83 c1 2c	 add	 ecx, 44			; 0000002cH
  0017b	8b 7d f4	 mov	 edi, DWORD PTR _i$1$[ebp]
; File C:\Program Files\Microsoft Visual Studio\2022\Professional\VC\Tools\MSVC\14.44.35207\include\vector

; 1915 :         return static_cast<size_type>(_My_data._Mylast - _My_data._Myfirst);

  0017e	b8 e9 a2 8b 2e	 mov	 eax, 780903145		; 2e8ba2e9H
; File C:\IAGOS\server\v18\Source\Source\_Common\GuildCombat1to1.cpp

; 1598 : 	for( int i=0; i<(int)( m_vecTenderGuild.size() ); i++ )

  00183	89 4d f8	 mov	 DWORD PTR tv1030[ebp], ecx
  00186	47		 inc	 edi
  00187	89 7d f4	 mov	 DWORD PTR _i$1$[ebp], edi
; File C:\Program Files\Microsoft Visual Studio\2022\Professional\VC\Tools\MSVC\14.44.35207\include\vector

; 1915 :         return static_cast<size_type>(_My_data._Mylast - _My_data._Myfirst);

  0018a	8b 4b 50	 mov	 ecx, DWORD PTR [ebx+80]
  0018d	2b ce		 sub	 ecx, esi
  0018f	f7 e9		 imul	 ecx
  00191	c1 fa 03	 sar	 edx, 3
  00194	8b c2		 mov	 eax, edx
  00196	c1 e8 1f	 shr	 eax, 31			; 0000001fH
  00199	03 c2		 add	 eax, edx
; File C:\IAGOS\server\v18\Source\Source\_Common\GuildCombat1to1.cpp

; 1598 : 	for( int i=0; i<(int)( m_vecTenderGuild.size() ); i++ )

  0019b	3b f8		 cmp	 edi, eax
  0019d	8b 45 f8	 mov	 eax, DWORD PTR tv1030[ebp]
  001a0	0f 8c ba fe ff
	ff		 jl	 $LL4@GuildComba
  001a6	5f		 pop	 edi
$LN3@GuildComba:
  001a7	5e		 pop	 esi

; 1615 : 			}
; 1616 : 		}
; 1617 : 	}
; 1618 : }

  001a8	5b		 pop	 ebx
  001a9	8b e5		 mov	 esp, ebp
  001ab	5d		 pop	 ebp
  001ac	c3		 ret	 0
?GuildCombat1to1EntranceWait@CGuildCombat1to1Mng@@QAEXXZ ENDP ; CGuildCombat1to1Mng::GuildCombat1to1EntranceWait
_TEXT	ENDS
; Function compile flags: /Ogtp
; File C:\IAGOS\server\v18\Source\Source\_Common\GuildCombat1to1.cpp
; File C:\Program Files\Microsoft Visual Studio\2022\Professional\VC\Tools\MSVC\14.44.35207\include\vector
; File C:\IAGOS\server\v18\Source\Source\_Common\GuildCombat1to1.cpp
; File C:\Program Files\Microsoft Visual Studio\2022\Professional\VC\Tools\MSVC\14.44.35207\include\vector
; File C:\IAGOS\server\v18\Source\Source\_Common\GuildCombat1to1.cpp
; File C:\Program Files\Microsoft Visual Studio\2022\Professional\VC\Tools\MSVC\14.44.35207\include\vector
; File C:\IAGOS\server\v18\Source\Source\_Common\GuildCombat1to1.cpp
; File C:\Program Files\Microsoft Visual Studio\2022\Professional\VC\Tools\MSVC\14.44.35207\include\vector
; File C:\Program Files\Microsoft Visual Studio\2022\Professional\VC\Tools\MSVC\14.44.35207\include\xtree
; File C:\IAGOS\server\v18\Source\Source\_Common\GuildCombat1to1.cpp
; File C:\Program Files\Microsoft Visual Studio\2022\Professional\VC\Tools\MSVC\14.44.35207\include\xtree
; File C:\Program Files\Microsoft Visual Studio\2022\Professional\VC\Tools\MSVC\14.44.35207\include\type_traits
; File C:\Program Files\Microsoft Visual Studio\2022\Professional\VC\Tools\MSVC\14.44.35207\include\xtree
; File C:\Program Files\Microsoft Visual Studio\2022\Professional\VC\Tools\MSVC\14.44.35207\include\type_traits
; File C:\Program Files\Microsoft Visual Studio\2022\Professional\VC\Tools\MSVC\14.44.35207\include\xtree
; File C:\IAGOS\server\v18\Source\Source\_Common\Project.h
; File C:\IAGOS\server\v18\Source\Source\_Common\Obj.h
; File C:\IAGOS\server\v18\Source\Source\_Common\GuildCombat1to1.cpp
; File C:\IAGOS\server\v18\Source\Source\_Common\Project.h
; File C:\IAGOS\server\v18\Source\Source\_Common\Obj.h
; File C:\IAGOS\server\v18\Source\Source\_Common\GuildCombat1to1.cpp
; File C:\Program Files\Microsoft Visual Studio\2022\Professional\VC\Tools\MSVC\14.44.35207\include\vector
; File C:\IAGOS\server\v18\Source\Source\_Common\GuildCombat1to1.cpp
; File C:\Program Files\Microsoft Visual Studio\2022\Professional\VC\Tools\MSVC\14.44.35207\include\vector
; File C:\IAGOS\server\v18\Source\Source\_Common\GuildCombat1to1.cpp
; File C:\Program Files\Microsoft Visual Studio\2022\Professional\VC\Tools\MSVC\14.44.35207\include\vector
; File C:\IAGOS\server\v18\Source\Source\_Common\GuildCombat1to1.cpp
;	COMDAT ?SetMemberLineUp@CGuildCombat1to1Mng@@QAEXPAVCUser@@AAV?$vector@KV?$allocator@K@std@@@std@@@Z
_TEXT	SEGMENT
_nIndex$1$ = -16					; size = 4
_pGuild$1$ = -12					; size = 4
_this$1$ = -8						; size = 4
_bMasterOrKingpin$1$ = -4				; size = 4
_pUser$ = 8						; size = 4
_vecMemberId$ = 12					; size = 4
?SetMemberLineUp@CGuildCombat1to1Mng@@QAEXPAVCUser@@AAV?$vector@KV?$allocator@K@std@@@std@@@Z PROC ; CGuildCombat1to1Mng::SetMemberLineUp, COMDAT
; _this$ = ecx

; 1520 : {

  00000	55		 push	 ebp
  00001	8b ec		 mov	 ebp, esp
  00003	83 ec 10	 sub	 esp, 16			; 00000010H
  00006	57		 push	 edi
  00007	8b f9		 mov	 edi, ecx
  00009	89 7d f8	 mov	 DWORD PTR _this$1$[ebp], edi

; 1521 : 	if( m_nState != GC1TO1_OPEN )	// Âü°ˇŔÚ ±¸Ľş ˝Ă°ŁŔĚ ľĆ´Ď´Ů.

  0000c	83 7f 04 01	 cmp	 DWORD PTR [edi+4], 1
  00010	74 14		 je	 SHORT $LN5@SetMemberL

; 1522 : 	{
; 1523 : 		pUser->AddDefinedText( TID_GAME_GUILDCOMBAT1TO1_NOLINEUP );

  00012	8b 4d 08	 mov	 ecx, DWORD PTR _pUser$[ebp]
  00015	68 72 0d 00 00	 push	 3442			; 00000d72H
  0001a	e8 00 00 00 00	 call	 ?AddDefinedText@CUser@@QAEXH@Z ; CUser::AddDefinedText
  0001f	5f		 pop	 edi

; 1589 : }

  00020	8b e5		 mov	 esp, ebp
  00022	5d		 pop	 ebp
  00023	c2 08 00	 ret	 8
$LN5@SetMemberL:
  00026	53		 push	 ebx

; 1524 : 		return;
; 1525 : 	}
; 1526 : 
; 1527 : 	int nIndex = GetTenderGuildIndexByUser( pUser );

  00027	8b 5d 08	 mov	 ebx, DWORD PTR _pUser$[ebp]
  0002a	53		 push	 ebx
  0002b	e8 00 00 00 00	 call	 ?GetTenderGuildIndexByUser@CGuildCombat1to1Mng@@QAEHPAVCUser@@@Z ; CGuildCombat1to1Mng::GetTenderGuildIndexByUser
  00030	89 45 f0	 mov	 DWORD PTR _nIndex$1$[ebp], eax

; 1528 : 	if( nIndex == NULL_ID )	// ŔÔÂűµÇÁö ľĘľŇ°ĹłŞ ĽřŔ§żˇĽ­ ąĐ¸° ±ćµĺ

  00033	83 f8 ff	 cmp	 eax, -1
  00036	75 14		 jne	 SHORT $LN6@SetMemberL

; 1529 : 	{
; 1530 : 		pUser->AddDefinedText( TID_GAME_GUILDCOMBAT1TO1_CANNOT_MAKEUP );

  00038	68 59 0d 00 00	 push	 3417			; 00000d59H
  0003d	8b cb		 mov	 ecx, ebx
  0003f	e8 00 00 00 00	 call	 ?AddDefinedText@CUser@@QAEXH@Z ; CUser::AddDefinedText
  00044	5b		 pop	 ebx
  00045	5f		 pop	 edi

; 1589 : }

  00046	8b e5		 mov	 esp, ebp
  00048	5d		 pop	 ebp
  00049	c2 08 00	 ret	 8
$LN6@SetMemberL:

; 1534 : 	if( (int)( vecMemberId.size() ) < m_nMinJoinPlayer )	// ĂÖĽŇ Âü°ˇŔÚ Ľöş¸´Ů Ŕű´Ů.

  0004c	8b 4f 10	 mov	 ecx, DWORD PTR [edi+16]
  0004f	56		 push	 esi
; File C:\Program Files\Microsoft Visual Studio\2022\Professional\VC\Tools\MSVC\14.44.35207\include\vector

; 1915 :         return static_cast<size_type>(_My_data._Mylast - _My_data._Myfirst);

  00050	8b 75 0c	 mov	 esi, DWORD PTR _vecMemberId$[ebp]
  00053	8b 46 04	 mov	 eax, DWORD PTR [esi+4]
  00056	2b 06		 sub	 eax, DWORD PTR [esi]
  00058	c1 f8 02	 sar	 eax, 2
; File C:\IAGOS\server\v18\Source\Source\_Common\GuildCombat1to1.cpp

; 1534 : 	if( (int)( vecMemberId.size() ) < m_nMinJoinPlayer )	// ĂÖĽŇ Âü°ˇŔÚ Ľöş¸´Ů Ŕű´Ů.

  0005b	3b c1		 cmp	 eax, ecx
  0005d	7d 1d		 jge	 SHORT $LN7@SetMemberL

; 1535 : 	{
; 1536 : 		pUser->AddDefinedText( TID_GAME_GUILDCOMBAT1TO1_LOWMINPLAYER, "%d", m_nMinJoinPlayer );

  0005f	51		 push	 ecx
  00060	68 00 00 00 00	 push	 OFFSET ??_C@_02DPKJAMEF@?$CFd@
  00065	68 74 0d 00 00	 push	 3444			; 00000d74H
  0006a	53		 push	 ebx
  0006b	e8 00 00 00 00	 call	 ?AddDefinedText@CUser@@QAAXHPBDZZ ; CUser::AddDefinedText
  00070	83 c4 10	 add	 esp, 16			; 00000010H
  00073	5e		 pop	 esi
  00074	5b		 pop	 ebx
  00075	5f		 pop	 edi

; 1589 : }

  00076	8b e5		 mov	 esp, ebp
  00078	5d		 pop	 ebp
  00079	c2 08 00	 ret	 8
$LN7@SetMemberL:

; 1537 : 		return;
; 1538 : 	}
; 1539 : 
; 1540 : 	if( (int)( vecMemberId.size() ) > m_nMaxJoinPlayer )

  0007c	8b 4f 0c	 mov	 ecx, DWORD PTR [edi+12]
  0007f	3b c1		 cmp	 eax, ecx
  00081	7e 1d		 jle	 SHORT $LN8@SetMemberL

; 1541 : 	{
; 1542 : 		pUser->AddDefinedText( TID_GAME_GUILDCOMBAT1TO1_OVERMAXPLAYER, "%d", m_nMaxJoinPlayer );

  00083	51		 push	 ecx
  00084	68 00 00 00 00	 push	 OFFSET ??_C@_02DPKJAMEF@?$CFd@
  00089	68 27 0e 00 00	 push	 3623			; 00000e27H
  0008e	53		 push	 ebx
  0008f	e8 00 00 00 00	 call	 ?AddDefinedText@CUser@@QAAXHPBDZZ ; CUser::AddDefinedText
  00094	83 c4 10	 add	 esp, 16			; 00000010H
  00097	5e		 pop	 esi
  00098	5b		 pop	 ebx
  00099	5f		 pop	 edi

; 1589 : }

  0009a	8b e5		 mov	 esp, ebp
  0009c	5d		 pop	 ebp
  0009d	c2 08 00	 ret	 8
$LN8@SetMemberL:

; 1543 : 		return;
; 1544 : 	}
; 1545 : 
; 1546 : 	// ±ćµĺ¸¶˝şĹÍ ¶Ç´Â Ĺ·ÇÉ±Ţ¸¸ °ˇ´É
; 1547 : 	CGuild* pGuild = pUser->GetGuild();

  000a0	8b cb		 mov	 ecx, ebx
  000a2	e8 00 00 00 00	 call	 ?GetGuild@CMover@@QAEPAVCGuild@@XZ ; CMover::GetGuild
  000a7	89 45 f4	 mov	 DWORD PTR _pGuild$1$[ebp], eax

; 1548 : 	if( pGuild )

  000aa	85 c0		 test	 eax, eax
  000ac	74 31		 je	 SHORT $LN11@SetMemberL

; 1549 : 	{
; 1550 : 		CGuildMember* pGuildMember = pGuild->GetMember( pUser->m_idPlayer );

  000ae	ff b3 34 02 00
	00		 push	 DWORD PTR [ebx+564]
  000b4	8b c8		 mov	 ecx, eax
  000b6	e8 00 00 00 00	 call	 ?GetMember@CGuild@@QAEPAVCGuildMember@@K@Z ; CGuild::GetMember

; 1551 : 		if( pGuildMember )

  000bb	85 c0		 test	 eax, eax
  000bd	74 20		 je	 SHORT $LN11@SetMemberL

; 1552 : 		{
; 1553 : 			if( pGuildMember->m_nMemberLv != GUD_MASTER && pGuildMember->m_nMemberLv != GUD_KINGPIN )

  000bf	8a 40 48	 mov	 al, BYTE PTR [eax+72]
  000c2	84 c0		 test	 al, al
  000c4	74 19		 je	 SHORT $LN11@SetMemberL
  000c6	3c 01		 cmp	 al, 1
  000c8	74 15		 je	 SHORT $LN11@SetMemberL

; 1554 : 			{
; 1555 : 				pUser->AddDefinedText( TID_GAME_GUILDCOMBAT1TO1_NOLINEUPAUTH );

  000ca	68 75 0d 00 00	 push	 3445			; 00000d75H

; 1580 : 	{
; 1581 : 		pUser->AddDefinedText( TID_GAME_GUILDCOMBAT1TO1_HAVENOT_MASTER );

  000cf	8b cb		 mov	 ecx, ebx
  000d1	e8 00 00 00 00	 call	 ?AddDefinedText@CUser@@QAEXH@Z ; CUser::AddDefinedText
  000d6	5e		 pop	 esi
  000d7	5b		 pop	 ebx
  000d8	5f		 pop	 edi

; 1589 : }

  000d9	8b e5		 mov	 esp, ebp
  000db	5d		 pop	 ebp
  000dc	c2 08 00	 ret	 8
$LN11@SetMemberL:
; File C:\Program Files\Microsoft Visual Studio\2022\Professional\VC\Tools\MSVC\14.44.35207\include\vector

; 1915 :         return static_cast<size_type>(_My_data._Mylast - _My_data._Myfirst);

  000df	8b 46 04	 mov	 eax, DWORD PTR [esi+4]
; File C:\IAGOS\server\v18\Source\Source\_Common\GuildCombat1to1.cpp

; 1563 : 	for( int i=0; i<(int)( vecMemberId.size() ); i++ )

  000e2	33 ff		 xor	 edi, edi
; File C:\Program Files\Microsoft Visual Studio\2022\Professional\VC\Tools\MSVC\14.44.35207\include\vector

; 1915 :         return static_cast<size_type>(_My_data._Mylast - _My_data._Myfirst);

  000e4	8b 0e		 mov	 ecx, DWORD PTR [esi]
  000e6	2b c1		 sub	 eax, ecx
; File C:\IAGOS\server\v18\Source\Source\_Common\GuildCombat1to1.cpp

; 1561 : 	BOOL bMasterOrKingpin = FALSE;

  000e8	c7 45 fc 00 00
	00 00		 mov	 DWORD PTR _bMasterOrKingpin$1$[ebp], 0

; 1563 : 	for( int i=0; i<(int)( vecMemberId.size() ); i++ )

  000ef	a9 fc ff ff ff	 test	 eax, -4			; fffffffcH
  000f4	0f 8e 1d 01 00
	00		 jle	 $LN126@SetMemberL
; File C:\Program Files\Microsoft Visual Studio\2022\Professional\VC\Tools\MSVC\14.44.35207\include\vector

; 1914 :         auto& _My_data = _Mypair._Myval2;

  000fa	8b 35 28 00 00
	00		 mov	 esi, DWORD PTR ?prj@@3VCProject@@A+40
$LL4@SetMemberL:
; File C:\Program Files\Microsoft Visual Studio\2022\Professional\VC\Tools\MSVC\14.44.35207\include\xtree

; 1630 :         _Tree_find_result<_Nodeptr> _Result{{_Scary->_Myhead->_Parent, _Tree_child::_Right}, _Scary->_Myhead};

  00100	8b 46 04	 mov	 eax, DWORD PTR [esi+4]
; File C:\IAGOS\server\v18\Source\Source\_Common\GuildCombat1to1.cpp

; 1565 : 		CUser* pUserTemp = (CUser*)prj.GetUserByID( vecMemberId[i] );

  00103	8b 14 b9	 mov	 edx, DWORD PTR [ecx+edi*4]
; File C:\Program Files\Microsoft Visual Studio\2022\Professional\VC\Tools\MSVC\14.44.35207\include\xtree

; 1630 :         _Tree_find_result<_Nodeptr> _Result{{_Scary->_Myhead->_Parent, _Tree_child::_Right}, _Scary->_Myhead};

  00106	8b ce		 mov	 ecx, esi

; 1631 :         _Nodeptr _Trynode = _Result._Location._Parent;
; 1632 :         while (!_Trynode->_Isnil) {

  00108	80 78 0d 00	 cmp	 BYTE PTR [eax+13], 0
  0010c	75 16		 jne	 SHORT $LN41@SetMemberL
  0010e	66 90		 npad	 2
$LL40@SetMemberL:
; File C:\Program Files\Microsoft Visual Studio\2022\Professional\VC\Tools\MSVC\14.44.35207\include\type_traits

; 2380 :         return _Left < _Right;

  00110	39 50 10	 cmp	 DWORD PTR [eax+16], edx
; File C:\Program Files\Microsoft Visual Studio\2022\Professional\VC\Tools\MSVC\14.44.35207\include\xtree

; 1634 :             if (_DEBUG_LT_PRED(_Getcomp(), _Traits::_Kfn(_Trynode->_Myval), _Keyval)) {

  00113	73 05		 jae	 SHORT $LN42@SetMemberL

; 1635 :                 _Result._Location._Child = _Tree_child::_Right;
; 1636 :                 _Trynode                 = _Trynode->_Right;

  00115	8b 40 08	 mov	 eax, DWORD PTR [eax+8]

; 1637 :             } else {

  00118	eb 04		 jmp	 SHORT $LN43@SetMemberL
$LN42@SetMemberL:

; 1638 :                 _Result._Location._Child = _Tree_child::_Left;
; 1639 :                 _Result._Bound           = _Trynode;

  0011a	8b c8		 mov	 ecx, eax

; 1640 :                 _Trynode                 = _Trynode->_Left;

  0011c	8b 00		 mov	 eax, DWORD PTR [eax]
$LN43@SetMemberL:

; 1631 :         _Nodeptr _Trynode = _Result._Location._Parent;
; 1632 :         while (!_Trynode->_Isnil) {

  0011e	80 78 0d 00	 cmp	 BYTE PTR [eax+13], 0
  00122	74 ec		 je	 SHORT $LL40@SetMemberL
$LN41@SetMemberL:

; 1624 :         return !_Bound->_Isnil && !_DEBUG_LT_PRED(_Getcomp(), _Keyval, _Traits::_Kfn(_Bound->_Myval));

  00124	80 79 0d 00	 cmp	 BYTE PTR [ecx+13], 0
  00128	75 05		 jne	 SHORT $LN37@SetMemberL
; File C:\Program Files\Microsoft Visual Studio\2022\Professional\VC\Tools\MSVC\14.44.35207\include\type_traits

; 2380 :         return _Left < _Right;

  0012a	3b 51 10	 cmp	 edx, DWORD PTR [ecx+16]
; File C:\Program Files\Microsoft Visual Studio\2022\Professional\VC\Tools\MSVC\14.44.35207\include\xtree

; 1624 :         return !_Bound->_Isnil && !_DEBUG_LT_PRED(_Getcomp(), _Keyval, _Traits::_Kfn(_Bound->_Myval));

  0012d	73 02		 jae	 SHORT $LN36@SetMemberL
$LN37@SetMemberL:

; 1389 :         return _Get_scary()->_Myhead;

  0012f	8b ce		 mov	 ecx, esi
$LN36@SetMemberL:

; 37   :     _Tree_unchecked_const_iterator(_Nodeptr _Pnode, const _Mytree* _Plist) noexcept : _Ptr(_Pnode) {

  00131	3b ce		 cmp	 ecx, esi
; File C:\IAGOS\server\v18\Source\Source\_Common\Project.h

; 1436 : 	if( i != m_idPlayerToUserPtr.end() )

  00133	74 38		 je	 SHORT $LN32@SetMemberL

; 1437 : 		return i->second;

  00135	8b 41 14	 mov	 eax, DWORD PTR [ecx+20]
; File C:\IAGOS\server\v18\Source\Source\_Common\Obj.h

; 327  : 	return pObj && ( pObj->IsDelete() == FALSE ); 

  00138	8b d0		 mov	 edx, eax
  0013a	85 c0		 test	 eax, eax
  0013c	74 33		 je	 SHORT $LN128@SetMemberL

; 180  : 	BOOL			IsDelete()	{ return (m_dwFlags & OBJ_FLAG_DELETE);  }

  0013e	f6 40 04 01	 test	 BYTE PTR [eax+4], 1
  00142	8d 48 04	 lea	 ecx, DWORD PTR [eax+4]

; 327  : 	return pObj && ( pObj->IsDelete() == FALSE ); 

  00145	75 2d		 jne	 SHORT $LN123@SetMemberL
; File C:\IAGOS\server\v18\Source\Source\_Common\GuildCombat1to1.cpp

; 1566 : 		if( IsValidObj( pUserTemp ) && pUserTemp->GetLevel() < m_nMinJoinPlayerLevel )

  00147	8b 5d f8	 mov	 ebx, DWORD PTR _this$1$[ebp]
  0014a	8b 82 d8 05 00
	00		 mov	 eax, DWORD PTR [edx+1496]
  00150	3b 43 14	 cmp	 eax, DWORD PTR [ebx+20]
  00153	8b 5d 08	 mov	 ebx, DWORD PTR _pUser$[ebp]
  00156	7d 1c		 jge	 SHORT $LN123@SetMemberL

; 1567 : 		{
; 1568 : 			pUser->AddDefinedText( TID_GAME_GUILDCOMBAT1TO1_LIMIT_LEVEL_NOTICE );

  00158	68 5b 0d 00 00	 push	 3419			; 00000d5bH

; 1580 : 	{
; 1581 : 		pUser->AddDefinedText( TID_GAME_GUILDCOMBAT1TO1_HAVENOT_MASTER );

  0015d	8b cb		 mov	 ecx, ebx
  0015f	e8 00 00 00 00	 call	 ?AddDefinedText@CUser@@QAEXH@Z ; CUser::AddDefinedText
  00164	5e		 pop	 esi
  00165	5b		 pop	 ebx
  00166	5f		 pop	 edi

; 1589 : }

  00167	8b e5		 mov	 esp, ebp
  00169	5d		 pop	 ebp
  0016a	c2 08 00	 ret	 8
$LN32@SetMemberL:
; File C:\IAGOS\server\v18\Source\Source\_Common\Project.h

; 1438 : 	return NULL;

  0016d	33 d2		 xor	 edx, edx
  0016f	33 c0		 xor	 eax, eax
$LN128@SetMemberL:
  00171	8d 48 04	 lea	 ecx, DWORD PTR [eax+4]
$LN123@SetMemberL:
; File C:\IAGOS\server\v18\Source\Source\_Common\Obj.h

; 327  : 	return pObj && ( pObj->IsDelete() == FALSE ); 

  00174	85 d2		 test	 edx, edx
  00176	74 35		 je	 SHORT $LN2@SetMemberL

; 180  : 	BOOL			IsDelete()	{ return (m_dwFlags & OBJ_FLAG_DELETE);  }

  00178	f6 01 01	 test	 BYTE PTR [ecx], 1

; 327  : 	return pObj && ( pObj->IsDelete() == FALSE ); 

  0017b	75 30		 jne	 SHORT $LN2@SetMemberL
; File C:\IAGOS\server\v18\Source\Source\_Common\GuildCombat1to1.cpp

; 1571 : 		if( IsValidObj( pUserTemp ) && !bMasterOrKingpin )

  0017d	83 7d fc 00	 cmp	 DWORD PTR _bMasterOrKingpin$1$[ebp], 0
  00181	75 2a		 jne	 SHORT $LN2@SetMemberL

; 1572 : 		{
; 1573 : 			CGuildMember* pGuildMember = pGuild->GetMember( pUserTemp->m_idPlayer );

  00183	ff b2 34 02 00
	00		 push	 DWORD PTR [edx+564]
  00189	8b 4d f4	 mov	 ecx, DWORD PTR _pGuild$1$[ebp]
  0018c	e8 00 00 00 00	 call	 ?GetMember@CGuild@@QAEPAVCGuildMember@@K@Z ; CGuild::GetMember

; 1574 : 			if( pGuildMember )

  00191	85 c0		 test	 eax, eax
  00193	74 12		 je	 SHORT $LN131@SetMemberL

; 1575 : 				if( pGuildMember->m_nMemberLv == GUD_MASTER || pGuildMember->m_nMemberLv == GUD_KINGPIN )

  00195	8a 40 48	 mov	 al, BYTE PTR [eax+72]
  00198	84 c0		 test	 al, al
  0019a	74 04		 je	 SHORT $LN16@SetMemberL
  0019c	3c 01		 cmp	 al, 1
  0019e	75 07		 jne	 SHORT $LN131@SetMemberL
$LN16@SetMemberL:

; 1576 : 					bMasterOrKingpin = TRUE;	

  001a0	c7 45 fc 01 00
	00 00		 mov	 DWORD PTR _bMasterOrKingpin$1$[ebp], 1
$LN131@SetMemberL:

; 1563 : 	for( int i=0; i<(int)( vecMemberId.size() ); i++ )

  001a7	8b 35 28 00 00
	00		 mov	 esi, DWORD PTR ?prj@@3VCProject@@A+40
$LN2@SetMemberL:
; File C:\Program Files\Microsoft Visual Studio\2022\Professional\VC\Tools\MSVC\14.44.35207\include\vector

; 1915 :         return static_cast<size_type>(_My_data._Mylast - _My_data._Myfirst);

  001ad	8b 55 0c	 mov	 edx, DWORD PTR _vecMemberId$[ebp]
; File C:\IAGOS\server\v18\Source\Source\_Common\GuildCombat1to1.cpp

; 1563 : 	for( int i=0; i<(int)( vecMemberId.size() ); i++ )

  001b0	47		 inc	 edi
; File C:\Program Files\Microsoft Visual Studio\2022\Professional\VC\Tools\MSVC\14.44.35207\include\vector

; 1915 :         return static_cast<size_type>(_My_data._Mylast - _My_data._Myfirst);

  001b1	8b 42 04	 mov	 eax, DWORD PTR [edx+4]
  001b4	8b 0a		 mov	 ecx, DWORD PTR [edx]
  001b6	2b c1		 sub	 eax, ecx
  001b8	c1 f8 02	 sar	 eax, 2
; File C:\IAGOS\server\v18\Source\Source\_Common\GuildCombat1to1.cpp

; 1563 : 	for( int i=0; i<(int)( vecMemberId.size() ); i++ )

  001bb	3b f8		 cmp	 edi, eax
  001bd	0f 8c 3d ff ff
	ff		 jl	 $LL4@SetMemberL

; 1577 : 		}
; 1578 : 	}
; 1579 : 	if( !bMasterOrKingpin )

  001c3	83 7d fc 00	 cmp	 DWORD PTR _bMasterOrKingpin$1$[ebp], 0
  001c7	74 4e		 je	 SHORT $LN126@SetMemberL
; File C:\Program Files\Microsoft Visual Studio\2022\Professional\VC\Tools\MSVC\14.44.35207\include\vector

; 1934 :         return _My_data._Myfirst[_Pos];

  001c9	6b 75 f0 2c	 imul	 esi, DWORD PTR _nIndex$1$[ebp], 44

; 1808 :         auto& _My_data    = _Mypair._Myval2;

  001cd	8b 7d f8	 mov	 edi, DWORD PTR _this$1$[ebp]
  001d0	8b 47 4c	 mov	 eax, DWORD PTR [edi+76]

; 1809 :         pointer& _Myfirst = _My_data._Myfirst;
; 1810 :         pointer& _Mylast  = _My_data._Mylast;
; 1811 : 
; 1812 :         if (_Myfirst == _Mylast) { // already empty, nothing to do

  001d3	8b 4c 30 20	 mov	 ecx, DWORD PTR [eax+esi+32]
  001d7	3b 4c 30 24	 cmp	 ecx, DWORD PTR [eax+esi+36]
  001db	74 04		 je	 SHORT $LN106@SetMemberL

; 1813 :             // This is an optimization for debug mode: we can avoid taking the debug lock to invalidate iterators.
; 1814 :             // Note that when clearing an empty vector, this will preserve past-the-end iterators, which is allowed by
; 1815 :             // N4950 [sequence.reqmts]/54 "a.clear() [...] may invalidate the past-the-end iterator".
; 1816 :             return;
; 1817 :         }
; 1818 : 
; 1819 :         _My_data._Orphan_all();
; 1820 :         _Destroy_range(_Myfirst, _Mylast, _Getal());
; 1821 :         _ASAN_VECTOR_MODIFY(static_cast<difference_type>(_Myfirst - _Mylast)); // negative when destroying elements
; 1822 :         _Mylast = _Myfirst;

  001dd	89 4c 30 24	 mov	 DWORD PTR [eax+esi+36], ecx
$LN106@SetMemberL:
; File C:\IAGOS\server\v18\Source\Source\_Common\GuildCombat1to1.cpp

; 1586 : 	m_vecTenderGuild[nIndex].vecMemberId = vecMemberId;

  001e1	8b 4f 4c	 mov	 ecx, DWORD PTR [edi+76]
  001e4	83 c1 20	 add	 ecx, 32			; 00000020H
  001e7	52		 push	 edx
  001e8	03 ce		 add	 ecx, esi
  001ea	e8 00 00 00 00	 call	 ??4?$vector@KV?$allocator@K@std@@@std@@QAEAAV01@ABV01@@Z ; std::vector<unsigned long,std::allocator<unsigned long> >::operator=

; 1587 : 	pUser->AddDefinedText( TID_GAME_GUILDCOMBAT1TO1_LINEUPCOMPLETE );

  001ef	68 76 0d 00 00	 push	 3446			; 00000d76H
  001f4	8b cb		 mov	 ecx, ebx
  001f6	e8 00 00 00 00	 call	 ?AddDefinedText@CUser@@QAEXH@Z ; CUser::AddDefinedText

; 1588 : 	g_dpDBClient.SendGC1to1LineUp( m_vecTenderGuild[nIndex].ulGuildId, vecMemberId );

  001fb	8b 47 4c	 mov	 eax, DWORD PTR [edi+76]
  001fe	b9 00 00 00 00	 mov	 ecx, OFFSET ?g_dpDBClient@@3VCDPDatabaseClient@@A ; g_dpDBClient
  00203	ff 75 0c	 push	 DWORD PTR _vecMemberId$[ebp]
  00206	ff 34 06	 push	 DWORD PTR [esi+eax]
  00209	e8 00 00 00 00	 call	 ?SendGC1to1LineUp@CDPDatabaseClient@@QAEXKAAV?$vector@KV?$allocator@K@std@@@std@@@Z ; CDPDatabaseClient::SendGC1to1LineUp
  0020e	5e		 pop	 esi
  0020f	5b		 pop	 ebx
  00210	5f		 pop	 edi

; 1589 : }

  00211	8b e5		 mov	 esp, ebp
  00213	5d		 pop	 ebp
  00214	c2 08 00	 ret	 8
$LN126@SetMemberL:

; 1580 : 	{
; 1581 : 		pUser->AddDefinedText( TID_GAME_GUILDCOMBAT1TO1_HAVENOT_MASTER );

  00217	68 5f 0d 00 00	 push	 3423			; 00000d5fH
  0021c	8b cb		 mov	 ecx, ebx
  0021e	e8 00 00 00 00	 call	 ?AddDefinedText@CUser@@QAEXH@Z ; CUser::AddDefinedText
  00223	5e		 pop	 esi
  00224	5b		 pop	 ebx
  00225	5f		 pop	 edi

; 1589 : }

  00226	8b e5		 mov	 esp, ebp
  00228	5d		 pop	 ebp
  00229	c2 08 00	 ret	 8
?SetMemberLineUp@CGuildCombat1to1Mng@@QAEXPAVCUser@@AAV?$vector@KV?$allocator@K@std@@@std@@@Z ENDP ; CGuildCombat1to1Mng::SetMemberLineUp
_TEXT	ENDS
; Function compile flags: /Ogtp
; File C:\IAGOS\server\v18\Source\Source\_Common\GuildCombat1to1.cpp
; File C:\Program Files\Microsoft Visual Studio\2022\Professional\VC\Tools\MSVC\14.44.35207\include\vector
; File C:\IAGOS\server\v18\Source\Source\_Common\GuildCombat1to1.cpp
;	COMDAT ?SendMemberLineUpOpenWnd@CGuildCombat1to1Mng@@QAEXPAVCUser@@@Z
_TEXT	SEGMENT
_pUser$ = 8						; size = 4
?SendMemberLineUpOpenWnd@CGuildCombat1to1Mng@@QAEXPAVCUser@@@Z PROC ; CGuildCombat1to1Mng::SendMemberLineUpOpenWnd, COMDAT
; _this$ = ecx

; 1486 : {

  00000	55		 push	 ebp
  00001	8b ec		 mov	 ebp, esp
  00003	57		 push	 edi
  00004	8b f9		 mov	 edi, ecx

; 1487 : 	if( m_nState != GC1TO1_OPEN )

  00006	83 7f 04 01	 cmp	 DWORD PTR [edi+4], 1
  0000a	74 12		 je	 SHORT $LN2@SendMember

; 1488 : 	{
; 1489 : 		pUser->AddDefinedText( TID_GAME_GUILDCOMBAT1TO1_NOLINEUP );

  0000c	8b 4d 08	 mov	 ecx, DWORD PTR _pUser$[ebp]
  0000f	68 72 0d 00 00	 push	 3442			; 00000d72H
  00014	e8 00 00 00 00	 call	 ?AddDefinedText@CUser@@QAEXH@Z ; CUser::AddDefinedText
  00019	5f		 pop	 edi

; 1516 : }

  0001a	5d		 pop	 ebp
  0001b	c2 04 00	 ret	 4
$LN2@SendMember:
  0001e	53		 push	 ebx
  0001f	56		 push	 esi

; 1490 : 		return;
; 1491 : 	}
; 1492 : 	
; 1493 : 	int nIndex = GetTenderGuildIndexByUser( pUser );

  00020	8b 75 08	 mov	 esi, DWORD PTR _pUser$[ebp]
  00023	56		 push	 esi
  00024	e8 00 00 00 00	 call	 ?GetTenderGuildIndexByUser@CGuildCombat1to1Mng@@QAEHPAVCUser@@@Z ; CGuildCombat1to1Mng::GetTenderGuildIndexByUser
  00029	8b d8		 mov	 ebx, eax

; 1494 : 	if( nIndex == NULL_ID )

  0002b	83 fb ff	 cmp	 ebx, -1
  0002e	75 13		 jne	 SHORT $LN3@SendMember

; 1495 : 	{
; 1496 : 		pUser->AddDefinedText( TID_GAME_GUILDCOMBAT1TO1_CANNOT_MAKEUP );

  00030	68 59 0d 00 00	 push	 3417			; 00000d59H
  00035	8b ce		 mov	 ecx, esi
  00037	e8 00 00 00 00	 call	 ?AddDefinedText@CUser@@QAEXH@Z ; CUser::AddDefinedText
  0003c	5e		 pop	 esi
  0003d	5b		 pop	 ebx
  0003e	5f		 pop	 edi

; 1516 : }

  0003f	5d		 pop	 ebp
  00040	c2 04 00	 ret	 4
$LN3@SendMember:

; 1497 : 		return;
; 1498 : 	}
; 1499 : 	
; 1500 : 	// ±ćµĺ¸¶˝şĹÍ ¶Ç´Â Ĺ·ÇÉ±Ţ¸¸ °ˇ´É
; 1501 : 	if( !IsGuildMaster( pUser ) )

  00043	56		 push	 esi
  00044	8b cf		 mov	 ecx, edi
  00046	e8 00 00 00 00	 call	 ?IsGuildMaster@CGuildCombat1to1Mng@@QAEHPAVCUser@@@Z ; CGuildCombat1to1Mng::IsGuildMaster
  0004b	85 c0		 test	 eax, eax
  0004d	75 31		 jne	 SHORT $LN6@SendMember

; 1502 : 	{
; 1503 : 		CGuild* pGuild = pUser->GetGuild();

  0004f	8b ce		 mov	 ecx, esi
  00051	e8 00 00 00 00	 call	 ?GetGuild@CMover@@QAEPAVCGuild@@XZ ; CMover::GetGuild

; 1504 : 		if( pGuild )

  00056	85 c0		 test	 eax, eax
  00058	74 26		 je	 SHORT $LN6@SendMember

; 1505 : 		{
; 1506 : 			CGuildMember* pGuildMember = pGuild->GetMember( pUser->m_idPlayer );

  0005a	ff b6 34 02 00
	00		 push	 DWORD PTR [esi+564]
  00060	8b c8		 mov	 ecx, eax
  00062	e8 00 00 00 00	 call	 ?GetMember@CGuild@@QAEPAVCGuildMember@@K@Z ; CGuild::GetMember

; 1507 : 			if( pGuildMember->m_nMemberLv != GUD_KINGPIN )

  00067	80 78 48 01	 cmp	 BYTE PTR [eax+72], 1
  0006b	74 13		 je	 SHORT $LN6@SendMember

; 1508 : 			{
; 1509 : 				pUser->AddDefinedText( TID_GAME_GUILDCOMBAT1TO1_NOLINEUPAUTH );

  0006d	68 75 0d 00 00	 push	 3445			; 00000d75H
  00072	8b ce		 mov	 ecx, esi
  00074	e8 00 00 00 00	 call	 ?AddDefinedText@CUser@@QAEXH@Z ; CUser::AddDefinedText
  00079	5e		 pop	 esi
  0007a	5b		 pop	 ebx
  0007b	5f		 pop	 edi

; 1516 : }

  0007c	5d		 pop	 ebp
  0007d	c2 04 00	 ret	 4
$LN6@SendMember:

; 1515 : 	pUser->AddGC1to1MemberLineUpOpenWnd( m_vecTenderGuild[nIndex].vecMemberId );

  00080	8b 47 4c	 mov	 eax, DWORD PTR [edi+76]
; File C:\Program Files\Microsoft Visual Studio\2022\Professional\VC\Tools\MSVC\14.44.35207\include\vector

; 1934 :         return _My_data._Myfirst[_Pos];

  00083	6b cb 2c	 imul	 ecx, ebx, 44
; File C:\IAGOS\server\v18\Source\Source\_Common\GuildCombat1to1.cpp

; 1515 : 	pUser->AddGC1to1MemberLineUpOpenWnd( m_vecTenderGuild[nIndex].vecMemberId );

  00086	83 c0 20	 add	 eax, 32			; 00000020H
  00089	03 c1		 add	 eax, ecx
  0008b	8b ce		 mov	 ecx, esi
  0008d	50		 push	 eax
  0008e	e8 00 00 00 00	 call	 ?AddGC1to1MemberLineUpOpenWnd@CUser@@QAEXAAV?$vector@KV?$allocator@K@std@@@std@@@Z ; CUser::AddGC1to1MemberLineUpOpenWnd
  00093	5e		 pop	 esi
  00094	5b		 pop	 ebx
  00095	5f		 pop	 edi

; 1516 : }

  00096	5d		 pop	 ebp
  00097	c2 04 00	 ret	 4
?SendMemberLineUpOpenWnd@CGuildCombat1to1Mng@@QAEXPAVCUser@@@Z ENDP ; CGuildCombat1to1Mng::SendMemberLineUpOpenWnd
_TEXT	ENDS
; Function compile flags: /Ogtp
; File C:\IAGOS\server\v18\Source\Source\_Common\GuildCombat1to1.cpp
; File C:\Program Files\Microsoft Visual Studio\2022\Professional\VC\Tools\MSVC\14.44.35207\include\vector
; File C:\IAGOS\server\v18\Source\Source\_Common\GuildCombat1to1.cpp
; File C:\Program Files\Microsoft Visual Studio\2022\Professional\VC\Tools\MSVC\14.44.35207\include\vector
; File C:\IAGOS\server\v18\Source\Source\_Common\GuildCombat1to1.cpp
; File C:\Program Files\Microsoft Visual Studio\2022\Professional\VC\Tools\MSVC\14.44.35207\atlmfc\include\afxstr.h
; File C:\Program Files\Microsoft Visual Studio\2022\Professional\VC\Tools\MSVC\14.44.35207\atlmfc\include\atlsimpstr.h
; File C:\IAGOS\server\v18\Source\Source\_Common\Project.h
; File C:\IAGOS\server\v18\Source\Source\_Common\GuildCombat1to1.cpp
; File C:\IAGOS\server\v18\Source\Source\_Common\Project.h
; File C:\IAGOS\server\v18\Source\Source\_Common\data.h
; File C:\IAGOS\server\v18\Source\Source\_Common\Project.h
; File C:\IAGOS\server\v18\Source\Source\_Common\GuildCombat1to1.cpp
; File C:\Program Files\Microsoft Visual Studio\2022\Professional\VC\Tools\MSVC\14.44.35207\atlmfc\include\atlsimpstr.h
; File C:\IAGOS\server\v18\Source\Source\_Common\GuildCombat1to1.cpp
; File C:\Program Files\Microsoft Visual Studio\2022\Professional\VC\Tools\MSVC\14.44.35207\atlmfc\include\atlsimpstr.h
; File C:\IAGOS\server\v18\Source\Source\_Common\GuildCombat1to1.cpp
;	COMDAT ?SetFailedTenderGuild@CGuildCombat1to1Mng@@QAEXPAVCUser@@@Z
_TEXT	SEGMENT
$T2 = -224						; size = 4
_strTemp$3 = -220					; size = 4
tv625 = -220						; size = 4
_aLogItem$4 = -216					; size = 200
__$ArrayPad$ = -16					; size = 4
__$EHRec$ = -12						; size = 12
_pUser$ = 8						; size = 4
?SetFailedTenderGuild@CGuildCombat1to1Mng@@QAEXPAVCUser@@@Z PROC ; CGuildCombat1to1Mng::SetFailedTenderGuild, COMDAT
; _this$ = ecx

; 1430 : {

  00000	55		 push	 ebp
  00001	8b ec		 mov	 ebp, esp
  00003	6a ff		 push	 -1
  00005	68 00 00 00 00	 push	 __ehhandler$?SetFailedTenderGuild@CGuildCombat1to1Mng@@QAEXPAVCUser@@@Z
  0000a	64 a1 00 00 00
	00		 mov	 eax, DWORD PTR fs:0
  00010	50		 push	 eax
  00011	81 ec d4 00 00
	00		 sub	 esp, 212		; 000000d4H
  00017	a1 00 00 00 00	 mov	 eax, DWORD PTR ___security_cookie
  0001c	33 c5		 xor	 eax, ebp
  0001e	89 45 f0	 mov	 DWORD PTR __$ArrayPad$[ebp], eax
  00021	53		 push	 ebx
  00022	56		 push	 esi
  00023	57		 push	 edi
  00024	50		 push	 eax
  00025	8d 45 f4	 lea	 eax, DWORD PTR __$EHRec$[ebp]
  00028	64 a3 00 00 00
	00		 mov	 DWORD PTR fs:0, eax
  0002e	8b d9		 mov	 ebx, ecx
  00030	8b 7d 08	 mov	 edi, DWORD PTR _pUser$[ebp]

; 1431 : 	// ±ćµĺ¸¶˝şĹÍ¸¸ ŔÔÂű Ľö·É °ˇ´É
; 1432 : 	if( !IsGuildMaster( pUser ) )

  00033	57		 push	 edi
  00034	e8 00 00 00 00	 call	 ?IsGuildMaster@CGuildCombat1to1Mng@@QAEHPAVCUser@@@Z ; CGuildCombat1to1Mng::IsGuildMaster
  00039	8b cf		 mov	 ecx, edi
  0003b	85 c0		 test	 eax, eax
  0003d	75 07		 jne	 SHORT $LN5@SetFailedT

; 1433 : 	{
; 1434 : 		pUser->AddDefinedText( TID_GAME_GUILDCOMBAT1TO1_NOTMASTER );

  0003f	68 6d 0d 00 00	 push	 3437			; 00000d6dH

; 1435 : 		return;

  00044	eb 31		 jmp	 SHORT $LN96@SetFailedT
$LN5@SetFailedT:

; 1436 : 	}
; 1437 : 
; 1438 : 	CGuild* pGuild = pUser->GetGuild();

  00046	e8 00 00 00 00	 call	 ?GetGuild@CMover@@QAEPAVCGuild@@XZ ; CMover::GetGuild

; 1439 : 	if( pGuild )

  0004b	85 c0		 test	 eax, eax
  0004d	74 2d		 je	 SHORT $LN6@SetFailedT
; File C:\Program Files\Microsoft Visual Studio\2022\Professional\VC\Tools\MSVC\14.44.35207\include\vector

; 46   :     _CONSTEXPR20 _Vector_const_iterator(_Tptr _Parg, const _Container_base* _Pvector) noexcept : _Ptr(_Parg) {

  0004f	8b 73 58	 mov	 esi, DWORD PTR [ebx+88]

; 1841 :         auto& _My_data = _Mypair._Myval2;

  00052	8d 4b 58	 lea	 ecx, DWORD PTR [ebx+88]
  00055	89 8d 24 ff ff
	ff		 mov	 DWORD PTR tv625[ebp], ecx

; 46   :     _CONSTEXPR20 _Vector_const_iterator(_Tptr _Parg, const _Container_base* _Pvector) noexcept : _Ptr(_Parg) {

  0005b	8b 4b 5c	 mov	 ecx, DWORD PTR [ebx+92]

; 176  :         return !(*this == _Right);

  0005e	3b f1		 cmp	 esi, ecx
; File C:\IAGOS\server\v18\Source\Source\_Common\GuildCombat1to1.cpp

; 1441 : 		for( vector<__GC1TO1TENDER>::iterator it=m_vecTenderFailGuild.begin(); it!=m_vecTenderFailGuild.end(); it++ )

  00060	74 0e		 je	 SHORT $LN3@SetFailedT

; 1442 : 		{
; 1443 : 			if( (*it).ulGuildId == pGuild->GetGuildId() )

  00062	8b 40 04	 mov	 eax, DWORD PTR [eax+4]
$LL4@SetFailedT:
  00065	39 06		 cmp	 DWORD PTR [esi], eax
  00067	74 31		 je	 SHORT $LN89@SetFailedT
; File C:\Program Files\Microsoft Visual Studio\2022\Professional\VC\Tools\MSVC\14.44.35207\include\vector

; 82   :         ++_Ptr;

  00069	83 c6 2c	 add	 esi, 44			; 0000002cH

; 176  :         return !(*this == _Right);

  0006c	3b f1		 cmp	 esi, ecx
; File C:\IAGOS\server\v18\Source\Source\_Common\GuildCombat1to1.cpp

; 1441 : 		for( vector<__GC1TO1TENDER>::iterator it=m_vecTenderFailGuild.begin(); it!=m_vecTenderFailGuild.end(); it++ )

  0006e	75 f5		 jne	 SHORT $LL4@SetFailedT
$LN3@SetFailedT:

; 1476 : 			}
; 1477 : 		}
; 1478 : 
; 1479 : 		pUser->AddDefinedText( TID_GAME_GUILDCOMBAT1TO1_NOTRETURNGUILD );

  00070	68 8a 0d 00 00	 push	 3466			; 00000d8aH
$LN97@SetFailedT:

; 1482 : }

  00075	8b cf		 mov	 ecx, edi
$LN96@SetFailedT:
  00077	e8 00 00 00 00	 call	 ?AddDefinedText@CUser@@QAEXH@Z ; CUser::AddDefinedText
$LN6@SetFailedT:
  0007c	8b 4d f4	 mov	 ecx, DWORD PTR __$EHRec$[ebp]
  0007f	64 89 0d 00 00
	00 00		 mov	 DWORD PTR fs:0, ecx
  00086	59		 pop	 ecx
  00087	5f		 pop	 edi
  00088	5e		 pop	 esi
  00089	5b		 pop	 ebx
  0008a	8b 4d f0	 mov	 ecx, DWORD PTR __$ArrayPad$[ebp]
  0008d	33 cd		 xor	 ecx, ebp
  0008f	e8 00 00 00 00	 call	 @__security_check_cookie@4
  00094	8b e5		 mov	 esp, ebp
  00096	5d		 pop	 ebp
  00097	c2 04 00	 ret	 4
$LN89@SetFailedT:
  0009a	66 0f 6e 4b 3c	 movd	 xmm1, DWORD PTR [ebx+60]

; 1444 : 			{
; 1445 : 				int nReturnGold = (int)( (*it).nPenya * ( (float)m_nFailReturnRate / 100 ) );

  0009f	0f 5b c9	 cvtdq2ps xmm1, xmm1

; 1446 : 				//ŔÎşĄ ˛Ë ĂˇŔ»¶§ żążÜĂł¸® ÇŘľßÇÔ..
; 1447 : 				int nTotal = pUser->GetGold() + nReturnGold;

  000a2	8b 87 e0 14 00
	00		 mov	 eax, DWORD PTR [edi+5344]
  000a8	66 0f 6e 46 04	 movd	 xmm0, DWORD PTR [esi+4]
  000ad	f3 0f 5e 0d 00
	00 00 00	 divss	 xmm1, DWORD PTR __real@42c80000
  000b5	0f 5b c0	 cvtdq2ps xmm0, xmm0
  000b8	f3 0f 59 c8	 mulss	 xmm1, xmm0
  000bc	f3 0f 2c d9	 cvttss2si ebx, xmm1
  000c0	03 c3		 add	 eax, ebx

; 1448 : 				if( nReturnGold > 0 && nTotal < 0 )	// overflow

  000c2	85 db		 test	 ebx, ebx
  000c4	7e 0b		 jle	 SHORT $LN8@SetFailedT
  000c6	85 c0		 test	 eax, eax
  000c8	79 07		 jns	 SHORT $LN8@SetFailedT

; 1449 : 				{
; 1450 : 					pUser->AddDefinedText( TID_GAME_LACKSPACE );

  000ca	68 72 02 00 00	 push	 626			; 00000272H

; 1451 : 					return;

  000cf	eb a4		 jmp	 SHORT $LN97@SetFailedT
$LN8@SetFailedT:

; 1452 : 				}
; 1453 : 
; 1454 : 				pUser->AddGold( nReturnGold );

  000d1	6a 01		 push	 1
  000d3	53		 push	 ebx
  000d4	8b cf		 mov	 ecx, edi
  000d6	e8 00 00 00 00	 call	 ?AddGold@CMover@@QAEHHH@Z ; CMover::AddGold

; 1455 : 				
; 1456 : 				g_dpDBClient.SendGC1to1Tender( 'U', pUser->m_idGuild, (*it).nPenya, 'G' );

  000db	6a 47		 push	 71			; 00000047H
  000dd	ff 76 04	 push	 DWORD PTR [esi+4]
  000e0	b9 00 00 00 00	 mov	 ecx, OFFSET ?g_dpDBClient@@3VCDPDatabaseClient@@A ; g_dpDBClient
  000e5	ff b7 14 07 00
	00		 push	 DWORD PTR [edi+1812]
  000eb	6a 55		 push	 85			; 00000055H
  000ed	e8 00 00 00 00	 call	 ?SendGC1to1Tender@CDPDatabaseClient@@QAEXDKHD@Z ; CDPDatabaseClient::SendGC1to1Tender

; 1457 : 				m_vecTenderFailGuild.erase( it );

  000f2	8b 8d 24 ff ff
	ff		 mov	 ecx, DWORD PTR tv625[ebp]
  000f8	8d 85 20 ff ff
	ff		 lea	 eax, DWORD PTR $T2[ebp]
  000fe	56		 push	 esi
  000ff	50		 push	 eax
  00100	e8 00 00 00 00	 call	 ?erase@?$vector@U__GC1TO1TENDER@CGuildCombat1to1Mng@@V?$allocator@U__GC1TO1TENDER@CGuildCombat1to1Mng@@@std@@@std@@QAE?AV?$_Vector_iterator@V?$_Vector_val@U?$_Simple_types@U__GC1TO1TENDER@CGuildCombat1to1Mng@@@std@@@std@@@2@V?$_Vector_const_iterator@V?$_Vector_val@U?$_Simple_types@U__GC1TO1TENDER@CGuildCombat1to1Mng@@@std@@@std@@@2@@Z ; std::vector<CGuildCombat1to1Mng::__GC1TO1TENDER,std::allocator<CGuildCombat1to1Mng::__GC1TO1TENDER> >::erase
; File C:\Program Files\Microsoft Visual Studio\2022\Professional\VC\Tools\MSVC\14.44.35207\atlmfc\include\afxstr.h

; 56   : 		return( AfxGetStringManager() );

  00105	e8 00 00 00 00	 call	 ?AfxGetStringManager@@YGPAUIAtlStringMgr@ATL@@XZ ; AfxGetStringManager
  0010a	8b c8		 mov	 ecx, eax
; File C:\Program Files\Microsoft Visual Studio\2022\Professional\VC\Tools\MSVC\14.44.35207\atlmfc\include\atlsimpstr.h

; 209  : 		ATLENSURE( pStringMgr != NULL );

  0010c	85 c9		 test	 ecx, ecx
  0010e	0f 84 27 01 00
	00		 je	 $LN99@SetFailedT

; 210  : 		CStringData* pData = pStringMgr->GetNilString();

  00114	8b 01		 mov	 eax, DWORD PTR [ecx]
  00116	ff 50 0c	 call	 DWORD PTR [eax+12]

; 211  : 		Attach( pData );

  00119	83 c0 10	 add	 eax, 16			; 00000010H
  0011c	89 85 24 ff ff
	ff		 mov	 DWORD PTR _strTemp$3[ebp], eax
; File C:\IAGOS\server\v18\Source\Source\_Common\Project.h

; 1427 : 	VERIFY_RANGE( (int)( dwIndex ), 0, m_colorText.GetSize(), "GetText range_error", "error" );

  00122	a1 ac 02 00 00	 mov	 eax, DWORD PTR ?prj@@3VCProject@@A+684
; File C:\IAGOS\server\v18\Source\Source\_Common\GuildCombat1to1.cpp

; 1459 : 				CString strTemp;

  00127	c7 45 fc 00 00
	00 00		 mov	 DWORD PTR __$EHRec$[ebp+8], 0
; File C:\IAGOS\server\v18\Source\Source\_Common\Project.h

; 1427 : 	VERIFY_RANGE( (int)( dwIndex ), 0, m_colorText.GetSize(), "GetText range_error", "error" );

  0012e	3d 7b 0d 00 00	 cmp	 eax, 3451		; 00000d7bH
  00133	7f 21		 jg	 SHORT $LN51@SetFailedT

; 579  : 	LPCTSTR szErr = Error( _T( "%s min:%d, max:%d, index:%d" ), szMsg, nMin, nMax, nIndex ); 

  00135	68 7b 0d 00 00	 push	 3451			; 00000d7bH
  0013a	50		 push	 eax
  0013b	6a 00		 push	 0
  0013d	68 00 00 00 00	 push	 OFFSET ??_C@_0BE@OHDBLHOM@GetText?5range_error@
  00142	68 00 00 00 00	 push	 OFFSET ??_C@_0BM@HMFGHCP@?$CFs?5min?3?$CFd?0?5max?3?$CFd?0?5index?3?$CFd@
  00147	e8 00 00 00 00	 call	 ?Error@@YAPBDPBDZZ	; Error
  0014c	83 c4 14	 add	 esp, 20			; 00000014H

; 1427 : 	VERIFY_RANGE( (int)( dwIndex ), 0, m_colorText.GetSize(), "GetText range_error", "error" );

  0014f	b8 00 00 00 00	 mov	 eax, OFFSET ??_C@_05KKCIMGE@error@
  00154	eb 1b		 jmp	 SHORT $LN50@SetFailedT
$LN51@SetFailedT:
; File C:\IAGOS\server\v18\Source\Source\_Common\data.h

; 270  : 	if( dwIndex >= (DWORD)m_nMaxIndex )

  00156	76 14		 jbe	 SHORT $LN93@SetFailedT

; 271  : 		return NULL;
; 272  : 	return (T*) m_apOffset[ dwIndex ];

  00158	a1 9c 02 00 00	 mov	 eax, DWORD PTR ?prj@@3VCProject@@A+668
  0015d	8b 80 ec 35 00
	00		 mov	 eax, DWORD PTR [eax+13804]
; File C:\IAGOS\server\v18\Source\Source\_Common\Project.h

; 1428 : 	if( m_colorText.GetAt( dwIndex ) == NULL )

  00163	85 c0		 test	 eax, eax
  00165	74 05		 je	 SHORT $LN93@SetFailedT

; 1430 : 	return m_colorText.GetAt( dwIndex )->lpszData; 

  00167	8b 40 04	 mov	 eax, DWORD PTR [eax+4]
  0016a	eb 05		 jmp	 SHORT $LN50@SetFailedT
$LN93@SetFailedT:

; 1429 : 		return "";

  0016c	b8 00 00 00 00	 mov	 eax, OFFSET ??_C@_00CNPNBAHC@@
$LN50@SetFailedT:
; File C:\IAGOS\server\v18\Source\Source\_Common\GuildCombat1to1.cpp

; 1460 : 				strTemp.Format( prj.GetText( TID_GAME_GUILDCOMBAT1TO1_FAILRETURN ), nReturnGold );

  00171	53		 push	 ebx
  00172	50		 push	 eax
  00173	8d 85 24 ff ff
	ff		 lea	 eax, DWORD PTR _strTemp$3[ebp]
  00179	50		 push	 eax
  0017a	e8 00 00 00 00	 call	 ?Format@?$CStringT@DV?$StrTraitMFC@DV?$ChTraitsCRT@D@ATL@@@@@ATL@@QAAXPBDZZ ; ATL::CStringT<char,StrTraitMFC<char,ATL::ChTraitsCRT<char> > >::Format

; 1461 : 				pUser->AddDiagText( strTemp );

  0017f	8b b5 24 ff ff
	ff		 mov	 esi, DWORD PTR _strTemp$3[ebp]
  00185	83 c4 0c	 add	 esp, 12			; 0000000cH
  00188	8b cf		 mov	 ecx, edi
  0018a	56		 push	 esi
  0018b	e8 00 00 00 00	 call	 ?AddDiagText@CUser@@QAEXPBD@Z ; CUser::AddDiagText

; 1462 : 
; 1463 : 				// ·Î±× ł˛±č(ľĆŔĚĹŰ·Î±×)
; 1464 : 				LogItemInfo aLogItem;

  00190	8d 8d 28 ff ff
	ff		 lea	 ecx, DWORD PTR _aLogItem$4[ebp]
  00196	e8 00 00 00 00	 call	 ??0_LogItemInfo@@QAE@XZ	; _LogItemInfo::_LogItemInfo

; 1465 : 				aLogItem.Action = "9";
; 1466 : 				aLogItem.SendName = pUser->GetName();

  0019b	6a 00		 push	 0
  0019d	8b cf		 mov	 ecx, edi
  0019f	c7 85 28 ff ff
	ff 00 00 00 00	 mov	 DWORD PTR _aLogItem$4[ebp], OFFSET ??_C@_01LAKCGALK@9@
  001a9	e8 00 00 00 00	 call	 ?GetName@CMover@@QAEPBDH@Z ; CMover::GetName
  001ae	89 85 2c ff ff
	ff		 mov	 DWORD PTR _aLogItem$4[ebp+4], eax

; 1467 : 				aLogItem.RecvName = "GUILDCOMBAT1TO1_FAILRETURN";
; 1468 : 				aLogItem.WorldId = pUser->GetWorld()->GetID();

  001b4	8b 87 6c 01 00
	00		 mov	 eax, DWORD PTR [edi+364]
  001ba	c7 85 30 ff ff
	ff 00 00 00 00	 mov	 DWORD PTR _aLogItem$4[ebp+8], OFFSET ??_C@_0BL@EBGKHODH@GUILDCOMBAT1TO1_FAILRETURN@

; 1469 : 				//aLogItem.ItemName = "SEED";
; 1470 : 				_stprintf( aLogItem.szItemName, "%d", II_GOLD_SEED1 );

  001c4	6a 0c		 push	 12			; 0000000cH
  001c6	68 00 00 00 00	 push	 OFFSET ??_C@_02DPKJAMEF@?$CFd@
  001cb	8b 00		 mov	 eax, DWORD PTR [eax]
  001cd	89 85 34 ff ff
	ff		 mov	 DWORD PTR _aLogItem$4[ebp+12], eax
  001d3	8d 85 4c ff ff
	ff		 lea	 eax, DWORD PTR _aLogItem$4[ebp+36]
  001d9	50		 push	 eax
  001da	e8 00 00 00 00	 call	 _sprintf

; 1471 : 				aLogItem.Gold = pUser->GetGold() - nReturnGold;

  001df	8b 8f e0 14 00
	00		 mov	 ecx, DWORD PTR [edi+5344]
  001e5	83 c4 0c	 add	 esp, 12			; 0000000cH
  001e8	8b c1		 mov	 eax, ecx

; 1472 : 				aLogItem.Gold2 = pUser->GetGold();

  001ea	89 8d 3c ff ff
	ff		 mov	 DWORD PTR _aLogItem$4[ebp+20], ecx
  001f0	2b c3		 sub	 eax, ebx

; 1473 : 				aLogItem.Gold_1 = nReturnGold;

  001f2	89 9d 74 ff ff
	ff		 mov	 DWORD PTR _aLogItem$4[ebp+76], ebx
  001f8	89 85 38 ff ff
	ff		 mov	 DWORD PTR _aLogItem$4[ebp+16], eax

; 1474 : 				g_DPSrvr.OnLogItem( aLogItem );

  001fe	b9 00 00 00 00	 mov	 ecx, OFFSET ?g_DPSrvr@@3VCDPSrvr@@A ; g_DPSrvr
  00203	6a 00		 push	 0
  00205	6a 00		 push	 0
  00207	8d 85 28 ff ff
	ff		 lea	 eax, DWORD PTR _aLogItem$4[ebp]
  0020d	50		 push	 eax
  0020e	e8 00 00 00 00	 call	 ?OnLogItem@CDPSrvr@@QAEXAAU_LogItemInfo@@PAVCItemElem@@H@Z ; CDPSrvr::OnLogItem

; 1475 : 				return;

  00213	c7 45 fc ff ff
	ff ff		 mov	 DWORD PTR __$EHRec$[ebp+8], -1
; File C:\Program Files\Microsoft Visual Studio\2022\Professional\VC\Tools\MSVC\14.44.35207\atlmfc\include\atlsimpstr.h

; 804  : 		return( reinterpret_cast< CStringData* >( m_pszData )-1 );

  0021a	83 c6 f0	 add	 esi, -16		; fffffff0H

; 92   : 		if( _InterlockedDecrement( &nRefs ) <= 0 )

  0021d	83 c8 ff	 or	 eax, -1
  00220	f0 0f c1 46 0c	 lock	  xadd	 DWORD PTR [esi+12], eax
  00225	48		 dec	 eax
  00226	85 c0		 test	 eax, eax
  00228	0f 8f 4e fe ff
	ff		 jg	 $LN6@SetFailedT

; 93   : 		{
; 94   : 			pStringMgr->Free( this );

  0022e	8b 0e		 mov	 ecx, DWORD PTR [esi]
  00230	56		 push	 esi
  00231	8b 01		 mov	 eax, DWORD PTR [ecx]
  00233	ff 50 04	 call	 DWORD PTR [eax+4]
; File C:\IAGOS\server\v18\Source\Source\_Common\GuildCombat1to1.cpp

; 1475 : 				return;

  00236	e9 41 fe ff ff	 jmp	 $LN6@SetFailedT
$LN99@SetFailedT:
; File C:\Program Files\Microsoft Visual Studio\2022\Professional\VC\Tools\MSVC\14.44.35207\atlmfc\include\atlsimpstr.h

; 209  : 		ATLENSURE( pStringMgr != NULL );

  0023b	68 05 40 00 80	 push	 -2147467259		; 80004005H
  00240	e8 00 00 00 00	 call	 ?AtlThrowImpl@ATL@@YGXJ@Z ; ATL::AtlThrowImpl
$LN95@SetFailedT:
  00245	cc		 int	 3
_TEXT	ENDS
;	COMDAT text$x
text$x	SEGMENT
__unwindfunclet$?SetFailedTenderGuild@CGuildCombat1to1Mng@@QAEXPAVCUser@@@Z$0:
  00000	8d 8d 24 ff ff
	ff		 lea	 ecx, DWORD PTR _strTemp$3[ebp]
  00006	e9 00 00 00 00	 jmp	 ??1?$CStringT@DV?$StrTraitMFC@DV?$ChTraitsCRT@D@ATL@@@@@ATL@@QAE@XZ ; ATL::CStringT<char,StrTraitMFC<char,ATL::ChTraitsCRT<char> > >::~CStringT<char,StrTraitMFC<char,ATL::ChTraitsCRT<char> > >
  0000b	cc		 int	 3
  0000c	cc		 int	 3
  0000d	cc		 int	 3
  0000e	cc		 int	 3
  0000f	cc		 int	 3
__ehhandler$?SetFailedTenderGuild@CGuildCombat1to1Mng@@QAEXPAVCUser@@@Z:
  00010	90		 npad	 1
  00011	90		 npad	 1
  00012	8b 54 24 08	 mov	 edx, DWORD PTR [esp+8]
  00016	8d 42 0c	 lea	 eax, DWORD PTR [edx+12]
  00019	8b 8a 1c ff ff
	ff		 mov	 ecx, DWORD PTR [edx-228]
  0001f	33 c8		 xor	 ecx, eax
  00021	e8 00 00 00 00	 call	 @__security_check_cookie@4
  00026	8b 4a fc	 mov	 ecx, DWORD PTR [edx-4]
  00029	33 c8		 xor	 ecx, eax
  0002b	e8 00 00 00 00	 call	 @__security_check_cookie@4
  00030	b8 00 00 00 00	 mov	 eax, OFFSET __ehfuncinfo$?SetFailedTenderGuild@CGuildCombat1to1Mng@@QAEXPAVCUser@@@Z
  00035	e9 00 00 00 00	 jmp	 ___CxxFrameHandler3
text$x	ENDS
?SetFailedTenderGuild@CGuildCombat1to1Mng@@QAEXPAVCUser@@@Z ENDP ; CGuildCombat1to1Mng::SetFailedTenderGuild
; Function compile flags: /Ogtp
; File C:\IAGOS\server\v18\Source\Source\_Common\GuildCombat1to1.cpp
; File C:\IAGOS\server\v18\Source\Source\_Common\Project.h
; File C:\IAGOS\server\v18\Source\Source\_Common\GuildCombat1to1.cpp
; File C:\IAGOS\server\v18\Source\Source\_Common\data.h
; File C:\IAGOS\server\v18\Source\Source\_Common\Project.h
; File C:\IAGOS\server\v18\Source\Source\_Common\GuildCombat1to1.cpp
; File C:\IAGOS\server\v18\Source\Source\_Common\Project.h
; File C:\IAGOS\server\v18\Source\Source\_Common\GuildCombat1to1.cpp
; File C:\Program Files\Microsoft Visual Studio\2022\Professional\VC\Tools\MSVC\14.44.35207\include\vector
; File C:\IAGOS\server\v18\Source\Source\_Common\GuildCombat1to1.cpp
; File C:\Program Files\Microsoft Visual Studio\2022\Professional\VC\Tools\MSVC\14.44.35207\include\vector
; File C:\IAGOS\server\v18\Source\Source\_Common\GuildCombat1to1.cpp
; File C:\Program Files\Microsoft Visual Studio\2022\Professional\VC\Tools\MSVC\14.44.35207\atlmfc\include\afxstr.h
; File C:\Program Files\Microsoft Visual Studio\2022\Professional\VC\Tools\MSVC\14.44.35207\atlmfc\include\atlsimpstr.h
; File C:\IAGOS\server\v18\Source\Source\_Common\Project.h
; File C:\IAGOS\server\v18\Source\Source\_Common\GuildCombat1to1.cpp
; File C:\IAGOS\server\v18\Source\Source\_Common\Project.h
; File C:\IAGOS\server\v18\Source\Source\_Common\data.h
; File C:\IAGOS\server\v18\Source\Source\_Common\Project.h
; File C:\IAGOS\server\v18\Source\Source\_Common\GuildCombat1to1.cpp
; File C:\Program Files\Microsoft Visual Studio\2022\Professional\VC\Tools\MSVC\14.44.35207\atlmfc\include\atlsimpstr.h
; File C:\IAGOS\server\v18\Source\Source\_Common\GuildCombat1to1.cpp
; File C:\Program Files\Microsoft Visual Studio\2022\Professional\VC\Tools\MSVC\14.44.35207\atlmfc\include\atlsimpstr.h
; File C:\IAGOS\server\v18\Source\Source\_Common\GuildCombat1to1.cpp
;	COMDAT ?SetCancelTenderGuild@CGuildCombat1to1Mng@@QAEXPAVCUser@@@Z
_TEXT	SEGMENT
$T2 = -224						; size = 4
_strTemp$3 = -220					; size = 4
tv721 = -220						; size = 4
_aLogItem$4 = -216					; size = 200
__$ArrayPad$ = -16					; size = 4
__$EHRec$ = -12						; size = 12
_pUser$ = 8						; size = 4
?SetCancelTenderGuild@CGuildCombat1to1Mng@@QAEXPAVCUser@@@Z PROC ; CGuildCombat1to1Mng::SetCancelTenderGuild, COMDAT
; _this$ = ecx

; 1371 : {

  00000	55		 push	 ebp
  00001	8b ec		 mov	 ebp, esp
  00003	6a ff		 push	 -1
  00005	68 00 00 00 00	 push	 __ehhandler$?SetCancelTenderGuild@CGuildCombat1to1Mng@@QAEXPAVCUser@@@Z
  0000a	64 a1 00 00 00
	00		 mov	 eax, DWORD PTR fs:0
  00010	50		 push	 eax
  00011	81 ec d4 00 00
	00		 sub	 esp, 212		; 000000d4H
  00017	a1 00 00 00 00	 mov	 eax, DWORD PTR ___security_cookie
  0001c	33 c5		 xor	 eax, ebp
  0001e	89 45 f0	 mov	 DWORD PTR __$ArrayPad$[ebp], eax
  00021	53		 push	 ebx
  00022	56		 push	 esi
  00023	57		 push	 edi
  00024	50		 push	 eax
  00025	8d 45 f4	 lea	 eax, DWORD PTR __$EHRec$[ebp]
  00028	64 a3 00 00 00
	00		 mov	 DWORD PTR fs:0, eax
  0002e	8b d9		 mov	 ebx, ecx

; 1372 : 	if( m_nState != GC1TO1_CLOSE )

  00030	83 7b 04 00	 cmp	 DWORD PTR [ebx+4], 0
  00034	8b 7d 08	 mov	 edi, DWORD PTR _pUser$[ebp]
  00037	74 6b		 je	 SHORT $LN5@SetCancelT
; File C:\IAGOS\server\v18\Source\Source\_Common\Project.h

; 1427 : 	VERIFY_RANGE( (int)( dwIndex ), 0, m_colorText.GetSize(), "GetText range_error", "error" );

  00039	a1 ac 02 00 00	 mov	 eax, DWORD PTR ?prj@@3VCProject@@A+684
  0003e	3d 6c 0d 00 00	 cmp	 eax, 3436		; 00000d6cH
  00043	7f 2c		 jg	 SHORT $LN13@SetCancelT

; 579  : 	LPCTSTR szErr = Error( _T( "%s min:%d, max:%d, index:%d" ), szMsg, nMin, nMax, nIndex ); 

  00045	68 6c 0d 00 00	 push	 3436			; 00000d6cH
  0004a	50		 push	 eax
  0004b	6a 00		 push	 0
  0004d	68 00 00 00 00	 push	 OFFSET ??_C@_0BE@OHDBLHOM@GetText?5range_error@
  00052	68 00 00 00 00	 push	 OFFSET ??_C@_0BM@HMFGHCP@?$CFs?5min?3?$CFd?0?5max?3?$CFd?0?5index?3?$CFd@
  00057	e8 00 00 00 00	 call	 ?Error@@YAPBDPBDZZ	; Error
  0005c	83 c4 14	 add	 esp, 20			; 00000014H

; 1427 : 	VERIFY_RANGE( (int)( dwIndex ), 0, m_colorText.GetSize(), "GetText range_error", "error" );

  0005f	b8 00 00 00 00	 mov	 eax, OFFSET ??_C@_05KKCIMGE@error@
; File C:\IAGOS\server\v18\Source\Source\_Common\GuildCombat1to1.cpp

; 1374 : 		pUser->AddDiagText( prj.GetText( TID_GAME_GUILDCOMBAT1TO1_NOTENDER ) );

  00064	8b cf		 mov	 ecx, edi
  00066	50		 push	 eax
  00067	e8 00 00 00 00	 call	 ?AddDiagText@CUser@@QAEXPBD@Z ; CUser::AddDiagText

; 1375 : 		return;

  0006c	e9 23 02 00 00	 jmp	 $LN94@SetCancelT
$LN13@SetCancelT:
; File C:\IAGOS\server\v18\Source\Source\_Common\data.h

; 270  : 	if( dwIndex >= (DWORD)m_nMaxIndex )

  00071	76 1f		 jbe	 SHORT $LN110@SetCancelT

; 271  : 		return NULL;
; 272  : 	return (T*) m_apOffset[ dwIndex ];

  00073	a1 9c 02 00 00	 mov	 eax, DWORD PTR ?prj@@3VCProject@@A+668
  00078	8b 80 b0 35 00
	00		 mov	 eax, DWORD PTR [eax+13744]
; File C:\IAGOS\server\v18\Source\Source\_Common\Project.h

; 1428 : 	if( m_colorText.GetAt( dwIndex ) == NULL )

  0007e	85 c0		 test	 eax, eax
  00080	74 10		 je	 SHORT $LN110@SetCancelT

; 1430 : 	return m_colorText.GetAt( dwIndex )->lpszData; 

  00082	8b 40 04	 mov	 eax, DWORD PTR [eax+4]
; File C:\IAGOS\server\v18\Source\Source\_Common\GuildCombat1to1.cpp

; 1374 : 		pUser->AddDiagText( prj.GetText( TID_GAME_GUILDCOMBAT1TO1_NOTENDER ) );

  00085	8b cf		 mov	 ecx, edi
  00087	50		 push	 eax
  00088	e8 00 00 00 00	 call	 ?AddDiagText@CUser@@QAEXPBD@Z ; CUser::AddDiagText

; 1375 : 		return;

  0008d	e9 02 02 00 00	 jmp	 $LN94@SetCancelT
$LN110@SetCancelT:
; File C:\IAGOS\server\v18\Source\Source\_Common\Project.h

; 1429 : 		return "";

  00092	b8 00 00 00 00	 mov	 eax, OFFSET ??_C@_00CNPNBAHC@@
; File C:\IAGOS\server\v18\Source\Source\_Common\GuildCombat1to1.cpp

; 1374 : 		pUser->AddDiagText( prj.GetText( TID_GAME_GUILDCOMBAT1TO1_NOTENDER ) );

  00097	8b cf		 mov	 ecx, edi
  00099	50		 push	 eax
  0009a	e8 00 00 00 00	 call	 ?AddDiagText@CUser@@QAEXPBD@Z ; CUser::AddDiagText

; 1375 : 		return;

  0009f	e9 f0 01 00 00	 jmp	 $LN94@SetCancelT
$LN5@SetCancelT:

; 1376 : 	}
; 1377 : 
; 1378 : 	// ±ćµĺ¸¶˝şĹÍ¸¸ ŔÔÂű ĂëĽŇ °ˇ´É
; 1379 : 	if( !IsGuildMaster( pUser ) )

  000a4	57		 push	 edi
  000a5	e8 00 00 00 00	 call	 ?IsGuildMaster@CGuildCombat1to1Mng@@QAEHPAVCUser@@@Z ; CGuildCombat1to1Mng::IsGuildMaster
  000aa	8b cf		 mov	 ecx, edi
  000ac	85 c0		 test	 eax, eax
  000ae	75 0f		 jne	 SHORT $LN6@SetCancelT

; 1380 : 	{
; 1381 : 		pUser->AddDefinedText( TID_GAME_GUILDCOMBAT1TO1_NOTMASTER );

  000b0	68 6d 0d 00 00	 push	 3437			; 00000d6dH
  000b5	e8 00 00 00 00	 call	 ?AddDefinedText@CUser@@QAEXH@Z ; CUser::AddDefinedText

; 1382 : 		return;

  000ba	e9 d5 01 00 00	 jmp	 $LN94@SetCancelT
$LN6@SetCancelT:

; 1383 : 	}
; 1384 : 
; 1385 : 	CGuild* pGuild = pUser->GetGuild();

  000bf	e8 00 00 00 00	 call	 ?GetGuild@CMover@@QAEPAVCGuild@@XZ ; CMover::GetGuild

; 1386 : 	if( pGuild )

  000c4	85 c0		 test	 eax, eax
  000c6	0f 84 c8 01 00
	00		 je	 $LN94@SetCancelT
; File C:\Program Files\Microsoft Visual Studio\2022\Professional\VC\Tools\MSVC\14.44.35207\include\vector

; 46   :     _CONSTEXPR20 _Vector_const_iterator(_Tptr _Parg, const _Container_base* _Pvector) noexcept : _Ptr(_Parg) {

  000cc	8b 73 4c	 mov	 esi, DWORD PTR [ebx+76]

; 1841 :         auto& _My_data = _Mypair._Myval2;

  000cf	8d 4b 4c	 lea	 ecx, DWORD PTR [ebx+76]
  000d2	89 8d 24 ff ff
	ff		 mov	 DWORD PTR tv721[ebp], ecx

; 46   :     _CONSTEXPR20 _Vector_const_iterator(_Tptr _Parg, const _Container_base* _Pvector) noexcept : _Ptr(_Parg) {

  000d8	8b 4b 50	 mov	 ecx, DWORD PTR [ebx+80]

; 176  :         return !(*this == _Right);

  000db	3b f1		 cmp	 esi, ecx
; File C:\IAGOS\server\v18\Source\Source\_Common\GuildCombat1to1.cpp

; 1388 : 		for( vector<__GC1TO1TENDER>::iterator it=m_vecTenderGuild.begin(); it!=m_vecTenderGuild.end(); it++ )

  000dd	0f 84 b1 01 00
	00		 je	 $LN94@SetCancelT

; 1389 : 		{
; 1390 : 			if( (*it).ulGuildId == pGuild->GetGuildId() )

  000e3	8b 40 04	 mov	 eax, DWORD PTR [eax+4]
$LL4@SetCancelT:
  000e6	39 06		 cmp	 DWORD PTR [esi], eax
  000e8	74 0c		 je	 SHORT $LN106@SetCancelT
; File C:\Program Files\Microsoft Visual Studio\2022\Professional\VC\Tools\MSVC\14.44.35207\include\vector

; 82   :         ++_Ptr;

  000ea	83 c6 2c	 add	 esi, 44			; 0000002cH

; 176  :         return !(*this == _Right);

  000ed	3b f1		 cmp	 esi, ecx
; File C:\IAGOS\server\v18\Source\Source\_Common\GuildCombat1to1.cpp

; 1388 : 		for( vector<__GC1TO1TENDER>::iterator it=m_vecTenderGuild.begin(); it!=m_vecTenderGuild.end(); it++ )

  000ef	75 f5		 jne	 SHORT $LL4@SetCancelT

; 1389 : 		{
; 1390 : 			if( (*it).ulGuildId == pGuild->GetGuildId() )

  000f1	e9 9e 01 00 00	 jmp	 $LN94@SetCancelT
$LN106@SetCancelT:
  000f6	66 0f 6e 4b 38	 movd	 xmm1, DWORD PTR [ebx+56]

; 1391 : 			{
; 1392 : 				int nReturnGold = (int)( (*it).nPenya * ( (float)m_nCancelReturnRate / 100 ) );

  000fb	0f 5b c9	 cvtdq2ps xmm1, xmm1

; 1393 : 				//ŔÎşĄ ˛Ë ĂˇŔ»¶§ żążÜĂł¸® ÇŘľßÇÔ..
; 1394 : 				int nTotal = pUser->GetGold() + nReturnGold;

  000fe	8b 87 e0 14 00
	00		 mov	 eax, DWORD PTR [edi+5344]
  00104	66 0f 6e 46 04	 movd	 xmm0, DWORD PTR [esi+4]
  00109	f3 0f 5e 0d 00
	00 00 00	 divss	 xmm1, DWORD PTR __real@42c80000
  00111	0f 5b c0	 cvtdq2ps xmm0, xmm0
  00114	f3 0f 59 c8	 mulss	 xmm1, xmm0
  00118	f3 0f 2c d9	 cvttss2si ebx, xmm1
  0011c	03 c3		 add	 eax, ebx

; 1395 : 				if( nReturnGold > 0 && nTotal < 0 )	// overflow

  0011e	85 db		 test	 ebx, ebx
  00120	7e 15		 jle	 SHORT $LN9@SetCancelT
  00122	85 c0		 test	 eax, eax
  00124	79 11		 jns	 SHORT $LN9@SetCancelT

; 1396 : 				{
; 1397 : 					pUser->AddDefinedText( TID_GAME_LACKSPACE );

  00126	68 72 02 00 00	 push	 626			; 00000272H
  0012b	8b cf		 mov	 ecx, edi
  0012d	e8 00 00 00 00	 call	 ?AddDefinedText@CUser@@QAEXH@Z ; CUser::AddDefinedText

; 1398 : 					return;

  00132	e9 5d 01 00 00	 jmp	 $LN94@SetCancelT
$LN9@SetCancelT:

; 1399 : 				}
; 1400 : 
; 1401 : 				pUser->AddGold( nReturnGold );

  00137	6a 01		 push	 1
  00139	53		 push	 ebx
  0013a	8b cf		 mov	 ecx, edi
  0013c	e8 00 00 00 00	 call	 ?AddGold@CMover@@QAEHHH@Z ; CMover::AddGold

; 1402 : 			
; 1403 : 				g_dpDBClient.SendGC1to1Tender( 'U', (*it).ulGuildId, (*it).nPenya, 'C' );

  00141	6a 43		 push	 67			; 00000043H
  00143	ff 76 04	 push	 DWORD PTR [esi+4]
  00146	b9 00 00 00 00	 mov	 ecx, OFFSET ?g_dpDBClient@@3VCDPDatabaseClient@@A ; g_dpDBClient
  0014b	ff 36		 push	 DWORD PTR [esi]
  0014d	6a 55		 push	 85			; 00000055H
  0014f	e8 00 00 00 00	 call	 ?SendGC1to1Tender@CDPDatabaseClient@@QAEXDKHD@Z ; CDPDatabaseClient::SendGC1to1Tender

; 1404 : 				m_vecTenderGuild.erase( it );

  00154	8b 8d 24 ff ff
	ff		 mov	 ecx, DWORD PTR tv721[ebp]
  0015a	8d 85 20 ff ff
	ff		 lea	 eax, DWORD PTR $T2[ebp]
  00160	56		 push	 esi
  00161	50		 push	 eax
  00162	e8 00 00 00 00	 call	 ?erase@?$vector@U__GC1TO1TENDER@CGuildCombat1to1Mng@@V?$allocator@U__GC1TO1TENDER@CGuildCombat1to1Mng@@@std@@@std@@QAE?AV?$_Vector_iterator@V?$_Vector_val@U?$_Simple_types@U__GC1TO1TENDER@CGuildCombat1to1Mng@@@std@@@std@@@2@V?$_Vector_const_iterator@V?$_Vector_val@U?$_Simple_types@U__GC1TO1TENDER@CGuildCombat1to1Mng@@@std@@@std@@@2@@Z ; std::vector<CGuildCombat1to1Mng::__GC1TO1TENDER,std::allocator<CGuildCombat1to1Mng::__GC1TO1TENDER> >::erase
; File C:\Program Files\Microsoft Visual Studio\2022\Professional\VC\Tools\MSVC\14.44.35207\atlmfc\include\afxstr.h

; 56   : 		return( AfxGetStringManager() );

  00167	e8 00 00 00 00	 call	 ?AfxGetStringManager@@YGPAUIAtlStringMgr@ATL@@XZ ; AfxGetStringManager
  0016c	8b c8		 mov	 ecx, eax
; File C:\Program Files\Microsoft Visual Studio\2022\Professional\VC\Tools\MSVC\14.44.35207\atlmfc\include\atlsimpstr.h

; 209  : 		ATLENSURE( pStringMgr != NULL );

  0016e	85 c9		 test	 ecx, ecx
  00170	0f 84 3c 01 00
	00		 je	 $LN115@SetCancelT

; 210  : 		CStringData* pData = pStringMgr->GetNilString();

  00176	8b 01		 mov	 eax, DWORD PTR [ecx]
  00178	ff 50 0c	 call	 DWORD PTR [eax+12]

; 211  : 		Attach( pData );

  0017b	83 c0 10	 add	 eax, 16			; 00000010H
  0017e	89 85 24 ff ff
	ff		 mov	 DWORD PTR _strTemp$3[ebp], eax
; File C:\IAGOS\server\v18\Source\Source\_Common\Project.h

; 1427 : 	VERIFY_RANGE( (int)( dwIndex ), 0, m_colorText.GetSize(), "GetText range_error", "error" );

  00184	a1 ac 02 00 00	 mov	 eax, DWORD PTR ?prj@@3VCProject@@A+684
; File C:\IAGOS\server\v18\Source\Source\_Common\GuildCombat1to1.cpp

; 1406 : 				CString strTemp;

  00189	c7 45 fc 00 00
	00 00		 mov	 DWORD PTR __$EHRec$[ebp+8], 0
; File C:\IAGOS\server\v18\Source\Source\_Common\Project.h

; 1427 : 	VERIFY_RANGE( (int)( dwIndex ), 0, m_colorText.GetSize(), "GetText range_error", "error" );

  00190	3d 73 0d 00 00	 cmp	 eax, 3443		; 00000d73H
  00195	7f 21		 jg	 SHORT $LN68@SetCancelT

; 579  : 	LPCTSTR szErr = Error( _T( "%s min:%d, max:%d, index:%d" ), szMsg, nMin, nMax, nIndex ); 

  00197	68 73 0d 00 00	 push	 3443			; 00000d73H
  0019c	50		 push	 eax
  0019d	6a 00		 push	 0
  0019f	68 00 00 00 00	 push	 OFFSET ??_C@_0BE@OHDBLHOM@GetText?5range_error@
  001a4	68 00 00 00 00	 push	 OFFSET ??_C@_0BM@HMFGHCP@?$CFs?5min?3?$CFd?0?5max?3?$CFd?0?5index?3?$CFd@
  001a9	e8 00 00 00 00	 call	 ?Error@@YAPBDPBDZZ	; Error
  001ae	83 c4 14	 add	 esp, 20			; 00000014H

; 1427 : 	VERIFY_RANGE( (int)( dwIndex ), 0, m_colorText.GetSize(), "GetText range_error", "error" );

  001b1	b8 00 00 00 00	 mov	 eax, OFFSET ??_C@_05KKCIMGE@error@
  001b6	eb 1b		 jmp	 SHORT $LN67@SetCancelT
$LN68@SetCancelT:
; File C:\IAGOS\server\v18\Source\Source\_Common\data.h

; 270  : 	if( dwIndex >= (DWORD)m_nMaxIndex )

  001b8	76 14		 jbe	 SHORT $LN111@SetCancelT

; 271  : 		return NULL;
; 272  : 	return (T*) m_apOffset[ dwIndex ];

  001ba	a1 9c 02 00 00	 mov	 eax, DWORD PTR ?prj@@3VCProject@@A+668
  001bf	8b 80 cc 35 00
	00		 mov	 eax, DWORD PTR [eax+13772]
; File C:\IAGOS\server\v18\Source\Source\_Common\Project.h

; 1428 : 	if( m_colorText.GetAt( dwIndex ) == NULL )

  001c5	85 c0		 test	 eax, eax
  001c7	74 05		 je	 SHORT $LN111@SetCancelT

; 1430 : 	return m_colorText.GetAt( dwIndex )->lpszData; 

  001c9	8b 40 04	 mov	 eax, DWORD PTR [eax+4]
  001cc	eb 05		 jmp	 SHORT $LN67@SetCancelT
$LN111@SetCancelT:

; 1429 : 		return "";

  001ce	b8 00 00 00 00	 mov	 eax, OFFSET ??_C@_00CNPNBAHC@@
$LN67@SetCancelT:
; File C:\IAGOS\server\v18\Source\Source\_Common\GuildCombat1to1.cpp

; 1407 : 				strTemp.Format( prj.GetText( TID_GAME_GUILDCOMBAT1TO1_CANCELTENDER ), nReturnGold );

  001d3	53		 push	 ebx
  001d4	50		 push	 eax
  001d5	8d 85 24 ff ff
	ff		 lea	 eax, DWORD PTR _strTemp$3[ebp]
  001db	50		 push	 eax
  001dc	e8 00 00 00 00	 call	 ?Format@?$CStringT@DV?$StrTraitMFC@DV?$ChTraitsCRT@D@ATL@@@@@ATL@@QAAXPBDZZ ; ATL::CStringT<char,StrTraitMFC<char,ATL::ChTraitsCRT<char> > >::Format

; 1408 : 				pUser->AddDiagText( strTemp );

  001e1	8b b5 24 ff ff
	ff		 mov	 esi, DWORD PTR _strTemp$3[ebp]
  001e7	83 c4 0c	 add	 esp, 12			; 0000000cH
  001ea	8b cf		 mov	 ecx, edi
  001ec	56		 push	 esi
  001ed	e8 00 00 00 00	 call	 ?AddDiagText@CUser@@QAEXPBD@Z ; CUser::AddDiagText

; 1409 : 
; 1410 : 				// ·Î±× ł˛±č(ľĆŔĚĹŰ·Î±×)
; 1411 : 				LogItemInfo aLogItem;

  001f2	8d 8d 28 ff ff
	ff		 lea	 ecx, DWORD PTR _aLogItem$4[ebp]
  001f8	e8 00 00 00 00	 call	 ??0_LogItemInfo@@QAE@XZ	; _LogItemInfo::_LogItemInfo

; 1412 : 				aLogItem.Action = "9";
; 1413 : 				aLogItem.SendName = pUser->GetName();

  001fd	6a 00		 push	 0
  001ff	8b cf		 mov	 ecx, edi
  00201	c7 85 28 ff ff
	ff 00 00 00 00	 mov	 DWORD PTR _aLogItem$4[ebp], OFFSET ??_C@_01LAKCGALK@9@
  0020b	e8 00 00 00 00	 call	 ?GetName@CMover@@QAEPBDH@Z ; CMover::GetName
  00210	89 85 2c ff ff
	ff		 mov	 DWORD PTR _aLogItem$4[ebp+4], eax

; 1414 : 				aLogItem.RecvName = "GUILDCOMBAT1TO1_CANCELRETURN";
; 1415 : 				aLogItem.WorldId = pUser->GetWorld()->GetID();

  00216	8b 87 6c 01 00
	00		 mov	 eax, DWORD PTR [edi+364]
  0021c	c7 85 30 ff ff
	ff 00 00 00 00	 mov	 DWORD PTR _aLogItem$4[ebp+8], OFFSET ??_C@_0BN@FMNHPOCB@GUILDCOMBAT1TO1_CANCELRETURN@

; 1416 : 				//aLogItem.ItemName = "SEED";
; 1417 : 				_stprintf( aLogItem.szItemName, "%d", II_GOLD_SEED1 );

  00226	6a 0c		 push	 12			; 0000000cH
  00228	68 00 00 00 00	 push	 OFFSET ??_C@_02DPKJAMEF@?$CFd@
  0022d	8b 00		 mov	 eax, DWORD PTR [eax]
  0022f	89 85 34 ff ff
	ff		 mov	 DWORD PTR _aLogItem$4[ebp+12], eax
  00235	8d 85 4c ff ff
	ff		 lea	 eax, DWORD PTR _aLogItem$4[ebp+36]
  0023b	50		 push	 eax
  0023c	e8 00 00 00 00	 call	 _sprintf

; 1418 : 				aLogItem.Gold = pUser->GetGold() - nReturnGold;

  00241	8b 8f e0 14 00
	00		 mov	 ecx, DWORD PTR [edi+5344]
  00247	83 c4 0c	 add	 esp, 12			; 0000000cH
  0024a	8b c1		 mov	 eax, ecx

; 1419 : 				aLogItem.Gold2 = pUser->GetGold();

  0024c	89 8d 3c ff ff
	ff		 mov	 DWORD PTR _aLogItem$4[ebp+20], ecx
  00252	2b c3		 sub	 eax, ebx

; 1420 : 				aLogItem.Gold_1 = nReturnGold;

  00254	89 9d 74 ff ff
	ff		 mov	 DWORD PTR _aLogItem$4[ebp+76], ebx
  0025a	89 85 38 ff ff
	ff		 mov	 DWORD PTR _aLogItem$4[ebp+16], eax

; 1421 : 				g_DPSrvr.OnLogItem( aLogItem );

  00260	b9 00 00 00 00	 mov	 ecx, OFFSET ?g_DPSrvr@@3VCDPSrvr@@A ; g_DPSrvr
  00265	6a 00		 push	 0
  00267	6a 00		 push	 0
  00269	8d 85 28 ff ff
	ff		 lea	 eax, DWORD PTR _aLogItem$4[ebp]
  0026f	50		 push	 eax
  00270	e8 00 00 00 00	 call	 ?OnLogItem@CDPSrvr@@QAEXAAU_LogItemInfo@@PAVCItemElem@@H@Z ; CDPSrvr::OnLogItem

; 1422 : 				break;

  00275	c7 45 fc ff ff
	ff ff		 mov	 DWORD PTR __$EHRec$[ebp+8], -1
; File C:\Program Files\Microsoft Visual Studio\2022\Professional\VC\Tools\MSVC\14.44.35207\atlmfc\include\atlsimpstr.h

; 804  : 		return( reinterpret_cast< CStringData* >( m_pszData )-1 );

  0027c	83 c6 f0	 add	 esi, -16		; fffffff0H

; 92   : 		if( _InterlockedDecrement( &nRefs ) <= 0 )

  0027f	83 c8 ff	 or	 eax, -1
  00282	f0 0f c1 46 0c	 lock	  xadd	 DWORD PTR [esi+12], eax
  00287	48		 dec	 eax
  00288	85 c0		 test	 eax, eax
  0028a	7f 08		 jg	 SHORT $LN94@SetCancelT

; 93   : 		{
; 94   : 			pStringMgr->Free( this );

  0028c	8b 0e		 mov	 ecx, DWORD PTR [esi]
  0028e	56		 push	 esi
  0028f	8b 01		 mov	 eax, DWORD PTR [ecx]
  00291	ff 50 04	 call	 DWORD PTR [eax+4]
$LN94@SetCancelT:
; File C:\IAGOS\server\v18\Source\Source\_Common\GuildCombat1to1.cpp

; 1426 : }

  00294	8b 4d f4	 mov	 ecx, DWORD PTR __$EHRec$[ebp]
  00297	64 89 0d 00 00
	00 00		 mov	 DWORD PTR fs:0, ecx
  0029e	59		 pop	 ecx
  0029f	5f		 pop	 edi
  002a0	5e		 pop	 esi
  002a1	5b		 pop	 ebx
  002a2	8b 4d f0	 mov	 ecx, DWORD PTR __$ArrayPad$[ebp]
  002a5	33 cd		 xor	 ecx, ebp
  002a7	e8 00 00 00 00	 call	 @__security_check_cookie@4
  002ac	8b e5		 mov	 esp, ebp
  002ae	5d		 pop	 ebp
  002af	c2 04 00	 ret	 4
$LN115@SetCancelT:
; File C:\Program Files\Microsoft Visual Studio\2022\Professional\VC\Tools\MSVC\14.44.35207\atlmfc\include\atlsimpstr.h

; 209  : 		ATLENSURE( pStringMgr != NULL );

  002b2	68 05 40 00 80	 push	 -2147467259		; 80004005H
  002b7	e8 00 00 00 00	 call	 ?AtlThrowImpl@ATL@@YGXJ@Z ; ATL::AtlThrowImpl
$LN113@SetCancelT:
  002bc	cc		 int	 3
_TEXT	ENDS
;	COMDAT text$x
text$x	SEGMENT
__unwindfunclet$?SetCancelTenderGuild@CGuildCombat1to1Mng@@QAEXPAVCUser@@@Z$0:
  00000	8d 8d 24 ff ff
	ff		 lea	 ecx, DWORD PTR _strTemp$3[ebp]
  00006	e9 00 00 00 00	 jmp	 ??1?$CStringT@DV?$StrTraitMFC@DV?$ChTraitsCRT@D@ATL@@@@@ATL@@QAE@XZ ; ATL::CStringT<char,StrTraitMFC<char,ATL::ChTraitsCRT<char> > >::~CStringT<char,StrTraitMFC<char,ATL::ChTraitsCRT<char> > >
  0000b	cc		 int	 3
  0000c	cc		 int	 3
  0000d	cc		 int	 3
  0000e	cc		 int	 3
  0000f	cc		 int	 3
__ehhandler$?SetCancelTenderGuild@CGuildCombat1to1Mng@@QAEXPAVCUser@@@Z:
  00010	90		 npad	 1
  00011	90		 npad	 1
  00012	8b 54 24 08	 mov	 edx, DWORD PTR [esp+8]
  00016	8d 42 0c	 lea	 eax, DWORD PTR [edx+12]
  00019	8b 8a 1c ff ff
	ff		 mov	 ecx, DWORD PTR [edx-228]
  0001f	33 c8		 xor	 ecx, eax
  00021	e8 00 00 00 00	 call	 @__security_check_cookie@4
  00026	8b 4a fc	 mov	 ecx, DWORD PTR [edx-4]
  00029	33 c8		 xor	 ecx, eax
  0002b	e8 00 00 00 00	 call	 @__security_check_cookie@4
  00030	b8 00 00 00 00	 mov	 eax, OFFSET __ehfuncinfo$?SetCancelTenderGuild@CGuildCombat1to1Mng@@QAEXPAVCUser@@@Z
  00035	e9 00 00 00 00	 jmp	 ___CxxFrameHandler3
text$x	ENDS
?SetCancelTenderGuild@CGuildCombat1to1Mng@@QAEXPAVCUser@@@Z ENDP ; CGuildCombat1to1Mng::SetCancelTenderGuild
; Function compile flags: /Ogtp
; File C:\IAGOS\server\v18\Source\Source\_Common\GuildCombat1to1.cpp
; File C:\IAGOS\server\v18\Source\Source\_Common\Project.h
; File C:\IAGOS\server\v18\Source\Source\_Common\GuildCombat1to1.cpp
; File C:\IAGOS\server\v18\Source\Source\_Common\data.h
; File C:\IAGOS\server\v18\Source\Source\_Common\Project.h
; File C:\IAGOS\server\v18\Source\Source\_Common\GuildCombat1to1.cpp
; File C:\IAGOS\server\v18\Source\Source\_Common\Project.h
; File C:\IAGOS\server\v18\Source\Source\_Common\GuildCombat1to1.cpp
; File C:\Program Files\Microsoft Visual Studio\2022\Professional\VC\Tools\MSVC\14.44.35207\include\vector
; File C:\IAGOS\server\v18\Source\Source\_Common\GuildCombat1to1.cpp
; File C:\Program Files\Microsoft Visual Studio\2022\Professional\VC\Tools\MSVC\14.44.35207\include\vector
; File C:\IAGOS\server\v18\Source\Source\_Common\GuildCombat1to1.cpp
; File C:\Program Files\Microsoft Visual Studio\2022\Professional\VC\Tools\MSVC\14.44.35207\include\vector
; File C:\IAGOS\server\v18\Source\Source\_Common\GuildCombat1to1.cpp
; File C:\Program Files\Microsoft Visual Studio\2022\Professional\VC\Tools\MSVC\14.44.35207\include\vector
; File C:\IAGOS\server\v18\Source\Source\_Common\GuildCombat1to1.cpp
; File C:\Program Files\Microsoft Visual Studio\2022\Professional\VC\Tools\MSVC\14.44.35207\include\vector
; File C:\IAGOS\server\v18\Source\Source\_Common\GuildCombat1to1.h
; File C:\IAGOS\server\v18\Source\Source\_Common\GuildCombat1to1.cpp
; File C:\Program Files\Microsoft Visual Studio\2022\Professional\VC\Tools\MSVC\14.44.35207\include\vector
; File C:\IAGOS\server\v18\Source\Source\_Common\GuildCombat1to1.cpp
; File C:\Program Files\Microsoft Visual Studio\2022\Professional\VC\Tools\MSVC\14.44.35207\include\vector
; File C:\Program Files\Microsoft Visual Studio\2022\Professional\VC\Tools\MSVC\14.44.35207\include\xmemory
; File C:\Program Files\Microsoft Visual Studio\2022\Professional\VC\Tools\MSVC\14.44.35207\include\vector
; File C:\IAGOS\server\v18\Source\Source\_Common\GuildCombat1to1.cpp
; File C:\Program Files\Microsoft Visual Studio\2022\Professional\VC\Tools\MSVC\14.44.35207\include\vector
; File C:\IAGOS\server\v18\Source\Source\_Common\GuildCombat1to1.cpp
; File C:\Program Files\Microsoft Visual Studio\2022\Professional\VC\Tools\MSVC\14.44.35207\include\vector
; File C:\IAGOS\server\v18\Source\Source\_Common\GuildCombat1to1.cpp
; File C:\Program Files\Microsoft Visual Studio\2022\Professional\VC\Tools\MSVC\14.44.35207\include\vector
; File C:\IAGOS\server\v18\Source\Source\_Common\GuildCombat1to1.cpp
; File C:\Program Files\Microsoft Visual Studio\2022\Professional\VC\Tools\MSVC\14.44.35207\include\vector
; File C:\IAGOS\server\v18\Source\Source\_Common\GuildCombat1to1.cpp
; File C:\Program Files\Microsoft Visual Studio\2022\Professional\VC\Tools\MSVC\14.44.35207\include\vector
; File C:\IAGOS\server\v18\Source\Source\_Common\GuildCombat1to1.cpp
; File C:\Program Files\Microsoft Visual Studio\2022\Professional\VC\Tools\MSVC\14.44.35207\include\vector
; File C:\IAGOS\server\v18\Source\Source\_Common\GuildCombat1to1.cpp
; File C:\Program Files\Microsoft Visual Studio\2022\Professional\VC\Tools\MSVC\14.44.35207\include\vector
; File C:\IAGOS\server\v18\Source\Source\_Common\GuildCombat1to1.cpp
; File C:\Program Files\Microsoft Visual Studio\2022\Professional\VC\Tools\MSVC\14.44.35207\include\vector
; File C:\IAGOS\server\v18\Source\Source\_Common\GuildCombat1to1.cpp
; File C:\Program Files\Microsoft Visual Studio\2022\Professional\VC\Tools\MSVC\14.44.35207\include\vector
; File C:\IAGOS\server\v18\Source\Source\_Common\GuildCombat1to1.cpp
; File C:\Program Files\Microsoft Visual Studio\2022\Professional\VC\Tools\MSVC\14.44.35207\include\vector
; File C:\IAGOS\server\v18\Source\Source\_Common\GuildCombat1to1.cpp
; File C:\Program Files\Microsoft Visual Studio\2022\Professional\VC\Tools\MSVC\14.44.35207\include\vector
; File C:\IAGOS\server\v18\Source\Source\_Common\GuildCombat1to1.cpp
; File C:\Program Files\Microsoft Visual Studio\2022\Professional\VC\Tools\MSVC\14.44.35207\include\vector
; File C:\IAGOS\server\v18\Source\Source\_Common\GuildCombat1to1.cpp
; File C:\Program Files\Microsoft Visual Studio\2022\Professional\VC\Tools\MSVC\14.44.35207\include\xmemory
; File C:\IAGOS\server\v18\Source\Source\_Common\GuildCombat1to1.cpp
;	COMDAT ?SetTenderGuild@CGuildCombat1to1Mng@@QAEXPAVCUser@@H@Z
_TEXT	SEGMENT
_TenderGuild$2 = -280					; size = 44
_temp$3 = -280						; size = 44
$T4 = -236						; size = 4
$T5 = -232						; size = 4
__My_data$1$ = -228					; size = 4
_i$1$ = -224						; size = 4
tv1252 = -224						; size = 4
_strTemp$6 = -220					; size = 4
_strTemp$7 = -220					; size = 4
_j$1$ = -220						; size = 4
_aLogItem$ = -216					; size = 200
__$ArrayPad$ = -16					; size = 4
__$EHRec$ = -12						; size = 12
_pUser$ = 8						; size = 4
_nPenya$ = 12						; size = 4
?SetTenderGuild@CGuildCombat1to1Mng@@QAEXPAVCUser@@H@Z PROC ; CGuildCombat1to1Mng::SetTenderGuild, COMDAT
; _this$ = ecx

; 1252 : {

  00000	55		 push	 ebp
  00001	8b ec		 mov	 ebp, esp
  00003	6a ff		 push	 -1
  00005	68 00 00 00 00	 push	 __ehhandler$?SetTenderGuild@CGuildCombat1to1Mng@@QAEXPAVCUser@@H@Z
  0000a	64 a1 00 00 00
	00		 mov	 eax, DWORD PTR fs:0
  00010	50		 push	 eax
  00011	81 ec 0c 01 00
	00		 sub	 esp, 268		; 0000010cH
  00017	a1 00 00 00 00	 mov	 eax, DWORD PTR ___security_cookie
  0001c	33 c5		 xor	 eax, ebp
  0001e	89 45 f0	 mov	 DWORD PTR __$ArrayPad$[ebp], eax
  00021	53		 push	 ebx
  00022	56		 push	 esi
  00023	57		 push	 edi
  00024	50		 push	 eax
  00025	8d 45 f4	 lea	 eax, DWORD PTR __$EHRec$[ebp]
  00028	64 a3 00 00 00
	00		 mov	 DWORD PTR fs:0, eax
  0002e	8b f1		 mov	 esi, ecx
  00030	8b 7d 08	 mov	 edi, DWORD PTR _pUser$[ebp]

; 1253 : 	if( !g_eLocal.GetState( EVE_GUILDCOMBAT1TO1 ) )

  00033	b9 00 00 00 00	 mov	 ecx, OFFSET ?g_eLocal@@3VCFlyffEvent@@A ; g_eLocal
  00038	6a 16		 push	 22			; 00000016H
  0003a	e8 00 00 00 00	 call	 ?GetState@CFlyffEvent@@QAEEH@Z ; CFlyffEvent::GetState
  0003f	84 c0		 test	 al, al
  00041	0f 84 b6 05 00
	00		 je	 $LN3@SetTenderG

; 1254 : 		return;
; 1255 : 	
; 1256 : 	if( m_nState != GC1TO1_CLOSE )

  00047	83 7e 04 00	 cmp	 DWORD PTR [esi+4], 0
  0004b	74 6b		 je	 SHORT $LN9@SetTenderG
; File C:\IAGOS\server\v18\Source\Source\_Common\Project.h

; 1427 : 	VERIFY_RANGE( (int)( dwIndex ), 0, m_colorText.GetSize(), "GetText range_error", "error" );

  0004d	a1 ac 02 00 00	 mov	 eax, DWORD PTR ?prj@@3VCProject@@A+684
  00052	3d 6c 0d 00 00	 cmp	 eax, 3436		; 00000d6cH
  00057	7f 2c		 jg	 SHORT $LN28@SetTenderG

; 579  : 	LPCTSTR szErr = Error( _T( "%s min:%d, max:%d, index:%d" ), szMsg, nMin, nMax, nIndex ); 

  00059	68 6c 0d 00 00	 push	 3436			; 00000d6cH
  0005e	50		 push	 eax
  0005f	6a 00		 push	 0
  00061	68 00 00 00 00	 push	 OFFSET ??_C@_0BE@OHDBLHOM@GetText?5range_error@
  00066	68 00 00 00 00	 push	 OFFSET ??_C@_0BM@HMFGHCP@?$CFs?5min?3?$CFd?0?5max?3?$CFd?0?5index?3?$CFd@
  0006b	e8 00 00 00 00	 call	 ?Error@@YAPBDPBDZZ	; Error
  00070	83 c4 14	 add	 esp, 20			; 00000014H

; 1427 : 	VERIFY_RANGE( (int)( dwIndex ), 0, m_colorText.GetSize(), "GetText range_error", "error" );

  00073	b8 00 00 00 00	 mov	 eax, OFFSET ??_C@_05KKCIMGE@error@
; File C:\IAGOS\server\v18\Source\Source\_Common\GuildCombat1to1.cpp

; 1258 : 		pUser->AddDiagText( prj.GetText( TID_GAME_GUILDCOMBAT1TO1_NOTENDER ) );

  00078	8b cf		 mov	 ecx, edi
  0007a	50		 push	 eax
  0007b	e8 00 00 00 00	 call	 ?AddDiagText@CUser@@QAEXPBD@Z ; CUser::AddDiagText

; 1259 : 		return;

  00080	e9 78 05 00 00	 jmp	 $LN3@SetTenderG
$LN28@SetTenderG:
; File C:\IAGOS\server\v18\Source\Source\_Common\data.h

; 270  : 	if( dwIndex >= (DWORD)m_nMaxIndex )

  00085	76 1f		 jbe	 SHORT $LN157@SetTenderG

; 271  : 		return NULL;
; 272  : 	return (T*) m_apOffset[ dwIndex ];

  00087	a1 9c 02 00 00	 mov	 eax, DWORD PTR ?prj@@3VCProject@@A+668
  0008c	8b 80 b0 35 00
	00		 mov	 eax, DWORD PTR [eax+13744]
; File C:\IAGOS\server\v18\Source\Source\_Common\Project.h

; 1428 : 	if( m_colorText.GetAt( dwIndex ) == NULL )

  00092	85 c0		 test	 eax, eax
  00094	74 10		 je	 SHORT $LN157@SetTenderG

; 1430 : 	return m_colorText.GetAt( dwIndex )->lpszData; 

  00096	8b 40 04	 mov	 eax, DWORD PTR [eax+4]
; File C:\IAGOS\server\v18\Source\Source\_Common\GuildCombat1to1.cpp

; 1258 : 		pUser->AddDiagText( prj.GetText( TID_GAME_GUILDCOMBAT1TO1_NOTENDER ) );

  00099	8b cf		 mov	 ecx, edi
  0009b	50		 push	 eax
  0009c	e8 00 00 00 00	 call	 ?AddDiagText@CUser@@QAEXPBD@Z ; CUser::AddDiagText

; 1259 : 		return;

  000a1	e9 57 05 00 00	 jmp	 $LN3@SetTenderG
$LN157@SetTenderG:
; File C:\IAGOS\server\v18\Source\Source\_Common\Project.h

; 1429 : 		return "";

  000a6	b8 00 00 00 00	 mov	 eax, OFFSET ??_C@_00CNPNBAHC@@
; File C:\IAGOS\server\v18\Source\Source\_Common\GuildCombat1to1.cpp

; 1258 : 		pUser->AddDiagText( prj.GetText( TID_GAME_GUILDCOMBAT1TO1_NOTENDER ) );

  000ab	8b cf		 mov	 ecx, edi
  000ad	50		 push	 eax
  000ae	e8 00 00 00 00	 call	 ?AddDiagText@CUser@@QAEXPBD@Z ; CUser::AddDiagText

; 1259 : 		return;

  000b3	e9 45 05 00 00	 jmp	 $LN3@SetTenderG
$LN9@SetTenderG:

; 1260 : 	}
; 1261 : 	
; 1262 : 	// ±ćµĺ´ëŔüżˇ ŔÔÂűÇŃ ±ćµĺ´Â ŔÔÂűÇŇ Ľö ľř´Ů.
; 1263 : 	if( IsGCTenderGuild( pUser ) )

  000b8	57		 push	 edi
  000b9	8b ce		 mov	 ecx, esi
  000bb	e8 00 00 00 00	 call	 ?IsGCTenderGuild@CGuildCombat1to1Mng@@QAEHPAVCUser@@@Z ; CGuildCombat1to1Mng::IsGCTenderGuild
  000c0	85 c0		 test	 eax, eax
  000c2	74 11		 je	 SHORT $LN10@SetTenderG

; 1264 : 	{
; 1265 : 		pUser->AddDefinedText( TID_GAME_GUILDCOMBAT1TO1_ISGCTENDER );

  000c4	68 6e 0d 00 00	 push	 3438			; 00000d6eH
  000c9	8b cf		 mov	 ecx, edi
  000cb	e8 00 00 00 00	 call	 ?AddDefinedText@CUser@@QAEXH@Z ; CUser::AddDefinedText

; 1266 : 		return;

  000d0	e9 28 05 00 00	 jmp	 $LN3@SetTenderG
$LN10@SetTenderG:

; 1267 : 	}
; 1268 : 	
; 1269 : 	// ±ćµĺ¸¶˝şĹÍ¸¸ ŔÔÂű °ˇ´É
; 1270 : 	if( !IsGuildMaster( pUser ) )

  000d5	57		 push	 edi
  000d6	8b ce		 mov	 ecx, esi
  000d8	e8 00 00 00 00	 call	 ?IsGuildMaster@CGuildCombat1to1Mng@@QAEHPAVCUser@@@Z ; CGuildCombat1to1Mng::IsGuildMaster
  000dd	8b cf		 mov	 ecx, edi
  000df	85 c0		 test	 eax, eax
  000e1	75 0f		 jne	 SHORT $LN11@SetTenderG

; 1271 : 	{
; 1272 : 		pUser->AddDefinedText( TID_GAME_GUILDCOMBAT1TO1_NOTMASTER );

  000e3	68 6d 0d 00 00	 push	 3437			; 00000d6dH
  000e8	e8 00 00 00 00	 call	 ?AddDefinedText@CUser@@QAEXH@Z ; CUser::AddDefinedText

; 1273 : 		return;

  000ed	e9 0b 05 00 00	 jmp	 $LN3@SetTenderG
$LN11@SetTenderG:

; 1274 : 	}
; 1275 : 
; 1276 : 	// Âü°ˇÇŇ Ľö ŔÖ´Â ĂÖĽŇ ±ćµĺ·ąş§ °Ë»ç...
; 1277 : 	if( pUser->GetGuild()->m_nLevel < m_nGuildLevel )

  000f2	e8 00 00 00 00	 call	 ?GetGuild@CMover@@QAEPAVCGuild@@XZ ; CMover::GetGuild
  000f7	8b 4e 28	 mov	 ecx, DWORD PTR [esi+40]
  000fa	39 48 44	 cmp	 DWORD PTR [eax+68], ecx
  000fd	7d 19		 jge	 SHORT $LN12@SetTenderG

; 1278 : 	{
; 1279 : 		pUser->AddDefinedText( TID_GAME_GUILDCOMBAT1TO1_LOWGUILDLEVEL, "%d", m_nGuildLevel );

  000ff	51		 push	 ecx
  00100	68 00 00 00 00	 push	 OFFSET ??_C@_02DPKJAMEF@?$CFd@
  00105	68 6f 0d 00 00	 push	 3439			; 00000d6fH
  0010a	57		 push	 edi
  0010b	e8 00 00 00 00	 call	 ?AddDefinedText@CUser@@QAAXHPBDZZ ; CUser::AddDefinedText
  00110	83 c4 10	 add	 esp, 16			; 00000010H

; 1280 : 		return;

  00113	e9 e5 04 00 00	 jmp	 $LN3@SetTenderG
$LN12@SetTenderG:

; 1281 : 	}
; 1282 : 	
; 1283 : 	// ĂÖĽŇ ŔÔÂű ĆäłÄ ş¸´Ů ¸ąľĆľß ÇŃ´Ů.
; 1284 : 	if( nPenya < m_nJoinPenya )

  00118	8b 5d 0c	 mov	 ebx, DWORD PTR _nPenya$[ebp]
  0011b	3b 5e 08	 cmp	 ebx, DWORD PTR [esi+8]
  0011e	7d 11		 jge	 SHORT $LN13@SetTenderG

; 1285 : 	{
; 1286 : 		pUser->AddDefinedText( TID_GAME_GUILDCOMBAT1TO1_LIMIT_MIN );

  00120	68 61 0d 00 00	 push	 3425			; 00000d61H
  00125	8b cf		 mov	 ecx, edi
  00127	e8 00 00 00 00	 call	 ?AddDefinedText@CUser@@QAEXH@Z ; CUser::AddDefinedText

; 1287 : 		return;

  0012c	e9 cc 04 00 00	 jmp	 $LN3@SetTenderG
$LN13@SetTenderG:

; 1288 : 	}
; 1289 : 
; 1290 : 	// ·Î±× ł˛±ć ÁŘşń(ľĆŔĚĹŰ·Î±×)
; 1291 : 	LogItemInfo aLogItem;

  00131	8d 8d 28 ff ff
	ff		 lea	 ecx, DWORD PTR _aLogItem$[ebp]
  00137	e8 00 00 00 00	 call	 ??0_LogItemInfo@@QAE@XZ	; _LogItemInfo::_LogItemInfo

; 1292 : 	aLogItem.Action = "9";
; 1293 : 	aLogItem.SendName = pUser->GetName();

  0013c	6a 00		 push	 0
  0013e	8b cf		 mov	 ecx, edi
  00140	c7 85 28 ff ff
	ff 00 00 00 00	 mov	 DWORD PTR _aLogItem$[ebp], OFFSET ??_C@_01LAKCGALK@9@
  0014a	e8 00 00 00 00	 call	 ?GetName@CMover@@QAEPBDH@Z ; CMover::GetName
  0014f	89 85 2c ff ff
	ff		 mov	 DWORD PTR _aLogItem$[ebp+4], eax

; 1294 : 	aLogItem.RecvName = "GUILDCOMBAT1TO1";
; 1295 : 	aLogItem.WorldId = pUser->GetWorld()->GetID();

  00155	8b 87 6c 01 00
	00		 mov	 eax, DWORD PTR [edi+364]
  0015b	c7 85 30 ff ff
	ff 00 00 00 00	 mov	 DWORD PTR _aLogItem$[ebp+8], OFFSET ??_C@_0BA@PCMILOFB@GUILDCOMBAT1TO1@

; 1296 : 	//aLogItem.ItemName = "SEED";
; 1297 : 	_stprintf( aLogItem.szItemName, "%d", II_GOLD_SEED1 );

  00165	6a 0c		 push	 12			; 0000000cH
  00167	68 00 00 00 00	 push	 OFFSET ??_C@_02DPKJAMEF@?$CFd@
  0016c	8b 00		 mov	 eax, DWORD PTR [eax]
  0016e	89 85 34 ff ff
	ff		 mov	 DWORD PTR _aLogItem$[ebp+12], eax
  00174	8d 85 4c ff ff
	ff		 lea	 eax, DWORD PTR _aLogItem$[ebp+36]
  0017a	50		 push	 eax
  0017b	e8 00 00 00 00	 call	 _sprintf
  00180	83 c4 0c	 add	 esp, 12			; 0000000cH

; 1298 : 	
; 1299 : 	int nIndex = GetTenderGuildIndexByUser( pUser );

  00183	8b ce		 mov	 ecx, esi
  00185	57		 push	 edi
  00186	e8 00 00 00 00	 call	 ?GetTenderGuildIndexByUser@CGuildCombat1to1Mng@@QAEHPAVCUser@@@Z ; CGuildCombat1to1Mng::GetTenderGuildIndexByUser

; 1300 : 	if( nIndex != NULL_ID ) // ŔĚąĚ ŔÔÂűÇŃ ±ćµĺ´Â ´ő¸ąŔş ±Ýľ×Ŕ¸·Î ŔÔÂűÇŘľß ÇŃ´Ů.

  0018b	83 f8 ff	 cmp	 eax, -1
  0018e	0f 84 0f 01 00
	00		 je	 $LN14@SetTenderG
; File C:\Program Files\Microsoft Visual Studio\2022\Professional\VC\Tools\MSVC\14.44.35207\include\vector

; 1928 :         auto& _My_data = _Mypair._Myval2;

  00194	83 c6 4c	 add	 esi, 76			; 0000004cH

; 1934 :         return _My_data._Myfirst[_Pos];

  00197	6b c8 2c	 imul	 ecx, eax, 44
  0019a	89 b5 1c ff ff
	ff		 mov	 DWORD PTR __My_data$1$[ebp], esi
; File C:\IAGOS\server\v18\Source\Source\_Common\GuildCombat1to1.cpp

; 1302 : 		if( m_vecTenderGuild[nIndex].nPenya < nPenya )

  001a0	8b 06		 mov	 eax, DWORD PTR [esi]
; File C:\Program Files\Microsoft Visual Studio\2022\Professional\VC\Tools\MSVC\14.44.35207\include\vector

; 1934 :         return _My_data._Myfirst[_Pos];

  001a2	89 8d 20 ff ff
	ff		 mov	 DWORD PTR tv1252[ebp], ecx
; File C:\IAGOS\server\v18\Source\Source\_Common\GuildCombat1to1.cpp

; 1302 : 		if( m_vecTenderGuild[nIndex].nPenya < nPenya )

  001a8	8b 4c 01 04	 mov	 ecx, DWORD PTR [ecx+eax+4]
  001ac	3b cb		 cmp	 ecx, ebx
  001ae	0f 8d de 00 00
	00		 jge	 $LN16@SetTenderG

; 1303 : 		{
; 1304 : 			if( (DWORD)( nPenya ) > (DWORD)(pUser->GetGold() + m_vecTenderGuild[nIndex].nPenya) )

  001b4	8b 87 e0 14 00
	00		 mov	 eax, DWORD PTR [edi+5344]
  001ba	03 c1		 add	 eax, ecx
  001bc	3b d8		 cmp	 ebx, eax
  001be	0f 87 e7 00 00
	00		 ja	 $LN158@SetTenderG

; 1305 : 			{
; 1306 : 				pUser->AddDefinedText( TID_GAME_LACKMONEY );	// ĆäłÄ°ˇ şÎÁ·ÇĎ´Ů.
; 1307 : 				return;
; 1308 : 			}
; 1309 : 
; 1310 : 			pUser->AddGold( m_vecTenderGuild[nIndex].nPenya - nPenya );

  001c4	2b cb		 sub	 ecx, ebx
  001c6	6a 01		 push	 1
  001c8	51		 push	 ecx
  001c9	8b cf		 mov	 ecx, edi
  001cb	e8 00 00 00 00	 call	 ?AddGold@CMover@@QAEHHH@Z ; CMover::AddGold

; 1311 : 			CString strTemp;

  001d0	8d 8d 24 ff ff
	ff		 lea	 ecx, DWORD PTR _strTemp$6[ebp]
  001d6	e8 00 00 00 00	 call	 ??0?$CStringT@DV?$StrTraitMFC@DV?$ChTraitsCRT@D@ATL@@@@@ATL@@QAE@XZ ; ATL::CStringT<char,StrTraitMFC<char,ATL::ChTraitsCRT<char> > >::CStringT<char,StrTraitMFC<char,ATL::ChTraitsCRT<char> > >
; File C:\Program Files\Microsoft Visual Studio\2022\Professional\VC\Tools\MSVC\14.44.35207\include\vector

; 1934 :         return _My_data._Myfirst[_Pos];

  001db	8b 06		 mov	 eax, DWORD PTR [esi]
; File C:\IAGOS\server\v18\Source\Source\_Common\GuildCombat1to1.cpp

; 1312 : 			strTemp.Format( prj.GetText( TID_GAME_GUILDCOMBAT1TO1_MORETENDER ), nPenya - m_vecTenderGuild[nIndex].nPenya, nPenya );

  001dd	8b cb		 mov	 ecx, ebx
; File C:\Program Files\Microsoft Visual Studio\2022\Professional\VC\Tools\MSVC\14.44.35207\include\vector

; 1934 :         return _My_data._Myfirst[_Pos];

  001df	03 85 20 ff ff
	ff		 add	 eax, DWORD PTR tv1252[ebp]
; File C:\IAGOS\server\v18\Source\Source\_Common\GuildCombat1to1.cpp

; 1312 : 			strTemp.Format( prj.GetText( TID_GAME_GUILDCOMBAT1TO1_MORETENDER ), nPenya - m_vecTenderGuild[nIndex].nPenya, nPenya );

  001e5	53		 push	 ebx
  001e6	c7 45 fc 00 00
	00 00		 mov	 DWORD PTR __$EHRec$[ebp+8], 0
  001ed	2b 48 04	 sub	 ecx, DWORD PTR [eax+4]
  001f0	51		 push	 ecx
  001f1	68 70 0d 00 00	 push	 3440			; 00000d70H
  001f6	b9 00 00 00 00	 mov	 ecx, OFFSET ?prj@@3VCProject@@A ; prj
  001fb	e8 00 00 00 00	 call	 ?GetText@CProject@@QAEPBDK@Z ; CProject::GetText
  00200	50		 push	 eax
  00201	8d 85 24 ff ff
	ff		 lea	 eax, DWORD PTR _strTemp$6[ebp]
  00207	50		 push	 eax
  00208	e8 00 00 00 00	 call	 ?Format@?$CStringT@DV?$StrTraitMFC@DV?$ChTraitsCRT@D@ATL@@@@@ATL@@QAAXPBDZZ ; ATL::CStringT<char,StrTraitMFC<char,ATL::ChTraitsCRT<char> > >::Format
  0020d	83 c4 10	 add	 esp, 16			; 00000010H

; 1313 : 			pUser->AddDiagText( strTemp );

  00210	8b cf		 mov	 ecx, edi
  00212	ff b5 24 ff ff
	ff		 push	 DWORD PTR _strTemp$6[ebp]
  00218	e8 00 00 00 00	 call	 ?AddDiagText@CUser@@QAEXPBD@Z ; CUser::AddDiagText

; 1314 : 			m_vecTenderGuild[nIndex].nPenya = nPenya;

  0021d	8b 06		 mov	 eax, DWORD PTR [esi]
  0021f	8b 8d 20 ff ff
	ff		 mov	 ecx, DWORD PTR tv1252[ebp]

; 1315 : 			// ·Î±× ł˛±č
; 1316 : 			aLogItem.Gold = pUser->GetGold() + (nPenya - m_vecTenderGuild[nIndex].nPenya) ;
; 1317 : 			aLogItem.Gold2 = pUser->GetGold();
; 1318 : 			aLogItem.Gold_1 = m_vecTenderGuild[nIndex].nPenya - nPenya;
; 1319 : 			g_DPSrvr.OnLogItem( aLogItem );

  00225	6a 00		 push	 0
  00227	6a 00		 push	 0
  00229	89 5c 08 04	 mov	 DWORD PTR [eax+ecx+4], ebx
  0022d	8b 16		 mov	 edx, DWORD PTR [esi]
  0022f	03 d1		 add	 edx, ecx
  00231	8b 8f e0 14 00
	00		 mov	 ecx, DWORD PTR [edi+5344]
  00237	8b c1		 mov	 eax, ecx
  00239	2b 42 04	 sub	 eax, DWORD PTR [edx+4]
  0023c	03 c3		 add	 eax, ebx
  0023e	89 8d 3c ff ff
	ff		 mov	 DWORD PTR _aLogItem$[ebp+20], ecx
  00244	89 85 38 ff ff
	ff		 mov	 DWORD PTR _aLogItem$[ebp+16], eax
  0024a	b9 00 00 00 00	 mov	 ecx, OFFSET ?g_DPSrvr@@3VCDPSrvr@@A ; g_DPSrvr
  0024f	8b 42 04	 mov	 eax, DWORD PTR [edx+4]
  00252	2b c3		 sub	 eax, ebx
  00254	89 85 74 ff ff
	ff		 mov	 DWORD PTR _aLogItem$[ebp+76], eax
  0025a	8d 85 28 ff ff
	ff		 lea	 eax, DWORD PTR _aLogItem$[ebp]
  00260	50		 push	 eax
  00261	e8 00 00 00 00	 call	 ?OnLogItem@CDPSrvr@@QAEXAAU_LogItemInfo@@PAVCItemElem@@H@Z ; CDPSrvr::OnLogItem

; 1320 : 			g_dpDBClient.SendGC1to1Tender( 'U', pUser->m_idGuild, nPenya, 'T' );

  00266	6a 54		 push	 84			; 00000054H
  00268	53		 push	 ebx
  00269	ff b7 14 07 00
	00		 push	 DWORD PTR [edi+1812]
  0026f	b9 00 00 00 00	 mov	 ecx, OFFSET ?g_dpDBClient@@3VCDPDatabaseClient@@A ; g_dpDBClient
  00274	6a 55		 push	 85			; 00000055H
  00276	e8 00 00 00 00	 call	 ?SendGC1to1Tender@CDPDatabaseClient@@QAEXDKHD@Z ; CDPDatabaseClient::SendGC1to1Tender

; 1321 : 		}

  0027b	8d 8d 24 ff ff
	ff		 lea	 ecx, DWORD PTR _strTemp$6[ebp]
  00281	c7 45 fc ff ff
	ff ff		 mov	 DWORD PTR __$EHRec$[ebp+8], -1
  00288	e8 00 00 00 00	 call	 ??1?$CStringT@DV?$StrTraitMFC@DV?$ChTraitsCRT@D@ATL@@@@@ATL@@QAE@XZ ; ATL::CStringT<char,StrTraitMFC<char,ATL::ChTraitsCRT<char> > >::~CStringT<char,StrTraitMFC<char,ATL::ChTraitsCRT<char> > >

; 1326 : 		}
; 1327 : 	}

  0028d	e9 a3 01 00 00	 jmp	 $LN112@SetTenderG
$LN16@SetTenderG:

; 1322 : 		else // ±âÁ¸ş¸´Ů ´ő ¸ąŔş ĆäłÄ ŔÔÂű żä±¸
; 1323 : 		{
; 1324 : 			pUser->AddDefinedText( TID_GAME_GUILDCOMBAT1TO1_MORE_CURRENT_REQUEST );

  00292	68 60 0d 00 00	 push	 3424			; 00000d60H
  00297	8b cf		 mov	 ecx, edi
  00299	e8 00 00 00 00	 call	 ?AddDefinedText@CUser@@QAEXH@Z ; CUser::AddDefinedText

; 1325 : 			return;

  0029e	e9 5a 03 00 00	 jmp	 $LN3@SetTenderG
$LN14@SetTenderG:

; 1328 : 	else	// ĂłŔ˝ ŔÔÂűÇĎ´Â ±ćµĺŔĚ¸é..
; 1329 : 	{
; 1330 : 		if( nPenya > pUser->GetGold() )	// ĆäłÄ şÎÁ·

  002a3	3b 9f e0 14 00
	00		 cmp	 ebx, DWORD PTR [edi+5344]
  002a9	7e 11		 jle	 SHORT $LN19@SetTenderG
$LN158@SetTenderG:

; 1331 : 		{
; 1332 : 			pUser->AddDefinedText( TID_GAME_LACKMONEY );

  002ab	68 71 02 00 00	 push	 625			; 00000271H
  002b0	8b cf		 mov	 ecx, edi
  002b2	e8 00 00 00 00	 call	 ?AddDefinedText@CUser@@QAEXH@Z ; CUser::AddDefinedText

; 1333 : 			return;

  002b7	e9 41 03 00 00	 jmp	 $LN3@SetTenderG
$LN19@SetTenderG:
; File C:\Program Files\Microsoft Visual Studio\2022\Professional\VC\Tools\MSVC\14.44.35207\include\vector

; 400  :     _CONSTEXPR20 _Vector_val() noexcept : _Myfirst(), _Mylast(), _Myend() {}

  002bc	c7 85 08 ff ff
	ff 00 00 00 00	 mov	 DWORD PTR _TenderGuild$2[ebp+32], 0
  002c6	c7 85 0c ff ff
	ff 00 00 00 00	 mov	 DWORD PTR _TenderGuild$2[ebp+36], 0
  002d0	c7 85 10 ff ff
	ff 00 00 00 00	 mov	 DWORD PTR _TenderGuild$2[ebp+40], 0
; File C:\IAGOS\server\v18\Source\Source\_Common\GuildCombat1to1.h

; 77   : 			nNowPlayerLife = 0;

  002da	c7 85 00 ff ff
	ff 00 00 00 00	 mov	 DWORD PTR _TenderGuild$2[ebp+24], 0

; 78   : 			nWinCount = 0;

  002e4	c7 85 fc fe ff
	ff 00 00 00 00	 mov	 DWORD PTR _TenderGuild$2[ebp+20], 0

; 79   : 			nPosition = 0;

  002ee	c7 85 f4 fe ff
	ff 00 00 00 00	 mov	 DWORD PTR _TenderGuild$2[ebp+12], 0

; 80   : 			nLastWinState = GC1TO1_PLAYER_DRAW;

  002f8	c7 85 04 ff ff
	ff cc 00 00 00	 mov	 DWORD PTR _TenderGuild$2[ebp+28], 204 ; 000000ccH

; 81   : 			ulGuildId = NULL_ID;
; 82   : 			nPenya = 0;
; 83   : 			nStageId = NULL_ID;

  00302	c7 85 f0 fe ff
	ff ff ff ff ff	 mov	 DWORD PTR _TenderGuild$2[ebp+8], -1

; 84   : 			dwWorldId = NULL_ID;

  0030c	c7 85 f8 fe ff
	ff ff ff ff ff	 mov	 DWORD PTR _TenderGuild$2[ebp+16], -1
; File C:\IAGOS\server\v18\Source\Source\_Common\GuildCombat1to1.cpp

; 1337 : 		TenderGuild.ulGuildId = pUser->m_idGuild;

  00316	8b 87 14 07 00
	00		 mov	 eax, DWORD PTR [edi+1812]

; 1338 : 		TenderGuild.nPenya = nPenya;
; 1339 : 		m_vecTenderGuild.push_back( TenderGuild );

  0031c	83 c6 4c	 add	 esi, 76			; 0000004cH
  0031f	89 85 e8 fe ff
	ff		 mov	 DWORD PTR _TenderGuild$2[ebp], eax
  00325	8b ce		 mov	 ecx, esi
  00327	8d 85 e8 fe ff
	ff		 lea	 eax, DWORD PTR _TenderGuild$2[ebp]
  0032d	c7 45 fc 01 00
	00 00		 mov	 DWORD PTR __$EHRec$[ebp+8], 1
  00334	50		 push	 eax
  00335	89 9d ec fe ff
	ff		 mov	 DWORD PTR _TenderGuild$2[ebp+4], ebx
  0033b	89 b5 1c ff ff
	ff		 mov	 DWORD PTR __My_data$1$[ebp], esi
  00341	e8 00 00 00 00	 call	 ?push_back@?$vector@U__GC1TO1TENDER@CGuildCombat1to1Mng@@V?$allocator@U__GC1TO1TENDER@CGuildCombat1to1Mng@@@std@@@std@@QAEXABU__GC1TO1TENDER@CGuildCombat1to1Mng@@@Z ; std::vector<CGuildCombat1to1Mng::__GC1TO1TENDER,std::allocator<CGuildCombat1to1Mng::__GC1TO1TENDER> >::push_back

; 1340 : 		pUser->AddGold( -nPenya );

  00346	8b c3		 mov	 eax, ebx
  00348	8b cf		 mov	 ecx, edi
  0034a	6a 01		 push	 1
  0034c	f7 d8		 neg	 eax
  0034e	50		 push	 eax
  0034f	e8 00 00 00 00	 call	 ?AddGold@CMover@@QAEHHH@Z ; CMover::AddGold

; 1341 : 		CString strTemp;

  00354	8d 8d 24 ff ff
	ff		 lea	 ecx, DWORD PTR _strTemp$7[ebp]
  0035a	e8 00 00 00 00	 call	 ??0?$CStringT@DV?$StrTraitMFC@DV?$ChTraitsCRT@D@ATL@@@@@ATL@@QAE@XZ ; ATL::CStringT<char,StrTraitMFC<char,ATL::ChTraitsCRT<char> > >::CStringT<char,StrTraitMFC<char,ATL::ChTraitsCRT<char> > >

; 1342 : 		strTemp.Format( prj.GetText( TID_GAME_GUILDCOMBAT1TO1_TENDERPENYA ), nPenya );

  0035f	53		 push	 ebx
  00360	68 71 0d 00 00	 push	 3441			; 00000d71H
  00365	b9 00 00 00 00	 mov	 ecx, OFFSET ?prj@@3VCProject@@A ; prj
  0036a	c6 45 fc 02	 mov	 BYTE PTR __$EHRec$[ebp+8], 2
  0036e	e8 00 00 00 00	 call	 ?GetText@CProject@@QAEPBDK@Z ; CProject::GetText
  00373	50		 push	 eax
  00374	8d 85 24 ff ff
	ff		 lea	 eax, DWORD PTR _strTemp$7[ebp]
  0037a	50		 push	 eax
  0037b	e8 00 00 00 00	 call	 ?Format@?$CStringT@DV?$StrTraitMFC@DV?$ChTraitsCRT@D@ATL@@@@@ATL@@QAAXPBDZZ ; ATL::CStringT<char,StrTraitMFC<char,ATL::ChTraitsCRT<char> > >::Format
  00380	83 c4 0c	 add	 esp, 12			; 0000000cH

; 1343 : 		pUser->AddDiagText( strTemp );

  00383	8b cf		 mov	 ecx, edi
  00385	ff b5 24 ff ff
	ff		 push	 DWORD PTR _strTemp$7[ebp]
  0038b	e8 00 00 00 00	 call	 ?AddDiagText@CUser@@QAEXPBD@Z ; CUser::AddDiagText

; 1344 : 		// ·Î±× ł˛±č
; 1345 : 		aLogItem.Gold = pUser->GetGold() + nPenya;

  00390	8b 8f e0 14 00
	00		 mov	 ecx, DWORD PTR [edi+5344]

; 1346 : 		aLogItem.Gold2 = pUser->GetGold();
; 1347 : 		aLogItem.Gold_1 = -nPenya;
; 1348 : 		g_DPSrvr.OnLogItem( aLogItem );

  00396	6a 00		 push	 0
  00398	6a 00		 push	 0
  0039a	89 8d 3c ff ff
	ff		 mov	 DWORD PTR _aLogItem$[ebp+20], ecx
  003a0	8d 04 19	 lea	 eax, DWORD PTR [ecx+ebx]
  003a3	b9 00 00 00 00	 mov	 ecx, OFFSET ?g_DPSrvr@@3VCDPSrvr@@A ; g_DPSrvr
  003a8	89 85 38 ff ff
	ff		 mov	 DWORD PTR _aLogItem$[ebp+16], eax
  003ae	8b c3		 mov	 eax, ebx
  003b0	f7 d8		 neg	 eax
  003b2	89 85 74 ff ff
	ff		 mov	 DWORD PTR _aLogItem$[ebp+76], eax
  003b8	8d 85 28 ff ff
	ff		 lea	 eax, DWORD PTR _aLogItem$[ebp]
  003be	50		 push	 eax
  003bf	e8 00 00 00 00	 call	 ?OnLogItem@CDPSrvr@@QAEXAAU_LogItemInfo@@PAVCItemElem@@H@Z ; CDPSrvr::OnLogItem

; 1349 : 		g_dpDBClient.SendGC1to1Tender( 'I', pUser->m_idGuild, nPenya, 'T' );

  003c4	6a 54		 push	 84			; 00000054H
  003c6	53		 push	 ebx
  003c7	ff b7 14 07 00
	00		 push	 DWORD PTR [edi+1812]
  003cd	b9 00 00 00 00	 mov	 ecx, OFFSET ?g_dpDBClient@@3VCDPDatabaseClient@@A ; g_dpDBClient
  003d2	6a 49		 push	 73			; 00000049H
  003d4	e8 00 00 00 00	 call	 ?SendGC1to1Tender@CDPDatabaseClient@@QAEXDKHD@Z ; CDPDatabaseClient::SendGC1to1Tender

; 1350 : 	}

  003d9	8d 8d 24 ff ff
	ff		 lea	 ecx, DWORD PTR _strTemp$7[ebp]
  003df	e8 00 00 00 00	 call	 ??1?$CStringT@DV?$StrTraitMFC@DV?$ChTraitsCRT@D@ATL@@@@@ATL@@QAE@XZ ; ATL::CStringT<char,StrTraitMFC<char,ATL::ChTraitsCRT<char> > >::~CStringT<char,StrTraitMFC<char,ATL::ChTraitsCRT<char> > >
; File C:\Program Files\Microsoft Visual Studio\2022\Professional\VC\Tools\MSVC\14.44.35207\include\vector

; 2090 :         if (_Myfirst) { // destroy and deallocate old array

  003e4	8b 8d 08 ff ff
	ff		 mov	 ecx, DWORD PTR _TenderGuild$2[ebp+32]
; File C:\IAGOS\server\v18\Source\Source\_Common\GuildCombat1to1.cpp

; 1350 : 	}

  003ea	c7 45 fc ff ff
	ff ff		 mov	 DWORD PTR __$EHRec$[ebp+8], -1
; File C:\Program Files\Microsoft Visual Studio\2022\Professional\VC\Tools\MSVC\14.44.35207\include\vector

; 2090 :         if (_Myfirst) { // destroy and deallocate old array

  003f1	85 c9		 test	 ecx, ecx
  003f3	74 40		 je	 SHORT $LN112@SetTenderG

; 2091 :             _STD _Destroy_range(_Myfirst, _Mylast, _Al);
; 2092 :             _ASAN_VECTOR_REMOVE;
; 2093 :             _Al.deallocate(_Myfirst, static_cast<size_type>(_Myend - _Myfirst));

  003f5	8b 85 10 ff ff
	ff		 mov	 eax, DWORD PTR _TenderGuild$2[ebp+40]
  003fb	2b c1		 sub	 eax, ecx
  003fd	c1 f8 02	 sar	 eax, 2
; File C:\Program Files\Microsoft Visual Studio\2022\Professional\VC\Tools\MSVC\14.44.35207\include\xmemory

; 985  :         _STD _Deallocate<_New_alignof<_Ty>>(_Ptr, sizeof(_Ty) * _Count);

  00400	8d 14 85 00 00
	00 00		 lea	 edx, DWORD PTR [eax*4]
  00407	8b c1		 mov	 eax, ecx

; 284  :         if (_Bytes >= _Big_allocation_threshold) {

  00409	81 fa 00 10 00
	00		 cmp	 edx, 4096		; 00001000H
  0040f	72 14		 jb	 SHORT $LN125@SetTenderG

; 205  :     const uintptr_t _Ptr_container   = _Ptr_user[-1];

  00411	8b 48 fc	 mov	 ecx, DWORD PTR [eax-4]
  00414	83 c2 23	 add	 edx, 35			; 00000023H
  00417	2b c1		 sub	 eax, ecx

; 219  :     _STL_VERIFY(_Back_shift >= _Min_back_shift && _Back_shift <= _Non_user_size, "invalid argument");

  00419	83 c0 fc	 add	 eax, -4			; fffffffcH
  0041c	83 f8 1f	 cmp	 eax, 31			; 0000001fH
  0041f	0f 87 f6 01 00
	00		 ja	 $LN164@SetTenderG
$LN125@SetTenderG:

; 289  :         ::operator delete(_Ptr, _Bytes);

  00425	52		 push	 edx
  00426	51		 push	 ecx
  00427	e8 00 00 00 00	 call	 ??3@YAXPAXI@Z		; operator delete
  0042c	83 c4 08	 add	 esp, 8
  0042f	89 b5 1c ff ff
	ff		 mov	 DWORD PTR __My_data$1$[ebp], esi
$LN112@SetTenderG:
; File C:\Program Files\Microsoft Visual Studio\2022\Professional\VC\Tools\MSVC\14.44.35207\include\vector

; 1915 :         return static_cast<size_type>(_My_data._Mylast - _My_data._Myfirst);

  00435	8b 4e 04	 mov	 ecx, DWORD PTR [esi+4]
  00438	8b 06		 mov	 eax, DWORD PTR [esi]
  0043a	89 85 18 ff ff
	ff		 mov	 DWORD PTR $T5[ebp], eax
  00440	89 8d 14 ff ff
	ff		 mov	 DWORD PTR $T4[ebp], ecx
  00446	2b c8		 sub	 ecx, eax
  00448	b8 e9 a2 8b 2e	 mov	 eax, 780903145		; 2e8ba2e9H
  0044d	f7 e9		 imul	 ecx
  0044f	c1 fa 03	 sar	 edx, 3
  00452	8b c2		 mov	 eax, edx
  00454	c1 e8 1f	 shr	 eax, 31			; 0000001fH
  00457	03 c2		 add	 eax, edx
; File C:\IAGOS\server\v18\Source\Source\_Common\GuildCombat1to1.cpp

; 1353 : 	if( m_vecTenderGuild.size() < 2 )

  00459	83 f8 02	 cmp	 eax, 2
  0045c	0f 82 9b 01 00
	00		 jb	 $LN3@SetTenderG

; 1355 : 	for( int i=0; i<(int)( m_vecTenderGuild.size()-1 ); i++ )

  00462	33 f6		 xor	 esi, esi
  00464	48		 dec	 eax
  00465	89 b5 20 ff ff
	ff		 mov	 DWORD PTR _i$1$[ebp], esi
  0046b	85 c0		 test	 eax, eax
  0046d	0f 8e 8a 01 00
	00		 jle	 $LN3@SetTenderG
  00473	8b 8d 18 ff ff
	ff		 mov	 ecx, DWORD PTR $T5[ebp]
  00479	0f 1f 80 00 00
	00 00		 npad	 7
$LL4@SetTenderG:

; 1357 : 		for( int j=0; j<(int)( m_vecTenderGuild.size()-i-1 ); j++ )

  00480	33 d2		 xor	 edx, edx
; File C:\Program Files\Microsoft Visual Studio\2022\Professional\VC\Tools\MSVC\14.44.35207\include\vector

; 1915 :         return static_cast<size_type>(_My_data._Mylast - _My_data._Myfirst);

  00482	b8 e9 a2 8b 2e	 mov	 eax, 780903145		; 2e8ba2e9H
; File C:\IAGOS\server\v18\Source\Source\_Common\GuildCombat1to1.cpp

; 1357 : 		for( int j=0; j<(int)( m_vecTenderGuild.size()-i-1 ); j++ )

  00487	89 95 24 ff ff
	ff		 mov	 DWORD PTR _j$1$[ebp], edx
  0048d	8b f9		 mov	 edi, ecx
  0048f	8b 95 14 ff ff
	ff		 mov	 edx, DWORD PTR $T4[ebp]
  00495	8b da		 mov	 ebx, edx
; File C:\Program Files\Microsoft Visual Studio\2022\Professional\VC\Tools\MSVC\14.44.35207\include\vector

; 1915 :         return static_cast<size_type>(_My_data._Mylast - _My_data._Myfirst);

  00497	2b d1		 sub	 edx, ecx
  00499	f7 ea		 imul	 edx
  0049b	c1 fa 03	 sar	 edx, 3
  0049e	8b c2		 mov	 eax, edx
  004a0	c1 e8 1f	 shr	 eax, 31			; 0000001fH
  004a3	03 c2		 add	 eax, edx
; File C:\IAGOS\server\v18\Source\Source\_Common\GuildCombat1to1.cpp

; 1357 : 		for( int j=0; j<(int)( m_vecTenderGuild.size()-i-1 ); j++ )

  004a5	2b c6		 sub	 eax, esi
  004a7	48		 dec	 eax
  004a8	85 c0		 test	 eax, eax
  004aa	0f 8e 22 01 00
	00		 jle	 $LN2@SetTenderG
  004b0	33 f6		 xor	 esi, esi
$LL7@SetTenderG:

; 1359 : 			if( m_vecTenderGuild[j].nPenya < m_vecTenderGuild[j+1].nPenya )

  004b2	8d 04 0e	 lea	 eax, DWORD PTR [esi+ecx]
  004b5	8b 48 04	 mov	 ecx, DWORD PTR [eax+4]
  004b8	3b 48 30	 cmp	 ecx, DWORD PTR [eax+48]
  004bb	0f 8d c7 00 00
	00		 jge	 $LN160@SetTenderG

; 1361 : 				__GC1TO1TENDER temp = m_vecTenderGuild[j];

  004c1	50		 push	 eax
  004c2	8d 8d e8 fe ff
	ff		 lea	 ecx, DWORD PTR _temp$3[ebp]
  004c8	e8 00 00 00 00	 call	 ??0__GC1TO1TENDER@CGuildCombat1to1Mng@@QAE@ABU01@@Z
; File C:\Program Files\Microsoft Visual Studio\2022\Professional\VC\Tools\MSVC\14.44.35207\include\vector

; 1934 :         return _My_data._Myfirst[_Pos];

  004cd	8b bd 1c ff ff
	ff		 mov	 edi, DWORD PTR __My_data$1$[ebp]
; File C:\IAGOS\server\v18\Source\Source\_Common\GuildCombat1to1.cpp

; 1361 : 				__GC1TO1TENDER temp = m_vecTenderGuild[j];

  004d3	c7 45 fc 03 00
	00 00		 mov	 DWORD PTR __$EHRec$[ebp+8], 3
; File C:\Program Files\Microsoft Visual Studio\2022\Professional\VC\Tools\MSVC\14.44.35207\include\vector

; 1934 :         return _My_data._Myfirst[_Pos];

  004da	8b 0f		 mov	 ecx, DWORD PTR [edi]
  004dc	03 ce		 add	 ecx, esi
  004de	8b 41 2c	 mov	 eax, DWORD PTR [ecx+44]
  004e1	89 01		 mov	 DWORD PTR [ecx], eax
  004e3	8b 41 30	 mov	 eax, DWORD PTR [ecx+48]
  004e6	89 41 04	 mov	 DWORD PTR [ecx+4], eax
  004e9	8b 41 34	 mov	 eax, DWORD PTR [ecx+52]
  004ec	89 41 08	 mov	 DWORD PTR [ecx+8], eax
  004ef	8b 41 38	 mov	 eax, DWORD PTR [ecx+56]
  004f2	89 41 0c	 mov	 DWORD PTR [ecx+12], eax
  004f5	8b 41 3c	 mov	 eax, DWORD PTR [ecx+60]
  004f8	89 41 10	 mov	 DWORD PTR [ecx+16], eax
  004fb	8b 41 40	 mov	 eax, DWORD PTR [ecx+64]
  004fe	89 41 14	 mov	 DWORD PTR [ecx+20], eax
  00501	8b 41 44	 mov	 eax, DWORD PTR [ecx+68]
  00504	89 41 18	 mov	 DWORD PTR [ecx+24], eax
  00507	8b 41 48	 mov	 eax, DWORD PTR [ecx+72]
  0050a	89 41 1c	 mov	 DWORD PTR [ecx+28], eax
  0050d	8d 41 4c	 lea	 eax, DWORD PTR [ecx+76]
  00510	50		 push	 eax
  00511	83 c1 20	 add	 ecx, 32			; 00000020H
  00514	e8 00 00 00 00	 call	 ??4?$vector@KV?$allocator@K@std@@@std@@QAEAAV01@ABV01@@Z ; std::vector<unsigned long,std::allocator<unsigned long> >::operator=
  00519	8b 0f		 mov	 ecx, DWORD PTR [edi]
  0051b	8b 85 e8 fe ff
	ff		 mov	 eax, DWORD PTR _temp$3[ebp]
  00521	03 ce		 add	 ecx, esi
  00523	89 41 2c	 mov	 DWORD PTR [ecx+44], eax
  00526	8b 85 ec fe ff
	ff		 mov	 eax, DWORD PTR _temp$3[ebp+4]
  0052c	89 41 30	 mov	 DWORD PTR [ecx+48], eax
  0052f	8b 85 f0 fe ff
	ff		 mov	 eax, DWORD PTR _temp$3[ebp+8]
  00535	89 41 34	 mov	 DWORD PTR [ecx+52], eax
  00538	8b 85 f4 fe ff
	ff		 mov	 eax, DWORD PTR _temp$3[ebp+12]
  0053e	89 41 38	 mov	 DWORD PTR [ecx+56], eax
  00541	8b 85 f8 fe ff
	ff		 mov	 eax, DWORD PTR _temp$3[ebp+16]
  00547	89 41 3c	 mov	 DWORD PTR [ecx+60], eax
  0054a	8b 85 fc fe ff
	ff		 mov	 eax, DWORD PTR _temp$3[ebp+20]
  00550	89 41 40	 mov	 DWORD PTR [ecx+64], eax
  00553	8b 85 00 ff ff
	ff		 mov	 eax, DWORD PTR _temp$3[ebp+24]
  00559	89 41 44	 mov	 DWORD PTR [ecx+68], eax
  0055c	8b 85 04 ff ff
	ff		 mov	 eax, DWORD PTR _temp$3[ebp+28]
  00562	89 41 48	 mov	 DWORD PTR [ecx+72], eax
  00565	8d 85 08 ff ff
	ff		 lea	 eax, DWORD PTR _temp$3[ebp+32]
  0056b	50		 push	 eax
  0056c	83 c1 4c	 add	 ecx, 76			; 0000004cH
  0056f	e8 00 00 00 00	 call	 ??4?$vector@KV?$allocator@K@std@@@std@@QAEAAV01@ABV01@@Z ; std::vector<unsigned long,std::allocator<unsigned long> >::operator=

; 830  :         _Tidy();

  00574	8d 8d 08 ff ff
	ff		 lea	 ecx, DWORD PTR _temp$3[ebp+32]
; File C:\IAGOS\server\v18\Source\Source\_Common\GuildCombat1to1.cpp

; 1364 : 			}

  0057a	c7 45 fc ff ff
	ff ff		 mov	 DWORD PTR __$EHRec$[ebp+8], -1
; File C:\Program Files\Microsoft Visual Studio\2022\Professional\VC\Tools\MSVC\14.44.35207\include\vector

; 830  :         _Tidy();

  00581	e8 00 00 00 00	 call	 ?_Tidy@?$vector@KV?$allocator@K@std@@@std@@AAEXXZ ; std::vector<unsigned long,std::allocator<unsigned long> >::_Tidy
; File C:\IAGOS\server\v18\Source\Source\_Common\GuildCombat1to1.cpp

; 1359 : 			if( m_vecTenderGuild[j].nPenya < m_vecTenderGuild[j+1].nPenya )

  00586	eb 06		 jmp	 SHORT $LN5@SetTenderG
$LN160@SetTenderG:
  00588	8b bd 1c ff ff
	ff		 mov	 edi, DWORD PTR __My_data$1$[ebp]
$LN5@SetTenderG:
; File C:\Program Files\Microsoft Visual Studio\2022\Professional\VC\Tools\MSVC\14.44.35207\include\vector

; 1915 :         return static_cast<size_type>(_My_data._Mylast - _My_data._Myfirst);

  0058e	8b 5f 04	 mov	 ebx, DWORD PTR [edi+4]
  00591	b8 e9 a2 8b 2e	 mov	 eax, 780903145		; 2e8ba2e9H
  00596	8b 3f		 mov	 edi, DWORD PTR [edi]
  00598	8b cb		 mov	 ecx, ebx
; File C:\IAGOS\server\v18\Source\Source\_Common\GuildCombat1to1.cpp

; 1357 : 		for( int j=0; j<(int)( m_vecTenderGuild.size()-i-1 ); j++ )

  0059a	ff 85 24 ff ff
	ff		 inc	 DWORD PTR _j$1$[ebp]
; File C:\Program Files\Microsoft Visual Studio\2022\Professional\VC\Tools\MSVC\14.44.35207\include\vector

; 1915 :         return static_cast<size_type>(_My_data._Mylast - _My_data._Myfirst);

  005a0	2b cf		 sub	 ecx, edi
  005a2	f7 e9		 imul	 ecx
; File C:\IAGOS\server\v18\Source\Source\_Common\GuildCombat1to1.cpp

; 1357 : 		for( int j=0; j<(int)( m_vecTenderGuild.size()-i-1 ); j++ )

  005a4	83 c6 2c	 add	 esi, 44			; 0000002cH
  005a7	89 bd 18 ff ff
	ff		 mov	 DWORD PTR $T5[ebp], edi
; File C:\Program Files\Microsoft Visual Studio\2022\Professional\VC\Tools\MSVC\14.44.35207\include\vector

; 1915 :         return static_cast<size_type>(_My_data._Mylast - _My_data._Myfirst);

  005ad	c1 fa 03	 sar	 edx, 3
; File C:\IAGOS\server\v18\Source\Source\_Common\GuildCombat1to1.cpp

; 1357 : 		for( int j=0; j<(int)( m_vecTenderGuild.size()-i-1 ); j++ )

  005b0	8b cf		 mov	 ecx, edi
; File C:\Program Files\Microsoft Visual Studio\2022\Professional\VC\Tools\MSVC\14.44.35207\include\vector

; 1915 :         return static_cast<size_type>(_My_data._Mylast - _My_data._Myfirst);

  005b2	8b c2		 mov	 eax, edx
  005b4	c1 e8 1f	 shr	 eax, 31			; 0000001fH
  005b7	03 c2		 add	 eax, edx
; File C:\IAGOS\server\v18\Source\Source\_Common\GuildCombat1to1.cpp

; 1357 : 		for( int j=0; j<(int)( m_vecTenderGuild.size()-i-1 ); j++ )

  005b9	2b 85 20 ff ff
	ff		 sub	 eax, DWORD PTR _i$1$[ebp]
  005bf	48		 dec	 eax
  005c0	39 85 24 ff ff
	ff		 cmp	 DWORD PTR _j$1$[ebp], eax
  005c6	0f 8c e6 fe ff
	ff		 jl	 $LL7@SetTenderG
  005cc	8b b5 20 ff ff
	ff		 mov	 esi, DWORD PTR _i$1$[ebp]
$LN2@SetTenderG:

; 1355 : 	for( int i=0; i<(int)( m_vecTenderGuild.size()-1 ); i++ )

  005d2	89 9d 14 ff ff
	ff		 mov	 DWORD PTR $T4[ebp], ebx
; File C:\Program Files\Microsoft Visual Studio\2022\Professional\VC\Tools\MSVC\14.44.35207\include\vector

; 1915 :         return static_cast<size_type>(_My_data._Mylast - _My_data._Myfirst);

  005d8	b8 e9 a2 8b 2e	 mov	 eax, 780903145		; 2e8ba2e9H
  005dd	2b df		 sub	 ebx, edi
; File C:\IAGOS\server\v18\Source\Source\_Common\GuildCombat1to1.cpp

; 1355 : 	for( int i=0; i<(int)( m_vecTenderGuild.size()-1 ); i++ )

  005df	46		 inc	 esi
; File C:\Program Files\Microsoft Visual Studio\2022\Professional\VC\Tools\MSVC\14.44.35207\include\vector

; 1915 :         return static_cast<size_type>(_My_data._Mylast - _My_data._Myfirst);

  005e0	f7 eb		 imul	 ebx
; File C:\IAGOS\server\v18\Source\Source\_Common\GuildCombat1to1.cpp

; 1355 : 	for( int i=0; i<(int)( m_vecTenderGuild.size()-1 ); i++ )

  005e2	89 b5 20 ff ff
	ff		 mov	 DWORD PTR _i$1$[ebp], esi
  005e8	8b cf		 mov	 ecx, edi
; File C:\Program Files\Microsoft Visual Studio\2022\Professional\VC\Tools\MSVC\14.44.35207\include\vector

; 1915 :         return static_cast<size_type>(_My_data._Mylast - _My_data._Myfirst);

  005ea	c1 fa 03	 sar	 edx, 3
  005ed	8b c2		 mov	 eax, edx
  005ef	c1 e8 1f	 shr	 eax, 31			; 0000001fH
; File C:\IAGOS\server\v18\Source\Source\_Common\GuildCombat1to1.cpp

; 1355 : 	for( int i=0; i<(int)( m_vecTenderGuild.size()-1 ); i++ )

  005f2	48		 dec	 eax
  005f3	03 c2		 add	 eax, edx
  005f5	3b f0		 cmp	 esi, eax
  005f7	0f 8c 83 fe ff
	ff		 jl	 $LL4@SetTenderG
$LN3@SetTenderG:

; 1367 : }

  005fd	8b 4d f4	 mov	 ecx, DWORD PTR __$EHRec$[ebp]
  00600	64 89 0d 00 00
	00 00		 mov	 DWORD PTR fs:0, ecx
  00607	59		 pop	 ecx
  00608	5f		 pop	 edi
  00609	5e		 pop	 esi
  0060a	5b		 pop	 ebx
  0060b	8b 4d f0	 mov	 ecx, DWORD PTR __$ArrayPad$[ebp]
  0060e	33 cd		 xor	 ecx, ebp
  00610	e8 00 00 00 00	 call	 @__security_check_cookie@4
  00615	8b e5		 mov	 esp, ebp
  00617	5d		 pop	 ebp
  00618	c2 08 00	 ret	 8
$LN164@SetTenderG:
; File C:\Program Files\Microsoft Visual Studio\2022\Professional\VC\Tools\MSVC\14.44.35207\include\xmemory

; 219  :     _STL_VERIFY(_Back_shift >= _Min_back_shift && _Back_shift <= _Non_user_size, "invalid argument");

  0061b	6a 00		 push	 0
  0061d	6a 00		 push	 0
  0061f	6a 00		 push	 0
  00621	6a 00		 push	 0
  00623	6a 00		 push	 0
  00625	e8 00 00 00 00	 call	 __invoke_watson
$LN162@SetTenderG:
  0062a	cc		 int	 3
_TEXT	ENDS
;	COMDAT text$x
text$x	SEGMENT
__unwindfunclet$?SetTenderGuild@CGuildCombat1to1Mng@@QAEXPAVCUser@@H@Z$0:
  00000	8d 8d 24 ff ff
	ff		 lea	 ecx, DWORD PTR _strTemp$6[ebp]
  00006	e9 00 00 00 00	 jmp	 ??1?$CStringT@DV?$StrTraitMFC@DV?$ChTraitsCRT@D@ATL@@@@@ATL@@QAE@XZ ; ATL::CStringT<char,StrTraitMFC<char,ATL::ChTraitsCRT<char> > >::~CStringT<char,StrTraitMFC<char,ATL::ChTraitsCRT<char> > >
__unwindfunclet$?SetTenderGuild@CGuildCombat1to1Mng@@QAEXPAVCUser@@H@Z$1:
  0000b	8d 8d e8 fe ff
	ff		 lea	 ecx, DWORD PTR _TenderGuild$2[ebp]
  00011	e9 00 00 00 00	 jmp	 ??1__GC1TO1TENDER@CGuildCombat1to1Mng@@QAE@XZ
__unwindfunclet$?SetTenderGuild@CGuildCombat1to1Mng@@QAEXPAVCUser@@H@Z$2:
  00016	8d 8d 24 ff ff
	ff		 lea	 ecx, DWORD PTR _strTemp$7[ebp]
  0001c	e9 00 00 00 00	 jmp	 ??1?$CStringT@DV?$StrTraitMFC@DV?$ChTraitsCRT@D@ATL@@@@@ATL@@QAE@XZ ; ATL::CStringT<char,StrTraitMFC<char,ATL::ChTraitsCRT<char> > >::~CStringT<char,StrTraitMFC<char,ATL::ChTraitsCRT<char> > >
__unwindfunclet$?SetTenderGuild@CGuildCombat1to1Mng@@QAEXPAVCUser@@H@Z$3:
  00021	8d 8d e8 fe ff
	ff		 lea	 ecx, DWORD PTR _temp$3[ebp]
  00027	e9 00 00 00 00	 jmp	 ??1__GC1TO1TENDER@CGuildCombat1to1Mng@@QAE@XZ
  0002c	cc		 int	 3
  0002d	cc		 int	 3
  0002e	cc		 int	 3
  0002f	cc		 int	 3
  00030	cc		 int	 3
__ehhandler$?SetTenderGuild@CGuildCombat1to1Mng@@QAEXPAVCUser@@H@Z:
  00031	90		 npad	 1
  00032	90		 npad	 1
  00033	8b 54 24 08	 mov	 edx, DWORD PTR [esp+8]
  00037	8d 42 0c	 lea	 eax, DWORD PTR [edx+12]
  0003a	8b 8a e4 fe ff
	ff		 mov	 ecx, DWORD PTR [edx-284]
  00040	33 c8		 xor	 ecx, eax
  00042	e8 00 00 00 00	 call	 @__security_check_cookie@4
  00047	8b 4a fc	 mov	 ecx, DWORD PTR [edx-4]
  0004a	33 c8		 xor	 ecx, eax
  0004c	e8 00 00 00 00	 call	 @__security_check_cookie@4
  00051	b8 00 00 00 00	 mov	 eax, OFFSET __ehfuncinfo$?SetTenderGuild@CGuildCombat1to1Mng@@QAEXPAVCUser@@H@Z
  00056	e9 00 00 00 00	 jmp	 ___CxxFrameHandler3
text$x	ENDS
?SetTenderGuild@CGuildCombat1to1Mng@@QAEXPAVCUser@@H@Z ENDP ; CGuildCombat1to1Mng::SetTenderGuild
; Function compile flags: /Ogtp
; File C:\IAGOS\server\v18\Source\Source\_Common\GuildCombat1to1.cpp
; File C:\IAGOS\server\v18\Source\Source\_Common\Project.h
; File C:\IAGOS\server\v18\Source\Source\_Common\GuildCombat1to1.cpp
; File C:\IAGOS\server\v18\Source\Source\_Common\Project.h
; File C:\IAGOS\server\v18\Source\Source\_Common\GuildCombat1to1.cpp
; File C:\IAGOS\server\v18\Source\Source\_Common\data.h
; File C:\IAGOS\server\v18\Source\Source\_Common\Project.h
; File C:\IAGOS\server\v18\Source\Source\_Common\GuildCombat1to1.cpp
; File C:\IAGOS\server\v18\Source\Source\_Common\Project.h
; File C:\IAGOS\server\v18\Source\Source\_Common\GuildCombat1to1.cpp
; File C:\Program Files\Microsoft Visual Studio\2022\Professional\VC\Tools\MSVC\14.44.35207\include\vector
; File C:\IAGOS\server\v18\Source\Source\_Common\GuildCombat1to1.cpp
; File C:\IAGOS\server\v18\Source\Source\_Common\LuaBase.h
; File C:\IAGOS\server\v18\Source\Source\_Common\GuildCombat1to1.cpp
; File C:\IAGOS\server\v18\Source\Source\_Common\LuaBase.h
; File C:\IAGOS\server\v18\Source\Source\_Common\GuildCombat1to1.cpp
;	COMDAT ?SendTenderGuildView@CGuildCombat1to1Mng@@QAEXPAVCUser@@@Z
_TEXT	SEGMENT
tv276 = -16						; size = 8
tv270 = -8						; size = 4
_nTenderRanking$1$ = -4					; size = 4
_pUser$ = 8						; size = 4
_t$ = 8							; size = 4
?SendTenderGuildView@CGuildCombat1to1Mng@@QAEXPAVCUser@@@Z PROC ; CGuildCombat1to1Mng::SendTenderGuildView, COMDAT
; _this$ = ecx

; 1218 : {

  00000	55		 push	 ebp
  00001	8b ec		 mov	 ebp, esp
  00003	83 ec 10	 sub	 esp, 16			; 00000010H
  00006	56		 push	 esi
  00007	8b f1		 mov	 esi, ecx

; 1219 : 	if( !g_eLocal.GetState( EVE_GUILDCOMBAT1TO1 ) )

  00009	b9 00 00 00 00	 mov	 ecx, OFFSET ?g_eLocal@@3VCFlyffEvent@@A ; g_eLocal
  0000e	6a 16		 push	 22			; 00000016H
  00010	e8 00 00 00 00	 call	 ?GetState@CFlyffEvent@@QAEEH@Z ; CFlyffEvent::GetState
  00015	84 c0		 test	 al, al
  00017	0f 84 f8 00 00
	00		 je	 $LN1@SendTender

; 1220 : 		return;
; 1221 : 
; 1222 : 	if( m_nState != GC1TO1_CLOSE )

  0001d	83 7e 04 00	 cmp	 DWORD PTR [esi+4], 0
  00021	74 74		 je	 SHORT $LN3@SendTender
; File C:\IAGOS\server\v18\Source\Source\_Common\Project.h

; 1427 : 	VERIFY_RANGE( (int)( dwIndex ), 0, m_colorText.GetSize(), "GetText range_error", "error" );

  00023	a1 ac 02 00 00	 mov	 eax, DWORD PTR ?prj@@3VCProject@@A+684
  00028	3d 6c 0d 00 00	 cmp	 eax, 3436		; 00000d6cH
  0002d	7f 2f		 jg	 SHORT $LN8@SendTender

; 579  : 	LPCTSTR szErr = Error( _T( "%s min:%d, max:%d, index:%d" ), szMsg, nMin, nMax, nIndex ); 

  0002f	68 6c 0d 00 00	 push	 3436			; 00000d6cH
  00034	50		 push	 eax
  00035	6a 00		 push	 0
  00037	68 00 00 00 00	 push	 OFFSET ??_C@_0BE@OHDBLHOM@GetText?5range_error@
  0003c	68 00 00 00 00	 push	 OFFSET ??_C@_0BM@HMFGHCP@?$CFs?5min?3?$CFd?0?5max?3?$CFd?0?5index?3?$CFd@
  00041	e8 00 00 00 00	 call	 ?Error@@YAPBDPBDZZ	; Error
; File C:\IAGOS\server\v18\Source\Source\_Common\GuildCombat1to1.cpp

; 1224 : 		pUser->AddDiagText( prj.GetText( TID_GAME_GUILDCOMBAT1TO1_NOTENDER ) );

  00046	8b 4d 08	 mov	 ecx, DWORD PTR _pUser$[ebp]
; File C:\IAGOS\server\v18\Source\Source\_Common\Project.h

; 579  : 	LPCTSTR szErr = Error( _T( "%s min:%d, max:%d, index:%d" ), szMsg, nMin, nMax, nIndex ); 

  00049	83 c4 14	 add	 esp, 20			; 00000014H

; 1427 : 	VERIFY_RANGE( (int)( dwIndex ), 0, m_colorText.GetSize(), "GetText range_error", "error" );

  0004c	b8 00 00 00 00	 mov	 eax, OFFSET ??_C@_05KKCIMGE@error@
; File C:\IAGOS\server\v18\Source\Source\_Common\GuildCombat1to1.cpp

; 1224 : 		pUser->AddDiagText( prj.GetText( TID_GAME_GUILDCOMBAT1TO1_NOTENDER ) );

  00051	50		 push	 eax
  00052	e8 00 00 00 00	 call	 ?AddDiagText@CUser@@QAEXPBD@Z ; CUser::AddDiagText
  00057	5e		 pop	 esi

; 1248 : }

  00058	8b e5		 mov	 esp, ebp
  0005a	5d		 pop	 ebp
  0005b	c2 04 00	 ret	 4
$LN8@SendTender:
; File C:\IAGOS\server\v18\Source\Source\_Common\data.h

; 270  : 	if( dwIndex >= (DWORD)m_nMaxIndex )

  0005e	76 22		 jbe	 SHORT $LN29@SendTender

; 271  : 		return NULL;
; 272  : 	return (T*) m_apOffset[ dwIndex ];

  00060	a1 9c 02 00 00	 mov	 eax, DWORD PTR ?prj@@3VCProject@@A+668
  00065	8b 80 b0 35 00
	00		 mov	 eax, DWORD PTR [eax+13744]
; File C:\IAGOS\server\v18\Source\Source\_Common\Project.h

; 1428 : 	if( m_colorText.GetAt( dwIndex ) == NULL )

  0006b	85 c0		 test	 eax, eax
  0006d	74 13		 je	 SHORT $LN29@SendTender

; 1430 : 	return m_colorText.GetAt( dwIndex )->lpszData; 

  0006f	8b 40 04	 mov	 eax, DWORD PTR [eax+4]
; File C:\IAGOS\server\v18\Source\Source\_Common\GuildCombat1to1.cpp

; 1224 : 		pUser->AddDiagText( prj.GetText( TID_GAME_GUILDCOMBAT1TO1_NOTENDER ) );

  00072	8b 4d 08	 mov	 ecx, DWORD PTR _pUser$[ebp]
  00075	50		 push	 eax
  00076	e8 00 00 00 00	 call	 ?AddDiagText@CUser@@QAEXPBD@Z ; CUser::AddDiagText
  0007b	5e		 pop	 esi

; 1248 : }

  0007c	8b e5		 mov	 esp, ebp
  0007e	5d		 pop	 ebp
  0007f	c2 04 00	 ret	 4
$LN29@SendTender:

; 1224 : 		pUser->AddDiagText( prj.GetText( TID_GAME_GUILDCOMBAT1TO1_NOTENDER ) );

  00082	8b 4d 08	 mov	 ecx, DWORD PTR _pUser$[ebp]
; File C:\IAGOS\server\v18\Source\Source\_Common\Project.h

; 1429 : 		return "";

  00085	b8 00 00 00 00	 mov	 eax, OFFSET ??_C@_00CNPNBAHC@@
; File C:\IAGOS\server\v18\Source\Source\_Common\GuildCombat1to1.cpp

; 1224 : 		pUser->AddDiagText( prj.GetText( TID_GAME_GUILDCOMBAT1TO1_NOTENDER ) );

  0008a	50		 push	 eax
  0008b	e8 00 00 00 00	 call	 ?AddDiagText@CUser@@QAEXPBD@Z ; CUser::AddDiagText
  00090	5e		 pop	 esi

; 1248 : }

  00091	8b e5		 mov	 esp, ebp
  00093	5d		 pop	 ebp
  00094	c2 04 00	 ret	 4
$LN3@SendTender:
  00097	53		 push	 ebx
  00098	57		 push	 edi

; 1225 : 		return;
; 1226 : 	}
; 1227 : 
; 1228 : 	int nTenderPenya = 0;
; 1229 : 	int nTenderRanking = 0;
; 1230 : 
; 1231 : 	// ŔÔÂűµČ ±ćµĺŔÇ ±ćµĺżřŔĚ¸é..
; 1232 : 	int nIndex = GetTenderGuildIndexByUser( pUser );

  00099	ff 75 08	 push	 DWORD PTR _pUser$[ebp]
  0009c	33 db		 xor	 ebx, ebx
  0009e	8b ce		 mov	 ecx, esi
  000a0	89 5d fc	 mov	 DWORD PTR _nTenderRanking$1$[ebp], ebx
  000a3	e8 00 00 00 00	 call	 ?GetTenderGuildIndexByUser@CGuildCombat1to1Mng@@QAEHPAVCUser@@@Z ; CGuildCombat1to1Mng::GetTenderGuildIndexByUser
  000a8	8d 4e 4c	 lea	 ecx, DWORD PTR [esi+76]
  000ab	89 4d f8	 mov	 DWORD PTR tv270[ebp], ecx

; 1233 : 	if( nIndex != NULL_ID )

  000ae	83 f8 ff	 cmp	 eax, -1
  000b1	74 0d		 je	 SHORT $LN28@SendTender

; 1234 : 	{
; 1235 : 		nTenderPenya = m_vecTenderGuild[nIndex].nPenya;

  000b3	8b 09		 mov	 ecx, DWORD PTR [ecx]
; File C:\Program Files\Microsoft Visual Studio\2022\Professional\VC\Tools\MSVC\14.44.35207\include\vector

; 1934 :         return _My_data._Myfirst[_Pos];

  000b5	6b d0 2c	 imul	 edx, eax, 44
; File C:\IAGOS\server\v18\Source\Source\_Common\GuildCombat1to1.cpp

; 1236 : 		nTenderRanking = nIndex+1;

  000b8	40		 inc	 eax
  000b9	89 45 fc	 mov	 DWORD PTR _nTenderRanking$1$[ebp], eax
  000bc	8b 5c 0a 04	 mov	 ebx, DWORD PTR [edx+ecx+4]
$LN28@SendTender:

; 1240 : 	if( m_Lua.GetLuaFunction( "GetRemainNextTime" ) )	// żŔÇÂ±îÁö ł˛Ŕş ˝Ă°Ł ľňľîżČ(·çľĆ)

  000c0	8d 7e 20	 lea	 edi, DWORD PTR [esi+32]
  000c3	68 00 00 00 00	 push	 OFFSET ??_C@_0BC@GNPCANLG@GetRemainNextTime@
  000c8	8b cf		 mov	 ecx, edi
  000ca	e8 00 00 00 00	 call	 ?GetLuaFunction@CLuaBase@@QAEHPAD@Z ; CLuaBase::GetLuaFunction
  000cf	85 c0		 test	 eax, eax
  000d1	74 24		 je	 SHORT $LN30@SendTender

; 1241 : 	{
; 1242 : 		m_Lua.CallLuaFunction( 0, 1 );

  000d3	6a 01		 push	 1
  000d5	6a 00		 push	 0
  000d7	8b cf		 mov	 ecx, edi
  000d9	e8 00 00 00 00	 call	 ?CallLuaFunction@CLuaBase@@QAEXHH@Z ; CLuaBase::CallLuaFunction
; File C:\IAGOS\server\v18\Source\Source\_Common\LuaBase.h

; 43   : 	double		ToNumber( int nStackPos )					{  return lua_tonumber( m_pLuaState, nStackPos );  }

  000de	6a 00		 push	 0
  000e0	6a ff		 push	 -1
  000e2	ff 76 24	 push	 DWORD PTR [esi+36]
  000e5	e8 00 00 00 00	 call	 _lua_tonumberx
  000ea	dd 5d f0	 fstp	 QWORD PTR tv276[ebp]
; File C:\IAGOS\server\v18\Source\Source\_Common\GuildCombat1to1.cpp

; 1243 : 		t = (time_t)( m_Lua.ToNumber( -1 ) );

  000ed	f2 0f 2c 75 f0	 cvttsd2si esi, QWORD PTR tv276[ebp]
; File C:\IAGOS\server\v18\Source\Source\_Common\LuaBase.h

; 43   : 	double		ToNumber( int nStackPos )					{  return lua_tonumber( m_pLuaState, nStackPos );  }

  000f2	83 c4 0c	 add	 esp, 12			; 0000000cH
; File C:\IAGOS\server\v18\Source\Source\_Common\GuildCombat1to1.cpp

; 1240 : 	if( m_Lua.GetLuaFunction( "GetRemainNextTime" ) )	// żŔÇÂ±îÁö ł˛Ŕş ˝Ă°Ł ľňľîżČ(·çľĆ)

  000f5	eb 03		 jmp	 SHORT $LN5@SendTender
$LN30@SendTender:
  000f7	8b 75 08	 mov	 esi, DWORD PTR _t$[ebp]
$LN5@SendTender:

; 1244 : 	}
; 1245 : 	m_Lua.Pop(0);

  000fa	6a 00		 push	 0
  000fc	8b cf		 mov	 ecx, edi
  000fe	e8 00 00 00 00	 call	 ?Pop@CLuaBase@@QAEXH@Z	; CLuaBase::Pop

; 1246 : 	
; 1247 : 	pUser->AddGC1to1TenderGuildView( nTenderPenya, nTenderRanking, t, m_vecTenderGuild );

  00103	ff 75 f8	 push	 DWORD PTR tv270[ebp]
  00106	8b 4d 08	 mov	 ecx, DWORD PTR _pUser$[ebp]
  00109	56		 push	 esi
  0010a	ff 75 fc	 push	 DWORD PTR _nTenderRanking$1$[ebp]
  0010d	53		 push	 ebx
  0010e	e8 00 00 00 00	 call	 ?AddGC1to1TenderGuildView@CUser@@QAEXHHJAAV?$vector@U__GC1TO1TENDER@CGuildCombat1to1Mng@@V?$allocator@U__GC1TO1TENDER@CGuildCombat1to1Mng@@@std@@@std@@@Z ; CUser::AddGC1to1TenderGuildView
  00113	5f		 pop	 edi
  00114	5b		 pop	 ebx
$LN1@SendTender:
  00115	5e		 pop	 esi

; 1248 : }

  00116	8b e5		 mov	 esp, ebp
  00118	5d		 pop	 ebp
  00119	c2 04 00	 ret	 4
?SendTenderGuildView@CGuildCombat1to1Mng@@QAEXPAVCUser@@@Z ENDP ; CGuildCombat1to1Mng::SendTenderGuildView
_TEXT	ENDS
; Function compile flags: /Ogtp
; File C:\IAGOS\server\v18\Source\Source\_Common\GuildCombat1to1.cpp
; File C:\IAGOS\server\v18\Source\Source\_Common\Project.h
; File C:\IAGOS\server\v18\Source\Source\_Common\GuildCombat1to1.cpp
; File C:\IAGOS\server\v18\Source\Source\_Common\Project.h
; File C:\IAGOS\server\v18\Source\Source\_Common\GuildCombat1to1.cpp
; File C:\IAGOS\server\v18\Source\Source\_Common\data.h
; File C:\IAGOS\server\v18\Source\Source\_Common\Project.h
; File C:\IAGOS\server\v18\Source\Source\_Common\GuildCombat1to1.cpp
; File C:\IAGOS\server\v18\Source\Source\_Common\Project.h
; File C:\IAGOS\server\v18\Source\Source\_Common\GuildCombat1to1.cpp
; File C:\Program Files\Microsoft Visual Studio\2022\Professional\VC\Tools\MSVC\14.44.35207\include\vector
; File C:\IAGOS\server\v18\Source\Source\_Common\GuildCombat1to1.cpp
;	COMDAT ?SendTenderGuildOpenWnd@CGuildCombat1to1Mng@@QAEXPAVCUser@@@Z
_TEXT	SEGMENT
_pUser$ = 8						; size = 4
?SendTenderGuildOpenWnd@CGuildCombat1to1Mng@@QAEXPAVCUser@@@Z PROC ; CGuildCombat1to1Mng::SendTenderGuildOpenWnd, COMDAT
; _this$ = ecx

; 1178 : {

  00000	55		 push	 ebp
  00001	8b ec		 mov	 ebp, esp
  00003	57		 push	 edi
  00004	8b f9		 mov	 edi, ecx

; 1179 : 	if( !g_eLocal.GetState( EVE_GUILDCOMBAT1TO1 ) )

  00006	b9 00 00 00 00	 mov	 ecx, OFFSET ?g_eLocal@@3VCFlyffEvent@@A ; g_eLocal
  0000b	6a 16		 push	 22			; 00000016H
  0000d	e8 00 00 00 00	 call	 ?GetState@CFlyffEvent@@QAEEH@Z ; CFlyffEvent::GetState
  00012	84 c0		 test	 al, al
  00014	0f 84 09 01 00
	00		 je	 $LN8@SendTender

; 1180 : 		return;
; 1181 : 	
; 1182 : 	if( m_nState != GC1TO1_CLOSE )	// ŔÔÂűÇŇ Ľö ľř´Ů.

  0001a	83 7f 04 00	 cmp	 DWORD PTR [edi+4], 0
  0001e	74 6e		 je	 SHORT $LN3@SendTender
; File C:\IAGOS\server\v18\Source\Source\_Common\Project.h

; 1427 : 	VERIFY_RANGE( (int)( dwIndex ), 0, m_colorText.GetSize(), "GetText range_error", "error" );

  00020	a1 ac 02 00 00	 mov	 eax, DWORD PTR ?prj@@3VCProject@@A+684
  00025	3d 6c 0d 00 00	 cmp	 eax, 3436		; 00000d6cH
  0002a	7f 2d		 jg	 SHORT $LN11@SendTender

; 579  : 	LPCTSTR szErr = Error( _T( "%s min:%d, max:%d, index:%d" ), szMsg, nMin, nMax, nIndex ); 

  0002c	68 6c 0d 00 00	 push	 3436			; 00000d6cH
  00031	50		 push	 eax
  00032	6a 00		 push	 0
  00034	68 00 00 00 00	 push	 OFFSET ??_C@_0BE@OHDBLHOM@GetText?5range_error@
  00039	68 00 00 00 00	 push	 OFFSET ??_C@_0BM@HMFGHCP@?$CFs?5min?3?$CFd?0?5max?3?$CFd?0?5index?3?$CFd@
  0003e	e8 00 00 00 00	 call	 ?Error@@YAPBDPBDZZ	; Error
; File C:\IAGOS\server\v18\Source\Source\_Common\GuildCombat1to1.cpp

; 1184 : 		pUser->AddDiagText( prj.GetText( TID_GAME_GUILDCOMBAT1TO1_NOTENDER ) );

  00043	8b 4d 08	 mov	 ecx, DWORD PTR _pUser$[ebp]
; File C:\IAGOS\server\v18\Source\Source\_Common\Project.h

; 579  : 	LPCTSTR szErr = Error( _T( "%s min:%d, max:%d, index:%d" ), szMsg, nMin, nMax, nIndex ); 

  00046	83 c4 14	 add	 esp, 20			; 00000014H

; 1427 : 	VERIFY_RANGE( (int)( dwIndex ), 0, m_colorText.GetSize(), "GetText range_error", "error" );

  00049	b8 00 00 00 00	 mov	 eax, OFFSET ??_C@_05KKCIMGE@error@
; File C:\IAGOS\server\v18\Source\Source\_Common\GuildCombat1to1.cpp

; 1184 : 		pUser->AddDiagText( prj.GetText( TID_GAME_GUILDCOMBAT1TO1_NOTENDER ) );

  0004e	50		 push	 eax
  0004f	e8 00 00 00 00	 call	 ?AddDiagText@CUser@@QAEXPBD@Z ; CUser::AddDiagText
  00054	5f		 pop	 edi

; 1214 : }

  00055	5d		 pop	 ebp
  00056	c2 04 00	 ret	 4
$LN11@SendTender:
; File C:\IAGOS\server\v18\Source\Source\_Common\data.h

; 270  : 	if( dwIndex >= (DWORD)m_nMaxIndex )

  00059	76 20		 jbe	 SHORT $LN29@SendTender

; 271  : 		return NULL;
; 272  : 	return (T*) m_apOffset[ dwIndex ];

  0005b	a1 9c 02 00 00	 mov	 eax, DWORD PTR ?prj@@3VCProject@@A+668
  00060	8b 80 b0 35 00
	00		 mov	 eax, DWORD PTR [eax+13744]
; File C:\IAGOS\server\v18\Source\Source\_Common\Project.h

; 1428 : 	if( m_colorText.GetAt( dwIndex ) == NULL )

  00066	85 c0		 test	 eax, eax
  00068	74 11		 je	 SHORT $LN29@SendTender

; 1430 : 	return m_colorText.GetAt( dwIndex )->lpszData; 

  0006a	8b 40 04	 mov	 eax, DWORD PTR [eax+4]
; File C:\IAGOS\server\v18\Source\Source\_Common\GuildCombat1to1.cpp

; 1184 : 		pUser->AddDiagText( prj.GetText( TID_GAME_GUILDCOMBAT1TO1_NOTENDER ) );

  0006d	8b 4d 08	 mov	 ecx, DWORD PTR _pUser$[ebp]
  00070	50		 push	 eax
  00071	e8 00 00 00 00	 call	 ?AddDiagText@CUser@@QAEXPBD@Z ; CUser::AddDiagText
  00076	5f		 pop	 edi

; 1214 : }

  00077	5d		 pop	 ebp
  00078	c2 04 00	 ret	 4
$LN29@SendTender:

; 1184 : 		pUser->AddDiagText( prj.GetText( TID_GAME_GUILDCOMBAT1TO1_NOTENDER ) );

  0007b	8b 4d 08	 mov	 ecx, DWORD PTR _pUser$[ebp]
; File C:\IAGOS\server\v18\Source\Source\_Common\Project.h

; 1429 : 		return "";

  0007e	b8 00 00 00 00	 mov	 eax, OFFSET ??_C@_00CNPNBAHC@@
; File C:\IAGOS\server\v18\Source\Source\_Common\GuildCombat1to1.cpp

; 1184 : 		pUser->AddDiagText( prj.GetText( TID_GAME_GUILDCOMBAT1TO1_NOTENDER ) );

  00083	50		 push	 eax
  00084	e8 00 00 00 00	 call	 ?AddDiagText@CUser@@QAEXPBD@Z ; CUser::AddDiagText
  00089	5f		 pop	 edi

; 1214 : }

  0008a	5d		 pop	 ebp
  0008b	c2 04 00	 ret	 4
$LN3@SendTender:
  0008e	56		 push	 esi

; 1185 : 		return;
; 1186 : 	}
; 1187 : 	
; 1188 : 	// ±ćµĺ¸¶˝şĹÍ¸¸ ŔÔÂű °ˇ´É
; 1189 : 	if( !IsGuildMaster( pUser ) )

  0008f	8b 75 08	 mov	 esi, DWORD PTR _pUser$[ebp]
  00092	8b cf		 mov	 ecx, edi
  00094	56		 push	 esi
  00095	e8 00 00 00 00	 call	 ?IsGuildMaster@CGuildCombat1to1Mng@@QAEHPAVCUser@@@Z ; CGuildCombat1to1Mng::IsGuildMaster
  0009a	85 c0		 test	 eax, eax
  0009c	75 12		 jne	 SHORT $LN4@SendTender

; 1190 : 	{
; 1191 : 		pUser->AddDefinedText( TID_GAME_GUILDCOMBAT1TO1_NOTMASTER );

  0009e	68 6d 0d 00 00	 push	 3437			; 00000d6dH
  000a3	8b ce		 mov	 ecx, esi
  000a5	e8 00 00 00 00	 call	 ?AddDefinedText@CUser@@QAEXH@Z ; CUser::AddDefinedText
  000aa	5e		 pop	 esi
  000ab	5f		 pop	 edi

; 1214 : }

  000ac	5d		 pop	 ebp
  000ad	c2 04 00	 ret	 4
$LN4@SendTender:

; 1192 : 		return;
; 1193 : 	}
; 1194 : 
; 1195 : 	// ±ćµĺ´ëŔüżˇ ŔÔÂűÇŃ ±ćµĺ´Â ŔÔÂűÇŇ Ľö ľř´Ů.
; 1196 : 	if( IsGCTenderGuild( pUser ) )

  000b0	56		 push	 esi
  000b1	8b cf		 mov	 ecx, edi
  000b3	e8 00 00 00 00	 call	 ?IsGCTenderGuild@CGuildCombat1to1Mng@@QAEHPAVCUser@@@Z ; CGuildCombat1to1Mng::IsGCTenderGuild
  000b8	8b ce		 mov	 ecx, esi
  000ba	85 c0		 test	 eax, eax
  000bc	74 10		 je	 SHORT $LN5@SendTender

; 1197 : 	{
; 1198 : 		pUser->AddDefinedText( TID_GAME_GUILDCOMBAT1TO1_ISGCTENDER );

  000be	68 6e 0d 00 00	 push	 3438			; 00000d6eH
  000c3	e8 00 00 00 00	 call	 ?AddDefinedText@CUser@@QAEXH@Z ; CUser::AddDefinedText
  000c8	5e		 pop	 esi
  000c9	5f		 pop	 edi

; 1214 : }

  000ca	5d		 pop	 ebp
  000cb	c2 04 00	 ret	 4
$LN5@SendTender:

; 1199 : 		return;
; 1200 : 	}
; 1201 : 
; 1202 : 	// Âü°ˇÇŇ Ľö ŔÖ´Â ĂÖĽŇ ±ćµĺ·ąş§ °Ë»ç...
; 1203 : 	if( pUser->GetGuild()->m_nLevel < m_nGuildLevel )

  000ce	e8 00 00 00 00	 call	 ?GetGuild@CMover@@QAEPAVCGuild@@XZ ; CMover::GetGuild
  000d3	8b 4f 28	 mov	 ecx, DWORD PTR [edi+40]
  000d6	39 48 44	 cmp	 DWORD PTR [eax+68], ecx
  000d9	7d 1a		 jge	 SHORT $LN6@SendTender

; 1204 : 	{
; 1205 : 		pUser->AddDefinedText( TID_GAME_GUILDCOMBAT1TO1_LOWGUILDLEVEL, "%d", m_nGuildLevel );

  000db	51		 push	 ecx
  000dc	68 00 00 00 00	 push	 OFFSET ??_C@_02DPKJAMEF@?$CFd@
  000e1	68 6f 0d 00 00	 push	 3439			; 00000d6fH
  000e6	56		 push	 esi
  000e7	e8 00 00 00 00	 call	 ?AddDefinedText@CUser@@QAAXHPBDZZ ; CUser::AddDefinedText
  000ec	83 c4 10	 add	 esp, 16			; 00000010H
  000ef	5e		 pop	 esi
  000f0	5f		 pop	 edi

; 1214 : }

  000f1	5d		 pop	 ebp
  000f2	c2 04 00	 ret	 4
$LN6@SendTender:

; 1206 : 		return;
; 1207 : 	}
; 1208 : 
; 1209 : 	int nIndex = GetTenderGuildIndexByUser( pUser );

  000f5	56		 push	 esi
  000f6	8b cf		 mov	 ecx, edi
  000f8	e8 00 00 00 00	 call	 ?GetTenderGuildIndexByUser@CGuildCombat1to1Mng@@QAEHPAVCUser@@@Z ; CGuildCombat1to1Mng::GetTenderGuildIndexByUser

; 1210 : 	if( nIndex != NULL_ID )

  000fd	83 f8 ff	 cmp	 eax, -1
  00100	74 17		 je	 SHORT $LN7@SendTender
; File C:\Program Files\Microsoft Visual Studio\2022\Professional\VC\Tools\MSVC\14.44.35207\include\vector

; 1934 :         return _My_data._Myfirst[_Pos];

  00102	6b c8 2c	 imul	 ecx, eax, 44
; File C:\IAGOS\server\v18\Source\Source\_Common\GuildCombat1to1.cpp

; 1211 : 		pUser->AddGC1to1TenderOpenWnd( m_vecTenderGuild[nIndex].nPenya );

  00105	8b 47 4c	 mov	 eax, DWORD PTR [edi+76]
  00108	ff 74 01 04	 push	 DWORD PTR [ecx+eax+4]

; 1212 : 	else
; 1213 : 		pUser->AddGC1to1TenderOpenWnd( 0 );

  0010c	8b ce		 mov	 ecx, esi
  0010e	e8 00 00 00 00	 call	 ?AddGC1to1TenderOpenWnd@CUser@@QAEXH@Z ; CUser::AddGC1to1TenderOpenWnd
  00113	5e		 pop	 esi
  00114	5f		 pop	 edi

; 1214 : }

  00115	5d		 pop	 ebp
  00116	c2 04 00	 ret	 4
$LN7@SendTender:

; 1212 : 	else
; 1213 : 		pUser->AddGC1to1TenderOpenWnd( 0 );

  00119	6a 00		 push	 0
  0011b	8b ce		 mov	 ecx, esi
  0011d	e8 00 00 00 00	 call	 ?AddGC1to1TenderOpenWnd@CUser@@QAEXH@Z ; CUser::AddGC1to1TenderOpenWnd
  00122	5e		 pop	 esi
$LN8@SendTender:
  00123	5f		 pop	 edi

; 1214 : }

  00124	5d		 pop	 ebp
  00125	c2 04 00	 ret	 4
?SendTenderGuildOpenWnd@CGuildCombat1to1Mng@@QAEXPAVCUser@@@Z ENDP ; CGuildCombat1to1Mng::SendTenderGuildOpenWnd
_TEXT	ENDS
; Function compile flags: /Ogtp
; File C:\IAGOS\server\v18\Source\Source\_Common\GuildCombat1to1.cpp
; File C:\Program Files\Microsoft Visual Studio\2022\Professional\VC\Tools\MSVC\14.44.35207\include\xmemory
; File C:\Program Files\Microsoft Visual Studio\2022\Professional\VC\Tools\MSVC\14.44.35207\include\xtree
; File C:\Program Files\Microsoft Visual Studio\2022\Professional\VC\Tools\MSVC\14.44.35207\include\xmemory
; File C:\Program Files\Microsoft Visual Studio\2022\Professional\VC\Tools\MSVC\14.44.35207\include\xtree
; File C:\Program Files\Microsoft Visual Studio\2022\Professional\VC\Tools\MSVC\14.44.35207\include\vector
; File C:\IAGOS\server\v18\Source\Source\_Common\GuildCombat1to1.cpp
; File C:\Program Files\Microsoft Visual Studio\2022\Professional\VC\Tools\MSVC\14.44.35207\include\vector
; File C:\IAGOS\server\v18\Source\Source\_Common\GuildCombat1to1.cpp
; File C:\Program Files\Microsoft Visual Studio\2022\Professional\VC\Tools\MSVC\14.44.35207\include\xmemory
; File C:\Program Files\Microsoft Visual Studio\2022\Professional\VC\Tools\MSVC\14.44.35207\include\vector
; File C:\IAGOS\server\v18\Source\Source\_Common\GuildCombat1to1.cpp
; File C:\Program Files\Microsoft Visual Studio\2022\Professional\VC\Tools\MSVC\14.44.35207\include\vector
; File C:\IAGOS\server\v18\Source\Source\_Common\xUtil.h
; File C:\IAGOS\server\v18\Source\Source\_Common\GuildCombat1to1.cpp
; File C:\Program Files\Microsoft Visual Studio\2022\Professional\VC\Tools\MSVC\14.44.35207\include\vector
; File C:\IAGOS\server\v18\Source\Source\_Common\xUtil.h
; File C:\IAGOS\server\v18\Source\Source\_Common\GuildCombat1to1.cpp
; File C:\Program Files\Microsoft Visual Studio\2022\Professional\VC\Tools\MSVC\14.44.35207\include\vector
; File C:\IAGOS\server\v18\Source\Source\_Common\xUtil.h
; File C:\Program Files\Microsoft Visual Studio\2022\Professional\VC\Tools\MSVC\14.44.35207\include\vector
; File C:\IAGOS\server\v18\Source\Source\_Common\xUtil.h
; File C:\Program Files\Microsoft Visual Studio\2022\Professional\VC\Tools\MSVC\14.44.35207\include\vector
; File C:\IAGOS\server\v18\Source\Source\_Common\xUtil.h
; File C:\Program Files\Microsoft Visual Studio\2022\Professional\VC\Tools\MSVC\14.44.35207\include\utility
; File C:\Program Files\Microsoft Visual Studio\2022\Professional\VC\Tools\MSVC\14.44.35207\include\xmemory
; File C:\Program Files\Microsoft Visual Studio\2022\Professional\VC\Tools\MSVC\14.44.35207\include\xtree
; File C:\Program Files\Microsoft Visual Studio\2022\Professional\VC\Tools\MSVC\14.44.35207\include\xmemory
; File C:\Program Files\Microsoft Visual Studio\2022\Professional\VC\Tools\MSVC\14.44.35207\include\xtree
; File C:\Program Files\Microsoft Visual Studio\2022\Professional\VC\Tools\MSVC\14.44.35207\include\xmemory
; File C:\Program Files\Microsoft Visual Studio\2022\Professional\VC\Tools\MSVC\14.44.35207\include\utility
; File C:\Program Files\Microsoft Visual Studio\2022\Professional\VC\Tools\MSVC\14.44.35207\include\xtree
; File C:\Program Files\Microsoft Visual Studio\2022\Professional\VC\Tools\MSVC\14.44.35207\include\type_traits
; File C:\Program Files\Microsoft Visual Studio\2022\Professional\VC\Tools\MSVC\14.44.35207\include\xtree
; File C:\Program Files\Microsoft Visual Studio\2022\Professional\VC\Tools\MSVC\14.44.35207\include\type_traits
; File C:\Program Files\Microsoft Visual Studio\2022\Professional\VC\Tools\MSVC\14.44.35207\include\xtree
; File C:\Program Files\Microsoft Visual Studio\2022\Professional\VC\Tools\MSVC\14.44.35207\include\utility
; File C:\Program Files\Microsoft Visual Studio\2022\Professional\VC\Tools\MSVC\14.44.35207\include\xtree
; File C:\Program Files\Microsoft Visual Studio\2022\Professional\VC\Tools\MSVC\14.44.35207\include\vector
; File C:\IAGOS\server\v18\Source\Source\_Common\GuildCombat1to1.cpp
; File C:\Program Files\Microsoft Visual Studio\2022\Professional\VC\Tools\MSVC\14.44.35207\include\vector
; File C:\IAGOS\server\v18\Source\Source\_Common\GuildCombat1to1.cpp
; File C:\Program Files\Microsoft Visual Studio\2022\Professional\VC\Tools\MSVC\14.44.35207\include\vector
; File C:\IAGOS\server\v18\Source\Source\_Common\GuildCombat1to1.cpp
; File C:\Program Files\Microsoft Visual Studio\2022\Professional\VC\Tools\MSVC\14.44.35207\include\vector
; File C:\IAGOS\server\v18\Source\Source\_Common\GuildCombat1to1.cpp
; File C:\Program Files\Microsoft Visual Studio\2022\Professional\VC\Tools\MSVC\14.44.35207\include\xtree
; File C:\IAGOS\server\v18\Source\Source\_Common\GuildCombat1to1.cpp
; File C:\Program Files\Microsoft Visual Studio\2022\Professional\VC\Tools\MSVC\14.44.35207\include\xtree
; File C:\IAGOS\server\v18\Source\Source\_Common\GuildCombat1to1.cpp
; File C:\Program Files\Microsoft Visual Studio\2022\Professional\VC\Tools\MSVC\14.44.35207\include\vector
; File C:\Program Files\Microsoft Visual Studio\2022\Professional\VC\Tools\MSVC\14.44.35207\include\xmemory
; File C:\Program Files\Microsoft Visual Studio\2022\Professional\VC\Tools\MSVC\14.44.35207\include\vector
; File C:\IAGOS\server\v18\Source\Source\_Common\GuildCombat1to1.cpp
; File C:\Program Files\Microsoft Visual Studio\2022\Professional\VC\Tools\MSVC\14.44.35207\include\vector
; File C:\IAGOS\server\v18\Source\Source\_Common\GuildCombat1to1.cpp
; File C:\Program Files\Microsoft Visual Studio\2022\Professional\VC\Tools\MSVC\14.44.35207\include\vector
; File C:\IAGOS\server\v18\Source\Source\_Common\GuildCombat1to1.cpp
; File C:\Program Files\Microsoft Visual Studio\2022\Professional\VC\Tools\MSVC\14.44.35207\include\vector
; File C:\Program Files\Microsoft Visual Studio\2022\Professional\VC\Tools\MSVC\14.44.35207\include\xmemory
; File C:\Program Files\Microsoft Visual Studio\2022\Professional\VC\Tools\MSVC\14.44.35207\include\vector
; File C:\IAGOS\server\v18\Source\Source\_Common\GuildCombat1to1.cpp
; File C:\Program Files\Microsoft Visual Studio\2022\Professional\VC\Tools\MSVC\14.44.35207\include\vector
; File C:\IAGOS\server\v18\Source\Source\_Common\GuildCombat1to1.cpp
; File C:\Program Files\Microsoft Visual Studio\2022\Professional\VC\Tools\MSVC\14.44.35207\include\vector
; File C:\IAGOS\server\v18\Source\Source\_Common\GuildCombat1to1.cpp
; File C:\Program Files\Microsoft Visual Studio\2022\Professional\VC\Tools\MSVC\14.44.35207\include\xtree
; File C:\IAGOS\server\v18\Source\Source\_Common\GuildCombat1to1.cpp
;	COMDAT ?CreateGuildCombat1to1@CGuildCombat1to1Mng@@QAEXXZ
_TEXT	SEGMENT
__Newnode$4 = -100					; size = 8
__My_data$2$ = -92					; size = 4
__Myhead$1$ = -88					; size = 4
$T5 = -84						; size = 4
_i$1$ = -80						; size = 4
_this$GSCopy$1$ = -76					; size = 4
$T6 = -72						; size = 4
$T7 = -72						; size = 4
_mapRandom$ = -68					; size = 8
_GuildCombat1to1$8 = -60				; size = 44
__$ArrayPad$ = -16					; size = 4
__$EHRec$ = -12						; size = 12
?CreateGuildCombat1to1@CGuildCombat1to1Mng@@QAEXXZ PROC	; CGuildCombat1to1Mng::CreateGuildCombat1to1, COMDAT
; _this$ = ecx

; 820  : {

  00000	55		 push	 ebp
  00001	8b ec		 mov	 ebp, esp
  00003	6a ff		 push	 -1
  00005	68 00 00 00 00	 push	 __ehhandler$?CreateGuildCombat1to1@CGuildCombat1to1Mng@@QAEXXZ
  0000a	64 a1 00 00 00
	00		 mov	 eax, DWORD PTR fs:0
  00010	50		 push	 eax
  00011	83 ec 58	 sub	 esp, 88			; 00000058H
  00014	a1 00 00 00 00	 mov	 eax, DWORD PTR ___security_cookie
  00019	33 c5		 xor	 eax, ebp
  0001b	89 45 f0	 mov	 DWORD PTR __$ArrayPad$[ebp], eax
  0001e	53		 push	 ebx
  0001f	56		 push	 esi
  00020	57		 push	 edi
  00021	50		 push	 eax
  00022	8d 45 f4	 lea	 eax, DWORD PTR __$EHRec$[ebp]
  00025	64 a3 00 00 00
	00		 mov	 DWORD PTR fs:0, eax
  0002b	8b d9		 mov	 ebx, ecx
  0002d	89 5d b4	 mov	 DWORD PTR _this$GSCopy$1$[ebp], ebx
; File C:\Program Files\Microsoft Visual Studio\2022\Professional\VC\Tools\MSVC\14.44.35207\include\xmemory

; 136  :         return ::operator new(_Bytes);

  00030	6a 18		 push	 24			; 00000018H
; File C:\Program Files\Microsoft Visual Studio\2022\Professional\VC\Tools\MSVC\14.44.35207\include\xtree

; 450  :     _Tree_val() noexcept : _Myhead(), _Mysize(0) {}

  00032	c7 45 bc 00 00
	00 00		 mov	 DWORD PTR _mapRandom$[ebp], 0
  00039	c7 45 c0 00 00
	00 00		 mov	 DWORD PTR _mapRandom$[ebp+4], 0
; File C:\Program Files\Microsoft Visual Studio\2022\Professional\VC\Tools\MSVC\14.44.35207\include\xmemory

; 136  :         return ::operator new(_Bytes);

  00040	e8 00 00 00 00	 call	 ??2@YAPAXI@Z		; operator new

; 256  :         return _Traits::_Allocate(_Bytes);

  00045	8b f0		 mov	 esi, eax

; 136  :         return ::operator new(_Bytes);

  00047	83 c4 04	 add	 esp, 4

; 256  :         return _Traits::_Allocate(_Bytes);

  0004a	89 75 a8	 mov	 DWORD PTR __Myhead$1$[ebp], esi
; File C:\Program Files\Microsoft Visual Studio\2022\Professional\VC\Tools\MSVC\14.44.35207\include\xtree

; 346  :         _Construct_in_place(_Pnode->_Left, _Pnode);

  0004d	89 36		 mov	 DWORD PTR [esi], esi

; 347  :         _Construct_in_place(_Pnode->_Parent, _Pnode);

  0004f	89 76 04	 mov	 DWORD PTR [esi+4], esi

; 348  :         _Construct_in_place(_Pnode->_Right, _Pnode);

  00052	89 76 08	 mov	 DWORD PTR [esi+8], esi

; 349  :         _Pnode->_Color = _Black;

  00055	66 c7 46 0c 01
	01		 mov	 WORD PTR [esi+12], 257	; 00000101H

; 1957 :         _Scary->_Myhead = _Node::_Buyheadnode(_Getal());

  0005b	89 75 bc	 mov	 DWORD PTR _mapRandom$[ebp], esi
; File C:\Program Files\Microsoft Visual Studio\2022\Professional\VC\Tools\MSVC\14.44.35207\include\vector

; 1915 :         return static_cast<size_type>(_My_data._Mylast - _My_data._Myfirst);

  0005e	8b 4b 50	 mov	 ecx, DWORD PTR [ebx+80]
  00061	83 c3 4c	 add	 ebx, 76			; 0000004cH
  00064	89 4d ac	 mov	 DWORD PTR $T5[ebp], ecx
; File C:\IAGOS\server\v18\Source\Source\_Common\GuildCombat1to1.cpp

; 824  : 	for( i=0; i<(int)( m_vecTenderGuild.size() ); i++ )

  00067	33 ff		 xor	 edi, edi
  00069	c7 45 fc 00 00
	00 00		 mov	 DWORD PTR __$EHRec$[ebp+8], 0
  00070	89 7d b0	 mov	 DWORD PTR _i$1$[ebp], edi
; File C:\Program Files\Microsoft Visual Studio\2022\Professional\VC\Tools\MSVC\14.44.35207\include\vector

; 1915 :         return static_cast<size_type>(_My_data._Mylast - _My_data._Myfirst);

  00073	8b 03		 mov	 eax, DWORD PTR [ebx]
  00075	2b c8		 sub	 ecx, eax
  00077	89 45 b8	 mov	 DWORD PTR $T7[ebp], eax
  0007a	b8 e9 a2 8b 2e	 mov	 eax, 780903145		; 2e8ba2e9H
  0007f	f7 e9		 imul	 ecx
  00081	89 5d a4	 mov	 DWORD PTR __My_data$2$[ebp], ebx
  00084	c1 fa 03	 sar	 edx, 3
  00087	8b c2		 mov	 eax, edx
  00089	c1 e8 1f	 shr	 eax, 31			; 0000001fH
  0008c	03 c2		 add	 eax, edx
; File C:\IAGOS\server\v18\Source\Source\_Common\GuildCombat1to1.cpp

; 824  : 	for( i=0; i<(int)( m_vecTenderGuild.size() ); i++ )

  0008e	85 c0		 test	 eax, eax
  00090	0f 8e 0b 01 00
	00		 jle	 $LN3@CreateGuil
; File C:\Program Files\Microsoft Visual Studio\2022\Professional\VC\Tools\MSVC\14.44.35207\include\xmemory

; 1160 :     _CONSTEXPR20 explicit _Alloc_construct_ptr(_Alloc& _Al_) : _Al(_Al_), _Ptr(nullptr) {}

  00096	8d 45 bc	 lea	 eax, DWORD PTR _mapRandom$[ebp]
  00099	89 45 9c	 mov	 DWORD PTR __Newnode$4[ebp], eax
  0009c	0f 1f 40 00	 npad	 4
$LL4@CreateGuil:
; File C:\Program Files\Microsoft Visual Studio\2022\Professional\VC\Tools\MSVC\14.44.35207\include\vector

; 1915 :         return static_cast<size_type>(_My_data._Mylast - _My_data._Myfirst);

  000a0	8b 4d ac	 mov	 ecx, DWORD PTR $T5[ebp]
; File C:\IAGOS\server\v18\Source\Source\_Common\GuildCombat1to1.cpp

; 826  : 		mapRandom.insert( make_pair( xRandom(m_vecTenderGuild.size()), i/2 ) );

  000a3	8b c7		 mov	 eax, edi
; File C:\Program Files\Microsoft Visual Studio\2022\Professional\VC\Tools\MSVC\14.44.35207\include\vector

; 1915 :         return static_cast<size_type>(_My_data._Mylast - _My_data._Myfirst);

  000a5	2b 4d b8	 sub	 ecx, DWORD PTR $T7[ebp]
; File C:\IAGOS\server\v18\Source\Source\_Common\xUtil.h

; 16   : 	g_next = g_next * 1103515245 + 12345;// + nRandomSeed[ i++ ];

  000a8	69 35 00 00 00
	00 6d 4e c6 41	 imul	 esi, DWORD PTR ?g_next@@3KA, 1103515245 ; g_next
; File C:\IAGOS\server\v18\Source\Source\_Common\GuildCombat1to1.cpp

; 826  : 		mapRandom.insert( make_pair( xRandom(m_vecTenderGuild.size()), i/2 ) );

  000b2	99		 cdq
  000b3	2b c2		 sub	 eax, edx
  000b5	8b f8		 mov	 edi, eax
; File C:\Program Files\Microsoft Visual Studio\2022\Professional\VC\Tools\MSVC\14.44.35207\include\vector

; 1915 :         return static_cast<size_type>(_My_data._Mylast - _My_data._Myfirst);

  000b7	b8 e9 a2 8b 2e	 mov	 eax, 780903145		; 2e8ba2e9H
  000bc	f7 e9		 imul	 ecx
; File C:\IAGOS\server\v18\Source\Source\_Common\xUtil.h

; 16   : 	g_next = g_next * 1103515245 + 12345;// + nRandomSeed[ i++ ];

  000be	81 c6 39 30 00
	00		 add	 esi, 12345		; 00003039H
; File C:\IAGOS\server\v18\Source\Source\_Common\GuildCombat1to1.cpp

; 826  : 		mapRandom.insert( make_pair( xRandom(m_vecTenderGuild.size()), i/2 ) );

  000c4	d1 ff		 sar	 edi, 1
; File C:\Program Files\Microsoft Visual Studio\2022\Professional\VC\Tools\MSVC\14.44.35207\include\vector

; 1915 :         return static_cast<size_type>(_My_data._Mylast - _My_data._Myfirst);

  000c6	c1 fa 03	 sar	 edx, 3
; File C:\IAGOS\server\v18\Source\Source\_Common\xUtil.h

; 16   : 	g_next = g_next * 1103515245 + 12345;// + nRandomSeed[ i++ ];

  000c9	8b c6		 mov	 eax, esi
; File C:\Program Files\Microsoft Visual Studio\2022\Professional\VC\Tools\MSVC\14.44.35207\include\vector

; 1915 :         return static_cast<size_type>(_My_data._Mylast - _My_data._Myfirst);

  000cb	8b ca		 mov	 ecx, edx
; File C:\IAGOS\server\v18\Source\Source\_Common\xUtil.h

; 16   : 	g_next = g_next * 1103515245 + 12345;// + nRandomSeed[ i++ ];

  000cd	89 35 00 00 00
	00		 mov	 DWORD PTR ?g_next@@3KA, esi ; g_next
; File C:\Program Files\Microsoft Visual Studio\2022\Professional\VC\Tools\MSVC\14.44.35207\include\vector

; 1915 :         return static_cast<size_type>(_My_data._Mylast - _My_data._Myfirst);

  000d3	c1 e9 1f	 shr	 ecx, 31			; 0000001fH
  000d6	03 ca		 add	 ecx, edx
; File C:\IAGOS\server\v18\Source\Source\_Common\xUtil.h

; 16   : 	g_next = g_next * 1103515245 + 12345;// + nRandomSeed[ i++ ];

  000d8	33 d2		 xor	 edx, edx
  000da	f7 f1		 div	 ecx
; File C:\Program Files\Microsoft Visual Studio\2022\Professional\VC\Tools\MSVC\14.44.35207\include\utility

; 274  :         : first(_STD forward<_Other1>(_Val1)), second(_STD forward<_Other2>(_Val2)) {

  000dc	8b f2		 mov	 esi, edx
; File C:\Program Files\Microsoft Visual Studio\2022\Professional\VC\Tools\MSVC\14.44.35207\include\xmemory

; 136  :         return ::operator new(_Bytes);

  000de	6a 18		 push	 24			; 00000018H
; File C:\Program Files\Microsoft Visual Studio\2022\Professional\VC\Tools\MSVC\14.44.35207\include\xtree

; 808  :     explicit _Tree_temp_node_alloc(_Alnode& _Al_) : _Alloc_construct_ptr<_Alnode>(_Al_) {

  000e0	c6 45 fc 01	 mov	 BYTE PTR __$EHRec$[ebp+8], 1
; File C:\Program Files\Microsoft Visual Studio\2022\Professional\VC\Tools\MSVC\14.44.35207\include\xmemory

; 1167 :         _Ptr = nullptr; // if allocate throws, prevents double-free

  000e4	c7 45 a0 00 00
	00 00		 mov	 DWORD PTR __Newnode$4[ebp+4], 0

; 136  :         return ::operator new(_Bytes);

  000eb	e8 00 00 00 00	 call	 ??2@YAPAXI@Z		; operator new

; 256  :         return _Traits::_Allocate(_Bytes);

  000f0	8b d0		 mov	 edx, eax

; 136  :         return ::operator new(_Bytes);

  000f2	83 c4 04	 add	 esp, 4
; File C:\Program Files\Microsoft Visual Studio\2022\Professional\VC\Tools\MSVC\14.44.35207\include\xtree

; 831  :         _Construct_in_place(this->_Ptr->_Left, _Myhead);

  000f5	8b 45 a8	 mov	 eax, DWORD PTR __Myhead$1$[ebp]
; File C:\Program Files\Microsoft Visual Studio\2022\Professional\VC\Tools\MSVC\14.44.35207\include\xmemory

; 256  :         return _Traits::_Allocate(_Bytes);

  000f8	89 55 b8	 mov	 DWORD PTR $T6[ebp], edx

; 1168 :         _Ptr = _Al.allocate(1);

  000fb	89 55 a0	 mov	 DWORD PTR __Newnode$4[ebp+4], edx
; File C:\Program Files\Microsoft Visual Studio\2022\Professional\VC\Tools\MSVC\14.44.35207\include\utility

; 303  :         : first(_STD forward<_Other1>(_Right.first)), second(_STD forward<_Other2>(_Right.second)) {}

  000fe	89 72 10	 mov	 DWORD PTR [edx+16], esi
  00101	89 7a 14	 mov	 DWORD PTR [edx+20], edi
; File C:\Program Files\Microsoft Visual Studio\2022\Professional\VC\Tools\MSVC\14.44.35207\include\xtree

; 831  :         _Construct_in_place(this->_Ptr->_Left, _Myhead);

  00104	89 02		 mov	 DWORD PTR [edx], eax

; 832  :         _Construct_in_place(this->_Ptr->_Parent, _Myhead);

  00106	89 42 04	 mov	 DWORD PTR [edx+4], eax

; 833  :         _Construct_in_place(this->_Ptr->_Right, _Myhead);

  00109	89 42 08	 mov	 DWORD PTR [edx+8], eax

; 834  :         this->_Ptr->_Color = _Red;

  0010c	66 c7 42 0c 00
	00		 mov	 WORD PTR [edx+12], 0

; 1605 :         _Tree_find_result<_Nodeptr> _Result{{_Scary->_Myhead->_Parent, _Tree_child::_Right}, _Scary->_Myhead};

  00112	8b 45 bc	 mov	 eax, DWORD PTR _mapRandom$[ebp]
  00115	33 c9		 xor	 ecx, ecx

; 1026 :             _Tree_temp_node<_Alnode> _Newnode(_Getal(), _Scary->_Myhead, _STD forward<_Valtys>(_Vals)...);

  00117	c6 45 fc 02	 mov	 BYTE PTR __$EHRec$[ebp+8], 2

; 1605 :         _Tree_find_result<_Nodeptr> _Result{{_Scary->_Myhead->_Parent, _Tree_child::_Right}, _Scary->_Myhead};

  0011b	8b 78 04	 mov	 edi, DWORD PTR [eax+4]

; 1606 :         _Nodeptr _Trynode = _Result._Location._Parent;
; 1607 :         while (!_Trynode->_Isnil) {

  0011e	38 4f 0d	 cmp	 BYTE PTR [edi+13], cl
  00121	75 22		 jne	 SHORT $LN161@CreateGuil
; File C:\Program Files\Microsoft Visual Studio\2022\Professional\VC\Tools\MSVC\14.44.35207\include\type_traits

; 2380 :         return _Left < _Right;

  00123	8b c7		 mov	 eax, edi
$LL160@CreateGuil:
  00125	8b 50 10	 mov	 edx, DWORD PTR [eax+16]
; File C:\Program Files\Microsoft Visual Studio\2022\Professional\VC\Tools\MSVC\14.44.35207\include\xtree

; 1608 :             _Result._Location._Parent = _Trynode;

  00128	8b f8		 mov	 edi, eax
; File C:\Program Files\Microsoft Visual Studio\2022\Professional\VC\Tools\MSVC\14.44.35207\include\type_traits

; 2380 :         return _Left < _Right;

  0012a	3b f2		 cmp	 esi, edx
; File C:\Program Files\Microsoft Visual Studio\2022\Professional\VC\Tools\MSVC\14.44.35207\include\xtree

; 1609 :             if (_DEBUG_LT_PRED(_Getcomp(), _Keyval, _Traits::_Kfn(_Trynode->_Myval))) {

  0012c	7d 04		 jge	 SHORT $LN162@CreateGuil

; 1610 :                 _Result._Location._Child = _Tree_child::_Left;
; 1611 :                 _Result._Bound           = _Trynode;
; 1612 :                 _Trynode                 = _Trynode->_Left;

  0012e	8b 00		 mov	 eax, DWORD PTR [eax]

; 1613 :             } else {

  00130	eb 03		 jmp	 SHORT $LN163@CreateGuil
$LN162@CreateGuil:

; 1614 :                 _Result._Location._Child = _Tree_child::_Right;
; 1615 :                 _Trynode                 = _Trynode->_Right;

  00132	8b 40 08	 mov	 eax, DWORD PTR [eax+8]
$LN163@CreateGuil:

; 1606 :         _Nodeptr _Trynode = _Result._Location._Parent;
; 1607 :         while (!_Trynode->_Isnil) {

  00135	33 c9		 xor	 ecx, ecx
  00137	3b f2		 cmp	 esi, edx
  00139	0f 9c c1	 setl	 cl
  0013c	80 78 0d 00	 cmp	 BYTE PTR [eax+13], 0
  00140	74 e3		 je	 SHORT $LL160@CreateGuil
  00142	8b 55 b8	 mov	 edx, DWORD PTR $T6[ebp]
$LN161@CreateGuil:

; 1648 :         if (max_size() == _Get_scary()->_Mysize) {

  00145	81 7d c0 aa aa
	aa 0a		 cmp	 DWORD PTR _mapRandom$[ebp+4], 178956970 ; 0aaaaaaaH
  0014c	0f 84 82 01 00
	00		 je	 $LN280@CreateGuil

; 1042 :         return {_Scary->_Insert_node(_Loc._Location, _Inserted), true};

  00152	52		 push	 edx
  00153	51		 push	 ecx
  00154	57		 push	 edi
  00155	8d 4d bc	 lea	 ecx, DWORD PTR _mapRandom$[ebp]
; File C:\Program Files\Microsoft Visual Studio\2022\Professional\VC\Tools\MSVC\14.44.35207\include\utility

; 774  :     _Val         = static_cast<_Other&&>(_New_val);

  00158	c7 45 a0 00 00
	00 00		 mov	 DWORD PTR __Newnode$4[ebp+4], 0
; File C:\Program Files\Microsoft Visual Studio\2022\Professional\VC\Tools\MSVC\14.44.35207\include\xtree

; 1040 :         }

  0015f	c6 45 fc 00	 mov	 BYTE PTR __$EHRec$[ebp+8], 0

; 1041 : 
; 1042 :         return {_Scary->_Insert_node(_Loc._Location, _Inserted), true};

  00163	e8 00 00 00 00	 call	 ?_Insert_node@?$_Tree_val@U?$_Tree_simple_types@U?$pair@$$CBHH@std@@@std@@@std@@QAEPAU?$_Tree_node@U?$pair@$$CBHH@std@@PAX@2@U?$_Tree_id@PAU?$_Tree_node@U?$pair@$$CBHH@std@@PAX@std@@@2@QAU32@@Z ; std::_Tree_val<std::_Tree_simple_types<std::pair<int const ,int> > >::_Insert_node
; File C:\Program Files\Microsoft Visual Studio\2022\Professional\VC\Tools\MSVC\14.44.35207\include\vector

; 1915 :         return static_cast<size_type>(_My_data._Mylast - _My_data._Myfirst);

  00168	8b 43 04	 mov	 eax, DWORD PTR [ebx+4]
  0016b	8b c8		 mov	 ecx, eax
  0016d	8b 13		 mov	 edx, DWORD PTR [ebx]
  0016f	2b ca		 sub	 ecx, edx
; File C:\IAGOS\server\v18\Source\Source\_Common\GuildCombat1to1.cpp

; 824  : 	for( i=0; i<(int)( m_vecTenderGuild.size() ); i++ )

  00171	8b 7d b0	 mov	 edi, DWORD PTR _i$1$[ebp]
; File C:\Program Files\Microsoft Visual Studio\2022\Professional\VC\Tools\MSVC\14.44.35207\include\vector

; 1915 :         return static_cast<size_type>(_My_data._Mylast - _My_data._Myfirst);

  00174	89 45 ac	 mov	 DWORD PTR $T5[ebp], eax
; File C:\IAGOS\server\v18\Source\Source\_Common\GuildCombat1to1.cpp

; 824  : 	for( i=0; i<(int)( m_vecTenderGuild.size() ); i++ )

  00177	47		 inc	 edi
; File C:\Program Files\Microsoft Visual Studio\2022\Professional\VC\Tools\MSVC\14.44.35207\include\vector

; 1915 :         return static_cast<size_type>(_My_data._Mylast - _My_data._Myfirst);

  00178	89 55 b8	 mov	 DWORD PTR $T7[ebp], edx
  0017b	b8 e9 a2 8b 2e	 mov	 eax, 780903145		; 2e8ba2e9H
  00180	f7 e9		 imul	 ecx
; File C:\IAGOS\server\v18\Source\Source\_Common\GuildCombat1to1.cpp

; 824  : 	for( i=0; i<(int)( m_vecTenderGuild.size() ); i++ )

  00182	89 7d b0	 mov	 DWORD PTR _i$1$[ebp], edi
; File C:\Program Files\Microsoft Visual Studio\2022\Professional\VC\Tools\MSVC\14.44.35207\include\vector

; 1915 :         return static_cast<size_type>(_My_data._Mylast - _My_data._Myfirst);

  00185	c1 fa 03	 sar	 edx, 3
  00188	8b c2		 mov	 eax, edx
  0018a	c1 e8 1f	 shr	 eax, 31			; 0000001fH
  0018d	03 c2		 add	 eax, edx
; File C:\IAGOS\server\v18\Source\Source\_Common\GuildCombat1to1.cpp

; 824  : 	for( i=0; i<(int)( m_vecTenderGuild.size() ); i++ )

  0018f	3b f8		 cmp	 edi, eax
  00191	7d 0b		 jge	 SHORT $LN303@CreateGuil
  00193	8b 45 bc	 mov	 eax, DWORD PTR _mapRandom$[ebp]
  00196	89 45 a8	 mov	 DWORD PTR __Myhead$1$[ebp], eax
  00199	e9 02 ff ff ff	 jmp	 $LL4@CreateGuil
$LN303@CreateGuil:
  0019e	8b 75 bc	 mov	 esi, DWORD PTR _mapRandom$[ebp]
$LN3@CreateGuil:
; File C:\Program Files\Microsoft Visual Studio\2022\Professional\VC\Tools\MSVC\14.44.35207\include\xtree

; 37   :     _Tree_unchecked_const_iterator(_Nodeptr _Pnode, const _Mytree* _Plist) noexcept : _Ptr(_Pnode) {

  001a1	8b 06		 mov	 eax, DWORD PTR [esi]

; 237  :         return !(*this == _Right);

  001a3	3b c6		 cmp	 eax, esi
; File C:\IAGOS\server\v18\Source\Source\_Common\GuildCombat1to1.cpp

; 830  : 	for( multimap<int, int>::iterator it=mapRandom.begin(); it!=mapRandom.end(); it++ )

  001a5	74 6a		 je	 SHORT $LN6@CreateGuil

; 827  : 	}
; 828  : 	
; 829  : 	i = 0;

  001a7	33 f6		 xor	 esi, esi
  001a9	0f 1f 80 00 00
	00 00		 npad	 7
$LL7@CreateGuil:

; 831  : 	{
; 832  : 		m_vecTenderGuild[i].nStageId = it->second;

  001b0	8b 13		 mov	 edx, DWORD PTR [ebx]

; 833  : 		// °˘ ´ëŔüŔĺŔÇ WorldID¸¦ ŔúŔĺ
; 834  : 		m_vecTenderGuild[i].dwWorldId = WI_WORLD_GUILDWAR1TO1_0 + it->second;
; 835  : 		i++;

  001b2	8d 76 2c	 lea	 esi, DWORD PTR [esi+44]
  001b5	8b 48 14	 mov	 ecx, DWORD PTR [eax+20]
  001b8	89 4c 16 dc	 mov	 DWORD PTR [esi+edx-36], ecx
  001bc	8b 0b		 mov	 ecx, DWORD PTR [ebx]
  001be	8b 50 14	 mov	 edx, DWORD PTR [eax+20]
  001c1	81 c2 f1 00 00
	00		 add	 edx, 241		; 000000f1H
  001c7	89 54 0e e4	 mov	 DWORD PTR [esi+ecx-28], edx
; File C:\Program Files\Microsoft Visual Studio\2022\Professional\VC\Tools\MSVC\14.44.35207\include\xtree

; 50   :         if (_Ptr->_Right->_Isnil) { // climb looking for right subtree

  001cb	8b 48 08	 mov	 ecx, DWORD PTR [eax+8]
  001ce	80 79 0d 00	 cmp	 BYTE PTR [ecx+13], 0
  001d2	74 20		 je	 SHORT $LN58@CreateGuil

; 51   :             _Nodeptr _Pnode;
; 52   :             while (!(_Pnode = _Ptr->_Parent)->_Isnil && _Ptr == _Pnode->_Right) {

  001d4	8b 48 04	 mov	 ecx, DWORD PTR [eax+4]
  001d7	80 79 0d 00	 cmp	 BYTE PTR [ecx+13], 0
  001db	75 13		 jne	 SHORT $LN57@CreateGuil
  001dd	0f 1f 00	 npad	 3
$LL56@CreateGuil:
  001e0	3b 41 08	 cmp	 eax, DWORD PTR [ecx+8]
  001e3	75 0b		 jne	 SHORT $LN57@CreateGuil

; 53   :                 _Ptr = _Pnode; // ==> parent while right subtree

  001e5	8b c1		 mov	 eax, ecx
  001e7	8b 49 04	 mov	 ecx, DWORD PTR [ecx+4]
  001ea	80 79 0d 00	 cmp	 BYTE PTR [ecx+13], 0
  001ee	74 f0		 je	 SHORT $LL56@CreateGuil
$LN57@CreateGuil:

; 54   :             }
; 55   : 
; 56   :             _Ptr = _Pnode; // ==> parent (head if end())

  001f0	8b c1		 mov	 eax, ecx

; 57   :         } else {

  001f2	eb 18		 jmp	 SHORT $LN285@CreateGuil
$LN58@CreateGuil:

; 58   :             _Ptr = _Mytree::_Min(_Ptr->_Right); // ==> smallest of right subtree

  001f4	8b c1		 mov	 eax, ecx

; 476  :         while (!_Pnode->_Left->_Isnil) {

  001f6	8b 10		 mov	 edx, DWORD PTR [eax]
  001f8	80 7a 0d 00	 cmp	 BYTE PTR [edx+13], 0
  001fc	75 0e		 jne	 SHORT $LN285@CreateGuil
  001fe	66 90		 npad	 2
$LL63@CreateGuil:
  00200	8b 0a		 mov	 ecx, DWORD PTR [edx]

; 477  :             _Pnode = _Pnode->_Left;

  00202	8b c2		 mov	 eax, edx
  00204	8b d1		 mov	 edx, ecx
  00206	80 79 0d 00	 cmp	 BYTE PTR [ecx+13], 0
  0020a	74 f4		 je	 SHORT $LL63@CreateGuil
$LN285@CreateGuil:

; 237  :         return !(*this == _Right);

  0020c	3b 45 bc	 cmp	 eax, DWORD PTR _mapRandom$[ebp]
; File C:\IAGOS\server\v18\Source\Source\_Common\GuildCombat1to1.cpp

; 830  : 	for( multimap<int, int>::iterator it=mapRandom.begin(); it!=mapRandom.end(); it++ )

  0020f	75 9f		 jne	 SHORT $LL7@CreateGuil
$LN6@CreateGuil:
; File C:\Program Files\Microsoft Visual Studio\2022\Professional\VC\Tools\MSVC\14.44.35207\include\vector

; 1808 :         auto& _My_data    = _Mypair._Myval2;

  00211	8b 75 b4	 mov	 esi, DWORD PTR _this$GSCopy$1$[ebp]

; 1809 :         pointer& _Myfirst = _My_data._Myfirst;
; 1810 :         pointer& _Mylast  = _My_data._Mylast;
; 1811 : 
; 1812 :         if (_Myfirst == _Mylast) { // already empty, nothing to do

  00214	8b 7e 40	 mov	 edi, DWORD PTR [esi+64]
  00217	8b 46 44	 mov	 eax, DWORD PTR [esi+68]
  0021a	3b f8		 cmp	 edi, eax
  0021c	74 1a		 je	 SHORT $LN91@CreateGuil
  0021e	8b d8		 mov	 ebx, eax
$LL98@CreateGuil:
; File C:\Program Files\Microsoft Visual Studio\2022\Professional\VC\Tools\MSVC\14.44.35207\include\xmemory

; 741  :         _Ptr->~_Uty();

  00220	8b 07		 mov	 eax, DWORD PTR [edi]
  00222	8b cf		 mov	 ecx, edi
  00224	6a 00		 push	 0
  00226	ff 10		 call	 DWORD PTR [eax]

; 1102 :         for (; _First != _Last; ++_First) {

  00228	83 c7 2c	 add	 edi, 44			; 0000002cH
  0022b	3b fb		 cmp	 edi, ebx
  0022d	75 f1		 jne	 SHORT $LL98@CreateGuil
; File C:\Program Files\Microsoft Visual Studio\2022\Professional\VC\Tools\MSVC\14.44.35207\include\vector

; 1822 :         _Mylast = _Myfirst;

  0022f	8b 46 40	 mov	 eax, DWORD PTR [esi+64]
  00232	8b 5d a4	 mov	 ebx, DWORD PTR __My_data$2$[ebp]
  00235	89 46 44	 mov	 DWORD PTR [esi+68], eax
$LN91@CreateGuil:

; 1915 :         return static_cast<size_type>(_My_data._Mylast - _My_data._Myfirst);

  00238	8b 4b 04	 mov	 ecx, DWORD PTR [ebx+4]
  0023b	b8 e9 a2 8b 2e	 mov	 eax, 780903145		; 2e8ba2e9H
  00240	2b 0b		 sub	 ecx, DWORD PTR [ebx]
; File C:\IAGOS\server\v18\Source\Source\_Common\GuildCombat1to1.cpp

; 839  : 	for( i=0; i<(int)( m_vecTenderGuild.size()/2 ); i++ )

  00242	33 ff		 xor	 edi, edi
; File C:\Program Files\Microsoft Visual Studio\2022\Professional\VC\Tools\MSVC\14.44.35207\include\vector

; 1915 :         return static_cast<size_type>(_My_data._Mylast - _My_data._Myfirst);

  00244	f7 e9		 imul	 ecx
  00246	c1 fa 03	 sar	 edx, 3
  00249	8b c2		 mov	 eax, edx
  0024b	c1 e8 1f	 shr	 eax, 31			; 0000001fH
  0024e	03 c2		 add	 eax, edx
; File C:\IAGOS\server\v18\Source\Source\_Common\GuildCombat1to1.cpp

; 839  : 	for( i=0; i<(int)( m_vecTenderGuild.size()/2 ); i++ )

  00250	a9 fe ff ff ff	 test	 eax, -2			; fffffffeH
  00255	76 59		 jbe	 SHORT $LN9@CreateGuil
$LL10@CreateGuil:

; 841  : 		CGuildCombat1to1 GuildCombat1to1( m_vecTenderGuild, i );

  00257	57		 push	 edi
  00258	53		 push	 ebx
  00259	8d 4d c4	 lea	 ecx, DWORD PTR _GuildCombat1to1$8[ebp]
  0025c	e8 00 00 00 00	 call	 ??0CGuildCombat1to1@@QAE@AAV?$vector@U__GC1TO1TENDER@CGuildCombat1to1Mng@@V?$allocator@U__GC1TO1TENDER@CGuildCombat1to1Mng@@@std@@@std@@H@Z ; CGuildCombat1to1::CGuildCombat1to1
; File C:\Program Files\Microsoft Visual Studio\2022\Professional\VC\Tools\MSVC\14.44.35207\include\vector

; 844  :         if (_Mylast != _My_data._Myend) {

  00261	8b 46 44	 mov	 eax, DWORD PTR [esi+68]
  00264	8d 4d c4	 lea	 ecx, DWORD PTR _GuildCombat1to1$8[ebp]
; File C:\IAGOS\server\v18\Source\Source\_Common\GuildCombat1to1.cpp

; 841  : 		CGuildCombat1to1 GuildCombat1to1( m_vecTenderGuild, i );

  00267	c6 45 fc 03	 mov	 BYTE PTR __$EHRec$[ebp+8], 3
; File C:\Program Files\Microsoft Visual Studio\2022\Professional\VC\Tools\MSVC\14.44.35207\include\vector

; 844  :         if (_Mylast != _My_data._Myend) {

  0026b	51		 push	 ecx
  0026c	3b 46 48	 cmp	 eax, DWORD PTR [esi+72]
  0026f	74 0d		 je	 SHORT $LN20@CreateGuil
; File C:\Program Files\Microsoft Visual Studio\2022\Professional\VC\Tools\MSVC\14.44.35207\include\xmemory

; 732  :         ::new (const_cast<void*>(static_cast<const volatile void*>(_Ptr))) _Objty(_STD forward<_Types>(_Args)...);

  00271	8b c8		 mov	 ecx, eax
  00273	e8 00 00 00 00	 call	 ??0CGuildCombat1to1@@QAE@ABV0@@Z
; File C:\Program Files\Microsoft Visual Studio\2022\Professional\VC\Tools\MSVC\14.44.35207\include\vector

; 869  :         ++_Mylast;

  00278	83 46 44 2c	 add	 DWORD PTR [esi+68], 44	; 0000002cH

; 845  :             return _Emplace_back_with_unused_capacity(_STD forward<_Valty>(_Val)...);

  0027c	eb 09		 jmp	 SHORT $LN19@CreateGuil
$LN20@CreateGuil:

; 846  :         }
; 847  : 
; 848  :         return *_Emplace_reallocate(_Mylast, _STD forward<_Valty>(_Val)...);

  0027e	50		 push	 eax
  0027f	8d 4e 40	 lea	 ecx, DWORD PTR [esi+64]
  00282	e8 00 00 00 00	 call	 ??$_Emplace_reallocate@ABVCGuildCombat1to1@@@?$vector@VCGuildCombat1to1@@V?$allocator@VCGuildCombat1to1@@@std@@@std@@AAEPAVCGuildCombat1to1@@QAV2@ABV2@@Z ; std::vector<CGuildCombat1to1,std::allocator<CGuildCombat1to1> >::_Emplace_reallocate<CGuildCombat1to1 const &>
$LN19@CreateGuil:
; File C:\IAGOS\server\v18\Source\Source\_Common\GuildCombat1to1.cpp

; 843  : 	}

  00287	8d 4d c4	 lea	 ecx, DWORD PTR _GuildCombat1to1$8[ebp]
  0028a	c6 45 fc 00	 mov	 BYTE PTR __$EHRec$[ebp+8], 0
  0028e	e8 00 00 00 00	 call	 ??1CGuildCombat1to1@@UAE@XZ ; CGuildCombat1to1::~CGuildCombat1to1
; File C:\Program Files\Microsoft Visual Studio\2022\Professional\VC\Tools\MSVC\14.44.35207\include\vector

; 1915 :         return static_cast<size_type>(_My_data._Mylast - _My_data._Myfirst);

  00293	8b 4b 04	 mov	 ecx, DWORD PTR [ebx+4]
  00296	b8 e9 a2 8b 2e	 mov	 eax, 780903145		; 2e8ba2e9H
  0029b	2b 0b		 sub	 ecx, DWORD PTR [ebx]
; File C:\IAGOS\server\v18\Source\Source\_Common\GuildCombat1to1.cpp

; 839  : 	for( i=0; i<(int)( m_vecTenderGuild.size()/2 ); i++ )

  0029d	47		 inc	 edi
; File C:\Program Files\Microsoft Visual Studio\2022\Professional\VC\Tools\MSVC\14.44.35207\include\vector

; 1915 :         return static_cast<size_type>(_My_data._Mylast - _My_data._Myfirst);

  0029e	f7 e9		 imul	 ecx
  002a0	c1 fa 03	 sar	 edx, 3
  002a3	8b c2		 mov	 eax, edx
  002a5	c1 e8 1f	 shr	 eax, 31			; 0000001fH
  002a8	03 c2		 add	 eax, edx
; File C:\IAGOS\server\v18\Source\Source\_Common\GuildCombat1to1.cpp

; 839  : 	for( i=0; i<(int)( m_vecTenderGuild.size()/2 ); i++ )

  002aa	d1 e8		 shr	 eax, 1
  002ac	3b f8		 cmp	 edi, eax
  002ae	7c a7		 jl	 SHORT $LL10@CreateGuil
$LN9@CreateGuil:
  002b0	8d 4d bc	 lea	 ecx, DWORD PTR _mapRandom$[ebp]
  002b3	e8 00 00 00 00	 call	 ??1?$_Tree@V?$_Tmap_traits@HHU?$less@H@std@@V?$allocator@U?$pair@$$CBHH@std@@@2@$00@std@@@std@@QAE@XZ ; std::_Tree<std::_Tmap_traits<int,int,std::less<int>,std::allocator<std::pair<int const ,int> >,1> >::~_Tree<std::_Tmap_traits<int,int,std::less<int>,std::allocator<std::pair<int const ,int> >,1> >

; 844  : }

  002b8	8b 4d f4	 mov	 ecx, DWORD PTR __$EHRec$[ebp]
  002bb	64 89 0d 00 00
	00 00		 mov	 DWORD PTR fs:0, ecx
  002c2	59		 pop	 ecx
  002c3	5f		 pop	 edi
  002c4	5e		 pop	 esi
  002c5	5b		 pop	 ebx
  002c6	8b 4d f0	 mov	 ecx, DWORD PTR __$ArrayPad$[ebp]
  002c9	33 cd		 xor	 ecx, ebp
  002cb	e8 00 00 00 00	 call	 @__security_check_cookie@4
  002d0	8b e5		 mov	 esp, ebp
  002d2	5d		 pop	 ebp
  002d3	c3		 ret	 0
$LN280@CreateGuil:
; File C:\Program Files\Microsoft Visual Studio\2022\Professional\VC\Tools\MSVC\14.44.35207\include\xtree

; 1649 :             _Throw_tree_length_error();

  002d4	e8 00 00 00 00	 call	 ?_Throw_tree_length_error@std@@YAXXZ ; std::_Throw_tree_length_error
$LN306@CreateGuil:
  002d9	cc		 int	 3
_TEXT	ENDS
;	COMDAT text$x
text$x	SEGMENT
__unwindfunclet$?CreateGuildCombat1to1@CGuildCombat1to1Mng@@QAEXXZ$0:
  00000	8d 4d bc	 lea	 ecx, DWORD PTR _mapRandom$[ebp]
  00003	e9 00 00 00 00	 jmp	 ??1?$multimap@HHU?$less@H@std@@V?$allocator@U?$pair@$$CBHH@std@@@2@@std@@QAE@XZ
__unwindfunclet$?CreateGuildCombat1to1@CGuildCombat1to1Mng@@QAEXXZ$5:
  00008	8d 4d 9c	 lea	 ecx, DWORD PTR __Newnode$4[ebp]
  0000b	e9 00 00 00 00	 jmp	 ??1?$_Alloc_construct_ptr@V?$allocator@U?$_Tree_node@U?$pair@$$CBHH@std@@PAX@std@@@std@@@std@@QAE@XZ ; std::_Alloc_construct_ptr<std::allocator<std::_Tree_node<std::pair<int const ,int>,void *> > >::~_Alloc_construct_ptr<std::allocator<std::_Tree_node<std::pair<int const ,int>,void *> > >
__unwindfunclet$?CreateGuildCombat1to1@CGuildCombat1to1Mng@@QAEXXZ$3:
  00010	8d 4d 9c	 lea	 ecx, DWORD PTR __Newnode$4[ebp]
  00013	e9 00 00 00 00	 jmp	 ??1?$_Tree_temp_node@V?$allocator@U?$_Tree_node@U?$pair@$$CBHH@std@@PAX@std@@@std@@@std@@QAE@XZ ; std::_Tree_temp_node<std::allocator<std::_Tree_node<std::pair<int const ,int>,void *> > >::~_Tree_temp_node<std::allocator<std::_Tree_node<std::pair<int const ,int>,void *> > >
__unwindfunclet$?CreateGuildCombat1to1@CGuildCombat1to1Mng@@QAEXXZ$1:
  00018	8d 4d c4	 lea	 ecx, DWORD PTR _GuildCombat1to1$8[ebp]
  0001b	e9 00 00 00 00	 jmp	 ??1CGuildCombat1to1@@UAE@XZ ; CGuildCombat1to1::~CGuildCombat1to1
  00020	cc		 int	 3
  00021	cc		 int	 3
  00022	cc		 int	 3
  00023	cc		 int	 3
  00024	cc		 int	 3
__ehhandler$?CreateGuildCombat1to1@CGuildCombat1to1Mng@@QAEXXZ:
  00025	90		 npad	 1
  00026	90		 npad	 1
  00027	8b 54 24 08	 mov	 edx, DWORD PTR [esp+8]
  0002b	8d 42 0c	 lea	 eax, DWORD PTR [edx+12]
  0002e	8b 4a 98	 mov	 ecx, DWORD PTR [edx-104]
  00031	33 c8		 xor	 ecx, eax
  00033	e8 00 00 00 00	 call	 @__security_check_cookie@4
  00038	8b 4a fc	 mov	 ecx, DWORD PTR [edx-4]
  0003b	33 c8		 xor	 ecx, eax
  0003d	e8 00 00 00 00	 call	 @__security_check_cookie@4
  00042	b8 00 00 00 00	 mov	 eax, OFFSET __ehfuncinfo$?CreateGuildCombat1to1@CGuildCombat1to1Mng@@QAEXXZ
  00047	e9 00 00 00 00	 jmp	 ___CxxFrameHandler3
text$x	ENDS
?CreateGuildCombat1to1@CGuildCombat1to1Mng@@QAEXXZ ENDP	; CGuildCombat1to1Mng::CreateGuildCombat1to1
; Function compile flags: /Ogtp
; File C:\IAGOS\server\v18\Source\Source\_Common\GuildCombat1to1.cpp
; File C:\Program Files\Microsoft Visual Studio\2022\Professional\VC\Tools\MSVC\14.44.35207\include\vector
; File C:\IAGOS\server\v18\Source\Source\_Common\GuildCombat1to1.cpp
; File C:\Program Files\Microsoft Visual Studio\2022\Professional\VC\Tools\MSVC\14.44.35207\include\vector
; File C:\IAGOS\server\v18\Source\Source\_Common\GuildCombat1to1.cpp
; File C:\Program Files\Microsoft Visual Studio\2022\Professional\VC\Tools\MSVC\14.44.35207\include\vector
; File C:\IAGOS\server\v18\Source\Source\_Common\GuildCombat1to1.cpp
; File C:\Program Files\Microsoft Visual Studio\2022\Professional\VC\Tools\MSVC\14.44.35207\include\xtree
; File C:\IAGOS\server\v18\Source\Source\_Common\GuildCombat1to1.cpp
; File C:\Program Files\Microsoft Visual Studio\2022\Professional\VC\Tools\MSVC\14.44.35207\include\xtree
; File C:\IAGOS\server\v18\Source\Source\_Common\GuildCombat1to1.cpp
; File C:\Program Files\Microsoft Visual Studio\2022\Professional\VC\Tools\MSVC\14.44.35207\include\xtree
; File C:\Program Files\Microsoft Visual Studio\2022\Professional\VC\Tools\MSVC\14.44.35207\include\type_traits
; File C:\Program Files\Microsoft Visual Studio\2022\Professional\VC\Tools\MSVC\14.44.35207\include\xtree
; File C:\Program Files\Microsoft Visual Studio\2022\Professional\VC\Tools\MSVC\14.44.35207\include\type_traits
; File C:\Program Files\Microsoft Visual Studio\2022\Professional\VC\Tools\MSVC\14.44.35207\include\xtree
; File C:\IAGOS\server\v18\Source\Source\_Common\Project.h
; File C:\IAGOS\server\v18\Source\Source\_Common\Obj.h
; File C:\IAGOS\server\v18\Source\Source\_Common\GuildCombat1to1.cpp
; File C:\Program Files\Microsoft Visual Studio\2022\Professional\VC\Tools\MSVC\14.44.35207\include\xtree
; File C:\IAGOS\server\v18\Source\Source\_Common\GuildCombat1to1.cpp
; File C:\Program Files\Microsoft Visual Studio\2022\Professional\VC\Tools\MSVC\14.44.35207\include\vector
; File C:\IAGOS\server\v18\Source\Source\_Common\GuildCombat1to1.cpp
; File C:\Program Files\Microsoft Visual Studio\2022\Professional\VC\Tools\MSVC\14.44.35207\include\vector
; File C:\IAGOS\server\v18\Source\Source\_Common\GuildCombat1to1.cpp
; File C:\Program Files\Microsoft Visual Studio\2022\Professional\VC\Tools\MSVC\14.44.35207\include\vector
; File C:\IAGOS\server\v18\Source\Source\_Common\GuildCombat1to1.cpp
; File C:\Program Files\Microsoft Visual Studio\2022\Professional\VC\Tools\MSVC\14.44.35207\include\vector
; File C:\Program Files\Microsoft Visual Studio\2022\Professional\VC\Tools\MSVC\14.44.35207\include\xmemory
; File C:\Program Files\Microsoft Visual Studio\2022\Professional\VC\Tools\MSVC\14.44.35207\include\vector
; File C:\Program Files\Microsoft Visual Studio\2022\Professional\VC\Tools\MSVC\14.44.35207\include\xmemory
; File C:\Program Files\Microsoft Visual Studio\2022\Professional\VC\Tools\MSVC\14.44.35207\include\vector
; File C:\IAGOS\server\v18\Source\Source\_Common\GuildCombat1to1.cpp
;	COMDAT ?GuildCombat1to1AllClose@CGuildCombat1to1Mng@@QAEXXZ
_TEXT	SEGMENT
_pGuild$1$ = -12					; size = 4
tv977 = -8						; size = 4
_i$1$ = -4						; size = 4
?GuildCombat1to1AllClose@CGuildCombat1to1Mng@@QAEXXZ PROC ; CGuildCombat1to1Mng::GuildCombat1to1AllClose, COMDAT
; _this$ = ecx

; 1154 : {

  00000	55		 push	 ebp
  00001	8b ec		 mov	 ebp, esp
  00003	83 ec 0c	 sub	 esp, 12			; 0000000cH
  00006	53		 push	 ebx
  00007	56		 push	 esi
  00008	57		 push	 edi
  00009	8b d9		 mov	 ebx, ecx

; 1155 : 	ClearTime();

  0000b	e8 00 00 00 00	 call	 ?ClearTime@CGuildCombat1to1Mng@@QAEXXZ ; CGuildCombat1to1Mng::ClearTime

; 1157 : 	for( int i=0; i<(int)( m_vecTenderGuild.size() ); i++ )

  00010	33 c9		 xor	 ecx, ecx
  00012	c7 43 04 00 00
	00 00		 mov	 DWORD PTR [ebx+4], 0
; File C:\Program Files\Microsoft Visual Studio\2022\Professional\VC\Tools\MSVC\14.44.35207\include\vector

; 1915 :         return static_cast<size_type>(_My_data._Mylast - _My_data._Myfirst);

  00019	8b 73 4c	 mov	 esi, DWORD PTR [ebx+76]
  0001c	b8 e9 a2 8b 2e	 mov	 eax, 780903145		; 2e8ba2e9H
; File C:\IAGOS\server\v18\Source\Source\_Common\GuildCombat1to1.cpp

; 1157 : 	for( int i=0; i<(int)( m_vecTenderGuild.size() ); i++ )

  00021	89 4d fc	 mov	 DWORD PTR _i$1$[ebp], ecx
; File C:\Program Files\Microsoft Visual Studio\2022\Professional\VC\Tools\MSVC\14.44.35207\include\vector

; 1915 :         return static_cast<size_type>(_My_data._Mylast - _My_data._Myfirst);

  00024	8b 4b 50	 mov	 ecx, DWORD PTR [ebx+80]
  00027	2b ce		 sub	 ecx, esi
  00029	f7 e9		 imul	 ecx
  0002b	c1 fa 03	 sar	 edx, 3
  0002e	8b c2		 mov	 eax, edx
  00030	c1 e8 1f	 shr	 eax, 31			; 0000001fH
  00033	03 c2		 add	 eax, edx
; File C:\IAGOS\server\v18\Source\Source\_Common\GuildCombat1to1.cpp

; 1157 : 	for( int i=0; i<(int)( m_vecTenderGuild.size() ); i++ )

  00035	85 c0		 test	 eax, eax
  00037	0f 8e f9 00 00
	00		 jle	 $LN3@GuildComba
; File C:\Program Files\Microsoft Visual Studio\2022\Professional\VC\Tools\MSVC\14.44.35207\include\vector

; 1914 :         auto& _My_data = _Mypair._Myval2;

  0003d	33 ff		 xor	 edi, edi
  0003f	89 7d f8	 mov	 DWORD PTR tv977[ebp], edi
$LL4@GuildComba:
; File C:\IAGOS\server\v18\Source\Source\_Common\GuildCombat1to1.cpp

; 1159 : 		CGuild* pGuild = g_GuildMng.GetGuild( m_vecTenderGuild[i].ulGuildId );

  00042	ff 34 37	 push	 DWORD PTR [edi+esi]
  00045	b9 00 00 00 00	 mov	 ecx, OFFSET ?g_GuildMng@@3VCGuildMng@@A ; g_GuildMng
  0004a	e8 00 00 00 00	 call	 ?GetGuild@CGuildMng@@QAEPAVCGuild@@K@Z ; CGuildMng::GetGuild
  0004f	89 45 f4	 mov	 DWORD PTR _pGuild$1$[ebp], eax

; 1160 : 		if( pGuild )

  00052	85 c0		 test	 eax, eax
  00054	0f 84 b1 00 00
	00		 je	 $LN2@GuildComba
; File C:\Program Files\Microsoft Visual Studio\2022\Professional\VC\Tools\MSVC\14.44.35207\include\xtree

; 1142 :         return iterator(_Scary->_Myhead->_Left, _Scary);

  0005a	8b 48 38	 mov	 ecx, DWORD PTR [eax+56]

; 37   :     _Tree_unchecked_const_iterator(_Nodeptr _Pnode, const _Mytree* _Plist) noexcept : _Ptr(_Pnode) {

  0005d	8b 31		 mov	 esi, DWORD PTR [ecx]

; 237  :         return !(*this == _Right);

  0005f	3b f1		 cmp	 esi, ecx
; File C:\IAGOS\server\v18\Source\Source\_Common\GuildCombat1to1.cpp

; 1162 : 			for( map<u_long, CGuildMember*>::iterator it=pGuild->m_mapPMember.begin(); it!=pGuild->m_mapPMember.end(); it++ )

  00061	0f 84 a4 00 00
	00		 je	 $LN2@GuildComba
  00067	8b 3d 28 00 00
	00		 mov	 edi, DWORD PTR ?prj@@3VCProject@@A+40
  0006d	0f 1f 00	 npad	 3
$LL7@GuildComba:
; File C:\Program Files\Microsoft Visual Studio\2022\Professional\VC\Tools\MSVC\14.44.35207\include\xtree

; 1630 :         _Tree_find_result<_Nodeptr> _Result{{_Scary->_Myhead->_Parent, _Tree_child::_Right}, _Scary->_Myhead};

  00070	8b 47 04	 mov	 eax, DWORD PTR [edi+4]
  00073	8b cf		 mov	 ecx, edi
; File C:\IAGOS\server\v18\Source\Source\_Common\GuildCombat1to1.cpp

; 1164 : 				CUser* pUser = (CUser*)prj.GetUserByID( it->first );

  00075	8b 56 10	 mov	 edx, DWORD PTR [esi+16]
; File C:\Program Files\Microsoft Visual Studio\2022\Professional\VC\Tools\MSVC\14.44.35207\include\xtree

; 1632 :         while (!_Trynode->_Isnil) {

  00078	80 78 0d 00	 cmp	 BYTE PTR [eax+13], 0
  0007c	75 16		 jne	 SHORT $LN84@GuildComba
  0007e	66 90		 npad	 2
$LL83@GuildComba:
; File C:\Program Files\Microsoft Visual Studio\2022\Professional\VC\Tools\MSVC\14.44.35207\include\type_traits

; 2380 :         return _Left < _Right;

  00080	39 50 10	 cmp	 DWORD PTR [eax+16], edx
; File C:\Program Files\Microsoft Visual Studio\2022\Professional\VC\Tools\MSVC\14.44.35207\include\xtree

; 1634 :             if (_DEBUG_LT_PRED(_Getcomp(), _Traits::_Kfn(_Trynode->_Myval), _Keyval)) {

  00083	73 05		 jae	 SHORT $LN85@GuildComba

; 1635 :                 _Result._Location._Child = _Tree_child::_Right;
; 1636 :                 _Trynode                 = _Trynode->_Right;

  00085	8b 40 08	 mov	 eax, DWORD PTR [eax+8]

; 1637 :             } else {

  00088	eb 04		 jmp	 SHORT $LN86@GuildComba
$LN85@GuildComba:

; 1638 :                 _Result._Location._Child = _Tree_child::_Left;
; 1639 :                 _Result._Bound           = _Trynode;

  0008a	8b c8		 mov	 ecx, eax

; 1640 :                 _Trynode                 = _Trynode->_Left;

  0008c	8b 00		 mov	 eax, DWORD PTR [eax]
$LN86@GuildComba:

; 1632 :         while (!_Trynode->_Isnil) {

  0008e	80 78 0d 00	 cmp	 BYTE PTR [eax+13], 0
  00092	74 ec		 je	 SHORT $LL83@GuildComba
$LN84@GuildComba:

; 1624 :         return !_Bound->_Isnil && !_DEBUG_LT_PRED(_Getcomp(), _Keyval, _Traits::_Kfn(_Bound->_Myval));

  00094	80 79 0d 00	 cmp	 BYTE PTR [ecx+13], 0
  00098	75 05		 jne	 SHORT $LN80@GuildComba
; File C:\Program Files\Microsoft Visual Studio\2022\Professional\VC\Tools\MSVC\14.44.35207\include\type_traits

; 2380 :         return _Left < _Right;

  0009a	3b 51 10	 cmp	 edx, DWORD PTR [ecx+16]
; File C:\Program Files\Microsoft Visual Studio\2022\Professional\VC\Tools\MSVC\14.44.35207\include\xtree

; 1624 :         return !_Bound->_Isnil && !_DEBUG_LT_PRED(_Getcomp(), _Keyval, _Traits::_Kfn(_Bound->_Myval));

  0009d	73 02		 jae	 SHORT $LN79@GuildComba
$LN80@GuildComba:

; 1389 :         return _Get_scary()->_Myhead;

  0009f	8b cf		 mov	 ecx, edi
$LN79@GuildComba:

; 37   :     _Tree_unchecked_const_iterator(_Nodeptr _Pnode, const _Mytree* _Plist) noexcept : _Ptr(_Pnode) {

  000a1	3b cf		 cmp	 ecx, edi
; File C:\IAGOS\server\v18\Source\Source\_Common\Project.h

; 1436 : 	if( i != m_idPlayerToUserPtr.end() )

  000a3	74 1b		 je	 SHORT $LN5@GuildComba

; 1437 : 		return i->second;

  000a5	8b 41 14	 mov	 eax, DWORD PTR [ecx+20]
; File C:\IAGOS\server\v18\Source\Source\_Common\Obj.h

; 327  : 	return pObj && ( pObj->IsDelete() == FALSE ); 

  000a8	85 c0		 test	 eax, eax
  000aa	74 14		 je	 SHORT $LN5@GuildComba

; 180  : 	BOOL			IsDelete()	{ return (m_dwFlags & OBJ_FLAG_DELETE);  }

  000ac	f6 40 04 01	 test	 BYTE PTR [eax+4], 1

; 327  : 	return pObj && ( pObj->IsDelete() == FALSE ); 

  000b0	75 0e		 jne	 SHORT $LN5@GuildComba
; File C:\IAGOS\server\v18\Source\Source\_Common\GuildCombat1to1.cpp

; 1166 : 					SendNowState( pUser );

  000b2	50		 push	 eax
  000b3	8b cb		 mov	 ecx, ebx
  000b5	e8 00 00 00 00	 call	 ?SendNowState@CGuildCombat1to1Mng@@QAEXPAVCUser@@@Z ; CGuildCombat1to1Mng::SendNowState
  000ba	8b 3d 28 00 00
	00		 mov	 edi, DWORD PTR ?prj@@3VCProject@@A+40
$LN5@GuildComba:
; File C:\Program Files\Microsoft Visual Studio\2022\Professional\VC\Tools\MSVC\14.44.35207\include\xtree

; 50   :         if (_Ptr->_Right->_Isnil) { // climb looking for right subtree

  000c0	8b 46 08	 mov	 eax, DWORD PTR [esi+8]
  000c3	80 78 0d 00	 cmp	 BYTE PTR [eax+13], 0
  000c7	74 1d		 je	 SHORT $LN38@GuildComba

; 51   :             _Nodeptr _Pnode;
; 52   :             while (!(_Pnode = _Ptr->_Parent)->_Isnil && _Ptr == _Pnode->_Right) {

  000c9	8b 46 04	 mov	 eax, DWORD PTR [esi+4]
  000cc	80 78 0d 00	 cmp	 BYTE PTR [eax+13], 0
  000d0	75 10		 jne	 SHORT $LN205@GuildComba
$LL36@GuildComba:
  000d2	3b 70 08	 cmp	 esi, DWORD PTR [eax+8]
  000d5	75 0b		 jne	 SHORT $LN205@GuildComba

; 53   :                 _Ptr = _Pnode; // ==> parent while right subtree

  000d7	8b f0		 mov	 esi, eax
  000d9	8b 40 04	 mov	 eax, DWORD PTR [eax+4]
  000dc	80 78 0d 00	 cmp	 BYTE PTR [eax+13], 0
  000e0	74 f0		 je	 SHORT $LL36@GuildComba
$LN205@GuildComba:

; 54   :             }
; 55   : 
; 56   :             _Ptr = _Pnode; // ==> parent (head if end())

  000e2	8b f0		 mov	 esi, eax

; 57   :         } else {

  000e4	eb 16		 jmp	 SHORT $LN44@GuildComba
$LN38@GuildComba:

; 58   :             _Ptr = _Mytree::_Min(_Ptr->_Right); // ==> smallest of right subtree

  000e6	8b f0		 mov	 esi, eax

; 476  :         while (!_Pnode->_Left->_Isnil) {

  000e8	8b 0e		 mov	 ecx, DWORD PTR [esi]
  000ea	80 79 0d 00	 cmp	 BYTE PTR [ecx+13], 0
  000ee	75 0c		 jne	 SHORT $LN44@GuildComba
$LL43@GuildComba:
  000f0	8b 01		 mov	 eax, DWORD PTR [ecx]

; 477  :             _Pnode = _Pnode->_Left;

  000f2	8b f1		 mov	 esi, ecx
  000f4	8b c8		 mov	 ecx, eax
  000f6	80 78 0d 00	 cmp	 BYTE PTR [eax+13], 0
  000fa	74 f4		 je	 SHORT $LL43@GuildComba
$LN44@GuildComba:

; 237  :         return !(*this == _Right);

  000fc	8b 45 f4	 mov	 eax, DWORD PTR _pGuild$1$[ebp]
  000ff	3b 70 38	 cmp	 esi, DWORD PTR [eax+56]
; File C:\IAGOS\server\v18\Source\Source\_Common\GuildCombat1to1.cpp

; 1162 : 			for( map<u_long, CGuildMember*>::iterator it=pGuild->m_mapPMember.begin(); it!=pGuild->m_mapPMember.end(); it++ )

  00102	0f 85 68 ff ff
	ff		 jne	 $LL7@GuildComba
  00108	8b 7d f8	 mov	 edi, DWORD PTR tv977[ebp]
$LN2@GuildComba:
; File C:\Program Files\Microsoft Visual Studio\2022\Professional\VC\Tools\MSVC\14.44.35207\include\vector

; 1915 :         return static_cast<size_type>(_My_data._Mylast - _My_data._Myfirst);

  0010b	8b 4b 50	 mov	 ecx, DWORD PTR [ebx+80]
  0010e	b8 e9 a2 8b 2e	 mov	 eax, 780903145		; 2e8ba2e9H
  00113	8b 73 4c	 mov	 esi, DWORD PTR [ebx+76]
; File C:\IAGOS\server\v18\Source\Source\_Common\GuildCombat1to1.cpp

; 1157 : 	for( int i=0; i<(int)( m_vecTenderGuild.size() ); i++ )

  00116	83 c7 2c	 add	 edi, 44			; 0000002cH
  00119	ff 45 fc	 inc	 DWORD PTR _i$1$[ebp]
; File C:\Program Files\Microsoft Visual Studio\2022\Professional\VC\Tools\MSVC\14.44.35207\include\vector

; 1915 :         return static_cast<size_type>(_My_data._Mylast - _My_data._Myfirst);

  0011c	2b ce		 sub	 ecx, esi
  0011e	f7 e9		 imul	 ecx
; File C:\IAGOS\server\v18\Source\Source\_Common\GuildCombat1to1.cpp

; 1157 : 	for( int i=0; i<(int)( m_vecTenderGuild.size() ); i++ )

  00120	89 7d f8	 mov	 DWORD PTR tv977[ebp], edi
; File C:\Program Files\Microsoft Visual Studio\2022\Professional\VC\Tools\MSVC\14.44.35207\include\vector

; 1915 :         return static_cast<size_type>(_My_data._Mylast - _My_data._Myfirst);

  00123	c1 fa 03	 sar	 edx, 3
  00126	8b c2		 mov	 eax, edx
  00128	c1 e8 1f	 shr	 eax, 31			; 0000001fH
  0012b	03 c2		 add	 eax, edx
; File C:\IAGOS\server\v18\Source\Source\_Common\GuildCombat1to1.cpp

; 1157 : 	for( int i=0; i<(int)( m_vecTenderGuild.size() ); i++ )

  0012d	39 45 fc	 cmp	 DWORD PTR _i$1$[ebp], eax
  00130	0f 8c 0c ff ff
	ff		 jl	 $LL4@GuildComba
$LN3@GuildComba:
; File C:\Program Files\Microsoft Visual Studio\2022\Professional\VC\Tools\MSVC\14.44.35207\include\vector

; 1812 :         if (_Myfirst == _Mylast) { // already empty, nothing to do

  00136	8b 73 40	 mov	 esi, DWORD PTR [ebx+64]
  00139	8b 7b 44	 mov	 edi, DWORD PTR [ebx+68]
  0013c	3b f7		 cmp	 esi, edi
  0013e	74 15		 je	 SHORT $LN140@GuildComba
$LL147@GuildComba:
; File C:\Program Files\Microsoft Visual Studio\2022\Professional\VC\Tools\MSVC\14.44.35207\include\xmemory

; 741  :         _Ptr->~_Uty();

  00140	8b 06		 mov	 eax, DWORD PTR [esi]
  00142	8b ce		 mov	 ecx, esi
  00144	6a 00		 push	 0
  00146	ff 10		 call	 DWORD PTR [eax]

; 1102 :         for (; _First != _Last; ++_First) {

  00148	83 c6 2c	 add	 esi, 44			; 0000002cH
  0014b	3b f7		 cmp	 esi, edi
  0014d	75 f1		 jne	 SHORT $LL147@GuildComba
; File C:\Program Files\Microsoft Visual Studio\2022\Professional\VC\Tools\MSVC\14.44.35207\include\vector

; 1822 :         _Mylast = _Myfirst;

  0014f	8b 43 40	 mov	 eax, DWORD PTR [ebx+64]
  00152	89 43 44	 mov	 DWORD PTR [ebx+68], eax
$LN140@GuildComba:

; 1812 :         if (_Myfirst == _Mylast) { // already empty, nothing to do

  00155	8b 73 4c	 mov	 esi, DWORD PTR [ebx+76]
  00158	8b 7b 50	 mov	 edi, DWORD PTR [ebx+80]
  0015b	3b f7		 cmp	 esi, edi
  0015d	74 16		 je	 SHORT $LN152@GuildComba
  0015f	90		 npad	 1
$LL159@GuildComba:

; 830  :         _Tidy();

  00160	8d 4e 20	 lea	 ecx, DWORD PTR [esi+32]
  00163	e8 00 00 00 00	 call	 ?_Tidy@?$vector@KV?$allocator@K@std@@@std@@AAEXXZ ; std::vector<unsigned long,std::allocator<unsigned long> >::_Tidy
; File C:\Program Files\Microsoft Visual Studio\2022\Professional\VC\Tools\MSVC\14.44.35207\include\xmemory

; 1102 :         for (; _First != _Last; ++_First) {

  00168	83 c6 2c	 add	 esi, 44			; 0000002cH
  0016b	3b f7		 cmp	 esi, edi
  0016d	75 f1		 jne	 SHORT $LL159@GuildComba
; File C:\Program Files\Microsoft Visual Studio\2022\Professional\VC\Tools\MSVC\14.44.35207\include\vector

; 1822 :         _Mylast = _Myfirst;

  0016f	8b 43 4c	 mov	 eax, DWORD PTR [ebx+76]
  00172	89 43 50	 mov	 DWORD PTR [ebx+80], eax
$LN152@GuildComba:
; File C:\IAGOS\server\v18\Source\Source\_Common\GuildCombat1to1.cpp

; 1173 : 	g_dpDBClient.SendGC1to1StateToDBSrvr();

  00175	b9 00 00 00 00	 mov	 ecx, OFFSET ?g_dpDBClient@@3VCDPDatabaseClient@@A ; g_dpDBClient
  0017a	e8 00 00 00 00	 call	 ?SendGC1to1StateToDBSrvr@CDPDatabaseClient@@QAEXXZ ; CDPDatabaseClient::SendGC1to1StateToDBSrvr
  0017f	5f		 pop	 edi
  00180	5e		 pop	 esi
  00181	5b		 pop	 ebx

; 1174 : }

  00182	8b e5		 mov	 esp, ebp
  00184	5d		 pop	 ebp
  00185	c3		 ret	 0
?GuildCombat1to1AllClose@CGuildCombat1to1Mng@@QAEXXZ ENDP ; CGuildCombat1to1Mng::GuildCombat1to1AllClose
_TEXT	ENDS
; Function compile flags: /Ogtp
; File C:\IAGOS\server\v18\Source\Source\_Common\GuildCombat1to1.cpp
; File C:\Program Files\Microsoft Visual Studio\2022\Professional\VC\Tools\MSVC\14.44.35207\include\vector
; File C:\IAGOS\server\v18\Source\Source\_Common\GuildCombat1to1.cpp
; File C:\Program Files\Microsoft Visual Studio\2022\Professional\VC\Tools\MSVC\14.44.35207\include\vector
; File C:\IAGOS\server\v18\Source\Source\_Common\GuildCombat1to1.cpp
; File C:\Program Files\Microsoft Visual Studio\2022\Professional\VC\Tools\MSVC\14.44.35207\include\vector
; File C:\Program Files\Microsoft Visual Studio\2022\Professional\VC\Tools\MSVC\14.44.35207\include\xmemory
; File C:\Program Files\Microsoft Visual Studio\2022\Professional\VC\Tools\MSVC\14.44.35207\include\vector
; File C:\IAGOS\server\v18\Source\Source\_Common\GuildCombat1to1.cpp
; File C:\Program Files\Microsoft Visual Studio\2022\Professional\VC\Tools\MSVC\14.44.35207\atlmfc\include\afxstr.h
; File C:\Program Files\Microsoft Visual Studio\2022\Professional\VC\Tools\MSVC\14.44.35207\atlmfc\include\atlsimpstr.h
; File C:\IAGOS\server\v18\Source\Source\_Common\Project.h
; File C:\IAGOS\server\v18\Source\Source\_Common\GuildCombat1to1.cpp
; File C:\IAGOS\server\v18\Source\Source\_Common\Project.h
; File C:\IAGOS\server\v18\Source\Source\_Common\data.h
; File C:\IAGOS\server\v18\Source\Source\_Common\Project.h
; File C:\IAGOS\server\v18\Source\Source\_Common\GuildCombat1to1.cpp
; File C:\Program Files\Microsoft Visual Studio\2022\Professional\VC\Tools\MSVC\14.44.35207\atlmfc\include\atlsimpstr.h
; File C:\IAGOS\server\v18\Source\Source\_Common\GuildCombat1to1.cpp
; File C:\Program Files\Microsoft Visual Studio\2022\Professional\VC\Tools\MSVC\14.44.35207\atlmfc\include\atlsimpstr.h
; File C:\IAGOS\server\v18\Source\Source\_Common\GuildCombat1to1.cpp
; File C:\IAGOS\server\v18\Source\Source\_Common\Project.h
; File C:\IAGOS\server\v18\Source\Source\_Common\data.h
; File C:\IAGOS\server\v18\Source\Source\_Common\Project.h
; File C:\IAGOS\server\v18\Source\Source\_Common\GuildCombat1to1.cpp
; File C:\IAGOS\server\v18\Source\Source\_Common\Project.h
; File C:\IAGOS\server\v18\Source\Source\_Common\data.h
; File C:\IAGOS\server\v18\Source\Source\_Common\Project.h
; File C:\IAGOS\server\v18\Source\Source\_Common\GuildCombat1to1.cpp
; File C:\Program Files\Microsoft Visual Studio\2022\Professional\VC\Tools\MSVC\14.44.35207\include\vector
; File C:\IAGOS\server\v18\Source\Source\_Common\GuildCombat1to1.cpp
; File C:\Program Files\Microsoft Visual Studio\2022\Professional\VC\Tools\MSVC\14.44.35207\include\vector
; File C:\IAGOS\server\v18\Source\Source\_Common\GuildCombat1to1.cpp
; File C:\Program Files\Microsoft Visual Studio\2022\Professional\VC\Tools\MSVC\14.44.35207\include\xtree
; File C:\IAGOS\server\v18\Source\Source\_Common\GuildCombat1to1.cpp
; File C:\Program Files\Microsoft Visual Studio\2022\Professional\VC\Tools\MSVC\14.44.35207\include\xtree
; File C:\Program Files\Microsoft Visual Studio\2022\Professional\VC\Tools\MSVC\14.44.35207\include\type_traits
; File C:\Program Files\Microsoft Visual Studio\2022\Professional\VC\Tools\MSVC\14.44.35207\include\xtree
; File C:\Program Files\Microsoft Visual Studio\2022\Professional\VC\Tools\MSVC\14.44.35207\include\type_traits
; File C:\Program Files\Microsoft Visual Studio\2022\Professional\VC\Tools\MSVC\14.44.35207\include\xtree
; File C:\IAGOS\server\v18\Source\Source\_Common\Project.h
; File C:\IAGOS\server\v18\Source\Source\_Common\Obj.h
; File C:\IAGOS\server\v18\Source\Source\_Common\GuildCombat1to1.cpp
; File C:\Program Files\Microsoft Visual Studio\2022\Professional\VC\Tools\MSVC\14.44.35207\include\vector
; File C:\Program Files\Microsoft Visual Studio\2022\Professional\VC\Tools\MSVC\14.44.35207\include\xmemory
; File C:\Program Files\Microsoft Visual Studio\2022\Professional\VC\Tools\MSVC\14.44.35207\include\vector
; File C:\Program Files\Microsoft Visual Studio\2022\Professional\VC\Tools\MSVC\14.44.35207\include\xutility
; File C:\Program Files\Microsoft Visual Studio\2022\Professional\VC\Tools\MSVC\14.44.35207\include\vector
; File C:\Program Files\Microsoft Visual Studio\2022\Professional\VC\Tools\MSVC\14.44.35207\include\xutility
; File C:\Program Files\Microsoft Visual Studio\2022\Professional\VC\Tools\MSVC\14.44.35207\include\vector
; File C:\IAGOS\server\v18\Source\Source\_Common\GuildCombat1to1.cpp
; File C:\Program Files\Microsoft Visual Studio\2022\Professional\VC\Tools\MSVC\14.44.35207\include\vector
; File C:\IAGOS\server\v18\Source\Source\_Common\GuildCombat1to1.cpp
; File C:\Program Files\Microsoft Visual Studio\2022\Professional\VC\Tools\MSVC\14.44.35207\include\vector
; File C:\IAGOS\server\v18\Source\Source\_Common\GuildCombat1to1.cpp
; File C:\Program Files\Microsoft Visual Studio\2022\Professional\VC\Tools\MSVC\14.44.35207\include\xtree
; File C:\IAGOS\server\v18\Source\Source\_Common\GuildCombat1to1.cpp
; File C:\Program Files\Microsoft Visual Studio\2022\Professional\VC\Tools\MSVC\14.44.35207\include\xtree
; File C:\Program Files\Microsoft Visual Studio\2022\Professional\VC\Tools\MSVC\14.44.35207\include\type_traits
; File C:\Program Files\Microsoft Visual Studio\2022\Professional\VC\Tools\MSVC\14.44.35207\include\xtree
; File C:\Program Files\Microsoft Visual Studio\2022\Professional\VC\Tools\MSVC\14.44.35207\include\type_traits
; File C:\Program Files\Microsoft Visual Studio\2022\Professional\VC\Tools\MSVC\14.44.35207\include\xtree
; File C:\IAGOS\server\v18\Source\Source\_Common\Project.h
; File C:\IAGOS\server\v18\Source\Source\_Common\Obj.h
; File C:\IAGOS\server\v18\Source\Source\_Common\GuildCombat1to1.cpp
; File C:\Program Files\Microsoft Visual Studio\2022\Professional\VC\Tools\MSVC\14.44.35207\include\vector
; File C:\Program Files\Microsoft Visual Studio\2022\Professional\VC\Tools\MSVC\14.44.35207\include\xmemory
; File C:\Program Files\Microsoft Visual Studio\2022\Professional\VC\Tools\MSVC\14.44.35207\include\vector
; File C:\IAGOS\server\v18\Source\Source\_Common\GuildCombat1to1.cpp
; File C:\Program Files\Microsoft Visual Studio\2022\Professional\VC\Tools\MSVC\14.44.35207\include\vector
; File C:\IAGOS\server\v18\Source\Source\_Common\GuildCombat1to1.cpp
; File C:\Program Files\Microsoft Visual Studio\2022\Professional\VC\Tools\MSVC\14.44.35207\include\xtree
; File C:\IAGOS\server\v18\Source\Source\_Common\GuildCombat1to1.cpp
; File C:\Program Files\Microsoft Visual Studio\2022\Professional\VC\Tools\MSVC\14.44.35207\include\xtree
; File C:\IAGOS\server\v18\Source\Source\_Common\GuildCombat1to1.cpp
; File C:\Program Files\Microsoft Visual Studio\2022\Professional\VC\Tools\MSVC\14.44.35207\include\xtree
; File C:\Program Files\Microsoft Visual Studio\2022\Professional\VC\Tools\MSVC\14.44.35207\include\type_traits
; File C:\Program Files\Microsoft Visual Studio\2022\Professional\VC\Tools\MSVC\14.44.35207\include\xtree
; File C:\Program Files\Microsoft Visual Studio\2022\Professional\VC\Tools\MSVC\14.44.35207\include\type_traits
; File C:\Program Files\Microsoft Visual Studio\2022\Professional\VC\Tools\MSVC\14.44.35207\include\xtree
; File C:\IAGOS\server\v18\Source\Source\_Common\Project.h
; File C:\IAGOS\server\v18\Source\Source\_Common\Obj.h
; File C:\IAGOS\server\v18\Source\Source\_Common\GuildCombat1to1.cpp
; File C:\Program Files\Microsoft Visual Studio\2022\Professional\VC\Tools\MSVC\14.44.35207\include\xtree
; File C:\IAGOS\server\v18\Source\Source\_Common\GuildCombat1to1.cpp
; File C:\Program Files\Microsoft Visual Studio\2022\Professional\VC\Tools\MSVC\14.44.35207\include\vector
; File C:\IAGOS\server\v18\Source\Source\_Common\GuildCombat1to1.cpp
; File C:\Program Files\Microsoft Visual Studio\2022\Professional\VC\Tools\MSVC\14.44.35207\atlmfc\include\atlsimpstr.h
; File C:\IAGOS\server\v18\Source\Source\_Common\GuildCombat1to1.cpp
;	COMDAT ?GuildCombat1to1Open@CGuildCombat1to1Mng@@QAEXH@Z
_TEXT	SEGMENT
_nCount$1$ = -28					; size = 4
_pGuild$1$ = -28					; size = 4
__Last$1$ = -24						; size = 4
tv3198 = -20						; size = 4
__First$1$ = -20					; size = 4
_this$1$ = -16						; size = 4
__$EHRec$ = -12						; size = 12
_bGMText$ = 8						; size = 4
_strTemp$5 = 8						; size = 4
$T6 = 8							; size = 4
_it$2$ = 8						; size = 4
_it$4$ = 8						; size = 4
?GuildCombat1to1Open@CGuildCombat1to1Mng@@QAEXH@Z PROC	; CGuildCombat1to1Mng::GuildCombat1to1Open, COMDAT
; _this$ = ecx

; 1032 : {

  00000	55		 push	 ebp
  00001	8b ec		 mov	 ebp, esp
  00003	6a ff		 push	 -1
  00005	68 00 00 00 00	 push	 __ehhandler$?GuildCombat1to1Open@CGuildCombat1to1Mng@@QAEXH@Z
  0000a	64 a1 00 00 00
	00		 mov	 eax, DWORD PTR fs:0
  00010	50		 push	 eax
  00011	83 ec 10	 sub	 esp, 16			; 00000010H
  00014	53		 push	 ebx
  00015	56		 push	 esi
  00016	57		 push	 edi
  00017	a1 00 00 00 00	 mov	 eax, DWORD PTR ___security_cookie
  0001c	33 c5		 xor	 eax, ebp
  0001e	50		 push	 eax
  0001f	8d 45 f4	 lea	 eax, DWORD PTR __$EHRec$[ebp]
  00022	64 a3 00 00 00
	00		 mov	 DWORD PTR fs:0, eax
  00028	8b d9		 mov	 ebx, ecx
  0002a	89 5d f0	 mov	 DWORD PTR _this$1$[ebp], ebx

; 1033 : 	if( !g_eLocal.GetState( EVE_GUILDCOMBAT1TO1 ) )

  0002d	6a 16		 push	 22			; 00000016H
  0002f	b9 00 00 00 00	 mov	 ecx, OFFSET ?g_eLocal@@3VCFlyffEvent@@A ; g_eLocal
  00034	e8 00 00 00 00	 call	 ?GetState@CFlyffEvent@@QAEEH@Z ; CFlyffEvent::GetState
  00039	84 c0		 test	 al, al
  0003b	0f 84 36 05 00
	00		 je	 $LN1@GuildComba

; 1034 : 		return;
; 1035 : 	
; 1036 : 	vector<__GC1TO1TENDER>::iterator it;
; 1037 : 	if( !bGMText )

  00041	83 7d 08 00	 cmp	 DWORD PTR _bGMText$[ebp], 0
  00045	75 43		 jne	 SHORT $LN312@GuildComba
; File C:\Program Files\Microsoft Visual Studio\2022\Professional\VC\Tools\MSVC\14.44.35207\include\vector

; 46   :     _CONSTEXPR20 _Vector_const_iterator(_Tptr _Parg, const _Container_base* _Pvector) noexcept : _Ptr(_Parg) {

  00047	8b 73 58	 mov	 esi, DWORD PTR [ebx+88]
  0004a	8b 7b 5c	 mov	 edi, DWORD PTR [ebx+92]

; 176  :         return !(*this == _Right);

  0004d	3b f7		 cmp	 esi, edi
; File C:\IAGOS\server\v18\Source\Source\_Common\GuildCombat1to1.cpp

; 1039 : 		for( it=m_vecTenderFailGuild.begin(); it!=m_vecTenderFailGuild.end(); it++ )

  0004f	74 1d		 je	 SHORT $LN3@GuildComba
$LL4@GuildComba:

; 1040 : 		{
; 1041 : 			// ŔĚŔü 1:1±ćµĺ´ëŔüżˇ ŔÔÂű ˝ÇĆĐ ±ćµĺ°ˇ ˝ĹĂ»±ÝŔ» Ľö·ÉÇĎÁö ľĘľŇŔ» °ćżě
; 1042 : 			g_dpDBClient.SendGC1to1Tender( 'U', (*it).ulGuildId, (*it).nPenya, 'N' );

  00051	6a 4e		 push	 78			; 0000004eH
  00053	ff 76 04	 push	 DWORD PTR [esi+4]
  00056	b9 00 00 00 00	 mov	 ecx, OFFSET ?g_dpDBClient@@3VCDPDatabaseClient@@A ; g_dpDBClient
  0005b	ff 36		 push	 DWORD PTR [esi]
  0005d	6a 55		 push	 85			; 00000055H
  0005f	e8 00 00 00 00	 call	 ?SendGC1to1Tender@CDPDatabaseClient@@QAEXDKHD@Z ; CDPDatabaseClient::SendGC1to1Tender
; File C:\Program Files\Microsoft Visual Studio\2022\Professional\VC\Tools\MSVC\14.44.35207\include\vector

; 46   :     _CONSTEXPR20 _Vector_const_iterator(_Tptr _Parg, const _Container_base* _Pvector) noexcept : _Ptr(_Parg) {

  00064	8b 7b 5c	 mov	 edi, DWORD PTR [ebx+92]

; 82   :         ++_Ptr;

  00067	83 c6 2c	 add	 esi, 44			; 0000002cH

; 176  :         return !(*this == _Right);

  0006a	3b f7		 cmp	 esi, edi
; File C:\IAGOS\server\v18\Source\Source\_Common\GuildCombat1to1.cpp

; 1039 : 		for( it=m_vecTenderFailGuild.begin(); it!=m_vecTenderFailGuild.end(); it++ )

  0006c	75 e3		 jne	 SHORT $LL4@GuildComba
$LN3@GuildComba:
; File C:\Program Files\Microsoft Visual Studio\2022\Professional\VC\Tools\MSVC\14.44.35207\include\vector

; 1812 :         if (_Myfirst == _Mylast) { // already empty, nothing to do

  0006e	8b 73 58	 mov	 esi, DWORD PTR [ebx+88]
  00071	3b f7		 cmp	 esi, edi
  00073	74 15		 je	 SHORT $LN312@GuildComba
$LL319@GuildComba:

; 830  :         _Tidy();

  00075	8d 4e 20	 lea	 ecx, DWORD PTR [esi+32]
  00078	e8 00 00 00 00	 call	 ?_Tidy@?$vector@KV?$allocator@K@std@@@std@@AAEXXZ ; std::vector<unsigned long,std::allocator<unsigned long> >::_Tidy
; File C:\Program Files\Microsoft Visual Studio\2022\Professional\VC\Tools\MSVC\14.44.35207\include\xmemory

; 1102 :         for (; _First != _Last; ++_First) {

  0007d	83 c6 2c	 add	 esi, 44			; 0000002cH
  00080	3b f7		 cmp	 esi, edi
  00082	75 f1		 jne	 SHORT $LL319@GuildComba
; File C:\Program Files\Microsoft Visual Studio\2022\Professional\VC\Tools\MSVC\14.44.35207\include\vector

; 1822 :         _Mylast = _Myfirst;

  00084	8b 43 58	 mov	 eax, DWORD PTR [ebx+88]
  00087	89 43 5c	 mov	 DWORD PTR [ebx+92], eax
$LN312@GuildComba:

; 1915 :         return static_cast<size_type>(_My_data._Mylast - _My_data._Myfirst);

  0008a	8b 4b 50	 mov	 ecx, DWORD PTR [ebx+80]
  0008d	b8 e9 a2 8b 2e	 mov	 eax, 780903145		; 2e8ba2e9H
  00092	2b 4b 4c	 sub	 ecx, DWORD PTR [ebx+76]
  00095	f7 e9		 imul	 ecx
  00097	c1 fa 03	 sar	 edx, 3
  0009a	8b c2		 mov	 eax, edx
  0009c	c1 e8 1f	 shr	 eax, 31			; 0000001fH
  0009f	03 c2		 add	 eax, edx
; File C:\IAGOS\server\v18\Source\Source\_Common\GuildCombat1to1.cpp

; 1048 : 	if( (int)( m_vecTenderGuild.size() ) < m_nMinJoinGuild )

  000a1	3b 43 34	 cmp	 eax, DWORD PTR [ebx+52]
  000a4	0f 8d d0 00 00
	00		 jge	 $LN496@GuildComba
; File C:\Program Files\Microsoft Visual Studio\2022\Professional\VC\Tools\MSVC\14.44.35207\atlmfc\include\afxstr.h

; 56   : 		return( AfxGetStringManager() );

  000aa	e8 00 00 00 00	 call	 ?AfxGetStringManager@@YGPAUIAtlStringMgr@ATL@@XZ ; AfxGetStringManager
  000af	8b c8		 mov	 ecx, eax
; File C:\Program Files\Microsoft Visual Studio\2022\Professional\VC\Tools\MSVC\14.44.35207\atlmfc\include\atlsimpstr.h

; 209  : 		ATLENSURE( pStringMgr != NULL );

  000b1	85 c9		 test	 ecx, ecx
  000b3	0f 84 d2 04 00
	00		 je	 $LN621@GuildComba

; 210  : 		CStringData* pData = pStringMgr->GetNilString();

  000b9	8b 01		 mov	 eax, DWORD PTR [ecx]
  000bb	ff 50 0c	 call	 DWORD PTR [eax+12]

; 211  : 		Attach( pData );

  000be	83 c0 10	 add	 eax, 16			; 00000010H
  000c1	89 45 08	 mov	 DWORD PTR _strTemp$5[ebp], eax
; File C:\IAGOS\server\v18\Source\Source\_Common\Project.h

; 1427 : 	VERIFY_RANGE( (int)( dwIndex ), 0, m_colorText.GetSize(), "GetText range_error", "error" );

  000c4	a1 ac 02 00 00	 mov	 eax, DWORD PTR ?prj@@3VCProject@@A+684
; File C:\IAGOS\server\v18\Source\Source\_Common\GuildCombat1to1.cpp

; 1051 : 		CString strTemp;

  000c9	c7 45 fc 00 00
	00 00		 mov	 DWORD PTR __$EHRec$[ebp+8], 0
; File C:\IAGOS\server\v18\Source\Source\_Common\Project.h

; 1427 : 	VERIFY_RANGE( (int)( dwIndex ), 0, m_colorText.GetSize(), "GetText range_error", "error" );

  000d0	3d 69 0d 00 00	 cmp	 eax, 3433		; 00000d69H
  000d5	7f 21		 jg	 SHORT $LN521@GuildComba

; 579  : 	LPCTSTR szErr = Error( _T( "%s min:%d, max:%d, index:%d" ), szMsg, nMin, nMax, nIndex ); 

  000d7	68 69 0d 00 00	 push	 3433			; 00000d69H
  000dc	50		 push	 eax
  000dd	6a 00		 push	 0
  000df	68 00 00 00 00	 push	 OFFSET ??_C@_0BE@OHDBLHOM@GetText?5range_error@
  000e4	68 00 00 00 00	 push	 OFFSET ??_C@_0BM@HMFGHCP@?$CFs?5min?3?$CFd?0?5max?3?$CFd?0?5index?3?$CFd@
  000e9	e8 00 00 00 00	 call	 ?Error@@YAPBDPBDZZ	; Error
  000ee	83 c4 14	 add	 esp, 20			; 00000014H

; 1427 : 	VERIFY_RANGE( (int)( dwIndex ), 0, m_colorText.GetSize(), "GetText range_error", "error" );

  000f1	b8 00 00 00 00	 mov	 eax, OFFSET ??_C@_05KKCIMGE@error@
  000f6	eb 1b		 jmp	 SHORT $LN520@GuildComba
$LN521@GuildComba:
; File C:\IAGOS\server\v18\Source\Source\_Common\data.h

; 270  : 	if( dwIndex >= (DWORD)m_nMaxIndex )

  000f8	76 14		 jbe	 SHORT $LN607@GuildComba

; 271  : 		return NULL;
; 272  : 	return (T*) m_apOffset[ dwIndex ];

  000fa	a1 9c 02 00 00	 mov	 eax, DWORD PTR ?prj@@3VCProject@@A+668
  000ff	8b 80 a4 35 00
	00		 mov	 eax, DWORD PTR [eax+13732]
; File C:\IAGOS\server\v18\Source\Source\_Common\Project.h

; 1428 : 	if( m_colorText.GetAt( dwIndex ) == NULL )

  00105	85 c0		 test	 eax, eax
  00107	74 05		 je	 SHORT $LN607@GuildComba

; 1430 : 	return m_colorText.GetAt( dwIndex )->lpszData; 

  00109	8b 40 04	 mov	 eax, DWORD PTR [eax+4]
  0010c	eb 05		 jmp	 SHORT $LN520@GuildComba
$LN607@GuildComba:

; 1429 : 		return "";

  0010e	b8 00 00 00 00	 mov	 eax, OFFSET ??_C@_00CNPNBAHC@@
$LN520@GuildComba:
; File C:\IAGOS\server\v18\Source\Source\_Common\GuildCombat1to1.cpp

; 1052 : 		strTemp.Format( prj.GetText( TID_GAME_GUILDCOMBAT1TO1_NOGAME ), m_nMinJoinGuild );

  00113	ff 73 34	 push	 DWORD PTR [ebx+52]
  00116	50		 push	 eax
  00117	8d 45 08	 lea	 eax, DWORD PTR _strTemp$5[ebp]
  0011a	50		 push	 eax
  0011b	e8 00 00 00 00	 call	 ?Format@?$CStringT@DV?$StrTraitMFC@DV?$ChTraitsCRT@D@ATL@@@@@ATL@@QAAXPBDZZ ; ATL::CStringT<char,StrTraitMFC<char,ATL::ChTraitsCRT<char> > >::Format

; 1053 : 		g_DPCoreClient.SendCaption( strTemp );	

  00120	8b 75 08	 mov	 esi, DWORD PTR _strTemp$5[ebp]
  00123	83 c4 0c	 add	 esp, 12			; 0000000cH
  00126	b9 00 00 00 00	 mov	 ecx, OFFSET ?g_DPCoreClient@@3VCDPCoreClient@@A ; g_DPCoreClient
  0012b	6a 00		 push	 0
  0012d	6a 00		 push	 0
  0012f	56		 push	 esi
  00130	e8 00 00 00 00	 call	 ?SendCaption@CDPCoreClient@@QAEXPBDKH@Z ; CDPCoreClient::SendCaption

; 1054 : 		ClearTime();

  00135	8b cb		 mov	 ecx, ebx
  00137	e8 00 00 00 00	 call	 ?ClearTime@CGuildCombat1to1Mng@@QAEXXZ ; CGuildCombat1to1Mng::ClearTime

; 1055 : 		m_nState = GC1TO1_CLOSE;

  0013c	c7 43 04 00 00
	00 00		 mov	 DWORD PTR [ebx+4], 0
; File C:\Program Files\Microsoft Visual Studio\2022\Professional\VC\Tools\MSVC\14.44.35207\atlmfc\include\atlsimpstr.h

; 804  : 		return( reinterpret_cast< CStringData* >( m_pszData )-1 );

  00143	83 c6 f0	 add	 esi, -16		; fffffff0H
; File C:\IAGOS\server\v18\Source\Source\_Common\GuildCombat1to1.cpp

; 1056 : 		return;

  00146	c7 45 fc ff ff
	ff ff		 mov	 DWORD PTR __$EHRec$[ebp+8], -1
; File C:\Program Files\Microsoft Visual Studio\2022\Professional\VC\Tools\MSVC\14.44.35207\atlmfc\include\atlsimpstr.h

; 92   : 		if( _InterlockedDecrement( &nRefs ) <= 0 )

  0014d	83 c8 ff	 or	 eax, -1
  00150	f0 0f c1 46 0c	 lock	  xadd	 DWORD PTR [esi+12], eax
  00155	48		 dec	 eax
  00156	85 c0		 test	 eax, eax
  00158	0f 8f 19 04 00
	00		 jg	 $LN1@GuildComba

; 93   : 		{
; 94   : 			pStringMgr->Free( this );

  0015e	8b 0e		 mov	 ecx, DWORD PTR [esi]
  00160	56		 push	 esi
  00161	8b 01		 mov	 eax, DWORD PTR [ecx]
  00163	ff 50 04	 call	 DWORD PTR [eax+4]
; File C:\IAGOS\server\v18\Source\Source\_Common\GuildCombat1to1.cpp

; 1124 : }

  00166	8b 4d f4	 mov	 ecx, DWORD PTR __$EHRec$[ebp]
  00169	64 89 0d 00 00
	00 00		 mov	 DWORD PTR fs:0, ecx
  00170	59		 pop	 ecx
  00171	5f		 pop	 edi
  00172	5e		 pop	 esi
  00173	5b		 pop	 ebx
  00174	8b e5		 mov	 esp, ebp
  00176	5d		 pop	 ebp
  00177	c2 04 00	 ret	 4
$LN496@GuildComba:
; File C:\IAGOS\server\v18\Source\Source\_Common\Project.h

; 1427 : 	VERIFY_RANGE( (int)( dwIndex ), 0, m_colorText.GetSize(), "GetText range_error", "error" );

  0017a	a1 ac 02 00 00	 mov	 eax, DWORD PTR ?prj@@3VCProject@@A+684
  0017f	3d 6a 0d 00 00	 cmp	 eax, 3434		; 00000d6aH
  00184	7f 21		 jg	 SHORT $LN494@GuildComba

; 579  : 	LPCTSTR szErr = Error( _T( "%s min:%d, max:%d, index:%d" ), szMsg, nMin, nMax, nIndex ); 

  00186	68 6a 0d 00 00	 push	 3434			; 00000d6aH
  0018b	50		 push	 eax
  0018c	6a 00		 push	 0
  0018e	68 00 00 00 00	 push	 OFFSET ??_C@_0BE@OHDBLHOM@GetText?5range_error@
  00193	68 00 00 00 00	 push	 OFFSET ??_C@_0BM@HMFGHCP@?$CFs?5min?3?$CFd?0?5max?3?$CFd?0?5index?3?$CFd@
  00198	e8 00 00 00 00	 call	 ?Error@@YAPBDPBDZZ	; Error
  0019d	83 c4 14	 add	 esp, 20			; 00000014H

; 1427 : 	VERIFY_RANGE( (int)( dwIndex ), 0, m_colorText.GetSize(), "GetText range_error", "error" );

  001a0	b8 00 00 00 00	 mov	 eax, OFFSET ??_C@_05KKCIMGE@error@
  001a5	eb 1b		 jmp	 SHORT $LN493@GuildComba
$LN494@GuildComba:
; File C:\IAGOS\server\v18\Source\Source\_Common\data.h

; 270  : 	if( dwIndex >= (DWORD)m_nMaxIndex )

  001a7	76 14		 jbe	 SHORT $LN608@GuildComba

; 271  : 		return NULL;
; 272  : 	return (T*) m_apOffset[ dwIndex ];

  001a9	a1 9c 02 00 00	 mov	 eax, DWORD PTR ?prj@@3VCProject@@A+668
  001ae	8b 80 a8 35 00
	00		 mov	 eax, DWORD PTR [eax+13736]
; File C:\IAGOS\server\v18\Source\Source\_Common\Project.h

; 1428 : 	if( m_colorText.GetAt( dwIndex ) == NULL )

  001b4	85 c0		 test	 eax, eax
  001b6	74 05		 je	 SHORT $LN608@GuildComba

; 1430 : 	return m_colorText.GetAt( dwIndex )->lpszData; 

  001b8	8b 40 04	 mov	 eax, DWORD PTR [eax+4]
  001bb	eb 05		 jmp	 SHORT $LN493@GuildComba
$LN608@GuildComba:

; 1429 : 		return "";

  001bd	b8 00 00 00 00	 mov	 eax, OFFSET ??_C@_00CNPNBAHC@@
$LN493@GuildComba:
; File C:\IAGOS\server\v18\Source\Source\_Common\GuildCombat1to1.cpp

; 1060 : 	g_DPCoreClient.SendCaption( prj.GetText( TID_GAME_GUILDCOMBAT1TO1_OPEN ) );

  001c2	6a 00		 push	 0
  001c4	6a 00		 push	 0
  001c6	50		 push	 eax
  001c7	b9 00 00 00 00	 mov	 ecx, OFFSET ?g_DPCoreClient@@3VCDPCoreClient@@A ; g_DPCoreClient
  001cc	e8 00 00 00 00	 call	 ?SendCaption@CDPCoreClient@@QAEXPBDKH@Z ; CDPCoreClient::SendCaption
; File C:\IAGOS\server\v18\Source\Source\_Common\Project.h

; 1427 : 	VERIFY_RANGE( (int)( dwIndex ), 0, m_colorText.GetSize(), "GetText range_error", "error" );

  001d1	a1 ac 02 00 00	 mov	 eax, DWORD PTR ?prj@@3VCProject@@A+684
  001d6	3d 6b 0d 00 00	 cmp	 eax, 3435		; 00000d6bH
  001db	7f 21		 jg	 SHORT $LN478@GuildComba

; 579  : 	LPCTSTR szErr = Error( _T( "%s min:%d, max:%d, index:%d" ), szMsg, nMin, nMax, nIndex ); 

  001dd	68 6b 0d 00 00	 push	 3435			; 00000d6bH
  001e2	50		 push	 eax
  001e3	6a 00		 push	 0
  001e5	68 00 00 00 00	 push	 OFFSET ??_C@_0BE@OHDBLHOM@GetText?5range_error@
  001ea	68 00 00 00 00	 push	 OFFSET ??_C@_0BM@HMFGHCP@?$CFs?5min?3?$CFd?0?5max?3?$CFd?0?5index?3?$CFd@
  001ef	e8 00 00 00 00	 call	 ?Error@@YAPBDPBDZZ	; Error
  001f4	83 c4 14	 add	 esp, 20			; 00000014H

; 1427 : 	VERIFY_RANGE( (int)( dwIndex ), 0, m_colorText.GetSize(), "GetText range_error", "error" );

  001f7	b8 00 00 00 00	 mov	 eax, OFFSET ??_C@_05KKCIMGE@error@
  001fc	eb 1b		 jmp	 SHORT $LN477@GuildComba
$LN478@GuildComba:
; File C:\IAGOS\server\v18\Source\Source\_Common\data.h

; 270  : 	if( dwIndex >= (DWORD)m_nMaxIndex )

  001fe	76 14		 jbe	 SHORT $LN609@GuildComba

; 271  : 		return NULL;
; 272  : 	return (T*) m_apOffset[ dwIndex ];

  00200	a1 9c 02 00 00	 mov	 eax, DWORD PTR ?prj@@3VCProject@@A+668
  00205	8b 80 ac 35 00
	00		 mov	 eax, DWORD PTR [eax+13740]
; File C:\IAGOS\server\v18\Source\Source\_Common\Project.h

; 1428 : 	if( m_colorText.GetAt( dwIndex ) == NULL )

  0020b	85 c0		 test	 eax, eax
  0020d	74 05		 je	 SHORT $LN609@GuildComba

; 1430 : 	return m_colorText.GetAt( dwIndex )->lpszData; 

  0020f	8b 40 04	 mov	 eax, DWORD PTR [eax+4]
  00212	eb 05		 jmp	 SHORT $LN477@GuildComba
$LN609@GuildComba:

; 1429 : 		return "";

  00214	b8 00 00 00 00	 mov	 eax, OFFSET ??_C@_00CNPNBAHC@@
$LN477@GuildComba:
; File C:\IAGOS\server\v18\Source\Source\_Common\GuildCombat1to1.cpp

; 1061 : 	g_DPCoreClient.SendCaption( prj.GetText( TID_GAME_GUILDCOMBAT1TO1_LINEUP ) );

  00219	6a 00		 push	 0
  0021b	6a 00		 push	 0
  0021d	50		 push	 eax
  0021e	b9 00 00 00 00	 mov	 ecx, OFFSET ?g_DPCoreClient@@3VCDPCoreClient@@A ; g_DPCoreClient
  00223	e8 00 00 00 00	 call	 ?SendCaption@CDPCoreClient@@QAEXPBDKH@Z ; CDPCoreClient::SendCaption

; 1062 : 	
; 1063 : 	// Âü°ˇŔÚ ±¸Ľş ˝Ă°Ł ĽłÁ¤
; 1064 : 	m_nState = GC1TO1_OPEN;
; 1065 : 	m_nWaitTime = (int)m_Lua.GetGlobalNumber( "MemberLineUpTime" );

  00228	68 00 00 00 00	 push	 OFFSET ??_C@_0BB@GGCDBPMB@MemberLineUpTime@
  0022d	8d 4b 20	 lea	 ecx, DWORD PTR [ebx+32]
  00230	c7 43 04 01 00
	00 00		 mov	 DWORD PTR [ebx+4], 1
  00237	e8 00 00 00 00	 call	 ?GetGlobalNumber@CLuaBase@@QAENPAD@Z ; CLuaBase::GetGlobalNumber
  0023c	e8 00 00 00 00	 call	 __ftol2_sse
  00241	89 43 18	 mov	 DWORD PTR [ebx+24], eax

; 1066 : 	m_dwTime = GetTickCount();	

  00244	ff 15 00 00 00
	00		 call	 DWORD PTR __imp__GetTickCount@0
  0024a	89 43 1c	 mov	 DWORD PTR [ebx+28], eax

; 1067 : 
; 1068 : 	// ŔÔÂű ĽřŔ§żˇ µéÁö ¸řÇŃ ±ćµĺ Á¦°Ĺ
; 1069 : 	int nCount = 0;

  0024d	33 c0		 xor	 eax, eax
; File C:\Program Files\Microsoft Visual Studio\2022\Professional\VC\Tools\MSVC\14.44.35207\include\vector

; 46   :     _CONSTEXPR20 _Vector_const_iterator(_Tptr _Parg, const _Container_base* _Pvector) noexcept : _Ptr(_Parg) {

  0024f	8b 73 4c	 mov	 esi, DWORD PTR [ebx+76]
  00252	8b 7b 50	 mov	 edi, DWORD PTR [ebx+80]
  00255	89 75 08	 mov	 DWORD PTR _it$2$[ebp], esi

; 176  :         return !(*this == _Right);

  00258	3b f7		 cmp	 esi, edi
; File C:\IAGOS\server\v18\Source\Source\_Common\GuildCombat1to1.cpp

; 1070 : 	for( it=m_vecTenderGuild.begin(); it!=m_vecTenderGuild.end(); )

  0025a	0f 84 5b 01 00
	00		 je	 $LN6@GuildComba
$LL7@GuildComba:

; 1071 : 	{
; 1072 : 		nCount++;

  00260	40		 inc	 eax
  00261	89 45 e4	 mov	 DWORD PTR _nCount$1$[ebp], eax

; 1073 : 		if( nCount <= m_nMaxJoinGuild )

  00264	3b 43 30	 cmp	 eax, DWORD PTR [ebx+48]
  00267	7f 0b		 jg	 SHORT $LN17@GuildComba
; File C:\Program Files\Microsoft Visual Studio\2022\Professional\VC\Tools\MSVC\14.44.35207\include\vector

; 82   :         ++_Ptr;

  00269	83 c6 2c	 add	 esi, 44			; 0000002cH
  0026c	89 75 08	 mov	 DWORD PTR _it$2$[ebp], esi
; File C:\IAGOS\server\v18\Source\Source\_Common\GuildCombat1to1.cpp

; 1074 : 			it++;

  0026f	e9 3f 01 00 00	 jmp	 $LN5@GuildComba
$LN17@GuildComba:

; 1075 : 		else // ŔÔÂű ĽřŔ§żˇĽ­ ąĐ·Áł­ °ćżě
; 1076 : 		{
; 1077 : 			CGuild* pGuild = g_GuildMng.GetGuild( (*it).ulGuildId );

  00274	ff 36		 push	 DWORD PTR [esi]
  00276	b9 00 00 00 00	 mov	 ecx, OFFSET ?g_GuildMng@@3VCGuildMng@@A ; g_GuildMng
  0027b	e8 00 00 00 00	 call	 ?GetGuild@CGuildMng@@QAEPAVCGuild@@K@Z ; CGuildMng::GetGuild

; 1078 : 			if( pGuild )

  00280	85 c0		 test	 eax, eax
  00282	74 50		 je	 SHORT $LN20@GuildComba
; File C:\Program Files\Microsoft Visual Studio\2022\Professional\VC\Tools\MSVC\14.44.35207\include\xtree

; 1630 :         _Tree_find_result<_Nodeptr> _Result{{_Scary->_Myhead->_Parent, _Tree_child::_Right}, _Scary->_Myhead};

  00284	8b 3d 28 00 00
	00		 mov	 edi, DWORD PTR ?prj@@3VCProject@@A+40
  0028a	8b cf		 mov	 ecx, edi
; File C:\IAGOS\server\v18\Source\Source\_Common\GuildCombat1to1.cpp

; 1080 : 				CUser* pUser = (CUser*)prj.GetUserByID( pGuild->m_idMaster );

  0028c	8b 50 40	 mov	 edx, DWORD PTR [eax+64]
; File C:\Program Files\Microsoft Visual Studio\2022\Professional\VC\Tools\MSVC\14.44.35207\include\xtree

; 1630 :         _Tree_find_result<_Nodeptr> _Result{{_Scary->_Myhead->_Parent, _Tree_child::_Right}, _Scary->_Myhead};

  0028f	8b 47 04	 mov	 eax, DWORD PTR [edi+4]

; 1632 :         while (!_Trynode->_Isnil) {

  00292	80 78 0d 00	 cmp	 BYTE PTR [eax+13], 0
  00296	75 14		 jne	 SHORT $LN358@GuildComba
$LL357@GuildComba:
; File C:\Program Files\Microsoft Visual Studio\2022\Professional\VC\Tools\MSVC\14.44.35207\include\type_traits

; 2380 :         return _Left < _Right;

  00298	39 50 10	 cmp	 DWORD PTR [eax+16], edx
; File C:\Program Files\Microsoft Visual Studio\2022\Professional\VC\Tools\MSVC\14.44.35207\include\xtree

; 1634 :             if (_DEBUG_LT_PRED(_Getcomp(), _Traits::_Kfn(_Trynode->_Myval), _Keyval)) {

  0029b	73 05		 jae	 SHORT $LN359@GuildComba

; 1635 :                 _Result._Location._Child = _Tree_child::_Right;
; 1636 :                 _Trynode                 = _Trynode->_Right;

  0029d	8b 40 08	 mov	 eax, DWORD PTR [eax+8]

; 1637 :             } else {

  002a0	eb 04		 jmp	 SHORT $LN360@GuildComba
$LN359@GuildComba:

; 1638 :                 _Result._Location._Child = _Tree_child::_Left;
; 1639 :                 _Result._Bound           = _Trynode;

  002a2	8b c8		 mov	 ecx, eax

; 1640 :                 _Trynode                 = _Trynode->_Left;

  002a4	8b 00		 mov	 eax, DWORD PTR [eax]
$LN360@GuildComba:

; 1632 :         while (!_Trynode->_Isnil) {

  002a6	80 78 0d 00	 cmp	 BYTE PTR [eax+13], 0
  002aa	74 ec		 je	 SHORT $LL357@GuildComba
$LN358@GuildComba:

; 1624 :         return !_Bound->_Isnil && !_DEBUG_LT_PRED(_Getcomp(), _Keyval, _Traits::_Kfn(_Bound->_Myval));

  002ac	80 79 0d 00	 cmp	 BYTE PTR [ecx+13], 0
  002b0	75 05		 jne	 SHORT $LN354@GuildComba
; File C:\Program Files\Microsoft Visual Studio\2022\Professional\VC\Tools\MSVC\14.44.35207\include\type_traits

; 2380 :         return _Left < _Right;

  002b2	3b 51 10	 cmp	 edx, DWORD PTR [ecx+16]
; File C:\Program Files\Microsoft Visual Studio\2022\Professional\VC\Tools\MSVC\14.44.35207\include\xtree

; 1624 :         return !_Bound->_Isnil && !_DEBUG_LT_PRED(_Getcomp(), _Keyval, _Traits::_Kfn(_Bound->_Myval));

  002b5	73 02		 jae	 SHORT $LN353@GuildComba
$LN354@GuildComba:

; 1389 :         return _Get_scary()->_Myhead;

  002b7	8b cf		 mov	 ecx, edi
$LN353@GuildComba:

; 37   :     _Tree_unchecked_const_iterator(_Nodeptr _Pnode, const _Mytree* _Plist) noexcept : _Ptr(_Pnode) {

  002b9	3b cf		 cmp	 ecx, edi
; File C:\IAGOS\server\v18\Source\Source\_Common\Project.h

; 1436 : 	if( i != m_idPlayerToUserPtr.end() )

  002bb	74 17		 je	 SHORT $LN20@GuildComba

; 1437 : 		return i->second;

  002bd	8b 49 14	 mov	 ecx, DWORD PTR [ecx+20]
; File C:\IAGOS\server\v18\Source\Source\_Common\Obj.h

; 327  : 	return pObj && ( pObj->IsDelete() == FALSE ); 

  002c0	85 c9		 test	 ecx, ecx
  002c2	74 10		 je	 SHORT $LN20@GuildComba

; 180  : 	BOOL			IsDelete()	{ return (m_dwFlags & OBJ_FLAG_DELETE);  }

  002c4	f6 41 04 01	 test	 BYTE PTR [ecx+4], 1

; 327  : 	return pObj && ( pObj->IsDelete() == FALSE ); 

  002c8	75 0a		 jne	 SHORT $LN20@GuildComba
; File C:\IAGOS\server\v18\Source\Source\_Common\GuildCombat1to1.cpp

; 1082 : 					pUser->AddDefinedText( TID_GAME_GUILDCOMBAT1TO1_FAILTENDER );

  002ca	68 89 0d 00 00	 push	 3465			; 00000d89H
  002cf	e8 00 00 00 00	 call	 ?AddDefinedText@CUser@@QAEXH@Z ; CUser::AddDefinedText
$LN20@GuildComba:

; 1083 : 			}
; 1084 : 			
; 1085 : 			g_dpDBClient.SendGC1to1Tender( 'U', (*it).ulGuildId, (*it).nPenya, 'F' );

  002d4	6a 46		 push	 70			; 00000046H
  002d6	ff 76 04	 push	 DWORD PTR [esi+4]
  002d9	b9 00 00 00 00	 mov	 ecx, OFFSET ?g_dpDBClient@@3VCDPDatabaseClient@@A ; g_dpDBClient
  002de	ff 36		 push	 DWORD PTR [esi]
  002e0	6a 55		 push	 85			; 00000055H
  002e2	e8 00 00 00 00	 call	 ?SendGC1to1Tender@CDPDatabaseClient@@QAEXDKHD@Z ; CDPDatabaseClient::SendGC1to1Tender
; File C:\Program Files\Microsoft Visual Studio\2022\Professional\VC\Tools\MSVC\14.44.35207\include\vector

; 844  :         if (_Mylast != _My_data._Myend) {

  002e7	8b 43 5c	 mov	 eax, DWORD PTR [ebx+92]
  002ea	56		 push	 esi
  002eb	3b 43 60	 cmp	 eax, DWORD PTR [ebx+96]
  002ee	74 0d		 je	 SHORT $LN223@GuildComba
; File C:\Program Files\Microsoft Visual Studio\2022\Professional\VC\Tools\MSVC\14.44.35207\include\xmemory

; 732  :         ::new (const_cast<void*>(static_cast<const volatile void*>(_Ptr))) _Objty(_STD forward<_Types>(_Args)...);

  002f0	8b c8		 mov	 ecx, eax
  002f2	e8 00 00 00 00	 call	 ??0__GC1TO1TENDER@CGuildCombat1to1Mng@@QAE@ABU01@@Z
; File C:\Program Files\Microsoft Visual Studio\2022\Professional\VC\Tools\MSVC\14.44.35207\include\vector

; 869  :         ++_Mylast;

  002f7	83 43 5c 2c	 add	 DWORD PTR [ebx+92], 44	; 0000002cH

; 845  :             return _Emplace_back_with_unused_capacity(_STD forward<_Valty>(_Val)...);

  002fb	eb 09		 jmp	 SHORT $LN222@GuildComba
$LN223@GuildComba:

; 846  :         }
; 847  : 
; 848  :         return *_Emplace_reallocate(_Mylast, _STD forward<_Valty>(_Val)...);

  002fd	50		 push	 eax
  002fe	8d 4b 58	 lea	 ecx, DWORD PTR [ebx+88]
  00301	e8 00 00 00 00	 call	 ??$_Emplace_reallocate@ABU__GC1TO1TENDER@CGuildCombat1to1Mng@@@?$vector@U__GC1TO1TENDER@CGuildCombat1to1Mng@@V?$allocator@U__GC1TO1TENDER@CGuildCombat1to1Mng@@@std@@@std@@AAEPAU__GC1TO1TENDER@CGuildCombat1to1Mng@@QAU23@ABU23@@Z ; std::vector<CGuildCombat1to1Mng::__GC1TO1TENDER,std::allocator<CGuildCombat1to1Mng::__GC1TO1TENDER> >::_Emplace_reallocate<CGuildCombat1to1Mng::__GC1TO1TENDER const &>
$LN222@GuildComba:

; 1775 :         _STD _Move_unchecked(_Whereptr + 1, _Mylast, _Whereptr);

  00306	8b 4b 50	 mov	 ecx, DWORD PTR [ebx+80]
  00309	8d 46 2c	 lea	 eax, DWORD PTR [esi+44]
  0030c	89 4d e8	 mov	 DWORD PTR __Last$1$[ebp], ecx
  0030f	89 45 ec	 mov	 DWORD PTR __First$1$[ebp], eax
; File C:\Program Files\Microsoft Visual Studio\2022\Professional\VC\Tools\MSVC\14.44.35207\include\xutility

; 5151 :         for (; _First != _Last; ++_Dest, (void) ++_First) {

  00312	3b c1		 cmp	 eax, ecx
  00314	0f 84 84 00 00
	00		 je	 $LN234@GuildComba
; File C:\Program Files\Microsoft Visual Studio\2022\Professional\VC\Tools\MSVC\14.44.35207\include\vector

; 1766 :         pointer& _Mylast        = _My_data._Mylast;

  0031a	8d 5e 28	 lea	 ebx, DWORD PTR [esi+40]
  0031d	8b f0		 mov	 esi, eax
  0031f	90		 npad	 1
$LL235@GuildComba:
  00320	8b 06		 mov	 eax, DWORD PTR [esi]

; 800  :         if (this == _STD addressof(_Right)) {

  00322	8d 53 24	 lea	 edx, DWORD PTR [ebx+36]
  00325	89 43 d8	 mov	 DWORD PTR [ebx-40], eax
  00328	8d 4b 2c	 lea	 ecx, DWORD PTR [ebx+44]
  0032b	8b 43 08	 mov	 eax, DWORD PTR [ebx+8]
  0032e	89 43 dc	 mov	 DWORD PTR [ebx-36], eax
  00331	8b 43 0c	 mov	 eax, DWORD PTR [ebx+12]
  00334	89 43 e0	 mov	 DWORD PTR [ebx-32], eax
  00337	8b 43 10	 mov	 eax, DWORD PTR [ebx+16]
  0033a	89 43 e4	 mov	 DWORD PTR [ebx-28], eax
  0033d	8b 43 14	 mov	 eax, DWORD PTR [ebx+20]
  00340	89 43 e8	 mov	 DWORD PTR [ebx-24], eax
  00343	8b 43 18	 mov	 eax, DWORD PTR [ebx+24]
  00346	89 43 ec	 mov	 DWORD PTR [ebx-20], eax
  00349	8b 43 1c	 mov	 eax, DWORD PTR [ebx+28]
  0034c	89 43 f0	 mov	 DWORD PTR [ebx-16], eax
  0034f	8b 43 20	 mov	 eax, DWORD PTR [ebx+32]
  00352	89 43 f4	 mov	 DWORD PTR [ebx-12], eax
  00355	8d 43 f8	 lea	 eax, DWORD PTR [ebx-8]
  00358	89 4d ec	 mov	 DWORD PTR tv3198[ebp], ecx
  0035b	3b c2		 cmp	 eax, edx
  0035d	74 2f		 je	 SHORT $LN613@GuildComba

; 801  :             return *this;
; 802  :         }
; 803  : 
; 804  :         _Alty& _Al                = _Getal();
; 805  :         _Alty& _Right_al          = _Right._Getal();
; 806  :         constexpr auto _Pocma_val = _Choose_pocma_v<_Alty>;
; 807  :         if constexpr (_Pocma_val == _Pocma_values::_No_propagate_allocators) {
; 808  :             if (_Al != _Right_al) {
; 809  :                 _Move_assign_unequal_alloc(_Right);
; 810  :                 return *this;
; 811  :             }
; 812  :         }
; 813  : 
; 814  :         _Tidy();

  0035f	8d 4b f8	 lea	 ecx, DWORD PTR [ebx-8]
  00362	e8 00 00 00 00	 call	 ?_Tidy@?$vector@KV?$allocator@K@std@@@std@@AAEXXZ ; std::vector<unsigned long,std::allocator<unsigned long> >::_Tidy

; 427  :         _Myfirst = _Right._Myfirst;

  00367	8b 43 24	 mov	 eax, DWORD PTR [ebx+36]

; 428  :         _Mylast  = _Right._Mylast;
; 429  :         _Myend   = _Right._Myend;

  0036a	8b 4d ec	 mov	 ecx, DWORD PTR tv3198[ebp]
  0036d	89 43 f8	 mov	 DWORD PTR [ebx-8], eax
  00370	8b 43 28	 mov	 eax, DWORD PTR [ebx+40]
  00373	89 43 fc	 mov	 DWORD PTR [ebx-4], eax
  00376	8b 01		 mov	 eax, DWORD PTR [ecx]
  00378	89 03		 mov	 DWORD PTR [ebx], eax

; 430  : 
; 431  :         _Right._Myfirst = nullptr;

  0037a	c7 43 24 00 00
	00 00		 mov	 DWORD PTR [ebx+36], 0

; 432  :         _Right._Mylast  = nullptr;

  00381	c7 43 28 00 00
	00 00		 mov	 DWORD PTR [ebx+40], 0

; 433  :         _Right._Myend   = nullptr;

  00388	c7 01 00 00 00
	00		 mov	 DWORD PTR [ecx], 0
$LN613@GuildComba:
; File C:\Program Files\Microsoft Visual Studio\2022\Professional\VC\Tools\MSVC\14.44.35207\include\xutility

; 5151 :         for (; _First != _Last; ++_Dest, (void) ++_First) {

  0038e	83 c6 2c	 add	 esi, 44			; 0000002cH
  00391	8b d9		 mov	 ebx, ecx
  00393	3b 75 e8	 cmp	 esi, DWORD PTR __Last$1$[ebp]
  00396	75 88		 jne	 SHORT $LL235@GuildComba
  00398	8b 75 08	 mov	 esi, DWORD PTR _it$2$[ebp]
  0039b	8b 5d f0	 mov	 ebx, DWORD PTR _this$1$[ebp]
$LN234@GuildComba:
; File C:\Program Files\Microsoft Visual Studio\2022\Professional\VC\Tools\MSVC\14.44.35207\include\vector

; 1776 :         _Alty_traits::destroy(_Getal(), _Unfancy(_Mylast - 1));

  0039e	8b 4b 50	 mov	 ecx, DWORD PTR [ebx+80]
  003a1	83 e9 0c	 sub	 ecx, 12			; 0000000cH

; 830  :         _Tidy();

  003a4	e8 00 00 00 00	 call	 ?_Tidy@?$vector@KV?$allocator@K@std@@@std@@AAEXXZ ; std::vector<unsigned long,std::allocator<unsigned long> >::_Tidy

; 1778 :         --_Mylast;

  003a9	83 43 50 d4	 add	 DWORD PTR [ebx+80], -44	; ffffffd4H
  003ad	8b 7b 50	 mov	 edi, DWORD PTR [ebx+80]
  003b0	8b 45 e4	 mov	 eax, DWORD PTR _nCount$1$[ebp]
$LN5@GuildComba:

; 176  :         return !(*this == _Right);

  003b3	3b f7		 cmp	 esi, edi
; File C:\IAGOS\server\v18\Source\Source\_Common\GuildCombat1to1.cpp

; 1070 : 	for( it=m_vecTenderGuild.begin(); it!=m_vecTenderGuild.end(); )

  003b5	0f 85 a5 fe ff
	ff		 jne	 $LL7@GuildComba
$LN6@GuildComba:
; File C:\Program Files\Microsoft Visual Studio\2022\Professional\VC\Tools\MSVC\14.44.35207\include\vector

; 1915 :         return static_cast<size_type>(_My_data._Mylast - _My_data._Myfirst);

  003bb	8b 4b 50	 mov	 ecx, DWORD PTR [ebx+80]
  003be	b8 e9 a2 8b 2e	 mov	 eax, 780903145		; 2e8ba2e9H
  003c3	2b 4b 4c	 sub	 ecx, DWORD PTR [ebx+76]
  003c6	f7 e9		 imul	 ecx
  003c8	c1 fa 03	 sar	 edx, 3
  003cb	8b c2		 mov	 eax, edx
  003cd	c1 e8 1f	 shr	 eax, 31			; 0000001fH
  003d0	03 c2		 add	 eax, edx
; File C:\IAGOS\server\v18\Source\Source\_Common\GuildCombat1to1.cpp

; 1092 : 	if( m_vecTenderGuild.size() % 2 != 0 )

  003d2	a8 01		 test	 al, 1
  003d4	0f 84 a3 00 00
	00		 je	 $LN21@GuildComba

; 1095 : 		CGuild* pGuild = g_GuildMng.GetGuild( (*it).ulGuildId );

  003da	ff 77 d4	 push	 DWORD PTR [edi-44]
; File C:\Program Files\Microsoft Visual Studio\2022\Professional\VC\Tools\MSVC\14.44.35207\include\vector

; 100  :         --_Ptr;

  003dd	8d 77 d4	 lea	 esi, DWORD PTR [edi-44]
; File C:\IAGOS\server\v18\Source\Source\_Common\GuildCombat1to1.cpp

; 1095 : 		CGuild* pGuild = g_GuildMng.GetGuild( (*it).ulGuildId );

  003e0	b9 00 00 00 00	 mov	 ecx, OFFSET ?g_GuildMng@@3VCGuildMng@@A ; g_GuildMng
  003e5	e8 00 00 00 00	 call	 ?GetGuild@CGuildMng@@QAEPAVCGuild@@K@Z ; CGuildMng::GetGuild

; 1096 : 		if( pGuild )

  003ea	85 c0		 test	 eax, eax
  003ec	74 50		 je	 SHORT $LN23@GuildComba
; File C:\Program Files\Microsoft Visual Studio\2022\Professional\VC\Tools\MSVC\14.44.35207\include\xtree

; 1630 :         _Tree_find_result<_Nodeptr> _Result{{_Scary->_Myhead->_Parent, _Tree_child::_Right}, _Scary->_Myhead};

  003ee	8b 3d 28 00 00
	00		 mov	 edi, DWORD PTR ?prj@@3VCProject@@A+40
  003f4	8b cf		 mov	 ecx, edi
; File C:\IAGOS\server\v18\Source\Source\_Common\GuildCombat1to1.cpp

; 1098 : 			CUser* pUser = (CUser*)prj.GetUserByID( pGuild->m_idMaster );

  003f6	8b 50 40	 mov	 edx, DWORD PTR [eax+64]
; File C:\Program Files\Microsoft Visual Studio\2022\Professional\VC\Tools\MSVC\14.44.35207\include\xtree

; 1630 :         _Tree_find_result<_Nodeptr> _Result{{_Scary->_Myhead->_Parent, _Tree_child::_Right}, _Scary->_Myhead};

  003f9	8b 47 04	 mov	 eax, DWORD PTR [edi+4]

; 1632 :         while (!_Trynode->_Isnil) {

  003fc	80 78 0d 00	 cmp	 BYTE PTR [eax+13], 0
  00400	75 14		 jne	 SHORT $LN418@GuildComba
$LL417@GuildComba:
; File C:\Program Files\Microsoft Visual Studio\2022\Professional\VC\Tools\MSVC\14.44.35207\include\type_traits

; 2380 :         return _Left < _Right;

  00402	39 50 10	 cmp	 DWORD PTR [eax+16], edx
; File C:\Program Files\Microsoft Visual Studio\2022\Professional\VC\Tools\MSVC\14.44.35207\include\xtree

; 1634 :             if (_DEBUG_LT_PRED(_Getcomp(), _Traits::_Kfn(_Trynode->_Myval), _Keyval)) {

  00405	73 05		 jae	 SHORT $LN419@GuildComba

; 1635 :                 _Result._Location._Child = _Tree_child::_Right;
; 1636 :                 _Trynode                 = _Trynode->_Right;

  00407	8b 40 08	 mov	 eax, DWORD PTR [eax+8]

; 1637 :             } else {

  0040a	eb 04		 jmp	 SHORT $LN420@GuildComba
$LN419@GuildComba:

; 1638 :                 _Result._Location._Child = _Tree_child::_Left;
; 1639 :                 _Result._Bound           = _Trynode;

  0040c	8b c8		 mov	 ecx, eax

; 1640 :                 _Trynode                 = _Trynode->_Left;

  0040e	8b 00		 mov	 eax, DWORD PTR [eax]
$LN420@GuildComba:

; 1632 :         while (!_Trynode->_Isnil) {

  00410	80 78 0d 00	 cmp	 BYTE PTR [eax+13], 0
  00414	74 ec		 je	 SHORT $LL417@GuildComba
$LN418@GuildComba:

; 1624 :         return !_Bound->_Isnil && !_DEBUG_LT_PRED(_Getcomp(), _Keyval, _Traits::_Kfn(_Bound->_Myval));

  00416	80 79 0d 00	 cmp	 BYTE PTR [ecx+13], 0
  0041a	75 05		 jne	 SHORT $LN414@GuildComba
; File C:\Program Files\Microsoft Visual Studio\2022\Professional\VC\Tools\MSVC\14.44.35207\include\type_traits

; 2380 :         return _Left < _Right;

  0041c	3b 51 10	 cmp	 edx, DWORD PTR [ecx+16]
; File C:\Program Files\Microsoft Visual Studio\2022\Professional\VC\Tools\MSVC\14.44.35207\include\xtree

; 1624 :         return !_Bound->_Isnil && !_DEBUG_LT_PRED(_Getcomp(), _Keyval, _Traits::_Kfn(_Bound->_Myval));

  0041f	73 02		 jae	 SHORT $LN413@GuildComba
$LN414@GuildComba:

; 1389 :         return _Get_scary()->_Myhead;

  00421	8b cf		 mov	 ecx, edi
$LN413@GuildComba:

; 37   :     _Tree_unchecked_const_iterator(_Nodeptr _Pnode, const _Mytree* _Plist) noexcept : _Ptr(_Pnode) {

  00423	3b cf		 cmp	 ecx, edi
; File C:\IAGOS\server\v18\Source\Source\_Common\Project.h

; 1436 : 	if( i != m_idPlayerToUserPtr.end() )

  00425	74 17		 je	 SHORT $LN23@GuildComba

; 1437 : 		return i->second;

  00427	8b 49 14	 mov	 ecx, DWORD PTR [ecx+20]
; File C:\IAGOS\server\v18\Source\Source\_Common\Obj.h

; 327  : 	return pObj && ( pObj->IsDelete() == FALSE ); 

  0042a	85 c9		 test	 ecx, ecx
  0042c	74 10		 je	 SHORT $LN23@GuildComba

; 180  : 	BOOL			IsDelete()	{ return (m_dwFlags & OBJ_FLAG_DELETE);  }

  0042e	f6 41 04 01	 test	 BYTE PTR [ecx+4], 1

; 327  : 	return pObj && ( pObj->IsDelete() == FALSE ); 

  00432	75 0a		 jne	 SHORT $LN23@GuildComba
; File C:\IAGOS\server\v18\Source\Source\_Common\GuildCombat1to1.cpp

; 1100 : 				pUser->AddDefinedText( TID_GAME_GUILDCOMBAT1TO1_FAILTENDER );

  00434	68 89 0d 00 00	 push	 3465			; 00000d89H
  00439	e8 00 00 00 00	 call	 ?AddDefinedText@CUser@@QAEXH@Z ; CUser::AddDefinedText
$LN23@GuildComba:

; 1101 : 		}
; 1102 : 
; 1103 : 		g_dpDBClient.SendGC1to1Tender( 'U', (*it).ulGuildId, (*it).nPenya, 'F' );

  0043e	6a 46		 push	 70			; 00000046H
  00440	ff 76 04	 push	 DWORD PTR [esi+4]
  00443	b9 00 00 00 00	 mov	 ecx, OFFSET ?g_dpDBClient@@3VCDPDatabaseClient@@A ; g_dpDBClient
  00448	ff 36		 push	 DWORD PTR [esi]
  0044a	6a 55		 push	 85			; 00000055H
  0044c	e8 00 00 00 00	 call	 ?SendGC1to1Tender@CDPDatabaseClient@@QAEXDKHD@Z ; CDPDatabaseClient::SendGC1to1Tender
; File C:\Program Files\Microsoft Visual Studio\2022\Professional\VC\Tools\MSVC\14.44.35207\include\vector

; 844  :         if (_Mylast != _My_data._Myend) {

  00451	8b 43 5c	 mov	 eax, DWORD PTR [ebx+92]
  00454	56		 push	 esi
  00455	3b 43 60	 cmp	 eax, DWORD PTR [ebx+96]
  00458	74 0d		 je	 SHORT $LN205@GuildComba
; File C:\Program Files\Microsoft Visual Studio\2022\Professional\VC\Tools\MSVC\14.44.35207\include\xmemory

; 732  :         ::new (const_cast<void*>(static_cast<const volatile void*>(_Ptr))) _Objty(_STD forward<_Types>(_Args)...);

  0045a	8b c8		 mov	 ecx, eax
  0045c	e8 00 00 00 00	 call	 ??0__GC1TO1TENDER@CGuildCombat1to1Mng@@QAE@ABU01@@Z
; File C:\Program Files\Microsoft Visual Studio\2022\Professional\VC\Tools\MSVC\14.44.35207\include\vector

; 869  :         ++_Mylast;

  00461	83 43 5c 2c	 add	 DWORD PTR [ebx+92], 44	; 0000002cH

; 845  :             return _Emplace_back_with_unused_capacity(_STD forward<_Valty>(_Val)...);

  00465	eb 09		 jmp	 SHORT $LN204@GuildComba
$LN205@GuildComba:

; 846  :         }
; 847  : 
; 848  :         return *_Emplace_reallocate(_Mylast, _STD forward<_Valty>(_Val)...);

  00467	50		 push	 eax
  00468	8d 4b 58	 lea	 ecx, DWORD PTR [ebx+88]
  0046b	e8 00 00 00 00	 call	 ??$_Emplace_reallocate@ABU__GC1TO1TENDER@CGuildCombat1to1Mng@@@?$vector@U__GC1TO1TENDER@CGuildCombat1to1Mng@@V?$allocator@U__GC1TO1TENDER@CGuildCombat1to1Mng@@@std@@@std@@AAEPAU__GC1TO1TENDER@CGuildCombat1to1Mng@@QAU23@ABU23@@Z ; std::vector<CGuildCombat1to1Mng::__GC1TO1TENDER,std::allocator<CGuildCombat1to1Mng::__GC1TO1TENDER> >::_Emplace_reallocate<CGuildCombat1to1Mng::__GC1TO1TENDER const &>
$LN204@GuildComba:
; File C:\IAGOS\server\v18\Source\Source\_Common\GuildCombat1to1.cpp

; 1105 : 		m_vecTenderGuild.erase( it );

  00470	56		 push	 esi
  00471	8d 45 08	 lea	 eax, DWORD PTR $T6[ebp]
  00474	50		 push	 eax
  00475	8d 4b 4c	 lea	 ecx, DWORD PTR [ebx+76]
  00478	e8 00 00 00 00	 call	 ?erase@?$vector@U__GC1TO1TENDER@CGuildCombat1to1Mng@@V?$allocator@U__GC1TO1TENDER@CGuildCombat1to1Mng@@@std@@@std@@QAE?AV?$_Vector_iterator@V?$_Vector_val@U?$_Simple_types@U__GC1TO1TENDER@CGuildCombat1to1Mng@@@std@@@std@@@2@V?$_Vector_const_iterator@V?$_Vector_val@U?$_Simple_types@U__GC1TO1TENDER@CGuildCombat1to1Mng@@@std@@@std@@@2@@Z ; std::vector<CGuildCombat1to1Mng::__GC1TO1TENDER,std::allocator<CGuildCombat1to1Mng::__GC1TO1TENDER> >::erase
$LN21@GuildComba:
; File C:\Program Files\Microsoft Visual Studio\2022\Professional\VC\Tools\MSVC\14.44.35207\include\vector

; 46   :     _CONSTEXPR20 _Vector_const_iterator(_Tptr _Parg, const _Container_base* _Pvector) noexcept : _Ptr(_Parg) {

  0047d	8b 7b 4c	 mov	 edi, DWORD PTR [ebx+76]
  00480	89 7d 08	 mov	 DWORD PTR _it$4$[ebp], edi

; 176  :         return !(*this == _Right);

  00483	3b 7b 50	 cmp	 edi, DWORD PTR [ebx+80]
; File C:\IAGOS\server\v18\Source\Source\_Common\GuildCombat1to1.cpp

; 1109 : 	for( it=m_vecTenderGuild.begin(); it!=m_vecTenderGuild.end(); it++ )

  00486	0f 84 e1 00 00
	00		 je	 $LN9@GuildComba
  0048c	0f 1f 40 00	 npad	 4
$LL10@GuildComba:

; 1110 : 	{
; 1111 : 		CGuild* pGuild = g_GuildMng.GetGuild( (*it).ulGuildId );

  00490	ff 37		 push	 DWORD PTR [edi]
  00492	b9 00 00 00 00	 mov	 ecx, OFFSET ?g_GuildMng@@3VCGuildMng@@A ; g_GuildMng
  00497	e8 00 00 00 00	 call	 ?GetGuild@CGuildMng@@QAEPAVCGuild@@K@Z ; CGuildMng::GetGuild
  0049c	89 45 e4	 mov	 DWORD PTR _pGuild$1$[ebp], eax

; 1112 : 		if( pGuild )

  0049f	85 c0		 test	 eax, eax
  004a1	0f 84 b7 00 00
	00		 je	 $LN8@GuildComba
; File C:\Program Files\Microsoft Visual Studio\2022\Professional\VC\Tools\MSVC\14.44.35207\include\xtree

; 1142 :         return iterator(_Scary->_Myhead->_Left, _Scary);

  004a7	8b 48 38	 mov	 ecx, DWORD PTR [eax+56]

; 37   :     _Tree_unchecked_const_iterator(_Nodeptr _Pnode, const _Mytree* _Plist) noexcept : _Ptr(_Pnode) {

  004aa	8b 31		 mov	 esi, DWORD PTR [ecx]

; 237  :         return !(*this == _Right);

  004ac	3b f1		 cmp	 esi, ecx
; File C:\IAGOS\server\v18\Source\Source\_Common\GuildCombat1to1.cpp

; 1114 : 			for( map<u_long, CGuildMember*>::iterator it2=pGuild->m_mapPMember.begin(); it2!=pGuild->m_mapPMember.end(); it2++ )

  004ae	0f 84 aa 00 00
	00		 je	 $LN8@GuildComba
  004b4	8b 1d 28 00 00
	00		 mov	 ebx, DWORD PTR ?prj@@3VCProject@@A+40
  004ba	8b 7d f0	 mov	 edi, DWORD PTR _this$1$[ebp]
  004bd	0f 1f 00	 npad	 3
$LL13@GuildComba:
; File C:\Program Files\Microsoft Visual Studio\2022\Professional\VC\Tools\MSVC\14.44.35207\include\xtree

; 1630 :         _Tree_find_result<_Nodeptr> _Result{{_Scary->_Myhead->_Parent, _Tree_child::_Right}, _Scary->_Myhead};

  004c0	8b 43 04	 mov	 eax, DWORD PTR [ebx+4]
  004c3	8b cb		 mov	 ecx, ebx
; File C:\IAGOS\server\v18\Source\Source\_Common\GuildCombat1to1.cpp

; 1116 : 				CUser* pUser = (CUser*)prj.GetUserByID( it2->first );

  004c5	8b 56 10	 mov	 edx, DWORD PTR [esi+16]
; File C:\Program Files\Microsoft Visual Studio\2022\Professional\VC\Tools\MSVC\14.44.35207\include\xtree

; 1632 :         while (!_Trynode->_Isnil) {

  004c8	80 78 0d 00	 cmp	 BYTE PTR [eax+13], 0
  004cc	75 16		 jne	 SHORT $LN83@GuildComba
  004ce	66 90		 npad	 2
$LL82@GuildComba:
; File C:\Program Files\Microsoft Visual Studio\2022\Professional\VC\Tools\MSVC\14.44.35207\include\type_traits

; 2380 :         return _Left < _Right;

  004d0	39 50 10	 cmp	 DWORD PTR [eax+16], edx
; File C:\Program Files\Microsoft Visual Studio\2022\Professional\VC\Tools\MSVC\14.44.35207\include\xtree

; 1634 :             if (_DEBUG_LT_PRED(_Getcomp(), _Traits::_Kfn(_Trynode->_Myval), _Keyval)) {

  004d3	73 05		 jae	 SHORT $LN84@GuildComba

; 1635 :                 _Result._Location._Child = _Tree_child::_Right;
; 1636 :                 _Trynode                 = _Trynode->_Right;

  004d5	8b 40 08	 mov	 eax, DWORD PTR [eax+8]

; 1637 :             } else {

  004d8	eb 04		 jmp	 SHORT $LN85@GuildComba
$LN84@GuildComba:

; 1638 :                 _Result._Location._Child = _Tree_child::_Left;
; 1639 :                 _Result._Bound           = _Trynode;

  004da	8b c8		 mov	 ecx, eax

; 1640 :                 _Trynode                 = _Trynode->_Left;

  004dc	8b 00		 mov	 eax, DWORD PTR [eax]
$LN85@GuildComba:

; 1632 :         while (!_Trynode->_Isnil) {

  004de	80 78 0d 00	 cmp	 BYTE PTR [eax+13], 0
  004e2	74 ec		 je	 SHORT $LL82@GuildComba
$LN83@GuildComba:

; 1624 :         return !_Bound->_Isnil && !_DEBUG_LT_PRED(_Getcomp(), _Keyval, _Traits::_Kfn(_Bound->_Myval));

  004e4	80 79 0d 00	 cmp	 BYTE PTR [ecx+13], 0
  004e8	75 05		 jne	 SHORT $LN79@GuildComba
; File C:\Program Files\Microsoft Visual Studio\2022\Professional\VC\Tools\MSVC\14.44.35207\include\type_traits

; 2380 :         return _Left < _Right;

  004ea	3b 51 10	 cmp	 edx, DWORD PTR [ecx+16]
; File C:\Program Files\Microsoft Visual Studio\2022\Professional\VC\Tools\MSVC\14.44.35207\include\xtree

; 1624 :         return !_Bound->_Isnil && !_DEBUG_LT_PRED(_Getcomp(), _Keyval, _Traits::_Kfn(_Bound->_Myval));

  004ed	73 02		 jae	 SHORT $LN78@GuildComba
$LN79@GuildComba:

; 1389 :         return _Get_scary()->_Myhead;

  004ef	8b cb		 mov	 ecx, ebx
$LN78@GuildComba:

; 37   :     _Tree_unchecked_const_iterator(_Nodeptr _Pnode, const _Mytree* _Plist) noexcept : _Ptr(_Pnode) {

  004f1	3b cb		 cmp	 ecx, ebx
; File C:\IAGOS\server\v18\Source\Source\_Common\Project.h

; 1436 : 	if( i != m_idPlayerToUserPtr.end() )

  004f3	74 1b		 je	 SHORT $LN11@GuildComba

; 1437 : 		return i->second;

  004f5	8b 41 14	 mov	 eax, DWORD PTR [ecx+20]
; File C:\IAGOS\server\v18\Source\Source\_Common\Obj.h

; 327  : 	return pObj && ( pObj->IsDelete() == FALSE ); 

  004f8	85 c0		 test	 eax, eax
  004fa	74 14		 je	 SHORT $LN11@GuildComba

; 180  : 	BOOL			IsDelete()	{ return (m_dwFlags & OBJ_FLAG_DELETE);  }

  004fc	f6 40 04 01	 test	 BYTE PTR [eax+4], 1

; 327  : 	return pObj && ( pObj->IsDelete() == FALSE ); 

  00500	75 0e		 jne	 SHORT $LN11@GuildComba
; File C:\IAGOS\server\v18\Source\Source\_Common\GuildCombat1to1.cpp

; 1118 : 					SendNowState( pUser );

  00502	50		 push	 eax
  00503	8b cf		 mov	 ecx, edi
  00505	e8 00 00 00 00	 call	 ?SendNowState@CGuildCombat1to1Mng@@QAEXPAVCUser@@@Z ; CGuildCombat1to1Mng::SendNowState
  0050a	8b 1d 28 00 00
	00		 mov	 ebx, DWORD PTR ?prj@@3VCProject@@A+40
$LN11@GuildComba:
; File C:\Program Files\Microsoft Visual Studio\2022\Professional\VC\Tools\MSVC\14.44.35207\include\xtree

; 50   :         if (_Ptr->_Right->_Isnil) { // climb looking for right subtree

  00510	8b 46 08	 mov	 eax, DWORD PTR [esi+8]
  00513	80 78 0d 00	 cmp	 BYTE PTR [eax+13], 0
  00517	74 1d		 je	 SHORT $LN151@GuildComba

; 51   :             _Nodeptr _Pnode;
; 52   :             while (!(_Pnode = _Ptr->_Parent)->_Isnil && _Ptr == _Pnode->_Right) {

  00519	8b 46 04	 mov	 eax, DWORD PTR [esi+4]
  0051c	80 78 0d 00	 cmp	 BYTE PTR [eax+13], 0
  00520	75 10		 jne	 SHORT $LN617@GuildComba
$LL149@GuildComba:
  00522	3b 70 08	 cmp	 esi, DWORD PTR [eax+8]
  00525	75 0b		 jne	 SHORT $LN617@GuildComba

; 53   :                 _Ptr = _Pnode; // ==> parent while right subtree

  00527	8b f0		 mov	 esi, eax
  00529	8b 40 04	 mov	 eax, DWORD PTR [eax+4]
  0052c	80 78 0d 00	 cmp	 BYTE PTR [eax+13], 0
  00530	74 f0		 je	 SHORT $LL149@GuildComba
$LN617@GuildComba:

; 54   :             }
; 55   : 
; 56   :             _Ptr = _Pnode; // ==> parent (head if end())

  00532	8b f0		 mov	 esi, eax

; 57   :         } else {

  00534	eb 16		 jmp	 SHORT $LN157@GuildComba
$LN151@GuildComba:

; 58   :             _Ptr = _Mytree::_Min(_Ptr->_Right); // ==> smallest of right subtree

  00536	8b f0		 mov	 esi, eax

; 476  :         while (!_Pnode->_Left->_Isnil) {

  00538	8b 0e		 mov	 ecx, DWORD PTR [esi]
  0053a	80 79 0d 00	 cmp	 BYTE PTR [ecx+13], 0
  0053e	75 0c		 jne	 SHORT $LN157@GuildComba
$LL156@GuildComba:
  00540	8b 01		 mov	 eax, DWORD PTR [ecx]

; 477  :             _Pnode = _Pnode->_Left;

  00542	8b f1		 mov	 esi, ecx
  00544	8b c8		 mov	 ecx, eax
  00546	80 78 0d 00	 cmp	 BYTE PTR [eax+13], 0
  0054a	74 f4		 je	 SHORT $LL156@GuildComba
$LN157@GuildComba:

; 237  :         return !(*this == _Right);

  0054c	8b 45 e4	 mov	 eax, DWORD PTR _pGuild$1$[ebp]
  0054f	3b 70 38	 cmp	 esi, DWORD PTR [eax+56]
; File C:\IAGOS\server\v18\Source\Source\_Common\GuildCombat1to1.cpp

; 1114 : 			for( map<u_long, CGuildMember*>::iterator it2=pGuild->m_mapPMember.begin(); it2!=pGuild->m_mapPMember.end(); it2++ )

  00552	0f 85 68 ff ff
	ff		 jne	 $LL13@GuildComba
  00558	8b 7d 08	 mov	 edi, DWORD PTR _it$4$[ebp]
  0055b	8b 5d f0	 mov	 ebx, DWORD PTR _this$1$[ebp]
$LN8@GuildComba:
; File C:\Program Files\Microsoft Visual Studio\2022\Professional\VC\Tools\MSVC\14.44.35207\include\vector

; 82   :         ++_Ptr;

  0055e	83 c7 2c	 add	 edi, 44			; 0000002cH
  00561	89 7d 08	 mov	 DWORD PTR _it$4$[ebp], edi

; 176  :         return !(*this == _Right);

  00564	3b 7b 50	 cmp	 edi, DWORD PTR [ebx+80]
; File C:\IAGOS\server\v18\Source\Source\_Common\GuildCombat1to1.cpp

; 1109 : 	for( it=m_vecTenderGuild.begin(); it!=m_vecTenderGuild.end(); it++ )

  00567	0f 85 23 ff ff
	ff		 jne	 $LL10@GuildComba
$LN9@GuildComba:

; 1119 : 			}
; 1120 : 		}
; 1121 : 	}
; 1122 : 
; 1123 : 	g_dpDBClient.SendGC1to1StateToDBSrvr();	// 1:1±ćµĺ´ëŔüŔĚ żŔÇÂµÇľú´Ů°í DBServerżˇ ľË¸˛

  0056d	b9 00 00 00 00	 mov	 ecx, OFFSET ?g_dpDBClient@@3VCDPDatabaseClient@@A ; g_dpDBClient
  00572	e8 00 00 00 00	 call	 ?SendGC1to1StateToDBSrvr@CDPDatabaseClient@@QAEXXZ ; CDPDatabaseClient::SendGC1to1StateToDBSrvr
$LN1@GuildComba:

; 1124 : }

  00577	8b 4d f4	 mov	 ecx, DWORD PTR __$EHRec$[ebp]
  0057a	64 89 0d 00 00
	00 00		 mov	 DWORD PTR fs:0, ecx
  00581	59		 pop	 ecx
  00582	5f		 pop	 edi
  00583	5e		 pop	 esi
  00584	5b		 pop	 ebx
  00585	8b e5		 mov	 esp, ebp
  00587	5d		 pop	 ebp
  00588	c2 04 00	 ret	 4
$LN621@GuildComba:
; File C:\Program Files\Microsoft Visual Studio\2022\Professional\VC\Tools\MSVC\14.44.35207\atlmfc\include\atlsimpstr.h

; 209  : 		ATLENSURE( pStringMgr != NULL );

  0058b	68 05 40 00 80	 push	 -2147467259		; 80004005H
  00590	e8 00 00 00 00	 call	 ?AtlThrowImpl@ATL@@YGXJ@Z ; ATL::AtlThrowImpl
$LN619@GuildComba:
  00595	cc		 int	 3
_TEXT	ENDS
;	COMDAT text$x
text$x	SEGMENT
__unwindfunclet$?GuildCombat1to1Open@CGuildCombat1to1Mng@@QAEXH@Z$0:
  00000	8d 4d 08	 lea	 ecx, DWORD PTR _strTemp$5[ebp]
  00003	e9 00 00 00 00	 jmp	 ??1?$CStringT@DV?$StrTraitMFC@DV?$ChTraitsCRT@D@ATL@@@@@ATL@@QAE@XZ ; ATL::CStringT<char,StrTraitMFC<char,ATL::ChTraitsCRT<char> > >::~CStringT<char,StrTraitMFC<char,ATL::ChTraitsCRT<char> > >
  00008	cc		 int	 3
  00009	cc		 int	 3
  0000a	cc		 int	 3
  0000b	cc		 int	 3
  0000c	cc		 int	 3
__ehhandler$?GuildCombat1to1Open@CGuildCombat1to1Mng@@QAEXH@Z:
  0000d	90		 npad	 1
  0000e	90		 npad	 1
  0000f	8b 54 24 08	 mov	 edx, DWORD PTR [esp+8]
  00013	8d 42 0c	 lea	 eax, DWORD PTR [edx+12]
  00016	8b 4a e0	 mov	 ecx, DWORD PTR [edx-32]
  00019	33 c8		 xor	 ecx, eax
  0001b	e8 00 00 00 00	 call	 @__security_check_cookie@4
  00020	b8 00 00 00 00	 mov	 eax, OFFSET __ehfuncinfo$?GuildCombat1to1Open@CGuildCombat1to1Mng@@QAEXH@Z
  00025	e9 00 00 00 00	 jmp	 ___CxxFrameHandler3
text$x	ENDS
?GuildCombat1to1Open@CGuildCombat1to1Mng@@QAEXH@Z ENDP	; CGuildCombat1to1Mng::GuildCombat1to1Open
; Function compile flags: /Ogtp
; File C:\IAGOS\server\v18\Source\Source\_Common\GuildCombat1to1.cpp
;	COMDAT ?SendNowState@CGuildCombat1to1Mng@@QAEXPAVCUser@@@Z
_TEXT	SEGMENT
_pUser$ = 8						; size = 4
?SendNowState@CGuildCombat1to1Mng@@QAEXPAVCUser@@@Z PROC ; CGuildCombat1to1Mng::SendNowState, COMDAT
; _this$ = ecx

; 988  : {

  00000	55		 push	 ebp
  00001	8b ec		 mov	 ebp, esp
  00003	56		 push	 esi
  00004	8b f1		 mov	 esi, ecx

; 989  : 	if( !g_eLocal.GetState( EVE_GUILDCOMBAT1TO1 ) )

  00006	b9 00 00 00 00	 mov	 ecx, OFFSET ?g_eLocal@@3VCFlyffEvent@@A ; g_eLocal
  0000b	6a 16		 push	 22			; 00000016H
  0000d	e8 00 00 00 00	 call	 ?GetState@CFlyffEvent@@QAEEH@Z ; CFlyffEvent::GetState
  00012	84 c0		 test	 al, al
  00014	0f 84 82 00 00
	00		 je	 $LN14@SendNowSta

; 990  : 		return;
; 991  : 	
; 992  : 	switch( m_nState )

  0001a	8b 46 04	 mov	 eax, DWORD PTR [esi+4]
  0001d	83 f8 03	 cmp	 eax, 3
  00020	77 7a		 ja	 SHORT $LN14@SendNowSta
  00022	57		 push	 edi
  00023	ff 24 85 00 00
	00 00		 jmp	 DWORD PTR $LN16@SendNowSta[eax*4]
$LN5@SendNowSta:

; 993  : 	{
; 994  : 		case GC1TO1_OPEN :
; 995  : 		{
; 996  : 			int nIndex = GetTenderGuildIndexByUser( pUser );

  0002a	8b 7d 08	 mov	 edi, DWORD PTR _pUser$[ebp]
  0002d	8b ce		 mov	 ecx, esi
  0002f	57		 push	 edi
  00030	e8 00 00 00 00	 call	 ?GetTenderGuildIndexByUser@CGuildCombat1to1Mng@@QAEHPAVCUser@@@Z ; CGuildCombat1to1Mng::GetTenderGuildIndexByUser

; 997  : //			if( nIndex != NULL_ID && IsGuildMaster( pUser ) )
; 998  : 			if( nIndex != NULL_ID )

  00035	83 f8 ff	 cmp	 eax, -1
  00038	74 61		 je	 SHORT $LN24@SendNowSta
$LN28@SendNowSta:

; 1024 : 				pUser->AddGC1to1NowState( m_nState, 0 );

  0003a	6a 00		 push	 0
  0003c	ff 76 18	 push	 DWORD PTR [esi+24]
  0003f	8b cf		 mov	 ecx, edi
  00041	ff 76 04	 push	 DWORD PTR [esi+4]
  00044	e8 00 00 00 00	 call	 ?AddGC1to1NowState@CUser@@QAEXHHH@Z ; CUser::AddGC1to1NowState
  00049	5f		 pop	 edi
  0004a	5e		 pop	 esi

; 1025 : 			break;
; 1026 : 		}
; 1027 : 	}
; 1028 : }

  0004b	5d		 pop	 ebp
  0004c	c2 04 00	 ret	 4
$LN7@SendNowSta:

; 999  : 				pUser->AddGC1to1NowState( m_nState, m_nWaitTime );
; 1000 : 			break;
; 1001 : 		}
; 1002 : 			
; 1003 : 		case GC1TO1_ENTRANCE :
; 1004 : 		{
; 1005 : 			if( IsLineUpMember( pUser ) )

  0004f	8b 7d 08	 mov	 edi, DWORD PTR _pUser$[ebp]
  00052	8b ce		 mov	 ecx, esi
  00054	57		 push	 edi
  00055	e8 00 00 00 00	 call	 ?IsLineUpMember@CGuildCombat1to1Mng@@QAEHPAVCUser@@@Z ; CGuildCombat1to1Mng::IsLineUpMember
  0005a	85 c0		 test	 eax, eax
  0005c	75 dc		 jne	 SHORT $LN28@SendNowSta

; 1006 : 				pUser->AddGC1to1NowState( m_nState, m_nWaitTime );
; 1007 : 			else if( IsGuildMaster( pUser ) )

  0005e	57		 push	 edi
  0005f	8b ce		 mov	 ecx, esi
  00061	e8 00 00 00 00	 call	 ?IsGuildMaster@CGuildCombat1to1Mng@@QAEHPAVCUser@@@Z ; CGuildCombat1to1Mng::IsGuildMaster
  00066	85 c0		 test	 eax, eax
  00068	74 31		 je	 SHORT $LN24@SendNowSta

; 1008 : 				pUser->AddGC1to1NowState( GC1TO1_WAR, 0 );

  0006a	6a 00		 push	 0
  0006c	6a 00		 push	 0
  0006e	6a 03		 push	 3

; 1024 : 				pUser->AddGC1to1NowState( m_nState, 0 );

  00070	8b cf		 mov	 ecx, edi
  00072	e8 00 00 00 00	 call	 ?AddGC1to1NowState@CUser@@QAEXHHH@Z ; CUser::AddGC1to1NowState
  00077	5f		 pop	 edi
  00078	5e		 pop	 esi

; 1025 : 			break;
; 1026 : 		}
; 1027 : 	}
; 1028 : }

  00079	5d		 pop	 ebp
  0007a	c2 04 00	 ret	 4
$LN13@SendNowSta:

; 1009 : 			break;
; 1010 : 		}		
; 1011 : 
; 1012 : 		case GC1TO1_WAR :
; 1013 : 		{
; 1014 : 			int nIndex = GetTenderGuildIndexByUser( pUser );
; 1015 : 			if( nIndex != NULL_ID )
; 1016 : 				pUser->AddGC1to1NowState( m_nState, 0 );
; 1017 : 			break;
; 1018 : 		}
; 1019 : 
; 1020 : 		case GC1TO1_CLOSE :
; 1021 : 		{
; 1022 : 			int nIndex = GetTenderGuildIndexByUser( pUser );
; 1023 : 			if( nIndex != NULL_ID )

  0007d	8b 7d 08	 mov	 edi, DWORD PTR _pUser$[ebp]
  00080	8b ce		 mov	 ecx, esi
  00082	57		 push	 edi
  00083	e8 00 00 00 00	 call	 ?GetTenderGuildIndexByUser@CGuildCombat1to1Mng@@QAEHPAVCUser@@@Z ; CGuildCombat1to1Mng::GetTenderGuildIndexByUser
  00088	83 f8 ff	 cmp	 eax, -1
  0008b	74 0e		 je	 SHORT $LN24@SendNowSta

; 1024 : 				pUser->AddGC1to1NowState( m_nState, 0 );

  0008d	6a 00		 push	 0
  0008f	6a 00		 push	 0
  00091	ff 76 04	 push	 DWORD PTR [esi+4]
  00094	8b cf		 mov	 ecx, edi
  00096	e8 00 00 00 00	 call	 ?AddGC1to1NowState@CUser@@QAEXHHH@Z ; CUser::AddGC1to1NowState
$LN24@SendNowSta:
  0009b	5f		 pop	 edi
$LN14@SendNowSta:
  0009c	5e		 pop	 esi

; 1025 : 			break;
; 1026 : 		}
; 1027 : 	}
; 1028 : }

  0009d	5d		 pop	 ebp
  0009e	c2 04 00	 ret	 4
  000a1	0f 1f 00	 npad	 3
$LN16@SendNowSta:
  000a4	00 00 00 00	 DD	 $LN13@SendNowSta
  000a8	00 00 00 00	 DD	 $LN5@SendNowSta
  000ac	00 00 00 00	 DD	 $LN7@SendNowSta
  000b0	00 00 00 00	 DD	 $LN13@SendNowSta
?SendNowState@CGuildCombat1to1Mng@@QAEXPAVCUser@@@Z ENDP ; CGuildCombat1to1Mng::SendNowState
_TEXT	ENDS
; Function compile flags: /Ogtp
; File C:\IAGOS\server\v18\Source\Source\_Common\GuildCombat1to1.cpp
; File C:\Program Files\Microsoft Visual Studio\2022\Professional\VC\Tools\MSVC\14.44.35207\include\vector
; File C:\IAGOS\server\v18\Source\Source\_Common\GuildCombat1to1.cpp
; File C:\Program Files\Microsoft Visual Studio\2022\Professional\VC\Tools\MSVC\14.44.35207\include\vector
; File C:\IAGOS\server\v18\Source\Source\_Common\GuildCombat1to1.cpp
; File C:\Program Files\Microsoft Visual Studio\2022\Professional\VC\Tools\MSVC\14.44.35207\include\vector
; File C:\IAGOS\server\v18\Source\Source\_Common\GuildCombat1to1.cpp
; File C:\Program Files\Microsoft Visual Studio\2022\Professional\VC\Tools\MSVC\14.44.35207\include\vector
; File C:\IAGOS\server\v18\Source\Source\_Common\GuildCombat1to1.cpp
; File C:\IAGOS\server\v18\Source\Source\_Common\GuildCombat1to1.h
; File C:\IAGOS\server\v18\Source\Source\_Common\GuildCombat1to1.cpp
; File C:\Program Files\Microsoft Visual Studio\2022\Professional\VC\Tools\MSVC\14.44.35207\include\vector
; File C:\IAGOS\server\v18\Source\Source\_Common\GuildCombat1to1.cpp
; File C:\Program Files\Microsoft Visual Studio\2022\Professional\VC\Tools\MSVC\14.44.35207\include\vector
; File C:\IAGOS\server\v18\Source\Source\_Common\GuildCombat1to1.cpp
; File C:\IAGOS\server\v18\Source\Source\_Common\Project.h
; File C:\IAGOS\server\v18\Source\Source\_Common\data.h
; File C:\IAGOS\server\v18\Source\Source\_Common\Project.h
; File C:\IAGOS\server\v18\Source\Source\_Common\GuildCombat1to1.cpp
;	COMDAT ?Process@CGuildCombat1to1Mng@@QAEXXZ
_TEXT	SEGMENT
tv427 = -8						; size = 4
_i$1$ = -4						; size = 4
?Process@CGuildCombat1to1Mng@@QAEXXZ PROC		; CGuildCombat1to1Mng::Process, COMDAT
; _this$ = ecx

; 929  : {

  00000	55		 push	 ebp
  00001	8b ec		 mov	 ebp, esp
  00003	83 ec 08	 sub	 esp, 8
  00006	56		 push	 esi
  00007	8b f1		 mov	 esi, ecx

; 930  : 	if( !g_eLocal.GetState( EVE_GUILDCOMBAT1TO1 ) )

  00009	b9 00 00 00 00	 mov	 ecx, OFFSET ?g_eLocal@@3VCFlyffEvent@@A ; g_eLocal
  0000e	6a 16		 push	 22			; 00000016H
  00010	e8 00 00 00 00	 call	 ?GetState@CFlyffEvent@@QAEEH@Z ; CFlyffEvent::GetState
  00015	84 c0		 test	 al, al
  00017	0f 84 6b 01 00
	00		 je	 $LN11@Process

; 931  : 		return;
; 932  : 
; 933  : 	if( m_nWaitTime > 0 )

  0001d	83 7e 18 00	 cmp	 DWORD PTR [esi+24], 0
  00021	53		 push	 ebx
  00022	57		 push	 edi
  00023	7e 18		 jle	 SHORT $LN8@Process

; 934  : 	{
; 935  : 		m_nWaitTime -= GetTickCount() - m_dwTime;

  00025	8b 5e 18	 mov	 ebx, DWORD PTR [esi+24]
  00028	03 5e 1c	 add	 ebx, DWORD PTR [esi+28]
  0002b	8b 3d 00 00 00
	00		 mov	 edi, DWORD PTR __imp__GetTickCount@0
  00031	ff d7		 call	 edi
  00033	2b d8		 sub	 ebx, eax
  00035	89 5e 18	 mov	 DWORD PTR [esi+24], ebx

; 936  : 		m_dwTime = GetTickCount();	

  00038	ff d7		 call	 edi
  0003a	89 46 1c	 mov	 DWORD PTR [esi+28], eax
$LN8@Process:

; 937  : 	}
; 938  : 	
; 939  : 	switch( m_nState )

  0003d	8b 46 04	 mov	 eax, DWORD PTR [esi+4]
  00040	83 e8 01	 sub	 eax, 1
  00043	0f 84 22 01 00
	00		 je	 $LN10@Process
  00049	83 e8 01	 sub	 eax, 1
  0004c	0f 84 fe 00 00
	00		 je	 $LN12@Process
  00052	83 e8 01	 sub	 eax, 1
  00055	0f 85 2b 01 00
	00		 jne	 $LN66@Process
; File C:\Program Files\Microsoft Visual Studio\2022\Professional\VC\Tools\MSVC\14.44.35207\include\vector

; 1915 :         return static_cast<size_type>(_My_data._Mylast - _My_data._Myfirst);

  0005b	8b 7e 40	 mov	 edi, DWORD PTR [esi+64]
; File C:\IAGOS\server\v18\Source\Source\_Common\GuildCombat1to1.cpp

; 968  : 			for( int i=0; i<(int)( m_vecGuilCombat1to1.size() ); i++ )

  0005e	33 c9		 xor	 ecx, ecx
  00060	89 4d fc	 mov	 DWORD PTR _i$1$[ebp], ecx
; File C:\Program Files\Microsoft Visual Studio\2022\Professional\VC\Tools\MSVC\14.44.35207\include\vector

; 1915 :         return static_cast<size_type>(_My_data._Mylast - _My_data._Myfirst);

  00063	b8 e9 a2 8b 2e	 mov	 eax, 780903145		; 2e8ba2e9H
  00068	8b 4e 44	 mov	 ecx, DWORD PTR [esi+68]
; File C:\IAGOS\server\v18\Source\Source\_Common\GuildCombat1to1.cpp

; 967  : 			int nCloseCount=0;

  0006b	33 db		 xor	 ebx, ebx
; File C:\Program Files\Microsoft Visual Studio\2022\Professional\VC\Tools\MSVC\14.44.35207\include\vector

; 1915 :         return static_cast<size_type>(_My_data._Mylast - _My_data._Myfirst);

  0006d	2b cf		 sub	 ecx, edi
  0006f	f7 e9		 imul	 ecx
  00071	c1 fa 03	 sar	 edx, 3
  00074	8b c2		 mov	 eax, edx
  00076	c1 e8 1f	 shr	 eax, 31			; 0000001fH
  00079	03 c2		 add	 eax, edx
; File C:\IAGOS\server\v18\Source\Source\_Common\GuildCombat1to1.cpp

; 968  : 			for( int i=0; i<(int)( m_vecGuilCombat1to1.size() ); i++ )

  0007b	85 c0		 test	 eax, eax
  0007d	7e 47		 jle	 SHORT $LN5@Process
  0007f	33 c0		 xor	 eax, eax
  00081	89 45 f8	 mov	 DWORD PTR tv427[ebp], eax
$LL6@Process:
; File C:\Program Files\Microsoft Visual Studio\2022\Professional\VC\Tools\MSVC\14.44.35207\include\vector

; 1934 :         return _My_data._Myfirst[_Pos];

  00084	8d 0c 38	 lea	 ecx, DWORD PTR [eax+edi]
; File C:\IAGOS\server\v18\Source\Source\_Common\GuildCombat1to1.cpp

; 970  : 				m_vecGuilCombat1to1[i].Process();	// °˘ ´ëŔüŔĺş° process

  00087	e8 00 00 00 00	 call	 ?Process@CGuildCombat1to1@@QAEXXZ ; CGuildCombat1to1::Process
  0008c	8b 4d f8	 mov	 ecx, DWORD PTR tv427[ebp]
  0008f	8d 43 01	 lea	 eax, DWORD PTR [ebx+1]
; File C:\IAGOS\server\v18\Source\Source\_Common\GuildCombat1to1.h

; 164  : 	BOOL	IsClosed() { return m_nState == GC1TO1WAR_CLOSE; }

  00092	8b 7e 40	 mov	 edi, DWORD PTR [esi+64]
; File C:\IAGOS\server\v18\Source\Source\_Common\GuildCombat1to1.cpp

; 968  : 			for( int i=0; i<(int)( m_vecGuilCombat1to1.size() ); i++ )

  00095	83 7c 39 10 64	 cmp	 DWORD PTR [ecx+edi+16], 100 ; 00000064H
  0009a	0f 45 c3	 cmovne	 eax, ebx
  0009d	ff 45 fc	 inc	 DWORD PTR _i$1$[ebp]
  000a0	83 c1 2c	 add	 ecx, 44			; 0000002cH
  000a3	8b d8		 mov	 ebx, eax
  000a5	89 4d f8	 mov	 DWORD PTR tv427[ebp], ecx
; File C:\Program Files\Microsoft Visual Studio\2022\Professional\VC\Tools\MSVC\14.44.35207\include\vector

; 1915 :         return static_cast<size_type>(_My_data._Mylast - _My_data._Myfirst);

  000a8	b8 e9 a2 8b 2e	 mov	 eax, 780903145		; 2e8ba2e9H
  000ad	8b 4e 44	 mov	 ecx, DWORD PTR [esi+68]
  000b0	2b cf		 sub	 ecx, edi
  000b2	f7 e9		 imul	 ecx
  000b4	c1 fa 03	 sar	 edx, 3
  000b7	8b c2		 mov	 eax, edx
  000b9	c1 e8 1f	 shr	 eax, 31			; 0000001fH
  000bc	03 c2		 add	 eax, edx
; File C:\IAGOS\server\v18\Source\Source\_Common\GuildCombat1to1.cpp

; 968  : 			for( int i=0; i<(int)( m_vecGuilCombat1to1.size() ); i++ )

  000be	39 45 fc	 cmp	 DWORD PTR _i$1$[ebp], eax
  000c1	8b 45 f8	 mov	 eax, DWORD PTR tv427[ebp]
  000c4	7c be		 jl	 SHORT $LL6@Process
$LN5@Process:
; File C:\Program Files\Microsoft Visual Studio\2022\Professional\VC\Tools\MSVC\14.44.35207\include\vector

; 1915 :         return static_cast<size_type>(_My_data._Mylast - _My_data._Myfirst);

  000c6	8b 4e 44	 mov	 ecx, DWORD PTR [esi+68]
  000c9	b8 e9 a2 8b 2e	 mov	 eax, 780903145		; 2e8ba2e9H
  000ce	2b cf		 sub	 ecx, edi
  000d0	f7 e9		 imul	 ecx
  000d2	c1 fa 03	 sar	 edx, 3
  000d5	8b c2		 mov	 eax, edx
  000d7	c1 e8 1f	 shr	 eax, 31			; 0000001fH
  000da	03 c2		 add	 eax, edx
; File C:\IAGOS\server\v18\Source\Source\_Common\GuildCombat1to1.cpp

; 975  : 			if( nCloseCount >= (int)( m_vecGuilCombat1to1.size() ) )	// ¸đµç ´ëŔüŔĺŔÇ ´ëŔüŔĚ Áľ·áµÇľúŔ» ¶§ Ăł¸®

  000dc	3b d8		 cmp	 ebx, eax
  000de	0f 8c a2 00 00
	00		 jl	 $LN66@Process

; 976  : 			{
; 977  : 				ClearTime();

  000e4	8b ce		 mov	 ecx, esi
  000e6	e8 00 00 00 00	 call	 ?ClearTime@CGuildCombat1to1Mng@@QAEXXZ ; CGuildCombat1to1Mng::ClearTime
; File C:\IAGOS\server\v18\Source\Source\_Common\Project.h

; 1427 : 	VERIFY_RANGE( (int)( dwIndex ), 0, m_colorText.GetSize(), "GetText range_error", "error" );

  000eb	a1 ac 02 00 00	 mov	 eax, DWORD PTR ?prj@@3VCProject@@A+684
  000f0	3d 7d 0d 00 00	 cmp	 eax, 3453		; 00000d7dH
  000f5	7f 21		 jg	 SHORT $LN33@Process

; 579  : 	LPCTSTR szErr = Error( _T( "%s min:%d, max:%d, index:%d" ), szMsg, nMin, nMax, nIndex ); 

  000f7	68 7d 0d 00 00	 push	 3453			; 00000d7dH
  000fc	50		 push	 eax
  000fd	6a 00		 push	 0
  000ff	68 00 00 00 00	 push	 OFFSET ??_C@_0BE@OHDBLHOM@GetText?5range_error@
  00104	68 00 00 00 00	 push	 OFFSET ??_C@_0BM@HMFGHCP@?$CFs?5min?3?$CFd?0?5max?3?$CFd?0?5index?3?$CFd@
  00109	e8 00 00 00 00	 call	 ?Error@@YAPBDPBDZZ	; Error
  0010e	83 c4 14	 add	 esp, 20			; 00000014H

; 1427 : 	VERIFY_RANGE( (int)( dwIndex ), 0, m_colorText.GetSize(), "GetText range_error", "error" );

  00111	b8 00 00 00 00	 mov	 eax, OFFSET ??_C@_05KKCIMGE@error@
  00116	eb 1b		 jmp	 SHORT $LN32@Process
$LN33@Process:
; File C:\IAGOS\server\v18\Source\Source\_Common\data.h

; 270  : 	if( dwIndex >= (DWORD)m_nMaxIndex )

  00118	76 14		 jbe	 SHORT $LN52@Process

; 271  : 		return NULL;
; 272  : 	return (T*) m_apOffset[ dwIndex ];

  0011a	a1 9c 02 00 00	 mov	 eax, DWORD PTR ?prj@@3VCProject@@A+668
  0011f	8b 80 f4 35 00
	00		 mov	 eax, DWORD PTR [eax+13812]
; File C:\IAGOS\server\v18\Source\Source\_Common\Project.h

; 1428 : 	if( m_colorText.GetAt( dwIndex ) == NULL )

  00125	85 c0		 test	 eax, eax
  00127	74 05		 je	 SHORT $LN52@Process

; 1430 : 	return m_colorText.GetAt( dwIndex )->lpszData; 

  00129	8b 40 04	 mov	 eax, DWORD PTR [eax+4]
  0012c	eb 05		 jmp	 SHORT $LN32@Process
$LN52@Process:

; 1429 : 		return "";

  0012e	b8 00 00 00 00	 mov	 eax, OFFSET ??_C@_00CNPNBAHC@@
$LN32@Process:
; File C:\IAGOS\server\v18\Source\Source\_Common\GuildCombat1to1.cpp

; 978  : 				g_DPCoreClient.SendCaption( prj.GetText( TID_GAME_GUILDCOMBAT1TO1_ALLCLOSE ) );

  00133	6a 00		 push	 0
  00135	6a 00		 push	 0
  00137	50		 push	 eax
  00138	b9 00 00 00 00	 mov	 ecx, OFFSET ?g_DPCoreClient@@3VCDPCoreClient@@A ; g_DPCoreClient
  0013d	e8 00 00 00 00	 call	 ?SendCaption@CDPCoreClient@@QAEXPBDKH@Z ; CDPCoreClient::SendCaption

; 979  : 				GuildCombat1to1AllClose();

  00142	8b ce		 mov	 ecx, esi
  00144	e8 00 00 00 00	 call	 ?GuildCombat1to1AllClose@CGuildCombat1to1Mng@@QAEXXZ ; CGuildCombat1to1Mng::GuildCombat1to1AllClose
  00149	5f		 pop	 edi
  0014a	5b		 pop	 ebx
  0014b	5e		 pop	 esi

; 980  : 			}
; 981  : 			break;
; 982  : 		}
; 983  : 	}
; 984  : }

  0014c	8b e5		 mov	 esp, ebp
  0014e	5d		 pop	 ebp
  0014f	c3		 ret	 0
$LN12@Process:

; 951  : 			}
; 952  : 			break;
; 953  : 		}
; 954  : 
; 955  : 		case GC1TO1_ENTRANCE :	// ŔÔŔĺ ´ë±â ˝Ă°Ł
; 956  : 		{
; 957  : 			if( m_nWaitTime <=0 )

  00150	83 7e 18 00	 cmp	 DWORD PTR [esi+24], 0
  00154	7f 30		 jg	 SHORT $LN66@Process

; 958  : 			{
; 959  : 				ClearTime();

  00156	8b ce		 mov	 ecx, esi
  00158	e8 00 00 00 00	 call	 ?ClearTime@CGuildCombat1to1Mng@@QAEXXZ ; CGuildCombat1to1Mng::ClearTime

; 960  : 				GuildCombat1to1War();

  0015d	8b ce		 mov	 ecx, esi
  0015f	e8 00 00 00 00	 call	 ?GuildCombat1to1War@CGuildCombat1to1Mng@@QAEXXZ ; CGuildCombat1to1Mng::GuildCombat1to1War
  00164	5f		 pop	 edi
  00165	5b		 pop	 ebx
  00166	5e		 pop	 esi

; 980  : 			}
; 981  : 			break;
; 982  : 		}
; 983  : 	}
; 984  : }

  00167	8b e5		 mov	 esp, ebp
  00169	5d		 pop	 ebp
  0016a	c3		 ret	 0
$LN10@Process:

; 940  : 	{
; 941  : 		case GC1TO1_CLOSE :	// ¸đµç ´ëŔüŔĺŔÇ ´ëŔüŔĚ Áľ·áµÇľú°ĹłŞ żŔÇÂµÇÁö ľĘŔş »óĹÂ
; 942  : 			break;
; 943  : 		
; 944  : 		case GC1TO1_OPEN : // 1:1 ±ćµĺ´ëŔü żŔÇÂµČ »óĹÂ...(Âü°ˇŔÚ ±¸Ľş˝Ă°Ł)
; 945  : 		{
; 946  : 			if( m_nWaitTime <= 0 )

  0016b	83 7e 18 00	 cmp	 DWORD PTR [esi+24], 0
  0016f	7f 15		 jg	 SHORT $LN66@Process

; 947  : 			{
; 948  : 				ClearTime();

  00171	8b ce		 mov	 ecx, esi
  00173	e8 00 00 00 00	 call	 ?ClearTime@CGuildCombat1to1Mng@@QAEXXZ ; CGuildCombat1to1Mng::ClearTime

; 949  : 				CreateGuildCombat1to1();

  00178	8b ce		 mov	 ecx, esi
  0017a	e8 00 00 00 00	 call	 ?CreateGuildCombat1to1@CGuildCombat1to1Mng@@QAEXXZ ; CGuildCombat1to1Mng::CreateGuildCombat1to1

; 950  : 				GuildCombat1to1EntranceWait();

  0017f	8b ce		 mov	 ecx, esi
  00181	e8 00 00 00 00	 call	 ?GuildCombat1to1EntranceWait@CGuildCombat1to1Mng@@QAEXXZ ; CGuildCombat1to1Mng::GuildCombat1to1EntranceWait
$LN66@Process:
  00186	5f		 pop	 edi
  00187	5b		 pop	 ebx
$LN11@Process:
  00188	5e		 pop	 esi

; 980  : 			}
; 981  : 			break;
; 982  : 		}
; 983  : 	}
; 984  : }

  00189	8b e5		 mov	 esp, ebp
  0018b	5d		 pop	 ebp
  0018c	c3		 ret	 0
?Process@CGuildCombat1to1Mng@@QAEXXZ ENDP		; CGuildCombat1to1Mng::Process
_TEXT	ENDS
; Function compile flags: /Ogtp
; File C:\IAGOS\server\v18\Source\Source\_Common\GuildCombat1to1.cpp
; File C:\Program Files\Microsoft Visual Studio\2022\Professional\VC\Tools\MSVC\14.44.35207\include\vector
; File C:\IAGOS\server\v18\Source\Source\_Common\GuildCombat1to1.cpp
; File C:\Program Files\Microsoft Visual Studio\2022\Professional\VC\Tools\MSVC\14.44.35207\include\vector
; File C:\IAGOS\server\v18\Source\Source\_Common\GuildCombat1to1.cpp
; File C:\Program Files\Microsoft Visual Studio\2022\Professional\VC\Tools\MSVC\14.44.35207\include\vector
; File C:\IAGOS\server\v18\Source\Source\_Common\GuildCombat1to1.cpp
;	COMDAT ?IsPossibleUser@CGuildCombat1to1Mng@@QAEHPAVCUser@@@Z
_TEXT	SEGMENT
_pUser$ = 8						; size = 4
?IsPossibleUser@CGuildCombat1to1Mng@@QAEHPAVCUser@@@Z PROC ; CGuildCombat1to1Mng::IsPossibleUser, COMDAT
; _this$ = ecx

; 913  : {

  00000	55		 push	 ebp
  00001	8b ec		 mov	 ebp, esp
  00003	56		 push	 esi

; 914  : 	if( !pUser )

  00004	8b 75 08	 mov	 esi, DWORD PTR _pUser$[ebp]
  00007	57		 push	 edi
  00008	8b f9		 mov	 edi, ecx
  0000a	85 f6		 test	 esi, esi
  0000c	74 32		 je	 SHORT $LN4@IsPossible

; 915  : 		return FALSE;
; 916  : 
; 917  : 	int nIndex = GetTenderGuildIndexByUser( pUser );

  0000e	56		 push	 esi
  0000f	e8 00 00 00 00	 call	 ?GetTenderGuildIndexByUser@CGuildCombat1to1Mng@@QAEHPAVCUser@@@Z ; CGuildCombat1to1Mng::GetTenderGuildIndexByUser

; 918  : 	if( nIndex != NULL_ID )

  00014	83 f8 ff	 cmp	 eax, -1
  00017	74 27		 je	 SHORT $LN4@IsPossible
; File C:\Program Files\Microsoft Visual Studio\2022\Professional\VC\Tools\MSVC\14.44.35207\include\vector

; 1934 :         return _My_data._Myfirst[_Pos];

  00019	6b c8 2c	 imul	 ecx, eax, 44
; File C:\IAGOS\server\v18\Source\Source\_Common\GuildCombat1to1.cpp

; 920  : 		int nStageId = m_vecTenderGuild[nIndex].nStageId;

  0001c	8b 47 4c	 mov	 eax, DWORD PTR [edi+76]
  0001f	8b 44 01 08	 mov	 eax, DWORD PTR [ecx+eax+8]

; 921  : 		if( nStageId != NULL_ID && m_vecGuilCombat1to1[nStageId].IsPossibleUser( pUser ) )

  00023	83 f8 ff	 cmp	 eax, -1
  00026	74 18		 je	 SHORT $LN4@IsPossible
; File C:\Program Files\Microsoft Visual Studio\2022\Professional\VC\Tools\MSVC\14.44.35207\include\vector

; 1934 :         return _My_data._Myfirst[_Pos];

  00028	6b c8 2c	 imul	 ecx, eax, 44
; File C:\IAGOS\server\v18\Source\Source\_Common\GuildCombat1to1.cpp

; 921  : 		if( nStageId != NULL_ID && m_vecGuilCombat1to1[nStageId].IsPossibleUser( pUser ) )

  0002b	56		 push	 esi
; File C:\Program Files\Microsoft Visual Studio\2022\Professional\VC\Tools\MSVC\14.44.35207\include\vector

; 1934 :         return _My_data._Myfirst[_Pos];

  0002c	03 4f 40	 add	 ecx, DWORD PTR [edi+64]
; File C:\IAGOS\server\v18\Source\Source\_Common\GuildCombat1to1.cpp

; 921  : 		if( nStageId != NULL_ID && m_vecGuilCombat1to1[nStageId].IsPossibleUser( pUser ) )

  0002f	e8 00 00 00 00	 call	 ?IsPossibleUser@CGuildCombat1to1@@QAEHPAVCUser@@@Z ; CGuildCombat1to1::IsPossibleUser
  00034	f7 d8		 neg	 eax
  00036	5f		 pop	 edi
  00037	1b c0		 sbb	 eax, eax
  00039	f7 d8		 neg	 eax

; 926  : }

  0003b	5e		 pop	 esi
  0003c	5d		 pop	 ebp
  0003d	c2 04 00	 ret	 4
$LN4@IsPossible:
  00040	5f		 pop	 edi

; 922  : 			return TRUE;
; 923  : 	}
; 924  : 
; 925  : 	return FALSE;

  00041	33 c0		 xor	 eax, eax

; 926  : }

  00043	5e		 pop	 esi
  00044	5d		 pop	 ebp
  00045	c2 04 00	 ret	 4
?IsPossibleUser@CGuildCombat1to1Mng@@QAEHPAVCUser@@@Z ENDP ; CGuildCombat1to1Mng::IsPossibleUser
_TEXT	ENDS
; Function compile flags: /Ogtp
; File C:\IAGOS\server\v18\Source\Source\_Common\GuildCombat1to1.cpp
; File C:\Program Files\Microsoft Visual Studio\2022\Professional\VC\Tools\MSVC\14.44.35207\include\vector
; File C:\IAGOS\server\v18\Source\Source\_Common\GuildCombat1to1.cpp
; File C:\Program Files\Microsoft Visual Studio\2022\Professional\VC\Tools\MSVC\14.44.35207\include\vector
; File C:\IAGOS\server\v18\Source\Source\_Common\GuildCombat1to1.cpp
; File C:\Program Files\Microsoft Visual Studio\2022\Professional\VC\Tools\MSVC\14.44.35207\include\vector
; File C:\IAGOS\server\v18\Source\Source\_Common\GuildCombat1to1.cpp
; File C:\Program Files\Microsoft Visual Studio\2022\Professional\VC\Tools\MSVC\14.44.35207\include\vector
; File C:\IAGOS\server\v18\Source\Source\_Common\GuildCombat1to1.cpp
;	COMDAT ?IsLineUpMember@CGuildCombat1to1Mng@@QAEHPAVCUser@@@Z
_TEXT	SEGMENT
_pUser$ = 8						; size = 4
?IsLineUpMember@CGuildCombat1to1Mng@@QAEHPAVCUser@@@Z PROC ; CGuildCombat1to1Mng::IsLineUpMember, COMDAT
; _this$ = ecx

; 877  : {

  00000	55		 push	 ebp
  00001	8b ec		 mov	 ebp, esp
  00003	56		 push	 esi

; 878  : 	int nIndex = GetTenderGuildIndexByUser( pUser );

  00004	8b 75 08	 mov	 esi, DWORD PTR _pUser$[ebp]
  00007	57		 push	 edi
  00008	56		 push	 esi
  00009	8b f9		 mov	 edi, ecx
  0000b	e8 00 00 00 00	 call	 ?GetTenderGuildIndexByUser@CGuildCombat1to1Mng@@QAEHPAVCUser@@@Z ; CGuildCombat1to1Mng::GetTenderGuildIndexByUser

; 879  : 	if( nIndex == NULL_ID )

  00010	83 f8 ff	 cmp	 eax, -1
  00013	74 32		 je	 SHORT $LN3@IsLineUpMe
; File C:\Program Files\Microsoft Visual Studio\2022\Professional\VC\Tools\MSVC\14.44.35207\include\vector

; 1914 :         auto& _My_data = _Mypair._Myval2;

  00015	8b 7f 4c	 mov	 edi, DWORD PTR [edi+76]
; File C:\IAGOS\server\v18\Source\Source\_Common\GuildCombat1to1.cpp

; 882  : 	for( int i=0; i<(int)( m_vecTenderGuild[nIndex].vecMemberId.size() ); i++ )

  00018	33 c9		 xor	 ecx, ecx
; File C:\Program Files\Microsoft Visual Studio\2022\Professional\VC\Tools\MSVC\14.44.35207\include\vector

; 1934 :         return _My_data._Myfirst[_Pos];

  0001a	6b d0 2c	 imul	 edx, eax, 44

; 1915 :         return static_cast<size_type>(_My_data._Mylast - _My_data._Myfirst);

  0001d	8b 44 17 24	 mov	 eax, DWORD PTR [edi+edx+36]
  00021	03 fa		 add	 edi, edx
  00023	8b 57 20	 mov	 edx, DWORD PTR [edi+32]
  00026	2b c2		 sub	 eax, edx
; File C:\IAGOS\server\v18\Source\Source\_Common\GuildCombat1to1.cpp

; 882  : 	for( int i=0; i<(int)( m_vecTenderGuild[nIndex].vecMemberId.size() ); i++ )

  00028	a9 fc ff ff ff	 test	 eax, -4			; fffffffcH
  0002d	7e 18		 jle	 SHORT $LN3@IsLineUpMe

; 883  : 	{
; 884  : 		if( m_vecTenderGuild[nIndex].vecMemberId[i] == pUser->m_idPlayer )

  0002f	8b b6 34 02 00
	00		 mov	 esi, DWORD PTR [esi+564]
$LL4@IsLineUpMe:
  00035	39 34 8a	 cmp	 DWORD PTR [edx+ecx*4], esi
  00038	74 15		 je	 SHORT $LN21@IsLineUpMe
; File C:\Program Files\Microsoft Visual Studio\2022\Professional\VC\Tools\MSVC\14.44.35207\include\vector

; 1915 :         return static_cast<size_type>(_My_data._Mylast - _My_data._Myfirst);

  0003a	8b 47 24	 mov	 eax, DWORD PTR [edi+36]
; File C:\IAGOS\server\v18\Source\Source\_Common\GuildCombat1to1.cpp

; 882  : 	for( int i=0; i<(int)( m_vecTenderGuild[nIndex].vecMemberId.size() ); i++ )

  0003d	41		 inc	 ecx
; File C:\Program Files\Microsoft Visual Studio\2022\Professional\VC\Tools\MSVC\14.44.35207\include\vector

; 1915 :         return static_cast<size_type>(_My_data._Mylast - _My_data._Myfirst);

  0003e	2b c2		 sub	 eax, edx
  00040	c1 f8 02	 sar	 eax, 2
; File C:\IAGOS\server\v18\Source\Source\_Common\GuildCombat1to1.cpp

; 882  : 	for( int i=0; i<(int)( m_vecTenderGuild[nIndex].vecMemberId.size() ); i++ )

  00043	3b c8		 cmp	 ecx, eax
  00045	7c ee		 jl	 SHORT $LL4@IsLineUpMe
$LN3@IsLineUpMe:
  00047	5f		 pop	 edi

; 886  : 	}
; 887  : 	
; 888  : 	return FALSE;

  00048	33 c0		 xor	 eax, eax

; 889  : }

  0004a	5e		 pop	 esi
  0004b	5d		 pop	 ebp
  0004c	c2 04 00	 ret	 4
$LN21@IsLineUpMe:
  0004f	5f		 pop	 edi

; 885  : 			return TRUE;

  00050	b8 01 00 00 00	 mov	 eax, 1

; 889  : }

  00055	5e		 pop	 esi
  00056	5d		 pop	 ebp
  00057	c2 04 00	 ret	 4
?IsLineUpMember@CGuildCombat1to1Mng@@QAEHPAVCUser@@@Z ENDP ; CGuildCombat1to1Mng::IsLineUpMember
_TEXT	ENDS
; Function compile flags: /Ogtp
; File C:\IAGOS\server\v18\Source\Source\_Common\GuildCombat1to1.cpp
;	COMDAT ?IsGCTenderGuild@CGuildCombat1to1Mng@@QAEHPAVCUser@@@Z
_TEXT	SEGMENT
_pUser$ = 8						; size = 4
?IsGCTenderGuild@CGuildCombat1to1Mng@@QAEHPAVCUser@@@Z PROC ; CGuildCombat1to1Mng::IsGCTenderGuild, COMDAT
; _this$ = ecx

; 903  : {

  00000	55		 push	 ebp
  00001	8b ec		 mov	 ebp, esp
  00003	56		 push	 esi

; 904  : 	if( g_GuildCombatMng.FindGuildCombatMember( pUser->m_idGuild ) &&

  00004	8b 75 08	 mov	 esi, DWORD PTR _pUser$[ebp]
  00007	b9 00 00 00 00	 mov	 ecx, OFFSET ?g_GuildCombatMng@@3VCGuildCombat@@A ; g_GuildCombatMng
  0000c	ff b6 14 07 00
	00		 push	 DWORD PTR [esi+1812]
  00012	e8 00 00 00 00	 call	 ?FindGuildCombatMember@CGuildCombat@@QAEPAU__GuildCombatMember@1@K@Z ; CGuildCombat::FindGuildCombatMember
  00017	85 c0		 test	 eax, eax
  00019	74 1f		 je	 SHORT $LN2@IsGCTender
  0001b	ff b6 14 07 00
	00		 push	 DWORD PTR [esi+1812]
  00021	b9 00 00 00 00	 mov	 ecx, OFFSET ?g_GuildCombatMng@@3VCGuildCombat@@A ; g_GuildCombatMng
  00026	e8 00 00 00 00	 call	 ?FindGuildCombatMember@CGuildCombat@@QAEPAU__GuildCombatMember@1@K@Z ; CGuildCombat::FindGuildCombatMember
  0002b	33 c9		 xor	 ecx, ecx
  0002d	5e		 pop	 esi
  0002e	39 48 14	 cmp	 DWORD PTR [eax+20], ecx
  00031	0f 95 c1	 setne	 cl

; 905  : 		g_GuildCombatMng.FindGuildCombatMember( pUser->m_idGuild )->bRequest )
; 906  : 		return TRUE;

  00034	8b c1		 mov	 eax, ecx

; 909  : }

  00036	5d		 pop	 ebp
  00037	c2 04 00	 ret	 4
$LN2@IsGCTender:

; 907  : 
; 908  : 	return FALSE;

  0003a	33 c0		 xor	 eax, eax
  0003c	5e		 pop	 esi

; 909  : }

  0003d	5d		 pop	 ebp
  0003e	c2 04 00	 ret	 4
?IsGCTenderGuild@CGuildCombat1to1Mng@@QAEHPAVCUser@@@Z ENDP ; CGuildCombat1to1Mng::IsGCTenderGuild
_TEXT	ENDS
; Function compile flags: /Ogtp
; File C:\IAGOS\server\v18\Source\Source\_Common\GuildCombat1to1.cpp
; File C:\IAGOS\server\v18\Source\Source\_Common\guild.h
; File C:\IAGOS\server\v18\Source\Source\_Common\GuildCombat1to1.cpp
;	COMDAT ?IsGuildMaster@CGuildCombat1to1Mng@@QAEHPAVCUser@@@Z
_TEXT	SEGMENT
_pUser$ = 8						; size = 4
?IsGuildMaster@CGuildCombat1to1Mng@@QAEHPAVCUser@@@Z PROC ; CGuildCombat1to1Mng::IsGuildMaster, COMDAT
; _this$ = ecx

; 893  : {

  00000	55		 push	 ebp
  00001	8b ec		 mov	 ebp, esp
  00003	56		 push	 esi

; 894  : 	CGuild* pGuild = pUser->GetGuild();

  00004	8b 75 08	 mov	 esi, DWORD PTR _pUser$[ebp]
  00007	8b ce		 mov	 ecx, esi
  00009	e8 00 00 00 00	 call	 ?GetGuild@CMover@@QAEPAVCGuild@@XZ ; CMover::GetGuild

; 895  : 	if( pGuild && pGuild->IsMaster( pUser->m_idPlayer ) )

  0000e	85 c0		 test	 eax, eax
  00010	74 13		 je	 SHORT $LN2@IsGuildMas
; File C:\IAGOS\server\v18\Source\Source\_Common\guild.h

; 309  : 	BOOL	IsMaster( u_long idPlayer )	{	return( m_idMaster == idPlayer );	}

  00012	8b 48 40	 mov	 ecx, DWORD PTR [eax+64]
  00015	33 c0		 xor	 eax, eax
  00017	3b 8e 34 02 00
	00		 cmp	 ecx, DWORD PTR [esi+564]
  0001d	5e		 pop	 esi
  0001e	0f 94 c0	 sete	 al
; File C:\IAGOS\server\v18\Source\Source\_Common\GuildCombat1to1.cpp

; 899  : }

  00021	5d		 pop	 ebp
  00022	c2 04 00	 ret	 4
$LN2@IsGuildMas:

; 896  : 		return TRUE;
; 897  : 
; 898  : 	return FALSE;

  00025	33 c0		 xor	 eax, eax
  00027	5e		 pop	 esi

; 899  : }

  00028	5d		 pop	 ebp
  00029	c2 04 00	 ret	 4
?IsGuildMaster@CGuildCombat1to1Mng@@QAEHPAVCUser@@@Z ENDP ; CGuildCombat1to1Mng::IsGuildMaster
_TEXT	ENDS
; Function compile flags: /Ogtp
; File C:\IAGOS\server\v18\Source\Source\_Common\GuildCombat1to1.cpp
; File C:\Program Files\Microsoft Visual Studio\2022\Professional\VC\Tools\MSVC\14.44.35207\include\vector
; File C:\IAGOS\server\v18\Source\Source\_Common\GuildCombat1to1.cpp
; File C:\Program Files\Microsoft Visual Studio\2022\Professional\VC\Tools\MSVC\14.44.35207\include\vector
; File C:\IAGOS\server\v18\Source\Source\_Common\GuildCombat1to1.cpp
; File C:\Program Files\Microsoft Visual Studio\2022\Professional\VC\Tools\MSVC\14.44.35207\include\vector
; File C:\IAGOS\server\v18\Source\Source\_Common\GuildCombat1to1.cpp
; File C:\Program Files\Microsoft Visual Studio\2022\Professional\VC\Tools\MSVC\14.44.35207\include\vector
; File C:\IAGOS\server\v18\Source\Source\_Common\GuildCombat1to1.cpp
;	COMDAT ?GetTargetTenderGuildIndexByUser@CGuildCombat1to1Mng@@QAEHPAVCUser@@@Z
_TEXT	SEGMENT
_pUser$ = 8						; size = 4
_nIndex$1$ = 8						; size = 4
?GetTargetTenderGuildIndexByUser@CGuildCombat1to1Mng@@QAEHPAVCUser@@@Z PROC ; CGuildCombat1to1Mng::GetTargetTenderGuildIndexByUser, COMDAT
; _this$ = ecx

; 864  : {

  00000	55		 push	 ebp
  00001	8b ec		 mov	 ebp, esp
  00003	53		 push	 ebx
  00004	56		 push	 esi
  00005	57		 push	 edi

; 865  : 	int nIndex = GetTenderGuildIndexByUser( pUser );

  00006	ff 75 08	 push	 DWORD PTR _pUser$[ebp]
  00009	8b f9		 mov	 edi, ecx
  0000b	e8 00 00 00 00	 call	 ?GetTenderGuildIndexByUser@CGuildCombat1to1Mng@@QAEHPAVCUser@@@Z ; CGuildCombat1to1Mng::GetTenderGuildIndexByUser
; File C:\Program Files\Microsoft Visual Studio\2022\Professional\VC\Tools\MSVC\14.44.35207\include\vector

; 1915 :         return static_cast<size_type>(_My_data._Mylast - _My_data._Myfirst);

  00010	8b 4f 50	 mov	 ecx, DWORD PTR [edi+80]
; File C:\IAGOS\server\v18\Source\Source\_Common\GuildCombat1to1.cpp

; 866  : 	for( int i=0; i<(int)( m_vecTenderGuild.size() ); i++ )

  00013	33 f6		 xor	 esi, esi
; File C:\Program Files\Microsoft Visual Studio\2022\Professional\VC\Tools\MSVC\14.44.35207\include\vector

; 1915 :         return static_cast<size_type>(_My_data._Mylast - _My_data._Myfirst);

  00015	8b 5f 4c	 mov	 ebx, DWORD PTR [edi+76]
  00018	2b cb		 sub	 ecx, ebx
; File C:\IAGOS\server\v18\Source\Source\_Common\GuildCombat1to1.cpp

; 865  : 	int nIndex = GetTenderGuildIndexByUser( pUser );

  0001a	89 45 08	 mov	 DWORD PTR _nIndex$1$[ebp], eax
; File C:\Program Files\Microsoft Visual Studio\2022\Professional\VC\Tools\MSVC\14.44.35207\include\vector

; 1915 :         return static_cast<size_type>(_My_data._Mylast - _My_data._Myfirst);

  0001d	b8 e9 a2 8b 2e	 mov	 eax, 780903145		; 2e8ba2e9H
  00022	f7 e9		 imul	 ecx
  00024	c1 fa 03	 sar	 edx, 3
  00027	8b fa		 mov	 edi, edx
  00029	c1 ef 1f	 shr	 edi, 31			; 0000001fH
  0002c	03 fa		 add	 edi, edx
; File C:\IAGOS\server\v18\Source\Source\_Common\GuildCombat1to1.cpp

; 866  : 	for( int i=0; i<(int)( m_vecTenderGuild.size() ); i++ )

  0002e	85 ff		 test	 edi, edi
  00030	7e 25		 jle	 SHORT $LN19@GetTargetT
; File C:\Program Files\Microsoft Visual Studio\2022\Professional\VC\Tools\MSVC\14.44.35207\include\vector

; 1934 :         return _My_data._Myfirst[_Pos];

  00032	8b 45 08	 mov	 eax, DWORD PTR _nIndex$1$[ebp]
  00035	8d 4b 08	 lea	 ecx, DWORD PTR [ebx+8]
  00038	6b d0 2c	 imul	 edx, eax, 44
  0003b	0f 1f 44 00 00	 npad	 5
$LL4@GetTargetT:
; File C:\IAGOS\server\v18\Source\Source\_Common\GuildCombat1to1.cpp

; 868  : 		if( nIndex != i && m_vecTenderGuild[nIndex].nStageId == m_vecTenderGuild[i].nStageId )

  00040	3b c6		 cmp	 eax, esi
  00042	74 0b		 je	 SHORT $LN2@GetTargetT
  00044	8b 44 1a 08	 mov	 eax, DWORD PTR [edx+ebx+8]
  00048	3b 01		 cmp	 eax, DWORD PTR [ecx]
  0004a	74 15		 je	 SHORT $LN17@GetTargetT
  0004c	8b 45 08	 mov	 eax, DWORD PTR _nIndex$1$[ebp]
$LN2@GetTargetT:

; 866  : 	for( int i=0; i<(int)( m_vecTenderGuild.size() ); i++ )

  0004f	46		 inc	 esi
  00050	83 c1 2c	 add	 ecx, 44			; 0000002cH
  00053	3b f7		 cmp	 esi, edi
  00055	7c e9		 jl	 SHORT $LL4@GetTargetT
$LN19@GetTargetT:
  00057	5f		 pop	 edi

; 870  : 	}
; 871  : 
; 872  : 	return NULL_ID;
; 873  : }

  00058	5e		 pop	 esi
  00059	83 c8 ff	 or	 eax, -1
  0005c	5b		 pop	 ebx
  0005d	5d		 pop	 ebp
  0005e	c2 04 00	 ret	 4
$LN17@GetTargetT:
  00061	5f		 pop	 edi

; 869  : 			return i;

  00062	8b c6		 mov	 eax, esi

; 870  : 	}
; 871  : 
; 872  : 	return NULL_ID;
; 873  : }

  00064	5e		 pop	 esi
  00065	5b		 pop	 ebx
  00066	5d		 pop	 ebp
  00067	c2 04 00	 ret	 4
?GetTargetTenderGuildIndexByUser@CGuildCombat1to1Mng@@QAEHPAVCUser@@@Z ENDP ; CGuildCombat1to1Mng::GetTargetTenderGuildIndexByUser
_TEXT	ENDS
; Function compile flags: /Ogtp
; File C:\IAGOS\server\v18\Source\Source\_Common\GuildCombat1to1.cpp
; File C:\Program Files\Microsoft Visual Studio\2022\Professional\VC\Tools\MSVC\14.44.35207\include\vector
; File C:\IAGOS\server\v18\Source\Source\_Common\GuildCombat1to1.cpp
; File C:\Program Files\Microsoft Visual Studio\2022\Professional\VC\Tools\MSVC\14.44.35207\include\vector
; File C:\IAGOS\server\v18\Source\Source\_Common\GuildCombat1to1.cpp
;	COMDAT ?GetTenderGuildIndexByUser@CGuildCombat1to1Mng@@QAEHPAVCUser@@@Z
_TEXT	SEGMENT
_this$1$ = -4						; size = 4
_pUser$ = 8						; size = 4
?GetTenderGuildIndexByUser@CGuildCombat1to1Mng@@QAEHPAVCUser@@@Z PROC ; CGuildCombat1to1Mng::GetTenderGuildIndexByUser, COMDAT
; _this$ = ecx

; 848  : {

  00000	55		 push	 ebp
  00001	8b ec		 mov	 ebp, esp
  00003	51		 push	 ecx
  00004	53		 push	 ebx
  00005	56		 push	 esi
  00006	57		 push	 edi
  00007	8b f9		 mov	 edi, ecx

; 849  : 	CGuild* pGuild = pUser->GetGuild();

  00009	8b 4d 08	 mov	 ecx, DWORD PTR _pUser$[ebp]
  0000c	89 7d fc	 mov	 DWORD PTR _this$1$[ebp], edi
  0000f	e8 00 00 00 00	 call	 ?GetGuild@CMover@@QAEPAVCGuild@@XZ ; CMover::GetGuild
  00014	8b d8		 mov	 ebx, eax

; 850  : 	if( pGuild )

  00016	85 db		 test	 ebx, ebx
  00018	74 32		 je	 SHORT $LN3@GetTenderG
; File C:\Program Files\Microsoft Visual Studio\2022\Professional\VC\Tools\MSVC\14.44.35207\include\vector

; 1915 :         return static_cast<size_type>(_My_data._Mylast - _My_data._Myfirst);

  0001a	8b 4d fc	 mov	 ecx, DWORD PTR _this$1$[ebp]
  0001d	b8 e9 a2 8b 2e	 mov	 eax, 780903145		; 2e8ba2e9H
  00022	8b 7f 4c	 mov	 edi, DWORD PTR [edi+76]
; File C:\IAGOS\server\v18\Source\Source\_Common\GuildCombat1to1.cpp

; 852  : 		for( int i=0; i<(int)( m_vecTenderGuild.size() ); i++ )

  00025	33 f6		 xor	 esi, esi
; File C:\Program Files\Microsoft Visual Studio\2022\Professional\VC\Tools\MSVC\14.44.35207\include\vector

; 1915 :         return static_cast<size_type>(_My_data._Mylast - _My_data._Myfirst);

  00027	8b 49 50	 mov	 ecx, DWORD PTR [ecx+80]
  0002a	2b cf		 sub	 ecx, edi
  0002c	f7 e9		 imul	 ecx
  0002e	c1 fa 03	 sar	 edx, 3
  00031	8b c2		 mov	 eax, edx
  00033	c1 e8 1f	 shr	 eax, 31			; 0000001fH
  00036	03 c2		 add	 eax, edx
; File C:\IAGOS\server\v18\Source\Source\_Common\GuildCombat1to1.cpp

; 852  : 		for( int i=0; i<(int)( m_vecTenderGuild.size() ); i++ )

  00038	85 c0		 test	 eax, eax
  0003a	7e 10		 jle	 SHORT $LN3@GetTenderG

; 853  : 		{
; 854  : 			if( pGuild->GetGuildId() == m_vecTenderGuild[i].ulGuildId )

  0003c	8b 4b 04	 mov	 ecx, DWORD PTR [ebx+4]
  0003f	90		 npad	 1
$LL4@GetTenderG:
  00040	3b 0f		 cmp	 ecx, DWORD PTR [edi]
  00042	74 14		 je	 SHORT $LN15@GetTenderG

; 852  : 		for( int i=0; i<(int)( m_vecTenderGuild.size() ); i++ )

  00044	46		 inc	 esi
  00045	83 c7 2c	 add	 edi, 44			; 0000002cH
  00048	3b f0		 cmp	 esi, eax
  0004a	7c f4		 jl	 SHORT $LL4@GetTenderG
$LN3@GetTenderG:
  0004c	5f		 pop	 edi

; 856  : 		}
; 857  : 	}
; 858  : 
; 859  : 	return NULL_ID;
; 860  : }

  0004d	5e		 pop	 esi
  0004e	83 c8 ff	 or	 eax, -1
  00051	5b		 pop	 ebx
  00052	8b e5		 mov	 esp, ebp
  00054	5d		 pop	 ebp
  00055	c2 04 00	 ret	 4
$LN15@GetTenderG:
  00058	5f		 pop	 edi

; 855  : 				return i;

  00059	8b c6		 mov	 eax, esi

; 856  : 		}
; 857  : 	}
; 858  : 
; 859  : 	return NULL_ID;
; 860  : }

  0005b	5e		 pop	 esi
  0005c	5b		 pop	 ebx
  0005d	8b e5		 mov	 esp, ebp
  0005f	5d		 pop	 ebp
  00060	c2 04 00	 ret	 4
?GetTenderGuildIndexByUser@CGuildCombat1to1Mng@@QAEHPAVCUser@@@Z ENDP ; CGuildCombat1to1Mng::GetTenderGuildIndexByUser
_TEXT	ENDS
; Function compile flags: /Ogtp
; File C:\Program Files\Microsoft Visual Studio\2022\Professional\VC\Tools\MSVC\14.44.35207\include\vector
; File C:\Program Files\Microsoft Visual Studio\2022\Professional\VC\Tools\MSVC\14.44.35207\include\xmemory
; File C:\Program Files\Microsoft Visual Studio\2022\Professional\VC\Tools\MSVC\14.44.35207\include\vector
; File C:\Program Files\Microsoft Visual Studio\2022\Professional\VC\Tools\MSVC\14.44.35207\include\xmemory
; File C:\Program Files\Microsoft Visual Studio\2022\Professional\VC\Tools\MSVC\14.44.35207\include\vector
;	COMDAT ??0__GC1TO1TENDER@CGuildCombat1to1Mng@@QAE@ABU01@@Z
_TEXT	SEGMENT
_this$ = -4						; size = 4
___that$ = 8						; size = 4
_this$1$ = 8						; size = 4
??0__GC1TO1TENDER@CGuildCombat1to1Mng@@QAE@ABU01@@Z PROC ; CGuildCombat1to1Mng::__GC1TO1TENDER::__GC1TO1TENDER, COMDAT
; _this$ = ecx
  00000	55		 push	 ebp
  00001	8b ec		 mov	 ebp, esp
  00003	51		 push	 ecx

; 400  :     _CONSTEXPR20 _Vector_val() noexcept : _Myfirst(), _Mylast(), _Myend() {}

  00004	53		 push	 ebx
  00005	57		 push	 edi
  00006	8b 7d 08	 mov	 edi, DWORD PTR ___that$[ebp]
  00009	8d 59 20	 lea	 ebx, DWORD PTR [ecx+32]
  0000c	89 4d fc	 mov	 DWORD PTR _this$[ebp], ecx
  0000f	89 5d 08	 mov	 DWORD PTR _this$1$[ebp], ebx
  00012	8b 07		 mov	 eax, DWORD PTR [edi]
  00014	89 01		 mov	 DWORD PTR [ecx], eax
  00016	8b 47 04	 mov	 eax, DWORD PTR [edi+4]
  00019	89 41 04	 mov	 DWORD PTR [ecx+4], eax
  0001c	8b 47 08	 mov	 eax, DWORD PTR [edi+8]
  0001f	89 41 08	 mov	 DWORD PTR [ecx+8], eax
  00022	8b 47 0c	 mov	 eax, DWORD PTR [edi+12]
  00025	89 41 0c	 mov	 DWORD PTR [ecx+12], eax
  00028	8b 47 10	 mov	 eax, DWORD PTR [edi+16]
  0002b	89 41 10	 mov	 DWORD PTR [ecx+16], eax
  0002e	8b 47 14	 mov	 eax, DWORD PTR [edi+20]
  00031	89 41 14	 mov	 DWORD PTR [ecx+20], eax
  00034	8b 47 18	 mov	 eax, DWORD PTR [edi+24]
  00037	89 41 18	 mov	 DWORD PTR [ecx+24], eax
  0003a	8b 47 1c	 mov	 eax, DWORD PTR [edi+28]
  0003d	89 41 1c	 mov	 DWORD PTR [ecx+28], eax
  00040	c7 03 00 00 00
	00		 mov	 DWORD PTR [ebx], 0
  00046	c7 43 04 00 00
	00 00		 mov	 DWORD PTR [ebx+4], 0
  0004d	c7 43 08 00 00
	00 00		 mov	 DWORD PTR [ebx+8], 0

; 748  :         const auto _Count       = static_cast<size_type>(_Right_data._Mylast - _Right_data._Myfirst);

  00054	8b 47 24	 mov	 eax, DWORD PTR [edi+36]
  00057	2b 47 20	 sub	 eax, DWORD PTR [edi+32]
  0005a	c1 f8 02	 sar	 eax, 2

; 2111 :         if (_Count != 0) {

  0005d	85 c0		 test	 eax, eax
  0005f	74 35		 je	 SHORT $LN32@GC1TO1TEND

; 2051 :         if (_Newcapacity > max_size()) {

  00061	3d ff ff ff 3f	 cmp	 eax, 1073741823		; 3fffffffH
  00066	77 38		 ja	 SHORT $LN41@GC1TO1TEND
  00068	56		 push	 esi

; 2053 :         }
; 2054 : 
; 2055 :         _Buy_raw(_Newcapacity);

  00069	50		 push	 eax
  0006a	8b cb		 mov	 ecx, ebx
  0006c	e8 00 00 00 00	 call	 ?_Buy_raw@?$vector@KV?$allocator@K@std@@@std@@AAEXI@Z ; std::vector<unsigned long,std::allocator<unsigned long> >::_Buy_raw

; 2120 :                 _My_data._Mylast = _STD _Uninitialized_copy(_STD forward<_Valty>(_Val)..., _My_data._Myfirst, _Al);

  00071	8b 1b		 mov	 ebx, DWORD PTR [ebx]
; File C:\Program Files\Microsoft Visual Studio\2022\Professional\VC\Tools\MSVC\14.44.35207\include\xmemory

; 1876 :     auto _UFirst = _STD _Get_unwrapped(_STD move(_First));

  00073	8b 77 20	 mov	 esi, DWORD PTR [edi+32]

; 1877 :     auto _ULast  = _STD _Get_unwrapped(_STD move(_Last));

  00076	8b 7f 24	 mov	 edi, DWORD PTR [edi+36]

; 1878 : #endif // ^^^ !_HAS_CXX20 ^^^
; 1879 : 
; 1880 :     constexpr bool _Can_memmove = _Sent_copy_cat<decltype(_UFirst), decltype(_ULast), _Ptrval>::_Bitcopy_constructible
; 1881 :                                && _Uses_default_construct<_Alloc, _Ptrval, decltype(*_UFirst)>::value;
; 1882 : 
; 1883 :     if constexpr (_Can_memmove) {
; 1884 : #if _HAS_CXX20
; 1885 :         if (!_STD is_constant_evaluated())
; 1886 : #endif // _HAS_CXX20
; 1887 :         {
; 1888 :             if constexpr (is_same_v<decltype(_UFirst), decltype(_ULast)>) {
; 1889 :                 _STD _Copy_memmove(_STD _To_address(_UFirst), _STD _To_address(_ULast), _STD _Unfancy(_Dest));

  00079	53		 push	 ebx
  0007a	57		 push	 edi
  0007b	56		 push	 esi
  0007c	e8 00 00 00 00	 call	 ??$_Copy_memmove@PAKPAK@std@@YAPAKPAK00@Z ; std::_Copy_memmove<unsigned long *,unsigned long *>
; File C:\Program Files\Microsoft Visual Studio\2022\Professional\VC\Tools\MSVC\14.44.35207\include\vector

; 2120 :                 _My_data._Mylast = _STD _Uninitialized_copy(_STD forward<_Valty>(_Val)..., _My_data._Myfirst, _Al);

  00081	8b 4d 08	 mov	 ecx, DWORD PTR _this$1$[ebp]
; File C:\Program Files\Microsoft Visual Studio\2022\Professional\VC\Tools\MSVC\14.44.35207\include\xmemory

; 1890 :                 _Dest += _ULast - _UFirst;

  00084	2b fe		 sub	 edi, esi
  00086	83 c4 0c	 add	 esp, 12			; 0000000cH
  00089	c1 ff 02	 sar	 edi, 2
  0008c	8d 04 bb	 lea	 eax, DWORD PTR [ebx+edi*4]
; File C:\Program Files\Microsoft Visual Studio\2022\Professional\VC\Tools\MSVC\14.44.35207\include\vector

; 2120 :                 _My_data._Mylast = _STD _Uninitialized_copy(_STD forward<_Valty>(_Val)..., _My_data._Myfirst, _Al);

  0008f	89 41 04	 mov	 DWORD PTR [ecx+4], eax
  00092	8b 4d fc	 mov	 ecx, DWORD PTR _this$[ebp]
  00095	5e		 pop	 esi
$LN32@GC1TO1TEND:
  00096	5f		 pop	 edi
  00097	8b c1		 mov	 eax, ecx
  00099	5b		 pop	 ebx
  0009a	8b e5		 mov	 esp, ebp
  0009c	5d		 pop	 ebp
  0009d	c2 04 00	 ret	 4
$LN41@GC1TO1TEND:

; 2052 :             _Xlength();

  000a0	e8 00 00 00 00	 call	 ?_Xlength@?$vector@KV?$allocator@K@std@@@std@@CAXXZ ; std::vector<unsigned long,std::allocator<unsigned long> >::_Xlength
$LN39@GC1TO1TEND:
  000a5	cc		 int	 3
??0__GC1TO1TENDER@CGuildCombat1to1Mng@@QAE@ABU01@@Z ENDP ; CGuildCombat1to1Mng::__GC1TO1TENDER::__GC1TO1TENDER
_TEXT	ENDS
; Function compile flags: /Ogtp
; File C:\Program Files\Microsoft Visual Studio\2022\Professional\VC\Tools\MSVC\14.44.35207\include\vector
;	COMDAT ??1__GC1TO1TENDER@CGuildCombat1to1Mng@@QAE@XZ
_TEXT	SEGMENT
??1__GC1TO1TENDER@CGuildCombat1to1Mng@@QAE@XZ PROC	; CGuildCombat1to1Mng::__GC1TO1TENDER::~__GC1TO1TENDER, COMDAT
; _this$ = ecx
  00000	83 c1 20	 add	 ecx, 32			; 00000020H

; 830  :         _Tidy();

  00003	e9 00 00 00 00	 jmp	 ?_Tidy@?$vector@KV?$allocator@K@std@@@std@@AAEXXZ ; std::vector<unsigned long,std::allocator<unsigned long> >::_Tidy
??1__GC1TO1TENDER@CGuildCombat1to1Mng@@QAE@XZ ENDP	; CGuildCombat1to1Mng::__GC1TO1TENDER::~__GC1TO1TENDER
_TEXT	ENDS
; Function compile flags: /Ogtp
; File C:\IAGOS\server\v18\Source\Source\_Common\GuildCombat1to1.cpp
;	COMDAT ?LoadScript@CGuildCombat1to1Mng@@QAEHXZ
_TEXT	SEGMENT
?LoadScript@CGuildCombat1to1Mng@@QAEHXZ PROC		; CGuildCombat1to1Mng::LoadScript, COMDAT
; _this$ = ecx

; 795  : {

  00000	56		 push	 esi
  00001	57		 push	 edi
  00002	8b f9		 mov	 edi, ecx

; 796  : 	if( m_Lua.RunScript( "GuildCombat1to1.lua" ) != 0 )

  00004	68 00 00 00 00	 push	 OFFSET ??_C@_0BE@BGEDOEJD@GuildCombat1to1?4lua@
  00009	8d 4f 20	 lea	 ecx, DWORD PTR [edi+32]
  0000c	e8 00 00 00 00	 call	 ?RunScript@CLuaBase@@QAEHPBD@Z ; CLuaBase::RunScript

; 797  : 		ASSERT(0);
; 798  : 
; 799  : 	m_nJoinPenya = (int)m_Lua.GetGlobalNumber( "MinJoinPenya" );

  00011	68 00 00 00 00	 push	 OFFSET ??_C@_0N@CHPIPPI@MinJoinPenya@
  00016	8d 4f 20	 lea	 ecx, DWORD PTR [edi+32]
  00019	e8 00 00 00 00	 call	 ?GetGlobalNumber@CLuaBase@@QAENPAD@Z ; CLuaBase::GetGlobalNumber
  0001e	e8 00 00 00 00	 call	 __ftol2_sse

; 800  : 	m_nGuildLevel = (int)m_Lua.GetGlobalNumber( "MinGuildLevel" );

  00023	68 00 00 00 00	 push	 OFFSET ??_C@_0O@JHCECGHF@MinGuildLevel@
  00028	8d 4f 20	 lea	 ecx, DWORD PTR [edi+32]
  0002b	89 47 08	 mov	 DWORD PTR [edi+8], eax
  0002e	e8 00 00 00 00	 call	 ?GetGlobalNumber@CLuaBase@@QAENPAD@Z ; CLuaBase::GetGlobalNumber
  00033	e8 00 00 00 00	 call	 __ftol2_sse

; 801  : 	m_nMinJoinGuild = (int)m_Lua.GetGlobalNumber( "MinJoinGuild" );

  00038	68 00 00 00 00	 push	 OFFSET ??_C@_0N@IGABIHDO@MinJoinGuild@
  0003d	8d 4f 20	 lea	 ecx, DWORD PTR [edi+32]
  00040	89 47 28	 mov	 DWORD PTR [edi+40], eax
  00043	e8 00 00 00 00	 call	 ?GetGlobalNumber@CLuaBase@@QAENPAD@Z ; CLuaBase::GetGlobalNumber
  00048	e8 00 00 00 00	 call	 __ftol2_sse

; 802  : 	m_nMaxJoinGuild = (int)m_Lua.GetGlobalNumber( "MaxJoinGuild" );

  0004d	68 00 00 00 00	 push	 OFFSET ??_C@_0N@MGEOPPEI@MaxJoinGuild@
  00052	8d 4f 20	 lea	 ecx, DWORD PTR [edi+32]
  00055	89 47 34	 mov	 DWORD PTR [edi+52], eax
  00058	e8 00 00 00 00	 call	 ?GetGlobalNumber@CLuaBase@@QAENPAD@Z ; CLuaBase::GetGlobalNumber
  0005d	e8 00 00 00 00	 call	 __ftol2_sse

; 803  : 	m_nMinJoinPlayer = (int)m_Lua.GetGlobalNumber( "MinJoinPlayer" );

  00062	68 00 00 00 00	 push	 OFFSET ??_C@_0O@MDLHABA@MinJoinPlayer@
  00067	8d 4f 20	 lea	 ecx, DWORD PTR [edi+32]
  0006a	89 47 30	 mov	 DWORD PTR [edi+48], eax
  0006d	e8 00 00 00 00	 call	 ?GetGlobalNumber@CLuaBase@@QAENPAD@Z ; CLuaBase::GetGlobalNumber
  00072	e8 00 00 00 00	 call	 __ftol2_sse

; 804  : #ifndef __MAINSERVER
; 805  : 	m_nMinJoinPlayer = 1;
; 806  : #endif // __MAINSERVER
; 807  : 	m_nMaxJoinPlayer = (int)m_Lua.GetGlobalNumber( "MaxJoinPlayer" );

  00077	68 00 00 00 00	 push	 OFFSET ??_C@_0O@LFBNOLGB@MaxJoinPlayer@
  0007c	8d 4f 20	 lea	 ecx, DWORD PTR [edi+32]
  0007f	89 47 10	 mov	 DWORD PTR [edi+16], eax
  00082	e8 00 00 00 00	 call	 ?GetGlobalNumber@CLuaBase@@QAENPAD@Z ; CLuaBase::GetGlobalNumber
  00087	e8 00 00 00 00	 call	 __ftol2_sse

; 808  : 	m_nMinJoinPlayerLevel = (int)m_Lua.GetGlobalNumber( "MinJoinPlayerLevel" );

  0008c	68 00 00 00 00	 push	 OFFSET ??_C@_0BD@GPBMJCGJ@MinJoinPlayerLevel@
  00091	8d 4f 20	 lea	 ecx, DWORD PTR [edi+32]
  00094	89 47 0c	 mov	 DWORD PTR [edi+12], eax
  00097	e8 00 00 00 00	 call	 ?GetGlobalNumber@CLuaBase@@QAENPAD@Z ; CLuaBase::GetGlobalNumber
  0009c	e8 00 00 00 00	 call	 __ftol2_sse

; 809  : 	m_nCancelReturnRate = (int)m_Lua.GetGlobalNumber( "CancelReturnRate" );

  000a1	68 00 00 00 00	 push	 OFFSET ??_C@_0BB@FDEBMJPD@CancelReturnRate@
  000a6	8d 4f 20	 lea	 ecx, DWORD PTR [edi+32]
  000a9	89 47 14	 mov	 DWORD PTR [edi+20], eax
  000ac	e8 00 00 00 00	 call	 ?GetGlobalNumber@CLuaBase@@QAENPAD@Z ; CLuaBase::GetGlobalNumber
  000b1	e8 00 00 00 00	 call	 __ftol2_sse

; 810  : 	m_nFailReturnRate = (int)m_Lua.GetGlobalNumber( "FailReturnRate" );

  000b6	68 00 00 00 00	 push	 OFFSET ??_C@_0P@OIBAJGIA@FailReturnRate@
  000bb	8d 4f 20	 lea	 ecx, DWORD PTR [edi+32]
  000be	89 47 38	 mov	 DWORD PTR [edi+56], eax
  000c1	e8 00 00 00 00	 call	 ?GetGlobalNumber@CLuaBase@@QAENPAD@Z ; CLuaBase::GetGlobalNumber
  000c6	e8 00 00 00 00	 call	 __ftol2_sse

; 811  : 	m_nPlayerLife = (int)m_Lua.GetGlobalNumber( "PlayerLife" );

  000cb	68 00 00 00 00	 push	 OFFSET ??_C@_0L@MPIDICKM@PlayerLife@
  000d0	8d 4f 20	 lea	 ecx, DWORD PTR [edi+32]
  000d3	89 47 3c	 mov	 DWORD PTR [edi+60], eax
  000d6	e8 00 00 00 00	 call	 ?GetGlobalNumber@CLuaBase@@QAENPAD@Z ; CLuaBase::GetGlobalNumber
  000db	e8 00 00 00 00	 call	 __ftol2_sse
  000e0	89 47 2c	 mov	 DWORD PTR [edi+44], eax

; 812  : 
; 813  : 	return TRUE;

  000e3	b8 01 00 00 00	 mov	 eax, 1
  000e8	5f		 pop	 edi
  000e9	5e		 pop	 esi

; 814  : }

  000ea	c3		 ret	 0
?LoadScript@CGuildCombat1to1Mng@@QAEHXZ ENDP		; CGuildCombat1to1Mng::LoadScript
_TEXT	ENDS
; Function compile flags: /Ogtp
; File C:\IAGOS\server\v18\Source\Source\_Common\GuildCombat1to1.cpp
;	COMDAT ?ClearTime@CGuildCombat1to1Mng@@QAEXXZ
_TEXT	SEGMENT
?ClearTime@CGuildCombat1to1Mng@@QAEXXZ PROC		; CGuildCombat1to1Mng::ClearTime, COMDAT
; _this$ = ecx

; 771  : 	m_nWaitTime = 0;

  00000	c7 41 18 00 00
	00 00		 mov	 DWORD PTR [ecx+24], 0

; 772  : 	m_dwTime = 0;

  00007	c7 41 1c 00 00
	00 00		 mov	 DWORD PTR [ecx+28], 0

; 773  : }

  0000e	c3		 ret	 0
?ClearTime@CGuildCombat1to1Mng@@QAEXXZ ENDP		; CGuildCombat1to1Mng::ClearTime
_TEXT	ENDS
; Function compile flags: /Ogtp
; File C:\IAGOS\server\v18\Source\Source\_Common\GuildCombat1to1.cpp
; File C:\Program Files\Microsoft Visual Studio\2022\Professional\VC\Tools\MSVC\14.44.35207\include\vector
; File C:\IAGOS\server\v18\Source\Source\_Common\GuildCombat1to1.cpp
; File C:\Program Files\Microsoft Visual Studio\2022\Professional\VC\Tools\MSVC\14.44.35207\include\vector
; File C:\IAGOS\server\v18\Source\Source\_Common\GuildCombat1to1.cpp
;	COMDAT ??1CGuildCombat1to1Mng@@UAE@XZ
_TEXT	SEGMENT
??1CGuildCombat1to1Mng@@UAE@XZ PROC			; CGuildCombat1to1Mng::~CGuildCombat1to1Mng, COMDAT
; _this$ = ecx

; 712  : {

  00000	56		 push	 esi
  00001	8b f1		 mov	 esi, ecx

; 714  : }

  00003	8d 4e 58	 lea	 ecx, DWORD PTR [esi+88]
  00006	c7 06 00 00 00
	00		 mov	 DWORD PTR [esi], OFFSET ??_7CGuildCombat1to1Mng@@6B@
; File C:\Program Files\Microsoft Visual Studio\2022\Professional\VC\Tools\MSVC\14.44.35207\include\vector

; 830  :         _Tidy();

  0000c	e8 00 00 00 00	 call	 ?_Tidy@?$vector@U__GC1TO1TENDER@CGuildCombat1to1Mng@@V?$allocator@U__GC1TO1TENDER@CGuildCombat1to1Mng@@@std@@@std@@AAEXXZ ; std::vector<CGuildCombat1to1Mng::__GC1TO1TENDER,std::allocator<CGuildCombat1to1Mng::__GC1TO1TENDER> >::_Tidy
; File C:\IAGOS\server\v18\Source\Source\_Common\GuildCombat1to1.cpp

; 714  : }

  00011	8d 4e 4c	 lea	 ecx, DWORD PTR [esi+76]
; File C:\Program Files\Microsoft Visual Studio\2022\Professional\VC\Tools\MSVC\14.44.35207\include\vector

; 830  :         _Tidy();

  00014	e8 00 00 00 00	 call	 ?_Tidy@?$vector@U__GC1TO1TENDER@CGuildCombat1to1Mng@@V?$allocator@U__GC1TO1TENDER@CGuildCombat1to1Mng@@@std@@@std@@AAEXXZ ; std::vector<CGuildCombat1to1Mng::__GC1TO1TENDER,std::allocator<CGuildCombat1to1Mng::__GC1TO1TENDER> >::_Tidy
; File C:\IAGOS\server\v18\Source\Source\_Common\GuildCombat1to1.cpp

; 714  : }

  00019	8d 4e 40	 lea	 ecx, DWORD PTR [esi+64]
  0001c	e8 00 00 00 00	 call	 ??1?$vector@VCGuildCombat1to1@@V?$allocator@VCGuildCombat1to1@@@std@@@std@@QAE@XZ ; std::vector<CGuildCombat1to1,std::allocator<CGuildCombat1to1> >::~vector<CGuildCombat1to1,std::allocator<CGuildCombat1to1> >
  00021	8d 4e 20	 lea	 ecx, DWORD PTR [esi+32]
  00024	5e		 pop	 esi
  00025	e9 00 00 00 00	 jmp	 ??1CLuaBase@@UAE@XZ	; CLuaBase::~CLuaBase
??1CGuildCombat1to1Mng@@UAE@XZ ENDP			; CGuildCombat1to1Mng::~CGuildCombat1to1Mng
_TEXT	ENDS
; Function compile flags: /Ogtp
; File C:\IAGOS\server\v18\Source\Source\_Common\GuildCombat1to1.cpp
; File C:\Program Files\Microsoft Visual Studio\2022\Professional\VC\Tools\MSVC\14.44.35207\include\vector
; File C:\IAGOS\server\v18\Source\Source\_Common\GuildCombat1to1.cpp
; File C:\Program Files\Microsoft Visual Studio\2022\Professional\VC\Tools\MSVC\14.44.35207\include\vector
; File C:\IAGOS\server\v18\Source\Source\_Common\GuildCombat1to1.cpp
;	COMDAT ??0CGuildCombat1to1Mng@@QAE@XZ
_TEXT	SEGMENT
_this$ = -4						; size = 4
??0CGuildCombat1to1Mng@@QAE@XZ PROC			; CGuildCombat1to1Mng::CGuildCombat1to1Mng, COMDAT
; _this$ = ecx

; 685  : {

  00000	55		 push	 ebp
  00001	8b ec		 mov	 ebp, esp
  00003	51		 push	 ecx
  00004	56		 push	 esi
  00005	8b f1		 mov	 esi, ecx
  00007	89 75 fc	 mov	 DWORD PTR _this$[ebp], esi
  0000a	8d 4e 20	 lea	 ecx, DWORD PTR [esi+32]
  0000d	c7 06 00 00 00
	00		 mov	 DWORD PTR [esi], OFFSET ??_7CGuildCombat1to1Mng@@6B@
  00013	e8 00 00 00 00	 call	 ??0CLuaBase@@QAE@XZ	; CLuaBase::CLuaBase
; File C:\Program Files\Microsoft Visual Studio\2022\Professional\VC\Tools\MSVC\14.44.35207\include\vector

; 400  :     _CONSTEXPR20 _Vector_val() noexcept : _Myfirst(), _Mylast(), _Myend() {}

  00018	c7 46 40 00 00
	00 00		 mov	 DWORD PTR [esi+64], 0
; File C:\IAGOS\server\v18\Source\Source\_Common\GuildCombat1to1.cpp

; 701  : 	ClearTime();

  0001f	8b ce		 mov	 ecx, esi
; File C:\Program Files\Microsoft Visual Studio\2022\Professional\VC\Tools\MSVC\14.44.35207\include\vector

; 400  :     _CONSTEXPR20 _Vector_val() noexcept : _Myfirst(), _Mylast(), _Myend() {}

  00021	c7 46 44 00 00
	00 00		 mov	 DWORD PTR [esi+68], 0
  00028	c7 46 48 00 00
	00 00		 mov	 DWORD PTR [esi+72], 0
  0002f	c7 46 4c 00 00
	00 00		 mov	 DWORD PTR [esi+76], 0
  00036	c7 46 50 00 00
	00 00		 mov	 DWORD PTR [esi+80], 0
  0003d	c7 46 54 00 00
	00 00		 mov	 DWORD PTR [esi+84], 0
  00044	c7 46 58 00 00
	00 00		 mov	 DWORD PTR [esi+88], 0
  0004b	c7 46 5c 00 00
	00 00		 mov	 DWORD PTR [esi+92], 0
  00052	c7 46 60 00 00
	00 00		 mov	 DWORD PTR [esi+96], 0
; File C:\IAGOS\server\v18\Source\Source\_Common\GuildCombat1to1.cpp

; 686  : 	m_nJoinPenya = 0;

  00059	c7 46 08 00 00
	00 00		 mov	 DWORD PTR [esi+8], 0

; 687  : 	m_nMaxJoinPlayer = 0;

  00060	c7 46 0c 00 00
	00 00		 mov	 DWORD PTR [esi+12], 0

; 688  : 	m_nMinJoinPlayer = 0;

  00067	c7 46 10 00 00
	00 00		 mov	 DWORD PTR [esi+16], 0

; 689  : 	m_nMinJoinPlayerLevel = 0;

  0006e	c7 46 14 00 00
	00 00		 mov	 DWORD PTR [esi+20], 0

; 690  : #ifdef __DBSERVER
; 691  : 	m_nCombatId = 0;
; 692  : #endif // __DBSERVER
; 693  : #if defined(__WORLDSERVER) || defined(__DBSERVER)
; 694  : 	m_nGuildLevel = 0;

  00075	c7 46 28 00 00
	00 00		 mov	 DWORD PTR [esi+40], 0

; 695  : 	m_nPlayerLife = 0;

  0007c	c7 46 2c 00 00
	00 00		 mov	 DWORD PTR [esi+44], 0

; 696  : 	m_nMaxJoinGuild = 0;

  00083	c7 46 30 00 00
	00 00		 mov	 DWORD PTR [esi+48], 0

; 697  : 	m_nMinJoinGuild = 0;

  0008a	c7 46 34 00 00
	00 00		 mov	 DWORD PTR [esi+52], 0

; 698  : 	m_nCancelReturnRate = 0;

  00091	c7 46 38 00 00
	00 00		 mov	 DWORD PTR [esi+56], 0

; 699  : 	m_nFailReturnRate = 0;

  00098	c7 46 3c 00 00
	00 00		 mov	 DWORD PTR [esi+60], 0

; 701  : 	ClearTime();

  0009f	e8 00 00 00 00	 call	 ?ClearTime@CGuildCombat1to1Mng@@QAEXXZ ; CGuildCombat1to1Mng::ClearTime

; 702  : 	m_nState = GC1TO1_CLOSE;

  000a4	c7 46 04 00 00
	00 00		 mov	 DWORD PTR [esi+4], 0

; 703  : #ifdef __CLIENT
; 704  : 	m_vecGuildCombat1to1_Players.clear();
; 705  : 	m_nGuildCombat1to1Guild = 0;
; 706  : 	m_nMyGuildCount = 0;
; 707  : 	m_nVsGuildCount = 0;
; 708  : #endif //__CLIENT
; 709  : }

  000ab	8b c6		 mov	 eax, esi
  000ad	5e		 pop	 esi
  000ae	8b e5		 mov	 esp, ebp
  000b0	5d		 pop	 ebp
  000b1	c3		 ret	 0
??0CGuildCombat1to1Mng@@QAE@XZ ENDP			; CGuildCombat1to1Mng::CGuildCombat1to1Mng
_TEXT	ENDS
; Function compile flags: /Ogtp
; File C:\IAGOS\server\v18\Source\Source\_Common\Project.h
; File C:\Program Files\Microsoft Visual Studio\2022\Professional\VC\Tools\MSVC\14.44.35207\include\xtree
; File C:\IAGOS\server\v18\Source\Source\_Common\Project.h
; File C:\Program Files\Microsoft Visual Studio\2022\Professional\VC\Tools\MSVC\14.44.35207\include\xtree
; File C:\Program Files\Microsoft Visual Studio\2022\Professional\VC\Tools\MSVC\14.44.35207\include\type_traits
; File C:\Program Files\Microsoft Visual Studio\2022\Professional\VC\Tools\MSVC\14.44.35207\include\xtree
; File C:\Program Files\Microsoft Visual Studio\2022\Professional\VC\Tools\MSVC\14.44.35207\include\type_traits
; File C:\Program Files\Microsoft Visual Studio\2022\Professional\VC\Tools\MSVC\14.44.35207\include\xtree
; File C:\IAGOS\server\v18\Source\Source\_Common\Project.h
;	COMDAT ?GetUserByID@CProject@@QAEPAVCMover@@K@Z
_TEXT	SEGMENT
_idPlayer$ = 8						; size = 4
?GetUserByID@CProject@@QAEPAVCMover@@K@Z PROC		; CProject::GetUserByID, COMDAT
; _this$ = ecx

; 1434 : {

  00000	55		 push	 ebp
  00001	8b ec		 mov	 ebp, esp
; File C:\Program Files\Microsoft Visual Studio\2022\Professional\VC\Tools\MSVC\14.44.35207\include\xtree

; 1630 :         _Tree_find_result<_Nodeptr> _Result{{_Scary->_Myhead->_Parent, _Tree_child::_Right}, _Scary->_Myhead};

  00003	8b 49 28	 mov	 ecx, DWORD PTR [ecx+40]

; 1632 :         while (!_Trynode->_Isnil) {

  00006	8b 55 08	 mov	 edx, DWORD PTR _idPlayer$[ebp]
; File C:\IAGOS\server\v18\Source\Source\_Common\Project.h

; 1434 : {

  00009	56		 push	 esi
; File C:\Program Files\Microsoft Visual Studio\2022\Professional\VC\Tools\MSVC\14.44.35207\include\xtree

; 1632 :         while (!_Trynode->_Isnil) {

  0000a	8b f1		 mov	 esi, ecx
  0000c	8b 41 04	 mov	 eax, DWORD PTR [ecx+4]
  0000f	80 78 0d 00	 cmp	 BYTE PTR [eax+13], 0
  00013	75 14		 jne	 SHORT $LN11@GetUserByI
$LL10@GetUserByI:
; File C:\Program Files\Microsoft Visual Studio\2022\Professional\VC\Tools\MSVC\14.44.35207\include\type_traits

; 2380 :         return _Left < _Right;

  00015	39 50 10	 cmp	 DWORD PTR [eax+16], edx
; File C:\Program Files\Microsoft Visual Studio\2022\Professional\VC\Tools\MSVC\14.44.35207\include\xtree

; 1634 :             if (_DEBUG_LT_PRED(_Getcomp(), _Traits::_Kfn(_Trynode->_Myval), _Keyval)) {

  00018	73 05		 jae	 SHORT $LN12@GetUserByI

; 1635 :                 _Result._Location._Child = _Tree_child::_Right;
; 1636 :                 _Trynode                 = _Trynode->_Right;

  0001a	8b 40 08	 mov	 eax, DWORD PTR [eax+8]

; 1637 :             } else {

  0001d	eb 04		 jmp	 SHORT $LN13@GetUserByI
$LN12@GetUserByI:

; 1638 :                 _Result._Location._Child = _Tree_child::_Left;
; 1639 :                 _Result._Bound           = _Trynode;

  0001f	8b c8		 mov	 ecx, eax

; 1640 :                 _Trynode                 = _Trynode->_Left;

  00021	8b 00		 mov	 eax, DWORD PTR [eax]
$LN13@GetUserByI:

; 1632 :         while (!_Trynode->_Isnil) {

  00023	80 78 0d 00	 cmp	 BYTE PTR [eax+13], 0
  00027	74 ec		 je	 SHORT $LL10@GetUserByI
$LN11@GetUserByI:

; 1624 :         return !_Bound->_Isnil && !_DEBUG_LT_PRED(_Getcomp(), _Keyval, _Traits::_Kfn(_Bound->_Myval));

  00029	80 79 0d 00	 cmp	 BYTE PTR [ecx+13], 0
  0002d	75 11		 jne	 SHORT $LN2@GetUserByI
; File C:\Program Files\Microsoft Visual Studio\2022\Professional\VC\Tools\MSVC\14.44.35207\include\type_traits

; 2380 :         return _Left < _Right;

  0002f	3b 51 10	 cmp	 edx, DWORD PTR [ecx+16]
; File C:\Program Files\Microsoft Visual Studio\2022\Professional\VC\Tools\MSVC\14.44.35207\include\xtree

; 1624 :         return !_Bound->_Isnil && !_DEBUG_LT_PRED(_Getcomp(), _Keyval, _Traits::_Kfn(_Bound->_Myval));

  00032	72 0c		 jb	 SHORT $LN2@GetUserByI

; 37   :     _Tree_unchecked_const_iterator(_Nodeptr _Pnode, const _Mytree* _Plist) noexcept : _Ptr(_Pnode) {

  00034	3b ce		 cmp	 ecx, esi
; File C:\IAGOS\server\v18\Source\Source\_Common\Project.h

; 1436 : 	if( i != m_idPlayerToUserPtr.end() )

  00036	74 08		 je	 SHORT $LN2@GetUserByI

; 1437 : 		return i->second;

  00038	8b 41 14	 mov	 eax, DWORD PTR [ecx+20]
  0003b	5e		 pop	 esi

; 1439 : }

  0003c	5d		 pop	 ebp
  0003d	c2 04 00	 ret	 4
$LN2@GetUserByI:

; 1438 : 	return NULL;

  00040	33 c0		 xor	 eax, eax
  00042	5e		 pop	 esi

; 1439 : }

  00043	5d		 pop	 ebp
  00044	c2 04 00	 ret	 4
?GetUserByID@CProject@@QAEPAVCMover@@K@Z ENDP		; CProject::GetUserByID
_TEXT	ENDS
; Function compile flags: /Ogtp
; File C:\IAGOS\server\v18\Source\Source\_Common\Project.h
; File C:\IAGOS\server\v18\Source\Source\_Common\data.h
; File C:\IAGOS\server\v18\Source\Source\_Common\Project.h
;	COMDAT ?GetText@CProject@@QAEPBDK@Z
_TEXT	SEGMENT
_dwIndex$ = 8						; size = 4
?GetText@CProject@@QAEPBDK@Z PROC			; CProject::GetText, COMDAT
; _this$ = ecx

; 1426 : { 

  00000	55		 push	 ebp
  00001	8b ec		 mov	 ebp, esp

; 1427 : 	VERIFY_RANGE( (int)( dwIndex ), 0, m_colorText.GetSize(), "GetText range_error", "error" );

  00003	8b 55 08	 mov	 edx, DWORD PTR _dwIndex$[ebp]
  00006	56		 push	 esi
  00007	85 d2		 test	 edx, edx
  00009	78 29		 js	 SHORT $LN19@GetText
  0000b	3b 91 ac 02 00
	00		 cmp	 edx, DWORD PTR [ecx+684]
  00011	7d 21		 jge	 SHORT $LN19@GetText
; File C:\IAGOS\server\v18\Source\Source\_Common\data.h

; 270  : 	if( dwIndex >= (DWORD)m_nMaxIndex )

  00013	73 15		 jae	 SHORT $LN18@GetText

; 271  : 		return NULL;
; 272  : 	return (T*) m_apOffset[ dwIndex ];

  00015	8b 81 9c 02 00
	00		 mov	 eax, DWORD PTR [ecx+668]
  0001b	8b 04 90	 mov	 eax, DWORD PTR [eax+edx*4]
; File C:\IAGOS\server\v18\Source\Source\_Common\Project.h

; 1428 : 	if( m_colorText.GetAt( dwIndex ) == NULL )

  0001e	85 c0		 test	 eax, eax
  00020	74 08		 je	 SHORT $LN18@GetText

; 1430 : 	return m_colorText.GetAt( dwIndex )->lpszData; 

  00022	8b 40 04	 mov	 eax, DWORD PTR [eax+4]
  00025	5e		 pop	 esi

; 1431 : }

  00026	5d		 pop	 ebp
  00027	c2 04 00	 ret	 4
$LN18@GetText:

; 1429 : 		return "";

  0002a	b8 00 00 00 00	 mov	 eax, OFFSET ??_C@_00CNPNBAHC@@
  0002f	5e		 pop	 esi

; 1431 : }

  00030	5d		 pop	 ebp
  00031	c2 04 00	 ret	 4
$LN19@GetText:

; 579  : 	LPCTSTR szErr = Error( _T( "%s min:%d, max:%d, index:%d" ), szMsg, nMin, nMax, nIndex ); 

  00034	52		 push	 edx
  00035	ff b1 ac 02 00
	00		 push	 DWORD PTR [ecx+684]
  0003b	6a 00		 push	 0
  0003d	68 00 00 00 00	 push	 OFFSET ??_C@_0BE@OHDBLHOM@GetText?5range_error@
  00042	68 00 00 00 00	 push	 OFFSET ??_C@_0BM@HMFGHCP@?$CFs?5min?3?$CFd?0?5max?3?$CFd?0?5index?3?$CFd@
  00047	e8 00 00 00 00	 call	 ?Error@@YAPBDPBDZZ	; Error
  0004c	83 c4 14	 add	 esp, 20			; 00000014H

; 1427 : 	VERIFY_RANGE( (int)( dwIndex ), 0, m_colorText.GetSize(), "GetText range_error", "error" );

  0004f	b8 00 00 00 00	 mov	 eax, OFFSET ??_C@_05KKCIMGE@error@
  00054	5e		 pop	 esi

; 1431 : }

  00055	5d		 pop	 ebp
  00056	c2 04 00	 ret	 4
?GetText@CProject@@QAEPBDK@Z ENDP			; CProject::GetText
_TEXT	ENDS
; Function compile flags: /Ogtp
; File C:\Program Files\Microsoft Visual Studio\2022\Professional\VC\Tools\MSVC\14.44.35207\include\xtree
;	COMDAT ?_Insert_node@?$_Tree_val@U?$_Tree_simple_types@U?$pair@$$CBHH@std@@@std@@@std@@QAEPAU?$_Tree_node@U?$pair@$$CBHH@std@@PAX@2@U?$_Tree_id@PAU?$_Tree_node@U?$pair@$$CBHH@std@@PAX@std@@@2@QAU32@@Z
_TEXT	SEGMENT
__Head$1$ = -4						; size = 4
__Loc$ = 8						; size = 8
__Newnode$ = 16						; size = 4
?_Insert_node@?$_Tree_val@U?$_Tree_simple_types@U?$pair@$$CBHH@std@@@std@@@std@@QAEPAU?$_Tree_node@U?$pair@$$CBHH@std@@PAX@2@U?$_Tree_id@PAU?$_Tree_node@U?$pair@$$CBHH@std@@PAX@std@@@2@QAU32@@Z PROC ; std::_Tree_val<std::_Tree_simple_types<std::pair<int const ,int> > >::_Insert_node, COMDAT
; _this$ = ecx

; 669  :     _Nodeptr _Insert_node(const _Tree_id<_Nodeptr> _Loc, const _Nodeptr _Newnode) noexcept {

  00000	55		 push	 ebp
  00001	8b ec		 mov	 ebp, esp
  00003	51		 push	 ecx

; 670  :         ++_Mysize;
; 671  :         const auto _Head  = _Myhead;
; 672  :         _Newnode->_Parent = _Loc._Parent;

  00004	8b 55 08	 mov	 edx, DWORD PTR __Loc$[ebp]
  00007	53		 push	 ebx
  00008	8b d9		 mov	 ebx, ecx
  0000a	57		 push	 edi
  0000b	8b 7d 10	 mov	 edi, DWORD PTR __Newnode$[ebp]
  0000e	8b 03		 mov	 eax, DWORD PTR [ebx]
  00010	ff 43 04	 inc	 DWORD PTR [ebx+4]
  00013	89 45 fc	 mov	 DWORD PTR __Head$1$[ebp], eax
  00016	89 57 04	 mov	 DWORD PTR [edi+4], edx

; 673  :         if (_Loc._Parent == _Head) { // first node in tree, just set head values

  00019	3b d0		 cmp	 edx, eax
  0001b	75 16		 jne	 SHORT $LN5@Insert_nod

; 674  :             _Head->_Left     = _Newnode;

  0001d	89 38		 mov	 DWORD PTR [eax], edi

; 675  :             _Head->_Parent   = _Newnode;

  0001f	89 78 04	 mov	 DWORD PTR [eax+4], edi

; 676  :             _Head->_Right    = _Newnode;

  00022	89 78 08	 mov	 DWORD PTR [eax+8], edi

; 735  :         return _Newnode;
; 736  :     }

  00025	8b c7		 mov	 eax, edi
  00027	c6 47 0c 01	 mov	 BYTE PTR [edi+12], 1
  0002b	5f		 pop	 edi
  0002c	5b		 pop	 ebx
  0002d	8b e5		 mov	 esp, ebp
  0002f	5d		 pop	 ebp
  00030	c2 0c 00	 ret	 12			; 0000000cH
$LN5@Insert_nod:

; 677  :             _Newnode->_Color = _Black; // the root is black
; 678  :             return _Newnode;
; 679  :         }
; 680  : 
; 681  :         _STL_INTERNAL_CHECK(_Loc._Child != _Tree_child::_Unused);
; 682  :         if (_Loc._Child == _Tree_child::_Right) { // add to right of _Loc._Parent

  00033	83 7d 0c 00	 cmp	 DWORD PTR __Loc$[ebp+4], 0
  00037	75 0d		 jne	 SHORT $LN6@Insert_nod

; 683  :             _STL_INTERNAL_CHECK(_Loc._Parent->_Right->_Isnil);
; 684  :             _Loc._Parent->_Right = _Newnode;

  00039	89 7a 08	 mov	 DWORD PTR [edx+8], edi

; 685  :             if (_Loc._Parent == _Head->_Right) { // remember rightmost node

  0003c	3b 50 08	 cmp	 edx, DWORD PTR [eax+8]
  0003f	75 0d		 jne	 SHORT $LN9@Insert_nod

; 686  :                 _Head->_Right = _Newnode;

  00041	89 78 08	 mov	 DWORD PTR [eax+8], edi

; 687  :             }
; 688  :         } else { // add to left of _Loc._Parent

  00044	eb 08		 jmp	 SHORT $LN9@Insert_nod
$LN6@Insert_nod:

; 689  :             _STL_INTERNAL_CHECK(_Loc._Parent->_Left->_Isnil);
; 690  :             _Loc._Parent->_Left = _Newnode;

  00046	89 3a		 mov	 DWORD PTR [edx], edi

; 691  :             if (_Loc._Parent == _Head->_Left) { // remember leftmost node

  00048	3b 10		 cmp	 edx, DWORD PTR [eax]
  0004a	75 02		 jne	 SHORT $LN9@Insert_nod

; 692  :                 _Head->_Left = _Newnode;

  0004c	89 38		 mov	 DWORD PTR [eax], edi
$LN9@Insert_nod:

; 693  :             }
; 694  :         }
; 695  : 
; 696  :         for (_Nodeptr _Pnode = _Newnode; _Pnode->_Parent->_Color == _Red;) {

  0004e	8b 4f 04	 mov	 ecx, DWORD PTR [edi+4]
  00051	8b c7		 mov	 eax, edi
  00053	80 79 0c 00	 cmp	 BYTE PTR [ecx+12], 0
  00057	0f 85 7d 01 00
	00		 jne	 $LN3@Insert_nod
  0005d	56		 push	 esi
  0005e	66 90		 npad	 2
$LL4@Insert_nod:

; 697  :             if (_Pnode->_Parent == _Pnode->_Parent->_Parent->_Left) { // fixup red-red in left subtree

  00060	8b 50 04	 mov	 edx, DWORD PTR [eax+4]
  00063	8b 72 04	 mov	 esi, DWORD PTR [edx+4]
  00066	8b 0e		 mov	 ecx, DWORD PTR [esi]
  00068	3b d1		 cmp	 edx, ecx
  0006a	0f 85 aa 00 00
	00		 jne	 $LN10@Insert_nod

; 698  :                 const auto _Parent_sibling = _Pnode->_Parent->_Parent->_Right;

  00070	8b 4e 08	 mov	 ecx, DWORD PTR [esi+8]

; 699  :                 if (_Parent_sibling->_Color == _Red) { // parent's sibling has two red children, blacken both

  00073	80 79 0c 00	 cmp	 BYTE PTR [ecx+12], 0
  00077	0f 84 a3 00 00
	00		 je	 $LN82@Insert_nod

; 700  :                     _Pnode->_Parent->_Color          = _Black;
; 701  :                     _Parent_sibling->_Color          = _Black;
; 702  :                     _Pnode->_Parent->_Parent->_Color = _Red;
; 703  :                     _Pnode                           = _Pnode->_Parent->_Parent;
; 704  :                 } else { // parent's sibling has red and black children
; 705  :                     if (_Pnode == _Pnode->_Parent->_Right) { // rotate right child to left

  0007d	8b 72 08	 mov	 esi, DWORD PTR [edx+8]
  00080	3b c6		 cmp	 eax, esi
  00082	75 37		 jne	 SHORT $LN57@Insert_nod

; 485  :         _Wherenode->_Right = _Pnode->_Left;

  00084	8b 0e		 mov	 ecx, DWORD PTR [esi]

; 706  :                         _Pnode = _Pnode->_Parent;

  00086	8b c2		 mov	 eax, edx

; 485  :         _Wherenode->_Right = _Pnode->_Left;

  00088	89 4a 08	 mov	 DWORD PTR [edx+8], ecx

; 486  : 
; 487  :         if (!_Pnode->_Left->_Isnil) {

  0008b	8b 0e		 mov	 ecx, DWORD PTR [esi]
  0008d	80 79 0d 00	 cmp	 BYTE PTR [ecx+13], 0
  00091	75 03		 jne	 SHORT $LN21@Insert_nod

; 488  :             _Pnode->_Left->_Parent = _Wherenode;

  00093	89 41 04	 mov	 DWORD PTR [ecx+4], eax
$LN21@Insert_nod:

; 489  :         }
; 490  : 
; 491  :         _Pnode->_Parent = _Wherenode->_Parent;

  00096	8b 4a 04	 mov	 ecx, DWORD PTR [edx+4]
  00099	89 4e 04	 mov	 DWORD PTR [esi+4], ecx

; 492  : 
; 493  :         if (_Wherenode == _Myhead->_Parent) {

  0009c	8b 0b		 mov	 ecx, DWORD PTR [ebx]
  0009e	3b 41 04	 cmp	 eax, DWORD PTR [ecx+4]
  000a1	75 05		 jne	 SHORT $LN22@Insert_nod

; 494  :             _Myhead->_Parent = _Pnode;

  000a3	89 71 04	 mov	 DWORD PTR [ecx+4], esi
  000a6	eb 0e		 jmp	 SHORT $LN25@Insert_nod
$LN22@Insert_nod:

; 495  :         } else if (_Wherenode == _Wherenode->_Parent->_Left) {

  000a8	8b 4a 04	 mov	 ecx, DWORD PTR [edx+4]
  000ab	3b 01		 cmp	 eax, DWORD PTR [ecx]
  000ad	75 04		 jne	 SHORT $LN24@Insert_nod

; 496  :             _Wherenode->_Parent->_Left = _Pnode;

  000af	89 31		 mov	 DWORD PTR [ecx], esi

; 497  :         } else {

  000b1	eb 03		 jmp	 SHORT $LN25@Insert_nod
$LN24@Insert_nod:

; 498  :             _Wherenode->_Parent->_Right = _Pnode;

  000b3	89 71 08	 mov	 DWORD PTR [ecx+8], esi
$LN25@Insert_nod:

; 499  :         }
; 500  : 
; 501  :         _Pnode->_Left       = _Wherenode;

  000b6	89 06		 mov	 DWORD PTR [esi], eax

; 502  :         _Wherenode->_Parent = _Pnode;

  000b8	89 70 04	 mov	 DWORD PTR [eax+4], esi
$LN57@Insert_nod:

; 707  :                         _Lrotate(_Pnode);
; 708  :                     }
; 709  : 
; 710  :                     _Pnode->_Parent->_Color          = _Black; // propagate red up

  000bb	8b 48 04	 mov	 ecx, DWORD PTR [eax+4]
  000be	c6 41 0c 01	 mov	 BYTE PTR [ecx+12], 1

; 711  :                     _Pnode->_Parent->_Parent->_Color = _Red;

  000c2	8b 48 04	 mov	 ecx, DWORD PTR [eax+4]
  000c5	8b 49 04	 mov	 ecx, DWORD PTR [ecx+4]
  000c8	c6 41 0c 00	 mov	 BYTE PTR [ecx+12], 0

; 712  :                     _Rrotate(_Pnode->_Parent->_Parent);

  000cc	8b 48 04	 mov	 ecx, DWORD PTR [eax+4]
  000cf	8b 51 04	 mov	 edx, DWORD PTR [ecx+4]

; 506  :         _Nodeptr _Pnode   = _Wherenode->_Left;

  000d2	8b 32		 mov	 esi, DWORD PTR [edx]

; 507  :         _Wherenode->_Left = _Pnode->_Right;

  000d4	8b 4e 08	 mov	 ecx, DWORD PTR [esi+8]
  000d7	89 0a		 mov	 DWORD PTR [edx], ecx

; 508  : 
; 509  :         if (!_Pnode->_Right->_Isnil) {

  000d9	8b 4e 08	 mov	 ecx, DWORD PTR [esi+8]
  000dc	80 79 0d 00	 cmp	 BYTE PTR [ecx+13], 0
  000e0	75 03		 jne	 SHORT $LN29@Insert_nod

; 510  :             _Pnode->_Right->_Parent = _Wherenode;

  000e2	89 51 04	 mov	 DWORD PTR [ecx+4], edx
$LN29@Insert_nod:

; 511  :         }
; 512  : 
; 513  :         _Pnode->_Parent = _Wherenode->_Parent;

  000e5	8b 4a 04	 mov	 ecx, DWORD PTR [edx+4]
  000e8	89 4e 04	 mov	 DWORD PTR [esi+4], ecx

; 514  : 
; 515  :         if (_Wherenode == _Myhead->_Parent) {

  000eb	8b 0b		 mov	 ecx, DWORD PTR [ebx]
  000ed	3b 51 04	 cmp	 edx, DWORD PTR [ecx+4]
  000f0	75 0b		 jne	 SHORT $LN30@Insert_nod

; 516  :             _Myhead->_Parent = _Pnode;

  000f2	89 71 04	 mov	 DWORD PTR [ecx+4], esi

; 521  :         }
; 522  : 
; 523  :         _Pnode->_Right      = _Wherenode;

  000f5	89 56 08	 mov	 DWORD PTR [esi+8], edx

; 713  :                 }
; 714  :             } else { // fixup red-red in right subtree

  000f8	e9 cc 00 00 00	 jmp	 $LN81@Insert_nod
$LN30@Insert_nod:

; 517  :         } else if (_Wherenode == _Wherenode->_Parent->_Right) {

  000fd	8b 4a 04	 mov	 ecx, DWORD PTR [edx+4]
  00100	3b 51 08	 cmp	 edx, DWORD PTR [ecx+8]
  00103	75 0b		 jne	 SHORT $LN32@Insert_nod

; 518  :             _Wherenode->_Parent->_Right = _Pnode;

  00105	89 71 08	 mov	 DWORD PTR [ecx+8], esi

; 521  :         }
; 522  : 
; 523  :         _Pnode->_Right      = _Wherenode;

  00108	89 56 08	 mov	 DWORD PTR [esi+8], edx

; 713  :                 }
; 714  :             } else { // fixup red-red in right subtree

  0010b	e9 b9 00 00 00	 jmp	 $LN81@Insert_nod
$LN32@Insert_nod:

; 520  :             _Wherenode->_Parent->_Left = _Pnode;

  00110	89 31		 mov	 DWORD PTR [ecx], esi

; 521  :         }
; 522  : 
; 523  :         _Pnode->_Right      = _Wherenode;

  00112	89 56 08	 mov	 DWORD PTR [esi+8], edx

; 713  :                 }
; 714  :             } else { // fixup red-red in right subtree

  00115	e9 af 00 00 00	 jmp	 $LN81@Insert_nod
$LN10@Insert_nod:

; 715  :                 const auto _Parent_sibling = _Pnode->_Parent->_Parent->_Left;
; 716  :                 if (_Parent_sibling->_Color == _Red) { // parent's sibling has two red children, blacken both

  0011a	80 79 0c 00	 cmp	 BYTE PTR [ecx+12], 0
  0011e	75 1d		 jne	 SHORT $LN15@Insert_nod
$LN82@Insert_nod:

; 693  :             }
; 694  :         }
; 695  : 
; 696  :         for (_Nodeptr _Pnode = _Newnode; _Pnode->_Parent->_Color == _Red;) {

  00120	c6 42 0c 01	 mov	 BYTE PTR [edx+12], 1
  00124	c6 41 0c 01	 mov	 BYTE PTR [ecx+12], 1
  00128	8b 48 04	 mov	 ecx, DWORD PTR [eax+4]
  0012b	8b 49 04	 mov	 ecx, DWORD PTR [ecx+4]
  0012e	c6 41 0c 00	 mov	 BYTE PTR [ecx+12], 0
  00132	8b 48 04	 mov	 ecx, DWORD PTR [eax+4]
  00135	8b 41 04	 mov	 eax, DWORD PTR [ecx+4]
  00138	e9 8f 00 00 00	 jmp	 $LN2@Insert_nod
$LN15@Insert_nod:

; 717  :                     _Pnode->_Parent->_Color          = _Black;
; 718  :                     _Parent_sibling->_Color          = _Black;
; 719  :                     _Pnode->_Parent->_Parent->_Color = _Red;
; 720  :                     _Pnode                           = _Pnode->_Parent->_Parent;
; 721  :                 } else { // parent's sibling has red and black children
; 722  :                     if (_Pnode == _Pnode->_Parent->_Left) { // rotate left child to right

  0013d	8b 32		 mov	 esi, DWORD PTR [edx]
  0013f	3b c6		 cmp	 eax, esi
  00141	75 3a		 jne	 SHORT $LN42@Insert_nod

; 507  :         _Wherenode->_Left = _Pnode->_Right;

  00143	8b 4e 08	 mov	 ecx, DWORD PTR [esi+8]

; 723  :                         _Pnode = _Pnode->_Parent;

  00146	8b c2		 mov	 eax, edx

; 507  :         _Wherenode->_Left = _Pnode->_Right;

  00148	89 08		 mov	 DWORD PTR [eax], ecx

; 508  : 
; 509  :         if (!_Pnode->_Right->_Isnil) {

  0014a	8b 4e 08	 mov	 ecx, DWORD PTR [esi+8]
  0014d	80 79 0d 00	 cmp	 BYTE PTR [ecx+13], 0
  00151	75 03		 jne	 SHORT $LN37@Insert_nod

; 510  :             _Pnode->_Right->_Parent = _Wherenode;

  00153	89 41 04	 mov	 DWORD PTR [ecx+4], eax
$LN37@Insert_nod:

; 511  :         }
; 512  : 
; 513  :         _Pnode->_Parent = _Wherenode->_Parent;

  00156	8b 4a 04	 mov	 ecx, DWORD PTR [edx+4]
  00159	89 4e 04	 mov	 DWORD PTR [esi+4], ecx

; 514  : 
; 515  :         if (_Wherenode == _Myhead->_Parent) {

  0015c	8b 0b		 mov	 ecx, DWORD PTR [ebx]
  0015e	3b 41 04	 cmp	 eax, DWORD PTR [ecx+4]
  00161	75 05		 jne	 SHORT $LN38@Insert_nod

; 516  :             _Myhead->_Parent = _Pnode;

  00163	89 71 04	 mov	 DWORD PTR [ecx+4], esi
  00166	eb 0f		 jmp	 SHORT $LN41@Insert_nod
$LN38@Insert_nod:

; 517  :         } else if (_Wherenode == _Wherenode->_Parent->_Right) {

  00168	8b 4a 04	 mov	 ecx, DWORD PTR [edx+4]
  0016b	3b 41 08	 cmp	 eax, DWORD PTR [ecx+8]
  0016e	75 05		 jne	 SHORT $LN40@Insert_nod

; 518  :             _Wherenode->_Parent->_Right = _Pnode;

  00170	89 71 08	 mov	 DWORD PTR [ecx+8], esi

; 519  :         } else {

  00173	eb 02		 jmp	 SHORT $LN41@Insert_nod
$LN40@Insert_nod:

; 520  :             _Wherenode->_Parent->_Left = _Pnode;

  00175	89 31		 mov	 DWORD PTR [ecx], esi
$LN41@Insert_nod:

; 521  :         }
; 522  : 
; 523  :         _Pnode->_Right      = _Wherenode;

  00177	89 46 08	 mov	 DWORD PTR [esi+8], eax

; 524  :         _Wherenode->_Parent = _Pnode;

  0017a	89 70 04	 mov	 DWORD PTR [eax+4], esi
$LN42@Insert_nod:

; 724  :                         _Rrotate(_Pnode);
; 725  :                     }
; 726  : 
; 727  :                     _Pnode->_Parent->_Color          = _Black; // propagate red up

  0017d	8b 48 04	 mov	 ecx, DWORD PTR [eax+4]
  00180	c6 41 0c 01	 mov	 BYTE PTR [ecx+12], 1

; 728  :                     _Pnode->_Parent->_Parent->_Color = _Red;

  00184	8b 48 04	 mov	 ecx, DWORD PTR [eax+4]
  00187	8b 49 04	 mov	 ecx, DWORD PTR [ecx+4]
  0018a	c6 41 0c 00	 mov	 BYTE PTR [ecx+12], 0

; 729  :                     _Lrotate(_Pnode->_Parent->_Parent);

  0018e	8b 48 04	 mov	 ecx, DWORD PTR [eax+4]
  00191	8b 51 04	 mov	 edx, DWORD PTR [ecx+4]

; 484  :         _Nodeptr _Pnode    = _Wherenode->_Right;

  00194	8b 72 08	 mov	 esi, DWORD PTR [edx+8]

; 485  :         _Wherenode->_Right = _Pnode->_Left;

  00197	8b 0e		 mov	 ecx, DWORD PTR [esi]
  00199	89 4a 08	 mov	 DWORD PTR [edx+8], ecx

; 486  : 
; 487  :         if (!_Pnode->_Left->_Isnil) {

  0019c	8b 0e		 mov	 ecx, DWORD PTR [esi]
  0019e	80 79 0d 00	 cmp	 BYTE PTR [ecx+13], 0
  001a2	75 03		 jne	 SHORT $LN45@Insert_nod

; 488  :             _Pnode->_Left->_Parent = _Wherenode;

  001a4	89 51 04	 mov	 DWORD PTR [ecx+4], edx
$LN45@Insert_nod:

; 489  :         }
; 490  : 
; 491  :         _Pnode->_Parent = _Wherenode->_Parent;

  001a7	8b 4a 04	 mov	 ecx, DWORD PTR [edx+4]
  001aa	89 4e 04	 mov	 DWORD PTR [esi+4], ecx

; 492  : 
; 493  :         if (_Wherenode == _Myhead->_Parent) {

  001ad	8b 0b		 mov	 ecx, DWORD PTR [ebx]
  001af	3b 51 04	 cmp	 edx, DWORD PTR [ecx+4]
  001b2	75 05		 jne	 SHORT $LN46@Insert_nod

; 494  :             _Myhead->_Parent = _Pnode;

  001b4	89 71 04	 mov	 DWORD PTR [ecx+4], esi
  001b7	eb 0e		 jmp	 SHORT $LN49@Insert_nod
$LN46@Insert_nod:

; 495  :         } else if (_Wherenode == _Wherenode->_Parent->_Left) {

  001b9	8b 4a 04	 mov	 ecx, DWORD PTR [edx+4]
  001bc	3b 11		 cmp	 edx, DWORD PTR [ecx]
  001be	75 04		 jne	 SHORT $LN48@Insert_nod

; 496  :             _Wherenode->_Parent->_Left = _Pnode;

  001c0	89 31		 mov	 DWORD PTR [ecx], esi

; 497  :         } else {

  001c2	eb 03		 jmp	 SHORT $LN49@Insert_nod
$LN48@Insert_nod:

; 498  :             _Wherenode->_Parent->_Right = _Pnode;

  001c4	89 71 08	 mov	 DWORD PTR [ecx+8], esi
$LN49@Insert_nod:

; 499  :         }
; 500  : 
; 501  :         _Pnode->_Left       = _Wherenode;

  001c7	89 16		 mov	 DWORD PTR [esi], edx
$LN81@Insert_nod:

; 693  :             }
; 694  :         }
; 695  : 
; 696  :         for (_Nodeptr _Pnode = _Newnode; _Pnode->_Parent->_Color == _Red;) {

  001c9	89 72 04	 mov	 DWORD PTR [edx+4], esi
$LN2@Insert_nod:
  001cc	8b 48 04	 mov	 ecx, DWORD PTR [eax+4]
  001cf	80 79 0c 00	 cmp	 BYTE PTR [ecx+12], 0
  001d3	0f 84 87 fe ff
	ff		 je	 $LL4@Insert_nod
  001d9	5e		 pop	 esi
$LN3@Insert_nod:

; 730  :                 }
; 731  :             }
; 732  :         }
; 733  : 
; 734  :         _Head->_Parent->_Color = _Black; // root is always black

  001da	8b 45 fc	 mov	 eax, DWORD PTR __Head$1$[ebp]
  001dd	8b 40 04	 mov	 eax, DWORD PTR [eax+4]
  001e0	c6 40 0c 01	 mov	 BYTE PTR [eax+12], 1

; 735  :         return _Newnode;
; 736  :     }

  001e4	8b c7		 mov	 eax, edi
  001e6	5f		 pop	 edi
  001e7	5b		 pop	 ebx
  001e8	8b e5		 mov	 esp, ebp
  001ea	5d		 pop	 ebp
  001eb	c2 0c 00	 ret	 12			; 0000000cH
?_Insert_node@?$_Tree_val@U?$_Tree_simple_types@U?$pair@$$CBHH@std@@@std@@@std@@QAEPAU?$_Tree_node@U?$pair@$$CBHH@std@@PAX@2@U?$_Tree_id@PAU?$_Tree_node@U?$pair@$$CBHH@std@@PAX@std@@@2@QAU32@@Z ENDP ; std::_Tree_val<std::_Tree_simple_types<std::pair<int const ,int> > >::_Insert_node
_TEXT	ENDS
; Function compile flags: /Ogtp
; File C:\Program Files\Microsoft Visual Studio\2022\Professional\VC\Tools\MSVC\14.44.35207\include\vector
;	COMDAT ?_Xlength@?$vector@KV?$allocator@K@std@@@std@@CAXXZ
_TEXT	SEGMENT
?_Xlength@?$vector@KV?$allocator@K@std@@@std@@CAXXZ PROC ; std::vector<unsigned long,std::allocator<unsigned long> >::_Xlength, COMDAT

; 2184 :         _Xlength_error("vector too long");

  00000	68 00 00 00 00	 push	 OFFSET ??_C@_0BA@FOIKENOD@vector?5too?5long@
  00005	e8 00 00 00 00	 call	 ?_Xlength_error@std@@YAXPBD@Z ; std::_Xlength_error
$LN3@Xlength:
  0000a	cc		 int	 3
?_Xlength@?$vector@KV?$allocator@K@std@@@std@@CAXXZ ENDP ; std::vector<unsigned long,std::allocator<unsigned long> >::_Xlength
_TEXT	ENDS
; Function compile flags: /Ogtp
; File C:\Program Files\Microsoft Visual Studio\2022\Professional\VC\Tools\MSVC\14.44.35207\include\vector
; File C:\Program Files\Microsoft Visual Studio\2022\Professional\VC\Tools\MSVC\14.44.35207\include\xmemory
; File C:\Program Files\Microsoft Visual Studio\2022\Professional\VC\Tools\MSVC\14.44.35207\include\vector
; File C:\Program Files\Microsoft Visual Studio\2022\Professional\VC\Tools\MSVC\14.44.35207\include\xmemory
; File C:\Program Files\Microsoft Visual Studio\2022\Professional\VC\Tools\MSVC\14.44.35207\include\vector
; File C:\Program Files\Microsoft Visual Studio\2022\Professional\VC\Tools\MSVC\14.44.35207\include\xmemory
; File C:\Program Files\Microsoft Visual Studio\2022\Professional\VC\Tools\MSVC\14.44.35207\include\vector
;	COMDAT ?_Tidy@?$vector@KV?$allocator@K@std@@@std@@AAEXXZ
_TEXT	SEGMENT
?_Tidy@?$vector@KV?$allocator@K@std@@@std@@AAEXXZ PROC	; std::vector<unsigned long,std::allocator<unsigned long> >::_Tidy, COMDAT
; _this$ = ecx

; 2081 :     _CONSTEXPR20 void _Tidy() noexcept { // free all storage

  00000	56		 push	 esi
  00001	8b f1		 mov	 esi, ecx

; 2082 :         auto& _Al         = _Getal();
; 2083 :         auto& _My_data    = _Mypair._Myval2;
; 2084 :         pointer& _Myfirst = _My_data._Myfirst;
; 2085 :         pointer& _Mylast  = _My_data._Mylast;
; 2086 :         pointer& _Myend   = _My_data._Myend;
; 2087 : 
; 2088 :         _My_data._Orphan_all();
; 2089 : 
; 2090 :         if (_Myfirst) { // destroy and deallocate old array

  00003	8b 06		 mov	 eax, DWORD PTR [esi]
  00005	85 c0		 test	 eax, eax
  00007	74 40		 je	 SHORT $LN2@Tidy

; 2091 :             _STD _Destroy_range(_Myfirst, _Mylast, _Al);
; 2092 :             _ASAN_VECTOR_REMOVE;
; 2093 :             _Al.deallocate(_Myfirst, static_cast<size_type>(_Myend - _Myfirst));

  00009	8b 4e 08	 mov	 ecx, DWORD PTR [esi+8]
  0000c	2b c8		 sub	 ecx, eax
; File C:\Program Files\Microsoft Visual Studio\2022\Professional\VC\Tools\MSVC\14.44.35207\include\xmemory

; 985  :         _STD _Deallocate<_New_alignof<_Ty>>(_Ptr, sizeof(_Ty) * _Count);

  0000e	83 e1 fc	 and	 ecx, -4			; fffffffcH

; 284  :         if (_Bytes >= _Big_allocation_threshold) {

  00011	81 f9 00 10 00
	00		 cmp	 ecx, 4096		; 00001000H
  00017	72 12		 jb	 SHORT $LN15@Tidy

; 205  :     const uintptr_t _Ptr_container   = _Ptr_user[-1];

  00019	8b 50 fc	 mov	 edx, DWORD PTR [eax-4]
  0001c	83 c1 23	 add	 ecx, 35			; 00000023H

; 206  : 
; 207  :     // If the following asserts, it likely means that we are performing
; 208  :     // an aligned delete on memory coming from an unaligned allocation.
; 209  :     _STL_ASSERT(_Ptr_user[-2] == _Big_allocation_sentinel, "invalid argument");
; 210  : 
; 211  :     // Extra paranoia on aligned allocation/deallocation; ensure _Ptr_container is
; 212  :     // in range [_Min_back_shift, _Non_user_size]
; 213  : #ifdef _DEBUG
; 214  :     constexpr uintptr_t _Min_back_shift = 2 * sizeof(void*);
; 215  : #else // ^^^ defined(_DEBUG) / !defined(_DEBUG) vvv
; 216  :     constexpr uintptr_t _Min_back_shift = sizeof(void*);
; 217  : #endif // ^^^ !defined(_DEBUG) ^^^
; 218  :     const uintptr_t _Back_shift = reinterpret_cast<uintptr_t>(_Ptr) - _Ptr_container;

  0001f	2b c2		 sub	 eax, edx

; 219  :     _STL_VERIFY(_Back_shift >= _Min_back_shift && _Back_shift <= _Non_user_size, "invalid argument");

  00021	83 c0 fc	 add	 eax, -4			; fffffffcH
  00024	83 f8 1f	 cmp	 eax, 31			; 0000001fH
  00027	77 22		 ja	 SHORT $LN14@Tidy

; 220  :     _Ptr = reinterpret_cast<void*>(_Ptr_container);

  00029	8b c2		 mov	 eax, edx
$LN15@Tidy:

; 289  :         ::operator delete(_Ptr, _Bytes);

  0002b	51		 push	 ecx
  0002c	50		 push	 eax
  0002d	e8 00 00 00 00	 call	 ??3@YAXPAXI@Z		; operator delete
; File C:\Program Files\Microsoft Visual Studio\2022\Professional\VC\Tools\MSVC\14.44.35207\include\vector

; 2095 :             _Myfirst = nullptr;

  00032	c7 06 00 00 00
	00		 mov	 DWORD PTR [esi], 0
; File C:\Program Files\Microsoft Visual Studio\2022\Professional\VC\Tools\MSVC\14.44.35207\include\xmemory

; 289  :         ::operator delete(_Ptr, _Bytes);

  00038	83 c4 08	 add	 esp, 8
; File C:\Program Files\Microsoft Visual Studio\2022\Professional\VC\Tools\MSVC\14.44.35207\include\vector

; 2096 :             _Mylast  = nullptr;

  0003b	c7 46 04 00 00
	00 00		 mov	 DWORD PTR [esi+4], 0

; 2097 :             _Myend   = nullptr;

  00042	c7 46 08 00 00
	00 00		 mov	 DWORD PTR [esi+8], 0
$LN2@Tidy:

; 2099 :     }

  00049	5e		 pop	 esi
  0004a	c3		 ret	 0
$LN14@Tidy:
; File C:\Program Files\Microsoft Visual Studio\2022\Professional\VC\Tools\MSVC\14.44.35207\include\xmemory

; 219  :     _STL_VERIFY(_Back_shift >= _Min_back_shift && _Back_shift <= _Non_user_size, "invalid argument");

  0004b	6a 00		 push	 0
  0004d	6a 00		 push	 0
  0004f	6a 00		 push	 0
  00051	6a 00		 push	 0
  00053	6a 00		 push	 0
  00055	e8 00 00 00 00	 call	 __invoke_watson
$LN22@Tidy:
  0005a	cc		 int	 3
?_Tidy@?$vector@KV?$allocator@K@std@@@std@@AAEXXZ ENDP	; std::vector<unsigned long,std::allocator<unsigned long> >::_Tidy
_TEXT	ENDS
; Function compile flags: /Ogtp
; File C:\Program Files\Microsoft Visual Studio\2022\Professional\VC\Tools\MSVC\14.44.35207\include\vector
; File C:\Program Files\Microsoft Visual Studio\2022\Professional\VC\Tools\MSVC\14.44.35207\include\xmemory
; File C:\Program Files\Microsoft Visual Studio\2022\Professional\VC\Tools\MSVC\14.44.35207\include\vector
; File C:\Program Files\Microsoft Visual Studio\2022\Professional\VC\Tools\MSVC\14.44.35207\include\xmemory
; File C:\Program Files\Microsoft Visual Studio\2022\Professional\VC\Tools\MSVC\14.44.35207\include\vector
; File C:\Program Files\Microsoft Visual Studio\2022\Professional\VC\Tools\MSVC\14.44.35207\include\xmemory
; File C:\Program Files\Microsoft Visual Studio\2022\Professional\VC\Tools\MSVC\14.44.35207\include\vector
; File C:\Program Files\Microsoft Visual Studio\2022\Professional\VC\Tools\MSVC\14.44.35207\include\xmemory
; File C:\Program Files\Microsoft Visual Studio\2022\Professional\VC\Tools\MSVC\14.44.35207\include\vector
; File C:\Program Files\Microsoft Visual Studio\2022\Professional\VC\Tools\MSVC\14.44.35207\include\xmemory
; File C:\Program Files\Microsoft Visual Studio\2022\Professional\VC\Tools\MSVC\14.44.35207\include\vector
;	COMDAT ?_Buy_raw@?$vector@KV?$allocator@K@std@@@std@@AAEXI@Z
_TEXT	SEGMENT
__Newcapacity$ = 8					; size = 4
?_Buy_raw@?$vector@KV?$allocator@K@std@@@std@@AAEXI@Z PROC ; std::vector<unsigned long,std::allocator<unsigned long> >::_Buy_raw, COMDAT
; _this$ = ecx

; 2024 :     _CONSTEXPR20 void _Buy_raw(size_type _Newcapacity) {

  00000	55		 push	 ebp
  00001	8b ec		 mov	 ebp, esp
  00003	56		 push	 esi
; File C:\Program Files\Microsoft Visual Studio\2022\Professional\VC\Tools\MSVC\14.44.35207\include\xmemory

; 117  :         if (_Count > _Max_possible) {

  00004	8b 75 08	 mov	 esi, DWORD PTR __Newcapacity$[ebp]
; File C:\Program Files\Microsoft Visual Studio\2022\Professional\VC\Tools\MSVC\14.44.35207\include\vector

; 2024 :     _CONSTEXPR20 void _Buy_raw(size_type _Newcapacity) {

  00007	57		 push	 edi
  00008	8b f9		 mov	 edi, ecx
; File C:\Program Files\Microsoft Visual Studio\2022\Professional\VC\Tools\MSVC\14.44.35207\include\xmemory

; 117  :         if (_Count > _Max_possible) {

  0000a	81 fe ff ff ff
	3f		 cmp	 esi, 1073741823		; 3fffffffH
  00010	77 52		 ja	 SHORT $LN25@Buy_raw

; 119  :         }
; 120  :     }
; 121  : 
; 122  :     return _Count * _Ty_size;

  00012	c1 e6 02	 shl	 esi, 2

; 227  :     if (_Bytes == 0) {

  00015	85 f6		 test	 esi, esi
  00017	75 12		 jne	 SHORT $LN12@Buy_raw

; 228  :         return nullptr;

  00019	33 c0		 xor	 eax, eax
; File C:\Program Files\Microsoft Visual Studio\2022\Professional\VC\Tools\MSVC\14.44.35207\include\vector

; 2035 :         _Myfirst              = _Newvec;

  0001b	89 07		 mov	 DWORD PTR [edi], eax

; 2036 :         _Mylast               = _Newvec;

  0001d	89 47 04	 mov	 DWORD PTR [edi+4], eax

; 2037 :         _Myend                = _Newvec + _Newcapacity;

  00020	8b c6		 mov	 eax, esi
  00022	89 47 08	 mov	 DWORD PTR [edi+8], eax

; 2038 :     }

  00025	5f		 pop	 edi
  00026	5e		 pop	 esi
  00027	5d		 pop	 ebp
  00028	c2 04 00	 ret	 4
$LN12@Buy_raw:
; File C:\Program Files\Microsoft Visual Studio\2022\Professional\VC\Tools\MSVC\14.44.35207\include\xmemory

; 251  :         if (_Bytes >= _Big_allocation_threshold) {

  0002b	56		 push	 esi
  0002c	81 fe 00 10 00
	00		 cmp	 esi, 4096		; 00001000H
  00032	72 18		 jb	 SHORT $LN13@Buy_raw

; 252  :             // boost the alignment of big allocations to help autovectorization
; 253  :             return _Allocate_manually_vector_aligned<_Traits>(_Bytes);

  00034	e8 00 00 00 00	 call	 ??$_Allocate_manually_vector_aligned@U_Default_allocate_traits@std@@@std@@YAPAXI@Z ; std::_Allocate_manually_vector_aligned<std::_Default_allocate_traits>
; File C:\Program Files\Microsoft Visual Studio\2022\Professional\VC\Tools\MSVC\14.44.35207\include\vector

; 2035 :         _Myfirst              = _Newvec;

  00039	89 07		 mov	 DWORD PTR [edi], eax
  0003b	83 c4 04	 add	 esp, 4

; 2036 :         _Mylast               = _Newvec;

  0003e	89 47 04	 mov	 DWORD PTR [edi+4], eax

; 2037 :         _Myend                = _Newvec + _Newcapacity;

  00041	03 c6		 add	 eax, esi
  00043	89 47 08	 mov	 DWORD PTR [edi+8], eax

; 2038 :     }

  00046	5f		 pop	 edi
  00047	5e		 pop	 esi
  00048	5d		 pop	 ebp
  00049	c2 04 00	 ret	 4
$LN13@Buy_raw:
; File C:\Program Files\Microsoft Visual Studio\2022\Professional\VC\Tools\MSVC\14.44.35207\include\xmemory

; 136  :         return ::operator new(_Bytes);

  0004c	e8 00 00 00 00	 call	 ??2@YAPAXI@Z		; operator new
; File C:\Program Files\Microsoft Visual Studio\2022\Professional\VC\Tools\MSVC\14.44.35207\include\vector

; 2035 :         _Myfirst              = _Newvec;

  00051	89 07		 mov	 DWORD PTR [edi], eax
  00053	83 c4 04	 add	 esp, 4

; 2036 :         _Mylast               = _Newvec;

  00056	89 47 04	 mov	 DWORD PTR [edi+4], eax

; 2037 :         _Myend                = _Newvec + _Newcapacity;

  00059	03 c6		 add	 eax, esi
  0005b	89 47 08	 mov	 DWORD PTR [edi+8], eax

; 2038 :     }

  0005e	5f		 pop	 edi
  0005f	5e		 pop	 esi
  00060	5d		 pop	 ebp
  00061	c2 04 00	 ret	 4
$LN25@Buy_raw:
; File C:\Program Files\Microsoft Visual Studio\2022\Professional\VC\Tools\MSVC\14.44.35207\include\xmemory

; 118  :             _Throw_bad_array_new_length(); // multiply overflow

  00064	e8 00 00 00 00	 call	 ?_Throw_bad_array_new_length@std@@YAXXZ ; std::_Throw_bad_array_new_length
$LN22@Buy_raw:
  00069	cc		 int	 3
?_Buy_raw@?$vector@KV?$allocator@K@std@@@std@@AAEXI@Z ENDP ; std::vector<unsigned long,std::allocator<unsigned long> >::_Buy_raw
_TEXT	ENDS
; Function compile flags: /Ogtp
; File C:\Program Files\Microsoft Visual Studio\2022\Professional\VC\Tools\MSVC\14.44.35207\include\vector
; File C:\Program Files\Microsoft Visual Studio\2022\Professional\VC\Tools\MSVC\14.44.35207\include\xmemory
; File C:\Program Files\Microsoft Visual Studio\2022\Professional\VC\Tools\MSVC\14.44.35207\include\xutility
; File C:\Program Files\Microsoft Visual Studio\2022\Professional\VC\Tools\MSVC\14.44.35207\include\vector
; File C:\Program Files\Microsoft Visual Studio\2022\Professional\VC\Tools\MSVC\14.44.35207\include\xmemory
; File C:\Program Files\Microsoft Visual Studio\2022\Professional\VC\Tools\MSVC\14.44.35207\include\vector
; File C:\Program Files\Microsoft Visual Studio\2022\Professional\VC\Tools\MSVC\14.44.35207\include\xutility
; File C:\Program Files\Microsoft Visual Studio\2022\Professional\VC\Tools\MSVC\14.44.35207\include\vector
; File C:\Program Files\Microsoft Visual Studio\2022\Professional\VC\Tools\MSVC\14.44.35207\include\xutility
; File C:\Program Files\Microsoft Visual Studio\2022\Professional\VC\Tools\MSVC\14.44.35207\include\vector
;	COMDAT ??4?$vector@KV?$allocator@K@std@@@std@@QAEAAV01@ABV01@@Z
_TEXT	SEGMENT
tv519 = -8						; size = 4
__Oldsize$1$ = -4					; size = 4
__Right$ = 8						; size = 4
__First$2$ = 8						; size = 4
??4?$vector@KV?$allocator@K@std@@@std@@QAEAAV01@ABV01@@Z PROC ; std::vector<unsigned long,std::allocator<unsigned long> >::operator=, COMDAT
; _this$ = ecx

; 1523 :     _CONSTEXPR20 vector& operator=(const vector& _Right) {

  00000	55		 push	 ebp
  00001	8b ec		 mov	 ebp, esp
  00003	83 ec 08	 sub	 esp, 8
  00006	53		 push	 ebx

; 1524 :         if (this == _STD addressof(_Right)) {

  00007	8b 5d 08	 mov	 ebx, DWORD PTR __Right$[ebp]
  0000a	57		 push	 edi
  0000b	8b f9		 mov	 edi, ecx
  0000d	3b fb		 cmp	 edi, ebx
  0000f	0f 84 e5 00 00
	00		 je	 $LN10@operator

; 1525 :             return *this;
; 1526 :         }
; 1527 : 
; 1528 :         auto& _Al       = _Getal();
; 1529 :         auto& _Right_al = _Right._Getal();
; 1530 :         if constexpr (_Choose_pocca_v<_Alty>) {
; 1531 :             if (_Al != _Right_al) {
; 1532 :                 _Tidy();
; 1533 :                 _Mypair._Myval2._Reload_proxy(_GET_PROXY_ALLOCATOR(_Alty, _Al), _GET_PROXY_ALLOCATOR(_Alty, _Right_al));
; 1534 :             }
; 1535 :         }
; 1536 : 
; 1537 :         _Pocca(_Al, _Right_al);
; 1538 :         auto& _Right_data = _Right._Mypair._Myval2;
; 1539 :         _Assign_counted_range(_Right_data._Myfirst, static_cast<size_type>(_Right_data._Mylast - _Right_data._Myfirst));

  00015	8b 03		 mov	 eax, DWORD PTR [ebx]
  00017	8b 5b 04	 mov	 ebx, DWORD PTR [ebx+4]

; 1432 :         const auto _Oldcapacity = static_cast<size_type>(_Myend - _Myfirst);

  0001a	8b 0f		 mov	 ecx, DWORD PTR [edi]

; 1525 :             return *this;
; 1526 :         }
; 1527 : 
; 1528 :         auto& _Al       = _Getal();
; 1529 :         auto& _Right_al = _Right._Getal();
; 1530 :         if constexpr (_Choose_pocca_v<_Alty>) {
; 1531 :             if (_Al != _Right_al) {
; 1532 :                 _Tidy();
; 1533 :                 _Mypair._Myval2._Reload_proxy(_GET_PROXY_ALLOCATOR(_Alty, _Al), _GET_PROXY_ALLOCATOR(_Alty, _Right_al));
; 1534 :             }
; 1535 :         }
; 1536 : 
; 1537 :         _Pocca(_Al, _Right_al);
; 1538 :         auto& _Right_data = _Right._Mypair._Myval2;
; 1539 :         _Assign_counted_range(_Right_data._Myfirst, static_cast<size_type>(_Right_data._Mylast - _Right_data._Myfirst));

  0001c	2b d8		 sub	 ebx, eax

; 1432 :         const auto _Oldcapacity = static_cast<size_type>(_Myend - _Myfirst);

  0001e	8b 57 08	 mov	 edx, DWORD PTR [edi+8]
  00021	2b d1		 sub	 edx, ecx

; 1525 :             return *this;
; 1526 :         }
; 1527 : 
; 1528 :         auto& _Al       = _Getal();
; 1529 :         auto& _Right_al = _Right._Getal();
; 1530 :         if constexpr (_Choose_pocca_v<_Alty>) {
; 1531 :             if (_Al != _Right_al) {
; 1532 :                 _Tidy();
; 1533 :                 _Mypair._Myval2._Reload_proxy(_GET_PROXY_ALLOCATOR(_Alty, _Al), _GET_PROXY_ALLOCATOR(_Alty, _Right_al));
; 1534 :             }
; 1535 :         }
; 1536 : 
; 1537 :         _Pocca(_Al, _Right_al);
; 1538 :         auto& _Right_data = _Right._Mypair._Myval2;
; 1539 :         _Assign_counted_range(_Right_data._Myfirst, static_cast<size_type>(_Right_data._Mylast - _Right_data._Myfirst));

  00023	c1 fb 02	 sar	 ebx, 2

; 1432 :         const auto _Oldcapacity = static_cast<size_type>(_Myend - _Myfirst);

  00026	c1 fa 02	 sar	 edx, 2

; 1525 :             return *this;
; 1526 :         }
; 1527 : 
; 1528 :         auto& _Al       = _Getal();
; 1529 :         auto& _Right_al = _Right._Getal();
; 1530 :         if constexpr (_Choose_pocca_v<_Alty>) {
; 1531 :             if (_Al != _Right_al) {
; 1532 :                 _Tidy();
; 1533 :                 _Mypair._Myval2._Reload_proxy(_GET_PROXY_ALLOCATOR(_Alty, _Al), _GET_PROXY_ALLOCATOR(_Alty, _Right_al));
; 1534 :             }
; 1535 :         }
; 1536 : 
; 1537 :         _Pocca(_Al, _Right_al);
; 1538 :         auto& _Right_data = _Right._Mypair._Myval2;
; 1539 :         _Assign_counted_range(_Right_data._Myfirst, static_cast<size_type>(_Right_data._Mylast - _Right_data._Myfirst));

  00029	89 45 08	 mov	 DWORD PTR __First$2$[ebp], eax

; 1432 :         const auto _Oldcapacity = static_cast<size_type>(_Myend - _Myfirst);

  0002c	89 4d f8	 mov	 DWORD PTR tv519[ebp], ecx
  0002f	56		 push	 esi

; 1433 :         if (_Newsize > _Oldcapacity) {

  00030	3b da		 cmp	 ebx, edx
  00032	76 73		 jbe	 SHORT $LN8@operator

; 1703 :         if (_Newsize > max_size()) {

  00034	81 fb ff ff ff
	3f		 cmp	 ebx, 1073741823		; 3fffffffH
  0003a	0f 87 c4 00 00
	00		 ja	 $LN69@operator

; 2011 :         if (_Oldcapacity > _Max - _Oldcapacity / 2) {

  00040	8b f2		 mov	 esi, edx
  00042	b8 ff ff ff 3f	 mov	 eax, 1073741823		; 3fffffffH
  00047	d1 ee		 shr	 esi, 1
  00049	2b c6		 sub	 eax, esi
  0004b	3b d0		 cmp	 edx, eax
  0004d	76 07		 jbe	 SHORT $LN18@operator

; 2012 :             return _Max; // geometric growth would overflow

  0004f	be ff ff ff 3f	 mov	 esi, 1073741823		; 3fffffffH
  00054	eb 07		 jmp	 SHORT $LN19@operator
$LN18@operator:

; 2013 :         }
; 2014 : 
; 2015 :         const size_type _Geometric = _Oldcapacity + _Oldcapacity / 2;

  00056	03 f2		 add	 esi, edx

; 2016 : 
; 2017 :         if (_Geometric < _Newsize) {

  00058	3b f3		 cmp	 esi, ebx
  0005a	0f 42 f3	 cmovb	 esi, ebx
$LN19@operator:

; 1709 :         if (_Myfirst) { // destroy and deallocate old array

  0005d	85 c9		 test	 ecx, ecx
  0005f	74 1d		 je	 SHORT $LN15@operator

; 1710 :             _Destroy_range(_Myfirst, _Mylast, _Al);
; 1711 :             _ASAN_VECTOR_REMOVE;
; 1712 :             _Al.deallocate(_Myfirst, static_cast<size_type>(_Myend - _Myfirst));

  00061	52		 push	 edx
  00062	51		 push	 ecx
  00063	8b cf		 mov	 ecx, edi
  00065	e8 00 00 00 00	 call	 ?deallocate@?$allocator@K@std@@QAEXQAKI@Z ; std::allocator<unsigned long>::deallocate

; 1713 : 
; 1714 :             _Myfirst = nullptr;

  0006a	c7 07 00 00 00
	00		 mov	 DWORD PTR [edi], 0

; 1715 :             _Mylast  = nullptr;

  00070	c7 47 04 00 00
	00 00		 mov	 DWORD PTR [edi+4], 0

; 1716 :             _Myend   = nullptr;

  00077	c7 47 08 00 00
	00 00		 mov	 DWORD PTR [edi+8], 0
$LN15@operator:

; 1717 :         }
; 1718 : 
; 1719 :         _Buy_raw(_Newcapacity);

  0007e	56		 push	 esi
  0007f	8b cf		 mov	 ecx, edi
  00081	e8 00 00 00 00	 call	 ?_Buy_raw@?$vector@KV?$allocator@K@std@@@std@@AAEXI@Z ; std::vector<unsigned long,std::allocator<unsigned long> >::_Buy_raw

; 1436 :                 _Mylast = _STD _Uninitialized_copy_n(_STD move(_First), _Newsize, _Myfirst, _Al);

  00086	8b 37		 mov	 esi, DWORD PTR [edi]
; File C:\Program Files\Microsoft Visual Studio\2022\Professional\VC\Tools\MSVC\14.44.35207\include\xmemory

; 1930 :             _STD _Copy_memmove_n(_UFirst, _Count, _STD _Unfancy(_Dest));

  00088	8b 45 08	 mov	 eax, DWORD PTR __First$2$[ebp]
  0008b	56		 push	 esi
  0008c	53		 push	 ebx
  0008d	50		 push	 eax
  0008e	e8 00 00 00 00	 call	 ??$_Copy_memmove_n@PAKPAK@std@@YAPAKPAKI0@Z ; std::_Copy_memmove_n<unsigned long *,unsigned long *>

; 1931 :             _Dest += _Count;

  00093	8d 04 9e	 lea	 eax, DWORD PTR [esi+ebx*4]
; File C:\Program Files\Microsoft Visual Studio\2022\Professional\VC\Tools\MSVC\14.44.35207\include\xutility

; 4808 :             return _Copy_memmove_n(_First, static_cast<size_t>(_Count), _Dest);

  00096	83 c4 0c	 add	 esp, 12			; 0000000cH
; File C:\Program Files\Microsoft Visual Studio\2022\Professional\VC\Tools\MSVC\14.44.35207\include\vector

; 1478 :             _Mylast = _Newlast;

  00099	89 47 04	 mov	 DWORD PTR [edi+4], eax

; 1540 : 
; 1541 :         return *this;

  0009c	8b c7		 mov	 eax, edi
  0009e	5e		 pop	 esi

; 1542 :     }

  0009f	5f		 pop	 edi
  000a0	5b		 pop	 ebx
  000a1	8b e5		 mov	 esp, ebp
  000a3	5d		 pop	 ebp
  000a4	c2 04 00	 ret	 4
$LN8@operator:

; 1445 :         const auto _Oldsize = static_cast<size_type>(_Mylast - _Myfirst);

  000a7	8b 77 04	 mov	 esi, DWORD PTR [edi+4]
  000aa	2b f1		 sub	 esi, ecx
  000ac	c1 fe 02	 sar	 esi, 2
  000af	89 75 fc	 mov	 DWORD PTR __Oldsize$1$[ebp], esi

; 1446 :         if (_Newsize > _Oldsize) {

  000b2	51		 push	 ecx
  000b3	3b de		 cmp	 ebx, esi
  000b5	76 2f		 jbe	 SHORT $LN9@operator

; 1447 :             bool _Copied = false;
; 1448 :             if constexpr (_Iter_copy_cat<_Iter, pointer>::_Bitcopy_assignable) {
; 1449 : #if _HAS_CXX20
; 1450 :                 if (!_STD is_constant_evaluated())
; 1451 : #endif // _HAS_CXX20
; 1452 :                 {
; 1453 :                     _Copy_memmove_n(_First, static_cast<size_t>(_Oldsize), _Myfirst);

  000b7	56		 push	 esi
  000b8	50		 push	 eax
  000b9	e8 00 00 00 00	 call	 ??$_Copy_memmove_n@PAKPAK@std@@YAPAKPAKI0@Z ; std::_Copy_memmove_n<unsigned long *,unsigned long *>

; 1454 :                     _First += _Oldsize;

  000be	8b 45 08	 mov	 eax, DWORD PTR __First$2$[ebp]

; 1455 :                     _Copied = true;
; 1456 :                 }
; 1457 :             }
; 1458 : 
; 1459 :             if (!_Copied) {
; 1460 :                 for (auto _Mid = _Myfirst; _Mid != _Mylast; ++_Mid, (void) ++_First) {
; 1461 :                     *_Mid = *_First;
; 1462 :                 }
; 1463 :             }
; 1464 : 
; 1465 :             if constexpr (_Nothrow_construct) {
; 1466 :                 _ASAN_VECTOR_MODIFY(static_cast<difference_type>(_Newsize - _Oldsize));
; 1467 :                 _Mylast = _STD _Uninitialized_copy_n(_STD move(_First), _Newsize - _Oldsize, _Mylast, _Al);

  000c1	2b 5d fc	 sub	 ebx, DWORD PTR __Oldsize$1$[ebp]
  000c4	8d 04 b0	 lea	 eax, DWORD PTR [eax+esi*4]
  000c7	8b 77 04	 mov	 esi, DWORD PTR [edi+4]
; File C:\Program Files\Microsoft Visual Studio\2022\Professional\VC\Tools\MSVC\14.44.35207\include\xmemory

; 1930 :             _STD _Copy_memmove_n(_UFirst, _Count, _STD _Unfancy(_Dest));

  000ca	56		 push	 esi
  000cb	53		 push	 ebx
  000cc	50		 push	 eax
  000cd	e8 00 00 00 00	 call	 ??$_Copy_memmove_n@PAKPAK@std@@YAPAKPAKI0@Z ; std::_Copy_memmove_n<unsigned long *,unsigned long *>
  000d2	83 c4 18	 add	 esp, 24			; 00000018H

; 1931 :             _Dest += _Count;

  000d5	8d 04 9e	 lea	 eax, DWORD PTR [esi+ebx*4]
; File C:\Program Files\Microsoft Visual Studio\2022\Professional\VC\Tools\MSVC\14.44.35207\include\vector

; 1478 :             _Mylast = _Newlast;

  000d8	89 47 04	 mov	 DWORD PTR [edi+4], eax

; 1540 : 
; 1541 :         return *this;

  000db	8b c7		 mov	 eax, edi
  000dd	5e		 pop	 esi

; 1542 :     }

  000de	5f		 pop	 edi
  000df	5b		 pop	 ebx
  000e0	8b e5		 mov	 esp, ebp
  000e2	5d		 pop	 ebp
  000e3	c2 04 00	 ret	 4
$LN9@operator:
; File C:\Program Files\Microsoft Visual Studio\2022\Professional\VC\Tools\MSVC\14.44.35207\include\xutility

; 4808 :             return _Copy_memmove_n(_First, static_cast<size_t>(_Count), _Dest);

  000e6	53		 push	 ebx
  000e7	50		 push	 eax
  000e8	e8 00 00 00 00	 call	 ??$_Copy_memmove_n@PAKPAK@std@@YAPAKPAKI0@Z ; std::_Copy_memmove_n<unsigned long *,unsigned long *>
; File C:\Program Files\Microsoft Visual Studio\2022\Professional\VC\Tools\MSVC\14.44.35207\include\vector

; 1474 :             const pointer _Newlast = _Myfirst + _Newsize;

  000ed	8b 45 f8	 mov	 eax, DWORD PTR tv519[ebp]
; File C:\Program Files\Microsoft Visual Studio\2022\Professional\VC\Tools\MSVC\14.44.35207\include\xutility

; 4808 :             return _Copy_memmove_n(_First, static_cast<size_t>(_Count), _Dest);

  000f0	83 c4 0c	 add	 esp, 12			; 0000000cH
; File C:\Program Files\Microsoft Visual Studio\2022\Professional\VC\Tools\MSVC\14.44.35207\include\vector

; 1474 :             const pointer _Newlast = _Myfirst + _Newsize;

  000f3	8d 04 98	 lea	 eax, DWORD PTR [eax+ebx*4]

; 1478 :             _Mylast = _Newlast;

  000f6	89 47 04	 mov	 DWORD PTR [edi+4], eax
  000f9	5e		 pop	 esi
$LN10@operator:

; 1540 : 
; 1541 :         return *this;

  000fa	8b c7		 mov	 eax, edi

; 1542 :     }

  000fc	5f		 pop	 edi
  000fd	5b		 pop	 ebx
  000fe	8b e5		 mov	 esp, ebp
  00100	5d		 pop	 ebp
  00101	c2 04 00	 ret	 4
$LN69@operator:

; 1704 :             _Xlength();

  00104	e8 00 00 00 00	 call	 ?_Xlength@?$vector@KV?$allocator@K@std@@@std@@CAXXZ ; std::vector<unsigned long,std::allocator<unsigned long> >::_Xlength
$LN65@operator:
  00109	cc		 int	 3
??4?$vector@KV?$allocator@K@std@@@std@@QAEAAV01@ABV01@@Z ENDP ; std::vector<unsigned long,std::allocator<unsigned long> >::operator=
_TEXT	ENDS
; Function compile flags: /Ogtp
; File C:\Program Files\Microsoft Visual Studio\2022\Professional\VC\Tools\MSVC\14.44.35207\include\xmemory
;	COMDAT ?deallocate@?$allocator@K@std@@QAEXQAKI@Z
_TEXT	SEGMENT
__Ptr$ = 8						; size = 4
__Count$ = 12						; size = 4
?deallocate@?$allocator@K@std@@QAEXQAKI@Z PROC		; std::allocator<unsigned long>::deallocate, COMDAT
; _this$ = ecx

; 982  :     _CONSTEXPR20 void deallocate(_Ty* const _Ptr, const size_t _Count) noexcept /* strengthened */ {

  00000	55		 push	 ebp
  00001	8b ec		 mov	 ebp, esp

; 983  :         _STL_ASSERT(_Ptr != nullptr || _Count == 0, "null pointer cannot point to a block of non-zero size");
; 984  :         // no overflow check on the following multiply; we assume _Allocate did that check
; 985  :         _STD _Deallocate<_New_alignof<_Ty>>(_Ptr, sizeof(_Ty) * _Count);

  00003	8b 45 0c	 mov	 eax, DWORD PTR __Count$[ebp]
  00006	8d 0c 85 00 00
	00 00		 lea	 ecx, DWORD PTR [eax*4]
  0000d	8b 45 08	 mov	 eax, DWORD PTR __Ptr$[ebp]

; 284  :         if (_Bytes >= _Big_allocation_threshold) {

  00010	81 f9 00 10 00
	00		 cmp	 ecx, 4096		; 00001000H
  00016	72 12		 jb	 SHORT $LN11@deallocate

; 205  :     const uintptr_t _Ptr_container   = _Ptr_user[-1];

  00018	8b 50 fc	 mov	 edx, DWORD PTR [eax-4]
  0001b	83 c1 23	 add	 ecx, 35			; 00000023H

; 206  : 
; 207  :     // If the following asserts, it likely means that we are performing
; 208  :     // an aligned delete on memory coming from an unaligned allocation.
; 209  :     _STL_ASSERT(_Ptr_user[-2] == _Big_allocation_sentinel, "invalid argument");
; 210  : 
; 211  :     // Extra paranoia on aligned allocation/deallocation; ensure _Ptr_container is
; 212  :     // in range [_Min_back_shift, _Non_user_size]
; 213  : #ifdef _DEBUG
; 214  :     constexpr uintptr_t _Min_back_shift = 2 * sizeof(void*);
; 215  : #else // ^^^ defined(_DEBUG) / !defined(_DEBUG) vvv
; 216  :     constexpr uintptr_t _Min_back_shift = sizeof(void*);
; 217  : #endif // ^^^ !defined(_DEBUG) ^^^
; 218  :     const uintptr_t _Back_shift = reinterpret_cast<uintptr_t>(_Ptr) - _Ptr_container;

  0001e	2b c2		 sub	 eax, edx

; 219  :     _STL_VERIFY(_Back_shift >= _Min_back_shift && _Back_shift <= _Non_user_size, "invalid argument");

  00020	83 c0 fc	 add	 eax, -4			; fffffffcH
  00023	83 f8 1f	 cmp	 eax, 31			; 0000001fH
  00026	77 10		 ja	 SHORT $LN10@deallocate

; 220  :     _Ptr = reinterpret_cast<void*>(_Ptr_container);

  00028	8b c2		 mov	 eax, edx
$LN11@deallocate:

; 289  :         ::operator delete(_Ptr, _Bytes);

  0002a	51		 push	 ecx
  0002b	50		 push	 eax
  0002c	e8 00 00 00 00	 call	 ??3@YAXPAXI@Z		; operator delete
  00031	83 c4 08	 add	 esp, 8

; 986  :     }

  00034	5d		 pop	 ebp
  00035	c2 08 00	 ret	 8
$LN10@deallocate:

; 219  :     _STL_VERIFY(_Back_shift >= _Min_back_shift && _Back_shift <= _Non_user_size, "invalid argument");

  00038	6a 00		 push	 0
  0003a	6a 00		 push	 0
  0003c	6a 00		 push	 0
  0003e	6a 00		 push	 0
  00040	6a 00		 push	 0
  00042	e8 00 00 00 00	 call	 __invoke_watson
$LN14@deallocate:
  00047	cc		 int	 3
?deallocate@?$allocator@K@std@@QAEXQAKI@Z ENDP		; std::allocator<unsigned long>::deallocate
_TEXT	ENDS
; Function compile flags: /Ogtp
; File C:\IAGOS\server\v18\Source\Source\_network\CmnHdr.h
;	COMDAT ??0_LogItemInfo@@QAE@XZ
_TEXT	SEGMENT
??0_LogItemInfo@@QAE@XZ PROC				; _LogItemInfo::_LogItemInfo, COMDAT
; _this$ = ecx

; 636  : 	{
; 637  : 		Action = _T("");

  00000	c7 01 00 00 00
	00		 mov	 DWORD PTR [ecx], OFFSET ??_C@_00CNPNBAHC@@
  00006	0f 57 c0	 xorps	 xmm0, xmm0

; 638  : 		SendName = _T("");

  00009	c7 41 04 00 00
	00 00		 mov	 DWORD PTR [ecx+4], OFFSET ??_C@_00CNPNBAHC@@

; 639  : 		RecvName = _T("");
; 640  : 		WorldId = Gold = Gold2 = 0;
; 641  : 		Negudo = 0;
; 642  : 		MaxNegudo = 0;
; 643  : 		ItemNo = 0;
; 644  : 		//ItemName = _T("");
; 645  : 		::memset( szItemName, 0, sizeof(szItemName) );
; 646  : 		itemNumber = 0;
; 647  : 		nAbilityOption = 0;
; 648  : 		Gold_1 = 0;
; 649  : 		nSlot = 100;
; 650  : 		nSlot1 = 100;
; 651  : 		nItemResist = 0;
; 652  : 		nResistAbilityOption = 0;
; 653  : 		m_bCharged = FALSE;
; 654  : 		m_dwKeepTime = 0;
; 655  : #if __VER >= 11 // __SYS_IDENTIFY
; 656  : 		m_iRandomOptItemId = 0;
; 657  : #else	//__SYS_IDENTIFY
; 658  : 		m_nRandomOptItemId = 0;
; 659  : #endif	// __SYS_IDENTIFY
; 660  : #if __VER >= 12 // __EXT_PIERCING
; 661  : 		nPiercedSize = 0;
; 662  : //		for( int i=0; i<MAX_PIERCING_WEAPON; i++ )
; 663  : //			adwItemId[i] = 0;
; 664  : 		memset( adwItemId, 0, sizeof(adwItemId) );
; 665  : 		nUMPiercedSize = 0;
; 666  : //		for( i=0; i<MAX_PIERCING_ULTIMATE; i++ )
; 667  : //	adwUMItemId[i] = 0;
; 668  : 		memset( adwUMItemId, 0, sizeof(adwUMItemId) );
; 669  : #else // __EXT_PIERCING
; 670  : 		nPiercedSize = 0;
; 671  : 		adwItemId0 = 0;
; 672  : 		adwItemId1 = 0;
; 673  : 		adwItemId2 = 0;
; 674  : 		adwItemId3 = 0;
; 675  : #if __VER >= 9 // __ULTIMATE
; 676  : 		adwItemId4 = 0;
; 677  : #endif // __ULTIMATE
; 678  : #endif // __EXT_PIERCING
; 679  : #if __VER >= 9 // __PET_0410
; 680  : 		nPetKind = 0;
; 681  : 		nPetLevel = 0;
; 682  : 		dwPetExp = 0;
; 683  : 		wPetEnergy = 0;

  00010	33 c0		 xor	 eax, eax
  00012	c7 41 08 00 00
	00 00		 mov	 DWORD PTR [ecx+8], OFFSET ??_C@_00CNPNBAHC@@
  00019	c7 41 14 00 00
	00 00		 mov	 DWORD PTR [ecx+20], 0
  00020	c7 41 10 00 00
	00 00		 mov	 DWORD PTR [ecx+16], 0
  00027	c7 41 0c 00 00
	00 00		 mov	 DWORD PTR [ecx+12], 0
  0002e	c7 41 1c 00 00
	00 00		 mov	 DWORD PTR [ecx+28], 0
  00035	c7 41 20 00 00
	00 00		 mov	 DWORD PTR [ecx+32], 0
  0003c	c7 41 18 00 00
	00 00		 mov	 DWORD PTR [ecx+24], 0
  00043	0f 11 41 24	 movups	 XMMWORD PTR [ecx+36], xmm0
  00047	0f 11 41 34	 movups	 XMMWORD PTR [ecx+52], xmm0
  0004b	c7 41 44 00 00
	00 00		 mov	 DWORD PTR [ecx+68], 0
  00052	c7 41 48 00 00
	00 00		 mov	 DWORD PTR [ecx+72], 0
  00059	c7 41 4c 00 00
	00 00		 mov	 DWORD PTR [ecx+76], 0
  00060	c7 41 50 64 00
	00 00		 mov	 DWORD PTR [ecx+80], 100	; 00000064H
  00067	c7 41 54 64 00
	00 00		 mov	 DWORD PTR [ecx+84], 100	; 00000064H
  0006e	c7 41 58 00 00
	00 00		 mov	 DWORD PTR [ecx+88], 0
  00075	c7 41 5c 00 00
	00 00		 mov	 DWORD PTR [ecx+92], 0
  0007c	c7 41 60 00 00
	00 00		 mov	 DWORD PTR [ecx+96], 0
  00083	c7 41 64 00 00
	00 00		 mov	 DWORD PTR [ecx+100], 0
  0008a	c7 41 68 00 00
	00 00		 mov	 DWORD PTR [ecx+104], 0
  00091	c7 41 6c 00 00
	00 00		 mov	 DWORD PTR [ecx+108], 0
  00098	c7 41 70 00 00
	00 00		 mov	 DWORD PTR [ecx+112], 0
  0009f	0f 11 41 74	 movups	 XMMWORD PTR [ecx+116], xmm0
  000a3	0f 11 81 84 00
	00 00		 movups	 XMMWORD PTR [ecx+132], xmm0
  000aa	66 0f d6 81 94
	00 00 00	 movq	 QWORD PTR [ecx+148], xmm0
  000b2	c7 81 9c 00 00
	00 00 00 00 00	 mov	 DWORD PTR [ecx+156], 0
  000bc	0f 11 81 a0 00
	00 00		 movups	 XMMWORD PTR [ecx+160], xmm0
  000c3	c7 81 b0 00 00
	00 00 00 00 00	 mov	 DWORD PTR [ecx+176], 0
  000cd	89 81 bc 00 00
	00		 mov	 DWORD PTR [ecx+188], eax

; 684  : 		wPetLife = 0;
; 685  : 		nPetAL_D = 0;

  000d3	89 81 c0 00 00
	00		 mov	 DWORD PTR [ecx+192], eax

; 686  : 		nPetAL_C = 0;
; 687  : 		nPetAL_B = 0;
; 688  : 		nPetAL_A = 0;
; 689  : 		nPetAL_S = 0;

  000d9	88 81 c4 00 00
	00		 mov	 BYTE PTR [ecx+196], al

; 690  : #endif // __PET_0410
; 691  : 	}

  000df	8b c1		 mov	 eax, ecx
  000e1	66 c7 81 b4 00
	00 00 00 00	 mov	 WORD PTR [ecx+180], 0
  000ea	c7 81 b8 00 00
	00 00 00 00 00	 mov	 DWORD PTR [ecx+184], 0
  000f4	c3		 ret	 0
??0_LogItemInfo@@QAE@XZ ENDP				; _LogItemInfo::_LogItemInfo
_TEXT	ENDS
; Function compile flags: /Ogtp
; File C:\Program Files\Microsoft Visual Studio\2022\Professional\VC\Tools\MSVC\14.44.35207\include\xtree
;	COMDAT ?_Throw_tree_length_error@std@@YAXXZ
_TEXT	SEGMENT
?_Throw_tree_length_error@std@@YAXXZ PROC		; std::_Throw_tree_length_error, COMDAT

; 417  :     _Xlength_error("map/set too long");

  00000	68 00 00 00 00	 push	 OFFSET ??_C@_0BB@GCADKGJO@map?1set?5too?5long@
  00005	e8 00 00 00 00	 call	 ?_Xlength_error@std@@YAXPBD@Z ; std::_Xlength_error
$LN3@Throw_tree:
  0000a	cc		 int	 3
?_Throw_tree_length_error@std@@YAXXZ ENDP		; std::_Throw_tree_length_error
_TEXT	ENDS
; Function compile flags: /Ogtp
; File C:\Program Files\Microsoft Visual Studio\2022\Professional\VC\Tools\MSVC\14.44.35207\include\xmemory
;	COMDAT ?_Throw_bad_array_new_length@std@@YAXXZ
_TEXT	SEGMENT
$T1 = -12						; size = 12
?_Throw_bad_array_new_length@std@@YAXXZ PROC		; std::_Throw_bad_array_new_length, COMDAT

; 107  : [[noreturn]] inline void _Throw_bad_array_new_length() {

  00000	55		 push	 ebp
  00001	8b ec		 mov	 ebp, esp
  00003	83 ec 0c	 sub	 esp, 12			; 0000000cH

; 108  :     _THROW(bad_array_new_length{});

  00006	8d 4d f4	 lea	 ecx, DWORD PTR $T1[ebp]
  00009	e8 00 00 00 00	 call	 ??0bad_array_new_length@std@@QAE@XZ ; std::bad_array_new_length::bad_array_new_length
  0000e	68 00 00 00 00	 push	 OFFSET __TI3?AVbad_array_new_length@std@@
  00013	8d 45 f4	 lea	 eax, DWORD PTR $T1[ebp]
  00016	50		 push	 eax
  00017	e8 00 00 00 00	 call	 __CxxThrowException@8
$LN3@Throw_bad_:
  0001c	cc		 int	 3
?_Throw_bad_array_new_length@std@@YAXXZ ENDP		; std::_Throw_bad_array_new_length
_TEXT	ENDS
; Function compile flags: /Ogtp
; File C:\Program Files\Microsoft Visual Studio\2022\Professional\VC\Tools\MSVC\14.44.35207\include\vcruntime_exception.h
;	COMDAT ??_Gbad_array_new_length@std@@UAEPAXI@Z
_TEXT	SEGMENT
___flags$ = 8						; size = 4
??_Gbad_array_new_length@std@@UAEPAXI@Z PROC		; std::bad_array_new_length::`scalar deleting destructor', COMDAT
; _this$ = ecx
  00000	55		 push	 ebp
  00001	8b ec		 mov	 ebp, esp

; 90   :     {

  00003	56		 push	 esi
  00004	8b f1		 mov	 esi, ecx

; 91   :         __std_exception_destroy(&_Data);

  00006	8d 46 04	 lea	 eax, DWORD PTR [esi+4]
  00009	c7 06 00 00 00
	00		 mov	 DWORD PTR [esi], OFFSET ??_7exception@std@@6B@
  0000f	50		 push	 eax
  00010	e8 00 00 00 00	 call	 ___std_exception_destroy
  00015	83 c4 04	 add	 esp, 4
  00018	f6 45 08 01	 test	 BYTE PTR ___flags$[ebp], 1
  0001c	74 0b		 je	 SHORT $LN18@scalar
  0001e	6a 0c		 push	 12			; 0000000cH
  00020	56		 push	 esi
  00021	e8 00 00 00 00	 call	 ??3@YAXPAXI@Z		; operator delete
  00026	83 c4 08	 add	 esp, 8
$LN18@scalar:
  00029	8b c6		 mov	 eax, esi
  0002b	5e		 pop	 esi
  0002c	5d		 pop	 ebp
  0002d	c2 04 00	 ret	 4
??_Gbad_array_new_length@std@@UAEPAXI@Z ENDP		; std::bad_array_new_length::`scalar deleting destructor'
_TEXT	ENDS
; Function compile flags: /Ogtp
; File C:\Program Files\Microsoft Visual Studio\2022\Professional\VC\Tools\MSVC\14.44.35207\include\vcruntime_exception.h
;	COMDAT ??0bad_array_new_length@std@@QAE@ABV01@@Z
_TEXT	SEGMENT
___that$ = 8						; size = 4
??0bad_array_new_length@std@@QAE@ABV01@@Z PROC		; std::bad_array_new_length::bad_array_new_length, COMDAT
; _this$ = ecx
  00000	55		 push	 ebp
  00001	8b ec		 mov	 ebp, esp

; 73   :     {

  00003	56		 push	 esi
  00004	8b f1		 mov	 esi, ecx
  00006	0f 57 c0	 xorps	 xmm0, xmm0

; 72   :         : _Data()

  00009	8d 46 04	 lea	 eax, DWORD PTR [esi+4]

; 74   :         __std_exception_copy(&_Other._Data, &_Data);

  0000c	50		 push	 eax
  0000d	c7 06 00 00 00
	00		 mov	 DWORD PTR [esi], OFFSET ??_7exception@std@@6B@
  00013	66 0f d6 00	 movq	 QWORD PTR [eax], xmm0
  00017	8b 45 08	 mov	 eax, DWORD PTR ___that$[ebp]
  0001a	83 c0 04	 add	 eax, 4
  0001d	50		 push	 eax
  0001e	e8 00 00 00 00	 call	 ___std_exception_copy
  00023	83 c4 08	 add	 esp, 8
  00026	c7 06 00 00 00
	00		 mov	 DWORD PTR [esi], OFFSET ??_7bad_array_new_length@std@@6B@
  0002c	8b c6		 mov	 eax, esi
  0002e	5e		 pop	 esi
  0002f	5d		 pop	 ebp
  00030	c2 04 00	 ret	 4
??0bad_array_new_length@std@@QAE@ABV01@@Z ENDP		; std::bad_array_new_length::bad_array_new_length
_TEXT	ENDS
; Function compile flags: /Ogtp
; File C:\Program Files\Microsoft Visual Studio\2022\Professional\VC\Tools\MSVC\14.44.35207\include\vcruntime_exception.h
;	COMDAT ??1bad_array_new_length@std@@UAE@XZ
_TEXT	SEGMENT
??1bad_array_new_length@std@@UAE@XZ PROC		; std::bad_array_new_length::~bad_array_new_length, COMDAT
; _this$ = ecx

; 91   :         __std_exception_destroy(&_Data);

  00000	8d 41 04	 lea	 eax, DWORD PTR [ecx+4]
  00003	c7 01 00 00 00
	00		 mov	 DWORD PTR [ecx], OFFSET ??_7exception@std@@6B@
  00009	50		 push	 eax
  0000a	e8 00 00 00 00	 call	 ___std_exception_destroy
  0000f	59		 pop	 ecx
  00010	c3		 ret	 0
??1bad_array_new_length@std@@UAE@XZ ENDP		; std::bad_array_new_length::~bad_array_new_length
_TEXT	ENDS
; Function compile flags: /Ogtp
; File C:\Program Files\Microsoft Visual Studio\2022\Professional\VC\Tools\MSVC\14.44.35207\include\vcruntime_exception.h
;	COMDAT ??0bad_array_new_length@std@@QAE@XZ
_TEXT	SEGMENT
??0bad_array_new_length@std@@QAE@XZ PROC		; std::bad_array_new_length::bad_array_new_length, COMDAT
; _this$ = ecx

; 144  :     {

  00000	0f 57 c0	 xorps	 xmm0, xmm0

; 145  :     }

  00003	8b c1		 mov	 eax, ecx

; 66   :         : _Data()

  00005	66 0f d6 41 04	 movq	 QWORD PTR [ecx+4], xmm0

; 67   :     {
; 68   :         _Data._What = _Message;

  0000a	c7 41 04 00 00
	00 00		 mov	 DWORD PTR [ecx+4], OFFSET ??_C@_0BF@KINCDENJ@bad?5array?5new?5length@

; 144  :     {

  00011	c7 01 00 00 00
	00		 mov	 DWORD PTR [ecx], OFFSET ??_7bad_array_new_length@std@@6B@

; 145  :     }

  00017	c3		 ret	 0
??0bad_array_new_length@std@@QAE@XZ ENDP		; std::bad_array_new_length::bad_array_new_length
_TEXT	ENDS
; Function compile flags: /Ogtp
; File C:\Program Files\Microsoft Visual Studio\2022\Professional\VC\Tools\MSVC\14.44.35207\include\vcruntime_exception.h
;	COMDAT ??_Gbad_alloc@std@@UAEPAXI@Z
_TEXT	SEGMENT
___flags$ = 8						; size = 4
??_Gbad_alloc@std@@UAEPAXI@Z PROC			; std::bad_alloc::`scalar deleting destructor', COMDAT
; _this$ = ecx
  00000	55		 push	 ebp
  00001	8b ec		 mov	 ebp, esp

; 90   :     {

  00003	56		 push	 esi
  00004	8b f1		 mov	 esi, ecx

; 91   :         __std_exception_destroy(&_Data);

  00006	8d 46 04	 lea	 eax, DWORD PTR [esi+4]
  00009	c7 06 00 00 00
	00		 mov	 DWORD PTR [esi], OFFSET ??_7exception@std@@6B@
  0000f	50		 push	 eax
  00010	e8 00 00 00 00	 call	 ___std_exception_destroy
  00015	83 c4 04	 add	 esp, 4
  00018	f6 45 08 01	 test	 BYTE PTR ___flags$[ebp], 1
  0001c	74 0b		 je	 SHORT $LN13@scalar
  0001e	6a 0c		 push	 12			; 0000000cH
  00020	56		 push	 esi
  00021	e8 00 00 00 00	 call	 ??3@YAXPAXI@Z		; operator delete
  00026	83 c4 08	 add	 esp, 8
$LN13@scalar:
  00029	8b c6		 mov	 eax, esi
  0002b	5e		 pop	 esi
  0002c	5d		 pop	 ebp
  0002d	c2 04 00	 ret	 4
??_Gbad_alloc@std@@UAEPAXI@Z ENDP			; std::bad_alloc::`scalar deleting destructor'
_TEXT	ENDS
; Function compile flags: /Ogtp
; File C:\Program Files\Microsoft Visual Studio\2022\Professional\VC\Tools\MSVC\14.44.35207\include\vcruntime_exception.h
;	COMDAT ??0bad_alloc@std@@QAE@ABV01@@Z
_TEXT	SEGMENT
___that$ = 8						; size = 4
??0bad_alloc@std@@QAE@ABV01@@Z PROC			; std::bad_alloc::bad_alloc, COMDAT
; _this$ = ecx
  00000	55		 push	 ebp
  00001	8b ec		 mov	 ebp, esp

; 73   :     {

  00003	56		 push	 esi
  00004	8b f1		 mov	 esi, ecx
  00006	0f 57 c0	 xorps	 xmm0, xmm0

; 72   :         : _Data()

  00009	8d 46 04	 lea	 eax, DWORD PTR [esi+4]

; 74   :         __std_exception_copy(&_Other._Data, &_Data);

  0000c	50		 push	 eax
  0000d	c7 06 00 00 00
	00		 mov	 DWORD PTR [esi], OFFSET ??_7exception@std@@6B@
  00013	66 0f d6 00	 movq	 QWORD PTR [eax], xmm0
  00017	8b 45 08	 mov	 eax, DWORD PTR ___that$[ebp]
  0001a	83 c0 04	 add	 eax, 4
  0001d	50		 push	 eax
  0001e	e8 00 00 00 00	 call	 ___std_exception_copy
  00023	83 c4 08	 add	 esp, 8
  00026	c7 06 00 00 00
	00		 mov	 DWORD PTR [esi], OFFSET ??_7bad_alloc@std@@6B@
  0002c	8b c6		 mov	 eax, esi
  0002e	5e		 pop	 esi
  0002f	5d		 pop	 ebp
  00030	c2 04 00	 ret	 4
??0bad_alloc@std@@QAE@ABV01@@Z ENDP			; std::bad_alloc::bad_alloc
_TEXT	ENDS
; Function compile flags: /Ogtp
; File C:\Program Files\Microsoft Visual Studio\2022\Professional\VC\Tools\MSVC\14.44.35207\include\vcruntime_exception.h
;	COMDAT ??_Gexception@std@@UAEPAXI@Z
_TEXT	SEGMENT
___flags$ = 8						; size = 4
??_Gexception@std@@UAEPAXI@Z PROC			; std::exception::`scalar deleting destructor', COMDAT
; _this$ = ecx
  00000	55		 push	 ebp
  00001	8b ec		 mov	 ebp, esp

; 90   :     {

  00003	56		 push	 esi
  00004	8b f1		 mov	 esi, ecx

; 91   :         __std_exception_destroy(&_Data);

  00006	8d 46 04	 lea	 eax, DWORD PTR [esi+4]
  00009	c7 06 00 00 00
	00		 mov	 DWORD PTR [esi], OFFSET ??_7exception@std@@6B@
  0000f	50		 push	 eax
  00010	e8 00 00 00 00	 call	 ___std_exception_destroy
  00015	83 c4 04	 add	 esp, 4
  00018	f6 45 08 01	 test	 BYTE PTR ___flags$[ebp], 1
  0001c	74 0b		 je	 SHORT $LN8@scalar
  0001e	6a 0c		 push	 12			; 0000000cH
  00020	56		 push	 esi
  00021	e8 00 00 00 00	 call	 ??3@YAXPAXI@Z		; operator delete
  00026	83 c4 08	 add	 esp, 8
$LN8@scalar:
  00029	8b c6		 mov	 eax, esi
  0002b	5e		 pop	 esi
  0002c	5d		 pop	 ebp
  0002d	c2 04 00	 ret	 4
??_Gexception@std@@UAEPAXI@Z ENDP			; std::exception::`scalar deleting destructor'
_TEXT	ENDS
; Function compile flags: /Ogtp
; File C:\Program Files\Microsoft Visual Studio\2022\Professional\VC\Tools\MSVC\14.44.35207\include\vcruntime_exception.h
;	COMDAT ?what@exception@std@@UBEPBDXZ
_TEXT	SEGMENT
?what@exception@std@@UBEPBDXZ PROC			; std::exception::what, COMDAT
; _this$ = ecx

; 96   :         return _Data._What ? _Data._What : "Unknown exception";

  00000	8b 49 04	 mov	 ecx, DWORD PTR [ecx+4]
  00003	b8 00 00 00 00	 mov	 eax, OFFSET ??_C@_0BC@EOODALEL@Unknown?5exception@
  00008	85 c9		 test	 ecx, ecx
  0000a	0f 45 c1	 cmovne	 eax, ecx

; 97   :     }

  0000d	c3		 ret	 0
?what@exception@std@@UBEPBDXZ ENDP			; std::exception::what
_TEXT	ENDS
; Function compile flags: /Ogtp
; File C:\Program Files\Microsoft Visual Studio\2022\Professional\VC\Tools\MSVC\14.44.35207\include\vcruntime_exception.h
;	COMDAT ??1exception@std@@UAE@XZ
_TEXT	SEGMENT
??1exception@std@@UAE@XZ PROC				; std::exception::~exception, COMDAT
; _this$ = ecx

; 91   :         __std_exception_destroy(&_Data);

  00000	8d 41 04	 lea	 eax, DWORD PTR [ecx+4]
  00003	c7 01 00 00 00
	00		 mov	 DWORD PTR [ecx], OFFSET ??_7exception@std@@6B@
  00009	50		 push	 eax
  0000a	e8 00 00 00 00	 call	 ___std_exception_destroy
  0000f	59		 pop	 ecx

; 92   :     }

  00010	c3		 ret	 0
??1exception@std@@UAE@XZ ENDP				; std::exception::~exception
_TEXT	ENDS
; Function compile flags: /Ogtp
; File C:\Program Files\Microsoft Visual Studio\2022\Professional\VC\Tools\MSVC\14.44.35207\include\vcruntime_exception.h
;	COMDAT ??0exception@std@@QAE@ABV01@@Z
_TEXT	SEGMENT
__Other$ = 8						; size = 4
??0exception@std@@QAE@ABV01@@Z PROC			; std::exception::exception, COMDAT
; _this$ = ecx

; 73   :     {

  00000	55		 push	 ebp
  00001	8b ec		 mov	 ebp, esp
  00003	56		 push	 esi
  00004	8b f1		 mov	 esi, ecx
  00006	0f 57 c0	 xorps	 xmm0, xmm0
  00009	8d 46 04	 lea	 eax, DWORD PTR [esi+4]

; 74   :         __std_exception_copy(&_Other._Data, &_Data);

  0000c	50		 push	 eax
  0000d	c7 06 00 00 00
	00		 mov	 DWORD PTR [esi], OFFSET ??_7exception@std@@6B@
  00013	66 0f d6 00	 movq	 QWORD PTR [eax], xmm0
  00017	8b 45 08	 mov	 eax, DWORD PTR __Other$[ebp]
  0001a	83 c0 04	 add	 eax, 4
  0001d	50		 push	 eax
  0001e	e8 00 00 00 00	 call	 ___std_exception_copy
  00023	83 c4 08	 add	 esp, 8

; 75   :     }

  00026	8b c6		 mov	 eax, esi
  00028	5e		 pop	 esi
  00029	5d		 pop	 ebp
  0002a	c2 04 00	 ret	 4
??0exception@std@@QAE@ABV01@@Z ENDP			; std::exception::exception
_TEXT	ENDS
; Function compile flags: /Ogtp
; File C:\Program Files\Microsoft Visual Studio\2022\Professional\VC\Tools\MSVC\14.44.35207\atlmfc\include\cstringt.h
; File C:\Program Files\Microsoft Visual Studio\2022\Professional\VC\Tools\MSVC\14.44.35207\atlmfc\include\afxstr.h
; File C:\Program Files\Microsoft Visual Studio\2022\Professional\VC\Tools\MSVC\14.44.35207\atlmfc\include\cstringt.h
; File C:\Program Files\Microsoft Visual Studio\2022\Professional\VC\Tools\MSVC\14.44.35207\atlmfc\include\afxstr.h
; File C:\Program Files\Microsoft Visual Studio\2022\Professional\VC\Tools\MSVC\14.44.35207\atlmfc\include\cstringt.h
; File C:\Program Files\Microsoft Visual Studio\2022\Professional\VC\Tools\MSVC\14.44.35207\atlmfc\include\atlcore.h
; File C:\Program Files\Microsoft Visual Studio\2022\Professional\VC\Tools\MSVC\14.44.35207\atlmfc\include\cstringt.h
; File C:\Program Files\Microsoft Visual Studio\2022\Professional\VC\Tools\MSVC\14.44.35207\atlmfc\include\atlsimpstr.h
; File C:\Program Files\Microsoft Visual Studio\2022\Professional\VC\Tools\MSVC\14.44.35207\atlmfc\include\cstringt.h
; File C:\Program Files\Microsoft Visual Studio\2022\Professional\VC\Tools\MSVC\14.44.35207\atlmfc\include\atlsimpstr.h
; File C:\Program Files\Microsoft Visual Studio\2022\Professional\VC\Tools\MSVC\14.44.35207\atlmfc\include\cstringt.h
; File C:\Program Files\Microsoft Visual Studio\2022\Professional\VC\Tools\MSVC\14.44.35207\atlmfc\include\atlsimpstr.h
; File C:\Program Files\Microsoft Visual Studio\2022\Professional\VC\Tools\MSVC\14.44.35207\atlmfc\include\cstringt.h
; File C:\Program Files\Microsoft Visual Studio\2022\Professional\VC\Tools\MSVC\14.44.35207\atlmfc\include\atlsimpstr.h
; File C:\Program Files\Microsoft Visual Studio\2022\Professional\VC\Tools\MSVC\14.44.35207\atlmfc\include\cstringt.h
;	COMDAT ?LoadStringA@?$CStringT@DV?$StrTraitMFC@DV?$ChTraitsCRT@D@ATL@@@@@ATL@@QAEHI@Z
_TEXT	SEGMENT
_this$1$ = -4						; size = 4
_nID$ = 8						; size = 4
_hResource$1$ = 8					; size = 4
?LoadStringA@?$CStringT@DV?$StrTraitMFC@DV?$ChTraitsCRT@D@ATL@@@@@ATL@@QAEHI@Z PROC ; ATL::CStringT<char,StrTraitMFC<char,ATL::ChTraitsCRT<char> > >::LoadStringA, COMDAT
; _this$ = ecx

; 2340 : 	{

  00000	55		 push	 ebp
  00001	8b ec		 mov	 ebp, esp
  00003	51		 push	 ecx
  00004	53		 push	 ebx
  00005	57		 push	 edi
; File C:\Program Files\Microsoft Visual Studio\2022\Professional\VC\Tools\MSVC\14.44.35207\atlmfc\include\afxstr.h

; 51   : 		return( AfxFindStringResourceHandle( nID ) );

  00006	8b 7d 08	 mov	 edi, DWORD PTR _nID$[ebp]
  00009	57		 push	 edi
; File C:\Program Files\Microsoft Visual Studio\2022\Professional\VC\Tools\MSVC\14.44.35207\atlmfc\include\cstringt.h

; 2340 : 	{

  0000a	89 4d fc	 mov	 DWORD PTR _this$1$[ebp], ecx
; File C:\Program Files\Microsoft Visual Studio\2022\Professional\VC\Tools\MSVC\14.44.35207\atlmfc\include\afxstr.h

; 51   : 		return( AfxFindStringResourceHandle( nID ) );

  0000d	e8 00 00 00 00	 call	 ?AfxFindStringResourceHandle@@YGPAUHINSTANCE__@@I@Z ; AfxFindStringResourceHandle
; File C:\Program Files\Microsoft Visual Studio\2022\Professional\VC\Tools\MSVC\14.44.35207\atlmfc\include\cstringt.h

; 2341 : 		HINSTANCE hInstance = StringTraits::FindStringResourceInstance( nID );

  00012	8b d8		 mov	 ebx, eax

; 2342 : 		if( hInstance == NULL )

  00014	85 db		 test	 ebx, ebx
  00016	75 08		 jne	 SHORT $LN2@LoadString

; 2348 : 	}

  00018	5f		 pop	 edi
  00019	5b		 pop	 ebx
  0001a	8b e5		 mov	 esp, ebp
  0001c	5d		 pop	 ebp
  0001d	c2 04 00	 ret	 4
$LN2@LoadString:
; File C:\Program Files\Microsoft Visual Studio\2022\Professional\VC\Tools\MSVC\14.44.35207\atlmfc\include\atlcore.h

; 380  : 	hResource = ::FindResourceW(hInstance, MAKEINTRESOURCEW( (((id>>4)+1) & static_cast<WORD>(~0)) ), (LPWSTR) RT_STRING);

  00020	8b c7		 mov	 eax, edi
  00022	c1 e8 04	 shr	 eax, 4
  00025	56		 push	 esi
  00026	40		 inc	 eax
  00027	6a 06		 push	 6
  00029	0f b7 c0	 movzx	 eax, ax
  0002c	50		 push	 eax
  0002d	53		 push	 ebx
  0002e	ff 15 00 00 00
	00		 call	 DWORD PTR __imp__FindResourceW@12
  00034	89 45 08	 mov	 DWORD PTR _hResource$1$[ebp], eax

; 381  : 	if( hResource == NULL )

  00037	85 c0		 test	 eax, eax
  00039	0f 84 cc 00 00
	00		 je	 $LN51@LoadString

; 338  : 	hGlobal = ::LoadResource( hInstance, hResource );

  0003f	50		 push	 eax
  00040	53		 push	 ebx
  00041	ff 15 00 00 00
	00		 call	 DWORD PTR __imp__LoadResource@8

; 339  : 	if( hGlobal == NULL )

  00047	85 c0		 test	 eax, eax
  00049	75 04		 jne	 SHORT $LN15@LoadString

; 340  : 	{
; 341  : 		return( NULL );

  0004b	33 f6		 xor	 esi, esi
  0004d	eb 43		 jmp	 SHORT $LN18@LoadString
$LN15@LoadString:

; 342  : 	}
; 343  : 
; 344  : 	pImage = (const ATLSTRINGRESOURCEIMAGE*)::LockResource( hGlobal );

  0004f	50		 push	 eax
  00050	ff 15 00 00 00
	00		 call	 DWORD PTR __imp__LockResource@4
  00056	8b f0		 mov	 esi, eax

; 345  : 	if( pImage == NULL )

  00058	85 f6		 test	 esi, esi
  0005a	74 36		 je	 SHORT $LN18@LoadString
$LN16@LoadString:

; 346  : 	{
; 347  : 		return( NULL );
; 348  : 	}
; 349  : 
; 350  : 	nResourceSize = ::SizeofResource( hInstance, hResource );

  0005c	ff 75 08	 push	 DWORD PTR _hResource$1$[ebp]
  0005f	53		 push	 ebx
  00060	ff 15 00 00 00
	00		 call	 DWORD PTR __imp__SizeofResource@8

; 351  : 	pImageEnd = (const ATLSTRINGRESOURCEIMAGE*)(LPBYTE( pImage )+nResourceSize);

  00066	8d 0c 06	 lea	 ecx, DWORD PTR [esi+eax]

; 352  : 	iIndex = id&0x000f;

  00069	83 e7 0f	 and	 edi, 15			; 0000000fH

; 353  : 
; 354  : 	while( (iIndex > 0) && (pImage < pImageEnd) )

  0006c	76 14		 jbe	 SHORT $LN14@LoadString
  0006e	66 90		 npad	 2
$LL13@LoadString:
  00070	3b f1		 cmp	 esi, ecx
  00072	73 12		 jae	 SHORT $LN50@LoadString

; 355  : 	{
; 356  : 		pImage = (const ATLSTRINGRESOURCEIMAGE*)(LPBYTE( pImage )+(sizeof( ATLSTRINGRESOURCEIMAGE )+(pImage->nLength*sizeof( WCHAR ))));

  00074	0f b7 06	 movzx	 eax, WORD PTR [esi]
  00077	8d 34 46	 lea	 esi, DWORD PTR [esi+eax*2]
  0007a	83 c6 02	 add	 esi, 2

; 357  : 		iIndex--;

  0007d	83 ef 01	 sub	 edi, 1
  00080	75 ee		 jne	 SHORT $LL13@LoadString
$LN14@LoadString:

; 358  : 	}
; 359  : 	if( pImage >= pImageEnd )

  00082	3b f1		 cmp	 esi, ecx
  00084	72 04		 jb	 SHORT $LN17@LoadString
$LN50@LoadString:

; 360  : 	{
; 361  : 		return( NULL );

  00086	33 f6		 xor	 esi, esi
  00088	eb 08		 jmp	 SHORT $LN18@LoadString
$LN17@LoadString:

; 362  : 	}
; 363  : 	if( pImage->nLength == 0 )

  0008a	33 c0		 xor	 eax, eax
  0008c	66 39 06	 cmp	 WORD PTR [esi], ax
  0008f	0f 44 f0	 cmove	 esi, eax
$LN18@LoadString:
; File C:\Program Files\Microsoft Visual Studio\2022\Professional\VC\Tools\MSVC\14.44.35207\atlmfc\include\cstringt.h

; 2356 : 		if( pImage == NULL )

  00092	85 f6		 test	 esi, esi
  00094	74 75		 je	 SHORT $LN51@LoadString

; 2359 : 		}
; 2360 : 
; 2361 : 		int nLength = StringTraits::GetBaseTypeLength( pImage->achString, pImage->nLength );

  00096	0f b7 06	 movzx	 eax, WORD PTR [esi]
  00099	8d 4e 02	 lea	 ecx, DWORD PTR [esi+2]

; 350  : 		return ::WideCharToMultiByte( _AtlGetConversionACP(), 0, pszSource, nLength, NULL, 0, NULL, NULL );

  0009c	6a 00		 push	 0
  0009e	6a 00		 push	 0
  000a0	6a 00		 push	 0
  000a2	6a 00		 push	 0
  000a4	50		 push	 eax
  000a5	51		 push	 ecx
  000a6	6a 00		 push	 0
  000a8	6a 03		 push	 3
  000aa	ff 15 00 00 00
	00		 call	 DWORD PTR __imp__WideCharToMultiByte@32

; 2361 : 		int nLength = StringTraits::GetBaseTypeLength( pImage->achString, pImage->nLength );

  000b0	8b f8		 mov	 edi, eax
; File C:\Program Files\Microsoft Visual Studio\2022\Professional\VC\Tools\MSVC\14.44.35207\atlmfc\include\atlsimpstr.h

; 808  : 		if (nLength < 0)

  000b2	85 ff		 test	 edi, edi
  000b4	78 60		 js	 SHORT $LN38@LoadString

; 804  : 		return( reinterpret_cast< CStringData* >( m_pszData )-1 );

  000b6	8b 5d fc	 mov	 ebx, DWORD PTR _this$1$[ebp]

; 812  : 		int nShared = 1-pOldData->nRefs;  // nShared < 0 means true, >= 0 means false

  000b9	ba 01 00 00 00	 mov	 edx, 1

; 804  : 		return( reinterpret_cast< CStringData* >( m_pszData )-1 );

  000be	8b 0b		 mov	 ecx, DWORD PTR [ebx]

; 812  : 		int nShared = 1-pOldData->nRefs;  // nShared < 0 means true, >= 0 means false

  000c0	2b 51 fc	 sub	 edx, DWORD PTR [ecx-4]

; 813  : 		int nTooShort = pOldData->nAllocLength-nLength;  // nTooShort < 0 means true, >= 0 means false

  000c3	8b 49 f8	 mov	 ecx, DWORD PTR [ecx-8]
  000c6	2b cf		 sub	 ecx, edi

; 814  : 		if( (nShared|nTooShort) < 0 )  // If either sign bit is set (i.e. either is less than zero), we need to copy data

  000c8	0b d1		 or	 edx, ecx
  000ca	7d 08		 jge	 SHORT $LN26@LoadString

; 815  : 		{
; 816  : 			PrepareWrite2( nLength );

  000cc	57		 push	 edi
  000cd	8b cb		 mov	 ecx, ebx
  000cf	e8 00 00 00 00	 call	 ?PrepareWrite2@?$CSimpleStringT@D$0A@@ATL@@AAEXH@Z ; ATL::CSimpleStringT<char,0>::PrepareWrite2
$LN26@LoadString:
; File C:\Program Files\Microsoft Visual Studio\2022\Professional\VC\Tools\MSVC\14.44.35207\atlmfc\include\cstringt.h

; 2363 : 		StringTraits::ConvertToBaseType( pszBuffer, nLength, pImage->achString, pImage->nLength );

  000d4	0f b7 06	 movzx	 eax, WORD PTR [esi]

; 372  : 		::WideCharToMultiByte( _AtlGetConversionACP(), 0, pszSrc, nSrcLength, pszDest, nDestLength, NULL, NULL );

  000d7	6a 00		 push	 0
  000d9	6a 00		 push	 0
  000db	57		 push	 edi
  000dc	ff 33		 push	 DWORD PTR [ebx]
  000de	50		 push	 eax
  000df	8d 46 02	 lea	 eax, DWORD PTR [esi+2]
  000e2	50		 push	 eax
  000e3	6a 00		 push	 0
  000e5	6a 03		 push	 3
  000e7	ff 15 00 00 00
	00		 call	 DWORD PTR __imp__WideCharToMultiByte@32
; File C:\Program Files\Microsoft Visual Studio\2022\Professional\VC\Tools\MSVC\14.44.35207\atlmfc\include\atlsimpstr.h

; 875  : 		if( nLength < 0 || nLength > GetData()->nAllocLength)

  000ed	8b 03		 mov	 eax, DWORD PTR [ebx]
  000ef	3b 78 f8	 cmp	 edi, DWORD PTR [eax-8]
  000f2	7f 22		 jg	 SHORT $LN38@LoadString

; 877  : 
; 878  : 		GetData()->nDataLength = nLength;

  000f4	89 78 f4	 mov	 DWORD PTR [eax-12], edi

; 879  : 		m_pszData[nLength] = 0;

  000f7	8b 03		 mov	 eax, DWORD PTR [ebx]
; File C:\Program Files\Microsoft Visual Studio\2022\Professional\VC\Tools\MSVC\14.44.35207\atlmfc\include\cstringt.h

; 2347 : 		return( LoadString( hInstance, nID ) );

  000f9	5e		 pop	 esi
; File C:\Program Files\Microsoft Visual Studio\2022\Professional\VC\Tools\MSVC\14.44.35207\atlmfc\include\atlsimpstr.h

; 879  : 		m_pszData[nLength] = 0;

  000fa	c6 04 07 00	 mov	 BYTE PTR [edi+eax], 0
; File C:\Program Files\Microsoft Visual Studio\2022\Professional\VC\Tools\MSVC\14.44.35207\atlmfc\include\cstringt.h

; 2366 : 		return( TRUE );

  000fe	b8 01 00 00 00	 mov	 eax, 1
  00103	5f		 pop	 edi

; 2348 : 	}

  00104	5b		 pop	 ebx
  00105	8b e5		 mov	 esp, ebp
  00107	5d		 pop	 ebp
  00108	c2 04 00	 ret	 4
$LN51@LoadString:

; 2347 : 		return( LoadString( hInstance, nID ) );

  0010b	5e		 pop	 esi
  0010c	5f		 pop	 edi

; 2358 : 			return( FALSE );

  0010d	33 c0		 xor	 eax, eax

; 2348 : 	}

  0010f	5b		 pop	 ebx
  00110	8b e5		 mov	 esp, ebp
  00112	5d		 pop	 ebp
  00113	c2 04 00	 ret	 4
$LN38@LoadString:
; File C:\Program Files\Microsoft Visual Studio\2022\Professional\VC\Tools\MSVC\14.44.35207\atlmfc\include\atlsimpstr.h

; 876  : 			AtlThrow(E_INVALIDARG);

  00116	68 57 00 07 80	 push	 -2147024809		; 80070057H
  0011b	e8 00 00 00 00	 call	 ?AtlThrowImpl@ATL@@YGXJ@Z ; ATL::AtlThrowImpl
$LN63@LoadString:
  00120	cc		 int	 3
?LoadStringA@?$CStringT@DV?$StrTraitMFC@DV?$ChTraitsCRT@D@ATL@@@@@ATL@@QAEHI@Z ENDP ; ATL::CStringT<char,StrTraitMFC<char,ATL::ChTraitsCRT<char> > >::LoadStringA
_TEXT	ENDS
; Function compile flags: /Ogtp
; File C:\Program Files\Microsoft Visual Studio\2022\Professional\VC\Tools\MSVC\14.44.35207\atlmfc\include\cstringt.h
; File C:\Program Files (x86)\Windows Kits\10\Include\10.0.26100.0\ucrt\stdio.h
; File C:\Program Files\Microsoft Visual Studio\2022\Professional\VC\Tools\MSVC\14.44.35207\atlmfc\include\cstringt.h
; File C:\Program Files\Microsoft Visual Studio\2022\Professional\VC\Tools\MSVC\14.44.35207\atlmfc\include\atlsimpstr.h
; File C:\Program Files\Microsoft Visual Studio\2022\Professional\VC\Tools\MSVC\14.44.35207\atlmfc\include\cstringt.h
; File C:\Program Files\Microsoft Visual Studio\2022\Professional\VC\Tools\MSVC\14.44.35207\atlmfc\include\afxstr.h
; File C:\Program Files\Microsoft Visual Studio\2022\Professional\VC\Tools\MSVC\14.44.35207\atlmfc\include\cstringt.h
; File C:\Program Files\Microsoft Visual Studio\2022\Professional\VC\Tools\MSVC\14.44.35207\atlmfc\include\atlsimpstr.h
; File C:\Program Files\Microsoft Visual Studio\2022\Professional\VC\Tools\MSVC\14.44.35207\atlmfc\include\cstringt.h
; File C:\Program Files\Microsoft Visual Studio\2022\Professional\VC\Tools\MSVC\14.44.35207\atlmfc\include\atlsimpstr.h
; File C:\Program Files\Microsoft Visual Studio\2022\Professional\VC\Tools\MSVC\14.44.35207\atlmfc\include\cstringt.h
; File C:\Program Files\Microsoft Visual Studio\2022\Professional\VC\Tools\MSVC\14.44.35207\atlmfc\include\atlsimpstr.h
; File C:\Program Files (x86)\Windows Kits\10\Include\10.0.26100.0\ucrt\stdio.h
; File C:\Program Files\Microsoft Visual Studio\2022\Professional\VC\Tools\MSVC\14.44.35207\atlmfc\include\cstringt.h
; File C:\Program Files (x86)\Windows Kits\10\Include\10.0.26100.0\ucrt\stdio.h
; File C:\Program Files\Microsoft Visual Studio\2022\Professional\VC\Tools\MSVC\14.44.35207\atlmfc\include\atlsimpstr.h
; File C:\Program Files (x86)\Windows Kits\10\Include\10.0.26100.0\ucrt\stdio.h
; File C:\Program Files\Microsoft Visual Studio\2022\Professional\VC\Tools\MSVC\14.44.35207\atlmfc\include\atlsimpstr.h
; File C:\Program Files\Microsoft Visual Studio\2022\Professional\VC\Tools\MSVC\14.44.35207\atlmfc\include\cstringt.h
; File C:\Program Files\Microsoft Visual Studio\2022\Professional\VC\Tools\MSVC\14.44.35207\atlmfc\include\atlsimpstr.h
; File C:\Program Files\Microsoft Visual Studio\2022\Professional\VC\Tools\MSVC\14.44.35207\atlmfc\include\cstringt.h
; File C:\Program Files\Microsoft Visual Studio\2022\Professional\VC\Tools\MSVC\14.44.35207\atlmfc\include\atlsimpstr.h
; File C:\Program Files\Microsoft Visual Studio\2022\Professional\VC\Tools\MSVC\14.44.35207\atlmfc\include\cstringt.h
;	COMDAT ?FormatV@?$CStringT@DV?$StrTraitMFC@DV?$ChTraitsCRT@D@ATL@@@@@ATL@@QAEXPBDPAD@Z
_TEXT	SEGMENT
tv456 = -16						; size = 4
__$EHRec$ = -12						; size = 12
_pszFormat$ = 8						; size = 4
_temp$ = 8						; size = 4
_args$ = 12						; size = 4
?FormatV@?$CStringT@DV?$StrTraitMFC@DV?$ChTraitsCRT@D@ATL@@@@@ATL@@QAEXPBDPAD@Z PROC ; ATL::CStringT<char,StrTraitMFC<char,ATL::ChTraitsCRT<char> > >::FormatV, COMDAT
; _this$ = ecx

; 2225 : 	{

  00000	55		 push	 ebp
  00001	8b ec		 mov	 ebp, esp
  00003	6a ff		 push	 -1
  00005	68 00 00 00 00	 push	 __ehhandler$?FormatV@?$CStringT@DV?$StrTraitMFC@DV?$ChTraitsCRT@D@ATL@@@@@ATL@@QAEXPBDPAD@Z
  0000a	64 a1 00 00 00
	00		 mov	 eax, DWORD PTR fs:0
  00010	50		 push	 eax
  00011	51		 push	 ecx
  00012	53		 push	 ebx
  00013	56		 push	 esi
  00014	57		 push	 edi
  00015	a1 00 00 00 00	 mov	 eax, DWORD PTR ___security_cookie
  0001a	33 c5		 xor	 eax, ebp
  0001c	50		 push	 eax
  0001d	8d 45 f4	 lea	 eax, DWORD PTR __$EHRec$[ebp]
  00020	64 a3 00 00 00
	00		 mov	 DWORD PTR fs:0, eax
  00026	8b d9		 mov	 ebx, ecx

; 2226 : 		ATLASSERT( AtlIsValidString( pszFormat ) );
; 2227 : 		if(pszFormat == NULL)

  00028	8b 75 08	 mov	 esi, DWORD PTR _pszFormat$[ebp]
  0002b	85 f6		 test	 esi, esi
  0002d	0f 84 2e 01 00
	00		 je	 $LN70@FormatV
; File C:\Program Files (x86)\Windows Kits\10\Include\10.0.26100.0\ucrt\stdio.h

; 1652 :         int const _Result = __stdio_common_vsprintf(

  00033	e8 00 00 00 00	 call	 ___local_stdio_printf_options
  00038	ff 75 0c	 push	 DWORD PTR _args$[ebp]
  0003b	89 45 f0	 mov	 DWORD PTR tv456[ebp], eax
  0003e	6a 00		 push	 0
  00040	8b 08		 mov	 ecx, DWORD PTR [eax]
  00042	56		 push	 esi
  00043	6a 00		 push	 0
  00045	6a 00		 push	 0
  00047	ff 70 04	 push	 DWORD PTR [eax+4]
  0004a	83 c9 02	 or	 ecx, 2
  0004d	51		 push	 ecx
  0004e	e8 00 00 00 00	 call	 ___stdio_common_vsprintf
  00053	8b f8		 mov	 edi, eax
  00055	83 c4 1c	 add	 esp, 28			; 0000001cH

; 1653 :             _CRT_INTERNAL_LOCAL_PRINTF_OPTIONS | _CRT_INTERNAL_PRINTF_STANDARD_SNPRINTF_BEHAVIOR,
; 1654 :             NULL, 0, _Format, _Locale, _ArgList);
; 1655 : 
; 1656 :         return _Result < 0 ? -1 : _Result;

  00058	83 c8 ff	 or	 eax, -1
  0005b	85 ff		 test	 edi, edi
  0005d	0f 48 f8	 cmovs	 edi, eax
; File C:\Program Files\Microsoft Visual Studio\2022\Professional\VC\Tools\MSVC\14.44.35207\atlmfc\include\cstringt.h

; 2232 : 		if (nLength < 0)

  00060	85 ff		 test	 edi, edi
  00062	0f 88 ef 00 00
	00		 js	 $LN87@FormatV
; File C:\Program Files\Microsoft Visual Studio\2022\Professional\VC\Tools\MSVC\14.44.35207\atlmfc\include\atlsimpstr.h

; 527  : 		IAtlStringMgr* pStringMgr = GetData()->pStringMgr;

  00068	8b 03		 mov	 eax, DWORD PTR [ebx]
  0006a	8b 48 f0	 mov	 ecx, DWORD PTR [eax-16]

; 528  : 		return pStringMgr ? pStringMgr->Clone() : NULL;

  0006d	85 c9		 test	 ecx, ecx
  0006f	74 0b		 je	 SHORT $LN13@FormatV
  00071	8b 01		 mov	 eax, DWORD PTR [ecx]
  00073	ff 50 10	 call	 DWORD PTR [eax+16]
  00076	8b c8		 mov	 ecx, eax
; File C:\Program Files\Microsoft Visual Studio\2022\Professional\VC\Tools\MSVC\14.44.35207\atlmfc\include\cstringt.h

; 1442 : 		if(pStringMgr) { return pStringMgr; }

  00078	85 c9		 test	 ecx, ecx
  0007a	75 16		 jne	 SHORT $LN28@FormatV
$LN13@FormatV:
; File C:\Program Files\Microsoft Visual Studio\2022\Professional\VC\Tools\MSVC\14.44.35207\atlmfc\include\afxstr.h

; 56   : 		return( AfxGetStringManager() );

  0007c	e8 00 00 00 00	 call	 ?AfxGetStringManager@@YGPAUIAtlStringMgr@ATL@@XZ ; AfxGetStringManager
; File C:\Program Files\Microsoft Visual Studio\2022\Professional\VC\Tools\MSVC\14.44.35207\atlmfc\include\cstringt.h

; 1445 : 		return pStringMgr->Clone();

  00081	8b c8		 mov	 ecx, eax
  00083	8b 10		 mov	 edx, DWORD PTR [eax]
  00085	ff 52 10	 call	 DWORD PTR [edx+16]
  00088	8b c8		 mov	 ecx, eax
; File C:\Program Files\Microsoft Visual Studio\2022\Professional\VC\Tools\MSVC\14.44.35207\atlmfc\include\atlsimpstr.h

; 209  : 		ATLENSURE( pStringMgr != NULL );

  0008a	85 c9		 test	 ecx, ecx
  0008c	0f 84 c5 00 00
	00		 je	 $LN87@FormatV
$LN28@FormatV:

; 210  : 		CStringData* pData = pStringMgr->GetNilString();

  00092	8b 01		 mov	 eax, DWORD PTR [ecx]
  00094	ff 50 0c	 call	 DWORD PTR [eax+12]

; 211  : 		Attach( pData );

  00097	83 c0 10	 add	 eax, 16			; 00000010H
  0009a	89 45 08	 mov	 DWORD PTR _temp$[ebp], eax
; File C:\Program Files\Microsoft Visual Studio\2022\Professional\VC\Tools\MSVC\14.44.35207\atlmfc\include\cstringt.h

; 1063 : 		CThisSimpleString( pStringMgr )

  0009d	c7 45 fc 00 00
	00 00		 mov	 DWORD PTR __$EHRec$[ebp+8], 0

; 2712 : 		if( (pv != NULL) && IS_INTRESOURCE( pv ) )

  000a4	f7 c6 00 00 ff
	ff		 test	 esi, -65536		; ffff0000H
  000aa	75 0e		 jne	 SHORT $LN86@FormatV

; 2713 : 		{
; 2714 : 			UINT nID = LOWORD( reinterpret_cast< DWORD_PTR >( pv ) );

  000ac	0f b7 c6	 movzx	 eax, si

; 2715 : 			(nID);
; 2716 : #ifdef _ATL_USE_WINAPI_FAMILY_DESKTOP_APP
; 2717 : 			if( !LoadString( nID ) )

  000af	8d 4d 08	 lea	 ecx, DWORD PTR _temp$[ebp]
  000b2	50		 push	 eax
  000b3	e8 00 00 00 00	 call	 ?LoadStringA@?$CStringT@DV?$StrTraitMFC@DV?$ChTraitsCRT@D@ATL@@@@@ATL@@QAEHI@Z ; ATL::CStringT<char,StrTraitMFC<char,ATL::ChTraitsCRT<char> > >::LoadStringA

; 1065 : 		if( !CheckImplicitLoad( pszSrc ) )

  000b8	eb 19		 jmp	 SHORT $LN24@FormatV
$LN86@FormatV:
; File C:\Program Files\Microsoft Visual Studio\2022\Professional\VC\Tools\MSVC\14.44.35207\atlmfc\include\atlsimpstr.h

; 730  : 		return( int( strlen( psz ) ) );

  000ba	8b ce		 mov	 ecx, esi
  000bc	8d 51 01	 lea	 edx, DWORD PTR [ecx+1]
  000bf	90		 npad	 1
$LL89@FormatV:
  000c0	8a 01		 mov	 al, BYTE PTR [ecx]
  000c2	41		 inc	 ecx
  000c3	84 c0		 test	 al, al
  000c5	75 f9		 jne	 SHORT $LL89@FormatV
  000c7	2b ca		 sub	 ecx, edx

; 606  : 		SetString( pszSrc, StringLength( pszSrc ) );

  000c9	51		 push	 ecx
  000ca	56		 push	 esi
  000cb	8d 4d 08	 lea	 ecx, DWORD PTR _temp$[ebp]
  000ce	e8 00 00 00 00	 call	 ?SetString@?$CSimpleStringT@D$0A@@ATL@@QAEXPBDH@Z ; ATL::CSimpleStringT<char,0>::SetString
$LN24@FormatV:

; 804  : 		return( reinterpret_cast< CStringData* >( m_pszData )-1 );

  000d3	8b 03		 mov	 eax, DWORD PTR [ebx]

; 812  : 		int nShared = 1-pOldData->nRefs;  // nShared < 0 means true, >= 0 means false

  000d5	b9 01 00 00 00	 mov	 ecx, 1
; File C:\Program Files\Microsoft Visual Studio\2022\Professional\VC\Tools\MSVC\14.44.35207\atlmfc\include\cstringt.h

; 2235 : 		CStringT temp(pszFormat, this->GetManager());

  000da	c7 45 fc 01 00
	00 00		 mov	 DWORD PTR __$EHRec$[ebp+8], 1
; File C:\Program Files\Microsoft Visual Studio\2022\Professional\VC\Tools\MSVC\14.44.35207\atlmfc\include\atlsimpstr.h

; 812  : 		int nShared = 1-pOldData->nRefs;  // nShared < 0 means true, >= 0 means false

  000e1	2b 48 fc	 sub	 ecx, DWORD PTR [eax-4]

; 813  : 		int nTooShort = pOldData->nAllocLength-nLength;  // nTooShort < 0 means true, >= 0 means false

  000e4	8b 40 f8	 mov	 eax, DWORD PTR [eax-8]
  000e7	2b c7		 sub	 eax, edi

; 814  : 		if( (nShared|nTooShort) < 0 )  // If either sign bit is set (i.e. either is less than zero), we need to copy data

  000e9	0b c8		 or	 ecx, eax
  000eb	7d 08		 jge	 SHORT $LN55@FormatV

; 815  : 		{
; 816  : 			PrepareWrite2( nLength );

  000ed	57		 push	 edi
  000ee	8b cb		 mov	 ecx, ebx
  000f0	e8 00 00 00 00	 call	 ?PrepareWrite2@?$CSimpleStringT@D$0A@@ATL@@AAEXH@Z ; ATL::CSimpleStringT<char,0>::PrepareWrite2
$LN55@FormatV:
; File C:\Program Files (x86)\Windows Kits\10\Include\10.0.26100.0\ucrt\stdio.h

; 1491 :         int const _Result = __stdio_common_vsprintf_s(

  000f5	ff 75 0c	 push	 DWORD PTR _args$[ebp]
  000f8	8b 75 08	 mov	 esi, DWORD PTR _temp$[ebp]
; File C:\Program Files\Microsoft Visual Studio\2022\Professional\VC\Tools\MSVC\14.44.35207\atlmfc\include\cstringt.h

; 2237 : 		StringTraits::Format( pszBuffer, nLength+1, temp, args );

  000fb	8d 47 01	 lea	 eax, DWORD PTR [edi+1]
; File C:\Program Files (x86)\Windows Kits\10\Include\10.0.26100.0\ucrt\stdio.h

; 1491 :         int const _Result = __stdio_common_vsprintf_s(

  000fe	6a 00		 push	 0
  00100	56		 push	 esi
  00101	50		 push	 eax
  00102	8b 45 f0	 mov	 eax, DWORD PTR tv456[ebp]
  00105	ff 33		 push	 DWORD PTR [ebx]
  00107	ff 70 04	 push	 DWORD PTR [eax+4]
  0010a	ff 30		 push	 DWORD PTR [eax]
  0010c	e8 00 00 00 00	 call	 ___stdio_common_vsprintf_s
; File C:\Program Files\Microsoft Visual Studio\2022\Professional\VC\Tools\MSVC\14.44.35207\atlmfc\include\atlsimpstr.h

; 875  : 		if( nLength < 0 || nLength > GetData()->nAllocLength)

  00111	8b 03		 mov	 eax, DWORD PTR [ebx]
; File C:\Program Files (x86)\Windows Kits\10\Include\10.0.26100.0\ucrt\stdio.h

; 1491 :         int const _Result = __stdio_common_vsprintf_s(

  00113	83 c4 1c	 add	 esp, 28			; 0000001cH
; File C:\Program Files\Microsoft Visual Studio\2022\Professional\VC\Tools\MSVC\14.44.35207\atlmfc\include\atlsimpstr.h

; 875  : 		if( nLength < 0 || nLength > GetData()->nAllocLength)

  00116	3b 78 f8	 cmp	 edi, DWORD PTR [eax-8]
  00119	7f 46		 jg	 SHORT $LN70@FormatV

; 876  : 			AtlThrow(E_INVALIDARG);
; 877  : 
; 878  : 		GetData()->nDataLength = nLength;

  0011b	89 78 f4	 mov	 DWORD PTR [eax-12], edi

; 804  : 		return( reinterpret_cast< CStringData* >( m_pszData )-1 );

  0011e	83 c6 f0	 add	 esi, -16		; fffffff0H

; 879  : 		m_pszData[nLength] = 0;

  00121	8b 03		 mov	 eax, DWORD PTR [ebx]
; File C:\Program Files\Microsoft Visual Studio\2022\Professional\VC\Tools\MSVC\14.44.35207\atlmfc\include\cstringt.h

; 2239 : 	}

  00123	c7 45 fc ff ff
	ff ff		 mov	 DWORD PTR __$EHRec$[ebp+8], -1
; File C:\Program Files\Microsoft Visual Studio\2022\Professional\VC\Tools\MSVC\14.44.35207\atlmfc\include\atlsimpstr.h

; 879  : 		m_pszData[nLength] = 0;

  0012a	c6 04 07 00	 mov	 BYTE PTR [edi+eax], 0

; 92   : 		if( _InterlockedDecrement( &nRefs ) <= 0 )

  0012e	83 c8 ff	 or	 eax, -1
  00131	f0 0f c1 46 0c	 lock	  xadd	 DWORD PTR [esi+12], eax
  00136	48		 dec	 eax
  00137	85 c0		 test	 eax, eax
  00139	7f 08		 jg	 SHORT $LN84@FormatV

; 93   : 		{
; 94   : 			pStringMgr->Free( this );

  0013b	8b 0e		 mov	 ecx, DWORD PTR [esi]
  0013d	56		 push	 esi
  0013e	8b 01		 mov	 eax, DWORD PTR [ecx]
  00140	ff 50 04	 call	 DWORD PTR [eax+4]
$LN84@FormatV:
; File C:\Program Files\Microsoft Visual Studio\2022\Professional\VC\Tools\MSVC\14.44.35207\atlmfc\include\cstringt.h

; 2239 : 	}

  00143	8b 4d f4	 mov	 ecx, DWORD PTR __$EHRec$[ebp]
  00146	64 89 0d 00 00
	00 00		 mov	 DWORD PTR fs:0, ecx
  0014d	59		 pop	 ecx
  0014e	5f		 pop	 edi
  0014f	5e		 pop	 esi
  00150	5b		 pop	 ebx
  00151	8b e5		 mov	 esp, ebp
  00153	5d		 pop	 ebp
  00154	c2 08 00	 ret	 8
$LN87@FormatV:
; File C:\Program Files\Microsoft Visual Studio\2022\Professional\VC\Tools\MSVC\14.44.35207\atlmfc\include\atlsimpstr.h

; 209  : 		ATLENSURE( pStringMgr != NULL );

  00157	68 05 40 00 80	 push	 -2147467259		; 80004005H
  0015c	e8 00 00 00 00	 call	 ?AtlThrowImpl@ATL@@YGXJ@Z ; ATL::AtlThrowImpl
$LN70@FormatV:
; File C:\Program Files\Microsoft Visual Studio\2022\Professional\VC\Tools\MSVC\14.44.35207\atlmfc\include\cstringt.h

; 2239 : 	}

  00161	68 57 00 07 80	 push	 -2147024809		; 80070057H
  00166	e8 00 00 00 00	 call	 ?AtlThrowImpl@ATL@@YGXJ@Z ; ATL::AtlThrowImpl
$LN91@FormatV:
  0016b	cc		 int	 3
_TEXT	ENDS
;	COMDAT text$x
text$x	SEGMENT
__unwindfunclet$?FormatV@?$CStringT@DV?$StrTraitMFC@DV?$ChTraitsCRT@D@ATL@@@@@ATL@@QAEXPBDPAD@Z$1:
  00000	8d 4d 08	 lea	 ecx, DWORD PTR _temp$[ebp]
  00003	e9 00 00 00 00	 jmp	 ??1?$CSimpleStringT@D$0A@@ATL@@QAE@XZ ; ATL::CSimpleStringT<char,0>::~CSimpleStringT<char,0>
__unwindfunclet$?FormatV@?$CStringT@DV?$StrTraitMFC@DV?$ChTraitsCRT@D@ATL@@@@@ATL@@QAEXPBDPAD@Z$0:
  00008	8d 4d 08	 lea	 ecx, DWORD PTR _temp$[ebp]
  0000b	e9 00 00 00 00	 jmp	 ??1?$CStringT@DV?$StrTraitMFC@DV?$ChTraitsCRT@D@ATL@@@@@ATL@@QAE@XZ ; ATL::CStringT<char,StrTraitMFC<char,ATL::ChTraitsCRT<char> > >::~CStringT<char,StrTraitMFC<char,ATL::ChTraitsCRT<char> > >
  00010	cc		 int	 3
  00011	cc		 int	 3
  00012	cc		 int	 3
  00013	cc		 int	 3
  00014	cc		 int	 3
__ehhandler$?FormatV@?$CStringT@DV?$StrTraitMFC@DV?$ChTraitsCRT@D@ATL@@@@@ATL@@QAEXPBDPAD@Z:
  00015	90		 npad	 1
  00016	90		 npad	 1
  00017	8b 54 24 08	 mov	 edx, DWORD PTR [esp+8]
  0001b	8d 42 0c	 lea	 eax, DWORD PTR [edx+12]
  0001e	8b 4a ec	 mov	 ecx, DWORD PTR [edx-20]
  00021	33 c8		 xor	 ecx, eax
  00023	e8 00 00 00 00	 call	 @__security_check_cookie@4
  00028	b8 00 00 00 00	 mov	 eax, OFFSET __ehfuncinfo$?FormatV@?$CStringT@DV?$StrTraitMFC@DV?$ChTraitsCRT@D@ATL@@@@@ATL@@QAEXPBDPAD@Z
  0002d	e9 00 00 00 00	 jmp	 ___CxxFrameHandler3
text$x	ENDS
?FormatV@?$CStringT@DV?$StrTraitMFC@DV?$ChTraitsCRT@D@ATL@@@@@ATL@@QAEXPBDPAD@Z ENDP ; ATL::CStringT<char,StrTraitMFC<char,ATL::ChTraitsCRT<char> > >::FormatV
; Function compile flags: /Ogtp
; File C:\Program Files\Microsoft Visual Studio\2022\Professional\VC\Tools\MSVC\14.44.35207\atlmfc\include\cstringt.h
;	COMDAT ?Format@?$CStringT@DV?$StrTraitMFC@DV?$ChTraitsCRT@D@ATL@@@@@ATL@@QAAXPBDZZ
_TEXT	SEGMENT
_this$ = 8						; size = 4
_pszFormat$ = 12					; size = 4
?Format@?$CStringT@DV?$StrTraitMFC@DV?$ChTraitsCRT@D@ATL@@@@@ATL@@QAAXPBDZZ PROC ; ATL::CStringT<char,StrTraitMFC<char,ATL::ChTraitsCRT<char> > >::Format, COMDAT

; 2745 : {

  00000	55		 push	 ebp
  00001	8b ec		 mov	 ebp, esp

; 2746 : 	ATLASSERT( AtlIsValidString( pszFormat ) );
; 2747 : 
; 2748 : 	va_list argList;
; 2749 : 	va_start( argList, pszFormat );
; 2750 : 	FormatV( pszFormat, argList );

  00003	8b 4d 08	 mov	 ecx, DWORD PTR _this$[ebp]
  00006	8d 45 10	 lea	 eax, DWORD PTR _pszFormat$[ebp+4]
  00009	50		 push	 eax
  0000a	ff 75 0c	 push	 DWORD PTR _pszFormat$[ebp]
  0000d	e8 00 00 00 00	 call	 ?FormatV@?$CStringT@DV?$StrTraitMFC@DV?$ChTraitsCRT@D@ATL@@@@@ATL@@QAEXPBDPAD@Z ; ATL::CStringT<char,StrTraitMFC<char,ATL::ChTraitsCRT<char> > >::FormatV

; 2751 : 	va_end( argList );
; 2752 : }

  00012	5d		 pop	 ebp
  00013	c3		 ret	 0
?Format@?$CStringT@DV?$StrTraitMFC@DV?$ChTraitsCRT@D@ATL@@@@@ATL@@QAAXPBDZZ ENDP ; ATL::CStringT<char,StrTraitMFC<char,ATL::ChTraitsCRT<char> > >::Format
_TEXT	ENDS
; Function compile flags: /Ogtp
; File C:\Program Files\Microsoft Visual Studio\2022\Professional\VC\Tools\MSVC\14.44.35207\atlmfc\include\cstringt.h
; File C:\Program Files\Microsoft Visual Studio\2022\Professional\VC\Tools\MSVC\14.44.35207\atlmfc\include\atlsimpstr.h
; File C:\Program Files\Microsoft Visual Studio\2022\Professional\VC\Tools\MSVC\14.44.35207\atlmfc\include\cstringt.h
;	COMDAT ??1?$CStringT@DV?$StrTraitMFC@DV?$ChTraitsCRT@D@ATL@@@@@ATL@@QAE@XZ
_TEXT	SEGMENT
??1?$CStringT@DV?$StrTraitMFC@DV?$ChTraitsCRT@D@ATL@@@@@ATL@@QAE@XZ PROC ; ATL::CStringT<char,StrTraitMFC<char,ATL::ChTraitsCRT<char> > >::~CStringT<char,StrTraitMFC<char,ATL::ChTraitsCRT<char> > >, COMDAT
; _this$ = ecx
; File C:\Program Files\Microsoft Visual Studio\2022\Professional\VC\Tools\MSVC\14.44.35207\atlmfc\include\atlsimpstr.h

; 804  : 		return( reinterpret_cast< CStringData* >( m_pszData )-1 );

  00000	8b 11		 mov	 edx, DWORD PTR [ecx]

; 92   : 		if( _InterlockedDecrement( &nRefs ) <= 0 )

  00002	83 c8 ff	 or	 eax, -1

; 804  : 		return( reinterpret_cast< CStringData* >( m_pszData )-1 );

  00005	83 ea 10	 sub	 edx, 16			; 00000010H

; 92   : 		if( _InterlockedDecrement( &nRefs ) <= 0 )

  00008	f0 0f c1 42 0c	 lock	  xadd	 DWORD PTR [edx+12], eax
  0000d	48		 dec	 eax
  0000e	85 c0		 test	 eax, eax
  00010	7f 08		 jg	 SHORT $LN8@CStringT

; 93   : 		{
; 94   : 			pStringMgr->Free( this );

  00012	8b 0a		 mov	 ecx, DWORD PTR [edx]
  00014	52		 push	 edx
  00015	8b 01		 mov	 eax, DWORD PTR [ecx]
  00017	ff 50 04	 call	 DWORD PTR [eax+4]
$LN8@CStringT:
; File C:\Program Files\Microsoft Visual Studio\2022\Professional\VC\Tools\MSVC\14.44.35207\atlmfc\include\cstringt.h

; 1303 : 	}

  0001a	c3		 ret	 0
??1?$CStringT@DV?$StrTraitMFC@DV?$ChTraitsCRT@D@ATL@@@@@ATL@@QAE@XZ ENDP ; ATL::CStringT<char,StrTraitMFC<char,ATL::ChTraitsCRT<char> > >::~CStringT<char,StrTraitMFC<char,ATL::ChTraitsCRT<char> > >
_TEXT	ENDS
; Function compile flags: /Ogtp
; File C:\Program Files\Microsoft Visual Studio\2022\Professional\VC\Tools\MSVC\14.44.35207\atlmfc\include\cstringt.h
; File C:\Program Files\Microsoft Visual Studio\2022\Professional\VC\Tools\MSVC\14.44.35207\atlmfc\include\afxstr.h
; File C:\Program Files\Microsoft Visual Studio\2022\Professional\VC\Tools\MSVC\14.44.35207\atlmfc\include\cstringt.h
; File C:\Program Files\Microsoft Visual Studio\2022\Professional\VC\Tools\MSVC\14.44.35207\atlmfc\include\atlsimpstr.h
; File C:\Program Files\Microsoft Visual Studio\2022\Professional\VC\Tools\MSVC\14.44.35207\atlmfc\include\cstringt.h
; File C:\Program Files\Microsoft Visual Studio\2022\Professional\VC\Tools\MSVC\14.44.35207\atlmfc\include\atlsimpstr.h
; File C:\Program Files\Microsoft Visual Studio\2022\Professional\VC\Tools\MSVC\14.44.35207\atlmfc\include\cstringt.h
;	COMDAT ??0?$CStringT@DV?$StrTraitMFC@DV?$ChTraitsCRT@D@ATL@@@@@ATL@@QAE@XZ
_TEXT	SEGMENT
??0?$CStringT@DV?$StrTraitMFC@DV?$ChTraitsCRT@D@ATL@@@@@ATL@@QAE@XZ PROC ; ATL::CStringT<char,StrTraitMFC<char,ATL::ChTraitsCRT<char> > >::CStringT<char,StrTraitMFC<char,ATL::ChTraitsCRT<char> > >, COMDAT
; _this$ = ecx

; 1015 : 	{

  00000	56		 push	 esi
  00001	8b f1		 mov	 esi, ecx
; File C:\Program Files\Microsoft Visual Studio\2022\Professional\VC\Tools\MSVC\14.44.35207\atlmfc\include\afxstr.h

; 56   : 		return( AfxGetStringManager() );

  00003	e8 00 00 00 00	 call	 ?AfxGetStringManager@@YGPAUIAtlStringMgr@ATL@@XZ ; AfxGetStringManager
; File C:\Program Files\Microsoft Visual Studio\2022\Professional\VC\Tools\MSVC\14.44.35207\atlmfc\include\cstringt.h

; 1014 : 		CThisSimpleString( StringTraits::GetDefaultManager() )

  00008	8b c8		 mov	 ecx, eax
; File C:\Program Files\Microsoft Visual Studio\2022\Professional\VC\Tools\MSVC\14.44.35207\atlmfc\include\atlsimpstr.h

; 209  : 		ATLENSURE( pStringMgr != NULL );

  0000a	85 c9		 test	 ecx, ecx
  0000c	74 0e		 je	 SHORT $LN18@CStringT

; 210  : 		CStringData* pData = pStringMgr->GetNilString();

  0000e	8b 01		 mov	 eax, DWORD PTR [ecx]
  00010	ff 50 0c	 call	 DWORD PTR [eax+12]

; 211  : 		Attach( pData );

  00013	83 c0 10	 add	 eax, 16			; 00000010H
  00016	89 06		 mov	 DWORD PTR [esi], eax
; File C:\Program Files\Microsoft Visual Studio\2022\Professional\VC\Tools\MSVC\14.44.35207\atlmfc\include\cstringt.h

; 1016 : 	}

  00018	8b c6		 mov	 eax, esi
  0001a	5e		 pop	 esi
  0001b	c3		 ret	 0
$LN18@CStringT:
; File C:\Program Files\Microsoft Visual Studio\2022\Professional\VC\Tools\MSVC\14.44.35207\atlmfc\include\atlsimpstr.h

; 209  : 		ATLENSURE( pStringMgr != NULL );

  0001c	68 05 40 00 80	 push	 -2147467259		; 80004005H
  00021	e8 00 00 00 00	 call	 ?AtlThrowImpl@ATL@@YGXJ@Z ; ATL::AtlThrowImpl
$LN16@CStringT:
  00026	cc		 int	 3
??0?$CStringT@DV?$StrTraitMFC@DV?$ChTraitsCRT@D@ATL@@@@@ATL@@QAE@XZ ENDP ; ATL::CStringT<char,StrTraitMFC<char,ATL::ChTraitsCRT<char> > >::CStringT<char,StrTraitMFC<char,ATL::ChTraitsCRT<char> > >
_TEXT	ENDS
; Function compile flags: /Ogtp
; File C:\Program Files\Microsoft Visual Studio\2022\Professional\VC\Tools\MSVC\14.44.35207\atlmfc\include\atlsimpstr.h
;	COMDAT ?Reallocate@?$CSimpleStringT@D$0A@@ATL@@AAEXH@Z
_TEXT	SEGMENT
_nLength$ = 8						; size = 4
?Reallocate@?$CSimpleStringT@D$0A@@ATL@@AAEXH@Z PROC	; ATL::CSimpleStringT<char,0>::Reallocate, COMDAT
; _this$ = ecx

; 853  : 	{

  00000	55		 push	 ebp
  00001	8b ec		 mov	 ebp, esp
  00003	56		 push	 esi

; 854  : 		CStringData* pOldData = GetData();
; 855  : 		ATLASSERT( pOldData->nAllocLength < nLength );
; 856  : 		IAtlStringMgr* pStringMgr = pOldData->pStringMgr;
; 857  : 		if ( pOldData->nAllocLength >= nLength || nLength <= 0)

  00004	8b 75 08	 mov	 esi, DWORD PTR _nLength$[ebp]
  00007	57		 push	 edi
  00008	8b f9		 mov	 edi, ecx

; 804  : 		return( reinterpret_cast< CStringData* >( m_pszData )-1 );

  0000a	8b 17		 mov	 edx, DWORD PTR [edi]
  0000c	83 ea 10	 sub	 edx, 16			; 00000010H

; 854  : 		CStringData* pOldData = GetData();
; 855  : 		ATLASSERT( pOldData->nAllocLength < nLength );
; 856  : 		IAtlStringMgr* pStringMgr = pOldData->pStringMgr;
; 857  : 		if ( pOldData->nAllocLength >= nLength || nLength <= 0)

  0000f	39 72 08	 cmp	 DWORD PTR [edx+8], esi
  00012	7d 1e		 jge	 SHORT $LN3@Reallocate
  00014	85 f6		 test	 esi, esi
  00016	7e 1a		 jle	 SHORT $LN3@Reallocate

; 860  : 			return;
; 861  : 		}
; 862  : 		CStringData* pNewData = pStringMgr->Reallocate( pOldData, nLength, sizeof( XCHAR ) );

  00018	8b 0a		 mov	 ecx, DWORD PTR [edx]
  0001a	6a 01		 push	 1
  0001c	56		 push	 esi
  0001d	52		 push	 edx
  0001e	8b 01		 mov	 eax, DWORD PTR [ecx]
  00020	ff 50 08	 call	 DWORD PTR [eax+8]

; 863  : 		if( pNewData == NULL )

  00023	85 c0		 test	 eax, eax
  00025	74 0b		 je	 SHORT $LN3@Reallocate

; 864  : 		{
; 865  : 			ThrowMemoryException();
; 866  : 		}
; 867  : 		Attach( pNewData );

  00027	83 c0 10	 add	 eax, 16			; 00000010H
  0002a	89 07		 mov	 DWORD PTR [edi], eax
  0002c	5f		 pop	 edi
  0002d	5e		 pop	 esi

; 868  : 	}

  0002e	5d		 pop	 ebp
  0002f	c2 04 00	 ret	 4
$LN3@Reallocate:

; 858  : 		{
; 859  : 			ThrowMemoryException();

  00032	e8 00 00 00 00	 call	 ?ThrowMemoryException@?$CSimpleStringT@D$0A@@ATL@@KAXXZ ; ATL::CSimpleStringT<char,0>::ThrowMemoryException
$LN12@Reallocate:
  00037	cc		 int	 3
?Reallocate@?$CSimpleStringT@D$0A@@ATL@@AAEXH@Z ENDP	; ATL::CSimpleStringT<char,0>::Reallocate
_TEXT	ENDS
; Function compile flags: /Ogtp
; File C:\Program Files\Microsoft Visual Studio\2022\Professional\VC\Tools\MSVC\14.44.35207\atlmfc\include\atlsimpstr.h
;	COMDAT ?PrepareWrite2@?$CSimpleStringT@D$0A@@ATL@@AAEXH@Z
_TEXT	SEGMENT
_nLength$ = 8						; size = 4
?PrepareWrite2@?$CSimpleStringT@D$0A@@ATL@@AAEXH@Z PROC	; ATL::CSimpleStringT<char,0>::PrepareWrite2, COMDAT
; _this$ = ecx

; 822  : 	{

  00000	55		 push	 ebp
  00001	8b ec		 mov	 ebp, esp
  00003	56		 push	 esi

; 823  : 		CStringData* pOldData = GetData();
; 824  : 		if( pOldData->nDataLength > nLength )

  00004	8b 75 08	 mov	 esi, DWORD PTR _nLength$[ebp]
  00007	57		 push	 edi
  00008	8b f9		 mov	 edi, ecx

; 804  : 		return( reinterpret_cast< CStringData* >( m_pszData )-1 );

  0000a	8b 0f		 mov	 ecx, DWORD PTR [edi]

; 823  : 		CStringData* pOldData = GetData();
; 824  : 		if( pOldData->nDataLength > nLength )

  0000c	39 71 f4	 cmp	 DWORD PTR [ecx-12], esi
  0000f	0f 4f 71 f4	 cmovg	 esi, DWORD PTR [ecx-12]

; 77   : 		return( nRefs > 1 );

  00013	83 79 fc 01	 cmp	 DWORD PTR [ecx-4], 1

; 825  : 		{
; 826  : 			nLength = pOldData->nDataLength;
; 827  : 		}
; 828  : 		if( pOldData->IsShared() )

  00017	7e 0e		 jle	 SHORT $LN3@PrepareWri

; 829  : 		{
; 830  : 			Fork( nLength );

  00019	56		 push	 esi
  0001a	8b cf		 mov	 ecx, edi
  0001c	e8 00 00 00 00	 call	 ?Fork@?$CSimpleStringT@D$0A@@ATL@@AAEXH@Z ; ATL::CSimpleStringT<char,0>::Fork
  00021	5f		 pop	 edi

; 850  : 		}
; 851  : 	}

  00022	5e		 pop	 esi
  00023	5d		 pop	 ebp
  00024	c2 04 00	 ret	 4
$LN3@PrepareWri:

; 831  : 		}
; 832  : 		else if( pOldData->nAllocLength < nLength )

  00027	8b 49 f8	 mov	 ecx, DWORD PTR [ecx-8]
  0002a	3b ce		 cmp	 ecx, esi
  0002c	7d 25		 jge	 SHORT $LN5@PrepareWri

; 833  : 		{
; 834  : 			// Grow exponentially, until we hit 1G, then by 1M thereafter.
; 835  : 			int nNewLength = pOldData->nAllocLength;
; 836  : 			if( nNewLength > 1024 * 1024 * 1024 )

  0002e	81 f9 00 00 00
	40		 cmp	 ecx, 1073741824		; 40000000H
  00034	7e 07		 jle	 SHORT $LN6@PrepareWri

; 837  : 			{
; 838  : 				nNewLength += 1024 * 1024;

  00036	b8 00 00 10 00	 mov	 eax, 1048576		; 00100000H

; 839  : 			}

  0003b	eb 07		 jmp	 SHORT $LN7@PrepareWri
$LN6@PrepareWri:

; 840  : 			else
; 841  : 			{
; 842  : 				// Exponential growth factor is 1.5.
; 843  : 				nNewLength = nNewLength + nNewLength / 2;

  0003d	8b c1		 mov	 eax, ecx
  0003f	99		 cdq
  00040	2b c2		 sub	 eax, edx
  00042	d1 f8		 sar	 eax, 1
$LN7@PrepareWri:

; 844  : 			}
; 845  : 			if( nNewLength < nLength )

  00044	03 c1		 add	 eax, ecx

; 846  : 			{
; 847  : 				nNewLength = nLength;
; 848  : 			}
; 849  : 			Reallocate( nNewLength );

  00046	8b cf		 mov	 ecx, edi
  00048	3b c6		 cmp	 eax, esi
  0004a	0f 4d f0	 cmovge	 esi, eax
  0004d	56		 push	 esi
  0004e	e8 00 00 00 00	 call	 ?Reallocate@?$CSimpleStringT@D$0A@@ATL@@AAEXH@Z ; ATL::CSimpleStringT<char,0>::Reallocate
$LN5@PrepareWri:

; 850  : 		}
; 851  : 	}

  00053	5f		 pop	 edi
  00054	5e		 pop	 esi
  00055	5d		 pop	 ebp
  00056	c2 04 00	 ret	 4
?PrepareWrite2@?$CSimpleStringT@D$0A@@ATL@@AAEXH@Z ENDP	; ATL::CSimpleStringT<char,0>::PrepareWrite2
_TEXT	ENDS
; Function compile flags: /Ogtp
; File C:\Program Files\Microsoft Visual Studio\2022\Professional\VC\Tools\MSVC\14.44.35207\atlmfc\include\atlsimpstr.h
; File C:\Program Files (x86)\Windows Kits\10\Include\10.0.26100.0\ucrt\corecrt_memcpy_s.h
; File C:\Program Files\Microsoft Visual Studio\2022\Professional\VC\Tools\MSVC\14.44.35207\atlmfc\include\atlsimpstr.h
;	COMDAT ?Fork@?$CSimpleStringT@D$0A@@ATL@@AAEXH@Z
_TEXT	SEGMENT
_this$1$ = -12						; size = 4
_nOldLength$1$ = -8					; size = 4
__Source$1$ = -4					; size = 4
_nLength$ = 8						; size = 4
_pNewData$1$ = 8					; size = 4
?Fork@?$CSimpleStringT@D$0A@@ATL@@AAEXH@Z PROC		; ATL::CSimpleStringT<char,0>::Fork, COMDAT
; _this$ = ecx

; 787  : 	{

  00000	55		 push	 ebp
  00001	8b ec		 mov	 ebp, esp
  00003	83 ec 0c	 sub	 esp, 12			; 0000000cH
  00006	8b c1		 mov	 eax, ecx
  00008	89 45 f4	 mov	 DWORD PTR _this$1$[ebp], eax
  0000b	53		 push	 ebx
  0000c	56		 push	 esi

; 804  : 		return( reinterpret_cast< CStringData* >( m_pszData )-1 );

  0000d	8b 00		 mov	 eax, DWORD PTR [eax]

; 790  : 		CStringData* pNewData = pOldData->pStringMgr->Clone()->Allocate( nLength, sizeof( XCHAR ) );

  0000f	8b 48 f0	 mov	 ecx, DWORD PTR [eax-16]

; 804  : 		return( reinterpret_cast< CStringData* >( m_pszData )-1 );

  00012	8d 58 f0	 lea	 ebx, DWORD PTR [eax-16]
  00015	89 45 fc	 mov	 DWORD PTR __Source$1$[ebp], eax

; 787  : 	{

  00018	57		 push	 edi

; 788  : 		CStringData* pOldData = GetData();
; 789  : 		int nOldLength = pOldData->nDataLength;

  00019	8b 7b 04	 mov	 edi, DWORD PTR [ebx+4]

; 790  : 		CStringData* pNewData = pOldData->pStringMgr->Clone()->Allocate( nLength, sizeof( XCHAR ) );

  0001c	8b 01		 mov	 eax, DWORD PTR [ecx]
  0001e	89 7d f8	 mov	 DWORD PTR _nOldLength$1$[ebp], edi
  00021	ff 50 10	 call	 DWORD PTR [eax+16]
  00024	8b 75 08	 mov	 esi, DWORD PTR _nLength$[ebp]
  00027	8b c8		 mov	 ecx, eax
  00029	6a 01		 push	 1
  0002b	56		 push	 esi
  0002c	8b 10		 mov	 edx, DWORD PTR [eax]
  0002e	ff 12		 call	 DWORD PTR [edx]
  00030	89 45 08	 mov	 DWORD PTR _pNewData$1$[ebp], eax

; 791  : 		if( pNewData == NULL )

  00033	85 c0		 test	 eax, eax
  00035	74 6c		 je	 SHORT $LN25@Fork

; 794  : 		}
; 795  : 		int nCharsToCopy = ((nOldLength < nLength) ? nOldLength : nLength)+1;  // Copy '\0'

  00037	3b fe		 cmp	 edi, esi
  00039	0f 4c f7	 cmovl	 esi, edi

; 796  : 		memcpy_s( PXSTR( pNewData->data() ), nCharsToCopy * sizeof( XCHAR ),

  0003c	8d 78 10	 lea	 edi, DWORD PTR [eax+16]
  0003f	83 c6 01	 add	 esi, 1
; File C:\Program Files (x86)\Windows Kits\10\Include\10.0.26100.0\ucrt\corecrt_memcpy_s.h

; 47   :         if (_SourceSize == 0)

  00042	74 33		 je	 SHORT $LN11@Fork

; 48   :         {
; 49   :             return 0;
; 50   :         }
; 51   : 
; 52   :         _CRT_MEMCPY_S_VALIDATE_RETURN_ERRCODE(_Destination != NULL, EINVAL);

  00044	85 ff		 test	 edi, edi
  00046	74 1f		 je	 SHORT $LN23@Fork

; 53   :         if (_Source == NULL || _DestinationSize < _SourceSize)

  00048	8b 45 fc	 mov	 eax, DWORD PTR __Source$1$[ebp]
  0004b	56		 push	 esi
  0004c	85 c0		 test	 eax, eax
  0004e	74 0c		 je	 SHORT $LN10@Fork

; 56   : 
; 57   :             _CRT_MEMCPY_S_VALIDATE_RETURN_ERRCODE(_Source != NULL,                 EINVAL);
; 58   :             _CRT_MEMCPY_S_VALIDATE_RETURN_ERRCODE(_DestinationSize >= _SourceSize, ERANGE);
; 59   : 
; 60   :             // Unreachable, but required to suppress /analyze warnings:
; 61   :             return EINVAL;
; 62   :         }
; 63   :         memcpy(_Destination, _Source, _SourceSize);

  00050	50		 push	 eax
  00051	57		 push	 edi
  00052	e8 00 00 00 00	 call	 _memcpy
  00057	83 c4 0c	 add	 esp, 12			; 0000000cH
  0005a	eb 1b		 jmp	 SHORT $LN11@Fork
$LN10@Fork:

; 54   :         {
; 55   :             memset(_Destination, 0, _DestinationSize);

  0005c	6a 00		 push	 0
  0005e	57		 push	 edi
  0005f	e8 00 00 00 00	 call	 _memset
  00064	83 c4 0c	 add	 esp, 12			; 0000000cH
$LN23@Fork:
; File C:\Program Files\Microsoft Visual Studio\2022\Professional\VC\Tools\MSVC\14.44.35207\atlmfc\include\atlsimpstr.h

; 798  : 		pNewData->nDataLength = nOldLength;

  00067	e8 00 00 00 00	 call	 __errno
  0006c	c7 00 16 00 00
	00		 mov	 DWORD PTR [eax], 22	; 00000016H
  00072	e8 00 00 00 00	 call	 __invalid_parameter_noinfo
$LN11@Fork:
  00077	8b 4d 08	 mov	 ecx, DWORD PTR _pNewData$1$[ebp]
  0007a	8b 45 f8	 mov	 eax, DWORD PTR _nOldLength$1$[ebp]
  0007d	89 41 04	 mov	 DWORD PTR [ecx+4], eax

; 92   : 		if( _InterlockedDecrement( &nRefs ) <= 0 )

  00080	83 c8 ff	 or	 eax, -1
  00083	f0 0f c1 43 0c	 lock	  xadd	 DWORD PTR [ebx+12], eax
  00088	48		 dec	 eax
  00089	85 c0		 test	 eax, eax
  0008b	7f 08		 jg	 SHORT $LN15@Fork

; 93   : 		{
; 94   : 			pStringMgr->Free( this );

  0008d	8b 0b		 mov	 ecx, DWORD PTR [ebx]
  0008f	53		 push	 ebx
  00090	8b 01		 mov	 eax, DWORD PTR [ecx]
  00092	ff 50 04	 call	 DWORD PTR [eax+4]
$LN15@Fork:

; 799  : 		pOldData->Release();
; 800  : 		Attach( pNewData );

  00095	8b 45 f4	 mov	 eax, DWORD PTR _this$1$[ebp]
  00098	89 38		 mov	 DWORD PTR [eax], edi

; 801  : 	}

  0009a	5f		 pop	 edi
  0009b	5e		 pop	 esi
  0009c	5b		 pop	 ebx
  0009d	8b e5		 mov	 esp, ebp
  0009f	5d		 pop	 ebp
  000a0	c2 04 00	 ret	 4
$LN25@Fork:

; 792  : 		{
; 793  : 			ThrowMemoryException();

  000a3	e8 00 00 00 00	 call	 ?ThrowMemoryException@?$CSimpleStringT@D$0A@@ATL@@KAXXZ ; ATL::CSimpleStringT<char,0>::ThrowMemoryException
$LN22@Fork:
  000a8	cc		 int	 3
?Fork@?$CSimpleStringT@D$0A@@ATL@@AAEXH@Z ENDP		; ATL::CSimpleStringT<char,0>::Fork
_TEXT	ENDS
; Function compile flags: /Ogtp
; File C:\Program Files\Microsoft Visual Studio\2022\Professional\VC\Tools\MSVC\14.44.35207\atlmfc\include\atlsimpstr.h
;	COMDAT ?ThrowMemoryException@?$CSimpleStringT@D$0A@@ATL@@KAXXZ
_TEXT	SEGMENT
?ThrowMemoryException@?$CSimpleStringT@D$0A@@ATL@@KAXXZ PROC ; ATL::CSimpleStringT<char,0>::ThrowMemoryException, COMDAT

; 777  : 		AtlThrow( E_OUTOFMEMORY );

  00000	68 0e 00 07 80	 push	 -2147024882		; 8007000eH
  00005	e8 00 00 00 00	 call	 ?AtlThrowImpl@ATL@@YGXJ@Z ; ATL::AtlThrowImpl
$LN3@ThrowMemor:
  0000a	cc		 int	 3
?ThrowMemoryException@?$CSimpleStringT@D$0A@@ATL@@KAXXZ ENDP ; ATL::CSimpleStringT<char,0>::ThrowMemoryException
_TEXT	ENDS
; Function compile flags: /Ogtp
; File C:\Program Files\Microsoft Visual Studio\2022\Professional\VC\Tools\MSVC\14.44.35207\atlmfc\include\atlsimpstr.h
; File C:\Program Files (x86)\Windows Kits\10\Include\10.0.26100.0\ucrt\corecrt_memcpy_s.h
; File C:\Program Files\Microsoft Visual Studio\2022\Professional\VC\Tools\MSVC\14.44.35207\atlmfc\include\atlsimpstr.h
; File C:\Program Files (x86)\Windows Kits\10\Include\10.0.26100.0\ucrt\corecrt_memcpy_s.h
; File C:\Program Files\Microsoft Visual Studio\2022\Professional\VC\Tools\MSVC\14.44.35207\atlmfc\include\atlsimpstr.h
;	COMDAT ?SetString@?$CSimpleStringT@D$0A@@ATL@@QAEXPBDH@Z
_TEXT	SEGMENT
_pszSrc$ = 8						; size = 4
_nOldLength$1$ = 8					; size = 4
_nLength$ = 12						; size = 4
_nOffset$1$ = 12					; size = 4
?SetString@?$CSimpleStringT@D$0A@@ATL@@QAEXPBDH@Z PROC	; ATL::CSimpleStringT<char,0>::SetString, COMDAT
; _this$ = ecx

; 611  : 	{

  00000	55		 push	 ebp
  00001	8b ec		 mov	 ebp, esp
  00003	56		 push	 esi

; 612  : 		if( nLength == 0 )

  00004	8b 75 0c	 mov	 esi, DWORD PTR _nLength$[ebp]
  00007	57		 push	 edi
  00008	8b f9		 mov	 edi, ecx
  0000a	85 f6		 test	 esi, esi
  0000c	75 58		 jne	 SHORT $LN2@SetString

; 804  : 		return( reinterpret_cast< CStringData* >( m_pszData )-1 );

  0000e	8b 07		 mov	 eax, DWORD PTR [edi]

; 443  : 		if( pOldData->nDataLength == 0 )

  00010	83 78 f4 00	 cmp	 DWORD PTR [eax-12], 0

; 804  : 		return( reinterpret_cast< CStringData* >( m_pszData )-1 );

  00014	8d 50 f0	 lea	 edx, DWORD PTR [eax-16]

; 442  : 		IAtlStringMgr* pStringMgr = pOldData->pStringMgr;

  00017	8b 32		 mov	 esi, DWORD PTR [edx]

; 443  : 		if( pOldData->nDataLength == 0 )

  00019	74 1f		 je	 SHORT $LN72@SetString

; 73   : 		return nRefs < 0;

  0001b	83 7a 0c 00	 cmp	 DWORD PTR [edx+12], 0
  0001f	8d 4a 0c	 lea	 ecx, DWORD PTR [edx+12]

; 448  : 		if( pOldData->IsLocked() )

  00022	7d 1c		 jge	 SHORT $LN10@SetString

; 875  : 		if( nLength < 0 || nLength > GetData()->nAllocLength)

  00024	83 78 f8 00	 cmp	 DWORD PTR [eax-8], 0
  00028	0f 8c 0b 01 00
	00		 jl	 $LN71@SetString

; 877  : 
; 878  : 		GetData()->nDataLength = nLength;

  0002e	c7 40 f4 00 00
	00 00		 mov	 DWORD PTR [eax-12], 0

; 879  : 		m_pszData[nLength] = 0;

  00035	8b 07		 mov	 eax, DWORD PTR [edi]
  00037	c6 00 00	 mov	 BYTE PTR [eax], 0
$LN72@SetString:
  0003a	5f		 pop	 edi

; 638  : 			else
; 639  : 			{
; 640  : 				memcpy_s( pszBuffer, GetAllocLength() * sizeof( XCHAR ), pszSrc, nLength * sizeof( XCHAR ));
; 641  : 			}
; 642  : 			ReleaseBufferSetLength( nLength );
; 643  : 		}
; 644  : 	}

  0003b	5e		 pop	 esi
  0003c	5d		 pop	 ebp
  0003d	c2 08 00	 ret	 8
$LN10@SetString:

; 92   : 		if( _InterlockedDecrement( &nRefs ) <= 0 )

  00040	83 c8 ff	 or	 eax, -1
  00043	f0 0f c1 01	 lock	  xadd	 DWORD PTR [ecx], eax
  00047	48		 dec	 eax
  00048	85 c0		 test	 eax, eax
  0004a	7f 08		 jg	 SHORT $LN27@SetString

; 93   : 		{
; 94   : 			pStringMgr->Free( this );

  0004c	8b 0a		 mov	 ecx, DWORD PTR [edx]
  0004e	52		 push	 edx
  0004f	8b 01		 mov	 eax, DWORD PTR [ecx]
  00051	ff 50 04	 call	 DWORD PTR [eax+4]
$LN27@SetString:

; 456  : 			CStringData* pNewData = pStringMgr->GetNilString();

  00054	8b 06		 mov	 eax, DWORD PTR [esi]
  00056	8b ce		 mov	 ecx, esi
  00058	ff 50 0c	 call	 DWORD PTR [eax+12]

; 457  : 			Attach( pNewData );

  0005b	83 c0 10	 add	 eax, 16			; 00000010H
  0005e	89 07		 mov	 DWORD PTR [edi], eax
  00060	5f		 pop	 edi

; 638  : 			else
; 639  : 			{
; 640  : 				memcpy_s( pszBuffer, GetAllocLength() * sizeof( XCHAR ), pszSrc, nLength * sizeof( XCHAR ));
; 641  : 			}
; 642  : 			ReleaseBufferSetLength( nLength );
; 643  : 		}
; 644  : 	}

  00061	5e		 pop	 esi
  00062	5d		 pop	 ebp
  00063	c2 08 00	 ret	 8
$LN2@SetString:
  00066	53		 push	 ebx

; 613  : 		{
; 614  : 			Empty();
; 615  : 		}
; 616  : 		else
; 617  : 		{
; 618  : 			// It is possible that pszSrc points to a location inside of our
; 619  : 			// buffer.  GetBuffer() might change m_pszData if (1) the buffer
; 620  : 			// is shared or (2) the buffer is too small to hold the new
; 621  : 			// string.  We detect this aliasing, and modify pszSrc to point
; 622  : 			// into the newly allocated buffer instead.
; 623  : 
; 624  : 			if(pszSrc == NULL)

  00067	8b 5d 08	 mov	 ebx, DWORD PTR _pszSrc$[ebp]
  0006a	85 db		 test	 ebx, ebx
  0006c	0f 84 c7 00 00
	00		 je	 $LN71@SetString

; 523  : 		return( GetData()->nDataLength );

  00072	8b 07		 mov	 eax, DWORD PTR [edi]

; 625  : 				AtlThrow(E_INVALIDARG);
; 626  : 
; 627  : 			UINT nOldLength = GetLength();
; 628  : 			UINT_PTR nOffset = pszSrc-GetString();

  00074	8b d3		 mov	 edx, ebx
  00076	2b d0		 sub	 edx, eax
  00078	89 55 0c	 mov	 DWORD PTR _nOffset$1$[ebp], edx
  0007b	8b 48 f4	 mov	 ecx, DWORD PTR [eax-12]
  0007e	89 4d 08	 mov	 DWORD PTR _nOldLength$1$[ebp], ecx

; 808  : 		if (nLength < 0)

  00081	85 f6		 test	 esi, esi
  00083	0f 88 b0 00 00
	00		 js	 $LN71@SetString

; 809  : 			AtlThrow(E_INVALIDARG);
; 810  : 
; 811  : 		CStringData* pOldData = GetData();
; 812  : 		int nShared = 1-pOldData->nRefs;  // nShared < 0 means true, >= 0 means false

  00089	b9 01 00 00 00	 mov	 ecx, 1
  0008e	2b 48 fc	 sub	 ecx, DWORD PTR [eax-4]

; 813  : 		int nTooShort = pOldData->nAllocLength-nLength;  // nTooShort < 0 means true, >= 0 means false

  00091	8b 40 f8	 mov	 eax, DWORD PTR [eax-8]
  00094	2b c6		 sub	 eax, esi

; 814  : 		if( (nShared|nTooShort) < 0 )  // If either sign bit is set (i.e. either is less than zero), we need to copy data

  00096	0b c8		 or	 ecx, eax
  00098	7d 0b		 jge	 SHORT $LN38@SetString

; 815  : 		{
; 816  : 			PrepareWrite2( nLength );

  0009a	56		 push	 esi
  0009b	8b cf		 mov	 ecx, edi
  0009d	e8 00 00 00 00	 call	 ?PrepareWrite2@?$CSimpleStringT@D$0A@@ATL@@AAEXH@Z ; ATL::CSimpleStringT<char,0>::PrepareWrite2
  000a2	8b 55 0c	 mov	 edx, DWORD PTR _nOffset$1$[ebp]
$LN38@SetString:

; 629  : 			// If 0 <= nOffset <= nOldLength, then pszSrc points into our
; 630  : 			// buffer
; 631  : 
; 632  : 			PXSTR pszBuffer = GetBuffer( nLength );

  000a5	8b 07		 mov	 eax, DWORD PTR [edi]
  000a7	8b 48 f8	 mov	 ecx, DWORD PTR [eax-8]

; 633  : 			if( nOffset <= nOldLength )

  000aa	3b 55 08	 cmp	 edx, DWORD PTR _nOldLength$1$[ebp]
  000ad	77 35		 ja	 SHORT $LN5@SetString

; 634  : 			{
; 635  : 				CopyCharsOverlapped( pszBuffer, GetAllocLength(),

  000af	03 d0		 add	 edx, eax
; File C:\Program Files (x86)\Windows Kits\10\Include\10.0.26100.0\ucrt\corecrt_memcpy_s.h

; 81   :         _CRT_MEMCPY_S_VALIDATE_RETURN_ERRCODE(_Destination != NULL,            EINVAL);

  000b1	85 c0		 test	 eax, eax
  000b3	75 0d		 jne	 SHORT $LN51@SetString
  000b5	e8 00 00 00 00	 call	 __errno
  000ba	c7 00 16 00 00
	00		 mov	 DWORD PTR [eax], 22	; 00000016H
  000c0	eb 5b		 jmp	 SHORT $LN97@SetString
$LN51@SetString:

; 82   :         _CRT_MEMCPY_S_VALIDATE_RETURN_ERRCODE(_Source != NULL,                 EINVAL);

  000c2	85 d2		 test	 edx, edx
  000c4	75 0d		 jne	 SHORT $LN52@SetString
  000c6	e8 00 00 00 00	 call	 __errno
  000cb	c7 00 16 00 00
	00		 mov	 DWORD PTR [eax], 22	; 00000016H
  000d1	eb 4a		 jmp	 SHORT $LN97@SetString
$LN52@SetString:

; 83   :         _CRT_MEMCPY_S_VALIDATE_RETURN_ERRCODE(_DestinationSize >= _SourceSize, ERANGE);

  000d3	3b ce		 cmp	 ecx, esi
  000d5	72 3b		 jb	 SHORT $LN98@SetString

; 84   : 
; 85   :         memmove(_Destination, _Source, _SourceSize);

  000d7	56		 push	 esi
  000d8	52		 push	 edx
  000d9	50		 push	 eax
  000da	e8 00 00 00 00	 call	 _memmove
  000df	83 c4 0c	 add	 esp, 12			; 0000000cH
; File C:\Program Files\Microsoft Visual Studio\2022\Professional\VC\Tools\MSVC\14.44.35207\atlmfc\include\atlsimpstr.h

; 637  : 			}

  000e2	eb 3e		 jmp	 SHORT $LN65@SetString
$LN5@SetString:
; File C:\Program Files (x86)\Windows Kits\10\Include\10.0.26100.0\ucrt\corecrt_memcpy_s.h

; 52   :         _CRT_MEMCPY_S_VALIDATE_RETURN_ERRCODE(_Destination != NULL, EINVAL);

  000e4	85 c0		 test	 eax, eax
  000e6	75 0d		 jne	 SHORT $LN61@SetString
  000e8	e8 00 00 00 00	 call	 __errno
  000ed	c7 00 16 00 00
	00		 mov	 DWORD PTR [eax], 22	; 00000016H
  000f3	eb 28		 jmp	 SHORT $LN97@SetString
$LN61@SetString:

; 53   :         if (_Source == NULL || _DestinationSize < _SourceSize)

  000f5	3b ce		 cmp	 ecx, esi
  000f7	72 0d		 jb	 SHORT $LN63@SetString

; 56   : 
; 57   :             _CRT_MEMCPY_S_VALIDATE_RETURN_ERRCODE(_Source != NULL,                 EINVAL);
; 58   :             _CRT_MEMCPY_S_VALIDATE_RETURN_ERRCODE(_DestinationSize >= _SourceSize, ERANGE);
; 59   : 
; 60   :             // Unreachable, but required to suppress /analyze warnings:
; 61   :             return EINVAL;
; 62   :         }
; 63   :         memcpy(_Destination, _Source, _SourceSize);

  000f9	56		 push	 esi
  000fa	53		 push	 ebx
  000fb	50		 push	 eax
  000fc	e8 00 00 00 00	 call	 _memcpy
  00101	83 c4 0c	 add	 esp, 12			; 0000000cH
  00104	eb 1c		 jmp	 SHORT $LN65@SetString
$LN63@SetString:

; 54   :         {
; 55   :             memset(_Destination, 0, _DestinationSize);

  00106	51		 push	 ecx
  00107	6a 00		 push	 0
  00109	50		 push	 eax
  0010a	e8 00 00 00 00	 call	 _memset
  0010f	83 c4 0c	 add	 esp, 12			; 0000000cH
$LN98@SetString:
; File C:\Program Files\Microsoft Visual Studio\2022\Professional\VC\Tools\MSVC\14.44.35207\atlmfc\include\atlsimpstr.h

; 875  : 		if( nLength < 0 || nLength > GetData()->nAllocLength)

  00112	e8 00 00 00 00	 call	 __errno
  00117	c7 00 22 00 00
	00		 mov	 DWORD PTR [eax], 34	; 00000022H
$LN97@SetString:
  0011d	e8 00 00 00 00	 call	 __invalid_parameter_noinfo
$LN65@SetString:
  00122	8b 07		 mov	 eax, DWORD PTR [edi]
  00124	5b		 pop	 ebx
  00125	3b 70 f8	 cmp	 esi, DWORD PTR [eax-8]
  00128	7f 0f		 jg	 SHORT $LN71@SetString

; 877  : 
; 878  : 		GetData()->nDataLength = nLength;

  0012a	89 70 f4	 mov	 DWORD PTR [eax-12], esi

; 879  : 		m_pszData[nLength] = 0;

  0012d	8b 07		 mov	 eax, DWORD PTR [edi]
  0012f	5f		 pop	 edi
  00130	c6 04 06 00	 mov	 BYTE PTR [esi+eax], 0

; 638  : 			else
; 639  : 			{
; 640  : 				memcpy_s( pszBuffer, GetAllocLength() * sizeof( XCHAR ), pszSrc, nLength * sizeof( XCHAR ));
; 641  : 			}
; 642  : 			ReleaseBufferSetLength( nLength );
; 643  : 		}
; 644  : 	}

  00134	5e		 pop	 esi
  00135	5d		 pop	 ebp
  00136	c2 08 00	 ret	 8
$LN71@SetString:

; 876  : 			AtlThrow(E_INVALIDARG);

  00139	68 57 00 07 80	 push	 -2147024809		; 80070057H
  0013e	e8 00 00 00 00	 call	 ?AtlThrowImpl@ATL@@YGXJ@Z ; ATL::AtlThrowImpl
$LN96@SetString:
  00143	cc		 int	 3
?SetString@?$CSimpleStringT@D$0A@@ATL@@QAEXPBDH@Z ENDP	; ATL::CSimpleStringT<char,0>::SetString
_TEXT	ENDS
; Function compile flags: /Ogtp
; File C:\Program Files\Microsoft Visual Studio\2022\Professional\VC\Tools\MSVC\14.44.35207\atlmfc\include\atlsimpstr.h
;	COMDAT ??1?$CSimpleStringT@D$0A@@ATL@@QAE@XZ
_TEXT	SEGMENT
??1?$CSimpleStringT@D$0A@@ATL@@QAE@XZ PROC		; ATL::CSimpleStringT<char,0>::~CSimpleStringT<char,0>, COMDAT
; _this$ = ecx

; 804  : 		return( reinterpret_cast< CStringData* >( m_pszData )-1 );

  00000	8b 11		 mov	 edx, DWORD PTR [ecx]

; 92   : 		if( _InterlockedDecrement( &nRefs ) <= 0 )

  00002	83 c8 ff	 or	 eax, -1

; 804  : 		return( reinterpret_cast< CStringData* >( m_pszData )-1 );

  00005	83 ea 10	 sub	 edx, 16			; 00000010H

; 92   : 		if( _InterlockedDecrement( &nRefs ) <= 0 )

  00008	f0 0f c1 42 0c	 lock	  xadd	 DWORD PTR [edx+12], eax
  0000d	48		 dec	 eax
  0000e	85 c0		 test	 eax, eax
  00010	7f 08		 jg	 SHORT $LN6@CSimpleStr

; 93   : 		{
; 94   : 			pStringMgr->Free( this );

  00012	8b 0a		 mov	 ecx, DWORD PTR [edx]
  00014	52		 push	 edx
  00015	8b 01		 mov	 eax, DWORD PTR [ecx]
  00017	ff 50 04	 call	 DWORD PTR [eax+4]
$LN6@CSimpleStr:

; 265  : 		CStringData* pData = GetData();
; 266  : 		pData->Release();
; 267  : 	}

  0001a	c3		 ret	 0
??1?$CSimpleStringT@D$0A@@ATL@@QAE@XZ ENDP		; ATL::CSimpleStringT<char,0>::~CSimpleStringT<char,0>
_TEXT	ENDS
; Function compile flags: /Ogtp
; File C:\Program Files\Microsoft Visual Studio\2022\Professional\VC\Tools\MSVC\14.44.35207\atlmfc\include\atlexcept.h
;	COMDAT ?AtlThrowImpl@ATL@@YGXJ@Z
_TEXT	SEGMENT
_hr$ = 8						; size = 4
?AtlThrowImpl@ATL@@YGXJ@Z PROC				; ATL::AtlThrowImpl, COMDAT

; 69   : {

  00000	55		 push	 ebp
  00001	8b ec		 mov	 ebp, esp

; 70   : 	ATLTRACE(atlTraceException, 0, _T("AtlThrow: hr = 0x%x\n"), hr );
; 71   : #ifdef _AFX
; 72   : 	if( hr == E_OUTOFMEMORY )

  00003	8b 45 08	 mov	 eax, DWORD PTR _hr$[ebp]
  00006	3d 0e 00 07 80	 cmp	 eax, -2147024882	; 8007000eH
  0000b	75 05		 jne	 SHORT $LN2@AtlThrowIm

; 73   : 	{
; 74   : 		AfxThrowMemoryException();

  0000d	e8 00 00 00 00	 call	 ?AfxThrowMemoryException@@YGXXZ ; AfxThrowMemoryException
$LN2@AtlThrowIm:

; 75   : 	}
; 76   : 	else
; 77   : 	{
; 78   : 		AfxThrowOleException( hr );

  00012	50		 push	 eax
  00013	e8 00 00 00 00	 call	 ?AfxThrowOleException@@YGXJ@Z ; AfxThrowOleException
$LN5@AtlThrowIm:
  00018	cc		 int	 3
?AtlThrowImpl@ATL@@YGXJ@Z ENDP				; ATL::AtlThrowImpl
_TEXT	ENDS
; Function compile flags: /Ogtp
; File C:\Program Files (x86)\Windows Kits\10\Include\10.0.26100.0\ucrt\stdio.h
;	COMDAT _sprintf
_TEXT	SEGMENT
__Buffer$ = 8						; size = 4
__Format$ = 12						; size = 4
_sprintf PROC						; COMDAT

; 1771 :     {

  00000	55		 push	 ebp
  00001	8b ec		 mov	 ebp, esp

; 1392 :         int const _Result = __stdio_common_vsprintf(

  00003	8d 45 10	 lea	 eax, DWORD PTR __Format$[ebp+4]
  00006	50		 push	 eax
  00007	6a 00		 push	 0
  00009	ff 75 0c	 push	 DWORD PTR __Format$[ebp]
  0000c	6a ff		 push	 -1
  0000e	ff 75 08	 push	 DWORD PTR __Buffer$[ebp]
  00011	e8 00 00 00 00	 call	 ___local_stdio_printf_options
  00016	8b 08		 mov	 ecx, DWORD PTR [eax]
  00018	ff 70 04	 push	 DWORD PTR [eax+4]
  0001b	83 c9 01	 or	 ecx, 1
  0001e	51		 push	 ecx
  0001f	e8 00 00 00 00	 call	 ___stdio_common_vsprintf

; 1393 :             _CRT_INTERNAL_LOCAL_PRINTF_OPTIONS | _CRT_INTERNAL_PRINTF_LEGACY_VSPRINTF_NULL_TERMINATION,
; 1394 :             _Buffer, _BufferCount, _Format, _Locale, _ArgList);
; 1395 : 
; 1396 :         return _Result < 0 ? -1 : _Result;

  00024	83 c9 ff	 or	 ecx, -1
  00027	83 c4 1c	 add	 esp, 28			; 0000001cH
  0002a	85 c0		 test	 eax, eax
  0002c	0f 48 c1	 cmovs	 eax, ecx

; 1772 :         int _Result;
; 1773 :         va_list _ArgList;
; 1774 :         __crt_va_start(_ArgList, _Format);
; 1775 : 
; 1776 :         _Result = _vsprintf_l(_Buffer, _Format, NULL, _ArgList);
; 1777 : 
; 1778 :         __crt_va_end(_ArgList);
; 1779 :         return _Result;
; 1780 :     }

  0002f	5d		 pop	 ebp
  00030	c3		 ret	 0
_sprintf ENDP
_TEXT	ENDS
; Function compile flags: /Ogtp
; File C:\Program Files (x86)\Windows Kits\10\Include\10.0.26100.0\ucrt\corecrt_stdio_config.h
;	COMDAT ___local_stdio_printf_options
_TEXT	SEGMENT
___local_stdio_printf_options PROC			; COMDAT

; 91   :         static unsigned __int64 _OptionsStorage;
; 92   :         return &_OptionsStorage;

  00000	b8 00 00 00 00	 mov	 eax, OFFSET ?_OptionsStorage@?1??__local_stdio_printf_options@@9@4_KA ; `__local_stdio_printf_options'::`2'::_OptionsStorage

; 93   :     }

  00005	c3		 ret	 0
___local_stdio_printf_options ENDP
_TEXT	ENDS
; Function compile flags: /Ogtp
; File C:\IAGOS\server\v18\Source\Source\_Common\GuildCombat1to1.cpp
;	COMDAT ?__empty_global_delete@@YAXPAXI@Z
_TEXT	SEGMENT
___formal$ = 8						; size = 4
___formal$ = 12						; size = 4
?__empty_global_delete@@YAXPAXI@Z PROC			; __empty_global_delete, COMDAT

  00000	c2 00 00	 ret	 0
?__empty_global_delete@@YAXPAXI@Z ENDP			; __empty_global_delete
_TEXT	ENDS
; Function compile flags: /Ogtp
; File C:\IAGOS\server\v18\Source\Source\_Common\GuildCombat1to1.cpp
;	COMDAT ?__empty_global_delete@@YAXPAX@Z
_TEXT	SEGMENT
___formal$ = 8						; size = 4
?__empty_global_delete@@YAXPAX@Z PROC			; __empty_global_delete, COMDAT

  00000	c2 00 00	 ret	 0
?__empty_global_delete@@YAXPAX@Z ENDP			; __empty_global_delete
_TEXT	ENDS
END
