; Listing generated by Microsoft (R) Optimizing Compiler Version 19.44.35225.0 

	TITLE	C:\IAGOS\server\v18\Source\Output\WorldServer\Release\GuildHouse.obj
	.686P
	.XMM
	include listing.inc
	.model	flat

INCLUDELIB LIBCMT
INCLUDELIB OLDNAMES

CONST	SEGMENT
?piecewise_construct@std@@3Upiecewise_construct_t@1@B	ORG $+1 ; std::piecewise_construct
CONST	ENDS
PUBLIC	?__empty_global_delete@@YAXPAX@Z		; __empty_global_delete
PUBLIC	?__empty_global_delete@@YAXPAXI@Z		; __empty_global_delete
PUBLIC	??0exception@std@@QAE@ABV01@@Z			; std::exception::exception
PUBLIC	??1exception@std@@UAE@XZ			; std::exception::~exception
PUBLIC	?what@exception@std@@UBEPBDXZ			; std::exception::what
PUBLIC	??_Gexception@std@@UAEPAXI@Z			; std::exception::`scalar deleting destructor'
PUBLIC	??0bad_alloc@std@@QAE@ABV01@@Z			; std::bad_alloc::bad_alloc
PUBLIC	??_Gbad_alloc@std@@UAEPAXI@Z			; std::bad_alloc::`scalar deleting destructor'
PUBLIC	??0bad_array_new_length@std@@QAE@XZ		; std::bad_array_new_length::bad_array_new_length
PUBLIC	??1bad_array_new_length@std@@UAE@XZ		; std::bad_array_new_length::~bad_array_new_length
PUBLIC	??0bad_array_new_length@std@@QAE@ABV01@@Z	; std::bad_array_new_length::bad_array_new_length
PUBLIC	??_Gbad_array_new_length@std@@UAEPAXI@Z		; std::bad_array_new_length::`scalar deleting destructor'
PUBLIC	?_Throw_bad_array_new_length@std@@YAXXZ		; std::_Throw_bad_array_new_length
PUBLIC	?_Throw_tree_length_error@std@@YAXXZ		; std::_Throw_tree_length_error
PUBLIC	??0D3DXVECTOR3@@QAE@XZ				; D3DXVECTOR3::D3DXVECTOR3
PUBLIC	?GetItemProp@CProject@@QAEPAUItemProp@@H@Z	; CProject::GetItemProp
PUBLIC	??$_Allocate_manually_vector_aligned@U_Default_allocate_traits@std@@@std@@YAPAXI@Z ; std::_Allocate_manually_vector_aligned<std::_Default_allocate_traits>
PUBLIC	??0GuildHouse_Furniture_Info@CGuildHouseBase@@QAE@KHUD3DXVECTOR3@@MJ@Z ; CGuildHouseBase::GuildHouse_Furniture_Info::GuildHouse_Furniture_Info
PUBLIC	?Serialize@GuildHouse_Furniture_Info@CGuildHouseBase@@QAEXAAVCAr@@@Z ; CGuildHouseBase::GuildHouse_Furniture_Info::Serialize
PUBLIC	??1?$vector@UGuildHouse_Furniture_Info@CGuildHouseBase@@V?$allocator@UGuildHouse_Furniture_Info@CGuildHouseBase@@@std@@@std@@QAE@XZ ; std::vector<CGuildHouseBase::GuildHouse_Furniture_Info,std::allocator<CGuildHouseBase::GuildHouse_Furniture_Info> >::~vector<CGuildHouseBase::GuildHouse_Furniture_Info,std::allocator<CGuildHouseBase::GuildHouse_Furniture_Info> >
PUBLIC	?_Change_array@?$vector@UGuildHouse_Furniture_Info@CGuildHouseBase@@V?$allocator@UGuildHouse_Furniture_Info@CGuildHouseBase@@@std@@@std@@AAEXQAUGuildHouse_Furniture_Info@CGuildHouseBase@@II@Z ; std::vector<CGuildHouseBase::GuildHouse_Furniture_Info,std::allocator<CGuildHouseBase::GuildHouse_Furniture_Info> >::_Change_array
PUBLIC	?_Xlength@?$vector@UGuildHouse_Furniture_Info@CGuildHouseBase@@V?$allocator@UGuildHouse_Furniture_Info@CGuildHouseBase@@@std@@@std@@CAXXZ ; std::vector<CGuildHouseBase::GuildHouse_Furniture_Info,std::allocator<CGuildHouseBase::GuildHouse_Furniture_Info> >::_Xlength
PUBLIC	??0CGuildHouseBase@@QAE@KK@Z			; CGuildHouseBase::CGuildHouseBase
PUBLIC	??1CGuildHouseBase@@UAE@XZ			; CGuildHouseBase::~CGuildHouseBase
PUBLIC	?Clear@CGuildHouseBase@@QAEXXZ			; CGuildHouseBase::Clear
PUBLIC	?OnGuildHousePacket@CGuildHouseBase@@QAEHHAAUGuildHouse_Furniture_Info@1@H@Z ; CGuildHouseBase::OnGuildHousePacket
PUBLIC	?SerializeAllInfo@CGuildHouseBase@@QAEXAAVCAr@@@Z ; CGuildHouseBase::SerializeAllInfo
PUBLIC	?ExpiredGuildHouse@CGuildHouseBase@@QAEHXZ	; CGuildHouseBase::ExpiredGuildHouse
PUBLIC	?AfterFailedGuildHousePacket@CGuildHouseBase@@QAEXHAAUGuildHouse_Furniture_Info@1@H@Z ; CGuildHouseBase::AfterFailedGuildHousePacket
PUBLIC	?SendWorldToDatabase@CGuildHouseBase@@QAEHPAVCUser@@HAAUGuildHouse_Furniture_Info@1@H@Z ; CGuildHouseBase::SendWorldToDatabase
PUBLIC	?SendWorldToClient@CGuildHouseBase@@QAEXHAAUGuildHouse_Furniture_Info@1@H@Z ; CGuildHouseBase::SendWorldToClient
PUBLIC	?IsEnteranceAble@CGuildHouseBase@@QAEHPAVCUser@@@Z ; CGuildHouseBase::IsEnteranceAble
PUBLIC	?SetApplyDST@CGuildHouseBase@@QAEXPAVCUser@@@Z	; CGuildHouseBase::SetApplyDST
PUBLIC	?ResetApplyDST@CGuildHouseBase@@QAEXPAVCUser@@@Z ; CGuildHouseBase::ResetApplyDST
PUBLIC	?EnteranceGuildHouseRoom@CGuildHouseBase@@QAEHPAVCUser@@@Z ; CGuildHouseBase::EnteranceGuildHouseRoom
PUBLIC	?GoOutGuildHouseRoom@CGuildHouseBase@@QAEXPAVCUser@@@Z ; CGuildHouseBase::GoOutGuildHouseRoom
PUBLIC	?CheckDestroyRoom@CGuildHouseBase@@QAEXPAVCUser@@@Z ; CGuildHouseBase::CheckDestroyRoom
PUBLIC	?SetupFurnitureCtrl@CGuildHouseBase@@AAEHHAAUGuildHouse_Furniture_Info@1@@Z ; CGuildHouseBase::SetupFurnitureCtrl
PUBLIC	?RemoveFurnitureCtrl@CGuildHouseBase@@AAEHHAAUGuildHouse_Furniture_Info@1@@Z ; CGuildHouseBase::RemoveFurnitureCtrl
PUBLIC	?ResetFurnitureCtrl@CGuildHouseBase@@AAEHHAAUGuildHouse_Furniture_Info@1@@Z ; CGuildHouseBase::ResetFurnitureCtrl
PUBLIC	?ListUpFurniture@CGuildHouseBase@@AAEHAAUGuildHouse_Furniture_Info@1@@Z ; CGuildHouseBase::ListUpFurniture
PUBLIC	?ListDropFurniture@CGuildHouseBase@@AAEHH@Z	; CGuildHouseBase::ListDropFurniture
PUBLIC	?IsAuthority@CGuildHouseBase@@AAEHPAVCUser@@H@Z	; CGuildHouseBase::IsAuthority
PUBLIC	?PreCheckPacket@CGuildHouseBase@@AAEHPAVCUser@@HAAUGuildHouse_Furniture_Info@1@H@Z ; CGuildHouseBase::PreCheckPacket
PUBLIC	?SetDSTFunriture@CGuildHouseBase@@AAEXPAUItemProp@@@Z ; CGuildHouseBase::SetDSTFunriture
PUBLIC	?ResetDSTFunriture@CGuildHouseBase@@AAEXPAUItemProp@@@Z ; CGuildHouseBase::ResetDSTFunriture
PUBLIC	?CreateGuildHouseRoom@CGuildHouseBase@@AAEHXZ	; CGuildHouseBase::CreateGuildHouseRoom
PUBLIC	?DestroyGuildHouseRoom@CGuildHouseBase@@AAEHXZ	; CGuildHouseBase::DestroyGuildHouseRoom
PUBLIC	?IsListUpAble@CGuildHouseBase@@AAEHK@Z		; CGuildHouseBase::IsListUpAble
PUBLIC	??_GCGuildHouseBase@@UAEPAXI@Z			; CGuildHouseBase::`scalar deleting destructor'
PUBLIC	??0CGuildHouseSmall@@QAE@K@Z			; CGuildHouseSmall::CGuildHouseSmall
PUBLIC	??1CGuildHouseSmall@@UAE@XZ			; CGuildHouseSmall::~CGuildHouseSmall
PUBLIC	?GetTeleporterPos@CGuildHouseSmall@@UAE?AUD3DXVECTOR3@@XZ ; CGuildHouseSmall::GetTeleporterPos
PUBLIC	?GetRestPointFactor@CGuildHouseSmall@@UAEMXZ	; CGuildHouseSmall::GetRestPointFactor
PUBLIC	?GetEnterPos@CGuildHouseSmall@@EAE?AUD3DXVECTOR3@@XZ ; CGuildHouseSmall::GetEnterPos
PUBLIC	?GetMaxListUpNum@CGuildHouseSmall@@EAEHPAUItemProp@@@Z ; CGuildHouseSmall::GetMaxListUpNum
PUBLIC	?GetUpkeepPenya@CGuildHouseSmall@@EAEHXZ	; CGuildHouseSmall::GetUpkeepPenya
PUBLIC	?IsSetupAble@CGuildHouseSmall@@EAEHPAVCUser@@H@Z ; CGuildHouseSmall::IsSetupAble
PUBLIC	??_GCGuildHouseSmall@@UAEPAXI@Z			; CGuildHouseSmall::`scalar deleting destructor'
PUBLIC	??0CGuildHouseMiddle@@QAE@K@Z			; CGuildHouseMiddle::CGuildHouseMiddle
PUBLIC	??1CGuildHouseMiddle@@UAE@XZ			; CGuildHouseMiddle::~CGuildHouseMiddle
PUBLIC	?GetTeleporterPos@CGuildHouseMiddle@@UAE?AUD3DXVECTOR3@@XZ ; CGuildHouseMiddle::GetTeleporterPos
PUBLIC	?GetRestPointFactor@CGuildHouseMiddle@@UAEMXZ	; CGuildHouseMiddle::GetRestPointFactor
PUBLIC	?GetEnterPos@CGuildHouseMiddle@@EAE?AUD3DXVECTOR3@@XZ ; CGuildHouseMiddle::GetEnterPos
PUBLIC	?GetMaxListUpNum@CGuildHouseMiddle@@EAEHPAUItemProp@@@Z ; CGuildHouseMiddle::GetMaxListUpNum
PUBLIC	?GetUpkeepPenya@CGuildHouseMiddle@@EAEHXZ	; CGuildHouseMiddle::GetUpkeepPenya
PUBLIC	?IsSetupAble@CGuildHouseMiddle@@EAEHPAVCUser@@H@Z ; CGuildHouseMiddle::IsSetupAble
PUBLIC	??_GCGuildHouseMiddle@@UAEPAXI@Z		; CGuildHouseMiddle::`scalar deleting destructor'
PUBLIC	??0CGuildHouseMng@@QAE@XZ			; CGuildHouseMng::CGuildHouseMng
PUBLIC	??1CGuildHouseMng@@QAE@XZ			; CGuildHouseMng::~CGuildHouseMng
PUBLIC	?GetInstance@CGuildHouseMng@@SAPAV1@XZ		; CGuildHouseMng::GetInstance
PUBLIC	?MakeGuildHouse@CGuildHouseMng@@QAEPAVCGuildHouseBase@@KK@Z ; CGuildHouseMng::MakeGuildHouse
PUBLIC	?AddGuildHouse@CGuildHouseMng@@QAEHKPAVCGuildHouseBase@@@Z ; CGuildHouseMng::AddGuildHouse
PUBLIC	?RemoveGuildHouse@CGuildHouseMng@@QAEHK@Z	; CGuildHouseMng::RemoveGuildHouse
PUBLIC	?GetGuildHouse@CGuildHouseMng@@QAEPAVCGuildHouseBase@@K@Z ; CGuildHouseMng::GetGuildHouse
PUBLIC	?Serialize@CGuildHouseMng@@QAEXAAVCAr@@@Z	; CGuildHouseMng::Serialize
PUBLIC	?IsGuildHouse@CGuildHouseMng@@QAEHK@Z		; CGuildHouseMng::IsGuildHouse
PUBLIC	?IsLoginAble@CGuildHouseMng@@QAEHPAVCUser@@KH@Z	; CGuildHouseMng::IsLoginAble
PUBLIC	?EnteranceGuildHouse@CGuildHouseMng@@QAEHPAVCUser@@K@Z ; CGuildHouseMng::EnteranceGuildHouse
PUBLIC	?GoOutGuildHouse@CGuildHouseMng@@QAEXPAVCUser@@@Z ; CGuildHouseMng::GoOutGuildHouse
PUBLIC	?CheckDestroyGuildHouse@CGuildHouseMng@@QAEXPAVCUser@@@Z ; CGuildHouseMng::CheckDestroyGuildHouse
PUBLIC	?ReqBuyGuildHouse@CGuildHouseMng@@QAEXPAVCUser@@@Z ; CGuildHouseMng::ReqBuyGuildHouse
PUBLIC	?OnBuyGuildHouse@CGuildHouseMng@@QAEXAAVCAr@@@Z	; CGuildHouseMng::OnBuyGuildHouse
PUBLIC	?OnRemoveGuildHouse@CGuildHouseMng@@QAEXAAVCAr@@@Z ; CGuildHouseMng::OnRemoveGuildHouse
PUBLIC	?SendWorldToDatabase@CGuildHouseMng@@QAEHPAVCUser@@HAAUGuildHouse_Furniture_Info@CGuildHouseBase@@H@Z ; CGuildHouseMng::SendWorldToDatabase
PUBLIC	?SetApplyDST@CGuildHouseMng@@QAEXPAVCUser@@@Z	; CGuildHouseMng::SetApplyDST
PUBLIC	?ResetApplyDST@CGuildHouseMng@@QAEXPAVCUser@@@Z	; CGuildHouseMng::ResetApplyDST
PUBLIC	?GetRestPointFactor@CGuildHouseMng@@QAEMPAVCUser@@@Z ; CGuildHouseMng::GetRestPointFactor
PUBLIC	?AddRestExpFactorTable@CGuildHouseMng@@QAEXHHM@Z ; CGuildHouseMng::AddRestExpFactorTable
PUBLIC	?GetRestExpFactor@CGuildHouseMng@@QAEMH@Z	; CGuildHouseMng::GetRestExpFactor
PUBLIC	?IsBuyAble@CGuildHouseMng@@AAEHPAVCUser@@@Z	; CGuildHouseMng::IsBuyAble
PUBLIC	??1?$_Tree@V?$_Tmap_traits@HMU?$less@H@std@@V?$allocator@U?$pair@$$CBHM@std@@@2@$0A@@std@@@std@@QAE@XZ ; std::_Tree<std::_Tmap_traits<int,float,std::less<int>,std::allocator<std::pair<int const ,float> >,0> >::~_Tree<std::_Tmap_traits<int,float,std::less<int>,std::allocator<std::pair<int const ,float> >,0> >
PUBLIC	?_Insert_node@?$_Tree_val@U?$_Tree_simple_types@U?$pair@$$CBHM@std@@@std@@@std@@QAEPAU?$_Tree_node@U?$pair@$$CBHM@std@@PAX@2@U?$_Tree_id@PAU?$_Tree_node@U?$pair@$$CBHM@std@@PAX@std@@@2@QAU32@@Z ; std::_Tree_val<std::_Tree_simple_types<std::pair<int const ,float> > >::_Insert_node
PUBLIC	??1?$map@HMU?$less@H@std@@V?$allocator@U?$pair@$$CBHM@std@@@2@@std@@QAE@XZ ; std::map<int,float,std::less<int>,std::allocator<std::pair<int const ,float> > >::~map<int,float,std::less<int>,std::allocator<std::pair<int const ,float> > >
PUBLIC	??1?$_Tree@V?$_Tmap_traits@KPAVCGuildHouseBase@@U?$less@K@std@@V?$allocator@U?$pair@$$CBKPAVCGuildHouseBase@@@std@@@3@$0A@@std@@@std@@QAE@XZ ; std::_Tree<std::_Tmap_traits<unsigned long,CGuildHouseBase *,std::less<unsigned long>,std::allocator<std::pair<unsigned long const ,CGuildHouseBase *> >,0> >::~_Tree<std::_Tmap_traits<unsigned long,CGuildHouseBase *,std::less<unsigned long>,std::allocator<std::pair<unsigned long const ,CGuildHouseBase *> >,0> >
PUBLIC	?clear@?$_Tree@V?$_Tmap_traits@KPAVCGuildHouseBase@@U?$less@K@std@@V?$allocator@U?$pair@$$CBKPAVCGuildHouseBase@@@std@@@3@$0A@@std@@@std@@QAEXXZ ; std::_Tree<std::_Tmap_traits<unsigned long,CGuildHouseBase *,std::less<unsigned long>,std::allocator<std::pair<unsigned long const ,CGuildHouseBase *> >,0> >::clear
PUBLIC	?find@?$_Tree@V?$_Tmap_traits@KPAVCGuildHouseBase@@U?$less@K@std@@V?$allocator@U?$pair@$$CBKPAVCGuildHouseBase@@@std@@@3@$0A@@std@@@std@@QAE?AV?$_Tree_iterator@V?$_Tree_val@U?$_Tree_simple_types@U?$pair@$$CBKPAVCGuildHouseBase@@@std@@@std@@@std@@@2@ABK@Z ; std::_Tree<std::_Tmap_traits<unsigned long,CGuildHouseBase *,std::less<unsigned long>,std::allocator<std::pair<unsigned long const ,CGuildHouseBase *> >,0> >::find
PUBLIC	?_Lrotate@?$_Tree_val@U?$_Tree_simple_types@U?$pair@$$CBKPAVCGuildHouseBase@@@std@@@std@@@std@@QAEXPAU?$_Tree_node@U?$pair@$$CBKPAVCGuildHouseBase@@@std@@PAX@2@@Z ; std::_Tree_val<std::_Tree_simple_types<std::pair<unsigned long const ,CGuildHouseBase *> > >::_Lrotate
PUBLIC	?_Rrotate@?$_Tree_val@U?$_Tree_simple_types@U?$pair@$$CBKPAVCGuildHouseBase@@@std@@@std@@@std@@QAEXPAU?$_Tree_node@U?$pair@$$CBKPAVCGuildHouseBase@@@std@@PAX@2@@Z ; std::_Tree_val<std::_Tree_simple_types<std::pair<unsigned long const ,CGuildHouseBase *> > >::_Rrotate
PUBLIC	?_Extract@?$_Tree_val@U?$_Tree_simple_types@U?$pair@$$CBKPAVCGuildHouseBase@@@std@@@std@@@std@@QAEPAU?$_Tree_node@U?$pair@$$CBKPAVCGuildHouseBase@@@std@@PAX@2@V?$_Tree_unchecked_const_iterator@V?$_Tree_val@U?$_Tree_simple_types@U?$pair@$$CBKPAVCGuildHouseBase@@@std@@@std@@@std@@U_Iterator_base0@2@@2@@Z ; std::_Tree_val<std::_Tree_simple_types<std::pair<unsigned long const ,CGuildHouseBase *> > >::_Extract
PUBLIC	?_Insert_node@?$_Tree_val@U?$_Tree_simple_types@U?$pair@$$CBKPAVCGuildHouseBase@@@std@@@std@@@std@@QAEPAU?$_Tree_node@U?$pair@$$CBKPAVCGuildHouseBase@@@std@@PAX@2@U?$_Tree_id@PAU?$_Tree_node@U?$pair@$$CBKPAVCGuildHouseBase@@@std@@PAX@std@@@2@QAU32@@Z ; std::_Tree_val<std::_Tree_simple_types<std::pair<unsigned long const ,CGuildHouseBase *> > >::_Insert_node
PUBLIC	??E?$_Tree_unchecked_const_iterator@V?$_Tree_val@U?$_Tree_simple_types@U?$pair@$$CBKPAVCGuildHouseBase@@@std@@@std@@@std@@U_Iterator_base0@2@@std@@QAEAAV01@XZ ; std::_Tree_unchecked_const_iterator<std::_Tree_val<std::_Tree_simple_types<std::pair<unsigned long const ,CGuildHouseBase *> > >,std::_Iterator_base0>::operator++
PUBLIC	?IsAuthority@CGuild@@QAEHKH@Z			; CGuild::IsAuthority
PUBLIC	??$?6H@CAr@@QAEAAV0@ABH@Z			; CAr::operator<<<int>
PUBLIC	??$?5H@CAr@@QAEAAV0@AAH@Z			; CAr::operator>><int>
PUBLIC	??$?6I@CAr@@QAEAAV0@ABI@Z			; CAr::operator<<<unsigned int>
PUBLIC	??$?6K@CAr@@QAEAAV0@ABK@Z			; CAr::operator<<<unsigned long>
PUBLIC	??$?6J@CAr@@QAEAAV0@ABJ@Z			; CAr::operator<<<long>
PUBLIC	??$?6UD3DXVECTOR3@@@CAr@@QAEAAV0@ABUD3DXVECTOR3@@@Z ; CAr::operator<<<D3DXVECTOR3>
PUBLIC	??$?6M@CAr@@QAEAAV0@ABM@Z			; CAr::operator<<<float>
PUBLIC	??$?5K@CAr@@QAEAAV0@AAK@Z			; CAr::operator>><unsigned long>
PUBLIC	??$?5J@CAr@@QAEAAV0@AAJ@Z			; CAr::operator>><long>
PUBLIC	??$?5UD3DXVECTOR3@@@CAr@@QAEAAV0@AAUD3DXVECTOR3@@@Z ; CAr::operator>><D3DXVECTOR3>
PUBLIC	??$?5M@CAr@@QAEAAV0@AAM@Z			; CAr::operator>><float>
PUBLIC	??E?$_Tree_iterator@V?$_Tree_val@U?$_Tree_simple_types@U?$pair@$$CBKPAVCGuildMember@@@std@@@std@@@std@@@std@@QAE?AV01@H@Z ; std::_Tree_iterator<std::_Tree_val<std::_Tree_simple_types<std::pair<unsigned long const ,CGuildMember *> > > >::operator++
PUBLIC	??$_Erase_tree@V?$allocator@U?$_Tree_node@U?$pair@$$CBKPAVCGuildHouseBase@@@std@@PAX@std@@@std@@@?$_Tree_val@U?$_Tree_simple_types@U?$pair@$$CBKPAVCGuildHouseBase@@@std@@@std@@@std@@QAEXAAV?$allocator@U?$_Tree_node@U?$pair@$$CBKPAVCGuildHouseBase@@@std@@PAX@std@@@1@PAU?$_Tree_node@U?$pair@$$CBKPAVCGuildHouseBase@@@std@@PAX@1@@Z ; std::_Tree_val<std::_Tree_simple_types<std::pair<unsigned long const ,CGuildHouseBase *> > >::_Erase_tree<std::allocator<std::_Tree_node<std::pair<unsigned long const ,CGuildHouseBase *>,void *> > >
PUBLIC	??$_Find_lower_bound@K@?$_Tree@V?$_Tmap_traits@KPAVCGuildHouseBase@@U?$less@K@std@@V?$allocator@U?$pair@$$CBKPAVCGuildHouseBase@@@std@@@3@$0A@@std@@@std@@IBE?AU?$_Tree_find_result@PAU?$_Tree_node@U?$pair@$$CBKPAVCGuildHouseBase@@@std@@PAX@std@@@1@ABK@Z ; std::_Tree<std::_Tmap_traits<unsigned long,CGuildHouseBase *,std::less<unsigned long>,std::allocator<std::pair<unsigned long const ,CGuildHouseBase *> >,0> >::_Find_lower_bound<unsigned long>
PUBLIC	??$_Find_lower_bound@H@?$_Tree@V?$_Tmap_traits@HMU?$less@H@std@@V?$allocator@U?$pair@$$CBHM@std@@@2@$0A@@std@@@std@@IBE?AU?$_Tree_find_result@PAU?$_Tree_node@U?$pair@$$CBHM@std@@PAX@std@@@1@ABH@Z ; std::_Tree<std::_Tmap_traits<int,float,std::less<int>,std::allocator<std::pair<int const ,float> >,0> >::_Find_lower_bound<int>
PUBLIC	??$_Erase_tree@V?$allocator@U?$_Tree_node@U?$pair@$$CBHM@std@@PAX@std@@@std@@@?$_Tree_val@U?$_Tree_simple_types@U?$pair@$$CBHM@std@@@std@@@std@@QAEXAAV?$allocator@U?$_Tree_node@U?$pair@$$CBHM@std@@PAX@std@@@1@PAU?$_Tree_node@U?$pair@$$CBHM@std@@PAX@1@@Z ; std::_Tree_val<std::_Tree_simple_types<std::pair<int const ,float> > >::_Erase_tree<std::allocator<std::_Tree_node<std::pair<int const ,float>,void *> > >
PUBLIC	??$_Copy_memmove@PAUGuildHouse_Furniture_Info@CGuildHouseBase@@PAU12@@std@@YAPAUGuildHouse_Furniture_Info@CGuildHouseBase@@PAU12@00@Z ; std::_Copy_memmove<CGuildHouseBase::GuildHouse_Furniture_Info *,CGuildHouseBase::GuildHouse_Furniture_Info *>
PUBLIC	??$_Uninitialized_value_construct_n@V?$allocator@UGuildHouse_Furniture_Info@CGuildHouseBase@@@std@@@std@@YAPAUGuildHouse_Furniture_Info@CGuildHouseBase@@PAU12@IAAV?$allocator@UGuildHouse_Furniture_Info@CGuildHouseBase@@@0@@Z ; std::_Uninitialized_value_construct_n<std::allocator<CGuildHouseBase::GuildHouse_Furniture_Info> >
PUBLIC	??1?$_Alloc_construct_ptr@V?$allocator@U?$_Tree_node@U?$pair@$$CBKPAVCGuildHouseBase@@@std@@PAX@std@@@std@@@std@@QAE@XZ ; std::_Alloc_construct_ptr<std::allocator<std::_Tree_node<std::pair<unsigned long const ,CGuildHouseBase *>,void *> > >::~_Alloc_construct_ptr<std::allocator<std::_Tree_node<std::pair<unsigned long const ,CGuildHouseBase *>,void *> > >
PUBLIC	??1?$_Alloc_construct_ptr@V?$allocator@U?$_Tree_node@U?$pair@$$CBHM@std@@PAX@std@@@std@@@std@@QAE@XZ ; std::_Alloc_construct_ptr<std::allocator<std::_Tree_node<std::pair<int const ,float>,void *> > >::~_Alloc_construct_ptr<std::allocator<std::_Tree_node<std::pair<int const ,float>,void *> > >
PUBLIC	??$_Copy_memmove_tail@PAUGuildHouse_Furniture_Info@CGuildHouseBase@@@std@@YAPAUGuildHouse_Furniture_Info@CGuildHouseBase@@QBDQAU12@II@Z ; std::_Copy_memmove_tail<CGuildHouseBase::GuildHouse_Furniture_Info *>
PUBLIC	??_C@_02DPKJAMEF@?$CFd@				; `string'
PUBLIC	??_7exception@std@@6B@				; std::exception::`vftable'
PUBLIC	??_C@_0BC@EOODALEL@Unknown?5exception@		; `string'
PUBLIC	??_7bad_alloc@std@@6B@				; std::bad_alloc::`vftable'
PUBLIC	??_7bad_array_new_length@std@@6B@		; std::bad_array_new_length::`vftable'
PUBLIC	??_C@_0BF@KINCDENJ@bad?5array?5new?5length@	; `string'
PUBLIC	??_R0?AVexception@std@@@8			; std::exception `RTTI Type Descriptor'
PUBLIC	__CT??_R0?AVexception@std@@@8??0exception@std@@QAE@ABV01@@Z12
PUBLIC	__TI3?AVbad_array_new_length@std@@
PUBLIC	__CTA3?AVbad_array_new_length@std@@
PUBLIC	??_R0?AVbad_array_new_length@std@@@8		; std::bad_array_new_length `RTTI Type Descriptor'
PUBLIC	__CT??_R0?AVbad_array_new_length@std@@@8??0bad_array_new_length@std@@QAE@ABV01@@Z12
PUBLIC	??_R0?AVbad_alloc@std@@@8			; std::bad_alloc `RTTI Type Descriptor'
PUBLIC	__CT??_R0?AVbad_alloc@std@@@8??0bad_alloc@std@@QAE@ABV01@@Z12
PUBLIC	??_C@_0BB@GCADKGJO@map?1set?5too?5long@		; `string'
PUBLIC	??_C@_0BM@HMFGHCP@?$CFs?5min?3?$CFd?0?5max?3?$CFd?0?5index?3?$CFd@ ; `string'
PUBLIC	??_C@_0BI@BEIFNGEL@GetItemProp?5range_error@	; `string'
PUBLIC	??_C@_0BA@FOIKENOD@vector?5too?5long@		; `string'
PUBLIC	??_R4exception@std@@6B@				; std::exception::`RTTI Complete Object Locator'
PUBLIC	??_R3exception@std@@8				; std::exception::`RTTI Class Hierarchy Descriptor'
PUBLIC	??_R2exception@std@@8				; std::exception::`RTTI Base Class Array'
PUBLIC	??_R1A@?0A@EA@exception@std@@8			; std::exception::`RTTI Base Class Descriptor at (0,-1,0,64)'
PUBLIC	??_R4bad_array_new_length@std@@6B@		; std::bad_array_new_length::`RTTI Complete Object Locator'
PUBLIC	??_R3bad_array_new_length@std@@8		; std::bad_array_new_length::`RTTI Class Hierarchy Descriptor'
PUBLIC	??_R2bad_array_new_length@std@@8		; std::bad_array_new_length::`RTTI Base Class Array'
PUBLIC	??_R1A@?0A@EA@bad_array_new_length@std@@8	; std::bad_array_new_length::`RTTI Base Class Descriptor at (0,-1,0,64)'
PUBLIC	??_R1A@?0A@EA@bad_alloc@std@@8			; std::bad_alloc::`RTTI Base Class Descriptor at (0,-1,0,64)'
PUBLIC	??_R3bad_alloc@std@@8				; std::bad_alloc::`RTTI Class Hierarchy Descriptor'
PUBLIC	??_R2bad_alloc@std@@8				; std::bad_alloc::`RTTI Base Class Array'
PUBLIC	??_R4bad_alloc@std@@6B@				; std::bad_alloc::`RTTI Complete Object Locator'
PUBLIC	??_7CGuildHouseBase@@6B@			; CGuildHouseBase::`vftable'
PUBLIC	??_7CGuildHouseSmall@@6B@			; CGuildHouseSmall::`vftable'
PUBLIC	??_7CGuildHouseMiddle@@6B@			; CGuildHouseMiddle::`vftable'
PUBLIC	??_C@_0BC@INDAJEGD@GUILDHOUSE_UPKEEP@		; `string'
PUBLIC	??_C@_01INIBCBCB@f@				; `string'
PUBLIC	??_C@_0GD@KMPHJFMB@CGuildHouseBase?3?3AfterFailedGui@ ; `string'
PUBLIC	??_C@_0BJ@LAKLEBJD@GUILDHOUSE_LISTUP_REPAIR@	; `string'
PUBLIC	??_C@_0FL@IBMHGFHG@CGuildHouseBase?3?3AfterFailedGui@ ; `string'
PUBLIC	??_C@_0BJ@JBPCPGM@GUILDHOUSE_UPKEEP_REPAIR@	; `string'
PUBLIC	??_C@_0P@OFOGPKOP@GUILDHOUSE_BUY@		; `string'
PUBLIC	??_C@_0FD@OOPBOGCC@CGuildHouseMng?3?3BuyGuildHouse?5?9@ ; `string'
PUBLIC	??_C@_0EE@LKJJIMIF@CGuildHouseMng?3?3AddRestExpFacto@ ; `string'
PUBLIC	??_R4CGuildHouseBase@@6B@			; CGuildHouseBase::`RTTI Complete Object Locator'
PUBLIC	??_R0?AVCGuildHouseBase@@@8			; CGuildHouseBase `RTTI Type Descriptor'
PUBLIC	??_R3CGuildHouseBase@@8				; CGuildHouseBase::`RTTI Class Hierarchy Descriptor'
PUBLIC	??_R2CGuildHouseBase@@8				; CGuildHouseBase::`RTTI Base Class Array'
PUBLIC	??_R1A@?0A@EA@CGuildHouseBase@@8		; CGuildHouseBase::`RTTI Base Class Descriptor at (0,-1,0,64)'
PUBLIC	??_R4CGuildHouseSmall@@6B@			; CGuildHouseSmall::`RTTI Complete Object Locator'
PUBLIC	??_R0?AVCGuildHouseSmall@@@8			; CGuildHouseSmall `RTTI Type Descriptor'
PUBLIC	??_R3CGuildHouseSmall@@8			; CGuildHouseSmall::`RTTI Class Hierarchy Descriptor'
PUBLIC	??_R2CGuildHouseSmall@@8			; CGuildHouseSmall::`RTTI Base Class Array'
PUBLIC	??_R1A@?0A@EA@CGuildHouseSmall@@8		; CGuildHouseSmall::`RTTI Base Class Descriptor at (0,-1,0,64)'
PUBLIC	??_R4CGuildHouseMiddle@@6B@			; CGuildHouseMiddle::`RTTI Complete Object Locator'
PUBLIC	??_R0?AVCGuildHouseMiddle@@@8			; CGuildHouseMiddle `RTTI Type Descriptor'
PUBLIC	??_R3CGuildHouseMiddle@@8			; CGuildHouseMiddle::`RTTI Class Hierarchy Descriptor'
PUBLIC	??_R2CGuildHouseMiddle@@8			; CGuildHouseMiddle::`RTTI Base Class Array'
PUBLIC	??_R1A@?0A@EA@CGuildHouseMiddle@@8		; CGuildHouseMiddle::`RTTI Base Class Descriptor at (0,-1,0,64)'
PUBLIC	__real@00000000
PUBLIC	__real@3f400000
PUBLIC	__real@3f800000
PUBLIC	__xmm@41f00000000000000000000000000000
EXTRN	__purecall:PROC
EXTRN	??2@YAPAXI@Z:PROC				; operator new
EXTRN	??3@YAXPAXI@Z:PROC				; operator delete
EXTRN	_atexit:PROC
EXTRN	__Init_thread_header:PROC
EXTRN	__Init_thread_abort:PROC
EXTRN	__Init_thread_footer:PROC
EXTRN	__invoke_watson:PROC
EXTRN	__imp__lstrcpyA@8:PROC
EXTRN	___std_exception_copy:PROC
EXTRN	___std_exception_destroy:PROC
EXTRN	??_Eexception@std@@UAEPAXI@Z:PROC		; std::exception::`vector deleting destructor'
EXTRN	??_Ebad_alloc@std@@UAEPAXI@Z:PROC		; std::bad_alloc::`vector deleting destructor'
EXTRN	??_Ebad_array_new_length@std@@UAEPAXI@Z:PROC	; std::bad_array_new_length::`vector deleting destructor'
EXTRN	?_Xlength_error@std@@YAXPBD@Z:PROC		; std::_Xlength_error
EXTRN	?xRandom@@YAKKK@Z:PROC				; xRandom
EXTRN	?Error@@YAPBDPBDZZ:PROC				; Error
EXTRN	?UpdateLocalMatrix@CObj@@QAEXXZ:PROC		; CObj::UpdateLocalMatrix
EXTRN	?Delete@CObj@@QAEXXZ:PROC			; CObj::Delete
EXTRN	?SetPos@CObj@@QAEXABUD3DXVECTOR3@@@Z:PROC	; CObj::SetPos
EXTRN	?SetAngle@CObj@@QAEXM@Z:PROC			; CObj::SetAngle
EXTRN	?GetCtrl@CProject@@QAEPAVCCtrl@@K@Z:PROC	; CProject::GetCtrl
EXTRN	??0CItemElem@@QAE@XZ:PROC			; CItemElem::CItemElem
EXTRN	??1CItemElem@@UAE@XZ:PROC			; CItemElem::~CItemElem
EXTRN	??0CAr@@QAE@PAXI@Z:PROC				; CAr::CAr
EXTRN	??1CAr@@QAE@XZ:PROC				; CAr::~CAr
EXTRN	?CheckBuf@CAr@@QAEXI@Z:PROC			; CAr::CheckBuf
EXTRN	?GetBuffer@CAr@@QAEPAEPAH@Z:PROC		; CAr::GetBuffer
EXTRN	?InitCharacter@CMover@@QAEXPAUtagCHARACTER@@@Z:PROC ; CMover::InitCharacter
EXTRN	?GetCharacter@CMover@@QAEPAUtagCHARACTER@@XZ:PROC ; CMover::GetCharacter
EXTRN	?InitNPCProperty@CMover@@QAEXXZ:PROC		; CMover::InitNPCProperty
EXTRN	?SetDestParam@CMover@@QAEXHPAUItemProp@@H@Z:PROC ; CMover::SetDestParam
EXTRN	?ResetDestParam@CMover@@QAEXHPAUItemProp@@H@Z:PROC ; CMover::ResetDestParam
EXTRN	?AddGold@CMover@@QAEHHH@Z:PROC			; CMover::AddGold
EXTRN	?GetGuild@CMover@@QAEPAVCGuild@@XZ:PROC		; CMover::GetGuild
EXTRN	?CreateItem@CMover@@QAEHPAVCItemBase@@PAEPAFE@Z:PROC ; CMover::CreateItem
EXTRN	?Replace@CMover@@QAEHKKAAUD3DXVECTOR3@@W4REPLACE_TYPE@@H@Z:PROC ; CMover::Replace
EXTRN	?SetMarkingPos@CMover@@QAEXXZ:PROC		; CMover::SetMarkingPos
EXTRN	?GetLinkMap@CLayeredLinkMap@@QAEPAVCLinkMap@@H@Z:PROC ; CLayeredLinkMap::GetLinkMap
EXTRN	?Invalidate@CLayeredLinkMap@@QAEXHH@Z:PROC	; CLayeredLinkMap::Invalidate
EXTRN	?AddObj@CWorld@@QAEHPAVCObj@@HH@Z:PROC		; CWorld::AddObj
EXTRN	?CreateLayer@CWorld@@QAEHH@Z:PROC		; CWorld::CreateLayer
EXTRN	?CreateObj@@YAPAVCObj@@PAUIDirect3DDevice9@@KKH@Z:PROC ; CreateObj
EXTRN	?GetState@CFlyffEvent@@QAEEH@Z:PROC		; CFlyffEvent::GetState
EXTRN	??_ECGuildHouseBase@@UAEPAXI@Z:PROC		; CGuildHouseBase::`vector deleting destructor'
EXTRN	??_ECGuildHouseSmall@@UAEPAXI@Z:PROC		; CGuildHouseSmall::`vector deleting destructor'
EXTRN	??_ECGuildHouseMiddle@@UAEPAXI@Z:PROC		; CGuildHouseMiddle::`vector deleting destructor'
EXTRN	?GetWorld@CWorldMng@@QAEPAVCWorld@@K@Z:PROC	; CWorldMng::GetWorld
EXTRN	?GetMember@CGuild@@QAEPAVCGuildMember@@K@Z:PROC	; CGuild::GetMember
EXTRN	?GetGuild@CGuildMng@@QAEPAVCGuild@@K@Z:PROC	; CGuildMng::GetGuild
EXTRN	?AddDefinedText@CUser@@QAAXHPBDZZ:PROC		; CUser::AddDefinedText
EXTRN	?AddDefinedText@CUser@@QAEXH@Z:PROC		; CUser::AddDefinedText
EXTRN	?AddGuildHousePakcet@CUser@@QAEXHAAUGuildHouse_Furniture_Info@CGuildHouseBase@@H@Z:PROC ; CUser::AddGuildHousePakcet
EXTRN	?AddGuildHouseAllInfo@CUser@@QAEXPAVCGuildHouseBase@@@Z:PROC ; CUser::AddGuildHouseAllInfo
EXTRN	?AddGuildHouseRemvoe@CUser@@QAEXXZ:PROC		; CUser::AddGuildHouseRemvoe
EXTRN	?HasUserSameWorldnLayer@CUserMng@@QAEHPAVCUser@@@Z:PROC ; CUserMng::HasUserSameWorldnLayer
EXTRN	?Send@CDPSock@@QAEHPADKK@Z:PROC			; CDPSock::Send
EXTRN	?PutItemLog@CDPSrvr@@QAEXPAVCUser@@PBD1PAVCItemElem@@H@Z:PROC ; CDPSrvr::PutItemLog
EXTRN	?PutPenyaLog@CDPSrvr@@QAEXPAVCUser@@PBD1H@Z:PROC ; CDPSrvr::PutPenyaLog
EXTRN	?SendLogGuildFurniture@CDPDatabaseClient@@QAEXKAAUGuildHouse_Furniture_Info@CGuildHouseBase@@D@Z:PROC ; CDPDatabaseClient::SendLogGuildFurniture
EXTRN	?GetInstance@CNpcChecker@@SAPAV1@XZ:PROC	; CNpcChecker::GetInstance
EXTRN	?IsCloseNpc@CNpcChecker@@QAEHHPAVCWorld@@AAUD3DXVECTOR3@@@Z:PROC ; CNpcChecker::IsCloseNpc
EXTRN	@__security_check_cookie@4:PROC
EXTRN	__CxxThrowException@8:PROC
EXTRN	___CxxFrameHandler3:PROC
EXTRN	__chkstk:PROC
EXTRN	_memmove:PROC
EXTRN	__Init_thread_epoch:DWORD
EXTRN	??_7type_info@@6B@:QWORD			; type_info::`vftable'
EXTRN	?g_tCurrent@@3JA:DWORD				; g_tCurrent
EXTRN	?prj@@3VCProject@@A:BYTE			; prj
EXTRN	?g_uIdofMulti@@3KA:DWORD			; g_uIdofMulti
EXTRN	?g_eLocal@@3VCFlyffEvent@@A:BYTE		; g_eLocal
EXTRN	?g_WorldMng@@3VCWorldMng@@A:BYTE		; g_WorldMng
EXTRN	?g_GuildMng@@3VCGuildMng@@A:BYTE		; g_GuildMng
EXTRN	?g_UserMng@@3VCUserMng@@A:BYTE			; g_UserMng
EXTRN	?g_DPSrvr@@3VCDPSrvr@@A:BYTE			; g_DPSrvr
EXTRN	?g_dpDBClient@@3VCDPDatabaseClient@@A:BYTE	; g_dpDBClient
EXTRN	___security_cookie:DWORD
EXTRN	__fltused:DWORD
EXTRN	__tls_array:DWORD
EXTRN	__tls_index:DWORD
;	COMDAT ?sGHM@?1??GetInstance@CGuildHouseMng@@SAPAV2@XZ@4V2@A
_BSS	SEGMENT
?sGHM@?1??GetInstance@CGuildHouseMng@@SAPAV2@XZ@4V2@A DB 010H DUP (?) ; `CGuildHouseMng::GetInstance'::`2'::sGHM
_BSS	ENDS
;	COMDAT ?$TSS0@?1??GetInstance@CGuildHouseMng@@SAPAV2@XZ@4HA
_BSS	SEGMENT
?$TSS0@?1??GetInstance@CGuildHouseMng@@SAPAV2@XZ@4HA DD 01H DUP (?) ; `CGuildHouseMng::GetInstance'::`2'::$TSS0
_BSS	ENDS
;	COMDAT __xmm@41f00000000000000000000000000000
CONST	SEGMENT
__xmm@41f00000000000000000000000000000 DB 00H, 00H, 00H, 00H, 00H, 00H, 00H
	DB	00H, 00H, 00H, 00H, 00H, 00H, 00H, 0f0H, 'A'
CONST	ENDS
;	COMDAT __real@3f800000
CONST	SEGMENT
__real@3f800000 DD 03f800000r			; 1
CONST	ENDS
;	COMDAT __real@3f400000
CONST	SEGMENT
__real@3f400000 DD 03f400000r			; 0.75
CONST	ENDS
;	COMDAT __real@00000000
CONST	SEGMENT
__real@00000000 DD 000000000r			; 0
CONST	ENDS
;	COMDAT ??_R1A@?0A@EA@CGuildHouseMiddle@@8
rdata$r	SEGMENT
??_R1A@?0A@EA@CGuildHouseMiddle@@8 DD FLAT:??_R0?AVCGuildHouseMiddle@@@8 ; CGuildHouseMiddle::`RTTI Base Class Descriptor at (0,-1,0,64)'
	DD	01H
	DD	00H
	DD	0ffffffffH
	DD	00H
	DD	040H
	DD	FLAT:??_R3CGuildHouseMiddle@@8
rdata$r	ENDS
;	COMDAT ??_R2CGuildHouseMiddle@@8
rdata$r	SEGMENT
??_R2CGuildHouseMiddle@@8 DD FLAT:??_R1A@?0A@EA@CGuildHouseMiddle@@8 ; CGuildHouseMiddle::`RTTI Base Class Array'
	DD	FLAT:??_R1A@?0A@EA@CGuildHouseBase@@8
rdata$r	ENDS
;	COMDAT ??_R3CGuildHouseMiddle@@8
rdata$r	SEGMENT
??_R3CGuildHouseMiddle@@8 DD 00H			; CGuildHouseMiddle::`RTTI Class Hierarchy Descriptor'
	DD	00H
	DD	02H
	DD	FLAT:??_R2CGuildHouseMiddle@@8
rdata$r	ENDS
;	COMDAT ??_R0?AVCGuildHouseMiddle@@@8
data$rs	SEGMENT
??_R0?AVCGuildHouseMiddle@@@8 DD FLAT:??_7type_info@@6B@ ; CGuildHouseMiddle `RTTI Type Descriptor'
	DD	00H
	DB	'.?AVCGuildHouseMiddle@@', 00H
data$rs	ENDS
;	COMDAT ??_R4CGuildHouseMiddle@@6B@
rdata$r	SEGMENT
??_R4CGuildHouseMiddle@@6B@ DD 00H			; CGuildHouseMiddle::`RTTI Complete Object Locator'
	DD	00H
	DD	00H
	DD	FLAT:??_R0?AVCGuildHouseMiddle@@@8
	DD	FLAT:??_R3CGuildHouseMiddle@@8
rdata$r	ENDS
;	COMDAT ??_R1A@?0A@EA@CGuildHouseSmall@@8
rdata$r	SEGMENT
??_R1A@?0A@EA@CGuildHouseSmall@@8 DD FLAT:??_R0?AVCGuildHouseSmall@@@8 ; CGuildHouseSmall::`RTTI Base Class Descriptor at (0,-1,0,64)'
	DD	01H
	DD	00H
	DD	0ffffffffH
	DD	00H
	DD	040H
	DD	FLAT:??_R3CGuildHouseSmall@@8
rdata$r	ENDS
;	COMDAT ??_R2CGuildHouseSmall@@8
rdata$r	SEGMENT
??_R2CGuildHouseSmall@@8 DD FLAT:??_R1A@?0A@EA@CGuildHouseSmall@@8 ; CGuildHouseSmall::`RTTI Base Class Array'
	DD	FLAT:??_R1A@?0A@EA@CGuildHouseBase@@8
rdata$r	ENDS
;	COMDAT ??_R3CGuildHouseSmall@@8
rdata$r	SEGMENT
??_R3CGuildHouseSmall@@8 DD 00H				; CGuildHouseSmall::`RTTI Class Hierarchy Descriptor'
	DD	00H
	DD	02H
	DD	FLAT:??_R2CGuildHouseSmall@@8
rdata$r	ENDS
;	COMDAT ??_R0?AVCGuildHouseSmall@@@8
data$rs	SEGMENT
??_R0?AVCGuildHouseSmall@@@8 DD FLAT:??_7type_info@@6B@	; CGuildHouseSmall `RTTI Type Descriptor'
	DD	00H
	DB	'.?AVCGuildHouseSmall@@', 00H
data$rs	ENDS
;	COMDAT ??_R4CGuildHouseSmall@@6B@
rdata$r	SEGMENT
??_R4CGuildHouseSmall@@6B@ DD 00H			; CGuildHouseSmall::`RTTI Complete Object Locator'
	DD	00H
	DD	00H
	DD	FLAT:??_R0?AVCGuildHouseSmall@@@8
	DD	FLAT:??_R3CGuildHouseSmall@@8
rdata$r	ENDS
;	COMDAT ??_R1A@?0A@EA@CGuildHouseBase@@8
rdata$r	SEGMENT
??_R1A@?0A@EA@CGuildHouseBase@@8 DD FLAT:??_R0?AVCGuildHouseBase@@@8 ; CGuildHouseBase::`RTTI Base Class Descriptor at (0,-1,0,64)'
	DD	00H
	DD	00H
	DD	0ffffffffH
	DD	00H
	DD	040H
	DD	FLAT:??_R3CGuildHouseBase@@8
rdata$r	ENDS
;	COMDAT ??_R2CGuildHouseBase@@8
rdata$r	SEGMENT
??_R2CGuildHouseBase@@8 DD FLAT:??_R1A@?0A@EA@CGuildHouseBase@@8 ; CGuildHouseBase::`RTTI Base Class Array'
rdata$r	ENDS
;	COMDAT ??_R3CGuildHouseBase@@8
rdata$r	SEGMENT
??_R3CGuildHouseBase@@8 DD 00H				; CGuildHouseBase::`RTTI Class Hierarchy Descriptor'
	DD	00H
	DD	01H
	DD	FLAT:??_R2CGuildHouseBase@@8
rdata$r	ENDS
;	COMDAT ??_R0?AVCGuildHouseBase@@@8
data$rs	SEGMENT
??_R0?AVCGuildHouseBase@@@8 DD FLAT:??_7type_info@@6B@	; CGuildHouseBase `RTTI Type Descriptor'
	DD	00H
	DB	'.?AVCGuildHouseBase@@', 00H
data$rs	ENDS
;	COMDAT ??_R4CGuildHouseBase@@6B@
rdata$r	SEGMENT
??_R4CGuildHouseBase@@6B@ DD 00H			; CGuildHouseBase::`RTTI Complete Object Locator'
	DD	00H
	DD	00H
	DD	FLAT:??_R0?AVCGuildHouseBase@@@8
	DD	FLAT:??_R3CGuildHouseBase@@8
rdata$r	ENDS
;	COMDAT ??_C@_0EE@LKJJIMIF@CGuildHouseMng?3?3AddRestExpFacto@
CONST	SEGMENT
??_C@_0EE@LKJJIMIF@CGuildHouseMng?3?3AddRestExpFacto@ DB 'CGuildHouseMng:'
	DB	':AddRestExpFactorTable() Insert Failed! - [Level:%d]', 00H ; `string'
CONST	ENDS
;	COMDAT ??_C@_0FD@OOPBOGCC@CGuildHouseMng?3?3BuyGuildHouse?5?9@
CONST	SEGMENT
??_C@_0FD@OOPBOGCC@CGuildHouseMng?3?3BuyGuildHouse?5?9@ DB 'CGuildHouseMn'
	DB	'g::BuyGuildHouse - CreateGuildHouse Failed!!! [User:%07d, Gui'
	DB	'ld:%06d]', 00H				; `string'
CONST	ENDS
;	COMDAT ??_C@_0P@OFOGPKOP@GUILDHOUSE_BUY@
CONST	SEGMENT
??_C@_0P@OFOGPKOP@GUILDHOUSE_BUY@ DB 'GUILDHOUSE_BUY', 00H ; `string'
CONST	ENDS
;	COMDAT ??_C@_0BJ@JBPCPGM@GUILDHOUSE_UPKEEP_REPAIR@
CONST	SEGMENT
??_C@_0BJ@JBPCPGM@GUILDHOUSE_UPKEEP_REPAIR@ DB 'GUILDHOUSE_UPKEEP_REPAIR', 00H ; `string'
CONST	ENDS
;	COMDAT ??_C@_0FL@IBMHGFHG@CGuildHouseBase?3?3AfterFailedGui@
CONST	SEGMENT
??_C@_0FL@IBMHGFHG@CGuildHouseBase?3?3AfterFailedGui@ DB 'CGuildHouseBase'
	DB	'::AfterFailedGuildHousePacket() : CreateItem Failed! [User:%d'
	DB	'], [ItemId:%d]', 00H			; `string'
CONST	ENDS
;	COMDAT ??_C@_0BJ@LAKLEBJD@GUILDHOUSE_LISTUP_REPAIR@
CONST	SEGMENT
??_C@_0BJ@LAKLEBJD@GUILDHOUSE_LISTUP_REPAIR@ DB 'GUILDHOUSE_LISTUP_REPAIR'
	DB	00H						; `string'
CONST	ENDS
;	COMDAT ??_C@_0GD@KMPHJFMB@CGuildHouseBase?3?3AfterFailedGui@
CONST	SEGMENT
??_C@_0GD@KMPHJFMB@CGuildHouseBase?3?3AfterFailedGui@ DB 'CGuildHouseBase'
	DB	'::AfterFailedGuildHousePacket() : Invalid User! [Packet:%d], '
	DB	'[User:%d], [ItemId:%d]', 00H		; `string'
CONST	ENDS
;	COMDAT ??_C@_01INIBCBCB@f@
CONST	SEGMENT
??_C@_01INIBCBCB@f@ DB 'f', 00H				; `string'
CONST	ENDS
;	COMDAT ??_C@_0BC@INDAJEGD@GUILDHOUSE_UPKEEP@
CONST	SEGMENT
??_C@_0BC@INDAJEGD@GUILDHOUSE_UPKEEP@ DB 'GUILDHOUSE_UPKEEP', 00H ; `string'
CONST	ENDS
;	COMDAT ??_7CGuildHouseMiddle@@6B@
CONST	SEGMENT
??_7CGuildHouseMiddle@@6B@ DD FLAT:??_R4CGuildHouseMiddle@@6B@ ; CGuildHouseMiddle::`vftable'
	DD	FLAT:??_ECGuildHouseMiddle@@UAEPAXI@Z
	DD	FLAT:?GetRestPointFactor@CGuildHouseMiddle@@UAEMXZ
	DD	FLAT:?GetMaxListUpNum@CGuildHouseMiddle@@EAEHPAUItemProp@@@Z
	DD	FLAT:?GetUpkeepPenya@CGuildHouseMiddle@@EAEHXZ
	DD	FLAT:?GetEnterPos@CGuildHouseMiddle@@EAE?AUD3DXVECTOR3@@XZ
	DD	FLAT:?IsSetupAble@CGuildHouseMiddle@@EAEHPAVCUser@@H@Z
	DD	FLAT:?GetTeleporterPos@CGuildHouseMiddle@@UAE?AUD3DXVECTOR3@@XZ
CONST	ENDS
;	COMDAT ??_7CGuildHouseSmall@@6B@
CONST	SEGMENT
??_7CGuildHouseSmall@@6B@ DD FLAT:??_R4CGuildHouseSmall@@6B@ ; CGuildHouseSmall::`vftable'
	DD	FLAT:??_ECGuildHouseSmall@@UAEPAXI@Z
	DD	FLAT:?GetRestPointFactor@CGuildHouseSmall@@UAEMXZ
	DD	FLAT:?GetMaxListUpNum@CGuildHouseSmall@@EAEHPAUItemProp@@@Z
	DD	FLAT:?GetUpkeepPenya@CGuildHouseSmall@@EAEHXZ
	DD	FLAT:?GetEnterPos@CGuildHouseSmall@@EAE?AUD3DXVECTOR3@@XZ
	DD	FLAT:?IsSetupAble@CGuildHouseSmall@@EAEHPAVCUser@@H@Z
	DD	FLAT:?GetTeleporterPos@CGuildHouseSmall@@UAE?AUD3DXVECTOR3@@XZ
CONST	ENDS
;	COMDAT ??_7CGuildHouseBase@@6B@
CONST	SEGMENT
??_7CGuildHouseBase@@6B@ DD FLAT:??_R4CGuildHouseBase@@6B@ ; CGuildHouseBase::`vftable'
	DD	FLAT:??_ECGuildHouseBase@@UAEPAXI@Z
	DD	FLAT:__purecall
	DD	FLAT:__purecall
	DD	FLAT:__purecall
	DD	FLAT:__purecall
	DD	FLAT:__purecall
	DD	FLAT:__purecall
CONST	ENDS
;	COMDAT ??_R4bad_alloc@std@@6B@
rdata$r	SEGMENT
??_R4bad_alloc@std@@6B@ DD 00H				; std::bad_alloc::`RTTI Complete Object Locator'
	DD	00H
	DD	00H
	DD	FLAT:??_R0?AVbad_alloc@std@@@8
	DD	FLAT:??_R3bad_alloc@std@@8
rdata$r	ENDS
;	COMDAT ??_R2bad_alloc@std@@8
rdata$r	SEGMENT
??_R2bad_alloc@std@@8 DD FLAT:??_R1A@?0A@EA@bad_alloc@std@@8 ; std::bad_alloc::`RTTI Base Class Array'
	DD	FLAT:??_R1A@?0A@EA@exception@std@@8
rdata$r	ENDS
;	COMDAT ??_R3bad_alloc@std@@8
rdata$r	SEGMENT
??_R3bad_alloc@std@@8 DD 00H				; std::bad_alloc::`RTTI Class Hierarchy Descriptor'
	DD	00H
	DD	02H
	DD	FLAT:??_R2bad_alloc@std@@8
rdata$r	ENDS
;	COMDAT ??_R1A@?0A@EA@bad_alloc@std@@8
rdata$r	SEGMENT
??_R1A@?0A@EA@bad_alloc@std@@8 DD FLAT:??_R0?AVbad_alloc@std@@@8 ; std::bad_alloc::`RTTI Base Class Descriptor at (0,-1,0,64)'
	DD	01H
	DD	00H
	DD	0ffffffffH
	DD	00H
	DD	040H
	DD	FLAT:??_R3bad_alloc@std@@8
rdata$r	ENDS
;	COMDAT ??_R1A@?0A@EA@bad_array_new_length@std@@8
rdata$r	SEGMENT
??_R1A@?0A@EA@bad_array_new_length@std@@8 DD FLAT:??_R0?AVbad_array_new_length@std@@@8 ; std::bad_array_new_length::`RTTI Base Class Descriptor at (0,-1,0,64)'
	DD	02H
	DD	00H
	DD	0ffffffffH
	DD	00H
	DD	040H
	DD	FLAT:??_R3bad_array_new_length@std@@8
rdata$r	ENDS
;	COMDAT ??_R2bad_array_new_length@std@@8
rdata$r	SEGMENT
??_R2bad_array_new_length@std@@8 DD FLAT:??_R1A@?0A@EA@bad_array_new_length@std@@8 ; std::bad_array_new_length::`RTTI Base Class Array'
	DD	FLAT:??_R1A@?0A@EA@bad_alloc@std@@8
	DD	FLAT:??_R1A@?0A@EA@exception@std@@8
rdata$r	ENDS
;	COMDAT ??_R3bad_array_new_length@std@@8
rdata$r	SEGMENT
??_R3bad_array_new_length@std@@8 DD 00H			; std::bad_array_new_length::`RTTI Class Hierarchy Descriptor'
	DD	00H
	DD	03H
	DD	FLAT:??_R2bad_array_new_length@std@@8
rdata$r	ENDS
;	COMDAT ??_R4bad_array_new_length@std@@6B@
rdata$r	SEGMENT
??_R4bad_array_new_length@std@@6B@ DD 00H		; std::bad_array_new_length::`RTTI Complete Object Locator'
	DD	00H
	DD	00H
	DD	FLAT:??_R0?AVbad_array_new_length@std@@@8
	DD	FLAT:??_R3bad_array_new_length@std@@8
rdata$r	ENDS
;	COMDAT ??_R1A@?0A@EA@exception@std@@8
rdata$r	SEGMENT
??_R1A@?0A@EA@exception@std@@8 DD FLAT:??_R0?AVexception@std@@@8 ; std::exception::`RTTI Base Class Descriptor at (0,-1,0,64)'
	DD	00H
	DD	00H
	DD	0ffffffffH
	DD	00H
	DD	040H
	DD	FLAT:??_R3exception@std@@8
rdata$r	ENDS
;	COMDAT ??_R2exception@std@@8
rdata$r	SEGMENT
??_R2exception@std@@8 DD FLAT:??_R1A@?0A@EA@exception@std@@8 ; std::exception::`RTTI Base Class Array'
rdata$r	ENDS
;	COMDAT ??_R3exception@std@@8
rdata$r	SEGMENT
??_R3exception@std@@8 DD 00H				; std::exception::`RTTI Class Hierarchy Descriptor'
	DD	00H
	DD	01H
	DD	FLAT:??_R2exception@std@@8
rdata$r	ENDS
;	COMDAT ??_R4exception@std@@6B@
rdata$r	SEGMENT
??_R4exception@std@@6B@ DD 00H				; std::exception::`RTTI Complete Object Locator'
	DD	00H
	DD	00H
	DD	FLAT:??_R0?AVexception@std@@@8
	DD	FLAT:??_R3exception@std@@8
rdata$r	ENDS
;	COMDAT ??_C@_0BA@FOIKENOD@vector?5too?5long@
CONST	SEGMENT
??_C@_0BA@FOIKENOD@vector?5too?5long@ DB 'vector too long', 00H ; `string'
CONST	ENDS
;	COMDAT ??_C@_0BI@BEIFNGEL@GetItemProp?5range_error@
CONST	SEGMENT
??_C@_0BI@BEIFNGEL@GetItemProp?5range_error@ DB 'GetItemProp range_error', 00H ; `string'
CONST	ENDS
;	COMDAT ??_C@_0BM@HMFGHCP@?$CFs?5min?3?$CFd?0?5max?3?$CFd?0?5index?3?$CFd@
CONST	SEGMENT
??_C@_0BM@HMFGHCP@?$CFs?5min?3?$CFd?0?5max?3?$CFd?0?5index?3?$CFd@ DB '%s'
	DB	' min:%d, max:%d, index:%d', 00H		; `string'
CONST	ENDS
;	COMDAT ??_C@_0BB@GCADKGJO@map?1set?5too?5long@
CONST	SEGMENT
??_C@_0BB@GCADKGJO@map?1set?5too?5long@ DB 'map/set too long', 00H ; `string'
CONST	ENDS
;	COMDAT __CT??_R0?AVbad_alloc@std@@@8??0bad_alloc@std@@QAE@ABV01@@Z12
xdata$x	SEGMENT
__CT??_R0?AVbad_alloc@std@@@8??0bad_alloc@std@@QAE@ABV01@@Z12 DD 010H
	DD	FLAT:??_R0?AVbad_alloc@std@@@8
	DD	00H
	DD	0ffffffffH
	ORG $+4
	DD	0cH
	DD	FLAT:??0bad_alloc@std@@QAE@ABV01@@Z
xdata$x	ENDS
;	COMDAT ??_R0?AVbad_alloc@std@@@8
data$r	SEGMENT
??_R0?AVbad_alloc@std@@@8 DD FLAT:??_7type_info@@6B@	; std::bad_alloc `RTTI Type Descriptor'
	DD	00H
	DB	'.?AVbad_alloc@std@@', 00H
data$r	ENDS
;	COMDAT __CT??_R0?AVbad_array_new_length@std@@@8??0bad_array_new_length@std@@QAE@ABV01@@Z12
xdata$x	SEGMENT
__CT??_R0?AVbad_array_new_length@std@@@8??0bad_array_new_length@std@@QAE@ABV01@@Z12 DD 00H
	DD	FLAT:??_R0?AVbad_array_new_length@std@@@8
	DD	00H
	DD	0ffffffffH
	ORG $+4
	DD	0cH
	DD	FLAT:??0bad_array_new_length@std@@QAE@ABV01@@Z
xdata$x	ENDS
;	COMDAT ??_R0?AVbad_array_new_length@std@@@8
data$r	SEGMENT
??_R0?AVbad_array_new_length@std@@@8 DD FLAT:??_7type_info@@6B@ ; std::bad_array_new_length `RTTI Type Descriptor'
	DD	00H
	DB	'.?AVbad_array_new_length@std@@', 00H
data$r	ENDS
;	COMDAT __CTA3?AVbad_array_new_length@std@@
xdata$x	SEGMENT
__CTA3?AVbad_array_new_length@std@@ DD 03H
	DD	FLAT:__CT??_R0?AVbad_array_new_length@std@@@8??0bad_array_new_length@std@@QAE@ABV01@@Z12
	DD	FLAT:__CT??_R0?AVbad_alloc@std@@@8??0bad_alloc@std@@QAE@ABV01@@Z12
	DD	FLAT:__CT??_R0?AVexception@std@@@8??0exception@std@@QAE@ABV01@@Z12
xdata$x	ENDS
;	COMDAT __TI3?AVbad_array_new_length@std@@
xdata$x	SEGMENT
__TI3?AVbad_array_new_length@std@@ DD 00H
	DD	FLAT:??1bad_array_new_length@std@@UAE@XZ
	DD	00H
	DD	FLAT:__CTA3?AVbad_array_new_length@std@@
xdata$x	ENDS
;	COMDAT __CT??_R0?AVexception@std@@@8??0exception@std@@QAE@ABV01@@Z12
xdata$x	SEGMENT
__CT??_R0?AVexception@std@@@8??0exception@std@@QAE@ABV01@@Z12 DD 00H
	DD	FLAT:??_R0?AVexception@std@@@8
	DD	00H
	DD	0ffffffffH
	ORG $+4
	DD	0cH
	DD	FLAT:??0exception@std@@QAE@ABV01@@Z
xdata$x	ENDS
;	COMDAT ??_R0?AVexception@std@@@8
data$r	SEGMENT
??_R0?AVexception@std@@@8 DD FLAT:??_7type_info@@6B@	; std::exception `RTTI Type Descriptor'
	DD	00H
	DB	'.?AVexception@std@@', 00H
data$r	ENDS
;	COMDAT ??_C@_0BF@KINCDENJ@bad?5array?5new?5length@
CONST	SEGMENT
??_C@_0BF@KINCDENJ@bad?5array?5new?5length@ DB 'bad array new length', 00H ; `string'
CONST	ENDS
;	COMDAT ??_7bad_array_new_length@std@@6B@
CONST	SEGMENT
??_7bad_array_new_length@std@@6B@ DD FLAT:??_R4bad_array_new_length@std@@6B@ ; std::bad_array_new_length::`vftable'
	DD	FLAT:??_Ebad_array_new_length@std@@UAEPAXI@Z
	DD	FLAT:?what@exception@std@@UBEPBDXZ
CONST	ENDS
;	COMDAT ??_7bad_alloc@std@@6B@
CONST	SEGMENT
??_7bad_alloc@std@@6B@ DD FLAT:??_R4bad_alloc@std@@6B@	; std::bad_alloc::`vftable'
	DD	FLAT:??_Ebad_alloc@std@@UAEPAXI@Z
	DD	FLAT:?what@exception@std@@UBEPBDXZ
CONST	ENDS
;	COMDAT ??_C@_0BC@EOODALEL@Unknown?5exception@
CONST	SEGMENT
??_C@_0BC@EOODALEL@Unknown?5exception@ DB 'Unknown exception', 00H ; `string'
CONST	ENDS
;	COMDAT ??_7exception@std@@6B@
CONST	SEGMENT
??_7exception@std@@6B@ DD FLAT:??_R4exception@std@@6B@	; std::exception::`vftable'
	DD	FLAT:??_Eexception@std@@UAEPAXI@Z
	DD	FLAT:?what@exception@std@@UBEPBDXZ
CONST	ENDS
;	COMDAT ??_C@_02DPKJAMEF@?$CFd@
CONST	SEGMENT
??_C@_02DPKJAMEF@?$CFd@ DB '%d', 00H			; `string'
CONST	ENDS
;	COMDAT xdata$x
xdata$x	SEGMENT
__unwindtable$??$?0U?$pair@HM@std@@@?$_Tree_temp_node@V?$allocator@U?$_Tree_node@U?$pair@$$CBHM@std@@PAX@std@@@std@@@std@@QAE@AAV?$allocator@U?$_Tree_node@U?$pair@$$CBHM@std@@PAX@std@@@1@PAU?$_Tree_node@U?$pair@$$CBHM@std@@PAX@1@$$QAU?$pair@HM@1@@Z DD 0ffffffffH
	DD	FLAT:__unwindfunclet$??$?0U?$pair@HM@std@@@?$_Tree_temp_node@V?$allocator@U?$_Tree_node@U?$pair@$$CBHM@std@@PAX@std@@@std@@@std@@QAE@AAV?$allocator@U?$_Tree_node@U?$pair@$$CBHM@std@@PAX@std@@@1@PAU?$_Tree_node@U?$pair@$$CBHM@std@@PAX@1@$$QAU?$pair@HM@1@@Z$1
__ehfuncinfo$??$?0U?$pair@HM@std@@@?$_Tree_temp_node@V?$allocator@U?$_Tree_node@U?$pair@$$CBHM@std@@PAX@std@@@std@@@std@@QAE@AAV?$allocator@U?$_Tree_node@U?$pair@$$CBHM@std@@PAX@std@@@1@PAU?$_Tree_node@U?$pair@$$CBHM@std@@PAX@1@$$QAU?$pair@HM@1@@Z DD 019930522H
	DD	01H
	DD	FLAT:__unwindtable$??$?0U?$pair@HM@std@@@?$_Tree_temp_node@V?$allocator@U?$_Tree_node@U?$pair@$$CBHM@std@@PAX@std@@@std@@@std@@QAE@AAV?$allocator@U?$_Tree_node@U?$pair@$$CBHM@std@@PAX@std@@@1@PAU?$_Tree_node@U?$pair@$$CBHM@std@@PAX@1@$$QAU?$pair@HM@1@@Z
	DD	2 DUP(00H)
	DD	2 DUP(00H)
	DD	00H
	DD	01H
xdata$x	ENDS
;	COMDAT xdata$x
xdata$x	SEGMENT
__unwindtable$??0?$_Tree_temp_node_alloc@V?$allocator@U?$_Tree_node@U?$pair@$$CBHM@std@@PAX@std@@@std@@@std@@QAE@AAV?$allocator@U?$_Tree_node@U?$pair@$$CBHM@std@@PAX@std@@@1@@Z DD 0ffffffffH
	DD	FLAT:__unwindfunclet$??0?$_Tree_temp_node_alloc@V?$allocator@U?$_Tree_node@U?$pair@$$CBHM@std@@PAX@std@@@std@@@std@@QAE@AAV?$allocator@U?$_Tree_node@U?$pair@$$CBHM@std@@PAX@std@@@1@@Z$0
__ehfuncinfo$??0?$_Tree_temp_node_alloc@V?$allocator@U?$_Tree_node@U?$pair@$$CBHM@std@@PAX@std@@@std@@@std@@QAE@AAV?$allocator@U?$_Tree_node@U?$pair@$$CBHM@std@@PAX@std@@@1@@Z DD 019930522H
	DD	01H
	DD	FLAT:__unwindtable$??0?$_Tree_temp_node_alloc@V?$allocator@U?$_Tree_node@U?$pair@$$CBHM@std@@PAX@std@@@std@@@std@@QAE@AAV?$allocator@U?$_Tree_node@U?$pair@$$CBHM@std@@PAX@std@@@1@@Z
	DD	2 DUP(00H)
	DD	2 DUP(00H)
	DD	00H
	DD	01H
xdata$x	ENDS
;	COMDAT xdata$x
xdata$x	SEGMENT
__unwindtable$??$?0U?$pair@KPAVCGuildHouseBase@@@std@@@?$_Tree_temp_node@V?$allocator@U?$_Tree_node@U?$pair@$$CBKPAVCGuildHouseBase@@@std@@PAX@std@@@std@@@std@@QAE@AAV?$allocator@U?$_Tree_node@U?$pair@$$CBKPAVCGuildHouseBase@@@std@@PAX@std@@@1@PAU?$_Tree_node@U?$pair@$$CBKPAVCGuildHouseBase@@@std@@PAX@1@$$QAU?$pair@KPAVCGuildHouseBase@@@1@@Z DD 0ffffffffH
	DD	FLAT:__unwindfunclet$??$?0U?$pair@KPAVCGuildHouseBase@@@std@@@?$_Tree_temp_node@V?$allocator@U?$_Tree_node@U?$pair@$$CBKPAVCGuildHouseBase@@@std@@PAX@std@@@std@@@std@@QAE@AAV?$allocator@U?$_Tree_node@U?$pair@$$CBKPAVCGuildHouseBase@@@std@@PAX@std@@@1@PAU?$_Tree_node@U?$pair@$$CBKPAVCGuildHouseBase@@@std@@PAX@1@$$QAU?$pair@KPAVCGuildHouseBase@@@1@@Z$1
__ehfuncinfo$??$?0U?$pair@KPAVCGuildHouseBase@@@std@@@?$_Tree_temp_node@V?$allocator@U?$_Tree_node@U?$pair@$$CBKPAVCGuildHouseBase@@@std@@PAX@std@@@std@@@std@@QAE@AAV?$allocator@U?$_Tree_node@U?$pair@$$CBKPAVCGuildHouseBase@@@std@@PAX@std@@@1@PAU?$_Tree_node@U?$pair@$$CBKPAVCGuildHouseBase@@@std@@PAX@1@$$QAU?$pair@KPAVCGuildHouseBase@@@1@@Z DD 019930522H
	DD	01H
	DD	FLAT:__unwindtable$??$?0U?$pair@KPAVCGuildHouseBase@@@std@@@?$_Tree_temp_node@V?$allocator@U?$_Tree_node@U?$pair@$$CBKPAVCGuildHouseBase@@@std@@PAX@std@@@std@@@std@@QAE@AAV?$allocator@U?$_Tree_node@U?$pair@$$CBKPAVCGuildHouseBase@@@std@@PAX@std@@@1@PAU?$_Tree_node@U?$pair@$$CBKPAVCGuildHouseBase@@@std@@PAX@1@$$QAU?$pair@KPAVCGuildHouseBase@@@1@@Z
	DD	2 DUP(00H)
	DD	2 DUP(00H)
	DD	00H
	DD	01H
xdata$x	ENDS
;	COMDAT xdata$x
xdata$x	SEGMENT
__unwindtable$??0?$_Tree_temp_node_alloc@V?$allocator@U?$_Tree_node@U?$pair@$$CBKPAVCGuildHouseBase@@@std@@PAX@std@@@std@@@std@@QAE@AAV?$allocator@U?$_Tree_node@U?$pair@$$CBKPAVCGuildHouseBase@@@std@@PAX@std@@@1@@Z DD 0ffffffffH
	DD	FLAT:__unwindfunclet$??0?$_Tree_temp_node_alloc@V?$allocator@U?$_Tree_node@U?$pair@$$CBKPAVCGuildHouseBase@@@std@@PAX@std@@@std@@@std@@QAE@AAV?$allocator@U?$_Tree_node@U?$pair@$$CBKPAVCGuildHouseBase@@@std@@PAX@std@@@1@@Z$0
__ehfuncinfo$??0?$_Tree_temp_node_alloc@V?$allocator@U?$_Tree_node@U?$pair@$$CBKPAVCGuildHouseBase@@@std@@PAX@std@@@std@@@std@@QAE@AAV?$allocator@U?$_Tree_node@U?$pair@$$CBKPAVCGuildHouseBase@@@std@@PAX@std@@@1@@Z DD 019930522H
	DD	01H
	DD	FLAT:__unwindtable$??0?$_Tree_temp_node_alloc@V?$allocator@U?$_Tree_node@U?$pair@$$CBKPAVCGuildHouseBase@@@std@@PAX@std@@@std@@@std@@QAE@AAV?$allocator@U?$_Tree_node@U?$pair@$$CBKPAVCGuildHouseBase@@@std@@PAX@std@@@1@@Z
	DD	2 DUP(00H)
	DD	2 DUP(00H)
	DD	00H
	DD	01H
xdata$x	ENDS
;	COMDAT xdata$x
xdata$x	SEGMENT
__unwindtable$??$_Emplace@U?$pair@HM@std@@@?$_Tree@V?$_Tmap_traits@HMU?$less@H@std@@V?$allocator@U?$pair@$$CBHM@std@@@2@$0A@@std@@@std@@IAE?AU?$pair@PAU?$_Tree_node@U?$pair@$$CBHM@std@@PAX@std@@_N@1@$$QAU?$pair@HM@1@@Z DD 0ffffffffH
	DD	FLAT:__unwindfunclet$??$_Emplace@U?$pair@HM@std@@@?$_Tree@V?$_Tmap_traits@HMU?$less@H@std@@V?$allocator@U?$pair@$$CBHM@std@@@2@$0A@@std@@@std@@IAE?AU?$pair@PAU?$_Tree_node@U?$pair@$$CBHM@std@@PAX@std@@_N@1@$$QAU?$pair@HM@1@@Z$2
__ehfuncinfo$??$_Emplace@U?$pair@HM@std@@@?$_Tree@V?$_Tmap_traits@HMU?$less@H@std@@V?$allocator@U?$pair@$$CBHM@std@@@2@$0A@@std@@@std@@IAE?AU?$pair@PAU?$_Tree_node@U?$pair@$$CBHM@std@@PAX@std@@_N@1@$$QAU?$pair@HM@1@@Z DD 019930522H
	DD	01H
	DD	FLAT:__unwindtable$??$_Emplace@U?$pair@HM@std@@@?$_Tree@V?$_Tmap_traits@HMU?$less@H@std@@V?$allocator@U?$pair@$$CBHM@std@@@2@$0A@@std@@@std@@IAE?AU?$pair@PAU?$_Tree_node@U?$pair@$$CBHM@std@@PAX@std@@_N@1@$$QAU?$pair@HM@1@@Z
	DD	2 DUP(00H)
	DD	2 DUP(00H)
	DD	00H
	DD	01H
xdata$x	ENDS
;	COMDAT xdata$x
xdata$x	SEGMENT
__unwindtable$??$_Emplace@U?$pair@KPAVCGuildHouseBase@@@std@@@?$_Tree@V?$_Tmap_traits@KPAVCGuildHouseBase@@U?$less@K@std@@V?$allocator@U?$pair@$$CBKPAVCGuildHouseBase@@@std@@@3@$0A@@std@@@std@@IAE?AU?$pair@PAU?$_Tree_node@U?$pair@$$CBKPAVCGuildHouseBase@@@std@@PAX@std@@_N@1@$$QAU?$pair@KPAVCGuildHouseBase@@@1@@Z DD 0ffffffffH
	DD	FLAT:__unwindfunclet$??$_Emplace@U?$pair@KPAVCGuildHouseBase@@@std@@@?$_Tree@V?$_Tmap_traits@KPAVCGuildHouseBase@@U?$less@K@std@@V?$allocator@U?$pair@$$CBKPAVCGuildHouseBase@@@std@@@3@$0A@@std@@@std@@IAE?AU?$pair@PAU?$_Tree_node@U?$pair@$$CBKPAVCGuildHouseBase@@@std@@PAX@std@@_N@1@$$QAU?$pair@KPAVCGuildHouseBase@@@1@@Z$2
__ehfuncinfo$??$_Emplace@U?$pair@KPAVCGuildHouseBase@@@std@@@?$_Tree@V?$_Tmap_traits@KPAVCGuildHouseBase@@U?$less@K@std@@V?$allocator@U?$pair@$$CBKPAVCGuildHouseBase@@@std@@@3@$0A@@std@@@std@@IAE?AU?$pair@PAU?$_Tree_node@U?$pair@$$CBKPAVCGuildHouseBase@@@std@@PAX@std@@_N@1@$$QAU?$pair@KPAVCGuildHouseBase@@@1@@Z DD 019930522H
	DD	01H
	DD	FLAT:__unwindtable$??$_Emplace@U?$pair@KPAVCGuildHouseBase@@@std@@@?$_Tree@V?$_Tmap_traits@KPAVCGuildHouseBase@@U?$less@K@std@@V?$allocator@U?$pair@$$CBKPAVCGuildHouseBase@@@std@@@3@$0A@@std@@@std@@IAE?AU?$pair@PAU?$_Tree_node@U?$pair@$$CBKPAVCGuildHouseBase@@@std@@PAX@std@@_N@1@$$QAU?$pair@KPAVCGuildHouseBase@@@1@@Z
	DD	2 DUP(00H)
	DD	2 DUP(00H)
	DD	00H
	DD	01H
xdata$x	ENDS
;	COMDAT xdata$x
xdata$x	SEGMENT
__unwindtable$??$emplace@U?$pair@HM@std@@@?$_Tree@V?$_Tmap_traits@HMU?$less@H@std@@V?$allocator@U?$pair@$$CBHM@std@@@2@$0A@@std@@@std@@QAE?AU?$pair@V?$_Tree_iterator@V?$_Tree_val@U?$_Tree_simple_types@U?$pair@$$CBHM@std@@@std@@@std@@@std@@_N@1@$$QAU?$pair@HM@1@@Z DD 0ffffffffH
	DD	FLAT:__unwindfunclet$??$emplace@U?$pair@HM@std@@@?$_Tree@V?$_Tmap_traits@HMU?$less@H@std@@V?$allocator@U?$pair@$$CBHM@std@@@2@$0A@@std@@@std@@QAE?AU?$pair@V?$_Tree_iterator@V?$_Tree_val@U?$_Tree_simple_types@U?$pair@$$CBHM@std@@@std@@@std@@@std@@_N@1@$$QAU?$pair@HM@1@@Z$2
__ehfuncinfo$??$emplace@U?$pair@HM@std@@@?$_Tree@V?$_Tmap_traits@HMU?$less@H@std@@V?$allocator@U?$pair@$$CBHM@std@@@2@$0A@@std@@@std@@QAE?AU?$pair@V?$_Tree_iterator@V?$_Tree_val@U?$_Tree_simple_types@U?$pair@$$CBHM@std@@@std@@@std@@@std@@_N@1@$$QAU?$pair@HM@1@@Z DD 019930522H
	DD	01H
	DD	FLAT:__unwindtable$??$emplace@U?$pair@HM@std@@@?$_Tree@V?$_Tmap_traits@HMU?$less@H@std@@V?$allocator@U?$pair@$$CBHM@std@@@2@$0A@@std@@@std@@QAE?AU?$pair@V?$_Tree_iterator@V?$_Tree_val@U?$_Tree_simple_types@U?$pair@$$CBHM@std@@@std@@@std@@@std@@_N@1@$$QAU?$pair@HM@1@@Z
	DD	2 DUP(00H)
	DD	2 DUP(00H)
	DD	00H
	DD	01H
xdata$x	ENDS
;	COMDAT xdata$x
xdata$x	SEGMENT
__unwindtable$??$emplace@U?$pair@KPAVCGuildHouseBase@@@std@@@?$_Tree@V?$_Tmap_traits@KPAVCGuildHouseBase@@U?$less@K@std@@V?$allocator@U?$pair@$$CBKPAVCGuildHouseBase@@@std@@@3@$0A@@std@@@std@@QAE?AU?$pair@V?$_Tree_iterator@V?$_Tree_val@U?$_Tree_simple_types@U?$pair@$$CBKPAVCGuildHouseBase@@@std@@@std@@@std@@@std@@_N@1@$$QAU?$pair@KPAVCGuildHouseBase@@@1@@Z DD 0ffffffffH
	DD	FLAT:__unwindfunclet$??$emplace@U?$pair@KPAVCGuildHouseBase@@@std@@@?$_Tree@V?$_Tmap_traits@KPAVCGuildHouseBase@@U?$less@K@std@@V?$allocator@U?$pair@$$CBKPAVCGuildHouseBase@@@std@@@3@$0A@@std@@@std@@QAE?AU?$pair@V?$_Tree_iterator@V?$_Tree_val@U?$_Tree_simple_types@U?$pair@$$CBKPAVCGuildHouseBase@@@std@@@std@@@std@@@std@@_N@1@$$QAU?$pair@KPAVCGuildHouseBase@@@1@@Z$2
__ehfuncinfo$??$emplace@U?$pair@KPAVCGuildHouseBase@@@std@@@?$_Tree@V?$_Tmap_traits@KPAVCGuildHouseBase@@U?$less@K@std@@V?$allocator@U?$pair@$$CBKPAVCGuildHouseBase@@@std@@@3@$0A@@std@@@std@@QAE?AU?$pair@V?$_Tree_iterator@V?$_Tree_val@U?$_Tree_simple_types@U?$pair@$$CBKPAVCGuildHouseBase@@@std@@@std@@@std@@@std@@_N@1@$$QAU?$pair@KPAVCGuildHouseBase@@@1@@Z DD 019930522H
	DD	01H
	DD	FLAT:__unwindtable$??$emplace@U?$pair@KPAVCGuildHouseBase@@@std@@@?$_Tree@V?$_Tmap_traits@KPAVCGuildHouseBase@@U?$less@K@std@@V?$allocator@U?$pair@$$CBKPAVCGuildHouseBase@@@std@@@3@$0A@@std@@@std@@QAE?AU?$pair@V?$_Tree_iterator@V?$_Tree_val@U?$_Tree_simple_types@U?$pair@$$CBKPAVCGuildHouseBase@@@std@@@std@@@std@@@std@@_N@1@$$QAU?$pair@KPAVCGuildHouseBase@@@1@@Z
	DD	2 DUP(00H)
	DD	2 DUP(00H)
	DD	00H
	DD	01H
xdata$x	ENDS
;	COMDAT xdata$x
xdata$x	SEGMENT
__unwindtable$??$insert@U?$pair@HM@std@@$0A@@?$map@HMU?$less@H@std@@V?$allocator@U?$pair@$$CBHM@std@@@2@@std@@QAE?AU?$pair@V?$_Tree_iterator@V?$_Tree_val@U?$_Tree_simple_types@U?$pair@$$CBHM@std@@@std@@@std@@@std@@_N@1@$$QAU?$pair@HM@1@@Z DD 0ffffffffH
	DD	FLAT:__unwindfunclet$??$insert@U?$pair@HM@std@@$0A@@?$map@HMU?$less@H@std@@V?$allocator@U?$pair@$$CBHM@std@@@2@@std@@QAE?AU?$pair@V?$_Tree_iterator@V?$_Tree_val@U?$_Tree_simple_types@U?$pair@$$CBHM@std@@@std@@@std@@@std@@_N@1@$$QAU?$pair@HM@1@@Z$2
__ehfuncinfo$??$insert@U?$pair@HM@std@@$0A@@?$map@HMU?$less@H@std@@V?$allocator@U?$pair@$$CBHM@std@@@2@@std@@QAE?AU?$pair@V?$_Tree_iterator@V?$_Tree_val@U?$_Tree_simple_types@U?$pair@$$CBHM@std@@@std@@@std@@@std@@_N@1@$$QAU?$pair@HM@1@@Z DD 019930522H
	DD	01H
	DD	FLAT:__unwindtable$??$insert@U?$pair@HM@std@@$0A@@?$map@HMU?$less@H@std@@V?$allocator@U?$pair@$$CBHM@std@@@2@@std@@QAE?AU?$pair@V?$_Tree_iterator@V?$_Tree_val@U?$_Tree_simple_types@U?$pair@$$CBHM@std@@@std@@@std@@@std@@_N@1@$$QAU?$pair@HM@1@@Z
	DD	2 DUP(00H)
	DD	2 DUP(00H)
	DD	00H
	DD	01H
xdata$x	ENDS
;	COMDAT xdata$x
xdata$x	SEGMENT
__unwindtable$??$insert@U?$pair@KPAVCGuildHouseBase@@@std@@$0A@@?$map@KPAVCGuildHouseBase@@U?$less@K@std@@V?$allocator@U?$pair@$$CBKPAVCGuildHouseBase@@@std@@@3@@std@@QAE?AU?$pair@V?$_Tree_iterator@V?$_Tree_val@U?$_Tree_simple_types@U?$pair@$$CBKPAVCGuildHouseBase@@@std@@@std@@@std@@@std@@_N@1@$$QAU?$pair@KPAVCGuildHouseBase@@@1@@Z DD 0ffffffffH
	DD	FLAT:__unwindfunclet$??$insert@U?$pair@KPAVCGuildHouseBase@@@std@@$0A@@?$map@KPAVCGuildHouseBase@@U?$less@K@std@@V?$allocator@U?$pair@$$CBKPAVCGuildHouseBase@@@std@@@3@@std@@QAE?AU?$pair@V?$_Tree_iterator@V?$_Tree_val@U?$_Tree_simple_types@U?$pair@$$CBKPAVCGuildHouseBase@@@std@@@std@@@std@@@std@@_N@1@$$QAU?$pair@KPAVCGuildHouseBase@@@1@@Z$2
__ehfuncinfo$??$insert@U?$pair@KPAVCGuildHouseBase@@@std@@$0A@@?$map@KPAVCGuildHouseBase@@U?$less@K@std@@V?$allocator@U?$pair@$$CBKPAVCGuildHouseBase@@@std@@@3@@std@@QAE?AU?$pair@V?$_Tree_iterator@V?$_Tree_val@U?$_Tree_simple_types@U?$pair@$$CBKPAVCGuildHouseBase@@@std@@@std@@@std@@@std@@_N@1@$$QAU?$pair@KPAVCGuildHouseBase@@@1@@Z DD 019930522H
	DD	01H
	DD	FLAT:__unwindtable$??$insert@U?$pair@KPAVCGuildHouseBase@@@std@@$0A@@?$map@KPAVCGuildHouseBase@@U?$less@K@std@@V?$allocator@U?$pair@$$CBKPAVCGuildHouseBase@@@std@@@3@@std@@QAE?AU?$pair@V?$_Tree_iterator@V?$_Tree_val@U?$_Tree_simple_types@U?$pair@$$CBKPAVCGuildHouseBase@@@std@@@std@@@std@@@std@@_N@1@$$QAU?$pair@KPAVCGuildHouseBase@@@1@@Z
	DD	2 DUP(00H)
	DD	2 DUP(00H)
	DD	00H
	DD	01H
xdata$x	ENDS
;	COMDAT xdata$x
xdata$x	SEGMENT
__unwindtable$?AddRestExpFactorTable@CGuildHouseMng@@QAEXHHM@Z DD 0ffffffffH
	DD	FLAT:__unwindfunclet$?AddRestExpFactorTable@CGuildHouseMng@@QAEXHHM@Z$2
__ehfuncinfo$?AddRestExpFactorTable@CGuildHouseMng@@QAEXHHM@Z DD 019930522H
	DD	01H
	DD	FLAT:__unwindtable$?AddRestExpFactorTable@CGuildHouseMng@@QAEXHHM@Z
	DD	2 DUP(00H)
	DD	2 DUP(00H)
	DD	00H
	DD	01H
xdata$x	ENDS
;	COMDAT xdata$x
xdata$x	SEGMENT
__unwindtable$?OnBuyGuildHouse@CGuildHouseMng@@QAEXAAVCAr@@@Z DD 0ffffffffH
	DD	FLAT:__unwindfunclet$?OnBuyGuildHouse@CGuildHouseMng@@QAEXAAVCAr@@@Z$0
__ehfuncinfo$?OnBuyGuildHouse@CGuildHouseMng@@QAEXAAVCAr@@@Z DD 019930522H
	DD	01H
	DD	FLAT:__unwindtable$?OnBuyGuildHouse@CGuildHouseMng@@QAEXAAVCAr@@@Z
	DD	2 DUP(00H)
	DD	2 DUP(00H)
	DD	00H
	DD	01H
xdata$x	ENDS
;	COMDAT xdata$x
xdata$x	SEGMENT
__unwindtable$?ReqBuyGuildHouse@CGuildHouseMng@@QAEXPAVCUser@@@Z DD 0ffffffffH
	DD	FLAT:__unwindfunclet$?ReqBuyGuildHouse@CGuildHouseMng@@QAEXPAVCUser@@@Z$0
__ehfuncinfo$?ReqBuyGuildHouse@CGuildHouseMng@@QAEXPAVCUser@@@Z DD 019930522H
	DD	01H
	DD	FLAT:__unwindtable$?ReqBuyGuildHouse@CGuildHouseMng@@QAEXPAVCUser@@@Z
	DD	2 DUP(00H)
	DD	2 DUP(00H)
	DD	00H
	DD	01H
xdata$x	ENDS
;	COMDAT xdata$x
xdata$x	SEGMENT
__unwindtable$?Serialize@CGuildHouseMng@@QAEXAAVCAr@@@Z DD 0ffffffffH
	DD	FLAT:__unwindfunclet$?Serialize@CGuildHouseMng@@QAEXAAVCAr@@@Z$3
	DD	0ffffffffH
	DD	FLAT:__unwindfunclet$?Serialize@CGuildHouseMng@@QAEXAAVCAr@@@Z$0
__ehfuncinfo$?Serialize@CGuildHouseMng@@QAEXAAVCAr@@@Z DD 019930522H
	DD	02H
	DD	FLAT:__unwindtable$?Serialize@CGuildHouseMng@@QAEXAAVCAr@@@Z
	DD	2 DUP(00H)
	DD	2 DUP(00H)
	DD	00H
	DD	01H
xdata$x	ENDS
;	COMDAT xdata$x
xdata$x	SEGMENT
__unwindtable$?AddGuildHouse@CGuildHouseMng@@QAEHKPAVCGuildHouseBase@@@Z DD 0ffffffffH
	DD	FLAT:__unwindfunclet$?AddGuildHouse@CGuildHouseMng@@QAEHKPAVCGuildHouseBase@@@Z$2
__ehfuncinfo$?AddGuildHouse@CGuildHouseMng@@QAEHKPAVCGuildHouseBase@@@Z DD 019930522H
	DD	01H
	DD	FLAT:__unwindtable$?AddGuildHouse@CGuildHouseMng@@QAEHKPAVCGuildHouseBase@@@Z
	DD	2 DUP(00H)
	DD	2 DUP(00H)
	DD	00H
	DD	01H
xdata$x	ENDS
;	COMDAT xdata$x
xdata$x	SEGMENT
__unwindtable$?GetInstance@CGuildHouseMng@@SAPAV1@XZ DD 0ffffffffH
	DD	FLAT:__unwindfunclet$?GetInstance@CGuildHouseMng@@SAPAV1@XZ$0
__ehfuncinfo$?GetInstance@CGuildHouseMng@@SAPAV1@XZ DD 019930522H
	DD	01H
	DD	FLAT:__unwindtable$?GetInstance@CGuildHouseMng@@SAPAV1@XZ
	DD	2 DUP(00H)
	DD	2 DUP(00H)
	DD	00H
	DD	01H
xdata$x	ENDS
;	COMDAT xdata$x
xdata$x	SEGMENT
__unwindtable$??0CGuildHouseMng@@QAE@XZ DD 0ffffffffH
	DD	FLAT:__unwindfunclet$??0CGuildHouseMng@@QAE@XZ$0
__ehfuncinfo$??0CGuildHouseMng@@QAE@XZ DD 019930522H
	DD	01H
	DD	FLAT:__unwindtable$??0CGuildHouseMng@@QAE@XZ
	DD	2 DUP(00H)
	DD	2 DUP(00H)
	DD	00H
	DD	01H
xdata$x	ENDS
;	COMDAT xdata$x
xdata$x	SEGMENT
__unwindtable$?SendWorldToDatabase@CGuildHouseBase@@QAEHPAVCUser@@HAAUGuildHouse_Furniture_Info@1@H@Z DD 0ffffffffH
	DD	FLAT:__unwindfunclet$?SendWorldToDatabase@CGuildHouseBase@@QAEHPAVCUser@@HAAUGuildHouse_Furniture_Info@1@H@Z$0
__ehfuncinfo$?SendWorldToDatabase@CGuildHouseBase@@QAEHPAVCUser@@HAAUGuildHouse_Furniture_Info@1@H@Z DD 019930522H
	DD	01H
	DD	FLAT:__unwindtable$?SendWorldToDatabase@CGuildHouseBase@@QAEHPAVCUser@@HAAUGuildHouse_Furniture_Info@1@H@Z
	DD	2 DUP(00H)
	DD	2 DUP(00H)
	DD	00H
	DD	01H
xdata$x	ENDS
;	COMDAT xdata$x
xdata$x	SEGMENT
__unwindtable$?AfterFailedGuildHousePacket@CGuildHouseBase@@QAEXHAAUGuildHouse_Furniture_Info@1@H@Z DD 0ffffffffH
	DD	FLAT:__unwindfunclet$?AfterFailedGuildHousePacket@CGuildHouseBase@@QAEXHAAUGuildHouse_Furniture_Info@1@H@Z$0
__ehfuncinfo$?AfterFailedGuildHousePacket@CGuildHouseBase@@QAEXHAAUGuildHouse_Furniture_Info@1@H@Z DD 019930522H
	DD	01H
	DD	FLAT:__unwindtable$?AfterFailedGuildHousePacket@CGuildHouseBase@@QAEXHAAUGuildHouse_Furniture_Info@1@H@Z
	DD	2 DUP(00H)
	DD	2 DUP(00H)
	DD	00H
	DD	01H
xdata$x	ENDS
;	COMDAT xdata$x
xdata$x	SEGMENT
__ehfuncinfo$??1CGuildHouseBase@@UAE@XZ DD 019930522H
	DD	00H
	DD	00H
	DD	2 DUP(00H)
	DD	2 DUP(00H)
	DD	00H
	DD	05H
xdata$x	ENDS
; Function compile flags: /Ogtp
; File C:\Program Files\Microsoft Visual Studio\2022\Professional\VC\Tools\MSVC\14.44.35207\include\xutility
;	COMDAT ??$_Copy_memmove_tail@PAUGuildHouse_Furniture_Info@CGuildHouseBase@@@std@@YAPAUGuildHouse_Furniture_Info@CGuildHouseBase@@QBDQAU12@II@Z
_TEXT	SEGMENT
__First_ch$ = 8						; size = 4
__Dest$ = 12						; size = 4
__Byte_count$ = 16					; size = 4
__Object_count$ = 20					; size = 4
??$_Copy_memmove_tail@PAUGuildHouse_Furniture_Info@CGuildHouseBase@@@std@@YAPAUGuildHouse_Furniture_Info@CGuildHouseBase@@QBDQAU12@II@Z PROC ; std::_Copy_memmove_tail<CGuildHouseBase::GuildHouse_Furniture_Info *>, COMDAT

; 4747 :     const char* const _First_ch, const _OutCtgIt _Dest, const size_t _Byte_count, const size_t _Object_count) {

  00000	55		 push	 ebp
  00001	8b ec		 mov	 ebp, esp
  00003	56		 push	 esi

; 4748 :     _STL_INTERNAL_CHECK(_Byte_count == _Object_count * sizeof(*_Dest));
; 4749 :     const auto _Dest_ptr = _STD _To_address(_Dest);
; 4750 :     const auto _Dest_ch  = const_cast<char*>(reinterpret_cast<const volatile char*>(_Dest_ptr));
; 4751 :     _CSTD memmove(_Dest_ch, _First_ch, _Byte_count);

  00004	8b 75 0c	 mov	 esi, DWORD PTR __Dest$[ebp]
  00007	57		 push	 edi
  00008	8b 7d 10	 mov	 edi, DWORD PTR __Byte_count$[ebp]
  0000b	57		 push	 edi
  0000c	ff 75 08	 push	 DWORD PTR __First_ch$[ebp]
  0000f	56		 push	 esi
  00010	e8 00 00 00 00	 call	 _memmove
  00015	83 c4 0c	 add	 esp, 12			; 0000000cH

; 4752 :     if constexpr (is_pointer_v<_OutCtgIt>) {
; 4753 :         (void) _Object_count;
; 4754 :         // CodeQL [SM02986] This cast is correct: we're bypassing pointer arithmetic for performance.
; 4755 :         return reinterpret_cast<_OutCtgIt>(_Dest_ch + _Byte_count);

  00018	8d 04 3e	 lea	 eax, DWORD PTR [esi+edi]
  0001b	5f		 pop	 edi
  0001c	5e		 pop	 esi

; 4756 :     } else {
; 4757 :         return _Dest + static_cast<_Iter_diff_t<_OutCtgIt>>(_Object_count);
; 4758 :     }
; 4759 : }

  0001d	5d		 pop	 ebp
  0001e	c3		 ret	 0
??$_Copy_memmove_tail@PAUGuildHouse_Furniture_Info@CGuildHouseBase@@@std@@YAPAUGuildHouse_Furniture_Info@CGuildHouseBase@@QBDQAU12@II@Z ENDP ; std::_Copy_memmove_tail<CGuildHouseBase::GuildHouse_Furniture_Info *>
_TEXT	ENDS
; Function compile flags: /Ogtp
; File C:\Program Files\Microsoft Visual Studio\2022\Professional\VC\Tools\MSVC\14.44.35207\include\xmemory
;	COMDAT ??1?$_Alloc_construct_ptr@V?$allocator@U?$_Tree_node@U?$pair@$$CBHM@std@@PAX@std@@@std@@@std@@QAE@XZ
_TEXT	SEGMENT
??1?$_Alloc_construct_ptr@V?$allocator@U?$_Tree_node@U?$pair@$$CBHM@std@@PAX@std@@@std@@@std@@QAE@XZ PROC ; std::_Alloc_construct_ptr<std::allocator<std::_Tree_node<std::pair<int const ,float>,void *> > >::~_Alloc_construct_ptr<std::allocator<std::_Tree_node<std::pair<int const ,float>,void *> > >, COMDAT
; _this$ = ecx

; 1172 :         if (_Ptr) {

  00000	8b 41 04	 mov	 eax, DWORD PTR [ecx+4]
  00003	85 c0		 test	 eax, eax
  00005	74 0b		 je	 SHORT $LN10@Alloc_cons

; 289  :         ::operator delete(_Ptr, _Bytes);

  00007	6a 18		 push	 24			; 00000018H
  00009	50		 push	 eax
  0000a	e8 00 00 00 00	 call	 ??3@YAXPAXI@Z		; operator delete
  0000f	83 c4 08	 add	 esp, 8
$LN10@Alloc_cons:

; 1173 :             _Al.deallocate(_Ptr, 1);
; 1174 :         }
; 1175 :     }

  00012	c3		 ret	 0
??1?$_Alloc_construct_ptr@V?$allocator@U?$_Tree_node@U?$pair@$$CBHM@std@@PAX@std@@@std@@@std@@QAE@XZ ENDP ; std::_Alloc_construct_ptr<std::allocator<std::_Tree_node<std::pair<int const ,float>,void *> > >::~_Alloc_construct_ptr<std::allocator<std::_Tree_node<std::pair<int const ,float>,void *> > >
_TEXT	ENDS
; Function compile flags: /Ogtp
; File C:\Program Files\Microsoft Visual Studio\2022\Professional\VC\Tools\MSVC\14.44.35207\include\xmemory
;	COMDAT ??1?$_Alloc_construct_ptr@V?$allocator@U?$_Tree_node@U?$pair@$$CBKPAVCGuildHouseBase@@@std@@PAX@std@@@std@@@std@@QAE@XZ
_TEXT	SEGMENT
??1?$_Alloc_construct_ptr@V?$allocator@U?$_Tree_node@U?$pair@$$CBKPAVCGuildHouseBase@@@std@@PAX@std@@@std@@@std@@QAE@XZ PROC ; std::_Alloc_construct_ptr<std::allocator<std::_Tree_node<std::pair<unsigned long const ,CGuildHouseBase *>,void *> > >::~_Alloc_construct_ptr<std::allocator<std::_Tree_node<std::pair<unsigned long const ,CGuildHouseBase *>,void *> > >, COMDAT
; _this$ = ecx

; 1172 :         if (_Ptr) {

  00000	8b 41 04	 mov	 eax, DWORD PTR [ecx+4]
  00003	85 c0		 test	 eax, eax
  00005	74 0b		 je	 SHORT $LN10@Alloc_cons

; 289  :         ::operator delete(_Ptr, _Bytes);

  00007	6a 18		 push	 24			; 00000018H
  00009	50		 push	 eax
  0000a	e8 00 00 00 00	 call	 ??3@YAXPAXI@Z		; operator delete
  0000f	83 c4 08	 add	 esp, 8
$LN10@Alloc_cons:

; 1173 :             _Al.deallocate(_Ptr, 1);
; 1174 :         }
; 1175 :     }

  00012	c3		 ret	 0
??1?$_Alloc_construct_ptr@V?$allocator@U?$_Tree_node@U?$pair@$$CBKPAVCGuildHouseBase@@@std@@PAX@std@@@std@@@std@@QAE@XZ ENDP ; std::_Alloc_construct_ptr<std::allocator<std::_Tree_node<std::pair<unsigned long const ,CGuildHouseBase *>,void *> > >::~_Alloc_construct_ptr<std::allocator<std::_Tree_node<std::pair<unsigned long const ,CGuildHouseBase *>,void *> > >
_TEXT	ENDS
; Function compile flags: /Ogtp
; File C:\Program Files\Microsoft Visual Studio\2022\Professional\VC\Tools\MSVC\14.44.35207\include\xmemory
; File C:\IAGOS\server\v18\Source\Source\DX_SDK\d3dx9math.inl
; File C:\Program Files\Microsoft Visual Studio\2022\Professional\VC\Tools\MSVC\14.44.35207\include\xmemory
;	COMDAT ??$_Uninitialized_value_construct_n@V?$allocator@UGuildHouse_Furniture_Info@CGuildHouseBase@@@std@@@std@@YAPAUGuildHouse_Furniture_Info@CGuildHouseBase@@PAU12@IAAV?$allocator@UGuildHouse_Furniture_Info@CGuildHouseBase@@@0@@Z
_TEXT	SEGMENT
$T1 = -12						; size = 12
__First$ = 8						; size = 4
__Count$ = 12						; size = 4
__Al$ = 16						; size = 4
??$_Uninitialized_value_construct_n@V?$allocator@UGuildHouse_Furniture_Info@CGuildHouseBase@@@std@@@std@@YAPAUGuildHouse_Furniture_Info@CGuildHouseBase@@PAU12@IAAV?$allocator@UGuildHouse_Furniture_Info@CGuildHouseBase@@@0@@Z PROC ; std::_Uninitialized_value_construct_n<std::allocator<CGuildHouseBase::GuildHouse_Furniture_Info> >, COMDAT

; 2078 :     _Alloc_ptr_t<_Alloc> _First, _Alloc_size_t<_Alloc> _Count, _Alloc& _Al) {

  00000	55		 push	 ebp
  00001	8b ec		 mov	 ebp, esp
  00003	83 ec 0c	 sub	 esp, 12			; 0000000cH
  00006	53		 push	 ebx
  00007	56		 push	 esi

; 1833 :     _CONSTEXPR20 _Uninitialized_backout_al(pointer _Dest, _Alloc& _Al_) : _First(_Dest), _Last(_Dest), _Al(_Al_) {}

  00008	8b 75 08	 mov	 esi, DWORD PTR __First$[ebp]

; 2078 :     _Alloc_ptr_t<_Alloc> _First, _Alloc_size_t<_Alloc> _Count, _Alloc& _Al) {

  0000b	57		 push	 edi

; 2079 :     // value-initialize _Count objects to raw _First, using _Al
; 2080 :     using _Ptrty = typename _Alloc::value_type*;
; 2081 :     if constexpr (_Use_memset_value_construct_v<_Ptrty> && _Uses_default_construct<_Alloc, _Ptrty>::value) {
; 2082 : #if _HAS_CXX20
; 2083 :         if (!_STD is_constant_evaluated())
; 2084 : #endif // _HAS_CXX20
; 2085 :         {
; 2086 :             auto _PFirst = _Unfancy(_First);
; 2087 :             _Zero_range(_PFirst, _PFirst + _Count);
; 2088 :             return _First + _Count;
; 2089 :         }
; 2090 :     }
; 2091 : 
; 2092 :     _Uninitialized_backout_al<_Alloc> _Backout{_First, _Al};
; 2093 :     for (; 0 < _Count; --_Count) {

  0000c	8b 7d 0c	 mov	 edi, DWORD PTR __Count$[ebp]
  0000f	85 ff		 test	 edi, edi
  00011	74 4b		 je	 SHORT $LN20@Uninitiali
; File C:\IAGOS\server\v18\Source\Source\DX_SDK\d3dx9math.inl

; 302  :     z = fz;

  00013	c7 45 fc 00 00
	00 00		 mov	 DWORD PTR $T1[ebp+8], 0
  0001a	8b 5d fc	 mov	 ebx, DWORD PTR $T1[ebp+8]
  0001d	c7 45 f4 00 00
	00 00		 mov	 DWORD PTR $T1[ebp], 0
  00024	c7 45 f8 00 00
	00 00		 mov	 DWORD PTR $T1[ebp+4], 0
  0002b	0f 1f 44 00 00	 npad	 5
$LL4@Uninitiali:
; File C:\Program Files\Microsoft Visual Studio\2022\Professional\VC\Tools\MSVC\14.44.35207\include\xmemory

; 732  :         ::new (const_cast<void*>(static_cast<const volatile void*>(_Ptr))) _Objty(_STD forward<_Types>(_Args)...);

  00030	f3 0f 7e 45 f4	 movq	 xmm0, QWORD PTR $T1[ebp]
  00035	8b ce		 mov	 ecx, esi
  00037	6a 00		 push	 0
  00039	83 ec 10	 sub	 esp, 16			; 00000010H
  0003c	8b c4		 mov	 eax, esp
  0003e	c7 44 24 0c 00
	00 00 00	 mov	 DWORD PTR [esp+12], 0
  00046	6a 00		 push	 0
  00048	66 0f d6 00	 movq	 QWORD PTR [eax], xmm0
  0004c	6a ff		 push	 -1
  0004e	89 58 08	 mov	 DWORD PTR [eax+8], ebx
  00051	e8 00 00 00 00	 call	 ??0GuildHouse_Furniture_Info@CGuildHouseBase@@QAE@KHUD3DXVECTOR3@@MJ@Z ; CGuildHouseBase::GuildHouse_Furniture_Info::GuildHouse_Furniture_Info

; 1845 :         ++_Last;

  00056	83 c6 20	 add	 esi, 32			; 00000020H

; 2079 :     // value-initialize _Count objects to raw _First, using _Al
; 2080 :     using _Ptrty = typename _Alloc::value_type*;
; 2081 :     if constexpr (_Use_memset_value_construct_v<_Ptrty> && _Uses_default_construct<_Alloc, _Ptrty>::value) {
; 2082 : #if _HAS_CXX20
; 2083 :         if (!_STD is_constant_evaluated())
; 2084 : #endif // _HAS_CXX20
; 2085 :         {
; 2086 :             auto _PFirst = _Unfancy(_First);
; 2087 :             _Zero_range(_PFirst, _PFirst + _Count);
; 2088 :             return _First + _Count;
; 2089 :         }
; 2090 :     }
; 2091 : 
; 2092 :     _Uninitialized_backout_al<_Alloc> _Backout{_First, _Al};
; 2093 :     for (; 0 < _Count; --_Count) {

  00059	83 ef 01	 sub	 edi, 1
  0005c	75 d2		 jne	 SHORT $LL4@Uninitiali
$LN20@Uninitiali:

; 2094 :         _Backout._Emplace_back();
; 2095 :     }
; 2096 : 
; 2097 :     return _Backout._Release();
; 2098 : }

  0005e	5f		 pop	 edi
  0005f	8b c6		 mov	 eax, esi
  00061	5e		 pop	 esi
  00062	5b		 pop	 ebx
  00063	8b e5		 mov	 esp, ebp
  00065	5d		 pop	 ebp
  00066	c3		 ret	 0
??$_Uninitialized_value_construct_n@V?$allocator@UGuildHouse_Furniture_Info@CGuildHouseBase@@@std@@@std@@YAPAUGuildHouse_Furniture_Info@CGuildHouseBase@@PAU12@IAAV?$allocator@UGuildHouse_Furniture_Info@CGuildHouseBase@@@0@@Z ENDP ; std::_Uninitialized_value_construct_n<std::allocator<CGuildHouseBase::GuildHouse_Furniture_Info> >
_TEXT	ENDS
; Function compile flags: /Ogtp
; File C:\Program Files\Microsoft Visual Studio\2022\Professional\VC\Tools\MSVC\14.44.35207\include\xutility
;	COMDAT ??$_Copy_memmove@PAUGuildHouse_Furniture_Info@CGuildHouseBase@@PAU12@@std@@YAPAUGuildHouse_Furniture_Info@CGuildHouseBase@@PAU12@00@Z
_TEXT	SEGMENT
__First$ = 8						; size = 4
__Last$ = 12						; size = 4
__Dest$ = 16						; size = 4
??$_Copy_memmove@PAUGuildHouse_Furniture_Info@CGuildHouseBase@@PAU12@@std@@YAPAUGuildHouse_Furniture_Info@CGuildHouseBase@@PAU12@00@Z PROC ; std::_Copy_memmove<CGuildHouseBase::GuildHouse_Furniture_Info *,CGuildHouseBase::GuildHouse_Furniture_Info *>, COMDAT

; 4762 : _OutCtgIt _Copy_memmove(_CtgIt _First, _CtgIt _Last, _OutCtgIt _Dest) {

  00000	55		 push	 ebp
  00001	8b ec		 mov	 ebp, esp

; 4763 :     _STL_INTERNAL_CHECK(_First <= _Last);
; 4764 :     const auto _First_ptr    = _STD _To_address(_First);
; 4765 :     const auto _Last_ptr     = _STD _To_address(_Last);
; 4766 :     const auto _Object_count = static_cast<size_t>(_Last_ptr - _First_ptr);

  00003	8b 55 08	 mov	 edx, DWORD PTR __First$[ebp]
  00006	8b 4d 0c	 mov	 ecx, DWORD PTR __Last$[ebp]
  00009	2b ca		 sub	 ecx, edx
  0000b	8b c1		 mov	 eax, ecx
  0000d	c1 f8 05	 sar	 eax, 5

; 4767 :     const auto _First_ch     = const_cast<const char*>(reinterpret_cast<const volatile char*>(_First_ptr));
; 4768 :     const auto _Last_ch      = const_cast<const char*>(reinterpret_cast<const volatile char*>(_Last_ptr));
; 4769 :     const auto _Byte_count   = static_cast<size_t>(_Last_ch - _First_ch);
; 4770 :     return _STD _Copy_memmove_tail(_First_ch, _STD move(_Dest), _Byte_count, _Object_count);

  00010	50		 push	 eax
  00011	51		 push	 ecx
  00012	ff 75 10	 push	 DWORD PTR __Dest$[ebp]
  00015	52		 push	 edx
  00016	e8 00 00 00 00	 call	 ??$_Copy_memmove_tail@PAUGuildHouse_Furniture_Info@CGuildHouseBase@@@std@@YAPAUGuildHouse_Furniture_Info@CGuildHouseBase@@QBDQAU12@II@Z ; std::_Copy_memmove_tail<CGuildHouseBase::GuildHouse_Furniture_Info *>
  0001b	83 c4 10	 add	 esp, 16			; 00000010H

; 4771 : }

  0001e	5d		 pop	 ebp
  0001f	c3		 ret	 0
??$_Copy_memmove@PAUGuildHouse_Furniture_Info@CGuildHouseBase@@PAU12@@std@@YAPAUGuildHouse_Furniture_Info@CGuildHouseBase@@PAU12@00@Z ENDP ; std::_Copy_memmove<CGuildHouseBase::GuildHouse_Furniture_Info *,CGuildHouseBase::GuildHouse_Furniture_Info *>
_TEXT	ENDS
; Function compile flags: /Ogtp
; File C:\Program Files\Microsoft Visual Studio\2022\Professional\VC\Tools\MSVC\14.44.35207\include\xtree
; File C:\Program Files\Microsoft Visual Studio\2022\Professional\VC\Tools\MSVC\14.44.35207\include\utility
; File C:\Program Files\Microsoft Visual Studio\2022\Professional\VC\Tools\MSVC\14.44.35207\include\xmemory
; File C:\Program Files\Microsoft Visual Studio\2022\Professional\VC\Tools\MSVC\14.44.35207\include\xtree
;	COMDAT ??$_Erase_tree@V?$allocator@U?$_Tree_node@U?$pair@$$CBHM@std@@PAX@std@@@std@@@?$_Tree_val@U?$_Tree_simple_types@U?$pair@$$CBHM@std@@@std@@@std@@QAEXAAV?$allocator@U?$_Tree_node@U?$pair@$$CBHM@std@@PAX@std@@@1@PAU?$_Tree_node@U?$pair@$$CBHM@std@@PAX@1@@Z
_TEXT	SEGMENT
__Al$ = 8						; size = 4
__Rootnode$ = 12					; size = 4
??$_Erase_tree@V?$allocator@U?$_Tree_node@U?$pair@$$CBHM@std@@PAX@std@@@std@@@?$_Tree_val@U?$_Tree_simple_types@U?$pair@$$CBHM@std@@@std@@@std@@QAEXAAV?$allocator@U?$_Tree_node@U?$pair@$$CBHM@std@@PAX@std@@@1@PAU?$_Tree_node@U?$pair@$$CBHM@std@@PAX@1@@Z PROC ; std::_Tree_val<std::_Tree_simple_types<std::pair<int const ,float> > >::_Erase_tree<std::allocator<std::_Tree_node<std::pair<int const ,float>,void *> > >, COMDAT
; _this$ = ecx

; 767  :     void _Erase_tree(_Alnode& _Al, _Nodeptr _Rootnode) noexcept {

  00000	55		 push	 ebp
  00001	8b ec		 mov	 ebp, esp
  00003	53		 push	 ebx
  00004	56		 push	 esi

; 768  :         while (!_Rootnode->_Isnil) { // free subtrees, then node

  00005	8b 75 0c	 mov	 esi, DWORD PTR __Rootnode$[ebp]
  00008	8b d9		 mov	 ebx, ecx
  0000a	80 7e 0d 00	 cmp	 BYTE PTR [esi+13], 0
  0000e	75 25		 jne	 SHORT $LN34@Erase_tree
  00010	57		 push	 edi
  00011	8b 7d 08	 mov	 edi, DWORD PTR __Al$[ebp]
$LL2@Erase_tree:

; 769  :             _Erase_tree(_Al, _Rootnode->_Right);

  00014	ff 76 08	 push	 DWORD PTR [esi+8]
  00017	8b cb		 mov	 ecx, ebx
  00019	57		 push	 edi
  0001a	e8 00 00 00 00	 call	 ??$_Erase_tree@V?$allocator@U?$_Tree_node@U?$pair@$$CBHM@std@@PAX@std@@@std@@@?$_Tree_val@U?$_Tree_simple_types@U?$pair@$$CBHM@std@@@std@@@std@@QAEXAAV?$allocator@U?$_Tree_node@U?$pair@$$CBHM@std@@PAX@std@@@1@PAU?$_Tree_node@U?$pair@$$CBHM@std@@PAX@1@@Z ; std::_Tree_val<std::_Tree_simple_types<std::pair<int const ,float> > >::_Erase_tree<std::allocator<std::_Tree_node<std::pair<int const ,float>,void *> > >
; File C:\Program Files\Microsoft Visual Studio\2022\Professional\VC\Tools\MSVC\14.44.35207\include\utility

; 773  :     _Ty _Old_val = static_cast<_Ty&&>(_Val);

  0001f	8b c6		 mov	 eax, esi

; 774  :     _Val         = static_cast<_Other&&>(_New_val);

  00021	8b 36		 mov	 esi, DWORD PTR [esi]
; File C:\Program Files\Microsoft Visual Studio\2022\Professional\VC\Tools\MSVC\14.44.35207\include\xmemory

; 289  :         ::operator delete(_Ptr, _Bytes);

  00023	6a 18		 push	 24			; 00000018H
  00025	50		 push	 eax
  00026	e8 00 00 00 00	 call	 ??3@YAXPAXI@Z		; operator delete
  0002b	83 c4 08	 add	 esp, 8
; File C:\Program Files\Microsoft Visual Studio\2022\Professional\VC\Tools\MSVC\14.44.35207\include\xtree

; 768  :         while (!_Rootnode->_Isnil) { // free subtrees, then node

  0002e	80 7e 0d 00	 cmp	 BYTE PTR [esi+13], 0
  00032	74 e0		 je	 SHORT $LL2@Erase_tree
  00034	5f		 pop	 edi
$LN34@Erase_tree:
  00035	5e		 pop	 esi

; 770  :             _Alnode::value_type::_Freenode(_Al, _STD exchange(_Rootnode, _Rootnode->_Left));
; 771  :         }
; 772  :     }

  00036	5b		 pop	 ebx
  00037	5d		 pop	 ebp
  00038	c2 08 00	 ret	 8
??$_Erase_tree@V?$allocator@U?$_Tree_node@U?$pair@$$CBHM@std@@PAX@std@@@std@@@?$_Tree_val@U?$_Tree_simple_types@U?$pair@$$CBHM@std@@@std@@@std@@QAEXAAV?$allocator@U?$_Tree_node@U?$pair@$$CBHM@std@@PAX@std@@@1@PAU?$_Tree_node@U?$pair@$$CBHM@std@@PAX@1@@Z ENDP ; std::_Tree_val<std::_Tree_simple_types<std::pair<int const ,float> > >::_Erase_tree<std::allocator<std::_Tree_node<std::pair<int const ,float>,void *> > >
_TEXT	ENDS
; Function compile flags: /Ogtp
; File C:\Program Files\Microsoft Visual Studio\2022\Professional\VC\Tools\MSVC\14.44.35207\include\xtree
; File C:\Program Files\Microsoft Visual Studio\2022\Professional\VC\Tools\MSVC\14.44.35207\include\type_traits
; File C:\Program Files\Microsoft Visual Studio\2022\Professional\VC\Tools\MSVC\14.44.35207\include\xtree
; File C:\Program Files\Microsoft Visual Studio\2022\Professional\VC\Tools\MSVC\14.44.35207\include\type_traits
; File C:\Program Files\Microsoft Visual Studio\2022\Professional\VC\Tools\MSVC\14.44.35207\include\xtree
;	COMDAT ??$_Find_lower_bound@H@?$_Tree@V?$_Tmap_traits@HMU?$less@H@std@@V?$allocator@U?$pair@$$CBHM@std@@@2@$0A@@std@@@std@@IBE?AU?$_Tree_find_result@PAU?$_Tree_node@U?$pair@$$CBHM@std@@PAX@std@@@1@ABH@Z
_TEXT	SEGMENT
___$ReturnUdt$ = 8					; size = 4
__Keyval$ = 12						; size = 4
??$_Find_lower_bound@H@?$_Tree@V?$_Tmap_traits@HMU?$less@H@std@@V?$allocator@U?$pair@$$CBHM@std@@@2@$0A@@std@@@std@@IBE?AU?$_Tree_find_result@PAU?$_Tree_node@U?$pair@$$CBHM@std@@PAX@std@@@1@ABH@Z PROC ; std::_Tree<std::_Tmap_traits<int,float,std::less<int>,std::allocator<std::pair<int const ,float> >,0> >::_Find_lower_bound<int>, COMDAT
; _this$ = ecx

; 1628 :     _Tree_find_result<_Nodeptr> _Find_lower_bound(const _Keyty& _Keyval) const {

  00000	55		 push	 ebp
  00001	8b ec		 mov	 ebp, esp

; 1629 :         const auto _Scary = _Get_scary();
; 1630 :         _Tree_find_result<_Nodeptr> _Result{{_Scary->_Myhead->_Parent, _Tree_child::_Right}, _Scary->_Myhead};

  00003	8b 09		 mov	 ecx, DWORD PTR [ecx]
  00005	8b 55 08	 mov	 edx, DWORD PTR ___$ReturnUdt$[ebp]
  00008	8b 41 04	 mov	 eax, DWORD PTR [ecx+4]
  0000b	89 02		 mov	 DWORD PTR [edx], eax
  0000d	c7 42 04 00 00
	00 00		 mov	 DWORD PTR [edx+4], 0
  00014	89 4a 08	 mov	 DWORD PTR [edx+8], ecx

; 1631 :         _Nodeptr _Trynode = _Result._Location._Parent;
; 1632 :         while (!_Trynode->_Isnil) {

  00017	80 78 0d 00	 cmp	 BYTE PTR [eax+13], 0
  0001b	75 28		 jne	 SHORT $LN13@Find_lower
; File C:\Program Files\Microsoft Visual Studio\2022\Professional\VC\Tools\MSVC\14.44.35207\include\type_traits

; 2380 :         return _Left < _Right;

  0001d	8b 4d 0c	 mov	 ecx, DWORD PTR __Keyval$[ebp]
  00020	56		 push	 esi
  00021	8b 31		 mov	 esi, DWORD PTR [ecx]
$LL2@Find_lower:
; File C:\Program Files\Microsoft Visual Studio\2022\Professional\VC\Tools\MSVC\14.44.35207\include\xtree

; 1633 :             _Result._Location._Parent = _Trynode;

  00023	89 02		 mov	 DWORD PTR [edx], eax
; File C:\Program Files\Microsoft Visual Studio\2022\Professional\VC\Tools\MSVC\14.44.35207\include\type_traits

; 2380 :         return _Left < _Right;

  00025	39 70 10	 cmp	 DWORD PTR [eax+16], esi
; File C:\Program Files\Microsoft Visual Studio\2022\Professional\VC\Tools\MSVC\14.44.35207\include\xtree

; 1634 :             if (_DEBUG_LT_PRED(_Getcomp(), _Traits::_Kfn(_Trynode->_Myval), _Keyval)) {

  00028	7d 07		 jge	 SHORT $LN4@Find_lower

; 1635 :                 _Result._Location._Child = _Tree_child::_Right;
; 1636 :                 _Trynode                 = _Trynode->_Right;

  0002a	8b 40 08	 mov	 eax, DWORD PTR [eax+8]
  0002d	33 c9		 xor	 ecx, ecx

; 1637 :             } else {

  0002f	eb 0a		 jmp	 SHORT $LN5@Find_lower
$LN4@Find_lower:

; 1638 :                 _Result._Location._Child = _Tree_child::_Left;
; 1639 :                 _Result._Bound           = _Trynode;

  00031	89 42 08	 mov	 DWORD PTR [edx+8], eax

; 1640 :                 _Trynode                 = _Trynode->_Left;

  00034	b9 01 00 00 00	 mov	 ecx, 1
  00039	8b 00		 mov	 eax, DWORD PTR [eax]
$LN5@Find_lower:

; 1631 :         _Nodeptr _Trynode = _Result._Location._Parent;
; 1632 :         while (!_Trynode->_Isnil) {

  0003b	89 4a 04	 mov	 DWORD PTR [edx+4], ecx
  0003e	80 78 0d 00	 cmp	 BYTE PTR [eax+13], 0
  00042	74 df		 je	 SHORT $LL2@Find_lower
  00044	5e		 pop	 esi
$LN13@Find_lower:

; 1641 :             }
; 1642 :         }
; 1643 : 
; 1644 :         return _Result;
; 1645 :     }

  00045	8b c2		 mov	 eax, edx
  00047	5d		 pop	 ebp
  00048	c2 08 00	 ret	 8
??$_Find_lower_bound@H@?$_Tree@V?$_Tmap_traits@HMU?$less@H@std@@V?$allocator@U?$pair@$$CBHM@std@@@2@$0A@@std@@@std@@IBE?AU?$_Tree_find_result@PAU?$_Tree_node@U?$pair@$$CBHM@std@@PAX@std@@@1@ABH@Z ENDP ; std::_Tree<std::_Tmap_traits<int,float,std::less<int>,std::allocator<std::pair<int const ,float> >,0> >::_Find_lower_bound<int>
_TEXT	ENDS
; Function compile flags: /Ogtp
; File C:\Program Files\Microsoft Visual Studio\2022\Professional\VC\Tools\MSVC\14.44.35207\include\xtree
; File C:\Program Files\Microsoft Visual Studio\2022\Professional\VC\Tools\MSVC\14.44.35207\include\type_traits
; File C:\Program Files\Microsoft Visual Studio\2022\Professional\VC\Tools\MSVC\14.44.35207\include\xtree
; File C:\Program Files\Microsoft Visual Studio\2022\Professional\VC\Tools\MSVC\14.44.35207\include\type_traits
; File C:\Program Files\Microsoft Visual Studio\2022\Professional\VC\Tools\MSVC\14.44.35207\include\xtree
;	COMDAT ??$_Find_lower_bound@K@?$_Tree@V?$_Tmap_traits@KPAVCGuildHouseBase@@U?$less@K@std@@V?$allocator@U?$pair@$$CBKPAVCGuildHouseBase@@@std@@@3@$0A@@std@@@std@@IBE?AU?$_Tree_find_result@PAU?$_Tree_node@U?$pair@$$CBKPAVCGuildHouseBase@@@std@@PAX@std@@@1@ABK@Z
_TEXT	SEGMENT
___$ReturnUdt$ = 8					; size = 4
__Keyval$ = 12						; size = 4
??$_Find_lower_bound@K@?$_Tree@V?$_Tmap_traits@KPAVCGuildHouseBase@@U?$less@K@std@@V?$allocator@U?$pair@$$CBKPAVCGuildHouseBase@@@std@@@3@$0A@@std@@@std@@IBE?AU?$_Tree_find_result@PAU?$_Tree_node@U?$pair@$$CBKPAVCGuildHouseBase@@@std@@PAX@std@@@1@ABK@Z PROC ; std::_Tree<std::_Tmap_traits<unsigned long,CGuildHouseBase *,std::less<unsigned long>,std::allocator<std::pair<unsigned long const ,CGuildHouseBase *> >,0> >::_Find_lower_bound<unsigned long>, COMDAT
; _this$ = ecx

; 1628 :     _Tree_find_result<_Nodeptr> _Find_lower_bound(const _Keyty& _Keyval) const {

  00000	55		 push	 ebp
  00001	8b ec		 mov	 ebp, esp

; 1629 :         const auto _Scary = _Get_scary();
; 1630 :         _Tree_find_result<_Nodeptr> _Result{{_Scary->_Myhead->_Parent, _Tree_child::_Right}, _Scary->_Myhead};

  00003	8b 09		 mov	 ecx, DWORD PTR [ecx]
  00005	8b 55 08	 mov	 edx, DWORD PTR ___$ReturnUdt$[ebp]
  00008	8b 41 04	 mov	 eax, DWORD PTR [ecx+4]
  0000b	89 02		 mov	 DWORD PTR [edx], eax
  0000d	c7 42 04 00 00
	00 00		 mov	 DWORD PTR [edx+4], 0
  00014	89 4a 08	 mov	 DWORD PTR [edx+8], ecx

; 1631 :         _Nodeptr _Trynode = _Result._Location._Parent;
; 1632 :         while (!_Trynode->_Isnil) {

  00017	80 78 0d 00	 cmp	 BYTE PTR [eax+13], 0
  0001b	75 28		 jne	 SHORT $LN13@Find_lower
; File C:\Program Files\Microsoft Visual Studio\2022\Professional\VC\Tools\MSVC\14.44.35207\include\type_traits

; 2380 :         return _Left < _Right;

  0001d	8b 4d 0c	 mov	 ecx, DWORD PTR __Keyval$[ebp]
  00020	56		 push	 esi
  00021	8b 31		 mov	 esi, DWORD PTR [ecx]
$LL2@Find_lower:
; File C:\Program Files\Microsoft Visual Studio\2022\Professional\VC\Tools\MSVC\14.44.35207\include\xtree

; 1633 :             _Result._Location._Parent = _Trynode;

  00023	89 02		 mov	 DWORD PTR [edx], eax
; File C:\Program Files\Microsoft Visual Studio\2022\Professional\VC\Tools\MSVC\14.44.35207\include\type_traits

; 2380 :         return _Left < _Right;

  00025	39 70 10	 cmp	 DWORD PTR [eax+16], esi
; File C:\Program Files\Microsoft Visual Studio\2022\Professional\VC\Tools\MSVC\14.44.35207\include\xtree

; 1634 :             if (_DEBUG_LT_PRED(_Getcomp(), _Traits::_Kfn(_Trynode->_Myval), _Keyval)) {

  00028	73 07		 jae	 SHORT $LN4@Find_lower

; 1635 :                 _Result._Location._Child = _Tree_child::_Right;
; 1636 :                 _Trynode                 = _Trynode->_Right;

  0002a	8b 40 08	 mov	 eax, DWORD PTR [eax+8]
  0002d	33 c9		 xor	 ecx, ecx

; 1637 :             } else {

  0002f	eb 0a		 jmp	 SHORT $LN5@Find_lower
$LN4@Find_lower:

; 1638 :                 _Result._Location._Child = _Tree_child::_Left;
; 1639 :                 _Result._Bound           = _Trynode;

  00031	89 42 08	 mov	 DWORD PTR [edx+8], eax

; 1640 :                 _Trynode                 = _Trynode->_Left;

  00034	b9 01 00 00 00	 mov	 ecx, 1
  00039	8b 00		 mov	 eax, DWORD PTR [eax]
$LN5@Find_lower:

; 1631 :         _Nodeptr _Trynode = _Result._Location._Parent;
; 1632 :         while (!_Trynode->_Isnil) {

  0003b	89 4a 04	 mov	 DWORD PTR [edx+4], ecx
  0003e	80 78 0d 00	 cmp	 BYTE PTR [eax+13], 0
  00042	74 df		 je	 SHORT $LL2@Find_lower
  00044	5e		 pop	 esi
$LN13@Find_lower:

; 1641 :             }
; 1642 :         }
; 1643 : 
; 1644 :         return _Result;
; 1645 :     }

  00045	8b c2		 mov	 eax, edx
  00047	5d		 pop	 ebp
  00048	c2 08 00	 ret	 8
??$_Find_lower_bound@K@?$_Tree@V?$_Tmap_traits@KPAVCGuildHouseBase@@U?$less@K@std@@V?$allocator@U?$pair@$$CBKPAVCGuildHouseBase@@@std@@@3@$0A@@std@@@std@@IBE?AU?$_Tree_find_result@PAU?$_Tree_node@U?$pair@$$CBKPAVCGuildHouseBase@@@std@@PAX@std@@@1@ABK@Z ENDP ; std::_Tree<std::_Tmap_traits<unsigned long,CGuildHouseBase *,std::less<unsigned long>,std::allocator<std::pair<unsigned long const ,CGuildHouseBase *> >,0> >::_Find_lower_bound<unsigned long>
_TEXT	ENDS
; Function compile flags: /Ogtp
; File C:\Program Files\Microsoft Visual Studio\2022\Professional\VC\Tools\MSVC\14.44.35207\include\xtree
; File C:\Program Files\Microsoft Visual Studio\2022\Professional\VC\Tools\MSVC\14.44.35207\include\utility
; File C:\Program Files\Microsoft Visual Studio\2022\Professional\VC\Tools\MSVC\14.44.35207\include\xmemory
; File C:\Program Files\Microsoft Visual Studio\2022\Professional\VC\Tools\MSVC\14.44.35207\include\xtree
;	COMDAT ??$_Erase_tree@V?$allocator@U?$_Tree_node@U?$pair@$$CBKPAVCGuildHouseBase@@@std@@PAX@std@@@std@@@?$_Tree_val@U?$_Tree_simple_types@U?$pair@$$CBKPAVCGuildHouseBase@@@std@@@std@@@std@@QAEXAAV?$allocator@U?$_Tree_node@U?$pair@$$CBKPAVCGuildHouseBase@@@std@@PAX@std@@@1@PAU?$_Tree_node@U?$pair@$$CBKPAVCGuildHouseBase@@@std@@PAX@1@@Z
_TEXT	SEGMENT
__Al$ = 8						; size = 4
__Rootnode$ = 12					; size = 4
??$_Erase_tree@V?$allocator@U?$_Tree_node@U?$pair@$$CBKPAVCGuildHouseBase@@@std@@PAX@std@@@std@@@?$_Tree_val@U?$_Tree_simple_types@U?$pair@$$CBKPAVCGuildHouseBase@@@std@@@std@@@std@@QAEXAAV?$allocator@U?$_Tree_node@U?$pair@$$CBKPAVCGuildHouseBase@@@std@@PAX@std@@@1@PAU?$_Tree_node@U?$pair@$$CBKPAVCGuildHouseBase@@@std@@PAX@1@@Z PROC ; std::_Tree_val<std::_Tree_simple_types<std::pair<unsigned long const ,CGuildHouseBase *> > >::_Erase_tree<std::allocator<std::_Tree_node<std::pair<unsigned long const ,CGuildHouseBase *>,void *> > >, COMDAT
; _this$ = ecx

; 767  :     void _Erase_tree(_Alnode& _Al, _Nodeptr _Rootnode) noexcept {

  00000	55		 push	 ebp
  00001	8b ec		 mov	 ebp, esp
  00003	53		 push	 ebx
  00004	56		 push	 esi

; 768  :         while (!_Rootnode->_Isnil) { // free subtrees, then node

  00005	8b 75 0c	 mov	 esi, DWORD PTR __Rootnode$[ebp]
  00008	8b d9		 mov	 ebx, ecx
  0000a	80 7e 0d 00	 cmp	 BYTE PTR [esi+13], 0
  0000e	75 25		 jne	 SHORT $LN34@Erase_tree
  00010	57		 push	 edi
  00011	8b 7d 08	 mov	 edi, DWORD PTR __Al$[ebp]
$LL2@Erase_tree:

; 769  :             _Erase_tree(_Al, _Rootnode->_Right);

  00014	ff 76 08	 push	 DWORD PTR [esi+8]
  00017	8b cb		 mov	 ecx, ebx
  00019	57		 push	 edi
  0001a	e8 00 00 00 00	 call	 ??$_Erase_tree@V?$allocator@U?$_Tree_node@U?$pair@$$CBKPAVCGuildHouseBase@@@std@@PAX@std@@@std@@@?$_Tree_val@U?$_Tree_simple_types@U?$pair@$$CBKPAVCGuildHouseBase@@@std@@@std@@@std@@QAEXAAV?$allocator@U?$_Tree_node@U?$pair@$$CBKPAVCGuildHouseBase@@@std@@PAX@std@@@1@PAU?$_Tree_node@U?$pair@$$CBKPAVCGuildHouseBase@@@std@@PAX@1@@Z ; std::_Tree_val<std::_Tree_simple_types<std::pair<unsigned long const ,CGuildHouseBase *> > >::_Erase_tree<std::allocator<std::_Tree_node<std::pair<unsigned long const ,CGuildHouseBase *>,void *> > >
; File C:\Program Files\Microsoft Visual Studio\2022\Professional\VC\Tools\MSVC\14.44.35207\include\utility

; 773  :     _Ty _Old_val = static_cast<_Ty&&>(_Val);

  0001f	8b c6		 mov	 eax, esi

; 774  :     _Val         = static_cast<_Other&&>(_New_val);

  00021	8b 36		 mov	 esi, DWORD PTR [esi]
; File C:\Program Files\Microsoft Visual Studio\2022\Professional\VC\Tools\MSVC\14.44.35207\include\xmemory

; 289  :         ::operator delete(_Ptr, _Bytes);

  00023	6a 18		 push	 24			; 00000018H
  00025	50		 push	 eax
  00026	e8 00 00 00 00	 call	 ??3@YAXPAXI@Z		; operator delete
  0002b	83 c4 08	 add	 esp, 8
; File C:\Program Files\Microsoft Visual Studio\2022\Professional\VC\Tools\MSVC\14.44.35207\include\xtree

; 768  :         while (!_Rootnode->_Isnil) { // free subtrees, then node

  0002e	80 7e 0d 00	 cmp	 BYTE PTR [esi+13], 0
  00032	74 e0		 je	 SHORT $LL2@Erase_tree
  00034	5f		 pop	 edi
$LN34@Erase_tree:
  00035	5e		 pop	 esi

; 770  :             _Alnode::value_type::_Freenode(_Al, _STD exchange(_Rootnode, _Rootnode->_Left));
; 771  :         }
; 772  :     }

  00036	5b		 pop	 ebx
  00037	5d		 pop	 ebp
  00038	c2 08 00	 ret	 8
??$_Erase_tree@V?$allocator@U?$_Tree_node@U?$pair@$$CBKPAVCGuildHouseBase@@@std@@PAX@std@@@std@@@?$_Tree_val@U?$_Tree_simple_types@U?$pair@$$CBKPAVCGuildHouseBase@@@std@@@std@@@std@@QAEXAAV?$allocator@U?$_Tree_node@U?$pair@$$CBKPAVCGuildHouseBase@@@std@@PAX@std@@@1@PAU?$_Tree_node@U?$pair@$$CBKPAVCGuildHouseBase@@@std@@PAX@1@@Z ENDP ; std::_Tree_val<std::_Tree_simple_types<std::pair<unsigned long const ,CGuildHouseBase *> > >::_Erase_tree<std::allocator<std::_Tree_node<std::pair<unsigned long const ,CGuildHouseBase *>,void *> > >
_TEXT	ENDS
; Function compile flags: /Ogtp
;	COMDAT ??__FsGHM@?1??GetInstance@CGuildHouseMng@@SAPAV1@XZ@YAXXZ
text$yd	SEGMENT
??__FsGHM@?1??GetInstance@CGuildHouseMng@@SAPAV1@XZ@YAXXZ PROC ; `CGuildHouseMng::GetInstance'::`2'::`dynamic atexit destructor for 'sGHM'', COMDAT
  00000	b9 00 00 00 00	 mov	 ecx, OFFSET ?sGHM@?1??GetInstance@CGuildHouseMng@@SAPAV2@XZ@4V2@A
  00005	e9 00 00 00 00	 jmp	 ??1CGuildHouseMng@@QAE@XZ ; CGuildHouseMng::~CGuildHouseMng
??__FsGHM@?1??GetInstance@CGuildHouseMng@@SAPAV1@XZ@YAXXZ ENDP ; `CGuildHouseMng::GetInstance'::`2'::`dynamic atexit destructor for 'sGHM''
text$yd	ENDS
; Function compile flags: /Ogtp
; File C:\Program Files\Microsoft Visual Studio\2022\Professional\VC\Tools\MSVC\14.44.35207\include\xtree
;	COMDAT ??E?$_Tree_iterator@V?$_Tree_val@U?$_Tree_simple_types@U?$pair@$$CBKPAVCGuildMember@@@std@@@std@@@std@@@std@@QAE?AV01@H@Z
_TEXT	SEGMENT
___$ReturnUdt$ = 8					; size = 4
___formal$ = 12						; size = 4
??E?$_Tree_iterator@V?$_Tree_val@U?$_Tree_simple_types@U?$pair@$$CBKPAVCGuildMember@@@std@@@std@@@std@@@std@@QAE?AV01@H@Z PROC ; std::_Tree_iterator<std::_Tree_val<std::_Tree_simple_types<std::pair<unsigned long const ,CGuildMember *> > > >::operator++, COMDAT
; _this$ = ecx

; 286  :     _Tree_iterator operator++(int) noexcept {

  00000	55		 push	 ebp
  00001	8b ec		 mov	 ebp, esp
  00003	56		 push	 esi
  00004	8b f1		 mov	 esi, ecx
  00006	57		 push	 edi

; 287  :         _Tree_iterator _Tmp = *this;

  00007	8b 7d 08	 mov	 edi, DWORD PTR ___$ReturnUdt$[ebp]
  0000a	8b 06		 mov	 eax, DWORD PTR [esi]
  0000c	89 07		 mov	 DWORD PTR [edi], eax

; 50   :         if (_Ptr->_Right->_Isnil) { // climb looking for right subtree

  0000e	8b 50 08	 mov	 edx, DWORD PTR [eax+8]
  00011	80 7a 0d 00	 cmp	 BYTE PTR [edx+13], 0
  00015	74 25		 je	 SHORT $LN10@operator

; 51   :             _Nodeptr _Pnode;
; 52   :             while (!(_Pnode = _Ptr->_Parent)->_Isnil && _Ptr == _Pnode->_Right) {

  00017	8b 50 04	 mov	 edx, DWORD PTR [eax+4]
  0001a	80 7a 0d 00	 cmp	 BYTE PTR [edx+13], 0
  0001e	75 30		 jne	 SHORT $LN16@operator
$LL8@operator:
  00020	3b 42 08	 cmp	 eax, DWORD PTR [edx+8]
  00023	75 2b		 jne	 SHORT $LN16@operator

; 53   :                 _Ptr = _Pnode; // ==> parent while right subtree

  00025	89 16		 mov	 DWORD PTR [esi], edx
  00027	8b c2		 mov	 eax, edx
  00029	8b 52 04	 mov	 edx, DWORD PTR [edx+4]
  0002c	80 7a 0d 00	 cmp	 BYTE PTR [edx+13], 0
  00030	74 ee		 je	 SHORT $LL8@operator

; 288  :         _Mybase::operator++();
; 289  :         return _Tmp;
; 290  :     }

  00032	8b c7		 mov	 eax, edi
  00034	89 16		 mov	 DWORD PTR [esi], edx
  00036	5f		 pop	 edi
  00037	5e		 pop	 esi
  00038	5d		 pop	 ebp
  00039	c2 08 00	 ret	 8
$LN10@operator:

; 476  :         while (!_Pnode->_Left->_Isnil) {

  0003c	8b 0a		 mov	 ecx, DWORD PTR [edx]
  0003e	80 79 0d 00	 cmp	 BYTE PTR [ecx+13], 0
  00042	75 0c		 jne	 SHORT $LN16@operator
$LL15@operator:
  00044	8b 01		 mov	 eax, DWORD PTR [ecx]

; 477  :             _Pnode = _Pnode->_Left;

  00046	8b d1		 mov	 edx, ecx
  00048	8b c8		 mov	 ecx, eax
  0004a	80 78 0d 00	 cmp	 BYTE PTR [eax+13], 0
  0004e	74 f4		 je	 SHORT $LL15@operator
$LN16@operator:

; 288  :         _Mybase::operator++();
; 289  :         return _Tmp;
; 290  :     }

  00050	8b c7		 mov	 eax, edi
  00052	89 16		 mov	 DWORD PTR [esi], edx
  00054	5f		 pop	 edi
  00055	5e		 pop	 esi
  00056	5d		 pop	 ebp
  00057	c2 08 00	 ret	 8
??E?$_Tree_iterator@V?$_Tree_val@U?$_Tree_simple_types@U?$pair@$$CBKPAVCGuildMember@@@std@@@std@@@std@@@std@@QAE?AV01@H@Z ENDP ; std::_Tree_iterator<std::_Tree_val<std::_Tree_simple_types<std::pair<unsigned long const ,CGuildMember *> > > >::operator++
_TEXT	ENDS
; Function compile flags: /Ogtp
; File C:\IAGOS\server\v18\Source\Source\_Network\Misc\Include\ar.h
;	COMDAT ??$?5M@CAr@@QAEAAV0@AAM@Z
_TEXT	SEGMENT
_t$ = 8							; size = 4
??$?5M@CAr@@QAEAAV0@AAM@Z PROC				; CAr::operator>><float>, COMDAT
; _this$ = ecx

; 302  : {

  00000	55		 push	 ebp
  00001	8b ec		 mov	 ebp, esp
  00003	8b d1		 mov	 edx, ecx

; 303  : 	if (m_lpBufCur + sizeof(T) <= m_lpBufMax)

  00005	8b 4a 08	 mov	 ecx, DWORD PTR [edx+8]
  00008	8d 41 04	 lea	 eax, DWORD PTR [ecx+4]
  0000b	3b 42 0c	 cmp	 eax, DWORD PTR [edx+12]
  0000e	8b 45 08	 mov	 eax, DWORD PTR _t$[ebp]
  00011	77 0e		 ja	 SHORT $LN2@operator

; 304  : 	{
; 305  : 		t = *(UNALIGNED T*)m_lpBufCur;

  00013	8b 09		 mov	 ecx, DWORD PTR [ecx]
  00015	89 08		 mov	 DWORD PTR [eax], ecx

; 312  : 	}
; 313  : 	return *this;
; 314  : }

  00017	8b c2		 mov	 eax, edx
  00019	83 42 08 04	 add	 DWORD PTR [edx+8], 4
  0001d	5d		 pop	 ebp
  0001e	c2 04 00	 ret	 4
$LN2@operator:

; 306  : 		m_lpBufCur += sizeof(T);
; 307  : 	}
; 308  : 	else
; 309  : 	{
; 310  : 		t = T();

  00021	c7 00 00 00 00
	00		 mov	 DWORD PTR [eax], 0

; 311  : 		m_lpBufCur = m_lpBufMax;

  00027	8b 42 0c	 mov	 eax, DWORD PTR [edx+12]
  0002a	89 42 08	 mov	 DWORD PTR [edx+8], eax

; 312  : 	}
; 313  : 	return *this;
; 314  : }

  0002d	8b c2		 mov	 eax, edx
  0002f	5d		 pop	 ebp
  00030	c2 04 00	 ret	 4
??$?5M@CAr@@QAEAAV0@AAM@Z ENDP				; CAr::operator>><float>
_TEXT	ENDS
; Function compile flags: /Ogtp
; File C:\IAGOS\server\v18\Source\Source\_Network\Misc\Include\ar.h
;	COMDAT ??$?5UD3DXVECTOR3@@@CAr@@QAEAAV0@AAUD3DXVECTOR3@@@Z
_TEXT	SEGMENT
$T1 = -12						; size = 12
_t$ = 8							; size = 4
??$?5UD3DXVECTOR3@@@CAr@@QAEAAV0@AAUD3DXVECTOR3@@@Z PROC ; CAr::operator>><D3DXVECTOR3>, COMDAT
; _this$ = ecx

; 302  : {

  00000	55		 push	 ebp
  00001	8b ec		 mov	 ebp, esp
  00003	83 ec 0c	 sub	 esp, 12			; 0000000cH
  00006	8b d1		 mov	 edx, ecx

; 303  : 	if (m_lpBufCur + sizeof(T) <= m_lpBufMax)

  00008	8b 4d 08	 mov	 ecx, DWORD PTR _t$[ebp]
  0000b	56		 push	 esi
  0000c	8b 72 08	 mov	 esi, DWORD PTR [edx+8]
  0000f	8d 46 0c	 lea	 eax, DWORD PTR [esi+12]
  00012	3b 42 0c	 cmp	 eax, DWORD PTR [edx+12]
  00015	77 1b		 ja	 SHORT $LN2@operator

; 304  : 	{
; 305  : 		t = *(UNALIGNED T*)m_lpBufCur;

  00017	f3 0f 7e 06	 movq	 xmm0, QWORD PTR [esi]
  0001b	66 0f d6 01	 movq	 QWORD PTR [ecx], xmm0
  0001f	8b 46 08	 mov	 eax, DWORD PTR [esi+8]
  00022	89 41 08	 mov	 DWORD PTR [ecx+8], eax

; 312  : 	}
; 313  : 	return *this;
; 314  : }

  00025	8b c2		 mov	 eax, edx
  00027	83 42 08 0c	 add	 DWORD PTR [edx+8], 12	; 0000000cH
  0002b	5e		 pop	 esi
  0002c	8b e5		 mov	 esp, ebp
  0002e	5d		 pop	 ebp
  0002f	c2 04 00	 ret	 4
$LN2@operator:

; 306  : 		m_lpBufCur += sizeof(T);
; 307  : 	}
; 308  : 	else
; 309  : 	{
; 310  : 		t = T();

  00032	f3 0f 7e 45 f4	 movq	 xmm0, QWORD PTR $T1[ebp]
  00037	8b 45 fc	 mov	 eax, DWORD PTR $T1[ebp+8]
  0003a	66 0f d6 01	 movq	 QWORD PTR [ecx], xmm0
  0003e	89 41 08	 mov	 DWORD PTR [ecx+8], eax

; 311  : 		m_lpBufCur = m_lpBufMax;

  00041	8b 42 0c	 mov	 eax, DWORD PTR [edx+12]
  00044	89 42 08	 mov	 DWORD PTR [edx+8], eax

; 312  : 	}
; 313  : 	return *this;
; 314  : }

  00047	8b c2		 mov	 eax, edx
  00049	5e		 pop	 esi
  0004a	8b e5		 mov	 esp, ebp
  0004c	5d		 pop	 ebp
  0004d	c2 04 00	 ret	 4
??$?5UD3DXVECTOR3@@@CAr@@QAEAAV0@AAUD3DXVECTOR3@@@Z ENDP ; CAr::operator>><D3DXVECTOR3>
_TEXT	ENDS
; Function compile flags: /Ogtp
; File C:\IAGOS\server\v18\Source\Source\_Network\Misc\Include\ar.h
;	COMDAT ??$?5J@CAr@@QAEAAV0@AAJ@Z
_TEXT	SEGMENT
_t$ = 8							; size = 4
??$?5J@CAr@@QAEAAV0@AAJ@Z PROC				; CAr::operator>><long>, COMDAT
; _this$ = ecx

; 302  : {

  00000	55		 push	 ebp
  00001	8b ec		 mov	 ebp, esp
  00003	8b d1		 mov	 edx, ecx

; 303  : 	if (m_lpBufCur + sizeof(T) <= m_lpBufMax)

  00005	8b 4a 08	 mov	 ecx, DWORD PTR [edx+8]
  00008	8d 41 04	 lea	 eax, DWORD PTR [ecx+4]
  0000b	3b 42 0c	 cmp	 eax, DWORD PTR [edx+12]
  0000e	8b 45 08	 mov	 eax, DWORD PTR _t$[ebp]
  00011	77 0e		 ja	 SHORT $LN2@operator

; 304  : 	{
; 305  : 		t = *(UNALIGNED T*)m_lpBufCur;

  00013	8b 09		 mov	 ecx, DWORD PTR [ecx]
  00015	89 08		 mov	 DWORD PTR [eax], ecx

; 312  : 	}
; 313  : 	return *this;
; 314  : }

  00017	8b c2		 mov	 eax, edx
  00019	83 42 08 04	 add	 DWORD PTR [edx+8], 4
  0001d	5d		 pop	 ebp
  0001e	c2 04 00	 ret	 4
$LN2@operator:

; 306  : 		m_lpBufCur += sizeof(T);
; 307  : 	}
; 308  : 	else
; 309  : 	{
; 310  : 		t = T();

  00021	c7 00 00 00 00
	00		 mov	 DWORD PTR [eax], 0

; 311  : 		m_lpBufCur = m_lpBufMax;

  00027	8b 42 0c	 mov	 eax, DWORD PTR [edx+12]
  0002a	89 42 08	 mov	 DWORD PTR [edx+8], eax

; 312  : 	}
; 313  : 	return *this;
; 314  : }

  0002d	8b c2		 mov	 eax, edx
  0002f	5d		 pop	 ebp
  00030	c2 04 00	 ret	 4
??$?5J@CAr@@QAEAAV0@AAJ@Z ENDP				; CAr::operator>><long>
_TEXT	ENDS
; Function compile flags: /Ogtp
; File C:\IAGOS\server\v18\Source\Source\_Network\Misc\Include\ar.h
;	COMDAT ??$?5K@CAr@@QAEAAV0@AAK@Z
_TEXT	SEGMENT
_t$ = 8							; size = 4
??$?5K@CAr@@QAEAAV0@AAK@Z PROC				; CAr::operator>><unsigned long>, COMDAT
; _this$ = ecx

; 302  : {

  00000	55		 push	 ebp
  00001	8b ec		 mov	 ebp, esp
  00003	8b d1		 mov	 edx, ecx

; 303  : 	if (m_lpBufCur + sizeof(T) <= m_lpBufMax)

  00005	8b 4a 08	 mov	 ecx, DWORD PTR [edx+8]
  00008	8d 41 04	 lea	 eax, DWORD PTR [ecx+4]
  0000b	3b 42 0c	 cmp	 eax, DWORD PTR [edx+12]
  0000e	8b 45 08	 mov	 eax, DWORD PTR _t$[ebp]
  00011	77 0e		 ja	 SHORT $LN2@operator

; 304  : 	{
; 305  : 		t = *(UNALIGNED T*)m_lpBufCur;

  00013	8b 09		 mov	 ecx, DWORD PTR [ecx]
  00015	89 08		 mov	 DWORD PTR [eax], ecx

; 312  : 	}
; 313  : 	return *this;
; 314  : }

  00017	8b c2		 mov	 eax, edx
  00019	83 42 08 04	 add	 DWORD PTR [edx+8], 4
  0001d	5d		 pop	 ebp
  0001e	c2 04 00	 ret	 4
$LN2@operator:

; 306  : 		m_lpBufCur += sizeof(T);
; 307  : 	}
; 308  : 	else
; 309  : 	{
; 310  : 		t = T();

  00021	c7 00 00 00 00
	00		 mov	 DWORD PTR [eax], 0

; 311  : 		m_lpBufCur = m_lpBufMax;

  00027	8b 42 0c	 mov	 eax, DWORD PTR [edx+12]
  0002a	89 42 08	 mov	 DWORD PTR [edx+8], eax

; 312  : 	}
; 313  : 	return *this;
; 314  : }

  0002d	8b c2		 mov	 eax, edx
  0002f	5d		 pop	 ebp
  00030	c2 04 00	 ret	 4
??$?5K@CAr@@QAEAAV0@AAK@Z ENDP				; CAr::operator>><unsigned long>
_TEXT	ENDS
; Function compile flags: /Ogtp
; File C:\IAGOS\server\v18\Source\Source\_Network\Misc\Include\ar.h
;	COMDAT ??$?6M@CAr@@QAEAAV0@ABM@Z
_TEXT	SEGMENT
_t$ = 8							; size = 4
??$?6M@CAr@@QAEAAV0@ABM@Z PROC				; CAr::operator<<<float>, COMDAT
; _this$ = ecx

; 255  : {

  00000	55		 push	 ebp
  00001	8b ec		 mov	 ebp, esp
  00003	56		 push	 esi

; 256  : 	CheckBuf(sizeof(T));

  00004	6a 04		 push	 4
  00006	8b f1		 mov	 esi, ecx
  00008	e8 00 00 00 00	 call	 ?CheckBuf@CAr@@QAEXI@Z	; CAr::CheckBuf

; 257  : 	*(UNALIGNED T*)m_lpBufCur = t;

  0000d	8b 56 08	 mov	 edx, DWORD PTR [esi+8]
  00010	8b 45 08	 mov	 eax, DWORD PTR _t$[ebp]
  00013	8b 00		 mov	 eax, DWORD PTR [eax]
  00015	89 02		 mov	 DWORD PTR [edx], eax

; 258  : 	m_lpBufCur += sizeof(T);
; 259  : 	return *this;

  00017	8b c6		 mov	 eax, esi
  00019	83 46 08 04	 add	 DWORD PTR [esi+8], 4
  0001d	5e		 pop	 esi

; 260  : }

  0001e	5d		 pop	 ebp
  0001f	c2 04 00	 ret	 4
??$?6M@CAr@@QAEAAV0@ABM@Z ENDP				; CAr::operator<<<float>
_TEXT	ENDS
; Function compile flags: /Ogtp
; File C:\IAGOS\server\v18\Source\Source\_Network\Misc\Include\ar.h
;	COMDAT ??$?6UD3DXVECTOR3@@@CAr@@QAEAAV0@ABUD3DXVECTOR3@@@Z
_TEXT	SEGMENT
_t$ = 8							; size = 4
??$?6UD3DXVECTOR3@@@CAr@@QAEAAV0@ABUD3DXVECTOR3@@@Z PROC ; CAr::operator<<<D3DXVECTOR3>, COMDAT
; _this$ = ecx

; 255  : {

  00000	55		 push	 ebp
  00001	8b ec		 mov	 ebp, esp
  00003	56		 push	 esi

; 256  : 	CheckBuf(sizeof(T));

  00004	6a 0c		 push	 12			; 0000000cH
  00006	8b f1		 mov	 esi, ecx
  00008	e8 00 00 00 00	 call	 ?CheckBuf@CAr@@QAEXI@Z	; CAr::CheckBuf

; 257  : 	*(UNALIGNED T*)m_lpBufCur = t;

  0000d	8b 56 08	 mov	 edx, DWORD PTR [esi+8]
  00010	8b 45 08	 mov	 eax, DWORD PTR _t$[ebp]
  00013	f3 0f 7e 00	 movq	 xmm0, QWORD PTR [eax]
  00017	66 0f d6 02	 movq	 QWORD PTR [edx], xmm0
  0001b	8b 40 08	 mov	 eax, DWORD PTR [eax+8]
  0001e	89 42 08	 mov	 DWORD PTR [edx+8], eax

; 258  : 	m_lpBufCur += sizeof(T);
; 259  : 	return *this;

  00021	8b c6		 mov	 eax, esi
  00023	83 46 08 0c	 add	 DWORD PTR [esi+8], 12	; 0000000cH
  00027	5e		 pop	 esi

; 260  : }

  00028	5d		 pop	 ebp
  00029	c2 04 00	 ret	 4
??$?6UD3DXVECTOR3@@@CAr@@QAEAAV0@ABUD3DXVECTOR3@@@Z ENDP ; CAr::operator<<<D3DXVECTOR3>
_TEXT	ENDS
; Function compile flags: /Ogtp
; File C:\IAGOS\server\v18\Source\Source\_Network\Misc\Include\ar.h
;	COMDAT ??$?6J@CAr@@QAEAAV0@ABJ@Z
_TEXT	SEGMENT
_t$ = 8							; size = 4
??$?6J@CAr@@QAEAAV0@ABJ@Z PROC				; CAr::operator<<<long>, COMDAT
; _this$ = ecx

; 255  : {

  00000	55		 push	 ebp
  00001	8b ec		 mov	 ebp, esp
  00003	56		 push	 esi

; 256  : 	CheckBuf(sizeof(T));

  00004	6a 04		 push	 4
  00006	8b f1		 mov	 esi, ecx
  00008	e8 00 00 00 00	 call	 ?CheckBuf@CAr@@QAEXI@Z	; CAr::CheckBuf

; 257  : 	*(UNALIGNED T*)m_lpBufCur = t;

  0000d	8b 56 08	 mov	 edx, DWORD PTR [esi+8]
  00010	8b 45 08	 mov	 eax, DWORD PTR _t$[ebp]
  00013	8b 00		 mov	 eax, DWORD PTR [eax]
  00015	89 02		 mov	 DWORD PTR [edx], eax

; 258  : 	m_lpBufCur += sizeof(T);
; 259  : 	return *this;

  00017	8b c6		 mov	 eax, esi
  00019	83 46 08 04	 add	 DWORD PTR [esi+8], 4
  0001d	5e		 pop	 esi

; 260  : }

  0001e	5d		 pop	 ebp
  0001f	c2 04 00	 ret	 4
??$?6J@CAr@@QAEAAV0@ABJ@Z ENDP				; CAr::operator<<<long>
_TEXT	ENDS
; Function compile flags: /Ogtp
; File C:\IAGOS\server\v18\Source\Source\_Network\Misc\Include\ar.h
;	COMDAT ??$?6K@CAr@@QAEAAV0@ABK@Z
_TEXT	SEGMENT
_t$ = 8							; size = 4
??$?6K@CAr@@QAEAAV0@ABK@Z PROC				; CAr::operator<<<unsigned long>, COMDAT
; _this$ = ecx

; 255  : {

  00000	55		 push	 ebp
  00001	8b ec		 mov	 ebp, esp
  00003	56		 push	 esi

; 256  : 	CheckBuf(sizeof(T));

  00004	6a 04		 push	 4
  00006	8b f1		 mov	 esi, ecx
  00008	e8 00 00 00 00	 call	 ?CheckBuf@CAr@@QAEXI@Z	; CAr::CheckBuf

; 257  : 	*(UNALIGNED T*)m_lpBufCur = t;

  0000d	8b 56 08	 mov	 edx, DWORD PTR [esi+8]
  00010	8b 45 08	 mov	 eax, DWORD PTR _t$[ebp]
  00013	8b 00		 mov	 eax, DWORD PTR [eax]
  00015	89 02		 mov	 DWORD PTR [edx], eax

; 258  : 	m_lpBufCur += sizeof(T);
; 259  : 	return *this;

  00017	8b c6		 mov	 eax, esi
  00019	83 46 08 04	 add	 DWORD PTR [esi+8], 4
  0001d	5e		 pop	 esi

; 260  : }

  0001e	5d		 pop	 ebp
  0001f	c2 04 00	 ret	 4
??$?6K@CAr@@QAEAAV0@ABK@Z ENDP				; CAr::operator<<<unsigned long>
_TEXT	ENDS
; Function compile flags: /Ogtp
; File C:\IAGOS\server\v18\Source\Source\_Network\Misc\Include\ar.h
;	COMDAT ??$?6I@CAr@@QAEAAV0@ABI@Z
_TEXT	SEGMENT
_t$ = 8							; size = 4
??$?6I@CAr@@QAEAAV0@ABI@Z PROC				; CAr::operator<<<unsigned int>, COMDAT
; _this$ = ecx

; 255  : {

  00000	55		 push	 ebp
  00001	8b ec		 mov	 ebp, esp
  00003	56		 push	 esi

; 256  : 	CheckBuf(sizeof(T));

  00004	6a 04		 push	 4
  00006	8b f1		 mov	 esi, ecx
  00008	e8 00 00 00 00	 call	 ?CheckBuf@CAr@@QAEXI@Z	; CAr::CheckBuf

; 257  : 	*(UNALIGNED T*)m_lpBufCur = t;

  0000d	8b 56 08	 mov	 edx, DWORD PTR [esi+8]
  00010	8b 45 08	 mov	 eax, DWORD PTR _t$[ebp]
  00013	8b 00		 mov	 eax, DWORD PTR [eax]
  00015	89 02		 mov	 DWORD PTR [edx], eax

; 258  : 	m_lpBufCur += sizeof(T);
; 259  : 	return *this;

  00017	8b c6		 mov	 eax, esi
  00019	83 46 08 04	 add	 DWORD PTR [esi+8], 4
  0001d	5e		 pop	 esi

; 260  : }

  0001e	5d		 pop	 ebp
  0001f	c2 04 00	 ret	 4
??$?6I@CAr@@QAEAAV0@ABI@Z ENDP				; CAr::operator<<<unsigned int>
_TEXT	ENDS
; Function compile flags: /Ogtp
; File C:\IAGOS\server\v18\Source\Source\_Network\Misc\Include\ar.h
;	COMDAT ??$?5H@CAr@@QAEAAV0@AAH@Z
_TEXT	SEGMENT
_t$ = 8							; size = 4
??$?5H@CAr@@QAEAAV0@AAH@Z PROC				; CAr::operator>><int>, COMDAT
; _this$ = ecx

; 302  : {

  00000	55		 push	 ebp
  00001	8b ec		 mov	 ebp, esp
  00003	8b d1		 mov	 edx, ecx

; 303  : 	if (m_lpBufCur + sizeof(T) <= m_lpBufMax)

  00005	8b 4a 08	 mov	 ecx, DWORD PTR [edx+8]
  00008	8d 41 04	 lea	 eax, DWORD PTR [ecx+4]
  0000b	3b 42 0c	 cmp	 eax, DWORD PTR [edx+12]
  0000e	8b 45 08	 mov	 eax, DWORD PTR _t$[ebp]
  00011	77 0e		 ja	 SHORT $LN2@operator

; 304  : 	{
; 305  : 		t = *(UNALIGNED T*)m_lpBufCur;

  00013	8b 09		 mov	 ecx, DWORD PTR [ecx]
  00015	89 08		 mov	 DWORD PTR [eax], ecx

; 312  : 	}
; 313  : 	return *this;
; 314  : }

  00017	8b c2		 mov	 eax, edx
  00019	83 42 08 04	 add	 DWORD PTR [edx+8], 4
  0001d	5d		 pop	 ebp
  0001e	c2 04 00	 ret	 4
$LN2@operator:

; 306  : 		m_lpBufCur += sizeof(T);
; 307  : 	}
; 308  : 	else
; 309  : 	{
; 310  : 		t = T();

  00021	c7 00 00 00 00
	00		 mov	 DWORD PTR [eax], 0

; 311  : 		m_lpBufCur = m_lpBufMax;

  00027	8b 42 0c	 mov	 eax, DWORD PTR [edx+12]
  0002a	89 42 08	 mov	 DWORD PTR [edx+8], eax

; 312  : 	}
; 313  : 	return *this;
; 314  : }

  0002d	8b c2		 mov	 eax, edx
  0002f	5d		 pop	 ebp
  00030	c2 04 00	 ret	 4
??$?5H@CAr@@QAEAAV0@AAH@Z ENDP				; CAr::operator>><int>
_TEXT	ENDS
; Function compile flags: /Ogtp
; File C:\IAGOS\server\v18\Source\Source\_Network\Misc\Include\ar.h
;	COMDAT ??$?6H@CAr@@QAEAAV0@ABH@Z
_TEXT	SEGMENT
_t$ = 8							; size = 4
??$?6H@CAr@@QAEAAV0@ABH@Z PROC				; CAr::operator<<<int>, COMDAT
; _this$ = ecx

; 255  : {

  00000	55		 push	 ebp
  00001	8b ec		 mov	 ebp, esp
  00003	56		 push	 esi

; 256  : 	CheckBuf(sizeof(T));

  00004	6a 04		 push	 4
  00006	8b f1		 mov	 esi, ecx
  00008	e8 00 00 00 00	 call	 ?CheckBuf@CAr@@QAEXI@Z	; CAr::CheckBuf

; 257  : 	*(UNALIGNED T*)m_lpBufCur = t;

  0000d	8b 56 08	 mov	 edx, DWORD PTR [esi+8]
  00010	8b 45 08	 mov	 eax, DWORD PTR _t$[ebp]
  00013	8b 00		 mov	 eax, DWORD PTR [eax]
  00015	89 02		 mov	 DWORD PTR [edx], eax

; 258  : 	m_lpBufCur += sizeof(T);
; 259  : 	return *this;

  00017	8b c6		 mov	 eax, esi
  00019	83 46 08 04	 add	 DWORD PTR [esi+8], 4
  0001d	5e		 pop	 esi

; 260  : }

  0001e	5d		 pop	 ebp
  0001f	c2 04 00	 ret	 4
??$?6H@CAr@@QAEAAV0@ABH@Z ENDP				; CAr::operator<<<int>
_TEXT	ENDS
; Function compile flags: /Ogtp
; File C:\IAGOS\server\v18\Source\Source\_Common\guild.h
;	COMDAT ?IsAuthority@CGuild@@QAEHKH@Z
_TEXT	SEGMENT
_dwPlayerId$ = 8					; size = 4
_nAuthority$ = 12					; size = 4
?IsAuthority@CGuild@@QAEHKH@Z PROC			; CGuild::IsAuthority, COMDAT
; _this$ = ecx

; 333  : 	BOOL	IsAuthority( DWORD dwPlayerId, int nAuthority )	{ return GetMember(dwPlayerId) ? ( m_adwPower[GetMember(dwPlayerId)->m_nMemberLv] & nAuthority ) : FALSE; }

  00000	55		 push	 ebp
  00001	8b ec		 mov	 ebp, esp
  00003	56		 push	 esi
  00004	ff 75 08	 push	 DWORD PTR _dwPlayerId$[ebp]
  00007	8b f1		 mov	 esi, ecx
  00009	e8 00 00 00 00	 call	 ?GetMember@CGuild@@QAEPAVCGuildMember@@K@Z ; CGuild::GetMember
  0000e	85 c0		 test	 eax, eax
  00010	74 1a		 je	 SHORT $LN3@IsAuthorit
  00012	ff 75 08	 push	 DWORD PTR _dwPlayerId$[ebp]
  00015	8b ce		 mov	 ecx, esi
  00017	e8 00 00 00 00	 call	 ?GetMember@CGuild@@QAEPAVCGuildMember@@K@Z ; CGuild::GetMember
  0001c	0f b6 40 48	 movzx	 eax, BYTE PTR [eax+72]
  00020	8b 44 86 48	 mov	 eax, DWORD PTR [esi+eax*4+72]
  00024	23 45 0c	 and	 eax, DWORD PTR _nAuthority$[ebp]
  00027	5e		 pop	 esi
  00028	5d		 pop	 ebp
  00029	c2 08 00	 ret	 8
$LN3@IsAuthorit:
  0002c	33 c0		 xor	 eax, eax
  0002e	5e		 pop	 esi
  0002f	5d		 pop	 ebp
  00030	c2 08 00	 ret	 8
?IsAuthority@CGuild@@QAEHKH@Z ENDP			; CGuild::IsAuthority
_TEXT	ENDS
; Function compile flags: /Ogtp
; File C:\Program Files\Microsoft Visual Studio\2022\Professional\VC\Tools\MSVC\14.44.35207\include\xtree
;	COMDAT ??E?$_Tree_unchecked_const_iterator@V?$_Tree_val@U?$_Tree_simple_types@U?$pair@$$CBKPAVCGuildHouseBase@@@std@@@std@@@std@@U_Iterator_base0@2@@std@@QAEAAV01@XZ
_TEXT	SEGMENT
??E?$_Tree_unchecked_const_iterator@V?$_Tree_val@U?$_Tree_simple_types@U?$pair@$$CBKPAVCGuildHouseBase@@@std@@@std@@@std@@U_Iterator_base0@2@@std@@QAEAAV01@XZ PROC ; std::_Tree_unchecked_const_iterator<std::_Tree_val<std::_Tree_simple_types<std::pair<unsigned long const ,CGuildHouseBase *> > >,std::_Iterator_base0>::operator++, COMDAT
; _this$ = ecx

; 49   :     _Tree_unchecked_const_iterator& operator++() noexcept {

  00000	56		 push	 esi
  00001	8b f1		 mov	 esi, ecx
  00003	57		 push	 edi

; 50   :         if (_Ptr->_Right->_Isnil) { // climb looking for right subtree

  00004	8b 16		 mov	 edx, DWORD PTR [esi]
  00006	8b 7a 08	 mov	 edi, DWORD PTR [edx+8]
  00009	80 7f 0d 00	 cmp	 BYTE PTR [edi+13], 0
  0000d	74 22		 je	 SHORT $LN4@operator

; 51   :             _Nodeptr _Pnode;
; 52   :             while (!(_Pnode = _Ptr->_Parent)->_Isnil && _Ptr == _Pnode->_Right) {

  0000f	8b 42 04	 mov	 eax, DWORD PTR [edx+4]
  00012	80 78 0d 00	 cmp	 BYTE PTR [eax+13], 0
  00016	75 12		 jne	 SHORT $LN21@operator
$LL2@operator:
  00018	3b 50 08	 cmp	 edx, DWORD PTR [eax+8]
  0001b	75 0d		 jne	 SHORT $LN21@operator

; 53   :                 _Ptr = _Pnode; // ==> parent while right subtree

  0001d	89 06		 mov	 DWORD PTR [esi], eax
  0001f	8b d0		 mov	 edx, eax
  00021	8b 40 04	 mov	 eax, DWORD PTR [eax+4]
  00024	80 78 0d 00	 cmp	 BYTE PTR [eax+13], 0
  00028	74 ee		 je	 SHORT $LL2@operator
$LN21@operator:

; 54   :             }
; 55   : 
; 56   :             _Ptr = _Pnode; // ==> parent (head if end())
; 57   :         } else {
; 58   :             _Ptr = _Mytree::_Min(_Ptr->_Right); // ==> smallest of right subtree
; 59   :         }
; 60   : 
; 61   :         return *this;

  0002a	89 06		 mov	 DWORD PTR [esi], eax

; 62   :     }

  0002c	8b c6		 mov	 eax, esi
  0002e	5f		 pop	 edi
  0002f	5e		 pop	 esi
  00030	c3		 ret	 0
$LN4@operator:

; 476  :         while (!_Pnode->_Left->_Isnil) {

  00031	8b 0f		 mov	 ecx, DWORD PTR [edi]
  00033	80 79 0d 00	 cmp	 BYTE PTR [ecx+13], 0
  00037	75 13		 jne	 SHORT $LN10@operator
  00039	0f 1f 80 00 00
	00 00		 npad	 7
$LL9@operator:
  00040	8b 01		 mov	 eax, DWORD PTR [ecx]

; 477  :             _Pnode = _Pnode->_Left;

  00042	8b f9		 mov	 edi, ecx
  00044	8b c8		 mov	 ecx, eax
  00046	80 78 0d 00	 cmp	 BYTE PTR [eax+13], 0
  0004a	74 f4		 je	 SHORT $LL9@operator
$LN10@operator:

; 54   :             }
; 55   : 
; 56   :             _Ptr = _Pnode; // ==> parent (head if end())
; 57   :         } else {
; 58   :             _Ptr = _Mytree::_Min(_Ptr->_Right); // ==> smallest of right subtree
; 59   :         }
; 60   : 
; 61   :         return *this;

  0004c	89 3e		 mov	 DWORD PTR [esi], edi

; 62   :     }

  0004e	8b c6		 mov	 eax, esi
  00050	5f		 pop	 edi
  00051	5e		 pop	 esi
  00052	c3		 ret	 0
??E?$_Tree_unchecked_const_iterator@V?$_Tree_val@U?$_Tree_simple_types@U?$pair@$$CBKPAVCGuildHouseBase@@@std@@@std@@@std@@U_Iterator_base0@2@@std@@QAEAAV01@XZ ENDP ; std::_Tree_unchecked_const_iterator<std::_Tree_val<std::_Tree_simple_types<std::pair<unsigned long const ,CGuildHouseBase *> > >,std::_Iterator_base0>::operator++
_TEXT	ENDS
; Function compile flags: /Ogtp
; File C:\Program Files\Microsoft Visual Studio\2022\Professional\VC\Tools\MSVC\14.44.35207\include\xtree
;	COMDAT ?_Insert_node@?$_Tree_val@U?$_Tree_simple_types@U?$pair@$$CBKPAVCGuildHouseBase@@@std@@@std@@@std@@QAEPAU?$_Tree_node@U?$pair@$$CBKPAVCGuildHouseBase@@@std@@PAX@2@U?$_Tree_id@PAU?$_Tree_node@U?$pair@$$CBKPAVCGuildHouseBase@@@std@@PAX@std@@@2@QAU32@@Z
_TEXT	SEGMENT
__Head$1$ = -4						; size = 4
__Loc$ = 8						; size = 8
__Newnode$ = 16						; size = 4
?_Insert_node@?$_Tree_val@U?$_Tree_simple_types@U?$pair@$$CBKPAVCGuildHouseBase@@@std@@@std@@@std@@QAEPAU?$_Tree_node@U?$pair@$$CBKPAVCGuildHouseBase@@@std@@PAX@2@U?$_Tree_id@PAU?$_Tree_node@U?$pair@$$CBKPAVCGuildHouseBase@@@std@@PAX@std@@@2@QAU32@@Z PROC ; std::_Tree_val<std::_Tree_simple_types<std::pair<unsigned long const ,CGuildHouseBase *> > >::_Insert_node, COMDAT
; _this$ = ecx

; 669  :     _Nodeptr _Insert_node(const _Tree_id<_Nodeptr> _Loc, const _Nodeptr _Newnode) noexcept {

  00000	55		 push	 ebp
  00001	8b ec		 mov	 ebp, esp
  00003	51		 push	 ecx

; 670  :         ++_Mysize;
; 671  :         const auto _Head  = _Myhead;
; 672  :         _Newnode->_Parent = _Loc._Parent;

  00004	8b 55 08	 mov	 edx, DWORD PTR __Loc$[ebp]
  00007	53		 push	 ebx
  00008	8b d9		 mov	 ebx, ecx
  0000a	57		 push	 edi
  0000b	8b 7d 10	 mov	 edi, DWORD PTR __Newnode$[ebp]
  0000e	8b 03		 mov	 eax, DWORD PTR [ebx]
  00010	ff 43 04	 inc	 DWORD PTR [ebx+4]
  00013	89 45 fc	 mov	 DWORD PTR __Head$1$[ebp], eax
  00016	89 57 04	 mov	 DWORD PTR [edi+4], edx

; 673  :         if (_Loc._Parent == _Head) { // first node in tree, just set head values

  00019	3b d0		 cmp	 edx, eax
  0001b	75 16		 jne	 SHORT $LN5@Insert_nod

; 674  :             _Head->_Left     = _Newnode;

  0001d	89 38		 mov	 DWORD PTR [eax], edi

; 675  :             _Head->_Parent   = _Newnode;

  0001f	89 78 04	 mov	 DWORD PTR [eax+4], edi

; 676  :             _Head->_Right    = _Newnode;

  00022	89 78 08	 mov	 DWORD PTR [eax+8], edi

; 735  :         return _Newnode;
; 736  :     }

  00025	8b c7		 mov	 eax, edi
  00027	c6 47 0c 01	 mov	 BYTE PTR [edi+12], 1
  0002b	5f		 pop	 edi
  0002c	5b		 pop	 ebx
  0002d	8b e5		 mov	 esp, ebp
  0002f	5d		 pop	 ebp
  00030	c2 0c 00	 ret	 12			; 0000000cH
$LN5@Insert_nod:

; 677  :             _Newnode->_Color = _Black; // the root is black
; 678  :             return _Newnode;
; 679  :         }
; 680  : 
; 681  :         _STL_INTERNAL_CHECK(_Loc._Child != _Tree_child::_Unused);
; 682  :         if (_Loc._Child == _Tree_child::_Right) { // add to right of _Loc._Parent

  00033	83 7d 0c 00	 cmp	 DWORD PTR __Loc$[ebp+4], 0
  00037	75 0d		 jne	 SHORT $LN6@Insert_nod

; 683  :             _STL_INTERNAL_CHECK(_Loc._Parent->_Right->_Isnil);
; 684  :             _Loc._Parent->_Right = _Newnode;

  00039	89 7a 08	 mov	 DWORD PTR [edx+8], edi

; 685  :             if (_Loc._Parent == _Head->_Right) { // remember rightmost node

  0003c	3b 50 08	 cmp	 edx, DWORD PTR [eax+8]
  0003f	75 0d		 jne	 SHORT $LN9@Insert_nod

; 686  :                 _Head->_Right = _Newnode;

  00041	89 78 08	 mov	 DWORD PTR [eax+8], edi

; 687  :             }
; 688  :         } else { // add to left of _Loc._Parent

  00044	eb 08		 jmp	 SHORT $LN9@Insert_nod
$LN6@Insert_nod:

; 689  :             _STL_INTERNAL_CHECK(_Loc._Parent->_Left->_Isnil);
; 690  :             _Loc._Parent->_Left = _Newnode;

  00046	89 3a		 mov	 DWORD PTR [edx], edi

; 691  :             if (_Loc._Parent == _Head->_Left) { // remember leftmost node

  00048	3b 10		 cmp	 edx, DWORD PTR [eax]
  0004a	75 02		 jne	 SHORT $LN9@Insert_nod

; 692  :                 _Head->_Left = _Newnode;

  0004c	89 38		 mov	 DWORD PTR [eax], edi
$LN9@Insert_nod:

; 693  :             }
; 694  :         }
; 695  : 
; 696  :         for (_Nodeptr _Pnode = _Newnode; _Pnode->_Parent->_Color == _Red;) {

  0004e	8b 4f 04	 mov	 ecx, DWORD PTR [edi+4]
  00051	8b c7		 mov	 eax, edi
  00053	80 79 0c 00	 cmp	 BYTE PTR [ecx+12], 0
  00057	0f 85 7d 01 00
	00		 jne	 $LN3@Insert_nod
  0005d	56		 push	 esi
  0005e	66 90		 npad	 2
$LL4@Insert_nod:

; 697  :             if (_Pnode->_Parent == _Pnode->_Parent->_Parent->_Left) { // fixup red-red in left subtree

  00060	8b 50 04	 mov	 edx, DWORD PTR [eax+4]
  00063	8b 72 04	 mov	 esi, DWORD PTR [edx+4]
  00066	8b 0e		 mov	 ecx, DWORD PTR [esi]
  00068	3b d1		 cmp	 edx, ecx
  0006a	0f 85 aa 00 00
	00		 jne	 $LN10@Insert_nod

; 698  :                 const auto _Parent_sibling = _Pnode->_Parent->_Parent->_Right;

  00070	8b 4e 08	 mov	 ecx, DWORD PTR [esi+8]

; 699  :                 if (_Parent_sibling->_Color == _Red) { // parent's sibling has two red children, blacken both

  00073	80 79 0c 00	 cmp	 BYTE PTR [ecx+12], 0
  00077	0f 84 a3 00 00
	00		 je	 $LN82@Insert_nod

; 700  :                     _Pnode->_Parent->_Color          = _Black;
; 701  :                     _Parent_sibling->_Color          = _Black;
; 702  :                     _Pnode->_Parent->_Parent->_Color = _Red;
; 703  :                     _Pnode                           = _Pnode->_Parent->_Parent;
; 704  :                 } else { // parent's sibling has red and black children
; 705  :                     if (_Pnode == _Pnode->_Parent->_Right) { // rotate right child to left

  0007d	8b 72 08	 mov	 esi, DWORD PTR [edx+8]
  00080	3b c6		 cmp	 eax, esi
  00082	75 37		 jne	 SHORT $LN57@Insert_nod

; 485  :         _Wherenode->_Right = _Pnode->_Left;

  00084	8b 0e		 mov	 ecx, DWORD PTR [esi]

; 706  :                         _Pnode = _Pnode->_Parent;

  00086	8b c2		 mov	 eax, edx

; 485  :         _Wherenode->_Right = _Pnode->_Left;

  00088	89 4a 08	 mov	 DWORD PTR [edx+8], ecx

; 486  : 
; 487  :         if (!_Pnode->_Left->_Isnil) {

  0008b	8b 0e		 mov	 ecx, DWORD PTR [esi]
  0008d	80 79 0d 00	 cmp	 BYTE PTR [ecx+13], 0
  00091	75 03		 jne	 SHORT $LN21@Insert_nod

; 488  :             _Pnode->_Left->_Parent = _Wherenode;

  00093	89 41 04	 mov	 DWORD PTR [ecx+4], eax
$LN21@Insert_nod:

; 489  :         }
; 490  : 
; 491  :         _Pnode->_Parent = _Wherenode->_Parent;

  00096	8b 4a 04	 mov	 ecx, DWORD PTR [edx+4]
  00099	89 4e 04	 mov	 DWORD PTR [esi+4], ecx

; 492  : 
; 493  :         if (_Wherenode == _Myhead->_Parent) {

  0009c	8b 0b		 mov	 ecx, DWORD PTR [ebx]
  0009e	3b 41 04	 cmp	 eax, DWORD PTR [ecx+4]
  000a1	75 05		 jne	 SHORT $LN22@Insert_nod

; 494  :             _Myhead->_Parent = _Pnode;

  000a3	89 71 04	 mov	 DWORD PTR [ecx+4], esi
  000a6	eb 0e		 jmp	 SHORT $LN25@Insert_nod
$LN22@Insert_nod:

; 495  :         } else if (_Wherenode == _Wherenode->_Parent->_Left) {

  000a8	8b 4a 04	 mov	 ecx, DWORD PTR [edx+4]
  000ab	3b 01		 cmp	 eax, DWORD PTR [ecx]
  000ad	75 04		 jne	 SHORT $LN24@Insert_nod

; 496  :             _Wherenode->_Parent->_Left = _Pnode;

  000af	89 31		 mov	 DWORD PTR [ecx], esi

; 497  :         } else {

  000b1	eb 03		 jmp	 SHORT $LN25@Insert_nod
$LN24@Insert_nod:

; 498  :             _Wherenode->_Parent->_Right = _Pnode;

  000b3	89 71 08	 mov	 DWORD PTR [ecx+8], esi
$LN25@Insert_nod:

; 499  :         }
; 500  : 
; 501  :         _Pnode->_Left       = _Wherenode;

  000b6	89 06		 mov	 DWORD PTR [esi], eax

; 502  :         _Wherenode->_Parent = _Pnode;

  000b8	89 70 04	 mov	 DWORD PTR [eax+4], esi
$LN57@Insert_nod:

; 707  :                         _Lrotate(_Pnode);
; 708  :                     }
; 709  : 
; 710  :                     _Pnode->_Parent->_Color          = _Black; // propagate red up

  000bb	8b 48 04	 mov	 ecx, DWORD PTR [eax+4]
  000be	c6 41 0c 01	 mov	 BYTE PTR [ecx+12], 1

; 711  :                     _Pnode->_Parent->_Parent->_Color = _Red;

  000c2	8b 48 04	 mov	 ecx, DWORD PTR [eax+4]
  000c5	8b 49 04	 mov	 ecx, DWORD PTR [ecx+4]
  000c8	c6 41 0c 00	 mov	 BYTE PTR [ecx+12], 0

; 712  :                     _Rrotate(_Pnode->_Parent->_Parent);

  000cc	8b 48 04	 mov	 ecx, DWORD PTR [eax+4]
  000cf	8b 51 04	 mov	 edx, DWORD PTR [ecx+4]

; 506  :         _Nodeptr _Pnode   = _Wherenode->_Left;

  000d2	8b 32		 mov	 esi, DWORD PTR [edx]

; 507  :         _Wherenode->_Left = _Pnode->_Right;

  000d4	8b 4e 08	 mov	 ecx, DWORD PTR [esi+8]
  000d7	89 0a		 mov	 DWORD PTR [edx], ecx

; 508  : 
; 509  :         if (!_Pnode->_Right->_Isnil) {

  000d9	8b 4e 08	 mov	 ecx, DWORD PTR [esi+8]
  000dc	80 79 0d 00	 cmp	 BYTE PTR [ecx+13], 0
  000e0	75 03		 jne	 SHORT $LN29@Insert_nod

; 510  :             _Pnode->_Right->_Parent = _Wherenode;

  000e2	89 51 04	 mov	 DWORD PTR [ecx+4], edx
$LN29@Insert_nod:

; 511  :         }
; 512  : 
; 513  :         _Pnode->_Parent = _Wherenode->_Parent;

  000e5	8b 4a 04	 mov	 ecx, DWORD PTR [edx+4]
  000e8	89 4e 04	 mov	 DWORD PTR [esi+4], ecx

; 514  : 
; 515  :         if (_Wherenode == _Myhead->_Parent) {

  000eb	8b 0b		 mov	 ecx, DWORD PTR [ebx]
  000ed	3b 51 04	 cmp	 edx, DWORD PTR [ecx+4]
  000f0	75 0b		 jne	 SHORT $LN30@Insert_nod

; 516  :             _Myhead->_Parent = _Pnode;

  000f2	89 71 04	 mov	 DWORD PTR [ecx+4], esi

; 521  :         }
; 522  : 
; 523  :         _Pnode->_Right      = _Wherenode;

  000f5	89 56 08	 mov	 DWORD PTR [esi+8], edx

; 713  :                 }
; 714  :             } else { // fixup red-red in right subtree

  000f8	e9 cc 00 00 00	 jmp	 $LN81@Insert_nod
$LN30@Insert_nod:

; 517  :         } else if (_Wherenode == _Wherenode->_Parent->_Right) {

  000fd	8b 4a 04	 mov	 ecx, DWORD PTR [edx+4]
  00100	3b 51 08	 cmp	 edx, DWORD PTR [ecx+8]
  00103	75 0b		 jne	 SHORT $LN32@Insert_nod

; 518  :             _Wherenode->_Parent->_Right = _Pnode;

  00105	89 71 08	 mov	 DWORD PTR [ecx+8], esi

; 521  :         }
; 522  : 
; 523  :         _Pnode->_Right      = _Wherenode;

  00108	89 56 08	 mov	 DWORD PTR [esi+8], edx

; 713  :                 }
; 714  :             } else { // fixup red-red in right subtree

  0010b	e9 b9 00 00 00	 jmp	 $LN81@Insert_nod
$LN32@Insert_nod:

; 520  :             _Wherenode->_Parent->_Left = _Pnode;

  00110	89 31		 mov	 DWORD PTR [ecx], esi

; 521  :         }
; 522  : 
; 523  :         _Pnode->_Right      = _Wherenode;

  00112	89 56 08	 mov	 DWORD PTR [esi+8], edx

; 713  :                 }
; 714  :             } else { // fixup red-red in right subtree

  00115	e9 af 00 00 00	 jmp	 $LN81@Insert_nod
$LN10@Insert_nod:

; 715  :                 const auto _Parent_sibling = _Pnode->_Parent->_Parent->_Left;
; 716  :                 if (_Parent_sibling->_Color == _Red) { // parent's sibling has two red children, blacken both

  0011a	80 79 0c 00	 cmp	 BYTE PTR [ecx+12], 0
  0011e	75 1d		 jne	 SHORT $LN15@Insert_nod
$LN82@Insert_nod:

; 693  :             }
; 694  :         }
; 695  : 
; 696  :         for (_Nodeptr _Pnode = _Newnode; _Pnode->_Parent->_Color == _Red;) {

  00120	c6 42 0c 01	 mov	 BYTE PTR [edx+12], 1
  00124	c6 41 0c 01	 mov	 BYTE PTR [ecx+12], 1
  00128	8b 48 04	 mov	 ecx, DWORD PTR [eax+4]
  0012b	8b 49 04	 mov	 ecx, DWORD PTR [ecx+4]
  0012e	c6 41 0c 00	 mov	 BYTE PTR [ecx+12], 0
  00132	8b 48 04	 mov	 ecx, DWORD PTR [eax+4]
  00135	8b 41 04	 mov	 eax, DWORD PTR [ecx+4]
  00138	e9 8f 00 00 00	 jmp	 $LN2@Insert_nod
$LN15@Insert_nod:

; 717  :                     _Pnode->_Parent->_Color          = _Black;
; 718  :                     _Parent_sibling->_Color          = _Black;
; 719  :                     _Pnode->_Parent->_Parent->_Color = _Red;
; 720  :                     _Pnode                           = _Pnode->_Parent->_Parent;
; 721  :                 } else { // parent's sibling has red and black children
; 722  :                     if (_Pnode == _Pnode->_Parent->_Left) { // rotate left child to right

  0013d	8b 32		 mov	 esi, DWORD PTR [edx]
  0013f	3b c6		 cmp	 eax, esi
  00141	75 3a		 jne	 SHORT $LN42@Insert_nod

; 507  :         _Wherenode->_Left = _Pnode->_Right;

  00143	8b 4e 08	 mov	 ecx, DWORD PTR [esi+8]

; 723  :                         _Pnode = _Pnode->_Parent;

  00146	8b c2		 mov	 eax, edx

; 507  :         _Wherenode->_Left = _Pnode->_Right;

  00148	89 08		 mov	 DWORD PTR [eax], ecx

; 508  : 
; 509  :         if (!_Pnode->_Right->_Isnil) {

  0014a	8b 4e 08	 mov	 ecx, DWORD PTR [esi+8]
  0014d	80 79 0d 00	 cmp	 BYTE PTR [ecx+13], 0
  00151	75 03		 jne	 SHORT $LN37@Insert_nod

; 510  :             _Pnode->_Right->_Parent = _Wherenode;

  00153	89 41 04	 mov	 DWORD PTR [ecx+4], eax
$LN37@Insert_nod:

; 511  :         }
; 512  : 
; 513  :         _Pnode->_Parent = _Wherenode->_Parent;

  00156	8b 4a 04	 mov	 ecx, DWORD PTR [edx+4]
  00159	89 4e 04	 mov	 DWORD PTR [esi+4], ecx

; 514  : 
; 515  :         if (_Wherenode == _Myhead->_Parent) {

  0015c	8b 0b		 mov	 ecx, DWORD PTR [ebx]
  0015e	3b 41 04	 cmp	 eax, DWORD PTR [ecx+4]
  00161	75 05		 jne	 SHORT $LN38@Insert_nod

; 516  :             _Myhead->_Parent = _Pnode;

  00163	89 71 04	 mov	 DWORD PTR [ecx+4], esi
  00166	eb 0f		 jmp	 SHORT $LN41@Insert_nod
$LN38@Insert_nod:

; 517  :         } else if (_Wherenode == _Wherenode->_Parent->_Right) {

  00168	8b 4a 04	 mov	 ecx, DWORD PTR [edx+4]
  0016b	3b 41 08	 cmp	 eax, DWORD PTR [ecx+8]
  0016e	75 05		 jne	 SHORT $LN40@Insert_nod

; 518  :             _Wherenode->_Parent->_Right = _Pnode;

  00170	89 71 08	 mov	 DWORD PTR [ecx+8], esi

; 519  :         } else {

  00173	eb 02		 jmp	 SHORT $LN41@Insert_nod
$LN40@Insert_nod:

; 520  :             _Wherenode->_Parent->_Left = _Pnode;

  00175	89 31		 mov	 DWORD PTR [ecx], esi
$LN41@Insert_nod:

; 521  :         }
; 522  : 
; 523  :         _Pnode->_Right      = _Wherenode;

  00177	89 46 08	 mov	 DWORD PTR [esi+8], eax

; 524  :         _Wherenode->_Parent = _Pnode;

  0017a	89 70 04	 mov	 DWORD PTR [eax+4], esi
$LN42@Insert_nod:

; 724  :                         _Rrotate(_Pnode);
; 725  :                     }
; 726  : 
; 727  :                     _Pnode->_Parent->_Color          = _Black; // propagate red up

  0017d	8b 48 04	 mov	 ecx, DWORD PTR [eax+4]
  00180	c6 41 0c 01	 mov	 BYTE PTR [ecx+12], 1

; 728  :                     _Pnode->_Parent->_Parent->_Color = _Red;

  00184	8b 48 04	 mov	 ecx, DWORD PTR [eax+4]
  00187	8b 49 04	 mov	 ecx, DWORD PTR [ecx+4]
  0018a	c6 41 0c 00	 mov	 BYTE PTR [ecx+12], 0

; 729  :                     _Lrotate(_Pnode->_Parent->_Parent);

  0018e	8b 48 04	 mov	 ecx, DWORD PTR [eax+4]
  00191	8b 51 04	 mov	 edx, DWORD PTR [ecx+4]

; 484  :         _Nodeptr _Pnode    = _Wherenode->_Right;

  00194	8b 72 08	 mov	 esi, DWORD PTR [edx+8]

; 485  :         _Wherenode->_Right = _Pnode->_Left;

  00197	8b 0e		 mov	 ecx, DWORD PTR [esi]
  00199	89 4a 08	 mov	 DWORD PTR [edx+8], ecx

; 486  : 
; 487  :         if (!_Pnode->_Left->_Isnil) {

  0019c	8b 0e		 mov	 ecx, DWORD PTR [esi]
  0019e	80 79 0d 00	 cmp	 BYTE PTR [ecx+13], 0
  001a2	75 03		 jne	 SHORT $LN45@Insert_nod

; 488  :             _Pnode->_Left->_Parent = _Wherenode;

  001a4	89 51 04	 mov	 DWORD PTR [ecx+4], edx
$LN45@Insert_nod:

; 489  :         }
; 490  : 
; 491  :         _Pnode->_Parent = _Wherenode->_Parent;

  001a7	8b 4a 04	 mov	 ecx, DWORD PTR [edx+4]
  001aa	89 4e 04	 mov	 DWORD PTR [esi+4], ecx

; 492  : 
; 493  :         if (_Wherenode == _Myhead->_Parent) {

  001ad	8b 0b		 mov	 ecx, DWORD PTR [ebx]
  001af	3b 51 04	 cmp	 edx, DWORD PTR [ecx+4]
  001b2	75 05		 jne	 SHORT $LN46@Insert_nod

; 494  :             _Myhead->_Parent = _Pnode;

  001b4	89 71 04	 mov	 DWORD PTR [ecx+4], esi
  001b7	eb 0e		 jmp	 SHORT $LN49@Insert_nod
$LN46@Insert_nod:

; 495  :         } else if (_Wherenode == _Wherenode->_Parent->_Left) {

  001b9	8b 4a 04	 mov	 ecx, DWORD PTR [edx+4]
  001bc	3b 11		 cmp	 edx, DWORD PTR [ecx]
  001be	75 04		 jne	 SHORT $LN48@Insert_nod

; 496  :             _Wherenode->_Parent->_Left = _Pnode;

  001c0	89 31		 mov	 DWORD PTR [ecx], esi

; 497  :         } else {

  001c2	eb 03		 jmp	 SHORT $LN49@Insert_nod
$LN48@Insert_nod:

; 498  :             _Wherenode->_Parent->_Right = _Pnode;

  001c4	89 71 08	 mov	 DWORD PTR [ecx+8], esi
$LN49@Insert_nod:

; 499  :         }
; 500  : 
; 501  :         _Pnode->_Left       = _Wherenode;

  001c7	89 16		 mov	 DWORD PTR [esi], edx
$LN81@Insert_nod:

; 693  :             }
; 694  :         }
; 695  : 
; 696  :         for (_Nodeptr _Pnode = _Newnode; _Pnode->_Parent->_Color == _Red;) {

  001c9	89 72 04	 mov	 DWORD PTR [edx+4], esi
$LN2@Insert_nod:
  001cc	8b 48 04	 mov	 ecx, DWORD PTR [eax+4]
  001cf	80 79 0c 00	 cmp	 BYTE PTR [ecx+12], 0
  001d3	0f 84 87 fe ff
	ff		 je	 $LL4@Insert_nod
  001d9	5e		 pop	 esi
$LN3@Insert_nod:

; 730  :                 }
; 731  :             }
; 732  :         }
; 733  : 
; 734  :         _Head->_Parent->_Color = _Black; // root is always black

  001da	8b 45 fc	 mov	 eax, DWORD PTR __Head$1$[ebp]
  001dd	8b 40 04	 mov	 eax, DWORD PTR [eax+4]
  001e0	c6 40 0c 01	 mov	 BYTE PTR [eax+12], 1

; 735  :         return _Newnode;
; 736  :     }

  001e4	8b c7		 mov	 eax, edi
  001e6	5f		 pop	 edi
  001e7	5b		 pop	 ebx
  001e8	8b e5		 mov	 esp, ebp
  001ea	5d		 pop	 ebp
  001eb	c2 0c 00	 ret	 12			; 0000000cH
?_Insert_node@?$_Tree_val@U?$_Tree_simple_types@U?$pair@$$CBKPAVCGuildHouseBase@@@std@@@std@@@std@@QAEPAU?$_Tree_node@U?$pair@$$CBKPAVCGuildHouseBase@@@std@@PAX@2@U?$_Tree_id@PAU?$_Tree_node@U?$pair@$$CBKPAVCGuildHouseBase@@@std@@PAX@std@@@2@QAU32@@Z ENDP ; std::_Tree_val<std::_Tree_simple_types<std::pair<unsigned long const ,CGuildHouseBase *> > >::_Insert_node
_TEXT	ENDS
; Function compile flags: /Ogtp
; File C:\Program Files\Microsoft Visual Studio\2022\Professional\VC\Tools\MSVC\14.44.35207\include\xtree
; File C:\Program Files\Microsoft Visual Studio\2022\Professional\VC\Tools\MSVC\14.44.35207\include\utility
; File C:\Program Files\Microsoft Visual Studio\2022\Professional\VC\Tools\MSVC\14.44.35207\include\xtree
;	COMDAT ?_Extract@?$_Tree_val@U?$_Tree_simple_types@U?$pair@$$CBKPAVCGuildHouseBase@@@std@@@std@@@std@@QAEPAU?$_Tree_node@U?$pair@$$CBKPAVCGuildHouseBase@@@std@@PAX@2@V?$_Tree_unchecked_const_iterator@V?$_Tree_val@U?$_Tree_simple_types@U?$pair@$$CBKPAVCGuildHouseBase@@@std@@@std@@@std@@U_Iterator_base0@2@@2@@Z
_TEXT	SEGMENT
tv1039 = -16						; size = 4
tv1073 = -12						; size = 4
tv1093 = -12						; size = 4
$T1 = -12						; size = 4
__Erasednode$1$ = -8					; size = 4
_this$1$ = -4						; size = 4
__Where$ = 8						; size = 4
?_Extract@?$_Tree_val@U?$_Tree_simple_types@U?$pair@$$CBKPAVCGuildHouseBase@@@std@@@std@@@std@@QAEPAU?$_Tree_node@U?$pair@$$CBKPAVCGuildHouseBase@@@std@@PAX@2@V?$_Tree_unchecked_const_iterator@V?$_Tree_val@U?$_Tree_simple_types@U?$pair@$$CBKPAVCGuildHouseBase@@@std@@@std@@@std@@U_Iterator_base0@2@@2@@Z PROC ; std::_Tree_val<std::_Tree_simple_types<std::pair<unsigned long const ,CGuildHouseBase *> > >::_Extract, COMDAT
; _this$ = ecx

; 527  :     _Nodeptr _Extract(_Unchecked_const_iterator _Where) noexcept {

  00000	55		 push	 ebp
  00001	8b ec		 mov	 ebp, esp
  00003	83 ec 10	 sub	 esp, 16			; 00000010H

; 528  :         _Nodeptr _Erasednode = _Where._Ptr; // node to erase

  00006	8b 45 08	 mov	 eax, DWORD PTR __Where$[ebp]
  00009	53		 push	 ebx
  0000a	56		 push	 esi
  0000b	8b d9		 mov	 ebx, ecx
  0000d	89 45 f8	 mov	 DWORD PTR __Erasednode$1$[ebp], eax
  00010	57		 push	 edi

; 529  :         ++_Where; // save successor iterator for return

  00011	8d 4d 08	 lea	 ecx, DWORD PTR __Where$[ebp]
  00014	89 5d fc	 mov	 DWORD PTR _this$1$[ebp], ebx
  00017	e8 00 00 00 00	 call	 ??E?$_Tree_unchecked_const_iterator@V?$_Tree_val@U?$_Tree_simple_types@U?$pair@$$CBKPAVCGuildHouseBase@@@std@@@std@@@std@@U_Iterator_base0@2@@std@@QAEAAV01@XZ ; std::_Tree_unchecked_const_iterator<std::_Tree_val<std::_Tree_simple_types<std::pair<unsigned long const ,CGuildHouseBase *> > >,std::_Iterator_base0>::operator++

; 530  : 
; 531  :         _Nodeptr _Fixnode; // the node to recolor as needed
; 532  :         _Nodeptr _Fixnodeparent; // parent of _Fixnode (which may be nil)
; 533  :         _Nodeptr _Pnode = _Erasednode;
; 534  : 
; 535  :         if (_Pnode->_Left->_Isnil) {

  0001c	8b 4d f8	 mov	 ecx, DWORD PTR __Erasednode$1$[ebp]
  0001f	8b 01		 mov	 eax, DWORD PTR [ecx]
  00021	8b 79 08	 mov	 edi, DWORD PTR [ecx+8]
  00024	80 78 0d 00	 cmp	 BYTE PTR [eax+13], 0
  00028	75 18		 jne	 SHORT $LN94@Extract

; 536  :             _Fixnode = _Pnode->_Right; // stitch up right subtree
; 537  :         } else if (_Pnode->_Right->_Isnil) {

  0002a	80 7f 0d 00	 cmp	 BYTE PTR [edi+13], 0
  0002e	74 04		 je	 SHORT $LN7@Extract

; 538  :             _Fixnode = _Pnode->_Left; // stitch up left subtree

  00030	8b f8		 mov	 edi, eax

; 539  :         } else { // two subtrees, must lift successor node to replace erased

  00032	eb 0e		 jmp	 SHORT $LN94@Extract
$LN7@Extract:

; 540  :             _Pnode   = _Where._Ptr; // _Pnode is successor node

  00034	8b 55 08	 mov	 edx, DWORD PTR __Where$[ebp]

; 541  :             _Fixnode = _Pnode->_Right; // _Fixnode is only subtree

  00037	8b 7a 08	 mov	 edi, DWORD PTR [edx+8]
  0003a	3b d1		 cmp	 edx, ecx

; 542  :         }
; 543  : 
; 544  :         if (_Pnode == _Erasednode) { // at most one subtree, relink it

  0003c	0f 85 91 00 00
	00		 jne	 $LN9@Extract
$LN94@Extract:

; 545  :             _Fixnodeparent = _Erasednode->_Parent;
; 546  :             if (!_Fixnode->_Isnil) {

  00042	80 7f 0d 00	 cmp	 BYTE PTR [edi+13], 0
  00046	8b 71 04	 mov	 esi, DWORD PTR [ecx+4]
  00049	75 03		 jne	 SHORT $LN11@Extract

; 547  :                 _Fixnode->_Parent = _Fixnodeparent; // link up

  0004b	89 77 04	 mov	 DWORD PTR [edi+4], esi
$LN11@Extract:

; 548  :             }
; 549  : 
; 550  :             if (_Myhead->_Parent == _Erasednode) {

  0004e	8b 03		 mov	 eax, DWORD PTR [ebx]
  00050	39 48 04	 cmp	 DWORD PTR [eax+4], ecx
  00053	75 05		 jne	 SHORT $LN12@Extract

; 551  :                 _Myhead->_Parent = _Fixnode; // link down from root

  00055	89 78 04	 mov	 DWORD PTR [eax+4], edi
  00058	eb 0b		 jmp	 SHORT $LN15@Extract
$LN12@Extract:

; 552  :             } else if (_Fixnodeparent->_Left == _Erasednode) {

  0005a	39 0e		 cmp	 DWORD PTR [esi], ecx
  0005c	75 04		 jne	 SHORT $LN14@Extract

; 553  :                 _Fixnodeparent->_Left = _Fixnode; // link down to left

  0005e	89 3e		 mov	 DWORD PTR [esi], edi

; 554  :             } else {

  00060	eb 03		 jmp	 SHORT $LN15@Extract
$LN14@Extract:

; 555  :                 _Fixnodeparent->_Right = _Fixnode; // link down to right

  00062	89 7e 08	 mov	 DWORD PTR [esi+8], edi
$LN15@Extract:

; 556  :             }
; 557  : 
; 558  :             if (_Myhead->_Left == _Erasednode) {

  00065	8b 03		 mov	 eax, DWORD PTR [ebx]
  00067	39 08		 cmp	 DWORD PTR [eax], ecx
  00069	75 28		 jne	 SHORT $LN16@Extract

; 559  :                 _Myhead->_Left = _Fixnode->_Isnil ? _Fixnodeparent // smallest is parent of erased node

  0006b	80 7f 0d 00	 cmp	 BYTE PTR [edi+13], 0
  0006f	74 04		 je	 SHORT $LN42@Extract
  00071	8b d6		 mov	 edx, esi
  00073	eb 1c		 jmp	 SHORT $LN43@Extract
$LN42@Extract:

; 476  :         while (!_Pnode->_Left->_Isnil) {

  00075	8b 0f		 mov	 ecx, DWORD PTR [edi]

; 559  :                 _Myhead->_Left = _Fixnode->_Isnil ? _Fixnodeparent // smallest is parent of erased node

  00077	8b d7		 mov	 edx, edi

; 476  :         while (!_Pnode->_Left->_Isnil) {

  00079	80 79 0d 00	 cmp	 BYTE PTR [ecx+13], 0
  0007d	75 0f		 jne	 SHORT $LN49@Extract
  0007f	90		 npad	 1
$LL48@Extract:
  00080	8b 01		 mov	 eax, DWORD PTR [ecx]

; 477  :             _Pnode = _Pnode->_Left;

  00082	8b d1		 mov	 edx, ecx
  00084	8b c8		 mov	 ecx, eax
  00086	80 78 0d 00	 cmp	 BYTE PTR [eax+13], 0
  0008a	74 f4		 je	 SHORT $LL48@Extract
  0008c	8b 03		 mov	 eax, DWORD PTR [ebx]
$LN49@Extract:
  0008e	8b 4d f8	 mov	 ecx, DWORD PTR __Erasednode$1$[ebp]
$LN43@Extract:

; 559  :                 _Myhead->_Left = _Fixnode->_Isnil ? _Fixnodeparent // smallest is parent of erased node

  00091	89 10		 mov	 DWORD PTR [eax], edx
$LN16@Extract:

; 560  :                                                   : _Min(_Fixnode); // smallest in relinked subtree
; 561  :             }
; 562  : 
; 563  :             if (_Myhead->_Right == _Erasednode) {

  00093	8b 13		 mov	 edx, DWORD PTR [ebx]
  00095	39 4a 08	 cmp	 DWORD PTR [edx+8], ecx
  00098	75 34		 jne	 SHORT $LN17@Extract

; 564  :                 _Myhead->_Right = _Fixnode->_Isnil ? _Fixnodeparent // largest is parent of erased node

  0009a	80 7f 0d 00	 cmp	 BYTE PTR [edi+13], 0
  0009e	74 0d		 je	 SHORT $LN44@Extract

; 565  :                                                    : _Max(_Fixnode); // largest in relinked subtree
; 566  :             }
; 567  :         } else { // erased has two subtrees, _Pnode is successor to erased

  000a0	8b 45 f8	 mov	 eax, DWORD PTR __Erasednode$1$[ebp]
  000a3	8b ce		 mov	 ecx, esi
  000a5	89 4a 08	 mov	 DWORD PTR [edx+8], ecx
  000a8	e9 94 00 00 00	 jmp	 $LN58@Extract
$LN44@Extract:

; 468  :         while (!_Pnode->_Right->_Isnil) {

  000ad	8b 47 08	 mov	 eax, DWORD PTR [edi+8]

; 564  :                 _Myhead->_Right = _Fixnode->_Isnil ? _Fixnodeparent // largest is parent of erased node

  000b0	8b cf		 mov	 ecx, edi

; 468  :         while (!_Pnode->_Right->_Isnil) {

  000b2	80 78 0d 00	 cmp	 BYTE PTR [eax+13], 0
  000b6	75 13		 jne	 SHORT $LN54@Extract
  000b8	0f 1f 84 00 00
	00 00 00	 npad	 8
$LL53@Extract:

; 469  :             _Pnode = _Pnode->_Right;

  000c0	8b c8		 mov	 ecx, eax
  000c2	8b 41 08	 mov	 eax, DWORD PTR [ecx+8]
  000c5	80 78 0d 00	 cmp	 BYTE PTR [eax+13], 0
  000c9	74 f5		 je	 SHORT $LL53@Extract
$LN54@Extract:

; 564  :                 _Myhead->_Right = _Fixnode->_Isnil ? _Fixnodeparent // largest is parent of erased node

  000cb	89 4a 08	 mov	 DWORD PTR [edx+8], ecx
$LN17@Extract:

; 565  :                                                    : _Max(_Fixnode); // largest in relinked subtree
; 566  :             }
; 567  :         } else { // erased has two subtrees, _Pnode is successor to erased

  000ce	8b 45 f8	 mov	 eax, DWORD PTR __Erasednode$1$[ebp]
  000d1	eb 6e		 jmp	 SHORT $LN58@Extract
$LN9@Extract:

; 568  :             _Erasednode->_Left->_Parent = _Pnode; // link left up

  000d3	89 50 04	 mov	 DWORD PTR [eax+4], edx

; 569  :             _Pnode->_Left               = _Erasednode->_Left; // link successor down

  000d6	8b 01		 mov	 eax, DWORD PTR [ecx]
  000d8	89 02		 mov	 DWORD PTR [edx], eax

; 570  : 
; 571  :             if (_Pnode == _Erasednode->_Right) {

  000da	8d 42 04	 lea	 eax, DWORD PTR [edx+4]
  000dd	89 45 f4	 mov	 DWORD PTR $T1[ebp], eax
  000e0	3b 51 08	 cmp	 edx, DWORD PTR [ecx+8]
  000e3	75 04		 jne	 SHORT $LN18@Extract

; 572  :                 _Fixnodeparent = _Pnode; // successor is next to erased

  000e5	8b f2		 mov	 esi, edx

; 573  :             } else { // successor further down, link in place of erased

  000e7	eb 1f		 jmp	 SHORT $LN19@Extract
$LN18@Extract:

; 574  :                 _Fixnodeparent = _Pnode->_Parent; // parent is successor's
; 575  :                 if (!_Fixnode->_Isnil) {

  000e9	80 7f 0d 00	 cmp	 BYTE PTR [edi+13], 0
  000ed	8b 30		 mov	 esi, DWORD PTR [eax]
  000ef	75 03		 jne	 SHORT $LN20@Extract

; 576  :                     _Fixnode->_Parent = _Fixnodeparent; // link fix up

  000f1	89 77 04	 mov	 DWORD PTR [edi+4], esi
$LN20@Extract:

; 577  :                 }
; 578  : 
; 579  :                 _Fixnodeparent->_Left        = _Fixnode; // link fix down

  000f4	89 3e		 mov	 DWORD PTR [esi], edi

; 580  :                 _Pnode->_Right               = _Erasednode->_Right; // link next down

  000f6	8b 41 08	 mov	 eax, DWORD PTR [ecx+8]
  000f9	89 42 08	 mov	 DWORD PTR [edx+8], eax

; 581  :                 _Erasednode->_Right->_Parent = _Pnode; // right up

  000fc	8b 41 08	 mov	 eax, DWORD PTR [ecx+8]
  000ff	89 50 04	 mov	 DWORD PTR [eax+4], edx
  00102	8d 42 04	 lea	 eax, DWORD PTR [edx+4]
  00105	89 45 f4	 mov	 DWORD PTR $T1[ebp], eax
$LN19@Extract:

; 582  :             }
; 583  : 
; 584  :             if (_Myhead->_Parent == _Erasednode) {

  00108	8b 03		 mov	 eax, DWORD PTR [ebx]
  0010a	39 48 04	 cmp	 DWORD PTR [eax+4], ecx
  0010d	75 05		 jne	 SHORT $LN21@Extract

; 585  :                 _Myhead->_Parent = _Pnode; // link down from root

  0010f	89 50 04	 mov	 DWORD PTR [eax+4], edx
  00112	eb 0e		 jmp	 SHORT $LN141@Extract
$LN21@Extract:

; 586  :             } else if (_Erasednode->_Parent->_Left == _Erasednode) {

  00114	8b 41 04	 mov	 eax, DWORD PTR [ecx+4]
  00117	39 08		 cmp	 DWORD PTR [eax], ecx
  00119	75 04		 jne	 SHORT $LN23@Extract

; 587  :                 _Erasednode->_Parent->_Left = _Pnode; // link down to left

  0011b	89 10		 mov	 DWORD PTR [eax], edx

; 588  :             } else {

  0011d	eb 03		 jmp	 SHORT $LN141@Extract
$LN23@Extract:

; 589  :                 _Erasednode->_Parent->_Right = _Pnode; // link down to right

  0011f	89 50 08	 mov	 DWORD PTR [eax+8], edx
$LN141@Extract:

; 590  :             }
; 591  : 
; 592  :             _Pnode->_Parent = _Erasednode->_Parent; // link successor up

  00122	b8 04 00 00 00	 mov	 eax, 4
  00127	8b 04 08	 mov	 eax, DWORD PTR [eax+ecx]
  0012a	8b 4d f4	 mov	 ecx, DWORD PTR $T1[ebp]
  0012d	89 01		 mov	 DWORD PTR [ecx], eax
; File C:\Program Files\Microsoft Visual Studio\2022\Professional\VC\Tools\MSVC\14.44.35207\include\utility

; 140  :     _Left    = _STD move(_Right);

  0012f	8b 45 f8	 mov	 eax, DWORD PTR __Erasednode$1$[ebp]
  00132	8a 4a 0c	 mov	 cl, BYTE PTR [edx+12]
  00135	8a 40 0c	 mov	 al, BYTE PTR [eax+12]
  00138	88 42 0c	 mov	 BYTE PTR [edx+12], al

; 141  :     _Right   = _STD move(_Tmp);

  0013b	8b 45 f8	 mov	 eax, DWORD PTR __Erasednode$1$[ebp]
  0013e	88 48 0c	 mov	 BYTE PTR [eax+12], cl
$LN58@Extract:
; File C:\Program Files\Microsoft Visual Studio\2022\Professional\VC\Tools\MSVC\14.44.35207\include\xtree

; 596  :         if (_Erasednode->_Color == _Black) { // erasing black link, must recolor/rebalance tree

  00141	80 78 0c 01	 cmp	 BYTE PTR [eax+12], 1
  00145	0f 85 ba 01 00
	00		 jne	 $LN25@Extract

; 597  :             for (; _Fixnode != _Myhead->_Parent && _Fixnode->_Color == _Black; _Fixnodeparent = _Fixnode->_Parent) {

  0014b	8b 03		 mov	 eax, DWORD PTR [ebx]
  0014d	3b 78 04	 cmp	 edi, DWORD PTR [eax+4]
  00150	0f 84 a8 01 00
	00		 je	 $LN3@Extract
  00156	80 7f 0c 01	 cmp	 BYTE PTR [edi+12], 1
  0015a	89 75 f4	 mov	 DWORD PTR tv1093[ebp], esi
  0015d	0f 85 9b 01 00
	00		 jne	 $LN3@Extract
$LL4@Extract:

; 598  :                 if (_Fixnode == _Fixnodeparent->_Left) { // fixup left subtree

  00163	8b 0e		 mov	 ecx, DWORD PTR [esi]
  00165	3b f9		 cmp	 edi, ecx
  00167	0f 85 be 00 00
	00		 jne	 $LN26@Extract

; 599  :                     _Pnode = _Fixnodeparent->_Right;

  0016d	8b 4e 08	 mov	 ecx, DWORD PTR [esi+8]

; 600  :                     if (_Pnode->_Color == _Red) { // rotate red up from right subtree

  00170	80 79 0c 00	 cmp	 BYTE PTR [ecx+12], 0
  00174	75 54		 jne	 SHORT $LN95@Extract

; 601  :                         _Pnode->_Color         = _Black;

  00176	c6 41 0c 01	 mov	 BYTE PTR [ecx+12], 1

; 484  :         _Nodeptr _Pnode    = _Wherenode->_Right;

  0017a	8b 4e 08	 mov	 ecx, DWORD PTR [esi+8]

; 602  :                         _Fixnodeparent->_Color = _Red;

  0017d	c6 46 0c 00	 mov	 BYTE PTR [esi+12], 0

; 485  :         _Wherenode->_Right = _Pnode->_Left;

  00181	8b 01		 mov	 eax, DWORD PTR [ecx]
  00183	89 46 08	 mov	 DWORD PTR [esi+8], eax

; 486  : 
; 487  :         if (!_Pnode->_Left->_Isnil) {

  00186	8b 01		 mov	 eax, DWORD PTR [ecx]
  00188	80 78 0d 00	 cmp	 BYTE PTR [eax+13], 0
  0018c	75 03		 jne	 SHORT $LN61@Extract

; 488  :             _Pnode->_Left->_Parent = _Wherenode;

  0018e	89 70 04	 mov	 DWORD PTR [eax+4], esi
$LN61@Extract:

; 489  :         }
; 490  : 
; 491  :         _Pnode->_Parent = _Wherenode->_Parent;

  00191	8b 46 04	 mov	 eax, DWORD PTR [esi+4]
  00194	8d 56 04	 lea	 edx, DWORD PTR [esi+4]
  00197	89 41 04	 mov	 DWORD PTR [ecx+4], eax

; 492  : 
; 493  :         if (_Wherenode == _Myhead->_Parent) {

  0019a	8b 03		 mov	 eax, DWORD PTR [ebx]
  0019c	3b 70 04	 cmp	 esi, DWORD PTR [eax+4]
  0019f	75 0c		 jne	 SHORT $LN62@Extract

; 494  :             _Myhead->_Parent = _Pnode;

  001a1	89 48 04	 mov	 DWORD PTR [eax+4], ecx

; 499  :         }
; 500  : 
; 501  :         _Pnode->_Left       = _Wherenode;

  001a4	89 31		 mov	 DWORD PTR [ecx], esi

; 502  :         _Wherenode->_Parent = _Pnode;

  001a6	89 0a		 mov	 DWORD PTR [edx], ecx

; 603  :                         _Lrotate(_Fixnodeparent);
; 604  :                         _Pnode = _Fixnodeparent->_Right;

  001a8	8b 4e 08	 mov	 ecx, DWORD PTR [esi+8]
  001ab	eb 20		 jmp	 SHORT $LN87@Extract
$LN62@Extract:

; 495  :         } else if (_Wherenode == _Wherenode->_Parent->_Left) {

  001ad	8b 02		 mov	 eax, DWORD PTR [edx]
  001af	3b 30		 cmp	 esi, DWORD PTR [eax]
  001b1	75 0b		 jne	 SHORT $LN64@Extract

; 496  :             _Wherenode->_Parent->_Left = _Pnode;

  001b3	89 08		 mov	 DWORD PTR [eax], ecx

; 499  :         }
; 500  : 
; 501  :         _Pnode->_Left       = _Wherenode;

  001b5	89 31		 mov	 DWORD PTR [ecx], esi

; 502  :         _Wherenode->_Parent = _Pnode;

  001b7	89 0a		 mov	 DWORD PTR [edx], ecx

; 603  :                         _Lrotate(_Fixnodeparent);
; 604  :                         _Pnode = _Fixnodeparent->_Right;

  001b9	8b 4e 08	 mov	 ecx, DWORD PTR [esi+8]
  001bc	eb 0f		 jmp	 SHORT $LN87@Extract
$LN64@Extract:

; 498  :             _Wherenode->_Parent->_Right = _Pnode;

  001be	89 48 08	 mov	 DWORD PTR [eax+8], ecx

; 499  :         }
; 500  : 
; 501  :         _Pnode->_Left       = _Wherenode;

  001c1	89 31		 mov	 DWORD PTR [ecx], esi

; 502  :         _Wherenode->_Parent = _Pnode;

  001c3	89 0a		 mov	 DWORD PTR [edx], ecx

; 603  :                         _Lrotate(_Fixnodeparent);
; 604  :                         _Pnode = _Fixnodeparent->_Right;

  001c5	8b 4e 08	 mov	 ecx, DWORD PTR [esi+8]
  001c8	eb 03		 jmp	 SHORT $LN87@Extract
$LN95@Extract:
  001ca	8d 56 04	 lea	 edx, DWORD PTR [esi+4]
$LN87@Extract:

; 605  :                     }
; 606  : 
; 607  :                     if (_Pnode->_Isnil) {

  001cd	80 79 0d 00	 cmp	 BYTE PTR [ecx+13], 0
  001d1	0f 85 d0 00 00
	00		 jne	 $LN2@Extract

; 608  :                         _Fixnode = _Fixnodeparent; // shouldn't happen
; 609  :                     } else if (_Pnode->_Left->_Color == _Black
; 610  :                                && _Pnode->_Right->_Color == _Black) { // redden right subtree with black children

  001d7	8b 01		 mov	 eax, DWORD PTR [ecx]
  001d9	80 78 0c 01	 cmp	 BYTE PTR [eax+12], 1
  001dd	75 0d		 jne	 SHORT $LN97@Extract
  001df	8b 41 08	 mov	 eax, DWORD PTR [ecx+8]
  001e2	80 78 0c 01	 cmp	 BYTE PTR [eax+12], 1
  001e6	0f 84 b4 00 00
	00		 je	 $LN142@Extract
$LN97@Extract:

; 611  :                         _Pnode->_Color = _Red;
; 612  :                         _Fixnode       = _Fixnodeparent;
; 613  :                     } else { // must rearrange right subtree
; 614  :                         if (_Pnode->_Right->_Color == _Black) { // rotate red up from left sub-subtree

  001ec	8b 41 08	 mov	 eax, DWORD PTR [ecx+8]
  001ef	8b 5d fc	 mov	 ebx, DWORD PTR _this$1$[ebp]
  001f2	80 78 0c 01	 cmp	 BYTE PTR [eax+12], 1
  001f6	75 15		 jne	 SHORT $LN33@Extract

; 615  :                             _Pnode->_Left->_Color = _Black;

  001f8	8b 01		 mov	 eax, DWORD PTR [ecx]

; 616  :                             _Pnode->_Color        = _Red;
; 617  :                             _Rrotate(_Pnode);

  001fa	51		 push	 ecx
  001fb	c6 40 0c 01	 mov	 BYTE PTR [eax+12], 1
  001ff	c6 41 0c 00	 mov	 BYTE PTR [ecx+12], 0
  00203	8b cb		 mov	 ecx, ebx
  00205	e8 00 00 00 00	 call	 ?_Rrotate@?$_Tree_val@U?$_Tree_simple_types@U?$pair@$$CBKPAVCGuildHouseBase@@@std@@@std@@@std@@QAEXPAU?$_Tree_node@U?$pair@$$CBKPAVCGuildHouseBase@@@std@@PAX@2@@Z ; std::_Tree_val<std::_Tree_simple_types<std::pair<unsigned long const ,CGuildHouseBase *> > >::_Rrotate

; 618  :                             _Pnode = _Fixnodeparent->_Right;

  0020a	8b 4e 08	 mov	 ecx, DWORD PTR [esi+8]
$LN33@Extract:

; 619  :                         }
; 620  : 
; 621  :                         _Pnode->_Color         = _Fixnodeparent->_Color;

  0020d	8a 46 0c	 mov	 al, BYTE PTR [esi+12]
  00210	88 41 0c	 mov	 BYTE PTR [ecx+12], al

; 622  :                         _Fixnodeparent->_Color = _Black;

  00213	c6 46 0c 01	 mov	 BYTE PTR [esi+12], 1

; 623  :                         _Pnode->_Right->_Color = _Black;

  00217	8b 41 08	 mov	 eax, DWORD PTR [ecx+8]

; 624  :                         _Lrotate(_Fixnodeparent);

  0021a	8b cb		 mov	 ecx, ebx
  0021c	56		 push	 esi
  0021d	c6 40 0c 01	 mov	 BYTE PTR [eax+12], 1
  00221	e8 00 00 00 00	 call	 ?_Lrotate@?$_Tree_val@U?$_Tree_simple_types@U?$pair@$$CBKPAVCGuildHouseBase@@@std@@@std@@@std@@QAEXPAU?$_Tree_node@U?$pair@$$CBKPAVCGuildHouseBase@@@std@@PAX@2@@Z ; std::_Tree_val<std::_Tree_simple_types<std::pair<unsigned long const ,CGuildHouseBase *> > >::_Lrotate

; 625  :                         break; // tree now recolored/rebalanced

  00226	e9 d3 00 00 00	 jmp	 $LN3@Extract
$LN26@Extract:

; 626  :                     }
; 627  :                 } else { // fixup right subtree
; 628  :                     _Pnode = _Fixnodeparent->_Left;
; 629  :                     if (_Pnode->_Color == _Red) { // rotate red up from left subtree

  0022b	80 79 0c 00	 cmp	 BYTE PTR [ecx+12], 0
  0022f	75 55		 jne	 SHORT $LN96@Extract

; 630  :                         _Pnode->_Color         = _Black;

  00231	c6 41 0c 01	 mov	 BYTE PTR [ecx+12], 1

; 506  :         _Nodeptr _Pnode   = _Wherenode->_Left;

  00235	8b 0e		 mov	 ecx, DWORD PTR [esi]

; 631  :                         _Fixnodeparent->_Color = _Red;

  00237	c6 46 0c 00	 mov	 BYTE PTR [esi+12], 0

; 507  :         _Wherenode->_Left = _Pnode->_Right;

  0023b	8b 41 08	 mov	 eax, DWORD PTR [ecx+8]
  0023e	89 06		 mov	 DWORD PTR [esi], eax

; 508  : 
; 509  :         if (!_Pnode->_Right->_Isnil) {

  00240	8b 41 08	 mov	 eax, DWORD PTR [ecx+8]
  00243	80 78 0d 00	 cmp	 BYTE PTR [eax+13], 0
  00247	75 03		 jne	 SHORT $LN69@Extract

; 510  :             _Pnode->_Right->_Parent = _Wherenode;

  00249	89 70 04	 mov	 DWORD PTR [eax+4], esi
$LN69@Extract:

; 511  :         }
; 512  : 
; 513  :         _Pnode->_Parent = _Wherenode->_Parent;

  0024c	8b 46 04	 mov	 eax, DWORD PTR [esi+4]
  0024f	8d 56 04	 lea	 edx, DWORD PTR [esi+4]
  00252	89 41 04	 mov	 DWORD PTR [ecx+4], eax

; 514  : 
; 515  :         if (_Wherenode == _Myhead->_Parent) {

  00255	8b 03		 mov	 eax, DWORD PTR [ebx]
  00257	3b 70 04	 cmp	 esi, DWORD PTR [eax+4]
  0025a	75 0c		 jne	 SHORT $LN70@Extract

; 516  :             _Myhead->_Parent = _Pnode;

  0025c	89 48 04	 mov	 DWORD PTR [eax+4], ecx

; 521  :         }
; 522  : 
; 523  :         _Pnode->_Right      = _Wherenode;

  0025f	89 71 08	 mov	 DWORD PTR [ecx+8], esi

; 524  :         _Wherenode->_Parent = _Pnode;

  00262	89 0a		 mov	 DWORD PTR [edx], ecx

; 632  :                         _Rrotate(_Fixnodeparent);
; 633  :                         _Pnode = _Fixnodeparent->_Left;

  00264	8b 0e		 mov	 ecx, DWORD PTR [esi]
  00266	eb 21		 jmp	 SHORT $LN86@Extract
$LN70@Extract:

; 517  :         } else if (_Wherenode == _Wherenode->_Parent->_Right) {

  00268	8b 02		 mov	 eax, DWORD PTR [edx]
  0026a	3b 70 08	 cmp	 esi, DWORD PTR [eax+8]
  0026d	75 0c		 jne	 SHORT $LN72@Extract

; 518  :             _Wherenode->_Parent->_Right = _Pnode;

  0026f	89 48 08	 mov	 DWORD PTR [eax+8], ecx

; 521  :         }
; 522  : 
; 523  :         _Pnode->_Right      = _Wherenode;

  00272	89 71 08	 mov	 DWORD PTR [ecx+8], esi

; 524  :         _Wherenode->_Parent = _Pnode;

  00275	89 0a		 mov	 DWORD PTR [edx], ecx

; 632  :                         _Rrotate(_Fixnodeparent);
; 633  :                         _Pnode = _Fixnodeparent->_Left;

  00277	8b 0e		 mov	 ecx, DWORD PTR [esi]
  00279	eb 0e		 jmp	 SHORT $LN86@Extract
$LN72@Extract:

; 520  :             _Wherenode->_Parent->_Left = _Pnode;

  0027b	89 08		 mov	 DWORD PTR [eax], ecx

; 521  :         }
; 522  : 
; 523  :         _Pnode->_Right      = _Wherenode;

  0027d	89 71 08	 mov	 DWORD PTR [ecx+8], esi

; 524  :         _Wherenode->_Parent = _Pnode;

  00280	89 0a		 mov	 DWORD PTR [edx], ecx

; 632  :                         _Rrotate(_Fixnodeparent);
; 633  :                         _Pnode = _Fixnodeparent->_Left;

  00282	8b 0e		 mov	 ecx, DWORD PTR [esi]
  00284	eb 03		 jmp	 SHORT $LN86@Extract
$LN96@Extract:
  00286	8d 56 04	 lea	 edx, DWORD PTR [esi+4]
$LN86@Extract:

; 634  :                     }
; 635  : 
; 636  :                     if (_Pnode->_Isnil) {

  00289	80 79 0d 00	 cmp	 BYTE PTR [ecx+13], 0
  0028d	75 18		 jne	 SHORT $LN2@Extract

; 637  :                         _Fixnode = _Fixnodeparent; // shouldn't happen
; 638  :                     } else if (_Pnode->_Right->_Color == _Black
; 639  :                                && _Pnode->_Left->_Color == _Black) { // redden left subtree with black children

  0028f	8b 59 08	 mov	 ebx, DWORD PTR [ecx+8]
  00292	80 7b 0c 01	 cmp	 BYTE PTR [ebx+12], 1
  00296	75 2c		 jne	 SHORT $LN98@Extract
  00298	8b 01		 mov	 eax, DWORD PTR [ecx]
  0029a	80 78 0c 01	 cmp	 BYTE PTR [eax+12], 1
  0029e	75 24		 jne	 SHORT $LN98@Extract
$LN142@Extract:

; 597  :             for (; _Fixnode != _Myhead->_Parent && _Fixnode->_Color == _Black; _Fixnodeparent = _Fixnode->_Parent) {

  002a0	8b 5d fc	 mov	 ebx, DWORD PTR _this$1$[ebp]
  002a3	c6 41 0c 00	 mov	 BYTE PTR [ecx+12], 0
$LN2@Extract:
  002a7	8b 03		 mov	 eax, DWORD PTR [ebx]
  002a9	8b 4d f4	 mov	 ecx, DWORD PTR tv1093[ebp]
  002ac	8b f9		 mov	 edi, ecx
  002ae	8b 32		 mov	 esi, DWORD PTR [edx]
  002b0	3b 48 04	 cmp	 ecx, DWORD PTR [eax+4]
  002b3	74 49		 je	 SHORT $LN3@Extract
  002b5	80 7f 0c 01	 cmp	 BYTE PTR [edi+12], 1
  002b9	89 75 f4	 mov	 DWORD PTR tv1093[ebp], esi
  002bc	0f 84 a1 fe ff
	ff		 je	 $LL4@Extract
  002c2	eb 3a		 jmp	 SHORT $LN3@Extract
$LN98@Extract:

; 640  :                         _Pnode->_Color = _Red;
; 641  :                         _Fixnode       = _Fixnodeparent;
; 642  :                     } else { // must rearrange left subtree
; 643  :                         if (_Pnode->_Left->_Color == _Black) { // rotate red up from right sub-subtree

  002c4	8b 01		 mov	 eax, DWORD PTR [ecx]
  002c6	80 78 0c 01	 cmp	 BYTE PTR [eax+12], 1
  002ca	75 17		 jne	 SHORT $LN101@Extract

; 644  :                             _Pnode->_Right->_Color = _Black;

  002cc	c6 43 0c 01	 mov	 BYTE PTR [ebx+12], 1

; 645  :                             _Pnode->_Color         = _Red;
; 646  :                             _Lrotate(_Pnode);

  002d0	8b 5d fc	 mov	 ebx, DWORD PTR _this$1$[ebp]
  002d3	c6 41 0c 00	 mov	 BYTE PTR [ecx+12], 0
  002d7	51		 push	 ecx
  002d8	8b cb		 mov	 ecx, ebx
  002da	e8 00 00 00 00	 call	 ?_Lrotate@?$_Tree_val@U?$_Tree_simple_types@U?$pair@$$CBKPAVCGuildHouseBase@@@std@@@std@@@std@@QAEXPAU?$_Tree_node@U?$pair@$$CBKPAVCGuildHouseBase@@@std@@PAX@2@@Z ; std::_Tree_val<std::_Tree_simple_types<std::pair<unsigned long const ,CGuildHouseBase *> > >::_Lrotate

; 647  :                             _Pnode = _Fixnodeparent->_Left;

  002df	8b 0e		 mov	 ecx, DWORD PTR [esi]
  002e1	eb 03		 jmp	 SHORT $LN39@Extract
$LN101@Extract:

; 640  :                         _Pnode->_Color = _Red;
; 641  :                         _Fixnode       = _Fixnodeparent;
; 642  :                     } else { // must rearrange left subtree
; 643  :                         if (_Pnode->_Left->_Color == _Black) { // rotate red up from right sub-subtree

  002e3	8b 5d fc	 mov	 ebx, DWORD PTR _this$1$[ebp]
$LN39@Extract:

; 648  :                         }
; 649  : 
; 650  :                         _Pnode->_Color         = _Fixnodeparent->_Color;

  002e6	8a 46 0c	 mov	 al, BYTE PTR [esi+12]
  002e9	88 41 0c	 mov	 BYTE PTR [ecx+12], al

; 651  :                         _Fixnodeparent->_Color = _Black;

  002ec	c6 46 0c 01	 mov	 BYTE PTR [esi+12], 1

; 652  :                         _Pnode->_Left->_Color  = _Black;

  002f0	8b 01		 mov	 eax, DWORD PTR [ecx]

; 653  :                         _Rrotate(_Fixnodeparent);

  002f2	8b cb		 mov	 ecx, ebx
  002f4	56		 push	 esi
  002f5	c6 40 0c 01	 mov	 BYTE PTR [eax+12], 1
  002f9	e8 00 00 00 00	 call	 ?_Rrotate@?$_Tree_val@U?$_Tree_simple_types@U?$pair@$$CBKPAVCGuildHouseBase@@@std@@@std@@@std@@QAEXPAU?$_Tree_node@U?$pair@$$CBKPAVCGuildHouseBase@@@std@@PAX@2@@Z ; std::_Tree_val<std::_Tree_simple_types<std::pair<unsigned long const ,CGuildHouseBase *> > >::_Rrotate
$LN3@Extract:

; 654  :                         break; // tree now recolored/rebalanced
; 655  :                     }
; 656  :                 }
; 657  :             }
; 658  : 
; 659  :             _Fixnode->_Color = _Black; // stopping node is black

  002fe	8b 45 f8	 mov	 eax, DWORD PTR __Erasednode$1$[ebp]
  00301	c6 47 0c 01	 mov	 BYTE PTR [edi+12], 1
$LN25@Extract:

; 660  :         }
; 661  : 
; 662  :         if (0 < _Mysize) {

  00305	8b 4b 04	 mov	 ecx, DWORD PTR [ebx+4]
  00308	85 c9		 test	 ecx, ecx
  0030a	74 04		 je	 SHORT $LN40@Extract

; 663  :             --_Mysize;

  0030c	49		 dec	 ecx
  0030d	89 4b 04	 mov	 DWORD PTR [ebx+4], ecx
$LN40@Extract:

; 664  :         }
; 665  : 
; 666  :         return _Erasednode;
; 667  :     }

  00310	5f		 pop	 edi
  00311	5e		 pop	 esi
  00312	5b		 pop	 ebx
  00313	8b e5		 mov	 esp, ebp
  00315	5d		 pop	 ebp
  00316	c2 04 00	 ret	 4
?_Extract@?$_Tree_val@U?$_Tree_simple_types@U?$pair@$$CBKPAVCGuildHouseBase@@@std@@@std@@@std@@QAEPAU?$_Tree_node@U?$pair@$$CBKPAVCGuildHouseBase@@@std@@PAX@2@V?$_Tree_unchecked_const_iterator@V?$_Tree_val@U?$_Tree_simple_types@U?$pair@$$CBKPAVCGuildHouseBase@@@std@@@std@@@std@@U_Iterator_base0@2@@2@@Z ENDP ; std::_Tree_val<std::_Tree_simple_types<std::pair<unsigned long const ,CGuildHouseBase *> > >::_Extract
_TEXT	ENDS
; Function compile flags: /Ogtp
; File C:\Program Files\Microsoft Visual Studio\2022\Professional\VC\Tools\MSVC\14.44.35207\include\xtree
;	COMDAT ?_Rrotate@?$_Tree_val@U?$_Tree_simple_types@U?$pair@$$CBKPAVCGuildHouseBase@@@std@@@std@@@std@@QAEXPAU?$_Tree_node@U?$pair@$$CBKPAVCGuildHouseBase@@@std@@PAX@2@@Z
_TEXT	SEGMENT
__Wherenode$ = 8					; size = 4
?_Rrotate@?$_Tree_val@U?$_Tree_simple_types@U?$pair@$$CBKPAVCGuildHouseBase@@@std@@@std@@@std@@QAEXPAU?$_Tree_node@U?$pair@$$CBKPAVCGuildHouseBase@@@std@@PAX@2@@Z PROC ; std::_Tree_val<std::_Tree_simple_types<std::pair<unsigned long const ,CGuildHouseBase *> > >::_Rrotate, COMDAT
; _this$ = ecx

; 505  :     void _Rrotate(_Nodeptr _Wherenode) noexcept { // promote left node to root of subtree

  00000	55		 push	 ebp
  00001	8b ec		 mov	 ebp, esp

; 506  :         _Nodeptr _Pnode   = _Wherenode->_Left;

  00003	8b 55 08	 mov	 edx, DWORD PTR __Wherenode$[ebp]
  00006	56		 push	 esi
  00007	8b 32		 mov	 esi, DWORD PTR [edx]

; 507  :         _Wherenode->_Left = _Pnode->_Right;

  00009	8b 46 08	 mov	 eax, DWORD PTR [esi+8]
  0000c	89 02		 mov	 DWORD PTR [edx], eax

; 508  : 
; 509  :         if (!_Pnode->_Right->_Isnil) {

  0000e	8b 46 08	 mov	 eax, DWORD PTR [esi+8]
  00011	80 78 0d 00	 cmp	 BYTE PTR [eax+13], 0
  00015	75 03		 jne	 SHORT $LN2@Rrotate

; 510  :             _Pnode->_Right->_Parent = _Wherenode;

  00017	89 50 04	 mov	 DWORD PTR [eax+4], edx
$LN2@Rrotate:

; 511  :         }
; 512  : 
; 513  :         _Pnode->_Parent = _Wherenode->_Parent;

  0001a	8b 42 04	 mov	 eax, DWORD PTR [edx+4]
  0001d	89 46 04	 mov	 DWORD PTR [esi+4], eax

; 514  : 
; 515  :         if (_Wherenode == _Myhead->_Parent) {

  00020	8b 01		 mov	 eax, DWORD PTR [ecx]
  00022	3b 50 04	 cmp	 edx, DWORD PTR [eax+4]
  00025	75 0e		 jne	 SHORT $LN3@Rrotate

; 516  :             _Myhead->_Parent = _Pnode;

  00027	89 70 04	 mov	 DWORD PTR [eax+4], esi

; 521  :         }
; 522  : 
; 523  :         _Pnode->_Right      = _Wherenode;
; 524  :         _Wherenode->_Parent = _Pnode;
; 525  :     }

  0002a	89 56 08	 mov	 DWORD PTR [esi+8], edx
  0002d	89 72 04	 mov	 DWORD PTR [edx+4], esi
  00030	5e		 pop	 esi
  00031	5d		 pop	 ebp
  00032	c2 04 00	 ret	 4
$LN3@Rrotate:

; 517  :         } else if (_Wherenode == _Wherenode->_Parent->_Right) {

  00035	8b 42 04	 mov	 eax, DWORD PTR [edx+4]
  00038	3b 50 08	 cmp	 edx, DWORD PTR [eax+8]
  0003b	75 0e		 jne	 SHORT $LN5@Rrotate

; 518  :             _Wherenode->_Parent->_Right = _Pnode;

  0003d	89 70 08	 mov	 DWORD PTR [eax+8], esi

; 521  :         }
; 522  : 
; 523  :         _Pnode->_Right      = _Wherenode;
; 524  :         _Wherenode->_Parent = _Pnode;
; 525  :     }

  00040	89 56 08	 mov	 DWORD PTR [esi+8], edx
  00043	89 72 04	 mov	 DWORD PTR [edx+4], esi
  00046	5e		 pop	 esi
  00047	5d		 pop	 ebp
  00048	c2 04 00	 ret	 4
$LN5@Rrotate:

; 519  :         } else {
; 520  :             _Wherenode->_Parent->_Left = _Pnode;

  0004b	89 30		 mov	 DWORD PTR [eax], esi

; 521  :         }
; 522  : 
; 523  :         _Pnode->_Right      = _Wherenode;
; 524  :         _Wherenode->_Parent = _Pnode;
; 525  :     }

  0004d	89 56 08	 mov	 DWORD PTR [esi+8], edx
  00050	89 72 04	 mov	 DWORD PTR [edx+4], esi
  00053	5e		 pop	 esi
  00054	5d		 pop	 ebp
  00055	c2 04 00	 ret	 4
?_Rrotate@?$_Tree_val@U?$_Tree_simple_types@U?$pair@$$CBKPAVCGuildHouseBase@@@std@@@std@@@std@@QAEXPAU?$_Tree_node@U?$pair@$$CBKPAVCGuildHouseBase@@@std@@PAX@2@@Z ENDP ; std::_Tree_val<std::_Tree_simple_types<std::pair<unsigned long const ,CGuildHouseBase *> > >::_Rrotate
_TEXT	ENDS
; Function compile flags: /Ogtp
; File C:\Program Files\Microsoft Visual Studio\2022\Professional\VC\Tools\MSVC\14.44.35207\include\xtree
;	COMDAT ?_Lrotate@?$_Tree_val@U?$_Tree_simple_types@U?$pair@$$CBKPAVCGuildHouseBase@@@std@@@std@@@std@@QAEXPAU?$_Tree_node@U?$pair@$$CBKPAVCGuildHouseBase@@@std@@PAX@2@@Z
_TEXT	SEGMENT
__Wherenode$ = 8					; size = 4
?_Lrotate@?$_Tree_val@U?$_Tree_simple_types@U?$pair@$$CBKPAVCGuildHouseBase@@@std@@@std@@@std@@QAEXPAU?$_Tree_node@U?$pair@$$CBKPAVCGuildHouseBase@@@std@@PAX@2@@Z PROC ; std::_Tree_val<std::_Tree_simple_types<std::pair<unsigned long const ,CGuildHouseBase *> > >::_Lrotate, COMDAT
; _this$ = ecx

; 483  :     void _Lrotate(_Nodeptr _Wherenode) noexcept { // promote right node to root of subtree

  00000	55		 push	 ebp
  00001	8b ec		 mov	 ebp, esp

; 484  :         _Nodeptr _Pnode    = _Wherenode->_Right;

  00003	8b 55 08	 mov	 edx, DWORD PTR __Wherenode$[ebp]
  00006	56		 push	 esi
  00007	8b 72 08	 mov	 esi, DWORD PTR [edx+8]

; 485  :         _Wherenode->_Right = _Pnode->_Left;

  0000a	8b 06		 mov	 eax, DWORD PTR [esi]
  0000c	89 42 08	 mov	 DWORD PTR [edx+8], eax

; 486  : 
; 487  :         if (!_Pnode->_Left->_Isnil) {

  0000f	8b 06		 mov	 eax, DWORD PTR [esi]
  00011	80 78 0d 00	 cmp	 BYTE PTR [eax+13], 0
  00015	75 03		 jne	 SHORT $LN2@Lrotate

; 488  :             _Pnode->_Left->_Parent = _Wherenode;

  00017	89 50 04	 mov	 DWORD PTR [eax+4], edx
$LN2@Lrotate:

; 489  :         }
; 490  : 
; 491  :         _Pnode->_Parent = _Wherenode->_Parent;

  0001a	8b 42 04	 mov	 eax, DWORD PTR [edx+4]
  0001d	89 46 04	 mov	 DWORD PTR [esi+4], eax

; 492  : 
; 493  :         if (_Wherenode == _Myhead->_Parent) {

  00020	8b 01		 mov	 eax, DWORD PTR [ecx]
  00022	3b 50 04	 cmp	 edx, DWORD PTR [eax+4]
  00025	75 0d		 jne	 SHORT $LN3@Lrotate

; 494  :             _Myhead->_Parent = _Pnode;

  00027	89 70 04	 mov	 DWORD PTR [eax+4], esi

; 499  :         }
; 500  : 
; 501  :         _Pnode->_Left       = _Wherenode;
; 502  :         _Wherenode->_Parent = _Pnode;
; 503  :     }

  0002a	89 16		 mov	 DWORD PTR [esi], edx
  0002c	89 72 04	 mov	 DWORD PTR [edx+4], esi
  0002f	5e		 pop	 esi
  00030	5d		 pop	 ebp
  00031	c2 04 00	 ret	 4
$LN3@Lrotate:

; 495  :         } else if (_Wherenode == _Wherenode->_Parent->_Left) {

  00034	8b 42 04	 mov	 eax, DWORD PTR [edx+4]
  00037	3b 10		 cmp	 edx, DWORD PTR [eax]
  00039	75 0c		 jne	 SHORT $LN5@Lrotate

; 496  :             _Wherenode->_Parent->_Left = _Pnode;

  0003b	89 30		 mov	 DWORD PTR [eax], esi

; 499  :         }
; 500  : 
; 501  :         _Pnode->_Left       = _Wherenode;
; 502  :         _Wherenode->_Parent = _Pnode;
; 503  :     }

  0003d	89 16		 mov	 DWORD PTR [esi], edx
  0003f	89 72 04	 mov	 DWORD PTR [edx+4], esi
  00042	5e		 pop	 esi
  00043	5d		 pop	 ebp
  00044	c2 04 00	 ret	 4
$LN5@Lrotate:

; 497  :         } else {
; 498  :             _Wherenode->_Parent->_Right = _Pnode;

  00047	89 70 08	 mov	 DWORD PTR [eax+8], esi

; 499  :         }
; 500  : 
; 501  :         _Pnode->_Left       = _Wherenode;
; 502  :         _Wherenode->_Parent = _Pnode;
; 503  :     }

  0004a	89 16		 mov	 DWORD PTR [esi], edx
  0004c	89 72 04	 mov	 DWORD PTR [edx+4], esi
  0004f	5e		 pop	 esi
  00050	5d		 pop	 ebp
  00051	c2 04 00	 ret	 4
?_Lrotate@?$_Tree_val@U?$_Tree_simple_types@U?$pair@$$CBKPAVCGuildHouseBase@@@std@@@std@@@std@@QAEXPAU?$_Tree_node@U?$pair@$$CBKPAVCGuildHouseBase@@@std@@PAX@2@@Z ENDP ; std::_Tree_val<std::_Tree_simple_types<std::pair<unsigned long const ,CGuildHouseBase *> > >::_Lrotate
_TEXT	ENDS
; Function compile flags: /Ogtp
; File C:\Program Files\Microsoft Visual Studio\2022\Professional\VC\Tools\MSVC\14.44.35207\include\xtree
; File C:\Program Files\Microsoft Visual Studio\2022\Professional\VC\Tools\MSVC\14.44.35207\include\type_traits
; File C:\Program Files\Microsoft Visual Studio\2022\Professional\VC\Tools\MSVC\14.44.35207\include\xtree
;	COMDAT ?find@?$_Tree@V?$_Tmap_traits@KPAVCGuildHouseBase@@U?$less@K@std@@V?$allocator@U?$pair@$$CBKPAVCGuildHouseBase@@@std@@@3@$0A@@std@@@std@@QAE?AV?$_Tree_iterator@V?$_Tree_val@U?$_Tree_simple_types@U?$pair@$$CBKPAVCGuildHouseBase@@@std@@@std@@@std@@@2@ABK@Z
_TEXT	SEGMENT
__Loc$1 = -12						; size = 12
___$ReturnUdt$ = 8					; size = 4
__Keyval$ = 12						; size = 4
?find@?$_Tree@V?$_Tmap_traits@KPAVCGuildHouseBase@@U?$less@K@std@@V?$allocator@U?$pair@$$CBKPAVCGuildHouseBase@@@std@@@3@$0A@@std@@@std@@QAE?AV?$_Tree_iterator@V?$_Tree_val@U?$_Tree_simple_types@U?$pair@$$CBKPAVCGuildHouseBase@@@std@@@std@@@std@@@2@ABK@Z PROC ; std::_Tree<std::_Tmap_traits<unsigned long,CGuildHouseBase *,std::less<unsigned long>,std::allocator<std::pair<unsigned long const ,CGuildHouseBase *> >,0> >::find, COMDAT
; _this$ = ecx

; 1393 :     _NODISCARD iterator find(const key_type& _Keyval) {

  00000	55		 push	 ebp
  00001	8b ec		 mov	 ebp, esp
  00003	83 ec 0c	 sub	 esp, 12			; 0000000cH
  00006	56		 push	 esi

; 1384 :         const _Tree_find_result<_Nodeptr> _Loc = _Find_lower_bound(_Keyval);

  00007	8b 75 0c	 mov	 esi, DWORD PTR __Keyval$[ebp]
  0000a	8d 45 f4	 lea	 eax, DWORD PTR __Loc$1[ebp]

; 1393 :     _NODISCARD iterator find(const key_type& _Keyval) {

  0000d	57		 push	 edi

; 1384 :         const _Tree_find_result<_Nodeptr> _Loc = _Find_lower_bound(_Keyval);

  0000e	56		 push	 esi
  0000f	50		 push	 eax

; 1393 :     _NODISCARD iterator find(const key_type& _Keyval) {

  00010	8b f9		 mov	 edi, ecx

; 1384 :         const _Tree_find_result<_Nodeptr> _Loc = _Find_lower_bound(_Keyval);

  00012	e8 00 00 00 00	 call	 ??$_Find_lower_bound@K@?$_Tree@V?$_Tmap_traits@KPAVCGuildHouseBase@@U?$less@K@std@@V?$allocator@U?$pair@$$CBKPAVCGuildHouseBase@@@std@@@3@$0A@@std@@@std@@IBE?AU?$_Tree_find_result@PAU?$_Tree_node@U?$pair@$$CBKPAVCGuildHouseBase@@@std@@PAX@std@@@1@ABK@Z ; std::_Tree<std::_Tmap_traits<unsigned long,CGuildHouseBase *,std::less<unsigned long>,std::allocator<std::pair<unsigned long const ,CGuildHouseBase *> >,0> >::_Find_lower_bound<unsigned long>

; 1624 :         return !_Bound->_Isnil && !_DEBUG_LT_PRED(_Getcomp(), _Keyval, _Traits::_Kfn(_Bound->_Myval));

  00017	8b 55 fc	 mov	 edx, DWORD PTR __Loc$1[ebp+8]
  0001a	80 7a 0d 00	 cmp	 BYTE PTR [edx+13], 0
  0001e	75 14		 jne	 SHORT $LN4@find
; File C:\Program Files\Microsoft Visual Studio\2022\Professional\VC\Tools\MSVC\14.44.35207\include\type_traits

; 2380 :         return _Left < _Right;

  00020	8b 06		 mov	 eax, DWORD PTR [esi]
  00022	3b 42 10	 cmp	 eax, DWORD PTR [edx+16]
; File C:\Program Files\Microsoft Visual Studio\2022\Professional\VC\Tools\MSVC\14.44.35207\include\xtree

; 1624 :         return !_Bound->_Isnil && !_DEBUG_LT_PRED(_Getcomp(), _Keyval, _Traits::_Kfn(_Bound->_Myval));

  00025	72 0d		 jb	 SHORT $LN4@find

; 37   :     _Tree_unchecked_const_iterator(_Nodeptr _Pnode, const _Mytree* _Plist) noexcept : _Ptr(_Pnode) {

  00027	8b 45 08	 mov	 eax, DWORD PTR ___$ReturnUdt$[ebp]
  0002a	5f		 pop	 edi

; 1394 :         return iterator(_Find(_Keyval), _Get_scary());
; 1395 :     }

  0002b	5e		 pop	 esi

; 37   :     _Tree_unchecked_const_iterator(_Nodeptr _Pnode, const _Mytree* _Plist) noexcept : _Ptr(_Pnode) {

  0002c	89 10		 mov	 DWORD PTR [eax], edx

; 1394 :         return iterator(_Find(_Keyval), _Get_scary());
; 1395 :     }

  0002e	8b e5		 mov	 esp, ebp
  00030	5d		 pop	 ebp
  00031	c2 08 00	 ret	 8
$LN4@find:

; 37   :     _Tree_unchecked_const_iterator(_Nodeptr _Pnode, const _Mytree* _Plist) noexcept : _Ptr(_Pnode) {

  00034	8b 45 08	 mov	 eax, DWORD PTR ___$ReturnUdt$[ebp]

; 1389 :         return _Get_scary()->_Myhead;

  00037	8b 0f		 mov	 ecx, DWORD PTR [edi]
  00039	5f		 pop	 edi

; 1394 :         return iterator(_Find(_Keyval), _Get_scary());
; 1395 :     }

  0003a	5e		 pop	 esi

; 37   :     _Tree_unchecked_const_iterator(_Nodeptr _Pnode, const _Mytree* _Plist) noexcept : _Ptr(_Pnode) {

  0003b	89 08		 mov	 DWORD PTR [eax], ecx

; 1394 :         return iterator(_Find(_Keyval), _Get_scary());
; 1395 :     }

  0003d	8b e5		 mov	 esp, ebp
  0003f	5d		 pop	 ebp
  00040	c2 08 00	 ret	 8
?find@?$_Tree@V?$_Tmap_traits@KPAVCGuildHouseBase@@U?$less@K@std@@V?$allocator@U?$pair@$$CBKPAVCGuildHouseBase@@@std@@@3@$0A@@std@@@std@@QAE?AV?$_Tree_iterator@V?$_Tree_val@U?$_Tree_simple_types@U?$pair@$$CBKPAVCGuildHouseBase@@@std@@@std@@@std@@@2@ABK@Z ENDP ; std::_Tree<std::_Tmap_traits<unsigned long,CGuildHouseBase *,std::less<unsigned long>,std::allocator<std::pair<unsigned long const ,CGuildHouseBase *> >,0> >::find
_TEXT	ENDS
; Function compile flags: /Ogtp
; File C:\Program Files\Microsoft Visual Studio\2022\Professional\VC\Tools\MSVC\14.44.35207\include\xtree
; File C:\Program Files\Microsoft Visual Studio\2022\Professional\VC\Tools\MSVC\14.44.35207\include\utility
; File C:\Program Files\Microsoft Visual Studio\2022\Professional\VC\Tools\MSVC\14.44.35207\include\xmemory
; File C:\Program Files\Microsoft Visual Studio\2022\Professional\VC\Tools\MSVC\14.44.35207\include\xtree
;	COMDAT ?clear@?$_Tree@V?$_Tmap_traits@KPAVCGuildHouseBase@@U?$less@K@std@@V?$allocator@U?$pair@$$CBKPAVCGuildHouseBase@@@std@@@3@$0A@@std@@@std@@QAEXXZ
_TEXT	SEGMENT
?clear@?$_Tree@V?$_Tmap_traits@KPAVCGuildHouseBase@@U?$less@K@std@@V?$allocator@U?$pair@$$CBKPAVCGuildHouseBase@@@std@@@3@$0A@@std@@@std@@QAEXXZ PROC ; std::_Tree<std::_Tmap_traits<unsigned long,CGuildHouseBase *,std::less<unsigned long>,std::allocator<std::pair<unsigned long const ,CGuildHouseBase *> >,0> >::clear, COMDAT
; _this$ = ecx

; 1370 :     void clear() noexcept {

  00000	53		 push	 ebx
  00001	8b d9		 mov	 ebx, ecx
  00003	56		 push	 esi
  00004	57		 push	 edi

; 1371 :         const auto _Scary = _Get_scary();
; 1372 :         _Scary->_Orphan_ptr(nullptr);
; 1373 :         auto _Head = _Scary->_Myhead;

  00005	8b 3b		 mov	 edi, DWORD PTR [ebx]

; 1374 :         _Scary->_Erase_tree(_Getal(), _Head->_Parent);

  00007	8b 77 04	 mov	 esi, DWORD PTR [edi+4]

; 768  :         while (!_Rootnode->_Isnil) { // free subtrees, then node

  0000a	80 7e 0d 00	 cmp	 BYTE PTR [esi+13], 0
  0000e	75 20		 jne	 SHORT $LN38@clear
$LL5@clear:

; 769  :             _Erase_tree(_Al, _Rootnode->_Right);

  00010	ff 76 08	 push	 DWORD PTR [esi+8]
  00013	8b cb		 mov	 ecx, ebx
  00015	53		 push	 ebx
  00016	e8 00 00 00 00	 call	 ??$_Erase_tree@V?$allocator@U?$_Tree_node@U?$pair@$$CBKPAVCGuildHouseBase@@@std@@PAX@std@@@std@@@?$_Tree_val@U?$_Tree_simple_types@U?$pair@$$CBKPAVCGuildHouseBase@@@std@@@std@@@std@@QAEXAAV?$allocator@U?$_Tree_node@U?$pair@$$CBKPAVCGuildHouseBase@@@std@@PAX@std@@@1@PAU?$_Tree_node@U?$pair@$$CBKPAVCGuildHouseBase@@@std@@PAX@1@@Z ; std::_Tree_val<std::_Tree_simple_types<std::pair<unsigned long const ,CGuildHouseBase *> > >::_Erase_tree<std::allocator<std::_Tree_node<std::pair<unsigned long const ,CGuildHouseBase *>,void *> > >
; File C:\Program Files\Microsoft Visual Studio\2022\Professional\VC\Tools\MSVC\14.44.35207\include\utility

; 773  :     _Ty _Old_val = static_cast<_Ty&&>(_Val);

  0001b	8b c6		 mov	 eax, esi

; 774  :     _Val         = static_cast<_Other&&>(_New_val);

  0001d	8b 36		 mov	 esi, DWORD PTR [esi]
; File C:\Program Files\Microsoft Visual Studio\2022\Professional\VC\Tools\MSVC\14.44.35207\include\xmemory

; 289  :         ::operator delete(_Ptr, _Bytes);

  0001f	6a 18		 push	 24			; 00000018H
  00021	50		 push	 eax
  00022	e8 00 00 00 00	 call	 ??3@YAXPAXI@Z		; operator delete
  00027	83 c4 08	 add	 esp, 8
; File C:\Program Files\Microsoft Visual Studio\2022\Professional\VC\Tools\MSVC\14.44.35207\include\xtree

; 768  :         while (!_Rootnode->_Isnil) { // free subtrees, then node

  0002a	80 7e 0d 00	 cmp	 BYTE PTR [esi+13], 0
  0002e	74 e0		 je	 SHORT $LL5@clear
$LN38@clear:

; 1375 :         _Head->_Parent  = _Head;

  00030	89 7f 04	 mov	 DWORD PTR [edi+4], edi

; 1376 :         _Head->_Left    = _Head;

  00033	89 3f		 mov	 DWORD PTR [edi], edi

; 1377 :         _Head->_Right   = _Head;

  00035	89 7f 08	 mov	 DWORD PTR [edi+8], edi

; 1378 :         _Scary->_Mysize = 0;

  00038	5f		 pop	 edi
  00039	5e		 pop	 esi
  0003a	c7 43 04 00 00
	00 00		 mov	 DWORD PTR [ebx+4], 0
  00041	5b		 pop	 ebx

; 1379 :     }

  00042	c3		 ret	 0
?clear@?$_Tree@V?$_Tmap_traits@KPAVCGuildHouseBase@@U?$less@K@std@@V?$allocator@U?$pair@$$CBKPAVCGuildHouseBase@@@std@@@3@$0A@@std@@@std@@QAEXXZ ENDP ; std::_Tree<std::_Tmap_traits<unsigned long,CGuildHouseBase *,std::less<unsigned long>,std::allocator<std::pair<unsigned long const ,CGuildHouseBase *> >,0> >::clear
_TEXT	ENDS
; Function compile flags: /Ogtp
; File C:\Program Files\Microsoft Visual Studio\2022\Professional\VC\Tools\MSVC\14.44.35207\include\xtree
; File C:\Program Files\Microsoft Visual Studio\2022\Professional\VC\Tools\MSVC\14.44.35207\include\utility
; File C:\Program Files\Microsoft Visual Studio\2022\Professional\VC\Tools\MSVC\14.44.35207\include\xmemory
; File C:\Program Files\Microsoft Visual Studio\2022\Professional\VC\Tools\MSVC\14.44.35207\include\xtree
; File C:\Program Files\Microsoft Visual Studio\2022\Professional\VC\Tools\MSVC\14.44.35207\include\xmemory
; File C:\Program Files\Microsoft Visual Studio\2022\Professional\VC\Tools\MSVC\14.44.35207\include\xtree
;	COMDAT ??1?$_Tree@V?$_Tmap_traits@KPAVCGuildHouseBase@@U?$less@K@std@@V?$allocator@U?$pair@$$CBKPAVCGuildHouseBase@@@std@@@3@$0A@@std@@@std@@QAE@XZ
_TEXT	SEGMENT
??1?$_Tree@V?$_Tmap_traits@KPAVCGuildHouseBase@@U?$less@K@std@@V?$allocator@U?$pair@$$CBKPAVCGuildHouseBase@@@std@@@3@$0A@@std@@@std@@QAE@XZ PROC ; std::_Tree<std::_Tmap_traits<unsigned long,CGuildHouseBase *,std::less<unsigned long>,std::allocator<std::pair<unsigned long const ,CGuildHouseBase *> >,0> >::~_Tree<std::_Tmap_traits<unsigned long,CGuildHouseBase *,std::less<unsigned long>,std::allocator<std::pair<unsigned long const ,CGuildHouseBase *> >,0> >, COMDAT
; _this$ = ecx

; 1095 :     ~_Tree() noexcept {

  00000	56		 push	 esi
  00001	57		 push	 edi
  00002	8b f9		 mov	 edi, ecx

; 777  :         _Erase_tree(_Al, _Myhead->_Parent);

  00004	8b 37		 mov	 esi, DWORD PTR [edi]
  00006	8b 76 04	 mov	 esi, DWORD PTR [esi+4]

; 768  :         while (!_Rootnode->_Isnil) { // free subtrees, then node

  00009	80 7e 0d 00	 cmp	 BYTE PTR [esi+13], 0
  0000d	75 21		 jne	 SHORT $LN61@Tree
  0000f	90		 npad	 1
$LL8@Tree:

; 769  :             _Erase_tree(_Al, _Rootnode->_Right);

  00010	ff 76 08	 push	 DWORD PTR [esi+8]
  00013	8b cf		 mov	 ecx, edi
  00015	57		 push	 edi
  00016	e8 00 00 00 00	 call	 ??$_Erase_tree@V?$allocator@U?$_Tree_node@U?$pair@$$CBKPAVCGuildHouseBase@@@std@@PAX@std@@@std@@@?$_Tree_val@U?$_Tree_simple_types@U?$pair@$$CBKPAVCGuildHouseBase@@@std@@@std@@@std@@QAEXAAV?$allocator@U?$_Tree_node@U?$pair@$$CBKPAVCGuildHouseBase@@@std@@PAX@std@@@1@PAU?$_Tree_node@U?$pair@$$CBKPAVCGuildHouseBase@@@std@@PAX@1@@Z ; std::_Tree_val<std::_Tree_simple_types<std::pair<unsigned long const ,CGuildHouseBase *> > >::_Erase_tree<std::allocator<std::_Tree_node<std::pair<unsigned long const ,CGuildHouseBase *>,void *> > >
; File C:\Program Files\Microsoft Visual Studio\2022\Professional\VC\Tools\MSVC\14.44.35207\include\utility

; 773  :     _Ty _Old_val = static_cast<_Ty&&>(_Val);

  0001b	8b c6		 mov	 eax, esi

; 774  :     _Val         = static_cast<_Other&&>(_New_val);

  0001d	8b 36		 mov	 esi, DWORD PTR [esi]
; File C:\Program Files\Microsoft Visual Studio\2022\Professional\VC\Tools\MSVC\14.44.35207\include\xmemory

; 289  :         ::operator delete(_Ptr, _Bytes);

  0001f	6a 18		 push	 24			; 00000018H
  00021	50		 push	 eax
  00022	e8 00 00 00 00	 call	 ??3@YAXPAXI@Z		; operator delete
  00027	83 c4 08	 add	 esp, 8
; File C:\Program Files\Microsoft Visual Studio\2022\Professional\VC\Tools\MSVC\14.44.35207\include\xtree

; 768  :         while (!_Rootnode->_Isnil) { // free subtrees, then node

  0002a	80 7e 0d 00	 cmp	 BYTE PTR [esi+13], 0
  0002e	74 e0		 je	 SHORT $LL8@Tree
$LN61@Tree:
; File C:\Program Files\Microsoft Visual Studio\2022\Professional\VC\Tools\MSVC\14.44.35207\include\xmemory

; 289  :         ::operator delete(_Ptr, _Bytes);

  00030	6a 18		 push	 24			; 00000018H
  00032	ff 37		 push	 DWORD PTR [edi]
  00034	e8 00 00 00 00	 call	 ??3@YAXPAXI@Z		; operator delete
  00039	83 c4 08	 add	 esp, 8
  0003c	5f		 pop	 edi
  0003d	5e		 pop	 esi
; File C:\Program Files\Microsoft Visual Studio\2022\Professional\VC\Tools\MSVC\14.44.35207\include\xtree

; 1102 :     }

  0003e	c3		 ret	 0
??1?$_Tree@V?$_Tmap_traits@KPAVCGuildHouseBase@@U?$less@K@std@@V?$allocator@U?$pair@$$CBKPAVCGuildHouseBase@@@std@@@3@$0A@@std@@@std@@QAE@XZ ENDP ; std::_Tree<std::_Tmap_traits<unsigned long,CGuildHouseBase *,std::less<unsigned long>,std::allocator<std::pair<unsigned long const ,CGuildHouseBase *> >,0> >::~_Tree<std::_Tmap_traits<unsigned long,CGuildHouseBase *,std::less<unsigned long>,std::allocator<std::pair<unsigned long const ,CGuildHouseBase *> >,0> >
_TEXT	ENDS
; Function compile flags: /Ogtp
;	COMDAT ??1?$map@HMU?$less@H@std@@V?$allocator@U?$pair@$$CBHM@std@@@2@@std@@QAE@XZ
_TEXT	SEGMENT
??1?$map@HMU?$less@H@std@@V?$allocator@U?$pair@$$CBHM@std@@@2@@std@@QAE@XZ PROC ; std::map<int,float,std::less<int>,std::allocator<std::pair<int const ,float> > >::~map<int,float,std::less<int>,std::allocator<std::pair<int const ,float> > >, COMDAT
; _this$ = ecx
  00000	e9 00 00 00 00	 jmp	 ??1?$_Tree@V?$_Tmap_traits@HMU?$less@H@std@@V?$allocator@U?$pair@$$CBHM@std@@@2@$0A@@std@@@std@@QAE@XZ ; std::_Tree<std::_Tmap_traits<int,float,std::less<int>,std::allocator<std::pair<int const ,float> >,0> >::~_Tree<std::_Tmap_traits<int,float,std::less<int>,std::allocator<std::pair<int const ,float> >,0> >
??1?$map@HMU?$less@H@std@@V?$allocator@U?$pair@$$CBHM@std@@@2@@std@@QAE@XZ ENDP ; std::map<int,float,std::less<int>,std::allocator<std::pair<int const ,float> > >::~map<int,float,std::less<int>,std::allocator<std::pair<int const ,float> > >
_TEXT	ENDS
; Function compile flags: /Ogtp
; File C:\Program Files\Microsoft Visual Studio\2022\Professional\VC\Tools\MSVC\14.44.35207\include\xtree
;	COMDAT ?_Insert_node@?$_Tree_val@U?$_Tree_simple_types@U?$pair@$$CBHM@std@@@std@@@std@@QAEPAU?$_Tree_node@U?$pair@$$CBHM@std@@PAX@2@U?$_Tree_id@PAU?$_Tree_node@U?$pair@$$CBHM@std@@PAX@std@@@2@QAU32@@Z
_TEXT	SEGMENT
__Head$1$ = -4						; size = 4
__Loc$ = 8						; size = 8
__Newnode$ = 16						; size = 4
?_Insert_node@?$_Tree_val@U?$_Tree_simple_types@U?$pair@$$CBHM@std@@@std@@@std@@QAEPAU?$_Tree_node@U?$pair@$$CBHM@std@@PAX@2@U?$_Tree_id@PAU?$_Tree_node@U?$pair@$$CBHM@std@@PAX@std@@@2@QAU32@@Z PROC ; std::_Tree_val<std::_Tree_simple_types<std::pair<int const ,float> > >::_Insert_node, COMDAT
; _this$ = ecx

; 669  :     _Nodeptr _Insert_node(const _Tree_id<_Nodeptr> _Loc, const _Nodeptr _Newnode) noexcept {

  00000	55		 push	 ebp
  00001	8b ec		 mov	 ebp, esp
  00003	51		 push	 ecx

; 670  :         ++_Mysize;
; 671  :         const auto _Head  = _Myhead;
; 672  :         _Newnode->_Parent = _Loc._Parent;

  00004	8b 55 08	 mov	 edx, DWORD PTR __Loc$[ebp]
  00007	53		 push	 ebx
  00008	8b d9		 mov	 ebx, ecx
  0000a	57		 push	 edi
  0000b	8b 7d 10	 mov	 edi, DWORD PTR __Newnode$[ebp]
  0000e	8b 03		 mov	 eax, DWORD PTR [ebx]
  00010	ff 43 04	 inc	 DWORD PTR [ebx+4]
  00013	89 45 fc	 mov	 DWORD PTR __Head$1$[ebp], eax
  00016	89 57 04	 mov	 DWORD PTR [edi+4], edx

; 673  :         if (_Loc._Parent == _Head) { // first node in tree, just set head values

  00019	3b d0		 cmp	 edx, eax
  0001b	75 16		 jne	 SHORT $LN5@Insert_nod

; 674  :             _Head->_Left     = _Newnode;

  0001d	89 38		 mov	 DWORD PTR [eax], edi

; 675  :             _Head->_Parent   = _Newnode;

  0001f	89 78 04	 mov	 DWORD PTR [eax+4], edi

; 676  :             _Head->_Right    = _Newnode;

  00022	89 78 08	 mov	 DWORD PTR [eax+8], edi

; 735  :         return _Newnode;
; 736  :     }

  00025	8b c7		 mov	 eax, edi
  00027	c6 47 0c 01	 mov	 BYTE PTR [edi+12], 1
  0002b	5f		 pop	 edi
  0002c	5b		 pop	 ebx
  0002d	8b e5		 mov	 esp, ebp
  0002f	5d		 pop	 ebp
  00030	c2 0c 00	 ret	 12			; 0000000cH
$LN5@Insert_nod:

; 677  :             _Newnode->_Color = _Black; // the root is black
; 678  :             return _Newnode;
; 679  :         }
; 680  : 
; 681  :         _STL_INTERNAL_CHECK(_Loc._Child != _Tree_child::_Unused);
; 682  :         if (_Loc._Child == _Tree_child::_Right) { // add to right of _Loc._Parent

  00033	83 7d 0c 00	 cmp	 DWORD PTR __Loc$[ebp+4], 0
  00037	75 0d		 jne	 SHORT $LN6@Insert_nod

; 683  :             _STL_INTERNAL_CHECK(_Loc._Parent->_Right->_Isnil);
; 684  :             _Loc._Parent->_Right = _Newnode;

  00039	89 7a 08	 mov	 DWORD PTR [edx+8], edi

; 685  :             if (_Loc._Parent == _Head->_Right) { // remember rightmost node

  0003c	3b 50 08	 cmp	 edx, DWORD PTR [eax+8]
  0003f	75 0d		 jne	 SHORT $LN9@Insert_nod

; 686  :                 _Head->_Right = _Newnode;

  00041	89 78 08	 mov	 DWORD PTR [eax+8], edi

; 687  :             }
; 688  :         } else { // add to left of _Loc._Parent

  00044	eb 08		 jmp	 SHORT $LN9@Insert_nod
$LN6@Insert_nod:

; 689  :             _STL_INTERNAL_CHECK(_Loc._Parent->_Left->_Isnil);
; 690  :             _Loc._Parent->_Left = _Newnode;

  00046	89 3a		 mov	 DWORD PTR [edx], edi

; 691  :             if (_Loc._Parent == _Head->_Left) { // remember leftmost node

  00048	3b 10		 cmp	 edx, DWORD PTR [eax]
  0004a	75 02		 jne	 SHORT $LN9@Insert_nod

; 692  :                 _Head->_Left = _Newnode;

  0004c	89 38		 mov	 DWORD PTR [eax], edi
$LN9@Insert_nod:

; 693  :             }
; 694  :         }
; 695  : 
; 696  :         for (_Nodeptr _Pnode = _Newnode; _Pnode->_Parent->_Color == _Red;) {

  0004e	8b 4f 04	 mov	 ecx, DWORD PTR [edi+4]
  00051	8b c7		 mov	 eax, edi
  00053	80 79 0c 00	 cmp	 BYTE PTR [ecx+12], 0
  00057	0f 85 7d 01 00
	00		 jne	 $LN3@Insert_nod
  0005d	56		 push	 esi
  0005e	66 90		 npad	 2
$LL4@Insert_nod:

; 697  :             if (_Pnode->_Parent == _Pnode->_Parent->_Parent->_Left) { // fixup red-red in left subtree

  00060	8b 50 04	 mov	 edx, DWORD PTR [eax+4]
  00063	8b 72 04	 mov	 esi, DWORD PTR [edx+4]
  00066	8b 0e		 mov	 ecx, DWORD PTR [esi]
  00068	3b d1		 cmp	 edx, ecx
  0006a	0f 85 aa 00 00
	00		 jne	 $LN10@Insert_nod

; 698  :                 const auto _Parent_sibling = _Pnode->_Parent->_Parent->_Right;

  00070	8b 4e 08	 mov	 ecx, DWORD PTR [esi+8]

; 699  :                 if (_Parent_sibling->_Color == _Red) { // parent's sibling has two red children, blacken both

  00073	80 79 0c 00	 cmp	 BYTE PTR [ecx+12], 0
  00077	0f 84 a3 00 00
	00		 je	 $LN82@Insert_nod

; 700  :                     _Pnode->_Parent->_Color          = _Black;
; 701  :                     _Parent_sibling->_Color          = _Black;
; 702  :                     _Pnode->_Parent->_Parent->_Color = _Red;
; 703  :                     _Pnode                           = _Pnode->_Parent->_Parent;
; 704  :                 } else { // parent's sibling has red and black children
; 705  :                     if (_Pnode == _Pnode->_Parent->_Right) { // rotate right child to left

  0007d	8b 72 08	 mov	 esi, DWORD PTR [edx+8]
  00080	3b c6		 cmp	 eax, esi
  00082	75 37		 jne	 SHORT $LN57@Insert_nod

; 485  :         _Wherenode->_Right = _Pnode->_Left;

  00084	8b 0e		 mov	 ecx, DWORD PTR [esi]

; 706  :                         _Pnode = _Pnode->_Parent;

  00086	8b c2		 mov	 eax, edx

; 485  :         _Wherenode->_Right = _Pnode->_Left;

  00088	89 4a 08	 mov	 DWORD PTR [edx+8], ecx

; 486  : 
; 487  :         if (!_Pnode->_Left->_Isnil) {

  0008b	8b 0e		 mov	 ecx, DWORD PTR [esi]
  0008d	80 79 0d 00	 cmp	 BYTE PTR [ecx+13], 0
  00091	75 03		 jne	 SHORT $LN21@Insert_nod

; 488  :             _Pnode->_Left->_Parent = _Wherenode;

  00093	89 41 04	 mov	 DWORD PTR [ecx+4], eax
$LN21@Insert_nod:

; 489  :         }
; 490  : 
; 491  :         _Pnode->_Parent = _Wherenode->_Parent;

  00096	8b 4a 04	 mov	 ecx, DWORD PTR [edx+4]
  00099	89 4e 04	 mov	 DWORD PTR [esi+4], ecx

; 492  : 
; 493  :         if (_Wherenode == _Myhead->_Parent) {

  0009c	8b 0b		 mov	 ecx, DWORD PTR [ebx]
  0009e	3b 41 04	 cmp	 eax, DWORD PTR [ecx+4]
  000a1	75 05		 jne	 SHORT $LN22@Insert_nod

; 494  :             _Myhead->_Parent = _Pnode;

  000a3	89 71 04	 mov	 DWORD PTR [ecx+4], esi
  000a6	eb 0e		 jmp	 SHORT $LN25@Insert_nod
$LN22@Insert_nod:

; 495  :         } else if (_Wherenode == _Wherenode->_Parent->_Left) {

  000a8	8b 4a 04	 mov	 ecx, DWORD PTR [edx+4]
  000ab	3b 01		 cmp	 eax, DWORD PTR [ecx]
  000ad	75 04		 jne	 SHORT $LN24@Insert_nod

; 496  :             _Wherenode->_Parent->_Left = _Pnode;

  000af	89 31		 mov	 DWORD PTR [ecx], esi

; 497  :         } else {

  000b1	eb 03		 jmp	 SHORT $LN25@Insert_nod
$LN24@Insert_nod:

; 498  :             _Wherenode->_Parent->_Right = _Pnode;

  000b3	89 71 08	 mov	 DWORD PTR [ecx+8], esi
$LN25@Insert_nod:

; 499  :         }
; 500  : 
; 501  :         _Pnode->_Left       = _Wherenode;

  000b6	89 06		 mov	 DWORD PTR [esi], eax

; 502  :         _Wherenode->_Parent = _Pnode;

  000b8	89 70 04	 mov	 DWORD PTR [eax+4], esi
$LN57@Insert_nod:

; 707  :                         _Lrotate(_Pnode);
; 708  :                     }
; 709  : 
; 710  :                     _Pnode->_Parent->_Color          = _Black; // propagate red up

  000bb	8b 48 04	 mov	 ecx, DWORD PTR [eax+4]
  000be	c6 41 0c 01	 mov	 BYTE PTR [ecx+12], 1

; 711  :                     _Pnode->_Parent->_Parent->_Color = _Red;

  000c2	8b 48 04	 mov	 ecx, DWORD PTR [eax+4]
  000c5	8b 49 04	 mov	 ecx, DWORD PTR [ecx+4]
  000c8	c6 41 0c 00	 mov	 BYTE PTR [ecx+12], 0

; 712  :                     _Rrotate(_Pnode->_Parent->_Parent);

  000cc	8b 48 04	 mov	 ecx, DWORD PTR [eax+4]
  000cf	8b 51 04	 mov	 edx, DWORD PTR [ecx+4]

; 506  :         _Nodeptr _Pnode   = _Wherenode->_Left;

  000d2	8b 32		 mov	 esi, DWORD PTR [edx]

; 507  :         _Wherenode->_Left = _Pnode->_Right;

  000d4	8b 4e 08	 mov	 ecx, DWORD PTR [esi+8]
  000d7	89 0a		 mov	 DWORD PTR [edx], ecx

; 508  : 
; 509  :         if (!_Pnode->_Right->_Isnil) {

  000d9	8b 4e 08	 mov	 ecx, DWORD PTR [esi+8]
  000dc	80 79 0d 00	 cmp	 BYTE PTR [ecx+13], 0
  000e0	75 03		 jne	 SHORT $LN29@Insert_nod

; 510  :             _Pnode->_Right->_Parent = _Wherenode;

  000e2	89 51 04	 mov	 DWORD PTR [ecx+4], edx
$LN29@Insert_nod:

; 511  :         }
; 512  : 
; 513  :         _Pnode->_Parent = _Wherenode->_Parent;

  000e5	8b 4a 04	 mov	 ecx, DWORD PTR [edx+4]
  000e8	89 4e 04	 mov	 DWORD PTR [esi+4], ecx

; 514  : 
; 515  :         if (_Wherenode == _Myhead->_Parent) {

  000eb	8b 0b		 mov	 ecx, DWORD PTR [ebx]
  000ed	3b 51 04	 cmp	 edx, DWORD PTR [ecx+4]
  000f0	75 0b		 jne	 SHORT $LN30@Insert_nod

; 516  :             _Myhead->_Parent = _Pnode;

  000f2	89 71 04	 mov	 DWORD PTR [ecx+4], esi

; 521  :         }
; 522  : 
; 523  :         _Pnode->_Right      = _Wherenode;

  000f5	89 56 08	 mov	 DWORD PTR [esi+8], edx

; 713  :                 }
; 714  :             } else { // fixup red-red in right subtree

  000f8	e9 cc 00 00 00	 jmp	 $LN81@Insert_nod
$LN30@Insert_nod:

; 517  :         } else if (_Wherenode == _Wherenode->_Parent->_Right) {

  000fd	8b 4a 04	 mov	 ecx, DWORD PTR [edx+4]
  00100	3b 51 08	 cmp	 edx, DWORD PTR [ecx+8]
  00103	75 0b		 jne	 SHORT $LN32@Insert_nod

; 518  :             _Wherenode->_Parent->_Right = _Pnode;

  00105	89 71 08	 mov	 DWORD PTR [ecx+8], esi

; 521  :         }
; 522  : 
; 523  :         _Pnode->_Right      = _Wherenode;

  00108	89 56 08	 mov	 DWORD PTR [esi+8], edx

; 713  :                 }
; 714  :             } else { // fixup red-red in right subtree

  0010b	e9 b9 00 00 00	 jmp	 $LN81@Insert_nod
$LN32@Insert_nod:

; 520  :             _Wherenode->_Parent->_Left = _Pnode;

  00110	89 31		 mov	 DWORD PTR [ecx], esi

; 521  :         }
; 522  : 
; 523  :         _Pnode->_Right      = _Wherenode;

  00112	89 56 08	 mov	 DWORD PTR [esi+8], edx

; 713  :                 }
; 714  :             } else { // fixup red-red in right subtree

  00115	e9 af 00 00 00	 jmp	 $LN81@Insert_nod
$LN10@Insert_nod:

; 715  :                 const auto _Parent_sibling = _Pnode->_Parent->_Parent->_Left;
; 716  :                 if (_Parent_sibling->_Color == _Red) { // parent's sibling has two red children, blacken both

  0011a	80 79 0c 00	 cmp	 BYTE PTR [ecx+12], 0
  0011e	75 1d		 jne	 SHORT $LN15@Insert_nod
$LN82@Insert_nod:

; 693  :             }
; 694  :         }
; 695  : 
; 696  :         for (_Nodeptr _Pnode = _Newnode; _Pnode->_Parent->_Color == _Red;) {

  00120	c6 42 0c 01	 mov	 BYTE PTR [edx+12], 1
  00124	c6 41 0c 01	 mov	 BYTE PTR [ecx+12], 1
  00128	8b 48 04	 mov	 ecx, DWORD PTR [eax+4]
  0012b	8b 49 04	 mov	 ecx, DWORD PTR [ecx+4]
  0012e	c6 41 0c 00	 mov	 BYTE PTR [ecx+12], 0
  00132	8b 48 04	 mov	 ecx, DWORD PTR [eax+4]
  00135	8b 41 04	 mov	 eax, DWORD PTR [ecx+4]
  00138	e9 8f 00 00 00	 jmp	 $LN2@Insert_nod
$LN15@Insert_nod:

; 717  :                     _Pnode->_Parent->_Color          = _Black;
; 718  :                     _Parent_sibling->_Color          = _Black;
; 719  :                     _Pnode->_Parent->_Parent->_Color = _Red;
; 720  :                     _Pnode                           = _Pnode->_Parent->_Parent;
; 721  :                 } else { // parent's sibling has red and black children
; 722  :                     if (_Pnode == _Pnode->_Parent->_Left) { // rotate left child to right

  0013d	8b 32		 mov	 esi, DWORD PTR [edx]
  0013f	3b c6		 cmp	 eax, esi
  00141	75 3a		 jne	 SHORT $LN42@Insert_nod

; 507  :         _Wherenode->_Left = _Pnode->_Right;

  00143	8b 4e 08	 mov	 ecx, DWORD PTR [esi+8]

; 723  :                         _Pnode = _Pnode->_Parent;

  00146	8b c2		 mov	 eax, edx

; 507  :         _Wherenode->_Left = _Pnode->_Right;

  00148	89 08		 mov	 DWORD PTR [eax], ecx

; 508  : 
; 509  :         if (!_Pnode->_Right->_Isnil) {

  0014a	8b 4e 08	 mov	 ecx, DWORD PTR [esi+8]
  0014d	80 79 0d 00	 cmp	 BYTE PTR [ecx+13], 0
  00151	75 03		 jne	 SHORT $LN37@Insert_nod

; 510  :             _Pnode->_Right->_Parent = _Wherenode;

  00153	89 41 04	 mov	 DWORD PTR [ecx+4], eax
$LN37@Insert_nod:

; 511  :         }
; 512  : 
; 513  :         _Pnode->_Parent = _Wherenode->_Parent;

  00156	8b 4a 04	 mov	 ecx, DWORD PTR [edx+4]
  00159	89 4e 04	 mov	 DWORD PTR [esi+4], ecx

; 514  : 
; 515  :         if (_Wherenode == _Myhead->_Parent) {

  0015c	8b 0b		 mov	 ecx, DWORD PTR [ebx]
  0015e	3b 41 04	 cmp	 eax, DWORD PTR [ecx+4]
  00161	75 05		 jne	 SHORT $LN38@Insert_nod

; 516  :             _Myhead->_Parent = _Pnode;

  00163	89 71 04	 mov	 DWORD PTR [ecx+4], esi
  00166	eb 0f		 jmp	 SHORT $LN41@Insert_nod
$LN38@Insert_nod:

; 517  :         } else if (_Wherenode == _Wherenode->_Parent->_Right) {

  00168	8b 4a 04	 mov	 ecx, DWORD PTR [edx+4]
  0016b	3b 41 08	 cmp	 eax, DWORD PTR [ecx+8]
  0016e	75 05		 jne	 SHORT $LN40@Insert_nod

; 518  :             _Wherenode->_Parent->_Right = _Pnode;

  00170	89 71 08	 mov	 DWORD PTR [ecx+8], esi

; 519  :         } else {

  00173	eb 02		 jmp	 SHORT $LN41@Insert_nod
$LN40@Insert_nod:

; 520  :             _Wherenode->_Parent->_Left = _Pnode;

  00175	89 31		 mov	 DWORD PTR [ecx], esi
$LN41@Insert_nod:

; 521  :         }
; 522  : 
; 523  :         _Pnode->_Right      = _Wherenode;

  00177	89 46 08	 mov	 DWORD PTR [esi+8], eax

; 524  :         _Wherenode->_Parent = _Pnode;

  0017a	89 70 04	 mov	 DWORD PTR [eax+4], esi
$LN42@Insert_nod:

; 724  :                         _Rrotate(_Pnode);
; 725  :                     }
; 726  : 
; 727  :                     _Pnode->_Parent->_Color          = _Black; // propagate red up

  0017d	8b 48 04	 mov	 ecx, DWORD PTR [eax+4]
  00180	c6 41 0c 01	 mov	 BYTE PTR [ecx+12], 1

; 728  :                     _Pnode->_Parent->_Parent->_Color = _Red;

  00184	8b 48 04	 mov	 ecx, DWORD PTR [eax+4]
  00187	8b 49 04	 mov	 ecx, DWORD PTR [ecx+4]
  0018a	c6 41 0c 00	 mov	 BYTE PTR [ecx+12], 0

; 729  :                     _Lrotate(_Pnode->_Parent->_Parent);

  0018e	8b 48 04	 mov	 ecx, DWORD PTR [eax+4]
  00191	8b 51 04	 mov	 edx, DWORD PTR [ecx+4]

; 484  :         _Nodeptr _Pnode    = _Wherenode->_Right;

  00194	8b 72 08	 mov	 esi, DWORD PTR [edx+8]

; 485  :         _Wherenode->_Right = _Pnode->_Left;

  00197	8b 0e		 mov	 ecx, DWORD PTR [esi]
  00199	89 4a 08	 mov	 DWORD PTR [edx+8], ecx

; 486  : 
; 487  :         if (!_Pnode->_Left->_Isnil) {

  0019c	8b 0e		 mov	 ecx, DWORD PTR [esi]
  0019e	80 79 0d 00	 cmp	 BYTE PTR [ecx+13], 0
  001a2	75 03		 jne	 SHORT $LN45@Insert_nod

; 488  :             _Pnode->_Left->_Parent = _Wherenode;

  001a4	89 51 04	 mov	 DWORD PTR [ecx+4], edx
$LN45@Insert_nod:

; 489  :         }
; 490  : 
; 491  :         _Pnode->_Parent = _Wherenode->_Parent;

  001a7	8b 4a 04	 mov	 ecx, DWORD PTR [edx+4]
  001aa	89 4e 04	 mov	 DWORD PTR [esi+4], ecx

; 492  : 
; 493  :         if (_Wherenode == _Myhead->_Parent) {

  001ad	8b 0b		 mov	 ecx, DWORD PTR [ebx]
  001af	3b 51 04	 cmp	 edx, DWORD PTR [ecx+4]
  001b2	75 05		 jne	 SHORT $LN46@Insert_nod

; 494  :             _Myhead->_Parent = _Pnode;

  001b4	89 71 04	 mov	 DWORD PTR [ecx+4], esi
  001b7	eb 0e		 jmp	 SHORT $LN49@Insert_nod
$LN46@Insert_nod:

; 495  :         } else if (_Wherenode == _Wherenode->_Parent->_Left) {

  001b9	8b 4a 04	 mov	 ecx, DWORD PTR [edx+4]
  001bc	3b 11		 cmp	 edx, DWORD PTR [ecx]
  001be	75 04		 jne	 SHORT $LN48@Insert_nod

; 496  :             _Wherenode->_Parent->_Left = _Pnode;

  001c0	89 31		 mov	 DWORD PTR [ecx], esi

; 497  :         } else {

  001c2	eb 03		 jmp	 SHORT $LN49@Insert_nod
$LN48@Insert_nod:

; 498  :             _Wherenode->_Parent->_Right = _Pnode;

  001c4	89 71 08	 mov	 DWORD PTR [ecx+8], esi
$LN49@Insert_nod:

; 499  :         }
; 500  : 
; 501  :         _Pnode->_Left       = _Wherenode;

  001c7	89 16		 mov	 DWORD PTR [esi], edx
$LN81@Insert_nod:

; 693  :             }
; 694  :         }
; 695  : 
; 696  :         for (_Nodeptr _Pnode = _Newnode; _Pnode->_Parent->_Color == _Red;) {

  001c9	89 72 04	 mov	 DWORD PTR [edx+4], esi
$LN2@Insert_nod:
  001cc	8b 48 04	 mov	 ecx, DWORD PTR [eax+4]
  001cf	80 79 0c 00	 cmp	 BYTE PTR [ecx+12], 0
  001d3	0f 84 87 fe ff
	ff		 je	 $LL4@Insert_nod
  001d9	5e		 pop	 esi
$LN3@Insert_nod:

; 730  :                 }
; 731  :             }
; 732  :         }
; 733  : 
; 734  :         _Head->_Parent->_Color = _Black; // root is always black

  001da	8b 45 fc	 mov	 eax, DWORD PTR __Head$1$[ebp]
  001dd	8b 40 04	 mov	 eax, DWORD PTR [eax+4]
  001e0	c6 40 0c 01	 mov	 BYTE PTR [eax+12], 1

; 735  :         return _Newnode;
; 736  :     }

  001e4	8b c7		 mov	 eax, edi
  001e6	5f		 pop	 edi
  001e7	5b		 pop	 ebx
  001e8	8b e5		 mov	 esp, ebp
  001ea	5d		 pop	 ebp
  001eb	c2 0c 00	 ret	 12			; 0000000cH
?_Insert_node@?$_Tree_val@U?$_Tree_simple_types@U?$pair@$$CBHM@std@@@std@@@std@@QAEPAU?$_Tree_node@U?$pair@$$CBHM@std@@PAX@2@U?$_Tree_id@PAU?$_Tree_node@U?$pair@$$CBHM@std@@PAX@std@@@2@QAU32@@Z ENDP ; std::_Tree_val<std::_Tree_simple_types<std::pair<int const ,float> > >::_Insert_node
_TEXT	ENDS
; Function compile flags: /Ogtp
; File C:\Program Files\Microsoft Visual Studio\2022\Professional\VC\Tools\MSVC\14.44.35207\include\xtree
; File C:\Program Files\Microsoft Visual Studio\2022\Professional\VC\Tools\MSVC\14.44.35207\include\utility
; File C:\Program Files\Microsoft Visual Studio\2022\Professional\VC\Tools\MSVC\14.44.35207\include\xmemory
; File C:\Program Files\Microsoft Visual Studio\2022\Professional\VC\Tools\MSVC\14.44.35207\include\xtree
; File C:\Program Files\Microsoft Visual Studio\2022\Professional\VC\Tools\MSVC\14.44.35207\include\xmemory
; File C:\Program Files\Microsoft Visual Studio\2022\Professional\VC\Tools\MSVC\14.44.35207\include\xtree
;	COMDAT ??1?$_Tree@V?$_Tmap_traits@HMU?$less@H@std@@V?$allocator@U?$pair@$$CBHM@std@@@2@$0A@@std@@@std@@QAE@XZ
_TEXT	SEGMENT
??1?$_Tree@V?$_Tmap_traits@HMU?$less@H@std@@V?$allocator@U?$pair@$$CBHM@std@@@2@$0A@@std@@@std@@QAE@XZ PROC ; std::_Tree<std::_Tmap_traits<int,float,std::less<int>,std::allocator<std::pair<int const ,float> >,0> >::~_Tree<std::_Tmap_traits<int,float,std::less<int>,std::allocator<std::pair<int const ,float> >,0> >, COMDAT
; _this$ = ecx

; 1095 :     ~_Tree() noexcept {

  00000	56		 push	 esi
  00001	57		 push	 edi
  00002	8b f9		 mov	 edi, ecx

; 777  :         _Erase_tree(_Al, _Myhead->_Parent);

  00004	8b 37		 mov	 esi, DWORD PTR [edi]
  00006	8b 76 04	 mov	 esi, DWORD PTR [esi+4]

; 768  :         while (!_Rootnode->_Isnil) { // free subtrees, then node

  00009	80 7e 0d 00	 cmp	 BYTE PTR [esi+13], 0
  0000d	75 21		 jne	 SHORT $LN61@Tree
  0000f	90		 npad	 1
$LL8@Tree:

; 769  :             _Erase_tree(_Al, _Rootnode->_Right);

  00010	ff 76 08	 push	 DWORD PTR [esi+8]
  00013	8b cf		 mov	 ecx, edi
  00015	57		 push	 edi
  00016	e8 00 00 00 00	 call	 ??$_Erase_tree@V?$allocator@U?$_Tree_node@U?$pair@$$CBHM@std@@PAX@std@@@std@@@?$_Tree_val@U?$_Tree_simple_types@U?$pair@$$CBHM@std@@@std@@@std@@QAEXAAV?$allocator@U?$_Tree_node@U?$pair@$$CBHM@std@@PAX@std@@@1@PAU?$_Tree_node@U?$pair@$$CBHM@std@@PAX@1@@Z ; std::_Tree_val<std::_Tree_simple_types<std::pair<int const ,float> > >::_Erase_tree<std::allocator<std::_Tree_node<std::pair<int const ,float>,void *> > >
; File C:\Program Files\Microsoft Visual Studio\2022\Professional\VC\Tools\MSVC\14.44.35207\include\utility

; 773  :     _Ty _Old_val = static_cast<_Ty&&>(_Val);

  0001b	8b c6		 mov	 eax, esi

; 774  :     _Val         = static_cast<_Other&&>(_New_val);

  0001d	8b 36		 mov	 esi, DWORD PTR [esi]
; File C:\Program Files\Microsoft Visual Studio\2022\Professional\VC\Tools\MSVC\14.44.35207\include\xmemory

; 289  :         ::operator delete(_Ptr, _Bytes);

  0001f	6a 18		 push	 24			; 00000018H
  00021	50		 push	 eax
  00022	e8 00 00 00 00	 call	 ??3@YAXPAXI@Z		; operator delete
  00027	83 c4 08	 add	 esp, 8
; File C:\Program Files\Microsoft Visual Studio\2022\Professional\VC\Tools\MSVC\14.44.35207\include\xtree

; 768  :         while (!_Rootnode->_Isnil) { // free subtrees, then node

  0002a	80 7e 0d 00	 cmp	 BYTE PTR [esi+13], 0
  0002e	74 e0		 je	 SHORT $LL8@Tree
$LN61@Tree:
; File C:\Program Files\Microsoft Visual Studio\2022\Professional\VC\Tools\MSVC\14.44.35207\include\xmemory

; 289  :         ::operator delete(_Ptr, _Bytes);

  00030	6a 18		 push	 24			; 00000018H
  00032	ff 37		 push	 DWORD PTR [edi]
  00034	e8 00 00 00 00	 call	 ??3@YAXPAXI@Z		; operator delete
  00039	83 c4 08	 add	 esp, 8
  0003c	5f		 pop	 edi
  0003d	5e		 pop	 esi
; File C:\Program Files\Microsoft Visual Studio\2022\Professional\VC\Tools\MSVC\14.44.35207\include\xtree

; 1102 :     }

  0003e	c3		 ret	 0
??1?$_Tree@V?$_Tmap_traits@HMU?$less@H@std@@V?$allocator@U?$pair@$$CBHM@std@@@2@$0A@@std@@@std@@QAE@XZ ENDP ; std::_Tree<std::_Tmap_traits<int,float,std::less<int>,std::allocator<std::pair<int const ,float> >,0> >::~_Tree<std::_Tmap_traits<int,float,std::less<int>,std::allocator<std::pair<int const ,float> >,0> >
_TEXT	ENDS
; Function compile flags: /Ogtp
; File C:\IAGOS\server\v18\Source\Source\_Common\GuildHouse.cpp
; File C:\IAGOS\server\v18\Source\Source\_Common\Obj.h
; File C:\IAGOS\server\v18\Source\Source\_Common\GuildHouse.cpp
; File C:\IAGOS\server\v18\Source\Source\_Common\Obj.h
; File C:\IAGOS\server\v18\Source\Source\_Common\GuildHouse.cpp
; File C:\IAGOS\server\v18\Source\Source\_Common\guild.h
; File C:\IAGOS\server\v18\Source\Source\_Common\GuildHouse.cpp
; File C:\Program Files\Microsoft Visual Studio\2022\Professional\VC\Tools\MSVC\14.44.35207\include\xtree
; File C:\IAGOS\server\v18\Source\Source\_Common\GuildHouse.cpp
;	COMDAT ?IsBuyAble@CGuildHouseMng@@AAEHPAVCUser@@@Z
_TEXT	SEGMENT
$T1 = -4						; size = 4
_pUser$ = 8						; size = 4
$T2 = 8							; size = 4
?IsBuyAble@CGuildHouseMng@@AAEHPAVCUser@@@Z PROC	; CGuildHouseMng::IsBuyAble, COMDAT
; _this$ = ecx

; 1198 : {

  00000	55		 push	 ebp
  00001	8b ec		 mov	 ebp, esp
  00003	51		 push	 ecx
  00004	56		 push	 esi
  00005	57		 push	 edi
; File C:\IAGOS\server\v18\Source\Source\_Common\Obj.h

; 327  : 	return pObj && ( pObj->IsDelete() == FALSE ); 

  00006	8b 7d 08	 mov	 edi, DWORD PTR _pUser$[ebp]
; File C:\IAGOS\server\v18\Source\Source\_Common\GuildHouse.cpp

; 1198 : {

  00009	8b f1		 mov	 esi, ecx
; File C:\IAGOS\server\v18\Source\Source\_Common\Obj.h

; 327  : 	return pObj && ( pObj->IsDelete() == FALSE ); 

  0000b	85 ff		 test	 edi, edi
  0000d	0f 84 e0 00 00
	00		 je	 $LN37@IsBuyAble

; 180  : 	BOOL			IsDelete()	{ return (m_dwFlags & OBJ_FLAG_DELETE);  }

  00013	f6 47 04 01	 test	 BYTE PTR [edi+4], 1

; 327  : 	return pObj && ( pObj->IsDelete() == FALSE ); 

  00017	0f 85 d6 00 00
	00		 jne	 $LN37@IsBuyAble
; File C:\IAGOS\server\v18\Source\Source\_Common\GuildHouse.cpp

; 1202 : 	CGuild* pGuild = pUser->GetGuild();

  0001d	8b cf		 mov	 ecx, edi
  0001f	e8 00 00 00 00	 call	 ?GetGuild@CMover@@QAEPAVCGuild@@XZ ; CMover::GetGuild

; 1203 : 	if( pGuild )

  00024	85 c0		 test	 eax, eax
  00026	0f 84 bb 00 00
	00		 je	 $LN3@IsBuyAble
; File C:\IAGOS\server\v18\Source\Source\_Common\guild.h

; 309  : 	BOOL	IsMaster( u_long idPlayer )	{	return( m_idMaster == idPlayer );	}

  0002c	8b 48 40	 mov	 ecx, DWORD PTR [eax+64]
  0002f	3b 8f 34 02 00
	00		 cmp	 ecx, DWORD PTR [edi+564]
; File C:\IAGOS\server\v18\Source\Source\_Common\GuildHouse.cpp

; 1205 : 		if( !pGuild->IsMaster( pUser->m_idPlayer ) )

  00035	0f 85 ac 00 00
	00		 jne	 $LN3@IsBuyAble

; 1206 : 		{
; 1207 : 			pUser->AddDefinedText( TID_GAME_GUILDHOUSE_BUY_MASTER );
; 1208 : 			return FALSE;
; 1209 : 		}
; 1210 : 		
; 1211 : 		if( pGuild->m_nLevel < BUY_MIN_LEVEL )

  0003b	83 78 44 03	 cmp	 DWORD PTR [eax+68], 3
  0003f	7d 1f		 jge	 SHORT $LN6@IsBuyAble

; 1212 : 		{
; 1213 : 			pUser->AddDefinedText( TID_GAME_GUILDHOUSE_BUY_LEVEL, "%d", BUY_MIN_LEVEL );

  00041	6a 03		 push	 3
  00043	68 00 00 00 00	 push	 OFFSET ??_C@_02DPKJAMEF@?$CFd@
  00048	68 9f 10 00 00	 push	 4255			; 0000109fH
  0004d	57		 push	 edi
  0004e	e8 00 00 00 00	 call	 ?AddDefinedText@CUser@@QAAXHPBDZZ ; CUser::AddDefinedText
  00053	83 c4 10	 add	 esp, 16			; 00000010H

; 1242 : }

  00056	33 c0		 xor	 eax, eax
  00058	5f		 pop	 edi
  00059	5e		 pop	 esi
  0005a	8b e5		 mov	 esp, ebp
  0005c	5d		 pop	 ebp
  0005d	c2 04 00	 ret	 4
$LN6@IsBuyAble:

; 1214 : 			return FALSE;
; 1215 : 		}
; 1216 : 
; 1217 : 		if( pGuild->GetSize() < BUY_MIN_MEMBERSIZE )

  00060	83 78 3c 0c	 cmp	 DWORD PTR [eax+60], 12	; 0000000cH
  00064	7d 1f		 jge	 SHORT $LN7@IsBuyAble

; 1218 : 		{
; 1219 : 			pUser->AddDefinedText( TID_GAME_GUILDHOUSE_BUY_POPULATION, "%d", BUY_MIN_MEMBERSIZE );

  00066	6a 0c		 push	 12			; 0000000cH
  00068	68 00 00 00 00	 push	 OFFSET ??_C@_02DPKJAMEF@?$CFd@
  0006d	68 a0 10 00 00	 push	 4256			; 000010a0H
  00072	57		 push	 edi
  00073	e8 00 00 00 00	 call	 ?AddDefinedText@CUser@@QAAXHPBDZZ ; CUser::AddDefinedText
  00078	83 c4 10	 add	 esp, 16			; 00000010H

; 1242 : }

  0007b	33 c0		 xor	 eax, eax
  0007d	5f		 pop	 edi
  0007e	5e		 pop	 esi
  0007f	8b e5		 mov	 esp, ebp
  00081	5d		 pop	 ebp
  00082	c2 04 00	 ret	 4
$LN7@IsBuyAble:

; 1220 : 			return FALSE;
; 1221 : 		}
; 1222 : 
; 1223 : 		if( pUser->GetGold() < BUY_PENYA )

  00085	81 bf e0 14 00
	00 00 e1 f5 05	 cmp	 DWORD PTR [edi+5344], 100000000 ; 05f5e100H
  0008f	7d 16		 jge	 SHORT $LN8@IsBuyAble

; 1224 : 		{
; 1225 : 			pUser->AddDefinedText( TID_GAME_GUILDHOUSE_BUY_EXPENSE );

  00091	68 a2 10 00 00	 push	 4258			; 000010a2H

; 1242 : }

  00096	8b cf		 mov	 ecx, edi
  00098	e8 00 00 00 00	 call	 ?AddDefinedText@CUser@@QAEXH@Z ; CUser::AddDefinedText
  0009d	5f		 pop	 edi
  0009e	33 c0		 xor	 eax, eax
  000a0	5e		 pop	 esi
  000a1	8b e5		 mov	 esp, ebp
  000a3	5d		 pop	 ebp
  000a4	c2 04 00	 ret	 4
$LN8@IsBuyAble:

; 1229 : 		if( m_mapGuildHouse.find( pGuild->GetGuildId() ) != m_mapGuildHouse.end() )

  000a7	8b 40 04	 mov	 eax, DWORD PTR [eax+4]
  000aa	8d 4e 08	 lea	 ecx, DWORD PTR [esi+8]
  000ad	89 45 08	 mov	 DWORD PTR $T2[ebp], eax
  000b0	8d 45 08	 lea	 eax, DWORD PTR $T2[ebp]
  000b3	50		 push	 eax
  000b4	8d 45 fc	 lea	 eax, DWORD PTR $T1[ebp]
  000b7	50		 push	 eax
  000b8	e8 00 00 00 00	 call	 ?find@?$_Tree@V?$_Tmap_traits@KPAVCGuildHouseBase@@U?$less@K@std@@V?$allocator@U?$pair@$$CBKPAVCGuildHouseBase@@@std@@@3@$0A@@std@@@std@@QAE?AV?$_Tree_iterator@V?$_Tree_val@U?$_Tree_simple_types@U?$pair@$$CBKPAVCGuildHouseBase@@@std@@@std@@@std@@@2@ABK@Z ; std::_Tree<std::_Tmap_traits<unsigned long,CGuildHouseBase *,std::less<unsigned long>,std::allocator<std::pair<unsigned long const ,CGuildHouseBase *> >,0> >::find
; File C:\Program Files\Microsoft Visual Studio\2022\Professional\VC\Tools\MSVC\14.44.35207\include\xtree

; 232  :         return this->_Ptr == _Right._Ptr;

  000bd	8b 00		 mov	 eax, DWORD PTR [eax]
  000bf	3b 46 08	 cmp	 eax, DWORD PTR [esi+8]
; File C:\IAGOS\server\v18\Source\Source\_Common\GuildHouse.cpp

; 1229 : 		if( m_mapGuildHouse.find( pGuild->GetGuildId() ) != m_mapGuildHouse.end() )

  000c2	74 16		 je	 SHORT $LN9@IsBuyAble

; 1230 : 		{
; 1231 : 			pUser->AddDefinedText( TID_GAME_GUILDHOUSE_BUY_HAVE );

  000c4	68 a3 10 00 00	 push	 4259			; 000010a3H

; 1242 : }

  000c9	8b cf		 mov	 ecx, edi
  000cb	e8 00 00 00 00	 call	 ?AddDefinedText@CUser@@QAEXH@Z ; CUser::AddDefinedText
  000d0	5f		 pop	 edi
  000d1	33 c0		 xor	 eax, eax
  000d3	5e		 pop	 esi
  000d4	8b e5		 mov	 esp, ebp
  000d6	5d		 pop	 ebp
  000d7	c2 04 00	 ret	 4
$LN9@IsBuyAble:
  000da	5f		 pop	 edi

; 1238 : 		return FALSE;
; 1239 : 	}
; 1240 : 
; 1241 : 	return TRUE;

  000db	b8 01 00 00 00	 mov	 eax, 1

; 1242 : }

  000e0	5e		 pop	 esi
  000e1	8b e5		 mov	 esp, ebp
  000e3	5d		 pop	 ebp
  000e4	c2 04 00	 ret	 4
$LN3@IsBuyAble:

; 1232 : 			return FALSE;
; 1233 : 		}
; 1234 : 	}
; 1235 : 	else
; 1236 : 	{
; 1237 : 		pUser->AddDefinedText( TID_GAME_GUILDHOUSE_BUY_MASTER );

  000e7	68 a1 10 00 00	 push	 4257			; 000010a1H

; 1242 : }

  000ec	8b cf		 mov	 ecx, edi
  000ee	e8 00 00 00 00	 call	 ?AddDefinedText@CUser@@QAEXH@Z ; CUser::AddDefinedText
$LN37@IsBuyAble:
  000f3	5f		 pop	 edi
  000f4	33 c0		 xor	 eax, eax
  000f6	5e		 pop	 esi
  000f7	8b e5		 mov	 esp, ebp
  000f9	5d		 pop	 ebp
  000fa	c2 04 00	 ret	 4
?IsBuyAble@CGuildHouseMng@@AAEHPAVCUser@@@Z ENDP	; CGuildHouseMng::IsBuyAble
_TEXT	ENDS
; Function compile flags: /Ogtp
; File C:\IAGOS\server\v18\Source\Source\_Common\GuildHouse.cpp
; File C:\Program Files\Microsoft Visual Studio\2022\Professional\VC\Tools\MSVC\14.44.35207\include\xtree
; File C:\IAGOS\server\v18\Source\Source\_Common\GuildHouse.cpp
; File C:\Program Files\Microsoft Visual Studio\2022\Professional\VC\Tools\MSVC\14.44.35207\include\xtree
; File C:\Program Files\Microsoft Visual Studio\2022\Professional\VC\Tools\MSVC\14.44.35207\include\type_traits
; File C:\Program Files\Microsoft Visual Studio\2022\Professional\VC\Tools\MSVC\14.44.35207\include\xtree
; File C:\IAGOS\server\v18\Source\Source\_Common\GuildHouse.cpp
;	COMDAT ?GetRestExpFactor@CGuildHouseMng@@QAEMH@Z
_TEXT	SEGMENT
__Loc$1 = -12						; size = 12
_nLevel$ = 8						; size = 4
?GetRestExpFactor@CGuildHouseMng@@QAEMH@Z PROC		; CGuildHouseMng::GetRestExpFactor, COMDAT
; _this$ = ecx

; 1456 : {

  00000	55		 push	 ebp
  00001	8b ec		 mov	 ebp, esp
  00003	83 ec 0c	 sub	 esp, 12			; 0000000cH
  00006	56		 push	 esi
; File C:\Program Files\Microsoft Visual Studio\2022\Professional\VC\Tools\MSVC\14.44.35207\include\xtree

; 1384 :         const _Tree_find_result<_Nodeptr> _Loc = _Find_lower_bound(_Keyval);

  00007	8d 45 08	 lea	 eax, DWORD PTR _nLevel$[ebp]
; File C:\IAGOS\server\v18\Source\Source\_Common\GuildHouse.cpp

; 1456 : {

  0000a	8b f1		 mov	 esi, ecx
; File C:\Program Files\Microsoft Visual Studio\2022\Professional\VC\Tools\MSVC\14.44.35207\include\xtree

; 1384 :         const _Tree_find_result<_Nodeptr> _Loc = _Find_lower_bound(_Keyval);

  0000c	50		 push	 eax
  0000d	8d 45 f4	 lea	 eax, DWORD PTR __Loc$1[ebp]
  00010	50		 push	 eax
  00011	e8 00 00 00 00	 call	 ??$_Find_lower_bound@H@?$_Tree@V?$_Tmap_traits@HMU?$less@H@std@@V?$allocator@U?$pair@$$CBHM@std@@@2@$0A@@std@@@std@@IBE?AU?$_Tree_find_result@PAU?$_Tree_node@U?$pair@$$CBHM@std@@PAX@std@@@1@ABH@Z ; std::_Tree<std::_Tmap_traits<int,float,std::less<int>,std::allocator<std::pair<int const ,float> >,0> >::_Find_lower_bound<int>

; 1624 :         return !_Bound->_Isnil && !_DEBUG_LT_PRED(_Getcomp(), _Keyval, _Traits::_Kfn(_Bound->_Myval));

  00016	8b 55 fc	 mov	 edx, DWORD PTR __Loc$1[ebp+8]
  00019	80 7a 0d 00	 cmp	 BYTE PTR [edx+13], 0
  0001d	75 16		 jne	 SHORT $LN50@GetRestExp
; File C:\Program Files\Microsoft Visual Studio\2022\Professional\VC\Tools\MSVC\14.44.35207\include\type_traits

; 2380 :         return _Left < _Right;

  0001f	8b 45 08	 mov	 eax, DWORD PTR _nLevel$[ebp]
  00022	3b 42 10	 cmp	 eax, DWORD PTR [edx+16]
; File C:\Program Files\Microsoft Visual Studio\2022\Professional\VC\Tools\MSVC\14.44.35207\include\xtree

; 1624 :         return !_Bound->_Isnil && !_DEBUG_LT_PRED(_Getcomp(), _Keyval, _Traits::_Kfn(_Bound->_Myval));

  00025	7c 0e		 jl	 SHORT $LN50@GetRestExp

; 37   :     _Tree_unchecked_const_iterator(_Nodeptr _Pnode, const _Mytree* _Plist) noexcept : _Ptr(_Pnode) {

  00027	3b 16		 cmp	 edx, DWORD PTR [esi]
; File C:\IAGOS\server\v18\Source\Source\_Common\GuildHouse.cpp

; 1458 : 	if( it == m_mapRestExpFactorTable.end() )

  00029	74 0a		 je	 SHORT $LN50@GetRestExp

; 1460 : 
; 1461 : 	return it->second;

  0002b	d9 42 14	 fld	 DWORD PTR [edx+20]
  0002e	5e		 pop	 esi

; 1462 : }

  0002f	8b e5		 mov	 esp, ebp
  00031	5d		 pop	 ebp
  00032	c2 04 00	 ret	 4
$LN50@GetRestExp:

; 1459 : 		return 0.0f;

  00035	d9 ee		 fldz
  00037	5e		 pop	 esi

; 1462 : }

  00038	8b e5		 mov	 esp, ebp
  0003a	5d		 pop	 ebp
  0003b	c2 04 00	 ret	 4
?GetRestExpFactor@CGuildHouseMng@@QAEMH@Z ENDP		; CGuildHouseMng::GetRestExpFactor
_TEXT	ENDS
; Function compile flags: /Ogtp
; File C:\IAGOS\server\v18\Source\Source\_Common\GuildHouse.cpp
; File C:\Program Files\Microsoft Visual Studio\2022\Professional\VC\Tools\MSVC\14.44.35207\include\utility
; File C:\Program Files\Microsoft Visual Studio\2022\Professional\VC\Tools\MSVC\14.44.35207\include\xtree
; File C:\Program Files\Microsoft Visual Studio\2022\Professional\VC\Tools\MSVC\14.44.35207\include\utility
; File C:\Program Files\Microsoft Visual Studio\2022\Professional\VC\Tools\MSVC\14.44.35207\include\xtree
; File C:\Program Files\Microsoft Visual Studio\2022\Professional\VC\Tools\MSVC\14.44.35207\include\type_traits
; File C:\Program Files\Microsoft Visual Studio\2022\Professional\VC\Tools\MSVC\14.44.35207\include\xtree
; File C:\IAGOS\server\v18\Source\Source\_Common\GuildHouse.cpp
; File C:\Program Files\Microsoft Visual Studio\2022\Professional\VC\Tools\MSVC\14.44.35207\include\xtree
; File C:\Program Files\Microsoft Visual Studio\2022\Professional\VC\Tools\MSVC\14.44.35207\include\xmemory
; File C:\Program Files\Microsoft Visual Studio\2022\Professional\VC\Tools\MSVC\14.44.35207\include\xtree
; File C:\Program Files\Microsoft Visual Studio\2022\Professional\VC\Tools\MSVC\14.44.35207\include\xmemory
; File C:\Program Files\Microsoft Visual Studio\2022\Professional\VC\Tools\MSVC\14.44.35207\include\utility
; File C:\Program Files\Microsoft Visual Studio\2022\Professional\VC\Tools\MSVC\14.44.35207\include\xmemory
; File C:\Program Files\Microsoft Visual Studio\2022\Professional\VC\Tools\MSVC\14.44.35207\include\xtree
; File C:\Program Files\Microsoft Visual Studio\2022\Professional\VC\Tools\MSVC\14.44.35207\include\utility
; File C:\Program Files\Microsoft Visual Studio\2022\Professional\VC\Tools\MSVC\14.44.35207\include\xtree
; File C:\Program Files\Microsoft Visual Studio\2022\Professional\VC\Tools\MSVC\14.44.35207\include\utility
; File C:\Program Files\Microsoft Visual Studio\2022\Professional\VC\Tools\MSVC\14.44.35207\include\xtree
; File C:\IAGOS\server\v18\Source\Source\_Common\GuildHouse.cpp
; File C:\Program Files\Microsoft Visual Studio\2022\Professional\VC\Tools\MSVC\14.44.35207\include\xtree
; File C:\IAGOS\server\v18\Source\Source\_Common\GuildHouse.cpp
;	COMDAT ?AddRestExpFactorTable@CGuildHouseMng@@QAEXHHM@Z
_TEXT	SEGMENT
$T3 = -52						; size = 12
__Loc$4 = -40						; size = 12
$T5 = -28						; size = 8
$T6 = -20						; size = 8
__$EHRec$ = -12						; size = 12
_nMinLevel$ = 8						; size = 4
_nMaxLevel$ = 12					; size = 4
_fFactor$ = 16						; size = 4
?AddRestExpFactorTable@CGuildHouseMng@@QAEXHHM@Z PROC	; CGuildHouseMng::AddRestExpFactorTable, COMDAT
; _this$ = ecx

; 1447 : {

  00000	55		 push	 ebp
  00001	8b ec		 mov	 ebp, esp
  00003	6a ff		 push	 -1
  00005	68 00 00 00 00	 push	 __ehhandler$?AddRestExpFactorTable@CGuildHouseMng@@QAEXHHM@Z
  0000a	64 a1 00 00 00
	00		 mov	 eax, DWORD PTR fs:0
  00010	50		 push	 eax
  00011	83 ec 28	 sub	 esp, 40			; 00000028H
  00014	53		 push	 ebx
  00015	56		 push	 esi
  00016	57		 push	 edi
  00017	a1 00 00 00 00	 mov	 eax, DWORD PTR ___security_cookie
  0001c	33 c5		 xor	 eax, ebp
  0001e	50		 push	 eax
  0001f	8d 45 f4	 lea	 eax, DWORD PTR __$EHRec$[ebp]
  00022	64 a3 00 00 00
	00		 mov	 DWORD PTR fs:0, eax
  00028	8b d9		 mov	 ebx, ecx

; 1448 : 	for( int i=nMinLevel; i<=nMaxLevel; i++ )

  0002a	8b 7d 08	 mov	 edi, DWORD PTR _nMinLevel$[ebp]
  0002d	3b 7d 0c	 cmp	 edi, DWORD PTR _nMaxLevel$[ebp]
  00030	0f 8f aa 00 00
	00		 jg	 $LN3@AddRestExp
; File C:\Program Files\Microsoft Visual Studio\2022\Professional\VC\Tools\MSVC\14.44.35207\include\utility

; 274  :         : first(_STD forward<_Other1>(_Val1)), second(_STD forward<_Other2>(_Val2)) {

  00036	f3 0f 10 45 10	 movss	 xmm0, DWORD PTR _fFactor$[ebp]
  0003b	f3 0f 11 45 f0	 movss	 DWORD PTR $T6[ebp+4], xmm0
$LL4@AddRestExp:
; File C:\Program Files\Microsoft Visual Studio\2022\Professional\VC\Tools\MSVC\14.44.35207\include\xtree

; 1017 :             _Loc                = _Find_lower_bound(_Keyval);

  00040	8d 45 ec	 lea	 eax, DWORD PTR $T6[ebp]
; File C:\Program Files\Microsoft Visual Studio\2022\Professional\VC\Tools\MSVC\14.44.35207\include\utility

; 274  :         : first(_STD forward<_Other1>(_Val1)), second(_STD forward<_Other2>(_Val2)) {

  00043	89 7d ec	 mov	 DWORD PTR $T6[ebp], edi
; File C:\Program Files\Microsoft Visual Studio\2022\Professional\VC\Tools\MSVC\14.44.35207\include\xtree

; 1017 :             _Loc                = _Find_lower_bound(_Keyval);

  00046	50		 push	 eax
  00047	8d 45 cc	 lea	 eax, DWORD PTR $T3[ebp]
  0004a	8b cb		 mov	 ecx, ebx
  0004c	50		 push	 eax
  0004d	e8 00 00 00 00	 call	 ??$_Find_lower_bound@H@?$_Tree@V?$_Tmap_traits@HMU?$less@H@std@@V?$allocator@U?$pair@$$CBHM@std@@@2@$0A@@std@@@std@@IBE?AU?$_Tree_find_result@PAU?$_Tree_node@U?$pair@$$CBHM@std@@PAX@std@@@1@ABH@Z ; std::_Tree<std::_Tmap_traits<int,float,std::less<int>,std::allocator<std::pair<int const ,float> >,0> >::_Find_lower_bound<int>
  00052	f3 0f 7e 00	 movq	 xmm0, QWORD PTR [eax]
  00056	8b 40 08	 mov	 eax, DWORD PTR [eax+8]
  00059	66 0f d6 45 d8	 movq	 QWORD PTR __Loc$4[ebp], xmm0

; 1624 :         return !_Bound->_Isnil && !_DEBUG_LT_PRED(_Getcomp(), _Keyval, _Traits::_Kfn(_Bound->_Myval));

  0005e	80 78 0d 00	 cmp	 BYTE PTR [eax+13], 0
  00062	75 15		 jne	 SHORT $LN18@AddRestExp
; File C:\Program Files\Microsoft Visual Studio\2022\Professional\VC\Tools\MSVC\14.44.35207\include\type_traits

; 2380 :         return _Left < _Right;

  00064	3b 78 10	 cmp	 edi, DWORD PTR [eax+16]
; File C:\Program Files\Microsoft Visual Studio\2022\Professional\VC\Tools\MSVC\14.44.35207\include\xtree

; 1624 :         return !_Bound->_Isnil && !_DEBUG_LT_PRED(_Getcomp(), _Keyval, _Traits::_Kfn(_Bound->_Myval));

  00067	7c 10		 jl	 SHORT $LN18@AddRestExp
; File C:\IAGOS\server\v18\Source\Source\_Common\GuildHouse.cpp

; 1451 : 			Error( "CGuildHouseMng::AddRestExpFactorTable() Insert Failed! - [Level:%d]", i );

  00069	57		 push	 edi
  0006a	68 00 00 00 00	 push	 OFFSET ??_C@_0EE@LKJJIMIF@CGuildHouseMng?3?3AddRestExpFacto@
  0006f	e8 00 00 00 00	 call	 ?Error@@YAPBDPBDZZ	; Error
  00074	83 c4 08	 add	 esp, 8
  00077	eb 5d		 jmp	 SHORT $LN2@AddRestExp
$LN18@AddRestExp:
; File C:\Program Files\Microsoft Visual Studio\2022\Professional\VC\Tools\MSVC\14.44.35207\include\xtree

; 1648 :         if (max_size() == _Get_scary()->_Mysize) {

  00079	81 7b 04 aa aa
	aa 0a		 cmp	 DWORD PTR [ebx+4], 178956970 ; 0aaaaaaaH
  00080	74 72		 je	 SHORT $LN121@AddRestExp

; 1023 :             _Inserted = _Tree_temp_node<_Alnode>(_Getal(), _Scary->_Myhead, _STD forward<_Valtys>(_Vals)...)._Release();

  00082	8b 33		 mov	 esi, DWORD PTR [ebx]
; File C:\Program Files\Microsoft Visual Studio\2022\Professional\VC\Tools\MSVC\14.44.35207\include\xmemory

; 1160 :     _CONSTEXPR20 explicit _Alloc_construct_ptr(_Alloc& _Al_) : _Al(_Al_), _Ptr(nullptr) {}

  00084	89 5d e4	 mov	 DWORD PTR $T5[ebp], ebx

; 136  :         return ::operator new(_Bytes);

  00087	6a 18		 push	 24			; 00000018H
; File C:\Program Files\Microsoft Visual Studio\2022\Professional\VC\Tools\MSVC\14.44.35207\include\xtree

; 808  :     explicit _Tree_temp_node_alloc(_Alnode& _Al_) : _Alloc_construct_ptr<_Alnode>(_Al_) {

  00089	c7 45 fc 00 00
	00 00		 mov	 DWORD PTR __$EHRec$[ebp+8], 0
; File C:\Program Files\Microsoft Visual Studio\2022\Professional\VC\Tools\MSVC\14.44.35207\include\xmemory

; 1167 :         _Ptr = nullptr; // if allocate throws, prevents double-free

  00090	c7 45 e8 00 00
	00 00		 mov	 DWORD PTR $T5[ebp+4], 0

; 136  :         return ::operator new(_Bytes);

  00097	e8 00 00 00 00	 call	 ??2@YAPAXI@Z		; operator new
; File C:\Program Files\Microsoft Visual Studio\2022\Professional\VC\Tools\MSVC\14.44.35207\include\utility

; 303  :         : first(_STD forward<_Other1>(_Right.first)), second(_STD forward<_Other2>(_Right.second)) {}

  0009c	f3 0f 10 45 10	 movss	 xmm0, DWORD PTR _fFactor$[ebp]
; File C:\Program Files\Microsoft Visual Studio\2022\Professional\VC\Tools\MSVC\14.44.35207\include\xmemory

; 136  :         return ::operator new(_Bytes);

  000a1	83 c4 04	 add	 esp, 4
; File C:\Program Files\Microsoft Visual Studio\2022\Professional\VC\Tools\MSVC\14.44.35207\include\xtree

; 1042 :         return {_Scary->_Insert_node(_Loc._Location, _Inserted), true};

  000a4	8b cb		 mov	 ecx, ebx

; 810  :     }

  000a6	c7 45 fc ff ff
	ff ff		 mov	 DWORD PTR __$EHRec$[ebp+8], -1
; File C:\Program Files\Microsoft Visual Studio\2022\Professional\VC\Tools\MSVC\14.44.35207\include\utility

; 774  :     _Val         = static_cast<_Other&&>(_New_val);

  000ad	c7 45 e8 00 00
	00 00		 mov	 DWORD PTR $T5[ebp+4], 0

; 303  :         : first(_STD forward<_Other1>(_Right.first)), second(_STD forward<_Other2>(_Right.second)) {}

  000b4	89 78 10	 mov	 DWORD PTR [eax+16], edi
; File C:\Program Files\Microsoft Visual Studio\2022\Professional\VC\Tools\MSVC\14.44.35207\include\xtree

; 1042 :         return {_Scary->_Insert_node(_Loc._Location, _Inserted), true};

  000b7	50		 push	 eax
  000b8	ff 75 dc	 push	 DWORD PTR __Loc$4[ebp+4]
; File C:\Program Files\Microsoft Visual Studio\2022\Professional\VC\Tools\MSVC\14.44.35207\include\utility

; 303  :         : first(_STD forward<_Other1>(_Right.first)), second(_STD forward<_Other2>(_Right.second)) {}

  000bb	f3 0f 11 40 14	 movss	 DWORD PTR [eax+20], xmm0
; File C:\Program Files\Microsoft Visual Studio\2022\Professional\VC\Tools\MSVC\14.44.35207\include\xtree

; 1042 :         return {_Scary->_Insert_node(_Loc._Location, _Inserted), true};

  000c0	ff 75 d8	 push	 DWORD PTR __Loc$4[ebp]

; 831  :         _Construct_in_place(this->_Ptr->_Left, _Myhead);

  000c3	89 30		 mov	 DWORD PTR [eax], esi

; 832  :         _Construct_in_place(this->_Ptr->_Parent, _Myhead);

  000c5	89 70 04	 mov	 DWORD PTR [eax+4], esi

; 833  :         _Construct_in_place(this->_Ptr->_Right, _Myhead);

  000c8	89 70 08	 mov	 DWORD PTR [eax+8], esi

; 834  :         this->_Ptr->_Color = _Red;

  000cb	66 c7 40 0c 00
	00		 mov	 WORD PTR [eax+12], 0

; 1042 :         return {_Scary->_Insert_node(_Loc._Location, _Inserted), true};

  000d1	e8 00 00 00 00	 call	 ?_Insert_node@?$_Tree_val@U?$_Tree_simple_types@U?$pair@$$CBHM@std@@@std@@@std@@QAEPAU?$_Tree_node@U?$pair@$$CBHM@std@@PAX@2@U?$_Tree_id@PAU?$_Tree_node@U?$pair@$$CBHM@std@@PAX@std@@@2@QAU32@@Z ; std::_Tree_val<std::_Tree_simple_types<std::pair<int const ,float> > >::_Insert_node
$LN2@AddRestExp:
; File C:\IAGOS\server\v18\Source\Source\_Common\GuildHouse.cpp

; 1448 : 	for( int i=nMinLevel; i<=nMaxLevel; i++ )

  000d6	47		 inc	 edi
  000d7	3b 7d 0c	 cmp	 edi, DWORD PTR _nMaxLevel$[ebp]
  000da	0f 8e 60 ff ff
	ff		 jle	 $LL4@AddRestExp
$LN3@AddRestExp:

; 1453 : }

  000e0	8b 4d f4	 mov	 ecx, DWORD PTR __$EHRec$[ebp]
  000e3	64 89 0d 00 00
	00 00		 mov	 DWORD PTR fs:0, ecx
  000ea	59		 pop	 ecx
  000eb	5f		 pop	 edi
  000ec	5e		 pop	 esi
  000ed	5b		 pop	 ebx
  000ee	8b e5		 mov	 esp, ebp
  000f0	5d		 pop	 ebp
  000f1	c2 0c 00	 ret	 12			; 0000000cH
$LN121@AddRestExp:
; File C:\Program Files\Microsoft Visual Studio\2022\Professional\VC\Tools\MSVC\14.44.35207\include\xtree

; 1649 :             _Throw_tree_length_error();

  000f4	e8 00 00 00 00	 call	 ?_Throw_tree_length_error@std@@YAXXZ ; std::_Throw_tree_length_error
$LN130@AddRestExp:
  000f9	cc		 int	 3
_TEXT	ENDS
;	COMDAT text$x
text$x	SEGMENT
__unwindfunclet$?AddRestExpFactorTable@CGuildHouseMng@@QAEXHHM@Z$2:
  00000	8d 4d e4	 lea	 ecx, DWORD PTR $T5[ebp]
  00003	e9 00 00 00 00	 jmp	 ??1?$_Alloc_construct_ptr@V?$allocator@U?$_Tree_node@U?$pair@$$CBHM@std@@PAX@std@@@std@@@std@@QAE@XZ ; std::_Alloc_construct_ptr<std::allocator<std::_Tree_node<std::pair<int const ,float>,void *> > >::~_Alloc_construct_ptr<std::allocator<std::_Tree_node<std::pair<int const ,float>,void *> > >
  00008	cc		 int	 3
  00009	cc		 int	 3
  0000a	cc		 int	 3
  0000b	cc		 int	 3
  0000c	cc		 int	 3
__ehhandler$?AddRestExpFactorTable@CGuildHouseMng@@QAEXHHM@Z:
  0000d	90		 npad	 1
  0000e	90		 npad	 1
  0000f	8b 54 24 08	 mov	 edx, DWORD PTR [esp+8]
  00013	8d 42 0c	 lea	 eax, DWORD PTR [edx+12]
  00016	8b 4a c8	 mov	 ecx, DWORD PTR [edx-56]
  00019	33 c8		 xor	 ecx, eax
  0001b	e8 00 00 00 00	 call	 @__security_check_cookie@4
  00020	b8 00 00 00 00	 mov	 eax, OFFSET __ehfuncinfo$?AddRestExpFactorTable@CGuildHouseMng@@QAEXHHM@Z
  00025	e9 00 00 00 00	 jmp	 ___CxxFrameHandler3
text$x	ENDS
?AddRestExpFactorTable@CGuildHouseMng@@QAEXHHM@Z ENDP	; CGuildHouseMng::AddRestExpFactorTable
; Function compile flags: /Ogtp
; File C:\IAGOS\server\v18\Source\Source\_Common\GuildHouse.cpp
;	COMDAT ?GetRestPointFactor@CGuildHouseMng@@QAEMPAVCUser@@@Z
_TEXT	SEGMENT
_pUser$ = 8						; size = 4
?GetRestPointFactor@CGuildHouseMng@@QAEMPAVCUser@@@Z PROC ; CGuildHouseMng::GetRestPointFactor, COMDAT
; _this$ = ecx

; 1438 : {

  00000	55		 push	 ebp
  00001	8b ec		 mov	 ebp, esp

; 1439 : 	CGuildHouseBase* pGuildHouse = GetGuildHouse( pUser->m_idGuild );

  00003	8b 45 08	 mov	 eax, DWORD PTR _pUser$[ebp]
  00006	ff b0 14 07 00
	00		 push	 DWORD PTR [eax+1812]
  0000c	e8 00 00 00 00	 call	 ?GetGuildHouse@CGuildHouseMng@@QAEPAVCGuildHouseBase@@K@Z ; CGuildHouseMng::GetGuildHouse
  00011	8b c8		 mov	 ecx, eax

; 1440 : 	if( pGuildHouse )

  00013	85 c9		 test	 ecx, ecx
  00015	74 0b		 je	 SHORT $LN2@GetRestPoi

; 1441 : 		return pGuildHouse->GetRestPointFactor();

  00017	8b 01		 mov	 eax, DWORD PTR [ecx]
  00019	8b 40 04	 mov	 eax, DWORD PTR [eax+4]
  0001c	ff d0		 call	 eax

; 1444 : }

  0001e	5d		 pop	 ebp
  0001f	c2 04 00	 ret	 4
$LN2@GetRestPoi:

; 1442 : 	
; 1443 : 	return 0.0f;

  00022	d9 ee		 fldz

; 1444 : }

  00024	5d		 pop	 ebp
  00025	c2 04 00	 ret	 4
?GetRestPointFactor@CGuildHouseMng@@QAEMPAVCUser@@@Z ENDP ; CGuildHouseMng::GetRestPointFactor
_TEXT	ENDS
; Function compile flags: /Ogtp
; File C:\IAGOS\server\v18\Source\Source\_Common\GuildHouse.cpp
;	COMDAT ?ResetApplyDST@CGuildHouseMng@@QAEXPAVCUser@@@Z
_TEXT	SEGMENT
_pUser$ = 8						; size = 4
?ResetApplyDST@CGuildHouseMng@@QAEXPAVCUser@@@Z PROC	; CGuildHouseMng::ResetApplyDST, COMDAT
; _this$ = ecx

; 1431 : {

  00000	55		 push	 ebp
  00001	8b ec		 mov	 ebp, esp
  00003	56		 push	 esi

; 1432 : 	CGuildHouseBase* pGuildHouse = GetGuildHouse( pUser->m_idGuild );

  00004	8b 75 08	 mov	 esi, DWORD PTR _pUser$[ebp]
  00007	ff b6 14 07 00
	00		 push	 DWORD PTR [esi+1812]
  0000d	e8 00 00 00 00	 call	 ?GetGuildHouse@CGuildHouseMng@@QAEPAVCGuildHouseBase@@K@Z ; CGuildHouseMng::GetGuildHouse

; 1433 : 	if( pGuildHouse )

  00012	85 c0		 test	 eax, eax
  00014	74 08		 je	 SHORT $LN2@ResetApply

; 1434 : 		pGuildHouse->ResetApplyDST( pUser );

  00016	56		 push	 esi
  00017	8b c8		 mov	 ecx, eax
  00019	e8 00 00 00 00	 call	 ?ResetApplyDST@CGuildHouseBase@@QAEXPAVCUser@@@Z ; CGuildHouseBase::ResetApplyDST
$LN2@ResetApply:
  0001e	5e		 pop	 esi

; 1435 : }

  0001f	5d		 pop	 ebp
  00020	c2 04 00	 ret	 4
?ResetApplyDST@CGuildHouseMng@@QAEXPAVCUser@@@Z ENDP	; CGuildHouseMng::ResetApplyDST
_TEXT	ENDS
; Function compile flags: /Ogtp
; File C:\IAGOS\server\v18\Source\Source\_Common\GuildHouse.cpp
;	COMDAT ?SetApplyDST@CGuildHouseMng@@QAEXPAVCUser@@@Z
_TEXT	SEGMENT
_pUser$ = 8						; size = 4
?SetApplyDST@CGuildHouseMng@@QAEXPAVCUser@@@Z PROC	; CGuildHouseMng::SetApplyDST, COMDAT
; _this$ = ecx

; 1424 : {

  00000	55		 push	 ebp
  00001	8b ec		 mov	 ebp, esp
  00003	56		 push	 esi

; 1425 : 	CGuildHouseBase* pGuildHouse = GetGuildHouse( pUser->m_idGuild );

  00004	8b 75 08	 mov	 esi, DWORD PTR _pUser$[ebp]
  00007	ff b6 14 07 00
	00		 push	 DWORD PTR [esi+1812]
  0000d	e8 00 00 00 00	 call	 ?GetGuildHouse@CGuildHouseMng@@QAEPAVCGuildHouseBase@@K@Z ; CGuildHouseMng::GetGuildHouse

; 1426 : 	if( pGuildHouse )

  00012	85 c0		 test	 eax, eax
  00014	74 08		 je	 SHORT $LN2@SetApplyDS

; 1427 : 		pGuildHouse->SetApplyDST( pUser );

  00016	56		 push	 esi
  00017	8b c8		 mov	 ecx, eax
  00019	e8 00 00 00 00	 call	 ?SetApplyDST@CGuildHouseBase@@QAEXPAVCUser@@@Z ; CGuildHouseBase::SetApplyDST
$LN2@SetApplyDS:
  0001e	5e		 pop	 esi

; 1428 : }

  0001f	5d		 pop	 ebp
  00020	c2 04 00	 ret	 4
?SetApplyDST@CGuildHouseMng@@QAEXPAVCUser@@@Z ENDP	; CGuildHouseMng::SetApplyDST
_TEXT	ENDS
; Function compile flags: /Ogtp
; File C:\IAGOS\server\v18\Source\Source\_Common\GuildHouse.cpp
; File C:\IAGOS\server\v18\Source\Source\_Common\Obj.h
; File C:\IAGOS\server\v18\Source\Source\_Common\GuildHouse.cpp
;	COMDAT ?SendWorldToDatabase@CGuildHouseMng@@QAEHPAVCUser@@HAAUGuildHouse_Furniture_Info@CGuildHouseBase@@H@Z
_TEXT	SEGMENT
_pUser$ = 8						; size = 4
_nPacketType$ = 12					; size = 4
_gfi$ = 16						; size = 4
_nIndex$ = 20						; size = 4
?SendWorldToDatabase@CGuildHouseMng@@QAEHPAVCUser@@HAAUGuildHouse_Furniture_Info@CGuildHouseBase@@H@Z PROC ; CGuildHouseMng::SendWorldToDatabase, COMDAT
; _this$ = ecx

; 1331 : {

  00000	55		 push	 ebp
  00001	8b ec		 mov	 ebp, esp
  00003	56		 push	 esi
; File C:\IAGOS\server\v18\Source\Source\_Common\Obj.h

; 327  : 	return pObj && ( pObj->IsDelete() == FALSE ); 

  00004	8b 75 08	 mov	 esi, DWORD PTR _pUser$[ebp]
  00007	85 f6		 test	 esi, esi
  00009	74 2b		 je	 SHORT $LN3@SendWorldT

; 180  : 	BOOL			IsDelete()	{ return (m_dwFlags & OBJ_FLAG_DELETE);  }

  0000b	f6 46 04 01	 test	 BYTE PTR [esi+4], 1

; 327  : 	return pObj && ( pObj->IsDelete() == FALSE ); 

  0000f	75 25		 jne	 SHORT $LN3@SendWorldT
; File C:\IAGOS\server\v18\Source\Source\_Common\GuildHouse.cpp

; 1335 : 	CGuildHouseBase* pGuildHouse = GetGuildHouse( pUser->m_idGuild );

  00011	ff b6 14 07 00
	00		 push	 DWORD PTR [esi+1812]
  00017	e8 00 00 00 00	 call	 ?GetGuildHouse@CGuildHouseMng@@QAEPAVCGuildHouseBase@@K@Z ; CGuildHouseMng::GetGuildHouse

; 1336 : 	if( pGuildHouse )

  0001c	85 c0		 test	 eax, eax
  0001e	74 16		 je	 SHORT $LN3@SendWorldT

; 1337 : 		return pGuildHouse->SendWorldToDatabase( pUser, nPacketType, gfi, nIndex );

  00020	ff 75 14	 push	 DWORD PTR _nIndex$[ebp]
  00023	8b c8		 mov	 ecx, eax
  00025	ff 75 10	 push	 DWORD PTR _gfi$[ebp]
  00028	ff 75 0c	 push	 DWORD PTR _nPacketType$[ebp]
  0002b	56		 push	 esi
  0002c	e8 00 00 00 00	 call	 ?SendWorldToDatabase@CGuildHouseBase@@QAEHPAVCUser@@HAAUGuildHouse_Furniture_Info@1@H@Z ; CGuildHouseBase::SendWorldToDatabase
  00031	5e		 pop	 esi

; 1340 : }

  00032	5d		 pop	 ebp
  00033	c2 10 00	 ret	 16			; 00000010H
$LN3@SendWorldT:

; 1338 : 
; 1339 : 	return FALSE;

  00036	33 c0		 xor	 eax, eax
  00038	5e		 pop	 esi

; 1340 : }

  00039	5d		 pop	 ebp
  0003a	c2 10 00	 ret	 16			; 00000010H
?SendWorldToDatabase@CGuildHouseMng@@QAEHPAVCUser@@HAAUGuildHouse_Furniture_Info@CGuildHouseBase@@H@Z ENDP ; CGuildHouseMng::SendWorldToDatabase
_TEXT	ENDS
; Function compile flags: /Ogtp
; File C:\IAGOS\server\v18\Source\Source\_Common\GuildHouse.cpp
; File C:\Program Files\Microsoft Visual Studio\2022\Professional\VC\Tools\MSVC\14.44.35207\include\xtree
; File C:\IAGOS\server\v18\Source\Source\_Common\GuildHouse.cpp
; File C:\Program Files\Microsoft Visual Studio\2022\Professional\VC\Tools\MSVC\14.44.35207\include\xtree
; File C:\IAGOS\server\v18\Source\Source\_Common\GuildHouse.cpp
; File C:\Program Files\Microsoft Visual Studio\2022\Professional\VC\Tools\MSVC\14.44.35207\include\xtree
; File C:\Program Files\Microsoft Visual Studio\2022\Professional\VC\Tools\MSVC\14.44.35207\include\type_traits
; File C:\Program Files\Microsoft Visual Studio\2022\Professional\VC\Tools\MSVC\14.44.35207\include\xtree
; File C:\Program Files\Microsoft Visual Studio\2022\Professional\VC\Tools\MSVC\14.44.35207\include\type_traits
; File C:\Program Files\Microsoft Visual Studio\2022\Professional\VC\Tools\MSVC\14.44.35207\include\xtree
; File C:\IAGOS\server\v18\Source\Source\_Common\Project.h
; File C:\IAGOS\server\v18\Source\Source\_Common\Obj.h
; File C:\IAGOS\server\v18\Source\Source\_Common\GuildHouse.cpp
; File C:\Program Files\Microsoft Visual Studio\2022\Professional\VC\Tools\MSVC\14.44.35207\include\xtree
; File C:\IAGOS\server\v18\Source\Source\_Common\GuildHouse.cpp
;	COMDAT ?OnRemoveGuildHouse@CGuildHouseMng@@QAEXAAVCAr@@@Z
_TEXT	SEGMENT
_dwGuildId$ = -4					; size = 4
_ar$ = 8						; size = 4
?OnRemoveGuildHouse@CGuildHouseMng@@QAEXAAVCAr@@@Z PROC	; CGuildHouseMng::OnRemoveGuildHouse, COMDAT
; _this$ = ecx

; 1309 : {

  00000	55		 push	 ebp
  00001	8b ec		 mov	 ebp, esp
  00003	51		 push	 ecx
  00004	53		 push	 ebx
  00005	56		 push	 esi
  00006	57		 push	 edi

; 1310 : 	DWORD dwGuildId;
; 1311 : 	ar >> dwGuildId;

  00007	8d 45 fc	 lea	 eax, DWORD PTR _dwGuildId$[ebp]
  0000a	8b f9		 mov	 edi, ecx
  0000c	8b 4d 08	 mov	 ecx, DWORD PTR _ar$[ebp]
  0000f	50		 push	 eax
  00010	e8 00 00 00 00	 call	 ??$?5K@CAr@@QAEAAV0@AAK@Z ; CAr::operator>><unsigned long>

; 1312 : 
; 1313 : 	RemoveGuildHouse( dwGuildId );

  00015	8b 75 fc	 mov	 esi, DWORD PTR _dwGuildId$[ebp]
  00018	8b cf		 mov	 ecx, edi
  0001a	56		 push	 esi
  0001b	e8 00 00 00 00	 call	 ?RemoveGuildHouse@CGuildHouseMng@@QAEHK@Z ; CGuildHouseMng::RemoveGuildHouse

; 1314 : 	
; 1315 : 	CGuild* pGuild = g_GuildMng.GetGuild( dwGuildId );

  00020	56		 push	 esi
  00021	b9 00 00 00 00	 mov	 ecx, OFFSET ?g_GuildMng@@3VCGuildMng@@A ; g_GuildMng
  00026	e8 00 00 00 00	 call	 ?GetGuild@CGuildMng@@QAEPAVCGuild@@K@Z ; CGuildMng::GetGuild
  0002b	8b d8		 mov	 ebx, eax

; 1316 : 	if( pGuild )

  0002d	85 db		 test	 ebx, ebx
  0002f	0f 84 b0 00 00
	00		 je	 $LN3@OnRemoveGu
; File C:\Program Files\Microsoft Visual Studio\2022\Professional\VC\Tools\MSVC\14.44.35207\include\xtree

; 1142 :         return iterator(_Scary->_Myhead->_Left, _Scary);

  00035	8b 4b 38	 mov	 ecx, DWORD PTR [ebx+56]

; 37   :     _Tree_unchecked_const_iterator(_Nodeptr _Pnode, const _Mytree* _Plist) noexcept : _Ptr(_Pnode) {

  00038	8b 31		 mov	 esi, DWORD PTR [ecx]

; 237  :         return !(*this == _Right);

  0003a	3b f1		 cmp	 esi, ecx
; File C:\IAGOS\server\v18\Source\Source\_Common\GuildHouse.cpp

; 1318 : 		for( map<u_long, CGuildMember*>::iterator it=pGuild->m_mapPMember.begin(); it!=pGuild->m_mapPMember.end(); it++ )

  0003c	0f 84 a3 00 00
	00		 je	 $LN3@OnRemoveGu
  00042	8b 3d 28 00 00
	00		 mov	 edi, DWORD PTR ?prj@@3VCProject@@A+40
$LL4@OnRemoveGu:
; File C:\Program Files\Microsoft Visual Studio\2022\Professional\VC\Tools\MSVC\14.44.35207\include\xtree

; 1630 :         _Tree_find_result<_Nodeptr> _Result{{_Scary->_Myhead->_Parent, _Tree_child::_Right}, _Scary->_Myhead};

  00048	8b 47 04	 mov	 eax, DWORD PTR [edi+4]
  0004b	8b cf		 mov	 ecx, edi
; File C:\IAGOS\server\v18\Source\Source\_Common\GuildHouse.cpp

; 1320 : 			CUser* pUser = static_cast<CUser*>( prj.GetUserByID( it->first ) );

  0004d	8b 56 10	 mov	 edx, DWORD PTR [esi+16]
; File C:\Program Files\Microsoft Visual Studio\2022\Professional\VC\Tools\MSVC\14.44.35207\include\xtree

; 1632 :         while (!_Trynode->_Isnil) {

  00050	80 78 0d 00	 cmp	 BYTE PTR [eax+13], 0
  00054	75 14		 jne	 SHORT $LN75@OnRemoveGu
$LL74@OnRemoveGu:
; File C:\Program Files\Microsoft Visual Studio\2022\Professional\VC\Tools\MSVC\14.44.35207\include\type_traits

; 2380 :         return _Left < _Right;

  00056	39 50 10	 cmp	 DWORD PTR [eax+16], edx
; File C:\Program Files\Microsoft Visual Studio\2022\Professional\VC\Tools\MSVC\14.44.35207\include\xtree

; 1634 :             if (_DEBUG_LT_PRED(_Getcomp(), _Traits::_Kfn(_Trynode->_Myval), _Keyval)) {

  00059	73 05		 jae	 SHORT $LN76@OnRemoveGu

; 1635 :                 _Result._Location._Child = _Tree_child::_Right;
; 1636 :                 _Trynode                 = _Trynode->_Right;

  0005b	8b 40 08	 mov	 eax, DWORD PTR [eax+8]

; 1637 :             } else {

  0005e	eb 04		 jmp	 SHORT $LN77@OnRemoveGu
$LN76@OnRemoveGu:

; 1638 :                 _Result._Location._Child = _Tree_child::_Left;
; 1639 :                 _Result._Bound           = _Trynode;

  00060	8b c8		 mov	 ecx, eax

; 1640 :                 _Trynode                 = _Trynode->_Left;

  00062	8b 00		 mov	 eax, DWORD PTR [eax]
$LN77@OnRemoveGu:

; 1632 :         while (!_Trynode->_Isnil) {

  00064	80 78 0d 00	 cmp	 BYTE PTR [eax+13], 0
  00068	74 ec		 je	 SHORT $LL74@OnRemoveGu
$LN75@OnRemoveGu:

; 1624 :         return !_Bound->_Isnil && !_DEBUG_LT_PRED(_Getcomp(), _Keyval, _Traits::_Kfn(_Bound->_Myval));

  0006a	80 79 0d 00	 cmp	 BYTE PTR [ecx+13], 0
  0006e	75 05		 jne	 SHORT $LN71@OnRemoveGu
; File C:\Program Files\Microsoft Visual Studio\2022\Professional\VC\Tools\MSVC\14.44.35207\include\type_traits

; 2380 :         return _Left < _Right;

  00070	3b 51 10	 cmp	 edx, DWORD PTR [ecx+16]
; File C:\Program Files\Microsoft Visual Studio\2022\Professional\VC\Tools\MSVC\14.44.35207\include\xtree

; 1624 :         return !_Bound->_Isnil && !_DEBUG_LT_PRED(_Getcomp(), _Keyval, _Traits::_Kfn(_Bound->_Myval));

  00073	73 02		 jae	 SHORT $LN70@OnRemoveGu
$LN71@OnRemoveGu:

; 1389 :         return _Get_scary()->_Myhead;

  00075	8b cf		 mov	 ecx, edi
$LN70@OnRemoveGu:

; 37   :     _Tree_unchecked_const_iterator(_Nodeptr _Pnode, const _Mytree* _Plist) noexcept : _Ptr(_Pnode) {

  00077	3b cf		 cmp	 ecx, edi
; File C:\IAGOS\server\v18\Source\Source\_Common\Project.h

; 1436 : 	if( i != m_idPlayerToUserPtr.end() )

  00079	74 22		 je	 SHORT $LN2@OnRemoveGu

; 1437 : 		return i->second;

  0007b	8b 49 14	 mov	 ecx, DWORD PTR [ecx+20]
; File C:\IAGOS\server\v18\Source\Source\_Common\Obj.h

; 327  : 	return pObj && ( pObj->IsDelete() == FALSE ); 

  0007e	85 c9		 test	 ecx, ecx
  00080	74 1b		 je	 SHORT $LN2@OnRemoveGu

; 180  : 	BOOL			IsDelete()	{ return (m_dwFlags & OBJ_FLAG_DELETE);  }

  00082	f6 41 04 01	 test	 BYTE PTR [ecx+4], 1

; 327  : 	return pObj && ( pObj->IsDelete() == FALSE ); 

  00086	75 15		 jne	 SHORT $LN2@OnRemoveGu
; File C:\IAGOS\server\v18\Source\Source\_Common\GuildHouse.cpp

; 1324 : 				pUser->AddGuildHouseRemvoe();

  00088	c7 81 a0 8f 00
	00 00 00 00 00	 mov	 DWORD PTR [ecx+36768], 0
  00092	e8 00 00 00 00	 call	 ?AddGuildHouseRemvoe@CUser@@QAEXXZ ; CUser::AddGuildHouseRemvoe
  00097	8b 3d 28 00 00
	00		 mov	 edi, DWORD PTR ?prj@@3VCProject@@A+40
$LN2@OnRemoveGu:
; File C:\Program Files\Microsoft Visual Studio\2022\Professional\VC\Tools\MSVC\14.44.35207\include\xtree

; 50   :         if (_Ptr->_Right->_Isnil) { // climb looking for right subtree

  0009d	8b 46 08	 mov	 eax, DWORD PTR [esi+8]
  000a0	80 78 0d 00	 cmp	 BYTE PTR [eax+13], 0
  000a4	74 1e		 je	 SHORT $LN29@OnRemoveGu

; 51   :             _Nodeptr _Pnode;
; 52   :             while (!(_Pnode = _Ptr->_Parent)->_Isnil && _Ptr == _Pnode->_Right) {

  000a6	8b 46 04	 mov	 eax, DWORD PTR [esi+4]
  000a9	80 78 0d 00	 cmp	 BYTE PTR [eax+13], 0
  000ad	75 11		 jne	 SHORT $LN148@OnRemoveGu
  000af	90		 npad	 1
$LL27@OnRemoveGu:
  000b0	3b 70 08	 cmp	 esi, DWORD PTR [eax+8]
  000b3	75 0b		 jne	 SHORT $LN148@OnRemoveGu

; 53   :                 _Ptr = _Pnode; // ==> parent while right subtree

  000b5	8b f0		 mov	 esi, eax
  000b7	8b 40 04	 mov	 eax, DWORD PTR [eax+4]
  000ba	80 78 0d 00	 cmp	 BYTE PTR [eax+13], 0
  000be	74 f0		 je	 SHORT $LL27@OnRemoveGu
$LN148@OnRemoveGu:

; 54   :             }
; 55   : 
; 56   :             _Ptr = _Pnode; // ==> parent (head if end())

  000c0	8b f0		 mov	 esi, eax

; 57   :         } else {

  000c2	eb 18		 jmp	 SHORT $LN35@OnRemoveGu
$LN29@OnRemoveGu:

; 58   :             _Ptr = _Mytree::_Min(_Ptr->_Right); // ==> smallest of right subtree

  000c4	8b f0		 mov	 esi, eax

; 476  :         while (!_Pnode->_Left->_Isnil) {

  000c6	8b 0e		 mov	 ecx, DWORD PTR [esi]
  000c8	80 79 0d 00	 cmp	 BYTE PTR [ecx+13], 0
  000cc	75 0e		 jne	 SHORT $LN35@OnRemoveGu
  000ce	66 90		 npad	 2
$LL34@OnRemoveGu:
  000d0	8b 01		 mov	 eax, DWORD PTR [ecx]

; 477  :             _Pnode = _Pnode->_Left;

  000d2	8b f1		 mov	 esi, ecx
  000d4	8b c8		 mov	 ecx, eax
  000d6	80 78 0d 00	 cmp	 BYTE PTR [eax+13], 0
  000da	74 f4		 je	 SHORT $LL34@OnRemoveGu
$LN35@OnRemoveGu:

; 237  :         return !(*this == _Right);

  000dc	3b 73 38	 cmp	 esi, DWORD PTR [ebx+56]
; File C:\IAGOS\server\v18\Source\Source\_Common\GuildHouse.cpp

; 1318 : 		for( map<u_long, CGuildMember*>::iterator it=pGuild->m_mapPMember.begin(); it!=pGuild->m_mapPMember.end(); it++ )

  000df	0f 85 63 ff ff
	ff		 jne	 $LL4@OnRemoveGu
$LN3@OnRemoveGu:
  000e5	5f		 pop	 edi

; 1325 : 			}
; 1326 : 		}
; 1327 : 	}
; 1328 : }

  000e6	5e		 pop	 esi
  000e7	5b		 pop	 ebx
  000e8	8b e5		 mov	 esp, ebp
  000ea	5d		 pop	 ebp
  000eb	c2 04 00	 ret	 4
?OnRemoveGuildHouse@CGuildHouseMng@@QAEXAAVCAr@@@Z ENDP	; CGuildHouseMng::OnRemoveGuildHouse
_TEXT	ENDS
; Function compile flags: /Ogtp
; File C:\IAGOS\server\v18\Source\Source\_Common\GuildHouse.cpp
; File C:\Program Files\Microsoft Visual Studio\2022\Professional\VC\Tools\MSVC\14.44.35207\include\xtree
; File C:\IAGOS\server\v18\Source\Source\_Common\GuildHouse.cpp
; File C:\Program Files\Microsoft Visual Studio\2022\Professional\VC\Tools\MSVC\14.44.35207\include\xtree
; File C:\IAGOS\server\v18\Source\Source\_Common\GuildHouse.cpp
; File C:\Program Files\Microsoft Visual Studio\2022\Professional\VC\Tools\MSVC\14.44.35207\include\xtree
; File C:\Program Files\Microsoft Visual Studio\2022\Professional\VC\Tools\MSVC\14.44.35207\include\type_traits
; File C:\Program Files\Microsoft Visual Studio\2022\Professional\VC\Tools\MSVC\14.44.35207\include\xtree
; File C:\Program Files\Microsoft Visual Studio\2022\Professional\VC\Tools\MSVC\14.44.35207\include\type_traits
; File C:\Program Files\Microsoft Visual Studio\2022\Professional\VC\Tools\MSVC\14.44.35207\include\xtree
; File C:\IAGOS\server\v18\Source\Source\_Common\Project.h
; File C:\IAGOS\server\v18\Source\Source\_Common\Obj.h
; File C:\IAGOS\server\v18\Source\Source\_Common\GuildHouse.cpp
; File C:\Program Files\Microsoft Visual Studio\2022\Professional\VC\Tools\MSVC\14.44.35207\include\xtree
; File C:\IAGOS\server\v18\Source\Source\_Common\GuildHouse.cpp
; File C:\Program Files\Microsoft Visual Studio\2022\Professional\VC\Tools\MSVC\14.44.35207\include\xtree
; File C:\Program Files\Microsoft Visual Studio\2022\Professional\VC\Tools\MSVC\14.44.35207\include\type_traits
; File C:\Program Files\Microsoft Visual Studio\2022\Professional\VC\Tools\MSVC\14.44.35207\include\xtree
; File C:\Program Files\Microsoft Visual Studio\2022\Professional\VC\Tools\MSVC\14.44.35207\include\type_traits
; File C:\Program Files\Microsoft Visual Studio\2022\Professional\VC\Tools\MSVC\14.44.35207\include\xtree
; File C:\IAGOS\server\v18\Source\Source\_Common\Project.h
; File C:\IAGOS\server\v18\Source\Source\_Common\Obj.h
; File C:\IAGOS\server\v18\Source\Source\_Common\GuildHouse.cpp
;	COMDAT ?OnBuyGuildHouse@CGuildHouseMng@@QAEXAAVCAr@@@Z
_TEXT	SEGMENT
_temp$4 = -56						; size = 32
_dwGuildId$ = -24					; size = 4
_pGuild$1$ = -24					; size = 4
_bResult$ = -20						; size = 4
$T5 = -20						; size = 4
_dwPlayerId$ = -16					; size = 4
__$EHRec$ = -12						; size = 12
_ar$ = 8						; size = 4
_it$6 = 8						; size = 4
_pGuildHouse$1$ = 8					; size = 4
?OnBuyGuildHouse@CGuildHouseMng@@QAEXAAVCAr@@@Z PROC	; CGuildHouseMng::OnBuyGuildHouse, COMDAT
; _this$ = ecx

; 1258 : {

  00000	55		 push	 ebp
  00001	8b ec		 mov	 ebp, esp
  00003	6a ff		 push	 -1
  00005	68 00 00 00 00	 push	 __ehhandler$?OnBuyGuildHouse@CGuildHouseMng@@QAEXAAVCAr@@@Z
  0000a	64 a1 00 00 00
	00		 mov	 eax, DWORD PTR fs:0
  00010	50		 push	 eax
  00011	83 ec 2c	 sub	 esp, 44			; 0000002cH
  00014	53		 push	 ebx
  00015	56		 push	 esi
  00016	57		 push	 edi
  00017	a1 00 00 00 00	 mov	 eax, DWORD PTR ___security_cookie
  0001c	33 c5		 xor	 eax, ebp
  0001e	50		 push	 eax
  0001f	8d 45 f4	 lea	 eax, DWORD PTR __$EHRec$[ebp]
  00022	64 a3 00 00 00
	00		 mov	 DWORD PTR fs:0, eax
  00028	8b d9		 mov	 ebx, ecx

; 1259 : 	BOOL bResult;
; 1260 : 	DWORD dwPlayerId, dwGuildId;
; 1261 : 	
; 1262 : 	ar >> dwPlayerId >> dwGuildId >> bResult;

  0002a	8b 7d 08	 mov	 edi, DWORD PTR _ar$[ebp]
  0002d	8d 45 ec	 lea	 eax, DWORD PTR _bResult$[ebp]
  00030	50		 push	 eax
  00031	8d 45 e8	 lea	 eax, DWORD PTR _dwGuildId$[ebp]
  00034	8b cf		 mov	 ecx, edi
  00036	50		 push	 eax
  00037	8d 45 f0	 lea	 eax, DWORD PTR _dwPlayerId$[ebp]
  0003a	50		 push	 eax
  0003b	e8 00 00 00 00	 call	 ??$?5K@CAr@@QAEAAV0@AAK@Z ; CAr::operator>><unsigned long>
  00040	8b c8		 mov	 ecx, eax
  00042	e8 00 00 00 00	 call	 ??$?5K@CAr@@QAEAAV0@AAK@Z ; CAr::operator>><unsigned long>
  00047	8b c8		 mov	 ecx, eax
  00049	e8 00 00 00 00	 call	 ??$?5H@CAr@@QAEAAV0@AAH@Z ; CAr::operator>><int>

; 1263 : 	if( bResult )

  0004e	83 7d ec 00	 cmp	 DWORD PTR _bResult$[ebp], 0
  00052	0f 84 49 01 00
	00		 je	 $LN5@OnBuyGuild

; 1264 : 	{
; 1265 : 		CGuildHouseBase* pGuildHouse = MakeGuildHouse( dwGuildId, WI_GUILDHOUSE_SMALL );

  00058	8b 75 e8	 mov	 esi, DWORD PTR _dwGuildId$[ebp]
  0005b	8b cb		 mov	 ecx, ebx
  0005d	68 d4 00 00 00	 push	 212			; 000000d4H
  00062	56		 push	 esi
  00063	e8 00 00 00 00	 call	 ?MakeGuildHouse@CGuildHouseMng@@QAEPAVCGuildHouseBase@@KK@Z ; CGuildHouseMng::MakeGuildHouse
  00068	89 45 08	 mov	 DWORD PTR _pGuildHouse$1$[ebp], eax

; 1266 : 		if( pGuildHouse && AddGuildHouse( dwGuildId, pGuildHouse ) )

  0006b	85 c0		 test	 eax, eax
  0006d	0f 84 e7 00 00
	00		 je	 $LN14@OnBuyGuild
  00073	50		 push	 eax
  00074	56		 push	 esi
  00075	8b cb		 mov	 ecx, ebx
  00077	e8 00 00 00 00	 call	 ?AddGuildHouse@CGuildHouseMng@@QAEHKPAVCGuildHouseBase@@@Z ; CGuildHouseMng::AddGuildHouse
  0007c	85 c0		 test	 eax, eax
  0007e	0f 84 cd 00 00
	00		 je	 $LN7@OnBuyGuild

; 1267 : 		{
; 1268 : 			pGuildHouse->SerializeAllInfo( ar );

  00084	8b 5d 08	 mov	 ebx, DWORD PTR _pGuildHouse$1$[ebp]
  00087	8b cb		 mov	 ecx, ebx
  00089	57		 push	 edi
  0008a	e8 00 00 00 00	 call	 ?SerializeAllInfo@CGuildHouseBase@@QAEXAAVCAr@@@Z ; CGuildHouseBase::SerializeAllInfo

; 1269 : 			CUser* pUser = static_cast<CUser*>( prj.GetUserByID( dwPlayerId ) );
; 1270 : 			//if( IsValidObj( pUser ) )
; 1271 : 			//	pUser->AddDefinedText( TID_GAME_GUILDHOUSE_PURCHASE );
; 1272 : 
; 1273 : 			CGuild* pGuild = g_GuildMng.GetGuild( dwGuildId );

  0008f	56		 push	 esi
  00090	b9 00 00 00 00	 mov	 ecx, OFFSET ?g_GuildMng@@3VCGuildMng@@A ; g_GuildMng
  00095	e8 00 00 00 00	 call	 ?GetGuild@CGuildMng@@QAEPAVCGuild@@K@Z ; CGuildMng::GetGuild
  0009a	89 45 e8	 mov	 DWORD PTR _pGuild$1$[ebp], eax

; 1274 : 			if( pGuild )

  0009d	85 c0		 test	 eax, eax
  0009f	0f 84 5c 01 00
	00		 je	 $LN12@OnBuyGuild
; File C:\Program Files\Microsoft Visual Studio\2022\Professional\VC\Tools\MSVC\14.44.35207\include\xtree

; 1142 :         return iterator(_Scary->_Myhead->_Left, _Scary);

  000a5	8b 50 38	 mov	 edx, DWORD PTR [eax+56]

; 37   :     _Tree_unchecked_const_iterator(_Nodeptr _Pnode, const _Mytree* _Plist) noexcept : _Ptr(_Pnode) {

  000a8	8b 0a		 mov	 ecx, DWORD PTR [edx]
  000aa	89 4d 08	 mov	 DWORD PTR _it$6[ebp], ecx

; 237  :         return !(*this == _Right);

  000ad	3b ca		 cmp	 ecx, edx
; File C:\IAGOS\server\v18\Source\Source\_Common\GuildHouse.cpp

; 1276 : 				for( map<u_long, CGuildMember*>::iterator it=pGuild->m_mapPMember.begin(); it!=pGuild->m_mapPMember.end(); it++ )

  000af	0f 84 4c 01 00
	00		 je	 $LN12@OnBuyGuild
  000b5	8b 3d 28 00 00
	00		 mov	 edi, DWORD PTR ?prj@@3VCProject@@A+40
  000bb	0f 1f 44 00 00	 npad	 5
$LL4@OnBuyGuild:
; File C:\Program Files\Microsoft Visual Studio\2022\Professional\VC\Tools\MSVC\14.44.35207\include\xtree

; 1630 :         _Tree_find_result<_Nodeptr> _Result{{_Scary->_Myhead->_Parent, _Tree_child::_Right}, _Scary->_Myhead};

  000c0	8b 47 04	 mov	 eax, DWORD PTR [edi+4]
; File C:\IAGOS\server\v18\Source\Source\_Common\GuildHouse.cpp

; 1278 : 					pUser = static_cast<CUser*>( prj.GetUserByID( it->first ) );

  000c3	8b 51 10	 mov	 edx, DWORD PTR [ecx+16]
; File C:\Program Files\Microsoft Visual Studio\2022\Professional\VC\Tools\MSVC\14.44.35207\include\xtree

; 1630 :         _Tree_find_result<_Nodeptr> _Result{{_Scary->_Myhead->_Parent, _Tree_child::_Right}, _Scary->_Myhead};

  000c6	8b cf		 mov	 ecx, edi

; 1631 :         _Nodeptr _Trynode = _Result._Location._Parent;
; 1632 :         while (!_Trynode->_Isnil) {

  000c8	80 78 0d 00	 cmp	 BYTE PTR [eax+13], 0
  000cc	75 16		 jne	 SHORT $LN66@OnBuyGuild
  000ce	66 90		 npad	 2
$LL65@OnBuyGuild:
; File C:\Program Files\Microsoft Visual Studio\2022\Professional\VC\Tools\MSVC\14.44.35207\include\type_traits

; 2380 :         return _Left < _Right;

  000d0	39 50 10	 cmp	 DWORD PTR [eax+16], edx
; File C:\Program Files\Microsoft Visual Studio\2022\Professional\VC\Tools\MSVC\14.44.35207\include\xtree

; 1634 :             if (_DEBUG_LT_PRED(_Getcomp(), _Traits::_Kfn(_Trynode->_Myval), _Keyval)) {

  000d3	73 05		 jae	 SHORT $LN67@OnBuyGuild

; 1635 :                 _Result._Location._Child = _Tree_child::_Right;
; 1636 :                 _Trynode                 = _Trynode->_Right;

  000d5	8b 40 08	 mov	 eax, DWORD PTR [eax+8]

; 1637 :             } else {

  000d8	eb 04		 jmp	 SHORT $LN68@OnBuyGuild
$LN67@OnBuyGuild:

; 1638 :                 _Result._Location._Child = _Tree_child::_Left;
; 1639 :                 _Result._Bound           = _Trynode;

  000da	8b c8		 mov	 ecx, eax

; 1640 :                 _Trynode                 = _Trynode->_Left;

  000dc	8b 00		 mov	 eax, DWORD PTR [eax]
$LN68@OnBuyGuild:

; 1631 :         _Nodeptr _Trynode = _Result._Location._Parent;
; 1632 :         while (!_Trynode->_Isnil) {

  000de	80 78 0d 00	 cmp	 BYTE PTR [eax+13], 0
  000e2	74 ec		 je	 SHORT $LL65@OnBuyGuild
$LN66@OnBuyGuild:

; 1624 :         return !_Bound->_Isnil && !_DEBUG_LT_PRED(_Getcomp(), _Keyval, _Traits::_Kfn(_Bound->_Myval));

  000e4	80 79 0d 00	 cmp	 BYTE PTR [ecx+13], 0
  000e8	75 05		 jne	 SHORT $LN62@OnBuyGuild
; File C:\Program Files\Microsoft Visual Studio\2022\Professional\VC\Tools\MSVC\14.44.35207\include\type_traits

; 2380 :         return _Left < _Right;

  000ea	3b 51 10	 cmp	 edx, DWORD PTR [ecx+16]
; File C:\Program Files\Microsoft Visual Studio\2022\Professional\VC\Tools\MSVC\14.44.35207\include\xtree

; 1624 :         return !_Bound->_Isnil && !_DEBUG_LT_PRED(_Getcomp(), _Keyval, _Traits::_Kfn(_Bound->_Myval));

  000ed	73 02		 jae	 SHORT $LN61@OnBuyGuild
$LN62@OnBuyGuild:

; 1389 :         return _Get_scary()->_Myhead;

  000ef	8b cf		 mov	 ecx, edi
$LN61@OnBuyGuild:

; 37   :     _Tree_unchecked_const_iterator(_Nodeptr _Pnode, const _Mytree* _Plist) noexcept : _Ptr(_Pnode) {

  000f1	3b cf		 cmp	 ecx, edi
; File C:\IAGOS\server\v18\Source\Source\_Common\Project.h

; 1436 : 	if( i != m_idPlayerToUserPtr.end() )

  000f3	74 2f		 je	 SHORT $LN2@OnBuyGuild

; 1437 : 		return i->second;

  000f5	8b 71 14	 mov	 esi, DWORD PTR [ecx+20]
; File C:\IAGOS\server\v18\Source\Source\_Common\Obj.h

; 327  : 	return pObj && ( pObj->IsDelete() == FALSE ); 

  000f8	85 f6		 test	 esi, esi
  000fa	74 28		 je	 SHORT $LN2@OnBuyGuild

; 180  : 	BOOL			IsDelete()	{ return (m_dwFlags & OBJ_FLAG_DELETE);  }

  000fc	f6 46 04 01	 test	 BYTE PTR [esi+4], 1

; 327  : 	return pObj && ( pObj->IsDelete() == FALSE ); 

  00100	75 22		 jne	 SHORT $LN2@OnBuyGuild
; File C:\IAGOS\server\v18\Source\Source\_Common\GuildHouse.cpp

; 1281 : 						pUser->AddGuildHouseAllInfo( pGuildHouse );

  00102	53		 push	 ebx
  00103	8b ce		 mov	 ecx, esi
  00105	e8 00 00 00 00	 call	 ?AddGuildHouseAllInfo@CUser@@QAEXPAVCGuildHouseBase@@@Z ; CUser::AddGuildHouseAllInfo

; 1282 : 						pUser->AddDefinedText( TID_GAME_GUILDHOUSE_PURCHASE );

  0010a	68 b2 10 00 00	 push	 4274			; 000010b2H
  0010f	8b ce		 mov	 ecx, esi
  00111	e8 00 00 00 00	 call	 ?AddDefinedText@CUser@@QAEXH@Z ; CUser::AddDefinedText

; 1283 : 						pGuildHouse->SetApplyDST( pUser );

  00116	56		 push	 esi
  00117	8b cb		 mov	 ecx, ebx
  00119	e8 00 00 00 00	 call	 ?SetApplyDST@CGuildHouseBase@@QAEXPAVCUser@@@Z ; CGuildHouseBase::SetApplyDST
  0011e	8b 3d 28 00 00
	00		 mov	 edi, DWORD PTR ?prj@@3VCProject@@A+40
$LN2@OnBuyGuild:

; 1276 : 				for( map<u_long, CGuildMember*>::iterator it=pGuild->m_mapPMember.begin(); it!=pGuild->m_mapPMember.end(); it++ )

  00124	6a 00		 push	 0
  00126	8d 45 ec	 lea	 eax, DWORD PTR $T5[ebp]
  00129	50		 push	 eax
  0012a	8d 4d 08	 lea	 ecx, DWORD PTR _it$6[ebp]
  0012d	e8 00 00 00 00	 call	 ??E?$_Tree_iterator@V?$_Tree_val@U?$_Tree_simple_types@U?$pair@$$CBKPAVCGuildMember@@@std@@@std@@@std@@@std@@QAE?AV01@H@Z ; std::_Tree_iterator<std::_Tree_val<std::_Tree_simple_types<std::pair<unsigned long const ,CGuildMember *> > > >::operator++
; File C:\Program Files\Microsoft Visual Studio\2022\Professional\VC\Tools\MSVC\14.44.35207\include\xtree

; 237  :         return !(*this == _Right);

  00132	8b 45 e8	 mov	 eax, DWORD PTR _pGuild$1$[ebp]
  00135	8b 4d 08	 mov	 ecx, DWORD PTR _it$6[ebp]
  00138	3b 48 38	 cmp	 ecx, DWORD PTR [eax+56]
; File C:\IAGOS\server\v18\Source\Source\_Common\GuildHouse.cpp

; 1276 : 				for( map<u_long, CGuildMember*>::iterator it=pGuild->m_mapPMember.begin(); it!=pGuild->m_mapPMember.end(); it++ )

  0013b	75 83		 jne	 SHORT $LL4@OnBuyGuild

; 1304 : 		}
; 1305 : 	}
; 1306 : }

  0013d	8b 4d f4	 mov	 ecx, DWORD PTR __$EHRec$[ebp]
  00140	64 89 0d 00 00
	00 00		 mov	 DWORD PTR fs:0, ecx
  00147	59		 pop	 ecx
  00148	5f		 pop	 edi
  00149	5e		 pop	 esi
  0014a	5b		 pop	 ebx
  0014b	8b e5		 mov	 esp, ebp
  0014d	5d		 pop	 ebp
  0014e	c2 04 00	 ret	 4
$LN7@OnBuyGuild:

; 1284 : 					}
; 1285 : 				}
; 1286 : 			}
; 1287 : 		}
; 1288 : 		else
; 1289 : 		{
; 1290 : 			SAFE_DELETE( pGuildHouse );

  00151	8b 4d 08	 mov	 ecx, DWORD PTR _pGuildHouse$1$[ebp]
  00154	6a 01		 push	 1
  00156	8b 01		 mov	 eax, DWORD PTR [ecx]
  00158	ff 10		 call	 DWORD PTR [eax]
$LN14@OnBuyGuild:

; 1291 : 			Error( "CGuildHouseMng::BuyGuildHouse - CreateGuildHouse Failed!!! [User:%07d, Guild:%06d]", dwPlayerId, dwGuildId ); 

  0015a	56		 push	 esi
  0015b	ff 75 f0	 push	 DWORD PTR _dwPlayerId$[ebp]
  0015e	68 00 00 00 00	 push	 OFFSET ??_C@_0FD@OOPBOGCC@CGuildHouseMng?3?3BuyGuildHouse?5?9@
  00163	e8 00 00 00 00	 call	 ?Error@@YAPBDPBDZZ	; Error
  00168	83 c4 0c	 add	 esp, 12			; 0000000cH

; 1292 : 			CGuildHouseSmall temp( NULL_ID );

  0016b	8d 4d c8	 lea	 ecx, DWORD PTR _temp$4[ebp]
  0016e	6a ff		 push	 -1
  00170	e8 00 00 00 00	 call	 ??0CGuildHouseSmall@@QAE@K@Z ; CGuildHouseSmall::CGuildHouseSmall

; 1293 : 			temp.SerializeAllInfo( ar );

  00175	57		 push	 edi
  00176	8d 4d c8	 lea	 ecx, DWORD PTR _temp$4[ebp]
  00179	c7 45 fc 00 00
	00 00		 mov	 DWORD PTR __$EHRec$[ebp+8], 0
  00180	e8 00 00 00 00	 call	 ?SerializeAllInfo@CGuildHouseBase@@QAEXAAVCAr@@@Z ; CGuildHouseBase::SerializeAllInfo

; 1294 : 		}

  00185	8d 4d c8	 lea	 ecx, DWORD PTR _temp$4[ebp]
  00188	e8 00 00 00 00	 call	 ??1CGuildHouseSmall@@UAE@XZ ; CGuildHouseSmall::~CGuildHouseSmall

; 1304 : 		}
; 1305 : 	}
; 1306 : }

  0018d	8b 4d f4	 mov	 ecx, DWORD PTR __$EHRec$[ebp]
  00190	64 89 0d 00 00
	00 00		 mov	 DWORD PTR fs:0, ecx
  00197	59		 pop	 ecx
  00198	5f		 pop	 edi
  00199	5e		 pop	 esi
  0019a	5b		 pop	 ebx
  0019b	8b e5		 mov	 esp, ebp
  0019d	5d		 pop	 ebp
  0019e	c2 04 00	 ret	 4
$LN5@OnBuyGuild:
; File C:\Program Files\Microsoft Visual Studio\2022\Professional\VC\Tools\MSVC\14.44.35207\include\xtree

; 1630 :         _Tree_find_result<_Nodeptr> _Result{{_Scary->_Myhead->_Parent, _Tree_child::_Right}, _Scary->_Myhead};

  001a1	8b 35 28 00 00
	00		 mov	 esi, DWORD PTR ?prj@@3VCProject@@A+40
  001a7	8b ce		 mov	 ecx, esi

; 1631 :         _Nodeptr _Trynode = _Result._Location._Parent;
; 1632 :         while (!_Trynode->_Isnil) {

  001a9	8b 55 f0	 mov	 edx, DWORD PTR _dwPlayerId$[ebp]
  001ac	8b 46 04	 mov	 eax, DWORD PTR [esi+4]
  001af	80 78 0d 00	 cmp	 BYTE PTR [eax+13], 0
  001b3	75 14		 jne	 SHORT $LN132@OnBuyGuild
$LL131@OnBuyGuild:
; File C:\Program Files\Microsoft Visual Studio\2022\Professional\VC\Tools\MSVC\14.44.35207\include\type_traits

; 2380 :         return _Left < _Right;

  001b5	39 50 10	 cmp	 DWORD PTR [eax+16], edx
; File C:\Program Files\Microsoft Visual Studio\2022\Professional\VC\Tools\MSVC\14.44.35207\include\xtree

; 1634 :             if (_DEBUG_LT_PRED(_Getcomp(), _Traits::_Kfn(_Trynode->_Myval), _Keyval)) {

  001b8	73 05		 jae	 SHORT $LN133@OnBuyGuild

; 1635 :                 _Result._Location._Child = _Tree_child::_Right;
; 1636 :                 _Trynode                 = _Trynode->_Right;

  001ba	8b 40 08	 mov	 eax, DWORD PTR [eax+8]

; 1637 :             } else {

  001bd	eb 04		 jmp	 SHORT $LN134@OnBuyGuild
$LN133@OnBuyGuild:

; 1638 :                 _Result._Location._Child = _Tree_child::_Left;
; 1639 :                 _Result._Bound           = _Trynode;

  001bf	8b c8		 mov	 ecx, eax

; 1640 :                 _Trynode                 = _Trynode->_Left;

  001c1	8b 00		 mov	 eax, DWORD PTR [eax]
$LN134@OnBuyGuild:

; 1631 :         _Nodeptr _Trynode = _Result._Location._Parent;
; 1632 :         while (!_Trynode->_Isnil) {

  001c3	80 78 0d 00	 cmp	 BYTE PTR [eax+13], 0
  001c7	74 ec		 je	 SHORT $LL131@OnBuyGuild
$LN132@OnBuyGuild:

; 1624 :         return !_Bound->_Isnil && !_DEBUG_LT_PRED(_Getcomp(), _Keyval, _Traits::_Kfn(_Bound->_Myval));

  001c9	80 79 0d 00	 cmp	 BYTE PTR [ecx+13], 0
  001cd	75 05		 jne	 SHORT $LN128@OnBuyGuild
; File C:\Program Files\Microsoft Visual Studio\2022\Professional\VC\Tools\MSVC\14.44.35207\include\type_traits

; 2380 :         return _Left < _Right;

  001cf	3b 51 10	 cmp	 edx, DWORD PTR [ecx+16]
; File C:\Program Files\Microsoft Visual Studio\2022\Professional\VC\Tools\MSVC\14.44.35207\include\xtree

; 1624 :         return !_Bound->_Isnil && !_DEBUG_LT_PRED(_Getcomp(), _Keyval, _Traits::_Kfn(_Bound->_Myval));

  001d2	73 02		 jae	 SHORT $LN127@OnBuyGuild
$LN128@OnBuyGuild:

; 1389 :         return _Get_scary()->_Myhead;

  001d4	8b ce		 mov	 ecx, esi
$LN127@OnBuyGuild:

; 37   :     _Tree_unchecked_const_iterator(_Nodeptr _Pnode, const _Mytree* _Plist) noexcept : _Ptr(_Pnode) {

  001d6	3b ce		 cmp	 ecx, esi
; File C:\IAGOS\server\v18\Source\Source\_Common\Project.h

; 1436 : 	if( i != m_idPlayerToUserPtr.end() )

  001d8	74 27		 je	 SHORT $LN12@OnBuyGuild

; 1437 : 		return i->second;

  001da	8b 71 14	 mov	 esi, DWORD PTR [ecx+20]
; File C:\IAGOS\server\v18\Source\Source\_Common\Obj.h

; 327  : 	return pObj && ( pObj->IsDelete() == FALSE ); 

  001dd	85 f6		 test	 esi, esi
  001df	74 20		 je	 SHORT $LN12@OnBuyGuild

; 180  : 	BOOL			IsDelete()	{ return (m_dwFlags & OBJ_FLAG_DELETE);  }

  001e1	f6 46 04 01	 test	 BYTE PTR [esi+4], 1

; 327  : 	return pObj && ( pObj->IsDelete() == FALSE ); 

  001e5	75 1a		 jne	 SHORT $LN12@OnBuyGuild
; File C:\IAGOS\server\v18\Source\Source\_Common\GuildHouse.cpp

; 1301 : 			pUser->AddGold( BUY_PENYA );

  001e7	6a 01		 push	 1
  001e9	68 00 e1 f5 05	 push	 100000000		; 05f5e100H
  001ee	8b ce		 mov	 ecx, esi
  001f0	e8 00 00 00 00	 call	 ?AddGold@CMover@@QAEHHH@Z ; CMover::AddGold

; 1302 : 			// g_DPSrvr.PutPenyaLog( pUser, '1', "BuyGuildHouse_Reapir", BUY_PENYA ); // ĆäłÄ ·Î±×
; 1303 : 			pUser->AddDefinedText( TID_GAME_GUILDHOUSE_BUY_HAVE );

  001f5	68 a3 10 00 00	 push	 4259			; 000010a3H
  001fa	8b ce		 mov	 ecx, esi
  001fc	e8 00 00 00 00	 call	 ?AddDefinedText@CUser@@QAEXH@Z ; CUser::AddDefinedText
$LN12@OnBuyGuild:

; 1304 : 		}
; 1305 : 	}
; 1306 : }

  00201	8b 4d f4	 mov	 ecx, DWORD PTR __$EHRec$[ebp]
  00204	64 89 0d 00 00
	00 00		 mov	 DWORD PTR fs:0, ecx
  0020b	59		 pop	 ecx
  0020c	5f		 pop	 edi
  0020d	5e		 pop	 esi
  0020e	5b		 pop	 ebx
  0020f	8b e5		 mov	 esp, ebp
  00211	5d		 pop	 ebp
  00212	c2 04 00	 ret	 4
_TEXT	ENDS
;	COMDAT text$x
text$x	SEGMENT
__unwindfunclet$?OnBuyGuildHouse@CGuildHouseMng@@QAEXAAVCAr@@@Z$0:
  00000	8d 4d c8	 lea	 ecx, DWORD PTR _temp$4[ebp]
  00003	e9 00 00 00 00	 jmp	 ??1CGuildHouseSmall@@UAE@XZ ; CGuildHouseSmall::~CGuildHouseSmall
  00008	cc		 int	 3
  00009	cc		 int	 3
  0000a	cc		 int	 3
  0000b	cc		 int	 3
  0000c	cc		 int	 3
__ehhandler$?OnBuyGuildHouse@CGuildHouseMng@@QAEXAAVCAr@@@Z:
  0000d	90		 npad	 1
  0000e	90		 npad	 1
  0000f	8b 54 24 08	 mov	 edx, DWORD PTR [esp+8]
  00013	8d 42 0c	 lea	 eax, DWORD PTR [edx+12]
  00016	8b 4a c4	 mov	 ecx, DWORD PTR [edx-60]
  00019	33 c8		 xor	 ecx, eax
  0001b	e8 00 00 00 00	 call	 @__security_check_cookie@4
  00020	b8 00 00 00 00	 mov	 eax, OFFSET __ehfuncinfo$?OnBuyGuildHouse@CGuildHouseMng@@QAEXAAVCAr@@@Z
  00025	e9 00 00 00 00	 jmp	 ___CxxFrameHandler3
text$x	ENDS
?OnBuyGuildHouse@CGuildHouseMng@@QAEXAAVCAr@@@Z ENDP	; CGuildHouseMng::OnBuyGuildHouse
; Function compile flags: /Ogtp
; File C:\IAGOS\server\v18\Source\Source\_Common\GuildHouse.cpp
; File C:\IAGOS\server\v18\Source\Source\_Network\Net\Include\DPMng.h
; File C:\IAGOS\server\v18\Source\Source\_Common\GuildHouse.cpp
;	COMDAT ?ReqBuyGuildHouse@CGuildHouseMng@@QAEXPAVCUser@@@Z
_TEXT	SEGMENT
_nBufSize$2 = -16436					; size = 4
$T3 = -16432						; size = 4
$T4 = -16428						; size = 4
$T5 = -16424						; size = 4
_ar$6 = -16420						; size = 16404
__$ArrayPad$ = -16					; size = 4
__$EHRec$ = -12						; size = 12
_pUser$ = 8						; size = 4
?ReqBuyGuildHouse@CGuildHouseMng@@QAEXPAVCUser@@@Z PROC	; CGuildHouseMng::ReqBuyGuildHouse, COMDAT
; _this$ = ecx

; 1245 : {

  00000	55		 push	 ebp
  00001	8b ec		 mov	 ebp, esp
  00003	6a ff		 push	 -1
  00005	68 00 00 00 00	 push	 __ehhandler$?ReqBuyGuildHouse@CGuildHouseMng@@QAEXPAVCUser@@@Z
  0000a	64 a1 00 00 00
	00		 mov	 eax, DWORD PTR fs:0
  00010	50		 push	 eax
  00011	b8 28 40 00 00	 mov	 eax, 16424		; 00004028H
  00016	e8 00 00 00 00	 call	 __chkstk
  0001b	a1 00 00 00 00	 mov	 eax, DWORD PTR ___security_cookie
  00020	33 c5		 xor	 eax, ebp
  00022	89 45 f0	 mov	 DWORD PTR __$ArrayPad$[ebp], eax
  00025	56		 push	 esi
  00026	50		 push	 eax
  00027	8d 45 f4	 lea	 eax, DWORD PTR __$EHRec$[ebp]
  0002a	64 a3 00 00 00
	00		 mov	 DWORD PTR fs:0, eax
  00030	8b 75 08	 mov	 esi, DWORD PTR _pUser$[ebp]

; 1246 : 	if( IsBuyAble( pUser ) )

  00033	56		 push	 esi
  00034	e8 00 00 00 00	 call	 ?IsBuyAble@CGuildHouseMng@@AAEHPAVCUser@@@Z ; CGuildHouseMng::IsBuyAble
  00039	85 c0		 test	 eax, eax
  0003b	0f 84 df 00 00
	00		 je	 $LN2@ReqBuyGuil

; 1247 : 	{
; 1248 : 		pUser->AddGold( -BUY_PENYA );

  00041	6a 01		 push	 1
  00043	68 00 1f 0a fa	 push	 -100000000		; fa0a1f00H
  00048	8b ce		 mov	 ecx, esi
  0004a	e8 00 00 00 00	 call	 ?AddGold@CMover@@QAEHHH@Z ; CMover::AddGold

; 1249 : 		g_DPSrvr.PutPenyaLog( pUser, "f", "GUILDHOUSE_BUY", BUY_PENYA ); // ĆäłÄ ·Î±×

  0004f	68 00 e1 f5 05	 push	 100000000		; 05f5e100H
  00054	68 00 00 00 00	 push	 OFFSET ??_C@_0P@OFOGPKOP@GUILDHOUSE_BUY@
  00059	68 00 00 00 00	 push	 OFFSET ??_C@_01INIBCBCB@f@
  0005e	56		 push	 esi
  0005f	b9 00 00 00 00	 mov	 ecx, OFFSET ?g_DPSrvr@@3VCDPSrvr@@A ; g_DPSrvr
  00064	e8 00 00 00 00	 call	 ?PutPenyaLog@CDPSrvr@@QAEXPAVCUser@@PBD1H@Z ; CDPSrvr::PutPenyaLog

; 1250 : 
; 1251 : 		BEFORESENDDUAL( ar, PACKETTYPE_GUILDHOUSE_BUY, DPID_UNKNOWN, DPID_UNKNOWN );

  00069	6a 00		 push	 0
  0006b	6a 00		 push	 0
  0006d	8d 8d dc bf ff
	ff		 lea	 ecx, DWORD PTR _ar$6[ebp]
  00073	e8 00 00 00 00	 call	 ??0CAr@@QAE@PAXI@Z	; CAr::CAr
  00078	8d 85 d8 bf ff
	ff		 lea	 eax, DWORD PTR $T5[ebp]
  0007e	c7 45 fc 00 00
	00 00		 mov	 DWORD PTR __$EHRec$[ebp+8], 0
  00085	50		 push	 eax
  00086	8d 85 d4 bf ff
	ff		 lea	 eax, DWORD PTR $T4[ebp]
  0008c	c7 85 d8 bf ff
	ff 01 00 10 88	 mov	 DWORD PTR $T5[ebp], -2012217343 ; 88100001H
  00096	50		 push	 eax
  00097	8d 85 d0 bf ff
	ff		 lea	 eax, DWORD PTR $T3[ebp]
  0009d	c7 85 d4 bf ff
	ff ff ff ff ff	 mov	 DWORD PTR $T4[ebp], -1
  000a7	50		 push	 eax
  000a8	8d 8d dc bf ff
	ff		 lea	 ecx, DWORD PTR _ar$6[ebp]
  000ae	c7 85 d0 bf ff
	ff ff ff ff ff	 mov	 DWORD PTR $T3[ebp], -1
  000b8	e8 00 00 00 00	 call	 ??$?6I@CAr@@QAEAAV0@ABI@Z ; CAr::operator<<<unsigned int>
  000bd	8b c8		 mov	 ecx, eax
  000bf	e8 00 00 00 00	 call	 ??$?6I@CAr@@QAEAAV0@ABI@Z ; CAr::operator<<<unsigned int>
  000c4	8b c8		 mov	 ecx, eax
  000c6	e8 00 00 00 00	 call	 ??$?6K@CAr@@QAEAAV0@ABK@Z ; CAr::operator<<<unsigned long>

; 1252 : 		ar << pUser->m_idPlayer << pUser->m_idGuild;

  000cb	8d 86 14 07 00
	00		 lea	 eax, DWORD PTR [esi+1812]
  000d1	50		 push	 eax
  000d2	8d 86 34 02 00
	00		 lea	 eax, DWORD PTR [esi+564]
  000d8	50		 push	 eax
  000d9	8d 8d dc bf ff
	ff		 lea	 ecx, DWORD PTR _ar$6[ebp]
  000df	e8 00 00 00 00	 call	 ??$?6K@CAr@@QAEAAV0@ABK@Z ; CAr::operator<<<unsigned long>
  000e4	8b c8		 mov	 ecx, eax
  000e6	e8 00 00 00 00	 call	 ??$?6K@CAr@@QAEAAV0@ABK@Z ; CAr::operator<<<unsigned long>

; 1253 : 		SEND( ar, &g_dpDBClient, DPID_SERVERPLAYER );

  000eb	8d 85 cc bf ff
	ff		 lea	 eax, DWORD PTR _nBufSize$2[ebp]
  000f1	50		 push	 eax
  000f2	8d 8d dc bf ff
	ff		 lea	 ecx, DWORD PTR _ar$6[ebp]
  000f8	e8 00 00 00 00	 call	 ?GetBuffer@CAr@@QAEPAEPAH@Z ; CAr::GetBuffer
; File C:\IAGOS\server\v18\Source\Source\_Network\Net\Include\DPMng.h

; 171  : 	if( !m_pDPSock )

  000fd	8b 0d 04 00 00
	00		 mov	 ecx, DWORD PTR ?g_dpDBClient@@3VCDPDatabaseClient@@A+4
  00103	85 c9		 test	 ecx, ecx
  00105	74 0e		 je	 SHORT $LN5@ReqBuyGuil

; 172  : 		return FALSE;
; 173  : 	return m_pDPSock->Send( (char*)lpData, dwDataSize, dpidTo );

  00107	6a 01		 push	 1
  00109	ff b5 cc bf ff
	ff		 push	 DWORD PTR _nBufSize$2[ebp]
  0010f	50		 push	 eax
  00110	e8 00 00 00 00	 call	 ?Send@CDPSock@@QAEHPADKK@Z ; CDPSock::Send
$LN5@ReqBuyGuil:
; File C:\IAGOS\server\v18\Source\Source\_Common\GuildHouse.cpp

; 1254 : 	}

  00115	8d 8d dc bf ff
	ff		 lea	 ecx, DWORD PTR _ar$6[ebp]
  0011b	e8 00 00 00 00	 call	 ??1CAr@@QAE@XZ		; CAr::~CAr
$LN2@ReqBuyGuil:

; 1255 : }

  00120	8b 4d f4	 mov	 ecx, DWORD PTR __$EHRec$[ebp]
  00123	64 89 0d 00 00
	00 00		 mov	 DWORD PTR fs:0, ecx
  0012a	59		 pop	 ecx
  0012b	5e		 pop	 esi
  0012c	8b 4d f0	 mov	 ecx, DWORD PTR __$ArrayPad$[ebp]
  0012f	33 cd		 xor	 ecx, ebp
  00131	e8 00 00 00 00	 call	 @__security_check_cookie@4
  00136	8b e5		 mov	 esp, ebp
  00138	5d		 pop	 ebp
  00139	c2 04 00	 ret	 4
_TEXT	ENDS
;	COMDAT text$x
text$x	SEGMENT
__unwindfunclet$?ReqBuyGuildHouse@CGuildHouseMng@@QAEXPAVCUser@@@Z$0:
  00000	8d 8d dc bf ff
	ff		 lea	 ecx, DWORD PTR _ar$6[ebp]
  00006	e9 00 00 00 00	 jmp	 ??1CAr@@QAE@XZ		; CAr::~CAr
  0000b	cc		 int	 3
  0000c	cc		 int	 3
  0000d	cc		 int	 3
  0000e	cc		 int	 3
  0000f	cc		 int	 3
__ehhandler$?ReqBuyGuildHouse@CGuildHouseMng@@QAEXPAVCUser@@@Z:
  00010	90		 npad	 1
  00011	90		 npad	 1
  00012	8b 54 24 08	 mov	 edx, DWORD PTR [esp+8]
  00016	8d 42 0c	 lea	 eax, DWORD PTR [edx+12]
  00019	8b 8a d0 bf ff
	ff		 mov	 ecx, DWORD PTR [edx-16432]
  0001f	33 c8		 xor	 ecx, eax
  00021	e8 00 00 00 00	 call	 @__security_check_cookie@4
  00026	8b 4a fc	 mov	 ecx, DWORD PTR [edx-4]
  00029	33 c8		 xor	 ecx, eax
  0002b	e8 00 00 00 00	 call	 @__security_check_cookie@4
  00030	b8 00 00 00 00	 mov	 eax, OFFSET __ehfuncinfo$?ReqBuyGuildHouse@CGuildHouseMng@@QAEXPAVCUser@@@Z
  00035	e9 00 00 00 00	 jmp	 ___CxxFrameHandler3
text$x	ENDS
?ReqBuyGuildHouse@CGuildHouseMng@@QAEXPAVCUser@@@Z ENDP	; CGuildHouseMng::ReqBuyGuildHouse
; Function compile flags: /Ogtp
; File C:\IAGOS\server\v18\Source\Source\_Common\GuildHouse.cpp
;	COMDAT ?CheckDestroyGuildHouse@CGuildHouseMng@@QAEXPAVCUser@@@Z
_TEXT	SEGMENT
_pUser$ = 8						; size = 4
?CheckDestroyGuildHouse@CGuildHouseMng@@QAEXPAVCUser@@@Z PROC ; CGuildHouseMng::CheckDestroyGuildHouse, COMDAT
; _this$ = ecx

; 1417 : {

  00000	55		 push	 ebp
  00001	8b ec		 mov	 ebp, esp
  00003	56		 push	 esi

; 1418 : 	CGuildHouseBase* pGuildHouse = GetGuildHouse( pUser->m_idGuild );

  00004	8b 75 08	 mov	 esi, DWORD PTR _pUser$[ebp]
  00007	ff b6 14 07 00
	00		 push	 DWORD PTR [esi+1812]
  0000d	e8 00 00 00 00	 call	 ?GetGuildHouse@CGuildHouseMng@@QAEPAVCGuildHouseBase@@K@Z ; CGuildHouseMng::GetGuildHouse

; 1419 : 	if( pGuildHouse )

  00012	85 c0		 test	 eax, eax
  00014	74 08		 je	 SHORT $LN2@CheckDestr

; 1420 : 		pGuildHouse->CheckDestroyRoom( pUser );

  00016	56		 push	 esi
  00017	8b c8		 mov	 ecx, eax
  00019	e8 00 00 00 00	 call	 ?CheckDestroyRoom@CGuildHouseBase@@QAEXPAVCUser@@@Z ; CGuildHouseBase::CheckDestroyRoom
$LN2@CheckDestr:
  0001e	5e		 pop	 esi

; 1421 : }

  0001f	5d		 pop	 ebp
  00020	c2 04 00	 ret	 4
?CheckDestroyGuildHouse@CGuildHouseMng@@QAEXPAVCUser@@@Z ENDP ; CGuildHouseMng::CheckDestroyGuildHouse
_TEXT	ENDS
; Function compile flags: /Ogtp
; File C:\IAGOS\server\v18\Source\Source\_Common\GuildHouse.cpp
;	COMDAT ?GoOutGuildHouse@CGuildHouseMng@@QAEXPAVCUser@@@Z
_TEXT	SEGMENT
_pUser$ = 8						; size = 4
?GoOutGuildHouse@CGuildHouseMng@@QAEXPAVCUser@@@Z PROC	; CGuildHouseMng::GoOutGuildHouse, COMDAT
; _this$ = ecx

; 1410 : {

  00000	55		 push	 ebp
  00001	8b ec		 mov	 ebp, esp
  00003	56		 push	 esi

; 1411 : 	CGuildHouseBase* pGuildHouse = GetGuildHouse( pUser->m_idGuild );

  00004	8b 75 08	 mov	 esi, DWORD PTR _pUser$[ebp]
  00007	ff b6 14 07 00
	00		 push	 DWORD PTR [esi+1812]
  0000d	e8 00 00 00 00	 call	 ?GetGuildHouse@CGuildHouseMng@@QAEPAVCGuildHouseBase@@K@Z ; CGuildHouseMng::GetGuildHouse

; 1412 : 	if( pGuildHouse )

  00012	85 c0		 test	 eax, eax
  00014	74 08		 je	 SHORT $LN2@GoOutGuild

; 1413 : 		pGuildHouse->GoOutGuildHouseRoom( pUser );

  00016	56		 push	 esi
  00017	8b c8		 mov	 ecx, eax
  00019	e8 00 00 00 00	 call	 ?GoOutGuildHouseRoom@CGuildHouseBase@@QAEXPAVCUser@@@Z ; CGuildHouseBase::GoOutGuildHouseRoom
$LN2@GoOutGuild:
  0001e	5e		 pop	 esi

; 1414 : }

  0001f	5d		 pop	 ebp
  00020	c2 04 00	 ret	 4
?GoOutGuildHouse@CGuildHouseMng@@QAEXPAVCUser@@@Z ENDP	; CGuildHouseMng::GoOutGuildHouse
_TEXT	ENDS
; Function compile flags: /Ogtp
; File C:\IAGOS\server\v18\Source\Source\_Common\GuildHouse.cpp
; File C:\IAGOS\server\v18\Source\Source\_Common\Obj.h
; File C:\IAGOS\server\v18\Source\Source\_Common\GuildHouse.cpp
; File C:\IAGOS\server\v18\Source\Source\_Common\Obj.h
; File C:\IAGOS\server\v18\Source\Source\_Common\GuildHouse.cpp
;	COMDAT ?EnteranceGuildHouse@CGuildHouseMng@@QAEHPAVCUser@@K@Z
_TEXT	SEGMENT
$T1 = -16						; size = 12
__$ArrayPad$ = -4					; size = 4
_pUser$ = 8						; size = 4
_dwComebackItemId$ = 12					; size = 4
?EnteranceGuildHouse@CGuildHouseMng@@QAEHPAVCUser@@K@Z PROC ; CGuildHouseMng::EnteranceGuildHouse, COMDAT
; _this$ = ecx

; 1371 : {

  00000	55		 push	 ebp
  00001	8b ec		 mov	 ebp, esp
  00003	83 ec 10	 sub	 esp, 16			; 00000010H
  00006	a1 00 00 00 00	 mov	 eax, DWORD PTR ___security_cookie
  0000b	33 c5		 xor	 eax, ebp
  0000d	89 45 fc	 mov	 DWORD PTR __$ArrayPad$[ebp], eax
  00010	56		 push	 esi
  00011	8b 75 08	 mov	 esi, DWORD PTR _pUser$[ebp]
  00014	57		 push	 edi

; 1372 : 	CGuildHouseBase* pGuildHouse = GetGuildHouse( pUser->m_idGuild );

  00015	ff b6 14 07 00
	00		 push	 DWORD PTR [esi+1812]
  0001b	e8 00 00 00 00	 call	 ?GetGuildHouse@CGuildHouseMng@@QAEPAVCGuildHouseBase@@K@Z ; CGuildHouseMng::GetGuildHouse
  00020	8b f8		 mov	 edi, eax

; 1373 : 	if( !pGuildHouse )

  00022	85 ff		 test	 edi, edi
  00024	75 20		 jne	 SHORT $LN4@EnteranceG

; 1374 : 	{
; 1375 : 		pUser->AddDefinedText( TID_GAME_GUILDHOUSE_ENTER_HAVE );

  00026	68 a4 10 00 00	 push	 4260			; 000010a4H
$LN21@EnteranceG:

; 1407 : }

  0002b	8b ce		 mov	 ecx, esi
  0002d	e8 00 00 00 00	 call	 ?AddDefinedText@CUser@@QAEXH@Z ; CUser::AddDefinedText
$LN6@EnteranceG:
  00032	5f		 pop	 edi
  00033	33 c0		 xor	 eax, eax
  00035	5e		 pop	 esi
  00036	8b 4d fc	 mov	 ecx, DWORD PTR __$ArrayPad$[ebp]
  00039	33 cd		 xor	 ecx, ebp
  0003b	e8 00 00 00 00	 call	 @__security_check_cookie@4
  00040	8b e5		 mov	 esp, ebp
  00042	5d		 pop	 ebp
  00043	c2 08 00	 ret	 8
$LN4@EnteranceG:

; 1376 : 		return FALSE;
; 1377 : 	}
; 1378 : 
; 1379 : 	switch( dwComebackItemId )

  00046	83 7d 0c ff	 cmp	 DWORD PTR _dwComebackItemId$[ebp], -1
  0004a	74 58		 je	 SHORT $LN5@EnteranceG

; 1385 : 				else
; 1386 : 					return FALSE;
; 1387 : 				break;
; 1388 : 			}
; 1389 : 
; 1390 : 		default:
; 1391 : 			{
; 1392 : 				if( pUser->GetWorld() && pUser->GetWorld()->GetID() == WI_WORLD_MADRIGAL )

  0004c	8b 86 6c 01 00
	00		 mov	 eax, DWORD PTR [esi+364]
  00052	85 c0		 test	 eax, eax
  00054	74 47		 je	 SHORT $LN9@EnteranceG
  00056	83 38 01	 cmp	 DWORD PTR [eax], 1
  00059	75 42		 jne	 SHORT $LN9@EnteranceG

; 1393 : 				{
; 1394 : 					pUser->m_idMarkingWorld = WI_WORLD_MADRIGAL;

  0005b	c7 86 c0 0d 00
	00 01 00 00 00	 mov	 DWORD PTR [esi+3520], 1

; 1401 : 				}
; 1402 : 				break;
; 1403 : 			}
; 1404 : 	}
; 1405 : 
; 1406 : 	return pGuildHouse->EnteranceGuildHouseRoom( pUser );

  00065	8b cf		 mov	 ecx, edi
  00067	c7 86 b4 0d 00
	00 00 c0 d9 45	 mov	 DWORD PTR [esi+3508], 1171898368 ; 45d9c000H
  00071	c7 86 b8 0d 00
	00 00 00 00 00	 mov	 DWORD PTR [esi+3512], 0
  0007b	56		 push	 esi
  0007c	c7 86 bc 0d 00
	00 cd 0c 50 45	 mov	 DWORD PTR [esi+3516], 1162874061 ; 45500ccdH
  00086	e8 00 00 00 00	 call	 ?EnteranceGuildHouseRoom@CGuildHouseBase@@QAEHPAVCUser@@@Z ; CGuildHouseBase::EnteranceGuildHouseRoom
  0008b	5f		 pop	 edi

; 1407 : }

  0008c	5e		 pop	 esi
  0008d	8b 4d fc	 mov	 ecx, DWORD PTR __$ArrayPad$[ebp]
  00090	33 cd		 xor	 ecx, ebp
  00092	e8 00 00 00 00	 call	 @__security_check_cookie@4
  00097	8b e5		 mov	 esp, ebp
  00099	5d		 pop	 ebp
  0009a	c2 08 00	 ret	 8
$LN9@EnteranceG:

; 1395 : 					pUser->m_vMarkingPos = D3DXVECTOR3( 6968.0f, 0.0f, 3328.8f );
; 1396 : 				}
; 1397 : 				else
; 1398 : 				{
; 1399 : 					pUser->AddDefinedText( TID_GAME_GUILDHOUSE_COMEBACK_ERROR01 );

  0009d	68 d0 10 00 00	 push	 4304			; 000010d0H

; 1400 : 					return FALSE;

  000a2	eb 87		 jmp	 SHORT $LN21@EnteranceG
$LN5@EnteranceG:
; File C:\IAGOS\server\v18\Source\Source\_Common\Obj.h

; 215  : 	D3DXVECTOR3		GetPos()	{ return m_vPos; }

  000a4	8b 86 68 01 00
	00		 mov	 eax, DWORD PTR [esi+360]
  000aa	f3 0f 7e 86 60
	01 00 00	 movq	 xmm0, QWORD PTR [esi+352]
  000b2	89 45 f8	 mov	 DWORD PTR $T1[ebp+8], eax
; File C:\IAGOS\server\v18\Source\Source\_Common\GuildHouse.cpp

; 1383 : 				if( CNpcChecker::GetInstance()->IsCloseNpc( MMI_GUILDHOUSE_ENTER, pUser->GetWorld(), pUser->GetPos() ) )

  000b5	8d 45 f0	 lea	 eax, DWORD PTR $T1[ebp]
  000b8	50		 push	 eax
  000b9	ff b6 6c 01 00
	00		 push	 DWORD PTR [esi+364]
; File C:\IAGOS\server\v18\Source\Source\_Common\Obj.h

; 215  : 	D3DXVECTOR3		GetPos()	{ return m_vPos; }

  000bf	66 0f d6 45 f0	 movq	 QWORD PTR $T1[ebp], xmm0
; File C:\IAGOS\server\v18\Source\Source\_Common\GuildHouse.cpp

; 1383 : 				if( CNpcChecker::GetInstance()->IsCloseNpc( MMI_GUILDHOUSE_ENTER, pUser->GetWorld(), pUser->GetPos() ) )

  000c4	68 95 00 00 00	 push	 149			; 00000095H
  000c9	e8 00 00 00 00	 call	 ?GetInstance@CNpcChecker@@SAPAV1@XZ ; CNpcChecker::GetInstance
  000ce	8b c8		 mov	 ecx, eax
  000d0	e8 00 00 00 00	 call	 ?IsCloseNpc@CNpcChecker@@QAEHHPAVCWorld@@AAUD3DXVECTOR3@@@Z ; CNpcChecker::IsCloseNpc
  000d5	85 c0		 test	 eax, eax
  000d7	0f 84 55 ff ff
	ff		 je	 $LN6@EnteranceG

; 1384 : 					pUser->SetMarkingPos();

  000dd	8b ce		 mov	 ecx, esi
  000df	e8 00 00 00 00	 call	 ?SetMarkingPos@CMover@@QAEXXZ ; CMover::SetMarkingPos

; 1401 : 				}
; 1402 : 				break;
; 1403 : 			}
; 1404 : 	}
; 1405 : 
; 1406 : 	return pGuildHouse->EnteranceGuildHouseRoom( pUser );

  000e4	56		 push	 esi
  000e5	8b cf		 mov	 ecx, edi
  000e7	e8 00 00 00 00	 call	 ?EnteranceGuildHouseRoom@CGuildHouseBase@@QAEHPAVCUser@@@Z ; CGuildHouseBase::EnteranceGuildHouseRoom

; 1407 : }

  000ec	8b 4d fc	 mov	 ecx, DWORD PTR __$ArrayPad$[ebp]
  000ef	5f		 pop	 edi
  000f0	33 cd		 xor	 ecx, ebp
  000f2	5e		 pop	 esi
  000f3	e8 00 00 00 00	 call	 @__security_check_cookie@4
  000f8	8b e5		 mov	 esp, ebp
  000fa	5d		 pop	 ebp
  000fb	c2 08 00	 ret	 8
?EnteranceGuildHouse@CGuildHouseMng@@QAEHPAVCUser@@K@Z ENDP ; CGuildHouseMng::EnteranceGuildHouse
_TEXT	ENDS
; Function compile flags: /Ogtp
; File C:\IAGOS\server\v18\Source\Source\_Common\GuildHouse.cpp
;	COMDAT ?IsLoginAble@CGuildHouseMng@@QAEHPAVCUser@@KH@Z
_TEXT	SEGMENT
_pUser$ = 8						; size = 4
_dwWorldId$ = 12					; size = 4
_nLayer$ = 16						; size = 4
?IsLoginAble@CGuildHouseMng@@QAEHPAVCUser@@KH@Z PROC	; CGuildHouseMng::IsLoginAble, COMDAT
; _this$ = ecx

; 1356 : {

  00000	55		 push	 ebp
  00001	8b ec		 mov	 ebp, esp
  00003	57		 push	 edi

; 1357 : 	if( !IsGuildHouse( dwWorldId ) )	// Á˘ĽÓÇŇ¶§ World°ˇ ±ćµĺÇĎżě˝ş°ˇ ľĆ´Ď¸é ĆĐ˝ş!!!

  00004	ff 75 0c	 push	 DWORD PTR _dwWorldId$[ebp]
  00007	8b f9		 mov	 edi, ecx
  00009	e8 00 00 00 00	 call	 ?IsGuildHouse@CGuildHouseMng@@QAEHK@Z ; CGuildHouseMng::IsGuildHouse
  0000e	85 c0		 test	 eax, eax
  00010	75 0a		 jne	 SHORT $LN2@IsLoginAbl

; 1358 : 		return TRUE;

  00012	b8 01 00 00 00	 mov	 eax, 1
  00017	5f		 pop	 edi

; 1368 : }

  00018	5d		 pop	 ebp
  00019	c2 0c 00	 ret	 12			; 0000000cH
$LN2@IsLoginAbl:
  0001c	56		 push	 esi

; 1359 : 
; 1360 : 	if( pUser->m_idGuild != nLayer )	// ŔĎ´Ü ±ćµĺÇĎżě˝ş¶ó¸é ĂÖÁľ Á˘ĽÓ ·ąŔĚľî°ˇ Äł¸ŻĹÍŔÇ ±ćµĺIDżÍ ŔĎÄˇÇŘľß ÇŃ´Ů.

  0001d	8b 75 08	 mov	 esi, DWORD PTR _pUser$[ebp]
  00020	8b 86 14 07 00
	00		 mov	 eax, DWORD PTR [esi+1812]
  00026	3b 45 10	 cmp	 eax, DWORD PTR _nLayer$[ebp]
  00029	75 1a		 jne	 SHORT $LN4@IsLoginAbl

; 1361 : 		return FALSE;
; 1362 : 	
; 1363 : 	CGuildHouseBase* pGuildHouse = GetGuildHouse( pUser->m_idGuild );

  0002b	50		 push	 eax
  0002c	8b cf		 mov	 ecx, edi
  0002e	e8 00 00 00 00	 call	 ?GetGuildHouse@CGuildHouseMng@@QAEPAVCGuildHouseBase@@K@Z ; CGuildHouseMng::GetGuildHouse

; 1364 : 	if( pGuildHouse )	// ŔÔŔĺ °ˇ´ÉÇŃ Äł¸ŻĹÍŔĚ¸é ČŢ˝Ä Ć÷ŔÎĆ®¸¦ żäĂ»ÇŃ´Ů.

  00033	85 c0		 test	 eax, eax
  00035	74 0e		 je	 SHORT $LN4@IsLoginAbl

; 1365 : 		return pGuildHouse->IsEnteranceAble( pUser );

  00037	56		 push	 esi
  00038	8b c8		 mov	 ecx, eax
  0003a	e8 00 00 00 00	 call	 ?IsEnteranceAble@CGuildHouseBase@@QAEHPAVCUser@@@Z ; CGuildHouseBase::IsEnteranceAble
  0003f	5e		 pop	 esi
  00040	5f		 pop	 edi

; 1368 : }

  00041	5d		 pop	 ebp
  00042	c2 0c 00	 ret	 12			; 0000000cH
$LN4@IsLoginAbl:
  00045	5e		 pop	 esi

; 1366 : 	
; 1367 : 	return FALSE;

  00046	33 c0		 xor	 eax, eax
  00048	5f		 pop	 edi

; 1368 : }

  00049	5d		 pop	 ebp
  0004a	c2 0c 00	 ret	 12			; 0000000cH
?IsLoginAble@CGuildHouseMng@@QAEHPAVCUser@@KH@Z ENDP	; CGuildHouseMng::IsLoginAble
_TEXT	ENDS
; Function compile flags: /Ogtp
; File C:\IAGOS\server\v18\Source\Source\_Common\GuildHouse.cpp
;	COMDAT ?IsGuildHouse@CGuildHouseMng@@QAEHK@Z
_TEXT	SEGMENT
_dwWorldId$ = 8						; size = 4
?IsGuildHouse@CGuildHouseMng@@QAEHK@Z PROC		; CGuildHouseMng::IsGuildHouse, COMDAT
; _this$ = ecx

; 1343 : {

  00000	55		 push	 ebp
  00001	8b ec		 mov	 ebp, esp

; 1344 : 	switch( dwWorldId )

  00003	8b 45 08	 mov	 eax, DWORD PTR _dwWorldId$[ebp]
  00006	2d d4 00 00 00	 sub	 eax, 212		; 000000d4H
  0000b	74 10		 je	 SHORT $LN4@IsGuildHou
  0000d	83 e8 01	 sub	 eax, 1
  00010	74 0b		 je	 SHORT $LN4@IsGuildHou
  00012	83 e8 01	 sub	 eax, 1
  00015	74 06		 je	 SHORT $LN4@IsGuildHou

; 1350 : 	}
; 1351 : 
; 1352 : 	return FALSE;

  00017	33 c0		 xor	 eax, eax

; 1353 : }

  00019	5d		 pop	 ebp
  0001a	c2 04 00	 ret	 4
$LN4@IsGuildHou:

; 1345 : 	{
; 1346 : 		case WI_GUILDHOUSE_SMALL:
; 1347 : 		case WI_GUILDHOUSE_MIDDLE:
; 1348 : 		case WI_GUILDHOUSE_LARGE:
; 1349 : 			return TRUE;

  0001d	b8 01 00 00 00	 mov	 eax, 1

; 1353 : }

  00022	5d		 pop	 ebp
  00023	c2 04 00	 ret	 4
?IsGuildHouse@CGuildHouseMng@@QAEHK@Z ENDP		; CGuildHouseMng::IsGuildHouse
_TEXT	ENDS
; Function compile flags: /Ogtp
; File C:\IAGOS\server\v18\Source\Source\_Common\GuildHouse.cpp
; File C:\IAGOS\server\v18\Source\Source\_Network\Misc\Include\ar.h
; File C:\IAGOS\server\v18\Source\Source\_Common\GuildHouse.cpp
; File C:\Program Files\Microsoft Visual Studio\2022\Professional\VC\Tools\MSVC\14.44.35207\include\xtree
; File C:\IAGOS\server\v18\Source\Source\_Common\GuildHouse.cpp
; File C:\Program Files\Microsoft Visual Studio\2022\Professional\VC\Tools\MSVC\14.44.35207\include\xtree
; File C:\IAGOS\server\v18\Source\Source\_Common\GuildHouse.cpp
; File C:\Program Files\Microsoft Visual Studio\2022\Professional\VC\Tools\MSVC\14.44.35207\include\xtree
; File C:\IAGOS\server\v18\Source\Source\_Common\GuildHouse.cpp
; File C:\Program Files\Microsoft Visual Studio\2022\Professional\VC\Tools\MSVC\14.44.35207\include\utility
; File C:\Program Files\Microsoft Visual Studio\2022\Professional\VC\Tools\MSVC\14.44.35207\include\xtree
; File C:\Program Files\Microsoft Visual Studio\2022\Professional\VC\Tools\MSVC\14.44.35207\include\utility
; File C:\Program Files\Microsoft Visual Studio\2022\Professional\VC\Tools\MSVC\14.44.35207\include\xtree
; File C:\Program Files\Microsoft Visual Studio\2022\Professional\VC\Tools\MSVC\14.44.35207\include\utility
; File C:\Program Files\Microsoft Visual Studio\2022\Professional\VC\Tools\MSVC\14.44.35207\include\xtree
; File C:\Program Files\Microsoft Visual Studio\2022\Professional\VC\Tools\MSVC\14.44.35207\include\type_traits
; File C:\Program Files\Microsoft Visual Studio\2022\Professional\VC\Tools\MSVC\14.44.35207\include\xtree
; File C:\IAGOS\server\v18\Source\Source\_Common\GuildHouse.cpp
; File C:\Program Files\Microsoft Visual Studio\2022\Professional\VC\Tools\MSVC\14.44.35207\include\xtree
; File C:\Program Files\Microsoft Visual Studio\2022\Professional\VC\Tools\MSVC\14.44.35207\include\xmemory
; File C:\Program Files\Microsoft Visual Studio\2022\Professional\VC\Tools\MSVC\14.44.35207\include\xtree
; File C:\Program Files\Microsoft Visual Studio\2022\Professional\VC\Tools\MSVC\14.44.35207\include\xmemory
; File C:\Program Files\Microsoft Visual Studio\2022\Professional\VC\Tools\MSVC\14.44.35207\include\utility
; File C:\Program Files\Microsoft Visual Studio\2022\Professional\VC\Tools\MSVC\14.44.35207\include\xmemory
; File C:\Program Files\Microsoft Visual Studio\2022\Professional\VC\Tools\MSVC\14.44.35207\include\xtree
; File C:\Program Files\Microsoft Visual Studio\2022\Professional\VC\Tools\MSVC\14.44.35207\include\utility
; File C:\Program Files\Microsoft Visual Studio\2022\Professional\VC\Tools\MSVC\14.44.35207\include\xtree
; File C:\Program Files\Microsoft Visual Studio\2022\Professional\VC\Tools\MSVC\14.44.35207\include\utility
; File C:\Program Files\Microsoft Visual Studio\2022\Professional\VC\Tools\MSVC\14.44.35207\include\xtree
; File C:\IAGOS\server\v18\Source\Source\_Common\GuildHouse.cpp
; File C:\Program Files\Microsoft Visual Studio\2022\Professional\VC\Tools\MSVC\14.44.35207\include\xtree
; File C:\IAGOS\server\v18\Source\Source\_Common\GuildHouse.cpp
;	COMDAT ?Serialize@CGuildHouseMng@@QAEXAAVCAr@@@Z
_TEXT	SEGMENT
_temp$3 = -100						; size = 32
$T4 = -68						; size = 12
__Loc$5 = -56						; size = 12
$T6 = -44						; size = 8
$T7 = -36						; size = 8
_dwType$8 = -28						; size = 4
$T9 = -24						; size = 4
_nSize$10 = -24						; size = 4
_i$1$ = -20						; size = 4
_this$1$ = -16						; size = 4
__$EHRec$ = -12						; size = 12
_ar$ = 8						; size = 4
$T11 = 8						; size = 4
_it$12 = 8						; size = 4
_dwGuildId$13 = 8					; size = 4
?Serialize@CGuildHouseMng@@QAEXAAVCAr@@@Z PROC		; CGuildHouseMng::Serialize, COMDAT
; _this$ = ecx

; 1142 : {

  00000	55		 push	 ebp
  00001	8b ec		 mov	 ebp, esp
  00003	6a ff		 push	 -1
  00005	68 00 00 00 00	 push	 __ehhandler$?Serialize@CGuildHouseMng@@QAEXAAVCAr@@@Z
  0000a	64 a1 00 00 00
	00		 mov	 eax, DWORD PTR fs:0
  00010	50		 push	 eax
  00011	83 ec 58	 sub	 esp, 88			; 00000058H
  00014	53		 push	 ebx
  00015	56		 push	 esi
  00016	57		 push	 edi
  00017	a1 00 00 00 00	 mov	 eax, DWORD PTR ___security_cookie
  0001c	33 c5		 xor	 eax, ebp
  0001e	50		 push	 eax
  0001f	8d 45 f4	 lea	 eax, DWORD PTR __$EHRec$[ebp]
  00022	64 a3 00 00 00
	00		 mov	 DWORD PTR fs:0, eax
  00028	8b c1		 mov	 eax, ecx
  0002a	89 45 f0	 mov	 DWORD PTR _this$1$[ebp], eax
; File C:\IAGOS\server\v18\Source\Source\_Network\Misc\Include\ar.h

; 146  : 	return (m_nMode & CAr::load) == 0;

  0002d	8b 5d 08	 mov	 ebx, DWORD PTR _ar$[ebp]
  00030	8d 78 08	 lea	 edi, DWORD PTR [eax+8]
  00033	f6 03 01	 test	 BYTE PTR [ebx], 1
; File C:\IAGOS\server\v18\Source\Source\_Common\GuildHouse.cpp

; 1143 : 	if( ar.IsStoring() )

  00036	75 67		 jne	 SHORT $LN8@Serialize

; 1144 : 	{
; 1145 : 		ar << m_mapGuildHouse.size();

  00038	8b 40 0c	 mov	 eax, DWORD PTR [eax+12]
  0003b	8b cb		 mov	 ecx, ebx
  0003d	89 45 08	 mov	 DWORD PTR $T11[ebp], eax
  00040	8d 45 08	 lea	 eax, DWORD PTR $T11[ebp]
  00043	50		 push	 eax
  00044	e8 00 00 00 00	 call	 ??$?6I@CAr@@QAEAAV0@ABI@Z ; CAr::operator<<<unsigned int>
; File C:\Program Files\Microsoft Visual Studio\2022\Professional\VC\Tools\MSVC\14.44.35207\include\xtree

; 1142 :         return iterator(_Scary->_Myhead->_Left, _Scary);

  00049	8b 07		 mov	 eax, DWORD PTR [edi]

; 37   :     _Tree_unchecked_const_iterator(_Nodeptr _Pnode, const _Mytree* _Plist) noexcept : _Ptr(_Pnode) {

  0004b	8b 30		 mov	 esi, DWORD PTR [eax]
  0004d	89 75 08	 mov	 DWORD PTR _it$12[ebp], esi

; 237  :         return !(*this == _Right);

  00050	3b f0		 cmp	 esi, eax
; File C:\IAGOS\server\v18\Source\Source\_Common\GuildHouse.cpp

; 1146 : 		for( MapGuildHouse::iterator it=m_mapGuildHouse.begin(); it!=m_mapGuildHouse.end(); it++ )

  00052	74 37		 je	 SHORT $LN204@Serialize
$LL4@Serialize:

; 1148 : 			ar << it->first << it->second->GetType();

  00054	8b 46 14	 mov	 eax, DWORD PTR [esi+20]
  00057	8b cb		 mov	 ecx, ebx
  00059	8b 40 08	 mov	 eax, DWORD PTR [eax+8]
  0005c	89 45 e8	 mov	 DWORD PTR $T9[ebp], eax
  0005f	8d 45 e8	 lea	 eax, DWORD PTR $T9[ebp]
  00062	50		 push	 eax
; File C:\Program Files\Microsoft Visual Studio\2022\Professional\VC\Tools\MSVC\14.44.35207\include\xtree

; 185  :         return this->_Ptr->_Myval;

  00063	8d 46 10	 lea	 eax, DWORD PTR [esi+16]
; File C:\IAGOS\server\v18\Source\Source\_Common\GuildHouse.cpp

; 1148 : 			ar << it->first << it->second->GetType();

  00066	50		 push	 eax
  00067	e8 00 00 00 00	 call	 ??$?6K@CAr@@QAEAAV0@ABK@Z ; CAr::operator<<<unsigned long>
  0006c	8b c8		 mov	 ecx, eax
  0006e	e8 00 00 00 00	 call	 ??$?6K@CAr@@QAEAAV0@ABK@Z ; CAr::operator<<<unsigned long>

; 1149 : 			it->second->SerializeAllInfo( ar );

  00073	8b 4e 14	 mov	 ecx, DWORD PTR [esi+20]
  00076	53		 push	 ebx
  00077	e8 00 00 00 00	 call	 ?SerializeAllInfo@CGuildHouseBase@@QAEXAAVCAr@@@Z ; CGuildHouseBase::SerializeAllInfo
; File C:\Program Files\Microsoft Visual Studio\2022\Professional\VC\Tools\MSVC\14.44.35207\include\xtree

; 198  :         _Mybase::operator++();

  0007c	8d 4d 08	 lea	 ecx, DWORD PTR _it$12[ebp]
  0007f	e8 00 00 00 00	 call	 ??E?$_Tree_unchecked_const_iterator@V?$_Tree_val@U?$_Tree_simple_types@U?$pair@$$CBKPAVCGuildHouseBase@@@std@@@std@@@std@@U_Iterator_base0@2@@std@@QAEAAV01@XZ ; std::_Tree_unchecked_const_iterator<std::_Tree_val<std::_Tree_simple_types<std::pair<unsigned long const ,CGuildHouseBase *> > >,std::_Iterator_base0>::operator++

; 237  :         return !(*this == _Right);

  00084	8b 75 08	 mov	 esi, DWORD PTR _it$12[ebp]
  00087	3b 37		 cmp	 esi, DWORD PTR [edi]
; File C:\IAGOS\server\v18\Source\Source\_Common\GuildHouse.cpp

; 1146 : 		for( MapGuildHouse::iterator it=m_mapGuildHouse.begin(); it!=m_mapGuildHouse.end(); it++ )

  00089	75 c9		 jne	 SHORT $LL4@Serialize
$LN204@Serialize:

; 1194 : }

  0008b	8b 4d f4	 mov	 ecx, DWORD PTR __$EHRec$[ebp]
  0008e	64 89 0d 00 00
	00 00		 mov	 DWORD PTR fs:0, ecx
  00095	59		 pop	 ecx
  00096	5f		 pop	 edi
  00097	5e		 pop	 esi
  00098	5b		 pop	 ebx
  00099	8b e5		 mov	 esp, ebp
  0009b	5d		 pop	 ebp
  0009c	c2 04 00	 ret	 4
$LN8@Serialize:

; 1150 : 		}
; 1151 : #ifdef __GUILD_HOUSE_MIDDLE
; 1152 : 		ar << m_mapTenderGuild.size();
; 1153 : 		for( MAP_TENDER_GUILD::iterator it = m_mapTenderGuild.begin(); it != m_mapTenderGuild.end(); ++it )
; 1154 : 		{
; 1155 : 			ar << it->first;
; 1156 : 			it->second.Serialize( ar );
; 1157 : 		}
; 1158 : #endif // __GUILD_HOUSE_MIDDLE
; 1159 : 	}
; 1160 : 	else
; 1161 : 	{
; 1162 : 		m_mapGuildHouse.clear();

  0009f	8b cf		 mov	 ecx, edi
  000a1	e8 00 00 00 00	 call	 ?clear@?$_Tree@V?$_Tmap_traits@KPAVCGuildHouseBase@@U?$less@K@std@@V?$allocator@U?$pair@$$CBKPAVCGuildHouseBase@@@std@@@3@$0A@@std@@@std@@QAEXXZ ; std::_Tree<std::_Tmap_traits<unsigned long,CGuildHouseBase *,std::less<unsigned long>,std::allocator<std::pair<unsigned long const ,CGuildHouseBase *> >,0> >::clear

; 1163 : 		int nSize;
; 1164 : 		DWORD dwGuildId, dwType;
; 1165 : 		ar >> nSize;

  000a6	8d 45 e8	 lea	 eax, DWORD PTR _nSize$10[ebp]
  000a9	8b cb		 mov	 ecx, ebx
  000ab	50		 push	 eax
  000ac	e8 00 00 00 00	 call	 ??$?5H@CAr@@QAEAAV0@AAH@Z ; CAr::operator>><int>

; 1166 : 		for( int i=0; i<nSize; i++ )

  000b1	33 f6		 xor	 esi, esi
  000b3	89 75 ec	 mov	 DWORD PTR _i$1$[ebp], esi
  000b6	39 75 e8	 cmp	 DWORD PTR _nSize$10[ebp], esi
  000b9	7e d0		 jle	 SHORT $LN204@Serialize
  000bb	0f 1f 44 00 00	 npad	 5
$LL7@Serialize:

; 1167 : 		{
; 1168 : 			ar >> dwGuildId >> dwType;

  000c0	8d 45 e4	 lea	 eax, DWORD PTR _dwType$8[ebp]
  000c3	8b cb		 mov	 ecx, ebx
  000c5	50		 push	 eax
  000c6	8d 45 08	 lea	 eax, DWORD PTR _dwGuildId$13[ebp]
  000c9	50		 push	 eax
  000ca	e8 00 00 00 00	 call	 ??$?5K@CAr@@QAEAAV0@AAK@Z ; CAr::operator>><unsigned long>
  000cf	8b c8		 mov	 ecx, eax
  000d1	e8 00 00 00 00	 call	 ??$?5K@CAr@@QAEAAV0@AAK@Z ; CAr::operator>><unsigned long>

; 1169 : 			CGuildHouseBase* pGuildHouse = MakeGuildHouse( dwGuildId, dwType );

  000d6	ff 75 e4	 push	 DWORD PTR _dwType$8[ebp]
  000d9	8b 4d 08	 mov	 ecx, DWORD PTR _dwGuildId$13[ebp]
  000dc	51		 push	 ecx
  000dd	8b 4d f0	 mov	 ecx, DWORD PTR _this$1$[ebp]
  000e0	e8 00 00 00 00	 call	 ?MakeGuildHouse@CGuildHouseMng@@QAEPAVCGuildHouseBase@@KK@Z ; CGuildHouseMng::MakeGuildHouse
  000e5	8b f8		 mov	 edi, eax

; 1170 : 			
; 1171 : 			if( pGuildHouse && AddGuildHouse( dwGuildId, pGuildHouse ) )

  000e7	85 ff		 test	 edi, edi
  000e9	74 3e		 je	 SHORT $LN14@Serialize
; File C:\Program Files\Microsoft Visual Studio\2022\Professional\VC\Tools\MSVC\14.44.35207\include\utility

; 274  :         : first(_STD forward<_Other1>(_Val1)), second(_STD forward<_Other2>(_Val2)) {

  000eb	8b 45 08	 mov	 eax, DWORD PTR _dwGuildId$13[ebp]
; File C:\Program Files\Microsoft Visual Studio\2022\Professional\VC\Tools\MSVC\14.44.35207\include\xtree

; 1017 :             _Loc                = _Find_lower_bound(_Keyval);

  000ee	8b 4d f0	 mov	 ecx, DWORD PTR _this$1$[ebp]
; File C:\Program Files\Microsoft Visual Studio\2022\Professional\VC\Tools\MSVC\14.44.35207\include\utility

; 274  :         : first(_STD forward<_Other1>(_Val1)), second(_STD forward<_Other2>(_Val2)) {

  000f1	89 45 dc	 mov	 DWORD PTR $T7[ebp], eax
; File C:\Program Files\Microsoft Visual Studio\2022\Professional\VC\Tools\MSVC\14.44.35207\include\xtree

; 1017 :             _Loc                = _Find_lower_bound(_Keyval);

  000f4	8d 45 dc	 lea	 eax, DWORD PTR $T7[ebp]
  000f7	50		 push	 eax
  000f8	8d 45 bc	 lea	 eax, DWORD PTR $T4[ebp]
; File C:\Program Files\Microsoft Visual Studio\2022\Professional\VC\Tools\MSVC\14.44.35207\include\utility

; 274  :         : first(_STD forward<_Other1>(_Val1)), second(_STD forward<_Other2>(_Val2)) {

  000fb	89 7d e0	 mov	 DWORD PTR $T7[ebp+4], edi
; File C:\Program Files\Microsoft Visual Studio\2022\Professional\VC\Tools\MSVC\14.44.35207\include\xtree

; 1017 :             _Loc                = _Find_lower_bound(_Keyval);

  000fe	50		 push	 eax
  000ff	8d 49 08	 lea	 ecx, DWORD PTR [ecx+8]
  00102	e8 00 00 00 00	 call	 ??$_Find_lower_bound@K@?$_Tree@V?$_Tmap_traits@KPAVCGuildHouseBase@@U?$less@K@std@@V?$allocator@U?$pair@$$CBKPAVCGuildHouseBase@@@std@@@3@$0A@@std@@@std@@IBE?AU?$_Tree_find_result@PAU?$_Tree_node@U?$pair@$$CBKPAVCGuildHouseBase@@@std@@PAX@std@@@1@ABK@Z ; std::_Tree<std::_Tmap_traits<unsigned long,CGuildHouseBase *,std::less<unsigned long>,std::allocator<std::pair<unsigned long const ,CGuildHouseBase *> >,0> >::_Find_lower_bound<unsigned long>
  00107	8b 48 08	 mov	 ecx, DWORD PTR [eax+8]
  0010a	f3 0f 7e 00	 movq	 xmm0, QWORD PTR [eax]
  0010e	66 0f d6 45 c8	 movq	 QWORD PTR __Loc$5[ebp], xmm0

; 1624 :         return !_Bound->_Isnil && !_DEBUG_LT_PRED(_Getcomp(), _Keyval, _Traits::_Kfn(_Bound->_Myval));

  00113	80 79 0d 00	 cmp	 BYTE PTR [ecx+13], 0
  00117	75 5a		 jne	 SHORT $LN95@Serialize
; File C:\Program Files\Microsoft Visual Studio\2022\Professional\VC\Tools\MSVC\14.44.35207\include\type_traits

; 2380 :         return _Left < _Right;

  00119	8b 45 08	 mov	 eax, DWORD PTR _dwGuildId$13[ebp]
  0011c	3b 41 10	 cmp	 eax, DWORD PTR [ecx+16]
; File C:\Program Files\Microsoft Visual Studio\2022\Professional\VC\Tools\MSVC\14.44.35207\include\xtree

; 1624 :         return !_Bound->_Isnil && !_DEBUG_LT_PRED(_Getcomp(), _Keyval, _Traits::_Kfn(_Bound->_Myval));

  0011f	72 52		 jb	 SHORT $LN95@Serialize
; File C:\IAGOS\server\v18\Source\Source\_Common\GuildHouse.cpp

; 1175 : 				SAFE_DELETE( pGuildHouse );

  00121	8b 07		 mov	 eax, DWORD PTR [edi]
  00123	8b cf		 mov	 ecx, edi
  00125	6a 01		 push	 1
  00127	ff 10		 call	 DWORD PTR [eax]
$LN14@Serialize:

; 1176 : 				CGuildHouseSmall temp( NULL_ID );

  00129	6a ff		 push	 -1
  0012b	8d 4d 9c	 lea	 ecx, DWORD PTR _temp$3[ebp]
  0012e	e8 00 00 00 00	 call	 ??0CGuildHouseSmall@@QAE@K@Z ; CGuildHouseSmall::CGuildHouseSmall

; 1177 : 				temp.SerializeAllInfo( ar );

  00133	53		 push	 ebx
  00134	8d 4d 9c	 lea	 ecx, DWORD PTR _temp$3[ebp]
  00137	c7 45 fc 01 00
	00 00		 mov	 DWORD PTR __$EHRec$[ebp+8], 1
  0013e	e8 00 00 00 00	 call	 ?SerializeAllInfo@CGuildHouseBase@@QAEXAAVCAr@@@Z ; CGuildHouseBase::SerializeAllInfo

; 1178 : 			}

  00143	8d 4d 9c	 lea	 ecx, DWORD PTR _temp$3[ebp]
  00146	c7 45 fc ff ff
	ff ff		 mov	 DWORD PTR __$EHRec$[ebp+8], -1
  0014d	e8 00 00 00 00	 call	 ??1CGuildHouseSmall@@UAE@XZ ; CGuildHouseSmall::~CGuildHouseSmall
$LN5@Serialize:

; 1166 : 		for( int i=0; i<nSize; i++ )

  00152	46		 inc	 esi
  00153	89 75 ec	 mov	 DWORD PTR _i$1$[ebp], esi
  00156	3b 75 e8	 cmp	 esi, DWORD PTR _nSize$10[ebp]
  00159	0f 8c 61 ff ff
	ff		 jl	 $LL7@Serialize

; 1194 : }

  0015f	8b 4d f4	 mov	 ecx, DWORD PTR __$EHRec$[ebp]
  00162	64 89 0d 00 00
	00 00		 mov	 DWORD PTR fs:0, ecx
  00169	59		 pop	 ecx
  0016a	5f		 pop	 edi
  0016b	5e		 pop	 esi
  0016c	5b		 pop	 ebx
  0016d	8b e5		 mov	 esp, ebp
  0016f	5d		 pop	 ebp
  00170	c2 04 00	 ret	 4
$LN95@Serialize:
; File C:\Program Files\Microsoft Visual Studio\2022\Professional\VC\Tools\MSVC\14.44.35207\include\xtree

; 1648 :         if (max_size() == _Get_scary()->_Mysize) {

  00173	8b 45 f0	 mov	 eax, DWORD PTR _this$1$[ebp]
  00176	83 c0 08	 add	 eax, 8
  00179	81 78 04 aa aa
	aa 0a		 cmp	 DWORD PTR [eax+4], 178956970 ; 0aaaaaaaH
  00180	74 64		 je	 SHORT $LN200@Serialize

; 1023 :             _Inserted = _Tree_temp_node<_Alnode>(_Getal(), _Scary->_Myhead, _STD forward<_Valtys>(_Vals)...)._Release();

  00182	8b 30		 mov	 esi, DWORD PTR [eax]
; File C:\Program Files\Microsoft Visual Studio\2022\Professional\VC\Tools\MSVC\14.44.35207\include\xmemory

; 1160 :     _CONSTEXPR20 explicit _Alloc_construct_ptr(_Alloc& _Al_) : _Al(_Al_), _Ptr(nullptr) {}

  00184	89 45 d4	 mov	 DWORD PTR $T6[ebp], eax

; 136  :         return ::operator new(_Bytes);

  00187	6a 18		 push	 24			; 00000018H
; File C:\Program Files\Microsoft Visual Studio\2022\Professional\VC\Tools\MSVC\14.44.35207\include\xtree

; 808  :     explicit _Tree_temp_node_alloc(_Alnode& _Al_) : _Alloc_construct_ptr<_Alnode>(_Al_) {

  00189	c7 45 fc 00 00
	00 00		 mov	 DWORD PTR __$EHRec$[ebp+8], 0
; File C:\Program Files\Microsoft Visual Studio\2022\Professional\VC\Tools\MSVC\14.44.35207\include\xmemory

; 1167 :         _Ptr = nullptr; // if allocate throws, prevents double-free

  00190	c7 45 d8 00 00
	00 00		 mov	 DWORD PTR $T6[ebp+4], 0

; 136  :         return ::operator new(_Bytes);

  00197	e8 00 00 00 00	 call	 ??2@YAPAXI@Z		; operator new
; File C:\Program Files\Microsoft Visual Studio\2022\Professional\VC\Tools\MSVC\14.44.35207\include\utility

; 303  :         : first(_STD forward<_Other1>(_Right.first)), second(_STD forward<_Other2>(_Right.second)) {}

  0019c	8b 4d 08	 mov	 ecx, DWORD PTR _dwGuildId$13[ebp]
; File C:\Program Files\Microsoft Visual Studio\2022\Professional\VC\Tools\MSVC\14.44.35207\include\xmemory

; 136  :         return ::operator new(_Bytes);

  0019f	83 c4 04	 add	 esp, 4
; File C:\Program Files\Microsoft Visual Studio\2022\Professional\VC\Tools\MSVC\14.44.35207\include\xtree

; 810  :     }

  001a2	c7 45 fc ff ff
	ff ff		 mov	 DWORD PTR __$EHRec$[ebp+8], -1
; File C:\Program Files\Microsoft Visual Studio\2022\Professional\VC\Tools\MSVC\14.44.35207\include\utility

; 774  :     _Val         = static_cast<_Other&&>(_New_val);

  001a9	c7 45 d8 00 00
	00 00		 mov	 DWORD PTR $T6[ebp+4], 0

; 303  :         : first(_STD forward<_Other1>(_Right.first)), second(_STD forward<_Other2>(_Right.second)) {}

  001b0	89 48 10	 mov	 DWORD PTR [eax+16], ecx
; File C:\Program Files\Microsoft Visual Studio\2022\Professional\VC\Tools\MSVC\14.44.35207\include\xtree

; 1042 :         return {_Scary->_Insert_node(_Loc._Location, _Inserted), true};

  001b3	8b 4d f0	 mov	 ecx, DWORD PTR _this$1$[ebp]
  001b6	50		 push	 eax
  001b7	ff 75 cc	 push	 DWORD PTR __Loc$5[ebp+4]
; File C:\Program Files\Microsoft Visual Studio\2022\Professional\VC\Tools\MSVC\14.44.35207\include\utility

; 303  :         : first(_STD forward<_Other1>(_Right.first)), second(_STD forward<_Other2>(_Right.second)) {}

  001ba	89 78 14	 mov	 DWORD PTR [eax+20], edi
; File C:\Program Files\Microsoft Visual Studio\2022\Professional\VC\Tools\MSVC\14.44.35207\include\xtree

; 1042 :         return {_Scary->_Insert_node(_Loc._Location, _Inserted), true};

  001bd	ff 75 c8	 push	 DWORD PTR __Loc$5[ebp]

; 831  :         _Construct_in_place(this->_Ptr->_Left, _Myhead);

  001c0	89 30		 mov	 DWORD PTR [eax], esi

; 1042 :         return {_Scary->_Insert_node(_Loc._Location, _Inserted), true};

  001c2	8d 49 08	 lea	 ecx, DWORD PTR [ecx+8]

; 832  :         _Construct_in_place(this->_Ptr->_Parent, _Myhead);

  001c5	89 70 04	 mov	 DWORD PTR [eax+4], esi

; 833  :         _Construct_in_place(this->_Ptr->_Right, _Myhead);

  001c8	89 70 08	 mov	 DWORD PTR [eax+8], esi

; 834  :         this->_Ptr->_Color = _Red;

  001cb	66 c7 40 0c 00
	00		 mov	 WORD PTR [eax+12], 0

; 1042 :         return {_Scary->_Insert_node(_Loc._Location, _Inserted), true};

  001d1	e8 00 00 00 00	 call	 ?_Insert_node@?$_Tree_val@U?$_Tree_simple_types@U?$pair@$$CBKPAVCGuildHouseBase@@@std@@@std@@@std@@QAEPAU?$_Tree_node@U?$pair@$$CBKPAVCGuildHouseBase@@@std@@PAX@2@U?$_Tree_id@PAU?$_Tree_node@U?$pair@$$CBKPAVCGuildHouseBase@@@std@@PAX@std@@@2@QAU32@@Z ; std::_Tree_val<std::_Tree_simple_types<std::pair<unsigned long const ,CGuildHouseBase *> > >::_Insert_node
; File C:\IAGOS\server\v18\Source\Source\_Common\GuildHouse.cpp

; 1172 : 				pGuildHouse->SerializeAllInfo( ar );

  001d6	53		 push	 ebx
  001d7	8b cf		 mov	 ecx, edi
  001d9	e8 00 00 00 00	 call	 ?SerializeAllInfo@CGuildHouseBase@@QAEXAAVCAr@@@Z ; CGuildHouseBase::SerializeAllInfo
  001de	8b 75 ec	 mov	 esi, DWORD PTR _i$1$[ebp]
  001e1	e9 6c ff ff ff	 jmp	 $LN5@Serialize
$LN200@Serialize:
; File C:\Program Files\Microsoft Visual Studio\2022\Professional\VC\Tools\MSVC\14.44.35207\include\xtree

; 1649 :             _Throw_tree_length_error();

  001e6	e8 00 00 00 00	 call	 ?_Throw_tree_length_error@std@@YAXXZ ; std::_Throw_tree_length_error
$LN214@Serialize:
  001eb	cc		 int	 3
_TEXT	ENDS
;	COMDAT text$x
text$x	SEGMENT
__unwindfunclet$?Serialize@CGuildHouseMng@@QAEXAAVCAr@@@Z$0:
  00000	8d 4d 9c	 lea	 ecx, DWORD PTR _temp$3[ebp]
  00003	e9 00 00 00 00	 jmp	 ??1CGuildHouseSmall@@UAE@XZ ; CGuildHouseSmall::~CGuildHouseSmall
__unwindfunclet$?Serialize@CGuildHouseMng@@QAEXAAVCAr@@@Z$3:
  00008	8d 4d d4	 lea	 ecx, DWORD PTR $T6[ebp]
  0000b	e9 00 00 00 00	 jmp	 ??1?$_Alloc_construct_ptr@V?$allocator@U?$_Tree_node@U?$pair@$$CBKPAVCGuildHouseBase@@@std@@PAX@std@@@std@@@std@@QAE@XZ ; std::_Alloc_construct_ptr<std::allocator<std::_Tree_node<std::pair<unsigned long const ,CGuildHouseBase *>,void *> > >::~_Alloc_construct_ptr<std::allocator<std::_Tree_node<std::pair<unsigned long const ,CGuildHouseBase *>,void *> > >
  00010	cc		 int	 3
  00011	cc		 int	 3
  00012	cc		 int	 3
  00013	cc		 int	 3
  00014	cc		 int	 3
__ehhandler$?Serialize@CGuildHouseMng@@QAEXAAVCAr@@@Z:
  00015	90		 npad	 1
  00016	90		 npad	 1
  00017	8b 54 24 08	 mov	 edx, DWORD PTR [esp+8]
  0001b	8d 42 0c	 lea	 eax, DWORD PTR [edx+12]
  0001e	8b 4a 98	 mov	 ecx, DWORD PTR [edx-104]
  00021	33 c8		 xor	 ecx, eax
  00023	e8 00 00 00 00	 call	 @__security_check_cookie@4
  00028	b8 00 00 00 00	 mov	 eax, OFFSET __ehfuncinfo$?Serialize@CGuildHouseMng@@QAEXAAVCAr@@@Z
  0002d	e9 00 00 00 00	 jmp	 ___CxxFrameHandler3
text$x	ENDS
?Serialize@CGuildHouseMng@@QAEXAAVCAr@@@Z ENDP		; CGuildHouseMng::Serialize
; Function compile flags: /Ogtp
; File C:\IAGOS\server\v18\Source\Source\_Common\GuildHouse.cpp
; File C:\Program Files\Microsoft Visual Studio\2022\Professional\VC\Tools\MSVC\14.44.35207\include\xtree
; File C:\IAGOS\server\v18\Source\Source\_Common\GuildHouse.cpp
; File C:\Program Files\Microsoft Visual Studio\2022\Professional\VC\Tools\MSVC\14.44.35207\include\xtree
; File C:\Program Files\Microsoft Visual Studio\2022\Professional\VC\Tools\MSVC\14.44.35207\include\type_traits
; File C:\Program Files\Microsoft Visual Studio\2022\Professional\VC\Tools\MSVC\14.44.35207\include\xtree
; File C:\IAGOS\server\v18\Source\Source\_Common\GuildHouse.cpp
;	COMDAT ?GetGuildHouse@CGuildHouseMng@@QAEPAVCGuildHouseBase@@K@Z
_TEXT	SEGMENT
__Loc$1 = -12						; size = 12
_dwGuildId$ = 8						; size = 4
?GetGuildHouse@CGuildHouseMng@@QAEPAVCGuildHouseBase@@K@Z PROC ; CGuildHouseMng::GetGuildHouse, COMDAT
; _this$ = ecx

; 1133 : {

  00000	55		 push	 ebp
  00001	8b ec		 mov	 ebp, esp
  00003	83 ec 0c	 sub	 esp, 12			; 0000000cH
  00006	56		 push	 esi
; File C:\Program Files\Microsoft Visual Studio\2022\Professional\VC\Tools\MSVC\14.44.35207\include\xtree

; 1384 :         const _Tree_find_result<_Nodeptr> _Loc = _Find_lower_bound(_Keyval);

  00007	8d 45 08	 lea	 eax, DWORD PTR _dwGuildId$[ebp]
  0000a	50		 push	 eax
; File C:\IAGOS\server\v18\Source\Source\_Common\GuildHouse.cpp

; 1134 : 	MapGuildHouse::iterator it = m_mapGuildHouse.find( dwGuildId );

  0000b	8d 71 08	 lea	 esi, DWORD PTR [ecx+8]
; File C:\Program Files\Microsoft Visual Studio\2022\Professional\VC\Tools\MSVC\14.44.35207\include\xtree

; 1384 :         const _Tree_find_result<_Nodeptr> _Loc = _Find_lower_bound(_Keyval);

  0000e	8d 45 f4	 lea	 eax, DWORD PTR __Loc$1[ebp]
  00011	8b ce		 mov	 ecx, esi
  00013	50		 push	 eax
  00014	e8 00 00 00 00	 call	 ??$_Find_lower_bound@K@?$_Tree@V?$_Tmap_traits@KPAVCGuildHouseBase@@U?$less@K@std@@V?$allocator@U?$pair@$$CBKPAVCGuildHouseBase@@@std@@@3@$0A@@std@@@std@@IBE?AU?$_Tree_find_result@PAU?$_Tree_node@U?$pair@$$CBKPAVCGuildHouseBase@@@std@@PAX@std@@@1@ABK@Z ; std::_Tree<std::_Tmap_traits<unsigned long,CGuildHouseBase *,std::less<unsigned long>,std::allocator<std::pair<unsigned long const ,CGuildHouseBase *> >,0> >::_Find_lower_bound<unsigned long>

; 1624 :         return !_Bound->_Isnil && !_DEBUG_LT_PRED(_Getcomp(), _Keyval, _Traits::_Kfn(_Bound->_Myval));

  00019	8b 45 fc	 mov	 eax, DWORD PTR __Loc$1[ebp+8]
  0001c	80 78 0d 00	 cmp	 BYTE PTR [eax+13], 0
  00020	75 16		 jne	 SHORT $LN50@GetGuildHo
; File C:\Program Files\Microsoft Visual Studio\2022\Professional\VC\Tools\MSVC\14.44.35207\include\type_traits

; 2380 :         return _Left < _Right;

  00022	8b 4d 08	 mov	 ecx, DWORD PTR _dwGuildId$[ebp]
  00025	3b 48 10	 cmp	 ecx, DWORD PTR [eax+16]
; File C:\Program Files\Microsoft Visual Studio\2022\Professional\VC\Tools\MSVC\14.44.35207\include\xtree

; 1624 :         return !_Bound->_Isnil && !_DEBUG_LT_PRED(_Getcomp(), _Keyval, _Traits::_Kfn(_Bound->_Myval));

  00028	72 0e		 jb	 SHORT $LN50@GetGuildHo

; 37   :     _Tree_unchecked_const_iterator(_Nodeptr _Pnode, const _Mytree* _Plist) noexcept : _Ptr(_Pnode) {

  0002a	3b 06		 cmp	 eax, DWORD PTR [esi]
; File C:\IAGOS\server\v18\Source\Source\_Common\GuildHouse.cpp

; 1135 : 	if( it == m_mapGuildHouse.end() )

  0002c	74 0a		 je	 SHORT $LN50@GetGuildHo

; 1137 : 
; 1138 : 	return it->second;

  0002e	8b 40 14	 mov	 eax, DWORD PTR [eax+20]
  00031	5e		 pop	 esi

; 1139 : }

  00032	8b e5		 mov	 esp, ebp
  00034	5d		 pop	 ebp
  00035	c2 04 00	 ret	 4
$LN50@GetGuildHo:

; 1136 : 		return NULL;

  00038	33 c0		 xor	 eax, eax
  0003a	5e		 pop	 esi

; 1139 : }

  0003b	8b e5		 mov	 esp, ebp
  0003d	5d		 pop	 ebp
  0003e	c2 04 00	 ret	 4
?GetGuildHouse@CGuildHouseMng@@QAEPAVCGuildHouseBase@@K@Z ENDP ; CGuildHouseMng::GetGuildHouse
_TEXT	ENDS
; Function compile flags: /Ogtp
; File C:\IAGOS\server\v18\Source\Source\_Common\GuildHouse.cpp
; File C:\Program Files\Microsoft Visual Studio\2022\Professional\VC\Tools\MSVC\14.44.35207\include\xtree
; File C:\IAGOS\server\v18\Source\Source\_Common\GuildHouse.cpp
; File C:\Program Files\Microsoft Visual Studio\2022\Professional\VC\Tools\MSVC\14.44.35207\include\xtree
; File C:\Program Files\Microsoft Visual Studio\2022\Professional\VC\Tools\MSVC\14.44.35207\include\type_traits
; File C:\Program Files\Microsoft Visual Studio\2022\Professional\VC\Tools\MSVC\14.44.35207\include\xtree
; File C:\IAGOS\server\v18\Source\Source\_Common\GuildHouse.cpp
; File C:\Program Files\Microsoft Visual Studio\2022\Professional\VC\Tools\MSVC\14.44.35207\include\xtree
; File C:\Program Files\Microsoft Visual Studio\2022\Professional\VC\Tools\MSVC\14.44.35207\include\xmemory
; File C:\IAGOS\server\v18\Source\Source\_Common\GuildHouse.cpp
;	COMDAT ?RemoveGuildHouse@CGuildHouseMng@@QAEHK@Z
_TEXT	SEGMENT
__Loc$1 = -12						; size = 12
_dwGuildId$ = 8						; size = 4
?RemoveGuildHouse@CGuildHouseMng@@QAEHK@Z PROC		; CGuildHouseMng::RemoveGuildHouse, COMDAT
; _this$ = ecx

; 1122 : {

  00000	55		 push	 ebp
  00001	8b ec		 mov	 ebp, esp
  00003	83 ec 0c	 sub	 esp, 12			; 0000000cH
  00006	56		 push	 esi
  00007	57		 push	 edi
; File C:\Program Files\Microsoft Visual Studio\2022\Professional\VC\Tools\MSVC\14.44.35207\include\xtree

; 1384 :         const _Tree_find_result<_Nodeptr> _Loc = _Find_lower_bound(_Keyval);

  00008	8d 45 08	 lea	 eax, DWORD PTR _dwGuildId$[ebp]
  0000b	50		 push	 eax
; File C:\IAGOS\server\v18\Source\Source\_Common\GuildHouse.cpp

; 1123 : 	MapGuildHouse::iterator it = m_mapGuildHouse.find( dwGuildId );

  0000c	8d 79 08	 lea	 edi, DWORD PTR [ecx+8]
; File C:\Program Files\Microsoft Visual Studio\2022\Professional\VC\Tools\MSVC\14.44.35207\include\xtree

; 1384 :         const _Tree_find_result<_Nodeptr> _Loc = _Find_lower_bound(_Keyval);

  0000f	8d 45 f4	 lea	 eax, DWORD PTR __Loc$1[ebp]
  00012	8b cf		 mov	 ecx, edi
  00014	50		 push	 eax
  00015	e8 00 00 00 00	 call	 ??$_Find_lower_bound@K@?$_Tree@V?$_Tmap_traits@KPAVCGuildHouseBase@@U?$less@K@std@@V?$allocator@U?$pair@$$CBKPAVCGuildHouseBase@@@std@@@3@$0A@@std@@@std@@IBE?AU?$_Tree_find_result@PAU?$_Tree_node@U?$pair@$$CBKPAVCGuildHouseBase@@@std@@PAX@std@@@1@ABK@Z ; std::_Tree<std::_Tmap_traits<unsigned long,CGuildHouseBase *,std::less<unsigned long>,std::allocator<std::pair<unsigned long const ,CGuildHouseBase *> >,0> >::_Find_lower_bound<unsigned long>

; 1624 :         return !_Bound->_Isnil && !_DEBUG_LT_PRED(_Getcomp(), _Keyval, _Traits::_Kfn(_Bound->_Myval));

  0001a	8b 75 fc	 mov	 esi, DWORD PTR __Loc$1[ebp+8]
  0001d	80 7e 0d 00	 cmp	 BYTE PTR [esi+13], 0
  00021	75 40		 jne	 SHORT $LN119@RemoveGuil
; File C:\Program Files\Microsoft Visual Studio\2022\Professional\VC\Tools\MSVC\14.44.35207\include\type_traits

; 2380 :         return _Left < _Right;

  00023	8b 45 08	 mov	 eax, DWORD PTR _dwGuildId$[ebp]
  00026	3b 46 10	 cmp	 eax, DWORD PTR [esi+16]
; File C:\Program Files\Microsoft Visual Studio\2022\Professional\VC\Tools\MSVC\14.44.35207\include\xtree

; 1624 :         return !_Bound->_Isnil && !_DEBUG_LT_PRED(_Getcomp(), _Keyval, _Traits::_Kfn(_Bound->_Myval));

  00029	72 38		 jb	 SHORT $LN119@RemoveGuil

; 37   :     _Tree_unchecked_const_iterator(_Nodeptr _Pnode, const _Mytree* _Plist) noexcept : _Ptr(_Pnode) {

  0002b	3b 37		 cmp	 esi, DWORD PTR [edi]
; File C:\IAGOS\server\v18\Source\Source\_Common\GuildHouse.cpp

; 1124 : 	if( it == m_mapGuildHouse.end() )

  0002d	74 34		 je	 SHORT $LN119@RemoveGuil

; 1126 : 	
; 1127 : 	SAFE_DELETE( it->second );

  0002f	8b 4e 14	 mov	 ecx, DWORD PTR [esi+20]
  00032	85 c9		 test	 ecx, ecx
  00034	74 0d		 je	 SHORT $LN3@RemoveGuil
  00036	8b 01		 mov	 eax, DWORD PTR [ecx]
  00038	6a 01		 push	 1
  0003a	ff 10		 call	 DWORD PTR [eax]
  0003c	c7 46 14 00 00
	00 00		 mov	 DWORD PTR [esi+20], 0
$LN3@RemoveGuil:
; File C:\Program Files\Microsoft Visual Studio\2022\Professional\VC\Tools\MSVC\14.44.35207\include\xtree

; 1303 :         _Nodeptr _Erasednode = _Scary->_Extract(_Where); // node to erase

  00043	56		 push	 esi
  00044	8b cf		 mov	 ecx, edi
  00046	e8 00 00 00 00	 call	 ?_Extract@?$_Tree_val@U?$_Tree_simple_types@U?$pair@$$CBKPAVCGuildHouseBase@@@std@@@std@@@std@@QAEPAU?$_Tree_node@U?$pair@$$CBKPAVCGuildHouseBase@@@std@@PAX@2@V?$_Tree_unchecked_const_iterator@V?$_Tree_val@U?$_Tree_simple_types@U?$pair@$$CBKPAVCGuildHouseBase@@@std@@@std@@@std@@U_Iterator_base0@2@@2@@Z ; std::_Tree_val<std::_Tree_simple_types<std::pair<unsigned long const ,CGuildHouseBase *> > >::_Extract
; File C:\Program Files\Microsoft Visual Studio\2022\Professional\VC\Tools\MSVC\14.44.35207\include\xmemory

; 289  :         ::operator delete(_Ptr, _Bytes);

  0004b	6a 18		 push	 24			; 00000018H
  0004d	50		 push	 eax
  0004e	e8 00 00 00 00	 call	 ??3@YAXPAXI@Z		; operator delete
  00053	83 c4 08	 add	 esp, 8
; File C:\IAGOS\server\v18\Source\Source\_Common\GuildHouse.cpp

; 1129 : 	return TRUE;

  00056	b8 01 00 00 00	 mov	 eax, 1
  0005b	5f		 pop	 edi

; 1130 : }

  0005c	5e		 pop	 esi
  0005d	8b e5		 mov	 esp, ebp
  0005f	5d		 pop	 ebp
  00060	c2 04 00	 ret	 4
$LN119@RemoveGuil:
  00063	5f		 pop	 edi

; 1125 : 		return FALSE;

  00064	33 c0		 xor	 eax, eax

; 1130 : }

  00066	5e		 pop	 esi
  00067	8b e5		 mov	 esp, ebp
  00069	5d		 pop	 ebp
  0006a	c2 04 00	 ret	 4
?RemoveGuildHouse@CGuildHouseMng@@QAEHK@Z ENDP		; CGuildHouseMng::RemoveGuildHouse
_TEXT	ENDS
; Function compile flags: /Ogtp
; File C:\IAGOS\server\v18\Source\Source\_Common\GuildHouse.h
; File C:\Program Files\Microsoft Visual Studio\2022\Professional\VC\Tools\MSVC\14.44.35207\include\utility
; File C:\IAGOS\server\v18\Source\Source\_Common\GuildHouse.h
; File C:\Program Files\Microsoft Visual Studio\2022\Professional\VC\Tools\MSVC\14.44.35207\include\utility
; File C:\Program Files\Microsoft Visual Studio\2022\Professional\VC\Tools\MSVC\14.44.35207\include\xtree
; File C:\Program Files\Microsoft Visual Studio\2022\Professional\VC\Tools\MSVC\14.44.35207\include\utility
; File C:\Program Files\Microsoft Visual Studio\2022\Professional\VC\Tools\MSVC\14.44.35207\include\xtree
; File C:\Program Files\Microsoft Visual Studio\2022\Professional\VC\Tools\MSVC\14.44.35207\include\utility
; File C:\Program Files\Microsoft Visual Studio\2022\Professional\VC\Tools\MSVC\14.44.35207\include\xtree
; File C:\Program Files\Microsoft Visual Studio\2022\Professional\VC\Tools\MSVC\14.44.35207\include\type_traits
; File C:\Program Files\Microsoft Visual Studio\2022\Professional\VC\Tools\MSVC\14.44.35207\include\xtree
; File C:\Program Files\Microsoft Visual Studio\2022\Professional\VC\Tools\MSVC\14.44.35207\include\utility
; File C:\IAGOS\server\v18\Source\Source\_Common\GuildHouse.h
; File C:\Program Files\Microsoft Visual Studio\2022\Professional\VC\Tools\MSVC\14.44.35207\include\xtree
; File C:\Program Files\Microsoft Visual Studio\2022\Professional\VC\Tools\MSVC\14.44.35207\include\xmemory
; File C:\Program Files\Microsoft Visual Studio\2022\Professional\VC\Tools\MSVC\14.44.35207\include\xtree
; File C:\Program Files\Microsoft Visual Studio\2022\Professional\VC\Tools\MSVC\14.44.35207\include\xmemory
; File C:\Program Files\Microsoft Visual Studio\2022\Professional\VC\Tools\MSVC\14.44.35207\include\utility
; File C:\Program Files\Microsoft Visual Studio\2022\Professional\VC\Tools\MSVC\14.44.35207\include\xmemory
; File C:\Program Files\Microsoft Visual Studio\2022\Professional\VC\Tools\MSVC\14.44.35207\include\utility
; File C:\Program Files\Microsoft Visual Studio\2022\Professional\VC\Tools\MSVC\14.44.35207\include\xtree
; File C:\Program Files\Microsoft Visual Studio\2022\Professional\VC\Tools\MSVC\14.44.35207\include\utility
; File C:\Program Files\Microsoft Visual Studio\2022\Professional\VC\Tools\MSVC\14.44.35207\include\xtree
; File C:\Program Files\Microsoft Visual Studio\2022\Professional\VC\Tools\MSVC\14.44.35207\include\utility
; File C:\IAGOS\server\v18\Source\Source\_Common\GuildHouse.h
; File C:\Program Files\Microsoft Visual Studio\2022\Professional\VC\Tools\MSVC\14.44.35207\include\xtree
; File C:\IAGOS\server\v18\Source\Source\_Common\GuildHouse.h
;	COMDAT ?AddGuildHouse@CGuildHouseMng@@QAEHKPAVCGuildHouseBase@@@Z
_TEXT	SEGMENT
$T3 = -44						; size = 12
__Loc$4 = -32						; size = 12
$T5 = -20						; size = 8
$T6 = -20						; size = 8
__$EHRec$ = -12						; size = 12
_dwGuildId$ = 8						; size = 4
_pGuildHouse$ = 12					; size = 4
?AddGuildHouse@CGuildHouseMng@@QAEHKPAVCGuildHouseBase@@@Z PROC ; CGuildHouseMng::AddGuildHouse, COMDAT
; _this$ = ecx

; 300  : 	BOOL				AddGuildHouse( DWORD dwGuildId, CGuildHouseBase* pGuildHouse )	{ return m_mapGuildHouse.insert( make_pair( dwGuildId, pGuildHouse ) ).second; }

  00000	55		 push	 ebp
  00001	8b ec		 mov	 ebp, esp
  00003	6a ff		 push	 -1
  00005	68 00 00 00 00	 push	 __ehhandler$?AddGuildHouse@CGuildHouseMng@@QAEHKPAVCGuildHouseBase@@@Z
  0000a	64 a1 00 00 00
	00		 mov	 eax, DWORD PTR fs:0
  00010	50		 push	 eax
  00011	83 ec 20	 sub	 esp, 32			; 00000020H
  00014	53		 push	 ebx
  00015	56		 push	 esi
  00016	57		 push	 edi
  00017	a1 00 00 00 00	 mov	 eax, DWORD PTR ___security_cookie
  0001c	33 c5		 xor	 eax, ebp
  0001e	50		 push	 eax
  0001f	8d 45 f4	 lea	 eax, DWORD PTR __$EHRec$[ebp]
  00022	64 a3 00 00 00
	00		 mov	 DWORD PTR fs:0, eax
; File C:\Program Files\Microsoft Visual Studio\2022\Professional\VC\Tools\MSVC\14.44.35207\include\utility

; 274  :         : first(_STD forward<_Other1>(_Val1)), second(_STD forward<_Other2>(_Val2)) {

  00028	8b 45 0c	 mov	 eax, DWORD PTR _pGuildHouse$[ebp]
; File C:\IAGOS\server\v18\Source\Source\_Common\GuildHouse.h

; 300  : 	BOOL				AddGuildHouse( DWORD dwGuildId, CGuildHouseBase* pGuildHouse )	{ return m_mapGuildHouse.insert( make_pair( dwGuildId, pGuildHouse ) ).second; }

  0002b	8d 79 08	 lea	 edi, DWORD PTR [ecx+8]
; File C:\Program Files\Microsoft Visual Studio\2022\Professional\VC\Tools\MSVC\14.44.35207\include\utility

; 274  :         : first(_STD forward<_Other1>(_Val1)), second(_STD forward<_Other2>(_Val2)) {

  0002e	8b 5d 08	 mov	 ebx, DWORD PTR _dwGuildId$[ebp]
; File C:\Program Files\Microsoft Visual Studio\2022\Professional\VC\Tools\MSVC\14.44.35207\include\xtree

; 1017 :             _Loc                = _Find_lower_bound(_Keyval);

  00031	8b cf		 mov	 ecx, edi
; File C:\Program Files\Microsoft Visual Studio\2022\Professional\VC\Tools\MSVC\14.44.35207\include\utility

; 274  :         : first(_STD forward<_Other1>(_Val1)), second(_STD forward<_Other2>(_Val2)) {

  00033	89 45 f0	 mov	 DWORD PTR $T5[ebp+4], eax
; File C:\Program Files\Microsoft Visual Studio\2022\Professional\VC\Tools\MSVC\14.44.35207\include\xtree

; 1017 :             _Loc                = _Find_lower_bound(_Keyval);

  00036	8d 45 ec	 lea	 eax, DWORD PTR $T5[ebp]
  00039	50		 push	 eax
  0003a	8d 45 d4	 lea	 eax, DWORD PTR $T3[ebp]
; File C:\Program Files\Microsoft Visual Studio\2022\Professional\VC\Tools\MSVC\14.44.35207\include\utility

; 274  :         : first(_STD forward<_Other1>(_Val1)), second(_STD forward<_Other2>(_Val2)) {

  0003d	89 5d ec	 mov	 DWORD PTR $T5[ebp], ebx
; File C:\Program Files\Microsoft Visual Studio\2022\Professional\VC\Tools\MSVC\14.44.35207\include\xtree

; 1017 :             _Loc                = _Find_lower_bound(_Keyval);

  00040	50		 push	 eax
  00041	e8 00 00 00 00	 call	 ??$_Find_lower_bound@K@?$_Tree@V?$_Tmap_traits@KPAVCGuildHouseBase@@U?$less@K@std@@V?$allocator@U?$pair@$$CBKPAVCGuildHouseBase@@@std@@@3@$0A@@std@@@std@@IBE?AU?$_Tree_find_result@PAU?$_Tree_node@U?$pair@$$CBKPAVCGuildHouseBase@@@std@@PAX@std@@@1@ABK@Z ; std::_Tree<std::_Tmap_traits<unsigned long,CGuildHouseBase *,std::less<unsigned long>,std::allocator<std::pair<unsigned long const ,CGuildHouseBase *> >,0> >::_Find_lower_bound<unsigned long>
  00046	f3 0f 7e 00	 movq	 xmm0, QWORD PTR [eax]
  0004a	8b 40 08	 mov	 eax, DWORD PTR [eax+8]
  0004d	66 0f d6 45 e0	 movq	 QWORD PTR __Loc$4[ebp], xmm0

; 1624 :         return !_Bound->_Isnil && !_DEBUG_LT_PRED(_Getcomp(), _Keyval, _Traits::_Kfn(_Bound->_Myval));

  00052	80 78 0d 00	 cmp	 BYTE PTR [eax+13], 0
  00056	75 1b		 jne	 SHORT $LN14@AddGuildHo
; File C:\Program Files\Microsoft Visual Studio\2022\Professional\VC\Tools\MSVC\14.44.35207\include\type_traits

; 2380 :         return _Left < _Right;

  00058	3b 58 10	 cmp	 ebx, DWORD PTR [eax+16]
; File C:\Program Files\Microsoft Visual Studio\2022\Professional\VC\Tools\MSVC\14.44.35207\include\xtree

; 1624 :         return !_Bound->_Isnil && !_DEBUG_LT_PRED(_Getcomp(), _Keyval, _Traits::_Kfn(_Bound->_Myval));

  0005b	72 16		 jb	 SHORT $LN14@AddGuildHo
; File C:\Program Files\Microsoft Visual Studio\2022\Professional\VC\Tools\MSVC\14.44.35207\include\utility

; 274  :         : first(_STD forward<_Other1>(_Val1)), second(_STD forward<_Other2>(_Val2)) {

  0005d	33 c0		 xor	 eax, eax
; File C:\IAGOS\server\v18\Source\Source\_Common\GuildHouse.h

; 300  : 	BOOL				AddGuildHouse( DWORD dwGuildId, CGuildHouseBase* pGuildHouse )	{ return m_mapGuildHouse.insert( make_pair( dwGuildId, pGuildHouse ) ).second; }

  0005f	8b 4d f4	 mov	 ecx, DWORD PTR __$EHRec$[ebp]
  00062	64 89 0d 00 00
	00 00		 mov	 DWORD PTR fs:0, ecx
  00069	59		 pop	 ecx
  0006a	5f		 pop	 edi
  0006b	5e		 pop	 esi
  0006c	5b		 pop	 ebx
  0006d	8b e5		 mov	 esp, ebp
  0006f	5d		 pop	 ebp
  00070	c2 08 00	 ret	 8
$LN14@AddGuildHo:
; File C:\Program Files\Microsoft Visual Studio\2022\Professional\VC\Tools\MSVC\14.44.35207\include\xtree

; 1648 :         if (max_size() == _Get_scary()->_Mysize) {

  00073	81 7f 04 aa aa
	aa 0a		 cmp	 DWORD PTR [edi+4], 178956970 ; 0aaaaaaaH
  0007a	74 5b		 je	 SHORT $LN120@AddGuildHo

; 1023 :             _Inserted = _Tree_temp_node<_Alnode>(_Getal(), _Scary->_Myhead, _STD forward<_Valtys>(_Vals)...)._Release();

  0007c	8b 37		 mov	 esi, DWORD PTR [edi]
; File C:\Program Files\Microsoft Visual Studio\2022\Professional\VC\Tools\MSVC\14.44.35207\include\xmemory

; 1160 :     _CONSTEXPR20 explicit _Alloc_construct_ptr(_Alloc& _Al_) : _Al(_Al_), _Ptr(nullptr) {}

  0007e	89 7d ec	 mov	 DWORD PTR $T6[ebp], edi

; 136  :         return ::operator new(_Bytes);

  00081	6a 18		 push	 24			; 00000018H
; File C:\Program Files\Microsoft Visual Studio\2022\Professional\VC\Tools\MSVC\14.44.35207\include\xtree

; 808  :     explicit _Tree_temp_node_alloc(_Alnode& _Al_) : _Alloc_construct_ptr<_Alnode>(_Al_) {

  00083	c7 45 fc 00 00
	00 00		 mov	 DWORD PTR __$EHRec$[ebp+8], 0
; File C:\Program Files\Microsoft Visual Studio\2022\Professional\VC\Tools\MSVC\14.44.35207\include\xmemory

; 1167 :         _Ptr = nullptr; // if allocate throws, prevents double-free

  0008a	c7 45 f0 00 00
	00 00		 mov	 DWORD PTR $T6[ebp+4], 0

; 136  :         return ::operator new(_Bytes);

  00091	e8 00 00 00 00	 call	 ??2@YAPAXI@Z		; operator new
; File C:\Program Files\Microsoft Visual Studio\2022\Professional\VC\Tools\MSVC\14.44.35207\include\utility

; 303  :         : first(_STD forward<_Other1>(_Right.first)), second(_STD forward<_Other2>(_Right.second)) {}

  00096	8b 4d 0c	 mov	 ecx, DWORD PTR _pGuildHouse$[ebp]
; File C:\Program Files\Microsoft Visual Studio\2022\Professional\VC\Tools\MSVC\14.44.35207\include\xmemory

; 136  :         return ::operator new(_Bytes);

  00099	83 c4 04	 add	 esp, 4
; File C:\Program Files\Microsoft Visual Studio\2022\Professional\VC\Tools\MSVC\14.44.35207\include\utility

; 303  :         : first(_STD forward<_Other1>(_Right.first)), second(_STD forward<_Other2>(_Right.second)) {}

  0009c	89 48 14	 mov	 DWORD PTR [eax+20], ecx
; File C:\Program Files\Microsoft Visual Studio\2022\Professional\VC\Tools\MSVC\14.44.35207\include\xtree

; 1042 :         return {_Scary->_Insert_node(_Loc._Location, _Inserted), true};

  0009f	8b cf		 mov	 ecx, edi
  000a1	50		 push	 eax
  000a2	ff 75 e4	 push	 DWORD PTR __Loc$4[ebp+4]
; File C:\Program Files\Microsoft Visual Studio\2022\Professional\VC\Tools\MSVC\14.44.35207\include\utility

; 303  :         : first(_STD forward<_Other1>(_Right.first)), second(_STD forward<_Other2>(_Right.second)) {}

  000a5	89 58 10	 mov	 DWORD PTR [eax+16], ebx
; File C:\Program Files\Microsoft Visual Studio\2022\Professional\VC\Tools\MSVC\14.44.35207\include\xtree

; 1042 :         return {_Scary->_Insert_node(_Loc._Location, _Inserted), true};

  000a8	ff 75 e0	 push	 DWORD PTR __Loc$4[ebp]

; 831  :         _Construct_in_place(this->_Ptr->_Left, _Myhead);

  000ab	89 30		 mov	 DWORD PTR [eax], esi

; 832  :         _Construct_in_place(this->_Ptr->_Parent, _Myhead);

  000ad	89 70 04	 mov	 DWORD PTR [eax+4], esi

; 833  :         _Construct_in_place(this->_Ptr->_Right, _Myhead);

  000b0	89 70 08	 mov	 DWORD PTR [eax+8], esi

; 834  :         this->_Ptr->_Color = _Red;

  000b3	66 c7 40 0c 00
	00		 mov	 WORD PTR [eax+12], 0

; 1042 :         return {_Scary->_Insert_node(_Loc._Location, _Inserted), true};

  000b9	e8 00 00 00 00	 call	 ?_Insert_node@?$_Tree_val@U?$_Tree_simple_types@U?$pair@$$CBKPAVCGuildHouseBase@@@std@@@std@@@std@@QAEPAU?$_Tree_node@U?$pair@$$CBKPAVCGuildHouseBase@@@std@@PAX@2@U?$_Tree_id@PAU?$_Tree_node@U?$pair@$$CBKPAVCGuildHouseBase@@@std@@PAX@std@@@2@QAU32@@Z ; std::_Tree_val<std::_Tree_simple_types<std::pair<unsigned long const ,CGuildHouseBase *> > >::_Insert_node
; File C:\Program Files\Microsoft Visual Studio\2022\Professional\VC\Tools\MSVC\14.44.35207\include\utility

; 274  :         : first(_STD forward<_Other1>(_Val1)), second(_STD forward<_Other2>(_Val2)) {

  000be	b8 01 00 00 00	 mov	 eax, 1
; File C:\IAGOS\server\v18\Source\Source\_Common\GuildHouse.h

; 300  : 	BOOL				AddGuildHouse( DWORD dwGuildId, CGuildHouseBase* pGuildHouse )	{ return m_mapGuildHouse.insert( make_pair( dwGuildId, pGuildHouse ) ).second; }

  000c3	8b 4d f4	 mov	 ecx, DWORD PTR __$EHRec$[ebp]
  000c6	64 89 0d 00 00
	00 00		 mov	 DWORD PTR fs:0, ecx
  000cd	59		 pop	 ecx
  000ce	5f		 pop	 edi
  000cf	5e		 pop	 esi
  000d0	5b		 pop	 ebx
  000d1	8b e5		 mov	 esp, ebp
  000d3	5d		 pop	 ebp
  000d4	c2 08 00	 ret	 8
$LN120@AddGuildHo:
; File C:\Program Files\Microsoft Visual Studio\2022\Professional\VC\Tools\MSVC\14.44.35207\include\xtree

; 1649 :             _Throw_tree_length_error();

  000d7	e8 00 00 00 00	 call	 ?_Throw_tree_length_error@std@@YAXXZ ; std::_Throw_tree_length_error
$LN118@AddGuildHo:
  000dc	cc		 int	 3
_TEXT	ENDS
;	COMDAT text$x
text$x	SEGMENT
__unwindfunclet$?AddGuildHouse@CGuildHouseMng@@QAEHKPAVCGuildHouseBase@@@Z$2:
  00000	8d 4d ec	 lea	 ecx, DWORD PTR $T6[ebp]
  00003	e9 00 00 00 00	 jmp	 ??1?$_Alloc_construct_ptr@V?$allocator@U?$_Tree_node@U?$pair@$$CBKPAVCGuildHouseBase@@@std@@PAX@std@@@std@@@std@@QAE@XZ ; std::_Alloc_construct_ptr<std::allocator<std::_Tree_node<std::pair<unsigned long const ,CGuildHouseBase *>,void *> > >::~_Alloc_construct_ptr<std::allocator<std::_Tree_node<std::pair<unsigned long const ,CGuildHouseBase *>,void *> > >
  00008	cc		 int	 3
  00009	cc		 int	 3
  0000a	cc		 int	 3
  0000b	cc		 int	 3
  0000c	cc		 int	 3
__ehhandler$?AddGuildHouse@CGuildHouseMng@@QAEHKPAVCGuildHouseBase@@@Z:
  0000d	90		 npad	 1
  0000e	90		 npad	 1
  0000f	8b 54 24 08	 mov	 edx, DWORD PTR [esp+8]
  00013	8d 42 0c	 lea	 eax, DWORD PTR [edx+12]
  00016	8b 4a d0	 mov	 ecx, DWORD PTR [edx-48]
  00019	33 c8		 xor	 ecx, eax
  0001b	e8 00 00 00 00	 call	 @__security_check_cookie@4
  00020	b8 00 00 00 00	 mov	 eax, OFFSET __ehfuncinfo$?AddGuildHouse@CGuildHouseMng@@QAEHKPAVCGuildHouseBase@@@Z
  00025	e9 00 00 00 00	 jmp	 ___CxxFrameHandler3
text$x	ENDS
?AddGuildHouse@CGuildHouseMng@@QAEHKPAVCGuildHouseBase@@@Z ENDP ; CGuildHouseMng::AddGuildHouse
; Function compile flags: /Ogtp
; File C:\IAGOS\server\v18\Source\Source\_Common\GuildHouse.cpp
;	COMDAT ?MakeGuildHouse@CGuildHouseMng@@QAEPAVCGuildHouseBase@@KK@Z
_TEXT	SEGMENT
_dwGuildId$ = 8						; size = 4
_dwWorldId$ = 12					; size = 4
$T1 = 12						; size = 4
$T2 = 12						; size = 4
?MakeGuildHouse@CGuildHouseMng@@QAEPAVCGuildHouseBase@@KK@Z PROC ; CGuildHouseMng::MakeGuildHouse, COMDAT
; _this$ = ecx

; 1110 : {

  00000	55		 push	 ebp
  00001	8b ec		 mov	 ebp, esp

; 1111 : 	switch( dwWorldId )

  00003	8b 45 0c	 mov	 eax, DWORD PTR _dwWorldId$[ebp]
  00006	2d d4 00 00 00	 sub	 eax, 212		; 000000d4H
  0000b	74 24		 je	 SHORT $LN4@MakeGuildH
  0000d	83 e8 01	 sub	 eax, 1
  00010	75 3e		 jne	 SHORT $LN7@MakeGuildH

; 1114 : 		case WI_GUILDHOUSE_MIDDLE:	return new CGuildHouseMiddle( dwGuildId );

  00012	6a 20		 push	 32			; 00000020H
  00014	e8 00 00 00 00	 call	 ??2@YAPAXI@Z		; operator new
  00019	83 c4 04	 add	 esp, 4
  0001c	89 45 0c	 mov	 DWORD PTR $T2[ebp], eax
  0001f	85 c0		 test	 eax, eax
  00021	74 2d		 je	 SHORT $LN7@MakeGuildH
  00023	ff 75 08	 push	 DWORD PTR _dwGuildId$[ebp]
  00026	8b c8		 mov	 ecx, eax
  00028	e8 00 00 00 00	 call	 ??0CGuildHouseMiddle@@QAE@K@Z ; CGuildHouseMiddle::CGuildHouseMiddle

; 1115 : //		case WI_GUILDHOUSE_LARGE:	return new CGuildHouseLarge( dwGuildId );	// 15Â÷ ÇöŔç - ľĆÁ÷ ÇĘżäÇĎÁö ľĘ´Ů.
; 1116 : 	}
; 1117 : 
; 1118 : 	return NULL;
; 1119 : }

  0002d	5d		 pop	 ebp
  0002e	c2 08 00	 ret	 8
$LN4@MakeGuildH:

; 1112 : 	{
; 1113 : 		case WI_GUILDHOUSE_SMALL:	return new CGuildHouseSmall( dwGuildId );

  00031	6a 20		 push	 32			; 00000020H
  00033	e8 00 00 00 00	 call	 ??2@YAPAXI@Z		; operator new
  00038	83 c4 04	 add	 esp, 4
  0003b	89 45 0c	 mov	 DWORD PTR $T1[ebp], eax
  0003e	85 c0		 test	 eax, eax
  00040	74 0e		 je	 SHORT $LN7@MakeGuildH
  00042	ff 75 08	 push	 DWORD PTR _dwGuildId$[ebp]
  00045	8b c8		 mov	 ecx, eax
  00047	e8 00 00 00 00	 call	 ??0CGuildHouseSmall@@QAE@K@Z ; CGuildHouseSmall::CGuildHouseSmall

; 1115 : //		case WI_GUILDHOUSE_LARGE:	return new CGuildHouseLarge( dwGuildId );	// 15Â÷ ÇöŔç - ľĆÁ÷ ÇĘżäÇĎÁö ľĘ´Ů.
; 1116 : 	}
; 1117 : 
; 1118 : 	return NULL;
; 1119 : }

  0004c	5d		 pop	 ebp
  0004d	c2 08 00	 ret	 8
$LN7@MakeGuildH:
  00050	33 c0		 xor	 eax, eax
  00052	5d		 pop	 ebp
  00053	c2 08 00	 ret	 8
?MakeGuildHouse@CGuildHouseMng@@QAEPAVCGuildHouseBase@@KK@Z ENDP ; CGuildHouseMng::MakeGuildHouse
_TEXT	ENDS
; Function compile flags: /Ogtp
; File C:\IAGOS\server\v18\Source\Source\_Common\GuildHouse.cpp
;	COMDAT ?GetInstance@CGuildHouseMng@@SAPAV1@XZ
_TEXT	SEGMENT
__$EHRec$ = -12						; size = 12
?GetInstance@CGuildHouseMng@@SAPAV1@XZ PROC		; CGuildHouseMng::GetInstance, COMDAT

; 1104 : {

  00000	55		 push	 ebp
  00001	8b ec		 mov	 ebp, esp
  00003	6a ff		 push	 -1
  00005	68 00 00 00 00	 push	 __ehhandler$?GetInstance@CGuildHouseMng@@SAPAV1@XZ
  0000a	64 a1 00 00 00
	00		 mov	 eax, DWORD PTR fs:0
  00010	50		 push	 eax
  00011	a1 00 00 00 00	 mov	 eax, DWORD PTR ___security_cookie
  00016	33 c5		 xor	 eax, ebp
  00018	50		 push	 eax
  00019	8d 45 f4	 lea	 eax, DWORD PTR __$EHRec$[ebp]
  0001c	64 a3 00 00 00
	00		 mov	 DWORD PTR fs:0, eax

; 1105 : 	static CGuildHouseMng sGHM;

  00022	64 a1 00 00 00
	00		 mov	 eax, DWORD PTR fs:__tls_array
  00028	8b 0d 00 00 00
	00		 mov	 ecx, DWORD PTR __tls_index
  0002e	8b 0c 88	 mov	 ecx, DWORD PTR [eax+ecx*4]
  00031	a1 00 00 00 00	 mov	 eax, DWORD PTR ?$TSS0@?1??GetInstance@CGuildHouseMng@@SAPAV2@XZ@4HA
  00036	3b 81 00 00 00
	00		 cmp	 eax, DWORD PTR __Init_thread_epoch[ecx]
  0003c	7f 14		 jg	 SHORT $LN9@GetInstanc
$LN5@GetInstanc:

; 1106 : 	return & sGHM;
; 1107 : }

  0003e	b8 00 00 00 00	 mov	 eax, OFFSET ?sGHM@?1??GetInstance@CGuildHouseMng@@SAPAV2@XZ@4V2@A
  00043	8b 4d f4	 mov	 ecx, DWORD PTR __$EHRec$[ebp]
  00046	64 89 0d 00 00
	00 00		 mov	 DWORD PTR fs:0, ecx
  0004d	59		 pop	 ecx
  0004e	8b e5		 mov	 esp, ebp
  00050	5d		 pop	 ebp
  00051	c3		 ret	 0
$LN9@GetInstanc:

; 1105 : 	static CGuildHouseMng sGHM;

  00052	68 00 00 00 00	 push	 OFFSET ?$TSS0@?1??GetInstance@CGuildHouseMng@@SAPAV2@XZ@4HA
  00057	e8 00 00 00 00	 call	 __Init_thread_header
  0005c	83 c4 04	 add	 esp, 4
  0005f	83 3d 00 00 00
	00 ff		 cmp	 DWORD PTR ?$TSS0@?1??GetInstance@CGuildHouseMng@@SAPAV2@XZ@4HA, -1
  00066	75 d6		 jne	 SHORT $LN5@GetInstanc
  00068	b9 00 00 00 00	 mov	 ecx, OFFSET ?sGHM@?1??GetInstance@CGuildHouseMng@@SAPAV2@XZ@4V2@A
  0006d	c7 45 fc 00 00
	00 00		 mov	 DWORD PTR __$EHRec$[ebp+8], 0
  00074	e8 00 00 00 00	 call	 ??0CGuildHouseMng@@QAE@XZ ; CGuildHouseMng::CGuildHouseMng
  00079	68 00 00 00 00	 push	 OFFSET ??__FsGHM@?1??GetInstance@CGuildHouseMng@@SAPAV1@XZ@YAXXZ ; `CGuildHouseMng::GetInstance'::`2'::`dynamic atexit destructor for 'sGHM''
  0007e	e8 00 00 00 00	 call	 _atexit
  00083	68 00 00 00 00	 push	 OFFSET ?$TSS0@?1??GetInstance@CGuildHouseMng@@SAPAV2@XZ@4HA
  00088	e8 00 00 00 00	 call	 __Init_thread_footer
  0008d	83 c4 08	 add	 esp, 8
  00090	eb ac		 jmp	 SHORT $LN5@GetInstanc
_TEXT	ENDS
;	COMDAT text$x
text$x	SEGMENT
__unwindfunclet$?GetInstance@CGuildHouseMng@@SAPAV1@XZ$0:
  00000	68 00 00 00 00	 push	 OFFSET ?$TSS0@?1??GetInstance@CGuildHouseMng@@SAPAV2@XZ@4HA
  00005	e8 00 00 00 00	 call	 __Init_thread_abort
  0000a	59		 pop	 ecx
  0000b	c3		 ret	 0
  0000c	cc		 int	 3
  0000d	cc		 int	 3
  0000e	cc		 int	 3
  0000f	cc		 int	 3
  00010	cc		 int	 3
__ehhandler$?GetInstance@CGuildHouseMng@@SAPAV1@XZ:
  00011	90		 npad	 1
  00012	90		 npad	 1
  00013	8b 54 24 08	 mov	 edx, DWORD PTR [esp+8]
  00017	8d 42 0c	 lea	 eax, DWORD PTR [edx+12]
  0001a	8b 4a fc	 mov	 ecx, DWORD PTR [edx-4]
  0001d	33 c8		 xor	 ecx, eax
  0001f	e8 00 00 00 00	 call	 @__security_check_cookie@4
  00024	b8 00 00 00 00	 mov	 eax, OFFSET __ehfuncinfo$?GetInstance@CGuildHouseMng@@SAPAV1@XZ
  00029	e9 00 00 00 00	 jmp	 ___CxxFrameHandler3
text$x	ENDS
?GetInstance@CGuildHouseMng@@SAPAV1@XZ ENDP		; CGuildHouseMng::GetInstance
; Function compile flags: /Ogtp
; File C:\IAGOS\server\v18\Source\Source\_Common\GuildHouse.cpp
; File C:\Program Files\Microsoft Visual Studio\2022\Professional\VC\Tools\MSVC\14.44.35207\include\xtree
; File C:\IAGOS\server\v18\Source\Source\_Common\GuildHouse.cpp
; File C:\Program Files\Microsoft Visual Studio\2022\Professional\VC\Tools\MSVC\14.44.35207\include\xtree
; File C:\IAGOS\server\v18\Source\Source\_Common\GuildHouse.cpp
;	COMDAT ??1CGuildHouseMng@@QAE@XZ
_TEXT	SEGMENT
_it$1 = -4						; size = 4
??1CGuildHouseMng@@QAE@XZ PROC				; CGuildHouseMng::~CGuildHouseMng, COMDAT
; _this$ = ecx

; 1092 : {

  00000	55		 push	 ebp
  00001	8b ec		 mov	 ebp, esp
  00003	51		 push	 ecx
  00004	56		 push	 esi
  00005	57		 push	 edi
  00006	8b f9		 mov	 edi, ecx
; File C:\Program Files\Microsoft Visual Studio\2022\Professional\VC\Tools\MSVC\14.44.35207\include\xtree

; 1142 :         return iterator(_Scary->_Myhead->_Left, _Scary);

  00008	8b 57 08	 mov	 edx, DWORD PTR [edi+8]

; 37   :     _Tree_unchecked_const_iterator(_Nodeptr _Pnode, const _Mytree* _Plist) noexcept : _Ptr(_Pnode) {

  0000b	8b 02		 mov	 eax, DWORD PTR [edx]
  0000d	89 45 fc	 mov	 DWORD PTR _it$1[ebp], eax

; 237  :         return !(*this == _Right);

  00010	3b c2		 cmp	 eax, edx
; File C:\IAGOS\server\v18\Source\Source\_Common\GuildHouse.cpp

; 1093 : 	for( MapGuildHouse::iterator it=m_mapGuildHouse.begin(); it!=m_mapGuildHouse.end(); it++ )

  00012	74 1d		 je	 SHORT $LN3@CGuildHous
$LL4@CGuildHous:

; 1094 : 		delete it->second;

  00014	8b 48 14	 mov	 ecx, DWORD PTR [eax+20]
  00017	85 c9		 test	 ecx, ecx
  00019	74 06		 je	 SHORT $LN2@CGuildHous
  0001b	8b 01		 mov	 eax, DWORD PTR [ecx]
  0001d	6a 01		 push	 1
  0001f	ff 10		 call	 DWORD PTR [eax]
$LN2@CGuildHous:
; File C:\Program Files\Microsoft Visual Studio\2022\Professional\VC\Tools\MSVC\14.44.35207\include\xtree

; 198  :         _Mybase::operator++();

  00021	8d 4d fc	 lea	 ecx, DWORD PTR _it$1[ebp]
  00024	e8 00 00 00 00	 call	 ??E?$_Tree_unchecked_const_iterator@V?$_Tree_val@U?$_Tree_simple_types@U?$pair@$$CBKPAVCGuildHouseBase@@@std@@@std@@@std@@U_Iterator_base0@2@@std@@QAEAAV01@XZ ; std::_Tree_unchecked_const_iterator<std::_Tree_val<std::_Tree_simple_types<std::pair<unsigned long const ,CGuildHouseBase *> > >,std::_Iterator_base0>::operator++

; 237  :         return !(*this == _Right);

  00029	8b 45 fc	 mov	 eax, DWORD PTR _it$1[ebp]
  0002c	3b 47 08	 cmp	 eax, DWORD PTR [edi+8]
; File C:\IAGOS\server\v18\Source\Source\_Common\GuildHouse.cpp

; 1093 : 	for( MapGuildHouse::iterator it=m_mapGuildHouse.begin(); it!=m_mapGuildHouse.end(); it++ )

  0002f	75 e3		 jne	 SHORT $LL4@CGuildHous
$LN3@CGuildHous:

; 1095 : 	m_mapGuildHouse.clear();

  00031	8d 4f 08	 lea	 ecx, DWORD PTR [edi+8]
  00034	e8 00 00 00 00	 call	 ?clear@?$_Tree@V?$_Tmap_traits@KPAVCGuildHouseBase@@U?$less@K@std@@V?$allocator@U?$pair@$$CBKPAVCGuildHouseBase@@@std@@@3@$0A@@std@@@std@@QAEXXZ ; std::_Tree<std::_Tmap_traits<unsigned long,CGuildHouseBase *,std::less<unsigned long>,std::allocator<std::pair<unsigned long const ,CGuildHouseBase *> >,0> >::clear
  00039	8d 4f 08	 lea	 ecx, DWORD PTR [edi+8]
  0003c	e8 00 00 00 00	 call	 ??1?$_Tree@V?$_Tmap_traits@KPAVCGuildHouseBase@@U?$less@K@std@@V?$allocator@U?$pair@$$CBKPAVCGuildHouseBase@@@std@@@3@$0A@@std@@@std@@QAE@XZ ; std::_Tree<std::_Tmap_traits<unsigned long,CGuildHouseBase *,std::less<unsigned long>,std::allocator<std::pair<unsigned long const ,CGuildHouseBase *> >,0> >::~_Tree<std::_Tmap_traits<unsigned long,CGuildHouseBase *,std::less<unsigned long>,std::allocator<std::pair<unsigned long const ,CGuildHouseBase *> >,0> >
  00041	8b cf		 mov	 ecx, edi
  00043	e8 00 00 00 00	 call	 ??1?$_Tree@V?$_Tmap_traits@HMU?$less@H@std@@V?$allocator@U?$pair@$$CBHM@std@@@2@$0A@@std@@@std@@QAE@XZ ; std::_Tree<std::_Tmap_traits<int,float,std::less<int>,std::allocator<std::pair<int const ,float> >,0> >::~_Tree<std::_Tmap_traits<int,float,std::less<int>,std::allocator<std::pair<int const ,float> >,0> >
  00048	5f		 pop	 edi
  00049	5e		 pop	 esi

; 1096 : #ifdef __GUILD_HOUSE_MIDDLE
; 1097 : 	m_mapTenderData.clear();
; 1098 : 	m_mapGHData.clear();
; 1099 : 	m_mapTenderGuild.clear();
; 1100 : #endif // __GUILD_HOUSE_MIDDLE
; 1101 : }

  0004a	8b e5		 mov	 esp, ebp
  0004c	5d		 pop	 ebp
  0004d	c3		 ret	 0
??1CGuildHouseMng@@QAE@XZ ENDP				; CGuildHouseMng::~CGuildHouseMng
_TEXT	ENDS
; Function compile flags: /Ogtp
; File C:\IAGOS\server\v18\Source\Source\_Common\GuildHouse.cpp
; File C:\Program Files\Microsoft Visual Studio\2022\Professional\VC\Tools\MSVC\14.44.35207\include\xmemory
; File C:\Program Files\Microsoft Visual Studio\2022\Professional\VC\Tools\MSVC\14.44.35207\include\xtree
; File C:\Program Files\Microsoft Visual Studio\2022\Professional\VC\Tools\MSVC\14.44.35207\include\xmemory
; File C:\Program Files\Microsoft Visual Studio\2022\Professional\VC\Tools\MSVC\14.44.35207\include\xtree
; File C:\IAGOS\server\v18\Source\Source\_Common\GuildHouse.cpp
; File C:\Program Files\Microsoft Visual Studio\2022\Professional\VC\Tools\MSVC\14.44.35207\include\xmemory
; File C:\IAGOS\server\v18\Source\Source\_Common\GuildHouse.cpp
; File C:\Program Files\Microsoft Visual Studio\2022\Professional\VC\Tools\MSVC\14.44.35207\include\xtree
; File C:\Program Files\Microsoft Visual Studio\2022\Professional\VC\Tools\MSVC\14.44.35207\include\xmemory
; File C:\Program Files\Microsoft Visual Studio\2022\Professional\VC\Tools\MSVC\14.44.35207\include\xtree
; File C:\IAGOS\server\v18\Source\Source\_Common\GuildHouse.cpp
;	COMDAT ??0CGuildHouseMng@@QAE@XZ
_TEXT	SEGMENT
_this$ = -20						; size = 4
_this$ = -16						; size = 4
__$EHRec$ = -12						; size = 12
??0CGuildHouseMng@@QAE@XZ PROC				; CGuildHouseMng::CGuildHouseMng, COMDAT
; _this$ = ecx

; 1088 : {

  00000	55		 push	 ebp
  00001	8b ec		 mov	 ebp, esp
  00003	6a ff		 push	 -1
  00005	68 00 00 00 00	 push	 __ehhandler$??0CGuildHouseMng@@QAE@XZ
  0000a	64 a1 00 00 00
	00		 mov	 eax, DWORD PTR fs:0
  00010	50		 push	 eax
  00011	83 ec 08	 sub	 esp, 8
  00014	56		 push	 esi
  00015	57		 push	 edi
  00016	a1 00 00 00 00	 mov	 eax, DWORD PTR ___security_cookie
  0001b	33 c5		 xor	 eax, ebp
  0001d	50		 push	 eax
  0001e	8d 45 f4	 lea	 eax, DWORD PTR __$EHRec$[ebp]
  00021	64 a3 00 00 00
	00		 mov	 DWORD PTR fs:0, eax
  00027	8b f9		 mov	 edi, ecx
  00029	89 7d f0	 mov	 DWORD PTR _this$[ebp], edi
; File C:\Program Files\Microsoft Visual Studio\2022\Professional\VC\Tools\MSVC\14.44.35207\include\xmemory

; 136  :         return ::operator new(_Bytes);

  0002c	6a 18		 push	 24			; 00000018H
; File C:\Program Files\Microsoft Visual Studio\2022\Professional\VC\Tools\MSVC\14.44.35207\include\xtree

; 450  :     _Tree_val() noexcept : _Myhead(), _Mysize(0) {}

  0002e	c7 07 00 00 00
	00		 mov	 DWORD PTR [edi], 0
  00034	c7 47 04 00 00
	00 00		 mov	 DWORD PTR [edi+4], 0
; File C:\Program Files\Microsoft Visual Studio\2022\Professional\VC\Tools\MSVC\14.44.35207\include\xmemory

; 136  :         return ::operator new(_Bytes);

  0003b	e8 00 00 00 00	 call	 ??2@YAPAXI@Z		; operator new
; File C:\Program Files\Microsoft Visual Studio\2022\Professional\VC\Tools\MSVC\14.44.35207\include\xtree

; 346  :         _Construct_in_place(_Pnode->_Left, _Pnode);

  00040	89 00		 mov	 DWORD PTR [eax], eax

; 347  :         _Construct_in_place(_Pnode->_Parent, _Pnode);

  00042	89 40 04	 mov	 DWORD PTR [eax+4], eax

; 348  :         _Construct_in_place(_Pnode->_Right, _Pnode);

  00045	89 40 08	 mov	 DWORD PTR [eax+8], eax

; 349  :         _Pnode->_Color = _Black;

  00048	66 c7 40 0c 01
	01		 mov	 WORD PTR [eax+12], 257	; 00000101H

; 1957 :         _Scary->_Myhead = _Node::_Buyheadnode(_Getal());

  0004e	89 07		 mov	 DWORD PTR [edi], eax
; File C:\IAGOS\server\v18\Source\Source\_Common\GuildHouse.cpp

; 1088 : {

  00050	8d 77 08	 lea	 esi, DWORD PTR [edi+8]
  00053	c7 45 fc 00 00
	00 00		 mov	 DWORD PTR __$EHRec$[ebp+8], 0
; File C:\Program Files\Microsoft Visual Studio\2022\Professional\VC\Tools\MSVC\14.44.35207\include\xmemory

; 136  :         return ::operator new(_Bytes);

  0005a	6a 18		 push	 24			; 00000018H
; File C:\IAGOS\server\v18\Source\Source\_Common\GuildHouse.cpp

; 1088 : {

  0005c	89 75 ec	 mov	 DWORD PTR _this$[ebp], esi
; File C:\Program Files\Microsoft Visual Studio\2022\Professional\VC\Tools\MSVC\14.44.35207\include\xtree

; 450  :     _Tree_val() noexcept : _Myhead(), _Mysize(0) {}

  0005f	c7 06 00 00 00
	00		 mov	 DWORD PTR [esi], 0
  00065	c7 46 04 00 00
	00 00		 mov	 DWORD PTR [esi+4], 0
; File C:\Program Files\Microsoft Visual Studio\2022\Professional\VC\Tools\MSVC\14.44.35207\include\xmemory

; 136  :         return ::operator new(_Bytes);

  0006c	e8 00 00 00 00	 call	 ??2@YAPAXI@Z		; operator new
  00071	83 c4 08	 add	 esp, 8
; File C:\Program Files\Microsoft Visual Studio\2022\Professional\VC\Tools\MSVC\14.44.35207\include\xtree

; 346  :         _Construct_in_place(_Pnode->_Left, _Pnode);

  00074	89 00		 mov	 DWORD PTR [eax], eax

; 347  :         _Construct_in_place(_Pnode->_Parent, _Pnode);

  00076	89 40 04	 mov	 DWORD PTR [eax+4], eax

; 348  :         _Construct_in_place(_Pnode->_Right, _Pnode);

  00079	89 40 08	 mov	 DWORD PTR [eax+8], eax

; 349  :         _Pnode->_Color = _Black;

  0007c	66 c7 40 0c 01
	01		 mov	 WORD PTR [eax+12], 257	; 00000101H

; 1957 :         _Scary->_Myhead = _Node::_Buyheadnode(_Getal());

  00082	89 06		 mov	 DWORD PTR [esi], eax
; File C:\IAGOS\server\v18\Source\Source\_Common\GuildHouse.cpp

; 1089 : }

  00084	8b c7		 mov	 eax, edi
  00086	8b 4d f4	 mov	 ecx, DWORD PTR __$EHRec$[ebp]
  00089	64 89 0d 00 00
	00 00		 mov	 DWORD PTR fs:0, ecx
  00090	59		 pop	 ecx
  00091	5f		 pop	 edi
  00092	5e		 pop	 esi
  00093	8b e5		 mov	 esp, ebp
  00095	5d		 pop	 ebp
  00096	c3		 ret	 0
_TEXT	ENDS
;	COMDAT text$x
text$x	SEGMENT
__unwindfunclet$??0CGuildHouseMng@@QAE@XZ$0:
  00000	8b 4d f0	 mov	 ecx, DWORD PTR _this$[ebp]
  00003	e9 00 00 00 00	 jmp	 ??1?$map@HMU?$less@H@std@@V?$allocator@U?$pair@$$CBHM@std@@@2@@std@@QAE@XZ
  00008	cc		 int	 3
  00009	cc		 int	 3
  0000a	cc		 int	 3
  0000b	cc		 int	 3
  0000c	cc		 int	 3
__ehhandler$??0CGuildHouseMng@@QAE@XZ:
  0000d	90		 npad	 1
  0000e	90		 npad	 1
  0000f	8b 54 24 08	 mov	 edx, DWORD PTR [esp+8]
  00013	8d 42 0c	 lea	 eax, DWORD PTR [edx+12]
  00016	8b 4a ec	 mov	 ecx, DWORD PTR [edx-20]
  00019	33 c8		 xor	 ecx, eax
  0001b	e8 00 00 00 00	 call	 @__security_check_cookie@4
  00020	b8 00 00 00 00	 mov	 eax, OFFSET __ehfuncinfo$??0CGuildHouseMng@@QAE@XZ
  00025	e9 00 00 00 00	 jmp	 ___CxxFrameHandler3
text$x	ENDS
??0CGuildHouseMng@@QAE@XZ ENDP				; CGuildHouseMng::CGuildHouseMng
; Function compile flags: /Ogtp
;	COMDAT ??_GCGuildHouseMiddle@@UAEPAXI@Z
_TEXT	SEGMENT
___flags$ = 8						; size = 4
??_GCGuildHouseMiddle@@UAEPAXI@Z PROC			; CGuildHouseMiddle::`scalar deleting destructor', COMDAT
; _this$ = ecx
  00000	55		 push	 ebp
  00001	8b ec		 mov	 ebp, esp
  00003	56		 push	 esi
  00004	8b f1		 mov	 esi, ecx
  00006	e8 00 00 00 00	 call	 ??1CGuildHouseMiddle@@UAE@XZ ; CGuildHouseMiddle::~CGuildHouseMiddle
  0000b	f6 45 08 01	 test	 BYTE PTR ___flags$[ebp], 1
  0000f	74 0b		 je	 SHORT $LN5@scalar
  00011	6a 20		 push	 32			; 00000020H
  00013	56		 push	 esi
  00014	e8 00 00 00 00	 call	 ??3@YAXPAXI@Z		; operator delete
  00019	83 c4 08	 add	 esp, 8
$LN5@scalar:
  0001c	8b c6		 mov	 eax, esi
  0001e	5e		 pop	 esi
  0001f	5d		 pop	 ebp
  00020	c2 04 00	 ret	 4
??_GCGuildHouseMiddle@@UAEPAXI@Z ENDP			; CGuildHouseMiddle::`scalar deleting destructor'
_TEXT	ENDS
; Function compile flags: /Ogtp
; File C:\IAGOS\server\v18\Source\Source\_Common\GuildHouse.h
;	COMDAT ?IsSetupAble@CGuildHouseMiddle@@EAEHPAVCUser@@H@Z
_TEXT	SEGMENT
_pUser$ = 8						; size = 4
_nIndex$ = 12						; size = 4
?IsSetupAble@CGuildHouseMiddle@@EAEHPAVCUser@@H@Z PROC	; CGuildHouseMiddle::IsSetupAble, COMDAT
; _this$ = ecx

; 250  : 	virtual BOOL		IsSetupAble( CUser* pUser, int nIndex )	{ return TRUE; }

  00000	b8 01 00 00 00	 mov	 eax, 1
  00005	c2 08 00	 ret	 8
?IsSetupAble@CGuildHouseMiddle@@EAEHPAVCUser@@H@Z ENDP	; CGuildHouseMiddle::IsSetupAble
_TEXT	ENDS
; Function compile flags: /Ogtp
; File C:\IAGOS\server\v18\Source\Source\_Common\GuildHouse.h
;	COMDAT ?GetUpkeepPenya@CGuildHouseMiddle@@EAEHXZ
_TEXT	SEGMENT
?GetUpkeepPenya@CGuildHouseMiddle@@EAEHXZ PROC		; CGuildHouseMiddle::GetUpkeepPenya, COMDAT
; _this$ = ecx

; 249  : 	virtual int			GetUpkeepPenya() { return UPKEEP_DAY_PENYA_MIDDLE; }

  00000	b8 00 36 6e 01	 mov	 eax, 24000000		; 016e3600H
  00005	c3		 ret	 0
?GetUpkeepPenya@CGuildHouseMiddle@@EAEHXZ ENDP		; CGuildHouseMiddle::GetUpkeepPenya
_TEXT	ENDS
; Function compile flags: /Ogtp
; File C:\IAGOS\server\v18\Source\Source\_Common\GuildHouse.h
;	COMDAT ?GetMaxListUpNum@CGuildHouseMiddle@@EAEHPAUItemProp@@@Z
_TEXT	SEGMENT
_pItemProp$ = 8						; size = 4
?GetMaxListUpNum@CGuildHouseMiddle@@EAEHPAUItemProp@@@Z PROC ; CGuildHouseMiddle::GetMaxListUpNum, COMDAT
; _this$ = ecx

; 248  : 	virtual int			GetMaxListUpNum( ItemProp* pItemProp )	{ return MAX_LISTUP_NUM; }

  00000	b8 c8 00 00 00	 mov	 eax, 200		; 000000c8H
  00005	c2 04 00	 ret	 4
?GetMaxListUpNum@CGuildHouseMiddle@@EAEHPAUItemProp@@@Z ENDP ; CGuildHouseMiddle::GetMaxListUpNum
_TEXT	ENDS
; Function compile flags: /Ogtp
; File C:\IAGOS\server\v18\Source\Source\_Common\GuildHouse.h
; File C:\IAGOS\server\v18\Source\Source\DX_SDK\d3dx9math.inl
; File C:\IAGOS\server\v18\Source\Source\_Common\GuildHouse.h
; File C:\IAGOS\server\v18\Source\Source\DX_SDK\d3dx9math.inl
; File C:\IAGOS\server\v18\Source\Source\_Common\GuildHouse.h
; File C:\IAGOS\server\v18\Source\Source\DX_SDK\d3dx9math.inl
; File C:\IAGOS\server\v18\Source\Source\_Common\GuildHouse.h
;	COMDAT ?GetEnterPos@CGuildHouseMiddle@@EAE?AUD3DXVECTOR3@@XZ
_TEXT	SEGMENT
_fx$1$ = -4						; size = 4
___$ReturnUdt$ = 8					; size = 4
?GetEnterPos@CGuildHouseMiddle@@EAE?AUD3DXVECTOR3@@XZ PROC ; CGuildHouseMiddle::GetEnterPos, COMDAT
; _this$ = ecx

; 247  : 	virtual D3DXVECTOR3 GetEnterPos() { return D3DXVECTOR3( (float)( xRandom( 248, 252 ) ), 100.0f, (float)( xRandom( 248, 252 ) ) ); }

  00000	55		 push	 ebp
  00001	8b ec		 mov	 ebp, esp
  00003	51		 push	 ecx
  00004	68 fc 00 00 00	 push	 252			; 000000fcH
  00009	68 f8 00 00 00	 push	 248			; 000000f8H
  0000e	e8 00 00 00 00	 call	 ?xRandom@@YAKKK@Z	; xRandom
  00013	68 fc 00 00 00	 push	 252			; 000000fcH
  00018	68 f8 00 00 00	 push	 248			; 000000f8H
  0001d	66 0f 6e c0	 movd	 xmm0, eax
  00021	f3 0f e6 c0	 cvtdq2pd xmm0, xmm0
  00025	c1 e8 1f	 shr	 eax, 31			; 0000001fH
  00028	f2 0f 58 04 c5
	00 00 00 00	 addsd	 xmm0, QWORD PTR __xmm@41f00000000000000000000000000000[eax*8]
  00031	66 0f 5a c0	 cvtpd2ps xmm0, xmm0
  00035	f3 0f 11 45 fc	 movss	 DWORD PTR _fx$1$[ebp], xmm0
  0003a	e8 00 00 00 00	 call	 ?xRandom@@YAKKK@Z	; xRandom
; File C:\IAGOS\server\v18\Source\Source\DX_SDK\d3dx9math.inl

; 300  :     x = fx;

  0003f	f3 0f 10 4d fc	 movss	 xmm1, DWORD PTR _fx$1$[ebp]
; File C:\IAGOS\server\v18\Source\Source\_Common\GuildHouse.h

; 247  : 	virtual D3DXVECTOR3 GetEnterPos() { return D3DXVECTOR3( (float)( xRandom( 248, 252 ) ), 100.0f, (float)( xRandom( 248, 252 ) ) ); }

  00044	83 c4 10	 add	 esp, 16			; 00000010H
  00047	66 0f 6e c0	 movd	 xmm0, eax
  0004b	f3 0f e6 c0	 cvtdq2pd xmm0, xmm0
  0004f	c1 e8 1f	 shr	 eax, 31			; 0000001fH
  00052	f2 0f 58 04 c5
	00 00 00 00	 addsd	 xmm0, QWORD PTR __xmm@41f00000000000000000000000000000[eax*8]
; File C:\IAGOS\server\v18\Source\Source\DX_SDK\d3dx9math.inl

; 300  :     x = fx;

  0005b	8b 45 08	 mov	 eax, DWORD PTR ___$ReturnUdt$[ebp]
; File C:\IAGOS\server\v18\Source\Source\_Common\GuildHouse.h

; 247  : 	virtual D3DXVECTOR3 GetEnterPos() { return D3DXVECTOR3( (float)( xRandom( 248, 252 ) ), 100.0f, (float)( xRandom( 248, 252 ) ) ); }

  0005e	66 0f 5a c0	 cvtpd2ps xmm0, xmm0
; File C:\IAGOS\server\v18\Source\Source\DX_SDK\d3dx9math.inl

; 301  :     y = fy;

  00062	c7 40 04 00 00
	c8 42		 mov	 DWORD PTR [eax+4], 1120403456 ; 42c80000H
  00069	f3 0f 11 08	 movss	 DWORD PTR [eax], xmm1

; 302  :     z = fz;

  0006d	f3 0f 11 40 08	 movss	 DWORD PTR [eax+8], xmm0
; File C:\IAGOS\server\v18\Source\Source\_Common\GuildHouse.h

; 247  : 	virtual D3DXVECTOR3 GetEnterPos() { return D3DXVECTOR3( (float)( xRandom( 248, 252 ) ), 100.0f, (float)( xRandom( 248, 252 ) ) ); }

  00072	8b e5		 mov	 esp, ebp
  00074	5d		 pop	 ebp
  00075	c2 04 00	 ret	 4
?GetEnterPos@CGuildHouseMiddle@@EAE?AUD3DXVECTOR3@@XZ ENDP ; CGuildHouseMiddle::GetEnterPos
_TEXT	ENDS
; Function compile flags: /Ogtp
; File C:\IAGOS\server\v18\Source\Source\_Common\GuildHouse.h
;	COMDAT ?GetRestPointFactor@CGuildHouseMiddle@@UAEMXZ
_TEXT	SEGMENT
?GetRestPointFactor@CGuildHouseMiddle@@UAEMXZ PROC	; CGuildHouseMiddle::GetRestPointFactor, COMDAT
; _this$ = ecx

; 245  : 	virtual float		GetRestPointFactor() { return 0.75f; }

  00000	d9 05 00 00 00
	00		 fld	 DWORD PTR __real@3f400000
  00006	c3		 ret	 0
?GetRestPointFactor@CGuildHouseMiddle@@UAEMXZ ENDP	; CGuildHouseMiddle::GetRestPointFactor
_TEXT	ENDS
; Function compile flags: /Ogtp
; File C:\IAGOS\server\v18\Source\Source\_Common\GuildHouse.h
; File C:\IAGOS\server\v18\Source\Source\DX_SDK\d3dx9math.inl
; File C:\IAGOS\server\v18\Source\Source\_Common\GuildHouse.h
;	COMDAT ?GetTeleporterPos@CGuildHouseMiddle@@UAE?AUD3DXVECTOR3@@XZ
_TEXT	SEGMENT
___$ReturnUdt$ = 8					; size = 4
?GetTeleporterPos@CGuildHouseMiddle@@UAE?AUD3DXVECTOR3@@XZ PROC ; CGuildHouseMiddle::GetTeleporterPos, COMDAT
; _this$ = ecx

; 240  : 	virtual D3DXVECTOR3 GetTeleporterPos()	{ return D3DXVECTOR3( 250.0f, 100.0f, 250.0f ); }

  00000	55		 push	 ebp
  00001	8b ec		 mov	 ebp, esp
; File C:\IAGOS\server\v18\Source\Source\DX_SDK\d3dx9math.inl

; 300  :     x = fx;

  00003	8b 45 08	 mov	 eax, DWORD PTR ___$ReturnUdt$[ebp]
  00006	c7 00 00 00 7a
	43		 mov	 DWORD PTR [eax], 1132068864 ; 437a0000H

; 301  :     y = fy;

  0000c	c7 40 04 00 00
	c8 42		 mov	 DWORD PTR [eax+4], 1120403456 ; 42c80000H

; 302  :     z = fz;

  00013	c7 40 08 00 00
	7a 43		 mov	 DWORD PTR [eax+8], 1132068864 ; 437a0000H
; File C:\IAGOS\server\v18\Source\Source\_Common\GuildHouse.h

; 240  : 	virtual D3DXVECTOR3 GetTeleporterPos()	{ return D3DXVECTOR3( 250.0f, 100.0f, 250.0f ); }

  0001a	5d		 pop	 ebp
  0001b	c2 04 00	 ret	 4
?GetTeleporterPos@CGuildHouseMiddle@@UAE?AUD3DXVECTOR3@@XZ ENDP ; CGuildHouseMiddle::GetTeleporterPos
_TEXT	ENDS
; Function compile flags: /Ogtp
; File C:\IAGOS\server\v18\Source\Source\_Common\GuildHouse.cpp
;	COMDAT ??1CGuildHouseMiddle@@UAE@XZ
_TEXT	SEGMENT
??1CGuildHouseMiddle@@UAE@XZ PROC			; CGuildHouseMiddle::~CGuildHouseMiddle, COMDAT
; _this$ = ecx

; 1059 : {

  00000	c7 01 00 00 00
	00		 mov	 DWORD PTR [ecx], OFFSET ??_7CGuildHouseMiddle@@6B@

; 1060 : }

  00006	e9 00 00 00 00	 jmp	 ??1CGuildHouseBase@@UAE@XZ ; CGuildHouseBase::~CGuildHouseBase
??1CGuildHouseMiddle@@UAE@XZ ENDP			; CGuildHouseMiddle::~CGuildHouseMiddle
_TEXT	ENDS
; Function compile flags: /Ogtp
; File C:\IAGOS\server\v18\Source\Source\_Common\GuildHouse.cpp
;	COMDAT ??0CGuildHouseMiddle@@QAE@K@Z
_TEXT	SEGMENT
_this$ = -4						; size = 4
_dwGuildId$ = 8						; size = 4
??0CGuildHouseMiddle@@QAE@K@Z PROC			; CGuildHouseMiddle::CGuildHouseMiddle, COMDAT
; _this$ = ecx

; 1055 : {

  00000	55		 push	 ebp
  00001	8b ec		 mov	 ebp, esp
  00003	51		 push	 ecx
  00004	56		 push	 esi
  00005	68 d5 00 00 00	 push	 213			; 000000d5H
  0000a	ff 75 08	 push	 DWORD PTR _dwGuildId$[ebp]
  0000d	8b f1		 mov	 esi, ecx
  0000f	89 75 fc	 mov	 DWORD PTR _this$[ebp], esi
  00012	e8 00 00 00 00	 call	 ??0CGuildHouseBase@@QAE@KK@Z ; CGuildHouseBase::CGuildHouseBase
  00017	c7 06 00 00 00
	00		 mov	 DWORD PTR [esi], OFFSET ??_7CGuildHouseMiddle@@6B@

; 1056 : }

  0001d	8b c6		 mov	 eax, esi
  0001f	5e		 pop	 esi
  00020	8b e5		 mov	 esp, ebp
  00022	5d		 pop	 ebp
  00023	c2 04 00	 ret	 4
??0CGuildHouseMiddle@@QAE@K@Z ENDP			; CGuildHouseMiddle::CGuildHouseMiddle
_TEXT	ENDS
; Function compile flags: /Ogtp
;	COMDAT ??_GCGuildHouseSmall@@UAEPAXI@Z
_TEXT	SEGMENT
___flags$ = 8						; size = 4
??_GCGuildHouseSmall@@UAEPAXI@Z PROC			; CGuildHouseSmall::`scalar deleting destructor', COMDAT
; _this$ = ecx
  00000	55		 push	 ebp
  00001	8b ec		 mov	 ebp, esp
  00003	56		 push	 esi
  00004	8b f1		 mov	 esi, ecx
  00006	e8 00 00 00 00	 call	 ??1CGuildHouseSmall@@UAE@XZ ; CGuildHouseSmall::~CGuildHouseSmall
  0000b	f6 45 08 01	 test	 BYTE PTR ___flags$[ebp], 1
  0000f	74 0b		 je	 SHORT $LN5@scalar
  00011	6a 20		 push	 32			; 00000020H
  00013	56		 push	 esi
  00014	e8 00 00 00 00	 call	 ??3@YAXPAXI@Z		; operator delete
  00019	83 c4 08	 add	 esp, 8
$LN5@scalar:
  0001c	8b c6		 mov	 eax, esi
  0001e	5e		 pop	 esi
  0001f	5d		 pop	 ebp
  00020	c2 04 00	 ret	 4
??_GCGuildHouseSmall@@UAEPAXI@Z ENDP			; CGuildHouseSmall::`scalar deleting destructor'
_TEXT	ENDS
; Function compile flags: /Ogtp
; File C:\IAGOS\server\v18\Source\Source\_Common\GuildHouse.cpp
; File C:\Program Files\Microsoft Visual Studio\2022\Professional\VC\Tools\MSVC\14.44.35207\include\vector
; File C:\IAGOS\server\v18\Source\Source\_Common\GuildHouse.cpp
; File C:\Program Files\Microsoft Visual Studio\2022\Professional\VC\Tools\MSVC\14.44.35207\include\vector
; File C:\IAGOS\server\v18\Source\Source\_Common\GuildHouse.cpp
; File C:\IAGOS\server\v18\Source\Source\_Common\Project.h
; File C:\IAGOS\server\v18\Source\Source\_Common\data.h
; File C:\IAGOS\server\v18\Source\Source\_Common\GuildHouse.cpp
; File C:\Program Files\Microsoft Visual Studio\2022\Professional\VC\Tools\MSVC\14.44.35207\include\vector
; File C:\IAGOS\server\v18\Source\Source\_Common\GuildHouse.cpp
; File C:\Program Files\Microsoft Visual Studio\2022\Professional\VC\Tools\MSVC\14.44.35207\include\vector
; File C:\IAGOS\server\v18\Source\Source\_Common\GuildHouse.cpp
; File C:\Program Files\Microsoft Visual Studio\2022\Professional\VC\Tools\MSVC\14.44.35207\include\vector
; File C:\IAGOS\server\v18\Source\Source\_Common\GuildHouse.cpp
; File C:\IAGOS\server\v18\Source\Source\_Common\Project.h
; File C:\IAGOS\server\v18\Source\Source\_Common\data.h
; File C:\IAGOS\server\v18\Source\Source\_Common\Project.h
; File C:\IAGOS\server\v18\Source\Source\_Common\GuildHouse.cpp
; File C:\Program Files\Microsoft Visual Studio\2022\Professional\VC\Tools\MSVC\14.44.35207\include\vector
; File C:\IAGOS\server\v18\Source\Source\_Common\GuildHouse.cpp
; File C:\Program Files\Microsoft Visual Studio\2022\Professional\VC\Tools\MSVC\14.44.35207\include\vector
; File C:\IAGOS\server\v18\Source\Source\_Common\GuildHouse.cpp
; File C:\IAGOS\server\v18\Source\Source\_Common\Project.h
; File C:\IAGOS\server\v18\Source\Source\_Common\GuildHouse.cpp
;	COMDAT ?IsSetupAble@CGuildHouseSmall@@EAEHPAVCUser@@H@Z
_TEXT	SEGMENT
_this$1$ = -8						; size = 4
tv411 = -4						; size = 4
_pUser$ = 8						; size = 4
_nIndex$ = 12						; size = 4
$T1 = 12						; size = 4
?IsSetupAble@CGuildHouseSmall@@EAEHPAVCUser@@H@Z PROC	; CGuildHouseSmall::IsSetupAble, COMDAT
; _this$ = ecx

; 1011 : {	

  00000	55		 push	 ebp
  00001	8b ec		 mov	 ebp, esp
  00003	83 ec 08	 sub	 esp, 8
; File C:\Program Files\Microsoft Visual Studio\2022\Professional\VC\Tools\MSVC\14.44.35207\include\vector

; 1934 :         return _My_data._Myfirst[_Pos];

  00006	8b 55 0c	 mov	 edx, DWORD PTR _nIndex$[ebp]
; File C:\IAGOS\server\v18\Source\Source\_Common\GuildHouse.cpp

; 1011 : {	

  00009	57		 push	 edi
  0000a	8b f9		 mov	 edi, ecx
; File C:\Program Files\Microsoft Visual Studio\2022\Professional\VC\Tools\MSVC\14.44.35207\include\vector

; 1934 :         return _My_data._Myfirst[_Pos];

  0000c	c1 e2 05	 shl	 edx, 5
; File C:\IAGOS\server\v18\Source\Source\_Common\GuildHouse.cpp

; 1011 : {	

  0000f	89 7d f8	 mov	 DWORD PTR _this$1$[ebp], edi

; 1012 : 	ItemProp* pItemProp = prj.GetItemProp( m_vecFntInfo[nIndex].dwItemId );

  00012	8b 47 0c	 mov	 eax, DWORD PTR [edi+12]
  00015	8b 04 02	 mov	 eax, DWORD PTR [edx+eax]
; File C:\IAGOS\server\v18\Source\Source\_Common\Project.h

; 1389 : 	VERIFY_RANGE_ASSERT( nIndex, 0, m_aPropItem.GetSize(), "GetItemProp range_error", NULL );

  00018	8b 15 40 02 00
	00		 mov	 edx, DWORD PTR ?prj@@3VCProject@@A+576
  0001e	85 c0		 test	 eax, eax
  00020	0f 88 0f 01 00
	00		 js	 $LN23@IsSetupAbl
  00026	3b c2		 cmp	 eax, edx
  00028	0f 8d 07 01 00
	00		 jge	 $LN23@IsSetupAbl
; File C:\IAGOS\server\v18\Source\Source\_Common\data.h

; 270  : 	if( dwIndex >= (DWORD)m_nMaxIndex )

  0002e	72 04		 jb	 SHORT $LN28@IsSetupAbl

; 271  : 		return NULL;

  00030	33 c9		 xor	 ecx, ecx
  00032	eb 09		 jmp	 SHORT $LN71@IsSetupAbl
$LN28@IsSetupAbl:

; 272  : 	return (T*) m_apOffset[ dwIndex ];

  00034	8b 0d 30 02 00
	00		 mov	 ecx, DWORD PTR ?prj@@3VCProject@@A+560
  0003a	8b 0c 81	 mov	 ecx, DWORD PTR [ecx+eax*4]
$LN71@IsSetupAbl:
; File C:\IAGOS\server\v18\Source\Source\_Common\GuildHouse.cpp

; 1013 : 	if( !pItemProp )

  0003d	89 4d 0c	 mov	 DWORD PTR $T1[ebp], ecx
  00040	85 c9		 test	 ecx, ecx
  00042	0f 84 03 01 00
	00		 je	 $LN57@IsSetupAbl

; 1015 : 
; 1016 : 	if( pItemProp->dwAbilityMax > 1 )

  00048	8b 81 e8 00 00
	00		 mov	 eax, DWORD PTR [ecx+232]
  0004e	83 f8 01	 cmp	 eax, 1
  00051	76 1f		 jbe	 SHORT $LN8@IsSetupAbl

; 1017 : 	{
; 1018 : 		pUser->AddDefinedText( TID_GAME_GUILDHOUSE_FUR_INSTALL_LEVEL, "%d", pItemProp->dwAbilityMax );

  00053	50		 push	 eax
  00054	68 00 00 00 00	 push	 OFFSET ??_C@_02DPKJAMEF@?$CFd@
  00059	68 b4 10 00 00	 push	 4276			; 000010b4H
  0005e	ff 75 08	 push	 DWORD PTR _pUser$[ebp]
  00061	e8 00 00 00 00	 call	 ?AddDefinedText@CUser@@QAAXHPBDZZ ; CUser::AddDefinedText
  00066	83 c4 10	 add	 esp, 16			; 00000010H

; 1019 : 		return FALSE;

  00069	33 c0		 xor	 eax, eax
  0006b	5f		 pop	 edi

; 1047 : }

  0006c	8b e5		 mov	 esp, ebp
  0006e	5d		 pop	 ebp
  0006f	c2 08 00	 ret	 8
$LN8@IsSetupAbl:

; 1029 : 	int nSetupNum = 0;

  00072	81 79 78 8f 00
	00 00		 cmp	 DWORD PTR [ecx+120], 143 ; 0000008fH
  00079	b8 01 00 00 00	 mov	 eax, 1
; File C:\Program Files\Microsoft Visual Studio\2022\Professional\VC\Tools\MSVC\14.44.35207\include\vector

; 1915 :         return static_cast<size_type>(_My_data._Mylast - _My_data._Myfirst);

  0007e	8b 4f 0c	 mov	 ecx, DWORD PTR [edi+12]
  00081	53		 push	 ebx
  00082	56		 push	 esi
; File C:\IAGOS\server\v18\Source\Source\_Common\GuildHouse.cpp

; 1029 : 	int nSetupNum = 0;

  00083	be 04 00 00 00	 mov	 esi, 4
  00088	0f 44 c6	 cmove	 eax, esi
  0008b	33 f6		 xor	 esi, esi
  0008d	89 45 fc	 mov	 DWORD PTR tv411[ebp], eax

; 1030 : 	for( int i=0; i<(int)( m_vecFntInfo.size() ); i++ )

  00090	33 db		 xor	 ebx, ebx
; File C:\Program Files\Microsoft Visual Studio\2022\Professional\VC\Tools\MSVC\14.44.35207\include\vector

; 1915 :         return static_cast<size_type>(_My_data._Mylast - _My_data._Myfirst);

  00092	8b 47 10	 mov	 eax, DWORD PTR [edi+16]
  00095	2b c1		 sub	 eax, ecx
; File C:\IAGOS\server\v18\Source\Source\_Common\GuildHouse.cpp

; 1030 : 	for( int i=0; i<(int)( m_vecFntInfo.size() ); i++ )

  00097	a9 e0 ff ff ff	 test	 eax, -32		; ffffffe0H
  0009c	7e 68		 jle	 SHORT $LN54@IsSetupAbl
; File C:\Program Files\Microsoft Visual Studio\2022\Professional\VC\Tools\MSVC\14.44.35207\include\vector

; 1914 :         auto& _My_data = _Mypair._Myval2;

  0009e	33 ff		 xor	 edi, edi
$LL6@IsSetupAbl:
; File C:\IAGOS\server\v18\Source\Source\_Common\GuildHouse.cpp

; 1032 : 		if( !m_vecFntInfo[i].bSetup )

  000a0	83 7c 0f 04 00	 cmp	 DWORD PTR [edi+ecx+4], 0
  000a5	74 49		 je	 SHORT $LN4@IsSetupAbl

; 1033 : 			continue;
; 1034 : 		
; 1035 : 		ItemProp* pSetup = prj.GetItemProp( m_vecFntInfo[i].dwItemId );

  000a7	8b 04 0f	 mov	 eax, DWORD PTR [edi+ecx]
; File C:\IAGOS\server\v18\Source\Source\_Common\Project.h

; 1389 : 	VERIFY_RANGE_ASSERT( nIndex, 0, m_aPropItem.GetSize(), "GetItemProp range_error", NULL );

  000aa	85 c0		 test	 eax, eax
  000ac	78 11		 js	 SHORT $LN44@IsSetupAbl
  000ae	3b c2		 cmp	 eax, edx
  000b0	7d 0d		 jge	 SHORT $LN44@IsSetupAbl
; File C:\IAGOS\server\v18\Source\Source\_Common\data.h

; 270  : 	if( dwIndex >= (DWORD)m_nMaxIndex )

  000b2	73 27		 jae	 SHORT $LN72@IsSetupAbl

; 272  : 	return (T*) m_apOffset[ dwIndex ];

  000b4	8b 0d 30 02 00
	00		 mov	 ecx, DWORD PTR ?prj@@3VCProject@@A+560
  000ba	8b 0c 81	 mov	 ecx, DWORD PTR [ecx+eax*4]
; File C:\IAGOS\server\v18\Source\Source\_Common\Project.h

; 1390 : 	return m_aPropItem.GetAt( nIndex ); 

  000bd	eb 1e		 jmp	 SHORT $LN39@IsSetupAbl
$LN44@IsSetupAbl:

; 579  : 	LPCTSTR szErr = Error( _T( "%s min:%d, max:%d, index:%d" ), szMsg, nMin, nMax, nIndex ); 

  000bf	50		 push	 eax
  000c0	52		 push	 edx
  000c1	6a 00		 push	 0
  000c3	68 00 00 00 00	 push	 OFFSET ??_C@_0BI@BEIFNGEL@GetItemProp?5range_error@
  000c8	68 00 00 00 00	 push	 OFFSET ??_C@_0BM@HMFGHCP@?$CFs?5min?3?$CFd?0?5max?3?$CFd?0?5index?3?$CFd@
  000cd	e8 00 00 00 00	 call	 ?Error@@YAPBDPBDZZ	; Error

; 1389 : 	VERIFY_RANGE_ASSERT( nIndex, 0, m_aPropItem.GetSize(), "GetItemProp range_error", NULL );

  000d2	8b 15 40 02 00
	00		 mov	 edx, DWORD PTR ?prj@@3VCProject@@A+576

; 579  : 	LPCTSTR szErr = Error( _T( "%s min:%d, max:%d, index:%d" ), szMsg, nMin, nMax, nIndex ); 

  000d8	83 c4 14	 add	 esp, 20			; 00000014H
$LN72@IsSetupAbl:
; File C:\IAGOS\server\v18\Source\Source\_Common\GuildHouse.cpp

; 1036 : 		if( pItemProp->dwItemKind3 == pSetup->dwItemKind3 )

  000db	33 c9		 xor	 ecx, ecx
$LN39@IsSetupAbl:
  000dd	8b 45 0c	 mov	 eax, DWORD PTR $T1[ebp]
  000e0	8b 40 78	 mov	 eax, DWORD PTR [eax+120]
  000e3	3b 41 78	 cmp	 eax, DWORD PTR [ecx+120]
  000e6	75 01		 jne	 SHORT $LN12@IsSetupAbl

; 1037 : 			nSetupNum++;

  000e8	46		 inc	 esi
$LN12@IsSetupAbl:

; 1038 : 
; 1039 : 		if( nSetupNum >= nMaxSetupNum )

  000e9	8b 45 fc	 mov	 eax, DWORD PTR tv411[ebp]
  000ec	3b f0		 cmp	 esi, eax
  000ee	7d 24		 jge	 SHORT $LN52@IsSetupAbl
$LN4@IsSetupAbl:
; File C:\Program Files\Microsoft Visual Studio\2022\Professional\VC\Tools\MSVC\14.44.35207\include\vector

; 1915 :         return static_cast<size_type>(_My_data._Mylast - _My_data._Myfirst);

  000f0	8b 45 f8	 mov	 eax, DWORD PTR _this$1$[ebp]
; File C:\IAGOS\server\v18\Source\Source\_Common\GuildHouse.cpp

; 1030 : 	for( int i=0; i<(int)( m_vecFntInfo.size() ); i++ )

  000f3	43		 inc	 ebx
  000f4	83 c7 20	 add	 edi, 32			; 00000020H
; File C:\Program Files\Microsoft Visual Studio\2022\Professional\VC\Tools\MSVC\14.44.35207\include\vector

; 1915 :         return static_cast<size_type>(_My_data._Mylast - _My_data._Myfirst);

  000f7	8b 48 0c	 mov	 ecx, DWORD PTR [eax+12]
  000fa	8b 40 10	 mov	 eax, DWORD PTR [eax+16]
  000fd	2b c1		 sub	 eax, ecx
  000ff	c1 f8 05	 sar	 eax, 5
; File C:\IAGOS\server\v18\Source\Source\_Common\GuildHouse.cpp

; 1030 : 	for( int i=0; i<(int)( m_vecFntInfo.size() ); i++ )

  00102	3b d8		 cmp	 ebx, eax
  00104	7c 9a		 jl	 SHORT $LL6@IsSetupAbl
$LN54@IsSetupAbl:
  00106	5e		 pop	 esi
  00107	5b		 pop	 ebx

; 1043 : 		}
; 1044 : 	}
; 1045 : 
; 1046 : 	return TRUE;

  00108	b8 01 00 00 00	 mov	 eax, 1
  0010d	5f		 pop	 edi

; 1047 : }

  0010e	8b e5		 mov	 esp, ebp
  00110	5d		 pop	 ebp
  00111	c2 08 00	 ret	 8
$LN52@IsSetupAbl:

; 1040 : 		{
; 1041 : 			pUser->AddDefinedText( TID_GAME_GUILDHOUSE_INSIDE_INSTALL_KIND, "%d", nMaxSetupNum );	

  00114	50		 push	 eax
  00115	68 00 00 00 00	 push	 OFFSET ??_C@_02DPKJAMEF@?$CFd@
  0011a	68 a7 10 00 00	 push	 4263			; 000010a7H
  0011f	ff 75 08	 push	 DWORD PTR _pUser$[ebp]
  00122	e8 00 00 00 00	 call	 ?AddDefinedText@CUser@@QAAXHPBDZZ ; CUser::AddDefinedText
  00127	83 c4 10	 add	 esp, 16			; 00000010H

; 1042 : 			return FALSE;

  0012a	33 c0		 xor	 eax, eax
  0012c	5e		 pop	 esi
  0012d	5b		 pop	 ebx
  0012e	5f		 pop	 edi

; 1047 : }

  0012f	8b e5		 mov	 esp, ebp
  00131	5d		 pop	 ebp
  00132	c2 08 00	 ret	 8
$LN23@IsSetupAbl:
; File C:\IAGOS\server\v18\Source\Source\_Common\Project.h

; 579  : 	LPCTSTR szErr = Error( _T( "%s min:%d, max:%d, index:%d" ), szMsg, nMin, nMax, nIndex ); 

  00135	50		 push	 eax
  00136	52		 push	 edx
  00137	6a 00		 push	 0
  00139	68 00 00 00 00	 push	 OFFSET ??_C@_0BI@BEIFNGEL@GetItemProp?5range_error@
  0013e	68 00 00 00 00	 push	 OFFSET ??_C@_0BM@HMFGHCP@?$CFs?5min?3?$CFd?0?5max?3?$CFd?0?5index?3?$CFd@
  00143	e8 00 00 00 00	 call	 ?Error@@YAPBDPBDZZ	; Error
  00148	83 c4 14	 add	 esp, 20			; 00000014H
$LN57@IsSetupAbl:
; File C:\IAGOS\server\v18\Source\Source\_Common\GuildHouse.cpp

; 1014 : 		return FALSE;

  0014b	33 c0		 xor	 eax, eax
  0014d	5f		 pop	 edi

; 1047 : }

  0014e	8b e5		 mov	 esp, ebp
  00150	5d		 pop	 ebp
  00151	c2 08 00	 ret	 8
?IsSetupAble@CGuildHouseSmall@@EAEHPAVCUser@@H@Z ENDP	; CGuildHouseSmall::IsSetupAble
_TEXT	ENDS
; Function compile flags: /Ogtp
; File C:\IAGOS\server\v18\Source\Source\_Common\GuildHouse.h
;	COMDAT ?GetUpkeepPenya@CGuildHouseSmall@@EAEHXZ
_TEXT	SEGMENT
?GetUpkeepPenya@CGuildHouseSmall@@EAEHXZ PROC		; CGuildHouseSmall::GetUpkeepPenya, COMDAT
; _this$ = ecx

; 221  : 	virtual int			GetUpkeepPenya() { return UPKEEP_DAY_PENYA_SMALL; }

  00000	b8 00 9f 24 00	 mov	 eax, 2400000		; 00249f00H
  00005	c3		 ret	 0
?GetUpkeepPenya@CGuildHouseSmall@@EAEHXZ ENDP		; CGuildHouseSmall::GetUpkeepPenya
_TEXT	ENDS
; Function compile flags: /Ogtp
; File C:\IAGOS\server\v18\Source\Source\_Common\GuildHouse.cpp
;	COMDAT ?GetMaxListUpNum@CGuildHouseSmall@@EAEHPAUItemProp@@@Z
_TEXT	SEGMENT
_pItemProp$ = 8						; size = 4
?GetMaxListUpNum@CGuildHouseSmall@@EAEHPAUItemProp@@@Z PROC ; CGuildHouseSmall::GetMaxListUpNum, COMDAT
; _this$ = ecx

; 1002 : {

  00000	55		 push	 ebp
  00001	8b ec		 mov	 ebp, esp

; 1003 : 	if( !pItemProp )

  00003	8b 45 08	 mov	 eax, DWORD PTR _pItemProp$[ebp]
  00006	f7 d8		 neg	 eax
  00008	1b c0		 sbb	 eax, eax
  0000a	25 c8 00 00 00	 and	 eax, 200		; 000000c8H

; 1004 : 		return 0;
; 1005 : 
; 1006 : 	return MAX_LISTUP_NUM;
; 1007 : }

  0000f	5d		 pop	 ebp
  00010	c2 04 00	 ret	 4
?GetMaxListUpNum@CGuildHouseSmall@@EAEHPAUItemProp@@@Z ENDP ; CGuildHouseSmall::GetMaxListUpNum
_TEXT	ENDS
; Function compile flags: /Ogtp
; File C:\IAGOS\server\v18\Source\Source\_Common\GuildHouse.h
; File C:\IAGOS\server\v18\Source\Source\DX_SDK\d3dx9math.inl
; File C:\IAGOS\server\v18\Source\Source\_Common\GuildHouse.h
; File C:\IAGOS\server\v18\Source\Source\DX_SDK\d3dx9math.inl
; File C:\IAGOS\server\v18\Source\Source\_Common\GuildHouse.h
; File C:\IAGOS\server\v18\Source\Source\DX_SDK\d3dx9math.inl
; File C:\IAGOS\server\v18\Source\Source\_Common\GuildHouse.h
;	COMDAT ?GetEnterPos@CGuildHouseSmall@@EAE?AUD3DXVECTOR3@@XZ
_TEXT	SEGMENT
_fx$1$ = -4						; size = 4
___$ReturnUdt$ = 8					; size = 4
?GetEnterPos@CGuildHouseSmall@@EAE?AUD3DXVECTOR3@@XZ PROC ; CGuildHouseSmall::GetEnterPos, COMDAT
; _this$ = ecx

; 219  : 	virtual D3DXVECTOR3 GetEnterPos() { return D3DXVECTOR3( (float)( xRandom( 78, 83 ) ), 100.0f, (float)( xRandom( 61, 66 ) ) ); }

  00000	55		 push	 ebp
  00001	8b ec		 mov	 ebp, esp
  00003	51		 push	 ecx
  00004	6a 53		 push	 83			; 00000053H
  00006	6a 4e		 push	 78			; 0000004eH
  00008	e8 00 00 00 00	 call	 ?xRandom@@YAKKK@Z	; xRandom
  0000d	6a 42		 push	 66			; 00000042H
  0000f	6a 3d		 push	 61			; 0000003dH
  00011	66 0f 6e c0	 movd	 xmm0, eax
  00015	f3 0f e6 c0	 cvtdq2pd xmm0, xmm0
  00019	c1 e8 1f	 shr	 eax, 31			; 0000001fH
  0001c	f2 0f 58 04 c5
	00 00 00 00	 addsd	 xmm0, QWORD PTR __xmm@41f00000000000000000000000000000[eax*8]
  00025	66 0f 5a c0	 cvtpd2ps xmm0, xmm0
  00029	f3 0f 11 45 fc	 movss	 DWORD PTR _fx$1$[ebp], xmm0
  0002e	e8 00 00 00 00	 call	 ?xRandom@@YAKKK@Z	; xRandom
; File C:\IAGOS\server\v18\Source\Source\DX_SDK\d3dx9math.inl

; 300  :     x = fx;

  00033	f3 0f 10 4d fc	 movss	 xmm1, DWORD PTR _fx$1$[ebp]
; File C:\IAGOS\server\v18\Source\Source\_Common\GuildHouse.h

; 219  : 	virtual D3DXVECTOR3 GetEnterPos() { return D3DXVECTOR3( (float)( xRandom( 78, 83 ) ), 100.0f, (float)( xRandom( 61, 66 ) ) ); }

  00038	83 c4 10	 add	 esp, 16			; 00000010H
  0003b	66 0f 6e c0	 movd	 xmm0, eax
  0003f	f3 0f e6 c0	 cvtdq2pd xmm0, xmm0
  00043	c1 e8 1f	 shr	 eax, 31			; 0000001fH
  00046	f2 0f 58 04 c5
	00 00 00 00	 addsd	 xmm0, QWORD PTR __xmm@41f00000000000000000000000000000[eax*8]
; File C:\IAGOS\server\v18\Source\Source\DX_SDK\d3dx9math.inl

; 300  :     x = fx;

  0004f	8b 45 08	 mov	 eax, DWORD PTR ___$ReturnUdt$[ebp]
; File C:\IAGOS\server\v18\Source\Source\_Common\GuildHouse.h

; 219  : 	virtual D3DXVECTOR3 GetEnterPos() { return D3DXVECTOR3( (float)( xRandom( 78, 83 ) ), 100.0f, (float)( xRandom( 61, 66 ) ) ); }

  00052	66 0f 5a c0	 cvtpd2ps xmm0, xmm0
; File C:\IAGOS\server\v18\Source\Source\DX_SDK\d3dx9math.inl

; 301  :     y = fy;

  00056	c7 40 04 00 00
	c8 42		 mov	 DWORD PTR [eax+4], 1120403456 ; 42c80000H
  0005d	f3 0f 11 08	 movss	 DWORD PTR [eax], xmm1

; 302  :     z = fz;

  00061	f3 0f 11 40 08	 movss	 DWORD PTR [eax+8], xmm0
; File C:\IAGOS\server\v18\Source\Source\_Common\GuildHouse.h

; 219  : 	virtual D3DXVECTOR3 GetEnterPos() { return D3DXVECTOR3( (float)( xRandom( 78, 83 ) ), 100.0f, (float)( xRandom( 61, 66 ) ) ); }

  00066	8b e5		 mov	 esp, ebp
  00068	5d		 pop	 ebp
  00069	c2 04 00	 ret	 4
?GetEnterPos@CGuildHouseSmall@@EAE?AUD3DXVECTOR3@@XZ ENDP ; CGuildHouseSmall::GetEnterPos
_TEXT	ENDS
; Function compile flags: /Ogtp
; File C:\IAGOS\server\v18\Source\Source\_Common\GuildHouse.h
;	COMDAT ?GetRestPointFactor@CGuildHouseSmall@@UAEMXZ
_TEXT	SEGMENT
?GetRestPointFactor@CGuildHouseSmall@@UAEMXZ PROC	; CGuildHouseSmall::GetRestPointFactor, COMDAT
; _this$ = ecx

; 217  : 	virtual float		GetRestPointFactor() { return 1.0f; }

  00000	d9 e8		 fld1
  00002	c3		 ret	 0
?GetRestPointFactor@CGuildHouseSmall@@UAEMXZ ENDP	; CGuildHouseSmall::GetRestPointFactor
_TEXT	ENDS
; Function compile flags: /Ogtp
; File C:\IAGOS\server\v18\Source\Source\_Common\GuildHouse.h
; File C:\IAGOS\server\v18\Source\Source\DX_SDK\d3dx9math.inl
; File C:\IAGOS\server\v18\Source\Source\_Common\GuildHouse.h
;	COMDAT ?GetTeleporterPos@CGuildHouseSmall@@UAE?AUD3DXVECTOR3@@XZ
_TEXT	SEGMENT
___$ReturnUdt$ = 8					; size = 4
?GetTeleporterPos@CGuildHouseSmall@@UAE?AUD3DXVECTOR3@@XZ PROC ; CGuildHouseSmall::GetTeleporterPos, COMDAT
; _this$ = ecx

; 212  : 	virtual D3DXVECTOR3 GetTeleporterPos()	{ return D3DXVECTOR3( 80.0f, 100.0f, 75.0f ); }

  00000	55		 push	 ebp
  00001	8b ec		 mov	 ebp, esp
; File C:\IAGOS\server\v18\Source\Source\DX_SDK\d3dx9math.inl

; 300  :     x = fx;

  00003	8b 45 08	 mov	 eax, DWORD PTR ___$ReturnUdt$[ebp]
  00006	c7 00 00 00 a0
	42		 mov	 DWORD PTR [eax], 1117782016 ; 42a00000H

; 301  :     y = fy;

  0000c	c7 40 04 00 00
	c8 42		 mov	 DWORD PTR [eax+4], 1120403456 ; 42c80000H

; 302  :     z = fz;

  00013	c7 40 08 00 00
	96 42		 mov	 DWORD PTR [eax+8], 1117126656 ; 42960000H
; File C:\IAGOS\server\v18\Source\Source\_Common\GuildHouse.h

; 212  : 	virtual D3DXVECTOR3 GetTeleporterPos()	{ return D3DXVECTOR3( 80.0f, 100.0f, 75.0f ); }

  0001a	5d		 pop	 ebp
  0001b	c2 04 00	 ret	 4
?GetTeleporterPos@CGuildHouseSmall@@UAE?AUD3DXVECTOR3@@XZ ENDP ; CGuildHouseSmall::GetTeleporterPos
_TEXT	ENDS
; Function compile flags: /Ogtp
; File C:\IAGOS\server\v18\Source\Source\_Common\GuildHouse.cpp
;	COMDAT ??1CGuildHouseSmall@@UAE@XZ
_TEXT	SEGMENT
??1CGuildHouseSmall@@UAE@XZ PROC			; CGuildHouseSmall::~CGuildHouseSmall, COMDAT
; _this$ = ecx

; 996  : {

  00000	c7 01 00 00 00
	00		 mov	 DWORD PTR [ecx], OFFSET ??_7CGuildHouseSmall@@6B@

; 997  : }

  00006	e9 00 00 00 00	 jmp	 ??1CGuildHouseBase@@UAE@XZ ; CGuildHouseBase::~CGuildHouseBase
??1CGuildHouseSmall@@UAE@XZ ENDP			; CGuildHouseSmall::~CGuildHouseSmall
_TEXT	ENDS
; Function compile flags: /Ogtp
; File C:\IAGOS\server\v18\Source\Source\_Common\GuildHouse.cpp
;	COMDAT ??0CGuildHouseSmall@@QAE@K@Z
_TEXT	SEGMENT
_this$ = -4						; size = 4
_dwGuildId$ = 8						; size = 4
??0CGuildHouseSmall@@QAE@K@Z PROC			; CGuildHouseSmall::CGuildHouseSmall, COMDAT
; _this$ = ecx

; 992  : {

  00000	55		 push	 ebp
  00001	8b ec		 mov	 ebp, esp
  00003	51		 push	 ecx
  00004	56		 push	 esi
  00005	68 d4 00 00 00	 push	 212			; 000000d4H
  0000a	ff 75 08	 push	 DWORD PTR _dwGuildId$[ebp]
  0000d	8b f1		 mov	 esi, ecx
  0000f	89 75 fc	 mov	 DWORD PTR _this$[ebp], esi
  00012	e8 00 00 00 00	 call	 ??0CGuildHouseBase@@QAE@KK@Z ; CGuildHouseBase::CGuildHouseBase
  00017	c7 06 00 00 00
	00		 mov	 DWORD PTR [esi], OFFSET ??_7CGuildHouseSmall@@6B@

; 993  : }

  0001d	8b c6		 mov	 eax, esi
  0001f	5e		 pop	 esi
  00020	8b e5		 mov	 esp, ebp
  00022	5d		 pop	 ebp
  00023	c2 04 00	 ret	 4
??0CGuildHouseSmall@@QAE@K@Z ENDP			; CGuildHouseSmall::CGuildHouseSmall
_TEXT	ENDS
; Function compile flags: /Ogtp
;	COMDAT ??_GCGuildHouseBase@@UAEPAXI@Z
_TEXT	SEGMENT
___flags$ = 8						; size = 4
??_GCGuildHouseBase@@UAEPAXI@Z PROC			; CGuildHouseBase::`scalar deleting destructor', COMDAT
; _this$ = ecx
  00000	55		 push	 ebp
  00001	8b ec		 mov	 ebp, esp
  00003	56		 push	 esi
  00004	8b f1		 mov	 esi, ecx
  00006	e8 00 00 00 00	 call	 ??1CGuildHouseBase@@UAE@XZ ; CGuildHouseBase::~CGuildHouseBase
  0000b	f6 45 08 01	 test	 BYTE PTR ___flags$[ebp], 1
  0000f	74 0b		 je	 SHORT $LN5@scalar
  00011	6a 20		 push	 32			; 00000020H
  00013	56		 push	 esi
  00014	e8 00 00 00 00	 call	 ??3@YAXPAXI@Z		; operator delete
  00019	83 c4 08	 add	 esp, 8
$LN5@scalar:
  0001c	8b c6		 mov	 eax, esi
  0001e	5e		 pop	 esi
  0001f	5d		 pop	 ebp
  00020	c2 04 00	 ret	 4
??_GCGuildHouseBase@@UAEPAXI@Z ENDP			; CGuildHouseBase::`scalar deleting destructor'
_TEXT	ENDS
; Function compile flags: /Ogtp
; File C:\IAGOS\server\v18\Source\Source\_Common\GuildHouse.cpp
; File C:\Program Files\Microsoft Visual Studio\2022\Professional\VC\Tools\MSVC\14.44.35207\include\vector
; File C:\IAGOS\server\v18\Source\Source\_Common\GuildHouse.cpp
; File C:\IAGOS\server\v18\Source\Source\_Common\Project.h
; File C:\IAGOS\server\v18\Source\Source\_Common\data.h
; File C:\IAGOS\server\v18\Source\Source\_Common\GuildHouse.cpp
; File C:\Program Files\Microsoft Visual Studio\2022\Professional\VC\Tools\MSVC\14.44.35207\include\vector
; File C:\IAGOS\server\v18\Source\Source\_Common\GuildHouse.cpp
; File C:\Program Files\Microsoft Visual Studio\2022\Professional\VC\Tools\MSVC\14.44.35207\include\vector
; File C:\IAGOS\server\v18\Source\Source\_Common\GuildHouse.cpp
; File C:\Program Files\Microsoft Visual Studio\2022\Professional\VC\Tools\MSVC\14.44.35207\include\vector
; File C:\IAGOS\server\v18\Source\Source\_Common\GuildHouse.cpp
; File C:\IAGOS\server\v18\Source\Source\_Common\Project.h
; File C:\IAGOS\server\v18\Source\Source\_Common\data.h
; File C:\IAGOS\server\v18\Source\Source\_Common\GuildHouse.cpp
; File C:\IAGOS\server\v18\Source\Source\_Common\Project.h
; File C:\IAGOS\server\v18\Source\Source\_Common\GuildHouse.cpp
; File C:\Program Files\Microsoft Visual Studio\2022\Professional\VC\Tools\MSVC\14.44.35207\include\vector
; File C:\IAGOS\server\v18\Source\Source\_Common\GuildHouse.cpp
; File C:\Program Files\Microsoft Visual Studio\2022\Professional\VC\Tools\MSVC\14.44.35207\include\vector
; File C:\IAGOS\server\v18\Source\Source\_Common\GuildHouse.cpp
; File C:\IAGOS\server\v18\Source\Source\_Common\Project.h
; File C:\IAGOS\server\v18\Source\Source\_Common\GuildHouse.cpp
;	COMDAT ?IsListUpAble@CGuildHouseBase@@AAEHK@Z
_TEXT	SEGMENT
_this$1$ = -12						; size = 4
_nMaxNum$1$ = -8					; size = 4
_i$1$ = -4						; size = 4
_dwItemId$ = 8						; size = 4
$T1 = 8							; size = 4
?IsListUpAble@CGuildHouseBase@@AAEHK@Z PROC		; CGuildHouseBase::IsListUpAble, COMDAT
; _this$ = ecx

; 681  : {

  00000	55		 push	 ebp
  00001	8b ec		 mov	 ebp, esp
  00003	83 ec 0c	 sub	 esp, 12			; 0000000cH
  00006	53		 push	 ebx
  00007	8b d9		 mov	 ebx, ecx
  00009	56		 push	 esi
  0000a	57		 push	 edi
  0000b	89 5d f4	 mov	 DWORD PTR _this$1$[ebp], ebx
; File C:\Program Files\Microsoft Visual Studio\2022\Professional\VC\Tools\MSVC\14.44.35207\include\vector

; 1915 :         return static_cast<size_type>(_My_data._Mylast - _My_data._Myfirst);

  0000e	8b 43 10	 mov	 eax, DWORD PTR [ebx+16]
  00011	2b 43 0c	 sub	 eax, DWORD PTR [ebx+12]
  00014	c1 f8 05	 sar	 eax, 5
; File C:\IAGOS\server\v18\Source\Source\_Common\GuildHouse.cpp

; 682  : 	if( m_vecFntInfo.size() >= MAX_LISTUP_NUM )

  00017	3d c8 00 00 00	 cmp	 eax, 200		; 000000c8H
  0001c	0f 83 ea 00 00
	00		 jae	 $LN44@IsListUpAb
; File C:\IAGOS\server\v18\Source\Source\_Common\Project.h

; 1389 : 	VERIFY_RANGE_ASSERT( nIndex, 0, m_aPropItem.GetSize(), "GetItemProp range_error", NULL );

  00022	8b 4d 08	 mov	 ecx, DWORD PTR _dwItemId$[ebp]
  00025	a1 40 02 00 00	 mov	 eax, DWORD PTR ?prj@@3VCProject@@A+576
  0002a	85 c9		 test	 ecx, ecx
  0002c	0f 88 c4 00 00
	00		 js	 $LN18@IsListUpAb
  00032	3b c8		 cmp	 ecx, eax
  00034	0f 8d bc 00 00
	00		 jge	 $LN18@IsListUpAb
; File C:\IAGOS\server\v18\Source\Source\_Common\data.h

; 270  : 	if( dwIndex >= (DWORD)m_nMaxIndex )

  0003a	72 04		 jb	 SHORT $LN23@IsListUpAb

; 271  : 		return NULL;

  0003c	33 c9		 xor	 ecx, ecx
  0003e	eb 08		 jmp	 SHORT $LN62@IsListUpAb
$LN23@IsListUpAb:

; 272  : 	return (T*) m_apOffset[ dwIndex ];

  00040	a1 30 02 00 00	 mov	 eax, DWORD PTR ?prj@@3VCProject@@A+560
  00045	8b 0c 88	 mov	 ecx, DWORD PTR [eax+ecx*4]
$LN62@IsListUpAb:
; File C:\IAGOS\server\v18\Source\Source\_Common\GuildHouse.cpp

; 686  : 	if( !pItemProp )

  00048	89 4d 08	 mov	 DWORD PTR $T1[ebp], ecx
  0004b	85 c9		 test	 ecx, ecx
  0004d	0f 84 b9 00 00
	00		 je	 $LN44@IsListUpAb

; 689  : 	int nMaxNum = GetMaxListUpNum( pItemProp );

  00053	8b 03		 mov	 eax, DWORD PTR [ebx]
  00055	51		 push	 ecx
  00056	8b cb		 mov	 ecx, ebx
  00058	ff 50 08	 call	 DWORD PTR [eax+8]
; File C:\Program Files\Microsoft Visual Studio\2022\Professional\VC\Tools\MSVC\14.44.35207\include\vector

; 1915 :         return static_cast<size_type>(_My_data._Mylast - _My_data._Myfirst);

  0005b	8b 4b 10	 mov	 ecx, DWORD PTR [ebx+16]
; File C:\IAGOS\server\v18\Source\Source\_Common\GuildHouse.cpp

; 690  : 	int nItemCount = 0;

  0005e	33 ff		 xor	 edi, edi
; File C:\Program Files\Microsoft Visual Studio\2022\Professional\VC\Tools\MSVC\14.44.35207\include\vector

; 1915 :         return static_cast<size_type>(_My_data._Mylast - _My_data._Myfirst);

  00060	8b 73 0c	 mov	 esi, DWORD PTR [ebx+12]
  00063	2b ce		 sub	 ecx, esi
; File C:\IAGOS\server\v18\Source\Source\_Common\GuildHouse.cpp

; 689  : 	int nMaxNum = GetMaxListUpNum( pItemProp );

  00065	89 45 f8	 mov	 DWORD PTR _nMaxNum$1$[ebp], eax

; 691  : 	for( int i=0; i<(int)( m_vecFntInfo.size() ); i++ )

  00068	89 7d fc	 mov	 DWORD PTR _i$1$[ebp], edi
  0006b	f7 c1 e0 ff ff
	ff		 test	 ecx, -32		; ffffffe0H
  00071	7e 75		 jle	 SHORT $LN3@IsListUpAb
; File C:\Program Files\Microsoft Visual Studio\2022\Professional\VC\Tools\MSVC\14.44.35207\include\vector

; 1914 :         auto& _My_data = _Mypair._Myval2;

  00073	8b 15 40 02 00
	00		 mov	 edx, DWORD PTR ?prj@@3VCProject@@A+576
  00079	33 db		 xor	 ebx, ebx
  0007b	0f 1f 44 00 00	 npad	 5
$LL4@IsListUpAb:
; File C:\IAGOS\server\v18\Source\Source\_Common\GuildHouse.cpp

; 693  : 		ItemProp* pTargetProp = prj.GetItemProp( m_vecFntInfo[i].dwItemId );

  00080	8b 0c 33	 mov	 ecx, DWORD PTR [ebx+esi]
; File C:\IAGOS\server\v18\Source\Source\_Common\Project.h

; 1389 : 	VERIFY_RANGE_ASSERT( nIndex, 0, m_aPropItem.GetSize(), "GetItemProp range_error", NULL );

  00083	85 c9		 test	 ecx, ecx
  00085	78 24		 js	 SHORT $LN36@IsListUpAb
  00087	3b ca		 cmp	 ecx, edx
  00089	7d 20		 jge	 SHORT $LN36@IsListUpAb
; File C:\IAGOS\server\v18\Source\Source\_Common\data.h

; 270  : 	if( dwIndex >= (DWORD)m_nMaxIndex )

  0008b	72 04		 jb	 SHORT $LN41@IsListUpAb

; 271  : 		return NULL;

  0008d	33 c9		 xor	 ecx, ecx
  0008f	eb 08		 jmp	 SHORT $LN40@IsListUpAb
$LN41@IsListUpAb:

; 272  : 	return (T*) m_apOffset[ dwIndex ];

  00091	a1 30 02 00 00	 mov	 eax, DWORD PTR ?prj@@3VCProject@@A+560
  00096	8b 0c 88	 mov	 ecx, DWORD PTR [eax+ecx*4]
$LN40@IsListUpAb:
; File C:\IAGOS\server\v18\Source\Source\_Common\GuildHouse.cpp

; 694  : 		if( pTargetProp && pItemProp->dwItemKind3 == pTargetProp->dwItemKind3 )

  00099	85 c9		 test	 ecx, ecx
  0009b	74 2a		 je	 SHORT $LN7@IsListUpAb
  0009d	8b 45 08	 mov	 eax, DWORD PTR $T1[ebp]
  000a0	8b 40 78	 mov	 eax, DWORD PTR [eax+120]
  000a3	3b 41 78	 cmp	 eax, DWORD PTR [ecx+120]
  000a6	75 1f		 jne	 SHORT $LN7@IsListUpAb

; 695  : 			nItemCount++;

  000a8	47		 inc	 edi
  000a9	eb 1c		 jmp	 SHORT $LN7@IsListUpAb
$LN36@IsListUpAb:
; File C:\IAGOS\server\v18\Source\Source\_Common\Project.h

; 579  : 	LPCTSTR szErr = Error( _T( "%s min:%d, max:%d, index:%d" ), szMsg, nMin, nMax, nIndex ); 

  000ab	51		 push	 ecx
  000ac	52		 push	 edx
  000ad	6a 00		 push	 0
  000af	68 00 00 00 00	 push	 OFFSET ??_C@_0BI@BEIFNGEL@GetItemProp?5range_error@
  000b4	68 00 00 00 00	 push	 OFFSET ??_C@_0BM@HMFGHCP@?$CFs?5min?3?$CFd?0?5max?3?$CFd?0?5index?3?$CFd@
  000b9	e8 00 00 00 00	 call	 ?Error@@YAPBDPBDZZ	; Error
  000be	8b 15 40 02 00
	00		 mov	 edx, DWORD PTR ?prj@@3VCProject@@A+576
  000c4	83 c4 14	 add	 esp, 20			; 00000014H
$LN7@IsListUpAb:
; File C:\IAGOS\server\v18\Source\Source\_Common\GuildHouse.cpp

; 697  : 		if( nItemCount >= nMaxNum )

  000c7	3b 7d f8	 cmp	 edi, DWORD PTR _nMaxNum$1$[ebp]
  000ca	7d 40		 jge	 SHORT $LN44@IsListUpAb
; File C:\Program Files\Microsoft Visual Studio\2022\Professional\VC\Tools\MSVC\14.44.35207\include\vector

; 1915 :         return static_cast<size_type>(_My_data._Mylast - _My_data._Myfirst);

  000cc	8b 45 f4	 mov	 eax, DWORD PTR _this$1$[ebp]
; File C:\IAGOS\server\v18\Source\Source\_Common\GuildHouse.cpp

; 691  : 	for( int i=0; i<(int)( m_vecFntInfo.size() ); i++ )

  000cf	83 c3 20	 add	 ebx, 32			; 00000020H
  000d2	8b 4d fc	 mov	 ecx, DWORD PTR _i$1$[ebp]
  000d5	41		 inc	 ecx
  000d6	89 4d fc	 mov	 DWORD PTR _i$1$[ebp], ecx
; File C:\Program Files\Microsoft Visual Studio\2022\Professional\VC\Tools\MSVC\14.44.35207\include\vector

; 1915 :         return static_cast<size_type>(_My_data._Mylast - _My_data._Myfirst);

  000d9	8b 70 0c	 mov	 esi, DWORD PTR [eax+12]
  000dc	8b 40 10	 mov	 eax, DWORD PTR [eax+16]
  000df	2b c6		 sub	 eax, esi
  000e1	c1 f8 05	 sar	 eax, 5
; File C:\IAGOS\server\v18\Source\Source\_Common\GuildHouse.cpp

; 691  : 	for( int i=0; i<(int)( m_vecFntInfo.size() ); i++ )

  000e4	3b c8		 cmp	 ecx, eax
  000e6	7c 98		 jl	 SHORT $LL4@IsListUpAb
$LN3@IsListUpAb:
  000e8	5f		 pop	 edi

; 702  : }

  000e9	5e		 pop	 esi
  000ea	b8 01 00 00 00	 mov	 eax, 1
  000ef	5b		 pop	 ebx
  000f0	8b e5		 mov	 esp, ebp
  000f2	5d		 pop	 ebp
  000f3	c2 04 00	 ret	 4
$LN18@IsListUpAb:
; File C:\IAGOS\server\v18\Source\Source\_Common\Project.h

; 579  : 	LPCTSTR szErr = Error( _T( "%s min:%d, max:%d, index:%d" ), szMsg, nMin, nMax, nIndex ); 

  000f6	51		 push	 ecx
  000f7	50		 push	 eax
  000f8	6a 00		 push	 0
  000fa	68 00 00 00 00	 push	 OFFSET ??_C@_0BI@BEIFNGEL@GetItemProp?5range_error@
  000ff	68 00 00 00 00	 push	 OFFSET ??_C@_0BM@HMFGHCP@?$CFs?5min?3?$CFd?0?5max?3?$CFd?0?5index?3?$CFd@
  00104	e8 00 00 00 00	 call	 ?Error@@YAPBDPBDZZ	; Error
  00109	83 c4 14	 add	 esp, 20			; 00000014H
$LN44@IsListUpAb:
  0010c	5f		 pop	 edi
; File C:\IAGOS\server\v18\Source\Source\_Common\GuildHouse.cpp

; 702  : }

  0010d	5e		 pop	 esi
  0010e	33 c0		 xor	 eax, eax
  00110	5b		 pop	 ebx
  00111	8b e5		 mov	 esp, ebp
  00113	5d		 pop	 ebp
  00114	c2 04 00	 ret	 4
?IsListUpAble@CGuildHouseBase@@AAEHK@Z ENDP		; CGuildHouseBase::IsListUpAble
_TEXT	ENDS
; Function compile flags: /Ogtp
; File C:\IAGOS\server\v18\Source\Source\_Common\GuildHouse.cpp
; File C:\Program Files\Microsoft Visual Studio\2022\Professional\VC\Tools\MSVC\14.44.35207\include\vector
; File C:\IAGOS\server\v18\Source\Source\_Common\GuildHouse.cpp
; File C:\Program Files\Microsoft Visual Studio\2022\Professional\VC\Tools\MSVC\14.44.35207\include\vector
; File C:\IAGOS\server\v18\Source\Source\_Common\GuildHouse.cpp
; File C:\Program Files\Microsoft Visual Studio\2022\Professional\VC\Tools\MSVC\14.44.35207\include\vector
; File C:\IAGOS\server\v18\Source\Source\_Common\GuildHouse.cpp
; File C:\Program Files\Microsoft Visual Studio\2022\Professional\VC\Tools\MSVC\14.44.35207\include\vector
; File C:\IAGOS\server\v18\Source\Source\_Common\GuildHouse.cpp
; File C:\Program Files\Microsoft Visual Studio\2022\Professional\VC\Tools\MSVC\14.44.35207\include\vector
; File C:\IAGOS\server\v18\Source\Source\_Common\GuildHouse.cpp
; File C:\Program Files\Microsoft Visual Studio\2022\Professional\VC\Tools\MSVC\14.44.35207\include\vector
; File C:\IAGOS\server\v18\Source\Source\_Common\GuildHouse.cpp
; File C:\IAGOS\server\v18\Source\Source\_Common\World.h
; File C:\IAGOS\server\v18\Source\Source\_Common\GuildHouse.cpp
;	COMDAT ?DestroyGuildHouseRoom@CGuildHouseBase@@AAEHXZ
_TEXT	SEGMENT
tv271 = -4						; size = 4
?DestroyGuildHouseRoom@CGuildHouseBase@@AAEHXZ PROC	; CGuildHouseBase::DestroyGuildHouseRoom, COMDAT
; _this$ = ecx

; 331  : {

  00000	55		 push	 ebp
  00001	8b ec		 mov	 ebp, esp
  00003	51		 push	 ecx
  00004	56		 push	 esi
  00005	8b f1		 mov	 esi, ecx

; 332  : 	CWorld* pWorld = g_WorldMng.GetWorld( m_dwWorldId );

  00007	b9 00 00 00 00	 mov	 ecx, OFFSET ?g_WorldMng@@3VCWorldMng@@A ; g_WorldMng
  0000c	ff 76 08	 push	 DWORD PTR [esi+8]
  0000f	e8 00 00 00 00	 call	 ?GetWorld@CWorldMng@@QAEPAVCWorld@@K@Z ; CWorldMng::GetWorld

; 333  : 	if( !pWorld || !pWorld->m_linkMap.GetLinkMap( static_cast<int>( m_dwGuildId ) ) )

  00014	85 c0		 test	 eax, eax
  00016	74 74		 je	 SHORT $LN6@DestroyGui
  00018	ff 76 04	 push	 DWORD PTR [esi+4]
  0001b	83 c0 24	 add	 eax, 36			; 00000024H
  0001e	8b c8		 mov	 ecx, eax
  00020	89 45 fc	 mov	 DWORD PTR tv271[ebp], eax
  00023	e8 00 00 00 00	 call	 ?GetLinkMap@CLayeredLinkMap@@QAEPAVCLinkMap@@H@Z ; CLayeredLinkMap::GetLinkMap
  00028	85 c0		 test	 eax, eax
  0002a	74 60		 je	 SHORT $LN6@DestroyGui
; File C:\Program Files\Microsoft Visual Studio\2022\Professional\VC\Tools\MSVC\14.44.35207\include\vector

; 1915 :         return static_cast<size_type>(_My_data._Mylast - _My_data._Myfirst);

  0002c	8b 46 10	 mov	 eax, DWORD PTR [esi+16]
  0002f	8b 4e 0c	 mov	 ecx, DWORD PTR [esi+12]
  00032	2b c1		 sub	 eax, ecx
  00034	53		 push	 ebx
; File C:\IAGOS\server\v18\Source\Source\_Common\GuildHouse.cpp

; 336  : 	for( int i=0; i<(int)( m_vecFntInfo.size() ); i++ )

  00035	33 db		 xor	 ebx, ebx
  00037	a9 e0 ff ff ff	 test	 eax, -32		; ffffffe0H
  0003c	7e 36		 jle	 SHORT $LN3@DestroyGui
  0003e	57		 push	 edi
  0003f	33 ff		 xor	 edi, edi
$LL4@DestroyGui:

; 337  : 	{
; 338  : 		if( m_vecFntInfo[i].bSetup )

  00041	83 7c 0f 04 00	 cmp	 DWORD PTR [edi+ecx+4], 0
  00046	74 18		 je	 SHORT $LN2@DestroyGui

; 339  : 		{
; 340  : 			m_vecFntInfo[i].objId = NULL_ID;

  00048	c7 44 0f 18 ff
	ff ff ff	 mov	 DWORD PTR [edi+ecx+24], -1

; 341  : 			SendWorldToClient( GUILDHOUSE_PCKTTYPE_REFRESH, m_vecFntInfo[i], i );	// OBJID¸¦ ĂĘ±âČ­ ˝ĂĹ°°í ł˛Ŕş ˝Ă°ŁŔ» °»˝Ĺ˝ĂĹ˛´Ů.

  00050	8b ce		 mov	 ecx, esi
; File C:\Program Files\Microsoft Visual Studio\2022\Professional\VC\Tools\MSVC\14.44.35207\include\vector

; 1934 :         return _My_data._Myfirst[_Pos];

  00052	8b 46 0c	 mov	 eax, DWORD PTR [esi+12]
; File C:\IAGOS\server\v18\Source\Source\_Common\GuildHouse.cpp

; 341  : 			SendWorldToClient( GUILDHOUSE_PCKTTYPE_REFRESH, m_vecFntInfo[i], i );	// OBJID¸¦ ĂĘ±âČ­ ˝ĂĹ°°í ł˛Ŕş ˝Ă°ŁŔ» °»˝Ĺ˝ĂĹ˛´Ů.

  00055	53		 push	 ebx
; File C:\Program Files\Microsoft Visual Studio\2022\Professional\VC\Tools\MSVC\14.44.35207\include\vector

; 1934 :         return _My_data._Myfirst[_Pos];

  00056	03 c7		 add	 eax, edi
; File C:\IAGOS\server\v18\Source\Source\_Common\GuildHouse.cpp

; 341  : 			SendWorldToClient( GUILDHOUSE_PCKTTYPE_REFRESH, m_vecFntInfo[i], i );	// OBJID¸¦ ĂĘ±âČ­ ˝ĂĹ°°í ł˛Ŕş ˝Ă°ŁŔ» °»˝Ĺ˝ĂĹ˛´Ů.

  00058	50		 push	 eax
  00059	6a 05		 push	 5
  0005b	e8 00 00 00 00	 call	 ?SendWorldToClient@CGuildHouseBase@@QAEXHAAUGuildHouse_Furniture_Info@1@H@Z ; CGuildHouseBase::SendWorldToClient
$LN2@DestroyGui:
; File C:\Program Files\Microsoft Visual Studio\2022\Professional\VC\Tools\MSVC\14.44.35207\include\vector

; 1915 :         return static_cast<size_type>(_My_data._Mylast - _My_data._Myfirst);

  00060	8b 46 10	 mov	 eax, DWORD PTR [esi+16]
; File C:\IAGOS\server\v18\Source\Source\_Common\GuildHouse.cpp

; 336  : 	for( int i=0; i<(int)( m_vecFntInfo.size() ); i++ )

  00063	43		 inc	 ebx
; File C:\Program Files\Microsoft Visual Studio\2022\Professional\VC\Tools\MSVC\14.44.35207\include\vector

; 1915 :         return static_cast<size_type>(_My_data._Mylast - _My_data._Myfirst);

  00064	8b 4e 0c	 mov	 ecx, DWORD PTR [esi+12]
; File C:\IAGOS\server\v18\Source\Source\_Common\GuildHouse.cpp

; 336  : 	for( int i=0; i<(int)( m_vecFntInfo.size() ); i++ )

  00067	83 c7 20	 add	 edi, 32			; 00000020H
; File C:\Program Files\Microsoft Visual Studio\2022\Professional\VC\Tools\MSVC\14.44.35207\include\vector

; 1915 :         return static_cast<size_type>(_My_data._Mylast - _My_data._Myfirst);

  0006a	2b c1		 sub	 eax, ecx
  0006c	c1 f8 05	 sar	 eax, 5
; File C:\IAGOS\server\v18\Source\Source\_Common\GuildHouse.cpp

; 336  : 	for( int i=0; i<(int)( m_vecFntInfo.size() ); i++ )

  0006f	3b d8		 cmp	 ebx, eax
  00071	7c ce		 jl	 SHORT $LL4@DestroyGui
  00073	5f		 pop	 edi
$LN3@DestroyGui:
; File C:\IAGOS\server\v18\Source\Source\_Common\World.h

; 615  : 	void	Invalidate( int nLayer, BOOL bInvalid = TRUE )	{	m_linkMap.Invalidate( nLayer, bInvalid );	}

  00074	8b 4d fc	 mov	 ecx, DWORD PTR tv271[ebp]
  00077	6a 01		 push	 1
  00079	ff 76 04	 push	 DWORD PTR [esi+4]
  0007c	e8 00 00 00 00	 call	 ?Invalidate@CLayeredLinkMap@@QAEXHH@Z ; CLayeredLinkMap::Invalidate
; File C:\IAGOS\server\v18\Source\Source\_Common\GuildHouse.cpp

; 346  : 	return TRUE;

  00081	5b		 pop	 ebx
  00082	b8 01 00 00 00	 mov	 eax, 1
  00087	5e		 pop	 esi

; 347  : }

  00088	8b e5		 mov	 esp, ebp
  0008a	5d		 pop	 ebp
  0008b	c3		 ret	 0
$LN6@DestroyGui:

; 334  : 		return FALSE;

  0008c	33 c0		 xor	 eax, eax
  0008e	5e		 pop	 esi

; 347  : }

  0008f	8b e5		 mov	 esp, ebp
  00091	5d		 pop	 ebp
  00092	c3		 ret	 0
?DestroyGuildHouseRoom@CGuildHouseBase@@AAEHXZ ENDP	; CGuildHouseBase::DestroyGuildHouseRoom
_TEXT	ENDS
; Function compile flags: /Ogtp
; File C:\IAGOS\server\v18\Source\Source\_Common\GuildHouse.cpp
; File C:\Program Files\Microsoft Visual Studio\2022\Professional\VC\Tools\MSVC\14.44.35207\include\vector
; File C:\IAGOS\server\v18\Source\Source\_Common\GuildHouse.cpp
; File C:\Program Files\Microsoft Visual Studio\2022\Professional\VC\Tools\MSVC\14.44.35207\include\vector
; File C:\IAGOS\server\v18\Source\Source\_Common\GuildHouse.cpp
; File C:\Program Files\Microsoft Visual Studio\2022\Professional\VC\Tools\MSVC\14.44.35207\include\vector
; File C:\IAGOS\server\v18\Source\Source\_Common\GuildHouse.cpp
; File C:\Program Files\Microsoft Visual Studio\2022\Professional\VC\Tools\MSVC\14.44.35207\include\vector
; File C:\IAGOS\server\v18\Source\Source\_Common\GuildHouse.cpp
; File C:\Program Files\Microsoft Visual Studio\2022\Professional\VC\Tools\MSVC\14.44.35207\include\vector
; File C:\IAGOS\server\v18\Source\Source\_Common\GuildHouse.cpp
; File C:\Program Files\Microsoft Visual Studio\2022\Professional\VC\Tools\MSVC\14.44.35207\include\vector
; File C:\IAGOS\server\v18\Source\Source\_Common\GuildHouse.cpp
; File C:\Program Files\Microsoft Visual Studio\2022\Professional\VC\Tools\MSVC\14.44.35207\include\vector
; File C:\IAGOS\server\v18\Source\Source\_Common\GuildHouse.cpp
;	COMDAT ?CreateGuildHouseRoom@CGuildHouseBase@@AAEHXZ
_TEXT	SEGMENT
?CreateGuildHouseRoom@CGuildHouseBase@@AAEHXZ PROC	; CGuildHouseBase::CreateGuildHouseRoom, COMDAT
; _this$ = ecx

; 307  : {

  00000	56		 push	 esi
  00001	8b f1		 mov	 esi, ecx

; 308  : 	CWorld* pWorld = g_WorldMng.GetWorld( m_dwWorldId );

  00003	b9 00 00 00 00	 mov	 ecx, OFFSET ?g_WorldMng@@3VCWorldMng@@A ; g_WorldMng
  00008	57		 push	 edi
  00009	ff 76 08	 push	 DWORD PTR [esi+8]
  0000c	e8 00 00 00 00	 call	 ?GetWorld@CWorldMng@@QAEPAVCWorld@@K@Z ; CWorldMng::GetWorld
  00011	8b f8		 mov	 edi, eax

; 309  : 	if( !pWorld ) return FALSE;

  00013	85 ff		 test	 edi, edi
  00015	74 78		 je	 SHORT $LN7@CreateGuil

; 310  : 		
; 311  : 	if( pWorld->m_linkMap.GetLinkMap( static_cast<int>( m_dwGuildId ) ) )

  00017	ff 76 04	 push	 DWORD PTR [esi+4]
  0001a	8d 4f 24	 lea	 ecx, DWORD PTR [edi+36]
  0001d	e8 00 00 00 00	 call	 ?GetLinkMap@CLayeredLinkMap@@QAEPAVCLinkMap@@H@Z ; CLayeredLinkMap::GetLinkMap
  00022	85 c0		 test	 eax, eax
  00024	75 61		 jne	 SHORT $LN3@CreateGuil

; 312  : 		return TRUE;
; 313  : 
; 314  : 	if( pWorld->CreateLayer( static_cast<int>( m_dwGuildId ) ) )

  00026	ff 76 04	 push	 DWORD PTR [esi+4]
  00029	8b cf		 mov	 ecx, edi
  0002b	e8 00 00 00 00	 call	 ?CreateLayer@CWorld@@QAEHH@Z ; CWorld::CreateLayer
  00030	85 c0		 test	 eax, eax
  00032	74 5b		 je	 SHORT $LN7@CreateGuil
; File C:\Program Files\Microsoft Visual Studio\2022\Professional\VC\Tools\MSVC\14.44.35207\include\vector

; 1915 :         return static_cast<size_type>(_My_data._Mylast - _My_data._Myfirst);

  00034	8b 46 10	 mov	 eax, DWORD PTR [esi+16]
; File C:\IAGOS\server\v18\Source\Source\_Common\GuildHouse.cpp

; 316  : 		for( int i=0; i<(int)( m_vecFntInfo.size() ); i++ )

  00037	33 ff		 xor	 edi, edi
; File C:\Program Files\Microsoft Visual Studio\2022\Professional\VC\Tools\MSVC\14.44.35207\include\vector

; 1915 :         return static_cast<size_type>(_My_data._Mylast - _My_data._Myfirst);

  00039	8b 4e 0c	 mov	 ecx, DWORD PTR [esi+12]
  0003c	2b c1		 sub	 eax, ecx
; File C:\IAGOS\server\v18\Source\Source\_Common\GuildHouse.cpp

; 316  : 		for( int i=0; i<(int)( m_vecFntInfo.size() ); i++ )

  0003e	a9 e0 ff ff ff	 test	 eax, -32		; ffffffe0H
  00043	7e 42		 jle	 SHORT $LN3@CreateGuil
  00045	53		 push	 ebx
  00046	33 db		 xor	 ebx, ebx
  00048	0f 1f 84 00 00
	00 00 00	 npad	 8
$LL4@CreateGuil:

; 317  : 		{
; 318  : 			if( m_vecFntInfo[i].bSetup )

  00050	83 7c 0b 04 00	 cmp	 DWORD PTR [ebx+ecx+4], 0
  00055	8d 04 0b	 lea	 eax, DWORD PTR [ebx+ecx]
  00058	74 19		 je	 SHORT $LN2@CreateGuil

; 319  : 			{
; 320  : 				SetupFurnitureCtrl( i, m_vecFntInfo[i] );

  0005a	50		 push	 eax
  0005b	57		 push	 edi
  0005c	8b ce		 mov	 ecx, esi
  0005e	e8 00 00 00 00	 call	 ?SetupFurnitureCtrl@CGuildHouseBase@@AAEHHAAUGuildHouse_Furniture_Info@1@@Z ; CGuildHouseBase::SetupFurnitureCtrl
; File C:\Program Files\Microsoft Visual Studio\2022\Professional\VC\Tools\MSVC\14.44.35207\include\vector

; 1934 :         return _My_data._Myfirst[_Pos];

  00063	8b 46 0c	 mov	 eax, DWORD PTR [esi+12]
; File C:\IAGOS\server\v18\Source\Source\_Common\GuildHouse.cpp

; 321  : 				SendWorldToClient( GUILDHOUSE_PCKTTYPE_REFRESH, m_vecFntInfo[i], i );	// OBJIDżÍ ł˛Ŕş ˝Ă°ŁŔ» °»˝Ĺ˝ĂĹ˛´Ů.

  00066	8b ce		 mov	 ecx, esi
  00068	57		 push	 edi
; File C:\Program Files\Microsoft Visual Studio\2022\Professional\VC\Tools\MSVC\14.44.35207\include\vector

; 1934 :         return _My_data._Myfirst[_Pos];

  00069	03 c3		 add	 eax, ebx
; File C:\IAGOS\server\v18\Source\Source\_Common\GuildHouse.cpp

; 321  : 				SendWorldToClient( GUILDHOUSE_PCKTTYPE_REFRESH, m_vecFntInfo[i], i );	// OBJIDżÍ ł˛Ŕş ˝Ă°ŁŔ» °»˝Ĺ˝ĂĹ˛´Ů.

  0006b	50		 push	 eax
  0006c	6a 05		 push	 5
  0006e	e8 00 00 00 00	 call	 ?SendWorldToClient@CGuildHouseBase@@QAEXHAAUGuildHouse_Furniture_Info@1@H@Z ; CGuildHouseBase::SendWorldToClient
$LN2@CreateGuil:
; File C:\Program Files\Microsoft Visual Studio\2022\Professional\VC\Tools\MSVC\14.44.35207\include\vector

; 1915 :         return static_cast<size_type>(_My_data._Mylast - _My_data._Myfirst);

  00073	8b 46 10	 mov	 eax, DWORD PTR [esi+16]
; File C:\IAGOS\server\v18\Source\Source\_Common\GuildHouse.cpp

; 316  : 		for( int i=0; i<(int)( m_vecFntInfo.size() ); i++ )

  00076	47		 inc	 edi
; File C:\Program Files\Microsoft Visual Studio\2022\Professional\VC\Tools\MSVC\14.44.35207\include\vector

; 1915 :         return static_cast<size_type>(_My_data._Mylast - _My_data._Myfirst);

  00077	8b 4e 0c	 mov	 ecx, DWORD PTR [esi+12]
; File C:\IAGOS\server\v18\Source\Source\_Common\GuildHouse.cpp

; 316  : 		for( int i=0; i<(int)( m_vecFntInfo.size() ); i++ )

  0007a	83 c3 20	 add	 ebx, 32			; 00000020H
; File C:\Program Files\Microsoft Visual Studio\2022\Professional\VC\Tools\MSVC\14.44.35207\include\vector

; 1915 :         return static_cast<size_type>(_My_data._Mylast - _My_data._Myfirst);

  0007d	2b c1		 sub	 eax, ecx
  0007f	c1 f8 05	 sar	 eax, 5
; File C:\IAGOS\server\v18\Source\Source\_Common\GuildHouse.cpp

; 316  : 		for( int i=0; i<(int)( m_vecFntInfo.size() ); i++ )

  00082	3b f8		 cmp	 edi, eax
  00084	7c ca		 jl	 SHORT $LL4@CreateGuil
  00086	5b		 pop	 ebx
$LN3@CreateGuil:
  00087	5f		 pop	 edi

; 322  : 			}
; 323  : 		}
; 324  : 		return TRUE;

  00088	b8 01 00 00 00	 mov	 eax, 1

; 328  : }

  0008d	5e		 pop	 esi
  0008e	c3		 ret	 0
$LN7@CreateGuil:
  0008f	5f		 pop	 edi

; 325  : 	}
; 326  : 
; 327  : 	return FALSE;

  00090	33 c0		 xor	 eax, eax

; 328  : }

  00092	5e		 pop	 esi
  00093	c3		 ret	 0
?CreateGuildHouseRoom@CGuildHouseBase@@AAEHXZ ENDP	; CGuildHouseBase::CreateGuildHouseRoom
_TEXT	ENDS
; Function compile flags: /Ogtp
; File C:\IAGOS\server\v18\Source\Source\_Common\GuildHouse.cpp
; File C:\Program Files\Microsoft Visual Studio\2022\Professional\VC\Tools\MSVC\14.44.35207\include\xtree
; File C:\IAGOS\server\v18\Source\Source\_Common\GuildHouse.cpp
; File C:\Program Files\Microsoft Visual Studio\2022\Professional\VC\Tools\MSVC\14.44.35207\include\xtree
; File C:\IAGOS\server\v18\Source\Source\_Common\GuildHouse.cpp
; File C:\Program Files\Microsoft Visual Studio\2022\Professional\VC\Tools\MSVC\14.44.35207\include\xtree
; File C:\Program Files\Microsoft Visual Studio\2022\Professional\VC\Tools\MSVC\14.44.35207\include\type_traits
; File C:\Program Files\Microsoft Visual Studio\2022\Professional\VC\Tools\MSVC\14.44.35207\include\xtree
; File C:\Program Files\Microsoft Visual Studio\2022\Professional\VC\Tools\MSVC\14.44.35207\include\type_traits
; File C:\Program Files\Microsoft Visual Studio\2022\Professional\VC\Tools\MSVC\14.44.35207\include\xtree
; File C:\IAGOS\server\v18\Source\Source\_Common\Project.h
; File C:\IAGOS\server\v18\Source\Source\_Common\Obj.h
; File C:\IAGOS\server\v18\Source\Source\_Common\GuildHouse.cpp
; File C:\Program Files\Microsoft Visual Studio\2022\Professional\VC\Tools\MSVC\14.44.35207\include\xtree
; File C:\IAGOS\server\v18\Source\Source\_Common\GuildHouse.cpp
;	COMDAT ?ResetDSTFunriture@CGuildHouseBase@@AAEXPAUItemProp@@@Z
_TEXT	SEGMENT
_pGuild$1$ = -4						; size = 4
_pItemProp$ = 8						; size = 4
?ResetDSTFunriture@CGuildHouseBase@@AAEXPAUItemProp@@@Z PROC ; CGuildHouseBase::ResetDSTFunriture, COMDAT
; _this$ = ecx

; 660  : {

  00000	55		 push	 ebp
  00001	8b ec		 mov	 ebp, esp
  00003	51		 push	 ecx

; 661  : 	if( !pItemProp )

  00004	83 7d 08 00	 cmp	 DWORD PTR _pItemProp$[ebp], 0
  00008	0f 84 ec 00 00
	00		 je	 $LN3@ResetDSTFu

; 662  : 		return;
; 663  : 
; 664  : 	CGuild* pGuild = g_GuildMng.GetGuild( m_dwGuildId );

  0000e	57		 push	 edi
  0000f	ff 71 04	 push	 DWORD PTR [ecx+4]
  00012	b9 00 00 00 00	 mov	 ecx, OFFSET ?g_GuildMng@@3VCGuildMng@@A ; g_GuildMng
  00017	e8 00 00 00 00	 call	 ?GetGuild@CGuildMng@@QAEPAVCGuild@@K@Z ; CGuildMng::GetGuild
  0001c	8b f8		 mov	 edi, eax
  0001e	89 7d fc	 mov	 DWORD PTR _pGuild$1$[ebp], edi

; 665  : 	if( pGuild )

  00021	85 ff		 test	 edi, edi
  00023	0f 84 d0 00 00
	00		 je	 $LN165@ResetDSTFu
; File C:\Program Files\Microsoft Visual Studio\2022\Professional\VC\Tools\MSVC\14.44.35207\include\xtree

; 1142 :         return iterator(_Scary->_Myhead->_Left, _Scary);

  00029	8b 4f 38	 mov	 ecx, DWORD PTR [edi+56]
  0002c	56		 push	 esi

; 37   :     _Tree_unchecked_const_iterator(_Nodeptr _Pnode, const _Mytree* _Plist) noexcept : _Ptr(_Pnode) {

  0002d	8b 31		 mov	 esi, DWORD PTR [ecx]

; 237  :         return !(*this == _Right);

  0002f	3b f1		 cmp	 esi, ecx
; File C:\IAGOS\server\v18\Source\Source\_Common\GuildHouse.cpp

; 667  : 		for( map<u_long, CGuildMember*>::iterator it=pGuild->m_mapPMember.begin(); it!=pGuild->m_mapPMember.end(); it++ )

  00031	0f 84 c1 00 00
	00		 je	 $LN166@ResetDSTFu
  00037	53		 push	 ebx
  00038	8b 1d 28 00 00
	00		 mov	 ebx, DWORD PTR ?prj@@3VCProject@@A+40
  0003e	66 90		 npad	 2
$LL4@ResetDSTFu:
; File C:\Program Files\Microsoft Visual Studio\2022\Professional\VC\Tools\MSVC\14.44.35207\include\xtree

; 1630 :         _Tree_find_result<_Nodeptr> _Result{{_Scary->_Myhead->_Parent, _Tree_child::_Right}, _Scary->_Myhead};

  00040	8b 43 04	 mov	 eax, DWORD PTR [ebx+4]
  00043	8b cb		 mov	 ecx, ebx
; File C:\IAGOS\server\v18\Source\Source\_Common\GuildHouse.cpp

; 669  : 			CUser* pUser = static_cast<CUser*>( prj.GetUserByID( it->first ) );

  00045	8b 56 10	 mov	 edx, DWORD PTR [esi+16]
; File C:\Program Files\Microsoft Visual Studio\2022\Professional\VC\Tools\MSVC\14.44.35207\include\xtree

; 1632 :         while (!_Trynode->_Isnil) {

  00048	80 78 0d 00	 cmp	 BYTE PTR [eax+13], 0
  0004c	75 16		 jne	 SHORT $LN76@ResetDSTFu
  0004e	66 90		 npad	 2
$LL75@ResetDSTFu:
; File C:\Program Files\Microsoft Visual Studio\2022\Professional\VC\Tools\MSVC\14.44.35207\include\type_traits

; 2380 :         return _Left < _Right;

  00050	39 50 10	 cmp	 DWORD PTR [eax+16], edx
; File C:\Program Files\Microsoft Visual Studio\2022\Professional\VC\Tools\MSVC\14.44.35207\include\xtree

; 1634 :             if (_DEBUG_LT_PRED(_Getcomp(), _Traits::_Kfn(_Trynode->_Myval), _Keyval)) {

  00053	73 05		 jae	 SHORT $LN77@ResetDSTFu

; 1635 :                 _Result._Location._Child = _Tree_child::_Right;
; 1636 :                 _Trynode                 = _Trynode->_Right;

  00055	8b 40 08	 mov	 eax, DWORD PTR [eax+8]

; 1637 :             } else {

  00058	eb 04		 jmp	 SHORT $LN78@ResetDSTFu
$LN77@ResetDSTFu:

; 1638 :                 _Result._Location._Child = _Tree_child::_Left;
; 1639 :                 _Result._Bound           = _Trynode;

  0005a	8b c8		 mov	 ecx, eax

; 1640 :                 _Trynode                 = _Trynode->_Left;

  0005c	8b 00		 mov	 eax, DWORD PTR [eax]
$LN78@ResetDSTFu:

; 1632 :         while (!_Trynode->_Isnil) {

  0005e	80 78 0d 00	 cmp	 BYTE PTR [eax+13], 0
  00062	74 ec		 je	 SHORT $LL75@ResetDSTFu
$LN76@ResetDSTFu:

; 1624 :         return !_Bound->_Isnil && !_DEBUG_LT_PRED(_Getcomp(), _Keyval, _Traits::_Kfn(_Bound->_Myval));

  00064	80 79 0d 00	 cmp	 BYTE PTR [ecx+13], 0
  00068	75 05		 jne	 SHORT $LN72@ResetDSTFu
; File C:\Program Files\Microsoft Visual Studio\2022\Professional\VC\Tools\MSVC\14.44.35207\include\type_traits

; 2380 :         return _Left < _Right;

  0006a	3b 51 10	 cmp	 edx, DWORD PTR [ecx+16]
; File C:\Program Files\Microsoft Visual Studio\2022\Professional\VC\Tools\MSVC\14.44.35207\include\xtree

; 1624 :         return !_Bound->_Isnil && !_DEBUG_LT_PRED(_Getcomp(), _Keyval, _Traits::_Kfn(_Bound->_Myval));

  0006d	73 02		 jae	 SHORT $LN71@ResetDSTFu
$LN72@ResetDSTFu:

; 1389 :         return _Get_scary()->_Myhead;

  0006f	8b cb		 mov	 ecx, ebx
$LN71@ResetDSTFu:

; 37   :     _Tree_unchecked_const_iterator(_Nodeptr _Pnode, const _Mytree* _Plist) noexcept : _Ptr(_Pnode) {

  00071	3b cb		 cmp	 ecx, ebx
; File C:\IAGOS\server\v18\Source\Source\_Common\Project.h

; 1436 : 	if( i != m_idPlayerToUserPtr.end() )

  00073	74 3d		 je	 SHORT $LN2@ResetDSTFu

; 1437 : 		return i->second;

  00075	8b 79 14	 mov	 edi, DWORD PTR [ecx+20]
; File C:\IAGOS\server\v18\Source\Source\_Common\Obj.h

; 327  : 	return pObj && ( pObj->IsDelete() == FALSE ); 

  00078	85 ff		 test	 edi, edi
  0007a	74 33		 je	 SHORT $LN151@ResetDSTFu

; 180  : 	BOOL			IsDelete()	{ return (m_dwFlags & OBJ_FLAG_DELETE);  }

  0007c	f6 47 04 01	 test	 BYTE PTR [edi+4], 1

; 327  : 	return pObj && ( pObj->IsDelete() == FALSE ); 

  00080	75 2d		 jne	 SHORT $LN151@ResetDSTFu
; File C:\IAGOS\server\v18\Source\Source\_Common\GuildHouse.cpp

; 672  : 				pUser->ResetDestParam( 0, pItemProp );

  00082	8b 5d 08	 mov	 ebx, DWORD PTR _pItemProp$[ebp]
  00085	8b cf		 mov	 ecx, edi
  00087	6a 01		 push	 1
  00089	53		 push	 ebx
  0008a	6a 00		 push	 0
  0008c	e8 00 00 00 00	 call	 ?ResetDestParam@CMover@@QAEXHPAUItemProp@@H@Z ; CMover::ResetDestParam

; 673  : 				pUser->ResetDestParam( 1, pItemProp );

  00091	6a 01		 push	 1
  00093	53		 push	 ebx
  00094	6a 01		 push	 1
  00096	8b cf		 mov	 ecx, edi
  00098	e8 00 00 00 00	 call	 ?ResetDestParam@CMover@@QAEXHPAUItemProp@@H@Z ; CMover::ResetDestParam

; 674  : 				pUser->ResetDestParam( 2, pItemProp );

  0009d	6a 01		 push	 1
  0009f	53		 push	 ebx
  000a0	6a 02		 push	 2
  000a2	8b cf		 mov	 ecx, edi
  000a4	e8 00 00 00 00	 call	 ?ResetDestParam@CMover@@QAEXHPAUItemProp@@H@Z ; CMover::ResetDestParam
  000a9	8b 1d 28 00 00
	00		 mov	 ebx, DWORD PTR ?prj@@3VCProject@@A+40
$LN151@ResetDSTFu:
; File C:\Program Files\Microsoft Visual Studio\2022\Professional\VC\Tools\MSVC\14.44.35207\include\xtree

; 50   :         if (_Ptr->_Right->_Isnil) { // climb looking for right subtree

  000af	8b 7d fc	 mov	 edi, DWORD PTR _pGuild$1$[ebp]
$LN2@ResetDSTFu:
  000b2	8b 46 08	 mov	 eax, DWORD PTR [esi+8]
  000b5	80 78 0d 00	 cmp	 BYTE PTR [eax+13], 0
  000b9	74 1d		 je	 SHORT $LN30@ResetDSTFu

; 51   :             _Nodeptr _Pnode;
; 52   :             while (!(_Pnode = _Ptr->_Parent)->_Isnil && _Ptr == _Pnode->_Right) {

  000bb	8b 46 04	 mov	 eax, DWORD PTR [esi+4]
  000be	80 78 0d 00	 cmp	 BYTE PTR [eax+13], 0
  000c2	75 10		 jne	 SHORT $LN149@ResetDSTFu
$LL28@ResetDSTFu:
  000c4	3b 70 08	 cmp	 esi, DWORD PTR [eax+8]
  000c7	75 0b		 jne	 SHORT $LN149@ResetDSTFu

; 53   :                 _Ptr = _Pnode; // ==> parent while right subtree

  000c9	8b f0		 mov	 esi, eax
  000cb	8b 40 04	 mov	 eax, DWORD PTR [eax+4]
  000ce	80 78 0d 00	 cmp	 BYTE PTR [eax+13], 0
  000d2	74 f0		 je	 SHORT $LL28@ResetDSTFu
$LN149@ResetDSTFu:

; 54   :             }
; 55   : 
; 56   :             _Ptr = _Pnode; // ==> parent (head if end())

  000d4	8b f0		 mov	 esi, eax

; 57   :         } else {

  000d6	eb 16		 jmp	 SHORT $LN36@ResetDSTFu
$LN30@ResetDSTFu:

; 58   :             _Ptr = _Mytree::_Min(_Ptr->_Right); // ==> smallest of right subtree

  000d8	8b f0		 mov	 esi, eax

; 476  :         while (!_Pnode->_Left->_Isnil) {

  000da	8b 0e		 mov	 ecx, DWORD PTR [esi]
  000dc	80 79 0d 00	 cmp	 BYTE PTR [ecx+13], 0
  000e0	75 0c		 jne	 SHORT $LN36@ResetDSTFu
$LL35@ResetDSTFu:
  000e2	8b 01		 mov	 eax, DWORD PTR [ecx]

; 477  :             _Pnode = _Pnode->_Left;

  000e4	8b f1		 mov	 esi, ecx
  000e6	8b c8		 mov	 ecx, eax
  000e8	80 78 0d 00	 cmp	 BYTE PTR [eax+13], 0
  000ec	74 f4		 je	 SHORT $LL35@ResetDSTFu
$LN36@ResetDSTFu:

; 237  :         return !(*this == _Right);

  000ee	3b 77 38	 cmp	 esi, DWORD PTR [edi+56]
; File C:\IAGOS\server\v18\Source\Source\_Common\GuildHouse.cpp

; 667  : 		for( map<u_long, CGuildMember*>::iterator it=pGuild->m_mapPMember.begin(); it!=pGuild->m_mapPMember.end(); it++ )

  000f1	0f 85 49 ff ff
	ff		 jne	 $LL4@ResetDSTFu
  000f7	5b		 pop	 ebx
$LN166@ResetDSTFu:
  000f8	5e		 pop	 esi
$LN165@ResetDSTFu:
  000f9	5f		 pop	 edi
$LN3@ResetDSTFu:

; 675  : 			}
; 676  : 		}
; 677  : 	}
; 678  : }

  000fa	8b e5		 mov	 esp, ebp
  000fc	5d		 pop	 ebp
  000fd	c2 04 00	 ret	 4
?ResetDSTFunriture@CGuildHouseBase@@AAEXPAUItemProp@@@Z ENDP ; CGuildHouseBase::ResetDSTFunriture
_TEXT	ENDS
; Function compile flags: /Ogtp
; File C:\IAGOS\server\v18\Source\Source\_Common\GuildHouse.cpp
; File C:\Program Files\Microsoft Visual Studio\2022\Professional\VC\Tools\MSVC\14.44.35207\include\xtree
; File C:\IAGOS\server\v18\Source\Source\_Common\GuildHouse.cpp
; File C:\Program Files\Microsoft Visual Studio\2022\Professional\VC\Tools\MSVC\14.44.35207\include\xtree
; File C:\IAGOS\server\v18\Source\Source\_Common\GuildHouse.cpp
; File C:\Program Files\Microsoft Visual Studio\2022\Professional\VC\Tools\MSVC\14.44.35207\include\xtree
; File C:\Program Files\Microsoft Visual Studio\2022\Professional\VC\Tools\MSVC\14.44.35207\include\type_traits
; File C:\Program Files\Microsoft Visual Studio\2022\Professional\VC\Tools\MSVC\14.44.35207\include\xtree
; File C:\Program Files\Microsoft Visual Studio\2022\Professional\VC\Tools\MSVC\14.44.35207\include\type_traits
; File C:\Program Files\Microsoft Visual Studio\2022\Professional\VC\Tools\MSVC\14.44.35207\include\xtree
; File C:\IAGOS\server\v18\Source\Source\_Common\Project.h
; File C:\IAGOS\server\v18\Source\Source\_Common\Obj.h
; File C:\IAGOS\server\v18\Source\Source\_Common\GuildHouse.cpp
; File C:\Program Files\Microsoft Visual Studio\2022\Professional\VC\Tools\MSVC\14.44.35207\include\xtree
; File C:\IAGOS\server\v18\Source\Source\_Common\GuildHouse.cpp
;	COMDAT ?SetDSTFunriture@CGuildHouseBase@@AAEXPAUItemProp@@@Z
_TEXT	SEGMENT
_pGuild$1$ = -4						; size = 4
_pItemProp$ = 8						; size = 4
?SetDSTFunriture@CGuildHouseBase@@AAEXPAUItemProp@@@Z PROC ; CGuildHouseBase::SetDSTFunriture, COMDAT
; _this$ = ecx

; 639  : {

  00000	55		 push	 ebp
  00001	8b ec		 mov	 ebp, esp
  00003	51		 push	 ecx

; 640  : 	if( !pItemProp )

  00004	83 7d 08 00	 cmp	 DWORD PTR _pItemProp$[ebp], 0
  00008	0f 84 ec 00 00
	00		 je	 $LN3@SetDSTFunr

; 641  : 		return;
; 642  : 	
; 643  : 	CGuild* pGuild = g_GuildMng.GetGuild( m_dwGuildId );

  0000e	57		 push	 edi
  0000f	ff 71 04	 push	 DWORD PTR [ecx+4]
  00012	b9 00 00 00 00	 mov	 ecx, OFFSET ?g_GuildMng@@3VCGuildMng@@A ; g_GuildMng
  00017	e8 00 00 00 00	 call	 ?GetGuild@CGuildMng@@QAEPAVCGuild@@K@Z ; CGuildMng::GetGuild
  0001c	8b f8		 mov	 edi, eax
  0001e	89 7d fc	 mov	 DWORD PTR _pGuild$1$[ebp], edi

; 644  : 	if( pGuild )

  00021	85 ff		 test	 edi, edi
  00023	0f 84 d0 00 00
	00		 je	 $LN165@SetDSTFunr
; File C:\Program Files\Microsoft Visual Studio\2022\Professional\VC\Tools\MSVC\14.44.35207\include\xtree

; 1142 :         return iterator(_Scary->_Myhead->_Left, _Scary);

  00029	8b 4f 38	 mov	 ecx, DWORD PTR [edi+56]
  0002c	56		 push	 esi

; 37   :     _Tree_unchecked_const_iterator(_Nodeptr _Pnode, const _Mytree* _Plist) noexcept : _Ptr(_Pnode) {

  0002d	8b 31		 mov	 esi, DWORD PTR [ecx]

; 237  :         return !(*this == _Right);

  0002f	3b f1		 cmp	 esi, ecx
; File C:\IAGOS\server\v18\Source\Source\_Common\GuildHouse.cpp

; 646  : 		for( map<u_long, CGuildMember*>::iterator it=pGuild->m_mapPMember.begin(); it!=pGuild->m_mapPMember.end(); it++ )

  00031	0f 84 c1 00 00
	00		 je	 $LN166@SetDSTFunr
  00037	53		 push	 ebx
  00038	8b 1d 28 00 00
	00		 mov	 ebx, DWORD PTR ?prj@@3VCProject@@A+40
  0003e	66 90		 npad	 2
$LL4@SetDSTFunr:
; File C:\Program Files\Microsoft Visual Studio\2022\Professional\VC\Tools\MSVC\14.44.35207\include\xtree

; 1630 :         _Tree_find_result<_Nodeptr> _Result{{_Scary->_Myhead->_Parent, _Tree_child::_Right}, _Scary->_Myhead};

  00040	8b 43 04	 mov	 eax, DWORD PTR [ebx+4]
  00043	8b cb		 mov	 ecx, ebx
; File C:\IAGOS\server\v18\Source\Source\_Common\GuildHouse.cpp

; 648  : 			CUser* pUser = static_cast<CUser*>( prj.GetUserByID( it->first ) );

  00045	8b 56 10	 mov	 edx, DWORD PTR [esi+16]
; File C:\Program Files\Microsoft Visual Studio\2022\Professional\VC\Tools\MSVC\14.44.35207\include\xtree

; 1632 :         while (!_Trynode->_Isnil) {

  00048	80 78 0d 00	 cmp	 BYTE PTR [eax+13], 0
  0004c	75 16		 jne	 SHORT $LN76@SetDSTFunr
  0004e	66 90		 npad	 2
$LL75@SetDSTFunr:
; File C:\Program Files\Microsoft Visual Studio\2022\Professional\VC\Tools\MSVC\14.44.35207\include\type_traits

; 2380 :         return _Left < _Right;

  00050	39 50 10	 cmp	 DWORD PTR [eax+16], edx
; File C:\Program Files\Microsoft Visual Studio\2022\Professional\VC\Tools\MSVC\14.44.35207\include\xtree

; 1634 :             if (_DEBUG_LT_PRED(_Getcomp(), _Traits::_Kfn(_Trynode->_Myval), _Keyval)) {

  00053	73 05		 jae	 SHORT $LN77@SetDSTFunr

; 1635 :                 _Result._Location._Child = _Tree_child::_Right;
; 1636 :                 _Trynode                 = _Trynode->_Right;

  00055	8b 40 08	 mov	 eax, DWORD PTR [eax+8]

; 1637 :             } else {

  00058	eb 04		 jmp	 SHORT $LN78@SetDSTFunr
$LN77@SetDSTFunr:

; 1638 :                 _Result._Location._Child = _Tree_child::_Left;
; 1639 :                 _Result._Bound           = _Trynode;

  0005a	8b c8		 mov	 ecx, eax

; 1640 :                 _Trynode                 = _Trynode->_Left;

  0005c	8b 00		 mov	 eax, DWORD PTR [eax]
$LN78@SetDSTFunr:

; 1632 :         while (!_Trynode->_Isnil) {

  0005e	80 78 0d 00	 cmp	 BYTE PTR [eax+13], 0
  00062	74 ec		 je	 SHORT $LL75@SetDSTFunr
$LN76@SetDSTFunr:

; 1624 :         return !_Bound->_Isnil && !_DEBUG_LT_PRED(_Getcomp(), _Keyval, _Traits::_Kfn(_Bound->_Myval));

  00064	80 79 0d 00	 cmp	 BYTE PTR [ecx+13], 0
  00068	75 05		 jne	 SHORT $LN72@SetDSTFunr
; File C:\Program Files\Microsoft Visual Studio\2022\Professional\VC\Tools\MSVC\14.44.35207\include\type_traits

; 2380 :         return _Left < _Right;

  0006a	3b 51 10	 cmp	 edx, DWORD PTR [ecx+16]
; File C:\Program Files\Microsoft Visual Studio\2022\Professional\VC\Tools\MSVC\14.44.35207\include\xtree

; 1624 :         return !_Bound->_Isnil && !_DEBUG_LT_PRED(_Getcomp(), _Keyval, _Traits::_Kfn(_Bound->_Myval));

  0006d	73 02		 jae	 SHORT $LN71@SetDSTFunr
$LN72@SetDSTFunr:

; 1389 :         return _Get_scary()->_Myhead;

  0006f	8b cb		 mov	 ecx, ebx
$LN71@SetDSTFunr:

; 37   :     _Tree_unchecked_const_iterator(_Nodeptr _Pnode, const _Mytree* _Plist) noexcept : _Ptr(_Pnode) {

  00071	3b cb		 cmp	 ecx, ebx
; File C:\IAGOS\server\v18\Source\Source\_Common\Project.h

; 1436 : 	if( i != m_idPlayerToUserPtr.end() )

  00073	74 3d		 je	 SHORT $LN2@SetDSTFunr

; 1437 : 		return i->second;

  00075	8b 79 14	 mov	 edi, DWORD PTR [ecx+20]
; File C:\IAGOS\server\v18\Source\Source\_Common\Obj.h

; 327  : 	return pObj && ( pObj->IsDelete() == FALSE ); 

  00078	85 ff		 test	 edi, edi
  0007a	74 33		 je	 SHORT $LN151@SetDSTFunr

; 180  : 	BOOL			IsDelete()	{ return (m_dwFlags & OBJ_FLAG_DELETE);  }

  0007c	f6 47 04 01	 test	 BYTE PTR [edi+4], 1

; 327  : 	return pObj && ( pObj->IsDelete() == FALSE ); 

  00080	75 2d		 jne	 SHORT $LN151@SetDSTFunr
; File C:\IAGOS\server\v18\Source\Source\_Common\GuildHouse.cpp

; 651  : 				pUser->SetDestParam( 0, pItemProp );

  00082	8b 5d 08	 mov	 ebx, DWORD PTR _pItemProp$[ebp]
  00085	8b cf		 mov	 ecx, edi
  00087	6a 01		 push	 1
  00089	53		 push	 ebx
  0008a	6a 00		 push	 0
  0008c	e8 00 00 00 00	 call	 ?SetDestParam@CMover@@QAEXHPAUItemProp@@H@Z ; CMover::SetDestParam

; 652  : 				pUser->SetDestParam( 1, pItemProp );

  00091	6a 01		 push	 1
  00093	53		 push	 ebx
  00094	6a 01		 push	 1
  00096	8b cf		 mov	 ecx, edi
  00098	e8 00 00 00 00	 call	 ?SetDestParam@CMover@@QAEXHPAUItemProp@@H@Z ; CMover::SetDestParam

; 653  : 				pUser->SetDestParam( 2, pItemProp );

  0009d	6a 01		 push	 1
  0009f	53		 push	 ebx
  000a0	6a 02		 push	 2
  000a2	8b cf		 mov	 ecx, edi
  000a4	e8 00 00 00 00	 call	 ?SetDestParam@CMover@@QAEXHPAUItemProp@@H@Z ; CMover::SetDestParam
  000a9	8b 1d 28 00 00
	00		 mov	 ebx, DWORD PTR ?prj@@3VCProject@@A+40
$LN151@SetDSTFunr:
; File C:\Program Files\Microsoft Visual Studio\2022\Professional\VC\Tools\MSVC\14.44.35207\include\xtree

; 50   :         if (_Ptr->_Right->_Isnil) { // climb looking for right subtree

  000af	8b 7d fc	 mov	 edi, DWORD PTR _pGuild$1$[ebp]
$LN2@SetDSTFunr:
  000b2	8b 46 08	 mov	 eax, DWORD PTR [esi+8]
  000b5	80 78 0d 00	 cmp	 BYTE PTR [eax+13], 0
  000b9	74 1d		 je	 SHORT $LN30@SetDSTFunr

; 51   :             _Nodeptr _Pnode;
; 52   :             while (!(_Pnode = _Ptr->_Parent)->_Isnil && _Ptr == _Pnode->_Right) {

  000bb	8b 46 04	 mov	 eax, DWORD PTR [esi+4]
  000be	80 78 0d 00	 cmp	 BYTE PTR [eax+13], 0
  000c2	75 10		 jne	 SHORT $LN149@SetDSTFunr
$LL28@SetDSTFunr:
  000c4	3b 70 08	 cmp	 esi, DWORD PTR [eax+8]
  000c7	75 0b		 jne	 SHORT $LN149@SetDSTFunr

; 53   :                 _Ptr = _Pnode; // ==> parent while right subtree

  000c9	8b f0		 mov	 esi, eax
  000cb	8b 40 04	 mov	 eax, DWORD PTR [eax+4]
  000ce	80 78 0d 00	 cmp	 BYTE PTR [eax+13], 0
  000d2	74 f0		 je	 SHORT $LL28@SetDSTFunr
$LN149@SetDSTFunr:

; 54   :             }
; 55   : 
; 56   :             _Ptr = _Pnode; // ==> parent (head if end())

  000d4	8b f0		 mov	 esi, eax

; 57   :         } else {

  000d6	eb 16		 jmp	 SHORT $LN36@SetDSTFunr
$LN30@SetDSTFunr:

; 58   :             _Ptr = _Mytree::_Min(_Ptr->_Right); // ==> smallest of right subtree

  000d8	8b f0		 mov	 esi, eax

; 476  :         while (!_Pnode->_Left->_Isnil) {

  000da	8b 0e		 mov	 ecx, DWORD PTR [esi]
  000dc	80 79 0d 00	 cmp	 BYTE PTR [ecx+13], 0
  000e0	75 0c		 jne	 SHORT $LN36@SetDSTFunr
$LL35@SetDSTFunr:
  000e2	8b 01		 mov	 eax, DWORD PTR [ecx]

; 477  :             _Pnode = _Pnode->_Left;

  000e4	8b f1		 mov	 esi, ecx
  000e6	8b c8		 mov	 ecx, eax
  000e8	80 78 0d 00	 cmp	 BYTE PTR [eax+13], 0
  000ec	74 f4		 je	 SHORT $LL35@SetDSTFunr
$LN36@SetDSTFunr:

; 237  :         return !(*this == _Right);

  000ee	3b 77 38	 cmp	 esi, DWORD PTR [edi+56]
; File C:\IAGOS\server\v18\Source\Source\_Common\GuildHouse.cpp

; 646  : 		for( map<u_long, CGuildMember*>::iterator it=pGuild->m_mapPMember.begin(); it!=pGuild->m_mapPMember.end(); it++ )

  000f1	0f 85 49 ff ff
	ff		 jne	 $LL4@SetDSTFunr
  000f7	5b		 pop	 ebx
$LN166@SetDSTFunr:
  000f8	5e		 pop	 esi
$LN165@SetDSTFunr:
  000f9	5f		 pop	 edi
$LN3@SetDSTFunr:

; 654  : 			}
; 655  : 		}
; 656  : 	}
; 657  : }

  000fa	8b e5		 mov	 esp, ebp
  000fc	5d		 pop	 ebp
  000fd	c2 04 00	 ret	 4
?SetDSTFunriture@CGuildHouseBase@@AAEXPAUItemProp@@@Z ENDP ; CGuildHouseBase::SetDSTFunriture
_TEXT	ENDS
; Function compile flags: /Ogtp
; File C:\IAGOS\server\v18\Source\Source\_Common\GuildHouse.cpp
; File C:\Program Files\Microsoft Visual Studio\2022\Professional\VC\Tools\MSVC\14.44.35207\include\vector
; File C:\IAGOS\server\v18\Source\Source\_Common\GuildHouse.cpp
; File C:\Program Files\Microsoft Visual Studio\2022\Professional\VC\Tools\MSVC\14.44.35207\include\vector
; File C:\IAGOS\server\v18\Source\Source\_Common\GuildHouse.cpp
; File C:\Program Files\Microsoft Visual Studio\2022\Professional\VC\Tools\MSVC\14.44.35207\include\vector
; File C:\IAGOS\server\v18\Source\Source\_Common\GuildHouse.cpp
; File C:\Program Files\Microsoft Visual Studio\2022\Professional\VC\Tools\MSVC\14.44.35207\include\vector
; File C:\IAGOS\server\v18\Source\Source\_Common\GuildHouse.cpp
; File C:\Program Files\Microsoft Visual Studio\2022\Professional\VC\Tools\MSVC\14.44.35207\include\vector
; File C:\IAGOS\server\v18\Source\Source\_Common\GuildHouse.cpp
; File C:\Program Files\Microsoft Visual Studio\2022\Professional\VC\Tools\MSVC\14.44.35207\include\vector
; File C:\IAGOS\server\v18\Source\Source\_Common\GuildHouse.cpp
;	COMDAT ?PreCheckPacket@CGuildHouseBase@@AAEHPAVCUser@@HAAUGuildHouse_Furniture_Info@1@H@Z
_TEXT	SEGMENT
tv531 = -28						; size = 4
_pItemProp$1$ = -24					; size = 4
_pUser$GSCopy$1$ = -20					; size = 4
$T1 = -16						; size = 12
__$ArrayPad$ = -4					; size = 4
_pUser$ = 8						; size = 4
_nPacketType$ = 12					; size = 4
_gfi$ = 16						; size = 4
_nIndex$ = 20						; size = 4
?PreCheckPacket@CGuildHouseBase@@AAEHPAVCUser@@HAAUGuildHouse_Furniture_Info@1@H@Z PROC ; CGuildHouseBase::PreCheckPacket, COMDAT
; _this$ = ecx

; 437  : {

  00000	55		 push	 ebp
  00001	8b ec		 mov	 ebp, esp
  00003	83 ec 1c	 sub	 esp, 28			; 0000001cH
  00006	a1 00 00 00 00	 mov	 eax, DWORD PTR ___security_cookie
  0000b	33 c5		 xor	 eax, ebp
  0000d	89 45 fc	 mov	 DWORD PTR __$ArrayPad$[ebp], eax
  00010	8b 45 08	 mov	 eax, DWORD PTR _pUser$[ebp]
  00013	53		 push	 ebx
  00014	8b 5d 10	 mov	 ebx, DWORD PTR _gfi$[ebp]
  00017	56		 push	 esi
  00018	8b 75 14	 mov	 esi, DWORD PTR _nIndex$[ebp]
  0001b	57		 push	 edi

; 438  : 	// ±ćµĺÇĎżě˝ş °ü·Ă ±ÇÇŃ °Ë»ç
; 439  : 	if( !IsAuthority( pUser, nPacketType ) )

  0001c	ff 75 0c	 push	 DWORD PTR _nPacketType$[ebp]
  0001f	8b f9		 mov	 edi, ecx
  00021	89 45 ec	 mov	 DWORD PTR _pUser$GSCopy$1$[ebp], eax
  00024	50		 push	 eax
  00025	e8 00 00 00 00	 call	 ?IsAuthority@CGuildHouseBase@@AAEHPAVCUser@@H@Z ; CGuildHouseBase::IsAuthority
  0002a	85 c0		 test	 eax, eax
  0002c	74 31		 je	 SHORT $LN54@PreCheckPa

; 440  : 		return FALSE;
; 441  : 					
; 442  : 	switch( nPacketType )

  0002e	8b 45 0c	 mov	 eax, DWORD PTR _nPacketType$[ebp]
  00031	83 f8 06	 cmp	 eax, 6
  00034	0f 87 37 01 00
	00		 ja	 $LN26@PreCheckPa
  0003a	ff 24 85 00 00
	00 00		 jmp	 DWORD PTR $LN65@PreCheckPa[eax*4]
$LN5@PreCheckPa:

; 443  : 	{
; 444  : 		case GUILDHOUSE_PCKTTYPE_LISTUP:
; 445  : 			{
; 446  : 				if( !IsListUpAble( gfi.dwItemId ) )

  00041	ff 33		 push	 DWORD PTR [ebx]
  00043	8b cf		 mov	 ecx, edi
  00045	e8 00 00 00 00	 call	 ?IsListUpAble@CGuildHouseBase@@AAEHK@Z ; CGuildHouseBase::IsListUpAble
  0004a	85 c0		 test	 eax, eax
  0004c	0f 85 1f 01 00
	00		 jne	 $LN26@PreCheckPa

; 447  : 				{
; 448  : 					pUser->AddDefinedText( TID_GAME_GUILDHOUSE_INSIDE_SPACE );

  00052	8b 4d ec	 mov	 ecx, DWORD PTR _pUser$GSCopy$1$[ebp]
  00055	68 a5 10 00 00	 push	 4261			; 000010a5H
$LN84@PreCheckPa:

; 516  : 				}
; 517  : 				break;
; 518  : 			}
; 519  : 	}
; 520  : 
; 521  : 	return TRUE;
; 522  : }

  0005a	e8 00 00 00 00	 call	 ?AddDefinedText@CUser@@QAEXH@Z ; CUser::AddDefinedText
$LN54@PreCheckPa:
  0005f	5f		 pop	 edi
  00060	5e		 pop	 esi
  00061	33 c0		 xor	 eax, eax
  00063	5b		 pop	 ebx
  00064	8b 4d fc	 mov	 ecx, DWORD PTR __$ArrayPad$[ebp]
  00067	33 cd		 xor	 ecx, ebp
  00069	e8 00 00 00 00	 call	 @__security_check_cookie@4
  0006e	8b e5		 mov	 esp, ebp
  00070	5d		 pop	 ebp
  00071	c2 10 00	 ret	 16			; 00000010H
$LN7@PreCheckPa:

; 449  : 					return FALSE;
; 450  : 				}
; 451  : 				break;
; 452  : 			}
; 453  : 
; 454  : 		case GUILDHOUSE_PCKTTYPE_SETUP:
; 455  : 			{
; 456  : 				if( !g_eLocal.GetState( ENABLE_GUILD_INVENTORY ) )

  00074	6a 02		 push	 2
  00076	b9 00 00 00 00	 mov	 ecx, OFFSET ?g_eLocal@@3VCFlyffEvent@@A ; g_eLocal
  0007b	e8 00 00 00 00	 call	 ?GetState@CFlyffEvent@@QAEEH@Z ; CFlyffEvent::GetState
  00080	84 c0		 test	 al, al
  00082	74 db		 je	 SHORT $LN54@PreCheckPa
; File C:\Program Files\Microsoft Visual Studio\2022\Professional\VC\Tools\MSVC\14.44.35207\include\vector

; 1915 :         return static_cast<size_type>(_My_data._Mylast - _My_data._Myfirst);

  00084	8b 47 10	 mov	 eax, DWORD PTR [edi+16]
  00087	8b 4f 0c	 mov	 ecx, DWORD PTR [edi+12]
  0008a	2b c1		 sub	 eax, ecx
  0008c	c1 f8 05	 sar	 eax, 5
; File C:\IAGOS\server\v18\Source\Source\_Common\GuildHouse.cpp

; 459  : 				if( nIndex >= (int)( m_vecFntInfo.size() ) )	return FALSE;

  0008f	3b f0		 cmp	 esi, eax
  00091	7d cc		 jge	 SHORT $LN54@PreCheckPa
; File C:\Program Files\Microsoft Visual Studio\2022\Professional\VC\Tools\MSVC\14.44.35207\include\vector

; 1934 :         return _My_data._Myfirst[_Pos];

  00093	8b c6		 mov	 eax, esi
  00095	c1 e0 05	 shl	 eax, 5
  00098	89 45 e4	 mov	 DWORD PTR tv531[ebp], eax
; File C:\IAGOS\server\v18\Source\Source\_Common\GuildHouse.cpp

; 460  : 				if( m_vecFntInfo[nIndex].bSetup )	return FALSE;

  0009b	83 7c 08 04 00	 cmp	 DWORD PTR [eax+ecx+4], 0
  000a0	75 bd		 jne	 SHORT $LN54@PreCheckPa

; 461  : 
; 462  : 				gfi.bSetup = TRUE;
; 463  : 				ItemProp* pItemProp = prj.GetItemProp( gfi.dwItemId );

  000a2	ff 33		 push	 DWORD PTR [ebx]
  000a4	b9 00 00 00 00	 mov	 ecx, OFFSET ?prj@@3VCProject@@A ; prj
  000a9	c7 43 04 01 00
	00 00		 mov	 DWORD PTR [ebx+4], 1
  000b0	e8 00 00 00 00	 call	 ?GetItemProp@CProject@@QAEPAUItemProp@@H@Z ; CProject::GetItemProp
  000b5	8b d0		 mov	 edx, eax
  000b7	89 55 e8	 mov	 DWORD PTR _pItemProp$1$[ebp], edx

; 464  : 				if( !pItemProp ) return FALSE;

  000ba	85 d2		 test	 edx, edx
  000bc	74 a1		 je	 SHORT $LN54@PreCheckPa

; 465  : 				if( pItemProp->dwItemKind3 == IK3_TELEPORTER )

  000be	81 7a 78 8c 00
	00 00		 cmp	 DWORD PTR [edx+120], 140 ; 0000008cH
  000c5	75 24		 jne	 SHORT $LN12@PreCheckPa

; 466  : 				{
; 467  : 					gfi.vPos = GetTeleporterPos();

  000c7	8b 17		 mov	 edx, DWORD PTR [edi]
  000c9	8d 45 f0	 lea	 eax, DWORD PTR $T1[ebp]
  000cc	50		 push	 eax
  000cd	8b cf		 mov	 ecx, edi
  000cf	ff 52 18	 call	 DWORD PTR [edx+24]
  000d2	8b 55 e8	 mov	 edx, DWORD PTR _pItemProp$1$[ebp]
  000d5	f3 0f 7e 00	 movq	 xmm0, QWORD PTR [eax]
  000d9	66 0f d6 43 08	 movq	 QWORD PTR [ebx+8], xmm0
  000de	8b 40 08	 mov	 eax, DWORD PTR [eax+8]
  000e1	89 43 10	 mov	 DWORD PTR [ebx+16], eax

; 468  : 					gfi.fAngle = 0.0f;

  000e4	c7 43 14 00 00
	00 00		 mov	 DWORD PTR [ebx+20], 0
$LN12@PreCheckPa:

; 469  : 				}
; 470  : 				if( m_vecFntInfo[nIndex].tKeepTime == 0 )

  000eb	8b 47 0c	 mov	 eax, DWORD PTR [edi+12]
  000ee	8b 4d e4	 mov	 ecx, DWORD PTR tv531[ebp]
  000f1	83 7c 08 1c 00	 cmp	 DWORD PTR [eax+ecx+28], 0
  000f6	75 18		 jne	 SHORT $LN13@PreCheckPa

; 471  : 					gfi.tKeepTime = time_null() + ( pItemProp->dwAbilityMin * 60 );

  000f8	8b 82 e4 00 00
	00		 mov	 eax, DWORD PTR [edx+228]
  000fe	8b c8		 mov	 ecx, eax
  00100	c1 e1 04	 shl	 ecx, 4
  00103	2b c8		 sub	 ecx, eax
  00105	a1 00 00 00 00	 mov	 eax, DWORD PTR ?g_tCurrent@@3JA ; g_tCurrent
  0010a	8d 04 88	 lea	 eax, DWORD PTR [eax+ecx*4]
  0010d	89 43 1c	 mov	 DWORD PTR [ebx+28], eax
$LN13@PreCheckPa:

; 472  : 				
; 473  : 				return IsSetupAble( pUser, nIndex );

  00110	8b 07		 mov	 eax, DWORD PTR [edi]
  00112	8b cf		 mov	 ecx, edi
  00114	56		 push	 esi
  00115	ff 75 ec	 push	 DWORD PTR _pUser$GSCopy$1$[ebp]
  00118	ff 50 14	 call	 DWORD PTR [eax+20]
  0011b	5f		 pop	 edi

; 516  : 				}
; 517  : 				break;
; 518  : 			}
; 519  : 	}
; 520  : 
; 521  : 	return TRUE;
; 522  : }

  0011c	5e		 pop	 esi
  0011d	5b		 pop	 ebx
  0011e	8b 4d fc	 mov	 ecx, DWORD PTR __$ArrayPad$[ebp]
  00121	33 cd		 xor	 ecx, ebp
  00123	e8 00 00 00 00	 call	 @__security_check_cookie@4
  00128	8b e5		 mov	 esp, ebp
  0012a	5d		 pop	 ebp
  0012b	c2 10 00	 ret	 16			; 00000010H
$LN14@PreCheckPa:

; 474  : 			}
; 475  : 
; 476  : 		case GUILDHOUSE_PCKTTYPE_REMOVE:
; 477  : 				if( !g_eLocal.GetState( ENABLE_GUILD_INVENTORY ) )

  0012e	6a 02		 push	 2
  00130	b9 00 00 00 00	 mov	 ecx, OFFSET ?g_eLocal@@3VCFlyffEvent@@A ; g_eLocal
  00135	e8 00 00 00 00	 call	 ?GetState@CFlyffEvent@@QAEEH@Z ; CFlyffEvent::GetState
  0013a	84 c0		 test	 al, al
  0013c	0f 84 1d ff ff
	ff		 je	 $LN54@PreCheckPa
; File C:\Program Files\Microsoft Visual Studio\2022\Professional\VC\Tools\MSVC\14.44.35207\include\vector

; 1915 :         return static_cast<size_type>(_My_data._Mylast - _My_data._Myfirst);

  00142	8b 47 10	 mov	 eax, DWORD PTR [edi+16]
  00145	8b 4f 0c	 mov	 ecx, DWORD PTR [edi+12]
  00148	2b c1		 sub	 eax, ecx
  0014a	c1 f8 05	 sar	 eax, 5
; File C:\IAGOS\server\v18\Source\Source\_Common\GuildHouse.cpp

; 480  : 				if( nIndex >= (int)( m_vecFntInfo.size() ) )	return FALSE;

  0014d	3b f0		 cmp	 esi, eax
  0014f	0f 8d 0a ff ff
	ff		 jge	 $LN54@PreCheckPa
; File C:\Program Files\Microsoft Visual Studio\2022\Professional\VC\Tools\MSVC\14.44.35207\include\vector

; 1934 :         return _My_data._Myfirst[_Pos];

  00155	c1 e6 05	 shl	 esi, 5
; File C:\IAGOS\server\v18\Source\Source\_Common\GuildHouse.cpp

; 481  : 				if( !m_vecFntInfo[nIndex].bSetup )	return FALSE;

  00158	83 7c 0e 04 00	 cmp	 DWORD PTR [esi+ecx+4], 0
  0015d	0f 84 fc fe ff
	ff		 je	 $LN54@PreCheckPa

; 482  : 				gfi.objId = NULL_ID;

  00163	c7 43 18 ff ff
	ff ff		 mov	 DWORD PTR [ebx+24], -1

; 483  : 				gfi.bSetup = FALSE;

  0016a	c7 43 04 00 00
	00 00		 mov	 DWORD PTR [ebx+4], 0
$LN26@PreCheckPa:

; 516  : 				}
; 517  : 				break;
; 518  : 			}
; 519  : 	}
; 520  : 
; 521  : 	return TRUE;
; 522  : }

  00171	8b 4d fc	 mov	 ecx, DWORD PTR __$ArrayPad$[ebp]
  00174	b8 01 00 00 00	 mov	 eax, 1
  00179	5f		 pop	 edi
  0017a	5e		 pop	 esi
  0017b	33 cd		 xor	 ecx, ebp
  0017d	5b		 pop	 ebx
  0017e	e8 00 00 00 00	 call	 @__security_check_cookie@4
  00183	8b e5		 mov	 esp, ebp
  00185	5d		 pop	 ebp
  00186	c2 10 00	 ret	 16			; 00000010H
$LN18@PreCheckPa:

; 484  : 				break;
; 485  : 		
; 486  : 		case GUILDHOUSE_PCKTTYPE_RESET:
; 487  : 				if( !g_eLocal.GetState( ENABLE_GUILD_INVENTORY ) )

  00189	6a 02		 push	 2
  0018b	b9 00 00 00 00	 mov	 ecx, OFFSET ?g_eLocal@@3VCFlyffEvent@@A ; g_eLocal
  00190	e8 00 00 00 00	 call	 ?GetState@CFlyffEvent@@QAEEH@Z ; CFlyffEvent::GetState
  00195	84 c0		 test	 al, al
  00197	0f 84 c2 fe ff
	ff		 je	 $LN54@PreCheckPa
; File C:\Program Files\Microsoft Visual Studio\2022\Professional\VC\Tools\MSVC\14.44.35207\include\vector

; 1915 :         return static_cast<size_type>(_My_data._Mylast - _My_data._Myfirst);

  0019d	8b 47 10	 mov	 eax, DWORD PTR [edi+16]
  001a0	8b 4f 0c	 mov	 ecx, DWORD PTR [edi+12]
  001a3	2b c1		 sub	 eax, ecx
  001a5	c1 f8 05	 sar	 eax, 5
; File C:\IAGOS\server\v18\Source\Source\_Common\GuildHouse.cpp

; 490  : 				if( nIndex >= (int)( m_vecFntInfo.size() ) )	return FALSE;

  001a8	3b f0		 cmp	 esi, eax
  001aa	0f 8d af fe ff
	ff		 jge	 $LN54@PreCheckPa
; File C:\Program Files\Microsoft Visual Studio\2022\Professional\VC\Tools\MSVC\14.44.35207\include\vector

; 1934 :         return _My_data._Myfirst[_Pos];

  001b0	c1 e6 05	 shl	 esi, 5
; File C:\IAGOS\server\v18\Source\Source\_Common\GuildHouse.cpp

; 491  : 				if( !m_vecFntInfo[nIndex].bSetup )	return FALSE;

  001b3	83 7c 31 04 00	 cmp	 DWORD PTR [ecx+esi+4], 0
  001b8	0f 84 a1 fe ff
	ff		 je	 $LN54@PreCheckPa

; 492  : 				gfi.bSetup = TRUE;

  001be	c7 43 04 01 00
	00 00		 mov	 DWORD PTR [ebx+4], 1

; 493  : 				gfi.tKeepTime = m_vecFntInfo[nIndex].tKeepTime;

  001c5	8b 47 0c	 mov	 eax, DWORD PTR [edi+12]
  001c8	8b 44 30 1c	 mov	 eax, DWORD PTR [eax+esi+28]
  001cc	89 43 1c	 mov	 DWORD PTR [ebx+28], eax

; 494  : 				break;

  001cf	eb a0		 jmp	 SHORT $LN26@PreCheckPa
$LN22@PreCheckPa:

; 495  : 	
; 496  : 		case GUILDHOUSE_PCKTTYPE_UPKEEP:
; 497  : 			{
; 498  : 				gfi.tKeepTime = gfi.dwItemId * UPKEEP_DAY_TIME + ( GetUpkeepTime() ? GetUpkeepTime() : time_null() );	// ĂÖÁľ ĽłÁ¤µÉ ŔŻÁö±â°Ł(ĂĘ) : ¸¸·á˝Ă°Ł

  001d1	8b 47 18	 mov	 eax, DWORD PTR [edi+24]
  001d4	85 c0		 test	 eax, eax
  001d6	8b 0d 00 00 00
	00		 mov	 ecx, DWORD PTR ?g_tCurrent@@3JA ; g_tCurrent
  001dc	0f 45 c8	 cmovne	 ecx, eax
  001df	69 03 80 51 01
	00		 imul	 eax, DWORD PTR [ebx], 86400
  001e5	03 c8		 add	 ecx, eax
  001e7	89 4b 1c	 mov	 DWORD PTR [ebx+28], ecx

; 499  : 				int nTotalDays = ( gfi.tKeepTime - time_null() ) / UPKEEP_DAY_TIME;	// ĂŃ ł˛Ŕş ŔŻÁö±â°Ł(ŔĎ) : ÇöŔç + Ăß°ˇ

  001ea	2b 0d 00 00 00
	00		 sub	 ecx, DWORD PTR ?g_tCurrent@@3JA ; g_tCurrent

; 500  : 				if( nTotalDays >= MAX_UPKEEP_DAY || nTotalDays <= 0 )

  001f0	81 f9 80 24 2e
	00		 cmp	 ecx, 3024000		; 002e2480H
  001f6	7d 65		 jge	 SHORT $LN24@PreCheckPa
  001f8	b8 07 45 2e c2	 mov	 eax, -1037155065	; c22e4507H
  001fd	f7 e9		 imul	 ecx
  001ff	03 d1		 add	 edx, ecx
  00201	c1 fa 10	 sar	 edx, 16			; 00000010H
  00204	8b c2		 mov	 eax, edx
  00206	c1 e8 1f	 shr	 eax, 31			; 0000001fH
  00209	03 c2		 add	 eax, edx
  0020b	85 c0		 test	 eax, eax
  0020d	7e 4e		 jle	 SHORT $LN24@PreCheckPa

; 504  : 				}
; 505  : 				
; 506  : 				int nPayPenya = gfi.dwItemId * GetUpkeepPenya();

  0020f	8b 07		 mov	 eax, DWORD PTR [edi]
  00211	8b cf		 mov	 ecx, edi
  00213	8b 33		 mov	 esi, DWORD PTR [ebx]
  00215	ff 50 0c	 call	 DWORD PTR [eax+12]

; 507  : 				if( pUser->GetGold() >= nPayPenya )

  00218	8b 5d ec	 mov	 ebx, DWORD PTR _pUser$GSCopy$1$[ebp]
  0021b	8b f8		 mov	 edi, eax
  0021d	0f af fe	 imul	 edi, esi
  00220	39 bb e0 14 00
	00		 cmp	 DWORD PTR [ebx+5344], edi
  00226	7c 29		 jl	 SHORT $LN25@PreCheckPa

; 508  : 				{
; 509  : 					pUser->AddGold( -nPayPenya );

  00228	8b cf		 mov	 ecx, edi
  0022a	f7 d9		 neg	 ecx
  0022c	6a 01		 push	 1
  0022e	51		 push	 ecx
  0022f	8b cb		 mov	 ecx, ebx
  00231	e8 00 00 00 00	 call	 ?AddGold@CMover@@QAEHHH@Z ; CMover::AddGold

; 510  : 					g_DPSrvr.PutPenyaLog( pUser, "f", "GUILDHOUSE_UPKEEP", nPayPenya );

  00236	57		 push	 edi
  00237	68 00 00 00 00	 push	 OFFSET ??_C@_0BC@INDAJEGD@GUILDHOUSE_UPKEEP@
  0023c	68 00 00 00 00	 push	 OFFSET ??_C@_01INIBCBCB@f@
  00241	53		 push	 ebx
  00242	b9 00 00 00 00	 mov	 ecx, OFFSET ?g_DPSrvr@@3VCDPSrvr@@A ; g_DPSrvr
  00247	e8 00 00 00 00	 call	 ?PutPenyaLog@CDPSrvr@@QAEXPAVCUser@@PBD1H@Z ; CDPSrvr::PutPenyaLog

; 511  : 				}

  0024c	e9 20 ff ff ff	 jmp	 $LN26@PreCheckPa
$LN25@PreCheckPa:

; 512  : 				else
; 513  : 				{
; 514  : 					pUser->AddDefinedText( TID_GAME_GUILDHOUSE_BUY_EXPENSE );

  00251	68 a2 10 00 00	 push	 4258			; 000010a2H
  00256	8b cb		 mov	 ecx, ebx

; 515  : 					return FALSE;

  00258	e9 fd fd ff ff	 jmp	 $LN84@PreCheckPa
$LN24@PreCheckPa:

; 501  : 				{
; 502  : 					pUser->AddDefinedText( TID_GAME_GUILDHOUSE_TAX_MAX, "%d", MAX_UPKEEP_DAY );

  0025d	6a 23		 push	 35			; 00000023H
  0025f	68 00 00 00 00	 push	 OFFSET ??_C@_02DPKJAMEF@?$CFd@
  00264	68 aa 10 00 00	 push	 4266			; 000010aaH
  00269	ff 75 ec	 push	 DWORD PTR _pUser$GSCopy$1$[ebp]
  0026c	e8 00 00 00 00	 call	 ?AddDefinedText@CUser@@QAAXHPBDZZ ; CUser::AddDefinedText
  00271	83 c4 10	 add	 esp, 16			; 00000010H

; 503  : 					return FALSE;

  00274	e9 e6 fd ff ff	 jmp	 $LN54@PreCheckPa
  00279	0f 1f 00	 npad	 3
$LN65@PreCheckPa:

; 516  : 				}
; 517  : 				break;
; 518  : 			}
; 519  : 	}
; 520  : 
; 521  : 	return TRUE;
; 522  : }

  0027c	00 00 00 00	 DD	 $LN5@PreCheckPa
  00280	00 00 00 00	 DD	 $LN26@PreCheckPa
  00284	00 00 00 00	 DD	 $LN7@PreCheckPa
  00288	00 00 00 00	 DD	 $LN14@PreCheckPa
  0028c	00 00 00 00	 DD	 $LN18@PreCheckPa
  00290	00 00 00 00	 DD	 $LN26@PreCheckPa
  00294	00 00 00 00	 DD	 $LN22@PreCheckPa
?PreCheckPacket@CGuildHouseBase@@AAEHPAVCUser@@HAAUGuildHouse_Furniture_Info@1@H@Z ENDP ; CGuildHouseBase::PreCheckPacket
_TEXT	ENDS
; Function compile flags: /Ogtp
; File C:\IAGOS\server\v18\Source\Source\_Common\GuildHouse.cpp
; File C:\IAGOS\server\v18\Source\Source\_Common\Obj.h
; File C:\IAGOS\server\v18\Source\Source\_Common\GuildHouse.cpp
; File C:\IAGOS\server\v18\Source\Source\_Common\Obj.h
; File C:\IAGOS\server\v18\Source\Source\_Common\GuildHouse.cpp
;	COMDAT ?IsAuthority@CGuildHouseBase@@AAEHPAVCUser@@H@Z
_TEXT	SEGMENT
_pUser$ = 8						; size = 4
_nPacketType$ = 12					; size = 4
?IsAuthority@CGuildHouseBase@@AAEHPAVCUser@@H@Z PROC	; CGuildHouseBase::IsAuthority, COMDAT
; _this$ = ecx

; 409  : {

  00000	55		 push	 ebp
  00001	8b ec		 mov	 ebp, esp
  00003	56		 push	 esi
; File C:\IAGOS\server\v18\Source\Source\_Common\Obj.h

; 327  : 	return pObj && ( pObj->IsDelete() == FALSE ); 

  00004	8b 75 08	 mov	 esi, DWORD PTR _pUser$[ebp]
; File C:\IAGOS\server\v18\Source\Source\_Common\GuildHouse.cpp

; 409  : {

  00007	57		 push	 edi
  00008	8b f9		 mov	 edi, ecx
; File C:\IAGOS\server\v18\Source\Source\_Common\Obj.h

; 327  : 	return pObj && ( pObj->IsDelete() == FALSE ); 

  0000a	85 f6		 test	 esi, esi
  0000c	74 46		 je	 SHORT $LN3@IsAuthorit

; 180  : 	BOOL			IsDelete()	{ return (m_dwFlags & OBJ_FLAG_DELETE);  }

  0000e	f6 46 04 01	 test	 BYTE PTR [esi+4], 1

; 327  : 	return pObj && ( pObj->IsDelete() == FALSE ); 

  00012	75 40		 jne	 SHORT $LN3@IsAuthorit
; File C:\IAGOS\server\v18\Source\Source\_Common\GuildHouse.cpp

; 410  : 	if( !IsValidObj( pUser ) || pUser->m_idGuild != m_dwGuildId )	return FALSE;

  00014	8b 47 04	 mov	 eax, DWORD PTR [edi+4]
  00017	39 86 14 07 00
	00		 cmp	 DWORD PTR [esi+1812], eax
  0001d	75 35		 jne	 SHORT $LN3@IsAuthorit

; 411  : 	CGuild* pGuild = g_GuildMng.GetGuild( m_dwGuildId );

  0001f	50		 push	 eax
  00020	b9 00 00 00 00	 mov	 ecx, OFFSET ?g_GuildMng@@3VCGuildMng@@A ; g_GuildMng
  00025	e8 00 00 00 00	 call	 ?GetGuild@CGuildMng@@QAEPAVCGuild@@K@Z ; CGuildMng::GetGuild

; 412  : 	if( !pGuild )	return FALSE;

  0002a	85 c0		 test	 eax, eax
  0002c	74 26		 je	 SHORT $LN3@IsAuthorit

; 413  : 
; 414  : 	if( nPacketType == GUILDHOUSE_PCKTTYPE_UPKEEP ) // ŔŻÁöşń´Â ±ÇÇŃ¸¸ ŔÖŔ¸¸é OK!

  0002e	83 7d 0c 06	 cmp	 DWORD PTR _nPacketType$[ebp], 6
  00032	8b 8e 34 02 00
	00		 mov	 ecx, DWORD PTR [esi+564]
  00038	75 22		 jne	 SHORT $LN5@IsAuthorit

; 415  : 	{
; 416  : 		if( !pGuild->IsAuthority( pUser->m_idPlayer, PF_GUILDHOUSE_UPKEEP ) )

  0003a	6a 40		 push	 64			; 00000040H
  0003c	51		 push	 ecx
  0003d	8b c8		 mov	 ecx, eax
  0003f	e8 00 00 00 00	 call	 ?IsAuthority@CGuild@@QAEHKH@Z ; CGuild::IsAuthority
  00044	85 c0		 test	 eax, eax
  00046	75 4e		 jne	 SHORT $LN10@IsAuthorit

; 417  : 		{
; 418  : 			pUser->AddDefinedText( TID_GAME_GUILDHOUSE_TAX_LEVEL );

  00048	68 ab 10 00 00	 push	 4267			; 000010abH

; 434  : }

  0004d	8b ce		 mov	 ecx, esi
  0004f	e8 00 00 00 00	 call	 ?AddDefinedText@CUser@@QAEXH@Z ; CUser::AddDefinedText
$LN3@IsAuthorit:
  00054	5f		 pop	 edi
  00055	33 c0		 xor	 eax, eax
  00057	5e		 pop	 esi
  00058	5d		 pop	 ebp
  00059	c2 08 00	 ret	 8
$LN5@IsAuthorit:

; 419  : 			return FALSE;
; 420  : 		}
; 421  : 	}
; 422  : 	else 
; 423  : 	{
; 424  : 		if( !pGuild->IsAuthority( pUser->m_idPlayer, PF_GUILDHOUSE_FURNITURE ) )	// °ˇ±¸ Á¦ľî ±ÇÇŃ °Ë»ç(ĹÚ·ąĆ÷ĹÍ Ć÷ÇÔ)

  0005c	6a 20		 push	 32			; 00000020H
  0005e	51		 push	 ecx
  0005f	8b c8		 mov	 ecx, eax
  00061	e8 00 00 00 00	 call	 ?IsAuthority@CGuild@@QAEHKH@Z ; CGuild::IsAuthority
  00066	85 c0		 test	 eax, eax
  00068	75 14		 jne	 SHORT $LN8@IsAuthorit

; 425  : 		{
; 426  : 			pUser->AddDefinedText( TID_GAME_GUILDHOUSE_INSIDE_INSTALL_LEVEL );

  0006a	68 a8 10 00 00	 push	 4264			; 000010a8H

; 434  : }

  0006f	8b ce		 mov	 ecx, esi
  00071	e8 00 00 00 00	 call	 ?AddDefinedText@CUser@@QAEXH@Z ; CUser::AddDefinedText
  00076	5f		 pop	 edi
  00077	33 c0		 xor	 eax, eax
  00079	5e		 pop	 esi
  0007a	5d		 pop	 ebp
  0007b	c2 08 00	 ret	 8
$LN8@IsAuthorit:

; 427  : 			return FALSE;
; 428  : 		}
; 429  : 		else if( pUser->GetWorld()->GetID() != m_dwWorldId || pUser->GetLayer() != m_dwGuildId )	// ÇöŔç ŔŻŔú°ˇ ±ćµĺÇĎżě˝ş ł»żˇ ŔÖ´Â°ˇ?

  0007e	8b 86 6c 01 00
	00		 mov	 eax, DWORD PTR [esi+364]
  00084	8b 00		 mov	 eax, DWORD PTR [eax]
  00086	3b 47 08	 cmp	 eax, DWORD PTR [edi+8]
  00089	75 c9		 jne	 SHORT $LN3@IsAuthorit
  0008b	8b 86 b8 01 00
	00		 mov	 eax, DWORD PTR [esi+440]
  00091	3b 47 04	 cmp	 eax, DWORD PTR [edi+4]
  00094	75 be		 jne	 SHORT $LN3@IsAuthorit
$LN10@IsAuthorit:
  00096	5f		 pop	 edi

; 430  : 			return FALSE;
; 431  : 	}
; 432  : 	
; 433  : 	return TRUE;

  00097	b8 01 00 00 00	 mov	 eax, 1

; 434  : }

  0009c	5e		 pop	 esi
  0009d	5d		 pop	 ebp
  0009e	c2 08 00	 ret	 8
?IsAuthority@CGuildHouseBase@@AAEHPAVCUser@@H@Z ENDP	; CGuildHouseBase::IsAuthority
_TEXT	ENDS
; Function compile flags: /Ogtp
; File C:\IAGOS\server\v18\Source\Source\_Common\GuildHouse.cpp
; File C:\Program Files\Microsoft Visual Studio\2022\Professional\VC\Tools\MSVC\14.44.35207\include\vector
; File C:\IAGOS\server\v18\Source\Source\_Common\GuildHouse.cpp
; File C:\Program Files\Microsoft Visual Studio\2022\Professional\VC\Tools\MSVC\14.44.35207\include\vector
; File C:\IAGOS\server\v18\Source\Source\_Common\GuildHouse.cpp
; File C:\Program Files\Microsoft Visual Studio\2022\Professional\VC\Tools\MSVC\14.44.35207\include\vector
; File C:\IAGOS\server\v18\Source\Source\_Common\GuildHouse.cpp
; File C:\Program Files\Microsoft Visual Studio\2022\Professional\VC\Tools\MSVC\14.44.35207\include\vector
; File C:\IAGOS\server\v18\Source\Source\_Common\GuildHouse.cpp
; File C:\Program Files\Microsoft Visual Studio\2022\Professional\VC\Tools\MSVC\14.44.35207\include\vector
; File C:\Program Files\Microsoft Visual Studio\2022\Professional\VC\Tools\MSVC\14.44.35207\include\xutility
; File C:\Program Files\Microsoft Visual Studio\2022\Professional\VC\Tools\MSVC\14.44.35207\include\vector
; File C:\Program Files\Microsoft Visual Studio\2022\Professional\VC\Tools\MSVC\14.44.35207\include\xutility
; File C:\IAGOS\server\v18\Source\Source\_Common\GuildHouse.cpp
; File C:\Program Files\Microsoft Visual Studio\2022\Professional\VC\Tools\MSVC\14.44.35207\include\vector
; File C:\IAGOS\server\v18\Source\Source\_Common\GuildHouse.cpp
;	COMDAT ?ListDropFurniture@CGuildHouseBase@@AAEHH@Z
_TEXT	SEGMENT
_nIndex$ = 8						; size = 4
?ListDropFurniture@CGuildHouseBase@@AAEHH@Z PROC	; CGuildHouseBase::ListDropFurniture, COMDAT
; _this$ = ecx

; 839  : {

  00000	55		 push	 ebp
  00001	8b ec		 mov	 ebp, esp
  00003	56		 push	 esi
  00004	8b f1		 mov	 esi, ecx

; 840  : 	if( (int)( m_vecFntInfo.size() ) <= nIndex )

  00006	8b 4d 08	 mov	 ecx, DWORD PTR _nIndex$[ebp]
; File C:\Program Files\Microsoft Visual Studio\2022\Professional\VC\Tools\MSVC\14.44.35207\include\vector

; 1915 :         return static_cast<size_type>(_My_data._Mylast - _My_data._Myfirst);

  00009	8b 46 10	 mov	 eax, DWORD PTR [esi+16]
  0000c	8b 56 0c	 mov	 edx, DWORD PTR [esi+12]
  0000f	2b c2		 sub	 eax, edx
  00011	c1 f8 05	 sar	 eax, 5
; File C:\IAGOS\server\v18\Source\Source\_Common\GuildHouse.cpp

; 840  : 	if( (int)( m_vecFntInfo.size() ) <= nIndex )

  00014	3b c1		 cmp	 eax, ecx
  00016	7f 07		 jg	 SHORT $LN2@ListDropFu

; 841  : 		return FALSE;

  00018	33 c0		 xor	 eax, eax
  0001a	5e		 pop	 esi

; 850  : }

  0001b	5d		 pop	 ebp
  0001c	c2 04 00	 ret	 4
$LN2@ListDropFu:
  0001f	57		 push	 edi
; File C:\Program Files\Microsoft Visual Studio\2022\Professional\VC\Tools\MSVC\14.44.35207\include\vector

; 1934 :         return _My_data._Myfirst[_Pos];

  00020	8b f9		 mov	 edi, ecx
  00022	c1 e7 05	 shl	 edi, 5
; File C:\IAGOS\server\v18\Source\Source\_Common\GuildHouse.cpp

; 843  : 	if( m_vecFntInfo[nIndex].bSetup == TRUE )

  00025	83 7c 17 04 01	 cmp	 DWORD PTR [edi+edx+4], 1
  0002a	8d 04 17	 lea	 eax, DWORD PTR [edi+edx]
  0002d	75 09		 jne	 SHORT $LN3@ListDropFu

; 844  : 		RemoveFurnitureCtrl( nIndex, m_vecFntInfo[nIndex] );

  0002f	50		 push	 eax
  00030	51		 push	 ecx
  00031	8b ce		 mov	 ecx, esi
  00033	e8 00 00 00 00	 call	 ?RemoveFurnitureCtrl@CGuildHouseBase@@AAEHHAAUGuildHouse_Furniture_Info@1@@Z ; CGuildHouseBase::RemoveFurnitureCtrl
$LN3@ListDropFu:
; File C:\Program Files\Microsoft Visual Studio\2022\Professional\VC\Tools\MSVC\14.44.35207\include\vector

; 1934 :         return _My_data._Myfirst[_Pos];

  00038	8b 46 0c	 mov	 eax, DWORD PTR [esi+12]
; File C:\IAGOS\server\v18\Source\Source\_Common\GuildHouse.cpp

; 846  : 	g_dpDBClient.SendLogGuildFurniture( m_dwGuildId, m_vecFntInfo[nIndex], 'D' );

  0003b	b9 00 00 00 00	 mov	 ecx, OFFSET ?g_dpDBClient@@3VCDPDatabaseClient@@A ; g_dpDBClient
  00040	6a 44		 push	 68			; 00000044H
; File C:\Program Files\Microsoft Visual Studio\2022\Professional\VC\Tools\MSVC\14.44.35207\include\vector

; 1934 :         return _My_data._Myfirst[_Pos];

  00042	03 c7		 add	 eax, edi
; File C:\IAGOS\server\v18\Source\Source\_Common\GuildHouse.cpp

; 846  : 	g_dpDBClient.SendLogGuildFurniture( m_dwGuildId, m_vecFntInfo[nIndex], 'D' );

  00044	50		 push	 eax
  00045	ff 76 04	 push	 DWORD PTR [esi+4]
  00048	e8 00 00 00 00	 call	 ?SendLogGuildFurniture@CDPDatabaseClient@@QAEXKAAUGuildHouse_Furniture_Info@CGuildHouseBase@@D@Z ; CDPDatabaseClient::SendLogGuildFurniture
; File C:\Program Files\Microsoft Visual Studio\2022\Professional\VC\Tools\MSVC\14.44.35207\include\vector

; 129  :         _Ptr += _Off;

  0004d	8b 46 0c	 mov	 eax, DWORD PTR [esi+12]
  00050	03 c7		 add	 eax, edi
; File C:\Program Files\Microsoft Visual Studio\2022\Professional\VC\Tools\MSVC\14.44.35207\include\xutility

; 5147 :                 return _STD _Copy_memmove(_First, _Last, _Dest);

  00052	50		 push	 eax
  00053	ff 76 10	 push	 DWORD PTR [esi+16]
; File C:\Program Files\Microsoft Visual Studio\2022\Professional\VC\Tools\MSVC\14.44.35207\include\vector

; 1775 :         _STD _Move_unchecked(_Whereptr + 1, _Mylast, _Whereptr);

  00056	83 c0 20	 add	 eax, 32			; 00000020H
; File C:\Program Files\Microsoft Visual Studio\2022\Professional\VC\Tools\MSVC\14.44.35207\include\xutility

; 5147 :                 return _STD _Copy_memmove(_First, _Last, _Dest);

  00059	50		 push	 eax
  0005a	e8 00 00 00 00	 call	 ??$_Copy_memmove@PAUGuildHouse_Furniture_Info@CGuildHouseBase@@PAU12@@std@@YAPAUGuildHouse_Furniture_Info@CGuildHouseBase@@PAU12@00@Z ; std::_Copy_memmove<CGuildHouseBase::GuildHouse_Furniture_Info *,CGuildHouseBase::GuildHouse_Furniture_Info *>
  0005f	83 c4 0c	 add	 esp, 12			; 0000000cH
; File C:\IAGOS\server\v18\Source\Source\_Common\GuildHouse.cpp

; 849  : 	return TRUE;

  00062	b8 01 00 00 00	 mov	 eax, 1
; File C:\Program Files\Microsoft Visual Studio\2022\Professional\VC\Tools\MSVC\14.44.35207\include\vector

; 1778 :         --_Mylast;

  00067	83 46 10 e0	 add	 DWORD PTR [esi+16], -32	; ffffffe0H
; File C:\IAGOS\server\v18\Source\Source\_Common\GuildHouse.cpp

; 849  : 	return TRUE;

  0006b	5f		 pop	 edi
  0006c	5e		 pop	 esi

; 850  : }

  0006d	5d		 pop	 ebp
  0006e	c2 04 00	 ret	 4
?ListDropFurniture@CGuildHouseBase@@AAEHH@Z ENDP	; CGuildHouseBase::ListDropFurniture
_TEXT	ENDS
; Function compile flags: /Ogtp
; File C:\IAGOS\server\v18\Source\Source\_Common\GuildHouse.cpp
; File C:\Program Files\Microsoft Visual Studio\2022\Professional\VC\Tools\MSVC\14.44.35207\include\vector
; File C:\IAGOS\server\v18\Source\Source\_Common\GuildHouse.cpp
; File C:\Program Files\Microsoft Visual Studio\2022\Professional\VC\Tools\MSVC\14.44.35207\include\vector
; File C:\IAGOS\server\v18\Source\Source\_Common\GuildHouse.cpp
; File C:\Program Files\Microsoft Visual Studio\2022\Professional\VC\Tools\MSVC\14.44.35207\include\vector
; File C:\Program Files\Microsoft Visual Studio\2022\Professional\VC\Tools\MSVC\14.44.35207\include\xutility
; File C:\Program Files\Microsoft Visual Studio\2022\Professional\VC\Tools\MSVC\14.44.35207\include\vector
; File C:\Program Files\Microsoft Visual Studio\2022\Professional\VC\Tools\MSVC\14.44.35207\include\xmemory
; File C:\Program Files\Microsoft Visual Studio\2022\Professional\VC\Tools\MSVC\14.44.35207\include\vector
; File C:\Program Files\Microsoft Visual Studio\2022\Professional\VC\Tools\MSVC\14.44.35207\include\xmemory
; File C:\Program Files\Microsoft Visual Studio\2022\Professional\VC\Tools\MSVC\14.44.35207\include\vector
; File C:\Program Files\Microsoft Visual Studio\2022\Professional\VC\Tools\MSVC\14.44.35207\include\xmemory
; File C:\Program Files\Microsoft Visual Studio\2022\Professional\VC\Tools\MSVC\14.44.35207\include\vector
; File C:\Program Files\Microsoft Visual Studio\2022\Professional\VC\Tools\MSVC\14.44.35207\include\xmemory
; File C:\Program Files\Microsoft Visual Studio\2022\Professional\VC\Tools\MSVC\14.44.35207\include\vector
; File C:\Program Files\Microsoft Visual Studio\2022\Professional\VC\Tools\MSVC\14.44.35207\include\xmemory
; File C:\Program Files\Microsoft Visual Studio\2022\Professional\VC\Tools\MSVC\14.44.35207\include\vector
; File C:\Program Files\Microsoft Visual Studio\2022\Professional\VC\Tools\MSVC\14.44.35207\include\xmemory
; File C:\Program Files\Microsoft Visual Studio\2022\Professional\VC\Tools\MSVC\14.44.35207\include\vector
; File C:\IAGOS\server\v18\Source\Source\_Common\GuildHouse.cpp
; File C:\Program Files\Microsoft Visual Studio\2022\Professional\VC\Tools\MSVC\14.44.35207\include\vector
; File C:\Program Files\Microsoft Visual Studio\2022\Professional\VC\Tools\MSVC\14.44.35207\include\xmemory
; File C:\IAGOS\server\v18\Source\Source\_Common\GuildHouse.cpp
;	COMDAT ?ListUpFurniture@CGuildHouseBase@@AAEHAAUGuildHouse_Furniture_Info@1@@Z
_TEXT	SEGMENT
_this$1$ = -20						; size = 4
__Newsize$1$ = -16					; size = 4
__Oldsize$1$ = -12					; size = 4
tv643 = -12						; size = 4
$T1 = -8						; size = 4
$T2 = -4						; size = 4
_gfi$ = 8						; size = 4
?ListUpFurniture@CGuildHouseBase@@AAEHAAUGuildHouse_Furniture_Info@1@@Z PROC ; CGuildHouseBase::ListUpFurniture, COMDAT
; _this$ = ecx

; 830  : {

  00000	55		 push	 ebp
  00001	8b ec		 mov	 ebp, esp
  00003	83 ec 14	 sub	 esp, 20			; 00000014H
  00006	8b c1		 mov	 eax, ecx
; File C:\Program Files\Microsoft Visual Studio\2022\Professional\VC\Tools\MSVC\14.44.35207\include\vector

; 844  :         if (_Mylast != _My_data._Myend) {

  00008	8b 50 14	 mov	 edx, DWORD PTR [eax+20]
; File C:\IAGOS\server\v18\Source\Source\_Common\GuildHouse.cpp

; 830  : {

  0000b	53		 push	 ebx
; File C:\Program Files\Microsoft Visual Studio\2022\Professional\VC\Tools\MSVC\14.44.35207\include\vector

; 844  :         if (_Mylast != _My_data._Myend) {

  0000c	8b 58 10	 mov	 ebx, DWORD PTR [eax+16]
; File C:\IAGOS\server\v18\Source\Source\_Common\GuildHouse.cpp

; 830  : {

  0000f	89 45 ec	 mov	 DWORD PTR _this$1$[ebp], eax
  00012	56		 push	 esi

; 831  : 	m_vecFntInfo.push_back( gfi );

  00013	8d 70 0c	 lea	 esi, DWORD PTR [eax+12]
  00016	57		 push	 edi
; File C:\Program Files\Microsoft Visual Studio\2022\Professional\VC\Tools\MSVC\14.44.35207\include\vector

; 844  :         if (_Mylast != _My_data._Myend) {

  00017	3b da		 cmp	 ebx, edx
  00019	74 1a		 je	 SHORT $LN6@ListUpFurn
; File C:\Program Files\Microsoft Visual Studio\2022\Professional\VC\Tools\MSVC\14.44.35207\include\xutility

; 476  :         ::new (static_cast<void*>(_STD addressof(_Obj))) _Ty(_STD forward<_Types>(_Args)...);

  0001b	8b 7d 08	 mov	 edi, DWORD PTR _gfi$[ebp]
  0001e	0f 10 07	 movups	 xmm0, XMMWORD PTR [edi]
  00021	0f 11 03	 movups	 XMMWORD PTR [ebx], xmm0
  00024	0f 10 47 10	 movups	 xmm0, XMMWORD PTR [edi+16]
  00028	0f 11 43 10	 movups	 XMMWORD PTR [ebx+16], xmm0
; File C:\Program Files\Microsoft Visual Studio\2022\Professional\VC\Tools\MSVC\14.44.35207\include\vector

; 869  :         ++_Mylast;

  0002c	83 46 04 20	 add	 DWORD PTR [esi+4], 32	; 00000020H

; 845  :             return _Emplace_back_with_unused_capacity(_STD forward<_Valty>(_Val)...);

  00030	e9 e2 00 00 00	 jmp	 $LN92@ListUpFurn
$LN6@ListUpFurn:

; 884  :         const auto _Whereoff = static_cast<size_type>(_Whereptr - _Myfirst);

  00035	8b 06		 mov	 eax, DWORD PTR [esi]
  00037	8b cb		 mov	 ecx, ebx
  00039	2b c8		 sub	 ecx, eax
  0003b	c1 f9 05	 sar	 ecx, 5
  0003e	89 4d f4	 mov	 DWORD PTR __Oldsize$1$[ebp], ecx

; 885  :         const auto _Oldsize  = static_cast<size_type>(_Mylast - _Myfirst);
; 886  : 
; 887  :         if (_Oldsize == max_size()) {

  00041	81 f9 ff ff ff
	07		 cmp	 ecx, 134217727		; 07ffffffH
  00047	0f 84 e8 00 00
	00		 je	 $LN115@ListUpFurn

; 1924 :         return static_cast<size_type>(_My_data._Myend - _My_data._Myfirst);

  0004d	2b d0		 sub	 edx, eax

; 891  :         const size_type _Newsize = _Oldsize + 1;

  0004f	8d 79 01	 lea	 edi, DWORD PTR [ecx+1]

; 1924 :         return static_cast<size_type>(_My_data._Myend - _My_data._Myfirst);

  00052	c1 fa 05	 sar	 edx, 5

; 2011 :         if (_Oldcapacity > _Max - _Oldcapacity / 2) {

  00055	b8 ff ff ff 07	 mov	 eax, 134217727		; 07ffffffH

; 891  :         const size_type _Newsize = _Oldsize + 1;

  0005a	89 7d f0	 mov	 DWORD PTR __Newsize$1$[ebp], edi

; 2011 :         if (_Oldcapacity > _Max - _Oldcapacity / 2) {

  0005d	8b fa		 mov	 edi, edx
  0005f	d1 ef		 shr	 edi, 1
  00061	2b c7		 sub	 eax, edi
  00063	3b d0		 cmp	 edx, eax
  00065	76 14		 jbe	 SHORT $LN20@ListUpFurn

; 2012 :             return _Max; // geometric growth would overflow

  00067	b8 e0 ff ff ff	 mov	 eax, -32		; ffffffe0H
  0006c	c7 45 fc ff ff
	ff 07		 mov	 DWORD PTR $T2[ebp], 134217727 ; 07ffffffH
; File C:\Program Files\Microsoft Visual Studio\2022\Professional\VC\Tools\MSVC\14.44.35207\include\xmemory

; 253  :             return _Allocate_manually_vector_aligned<_Traits>(_Bytes);

  00073	50		 push	 eax
  00074	e8 00 00 00 00	 call	 ??$_Allocate_manually_vector_aligned@U_Default_allocate_traits@std@@@std@@YAPAXI@Z ; std::_Allocate_manually_vector_aligned<std::_Default_allocate_traits>
  00079	eb 3d		 jmp	 SHORT $LN113@ListUpFurn
$LN20@ListUpFurn:
; File C:\Program Files\Microsoft Visual Studio\2022\Professional\VC\Tools\MSVC\14.44.35207\include\vector

; 2015 :         const size_type _Geometric = _Oldcapacity + _Oldcapacity / 2;

  0007b	8d 04 17	 lea	 eax, DWORD PTR [edi+edx]
; File C:\Program Files\Microsoft Visual Studio\2022\Professional\VC\Tools\MSVC\14.44.35207\include\xmemory

; 117  :         if (_Count > _Max_possible) {

  0007e	8b 7d f0	 mov	 edi, DWORD PTR __Newsize$1$[ebp]
  00081	3b c7		 cmp	 eax, edi
  00083	0f 43 f8	 cmovae	 edi, eax
  00086	89 7d fc	 mov	 DWORD PTR $T2[ebp], edi
  00089	81 ff ff ff ff
	07		 cmp	 edi, 134217727		; 07ffffffH
  0008f	0f 87 a5 00 00
	00		 ja	 $LN116@ListUpFurn

; 119  :         }
; 120  :     }
; 121  : 
; 122  :     return _Count * _Ty_size;

  00095	8b c7		 mov	 eax, edi
  00097	c1 e0 05	 shl	 eax, 5

; 227  :     if (_Bytes == 0) {

  0009a	85 c0		 test	 eax, eax
  0009c	75 05		 jne	 SHORT $LN35@ListUpFurn

; 228  :         return nullptr;

  0009e	89 7d fc	 mov	 DWORD PTR $T2[ebp], edi
  000a1	eb 1b		 jmp	 SHORT $LN112@ListUpFurn
$LN35@ListUpFurn:

; 229  :     }
; 230  : 
; 231  : #if _HAS_CXX20 // TRANSITION, GH-1532
; 232  :     if (_STD is_constant_evaluated()) {
; 233  :         return _Traits::_Allocate(_Bytes);
; 234  :     }
; 235  : #endif // _HAS_CXX20
; 236  : 
; 237  : #ifdef __cpp_aligned_new
; 238  :     if constexpr (_Align > __STDCPP_DEFAULT_NEW_ALIGNMENT__) {
; 239  :         size_t _Passed_align = _Align;
; 240  : #if defined(_M_IX86) || defined(_M_X64)
; 241  :         if (_Bytes >= _Big_allocation_threshold) {
; 242  :             // boost the alignment of big allocations to help autovectorization
; 243  :             _Passed_align = (_STD max)(_Align, _Big_allocation_alignment);
; 244  :         }
; 245  : #endif // defined(_M_IX86) || defined(_M_X64)
; 246  :         return _Traits::_Allocate_aligned(_Bytes, _Passed_align);
; 247  :     } else
; 248  : #endif // defined(__cpp_aligned_new)
; 249  :     {
; 250  : #if defined(_M_IX86) || defined(_M_X64)
; 251  :         if (_Bytes >= _Big_allocation_threshold) {

  000a3	3d 00 10 00 00	 cmp	 eax, 4096		; 00001000H
  000a8	72 08		 jb	 SHORT $LN36@ListUpFurn

; 253  :             return _Allocate_manually_vector_aligned<_Traits>(_Bytes);

  000aa	50		 push	 eax
  000ab	e8 00 00 00 00	 call	 ??$_Allocate_manually_vector_aligned@U_Default_allocate_traits@std@@@std@@YAPAXI@Z ; std::_Allocate_manually_vector_aligned<std::_Default_allocate_traits>
  000b0	eb 06		 jmp	 SHORT $LN113@ListUpFurn
$LN36@ListUpFurn:

; 136  :         return ::operator new(_Bytes);

  000b2	50		 push	 eax
  000b3	e8 00 00 00 00	 call	 ??2@YAPAXI@Z		; operator new
$LN113@ListUpFurn:
; File C:\Program Files\Microsoft Visual Studio\2022\Professional\VC\Tools\MSVC\14.44.35207\include\vector

; 900  :         _Alty_traits::construct(_Al, _STD _Unfancy(_Newvec + _Whereoff), _STD forward<_Valty>(_Val)...);

  000b8	8b 4d f4	 mov	 ecx, DWORD PTR __Oldsize$1$[ebp]
  000bb	83 c4 04	 add	 esp, 4
$LN112@ListUpFurn:
; File C:\Program Files\Microsoft Visual Studio\2022\Professional\VC\Tools\MSVC\14.44.35207\include\xmemory

; 732  :         ::new (const_cast<void*>(static_cast<const volatile void*>(_Ptr))) _Objty(_STD forward<_Types>(_Args)...);

  000be	8b 7d 08	 mov	 edi, DWORD PTR _gfi$[ebp]
; File C:\Program Files\Microsoft Visual Studio\2022\Professional\VC\Tools\MSVC\14.44.35207\include\vector

; 900  :         _Alty_traits::construct(_Al, _STD _Unfancy(_Newvec + _Whereoff), _STD forward<_Valty>(_Val)...);

  000c1	c1 e1 05	 shl	 ecx, 5
  000c4	03 c8		 add	 ecx, eax
  000c6	89 45 f8	 mov	 DWORD PTR $T1[ebp], eax
  000c9	89 4d f4	 mov	 DWORD PTR tv643[ebp], ecx
; File C:\Program Files\Microsoft Visual Studio\2022\Professional\VC\Tools\MSVC\14.44.35207\include\xmemory

; 732  :         ::new (const_cast<void*>(static_cast<const volatile void*>(_Ptr))) _Objty(_STD forward<_Types>(_Args)...);

  000cc	0f 10 07	 movups	 xmm0, XMMWORD PTR [edi]
  000cf	0f 11 01	 movups	 XMMWORD PTR [ecx], xmm0
  000d2	0f 10 47 10	 movups	 xmm0, XMMWORD PTR [edi+16]
  000d6	0f 11 41 10	 movups	 XMMWORD PTR [ecx+16], xmm0
; File C:\Program Files\Microsoft Visual Studio\2022\Professional\VC\Tools\MSVC\14.44.35207\include\vector

; 903  :         if (_Whereptr == _Mylast) { // at back, provide strong guarantee

  000da	8b 56 04	 mov	 edx, DWORD PTR [esi+4]
  000dd	8b 0e		 mov	 ecx, DWORD PTR [esi]
  000df	3b da		 cmp	 ebx, edx
  000e1	74 16		 je	 SHORT $LN70@ListUpFurn
; File C:\Program Files\Microsoft Visual Studio\2022\Professional\VC\Tools\MSVC\14.44.35207\include\xmemory

; 1992 :             _STD _Copy_memmove(_UFirst, _ULast, _STD _Unfancy(_Dest));

  000e3	50		 push	 eax
  000e4	53		 push	 ebx
  000e5	51		 push	 ecx
  000e6	e8 00 00 00 00	 call	 ??$_Copy_memmove@PAUGuildHouse_Furniture_Info@CGuildHouseBase@@PAU12@@std@@YAPAUGuildHouse_Furniture_Info@CGuildHouseBase@@PAU12@00@Z ; std::_Copy_memmove<CGuildHouseBase::GuildHouse_Furniture_Info *,CGuildHouseBase::GuildHouse_Furniture_Info *>
; File C:\Program Files\Microsoft Visual Studio\2022\Professional\VC\Tools\MSVC\14.44.35207\include\vector

; 912  :             _STD _Uninitialized_move(_Whereptr, _Mylast, _Newvec + _Whereoff + 1, _Al);

  000eb	8b 45 f4	 mov	 eax, DWORD PTR tv643[ebp]
; File C:\Program Files\Microsoft Visual Studio\2022\Professional\VC\Tools\MSVC\14.44.35207\include\xmemory

; 1992 :             _STD _Copy_memmove(_UFirst, _ULast, _STD _Unfancy(_Dest));

  000ee	83 c4 0c	 add	 esp, 12			; 0000000cH
  000f1	8b 56 04	 mov	 edx, DWORD PTR [esi+4]
  000f4	8b cb		 mov	 ecx, ebx
; File C:\Program Files\Microsoft Visual Studio\2022\Professional\VC\Tools\MSVC\14.44.35207\include\vector

; 912  :             _STD _Uninitialized_move(_Whereptr, _Mylast, _Newvec + _Whereoff + 1, _Al);

  000f6	83 c0 20	 add	 eax, 32			; 00000020H
$LN70@ListUpFurn:

; 913  :         }
; 914  : 
; 915  :         _Guard._New_begin = nullptr;

  000f9	50		 push	 eax
  000fa	52		 push	 edx
  000fb	51		 push	 ecx
  000fc	e8 00 00 00 00	 call	 ??$_Copy_memmove@PAUGuildHouse_Furniture_Info@CGuildHouseBase@@PAU12@@std@@YAPAUGuildHouse_Furniture_Info@CGuildHouseBase@@PAU12@00@Z ; std::_Copy_memmove<CGuildHouseBase::GuildHouse_Furniture_Info *,CGuildHouseBase::GuildHouse_Furniture_Info *>
  00101	83 c4 0c	 add	 esp, 12			; 0000000cH

; 916  :         _Change_array(_Newvec, _Newsize, _Newcapacity);

  00104	8b ce		 mov	 ecx, esi
  00106	ff 75 fc	 push	 DWORD PTR $T2[ebp]
  00109	ff 75 f0	 push	 DWORD PTR __Newsize$1$[ebp]
  0010c	ff 75 f8	 push	 DWORD PTR $T1[ebp]
  0010f	e8 00 00 00 00	 call	 ?_Change_array@?$vector@UGuildHouse_Furniture_Info@CGuildHouseBase@@V?$allocator@UGuildHouse_Furniture_Info@CGuildHouseBase@@@std@@@std@@AAEXQAUGuildHouse_Furniture_Info@CGuildHouseBase@@II@Z ; std::vector<CGuildHouseBase::GuildHouse_Furniture_Info,std::allocator<CGuildHouseBase::GuildHouse_Furniture_Info> >::_Change_array
  00114	8b 45 ec	 mov	 eax, DWORD PTR _this$1$[ebp]
$LN92@ListUpFurn:
; File C:\IAGOS\server\v18\Source\Source\_Common\GuildHouse.cpp

; 833  : 	g_dpDBClient.SendLogGuildFurniture( m_dwGuildId, gfi, 'I' );

  00117	6a 49		 push	 73			; 00000049H
  00119	57		 push	 edi
  0011a	ff 70 04	 push	 DWORD PTR [eax+4]
  0011d	b9 00 00 00 00	 mov	 ecx, OFFSET ?g_dpDBClient@@3VCDPDatabaseClient@@A ; g_dpDBClient
  00122	e8 00 00 00 00	 call	 ?SendLogGuildFurniture@CDPDatabaseClient@@QAEXKAAUGuildHouse_Furniture_Info@CGuildHouseBase@@D@Z ; CDPDatabaseClient::SendLogGuildFurniture

; 836  : }

  00127	5f		 pop	 edi
  00128	5e		 pop	 esi
  00129	b8 01 00 00 00	 mov	 eax, 1
  0012e	5b		 pop	 ebx
  0012f	8b e5		 mov	 esp, ebp
  00131	5d		 pop	 ebp
  00132	c2 04 00	 ret	 4
$LN115@ListUpFurn:
; File C:\Program Files\Microsoft Visual Studio\2022\Professional\VC\Tools\MSVC\14.44.35207\include\vector

; 888  :             _Xlength();

  00135	e8 00 00 00 00	 call	 ?_Xlength@?$vector@UGuildHouse_Furniture_Info@CGuildHouseBase@@V?$allocator@UGuildHouse_Furniture_Info@CGuildHouseBase@@@std@@@std@@CAXXZ ; std::vector<CGuildHouseBase::GuildHouse_Furniture_Info,std::allocator<CGuildHouseBase::GuildHouse_Furniture_Info> >::_Xlength
$LN116@ListUpFurn:
; File C:\Program Files\Microsoft Visual Studio\2022\Professional\VC\Tools\MSVC\14.44.35207\include\xmemory

; 118  :             _Throw_bad_array_new_length(); // multiply overflow

  0013a	e8 00 00 00 00	 call	 ?_Throw_bad_array_new_length@std@@YAXXZ ; std::_Throw_bad_array_new_length
$LN111@ListUpFurn:
  0013f	cc		 int	 3
?ListUpFurniture@CGuildHouseBase@@AAEHAAUGuildHouse_Furniture_Info@1@@Z ENDP ; CGuildHouseBase::ListUpFurniture
_TEXT	ENDS
; Function compile flags: /Ogtp
; File C:\IAGOS\server\v18\Source\Source\_Common\GuildHouse.cpp
; File C:\Program Files\Microsoft Visual Studio\2022\Professional\VC\Tools\MSVC\14.44.35207\include\vector
; File C:\IAGOS\server\v18\Source\Source\_Common\GuildHouse.cpp
; File C:\Program Files\Microsoft Visual Studio\2022\Professional\VC\Tools\MSVC\14.44.35207\include\vector
; File C:\IAGOS\server\v18\Source\Source\_Common\GuildHouse.cpp
; File C:\IAGOS\server\v18\Source\Source\_Common\Project.h
; File C:\IAGOS\server\v18\Source\Source\_Common\data.h
; File C:\IAGOS\server\v18\Source\Source\_Common\GuildHouse.cpp
; File C:\Program Files\Microsoft Visual Studio\2022\Professional\VC\Tools\MSVC\14.44.35207\include\vector
; File C:\IAGOS\server\v18\Source\Source\_Common\GuildHouse.cpp
; File C:\Program Files\Microsoft Visual Studio\2022\Professional\VC\Tools\MSVC\14.44.35207\include\vector
; File C:\IAGOS\server\v18\Source\Source\_Common\GuildHouse.cpp
; File C:\IAGOS\server\v18\Source\Source\_Common\Project.h
; File C:\IAGOS\server\v18\Source\Source\_Common\GuildHouse.cpp
;	COMDAT ?ResetFurnitureCtrl@CGuildHouseBase@@AAEHHAAUGuildHouse_Furniture_Info@1@@Z
_TEXT	SEGMENT
_pWorld$1$ = -4						; size = 4
_nIndex$ = 8						; size = 4
_pCtrl$2$ = 8						; size = 4
_gfi$ = 12						; size = 4
?ResetFurnitureCtrl@CGuildHouseBase@@AAEHHAAUGuildHouse_Furniture_Info@1@@Z PROC ; CGuildHouseBase::ResetFurnitureCtrl, COMDAT
; _this$ = ecx

; 922  : {

  00000	55		 push	 ebp
  00001	8b ec		 mov	 ebp, esp
  00003	51		 push	 ecx
  00004	53		 push	 ebx
  00005	56		 push	 esi
  00006	8b f1		 mov	 esi, ecx
  00008	57		 push	 edi

; 923  : 	if( (int)( m_vecFntInfo.size() ) <= nIndex || m_vecFntInfo[nIndex].dwItemId != gfi.dwItemId )	return FALSE;

  00009	8b 7d 08	 mov	 edi, DWORD PTR _nIndex$[ebp]
; File C:\Program Files\Microsoft Visual Studio\2022\Professional\VC\Tools\MSVC\14.44.35207\include\vector

; 1915 :         return static_cast<size_type>(_My_data._Mylast - _My_data._Myfirst);

  0000c	8b 46 10	 mov	 eax, DWORD PTR [esi+16]
  0000f	8b 56 0c	 mov	 edx, DWORD PTR [esi+12]
  00012	2b c2		 sub	 eax, edx
  00014	c1 f8 05	 sar	 eax, 5
; File C:\IAGOS\server\v18\Source\Source\_Common\GuildHouse.cpp

; 923  : 	if( (int)( m_vecFntInfo.size() ) <= nIndex || m_vecFntInfo[nIndex].dwItemId != gfi.dwItemId )	return FALSE;

  00017	3b c7		 cmp	 eax, edi
  00019	0f 8e 24 01 00
	00		 jle	 $LN3@ResetFurni
  0001f	8b 4d 0c	 mov	 ecx, DWORD PTR _gfi$[ebp]
; File C:\Program Files\Microsoft Visual Studio\2022\Professional\VC\Tools\MSVC\14.44.35207\include\vector

; 1934 :         return _My_data._Myfirst[_Pos];

  00022	c1 e7 05	 shl	 edi, 5
; File C:\IAGOS\server\v18\Source\Source\_Common\GuildHouse.cpp

; 923  : 	if( (int)( m_vecFntInfo.size() ) <= nIndex || m_vecFntInfo[nIndex].dwItemId != gfi.dwItemId )	return FALSE;

  00025	8b 09		 mov	 ecx, DWORD PTR [ecx]
  00027	39 0c 17	 cmp	 DWORD PTR [edi+edx], ecx
  0002a	0f 85 13 01 00
	00		 jne	 $LN3@ResetFurni
; File C:\IAGOS\server\v18\Source\Source\_Common\Project.h

; 1389 : 	VERIFY_RANGE_ASSERT( nIndex, 0, m_aPropItem.GetSize(), "GetItemProp range_error", NULL );

  00030	a1 40 02 00 00	 mov	 eax, DWORD PTR ?prj@@3VCProject@@A+576
  00035	85 c9		 test	 ecx, ecx
  00037	0f 88 f0 00 00
	00		 js	 $LN21@ResetFurni
  0003d	3b c8		 cmp	 ecx, eax
  0003f	0f 8d e8 00 00
	00		 jge	 $LN21@ResetFurni
; File C:\IAGOS\server\v18\Source\Source\_Common\data.h

; 270  : 	if( dwIndex >= (DWORD)m_nMaxIndex )

  00045	72 04		 jb	 SHORT $LN26@ResetFurni

; 271  : 		return NULL;

  00047	33 db		 xor	 ebx, ebx
  00049	eb 08		 jmp	 SHORT $LN25@ResetFurni
$LN26@ResetFurni:

; 272  : 	return (T*) m_apOffset[ dwIndex ];

  0004b	a1 30 02 00 00	 mov	 eax, DWORD PTR ?prj@@3VCProject@@A+560
  00050	8b 1c 88	 mov	 ebx, DWORD PTR [eax+ecx*4]
$LN25@ResetFurni:
; File C:\IAGOS\server\v18\Source\Source\_Common\GuildHouse.cpp

; 925  : 	if( !pItemProp )	return FALSE;

  00053	85 db		 test	 ebx, ebx
  00055	0f 84 e8 00 00
	00		 je	 $LN3@ResetFurni

; 926  : 	if( pItemProp->dwItemKind3 == IK3_TELEPORTER )	return FALSE;

  0005b	81 7b 78 8c 00
	00 00		 cmp	 DWORD PTR [ebx+120], 140 ; 0000008cH
  00062	0f 84 db 00 00
	00		 je	 $LN3@ResetFurni

; 927  : 
; 928  : #ifdef __WORLDSERVER
; 929  : 	CWorld* pWorld = g_WorldMng.GetWorld( m_dwWorldId );

  00068	ff 76 08	 push	 DWORD PTR [esi+8]
  0006b	b9 00 00 00 00	 mov	 ecx, OFFSET ?g_WorldMng@@3VCWorldMng@@A ; g_WorldMng
  00070	e8 00 00 00 00	 call	 ?GetWorld@CWorldMng@@QAEPAVCWorld@@K@Z ; CWorldMng::GetWorld
  00075	89 45 fc	 mov	 DWORD PTR _pWorld$1$[ebp], eax

; 930  : 	if( pWorld && pWorld->m_linkMap.GetLinkMap( static_cast<int>( m_dwGuildId ) ) )

  00078	85 c0		 test	 eax, eax
  0007a	0f 84 89 00 00
	00		 je	 $LN8@ResetFurni
  00080	ff 76 04	 push	 DWORD PTR [esi+4]
  00083	8d 48 24	 lea	 ecx, DWORD PTR [eax+36]
  00086	e8 00 00 00 00	 call	 ?GetLinkMap@CLayeredLinkMap@@QAEPAVCLinkMap@@H@Z ; CLayeredLinkMap::GetLinkMap
  0008b	85 c0		 test	 eax, eax
  0008d	74 7a		 je	 SHORT $LN8@ResetFurni
; File C:\Program Files\Microsoft Visual Studio\2022\Professional\VC\Tools\MSVC\14.44.35207\include\vector

; 1934 :         return _My_data._Myfirst[_Pos];

  0008f	8b 46 0c	 mov	 eax, DWORD PTR [esi+12]
; File C:\IAGOS\server\v18\Source\Source\_Common\GuildHouse.cpp

; 933  : 		CCtrl* pCtrl	= prj.GetCtrl( m_vecFntInfo[nIndex].objId );

  00092	b9 00 00 00 00	 mov	 ecx, OFFSET ?prj@@3VCProject@@A ; prj
  00097	ff 74 38 18	 push	 DWORD PTR [eax+edi+24]
  0009b	e8 00 00 00 00	 call	 ?GetCtrl@CProject@@QAEPAVCCtrl@@K@Z ; CProject::GetCtrl

; 934  : 		if( pCtrl )

  000a0	85 c0		 test	 eax, eax
  000a2	74 65		 je	 SHORT $LN8@ResetFurni

; 935  : 		{
; 936  : 			pCtrl->Delete();	// »čÁ¦

  000a4	8b c8		 mov	 ecx, eax
  000a6	e8 00 00 00 00	 call	 ?Delete@CObj@@QAEXXZ	; CObj::Delete

; 937  : 			// ±×¸®°í ´Ů˝Ă »ýĽş!!!
; 938  : 			pCtrl = (CCtrl*)CreateObj( D3DDEVICE, OT_CTRL, pItemProp->dwLinkKind );

  000ab	6a 01		 push	 1
  000ad	ff b3 e0 00 00
	00		 push	 DWORD PTR [ebx+224]
  000b3	6a 02		 push	 2
  000b5	6a 00		 push	 0
  000b7	e8 00 00 00 00	 call	 ?CreateObj@@YAPAVCObj@@PAUIDirect3DDevice9@@KKH@Z ; CreateObj
  000bc	83 c4 10	 add	 esp, 16			; 00000010H
  000bf	89 45 08	 mov	 DWORD PTR _pCtrl$2$[ebp], eax

; 939  : 			if( pCtrl )

  000c2	85 c0		 test	 eax, eax
  000c4	74 43		 je	 SHORT $LN8@ResetFurni

; 940  : 			{
; 941  : 				pCtrl->SetPos( gfi.vPos );

  000c6	8b 5d 0c	 mov	 ebx, DWORD PTR _gfi$[ebp]
  000c9	8d 4b 08	 lea	 ecx, DWORD PTR [ebx+8]
  000cc	51		 push	 ecx
  000cd	8b c8		 mov	 ecx, eax
  000cf	e8 00 00 00 00	 call	 ?SetPos@CObj@@QAEXABUD3DXVECTOR3@@@Z ; CObj::SetPos

; 942  : 				pCtrl->SetAngle( gfi.fAngle );

  000d4	f3 0f 10 43 14	 movss	 xmm0, DWORD PTR [ebx+20]
  000d9	51		 push	 ecx
  000da	8b 4d 08	 mov	 ecx, DWORD PTR _pCtrl$2$[ebp]
  000dd	f3 0f 11 04 24	 movss	 DWORD PTR [esp], xmm0
  000e2	e8 00 00 00 00	 call	 ?SetAngle@CObj@@QAEXM@Z	; CObj::SetAngle

; 943  : 				pCtrl->AddItToGlobalId();

  000e7	8b 4d 08	 mov	 ecx, DWORD PTR _pCtrl$2$[ebp]
  000ea	8b 01		 mov	 eax, DWORD PTR [ecx]
  000ec	ff 50 3c	 call	 DWORD PTR [eax+60]

; 944  : 				gfi.objId = pCtrl->GetId();

  000ef	8b 4d 08	 mov	 ecx, DWORD PTR _pCtrl$2$[ebp]
  000f2	8b 81 bc 01 00
	00		 mov	 eax, DWORD PTR [ecx+444]
  000f8	89 43 18	 mov	 DWORD PTR [ebx+24], eax

; 945  : 				pWorld->ADDOBJ( pCtrl, FALSE, static_cast<int>( m_dwGuildId ) );

  000fb	ff 76 04	 push	 DWORD PTR [esi+4]
  000fe	6a 00		 push	 0
  00100	51		 push	 ecx
  00101	8b 4d fc	 mov	 ecx, DWORD PTR _pWorld$1$[ebp]
  00104	e8 00 00 00 00	 call	 ?AddObj@CWorld@@QAEHPAVCObj@@HH@Z ; CWorld::AddObj
$LN8@ResetFurni:

; 950  : 	m_vecFntInfo[nIndex] = gfi;

  00109	8b 4d 0c	 mov	 ecx, DWORD PTR _gfi$[ebp]
; File C:\Program Files\Microsoft Visual Studio\2022\Professional\VC\Tools\MSVC\14.44.35207\include\vector

; 1934 :         return _My_data._Myfirst[_Pos];

  0010c	8b 46 0c	 mov	 eax, DWORD PTR [esi+12]
; File C:\IAGOS\server\v18\Source\Source\_Common\GuildHouse.cpp

; 950  : 	m_vecFntInfo[nIndex] = gfi;

  0010f	0f 10 01	 movups	 xmm0, XMMWORD PTR [ecx]
  00112	0f 11 04 38	 movups	 XMMWORD PTR [eax+edi], xmm0
  00116	0f 10 41 10	 movups	 xmm0, XMMWORD PTR [ecx+16]
  0011a	0f 11 44 38 10	 movups	 XMMWORD PTR [eax+edi+16], xmm0
  0011f	5f		 pop	 edi

; 952  : }

  00120	5e		 pop	 esi
  00121	b8 01 00 00 00	 mov	 eax, 1
  00126	5b		 pop	 ebx
  00127	8b e5		 mov	 esp, ebp
  00129	5d		 pop	 ebp
  0012a	c2 08 00	 ret	 8
$LN21@ResetFurni:
; File C:\IAGOS\server\v18\Source\Source\_Common\Project.h

; 579  : 	LPCTSTR szErr = Error( _T( "%s min:%d, max:%d, index:%d" ), szMsg, nMin, nMax, nIndex ); 

  0012d	51		 push	 ecx
  0012e	50		 push	 eax
  0012f	6a 00		 push	 0
  00131	68 00 00 00 00	 push	 OFFSET ??_C@_0BI@BEIFNGEL@GetItemProp?5range_error@
  00136	68 00 00 00 00	 push	 OFFSET ??_C@_0BM@HMFGHCP@?$CFs?5min?3?$CFd?0?5max?3?$CFd?0?5index?3?$CFd@
  0013b	e8 00 00 00 00	 call	 ?Error@@YAPBDPBDZZ	; Error
  00140	83 c4 14	 add	 esp, 20			; 00000014H
$LN3@ResetFurni:
  00143	5f		 pop	 edi
; File C:\IAGOS\server\v18\Source\Source\_Common\GuildHouse.cpp

; 952  : }

  00144	5e		 pop	 esi
  00145	33 c0		 xor	 eax, eax
  00147	5b		 pop	 ebx
  00148	8b e5		 mov	 esp, ebp
  0014a	5d		 pop	 ebp
  0014b	c2 08 00	 ret	 8
?ResetFurnitureCtrl@CGuildHouseBase@@AAEHHAAUGuildHouse_Furniture_Info@1@@Z ENDP ; CGuildHouseBase::ResetFurnitureCtrl
_TEXT	ENDS
; Function compile flags: /Ogtp
; File C:\IAGOS\server\v18\Source\Source\_Common\GuildHouse.cpp
; File C:\Program Files\Microsoft Visual Studio\2022\Professional\VC\Tools\MSVC\14.44.35207\include\vector
; File C:\IAGOS\server\v18\Source\Source\_Common\GuildHouse.cpp
; File C:\Program Files\Microsoft Visual Studio\2022\Professional\VC\Tools\MSVC\14.44.35207\include\vector
; File C:\IAGOS\server\v18\Source\Source\_Common\GuildHouse.cpp
; File C:\IAGOS\server\v18\Source\Source\_Common\Project.h
; File C:\IAGOS\server\v18\Source\Source\_Common\data.h
; File C:\IAGOS\server\v18\Source\Source\_Common\GuildHouse.cpp
; File C:\Program Files\Microsoft Visual Studio\2022\Professional\VC\Tools\MSVC\14.44.35207\include\vector
; File C:\IAGOS\server\v18\Source\Source\_Common\GuildHouse.cpp
; File C:\Program Files\Microsoft Visual Studio\2022\Professional\VC\Tools\MSVC\14.44.35207\include\vector
; File C:\IAGOS\server\v18\Source\Source\_Common\GuildHouse.cpp
; File C:\IAGOS\server\v18\Source\Source\_Common\Project.h
; File C:\IAGOS\server\v18\Source\Source\_Common\GuildHouse.cpp
;	COMDAT ?RemoveFurnitureCtrl@CGuildHouseBase@@AAEHHAAUGuildHouse_Furniture_Info@1@@Z
_TEXT	SEGMENT
_nIndex$ = 8						; size = 4
_gfi$ = 12						; size = 4
?RemoveFurnitureCtrl@CGuildHouseBase@@AAEHHAAUGuildHouse_Furniture_Info@1@@Z PROC ; CGuildHouseBase::RemoveFurnitureCtrl, COMDAT
; _this$ = ecx

; 899  : {

  00000	55		 push	 ebp
  00001	8b ec		 mov	 ebp, esp
  00003	53		 push	 ebx
  00004	56		 push	 esi
  00005	8b f1		 mov	 esi, ecx
  00007	57		 push	 edi

; 900  : 	if( (int)( m_vecFntInfo.size() ) <= nIndex || m_vecFntInfo[nIndex].dwItemId != gfi.dwItemId )	return FALSE;

  00008	8b 7d 08	 mov	 edi, DWORD PTR _nIndex$[ebp]
; File C:\Program Files\Microsoft Visual Studio\2022\Professional\VC\Tools\MSVC\14.44.35207\include\vector

; 1915 :         return static_cast<size_type>(_My_data._Mylast - _My_data._Myfirst);

  0000b	8b 46 10	 mov	 eax, DWORD PTR [esi+16]
  0000e	8b 4e 0c	 mov	 ecx, DWORD PTR [esi+12]
  00011	2b c1		 sub	 eax, ecx
  00013	c1 f8 05	 sar	 eax, 5
; File C:\IAGOS\server\v18\Source\Source\_Common\GuildHouse.cpp

; 900  : 	if( (int)( m_vecFntInfo.size() ) <= nIndex || m_vecFntInfo[nIndex].dwItemId != gfi.dwItemId )	return FALSE;

  00016	3b c7		 cmp	 eax, edi
  00018	0f 8e c2 00 00
	00		 jle	 $LN3@RemoveFurn
  0001e	8b 45 0c	 mov	 eax, DWORD PTR _gfi$[ebp]
; File C:\Program Files\Microsoft Visual Studio\2022\Professional\VC\Tools\MSVC\14.44.35207\include\vector

; 1934 :         return _My_data._Myfirst[_Pos];

  00021	c1 e7 05	 shl	 edi, 5
; File C:\IAGOS\server\v18\Source\Source\_Common\GuildHouse.cpp

; 900  : 	if( (int)( m_vecFntInfo.size() ) <= nIndex || m_vecFntInfo[nIndex].dwItemId != gfi.dwItemId )	return FALSE;

  00024	8b 0c 0f	 mov	 ecx, DWORD PTR [edi+ecx]
  00027	3b 08		 cmp	 ecx, DWORD PTR [eax]
  00029	0f 85 b1 00 00
	00		 jne	 $LN3@RemoveFurn
; File C:\IAGOS\server\v18\Source\Source\_Common\Project.h

; 1389 : 	VERIFY_RANGE_ASSERT( nIndex, 0, m_aPropItem.GetSize(), "GetItemProp range_error", NULL );

  0002f	a1 40 02 00 00	 mov	 eax, DWORD PTR ?prj@@3VCProject@@A+576
  00034	85 c9		 test	 ecx, ecx
  00036	0f 88 8e 00 00
	00		 js	 $LN23@RemoveFurn
  0003c	3b c8		 cmp	 ecx, eax
  0003e	0f 8d 86 00 00
	00		 jge	 $LN23@RemoveFurn
; File C:\IAGOS\server\v18\Source\Source\_Common\data.h

; 270  : 	if( dwIndex >= (DWORD)m_nMaxIndex )

  00044	72 04		 jb	 SHORT $LN28@RemoveFurn

; 271  : 		return NULL;

  00046	33 db		 xor	 ebx, ebx
  00048	eb 08		 jmp	 SHORT $LN27@RemoveFurn
$LN28@RemoveFurn:

; 272  : 	return (T*) m_apOffset[ dwIndex ];

  0004a	a1 30 02 00 00	 mov	 eax, DWORD PTR ?prj@@3VCProject@@A+560
  0004f	8b 1c 88	 mov	 ebx, DWORD PTR [eax+ecx*4]
$LN27@RemoveFurn:
; File C:\IAGOS\server\v18\Source\Source\_Common\GuildHouse.cpp

; 902  : 	if( !pItemProp )	return FALSE;

  00052	85 db		 test	 ebx, ebx
  00054	0f 84 86 00 00
	00		 je	 $LN3@RemoveFurn

; 903  : 
; 904  : #ifdef __WORLDSERVER
; 905  : 	CWorld* pWorld = g_WorldMng.GetWorld( m_dwWorldId );

  0005a	ff 76 08	 push	 DWORD PTR [esi+8]
  0005d	b9 00 00 00 00	 mov	 ecx, OFFSET ?g_WorldMng@@3VCWorldMng@@A ; g_WorldMng
  00062	e8 00 00 00 00	 call	 ?GetWorld@CWorldMng@@QAEPAVCWorld@@K@Z ; CWorldMng::GetWorld

; 906  : 	if( pWorld && pWorld->m_linkMap.GetLinkMap( static_cast<int>( m_dwGuildId ) ) )

  00067	85 c0		 test	 eax, eax
  00069	74 2b		 je	 SHORT $LN6@RemoveFurn
  0006b	ff 76 04	 push	 DWORD PTR [esi+4]
  0006e	8d 48 24	 lea	 ecx, DWORD PTR [eax+36]
  00071	e8 00 00 00 00	 call	 ?GetLinkMap@CLayeredLinkMap@@QAEPAVCLinkMap@@H@Z ; CLayeredLinkMap::GetLinkMap
  00076	85 c0		 test	 eax, eax
  00078	74 1c		 je	 SHORT $LN6@RemoveFurn
; File C:\Program Files\Microsoft Visual Studio\2022\Professional\VC\Tools\MSVC\14.44.35207\include\vector

; 1934 :         return _My_data._Myfirst[_Pos];

  0007a	8b 46 0c	 mov	 eax, DWORD PTR [esi+12]
; File C:\IAGOS\server\v18\Source\Source\_Common\GuildHouse.cpp

; 909  : 		CCtrl* pCtrl = prj.GetCtrl( m_vecFntInfo[nIndex].objId );

  0007d	b9 00 00 00 00	 mov	 ecx, OFFSET ?prj@@3VCProject@@A ; prj
  00082	ff 74 38 18	 push	 DWORD PTR [eax+edi+24]
  00086	e8 00 00 00 00	 call	 ?GetCtrl@CProject@@QAEPAVCCtrl@@K@Z ; CProject::GetCtrl

; 910  : 		if( pCtrl )

  0008b	85 c0		 test	 eax, eax
  0008d	74 07		 je	 SHORT $LN6@RemoveFurn

; 911  : 			pCtrl->Delete();

  0008f	8b c8		 mov	 ecx, eax
  00091	e8 00 00 00 00	 call	 ?Delete@CObj@@QAEXXZ	; CObj::Delete
$LN6@RemoveFurn:

; 912  : 	}
; 913  : 	
; 914  : 	if( m_vecFntInfo[nIndex].bSetup )	// ÇöŔç ĽłÄˇµÇľî ŔÖ´ř°Ĺ¸¸ ´É·ÂÄˇ ÇŘÁ¦

  00096	8b 46 0c	 mov	 eax, DWORD PTR [esi+12]
  00099	83 7c 38 04 00	 cmp	 DWORD PTR [eax+edi+4], 0
  0009e	74 08		 je	 SHORT $LN7@RemoveFurn

; 915  : 		ResetDSTFunriture( pItemProp );	// °ˇ±¸ ´É·ÂÄˇ ÇŘÁ¦

  000a0	53		 push	 ebx
  000a1	8b ce		 mov	 ecx, esi
  000a3	e8 00 00 00 00	 call	 ?ResetDSTFunriture@CGuildHouseBase@@AAEXPAUItemProp@@@Z ; CGuildHouseBase::ResetDSTFunriture
$LN7@RemoveFurn:

; 917  : 	m_vecFntInfo[nIndex] = gfi;

  000a8	8b 4d 0c	 mov	 ecx, DWORD PTR _gfi$[ebp]
; File C:\Program Files\Microsoft Visual Studio\2022\Professional\VC\Tools\MSVC\14.44.35207\include\vector

; 1934 :         return _My_data._Myfirst[_Pos];

  000ab	8b 46 0c	 mov	 eax, DWORD PTR [esi+12]
; File C:\IAGOS\server\v18\Source\Source\_Common\GuildHouse.cpp

; 917  : 	m_vecFntInfo[nIndex] = gfi;

  000ae	0f 10 01	 movups	 xmm0, XMMWORD PTR [ecx]
  000b1	0f 11 04 38	 movups	 XMMWORD PTR [eax+edi], xmm0
  000b5	0f 10 41 10	 movups	 xmm0, XMMWORD PTR [ecx+16]
  000b9	0f 11 44 38 10	 movups	 XMMWORD PTR [eax+edi+16], xmm0
  000be	5f		 pop	 edi

; 919  : }

  000bf	5e		 pop	 esi
  000c0	b8 01 00 00 00	 mov	 eax, 1
  000c5	5b		 pop	 ebx
  000c6	5d		 pop	 ebp
  000c7	c2 08 00	 ret	 8
$LN23@RemoveFurn:
; File C:\IAGOS\server\v18\Source\Source\_Common\Project.h

; 579  : 	LPCTSTR szErr = Error( _T( "%s min:%d, max:%d, index:%d" ), szMsg, nMin, nMax, nIndex ); 

  000ca	51		 push	 ecx
  000cb	50		 push	 eax
  000cc	6a 00		 push	 0
  000ce	68 00 00 00 00	 push	 OFFSET ??_C@_0BI@BEIFNGEL@GetItemProp?5range_error@
  000d3	68 00 00 00 00	 push	 OFFSET ??_C@_0BM@HMFGHCP@?$CFs?5min?3?$CFd?0?5max?3?$CFd?0?5index?3?$CFd@
  000d8	e8 00 00 00 00	 call	 ?Error@@YAPBDPBDZZ	; Error
  000dd	83 c4 14	 add	 esp, 20			; 00000014H
$LN3@RemoveFurn:
  000e0	5f		 pop	 edi
; File C:\IAGOS\server\v18\Source\Source\_Common\GuildHouse.cpp

; 919  : }

  000e1	5e		 pop	 esi
  000e2	33 c0		 xor	 eax, eax
  000e4	5b		 pop	 ebx
  000e5	5d		 pop	 ebp
  000e6	c2 08 00	 ret	 8
?RemoveFurnitureCtrl@CGuildHouseBase@@AAEHHAAUGuildHouse_Furniture_Info@1@@Z ENDP ; CGuildHouseBase::RemoveFurnitureCtrl
_TEXT	ENDS
; Function compile flags: /Ogtp
; File C:\IAGOS\server\v18\Source\Source\_Common\GuildHouse.cpp
; File C:\Program Files\Microsoft Visual Studio\2022\Professional\VC\Tools\MSVC\14.44.35207\include\vector
; File C:\IAGOS\server\v18\Source\Source\_Common\GuildHouse.cpp
; File C:\Program Files\Microsoft Visual Studio\2022\Professional\VC\Tools\MSVC\14.44.35207\include\vector
; File C:\IAGOS\server\v18\Source\Source\_Common\GuildHouse.cpp
; File C:\IAGOS\server\v18\Source\Source\_Common\Project.h
; File C:\IAGOS\server\v18\Source\Source\_Common\data.h
; File C:\IAGOS\server\v18\Source\Source\_Common\GuildHouse.cpp
; File C:\Program Files\Microsoft Visual Studio\2022\Professional\VC\Tools\MSVC\14.44.35207\include\vector
; File C:\IAGOS\server\v18\Source\Source\_Common\GuildHouse.cpp
; File C:\IAGOS\server\v18\Source\Source\_Common\Project.h
; File C:\IAGOS\server\v18\Source\Source\_Common\GuildHouse.cpp
;	COMDAT ?SetupFurnitureCtrl@CGuildHouseBase@@AAEHHAAUGuildHouse_Furniture_Info@1@@Z
_TEXT	SEGMENT
_pWorld$1$ = -4						; size = 4
_nIndex$ = 8						; size = 4
_gfi$ = 12						; size = 4
?SetupFurnitureCtrl@CGuildHouseBase@@AAEHHAAUGuildHouse_Furniture_Info@1@@Z PROC ; CGuildHouseBase::SetupFurnitureCtrl, COMDAT
; _this$ = ecx

; 853  : {

  00000	55		 push	 ebp
  00001	8b ec		 mov	 ebp, esp
  00003	51		 push	 ecx

; 854  : 	if( (int)( m_vecFntInfo.size() ) <= nIndex || m_vecFntInfo[nIndex].dwItemId != gfi.dwItemId )	return FALSE;

  00004	8b 55 08	 mov	 edx, DWORD PTR _nIndex$[ebp]
  00007	53		 push	 ebx
  00008	56		 push	 esi
  00009	8b f1		 mov	 esi, ecx
  0000b	57		 push	 edi
; File C:\Program Files\Microsoft Visual Studio\2022\Professional\VC\Tools\MSVC\14.44.35207\include\vector

; 1915 :         return static_cast<size_type>(_My_data._Mylast - _My_data._Myfirst);

  0000c	8b 46 10	 mov	 eax, DWORD PTR [esi+16]
  0000f	8b 7e 0c	 mov	 edi, DWORD PTR [esi+12]
  00012	2b c7		 sub	 eax, edi
  00014	c1 f8 05	 sar	 eax, 5
; File C:\IAGOS\server\v18\Source\Source\_Common\GuildHouse.cpp

; 854  : 	if( (int)( m_vecFntInfo.size() ) <= nIndex || m_vecFntInfo[nIndex].dwItemId != gfi.dwItemId )	return FALSE;

  00017	3b c2		 cmp	 eax, edx
  00019	0f 8e 7e 01 00
	00		 jle	 $LN3@SetupFurni
  0001f	8b 4d 0c	 mov	 ecx, DWORD PTR _gfi$[ebp]
; File C:\Program Files\Microsoft Visual Studio\2022\Professional\VC\Tools\MSVC\14.44.35207\include\vector

; 1934 :         return _My_data._Myfirst[_Pos];

  00022	c1 e2 05	 shl	 edx, 5
  00025	89 55 08	 mov	 DWORD PTR _nIndex$[ebp], edx
; File C:\IAGOS\server\v18\Source\Source\_Common\GuildHouse.cpp

; 854  : 	if( (int)( m_vecFntInfo.size() ) <= nIndex || m_vecFntInfo[nIndex].dwItemId != gfi.dwItemId )	return FALSE;

  00028	8b 09		 mov	 ecx, DWORD PTR [ecx]
  0002a	39 0c 3a	 cmp	 DWORD PTR [edx+edi], ecx
  0002d	0f 85 6a 01 00
	00		 jne	 $LN3@SetupFurni
; File C:\IAGOS\server\v18\Source\Source\_Common\Project.h

; 1389 : 	VERIFY_RANGE_ASSERT( nIndex, 0, m_aPropItem.GetSize(), "GetItemProp range_error", NULL );

  00033	a1 40 02 00 00	 mov	 eax, DWORD PTR ?prj@@3VCProject@@A+576
  00038	85 c9		 test	 ecx, ecx
  0003a	0f 88 47 01 00
	00		 js	 $LN24@SetupFurni
  00040	3b c8		 cmp	 ecx, eax
  00042	0f 8d 3f 01 00
	00		 jge	 $LN24@SetupFurni
; File C:\IAGOS\server\v18\Source\Source\_Common\data.h

; 270  : 	if( dwIndex >= (DWORD)m_nMaxIndex )

  00048	72 04		 jb	 SHORT $LN29@SetupFurni

; 271  : 		return NULL;

  0004a	33 db		 xor	 ebx, ebx
  0004c	eb 08		 jmp	 SHORT $LN28@SetupFurni
$LN29@SetupFurni:

; 272  : 	return (T*) m_apOffset[ dwIndex ];

  0004e	a1 30 02 00 00	 mov	 eax, DWORD PTR ?prj@@3VCProject@@A+560
  00053	8b 1c 88	 mov	 ebx, DWORD PTR [eax+ecx*4]
$LN28@SetupFurni:
; File C:\IAGOS\server\v18\Source\Source\_Common\GuildHouse.cpp

; 856  : 	if( !pItemProp )	return FALSE;

  00056	85 db		 test	 ebx, ebx
  00058	0f 84 3f 01 00
	00		 je	 $LN3@SetupFurni

; 857  : 
; 858  : #ifdef __WORLDSERVER
; 859  : 	// ·ąŔĚľî°ˇ Á¸ŔçÇĎ´ÂÁö Č®ŔÎÇĎ°í °ˇ±¸ ÄÁĆ®·Ń »ýĽş...
; 860  : 	CWorld* pWorld = g_WorldMng.GetWorld( m_dwWorldId );

  0005e	ff 76 08	 push	 DWORD PTR [esi+8]
  00061	b9 00 00 00 00	 mov	 ecx, OFFSET ?g_WorldMng@@3VCWorldMng@@A ; g_WorldMng
  00066	e8 00 00 00 00	 call	 ?GetWorld@CWorldMng@@QAEPAVCWorld@@K@Z ; CWorldMng::GetWorld
  0006b	89 45 fc	 mov	 DWORD PTR _pWorld$1$[ebp], eax

; 861  : 	if( pWorld && pWorld->m_linkMap.GetLinkMap( static_cast<int>( m_dwGuildId ) ) )

  0006e	85 c0		 test	 eax, eax
  00070	0f 84 d8 00 00
	00		 je	 $LN10@SetupFurni
  00076	ff 76 04	 push	 DWORD PTR [esi+4]
  00079	8d 48 24	 lea	 ecx, DWORD PTR [eax+36]
  0007c	e8 00 00 00 00	 call	 ?GetLinkMap@CLayeredLinkMap@@QAEPAVCLinkMap@@H@Z ; CLayeredLinkMap::GetLinkMap
  00081	85 c0		 test	 eax, eax
  00083	0f 84 c5 00 00
	00		 je	 $LN10@SetupFurni

; 862  : 	{
; 863  : 		CCtrl* pCtrl = NULL;
; 864  : 		if( pItemProp->dwItemKind2 == IK2_GUILDHOUSE_NPC )	// ĹÚ·ąĆ÷ĹÍ´Â NPCŔĚ±â ¶§ą®żˇ ą«ąö¸¦ »ýĽşÇŘľß ÇŃ´Ů.

  00089	8b 43 74	 mov	 eax, DWORD PTR [ebx+116]
  0008c	83 f8 27	 cmp	 eax, 39			; 00000027H
  0008f	75 5a		 jne	 SHORT $LN6@SetupFurni

; 865  : 		{
; 866  : 			pCtrl = static_cast<CCtrl*>( CreateObj( D3DDEVICE, OT_MOVER, pItemProp->dwLinkKind ) );

  00091	6a 01		 push	 1
  00093	ff b3 e0 00 00
	00		 push	 DWORD PTR [ebx+224]
  00099	6a 05		 push	 5
  0009b	6a 00		 push	 0
  0009d	e8 00 00 00 00	 call	 ?CreateObj@@YAPAVCObj@@PAUIDirect3DDevice9@@KKH@Z ; CreateObj
  000a2	8b f8		 mov	 edi, eax
  000a4	83 c4 10	 add	 esp, 16			; 00000010H

; 867  : 			CMover* pMover = static_cast<CMover*>( pCtrl );
; 868  : 			if( pMover )

  000a7	85 ff		 test	 edi, edi
  000a9	0f 84 9f 00 00
	00		 je	 $LN10@SetupFurni

; 869  : 			{
; 870  : 				lstrcpy( pMover->m_szCharacterKey, pItemProp->szTextFileName );

  000af	8d 8b 44 02 00
	00		 lea	 ecx, DWORD PTR [ebx+580]
  000b5	51		 push	 ecx
  000b6	8d 8f 44 06 00
	00		 lea	 ecx, DWORD PTR [edi+1604]
  000bc	51		 push	 ecx
  000bd	ff 15 00 00 00
	00		 call	 DWORD PTR __imp__lstrcpyA@8

; 871  : 				pMover->InitNPCProperty();

  000c3	8b cf		 mov	 ecx, edi
  000c5	e8 00 00 00 00	 call	 ?InitNPCProperty@CMover@@QAEXXZ ; CMover::InitNPCProperty

; 872  : 				pMover->InitCharacter( pMover->GetCharacter() );

  000ca	8b cf		 mov	 ecx, edi
  000cc	e8 00 00 00 00	 call	 ?GetCharacter@CMover@@QAEPAUtagCHARACTER@@XZ ; CMover::GetCharacter
  000d1	50		 push	 eax
  000d2	8b cf		 mov	 ecx, edi
  000d4	e8 00 00 00 00	 call	 ?InitCharacter@CMover@@QAEXPAUtagCHARACTER@@@Z ; CMover::InitCharacter

; 873  : 				pMover->InitMotion( MTI_STAND );

  000d9	8b 07		 mov	 eax, DWORD PTR [edi]
  000db	8b cf		 mov	 ecx, edi
  000dd	6a 00		 push	 0
  000df	ff 50 08	 call	 DWORD PTR [eax+8]

; 874  : 				pMover->UpdateLocalMatrix();

  000e2	8b cf		 mov	 ecx, edi
  000e4	e8 00 00 00 00	 call	 ?UpdateLocalMatrix@CObj@@QAEXXZ ; CObj::UpdateLocalMatrix

; 875  : 			}
; 876  : 		}

  000e9	eb 1f		 jmp	 SHORT $LN39@SetupFurni
$LN6@SetupFurni:

; 877  : 		else if( pItemProp->dwItemKind2 == IK2_GUILDHOUSE_FURNITURE )

  000eb	83 f8 26	 cmp	 eax, 38			; 00000026H
  000ee	75 5e		 jne	 SHORT $LN10@SetupFurni

; 878  : 			pCtrl = static_cast<CCtrl*>( CreateObj( D3DDEVICE, OT_CTRL, pItemProp->dwLinkKind ) );

  000f0	6a 01		 push	 1
  000f2	ff b3 e0 00 00
	00		 push	 DWORD PTR [ebx+224]
  000f8	6a 02		 push	 2
  000fa	6a 00		 push	 0
  000fc	e8 00 00 00 00	 call	 ?CreateObj@@YAPAVCObj@@PAUIDirect3DDevice9@@KKH@Z ; CreateObj
  00101	8b f8		 mov	 edi, eax
  00103	83 c4 10	 add	 esp, 16			; 00000010H

; 879  : 
; 880  : 		if( pCtrl )

  00106	85 ff		 test	 edi, edi
  00108	74 44		 je	 SHORT $LN10@SetupFurni
$LN39@SetupFurni:

; 881  : 		{
; 882  : 			pCtrl->SetPos( gfi.vPos );

  0010a	8b 45 0c	 mov	 eax, DWORD PTR _gfi$[ebp]
  0010d	8b cf		 mov	 ecx, edi
  0010f	83 c0 08	 add	 eax, 8
  00112	50		 push	 eax
  00113	e8 00 00 00 00	 call	 ?SetPos@CObj@@QAEXABUD3DXVECTOR3@@@Z ; CObj::SetPos

; 883  : 			pCtrl->SetAngle( gfi.fAngle );

  00118	8b 45 0c	 mov	 eax, DWORD PTR _gfi$[ebp]
  0011b	51		 push	 ecx
  0011c	8b cf		 mov	 ecx, edi
  0011e	f3 0f 10 40 14	 movss	 xmm0, DWORD PTR [eax+20]
  00123	f3 0f 11 04 24	 movss	 DWORD PTR [esp], xmm0
  00128	e8 00 00 00 00	 call	 ?SetAngle@CObj@@QAEXM@Z	; CObj::SetAngle

; 884  : 			pCtrl->AddItToGlobalId();

  0012d	8b 07		 mov	 eax, DWORD PTR [edi]
  0012f	8b cf		 mov	 ecx, edi
  00131	ff 50 3c	 call	 DWORD PTR [eax+60]

; 885  : 			gfi.objId = pCtrl->GetId();

  00134	8b 4d 0c	 mov	 ecx, DWORD PTR _gfi$[ebp]
  00137	8b 87 bc 01 00
	00		 mov	 eax, DWORD PTR [edi+444]
  0013d	89 41 18	 mov	 DWORD PTR [ecx+24], eax

; 886  : 			pWorld->ADDOBJ( pCtrl, FALSE, static_cast<int>( m_dwGuildId ) );

  00140	ff 76 04	 push	 DWORD PTR [esi+4]
  00143	8b 4d fc	 mov	 ecx, DWORD PTR _pWorld$1$[ebp]
  00146	6a 00		 push	 0
  00148	57		 push	 edi
  00149	e8 00 00 00 00	 call	 ?AddObj@CWorld@@QAEHPAVCObj@@HH@Z ; CWorld::AddObj
$LN10@SetupFurni:

; 887  : 		}
; 888  : 	}
; 889  : 
; 890  : 	if( !m_vecFntInfo[nIndex].bSetup )	// ÇöŔç ÇŘÁ¦µÇľî ŔÖ´ř°Ĺ¸¸ ´É·ÂÄˇ ĽłÁ¤

  0014e	8b 46 0c	 mov	 eax, DWORD PTR [esi+12]
  00151	8b 7d 08	 mov	 edi, DWORD PTR _nIndex$[ebp]
  00154	83 7c 07 04 00	 cmp	 DWORD PTR [edi+eax+4], 0
  00159	75 08		 jne	 SHORT $LN11@SetupFurni

; 891  : 		SetDSTFunriture( pItemProp );	// °ˇ±¸ ´É·ÂÄˇ ĽłÁ¤

  0015b	53		 push	 ebx
  0015c	8b ce		 mov	 ecx, esi
  0015e	e8 00 00 00 00	 call	 ?SetDSTFunriture@CGuildHouseBase@@AAEXPAUItemProp@@@Z ; CGuildHouseBase::SetDSTFunriture
$LN11@SetupFurni:

; 894  : 	m_vecFntInfo[nIndex] = gfi;

  00163	8b 4d 0c	 mov	 ecx, DWORD PTR _gfi$[ebp]
; File C:\Program Files\Microsoft Visual Studio\2022\Professional\VC\Tools\MSVC\14.44.35207\include\vector

; 1934 :         return _My_data._Myfirst[_Pos];

  00166	8b 46 0c	 mov	 eax, DWORD PTR [esi+12]
; File C:\IAGOS\server\v18\Source\Source\_Common\GuildHouse.cpp

; 894  : 	m_vecFntInfo[nIndex] = gfi;

  00169	0f 10 01	 movups	 xmm0, XMMWORD PTR [ecx]
  0016c	0f 11 04 38	 movups	 XMMWORD PTR [eax+edi], xmm0
  00170	0f 10 41 10	 movups	 xmm0, XMMWORD PTR [ecx+16]
  00174	0f 11 44 38 10	 movups	 XMMWORD PTR [eax+edi+16], xmm0
  00179	5f		 pop	 edi

; 896  : }

  0017a	5e		 pop	 esi
  0017b	b8 01 00 00 00	 mov	 eax, 1
  00180	5b		 pop	 ebx
  00181	8b e5		 mov	 esp, ebp
  00183	5d		 pop	 ebp
  00184	c2 08 00	 ret	 8
$LN24@SetupFurni:
; File C:\IAGOS\server\v18\Source\Source\_Common\Project.h

; 579  : 	LPCTSTR szErr = Error( _T( "%s min:%d, max:%d, index:%d" ), szMsg, nMin, nMax, nIndex ); 

  00187	51		 push	 ecx
  00188	50		 push	 eax
  00189	6a 00		 push	 0
  0018b	68 00 00 00 00	 push	 OFFSET ??_C@_0BI@BEIFNGEL@GetItemProp?5range_error@
  00190	68 00 00 00 00	 push	 OFFSET ??_C@_0BM@HMFGHCP@?$CFs?5min?3?$CFd?0?5max?3?$CFd?0?5index?3?$CFd@
  00195	e8 00 00 00 00	 call	 ?Error@@YAPBDPBDZZ	; Error
  0019a	83 c4 14	 add	 esp, 20			; 00000014H
$LN3@SetupFurni:
  0019d	5f		 pop	 edi
; File C:\IAGOS\server\v18\Source\Source\_Common\GuildHouse.cpp

; 896  : }

  0019e	5e		 pop	 esi
  0019f	33 c0		 xor	 eax, eax
  001a1	5b		 pop	 ebx
  001a2	8b e5		 mov	 esp, ebp
  001a4	5d		 pop	 ebp
  001a5	c2 08 00	 ret	 8
?SetupFurnitureCtrl@CGuildHouseBase@@AAEHHAAUGuildHouse_Furniture_Info@1@@Z ENDP ; CGuildHouseBase::SetupFurnitureCtrl
_TEXT	ENDS
; Function compile flags: /Ogtp
; File C:\IAGOS\server\v18\Source\Source\_Common\GuildHouse.cpp
;	COMDAT ?CheckDestroyRoom@CGuildHouseBase@@QAEXPAVCUser@@@Z
_TEXT	SEGMENT
_pUser$ = 8						; size = 4
?CheckDestroyRoom@CGuildHouseBase@@QAEXPAVCUser@@@Z PROC ; CGuildHouseBase::CheckDestroyRoom, COMDAT
; _this$ = ecx

; 384  : {

  00000	55		 push	 ebp
  00001	8b ec		 mov	 ebp, esp
  00003	56		 push	 esi
  00004	8b f1		 mov	 esi, ecx

; 385  : 	CWorld* pWorld = g_WorldMng.GetWorld( m_dwWorldId );

  00006	b9 00 00 00 00	 mov	 ecx, OFFSET ?g_WorldMng@@3VCWorldMng@@A ; g_WorldMng
  0000b	ff 76 08	 push	 DWORD PTR [esi+8]
  0000e	e8 00 00 00 00	 call	 ?GetWorld@CWorldMng@@QAEPAVCWorld@@K@Z ; CWorldMng::GetWorld

; 386  : 	if( pWorld && pWorld->m_linkMap.GetLinkMap( static_cast<int>( m_dwGuildId ) ) )

  00013	85 c0		 test	 eax, eax
  00015	74 27		 je	 SHORT $LN2@CheckDestr
  00017	ff 76 04	 push	 DWORD PTR [esi+4]
  0001a	8d 48 24	 lea	 ecx, DWORD PTR [eax+36]
  0001d	e8 00 00 00 00	 call	 ?GetLinkMap@CLayeredLinkMap@@QAEPAVCLinkMap@@H@Z ; CLayeredLinkMap::GetLinkMap
  00022	85 c0		 test	 eax, eax
  00024	74 18		 je	 SHORT $LN2@CheckDestr

; 387  : 	{
; 388  : 	/*
; 389  : 		int nWidth = pWorld->WORLD_WIDTH * pWorld->m_iMPU;
; 390  : 		int nHeight = pWorld->WORLD_HEIGHT * pWorld->m_iMPU;
; 391  : 		D3DXVECTOR3 vPosCenter( nWidth / 2, 0.0f, nHeight / 2 );
; 392  : 		int nRange = max( nWidth, nHeight ) / 2;
; 393  : 		CObj* pObj;
; 394  : 		FOR_LINKMAP( pWorld, vPosCenter, pObj, nRange, CObj::linkPlayer, static_cast<int>( m_dwGuildId ) )
; 395  : 		{
; 396  : 			if( pObj->GetType() == OT_MOVER && static_cast<CMover*>( pObj )->IsPlayer() && pUser != pObj )	// ł»°ˇ ľĆ´Ń ´Ů¸Ą »ç¶÷ŔĚ ł˛ľĆŔÖ´Â °ćżě´Ů.
; 397  : 				return;
; 398  : 		}
; 399  : 		END_LINKMAP
; 400  : 	*/
; 401  : 		if( g_UserMng.HasUserSameWorldnLayer( pUser ) )

  00026	ff 75 08	 push	 DWORD PTR _pUser$[ebp]
  00029	b9 00 00 00 00	 mov	 ecx, OFFSET ?g_UserMng@@3VCUserMng@@A ; g_UserMng
  0002e	e8 00 00 00 00	 call	 ?HasUserSameWorldnLayer@CUserMng@@QAEHPAVCUser@@@Z ; CUserMng::HasUserSameWorldnLayer
  00033	85 c0		 test	 eax, eax
  00035	75 07		 jne	 SHORT $LN2@CheckDestr

; 402  : 			return;
; 403  : 
; 404  : 		DestroyGuildHouseRoom();	// ÇŃ¸íµµ ł˛ľĆŔÖÁö ľĘŔş °ćżě - ąć¸¸ ĆÄ±«˝ĂĹ˛´Ů.

  00037	8b ce		 mov	 ecx, esi
  00039	e8 00 00 00 00	 call	 ?DestroyGuildHouseRoom@CGuildHouseBase@@AAEHXZ ; CGuildHouseBase::DestroyGuildHouseRoom
$LN2@CheckDestr:
  0003e	5e		 pop	 esi

; 405  : 	}
; 406  : }

  0003f	5d		 pop	 ebp
  00040	c2 04 00	 ret	 4
?CheckDestroyRoom@CGuildHouseBase@@QAEXPAVCUser@@@Z ENDP ; CGuildHouseBase::CheckDestroyRoom
_TEXT	ENDS
; Function compile flags: /Ogtp
; File C:\IAGOS\server\v18\Source\Source\_Common\GuildHouse.cpp
; File C:\IAGOS\server\v18\Source\Source\_Common\Obj.h
; File C:\IAGOS\server\v18\Source\Source\_Common\GuildHouse.cpp
;	COMDAT ?GoOutGuildHouseRoom@CGuildHouseBase@@QAEXPAVCUser@@@Z
_TEXT	SEGMENT
_pUser$ = 8						; size = 4
?GoOutGuildHouseRoom@CGuildHouseBase@@QAEXPAVCUser@@@Z PROC ; CGuildHouseBase::GoOutGuildHouseRoom, COMDAT
; _this$ = ecx

; 378  : {

  00000	55		 push	 ebp
  00001	8b ec		 mov	 ebp, esp
  00003	8b d1		 mov	 edx, ecx
; File C:\IAGOS\server\v18\Source\Source\_Common\Obj.h

; 327  : 	return pObj && ( pObj->IsDelete() == FALSE ); 

  00005	8b 4d 08	 mov	 ecx, DWORD PTR _pUser$[ebp]
  00008	85 c9		 test	 ecx, ecx
  0000a	74 36		 je	 SHORT $LN2@GoOutGuild

; 180  : 	BOOL			IsDelete()	{ return (m_dwFlags & OBJ_FLAG_DELETE);  }

  0000c	f6 41 04 01	 test	 BYTE PTR [ecx+4], 1

; 327  : 	return pObj && ( pObj->IsDelete() == FALSE ); 

  00010	75 30		 jne	 SHORT $LN2@GoOutGuild
; File C:\IAGOS\server\v18\Source\Source\_Common\GuildHouse.cpp

; 379  : 	if( IsValidObj( pUser ) && pUser->GetWorld()->GetID() == m_dwWorldId && pUser->GetLayer() == m_dwGuildId )

  00012	8b 81 6c 01 00
	00		 mov	 eax, DWORD PTR [ecx+364]
  00018	8b 00		 mov	 eax, DWORD PTR [eax]
  0001a	3b 42 08	 cmp	 eax, DWORD PTR [edx+8]
  0001d	75 23		 jne	 SHORT $LN2@GoOutGuild
  0001f	8b 81 b8 01 00
	00		 mov	 eax, DWORD PTR [ecx+440]
  00025	3b 42 04	 cmp	 eax, DWORD PTR [edx+4]
  00028	75 18		 jne	 SHORT $LN2@GoOutGuild

; 380  : 		pUser->REPLACE( g_uIdofMulti, WI_WORLD_MADRIGAL, pUser->m_vMarkingPos, REPLACE_FORCE, nDefaultLayer );

  0002a	6a 00		 push	 0
  0002c	6a 01		 push	 1
  0002e	8d 81 b4 0d 00
	00		 lea	 eax, DWORD PTR [ecx+3508]
  00034	50		 push	 eax
  00035	6a 01		 push	 1
  00037	ff 35 00 00 00
	00		 push	 DWORD PTR ?g_uIdofMulti@@3KA ; g_uIdofMulti
  0003d	e8 00 00 00 00	 call	 ?Replace@CMover@@QAEHKKAAUD3DXVECTOR3@@W4REPLACE_TYPE@@H@Z ; CMover::Replace
$LN2@GoOutGuild:

; 381  : }

  00042	5d		 pop	 ebp
  00043	c2 04 00	 ret	 4
?GoOutGuildHouseRoom@CGuildHouseBase@@QAEXPAVCUser@@@Z ENDP ; CGuildHouseBase::GoOutGuildHouseRoom
_TEXT	ENDS
; Function compile flags: /Ogtp
; File C:\IAGOS\server\v18\Source\Source\_Common\GuildHouse.cpp
; File C:\IAGOS\server\v18\Source\Source\WorldServer\user.h
; File C:\IAGOS\server\v18\Source\Source\_Common\GuildHouse.cpp
; File C:\IAGOS\server\v18\Source\Source\WorldServer\user.h
; File C:\IAGOS\server\v18\Source\Source\_Common\GuildHouse.cpp
;	COMDAT ?EnteranceGuildHouseRoom@CGuildHouseBase@@QAEHPAVCUser@@@Z
_TEXT	SEGMENT
$T1 = -16						; size = 12
__$ArrayPad$ = -4					; size = 4
_pUser$ = 8						; size = 4
?EnteranceGuildHouseRoom@CGuildHouseBase@@QAEHPAVCUser@@@Z PROC ; CGuildHouseBase::EnteranceGuildHouseRoom, COMDAT
; _this$ = ecx

; 367  : {

  00000	55		 push	 ebp
  00001	8b ec		 mov	 ebp, esp
  00003	83 ec 10	 sub	 esp, 16			; 00000010H
  00006	a1 00 00 00 00	 mov	 eax, DWORD PTR ___security_cookie
  0000b	33 c5		 xor	 eax, ebp
  0000d	89 45 fc	 mov	 DWORD PTR __$ArrayPad$[ebp], eax
  00010	53		 push	 ebx
  00011	8b 5d 08	 mov	 ebx, DWORD PTR _pUser$[ebp]
  00014	57		 push	 edi

; 368  : 	if( IsEnteranceAble( pUser ) )	

  00015	53		 push	 ebx
  00016	8b f9		 mov	 edi, ecx
  00018	e8 00 00 00 00	 call	 ?IsEnteranceAble@CGuildHouseBase@@QAEHPAVCUser@@@Z ; CGuildHouseBase::IsEnteranceAble
  0001d	85 c0		 test	 eax, eax
  0001f	74 46		 je	 SHORT $LN2@EnteranceG
; File C:\IAGOS\server\v18\Source\Source\WorldServer\user.h

; 734  : 	void	SetRestPointTick()					{ m_tRestPointTick = time_null() + REST_POINT_TICK; }

  00021	a1 00 00 00 00	 mov	 eax, DWORD PTR ?g_tCurrent@@3JA ; g_tCurrent
; File C:\IAGOS\server\v18\Source\Source\_Common\GuildHouse.cpp

; 371  : 		return pUser->REPLACE( g_uIdofMulti, m_dwWorldId, GetEnterPos(), REPLACE_NORMAL, static_cast<int>( m_dwGuildId ) );

  00026	8d 4d f0	 lea	 ecx, DWORD PTR $T1[ebp]
  00029	56		 push	 esi
; File C:\IAGOS\server\v18\Source\Source\WorldServer\user.h

; 734  : 	void	SetRestPointTick()					{ m_tRestPointTick = time_null() + REST_POINT_TICK; }

  0002a	05 f0 00 00 00	 add	 eax, 240		; 000000f0H
  0002f	89 83 a8 8f 00
	00		 mov	 DWORD PTR [ebx+36776], eax
; File C:\IAGOS\server\v18\Source\Source\_Common\GuildHouse.cpp

; 371  : 		return pUser->REPLACE( g_uIdofMulti, m_dwWorldId, GetEnterPos(), REPLACE_NORMAL, static_cast<int>( m_dwGuildId ) );

  00035	ff 77 04	 push	 DWORD PTR [edi+4]
  00038	8b 07		 mov	 eax, DWORD PTR [edi]
  0003a	8b 77 08	 mov	 esi, DWORD PTR [edi+8]
  0003d	6a 00		 push	 0
  0003f	51		 push	 ecx
  00040	8b cf		 mov	 ecx, edi
  00042	ff 50 10	 call	 DWORD PTR [eax+16]
  00045	50		 push	 eax
  00046	56		 push	 esi
  00047	ff 35 00 00 00
	00		 push	 DWORD PTR ?g_uIdofMulti@@3KA ; g_uIdofMulti
  0004d	8b cb		 mov	 ecx, ebx
  0004f	e8 00 00 00 00	 call	 ?Replace@CMover@@QAEHKKAAUD3DXVECTOR3@@W4REPLACE_TYPE@@H@Z ; CMover::Replace
  00054	5e		 pop	 esi
  00055	5f		 pop	 edi

; 372  : 	}
; 373  : 
; 374  : 	return FALSE;
; 375  : }

  00056	5b		 pop	 ebx
  00057	8b 4d fc	 mov	 ecx, DWORD PTR __$ArrayPad$[ebp]
  0005a	33 cd		 xor	 ecx, ebp
  0005c	e8 00 00 00 00	 call	 @__security_check_cookie@4
  00061	8b e5		 mov	 esp, ebp
  00063	5d		 pop	 ebp
  00064	c2 04 00	 ret	 4
$LN2@EnteranceG:
  00067	8b 4d fc	 mov	 ecx, DWORD PTR __$ArrayPad$[ebp]
  0006a	33 c0		 xor	 eax, eax
  0006c	5f		 pop	 edi
  0006d	33 cd		 xor	 ecx, ebp
  0006f	5b		 pop	 ebx
  00070	e8 00 00 00 00	 call	 @__security_check_cookie@4
  00075	8b e5		 mov	 esp, ebp
  00077	5d		 pop	 ebp
  00078	c2 04 00	 ret	 4
?EnteranceGuildHouseRoom@CGuildHouseBase@@QAEHPAVCUser@@@Z ENDP ; CGuildHouseBase::EnteranceGuildHouseRoom
_TEXT	ENDS
; Function compile flags: /Ogtp
; File C:\IAGOS\server\v18\Source\Source\_Common\GuildHouse.cpp
; File C:\IAGOS\server\v18\Source\Source\_Common\Obj.h
; File C:\IAGOS\server\v18\Source\Source\_Common\GuildHouse.cpp
; File C:\IAGOS\server\v18\Source\Source\_Common\Obj.h
; File C:\Program Files\Microsoft Visual Studio\2022\Professional\VC\Tools\MSVC\14.44.35207\include\vector
; File C:\IAGOS\server\v18\Source\Source\_Common\GuildHouse.cpp
; File C:\Program Files\Microsoft Visual Studio\2022\Professional\VC\Tools\MSVC\14.44.35207\include\vector
; File C:\IAGOS\server\v18\Source\Source\_Common\GuildHouse.cpp
; File C:\Program Files\Microsoft Visual Studio\2022\Professional\VC\Tools\MSVC\14.44.35207\include\vector
; File C:\IAGOS\server\v18\Source\Source\_Common\GuildHouse.cpp
; File C:\IAGOS\server\v18\Source\Source\_Common\Project.h
; File C:\IAGOS\server\v18\Source\Source\_Common\data.h
; File C:\IAGOS\server\v18\Source\Source\_Common\GuildHouse.cpp
; File C:\Program Files\Microsoft Visual Studio\2022\Professional\VC\Tools\MSVC\14.44.35207\include\vector
; File C:\IAGOS\server\v18\Source\Source\_Common\GuildHouse.cpp
; File C:\Program Files\Microsoft Visual Studio\2022\Professional\VC\Tools\MSVC\14.44.35207\include\vector
; File C:\IAGOS\server\v18\Source\Source\_Common\GuildHouse.cpp
; File C:\IAGOS\server\v18\Source\Source\_Common\Project.h
; File C:\IAGOS\server\v18\Source\Source\_Common\GuildHouse.cpp
;	COMDAT ?ResetApplyDST@CGuildHouseBase@@QAEXPAVCUser@@@Z
_TEXT	SEGMENT
_this$1$ = -4						; size = 4
_pUser$ = 8						; size = 4
_i$1$ = 8						; size = 4
?ResetApplyDST@CGuildHouseBase@@QAEXPAVCUser@@@Z PROC	; CGuildHouseBase::ResetApplyDST, COMDAT
; _this$ = ecx

; 619  : {

  00000	55		 push	 ebp
  00001	8b ec		 mov	 ebp, esp
  00003	51		 push	 ecx
  00004	57		 push	 edi
; File C:\IAGOS\server\v18\Source\Source\_Common\Obj.h

; 327  : 	return pObj && ( pObj->IsDelete() == FALSE ); 

  00005	8b 7d 08	 mov	 edi, DWORD PTR _pUser$[ebp]
; File C:\IAGOS\server\v18\Source\Source\_Common\GuildHouse.cpp

; 619  : {

  00008	8b c1		 mov	 eax, ecx
  0000a	89 45 fc	 mov	 DWORD PTR _this$1$[ebp], eax
; File C:\IAGOS\server\v18\Source\Source\_Common\Obj.h

; 327  : 	return pObj && ( pObj->IsDelete() == FALSE ); 

  0000d	85 ff		 test	 edi, edi
  0000f	0f 84 97 00 00
	00		 je	 $LN3@ResetApply

; 180  : 	BOOL			IsDelete()	{ return (m_dwFlags & OBJ_FLAG_DELETE);  }

  00015	f6 47 04 01	 test	 BYTE PTR [edi+4], 1

; 327  : 	return pObj && ( pObj->IsDelete() == FALSE ); 

  00019	0f 85 8d 00 00
	00		 jne	 $LN3@ResetApply
; File C:\Program Files\Microsoft Visual Studio\2022\Professional\VC\Tools\MSVC\14.44.35207\include\vector

; 1915 :         return static_cast<size_type>(_My_data._Mylast - _My_data._Myfirst);

  0001f	8b 48 0c	 mov	 ecx, DWORD PTR [eax+12]
  00022	8b 40 10	 mov	 eax, DWORD PTR [eax+16]
  00025	56		 push	 esi
; File C:\IAGOS\server\v18\Source\Source\_Common\GuildHouse.cpp

; 623  : 	for( int i=0; i<(int)( m_vecFntInfo.size() ); i++ )

  00026	33 f6		 xor	 esi, esi
; File C:\Program Files\Microsoft Visual Studio\2022\Professional\VC\Tools\MSVC\14.44.35207\include\vector

; 1915 :         return static_cast<size_type>(_My_data._Mylast - _My_data._Myfirst);

  00028	2b c1		 sub	 eax, ecx
; File C:\IAGOS\server\v18\Source\Source\_Common\GuildHouse.cpp

; 623  : 	for( int i=0; i<(int)( m_vecFntInfo.size() ); i++ )

  0002a	89 75 08	 mov	 DWORD PTR _i$1$[ebp], esi
  0002d	a9 e0 ff ff ff	 test	 eax, -32		; ffffffe0H
  00032	7e 77		 jle	 SHORT $LN50@ResetApply
; File C:\Program Files\Microsoft Visual Studio\2022\Professional\VC\Tools\MSVC\14.44.35207\include\vector

; 1914 :         auto& _My_data = _Mypair._Myval2;

  00034	8b 15 40 02 00
	00		 mov	 edx, DWORD PTR ?prj@@3VCProject@@A+576
  0003a	53		 push	 ebx
  0003b	33 db		 xor	 ebx, ebx
  0003d	0f 1f 00	 npad	 3
$LL4@ResetApply:
; File C:\IAGOS\server\v18\Source\Source\_Common\GuildHouse.cpp

; 625  : 		if( m_vecFntInfo[i].bSetup )

  00040	83 7c 0b 04 00	 cmp	 DWORD PTR [ebx+ecx+4], 0
  00045	74 4a		 je	 SHORT $LN2@ResetApply

; 626  : 		{
; 627  : 			ItemProp* pItemProp = prj.GetItemProp( m_vecFntInfo[i].dwItemId );

  00047	8b 0c 0b	 mov	 ecx, DWORD PTR [ebx+ecx]
; File C:\IAGOS\server\v18\Source\Source\_Common\Project.h

; 1389 : 	VERIFY_RANGE_ASSERT( nIndex, 0, m_aPropItem.GetSize(), "GetItemProp range_error", NULL );

  0004a	85 c9		 test	 ecx, ecx
  0004c	78 65		 js	 SHORT $LN29@ResetApply
  0004e	3b ca		 cmp	 ecx, edx
  00050	7d 61		 jge	 SHORT $LN29@ResetApply
; File C:\IAGOS\server\v18\Source\Source\_Common\data.h

; 270  : 	if( dwIndex >= (DWORD)m_nMaxIndex )

  00052	72 04		 jb	 SHORT $LN34@ResetApply

; 271  : 		return NULL;

  00054	33 f6		 xor	 esi, esi
  00056	eb 08		 jmp	 SHORT $LN33@ResetApply
$LN34@ResetApply:

; 272  : 	return (T*) m_apOffset[ dwIndex ];

  00058	a1 30 02 00 00	 mov	 eax, DWORD PTR ?prj@@3VCProject@@A+560
  0005d	8b 34 88	 mov	 esi, DWORD PTR [eax+ecx*4]
$LN33@ResetApply:
; File C:\IAGOS\server\v18\Source\Source\_Common\GuildHouse.cpp

; 628  : 			if( pItemProp )

  00060	85 f6		 test	 esi, esi
  00062	74 2a		 je	 SHORT $LN41@ResetApply

; 629  : 			{
; 630  : 				pUser->ResetDestParam( 0, pItemProp );

  00064	6a 01		 push	 1
  00066	56		 push	 esi
  00067	6a 00		 push	 0
  00069	8b cf		 mov	 ecx, edi
  0006b	e8 00 00 00 00	 call	 ?ResetDestParam@CMover@@QAEXHPAUItemProp@@H@Z ; CMover::ResetDestParam

; 631  : 				pUser->ResetDestParam( 1, pItemProp );

  00070	6a 01		 push	 1
  00072	56		 push	 esi
  00073	6a 01		 push	 1
  00075	8b cf		 mov	 ecx, edi
  00077	e8 00 00 00 00	 call	 ?ResetDestParam@CMover@@QAEXHPAUItemProp@@H@Z ; CMover::ResetDestParam

; 632  : 				pUser->ResetDestParam( 2, pItemProp );

  0007c	6a 01		 push	 1
  0007e	56		 push	 esi
  0007f	6a 02		 push	 2
  00081	8b cf		 mov	 ecx, edi
  00083	e8 00 00 00 00	 call	 ?ResetDestParam@CMover@@QAEXHPAUItemProp@@H@Z ; CMover::ResetDestParam
  00088	8b 15 40 02 00
	00		 mov	 edx, DWORD PTR ?prj@@3VCProject@@A+576
$LN41@ResetApply:

; 623  : 	for( int i=0; i<(int)( m_vecFntInfo.size() ); i++ )

  0008e	8b 75 08	 mov	 esi, DWORD PTR _i$1$[ebp]
$LN2@ResetApply:
; File C:\Program Files\Microsoft Visual Studio\2022\Professional\VC\Tools\MSVC\14.44.35207\include\vector

; 1915 :         return static_cast<size_type>(_My_data._Mylast - _My_data._Myfirst);

  00091	8b 45 fc	 mov	 eax, DWORD PTR _this$1$[ebp]
; File C:\IAGOS\server\v18\Source\Source\_Common\GuildHouse.cpp

; 623  : 	for( int i=0; i<(int)( m_vecFntInfo.size() ); i++ )

  00094	46		 inc	 esi
  00095	83 c3 20	 add	 ebx, 32			; 00000020H
  00098	89 75 08	 mov	 DWORD PTR _i$1$[ebp], esi
; File C:\Program Files\Microsoft Visual Studio\2022\Professional\VC\Tools\MSVC\14.44.35207\include\vector

; 1915 :         return static_cast<size_type>(_My_data._Mylast - _My_data._Myfirst);

  0009b	8b 48 0c	 mov	 ecx, DWORD PTR [eax+12]
  0009e	8b 40 10	 mov	 eax, DWORD PTR [eax+16]
  000a1	2b c1		 sub	 eax, ecx
  000a3	c1 f8 05	 sar	 eax, 5
; File C:\IAGOS\server\v18\Source\Source\_Common\GuildHouse.cpp

; 623  : 	for( int i=0; i<(int)( m_vecFntInfo.size() ); i++ )

  000a6	3b f0		 cmp	 esi, eax
  000a8	7c 96		 jl	 SHORT $LL4@ResetApply
  000aa	5b		 pop	 ebx
$LN50@ResetApply:
  000ab	5e		 pop	 esi
$LN3@ResetApply:
  000ac	5f		 pop	 edi

; 633  : 			}
; 634  : 		}
; 635  : 	}
; 636  : }

  000ad	8b e5		 mov	 esp, ebp
  000af	5d		 pop	 ebp
  000b0	c2 04 00	 ret	 4
$LN29@ResetApply:
; File C:\IAGOS\server\v18\Source\Source\_Common\Project.h

; 579  : 	LPCTSTR szErr = Error( _T( "%s min:%d, max:%d, index:%d" ), szMsg, nMin, nMax, nIndex ); 

  000b3	51		 push	 ecx
  000b4	52		 push	 edx
  000b5	6a 00		 push	 0
  000b7	68 00 00 00 00	 push	 OFFSET ??_C@_0BI@BEIFNGEL@GetItemProp?5range_error@
  000bc	68 00 00 00 00	 push	 OFFSET ??_C@_0BM@HMFGHCP@?$CFs?5min?3?$CFd?0?5max?3?$CFd?0?5index?3?$CFd@
  000c1	e8 00 00 00 00	 call	 ?Error@@YAPBDPBDZZ	; Error
  000c6	8b 15 40 02 00
	00		 mov	 edx, DWORD PTR ?prj@@3VCProject@@A+576
  000cc	83 c4 14	 add	 esp, 20			; 00000014H
; File C:\IAGOS\server\v18\Source\Source\_Common\GuildHouse.cpp

; 628  : 			if( pItemProp )

  000cf	eb c0		 jmp	 SHORT $LN2@ResetApply
?ResetApplyDST@CGuildHouseBase@@QAEXPAVCUser@@@Z ENDP	; CGuildHouseBase::ResetApplyDST
_TEXT	ENDS
; Function compile flags: /Ogtp
; File C:\IAGOS\server\v18\Source\Source\_Common\GuildHouse.cpp
; File C:\IAGOS\server\v18\Source\Source\_Common\Obj.h
; File C:\IAGOS\server\v18\Source\Source\_Common\GuildHouse.cpp
; File C:\IAGOS\server\v18\Source\Source\_Common\Obj.h
; File C:\Program Files\Microsoft Visual Studio\2022\Professional\VC\Tools\MSVC\14.44.35207\include\vector
; File C:\IAGOS\server\v18\Source\Source\_Common\GuildHouse.cpp
; File C:\Program Files\Microsoft Visual Studio\2022\Professional\VC\Tools\MSVC\14.44.35207\include\vector
; File C:\IAGOS\server\v18\Source\Source\_Common\GuildHouse.cpp
; File C:\Program Files\Microsoft Visual Studio\2022\Professional\VC\Tools\MSVC\14.44.35207\include\vector
; File C:\IAGOS\server\v18\Source\Source\_Common\GuildHouse.cpp
; File C:\IAGOS\server\v18\Source\Source\_Common\Project.h
; File C:\IAGOS\server\v18\Source\Source\_Common\data.h
; File C:\IAGOS\server\v18\Source\Source\_Common\GuildHouse.cpp
; File C:\Program Files\Microsoft Visual Studio\2022\Professional\VC\Tools\MSVC\14.44.35207\include\vector
; File C:\IAGOS\server\v18\Source\Source\_Common\GuildHouse.cpp
; File C:\Program Files\Microsoft Visual Studio\2022\Professional\VC\Tools\MSVC\14.44.35207\include\vector
; File C:\IAGOS\server\v18\Source\Source\_Common\GuildHouse.cpp
; File C:\IAGOS\server\v18\Source\Source\_Common\Project.h
; File C:\IAGOS\server\v18\Source\Source\_Common\GuildHouse.cpp
;	COMDAT ?SetApplyDST@CGuildHouseBase@@QAEXPAVCUser@@@Z
_TEXT	SEGMENT
_this$1$ = -4						; size = 4
_pUser$ = 8						; size = 4
_i$1$ = 8						; size = 4
?SetApplyDST@CGuildHouseBase@@QAEXPAVCUser@@@Z PROC	; CGuildHouseBase::SetApplyDST, COMDAT
; _this$ = ecx

; 599  : {

  00000	55		 push	 ebp
  00001	8b ec		 mov	 ebp, esp
  00003	51		 push	 ecx
  00004	57		 push	 edi
; File C:\IAGOS\server\v18\Source\Source\_Common\Obj.h

; 327  : 	return pObj && ( pObj->IsDelete() == FALSE ); 

  00005	8b 7d 08	 mov	 edi, DWORD PTR _pUser$[ebp]
; File C:\IAGOS\server\v18\Source\Source\_Common\GuildHouse.cpp

; 599  : {

  00008	8b c1		 mov	 eax, ecx
  0000a	89 45 fc	 mov	 DWORD PTR _this$1$[ebp], eax
; File C:\IAGOS\server\v18\Source\Source\_Common\Obj.h

; 327  : 	return pObj && ( pObj->IsDelete() == FALSE ); 

  0000d	85 ff		 test	 edi, edi
  0000f	0f 84 97 00 00
	00		 je	 $LN3@SetApplyDS

; 180  : 	BOOL			IsDelete()	{ return (m_dwFlags & OBJ_FLAG_DELETE);  }

  00015	f6 47 04 01	 test	 BYTE PTR [edi+4], 1

; 327  : 	return pObj && ( pObj->IsDelete() == FALSE ); 

  00019	0f 85 8d 00 00
	00		 jne	 $LN3@SetApplyDS
; File C:\Program Files\Microsoft Visual Studio\2022\Professional\VC\Tools\MSVC\14.44.35207\include\vector

; 1915 :         return static_cast<size_type>(_My_data._Mylast - _My_data._Myfirst);

  0001f	8b 48 0c	 mov	 ecx, DWORD PTR [eax+12]
  00022	8b 40 10	 mov	 eax, DWORD PTR [eax+16]
  00025	56		 push	 esi
; File C:\IAGOS\server\v18\Source\Source\_Common\GuildHouse.cpp

; 603  : 	for( int i=0; i<(int)( m_vecFntInfo.size() ); i++ )

  00026	33 f6		 xor	 esi, esi
; File C:\Program Files\Microsoft Visual Studio\2022\Professional\VC\Tools\MSVC\14.44.35207\include\vector

; 1915 :         return static_cast<size_type>(_My_data._Mylast - _My_data._Myfirst);

  00028	2b c1		 sub	 eax, ecx
; File C:\IAGOS\server\v18\Source\Source\_Common\GuildHouse.cpp

; 603  : 	for( int i=0; i<(int)( m_vecFntInfo.size() ); i++ )

  0002a	89 75 08	 mov	 DWORD PTR _i$1$[ebp], esi
  0002d	a9 e0 ff ff ff	 test	 eax, -32		; ffffffe0H
  00032	7e 77		 jle	 SHORT $LN50@SetApplyDS
; File C:\Program Files\Microsoft Visual Studio\2022\Professional\VC\Tools\MSVC\14.44.35207\include\vector

; 1914 :         auto& _My_data = _Mypair._Myval2;

  00034	8b 15 40 02 00
	00		 mov	 edx, DWORD PTR ?prj@@3VCProject@@A+576
  0003a	53		 push	 ebx
  0003b	33 db		 xor	 ebx, ebx
  0003d	0f 1f 00	 npad	 3
$LL4@SetApplyDS:
; File C:\IAGOS\server\v18\Source\Source\_Common\GuildHouse.cpp

; 605  : 		if( m_vecFntInfo[i].bSetup )

  00040	83 7c 0b 04 00	 cmp	 DWORD PTR [ebx+ecx+4], 0
  00045	74 4a		 je	 SHORT $LN2@SetApplyDS

; 606  : 		{
; 607  : 			ItemProp* pItemProp = prj.GetItemProp( m_vecFntInfo[i].dwItemId );

  00047	8b 0c 0b	 mov	 ecx, DWORD PTR [ebx+ecx]
; File C:\IAGOS\server\v18\Source\Source\_Common\Project.h

; 1389 : 	VERIFY_RANGE_ASSERT( nIndex, 0, m_aPropItem.GetSize(), "GetItemProp range_error", NULL );

  0004a	85 c9		 test	 ecx, ecx
  0004c	78 65		 js	 SHORT $LN29@SetApplyDS
  0004e	3b ca		 cmp	 ecx, edx
  00050	7d 61		 jge	 SHORT $LN29@SetApplyDS
; File C:\IAGOS\server\v18\Source\Source\_Common\data.h

; 270  : 	if( dwIndex >= (DWORD)m_nMaxIndex )

  00052	72 04		 jb	 SHORT $LN34@SetApplyDS

; 271  : 		return NULL;

  00054	33 f6		 xor	 esi, esi
  00056	eb 08		 jmp	 SHORT $LN33@SetApplyDS
$LN34@SetApplyDS:

; 272  : 	return (T*) m_apOffset[ dwIndex ];

  00058	a1 30 02 00 00	 mov	 eax, DWORD PTR ?prj@@3VCProject@@A+560
  0005d	8b 34 88	 mov	 esi, DWORD PTR [eax+ecx*4]
$LN33@SetApplyDS:
; File C:\IAGOS\server\v18\Source\Source\_Common\GuildHouse.cpp

; 608  : 			if( pItemProp )

  00060	85 f6		 test	 esi, esi
  00062	74 2a		 je	 SHORT $LN41@SetApplyDS

; 609  : 			{
; 610  : 				pUser->SetDestParam( 0, pItemProp );

  00064	6a 01		 push	 1
  00066	56		 push	 esi
  00067	6a 00		 push	 0
  00069	8b cf		 mov	 ecx, edi
  0006b	e8 00 00 00 00	 call	 ?SetDestParam@CMover@@QAEXHPAUItemProp@@H@Z ; CMover::SetDestParam

; 611  : 				pUser->SetDestParam( 1, pItemProp );

  00070	6a 01		 push	 1
  00072	56		 push	 esi
  00073	6a 01		 push	 1
  00075	8b cf		 mov	 ecx, edi
  00077	e8 00 00 00 00	 call	 ?SetDestParam@CMover@@QAEXHPAUItemProp@@H@Z ; CMover::SetDestParam

; 612  : 				pUser->SetDestParam( 2, pItemProp );

  0007c	6a 01		 push	 1
  0007e	56		 push	 esi
  0007f	6a 02		 push	 2
  00081	8b cf		 mov	 ecx, edi
  00083	e8 00 00 00 00	 call	 ?SetDestParam@CMover@@QAEXHPAUItemProp@@H@Z ; CMover::SetDestParam
  00088	8b 15 40 02 00
	00		 mov	 edx, DWORD PTR ?prj@@3VCProject@@A+576
$LN41@SetApplyDS:

; 603  : 	for( int i=0; i<(int)( m_vecFntInfo.size() ); i++ )

  0008e	8b 75 08	 mov	 esi, DWORD PTR _i$1$[ebp]
$LN2@SetApplyDS:
; File C:\Program Files\Microsoft Visual Studio\2022\Professional\VC\Tools\MSVC\14.44.35207\include\vector

; 1915 :         return static_cast<size_type>(_My_data._Mylast - _My_data._Myfirst);

  00091	8b 45 fc	 mov	 eax, DWORD PTR _this$1$[ebp]
; File C:\IAGOS\server\v18\Source\Source\_Common\GuildHouse.cpp

; 603  : 	for( int i=0; i<(int)( m_vecFntInfo.size() ); i++ )

  00094	46		 inc	 esi
  00095	83 c3 20	 add	 ebx, 32			; 00000020H
  00098	89 75 08	 mov	 DWORD PTR _i$1$[ebp], esi
; File C:\Program Files\Microsoft Visual Studio\2022\Professional\VC\Tools\MSVC\14.44.35207\include\vector

; 1915 :         return static_cast<size_type>(_My_data._Mylast - _My_data._Myfirst);

  0009b	8b 48 0c	 mov	 ecx, DWORD PTR [eax+12]
  0009e	8b 40 10	 mov	 eax, DWORD PTR [eax+16]
  000a1	2b c1		 sub	 eax, ecx
  000a3	c1 f8 05	 sar	 eax, 5
; File C:\IAGOS\server\v18\Source\Source\_Common\GuildHouse.cpp

; 603  : 	for( int i=0; i<(int)( m_vecFntInfo.size() ); i++ )

  000a6	3b f0		 cmp	 esi, eax
  000a8	7c 96		 jl	 SHORT $LL4@SetApplyDS
  000aa	5b		 pop	 ebx
$LN50@SetApplyDS:
  000ab	5e		 pop	 esi
$LN3@SetApplyDS:
  000ac	5f		 pop	 edi

; 613  : 			}
; 614  : 		}
; 615  : 	}
; 616  : }

  000ad	8b e5		 mov	 esp, ebp
  000af	5d		 pop	 ebp
  000b0	c2 04 00	 ret	 4
$LN29@SetApplyDS:
; File C:\IAGOS\server\v18\Source\Source\_Common\Project.h

; 579  : 	LPCTSTR szErr = Error( _T( "%s min:%d, max:%d, index:%d" ), szMsg, nMin, nMax, nIndex ); 

  000b3	51		 push	 ecx
  000b4	52		 push	 edx
  000b5	6a 00		 push	 0
  000b7	68 00 00 00 00	 push	 OFFSET ??_C@_0BI@BEIFNGEL@GetItemProp?5range_error@
  000bc	68 00 00 00 00	 push	 OFFSET ??_C@_0BM@HMFGHCP@?$CFs?5min?3?$CFd?0?5max?3?$CFd?0?5index?3?$CFd@
  000c1	e8 00 00 00 00	 call	 ?Error@@YAPBDPBDZZ	; Error
  000c6	8b 15 40 02 00
	00		 mov	 edx, DWORD PTR ?prj@@3VCProject@@A+576
  000cc	83 c4 14	 add	 esp, 20			; 00000014H
; File C:\IAGOS\server\v18\Source\Source\_Common\GuildHouse.cpp

; 608  : 			if( pItemProp )

  000cf	eb c0		 jmp	 SHORT $LN2@SetApplyDS
?SetApplyDST@CGuildHouseBase@@QAEXPAVCUser@@@Z ENDP	; CGuildHouseBase::SetApplyDST
_TEXT	ENDS
; Function compile flags: /Ogtp
; File C:\IAGOS\server\v18\Source\Source\_Common\GuildHouse.cpp
; File C:\IAGOS\server\v18\Source\Source\_Common\Obj.h
; File C:\IAGOS\server\v18\Source\Source\_Common\GuildHouse.cpp
;	COMDAT ?IsEnteranceAble@CGuildHouseBase@@QAEHPAVCUser@@@Z
_TEXT	SEGMENT
_pUser$ = 8						; size = 4
?IsEnteranceAble@CGuildHouseBase@@QAEHPAVCUser@@@Z PROC	; CGuildHouseBase::IsEnteranceAble, COMDAT
; _this$ = ecx

; 350  : {

  00000	55		 push	 ebp
  00001	8b ec		 mov	 ebp, esp

; 351  : 	if( m_tUpkeepTime == 0 )	// ŔŻÁö ±â°ŁŔĚ ¸¸·áµÇľú´Ů.

  00003	83 79 18 00	 cmp	 DWORD PTR [ecx+24], 0
  00007	75 13		 jne	 SHORT $LN2@IsEnteranc

; 352  : 	{
; 353  : 		pUser->AddDefinedText( TID_GAME_GUILDHOUSE_EXPIRATION );

  00009	8b 4d 08	 mov	 ecx, DWORD PTR _pUser$[ebp]
  0000c	68 b1 10 00 00	 push	 4273			; 000010b1H
  00011	e8 00 00 00 00	 call	 ?AddDefinedText@CUser@@QAEXH@Z ; CUser::AddDefinedText
$LN4@IsEnteranc:

; 362  : 
; 363  : 	return FALSE;
; 364  : }

  00016	33 c0		 xor	 eax, eax
  00018	5d		 pop	 ebp
  00019	c2 04 00	 ret	 4
$LN2@IsEnteranc:
; File C:\IAGOS\server\v18\Source\Source\_Common\Obj.h

; 327  : 	return pObj && ( pObj->IsDelete() == FALSE ); 

  0001c	8b 45 08	 mov	 eax, DWORD PTR _pUser$[ebp]
  0001f	85 c0		 test	 eax, eax
  00021	74 f3		 je	 SHORT $LN4@IsEnteranc

; 180  : 	BOOL			IsDelete()	{ return (m_dwFlags & OBJ_FLAG_DELETE);  }

  00023	f6 40 04 01	 test	 BYTE PTR [eax+4], 1

; 327  : 	return pObj && ( pObj->IsDelete() == FALSE ); 

  00027	75 ed		 jne	 SHORT $LN4@IsEnteranc
; File C:\IAGOS\server\v18\Source\Source\_Common\GuildHouse.cpp

; 357  : 	if( !IsValidObj( pUser ) || pUser->m_idGuild != m_dwGuildId )

  00029	8b 80 14 07 00
	00		 mov	 eax, DWORD PTR [eax+1812]
  0002f	3b 41 04	 cmp	 eax, DWORD PTR [ecx+4]
  00032	75 e2		 jne	 SHORT $LN4@IsEnteranc

; 358  : 		return FALSE;
; 359  : 
; 360  : 	if( CreateGuildHouseRoom() )	// ŔÔŔĺŔÚ°ˇ ÇŃ¸íµµ ľřľîĽ­ ąćŔĚ »ýĽşµÇÁö ľĘŔş °ćżě »ýĽş˝ĂĹ˛´Ů.

  00034	e8 00 00 00 00	 call	 ?CreateGuildHouseRoom@CGuildHouseBase@@AAEHXZ ; CGuildHouseBase::CreateGuildHouseRoom
  00039	85 c0		 test	 eax, eax
  0003b	74 d9		 je	 SHORT $LN4@IsEnteranc

; 361  : 		return TRUE;

  0003d	b8 01 00 00 00	 mov	 eax, 1

; 362  : 
; 363  : 	return FALSE;
; 364  : }

  00042	5d		 pop	 ebp
  00043	c2 04 00	 ret	 4
?IsEnteranceAble@CGuildHouseBase@@QAEHPAVCUser@@@Z ENDP	; CGuildHouseBase::IsEnteranceAble
_TEXT	ENDS
; Function compile flags: /Ogtp
; File C:\IAGOS\server\v18\Source\Source\_Common\GuildHouse.cpp
; File C:\Program Files\Microsoft Visual Studio\2022\Professional\VC\Tools\MSVC\14.44.35207\include\xtree
; File C:\IAGOS\server\v18\Source\Source\_Common\GuildHouse.cpp
; File C:\Program Files\Microsoft Visual Studio\2022\Professional\VC\Tools\MSVC\14.44.35207\include\xtree
; File C:\IAGOS\server\v18\Source\Source\_Common\GuildHouse.cpp
; File C:\Program Files\Microsoft Visual Studio\2022\Professional\VC\Tools\MSVC\14.44.35207\include\xtree
; File C:\Program Files\Microsoft Visual Studio\2022\Professional\VC\Tools\MSVC\14.44.35207\include\type_traits
; File C:\Program Files\Microsoft Visual Studio\2022\Professional\VC\Tools\MSVC\14.44.35207\include\xtree
; File C:\Program Files\Microsoft Visual Studio\2022\Professional\VC\Tools\MSVC\14.44.35207\include\type_traits
; File C:\Program Files\Microsoft Visual Studio\2022\Professional\VC\Tools\MSVC\14.44.35207\include\xtree
; File C:\IAGOS\server\v18\Source\Source\_Common\Project.h
; File C:\IAGOS\server\v18\Source\Source\_Common\Obj.h
; File C:\IAGOS\server\v18\Source\Source\_Common\GuildHouse.cpp
; File C:\Program Files\Microsoft Visual Studio\2022\Professional\VC\Tools\MSVC\14.44.35207\include\xtree
; File C:\IAGOS\server\v18\Source\Source\_Common\GuildHouse.cpp
;	COMDAT ?SendWorldToClient@CGuildHouseBase@@QAEXHAAUGuildHouse_Furniture_Info@1@H@Z
_TEXT	SEGMENT
_nPacketType$ = 8					; size = 4
_gfi$ = 12						; size = 4
_nIndex$ = 16						; size = 4
?SendWorldToClient@CGuildHouseBase@@QAEXHAAUGuildHouse_Furniture_Info@1@H@Z PROC ; CGuildHouseBase::SendWorldToClient, COMDAT
; _this$ = ecx

; 585  : {

  00000	55		 push	 ebp
  00001	8b ec		 mov	 ebp, esp
  00003	53		 push	 ebx

; 586  : 	CGuild* pGuild = g_GuildMng.GetGuild( m_dwGuildId );

  00004	ff 71 04	 push	 DWORD PTR [ecx+4]
  00007	b9 00 00 00 00	 mov	 ecx, OFFSET ?g_GuildMng@@3VCGuildMng@@A ; g_GuildMng
  0000c	e8 00 00 00 00	 call	 ?GetGuild@CGuildMng@@QAEPAVCGuild@@K@Z ; CGuildMng::GetGuild
  00011	8b d8		 mov	 ebx, eax

; 587  : 	if( pGuild )

  00013	85 db		 test	 ebx, ebx
  00015	0f 84 b2 00 00
	00		 je	 $LN3@SendWorldT
; File C:\Program Files\Microsoft Visual Studio\2022\Professional\VC\Tools\MSVC\14.44.35207\include\xtree

; 1142 :         return iterator(_Scary->_Myhead->_Left, _Scary);

  0001b	8b 4b 38	 mov	 ecx, DWORD PTR [ebx+56]
  0001e	56		 push	 esi

; 37   :     _Tree_unchecked_const_iterator(_Nodeptr _Pnode, const _Mytree* _Plist) noexcept : _Ptr(_Pnode) {

  0001f	8b 31		 mov	 esi, DWORD PTR [ecx]

; 237  :         return !(*this == _Right);

  00021	3b f1		 cmp	 esi, ecx
; File C:\IAGOS\server\v18\Source\Source\_Common\GuildHouse.cpp

; 589  : 		for( map<u_long, CGuildMember*>::iterator it=pGuild->m_mapPMember.begin(); it!=pGuild->m_mapPMember.end(); it++ )

  00023	0f 84 a3 00 00
	00		 je	 $LN161@SendWorldT
  00029	57		 push	 edi
  0002a	8b 3d 28 00 00
	00		 mov	 edi, DWORD PTR ?prj@@3VCProject@@A+40
$LL4@SendWorldT:
; File C:\Program Files\Microsoft Visual Studio\2022\Professional\VC\Tools\MSVC\14.44.35207\include\xtree

; 1630 :         _Tree_find_result<_Nodeptr> _Result{{_Scary->_Myhead->_Parent, _Tree_child::_Right}, _Scary->_Myhead};

  00030	8b 47 04	 mov	 eax, DWORD PTR [edi+4]
  00033	8b cf		 mov	 ecx, edi
; File C:\IAGOS\server\v18\Source\Source\_Common\GuildHouse.cpp

; 591  : 			CUser* pUser = static_cast<CUser*>( prj.GetUserByID( it->first ) );

  00035	8b 56 10	 mov	 edx, DWORD PTR [esi+16]
; File C:\Program Files\Microsoft Visual Studio\2022\Professional\VC\Tools\MSVC\14.44.35207\include\xtree

; 1632 :         while (!_Trynode->_Isnil) {

  00038	80 78 0d 00	 cmp	 BYTE PTR [eax+13], 0
  0003c	75 16		 jne	 SHORT $LN75@SendWorldT
  0003e	66 90		 npad	 2
$LL74@SendWorldT:
; File C:\Program Files\Microsoft Visual Studio\2022\Professional\VC\Tools\MSVC\14.44.35207\include\type_traits

; 2380 :         return _Left < _Right;

  00040	39 50 10	 cmp	 DWORD PTR [eax+16], edx
; File C:\Program Files\Microsoft Visual Studio\2022\Professional\VC\Tools\MSVC\14.44.35207\include\xtree

; 1634 :             if (_DEBUG_LT_PRED(_Getcomp(), _Traits::_Kfn(_Trynode->_Myval), _Keyval)) {

  00043	73 05		 jae	 SHORT $LN76@SendWorldT

; 1635 :                 _Result._Location._Child = _Tree_child::_Right;
; 1636 :                 _Trynode                 = _Trynode->_Right;

  00045	8b 40 08	 mov	 eax, DWORD PTR [eax+8]

; 1637 :             } else {

  00048	eb 04		 jmp	 SHORT $LN77@SendWorldT
$LN76@SendWorldT:

; 1638 :                 _Result._Location._Child = _Tree_child::_Left;
; 1639 :                 _Result._Bound           = _Trynode;

  0004a	8b c8		 mov	 ecx, eax

; 1640 :                 _Trynode                 = _Trynode->_Left;

  0004c	8b 00		 mov	 eax, DWORD PTR [eax]
$LN77@SendWorldT:

; 1632 :         while (!_Trynode->_Isnil) {

  0004e	80 78 0d 00	 cmp	 BYTE PTR [eax+13], 0
  00052	74 ec		 je	 SHORT $LL74@SendWorldT
$LN75@SendWorldT:

; 1624 :         return !_Bound->_Isnil && !_DEBUG_LT_PRED(_Getcomp(), _Keyval, _Traits::_Kfn(_Bound->_Myval));

  00054	80 79 0d 00	 cmp	 BYTE PTR [ecx+13], 0
  00058	75 05		 jne	 SHORT $LN71@SendWorldT
; File C:\Program Files\Microsoft Visual Studio\2022\Professional\VC\Tools\MSVC\14.44.35207\include\type_traits

; 2380 :         return _Left < _Right;

  0005a	3b 51 10	 cmp	 edx, DWORD PTR [ecx+16]
; File C:\Program Files\Microsoft Visual Studio\2022\Professional\VC\Tools\MSVC\14.44.35207\include\xtree

; 1624 :         return !_Bound->_Isnil && !_DEBUG_LT_PRED(_Getcomp(), _Keyval, _Traits::_Kfn(_Bound->_Myval));

  0005d	73 02		 jae	 SHORT $LN70@SendWorldT
$LN71@SendWorldT:

; 1389 :         return _Get_scary()->_Myhead;

  0005f	8b cf		 mov	 ecx, edi
$LN70@SendWorldT:

; 37   :     _Tree_unchecked_const_iterator(_Nodeptr _Pnode, const _Mytree* _Plist) noexcept : _Ptr(_Pnode) {

  00061	3b cf		 cmp	 ecx, edi
; File C:\IAGOS\server\v18\Source\Source\_Common\Project.h

; 1436 : 	if( i != m_idPlayerToUserPtr.end() )

  00063	74 21		 je	 SHORT $LN2@SendWorldT

; 1437 : 		return i->second;

  00065	8b 49 14	 mov	 ecx, DWORD PTR [ecx+20]
; File C:\IAGOS\server\v18\Source\Source\_Common\Obj.h

; 327  : 	return pObj && ( pObj->IsDelete() == FALSE ); 

  00068	85 c9		 test	 ecx, ecx
  0006a	74 1a		 je	 SHORT $LN2@SendWorldT

; 180  : 	BOOL			IsDelete()	{ return (m_dwFlags & OBJ_FLAG_DELETE);  }

  0006c	f6 41 04 01	 test	 BYTE PTR [ecx+4], 1

; 327  : 	return pObj && ( pObj->IsDelete() == FALSE ); 

  00070	75 14		 jne	 SHORT $LN2@SendWorldT
; File C:\IAGOS\server\v18\Source\Source\_Common\GuildHouse.cpp

; 593  : 				pUser->AddGuildHousePakcet( nPacketType, gfi, nIndex );

  00072	ff 75 10	 push	 DWORD PTR _nIndex$[ebp]
  00075	ff 75 0c	 push	 DWORD PTR _gfi$[ebp]
  00078	ff 75 08	 push	 DWORD PTR _nPacketType$[ebp]
  0007b	e8 00 00 00 00	 call	 ?AddGuildHousePakcet@CUser@@QAEXHAAUGuildHouse_Furniture_Info@CGuildHouseBase@@H@Z ; CUser::AddGuildHousePakcet
  00080	8b 3d 28 00 00
	00		 mov	 edi, DWORD PTR ?prj@@3VCProject@@A+40
$LN2@SendWorldT:
; File C:\Program Files\Microsoft Visual Studio\2022\Professional\VC\Tools\MSVC\14.44.35207\include\xtree

; 50   :         if (_Ptr->_Right->_Isnil) { // climb looking for right subtree

  00086	8b 46 08	 mov	 eax, DWORD PTR [esi+8]
  00089	80 78 0d 00	 cmp	 BYTE PTR [eax+13], 0
  0008d	74 1d		 je	 SHORT $LN29@SendWorldT

; 51   :             _Nodeptr _Pnode;
; 52   :             while (!(_Pnode = _Ptr->_Parent)->_Isnil && _Ptr == _Pnode->_Right) {

  0008f	8b 46 04	 mov	 eax, DWORD PTR [esi+4]
  00092	80 78 0d 00	 cmp	 BYTE PTR [eax+13], 0
  00096	75 10		 jne	 SHORT $LN148@SendWorldT
$LL27@SendWorldT:
  00098	3b 70 08	 cmp	 esi, DWORD PTR [eax+8]
  0009b	75 0b		 jne	 SHORT $LN148@SendWorldT

; 53   :                 _Ptr = _Pnode; // ==> parent while right subtree

  0009d	8b f0		 mov	 esi, eax
  0009f	8b 40 04	 mov	 eax, DWORD PTR [eax+4]
  000a2	80 78 0d 00	 cmp	 BYTE PTR [eax+13], 0
  000a6	74 f0		 je	 SHORT $LL27@SendWorldT
$LN148@SendWorldT:

; 54   :             }
; 55   : 
; 56   :             _Ptr = _Pnode; // ==> parent (head if end())

  000a8	8b f0		 mov	 esi, eax

; 57   :         } else {

  000aa	eb 16		 jmp	 SHORT $LN35@SendWorldT
$LN29@SendWorldT:

; 58   :             _Ptr = _Mytree::_Min(_Ptr->_Right); // ==> smallest of right subtree

  000ac	8b f0		 mov	 esi, eax

; 476  :         while (!_Pnode->_Left->_Isnil) {

  000ae	8b 0e		 mov	 ecx, DWORD PTR [esi]
  000b0	80 79 0d 00	 cmp	 BYTE PTR [ecx+13], 0
  000b4	75 0c		 jne	 SHORT $LN35@SendWorldT
$LL34@SendWorldT:
  000b6	8b 01		 mov	 eax, DWORD PTR [ecx]

; 477  :             _Pnode = _Pnode->_Left;

  000b8	8b f1		 mov	 esi, ecx
  000ba	8b c8		 mov	 ecx, eax
  000bc	80 78 0d 00	 cmp	 BYTE PTR [eax+13], 0
  000c0	74 f4		 je	 SHORT $LL34@SendWorldT
$LN35@SendWorldT:

; 237  :         return !(*this == _Right);

  000c2	3b 73 38	 cmp	 esi, DWORD PTR [ebx+56]
; File C:\IAGOS\server\v18\Source\Source\_Common\GuildHouse.cpp

; 589  : 		for( map<u_long, CGuildMember*>::iterator it=pGuild->m_mapPMember.begin(); it!=pGuild->m_mapPMember.end(); it++ )

  000c5	0f 85 65 ff ff
	ff		 jne	 $LL4@SendWorldT
  000cb	5f		 pop	 edi
$LN161@SendWorldT:
  000cc	5e		 pop	 esi
$LN3@SendWorldT:
  000cd	5b		 pop	 ebx

; 594  : 		}
; 595  : 	}
; 596  : }

  000ce	5d		 pop	 ebp
  000cf	c2 0c 00	 ret	 12			; 0000000cH
?SendWorldToClient@CGuildHouseBase@@QAEXHAAUGuildHouse_Furniture_Info@1@H@Z ENDP ; CGuildHouseBase::SendWorldToClient
_TEXT	ENDS
; Function compile flags: /Ogtp
; File C:\IAGOS\server\v18\Source\Source\_Common\GuildHouse.cpp
; File C:\IAGOS\server\v18\Source\Source\_Common\Obj.h
; File C:\IAGOS\server\v18\Source\Source\_Common\GuildHouse.h
; File C:\IAGOS\server\v18\Source\Source\_Common\GuildHouse.cpp
; File C:\IAGOS\server\v18\Source\Source\_Network\Net\Include\DPMng.h
; File C:\IAGOS\server\v18\Source\Source\_Common\GuildHouse.cpp
;	COMDAT ?SendWorldToDatabase@CGuildHouseBase@@QAEHPAVCUser@@HAAUGuildHouse_Furniture_Info@1@H@Z
_TEXT	SEGMENT
_nBufSize$2 = -16436					; size = 4
$T3 = -16432						; size = 4
$T4 = -16428						; size = 4
$T5 = -16424						; size = 4
_ar$6 = -16420						; size = 16404
__$ArrayPad$ = -16					; size = 4
__$EHRec$ = -12						; size = 12
_pUser$ = 8						; size = 4
_nPacketType$ = 12					; size = 4
_gfi$ = 16						; size = 4
_nIndex$ = 20						; size = 4
?SendWorldToDatabase@CGuildHouseBase@@QAEHPAVCUser@@HAAUGuildHouse_Furniture_Info@1@H@Z PROC ; CGuildHouseBase::SendWorldToDatabase, COMDAT
; _this$ = ecx

; 559  : {

  00000	55		 push	 ebp
  00001	8b ec		 mov	 ebp, esp
  00003	6a ff		 push	 -1
  00005	68 00 00 00 00	 push	 __ehhandler$?SendWorldToDatabase@CGuildHouseBase@@QAEHPAVCUser@@HAAUGuildHouse_Furniture_Info@1@H@Z
  0000a	64 a1 00 00 00
	00		 mov	 eax, DWORD PTR fs:0
  00010	50		 push	 eax
  00011	b8 28 40 00 00	 mov	 eax, 16424		; 00004028H
  00016	e8 00 00 00 00	 call	 __chkstk
  0001b	a1 00 00 00 00	 mov	 eax, DWORD PTR ___security_cookie
  00020	33 c5		 xor	 eax, ebp
  00022	89 45 f0	 mov	 DWORD PTR __$ArrayPad$[ebp], eax
  00025	53		 push	 ebx
  00026	56		 push	 esi
  00027	57		 push	 edi
  00028	50		 push	 eax
  00029	8d 45 f4	 lea	 eax, DWORD PTR __$EHRec$[ebp]
  0002c	64 a3 00 00 00
	00		 mov	 DWORD PTR fs:0, eax
  00032	8b f9		 mov	 edi, ecx
  00034	8b 75 08	 mov	 esi, DWORD PTR _pUser$[ebp]
  00037	8b 5d 10	 mov	 ebx, DWORD PTR _gfi$[ebp]
; File C:\IAGOS\server\v18\Source\Source\_Common\Obj.h

; 327  : 	return pObj && ( pObj->IsDelete() == FALSE ); 

  0003a	85 f6		 test	 esi, esi
  0003c	74 18		 je	 SHORT $LN19@SendWorldT

; 180  : 	BOOL			IsDelete()	{ return (m_dwFlags & OBJ_FLAG_DELETE);  }

  0003e	f6 46 04 01	 test	 BYTE PTR [esi+4], 1

; 327  : 	return pObj && ( pObj->IsDelete() == FALSE ); 

  00042	75 12		 jne	 SHORT $LN19@SendWorldT
; File C:\IAGOS\server\v18\Source\Source\_Common\GuildHouse.h

; 151  : 	BOOL	IsWaitDBAck()	{ return m_dwWaitDBAckPlayerId != NULL_ID; }

  00044	83 7f 1c ff	 cmp	 DWORD PTR [edi+28], -1
; File C:\IAGOS\server\v18\Source\Source\_Common\GuildHouse.cpp

; 563  : 	if( IsWaitDBAck() )

  00048	74 2c		 je	 SHORT $LN3@SendWorldT

; 564  : 	{
; 565  : 		pUser->AddDefinedText( TID_GAME_GUILDHOUSE_LATER );

  0004a	68 b3 10 00 00	 push	 4275			; 000010b3H
  0004f	8b ce		 mov	 ecx, esi
  00051	e8 00 00 00 00	 call	 ?AddDefinedText@CUser@@QAEXH@Z ; CUser::AddDefinedText
$LN19@SendWorldT:

; 582  : }

  00056	33 c0		 xor	 eax, eax
$LN1@SendWorldT:
  00058	8b 4d f4	 mov	 ecx, DWORD PTR __$EHRec$[ebp]
  0005b	64 89 0d 00 00
	00 00		 mov	 DWORD PTR fs:0, ecx
  00062	59		 pop	 ecx
  00063	5f		 pop	 edi
  00064	5e		 pop	 esi
  00065	5b		 pop	 ebx
  00066	8b 4d f0	 mov	 ecx, DWORD PTR __$ArrayPad$[ebp]
  00069	33 cd		 xor	 ecx, ebp
  0006b	e8 00 00 00 00	 call	 @__security_check_cookie@4
  00070	8b e5		 mov	 esp, ebp
  00072	5d		 pop	 ebp
  00073	c2 10 00	 ret	 16			; 00000010H
$LN3@SendWorldT:

; 566  : 		return FALSE;
; 567  : 	}
; 568  : 
; 569  : 	if( !PreCheckPacket( pUser, nPacketType, gfi, nIndex ) )

  00076	ff 75 14	 push	 DWORD PTR _nIndex$[ebp]
  00079	53		 push	 ebx
  0007a	ff 75 0c	 push	 DWORD PTR _nPacketType$[ebp]
  0007d	56		 push	 esi
  0007e	e8 00 00 00 00	 call	 ?PreCheckPacket@CGuildHouseBase@@AAEHPAVCUser@@HAAUGuildHouse_Furniture_Info@1@H@Z ; CGuildHouseBase::PreCheckPacket
  00083	85 c0		 test	 eax, eax
  00085	74 cf		 je	 SHORT $LN19@SendWorldT

; 570  : 		return FALSE;
; 571  : 	
; 572  : 	SetWaitDBAckPlayerId( pUser->m_idPlayer );

  00087	8b 86 34 02 00
	00		 mov	 eax, DWORD PTR [esi+564]

; 573  : 	{
; 574  : 		BEFORESENDDUAL( ar, PACKETTYPE_GUILDHOUSE_PACKET, DPID_UNKNOWN, DPID_UNKNOWN );

  0008d	8d 8d dc bf ff
	ff		 lea	 ecx, DWORD PTR _ar$6[ebp]
  00093	6a 00		 push	 0
  00095	6a 00		 push	 0
  00097	89 47 1c	 mov	 DWORD PTR [edi+28], eax
  0009a	e8 00 00 00 00	 call	 ??0CAr@@QAE@PAXI@Z	; CAr::CAr
  0009f	8d 85 d8 bf ff
	ff		 lea	 eax, DWORD PTR $T5[ebp]
  000a5	c7 45 fc 00 00
	00 00		 mov	 DWORD PTR __$EHRec$[ebp+8], 0
  000ac	50		 push	 eax
  000ad	8d 85 d4 bf ff
	ff		 lea	 eax, DWORD PTR $T4[ebp]
  000b3	c7 85 d8 bf ff
	ff 03 00 10 88	 mov	 DWORD PTR $T5[ebp], -2012217341 ; 88100003H
  000bd	50		 push	 eax
  000be	8d 85 d0 bf ff
	ff		 lea	 eax, DWORD PTR $T3[ebp]
  000c4	c7 85 d4 bf ff
	ff ff ff ff ff	 mov	 DWORD PTR $T4[ebp], -1
  000ce	50		 push	 eax
  000cf	8d 8d dc bf ff
	ff		 lea	 ecx, DWORD PTR _ar$6[ebp]
  000d5	c7 85 d0 bf ff
	ff ff ff ff ff	 mov	 DWORD PTR $T3[ebp], -1
  000df	e8 00 00 00 00	 call	 ??$?6I@CAr@@QAEAAV0@ABI@Z ; CAr::operator<<<unsigned int>
  000e4	8b c8		 mov	 ecx, eax
  000e6	e8 00 00 00 00	 call	 ??$?6I@CAr@@QAEAAV0@ABI@Z ; CAr::operator<<<unsigned int>
  000eb	8b c8		 mov	 ecx, eax
  000ed	e8 00 00 00 00	 call	 ??$?6K@CAr@@QAEAAV0@ABK@Z ; CAr::operator<<<unsigned long>

; 575  : 		ar << pUser->m_idGuild;

  000f2	8d 86 14 07 00
	00		 lea	 eax, DWORD PTR [esi+1812]
  000f8	50		 push	 eax
  000f9	8d 8d dc bf ff
	ff		 lea	 ecx, DWORD PTR _ar$6[ebp]
  000ff	e8 00 00 00 00	 call	 ??$?6K@CAr@@QAEAAV0@ABK@Z ; CAr::operator<<<unsigned long>

; 576  : 		ar << nPacketType << nIndex;

  00104	8d 45 14	 lea	 eax, DWORD PTR _nIndex$[ebp]
  00107	50		 push	 eax
  00108	8d 45 0c	 lea	 eax, DWORD PTR _nPacketType$[ebp]
  0010b	50		 push	 eax
  0010c	8d 8d dc bf ff
	ff		 lea	 ecx, DWORD PTR _ar$6[ebp]
  00112	e8 00 00 00 00	 call	 ??$?6H@CAr@@QAEAAV0@ABH@Z ; CAr::operator<<<int>
  00117	8b c8		 mov	 ecx, eax
  00119	e8 00 00 00 00	 call	 ??$?6H@CAr@@QAEAAV0@ABH@Z ; CAr::operator<<<int>

; 577  : 		gfi.Serialize( ar );

  0011e	8d 85 dc bf ff
	ff		 lea	 eax, DWORD PTR _ar$6[ebp]
  00124	8b cb		 mov	 ecx, ebx
  00126	50		 push	 eax
  00127	e8 00 00 00 00	 call	 ?Serialize@GuildHouse_Furniture_Info@CGuildHouseBase@@QAEXAAVCAr@@@Z ; CGuildHouseBase::GuildHouse_Furniture_Info::Serialize

; 578  : 		SEND( ar, &g_dpDBClient, DPID_SERVERPLAYER );

  0012c	8d 85 cc bf ff
	ff		 lea	 eax, DWORD PTR _nBufSize$2[ebp]
  00132	50		 push	 eax
  00133	8d 8d dc bf ff
	ff		 lea	 ecx, DWORD PTR _ar$6[ebp]
  00139	e8 00 00 00 00	 call	 ?GetBuffer@CAr@@QAEPAEPAH@Z ; CAr::GetBuffer
; File C:\IAGOS\server\v18\Source\Source\_Network\Net\Include\DPMng.h

; 171  : 	if( !m_pDPSock )

  0013e	8b 0d 04 00 00
	00		 mov	 ecx, DWORD PTR ?g_dpDBClient@@3VCDPDatabaseClient@@A+4
  00144	85 c9		 test	 ecx, ecx
  00146	74 0e		 je	 SHORT $LN15@SendWorldT

; 172  : 		return FALSE;
; 173  : 	return m_pDPSock->Send( (char*)lpData, dwDataSize, dpidTo );

  00148	6a 01		 push	 1
  0014a	ff b5 cc bf ff
	ff		 push	 DWORD PTR _nBufSize$2[ebp]
  00150	50		 push	 eax
  00151	e8 00 00 00 00	 call	 ?Send@CDPSock@@QAEHPADKK@Z ; CDPSock::Send
$LN15@SendWorldT:
; File C:\IAGOS\server\v18\Source\Source\_Common\GuildHouse.cpp

; 579  : 	}

  00156	8d 8d dc bf ff
	ff		 lea	 ecx, DWORD PTR _ar$6[ebp]
  0015c	e8 00 00 00 00	 call	 ??1CAr@@QAE@XZ		; CAr::~CAr

; 580  : 
; 581  : 	return TRUE;

  00161	b8 01 00 00 00	 mov	 eax, 1
  00166	e9 ed fe ff ff	 jmp	 $LN1@SendWorldT
_TEXT	ENDS
;	COMDAT text$x
text$x	SEGMENT
__unwindfunclet$?SendWorldToDatabase@CGuildHouseBase@@QAEHPAVCUser@@HAAUGuildHouse_Furniture_Info@1@H@Z$0:
  00000	8d 8d dc bf ff
	ff		 lea	 ecx, DWORD PTR _ar$6[ebp]
  00006	e9 00 00 00 00	 jmp	 ??1CAr@@QAE@XZ		; CAr::~CAr
  0000b	cc		 int	 3
  0000c	cc		 int	 3
  0000d	cc		 int	 3
  0000e	cc		 int	 3
  0000f	cc		 int	 3
__ehhandler$?SendWorldToDatabase@CGuildHouseBase@@QAEHPAVCUser@@HAAUGuildHouse_Furniture_Info@1@H@Z:
  00010	90		 npad	 1
  00011	90		 npad	 1
  00012	8b 54 24 08	 mov	 edx, DWORD PTR [esp+8]
  00016	8d 42 0c	 lea	 eax, DWORD PTR [edx+12]
  00019	8b 8a c8 bf ff
	ff		 mov	 ecx, DWORD PTR [edx-16440]
  0001f	33 c8		 xor	 ecx, eax
  00021	e8 00 00 00 00	 call	 @__security_check_cookie@4
  00026	8b 4a fc	 mov	 ecx, DWORD PTR [edx-4]
  00029	33 c8		 xor	 ecx, eax
  0002b	e8 00 00 00 00	 call	 @__security_check_cookie@4
  00030	b8 00 00 00 00	 mov	 eax, OFFSET __ehfuncinfo$?SendWorldToDatabase@CGuildHouseBase@@QAEHPAVCUser@@HAAUGuildHouse_Furniture_Info@1@H@Z
  00035	e9 00 00 00 00	 jmp	 ___CxxFrameHandler3
text$x	ENDS
?SendWorldToDatabase@CGuildHouseBase@@QAEHPAVCUser@@HAAUGuildHouse_Furniture_Info@1@H@Z ENDP ; CGuildHouseBase::SendWorldToDatabase
; Function compile flags: /Ogtp
; File C:\IAGOS\server\v18\Source\Source\_Common\GuildHouse.cpp
; File C:\Program Files\Microsoft Visual Studio\2022\Professional\VC\Tools\MSVC\14.44.35207\include\xtree
; File C:\IAGOS\server\v18\Source\Source\_Common\GuildHouse.cpp
; File C:\Program Files\Microsoft Visual Studio\2022\Professional\VC\Tools\MSVC\14.44.35207\include\xtree
; File C:\Program Files\Microsoft Visual Studio\2022\Professional\VC\Tools\MSVC\14.44.35207\include\type_traits
; File C:\Program Files\Microsoft Visual Studio\2022\Professional\VC\Tools\MSVC\14.44.35207\include\xtree
; File C:\Program Files\Microsoft Visual Studio\2022\Professional\VC\Tools\MSVC\14.44.35207\include\type_traits
; File C:\Program Files\Microsoft Visual Studio\2022\Professional\VC\Tools\MSVC\14.44.35207\include\xtree
; File C:\IAGOS\server\v18\Source\Source\_Common\Project.h
; File C:\IAGOS\server\v18\Source\Source\_Common\Obj.h
; File C:\IAGOS\server\v18\Source\Source\_Common\GuildHouse.cpp
;	COMDAT ?AfterFailedGuildHousePacket@CGuildHouseBase@@QAEXHAAUGuildHouse_Furniture_Info@1@H@Z
_TEXT	SEGMENT
_this$GSCopy$1$ = -196					; size = 4
_itemElem$3 = -192					; size = 176
__$ArrayPad$ = -16					; size = 4
__$EHRec$ = -12						; size = 12
_nPacketType$ = 8					; size = 4
_gfi$ = 12						; size = 4
_nIndex$ = 16						; size = 4
?AfterFailedGuildHousePacket@CGuildHouseBase@@QAEXHAAUGuildHouse_Furniture_Info@1@H@Z PROC ; CGuildHouseBase::AfterFailedGuildHousePacket, COMDAT
; _this$ = ecx

; 525  : {

  00000	55		 push	 ebp
  00001	8b ec		 mov	 ebp, esp
  00003	6a ff		 push	 -1
  00005	68 00 00 00 00	 push	 __ehhandler$?AfterFailedGuildHousePacket@CGuildHouseBase@@QAEXHAAUGuildHouse_Furniture_Info@1@H@Z
  0000a	64 a1 00 00 00
	00		 mov	 eax, DWORD PTR fs:0
  00010	50		 push	 eax
  00011	81 ec b8 00 00
	00		 sub	 esp, 184		; 000000b8H
  00017	a1 00 00 00 00	 mov	 eax, DWORD PTR ___security_cookie
  0001c	33 c5		 xor	 eax, ebp
  0001e	89 45 f0	 mov	 DWORD PTR __$ArrayPad$[ebp], eax
  00021	53		 push	 ebx
  00022	56		 push	 esi
  00023	57		 push	 edi
  00024	50		 push	 eax
  00025	8d 45 f4	 lea	 eax, DWORD PTR __$EHRec$[ebp]
  00028	64 a3 00 00 00
	00		 mov	 DWORD PTR fs:0, eax
  0002e	8b c1		 mov	 eax, ecx
  00030	89 85 3c ff ff
	ff		 mov	 DWORD PTR _this$GSCopy$1$[ebp], eax
; File C:\Program Files\Microsoft Visual Studio\2022\Professional\VC\Tools\MSVC\14.44.35207\include\xtree

; 1630 :         _Tree_find_result<_Nodeptr> _Result{{_Scary->_Myhead->_Parent, _Tree_child::_Right}, _Scary->_Myhead};

  00036	8b 35 28 00 00
	00		 mov	 esi, DWORD PTR ?prj@@3VCProject@@A+40
  0003c	8b ce		 mov	 ecx, esi
; File C:\IAGOS\server\v18\Source\Source\_Common\GuildHouse.cpp

; 526  : 	CUser* pUser = static_cast<CUser*>( prj.GetUserByID( GetWaitDBAckPlayerId() ) );

  0003e	8b 50 1c	 mov	 edx, DWORD PTR [eax+28]
  00041	8b 5d 0c	 mov	 ebx, DWORD PTR _gfi$[ebp]
; File C:\Program Files\Microsoft Visual Studio\2022\Professional\VC\Tools\MSVC\14.44.35207\include\xtree

; 1630 :         _Tree_find_result<_Nodeptr> _Result{{_Scary->_Myhead->_Parent, _Tree_child::_Right}, _Scary->_Myhead};

  00044	8b 46 04	 mov	 eax, DWORD PTR [esi+4]

; 1631 :         _Nodeptr _Trynode = _Result._Location._Parent;
; 1632 :         while (!_Trynode->_Isnil) {

  00047	80 78 0d 00	 cmp	 BYTE PTR [eax+13], 0
  0004b	75 17		 jne	 SHORT $LN21@AfterFaile
  0004d	0f 1f 00	 npad	 3
$LL20@AfterFaile:
; File C:\Program Files\Microsoft Visual Studio\2022\Professional\VC\Tools\MSVC\14.44.35207\include\type_traits

; 2380 :         return _Left < _Right;

  00050	39 50 10	 cmp	 DWORD PTR [eax+16], edx
; File C:\Program Files\Microsoft Visual Studio\2022\Professional\VC\Tools\MSVC\14.44.35207\include\xtree

; 1634 :             if (_DEBUG_LT_PRED(_Getcomp(), _Traits::_Kfn(_Trynode->_Myval), _Keyval)) {

  00053	73 05		 jae	 SHORT $LN22@AfterFaile

; 1635 :                 _Result._Location._Child = _Tree_child::_Right;
; 1636 :                 _Trynode                 = _Trynode->_Right;

  00055	8b 40 08	 mov	 eax, DWORD PTR [eax+8]

; 1637 :             } else {

  00058	eb 04		 jmp	 SHORT $LN23@AfterFaile
$LN22@AfterFaile:

; 1638 :                 _Result._Location._Child = _Tree_child::_Left;
; 1639 :                 _Result._Bound           = _Trynode;

  0005a	8b c8		 mov	 ecx, eax

; 1640 :                 _Trynode                 = _Trynode->_Left;

  0005c	8b 00		 mov	 eax, DWORD PTR [eax]
$LN23@AfterFaile:

; 1631 :         _Nodeptr _Trynode = _Result._Location._Parent;
; 1632 :         while (!_Trynode->_Isnil) {

  0005e	80 78 0d 00	 cmp	 BYTE PTR [eax+13], 0
  00062	74 ec		 je	 SHORT $LL20@AfterFaile
$LN21@AfterFaile:

; 1624 :         return !_Bound->_Isnil && !_DEBUG_LT_PRED(_Getcomp(), _Keyval, _Traits::_Kfn(_Bound->_Myval));

  00064	80 79 0d 00	 cmp	 BYTE PTR [ecx+13], 0
  00068	75 05		 jne	 SHORT $LN17@AfterFaile
; File C:\Program Files\Microsoft Visual Studio\2022\Professional\VC\Tools\MSVC\14.44.35207\include\type_traits

; 2380 :         return _Left < _Right;

  0006a	3b 51 10	 cmp	 edx, DWORD PTR [ecx+16]
; File C:\Program Files\Microsoft Visual Studio\2022\Professional\VC\Tools\MSVC\14.44.35207\include\xtree

; 1624 :         return !_Bound->_Isnil && !_DEBUG_LT_PRED(_Getcomp(), _Keyval, _Traits::_Kfn(_Bound->_Myval));

  0006d	73 02		 jae	 SHORT $LN16@AfterFaile
$LN17@AfterFaile:

; 1389 :         return _Get_scary()->_Myhead;

  0006f	8b ce		 mov	 ecx, esi
$LN16@AfterFaile:

; 37   :     _Tree_unchecked_const_iterator(_Nodeptr _Pnode, const _Mytree* _Plist) noexcept : _Ptr(_Pnode) {

  00071	3b ce		 cmp	 ecx, esi
; File C:\IAGOS\server\v18\Source\Source\_Common\Project.h

; 1436 : 	if( i != m_idPlayerToUserPtr.end() )

  00073	0f 84 00 01 00
	00		 je	 $LN81@AfterFaile

; 1437 : 		return i->second;

  00079	8b 79 14	 mov	 edi, DWORD PTR [ecx+20]
; File C:\IAGOS\server\v18\Source\Source\_Common\Obj.h

; 327  : 	return pObj && ( pObj->IsDelete() == FALSE ); 

  0007c	85 ff		 test	 edi, edi
  0007e	0f 84 f5 00 00
	00		 je	 $LN81@AfterFaile

; 180  : 	BOOL			IsDelete()	{ return (m_dwFlags & OBJ_FLAG_DELETE);  }

  00084	f6 47 04 01	 test	 BYTE PTR [edi+4], 1

; 327  : 	return pObj && ( pObj->IsDelete() == FALSE ); 

  00088	0f 85 eb 00 00
	00		 jne	 $LN81@AfterFaile
; File C:\IAGOS\server\v18\Source\Source\_Common\GuildHouse.cpp

; 533  : 	pUser->AddDefinedText( TID_GAME_GUILDHOUSE_LATER );

  0008e	68 b3 10 00 00	 push	 4275			; 000010b3H
  00093	8b cf		 mov	 ecx, edi
  00095	e8 00 00 00 00	 call	 ?AddDefinedText@CUser@@QAEXH@Z ; CUser::AddDefinedText

; 534  : 	switch( nPacketType )

  0009a	8b 45 08	 mov	 eax, DWORD PTR _nPacketType$[ebp]
  0009d	85 c0		 test	 eax, eax
  0009f	74 50		 je	 SHORT $LN5@AfterFaile
  000a1	83 f8 06	 cmp	 eax, 6
  000a4	0f 85 e2 00 00
	00		 jne	 $LN2@AfterFaile

; 546  : 			}
; 547  : 
; 548  : 		case GUILDHOUSE_PCKTTYPE_UPKEEP:
; 549  : 			{
; 550  : 				pUser->AddGold( gfi.dwItemId * GetUpkeepPenya() );

  000aa	8b 8d 3c ff ff
	ff		 mov	 ecx, DWORD PTR _this$GSCopy$1$[ebp]
  000b0	8b 33		 mov	 esi, DWORD PTR [ebx]
  000b2	6a 01		 push	 1
  000b4	8b 01		 mov	 eax, DWORD PTR [ecx]
  000b6	ff 50 0c	 call	 DWORD PTR [eax+12]
  000b9	0f af c6	 imul	 eax, esi
  000bc	8b cf		 mov	 ecx, edi
  000be	50		 push	 eax
  000bf	e8 00 00 00 00	 call	 ?AddGold@CMover@@QAEHHH@Z ; CMover::AddGold

; 551  : 				g_DPSrvr.PutPenyaLog( pUser, "f", "GUILDHOUSE_UPKEEP_REPAIR", (int)( gfi.dwItemId ) * GetUpkeepPenya() * ( -1 ) );		//sun : safecast

  000c4	8b 8d 3c ff ff
	ff		 mov	 ecx, DWORD PTR _this$GSCopy$1$[ebp]
  000ca	8b 33		 mov	 esi, DWORD PTR [ebx]
  000cc	8b 01		 mov	 eax, DWORD PTR [ecx]
  000ce	ff 50 0c	 call	 DWORD PTR [eax+12]
  000d1	0f af c6	 imul	 eax, esi
  000d4	b9 00 00 00 00	 mov	 ecx, OFFSET ?g_DPSrvr@@3VCDPSrvr@@A ; g_DPSrvr
  000d9	f7 d8		 neg	 eax
  000db	50		 push	 eax
  000dc	68 00 00 00 00	 push	 OFFSET ??_C@_0BJ@JBPCPGM@GUILDHOUSE_UPKEEP_REPAIR@
  000e1	68 00 00 00 00	 push	 OFFSET ??_C@_01INIBCBCB@f@
  000e6	57		 push	 edi
  000e7	e8 00 00 00 00	 call	 ?PutPenyaLog@CDPSrvr@@QAEXPAVCUser@@PBD1H@Z ; CDPSrvr::PutPenyaLog
  000ec	e9 9b 00 00 00	 jmp	 $LN2@AfterFaile
$LN5@AfterFaile:

; 535  : 	{
; 536  : 		case GUILDHOUSE_PCKTTYPE_LISTUP:
; 537  : 			{
; 538  : 				CItemElem itemElem;

  000f1	8d 8d 40 ff ff
	ff		 lea	 ecx, DWORD PTR _itemElem$3[ebp]
  000f7	e8 00 00 00 00	 call	 ??0CItemElem@@QAE@XZ	; CItemElem::CItemElem

; 539  : 				itemElem.m_dwItemId = gfi.dwItemId;

  000fc	8b 03		 mov	 eax, DWORD PTR [ebx]

; 540  : 				itemElem.m_nItemNum	= 1;
; 541  : 				if( pUser->CreateItem( &itemElem ) )

  000fe	8b cf		 mov	 ecx, edi
  00100	6a 00		 push	 0
  00102	89 85 4c ff ff
	ff		 mov	 DWORD PTR _itemElem$3[ebp+12], eax
  00108	b8 01 00 00 00	 mov	 eax, 1
  0010d	6a 00		 push	 0
  0010f	66 89 45 b4	 mov	 WORD PTR _itemElem$3[ebp+116], ax
  00113	8d 85 40 ff ff
	ff		 lea	 eax, DWORD PTR _itemElem$3[ebp]
  00119	6a 00		 push	 0
  0011b	50		 push	 eax
  0011c	c7 45 fc 00 00
	00 00		 mov	 DWORD PTR __$EHRec$[ebp+8], 0
  00123	e8 00 00 00 00	 call	 ?CreateItem@CMover@@QAEHPAVCItemBase@@PAEPAFE@Z ; CMover::CreateItem
  00128	85 c0		 test	 eax, eax
  0012a	74 2b		 je	 SHORT $LN6@AfterFaile

; 542  : 					g_DPSrvr.PutItemLog( pUser, "f", "GUILDHOUSE_LISTUP_REPAIR", &itemElem, 1 );

  0012c	6a 01		 push	 1
  0012e	8d 85 40 ff ff
	ff		 lea	 eax, DWORD PTR _itemElem$3[ebp]
  00134	b9 00 00 00 00	 mov	 ecx, OFFSET ?g_DPSrvr@@3VCDPSrvr@@A ; g_DPSrvr
  00139	50		 push	 eax
  0013a	68 00 00 00 00	 push	 OFFSET ??_C@_0BJ@LAKLEBJD@GUILDHOUSE_LISTUP_REPAIR@
  0013f	68 00 00 00 00	 push	 OFFSET ??_C@_01INIBCBCB@f@
  00144	57		 push	 edi
  00145	e8 00 00 00 00	 call	 ?PutItemLog@CDPSrvr@@QAEXPAVCUser@@PBD1PAVCItemElem@@H@Z ; CDPSrvr::PutItemLog

; 545  : 				break;

  0014a	8d 8d 40 ff ff
	ff		 lea	 ecx, DWORD PTR _itemElem$3[ebp]
  00150	e8 00 00 00 00	 call	 ??1CItemElem@@UAE@XZ	; CItemElem::~CItemElem
  00155	eb 35		 jmp	 SHORT $LN2@AfterFaile
$LN6@AfterFaile:

; 543  : 				else
; 544  : 					Error( "CGuildHouseBase::AfterFailedGuildHousePacket() : CreateItem Failed! [User:%d], [ItemId:%d]", pUser->m_idPlayer, gfi.dwItemId );

  00157	ff 33		 push	 DWORD PTR [ebx]
  00159	ff b7 34 02 00
	00		 push	 DWORD PTR [edi+564]
  0015f	68 00 00 00 00	 push	 OFFSET ??_C@_0FL@IBMHGFHG@CGuildHouseBase?3?3AfterFailedGui@
  00164	e8 00 00 00 00	 call	 ?Error@@YAPBDPBDZZ	; Error
  00169	83 c4 0c	 add	 esp, 12			; 0000000cH

; 545  : 				break;

  0016c	8d 8d 40 ff ff
	ff		 lea	 ecx, DWORD PTR _itemElem$3[ebp]
  00172	e8 00 00 00 00	 call	 ??1CItemElem@@UAE@XZ	; CItemElem::~CItemElem
  00177	eb 13		 jmp	 SHORT $LN2@AfterFaile
$LN81@AfterFaile:

; 527  : 	if( !IsValidObj( pUser ) )
; 528  : 	{
; 529  : 		Error( "CGuildHouseBase::AfterFailedGuildHousePacket() : Invalid User! [Packet:%d], [User:%d], [ItemId:%d]", nPacketType, GetWaitDBAckPlayerId(), gfi.dwItemId );

  00179	ff 33		 push	 DWORD PTR [ebx]
  0017b	52		 push	 edx
  0017c	ff 75 08	 push	 DWORD PTR _nPacketType$[ebp]
  0017f	68 00 00 00 00	 push	 OFFSET ??_C@_0GD@KMPHJFMB@CGuildHouseBase?3?3AfterFailedGui@
  00184	e8 00 00 00 00	 call	 ?Error@@YAPBDPBDZZ	; Error
  00189	83 c4 10	 add	 esp, 16			; 00000010H
$LN2@AfterFaile:

; 552  : 
; 553  : 				break;
; 554  : 			}
; 555  : 	}
; 556  : }

  0018c	8b 4d f4	 mov	 ecx, DWORD PTR __$EHRec$[ebp]
  0018f	64 89 0d 00 00
	00 00		 mov	 DWORD PTR fs:0, ecx
  00196	59		 pop	 ecx
  00197	5f		 pop	 edi
  00198	5e		 pop	 esi
  00199	5b		 pop	 ebx
  0019a	8b 4d f0	 mov	 ecx, DWORD PTR __$ArrayPad$[ebp]
  0019d	33 cd		 xor	 ecx, ebp
  0019f	e8 00 00 00 00	 call	 @__security_check_cookie@4
  001a4	8b e5		 mov	 esp, ebp
  001a6	5d		 pop	 ebp
  001a7	c2 0c 00	 ret	 12			; 0000000cH
_TEXT	ENDS
;	COMDAT text$x
text$x	SEGMENT
__unwindfunclet$?AfterFailedGuildHousePacket@CGuildHouseBase@@QAEXHAAUGuildHouse_Furniture_Info@1@H@Z$0:
  00000	8d 8d 40 ff ff
	ff		 lea	 ecx, DWORD PTR _itemElem$3[ebp]
  00006	e9 00 00 00 00	 jmp	 ??1CItemElem@@UAE@XZ	; CItemElem::~CItemElem
  0000b	cc		 int	 3
  0000c	cc		 int	 3
  0000d	cc		 int	 3
  0000e	cc		 int	 3
  0000f	cc		 int	 3
__ehhandler$?AfterFailedGuildHousePacket@CGuildHouseBase@@QAEXHAAUGuildHouse_Furniture_Info@1@H@Z:
  00010	90		 npad	 1
  00011	90		 npad	 1
  00012	8b 54 24 08	 mov	 edx, DWORD PTR [esp+8]
  00016	8d 42 0c	 lea	 eax, DWORD PTR [edx+12]
  00019	8b 8a 38 ff ff
	ff		 mov	 ecx, DWORD PTR [edx-200]
  0001f	33 c8		 xor	 ecx, eax
  00021	e8 00 00 00 00	 call	 @__security_check_cookie@4
  00026	8b 4a fc	 mov	 ecx, DWORD PTR [edx-4]
  00029	33 c8		 xor	 ecx, eax
  0002b	e8 00 00 00 00	 call	 @__security_check_cookie@4
  00030	b8 00 00 00 00	 mov	 eax, OFFSET __ehfuncinfo$?AfterFailedGuildHousePacket@CGuildHouseBase@@QAEXHAAUGuildHouse_Furniture_Info@1@H@Z
  00035	e9 00 00 00 00	 jmp	 ___CxxFrameHandler3
text$x	ENDS
?AfterFailedGuildHousePacket@CGuildHouseBase@@QAEXHAAUGuildHouse_Furniture_Info@1@H@Z ENDP ; CGuildHouseBase::AfterFailedGuildHousePacket
; Function compile flags: /Ogtp
; File C:\IAGOS\server\v18\Source\Source\_Common\GuildHouse.cpp
; File C:\Program Files\Microsoft Visual Studio\2022\Professional\VC\Tools\MSVC\14.44.35207\include\vector
; File C:\IAGOS\server\v18\Source\Source\_Common\GuildHouse.cpp
; File C:\Program Files\Microsoft Visual Studio\2022\Professional\VC\Tools\MSVC\14.44.35207\include\vector
; File C:\IAGOS\server\v18\Source\Source\_Common\GuildHouse.cpp
; File C:\Program Files\Microsoft Visual Studio\2022\Professional\VC\Tools\MSVC\14.44.35207\include\vector
; File C:\IAGOS\server\v18\Source\Source\_Common\GuildHouse.cpp
; File C:\Program Files\Microsoft Visual Studio\2022\Professional\VC\Tools\MSVC\14.44.35207\include\vector
; File C:\IAGOS\server\v18\Source\Source\_Common\GuildHouse.cpp
;	COMDAT ?ExpiredGuildHouse@CGuildHouseBase@@QAEHXZ
_TEXT	SEGMENT
?ExpiredGuildHouse@CGuildHouseBase@@QAEHXZ PROC		; CGuildHouseBase::ExpiredGuildHouse, COMDAT
; _this$ = ecx

; 955  : {

  00000	53		 push	 ebx
  00001	56		 push	 esi
  00002	8b f1		 mov	 esi, ecx

; 956  : 	for( int i=0; i<(int)( m_vecFntInfo.size() ); i++ )

  00004	33 db		 xor	 ebx, ebx
; File C:\Program Files\Microsoft Visual Studio\2022\Professional\VC\Tools\MSVC\14.44.35207\include\vector

; 1915 :         return static_cast<size_type>(_My_data._Mylast - _My_data._Myfirst);

  00006	8b 46 10	 mov	 eax, DWORD PTR [esi+16]
  00009	8b 4e 0c	 mov	 ecx, DWORD PTR [esi+12]
  0000c	2b c1		 sub	 eax, ecx
; File C:\IAGOS\server\v18\Source\Source\_Common\GuildHouse.cpp

; 956  : 	for( int i=0; i<(int)( m_vecFntInfo.size() ); i++ )

  0000e	a9 e0 ff ff ff	 test	 eax, -32		; ffffffe0H
  00013	7e 48		 jle	 SHORT $LN3@ExpiredGui
  00015	57		 push	 edi
  00016	33 ff		 xor	 edi, edi
  00018	0f 1f 84 00 00
	00 00 00	 npad	 8
$LL4@ExpiredGui:

; 957  : 	{
; 958  : 		if( m_vecFntInfo[i].bSetup )

  00020	83 7c 0f 04 00	 cmp	 DWORD PTR [edi+ecx+4], 0
  00025	8d 04 0f	 lea	 eax, DWORD PTR [edi+ecx]
  00028	74 1f		 je	 SHORT $LN2@ExpiredGui

; 959  : 		{
; 960  : 			RemoveFurnitureCtrl( i, m_vecFntInfo[i] );

  0002a	50		 push	 eax
  0002b	53		 push	 ebx
  0002c	8b ce		 mov	 ecx, esi
  0002e	e8 00 00 00 00	 call	 ?RemoveFurnitureCtrl@CGuildHouseBase@@AAEHHAAUGuildHouse_Furniture_Info@1@@Z ; CGuildHouseBase::RemoveFurnitureCtrl

; 961  : 			m_vecFntInfo[i].bSetup = FALSE;

  00033	8b 46 0c	 mov	 eax, DWORD PTR [esi+12]
  00036	c7 44 07 04 00
	00 00 00	 mov	 DWORD PTR [edi+eax+4], 0

; 962  : 			m_vecFntInfo[i].objId = NULL_ID;

  0003e	8b 46 0c	 mov	 eax, DWORD PTR [esi+12]
  00041	c7 44 07 18 ff
	ff ff ff	 mov	 DWORD PTR [edi+eax+24], -1
$LN2@ExpiredGui:
; File C:\Program Files\Microsoft Visual Studio\2022\Professional\VC\Tools\MSVC\14.44.35207\include\vector

; 1915 :         return static_cast<size_type>(_My_data._Mylast - _My_data._Myfirst);

  00049	8b 46 10	 mov	 eax, DWORD PTR [esi+16]
; File C:\IAGOS\server\v18\Source\Source\_Common\GuildHouse.cpp

; 956  : 	for( int i=0; i<(int)( m_vecFntInfo.size() ); i++ )

  0004c	43		 inc	 ebx
; File C:\Program Files\Microsoft Visual Studio\2022\Professional\VC\Tools\MSVC\14.44.35207\include\vector

; 1915 :         return static_cast<size_type>(_My_data._Mylast - _My_data._Myfirst);

  0004d	8b 4e 0c	 mov	 ecx, DWORD PTR [esi+12]
; File C:\IAGOS\server\v18\Source\Source\_Common\GuildHouse.cpp

; 956  : 	for( int i=0; i<(int)( m_vecFntInfo.size() ); i++ )

  00050	83 c7 20	 add	 edi, 32			; 00000020H
; File C:\Program Files\Microsoft Visual Studio\2022\Professional\VC\Tools\MSVC\14.44.35207\include\vector

; 1915 :         return static_cast<size_type>(_My_data._Mylast - _My_data._Myfirst);

  00053	2b c1		 sub	 eax, ecx
  00055	c1 f8 05	 sar	 eax, 5
; File C:\IAGOS\server\v18\Source\Source\_Common\GuildHouse.cpp

; 956  : 	for( int i=0; i<(int)( m_vecFntInfo.size() ); i++ )

  00058	3b d8		 cmp	 ebx, eax
  0005a	7c c4		 jl	 SHORT $LL4@ExpiredGui
  0005c	5f		 pop	 edi
$LN3@ExpiredGui:

; 963  : 		}
; 964  : 	}
; 965  : 	m_tUpkeepTime = 0;
; 966  : #ifdef __WORLDSERVER
; 967  : 	DestroyGuildHouseRoom();

  0005d	8b ce		 mov	 ecx, esi
  0005f	c7 46 18 00 00
	00 00		 mov	 DWORD PTR [esi+24], 0
  00066	e8 00 00 00 00	 call	 ?DestroyGuildHouseRoom@CGuildHouseBase@@AAEHXZ ; CGuildHouseBase::DestroyGuildHouseRoom

; 968  : #endif // __WORLDSERVER
; 969  : 	return TRUE;

  0006b	5e		 pop	 esi
  0006c	b8 01 00 00 00	 mov	 eax, 1
  00071	5b		 pop	 ebx

; 970  : }

  00072	c3		 ret	 0
?ExpiredGuildHouse@CGuildHouseBase@@QAEHXZ ENDP		; CGuildHouseBase::ExpiredGuildHouse
_TEXT	ENDS
; Function compile flags: /Ogtp
; File C:\IAGOS\server\v18\Source\Source\_Common\GuildHouse.cpp
; File C:\IAGOS\server\v18\Source\Source\_Network\Misc\Include\ar.h
; File C:\IAGOS\server\v18\Source\Source\_Common\GuildHouse.cpp
; File C:\IAGOS\server\v18\Source\Source\_Network\Misc\Include\ar.h
; File C:\IAGOS\server\v18\Source\Source\_Common\GuildHouse.cpp
; File C:\IAGOS\server\v18\Source\Source\_Network\Misc\Include\ar.h
; File C:\IAGOS\server\v18\Source\Source\_Common\GuildHouse.cpp
; File C:\Program Files\Microsoft Visual Studio\2022\Professional\VC\Tools\MSVC\14.44.35207\include\vector
; File C:\IAGOS\server\v18\Source\Source\_Common\GuildHouse.cpp
; File C:\Program Files\Microsoft Visual Studio\2022\Professional\VC\Tools\MSVC\14.44.35207\include\vector
; File C:\IAGOS\server\v18\Source\Source\_Common\GuildHouse.cpp
; File C:\Program Files\Microsoft Visual Studio\2022\Professional\VC\Tools\MSVC\14.44.35207\include\vector
; File C:\IAGOS\server\v18\Source\Source\_Common\GuildHouse.cpp
; File C:\Program Files\Microsoft Visual Studio\2022\Professional\VC\Tools\MSVC\14.44.35207\include\vector
; File C:\IAGOS\server\v18\Source\Source\_Common\GuildHouse.cpp
; File C:\Program Files\Microsoft Visual Studio\2022\Professional\VC\Tools\MSVC\14.44.35207\include\vector
; File C:\IAGOS\server\v18\Source\Source\_Common\GuildHouse.cpp
; File C:\Program Files\Microsoft Visual Studio\2022\Professional\VC\Tools\MSVC\14.44.35207\include\vector
; File C:\IAGOS\server\v18\Source\Source\_Common\GuildHouse.cpp
; File C:\Program Files\Microsoft Visual Studio\2022\Professional\VC\Tools\MSVC\14.44.35207\include\vector
; File C:\IAGOS\server\v18\Source\Source\_Common\GuildHouse.cpp
; File C:\Program Files\Microsoft Visual Studio\2022\Professional\VC\Tools\MSVC\14.44.35207\include\vector
; File C:\IAGOS\server\v18\Source\Source\_Common\GuildHouse.cpp
; File C:\Program Files\Microsoft Visual Studio\2022\Professional\VC\Tools\MSVC\14.44.35207\include\vector
; File C:\IAGOS\server\v18\Source\Source\_Common\GuildHouse.cpp
; File C:\Program Files\Microsoft Visual Studio\2022\Professional\VC\Tools\MSVC\14.44.35207\include\vector
; File C:\Program Files\Microsoft Visual Studio\2022\Professional\VC\Tools\MSVC\14.44.35207\include\xmemory
; File C:\Program Files\Microsoft Visual Studio\2022\Professional\VC\Tools\MSVC\14.44.35207\include\vector
; File C:\Program Files\Microsoft Visual Studio\2022\Professional\VC\Tools\MSVC\14.44.35207\include\xmemory
; File C:\Program Files\Microsoft Visual Studio\2022\Professional\VC\Tools\MSVC\14.44.35207\include\vector
; File C:\Program Files\Microsoft Visual Studio\2022\Professional\VC\Tools\MSVC\14.44.35207\include\xmemory
; File C:\Program Files\Microsoft Visual Studio\2022\Professional\VC\Tools\MSVC\14.44.35207\include\vector
; File C:\IAGOS\server\v18\Source\Source\_Common\GuildHouse.cpp
; File C:\Program Files\Microsoft Visual Studio\2022\Professional\VC\Tools\MSVC\14.44.35207\include\vector
; File C:\IAGOS\server\v18\Source\Source\_Common\GuildHouse.cpp
; File C:\Program Files\Microsoft Visual Studio\2022\Professional\VC\Tools\MSVC\14.44.35207\include\vector
; File C:\IAGOS\server\v18\Source\Source\_Common\GuildHouse.cpp
; File C:\Program Files\Microsoft Visual Studio\2022\Professional\VC\Tools\MSVC\14.44.35207\include\vector
; File C:\Program Files\Microsoft Visual Studio\2022\Professional\VC\Tools\MSVC\14.44.35207\include\xmemory
; File C:\IAGOS\server\v18\Source\Source\_Common\GuildHouse.cpp
;	COMDAT ?SerializeAllInfo@CGuildHouseBase@@QAEXAAVCAr@@@Z
_TEXT	SEGMENT
_this$1$ = -12						; size = 4
__Oldsize$1$ = -8					; size = 4
_nSize$1 = -4						; size = 4
$T2 = -4						; size = 4
_ar$ = 8						; size = 4
$T3 = 8							; size = 4
$T4 = 8							; size = 4
$T5 = 8							; size = 4
_i$1$ = 8						; size = 4
tv766 = 8						; size = 4
$T6 = 8							; size = 4
$T7 = 8							; size = 4
?SerializeAllInfo@CGuildHouseBase@@QAEXAAVCAr@@@Z PROC	; CGuildHouseBase::SerializeAllInfo, COMDAT
; _this$ = ecx

; 719  : {

  00000	55		 push	 ebp
  00001	8b ec		 mov	 ebp, esp
  00003	83 ec 0c	 sub	 esp, 12			; 0000000cH
  00006	53		 push	 ebx
; File C:\IAGOS\server\v18\Source\Source\_Network\Misc\Include\ar.h

; 146  : 	return (m_nMode & CAr::load) == 0;

  00007	8b 5d 08	 mov	 ebx, DWORD PTR _ar$[ebp]
; File C:\IAGOS\server\v18\Source\Source\_Common\GuildHouse.cpp

; 719  : {

  0000a	56		 push	 esi
  0000b	8b f1		 mov	 esi, ecx
  0000d	57		 push	 edi
; File C:\IAGOS\server\v18\Source\Source\_Network\Misc\Include\ar.h

; 146  : 	return (m_nMode & CAr::load) == 0;

  0000e	f6 03 01	 test	 BYTE PTR [ebx], 1
; File C:\IAGOS\server\v18\Source\Source\_Common\GuildHouse.cpp

; 719  : {

  00011	89 75 f4	 mov	 DWORD PTR _this$1$[ebp], esi
; File C:\IAGOS\server\v18\Source\Source\_Network\Misc\Include\ar.h

; 146  : 	return (m_nMode & CAr::load) == 0;

  00014	8d 7e 18	 lea	 edi, DWORD PTR [esi+24]
  00017	8d 46 08	 lea	 eax, DWORD PTR [esi+8]
  0001a	8d 4e 04	 lea	 ecx, DWORD PTR [esi+4]
; File C:\IAGOS\server\v18\Source\Source\_Common\GuildHouse.cpp

; 720  : 	if( ar.IsStoring() )

  0001d	0f 85 98 00 00
	00		 jne	 $LN8@SerializeA

; 721  : 	{
; 722  : 		ar << m_dwGuildId << m_dwWorldId;

  00023	50		 push	 eax
  00024	51		 push	 ecx
  00025	8b cb		 mov	 ecx, ebx
  00027	e8 00 00 00 00	 call	 ??$?6K@CAr@@QAEAAV0@ABK@Z ; CAr::operator<<<unsigned long>
  0002c	8b c8		 mov	 ecx, eax
  0002e	e8 00 00 00 00	 call	 ??$?6K@CAr@@QAEAAV0@ABK@Z ; CAr::operator<<<unsigned long>

; 723  : 		if( m_tUpkeepTime > 0 )

  00033	8b 07		 mov	 eax, DWORD PTR [edi]
  00035	8b cb		 mov	 ecx, ebx
  00037	85 c0		 test	 eax, eax
  00039	7e 0b		 jle	 SHORT $LN10@SerializeA

; 724  : 			ar << m_tUpkeepTime - time_null();

  0003b	2b 05 00 00 00
	00		 sub	 eax, DWORD PTR ?g_tCurrent@@3JA ; g_tCurrent
  00041	89 45 08	 mov	 DWORD PTR $T3[ebp], eax
  00044	eb 07		 jmp	 SHORT $LN123@SerializeA
$LN10@SerializeA:

; 725  : 		else
; 726  : 			ar << static_cast<time_t>( 0 );

  00046	c7 45 08 00 00
	00 00		 mov	 DWORD PTR $T4[ebp], 0
$LN123@SerializeA:
; File C:\Program Files\Microsoft Visual Studio\2022\Professional\VC\Tools\MSVC\14.44.35207\include\vector

; 1915 :         return static_cast<size_type>(_My_data._Mylast - _My_data._Myfirst);

  0004d	8d 45 08	 lea	 eax, DWORD PTR $T4[ebp]
  00050	50		 push	 eax
  00051	e8 00 00 00 00	 call	 ??$?6J@CAr@@QAEAAV0@ABJ@Z ; CAr::operator<<<long>
  00056	8b 46 10	 mov	 eax, DWORD PTR [esi+16]
; File C:\IAGOS\server\v18\Source\Source\_Common\GuildHouse.cpp

; 731  : 		ar << m_vecFntInfo.size();

  00059	8b cb		 mov	 ecx, ebx
; File C:\Program Files\Microsoft Visual Studio\2022\Professional\VC\Tools\MSVC\14.44.35207\include\vector

; 1915 :         return static_cast<size_type>(_My_data._Mylast - _My_data._Myfirst);

  0005b	2b 46 0c	 sub	 eax, DWORD PTR [esi+12]
  0005e	c1 f8 05	 sar	 eax, 5
; File C:\IAGOS\server\v18\Source\Source\_Common\GuildHouse.cpp

; 731  : 		ar << m_vecFntInfo.size();

  00061	89 45 08	 mov	 DWORD PTR $T5[ebp], eax
  00064	8d 45 08	 lea	 eax, DWORD PTR $T5[ebp]
  00067	50		 push	 eax
  00068	e8 00 00 00 00	 call	 ??$?6I@CAr@@QAEAAV0@ABI@Z ; CAr::operator<<<unsigned int>
; File C:\Program Files\Microsoft Visual Studio\2022\Professional\VC\Tools\MSVC\14.44.35207\include\vector

; 1915 :         return static_cast<size_type>(_My_data._Mylast - _My_data._Myfirst);

  0006d	8b 46 10	 mov	 eax, DWORD PTR [esi+16]
  00070	8b 56 0c	 mov	 edx, DWORD PTR [esi+12]
  00073	2b c2		 sub	 eax, edx
; File C:\IAGOS\server\v18\Source\Source\_Common\GuildHouse.cpp

; 732  : 		for( int i=0; i<(int)( m_vecFntInfo.size() ); i++ )

  00075	c7 45 08 00 00
	00 00		 mov	 DWORD PTR _i$1$[ebp], 0
  0007c	a9 e0 ff ff ff	 test	 eax, -32		; ffffffe0H
  00081	0f 8e 8f 01 00
	00		 jle	 $LN6@SerializeA
; File C:\Program Files\Microsoft Visual Studio\2022\Professional\VC\Tools\MSVC\14.44.35207\include\vector

; 1914 :         auto& _My_data = _Mypair._Myval2;

  00087	33 ff		 xor	 edi, edi
  00089	0f 1f 80 00 00
	00 00		 npad	 7
$LL4@SerializeA:
; File C:\IAGOS\server\v18\Source\Source\_Common\GuildHouse.cpp

; 733  : 			m_vecFntInfo[i].Serialize( ar );

  00090	53		 push	 ebx
; File C:\Program Files\Microsoft Visual Studio\2022\Professional\VC\Tools\MSVC\14.44.35207\include\vector

; 1934 :         return _My_data._Myfirst[_Pos];

  00091	8d 0c 17	 lea	 ecx, DWORD PTR [edi+edx]
; File C:\IAGOS\server\v18\Source\Source\_Common\GuildHouse.cpp

; 733  : 			m_vecFntInfo[i].Serialize( ar );

  00094	e8 00 00 00 00	 call	 ?Serialize@GuildHouse_Furniture_Info@CGuildHouseBase@@QAEXAAVCAr@@@Z ; CGuildHouseBase::GuildHouse_Furniture_Info::Serialize
; File C:\Program Files\Microsoft Visual Studio\2022\Professional\VC\Tools\MSVC\14.44.35207\include\vector

; 1915 :         return static_cast<size_type>(_My_data._Mylast - _My_data._Myfirst);

  00099	8b 46 10	 mov	 eax, DWORD PTR [esi+16]
; File C:\IAGOS\server\v18\Source\Source\_Common\GuildHouse.cpp

; 732  : 		for( int i=0; i<(int)( m_vecFntInfo.size() ); i++ )

  0009c	8d 7f 20	 lea	 edi, DWORD PTR [edi+32]
  0009f	8b 4d 08	 mov	 ecx, DWORD PTR _i$1$[ebp]
; File C:\Program Files\Microsoft Visual Studio\2022\Professional\VC\Tools\MSVC\14.44.35207\include\vector

; 1915 :         return static_cast<size_type>(_My_data._Mylast - _My_data._Myfirst);

  000a2	8b 56 0c	 mov	 edx, DWORD PTR [esi+12]
; File C:\IAGOS\server\v18\Source\Source\_Common\GuildHouse.cpp

; 732  : 		for( int i=0; i<(int)( m_vecFntInfo.size() ); i++ )

  000a5	41		 inc	 ecx
; File C:\Program Files\Microsoft Visual Studio\2022\Professional\VC\Tools\MSVC\14.44.35207\include\vector

; 1915 :         return static_cast<size_type>(_My_data._Mylast - _My_data._Myfirst);

  000a6	2b c2		 sub	 eax, edx
; File C:\IAGOS\server\v18\Source\Source\_Common\GuildHouse.cpp

; 732  : 		for( int i=0; i<(int)( m_vecFntInfo.size() ); i++ )

  000a8	89 4d 08	 mov	 DWORD PTR _i$1$[ebp], ecx
; File C:\Program Files\Microsoft Visual Studio\2022\Professional\VC\Tools\MSVC\14.44.35207\include\vector

; 1915 :         return static_cast<size_type>(_My_data._Mylast - _My_data._Myfirst);

  000ab	c1 f8 05	 sar	 eax, 5
; File C:\IAGOS\server\v18\Source\Source\_Common\GuildHouse.cpp

; 732  : 		for( int i=0; i<(int)( m_vecFntInfo.size() ); i++ )

  000ae	3b c8		 cmp	 ecx, eax
  000b0	7c de		 jl	 SHORT $LL4@SerializeA

; 750  : }

  000b2	5f		 pop	 edi
  000b3	5e		 pop	 esi
  000b4	5b		 pop	 ebx
  000b5	8b e5		 mov	 esp, ebp
  000b7	5d		 pop	 ebp
  000b8	c2 04 00	 ret	 4
$LN8@SerializeA:

; 734  : 	}
; 735  : 	else
; 736  : 	{
; 737  : 		ar >> m_dwGuildId >> m_dwWorldId >> m_tUpkeepTime;

  000bb	57		 push	 edi
  000bc	50		 push	 eax
  000bd	51		 push	 ecx
  000be	8b cb		 mov	 ecx, ebx
  000c0	e8 00 00 00 00	 call	 ??$?5K@CAr@@QAEAAV0@AAK@Z ; CAr::operator>><unsigned long>
  000c5	8b c8		 mov	 ecx, eax
  000c7	e8 00 00 00 00	 call	 ??$?5K@CAr@@QAEAAV0@AAK@Z ; CAr::operator>><unsigned long>
  000cc	8b c8		 mov	 ecx, eax
  000ce	e8 00 00 00 00	 call	 ??$?5J@CAr@@QAEAAV0@AAJ@Z ; CAr::operator>><long>

; 738  : 		if( m_tUpkeepTime > 0 )

  000d3	8b 0f		 mov	 ecx, DWORD PTR [edi]
  000d5	85 c9		 test	 ecx, ecx
  000d7	7e 09		 jle	 SHORT $LN12@SerializeA

; 739  : 			m_tUpkeepTime += time_null();

  000d9	a1 00 00 00 00	 mov	 eax, DWORD PTR ?g_tCurrent@@3JA ; g_tCurrent
  000de	03 c1		 add	 eax, ecx
  000e0	89 07		 mov	 DWORD PTR [edi], eax
$LN12@SerializeA:

; 740  : #ifdef __GUILD_HOUSE_MIDDLE
; 741  : 		ar >> m_objGHId >> m_nAreaIndex >> m_nGHLevel;
; 742  : 		ar.ReadString( m_szGHName, MAX_GH_NAME );
; 743  : #endif // __GUILD_HOUSE_MIDDLE
; 744  : 		int nSize;
; 745  : 		ar >> nSize;

  000e2	8d 45 fc	 lea	 eax, DWORD PTR _nSize$1[ebp]
  000e5	8b cb		 mov	 ecx, ebx
  000e7	50		 push	 eax
  000e8	e8 00 00 00 00	 call	 ??$?5H@CAr@@QAEAAV0@AAH@Z ; CAr::operator>><int>
; File C:\Program Files\Microsoft Visual Studio\2022\Professional\VC\Tools\MSVC\14.44.35207\include\vector

; 1812 :         if (_Myfirst == _Mylast) { // already empty, nothing to do

  000ed	8b 46 10	 mov	 eax, DWORD PTR [esi+16]
  000f0	8d 7e 0c	 lea	 edi, DWORD PTR [esi+12]
  000f3	8b 0f		 mov	 ecx, DWORD PTR [edi]
  000f5	89 45 08	 mov	 DWORD PTR $T6[ebp], eax
  000f8	3b c8		 cmp	 ecx, eax
  000fa	74 08		 je	 SHORT $LN25@SerializeA

; 1813 :             // This is an optimization for debug mode: we can avoid taking the debug lock to invalidate iterators.
; 1814 :             // Note that when clearing an empty vector, this will preserve past-the-end iterators, which is allowed by
; 1815 :             // N4950 [sequence.reqmts]/54 "a.clear() [...] may invalidate the past-the-end iterator".
; 1816 :             return;
; 1817 :         }
; 1818 : 
; 1819 :         _My_data._Orphan_all();
; 1820 :         _Destroy_range(_Myfirst, _Mylast, _Getal());
; 1821 :         _ASAN_VECTOR_MODIFY(static_cast<difference_type>(_Myfirst - _Mylast)); // negative when destroying elements
; 1822 :         _Mylast = _Myfirst;

  000fc	89 4f 04	 mov	 DWORD PTR [edi+4], ecx
  000ff	8b c1		 mov	 eax, ecx
  00101	89 4d 08	 mov	 DWORD PTR $T6[ebp], ecx
$LN25@SerializeA:

; 1596 :         if (_Newsize < _Oldsize) { // trim

  00104	8b 75 fc	 mov	 esi, DWORD PTR _nSize$1[ebp]
  00107	8b d1		 mov	 edx, ecx
  00109	8b c8		 mov	 ecx, eax
  0010b	2b ca		 sub	 ecx, edx
  0010d	c1 f9 05	 sar	 ecx, 5
  00110	89 4d f8	 mov	 DWORD PTR __Oldsize$1$[ebp], ecx
  00113	3b f1		 cmp	 esi, ecx
  00115	73 0c		 jae	 SHORT $LN32@SerializeA

; 1597 :             const pointer _Newlast = _Myfirst + _Newsize;

  00117	8b c6		 mov	 eax, esi
  00119	c1 e0 05	 shl	 eax, 5
  0011c	03 c2		 add	 eax, edx

; 1598 :             _Orphan_range(_Newlast, _Mylast);
; 1599 :             _Destroy_range(_Newlast, _Mylast, _Al);
; 1600 :             _ASAN_VECTOR_MODIFY(static_cast<difference_type>(_Newsize - _Oldsize));
; 1601 :             _Mylast = _Newlast;
; 1602 :             return;

  0011e	e9 d2 00 00 00	 jmp	 $LN124@SerializeA
$LN32@SerializeA:

; 1603 :         }
; 1604 : 
; 1605 :         if (_Newsize > _Oldsize) { // append

  00123	0f 86 cf 00 00
	00		 jbe	 $LN33@SerializeA

; 1606 :             const auto _Oldcapacity = static_cast<size_type>(_My_data._Myend - _Myfirst);

  00129	8b 57 08	 mov	 edx, DWORD PTR [edi+8]
  0012c	2b 17		 sub	 edx, DWORD PTR [edi]
  0012e	c1 fa 05	 sar	 edx, 5

; 1607 :             if (_Newsize > _Oldcapacity) { // reallocate

  00131	3b f2		 cmp	 esi, edx
  00133	0f 86 ab 00 00
	00		 jbe	 $LN34@SerializeA

; 1553 :         if (_Newsize > max_size()) {

  00139	81 fe ff ff ff
	07		 cmp	 esi, 134217727		; 07ffffffH
  0013f	0f 87 da 00 00
	00		 ja	 $LN127@SerializeA

; 2011 :         if (_Oldcapacity > _Max - _Oldcapacity / 2) {

  00145	8b c2		 mov	 eax, edx
  00147	d1 e8		 shr	 eax, 1
  00149	89 45 08	 mov	 DWORD PTR tv766[ebp], eax
  0014c	b8 ff ff ff 07	 mov	 eax, 134217727		; 07ffffffH
  00151	2b 45 08	 sub	 eax, DWORD PTR tv766[ebp]
  00154	3b d0		 cmp	 edx, eax
  00156	76 14		 jbe	 SHORT $LN41@SerializeA

; 2012 :             return _Max; // geometric growth would overflow

  00158	b8 e0 ff ff ff	 mov	 eax, -32		; ffffffe0H
  0015d	c7 45 fc ff ff
	ff 07		 mov	 DWORD PTR $T2[ebp], 134217727 ; 07ffffffH
; File C:\Program Files\Microsoft Visual Studio\2022\Professional\VC\Tools\MSVC\14.44.35207\include\xmemory

; 253  :             return _Allocate_manually_vector_aligned<_Traits>(_Bytes);

  00164	50		 push	 eax
  00165	e8 00 00 00 00	 call	 ??$_Allocate_manually_vector_aligned@U_Default_allocate_traits@std@@@std@@YAPAXI@Z ; std::_Allocate_manually_vector_aligned<std::_Default_allocate_traits>
  0016a	eb 3d		 jmp	 SHORT $LN125@SerializeA
$LN41@SerializeA:
; File C:\Program Files\Microsoft Visual Studio\2022\Professional\VC\Tools\MSVC\14.44.35207\include\vector

; 2015 :         const size_type _Geometric = _Oldcapacity + _Oldcapacity / 2;

  0016c	03 55 08	 add	 edx, DWORD PTR tv766[ebp]

; 2016 : 
; 2017 :         if (_Geometric < _Newsize) {

  0016f	3b d6		 cmp	 edx, esi
  00171	0f 42 d6	 cmovb	 edx, esi
  00174	89 55 fc	 mov	 DWORD PTR $T2[ebp], edx
; File C:\Program Files\Microsoft Visual Studio\2022\Professional\VC\Tools\MSVC\14.44.35207\include\xmemory

; 117  :         if (_Count > _Max_possible) {

  00177	81 fa ff ff ff
	07		 cmp	 edx, 134217727		; 07ffffffH
  0017d	0f 87 a1 00 00
	00		 ja	 $LN128@SerializeA

; 119  :         }
; 120  :     }
; 121  : 
; 122  :     return _Count * _Ty_size;

  00183	8b c2		 mov	 eax, edx
  00185	c1 e0 05	 shl	 eax, 5

; 227  :     if (_Bytes == 0) {

  00188	85 c0		 test	 eax, eax
  0018a	75 08		 jne	 SHORT $LN56@SerializeA

; 228  :         return nullptr;

  0018c	89 45 08	 mov	 DWORD PTR $T7[ebp], eax
  0018f	89 55 fc	 mov	 DWORD PTR $T2[ebp], edx
  00192	eb 1e		 jmp	 SHORT $LN55@SerializeA
$LN56@SerializeA:

; 229  :     }
; 230  : 
; 231  : #if _HAS_CXX20 // TRANSITION, GH-1532
; 232  :     if (_STD is_constant_evaluated()) {
; 233  :         return _Traits::_Allocate(_Bytes);
; 234  :     }
; 235  : #endif // _HAS_CXX20
; 236  : 
; 237  : #ifdef __cpp_aligned_new
; 238  :     if constexpr (_Align > __STDCPP_DEFAULT_NEW_ALIGNMENT__) {
; 239  :         size_t _Passed_align = _Align;
; 240  : #if defined(_M_IX86) || defined(_M_X64)
; 241  :         if (_Bytes >= _Big_allocation_threshold) {
; 242  :             // boost the alignment of big allocations to help autovectorization
; 243  :             _Passed_align = (_STD max)(_Align, _Big_allocation_alignment);
; 244  :         }
; 245  : #endif // defined(_M_IX86) || defined(_M_X64)
; 246  :         return _Traits::_Allocate_aligned(_Bytes, _Passed_align);
; 247  :     } else
; 248  : #endif // defined(__cpp_aligned_new)
; 249  :     {
; 250  : #if defined(_M_IX86) || defined(_M_X64)
; 251  :         if (_Bytes >= _Big_allocation_threshold) {

  00194	3d 00 10 00 00	 cmp	 eax, 4096		; 00001000H
  00199	72 08		 jb	 SHORT $LN57@SerializeA

; 253  :             return _Allocate_manually_vector_aligned<_Traits>(_Bytes);

  0019b	50		 push	 eax
  0019c	e8 00 00 00 00	 call	 ??$_Allocate_manually_vector_aligned@U_Default_allocate_traits@std@@@std@@YAPAXI@Z ; std::_Allocate_manually_vector_aligned<std::_Default_allocate_traits>
  001a1	eb 06		 jmp	 SHORT $LN125@SerializeA
$LN57@SerializeA:

; 136  :         return ::operator new(_Bytes);

  001a3	50		 push	 eax
  001a4	e8 00 00 00 00	 call	 ??2@YAPAXI@Z		; operator new
$LN125@SerializeA:
; File C:\Program Files\Microsoft Visual Studio\2022\Professional\VC\Tools\MSVC\14.44.35207\include\vector

; 1575 :             _Appended_last = _Uninitialized_value_construct_n(_Appended_first, _Newsize - _Oldsize, _Al);

  001a9	8b 4d f8	 mov	 ecx, DWORD PTR __Oldsize$1$[ebp]
  001ac	83 c4 04	 add	 esp, 4
  001af	89 45 08	 mov	 DWORD PTR $T7[ebp], eax
$LN55@SerializeA:
  001b2	8b c6		 mov	 eax, esi
  001b4	2b c1		 sub	 eax, ecx
  001b6	c1 e1 05	 shl	 ecx, 5
  001b9	03 4d 08	 add	 ecx, DWORD PTR $T7[ebp]
  001bc	57		 push	 edi
  001bd	50		 push	 eax
  001be	51		 push	 ecx
  001bf	e8 00 00 00 00	 call	 ??$_Uninitialized_value_construct_n@V?$allocator@UGuildHouse_Furniture_Info@CGuildHouseBase@@@std@@@std@@YAPAUGuildHouse_Furniture_Info@CGuildHouseBase@@PAU12@IAAV?$allocator@UGuildHouse_Furniture_Info@CGuildHouseBase@@@0@@Z ; std::_Uninitialized_value_construct_n<std::allocator<CGuildHouseBase::GuildHouse_Furniture_Info> >
; File C:\Program Files\Microsoft Visual Studio\2022\Professional\VC\Tools\MSVC\14.44.35207\include\xmemory

; 1992 :             _STD _Copy_memmove(_UFirst, _ULast, _STD _Unfancy(_Dest));

  001c4	ff 75 08	 push	 DWORD PTR $T7[ebp]
  001c7	ff 77 04	 push	 DWORD PTR [edi+4]
  001ca	ff 37		 push	 DWORD PTR [edi]
  001cc	e8 00 00 00 00	 call	 ??$_Copy_memmove@PAUGuildHouse_Furniture_Info@CGuildHouseBase@@PAU12@@std@@YAPAUGuildHouse_Furniture_Info@CGuildHouseBase@@PAU12@00@Z ; std::_Copy_memmove<CGuildHouseBase::GuildHouse_Furniture_Info *,CGuildHouseBase::GuildHouse_Furniture_Info *>
  001d1	83 c4 18	 add	 esp, 24			; 00000018H
; File C:\Program Files\Microsoft Visual Studio\2022\Professional\VC\Tools\MSVC\14.44.35207\include\vector

; 1585 :         _Change_array(_Newvec, _Newsize, _Newcapacity);

  001d4	8b cf		 mov	 ecx, edi
  001d6	ff 75 fc	 push	 DWORD PTR $T2[ebp]
  001d9	56		 push	 esi
  001da	ff 75 08	 push	 DWORD PTR $T7[ebp]
  001dd	e8 00 00 00 00	 call	 ?_Change_array@?$vector@UGuildHouse_Furniture_Info@CGuildHouseBase@@V?$allocator@UGuildHouse_Furniture_Info@CGuildHouseBase@@@std@@@std@@AAEXQAUGuildHouse_Furniture_Info@CGuildHouseBase@@II@Z ; std::vector<CGuildHouseBase::GuildHouse_Furniture_Info,std::allocator<CGuildHouseBase::GuildHouse_Furniture_Info> >::_Change_array

; 1609 :                 return;

  001e2	eb 14		 jmp	 SHORT $LN33@SerializeA
$LN34@SerializeA:

; 1610 :             }
; 1611 : 
; 1612 :             _ASAN_VECTOR_EXTEND_GUARD(_Newsize);
; 1613 :             const pointer _Oldlast = _Mylast;
; 1614 :             if constexpr (is_same_v<_Ty2, _Ty>) {
; 1615 :                 _Mylast = _Uninitialized_fill_n(_Oldlast, _Newsize - _Oldsize, _Val, _Al);
; 1616 :             } else {
; 1617 :                 _STL_INTERNAL_STATIC_ASSERT(is_same_v<_Ty2, _Value_init_tag>);
; 1618 :                 _Mylast = _Uninitialized_value_construct_n(_Oldlast, _Newsize - _Oldsize, _Al);

  001e4	8b c6		 mov	 eax, esi
  001e6	57		 push	 edi
  001e7	2b c1		 sub	 eax, ecx
  001e9	50		 push	 eax
  001ea	ff 75 08	 push	 DWORD PTR $T6[ebp]
  001ed	e8 00 00 00 00	 call	 ??$_Uninitialized_value_construct_n@V?$allocator@UGuildHouse_Furniture_Info@CGuildHouseBase@@@std@@@std@@YAPAUGuildHouse_Furniture_Info@CGuildHouseBase@@PAU12@IAAV?$allocator@UGuildHouse_Furniture_Info@CGuildHouseBase@@@0@@Z ; std::_Uninitialized_value_construct_n<std::allocator<CGuildHouseBase::GuildHouse_Furniture_Info> >
  001f2	83 c4 0c	 add	 esp, 12			; 0000000cH
$LN124@SerializeA:
; File C:\IAGOS\server\v18\Source\Source\_Common\GuildHouse.cpp

; 747  : 		for( int i=0; i<nSize; i++ )

  001f5	89 47 04	 mov	 DWORD PTR [edi+4], eax
$LN33@SerializeA:
  001f8	85 f6		 test	 esi, esi
  001fa	7e 1a		 jle	 SHORT $LN6@SerializeA
  001fc	33 ff		 xor	 edi, edi
  001fe	66 90		 npad	 2
$LL7@SerializeA:
; File C:\Program Files\Microsoft Visual Studio\2022\Professional\VC\Tools\MSVC\14.44.35207\include\vector

; 1934 :         return _My_data._Myfirst[_Pos];

  00200	8b 45 f4	 mov	 eax, DWORD PTR _this$1$[ebp]
; File C:\IAGOS\server\v18\Source\Source\_Common\GuildHouse.cpp

; 748  : 			m_vecFntInfo[i].Serialize( ar );

  00203	53		 push	 ebx
; File C:\Program Files\Microsoft Visual Studio\2022\Professional\VC\Tools\MSVC\14.44.35207\include\vector

; 1934 :         return _My_data._Myfirst[_Pos];

  00204	8b 48 0c	 mov	 ecx, DWORD PTR [eax+12]
  00207	03 cf		 add	 ecx, edi
; File C:\IAGOS\server\v18\Source\Source\_Common\GuildHouse.cpp

; 748  : 			m_vecFntInfo[i].Serialize( ar );

  00209	e8 00 00 00 00	 call	 ?Serialize@GuildHouse_Furniture_Info@CGuildHouseBase@@QAEXAAVCAr@@@Z ; CGuildHouseBase::GuildHouse_Furniture_Info::Serialize
  0020e	83 c7 20	 add	 edi, 32			; 00000020H
  00211	83 ee 01	 sub	 esi, 1
  00214	75 ea		 jne	 SHORT $LL7@SerializeA
$LN6@SerializeA:
  00216	5f		 pop	 edi

; 750  : }

  00217	5e		 pop	 esi
  00218	5b		 pop	 ebx
  00219	8b e5		 mov	 esp, ebp
  0021b	5d		 pop	 ebp
  0021c	c2 04 00	 ret	 4
$LN127@SerializeA:
; File C:\Program Files\Microsoft Visual Studio\2022\Professional\VC\Tools\MSVC\14.44.35207\include\vector

; 1554 :             _Xlength();

  0021f	e8 00 00 00 00	 call	 ?_Xlength@?$vector@UGuildHouse_Furniture_Info@CGuildHouseBase@@V?$allocator@UGuildHouse_Furniture_Info@CGuildHouseBase@@@std@@@std@@CAXXZ ; std::vector<CGuildHouseBase::GuildHouse_Furniture_Info,std::allocator<CGuildHouseBase::GuildHouse_Furniture_Info> >::_Xlength
$LN128@SerializeA:
; File C:\Program Files\Microsoft Visual Studio\2022\Professional\VC\Tools\MSVC\14.44.35207\include\xmemory

; 118  :             _Throw_bad_array_new_length(); // multiply overflow

  00224	e8 00 00 00 00	 call	 ?_Throw_bad_array_new_length@std@@YAXXZ ; std::_Throw_bad_array_new_length
$LN122@SerializeA:
  00229	cc		 int	 3
?SerializeAllInfo@CGuildHouseBase@@QAEXAAVCAr@@@Z ENDP	; CGuildHouseBase::SerializeAllInfo
_TEXT	ENDS
; Function compile flags: /Ogtp
; File C:\IAGOS\server\v18\Source\Source\_Common\GuildHouse.cpp
;	COMDAT ?OnGuildHousePacket@CGuildHouseBase@@QAEHHAAUGuildHouse_Furniture_Info@1@H@Z
_TEXT	SEGMENT
_nPacketType$ = 8					; size = 4
_gfi$ = 12						; size = 4
_nIndex$ = 16						; size = 4
?OnGuildHousePacket@CGuildHouseBase@@QAEHHAAUGuildHouse_Furniture_Info@1@H@Z PROC ; CGuildHouseBase::OnGuildHousePacket, COMDAT
; _this$ = ecx

; 753  : {

  00000	55		 push	 ebp
  00001	8b ec		 mov	 ebp, esp

; 754  : 	switch( nPacketType )

  00003	8b 45 08	 mov	 eax, DWORD PTR _nPacketType$[ebp]
  00006	56		 push	 esi
  00007	57		 push	 edi
  00008	8b f9		 mov	 edi, ecx
  0000a	83 f8 07	 cmp	 eax, 7
  0000d	0f 87 ae 00 00
	00		 ja	 $LN2@OnGuildHou
  00013	ff 24 85 00 00
	00 00		 jmp	 DWORD PTR $LN12@OnGuildHou[eax*4]
$LN4@OnGuildHou:

; 755  : 	{
; 756  : 		case GUILDHOUSE_PCKTTYPE_LISTUP:
; 757  : 			return ListUpFurniture( gfi );

  0001a	ff 75 0c	 push	 DWORD PTR _gfi$[ebp]
  0001d	e8 00 00 00 00	 call	 ?ListUpFurniture@CGuildHouseBase@@AAEHAAUGuildHouse_Furniture_Info@1@@Z ; CGuildHouseBase::ListUpFurniture
  00022	5f		 pop	 edi

; 827  : }

  00023	5e		 pop	 esi
  00024	5d		 pop	 ebp
  00025	c2 0c 00	 ret	 12			; 0000000cH
$LN5@OnGuildHou:

; 758  : 
; 759  : 		case GUILDHOUSE_PCKTTYPE_LISTDROP:
; 760  : 			return ListDropFurniture( nIndex );

  00028	ff 75 10	 push	 DWORD PTR _nIndex$[ebp]
  0002b	e8 00 00 00 00	 call	 ?ListDropFurniture@CGuildHouseBase@@AAEHH@Z ; CGuildHouseBase::ListDropFurniture
  00030	5f		 pop	 edi

; 827  : }

  00031	5e		 pop	 esi
  00032	5d		 pop	 ebp
  00033	c2 0c 00	 ret	 12			; 0000000cH
$LN6@OnGuildHou:

; 761  : 
; 762  : 		case GUILDHOUSE_PCKTTYPE_SETUP:
; 763  : #ifdef __CLIENT
; 764  : 			{
; 765  : 				ItemProp* pProp = prj.GetItemProp( gfi.dwItemId );
; 766  : 				if( pProp )
; 767  : 				{
; 768  : 					CString str;
; 769  : 					str.Format( GETTEXT( TID_GAME_GUILDHOUSE_FUR_INSTALL_SUCCESS ), pProp->szName );		//ĽłÄˇĽş°ř 
; 770  : 					g_WndMng.PutString( str, NULL, prj.GetTextColor( TID_GAME_GUILDHOUSE_FUR_INSTALL_SUCCESS ) );
; 771  : 				}
; 772  : 			}
; 773  : 
; 774  : #endif // __CLIENT
; 775  : #ifdef __WORLDSERVER
; 776  : 			g_dpDBClient.SendLogGuildFurniture( m_dwGuildId, gfi, 'S' );

  00036	8b 75 0c	 mov	 esi, DWORD PTR _gfi$[ebp]
  00039	b9 00 00 00 00	 mov	 ecx, OFFSET ?g_dpDBClient@@3VCDPDatabaseClient@@A ; g_dpDBClient
  0003e	6a 53		 push	 83			; 00000053H
  00040	56		 push	 esi
  00041	ff 77 04	 push	 DWORD PTR [edi+4]
  00044	e8 00 00 00 00	 call	 ?SendLogGuildFurniture@CDPDatabaseClient@@QAEXKAAUGuildHouse_Furniture_Info@CGuildHouseBase@@D@Z ; CDPDatabaseClient::SendLogGuildFurniture

; 777  : #endif // __WORLDSERVER
; 778  : 			return SetupFurnitureCtrl( nIndex, gfi );

  00049	56		 push	 esi
  0004a	ff 75 10	 push	 DWORD PTR _nIndex$[ebp]
  0004d	8b cf		 mov	 ecx, edi
  0004f	e8 00 00 00 00	 call	 ?SetupFurnitureCtrl@CGuildHouseBase@@AAEHHAAUGuildHouse_Furniture_Info@1@@Z ; CGuildHouseBase::SetupFurnitureCtrl
  00054	5f		 pop	 edi

; 827  : }

  00055	5e		 pop	 esi
  00056	5d		 pop	 ebp
  00057	c2 0c 00	 ret	 12			; 0000000cH
$LN7@OnGuildHou:

; 779  : 
; 780  : 		case GUILDHOUSE_PCKTTYPE_REMOVE:
; 781  : #ifdef __CLIENT
; 782  : 			{
; 783  : 				ItemProp* pProp = prj.GetItemProp( gfi.dwItemId );
; 784  : 				if( pProp )
; 785  : 				{
; 786  : 					CString str;
; 787  : 					str.Format( GETTEXT( TID_GAME_GUILDHOUSE_FUR_DISMANTLE_SUCCESS ), pProp->szName );	//ÇŘĂĽ Ľş°ř  
; 788  : 					g_WndMng.PutString( str, NULL, prj.GetTextColor( TID_GAME_GUILDHOUSE_FUR_DISMANTLE_SUCCESS ) );
; 789  : 				}
; 790  : 			}
; 791  : #endif // __CLIENT
; 792  : #ifdef __WORLDSERVER
; 793  : 			g_dpDBClient.SendLogGuildFurniture( m_dwGuildId, gfi, 'R' );

  0005a	8b 75 0c	 mov	 esi, DWORD PTR _gfi$[ebp]
  0005d	b9 00 00 00 00	 mov	 ecx, OFFSET ?g_dpDBClient@@3VCDPDatabaseClient@@A ; g_dpDBClient
  00062	6a 52		 push	 82			; 00000052H
  00064	56		 push	 esi
  00065	ff 77 04	 push	 DWORD PTR [edi+4]
  00068	e8 00 00 00 00	 call	 ?SendLogGuildFurniture@CDPDatabaseClient@@QAEXKAAUGuildHouse_Furniture_Info@CGuildHouseBase@@D@Z ; CDPDatabaseClient::SendLogGuildFurniture

; 794  : #endif // __WORLDSERVER
; 795  : 			return RemoveFurnitureCtrl( nIndex, gfi );

  0006d	56		 push	 esi
  0006e	ff 75 10	 push	 DWORD PTR _nIndex$[ebp]
  00071	8b cf		 mov	 ecx, edi
  00073	e8 00 00 00 00	 call	 ?RemoveFurnitureCtrl@CGuildHouseBase@@AAEHHAAUGuildHouse_Furniture_Info@1@@Z ; CGuildHouseBase::RemoveFurnitureCtrl
  00078	5f		 pop	 edi

; 827  : }

  00079	5e		 pop	 esi
  0007a	5d		 pop	 ebp
  0007b	c2 0c 00	 ret	 12			; 0000000cH
$LN8@OnGuildHou:

; 796  : 
; 797  : 		case GUILDHOUSE_PCKTTYPE_RESET:
; 798  : #ifdef __CLIENT
; 799  : 			{
; 800  : 				ItemProp* pProp = prj.GetItemProp( gfi.dwItemId );
; 801  : 				if( pProp )
; 802  : 				{
; 803  : 					CString str;
; 804  : 					str.Format( GETTEXT( TID_GAME_GUILDHOUSE_FUR_REINSTALL_SUCCESS ), pProp->szName );	//ŔçĽłÄˇ Ľş°ř 
; 805  : 					g_WndMng.PutString( str, NULL, prj.GetTextColor( TID_GAME_GUILDHOUSE_FUR_REINSTALL_SUCCESS ) );
; 806  : 				}
; 807  : 			}
; 808  : #endif
; 809  : #ifdef __WORLDSERVER
; 810  : 			g_dpDBClient.SendLogGuildFurniture( m_dwGuildId, gfi, 'C' );

  0007e	8b 75 0c	 mov	 esi, DWORD PTR _gfi$[ebp]
  00081	b9 00 00 00 00	 mov	 ecx, OFFSET ?g_dpDBClient@@3VCDPDatabaseClient@@A ; g_dpDBClient
  00086	6a 43		 push	 67			; 00000043H
  00088	56		 push	 esi
  00089	ff 77 04	 push	 DWORD PTR [edi+4]
  0008c	e8 00 00 00 00	 call	 ?SendLogGuildFurniture@CDPDatabaseClient@@QAEXKAAUGuildHouse_Furniture_Info@CGuildHouseBase@@D@Z ; CDPDatabaseClient::SendLogGuildFurniture

; 811  : #endif // __WORLDSERVER
; 812  : 			return ResetFurnitureCtrl( nIndex, gfi );

  00091	56		 push	 esi
  00092	ff 75 10	 push	 DWORD PTR _nIndex$[ebp]
  00095	8b cf		 mov	 ecx, edi
  00097	e8 00 00 00 00	 call	 ?ResetFurnitureCtrl@CGuildHouseBase@@AAEHHAAUGuildHouse_Furniture_Info@1@@Z ; CGuildHouseBase::ResetFurnitureCtrl
  0009c	5f		 pop	 edi

; 827  : }

  0009d	5e		 pop	 esi
  0009e	5d		 pop	 ebp
  0009f	c2 0c 00	 ret	 12			; 0000000cH
$LN9@OnGuildHou:

; 813  : #ifdef __CLIENT
; 814  : 		case GUILDHOUSE_PCKTTYPE_REFRESH:
; 815  : 			return SetupFurnitureCtrl( nIndex, gfi );
; 816  : #endif // __CLIENT
; 817  : 		
; 818  : 		case GUILDHOUSE_PCKTTYPE_UPKEEP:
; 819  : 			SetUpkeeptime( gfi.tKeepTime );

  000a2	8b 45 0c	 mov	 eax, DWORD PTR _gfi$[ebp]
  000a5	8b 40 1c	 mov	 eax, DWORD PTR [eax+28]
  000a8	89 47 18	 mov	 DWORD PTR [edi+24], eax

; 820  : 			return TRUE;

  000ab	b8 01 00 00 00	 mov	 eax, 1
  000b0	5f		 pop	 edi

; 827  : }

  000b1	5e		 pop	 esi
  000b2	5d		 pop	 ebp
  000b3	c2 0c 00	 ret	 12			; 0000000cH
$LN10@OnGuildHou:

; 821  : 
; 822  : 		case GUILDHOUSE_PCKTTYPE_EXPIRED:
; 823  : 			return ExpiredGuildHouse();

  000b6	e8 00 00 00 00	 call	 ?ExpiredGuildHouse@CGuildHouseBase@@QAEHXZ ; CGuildHouseBase::ExpiredGuildHouse
  000bb	5f		 pop	 edi

; 827  : }

  000bc	5e		 pop	 esi
  000bd	5d		 pop	 ebp
  000be	c2 0c 00	 ret	 12			; 0000000cH
$LN2@OnGuildHou:
  000c1	5f		 pop	 edi

; 824  : 	}
; 825  : 
; 826  : 	return FALSE;

  000c2	33 c0		 xor	 eax, eax

; 827  : }

  000c4	5e		 pop	 esi
  000c5	5d		 pop	 ebp
  000c6	c2 0c 00	 ret	 12			; 0000000cH
  000c9	0f 1f 00	 npad	 3
$LN12@OnGuildHou:
  000cc	00 00 00 00	 DD	 $LN4@OnGuildHou
  000d0	00 00 00 00	 DD	 $LN5@OnGuildHou
  000d4	00 00 00 00	 DD	 $LN6@OnGuildHou
  000d8	00 00 00 00	 DD	 $LN7@OnGuildHou
  000dc	00 00 00 00	 DD	 $LN8@OnGuildHou
  000e0	00 00 00 00	 DD	 $LN2@OnGuildHou
  000e4	00 00 00 00	 DD	 $LN9@OnGuildHou
  000e8	00 00 00 00	 DD	 $LN10@OnGuildHou
?OnGuildHousePacket@CGuildHouseBase@@QAEHHAAUGuildHouse_Furniture_Info@1@H@Z ENDP ; CGuildHouseBase::OnGuildHousePacket
_TEXT	ENDS
; Function compile flags: /Ogtp
; File C:\IAGOS\server\v18\Source\Source\_Common\GuildHouse.cpp
; File C:\Program Files\Microsoft Visual Studio\2022\Professional\VC\Tools\MSVC\14.44.35207\include\vector
; File C:\IAGOS\server\v18\Source\Source\_Common\GuildHouse.cpp
; File C:\Program Files\Microsoft Visual Studio\2022\Professional\VC\Tools\MSVC\14.44.35207\include\vector
; File C:\IAGOS\server\v18\Source\Source\_Common\GuildHouse.cpp
; File C:\Program Files\Microsoft Visual Studio\2022\Professional\VC\Tools\MSVC\14.44.35207\include\vector
; File C:\IAGOS\server\v18\Source\Source\_Common\GuildHouse.cpp
; File C:\IAGOS\server\v18\Source\Source\_Common\Project.h
; File C:\IAGOS\server\v18\Source\Source\_Common\data.h
; File C:\IAGOS\server\v18\Source\Source\_Common\Project.h
; File C:\IAGOS\server\v18\Source\Source\_Common\GuildHouse.cpp
; File C:\Program Files\Microsoft Visual Studio\2022\Professional\VC\Tools\MSVC\14.44.35207\include\vector
; File C:\IAGOS\server\v18\Source\Source\_Common\GuildHouse.cpp
; File C:\Program Files\Microsoft Visual Studio\2022\Professional\VC\Tools\MSVC\14.44.35207\include\vector
; File C:\IAGOS\server\v18\Source\Source\_Common\GuildHouse.cpp
; File C:\Program Files\Microsoft Visual Studio\2022\Professional\VC\Tools\MSVC\14.44.35207\include\vector
; File C:\IAGOS\server\v18\Source\Source\_Common\GuildHouse.cpp
; File C:\Program Files\Microsoft Visual Studio\2022\Professional\VC\Tools\MSVC\14.44.35207\include\vector
; File C:\IAGOS\server\v18\Source\Source\_Common\GuildHouse.cpp
;	COMDAT ?Clear@CGuildHouseBase@@QAEXXZ
_TEXT	SEGMENT
?Clear@CGuildHouseBase@@QAEXXZ PROC			; CGuildHouseBase::Clear, COMDAT
; _this$ = ecx

; 99   : {

  00000	53		 push	 ebx
  00001	56		 push	 esi
  00002	8b f1		 mov	 esi, ecx

; 100  : #ifdef __WORLDSERVER
; 101  : 	DestroyGuildHouseRoom();

  00004	e8 00 00 00 00	 call	 ?DestroyGuildHouseRoom@CGuildHouseBase@@AAEHXZ ; CGuildHouseBase::DestroyGuildHouseRoom
; File C:\Program Files\Microsoft Visual Studio\2022\Professional\VC\Tools\MSVC\14.44.35207\include\vector

; 1915 :         return static_cast<size_type>(_My_data._Mylast - _My_data._Myfirst);

  00009	8b 56 10	 mov	 edx, DWORD PTR [esi+16]
; File C:\IAGOS\server\v18\Source\Source\_Common\GuildHouse.cpp

; 102  : 	for( int i=0; i<(int)( m_vecFntInfo.size() ); i++ )

  0000c	33 db		 xor	 ebx, ebx
; File C:\Program Files\Microsoft Visual Studio\2022\Professional\VC\Tools\MSVC\14.44.35207\include\vector

; 1915 :         return static_cast<size_type>(_My_data._Mylast - _My_data._Myfirst);

  0000e	8b 4e 0c	 mov	 ecx, DWORD PTR [esi+12]
  00011	8b c2		 mov	 eax, edx
  00013	2b c1		 sub	 eax, ecx
; File C:\IAGOS\server\v18\Source\Source\_Common\GuildHouse.cpp

; 102  : 	for( int i=0; i<(int)( m_vecFntInfo.size() ); i++ )

  00015	a9 e0 ff ff ff	 test	 eax, -32		; ffffffe0H
  0001a	7e 5f		 jle	 SHORT $LN3@Clear
  0001c	57		 push	 edi
; File C:\Program Files\Microsoft Visual Studio\2022\Professional\VC\Tools\MSVC\14.44.35207\include\vector

; 1914 :         auto& _My_data = _Mypair._Myval2;

  0001d	33 ff		 xor	 edi, edi
  0001f	90		 npad	 1
$LL4@Clear:
; File C:\IAGOS\server\v18\Source\Source\_Common\GuildHouse.cpp

; 104  : 		if( m_vecFntInfo[i].bSetup )

  00020	83 7c 0f 04 00	 cmp	 DWORD PTR [edi+ecx+4], 0
  00025	74 3e		 je	 SHORT $LN2@Clear

; 105  : 			ResetDSTFunriture( prj.GetItemProp( m_vecFntInfo[i].dwItemId ) );

  00027	8b 04 0f	 mov	 eax, DWORD PTR [edi+ecx]
; File C:\IAGOS\server\v18\Source\Source\_Common\Project.h

; 1389 : 	VERIFY_RANGE_ASSERT( nIndex, 0, m_aPropItem.GetSize(), "GetItemProp range_error", NULL );

  0002a	8b 0d 40 02 00
	00		 mov	 ecx, DWORD PTR ?prj@@3VCProject@@A+576
  00030	85 c0		 test	 eax, eax
  00032	78 11		 js	 SHORT $LN21@Clear
  00034	3b c1		 cmp	 eax, ecx
  00036	7d 0d		 jge	 SHORT $LN21@Clear
; File C:\IAGOS\server\v18\Source\Source\_Common\data.h

; 270  : 	if( dwIndex >= (DWORD)m_nMaxIndex )

  00038	73 21		 jae	 SHORT $LN42@Clear

; 271  : 		return NULL;
; 272  : 	return (T*) m_apOffset[ dwIndex ];

  0003a	8b 0d 30 02 00
	00		 mov	 ecx, DWORD PTR ?prj@@3VCProject@@A+560
  00040	8b 04 81	 mov	 eax, DWORD PTR [ecx+eax*4]
; File C:\IAGOS\server\v18\Source\Source\_Common\Project.h

; 1390 : 	return m_aPropItem.GetAt( nIndex ); 

  00043	eb 18		 jmp	 SHORT $LN16@Clear
$LN21@Clear:

; 579  : 	LPCTSTR szErr = Error( _T( "%s min:%d, max:%d, index:%d" ), szMsg, nMin, nMax, nIndex ); 

  00045	50		 push	 eax
  00046	51		 push	 ecx
  00047	6a 00		 push	 0
  00049	68 00 00 00 00	 push	 OFFSET ??_C@_0BI@BEIFNGEL@GetItemProp?5range_error@
  0004e	68 00 00 00 00	 push	 OFFSET ??_C@_0BM@HMFGHCP@?$CFs?5min?3?$CFd?0?5max?3?$CFd?0?5index?3?$CFd@
  00053	e8 00 00 00 00	 call	 ?Error@@YAPBDPBDZZ	; Error
  00058	83 c4 14	 add	 esp, 20			; 00000014H
$LN42@Clear:
; File C:\IAGOS\server\v18\Source\Source\_Common\GuildHouse.cpp

; 105  : 			ResetDSTFunriture( prj.GetItemProp( m_vecFntInfo[i].dwItemId ) );

  0005b	33 c0		 xor	 eax, eax
$LN16@Clear:
  0005d	50		 push	 eax
  0005e	8b ce		 mov	 ecx, esi
  00060	e8 00 00 00 00	 call	 ?ResetDSTFunriture@CGuildHouseBase@@AAEXPAUItemProp@@@Z ; CGuildHouseBase::ResetDSTFunriture
$LN2@Clear:
; File C:\Program Files\Microsoft Visual Studio\2022\Professional\VC\Tools\MSVC\14.44.35207\include\vector

; 1915 :         return static_cast<size_type>(_My_data._Mylast - _My_data._Myfirst);

  00065	8b 56 10	 mov	 edx, DWORD PTR [esi+16]
; File C:\IAGOS\server\v18\Source\Source\_Common\GuildHouse.cpp

; 102  : 	for( int i=0; i<(int)( m_vecFntInfo.size() ); i++ )

  00068	43		 inc	 ebx
; File C:\Program Files\Microsoft Visual Studio\2022\Professional\VC\Tools\MSVC\14.44.35207\include\vector

; 1915 :         return static_cast<size_type>(_My_data._Mylast - _My_data._Myfirst);

  00069	8b 4e 0c	 mov	 ecx, DWORD PTR [esi+12]
  0006c	8b c2		 mov	 eax, edx
  0006e	2b c1		 sub	 eax, ecx
; File C:\IAGOS\server\v18\Source\Source\_Common\GuildHouse.cpp

; 102  : 	for( int i=0; i<(int)( m_vecFntInfo.size() ); i++ )

  00070	83 c7 20	 add	 edi, 32			; 00000020H
; File C:\Program Files\Microsoft Visual Studio\2022\Professional\VC\Tools\MSVC\14.44.35207\include\vector

; 1915 :         return static_cast<size_type>(_My_data._Mylast - _My_data._Myfirst);

  00073	c1 f8 05	 sar	 eax, 5
; File C:\IAGOS\server\v18\Source\Source\_Common\GuildHouse.cpp

; 102  : 	for( int i=0; i<(int)( m_vecFntInfo.size() ); i++ )

  00076	3b d8		 cmp	 ebx, eax
  00078	7c a6		 jl	 SHORT $LL4@Clear
  0007a	5f		 pop	 edi
$LN3@Clear:
; File C:\Program Files\Microsoft Visual Studio\2022\Professional\VC\Tools\MSVC\14.44.35207\include\vector

; 1812 :         if (_Myfirst == _Mylast) { // already empty, nothing to do

  0007b	3b ca		 cmp	 ecx, edx
  0007d	74 03		 je	 SHORT $LN28@Clear

; 1813 :             // This is an optimization for debug mode: we can avoid taking the debug lock to invalidate iterators.
; 1814 :             // Note that when clearing an empty vector, this will preserve past-the-end iterators, which is allowed by
; 1815 :             // N4950 [sequence.reqmts]/54 "a.clear() [...] may invalidate the past-the-end iterator".
; 1816 :             return;
; 1817 :         }
; 1818 : 
; 1819 :         _My_data._Orphan_all();
; 1820 :         _Destroy_range(_Myfirst, _Mylast, _Getal());
; 1821 :         _ASAN_VECTOR_MODIFY(static_cast<difference_type>(_Myfirst - _Mylast)); // negative when destroying elements
; 1822 :         _Mylast = _Myfirst;

  0007f	89 4e 10	 mov	 DWORD PTR [esi+16], ecx
$LN28@Clear:
  00082	5e		 pop	 esi
; File C:\IAGOS\server\v18\Source\Source\_Common\GuildHouse.cpp

; 109  : }

  00083	5b		 pop	 ebx
  00084	c3		 ret	 0
?Clear@CGuildHouseBase@@QAEXXZ ENDP			; CGuildHouseBase::Clear
_TEXT	ENDS
; Function compile flags: /Ogtp
; File C:\IAGOS\server\v18\Source\Source\_Common\GuildHouse.cpp
;	COMDAT ??1CGuildHouseBase@@UAE@XZ
_TEXT	SEGMENT
__$EHRec$ = -12						; size = 12
??1CGuildHouseBase@@UAE@XZ PROC				; CGuildHouseBase::~CGuildHouseBase, COMDAT
; _this$ = ecx

; 94   : {

  00000	55		 push	 ebp
  00001	8b ec		 mov	 ebp, esp
  00003	6a ff		 push	 -1
  00005	68 00 00 00 00	 push	 __ehhandler$??1CGuildHouseBase@@UAE@XZ
  0000a	64 a1 00 00 00
	00		 mov	 eax, DWORD PTR fs:0
  00010	50		 push	 eax
  00011	56		 push	 esi
  00012	a1 00 00 00 00	 mov	 eax, DWORD PTR ___security_cookie
  00017	33 c5		 xor	 eax, ebp
  00019	50		 push	 eax
  0001a	8d 45 f4	 lea	 eax, DWORD PTR __$EHRec$[ebp]
  0001d	64 a3 00 00 00
	00		 mov	 DWORD PTR fs:0, eax
  00023	8b f1		 mov	 esi, ecx
  00025	c7 06 00 00 00
	00		 mov	 DWORD PTR [esi], OFFSET ??_7CGuildHouseBase@@6B@

; 95   : 	Clear();

  0002b	e8 00 00 00 00	 call	 ?Clear@CGuildHouseBase@@QAEXXZ ; CGuildHouseBase::Clear

; 96   : }

  00030	8d 4e 0c	 lea	 ecx, DWORD PTR [esi+12]
  00033	e8 00 00 00 00	 call	 ??1?$vector@UGuildHouse_Furniture_Info@CGuildHouseBase@@V?$allocator@UGuildHouse_Furniture_Info@CGuildHouseBase@@@std@@@std@@QAE@XZ ; std::vector<CGuildHouseBase::GuildHouse_Furniture_Info,std::allocator<CGuildHouseBase::GuildHouse_Furniture_Info> >::~vector<CGuildHouseBase::GuildHouse_Furniture_Info,std::allocator<CGuildHouseBase::GuildHouse_Furniture_Info> >
  00038	8b 4d f4	 mov	 ecx, DWORD PTR __$EHRec$[ebp]
  0003b	64 89 0d 00 00
	00 00		 mov	 DWORD PTR fs:0, ecx
  00042	59		 pop	 ecx
  00043	5e		 pop	 esi
  00044	8b e5		 mov	 esp, ebp
  00046	5d		 pop	 ebp
  00047	c3		 ret	 0
  00048	cc		 int	 3
  00049	cc		 int	 3
  0004a	cc		 int	 3
  0004b	cc		 int	 3
  0004c	cc		 int	 3
_TEXT	ENDS
;	COMDAT text$x
text$x	SEGMENT
__ehhandler$??1CGuildHouseBase@@UAE@XZ:
  00000	90		 npad	 1
  00001	90		 npad	 1
  00002	8b 54 24 08	 mov	 edx, DWORD PTR [esp+8]
  00006	8d 42 0c	 lea	 eax, DWORD PTR [edx+12]
  00009	8b 4a f8	 mov	 ecx, DWORD PTR [edx-8]
  0000c	33 c8		 xor	 ecx, eax
  0000e	e8 00 00 00 00	 call	 @__security_check_cookie@4
  00013	b8 00 00 00 00	 mov	 eax, OFFSET __ehfuncinfo$??1CGuildHouseBase@@UAE@XZ
  00018	e9 00 00 00 00	 jmp	 ___CxxFrameHandler3
text$x	ENDS
??1CGuildHouseBase@@UAE@XZ ENDP				; CGuildHouseBase::~CGuildHouseBase
; Function compile flags: /Ogtp
; File C:\IAGOS\server\v18\Source\Source\_Common\GuildHouse.cpp
; File C:\Program Files\Microsoft Visual Studio\2022\Professional\VC\Tools\MSVC\14.44.35207\include\vector
; File C:\IAGOS\server\v18\Source\Source\_Common\GuildHouse.cpp
;	COMDAT ??0CGuildHouseBase@@QAE@KK@Z
_TEXT	SEGMENT
_this$ = -4						; size = 4
_dwGuildId$ = 8						; size = 4
_dwWorldId$ = 12					; size = 4
??0CGuildHouseBase@@QAE@KK@Z PROC			; CGuildHouseBase::CGuildHouseBase, COMDAT
; _this$ = ecx

; 78   : {

  00000	55		 push	 ebp
  00001	8b ec		 mov	 ebp, esp
  00003	51		 push	 ecx

; 74   : :m_dwGuildId( dwGuildId ), m_dwWorldId( dwWorldId ), m_tUpkeepTime( 0 )

  00004	8b 45 08	 mov	 eax, DWORD PTR _dwGuildId$[ebp]
  00007	89 41 04	 mov	 DWORD PTR [ecx+4], eax
  0000a	8b 45 0c	 mov	 eax, DWORD PTR _dwWorldId$[ebp]
  0000d	89 41 08	 mov	 DWORD PTR [ecx+8], eax

; 81   : #endif // __WORLDSERVER
; 82   : 
; 83   : #ifdef __CLIENT
; 84   : 	m_dwSelectedObjID = NULL_ID;
; 85   : 	m_nExtraExp = 0;
; 86   : 	m_nWndDeployingIndex  = -1;
; 87   : #endif
; 88   : #ifdef __GUILD_HOUSE_MIDDLE
; 89   : 	::memset( m_szGHName, 0, sizeof( m_szGHName ) );
; 90   : #endif // __GUILD_HOUSE_MIDDLE
; 91   : }

  00010	8b c1		 mov	 eax, ecx
  00012	c7 01 00 00 00
	00		 mov	 DWORD PTR [ecx], OFFSET ??_7CGuildHouseBase@@6B@
; File C:\Program Files\Microsoft Visual Studio\2022\Professional\VC\Tools\MSVC\14.44.35207\include\vector

; 400  :     _CONSTEXPR20 _Vector_val() noexcept : _Myfirst(), _Mylast(), _Myend() {}

  00018	c7 41 0c 00 00
	00 00		 mov	 DWORD PTR [ecx+12], 0
  0001f	c7 41 10 00 00
	00 00		 mov	 DWORD PTR [ecx+16], 0
  00026	c7 41 14 00 00
	00 00		 mov	 DWORD PTR [ecx+20], 0
; File C:\IAGOS\server\v18\Source\Source\_Common\GuildHouse.cpp

; 78   : {

  0002d	89 4d fc	 mov	 DWORD PTR _this$[ebp], ecx

; 74   : :m_dwGuildId( dwGuildId ), m_dwWorldId( dwWorldId ), m_tUpkeepTime( 0 )

  00030	c7 41 18 00 00
	00 00		 mov	 DWORD PTR [ecx+24], 0

; 79   : #ifdef __WORLDSERVER
; 80   : 	m_dwWaitDBAckPlayerId = NULL_ID;

  00037	c7 41 1c ff ff
	ff ff		 mov	 DWORD PTR [ecx+28], -1

; 81   : #endif // __WORLDSERVER
; 82   : 
; 83   : #ifdef __CLIENT
; 84   : 	m_dwSelectedObjID = NULL_ID;
; 85   : 	m_nExtraExp = 0;
; 86   : 	m_nWndDeployingIndex  = -1;
; 87   : #endif
; 88   : #ifdef __GUILD_HOUSE_MIDDLE
; 89   : 	::memset( m_szGHName, 0, sizeof( m_szGHName ) );
; 90   : #endif // __GUILD_HOUSE_MIDDLE
; 91   : }

  0003e	8b e5		 mov	 esp, ebp
  00040	5d		 pop	 ebp
  00041	c2 08 00	 ret	 8
??0CGuildHouseBase@@QAE@KK@Z ENDP			; CGuildHouseBase::CGuildHouseBase
_TEXT	ENDS
; Function compile flags: /Ogtp
; File C:\Program Files\Microsoft Visual Studio\2022\Professional\VC\Tools\MSVC\14.44.35207\include\vector
;	COMDAT ?_Xlength@?$vector@UGuildHouse_Furniture_Info@CGuildHouseBase@@V?$allocator@UGuildHouse_Furniture_Info@CGuildHouseBase@@@std@@@std@@CAXXZ
_TEXT	SEGMENT
?_Xlength@?$vector@UGuildHouse_Furniture_Info@CGuildHouseBase@@V?$allocator@UGuildHouse_Furniture_Info@CGuildHouseBase@@@std@@@std@@CAXXZ PROC ; std::vector<CGuildHouseBase::GuildHouse_Furniture_Info,std::allocator<CGuildHouseBase::GuildHouse_Furniture_Info> >::_Xlength, COMDAT

; 2184 :         _Xlength_error("vector too long");

  00000	68 00 00 00 00	 push	 OFFSET ??_C@_0BA@FOIKENOD@vector?5too?5long@
  00005	e8 00 00 00 00	 call	 ?_Xlength_error@std@@YAXPBD@Z ; std::_Xlength_error
$LN3@Xlength:
  0000a	cc		 int	 3
?_Xlength@?$vector@UGuildHouse_Furniture_Info@CGuildHouseBase@@V?$allocator@UGuildHouse_Furniture_Info@CGuildHouseBase@@@std@@@std@@CAXXZ ENDP ; std::vector<CGuildHouseBase::GuildHouse_Furniture_Info,std::allocator<CGuildHouseBase::GuildHouse_Furniture_Info> >::_Xlength
_TEXT	ENDS
; Function compile flags: /Ogtp
; File C:\Program Files\Microsoft Visual Studio\2022\Professional\VC\Tools\MSVC\14.44.35207\include\vector
; File C:\Program Files\Microsoft Visual Studio\2022\Professional\VC\Tools\MSVC\14.44.35207\include\xmemory
; File C:\Program Files\Microsoft Visual Studio\2022\Professional\VC\Tools\MSVC\14.44.35207\include\vector
; File C:\Program Files\Microsoft Visual Studio\2022\Professional\VC\Tools\MSVC\14.44.35207\include\xmemory
; File C:\Program Files\Microsoft Visual Studio\2022\Professional\VC\Tools\MSVC\14.44.35207\include\vector
;	COMDAT ?_Change_array@?$vector@UGuildHouse_Furniture_Info@CGuildHouseBase@@V?$allocator@UGuildHouse_Furniture_Info@CGuildHouseBase@@@std@@@std@@AAEXQAUGuildHouse_Furniture_Info@CGuildHouseBase@@II@Z
_TEXT	SEGMENT
__Newvec$ = 8						; size = 4
__Newsize$ = 12						; size = 4
__Newcapacity$ = 16					; size = 4
?_Change_array@?$vector@UGuildHouse_Furniture_Info@CGuildHouseBase@@V?$allocator@UGuildHouse_Furniture_Info@CGuildHouseBase@@@std@@@std@@AAEXQAUGuildHouse_Furniture_Info@CGuildHouseBase@@II@Z PROC ; std::vector<CGuildHouseBase::GuildHouse_Furniture_Info,std::allocator<CGuildHouseBase::GuildHouse_Furniture_Info> >::_Change_array, COMDAT
; _this$ = ecx

; 2059 :         const pointer _Newvec, const size_type _Newsize, const size_type _Newcapacity) noexcept {

  00000	55		 push	 ebp
  00001	8b ec		 mov	 ebp, esp
  00003	56		 push	 esi
  00004	8b f1		 mov	 esi, ecx

; 2060 :         // orphan all iterators, discard old array, acquire new array
; 2061 :         auto& _Al         = _Getal();
; 2062 :         auto& _My_data    = _Mypair._Myval2;
; 2063 :         pointer& _Myfirst = _My_data._Myfirst;
; 2064 :         pointer& _Mylast  = _My_data._Mylast;
; 2065 :         pointer& _Myend   = _My_data._Myend;
; 2066 : 
; 2067 :         _My_data._Orphan_all();
; 2068 : 
; 2069 :         if (_Myfirst) { // destroy and deallocate old array

  00006	8b 06		 mov	 eax, DWORD PTR [esi]
  00008	85 c0		 test	 eax, eax
  0000a	74 2c		 je	 SHORT $LN10@Change_arr

; 2070 :             _STD _Destroy_range(_Myfirst, _Mylast, _Al);
; 2071 :             _ASAN_VECTOR_REMOVE;
; 2072 :             _Al.deallocate(_Myfirst, static_cast<size_type>(_Myend - _Myfirst));

  0000c	8b 4e 08	 mov	 ecx, DWORD PTR [esi+8]
  0000f	2b c8		 sub	 ecx, eax
; File C:\Program Files\Microsoft Visual Studio\2022\Professional\VC\Tools\MSVC\14.44.35207\include\xmemory

; 985  :         _STD _Deallocate<_New_alignof<_Ty>>(_Ptr, sizeof(_Ty) * _Count);

  00011	83 e1 e0	 and	 ecx, -32		; ffffffe0H

; 284  :         if (_Bytes >= _Big_allocation_threshold) {

  00014	81 f9 00 10 00
	00		 cmp	 ecx, 4096		; 00001000H
  0001a	72 12		 jb	 SHORT $LN15@Change_arr

; 205  :     const uintptr_t _Ptr_container   = _Ptr_user[-1];

  0001c	8b 50 fc	 mov	 edx, DWORD PTR [eax-4]
  0001f	83 c1 23	 add	 ecx, 35			; 00000023H

; 206  : 
; 207  :     // If the following asserts, it likely means that we are performing
; 208  :     // an aligned delete on memory coming from an unaligned allocation.
; 209  :     _STL_ASSERT(_Ptr_user[-2] == _Big_allocation_sentinel, "invalid argument");
; 210  : 
; 211  :     // Extra paranoia on aligned allocation/deallocation; ensure _Ptr_container is
; 212  :     // in range [_Min_back_shift, _Non_user_size]
; 213  : #ifdef _DEBUG
; 214  :     constexpr uintptr_t _Min_back_shift = 2 * sizeof(void*);
; 215  : #else // ^^^ defined(_DEBUG) / !defined(_DEBUG) vvv
; 216  :     constexpr uintptr_t _Min_back_shift = sizeof(void*);
; 217  : #endif // ^^^ !defined(_DEBUG) ^^^
; 218  :     const uintptr_t _Back_shift = reinterpret_cast<uintptr_t>(_Ptr) - _Ptr_container;

  00022	2b c2		 sub	 eax, edx

; 219  :     _STL_VERIFY(_Back_shift >= _Min_back_shift && _Back_shift <= _Non_user_size, "invalid argument");

  00024	83 c0 fc	 add	 eax, -4			; fffffffcH
  00027	83 f8 1f	 cmp	 eax, 31			; 0000001fH
  0002a	77 2c		 ja	 SHORT $LN14@Change_arr

; 220  :     _Ptr = reinterpret_cast<void*>(_Ptr_container);

  0002c	8b c2		 mov	 eax, edx
$LN15@Change_arr:

; 289  :         ::operator delete(_Ptr, _Bytes);

  0002e	51		 push	 ecx
  0002f	50		 push	 eax
  00030	e8 00 00 00 00	 call	 ??3@YAXPAXI@Z		; operator delete
  00035	83 c4 08	 add	 esp, 8
$LN10@Change_arr:
; File C:\Program Files\Microsoft Visual Studio\2022\Professional\VC\Tools\MSVC\14.44.35207\include\vector

; 2076 :         _Mylast  = _Newvec + _Newsize;

  00038	8b 45 0c	 mov	 eax, DWORD PTR __Newsize$[ebp]
  0003b	8b 4d 08	 mov	 ecx, DWORD PTR __Newvec$[ebp]
  0003e	c1 e0 05	 shl	 eax, 5
  00041	03 c1		 add	 eax, ecx
  00043	89 0e		 mov	 DWORD PTR [esi], ecx
  00045	89 46 04	 mov	 DWORD PTR [esi+4], eax

; 2077 :         _Myend   = _Newvec + _Newcapacity;

  00048	8b 45 10	 mov	 eax, DWORD PTR __Newcapacity$[ebp]
  0004b	c1 e0 05	 shl	 eax, 5
  0004e	03 c1		 add	 eax, ecx
  00050	89 46 08	 mov	 DWORD PTR [esi+8], eax
  00053	5e		 pop	 esi

; 2079 :     }

  00054	5d		 pop	 ebp
  00055	c2 0c 00	 ret	 12			; 0000000cH
$LN14@Change_arr:
; File C:\Program Files\Microsoft Visual Studio\2022\Professional\VC\Tools\MSVC\14.44.35207\include\xmemory

; 219  :     _STL_VERIFY(_Back_shift >= _Min_back_shift && _Back_shift <= _Non_user_size, "invalid argument");

  00058	6a 00		 push	 0
  0005a	6a 00		 push	 0
  0005c	6a 00		 push	 0
  0005e	6a 00		 push	 0
  00060	6a 00		 push	 0
  00062	e8 00 00 00 00	 call	 __invoke_watson
$LN22@Change_arr:
  00067	cc		 int	 3
?_Change_array@?$vector@UGuildHouse_Furniture_Info@CGuildHouseBase@@V?$allocator@UGuildHouse_Furniture_Info@CGuildHouseBase@@@std@@@std@@AAEXQAUGuildHouse_Furniture_Info@CGuildHouseBase@@II@Z ENDP ; std::vector<CGuildHouseBase::GuildHouse_Furniture_Info,std::allocator<CGuildHouseBase::GuildHouse_Furniture_Info> >::_Change_array
_TEXT	ENDS
; Function compile flags: /Ogtp
; File C:\Program Files\Microsoft Visual Studio\2022\Professional\VC\Tools\MSVC\14.44.35207\include\vector
; File C:\Program Files\Microsoft Visual Studio\2022\Professional\VC\Tools\MSVC\14.44.35207\include\xmemory
; File C:\Program Files\Microsoft Visual Studio\2022\Professional\VC\Tools\MSVC\14.44.35207\include\vector
; File C:\Program Files\Microsoft Visual Studio\2022\Professional\VC\Tools\MSVC\14.44.35207\include\xmemory
; File C:\Program Files\Microsoft Visual Studio\2022\Professional\VC\Tools\MSVC\14.44.35207\include\vector
; File C:\Program Files\Microsoft Visual Studio\2022\Professional\VC\Tools\MSVC\14.44.35207\include\xmemory
; File C:\Program Files\Microsoft Visual Studio\2022\Professional\VC\Tools\MSVC\14.44.35207\include\vector
;	COMDAT ??1?$vector@UGuildHouse_Furniture_Info@CGuildHouseBase@@V?$allocator@UGuildHouse_Furniture_Info@CGuildHouseBase@@@std@@@std@@QAE@XZ
_TEXT	SEGMENT
??1?$vector@UGuildHouse_Furniture_Info@CGuildHouseBase@@V?$allocator@UGuildHouse_Furniture_Info@CGuildHouseBase@@@std@@@std@@QAE@XZ PROC ; std::vector<CGuildHouseBase::GuildHouse_Furniture_Info,std::allocator<CGuildHouseBase::GuildHouse_Furniture_Info> >::~vector<CGuildHouseBase::GuildHouse_Furniture_Info,std::allocator<CGuildHouseBase::GuildHouse_Furniture_Info> >, COMDAT
; _this$ = ecx

; 829  :     _CONSTEXPR20 ~vector() noexcept {

  00000	56		 push	 esi
  00001	8b f1		 mov	 esi, ecx

; 2090 :         if (_Myfirst) { // destroy and deallocate old array

  00003	8b 06		 mov	 eax, DWORD PTR [esi]
  00005	85 c0		 test	 eax, eax
  00007	74 40		 je	 SHORT $LN5@vector

; 2091 :             _STD _Destroy_range(_Myfirst, _Mylast, _Al);
; 2092 :             _ASAN_VECTOR_REMOVE;
; 2093 :             _Al.deallocate(_Myfirst, static_cast<size_type>(_Myend - _Myfirst));

  00009	8b 4e 08	 mov	 ecx, DWORD PTR [esi+8]
  0000c	2b c8		 sub	 ecx, eax
; File C:\Program Files\Microsoft Visual Studio\2022\Professional\VC\Tools\MSVC\14.44.35207\include\xmemory

; 985  :         _STD _Deallocate<_New_alignof<_Ty>>(_Ptr, sizeof(_Ty) * _Count);

  0000e	83 e1 e0	 and	 ecx, -32		; ffffffe0H

; 284  :         if (_Bytes >= _Big_allocation_threshold) {

  00011	81 f9 00 10 00
	00		 cmp	 ecx, 4096		; 00001000H
  00017	72 12		 jb	 SHORT $LN18@vector

; 205  :     const uintptr_t _Ptr_container   = _Ptr_user[-1];

  00019	8b 50 fc	 mov	 edx, DWORD PTR [eax-4]
  0001c	83 c1 23	 add	 ecx, 35			; 00000023H

; 206  : 
; 207  :     // If the following asserts, it likely means that we are performing
; 208  :     // an aligned delete on memory coming from an unaligned allocation.
; 209  :     _STL_ASSERT(_Ptr_user[-2] == _Big_allocation_sentinel, "invalid argument");
; 210  : 
; 211  :     // Extra paranoia on aligned allocation/deallocation; ensure _Ptr_container is
; 212  :     // in range [_Min_back_shift, _Non_user_size]
; 213  : #ifdef _DEBUG
; 214  :     constexpr uintptr_t _Min_back_shift = 2 * sizeof(void*);
; 215  : #else // ^^^ defined(_DEBUG) / !defined(_DEBUG) vvv
; 216  :     constexpr uintptr_t _Min_back_shift = sizeof(void*);
; 217  : #endif // ^^^ !defined(_DEBUG) ^^^
; 218  :     const uintptr_t _Back_shift = reinterpret_cast<uintptr_t>(_Ptr) - _Ptr_container;

  0001f	2b c2		 sub	 eax, edx

; 219  :     _STL_VERIFY(_Back_shift >= _Min_back_shift && _Back_shift <= _Non_user_size, "invalid argument");

  00021	83 c0 fc	 add	 eax, -4			; fffffffcH
  00024	83 f8 1f	 cmp	 eax, 31			; 0000001fH
  00027	77 22		 ja	 SHORT $LN17@vector

; 220  :     _Ptr = reinterpret_cast<void*>(_Ptr_container);

  00029	8b c2		 mov	 eax, edx
$LN18@vector:

; 289  :         ::operator delete(_Ptr, _Bytes);

  0002b	51		 push	 ecx
  0002c	50		 push	 eax
  0002d	e8 00 00 00 00	 call	 ??3@YAXPAXI@Z		; operator delete
; File C:\Program Files\Microsoft Visual Studio\2022\Professional\VC\Tools\MSVC\14.44.35207\include\vector

; 2095 :             _Myfirst = nullptr;

  00032	c7 06 00 00 00
	00		 mov	 DWORD PTR [esi], 0
; File C:\Program Files\Microsoft Visual Studio\2022\Professional\VC\Tools\MSVC\14.44.35207\include\xmemory

; 289  :         ::operator delete(_Ptr, _Bytes);

  00038	83 c4 08	 add	 esp, 8
; File C:\Program Files\Microsoft Visual Studio\2022\Professional\VC\Tools\MSVC\14.44.35207\include\vector

; 2096 :             _Mylast  = nullptr;

  0003b	c7 46 04 00 00
	00 00		 mov	 DWORD PTR [esi+4], 0

; 2097 :             _Myend   = nullptr;

  00042	c7 46 08 00 00
	00 00		 mov	 DWORD PTR [esi+8], 0
$LN5@vector:
  00049	5e		 pop	 esi

; 835  :     }

  0004a	c3		 ret	 0
$LN17@vector:
; File C:\Program Files\Microsoft Visual Studio\2022\Professional\VC\Tools\MSVC\14.44.35207\include\xmemory

; 219  :     _STL_VERIFY(_Back_shift >= _Min_back_shift && _Back_shift <= _Non_user_size, "invalid argument");

  0004b	6a 00		 push	 0
  0004d	6a 00		 push	 0
  0004f	6a 00		 push	 0
  00051	6a 00		 push	 0
  00053	6a 00		 push	 0
  00055	e8 00 00 00 00	 call	 __invoke_watson
$LN26@vector:
  0005a	cc		 int	 3
??1?$vector@UGuildHouse_Furniture_Info@CGuildHouseBase@@V?$allocator@UGuildHouse_Furniture_Info@CGuildHouseBase@@@std@@@std@@QAE@XZ ENDP ; std::vector<CGuildHouseBase::GuildHouse_Furniture_Info,std::allocator<CGuildHouseBase::GuildHouse_Furniture_Info> >::~vector<CGuildHouseBase::GuildHouse_Furniture_Info,std::allocator<CGuildHouseBase::GuildHouse_Furniture_Info> >
_TEXT	ENDS
; Function compile flags: /Ogtp
; File C:\IAGOS\server\v18\Source\Source\_Common\GuildHouse.cpp
; File C:\IAGOS\server\v18\Source\Source\_Network\Misc\Include\ar.h
; File C:\IAGOS\server\v18\Source\Source\_Common\GuildHouse.cpp
; File C:\IAGOS\server\v18\Source\Source\_Network\Misc\Include\ar.h
; File C:\IAGOS\server\v18\Source\Source\_Common\GuildHouse.cpp
; File C:\IAGOS\server\v18\Source\Source\_Network\Misc\Include\ar.h
; File C:\IAGOS\server\v18\Source\Source\_Common\GuildHouse.cpp
;	COMDAT ?Serialize@GuildHouse_Furniture_Info@CGuildHouseBase@@QAEXAAVCAr@@@Z
_TEXT	SEGMENT
_ar$ = 8						; size = 4
$T1 = 8							; size = 4
$T2 = 8							; size = 4
?Serialize@GuildHouse_Furniture_Info@CGuildHouseBase@@QAEXAAVCAr@@@Z PROC ; CGuildHouseBase::GuildHouse_Furniture_Info::Serialize, COMDAT
; _this$ = ecx

; 51   : {

  00000	55		 push	 ebp
  00001	8b ec		 mov	 ebp, esp
  00003	53		 push	 ebx
  00004	56		 push	 esi
; File C:\IAGOS\server\v18\Source\Source\_Network\Misc\Include\ar.h

; 146  : 	return (m_nMode & CAr::load) == 0;

  00005	8b 75 08	 mov	 esi, DWORD PTR _ar$[ebp]
  00008	8d 41 18	 lea	 eax, DWORD PTR [ecx+24]
; File C:\IAGOS\server\v18\Source\Source\_Common\GuildHouse.cpp

; 51   : {

  0000b	57		 push	 edi

; 52   : 	if( ar.IsStoring() )

  0000c	50		 push	 eax
; File C:\IAGOS\server\v18\Source\Source\_Network\Misc\Include\ar.h

; 146  : 	return (m_nMode & CAr::load) == 0;

  0000d	8d 51 14	 lea	 edx, DWORD PTR [ecx+20]
  00010	f6 06 01	 test	 BYTE PTR [esi], 1
  00013	8d 59 08	 lea	 ebx, DWORD PTR [ecx+8]
; File C:\IAGOS\server\v18\Source\Source\_Common\GuildHouse.cpp

; 52   : 	if( ar.IsStoring() )

  00016	52		 push	 edx
  00017	8d 41 04	 lea	 eax, DWORD PTR [ecx+4]
  0001a	53		 push	 ebx
  0001b	50		 push	 eax
; File C:\IAGOS\server\v18\Source\Source\_Network\Misc\Include\ar.h

; 146  : 	return (m_nMode & CAr::load) == 0;

  0001c	8d 79 1c	 lea	 edi, DWORD PTR [ecx+28]
; File C:\IAGOS\server\v18\Source\Source\_Common\GuildHouse.cpp

; 52   : 	if( ar.IsStoring() )

  0001f	51		 push	 ecx
  00020	8b ce		 mov	 ecx, esi
  00022	75 59		 jne	 SHORT $LN2@Serialize

; 53   : 	{
; 54   : 		ar << dwItemId << bSetup << vPos << fAngle << objId;

  00024	e8 00 00 00 00	 call	 ??$?6K@CAr@@QAEAAV0@ABK@Z ; CAr::operator<<<unsigned long>
  00029	8b c8		 mov	 ecx, eax
  0002b	e8 00 00 00 00	 call	 ??$?6H@CAr@@QAEAAV0@ABH@Z ; CAr::operator<<<int>
  00030	8b c8		 mov	 ecx, eax
  00032	e8 00 00 00 00	 call	 ??$?6UD3DXVECTOR3@@@CAr@@QAEAAV0@ABUD3DXVECTOR3@@@Z ; CAr::operator<<<D3DXVECTOR3>
  00037	8b c8		 mov	 ecx, eax
  00039	e8 00 00 00 00	 call	 ??$?6M@CAr@@QAEAAV0@ABM@Z ; CAr::operator<<<float>
  0003e	8b c8		 mov	 ecx, eax
  00040	e8 00 00 00 00	 call	 ??$?6K@CAr@@QAEAAV0@ABK@Z ; CAr::operator<<<unsigned long>

; 55   : 		if( tKeepTime > 0 )

  00045	8b 07		 mov	 eax, DWORD PTR [edi]
  00047	8b ce		 mov	 ecx, esi
  00049	85 c0		 test	 eax, eax
  0004b	7e 19		 jle	 SHORT $LN4@Serialize

; 56   : 			ar << tKeepTime - time_null();

  0004d	2b 05 00 00 00
	00		 sub	 eax, DWORD PTR ?g_tCurrent@@3JA ; g_tCurrent
  00053	89 45 08	 mov	 DWORD PTR $T1[ebp], eax
  00056	8d 45 08	 lea	 eax, DWORD PTR $T1[ebp]
  00059	50		 push	 eax
  0005a	e8 00 00 00 00	 call	 ??$?6J@CAr@@QAEAAV0@ABJ@Z ; CAr::operator<<<long>
  0005f	5f		 pop	 edi

; 66   : 	}
; 67   : }

  00060	5e		 pop	 esi
  00061	5b		 pop	 ebx
  00062	5d		 pop	 ebp
  00063	c2 04 00	 ret	 4
$LN4@Serialize:

; 57   : 		else
; 58   : 			ar << static_cast<time_t>( 0 );

  00066	8d 45 08	 lea	 eax, DWORD PTR $T2[ebp]
  00069	c7 45 08 00 00
	00 00		 mov	 DWORD PTR $T2[ebp], 0
  00070	50		 push	 eax
  00071	e8 00 00 00 00	 call	 ??$?6J@CAr@@QAEAAV0@ABJ@Z ; CAr::operator<<<long>
  00076	5f		 pop	 edi

; 66   : 	}
; 67   : }

  00077	5e		 pop	 esi
  00078	5b		 pop	 ebx
  00079	5d		 pop	 ebp
  0007a	c2 04 00	 ret	 4
$LN2@Serialize:

; 59   : 	}
; 60   : 	else	
; 61   : 	{
; 62   : 		ar >> dwItemId >> bSetup >> vPos >> fAngle >> objId;

  0007d	e8 00 00 00 00	 call	 ??$?5K@CAr@@QAEAAV0@AAK@Z ; CAr::operator>><unsigned long>
  00082	8b c8		 mov	 ecx, eax
  00084	e8 00 00 00 00	 call	 ??$?5H@CAr@@QAEAAV0@AAH@Z ; CAr::operator>><int>
  00089	8b c8		 mov	 ecx, eax
  0008b	e8 00 00 00 00	 call	 ??$?5UD3DXVECTOR3@@@CAr@@QAEAAV0@AAUD3DXVECTOR3@@@Z ; CAr::operator>><D3DXVECTOR3>
  00090	8b c8		 mov	 ecx, eax
  00092	e8 00 00 00 00	 call	 ??$?5M@CAr@@QAEAAV0@AAM@Z ; CAr::operator>><float>
  00097	8b c8		 mov	 ecx, eax
  00099	e8 00 00 00 00	 call	 ??$?5K@CAr@@QAEAAV0@AAK@Z ; CAr::operator>><unsigned long>

; 63   : 		ar >> tKeepTime;

  0009e	57		 push	 edi
  0009f	8b ce		 mov	 ecx, esi
  000a1	e8 00 00 00 00	 call	 ??$?5J@CAr@@QAEAAV0@AAJ@Z ; CAr::operator>><long>

; 64   : 		if( tKeepTime > 0 )

  000a6	8b 0f		 mov	 ecx, DWORD PTR [edi]
  000a8	85 c9		 test	 ecx, ecx
  000aa	7e 09		 jle	 SHORT $LN6@Serialize

; 65   : 			tKeepTime += time_null();

  000ac	a1 00 00 00 00	 mov	 eax, DWORD PTR ?g_tCurrent@@3JA ; g_tCurrent
  000b1	03 c1		 add	 eax, ecx
  000b3	89 07		 mov	 DWORD PTR [edi], eax
$LN6@Serialize:

; 66   : 	}
; 67   : }

  000b5	5f		 pop	 edi
  000b6	5e		 pop	 esi
  000b7	5b		 pop	 ebx
  000b8	5d		 pop	 ebp
  000b9	c2 04 00	 ret	 4
?Serialize@GuildHouse_Furniture_Info@CGuildHouseBase@@QAEXAAVCAr@@@Z ENDP ; CGuildHouseBase::GuildHouse_Furniture_Info::Serialize
_TEXT	ENDS
; Function compile flags: /Ogtp
; File C:\IAGOS\server\v18\Source\Source\_Common\GuildHouse.cpp
;	COMDAT ??0GuildHouse_Furniture_Info@CGuildHouseBase@@QAE@KHUD3DXVECTOR3@@MJ@Z
_TEXT	SEGMENT
_dwII$ = 8						; size = 4
_bS$ = 12						; size = 4
_v$ = 16						; size = 12
_fA$ = 28						; size = 4
_tK$ = 32						; size = 4
??0GuildHouse_Furniture_Info@CGuildHouseBase@@QAE@KHUD3DXVECTOR3@@MJ@Z PROC ; CGuildHouseBase::GuildHouse_Furniture_Info::GuildHouse_Furniture_Info, COMDAT
; _this$ = ecx

; 47   : {

  00000	55		 push	 ebp
  00001	8b ec		 mov	 ebp, esp

; 43   : :dwItemId( dwII ), bSetup( bS ), vPos( v ), fAngle( fA ), objId( NULL_ID ), tKeepTime( time_null() + tK )

  00003	8b 45 08	 mov	 eax, DWORD PTR _dwII$[ebp]
  00006	8b d1		 mov	 edx, ecx
  00008	f3 0f 7e 45 10	 movq	 xmm0, QWORD PTR _v$[ebp]
  0000d	89 02		 mov	 DWORD PTR [edx], eax
  0000f	8b 45 0c	 mov	 eax, DWORD PTR _bS$[ebp]
  00012	89 42 04	 mov	 DWORD PTR [edx+4], eax
  00015	8b 45 18	 mov	 eax, DWORD PTR _v$[ebp+8]
  00018	66 0f d6 42 08	 movq	 QWORD PTR [edx+8], xmm0
  0001d	f3 0f 10 45 1c	 movss	 xmm0, DWORD PTR _fA$[ebp]
  00022	89 42 10	 mov	 DWORD PTR [edx+16], eax
  00025	f3 0f 11 42 14	 movss	 DWORD PTR [edx+20], xmm0
  0002a	c7 42 18 ff ff
	ff ff		 mov	 DWORD PTR [edx+24], -1
  00031	a1 00 00 00 00	 mov	 eax, DWORD PTR ?g_tCurrent@@3JA ; g_tCurrent
  00036	03 45 20	 add	 eax, DWORD PTR _tK$[ebp]
  00039	89 42 1c	 mov	 DWORD PTR [edx+28], eax

; 48   : }

  0003c	8b c2		 mov	 eax, edx
  0003e	5d		 pop	 ebp
  0003f	c2 1c 00	 ret	 28			; 0000001cH
??0GuildHouse_Furniture_Info@CGuildHouseBase@@QAE@KHUD3DXVECTOR3@@MJ@Z ENDP ; CGuildHouseBase::GuildHouse_Furniture_Info::GuildHouse_Furniture_Info
_TEXT	ENDS
; Function compile flags: /Ogtp
; File C:\Program Files\Microsoft Visual Studio\2022\Professional\VC\Tools\MSVC\14.44.35207\include\xmemory
;	COMDAT ??$_Allocate_manually_vector_aligned@U_Default_allocate_traits@std@@@std@@YAPAXI@Z
_TEXT	SEGMENT
__Bytes$ = 8						; size = 4
??$_Allocate_manually_vector_aligned@U_Default_allocate_traits@std@@@std@@YAPAXI@Z PROC ; std::_Allocate_manually_vector_aligned<std::_Default_allocate_traits>, COMDAT

; 182  : __declspec(allocator) void* _Allocate_manually_vector_aligned(const size_t _Bytes) {

  00000	55		 push	 ebp
  00001	8b ec		 mov	 ebp, esp

; 183  :     // allocate _Bytes manually aligned to at least _Big_allocation_alignment
; 184  :     const size_t _Block_size = _Non_user_size + _Bytes;

  00003	8b 45 08	 mov	 eax, DWORD PTR __Bytes$[ebp]
  00006	8d 48 23	 lea	 ecx, DWORD PTR [eax+35]

; 185  :     if (_Block_size <= _Bytes) {

  00009	3b c8		 cmp	 ecx, eax
  0000b	0f 86 00 00 00
	00		 jbe	 ?_Throw_bad_array_new_length@std@@YAXXZ ; std::_Throw_bad_array_new_length

; 136  :         return ::operator new(_Bytes);

  00011	51		 push	 ecx
  00012	e8 00 00 00 00	 call	 ??2@YAPAXI@Z		; operator new

; 186  :         _Throw_bad_array_new_length(); // add overflow
; 187  :     }
; 188  : 
; 189  :     const uintptr_t _Ptr_container = reinterpret_cast<uintptr_t>(_Traits::_Allocate(_Block_size));

  00017	8b c8		 mov	 ecx, eax

; 136  :         return ::operator new(_Bytes);

  00019	83 c4 04	 add	 esp, 4

; 190  :     _STL_VERIFY(_Ptr_container != 0, "invalid argument"); // validate even in release since we're doing p[-1]

  0001c	85 c9		 test	 ecx, ecx
  0001e	74 0b		 je	 SHORT $LN9@Allocate_m

; 191  :     void* const _Ptr = reinterpret_cast<void*>((_Ptr_container + _Non_user_size) & ~(_Big_allocation_alignment - 1));

  00020	8d 41 23	 lea	 eax, DWORD PTR [ecx+35]
  00023	83 e0 e0	 and	 eax, -32		; ffffffe0H

; 192  :     static_cast<uintptr_t*>(_Ptr)[-1] = _Ptr_container;

  00026	89 48 fc	 mov	 DWORD PTR [eax-4], ecx

; 193  : 
; 194  : #ifdef _DEBUG
; 195  :     static_cast<uintptr_t*>(_Ptr)[-2] = _Big_allocation_sentinel;
; 196  : #endif // defined(_DEBUG)
; 197  :     return _Ptr;
; 198  : }

  00029	5d		 pop	 ebp
  0002a	c3		 ret	 0
$LN9@Allocate_m:

; 190  :     _STL_VERIFY(_Ptr_container != 0, "invalid argument"); // validate even in release since we're doing p[-1]

  0002b	6a 00		 push	 0
  0002d	6a 00		 push	 0
  0002f	6a 00		 push	 0
  00031	6a 00		 push	 0
  00033	6a 00		 push	 0
  00035	e8 00 00 00 00	 call	 __invoke_watson
$LN7@Allocate_m:
  0003a	cc		 int	 3
??$_Allocate_manually_vector_aligned@U_Default_allocate_traits@std@@@std@@YAPAXI@Z ENDP ; std::_Allocate_manually_vector_aligned<std::_Default_allocate_traits>
_TEXT	ENDS
; Function compile flags: /Ogtp
; File C:\IAGOS\server\v18\Source\Source\_Common\Project.h
; File C:\IAGOS\server\v18\Source\Source\_Common\data.h
; File C:\IAGOS\server\v18\Source\Source\_Common\Project.h
;	COMDAT ?GetItemProp@CProject@@QAEPAUItemProp@@H@Z
_TEXT	SEGMENT
_nIndex$ = 8						; size = 4
?GetItemProp@CProject@@QAEPAUItemProp@@H@Z PROC		; CProject::GetItemProp, COMDAT
; _this$ = ecx

; 1388 : { 

  00000	55		 push	 ebp
  00001	8b ec		 mov	 ebp, esp

; 1389 : 	VERIFY_RANGE_ASSERT( nIndex, 0, m_aPropItem.GetSize(), "GetItemProp range_error", NULL );

  00003	8b 55 08	 mov	 edx, DWORD PTR _nIndex$[ebp]
  00006	56		 push	 esi
  00007	85 d2		 test	 edx, edx
  00009	78 18		 js	 SHORT $LN14@GetItemPro
  0000b	3b 91 40 02 00
	00		 cmp	 edx, DWORD PTR [ecx+576]
  00011	7d 10		 jge	 SHORT $LN14@GetItemPro
; File C:\IAGOS\server\v18\Source\Source\_Common\data.h

; 270  : 	if( dwIndex >= (DWORD)m_nMaxIndex )

  00013	73 29		 jae	 SHORT $LN18@GetItemPro

; 271  : 		return NULL;
; 272  : 	return (T*) m_apOffset[ dwIndex ];

  00015	8b 81 30 02 00
	00		 mov	 eax, DWORD PTR [ecx+560]
  0001b	5e		 pop	 esi
  0001c	8b 04 90	 mov	 eax, DWORD PTR [eax+edx*4]
; File C:\IAGOS\server\v18\Source\Source\_Common\Project.h

; 1391 : }

  0001f	5d		 pop	 ebp
  00020	c2 04 00	 ret	 4
$LN14@GetItemPro:

; 579  : 	LPCTSTR szErr = Error( _T( "%s min:%d, max:%d, index:%d" ), szMsg, nMin, nMax, nIndex ); 

  00023	52		 push	 edx
  00024	ff b1 40 02 00
	00		 push	 DWORD PTR [ecx+576]
  0002a	6a 00		 push	 0
  0002c	68 00 00 00 00	 push	 OFFSET ??_C@_0BI@BEIFNGEL@GetItemProp?5range_error@
  00031	68 00 00 00 00	 push	 OFFSET ??_C@_0BM@HMFGHCP@?$CFs?5min?3?$CFd?0?5max?3?$CFd?0?5index?3?$CFd@
  00036	e8 00 00 00 00	 call	 ?Error@@YAPBDPBDZZ	; Error
  0003b	83 c4 14	 add	 esp, 20			; 00000014H
$LN18@GetItemPro:

; 1391 : }

  0003e	33 c0		 xor	 eax, eax
  00040	5e		 pop	 esi
  00041	5d		 pop	 ebp
  00042	c2 04 00	 ret	 4
?GetItemProp@CProject@@QAEPAUItemProp@@H@Z ENDP		; CProject::GetItemProp
_TEXT	ENDS
; Function compile flags: /Ogtp
; File C:\IAGOS\server\v18\Source\Source\DX_SDK\d3dx9math.h
;	COMDAT ??0D3DXVECTOR3@@QAE@XZ
_TEXT	SEGMENT
??0D3DXVECTOR3@@QAE@XZ PROC				; D3DXVECTOR3::D3DXVECTOR3, COMDAT
; _this$ = ecx

; 165  :     D3DXVECTOR3() {};

  00000	8b c1		 mov	 eax, ecx
  00002	c3		 ret	 0
??0D3DXVECTOR3@@QAE@XZ ENDP				; D3DXVECTOR3::D3DXVECTOR3
_TEXT	ENDS
; Function compile flags: /Ogtp
; File C:\Program Files\Microsoft Visual Studio\2022\Professional\VC\Tools\MSVC\14.44.35207\include\xtree
;	COMDAT ?_Throw_tree_length_error@std@@YAXXZ
_TEXT	SEGMENT
?_Throw_tree_length_error@std@@YAXXZ PROC		; std::_Throw_tree_length_error, COMDAT

; 417  :     _Xlength_error("map/set too long");

  00000	68 00 00 00 00	 push	 OFFSET ??_C@_0BB@GCADKGJO@map?1set?5too?5long@
  00005	e8 00 00 00 00	 call	 ?_Xlength_error@std@@YAXPBD@Z ; std::_Xlength_error
$LN3@Throw_tree:
  0000a	cc		 int	 3
?_Throw_tree_length_error@std@@YAXXZ ENDP		; std::_Throw_tree_length_error
_TEXT	ENDS
; Function compile flags: /Ogtp
; File C:\Program Files\Microsoft Visual Studio\2022\Professional\VC\Tools\MSVC\14.44.35207\include\xmemory
;	COMDAT ?_Throw_bad_array_new_length@std@@YAXXZ
_TEXT	SEGMENT
$T1 = -12						; size = 12
?_Throw_bad_array_new_length@std@@YAXXZ PROC		; std::_Throw_bad_array_new_length, COMDAT

; 107  : [[noreturn]] inline void _Throw_bad_array_new_length() {

  00000	55		 push	 ebp
  00001	8b ec		 mov	 ebp, esp
  00003	83 ec 0c	 sub	 esp, 12			; 0000000cH

; 108  :     _THROW(bad_array_new_length{});

  00006	8d 4d f4	 lea	 ecx, DWORD PTR $T1[ebp]
  00009	e8 00 00 00 00	 call	 ??0bad_array_new_length@std@@QAE@XZ ; std::bad_array_new_length::bad_array_new_length
  0000e	68 00 00 00 00	 push	 OFFSET __TI3?AVbad_array_new_length@std@@
  00013	8d 45 f4	 lea	 eax, DWORD PTR $T1[ebp]
  00016	50		 push	 eax
  00017	e8 00 00 00 00	 call	 __CxxThrowException@8
$LN3@Throw_bad_:
  0001c	cc		 int	 3
?_Throw_bad_array_new_length@std@@YAXXZ ENDP		; std::_Throw_bad_array_new_length
_TEXT	ENDS
; Function compile flags: /Ogtp
; File C:\Program Files\Microsoft Visual Studio\2022\Professional\VC\Tools\MSVC\14.44.35207\include\vcruntime_exception.h
;	COMDAT ??_Gbad_array_new_length@std@@UAEPAXI@Z
_TEXT	SEGMENT
___flags$ = 8						; size = 4
??_Gbad_array_new_length@std@@UAEPAXI@Z PROC		; std::bad_array_new_length::`scalar deleting destructor', COMDAT
; _this$ = ecx
  00000	55		 push	 ebp
  00001	8b ec		 mov	 ebp, esp

; 90   :     {

  00003	56		 push	 esi
  00004	8b f1		 mov	 esi, ecx

; 91   :         __std_exception_destroy(&_Data);

  00006	8d 46 04	 lea	 eax, DWORD PTR [esi+4]
  00009	c7 06 00 00 00
	00		 mov	 DWORD PTR [esi], OFFSET ??_7exception@std@@6B@
  0000f	50		 push	 eax
  00010	e8 00 00 00 00	 call	 ___std_exception_destroy
  00015	83 c4 04	 add	 esp, 4
  00018	f6 45 08 01	 test	 BYTE PTR ___flags$[ebp], 1
  0001c	74 0b		 je	 SHORT $LN18@scalar
  0001e	6a 0c		 push	 12			; 0000000cH
  00020	56		 push	 esi
  00021	e8 00 00 00 00	 call	 ??3@YAXPAXI@Z		; operator delete
  00026	83 c4 08	 add	 esp, 8
$LN18@scalar:
  00029	8b c6		 mov	 eax, esi
  0002b	5e		 pop	 esi
  0002c	5d		 pop	 ebp
  0002d	c2 04 00	 ret	 4
??_Gbad_array_new_length@std@@UAEPAXI@Z ENDP		; std::bad_array_new_length::`scalar deleting destructor'
_TEXT	ENDS
; Function compile flags: /Ogtp
; File C:\Program Files\Microsoft Visual Studio\2022\Professional\VC\Tools\MSVC\14.44.35207\include\vcruntime_exception.h
;	COMDAT ??0bad_array_new_length@std@@QAE@ABV01@@Z
_TEXT	SEGMENT
___that$ = 8						; size = 4
??0bad_array_new_length@std@@QAE@ABV01@@Z PROC		; std::bad_array_new_length::bad_array_new_length, COMDAT
; _this$ = ecx
  00000	55		 push	 ebp
  00001	8b ec		 mov	 ebp, esp

; 73   :     {

  00003	56		 push	 esi
  00004	8b f1		 mov	 esi, ecx
  00006	0f 57 c0	 xorps	 xmm0, xmm0

; 72   :         : _Data()

  00009	8d 46 04	 lea	 eax, DWORD PTR [esi+4]

; 74   :         __std_exception_copy(&_Other._Data, &_Data);

  0000c	50		 push	 eax
  0000d	c7 06 00 00 00
	00		 mov	 DWORD PTR [esi], OFFSET ??_7exception@std@@6B@
  00013	66 0f d6 00	 movq	 QWORD PTR [eax], xmm0
  00017	8b 45 08	 mov	 eax, DWORD PTR ___that$[ebp]
  0001a	83 c0 04	 add	 eax, 4
  0001d	50		 push	 eax
  0001e	e8 00 00 00 00	 call	 ___std_exception_copy
  00023	83 c4 08	 add	 esp, 8
  00026	c7 06 00 00 00
	00		 mov	 DWORD PTR [esi], OFFSET ??_7bad_array_new_length@std@@6B@
  0002c	8b c6		 mov	 eax, esi
  0002e	5e		 pop	 esi
  0002f	5d		 pop	 ebp
  00030	c2 04 00	 ret	 4
??0bad_array_new_length@std@@QAE@ABV01@@Z ENDP		; std::bad_array_new_length::bad_array_new_length
_TEXT	ENDS
; Function compile flags: /Ogtp
; File C:\Program Files\Microsoft Visual Studio\2022\Professional\VC\Tools\MSVC\14.44.35207\include\vcruntime_exception.h
;	COMDAT ??1bad_array_new_length@std@@UAE@XZ
_TEXT	SEGMENT
??1bad_array_new_length@std@@UAE@XZ PROC		; std::bad_array_new_length::~bad_array_new_length, COMDAT
; _this$ = ecx

; 91   :         __std_exception_destroy(&_Data);

  00000	8d 41 04	 lea	 eax, DWORD PTR [ecx+4]
  00003	c7 01 00 00 00
	00		 mov	 DWORD PTR [ecx], OFFSET ??_7exception@std@@6B@
  00009	50		 push	 eax
  0000a	e8 00 00 00 00	 call	 ___std_exception_destroy
  0000f	59		 pop	 ecx
  00010	c3		 ret	 0
??1bad_array_new_length@std@@UAE@XZ ENDP		; std::bad_array_new_length::~bad_array_new_length
_TEXT	ENDS
; Function compile flags: /Ogtp
; File C:\Program Files\Microsoft Visual Studio\2022\Professional\VC\Tools\MSVC\14.44.35207\include\vcruntime_exception.h
;	COMDAT ??0bad_array_new_length@std@@QAE@XZ
_TEXT	SEGMENT
??0bad_array_new_length@std@@QAE@XZ PROC		; std::bad_array_new_length::bad_array_new_length, COMDAT
; _this$ = ecx

; 144  :     {

  00000	0f 57 c0	 xorps	 xmm0, xmm0

; 145  :     }

  00003	8b c1		 mov	 eax, ecx

; 66   :         : _Data()

  00005	66 0f d6 41 04	 movq	 QWORD PTR [ecx+4], xmm0

; 67   :     {
; 68   :         _Data._What = _Message;

  0000a	c7 41 04 00 00
	00 00		 mov	 DWORD PTR [ecx+4], OFFSET ??_C@_0BF@KINCDENJ@bad?5array?5new?5length@

; 144  :     {

  00011	c7 01 00 00 00
	00		 mov	 DWORD PTR [ecx], OFFSET ??_7bad_array_new_length@std@@6B@

; 145  :     }

  00017	c3		 ret	 0
??0bad_array_new_length@std@@QAE@XZ ENDP		; std::bad_array_new_length::bad_array_new_length
_TEXT	ENDS
; Function compile flags: /Ogtp
; File C:\Program Files\Microsoft Visual Studio\2022\Professional\VC\Tools\MSVC\14.44.35207\include\vcruntime_exception.h
;	COMDAT ??_Gbad_alloc@std@@UAEPAXI@Z
_TEXT	SEGMENT
___flags$ = 8						; size = 4
??_Gbad_alloc@std@@UAEPAXI@Z PROC			; std::bad_alloc::`scalar deleting destructor', COMDAT
; _this$ = ecx
  00000	55		 push	 ebp
  00001	8b ec		 mov	 ebp, esp

; 90   :     {

  00003	56		 push	 esi
  00004	8b f1		 mov	 esi, ecx

; 91   :         __std_exception_destroy(&_Data);

  00006	8d 46 04	 lea	 eax, DWORD PTR [esi+4]
  00009	c7 06 00 00 00
	00		 mov	 DWORD PTR [esi], OFFSET ??_7exception@std@@6B@
  0000f	50		 push	 eax
  00010	e8 00 00 00 00	 call	 ___std_exception_destroy
  00015	83 c4 04	 add	 esp, 4
  00018	f6 45 08 01	 test	 BYTE PTR ___flags$[ebp], 1
  0001c	74 0b		 je	 SHORT $LN13@scalar
  0001e	6a 0c		 push	 12			; 0000000cH
  00020	56		 push	 esi
  00021	e8 00 00 00 00	 call	 ??3@YAXPAXI@Z		; operator delete
  00026	83 c4 08	 add	 esp, 8
$LN13@scalar:
  00029	8b c6		 mov	 eax, esi
  0002b	5e		 pop	 esi
  0002c	5d		 pop	 ebp
  0002d	c2 04 00	 ret	 4
??_Gbad_alloc@std@@UAEPAXI@Z ENDP			; std::bad_alloc::`scalar deleting destructor'
_TEXT	ENDS
; Function compile flags: /Ogtp
; File C:\Program Files\Microsoft Visual Studio\2022\Professional\VC\Tools\MSVC\14.44.35207\include\vcruntime_exception.h
;	COMDAT ??0bad_alloc@std@@QAE@ABV01@@Z
_TEXT	SEGMENT
___that$ = 8						; size = 4
??0bad_alloc@std@@QAE@ABV01@@Z PROC			; std::bad_alloc::bad_alloc, COMDAT
; _this$ = ecx
  00000	55		 push	 ebp
  00001	8b ec		 mov	 ebp, esp

; 73   :     {

  00003	56		 push	 esi
  00004	8b f1		 mov	 esi, ecx
  00006	0f 57 c0	 xorps	 xmm0, xmm0

; 72   :         : _Data()

  00009	8d 46 04	 lea	 eax, DWORD PTR [esi+4]

; 74   :         __std_exception_copy(&_Other._Data, &_Data);

  0000c	50		 push	 eax
  0000d	c7 06 00 00 00
	00		 mov	 DWORD PTR [esi], OFFSET ??_7exception@std@@6B@
  00013	66 0f d6 00	 movq	 QWORD PTR [eax], xmm0
  00017	8b 45 08	 mov	 eax, DWORD PTR ___that$[ebp]
  0001a	83 c0 04	 add	 eax, 4
  0001d	50		 push	 eax
  0001e	e8 00 00 00 00	 call	 ___std_exception_copy
  00023	83 c4 08	 add	 esp, 8
  00026	c7 06 00 00 00
	00		 mov	 DWORD PTR [esi], OFFSET ??_7bad_alloc@std@@6B@
  0002c	8b c6		 mov	 eax, esi
  0002e	5e		 pop	 esi
  0002f	5d		 pop	 ebp
  00030	c2 04 00	 ret	 4
??0bad_alloc@std@@QAE@ABV01@@Z ENDP			; std::bad_alloc::bad_alloc
_TEXT	ENDS
; Function compile flags: /Ogtp
; File C:\Program Files\Microsoft Visual Studio\2022\Professional\VC\Tools\MSVC\14.44.35207\include\vcruntime_exception.h
;	COMDAT ??_Gexception@std@@UAEPAXI@Z
_TEXT	SEGMENT
___flags$ = 8						; size = 4
??_Gexception@std@@UAEPAXI@Z PROC			; std::exception::`scalar deleting destructor', COMDAT
; _this$ = ecx
  00000	55		 push	 ebp
  00001	8b ec		 mov	 ebp, esp

; 90   :     {

  00003	56		 push	 esi
  00004	8b f1		 mov	 esi, ecx

; 91   :         __std_exception_destroy(&_Data);

  00006	8d 46 04	 lea	 eax, DWORD PTR [esi+4]
  00009	c7 06 00 00 00
	00		 mov	 DWORD PTR [esi], OFFSET ??_7exception@std@@6B@
  0000f	50		 push	 eax
  00010	e8 00 00 00 00	 call	 ___std_exception_destroy
  00015	83 c4 04	 add	 esp, 4
  00018	f6 45 08 01	 test	 BYTE PTR ___flags$[ebp], 1
  0001c	74 0b		 je	 SHORT $LN8@scalar
  0001e	6a 0c		 push	 12			; 0000000cH
  00020	56		 push	 esi
  00021	e8 00 00 00 00	 call	 ??3@YAXPAXI@Z		; operator delete
  00026	83 c4 08	 add	 esp, 8
$LN8@scalar:
  00029	8b c6		 mov	 eax, esi
  0002b	5e		 pop	 esi
  0002c	5d		 pop	 ebp
  0002d	c2 04 00	 ret	 4
??_Gexception@std@@UAEPAXI@Z ENDP			; std::exception::`scalar deleting destructor'
_TEXT	ENDS
; Function compile flags: /Ogtp
; File C:\Program Files\Microsoft Visual Studio\2022\Professional\VC\Tools\MSVC\14.44.35207\include\vcruntime_exception.h
;	COMDAT ?what@exception@std@@UBEPBDXZ
_TEXT	SEGMENT
?what@exception@std@@UBEPBDXZ PROC			; std::exception::what, COMDAT
; _this$ = ecx

; 96   :         return _Data._What ? _Data._What : "Unknown exception";

  00000	8b 49 04	 mov	 ecx, DWORD PTR [ecx+4]
  00003	b8 00 00 00 00	 mov	 eax, OFFSET ??_C@_0BC@EOODALEL@Unknown?5exception@
  00008	85 c9		 test	 ecx, ecx
  0000a	0f 45 c1	 cmovne	 eax, ecx

; 97   :     }

  0000d	c3		 ret	 0
?what@exception@std@@UBEPBDXZ ENDP			; std::exception::what
_TEXT	ENDS
; Function compile flags: /Ogtp
; File C:\Program Files\Microsoft Visual Studio\2022\Professional\VC\Tools\MSVC\14.44.35207\include\vcruntime_exception.h
;	COMDAT ??1exception@std@@UAE@XZ
_TEXT	SEGMENT
??1exception@std@@UAE@XZ PROC				; std::exception::~exception, COMDAT
; _this$ = ecx

; 91   :         __std_exception_destroy(&_Data);

  00000	8d 41 04	 lea	 eax, DWORD PTR [ecx+4]
  00003	c7 01 00 00 00
	00		 mov	 DWORD PTR [ecx], OFFSET ??_7exception@std@@6B@
  00009	50		 push	 eax
  0000a	e8 00 00 00 00	 call	 ___std_exception_destroy
  0000f	59		 pop	 ecx

; 92   :     }

  00010	c3		 ret	 0
??1exception@std@@UAE@XZ ENDP				; std::exception::~exception
_TEXT	ENDS
; Function compile flags: /Ogtp
; File C:\Program Files\Microsoft Visual Studio\2022\Professional\VC\Tools\MSVC\14.44.35207\include\vcruntime_exception.h
;	COMDAT ??0exception@std@@QAE@ABV01@@Z
_TEXT	SEGMENT
__Other$ = 8						; size = 4
??0exception@std@@QAE@ABV01@@Z PROC			; std::exception::exception, COMDAT
; _this$ = ecx

; 73   :     {

  00000	55		 push	 ebp
  00001	8b ec		 mov	 ebp, esp
  00003	56		 push	 esi
  00004	8b f1		 mov	 esi, ecx
  00006	0f 57 c0	 xorps	 xmm0, xmm0
  00009	8d 46 04	 lea	 eax, DWORD PTR [esi+4]

; 74   :         __std_exception_copy(&_Other._Data, &_Data);

  0000c	50		 push	 eax
  0000d	c7 06 00 00 00
	00		 mov	 DWORD PTR [esi], OFFSET ??_7exception@std@@6B@
  00013	66 0f d6 00	 movq	 QWORD PTR [eax], xmm0
  00017	8b 45 08	 mov	 eax, DWORD PTR __Other$[ebp]
  0001a	83 c0 04	 add	 eax, 4
  0001d	50		 push	 eax
  0001e	e8 00 00 00 00	 call	 ___std_exception_copy
  00023	83 c4 08	 add	 esp, 8

; 75   :     }

  00026	8b c6		 mov	 eax, esi
  00028	5e		 pop	 esi
  00029	5d		 pop	 ebp
  0002a	c2 04 00	 ret	 4
??0exception@std@@QAE@ABV01@@Z ENDP			; std::exception::exception
_TEXT	ENDS
; Function compile flags: /Ogtp
; File C:\IAGOS\server\v18\Source\Source\_Common\GuildHouse.cpp
;	COMDAT ?__empty_global_delete@@YAXPAXI@Z
_TEXT	SEGMENT
___formal$ = 8						; size = 4
___formal$ = 12						; size = 4
?__empty_global_delete@@YAXPAXI@Z PROC			; __empty_global_delete, COMDAT

  00000	c2 00 00	 ret	 0
?__empty_global_delete@@YAXPAXI@Z ENDP			; __empty_global_delete
_TEXT	ENDS
; Function compile flags: /Ogtp
; File C:\IAGOS\server\v18\Source\Source\_Common\GuildHouse.cpp
;	COMDAT ?__empty_global_delete@@YAXPAX@Z
_TEXT	SEGMENT
___formal$ = 8						; size = 4
?__empty_global_delete@@YAXPAX@Z PROC			; __empty_global_delete, COMDAT

  00000	c2 00 00	 ret	 0
?__empty_global_delete@@YAXPAX@Z ENDP			; __empty_global_delete
_TEXT	ENDS
END
