; Listing generated by Microsoft (R) Optimizing Compiler Version 19.44.35225.0 

	TITLE	C:\IAGOS\server\v18\Source\Output\WorldServer\Release\GuildCombat1to1.obj
	.686P
	.XMM
	include listing.inc
	.model	flat

INCLUDELIB LIBCMT
INCLUDELIB OLDNAMES

CONST	SEGMENT
?piecewise_construct@std@@3Upiecewise_construct_t@1@B	ORG $+1 ; std::piecewise_construct
CONST	ENDS
PUBLIC	?__empty_global_delete@@YAXPAX@Z		; __empty_global_delete
PUBLIC	?__empty_global_delete@@YAXPAXI@Z		; __empty_global_delete
PUBLIC	___local_stdio_printf_options
PUBLIC	_sprintf
PUBLIC	?AtlThrowImpl@ATL@@YGXJ@Z			; ATL::AtlThrowImpl
PUBLIC	??1?$CSimpleStringT@D$0A@@ATL@@QAE@XZ		; ATL::CSimpleStringT<char,0>::~CSimpleStringT<char,0>
PUBLIC	?SetString@?$CSimpleStringT@D$0A@@ATL@@QAEXPBDH@Z ; ATL::CSimpleStringT<char,0>::SetString
PUBLIC	?ThrowMemoryException@?$CSimpleStringT@D$0A@@ATL@@KAXXZ ; ATL::CSimpleStringT<char,0>::ThrowMemoryException
PUBLIC	?Fork@?$CSimpleStringT@D$0A@@ATL@@AAEXH@Z	; ATL::CSimpleStringT<char,0>::Fork
PUBLIC	?PrepareWrite2@?$CSimpleStringT@D$0A@@ATL@@AAEXH@Z ; ATL::CSimpleStringT<char,0>::PrepareWrite2
PUBLIC	?Reallocate@?$CSimpleStringT@D$0A@@ATL@@AAEXH@Z	; ATL::CSimpleStringT<char,0>::Reallocate
PUBLIC	??0?$CStringT@DV?$StrTraitMFC@DV?$ChTraitsCRT@D@ATL@@@@@ATL@@QAE@XZ ; ATL::CStringT<char,StrTraitMFC<char,ATL::ChTraitsCRT<char> > >::CStringT<char,StrTraitMFC<char,ATL::ChTraitsCRT<char> > >
PUBLIC	??1?$CStringT@DV?$StrTraitMFC@DV?$ChTraitsCRT@D@ATL@@@@@ATL@@QAE@XZ ; ATL::CStringT<char,StrTraitMFC<char,ATL::ChTraitsCRT<char> > >::~CStringT<char,StrTraitMFC<char,ATL::ChTraitsCRT<char> > >
PUBLIC	?Format@?$CStringT@DV?$StrTraitMFC@DV?$ChTraitsCRT@D@ATL@@@@@ATL@@QAAXPBDZZ ; ATL::CStringT<char,StrTraitMFC<char,ATL::ChTraitsCRT<char> > >::Format
PUBLIC	?FormatV@?$CStringT@DV?$StrTraitMFC@DV?$ChTraitsCRT@D@ATL@@@@@ATL@@QAEXPBDPAD@Z ; ATL::CStringT<char,StrTraitMFC<char,ATL::ChTraitsCRT<char> > >::FormatV
PUBLIC	?LoadStringA@?$CStringT@DV?$StrTraitMFC@DV?$ChTraitsCRT@D@ATL@@@@@ATL@@QAEHI@Z ; ATL::CStringT<char,StrTraitMFC<char,ATL::ChTraitsCRT<char> > >::LoadStringA
PUBLIC	??0exception@std@@QAE@ABV01@@Z			; std::exception::exception
PUBLIC	??1exception@std@@UAE@XZ			; std::exception::~exception
PUBLIC	?what@exception@std@@UBEPBDXZ			; std::exception::what
PUBLIC	??_Gexception@std@@UAEPAXI@Z			; std::exception::`scalar deleting destructor'
PUBLIC	??0bad_alloc@std@@QAE@ABV01@@Z			; std::bad_alloc::bad_alloc
PUBLIC	??_Gbad_alloc@std@@UAEPAXI@Z			; std::bad_alloc::`scalar deleting destructor'
PUBLIC	??0bad_array_new_length@std@@QAE@XZ		; std::bad_array_new_length::bad_array_new_length
PUBLIC	??1bad_array_new_length@std@@UAE@XZ		; std::bad_array_new_length::~bad_array_new_length
PUBLIC	??0bad_array_new_length@std@@QAE@ABV01@@Z	; std::bad_array_new_length::bad_array_new_length
PUBLIC	??_Gbad_array_new_length@std@@UAEPAXI@Z		; std::bad_array_new_length::`scalar deleting destructor'
PUBLIC	?_Throw_bad_array_new_length@std@@YAXXZ		; std::_Throw_bad_array_new_length
PUBLIC	?_Throw_tree_length_error@std@@YAXXZ		; std::_Throw_tree_length_error
PUBLIC	??0_LogItemInfo@@QAE@XZ				; _LogItemInfo::_LogItemInfo
PUBLIC	?deallocate@?$allocator@K@std@@QAEXQAKI@Z	; std::allocator<unsigned long>::deallocate
PUBLIC	??4?$vector@KV?$allocator@K@std@@@std@@QAEAAV01@ABV01@@Z ; std::vector<unsigned long,std::allocator<unsigned long> >::operator=
PUBLIC	?_Buy_raw@?$vector@KV?$allocator@K@std@@@std@@AAEXI@Z ; std::vector<unsigned long,std::allocator<unsigned long> >::_Buy_raw
PUBLIC	?_Tidy@?$vector@KV?$allocator@K@std@@@std@@AAEXXZ ; std::vector<unsigned long,std::allocator<unsigned long> >::_Tidy
PUBLIC	?_Xlength@?$vector@KV?$allocator@K@std@@@std@@CAXXZ ; std::vector<unsigned long,std::allocator<unsigned long> >::_Xlength
PUBLIC	?_Insert_node@?$_Tree_val@U?$_Tree_simple_types@U?$pair@$$CBHH@std@@@std@@@std@@QAEPAU?$_Tree_node@U?$pair@$$CBHH@std@@PAX@2@U?$_Tree_id@PAU?$_Tree_node@U?$pair@$$CBHH@std@@PAX@std@@@2@QAU32@@Z ; std::_Tree_val<std::_Tree_simple_types<std::pair<int const ,int> > >::_Insert_node
PUBLIC	?GetText@CProject@@QAEPBDK@Z			; CProject::GetText
PUBLIC	?GetUserByID@CProject@@QAEPAVCMover@@K@Z	; CProject::GetUserByID
PUBLIC	??0CGuildCombat1to1Mng@@QAE@XZ			; CGuildCombat1to1Mng::CGuildCombat1to1Mng
PUBLIC	??1CGuildCombat1to1Mng@@UAE@XZ			; CGuildCombat1to1Mng::~CGuildCombat1to1Mng
PUBLIC	?ClearTime@CGuildCombat1to1Mng@@QAEXXZ		; CGuildCombat1to1Mng::ClearTime
PUBLIC	?LoadScript@CGuildCombat1to1Mng@@QAEHXZ		; CGuildCombat1to1Mng::LoadScript
PUBLIC	??1__GC1TO1TENDER@CGuildCombat1to1Mng@@QAE@XZ	; CGuildCombat1to1Mng::__GC1TO1TENDER::~__GC1TO1TENDER
PUBLIC	??0__GC1TO1TENDER@CGuildCombat1to1Mng@@QAE@ABU01@@Z ; CGuildCombat1to1Mng::__GC1TO1TENDER::__GC1TO1TENDER
PUBLIC	?GetTenderGuildIndexByUser@CGuildCombat1to1Mng@@QAEHPAVCUser@@@Z ; CGuildCombat1to1Mng::GetTenderGuildIndexByUser
PUBLIC	?GetTargetTenderGuildIndexByUser@CGuildCombat1to1Mng@@QAEHPAVCUser@@@Z ; CGuildCombat1to1Mng::GetTargetTenderGuildIndexByUser
PUBLIC	?IsGuildMaster@CGuildCombat1to1Mng@@QAEHPAVCUser@@@Z ; CGuildCombat1to1Mng::IsGuildMaster
PUBLIC	?IsGCTenderGuild@CGuildCombat1to1Mng@@QAEHPAVCUser@@@Z ; CGuildCombat1to1Mng::IsGCTenderGuild
PUBLIC	?IsLineUpMember@CGuildCombat1to1Mng@@QAEHPAVCUser@@@Z ; CGuildCombat1to1Mng::IsLineUpMember
PUBLIC	?IsPossibleUser@CGuildCombat1to1Mng@@QAEHPAVCUser@@@Z ; CGuildCombat1to1Mng::IsPossibleUser
PUBLIC	?Process@CGuildCombat1to1Mng@@QAEXXZ		; CGuildCombat1to1Mng::Process
PUBLIC	?SendNowState@CGuildCombat1to1Mng@@QAEXPAVCUser@@@Z ; CGuildCombat1to1Mng::SendNowState
PUBLIC	?GuildCombat1to1Open@CGuildCombat1to1Mng@@QAEXH@Z ; CGuildCombat1to1Mng::GuildCombat1to1Open
PUBLIC	?GuildCombat1to1AllClose@CGuildCombat1to1Mng@@QAEXXZ ; CGuildCombat1to1Mng::GuildCombat1to1AllClose
PUBLIC	?CreateGuildCombat1to1@CGuildCombat1to1Mng@@QAEXXZ ; CGuildCombat1to1Mng::CreateGuildCombat1to1
PUBLIC	?SendTenderGuildOpenWnd@CGuildCombat1to1Mng@@QAEXPAVCUser@@@Z ; CGuildCombat1to1Mng::SendTenderGuildOpenWnd
PUBLIC	?SendTenderGuildView@CGuildCombat1to1Mng@@QAEXPAVCUser@@@Z ; CGuildCombat1to1Mng::SendTenderGuildView
PUBLIC	?SetTenderGuild@CGuildCombat1to1Mng@@QAEXPAVCUser@@H@Z ; CGuildCombat1to1Mng::SetTenderGuild
PUBLIC	?SetCancelTenderGuild@CGuildCombat1to1Mng@@QAEXPAVCUser@@@Z ; CGuildCombat1to1Mng::SetCancelTenderGuild
PUBLIC	?SetFailedTenderGuild@CGuildCombat1to1Mng@@QAEXPAVCUser@@@Z ; CGuildCombat1to1Mng::SetFailedTenderGuild
PUBLIC	?SendMemberLineUpOpenWnd@CGuildCombat1to1Mng@@QAEXPAVCUser@@@Z ; CGuildCombat1to1Mng::SendMemberLineUpOpenWnd
PUBLIC	?SetMemberLineUp@CGuildCombat1to1Mng@@QAEXPAVCUser@@AAV?$vector@KV?$allocator@K@std@@@std@@@Z ; CGuildCombat1to1Mng::SetMemberLineUp
PUBLIC	?GuildCombat1to1EntranceWait@CGuildCombat1to1Mng@@QAEXXZ ; CGuildCombat1to1Mng::GuildCombat1to1EntranceWait
PUBLIC	?GuildCombat1to1War@CGuildCombat1to1Mng@@QAEXXZ	; CGuildCombat1to1Mng::GuildCombat1to1War
PUBLIC	?SetTeleportToNPC@CGuildCombat1to1Mng@@QAEXPAVCUser@@@Z ; CGuildCombat1to1Mng::SetTeleportToNPC
PUBLIC	?SetTeleportToStage@CGuildCombat1to1Mng@@QAEXPAVCUser@@@Z ; CGuildCombat1to1Mng::SetTeleportToStage
PUBLIC	??1?$vector@VCGuildCombat1to1@@V?$allocator@VCGuildCombat1to1@@@std@@@std@@QAE@XZ ; std::vector<CGuildCombat1to1,std::allocator<CGuildCombat1to1> >::~vector<CGuildCombat1to1,std::allocator<CGuildCombat1to1> >
PUBLIC	?_Xlength@?$vector@VCGuildCombat1to1@@V?$allocator@VCGuildCombat1to1@@@std@@@std@@CAXXZ ; std::vector<CGuildCombat1to1,std::allocator<CGuildCombat1to1> >::_Xlength
PUBLIC	?deallocate@?$allocator@U__GC1TO1TENDER@CGuildCombat1to1Mng@@@std@@QAEXQAU__GC1TO1TENDER@CGuildCombat1to1Mng@@I@Z ; std::allocator<CGuildCombat1to1Mng::__GC1TO1TENDER>::deallocate
PUBLIC	??1?$vector@U__GC1TO1TENDER@CGuildCombat1to1Mng@@V?$allocator@U__GC1TO1TENDER@CGuildCombat1to1Mng@@@std@@@std@@QAE@XZ ; std::vector<CGuildCombat1to1Mng::__GC1TO1TENDER,std::allocator<CGuildCombat1to1Mng::__GC1TO1TENDER> >::~vector<CGuildCombat1to1Mng::__GC1TO1TENDER,std::allocator<CGuildCombat1to1Mng::__GC1TO1TENDER> >
PUBLIC	?push_back@?$vector@U__GC1TO1TENDER@CGuildCombat1to1Mng@@V?$allocator@U__GC1TO1TENDER@CGuildCombat1to1Mng@@@std@@@std@@QAEXABU__GC1TO1TENDER@CGuildCombat1to1Mng@@@Z ; std::vector<CGuildCombat1to1Mng::__GC1TO1TENDER,std::allocator<CGuildCombat1to1Mng::__GC1TO1TENDER> >::push_back
PUBLIC	?erase@?$vector@U__GC1TO1TENDER@CGuildCombat1to1Mng@@V?$allocator@U__GC1TO1TENDER@CGuildCombat1to1Mng@@@std@@@std@@QAE?AV?$_Vector_iterator@V?$_Vector_val@U?$_Simple_types@U__GC1TO1TENDER@CGuildCombat1to1Mng@@@std@@@std@@@2@V?$_Vector_const_iterator@V?$_Vector_val@U?$_Simple_types@U__GC1TO1TENDER@CGuildCombat1to1Mng@@@std@@@std@@@2@@Z ; std::vector<CGuildCombat1to1Mng::__GC1TO1TENDER,std::allocator<CGuildCombat1to1Mng::__GC1TO1TENDER> >::erase
PUBLIC	?_Buy_raw@?$vector@U__GC1TO1TENDER@CGuildCombat1to1Mng@@V?$allocator@U__GC1TO1TENDER@CGuildCombat1to1Mng@@@std@@@std@@AAEXI@Z ; std::vector<CGuildCombat1to1Mng::__GC1TO1TENDER,std::allocator<CGuildCombat1to1Mng::__GC1TO1TENDER> >::_Buy_raw
PUBLIC	?_Tidy@?$vector@U__GC1TO1TENDER@CGuildCombat1to1Mng@@V?$allocator@U__GC1TO1TENDER@CGuildCombat1to1Mng@@@std@@@std@@AAEXXZ ; std::vector<CGuildCombat1to1Mng::__GC1TO1TENDER,std::allocator<CGuildCombat1to1Mng::__GC1TO1TENDER> >::_Tidy
PUBLIC	?_Xlength@?$vector@U__GC1TO1TENDER@CGuildCombat1to1Mng@@V?$allocator@U__GC1TO1TENDER@CGuildCombat1to1Mng@@@std@@@std@@CAXXZ ; std::vector<CGuildCombat1to1Mng::__GC1TO1TENDER,std::allocator<CGuildCombat1to1Mng::__GC1TO1TENDER> >::_Xlength
PUBLIC	??_GCGuildCombat1to1Mng@@UAEPAXI@Z		; CGuildCombat1to1Mng::`scalar deleting destructor'
PUBLIC	??0CGuildCombat1to1@@QAE@AAV?$vector@U__GC1TO1TENDER@CGuildCombat1to1Mng@@V?$allocator@U__GC1TO1TENDER@CGuildCombat1to1Mng@@@std@@@std@@H@Z ; CGuildCombat1to1::CGuildCombat1to1
PUBLIC	??1CGuildCombat1to1@@UAE@XZ			; CGuildCombat1to1::~CGuildCombat1to1
PUBLIC	?ClearTime@CGuildCombat1to1@@QAEXXZ		; CGuildCombat1to1::ClearTime
PUBLIC	?Process@CGuildCombat1to1@@QAEXXZ		; CGuildCombat1to1::Process
PUBLIC	?SendNowState@CGuildCombat1to1@@QAEXPAVCUser@@@Z ; CGuildCombat1to1::SendNowState
PUBLIC	?SendNowStateAllPlayer@CGuildCombat1to1@@QAEXXZ	; CGuildCombat1to1::SendNowStateAllPlayer
PUBLIC	?SendWarResultAllPlayer@CGuildCombat1to1@@QAEXXZ ; CGuildCombat1to1::SendWarResultAllPlayer
PUBLIC	?IsPossibleUser@CGuildCombat1to1@@QAEHPAVCUser@@@Z ; CGuildCombat1to1::IsPossibleUser
PUBLIC	?GetChipNum@CGuildCombat1to1@@QAEHXZ		; CGuildCombat1to1::GetChipNum
PUBLIC	?SetWinChip@CGuildCombat1to1@@QAEXPAVCUser@@0HH@Z ; CGuildCombat1to1::SetWinChip
PUBLIC	?GuildCombat1to1CloseWait@CGuildCombat1to1@@QAEXXZ ; CGuildCombat1to1::GuildCombat1to1CloseWait
PUBLIC	?GuildCombat1to1Close@CGuildCombat1to1@@QAEXXZ	; CGuildCombat1to1::GuildCombat1to1Close
PUBLIC	?GuildCombat1to1WarWait@CGuildCombat1to1@@QAEXXZ ; CGuildCombat1to1::GuildCombat1to1WarWait
PUBLIC	?GuildCombat1to1War@CGuildCombat1to1@@QAEXXZ	; CGuildCombat1to1::GuildCombat1to1War
PUBLIC	?GuildCombat1to1WarResultCheck@CGuildCombat1to1@@QAEXHPAVCUser@@@Z ; CGuildCombat1to1::GuildCombat1to1WarResultCheck
PUBLIC	?SetLost@CGuildCombat1to1@@QAEXPAVCUser@@@Z	; CGuildCombat1to1::SetLost
PUBLIC	?SetLastWinState@CGuildCombat1to1@@QAEXH@Z	; CGuildCombat1to1::SetLastWinState
PUBLIC	?SetTeleportToWaitStage@CGuildCombat1to1@@QAEXPAVCUser@@@Z ; CGuildCombat1to1::SetTeleportToWaitStage
PUBLIC	?SetTeleportToWarStage@CGuildCombat1to1@@QAEXPAVCUser@@@Z ; CGuildCombat1to1::SetTeleportToWarStage
PUBLIC	?SetTeleportToWaitStageNowPlayers@CGuildCombat1to1@@QAEXXZ ; CGuildCombat1to1::SetTeleportToWaitStageNowPlayers
PUBLIC	??0CGuildCombat1to1@@QAE@ABV0@@Z		; CGuildCombat1to1::CGuildCombat1to1
PUBLIC	??_GCGuildCombat1to1@@UAEPAXI@Z			; CGuildCombat1to1::`scalar deleting destructor'
PUBLIC	??$_Erase_tree@V?$allocator@U?$_Tree_node@U?$pair@$$CBHH@std@@PAX@std@@@std@@@?$_Tree_val@U?$_Tree_simple_types@U?$pair@$$CBHH@std@@@std@@@std@@QAEXAAV?$allocator@U?$_Tree_node@U?$pair@$$CBHH@std@@PAX@std@@@1@PAU?$_Tree_node@U?$pair@$$CBHH@std@@PAX@1@@Z ; std::_Tree_val<std::_Tree_simple_types<std::pair<int const ,int> > >::_Erase_tree<std::allocator<std::_Tree_node<std::pair<int const ,int>,void *> > >
PUBLIC	??$_Allocate_manually_vector_aligned@U_Default_allocate_traits@std@@@std@@YAPAXI@Z ; std::_Allocate_manually_vector_aligned<std::_Default_allocate_traits>
PUBLIC	??1?$_Tree@V?$_Tmap_traits@HHU?$less@H@std@@V?$allocator@U?$pair@$$CBHH@std@@@2@$00@std@@@std@@QAE@XZ ; std::_Tree<std::_Tmap_traits<int,int,std::less<int>,std::allocator<std::pair<int const ,int> >,1> >::~_Tree<std::_Tmap_traits<int,int,std::less<int>,std::allocator<std::pair<int const ,int> >,1> >
PUBLIC	??1?$multimap@HHU?$less@H@std@@V?$allocator@U?$pair@$$CBHH@std@@@2@@std@@QAE@XZ ; std::multimap<int,int,std::less<int>,std::allocator<std::pair<int const ,int> > >::~multimap<int,int,std::less<int>,std::allocator<std::pair<int const ,int> > >
PUBLIC	??$_Assign_counted_range@PAU__GC1TO1TENDER@CGuildCombat1to1Mng@@@?$vector@U__GC1TO1TENDER@CGuildCombat1to1Mng@@V?$allocator@U__GC1TO1TENDER@CGuildCombat1to1Mng@@@std@@@std@@AAEXPAU__GC1TO1TENDER@CGuildCombat1to1Mng@@I@Z ; std::vector<CGuildCombat1to1Mng::__GC1TO1TENDER,std::allocator<CGuildCombat1to1Mng::__GC1TO1TENDER> >::_Assign_counted_range<CGuildCombat1to1Mng::__GC1TO1TENDER *>
PUBLIC	??$_Uninitialized_copy_n@PAU__GC1TO1TENDER@CGuildCombat1to1Mng@@V?$allocator@U__GC1TO1TENDER@CGuildCombat1to1Mng@@@std@@@std@@YAPAU__GC1TO1TENDER@CGuildCombat1to1Mng@@PAU12@I0AAV?$allocator@U__GC1TO1TENDER@CGuildCombat1to1Mng@@@0@@Z ; std::_Uninitialized_copy_n<CGuildCombat1to1Mng::__GC1TO1TENDER *,std::allocator<CGuildCombat1to1Mng::__GC1TO1TENDER> >
PUBLIC	??$_Emplace_reallocate@ABU__GC1TO1TENDER@CGuildCombat1to1Mng@@@?$vector@U__GC1TO1TENDER@CGuildCombat1to1Mng@@V?$allocator@U__GC1TO1TENDER@CGuildCombat1to1Mng@@@std@@@std@@AAEPAU__GC1TO1TENDER@CGuildCombat1to1Mng@@QAU23@ABU23@@Z ; std::vector<CGuildCombat1to1Mng::__GC1TO1TENDER,std::allocator<CGuildCombat1to1Mng::__GC1TO1TENDER> >::_Emplace_reallocate<CGuildCombat1to1Mng::__GC1TO1TENDER const &>
PUBLIC	??$_Emplace_reallocate@ABVCGuildCombat1to1@@@?$vector@VCGuildCombat1to1@@V?$allocator@VCGuildCombat1to1@@@std@@@std@@AAEPAVCGuildCombat1to1@@QAV2@ABV2@@Z ; std::vector<CGuildCombat1to1,std::allocator<CGuildCombat1to1> >::_Emplace_reallocate<CGuildCombat1to1 const &>
PUBLIC	??$_Copy_memmove_n@PAKPAK@std@@YAPAKPAKI0@Z	; std::_Copy_memmove_n<unsigned long *,unsigned long *>
PUBLIC	??1?$_Uninitialized_backout_al@V?$allocator@U__GC1TO1TENDER@CGuildCombat1to1Mng@@@std@@@std@@QAE@XZ ; std::_Uninitialized_backout_al<std::allocator<CGuildCombat1to1Mng::__GC1TO1TENDER> >::~_Uninitialized_backout_al<std::allocator<CGuildCombat1to1Mng::__GC1TO1TENDER> >
PUBLIC	??1_Reallocation_guard@?$vector@U__GC1TO1TENDER@CGuildCombat1to1Mng@@V?$allocator@U__GC1TO1TENDER@CGuildCombat1to1Mng@@@std@@@std@@QAE@XZ ; std::vector<CGuildCombat1to1Mng::__GC1TO1TENDER,std::allocator<CGuildCombat1to1Mng::__GC1TO1TENDER> >::_Reallocation_guard::~_Reallocation_guard
PUBLIC	??$_Uninitialized_move@PAU__GC1TO1TENDER@CGuildCombat1to1Mng@@V?$allocator@U__GC1TO1TENDER@CGuildCombat1to1Mng@@@std@@@std@@YAPAU__GC1TO1TENDER@CGuildCombat1to1Mng@@QAU12@0PAU12@AAV?$allocator@U__GC1TO1TENDER@CGuildCombat1to1Mng@@@0@@Z ; std::_Uninitialized_move<CGuildCombat1to1Mng::__GC1TO1TENDER *,std::allocator<CGuildCombat1to1Mng::__GC1TO1TENDER> >
PUBLIC	??1_Reallocation_guard@?$vector@VCGuildCombat1to1@@V?$allocator@VCGuildCombat1to1@@@std@@@std@@QAE@XZ ; std::vector<CGuildCombat1to1,std::allocator<CGuildCombat1to1> >::_Reallocation_guard::~_Reallocation_guard
PUBLIC	??$_Uninitialized_move@PAVCGuildCombat1to1@@V?$allocator@VCGuildCombat1to1@@@std@@@std@@YAPAVCGuildCombat1to1@@QAV1@0PAV1@AAV?$allocator@VCGuildCombat1to1@@@0@@Z ; std::_Uninitialized_move<CGuildCombat1to1 *,std::allocator<CGuildCombat1to1> >
PUBLIC	??$_Copy_memmove_tail@PAK@std@@YAPAKQBDQAKII@Z	; std::_Copy_memmove_tail<unsigned long *>
PUBLIC	??$_Copy_memmove@PAKPAK@std@@YAPAKPAK00@Z	; std::_Copy_memmove<unsigned long *,unsigned long *>
PUBLIC	??1?$_Alloc_construct_ptr@V?$allocator@U?$_Tree_node@U?$pair@$$CBHH@std@@PAX@std@@@std@@@std@@QAE@XZ ; std::_Alloc_construct_ptr<std::allocator<std::_Tree_node<std::pair<int const ,int>,void *> > >::~_Alloc_construct_ptr<std::allocator<std::_Tree_node<std::pair<int const ,int>,void *> > >
PUBLIC	??1?$_Tree_temp_node@V?$allocator@U?$_Tree_node@U?$pair@$$CBHH@std@@PAX@std@@@std@@@std@@QAE@XZ ; std::_Tree_temp_node<std::allocator<std::_Tree_node<std::pair<int const ,int>,void *> > >::~_Tree_temp_node<std::allocator<std::_Tree_node<std::pair<int const ,int>,void *> > >
PUBLIC	??1?$_Uninitialized_backout_al@V?$allocator@VCGuildCombat1to1@@@std@@@std@@QAE@XZ ; std::_Uninitialized_backout_al<std::allocator<CGuildCombat1to1> >::~_Uninitialized_backout_al<std::allocator<CGuildCombat1to1> >
PUBLIC	??1?$_Tidy_guard@V?$vector@U__GC1TO1TENDER@CGuildCombat1to1Mng@@V?$allocator@U__GC1TO1TENDER@CGuildCombat1to1Mng@@@std@@@std@@@std@@QAE@XZ ; std::_Tidy_guard<std::vector<CGuildCombat1to1Mng::__GC1TO1TENDER,std::allocator<CGuildCombat1to1Mng::__GC1TO1TENDER> > >::~_Tidy_guard<std::vector<CGuildCombat1to1Mng::__GC1TO1TENDER,std::allocator<CGuildCombat1to1Mng::__GC1TO1TENDER> > >
PUBLIC	?_OptionsStorage@?1??__local_stdio_printf_options@@9@4_KA ; `__local_stdio_printf_options'::`2'::_OptionsStorage
PUBLIC	??_C@_02DPKJAMEF@?$CFd@				; `string'
PUBLIC	??_C@_00CNPNBAHC@@				; `string'
PUBLIC	??_7exception@std@@6B@				; std::exception::`vftable'
PUBLIC	??_C@_0BC@EOODALEL@Unknown?5exception@		; `string'
PUBLIC	??_7bad_alloc@std@@6B@				; std::bad_alloc::`vftable'
PUBLIC	??_7bad_array_new_length@std@@6B@		; std::bad_array_new_length::`vftable'
PUBLIC	??_C@_0BF@KINCDENJ@bad?5array?5new?5length@	; `string'
PUBLIC	??_R0?AVexception@std@@@8			; std::exception `RTTI Type Descriptor'
PUBLIC	__CT??_R0?AVexception@std@@@8??0exception@std@@QAE@ABV01@@Z12
PUBLIC	__TI3?AVbad_array_new_length@std@@
PUBLIC	__CTA3?AVbad_array_new_length@std@@
PUBLIC	??_R0?AVbad_array_new_length@std@@@8		; std::bad_array_new_length `RTTI Type Descriptor'
PUBLIC	__CT??_R0?AVbad_array_new_length@std@@@8??0bad_array_new_length@std@@QAE@ABV01@@Z12
PUBLIC	??_R0?AVbad_alloc@std@@@8			; std::bad_alloc `RTTI Type Descriptor'
PUBLIC	__CT??_R0?AVbad_alloc@std@@@8??0bad_alloc@std@@QAE@ABV01@@Z12
PUBLIC	??_C@_0BB@GCADKGJO@map?1set?5too?5long@		; `string'
PUBLIC	??_C@_0BM@HMFGHCP@?$CFs?5min?3?$CFd?0?5max?3?$CFd?0?5index?3?$CFd@ ; `string'
PUBLIC	??_C@_0BI@BEIFNGEL@GetItemProp?5range_error@	; `string'
PUBLIC	??_C@_0BE@OHDBLHOM@GetText?5range_error@	; `string'
PUBLIC	??_C@_05KKCIMGE@error@				; `string'
PUBLIC	??_7CGuildCombat1to1Mng@@6B@			; CGuildCombat1to1Mng::`vftable'
PUBLIC	??_7CGuildCombat1to1@@6B@			; CGuildCombat1to1::`vftable'
PUBLIC	??_C@_0BA@FOIKENOD@vector?5too?5long@		; `string'
PUBLIC	??_R4exception@std@@6B@				; std::exception::`RTTI Complete Object Locator'
PUBLIC	??_R3exception@std@@8				; std::exception::`RTTI Class Hierarchy Descriptor'
PUBLIC	??_R2exception@std@@8				; std::exception::`RTTI Base Class Array'
PUBLIC	??_R1A@?0A@EA@exception@std@@8			; std::exception::`RTTI Base Class Descriptor at (0,-1,0,64)'
PUBLIC	??_R4bad_array_new_length@std@@6B@		; std::bad_array_new_length::`RTTI Complete Object Locator'
PUBLIC	??_R3bad_array_new_length@std@@8		; std::bad_array_new_length::`RTTI Class Hierarchy Descriptor'
PUBLIC	??_R2bad_array_new_length@std@@8		; std::bad_array_new_length::`RTTI Base Class Array'
PUBLIC	??_R1A@?0A@EA@bad_array_new_length@std@@8	; std::bad_array_new_length::`RTTI Base Class Descriptor at (0,-1,0,64)'
PUBLIC	??_R1A@?0A@EA@bad_alloc@std@@8			; std::bad_alloc::`RTTI Base Class Descriptor at (0,-1,0,64)'
PUBLIC	??_R3bad_alloc@std@@8				; std::bad_alloc::`RTTI Class Hierarchy Descriptor'
PUBLIC	??_R2bad_alloc@std@@8				; std::bad_alloc::`RTTI Base Class Array'
PUBLIC	??_R4bad_alloc@std@@6B@				; std::bad_alloc::`RTTI Complete Object Locator'
PUBLIC	??_C@_08DJDJLEPK@?$CFd?5?$CFs?5?$CFs@		; `string'
PUBLIC	??_C@_0L@EMGOBKLG@WinChipNum@			; `string'
PUBLIC	??_C@_01ELNMCGJD@W@				; `string'
PUBLIC	??_C@_0BF@DIDDJIGH@GUILDCOMBAT1TO1_CHIP@	; `string'
PUBLIC	??_C@_0BH@CEBJEENP@GUILDCOMBAT1TO1_G_CHIP@	; `string'
PUBLIC	??_C@_0BK@NEMFLABP@GUILDCOMBAT1TO1_CHIP_POST@	; `string'
PUBLIC	??_C@_0BM@NHABGLPL@GUILDCOMBAT1TO1_CHIP_G_POST@	; `string'
PUBLIC	??_C@_0BB@JBOIJMPD@WarCloseWaitTime@		; `string'
PUBLIC	??_C@_0M@PIPIEKCG@WarWaitTime@			; `string'
PUBLIC	??_C@_07HNCNCHMB@WarTime@			; `string'
PUBLIC	??_C@_0BA@CPGKGMAH@Not?5Exist?5World@		; `string'
PUBLIC	??_C@_0BE@BGEDOEJD@GuildCombat1to1?4lua@	; `string'
PUBLIC	??_C@_0N@CHPIPPI@MinJoinPenya@			; `string'
PUBLIC	??_C@_0O@JHCECGHF@MinGuildLevel@		; `string'
PUBLIC	??_C@_0N@IGABIHDO@MinJoinGuild@			; `string'
PUBLIC	??_C@_0N@MGEOPPEI@MaxJoinGuild@			; `string'
PUBLIC	??_C@_0O@MDLHABA@MinJoinPlayer@			; `string'
PUBLIC	??_C@_0O@LFBNOLGB@MaxJoinPlayer@		; `string'
PUBLIC	??_C@_0BD@GPBMJCGJ@MinJoinPlayerLevel@		; `string'
PUBLIC	??_C@_0BB@FDEBMJPD@CancelReturnRate@		; `string'
PUBLIC	??_C@_0P@OIBAJGIA@FailReturnRate@		; `string'
PUBLIC	??_C@_0L@MPIDICKM@PlayerLife@			; `string'
PUBLIC	??_C@_0BB@GGCDBPMB@MemberLineUpTime@		; `string'
PUBLIC	??_C@_0BC@GNPCANLG@GetRemainNextTime@		; `string'
PUBLIC	??_C@_01LAKCGALK@9@				; `string'
PUBLIC	??_C@_0BA@PCMILOFB@GUILDCOMBAT1TO1@		; `string'
PUBLIC	??_C@_0BN@FMNHPOCB@GUILDCOMBAT1TO1_CANCELRETURN@ ; `string'
PUBLIC	??_C@_0BL@EBGKHODH@GUILDCOMBAT1TO1_FAILRETURN@	; `string'
PUBLIC	??_C@_0BB@LKDDGLJJ@EntranceWaitTime@		; `string'
PUBLIC	??_C@_06NDLDHKAP@flaris@			; `string'
PUBLIC	??_R4CGuildCombat1to1@@6B@			; CGuildCombat1to1::`RTTI Complete Object Locator'
PUBLIC	??_R0?AVCGuildCombat1to1@@@8			; CGuildCombat1to1 `RTTI Type Descriptor'
PUBLIC	??_R3CGuildCombat1to1@@8			; CGuildCombat1to1::`RTTI Class Hierarchy Descriptor'
PUBLIC	??_R2CGuildCombat1to1@@8			; CGuildCombat1to1::`RTTI Base Class Array'
PUBLIC	??_R1A@?0A@EA@CGuildCombat1to1@@8		; CGuildCombat1to1::`RTTI Base Class Descriptor at (0,-1,0,64)'
PUBLIC	??_R4CGuildCombat1to1Mng@@6B@			; CGuildCombat1to1Mng::`RTTI Complete Object Locator'
PUBLIC	??_R0?AVCGuildCombat1to1Mng@@@8			; CGuildCombat1to1Mng `RTTI Type Descriptor'
PUBLIC	??_R3CGuildCombat1to1Mng@@8			; CGuildCombat1to1Mng::`RTTI Class Hierarchy Descriptor'
PUBLIC	??_R2CGuildCombat1to1Mng@@8			; CGuildCombat1to1Mng::`RTTI Base Class Array'
PUBLIC	??_R1A@?0A@EA@CGuildCombat1to1Mng@@8		; CGuildCombat1to1Mng::`RTTI Base Class Descriptor at (0,-1,0,64)'
PUBLIC	__real@42c80000
EXTRN	??2@YAPAXI@Z:PROC				; operator new
EXTRN	??3@YAXPAXI@Z:PROC				; operator delete
EXTRN	__invalid_parameter_noinfo:PROC
EXTRN	__invoke_watson:PROC
EXTRN	__errno:PROC
EXTRN	__imp__GetTickCount@0:PROC
EXTRN	__imp__LoadResource@8:PROC
EXTRN	__imp__LockResource@4:PROC
EXTRN	__imp__SizeofResource@8:PROC
EXTRN	__imp__FindResourceW@12:PROC
EXTRN	__imp__WideCharToMultiByte@32:PROC
EXTRN	___stdio_common_vsprintf:PROC
EXTRN	___stdio_common_vsprintf_s:PROC
EXTRN	?AfxThrowMemoryException@@YGXXZ:PROC		; AfxThrowMemoryException
EXTRN	?AfxThrowOleException@@YGXJ@Z:PROC		; AfxThrowOleException
EXTRN	?AfxFindStringResourceHandle@@YGPAUHINSTANCE__@@I@Z:PROC ; AfxFindStringResourceHandle
EXTRN	?AfxGetStringManager@@YGPAUIAtlStringMgr@ATL@@XZ:PROC ; AfxGetStringManager
EXTRN	___std_exception_copy:PROC
EXTRN	___std_exception_destroy:PROC
EXTRN	??_Eexception@std@@UAEPAXI@Z:PROC		; std::exception::`vector deleting destructor'
EXTRN	??_Ebad_alloc@std@@UAEPAXI@Z:PROC		; std::bad_alloc::`vector deleting destructor'
EXTRN	??_Ebad_array_new_length@std@@UAEPAXI@Z:PROC	; std::bad_array_new_length::`vector deleting destructor'
EXTRN	?_Xlength_error@std@@YAXPBD@Z:PROC		; std::_Xlength_error
EXTRN	?Error@@YAPBDPBDZZ:PROC				; Error
EXTRN	?SetAngle@CObj@@QAEXM@Z:PROC			; CObj::SetAngle
EXTRN	_lua_tonumberx:PROC
EXTRN	??0CLuaBase@@QAE@XZ:PROC			; CLuaBase::CLuaBase
EXTRN	??1CLuaBase@@UAE@XZ:PROC			; CLuaBase::~CLuaBase
EXTRN	?RunScript@CLuaBase@@QAEHPBD@Z:PROC		; CLuaBase::RunScript
EXTRN	?Pop@CLuaBase@@QAEXH@Z:PROC			; CLuaBase::Pop
EXTRN	?GetGlobalNumber@CLuaBase@@QAENPAD@Z:PROC	; CLuaBase::GetGlobalNumber
EXTRN	?GetLuaFunction@CLuaBase@@QAEHPAD@Z:PROC	; CLuaBase::GetLuaFunction
EXTRN	?CallLuaFunction@CLuaBase@@QAEXHH@Z:PROC	; CLuaBase::CallLuaFunction
EXTRN	?SetSerialNumber@CItemBase@@QAEXXZ:PROC		; CItemBase::SetSerialNumber
EXTRN	??0CItemElem@@QAE@XZ:PROC			; CItemElem::CItemElem
EXTRN	??1CItemElem@@UAE@XZ:PROC			; CItemElem::~CItemElem
EXTRN	?RemoveCommonBuffs@CMover@@QAEXXZ:PROC		; CMover::RemoveCommonBuffs
EXTRN	?GetName@CMover@@QAEPBDH@Z:PROC			; CMover::GetName
EXTRN	?AddGold@CMover@@QAEHHH@Z:PROC			; CMover::AddGold
EXTRN	?GetItemNum@CMover@@QAEHK@Z:PROC		; CMover::GetItemNum
EXTRN	?GetGuild@CMover@@QAEPAVCGuild@@XZ:PROC		; CMover::GetGuild
EXTRN	?CreateItem@CMover@@QAEHPAVCItemBase@@PAEPAFE@Z:PROC ; CMover::CreateItem
EXTRN	?Replace@CMover@@QAEHKKAAUD3DXVECTOR3@@W4REPLACE_TYPE@@H@Z:PROC ; CMover::Replace
EXTRN	?GetState@CFlyffEvent@@QAEEH@Z:PROC		; CFlyffEvent::GetState
EXTRN	??_ECGuildCombat1to1Mng@@UAEPAXI@Z:PROC		; CGuildCombat1to1Mng::`vector deleting destructor'
EXTRN	??_ECGuildCombat1to1@@UAEPAXI@Z:PROC		; CGuildCombat1to1::`vector deleting destructor'
EXTRN	?GetWorld@CWorldMng@@QAEPAVCWorld@@K@Z:PROC	; CWorldMng::GetWorld
EXTRN	?GetRevivalPos@CWorldMng@@QAEPAUREGIONELEM@@KPBD@Z:PROC ; CWorldMng::GetRevivalPos
EXTRN	?GetMember@CGuild@@QAEPAVCGuildMember@@K@Z:PROC	; CGuild::GetMember
EXTRN	?GetGuild@CGuildMng@@QAEPAVCGuild@@K@Z:PROC	; CGuildMng::GetGuild
EXTRN	?FindGuildCombatMember@CGuildCombat@@QAEPAU__GuildCombatMember@1@K@Z:PROC ; CGuildCombat::FindGuildCombatMember
EXTRN	?AddDiagText@CUser@@QAEXPBD@Z:PROC		; CUser::AddDiagText
EXTRN	?AddText@CUser@@QAEXPBD@Z:PROC			; CUser::AddText
EXTRN	?AddDefinedText@CUser@@QAAXHPBDZZ:PROC		; CUser::AddDefinedText
EXTRN	?AddDefinedText@CUser@@QAEXH@Z:PROC		; CUser::AddDefinedText
EXTRN	?AddDefinedCaption@CUser@@QAAXHHPBDZZ:PROC	; CUser::AddDefinedCaption
EXTRN	?AddGC1to1TenderOpenWnd@CUser@@QAEXH@Z:PROC	; CUser::AddGC1to1TenderOpenWnd
EXTRN	?AddGC1to1TenderGuildView@CUser@@QAEXHHJAAV?$vector@U__GC1TO1TENDER@CGuildCombat1to1Mng@@V?$allocator@U__GC1TO1TENDER@CGuildCombat1to1Mng@@@std@@@std@@@Z:PROC ; CUser::AddGC1to1TenderGuildView
EXTRN	?AddGC1to1MemberLineUpOpenWnd@CUser@@QAEXAAV?$vector@KV?$allocator@K@std@@@std@@@Z:PROC ; CUser::AddGC1to1MemberLineUpOpenWnd
EXTRN	?AddGC1to1NowState@CUser@@QAEXHHH@Z:PROC	; CUser::AddGC1to1NowState
EXTRN	?AddGC1to1WarResult@CUser@@QAEXHKHH@Z:PROC	; CUser::AddGC1to1WarResult
EXTRN	?AddRemoveAllSkillInfluence@CUserMng@@QAEXPAVCMover@@@Z:PROC ; CUserMng::AddRemoveAllSkillInfluence
EXTRN	?AddGuildCombatUserState@CUserMng@@QAEXPAVCMover@@@Z:PROC ; CUserMng::AddGuildCombatUserState
EXTRN	?SendCaption@CDPCoreClient@@QAEXPBDKH@Z:PROC	; CDPCoreClient::SendCaption
EXTRN	?SendGCRemoveParty@CDPCoreClient@@QAEXKK@Z:PROC	; CDPCoreClient::SendGCRemoveParty
EXTRN	?SendQueryPostMail@CDPDatabaseClient@@QAEXKKAAVCItemElem@@HPAD1@Z:PROC ; CDPDatabaseClient::SendQueryPostMail
EXTRN	?SendGC1to1StateToDBSrvr@CDPDatabaseClient@@QAEXXZ:PROC ; CDPDatabaseClient::SendGC1to1StateToDBSrvr
EXTRN	?SendGC1to1Tender@CDPDatabaseClient@@QAEXDKHD@Z:PROC ; CDPDatabaseClient::SendGC1to1Tender
EXTRN	?SendGC1to1LineUp@CDPDatabaseClient@@QAEXKAAV?$vector@KV?$allocator@K@std@@@std@@@Z:PROC ; CDPDatabaseClient::SendGC1to1LineUp
EXTRN	?SendGC1to1WarPerson@CDPDatabaseClient@@QAEXKKD@Z:PROC ; CDPDatabaseClient::SendGC1to1WarPerson
EXTRN	?SendGC1to1WarGuild@CDPDatabaseClient@@QAEXKKKD@Z:PROC ; CDPDatabaseClient::SendGC1to1WarGuild
EXTRN	?OnLogItem@CDPSrvr@@QAEXAAU_LogItemInfo@@PAVCItemElem@@H@Z:PROC ; CDPSrvr::OnLogItem
EXTRN	@__security_check_cookie@4:PROC
EXTRN	__CxxThrowException@8:PROC
EXTRN	___CxxFrameHandler3:PROC
EXTRN	__ftol2_sse:PROC
EXTRN	_memcpy:PROC
EXTRN	_memmove:PROC
EXTRN	_memset:PROC
EXTRN	??_7type_info@@6B@:QWORD			; type_info::`vftable'
EXTRN	?g_next@@3KA:DWORD				; g_next
EXTRN	?prj@@3VCProject@@A:BYTE			; prj
EXTRN	?g_uIdofMulti@@3KA:DWORD			; g_uIdofMulti
EXTRN	?g_eLocal@@3VCFlyffEvent@@A:BYTE		; g_eLocal
EXTRN	?g_GuildCombat1to1Mng@@3VCGuildCombat1to1Mng@@A:BYTE ; g_GuildCombat1to1Mng
EXTRN	?g_WorldMng@@3VCWorldMng@@A:BYTE		; g_WorldMng
EXTRN	?g_DPSrvr@@3VCDPSrvr@@A:BYTE			; g_DPSrvr
EXTRN	?g_GuildMng@@3VCGuildMng@@A:BYTE		; g_GuildMng
EXTRN	?g_UserMng@@3VCUserMng@@A:BYTE			; g_UserMng
EXTRN	?g_DPCoreClient@@3VCDPCoreClient@@A:BYTE	; g_DPCoreClient
EXTRN	?g_GuildCombatMng@@3VCGuildCombat@@A:BYTE	; g_GuildCombatMng
EXTRN	?g_dpDBClient@@3VCDPDatabaseClient@@A:BYTE	; g_dpDBClient
EXTRN	___security_cookie:DWORD
EXTRN	__fltused:DWORD
;	COMDAT ?_OptionsStorage@?1??__local_stdio_printf_options@@9@4_KA
_BSS	SEGMENT
?_OptionsStorage@?1??__local_stdio_printf_options@@9@4_KA DQ 01H DUP (?) ; `__local_stdio_printf_options'::`2'::_OptionsStorage
_BSS	ENDS
;	COMDAT __real@42c80000
CONST	SEGMENT
__real@42c80000 DD 042c80000r			; 100
CONST	ENDS
;	COMDAT ??_R1A@?0A@EA@CGuildCombat1to1Mng@@8
rdata$r	SEGMENT
??_R1A@?0A@EA@CGuildCombat1to1Mng@@8 DD FLAT:??_R0?AVCGuildCombat1to1Mng@@@8 ; CGuildCombat1to1Mng::`RTTI Base Class Descriptor at (0,-1,0,64)'
	DD	00H
	DD	00H
	DD	0ffffffffH
	DD	00H
	DD	040H
	DD	FLAT:??_R3CGuildCombat1to1Mng@@8
rdata$r	ENDS
;	COMDAT ??_R2CGuildCombat1to1Mng@@8
rdata$r	SEGMENT
??_R2CGuildCombat1to1Mng@@8 DD FLAT:??_R1A@?0A@EA@CGuildCombat1to1Mng@@8 ; CGuildCombat1to1Mng::`RTTI Base Class Array'
rdata$r	ENDS
;	COMDAT ??_R3CGuildCombat1to1Mng@@8
rdata$r	SEGMENT
??_R3CGuildCombat1to1Mng@@8 DD 00H			; CGuildCombat1to1Mng::`RTTI Class Hierarchy Descriptor'
	DD	00H
	DD	01H
	DD	FLAT:??_R2CGuildCombat1to1Mng@@8
rdata$r	ENDS
;	COMDAT ??_R0?AVCGuildCombat1to1Mng@@@8
data$rs	SEGMENT
??_R0?AVCGuildCombat1to1Mng@@@8 DD FLAT:??_7type_info@@6B@ ; CGuildCombat1to1Mng `RTTI Type Descriptor'
	DD	00H
	DB	'.?AVCGuildCombat1to1Mng@@', 00H
data$rs	ENDS
;	COMDAT ??_R4CGuildCombat1to1Mng@@6B@
rdata$r	SEGMENT
??_R4CGuildCombat1to1Mng@@6B@ DD 00H			; CGuildCombat1to1Mng::`RTTI Complete Object Locator'
	DD	00H
	DD	00H
	DD	FLAT:??_R0?AVCGuildCombat1to1Mng@@@8
	DD	FLAT:??_R3CGuildCombat1to1Mng@@8
rdata$r	ENDS
;	COMDAT ??_R1A@?0A@EA@CGuildCombat1to1@@8
rdata$r	SEGMENT
??_R1A@?0A@EA@CGuildCombat1to1@@8 DD FLAT:??_R0?AVCGuildCombat1to1@@@8 ; CGuildCombat1to1::`RTTI Base Class Descriptor at (0,-1,0,64)'
	DD	00H
	DD	00H
	DD	0ffffffffH
	DD	00H
	DD	040H
	DD	FLAT:??_R3CGuildCombat1to1@@8
rdata$r	ENDS
;	COMDAT ??_R2CGuildCombat1to1@@8
rdata$r	SEGMENT
??_R2CGuildCombat1to1@@8 DD FLAT:??_R1A@?0A@EA@CGuildCombat1to1@@8 ; CGuildCombat1to1::`RTTI Base Class Array'
rdata$r	ENDS
;	COMDAT ??_R3CGuildCombat1to1@@8
rdata$r	SEGMENT
??_R3CGuildCombat1to1@@8 DD 00H				; CGuildCombat1to1::`RTTI Class Hierarchy Descriptor'
	DD	00H
	DD	01H
	DD	FLAT:??_R2CGuildCombat1to1@@8
rdata$r	ENDS
;	COMDAT ??_R0?AVCGuildCombat1to1@@@8
data$rs	SEGMENT
??_R0?AVCGuildCombat1to1@@@8 DD FLAT:??_7type_info@@6B@	; CGuildCombat1to1 `RTTI Type Descriptor'
	DD	00H
	DB	'.?AVCGuildCombat1to1@@', 00H
data$rs	ENDS
;	COMDAT ??_R4CGuildCombat1to1@@6B@
rdata$r	SEGMENT
??_R4CGuildCombat1to1@@6B@ DD 00H			; CGuildCombat1to1::`RTTI Complete Object Locator'
	DD	00H
	DD	00H
	DD	FLAT:??_R0?AVCGuildCombat1to1@@@8
	DD	FLAT:??_R3CGuildCombat1to1@@8
rdata$r	ENDS
;	COMDAT ??_C@_06NDLDHKAP@flaris@
CONST	SEGMENT
??_C@_06NDLDHKAP@flaris@ DB 'flaris', 00H		; `string'
CONST	ENDS
;	COMDAT ??_C@_0BB@LKDDGLJJ@EntranceWaitTime@
CONST	SEGMENT
??_C@_0BB@LKDDGLJJ@EntranceWaitTime@ DB 'EntranceWaitTime', 00H ; `string'
CONST	ENDS
;	COMDAT ??_C@_0BL@EBGKHODH@GUILDCOMBAT1TO1_FAILRETURN@
CONST	SEGMENT
??_C@_0BL@EBGKHODH@GUILDCOMBAT1TO1_FAILRETURN@ DB 'GUILDCOMBAT1TO1_FAILRE'
	DB	'TURN', 00H					; `string'
CONST	ENDS
;	COMDAT ??_C@_0BN@FMNHPOCB@GUILDCOMBAT1TO1_CANCELRETURN@
CONST	SEGMENT
??_C@_0BN@FMNHPOCB@GUILDCOMBAT1TO1_CANCELRETURN@ DB 'GUILDCOMBAT1TO1_CANC'
	DB	'ELRETURN', 00H				; `string'
CONST	ENDS
;	COMDAT ??_C@_0BA@PCMILOFB@GUILDCOMBAT1TO1@
CONST	SEGMENT
??_C@_0BA@PCMILOFB@GUILDCOMBAT1TO1@ DB 'GUILDCOMBAT1TO1', 00H ; `string'
CONST	ENDS
;	COMDAT ??_C@_01LAKCGALK@9@
CONST	SEGMENT
??_C@_01LAKCGALK@9@ DB '9', 00H				; `string'
CONST	ENDS
;	COMDAT ??_C@_0BC@GNPCANLG@GetRemainNextTime@
CONST	SEGMENT
??_C@_0BC@GNPCANLG@GetRemainNextTime@ DB 'GetRemainNextTime', 00H ; `string'
CONST	ENDS
;	COMDAT ??_C@_0BB@GGCDBPMB@MemberLineUpTime@
CONST	SEGMENT
??_C@_0BB@GGCDBPMB@MemberLineUpTime@ DB 'MemberLineUpTime', 00H ; `string'
CONST	ENDS
;	COMDAT ??_C@_0L@MPIDICKM@PlayerLife@
CONST	SEGMENT
??_C@_0L@MPIDICKM@PlayerLife@ DB 'PlayerLife', 00H	; `string'
CONST	ENDS
;	COMDAT ??_C@_0P@OIBAJGIA@FailReturnRate@
CONST	SEGMENT
??_C@_0P@OIBAJGIA@FailReturnRate@ DB 'FailReturnRate', 00H ; `string'
CONST	ENDS
;	COMDAT ??_C@_0BB@FDEBMJPD@CancelReturnRate@
CONST	SEGMENT
??_C@_0BB@FDEBMJPD@CancelReturnRate@ DB 'CancelReturnRate', 00H ; `string'
CONST	ENDS
;	COMDAT ??_C@_0BD@GPBMJCGJ@MinJoinPlayerLevel@
CONST	SEGMENT
??_C@_0BD@GPBMJCGJ@MinJoinPlayerLevel@ DB 'MinJoinPlayerLevel', 00H ; `string'
CONST	ENDS
;	COMDAT ??_C@_0O@LFBNOLGB@MaxJoinPlayer@
CONST	SEGMENT
??_C@_0O@LFBNOLGB@MaxJoinPlayer@ DB 'MaxJoinPlayer', 00H ; `string'
CONST	ENDS
;	COMDAT ??_C@_0O@MDLHABA@MinJoinPlayer@
CONST	SEGMENT
??_C@_0O@MDLHABA@MinJoinPlayer@ DB 'MinJoinPlayer', 00H	; `string'
CONST	ENDS
;	COMDAT ??_C@_0N@MGEOPPEI@MaxJoinGuild@
CONST	SEGMENT
??_C@_0N@MGEOPPEI@MaxJoinGuild@ DB 'MaxJoinGuild', 00H	; `string'
CONST	ENDS
;	COMDAT ??_C@_0N@IGABIHDO@MinJoinGuild@
CONST	SEGMENT
??_C@_0N@IGABIHDO@MinJoinGuild@ DB 'MinJoinGuild', 00H	; `string'
CONST	ENDS
;	COMDAT ??_C@_0O@JHCECGHF@MinGuildLevel@
CONST	SEGMENT
??_C@_0O@JHCECGHF@MinGuildLevel@ DB 'MinGuildLevel', 00H ; `string'
CONST	ENDS
;	COMDAT ??_C@_0N@CHPIPPI@MinJoinPenya@
CONST	SEGMENT
??_C@_0N@CHPIPPI@MinJoinPenya@ DB 'MinJoinPenya', 00H	; `string'
CONST	ENDS
;	COMDAT ??_C@_0BE@BGEDOEJD@GuildCombat1to1?4lua@
CONST	SEGMENT
??_C@_0BE@BGEDOEJD@GuildCombat1to1?4lua@ DB 'GuildCombat1to1.lua', 00H ; `string'
CONST	ENDS
;	COMDAT ??_C@_0BA@CPGKGMAH@Not?5Exist?5World@
CONST	SEGMENT
??_C@_0BA@CPGKGMAH@Not?5Exist?5World@ DB 'Not Exist World', 00H ; `string'
CONST	ENDS
;	COMDAT ??_C@_07HNCNCHMB@WarTime@
CONST	SEGMENT
??_C@_07HNCNCHMB@WarTime@ DB 'WarTime', 00H		; `string'
CONST	ENDS
;	COMDAT ??_C@_0M@PIPIEKCG@WarWaitTime@
CONST	SEGMENT
??_C@_0M@PIPIEKCG@WarWaitTime@ DB 'WarWaitTime', 00H	; `string'
CONST	ENDS
;	COMDAT ??_C@_0BB@JBOIJMPD@WarCloseWaitTime@
CONST	SEGMENT
??_C@_0BB@JBOIJMPD@WarCloseWaitTime@ DB 'WarCloseWaitTime', 00H ; `string'
CONST	ENDS
;	COMDAT ??_C@_0BM@NHABGLPL@GUILDCOMBAT1TO1_CHIP_G_POST@
CONST	SEGMENT
??_C@_0BM@NHABGLPL@GUILDCOMBAT1TO1_CHIP_G_POST@ DB 'GUILDCOMBAT1TO1_CHIP_'
	DB	'G_POST', 00H				; `string'
CONST	ENDS
;	COMDAT ??_C@_0BK@NEMFLABP@GUILDCOMBAT1TO1_CHIP_POST@
CONST	SEGMENT
??_C@_0BK@NEMFLABP@GUILDCOMBAT1TO1_CHIP_POST@ DB 'GUILDCOMBAT1TO1_CHIP_PO'
	DB	'ST', 00H					; `string'
CONST	ENDS
;	COMDAT ??_C@_0BH@CEBJEENP@GUILDCOMBAT1TO1_G_CHIP@
CONST	SEGMENT
??_C@_0BH@CEBJEENP@GUILDCOMBAT1TO1_G_CHIP@ DB 'GUILDCOMBAT1TO1_G_CHIP', 00H ; `string'
CONST	ENDS
;	COMDAT ??_C@_0BF@DIDDJIGH@GUILDCOMBAT1TO1_CHIP@
CONST	SEGMENT
??_C@_0BF@DIDDJIGH@GUILDCOMBAT1TO1_CHIP@ DB 'GUILDCOMBAT1TO1_CHIP', 00H ; `string'
CONST	ENDS
;	COMDAT ??_C@_01ELNMCGJD@W@
CONST	SEGMENT
??_C@_01ELNMCGJD@W@ DB 'W', 00H				; `string'
CONST	ENDS
;	COMDAT ??_C@_0L@EMGOBKLG@WinChipNum@
CONST	SEGMENT
??_C@_0L@EMGOBKLG@WinChipNum@ DB 'WinChipNum', 00H	; `string'
CONST	ENDS
;	COMDAT ??_C@_08DJDJLEPK@?$CFd?5?$CFs?5?$CFs@
CONST	SEGMENT
??_C@_08DJDJLEPK@?$CFd?5?$CFs?5?$CFs@ DB '%d %s %s', 00H ; `string'
CONST	ENDS
;	COMDAT ??_R4bad_alloc@std@@6B@
rdata$r	SEGMENT
??_R4bad_alloc@std@@6B@ DD 00H				; std::bad_alloc::`RTTI Complete Object Locator'
	DD	00H
	DD	00H
	DD	FLAT:??_R0?AVbad_alloc@std@@@8
	DD	FLAT:??_R3bad_alloc@std@@8
rdata$r	ENDS
;	COMDAT ??_R2bad_alloc@std@@8
rdata$r	SEGMENT
??_R2bad_alloc@std@@8 DD FLAT:??_R1A@?0A@EA@bad_alloc@std@@8 ; std::bad_alloc::`RTTI Base Class Array'
	DD	FLAT:??_R1A@?0A@EA@exception@std@@8
rdata$r	ENDS
;	COMDAT ??_R3bad_alloc@std@@8
rdata$r	SEGMENT
??_R3bad_alloc@std@@8 DD 00H				; std::bad_alloc::`RTTI Class Hierarchy Descriptor'
	DD	00H
	DD	02H
	DD	FLAT:??_R2bad_alloc@std@@8
rdata$r	ENDS
;	COMDAT ??_R1A@?0A@EA@bad_alloc@std@@8
rdata$r	SEGMENT
??_R1A@?0A@EA@bad_alloc@std@@8 DD FLAT:??_R0?AVbad_alloc@std@@@8 ; std::bad_alloc::`RTTI Base Class Descriptor at (0,-1,0,64)'
	DD	01H
	DD	00H
	DD	0ffffffffH
	DD	00H
	DD	040H
	DD	FLAT:??_R3bad_alloc@std@@8
rdata$r	ENDS
;	COMDAT ??_R1A@?0A@EA@bad_array_new_length@std@@8
rdata$r	SEGMENT
??_R1A@?0A@EA@bad_array_new_length@std@@8 DD FLAT:??_R0?AVbad_array_new_length@std@@@8 ; std::bad_array_new_length::`RTTI Base Class Descriptor at (0,-1,0,64)'
	DD	02H
	DD	00H
	DD	0ffffffffH
	DD	00H
	DD	040H
	DD	FLAT:??_R3bad_array_new_length@std@@8
rdata$r	ENDS
;	COMDAT ??_R2bad_array_new_length@std@@8
rdata$r	SEGMENT
??_R2bad_array_new_length@std@@8 DD FLAT:??_R1A@?0A@EA@bad_array_new_length@std@@8 ; std::bad_array_new_length::`RTTI Base Class Array'
	DD	FLAT:??_R1A@?0A@EA@bad_alloc@std@@8
	DD	FLAT:??_R1A@?0A@EA@exception@std@@8
rdata$r	ENDS
;	COMDAT ??_R3bad_array_new_length@std@@8
rdata$r	SEGMENT
??_R3bad_array_new_length@std@@8 DD 00H			; std::bad_array_new_length::`RTTI Class Hierarchy Descriptor'
	DD	00H
	DD	03H
	DD	FLAT:??_R2bad_array_new_length@std@@8
rdata$r	ENDS
;	COMDAT ??_R4bad_array_new_length@std@@6B@
rdata$r	SEGMENT
??_R4bad_array_new_length@std@@6B@ DD 00H		; std::bad_array_new_length::`RTTI Complete Object Locator'
	DD	00H
	DD	00H
	DD	FLAT:??_R0?AVbad_array_new_length@std@@@8
	DD	FLAT:??_R3bad_array_new_length@std@@8
rdata$r	ENDS
;	COMDAT ??_R1A@?0A@EA@exception@std@@8
rdata$r	SEGMENT
??_R1A@?0A@EA@exception@std@@8 DD FLAT:??_R0?AVexception@std@@@8 ; std::exception::`RTTI Base Class Descriptor at (0,-1,0,64)'
	DD	00H
	DD	00H
	DD	0ffffffffH
	DD	00H
	DD	040H
	DD	FLAT:??_R3exception@std@@8
rdata$r	ENDS
;	COMDAT ??_R2exception@std@@8
rdata$r	SEGMENT
??_R2exception@std@@8 DD FLAT:??_R1A@?0A@EA@exception@std@@8 ; std::exception::`RTTI Base Class Array'
rdata$r	ENDS
;	COMDAT ??_R3exception@std@@8
rdata$r	SEGMENT
??_R3exception@std@@8 DD 00H				; std::exception::`RTTI Class Hierarchy Descriptor'
	DD	00H
	DD	01H
	DD	FLAT:??_R2exception@std@@8
rdata$r	ENDS
;	COMDAT ??_R4exception@std@@6B@
rdata$r	SEGMENT
??_R4exception@std@@6B@ DD 00H				; std::exception::`RTTI Complete Object Locator'
	DD	00H
	DD	00H
	DD	FLAT:??_R0?AVexception@std@@@8
	DD	FLAT:??_R3exception@std@@8
rdata$r	ENDS
;	COMDAT ??_C@_0BA@FOIKENOD@vector?5too?5long@
CONST	SEGMENT
??_C@_0BA@FOIKENOD@vector?5too?5long@ DB 'vector too long', 00H ; `string'
CONST	ENDS
;	COMDAT ??_7CGuildCombat1to1@@6B@
CONST	SEGMENT
??_7CGuildCombat1to1@@6B@ DD FLAT:??_R4CGuildCombat1to1@@6B@ ; CGuildCombat1to1::`vftable'
	DD	FLAT:??_ECGuildCombat1to1@@UAEPAXI@Z
CONST	ENDS
;	COMDAT ??_7CGuildCombat1to1Mng@@6B@
CONST	SEGMENT
??_7CGuildCombat1to1Mng@@6B@ DD FLAT:??_R4CGuildCombat1to1Mng@@6B@ ; CGuildCombat1to1Mng::`vftable'
	DD	FLAT:??_ECGuildCombat1to1Mng@@UAEPAXI@Z
CONST	ENDS
;	COMDAT ??_C@_05KKCIMGE@error@
CONST	SEGMENT
??_C@_05KKCIMGE@error@ DB 'error', 00H			; `string'
CONST	ENDS
;	COMDAT ??_C@_0BE@OHDBLHOM@GetText?5range_error@
CONST	SEGMENT
??_C@_0BE@OHDBLHOM@GetText?5range_error@ DB 'GetText range_error', 00H ; `string'
CONST	ENDS
;	COMDAT ??_C@_0BI@BEIFNGEL@GetItemProp?5range_error@
CONST	SEGMENT
??_C@_0BI@BEIFNGEL@GetItemProp?5range_error@ DB 'GetItemProp range_error', 00H ; `string'
CONST	ENDS
;	COMDAT ??_C@_0BM@HMFGHCP@?$CFs?5min?3?$CFd?0?5max?3?$CFd?0?5index?3?$CFd@
CONST	SEGMENT
??_C@_0BM@HMFGHCP@?$CFs?5min?3?$CFd?0?5max?3?$CFd?0?5index?3?$CFd@ DB '%s'
	DB	' min:%d, max:%d, index:%d', 00H		; `string'
CONST	ENDS
;	COMDAT ??_C@_0BB@GCADKGJO@map?1set?5too?5long@
CONST	SEGMENT
??_C@_0BB@GCADKGJO@map?1set?5too?5long@ DB 'map/set too long', 00H ; `string'
CONST	ENDS
;	COMDAT __CT??_R0?AVbad_alloc@std@@@8??0bad_alloc@std@@QAE@ABV01@@Z12
xdata$x	SEGMENT
__CT??_R0?AVbad_alloc@std@@@8??0bad_alloc@std@@QAE@ABV01@@Z12 DD 010H
	DD	FLAT:??_R0?AVbad_alloc@std@@@8
	DD	00H
	DD	0ffffffffH
	ORG $+4
	DD	0cH
	DD	FLAT:??0bad_alloc@std@@QAE@ABV01@@Z
xdata$x	ENDS
;	COMDAT ??_R0?AVbad_alloc@std@@@8
data$r	SEGMENT
??_R0?AVbad_alloc@std@@@8 DD FLAT:??_7type_info@@6B@	; std::bad_alloc `RTTI Type Descriptor'
	DD	00H
	DB	'.?AVbad_alloc@std@@', 00H
data$r	ENDS
;	COMDAT __CT??_R0?AVbad_array_new_length@std@@@8??0bad_array_new_length@std@@QAE@ABV01@@Z12
xdata$x	SEGMENT
__CT??_R0?AVbad_array_new_length@std@@@8??0bad_array_new_length@std@@QAE@ABV01@@Z12 DD 00H
	DD	FLAT:??_R0?AVbad_array_new_length@std@@@8
	DD	00H
	DD	0ffffffffH
	ORG $+4
	DD	0cH
	DD	FLAT:??0bad_array_new_length@std@@QAE@ABV01@@Z
xdata$x	ENDS
;	COMDAT ??_R0?AVbad_array_new_length@std@@@8
data$r	SEGMENT
??_R0?AVbad_array_new_length@std@@@8 DD FLAT:??_7type_info@@6B@ ; std::bad_array_new_length `RTTI Type Descriptor'
	DD	00H
	DB	'.?AVbad_array_new_length@std@@', 00H
data$r	ENDS
;	COMDAT __CTA3?AVbad_array_new_length@std@@
xdata$x	SEGMENT
__CTA3?AVbad_array_new_length@std@@ DD 03H
	DD	FLAT:__CT??_R0?AVbad_array_new_length@std@@@8??0bad_array_new_length@std@@QAE@ABV01@@Z12
	DD	FLAT:__CT??_R0?AVbad_alloc@std@@@8??0bad_alloc@std@@QAE@ABV01@@Z12
	DD	FLAT:__CT??_R0?AVexception@std@@@8??0exception@std@@QAE@ABV01@@Z12
xdata$x	ENDS
;	COMDAT __TI3?AVbad_array_new_length@std@@
xdata$x	SEGMENT
__TI3?AVbad_array_new_length@std@@ DD 00H
	DD	FLAT:??1bad_array_new_length@std@@UAE@XZ
	DD	00H
	DD	FLAT:__CTA3?AVbad_array_new_length@std@@
xdata$x	ENDS
;	COMDAT __CT??_R0?AVexception@std@@@8??0exception@std@@QAE@ABV01@@Z12
xdata$x	SEGMENT
__CT??_R0?AVexception@std@@@8??0exception@std@@QAE@ABV01@@Z12 DD 00H
	DD	FLAT:??_R0?AVexception@std@@@8
	DD	00H
	DD	0ffffffffH
	ORG $+4
	DD	0cH
	DD	FLAT:??0exception@std@@QAE@ABV01@@Z
xdata$x	ENDS
;	COMDAT ??_R0?AVexception@std@@@8
data$r	SEGMENT
??_R0?AVexception@std@@@8 DD FLAT:??_7type_info@@6B@	; std::exception `RTTI Type Descriptor'
	DD	00H
	DB	'.?AVexception@std@@', 00H
data$r	ENDS
;	COMDAT ??_C@_0BF@KINCDENJ@bad?5array?5new?5length@
CONST	SEGMENT
??_C@_0BF@KINCDENJ@bad?5array?5new?5length@ DB 'bad array new length', 00H ; `string'
CONST	ENDS
;	COMDAT ??_7bad_array_new_length@std@@6B@
CONST	SEGMENT
??_7bad_array_new_length@std@@6B@ DD FLAT:??_R4bad_array_new_length@std@@6B@ ; std::bad_array_new_length::`vftable'
	DD	FLAT:??_Ebad_array_new_length@std@@UAEPAXI@Z
	DD	FLAT:?what@exception@std@@UBEPBDXZ
CONST	ENDS
;	COMDAT ??_7bad_alloc@std@@6B@
CONST	SEGMENT
??_7bad_alloc@std@@6B@ DD FLAT:??_R4bad_alloc@std@@6B@	; std::bad_alloc::`vftable'
	DD	FLAT:??_Ebad_alloc@std@@UAEPAXI@Z
	DD	FLAT:?what@exception@std@@UBEPBDXZ
CONST	ENDS
;	COMDAT ??_C@_0BC@EOODALEL@Unknown?5exception@
CONST	SEGMENT
??_C@_0BC@EOODALEL@Unknown?5exception@ DB 'Unknown exception', 00H ; `string'
CONST	ENDS
;	COMDAT ??_7exception@std@@6B@
CONST	SEGMENT
??_7exception@std@@6B@ DD FLAT:??_R4exception@std@@6B@	; std::exception::`vftable'
	DD	FLAT:??_Eexception@std@@UAEPAXI@Z
	DD	FLAT:?what@exception@std@@UBEPBDXZ
CONST	ENDS
;	COMDAT ??_C@_00CNPNBAHC@@
CONST	SEGMENT
??_C@_00CNPNBAHC@@ DB 00H				; `string'
CONST	ENDS
;	COMDAT ??_C@_02DPKJAMEF@?$CFd@
CONST	SEGMENT
??_C@_02DPKJAMEF@?$CFd@ DB '%d', 00H			; `string'
CONST	ENDS
;	COMDAT xdata$x
xdata$x	SEGMENT
__unwindtable$??$_Uninitialized_copy@PAU__GC1TO1TENDER@CGuildCombat1to1Mng@@PAU12@V?$allocator@U__GC1TO1TENDER@CGuildCombat1to1Mng@@@std@@@std@@YAPAU__GC1TO1TENDER@CGuildCombat1to1Mng@@PAU12@00AAV?$allocator@U__GC1TO1TENDER@CGuildCombat1to1Mng@@@0@@Z DD 0ffffffffH
	DD	FLAT:__unwindfunclet$??$_Uninitialized_copy@PAU__GC1TO1TENDER@CGuildCombat1to1Mng@@PAU12@V?$allocator@U__GC1TO1TENDER@CGuildCombat1to1Mng@@@std@@@std@@YAPAU__GC1TO1TENDER@CGuildCombat1to1Mng@@PAU12@00AAV?$allocator@U__GC1TO1TENDER@CGuildCombat1to1Mng@@@0@@Z$0
__ehfuncinfo$??$_Uninitialized_copy@PAU__GC1TO1TENDER@CGuildCombat1to1Mng@@PAU12@V?$allocator@U__GC1TO1TENDER@CGuildCombat1to1Mng@@@std@@@std@@YAPAU__GC1TO1TENDER@CGuildCombat1to1Mng@@PAU12@00AAV?$allocator@U__GC1TO1TENDER@CGuildCombat1to1Mng@@@0@@Z DD 019930522H
	DD	01H
	DD	FLAT:__unwindtable$??$_Uninitialized_copy@PAU__GC1TO1TENDER@CGuildCombat1to1Mng@@PAU12@V?$allocator@U__GC1TO1TENDER@CGuildCombat1to1Mng@@@std@@@std@@YAPAU__GC1TO1TENDER@CGuildCombat1to1Mng@@PAU12@00AAV?$allocator@U__GC1TO1TENDER@CGuildCombat1to1Mng@@@0@@Z
	DD	2 DUP(00H)
	DD	2 DUP(00H)
	DD	00H
	DD	01H
xdata$x	ENDS
;	COMDAT xdata$x
xdata$x	SEGMENT
__unwindtable$??$_Construct_n@ABQAU__GC1TO1TENDER@CGuildCombat1to1Mng@@ABQAU12@@?$vector@U__GC1TO1TENDER@CGuildCombat1to1Mng@@V?$allocator@U__GC1TO1TENDER@CGuildCombat1to1Mng@@@std@@@std@@AAEXIABQAU__GC1TO1TENDER@CGuildCombat1to1Mng@@0@Z DD 0ffffffffH
	DD	FLAT:__unwindfunclet$??$_Construct_n@ABQAU__GC1TO1TENDER@CGuildCombat1to1Mng@@ABQAU12@@?$vector@U__GC1TO1TENDER@CGuildCombat1to1Mng@@V?$allocator@U__GC1TO1TENDER@CGuildCombat1to1Mng@@@std@@@std@@AAEXIABQAU__GC1TO1TENDER@CGuildCombat1to1Mng@@0@Z$0
	DD	00H
	DD	FLAT:__unwindfunclet$??$_Construct_n@ABQAU__GC1TO1TENDER@CGuildCombat1to1Mng@@ABQAU12@@?$vector@U__GC1TO1TENDER@CGuildCombat1to1Mng@@V?$allocator@U__GC1TO1TENDER@CGuildCombat1to1Mng@@@std@@@std@@AAEXIABQAU__GC1TO1TENDER@CGuildCombat1to1Mng@@0@Z$1
__ehfuncinfo$??$_Construct_n@ABQAU__GC1TO1TENDER@CGuildCombat1to1Mng@@ABQAU12@@?$vector@U__GC1TO1TENDER@CGuildCombat1to1Mng@@V?$allocator@U__GC1TO1TENDER@CGuildCombat1to1Mng@@@std@@@std@@AAEXIABQAU__GC1TO1TENDER@CGuildCombat1to1Mng@@0@Z DD 019930522H
	DD	02H
	DD	FLAT:__unwindtable$??$_Construct_n@ABQAU__GC1TO1TENDER@CGuildCombat1to1Mng@@ABQAU12@@?$vector@U__GC1TO1TENDER@CGuildCombat1to1Mng@@V?$allocator@U__GC1TO1TENDER@CGuildCombat1to1Mng@@@std@@@std@@AAEXIABQAU__GC1TO1TENDER@CGuildCombat1to1Mng@@0@Z
	DD	2 DUP(00H)
	DD	2 DUP(00H)
	DD	00H
	DD	01H
xdata$x	ENDS
;	COMDAT xdata$x
xdata$x	SEGMENT
__unwindtable$??$?0U?$pair@KH@std@@@?$_Tree_temp_node@V?$allocator@U?$_Tree_node@U?$pair@$$CBHH@std@@PAX@std@@@std@@@std@@QAE@AAV?$allocator@U?$_Tree_node@U?$pair@$$CBHH@std@@PAX@std@@@1@PAU?$_Tree_node@U?$pair@$$CBHH@std@@PAX@1@$$QAU?$pair@KH@1@@Z DD 0ffffffffH
	DD	FLAT:__unwindfunclet$??$?0U?$pair@KH@std@@@?$_Tree_temp_node@V?$allocator@U?$_Tree_node@U?$pair@$$CBHH@std@@PAX@std@@@std@@@std@@QAE@AAV?$allocator@U?$_Tree_node@U?$pair@$$CBHH@std@@PAX@std@@@1@PAU?$_Tree_node@U?$pair@$$CBHH@std@@PAX@1@$$QAU?$pair@KH@1@@Z$1
__ehfuncinfo$??$?0U?$pair@KH@std@@@?$_Tree_temp_node@V?$allocator@U?$_Tree_node@U?$pair@$$CBHH@std@@PAX@std@@@std@@@std@@QAE@AAV?$allocator@U?$_Tree_node@U?$pair@$$CBHH@std@@PAX@std@@@1@PAU?$_Tree_node@U?$pair@$$CBHH@std@@PAX@1@$$QAU?$pair@KH@1@@Z DD 019930522H
	DD	01H
	DD	FLAT:__unwindtable$??$?0U?$pair@KH@std@@@?$_Tree_temp_node@V?$allocator@U?$_Tree_node@U?$pair@$$CBHH@std@@PAX@std@@@std@@@std@@QAE@AAV?$allocator@U?$_Tree_node@U?$pair@$$CBHH@std@@PAX@std@@@1@PAU?$_Tree_node@U?$pair@$$CBHH@std@@PAX@1@$$QAU?$pair@KH@1@@Z
	DD	2 DUP(00H)
	DD	2 DUP(00H)
	DD	00H
	DD	01H
xdata$x	ENDS
;	COMDAT xdata$x
xdata$x	SEGMENT
__unwindtable$??0?$_Tree_temp_node_alloc@V?$allocator@U?$_Tree_node@U?$pair@$$CBHH@std@@PAX@std@@@std@@@std@@QAE@AAV?$allocator@U?$_Tree_node@U?$pair@$$CBHH@std@@PAX@std@@@1@@Z DD 0ffffffffH
	DD	FLAT:__unwindfunclet$??0?$_Tree_temp_node_alloc@V?$allocator@U?$_Tree_node@U?$pair@$$CBHH@std@@PAX@std@@@std@@@std@@QAE@AAV?$allocator@U?$_Tree_node@U?$pair@$$CBHH@std@@PAX@std@@@1@@Z$0
__ehfuncinfo$??0?$_Tree_temp_node_alloc@V?$allocator@U?$_Tree_node@U?$pair@$$CBHH@std@@PAX@std@@@std@@@std@@QAE@AAV?$allocator@U?$_Tree_node@U?$pair@$$CBHH@std@@PAX@std@@@1@@Z DD 019930522H
	DD	01H
	DD	FLAT:__unwindtable$??0?$_Tree_temp_node_alloc@V?$allocator@U?$_Tree_node@U?$pair@$$CBHH@std@@PAX@std@@@std@@@std@@QAE@AAV?$allocator@U?$_Tree_node@U?$pair@$$CBHH@std@@PAX@std@@@1@@Z
	DD	2 DUP(00H)
	DD	2 DUP(00H)
	DD	00H
	DD	01H
xdata$x	ENDS
;	COMDAT xdata$x
xdata$x	SEGMENT
__unwindtable$??$_Uninitialized_move@PAVCGuildCombat1to1@@V?$allocator@VCGuildCombat1to1@@@std@@@std@@YAPAVCGuildCombat1to1@@QAV1@0PAV1@AAV?$allocator@VCGuildCombat1to1@@@0@@Z DD 0ffffffffH
	DD	FLAT:__unwindfunclet$??$_Uninitialized_move@PAVCGuildCombat1to1@@V?$allocator@VCGuildCombat1to1@@@std@@@std@@YAPAVCGuildCombat1to1@@QAV1@0PAV1@AAV?$allocator@VCGuildCombat1to1@@@0@@Z$0
__ehfuncinfo$??$_Uninitialized_move@PAVCGuildCombat1to1@@V?$allocator@VCGuildCombat1to1@@@std@@@std@@YAPAVCGuildCombat1to1@@QAV1@0PAV1@AAV?$allocator@VCGuildCombat1to1@@@0@@Z DD 019930522H
	DD	01H
	DD	FLAT:__unwindtable$??$_Uninitialized_move@PAVCGuildCombat1to1@@V?$allocator@VCGuildCombat1to1@@@std@@@std@@YAPAVCGuildCombat1to1@@QAV1@0PAV1@AAV?$allocator@VCGuildCombat1to1@@@0@@Z
	DD	2 DUP(00H)
	DD	2 DUP(00H)
	DD	00H
	DD	01H
xdata$x	ENDS
;	COMDAT xdata$x
xdata$x	SEGMENT
__unwindtable$??$_Uninitialized_copy@PAVCGuildCombat1to1@@PAV1@V?$allocator@VCGuildCombat1to1@@@std@@@std@@YAPAVCGuildCombat1to1@@PAV1@00AAV?$allocator@VCGuildCombat1to1@@@0@@Z DD 0ffffffffH
	DD	FLAT:__unwindfunclet$??$_Uninitialized_copy@PAVCGuildCombat1to1@@PAV1@V?$allocator@VCGuildCombat1to1@@@std@@@std@@YAPAVCGuildCombat1to1@@PAV1@00AAV?$allocator@VCGuildCombat1to1@@@0@@Z$0
__ehfuncinfo$??$_Uninitialized_copy@PAVCGuildCombat1to1@@PAV1@V?$allocator@VCGuildCombat1to1@@@std@@@std@@YAPAVCGuildCombat1to1@@PAV1@00AAV?$allocator@VCGuildCombat1to1@@@0@@Z DD 019930522H
	DD	01H
	DD	FLAT:__unwindtable$??$_Uninitialized_copy@PAVCGuildCombat1to1@@PAV1@V?$allocator@VCGuildCombat1to1@@@std@@@std@@YAPAVCGuildCombat1to1@@PAV1@00AAV?$allocator@VCGuildCombat1to1@@@0@@Z
	DD	2 DUP(00H)
	DD	2 DUP(00H)
	DD	00H
	DD	01H
xdata$x	ENDS
;	COMDAT xdata$x
xdata$x	SEGMENT
__unwindtable$??$_Emplace@U?$pair@KH@std@@@?$_Tree@V?$_Tmap_traits@HHU?$less@H@std@@V?$allocator@U?$pair@$$CBHH@std@@@2@$00@std@@@std@@IAE?AU?$pair@PAU?$_Tree_node@U?$pair@$$CBHH@std@@PAX@std@@_N@1@$$QAU?$pair@KH@1@@Z DD 0ffffffffH
	DD	FLAT:__unwindfunclet$??$_Emplace@U?$pair@KH@std@@@?$_Tree@V?$_Tmap_traits@HHU?$less@H@std@@V?$allocator@U?$pair@$$CBHH@std@@@2@$00@std@@@std@@IAE?AU?$pair@PAU?$_Tree_node@U?$pair@$$CBHH@std@@PAX@std@@_N@1@$$QAU?$pair@KH@1@@Z$2
	DD	0ffffffffH
	DD	FLAT:__unwindfunclet$??$_Emplace@U?$pair@KH@std@@@?$_Tree@V?$_Tmap_traits@HHU?$less@H@std@@V?$allocator@U?$pair@$$CBHH@std@@@2@$00@std@@@std@@IAE?AU?$pair@PAU?$_Tree_node@U?$pair@$$CBHH@std@@PAX@std@@_N@1@$$QAU?$pair@KH@1@@Z$0
__ehfuncinfo$??$_Emplace@U?$pair@KH@std@@@?$_Tree@V?$_Tmap_traits@HHU?$less@H@std@@V?$allocator@U?$pair@$$CBHH@std@@@2@$00@std@@@std@@IAE?AU?$pair@PAU?$_Tree_node@U?$pair@$$CBHH@std@@PAX@std@@_N@1@$$QAU?$pair@KH@1@@Z DD 019930522H
	DD	02H
	DD	FLAT:__unwindtable$??$_Emplace@U?$pair@KH@std@@@?$_Tree@V?$_Tmap_traits@HHU?$less@H@std@@V?$allocator@U?$pair@$$CBHH@std@@@2@$00@std@@@std@@IAE?AU?$pair@PAU?$_Tree_node@U?$pair@$$CBHH@std@@PAX@std@@_N@1@$$QAU?$pair@KH@1@@Z
	DD	2 DUP(00H)
	DD	2 DUP(00H)
	DD	00H
	DD	01H
xdata$x	ENDS
;	COMDAT xdata$x
xdata$x	SEGMENT
__unwindtable$??$_Emplace_reallocate@ABVCGuildCombat1to1@@@?$vector@VCGuildCombat1to1@@V?$allocator@VCGuildCombat1to1@@@std@@@std@@AAEPAVCGuildCombat1to1@@QAV2@ABV2@@Z DD 0ffffffffH
	DD	FLAT:__unwindfunclet$??$_Emplace_reallocate@ABVCGuildCombat1to1@@@?$vector@VCGuildCombat1to1@@V?$allocator@VCGuildCombat1to1@@@std@@@std@@AAEPAVCGuildCombat1to1@@QAV2@ABV2@@Z$0
	DD	00H
	DD	FLAT:__unwindfunclet$??$_Emplace_reallocate@ABVCGuildCombat1to1@@@?$vector@VCGuildCombat1to1@@V?$allocator@VCGuildCombat1to1@@@std@@@std@@AAEPAVCGuildCombat1to1@@QAV2@ABV2@@Z$1
__ehfuncinfo$??$_Emplace_reallocate@ABVCGuildCombat1to1@@@?$vector@VCGuildCombat1to1@@V?$allocator@VCGuildCombat1to1@@@std@@@std@@AAEPAVCGuildCombat1to1@@QAV2@ABV2@@Z DD 019930522H
	DD	02H
	DD	FLAT:__unwindtable$??$_Emplace_reallocate@ABVCGuildCombat1to1@@@?$vector@VCGuildCombat1to1@@V?$allocator@VCGuildCombat1to1@@@std@@@std@@AAEPAVCGuildCombat1to1@@QAV2@ABV2@@Z
	DD	2 DUP(00H)
	DD	2 DUP(00H)
	DD	00H
	DD	01H
xdata$x	ENDS
;	COMDAT xdata$x
xdata$x	SEGMENT
__unwindtable$??$_Emplace_reallocate@ABU__GC1TO1TENDER@CGuildCombat1to1Mng@@@?$vector@U__GC1TO1TENDER@CGuildCombat1to1Mng@@V?$allocator@U__GC1TO1TENDER@CGuildCombat1to1Mng@@@std@@@std@@AAEPAU__GC1TO1TENDER@CGuildCombat1to1Mng@@QAU23@ABU23@@Z DD 0ffffffffH
	DD	FLAT:__unwindfunclet$??$_Emplace_reallocate@ABU__GC1TO1TENDER@CGuildCombat1to1Mng@@@?$vector@U__GC1TO1TENDER@CGuildCombat1to1Mng@@V?$allocator@U__GC1TO1TENDER@CGuildCombat1to1Mng@@@std@@@std@@AAEPAU__GC1TO1TENDER@CGuildCombat1to1Mng@@QAU23@ABU23@@Z$0
__ehfuncinfo$??$_Emplace_reallocate@ABU__GC1TO1TENDER@CGuildCombat1to1Mng@@@?$vector@U__GC1TO1TENDER@CGuildCombat1to1Mng@@V?$allocator@U__GC1TO1TENDER@CGuildCombat1to1Mng@@@std@@@std@@AAEPAU__GC1TO1TENDER@CGuildCombat1to1Mng@@QAU23@ABU23@@Z DD 019930522H
	DD	01H
	DD	FLAT:__unwindtable$??$_Emplace_reallocate@ABU__GC1TO1TENDER@CGuildCombat1to1Mng@@@?$vector@U__GC1TO1TENDER@CGuildCombat1to1Mng@@V?$allocator@U__GC1TO1TENDER@CGuildCombat1to1Mng@@@std@@@std@@AAEPAU__GC1TO1TENDER@CGuildCombat1to1Mng@@QAU23@ABU23@@Z
	DD	2 DUP(00H)
	DD	2 DUP(00H)
	DD	00H
	DD	01H
xdata$x	ENDS
;	COMDAT xdata$x
xdata$x	SEGMENT
__unwindtable$??$_Uninitialized_copy_n@PAU__GC1TO1TENDER@CGuildCombat1to1Mng@@V?$allocator@U__GC1TO1TENDER@CGuildCombat1to1Mng@@@std@@@std@@YAPAU__GC1TO1TENDER@CGuildCombat1to1Mng@@PAU12@I0AAV?$allocator@U__GC1TO1TENDER@CGuildCombat1to1Mng@@@0@@Z DD 0ffffffffH
	DD	FLAT:__unwindfunclet$??$_Uninitialized_copy_n@PAU__GC1TO1TENDER@CGuildCombat1to1Mng@@V?$allocator@U__GC1TO1TENDER@CGuildCombat1to1Mng@@@std@@@std@@YAPAU__GC1TO1TENDER@CGuildCombat1to1Mng@@PAU12@I0AAV?$allocator@U__GC1TO1TENDER@CGuildCombat1to1Mng@@@0@@Z$0
__ehfuncinfo$??$_Uninitialized_copy_n@PAU__GC1TO1TENDER@CGuildCombat1to1Mng@@V?$allocator@U__GC1TO1TENDER@CGuildCombat1to1Mng@@@std@@@std@@YAPAU__GC1TO1TENDER@CGuildCombat1to1Mng@@PAU12@I0AAV?$allocator@U__GC1TO1TENDER@CGuildCombat1to1Mng@@@0@@Z DD 019930522H
	DD	01H
	DD	FLAT:__unwindtable$??$_Uninitialized_copy_n@PAU__GC1TO1TENDER@CGuildCombat1to1Mng@@V?$allocator@U__GC1TO1TENDER@CGuildCombat1to1Mng@@@std@@@std@@YAPAU__GC1TO1TENDER@CGuildCombat1to1Mng@@PAU12@I0AAV?$allocator@U__GC1TO1TENDER@CGuildCombat1to1Mng@@@0@@Z
	DD	2 DUP(00H)
	DD	2 DUP(00H)
	DD	00H
	DD	01H
xdata$x	ENDS
;	COMDAT xdata$x
xdata$x	SEGMENT
__unwindtable$??$emplace@U?$pair@KH@std@@@?$_Tree@V?$_Tmap_traits@HHU?$less@H@std@@V?$allocator@U?$pair@$$CBHH@std@@@2@$00@std@@@std@@QAE?AU?$pair@V?$_Tree_iterator@V?$_Tree_val@U?$_Tree_simple_types@U?$pair@$$CBHH@std@@@std@@@std@@@std@@_N@1@$$QAU?$pair@KH@1@@Z DD 0ffffffffH
	DD	FLAT:__unwindfunclet$??$emplace@U?$pair@KH@std@@@?$_Tree@V?$_Tmap_traits@HHU?$less@H@std@@V?$allocator@U?$pair@$$CBHH@std@@@2@$00@std@@@std@@QAE?AU?$pair@V?$_Tree_iterator@V?$_Tree_val@U?$_Tree_simple_types@U?$pair@$$CBHH@std@@@std@@@std@@@std@@_N@1@$$QAU?$pair@KH@1@@Z$2
	DD	0ffffffffH
	DD	FLAT:__unwindfunclet$??$emplace@U?$pair@KH@std@@@?$_Tree@V?$_Tmap_traits@HHU?$less@H@std@@V?$allocator@U?$pair@$$CBHH@std@@@2@$00@std@@@std@@QAE?AU?$pair@V?$_Tree_iterator@V?$_Tree_val@U?$_Tree_simple_types@U?$pair@$$CBHH@std@@@std@@@std@@@std@@_N@1@$$QAU?$pair@KH@1@@Z$0
__ehfuncinfo$??$emplace@U?$pair@KH@std@@@?$_Tree@V?$_Tmap_traits@HHU?$less@H@std@@V?$allocator@U?$pair@$$CBHH@std@@@2@$00@std@@@std@@QAE?AU?$pair@V?$_Tree_iterator@V?$_Tree_val@U?$_Tree_simple_types@U?$pair@$$CBHH@std@@@std@@@std@@@std@@_N@1@$$QAU?$pair@KH@1@@Z DD 019930522H
	DD	02H
	DD	FLAT:__unwindtable$??$emplace@U?$pair@KH@std@@@?$_Tree@V?$_Tmap_traits@HHU?$less@H@std@@V?$allocator@U?$pair@$$CBHH@std@@@2@$00@std@@@std@@QAE?AU?$pair@V?$_Tree_iterator@V?$_Tree_val@U?$_Tree_simple_types@U?$pair@$$CBHH@std@@@std@@@std@@@std@@_N@1@$$QAU?$pair@KH@1@@Z
	DD	2 DUP(00H)
	DD	2 DUP(00H)
	DD	00H
	DD	01H
xdata$x	ENDS
;	COMDAT xdata$x
xdata$x	SEGMENT
__unwindtable$??$_Assign_counted_range@PAU__GC1TO1TENDER@CGuildCombat1to1Mng@@@?$vector@U__GC1TO1TENDER@CGuildCombat1to1Mng@@V?$allocator@U__GC1TO1TENDER@CGuildCombat1to1Mng@@@std@@@std@@AAEXPAU__GC1TO1TENDER@CGuildCombat1to1Mng@@I@Z DD 0ffffffffH
	DD	FLAT:__unwindfunclet$??$_Assign_counted_range@PAU__GC1TO1TENDER@CGuildCombat1to1Mng@@@?$vector@U__GC1TO1TENDER@CGuildCombat1to1Mng@@V?$allocator@U__GC1TO1TENDER@CGuildCombat1to1Mng@@@std@@@std@@AAEXPAU__GC1TO1TENDER@CGuildCombat1to1Mng@@I@Z$1
__ehfuncinfo$??$_Assign_counted_range@PAU__GC1TO1TENDER@CGuildCombat1to1Mng@@@?$vector@U__GC1TO1TENDER@CGuildCombat1to1Mng@@V?$allocator@U__GC1TO1TENDER@CGuildCombat1to1Mng@@@std@@@std@@AAEXPAU__GC1TO1TENDER@CGuildCombat1to1Mng@@I@Z DD 019930522H
	DD	01H
	DD	FLAT:__unwindtable$??$_Assign_counted_range@PAU__GC1TO1TENDER@CGuildCombat1to1Mng@@@?$vector@U__GC1TO1TENDER@CGuildCombat1to1Mng@@V?$allocator@U__GC1TO1TENDER@CGuildCombat1to1Mng@@@std@@@std@@AAEXPAU__GC1TO1TENDER@CGuildCombat1to1Mng@@I@Z
	DD	2 DUP(00H)
	DD	2 DUP(00H)
	DD	00H
	DD	01H
xdata$x	ENDS
;	COMDAT xdata$x
xdata$x	SEGMENT
__unwindtable$??$emplace@U?$pair@KH@std@@@?$multimap@HHU?$less@H@std@@V?$allocator@U?$pair@$$CBHH@std@@@2@@std@@QAE?AV?$_Tree_iterator@V?$_Tree_val@U?$_Tree_simple_types@U?$pair@$$CBHH@std@@@std@@@std@@@1@$$QAU?$pair@KH@1@@Z DD 0ffffffffH
	DD	FLAT:__unwindfunclet$??$emplace@U?$pair@KH@std@@@?$multimap@HHU?$less@H@std@@V?$allocator@U?$pair@$$CBHH@std@@@2@@std@@QAE?AV?$_Tree_iterator@V?$_Tree_val@U?$_Tree_simple_types@U?$pair@$$CBHH@std@@@std@@@std@@@1@$$QAU?$pair@KH@1@@Z$2
	DD	0ffffffffH
	DD	FLAT:__unwindfunclet$??$emplace@U?$pair@KH@std@@@?$multimap@HHU?$less@H@std@@V?$allocator@U?$pair@$$CBHH@std@@@2@@std@@QAE?AV?$_Tree_iterator@V?$_Tree_val@U?$_Tree_simple_types@U?$pair@$$CBHH@std@@@std@@@std@@@1@$$QAU?$pair@KH@1@@Z$0
__ehfuncinfo$??$emplace@U?$pair@KH@std@@@?$multimap@HHU?$less@H@std@@V?$allocator@U?$pair@$$CBHH@std@@@2@@std@@QAE?AV?$_Tree_iterator@V?$_Tree_val@U?$_Tree_simple_types@U?$pair@$$CBHH@std@@@std@@@std@@@1@$$QAU?$pair@KH@1@@Z DD 019930522H
	DD	02H
	DD	FLAT:__unwindtable$??$emplace@U?$pair@KH@std@@@?$multimap@HHU?$less@H@std@@V?$allocator@U?$pair@$$CBHH@std@@@2@@std@@QAE?AV?$_Tree_iterator@V?$_Tree_val@U?$_Tree_simple_types@U?$pair@$$CBHH@std@@@std@@@std@@@1@$$QAU?$pair@KH@1@@Z
	DD	2 DUP(00H)
	DD	2 DUP(00H)
	DD	00H
	DD	01H
xdata$x	ENDS
;	COMDAT xdata$x
xdata$x	SEGMENT
__unwindtable$??$insert@U?$pair@KH@std@@$0A@@?$multimap@HHU?$less@H@std@@V?$allocator@U?$pair@$$CBHH@std@@@2@@std@@QAE?AV?$_Tree_iterator@V?$_Tree_val@U?$_Tree_simple_types@U?$pair@$$CBHH@std@@@std@@@std@@@1@$$QAU?$pair@KH@1@@Z DD 0ffffffffH
	DD	FLAT:__unwindfunclet$??$insert@U?$pair@KH@std@@$0A@@?$multimap@HHU?$less@H@std@@V?$allocator@U?$pair@$$CBHH@std@@@2@@std@@QAE?AV?$_Tree_iterator@V?$_Tree_val@U?$_Tree_simple_types@U?$pair@$$CBHH@std@@@std@@@std@@@1@$$QAU?$pair@KH@1@@Z$2
	DD	0ffffffffH
	DD	FLAT:__unwindfunclet$??$insert@U?$pair@KH@std@@$0A@@?$multimap@HHU?$less@H@std@@V?$allocator@U?$pair@$$CBHH@std@@@2@@std@@QAE?AV?$_Tree_iterator@V?$_Tree_val@U?$_Tree_simple_types@U?$pair@$$CBHH@std@@@std@@@std@@@1@$$QAU?$pair@KH@1@@Z$0
__ehfuncinfo$??$insert@U?$pair@KH@std@@$0A@@?$multimap@HHU?$less@H@std@@V?$allocator@U?$pair@$$CBHH@std@@@2@@std@@QAE?AV?$_Tree_iterator@V?$_Tree_val@U?$_Tree_simple_types@U?$pair@$$CBHH@std@@@std@@@std@@@1@$$QAU?$pair@KH@1@@Z DD 019930522H
	DD	02H
	DD	FLAT:__unwindtable$??$insert@U?$pair@KH@std@@$0A@@?$multimap@HHU?$less@H@std@@V?$allocator@U?$pair@$$CBHH@std@@@2@@std@@QAE?AV?$_Tree_iterator@V?$_Tree_val@U?$_Tree_simple_types@U?$pair@$$CBHH@std@@@std@@@std@@@1@$$QAU?$pair@KH@1@@Z
	DD	2 DUP(00H)
	DD	2 DUP(00H)
	DD	00H
	DD	01H
xdata$x	ENDS
;	COMDAT xdata$x
xdata$x	SEGMENT
__unwindtable$??0CGuildCombat1to1@@QAE@ABV0@@Z DD 0ffffffffH
	DD	FLAT:__unwindfunclet$??0CGuildCombat1to1@@QAE@ABV0@@Z$1
	DD	00H
	DD	FLAT:__unwindfunclet$??0CGuildCombat1to1@@QAE@ABV0@@Z$2
__ehfuncinfo$??0CGuildCombat1to1@@QAE@ABV0@@Z DD 019930522H
	DD	02H
	DD	FLAT:__unwindtable$??0CGuildCombat1to1@@QAE@ABV0@@Z
	DD	2 DUP(00H)
	DD	2 DUP(00H)
	DD	00H
	DD	01H
xdata$x	ENDS
;	COMDAT xdata$x
xdata$x	SEGMENT
__unwindtable$?SetWinChip@CGuildCombat1to1@@QAEXPAVCUser@@0HH@Z DD 0ffffffffH
	DD	FLAT:__unwindfunclet$?SetWinChip@CGuildCombat1to1@@QAEXPAVCUser@@0HH@Z$0
	DD	00H
	DD	FLAT:__unwindfunclet$?SetWinChip@CGuildCombat1to1@@QAEXPAVCUser@@0HH@Z$1
__ehfuncinfo$?SetWinChip@CGuildCombat1to1@@QAEXPAVCUser@@0HH@Z DD 019930522H
	DD	02H
	DD	FLAT:__unwindtable$?SetWinChip@CGuildCombat1to1@@QAEXPAVCUser@@0HH@Z
	DD	2 DUP(00H)
	DD	2 DUP(00H)
	DD	00H
	DD	01H
xdata$x	ENDS
;	COMDAT xdata$x
xdata$x	SEGMENT
__unwindtable$??0CGuildCombat1to1@@QAE@AAV?$vector@U__GC1TO1TENDER@CGuildCombat1to1Mng@@V?$allocator@U__GC1TO1TENDER@CGuildCombat1to1Mng@@@std@@@std@@H@Z DD 0ffffffffH
	DD	FLAT:__unwindfunclet$??0CGuildCombat1to1@@QAE@AAV?$vector@U__GC1TO1TENDER@CGuildCombat1to1Mng@@V?$allocator@U__GC1TO1TENDER@CGuildCombat1to1Mng@@@std@@@std@@H@Z$0
__ehfuncinfo$??0CGuildCombat1to1@@QAE@AAV?$vector@U__GC1TO1TENDER@CGuildCombat1to1Mng@@V?$allocator@U__GC1TO1TENDER@CGuildCombat1to1Mng@@@std@@@std@@H@Z DD 019930522H
	DD	01H
	DD	FLAT:__unwindtable$??0CGuildCombat1to1@@QAE@AAV?$vector@U__GC1TO1TENDER@CGuildCombat1to1Mng@@V?$allocator@U__GC1TO1TENDER@CGuildCombat1to1Mng@@@std@@@std@@H@Z
	DD	2 DUP(00H)
	DD	2 DUP(00H)
	DD	00H
	DD	01H
xdata$x	ENDS
;	COMDAT xdata$x
xdata$x	SEGMENT
__unwindtable$??0?$vector@U__GC1TO1TENDER@CGuildCombat1to1Mng@@V?$allocator@U__GC1TO1TENDER@CGuildCombat1to1Mng@@@std@@@std@@QAE@ABV01@@Z DD 0ffffffffH
	DD	FLAT:__unwindfunclet$??0?$vector@U__GC1TO1TENDER@CGuildCombat1to1Mng@@V?$allocator@U__GC1TO1TENDER@CGuildCombat1to1Mng@@@std@@@std@@QAE@ABV01@@Z$0
	DD	00H
	DD	FLAT:__unwindfunclet$??0?$vector@U__GC1TO1TENDER@CGuildCombat1to1Mng@@V?$allocator@U__GC1TO1TENDER@CGuildCombat1to1Mng@@@std@@@std@@QAE@ABV01@@Z$1
__ehfuncinfo$??0?$vector@U__GC1TO1TENDER@CGuildCombat1to1Mng@@V?$allocator@U__GC1TO1TENDER@CGuildCombat1to1Mng@@@std@@@std@@QAE@ABV01@@Z DD 019930522H
	DD	02H
	DD	FLAT:__unwindtable$??0?$vector@U__GC1TO1TENDER@CGuildCombat1to1Mng@@V?$allocator@U__GC1TO1TENDER@CGuildCombat1to1Mng@@@std@@@std@@QAE@ABV01@@Z
	DD	2 DUP(00H)
	DD	2 DUP(00H)
	DD	00H
	DD	01H
xdata$x	ENDS
;	COMDAT xdata$x
xdata$x	SEGMENT
__unwindtable$?SetFailedTenderGuild@CGuildCombat1to1Mng@@QAEXPAVCUser@@@Z DD 0ffffffffH
	DD	FLAT:__unwindfunclet$?SetFailedTenderGuild@CGuildCombat1to1Mng@@QAEXPAVCUser@@@Z$0
__ehfuncinfo$?SetFailedTenderGuild@CGuildCombat1to1Mng@@QAEXPAVCUser@@@Z DD 019930522H
	DD	01H
	DD	FLAT:__unwindtable$?SetFailedTenderGuild@CGuildCombat1to1Mng@@QAEXPAVCUser@@@Z
	DD	2 DUP(00H)
	DD	2 DUP(00H)
	DD	00H
	DD	01H
xdata$x	ENDS
;	COMDAT xdata$x
xdata$x	SEGMENT
__unwindtable$?SetCancelTenderGuild@CGuildCombat1to1Mng@@QAEXPAVCUser@@@Z DD 0ffffffffH
	DD	FLAT:__unwindfunclet$?SetCancelTenderGuild@CGuildCombat1to1Mng@@QAEXPAVCUser@@@Z$0
__ehfuncinfo$?SetCancelTenderGuild@CGuildCombat1to1Mng@@QAEXPAVCUser@@@Z DD 019930522H
	DD	01H
	DD	FLAT:__unwindtable$?SetCancelTenderGuild@CGuildCombat1to1Mng@@QAEXPAVCUser@@@Z
	DD	2 DUP(00H)
	DD	2 DUP(00H)
	DD	00H
	DD	01H
xdata$x	ENDS
;	COMDAT xdata$x
xdata$x	SEGMENT
__unwindtable$?SetTenderGuild@CGuildCombat1to1Mng@@QAEXPAVCUser@@H@Z DD 0ffffffffH
	DD	FLAT:__unwindfunclet$?SetTenderGuild@CGuildCombat1to1Mng@@QAEXPAVCUser@@H@Z$0
	DD	0ffffffffH
	DD	FLAT:__unwindfunclet$?SetTenderGuild@CGuildCombat1to1Mng@@QAEXPAVCUser@@H@Z$1
	DD	01H
	DD	FLAT:__unwindfunclet$?SetTenderGuild@CGuildCombat1to1Mng@@QAEXPAVCUser@@H@Z$2
	DD	0ffffffffH
	DD	FLAT:__unwindfunclet$?SetTenderGuild@CGuildCombat1to1Mng@@QAEXPAVCUser@@H@Z$3
__ehfuncinfo$?SetTenderGuild@CGuildCombat1to1Mng@@QAEXPAVCUser@@H@Z DD 019930522H
	DD	04H
	DD	FLAT:__unwindtable$?SetTenderGuild@CGuildCombat1to1Mng@@QAEXPAVCUser@@H@Z
	DD	2 DUP(00H)
	DD	2 DUP(00H)
	DD	00H
	DD	01H
xdata$x	ENDS
;	COMDAT xdata$x
xdata$x	SEGMENT
__unwindtable$?CreateGuildCombat1to1@CGuildCombat1to1Mng@@QAEXXZ DD 0ffffffffH
	DD	FLAT:__unwindfunclet$?CreateGuildCombat1to1@CGuildCombat1to1Mng@@QAEXXZ$0
	DD	00H
	DD	FLAT:__unwindfunclet$?CreateGuildCombat1to1@CGuildCombat1to1Mng@@QAEXXZ$5
	DD	00H
	DD	FLAT:__unwindfunclet$?CreateGuildCombat1to1@CGuildCombat1to1Mng@@QAEXXZ$3
	DD	00H
	DD	FLAT:__unwindfunclet$?CreateGuildCombat1to1@CGuildCombat1to1Mng@@QAEXXZ$1
__ehfuncinfo$?CreateGuildCombat1to1@CGuildCombat1to1Mng@@QAEXXZ DD 019930522H
	DD	04H
	DD	FLAT:__unwindtable$?CreateGuildCombat1to1@CGuildCombat1to1Mng@@QAEXXZ
	DD	2 DUP(00H)
	DD	2 DUP(00H)
	DD	00H
	DD	01H
xdata$x	ENDS
;	COMDAT xdata$x
xdata$x	SEGMENT
__unwindtable$?GuildCombat1to1Open@CGuildCombat1to1Mng@@QAEXH@Z DD 0ffffffffH
	DD	FLAT:__unwindfunclet$?GuildCombat1to1Open@CGuildCombat1to1Mng@@QAEXH@Z$0
__ehfuncinfo$?GuildCombat1to1Open@CGuildCombat1to1Mng@@QAEXH@Z DD 019930522H
	DD	01H
	DD	FLAT:__unwindtable$?GuildCombat1to1Open@CGuildCombat1to1Mng@@QAEXH@Z
	DD	2 DUP(00H)
	DD	2 DUP(00H)
	DD	00H
	DD	01H
xdata$x	ENDS
;	COMDAT xdata$x
xdata$x	SEGMENT
__unwindtable$?FormatV@?$CStringT@DV?$StrTraitMFC@DV?$ChTraitsCRT@D@ATL@@@@@ATL@@QAEXPBDPAD@Z DD 0ffffffffH
	DD	FLAT:__unwindfunclet$?FormatV@?$CStringT@DV?$StrTraitMFC@DV?$ChTraitsCRT@D@ATL@@@@@ATL@@QAEXPBDPAD@Z$1
	DD	0ffffffffH
	DD	FLAT:__unwindfunclet$?FormatV@?$CStringT@DV?$StrTraitMFC@DV?$ChTraitsCRT@D@ATL@@@@@ATL@@QAEXPBDPAD@Z$0
__ehfuncinfo$?FormatV@?$CStringT@DV?$StrTraitMFC@DV?$ChTraitsCRT@D@ATL@@@@@ATL@@QAEXPBDPAD@Z DD 019930522H
	DD	02H
	DD	FLAT:__unwindtable$?FormatV@?$CStringT@DV?$StrTraitMFC@DV?$ChTraitsCRT@D@ATL@@@@@ATL@@QAEXPBDPAD@Z
	DD	2 DUP(00H)
	DD	2 DUP(00H)
	DD	00H
	DD	01H
xdata$x	ENDS
;	COMDAT xdata$x
xdata$x	SEGMENT
__unwindtable$??0?$CStringT@DV?$StrTraitMFC@DV?$ChTraitsCRT@D@ATL@@@@@ATL@@QAE@PBDPAUIAtlStringMgr@1@@Z DD 0ffffffffH
	DD	FLAT:__unwindfunclet$??0?$CStringT@DV?$StrTraitMFC@DV?$ChTraitsCRT@D@ATL@@@@@ATL@@QAE@PBDPAUIAtlStringMgr@1@@Z$0
__ehfuncinfo$??0?$CStringT@DV?$StrTraitMFC@DV?$ChTraitsCRT@D@ATL@@@@@ATL@@QAE@PBDPAUIAtlStringMgr@1@@Z DD 019930522H
	DD	01H
	DD	FLAT:__unwindtable$??0?$CStringT@DV?$StrTraitMFC@DV?$ChTraitsCRT@D@ATL@@@@@ATL@@QAE@PBDPAUIAtlStringMgr@1@@Z
	DD	2 DUP(00H)
	DD	2 DUP(00H)
	DD	00H
	DD	01H
xdata$x	ENDS
; Function compile flags: /Ogtp
; File C:\Program Files\Microsoft Visual Studio\2022\Professional\VC\Tools\MSVC\14.44.35207\include\xmemory
;	COMDAT ??1?$_Tidy_guard@V?$vector@U__GC1TO1TENDER@CGuildCombat1to1Mng@@V?$allocator@U__GC1TO1TENDER@CGuildCombat1to1Mng@@@std@@@std@@@std@@QAE@XZ
_TEXT	SEGMENT
??1?$_Tidy_guard@V?$vector@U__GC1TO1TENDER@CGuildCombat1to1Mng@@V?$allocator@U__GC1TO1TENDER@CGuildCombat1to1Mng@@@std@@@std@@@std@@QAE@XZ PROC ; std::_Tidy_guard<std::vector<CGuildCombat1to1Mng::__GC1TO1TENDER,std::allocator<CGuildCombat1to1Mng::__GC1TO1TENDER> > >::~_Tidy_guard<std::vector<CGuildCombat1to1Mng::__GC1TO1TENDER,std::allocator<CGuildCombat1to1Mng::__GC1TO1TENDER> > >, COMDAT
; _this$ = ecx

; 87   :         if (_Target) {

  00000	8b 09		 mov	 ecx, DWORD PTR [ecx]
  00002	85 c9		 test	 ecx, ecx
  00004	0f 85 00 00 00
	00		 jne	 ?_Tidy@?$vector@U__GC1TO1TENDER@CGuildCombat1to1Mng@@V?$allocator@U__GC1TO1TENDER@CGuildCombat1to1Mng@@@std@@@std@@AAEXXZ ; std::vector<CGuildCombat1to1Mng::__GC1TO1TENDER,std::allocator<CGuildCombat1to1Mng::__GC1TO1TENDER> >::_Tidy

; 88   :             _Target->_Tidy();
; 89   :         }
; 90   :     }

  0000a	c3		 ret	 0
??1?$_Tidy_guard@V?$vector@U__GC1TO1TENDER@CGuildCombat1to1Mng@@V?$allocator@U__GC1TO1TENDER@CGuildCombat1to1Mng@@@std@@@std@@@std@@QAE@XZ ENDP ; std::_Tidy_guard<std::vector<CGuildCombat1to1Mng::__GC1TO1TENDER,std::allocator<CGuildCombat1to1Mng::__GC1TO1TENDER> > >::~_Tidy_guard<std::vector<CGuildCombat1to1Mng::__GC1TO1TENDER,std::allocator<CGuildCombat1to1Mng::__GC1TO1TENDER> > >
_TEXT	ENDS
; Function compile flags: /Ogtp
; File C:\Program Files\Microsoft Visual Studio\2022\Professional\VC\Tools\MSVC\14.44.35207\include\xmemory
;	COMDAT ??1?$_Uninitialized_backout_al@V?$allocator@VCGuildCombat1to1@@@std@@@std@@QAE@XZ
_TEXT	SEGMENT
??1?$_Uninitialized_backout_al@V?$allocator@VCGuildCombat1to1@@@std@@@std@@QAE@XZ PROC ; std::_Uninitialized_backout_al<std::allocator<CGuildCombat1to1> >::~_Uninitialized_backout_al<std::allocator<CGuildCombat1to1> >, COMDAT
; _this$ = ecx

; 1838 :     _CONSTEXPR20 ~_Uninitialized_backout_al() {

  00000	56		 push	 esi

; 1839 :         _STD _Destroy_range(_First, _Last, _Al);

  00001	8b 31		 mov	 esi, DWORD PTR [ecx]
  00003	57		 push	 edi
  00004	8b 79 04	 mov	 edi, DWORD PTR [ecx+4]

; 1102 :         for (; _First != _Last; ++_First) {

  00007	3b f7		 cmp	 esi, edi
  00009	74 14		 je	 SHORT $LN6@Uninitiali
  0000b	0f 1f 44 00 00	 npad	 5
$LL7@Uninitiali:

; 741  :         _Ptr->~_Uty();

  00010	8b 06		 mov	 eax, DWORD PTR [esi]
  00012	8b ce		 mov	 ecx, esi
  00014	6a 00		 push	 0
  00016	ff 10		 call	 DWORD PTR [eax]

; 1102 :         for (; _First != _Last; ++_First) {

  00018	83 c6 2c	 add	 esi, 44			; 0000002cH
  0001b	3b f7		 cmp	 esi, edi
  0001d	75 f1		 jne	 SHORT $LL7@Uninitiali
$LN6@Uninitiali:
  0001f	5f		 pop	 edi

; 1840 :     }

  00020	5e		 pop	 esi
  00021	c3		 ret	 0
??1?$_Uninitialized_backout_al@V?$allocator@VCGuildCombat1to1@@@std@@@std@@QAE@XZ ENDP ; std::_Uninitialized_backout_al<std::allocator<CGuildCombat1to1> >::~_Uninitialized_backout_al<std::allocator<CGuildCombat1to1> >
_TEXT	ENDS
; Function compile flags: /Ogtp
; File C:\Program Files\Microsoft Visual Studio\2022\Professional\VC\Tools\MSVC\14.44.35207\include\xtree
; File C:\Program Files\Microsoft Visual Studio\2022\Professional\VC\Tools\MSVC\14.44.35207\include\xmemory
; File C:\Program Files\Microsoft Visual Studio\2022\Professional\VC\Tools\MSVC\14.44.35207\include\xtree
;	COMDAT ??1?$_Tree_temp_node@V?$allocator@U?$_Tree_node@U?$pair@$$CBHH@std@@PAX@std@@@std@@@std@@QAE@XZ
_TEXT	SEGMENT
??1?$_Tree_temp_node@V?$allocator@U?$_Tree_node@U?$pair@$$CBHH@std@@PAX@std@@@std@@@std@@QAE@XZ PROC ; std::_Tree_temp_node<std::allocator<std::_Tree_node<std::pair<int const ,int>,void *> > >::~_Tree_temp_node<std::allocator<std::_Tree_node<std::pair<int const ,int>,void *> > >, COMDAT
; _this$ = ecx
; File C:\Program Files\Microsoft Visual Studio\2022\Professional\VC\Tools\MSVC\14.44.35207\include\xmemory

; 1172 :         if (_Ptr) {

  00000	8b 41 04	 mov	 eax, DWORD PTR [ecx+4]
  00003	85 c0		 test	 eax, eax
  00005	74 0b		 je	 SHORT $LN19@Tree_temp_

; 289  :         ::operator delete(_Ptr, _Bytes);

  00007	6a 18		 push	 24			; 00000018H
  00009	50		 push	 eax
  0000a	e8 00 00 00 00	 call	 ??3@YAXPAXI@Z		; operator delete
  0000f	83 c4 08	 add	 esp, 8
$LN19@Tree_temp_:
; File C:\Program Files\Microsoft Visual Studio\2022\Professional\VC\Tools\MSVC\14.44.35207\include\xtree

; 848  :     }

  00012	c3		 ret	 0
??1?$_Tree_temp_node@V?$allocator@U?$_Tree_node@U?$pair@$$CBHH@std@@PAX@std@@@std@@@std@@QAE@XZ ENDP ; std::_Tree_temp_node<std::allocator<std::_Tree_node<std::pair<int const ,int>,void *> > >::~_Tree_temp_node<std::allocator<std::_Tree_node<std::pair<int const ,int>,void *> > >
_TEXT	ENDS
; Function compile flags: /Ogtp
; File C:\Program Files\Microsoft Visual Studio\2022\Professional\VC\Tools\MSVC\14.44.35207\include\xmemory
;	COMDAT ??1?$_Alloc_construct_ptr@V?$allocator@U?$_Tree_node@U?$pair@$$CBHH@std@@PAX@std@@@std@@@std@@QAE@XZ
_TEXT	SEGMENT
??1?$_Alloc_construct_ptr@V?$allocator@U?$_Tree_node@U?$pair@$$CBHH@std@@PAX@std@@@std@@@std@@QAE@XZ PROC ; std::_Alloc_construct_ptr<std::allocator<std::_Tree_node<std::pair<int const ,int>,void *> > >::~_Alloc_construct_ptr<std::allocator<std::_Tree_node<std::pair<int const ,int>,void *> > >, COMDAT
; _this$ = ecx

; 1172 :         if (_Ptr) {

  00000	8b 41 04	 mov	 eax, DWORD PTR [ecx+4]
  00003	85 c0		 test	 eax, eax
  00005	74 0b		 je	 SHORT $LN10@Alloc_cons

; 289  :         ::operator delete(_Ptr, _Bytes);

  00007	6a 18		 push	 24			; 00000018H
  00009	50		 push	 eax
  0000a	e8 00 00 00 00	 call	 ??3@YAXPAXI@Z		; operator delete
  0000f	83 c4 08	 add	 esp, 8
$LN10@Alloc_cons:

; 1173 :             _Al.deallocate(_Ptr, 1);
; 1174 :         }
; 1175 :     }

  00012	c3		 ret	 0
??1?$_Alloc_construct_ptr@V?$allocator@U?$_Tree_node@U?$pair@$$CBHH@std@@PAX@std@@@std@@@std@@QAE@XZ ENDP ; std::_Alloc_construct_ptr<std::allocator<std::_Tree_node<std::pair<int const ,int>,void *> > >::~_Alloc_construct_ptr<std::allocator<std::_Tree_node<std::pair<int const ,int>,void *> > >
_TEXT	ENDS
; Function compile flags: /Ogtp
; File C:\Program Files\Microsoft Visual Studio\2022\Professional\VC\Tools\MSVC\14.44.35207\include\xutility
;	COMDAT ??$_Copy_memmove@PAKPAK@std@@YAPAKPAK00@Z
_TEXT	SEGMENT
__First$ = 8						; size = 4
__Last$ = 12						; size = 4
__Dest$ = 16						; size = 4
??$_Copy_memmove@PAKPAK@std@@YAPAKPAK00@Z PROC		; std::_Copy_memmove<unsigned long *,unsigned long *>, COMDAT

; 4762 : _OutCtgIt _Copy_memmove(_CtgIt _First, _CtgIt _Last, _OutCtgIt _Dest) {

  00000	55		 push	 ebp
  00001	8b ec		 mov	 ebp, esp

; 4763 :     _STL_INTERNAL_CHECK(_First <= _Last);
; 4764 :     const auto _First_ptr    = _STD _To_address(_First);
; 4765 :     const auto _Last_ptr     = _STD _To_address(_Last);
; 4766 :     const auto _Object_count = static_cast<size_t>(_Last_ptr - _First_ptr);

  00003	8b 55 08	 mov	 edx, DWORD PTR __First$[ebp]
  00006	8b 4d 0c	 mov	 ecx, DWORD PTR __Last$[ebp]
  00009	2b ca		 sub	 ecx, edx
  0000b	8b c1		 mov	 eax, ecx
  0000d	c1 f8 02	 sar	 eax, 2

; 4767 :     const auto _First_ch     = const_cast<const char*>(reinterpret_cast<const volatile char*>(_First_ptr));
; 4768 :     const auto _Last_ch      = const_cast<const char*>(reinterpret_cast<const volatile char*>(_Last_ptr));
; 4769 :     const auto _Byte_count   = static_cast<size_t>(_Last_ch - _First_ch);
; 4770 :     return _STD _Copy_memmove_tail(_First_ch, _STD move(_Dest), _Byte_count, _Object_count);

  00010	50		 push	 eax
  00011	51		 push	 ecx
  00012	ff 75 10	 push	 DWORD PTR __Dest$[ebp]
  00015	52		 push	 edx
  00016	e8 00 00 00 00	 call	 ??$_Copy_memmove_tail@PAK@std@@YAPAKQBDQAKII@Z ; std::_Copy_memmove_tail<unsigned long *>
  0001b	83 c4 10	 add	 esp, 16			; 00000010H

; 4771 : }

  0001e	5d		 pop	 ebp
  0001f	c3		 ret	 0
??$_Copy_memmove@PAKPAK@std@@YAPAKPAK00@Z ENDP		; std::_Copy_memmove<unsigned long *,unsigned long *>
_TEXT	ENDS
; Function compile flags: /Ogtp
; File C:\Program Files\Microsoft Visual Studio\2022\Professional\VC\Tools\MSVC\14.44.35207\include\xutility
;	COMDAT ??$_Copy_memmove_tail@PAK@std@@YAPAKQBDQAKII@Z
_TEXT	SEGMENT
__First_ch$ = 8						; size = 4
__Dest$ = 12						; size = 4
__Byte_count$ = 16					; size = 4
__Object_count$ = 20					; size = 4
??$_Copy_memmove_tail@PAK@std@@YAPAKQBDQAKII@Z PROC	; std::_Copy_memmove_tail<unsigned long *>, COMDAT

; 4747 :     const char* const _First_ch, const _OutCtgIt _Dest, const size_t _Byte_count, const size_t _Object_count) {

  00000	55		 push	 ebp
  00001	8b ec		 mov	 ebp, esp
  00003	56		 push	 esi

; 4748 :     _STL_INTERNAL_CHECK(_Byte_count == _Object_count * sizeof(*_Dest));
; 4749 :     const auto _Dest_ptr = _STD _To_address(_Dest);
; 4750 :     const auto _Dest_ch  = const_cast<char*>(reinterpret_cast<const volatile char*>(_Dest_ptr));
; 4751 :     _CSTD memmove(_Dest_ch, _First_ch, _Byte_count);

  00004	8b 75 0c	 mov	 esi, DWORD PTR __Dest$[ebp]
  00007	57		 push	 edi
  00008	8b 7d 10	 mov	 edi, DWORD PTR __Byte_count$[ebp]
  0000b	57		 push	 edi
  0000c	ff 75 08	 push	 DWORD PTR __First_ch$[ebp]
  0000f	56		 push	 esi
  00010	e8 00 00 00 00	 call	 _memmove
  00015	83 c4 0c	 add	 esp, 12			; 0000000cH

; 4752 :     if constexpr (is_pointer_v<_OutCtgIt>) {
; 4753 :         (void) _Object_count;
; 4754 :         // CodeQL [SM02986] This cast is correct: we're bypassing pointer arithmetic for performance.
; 4755 :         return reinterpret_cast<_OutCtgIt>(_Dest_ch + _Byte_count);

  00018	8d 04 3e	 lea	 eax, DWORD PTR [esi+edi]
  0001b	5f		 pop	 edi
  0001c	5e		 pop	 esi

; 4756 :     } else {
; 4757 :         return _Dest + static_cast<_Iter_diff_t<_OutCtgIt>>(_Object_count);
; 4758 :     }
; 4759 : }

  0001d	5d		 pop	 ebp
  0001e	c3		 ret	 0
??$_Copy_memmove_tail@PAK@std@@YAPAKQBDQAKII@Z ENDP	; std::_Copy_memmove_tail<unsigned long *>
_TEXT	ENDS
; Function compile flags: /Ogtp
; File C:\Program Files\Microsoft Visual Studio\2022\Professional\VC\Tools\MSVC\14.44.35207\include\xmemory
;	COMDAT ??$_Uninitialized_move@PAVCGuildCombat1to1@@V?$allocator@VCGuildCombat1to1@@@std@@@std@@YAPAVCGuildCombat1to1@@QAV1@0PAV1@AAV?$allocator@VCGuildCombat1to1@@@0@@Z
_TEXT	SEGMENT
__Backout$ = -24					; size = 12
__$EHRec$ = -12						; size = 12
__First$ = 8						; size = 4
__Last$ = 12						; size = 4
__Dest$ = 16						; size = 4
__Al$ = 20						; size = 4
??$_Uninitialized_move@PAVCGuildCombat1to1@@V?$allocator@VCGuildCombat1to1@@@std@@@std@@YAPAVCGuildCombat1to1@@QAV1@0PAV1@AAV?$allocator@VCGuildCombat1to1@@@0@@Z PROC ; std::_Uninitialized_move<CGuildCombat1to1 *,std::allocator<CGuildCombat1to1> >, COMDAT

; 1977 :     const _InIt _First, const _InIt _Last, _Alloc_ptr_t<_Alloc> _Dest, _Alloc& _Al) {

  00000	55		 push	 ebp
  00001	8b ec		 mov	 ebp, esp
  00003	6a ff		 push	 -1
  00005	68 00 00 00 00	 push	 __ehhandler$??$_Uninitialized_move@PAVCGuildCombat1to1@@V?$allocator@VCGuildCombat1to1@@@std@@@std@@YAPAVCGuildCombat1to1@@QAV1@0PAV1@AAV?$allocator@VCGuildCombat1to1@@@0@@Z
  0000a	64 a1 00 00 00
	00		 mov	 eax, DWORD PTR fs:0
  00010	50		 push	 eax
  00011	83 ec 0c	 sub	 esp, 12			; 0000000cH
  00014	53		 push	 ebx
  00015	56		 push	 esi
  00016	57		 push	 edi
  00017	a1 00 00 00 00	 mov	 eax, DWORD PTR ___security_cookie
  0001c	33 c5		 xor	 eax, ebp
  0001e	50		 push	 eax
  0001f	8d 45 f4	 lea	 eax, DWORD PTR __$EHRec$[ebp]
  00022	64 a3 00 00 00
	00		 mov	 DWORD PTR fs:0, eax

; 1833 :     _CONSTEXPR20 _Uninitialized_backout_al(pointer _Dest, _Alloc& _Al_) : _First(_Dest), _Last(_Dest), _Al(_Al_) {}

  00028	8b 7d 10	 mov	 edi, DWORD PTR __Dest$[ebp]
  0002b	8b 45 14	 mov	 eax, DWORD PTR __Al$[ebp]

; 1978 :     // move [_First, _Last) to raw _Dest, using _Al
; 1979 :     // note: only called internally from elsewhere in the STL
; 1980 : #ifdef _ENABLE_STL_INTERNAL_CHECK
; 1981 :     _STD _Adl_verify_range(_First, _Last);
; 1982 : #endif // ^^^ defined(_ENABLE_STL_INTERNAL_CHECK) ^^^
; 1983 :     using _Ptrval     = typename _Alloc::value_type*;
; 1984 :     auto _UFirst      = _STD _Get_unwrapped(_First);

  0002e	8b 75 08	 mov	 esi, DWORD PTR __First$[ebp]

; 1833 :     _CONSTEXPR20 _Uninitialized_backout_al(pointer _Dest, _Alloc& _Al_) : _First(_Dest), _Last(_Dest), _Al(_Al_) {}

  00031	89 7d e8	 mov	 DWORD PTR __Backout$[ebp], edi
  00034	89 7d ec	 mov	 DWORD PTR __Backout$[ebp+4], edi
  00037	89 45 f0	 mov	 DWORD PTR __Backout$[ebp+8], eax

; 1985 :     const auto _ULast = _STD _Get_unwrapped(_Last);
; 1986 :     if constexpr (conjunction_v<bool_constant<_Iter_move_cat<decltype(_UFirst), _Ptrval>::_Bitcopy_constructible>,
; 1987 :                       _Uses_default_construct<_Alloc, _Ptrval, decltype(_STD move(*_UFirst))>>) {
; 1988 : #if _HAS_CXX20
; 1989 :         if (!_STD is_constant_evaluated())
; 1990 : #endif // _HAS_CXX20
; 1991 :         {
; 1992 :             _STD _Copy_memmove(_UFirst, _ULast, _STD _Unfancy(_Dest));
; 1993 :             return _Dest + (_ULast - _UFirst);
; 1994 :         }
; 1995 :     }
; 1996 : 
; 1997 :     _Uninitialized_backout_al<_Alloc> _Backout{_Dest, _Al};
; 1998 :     for (; _UFirst != _ULast; ++_UFirst) {

  0003a	8b 5d 0c	 mov	 ebx, DWORD PTR __Last$[ebp]
  0003d	c7 45 fc 00 00
	00 00		 mov	 DWORD PTR __$EHRec$[ebp+8], 0
  00044	3b f3		 cmp	 esi, ebx
  00046	74 15		 je	 SHORT $LN34@Uninitiali
$LL4@Uninitiali:

; 732  :         ::new (const_cast<void*>(static_cast<const volatile void*>(_Ptr))) _Objty(_STD forward<_Types>(_Args)...);

  00048	56		 push	 esi
  00049	8b cf		 mov	 ecx, edi
  0004b	e8 00 00 00 00	 call	 ??0CGuildCombat1to1@@QAE@ABV0@@Z

; 1845 :         ++_Last;

  00050	83 c7 2c	 add	 edi, 44			; 0000002cH

; 1985 :     const auto _ULast = _STD _Get_unwrapped(_Last);
; 1986 :     if constexpr (conjunction_v<bool_constant<_Iter_move_cat<decltype(_UFirst), _Ptrval>::_Bitcopy_constructible>,
; 1987 :                       _Uses_default_construct<_Alloc, _Ptrval, decltype(_STD move(*_UFirst))>>) {
; 1988 : #if _HAS_CXX20
; 1989 :         if (!_STD is_constant_evaluated())
; 1990 : #endif // _HAS_CXX20
; 1991 :         {
; 1992 :             _STD _Copy_memmove(_UFirst, _ULast, _STD _Unfancy(_Dest));
; 1993 :             return _Dest + (_ULast - _UFirst);
; 1994 :         }
; 1995 :     }
; 1996 : 
; 1997 :     _Uninitialized_backout_al<_Alloc> _Backout{_Dest, _Al};
; 1998 :     for (; _UFirst != _ULast; ++_UFirst) {

  00053	83 c6 2c	 add	 esi, 44			; 0000002cH

; 1845 :         ++_Last;

  00056	89 7d ec	 mov	 DWORD PTR __Backout$[ebp+4], edi

; 1985 :     const auto _ULast = _STD _Get_unwrapped(_Last);
; 1986 :     if constexpr (conjunction_v<bool_constant<_Iter_move_cat<decltype(_UFirst), _Ptrval>::_Bitcopy_constructible>,
; 1987 :                       _Uses_default_construct<_Alloc, _Ptrval, decltype(_STD move(*_UFirst))>>) {
; 1988 : #if _HAS_CXX20
; 1989 :         if (!_STD is_constant_evaluated())
; 1990 : #endif // _HAS_CXX20
; 1991 :         {
; 1992 :             _STD _Copy_memmove(_UFirst, _ULast, _STD _Unfancy(_Dest));
; 1993 :             return _Dest + (_ULast - _UFirst);
; 1994 :         }
; 1995 :     }
; 1996 : 
; 1997 :     _Uninitialized_backout_al<_Alloc> _Backout{_Dest, _Al};
; 1998 :     for (; _UFirst != _ULast; ++_UFirst) {

  00059	3b f3		 cmp	 esi, ebx
  0005b	75 eb		 jne	 SHORT $LL4@Uninitiali
$LN34@Uninitiali:

; 1999 :         _Backout._Emplace_back(_STD move(*_UFirst));
; 2000 :     }
; 2001 : 
; 2002 :     return _Backout._Release();
; 2003 : }

  0005d	8b c7		 mov	 eax, edi
  0005f	8b 4d f4	 mov	 ecx, DWORD PTR __$EHRec$[ebp]
  00062	64 89 0d 00 00
	00 00		 mov	 DWORD PTR fs:0, ecx
  00069	59		 pop	 ecx
  0006a	5f		 pop	 edi
  0006b	5e		 pop	 esi
  0006c	5b		 pop	 ebx
  0006d	8b e5		 mov	 esp, ebp
  0006f	5d		 pop	 ebp
  00070	c3		 ret	 0
_TEXT	ENDS
;	COMDAT text$x
text$x	SEGMENT
__unwindfunclet$??$_Uninitialized_move@PAVCGuildCombat1to1@@V?$allocator@VCGuildCombat1to1@@@std@@@std@@YAPAVCGuildCombat1to1@@QAV1@0PAV1@AAV?$allocator@VCGuildCombat1to1@@@0@@Z$0:
  00000	8d 4d e8	 lea	 ecx, DWORD PTR __Backout$[ebp]
  00003	e9 00 00 00 00	 jmp	 ??1?$_Uninitialized_backout_al@V?$allocator@VCGuildCombat1to1@@@std@@@std@@QAE@XZ ; std::_Uninitialized_backout_al<std::allocator<CGuildCombat1to1> >::~_Uninitialized_backout_al<std::allocator<CGuildCombat1to1> >
  00008	cc		 int	 3
  00009	cc		 int	 3
  0000a	cc		 int	 3
  0000b	cc		 int	 3
  0000c	cc		 int	 3
__ehhandler$??$_Uninitialized_move@PAVCGuildCombat1to1@@V?$allocator@VCGuildCombat1to1@@@std@@@std@@YAPAVCGuildCombat1to1@@QAV1@0PAV1@AAV?$allocator@VCGuildCombat1to1@@@0@@Z:
  0000d	90		 npad	 1
  0000e	90		 npad	 1
  0000f	8b 54 24 08	 mov	 edx, DWORD PTR [esp+8]
  00013	8d 42 0c	 lea	 eax, DWORD PTR [edx+12]
  00016	8b 4a e4	 mov	 ecx, DWORD PTR [edx-28]
  00019	33 c8		 xor	 ecx, eax
  0001b	e8 00 00 00 00	 call	 @__security_check_cookie@4
  00020	b8 00 00 00 00	 mov	 eax, OFFSET __ehfuncinfo$??$_Uninitialized_move@PAVCGuildCombat1to1@@V?$allocator@VCGuildCombat1to1@@@std@@@std@@YAPAVCGuildCombat1to1@@QAV1@0PAV1@AAV?$allocator@VCGuildCombat1to1@@@0@@Z
  00025	e9 00 00 00 00	 jmp	 ___CxxFrameHandler3
text$x	ENDS
??$_Uninitialized_move@PAVCGuildCombat1to1@@V?$allocator@VCGuildCombat1to1@@@std@@@std@@YAPAVCGuildCombat1to1@@QAV1@0PAV1@AAV?$allocator@VCGuildCombat1to1@@@0@@Z ENDP ; std::_Uninitialized_move<CGuildCombat1to1 *,std::allocator<CGuildCombat1to1> >
; Function compile flags: /Ogtp
; File C:\Program Files\Microsoft Visual Studio\2022\Professional\VC\Tools\MSVC\14.44.35207\include\vector
; File C:\Program Files\Microsoft Visual Studio\2022\Professional\VC\Tools\MSVC\14.44.35207\include\xmemory
; File C:\Program Files\Microsoft Visual Studio\2022\Professional\VC\Tools\MSVC\14.44.35207\include\vector
; File C:\Program Files\Microsoft Visual Studio\2022\Professional\VC\Tools\MSVC\14.44.35207\include\xmemory
; File C:\Program Files\Microsoft Visual Studio\2022\Professional\VC\Tools\MSVC\14.44.35207\include\vector
;	COMDAT ??1_Reallocation_guard@?$vector@VCGuildCombat1to1@@V?$allocator@VCGuildCombat1to1@@@std@@@std@@QAE@XZ
_TEXT	SEGMENT
??1_Reallocation_guard@?$vector@VCGuildCombat1to1@@V?$allocator@VCGuildCombat1to1@@@std@@@std@@QAE@XZ PROC ; std::vector<CGuildCombat1to1,std::allocator<CGuildCombat1to1> >::_Reallocation_guard::~_Reallocation_guard, COMDAT
; _this$ = ecx

; 620  :         _CONSTEXPR20 ~_Reallocation_guard() noexcept {

  00000	57		 push	 edi
  00001	8b f9		 mov	 edi, ecx

; 621  :             if (_New_begin != nullptr) {

  00003	83 7f 04 00	 cmp	 DWORD PTR [edi+4], 0
  00007	74 48		 je	 SHORT $LN18@Reallocati

; 622  :                 _STD _Destroy_range(_Constructed_first, _Constructed_last, _Al);

  00009	53		 push	 ebx
  0000a	8b 5f 10	 mov	 ebx, DWORD PTR [edi+16]
  0000d	56		 push	 esi
  0000e	8b 77 0c	 mov	 esi, DWORD PTR [edi+12]
; File C:\Program Files\Microsoft Visual Studio\2022\Professional\VC\Tools\MSVC\14.44.35207\include\xmemory

; 1102 :         for (; _First != _Last; ++_First) {

  00011	3b f3		 cmp	 esi, ebx
  00013	74 0f		 je	 SHORT $LN7@Reallocati
$LL8@Reallocati:

; 741  :         _Ptr->~_Uty();

  00015	8b 06		 mov	 eax, DWORD PTR [esi]
  00017	8b ce		 mov	 ecx, esi
  00019	6a 00		 push	 0
  0001b	ff 10		 call	 DWORD PTR [eax]

; 1102 :         for (; _First != _Last; ++_First) {

  0001d	83 c6 2c	 add	 esi, 44			; 0000002cH
  00020	3b f3		 cmp	 esi, ebx
  00022	75 f1		 jne	 SHORT $LL8@Reallocati
$LN7@Reallocati:

; 985  :         _STD _Deallocate<_New_alignof<_Ty>>(_Ptr, sizeof(_Ty) * _Count);

  00024	6b 4f 08 2c	 imul	 ecx, DWORD PTR [edi+8], 44
  00028	8b 47 04	 mov	 eax, DWORD PTR [edi+4]
  0002b	5e		 pop	 esi
  0002c	5b		 pop	 ebx

; 284  :         if (_Bytes >= _Big_allocation_threshold) {

  0002d	81 f9 00 10 00
	00		 cmp	 ecx, 4096		; 00001000H
  00033	72 12		 jb	 SHORT $LN23@Reallocati

; 205  :     const uintptr_t _Ptr_container   = _Ptr_user[-1];

  00035	8b 50 fc	 mov	 edx, DWORD PTR [eax-4]
  00038	83 c1 23	 add	 ecx, 35			; 00000023H

; 206  : 
; 207  :     // If the following asserts, it likely means that we are performing
; 208  :     // an aligned delete on memory coming from an unaligned allocation.
; 209  :     _STL_ASSERT(_Ptr_user[-2] == _Big_allocation_sentinel, "invalid argument");
; 210  : 
; 211  :     // Extra paranoia on aligned allocation/deallocation; ensure _Ptr_container is
; 212  :     // in range [_Min_back_shift, _Non_user_size]
; 213  : #ifdef _DEBUG
; 214  :     constexpr uintptr_t _Min_back_shift = 2 * sizeof(void*);
; 215  : #else // ^^^ defined(_DEBUG) / !defined(_DEBUG) vvv
; 216  :     constexpr uintptr_t _Min_back_shift = sizeof(void*);
; 217  : #endif // ^^^ !defined(_DEBUG) ^^^
; 218  :     const uintptr_t _Back_shift = reinterpret_cast<uintptr_t>(_Ptr) - _Ptr_container;

  0003b	2b c2		 sub	 eax, edx

; 219  :     _STL_VERIFY(_Back_shift >= _Min_back_shift && _Back_shift <= _Non_user_size, "invalid argument");

  0003d	83 c0 fc	 add	 eax, -4			; fffffffcH
  00040	83 f8 1f	 cmp	 eax, 31			; 0000001fH
  00043	77 0e		 ja	 SHORT $LN22@Reallocati

; 220  :     _Ptr = reinterpret_cast<void*>(_Ptr_container);

  00045	8b c2		 mov	 eax, edx
$LN23@Reallocati:

; 289  :         ::operator delete(_Ptr, _Bytes);

  00047	51		 push	 ecx
  00048	50		 push	 eax
  00049	e8 00 00 00 00	 call	 ??3@YAXPAXI@Z		; operator delete
  0004e	83 c4 08	 add	 esp, 8
$LN18@Reallocati:
  00051	5f		 pop	 edi
; File C:\Program Files\Microsoft Visual Studio\2022\Professional\VC\Tools\MSVC\14.44.35207\include\vector

; 625  :         }

  00052	c3		 ret	 0
$LN22@Reallocati:
; File C:\Program Files\Microsoft Visual Studio\2022\Professional\VC\Tools\MSVC\14.44.35207\include\xmemory

; 219  :     _STL_VERIFY(_Back_shift >= _Min_back_shift && _Back_shift <= _Non_user_size, "invalid argument");

  00053	6a 00		 push	 0
  00055	6a 00		 push	 0
  00057	6a 00		 push	 0
  00059	6a 00		 push	 0
  0005b	6a 00		 push	 0
  0005d	e8 00 00 00 00	 call	 __invoke_watson
$LN35@Reallocati:
  00062	cc		 int	 3
??1_Reallocation_guard@?$vector@VCGuildCombat1to1@@V?$allocator@VCGuildCombat1to1@@@std@@@std@@QAE@XZ ENDP ; std::vector<CGuildCombat1to1,std::allocator<CGuildCombat1to1> >::_Reallocation_guard::~_Reallocation_guard
_TEXT	ENDS
; Function compile flags: /Ogtp
; File C:\Program Files\Microsoft Visual Studio\2022\Professional\VC\Tools\MSVC\14.44.35207\include\xmemory
; File C:\Program Files\Microsoft Visual Studio\2022\Professional\VC\Tools\MSVC\14.44.35207\include\utility
; File C:\Program Files\Microsoft Visual Studio\2022\Professional\VC\Tools\MSVC\14.44.35207\include\vector
; File C:\Program Files\Microsoft Visual Studio\2022\Professional\VC\Tools\MSVC\14.44.35207\include\xmemory
; File C:\Program Files\Microsoft Visual Studio\2022\Professional\VC\Tools\MSVC\14.44.35207\include\vector
; File C:\Program Files\Microsoft Visual Studio\2022\Professional\VC\Tools\MSVC\14.44.35207\include\xmemory
;	COMDAT ??$_Uninitialized_move@PAU__GC1TO1TENDER@CGuildCombat1to1Mng@@V?$allocator@U__GC1TO1TENDER@CGuildCombat1to1Mng@@@std@@@std@@YAPAU__GC1TO1TENDER@CGuildCombat1to1Mng@@QAU12@0PAU12@AAV?$allocator@U__GC1TO1TENDER@CGuildCombat1to1Mng@@@0@@Z
_TEXT	SEGMENT
__First$ = 8						; size = 4
__Last$ = 12						; size = 4
__Dest$ = 16						; size = 4
__Al$ = 20						; size = 4
??$_Uninitialized_move@PAU__GC1TO1TENDER@CGuildCombat1to1Mng@@V?$allocator@U__GC1TO1TENDER@CGuildCombat1to1Mng@@@std@@@std@@YAPAU__GC1TO1TENDER@CGuildCombat1to1Mng@@QAU12@0PAU12@AAV?$allocator@U__GC1TO1TENDER@CGuildCombat1to1Mng@@@0@@Z PROC ; std::_Uninitialized_move<CGuildCombat1to1Mng::__GC1TO1TENDER *,std::allocator<CGuildCombat1to1Mng::__GC1TO1TENDER> >, COMDAT

; 1977 :     const _InIt _First, const _InIt _Last, _Alloc_ptr_t<_Alloc> _Dest, _Alloc& _Al) {

  00000	55		 push	 ebp
  00001	8b ec		 mov	 ebp, esp

; 1998 :     for (; _UFirst != _ULast; ++_UFirst) {

  00003	8b 45 08	 mov	 eax, DWORD PTR __First$[ebp]
  00006	57		 push	 edi

; 1833 :     _CONSTEXPR20 _Uninitialized_backout_al(pointer _Dest, _Alloc& _Al_) : _First(_Dest), _Last(_Dest), _Al(_Al_) {}

  00007	8b 7d 10	 mov	 edi, DWORD PTR __Dest$[ebp]

; 1998 :     for (; _UFirst != _ULast; ++_UFirst) {

  0000a	3b 45 0c	 cmp	 eax, DWORD PTR __Last$[ebp]
  0000d	74 70		 je	 SHORT $LN69@Uninitiali
  0000f	53		 push	 ebx

; 1833 :     _CONSTEXPR20 _Uninitialized_backout_al(pointer _Dest, _Alloc& _Al_) : _First(_Dest), _Last(_Dest), _Al(_Al_) {}

  00010	8b df		 mov	 ebx, edi
  00012	8d 48 24	 lea	 ecx, DWORD PTR [eax+36]
  00015	56		 push	 esi
  00016	2b d8		 sub	 ebx, eax
$LL4@Uninitiali:
  00018	8b 41 dc	 mov	 eax, DWORD PTR [ecx-36]

; 1845 :         ++_Last;

  0001b	8d 49 2c	 lea	 ecx, DWORD PTR [ecx+44]
  0001e	89 07		 mov	 DWORD PTR [edi], eax
  00020	8b 41 b4	 mov	 eax, DWORD PTR [ecx-76]
  00023	89 47 04	 mov	 DWORD PTR [edi+4], eax
  00026	8b 41 b8	 mov	 eax, DWORD PTR [ecx-72]
  00029	89 47 08	 mov	 DWORD PTR [edi+8], eax
  0002c	8b 41 bc	 mov	 eax, DWORD PTR [ecx-68]
  0002f	89 47 0c	 mov	 DWORD PTR [edi+12], eax
  00032	8b 41 c0	 mov	 eax, DWORD PTR [ecx-64]
  00035	89 47 10	 mov	 DWORD PTR [edi+16], eax
  00038	8b 41 c4	 mov	 eax, DWORD PTR [ecx-60]
  0003b	89 47 14	 mov	 DWORD PTR [edi+20], eax
  0003e	8b 41 c8	 mov	 eax, DWORD PTR [ecx-56]
  00041	89 47 18	 mov	 DWORD PTR [edi+24], eax
  00044	8b 41 cc	 mov	 eax, DWORD PTR [ecx-52]
  00047	89 47 1c	 mov	 DWORD PTR [edi+28], eax
; File C:\Program Files\Microsoft Visual Studio\2022\Professional\VC\Tools\MSVC\14.44.35207\include\utility

; 773  :     _Ty _Old_val = static_cast<_Ty&&>(_Val);

  0004a	8b 51 d4	 mov	 edx, DWORD PTR [ecx-44]
  0004d	8b 71 d8	 mov	 esi, DWORD PTR [ecx-40]
  00050	8b 41 d0	 mov	 eax, DWORD PTR [ecx-48]

; 774  :     _Val         = static_cast<_Other&&>(_New_val);

  00053	c7 41 d8 00 00
	00 00		 mov	 DWORD PTR [ecx-40], 0
  0005a	c7 41 d4 00 00
	00 00		 mov	 DWORD PTR [ecx-44], 0
  00061	c7 41 d0 00 00
	00 00		 mov	 DWORD PTR [ecx-48], 0
; File C:\Program Files\Microsoft Visual Studio\2022\Professional\VC\Tools\MSVC\14.44.35207\include\vector

; 403  :         : _Myfirst(_First), _Mylast(_Last), _Myend(_End) {}

  00068	89 54 19 d4	 mov	 DWORD PTR [ecx+ebx-44], edx
; File C:\Program Files\Microsoft Visual Studio\2022\Professional\VC\Tools\MSVC\14.44.35207\include\xmemory

; 1998 :     for (; _UFirst != _ULast; ++_UFirst) {

  0006c	8d 51 dc	 lea	 edx, DWORD PTR [ecx-36]
; File C:\Program Files\Microsoft Visual Studio\2022\Professional\VC\Tools\MSVC\14.44.35207\include\vector

; 403  :         : _Myfirst(_First), _Mylast(_Last), _Myend(_End) {}

  0006f	89 47 20	 mov	 DWORD PTR [edi+32], eax
  00072	89 77 28	 mov	 DWORD PTR [edi+40], esi
; File C:\Program Files\Microsoft Visual Studio\2022\Professional\VC\Tools\MSVC\14.44.35207\include\xmemory

; 1845 :         ++_Last;

  00075	83 c7 2c	 add	 edi, 44			; 0000002cH

; 1998 :     for (; _UFirst != _ULast; ++_UFirst) {

  00078	3b 55 0c	 cmp	 edx, DWORD PTR __Last$[ebp]
  0007b	75 9b		 jne	 SHORT $LL4@Uninitiali
  0007d	5e		 pop	 esi
  0007e	5b		 pop	 ebx
$LN69@Uninitiali:

; 1999 :         _Backout._Emplace_back(_STD move(*_UFirst));
; 2000 :     }
; 2001 : 
; 2002 :     return _Backout._Release();
; 2003 : }

  0007f	8b c7		 mov	 eax, edi
  00081	5f		 pop	 edi
  00082	5d		 pop	 ebp
  00083	c3		 ret	 0
??$_Uninitialized_move@PAU__GC1TO1TENDER@CGuildCombat1to1Mng@@V?$allocator@U__GC1TO1TENDER@CGuildCombat1to1Mng@@@std@@@std@@YAPAU__GC1TO1TENDER@CGuildCombat1to1Mng@@QAU12@0PAU12@AAV?$allocator@U__GC1TO1TENDER@CGuildCombat1to1Mng@@@0@@Z ENDP ; std::_Uninitialized_move<CGuildCombat1to1Mng::__GC1TO1TENDER *,std::allocator<CGuildCombat1to1Mng::__GC1TO1TENDER> >
_TEXT	ENDS
; Function compile flags: /Ogtp
; File C:\Program Files\Microsoft Visual Studio\2022\Professional\VC\Tools\MSVC\14.44.35207\include\vector
; File C:\Program Files\Microsoft Visual Studio\2022\Professional\VC\Tools\MSVC\14.44.35207\include\xmemory
; File C:\Program Files\Microsoft Visual Studio\2022\Professional\VC\Tools\MSVC\14.44.35207\include\vector
; File C:\Program Files\Microsoft Visual Studio\2022\Professional\VC\Tools\MSVC\14.44.35207\include\xmemory
; File C:\Program Files\Microsoft Visual Studio\2022\Professional\VC\Tools\MSVC\14.44.35207\include\vector
; File C:\Program Files\Microsoft Visual Studio\2022\Professional\VC\Tools\MSVC\14.44.35207\include\xmemory
; File C:\Program Files\Microsoft Visual Studio\2022\Professional\VC\Tools\MSVC\14.44.35207\include\vector
;	COMDAT ??1_Reallocation_guard@?$vector@U__GC1TO1TENDER@CGuildCombat1to1Mng@@V?$allocator@U__GC1TO1TENDER@CGuildCombat1to1Mng@@@std@@@std@@QAE@XZ
_TEXT	SEGMENT
??1_Reallocation_guard@?$vector@U__GC1TO1TENDER@CGuildCombat1to1Mng@@V?$allocator@U__GC1TO1TENDER@CGuildCombat1to1Mng@@@std@@@std@@QAE@XZ PROC ; std::vector<CGuildCombat1to1Mng::__GC1TO1TENDER,std::allocator<CGuildCombat1to1Mng::__GC1TO1TENDER> >::_Reallocation_guard::~_Reallocation_guard, COMDAT
; _this$ = ecx

; 620  :         _CONSTEXPR20 ~_Reallocation_guard() noexcept {

  00000	57		 push	 edi
  00001	8b f9		 mov	 edi, ecx

; 621  :             if (_New_begin != nullptr) {

  00003	83 7f 04 00	 cmp	 DWORD PTR [edi+4], 0
  00007	74 48		 je	 SHORT $LN30@Reallocati

; 622  :                 _STD _Destroy_range(_Constructed_first, _Constructed_last, _Al);

  00009	53		 push	 ebx
  0000a	8b 5f 10	 mov	 ebx, DWORD PTR [edi+16]
  0000d	56		 push	 esi
  0000e	8b 77 0c	 mov	 esi, DWORD PTR [edi+12]
; File C:\Program Files\Microsoft Visual Studio\2022\Professional\VC\Tools\MSVC\14.44.35207\include\xmemory

; 1102 :         for (; _First != _Last; ++_First) {

  00011	3b f3		 cmp	 esi, ebx
  00013	74 0f		 je	 SHORT $LN7@Reallocati
$LL8@Reallocati:
; File C:\Program Files\Microsoft Visual Studio\2022\Professional\VC\Tools\MSVC\14.44.35207\include\vector

; 830  :         _Tidy();

  00015	8d 4e 20	 lea	 ecx, DWORD PTR [esi+32]
  00018	e8 00 00 00 00	 call	 ?_Tidy@?$vector@KV?$allocator@K@std@@@std@@AAEXXZ ; std::vector<unsigned long,std::allocator<unsigned long> >::_Tidy
; File C:\Program Files\Microsoft Visual Studio\2022\Professional\VC\Tools\MSVC\14.44.35207\include\xmemory

; 1102 :         for (; _First != _Last; ++_First) {

  0001d	83 c6 2c	 add	 esi, 44			; 0000002cH
  00020	3b f3		 cmp	 esi, ebx
  00022	75 f1		 jne	 SHORT $LL8@Reallocati
$LN7@Reallocati:

; 985  :         _STD _Deallocate<_New_alignof<_Ty>>(_Ptr, sizeof(_Ty) * _Count);

  00024	6b 4f 08 2c	 imul	 ecx, DWORD PTR [edi+8], 44
  00028	8b 47 04	 mov	 eax, DWORD PTR [edi+4]
  0002b	5e		 pop	 esi
  0002c	5b		 pop	 ebx

; 284  :         if (_Bytes >= _Big_allocation_threshold) {

  0002d	81 f9 00 10 00
	00		 cmp	 ecx, 4096		; 00001000H
  00033	72 12		 jb	 SHORT $LN35@Reallocati

; 205  :     const uintptr_t _Ptr_container   = _Ptr_user[-1];

  00035	8b 50 fc	 mov	 edx, DWORD PTR [eax-4]
  00038	83 c1 23	 add	 ecx, 35			; 00000023H

; 206  : 
; 207  :     // If the following asserts, it likely means that we are performing
; 208  :     // an aligned delete on memory coming from an unaligned allocation.
; 209  :     _STL_ASSERT(_Ptr_user[-2] == _Big_allocation_sentinel, "invalid argument");
; 210  : 
; 211  :     // Extra paranoia on aligned allocation/deallocation; ensure _Ptr_container is
; 212  :     // in range [_Min_back_shift, _Non_user_size]
; 213  : #ifdef _DEBUG
; 214  :     constexpr uintptr_t _Min_back_shift = 2 * sizeof(void*);
; 215  : #else // ^^^ defined(_DEBUG) / !defined(_DEBUG) vvv
; 216  :     constexpr uintptr_t _Min_back_shift = sizeof(void*);
; 217  : #endif // ^^^ !defined(_DEBUG) ^^^
; 218  :     const uintptr_t _Back_shift = reinterpret_cast<uintptr_t>(_Ptr) - _Ptr_container;

  0003b	2b c2		 sub	 eax, edx

; 219  :     _STL_VERIFY(_Back_shift >= _Min_back_shift && _Back_shift <= _Non_user_size, "invalid argument");

  0003d	83 c0 fc	 add	 eax, -4			; fffffffcH
  00040	83 f8 1f	 cmp	 eax, 31			; 0000001fH
  00043	77 0e		 ja	 SHORT $LN34@Reallocati

; 220  :     _Ptr = reinterpret_cast<void*>(_Ptr_container);

  00045	8b c2		 mov	 eax, edx
$LN35@Reallocati:

; 289  :         ::operator delete(_Ptr, _Bytes);

  00047	51		 push	 ecx
  00048	50		 push	 eax
  00049	e8 00 00 00 00	 call	 ??3@YAXPAXI@Z		; operator delete
  0004e	83 c4 08	 add	 esp, 8
$LN30@Reallocati:
  00051	5f		 pop	 edi
; File C:\Program Files\Microsoft Visual Studio\2022\Professional\VC\Tools\MSVC\14.44.35207\include\vector

; 625  :         }

  00052	c3		 ret	 0
$LN34@Reallocati:
; File C:\Program Files\Microsoft Visual Studio\2022\Professional\VC\Tools\MSVC\14.44.35207\include\xmemory

; 219  :     _STL_VERIFY(_Back_shift >= _Min_back_shift && _Back_shift <= _Non_user_size, "invalid argument");

  00053	6a 00		 push	 0
  00055	6a 00		 push	 0
  00057	6a 00		 push	 0
  00059	6a 00		 push	 0
  0005b	6a 00		 push	 0
  0005d	e8 00 00 00 00	 call	 __invoke_watson
$LN47@Reallocati:
  00062	cc		 int	 3
??1_Reallocation_guard@?$vector@U__GC1TO1TENDER@CGuildCombat1to1Mng@@V?$allocator@U__GC1TO1TENDER@CGuildCombat1to1Mng@@@std@@@std@@QAE@XZ ENDP ; std::vector<CGuildCombat1to1Mng::__GC1TO1TENDER,std::allocator<CGuildCombat1to1Mng::__GC1TO1TENDER> >::_Reallocation_guard::~_Reallocation_guard
_TEXT	ENDS
; Function compile flags: /Ogtp
; File C:\Program Files\Microsoft Visual Studio\2022\Professional\VC\Tools\MSVC\14.44.35207\include\xmemory
; File C:\Program Files\Microsoft Visual Studio\2022\Professional\VC\Tools\MSVC\14.44.35207\include\vector
; File C:\Program Files\Microsoft Visual Studio\2022\Professional\VC\Tools\MSVC\14.44.35207\include\xmemory
;	COMDAT ??1?$_Uninitialized_backout_al@V?$allocator@U__GC1TO1TENDER@CGuildCombat1to1Mng@@@std@@@std@@QAE@XZ
_TEXT	SEGMENT
??1?$_Uninitialized_backout_al@V?$allocator@U__GC1TO1TENDER@CGuildCombat1to1Mng@@@std@@@std@@QAE@XZ PROC ; std::_Uninitialized_backout_al<std::allocator<CGuildCombat1to1Mng::__GC1TO1TENDER> >::~_Uninitialized_backout_al<std::allocator<CGuildCombat1to1Mng::__GC1TO1TENDER> >, COMDAT
; _this$ = ecx

; 1838 :     _CONSTEXPR20 ~_Uninitialized_backout_al() {

  00000	56		 push	 esi

; 1839 :         _STD _Destroy_range(_First, _Last, _Al);

  00001	8b 31		 mov	 esi, DWORD PTR [ecx]
  00003	57		 push	 edi
  00004	8b 79 04	 mov	 edi, DWORD PTR [ecx+4]

; 1102 :         for (; _First != _Last; ++_First) {

  00007	3b f7		 cmp	 esi, edi
  00009	74 14		 je	 SHORT $LN6@Uninitiali
  0000b	0f 1f 44 00 00	 npad	 5
$LL7@Uninitiali:
; File C:\Program Files\Microsoft Visual Studio\2022\Professional\VC\Tools\MSVC\14.44.35207\include\vector

; 830  :         _Tidy();

  00010	8d 4e 20	 lea	 ecx, DWORD PTR [esi+32]
  00013	e8 00 00 00 00	 call	 ?_Tidy@?$vector@KV?$allocator@K@std@@@std@@AAEXXZ ; std::vector<unsigned long,std::allocator<unsigned long> >::_Tidy
; File C:\Program Files\Microsoft Visual Studio\2022\Professional\VC\Tools\MSVC\14.44.35207\include\xmemory

; 1102 :         for (; _First != _Last; ++_First) {

  00018	83 c6 2c	 add	 esi, 44			; 0000002cH
  0001b	3b f7		 cmp	 esi, edi
  0001d	75 f1		 jne	 SHORT $LL7@Uninitiali
$LN6@Uninitiali:
  0001f	5f		 pop	 edi

; 1840 :     }

  00020	5e		 pop	 esi
  00021	c3		 ret	 0
??1?$_Uninitialized_backout_al@V?$allocator@U__GC1TO1TENDER@CGuildCombat1to1Mng@@@std@@@std@@QAE@XZ ENDP ; std::_Uninitialized_backout_al<std::allocator<CGuildCombat1to1Mng::__GC1TO1TENDER> >::~_Uninitialized_backout_al<std::allocator<CGuildCombat1to1Mng::__GC1TO1TENDER> >
_TEXT	ENDS
; Function compile flags: /Ogtp
; File C:\Program Files\Microsoft Visual Studio\2022\Professional\VC\Tools\MSVC\14.44.35207\include\xutility
;	COMDAT ??$_Copy_memmove_n@PAKPAK@std@@YAPAKPAKI0@Z
_TEXT	SEGMENT
__First$ = 8						; size = 4
__Object_count$ = 12					; size = 4
__Dest$ = 16						; size = 4
??$_Copy_memmove_n@PAKPAK@std@@YAPAKPAKI0@Z PROC	; std::_Copy_memmove_n<unsigned long *,unsigned long *>, COMDAT

; 4774 : _OutCtgIt _Copy_memmove_n(_CtgIt _First, const size_t _Object_count, _OutCtgIt _Dest) {

  00000	55		 push	 ebp
  00001	8b ec		 mov	 ebp, esp

; 4775 :     const auto _First_ptr  = _STD _To_address(_First);
; 4776 :     const auto _First_ch   = const_cast<const char*>(reinterpret_cast<const volatile char*>(_First_ptr));
; 4777 :     const auto _Byte_count = _Object_count * sizeof(*_First_ptr);
; 4778 :     return _STD _Copy_memmove_tail(_First_ch, _STD move(_Dest), _Byte_count, _Object_count);

  00003	8b 45 0c	 mov	 eax, DWORD PTR __Object_count$[ebp]
  00006	50		 push	 eax
  00007	c1 e0 02	 shl	 eax, 2
  0000a	50		 push	 eax
  0000b	ff 75 10	 push	 DWORD PTR __Dest$[ebp]
  0000e	ff 75 08	 push	 DWORD PTR __First$[ebp]
  00011	e8 00 00 00 00	 call	 ??$_Copy_memmove_tail@PAK@std@@YAPAKQBDQAKII@Z ; std::_Copy_memmove_tail<unsigned long *>
  00016	83 c4 10	 add	 esp, 16			; 00000010H

; 4779 : }

  00019	5d		 pop	 ebp
  0001a	c3		 ret	 0
??$_Copy_memmove_n@PAKPAK@std@@YAPAKPAKI0@Z ENDP	; std::_Copy_memmove_n<unsigned long *,unsigned long *>
_TEXT	ENDS
; Function compile flags: /Ogtp
; File C:\Program Files\Microsoft Visual Studio\2022\Professional\VC\Tools\MSVC\14.44.35207\include\vector
; File C:\Program Files\Microsoft Visual Studio\2022\Professional\VC\Tools\MSVC\14.44.35207\include\xmemory
; File C:\Program Files\Microsoft Visual Studio\2022\Professional\VC\Tools\MSVC\14.44.35207\include\vector
; File C:\Program Files\Microsoft Visual Studio\2022\Professional\VC\Tools\MSVC\14.44.35207\include\xmemory
; File C:\Program Files\Microsoft Visual Studio\2022\Professional\VC\Tools\MSVC\14.44.35207\include\vector
; File C:\Program Files\Microsoft Visual Studio\2022\Professional\VC\Tools\MSVC\14.44.35207\include\xmemory
; File C:\Program Files\Microsoft Visual Studio\2022\Professional\VC\Tools\MSVC\14.44.35207\include\vector
; File C:\Program Files\Microsoft Visual Studio\2022\Professional\VC\Tools\MSVC\14.44.35207\include\xmemory
; File C:\Program Files\Microsoft Visual Studio\2022\Professional\VC\Tools\MSVC\14.44.35207\include\vector
; File C:\Program Files\Microsoft Visual Studio\2022\Professional\VC\Tools\MSVC\14.44.35207\include\xmemory
; File C:\Program Files\Microsoft Visual Studio\2022\Professional\VC\Tools\MSVC\14.44.35207\include\vector
; File C:\Program Files\Microsoft Visual Studio\2022\Professional\VC\Tools\MSVC\14.44.35207\include\xmemory
; File C:\Program Files\Microsoft Visual Studio\2022\Professional\VC\Tools\MSVC\14.44.35207\include\vector
; File C:\Program Files\Microsoft Visual Studio\2022\Professional\VC\Tools\MSVC\14.44.35207\include\xmemory
; File C:\Program Files\Microsoft Visual Studio\2022\Professional\VC\Tools\MSVC\14.44.35207\include\vector
; File C:\Program Files\Microsoft Visual Studio\2022\Professional\VC\Tools\MSVC\14.44.35207\include\xmemory
; File C:\Program Files\Microsoft Visual Studio\2022\Professional\VC\Tools\MSVC\14.44.35207\include\vector
; File C:\Program Files\Microsoft Visual Studio\2022\Professional\VC\Tools\MSVC\14.44.35207\include\xmemory
; File C:\Program Files\Microsoft Visual Studio\2022\Professional\VC\Tools\MSVC\14.44.35207\include\vector
; File C:\Program Files\Microsoft Visual Studio\2022\Professional\VC\Tools\MSVC\14.44.35207\include\xmemory
; File C:\Program Files\Microsoft Visual Studio\2022\Professional\VC\Tools\MSVC\14.44.35207\include\vector
;	COMDAT ??$_Emplace_reallocate@ABVCGuildCombat1to1@@@?$vector@VCGuildCombat1to1@@V?$allocator@VCGuildCombat1to1@@@std@@@std@@AAEPAVCGuildCombat1to1@@QAV2@ABV2@@Z
_TEXT	SEGMENT
__Guard$ = -64						; size = 20
__Backout$2 = -44					; size = 12
__Newsize$1$ = -32					; size = 4
_this$1$ = -28						; size = 4
tv634 = -24						; size = 4
__Whereoff$1$ = -20					; size = 4
tv633 = -20						; size = 4
$T3 = -16						; size = 4
__$EHRec$ = -12						; size = 12
__Whereptr$ = 8						; size = 4
__Last$1$ = 8						; size = 4
_<_Val_0>$ = 12						; size = 4
__ULast$1$ = 12						; size = 4
??$_Emplace_reallocate@ABVCGuildCombat1to1@@@?$vector@VCGuildCombat1to1@@V?$allocator@VCGuildCombat1to1@@@std@@@std@@AAEPAVCGuildCombat1to1@@QAV2@ABV2@@Z PROC ; std::vector<CGuildCombat1to1,std::allocator<CGuildCombat1to1> >::_Emplace_reallocate<CGuildCombat1to1 const &>, COMDAT
; _this$ = ecx

; 875  :     _CONSTEXPR20 pointer _Emplace_reallocate(const pointer _Whereptr, _Valty&&... _Val) {

  00000	55		 push	 ebp
  00001	8b ec		 mov	 ebp, esp
  00003	6a ff		 push	 -1
  00005	68 00 00 00 00	 push	 __ehhandler$??$_Emplace_reallocate@ABVCGuildCombat1to1@@@?$vector@VCGuildCombat1to1@@V?$allocator@VCGuildCombat1to1@@@std@@@std@@AAEPAVCGuildCombat1to1@@QAV2@ABV2@@Z
  0000a	64 a1 00 00 00
	00		 mov	 eax, DWORD PTR fs:0
  00010	50		 push	 eax
  00011	83 ec 34	 sub	 esp, 52			; 00000034H
  00014	53		 push	 ebx
  00015	56		 push	 esi
  00016	57		 push	 edi
  00017	a1 00 00 00 00	 mov	 eax, DWORD PTR ___security_cookie
  0001c	33 c5		 xor	 eax, ebp
  0001e	50		 push	 eax
  0001f	8d 45 f4	 lea	 eax, DWORD PTR __$EHRec$[ebp]
  00022	64 a3 00 00 00
	00		 mov	 DWORD PTR fs:0, eax
  00028	8b d9		 mov	 ebx, ecx
  0002a	89 5d e4	 mov	 DWORD PTR _this$1$[ebp], ebx

; 876  :         // reallocate and insert by perfectly forwarding _Val at _Whereptr
; 877  :         _Alty& _Al        = _Getal();
; 878  :         auto& _My_data    = _Mypair._Myval2;
; 879  :         pointer& _Myfirst = _My_data._Myfirst;
; 880  :         pointer& _Mylast  = _My_data._Mylast;
; 881  : 
; 882  :         _STL_INTERNAL_CHECK(_Mylast == _My_data._Myend); // check that we have no unused capacity
; 883  : 
; 884  :         const auto _Whereoff = static_cast<size_type>(_Whereptr - _Myfirst);

  0002d	8b 33		 mov	 esi, DWORD PTR [ebx]
  0002f	b8 e9 a2 8b 2e	 mov	 eax, 780903145		; 2e8ba2e9H
  00034	8b 55 08	 mov	 edx, DWORD PTR __Whereptr$[ebp]

; 885  :         const auto _Oldsize  = static_cast<size_type>(_Mylast - _Myfirst);

  00037	8b 4b 04	 mov	 ecx, DWORD PTR [ebx+4]
  0003a	2b d6		 sub	 edx, esi
  0003c	f7 ea		 imul	 edx
  0003e	2b ce		 sub	 ecx, esi
  00040	c1 fa 03	 sar	 edx, 3
  00043	8b c2		 mov	 eax, edx
  00045	c1 e8 1f	 shr	 eax, 31			; 0000001fH
  00048	03 c2		 add	 eax, edx
  0004a	89 45 ec	 mov	 DWORD PTR __Whereoff$1$[ebp], eax
  0004d	b8 e9 a2 8b 2e	 mov	 eax, 780903145		; 2e8ba2e9H
  00052	f7 e9		 imul	 ecx
  00054	c1 fa 03	 sar	 edx, 3
  00057	8b c2		 mov	 eax, edx
  00059	c1 e8 1f	 shr	 eax, 31			; 0000001fH
  0005c	03 c2		 add	 eax, edx

; 886  : 
; 887  :         if (_Oldsize == max_size()) {

  0005e	3d 5d 74 d1 05	 cmp	 eax, 97612893		; 05d1745dH
  00063	0f 84 c8 01 00
	00		 je	 $LN131@Emplace_re

; 1924 :         return static_cast<size_type>(_My_data._Myend - _My_data._Myfirst);

  00069	8b 4b 08	 mov	 ecx, DWORD PTR [ebx+8]

; 889  :         }
; 890  : 
; 891  :         const size_type _Newsize = _Oldsize + 1;

  0006c	8d 78 01	 lea	 edi, DWORD PTR [eax+1]

; 1924 :         return static_cast<size_type>(_My_data._Myend - _My_data._Myfirst);

  0006f	2b ce		 sub	 ecx, esi

; 889  :         }
; 890  : 
; 891  :         const size_type _Newsize = _Oldsize + 1;

  00071	89 7d e0	 mov	 DWORD PTR __Newsize$1$[ebp], edi

; 1924 :         return static_cast<size_type>(_My_data._Myend - _My_data._Myfirst);

  00074	b8 e9 a2 8b 2e	 mov	 eax, 780903145		; 2e8ba2e9H
  00079	f7 e9		 imul	 ecx

; 2011 :         if (_Oldcapacity > _Max - _Oldcapacity / 2) {

  0007b	b8 5d 74 d1 05	 mov	 eax, 97612893		; 05d1745dH

; 1924 :         return static_cast<size_type>(_My_data._Myend - _My_data._Myfirst);

  00080	c1 fa 03	 sar	 edx, 3
  00083	8b ca		 mov	 ecx, edx
  00085	c1 e9 1f	 shr	 ecx, 31			; 0000001fH
  00088	03 ca		 add	 ecx, edx

; 2011 :         if (_Oldcapacity > _Max - _Oldcapacity / 2) {

  0008a	8b d1		 mov	 edx, ecx
  0008c	d1 ea		 shr	 edx, 1
  0008e	2b c2		 sub	 eax, edx
  00090	3b c8		 cmp	 ecx, eax
  00092	76 1e		 jbe	 SHORT $LN8@Emplace_re

; 2012 :             return _Max; // geometric growth would overflow

  00094	b8 fc ff ff ff	 mov	 eax, -4			; fffffffcH
  00099	c7 45 e8 fc ff
	ff ff		 mov	 DWORD PTR tv634[ebp], -4 ; fffffffcH
; File C:\Program Files\Microsoft Visual Studio\2022\Professional\VC\Tools\MSVC\14.44.35207\include\xmemory

; 253  :             return _Allocate_manually_vector_aligned<_Traits>(_Bytes);

  000a0	50		 push	 eax
; File C:\Program Files\Microsoft Visual Studio\2022\Professional\VC\Tools\MSVC\14.44.35207\include\vector

; 2012 :             return _Max; // geometric growth would overflow

  000a1	be 5d 74 d1 05	 mov	 esi, 97612893		; 05d1745dH
; File C:\Program Files\Microsoft Visual Studio\2022\Professional\VC\Tools\MSVC\14.44.35207\include\xmemory

; 253  :             return _Allocate_manually_vector_aligned<_Traits>(_Bytes);

  000a6	e8 00 00 00 00	 call	 ??$_Allocate_manually_vector_aligned@U_Default_allocate_traits@std@@@std@@YAPAXI@Z ; std::_Allocate_manually_vector_aligned<std::_Default_allocate_traits>
  000ab	8b f8		 mov	 edi, eax
  000ad	89 7d f0	 mov	 DWORD PTR $T3[ebp], edi
  000b0	eb 46		 jmp	 SHORT $LN129@Emplace_re
$LN8@Emplace_re:
; File C:\Program Files\Microsoft Visual Studio\2022\Professional\VC\Tools\MSVC\14.44.35207\include\vector

; 2015 :         const size_type _Geometric = _Oldcapacity + _Oldcapacity / 2;

  000b2	8d 04 0a	 lea	 eax, DWORD PTR [edx+ecx]
; File C:\Program Files\Microsoft Visual Studio\2022\Professional\VC\Tools\MSVC\14.44.35207\include\xmemory

; 117  :         if (_Count > _Max_possible) {

  000b5	8b f7		 mov	 esi, edi
  000b7	3b c7		 cmp	 eax, edi
  000b9	0f 43 f0	 cmovae	 esi, eax
  000bc	81 fe 5d 74 d1
	05		 cmp	 esi, 97612893		; 05d1745dH
  000c2	0f 87 6e 01 00
	00		 ja	 $LN132@Emplace_re

; 119  :         }
; 120  :     }
; 121  : 
; 122  :     return _Count * _Ty_size;

  000c8	6b c6 2c	 imul	 eax, esi, 44
  000cb	89 45 e8	 mov	 DWORD PTR tv634[ebp], eax

; 227  :     if (_Bytes == 0) {

  000ce	85 c0		 test	 eax, eax
  000d0	75 07		 jne	 SHORT $LN23@Emplace_re

; 228  :         return nullptr;

  000d2	33 ff		 xor	 edi, edi
  000d4	89 7d f0	 mov	 DWORD PTR $T3[ebp], edi
  000d7	eb 22		 jmp	 SHORT $LN22@Emplace_re
$LN23@Emplace_re:

; 229  :     }
; 230  : 
; 231  : #if _HAS_CXX20 // TRANSITION, GH-1532
; 232  :     if (_STD is_constant_evaluated()) {
; 233  :         return _Traits::_Allocate(_Bytes);
; 234  :     }
; 235  : #endif // _HAS_CXX20
; 236  : 
; 237  : #ifdef __cpp_aligned_new
; 238  :     if constexpr (_Align > __STDCPP_DEFAULT_NEW_ALIGNMENT__) {
; 239  :         size_t _Passed_align = _Align;
; 240  : #if defined(_M_IX86) || defined(_M_X64)
; 241  :         if (_Bytes >= _Big_allocation_threshold) {
; 242  :             // boost the alignment of big allocations to help autovectorization
; 243  :             _Passed_align = (_STD max)(_Align, _Big_allocation_alignment);
; 244  :         }
; 245  : #endif // defined(_M_IX86) || defined(_M_X64)
; 246  :         return _Traits::_Allocate_aligned(_Bytes, _Passed_align);
; 247  :     } else
; 248  : #endif // defined(__cpp_aligned_new)
; 249  :     {
; 250  : #if defined(_M_IX86) || defined(_M_X64)
; 251  :         if (_Bytes >= _Big_allocation_threshold) {

  000d9	3d 00 10 00 00	 cmp	 eax, 4096		; 00001000H
  000de	72 0d		 jb	 SHORT $LN24@Emplace_re

; 253  :             return _Allocate_manually_vector_aligned<_Traits>(_Bytes);

  000e0	50		 push	 eax
  000e1	e8 00 00 00 00	 call	 ??$_Allocate_manually_vector_aligned@U_Default_allocate_traits@std@@@std@@YAPAXI@Z ; std::_Allocate_manually_vector_aligned<std::_Default_allocate_traits>
  000e6	8b f8		 mov	 edi, eax
  000e8	89 7d f0	 mov	 DWORD PTR $T3[ebp], edi
  000eb	eb 0b		 jmp	 SHORT $LN129@Emplace_re
$LN24@Emplace_re:

; 136  :         return ::operator new(_Bytes);

  000ed	50		 push	 eax
  000ee	e8 00 00 00 00	 call	 ??2@YAPAXI@Z		; operator new

; 256  :         return _Traits::_Allocate(_Bytes);

  000f3	8b f8		 mov	 edi, eax
  000f5	89 45 f0	 mov	 DWORD PTR $T3[ebp], eax
$LN129@Emplace_re:
; File C:\Program Files\Microsoft Visual Studio\2022\Professional\VC\Tools\MSVC\14.44.35207\include\vector

; 895  :         const pointer _Constructed_last = _Newvec + _Whereoff + 1;

  000f8	83 c4 04	 add	 esp, 4
$LN22@Emplace_re:
  000fb	6b 4d ec 2c	 imul	 ecx, DWORD PTR __Whereoff$1$[ebp], 44

; 897  :         _Reallocation_guard _Guard{_Al, _Newvec, _Newcapacity, _Constructed_last, _Constructed_last};

  000ff	89 5d c0	 mov	 DWORD PTR __Guard$[ebp], ebx
  00102	89 7d c4	 mov	 DWORD PTR __Guard$[ebp+4], edi
  00105	89 75 c8	 mov	 DWORD PTR __Guard$[ebp+8], esi
  00108	03 cf		 add	 ecx, edi
  0010a	89 4d ec	 mov	 DWORD PTR tv633[ebp], ecx
  0010d	8d 41 2c	 lea	 eax, DWORD PTR [ecx+44]
  00110	89 45 cc	 mov	 DWORD PTR __Guard$[ebp+12], eax
  00113	89 45 d0	 mov	 DWORD PTR __Guard$[ebp+16], eax
; File C:\Program Files\Microsoft Visual Studio\2022\Professional\VC\Tools\MSVC\14.44.35207\include\xmemory

; 732  :         ::new (const_cast<void*>(static_cast<const volatile void*>(_Ptr))) _Objty(_STD forward<_Types>(_Args)...);

  00116	ff 75 0c	 push	 DWORD PTR _<_Val_0>$[ebp]
; File C:\Program Files\Microsoft Visual Studio\2022\Professional\VC\Tools\MSVC\14.44.35207\include\vector

; 897  :         _Reallocation_guard _Guard{_Al, _Newvec, _Newcapacity, _Constructed_last, _Constructed_last};

  00119	c7 45 fc 00 00
	00 00		 mov	 DWORD PTR __$EHRec$[ebp+8], 0
; File C:\Program Files\Microsoft Visual Studio\2022\Professional\VC\Tools\MSVC\14.44.35207\include\xmemory

; 732  :         ::new (const_cast<void*>(static_cast<const volatile void*>(_Ptr))) _Objty(_STD forward<_Types>(_Args)...);

  00120	e8 00 00 00 00	 call	 ??0CGuildCombat1to1@@QAE@ABV0@@Z
; File C:\Program Files\Microsoft Visual Studio\2022\Professional\VC\Tools\MSVC\14.44.35207\include\vector

; 901  :         _Constructed_first = _Newvec + _Whereoff;

  00125	8b 45 ec	 mov	 eax, DWORD PTR tv633[ebp]

; 902  : 
; 903  :         if (_Whereptr == _Mylast) { // at back, provide strong guarantee

  00128	8b 4d 08	 mov	 ecx, DWORD PTR __Whereptr$[ebp]
  0012b	8b 33		 mov	 esi, DWORD PTR [ebx]
  0012d	89 45 cc	 mov	 DWORD PTR __Guard$[ebp+12], eax
  00130	8b 43 04	 mov	 eax, DWORD PTR [ebx+4]
  00133	89 45 0c	 mov	 DWORD PTR __ULast$1$[ebp], eax
  00136	3b c8		 cmp	 ecx, eax
  00138	0f 85 bd 00 00
	00		 jne	 $LN3@Emplace_re
; File C:\Program Files\Microsoft Visual Studio\2022\Professional\VC\Tools\MSVC\14.44.35207\include\xmemory

; 1833 :     _CONSTEXPR20 _Uninitialized_backout_al(pointer _Dest, _Alloc& _Al_) : _First(_Dest), _Last(_Dest), _Al(_Al_) {}

  0013e	89 7d d4	 mov	 DWORD PTR __Backout$2[ebp], edi
  00141	89 7d d8	 mov	 DWORD PTR __Backout$2[ebp+4], edi
  00144	89 5d dc	 mov	 DWORD PTR __Backout$2[ebp+8], ebx

; 1900 :     _Uninitialized_backout_al<_Alloc> _Backout{_Dest, _Al};

  00147	c6 45 fc 01	 mov	 BYTE PTR __$EHRec$[ebp+8], 1

; 1901 :     for (; _UFirst != _ULast; ++_UFirst) {

  0014b	3b f0		 cmp	 esi, eax
  0014d	74 1a		 je	 SHORT $LN126@Emplace_re
  0014f	8b d8		 mov	 ebx, eax
$LL35@Emplace_re:

; 732  :         ::new (const_cast<void*>(static_cast<const volatile void*>(_Ptr))) _Objty(_STD forward<_Types>(_Args)...);

  00151	56		 push	 esi
  00152	8b cf		 mov	 ecx, edi
  00154	e8 00 00 00 00	 call	 ??0CGuildCombat1to1@@QAE@ABV0@@Z

; 1845 :         ++_Last;

  00159	83 c7 2c	 add	 edi, 44			; 0000002cH

; 1901 :     for (; _UFirst != _ULast; ++_UFirst) {

  0015c	83 c6 2c	 add	 esi, 44			; 0000002cH

; 1845 :         ++_Last;

  0015f	89 7d d8	 mov	 DWORD PTR __Backout$2[ebp+4], edi

; 1901 :     for (; _UFirst != _ULast; ++_UFirst) {

  00162	3b f3		 cmp	 esi, ebx
  00164	75 eb		 jne	 SHORT $LL35@Emplace_re
; File C:\Program Files\Microsoft Visual Studio\2022\Professional\VC\Tools\MSVC\14.44.35207\include\vector

; 909  :         } else { // provide basic guarantee

  00166	8b 5d e4	 mov	 ebx, DWORD PTR _this$1$[ebp]
$LN126@Emplace_re:

; 2069 :         if (_Myfirst) { // destroy and deallocate old array

  00169	8b 7d f0	 mov	 edi, DWORD PTR $T3[ebp]
$LN4@Emplace_re:
  0016c	8b 33		 mov	 esi, DWORD PTR [ebx]
  0016e	85 f6		 test	 esi, esi
  00170	74 5f		 je	 SHORT $LN74@Emplace_re

; 2070 :             _STD _Destroy_range(_Myfirst, _Mylast, _Al);

  00172	8b 43 04	 mov	 eax, DWORD PTR [ebx+4]
  00175	89 45 08	 mov	 DWORD PTR __Last$1$[ebp], eax
; File C:\Program Files\Microsoft Visual Studio\2022\Professional\VC\Tools\MSVC\14.44.35207\include\xmemory

; 1102 :         for (; _First != _Last; ++_First) {

  00178	3b f0		 cmp	 esi, eax
  0017a	74 16		 je	 SHORT $LN63@Emplace_re
  0017c	8b f8		 mov	 edi, eax
  0017e	66 90		 npad	 2
$LL64@Emplace_re:

; 741  :         _Ptr->~_Uty();

  00180	8b 06		 mov	 eax, DWORD PTR [esi]
  00182	8b ce		 mov	 ecx, esi
  00184	6a 00		 push	 0
  00186	ff 10		 call	 DWORD PTR [eax]

; 1102 :         for (; _First != _Last; ++_First) {

  00188	83 c6 2c	 add	 esi, 44			; 0000002cH
  0018b	3b f7		 cmp	 esi, edi
  0018d	75 f1		 jne	 SHORT $LL64@Emplace_re
  0018f	8b 7d f0	 mov	 edi, DWORD PTR $T3[ebp]
$LN63@Emplace_re:
; File C:\Program Files\Microsoft Visual Studio\2022\Professional\VC\Tools\MSVC\14.44.35207\include\vector

; 2072 :             _Al.deallocate(_Myfirst, static_cast<size_type>(_Myend - _Myfirst));

  00192	8b 4b 08	 mov	 ecx, DWORD PTR [ebx+8]
  00195	b8 e9 a2 8b 2e	 mov	 eax, 780903145		; 2e8ba2e9H
  0019a	8b 33		 mov	 esi, DWORD PTR [ebx]
  0019c	2b ce		 sub	 ecx, esi
  0019e	f7 e9		 imul	 ecx
  001a0	c1 fa 03	 sar	 edx, 3
  001a3	8b c2		 mov	 eax, edx
  001a5	c1 e8 1f	 shr	 eax, 31			; 0000001fH
  001a8	03 c2		 add	 eax, edx
; File C:\Program Files\Microsoft Visual Studio\2022\Professional\VC\Tools\MSVC\14.44.35207\include\xmemory

; 985  :         _STD _Deallocate<_New_alignof<_Ty>>(_Ptr, sizeof(_Ty) * _Count);

  001aa	6b c8 2c	 imul	 ecx, eax, 44

; 284  :         if (_Bytes >= _Big_allocation_threshold) {

  001ad	81 f9 00 10 00
	00		 cmp	 ecx, 4096		; 00001000H
  001b3	72 12		 jb	 SHORT $LN79@Emplace_re

; 205  :     const uintptr_t _Ptr_container   = _Ptr_user[-1];

  001b5	8b 56 fc	 mov	 edx, DWORD PTR [esi-4]
  001b8	83 c1 23	 add	 ecx, 35			; 00000023H

; 206  : 
; 207  :     // If the following asserts, it likely means that we are performing
; 208  :     // an aligned delete on memory coming from an unaligned allocation.
; 209  :     _STL_ASSERT(_Ptr_user[-2] == _Big_allocation_sentinel, "invalid argument");
; 210  : 
; 211  :     // Extra paranoia on aligned allocation/deallocation; ensure _Ptr_container is
; 212  :     // in range [_Min_back_shift, _Non_user_size]
; 213  : #ifdef _DEBUG
; 214  :     constexpr uintptr_t _Min_back_shift = 2 * sizeof(void*);
; 215  : #else // ^^^ defined(_DEBUG) / !defined(_DEBUG) vvv
; 216  :     constexpr uintptr_t _Min_back_shift = sizeof(void*);
; 217  : #endif // ^^^ !defined(_DEBUG) ^^^
; 218  :     const uintptr_t _Back_shift = reinterpret_cast<uintptr_t>(_Ptr) - _Ptr_container;

  001bb	2b f2		 sub	 esi, edx

; 219  :     _STL_VERIFY(_Back_shift >= _Min_back_shift && _Back_shift <= _Non_user_size, "invalid argument");

  001bd	8d 46 fc	 lea	 eax, DWORD PTR [esi-4]
  001c0	83 f8 1f	 cmp	 eax, 31			; 0000001fH
  001c3	77 5d		 ja	 SHORT $LN78@Emplace_re

; 220  :     _Ptr = reinterpret_cast<void*>(_Ptr_container);

  001c5	8b f2		 mov	 esi, edx
$LN79@Emplace_re:

; 289  :         ::operator delete(_Ptr, _Bytes);

  001c7	51		 push	 ecx
  001c8	56		 push	 esi
  001c9	e8 00 00 00 00	 call	 ??3@YAXPAXI@Z		; operator delete
  001ce	83 c4 08	 add	 esp, 8
$LN74@Emplace_re:
; File C:\Program Files\Microsoft Visual Studio\2022\Professional\VC\Tools\MSVC\14.44.35207\include\vector

; 2076 :         _Mylast  = _Newvec + _Newsize;

  001d1	6b 4d e0 2c	 imul	 ecx, DWORD PTR __Newsize$1$[ebp], 44

; 913  :         }
; 914  : 
; 915  :         _Guard._New_begin = nullptr;
; 916  :         _Change_array(_Newvec, _Newsize, _Newcapacity);
; 917  :         return _Newvec + _Whereoff;

  001d5	8b 45 ec	 mov	 eax, DWORD PTR tv633[ebp]

; 2075 :         _Myfirst = _Newvec;

  001d8	89 3b		 mov	 DWORD PTR [ebx], edi

; 2076 :         _Mylast  = _Newvec + _Newsize;

  001da	03 cf		 add	 ecx, edi
  001dc	89 4b 04	 mov	 DWORD PTR [ebx+4], ecx

; 2077 :         _Myend   = _Newvec + _Newcapacity;

  001df	8b 4d e8	 mov	 ecx, DWORD PTR tv634[ebp]
  001e2	03 cf		 add	 ecx, edi
  001e4	89 4b 08	 mov	 DWORD PTR [ebx+8], ecx

; 918  :     }

  001e7	8b 4d f4	 mov	 ecx, DWORD PTR __$EHRec$[ebp]
  001ea	64 89 0d 00 00
	00 00		 mov	 DWORD PTR fs:0, ecx
  001f1	59		 pop	 ecx
  001f2	5f		 pop	 edi
  001f3	5e		 pop	 esi
  001f4	5b		 pop	 ebx
  001f5	8b e5		 mov	 esp, ebp
  001f7	5d		 pop	 ebp
  001f8	c2 08 00	 ret	 8
$LN3@Emplace_re:

; 910  :             _STD _Uninitialized_move(_Myfirst, _Whereptr, _Newvec, _Al);

  001fb	53		 push	 ebx
  001fc	57		 push	 edi
  001fd	51		 push	 ecx
  001fe	56		 push	 esi
  001ff	e8 00 00 00 00	 call	 ??$_Uninitialized_move@PAVCGuildCombat1to1@@V?$allocator@VCGuildCombat1to1@@@std@@@std@@YAPAVCGuildCombat1to1@@QAV1@0PAV1@AAV?$allocator@VCGuildCombat1to1@@@0@@Z ; std::_Uninitialized_move<CGuildCombat1to1 *,std::allocator<CGuildCombat1to1> >

; 911  :             _Constructed_first = _Newvec;
; 912  :             _STD _Uninitialized_move(_Whereptr, _Mylast, _Newvec + _Whereoff + 1, _Al);

  00204	8b 45 ec	 mov	 eax, DWORD PTR tv633[ebp]
  00207	53		 push	 ebx
  00208	83 c0 2c	 add	 eax, 44			; 0000002cH
  0020b	89 7d cc	 mov	 DWORD PTR __Guard$[ebp+12], edi
  0020e	50		 push	 eax
  0020f	ff 73 04	 push	 DWORD PTR [ebx+4]
  00212	ff 75 08	 push	 DWORD PTR __Whereptr$[ebp]
  00215	e8 00 00 00 00	 call	 ??$_Uninitialized_move@PAVCGuildCombat1to1@@V?$allocator@VCGuildCombat1to1@@@std@@@std@@YAPAVCGuildCombat1to1@@QAV1@0PAV1@AAV?$allocator@VCGuildCombat1to1@@@0@@Z ; std::_Uninitialized_move<CGuildCombat1to1 *,std::allocator<CGuildCombat1to1> >
  0021a	83 c4 20	 add	 esp, 32			; 00000020H
; File C:\Program Files\Microsoft Visual Studio\2022\Professional\VC\Tools\MSVC\14.44.35207\include\xmemory

; 1901 :     for (; _UFirst != _ULast; ++_UFirst) {

  0021d	e9 4a ff ff ff	 jmp	 $LN4@Emplace_re
$LN78@Emplace_re:

; 219  :     _STL_VERIFY(_Back_shift >= _Min_back_shift && _Back_shift <= _Non_user_size, "invalid argument");

  00222	6a 00		 push	 0
  00224	6a 00		 push	 0
  00226	6a 00		 push	 0
  00228	6a 00		 push	 0
  0022a	6a 00		 push	 0
  0022c	e8 00 00 00 00	 call	 __invoke_watson
$LN131@Emplace_re:
; File C:\Program Files\Microsoft Visual Studio\2022\Professional\VC\Tools\MSVC\14.44.35207\include\vector

; 888  :             _Xlength();

  00231	e8 00 00 00 00	 call	 ?_Xlength@?$vector@VCGuildCombat1to1@@V?$allocator@VCGuildCombat1to1@@@std@@@std@@CAXXZ ; std::vector<CGuildCombat1to1,std::allocator<CGuildCombat1to1> >::_Xlength
$LN132@Emplace_re:
; File C:\Program Files\Microsoft Visual Studio\2022\Professional\VC\Tools\MSVC\14.44.35207\include\xmemory

; 118  :             _Throw_bad_array_new_length(); // multiply overflow

  00236	e8 00 00 00 00	 call	 ?_Throw_bad_array_new_length@std@@YAXXZ ; std::_Throw_bad_array_new_length
$LN128@Emplace_re:
  0023b	cc		 int	 3
_TEXT	ENDS
;	COMDAT text$x
text$x	SEGMENT
__unwindfunclet$??$_Emplace_reallocate@ABVCGuildCombat1to1@@@?$vector@VCGuildCombat1to1@@V?$allocator@VCGuildCombat1to1@@@std@@@std@@AAEPAVCGuildCombat1to1@@QAV2@ABV2@@Z$0:
  00000	8d 4d c0	 lea	 ecx, DWORD PTR __Guard$[ebp]
  00003	e9 00 00 00 00	 jmp	 ??1_Reallocation_guard@?$vector@VCGuildCombat1to1@@V?$allocator@VCGuildCombat1to1@@@std@@@std@@QAE@XZ ; std::vector<CGuildCombat1to1,std::allocator<CGuildCombat1to1> >::_Reallocation_guard::~_Reallocation_guard
__unwindfunclet$??$_Emplace_reallocate@ABVCGuildCombat1to1@@@?$vector@VCGuildCombat1to1@@V?$allocator@VCGuildCombat1to1@@@std@@@std@@AAEPAVCGuildCombat1to1@@QAV2@ABV2@@Z$1:
  00008	8d 4d d4	 lea	 ecx, DWORD PTR __Backout$2[ebp]
  0000b	e9 00 00 00 00	 jmp	 ??1?$_Uninitialized_backout_al@V?$allocator@VCGuildCombat1to1@@@std@@@std@@QAE@XZ ; std::_Uninitialized_backout_al<std::allocator<CGuildCombat1to1> >::~_Uninitialized_backout_al<std::allocator<CGuildCombat1to1> >
  00010	cc		 int	 3
  00011	cc		 int	 3
  00012	cc		 int	 3
  00013	cc		 int	 3
  00014	cc		 int	 3
__ehhandler$??$_Emplace_reallocate@ABVCGuildCombat1to1@@@?$vector@VCGuildCombat1to1@@V?$allocator@VCGuildCombat1to1@@@std@@@std@@AAEPAVCGuildCombat1to1@@QAV2@ABV2@@Z:
  00015	90		 npad	 1
  00016	90		 npad	 1
  00017	8b 54 24 08	 mov	 edx, DWORD PTR [esp+8]
  0001b	8d 42 0c	 lea	 eax, DWORD PTR [edx+12]
  0001e	8b 4a bc	 mov	 ecx, DWORD PTR [edx-68]
  00021	33 c8		 xor	 ecx, eax
  00023	e8 00 00 00 00	 call	 @__security_check_cookie@4
  00028	b8 00 00 00 00	 mov	 eax, OFFSET __ehfuncinfo$??$_Emplace_reallocate@ABVCGuildCombat1to1@@@?$vector@VCGuildCombat1to1@@V?$allocator@VCGuildCombat1to1@@@std@@@std@@AAEPAVCGuildCombat1to1@@QAV2@ABV2@@Z
  0002d	e9 00 00 00 00	 jmp	 ___CxxFrameHandler3
text$x	ENDS
??$_Emplace_reallocate@ABVCGuildCombat1to1@@@?$vector@VCGuildCombat1to1@@V?$allocator@VCGuildCombat1to1@@@std@@@std@@AAEPAVCGuildCombat1to1@@QAV2@ABV2@@Z ENDP ; std::vector<CGuildCombat1to1,std::allocator<CGuildCombat1to1> >::_Emplace_reallocate<CGuildCombat1to1 const &>
; Function compile flags: /Ogtp
; File C:\Program Files\Microsoft Visual Studio\2022\Professional\VC\Tools\MSVC\14.44.35207\include\vector
; File C:\Program Files\Microsoft Visual Studio\2022\Professional\VC\Tools\MSVC\14.44.35207\include\xmemory
; File C:\Program Files\Microsoft Visual Studio\2022\Professional\VC\Tools\MSVC\14.44.35207\include\vector
; File C:\Program Files\Microsoft Visual Studio\2022\Professional\VC\Tools\MSVC\14.44.35207\include\xmemory
; File C:\Program Files\Microsoft Visual Studio\2022\Professional\VC\Tools\MSVC\14.44.35207\include\vector
; File C:\Program Files\Microsoft Visual Studio\2022\Professional\VC\Tools\MSVC\14.44.35207\include\xmemory
; File C:\Program Files\Microsoft Visual Studio\2022\Professional\VC\Tools\MSVC\14.44.35207\include\vector
; File C:\Program Files\Microsoft Visual Studio\2022\Professional\VC\Tools\MSVC\14.44.35207\include\xmemory
; File C:\Program Files\Microsoft Visual Studio\2022\Professional\VC\Tools\MSVC\14.44.35207\include\vector
; File C:\Program Files\Microsoft Visual Studio\2022\Professional\VC\Tools\MSVC\14.44.35207\include\xmemory
; File C:\Program Files\Microsoft Visual Studio\2022\Professional\VC\Tools\MSVC\14.44.35207\include\vector
; File C:\Program Files\Microsoft Visual Studio\2022\Professional\VC\Tools\MSVC\14.44.35207\include\xmemory
; File C:\Program Files\Microsoft Visual Studio\2022\Professional\VC\Tools\MSVC\14.44.35207\include\vector
; File C:\Program Files\Microsoft Visual Studio\2022\Professional\VC\Tools\MSVC\14.44.35207\include\xmemory
; File C:\Program Files\Microsoft Visual Studio\2022\Professional\VC\Tools\MSVC\14.44.35207\include\vector
; File C:\Program Files\Microsoft Visual Studio\2022\Professional\VC\Tools\MSVC\14.44.35207\include\xmemory
; File C:\Program Files\Microsoft Visual Studio\2022\Professional\VC\Tools\MSVC\14.44.35207\include\vector
; File C:\Program Files\Microsoft Visual Studio\2022\Professional\VC\Tools\MSVC\14.44.35207\include\xmemory
; File C:\Program Files\Microsoft Visual Studio\2022\Professional\VC\Tools\MSVC\14.44.35207\include\vector
; File C:\Program Files\Microsoft Visual Studio\2022\Professional\VC\Tools\MSVC\14.44.35207\include\xmemory
; File C:\Program Files\Microsoft Visual Studio\2022\Professional\VC\Tools\MSVC\14.44.35207\include\vector
;	COMDAT ??$_Emplace_reallocate@ABU__GC1TO1TENDER@CGuildCombat1to1Mng@@@?$vector@U__GC1TO1TENDER@CGuildCombat1to1Mng@@V?$allocator@U__GC1TO1TENDER@CGuildCombat1to1Mng@@@std@@@std@@AAEPAU__GC1TO1TENDER@CGuildCombat1to1Mng@@QAU23@ABU23@@Z
_TEXT	SEGMENT
__Guard$ = -52						; size = 20
tv601 = -32						; size = 4
__Newsize$1$ = -28					; size = 4
_this$1$ = -24						; size = 4
__Whereoff$1$ = -20					; size = 4
$T2 = -20						; size = 4
tv603 = -16						; size = 4
__$EHRec$ = -12						; size = 12
__Whereptr$ = 8						; size = 4
_<_Val_0>$ = 12						; size = 4
??$_Emplace_reallocate@ABU__GC1TO1TENDER@CGuildCombat1to1Mng@@@?$vector@U__GC1TO1TENDER@CGuildCombat1to1Mng@@V?$allocator@U__GC1TO1TENDER@CGuildCombat1to1Mng@@@std@@@std@@AAEPAU__GC1TO1TENDER@CGuildCombat1to1Mng@@QAU23@ABU23@@Z PROC ; std::vector<CGuildCombat1to1Mng::__GC1TO1TENDER,std::allocator<CGuildCombat1to1Mng::__GC1TO1TENDER> >::_Emplace_reallocate<CGuildCombat1to1Mng::__GC1TO1TENDER const &>, COMDAT
; _this$ = ecx

; 875  :     _CONSTEXPR20 pointer _Emplace_reallocate(const pointer _Whereptr, _Valty&&... _Val) {

  00000	55		 push	 ebp
  00001	8b ec		 mov	 ebp, esp
  00003	6a ff		 push	 -1
  00005	68 00 00 00 00	 push	 __ehhandler$??$_Emplace_reallocate@ABU__GC1TO1TENDER@CGuildCombat1to1Mng@@@?$vector@U__GC1TO1TENDER@CGuildCombat1to1Mng@@V?$allocator@U__GC1TO1TENDER@CGuildCombat1to1Mng@@@std@@@std@@AAEPAU__GC1TO1TENDER@CGuildCombat1to1Mng@@QAU23@ABU23@@Z
  0000a	64 a1 00 00 00
	00		 mov	 eax, DWORD PTR fs:0
  00010	50		 push	 eax
  00011	83 ec 28	 sub	 esp, 40			; 00000028H
  00014	53		 push	 ebx
  00015	56		 push	 esi
  00016	57		 push	 edi
  00017	a1 00 00 00 00	 mov	 eax, DWORD PTR ___security_cookie
  0001c	33 c5		 xor	 eax, ebp
  0001e	50		 push	 eax
  0001f	8d 45 f4	 lea	 eax, DWORD PTR __$EHRec$[ebp]
  00022	64 a3 00 00 00
	00		 mov	 DWORD PTR fs:0, eax
  00028	8b f9		 mov	 edi, ecx
  0002a	89 7d e8	 mov	 DWORD PTR _this$1$[ebp], edi

; 876  :         // reallocate and insert by perfectly forwarding _Val at _Whereptr
; 877  :         _Alty& _Al        = _Getal();
; 878  :         auto& _My_data    = _Mypair._Myval2;
; 879  :         pointer& _Myfirst = _My_data._Myfirst;
; 880  :         pointer& _Mylast  = _My_data._Mylast;
; 881  : 
; 882  :         _STL_INTERNAL_CHECK(_Mylast == _My_data._Myend); // check that we have no unused capacity
; 883  : 
; 884  :         const auto _Whereoff = static_cast<size_type>(_Whereptr - _Myfirst);

  0002d	8b 37		 mov	 esi, DWORD PTR [edi]
  0002f	b8 e9 a2 8b 2e	 mov	 eax, 780903145		; 2e8ba2e9H
  00034	8b 55 08	 mov	 edx, DWORD PTR __Whereptr$[ebp]

; 885  :         const auto _Oldsize  = static_cast<size_type>(_Mylast - _Myfirst);

  00037	8b 4f 04	 mov	 ecx, DWORD PTR [edi+4]
  0003a	2b d6		 sub	 edx, esi
  0003c	f7 ea		 imul	 edx
  0003e	2b ce		 sub	 ecx, esi
  00040	c1 fa 03	 sar	 edx, 3
  00043	8b c2		 mov	 eax, edx
  00045	c1 e8 1f	 shr	 eax, 31			; 0000001fH
  00048	03 c2		 add	 eax, edx
  0004a	89 45 ec	 mov	 DWORD PTR __Whereoff$1$[ebp], eax
  0004d	b8 e9 a2 8b 2e	 mov	 eax, 780903145		; 2e8ba2e9H
  00052	f7 e9		 imul	 ecx
  00054	c1 fa 03	 sar	 edx, 3
  00057	8b c2		 mov	 eax, edx
  00059	c1 e8 1f	 shr	 eax, 31			; 0000001fH
  0005c	03 c2		 add	 eax, edx

; 886  : 
; 887  :         if (_Oldsize == max_size()) {

  0005e	3d 5d 74 d1 05	 cmp	 eax, 97612893		; 05d1745dH
  00063	0f 84 78 01 00
	00		 je	 $LN121@Emplace_re

; 1924 :         return static_cast<size_type>(_My_data._Myend - _My_data._Myfirst);

  00069	8b 4f 08	 mov	 ecx, DWORD PTR [edi+8]

; 889  :         }
; 890  : 
; 891  :         const size_type _Newsize = _Oldsize + 1;

  0006c	8d 58 01	 lea	 ebx, DWORD PTR [eax+1]

; 1924 :         return static_cast<size_type>(_My_data._Myend - _My_data._Myfirst);

  0006f	2b ce		 sub	 ecx, esi

; 889  :         }
; 890  : 
; 891  :         const size_type _Newsize = _Oldsize + 1;

  00071	89 5d e4	 mov	 DWORD PTR __Newsize$1$[ebp], ebx

; 1924 :         return static_cast<size_type>(_My_data._Myend - _My_data._Myfirst);

  00074	b8 e9 a2 8b 2e	 mov	 eax, 780903145		; 2e8ba2e9H
  00079	f7 e9		 imul	 ecx

; 2011 :         if (_Oldcapacity > _Max - _Oldcapacity / 2) {

  0007b	b8 5d 74 d1 05	 mov	 eax, 97612893		; 05d1745dH

; 1924 :         return static_cast<size_type>(_My_data._Myend - _My_data._Myfirst);

  00080	c1 fa 03	 sar	 edx, 3
  00083	8b ca		 mov	 ecx, edx
  00085	c1 e9 1f	 shr	 ecx, 31			; 0000001fH
  00088	03 ca		 add	 ecx, edx

; 2011 :         if (_Oldcapacity > _Max - _Oldcapacity / 2) {

  0008a	8b d1		 mov	 edx, ecx
  0008c	d1 ea		 shr	 edx, 1
  0008e	2b c2		 sub	 eax, edx
  00090	3b c8		 cmp	 ecx, eax
  00092	76 19		 jbe	 SHORT $LN8@Emplace_re

; 2012 :             return _Max; // geometric growth would overflow

  00094	b8 fc ff ff ff	 mov	 eax, -4			; fffffffcH
  00099	c7 45 f0 fc ff
	ff ff		 mov	 DWORD PTR tv603[ebp], -4 ; fffffffcH
; File C:\Program Files\Microsoft Visual Studio\2022\Professional\VC\Tools\MSVC\14.44.35207\include\xmemory

; 253  :             return _Allocate_manually_vector_aligned<_Traits>(_Bytes);

  000a0	50		 push	 eax
; File C:\Program Files\Microsoft Visual Studio\2022\Professional\VC\Tools\MSVC\14.44.35207\include\vector

; 2012 :             return _Max; // geometric growth would overflow

  000a1	be 5d 74 d1 05	 mov	 esi, 97612893		; 05d1745dH
; File C:\Program Files\Microsoft Visual Studio\2022\Professional\VC\Tools\MSVC\14.44.35207\include\xmemory

; 253  :             return _Allocate_manually_vector_aligned<_Traits>(_Bytes);

  000a6	e8 00 00 00 00	 call	 ??$_Allocate_manually_vector_aligned@U_Default_allocate_traits@std@@@std@@YAPAXI@Z ; std::_Allocate_manually_vector_aligned<std::_Default_allocate_traits>
  000ab	eb 39		 jmp	 SHORT $LN119@Emplace_re
$LN8@Emplace_re:
; File C:\Program Files\Microsoft Visual Studio\2022\Professional\VC\Tools\MSVC\14.44.35207\include\vector

; 2015 :         const size_type _Geometric = _Oldcapacity + _Oldcapacity / 2;

  000ad	8d 04 0a	 lea	 eax, DWORD PTR [edx+ecx]
; File C:\Program Files\Microsoft Visual Studio\2022\Professional\VC\Tools\MSVC\14.44.35207\include\xmemory

; 117  :         if (_Count > _Max_possible) {

  000b0	8b f3		 mov	 esi, ebx
  000b2	3b c3		 cmp	 eax, ebx
  000b4	0f 43 f0	 cmovae	 esi, eax
  000b7	81 fe 5d 74 d1
	05		 cmp	 esi, 97612893		; 05d1745dH
  000bd	0f 87 23 01 00
	00		 ja	 $LN122@Emplace_re

; 119  :         }
; 120  :     }
; 121  : 
; 122  :     return _Count * _Ty_size;

  000c3	6b c6 2c	 imul	 eax, esi, 44
  000c6	89 45 f0	 mov	 DWORD PTR tv603[ebp], eax

; 227  :     if (_Bytes == 0) {

  000c9	85 c0		 test	 eax, eax
  000cb	75 04		 jne	 SHORT $LN23@Emplace_re

; 228  :         return nullptr;

  000cd	33 db		 xor	 ebx, ebx
  000cf	eb 1a		 jmp	 SHORT $LN22@Emplace_re
$LN23@Emplace_re:

; 229  :     }
; 230  : 
; 231  : #if _HAS_CXX20 // TRANSITION, GH-1532
; 232  :     if (_STD is_constant_evaluated()) {
; 233  :         return _Traits::_Allocate(_Bytes);
; 234  :     }
; 235  : #endif // _HAS_CXX20
; 236  : 
; 237  : #ifdef __cpp_aligned_new
; 238  :     if constexpr (_Align > __STDCPP_DEFAULT_NEW_ALIGNMENT__) {
; 239  :         size_t _Passed_align = _Align;
; 240  : #if defined(_M_IX86) || defined(_M_X64)
; 241  :         if (_Bytes >= _Big_allocation_threshold) {
; 242  :             // boost the alignment of big allocations to help autovectorization
; 243  :             _Passed_align = (_STD max)(_Align, _Big_allocation_alignment);
; 244  :         }
; 245  : #endif // defined(_M_IX86) || defined(_M_X64)
; 246  :         return _Traits::_Allocate_aligned(_Bytes, _Passed_align);
; 247  :     } else
; 248  : #endif // defined(__cpp_aligned_new)
; 249  :     {
; 250  : #if defined(_M_IX86) || defined(_M_X64)
; 251  :         if (_Bytes >= _Big_allocation_threshold) {

  000d1	3d 00 10 00 00	 cmp	 eax, 4096		; 00001000H
  000d6	72 08		 jb	 SHORT $LN24@Emplace_re

; 253  :             return _Allocate_manually_vector_aligned<_Traits>(_Bytes);

  000d8	50		 push	 eax
  000d9	e8 00 00 00 00	 call	 ??$_Allocate_manually_vector_aligned@U_Default_allocate_traits@std@@@std@@YAPAXI@Z ; std::_Allocate_manually_vector_aligned<std::_Default_allocate_traits>
  000de	eb 06		 jmp	 SHORT $LN119@Emplace_re
$LN24@Emplace_re:

; 136  :         return ::operator new(_Bytes);

  000e0	50		 push	 eax
  000e1	e8 00 00 00 00	 call	 ??2@YAPAXI@Z		; operator new
$LN119@Emplace_re:
; File C:\Program Files\Microsoft Visual Studio\2022\Professional\VC\Tools\MSVC\14.44.35207\include\vector

; 895  :         const pointer _Constructed_last = _Newvec + _Whereoff + 1;

  000e6	8b d8		 mov	 ebx, eax
  000e8	83 c4 04	 add	 esp, 4
$LN22@Emplace_re:
  000eb	6b 4d ec 2c	 imul	 ecx, DWORD PTR __Whereoff$1$[ebp], 44

; 897  :         _Reallocation_guard _Guard{_Al, _Newvec, _Newcapacity, _Constructed_last, _Constructed_last};

  000ef	89 7d cc	 mov	 DWORD PTR __Guard$[ebp], edi
  000f2	89 5d d0	 mov	 DWORD PTR __Guard$[ebp+4], ebx
  000f5	89 75 d4	 mov	 DWORD PTR __Guard$[ebp+8], esi
  000f8	03 cb		 add	 ecx, ebx
  000fa	89 4d e0	 mov	 DWORD PTR tv601[ebp], ecx
  000fd	8d 41 2c	 lea	 eax, DWORD PTR [ecx+44]
  00100	89 45 ec	 mov	 DWORD PTR $T2[ebp], eax
  00103	89 45 d8	 mov	 DWORD PTR __Guard$[ebp+12], eax
  00106	89 45 dc	 mov	 DWORD PTR __Guard$[ebp+16], eax
; File C:\Program Files\Microsoft Visual Studio\2022\Professional\VC\Tools\MSVC\14.44.35207\include\xmemory

; 732  :         ::new (const_cast<void*>(static_cast<const volatile void*>(_Ptr))) _Objty(_STD forward<_Types>(_Args)...);

  00109	ff 75 0c	 push	 DWORD PTR _<_Val_0>$[ebp]
; File C:\Program Files\Microsoft Visual Studio\2022\Professional\VC\Tools\MSVC\14.44.35207\include\vector

; 897  :         _Reallocation_guard _Guard{_Al, _Newvec, _Newcapacity, _Constructed_last, _Constructed_last};

  0010c	c7 45 fc 00 00
	00 00		 mov	 DWORD PTR __$EHRec$[ebp+8], 0
; File C:\Program Files\Microsoft Visual Studio\2022\Professional\VC\Tools\MSVC\14.44.35207\include\xmemory

; 732  :         ::new (const_cast<void*>(static_cast<const volatile void*>(_Ptr))) _Objty(_STD forward<_Types>(_Args)...);

  00113	e8 00 00 00 00	 call	 ??0__GC1TO1TENDER@CGuildCombat1to1Mng@@QAE@ABU01@@Z
; File C:\Program Files\Microsoft Visual Studio\2022\Professional\VC\Tools\MSVC\14.44.35207\include\vector

; 903  :         if (_Whereptr == _Mylast) { // at back, provide strong guarantee

  00118	8b 57 04	 mov	 edx, DWORD PTR [edi+4]
  0011b	8b 75 08	 mov	 esi, DWORD PTR __Whereptr$[ebp]
  0011e	8b 0f		 mov	 ecx, DWORD PTR [edi]
  00120	3b f2		 cmp	 esi, edx
  00122	75 04		 jne	 SHORT $LN3@Emplace_re

; 904  :             if constexpr (is_nothrow_move_constructible_v<_Ty> || !is_copy_constructible_v<_Ty>) {
; 905  :                 _STD _Uninitialized_move(_Myfirst, _Mylast, _Newvec, _Al);

  00124	8b c3		 mov	 eax, ebx

; 906  :             } else {
; 907  :                 _STD _Uninitialized_copy(_Myfirst, _Mylast, _Newvec, _Al);
; 908  :             }
; 909  :         } else { // provide basic guarantee

  00126	eb 14		 jmp	 SHORT $LN4@Emplace_re
$LN3@Emplace_re:

; 910  :             _STD _Uninitialized_move(_Myfirst, _Whereptr, _Newvec, _Al);

  00128	57		 push	 edi
  00129	53		 push	 ebx
  0012a	56		 push	 esi
  0012b	51		 push	 ecx
  0012c	e8 00 00 00 00	 call	 ??$_Uninitialized_move@PAU__GC1TO1TENDER@CGuildCombat1to1Mng@@V?$allocator@U__GC1TO1TENDER@CGuildCombat1to1Mng@@@std@@@std@@YAPAU__GC1TO1TENDER@CGuildCombat1to1Mng@@QAU12@0PAU12@AAV?$allocator@U__GC1TO1TENDER@CGuildCombat1to1Mng@@@0@@Z ; std::_Uninitialized_move<CGuildCombat1to1Mng::__GC1TO1TENDER *,std::allocator<CGuildCombat1to1Mng::__GC1TO1TENDER> >

; 911  :             _Constructed_first = _Newvec;
; 912  :             _STD _Uninitialized_move(_Whereptr, _Mylast, _Newvec + _Whereoff + 1, _Al);

  00131	8b 57 04	 mov	 edx, DWORD PTR [edi+4]
  00134	83 c4 10	 add	 esp, 16			; 00000010H
  00137	8b 45 ec	 mov	 eax, DWORD PTR $T2[ebp]
  0013a	8b ce		 mov	 ecx, esi
$LN4@Emplace_re:

; 913  :         }
; 914  : 
; 915  :         _Guard._New_begin = nullptr;

  0013c	57		 push	 edi
  0013d	50		 push	 eax
  0013e	52		 push	 edx
  0013f	51		 push	 ecx
  00140	e8 00 00 00 00	 call	 ??$_Uninitialized_move@PAU__GC1TO1TENDER@CGuildCombat1to1Mng@@V?$allocator@U__GC1TO1TENDER@CGuildCombat1to1Mng@@@std@@@std@@YAPAU__GC1TO1TENDER@CGuildCombat1to1Mng@@QAU12@0PAU12@AAV?$allocator@U__GC1TO1TENDER@CGuildCombat1to1Mng@@@0@@Z ; std::_Uninitialized_move<CGuildCombat1to1Mng::__GC1TO1TENDER *,std::allocator<CGuildCombat1to1Mng::__GC1TO1TENDER> >

; 2069 :         if (_Myfirst) { // destroy and deallocate old array

  00145	8b 37		 mov	 esi, DWORD PTR [edi]

; 913  :         }
; 914  : 
; 915  :         _Guard._New_begin = nullptr;

  00147	83 c4 10	 add	 esp, 16			; 00000010H

; 2069 :         if (_Myfirst) { // destroy and deallocate old array

  0014a	85 f6		 test	 esi, esi
  0014c	74 5a		 je	 SHORT $LN61@Emplace_re

; 2070 :             _STD _Destroy_range(_Myfirst, _Mylast, _Al);

  0014e	8b 47 04	 mov	 eax, DWORD PTR [edi+4]
; File C:\Program Files\Microsoft Visual Studio\2022\Professional\VC\Tools\MSVC\14.44.35207\include\xmemory

; 1102 :         for (; _First != _Last; ++_First) {

  00151	3b f0		 cmp	 esi, eax
  00153	74 14		 je	 SHORT $LN38@Emplace_re
  00155	8b f8		 mov	 edi, eax
$LL39@Emplace_re:
; File C:\Program Files\Microsoft Visual Studio\2022\Professional\VC\Tools\MSVC\14.44.35207\include\vector

; 830  :         _Tidy();

  00157	8d 4e 20	 lea	 ecx, DWORD PTR [esi+32]
  0015a	e8 00 00 00 00	 call	 ?_Tidy@?$vector@KV?$allocator@K@std@@@std@@AAEXXZ ; std::vector<unsigned long,std::allocator<unsigned long> >::_Tidy
; File C:\Program Files\Microsoft Visual Studio\2022\Professional\VC\Tools\MSVC\14.44.35207\include\xmemory

; 1102 :         for (; _First != _Last; ++_First) {

  0015f	83 c6 2c	 add	 esi, 44			; 0000002cH
  00162	3b f7		 cmp	 esi, edi
  00164	75 f1		 jne	 SHORT $LL39@Emplace_re
  00166	8b 7d e8	 mov	 edi, DWORD PTR _this$1$[ebp]
$LN38@Emplace_re:
; File C:\Program Files\Microsoft Visual Studio\2022\Professional\VC\Tools\MSVC\14.44.35207\include\vector

; 2072 :             _Al.deallocate(_Myfirst, static_cast<size_type>(_Myend - _Myfirst));

  00169	8b 4f 08	 mov	 ecx, DWORD PTR [edi+8]
  0016c	b8 e9 a2 8b 2e	 mov	 eax, 780903145		; 2e8ba2e9H
  00171	8b 37		 mov	 esi, DWORD PTR [edi]
  00173	2b ce		 sub	 ecx, esi
  00175	f7 e9		 imul	 ecx
  00177	c1 fa 03	 sar	 edx, 3
  0017a	8b c2		 mov	 eax, edx
  0017c	c1 e8 1f	 shr	 eax, 31			; 0000001fH
  0017f	03 c2		 add	 eax, edx
; File C:\Program Files\Microsoft Visual Studio\2022\Professional\VC\Tools\MSVC\14.44.35207\include\xmemory

; 985  :         _STD _Deallocate<_New_alignof<_Ty>>(_Ptr, sizeof(_Ty) * _Count);

  00181	6b c8 2c	 imul	 ecx, eax, 44

; 284  :         if (_Bytes >= _Big_allocation_threshold) {

  00184	81 f9 00 10 00
	00		 cmp	 ecx, 4096		; 00001000H
  0018a	72 12		 jb	 SHORT $LN66@Emplace_re

; 205  :     const uintptr_t _Ptr_container   = _Ptr_user[-1];

  0018c	8b 56 fc	 mov	 edx, DWORD PTR [esi-4]
  0018f	83 c1 23	 add	 ecx, 35			; 00000023H

; 206  : 
; 207  :     // If the following asserts, it likely means that we are performing
; 208  :     // an aligned delete on memory coming from an unaligned allocation.
; 209  :     _STL_ASSERT(_Ptr_user[-2] == _Big_allocation_sentinel, "invalid argument");
; 210  : 
; 211  :     // Extra paranoia on aligned allocation/deallocation; ensure _Ptr_container is
; 212  :     // in range [_Min_back_shift, _Non_user_size]
; 213  : #ifdef _DEBUG
; 214  :     constexpr uintptr_t _Min_back_shift = 2 * sizeof(void*);
; 215  : #else // ^^^ defined(_DEBUG) / !defined(_DEBUG) vvv
; 216  :     constexpr uintptr_t _Min_back_shift = sizeof(void*);
; 217  : #endif // ^^^ !defined(_DEBUG) ^^^
; 218  :     const uintptr_t _Back_shift = reinterpret_cast<uintptr_t>(_Ptr) - _Ptr_container;

  00192	2b f2		 sub	 esi, edx

; 219  :     _STL_VERIFY(_Back_shift >= _Min_back_shift && _Back_shift <= _Non_user_size, "invalid argument");

  00194	8d 46 fc	 lea	 eax, DWORD PTR [esi-4]
  00197	83 f8 1f	 cmp	 eax, 31			; 0000001fH
  0019a	77 36		 ja	 SHORT $LN65@Emplace_re

; 220  :     _Ptr = reinterpret_cast<void*>(_Ptr_container);

  0019c	8b f2		 mov	 esi, edx
$LN66@Emplace_re:

; 289  :         ::operator delete(_Ptr, _Bytes);

  0019e	51		 push	 ecx
  0019f	56		 push	 esi
  001a0	e8 00 00 00 00	 call	 ??3@YAXPAXI@Z		; operator delete
  001a5	83 c4 08	 add	 esp, 8
$LN61@Emplace_re:
; File C:\Program Files\Microsoft Visual Studio\2022\Professional\VC\Tools\MSVC\14.44.35207\include\vector

; 2076 :         _Mylast  = _Newvec + _Newsize;

  001a8	6b 4d e4 2c	 imul	 ecx, DWORD PTR __Newsize$1$[ebp], 44

; 916  :         _Change_array(_Newvec, _Newsize, _Newcapacity);
; 917  :         return _Newvec + _Whereoff;

  001ac	8b 45 e0	 mov	 eax, DWORD PTR tv601[ebp]

; 2075 :         _Myfirst = _Newvec;

  001af	89 1f		 mov	 DWORD PTR [edi], ebx

; 2076 :         _Mylast  = _Newvec + _Newsize;

  001b1	03 cb		 add	 ecx, ebx
  001b3	89 4f 04	 mov	 DWORD PTR [edi+4], ecx

; 2077 :         _Myend   = _Newvec + _Newcapacity;

  001b6	8b 4d f0	 mov	 ecx, DWORD PTR tv603[ebp]
  001b9	03 cb		 add	 ecx, ebx
  001bb	89 4f 08	 mov	 DWORD PTR [edi+8], ecx

; 918  :     }

  001be	8b 4d f4	 mov	 ecx, DWORD PTR __$EHRec$[ebp]
  001c1	64 89 0d 00 00
	00 00		 mov	 DWORD PTR fs:0, ecx
  001c8	59		 pop	 ecx
  001c9	5f		 pop	 edi
  001ca	5e		 pop	 esi
  001cb	5b		 pop	 ebx
  001cc	8b e5		 mov	 esp, ebp
  001ce	5d		 pop	 ebp
  001cf	c2 08 00	 ret	 8
$LN65@Emplace_re:
; File C:\Program Files\Microsoft Visual Studio\2022\Professional\VC\Tools\MSVC\14.44.35207\include\xmemory

; 219  :     _STL_VERIFY(_Back_shift >= _Min_back_shift && _Back_shift <= _Non_user_size, "invalid argument");

  001d2	6a 00		 push	 0
  001d4	6a 00		 push	 0
  001d6	6a 00		 push	 0
  001d8	6a 00		 push	 0
  001da	6a 00		 push	 0
  001dc	e8 00 00 00 00	 call	 __invoke_watson
$LN121@Emplace_re:
; File C:\Program Files\Microsoft Visual Studio\2022\Professional\VC\Tools\MSVC\14.44.35207\include\vector

; 888  :             _Xlength();

  001e1	e8 00 00 00 00	 call	 ?_Xlength@?$vector@U__GC1TO1TENDER@CGuildCombat1to1Mng@@V?$allocator@U__GC1TO1TENDER@CGuildCombat1to1Mng@@@std@@@std@@CAXXZ ; std::vector<CGuildCombat1to1Mng::__GC1TO1TENDER,std::allocator<CGuildCombat1to1Mng::__GC1TO1TENDER> >::_Xlength
$LN122@Emplace_re:
; File C:\Program Files\Microsoft Visual Studio\2022\Professional\VC\Tools\MSVC\14.44.35207\include\xmemory

; 118  :             _Throw_bad_array_new_length(); // multiply overflow

  001e6	e8 00 00 00 00	 call	 ?_Throw_bad_array_new_length@std@@YAXXZ ; std::_Throw_bad_array_new_length
$LN118@Emplace_re:
  001eb	cc		 int	 3
_TEXT	ENDS
;	COMDAT text$x
text$x	SEGMENT
__unwindfunclet$??$_Emplace_reallocate@ABU__GC1TO1TENDER@CGuildCombat1to1Mng@@@?$vector@U__GC1TO1TENDER@CGuildCombat1to1Mng@@V?$allocator@U__GC1TO1TENDER@CGuildCombat1to1Mng@@@std@@@std@@AAEPAU__GC1TO1TENDER@CGuildCombat1to1Mng@@QAU23@ABU23@@Z$0:
  00000	8d 4d cc	 lea	 ecx, DWORD PTR __Guard$[ebp]
  00003	e9 00 00 00 00	 jmp	 ??1_Reallocation_guard@?$vector@U__GC1TO1TENDER@CGuildCombat1to1Mng@@V?$allocator@U__GC1TO1TENDER@CGuildCombat1to1Mng@@@std@@@std@@QAE@XZ ; std::vector<CGuildCombat1to1Mng::__GC1TO1TENDER,std::allocator<CGuildCombat1to1Mng::__GC1TO1TENDER> >::_Reallocation_guard::~_Reallocation_guard
  00008	cc		 int	 3
  00009	cc		 int	 3
  0000a	cc		 int	 3
  0000b	cc		 int	 3
  0000c	cc		 int	 3
__ehhandler$??$_Emplace_reallocate@ABU__GC1TO1TENDER@CGuildCombat1to1Mng@@@?$vector@U__GC1TO1TENDER@CGuildCombat1to1Mng@@V?$allocator@U__GC1TO1TENDER@CGuildCombat1to1Mng@@@std@@@std@@AAEPAU__GC1TO1TENDER@CGuildCombat1to1Mng@@QAU23@ABU23@@Z:
  0000d	90		 npad	 1
  0000e	90		 npad	 1
  0000f	8b 54 24 08	 mov	 edx, DWORD PTR [esp+8]
  00013	8d 42 0c	 lea	 eax, DWORD PTR [edx+12]
  00016	8b 4a c8	 mov	 ecx, DWORD PTR [edx-56]
  00019	33 c8		 xor	 ecx, eax
  0001b	e8 00 00 00 00	 call	 @__security_check_cookie@4
  00020	b8 00 00 00 00	 mov	 eax, OFFSET __ehfuncinfo$??$_Emplace_reallocate@ABU__GC1TO1TENDER@CGuildCombat1to1Mng@@@?$vector@U__GC1TO1TENDER@CGuildCombat1to1Mng@@V?$allocator@U__GC1TO1TENDER@CGuildCombat1to1Mng@@@std@@@std@@AAEPAU__GC1TO1TENDER@CGuildCombat1to1Mng@@QAU23@ABU23@@Z
  00025	e9 00 00 00 00	 jmp	 ___CxxFrameHandler3
text$x	ENDS
??$_Emplace_reallocate@ABU__GC1TO1TENDER@CGuildCombat1to1Mng@@@?$vector@U__GC1TO1TENDER@CGuildCombat1to1Mng@@V?$allocator@U__GC1TO1TENDER@CGuildCombat1to1Mng@@@std@@@std@@AAEPAU__GC1TO1TENDER@CGuildCombat1to1Mng@@QAU23@ABU23@@Z ENDP ; std::vector<CGuildCombat1to1Mng::__GC1TO1TENDER,std::allocator<CGuildCombat1to1Mng::__GC1TO1TENDER> >::_Emplace_reallocate<CGuildCombat1to1Mng::__GC1TO1TENDER const &>
; Function compile flags: /Ogtp
; File C:\Program Files\Microsoft Visual Studio\2022\Professional\VC\Tools\MSVC\14.44.35207\include\xmemory
;	COMDAT ??$_Uninitialized_copy_n@PAU__GC1TO1TENDER@CGuildCombat1to1Mng@@V?$allocator@U__GC1TO1TENDER@CGuildCombat1to1Mng@@@std@@@std@@YAPAU__GC1TO1TENDER@CGuildCombat1to1Mng@@PAU12@I0AAV?$allocator@U__GC1TO1TENDER@CGuildCombat1to1Mng@@@0@@Z
_TEXT	SEGMENT
__Backout$ = -24					; size = 12
__$EHRec$ = -12						; size = 12
__First$ = 8						; size = 4
__Count$ = 12						; size = 4
__Dest$ = 16						; size = 4
__Al$ = 20						; size = 4
??$_Uninitialized_copy_n@PAU__GC1TO1TENDER@CGuildCombat1to1Mng@@V?$allocator@U__GC1TO1TENDER@CGuildCombat1to1Mng@@@std@@@std@@YAPAU__GC1TO1TENDER@CGuildCombat1to1Mng@@PAU12@I0AAV?$allocator@U__GC1TO1TENDER@CGuildCombat1to1Mng@@@0@@Z PROC ; std::_Uninitialized_copy_n<CGuildCombat1to1Mng::__GC1TO1TENDER *,std::allocator<CGuildCombat1to1Mng::__GC1TO1TENDER> >, COMDAT

; 1910 :     _InIt _First, size_t _Count, _Alloc_ptr_t<_Alloc> _Dest, _Alloc& _Al) {

  00000	55		 push	 ebp
  00001	8b ec		 mov	 ebp, esp
  00003	6a ff		 push	 -1
  00005	68 00 00 00 00	 push	 __ehhandler$??$_Uninitialized_copy_n@PAU__GC1TO1TENDER@CGuildCombat1to1Mng@@V?$allocator@U__GC1TO1TENDER@CGuildCombat1to1Mng@@@std@@@std@@YAPAU__GC1TO1TENDER@CGuildCombat1to1Mng@@PAU12@I0AAV?$allocator@U__GC1TO1TENDER@CGuildCombat1to1Mng@@@0@@Z
  0000a	64 a1 00 00 00
	00		 mov	 eax, DWORD PTR fs:0
  00010	50		 push	 eax
  00011	83 ec 0c	 sub	 esp, 12			; 0000000cH
  00014	53		 push	 ebx
  00015	56		 push	 esi
  00016	57		 push	 edi
  00017	a1 00 00 00 00	 mov	 eax, DWORD PTR ___security_cookie
  0001c	33 c5		 xor	 eax, ebp
  0001e	50		 push	 eax
  0001f	8d 45 f4	 lea	 eax, DWORD PTR __$EHRec$[ebp]
  00022	64 a3 00 00 00
	00		 mov	 DWORD PTR fs:0, eax

; 1833 :     _CONSTEXPR20 _Uninitialized_backout_al(pointer _Dest, _Alloc& _Al_) : _First(_Dest), _Last(_Dest), _Al(_Al_) {}

  00028	8b 75 10	 mov	 esi, DWORD PTR __Dest$[ebp]
  0002b	8b 45 14	 mov	 eax, DWORD PTR __Al$[ebp]

; 1911 :     // copy _First + [0, _Count) to raw _Dest, using _Al
; 1912 :     // note: only called internally from elsewhere in the STL
; 1913 :     using _Ptrval = typename _Alloc::value_type*;
; 1914 : 
; 1915 : #ifdef _ENABLE_STL_INTERNAL_CHECK
; 1916 :     auto _UFirst = _STD _Get_unwrapped_n(_STD move(_First), _Count);
; 1917 : #else // ^^^ Checking / No checking vvv
; 1918 :     auto _UFirst = _STD _Get_unwrapped(_STD move(_First));

  0002e	8b 7d 08	 mov	 edi, DWORD PTR __First$[ebp]

; 1833 :     _CONSTEXPR20 _Uninitialized_backout_al(pointer _Dest, _Alloc& _Al_) : _First(_Dest), _Last(_Dest), _Al(_Al_) {}

  00031	89 75 e8	 mov	 DWORD PTR __Backout$[ebp], esi
  00034	89 75 ec	 mov	 DWORD PTR __Backout$[ebp+4], esi
  00037	89 45 f0	 mov	 DWORD PTR __Backout$[ebp+8], eax

; 1919 : #endif // ^^^ No checking ^^^
; 1920 : 
; 1921 :     constexpr bool _Can_memmove =
; 1922 :         conjunction_v<bool_constant<_Iter_copy_cat<decltype(_UFirst), _Ptrval>::_Bitcopy_constructible>,
; 1923 :             _Uses_default_construct<_Alloc, _Ptrval, decltype(*_UFirst)>>;
; 1924 : 
; 1925 :     if constexpr (_Can_memmove) {
; 1926 : #if _HAS_CXX20
; 1927 :         if (!_STD is_constant_evaluated())
; 1928 : #endif // _HAS_CXX20
; 1929 :         {
; 1930 :             _STD _Copy_memmove_n(_UFirst, _Count, _STD _Unfancy(_Dest));
; 1931 :             _Dest += _Count;
; 1932 :             return _Dest;
; 1933 :         }
; 1934 :     }
; 1935 : 
; 1936 :     _Uninitialized_backout_al<_Alloc> _Backout{_Dest, _Al};
; 1937 :     for (; _Count != 0; ++_UFirst, (void) --_Count) {

  0003a	8b 5d 0c	 mov	 ebx, DWORD PTR __Count$[ebp]
  0003d	c7 45 fc 00 00
	00 00		 mov	 DWORD PTR __$EHRec$[ebp+8], 0
  00044	85 db		 test	 ebx, ebx
  00046	74 16		 je	 SHORT $LN46@Uninitiali
$LL4@Uninitiali:

; 732  :         ::new (const_cast<void*>(static_cast<const volatile void*>(_Ptr))) _Objty(_STD forward<_Types>(_Args)...);

  00048	57		 push	 edi
  00049	8b ce		 mov	 ecx, esi
  0004b	e8 00 00 00 00	 call	 ??0__GC1TO1TENDER@CGuildCombat1to1Mng@@QAE@ABU01@@Z

; 1845 :         ++_Last;

  00050	83 c6 2c	 add	 esi, 44			; 0000002cH

; 1919 : #endif // ^^^ No checking ^^^
; 1920 : 
; 1921 :     constexpr bool _Can_memmove =
; 1922 :         conjunction_v<bool_constant<_Iter_copy_cat<decltype(_UFirst), _Ptrval>::_Bitcopy_constructible>,
; 1923 :             _Uses_default_construct<_Alloc, _Ptrval, decltype(*_UFirst)>>;
; 1924 : 
; 1925 :     if constexpr (_Can_memmove) {
; 1926 : #if _HAS_CXX20
; 1927 :         if (!_STD is_constant_evaluated())
; 1928 : #endif // _HAS_CXX20
; 1929 :         {
; 1930 :             _STD _Copy_memmove_n(_UFirst, _Count, _STD _Unfancy(_Dest));
; 1931 :             _Dest += _Count;
; 1932 :             return _Dest;
; 1933 :         }
; 1934 :     }
; 1935 : 
; 1936 :     _Uninitialized_backout_al<_Alloc> _Backout{_Dest, _Al};
; 1937 :     for (; _Count != 0; ++_UFirst, (void) --_Count) {

  00053	83 c7 2c	 add	 edi, 44			; 0000002cH

; 1845 :         ++_Last;

  00056	89 75 ec	 mov	 DWORD PTR __Backout$[ebp+4], esi

; 1919 : #endif // ^^^ No checking ^^^
; 1920 : 
; 1921 :     constexpr bool _Can_memmove =
; 1922 :         conjunction_v<bool_constant<_Iter_copy_cat<decltype(_UFirst), _Ptrval>::_Bitcopy_constructible>,
; 1923 :             _Uses_default_construct<_Alloc, _Ptrval, decltype(*_UFirst)>>;
; 1924 : 
; 1925 :     if constexpr (_Can_memmove) {
; 1926 : #if _HAS_CXX20
; 1927 :         if (!_STD is_constant_evaluated())
; 1928 : #endif // _HAS_CXX20
; 1929 :         {
; 1930 :             _STD _Copy_memmove_n(_UFirst, _Count, _STD _Unfancy(_Dest));
; 1931 :             _Dest += _Count;
; 1932 :             return _Dest;
; 1933 :         }
; 1934 :     }
; 1935 : 
; 1936 :     _Uninitialized_backout_al<_Alloc> _Backout{_Dest, _Al};
; 1937 :     for (; _Count != 0; ++_UFirst, (void) --_Count) {

  00059	83 eb 01	 sub	 ebx, 1
  0005c	75 ea		 jne	 SHORT $LL4@Uninitiali
$LN46@Uninitiali:

; 1938 :         _Backout._Emplace_back(*_UFirst);
; 1939 :     }
; 1940 : 
; 1941 :     return _Backout._Release();
; 1942 : }

  0005e	8b c6		 mov	 eax, esi
  00060	8b 4d f4	 mov	 ecx, DWORD PTR __$EHRec$[ebp]
  00063	64 89 0d 00 00
	00 00		 mov	 DWORD PTR fs:0, ecx
  0006a	59		 pop	 ecx
  0006b	5f		 pop	 edi
  0006c	5e		 pop	 esi
  0006d	5b		 pop	 ebx
  0006e	8b e5		 mov	 esp, ebp
  00070	5d		 pop	 ebp
  00071	c3		 ret	 0
_TEXT	ENDS
;	COMDAT text$x
text$x	SEGMENT
__unwindfunclet$??$_Uninitialized_copy_n@PAU__GC1TO1TENDER@CGuildCombat1to1Mng@@V?$allocator@U__GC1TO1TENDER@CGuildCombat1to1Mng@@@std@@@std@@YAPAU__GC1TO1TENDER@CGuildCombat1to1Mng@@PAU12@I0AAV?$allocator@U__GC1TO1TENDER@CGuildCombat1to1Mng@@@0@@Z$0:
  00000	8d 4d e8	 lea	 ecx, DWORD PTR __Backout$[ebp]
  00003	e9 00 00 00 00	 jmp	 ??1?$_Uninitialized_backout_al@V?$allocator@U__GC1TO1TENDER@CGuildCombat1to1Mng@@@std@@@std@@QAE@XZ ; std::_Uninitialized_backout_al<std::allocator<CGuildCombat1to1Mng::__GC1TO1TENDER> >::~_Uninitialized_backout_al<std::allocator<CGuildCombat1to1Mng::__GC1TO1TENDER> >
  00008	cc		 int	 3
  00009	cc		 int	 3
  0000a	cc		 int	 3
  0000b	cc		 int	 3
  0000c	cc		 int	 3
__ehhandler$??$_Uninitialized_copy_n@PAU__GC1TO1TENDER@CGuildCombat1to1Mng@@V?$allocator@U__GC1TO1TENDER@CGuildCombat1to1Mng@@@std@@@std@@YAPAU__GC1TO1TENDER@CGuildCombat1to1Mng@@PAU12@I0AAV?$allocator@U__GC1TO1TENDER@CGuildCombat1to1Mng@@@0@@Z:
  0000d	90		 npad	 1
  0000e	90		 npad	 1
  0000f	8b 54 24 08	 mov	 edx, DWORD PTR [esp+8]
  00013	8d 42 0c	 lea	 eax, DWORD PTR [edx+12]
  00016	8b 4a e4	 mov	 ecx, DWORD PTR [edx-28]
  00019	33 c8		 xor	 ecx, eax
  0001b	e8 00 00 00 00	 call	 @__security_check_cookie@4
  00020	b8 00 00 00 00	 mov	 eax, OFFSET __ehfuncinfo$??$_Uninitialized_copy_n@PAU__GC1TO1TENDER@CGuildCombat1to1Mng@@V?$allocator@U__GC1TO1TENDER@CGuildCombat1to1Mng@@@std@@@std@@YAPAU__GC1TO1TENDER@CGuildCombat1to1Mng@@PAU12@I0AAV?$allocator@U__GC1TO1TENDER@CGuildCombat1to1Mng@@@0@@Z
  00025	e9 00 00 00 00	 jmp	 ___CxxFrameHandler3
text$x	ENDS
??$_Uninitialized_copy_n@PAU__GC1TO1TENDER@CGuildCombat1to1Mng@@V?$allocator@U__GC1TO1TENDER@CGuildCombat1to1Mng@@@std@@@std@@YAPAU__GC1TO1TENDER@CGuildCombat1to1Mng@@PAU12@I0AAV?$allocator@U__GC1TO1TENDER@CGuildCombat1to1Mng@@@0@@Z ENDP ; std::_Uninitialized_copy_n<CGuildCombat1to1Mng::__GC1TO1TENDER *,std::allocator<CGuildCombat1to1Mng::__GC1TO1TENDER> >
; Function compile flags: /Ogtp
; File C:\Program Files\Microsoft Visual Studio\2022\Professional\VC\Tools\MSVC\14.44.35207\include\vector
; File C:\Program Files\Microsoft Visual Studio\2022\Professional\VC\Tools\MSVC\14.44.35207\include\xmemory
; File C:\Program Files\Microsoft Visual Studio\2022\Professional\VC\Tools\MSVC\14.44.35207\include\vector
; File C:\Program Files\Microsoft Visual Studio\2022\Professional\VC\Tools\MSVC\14.44.35207\include\xmemory
; File C:\Program Files\Microsoft Visual Studio\2022\Professional\VC\Tools\MSVC\14.44.35207\include\vector
; File C:\Program Files\Microsoft Visual Studio\2022\Professional\VC\Tools\MSVC\14.44.35207\include\xmemory
; File C:\Program Files\Microsoft Visual Studio\2022\Professional\VC\Tools\MSVC\14.44.35207\include\vector
; File C:\Program Files\Microsoft Visual Studio\2022\Professional\VC\Tools\MSVC\14.44.35207\include\xutility
; File C:\Program Files\Microsoft Visual Studio\2022\Professional\VC\Tools\MSVC\14.44.35207\include\vector
; File C:\Program Files\Microsoft Visual Studio\2022\Professional\VC\Tools\MSVC\14.44.35207\include\xutility
; File C:\Program Files\Microsoft Visual Studio\2022\Professional\VC\Tools\MSVC\14.44.35207\include\vector
; File C:\Program Files\Microsoft Visual Studio\2022\Professional\VC\Tools\MSVC\14.44.35207\include\xmemory
; File C:\Program Files\Microsoft Visual Studio\2022\Professional\VC\Tools\MSVC\14.44.35207\include\vector
; File C:\Program Files\Microsoft Visual Studio\2022\Professional\VC\Tools\MSVC\14.44.35207\include\xmemory
; File C:\Program Files\Microsoft Visual Studio\2022\Professional\VC\Tools\MSVC\14.44.35207\include\vector
;	COMDAT ??$_Assign_counted_range@PAU__GC1TO1TENDER@CGuildCombat1to1Mng@@@?$vector@U__GC1TO1TENDER@CGuildCombat1to1Mng@@V?$allocator@U__GC1TO1TENDER@CGuildCombat1to1Mng@@@std@@@std@@AAEXPAU__GC1TO1TENDER@CGuildCombat1to1Mng@@I@Z
_TEXT	SEGMENT
__Backout$2 = -32					; size = 12
__Oldsize$1$ = -20					; size = 4
__Oldcapacity$1$ = -20					; size = 4
_this$1$ = -16						; size = 4
$T3 = -16						; size = 4
__$EHRec$ = -12						; size = 12
__First$ = 8						; size = 4
__Newsize$ = 12						; size = 4
__Newlast$1$ = 12					; size = 4
??$_Assign_counted_range@PAU__GC1TO1TENDER@CGuildCombat1to1Mng@@@?$vector@U__GC1TO1TENDER@CGuildCombat1to1Mng@@V?$allocator@U__GC1TO1TENDER@CGuildCombat1to1Mng@@@std@@@std@@AAEXPAU__GC1TO1TENDER@CGuildCombat1to1Mng@@I@Z PROC ; std::vector<CGuildCombat1to1Mng::__GC1TO1TENDER,std::allocator<CGuildCombat1to1Mng::__GC1TO1TENDER> >::_Assign_counted_range<CGuildCombat1to1Mng::__GC1TO1TENDER *>, COMDAT
; _this$ = ecx

; 1420 :     _CONSTEXPR20 void _Assign_counted_range(_Iter _First, const size_type _Newsize) {

  00000	55		 push	 ebp
  00001	8b ec		 mov	 ebp, esp
  00003	6a ff		 push	 -1
  00005	68 00 00 00 00	 push	 __ehhandler$??$_Assign_counted_range@PAU__GC1TO1TENDER@CGuildCombat1to1Mng@@@?$vector@U__GC1TO1TENDER@CGuildCombat1to1Mng@@V?$allocator@U__GC1TO1TENDER@CGuildCombat1to1Mng@@@std@@@std@@AAEXPAU__GC1TO1TENDER@CGuildCombat1to1Mng@@I@Z
  0000a	64 a1 00 00 00
	00		 mov	 eax, DWORD PTR fs:0
  00010	50		 push	 eax
  00011	83 ec 14	 sub	 esp, 20			; 00000014H
  00014	53		 push	 ebx
  00015	56		 push	 esi
  00016	57		 push	 edi
  00017	a1 00 00 00 00	 mov	 eax, DWORD PTR ___security_cookie
  0001c	33 c5		 xor	 eax, ebp
  0001e	50		 push	 eax
  0001f	8d 45 f4	 lea	 eax, DWORD PTR __$EHRec$[ebp]
  00022	64 a3 00 00 00
	00		 mov	 DWORD PTR fs:0, eax
  00028	8b d9		 mov	 ebx, ecx
  0002a	89 5d f0	 mov	 DWORD PTR _this$1$[ebp], ebx

; 1421 :         // assign elements from counted range _First + [0, _Newsize)
; 1422 :         auto& _Al         = _Getal();
; 1423 :         auto& _My_data    = _Mypair._Myval2;
; 1424 :         pointer& _Myfirst = _My_data._Myfirst;
; 1425 :         pointer& _Mylast  = _My_data._Mylast;
; 1426 :         pointer& _Myend   = _My_data._Myend;
; 1427 : 
; 1428 :         constexpr bool _Nothrow_construct = conjunction_v<is_nothrow_constructible<_Ty, _Iter_ref_t<_Iter>>,
; 1429 :             _Uses_default_construct<_Alloc, _Ty*, _Iter_ref_t<_Iter>>>;
; 1430 : 
; 1431 :         _My_data._Orphan_all();
; 1432 :         const auto _Oldcapacity = static_cast<size_type>(_Myend - _Myfirst);

  0002d	8b 53 08	 mov	 edx, DWORD PTR [ebx+8]
  00030	b8 e9 a2 8b 2e	 mov	 eax, 780903145		; 2e8ba2e9H
  00035	8b 33		 mov	 esi, DWORD PTR [ebx]
  00037	2b d6		 sub	 edx, esi

; 1433 :         if (_Newsize > _Oldcapacity) {

  00039	8b 7d 0c	 mov	 edi, DWORD PTR __Newsize$[ebp]
  0003c	f7 ea		 imul	 edx
  0003e	c1 fa 03	 sar	 edx, 3
  00041	8b c2		 mov	 eax, edx
  00043	c1 e8 1f	 shr	 eax, 31			; 0000001fH
  00046	03 c2		 add	 eax, edx
  00048	89 45 ec	 mov	 DWORD PTR __Oldcapacity$1$[ebp], eax
  0004b	3b f8		 cmp	 edi, eax
  0004d	0f 86 a4 00 00
	00		 jbe	 $LN5@Assign_cou

; 1703 :         if (_Newsize > max_size()) {

  00053	81 ff 5d 74 d1
	05		 cmp	 edi, 97612893		; 05d1745dH
  00059	0f 87 ee 01 00
	00		 ja	 $LN136@Assign_cou

; 2011 :         if (_Oldcapacity > _Max - _Oldcapacity / 2) {

  0005f	8b 55 ec	 mov	 edx, DWORD PTR __Oldcapacity$1$[ebp]
  00062	8b c8		 mov	 ecx, eax
  00064	d1 e9		 shr	 ecx, 1
  00066	b8 5d 74 d1 05	 mov	 eax, 97612893		; 05d1745dH
  0006b	2b c1		 sub	 eax, ecx
  0006d	3b d0		 cmp	 edx, eax
  0006f	76 09		 jbe	 SHORT $LN15@Assign_cou

; 2012 :             return _Max; // geometric growth would overflow

  00071	c7 45 f0 5d 74
	d1 05		 mov	 DWORD PTR $T3[ebp], 97612893 ; 05d1745dH
  00078	eb 0b		 jmp	 SHORT $LN16@Assign_cou
$LN15@Assign_cou:

; 2013 :         }
; 2014 : 
; 2015 :         const size_type _Geometric = _Oldcapacity + _Oldcapacity / 2;

  0007a	8d 04 11	 lea	 eax, DWORD PTR [ecx+edx]

; 2016 : 
; 2017 :         if (_Geometric < _Newsize) {

  0007d	3b c7		 cmp	 eax, edi
  0007f	0f 42 c7	 cmovb	 eax, edi
  00082	89 45 f0	 mov	 DWORD PTR $T3[ebp], eax
$LN16@Assign_cou:

; 1709 :         if (_Myfirst) { // destroy and deallocate old array

  00085	85 f6		 test	 esi, esi
  00087	74 50		 je	 SHORT $LN12@Assign_cou

; 1710 :             _Destroy_range(_Myfirst, _Mylast, _Al);

  00089	8b 43 04	 mov	 eax, DWORD PTR [ebx+4]
; File C:\Program Files\Microsoft Visual Studio\2022\Professional\VC\Tools\MSVC\14.44.35207\include\xmemory

; 1102 :         for (; _First != _Last; ++_First) {

  0008c	3b f0		 cmp	 esi, eax
  0008e	74 14		 je	 SHORT $LN23@Assign_cou
  00090	8b f8		 mov	 edi, eax
$LL24@Assign_cou:
; File C:\Program Files\Microsoft Visual Studio\2022\Professional\VC\Tools\MSVC\14.44.35207\include\vector

; 830  :         _Tidy();

  00092	8d 4e 20	 lea	 ecx, DWORD PTR [esi+32]
  00095	e8 00 00 00 00	 call	 ?_Tidy@?$vector@KV?$allocator@K@std@@@std@@AAEXXZ ; std::vector<unsigned long,std::allocator<unsigned long> >::_Tidy
; File C:\Program Files\Microsoft Visual Studio\2022\Professional\VC\Tools\MSVC\14.44.35207\include\xmemory

; 1102 :         for (; _First != _Last; ++_First) {

  0009a	83 c6 2c	 add	 esi, 44			; 0000002cH
  0009d	3b f7		 cmp	 esi, edi
  0009f	75 f1		 jne	 SHORT $LL24@Assign_cou
  000a1	8b 7d 0c	 mov	 edi, DWORD PTR __Newsize$[ebp]
$LN23@Assign_cou:
; File C:\Program Files\Microsoft Visual Studio\2022\Professional\VC\Tools\MSVC\14.44.35207\include\vector

; 1712 :             _Al.deallocate(_Myfirst, static_cast<size_type>(_Myend - _Myfirst));

  000a4	8b 33		 mov	 esi, DWORD PTR [ebx]
  000a6	b8 e9 a2 8b 2e	 mov	 eax, 780903145		; 2e8ba2e9H
  000ab	8b 4b 08	 mov	 ecx, DWORD PTR [ebx+8]
  000ae	2b ce		 sub	 ecx, esi
  000b0	f7 e9		 imul	 ecx
  000b2	8b cb		 mov	 ecx, ebx
  000b4	c1 fa 03	 sar	 edx, 3
  000b7	8b c2		 mov	 eax, edx
  000b9	c1 e8 1f	 shr	 eax, 31			; 0000001fH
  000bc	03 c2		 add	 eax, edx
  000be	50		 push	 eax
  000bf	56		 push	 esi
  000c0	e8 00 00 00 00	 call	 ?deallocate@?$allocator@U__GC1TO1TENDER@CGuildCombat1to1Mng@@@std@@QAEXQAU__GC1TO1TENDER@CGuildCombat1to1Mng@@I@Z ; std::allocator<CGuildCombat1to1Mng::__GC1TO1TENDER>::deallocate

; 1713 : 
; 1714 :             _Myfirst = nullptr;

  000c5	c7 03 00 00 00
	00		 mov	 DWORD PTR [ebx], 0

; 1715 :             _Mylast  = nullptr;

  000cb	c7 43 04 00 00
	00 00		 mov	 DWORD PTR [ebx+4], 0

; 1716 :             _Myend   = nullptr;

  000d2	c7 43 08 00 00
	00 00		 mov	 DWORD PTR [ebx+8], 0
$LN12@Assign_cou:

; 1717 :         }
; 1718 : 
; 1719 :         _Buy_raw(_Newcapacity);

  000d9	ff 75 f0	 push	 DWORD PTR $T3[ebp]
  000dc	8b cb		 mov	 ecx, ebx
  000de	e8 00 00 00 00	 call	 ?_Buy_raw@?$vector@U__GC1TO1TENDER@CGuildCombat1to1Mng@@V?$allocator@U__GC1TO1TENDER@CGuildCombat1to1Mng@@@std@@@std@@AAEXI@Z ; std::vector<CGuildCombat1to1Mng::__GC1TO1TENDER,std::allocator<CGuildCombat1to1Mng::__GC1TO1TENDER> >::_Buy_raw

; 1434 :             _Clear_and_reserve_geometric(_Newsize);
; 1435 :             if constexpr (_Nothrow_construct) {
; 1436 :                 _Mylast = _STD _Uninitialized_copy_n(_STD move(_First), _Newsize, _Myfirst, _Al);
; 1437 :                 _ASAN_VECTOR_CREATE;
; 1438 :             } else {
; 1439 :                 _ASAN_VECTOR_CREATE_GUARD;
; 1440 :                 _Mylast = _STD _Uninitialized_copy_n(_STD move(_First), _Newsize, _Myfirst, _Al);

  000e3	53		 push	 ebx
  000e4	ff 33		 push	 DWORD PTR [ebx]
  000e6	57		 push	 edi
  000e7	ff 75 08	 push	 DWORD PTR __First$[ebp]
  000ea	e8 00 00 00 00	 call	 ??$_Uninitialized_copy_n@PAU__GC1TO1TENDER@CGuildCombat1to1Mng@@V?$allocator@U__GC1TO1TENDER@CGuildCombat1to1Mng@@@std@@@std@@YAPAU__GC1TO1TENDER@CGuildCombat1to1Mng@@PAU12@I0AAV?$allocator@U__GC1TO1TENDER@CGuildCombat1to1Mng@@@0@@Z ; std::_Uninitialized_copy_n<CGuildCombat1to1Mng::__GC1TO1TENDER *,std::allocator<CGuildCombat1to1Mng::__GC1TO1TENDER> >
  000ef	83 c4 10	 add	 esp, 16			; 00000010H

; 1441 :             }
; 1442 :             return;

  000f2	e9 3f 01 00 00	 jmp	 $LN90@Assign_cou
$LN5@Assign_cou:

; 1443 :         }
; 1444 : 
; 1445 :         const auto _Oldsize = static_cast<size_type>(_Mylast - _Myfirst);

  000f7	8b 5b 04	 mov	 ebx, DWORD PTR [ebx+4]
  000fa	b8 e9 a2 8b 2e	 mov	 eax, 780903145		; 2e8ba2e9H
  000ff	8b cb		 mov	 ecx, ebx
  00101	2b ce		 sub	 ecx, esi
  00103	f7 e9		 imul	 ecx
  00105	c1 fa 03	 sar	 edx, 3
  00108	8b c2		 mov	 eax, edx
  0010a	c1 e8 1f	 shr	 eax, 31			; 0000001fH
  0010d	03 c2		 add	 eax, edx
  0010f	89 45 ec	 mov	 DWORD PTR __Oldsize$1$[ebp], eax

; 1446 :         if (_Newsize > _Oldsize) {

  00112	3b f8		 cmp	 edi, eax
  00114	0f 86 9e 00 00
	00		 jbe	 $LN6@Assign_cou

; 1447 :             bool _Copied = false;
; 1448 :             if constexpr (_Iter_copy_cat<_Iter, pointer>::_Bitcopy_assignable) {
; 1449 : #if _HAS_CXX20
; 1450 :                 if (!_STD is_constant_evaluated())
; 1451 : #endif // _HAS_CXX20
; 1452 :                 {
; 1453 :                     _Copy_memmove_n(_First, static_cast<size_t>(_Oldsize), _Myfirst);
; 1454 :                     _First += _Oldsize;
; 1455 :                     _Copied = true;
; 1456 :                 }
; 1457 :             }
; 1458 : 
; 1459 :             if (!_Copied) {
; 1460 :                 for (auto _Mid = _Myfirst; _Mid != _Mylast; ++_Mid, (void) ++_First) {

  0011a	8b 7d 08	 mov	 edi, DWORD PTR __First$[ebp]
  0011d	3b f3		 cmp	 esi, ebx
  0011f	74 4c		 je	 SHORT $LN132@Assign_cou
$LL4@Assign_cou:
  00121	8b 07		 mov	 eax, DWORD PTR [edi]
  00123	8d 4e 20	 lea	 ecx, DWORD PTR [esi+32]
  00126	89 06		 mov	 DWORD PTR [esi], eax
  00128	8b 47 04	 mov	 eax, DWORD PTR [edi+4]
  0012b	89 46 04	 mov	 DWORD PTR [esi+4], eax
  0012e	8b 47 08	 mov	 eax, DWORD PTR [edi+8]
  00131	89 46 08	 mov	 DWORD PTR [esi+8], eax
  00134	8b 47 0c	 mov	 eax, DWORD PTR [edi+12]
  00137	89 46 0c	 mov	 DWORD PTR [esi+12], eax
  0013a	8b 47 10	 mov	 eax, DWORD PTR [edi+16]
  0013d	89 46 10	 mov	 DWORD PTR [esi+16], eax
  00140	8b 47 14	 mov	 eax, DWORD PTR [edi+20]
  00143	89 46 14	 mov	 DWORD PTR [esi+20], eax
  00146	8b 47 18	 mov	 eax, DWORD PTR [edi+24]
  00149	89 46 18	 mov	 DWORD PTR [esi+24], eax
  0014c	8b 47 1c	 mov	 eax, DWORD PTR [edi+28]
  0014f	89 46 1c	 mov	 DWORD PTR [esi+28], eax
  00152	8d 47 20	 lea	 eax, DWORD PTR [edi+32]
  00155	50		 push	 eax
  00156	e8 00 00 00 00	 call	 ??4?$vector@KV?$allocator@K@std@@@std@@QAEAAV01@ABV01@@Z ; std::vector<unsigned long,std::allocator<unsigned long> >::operator=
  0015b	8b 45 f0	 mov	 eax, DWORD PTR _this$1$[ebp]
  0015e	83 c6 2c	 add	 esi, 44			; 0000002cH
  00161	83 c7 2c	 add	 edi, 44			; 0000002cH
  00164	8b 58 04	 mov	 ebx, DWORD PTR [eax+4]
  00167	3b f3		 cmp	 esi, ebx
  00169	75 b6		 jne	 SHORT $LL4@Assign_cou
  0016b	eb 03		 jmp	 SHORT $LN3@Assign_cou
$LN132@Assign_cou:
  0016d	8b 45 f0	 mov	 eax, DWORD PTR _this$1$[ebp]
$LN3@Assign_cou:

; 1470 :                 _Mylast = _STD _Uninitialized_copy_n(_STD move(_First), _Newsize - _Oldsize, _Mylast, _Al);

  00170	8b 75 0c	 mov	 esi, DWORD PTR __Newsize$[ebp]
  00173	2b 75 ec	 sub	 esi, DWORD PTR __Oldsize$1$[ebp]
; File C:\Program Files\Microsoft Visual Studio\2022\Professional\VC\Tools\MSVC\14.44.35207\include\xmemory

; 1833 :     _CONSTEXPR20 _Uninitialized_backout_al(pointer _Dest, _Alloc& _Al_) : _First(_Dest), _Last(_Dest), _Al(_Al_) {}

  00176	89 5d e0	 mov	 DWORD PTR __Backout$2[ebp], ebx
  00179	89 5d e4	 mov	 DWORD PTR __Backout$2[ebp+4], ebx
  0017c	89 45 e8	 mov	 DWORD PTR __Backout$2[ebp+8], eax

; 1936 :     _Uninitialized_backout_al<_Alloc> _Backout{_Dest, _Al};

  0017f	c7 45 fc 00 00
	00 00		 mov	 DWORD PTR __$EHRec$[ebp+8], 0

; 1937 :     for (; _Count != 0; ++_UFirst, (void) --_Count) {

  00186	74 19		 je	 SHORT $LN46@Assign_cou
$LL47@Assign_cou:

; 732  :         ::new (const_cast<void*>(static_cast<const volatile void*>(_Ptr))) _Objty(_STD forward<_Types>(_Args)...);

  00188	57		 push	 edi
  00189	8b cb		 mov	 ecx, ebx
  0018b	e8 00 00 00 00	 call	 ??0__GC1TO1TENDER@CGuildCombat1to1Mng@@QAE@ABU01@@Z

; 1845 :         ++_Last;

  00190	83 c3 2c	 add	 ebx, 44			; 0000002cH

; 1937 :     for (; _Count != 0; ++_UFirst, (void) --_Count) {

  00193	83 c7 2c	 add	 edi, 44			; 0000002cH

; 1845 :         ++_Last;

  00196	89 5d e4	 mov	 DWORD PTR __Backout$2[ebp+4], ebx

; 1937 :     for (; _Count != 0; ++_UFirst, (void) --_Count) {

  00199	83 ee 01	 sub	 esi, 1
  0019c	75 ea		 jne	 SHORT $LL47@Assign_cou
  0019e	8b 45 f0	 mov	 eax, DWORD PTR _this$1$[ebp]
$LN46@Assign_cou:
; File C:\Program Files\Microsoft Visual Studio\2022\Professional\VC\Tools\MSVC\14.44.35207\include\vector

; 1470 :                 _Mylast = _STD _Uninitialized_copy_n(_STD move(_First), _Newsize - _Oldsize, _Mylast, _Al);

  001a1	89 58 04	 mov	 DWORD PTR [eax+4], ebx

; 1480 :     }

  001a4	8b 4d f4	 mov	 ecx, DWORD PTR __$EHRec$[ebp]
  001a7	64 89 0d 00 00
	00 00		 mov	 DWORD PTR fs:0, ecx
  001ae	59		 pop	 ecx
  001af	5f		 pop	 edi
  001b0	5e		 pop	 esi
  001b1	5b		 pop	 ebx
  001b2	8b e5		 mov	 esp, ebp
  001b4	5d		 pop	 ebp
  001b5	c2 08 00	 ret	 8
$LN6@Assign_cou:

; 1474 :             const pointer _Newlast = _Myfirst + _Newsize;

  001b8	6b c7 2c	 imul	 eax, edi, 44
  001bb	03 c6		 add	 eax, esi
  001bd	89 45 0c	 mov	 DWORD PTR __Newlast$1$[ebp], eax
; File C:\Program Files\Microsoft Visual Studio\2022\Professional\VC\Tools\MSVC\14.44.35207\include\xutility

; 4812 :     for (; _Count != 0; ++_Dest, (void) ++_First, --_Count) {

  001c0	85 ff		 test	 edi, edi
  001c2	74 54		 je	 SHORT $LN83@Assign_cou
; File C:\Program Files\Microsoft Visual Studio\2022\Professional\VC\Tools\MSVC\14.44.35207\include\vector

; 1474 :             const pointer _Newlast = _Myfirst + _Newsize;

  001c4	8b 5d 08	 mov	 ebx, DWORD PTR __First$[ebp]
  001c7	83 c3 08	 add	 ebx, 8
  001ca	66 0f 1f 44 00
	00		 npad	 6
$LL84@Assign_cou:
  001d0	8b 43 f8	 mov	 eax, DWORD PTR [ebx-8]
  001d3	8d 4e 20	 lea	 ecx, DWORD PTR [esi+32]
  001d6	89 06		 mov	 DWORD PTR [esi], eax
  001d8	8b 43 fc	 mov	 eax, DWORD PTR [ebx-4]
  001db	89 46 04	 mov	 DWORD PTR [esi+4], eax
  001de	8b 03		 mov	 eax, DWORD PTR [ebx]
  001e0	89 46 08	 mov	 DWORD PTR [esi+8], eax
  001e3	8b 43 04	 mov	 eax, DWORD PTR [ebx+4]
  001e6	89 46 0c	 mov	 DWORD PTR [esi+12], eax
  001e9	8b 43 08	 mov	 eax, DWORD PTR [ebx+8]
  001ec	89 46 10	 mov	 DWORD PTR [esi+16], eax
  001ef	8b 43 0c	 mov	 eax, DWORD PTR [ebx+12]
  001f2	89 46 14	 mov	 DWORD PTR [esi+20], eax
  001f5	8b 43 10	 mov	 eax, DWORD PTR [ebx+16]
  001f8	89 46 18	 mov	 DWORD PTR [esi+24], eax
  001fb	8b 43 14	 mov	 eax, DWORD PTR [ebx+20]
  001fe	89 46 1c	 mov	 DWORD PTR [esi+28], eax
  00201	8d 43 18	 lea	 eax, DWORD PTR [ebx+24]
  00204	50		 push	 eax
  00205	e8 00 00 00 00	 call	 ??4?$vector@KV?$allocator@K@std@@@std@@QAEAAV01@ABV01@@Z ; std::vector<unsigned long,std::allocator<unsigned long> >::operator=
; File C:\Program Files\Microsoft Visual Studio\2022\Professional\VC\Tools\MSVC\14.44.35207\include\xutility

; 4812 :     for (; _Count != 0; ++_Dest, (void) ++_First, --_Count) {

  0020a	8d 76 2c	 lea	 esi, DWORD PTR [esi+44]
  0020d	8d 5b 2c	 lea	 ebx, DWORD PTR [ebx+44]
  00210	83 ef 01	 sub	 edi, 1
  00213	75 bb		 jne	 SHORT $LL84@Assign_cou
  00215	8b 45 0c	 mov	 eax, DWORD PTR __Newlast$1$[ebp]
$LN83@Assign_cou:
; File C:\Program Files\Microsoft Visual Studio\2022\Professional\VC\Tools\MSVC\14.44.35207\include\vector

; 1476 :             _STD _Destroy_range(_Newlast, _Mylast, _Al);

  00218	8b 5d f0	 mov	 ebx, DWORD PTR _this$1$[ebp]
  0021b	8b f0		 mov	 esi, eax
  0021d	8b 7b 04	 mov	 edi, DWORD PTR [ebx+4]
; File C:\Program Files\Microsoft Visual Studio\2022\Professional\VC\Tools\MSVC\14.44.35207\include\xmemory

; 1102 :         for (; _First != _Last; ++_First) {

  00220	3b c7		 cmp	 eax, edi
  00222	74 12		 je	 SHORT $LN90@Assign_cou
$LL91@Assign_cou:
; File C:\Program Files\Microsoft Visual Studio\2022\Professional\VC\Tools\MSVC\14.44.35207\include\vector

; 830  :         _Tidy();

  00224	8d 4e 20	 lea	 ecx, DWORD PTR [esi+32]
  00227	e8 00 00 00 00	 call	 ?_Tidy@?$vector@KV?$allocator@K@std@@@std@@AAEXXZ ; std::vector<unsigned long,std::allocator<unsigned long> >::_Tidy
; File C:\Program Files\Microsoft Visual Studio\2022\Professional\VC\Tools\MSVC\14.44.35207\include\xmemory

; 1102 :         for (; _First != _Last; ++_First) {

  0022c	83 c6 2c	 add	 esi, 44			; 0000002cH
  0022f	3b f7		 cmp	 esi, edi
  00231	75 f1		 jne	 SHORT $LL91@Assign_cou
  00233	8b 45 0c	 mov	 eax, DWORD PTR __Newlast$1$[ebp]
$LN90@Assign_cou:
; File C:\Program Files\Microsoft Visual Studio\2022\Professional\VC\Tools\MSVC\14.44.35207\include\vector

; 1480 :     }

  00236	89 43 04	 mov	 DWORD PTR [ebx+4], eax
  00239	8b 4d f4	 mov	 ecx, DWORD PTR __$EHRec$[ebp]
  0023c	64 89 0d 00 00
	00 00		 mov	 DWORD PTR fs:0, ecx
  00243	59		 pop	 ecx
  00244	5f		 pop	 edi
  00245	5e		 pop	 esi
  00246	5b		 pop	 ebx
  00247	8b e5		 mov	 esp, ebp
  00249	5d		 pop	 ebp
  0024a	c2 08 00	 ret	 8
$LN136@Assign_cou:

; 1704 :             _Xlength();

  0024d	e8 00 00 00 00	 call	 ?_Xlength@?$vector@U__GC1TO1TENDER@CGuildCombat1to1Mng@@V?$allocator@U__GC1TO1TENDER@CGuildCombat1to1Mng@@@std@@@std@@CAXXZ ; std::vector<CGuildCombat1to1Mng::__GC1TO1TENDER,std::allocator<CGuildCombat1to1Mng::__GC1TO1TENDER> >::_Xlength
$LN134@Assign_cou:
  00252	cc		 int	 3
_TEXT	ENDS
;	COMDAT text$x
text$x	SEGMENT
__unwindfunclet$??$_Assign_counted_range@PAU__GC1TO1TENDER@CGuildCombat1to1Mng@@@?$vector@U__GC1TO1TENDER@CGuildCombat1to1Mng@@V?$allocator@U__GC1TO1TENDER@CGuildCombat1to1Mng@@@std@@@std@@AAEXPAU__GC1TO1TENDER@CGuildCombat1to1Mng@@I@Z$1:
  00000	8d 4d e0	 lea	 ecx, DWORD PTR __Backout$2[ebp]
  00003	e9 00 00 00 00	 jmp	 ??1?$_Uninitialized_backout_al@V?$allocator@U__GC1TO1TENDER@CGuildCombat1to1Mng@@@std@@@std@@QAE@XZ ; std::_Uninitialized_backout_al<std::allocator<CGuildCombat1to1Mng::__GC1TO1TENDER> >::~_Uninitialized_backout_al<std::allocator<CGuildCombat1to1Mng::__GC1TO1TENDER> >
  00008	cc		 int	 3
  00009	cc		 int	 3
  0000a	cc		 int	 3
  0000b	cc		 int	 3
  0000c	cc		 int	 3
__ehhandler$??$_Assign_counted_range@PAU__GC1TO1TENDER@CGuildCombat1to1Mng@@@?$vector@U__GC1TO1TENDER@CGuildCombat1to1Mng@@V?$allocator@U__GC1TO1TENDER@CGuildCombat1to1Mng@@@std@@@std@@AAEXPAU__GC1TO1TENDER@CGuildCombat1to1Mng@@I@Z:
  0000d	90		 npad	 1
  0000e	90		 npad	 1
  0000f	8b 54 24 08	 mov	 edx, DWORD PTR [esp+8]
  00013	8d 42 0c	 lea	 eax, DWORD PTR [edx+12]
  00016	8b 4a dc	 mov	 ecx, DWORD PTR [edx-36]
  00019	33 c8		 xor	 ecx, eax
  0001b	e8 00 00 00 00	 call	 @__security_check_cookie@4
  00020	b8 00 00 00 00	 mov	 eax, OFFSET __ehfuncinfo$??$_Assign_counted_range@PAU__GC1TO1TENDER@CGuildCombat1to1Mng@@@?$vector@U__GC1TO1TENDER@CGuildCombat1to1Mng@@V?$allocator@U__GC1TO1TENDER@CGuildCombat1to1Mng@@@std@@@std@@AAEXPAU__GC1TO1TENDER@CGuildCombat1to1Mng@@I@Z
  00025	e9 00 00 00 00	 jmp	 ___CxxFrameHandler3
text$x	ENDS
??$_Assign_counted_range@PAU__GC1TO1TENDER@CGuildCombat1to1Mng@@@?$vector@U__GC1TO1TENDER@CGuildCombat1to1Mng@@V?$allocator@U__GC1TO1TENDER@CGuildCombat1to1Mng@@@std@@@std@@AAEXPAU__GC1TO1TENDER@CGuildCombat1to1Mng@@I@Z ENDP ; std::vector<CGuildCombat1to1Mng::__GC1TO1TENDER,std::allocator<CGuildCombat1to1Mng::__GC1TO1TENDER> >::_Assign_counted_range<CGuildCombat1to1Mng::__GC1TO1TENDER *>
; Function compile flags: /Ogtp
;	COMDAT ??1?$multimap@HHU?$less@H@std@@V?$allocator@U?$pair@$$CBHH@std@@@2@@std@@QAE@XZ
_TEXT	SEGMENT
??1?$multimap@HHU?$less@H@std@@V?$allocator@U?$pair@$$CBHH@std@@@2@@std@@QAE@XZ PROC ; std::multimap<int,int,std::less<int>,std::allocator<std::pair<int const ,int> > >::~multimap<int,int,std::less<int>,std::allocator<std::pair<int const ,int> > >, COMDAT
; _this$ = ecx
  00000	e9 00 00 00 00	 jmp	 ??1?$_Tree@V?$_Tmap_traits@HHU?$less@H@std@@V?$allocator@U?$pair@$$CBHH@std@@@2@$00@std@@@std@@QAE@XZ ; std::_Tree<std::_Tmap_traits<int,int,std::less<int>,std::allocator<std::pair<int const ,int> >,1> >::~_Tree<std::_Tmap_traits<int,int,std::less<int>,std::allocator<std::pair<int const ,int> >,1> >
??1?$multimap@HHU?$less@H@std@@V?$allocator@U?$pair@$$CBHH@std@@@2@@std@@QAE@XZ ENDP ; std::multimap<int,int,std::less<int>,std::allocator<std::pair<int const ,int> > >::~multimap<int,int,std::less<int>,std::allocator<std::pair<int const ,int> > >
_TEXT	ENDS
; Function compile flags: /Ogtp
; File C:\Program Files\Microsoft Visual Studio\2022\Professional\VC\Tools\MSVC\14.44.35207\include\xtree
; File C:\Program Files\Microsoft Visual Studio\2022\Professional\VC\Tools\MSVC\14.44.35207\include\utility
; File C:\Program Files\Microsoft Visual Studio\2022\Professional\VC\Tools\MSVC\14.44.35207\include\xmemory
; File C:\Program Files\Microsoft Visual Studio\2022\Professional\VC\Tools\MSVC\14.44.35207\include\xtree
; File C:\Program Files\Microsoft Visual Studio\2022\Professional\VC\Tools\MSVC\14.44.35207\include\xmemory
; File C:\Program Files\Microsoft Visual Studio\2022\Professional\VC\Tools\MSVC\14.44.35207\include\xtree
;	COMDAT ??1?$_Tree@V?$_Tmap_traits@HHU?$less@H@std@@V?$allocator@U?$pair@$$CBHH@std@@@2@$00@std@@@std@@QAE@XZ
_TEXT	SEGMENT
??1?$_Tree@V?$_Tmap_traits@HHU?$less@H@std@@V?$allocator@U?$pair@$$CBHH@std@@@2@$00@std@@@std@@QAE@XZ PROC ; std::_Tree<std::_Tmap_traits<int,int,std::less<int>,std::allocator<std::pair<int const ,int> >,1> >::~_Tree<std::_Tmap_traits<int,int,std::less<int>,std::allocator<std::pair<int const ,int> >,1> >, COMDAT
; _this$ = ecx

; 1095 :     ~_Tree() noexcept {

  00000	56		 push	 esi
  00001	57		 push	 edi
  00002	8b f9		 mov	 edi, ecx

; 777  :         _Erase_tree(_Al, _Myhead->_Parent);

  00004	8b 37		 mov	 esi, DWORD PTR [edi]
  00006	8b 76 04	 mov	 esi, DWORD PTR [esi+4]

; 768  :         while (!_Rootnode->_Isnil) { // free subtrees, then node

  00009	80 7e 0d 00	 cmp	 BYTE PTR [esi+13], 0
  0000d	75 21		 jne	 SHORT $LN61@Tree
  0000f	90		 npad	 1
$LL8@Tree:

; 769  :             _Erase_tree(_Al, _Rootnode->_Right);

  00010	ff 76 08	 push	 DWORD PTR [esi+8]
  00013	8b cf		 mov	 ecx, edi
  00015	57		 push	 edi
  00016	e8 00 00 00 00	 call	 ??$_Erase_tree@V?$allocator@U?$_Tree_node@U?$pair@$$CBHH@std@@PAX@std@@@std@@@?$_Tree_val@U?$_Tree_simple_types@U?$pair@$$CBHH@std@@@std@@@std@@QAEXAAV?$allocator@U?$_Tree_node@U?$pair@$$CBHH@std@@PAX@std@@@1@PAU?$_Tree_node@U?$pair@$$CBHH@std@@PAX@1@@Z ; std::_Tree_val<std::_Tree_simple_types<std::pair<int const ,int> > >::_Erase_tree<std::allocator<std::_Tree_node<std::pair<int const ,int>,void *> > >
; File C:\Program Files\Microsoft Visual Studio\2022\Professional\VC\Tools\MSVC\14.44.35207\include\utility

; 773  :     _Ty _Old_val = static_cast<_Ty&&>(_Val);

  0001b	8b c6		 mov	 eax, esi

; 774  :     _Val         = static_cast<_Other&&>(_New_val);

  0001d	8b 36		 mov	 esi, DWORD PTR [esi]
; File C:\Program Files\Microsoft Visual Studio\2022\Professional\VC\Tools\MSVC\14.44.35207\include\xmemory

; 289  :         ::operator delete(_Ptr, _Bytes);

  0001f	6a 18		 push	 24			; 00000018H
  00021	50		 push	 eax
  00022	e8 00 00 00 00	 call	 ??3@YAXPAXI@Z		; operator delete
  00027	83 c4 08	 add	 esp, 8
; File C:\Program Files\Microsoft Visual Studio\2022\Professional\VC\Tools\MSVC\14.44.35207\include\xtree

; 768  :         while (!_Rootnode->_Isnil) { // free subtrees, then node

  0002a	80 7e 0d 00	 cmp	 BYTE PTR [esi+13], 0
  0002e	74 e0		 je	 SHORT $LL8@Tree
$LN61@Tree:
; File C:\Program Files\Microsoft Visual Studio\2022\Professional\VC\Tools\MSVC\14.44.35207\include\xmemory

; 289  :         ::operator delete(_Ptr, _Bytes);

  00030	6a 18		 push	 24			; 00000018H
  00032	ff 37		 push	 DWORD PTR [edi]
  00034	e8 00 00 00 00	 call	 ??3@YAXPAXI@Z		; operator delete
  00039	83 c4 08	 add	 esp, 8
  0003c	5f		 pop	 edi
  0003d	5e		 pop	 esi
; File C:\Program Files\Microsoft Visual Studio\2022\Professional\VC\Tools\MSVC\14.44.35207\include\xtree

; 1102 :     }

  0003e	c3		 ret	 0
??1?$_Tree@V?$_Tmap_traits@HHU?$less@H@std@@V?$allocator@U?$pair@$$CBHH@std@@@2@$00@std@@@std@@QAE@XZ ENDP ; std::_Tree<std::_Tmap_traits<int,int,std::less<int>,std::allocator<std::pair<int const ,int> >,1> >::~_Tree<std::_Tmap_traits<int,int,std::less<int>,std::allocator<std::pair<int const ,int> >,1> >
_TEXT	ENDS
; Function compile flags: /Ogtp
; File C:\Program Files\Microsoft Visual Studio\2022\Professional\VC\Tools\MSVC\14.44.35207\include\xmemory
;	COMDAT ??$_Allocate_manually_vector_aligned@U_Default_allocate_traits@std@@@std@@YAPAXI@Z
_TEXT	SEGMENT
__Bytes$ = 8						; size = 4
??$_Allocate_manually_vector_aligned@U_Default_allocate_traits@std@@@std@@YAPAXI@Z PROC ; std::_Allocate_manually_vector_aligned<std::_Default_allocate_traits>, COMDAT

; 182  : __declspec(allocator) void* _Allocate_manually_vector_aligned(const size_t _Bytes) {

  00000	55		 push	 ebp
  00001	8b ec		 mov	 ebp, esp

; 183  :     // allocate _Bytes manually aligned to at least _Big_allocation_alignment
; 184  :     const size_t _Block_size = _Non_user_size + _Bytes;

  00003	8b 45 08	 mov	 eax, DWORD PTR __Bytes$[ebp]
  00006	8d 48 23	 lea	 ecx, DWORD PTR [eax+35]

; 185  :     if (_Block_size <= _Bytes) {

  00009	3b c8		 cmp	 ecx, eax
  0000b	0f 86 00 00 00
	00		 jbe	 ?_Throw_bad_array_new_length@std@@YAXXZ ; std::_Throw_bad_array_new_length

; 136  :         return ::operator new(_Bytes);

  00011	51		 push	 ecx
  00012	e8 00 00 00 00	 call	 ??2@YAPAXI@Z		; operator new

; 186  :         _Throw_bad_array_new_length(); // add overflow
; 187  :     }
; 188  : 
; 189  :     const uintptr_t _Ptr_container = reinterpret_cast<uintptr_t>(_Traits::_Allocate(_Block_size));

  00017	8b c8		 mov	 ecx, eax

; 136  :         return ::operator new(_Bytes);

  00019	83 c4 04	 add	 esp, 4

; 190  :     _STL_VERIFY(_Ptr_container != 0, "invalid argument"); // validate even in release since we're doing p[-1]

  0001c	85 c9		 test	 ecx, ecx
  0001e	74 0b		 je	 SHORT $LN9@Allocate_m

; 191  :     void* const _Ptr = reinterpret_cast<void*>((_Ptr_container + _Non_user_size) & ~(_Big_allocation_alignment - 1));

  00020	8d 41 23	 lea	 eax, DWORD PTR [ecx+35]
  00023	83 e0 e0	 and	 eax, -32		; ffffffe0H

; 192  :     static_cast<uintptr_t*>(_Ptr)[-1] = _Ptr_container;

  00026	89 48 fc	 mov	 DWORD PTR [eax-4], ecx

; 193  : 
; 194  : #ifdef _DEBUG
; 195  :     static_cast<uintptr_t*>(_Ptr)[-2] = _Big_allocation_sentinel;
; 196  : #endif // defined(_DEBUG)
; 197  :     return _Ptr;
; 198  : }

  00029	5d		 pop	 ebp
  0002a	c3		 ret	 0
$LN9@Allocate_m:

; 190  :     _STL_VERIFY(_Ptr_container != 0, "invalid argument"); // validate even in release since we're doing p[-1]

  0002b	6a 00		 push	 0
  0002d	6a 00		 push	 0
  0002f	6a 00		 push	 0
  00031	6a 00		 push	 0
  00033	6a 00		 push	 0
  00035	e8 00 00 00 00	 call	 __invoke_watson
$LN7@Allocate_m:
  0003a	cc		 int	 3
??$_Allocate_manually_vector_aligned@U_Default_allocate_traits@std@@@std@@YAPAXI@Z ENDP ; std::_Allocate_manually_vector_aligned<std::_Default_allocate_traits>
_TEXT	ENDS
; Function compile flags: /Ogtp
; File C:\Program Files\Microsoft Visual Studio\2022\Professional\VC\Tools\MSVC\14.44.35207\include\xtree
; File C:\Program Files\Microsoft Visual Studio\2022\Professional\VC\Tools\MSVC\14.44.35207\include\utility
; File C:\Program Files\Microsoft Visual Studio\2022\Professional\VC\Tools\MSVC\14.44.35207\include\xmemory
; File C:\Program Files\Microsoft Visual Studio\2022\Professional\VC\Tools\MSVC\14.44.35207\include\xtree
;	COMDAT ??$_Erase_tree@V?$allocator@U?$_Tree_node@U?$pair@$$CBHH@std@@PAX@std@@@std@@@?$_Tree_val@U?$_Tree_simple_types@U?$pair@$$CBHH@std@@@std@@@std@@QAEXAAV?$allocator@U?$_Tree_node@U?$pair@$$CBHH@std@@PAX@std@@@1@PAU?$_Tree_node@U?$pair@$$CBHH@std@@PAX@1@@Z
_TEXT	SEGMENT
__Al$ = 8						; size = 4
__Rootnode$ = 12					; size = 4
??$_Erase_tree@V?$allocator@U?$_Tree_node@U?$pair@$$CBHH@std@@PAX@std@@@std@@@?$_Tree_val@U?$_Tree_simple_types@U?$pair@$$CBHH@std@@@std@@@std@@QAEXAAV?$allocator@U?$_Tree_node@U?$pair@$$CBHH@std@@PAX@std@@@1@PAU?$_Tree_node@U?$pair@$$CBHH@std@@PAX@1@@Z PROC ; std::_Tree_val<std::_Tree_simple_types<std::pair<int const ,int> > >::_Erase_tree<std::allocator<std::_Tree_node<std::pair<int const ,int>,void *> > >, COMDAT
; _this$ = ecx

; 767  :     void _Erase_tree(_Alnode& _Al, _Nodeptr _Rootnode) noexcept {

  00000	55		 push	 ebp
  00001	8b ec		 mov	 ebp, esp
  00003	53		 push	 ebx
  00004	56		 push	 esi

; 768  :         while (!_Rootnode->_Isnil) { // free subtrees, then node

  00005	8b 75 0c	 mov	 esi, DWORD PTR __Rootnode$[ebp]
  00008	8b d9		 mov	 ebx, ecx
  0000a	80 7e 0d 00	 cmp	 BYTE PTR [esi+13], 0
  0000e	75 25		 jne	 SHORT $LN34@Erase_tree
  00010	57		 push	 edi
  00011	8b 7d 08	 mov	 edi, DWORD PTR __Al$[ebp]
$LL2@Erase_tree:

; 769  :             _Erase_tree(_Al, _Rootnode->_Right);

  00014	ff 76 08	 push	 DWORD PTR [esi+8]
  00017	8b cb		 mov	 ecx, ebx
  00019	57		 push	 edi
  0001a	e8 00 00 00 00	 call	 ??$_Erase_tree@V?$allocator@U?$_Tree_node@U?$pair@$$CBHH@std@@PAX@std@@@std@@@?$_Tree_val@U?$_Tree_simple_types@U?$pair@$$CBHH@std@@@std@@@std@@QAEXAAV?$allocator@U?$_Tree_node@U?$pair@$$CBHH@std@@PAX@std@@@1@PAU?$_Tree_node@U?$pair@$$CBHH@std@@PAX@1@@Z ; std::_Tree_val<std::_Tree_simple_types<std::pair<int const ,int> > >::_Erase_tree<std::allocator<std::_Tree_node<std::pair<int const ,int>,void *> > >
; File C:\Program Files\Microsoft Visual Studio\2022\Professional\VC\Tools\MSVC\14.44.35207\include\utility

; 773  :     _Ty _Old_val = static_cast<_Ty&&>(_Val);

  0001f	8b c6		 mov	 eax, esi

; 774  :     _Val         = static_cast<_Other&&>(_New_val);

  00021	8b 36		 mov	 esi, DWORD PTR [esi]
; File C:\Program Files\Microsoft Visual Studio\2022\Professional\VC\Tools\MSVC\14.44.35207\include\xmemory

; 289  :         ::operator delete(_Ptr, _Bytes);

  00023	6a 18		 push	 24			; 00000018H
  00025	50		 push	 eax
  00026	e8 00 00 00 00	 call	 ??3@YAXPAXI@Z		; operator delete
  0002b	83 c4 08	 add	 esp, 8
; File C:\Program Files\Microsoft Visual Studio\2022\Professional\VC\Tools\MSVC\14.44.35207\include\xtree

; 768  :         while (!_Rootnode->_Isnil) { // free subtrees, then node

  0002e	80 7e 0d 00	 cmp	 BYTE PTR [esi+13], 0
  00032	74 e0		 je	 SHORT $LL2@Erase_tree
  00034	5f		 pop	 edi
$LN34@Erase_tree:
  00035	5e		 pop	 esi

; 770  :             _Alnode::value_type::_Freenode(_Al, _STD exchange(_Rootnode, _Rootnode->_Left));
; 771  :         }
; 772  :     }

  00036	5b		 pop	 ebx
  00037	5d		 pop	 ebp
  00038	c2 08 00	 ret	 8
??$_Erase_tree@V?$allocator@U?$_Tree_node@U?$pair@$$CBHH@std@@PAX@std@@@std@@@?$_Tree_val@U?$_Tree_simple_types@U?$pair@$$CBHH@std@@@std@@@std@@QAEXAAV?$allocator@U?$_Tree_node@U?$pair@$$CBHH@std@@PAX@std@@@1@PAU?$_Tree_node@U?$pair@$$CBHH@std@@PAX@1@@Z ENDP ; std::_Tree_val<std::_Tree_simple_types<std::pair<int const ,int> > >::_Erase_tree<std::allocator<std::_Tree_node<std::pair<int const ,int>,void *> > >
_TEXT	ENDS
; Function compile flags: /Ogtp
;	COMDAT ??_GCGuildCombat1to1@@UAEPAXI@Z
_TEXT	SEGMENT
___flags$ = 8						; size = 4
??_GCGuildCombat1to1@@UAEPAXI@Z PROC			; CGuildCombat1to1::`scalar deleting destructor', COMDAT
; _this$ = ecx
  00000	55		 push	 ebp
  00001	8b ec		 mov	 ebp, esp
  00003	56		 push	 esi
  00004	8b f1		 mov	 esi, ecx
  00006	e8 00 00 00 00	 call	 ??1CGuildCombat1to1@@UAE@XZ ; CGuildCombat1to1::~CGuildCombat1to1
  0000b	f6 45 08 01	 test	 BYTE PTR ___flags$[ebp], 1
  0000f	74 0b		 je	 SHORT $LN5@scalar
  00011	6a 2c		 push	 44			; 0000002cH
  00013	56		 push	 esi
  00014	e8 00 00 00 00	 call	 ??3@YAXPAXI@Z		; operator delete
  00019	83 c4 08	 add	 esp, 8
$LN5@scalar:
  0001c	8b c6		 mov	 eax, esi
  0001e	5e		 pop	 esi
  0001f	5d		 pop	 ebp
  00020	c2 04 00	 ret	 4
??_GCGuildCombat1to1@@UAEPAXI@Z ENDP			; CGuildCombat1to1::`scalar deleting destructor'
_TEXT	ENDS
; Function compile flags: /Ogtp
; File C:\Program Files\Microsoft Visual Studio\2022\Professional\VC\Tools\MSVC\14.44.35207\include\vector
; File C:\Program Files\Microsoft Visual Studio\2022\Professional\VC\Tools\MSVC\14.44.35207\include\xmemory
; File C:\Program Files\Microsoft Visual Studio\2022\Professional\VC\Tools\MSVC\14.44.35207\include\vector
; File C:\Program Files\Microsoft Visual Studio\2022\Professional\VC\Tools\MSVC\14.44.35207\include\xmemory
; File C:\Program Files\Microsoft Visual Studio\2022\Professional\VC\Tools\MSVC\14.44.35207\include\vector
;	COMDAT ??0CGuildCombat1to1@@QAE@ABV0@@Z
_TEXT	SEGMENT
__Backout$2 = -40					; size = 12
__Guard$3 = -28						; size = 4
_this$ = -24						; size = 4
__Last$1$ = -20						; size = 4
_this$1$ = -16						; size = 4
__$EHRec$ = -12						; size = 12
___that$ = 8						; size = 4
??0CGuildCombat1to1@@QAE@ABV0@@Z PROC			; CGuildCombat1to1::CGuildCombat1to1, COMDAT
; _this$ = ecx
  00000	55		 push	 ebp
  00001	8b ec		 mov	 ebp, esp
  00003	6a ff		 push	 -1
  00005	68 00 00 00 00	 push	 __ehhandler$??0CGuildCombat1to1@@QAE@ABV0@@Z
  0000a	64 a1 00 00 00
	00		 mov	 eax, DWORD PTR fs:0
  00010	50		 push	 eax
  00011	83 ec 1c	 sub	 esp, 28			; 0000001cH
  00014	53		 push	 ebx
  00015	56		 push	 esi
  00016	57		 push	 edi
  00017	a1 00 00 00 00	 mov	 eax, DWORD PTR ___security_cookie
  0001c	33 c5		 xor	 eax, ebp
  0001e	50		 push	 eax
  0001f	8d 45 f4	 lea	 eax, DWORD PTR __$EHRec$[ebp]
  00022	64 a3 00 00 00
	00		 mov	 DWORD PTR fs:0, eax
  00028	8b f1		 mov	 esi, ecx
  0002a	89 75 e8	 mov	 DWORD PTR _this$[ebp], esi

; 747  :         const auto& _Right_data = _Right._Mypair._Myval2;

  0002d	8b 5d 08	 mov	 ebx, DWORD PTR ___that$[ebp]
  00030	8d 7e 04	 lea	 edi, DWORD PTR [esi+4]
  00033	c7 06 00 00 00
	00		 mov	 DWORD PTR [esi], OFFSET ??_7CGuildCombat1to1@@6B@

; 748  :         const auto _Count       = static_cast<size_type>(_Right_data._Mylast - _Right_data._Myfirst);

  00039	b8 e9 a2 8b 2e	 mov	 eax, 780903145		; 2e8ba2e9H

; 400  :     _CONSTEXPR20 _Vector_val() noexcept : _Myfirst(), _Mylast(), _Myend() {}

  0003e	c7 07 00 00 00
	00		 mov	 DWORD PTR [edi], 0
  00044	c7 47 04 00 00
	00 00		 mov	 DWORD PTR [edi+4], 0
  0004b	c7 47 08 00 00
	00 00		 mov	 DWORD PTR [edi+8], 0

; 748  :         const auto _Count       = static_cast<size_type>(_Right_data._Mylast - _Right_data._Myfirst);

  00052	8b 4b 08	 mov	 ecx, DWORD PTR [ebx+8]
  00055	2b 4b 04	 sub	 ecx, DWORD PTR [ebx+4]
  00058	f7 e9		 imul	 ecx
  0005a	89 7d f0	 mov	 DWORD PTR _this$1$[ebp], edi
  0005d	c1 fa 03	 sar	 edx, 3
  00060	8b c2		 mov	 eax, edx
  00062	c1 e8 1f	 shr	 eax, 31			; 0000001fH
  00065	03 c2		 add	 eax, edx

; 2111 :         if (_Count != 0) {

  00067	74 5f		 je	 SHORT $LN58@CGuildComb

; 2051 :         if (_Newcapacity > max_size()) {

  00069	3d 5d 74 d1 05	 cmp	 eax, 97612893		; 05d1745dH
  0006e	0f 87 94 00 00
	00		 ja	 $LN74@CGuildComb

; 2053 :         }
; 2054 : 
; 2055 :         _Buy_raw(_Newcapacity);

  00074	50		 push	 eax
  00075	8b cf		 mov	 ecx, edi
  00077	e8 00 00 00 00	 call	 ?_Buy_raw@?$vector@U__GC1TO1TENDER@CGuildCombat1to1Mng@@V?$allocator@U__GC1TO1TENDER@CGuildCombat1to1Mng@@@std@@@std@@AAEXI@Z ; std::vector<CGuildCombat1to1Mng::__GC1TO1TENDER,std::allocator<CGuildCombat1to1Mng::__GC1TO1TENDER> >::_Buy_raw

; 2113 :             _Tidy_guard<vector> _Guard{this};

  0007c	89 7d e4	 mov	 DWORD PTR __Guard$3[ebp], edi

; 2120 :                 _My_data._Mylast = _STD _Uninitialized_copy(_STD forward<_Valty>(_Val)..., _My_data._Myfirst, _Al);

  0007f	8b 3f		 mov	 edi, DWORD PTR [edi]
  00081	8b 43 08	 mov	 eax, DWORD PTR [ebx+8]
; File C:\Program Files\Microsoft Visual Studio\2022\Professional\VC\Tools\MSVC\14.44.35207\include\xmemory

; 1833 :     _CONSTEXPR20 _Uninitialized_backout_al(pointer _Dest, _Alloc& _Al_) : _First(_Dest), _Last(_Dest), _Al(_Al_) {}

  00084	8b 4d f0	 mov	 ecx, DWORD PTR _this$1$[ebp]
; File C:\Program Files\Microsoft Visual Studio\2022\Professional\VC\Tools\MSVC\14.44.35207\include\vector

; 2120 :                 _My_data._Mylast = _STD _Uninitialized_copy(_STD forward<_Valty>(_Val)..., _My_data._Myfirst, _Al);

  00087	8b 73 04	 mov	 esi, DWORD PTR [ebx+4]
  0008a	c7 45 fc 00 00
	00 00		 mov	 DWORD PTR __$EHRec$[ebp+8], 0
  00091	89 45 ec	 mov	 DWORD PTR __Last$1$[ebp], eax
; File C:\Program Files\Microsoft Visual Studio\2022\Professional\VC\Tools\MSVC\14.44.35207\include\xmemory

; 1833 :     _CONSTEXPR20 _Uninitialized_backout_al(pointer _Dest, _Alloc& _Al_) : _First(_Dest), _Last(_Dest), _Al(_Al_) {}

  00094	89 7d d8	 mov	 DWORD PTR __Backout$2[ebp], edi
  00097	89 7d dc	 mov	 DWORD PTR __Backout$2[ebp+4], edi
  0009a	89 4d e0	 mov	 DWORD PTR __Backout$2[ebp+8], ecx

; 1900 :     _Uninitialized_backout_al<_Alloc> _Backout{_Dest, _Al};

  0009d	c6 45 fc 01	 mov	 BYTE PTR __$EHRec$[ebp+8], 1

; 1901 :     for (; _UFirst != _ULast; ++_UFirst) {

  000a1	3b f0		 cmp	 esi, eax
  000a3	74 1a		 je	 SHORT $LN22@CGuildComb
  000a5	8b d8		 mov	 ebx, eax
$LL23@CGuildComb:

; 732  :         ::new (const_cast<void*>(static_cast<const volatile void*>(_Ptr))) _Objty(_STD forward<_Types>(_Args)...);

  000a7	56		 push	 esi
  000a8	8b cf		 mov	 ecx, edi
  000aa	e8 00 00 00 00	 call	 ??0__GC1TO1TENDER@CGuildCombat1to1Mng@@QAE@ABU01@@Z

; 1845 :         ++_Last;

  000af	83 c7 2c	 add	 edi, 44			; 0000002cH

; 1901 :     for (; _UFirst != _ULast; ++_UFirst) {

  000b2	83 c6 2c	 add	 esi, 44			; 0000002cH

; 1845 :         ++_Last;

  000b5	89 7d dc	 mov	 DWORD PTR __Backout$2[ebp+4], edi

; 1901 :     for (; _UFirst != _ULast; ++_UFirst) {

  000b8	3b f3		 cmp	 esi, ebx
  000ba	75 eb		 jne	 SHORT $LL23@CGuildComb
  000bc	8b 5d 08	 mov	 ebx, DWORD PTR ___that$[ebp]
$LN22@CGuildComb:
; File C:\Program Files\Microsoft Visual Studio\2022\Professional\VC\Tools\MSVC\14.44.35207\include\vector

; 2120 :                 _My_data._Mylast = _STD _Uninitialized_copy(_STD forward<_Valty>(_Val)..., _My_data._Myfirst, _Al);

  000bf	8b 45 f0	 mov	 eax, DWORD PTR _this$1$[ebp]
  000c2	8b 75 e8	 mov	 esi, DWORD PTR _this$[ebp]
  000c5	89 78 04	 mov	 DWORD PTR [eax+4], edi
$LN58@CGuildComb:
  000c8	8b 43 10	 mov	 eax, DWORD PTR [ebx+16]
  000cb	89 46 10	 mov	 DWORD PTR [esi+16], eax
  000ce	8b 43 14	 mov	 eax, DWORD PTR [ebx+20]
  000d1	89 46 14	 mov	 DWORD PTR [esi+20], eax
  000d4	8b 43 18	 mov	 eax, DWORD PTR [ebx+24]
  000d7	89 46 18	 mov	 DWORD PTR [esi+24], eax
  000da	8b 43 1c	 mov	 eax, DWORD PTR [ebx+28]
  000dd	89 46 1c	 mov	 DWORD PTR [esi+28], eax
  000e0	8b 43 20	 mov	 eax, DWORD PTR [ebx+32]
  000e3	89 46 20	 mov	 DWORD PTR [esi+32], eax
  000e6	8b 43 24	 mov	 eax, DWORD PTR [ebx+36]
  000e9	8b 4b 28	 mov	 ecx, DWORD PTR [ebx+40]
  000ec	89 46 24	 mov	 DWORD PTR [esi+36], eax
  000ef	8b c6		 mov	 eax, esi
  000f1	89 4e 28	 mov	 DWORD PTR [esi+40], ecx
  000f4	8b 4d f4	 mov	 ecx, DWORD PTR __$EHRec$[ebp]
  000f7	64 89 0d 00 00
	00 00		 mov	 DWORD PTR fs:0, ecx
  000fe	59		 pop	 ecx
  000ff	5f		 pop	 edi
  00100	5e		 pop	 esi
  00101	5b		 pop	 ebx
  00102	8b e5		 mov	 esp, ebp
  00104	5d		 pop	 ebp
  00105	c2 04 00	 ret	 4
$LN74@CGuildComb:

; 2052 :             _Xlength();

  00108	e8 00 00 00 00	 call	 ?_Xlength@?$vector@U__GC1TO1TENDER@CGuildCombat1to1Mng@@V?$allocator@U__GC1TO1TENDER@CGuildCombat1to1Mng@@@std@@@std@@CAXXZ ; std::vector<CGuildCombat1to1Mng::__GC1TO1TENDER,std::allocator<CGuildCombat1to1Mng::__GC1TO1TENDER> >::_Xlength
$LN72@CGuildComb:
  0010d	cc		 int	 3
_TEXT	ENDS
;	COMDAT text$x
text$x	SEGMENT
__unwindfunclet$??0CGuildCombat1to1@@QAE@ABV0@@Z$1:
  00000	8d 4d e4	 lea	 ecx, DWORD PTR __Guard$3[ebp]
  00003	e9 00 00 00 00	 jmp	 ??1?$_Tidy_guard@V?$vector@U__GC1TO1TENDER@CGuildCombat1to1Mng@@V?$allocator@U__GC1TO1TENDER@CGuildCombat1to1Mng@@@std@@@std@@@std@@QAE@XZ ; std::_Tidy_guard<std::vector<CGuildCombat1to1Mng::__GC1TO1TENDER,std::allocator<CGuildCombat1to1Mng::__GC1TO1TENDER> > >::~_Tidy_guard<std::vector<CGuildCombat1to1Mng::__GC1TO1TENDER,std::allocator<CGuildCombat1to1Mng::__GC1TO1TENDER> > >
__unwindfunclet$??0CGuildCombat1to1@@QAE@ABV0@@Z$2:
  00008	8d 4d d8	 lea	 ecx, DWORD PTR __Backout$2[ebp]
  0000b	e9 00 00 00 00	 jmp	 ??1?$_Uninitialized_backout_al@V?$allocator@U__GC1TO1TENDER@CGuildCombat1to1Mng@@@std@@@std@@QAE@XZ ; std::_Uninitialized_backout_al<std::allocator<CGuildCombat1to1Mng::__GC1TO1TENDER> >::~_Uninitialized_backout_al<std::allocator<CGuildCombat1to1Mng::__GC1TO1TENDER> >
  00010	cc		 int	 3
  00011	cc		 int	 3
  00012	cc		 int	 3
  00013	cc		 int	 3
  00014	cc		 int	 3
__ehhandler$??0CGuildCombat1to1@@QAE@ABV0@@Z:
  00015	90		 npad	 1
  00016	90		 npad	 1
  00017	8b 54 24 08	 mov	 edx, DWORD PTR [esp+8]
  0001b	8d 42 0c	 lea	 eax, DWORD PTR [edx+12]
  0001e	8b 4a d4	 mov	 ecx, DWORD PTR [edx-44]
  00021	33 c8		 xor	 ecx, eax
  00023	e8 00 00 00 00	 call	 @__security_check_cookie@4
  00028	b8 00 00 00 00	 mov	 eax, OFFSET __ehfuncinfo$??0CGuildCombat1to1@@QAE@ABV0@@Z
  0002d	e9 00 00 00 00	 jmp	 ___CxxFrameHandler3
text$x	ENDS
??0CGuildCombat1to1@@QAE@ABV0@@Z ENDP			; CGuildCombat1to1::CGuildCombat1to1
; Function compile flags: /Ogtp
; File C:\IAGOS\server\v18\Source\Source\_Common\GuildCombat1to1.cpp
; File C:\Program Files\Microsoft Visual Studio\2022\Professional\VC\Tools\MSVC\14.44.35207\include\vector
; File C:\IAGOS\server\v18\Source\Source\_Common\GuildCombat1to1.cpp
; File C:\Program Files\Microsoft Visual Studio\2022\Professional\VC\Tools\MSVC\14.44.35207\include\vector
; File C:\IAGOS\server\v18\Source\Source\_Common\GuildCombat1to1.cpp
; File C:\Program Files\Microsoft Visual Studio\2022\Professional\VC\Tools\MSVC\14.44.35207\include\vector
; File C:\IAGOS\server\v18\Source\Source\_Common\GuildCombat1to1.cpp
; File C:\Program Files\Microsoft Visual Studio\2022\Professional\VC\Tools\MSVC\14.44.35207\include\vector
; File C:\IAGOS\server\v18\Source\Source\_Common\GuildCombat1to1.cpp
; File C:\Program Files\Microsoft Visual Studio\2022\Professional\VC\Tools\MSVC\14.44.35207\include\xtree
; File C:\Program Files\Microsoft Visual Studio\2022\Professional\VC\Tools\MSVC\14.44.35207\include\type_traits
; File C:\Program Files\Microsoft Visual Studio\2022\Professional\VC\Tools\MSVC\14.44.35207\include\xtree
; File C:\Program Files\Microsoft Visual Studio\2022\Professional\VC\Tools\MSVC\14.44.35207\include\type_traits
; File C:\Program Files\Microsoft Visual Studio\2022\Professional\VC\Tools\MSVC\14.44.35207\include\xtree
; File C:\IAGOS\server\v18\Source\Source\_Common\Project.h
; File C:\IAGOS\server\v18\Source\Source\_Common\GuildCombat1to1.cpp
; File C:\IAGOS\server\v18\Source\Source\_Common\Project.h
; File C:\IAGOS\server\v18\Source\Source\_Common\GuildCombat1to1.cpp
; File C:\Program Files\Microsoft Visual Studio\2022\Professional\VC\Tools\MSVC\14.44.35207\include\vector
; File C:\IAGOS\server\v18\Source\Source\_Common\GuildCombat1to1.cpp
; File C:\Program Files\Microsoft Visual Studio\2022\Professional\VC\Tools\MSVC\14.44.35207\include\vector
; File C:\IAGOS\server\v18\Source\Source\_Common\GuildCombat1to1.cpp
; File C:\Program Files\Microsoft Visual Studio\2022\Professional\VC\Tools\MSVC\14.44.35207\include\xtree
; File C:\IAGOS\server\v18\Source\Source\_Common\GuildCombat1to1.cpp
; File C:\Program Files\Microsoft Visual Studio\2022\Professional\VC\Tools\MSVC\14.44.35207\include\xtree
; File C:\Program Files\Microsoft Visual Studio\2022\Professional\VC\Tools\MSVC\14.44.35207\include\type_traits
; File C:\Program Files\Microsoft Visual Studio\2022\Professional\VC\Tools\MSVC\14.44.35207\include\xtree
; File C:\Program Files\Microsoft Visual Studio\2022\Professional\VC\Tools\MSVC\14.44.35207\include\type_traits
; File C:\Program Files\Microsoft Visual Studio\2022\Professional\VC\Tools\MSVC\14.44.35207\include\xtree
; File C:\IAGOS\server\v18\Source\Source\_Common\Project.h
; File C:\IAGOS\server\v18\Source\Source\_Common\GuildCombat1to1.cpp
;	COMDAT ?SetTeleportToWaitStageNowPlayers@CGuildCombat1to1@@QAEXXZ
_TEXT	SEGMENT
_this$1$ = -8						; size = 4
$T3 = -4						; size = 4
?SetTeleportToWaitStageNowPlayers@CGuildCombat1to1@@QAEXXZ PROC ; CGuildCombat1to1::SetTeleportToWaitStageNowPlayers, COMDAT
; _this$ = ecx

; 617  : {

  00000	55		 push	 ebp
  00001	8b ec		 mov	 ebp, esp
  00003	83 ec 08	 sub	 esp, 8
; File C:\Program Files\Microsoft Visual Studio\2022\Professional\VC\Tools\MSVC\14.44.35207\include\vector

; 1934 :         return _My_data._Myfirst[_Pos];

  00006	6b 41 24 2c	 imul	 eax, DWORD PTR [ecx+36], 44

; 1914 :         auto& _My_data = _Mypair._Myval2;

  0000a	8b 51 04	 mov	 edx, DWORD PTR [ecx+4]
; File C:\IAGOS\server\v18\Source\Source\_Common\GuildCombat1to1.cpp

; 617  : {

  0000d	53		 push	 ebx
  0000e	56		 push	 esi

; 621  : 	if( (int)( m_vecTenderGuild[m_nIndex[0]].vecMemberId.size() ) > m_nProgWarCount	)

  0000f	8b 71 1c	 mov	 esi, DWORD PTR [ecx+28]
  00012	33 db		 xor	 ebx, ebx
  00014	c1 e6 02	 shl	 esi, 2
  00017	89 75 fc	 mov	 DWORD PTR $T3[ebp], esi
; File C:\Program Files\Microsoft Visual Studio\2022\Professional\VC\Tools\MSVC\14.44.35207\include\vector

; 1915 :         return static_cast<size_type>(_My_data._Mylast - _My_data._Myfirst);

  0001a	8b 71 04	 mov	 esi, DWORD PTR [ecx+4]
  0001d	8b 54 10 20	 mov	 edx, DWORD PTR [eax+edx+32]
; File C:\IAGOS\server\v18\Source\Source\_Common\GuildCombat1to1.cpp

; 617  : {

  00021	57		 push	 edi

; 618  : 	CUser* pUser0 = NULL;

  00022	33 ff		 xor	 edi, edi
  00024	89 4d f8	 mov	 DWORD PTR _this$1$[ebp], ecx
; File C:\Program Files\Microsoft Visual Studio\2022\Professional\VC\Tools\MSVC\14.44.35207\include\vector

; 1915 :         return static_cast<size_type>(_My_data._Mylast - _My_data._Myfirst);

  00027	8b 44 30 24	 mov	 eax, DWORD PTR [eax+esi+36]
; File C:\IAGOS\server\v18\Source\Source\_Common\GuildCombat1to1.cpp

; 621  : 	if( (int)( m_vecTenderGuild[m_nIndex[0]].vecMemberId.size() ) > m_nProgWarCount	)

  0002b	8b 35 28 00 00
	00		 mov	 esi, DWORD PTR ?prj@@3VCProject@@A+40
; File C:\Program Files\Microsoft Visual Studio\2022\Professional\VC\Tools\MSVC\14.44.35207\include\vector

; 1915 :         return static_cast<size_type>(_My_data._Mylast - _My_data._Myfirst);

  00031	2b c2		 sub	 eax, edx
  00033	c1 f8 02	 sar	 eax, 2
; File C:\IAGOS\server\v18\Source\Source\_Common\GuildCombat1to1.cpp

; 621  : 	if( (int)( m_vecTenderGuild[m_nIndex[0]].vecMemberId.size() ) > m_nProgWarCount	)

  00036	3b 41 1c	 cmp	 eax, DWORD PTR [ecx+28]
  00039	8b 45 fc	 mov	 eax, DWORD PTR $T3[ebp]
  0003c	7e 44		 jle	 SHORT $LN159@SetTelepor

; 622  : 		pUser0 = (CUser*)prj.GetUserByID( m_vecTenderGuild[m_nIndex[0]].vecMemberId[m_nProgWarCount] );

  0003e	8b 14 02	 mov	 edx, DWORD PTR [edx+eax]
; File C:\Program Files\Microsoft Visual Studio\2022\Professional\VC\Tools\MSVC\14.44.35207\include\xtree

; 1630 :         _Tree_find_result<_Nodeptr> _Result{{_Scary->_Myhead->_Parent, _Tree_child::_Right}, _Scary->_Myhead};

  00041	8b ce		 mov	 ecx, esi
  00043	8b 46 04	 mov	 eax, DWORD PTR [esi+4]

; 1631 :         _Nodeptr _Trynode = _Result._Location._Parent;
; 1632 :         while (!_Trynode->_Isnil) {

  00046	38 58 0d	 cmp	 BYTE PTR [eax+13], bl
  00049	75 18		 jne	 SHORT $LN29@SetTelepor
  0004b	0f 1f 44 00 00	 npad	 5
$LL28@SetTelepor:
; File C:\Program Files\Microsoft Visual Studio\2022\Professional\VC\Tools\MSVC\14.44.35207\include\type_traits

; 2380 :         return _Left < _Right;

  00050	39 50 10	 cmp	 DWORD PTR [eax+16], edx
; File C:\Program Files\Microsoft Visual Studio\2022\Professional\VC\Tools\MSVC\14.44.35207\include\xtree

; 1634 :             if (_DEBUG_LT_PRED(_Getcomp(), _Traits::_Kfn(_Trynode->_Myval), _Keyval)) {

  00053	73 05		 jae	 SHORT $LN30@SetTelepor

; 1635 :                 _Result._Location._Child = _Tree_child::_Right;
; 1636 :                 _Trynode                 = _Trynode->_Right;

  00055	8b 40 08	 mov	 eax, DWORD PTR [eax+8]

; 1637 :             } else {

  00058	eb 04		 jmp	 SHORT $LN31@SetTelepor
$LN30@SetTelepor:

; 1638 :                 _Result._Location._Child = _Tree_child::_Left;
; 1639 :                 _Result._Bound           = _Trynode;

  0005a	8b c8		 mov	 ecx, eax

; 1640 :                 _Trynode                 = _Trynode->_Left;

  0005c	8b 00		 mov	 eax, DWORD PTR [eax]
$LN31@SetTelepor:

; 1631 :         _Nodeptr _Trynode = _Result._Location._Parent;
; 1632 :         while (!_Trynode->_Isnil) {

  0005e	38 58 0d	 cmp	 BYTE PTR [eax+13], bl
  00061	74 ed		 je	 SHORT $LL28@SetTelepor
$LN29@SetTelepor:

; 1624 :         return !_Bound->_Isnil && !_DEBUG_LT_PRED(_Getcomp(), _Keyval, _Traits::_Kfn(_Bound->_Myval));

  00063	38 59 0d	 cmp	 BYTE PTR [ecx+13], bl
  00066	75 05		 jne	 SHORT $LN25@SetTelepor
; File C:\Program Files\Microsoft Visual Studio\2022\Professional\VC\Tools\MSVC\14.44.35207\include\type_traits

; 2380 :         return _Left < _Right;

  00068	3b 51 10	 cmp	 edx, DWORD PTR [ecx+16]
; File C:\Program Files\Microsoft Visual Studio\2022\Professional\VC\Tools\MSVC\14.44.35207\include\xtree

; 1624 :         return !_Bound->_Isnil && !_DEBUG_LT_PRED(_Getcomp(), _Keyval, _Traits::_Kfn(_Bound->_Myval));

  0006b	73 02		 jae	 SHORT $LN24@SetTelepor
$LN25@SetTelepor:

; 1389 :         return _Get_scary()->_Myhead;

  0006d	8b ce		 mov	 ecx, esi
$LN24@SetTelepor:

; 37   :     _Tree_unchecked_const_iterator(_Nodeptr _Pnode, const _Mytree* _Plist) noexcept : _Ptr(_Pnode) {

  0006f	3b ce		 cmp	 ecx, esi
; File C:\IAGOS\server\v18\Source\Source\_Common\Project.h

; 1436 : 	if( i != m_idPlayerToUserPtr.end() )

  00071	74 08		 je	 SHORT $LN20@SetTelepor

; 1437 : 		return i->second;

  00073	8b 79 14	 mov	 edi, DWORD PTR [ecx+20]
; File C:\IAGOS\server\v18\Source\Source\_Common\GuildCombat1to1.cpp

; 622  : 		pUser0 = (CUser*)prj.GetUserByID( m_vecTenderGuild[m_nIndex[0]].vecMemberId[m_nProgWarCount] );

  00076	8b 4d f8	 mov	 ecx, DWORD PTR _this$1$[ebp]
  00079	eb 0a		 jmp	 SHORT $LN2@SetTelepor
$LN20@SetTelepor:
  0007b	8b 4d f8	 mov	 ecx, DWORD PTR _this$1$[ebp]
; File C:\IAGOS\server\v18\Source\Source\_Common\Project.h

; 1438 : 	return NULL;

  0007e	33 ff		 xor	 edi, edi
; File C:\IAGOS\server\v18\Source\Source\_Common\GuildCombat1to1.cpp

; 622  : 		pUser0 = (CUser*)prj.GetUserByID( m_vecTenderGuild[m_nIndex[0]].vecMemberId[m_nProgWarCount] );

  00080	eb 03		 jmp	 SHORT $LN2@SetTelepor
$LN159@SetTelepor:
  00082	89 45 fc	 mov	 DWORD PTR $T3[ebp], eax
$LN2@SetTelepor:
; File C:\Program Files\Microsoft Visual Studio\2022\Professional\VC\Tools\MSVC\14.44.35207\include\vector

; 1934 :         return _My_data._Myfirst[_Pos];

  00085	6b 41 28 2c	 imul	 eax, DWORD PTR [ecx+40], 44

; 1915 :         return static_cast<size_type>(_My_data._Mylast - _My_data._Myfirst);

  00089	8b 51 04	 mov	 edx, DWORD PTR [ecx+4]
  0008c	8b 71 04	 mov	 esi, DWORD PTR [ecx+4]
  0008f	8b 54 10 20	 mov	 edx, DWORD PTR [eax+edx+32]
  00093	8b 44 30 24	 mov	 eax, DWORD PTR [eax+esi+36]
; File C:\IAGOS\server\v18\Source\Source\_Common\GuildCombat1to1.cpp

; 623  : 	if( (int)( m_vecTenderGuild[m_nIndex[1]].vecMemberId.size() ) > m_nProgWarCount	)

  00097	8b 35 28 00 00
	00		 mov	 esi, DWORD PTR ?prj@@3VCProject@@A+40
; File C:\Program Files\Microsoft Visual Studio\2022\Professional\VC\Tools\MSVC\14.44.35207\include\vector

; 1915 :         return static_cast<size_type>(_My_data._Mylast - _My_data._Myfirst);

  0009d	2b c2		 sub	 eax, edx
  0009f	c1 f8 02	 sar	 eax, 2
; File C:\IAGOS\server\v18\Source\Source\_Common\GuildCombat1to1.cpp

; 623  : 	if( (int)( m_vecTenderGuild[m_nIndex[1]].vecMemberId.size() ) > m_nProgWarCount	)

  000a2	3b 41 1c	 cmp	 eax, DWORD PTR [ecx+28]
  000a5	7e 3d		 jle	 SHORT $LN3@SetTelepor

; 624  : 		pUser1 = (CUser*)prj.GetUserByID( m_vecTenderGuild[m_nIndex[1]].vecMemberId[m_nProgWarCount] );

  000a7	8b 45 fc	 mov	 eax, DWORD PTR $T3[ebp]
; File C:\Program Files\Microsoft Visual Studio\2022\Professional\VC\Tools\MSVC\14.44.35207\include\xtree

; 1630 :         _Tree_find_result<_Nodeptr> _Result{{_Scary->_Myhead->_Parent, _Tree_child::_Right}, _Scary->_Myhead};

  000aa	8b ce		 mov	 ecx, esi
; File C:\IAGOS\server\v18\Source\Source\_Common\GuildCombat1to1.cpp

; 624  : 		pUser1 = (CUser*)prj.GetUserByID( m_vecTenderGuild[m_nIndex[1]].vecMemberId[m_nProgWarCount] );

  000ac	8b 14 02	 mov	 edx, DWORD PTR [edx+eax]
; File C:\Program Files\Microsoft Visual Studio\2022\Professional\VC\Tools\MSVC\14.44.35207\include\xtree

; 1630 :         _Tree_find_result<_Nodeptr> _Result{{_Scary->_Myhead->_Parent, _Tree_child::_Right}, _Scary->_Myhead};

  000af	8b 46 04	 mov	 eax, DWORD PTR [esi+4]

; 1631 :         _Nodeptr _Trynode = _Result._Location._Parent;
; 1632 :         while (!_Trynode->_Isnil) {

  000b2	38 58 0d	 cmp	 BYTE PTR [eax+13], bl
  000b5	75 13		 jne	 SHORT $LN101@SetTelepor
$LL100@SetTelepor:
; File C:\Program Files\Microsoft Visual Studio\2022\Professional\VC\Tools\MSVC\14.44.35207\include\type_traits

; 2380 :         return _Left < _Right;

  000b7	39 50 10	 cmp	 DWORD PTR [eax+16], edx
; File C:\Program Files\Microsoft Visual Studio\2022\Professional\VC\Tools\MSVC\14.44.35207\include\xtree

; 1634 :             if (_DEBUG_LT_PRED(_Getcomp(), _Traits::_Kfn(_Trynode->_Myval), _Keyval)) {

  000ba	73 05		 jae	 SHORT $LN102@SetTelepor

; 1635 :                 _Result._Location._Child = _Tree_child::_Right;
; 1636 :                 _Trynode                 = _Trynode->_Right;

  000bc	8b 40 08	 mov	 eax, DWORD PTR [eax+8]

; 1637 :             } else {

  000bf	eb 04		 jmp	 SHORT $LN103@SetTelepor
$LN102@SetTelepor:

; 1638 :                 _Result._Location._Child = _Tree_child::_Left;
; 1639 :                 _Result._Bound           = _Trynode;

  000c1	8b c8		 mov	 ecx, eax

; 1640 :                 _Trynode                 = _Trynode->_Left;

  000c3	8b 00		 mov	 eax, DWORD PTR [eax]
$LN103@SetTelepor:

; 1631 :         _Nodeptr _Trynode = _Result._Location._Parent;
; 1632 :         while (!_Trynode->_Isnil) {

  000c5	38 58 0d	 cmp	 BYTE PTR [eax+13], bl
  000c8	74 ed		 je	 SHORT $LL100@SetTelepor
$LN101@SetTelepor:

; 1624 :         return !_Bound->_Isnil && !_DEBUG_LT_PRED(_Getcomp(), _Keyval, _Traits::_Kfn(_Bound->_Myval));

  000ca	38 59 0d	 cmp	 BYTE PTR [ecx+13], bl
  000cd	75 05		 jne	 SHORT $LN97@SetTelepor
; File C:\Program Files\Microsoft Visual Studio\2022\Professional\VC\Tools\MSVC\14.44.35207\include\type_traits

; 2380 :         return _Left < _Right;

  000cf	3b 51 10	 cmp	 edx, DWORD PTR [ecx+16]
; File C:\Program Files\Microsoft Visual Studio\2022\Professional\VC\Tools\MSVC\14.44.35207\include\xtree

; 1624 :         return !_Bound->_Isnil && !_DEBUG_LT_PRED(_Getcomp(), _Keyval, _Traits::_Kfn(_Bound->_Myval));

  000d2	73 02		 jae	 SHORT $LN96@SetTelepor
$LN97@SetTelepor:

; 1389 :         return _Get_scary()->_Myhead;

  000d4	8b ce		 mov	 ecx, esi
$LN96@SetTelepor:

; 37   :     _Tree_unchecked_const_iterator(_Nodeptr _Pnode, const _Mytree* _Plist) noexcept : _Ptr(_Pnode) {

  000d6	3b ce		 cmp	 ecx, esi
; File C:\IAGOS\server\v18\Source\Source\_Common\Project.h

; 1436 : 	if( i != m_idPlayerToUserPtr.end() )

  000d8	74 05		 je	 SHORT $LN92@SetTelepor

; 1437 : 		return i->second;

  000da	8b 59 14	 mov	 ebx, DWORD PTR [ecx+20]
  000dd	eb 02		 jmp	 SHORT $LN91@SetTelepor
$LN92@SetTelepor:

; 1438 : 	return NULL;

  000df	33 db		 xor	 ebx, ebx
$LN91@SetTelepor:
  000e1	8b 4d f8	 mov	 ecx, DWORD PTR _this$1$[ebp]
$LN3@SetTelepor:
; File C:\IAGOS\server\v18\Source\Source\_Common\GuildCombat1to1.cpp

; 626  : 	if( IsPossibleUser( pUser0 ) )

  000e4	57		 push	 edi
  000e5	e8 00 00 00 00	 call	 ?IsPossibleUser@CGuildCombat1to1@@QAEHPAVCUser@@@Z ; CGuildCombat1to1::IsPossibleUser
  000ea	8b 75 f8	 mov	 esi, DWORD PTR _this$1$[ebp]
  000ed	85 c0		 test	 eax, eax
  000ef	74 08		 je	 SHORT $LN4@SetTelepor

; 627  : 		SetTeleportToWaitStage( pUser0 );

  000f1	57		 push	 edi
  000f2	8b ce		 mov	 ecx, esi
  000f4	e8 00 00 00 00	 call	 ?SetTeleportToWaitStage@CGuildCombat1to1@@QAEXPAVCUser@@@Z ; CGuildCombat1to1::SetTeleportToWaitStage
$LN4@SetTelepor:

; 628  : 	if( IsPossibleUser( pUser1 ) )

  000f9	53		 push	 ebx
  000fa	8b ce		 mov	 ecx, esi
  000fc	e8 00 00 00 00	 call	 ?IsPossibleUser@CGuildCombat1to1@@QAEHPAVCUser@@@Z ; CGuildCombat1to1::IsPossibleUser
  00101	85 c0		 test	 eax, eax
  00103	74 08		 je	 SHORT $LN5@SetTelepor

; 629  : 		SetTeleportToWaitStage( pUser1 );

  00105	53		 push	 ebx
  00106	8b ce		 mov	 ecx, esi
  00108	e8 00 00 00 00	 call	 ?SetTeleportToWaitStage@CGuildCombat1to1@@QAEXPAVCUser@@@Z ; CGuildCombat1to1::SetTeleportToWaitStage
$LN5@SetTelepor:

; 630  : }

  0010d	5f		 pop	 edi
  0010e	5e		 pop	 esi
  0010f	5b		 pop	 ebx
  00110	8b e5		 mov	 esp, ebp
  00112	5d		 pop	 ebp
  00113	c3		 ret	 0
?SetTeleportToWaitStageNowPlayers@CGuildCombat1to1@@QAEXXZ ENDP ; CGuildCombat1to1::SetTeleportToWaitStageNowPlayers
_TEXT	ENDS
; Function compile flags: /Ogtp
; File C:\IAGOS\server\v18\Source\Source\_Common\GuildCombat1to1.cpp
; File C:\Program Files\Microsoft Visual Studio\2022\Professional\VC\Tools\MSVC\14.44.35207\include\vector
; File C:\IAGOS\server\v18\Source\Source\_Common\GuildCombat1to1.cpp
; File C:\IAGOS\server\v18\Source\Source\DX_SDK\d3dx9math.inl
; File C:\IAGOS\server\v18\Source\Source\_Common\GuildCombat1to1.cpp
; File C:\IAGOS\server\v18\Source\Source\DX_SDK\d3dx9math.inl
; File C:\IAGOS\server\v18\Source\Source\_Common\GuildCombat1to1.cpp
;	COMDAT ?SetTeleportToWarStage@CGuildCombat1to1@@QAEXPAVCUser@@@Z
_TEXT	SEGMENT
$T1 = -16						; size = 12
$T2 = -16						; size = 12
__$ArrayPad$ = -4					; size = 4
_pUser$ = 8						; size = 4
?SetTeleportToWarStage@CGuildCombat1to1@@QAEXPAVCUser@@@Z PROC ; CGuildCombat1to1::SetTeleportToWarStage, COMDAT
; _this$ = ecx

; 660  : {

  00000	55		 push	 ebp
  00001	8b ec		 mov	 ebp, esp
  00003	83 ec 10	 sub	 esp, 16			; 00000010H
  00006	a1 00 00 00 00	 mov	 eax, DWORD PTR ___security_cookie
  0000b	33 c5		 xor	 eax, ebp
  0000d	89 45 fc	 mov	 DWORD PTR __$ArrayPad$[ebp], eax
  00010	53		 push	 ebx
  00011	56		 push	 esi
  00012	57		 push	 edi
  00013	8b 7d 08	 mov	 edi, DWORD PTR _pUser$[ebp]
  00016	8b d9		 mov	 ebx, ecx

; 661  : 	int nIndex = g_GuildCombat1to1Mng.GetTenderGuildIndexByUser( pUser );

  00018	57		 push	 edi
  00019	b9 00 00 00 00	 mov	 ecx, OFFSET ?g_GuildCombat1to1Mng@@3VCGuildCombat1to1Mng@@A ; g_GuildCombat1to1Mng
  0001e	e8 00 00 00 00	 call	 ?GetTenderGuildIndexByUser@CGuildCombat1to1Mng@@QAEHPAVCUser@@@Z ; CGuildCombat1to1Mng::GetTenderGuildIndexByUser

; 662  : 
; 663  : 	pUser->m_nGuildCombatState = 1; // ±ćµĺ´ëŔü ¸đµĺ
; 664  : 	g_UserMng.AddGuildCombatUserState( pUser );

  00023	57		 push	 edi
  00024	b9 00 00 00 00	 mov	 ecx, OFFSET ?g_UserMng@@3VCUserMng@@A ; g_UserMng
  00029	c7 87 b0 0d 00
	00 01 00 00 00	 mov	 DWORD PTR [edi+3504], 1
  00033	8b f0		 mov	 esi, eax
  00035	e8 00 00 00 00	 call	 ?AddGuildCombatUserState@CUserMng@@QAEXPAVCMover@@@Z ; CUserMng::AddGuildCombatUserState

; 665  : 	if( m_vecTenderGuild[nIndex].nPosition == 0 )

  0003a	8b 43 04	 mov	 eax, DWORD PTR [ebx+4]
; File C:\Program Files\Microsoft Visual Studio\2022\Professional\VC\Tools\MSVC\14.44.35207\include\vector

; 1934 :         return _My_data._Myfirst[_Pos];

  0003d	6b f6 2c	 imul	 esi, esi, 44
; File C:\IAGOS\server\v18\Source\Source\_Common\GuildCombat1to1.cpp

; 665  : 	if( m_vecTenderGuild[nIndex].nPosition == 0 )

  00040	51		 push	 ecx
  00041	8b cf		 mov	 ecx, edi
  00043	83 7c 06 0c 00	 cmp	 DWORD PTR [esi+eax+12], 0
  00048	75 15		 jne	 SHORT $LN2@SetTelepor

; 666  : 	{
; 667  : 		pUser->SetAngle( 0 );

  0004a	c7 04 24 00 00
	00 00		 mov	 DWORD PTR [esp], 0
  00051	e8 00 00 00 00	 call	 ?SetAngle@CObj@@QAEXM@Z	; CObj::SetAngle
; File C:\IAGOS\server\v18\Source\Source\DX_SDK\d3dx9math.inl

; 302  :     z = fz;

  00056	c7 45 f8 00 00
	7c 43		 mov	 DWORD PTR $T1[ebp+8], 1132199936 ; 437c0000H
; File C:\IAGOS\server\v18\Source\Source\_Common\GuildCombat1to1.cpp

; 669  : 	}

  0005d	eb 13		 jmp	 SHORT $LN19@SetTelepor
$LN2@SetTelepor:

; 670  : 	else
; 671  : 	{
; 672  : 		pUser->SetAngle( 180 );

  0005f	c7 04 24 00 00
	34 43		 mov	 DWORD PTR [esp], 1127481344 ; 43340000H
  00066	e8 00 00 00 00	 call	 ?SetAngle@CObj@@QAEXM@Z	; CObj::SetAngle
; File C:\IAGOS\server\v18\Source\Source\DX_SDK\d3dx9math.inl

; 302  :     z = fz;

  0006b	c7 45 f8 00 00
	6b 43		 mov	 DWORD PTR $T2[ebp+8], 1131085824 ; 436b0000H
$LN19@SetTelepor:
; File C:\IAGOS\server\v18\Source\Source\_Common\GuildCombat1to1.cpp

; 675  : }

  00072	6a 00		 push	 0
  00074	6a 00		 push	 0
  00076	8d 45 f0	 lea	 eax, DWORD PTR $T2[ebp]
  00079	c7 45 f0 00 00
	82 43		 mov	 DWORD PTR $T2[ebp], 1132593152 ; 43820000H
  00080	50		 push	 eax
  00081	8b 43 04	 mov	 eax, DWORD PTR [ebx+4]
  00084	8b cf		 mov	 ecx, edi
  00086	c7 45 f4 00 00
	96 42		 mov	 DWORD PTR $T2[ebp+4], 1117126656 ; 42960000H
  0008d	ff 74 30 10	 push	 DWORD PTR [eax+esi+16]
  00091	ff 35 00 00 00
	00		 push	 DWORD PTR ?g_uIdofMulti@@3KA ; g_uIdofMulti
  00097	e8 00 00 00 00	 call	 ?Replace@CMover@@QAEHKKAAUD3DXVECTOR3@@W4REPLACE_TYPE@@H@Z ; CMover::Replace
  0009c	8b 4d fc	 mov	 ecx, DWORD PTR __$ArrayPad$[ebp]
  0009f	5f		 pop	 edi
  000a0	5e		 pop	 esi
  000a1	33 cd		 xor	 ecx, ebp
  000a3	5b		 pop	 ebx
  000a4	e8 00 00 00 00	 call	 @__security_check_cookie@4
  000a9	8b e5		 mov	 esp, ebp
  000ab	5d		 pop	 ebp
  000ac	c2 04 00	 ret	 4
?SetTeleportToWarStage@CGuildCombat1to1@@QAEXPAVCUser@@@Z ENDP ; CGuildCombat1to1::SetTeleportToWarStage
_TEXT	ENDS
; Function compile flags: /Ogtp
; File C:\IAGOS\server\v18\Source\Source\_Common\GuildCombat1to1.cpp
; File C:\Program Files\Microsoft Visual Studio\2022\Professional\VC\Tools\MSVC\14.44.35207\include\vector
; File C:\IAGOS\server\v18\Source\Source\_Common\GuildCombat1to1.cpp
; File C:\IAGOS\server\v18\Source\Source\_Common\xUtil.h
; File C:\IAGOS\server\v18\Source\Source\_Common\GuildCombat1to1.cpp
; File C:\IAGOS\server\v18\Source\Source\_Common\xUtil.h
; File C:\IAGOS\server\v18\Source\Source\_Common\GuildCombat1to1.cpp
; File C:\IAGOS\server\v18\Source\Source\_Common\xUtil.h
; File C:\IAGOS\server\v18\Source\Source\_Common\GuildCombat1to1.cpp
; File C:\IAGOS\server\v18\Source\Source\_Common\xUtil.h
; File C:\IAGOS\server\v18\Source\Source\_Common\GuildCombat1to1.cpp
; File C:\IAGOS\server\v18\Source\Source\DX_SDK\d3dx9math.inl
; File C:\IAGOS\server\v18\Source\Source\_Common\GuildCombat1to1.cpp
; File C:\IAGOS\server\v18\Source\Source\DX_SDK\d3dx9math.inl
; File C:\IAGOS\server\v18\Source\Source\_Common\GuildCombat1to1.cpp
;	COMDAT ?SetTeleportToWaitStage@CGuildCombat1to1@@QAEXPAVCUser@@@Z
_TEXT	SEGMENT
tv398 = -24						; size = 4
_this$GSCopy$1$ = -20					; size = 4
$T1 = -16						; size = 12
__$ArrayPad$ = -4					; size = 4
_pUser$ = 8						; size = 4
?SetTeleportToWaitStage@CGuildCombat1to1@@QAEXPAVCUser@@@Z PROC ; CGuildCombat1to1::SetTeleportToWaitStage, COMDAT
; _this$ = ecx

; 634  : {

  00000	55		 push	 ebp
  00001	8b ec		 mov	 ebp, esp
  00003	83 ec 18	 sub	 esp, 24			; 00000018H
  00006	a1 00 00 00 00	 mov	 eax, DWORD PTR ___security_cookie
  0000b	33 c5		 xor	 eax, ebp
  0000d	89 45 fc	 mov	 DWORD PTR __$ArrayPad$[ebp], eax
  00010	53		 push	 ebx
  00011	56		 push	 esi
  00012	8b 75 08	 mov	 esi, DWORD PTR _pUser$[ebp]
  00015	8b d9		 mov	 ebx, ecx

; 635  : 	int nIndex = g_GuildCombat1to1Mng.GetTenderGuildIndexByUser( pUser );

  00017	56		 push	 esi
  00018	b9 00 00 00 00	 mov	 ecx, OFFSET ?g_GuildCombat1to1Mng@@3VCGuildCombat1to1Mng@@A ; g_GuildCombat1to1Mng
  0001d	89 5d ec	 mov	 DWORD PTR _this$GSCopy$1$[ebp], ebx
  00020	e8 00 00 00 00	 call	 ?GetTenderGuildIndexByUser@CGuildCombat1to1Mng@@QAEHPAVCUser@@@Z ; CGuildCombat1to1Mng::GetTenderGuildIndexByUser
; File C:\Program Files\Microsoft Visual Studio\2022\Professional\VC\Tools\MSVC\14.44.35207\include\vector

; 1934 :         return _My_data._Myfirst[_Pos];

  00025	6b c8 2c	 imul	 ecx, eax, 44
  00028	8b 43 04	 mov	 eax, DWORD PTR [ebx+4]
  0002b	89 4d e8	 mov	 DWORD PTR tv398[ebp], ecx
; File C:\IAGOS\server\v18\Source\Source\_Common\GuildCombat1to1.cpp

; 636  : 	if( !g_WorldMng.GetWorld( m_vecTenderGuild[nIndex].dwWorldId ) )

  0002e	ff 74 08 10	 push	 DWORD PTR [eax+ecx+16]
  00032	b9 00 00 00 00	 mov	 ecx, OFFSET ?g_WorldMng@@3VCWorldMng@@A ; g_WorldMng
  00037	e8 00 00 00 00	 call	 ?GetWorld@CWorldMng@@QAEPAVCWorld@@K@Z ; CWorldMng::GetWorld
  0003c	85 c0		 test	 eax, eax
  0003e	75 1e		 jne	 SHORT $LN2@SetTelepor

; 637  : 	{
; 638  : 		pUser->AddText( "Not Exist World" );

  00040	68 00 00 00 00	 push	 OFFSET ??_C@_0BA@CPGKGMAH@Not?5Exist?5World@
  00045	8b ce		 mov	 ecx, esi
  00047	e8 00 00 00 00	 call	 ?AddText@CUser@@QAEXPBD@Z ; CUser::AddText
  0004c	5e		 pop	 esi

; 655  : 	}
; 656  : }

  0004d	5b		 pop	 ebx
  0004e	8b 4d fc	 mov	 ecx, DWORD PTR __$ArrayPad$[ebp]
  00051	33 cd		 xor	 ecx, ebp
  00053	e8 00 00 00 00	 call	 @__security_check_cookie@4
  00058	8b e5		 mov	 esp, ebp
  0005a	5d		 pop	 ebp
  0005b	c2 04 00	 ret	 4
$LN2@SetTelepor:
  0005e	57		 push	 edi

; 639  : 		return;
; 640  : 	}
; 641  : 	pUser->m_nGuildCombatState = 2; // °üŔüŔÚ ¸đµĺ
; 642  : 	g_UserMng.AddGuildCombatUserState( pUser );

  0005f	56		 push	 esi
  00060	b9 00 00 00 00	 mov	 ecx, OFFSET ?g_UserMng@@3VCUserMng@@A ; g_UserMng
  00065	c7 86 b0 0d 00
	00 02 00 00 00	 mov	 DWORD PTR [esi+3504], 2
  0006f	e8 00 00 00 00	 call	 ?AddGuildCombatUserState@CUserMng@@QAEXPAVCMover@@@Z ; CUserMng::AddGuildCombatUserState
; File C:\IAGOS\server\v18\Source\Source\_Common\xUtil.h

; 16   : 	g_next = g_next * 1103515245 + 12345;// + nRandomSeed[ i++ ];

  00074	69 05 00 00 00
	00 6d 4e c6 41	 imul	 eax, DWORD PTR ?g_next@@3KA, 1103515245 ; g_next
; File C:\IAGOS\server\v18\Source\Source\_Common\GuildCombat1to1.cpp

; 646  : 	if( m_vecTenderGuild[nIndex].nPosition == 0 )

  0007e	8b 4d e8	 mov	 ecx, DWORD PTR tv398[ebp]
  00081	51		 push	 ecx
; File C:\IAGOS\server\v18\Source\Source\_Common\xUtil.h

; 16   : 	g_next = g_next * 1103515245 + 12345;// + nRandomSeed[ i++ ];

  00082	05 39 30 00 00	 add	 eax, 12345		; 00003039H
; File C:\IAGOS\server\v18\Source\Source\_Common\GuildCombat1to1.cpp

; 644  : 	int nRandx = xRandom(4) - 2;

  00087	69 f8 6d 4e c6
	41		 imul	 edi, eax, 1103515245
; File C:\IAGOS\server\v18\Source\Source\_Common\xUtil.h

; 16   : 	g_next = g_next * 1103515245 + 12345;// + nRandomSeed[ i++ ];

  0008d	8b d8		 mov	 ebx, eax
; File C:\IAGOS\server\v18\Source\Source\_Common\GuildCombat1to1.cpp

; 646  : 	if( m_vecTenderGuild[nIndex].nPosition == 0 )

  0008f	8b 45 ec	 mov	 eax, DWORD PTR _this$GSCopy$1$[ebp]
; File C:\IAGOS\server\v18\Source\Source\_Common\xUtil.h

; 16   : 	g_next = g_next * 1103515245 + 12345;// + nRandomSeed[ i++ ];

  00092	83 e3 03	 and	 ebx, 3
  00095	81 c7 39 30 00
	00		 add	 edi, 12345		; 00003039H
  0009b	89 3d 00 00 00
	00		 mov	 DWORD PTR ?g_next@@3KA, edi ; g_next
  000a1	83 e7 03	 and	 edi, 3
; File C:\IAGOS\server\v18\Source\Source\_Common\GuildCombat1to1.cpp

; 646  : 	if( m_vecTenderGuild[nIndex].nPosition == 0 )

  000a4	8b 40 04	 mov	 eax, DWORD PTR [eax+4]
  000a7	83 7c 08 0c 00	 cmp	 DWORD PTR [eax+ecx+12], 0
  000ac	8b ce		 mov	 ecx, esi
  000ae	75 1e		 jne	 SHORT $LN3@SetTelepor

; 647  : 	{
; 648  : 		pUser->SetAngle( 0 );

  000b0	c7 04 24 00 00
	00 00		 mov	 DWORD PTR [esp], 0
  000b7	e8 00 00 00 00	 call	 ?SetAngle@CObj@@QAEXM@Z	; CObj::SetAngle

; 649  : 		pUser->REPLACE( g_uIdofMulti, m_vecTenderGuild[nIndex].dwWorldId, D3DXVECTOR3( (float)( 256+nRandx ), 90.0f, (float)( 277+nRandz ) ), REPLACE_NORMAL, nDefaultLayer );

  000bc	8d 83 fe 00 00
	00		 lea	 eax, DWORD PTR [ebx+254]
  000c2	66 0f 6e c0	 movd	 xmm0, eax
  000c6	8d 87 13 01 00
	00		 lea	 eax, DWORD PTR [edi+275]

; 650  : 	}

  000cc	eb 1c		 jmp	 SHORT $LN33@SetTelepor
$LN3@SetTelepor:

; 651  : 	else
; 652  : 	{
; 653  : 		pUser->SetAngle( 180 );

  000ce	c7 04 24 00 00
	34 43		 mov	 DWORD PTR [esp], 1127481344 ; 43340000H
  000d5	e8 00 00 00 00	 call	 ?SetAngle@CObj@@QAEXM@Z	; CObj::SetAngle

; 654  : 		pUser->REPLACE( g_uIdofMulti, m_vecTenderGuild[nIndex].dwWorldId, D3DXVECTOR3( (float)( 272+nRandx ), 90.0f, (float)( 212+nRandz ) ), REPLACE_NORMAL, nDefaultLayer );

  000da	8d 83 0e 01 00
	00		 lea	 eax, DWORD PTR [ebx+270]
  000e0	66 0f 6e c0	 movd	 xmm0, eax
  000e4	8d 87 d2 00 00
	00		 lea	 eax, DWORD PTR [edi+210]
$LN33@SetTelepor:
  000ea	8b 4d e8	 mov	 ecx, DWORD PTR tv398[ebp]
  000ed	0f 5b c0	 cvtdq2ps xmm0, xmm0
  000f0	6a 00		 push	 0
  000f2	6a 00		 push	 0
; File C:\IAGOS\server\v18\Source\Source\DX_SDK\d3dx9math.inl

; 301  :     y = fy;

  000f4	c7 45 f4 00 00
	b4 42		 mov	 DWORD PTR $T1[ebp+4], 1119092736 ; 42b40000H
  000fb	f3 0f 11 45 f0	 movss	 DWORD PTR $T1[ebp], xmm0
  00100	66 0f 6e c0	 movd	 xmm0, eax
; File C:\IAGOS\server\v18\Source\Source\_Common\GuildCombat1to1.cpp

; 654  : 		pUser->REPLACE( g_uIdofMulti, m_vecTenderGuild[nIndex].dwWorldId, D3DXVECTOR3( (float)( 272+nRandx ), 90.0f, (float)( 212+nRandz ) ), REPLACE_NORMAL, nDefaultLayer );

  00104	8d 45 f0	 lea	 eax, DWORD PTR $T1[ebp]
  00107	50		 push	 eax
  00108	8b 45 ec	 mov	 eax, DWORD PTR _this$GSCopy$1$[ebp]
  0010b	0f 5b c0	 cvtdq2ps xmm0, xmm0
  0010e	8b 40 04	 mov	 eax, DWORD PTR [eax+4]
; File C:\IAGOS\server\v18\Source\Source\DX_SDK\d3dx9math.inl

; 302  :     z = fz;

  00111	f3 0f 11 45 f8	 movss	 DWORD PTR $T1[ebp+8], xmm0
; File C:\IAGOS\server\v18\Source\Source\_Common\GuildCombat1to1.cpp

; 654  : 		pUser->REPLACE( g_uIdofMulti, m_vecTenderGuild[nIndex].dwWorldId, D3DXVECTOR3( (float)( 272+nRandx ), 90.0f, (float)( 212+nRandz ) ), REPLACE_NORMAL, nDefaultLayer );

  00116	ff 74 08 10	 push	 DWORD PTR [eax+ecx+16]
  0011a	8b ce		 mov	 ecx, esi
  0011c	ff 35 00 00 00
	00		 push	 DWORD PTR ?g_uIdofMulti@@3KA ; g_uIdofMulti
  00122	e8 00 00 00 00	 call	 ?Replace@CMover@@QAEHKKAAUD3DXVECTOR3@@W4REPLACE_TYPE@@H@Z ; CMover::Replace

; 655  : 	}
; 656  : }

  00127	8b 4d fc	 mov	 ecx, DWORD PTR __$ArrayPad$[ebp]
  0012a	5f		 pop	 edi
  0012b	5e		 pop	 esi
  0012c	33 cd		 xor	 ecx, ebp
  0012e	5b		 pop	 ebx
  0012f	e8 00 00 00 00	 call	 @__security_check_cookie@4
  00134	8b e5		 mov	 esp, ebp
  00136	5d		 pop	 ebp
  00137	c2 04 00	 ret	 4
?SetTeleportToWaitStage@CGuildCombat1to1@@QAEXPAVCUser@@@Z ENDP ; CGuildCombat1to1::SetTeleportToWaitStage
_TEXT	ENDS
; Function compile flags: /Ogtp
; File C:\IAGOS\server\v18\Source\Source\_Common\GuildCombat1to1.cpp
; File C:\Program Files\Microsoft Visual Studio\2022\Professional\VC\Tools\MSVC\14.44.35207\include\vector
; File C:\IAGOS\server\v18\Source\Source\_Common\GuildCombat1to1.cpp
; File C:\Program Files\Microsoft Visual Studio\2022\Professional\VC\Tools\MSVC\14.44.35207\include\vector
; File C:\IAGOS\server\v18\Source\Source\_Common\GuildCombat1to1.cpp
; File C:\Program Files\Microsoft Visual Studio\2022\Professional\VC\Tools\MSVC\14.44.35207\include\vector
; File C:\IAGOS\server\v18\Source\Source\_Common\GuildCombat1to1.cpp
; File C:\Program Files\Microsoft Visual Studio\2022\Professional\VC\Tools\MSVC\14.44.35207\include\vector
; File C:\IAGOS\server\v18\Source\Source\_Common\GuildCombat1to1.cpp
; File C:\Program Files\Microsoft Visual Studio\2022\Professional\VC\Tools\MSVC\14.44.35207\include\vector
; File C:\IAGOS\server\v18\Source\Source\_Common\GuildCombat1to1.cpp
; File C:\Program Files\Microsoft Visual Studio\2022\Professional\VC\Tools\MSVC\14.44.35207\include\vector
; File C:\IAGOS\server\v18\Source\Source\_Common\GuildCombat1to1.cpp
; File C:\Program Files\Microsoft Visual Studio\2022\Professional\VC\Tools\MSVC\14.44.35207\include\vector
; File C:\IAGOS\server\v18\Source\Source\_Common\GuildCombat1to1.cpp
; File C:\Program Files\Microsoft Visual Studio\2022\Professional\VC\Tools\MSVC\14.44.35207\include\vector
; File C:\IAGOS\server\v18\Source\Source\_Common\GuildCombat1to1.cpp
; File C:\Program Files\Microsoft Visual Studio\2022\Professional\VC\Tools\MSVC\14.44.35207\include\vector
; File C:\IAGOS\server\v18\Source\Source\_Common\GuildCombat1to1.cpp
; File C:\Program Files\Microsoft Visual Studio\2022\Professional\VC\Tools\MSVC\14.44.35207\include\vector
; File C:\IAGOS\server\v18\Source\Source\_Common\GuildCombat1to1.cpp
; File C:\Program Files\Microsoft Visual Studio\2022\Professional\VC\Tools\MSVC\14.44.35207\include\vector
; File C:\IAGOS\server\v18\Source\Source\_Common\GuildCombat1to1.cpp
; File C:\Program Files\Microsoft Visual Studio\2022\Professional\VC\Tools\MSVC\14.44.35207\include\vector
; File C:\IAGOS\server\v18\Source\Source\_Common\GuildCombat1to1.cpp
; File C:\Program Files\Microsoft Visual Studio\2022\Professional\VC\Tools\MSVC\14.44.35207\include\vector
; File C:\IAGOS\server\v18\Source\Source\_Common\GuildCombat1to1.cpp
; File C:\Program Files\Microsoft Visual Studio\2022\Professional\VC\Tools\MSVC\14.44.35207\include\vector
; File C:\IAGOS\server\v18\Source\Source\_Common\GuildCombat1to1.cpp
; File C:\Program Files\Microsoft Visual Studio\2022\Professional\VC\Tools\MSVC\14.44.35207\include\vector
; File C:\IAGOS\server\v18\Source\Source\_Common\GuildCombat1to1.cpp
; File C:\Program Files\Microsoft Visual Studio\2022\Professional\VC\Tools\MSVC\14.44.35207\include\vector
; File C:\IAGOS\server\v18\Source\Source\_Common\GuildCombat1to1.cpp
; File C:\Program Files\Microsoft Visual Studio\2022\Professional\VC\Tools\MSVC\14.44.35207\include\vector
; File C:\IAGOS\server\v18\Source\Source\_Common\GuildCombat1to1.cpp
; File C:\Program Files\Microsoft Visual Studio\2022\Professional\VC\Tools\MSVC\14.44.35207\include\vector
; File C:\IAGOS\server\v18\Source\Source\_Common\GuildCombat1to1.cpp
; File C:\Program Files\Microsoft Visual Studio\2022\Professional\VC\Tools\MSVC\14.44.35207\include\vector
; File C:\IAGOS\server\v18\Source\Source\_Common\GuildCombat1to1.cpp
; File C:\Program Files\Microsoft Visual Studio\2022\Professional\VC\Tools\MSVC\14.44.35207\include\vector
; File C:\IAGOS\server\v18\Source\Source\_Common\GuildCombat1to1.cpp
;	COMDAT ?SetLastWinState@CGuildCombat1to1@@QAEXH@Z
_TEXT	SEGMENT
_nIndex$ = 8						; size = 4
?SetLastWinState@CGuildCombat1to1@@QAEXH@Z PROC		; CGuildCombat1to1::SetLastWinState, COMDAT
; _this$ = ecx

; 557  : {

  00000	55		 push	 ebp
  00001	8b ec		 mov	 ebp, esp

; 560  : 		m_vecTenderGuild[m_nIndex[i]].nNowPlayerLife = g_GuildCombat1to1Mng.m_nPlayerLife;

  00003	a1 2c 00 00 00	 mov	 eax, DWORD PTR ?g_GuildCombat1to1Mng@@3VCGuildCombat1to1Mng@@A+44
  00008	56		 push	 esi
  00009	57		 push	 edi
  0000a	8b f9		 mov	 edi, ecx
; File C:\Program Files\Microsoft Visual Studio\2022\Professional\VC\Tools\MSVC\14.44.35207\include\vector

; 1934 :         return _My_data._Myfirst[_Pos];

  0000c	6b 77 24 2c	 imul	 esi, DWORD PTR [edi+36], 44
; File C:\IAGOS\server\v18\Source\Source\_Common\GuildCombat1to1.cpp

; 560  : 		m_vecTenderGuild[m_nIndex[i]].nNowPlayerLife = g_GuildCombat1to1Mng.m_nPlayerLife;

  00010	8b 57 04	 mov	 edx, DWORD PTR [edi+4]
  00013	89 44 16 18	 mov	 DWORD PTR [esi+edx+24], eax
; File C:\Program Files\Microsoft Visual Studio\2022\Professional\VC\Tools\MSVC\14.44.35207\include\vector

; 1934 :         return _My_data._Myfirst[_Pos];

  00017	6b 57 28 2c	 imul	 edx, DWORD PTR [edi+40], 44
; File C:\IAGOS\server\v18\Source\Source\_Common\GuildCombat1to1.cpp

; 560  : 		m_vecTenderGuild[m_nIndex[i]].nNowPlayerLife = g_GuildCombat1to1Mng.m_nPlayerLife;

  0001b	8b 4f 04	 mov	 ecx, DWORD PTR [edi+4]
  0001e	a1 2c 00 00 00	 mov	 eax, DWORD PTR ?g_GuildCombat1to1Mng@@3VCGuildCombat1to1Mng@@A+44
  00023	89 44 0a 18	 mov	 DWORD PTR [edx+ecx+24], eax

; 561  : 
; 562  : 	switch( nIndex )

  00027	8b 45 08	 mov	 eax, DWORD PTR _nIndex$[ebp]
  0002a	83 e8 00	 sub	 eax, 0
  0002d	0f 84 df 00 00
	00		 je	 $LN7@SetLastWin
  00033	83 e8 01	 sub	 eax, 1
  00036	74 75		 je	 SHORT $LN10@SetLastWin
  00038	83 e8 01	 sub	 eax, 1
  0003b	0f 85 43 01 00
	00		 jne	 $LN9@SetLastWin
; File C:\Program Files\Microsoft Visual Studio\2022\Professional\VC\Tools\MSVC\14.44.35207\include\vector

; 1934 :         return _My_data._Myfirst[_Pos];

  00041	6b 4f 24 2c	 imul	 ecx, DWORD PTR [edi+36], 44
; File C:\IAGOS\server\v18\Source\Source\_Common\GuildCombat1to1.cpp

; 583  : 			m_vecTenderGuild[m_nIndex[0]].nLastWinState = g_GuildCombat1to1Mng.GC1TO1_PLAYER_DRAW;

  00045	8b 47 04	 mov	 eax, DWORD PTR [edi+4]
  00048	c7 44 01 1c cc
	00 00 00	 mov	 DWORD PTR [ecx+eax+28], 204 ; 000000ccH
; File C:\Program Files\Microsoft Visual Studio\2022\Professional\VC\Tools\MSVC\14.44.35207\include\vector

; 1934 :         return _My_data._Myfirst[_Pos];

  00050	6b 4f 24 2c	 imul	 ecx, DWORD PTR [edi+36], 44
; File C:\IAGOS\server\v18\Source\Source\_Common\GuildCombat1to1.cpp

; 584  : 			if( (int)( m_vecTenderGuild[m_nIndex[0]].vecMemberId.size() ) > m_nProgWarCount	)

  00054	8b 77 1c	 mov	 esi, DWORD PTR [edi+28]
; File C:\Program Files\Microsoft Visual Studio\2022\Professional\VC\Tools\MSVC\14.44.35207\include\vector

; 1914 :         auto& _My_data = _Mypair._Myval2;

  00057	03 4f 04	 add	 ecx, DWORD PTR [edi+4]

; 1915 :         return static_cast<size_type>(_My_data._Mylast - _My_data._Myfirst);

  0005a	8b 41 24	 mov	 eax, DWORD PTR [ecx+36]
  0005d	8b 51 20	 mov	 edx, DWORD PTR [ecx+32]
  00060	2b c2		 sub	 eax, edx
  00062	c1 f8 02	 sar	 eax, 2
; File C:\IAGOS\server\v18\Source\Source\_Common\GuildCombat1to1.cpp

; 584  : 			if( (int)( m_vecTenderGuild[m_nIndex[0]].vecMemberId.size() ) > m_nProgWarCount	)

  00065	3b c6		 cmp	 eax, esi
  00067	7e 11		 jle	 SHORT $LN14@SetLastWin

; 585  : 				g_dpDBClient.SendGC1to1WarPerson( m_vecTenderGuild[m_nIndex[0]].ulGuildId, m_vecTenderGuild[m_nIndex[0]].vecMemberId[m_nProgWarCount], 'D' );

  00069	6a 44		 push	 68			; 00000044H
  0006b	ff 34 b2	 push	 DWORD PTR [edx+esi*4]
  0006e	ff 31		 push	 DWORD PTR [ecx]
  00070	b9 00 00 00 00	 mov	 ecx, OFFSET ?g_dpDBClient@@3VCDPDatabaseClient@@A ; g_dpDBClient
  00075	e8 00 00 00 00	 call	 ?SendGC1to1WarPerson@CDPDatabaseClient@@QAEXKKD@Z ; CDPDatabaseClient::SendGC1to1WarPerson
$LN14@SetLastWin:
; File C:\Program Files\Microsoft Visual Studio\2022\Professional\VC\Tools\MSVC\14.44.35207\include\vector

; 1934 :         return _My_data._Myfirst[_Pos];

  0007a	6b 4f 28 2c	 imul	 ecx, DWORD PTR [edi+40], 44
; File C:\IAGOS\server\v18\Source\Source\_Common\GuildCombat1to1.cpp

; 586  : 			m_vecTenderGuild[m_nIndex[1]].nLastWinState = g_GuildCombat1to1Mng.GC1TO1_PLAYER_DRAW;

  0007e	8b 47 04	 mov	 eax, DWORD PTR [edi+4]
  00081	c7 44 01 1c cc
	00 00 00	 mov	 DWORD PTR [ecx+eax+28], 204 ; 000000ccH
; File C:\Program Files\Microsoft Visual Studio\2022\Professional\VC\Tools\MSVC\14.44.35207\include\vector

; 1934 :         return _My_data._Myfirst[_Pos];

  00089	6b 4f 28 2c	 imul	 ecx, DWORD PTR [edi+40], 44
; File C:\IAGOS\server\v18\Source\Source\_Common\GuildCombat1to1.cpp

; 587  : 			if( (int)( m_vecTenderGuild[m_nIndex[1]].vecMemberId.size() ) > m_nProgWarCount	)

  0008d	8b 77 1c	 mov	 esi, DWORD PTR [edi+28]
; File C:\Program Files\Microsoft Visual Studio\2022\Professional\VC\Tools\MSVC\14.44.35207\include\vector

; 1914 :         auto& _My_data = _Mypair._Myval2;

  00090	03 4f 04	 add	 ecx, DWORD PTR [edi+4]

; 1915 :         return static_cast<size_type>(_My_data._Mylast - _My_data._Myfirst);

  00093	8b 41 24	 mov	 eax, DWORD PTR [ecx+36]
  00096	8b 51 20	 mov	 edx, DWORD PTR [ecx+32]
  00099	2b c2		 sub	 eax, edx
  0009b	c1 f8 02	 sar	 eax, 2
; File C:\IAGOS\server\v18\Source\Source\_Common\GuildCombat1to1.cpp

; 587  : 			if( (int)( m_vecTenderGuild[m_nIndex[1]].vecMemberId.size() ) > m_nProgWarCount	)

  0009e	3b c6		 cmp	 eax, esi
  000a0	0f 8e de 00 00
	00		 jle	 $LN9@SetLastWin

; 588  : 				g_dpDBClient.SendGC1to1WarPerson( m_vecTenderGuild[m_nIndex[1]].ulGuildId, m_vecTenderGuild[m_nIndex[1]].vecMemberId[m_nProgWarCount], 'D' );

  000a6	6a 44		 push	 68			; 00000044H
  000a8	e9 c8 00 00 00	 jmp	 $LN143@SetLastWin
$LN10@SetLastWin:
; File C:\Program Files\Microsoft Visual Studio\2022\Professional\VC\Tools\MSVC\14.44.35207\include\vector

; 1934 :         return _My_data._Myfirst[_Pos];

  000ad	6b 4f 24 2c	 imul	 ecx, DWORD PTR [edi+36], 44
; File C:\IAGOS\server\v18\Source\Source\_Common\GuildCombat1to1.cpp

; 574  : 			m_vecTenderGuild[m_nIndex[0]].nLastWinState = g_GuildCombat1to1Mng.GC1TO1_PLAYER_LOSE;

  000b1	8b 47 04	 mov	 eax, DWORD PTR [edi+4]
  000b4	c7 44 01 1c cb
	00 00 00	 mov	 DWORD PTR [ecx+eax+28], 203 ; 000000cbH
; File C:\Program Files\Microsoft Visual Studio\2022\Professional\VC\Tools\MSVC\14.44.35207\include\vector

; 1934 :         return _My_data._Myfirst[_Pos];

  000bc	6b 4f 24 2c	 imul	 ecx, DWORD PTR [edi+36], 44
; File C:\IAGOS\server\v18\Source\Source\_Common\GuildCombat1to1.cpp

; 575  : 			if( (int)( m_vecTenderGuild[m_nIndex[0]].vecMemberId.size() ) > m_nProgWarCount	)

  000c0	8b 77 1c	 mov	 esi, DWORD PTR [edi+28]
; File C:\Program Files\Microsoft Visual Studio\2022\Professional\VC\Tools\MSVC\14.44.35207\include\vector

; 1914 :         auto& _My_data = _Mypair._Myval2;

  000c3	03 4f 04	 add	 ecx, DWORD PTR [edi+4]

; 1915 :         return static_cast<size_type>(_My_data._Mylast - _My_data._Myfirst);

  000c6	8b 41 24	 mov	 eax, DWORD PTR [ecx+36]
  000c9	8b 51 20	 mov	 edx, DWORD PTR [ecx+32]
  000cc	2b c2		 sub	 eax, edx
  000ce	c1 f8 02	 sar	 eax, 2
; File C:\IAGOS\server\v18\Source\Source\_Common\GuildCombat1to1.cpp

; 575  : 			if( (int)( m_vecTenderGuild[m_nIndex[0]].vecMemberId.size() ) > m_nProgWarCount	)

  000d1	3b c6		 cmp	 eax, esi
  000d3	7e 11		 jle	 SHORT $LN11@SetLastWin

; 576  : 				g_dpDBClient.SendGC1to1WarPerson( m_vecTenderGuild[m_nIndex[0]].ulGuildId, m_vecTenderGuild[m_nIndex[0]].vecMemberId[m_nProgWarCount], 'L' );

  000d5	6a 4c		 push	 76			; 0000004cH
  000d7	ff 34 b2	 push	 DWORD PTR [edx+esi*4]
  000da	ff 31		 push	 DWORD PTR [ecx]
  000dc	b9 00 00 00 00	 mov	 ecx, OFFSET ?g_dpDBClient@@3VCDPDatabaseClient@@A ; g_dpDBClient
  000e1	e8 00 00 00 00	 call	 ?SendGC1to1WarPerson@CDPDatabaseClient@@QAEXKKD@Z ; CDPDatabaseClient::SendGC1to1WarPerson
$LN11@SetLastWin:
; File C:\Program Files\Microsoft Visual Studio\2022\Professional\VC\Tools\MSVC\14.44.35207\include\vector

; 1934 :         return _My_data._Myfirst[_Pos];

  000e6	6b 4f 28 2c	 imul	 ecx, DWORD PTR [edi+40], 44
; File C:\IAGOS\server\v18\Source\Source\_Common\GuildCombat1to1.cpp

; 577  : 			m_vecTenderGuild[m_nIndex[1]].nLastWinState = g_GuildCombat1to1Mng.GC1TO1_PLAYER_WIN;

  000ea	8b 47 04	 mov	 eax, DWORD PTR [edi+4]
  000ed	c7 44 01 1c ca
	00 00 00	 mov	 DWORD PTR [ecx+eax+28], 202 ; 000000caH
; File C:\Program Files\Microsoft Visual Studio\2022\Professional\VC\Tools\MSVC\14.44.35207\include\vector

; 1934 :         return _My_data._Myfirst[_Pos];

  000f5	6b 4f 28 2c	 imul	 ecx, DWORD PTR [edi+40], 44
; File C:\IAGOS\server\v18\Source\Source\_Common\GuildCombat1to1.cpp

; 578  : 			if( (int)( m_vecTenderGuild[m_nIndex[1]].vecMemberId.size() ) > m_nProgWarCount	)

  000f9	8b 77 1c	 mov	 esi, DWORD PTR [edi+28]
; File C:\Program Files\Microsoft Visual Studio\2022\Professional\VC\Tools\MSVC\14.44.35207\include\vector

; 1914 :         auto& _My_data = _Mypair._Myval2;

  000fc	03 4f 04	 add	 ecx, DWORD PTR [edi+4]

; 1915 :         return static_cast<size_type>(_My_data._Mylast - _My_data._Myfirst);

  000ff	8b 41 24	 mov	 eax, DWORD PTR [ecx+36]
  00102	8b 51 20	 mov	 edx, DWORD PTR [ecx+32]
  00105	2b c2		 sub	 eax, edx
  00107	c1 f8 02	 sar	 eax, 2
; File C:\IAGOS\server\v18\Source\Source\_Common\GuildCombat1to1.cpp

; 578  : 			if( (int)( m_vecTenderGuild[m_nIndex[1]].vecMemberId.size() ) > m_nProgWarCount	)

  0010a	3b c6		 cmp	 eax, esi
  0010c	7e 76		 jle	 SHORT $LN9@SetLastWin

; 579  : 				g_dpDBClient.SendGC1to1WarPerson( m_vecTenderGuild[m_nIndex[1]].ulGuildId, m_vecTenderGuild[m_nIndex[1]].vecMemberId[m_nProgWarCount], 'W' );

  0010e	6a 57		 push	 87			; 00000057H

; 580  : 			break;

  00110	eb 63		 jmp	 SHORT $LN143@SetLastWin
$LN7@SetLastWin:
; File C:\Program Files\Microsoft Visual Studio\2022\Professional\VC\Tools\MSVC\14.44.35207\include\vector

; 1934 :         return _My_data._Myfirst[_Pos];

  00112	6b 4f 24 2c	 imul	 ecx, DWORD PTR [edi+36], 44
; File C:\IAGOS\server\v18\Source\Source\_Common\GuildCombat1to1.cpp

; 565  : 			m_vecTenderGuild[m_nIndex[0]].nLastWinState = g_GuildCombat1to1Mng.GC1TO1_PLAYER_WIN;

  00116	8b 47 04	 mov	 eax, DWORD PTR [edi+4]
  00119	c7 44 01 1c ca
	00 00 00	 mov	 DWORD PTR [ecx+eax+28], 202 ; 000000caH
; File C:\Program Files\Microsoft Visual Studio\2022\Professional\VC\Tools\MSVC\14.44.35207\include\vector

; 1934 :         return _My_data._Myfirst[_Pos];

  00121	6b 4f 24 2c	 imul	 ecx, DWORD PTR [edi+36], 44
; File C:\IAGOS\server\v18\Source\Source\_Common\GuildCombat1to1.cpp

; 566  : 			if( (int)( m_vecTenderGuild[m_nIndex[0]].vecMemberId.size() ) > m_nProgWarCount	)

  00125	8b 77 1c	 mov	 esi, DWORD PTR [edi+28]
; File C:\Program Files\Microsoft Visual Studio\2022\Professional\VC\Tools\MSVC\14.44.35207\include\vector

; 1914 :         auto& _My_data = _Mypair._Myval2;

  00128	03 4f 04	 add	 ecx, DWORD PTR [edi+4]

; 1915 :         return static_cast<size_type>(_My_data._Mylast - _My_data._Myfirst);

  0012b	8b 41 24	 mov	 eax, DWORD PTR [ecx+36]
  0012e	8b 51 20	 mov	 edx, DWORD PTR [ecx+32]
  00131	2b c2		 sub	 eax, edx
  00133	c1 f8 02	 sar	 eax, 2
; File C:\IAGOS\server\v18\Source\Source\_Common\GuildCombat1to1.cpp

; 566  : 			if( (int)( m_vecTenderGuild[m_nIndex[0]].vecMemberId.size() ) > m_nProgWarCount	)

  00136	3b c6		 cmp	 eax, esi
  00138	7e 11		 jle	 SHORT $LN8@SetLastWin

; 567  : 				g_dpDBClient.SendGC1to1WarPerson( m_vecTenderGuild[m_nIndex[0]].ulGuildId, m_vecTenderGuild[m_nIndex[0]].vecMemberId[m_nProgWarCount], 'W' );

  0013a	6a 57		 push	 87			; 00000057H
  0013c	ff 34 b2	 push	 DWORD PTR [edx+esi*4]
  0013f	ff 31		 push	 DWORD PTR [ecx]
  00141	b9 00 00 00 00	 mov	 ecx, OFFSET ?g_dpDBClient@@3VCDPDatabaseClient@@A ; g_dpDBClient
  00146	e8 00 00 00 00	 call	 ?SendGC1to1WarPerson@CDPDatabaseClient@@QAEXKKD@Z ; CDPDatabaseClient::SendGC1to1WarPerson
$LN8@SetLastWin:
; File C:\Program Files\Microsoft Visual Studio\2022\Professional\VC\Tools\MSVC\14.44.35207\include\vector

; 1934 :         return _My_data._Myfirst[_Pos];

  0014b	6b 4f 28 2c	 imul	 ecx, DWORD PTR [edi+40], 44
; File C:\IAGOS\server\v18\Source\Source\_Common\GuildCombat1to1.cpp

; 568  : 			m_vecTenderGuild[m_nIndex[1]].nLastWinState = g_GuildCombat1to1Mng.GC1TO1_PLAYER_LOSE;

  0014f	8b 47 04	 mov	 eax, DWORD PTR [edi+4]
  00152	c7 44 01 1c cb
	00 00 00	 mov	 DWORD PTR [ecx+eax+28], 203 ; 000000cbH
; File C:\Program Files\Microsoft Visual Studio\2022\Professional\VC\Tools\MSVC\14.44.35207\include\vector

; 1934 :         return _My_data._Myfirst[_Pos];

  0015a	6b 4f 28 2c	 imul	 ecx, DWORD PTR [edi+40], 44
; File C:\IAGOS\server\v18\Source\Source\_Common\GuildCombat1to1.cpp

; 569  : 			if( (int)( m_vecTenderGuild[m_nIndex[1]].vecMemberId.size() ) > m_nProgWarCount	)

  0015e	8b 77 1c	 mov	 esi, DWORD PTR [edi+28]
; File C:\Program Files\Microsoft Visual Studio\2022\Professional\VC\Tools\MSVC\14.44.35207\include\vector

; 1914 :         auto& _My_data = _Mypair._Myval2;

  00161	03 4f 04	 add	 ecx, DWORD PTR [edi+4]

; 1915 :         return static_cast<size_type>(_My_data._Mylast - _My_data._Myfirst);

  00164	8b 41 24	 mov	 eax, DWORD PTR [ecx+36]
  00167	8b 51 20	 mov	 edx, DWORD PTR [ecx+32]
  0016a	2b c2		 sub	 eax, edx
  0016c	c1 f8 02	 sar	 eax, 2
; File C:\IAGOS\server\v18\Source\Source\_Common\GuildCombat1to1.cpp

; 569  : 			if( (int)( m_vecTenderGuild[m_nIndex[1]].vecMemberId.size() ) > m_nProgWarCount	)

  0016f	3b c6		 cmp	 eax, esi
  00171	7e 11		 jle	 SHORT $LN9@SetLastWin

; 570  : 				g_dpDBClient.SendGC1to1WarPerson( m_vecTenderGuild[m_nIndex[1]].ulGuildId, m_vecTenderGuild[m_nIndex[1]].vecMemberId[m_nProgWarCount], 'L' );

  00173	6a 4c		 push	 76			; 0000004cH
$LN143@SetLastWin:

; 589  : 			break;
; 590  : 	}
; 591  : }

  00175	ff 34 b2	 push	 DWORD PTR [edx+esi*4]
  00178	ff 31		 push	 DWORD PTR [ecx]
  0017a	b9 00 00 00 00	 mov	 ecx, OFFSET ?g_dpDBClient@@3VCDPDatabaseClient@@A ; g_dpDBClient
  0017f	e8 00 00 00 00	 call	 ?SendGC1to1WarPerson@CDPDatabaseClient@@QAEXKKD@Z ; CDPDatabaseClient::SendGC1to1WarPerson
$LN9@SetLastWin:
  00184	5f		 pop	 edi
  00185	5e		 pop	 esi
  00186	5d		 pop	 ebp
  00187	c2 04 00	 ret	 4
?SetLastWinState@CGuildCombat1to1@@QAEXH@Z ENDP		; CGuildCombat1to1::SetLastWinState
_TEXT	ENDS
; Function compile flags: /Ogtp
; File C:\IAGOS\server\v18\Source\Source\_Common\GuildCombat1to1.cpp
; File C:\Program Files\Microsoft Visual Studio\2022\Professional\VC\Tools\MSVC\14.44.35207\include\vector
; File C:\IAGOS\server\v18\Source\Source\_Common\GuildCombat1to1.cpp
; File C:\Program Files\Microsoft Visual Studio\2022\Professional\VC\Tools\MSVC\14.44.35207\include\vector
; File C:\IAGOS\server\v18\Source\Source\_Common\GuildCombat1to1.cpp
; File C:\Program Files\Microsoft Visual Studio\2022\Professional\VC\Tools\MSVC\14.44.35207\include\vector
; File C:\IAGOS\server\v18\Source\Source\_Common\GuildCombat1to1.cpp
; File C:\Program Files\Microsoft Visual Studio\2022\Professional\VC\Tools\MSVC\14.44.35207\include\vector
; File C:\IAGOS\server\v18\Source\Source\_Common\GuildCombat1to1.cpp
; File C:\Program Files\Microsoft Visual Studio\2022\Professional\VC\Tools\MSVC\14.44.35207\include\xtree
; File C:\IAGOS\server\v18\Source\Source\_Common\GuildCombat1to1.cpp
; File C:\Program Files\Microsoft Visual Studio\2022\Professional\VC\Tools\MSVC\14.44.35207\include\xtree
; File C:\Program Files\Microsoft Visual Studio\2022\Professional\VC\Tools\MSVC\14.44.35207\include\type_traits
; File C:\Program Files\Microsoft Visual Studio\2022\Professional\VC\Tools\MSVC\14.44.35207\include\xtree
; File C:\Program Files\Microsoft Visual Studio\2022\Professional\VC\Tools\MSVC\14.44.35207\include\type_traits
; File C:\Program Files\Microsoft Visual Studio\2022\Professional\VC\Tools\MSVC\14.44.35207\include\xtree
; File C:\IAGOS\server\v18\Source\Source\_Common\Project.h
; File C:\IAGOS\server\v18\Source\Source\_Common\GuildCombat1to1.cpp
; File C:\Program Files\Microsoft Visual Studio\2022\Professional\VC\Tools\MSVC\14.44.35207\include\vector
; File C:\IAGOS\server\v18\Source\Source\_Common\GuildCombat1to1.cpp
; File C:\Program Files\Microsoft Visual Studio\2022\Professional\VC\Tools\MSVC\14.44.35207\include\vector
; File C:\IAGOS\server\v18\Source\Source\_Common\GuildCombat1to1.cpp
; File C:\Program Files\Microsoft Visual Studio\2022\Professional\VC\Tools\MSVC\14.44.35207\include\xtree
; File C:\IAGOS\server\v18\Source\Source\_Common\GuildCombat1to1.cpp
; File C:\Program Files\Microsoft Visual Studio\2022\Professional\VC\Tools\MSVC\14.44.35207\include\xtree
; File C:\Program Files\Microsoft Visual Studio\2022\Professional\VC\Tools\MSVC\14.44.35207\include\type_traits
; File C:\Program Files\Microsoft Visual Studio\2022\Professional\VC\Tools\MSVC\14.44.35207\include\xtree
; File C:\Program Files\Microsoft Visual Studio\2022\Professional\VC\Tools\MSVC\14.44.35207\include\type_traits
; File C:\Program Files\Microsoft Visual Studio\2022\Professional\VC\Tools\MSVC\14.44.35207\include\xtree
; File C:\IAGOS\server\v18\Source\Source\_Common\Project.h
; File C:\IAGOS\server\v18\Source\Source\_Common\GuildCombat1to1.cpp
