; Listing generated by Microsoft (R) Optimizing Compiler Version 19.44.35225.0 

	TITLE	C:\IAGOS\server\v18\Source\Output\WorldServer\Release\guildquest.obj
	.686P
	.XMM
	include listing.inc
	.model	flat

INCLUDELIB LIBCMT
INCLUDELIB OLDNAMES

CONST	SEGMENT
?piecewise_construct@std@@3Upiecewise_construct_t@1@B	ORG $+1 ; std::piecewise_construct
CONST	ENDS
PUBLIC	??_H@YGXPAXIIP6EPAX0@Z@Z			; `vector constructor iterator'
PUBLIC	?__empty_global_delete@@YAXPAX@Z		; __empty_global_delete
PUBLIC	?__empty_global_delete@@YAXPAXI@Z		; __empty_global_delete
PUBLIC	??0_GUILDQUESTELEM@@QAE@XZ			; _GUILDQUESTELEM::_GUILDQUESTELEM
PUBLIC	??0__GUILDQUESTRECT@@QAE@XZ			; __GUILDQUESTRECT::__GUILDQUESTRECT
PUBLIC	??0CGuildQuestProcessor@@QAE@XZ			; CGuildQuestProcessor::CGuildQuestProcessor
PUBLIC	??1CGuildQuestProcessor@@QAE@XZ			; CGuildQuestProcessor::~CGuildQuestProcessor
PUBLIC	?Process@CGuildQuestProcessor@@QAEXXZ		; CGuildQuestProcessor::Process
PUBLIC	?SetGuildQuest@CGuildQuestProcessor@@QAEXHHHHKK@Z ; CGuildQuestProcessor::SetGuildQuest
PUBLIC	?GetGuildQuest@CGuildQuestProcessor@@QAEPAU_GUILDQUESTELEM@@H@Z ; CGuildQuestProcessor::GetGuildQuest
PUBLIC	?RemoveGuildQuest@CGuildQuestProcessor@@QAEXH@Z	; CGuildQuestProcessor::RemoveGuildQuest
PUBLIC	?IsQuesting@CGuildQuestProcessor@@QAEHH@Z	; CGuildQuestProcessor::IsQuesting
PUBLIC	?GetInstance@CGuildQuestProcessor@@SAPAV1@XZ	; CGuildQuestProcessor::GetInstance
PUBLIC	?AddQuestRect@CGuildQuestProcessor@@QAEXHHHHH@Z	; CGuildQuestProcessor::AddQuestRect
PUBLIC	?PtInQuestRect@CGuildQuestProcessor@@QAEHABUD3DXVECTOR3@@@Z ; CGuildQuestProcessor::PtInQuestRect
PUBLIC	?GetQuestRect@CGuildQuestProcessor@@QAEPAVCRect@@H@Z ; CGuildQuestProcessor::GetQuestRect
PUBLIC	??E?$_Tree_iterator@V?$_Tree_val@U?$_Tree_simple_types@U?$pair@$$CBKPAVCGuildMember@@@std@@@std@@@std@@@std@@QAEAAV01@XZ ; std::_Tree_iterator<std::_Tree_val<std::_Tree_simple_types<std::pair<unsigned long const ,CGuildMember *> > > >::operator++
PUBLIC	??_C@_00CNPNBAHC@@				; `string'
EXTRN	_atexit:PROC
EXTRN	__Init_thread_header:PROC
EXTRN	__Init_thread_footer:PROC
EXTRN	__imp__GetTickCount@0:PROC
EXTRN	__imp__SetRect@20:PROC
EXTRN	__imp__PtInRect@12:PROC
EXTRN	?Error@@YAPBDPBDZZ:PROC				; Error
EXTRN	?Delete@CObj@@QAEXXZ:PROC			; CObj::Delete
EXTRN	?GetGuildQuestProp@CProject@@QAEPAUGUILDQUESTPROP@@H@Z:PROC ; CProject::GetGuildQuestProp
EXTRN	?GetMover@CProject@@QAEPAVCMover@@K@Z:PROC	; CProject::GetMover
EXTRN	?SetQuest@CGuild@@QAEXHH@Z:PROC			; CGuild::SetQuest
EXTRN	?ReplaceLodestar@CGuild@@QAEXABVCRect@@@Z:PROC	; CGuild::ReplaceLodestar
EXTRN	?GetGuild@CGuildMng@@QAEPAVCGuild@@K@Z:PROC	; CGuildMng::GetGuild
EXTRN	?SendUpdateGuildQuest@CDPDatabaseClient@@QAEXKHH@Z:PROC ; CDPDatabaseClient::SendUpdateGuildQuest
EXTRN	@__security_check_cookie@4:PROC
EXTRN	__Init_thread_epoch:DWORD
EXTRN	?prj@@3VCProject@@A:BYTE			; prj
EXTRN	?g_GuildMng@@3VCGuildMng@@A:BYTE		; g_GuildMng
EXTRN	?g_dpDBClient@@3VCDPDatabaseClient@@A:BYTE	; g_dpDBClient
EXTRN	___security_cookie:DWORD
EXTRN	__tls_array:DWORD
EXTRN	__tls_index:DWORD
;	COMDAT ?sGuildQuestProcessor@?1??GetInstance@CGuildQuestProcessor@@SAPAV2@XZ@4V2@A
_BSS	SEGMENT
?sGuildQuestProcessor@?1??GetInstance@CGuildQuestProcessor@@SAPAV2@XZ@4V2@A DB 03004H DUP (?) ; `CGuildQuestProcessor::GetInstance'::`2'::sGuildQuestProcessor
_BSS	ENDS
;	COMDAT ?$TSS0@?1??GetInstance@CGuildQuestProcessor@@SAPAV2@XZ@4HA
_BSS	SEGMENT
?$TSS0@?1??GetInstance@CGuildQuestProcessor@@SAPAV2@XZ@4HA DD 01H DUP (?) ; `CGuildQuestProcessor::GetInstance'::`2'::$TSS0
_BSS	ENDS
;	COMDAT ??_C@_00CNPNBAHC@@
CONST	SEGMENT
??_C@_00CNPNBAHC@@ DB 00H				; `string'
CONST	ENDS
; Function compile flags: /Ogtp
;	COMDAT ??__FsGuildQuestProcessor@?1??GetInstance@CGuildQuestProcessor@@SAPAV1@XZ@YAXXZ
text$yd	SEGMENT
??__FsGuildQuestProcessor@?1??GetInstance@CGuildQuestProcessor@@SAPAV1@XZ@YAXXZ PROC ; `CGuildQuestProcessor::GetInstance'::`2'::`dynamic atexit destructor for 'sGuildQuestProcessor'', COMDAT
  00000	b9 00 00 00 00	 mov	 ecx, OFFSET ?sGuildQuestProcessor@?1??GetInstance@CGuildQuestProcessor@@SAPAV2@XZ@4V2@A
  00005	e9 00 00 00 00	 jmp	 ??1CGuildQuestProcessor@@QAE@XZ ; CGuildQuestProcessor::~CGuildQuestProcessor
??__FsGuildQuestProcessor@?1??GetInstance@CGuildQuestProcessor@@SAPAV1@XZ@YAXXZ ENDP ; `CGuildQuestProcessor::GetInstance'::`2'::`dynamic atexit destructor for 'sGuildQuestProcessor''
text$yd	ENDS
; Function compile flags: /Ogtp
; File C:\Program Files\Microsoft Visual Studio\2022\Professional\VC\Tools\MSVC\14.44.35207\include\xtree
;	COMDAT ??E?$_Tree_iterator@V?$_Tree_val@U?$_Tree_simple_types@U?$pair@$$CBKPAVCGuildMember@@@std@@@std@@@std@@@std@@QAEAAV01@XZ
_TEXT	SEGMENT
??E?$_Tree_iterator@V?$_Tree_val@U?$_Tree_simple_types@U?$pair@$$CBKPAVCGuildMember@@@std@@@std@@@std@@@std@@QAEAAV01@XZ PROC ; std::_Tree_iterator<std::_Tree_val<std::_Tree_simple_types<std::pair<unsigned long const ,CGuildMember *> > > >::operator++, COMDAT
; _this$ = ecx

; 281  :     _Tree_iterator& operator++() noexcept {

  00000	56		 push	 esi
  00001	8b f1		 mov	 esi, ecx
  00003	57		 push	 edi

; 50   :         if (_Ptr->_Right->_Isnil) { // climb looking for right subtree

  00004	8b 16		 mov	 edx, DWORD PTR [esi]
  00006	8b 7a 08	 mov	 edi, DWORD PTR [edx+8]
  00009	80 7f 0d 00	 cmp	 BYTE PTR [edi+13], 0
  0000d	74 22		 je	 SHORT $LN10@operator

; 51   :             _Nodeptr _Pnode;
; 52   :             while (!(_Pnode = _Ptr->_Parent)->_Isnil && _Ptr == _Pnode->_Right) {

  0000f	8b 42 04	 mov	 eax, DWORD PTR [edx+4]
  00012	80 78 0d 00	 cmp	 BYTE PTR [eax+13], 0
  00016	75 12		 jne	 SHORT $LN27@operator
$LL8@operator:
  00018	3b 50 08	 cmp	 edx, DWORD PTR [eax+8]
  0001b	75 0d		 jne	 SHORT $LN27@operator

; 53   :                 _Ptr = _Pnode; // ==> parent while right subtree

  0001d	89 06		 mov	 DWORD PTR [esi], eax
  0001f	8b d0		 mov	 edx, eax
  00021	8b 40 04	 mov	 eax, DWORD PTR [eax+4]
  00024	80 78 0d 00	 cmp	 BYTE PTR [eax+13], 0
  00028	74 ee		 je	 SHORT $LL8@operator
$LN27@operator:

; 282  :         _Mybase::operator++();
; 283  :         return *this;

  0002a	89 06		 mov	 DWORD PTR [esi], eax

; 284  :     }

  0002c	8b c6		 mov	 eax, esi
  0002e	5f		 pop	 edi
  0002f	5e		 pop	 esi
  00030	c3		 ret	 0
$LN10@operator:

; 476  :         while (!_Pnode->_Left->_Isnil) {

  00031	8b 0f		 mov	 ecx, DWORD PTR [edi]
  00033	80 79 0d 00	 cmp	 BYTE PTR [ecx+13], 0
  00037	75 13		 jne	 SHORT $LN16@operator
  00039	0f 1f 80 00 00
	00 00		 npad	 7
$LL15@operator:
  00040	8b 01		 mov	 eax, DWORD PTR [ecx]

; 477  :             _Pnode = _Pnode->_Left;

  00042	8b f9		 mov	 edi, ecx
  00044	8b c8		 mov	 ecx, eax
  00046	80 78 0d 00	 cmp	 BYTE PTR [eax+13], 0
  0004a	74 f4		 je	 SHORT $LL15@operator
$LN16@operator:

; 282  :         _Mybase::operator++();
; 283  :         return *this;

  0004c	89 3e		 mov	 DWORD PTR [esi], edi

; 284  :     }

  0004e	8b c6		 mov	 eax, esi
  00050	5f		 pop	 edi
  00051	5e		 pop	 esi
  00052	c3		 ret	 0
??E?$_Tree_iterator@V?$_Tree_val@U?$_Tree_simple_types@U?$pair@$$CBKPAVCGuildMember@@@std@@@std@@@std@@@std@@QAEAAV01@XZ ENDP ; std::_Tree_iterator<std::_Tree_val<std::_Tree_simple_types<std::pair<unsigned long const ,CGuildMember *> > > >::operator++
_TEXT	ENDS
; Function compile flags: /Ogtp
; File C:\IAGOS\server\v18\Source\Source\_common\guildquest.cpp
;	COMDAT ?GetQuestRect@CGuildQuestProcessor@@QAEPAVCRect@@H@Z
_TEXT	SEGMENT
_nId$ = 8						; size = 4
?GetQuestRect@CGuildQuestProcessor@@QAEPAVCRect@@H@Z PROC ; CGuildQuestProcessor::GetQuestRect, COMDAT
; _this$ = ecx

; 287  : {

  00000	55		 push	 ebp
  00001	8b ec		 mov	 ebp, esp

; 288  : 	for( int i = 0; i < m_nRect; i++ )

  00003	8b 91 00 30 00
	00		 mov	 edx, DWORD PTR [ecx+12288]
  00009	33 c0		 xor	 eax, eax
  0000b	56		 push	 esi
  0000c	85 d2		 test	 edx, edx
  0000e	7e 13		 jle	 SHORT $LN3@GetQuestRe
  00010	8b 75 08	 mov	 esi, DWORD PTR _nId$[ebp]
$LL4@GetQuestRe:

; 289  : 	{
; 290  : 		if( m_pRect[i].nId == nId )

  00013	39 b1 00 1c 00
	00		 cmp	 DWORD PTR [ecx+7168], esi
  00019	74 0f		 je	 SHORT $LN8@GetQuestRe

; 288  : 	for( int i = 0; i < m_nRect; i++ )

  0001b	40		 inc	 eax
  0001c	83 c1 14	 add	 ecx, 20			; 00000014H
  0001f	3b c2		 cmp	 eax, edx
  00021	7c f0		 jl	 SHORT $LL4@GetQuestRe
$LN3@GetQuestRe:

; 292  : 	}
; 293  : 	return NULL;

  00023	33 c0		 xor	 eax, eax
  00025	5e		 pop	 esi

; 294  : }

  00026	5d		 pop	 ebp
  00027	c2 04 00	 ret	 4
$LN8@GetQuestRe:

; 291  : 			return &m_pRect[i].rect;

  0002a	8d 81 04 1c 00
	00		 lea	 eax, DWORD PTR [ecx+7172]
  00030	5e		 pop	 esi

; 294  : }

  00031	5d		 pop	 ebp
  00032	c2 04 00	 ret	 4
?GetQuestRect@CGuildQuestProcessor@@QAEPAVCRect@@H@Z ENDP ; CGuildQuestProcessor::GetQuestRect
_TEXT	ENDS
; Function compile flags: /Ogtp
; File C:\IAGOS\server\v18\Source\Source\_common\guildquest.cpp
; File C:\Program Files\Microsoft Visual Studio\2022\Professional\VC\Tools\MSVC\14.44.35207\atlmfc\include\atltypes.h
; File C:\IAGOS\server\v18\Source\Source\_common\guildquest.cpp
;	COMDAT ?PtInQuestRect@CGuildQuestProcessor@@QAEHABUD3DXVECTOR3@@@Z
_TEXT	SEGMENT
_point$2$ = -4						; size = 4
_vPos$ = 8						; size = 4
_point$1$ = 8						; size = 4
?PtInQuestRect@CGuildQuestProcessor@@QAEHABUD3DXVECTOR3@@@Z PROC ; CGuildQuestProcessor::PtInQuestRect, COMDAT
; _this$ = ecx

; 275  : {

  00000	55		 push	 ebp
  00001	8b ec		 mov	 ebp, esp
  00003	51		 push	 ecx

; 276  : 	POINT point	= { (int)vPos.x, (int)vPos.z	};

  00004	8b 45 08	 mov	 eax, DWORD PTR _vPos$[ebp]
  00007	53		 push	 ebx
  00008	8b d9		 mov	 ebx, ecx
  0000a	56		 push	 esi
  0000b	f3 0f 2c 08	 cvttss2si ecx, DWORD PTR [eax]

; 277  : 	for( int i = 0; i < m_nRect; i++ )

  0000f	33 f6		 xor	 esi, esi
  00011	57		 push	 edi
  00012	f3 0f 2c 40 08	 cvttss2si eax, DWORD PTR [eax+8]
  00017	89 4d 08	 mov	 DWORD PTR _point$1$[ebp], ecx
  0001a	89 45 fc	 mov	 DWORD PTR _point$2$[ebp], eax
  0001d	39 b3 00 30 00
	00		 cmp	 DWORD PTR [ebx+12288], esi
  00023	7e 2a		 jle	 SHORT $LN3@PtInQuestR

; 276  : 	POINT point	= { (int)vPos.x, (int)vPos.z	};

  00025	8d bb 04 1c 00
	00		 lea	 edi, DWORD PTR [ebx+7172]
  0002b	0f 1f 44 00 00	 npad	 5
$LL4@PtInQuestR:
; File C:\Program Files\Microsoft Visual Studio\2022\Professional\VC\Tools\MSVC\14.44.35207\atlmfc\include\atltypes.h

; 652  : 	return ::PtInRect(this, point);

  00030	50		 push	 eax
  00031	51		 push	 ecx
  00032	57		 push	 edi
  00033	ff 15 00 00 00
	00		 call	 DWORD PTR __imp__PtInRect@12
; File C:\IAGOS\server\v18\Source\Source\_common\guildquest.cpp

; 280  : 		if( m_pRect[i].rect.PtInRect( point ) )

  00039	85 c0		 test	 eax, eax
  0003b	75 1e		 jne	 SHORT $LN10@PtInQuestR

; 277  : 	for( int i = 0; i < m_nRect; i++ )

  0003d	8b 4d 08	 mov	 ecx, DWORD PTR _point$1$[ebp]
  00040	46		 inc	 esi
  00041	8b 45 fc	 mov	 eax, DWORD PTR _point$2$[ebp]
  00044	83 c7 14	 add	 edi, 20			; 00000014H
  00047	3b b3 00 30 00
	00		 cmp	 esi, DWORD PTR [ebx+12288]
  0004d	7c e1		 jl	 SHORT $LL4@PtInQuestR
$LN3@PtInQuestR:
  0004f	5f		 pop	 edi

; 282  : 	}
; 283  : 	return -1;
; 284  : }

  00050	5e		 pop	 esi
  00051	83 c8 ff	 or	 eax, -1
  00054	5b		 pop	 ebx
  00055	8b e5		 mov	 esp, ebp
  00057	5d		 pop	 ebp
  00058	c2 04 00	 ret	 4
$LN10@PtInQuestR:
  0005b	5f		 pop	 edi

; 281  : 			return m_pRect[i].nId;

  0005c	8d 04 b6	 lea	 eax, DWORD PTR [esi+esi*4]
  0005f	8b 84 83 00 1c
	00 00		 mov	 eax, DWORD PTR [ebx+eax*4+7168]

; 282  : 	}
; 283  : 	return -1;
; 284  : }

  00066	5e		 pop	 esi
  00067	5b		 pop	 ebx
  00068	8b e5		 mov	 esp, ebp
  0006a	5d		 pop	 ebp
  0006b	c2 04 00	 ret	 4
?PtInQuestRect@CGuildQuestProcessor@@QAEHABUD3DXVECTOR3@@@Z ENDP ; CGuildQuestProcessor::PtInQuestRect
_TEXT	ENDS
; Function compile flags: /Ogtp
; File C:\IAGOS\server\v18\Source\Source\_common\guildquest.cpp
; File C:\Program Files\Microsoft Visual Studio\2022\Professional\VC\Tools\MSVC\14.44.35207\atlmfc\include\atltypes.h
; File C:\IAGOS\server\v18\Source\Source\_common\guildquest.cpp
; File C:\Program Files\Microsoft Visual Studio\2022\Professional\VC\Tools\MSVC\14.44.35207\atlmfc\include\atltypes.h
; File C:\IAGOS\server\v18\Source\Source\_common\guildquest.cpp
; File C:\Program Files\Microsoft Visual Studio\2022\Professional\VC\Tools\MSVC\14.44.35207\atlmfc\include\atltypes.h
; File C:\IAGOS\server\v18\Source\Source\_common\guildquest.cpp
; File C:\Program Files\Microsoft Visual Studio\2022\Professional\VC\Tools\MSVC\14.44.35207\atlmfc\include\atltypes.h
; File C:\IAGOS\server\v18\Source\Source\_common\guildquest.cpp
;	COMDAT ?AddQuestRect@CGuildQuestProcessor@@QAEXHHHHH@Z
_TEXT	SEGMENT
_nId$ = 8						; size = 4
_x1$ = 12						; size = 4
_y1$ = 16						; size = 4
_x2$ = 20						; size = 4
_y2$ = 24						; size = 4
?AddQuestRect@CGuildQuestProcessor@@QAEXHHHHH@Z PROC	; CGuildQuestProcessor::AddQuestRect, COMDAT
; _this$ = ecx

; 262  : {

  00000	55		 push	 ebp
  00001	8b ec		 mov	 ebp, esp
  00003	56		 push	 esi
  00004	8b f1		 mov	 esi, ecx

; 263  : 	if( m_nRect >= MAX_GUILD_QUEST )

  00006	8b 86 00 30 00
	00		 mov	 eax, DWORD PTR [esi+12288]
  0000c	3d 00 01 00 00	 cmp	 eax, 256		; 00000100H
  00011	7c 12		 jl	 SHORT $LN2@AddQuestRe

; 264  : 	{
; 265  : 		Error( "" );

  00013	68 00 00 00 00	 push	 OFFSET ??_C@_00CNPNBAHC@@
  00018	e8 00 00 00 00	 call	 ?Error@@YAPBDPBDZZ	; Error
  0001d	83 c4 04	 add	 esp, 4
  00020	5e		 pop	 esi

; 272  : }

  00021	5d		 pop	 ebp
  00022	c2 14 00	 ret	 20			; 00000014H
$LN2@AddQuestRe:
; File C:\Program Files\Microsoft Visual Studio\2022\Professional\VC\Tools\MSVC\14.44.35207\atlmfc\include\atltypes.h

; 661  : 	::SetRect(this, x1, y1, x2, y2);

  00025	ff 75 10	 push	 DWORD PTR _y1$[ebp]
; File C:\IAGOS\server\v18\Source\Source\_common\guildquest.cpp

; 269  : 	m_pRect[m_nRect].nId	= nId;

  00028	8d 0c 80	 lea	 ecx, DWORD PTR [eax+eax*4]
  0002b	8b 45 08	 mov	 eax, DWORD PTR _nId$[ebp]
; File C:\Program Files\Microsoft Visual Studio\2022\Professional\VC\Tools\MSVC\14.44.35207\atlmfc\include\atltypes.h

; 661  : 	::SetRect(this, x1, y1, x2, y2);

  0002e	ff 75 14	 push	 DWORD PTR _x2$[ebp]
; File C:\IAGOS\server\v18\Source\Source\_common\guildquest.cpp

; 269  : 	m_pRect[m_nRect].nId	= nId;

  00031	89 84 8e 00 1c
	00 00		 mov	 DWORD PTR [esi+ecx*4+7168], eax

; 270  : 	m_pRect[m_nRect].rect.SetRect( x1, y2, x2, y1 );

  00038	8b 86 00 30 00
	00		 mov	 eax, DWORD PTR [esi+12288]
; File C:\Program Files\Microsoft Visual Studio\2022\Professional\VC\Tools\MSVC\14.44.35207\atlmfc\include\atltypes.h

; 661  : 	::SetRect(this, x1, y1, x2, y2);

  0003e	ff 75 18	 push	 DWORD PTR _y2$[ebp]
  00041	ff 75 0c	 push	 DWORD PTR _x1$[ebp]
; File C:\IAGOS\server\v18\Source\Source\_common\guildquest.cpp

; 270  : 	m_pRect[m_nRect].rect.SetRect( x1, y2, x2, y1 );

  00044	8d 04 80	 lea	 eax, DWORD PTR [eax+eax*4]
  00047	8d 80 01 07 00
	00		 lea	 eax, DWORD PTR [eax+1793]
  0004d	8d 04 86	 lea	 eax, DWORD PTR [esi+eax*4]
; File C:\Program Files\Microsoft Visual Studio\2022\Professional\VC\Tools\MSVC\14.44.35207\atlmfc\include\atltypes.h

; 661  : 	::SetRect(this, x1, y1, x2, y2);

  00050	50		 push	 eax
  00051	ff 15 00 00 00
	00		 call	 DWORD PTR __imp__SetRect@20
; File C:\IAGOS\server\v18\Source\Source\_common\guildquest.cpp

; 271  : 	m_nRect++;

  00057	ff 86 00 30 00
	00		 inc	 DWORD PTR [esi+12288]
  0005d	5e		 pop	 esi

; 272  : }

  0005e	5d		 pop	 ebp
  0005f	c2 14 00	 ret	 20			; 00000014H
?AddQuestRect@CGuildQuestProcessor@@QAEXHHHHH@Z ENDP	; CGuildQuestProcessor::AddQuestRect
_TEXT	ENDS
; Function compile flags: /Ogtp
; File C:\IAGOS\server\v18\Source\Source\_common\guildquest.cpp
;	COMDAT ?GetInstance@CGuildQuestProcessor@@SAPAV1@XZ
_TEXT	SEGMENT
?GetInstance@CGuildQuestProcessor@@SAPAV1@XZ PROC	; CGuildQuestProcessor::GetInstance, COMDAT

; 257  : 	static CGuildQuestProcessor sGuildQuestProcessor;

  00000	64 a1 00 00 00
	00		 mov	 eax, DWORD PTR fs:__tls_array
  00006	8b 0d 00 00 00
	00		 mov	 ecx, DWORD PTR __tls_index
  0000c	8b 0c 88	 mov	 ecx, DWORD PTR [eax+ecx*4]
  0000f	a1 00 00 00 00	 mov	 eax, DWORD PTR ?$TSS0@?1??GetInstance@CGuildQuestProcessor@@SAPAV2@XZ@4HA
  00014	3b 81 00 00 00
	00		 cmp	 eax, DWORD PTR __Init_thread_epoch[ecx]
  0001a	7f 06		 jg	 SHORT $LN8@GetInstanc
$LN5@GetInstanc:

; 258  : 	return &sGuildQuestProcessor;
; 259  : }

  0001c	b8 00 00 00 00	 mov	 eax, OFFSET ?sGuildQuestProcessor@?1??GetInstance@CGuildQuestProcessor@@SAPAV2@XZ@4V2@A
  00021	c3		 ret	 0
$LN8@GetInstanc:

; 257  : 	static CGuildQuestProcessor sGuildQuestProcessor;

  00022	68 00 00 00 00	 push	 OFFSET ?$TSS0@?1??GetInstance@CGuildQuestProcessor@@SAPAV2@XZ@4HA
  00027	e8 00 00 00 00	 call	 __Init_thread_header
  0002c	83 c4 04	 add	 esp, 4
  0002f	83 3d 00 00 00
	00 ff		 cmp	 DWORD PTR ?$TSS0@?1??GetInstance@CGuildQuestProcessor@@SAPAV2@XZ@4HA, -1
  00036	75 e4		 jne	 SHORT $LN5@GetInstanc
  00038	b9 00 00 00 00	 mov	 ecx, OFFSET ?sGuildQuestProcessor@?1??GetInstance@CGuildQuestProcessor@@SAPAV2@XZ@4V2@A
  0003d	e8 00 00 00 00	 call	 ??0CGuildQuestProcessor@@QAE@XZ ; CGuildQuestProcessor::CGuildQuestProcessor
  00042	68 00 00 00 00	 push	 OFFSET ??__FsGuildQuestProcessor@?1??GetInstance@CGuildQuestProcessor@@SAPAV1@XZ@YAXXZ ; `CGuildQuestProcessor::GetInstance'::`2'::`dynamic atexit destructor for 'sGuildQuestProcessor''
  00047	e8 00 00 00 00	 call	 _atexit
  0004c	68 00 00 00 00	 push	 OFFSET ?$TSS0@?1??GetInstance@CGuildQuestProcessor@@SAPAV2@XZ@4HA
  00051	e8 00 00 00 00	 call	 __Init_thread_footer
  00056	83 c4 08	 add	 esp, 8
  00059	eb c1		 jmp	 SHORT $LN5@GetInstanc
?GetInstance@CGuildQuestProcessor@@SAPAV1@XZ ENDP	; CGuildQuestProcessor::GetInstance
_TEXT	ENDS
; Function compile flags: /Ogtp
; File C:\IAGOS\server\v18\Source\Source\_common\guildquest.cpp
;	COMDAT ?IsQuesting@CGuildQuestProcessor@@QAEHH@Z
_TEXT	SEGMENT
_nQuestId$ = 8						; size = 4
?IsQuesting@CGuildQuestProcessor@@QAEHH@Z PROC		; CGuildQuestProcessor::IsQuesting, COMDAT
; _this$ = ecx

; 243  : {

  00000	55		 push	 ebp
  00001	8b ec		 mov	 ebp, esp

; 244  : 	if( nQuestId >= MAX_GUILD_QUEST )

  00003	8b 45 08	 mov	 eax, DWORD PTR _nQuestId$[ebp]
  00006	8b d1		 mov	 edx, ecx
  00008	3d 00 01 00 00	 cmp	 eax, 256		; 00000100H
  0000d	7c 13		 jl	 SHORT $LN2@IsQuesting

; 245  : 	{
; 246  : 		Error( "" );

  0000f	68 00 00 00 00	 push	 OFFSET ??_C@_00CNPNBAHC@@
  00014	e8 00 00 00 00	 call	 ?Error@@YAPBDPBDZZ	; Error
  00019	83 c4 04	 add	 esp, 4

; 247  : 		return FALSE;

  0001c	33 c0		 xor	 eax, eax

; 251  : 		return TRUE;
; 252  : 	return FALSE;
; 253  : }

  0001e	5d		 pop	 ebp
  0001f	c2 04 00	 ret	 4
$LN2@IsQuesting:

; 248  : 	}
; 249  : 
; 250  : 	if( m_pElem[nQuestId].nId != -1 )

  00022	8d 0c c5 00 00
	00 00		 lea	 ecx, DWORD PTR [eax*8]
  00029	2b c8		 sub	 ecx, eax
  0002b	33 c0		 xor	 eax, eax
  0002d	83 3c 8a ff	 cmp	 DWORD PTR [edx+ecx*4], -1
  00031	0f 95 c0	 setne	 al

; 251  : 		return TRUE;
; 252  : 	return FALSE;
; 253  : }

  00034	5d		 pop	 ebp
  00035	c2 04 00	 ret	 4
?IsQuesting@CGuildQuestProcessor@@QAEHH@Z ENDP		; CGuildQuestProcessor::IsQuesting
_TEXT	ENDS
; Function compile flags: /Ogtp
; File C:\IAGOS\server\v18\Source\Source\_common\guildquest.cpp
;	COMDAT ?RemoveGuildQuest@CGuildQuestProcessor@@QAEXH@Z
_TEXT	SEGMENT
_nQuestId$ = 8						; size = 4
?RemoveGuildQuest@CGuildQuestProcessor@@QAEXH@Z PROC	; CGuildQuestProcessor::RemoveGuildQuest, COMDAT
; _this$ = ecx

; 224  : {

  00000	55		 push	 ebp
  00001	8b ec		 mov	 ebp, esp

; 225  : 	if( nQuestId >= MAX_GUILD_QUEST )

  00003	8b 55 08	 mov	 edx, DWORD PTR _nQuestId$[ebp]
  00006	81 fa 00 01 00
	00		 cmp	 edx, 256		; 00000100H
  0000c	7c 11		 jl	 SHORT $LN2@RemoveGuil

; 226  : 	{
; 227  : 		Error( "" );

  0000e	68 00 00 00 00	 push	 OFFSET ??_C@_00CNPNBAHC@@
  00013	e8 00 00 00 00	 call	 ?Error@@YAPBDPBDZZ	; Error
  00018	83 c4 04	 add	 esp, 4

; 240  : }

  0001b	5d		 pop	 ebp
  0001c	c2 04 00	 ret	 4
$LN2@RemoveGuil:

; 228  : 		return;
; 229  : 	}
; 230  : 
; 231  : 	TRACE( "REMOVE_GUILD_QUEST, %d\n", nQuestId );
; 232  : 
; 233  : 	PGUILDQUESTELEM pElem	= &m_pElem[nQuestId];

  0001f	8d 04 d5 00 00
	00 00		 lea	 eax, DWORD PTR [edx*8]
  00026	2b c2		 sub	 eax, edx

; 234  : 	pElem->nId		= -1;
; 235  : 	pElem->nState	= 0;
; 236  : 	pElem->idGuild		= 0;
; 237  : 	pElem->nProcess	= GQP_READY;
; 238  : 	pElem->dwEndTime	= 0;
; 239  : 	pElem->nCount	= 0;

  00028	33 d2		 xor	 edx, edx
  0002a	c7 04 81 ff ff
	ff ff		 mov	 DWORD PTR [ecx+eax*4], -1
  00031	c7 44 81 04 00
	00 00 00	 mov	 DWORD PTR [ecx+eax*4+4], 0
  00039	c7 44 81 08 00
	00 00 00	 mov	 DWORD PTR [ecx+eax*4+8], 0
  00041	c6 44 81 10 00	 mov	 BYTE PTR [ecx+eax*4+16], 0
  00046	c7 44 81 0c 00
	00 00 00	 mov	 DWORD PTR [ecx+eax*4+12], 0
  0004e	66 89 54 81 18	 mov	 WORD PTR [ecx+eax*4+24], dx

; 240  : }

  00053	5d		 pop	 ebp
  00054	c2 04 00	 ret	 4
?RemoveGuildQuest@CGuildQuestProcessor@@QAEXH@Z ENDP	; CGuildQuestProcessor::RemoveGuildQuest
_TEXT	ENDS
; Function compile flags: /Ogtp
; File C:\IAGOS\server\v18\Source\Source\_common\guildquest.cpp
;	COMDAT ?GetGuildQuest@CGuildQuestProcessor@@QAEPAU_GUILDQUESTELEM@@H@Z
_TEXT	SEGMENT
_nQuestId$ = 8						; size = 4
?GetGuildQuest@CGuildQuestProcessor@@QAEPAU_GUILDQUESTELEM@@H@Z PROC ; CGuildQuestProcessor::GetGuildQuest, COMDAT
; _this$ = ecx

; 211  : {

  00000	55		 push	 ebp
  00001	8b ec		 mov	 ebp, esp

; 212  : 	if( nQuestId >= MAX_GUILD_QUEST )

  00003	8b 55 08	 mov	 edx, DWORD PTR _nQuestId$[ebp]
  00006	81 fa 00 01 00
	00		 cmp	 edx, 256		; 00000100H
  0000c	7c 13		 jl	 SHORT $LN2@GetGuildQu

; 213  : 	{
; 214  : 		Error( "" );

  0000e	68 00 00 00 00	 push	 OFFSET ??_C@_00CNPNBAHC@@
  00013	e8 00 00 00 00	 call	 ?Error@@YAPBDPBDZZ	; Error
  00018	83 c4 04	 add	 esp, 4

; 215  : 		return NULL;

  0001b	33 c0		 xor	 eax, eax

; 218  : 		return NULL;
; 219  : 
; 220  : 	return &m_pElem[nQuestId];
; 221  : }

  0001d	5d		 pop	 ebp
  0001e	c2 04 00	 ret	 4
$LN2@GetGuildQu:

; 216  : 	}
; 217  : 	if( m_pElem[nQuestId].nId == -1 )

  00021	8d 04 d5 00 00
	00 00		 lea	 eax, DWORD PTR [edx*8]
  00028	2b c2		 sub	 eax, edx
  0002a	8d 04 81	 lea	 eax, DWORD PTR [ecx+eax*4]
  0002d	33 c9		 xor	 ecx, ecx
  0002f	83 38 ff	 cmp	 DWORD PTR [eax], -1
  00032	0f 44 c1	 cmove	 eax, ecx

; 218  : 		return NULL;
; 219  : 
; 220  : 	return &m_pElem[nQuestId];
; 221  : }

  00035	5d		 pop	 ebp
  00036	c2 04 00	 ret	 4
?GetGuildQuest@CGuildQuestProcessor@@QAEPAU_GUILDQUESTELEM@@H@Z ENDP ; CGuildQuestProcessor::GetGuildQuest
_TEXT	ENDS
; Function compile flags: /Ogtp
; File C:\IAGOS\server\v18\Source\Source\_common\guildquest.cpp
;	COMDAT ?SetGuildQuest@CGuildQuestProcessor@@QAEXHHHHKK@Z
_TEXT	SEGMENT
_nQuestId$ = 8						; size = 4
_nState$ = 12						; size = 4
_ns$ = 16						; size = 4
_nf$ = 20						; size = 4
_idGuild$ = 24						; size = 4
_objidWormon$ = 28					; size = 4
?SetGuildQuest@CGuildQuestProcessor@@QAEXHHHHKK@Z PROC	; CGuildQuestProcessor::SetGuildQuest, COMDAT
; _this$ = ecx

; 177  : {

  00000	55		 push	 ebp
  00001	8b ec		 mov	 ebp, esp
  00003	56		 push	 esi
  00004	57		 push	 edi

; 178  : 	if( nQuestId >= MAX_GUILD_QUEST )

  00005	8b 7d 08	 mov	 edi, DWORD PTR _nQuestId$[ebp]
  00008	8b f1		 mov	 esi, ecx
  0000a	81 ff 00 01 00
	00		 cmp	 edi, 256		; 00000100H
  00010	7d 59		 jge	 SHORT $LN5@SetGuildQu

; 179  : 	{
; 180  : 		Error( "" );
; 181  : 		return;
; 182  : 	}
; 183  : 	GUILDQUESTPROP* pProp	= prj.GetGuildQuestProp( nQuestId );

  00012	57		 push	 edi
  00013	b9 00 00 00 00	 mov	 ecx, OFFSET ?prj@@3VCProject@@A ; prj
  00018	e8 00 00 00 00	 call	 ?GetGuildQuestProp@CProject@@QAEPAUGUILDQUESTPROP@@H@Z ; CProject::GetGuildQuestProp

; 184  : 	if( !pProp )

  0001d	85 c0		 test	 eax, eax
  0001f	74 4a		 je	 SHORT $LN5@SetGuildQu

; 187  : 		return;
; 188  : 	}
; 189  : 
; 190  : 	TRACE( "SET_GUILD_QUEST, %d, %d, %d\n", nQuestId, idGuild, objidWormon );
; 191  : 	PGUILDQUESTELEM	pElem	= &m_pElem[nQuestId];

  00021	8d 04 fd 00 00
	00 00		 lea	 eax, DWORD PTR [edi*8]
  00028	2b c7		 sub	 eax, edi
  0002a	8d 34 86	 lea	 esi, DWORD PTR [esi+eax*4]

; 192  : 	pElem->nId	= nQuestId;
; 193  : 	pElem->nState	= nState;

  0002d	8b 45 0c	 mov	 eax, DWORD PTR _nState$[ebp]
  00030	89 3e		 mov	 DWORD PTR [esi], edi
  00032	89 46 04	 mov	 DWORD PTR [esi+4], eax

; 194  : 	pElem->idGuild	= idGuild;

  00035	8b 45 18	 mov	 eax, DWORD PTR _idGuild$[ebp]
  00038	89 46 08	 mov	 DWORD PTR [esi+8], eax

; 195  : //	pElem->dwEndTime	= GetTickCount() + pProp->dwTime;
; 196  : //	pElem->nProcess		=  nProcess;
; 197  : //#ifdef __INTERNALSERVER
; 198  : //	pElem->dwEndTime	= GetTickCount() + MIN( 10 );
; 199  : //#else	// __INTERNALSERVER
; 200  : 	pElem->dwEndTime	= GetTickCount() + MIN( 60 );

  0003b	ff 15 00 00 00
	00		 call	 DWORD PTR __imp__GetTickCount@0
  00041	05 80 ee 36 00	 add	 eax, 3600000		; 0036ee80H

; 201  : //#endif	// __INTERNALSERVER
; 202  : 	
; 203  : 	pElem->nProcess		= GQP_WORMON;

  00046	c6 46 10 01	 mov	 BYTE PTR [esi+16], 1
  0004a	89 46 0c	 mov	 DWORD PTR [esi+12], eax

; 204  : 	pElem->ns	= ns;

  0004d	8a 45 10	 mov	 al, BYTE PTR _ns$[ebp]
  00050	88 46 11	 mov	 BYTE PTR [esi+17], al

; 205  : 	pElem->nf	= nf;

  00053	8a 45 14	 mov	 al, BYTE PTR _nf$[ebp]
  00056	88 46 12	 mov	 BYTE PTR [esi+18], al

; 206  : 	pElem->objidWormon	= objidWormon;

  00059	8b 45 1c	 mov	 eax, DWORD PTR _objidWormon$[ebp]
  0005c	89 46 14	 mov	 DWORD PTR [esi+20], eax

; 207  : 	pElem->nCount	= 0;

  0005f	33 c0		 xor	 eax, eax
  00061	5f		 pop	 edi
  00062	66 89 46 18	 mov	 WORD PTR [esi+24], ax

; 208  : }

  00066	5e		 pop	 esi
  00067	5d		 pop	 ebp
  00068	c2 18 00	 ret	 24			; 00000018H
$LN5@SetGuildQu:

; 185  : 	{
; 186  : 		Error( "" );

  0006b	68 00 00 00 00	 push	 OFFSET ??_C@_00CNPNBAHC@@
  00070	e8 00 00 00 00	 call	 ?Error@@YAPBDPBDZZ	; Error
  00075	83 c4 04	 add	 esp, 4
  00078	5f		 pop	 edi

; 208  : }

  00079	5e		 pop	 esi
  0007a	5d		 pop	 ebp
  0007b	c2 18 00	 ret	 24			; 00000018H
?SetGuildQuest@CGuildQuestProcessor@@QAEXHHHHKK@Z ENDP	; CGuildQuestProcessor::SetGuildQuest
_TEXT	ENDS
; Function compile flags: /Ogtp
; File C:\IAGOS\server\v18\Source\Source\_common\guildquest.cpp
; File C:\Program Files\Microsoft Visual Studio\2022\Professional\VC\Tools\MSVC\14.44.35207\atlmfc\include\atltypes.h
; File C:\IAGOS\server\v18\Source\Source\_common\guildquest.cpp
; File C:\Program Files\Microsoft Visual Studio\2022\Professional\VC\Tools\MSVC\14.44.35207\atlmfc\include\atltypes.h
; File C:\IAGOS\server\v18\Source\Source\_common\guildquest.cpp
; File C:\Program Files\Microsoft Visual Studio\2022\Professional\VC\Tools\MSVC\14.44.35207\atlmfc\include\atltypes.h
; File C:\IAGOS\server\v18\Source\Source\_common\guildquest.cpp
; File C:\Program Files\Microsoft Visual Studio\2022\Professional\VC\Tools\MSVC\14.44.35207\include\xtree
; File C:\IAGOS\server\v18\Source\Source\_common\guildquest.cpp
; File C:\Program Files\Microsoft Visual Studio\2022\Professional\VC\Tools\MSVC\14.44.35207\include\xtree
; File C:\IAGOS\server\v18\Source\Source\_common\guildquest.cpp
; File C:\Program Files\Microsoft Visual Studio\2022\Professional\VC\Tools\MSVC\14.44.35207\include\xtree
; File C:\Program Files\Microsoft Visual Studio\2022\Professional\VC\Tools\MSVC\14.44.35207\include\type_traits
; File C:\Program Files\Microsoft Visual Studio\2022\Professional\VC\Tools\MSVC\14.44.35207\include\xtree
; File C:\Program Files\Microsoft Visual Studio\2022\Professional\VC\Tools\MSVC\14.44.35207\include\type_traits
; File C:\Program Files\Microsoft Visual Studio\2022\Professional\VC\Tools\MSVC\14.44.35207\include\xtree
; File C:\IAGOS\server\v18\Source\Source\_Common\Project.h
; File C:\IAGOS\server\v18\Source\Source\_Common\Obj.h
; File C:\IAGOS\server\v18\Source\Source\_common\guildquest.cpp
; File C:\IAGOS\server\v18\Source\Source\_Common\Obj.h
; File C:\IAGOS\server\v18\Source\Source\_common\guildquest.cpp
; File C:\Program Files\Microsoft Visual Studio\2022\Professional\VC\Tools\MSVC\14.44.35207\atlmfc\include\atltypes.h
; File C:\IAGOS\server\v18\Source\Source\_Common\Obj.h
; File C:\Program Files\Microsoft Visual Studio\2022\Professional\VC\Tools\MSVC\14.44.35207\atlmfc\include\atltypes.h
; File C:\IAGOS\server\v18\Source\Source\_common\guildquest.cpp
; File C:\Program Files\Microsoft Visual Studio\2022\Professional\VC\Tools\MSVC\14.44.35207\include\xtree
; File C:\IAGOS\server\v18\Source\Source\_common\guildquest.cpp
; File C:\Program Files\Microsoft Visual Studio\2022\Professional\VC\Tools\MSVC\14.44.35207\atlmfc\include\atltypes.h
; File C:\IAGOS\server\v18\Source\Source\_common\guildquest.cpp
; File C:\Program Files\Microsoft Visual Studio\2022\Professional\VC\Tools\MSVC\14.44.35207\include\xtree
; File C:\IAGOS\server\v18\Source\Source\_common\guildquest.cpp
; File C:\Program Files\Microsoft Visual Studio\2022\Professional\VC\Tools\MSVC\14.44.35207\include\xtree
; File C:\IAGOS\server\v18\Source\Source\_common\guildquest.cpp
; File C:\Program Files\Microsoft Visual Studio\2022\Professional\VC\Tools\MSVC\14.44.35207\include\xtree
; File C:\Program Files\Microsoft Visual Studio\2022\Professional\VC\Tools\MSVC\14.44.35207\include\type_traits
; File C:\Program Files\Microsoft Visual Studio\2022\Professional\VC\Tools\MSVC\14.44.35207\include\xtree
; File C:\Program Files\Microsoft Visual Studio\2022\Professional\VC\Tools\MSVC\14.44.35207\include\type_traits
; File C:\Program Files\Microsoft Visual Studio\2022\Professional\VC\Tools\MSVC\14.44.35207\include\xtree
; File C:\IAGOS\server\v18\Source\Source\_Common\Project.h
; File C:\IAGOS\server\v18\Source\Source\_Common\Obj.h
; File C:\IAGOS\server\v18\Source\Source\_common\guildquest.cpp
; File C:\IAGOS\server\v18\Source\Source\_Common\Obj.h
; File C:\IAGOS\server\v18\Source\Source\_common\guildquest.cpp
; File C:\Program Files\Microsoft Visual Studio\2022\Professional\VC\Tools\MSVC\14.44.35207\atlmfc\include\atltypes.h
; File C:\IAGOS\server\v18\Source\Source\_Common\Obj.h
; File C:\Program Files\Microsoft Visual Studio\2022\Professional\VC\Tools\MSVC\14.44.35207\atlmfc\include\atltypes.h
; File C:\IAGOS\server\v18\Source\Source\_common\guildquest.cpp
; File C:\IAGOS\server\v18\Source\Source\_Common\Mover.h
; File C:\IAGOS\server\v18\Source\Source\_common\guildquest.cpp
; File C:\Program Files\Microsoft Visual Studio\2022\Professional\VC\Tools\MSVC\14.44.35207\include\xtree
; File C:\IAGOS\server\v18\Source\Source\_common\guildquest.cpp
;	COMDAT ?Process@CGuildQuestProcessor@@QAEXXZ
_TEXT	SEGMENT
$T3 = -88						; size = 12
$T4 = -76						; size = 12
$T5 = -64						; size = 12
$T6 = -52						; size = 12
_dwTickCount$1$ = -40					; size = 4
_pGuild$1$ = -36					; size = 4
tv1649 = -32						; size = 4
_i$1$ = -28						; size = 4
_i$7 = -24						; size = 4
_i$8 = -24						; size = 4
_rect$9 = -20						; size = 16
_rect$10 = -20						; size = 16
_rect$11 = -20						; size = 16
_rect$12 = -20						; size = 16
__$ArrayPad$ = -4					; size = 4
?Process@CGuildQuestProcessor@@QAEXXZ PROC		; CGuildQuestProcessor::Process, COMDAT
; _this$ = ecx

; 22   : {

  00000	55		 push	 ebp
  00001	8b ec		 mov	 ebp, esp
  00003	83 ec 58	 sub	 esp, 88			; 00000058H
  00006	a1 00 00 00 00	 mov	 eax, DWORD PTR ___security_cookie
  0000b	33 c5		 xor	 eax, ebp
  0000d	89 45 fc	 mov	 DWORD PTR __$ArrayPad$[ebp], eax
  00010	53		 push	 ebx
  00011	56		 push	 esi
  00012	57		 push	 edi
  00013	8b d9		 mov	 ebx, ecx

; 23   : 	DWORD dwTickCount	= GetTickCount();

  00015	ff 15 00 00 00
	00		 call	 DWORD PTR __imp__GetTickCount@0

; 24   : 	for( int i = 0; i < MAX_GUILD_QUEST; i++ )

  0001b	33 f6		 xor	 esi, esi
  0001d	89 45 d8	 mov	 DWORD PTR _dwTickCount$1$[ebp], eax
  00020	89 75 e4	 mov	 DWORD PTR _i$1$[ebp], esi
$LL4@Process:

; 25   : 	{
; 26   : 		PGUILDQUESTELEM pElem = &m_pElem[i];

  00023	8b 45 e4	 mov	 eax, DWORD PTR _i$1$[ebp]
  00026	c1 e6 03	 shl	 esi, 3
  00029	2b f0		 sub	 esi, eax
  0002b	89 75 e0	 mov	 DWORD PTR tv1649[ebp], esi

; 27   : 		if( pElem->nId == i )

  0002e	39 04 b3	 cmp	 DWORD PTR [ebx+esi*4], eax
  00031	0f 85 2c 03 00
	00		 jne	 $LN2@Process

; 28   : 		{
; 29   : 			CGuild* pGuild	= g_GuildMng.GetGuild( pElem->idGuild );

  00037	ff 74 b3 08	 push	 DWORD PTR [ebx+esi*4+8]
  0003b	b9 00 00 00 00	 mov	 ecx, OFFSET ?g_GuildMng@@3VCGuildMng@@A ; g_GuildMng
  00040	e8 00 00 00 00	 call	 ?GetGuild@CGuildMng@@QAEPAVCGuild@@K@Z ; CGuildMng::GetGuild

; 30   : //			if( !pGuild )
; 31   : //				continue;
; 32   : 
; 33   : 			GUILDQUESTPROP* pProp	= prj.GetGuildQuestProp( pElem->nId );

  00045	ff 34 b3	 push	 DWORD PTR [ebx+esi*4]
  00048	8b f8		 mov	 edi, eax
  0004a	b9 00 00 00 00	 mov	 ecx, OFFSET ?prj@@3VCProject@@A ; prj
  0004f	89 7d dc	 mov	 DWORD PTR _pGuild$1$[ebp], edi
  00052	e8 00 00 00 00	 call	 ?GetGuildQuestProp@CProject@@QAEPAUGUILDQUESTPROP@@H@Z ; CProject::GetGuildQuestProp

; 34   : 			if( !pProp )

  00057	85 c0		 test	 eax, eax
  00059	0f 84 04 03 00
	00		 je	 $LN2@Process

; 35   : 				continue;
; 36   : 
; 37   : 			if( pElem->dwEndTime < dwTickCount )

  0005f	8b 55 d8	 mov	 edx, DWORD PTR _dwTickCount$1$[ebp]
  00062	0f b6 4c b3 10	 movzx	 ecx, BYTE PTR [ebx+esi*4+16]
  00067	39 54 b3 0c	 cmp	 DWORD PTR [ebx+esi*4+12], edx
  0006b	0f 83 85 00 00
	00		 jae	 $LN17@Process

; 38   : 			{
; 39   : 				switch( pElem->nProcess )

  00071	83 e9 01	 sub	 ecx, 1
  00074	74 4a		 je	 SHORT $LN19@Process
  00076	83 e9 01	 sub	 ecx, 1
  00079	0f 85 e4 02 00
	00		 jne	 $LN2@Process
; File C:\Program Files\Microsoft Visual Studio\2022\Professional\VC\Tools\MSVC\14.44.35207\atlmfc\include\atltypes.h

; 661  : 	::SetRect(this, x1, y1, x2, y2);

  0007f	ff b0 7c 10 00
	00		 push	 DWORD PTR [eax+4220]
  00085	0f 57 c0	 xorps	 xmm0, xmm0
  00088	ff b0 80 10 00
	00		 push	 DWORD PTR [eax+4224]
  0008e	0f 11 45 ec	 movups	 XMMWORD PTR _rect$10[ebp], xmm0
  00092	ff b0 84 10 00
	00		 push	 DWORD PTR [eax+4228]
  00098	ff b0 78 10 00
	00		 push	 DWORD PTR [eax+4216]
  0009e	8d 45 ec	 lea	 eax, DWORD PTR _rect$10[ebp]
  000a1	50		 push	 eax
  000a2	ff 15 00 00 00
	00		 call	 DWORD PTR __imp__SetRect@20
; File C:\IAGOS\server\v18\Source\Source\_common\guildquest.cpp

; 68   : 							if( pGuild )

  000a8	85 ff		 test	 edi, edi
  000aa	0f 84 a9 02 00
	00		 je	 $LN32@Process

; 69   : 							{
; 70   : 								pGuild->ReplaceLodestar( rect );

  000b0	8d 45 ec	 lea	 eax, DWORD PTR _rect$10[ebp]
  000b3	8b cf		 mov	 ecx, edi
  000b5	50		 push	 eax
  000b6	e8 00 00 00 00	 call	 ?ReplaceLodestar@CGuild@@QAEXABVCRect@@@Z ; CGuild::ReplaceLodestar

; 71   : 							}
; 72   : 
; 73   : 							RemoveGuildQuest( pElem->nId );
; 74   : 						}
; 75   : 						break;

  000bb	e9 99 02 00 00	 jmp	 $LN32@Process
$LN19@Process:
; File C:\Program Files\Microsoft Visual Studio\2022\Professional\VC\Tools\MSVC\14.44.35207\atlmfc\include\atltypes.h

; 661  : 	::SetRect(this, x1, y1, x2, y2);

  000c0	ff b0 7c 10 00
	00		 push	 DWORD PTR [eax+4220]
  000c6	0f 57 c0	 xorps	 xmm0, xmm0
  000c9	ff b0 80 10 00
	00		 push	 DWORD PTR [eax+4224]

; 532  : 	left = 0;

  000cf	0f 11 45 ec	 movups	 XMMWORD PTR _rect$9[ebp], xmm0

; 661  : 	::SetRect(this, x1, y1, x2, y2);

  000d3	ff b0 84 10 00
	00		 push	 DWORD PTR [eax+4228]
  000d9	ff b0 78 10 00
	00		 push	 DWORD PTR [eax+4216]
  000df	8d 45 ec	 lea	 eax, DWORD PTR _rect$9[ebp]
  000e2	50		 push	 eax
  000e3	ff 15 00 00 00
	00		 call	 DWORD PTR __imp__SetRect@20
; File C:\IAGOS\server\v18\Source\Source\_common\guildquest.cpp

; 48   : 							if( pGuild )

  000e9	85 ff		 test	 edi, edi
  000eb	0f 84 4f 02 00
	00		 je	 $LN31@Process

; 76   : 					default:
; 77   : 						break;
; 78   : 				}
; 79   : 			}

  000f1	e9 19 02 00 00	 jmp	 $LN346@Process
$LN17@Process:

; 80   : 			else
; 81   : 			{
; 82   : 				switch( pElem->nProcess )

  000f6	83 e9 01	 sub	 ecx, 1
  000f9	0f 84 fe 00 00
	00		 je	 $LN25@Process
  000ff	83 e9 01	 sub	 ecx, 1
  00102	0f 85 5b 02 00
	00		 jne	 $LN2@Process
; File C:\Program Files\Microsoft Visual Studio\2022\Professional\VC\Tools\MSVC\14.44.35207\atlmfc\include\atltypes.h

; 661  : 	::SetRect(this, x1, y1, x2, y2);

  00108	ff b0 7c 10 00
	00		 push	 DWORD PTR [eax+4220]
  0010e	0f 57 c0	 xorps	 xmm0, xmm0
  00111	ff b0 80 10 00
	00		 push	 DWORD PTR [eax+4224]

; 532  : 	left = 0;

  00117	0f 11 45 ec	 movups	 XMMWORD PTR _rect$12[ebp], xmm0

; 661  : 	::SetRect(this, x1, y1, x2, y2);

  0011b	ff b0 84 10 00
	00		 push	 DWORD PTR [eax+4228]
  00121	ff b0 78 10 00
	00		 push	 DWORD PTR [eax+4216]
  00127	8d 45 ec	 lea	 eax, DWORD PTR _rect$12[ebp]
  0012a	50		 push	 eax
  0012b	ff 15 00 00 00
	00		 call	 DWORD PTR __imp__SetRect@20
; File C:\IAGOS\server\v18\Source\Source\_common\guildquest.cpp

; 138  : 							if( pGuild )

  00131	85 ff		 test	 edi, edi
  00133	0f 84 20 02 00
	00		 je	 $LN32@Process
; File C:\Program Files\Microsoft Visual Studio\2022\Professional\VC\Tools\MSVC\14.44.35207\include\xtree

; 1142 :         return iterator(_Scary->_Myhead->_Left, _Scary);

  00139	8b 4f 38	 mov	 ecx, DWORD PTR [edi+56]

; 37   :     _Tree_unchecked_const_iterator(_Nodeptr _Pnode, const _Mytree* _Plist) noexcept : _Ptr(_Pnode) {

  0013c	8b 01		 mov	 eax, DWORD PTR [ecx]
  0013e	89 45 e8	 mov	 DWORD PTR _i$8[ebp], eax

; 237  :         return !(*this == _Right);

  00141	3b c1		 cmp	 eax, ecx
; File C:\IAGOS\server\v18\Source\Source\_common\guildquest.cpp

; 142  : 								for( map<u_long, CGuildMember*>::iterator i = pGuild->m_mapPMember.begin(); i != pGuild->m_mapPMember.end(); ++i )

  00143	0f 84 a4 00 00
	00		 je	 $LN347@Process
  00149	8b 35 28 00 00
	00		 mov	 esi, DWORD PTR ?prj@@3VCProject@@A+40
  0014f	90		 npad	 1
$LL14@Process:

; 145  : 									pUser	= (CUser*)prj.GetUserByID( pMember->m_idPlayer );

  00150	8b 40 14	 mov	 eax, DWORD PTR [eax+20]
; File C:\Program Files\Microsoft Visual Studio\2022\Professional\VC\Tools\MSVC\14.44.35207\include\xtree

; 1630 :         _Tree_find_result<_Nodeptr> _Result{{_Scary->_Myhead->_Parent, _Tree_child::_Right}, _Scary->_Myhead};

  00153	8b ce		 mov	 ecx, esi
; File C:\IAGOS\server\v18\Source\Source\_common\guildquest.cpp

; 145  : 									pUser	= (CUser*)prj.GetUserByID( pMember->m_idPlayer );

  00155	8b 50 04	 mov	 edx, DWORD PTR [eax+4]
; File C:\Program Files\Microsoft Visual Studio\2022\Professional\VC\Tools\MSVC\14.44.35207\include\xtree

; 1630 :         _Tree_find_result<_Nodeptr> _Result{{_Scary->_Myhead->_Parent, _Tree_child::_Right}, _Scary->_Myhead};

  00158	8b 46 04	 mov	 eax, DWORD PTR [esi+4]

; 1631 :         _Nodeptr _Trynode = _Result._Location._Parent;
; 1632 :         while (!_Trynode->_Isnil) {

  0015b	80 78 0d 00	 cmp	 BYTE PTR [eax+13], 0
  0015f	75 14		 jne	 SHORT $LN60@Process
$LL59@Process:
; File C:\Program Files\Microsoft Visual Studio\2022\Professional\VC\Tools\MSVC\14.44.35207\include\type_traits

; 2380 :         return _Left < _Right;

  00161	39 50 10	 cmp	 DWORD PTR [eax+16], edx
; File C:\Program Files\Microsoft Visual Studio\2022\Professional\VC\Tools\MSVC\14.44.35207\include\xtree

; 1634 :             if (_DEBUG_LT_PRED(_Getcomp(), _Traits::_Kfn(_Trynode->_Myval), _Keyval)) {

  00164	73 05		 jae	 SHORT $LN61@Process

; 1635 :                 _Result._Location._Child = _Tree_child::_Right;
; 1636 :                 _Trynode                 = _Trynode->_Right;

  00166	8b 40 08	 mov	 eax, DWORD PTR [eax+8]

; 1637 :             } else {

  00169	eb 04		 jmp	 SHORT $LN62@Process
$LN61@Process:

; 1638 :                 _Result._Location._Child = _Tree_child::_Left;
; 1639 :                 _Result._Bound           = _Trynode;

  0016b	8b c8		 mov	 ecx, eax

; 1640 :                 _Trynode                 = _Trynode->_Left;

  0016d	8b 00		 mov	 eax, DWORD PTR [eax]
$LN62@Process:

; 1631 :         _Nodeptr _Trynode = _Result._Location._Parent;
; 1632 :         while (!_Trynode->_Isnil) {

  0016f	80 78 0d 00	 cmp	 BYTE PTR [eax+13], 0
  00173	74 ec		 je	 SHORT $LL59@Process
$LN60@Process:

; 1624 :         return !_Bound->_Isnil && !_DEBUG_LT_PRED(_Getcomp(), _Keyval, _Traits::_Kfn(_Bound->_Myval));

  00175	80 79 0d 00	 cmp	 BYTE PTR [ecx+13], 0
  00179	75 05		 jne	 SHORT $LN56@Process
; File C:\Program Files\Microsoft Visual Studio\2022\Professional\VC\Tools\MSVC\14.44.35207\include\type_traits

; 2380 :         return _Left < _Right;

  0017b	3b 51 10	 cmp	 edx, DWORD PTR [ecx+16]
; File C:\Program Files\Microsoft Visual Studio\2022\Professional\VC\Tools\MSVC\14.44.35207\include\xtree

; 1624 :         return !_Bound->_Isnil && !_DEBUG_LT_PRED(_Getcomp(), _Keyval, _Traits::_Kfn(_Bound->_Myval));

  0017e	73 02		 jae	 SHORT $LN55@Process
$LN56@Process:

; 1389 :         return _Get_scary()->_Myhead;

  00180	8b ce		 mov	 ecx, esi
$LN55@Process:

; 37   :     _Tree_unchecked_const_iterator(_Nodeptr _Pnode, const _Mytree* _Plist) noexcept : _Ptr(_Pnode) {

  00182	3b ce		 cmp	 ecx, esi
; File C:\IAGOS\server\v18\Source\Source\_Common\Project.h

; 1436 : 	if( i != m_idPlayerToUserPtr.end() )

  00184	74 50		 je	 SHORT $LN12@Process

; 1437 : 		return i->second;

  00186	8b 51 14	 mov	 edx, DWORD PTR [ecx+20]
; File C:\IAGOS\server\v18\Source\Source\_Common\Obj.h

; 327  : 	return pObj && ( pObj->IsDelete() == FALSE ); 

  00189	85 d2		 test	 edx, edx
  0018b	74 49		 je	 SHORT $LN12@Process

; 180  : 	BOOL			IsDelete()	{ return (m_dwFlags & OBJ_FLAG_DELETE);  }

  0018d	f6 42 04 01	 test	 BYTE PTR [edx+4], 1

; 327  : 	return pObj && ( pObj->IsDelete() == FALSE ); 

  00191	75 43		 jne	 SHORT $LN12@Process

; 215  : 	D3DXVECTOR3		GetPos()	{ return m_vPos; }

  00193	8b 82 68 01 00
	00		 mov	 eax, DWORD PTR [edx+360]
  00199	f3 0f 7e 82 60
	01 00 00	 movq	 xmm0, QWORD PTR [edx+352]
  001a1	89 45 c8	 mov	 DWORD PTR $T5[ebp+8], eax
; File C:\IAGOS\server\v18\Source\Source\_common\guildquest.cpp

; 148  : 										POINT point = { (int)pUser->GetPos().x, (int)pUser->GetPos().z	};

  001a4	f3 0f 2c 45 c8	 cvttss2si eax, DWORD PTR $T5[ebp+8]
; File C:\IAGOS\server\v18\Source\Source\_Common\Obj.h

; 215  : 	D3DXVECTOR3		GetPos()	{ return m_vPos; }

  001a9	66 0f d6 45 cc	 movq	 QWORD PTR $T6[ebp], xmm0
  001ae	f3 0f 7e c0	 movq	 xmm0, xmm0
; File C:\IAGOS\server\v18\Source\Source\_common\guildquest.cpp

; 148  : 										POINT point = { (int)pUser->GetPos().x, (int)pUser->GetPos().z	};

  001b2	f3 0f 2c 4d cc	 cvttss2si ecx, DWORD PTR $T6[ebp]
; File C:\Program Files\Microsoft Visual Studio\2022\Professional\VC\Tools\MSVC\14.44.35207\atlmfc\include\atltypes.h

; 652  : 	return ::PtInRect(this, point);

  001b7	50		 push	 eax
  001b8	8d 45 ec	 lea	 eax, DWORD PTR _rect$12[ebp]
; File C:\IAGOS\server\v18\Source\Source\_Common\Obj.h

; 215  : 	D3DXVECTOR3		GetPos()	{ return m_vPos; }

  001bb	66 0f d6 45 c0	 movq	 QWORD PTR $T5[ebp], xmm0
; File C:\Program Files\Microsoft Visual Studio\2022\Professional\VC\Tools\MSVC\14.44.35207\atlmfc\include\atltypes.h

; 652  : 	return ::PtInRect(this, point);

  001c0	51		 push	 ecx
  001c1	50		 push	 eax
  001c2	ff 15 00 00 00
	00		 call	 DWORD PTR __imp__PtInRect@12
; File C:\IAGOS\server\v18\Source\Source\_common\guildquest.cpp

; 149  : 										if( rect.PtInRect( point ) )

  001c8	85 c0		 test	 eax, eax
  001ca	0f 85 93 01 00
	00		 jne	 $LN2@Process
  001d0	8b 35 28 00 00
	00		 mov	 esi, DWORD PTR ?prj@@3VCProject@@A+40
$LN12@Process:

; 142  : 								for( map<u_long, CGuildMember*>::iterator i = pGuild->m_mapPMember.begin(); i != pGuild->m_mapPMember.end(); ++i )

  001d6	8d 4d e8	 lea	 ecx, DWORD PTR _i$8[ebp]
  001d9	e8 00 00 00 00	 call	 ??E?$_Tree_iterator@V?$_Tree_val@U?$_Tree_simple_types@U?$pair@$$CBKPAVCGuildMember@@@std@@@std@@@std@@@std@@QAEAAV01@XZ ; std::_Tree_iterator<std::_Tree_val<std::_Tree_simple_types<std::pair<unsigned long const ,CGuildMember *> > > >::operator++
; File C:\Program Files\Microsoft Visual Studio\2022\Professional\VC\Tools\MSVC\14.44.35207\include\xtree

; 237  :         return !(*this == _Right);

  001de	8b 45 e8	 mov	 eax, DWORD PTR _i$8[ebp]
  001e1	3b 47 38	 cmp	 eax, DWORD PTR [edi+56]
; File C:\IAGOS\server\v18\Source\Source\_common\guildquest.cpp

; 142  : 								for( map<u_long, CGuildMember*>::iterator i = pGuild->m_mapPMember.begin(); i != pGuild->m_mapPMember.end(); ++i )

  001e4	0f 85 66 ff ff
	ff		 jne	 $LL14@Process
  001ea	8b 75 e0	 mov	 esi, DWORD PTR tv1649[ebp]
$LN347@Process:

; 150  : 										{
; 151  : 											bexist	= TRUE;
; 152  : 											break;
; 153  : 										}
; 154  : 									}
; 155  : 								}
; 156  : 							}
; 157  : 
; 158  : 							if( !bexist )
; 159  : 							{
; 160  : 								if( pGuild )
; 161  : 								{
; 162  : 									pGuild->ReplaceLodestar( rect );

  001ed	8d 45 ec	 lea	 eax, DWORD PTR _rect$12[ebp]
  001f0	8b cf		 mov	 ecx, edi
  001f2	50		 push	 eax
  001f3	e8 00 00 00 00	 call	 ?ReplaceLodestar@CGuild@@QAEXABVCRect@@@Z ; CGuild::ReplaceLodestar

; 163  : 								}
; 164  : 								RemoveGuildQuest( pElem->nId );
; 165  : 							}
; 166  : 						}
; 167  : 						break;

  001f8	e9 5c 01 00 00	 jmp	 $LN32@Process
$LN25@Process:

; 83   : 				{
; 84   : 					case GQP_WORMON:
; 85   : 						{
; 86   : 							TRACE( "GQP_WORMON - p\n" );
; 87   : 							
; 88   : 							if( ++pElem->nCount < 10 )

  001fd	66 ff 44 b3 18	 inc	 WORD PTR [ebx+esi*4+24]
  00202	66 83 7c b3 18
	0a		 cmp	 WORD PTR [ebx+esi*4+24], 10 ; 0000000aH
  00208	0f 8c 55 01 00
	00		 jl	 $LN2@Process
; File C:\Program Files\Microsoft Visual Studio\2022\Professional\VC\Tools\MSVC\14.44.35207\atlmfc\include\atltypes.h

; 661  : 	::SetRect(this, x1, y1, x2, y2);

  0020e	ff b0 7c 10 00
	00		 push	 DWORD PTR [eax+4220]
  00214	0f 57 c0	 xorps	 xmm0, xmm0
  00217	ff b0 80 10 00
	00		 push	 DWORD PTR [eax+4224]

; 532  : 	left = 0;

  0021d	0f 11 45 ec	 movups	 XMMWORD PTR _rect$11[ebp], xmm0

; 661  : 	::SetRect(this, x1, y1, x2, y2);

  00221	ff b0 84 10 00
	00		 push	 DWORD PTR [eax+4228]
  00227	ff b0 78 10 00
	00		 push	 DWORD PTR [eax+4216]
  0022d	8d 45 ec	 lea	 eax, DWORD PTR _rect$11[ebp]
  00230	50		 push	 eax
  00231	ff 15 00 00 00
	00		 call	 DWORD PTR __imp__SetRect@20
; File C:\IAGOS\server\v18\Source\Source\_common\guildquest.cpp

; 95   : 							if( pGuild )

  00237	85 ff		 test	 edi, edi
  00239	0f 84 01 01 00
	00		 je	 $LN31@Process
; File C:\Program Files\Microsoft Visual Studio\2022\Professional\VC\Tools\MSVC\14.44.35207\include\xtree

; 1142 :         return iterator(_Scary->_Myhead->_Left, _Scary);

  0023f	8b 4f 38	 mov	 ecx, DWORD PTR [edi+56]

; 37   :     _Tree_unchecked_const_iterator(_Nodeptr _Pnode, const _Mytree* _Plist) noexcept : _Ptr(_Pnode) {

  00242	8b 01		 mov	 eax, DWORD PTR [ecx]
  00244	89 45 e8	 mov	 DWORD PTR _i$7[ebp], eax

; 237  :         return !(*this == _Right);

  00247	3b c1		 cmp	 eax, ecx
; File C:\IAGOS\server\v18\Source\Source\_common\guildquest.cpp

; 99   : 								for( map<u_long, CGuildMember*>::iterator i = pGuild->m_mapPMember.begin(); i != pGuild->m_mapPMember.end(); ++i )

  00249	0f 84 c0 00 00
	00		 je	 $LN346@Process
  0024f	8b 3d 28 00 00
	00		 mov	 edi, DWORD PTR ?prj@@3VCProject@@A+40
$LL11@Process:

; 102  : 									pUser	= (CUser*)prj.GetUserByID( pMember->m_idPlayer );

  00255	8b 40 14	 mov	 eax, DWORD PTR [eax+20]
; File C:\Program Files\Microsoft Visual Studio\2022\Professional\VC\Tools\MSVC\14.44.35207\include\xtree

; 1630 :         _Tree_find_result<_Nodeptr> _Result{{_Scary->_Myhead->_Parent, _Tree_child::_Right}, _Scary->_Myhead};

  00258	8b cf		 mov	 ecx, edi
; File C:\IAGOS\server\v18\Source\Source\_common\guildquest.cpp

; 102  : 									pUser	= (CUser*)prj.GetUserByID( pMember->m_idPlayer );

  0025a	8b 50 04	 mov	 edx, DWORD PTR [eax+4]
; File C:\Program Files\Microsoft Visual Studio\2022\Professional\VC\Tools\MSVC\14.44.35207\include\xtree

; 1630 :         _Tree_find_result<_Nodeptr> _Result{{_Scary->_Myhead->_Parent, _Tree_child::_Right}, _Scary->_Myhead};

  0025d	8b 47 04	 mov	 eax, DWORD PTR [edi+4]

; 1631 :         _Nodeptr _Trynode = _Result._Location._Parent;
; 1632 :         while (!_Trynode->_Isnil) {

  00260	80 78 0d 00	 cmp	 BYTE PTR [eax+13], 0
  00264	75 14		 jne	 SHORT $LN171@Process
$LL170@Process:
; File C:\Program Files\Microsoft Visual Studio\2022\Professional\VC\Tools\MSVC\14.44.35207\include\type_traits

; 2380 :         return _Left < _Right;

  00266	39 50 10	 cmp	 DWORD PTR [eax+16], edx
; File C:\Program Files\Microsoft Visual Studio\2022\Professional\VC\Tools\MSVC\14.44.35207\include\xtree

; 1634 :             if (_DEBUG_LT_PRED(_Getcomp(), _Traits::_Kfn(_Trynode->_Myval), _Keyval)) {

  00269	73 05		 jae	 SHORT $LN172@Process

; 1635 :                 _Result._Location._Child = _Tree_child::_Right;
; 1636 :                 _Trynode                 = _Trynode->_Right;

  0026b	8b 40 08	 mov	 eax, DWORD PTR [eax+8]

; 1637 :             } else {

  0026e	eb 04		 jmp	 SHORT $LN173@Process
$LN172@Process:

; 1638 :                 _Result._Location._Child = _Tree_child::_Left;
; 1639 :                 _Result._Bound           = _Trynode;

  00270	8b c8		 mov	 ecx, eax

; 1640 :                 _Trynode                 = _Trynode->_Left;

  00272	8b 00		 mov	 eax, DWORD PTR [eax]
$LN173@Process:

; 1631 :         _Nodeptr _Trynode = _Result._Location._Parent;
; 1632 :         while (!_Trynode->_Isnil) {

  00274	80 78 0d 00	 cmp	 BYTE PTR [eax+13], 0
  00278	74 ec		 je	 SHORT $LL170@Process
$LN171@Process:

; 1624 :         return !_Bound->_Isnil && !_DEBUG_LT_PRED(_Getcomp(), _Keyval, _Traits::_Kfn(_Bound->_Myval));

  0027a	80 79 0d 00	 cmp	 BYTE PTR [ecx+13], 0
  0027e	75 05		 jne	 SHORT $LN167@Process
; File C:\Program Files\Microsoft Visual Studio\2022\Professional\VC\Tools\MSVC\14.44.35207\include\type_traits

; 2380 :         return _Left < _Right;

  00280	3b 51 10	 cmp	 edx, DWORD PTR [ecx+16]
; File C:\Program Files\Microsoft Visual Studio\2022\Professional\VC\Tools\MSVC\14.44.35207\include\xtree

; 1624 :         return !_Bound->_Isnil && !_DEBUG_LT_PRED(_Getcomp(), _Keyval, _Traits::_Kfn(_Bound->_Myval));

  00283	73 02		 jae	 SHORT $LN166@Process
$LN167@Process:

; 1389 :         return _Get_scary()->_Myhead;

  00285	8b cf		 mov	 ecx, edi
$LN166@Process:

; 37   :     _Tree_unchecked_const_iterator(_Nodeptr _Pnode, const _Mytree* _Plist) noexcept : _Ptr(_Pnode) {

  00287	3b cf		 cmp	 ecx, edi
; File C:\IAGOS\server\v18\Source\Source\_Common\Project.h

; 1436 : 	if( i != m_idPlayerToUserPtr.end() )

  00289	74 68		 je	 SHORT $LN9@Process

; 1437 : 		return i->second;

  0028b	8b 71 14	 mov	 esi, DWORD PTR [ecx+20]
; File C:\IAGOS\server\v18\Source\Source\_Common\Obj.h

; 327  : 	return pObj && ( pObj->IsDelete() == FALSE ); 

  0028e	85 f6		 test	 esi, esi
  00290	74 61		 je	 SHORT $LN9@Process

; 180  : 	BOOL			IsDelete()	{ return (m_dwFlags & OBJ_FLAG_DELETE);  }

  00292	f6 46 04 01	 test	 BYTE PTR [esi+4], 1

; 327  : 	return pObj && ( pObj->IsDelete() == FALSE ); 

  00296	75 5b		 jne	 SHORT $LN9@Process

; 215  : 	D3DXVECTOR3		GetPos()	{ return m_vPos; }

  00298	8b 86 68 01 00
	00		 mov	 eax, DWORD PTR [esi+360]
  0029e	f3 0f 7e 86 60
	01 00 00	 movq	 xmm0, QWORD PTR [esi+352]
  002a6	89 45 b0	 mov	 DWORD PTR $T3[ebp+8], eax
; File C:\IAGOS\server\v18\Source\Source\_common\guildquest.cpp

; 105  : 										POINT point = { (int)pUser->GetPos().x, (int)pUser->GetPos().z	};

  002a9	f3 0f 2c 45 b0	 cvttss2si eax, DWORD PTR $T3[ebp+8]
; File C:\IAGOS\server\v18\Source\Source\_Common\Obj.h

; 215  : 	D3DXVECTOR3		GetPos()	{ return m_vPos; }

  002ae	66 0f d6 45 b4	 movq	 QWORD PTR $T4[ebp], xmm0
  002b3	f3 0f 7e c0	 movq	 xmm0, xmm0
; File C:\IAGOS\server\v18\Source\Source\_common\guildquest.cpp

; 105  : 										POINT point = { (int)pUser->GetPos().x, (int)pUser->GetPos().z	};

  002b7	f3 0f 2c 4d b4	 cvttss2si ecx, DWORD PTR $T4[ebp]
; File C:\Program Files\Microsoft Visual Studio\2022\Professional\VC\Tools\MSVC\14.44.35207\atlmfc\include\atltypes.h

; 652  : 	return ::PtInRect(this, point);

  002bc	50		 push	 eax
  002bd	8d 45 ec	 lea	 eax, DWORD PTR _rect$11[ebp]
; File C:\IAGOS\server\v18\Source\Source\_Common\Obj.h

; 215  : 	D3DXVECTOR3		GetPos()	{ return m_vPos; }

  002c0	66 0f d6 45 a8	 movq	 QWORD PTR $T3[ebp], xmm0
; File C:\Program Files\Microsoft Visual Studio\2022\Professional\VC\Tools\MSVC\14.44.35207\atlmfc\include\atltypes.h

; 652  : 	return ::PtInRect(this, point);

  002c5	51		 push	 ecx
  002c6	50		 push	 eax
  002c7	ff 15 00 00 00
	00		 call	 DWORD PTR __imp__PtInRect@12
; File C:\IAGOS\server\v18\Source\Source\_common\guildquest.cpp

; 106  : 										if( rect.PtInRect( point ) && pUser->IsLive() )

  002cd	85 c0		 test	 eax, eax
  002cf	74 1c		 je	 SHORT $LN348@Process
; File C:\IAGOS\server\v18\Source\Source\_Common\Mover.h

; 1251 : 	BOOL			IsLive() { return m_pActMover->IsDie() == FALSE || m_nHitPoint > 0; }		// && ¸¦  ||·Î ąŮ˛ĺŔ˝.  !=¸¦ >·Î ąŮ˛Ţ

  002d1	8b 86 38 02 00
	00		 mov	 eax, DWORD PTR [esi+568]
  002d7	f7 40 04 00 00
	00 08		 test	 DWORD PTR [eax+4], 134217728 ; 08000000H
  002de	0f 84 7f 00 00
	00		 je	 $LN2@Process
  002e4	83 be f8 05 00
	00 00		 cmp	 DWORD PTR [esi+1528], 0
  002eb	7f 76		 jg	 SHORT $LN2@Process
$LN348@Process:
; File C:\IAGOS\server\v18\Source\Source\_common\guildquest.cpp

; 106  : 										if( rect.PtInRect( point ) && pUser->IsLive() )

  002ed	8b 3d 28 00 00
	00		 mov	 edi, DWORD PTR ?prj@@3VCProject@@A+40
$LN9@Process:

; 99   : 								for( map<u_long, CGuildMember*>::iterator i = pGuild->m_mapPMember.begin(); i != pGuild->m_mapPMember.end(); ++i )

  002f3	8d 4d e8	 lea	 ecx, DWORD PTR _i$7[ebp]
  002f6	e8 00 00 00 00	 call	 ??E?$_Tree_iterator@V?$_Tree_val@U?$_Tree_simple_types@U?$pair@$$CBKPAVCGuildMember@@@std@@@std@@@std@@@std@@QAEAAV01@XZ ; std::_Tree_iterator<std::_Tree_val<std::_Tree_simple_types<std::pair<unsigned long const ,CGuildMember *> > > >::operator++
; File C:\Program Files\Microsoft Visual Studio\2022\Professional\VC\Tools\MSVC\14.44.35207\include\xtree

; 237  :         return !(*this == _Right);

  002fb	8b 4d dc	 mov	 ecx, DWORD PTR _pGuild$1$[ebp]
  002fe	8b 45 e8	 mov	 eax, DWORD PTR _i$7[ebp]
  00301	3b 41 38	 cmp	 eax, DWORD PTR [ecx+56]
; File C:\IAGOS\server\v18\Source\Source\_common\guildquest.cpp

; 99   : 								for( map<u_long, CGuildMember*>::iterator i = pGuild->m_mapPMember.begin(); i != pGuild->m_mapPMember.end(); ++i )

  00304	0f 85 4b ff ff
	ff		 jne	 $LL11@Process
  0030a	8b 75 e0	 mov	 esi, DWORD PTR tv1649[ebp]
  0030d	8b f9		 mov	 edi, ecx
$LN346@Process:

; 24   : 	for( int i = 0; i < MAX_GUILD_QUEST; i++ )

  0030f	0f b6 44 b3 12	 movzx	 eax, BYTE PTR [ebx+esi*4+18]
  00314	8b cf		 mov	 ecx, edi
  00316	50		 push	 eax
  00317	ff 34 b3	 push	 DWORD PTR [ebx+esi*4]
  0031a	e8 00 00 00 00	 call	 ?SetQuest@CGuild@@QAEXHH@Z ; CGuild::SetQuest
  0031f	0f b6 44 b3 12	 movzx	 eax, BYTE PTR [ebx+esi*4+18]
  00324	b9 00 00 00 00	 mov	 ecx, OFFSET ?g_dpDBClient@@3VCDPDatabaseClient@@A ; g_dpDBClient
  00329	50		 push	 eax
  0032a	ff 34 b3	 push	 DWORD PTR [ebx+esi*4]
  0032d	ff 77 04	 push	 DWORD PTR [edi+4]
  00330	e8 00 00 00 00	 call	 ?SendUpdateGuildQuest@CDPDatabaseClient@@QAEXKHH@Z ; CDPDatabaseClient::SendUpdateGuildQuest
  00335	8d 45 ec	 lea	 eax, DWORD PTR _rect$11[ebp]
  00338	8b cf		 mov	 ecx, edi
  0033a	50		 push	 eax
  0033b	e8 00 00 00 00	 call	 ?ReplaceLodestar@CGuild@@QAEXABVCRect@@@Z ; CGuild::ReplaceLodestar
$LN31@Process:
  00340	ff 74 b3 14	 push	 DWORD PTR [ebx+esi*4+20]
  00344	b9 00 00 00 00	 mov	 ecx, OFFSET ?prj@@3VCProject@@A ; prj
  00349	e8 00 00 00 00	 call	 ?GetMover@CProject@@QAEPAVCMover@@K@Z ; CProject::GetMover
  0034e	85 c0		 test	 eax, eax
  00350	74 07		 je	 SHORT $LN32@Process
  00352	8b c8		 mov	 ecx, eax
  00354	e8 00 00 00 00	 call	 ?Delete@CObj@@QAEXXZ	; CObj::Delete
$LN32@Process:
  00359	ff 34 b3	 push	 DWORD PTR [ebx+esi*4]
  0035c	8b cb		 mov	 ecx, ebx
  0035e	e8 00 00 00 00	 call	 ?RemoveGuildQuest@CGuildQuestProcessor@@QAEXH@Z ; CGuildQuestProcessor::RemoveGuildQuest
$LN2@Process:
  00363	8b 75 e4	 mov	 esi, DWORD PTR _i$1$[ebp]
  00366	46		 inc	 esi
  00367	89 75 e4	 mov	 DWORD PTR _i$1$[ebp], esi
  0036a	81 fe 00 01 00
	00		 cmp	 esi, 256		; 00000100H
  00370	0f 8c ad fc ff
	ff		 jl	 $LL4@Process

; 168  : 					default:
; 169  : 						break;
; 170  : 				}
; 171  : 			}
; 172  : 		}
; 173  : 	}
; 174  : }

  00376	8b 4d fc	 mov	 ecx, DWORD PTR __$ArrayPad$[ebp]
  00379	5f		 pop	 edi
  0037a	5e		 pop	 esi
  0037b	33 cd		 xor	 ecx, ebp
  0037d	5b		 pop	 ebx
  0037e	e8 00 00 00 00	 call	 @__security_check_cookie@4
  00383	8b e5		 mov	 esp, ebp
  00385	5d		 pop	 ebp
  00386	c3		 ret	 0
?Process@CGuildQuestProcessor@@QAEXXZ ENDP		; CGuildQuestProcessor::Process
_TEXT	ENDS
; Function compile flags: /Ogtp
; File C:\IAGOS\server\v18\Source\Source\_common\guildquest.cpp
;	COMDAT ??1CGuildQuestProcessor@@QAE@XZ
_TEXT	SEGMENT
??1CGuildQuestProcessor@@QAE@XZ PROC			; CGuildQuestProcessor::~CGuildQuestProcessor, COMDAT
; _this$ = ecx

; 18   : 
; 19   : }

  00000	c2 00 00	 ret	 0
??1CGuildQuestProcessor@@QAE@XZ ENDP			; CGuildQuestProcessor::~CGuildQuestProcessor
_TEXT	ENDS
; Function compile flags: /Ogtp
; File C:\IAGOS\server\v18\Source\Source\_common\guildquest.cpp
; File C:\IAGOS\server\v18\Source\Source\_Common\guildquest.h
; File C:\IAGOS\server\v18\Source\Source\_common\guildquest.cpp
; File C:\Program Files\Microsoft Visual Studio\2022\Professional\VC\Tools\MSVC\14.44.35207\atlmfc\include\atltypes.h
; File C:\IAGOS\server\v18\Source\Source\_common\guildquest.cpp
;	COMDAT ??0CGuildQuestProcessor@@QAE@XZ
_TEXT	SEGMENT
??0CGuildQuestProcessor@@QAE@XZ PROC			; CGuildQuestProcessor::CGuildQuestProcessor, COMDAT
; _this$ = ecx

; 12   : {

  00000	56		 push	 esi
  00001	8b f1		 mov	 esi, ecx
  00003	ba 00 01 00 00	 mov	 edx, 256		; 00000100H
  00008	8d 46 08	 lea	 eax, DWORD PTR [esi+8]
  0000b	0f 1f 44 00 00	 npad	 5
$LL4@CGuildQues:
; File C:\IAGOS\server\v18\Source\Source\_Common\guildquest.h

; 75   : 		nCount	= 0;

  00010	33 c9		 xor	 ecx, ecx

; 48   : 			nId		= -1;

  00012	c7 40 f8 ff ff
	ff ff		 mov	 DWORD PTR [eax-8], -1

; 49   : 			nState	= 0;

  00019	c7 40 fc 00 00
	00 00		 mov	 DWORD PTR [eax-4], 0
  00020	8d 40 1c	 lea	 eax, DWORD PTR [eax+28]

; 50   : 			idGuild		= 0;

  00023	c7 40 e4 00 00
	00 00		 mov	 DWORD PTR [eax-28], 0

; 71   : 		dwEndTime	= 0;

  0002a	c7 40 e8 00 00
	00 00		 mov	 DWORD PTR [eax-24], 0

; 72   : 		nProcess	= GQP_READY;

  00031	66 c7 40 ec 00
	00		 mov	 WORD PTR [eax-20], 0

; 73   : 		ns	= nf	= 0;

  00037	c6 40 ee 00	 mov	 BYTE PTR [eax-18], 0

; 74   : 		objidWormon		= NULL_ID;

  0003b	c7 40 f0 ff ff
	ff ff		 mov	 DWORD PTR [eax-16], -1

; 75   : 		nCount	= 0;

  00042	66 89 48 f4	 mov	 WORD PTR [eax-12], cx
  00046	83 ea 01	 sub	 edx, 1
  00049	75 c5		 jne	 SHORT $LL4@CGuildQues
; File C:\IAGOS\server\v18\Source\Source\_common\guildquest.cpp

; 12   : {

  0004b	b9 00 01 00 00	 mov	 ecx, 256		; 00000100H
  00050	8d 86 0c 1c 00
	00		 lea	 eax, DWORD PTR [esi+7180]
$LL12@CGuildQues:
; File C:\Program Files\Microsoft Visual Studio\2022\Professional\VC\Tools\MSVC\14.44.35207\atlmfc\include\atltypes.h

; 532  : 	left = 0;

  00056	c7 40 f8 00 00
	00 00		 mov	 DWORD PTR [eax-8], 0
  0005d	8d 40 14	 lea	 eax, DWORD PTR [eax+20]

; 533  : 	top = 0;

  00060	c7 40 e8 00 00
	00 00		 mov	 DWORD PTR [eax-24], 0

; 534  : 	right = 0;

  00067	c7 40 ec 00 00
	00 00		 mov	 DWORD PTR [eax-20], 0

; 535  : 	bottom = 0;

  0006e	c7 40 f0 00 00
	00 00		 mov	 DWORD PTR [eax-16], 0
  00075	83 e9 01	 sub	 ecx, 1
  00078	75 dc		 jne	 SHORT $LL12@CGuildQues
; File C:\IAGOS\server\v18\Source\Source\_common\guildquest.cpp

; 13   : 	m_nRect	= 0;

  0007a	89 8e 00 30 00
	00		 mov	 DWORD PTR [esi+12288], ecx

; 14   : }

  00080	8b c6		 mov	 eax, esi
  00082	5e		 pop	 esi
  00083	c3		 ret	 0
??0CGuildQuestProcessor@@QAE@XZ ENDP			; CGuildQuestProcessor::CGuildQuestProcessor
_TEXT	ENDS
; Function compile flags: /Ogtp
; File C:\Program Files\Microsoft Visual Studio\2022\Professional\VC\Tools\MSVC\14.44.35207\atlmfc\include\atltypes.h
;	COMDAT ??0__GUILDQUESTRECT@@QAE@XZ
_TEXT	SEGMENT
??0__GUILDQUESTRECT@@QAE@XZ PROC			; __GUILDQUESTRECT::__GUILDQUESTRECT, COMDAT
; _this$ = ecx

; 532  : 	left = 0;

  00000	c7 41 04 00 00
	00 00		 mov	 DWORD PTR [ecx+4], 0
  00007	8b c1		 mov	 eax, ecx

; 533  : 	top = 0;

  00009	c7 41 08 00 00
	00 00		 mov	 DWORD PTR [ecx+8], 0

; 534  : 	right = 0;

  00010	c7 41 0c 00 00
	00 00		 mov	 DWORD PTR [ecx+12], 0

; 535  : 	bottom = 0;

  00017	c7 41 10 00 00
	00 00		 mov	 DWORD PTR [ecx+16], 0
  0001e	c3		 ret	 0
??0__GUILDQUESTRECT@@QAE@XZ ENDP			; __GUILDQUESTRECT::__GUILDQUESTRECT
_TEXT	ENDS
; Function compile flags: /Ogtp
; File C:\IAGOS\server\v18\Source\Source\_Common\guildquest.h
;	COMDAT ??0_GUILDQUESTELEM@@QAE@XZ
_TEXT	SEGMENT
??0_GUILDQUESTELEM@@QAE@XZ PROC				; _GUILDQUESTELEM::_GUILDQUESTELEM, COMDAT
; _this$ = ecx

; 75   : 		nCount	= 0;

  00000	33 c0		 xor	 eax, eax

; 48   : 			nId		= -1;

  00002	c7 01 ff ff ff
	ff		 mov	 DWORD PTR [ecx], -1

; 75   : 		nCount	= 0;

  00008	66 89 41 18	 mov	 WORD PTR [ecx+24], ax

; 76   : 	};

  0000c	8b c1		 mov	 eax, ecx

; 49   : 			nState	= 0;

  0000e	c7 41 04 00 00
	00 00		 mov	 DWORD PTR [ecx+4], 0

; 50   : 			idGuild		= 0;

  00015	c7 41 08 00 00
	00 00		 mov	 DWORD PTR [ecx+8], 0

; 71   : 		dwEndTime	= 0;

  0001c	c7 41 0c 00 00
	00 00		 mov	 DWORD PTR [ecx+12], 0

; 72   : 		nProcess	= GQP_READY;

  00023	66 c7 41 10 00
	00		 mov	 WORD PTR [ecx+16], 0

; 73   : 		ns	= nf	= 0;

  00029	c6 41 12 00	 mov	 BYTE PTR [ecx+18], 0

; 74   : 		objidWormon		= NULL_ID;

  0002d	c7 41 14 ff ff
	ff ff		 mov	 DWORD PTR [ecx+20], -1

; 76   : 	};

  00034	c3		 ret	 0
??0_GUILDQUESTELEM@@QAE@XZ ENDP				; _GUILDQUESTELEM::_GUILDQUESTELEM
_TEXT	ENDS
; Function compile flags: /Ogtp
; File C:\IAGOS\server\v18\Source\Source\_common\guildquest.cpp
;	COMDAT ?__empty_global_delete@@YAXPAXI@Z
_TEXT	SEGMENT
___formal$ = 8						; size = 4
___formal$ = 12						; size = 4
?__empty_global_delete@@YAXPAXI@Z PROC			; __empty_global_delete, COMDAT

  00000	c2 00 00	 ret	 0
?__empty_global_delete@@YAXPAXI@Z ENDP			; __empty_global_delete
_TEXT	ENDS
; Function compile flags: /Ogtp
; File C:\IAGOS\server\v18\Source\Source\_common\guildquest.cpp
;	COMDAT ?__empty_global_delete@@YAXPAX@Z
_TEXT	SEGMENT
___formal$ = 8						; size = 4
?__empty_global_delete@@YAXPAX@Z PROC			; __empty_global_delete, COMDAT

  00000	c2 00 00	 ret	 0
?__empty_global_delete@@YAXPAX@Z ENDP			; __empty_global_delete
_TEXT	ENDS
; Function compile flags: /Ogtp
;	COMDAT ??_H@YGXPAXIIP6EPAX0@Z@Z
_TEXT	SEGMENT
___t$ = 8						; size = 4
___s$ = 12						; size = 4
___n$ = 16						; size = 4
___f$ = 20						; size = 4
??_H@YGXPAXIIP6EPAX0@Z@Z PROC				; `vector constructor iterator', COMDAT
  00000	55		 push	 ebp
  00001	8b ec		 mov	 ebp, esp
  00003	56		 push	 esi
  00004	8b 75 10	 mov	 esi, DWORD PTR ___n$[ebp]
  00007	85 f6		 test	 esi, esi
  00009	74 16		 je	 SHORT $LN6@vector
  0000b	53		 push	 ebx
  0000c	8b 5d 14	 mov	 ebx, DWORD PTR ___f$[ebp]
  0000f	57		 push	 edi
  00010	8b 7d 08	 mov	 edi, DWORD PTR ___t$[ebp]
$LL2@vector:
  00013	8b cf		 mov	 ecx, edi
  00015	ff d3		 call	 ebx
  00017	03 7d 0c	 add	 edi, DWORD PTR ___s$[ebp]
  0001a	83 ee 01	 sub	 esi, 1
  0001d	75 f4		 jne	 SHORT $LL2@vector
  0001f	5f		 pop	 edi
  00020	5b		 pop	 ebx
$LN6@vector:
  00021	5e		 pop	 esi
  00022	5d		 pop	 ebp
  00023	c2 10 00	 ret	 16			; 00000010H
??_H@YGXPAXIIP6EPAX0@Z@Z ENDP				; `vector constructor iterator'
_TEXT	ENDS
END
