; Listing generated by Microsoft (R) Optimizing Compiler Version 19.44.35225.0 

	TITLE	C:\IAGOS\server\v18\Source\Output\WorldServer\Release\heapmng.obj
	.686P
	.XMM
	include listing.inc
	.model	flat

INCLUDELIB LIBCMT
INCLUDELIB OLDNAMES

PUBLIC	?__empty_global_delete@@YAXPAX@Z		; __empty_global_delete
PUBLIC	?__empty_global_delete@@YAXPAXI@Z		; __empty_global_delete
PUBLIC	??1CHeapMng@@UAE@XZ				; CHeapMng::~CHeapMng
PUBLIC	?Malloc@CHeapMng@@QAEPAXI@Z			; CHeapMng::Malloc
PUBLIC	??0CHeapMng@@QAE@XZ				; CHeapMng::CHeapMng
PUBLIC	?Free@CHeapMng@@QAEXPAX@Z			; CHeapMng::Free
PUBLIC	?Realloc@CHeapMng@@QAEPAXPAXI@Z			; CHeapMng::Realloc
PUBLIC	??_GCHeapMng@@UAEPAXI@Z				; CHeapMng::`scalar deleting destructor'
PUBLIC	??_7CHeapMng@@6B@				; CHeapMng::`vftable'
PUBLIC	??_R4CHeapMng@@6B@				; CHeapMng::`RTTI Complete Object Locator'
PUBLIC	??_R0?AVCHeapMng@@@8				; CHeapMng `RTTI Type Descriptor'
PUBLIC	??_R3CHeapMng@@8				; CHeapMng::`RTTI Class Hierarchy Descriptor'
PUBLIC	??_R2CHeapMng@@8				; CHeapMng::`RTTI Base Class Array'
PUBLIC	??_R1A@?0A@EA@CHeapMng@@8			; CHeapMng::`RTTI Base Class Descriptor at (0,-1,0,64)'
EXTRN	??3@YAXPAXI@Z:PROC				; operator delete
EXTRN	__imp__HeapCreate@12:PROC
EXTRN	__imp__HeapDestroy@4:PROC
EXTRN	__imp__HeapAlloc@12:PROC
EXTRN	__imp__HeapReAlloc@16:PROC
EXTRN	__imp__HeapFree@12:PROC
EXTRN	__imp__GetSystemInfo@4:PROC
EXTRN	??_ECHeapMng@@UAEPAXI@Z:PROC			; CHeapMng::`vector deleting destructor'
EXTRN	??_7type_info@@6B@:QWORD			; type_info::`vftable'
;	COMDAT ??_R1A@?0A@EA@CHeapMng@@8
rdata$r	SEGMENT
??_R1A@?0A@EA@CHeapMng@@8 DD FLAT:??_R0?AVCHeapMng@@@8	; CHeapMng::`RTTI Base Class Descriptor at (0,-1,0,64)'
	DD	00H
	DD	00H
	DD	0ffffffffH
	DD	00H
	DD	040H
	DD	FLAT:??_R3CHeapMng@@8
rdata$r	ENDS
;	COMDAT ??_R2CHeapMng@@8
rdata$r	SEGMENT
??_R2CHeapMng@@8 DD FLAT:??_R1A@?0A@EA@CHeapMng@@8	; CHeapMng::`RTTI Base Class Array'
rdata$r	ENDS
;	COMDAT ??_R3CHeapMng@@8
rdata$r	SEGMENT
??_R3CHeapMng@@8 DD 00H					; CHeapMng::`RTTI Class Hierarchy Descriptor'
	DD	00H
	DD	01H
	DD	FLAT:??_R2CHeapMng@@8
rdata$r	ENDS
;	COMDAT ??_R0?AVCHeapMng@@@8
data$rs	SEGMENT
??_R0?AVCHeapMng@@@8 DD FLAT:??_7type_info@@6B@		; CHeapMng `RTTI Type Descriptor'
	DD	00H
	DB	'.?AVCHeapMng@@', 00H
data$rs	ENDS
;	COMDAT ??_R4CHeapMng@@6B@
rdata$r	SEGMENT
??_R4CHeapMng@@6B@ DD 00H				; CHeapMng::`RTTI Complete Object Locator'
	DD	00H
	DD	00H
	DD	FLAT:??_R0?AVCHeapMng@@@8
	DD	FLAT:??_R3CHeapMng@@8
rdata$r	ENDS
;	COMDAT ??_7CHeapMng@@6B@
CONST	SEGMENT
??_7CHeapMng@@6B@ DD FLAT:??_R4CHeapMng@@6B@		; CHeapMng::`vftable'
	DD	FLAT:??_ECHeapMng@@UAEPAXI@Z
CONST	ENDS
; Function compile flags: /Ogtp
;	COMDAT ??_GCHeapMng@@UAEPAXI@Z
_TEXT	SEGMENT
___flags$ = 8						; size = 4
??_GCHeapMng@@UAEPAXI@Z PROC				; CHeapMng::`scalar deleting destructor', COMDAT
; _this$ = ecx
  00000	55		 push	 ebp
  00001	8b ec		 mov	 ebp, esp
  00003	56		 push	 esi
  00004	8b f1		 mov	 esi, ecx
  00006	e8 00 00 00 00	 call	 ??1CHeapMng@@UAE@XZ	; CHeapMng::~CHeapMng
  0000b	f6 45 08 01	 test	 BYTE PTR ___flags$[ebp], 1
  0000f	74 0b		 je	 SHORT $LN5@scalar
  00011	6a 08		 push	 8
  00013	56		 push	 esi
  00014	e8 00 00 00 00	 call	 ??3@YAXPAXI@Z		; operator delete
  00019	83 c4 08	 add	 esp, 8
$LN5@scalar:
  0001c	8b c6		 mov	 eax, esi
  0001e	5e		 pop	 esi
  0001f	5d		 pop	 ebp
  00020	c2 04 00	 ret	 4
??_GCHeapMng@@UAEPAXI@Z ENDP				; CHeapMng::`scalar deleting destructor'
_TEXT	ENDS
; Function compile flags: /Ogtp
; File C:\IAGOS\server\v18\Source\Source\_Network\Misc\Src\heapmng.cpp
;	COMDAT ?Realloc@CHeapMng@@QAEPAXPAXI@Z
_TEXT	SEGMENT
_lpMem$ = 8						; size = 4
_nSize$ = 12						; size = 4
?Realloc@CHeapMng@@QAEPAXPAXI@Z PROC			; CHeapMng::Realloc, COMDAT
; _this$ = ecx

; 66   : {

  00000	55		 push	 ebp
  00001	8b ec		 mov	 ebp, esp

; 67   : #ifdef __VM_0819
; 68   : 	EnterCriticalSection( &m_cs );
; 69   : 	m_nTotal	+= ( nSize - nOldSize );
; 70   : #endif	// __VM_0819
; 71   : 	LPVOID lpNewMem		= HeapReAlloc( m_hHeap, 0, lpMem, nSize );

  00003	ff 75 0c	 push	 DWORD PTR _nSize$[ebp]
  00006	ff 75 08	 push	 DWORD PTR _lpMem$[ebp]
  00009	6a 00		 push	 0
  0000b	ff 71 04	 push	 DWORD PTR [ecx+4]
  0000e	ff 15 00 00 00
	00		 call	 DWORD PTR __imp__HeapReAlloc@16

; 72   : #ifdef __VM_0819
; 73   : 	LeaveCriticalSection( &m_cs );
; 74   : #endif // __VM_0819
; 75   : 	return lpNewMem;
; 76   : }

  00014	5d		 pop	 ebp
  00015	c2 08 00	 ret	 8
?Realloc@CHeapMng@@QAEPAXPAXI@Z ENDP			; CHeapMng::Realloc
_TEXT	ENDS
; Function compile flags: /Ogtp
; File C:\IAGOS\server\v18\Source\Source\_Network\Misc\Src\heapmng.cpp
;	COMDAT ?Free@CHeapMng@@QAEXPAX@Z
_TEXT	SEGMENT
_lpMem$ = 8						; size = 4
?Free@CHeapMng@@QAEXPAX@Z PROC				; CHeapMng::Free, COMDAT
; _this$ = ecx

; 49   : {

  00000	55		 push	 ebp
  00001	8b ec		 mov	 ebp, esp

; 50   : #ifdef __VM_0819
; 51   : 	EnterCriticalSection( &m_cs );
; 52   : 	m_nAlloc--;
; 53   : 	m_nTotal	-= nSize;
; 54   : #endif	// __VM_0819
; 55   : 	HeapFree( m_hHeap, 0, lpMem );

  00003	ff 75 08	 push	 DWORD PTR _lpMem$[ebp]
  00006	6a 00		 push	 0
  00008	ff 71 04	 push	 DWORD PTR [ecx+4]
  0000b	ff 15 00 00 00
	00		 call	 DWORD PTR __imp__HeapFree@12

; 56   : #ifdef __VM_0819
; 57   : 	LeaveCriticalSection( &m_cs );
; 58   : #endif // __VM_0819
; 59   : }

  00011	5d		 pop	 ebp
  00012	c2 04 00	 ret	 4
?Free@CHeapMng@@QAEXPAX@Z ENDP				; CHeapMng::Free
_TEXT	ENDS
; Function compile flags: /Ogtp
; File C:\IAGOS\server\v18\Source\Source\_Network\Misc\Src\heapmng.cpp
; File C:\IAGOS\server\v18\Source\Source\_network\CmnHdr.h
; File C:\IAGOS\server\v18\Source\Source\_Network\Misc\Src\heapmng.cpp
; File C:\IAGOS\server\v18\Source\Source\_network\CmnHdr.h
; File C:\IAGOS\server\v18\Source\Source\_Network\Misc\Src\heapmng.cpp
;	COMDAT ??0CHeapMng@@QAE@XZ
_TEXT	SEGMENT
_si$ = -36						; size = 36
??0CHeapMng@@QAE@XZ PROC				; CHeapMng::CHeapMng, COMDAT
; _this$ = ecx

; 11   : {

  00000	55		 push	 ebp
  00001	8b ec		 mov	 ebp, esp
  00003	83 ec 24	 sub	 esp, 36			; 00000024H
  00006	56		 push	 esi
  00007	8b f1		 mov	 esi, ecx
; File C:\IAGOS\server\v18\Source\Source\_network\CmnHdr.h

; 242  : 	CSystemInfo()	{	GetSystemInfo( this );	}

  00009	8d 45 dc	 lea	 eax, DWORD PTR _si$[ebp]
  0000c	50		 push	 eax
; File C:\IAGOS\server\v18\Source\Source\_Network\Misc\Src\heapmng.cpp

; 11   : {

  0000d	c7 06 00 00 00
	00		 mov	 DWORD PTR [esi], OFFSET ??_7CHeapMng@@6B@
; File C:\IAGOS\server\v18\Source\Source\_network\CmnHdr.h

; 242  : 	CSystemInfo()	{	GetSystemInfo( this );	}

  00013	ff 15 00 00 00
	00		 call	 DWORD PTR __imp__GetSystemInfo@4
; File C:\IAGOS\server\v18\Source\Source\_Network\Misc\Src\heapmng.cpp

; 16   : 	m_hHeap		= HeapCreate( 0, si.dwPageSize, 0 );

  00019	6a 00		 push	 0
  0001b	ff 75 e0	 push	 DWORD PTR _si$[ebp+4]
  0001e	6a 00		 push	 0
  00020	ff 15 00 00 00
	00		 call	 DWORD PTR __imp__HeapCreate@12
  00026	89 46 04	 mov	 DWORD PTR [esi+4], eax

; 17   : #ifdef __VM_0819
; 18   : 	InitializeCriticalSectionAndSpinCount( &m_cs, 2000 );
; 19   : #endif // __VM_0819
; 20   : }

  00029	8b c6		 mov	 eax, esi
  0002b	5e		 pop	 esi
  0002c	8b e5		 mov	 esp, ebp
  0002e	5d		 pop	 ebp
  0002f	c3		 ret	 0
??0CHeapMng@@QAE@XZ ENDP				; CHeapMng::CHeapMng
_TEXT	ENDS
; Function compile flags: /Ogtp
; File C:\IAGOS\server\v18\Source\Source\_Network\Misc\Src\heapmng.cpp
;	COMDAT ?Malloc@CHeapMng@@QAEPAXI@Z
_TEXT	SEGMENT
_nSize$ = 8						; size = 4
?Malloc@CHeapMng@@QAEPAXI@Z PROC			; CHeapMng::Malloc, COMDAT
; _this$ = ecx

; 31   : {

  00000	55		 push	 ebp
  00001	8b ec		 mov	 ebp, esp

; 32   : #ifdef __VM_0819
; 33   : 	EnterCriticalSection( &m_cs );
; 34   : 	m_nAlloc++;
; 35   : 	m_nTotal	+= nSize;
; 36   : #endif	// __VM_0819
; 37   : 	LPVOID lpMem	= HeapAlloc( m_hHeap, 0, nSize );

  00003	ff 75 08	 push	 DWORD PTR _nSize$[ebp]
  00006	6a 00		 push	 0
  00008	ff 71 04	 push	 DWORD PTR [ecx+4]
  0000b	ff 15 00 00 00
	00		 call	 DWORD PTR __imp__HeapAlloc@12

; 38   : #ifdef __VM_0819
; 39   : 	LeaveCriticalSection( &m_cs );
; 40   : #endif __VM_0819
; 41   : 	return lpMem;
; 42   : }

  00011	5d		 pop	 ebp
  00012	c2 04 00	 ret	 4
?Malloc@CHeapMng@@QAEPAXI@Z ENDP			; CHeapMng::Malloc
_TEXT	ENDS
; Function compile flags: /Ogtp
; File C:\IAGOS\server\v18\Source\Source\_Network\Misc\Src\heapmng.cpp
;	COMDAT ??1CHeapMng@@UAE@XZ
_TEXT	SEGMENT
??1CHeapMng@@UAE@XZ PROC				; CHeapMng::~CHeapMng, COMDAT
; _this$ = ecx

; 24   : 	HeapDestroy( m_hHeap );

  00000	ff 71 04	 push	 DWORD PTR [ecx+4]
  00003	c7 01 00 00 00
	00		 mov	 DWORD PTR [ecx], OFFSET ??_7CHeapMng@@6B@
  00009	ff 15 00 00 00
	00		 call	 DWORD PTR __imp__HeapDestroy@4

; 25   : #ifdef __VM_0819
; 26   : 	DeleteCriticalSection( &m_cs );
; 27   : #endif // __VM_0819
; 28   : }

  0000f	c3		 ret	 0
??1CHeapMng@@UAE@XZ ENDP				; CHeapMng::~CHeapMng
_TEXT	ENDS
; Function compile flags: /Ogtp
; File C:\IAGOS\server\v18\Source\Source\_Network\Misc\Src\heapmng.cpp
;	COMDAT ?__empty_global_delete@@YAXPAXI@Z
_TEXT	SEGMENT
___formal$ = 8						; size = 4
___formal$ = 12						; size = 4
?__empty_global_delete@@YAXPAXI@Z PROC			; __empty_global_delete, COMDAT

  00000	c2 00 00	 ret	 0
?__empty_global_delete@@YAXPAXI@Z ENDP			; __empty_global_delete
_TEXT	ENDS
; Function compile flags: /Ogtp
; File C:\IAGOS\server\v18\Source\Source\_Network\Misc\Src\heapmng.cpp
;	COMDAT ?__empty_global_delete@@YAXPAX@Z
_TEXT	SEGMENT
___formal$ = 8						; size = 4
?__empty_global_delete@@YAXPAX@Z PROC			; __empty_global_delete, COMDAT

  00000	c2 00 00	 ret	 0
?__empty_global_delete@@YAXPAX@Z ENDP			; __empty_global_delete
_TEXT	ENDS
END
