; Listing generated by Microsoft (R) Optimizing Compiler Version 19.44.35225.0 

	TITLE	C:\IAGOS\server\v18\Source\Output\WorldServer\Release\Housing.obj
	.686P
	.XMM
	include listing.inc
	.model	flat

INCLUDELIB LIBCMT
INCLUDELIB OLDNAMES

CONST	SEGMENT
?piecewise_construct@std@@3Upiecewise_construct_t@1@B	ORG $+1 ; std::piecewise_construct
CONST	ENDS
PUBLIC	?__empty_global_delete@@YAXPAX@Z		; __empty_global_delete
PUBLIC	?__empty_global_delete@@YAXPAXI@Z		; __empty_global_delete
PUBLIC	??0exception@std@@QAE@ABV01@@Z			; std::exception::exception
PUBLIC	??1exception@std@@UAE@XZ			; std::exception::~exception
PUBLIC	?what@exception@std@@UBEPBDXZ			; std::exception::what
PUBLIC	??_Gexception@std@@UAEPAXI@Z			; std::exception::`scalar deleting destructor'
PUBLIC	??0bad_alloc@std@@QAE@ABV01@@Z			; std::bad_alloc::bad_alloc
PUBLIC	??_Gbad_alloc@std@@UAEPAXI@Z			; std::bad_alloc::`scalar deleting destructor'
PUBLIC	??0bad_array_new_length@std@@QAE@XZ		; std::bad_array_new_length::bad_array_new_length
PUBLIC	??1bad_array_new_length@std@@UAE@XZ		; std::bad_array_new_length::~bad_array_new_length
PUBLIC	??0bad_array_new_length@std@@QAE@ABV01@@Z	; std::bad_array_new_length::bad_array_new_length
PUBLIC	??_Gbad_array_new_length@std@@UAEPAXI@Z		; std::bad_array_new_length::`scalar deleting destructor'
PUBLIC	?_Throw_bad_array_new_length@std@@YAXXZ		; std::_Throw_bad_array_new_length
PUBLIC	?_Throw_tree_length_error@std@@YAXXZ		; std::_Throw_tree_length_error
PUBLIC	??0D3DXVECTOR3@@QAE@XZ				; D3DXVECTOR3::D3DXVECTOR3
PUBLIC	??1?$vector@KV?$allocator@K@std@@@std@@QAE@XZ	; std::vector<unsigned long,std::allocator<unsigned long> >::~vector<unsigned long,std::allocator<unsigned long> >
PUBLIC	?_Tidy@?$vector@KV?$allocator@K@std@@@std@@AAEXXZ ; std::vector<unsigned long,std::allocator<unsigned long> >::_Tidy
PUBLIC	?_Xlength@?$vector@KV?$allocator@K@std@@@std@@CAXXZ ; std::vector<unsigned long,std::allocator<unsigned long> >::_Xlength
PUBLIC	?GetItemProp@CProject@@QAEPAUItemProp@@H@Z	; CProject::GetItemProp
PUBLIC	??$_Allocate_manually_vector_aligned@U_Default_allocate_traits@std@@@std@@YAPAXI@Z ; std::_Allocate_manually_vector_aligned<std::_Default_allocate_traits>
PUBLIC	?Serialize@HOUSINGINFO@@QAEXAAVCAr@@@Z		; HOUSINGINFO::Serialize
PUBLIC	??$?6K@CAr@@QAEAAV0@ABK@Z			; CAr::operator<<<unsigned long>
PUBLIC	??$?6J@CAr@@QAEAAV0@ABJ@Z			; CAr::operator<<<long>
PUBLIC	??$?6H@CAr@@QAEAAV0@ABH@Z			; CAr::operator<<<int>
PUBLIC	??$?6UD3DXVECTOR3@@@CAr@@QAEAAV0@ABUD3DXVECTOR3@@@Z ; CAr::operator<<<D3DXVECTOR3>
PUBLIC	??$?6M@CAr@@QAEAAV0@ABM@Z			; CAr::operator<<<float>
PUBLIC	??$?5K@CAr@@QAEAAV0@AAK@Z			; CAr::operator>><unsigned long>
PUBLIC	??$?5J@CAr@@QAEAAV0@AAJ@Z			; CAr::operator>><long>
PUBLIC	??$?5H@CAr@@QAEAAV0@AAH@Z			; CAr::operator>><int>
PUBLIC	??$?5UD3DXVECTOR3@@@CAr@@QAEAAV0@AAUD3DXVECTOR3@@@Z ; CAr::operator>><D3DXVECTOR3>
PUBLIC	??$?5M@CAr@@QAEAAV0@AAM@Z			; CAr::operator>><float>
PUBLIC	??0CHousing@@QAE@K@Z				; CHousing::CHousing
PUBLIC	??1CHousing@@QAE@XZ				; CHousing::~CHousing
PUBLIC	?Serialize@CHousing@@QAEXAAVCAr@@@Z		; CHousing::Serialize
PUBLIC	?SetFurnitureList@CHousing@@QAEXAAUHOUSINGINFO@@H@Z ; CHousing::SetFurnitureList
PUBLIC	?SetupFurniture@CHousing@@QAEXUHOUSINGINFO@@@Z	; CHousing::SetupFurniture
PUBLIC	?SetVisitAllow@CHousing@@QAEXKH@Z		; CHousing::SetVisitAllow
PUBLIC	?IsListUpAble@CHousing@@QAEHPAVCUser@@K@Z	; CHousing::IsListUpAble
PUBLIC	?IsSetupAble@CHousing@@QAEHPAVCUser@@UHOUSINGINFO@@@Z ; CHousing::IsSetupAble
PUBLIC	?IsAllowVisit@CHousing@@QAEHK@Z			; CHousing::IsAllowVisit
PUBLIC	?AddFurnitureControl@CHousing@@QAEHH@Z		; CHousing::AddFurnitureControl
PUBLIC	?RemoveFurnitureControl@CHousing@@QAEXH@Z	; CHousing::RemoveFurnitureControl
PUBLIC	?AddAllFurnitureControl@CHousing@@QAEXXZ	; CHousing::AddAllFurnitureControl
PUBLIC	?SetBuff@CHousing@@QAEXKH@Z			; CHousing::SetBuff
PUBLIC	?GetAllPaperingInfo@CHousing@@QAE?AV?$vector@KV?$allocator@K@std@@@std@@XZ ; CHousing::GetAllPaperingInfo
PUBLIC	?RemoveFurnitureList@CHousing@@AAEHK@Z		; CHousing::RemoveFurnitureList
PUBLIC	?GetIndexFromList@CHousing@@AAEHK@Z		; CHousing::GetIndexFromList
PUBLIC	??1?$vector@UHOUSINGINFO@@V?$allocator@UHOUSINGINFO@@@std@@@std@@QAE@XZ ; std::vector<HOUSINGINFO,std::allocator<HOUSINGINFO> >::~vector<HOUSINGINFO,std::allocator<HOUSINGINFO> >
PUBLIC	?_Xlength@?$vector@UHOUSINGINFO@@V?$allocator@UHOUSINGINFO@@@std@@@std@@CAXXZ ; std::vector<HOUSINGINFO,std::allocator<HOUSINGINFO> >::_Xlength
PUBLIC	??0CHousingMng@@QAE@XZ				; CHousingMng::CHousingMng
PUBLIC	??1CHousingMng@@QAE@XZ				; CHousingMng::~CHousingMng
PUBLIC	?Clear@CHousingMng@@QAEXXZ			; CHousingMng::Clear
PUBLIC	?GetInstance@CHousingMng@@SAPAV1@XZ		; CHousingMng::GetInstance
PUBLIC	?ReqLoadHousingInfo@CHousingMng@@QAEXK@Z	; CHousingMng::ReqLoadHousingInfo
PUBLIC	?ReqSetFurnitureList@CHousingMng@@QAEHPAVCUser@@K@Z ; CHousingMng::ReqSetFurnitureList
PUBLIC	?ReqSetupFurniture@CHousingMng@@QAEHPAVCUser@@UHOUSINGINFO@@@Z ; CHousingMng::ReqSetupFurniture
PUBLIC	?ReqSetAllowVisit@CHousingMng@@QAEHPAVCUser@@KH@Z ; CHousingMng::ReqSetAllowVisit
PUBLIC	?ReqGMFunrnitureListAll@CHousingMng@@QAEXPAVCUser@@@Z ; CHousingMng::ReqGMFunrnitureListAll
PUBLIC	?CreateRoomLayer@CHousingMng@@QAEXK@Z		; CHousingMng::CreateRoomLayer
PUBLIC	?DestroyHousing@CHousingMng@@QAEHK@Z		; CHousingMng::DestroyHousing
PUBLIC	?_Lrotate@?$_Tree_val@U?$_Tree_simple_types@U?$pair@$$CBKV?$vector@KV?$allocator@K@std@@@std@@@std@@@std@@@std@@QAEXPAU?$_Tree_node@U?$pair@$$CBKV?$vector@KV?$allocator@K@std@@@std@@@std@@PAX@2@@Z ; std::_Tree_val<std::_Tree_simple_types<std::pair<unsigned long const ,std::vector<unsigned long,std::allocator<unsigned long> > > > >::_Lrotate
PUBLIC	?_Rrotate@?$_Tree_val@U?$_Tree_simple_types@U?$pair@$$CBKV?$vector@KV?$allocator@K@std@@@std@@@std@@@std@@@std@@QAEXPAU?$_Tree_node@U?$pair@$$CBKV?$vector@KV?$allocator@K@std@@@std@@@std@@PAX@2@@Z ; std::_Tree_val<std::_Tree_simple_types<std::pair<unsigned long const ,std::vector<unsigned long,std::allocator<unsigned long> > > > >::_Rrotate
PUBLIC	?_Extract@?$_Tree_val@U?$_Tree_simple_types@U?$pair@$$CBKV?$vector@KV?$allocator@K@std@@@std@@@std@@@std@@@std@@QAEPAU?$_Tree_node@U?$pair@$$CBKV?$vector@KV?$allocator@K@std@@@std@@@std@@PAX@2@V?$_Tree_unchecked_const_iterator@V?$_Tree_val@U?$_Tree_simple_types@U?$pair@$$CBKV?$vector@KV?$allocator@K@std@@@std@@@std@@@std@@@std@@U_Iterator_base0@2@@2@@Z ; std::_Tree_val<std::_Tree_simple_types<std::pair<unsigned long const ,std::vector<unsigned long,std::allocator<unsigned long> > > > >::_Extract
PUBLIC	?_Insert_node@?$_Tree_val@U?$_Tree_simple_types@U?$pair@$$CBKV?$vector@KV?$allocator@K@std@@@std@@@std@@@std@@@std@@QAEPAU?$_Tree_node@U?$pair@$$CBKV?$vector@KV?$allocator@K@std@@@std@@@std@@PAX@2@U?$_Tree_id@PAU?$_Tree_node@U?$pair@$$CBKV?$vector@KV?$allocator@K@std@@@std@@@std@@PAX@std@@@2@QAU32@@Z ; std::_Tree_val<std::_Tree_simple_types<std::pair<unsigned long const ,std::vector<unsigned long,std::allocator<unsigned long> > > > >::_Insert_node
PUBLIC	??1?$map@KV?$vector@KV?$allocator@K@std@@@std@@U?$less@K@2@V?$allocator@U?$pair@$$CBKV?$vector@KV?$allocator@K@std@@@std@@@std@@@2@@std@@QAE@XZ ; std::map<unsigned long,std::vector<unsigned long,std::allocator<unsigned long> >,std::less<unsigned long>,std::allocator<std::pair<unsigned long const ,std::vector<unsigned long,std::allocator<unsigned long> > > > >::~map<unsigned long,std::vector<unsigned long,std::allocator<unsigned long> >,std::less<unsigned long>,std::allocator<std::pair<unsigned long const ,std::vector<unsigned long,std::allocator<unsigned long> > > > >
PUBLIC	?SetAddVisitable@CHousingMng@@QAEXKK@Z		; CHousingMng::SetAddVisitable
PUBLIC	?SetRemoveVisitable@CHousingMng@@QAEXKK@Z	; CHousingMng::SetRemoveVisitable
PUBLIC	?OnReqVisitableList@CHousingMng@@QAEXPAVCUser@@@Z ; CHousingMng::OnReqVisitableList
PUBLIC	?SetVisitRoom@CHousingMng@@QAEXPAVCUser@@K@Z	; CHousingMng::SetVisitRoom
PUBLIC	?GoOut@CHousingMng@@QAEXPAVCUser@@@Z		; CHousingMng::GoOut
PUBLIC	?CreateHousing@CHousingMng@@QAEPAVCHousing@@K@Z	; CHousingMng::CreateHousing
PUBLIC	?GetHousing@CHousingMng@@QAEPAVCHousing@@K@Z	; CHousingMng::GetHousing
PUBLIC	?SetFurnitureList@CHousingMng@@QAEXKAAUHOUSINGINFO@@H@Z ; CHousingMng::SetFurnitureList
PUBLIC	?SetupFurniture@CHousingMng@@QAEXKUHOUSINGINFO@@@Z ; CHousingMng::SetupFurniture
PUBLIC	?SetVisitAllow@CHousingMng@@QAEXKKH@Z		; CHousingMng::SetVisitAllow
PUBLIC	??1?$_Tree@V?$_Tmap_traits@KPAVCHousing@@U?$less@K@std@@V?$allocator@U?$pair@$$CBKPAVCHousing@@@std@@@3@$0A@@std@@@std@@QAE@XZ ; std::_Tree<std::_Tmap_traits<unsigned long,CHousing *,std::less<unsigned long>,std::allocator<std::pair<unsigned long const ,CHousing *> >,0> >::~_Tree<std::_Tmap_traits<unsigned long,CHousing *,std::less<unsigned long>,std::allocator<std::pair<unsigned long const ,CHousing *> >,0> >
PUBLIC	?_Lrotate@?$_Tree_val@U?$_Tree_simple_types@U?$pair@$$CBKPAVCHousing@@@std@@@std@@@std@@QAEXPAU?$_Tree_node@U?$pair@$$CBKPAVCHousing@@@std@@PAX@2@@Z ; std::_Tree_val<std::_Tree_simple_types<std::pair<unsigned long const ,CHousing *> > >::_Lrotate
PUBLIC	?_Rrotate@?$_Tree_val@U?$_Tree_simple_types@U?$pair@$$CBKPAVCHousing@@@std@@@std@@@std@@QAEXPAU?$_Tree_node@U?$pair@$$CBKPAVCHousing@@@std@@PAX@2@@Z ; std::_Tree_val<std::_Tree_simple_types<std::pair<unsigned long const ,CHousing *> > >::_Rrotate
PUBLIC	?_Extract@?$_Tree_val@U?$_Tree_simple_types@U?$pair@$$CBKPAVCHousing@@@std@@@std@@@std@@QAEPAU?$_Tree_node@U?$pair@$$CBKPAVCHousing@@@std@@PAX@2@V?$_Tree_unchecked_const_iterator@V?$_Tree_val@U?$_Tree_simple_types@U?$pair@$$CBKPAVCHousing@@@std@@@std@@@std@@U_Iterator_base0@2@@2@@Z ; std::_Tree_val<std::_Tree_simple_types<std::pair<unsigned long const ,CHousing *> > >::_Extract
PUBLIC	?_Insert_node@?$_Tree_val@U?$_Tree_simple_types@U?$pair@$$CBKPAVCHousing@@@std@@@std@@@std@@QAEPAU?$_Tree_node@U?$pair@$$CBKPAVCHousing@@@std@@PAX@2@U?$_Tree_id@PAU?$_Tree_node@U?$pair@$$CBKPAVCHousing@@@std@@PAX@std@@@2@QAU32@@Z ; std::_Tree_val<std::_Tree_simple_types<std::pair<unsigned long const ,CHousing *> > >::_Insert_node
PUBLIC	??$?6I@CAr@@QAEAAV0@ABI@Z			; CAr::operator<<<unsigned int>
PUBLIC	??E?$_Tree_unchecked_const_iterator@V?$_Tree_val@U?$_Tree_simple_types@U?$pair@$$CBKPAVCHousing@@@std@@@std@@@std@@U_Iterator_base0@2@@std@@QAEAAV01@XZ ; std::_Tree_unchecked_const_iterator<std::_Tree_val<std::_Tree_simple_types<std::pair<unsigned long const ,CHousing *> > >,std::_Iterator_base0>::operator++
PUBLIC	??E?$_Tree_unchecked_const_iterator@V?$_Tree_val@U?$_Tree_simple_types@U?$pair@$$CBKV?$vector@KV?$allocator@K@std@@@std@@@std@@@std@@@std@@U_Iterator_base0@2@@std@@QAEAAV01@XZ ; std::_Tree_unchecked_const_iterator<std::_Tree_val<std::_Tree_simple_types<std::pair<unsigned long const ,std::vector<unsigned long,std::allocator<unsigned long> > > > >,std::_Iterator_base0>::operator++
PUBLIC	??1?$pair@$$CBKV?$vector@KV?$allocator@K@std@@@std@@@std@@QAE@XZ ; std::pair<unsigned long const ,std::vector<unsigned long,std::allocator<unsigned long> > >::~pair<unsigned long const ,std::vector<unsigned long,std::allocator<unsigned long> > >
PUBLIC	??$_Erase_tree@V?$allocator@U?$_Tree_node@U?$pair@$$CBKPAVCHousing@@@std@@PAX@std@@@std@@@?$_Tree_val@U?$_Tree_simple_types@U?$pair@$$CBKPAVCHousing@@@std@@@std@@@std@@QAEXAAV?$allocator@U?$_Tree_node@U?$pair@$$CBKPAVCHousing@@@std@@PAX@std@@@1@PAU?$_Tree_node@U?$pair@$$CBKPAVCHousing@@@std@@PAX@1@@Z ; std::_Tree_val<std::_Tree_simple_types<std::pair<unsigned long const ,CHousing *> > >::_Erase_tree<std::allocator<std::_Tree_node<std::pair<unsigned long const ,CHousing *>,void *> > >
PUBLIC	??$_Erase_tree@V?$allocator@U?$_Tree_node@U?$pair@$$CBKV?$vector@KV?$allocator@K@std@@@std@@@std@@PAX@std@@@std@@@?$_Tree_val@U?$_Tree_simple_types@U?$pair@$$CBKV?$vector@KV?$allocator@K@std@@@std@@@std@@@std@@@std@@QAEXAAV?$allocator@U?$_Tree_node@U?$pair@$$CBKV?$vector@KV?$allocator@K@std@@@std@@@std@@PAX@std@@@1@PAU?$_Tree_node@U?$pair@$$CBKV?$vector@KV?$allocator@K@std@@@std@@@std@@PAX@1@@Z ; std::_Tree_val<std::_Tree_simple_types<std::pair<unsigned long const ,std::vector<unsigned long,std::allocator<unsigned long> > > > >::_Erase_tree<std::allocator<std::_Tree_node<std::pair<unsigned long const ,std::vector<unsigned long,std::allocator<unsigned long> > >,void *> > >
PUBLIC	??$_Find_lower_bound@K@?$_Tree@V?$_Tmap_traits@KV?$vector@KV?$allocator@K@std@@@std@@U?$less@K@2@V?$allocator@U?$pair@$$CBKV?$vector@KV?$allocator@K@std@@@std@@@std@@@2@$0A@@std@@@std@@IBE?AU?$_Tree_find_result@PAU?$_Tree_node@U?$pair@$$CBKV?$vector@KV?$allocator@K@std@@@std@@@std@@PAX@std@@@1@ABK@Z ; std::_Tree<std::_Tmap_traits<unsigned long,std::vector<unsigned long,std::allocator<unsigned long> >,std::less<unsigned long>,std::allocator<std::pair<unsigned long const ,std::vector<unsigned long,std::allocator<unsigned long> > > >,0> >::_Find_lower_bound<unsigned long>
PUBLIC	??1?$_Alloc_construct_ptr@V?$allocator@U?$_Tree_node@U?$pair@$$CBKV?$vector@KV?$allocator@K@std@@@std@@@std@@PAX@std@@@std@@@std@@QAE@XZ ; std::_Alloc_construct_ptr<std::allocator<std::_Tree_node<std::pair<unsigned long const ,std::vector<unsigned long,std::allocator<unsigned long> > >,void *> > >::~_Alloc_construct_ptr<std::allocator<std::_Tree_node<std::pair<unsigned long const ,std::vector<unsigned long,std::allocator<unsigned long> > >,void *> > >
PUBLIC	??$_Find_lower_bound@K@?$_Tree@V?$_Tmap_traits@KPAVCHousing@@U?$less@K@std@@V?$allocator@U?$pair@$$CBKPAVCHousing@@@std@@@3@$0A@@std@@@std@@IBE?AU?$_Tree_find_result@PAU?$_Tree_node@U?$pair@$$CBKPAVCHousing@@@std@@PAX@std@@@1@ABK@Z ; std::_Tree<std::_Tmap_traits<unsigned long,CHousing *,std::less<unsigned long>,std::allocator<std::pair<unsigned long const ,CHousing *> >,0> >::_Find_lower_bound<unsigned long>
PUBLIC	??1?$_Alloc_construct_ptr@V?$allocator@U?$_Tree_node@U?$pair@$$CBKPAVCHousing@@@std@@PAX@std@@@std@@@std@@QAE@XZ ; std::_Alloc_construct_ptr<std::allocator<std::_Tree_node<std::pair<unsigned long const ,CHousing *>,void *> > >::~_Alloc_construct_ptr<std::allocator<std::_Tree_node<std::pair<unsigned long const ,CHousing *>,void *> > >
PUBLIC	??$_Copy_memmove@PAUHOUSINGINFO@@PAU1@@std@@YAPAUHOUSINGINFO@@PAU1@00@Z ; std::_Copy_memmove<HOUSINGINFO *,HOUSINGINFO *>
PUBLIC	??$_Emplace_reallocate@ABUHOUSINGINFO@@@?$vector@UHOUSINGINFO@@V?$allocator@UHOUSINGINFO@@@std@@@std@@AAEPAUHOUSINGINFO@@QAU2@ABU2@@Z ; std::vector<HOUSINGINFO,std::allocator<HOUSINGINFO> >::_Emplace_reallocate<HOUSINGINFO const &>
PUBLIC	??$_Copy_memmove@PAKPAK@std@@YAPAKPAK00@Z	; std::_Copy_memmove<unsigned long *,unsigned long *>
PUBLIC	??$_Emplace_reallocate@ABK@?$vector@KV?$allocator@K@std@@@std@@AAEPAKQAKABK@Z ; std::vector<unsigned long,std::allocator<unsigned long> >::_Emplace_reallocate<unsigned long const &>
PUBLIC	??$_Copy_memmove_tail@PAUHOUSINGINFO@@@std@@YAPAUHOUSINGINFO@@QBDQAU1@II@Z ; std::_Copy_memmove_tail<HOUSINGINFO *>
PUBLIC	??$_Copy_memmove_tail@PAK@std@@YAPAKQBDQAKII@Z	; std::_Copy_memmove_tail<unsigned long *>
PUBLIC	??_7exception@std@@6B@				; std::exception::`vftable'
PUBLIC	??_C@_0BC@EOODALEL@Unknown?5exception@		; `string'
PUBLIC	??_7bad_alloc@std@@6B@				; std::bad_alloc::`vftable'
PUBLIC	??_7bad_array_new_length@std@@6B@		; std::bad_array_new_length::`vftable'
PUBLIC	??_C@_0BF@KINCDENJ@bad?5array?5new?5length@	; `string'
PUBLIC	??_R0?AVexception@std@@@8			; std::exception `RTTI Type Descriptor'
PUBLIC	__CT??_R0?AVexception@std@@@8??0exception@std@@QAE@ABV01@@Z12
PUBLIC	__TI3?AVbad_array_new_length@std@@
PUBLIC	__CTA3?AVbad_array_new_length@std@@
PUBLIC	??_R0?AVbad_array_new_length@std@@@8		; std::bad_array_new_length `RTTI Type Descriptor'
PUBLIC	__CT??_R0?AVbad_array_new_length@std@@@8??0bad_array_new_length@std@@QAE@ABV01@@Z12
PUBLIC	??_R0?AVbad_alloc@std@@@8			; std::bad_alloc `RTTI Type Descriptor'
PUBLIC	__CT??_R0?AVbad_alloc@std@@@8??0bad_alloc@std@@QAE@ABV01@@Z12
PUBLIC	??_C@_0BB@GCADKGJO@map?1set?5too?5long@		; `string'
PUBLIC	??_C@_0BM@HMFGHCP@?$CFs?5min?3?$CFd?0?5max?3?$CFd?0?5index?3?$CFd@ ; `string'
PUBLIC	??_C@_0BI@BEIFNGEL@GetItemProp?5range_error@	; `string'
PUBLIC	??_C@_0BA@FOIKENOD@vector?5too?5long@		; `string'
PUBLIC	??_R4exception@std@@6B@				; std::exception::`RTTI Complete Object Locator'
PUBLIC	??_R3exception@std@@8				; std::exception::`RTTI Class Hierarchy Descriptor'
PUBLIC	??_R2exception@std@@8				; std::exception::`RTTI Base Class Array'
PUBLIC	??_R1A@?0A@EA@exception@std@@8			; std::exception::`RTTI Base Class Descriptor at (0,-1,0,64)'
PUBLIC	??_R4bad_array_new_length@std@@6B@		; std::bad_array_new_length::`RTTI Complete Object Locator'
PUBLIC	??_R3bad_array_new_length@std@@8		; std::bad_array_new_length::`RTTI Class Hierarchy Descriptor'
PUBLIC	??_R2bad_array_new_length@std@@8		; std::bad_array_new_length::`RTTI Base Class Array'
PUBLIC	??_R1A@?0A@EA@bad_array_new_length@std@@8	; std::bad_array_new_length::`RTTI Base Class Descriptor at (0,-1,0,64)'
PUBLIC	??_R1A@?0A@EA@bad_alloc@std@@8			; std::bad_alloc::`RTTI Base Class Descriptor at (0,-1,0,64)'
PUBLIC	??_R3bad_alloc@std@@8				; std::bad_alloc::`RTTI Class Hierarchy Descriptor'
PUBLIC	??_R2bad_alloc@std@@8				; std::bad_alloc::`RTTI Base Class Array'
PUBLIC	??_R4bad_alloc@std@@6B@				; std::bad_alloc::`RTTI Complete Object Locator'
PUBLIC	??_C@_0DH@MBBGENJL@CHousingMng?3?3DestroyHousing?$CI?$CJ?5?9@ ; `string'
PUBLIC	??_C@_04OEDFLLKD@?$CC?$CFs?$CC@			; `string'
PUBLIC	??_C@_0DH@NCLOMDHD@CHousingMng?3?3CreateHousing?$CI?$CJ?5?9?5@ ; `string'
EXTRN	??2@YAPAXI@Z:PROC				; operator new
EXTRN	??3@YAXPAXI@Z:PROC				; operator delete
EXTRN	_atexit:PROC
EXTRN	__Init_thread_header:PROC
EXTRN	__Init_thread_abort:PROC
EXTRN	__Init_thread_footer:PROC
EXTRN	__invoke_watson:PROC
EXTRN	___std_exception_copy:PROC
EXTRN	___std_exception_destroy:PROC
EXTRN	??_Eexception@std@@UAEPAXI@Z:PROC		; std::exception::`vector deleting destructor'
EXTRN	??_Ebad_alloc@std@@UAEPAXI@Z:PROC		; std::bad_alloc::`vector deleting destructor'
EXTRN	??_Ebad_array_new_length@std@@UAEPAXI@Z:PROC	; std::bad_array_new_length::`vector deleting destructor'
EXTRN	?_Xlength_error@std@@YAXPBD@Z:PROC		; std::_Xlength_error
EXTRN	?Error@@YAPBDPBDZZ:PROC				; Error
EXTRN	?Delete@CObj@@QAEXXZ:PROC			; CObj::Delete
EXTRN	?SetPos@CObj@@QAEXABUD3DXVECTOR3@@@Z:PROC	; CObj::SetPos
EXTRN	?SetAngle@CObj@@QAEXM@Z:PROC			; CObj::SetAngle
EXTRN	?ApplySkill@CCtrl@@QAEXPAV1@PAUItemProp@@PAUAddSkillProp@@_NHHH@Z:PROC ; CCtrl::ApplySkill
EXTRN	?GetCtrl@CProject@@QAEPAVCCtrl@@K@Z:PROC	; CProject::GetCtrl
EXTRN	??0CAr@@QAE@PAXI@Z:PROC				; CAr::CAr
EXTRN	??1CAr@@QAE@XZ:PROC				; CAr::~CAr
EXTRN	?CheckBuf@CAr@@QAEXI@Z:PROC			; CAr::CheckBuf
EXTRN	?GetBuffer@CAr@@QAEPAEPAH@Z:PROC		; CAr::GetBuffer
EXTRN	?RemoveBuff@CMover@@QAEXGG@Z:PROC		; CMover::RemoveBuff
EXTRN	?Replace@CMover@@QAEHKKAAUD3DXVECTOR3@@W4REPLACE_TYPE@@H@Z:PROC ; CMover::Replace
EXTRN	?GetLinkMap@CLayeredLinkMap@@QAEPAVCLinkMap@@H@Z:PROC ; CLayeredLinkMap::GetLinkMap
EXTRN	?Invalidate@CLayeredLinkMap@@QAEXHH@Z:PROC	; CLayeredLinkMap::Invalidate
EXTRN	?AddObj@CWorld@@QAEHPAVCObj@@HH@Z:PROC		; CWorld::AddObj
EXTRN	?CreateLayer@CWorld@@QAEHH@Z:PROC		; CWorld::CreateLayer
EXTRN	?CreateObj@@YAPAVCObj@@PAUIDirect3DDevice9@@KKH@Z:PROC ; CreateObj
EXTRN	?Send@CDPSock@@QAEHPADKK@Z:PROC			; CDPSock::Send
EXTRN	?GetFriend@CRTMessenger@@QAEPAU_Friend@@K@Z:PROC ; CRTMessenger::GetFriend
EXTRN	?GetInstance@CPlayerDataCenter@@SAPAV1@XZ:PROC	; CPlayerDataCenter::GetInstance
EXTRN	?GetPlayerString@CPlayerDataCenter@@QAEPBDK@Z:PROC ; CPlayerDataCenter::GetPlayerString
EXTRN	?AddDefinedText@CUser@@QAEXH@Z:PROC		; CUser::AddDefinedText
EXTRN	?AddDefinedCaption@CUser@@QAAXHHPBDZZ:PROC	; CUser::AddDefinedCaption
EXTRN	?AddHousingSetFurnitureList@CUser@@QAEXAAUHOUSINGINFO@@H@Z:PROC ; CUser::AddHousingSetFurnitureList
EXTRN	?AddHousingSetupFurniture@CUser@@QAEXPAUHOUSINGINFO@@@Z:PROC ; CUser::AddHousingSetupFurniture
EXTRN	?AddHousingSetVisitAllow@CUser@@QAEXKH@Z:PROC	; CUser::AddHousingSetVisitAllow
EXTRN	?AddHousingVisitableList@CUser@@QAEXAAV?$vector@KV?$allocator@K@std@@@std@@@Z:PROC ; CUser::AddHousingVisitableList
EXTRN	?AddHousingPaperingInfo@CUserMng@@QAEXKHK@Z:PROC ; CUserMng::AddHousingPaperingInfo
EXTRN	?GetWorld@CWorldMng@@QAEPAVCWorld@@K@Z:PROC	; CWorldMng::GetWorld
EXTRN	?GetInstance@CNpcChecker@@SAPAV1@XZ:PROC	; CNpcChecker::GetInstance
EXTRN	?IsCloseNpc@CNpcChecker@@QAEHHPAVCWorld@@AAUD3DXVECTOR3@@@Z:PROC ; CNpcChecker::IsCloseNpc
EXTRN	@__security_check_cookie@4:PROC
EXTRN	__CxxThrowException@8:PROC
EXTRN	___CxxFrameHandler3:PROC
EXTRN	__chkstk:PROC
EXTRN	_memmove:PROC
EXTRN	__Init_thread_epoch:DWORD
EXTRN	??_7type_info@@6B@:QWORD			; type_info::`vftable'
EXTRN	?g_tCurrent@@3JA:DWORD				; g_tCurrent
EXTRN	?prj@@3VCProject@@A:BYTE			; prj
EXTRN	?g_uIdofMulti@@3KA:DWORD			; g_uIdofMulti
EXTRN	?g_dpDBClient@@3VCDPDatabaseClient@@A:BYTE	; g_dpDBClient
EXTRN	?g_UserMng@@3VCUserMng@@A:BYTE			; g_UserMng
EXTRN	?g_WorldMng@@3VCWorldMng@@A:BYTE		; g_WorldMng
EXTRN	___security_cookie:DWORD
EXTRN	__fltused:DWORD
EXTRN	__tls_array:DWORD
EXTRN	__tls_index:DWORD
;	COMDAT ?sHousingMng@?1??GetInstance@CHousingMng@@SAPAV2@XZ@4V2@A
_BSS	SEGMENT
?sHousingMng@?1??GetInstance@CHousingMng@@SAPAV2@XZ@4V2@A DB 010H DUP (?) ; `CHousingMng::GetInstance'::`2'::sHousingMng
_BSS	ENDS
;	COMDAT ?$TSS0@?1??GetInstance@CHousingMng@@SAPAV2@XZ@4HA
_BSS	SEGMENT
?$TSS0@?1??GetInstance@CHousingMng@@SAPAV2@XZ@4HA DD 01H DUP (?) ; `CHousingMng::GetInstance'::`2'::$TSS0
_BSS	ENDS
;	COMDAT ??_C@_0DH@NCLOMDHD@CHousingMng?3?3CreateHousing?$CI?$CJ?5?9?5@
CONST	SEGMENT
??_C@_0DH@NCLOMDHD@CHousingMng?3?3CreateHousing?$CI?$CJ?5?9?5@ DB 'CHousi'
	DB	'ngMng::CreateHousing() - Housing Create Failed!!', 00H ; `string'
CONST	ENDS
;	COMDAT ??_C@_04OEDFLLKD@?$CC?$CFs?$CC@
CONST	SEGMENT
??_C@_04OEDFLLKD@?$CC?$CFs?$CC@ DB '"%s"', 00H		; `string'
CONST	ENDS
;	COMDAT ??_C@_0DH@MBBGENJL@CHousingMng?3?3DestroyHousing?$CI?$CJ?5?9@
CONST	SEGMENT
??_C@_0DH@MBBGENJL@CHousingMng?3?3DestroyHousing?$CI?$CJ?5?9@ DB 'CHousin'
	DB	'gMng::DestroyHousing() - Housing not found : %d', 00H ; `string'
CONST	ENDS
;	COMDAT ??_R4bad_alloc@std@@6B@
rdata$r	SEGMENT
??_R4bad_alloc@std@@6B@ DD 00H				; std::bad_alloc::`RTTI Complete Object Locator'
	DD	00H
	DD	00H
	DD	FLAT:??_R0?AVbad_alloc@std@@@8
	DD	FLAT:??_R3bad_alloc@std@@8
rdata$r	ENDS
;	COMDAT ??_R2bad_alloc@std@@8
rdata$r	SEGMENT
??_R2bad_alloc@std@@8 DD FLAT:??_R1A@?0A@EA@bad_alloc@std@@8 ; std::bad_alloc::`RTTI Base Class Array'
	DD	FLAT:??_R1A@?0A@EA@exception@std@@8
rdata$r	ENDS
;	COMDAT ??_R3bad_alloc@std@@8
rdata$r	SEGMENT
??_R3bad_alloc@std@@8 DD 00H				; std::bad_alloc::`RTTI Class Hierarchy Descriptor'
	DD	00H
	DD	02H
	DD	FLAT:??_R2bad_alloc@std@@8
rdata$r	ENDS
;	COMDAT ??_R1A@?0A@EA@bad_alloc@std@@8
rdata$r	SEGMENT
??_R1A@?0A@EA@bad_alloc@std@@8 DD FLAT:??_R0?AVbad_alloc@std@@@8 ; std::bad_alloc::`RTTI Base Class Descriptor at (0,-1,0,64)'
	DD	01H
	DD	00H
	DD	0ffffffffH
	DD	00H
	DD	040H
	DD	FLAT:??_R3bad_alloc@std@@8
rdata$r	ENDS
;	COMDAT ??_R1A@?0A@EA@bad_array_new_length@std@@8
rdata$r	SEGMENT
??_R1A@?0A@EA@bad_array_new_length@std@@8 DD FLAT:??_R0?AVbad_array_new_length@std@@@8 ; std::bad_array_new_length::`RTTI Base Class Descriptor at (0,-1,0,64)'
	DD	02H
	DD	00H
	DD	0ffffffffH
	DD	00H
	DD	040H
	DD	FLAT:??_R3bad_array_new_length@std@@8
rdata$r	ENDS
;	COMDAT ??_R2bad_array_new_length@std@@8
rdata$r	SEGMENT
??_R2bad_array_new_length@std@@8 DD FLAT:??_R1A@?0A@EA@bad_array_new_length@std@@8 ; std::bad_array_new_length::`RTTI Base Class Array'
	DD	FLAT:??_R1A@?0A@EA@bad_alloc@std@@8
	DD	FLAT:??_R1A@?0A@EA@exception@std@@8
rdata$r	ENDS
;	COMDAT ??_R3bad_array_new_length@std@@8
rdata$r	SEGMENT
??_R3bad_array_new_length@std@@8 DD 00H			; std::bad_array_new_length::`RTTI Class Hierarchy Descriptor'
	DD	00H
	DD	03H
	DD	FLAT:??_R2bad_array_new_length@std@@8
rdata$r	ENDS
;	COMDAT ??_R4bad_array_new_length@std@@6B@
rdata$r	SEGMENT
??_R4bad_array_new_length@std@@6B@ DD 00H		; std::bad_array_new_length::`RTTI Complete Object Locator'
	DD	00H
	DD	00H
	DD	FLAT:??_R0?AVbad_array_new_length@std@@@8
	DD	FLAT:??_R3bad_array_new_length@std@@8
rdata$r	ENDS
;	COMDAT ??_R1A@?0A@EA@exception@std@@8
rdata$r	SEGMENT
??_R1A@?0A@EA@exception@std@@8 DD FLAT:??_R0?AVexception@std@@@8 ; std::exception::`RTTI Base Class Descriptor at (0,-1,0,64)'
	DD	00H
	DD	00H
	DD	0ffffffffH
	DD	00H
	DD	040H
	DD	FLAT:??_R3exception@std@@8
rdata$r	ENDS
;	COMDAT ??_R2exception@std@@8
rdata$r	SEGMENT
??_R2exception@std@@8 DD FLAT:??_R1A@?0A@EA@exception@std@@8 ; std::exception::`RTTI Base Class Array'
rdata$r	ENDS
;	COMDAT ??_R3exception@std@@8
rdata$r	SEGMENT
??_R3exception@std@@8 DD 00H				; std::exception::`RTTI Class Hierarchy Descriptor'
	DD	00H
	DD	01H
	DD	FLAT:??_R2exception@std@@8
rdata$r	ENDS
;	COMDAT ??_R4exception@std@@6B@
rdata$r	SEGMENT
??_R4exception@std@@6B@ DD 00H				; std::exception::`RTTI Complete Object Locator'
	DD	00H
	DD	00H
	DD	FLAT:??_R0?AVexception@std@@@8
	DD	FLAT:??_R3exception@std@@8
rdata$r	ENDS
;	COMDAT ??_C@_0BA@FOIKENOD@vector?5too?5long@
CONST	SEGMENT
??_C@_0BA@FOIKENOD@vector?5too?5long@ DB 'vector too long', 00H ; `string'
CONST	ENDS
;	COMDAT ??_C@_0BI@BEIFNGEL@GetItemProp?5range_error@
CONST	SEGMENT
??_C@_0BI@BEIFNGEL@GetItemProp?5range_error@ DB 'GetItemProp range_error', 00H ; `string'
CONST	ENDS
;	COMDAT ??_C@_0BM@HMFGHCP@?$CFs?5min?3?$CFd?0?5max?3?$CFd?0?5index?3?$CFd@
CONST	SEGMENT
??_C@_0BM@HMFGHCP@?$CFs?5min?3?$CFd?0?5max?3?$CFd?0?5index?3?$CFd@ DB '%s'
	DB	' min:%d, max:%d, index:%d', 00H		; `string'
CONST	ENDS
;	COMDAT ??_C@_0BB@GCADKGJO@map?1set?5too?5long@
CONST	SEGMENT
??_C@_0BB@GCADKGJO@map?1set?5too?5long@ DB 'map/set too long', 00H ; `string'
CONST	ENDS
;	COMDAT __CT??_R0?AVbad_alloc@std@@@8??0bad_alloc@std@@QAE@ABV01@@Z12
xdata$x	SEGMENT
__CT??_R0?AVbad_alloc@std@@@8??0bad_alloc@std@@QAE@ABV01@@Z12 DD 010H
	DD	FLAT:??_R0?AVbad_alloc@std@@@8
	DD	00H
	DD	0ffffffffH
	ORG $+4
	DD	0cH
	DD	FLAT:??0bad_alloc@std@@QAE@ABV01@@Z
xdata$x	ENDS
;	COMDAT ??_R0?AVbad_alloc@std@@@8
data$r	SEGMENT
??_R0?AVbad_alloc@std@@@8 DD FLAT:??_7type_info@@6B@	; std::bad_alloc `RTTI Type Descriptor'
	DD	00H
	DB	'.?AVbad_alloc@std@@', 00H
data$r	ENDS
;	COMDAT __CT??_R0?AVbad_array_new_length@std@@@8??0bad_array_new_length@std@@QAE@ABV01@@Z12
xdata$x	SEGMENT
__CT??_R0?AVbad_array_new_length@std@@@8??0bad_array_new_length@std@@QAE@ABV01@@Z12 DD 00H
	DD	FLAT:??_R0?AVbad_array_new_length@std@@@8
	DD	00H
	DD	0ffffffffH
	ORG $+4
	DD	0cH
	DD	FLAT:??0bad_array_new_length@std@@QAE@ABV01@@Z
xdata$x	ENDS
;	COMDAT ??_R0?AVbad_array_new_length@std@@@8
data$r	SEGMENT
??_R0?AVbad_array_new_length@std@@@8 DD FLAT:??_7type_info@@6B@ ; std::bad_array_new_length `RTTI Type Descriptor'
	DD	00H
	DB	'.?AVbad_array_new_length@std@@', 00H
data$r	ENDS
;	COMDAT __CTA3?AVbad_array_new_length@std@@
xdata$x	SEGMENT
__CTA3?AVbad_array_new_length@std@@ DD 03H
	DD	FLAT:__CT??_R0?AVbad_array_new_length@std@@@8??0bad_array_new_length@std@@QAE@ABV01@@Z12
	DD	FLAT:__CT??_R0?AVbad_alloc@std@@@8??0bad_alloc@std@@QAE@ABV01@@Z12
	DD	FLAT:__CT??_R0?AVexception@std@@@8??0exception@std@@QAE@ABV01@@Z12
xdata$x	ENDS
;	COMDAT __TI3?AVbad_array_new_length@std@@
xdata$x	SEGMENT
__TI3?AVbad_array_new_length@std@@ DD 00H
	DD	FLAT:??1bad_array_new_length@std@@UAE@XZ
	DD	00H
	DD	FLAT:__CTA3?AVbad_array_new_length@std@@
xdata$x	ENDS
;	COMDAT __CT??_R0?AVexception@std@@@8??0exception@std@@QAE@ABV01@@Z12
xdata$x	SEGMENT
__CT??_R0?AVexception@std@@@8??0exception@std@@QAE@ABV01@@Z12 DD 00H
	DD	FLAT:??_R0?AVexception@std@@@8
	DD	00H
	DD	0ffffffffH
	ORG $+4
	DD	0cH
	DD	FLAT:??0exception@std@@QAE@ABV01@@Z
xdata$x	ENDS
;	COMDAT ??_R0?AVexception@std@@@8
data$r	SEGMENT
??_R0?AVexception@std@@@8 DD FLAT:??_7type_info@@6B@	; std::exception `RTTI Type Descriptor'
	DD	00H
	DB	'.?AVexception@std@@', 00H
data$r	ENDS
;	COMDAT ??_C@_0BF@KINCDENJ@bad?5array?5new?5length@
CONST	SEGMENT
??_C@_0BF@KINCDENJ@bad?5array?5new?5length@ DB 'bad array new length', 00H ; `string'
CONST	ENDS
;	COMDAT ??_7bad_array_new_length@std@@6B@
CONST	SEGMENT
??_7bad_array_new_length@std@@6B@ DD FLAT:??_R4bad_array_new_length@std@@6B@ ; std::bad_array_new_length::`vftable'
	DD	FLAT:??_Ebad_array_new_length@std@@UAEPAXI@Z
	DD	FLAT:?what@exception@std@@UBEPBDXZ
CONST	ENDS
;	COMDAT ??_7bad_alloc@std@@6B@
CONST	SEGMENT
??_7bad_alloc@std@@6B@ DD FLAT:??_R4bad_alloc@std@@6B@	; std::bad_alloc::`vftable'
	DD	FLAT:??_Ebad_alloc@std@@UAEPAXI@Z
	DD	FLAT:?what@exception@std@@UBEPBDXZ
CONST	ENDS
;	COMDAT ??_C@_0BC@EOODALEL@Unknown?5exception@
CONST	SEGMENT
??_C@_0BC@EOODALEL@Unknown?5exception@ DB 'Unknown exception', 00H ; `string'
CONST	ENDS
;	COMDAT ??_7exception@std@@6B@
CONST	SEGMENT
??_7exception@std@@6B@ DD FLAT:??_R4exception@std@@6B@	; std::exception::`vftable'
	DD	FLAT:??_Eexception@std@@UAEPAXI@Z
	DD	FLAT:?what@exception@std@@UBEPBDXZ
CONST	ENDS
;	COMDAT xdata$x
xdata$x	SEGMENT
__unwindtable$??$?0U?$pair@$$CBKPAVCHousing@@@std@@@?$_Tree_temp_node@V?$allocator@U?$_Tree_node@U?$pair@$$CBKPAVCHousing@@@std@@PAX@std@@@std@@@std@@QAE@AAV?$allocator@U?$_Tree_node@U?$pair@$$CBKPAVCHousing@@@std@@PAX@std@@@1@PAU?$_Tree_node@U?$pair@$$CBKPAVCHousing@@@std@@PAX@1@$$QAU?$pair@$$CBKPAVCHousing@@@1@@Z DD 0ffffffffH
	DD	FLAT:__unwindfunclet$??$?0U?$pair@$$CBKPAVCHousing@@@std@@@?$_Tree_temp_node@V?$allocator@U?$_Tree_node@U?$pair@$$CBKPAVCHousing@@@std@@PAX@std@@@std@@@std@@QAE@AAV?$allocator@U?$_Tree_node@U?$pair@$$CBKPAVCHousing@@@std@@PAX@std@@@1@PAU?$_Tree_node@U?$pair@$$CBKPAVCHousing@@@std@@PAX@1@$$QAU?$pair@$$CBKPAVCHousing@@@1@@Z$1
__ehfuncinfo$??$?0U?$pair@$$CBKPAVCHousing@@@std@@@?$_Tree_temp_node@V?$allocator@U?$_Tree_node@U?$pair@$$CBKPAVCHousing@@@std@@PAX@std@@@std@@@std@@QAE@AAV?$allocator@U?$_Tree_node@U?$pair@$$CBKPAVCHousing@@@std@@PAX@std@@@1@PAU?$_Tree_node@U?$pair@$$CBKPAVCHousing@@@std@@PAX@1@$$QAU?$pair@$$CBKPAVCHousing@@@1@@Z DD 019930522H
	DD	01H
	DD	FLAT:__unwindtable$??$?0U?$pair@$$CBKPAVCHousing@@@std@@@?$_Tree_temp_node@V?$allocator@U?$_Tree_node@U?$pair@$$CBKPAVCHousing@@@std@@PAX@std@@@std@@@std@@QAE@AAV?$allocator@U?$_Tree_node@U?$pair@$$CBKPAVCHousing@@@std@@PAX@std@@@1@PAU?$_Tree_node@U?$pair@$$CBKPAVCHousing@@@std@@PAX@1@$$QAU?$pair@$$CBKPAVCHousing@@@1@@Z
	DD	2 DUP(00H)
	DD	2 DUP(00H)
	DD	00H
	DD	01H
xdata$x	ENDS
;	COMDAT xdata$x
xdata$x	SEGMENT
__unwindtable$??0?$_Tree_temp_node_alloc@V?$allocator@U?$_Tree_node@U?$pair@$$CBKPAVCHousing@@@std@@PAX@std@@@std@@@std@@QAE@AAV?$allocator@U?$_Tree_node@U?$pair@$$CBKPAVCHousing@@@std@@PAX@std@@@1@@Z DD 0ffffffffH
	DD	FLAT:__unwindfunclet$??0?$_Tree_temp_node_alloc@V?$allocator@U?$_Tree_node@U?$pair@$$CBKPAVCHousing@@@std@@PAX@std@@@std@@@std@@QAE@AAV?$allocator@U?$_Tree_node@U?$pair@$$CBKPAVCHousing@@@std@@PAX@std@@@1@@Z$0
__ehfuncinfo$??0?$_Tree_temp_node_alloc@V?$allocator@U?$_Tree_node@U?$pair@$$CBKPAVCHousing@@@std@@PAX@std@@@std@@@std@@QAE@AAV?$allocator@U?$_Tree_node@U?$pair@$$CBKPAVCHousing@@@std@@PAX@std@@@1@@Z DD 019930522H
	DD	01H
	DD	FLAT:__unwindtable$??0?$_Tree_temp_node_alloc@V?$allocator@U?$_Tree_node@U?$pair@$$CBKPAVCHousing@@@std@@PAX@std@@@std@@@std@@QAE@AAV?$allocator@U?$_Tree_node@U?$pair@$$CBKPAVCHousing@@@std@@PAX@std@@@1@@Z
	DD	2 DUP(00H)
	DD	2 DUP(00H)
	DD	00H
	DD	01H
xdata$x	ENDS
;	COMDAT xdata$x
xdata$x	SEGMENT
__unwindtable$??$?0U?$pair@$$CBKV?$vector@KV?$allocator@K@std@@@std@@@std@@@?$_Tree_temp_node@V?$allocator@U?$_Tree_node@U?$pair@$$CBKV?$vector@KV?$allocator@K@std@@@std@@@std@@PAX@std@@@std@@@std@@QAE@AAV?$allocator@U?$_Tree_node@U?$pair@$$CBKV?$vector@KV?$allocator@K@std@@@std@@@std@@PAX@std@@@1@PAU?$_Tree_node@U?$pair@$$CBKV?$vector@KV?$allocator@K@std@@@std@@@std@@PAX@1@$$QAU?$pair@$$CBKV?$vector@KV?$allocator@K@std@@@std@@@1@@Z DD 0ffffffffH
	DD	FLAT:__unwindfunclet$??$?0U?$pair@$$CBKV?$vector@KV?$allocator@K@std@@@std@@@std@@@?$_Tree_temp_node@V?$allocator@U?$_Tree_node@U?$pair@$$CBKV?$vector@KV?$allocator@K@std@@@std@@@std@@PAX@std@@@std@@@std@@QAE@AAV?$allocator@U?$_Tree_node@U?$pair@$$CBKV?$vector@KV?$allocator@K@std@@@std@@@std@@PAX@std@@@1@PAU?$_Tree_node@U?$pair@$$CBKV?$vector@KV?$allocator@K@std@@@std@@@std@@PAX@1@$$QAU?$pair@$$CBKV?$vector@KV?$allocator@K@std@@@std@@@1@@Z$1
__ehfuncinfo$??$?0U?$pair@$$CBKV?$vector@KV?$allocator@K@std@@@std@@@std@@@?$_Tree_temp_node@V?$allocator@U?$_Tree_node@U?$pair@$$CBKV?$vector@KV?$allocator@K@std@@@std@@@std@@PAX@std@@@std@@@std@@QAE@AAV?$allocator@U?$_Tree_node@U?$pair@$$CBKV?$vector@KV?$allocator@K@std@@@std@@@std@@PAX@std@@@1@PAU?$_Tree_node@U?$pair@$$CBKV?$vector@KV?$allocator@K@std@@@std@@@std@@PAX@1@$$QAU?$pair@$$CBKV?$vector@KV?$allocator@K@std@@@std@@@1@@Z DD 019930522H
	DD	01H
	DD	FLAT:__unwindtable$??$?0U?$pair@$$CBKV?$vector@KV?$allocator@K@std@@@std@@@std@@@?$_Tree_temp_node@V?$allocator@U?$_Tree_node@U?$pair@$$CBKV?$vector@KV?$allocator@K@std@@@std@@@std@@PAX@std@@@std@@@std@@QAE@AAV?$allocator@U?$_Tree_node@U?$pair@$$CBKV?$vector@KV?$allocator@K@std@@@std@@@std@@PAX@std@@@1@PAU?$_Tree_node@U?$pair@$$CBKV?$vector@KV?$allocator@K@std@@@std@@@std@@PAX@1@$$QAU?$pair@$$CBKV?$vector@KV?$allocator@K@std@@@std@@@1@@Z
	DD	2 DUP(00H)
	DD	2 DUP(00H)
	DD	00H
	DD	01H
xdata$x	ENDS
;	COMDAT xdata$x
xdata$x	SEGMENT
__unwindtable$??0?$_Tree_temp_node_alloc@V?$allocator@U?$_Tree_node@U?$pair@$$CBKV?$vector@KV?$allocator@K@std@@@std@@@std@@PAX@std@@@std@@@std@@QAE@AAV?$allocator@U?$_Tree_node@U?$pair@$$CBKV?$vector@KV?$allocator@K@std@@@std@@@std@@PAX@std@@@1@@Z DD 0ffffffffH
	DD	FLAT:__unwindfunclet$??0?$_Tree_temp_node_alloc@V?$allocator@U?$_Tree_node@U?$pair@$$CBKV?$vector@KV?$allocator@K@std@@@std@@@std@@PAX@std@@@std@@@std@@QAE@AAV?$allocator@U?$_Tree_node@U?$pair@$$CBKV?$vector@KV?$allocator@K@std@@@std@@@std@@PAX@std@@@1@@Z$0
__ehfuncinfo$??0?$_Tree_temp_node_alloc@V?$allocator@U?$_Tree_node@U?$pair@$$CBKV?$vector@KV?$allocator@K@std@@@std@@@std@@PAX@std@@@std@@@std@@QAE@AAV?$allocator@U?$_Tree_node@U?$pair@$$CBKV?$vector@KV?$allocator@K@std@@@std@@@std@@PAX@std@@@1@@Z DD 019930522H
	DD	01H
	DD	FLAT:__unwindtable$??0?$_Tree_temp_node_alloc@V?$allocator@U?$_Tree_node@U?$pair@$$CBKV?$vector@KV?$allocator@K@std@@@std@@@std@@PAX@std@@@std@@@std@@QAE@AAV?$allocator@U?$_Tree_node@U?$pair@$$CBKV?$vector@KV?$allocator@K@std@@@std@@@std@@PAX@std@@@1@@Z
	DD	2 DUP(00H)
	DD	2 DUP(00H)
	DD	00H
	DD	01H
xdata$x	ENDS
;	COMDAT xdata$x
xdata$x	SEGMENT
__unwindtable$??$_Emplace@U?$pair@$$CBKPAVCHousing@@@std@@@?$_Tree@V?$_Tmap_traits@KPAVCHousing@@U?$less@K@std@@V?$allocator@U?$pair@$$CBKPAVCHousing@@@std@@@3@$0A@@std@@@std@@IAE?AU?$pair@PAU?$_Tree_node@U?$pair@$$CBKPAVCHousing@@@std@@PAX@std@@_N@1@$$QAU?$pair@$$CBKPAVCHousing@@@1@@Z DD 0ffffffffH
	DD	FLAT:__unwindfunclet$??$_Emplace@U?$pair@$$CBKPAVCHousing@@@std@@@?$_Tree@V?$_Tmap_traits@KPAVCHousing@@U?$less@K@std@@V?$allocator@U?$pair@$$CBKPAVCHousing@@@std@@@3@$0A@@std@@@std@@IAE?AU?$pair@PAU?$_Tree_node@U?$pair@$$CBKPAVCHousing@@@std@@PAX@std@@_N@1@$$QAU?$pair@$$CBKPAVCHousing@@@1@@Z$2
__ehfuncinfo$??$_Emplace@U?$pair@$$CBKPAVCHousing@@@std@@@?$_Tree@V?$_Tmap_traits@KPAVCHousing@@U?$less@K@std@@V?$allocator@U?$pair@$$CBKPAVCHousing@@@std@@@3@$0A@@std@@@std@@IAE?AU?$pair@PAU?$_Tree_node@U?$pair@$$CBKPAVCHousing@@@std@@PAX@std@@_N@1@$$QAU?$pair@$$CBKPAVCHousing@@@1@@Z DD 019930522H
	DD	01H
	DD	FLAT:__unwindtable$??$_Emplace@U?$pair@$$CBKPAVCHousing@@@std@@@?$_Tree@V?$_Tmap_traits@KPAVCHousing@@U?$less@K@std@@V?$allocator@U?$pair@$$CBKPAVCHousing@@@std@@@3@$0A@@std@@@std@@IAE?AU?$pair@PAU?$_Tree_node@U?$pair@$$CBKPAVCHousing@@@std@@PAX@std@@_N@1@$$QAU?$pair@$$CBKPAVCHousing@@@1@@Z
	DD	2 DUP(00H)
	DD	2 DUP(00H)
	DD	00H
	DD	01H
xdata$x	ENDS
;	COMDAT xdata$x
xdata$x	SEGMENT
__unwindtable$??$_Emplace@U?$pair@$$CBKV?$vector@KV?$allocator@K@std@@@std@@@std@@@?$_Tree@V?$_Tmap_traits@KV?$vector@KV?$allocator@K@std@@@std@@U?$less@K@2@V?$allocator@U?$pair@$$CBKV?$vector@KV?$allocator@K@std@@@std@@@std@@@2@$0A@@std@@@std@@IAE?AU?$pair@PAU?$_Tree_node@U?$pair@$$CBKV?$vector@KV?$allocator@K@std@@@std@@@std@@PAX@std@@_N@1@$$QAU?$pair@$$CBKV?$vector@KV?$allocator@K@std@@@std@@@1@@Z DD 0ffffffffH
	DD	FLAT:__unwindfunclet$??$_Emplace@U?$pair@$$CBKV?$vector@KV?$allocator@K@std@@@std@@@std@@@?$_Tree@V?$_Tmap_traits@KV?$vector@KV?$allocator@K@std@@@std@@U?$less@K@2@V?$allocator@U?$pair@$$CBKV?$vector@KV?$allocator@K@std@@@std@@@std@@@2@$0A@@std@@@std@@IAE?AU?$pair@PAU?$_Tree_node@U?$pair@$$CBKV?$vector@KV?$allocator@K@std@@@std@@@std@@PAX@std@@_N@1@$$QAU?$pair@$$CBKV?$vector@KV?$allocator@K@std@@@std@@@1@@Z$2
__ehfuncinfo$??$_Emplace@U?$pair@$$CBKV?$vector@KV?$allocator@K@std@@@std@@@std@@@?$_Tree@V?$_Tmap_traits@KV?$vector@KV?$allocator@K@std@@@std@@U?$less@K@2@V?$allocator@U?$pair@$$CBKV?$vector@KV?$allocator@K@std@@@std@@@std@@@2@$0A@@std@@@std@@IAE?AU?$pair@PAU?$_Tree_node@U?$pair@$$CBKV?$vector@KV?$allocator@K@std@@@std@@@std@@PAX@std@@_N@1@$$QAU?$pair@$$CBKV?$vector@KV?$allocator@K@std@@@std@@@1@@Z DD 019930522H
	DD	01H
	DD	FLAT:__unwindtable$??$_Emplace@U?$pair@$$CBKV?$vector@KV?$allocator@K@std@@@std@@@std@@@?$_Tree@V?$_Tmap_traits@KV?$vector@KV?$allocator@K@std@@@std@@U?$less@K@2@V?$allocator@U?$pair@$$CBKV?$vector@KV?$allocator@K@std@@@std@@@std@@@2@$0A@@std@@@std@@IAE?AU?$pair@PAU?$_Tree_node@U?$pair@$$CBKV?$vector@KV?$allocator@K@std@@@std@@@std@@PAX@std@@_N@1@$$QAU?$pair@$$CBKV?$vector@KV?$allocator@K@std@@@std@@@1@@Z
	DD	2 DUP(00H)
	DD	2 DUP(00H)
	DD	00H
	DD	01H
xdata$x	ENDS
;	COMDAT xdata$x
xdata$x	SEGMENT
__unwindtable$??$insert@$0A@$0A@@?$_Tree@V?$_Tmap_traits@KPAVCHousing@@U?$less@K@std@@V?$allocator@U?$pair@$$CBKPAVCHousing@@@std@@@3@$0A@@std@@@std@@QAE?AU?$pair@V?$_Tree_iterator@V?$_Tree_val@U?$_Tree_simple_types@U?$pair@$$CBKPAVCHousing@@@std@@@std@@@std@@@std@@_N@1@$$QAU?$pair@$$CBKPAVCHousing@@@1@@Z DD 0ffffffffH
	DD	FLAT:__unwindfunclet$??$insert@$0A@$0A@@?$_Tree@V?$_Tmap_traits@KPAVCHousing@@U?$less@K@std@@V?$allocator@U?$pair@$$CBKPAVCHousing@@@std@@@3@$0A@@std@@@std@@QAE?AU?$pair@V?$_Tree_iterator@V?$_Tree_val@U?$_Tree_simple_types@U?$pair@$$CBKPAVCHousing@@@std@@@std@@@std@@@std@@_N@1@$$QAU?$pair@$$CBKPAVCHousing@@@1@@Z$2
__ehfuncinfo$??$insert@$0A@$0A@@?$_Tree@V?$_Tmap_traits@KPAVCHousing@@U?$less@K@std@@V?$allocator@U?$pair@$$CBKPAVCHousing@@@std@@@3@$0A@@std@@@std@@QAE?AU?$pair@V?$_Tree_iterator@V?$_Tree_val@U?$_Tree_simple_types@U?$pair@$$CBKPAVCHousing@@@std@@@std@@@std@@@std@@_N@1@$$QAU?$pair@$$CBKPAVCHousing@@@1@@Z DD 019930522H
	DD	01H
	DD	FLAT:__unwindtable$??$insert@$0A@$0A@@?$_Tree@V?$_Tmap_traits@KPAVCHousing@@U?$less@K@std@@V?$allocator@U?$pair@$$CBKPAVCHousing@@@std@@@3@$0A@@std@@@std@@QAE?AU?$pair@V?$_Tree_iterator@V?$_Tree_val@U?$_Tree_simple_types@U?$pair@$$CBKPAVCHousing@@@std@@@std@@@std@@@std@@_N@1@$$QAU?$pair@$$CBKPAVCHousing@@@1@@Z
	DD	2 DUP(00H)
	DD	2 DUP(00H)
	DD	00H
	DD	01H
xdata$x	ENDS
;	COMDAT xdata$x
xdata$x	SEGMENT
__unwindtable$??$insert@$0A@$0A@@?$_Tree@V?$_Tmap_traits@KV?$vector@KV?$allocator@K@std@@@std@@U?$less@K@2@V?$allocator@U?$pair@$$CBKV?$vector@KV?$allocator@K@std@@@std@@@std@@@2@$0A@@std@@@std@@QAE?AU?$pair@V?$_Tree_iterator@V?$_Tree_val@U?$_Tree_simple_types@U?$pair@$$CBKV?$vector@KV?$allocator@K@std@@@std@@@std@@@std@@@std@@@std@@_N@1@$$QAU?$pair@$$CBKV?$vector@KV?$allocator@K@std@@@std@@@1@@Z DD 0ffffffffH
	DD	FLAT:__unwindfunclet$??$insert@$0A@$0A@@?$_Tree@V?$_Tmap_traits@KV?$vector@KV?$allocator@K@std@@@std@@U?$less@K@2@V?$allocator@U?$pair@$$CBKV?$vector@KV?$allocator@K@std@@@std@@@std@@@2@$0A@@std@@@std@@QAE?AU?$pair@V?$_Tree_iterator@V?$_Tree_val@U?$_Tree_simple_types@U?$pair@$$CBKV?$vector@KV?$allocator@K@std@@@std@@@std@@@std@@@std@@@std@@_N@1@$$QAU?$pair@$$CBKV?$vector@KV?$allocator@K@std@@@std@@@1@@Z$2
__ehfuncinfo$??$insert@$0A@$0A@@?$_Tree@V?$_Tmap_traits@KV?$vector@KV?$allocator@K@std@@@std@@U?$less@K@2@V?$allocator@U?$pair@$$CBKV?$vector@KV?$allocator@K@std@@@std@@@std@@@2@$0A@@std@@@std@@QAE?AU?$pair@V?$_Tree_iterator@V?$_Tree_val@U?$_Tree_simple_types@U?$pair@$$CBKV?$vector@KV?$allocator@K@std@@@std@@@std@@@std@@@std@@@std@@_N@1@$$QAU?$pair@$$CBKV?$vector@KV?$allocator@K@std@@@std@@@1@@Z DD 019930522H
	DD	01H
	DD	FLAT:__unwindtable$??$insert@$0A@$0A@@?$_Tree@V?$_Tmap_traits@KV?$vector@KV?$allocator@K@std@@@std@@U?$less@K@2@V?$allocator@U?$pair@$$CBKV?$vector@KV?$allocator@K@std@@@std@@@std@@@2@$0A@@std@@@std@@QAE?AU?$pair@V?$_Tree_iterator@V?$_Tree_val@U?$_Tree_simple_types@U?$pair@$$CBKV?$vector@KV?$allocator@K@std@@@std@@@std@@@std@@@std@@@std@@_N@1@$$QAU?$pair@$$CBKV?$vector@KV?$allocator@K@std@@@std@@@1@@Z
	DD	2 DUP(00H)
	DD	2 DUP(00H)
	DD	00H
	DD	01H
xdata$x	ENDS
;	COMDAT xdata$x
xdata$x	SEGMENT
__unwindtable$?CreateHousing@CHousingMng@@QAEPAVCHousing@@K@Z DD 0ffffffffH
	DD	FLAT:__unwindfunclet$?CreateHousing@CHousingMng@@QAEPAVCHousing@@K@Z$3
__ehfuncinfo$?CreateHousing@CHousingMng@@QAEPAVCHousing@@K@Z DD 019930522H
	DD	01H
	DD	FLAT:__unwindtable$?CreateHousing@CHousingMng@@QAEPAVCHousing@@K@Z
	DD	2 DUP(00H)
	DD	2 DUP(00H)
	DD	00H
	DD	01H
xdata$x	ENDS
;	COMDAT xdata$x
xdata$x	SEGMENT
__unwindtable$?SetAddVisitable@CHousingMng@@QAEXKK@Z DD 0ffffffffH
	DD	FLAT:__unwindfunclet$?SetAddVisitable@CHousingMng@@QAEXKK@Z$0
	DD	00H
	DD	FLAT:__unwindfunclet$?SetAddVisitable@CHousingMng@@QAEXKK@Z$1
	DD	01H
	DD	FLAT:__unwindfunclet$?SetAddVisitable@CHousingMng@@QAEXKK@Z$6
__ehfuncinfo$?SetAddVisitable@CHousingMng@@QAEXKK@Z DD 019930522H
	DD	03H
	DD	FLAT:__unwindtable$?SetAddVisitable@CHousingMng@@QAEXKK@Z
	DD	2 DUP(00H)
	DD	2 DUP(00H)
	DD	00H
	DD	01H
xdata$x	ENDS
;	COMDAT xdata$x
xdata$x	SEGMENT
__unwindtable$?ReqGMFunrnitureListAll@CHousingMng@@QAEXPAVCUser@@@Z DD 0ffffffffH
	DD	FLAT:__unwindfunclet$?ReqGMFunrnitureListAll@CHousingMng@@QAEXPAVCUser@@@Z$0
__ehfuncinfo$?ReqGMFunrnitureListAll@CHousingMng@@QAEXPAVCUser@@@Z DD 019930522H
	DD	01H
	DD	FLAT:__unwindtable$?ReqGMFunrnitureListAll@CHousingMng@@QAEXPAVCUser@@@Z
	DD	2 DUP(00H)
	DD	2 DUP(00H)
	DD	00H
	DD	01H
xdata$x	ENDS
;	COMDAT xdata$x
xdata$x	SEGMENT
__unwindtable$?ReqSetAllowVisit@CHousingMng@@QAEHPAVCUser@@KH@Z DD 0ffffffffH
	DD	FLAT:__unwindfunclet$?ReqSetAllowVisit@CHousingMng@@QAEHPAVCUser@@KH@Z$0
__ehfuncinfo$?ReqSetAllowVisit@CHousingMng@@QAEHPAVCUser@@KH@Z DD 019930522H
	DD	01H
	DD	FLAT:__unwindtable$?ReqSetAllowVisit@CHousingMng@@QAEHPAVCUser@@KH@Z
	DD	2 DUP(00H)
	DD	2 DUP(00H)
	DD	00H
	DD	01H
xdata$x	ENDS
;	COMDAT xdata$x
xdata$x	SEGMENT
__unwindtable$?ReqSetupFurniture@CHousingMng@@QAEHPAVCUser@@UHOUSINGINFO@@@Z DD 0ffffffffH
	DD	FLAT:__unwindfunclet$?ReqSetupFurniture@CHousingMng@@QAEHPAVCUser@@UHOUSINGINFO@@@Z$0
__ehfuncinfo$?ReqSetupFurniture@CHousingMng@@QAEHPAVCUser@@UHOUSINGINFO@@@Z DD 019930522H
	DD	01H
	DD	FLAT:__unwindtable$?ReqSetupFurniture@CHousingMng@@QAEHPAVCUser@@UHOUSINGINFO@@@Z
	DD	2 DUP(00H)
	DD	2 DUP(00H)
	DD	00H
	DD	01H
xdata$x	ENDS
;	COMDAT xdata$x
xdata$x	SEGMENT
__unwindtable$?ReqSetFurnitureList@CHousingMng@@QAEHPAVCUser@@K@Z DD 0ffffffffH
	DD	FLAT:__unwindfunclet$?ReqSetFurnitureList@CHousingMng@@QAEHPAVCUser@@K@Z$0
__ehfuncinfo$?ReqSetFurnitureList@CHousingMng@@QAEHPAVCUser@@K@Z DD 019930522H
	DD	01H
	DD	FLAT:__unwindtable$?ReqSetFurnitureList@CHousingMng@@QAEHPAVCUser@@K@Z
	DD	2 DUP(00H)
	DD	2 DUP(00H)
	DD	00H
	DD	01H
xdata$x	ENDS
;	COMDAT xdata$x
xdata$x	SEGMENT
__unwindtable$?ReqLoadHousingInfo@CHousingMng@@QAEXK@Z DD 0ffffffffH
	DD	FLAT:__unwindfunclet$?ReqLoadHousingInfo@CHousingMng@@QAEXK@Z$0
__ehfuncinfo$?ReqLoadHousingInfo@CHousingMng@@QAEXK@Z DD 019930522H
	DD	01H
	DD	FLAT:__unwindtable$?ReqLoadHousingInfo@CHousingMng@@QAEXK@Z
	DD	2 DUP(00H)
	DD	2 DUP(00H)
	DD	00H
	DD	01H
xdata$x	ENDS
;	COMDAT xdata$x
xdata$x	SEGMENT
__unwindtable$?GetInstance@CHousingMng@@SAPAV1@XZ DD 0ffffffffH
	DD	FLAT:__unwindfunclet$?GetInstance@CHousingMng@@SAPAV1@XZ$0
__ehfuncinfo$?GetInstance@CHousingMng@@SAPAV1@XZ DD 019930522H
	DD	01H
	DD	FLAT:__unwindtable$?GetInstance@CHousingMng@@SAPAV1@XZ
	DD	2 DUP(00H)
	DD	2 DUP(00H)
	DD	00H
	DD	01H
xdata$x	ENDS
;	COMDAT xdata$x
xdata$x	SEGMENT
__unwindtable$??0CHousingMng@@QAE@XZ DD 0ffffffffH
	DD	FLAT:__unwindfunclet$??0CHousingMng@@QAE@XZ$0
__ehfuncinfo$??0CHousingMng@@QAE@XZ DD 019930522H
	DD	01H
	DD	FLAT:__unwindtable$??0CHousingMng@@QAE@XZ
	DD	2 DUP(00H)
	DD	2 DUP(00H)
	DD	00H
	DD	01H
xdata$x	ENDS
;	COMDAT xdata$x
xdata$x	SEGMENT
__unwindtable$?GetAllPaperingInfo@CHousing@@QAE?AV?$vector@KV?$allocator@K@std@@@std@@XZ DD 0ffffffffH
	DD	FLAT:__unwindfunclet$?GetAllPaperingInfo@CHousing@@QAE?AV?$vector@KV?$allocator@K@std@@@std@@XZ$0
__ehfuncinfo$?GetAllPaperingInfo@CHousing@@QAE?AV?$vector@KV?$allocator@K@std@@@std@@XZ DD 019930522H
	DD	01H
	DD	FLAT:__unwindtable$?GetAllPaperingInfo@CHousing@@QAE?AV?$vector@KV?$allocator@K@std@@@std@@XZ
	DD	2 DUP(00H)
	DD	2 DUP(00H)
	DD	00H
	DD	01H
xdata$x	ENDS
;	COMDAT xdata$x
xdata$x	SEGMENT
__unwindtable$?Serialize@CHousing@@QAEXAAVCAr@@@Z DD 0ffffffffH
	DD	FLAT:__unwindfunclet$?Serialize@CHousing@@QAEXAAVCAr@@@Z$0
__ehfuncinfo$?Serialize@CHousing@@QAEXAAVCAr@@@Z DD 019930522H
	DD	01H
	DD	FLAT:__unwindtable$?Serialize@CHousing@@QAEXAAVCAr@@@Z
	DD	2 DUP(00H)
	DD	2 DUP(00H)
	DD	00H
	DD	01H
xdata$x	ENDS
;	COMDAT xdata$x
xdata$x	SEGMENT
__ehfuncinfo$??1CHousing@@QAE@XZ DD 019930522H
	DD	00H
	DD	00H
	DD	2 DUP(00H)
	DD	2 DUP(00H)
	DD	00H
	DD	05H
xdata$x	ENDS
; Function compile flags: /Ogtp
; File C:\Program Files\Microsoft Visual Studio\2022\Professional\VC\Tools\MSVC\14.44.35207\include\xutility
;	COMDAT ??$_Copy_memmove_tail@PAK@std@@YAPAKQBDQAKII@Z
_TEXT	SEGMENT
__First_ch$ = 8						; size = 4
__Dest$ = 12						; size = 4
__Byte_count$ = 16					; size = 4
__Object_count$ = 20					; size = 4
??$_Copy_memmove_tail@PAK@std@@YAPAKQBDQAKII@Z PROC	; std::_Copy_memmove_tail<unsigned long *>, COMDAT

; 4747 :     const char* const _First_ch, const _OutCtgIt _Dest, const size_t _Byte_count, const size_t _Object_count) {

  00000	55		 push	 ebp
  00001	8b ec		 mov	 ebp, esp
  00003	56		 push	 esi

; 4748 :     _STL_INTERNAL_CHECK(_Byte_count == _Object_count * sizeof(*_Dest));
; 4749 :     const auto _Dest_ptr = _STD _To_address(_Dest);
; 4750 :     const auto _Dest_ch  = const_cast<char*>(reinterpret_cast<const volatile char*>(_Dest_ptr));
; 4751 :     _CSTD memmove(_Dest_ch, _First_ch, _Byte_count);

  00004	8b 75 0c	 mov	 esi, DWORD PTR __Dest$[ebp]
  00007	57		 push	 edi
  00008	8b 7d 10	 mov	 edi, DWORD PTR __Byte_count$[ebp]
  0000b	57		 push	 edi
  0000c	ff 75 08	 push	 DWORD PTR __First_ch$[ebp]
  0000f	56		 push	 esi
  00010	e8 00 00 00 00	 call	 _memmove
  00015	83 c4 0c	 add	 esp, 12			; 0000000cH

; 4752 :     if constexpr (is_pointer_v<_OutCtgIt>) {
; 4753 :         (void) _Object_count;
; 4754 :         // CodeQL [SM02986] This cast is correct: we're bypassing pointer arithmetic for performance.
; 4755 :         return reinterpret_cast<_OutCtgIt>(_Dest_ch + _Byte_count);

  00018	8d 04 3e	 lea	 eax, DWORD PTR [esi+edi]
  0001b	5f		 pop	 edi
  0001c	5e		 pop	 esi

; 4756 :     } else {
; 4757 :         return _Dest + static_cast<_Iter_diff_t<_OutCtgIt>>(_Object_count);
; 4758 :     }
; 4759 : }

  0001d	5d		 pop	 ebp
  0001e	c3		 ret	 0
??$_Copy_memmove_tail@PAK@std@@YAPAKQBDQAKII@Z ENDP	; std::_Copy_memmove_tail<unsigned long *>
_TEXT	ENDS
; Function compile flags: /Ogtp
; File C:\Program Files\Microsoft Visual Studio\2022\Professional\VC\Tools\MSVC\14.44.35207\include\xutility
;	COMDAT ??$_Copy_memmove_tail@PAUHOUSINGINFO@@@std@@YAPAUHOUSINGINFO@@QBDQAU1@II@Z
_TEXT	SEGMENT
__First_ch$ = 8						; size = 4
__Dest$ = 12						; size = 4
__Byte_count$ = 16					; size = 4
__Object_count$ = 20					; size = 4
??$_Copy_memmove_tail@PAUHOUSINGINFO@@@std@@YAPAUHOUSINGINFO@@QBDQAU1@II@Z PROC ; std::_Copy_memmove_tail<HOUSINGINFO *>, COMDAT

; 4747 :     const char* const _First_ch, const _OutCtgIt _Dest, const size_t _Byte_count, const size_t _Object_count) {

  00000	55		 push	 ebp
  00001	8b ec		 mov	 ebp, esp
  00003	56		 push	 esi

; 4748 :     _STL_INTERNAL_CHECK(_Byte_count == _Object_count * sizeof(*_Dest));
; 4749 :     const auto _Dest_ptr = _STD _To_address(_Dest);
; 4750 :     const auto _Dest_ch  = const_cast<char*>(reinterpret_cast<const volatile char*>(_Dest_ptr));
; 4751 :     _CSTD memmove(_Dest_ch, _First_ch, _Byte_count);

  00004	8b 75 0c	 mov	 esi, DWORD PTR __Dest$[ebp]
  00007	57		 push	 edi
  00008	8b 7d 10	 mov	 edi, DWORD PTR __Byte_count$[ebp]
  0000b	57		 push	 edi
  0000c	ff 75 08	 push	 DWORD PTR __First_ch$[ebp]
  0000f	56		 push	 esi
  00010	e8 00 00 00 00	 call	 _memmove
  00015	83 c4 0c	 add	 esp, 12			; 0000000cH

; 4752 :     if constexpr (is_pointer_v<_OutCtgIt>) {
; 4753 :         (void) _Object_count;
; 4754 :         // CodeQL [SM02986] This cast is correct: we're bypassing pointer arithmetic for performance.
; 4755 :         return reinterpret_cast<_OutCtgIt>(_Dest_ch + _Byte_count);

  00018	8d 04 3e	 lea	 eax, DWORD PTR [esi+edi]
  0001b	5f		 pop	 edi
  0001c	5e		 pop	 esi

; 4756 :     } else {
; 4757 :         return _Dest + static_cast<_Iter_diff_t<_OutCtgIt>>(_Object_count);
; 4758 :     }
; 4759 : }

  0001d	5d		 pop	 ebp
  0001e	c3		 ret	 0
??$_Copy_memmove_tail@PAUHOUSINGINFO@@@std@@YAPAUHOUSINGINFO@@QBDQAU1@II@Z ENDP ; std::_Copy_memmove_tail<HOUSINGINFO *>
_TEXT	ENDS
; Function compile flags: /Ogtp
; File C:\Program Files\Microsoft Visual Studio\2022\Professional\VC\Tools\MSVC\14.44.35207\include\vector
; File C:\Program Files\Microsoft Visual Studio\2022\Professional\VC\Tools\MSVC\14.44.35207\include\xmemory
; File C:\Program Files\Microsoft Visual Studio\2022\Professional\VC\Tools\MSVC\14.44.35207\include\vector
; File C:\Program Files\Microsoft Visual Studio\2022\Professional\VC\Tools\MSVC\14.44.35207\include\xmemory
; File C:\Program Files\Microsoft Visual Studio\2022\Professional\VC\Tools\MSVC\14.44.35207\include\vector
; File C:\Program Files\Microsoft Visual Studio\2022\Professional\VC\Tools\MSVC\14.44.35207\include\xmemory
; File C:\Program Files\Microsoft Visual Studio\2022\Professional\VC\Tools\MSVC\14.44.35207\include\vector
; File C:\Program Files\Microsoft Visual Studio\2022\Professional\VC\Tools\MSVC\14.44.35207\include\xmemory
; File C:\Program Files\Microsoft Visual Studio\2022\Professional\VC\Tools\MSVC\14.44.35207\include\vector
; File C:\Program Files\Microsoft Visual Studio\2022\Professional\VC\Tools\MSVC\14.44.35207\include\xmemory
; File C:\Program Files\Microsoft Visual Studio\2022\Professional\VC\Tools\MSVC\14.44.35207\include\vector
; File C:\Program Files\Microsoft Visual Studio\2022\Professional\VC\Tools\MSVC\14.44.35207\include\xmemory
; File C:\Program Files\Microsoft Visual Studio\2022\Professional\VC\Tools\MSVC\14.44.35207\include\vector
; File C:\Program Files\Microsoft Visual Studio\2022\Professional\VC\Tools\MSVC\14.44.35207\include\xmemory
; File C:\Program Files\Microsoft Visual Studio\2022\Professional\VC\Tools\MSVC\14.44.35207\include\vector
; File C:\Program Files\Microsoft Visual Studio\2022\Professional\VC\Tools\MSVC\14.44.35207\include\xmemory
; File C:\Program Files\Microsoft Visual Studio\2022\Professional\VC\Tools\MSVC\14.44.35207\include\vector
;	COMDAT ??$_Emplace_reallocate@ABK@?$vector@KV?$allocator@K@std@@@std@@AAEPAKQAKABK@Z
_TEXT	SEGMENT
__Newsize$1$ = -12					; size = 4
tv652 = -8						; size = 4
tv650 = -4						; size = 4
__Whereptr$ = 8						; size = 4
_<_Val_0>$ = 12						; size = 4
??$_Emplace_reallocate@ABK@?$vector@KV?$allocator@K@std@@@std@@AAEPAKQAKABK@Z PROC ; std::vector<unsigned long,std::allocator<unsigned long> >::_Emplace_reallocate<unsigned long const &>, COMDAT
; _this$ = ecx

; 875  :     _CONSTEXPR20 pointer _Emplace_reallocate(const pointer _Whereptr, _Valty&&... _Val) {

  00000	55		 push	 ebp
  00001	8b ec		 mov	 ebp, esp
  00003	83 ec 0c	 sub	 esp, 12			; 0000000cH
  00006	53		 push	 ebx

; 876  :         // reallocate and insert by perfectly forwarding _Val at _Whereptr
; 877  :         _Alty& _Al        = _Getal();
; 878  :         auto& _My_data    = _Mypair._Myval2;
; 879  :         pointer& _Myfirst = _My_data._Myfirst;
; 880  :         pointer& _Mylast  = _My_data._Mylast;
; 881  : 
; 882  :         _STL_INTERNAL_CHECK(_Mylast == _My_data._Myend); // check that we have no unused capacity
; 883  : 
; 884  :         const auto _Whereoff = static_cast<size_type>(_Whereptr - _Myfirst);

  00007	8b 5d 08	 mov	 ebx, DWORD PTR __Whereptr$[ebp]
  0000a	56		 push	 esi
  0000b	8b f1		 mov	 esi, ecx
  0000d	57		 push	 edi
  0000e	8b 0e		 mov	 ecx, DWORD PTR [esi]
  00010	2b d9		 sub	 ebx, ecx

; 885  :         const auto _Oldsize  = static_cast<size_type>(_Mylast - _Myfirst);

  00012	8b 46 04	 mov	 eax, DWORD PTR [esi+4]
  00015	2b c1		 sub	 eax, ecx
  00017	c1 fb 02	 sar	 ebx, 2
  0001a	c1 f8 02	 sar	 eax, 2

; 886  : 
; 887  :         if (_Oldsize == max_size()) {

  0001d	3d ff ff ff 3f	 cmp	 eax, 1073741823		; 3fffffffH
  00022	0f 84 13 01 00
	00		 je	 $LN111@Emplace_re

; 1924 :         return static_cast<size_type>(_My_data._Myend - _My_data._Myfirst);

  00028	8b 56 08	 mov	 edx, DWORD PTR [esi+8]

; 889  :         }
; 890  : 
; 891  :         const size_type _Newsize = _Oldsize + 1;

  0002b	8d 78 01	 lea	 edi, DWORD PTR [eax+1]

; 1924 :         return static_cast<size_type>(_My_data._Myend - _My_data._Myfirst);

  0002e	2b d1		 sub	 edx, ecx

; 889  :         }
; 890  : 
; 891  :         const size_type _Newsize = _Oldsize + 1;

  00030	89 7d f4	 mov	 DWORD PTR __Newsize$1$[ebp], edi

; 1924 :         return static_cast<size_type>(_My_data._Myend - _My_data._Myfirst);

  00033	c1 fa 02	 sar	 edx, 2

; 2011 :         if (_Oldcapacity > _Max - _Oldcapacity / 2) {

  00036	b8 ff ff ff 3f	 mov	 eax, 1073741823		; 3fffffffH
  0003b	8b ca		 mov	 ecx, edx
  0003d	d1 e9		 shr	 ecx, 1
  0003f	2b c1		 sub	 eax, ecx
  00041	3b d0		 cmp	 edx, eax
  00043	76 14		 jbe	 SHORT $LN8@Emplace_re

; 2012 :             return _Max; // geometric growth would overflow

  00045	b8 fc ff ff ff	 mov	 eax, -4			; fffffffcH
  0004a	c7 45 f8 fc ff
	ff ff		 mov	 DWORD PTR tv652[ebp], -4 ; fffffffcH
; File C:\Program Files\Microsoft Visual Studio\2022\Professional\VC\Tools\MSVC\14.44.35207\include\xmemory

; 253  :             return _Allocate_manually_vector_aligned<_Traits>(_Bytes);

  00051	50		 push	 eax
  00052	e8 00 00 00 00	 call	 ??$_Allocate_manually_vector_aligned@U_Default_allocate_traits@std@@@std@@YAPAXI@Z ; std::_Allocate_manually_vector_aligned<std::_Default_allocate_traits>
  00057	eb 3d		 jmp	 SHORT $LN109@Emplace_re
$LN8@Emplace_re:
; File C:\Program Files\Microsoft Visual Studio\2022\Professional\VC\Tools\MSVC\14.44.35207\include\vector

; 2015 :         const size_type _Geometric = _Oldcapacity + _Oldcapacity / 2;

  00059	8d 04 11	 lea	 eax, DWORD PTR [ecx+edx]
; File C:\Program Files\Microsoft Visual Studio\2022\Professional\VC\Tools\MSVC\14.44.35207\include\xmemory

; 117  :         if (_Count > _Max_possible) {

  0005c	8b cf		 mov	 ecx, edi
  0005e	3b c7		 cmp	 eax, edi
  00060	0f 43 c8	 cmovae	 ecx, eax
  00063	81 f9 ff ff ff
	3f		 cmp	 ecx, 1073741823		; 3fffffffH
  00069	0f 87 d1 00 00
	00		 ja	 $LN112@Emplace_re

; 119  :         }
; 120  :     }
; 121  : 
; 122  :     return _Count * _Ty_size;

  0006f	8d 04 8d 00 00
	00 00		 lea	 eax, DWORD PTR [ecx*4]
  00076	89 45 f8	 mov	 DWORD PTR tv652[ebp], eax

; 227  :     if (_Bytes == 0) {

  00079	85 c0		 test	 eax, eax
  0007b	75 04		 jne	 SHORT $LN23@Emplace_re

; 228  :         return nullptr;

  0007d	33 ff		 xor	 edi, edi
  0007f	eb 1a		 jmp	 SHORT $LN22@Emplace_re
$LN23@Emplace_re:

; 229  :     }
; 230  : 
; 231  : #if _HAS_CXX20 // TRANSITION, GH-1532
; 232  :     if (_STD is_constant_evaluated()) {
; 233  :         return _Traits::_Allocate(_Bytes);
; 234  :     }
; 235  : #endif // _HAS_CXX20
; 236  : 
; 237  : #ifdef __cpp_aligned_new
; 238  :     if constexpr (_Align > __STDCPP_DEFAULT_NEW_ALIGNMENT__) {
; 239  :         size_t _Passed_align = _Align;
; 240  : #if defined(_M_IX86) || defined(_M_X64)
; 241  :         if (_Bytes >= _Big_allocation_threshold) {
; 242  :             // boost the alignment of big allocations to help autovectorization
; 243  :             _Passed_align = (_STD max)(_Align, _Big_allocation_alignment);
; 244  :         }
; 245  : #endif // defined(_M_IX86) || defined(_M_X64)
; 246  :         return _Traits::_Allocate_aligned(_Bytes, _Passed_align);
; 247  :     } else
; 248  : #endif // defined(__cpp_aligned_new)
; 249  :     {
; 250  : #if defined(_M_IX86) || defined(_M_X64)
; 251  :         if (_Bytes >= _Big_allocation_threshold) {

  00081	3d 00 10 00 00	 cmp	 eax, 4096		; 00001000H
  00086	72 08		 jb	 SHORT $LN24@Emplace_re

; 253  :             return _Allocate_manually_vector_aligned<_Traits>(_Bytes);

  00088	50		 push	 eax
  00089	e8 00 00 00 00	 call	 ??$_Allocate_manually_vector_aligned@U_Default_allocate_traits@std@@@std@@YAPAXI@Z ; std::_Allocate_manually_vector_aligned<std::_Default_allocate_traits>
  0008e	eb 06		 jmp	 SHORT $LN109@Emplace_re
$LN24@Emplace_re:

; 136  :         return ::operator new(_Bytes);

  00090	50		 push	 eax
  00091	e8 00 00 00 00	 call	 ??2@YAPAXI@Z		; operator new
$LN109@Emplace_re:
; File C:\Program Files\Microsoft Visual Studio\2022\Professional\VC\Tools\MSVC\14.44.35207\include\vector

; 900  :         _Alty_traits::construct(_Al, _STD _Unfancy(_Newvec + _Whereoff), _STD forward<_Valty>(_Val)...);

  00096	8b f8		 mov	 edi, eax
  00098	83 c4 04	 add	 esp, 4
$LN22@Emplace_re:
  0009b	8b 45 0c	 mov	 eax, DWORD PTR _<_Val_0>$[ebp]
  0009e	8d 0c 9f	 lea	 ecx, DWORD PTR [edi+ebx*4]

; 901  :         _Constructed_first = _Newvec + _Whereoff;
; 902  : 
; 903  :         if (_Whereptr == _Mylast) { // at back, provide strong guarantee

  000a1	8b 5d 08	 mov	 ebx, DWORD PTR __Whereptr$[ebp]
  000a4	89 4d fc	 mov	 DWORD PTR tv650[ebp], ecx
  000a7	8b 00		 mov	 eax, DWORD PTR [eax]
  000a9	89 01		 mov	 DWORD PTR [ecx], eax
  000ab	8b 46 04	 mov	 eax, DWORD PTR [esi+4]
  000ae	8b 0e		 mov	 ecx, DWORD PTR [esi]
  000b0	3b d8		 cmp	 ebx, eax
  000b2	75 07		 jne	 SHORT $LN3@Emplace_re

; 909  :         } else { // provide basic guarantee

  000b4	8b 5d fc	 mov	 ebx, DWORD PTR tv650[ebp]
; File C:\Program Files\Microsoft Visual Studio\2022\Professional\VC\Tools\MSVC\14.44.35207\include\xmemory

; 1992 :             _STD _Copy_memmove(_UFirst, _ULast, _STD _Unfancy(_Dest));

  000b7	8b d7		 mov	 edx, edi
; File C:\Program Files\Microsoft Visual Studio\2022\Professional\VC\Tools\MSVC\14.44.35207\include\vector

; 909  :         } else { // provide basic guarantee

  000b9	eb 16		 jmp	 SHORT $LN52@Emplace_re
$LN3@Emplace_re:
; File C:\Program Files\Microsoft Visual Studio\2022\Professional\VC\Tools\MSVC\14.44.35207\include\xmemory

; 1992 :             _STD _Copy_memmove(_UFirst, _ULast, _STD _Unfancy(_Dest));

  000bb	57		 push	 edi
  000bc	53		 push	 ebx
  000bd	51		 push	 ecx
  000be	e8 00 00 00 00	 call	 ??$_Copy_memmove@PAKPAK@std@@YAPAKPAK00@Z ; std::_Copy_memmove<unsigned long *,unsigned long *>
  000c3	8b 46 04	 mov	 eax, DWORD PTR [esi+4]
  000c6	8b cb		 mov	 ecx, ebx
; File C:\Program Files\Microsoft Visual Studio\2022\Professional\VC\Tools\MSVC\14.44.35207\include\vector

; 912  :             _STD _Uninitialized_move(_Whereptr, _Mylast, _Newvec + _Whereoff + 1, _Al);

  000c8	8b 5d fc	 mov	 ebx, DWORD PTR tv650[ebp]
; File C:\Program Files\Microsoft Visual Studio\2022\Professional\VC\Tools\MSVC\14.44.35207\include\xmemory

; 1992 :             _STD _Copy_memmove(_UFirst, _ULast, _STD _Unfancy(_Dest));

  000cb	83 c4 0c	 add	 esp, 12			; 0000000cH
; File C:\Program Files\Microsoft Visual Studio\2022\Professional\VC\Tools\MSVC\14.44.35207\include\vector

; 912  :             _STD _Uninitialized_move(_Whereptr, _Mylast, _Newvec + _Whereoff + 1, _Al);

  000ce	8d 53 04	 lea	 edx, DWORD PTR [ebx+4]
$LN52@Emplace_re:

; 913  :         }
; 914  : 
; 915  :         _Guard._New_begin = nullptr;

  000d1	52		 push	 edx
  000d2	50		 push	 eax
  000d3	51		 push	 ecx
  000d4	e8 00 00 00 00	 call	 ??$_Copy_memmove@PAKPAK@std@@YAPAKPAK00@Z ; std::_Copy_memmove<unsigned long *,unsigned long *>

; 2069 :         if (_Myfirst) { // destroy and deallocate old array

  000d9	8b 06		 mov	 eax, DWORD PTR [esi]

; 913  :         }
; 914  : 
; 915  :         _Guard._New_begin = nullptr;

  000db	83 c4 0c	 add	 esp, 12			; 0000000cH

; 2069 :         if (_Myfirst) { // destroy and deallocate old array

  000de	85 c0		 test	 eax, eax
  000e0	74 2c		 je	 SHORT $LN72@Emplace_re

; 2070 :             _STD _Destroy_range(_Myfirst, _Mylast, _Al);
; 2071 :             _ASAN_VECTOR_REMOVE;
; 2072 :             _Al.deallocate(_Myfirst, static_cast<size_type>(_Myend - _Myfirst));

  000e2	8b 4e 08	 mov	 ecx, DWORD PTR [esi+8]
  000e5	2b c8		 sub	 ecx, eax
; File C:\Program Files\Microsoft Visual Studio\2022\Professional\VC\Tools\MSVC\14.44.35207\include\xmemory

; 985  :         _STD _Deallocate<_New_alignof<_Ty>>(_Ptr, sizeof(_Ty) * _Count);

  000e7	83 e1 fc	 and	 ecx, -4			; fffffffcH

; 284  :         if (_Bytes >= _Big_allocation_threshold) {

  000ea	81 f9 00 10 00
	00		 cmp	 ecx, 4096		; 00001000H
  000f0	72 12		 jb	 SHORT $LN77@Emplace_re

; 205  :     const uintptr_t _Ptr_container   = _Ptr_user[-1];

  000f2	8b 50 fc	 mov	 edx, DWORD PTR [eax-4]
  000f5	83 c1 23	 add	 ecx, 35			; 00000023H

; 206  : 
; 207  :     // If the following asserts, it likely means that we are performing
; 208  :     // an aligned delete on memory coming from an unaligned allocation.
; 209  :     _STL_ASSERT(_Ptr_user[-2] == _Big_allocation_sentinel, "invalid argument");
; 210  : 
; 211  :     // Extra paranoia on aligned allocation/deallocation; ensure _Ptr_container is
; 212  :     // in range [_Min_back_shift, _Non_user_size]
; 213  : #ifdef _DEBUG
; 214  :     constexpr uintptr_t _Min_back_shift = 2 * sizeof(void*);
; 215  : #else // ^^^ defined(_DEBUG) / !defined(_DEBUG) vvv
; 216  :     constexpr uintptr_t _Min_back_shift = sizeof(void*);
; 217  : #endif // ^^^ !defined(_DEBUG) ^^^
; 218  :     const uintptr_t _Back_shift = reinterpret_cast<uintptr_t>(_Ptr) - _Ptr_container;

  000f8	2b c2		 sub	 eax, edx

; 219  :     _STL_VERIFY(_Back_shift >= _Min_back_shift && _Back_shift <= _Non_user_size, "invalid argument");

  000fa	83 c0 fc	 add	 eax, -4			; fffffffcH
  000fd	83 f8 1f	 cmp	 eax, 31			; 0000001fH
  00100	77 2a		 ja	 SHORT $LN76@Emplace_re

; 220  :     _Ptr = reinterpret_cast<void*>(_Ptr_container);

  00102	8b c2		 mov	 eax, edx
$LN77@Emplace_re:

; 289  :         ::operator delete(_Ptr, _Bytes);

  00104	51		 push	 ecx
  00105	50		 push	 eax
  00106	e8 00 00 00 00	 call	 ??3@YAXPAXI@Z		; operator delete
  0010b	83 c4 08	 add	 esp, 8
$LN72@Emplace_re:
; File C:\Program Files\Microsoft Visual Studio\2022\Professional\VC\Tools\MSVC\14.44.35207\include\vector

; 2076 :         _Mylast  = _Newvec + _Newsize;

  0010e	8b 45 f4	 mov	 eax, DWORD PTR __Newsize$1$[ebp]
  00111	89 3e		 mov	 DWORD PTR [esi], edi
  00113	8d 0c 87	 lea	 ecx, DWORD PTR [edi+eax*4]

; 916  :         _Change_array(_Newvec, _Newsize, _Newcapacity);
; 917  :         return _Newvec + _Whereoff;

  00116	8b c3		 mov	 eax, ebx

; 2076 :         _Mylast  = _Newvec + _Newsize;

  00118	89 4e 04	 mov	 DWORD PTR [esi+4], ecx

; 2077 :         _Myend   = _Newvec + _Newcapacity;

  0011b	8b 4d f8	 mov	 ecx, DWORD PTR tv652[ebp]
  0011e	03 cf		 add	 ecx, edi

; 918  :     }

  00120	5f		 pop	 edi

; 2077 :         _Myend   = _Newvec + _Newcapacity;

  00121	89 4e 08	 mov	 DWORD PTR [esi+8], ecx

; 918  :     }

  00124	5e		 pop	 esi
  00125	5b		 pop	 ebx
  00126	8b e5		 mov	 esp, ebp
  00128	5d		 pop	 ebp
  00129	c2 08 00	 ret	 8
$LN76@Emplace_re:
; File C:\Program Files\Microsoft Visual Studio\2022\Professional\VC\Tools\MSVC\14.44.35207\include\xmemory

; 219  :     _STL_VERIFY(_Back_shift >= _Min_back_shift && _Back_shift <= _Non_user_size, "invalid argument");

  0012c	6a 00		 push	 0
  0012e	6a 00		 push	 0
  00130	6a 00		 push	 0
  00132	6a 00		 push	 0
  00134	6a 00		 push	 0
  00136	e8 00 00 00 00	 call	 __invoke_watson
$LN111@Emplace_re:
; File C:\Program Files\Microsoft Visual Studio\2022\Professional\VC\Tools\MSVC\14.44.35207\include\vector

; 888  :             _Xlength();

  0013b	e8 00 00 00 00	 call	 ?_Xlength@?$vector@KV?$allocator@K@std@@@std@@CAXXZ ; std::vector<unsigned long,std::allocator<unsigned long> >::_Xlength
$LN112@Emplace_re:
; File C:\Program Files\Microsoft Visual Studio\2022\Professional\VC\Tools\MSVC\14.44.35207\include\xmemory

; 118  :             _Throw_bad_array_new_length(); // multiply overflow

  00140	e8 00 00 00 00	 call	 ?_Throw_bad_array_new_length@std@@YAXXZ ; std::_Throw_bad_array_new_length
$LN108@Emplace_re:
  00145	cc		 int	 3
??$_Emplace_reallocate@ABK@?$vector@KV?$allocator@K@std@@@std@@AAEPAKQAKABK@Z ENDP ; std::vector<unsigned long,std::allocator<unsigned long> >::_Emplace_reallocate<unsigned long const &>
_TEXT	ENDS
; Function compile flags: /Ogtp
; File C:\Program Files\Microsoft Visual Studio\2022\Professional\VC\Tools\MSVC\14.44.35207\include\xutility
;	COMDAT ??$_Copy_memmove@PAKPAK@std@@YAPAKPAK00@Z
_TEXT	SEGMENT
__First$ = 8						; size = 4
__Last$ = 12						; size = 4
__Dest$ = 16						; size = 4
??$_Copy_memmove@PAKPAK@std@@YAPAKPAK00@Z PROC		; std::_Copy_memmove<unsigned long *,unsigned long *>, COMDAT

; 4762 : _OutCtgIt _Copy_memmove(_CtgIt _First, _CtgIt _Last, _OutCtgIt _Dest) {

  00000	55		 push	 ebp
  00001	8b ec		 mov	 ebp, esp

; 4763 :     _STL_INTERNAL_CHECK(_First <= _Last);
; 4764 :     const auto _First_ptr    = _STD _To_address(_First);
; 4765 :     const auto _Last_ptr     = _STD _To_address(_Last);
; 4766 :     const auto _Object_count = static_cast<size_t>(_Last_ptr - _First_ptr);

  00003	8b 55 08	 mov	 edx, DWORD PTR __First$[ebp]
  00006	8b 4d 0c	 mov	 ecx, DWORD PTR __Last$[ebp]
  00009	2b ca		 sub	 ecx, edx
  0000b	8b c1		 mov	 eax, ecx
  0000d	c1 f8 02	 sar	 eax, 2

; 4767 :     const auto _First_ch     = const_cast<const char*>(reinterpret_cast<const volatile char*>(_First_ptr));
; 4768 :     const auto _Last_ch      = const_cast<const char*>(reinterpret_cast<const volatile char*>(_Last_ptr));
; 4769 :     const auto _Byte_count   = static_cast<size_t>(_Last_ch - _First_ch);
; 4770 :     return _STD _Copy_memmove_tail(_First_ch, _STD move(_Dest), _Byte_count, _Object_count);

  00010	50		 push	 eax
  00011	51		 push	 ecx
  00012	ff 75 10	 push	 DWORD PTR __Dest$[ebp]
  00015	52		 push	 edx
  00016	e8 00 00 00 00	 call	 ??$_Copy_memmove_tail@PAK@std@@YAPAKQBDQAKII@Z ; std::_Copy_memmove_tail<unsigned long *>
  0001b	83 c4 10	 add	 esp, 16			; 00000010H

; 4771 : }

  0001e	5d		 pop	 ebp
  0001f	c3		 ret	 0
??$_Copy_memmove@PAKPAK@std@@YAPAKPAK00@Z ENDP		; std::_Copy_memmove<unsigned long *,unsigned long *>
_TEXT	ENDS
; Function compile flags: /Ogtp
; File C:\Program Files\Microsoft Visual Studio\2022\Professional\VC\Tools\MSVC\14.44.35207\include\vector
; File C:\Program Files\Microsoft Visual Studio\2022\Professional\VC\Tools\MSVC\14.44.35207\include\xmemory
; File C:\Program Files\Microsoft Visual Studio\2022\Professional\VC\Tools\MSVC\14.44.35207\include\vector
; File C:\Program Files\Microsoft Visual Studio\2022\Professional\VC\Tools\MSVC\14.44.35207\include\xmemory
; File C:\Program Files\Microsoft Visual Studio\2022\Professional\VC\Tools\MSVC\14.44.35207\include\vector
; File C:\Program Files\Microsoft Visual Studio\2022\Professional\VC\Tools\MSVC\14.44.35207\include\xmemory
; File C:\Program Files\Microsoft Visual Studio\2022\Professional\VC\Tools\MSVC\14.44.35207\include\vector
; File C:\Program Files\Microsoft Visual Studio\2022\Professional\VC\Tools\MSVC\14.44.35207\include\xmemory
; File C:\Program Files\Microsoft Visual Studio\2022\Professional\VC\Tools\MSVC\14.44.35207\include\vector
; File C:\Program Files\Microsoft Visual Studio\2022\Professional\VC\Tools\MSVC\14.44.35207\include\xmemory
; File C:\Program Files\Microsoft Visual Studio\2022\Professional\VC\Tools\MSVC\14.44.35207\include\vector
; File C:\Program Files\Microsoft Visual Studio\2022\Professional\VC\Tools\MSVC\14.44.35207\include\xmemory
; File C:\Program Files\Microsoft Visual Studio\2022\Professional\VC\Tools\MSVC\14.44.35207\include\vector
; File C:\Program Files\Microsoft Visual Studio\2022\Professional\VC\Tools\MSVC\14.44.35207\include\xmemory
; File C:\Program Files\Microsoft Visual Studio\2022\Professional\VC\Tools\MSVC\14.44.35207\include\vector
; File C:\Program Files\Microsoft Visual Studio\2022\Professional\VC\Tools\MSVC\14.44.35207\include\xmemory
; File C:\Program Files\Microsoft Visual Studio\2022\Professional\VC\Tools\MSVC\14.44.35207\include\vector
; File C:\Program Files\Microsoft Visual Studio\2022\Professional\VC\Tools\MSVC\14.44.35207\include\xmemory
; File C:\Program Files\Microsoft Visual Studio\2022\Professional\VC\Tools\MSVC\14.44.35207\include\vector
; File C:\Program Files\Microsoft Visual Studio\2022\Professional\VC\Tools\MSVC\14.44.35207\include\xmemory
; File C:\Program Files\Microsoft Visual Studio\2022\Professional\VC\Tools\MSVC\14.44.35207\include\vector
;	COMDAT ??$_Emplace_reallocate@ABUHOUSINGINFO@@@?$vector@UHOUSINGINFO@@V?$allocator@UHOUSINGINFO@@@std@@@std@@AAEPAUHOUSINGINFO@@QAU2@ABU2@@Z
_TEXT	SEGMENT
__Newsize$1$ = -12					; size = 4
$T1 = -8						; size = 4
tv710 = -4						; size = 4
__Whereptr$ = 8						; size = 4
_<_Val_0>$ = 12						; size = 4
??$_Emplace_reallocate@ABUHOUSINGINFO@@@?$vector@UHOUSINGINFO@@V?$allocator@UHOUSINGINFO@@@std@@@std@@AAEPAUHOUSINGINFO@@QAU2@ABU2@@Z PROC ; std::vector<HOUSINGINFO,std::allocator<HOUSINGINFO> >::_Emplace_reallocate<HOUSINGINFO const &>, COMDAT
; _this$ = ecx

; 875  :     _CONSTEXPR20 pointer _Emplace_reallocate(const pointer _Whereptr, _Valty&&... _Val) {

  00000	55		 push	 ebp
  00001	8b ec		 mov	 ebp, esp
  00003	83 ec 0c	 sub	 esp, 12			; 0000000cH
  00006	53		 push	 ebx

; 876  :         // reallocate and insert by perfectly forwarding _Val at _Whereptr
; 877  :         _Alty& _Al        = _Getal();
; 878  :         auto& _My_data    = _Mypair._Myval2;
; 879  :         pointer& _Myfirst = _My_data._Myfirst;
; 880  :         pointer& _Mylast  = _My_data._Mylast;
; 881  : 
; 882  :         _STL_INTERNAL_CHECK(_Mylast == _My_data._Myend); // check that we have no unused capacity
; 883  : 
; 884  :         const auto _Whereoff = static_cast<size_type>(_Whereptr - _Myfirst);

  00007	8b 5d 08	 mov	 ebx, DWORD PTR __Whereptr$[ebp]
  0000a	56		 push	 esi
  0000b	8b f1		 mov	 esi, ecx
  0000d	57		 push	 edi
  0000e	8b 0e		 mov	 ecx, DWORD PTR [esi]
  00010	2b d9		 sub	 ebx, ecx

; 885  :         const auto _Oldsize  = static_cast<size_type>(_Mylast - _Myfirst);

  00012	8b 46 04	 mov	 eax, DWORD PTR [esi+4]
  00015	2b c1		 sub	 eax, ecx
  00017	c1 f8 05	 sar	 eax, 5

; 886  : 
; 887  :         if (_Oldsize == max_size()) {

  0001a	3d ff ff ff 07	 cmp	 eax, 134217727		; 07ffffffH
  0001f	0f 84 20 01 00
	00		 je	 $LN119@Emplace_re

; 1924 :         return static_cast<size_type>(_My_data._Myend - _My_data._Myfirst);

  00025	8b 7e 08	 mov	 edi, DWORD PTR [esi+8]

; 889  :         }
; 890  : 
; 891  :         const size_type _Newsize = _Oldsize + 1;

  00028	8d 50 01	 lea	 edx, DWORD PTR [eax+1]

; 1924 :         return static_cast<size_type>(_My_data._Myend - _My_data._Myfirst);

  0002b	2b f9		 sub	 edi, ecx

; 889  :         }
; 890  : 
; 891  :         const size_type _Newsize = _Oldsize + 1;

  0002d	89 55 f4	 mov	 DWORD PTR __Newsize$1$[ebp], edx

; 1924 :         return static_cast<size_type>(_My_data._Myend - _My_data._Myfirst);

  00030	c1 ff 05	 sar	 edi, 5

; 2011 :         if (_Oldcapacity > _Max - _Oldcapacity / 2) {

  00033	b8 ff ff ff 07	 mov	 eax, 134217727		; 07ffffffH
  00038	8b cf		 mov	 ecx, edi
  0003a	d1 e9		 shr	 ecx, 1
  0003c	2b c1		 sub	 eax, ecx
  0003e	3b f8		 cmp	 edi, eax
  00040	76 14		 jbe	 SHORT $LN8@Emplace_re

; 2012 :             return _Max; // geometric growth would overflow

  00042	b8 e0 ff ff ff	 mov	 eax, -32		; ffffffe0H
  00047	c7 45 f8 e0 ff
	ff ff		 mov	 DWORD PTR $T1[ebp], -32	; ffffffe0H
; File C:\Program Files\Microsoft Visual Studio\2022\Professional\VC\Tools\MSVC\14.44.35207\include\xmemory

; 253  :             return _Allocate_manually_vector_aligned<_Traits>(_Bytes);

  0004e	50		 push	 eax
  0004f	e8 00 00 00 00	 call	 ??$_Allocate_manually_vector_aligned@U_Default_allocate_traits@std@@@std@@YAPAXI@Z ; std::_Allocate_manually_vector_aligned<std::_Default_allocate_traits>
  00054	eb 3b		 jmp	 SHORT $LN117@Emplace_re
$LN8@Emplace_re:
; File C:\Program Files\Microsoft Visual Studio\2022\Professional\VC\Tools\MSVC\14.44.35207\include\vector

; 2015 :         const size_type _Geometric = _Oldcapacity + _Oldcapacity / 2;

  00056	8d 04 39	 lea	 eax, DWORD PTR [ecx+edi]
; File C:\Program Files\Microsoft Visual Studio\2022\Professional\VC\Tools\MSVC\14.44.35207\include\xmemory

; 117  :         if (_Count > _Max_possible) {

  00059	8b ca		 mov	 ecx, edx
  0005b	3b c2		 cmp	 eax, edx
  0005d	0f 43 c8	 cmovae	 ecx, eax
  00060	81 f9 ff ff ff
	07		 cmp	 ecx, 134217727		; 07ffffffH
  00066	0f 87 de 00 00
	00		 ja	 $LN120@Emplace_re

; 119  :         }
; 120  :     }
; 121  : 
; 122  :     return _Count * _Ty_size;

  0006c	c1 e1 05	 shl	 ecx, 5

; 990  :         return static_cast<_Ty*>(_STD _Allocate<_New_alignof<_Ty>>(_Get_size_of_n<sizeof(_Ty)>(_Count)));

  0006f	8b c1		 mov	 eax, ecx

; 122  :     return _Count * _Ty_size;

  00071	89 4d f8	 mov	 DWORD PTR $T1[ebp], ecx

; 227  :     if (_Bytes == 0) {

  00074	85 c0		 test	 eax, eax
  00076	75 04		 jne	 SHORT $LN23@Emplace_re

; 228  :         return nullptr;

  00078	33 ff		 xor	 edi, edi
  0007a	eb 1a		 jmp	 SHORT $LN22@Emplace_re
$LN23@Emplace_re:

; 229  :     }
; 230  : 
; 231  : #if _HAS_CXX20 // TRANSITION, GH-1532
; 232  :     if (_STD is_constant_evaluated()) {
; 233  :         return _Traits::_Allocate(_Bytes);
; 234  :     }
; 235  : #endif // _HAS_CXX20
; 236  : 
; 237  : #ifdef __cpp_aligned_new
; 238  :     if constexpr (_Align > __STDCPP_DEFAULT_NEW_ALIGNMENT__) {
; 239  :         size_t _Passed_align = _Align;
; 240  : #if defined(_M_IX86) || defined(_M_X64)
; 241  :         if (_Bytes >= _Big_allocation_threshold) {
; 242  :             // boost the alignment of big allocations to help autovectorization
; 243  :             _Passed_align = (_STD max)(_Align, _Big_allocation_alignment);
; 244  :         }
; 245  : #endif // defined(_M_IX86) || defined(_M_X64)
; 246  :         return _Traits::_Allocate_aligned(_Bytes, _Passed_align);
; 247  :     } else
; 248  : #endif // defined(__cpp_aligned_new)
; 249  :     {
; 250  : #if defined(_M_IX86) || defined(_M_X64)
; 251  :         if (_Bytes >= _Big_allocation_threshold) {

  0007c	3d 00 10 00 00	 cmp	 eax, 4096		; 00001000H
  00081	72 08		 jb	 SHORT $LN24@Emplace_re

; 253  :             return _Allocate_manually_vector_aligned<_Traits>(_Bytes);

  00083	50		 push	 eax
  00084	e8 00 00 00 00	 call	 ??$_Allocate_manually_vector_aligned@U_Default_allocate_traits@std@@@std@@YAPAXI@Z ; std::_Allocate_manually_vector_aligned<std::_Default_allocate_traits>
  00089	eb 06		 jmp	 SHORT $LN117@Emplace_re
$LN24@Emplace_re:

; 136  :         return ::operator new(_Bytes);

  0008b	50		 push	 eax
  0008c	e8 00 00 00 00	 call	 ??2@YAPAXI@Z		; operator new
$LN117@Emplace_re:
; File C:\Program Files\Microsoft Visual Studio\2022\Professional\VC\Tools\MSVC\14.44.35207\include\vector

; 900  :         _Alty_traits::construct(_Al, _STD _Unfancy(_Newvec + _Whereoff), _STD forward<_Valty>(_Val)...);

  00091	8b f8		 mov	 edi, eax
  00093	83 c4 04	 add	 esp, 4
$LN22@Emplace_re:
; File C:\Program Files\Microsoft Visual Studio\2022\Professional\VC\Tools\MSVC\14.44.35207\include\xmemory

; 732  :         ::new (const_cast<void*>(static_cast<const volatile void*>(_Ptr))) _Objty(_STD forward<_Types>(_Args)...);

  00096	8b 45 0c	 mov	 eax, DWORD PTR _<_Val_0>$[ebp]
; File C:\Program Files\Microsoft Visual Studio\2022\Professional\VC\Tools\MSVC\14.44.35207\include\vector

; 900  :         _Alty_traits::construct(_Al, _STD _Unfancy(_Newvec + _Whereoff), _STD forward<_Valty>(_Val)...);

  00099	83 e3 e0	 and	 ebx, -32		; ffffffe0H
  0009c	8d 0c 3b	 lea	 ecx, DWORD PTR [ebx+edi]

; 903  :         if (_Whereptr == _Mylast) { // at back, provide strong guarantee

  0009f	8b 5d 08	 mov	 ebx, DWORD PTR __Whereptr$[ebp]
  000a2	89 4d fc	 mov	 DWORD PTR tv710[ebp], ecx
; File C:\Program Files\Microsoft Visual Studio\2022\Professional\VC\Tools\MSVC\14.44.35207\include\xmemory

; 732  :         ::new (const_cast<void*>(static_cast<const volatile void*>(_Ptr))) _Objty(_STD forward<_Types>(_Args)...);

  000a5	0f 10 00	 movups	 xmm0, XMMWORD PTR [eax]
  000a8	0f 11 01	 movups	 XMMWORD PTR [ecx], xmm0
  000ab	0f 10 40 10	 movups	 xmm0, XMMWORD PTR [eax+16]
  000af	0f 11 41 10	 movups	 XMMWORD PTR [ecx+16], xmm0
; File C:\Program Files\Microsoft Visual Studio\2022\Professional\VC\Tools\MSVC\14.44.35207\include\vector

; 903  :         if (_Whereptr == _Mylast) { // at back, provide strong guarantee

  000b3	8b 56 04	 mov	 edx, DWORD PTR [esi+4]
  000b6	8b 0e		 mov	 ecx, DWORD PTR [esi]
  000b8	3b da		 cmp	 ebx, edx
  000ba	75 07		 jne	 SHORT $LN3@Emplace_re

; 909  :         } else { // provide basic guarantee

  000bc	8b 5d fc	 mov	 ebx, DWORD PTR tv710[ebp]
; File C:\Program Files\Microsoft Visual Studio\2022\Professional\VC\Tools\MSVC\14.44.35207\include\xmemory

; 1992 :             _STD _Copy_memmove(_UFirst, _ULast, _STD _Unfancy(_Dest));

  000bf	8b c7		 mov	 eax, edi
; File C:\Program Files\Microsoft Visual Studio\2022\Professional\VC\Tools\MSVC\14.44.35207\include\vector

; 909  :         } else { // provide basic guarantee

  000c1	eb 16		 jmp	 SHORT $LN58@Emplace_re
$LN3@Emplace_re:
; File C:\Program Files\Microsoft Visual Studio\2022\Professional\VC\Tools\MSVC\14.44.35207\include\xmemory

; 1992 :             _STD _Copy_memmove(_UFirst, _ULast, _STD _Unfancy(_Dest));

  000c3	57		 push	 edi
  000c4	53		 push	 ebx
  000c5	51		 push	 ecx
  000c6	e8 00 00 00 00	 call	 ??$_Copy_memmove@PAUHOUSINGINFO@@PAU1@@std@@YAPAUHOUSINGINFO@@PAU1@00@Z ; std::_Copy_memmove<HOUSINGINFO *,HOUSINGINFO *>
  000cb	8b 56 04	 mov	 edx, DWORD PTR [esi+4]
  000ce	8b cb		 mov	 ecx, ebx
; File C:\Program Files\Microsoft Visual Studio\2022\Professional\VC\Tools\MSVC\14.44.35207\include\vector

; 912  :             _STD _Uninitialized_move(_Whereptr, _Mylast, _Newvec + _Whereoff + 1, _Al);

  000d0	8b 5d fc	 mov	 ebx, DWORD PTR tv710[ebp]
; File C:\Program Files\Microsoft Visual Studio\2022\Professional\VC\Tools\MSVC\14.44.35207\include\xmemory

; 1992 :             _STD _Copy_memmove(_UFirst, _ULast, _STD _Unfancy(_Dest));

  000d3	83 c4 0c	 add	 esp, 12			; 0000000cH
; File C:\Program Files\Microsoft Visual Studio\2022\Professional\VC\Tools\MSVC\14.44.35207\include\vector

; 912  :             _STD _Uninitialized_move(_Whereptr, _Mylast, _Newvec + _Whereoff + 1, _Al);

  000d6	8d 43 20	 lea	 eax, DWORD PTR [ebx+32]
$LN58@Emplace_re:

; 913  :         }
; 914  : 
; 915  :         _Guard._New_begin = nullptr;

  000d9	50		 push	 eax
  000da	52		 push	 edx
  000db	51		 push	 ecx
  000dc	e8 00 00 00 00	 call	 ??$_Copy_memmove@PAUHOUSINGINFO@@PAU1@@std@@YAPAUHOUSINGINFO@@PAU1@00@Z ; std::_Copy_memmove<HOUSINGINFO *,HOUSINGINFO *>

; 2069 :         if (_Myfirst) { // destroy and deallocate old array

  000e1	8b 06		 mov	 eax, DWORD PTR [esi]

; 913  :         }
; 914  : 
; 915  :         _Guard._New_begin = nullptr;

  000e3	83 c4 0c	 add	 esp, 12			; 0000000cH

; 2069 :         if (_Myfirst) { // destroy and deallocate old array

  000e6	85 c0		 test	 eax, eax
  000e8	74 2c		 je	 SHORT $LN80@Emplace_re

; 2070 :             _STD _Destroy_range(_Myfirst, _Mylast, _Al);
; 2071 :             _ASAN_VECTOR_REMOVE;
; 2072 :             _Al.deallocate(_Myfirst, static_cast<size_type>(_Myend - _Myfirst));

  000ea	8b 4e 08	 mov	 ecx, DWORD PTR [esi+8]
  000ed	2b c8		 sub	 ecx, eax
; File C:\Program Files\Microsoft Visual Studio\2022\Professional\VC\Tools\MSVC\14.44.35207\include\xmemory

; 985  :         _STD _Deallocate<_New_alignof<_Ty>>(_Ptr, sizeof(_Ty) * _Count);

  000ef	83 e1 e0	 and	 ecx, -32		; ffffffe0H

; 284  :         if (_Bytes >= _Big_allocation_threshold) {

  000f2	81 f9 00 10 00
	00		 cmp	 ecx, 4096		; 00001000H
  000f8	72 12		 jb	 SHORT $LN85@Emplace_re

; 205  :     const uintptr_t _Ptr_container   = _Ptr_user[-1];

  000fa	8b 50 fc	 mov	 edx, DWORD PTR [eax-4]
  000fd	83 c1 23	 add	 ecx, 35			; 00000023H

; 206  : 
; 207  :     // If the following asserts, it likely means that we are performing
; 208  :     // an aligned delete on memory coming from an unaligned allocation.
; 209  :     _STL_ASSERT(_Ptr_user[-2] == _Big_allocation_sentinel, "invalid argument");
; 210  : 
; 211  :     // Extra paranoia on aligned allocation/deallocation; ensure _Ptr_container is
; 212  :     // in range [_Min_back_shift, _Non_user_size]
; 213  : #ifdef _DEBUG
; 214  :     constexpr uintptr_t _Min_back_shift = 2 * sizeof(void*);
; 215  : #else // ^^^ defined(_DEBUG) / !defined(_DEBUG) vvv
; 216  :     constexpr uintptr_t _Min_back_shift = sizeof(void*);
; 217  : #endif // ^^^ !defined(_DEBUG) ^^^
; 218  :     const uintptr_t _Back_shift = reinterpret_cast<uintptr_t>(_Ptr) - _Ptr_container;

  00100	2b c2		 sub	 eax, edx

; 219  :     _STL_VERIFY(_Back_shift >= _Min_back_shift && _Back_shift <= _Non_user_size, "invalid argument");

  00102	83 c0 fc	 add	 eax, -4			; fffffffcH
  00105	83 f8 1f	 cmp	 eax, 31			; 0000001fH
  00108	77 2c		 ja	 SHORT $LN84@Emplace_re

; 220  :     _Ptr = reinterpret_cast<void*>(_Ptr_container);

  0010a	8b c2		 mov	 eax, edx
$LN85@Emplace_re:

; 289  :         ::operator delete(_Ptr, _Bytes);

  0010c	51		 push	 ecx
  0010d	50		 push	 eax
  0010e	e8 00 00 00 00	 call	 ??3@YAXPAXI@Z		; operator delete
  00113	83 c4 08	 add	 esp, 8
$LN80@Emplace_re:
; File C:\Program Files\Microsoft Visual Studio\2022\Professional\VC\Tools\MSVC\14.44.35207\include\vector

; 2076 :         _Mylast  = _Newvec + _Newsize;

  00116	8b 45 f4	 mov	 eax, DWORD PTR __Newsize$1$[ebp]

; 2077 :         _Myend   = _Newvec + _Newcapacity;

  00119	8b 4d f8	 mov	 ecx, DWORD PTR $T1[ebp]
  0011c	c1 e0 05	 shl	 eax, 5
  0011f	03 c7		 add	 eax, edi
  00121	89 3e		 mov	 DWORD PTR [esi], edi
  00123	89 46 04	 mov	 DWORD PTR [esi+4], eax
  00126	03 cf		 add	 ecx, edi

; 918  :     }

  00128	5f		 pop	 edi

; 2077 :         _Myend   = _Newvec + _Newcapacity;

  00129	89 4e 08	 mov	 DWORD PTR [esi+8], ecx

; 916  :         _Change_array(_Newvec, _Newsize, _Newcapacity);
; 917  :         return _Newvec + _Whereoff;

  0012c	8b c3		 mov	 eax, ebx

; 918  :     }

  0012e	5e		 pop	 esi
  0012f	5b		 pop	 ebx
  00130	8b e5		 mov	 esp, ebp
  00132	5d		 pop	 ebp
  00133	c2 08 00	 ret	 8
$LN84@Emplace_re:
; File C:\Program Files\Microsoft Visual Studio\2022\Professional\VC\Tools\MSVC\14.44.35207\include\xmemory

; 219  :     _STL_VERIFY(_Back_shift >= _Min_back_shift && _Back_shift <= _Non_user_size, "invalid argument");

  00136	6a 00		 push	 0
  00138	6a 00		 push	 0
  0013a	6a 00		 push	 0
  0013c	6a 00		 push	 0
  0013e	6a 00		 push	 0
  00140	e8 00 00 00 00	 call	 __invoke_watson
$LN119@Emplace_re:
; File C:\Program Files\Microsoft Visual Studio\2022\Professional\VC\Tools\MSVC\14.44.35207\include\vector

; 888  :             _Xlength();

  00145	e8 00 00 00 00	 call	 ?_Xlength@?$vector@UHOUSINGINFO@@V?$allocator@UHOUSINGINFO@@@std@@@std@@CAXXZ ; std::vector<HOUSINGINFO,std::allocator<HOUSINGINFO> >::_Xlength
$LN120@Emplace_re:
; File C:\Program Files\Microsoft Visual Studio\2022\Professional\VC\Tools\MSVC\14.44.35207\include\xmemory

; 118  :             _Throw_bad_array_new_length(); // multiply overflow

  0014a	e8 00 00 00 00	 call	 ?_Throw_bad_array_new_length@std@@YAXXZ ; std::_Throw_bad_array_new_length
$LN116@Emplace_re:
  0014f	cc		 int	 3
??$_Emplace_reallocate@ABUHOUSINGINFO@@@?$vector@UHOUSINGINFO@@V?$allocator@UHOUSINGINFO@@@std@@@std@@AAEPAUHOUSINGINFO@@QAU2@ABU2@@Z ENDP ; std::vector<HOUSINGINFO,std::allocator<HOUSINGINFO> >::_Emplace_reallocate<HOUSINGINFO const &>
_TEXT	ENDS
; Function compile flags: /Ogtp
; File C:\Program Files\Microsoft Visual Studio\2022\Professional\VC\Tools\MSVC\14.44.35207\include\xutility
;	COMDAT ??$_Copy_memmove@PAUHOUSINGINFO@@PAU1@@std@@YAPAUHOUSINGINFO@@PAU1@00@Z
_TEXT	SEGMENT
__First$ = 8						; size = 4
__Last$ = 12						; size = 4
__Dest$ = 16						; size = 4
??$_Copy_memmove@PAUHOUSINGINFO@@PAU1@@std@@YAPAUHOUSINGINFO@@PAU1@00@Z PROC ; std::_Copy_memmove<HOUSINGINFO *,HOUSINGINFO *>, COMDAT

; 4762 : _OutCtgIt _Copy_memmove(_CtgIt _First, _CtgIt _Last, _OutCtgIt _Dest) {

  00000	55		 push	 ebp
  00001	8b ec		 mov	 ebp, esp

; 4763 :     _STL_INTERNAL_CHECK(_First <= _Last);
; 4764 :     const auto _First_ptr    = _STD _To_address(_First);
; 4765 :     const auto _Last_ptr     = _STD _To_address(_Last);
; 4766 :     const auto _Object_count = static_cast<size_t>(_Last_ptr - _First_ptr);

  00003	8b 55 08	 mov	 edx, DWORD PTR __First$[ebp]
  00006	8b 4d 0c	 mov	 ecx, DWORD PTR __Last$[ebp]
  00009	2b ca		 sub	 ecx, edx
  0000b	8b c1		 mov	 eax, ecx
  0000d	c1 f8 05	 sar	 eax, 5

; 4767 :     const auto _First_ch     = const_cast<const char*>(reinterpret_cast<const volatile char*>(_First_ptr));
; 4768 :     const auto _Last_ch      = const_cast<const char*>(reinterpret_cast<const volatile char*>(_Last_ptr));
; 4769 :     const auto _Byte_count   = static_cast<size_t>(_Last_ch - _First_ch);
; 4770 :     return _STD _Copy_memmove_tail(_First_ch, _STD move(_Dest), _Byte_count, _Object_count);

  00010	50		 push	 eax
  00011	51		 push	 ecx
  00012	ff 75 10	 push	 DWORD PTR __Dest$[ebp]
  00015	52		 push	 edx
  00016	e8 00 00 00 00	 call	 ??$_Copy_memmove_tail@PAUHOUSINGINFO@@@std@@YAPAUHOUSINGINFO@@QBDQAU1@II@Z ; std::_Copy_memmove_tail<HOUSINGINFO *>
  0001b	83 c4 10	 add	 esp, 16			; 00000010H

; 4771 : }

  0001e	5d		 pop	 ebp
  0001f	c3		 ret	 0
??$_Copy_memmove@PAUHOUSINGINFO@@PAU1@@std@@YAPAUHOUSINGINFO@@PAU1@00@Z ENDP ; std::_Copy_memmove<HOUSINGINFO *,HOUSINGINFO *>
_TEXT	ENDS
; Function compile flags: /Ogtp
; File C:\Program Files\Microsoft Visual Studio\2022\Professional\VC\Tools\MSVC\14.44.35207\include\xmemory
;	COMDAT ??1?$_Alloc_construct_ptr@V?$allocator@U?$_Tree_node@U?$pair@$$CBKPAVCHousing@@@std@@PAX@std@@@std@@@std@@QAE@XZ
_TEXT	SEGMENT
??1?$_Alloc_construct_ptr@V?$allocator@U?$_Tree_node@U?$pair@$$CBKPAVCHousing@@@std@@PAX@std@@@std@@@std@@QAE@XZ PROC ; std::_Alloc_construct_ptr<std::allocator<std::_Tree_node<std::pair<unsigned long const ,CHousing *>,void *> > >::~_Alloc_construct_ptr<std::allocator<std::_Tree_node<std::pair<unsigned long const ,CHousing *>,void *> > >, COMDAT
; _this$ = ecx

; 1172 :         if (_Ptr) {

  00000	8b 41 04	 mov	 eax, DWORD PTR [ecx+4]
  00003	85 c0		 test	 eax, eax
  00005	74 0b		 je	 SHORT $LN10@Alloc_cons

; 289  :         ::operator delete(_Ptr, _Bytes);

  00007	6a 18		 push	 24			; 00000018H
  00009	50		 push	 eax
  0000a	e8 00 00 00 00	 call	 ??3@YAXPAXI@Z		; operator delete
  0000f	83 c4 08	 add	 esp, 8
$LN10@Alloc_cons:

; 1173 :             _Al.deallocate(_Ptr, 1);
; 1174 :         }
; 1175 :     }

  00012	c3		 ret	 0
??1?$_Alloc_construct_ptr@V?$allocator@U?$_Tree_node@U?$pair@$$CBKPAVCHousing@@@std@@PAX@std@@@std@@@std@@QAE@XZ ENDP ; std::_Alloc_construct_ptr<std::allocator<std::_Tree_node<std::pair<unsigned long const ,CHousing *>,void *> > >::~_Alloc_construct_ptr<std::allocator<std::_Tree_node<std::pair<unsigned long const ,CHousing *>,void *> > >
_TEXT	ENDS
; Function compile flags: /Ogtp
; File C:\Program Files\Microsoft Visual Studio\2022\Professional\VC\Tools\MSVC\14.44.35207\include\xtree
; File C:\Program Files\Microsoft Visual Studio\2022\Professional\VC\Tools\MSVC\14.44.35207\include\type_traits
; File C:\Program Files\Microsoft Visual Studio\2022\Professional\VC\Tools\MSVC\14.44.35207\include\xtree
; File C:\Program Files\Microsoft Visual Studio\2022\Professional\VC\Tools\MSVC\14.44.35207\include\type_traits
; File C:\Program Files\Microsoft Visual Studio\2022\Professional\VC\Tools\MSVC\14.44.35207\include\xtree
;	COMDAT ??$_Find_lower_bound@K@?$_Tree@V?$_Tmap_traits@KPAVCHousing@@U?$less@K@std@@V?$allocator@U?$pair@$$CBKPAVCHousing@@@std@@@3@$0A@@std@@@std@@IBE?AU?$_Tree_find_result@PAU?$_Tree_node@U?$pair@$$CBKPAVCHousing@@@std@@PAX@std@@@1@ABK@Z
_TEXT	SEGMENT
___$ReturnUdt$ = 8					; size = 4
__Keyval$ = 12						; size = 4
??$_Find_lower_bound@K@?$_Tree@V?$_Tmap_traits@KPAVCHousing@@U?$less@K@std@@V?$allocator@U?$pair@$$CBKPAVCHousing@@@std@@@3@$0A@@std@@@std@@IBE?AU?$_Tree_find_result@PAU?$_Tree_node@U?$pair@$$CBKPAVCHousing@@@std@@PAX@std@@@1@ABK@Z PROC ; std::_Tree<std::_Tmap_traits<unsigned long,CHousing *,std::less<unsigned long>,std::allocator<std::pair<unsigned long const ,CHousing *> >,0> >::_Find_lower_bound<unsigned long>, COMDAT
; _this$ = ecx

; 1628 :     _Tree_find_result<_Nodeptr> _Find_lower_bound(const _Keyty& _Keyval) const {

  00000	55		 push	 ebp
  00001	8b ec		 mov	 ebp, esp

; 1629 :         const auto _Scary = _Get_scary();
; 1630 :         _Tree_find_result<_Nodeptr> _Result{{_Scary->_Myhead->_Parent, _Tree_child::_Right}, _Scary->_Myhead};

  00003	8b 09		 mov	 ecx, DWORD PTR [ecx]
  00005	8b 55 08	 mov	 edx, DWORD PTR ___$ReturnUdt$[ebp]
  00008	8b 41 04	 mov	 eax, DWORD PTR [ecx+4]
  0000b	89 02		 mov	 DWORD PTR [edx], eax
  0000d	c7 42 04 00 00
	00 00		 mov	 DWORD PTR [edx+4], 0
  00014	89 4a 08	 mov	 DWORD PTR [edx+8], ecx

; 1631 :         _Nodeptr _Trynode = _Result._Location._Parent;
; 1632 :         while (!_Trynode->_Isnil) {

  00017	80 78 0d 00	 cmp	 BYTE PTR [eax+13], 0
  0001b	75 28		 jne	 SHORT $LN13@Find_lower
; File C:\Program Files\Microsoft Visual Studio\2022\Professional\VC\Tools\MSVC\14.44.35207\include\type_traits

; 2380 :         return _Left < _Right;

  0001d	8b 4d 0c	 mov	 ecx, DWORD PTR __Keyval$[ebp]
  00020	56		 push	 esi
  00021	8b 31		 mov	 esi, DWORD PTR [ecx]
$LL2@Find_lower:
; File C:\Program Files\Microsoft Visual Studio\2022\Professional\VC\Tools\MSVC\14.44.35207\include\xtree

; 1633 :             _Result._Location._Parent = _Trynode;

  00023	89 02		 mov	 DWORD PTR [edx], eax
; File C:\Program Files\Microsoft Visual Studio\2022\Professional\VC\Tools\MSVC\14.44.35207\include\type_traits

; 2380 :         return _Left < _Right;

  00025	39 70 10	 cmp	 DWORD PTR [eax+16], esi
; File C:\Program Files\Microsoft Visual Studio\2022\Professional\VC\Tools\MSVC\14.44.35207\include\xtree

; 1634 :             if (_DEBUG_LT_PRED(_Getcomp(), _Traits::_Kfn(_Trynode->_Myval), _Keyval)) {

  00028	73 07		 jae	 SHORT $LN4@Find_lower

; 1635 :                 _Result._Location._Child = _Tree_child::_Right;
; 1636 :                 _Trynode                 = _Trynode->_Right;

  0002a	8b 40 08	 mov	 eax, DWORD PTR [eax+8]
  0002d	33 c9		 xor	 ecx, ecx

; 1637 :             } else {

  0002f	eb 0a		 jmp	 SHORT $LN5@Find_lower
$LN4@Find_lower:

; 1638 :                 _Result._Location._Child = _Tree_child::_Left;
; 1639 :                 _Result._Bound           = _Trynode;

  00031	89 42 08	 mov	 DWORD PTR [edx+8], eax

; 1640 :                 _Trynode                 = _Trynode->_Left;

  00034	b9 01 00 00 00	 mov	 ecx, 1
  00039	8b 00		 mov	 eax, DWORD PTR [eax]
$LN5@Find_lower:

; 1631 :         _Nodeptr _Trynode = _Result._Location._Parent;
; 1632 :         while (!_Trynode->_Isnil) {

  0003b	89 4a 04	 mov	 DWORD PTR [edx+4], ecx
  0003e	80 78 0d 00	 cmp	 BYTE PTR [eax+13], 0
  00042	74 df		 je	 SHORT $LL2@Find_lower
  00044	5e		 pop	 esi
$LN13@Find_lower:

; 1641 :             }
; 1642 :         }
; 1643 : 
; 1644 :         return _Result;
; 1645 :     }

  00045	8b c2		 mov	 eax, edx
  00047	5d		 pop	 ebp
  00048	c2 08 00	 ret	 8
??$_Find_lower_bound@K@?$_Tree@V?$_Tmap_traits@KPAVCHousing@@U?$less@K@std@@V?$allocator@U?$pair@$$CBKPAVCHousing@@@std@@@3@$0A@@std@@@std@@IBE?AU?$_Tree_find_result@PAU?$_Tree_node@U?$pair@$$CBKPAVCHousing@@@std@@PAX@std@@@1@ABK@Z ENDP ; std::_Tree<std::_Tmap_traits<unsigned long,CHousing *,std::less<unsigned long>,std::allocator<std::pair<unsigned long const ,CHousing *> >,0> >::_Find_lower_bound<unsigned long>
_TEXT	ENDS
; Function compile flags: /Ogtp
; File C:\Program Files\Microsoft Visual Studio\2022\Professional\VC\Tools\MSVC\14.44.35207\include\xmemory
;	COMDAT ??1?$_Alloc_construct_ptr@V?$allocator@U?$_Tree_node@U?$pair@$$CBKV?$vector@KV?$allocator@K@std@@@std@@@std@@PAX@std@@@std@@@std@@QAE@XZ
_TEXT	SEGMENT
??1?$_Alloc_construct_ptr@V?$allocator@U?$_Tree_node@U?$pair@$$CBKV?$vector@KV?$allocator@K@std@@@std@@@std@@PAX@std@@@std@@@std@@QAE@XZ PROC ; std::_Alloc_construct_ptr<std::allocator<std::_Tree_node<std::pair<unsigned long const ,std::vector<unsigned long,std::allocator<unsigned long> > >,void *> > >::~_Alloc_construct_ptr<std::allocator<std::_Tree_node<std::pair<unsigned long const ,std::vector<unsigned long,std::allocator<unsigned long> > >,void *> > >, COMDAT
; _this$ = ecx

; 1172 :         if (_Ptr) {

  00000	8b 41 04	 mov	 eax, DWORD PTR [ecx+4]
  00003	85 c0		 test	 eax, eax
  00005	74 0b		 je	 SHORT $LN10@Alloc_cons

; 289  :         ::operator delete(_Ptr, _Bytes);

  00007	6a 20		 push	 32			; 00000020H
  00009	50		 push	 eax
  0000a	e8 00 00 00 00	 call	 ??3@YAXPAXI@Z		; operator delete
  0000f	83 c4 08	 add	 esp, 8
$LN10@Alloc_cons:

; 1173 :             _Al.deallocate(_Ptr, 1);
; 1174 :         }
; 1175 :     }

  00012	c3		 ret	 0
??1?$_Alloc_construct_ptr@V?$allocator@U?$_Tree_node@U?$pair@$$CBKV?$vector@KV?$allocator@K@std@@@std@@@std@@PAX@std@@@std@@@std@@QAE@XZ ENDP ; std::_Alloc_construct_ptr<std::allocator<std::_Tree_node<std::pair<unsigned long const ,std::vector<unsigned long,std::allocator<unsigned long> > >,void *> > >::~_Alloc_construct_ptr<std::allocator<std::_Tree_node<std::pair<unsigned long const ,std::vector<unsigned long,std::allocator<unsigned long> > >,void *> > >
_TEXT	ENDS
; Function compile flags: /Ogtp
; File C:\Program Files\Microsoft Visual Studio\2022\Professional\VC\Tools\MSVC\14.44.35207\include\xtree
; File C:\Program Files\Microsoft Visual Studio\2022\Professional\VC\Tools\MSVC\14.44.35207\include\type_traits
; File C:\Program Files\Microsoft Visual Studio\2022\Professional\VC\Tools\MSVC\14.44.35207\include\xtree
; File C:\Program Files\Microsoft Visual Studio\2022\Professional\VC\Tools\MSVC\14.44.35207\include\type_traits
; File C:\Program Files\Microsoft Visual Studio\2022\Professional\VC\Tools\MSVC\14.44.35207\include\xtree
;	COMDAT ??$_Find_lower_bound@K@?$_Tree@V?$_Tmap_traits@KV?$vector@KV?$allocator@K@std@@@std@@U?$less@K@2@V?$allocator@U?$pair@$$CBKV?$vector@KV?$allocator@K@std@@@std@@@std@@@2@$0A@@std@@@std@@IBE?AU?$_Tree_find_result@PAU?$_Tree_node@U?$pair@$$CBKV?$vector@KV?$allocator@K@std@@@std@@@std@@PAX@std@@@1@ABK@Z
_TEXT	SEGMENT
___$ReturnUdt$ = 8					; size = 4
__Keyval$ = 12						; size = 4
??$_Find_lower_bound@K@?$_Tree@V?$_Tmap_traits@KV?$vector@KV?$allocator@K@std@@@std@@U?$less@K@2@V?$allocator@U?$pair@$$CBKV?$vector@KV?$allocator@K@std@@@std@@@std@@@2@$0A@@std@@@std@@IBE?AU?$_Tree_find_result@PAU?$_Tree_node@U?$pair@$$CBKV?$vector@KV?$allocator@K@std@@@std@@@std@@PAX@std@@@1@ABK@Z PROC ; std::_Tree<std::_Tmap_traits<unsigned long,std::vector<unsigned long,std::allocator<unsigned long> >,std::less<unsigned long>,std::allocator<std::pair<unsigned long const ,std::vector<unsigned long,std::allocator<unsigned long> > > >,0> >::_Find_lower_bound<unsigned long>, COMDAT
; _this$ = ecx

; 1628 :     _Tree_find_result<_Nodeptr> _Find_lower_bound(const _Keyty& _Keyval) const {

  00000	55		 push	 ebp
  00001	8b ec		 mov	 ebp, esp

; 1629 :         const auto _Scary = _Get_scary();
; 1630 :         _Tree_find_result<_Nodeptr> _Result{{_Scary->_Myhead->_Parent, _Tree_child::_Right}, _Scary->_Myhead};

  00003	8b 09		 mov	 ecx, DWORD PTR [ecx]
  00005	8b 55 08	 mov	 edx, DWORD PTR ___$ReturnUdt$[ebp]
  00008	8b 41 04	 mov	 eax, DWORD PTR [ecx+4]
  0000b	89 02		 mov	 DWORD PTR [edx], eax
  0000d	c7 42 04 00 00
	00 00		 mov	 DWORD PTR [edx+4], 0
  00014	89 4a 08	 mov	 DWORD PTR [edx+8], ecx

; 1631 :         _Nodeptr _Trynode = _Result._Location._Parent;
; 1632 :         while (!_Trynode->_Isnil) {

  00017	80 78 0d 00	 cmp	 BYTE PTR [eax+13], 0
  0001b	75 28		 jne	 SHORT $LN13@Find_lower
; File C:\Program Files\Microsoft Visual Studio\2022\Professional\VC\Tools\MSVC\14.44.35207\include\type_traits

; 2380 :         return _Left < _Right;

  0001d	8b 4d 0c	 mov	 ecx, DWORD PTR __Keyval$[ebp]
  00020	56		 push	 esi
  00021	8b 31		 mov	 esi, DWORD PTR [ecx]
$LL2@Find_lower:
; File C:\Program Files\Microsoft Visual Studio\2022\Professional\VC\Tools\MSVC\14.44.35207\include\xtree

; 1633 :             _Result._Location._Parent = _Trynode;

  00023	89 02		 mov	 DWORD PTR [edx], eax
; File C:\Program Files\Microsoft Visual Studio\2022\Professional\VC\Tools\MSVC\14.44.35207\include\type_traits

; 2380 :         return _Left < _Right;

  00025	39 70 10	 cmp	 DWORD PTR [eax+16], esi
; File C:\Program Files\Microsoft Visual Studio\2022\Professional\VC\Tools\MSVC\14.44.35207\include\xtree

; 1634 :             if (_DEBUG_LT_PRED(_Getcomp(), _Traits::_Kfn(_Trynode->_Myval), _Keyval)) {

  00028	73 07		 jae	 SHORT $LN4@Find_lower

; 1635 :                 _Result._Location._Child = _Tree_child::_Right;
; 1636 :                 _Trynode                 = _Trynode->_Right;

  0002a	8b 40 08	 mov	 eax, DWORD PTR [eax+8]
  0002d	33 c9		 xor	 ecx, ecx

; 1637 :             } else {

  0002f	eb 0a		 jmp	 SHORT $LN5@Find_lower
$LN4@Find_lower:

; 1638 :                 _Result._Location._Child = _Tree_child::_Left;
; 1639 :                 _Result._Bound           = _Trynode;

  00031	89 42 08	 mov	 DWORD PTR [edx+8], eax

; 1640 :                 _Trynode                 = _Trynode->_Left;

  00034	b9 01 00 00 00	 mov	 ecx, 1
  00039	8b 00		 mov	 eax, DWORD PTR [eax]
$LN5@Find_lower:

; 1631 :         _Nodeptr _Trynode = _Result._Location._Parent;
; 1632 :         while (!_Trynode->_Isnil) {

  0003b	89 4a 04	 mov	 DWORD PTR [edx+4], ecx
  0003e	80 78 0d 00	 cmp	 BYTE PTR [eax+13], 0
  00042	74 df		 je	 SHORT $LL2@Find_lower
  00044	5e		 pop	 esi
$LN13@Find_lower:

; 1641 :             }
; 1642 :         }
; 1643 : 
; 1644 :         return _Result;
; 1645 :     }

  00045	8b c2		 mov	 eax, edx
  00047	5d		 pop	 ebp
  00048	c2 08 00	 ret	 8
??$_Find_lower_bound@K@?$_Tree@V?$_Tmap_traits@KV?$vector@KV?$allocator@K@std@@@std@@U?$less@K@2@V?$allocator@U?$pair@$$CBKV?$vector@KV?$allocator@K@std@@@std@@@std@@@2@$0A@@std@@@std@@IBE?AU?$_Tree_find_result@PAU?$_Tree_node@U?$pair@$$CBKV?$vector@KV?$allocator@K@std@@@std@@@std@@PAX@std@@@1@ABK@Z ENDP ; std::_Tree<std::_Tmap_traits<unsigned long,std::vector<unsigned long,std::allocator<unsigned long> >,std::less<unsigned long>,std::allocator<std::pair<unsigned long const ,std::vector<unsigned long,std::allocator<unsigned long> > > >,0> >::_Find_lower_bound<unsigned long>
_TEXT	ENDS
; Function compile flags: /Ogtp
; File C:\Program Files\Microsoft Visual Studio\2022\Professional\VC\Tools\MSVC\14.44.35207\include\xtree
; File C:\Program Files\Microsoft Visual Studio\2022\Professional\VC\Tools\MSVC\14.44.35207\include\utility
; File C:\Program Files\Microsoft Visual Studio\2022\Professional\VC\Tools\MSVC\14.44.35207\include\xtree
; File C:\Program Files\Microsoft Visual Studio\2022\Professional\VC\Tools\MSVC\14.44.35207\include\vector
; File C:\Program Files\Microsoft Visual Studio\2022\Professional\VC\Tools\MSVC\14.44.35207\include\xmemory
; File C:\Program Files\Microsoft Visual Studio\2022\Professional\VC\Tools\MSVC\14.44.35207\include\xtree
; File C:\Program Files\Microsoft Visual Studio\2022\Professional\VC\Tools\MSVC\14.44.35207\include\xmemory
; File C:\Program Files\Microsoft Visual Studio\2022\Professional\VC\Tools\MSVC\14.44.35207\include\xtree
;	COMDAT ??$_Erase_tree@V?$allocator@U?$_Tree_node@U?$pair@$$CBKV?$vector@KV?$allocator@K@std@@@std@@@std@@PAX@std@@@std@@@?$_Tree_val@U?$_Tree_simple_types@U?$pair@$$CBKV?$vector@KV?$allocator@K@std@@@std@@@std@@@std@@@std@@QAEXAAV?$allocator@U?$_Tree_node@U?$pair@$$CBKV?$vector@KV?$allocator@K@std@@@std@@@std@@PAX@std@@@1@PAU?$_Tree_node@U?$pair@$$CBKV?$vector@KV?$allocator@K@std@@@std@@@std@@PAX@1@@Z
_TEXT	SEGMENT
_this$1$ = -4						; size = 4
__Al$ = 8						; size = 4
__Rootnode$ = 12					; size = 4
??$_Erase_tree@V?$allocator@U?$_Tree_node@U?$pair@$$CBKV?$vector@KV?$allocator@K@std@@@std@@@std@@PAX@std@@@std@@@?$_Tree_val@U?$_Tree_simple_types@U?$pair@$$CBKV?$vector@KV?$allocator@K@std@@@std@@@std@@@std@@@std@@QAEXAAV?$allocator@U?$_Tree_node@U?$pair@$$CBKV?$vector@KV?$allocator@K@std@@@std@@@std@@PAX@std@@@1@PAU?$_Tree_node@U?$pair@$$CBKV?$vector@KV?$allocator@K@std@@@std@@@std@@PAX@1@@Z PROC ; std::_Tree_val<std::_Tree_simple_types<std::pair<unsigned long const ,std::vector<unsigned long,std::allocator<unsigned long> > > > >::_Erase_tree<std::allocator<std::_Tree_node<std::pair<unsigned long const ,std::vector<unsigned long,std::allocator<unsigned long> > >,void *> > >, COMDAT
; _this$ = ecx

; 767  :     void _Erase_tree(_Alnode& _Al, _Nodeptr _Rootnode) noexcept {

  00000	55		 push	 ebp
  00001	8b ec		 mov	 ebp, esp
  00003	51		 push	 ecx
  00004	56		 push	 esi

; 768  :         while (!_Rootnode->_Isnil) { // free subtrees, then node

  00005	8b 75 0c	 mov	 esi, DWORD PTR __Rootnode$[ebp]
  00008	8b c1		 mov	 eax, ecx
  0000a	89 45 fc	 mov	 DWORD PTR _this$1$[ebp], eax
  0000d	80 7e 0d 00	 cmp	 BYTE PTR [esi+13], 0
  00011	75 32		 jne	 SHORT $LN48@Erase_tree
  00013	53		 push	 ebx
  00014	8b 5d 08	 mov	 ebx, DWORD PTR __Al$[ebp]
  00017	57		 push	 edi
$LL2@Erase_tree:

; 769  :             _Erase_tree(_Al, _Rootnode->_Right);

  00018	ff 76 08	 push	 DWORD PTR [esi+8]
  0001b	8b c8		 mov	 ecx, eax
  0001d	53		 push	 ebx
  0001e	e8 00 00 00 00	 call	 ??$_Erase_tree@V?$allocator@U?$_Tree_node@U?$pair@$$CBKV?$vector@KV?$allocator@K@std@@@std@@@std@@PAX@std@@@std@@@?$_Tree_val@U?$_Tree_simple_types@U?$pair@$$CBKV?$vector@KV?$allocator@K@std@@@std@@@std@@@std@@@std@@QAEXAAV?$allocator@U?$_Tree_node@U?$pair@$$CBKV?$vector@KV?$allocator@K@std@@@std@@@std@@PAX@std@@@1@PAU?$_Tree_node@U?$pair@$$CBKV?$vector@KV?$allocator@K@std@@@std@@@std@@PAX@1@@Z ; std::_Tree_val<std::_Tree_simple_types<std::pair<unsigned long const ,std::vector<unsigned long,std::allocator<unsigned long> > > > >::_Erase_tree<std::allocator<std::_Tree_node<std::pair<unsigned long const ,std::vector<unsigned long,std::allocator<unsigned long> > >,void *> > >
; File C:\Program Files\Microsoft Visual Studio\2022\Professional\VC\Tools\MSVC\14.44.35207\include\utility

; 773  :     _Ty _Old_val = static_cast<_Ty&&>(_Val);

  00023	8b fe		 mov	 edi, esi

; 774  :     _Val         = static_cast<_Other&&>(_New_val);

  00025	8b 36		 mov	 esi, DWORD PTR [esi]
; File C:\Program Files\Microsoft Visual Studio\2022\Professional\VC\Tools\MSVC\14.44.35207\include\xtree

; 381  :         allocator_traits<_Alloc>::destroy(_Al, _STD addressof(_Ptr->_Myval));

  00027	8d 4f 14	 lea	 ecx, DWORD PTR [edi+20]
; File C:\Program Files\Microsoft Visual Studio\2022\Professional\VC\Tools\MSVC\14.44.35207\include\vector

; 830  :         _Tidy();

  0002a	e8 00 00 00 00	 call	 ?_Tidy@?$vector@KV?$allocator@K@std@@@std@@AAEXXZ ; std::vector<unsigned long,std::allocator<unsigned long> >::_Tidy
; File C:\Program Files\Microsoft Visual Studio\2022\Professional\VC\Tools\MSVC\14.44.35207\include\xmemory

; 289  :         ::operator delete(_Ptr, _Bytes);

  0002f	6a 20		 push	 32			; 00000020H
  00031	57		 push	 edi
  00032	e8 00 00 00 00	 call	 ??3@YAXPAXI@Z		; operator delete
; File C:\Program Files\Microsoft Visual Studio\2022\Professional\VC\Tools\MSVC\14.44.35207\include\xtree

; 768  :         while (!_Rootnode->_Isnil) { // free subtrees, then node

  00037	8b 45 fc	 mov	 eax, DWORD PTR _this$1$[ebp]
; File C:\Program Files\Microsoft Visual Studio\2022\Professional\VC\Tools\MSVC\14.44.35207\include\xmemory

; 289  :         ::operator delete(_Ptr, _Bytes);

  0003a	83 c4 08	 add	 esp, 8
; File C:\Program Files\Microsoft Visual Studio\2022\Professional\VC\Tools\MSVC\14.44.35207\include\xtree

; 768  :         while (!_Rootnode->_Isnil) { // free subtrees, then node

  0003d	80 7e 0d 00	 cmp	 BYTE PTR [esi+13], 0
  00041	74 d5		 je	 SHORT $LL2@Erase_tree
  00043	5f		 pop	 edi
  00044	5b		 pop	 ebx
$LN48@Erase_tree:
  00045	5e		 pop	 esi

; 770  :             _Alnode::value_type::_Freenode(_Al, _STD exchange(_Rootnode, _Rootnode->_Left));
; 771  :         }
; 772  :     }

  00046	8b e5		 mov	 esp, ebp
  00048	5d		 pop	 ebp
  00049	c2 08 00	 ret	 8
??$_Erase_tree@V?$allocator@U?$_Tree_node@U?$pair@$$CBKV?$vector@KV?$allocator@K@std@@@std@@@std@@PAX@std@@@std@@@?$_Tree_val@U?$_Tree_simple_types@U?$pair@$$CBKV?$vector@KV?$allocator@K@std@@@std@@@std@@@std@@@std@@QAEXAAV?$allocator@U?$_Tree_node@U?$pair@$$CBKV?$vector@KV?$allocator@K@std@@@std@@@std@@PAX@std@@@1@PAU?$_Tree_node@U?$pair@$$CBKV?$vector@KV?$allocator@K@std@@@std@@@std@@PAX@1@@Z ENDP ; std::_Tree_val<std::_Tree_simple_types<std::pair<unsigned long const ,std::vector<unsigned long,std::allocator<unsigned long> > > > >::_Erase_tree<std::allocator<std::_Tree_node<std::pair<unsigned long const ,std::vector<unsigned long,std::allocator<unsigned long> > >,void *> > >
_TEXT	ENDS
; Function compile flags: /Ogtp
; File C:\Program Files\Microsoft Visual Studio\2022\Professional\VC\Tools\MSVC\14.44.35207\include\xtree
; File C:\Program Files\Microsoft Visual Studio\2022\Professional\VC\Tools\MSVC\14.44.35207\include\utility
; File C:\Program Files\Microsoft Visual Studio\2022\Professional\VC\Tools\MSVC\14.44.35207\include\xmemory
; File C:\Program Files\Microsoft Visual Studio\2022\Professional\VC\Tools\MSVC\14.44.35207\include\xtree
;	COMDAT ??$_Erase_tree@V?$allocator@U?$_Tree_node@U?$pair@$$CBKPAVCHousing@@@std@@PAX@std@@@std@@@?$_Tree_val@U?$_Tree_simple_types@U?$pair@$$CBKPAVCHousing@@@std@@@std@@@std@@QAEXAAV?$allocator@U?$_Tree_node@U?$pair@$$CBKPAVCHousing@@@std@@PAX@std@@@1@PAU?$_Tree_node@U?$pair@$$CBKPAVCHousing@@@std@@PAX@1@@Z
_TEXT	SEGMENT
__Al$ = 8						; size = 4
__Rootnode$ = 12					; size = 4
??$_Erase_tree@V?$allocator@U?$_Tree_node@U?$pair@$$CBKPAVCHousing@@@std@@PAX@std@@@std@@@?$_Tree_val@U?$_Tree_simple_types@U?$pair@$$CBKPAVCHousing@@@std@@@std@@@std@@QAEXAAV?$allocator@U?$_Tree_node@U?$pair@$$CBKPAVCHousing@@@std@@PAX@std@@@1@PAU?$_Tree_node@U?$pair@$$CBKPAVCHousing@@@std@@PAX@1@@Z PROC ; std::_Tree_val<std::_Tree_simple_types<std::pair<unsigned long const ,CHousing *> > >::_Erase_tree<std::allocator<std::_Tree_node<std::pair<unsigned long const ,CHousing *>,void *> > >, COMDAT
; _this$ = ecx

; 767  :     void _Erase_tree(_Alnode& _Al, _Nodeptr _Rootnode) noexcept {

  00000	55		 push	 ebp
  00001	8b ec		 mov	 ebp, esp
  00003	53		 push	 ebx
  00004	56		 push	 esi

; 768  :         while (!_Rootnode->_Isnil) { // free subtrees, then node

  00005	8b 75 0c	 mov	 esi, DWORD PTR __Rootnode$[ebp]
  00008	8b d9		 mov	 ebx, ecx
  0000a	80 7e 0d 00	 cmp	 BYTE PTR [esi+13], 0
  0000e	75 25		 jne	 SHORT $LN34@Erase_tree
  00010	57		 push	 edi
  00011	8b 7d 08	 mov	 edi, DWORD PTR __Al$[ebp]
$LL2@Erase_tree:

; 769  :             _Erase_tree(_Al, _Rootnode->_Right);

  00014	ff 76 08	 push	 DWORD PTR [esi+8]
  00017	8b cb		 mov	 ecx, ebx
  00019	57		 push	 edi
  0001a	e8 00 00 00 00	 call	 ??$_Erase_tree@V?$allocator@U?$_Tree_node@U?$pair@$$CBKPAVCHousing@@@std@@PAX@std@@@std@@@?$_Tree_val@U?$_Tree_simple_types@U?$pair@$$CBKPAVCHousing@@@std@@@std@@@std@@QAEXAAV?$allocator@U?$_Tree_node@U?$pair@$$CBKPAVCHousing@@@std@@PAX@std@@@1@PAU?$_Tree_node@U?$pair@$$CBKPAVCHousing@@@std@@PAX@1@@Z ; std::_Tree_val<std::_Tree_simple_types<std::pair<unsigned long const ,CHousing *> > >::_Erase_tree<std::allocator<std::_Tree_node<std::pair<unsigned long const ,CHousing *>,void *> > >
; File C:\Program Files\Microsoft Visual Studio\2022\Professional\VC\Tools\MSVC\14.44.35207\include\utility

; 773  :     _Ty _Old_val = static_cast<_Ty&&>(_Val);

  0001f	8b c6		 mov	 eax, esi

; 774  :     _Val         = static_cast<_Other&&>(_New_val);

  00021	8b 36		 mov	 esi, DWORD PTR [esi]
; File C:\Program Files\Microsoft Visual Studio\2022\Professional\VC\Tools\MSVC\14.44.35207\include\xmemory

; 289  :         ::operator delete(_Ptr, _Bytes);

  00023	6a 18		 push	 24			; 00000018H
  00025	50		 push	 eax
  00026	e8 00 00 00 00	 call	 ??3@YAXPAXI@Z		; operator delete
  0002b	83 c4 08	 add	 esp, 8
; File C:\Program Files\Microsoft Visual Studio\2022\Professional\VC\Tools\MSVC\14.44.35207\include\xtree

; 768  :         while (!_Rootnode->_Isnil) { // free subtrees, then node

  0002e	80 7e 0d 00	 cmp	 BYTE PTR [esi+13], 0
  00032	74 e0		 je	 SHORT $LL2@Erase_tree
  00034	5f		 pop	 edi
$LN34@Erase_tree:
  00035	5e		 pop	 esi

; 770  :             _Alnode::value_type::_Freenode(_Al, _STD exchange(_Rootnode, _Rootnode->_Left));
; 771  :         }
; 772  :     }

  00036	5b		 pop	 ebx
  00037	5d		 pop	 ebp
  00038	c2 08 00	 ret	 8
??$_Erase_tree@V?$allocator@U?$_Tree_node@U?$pair@$$CBKPAVCHousing@@@std@@PAX@std@@@std@@@?$_Tree_val@U?$_Tree_simple_types@U?$pair@$$CBKPAVCHousing@@@std@@@std@@@std@@QAEXAAV?$allocator@U?$_Tree_node@U?$pair@$$CBKPAVCHousing@@@std@@PAX@std@@@1@PAU?$_Tree_node@U?$pair@$$CBKPAVCHousing@@@std@@PAX@1@@Z ENDP ; std::_Tree_val<std::_Tree_simple_types<std::pair<unsigned long const ,CHousing *> > >::_Erase_tree<std::allocator<std::_Tree_node<std::pair<unsigned long const ,CHousing *>,void *> > >
_TEXT	ENDS
; Function compile flags: /Ogtp
; File C:\Program Files\Microsoft Visual Studio\2022\Professional\VC\Tools\MSVC\14.44.35207\include\vector
;	COMDAT ??1?$pair@$$CBKV?$vector@KV?$allocator@K@std@@@std@@@std@@QAE@XZ
_TEXT	SEGMENT
??1?$pair@$$CBKV?$vector@KV?$allocator@K@std@@@std@@@std@@QAE@XZ PROC ; std::pair<unsigned long const ,std::vector<unsigned long,std::allocator<unsigned long> > >::~pair<unsigned long const ,std::vector<unsigned long,std::allocator<unsigned long> > >, COMDAT
; _this$ = ecx
  00000	83 c1 04	 add	 ecx, 4

; 830  :         _Tidy();

  00003	e9 00 00 00 00	 jmp	 ?_Tidy@?$vector@KV?$allocator@K@std@@@std@@AAEXXZ ; std::vector<unsigned long,std::allocator<unsigned long> >::_Tidy
??1?$pair@$$CBKV?$vector@KV?$allocator@K@std@@@std@@@std@@QAE@XZ ENDP ; std::pair<unsigned long const ,std::vector<unsigned long,std::allocator<unsigned long> > >::~pair<unsigned long const ,std::vector<unsigned long,std::allocator<unsigned long> > >
_TEXT	ENDS
; Function compile flags: /Ogtp
; File C:\Program Files\Microsoft Visual Studio\2022\Professional\VC\Tools\MSVC\14.44.35207\include\xtree
;	COMDAT ??E?$_Tree_unchecked_const_iterator@V?$_Tree_val@U?$_Tree_simple_types@U?$pair@$$CBKV?$vector@KV?$allocator@K@std@@@std@@@std@@@std@@@std@@U_Iterator_base0@2@@std@@QAEAAV01@XZ
_TEXT	SEGMENT
??E?$_Tree_unchecked_const_iterator@V?$_Tree_val@U?$_Tree_simple_types@U?$pair@$$CBKV?$vector@KV?$allocator@K@std@@@std@@@std@@@std@@@std@@U_Iterator_base0@2@@std@@QAEAAV01@XZ PROC ; std::_Tree_unchecked_const_iterator<std::_Tree_val<std::_Tree_simple_types<std::pair<unsigned long const ,std::vector<unsigned long,std::allocator<unsigned long> > > > >,std::_Iterator_base0>::operator++, COMDAT
; _this$ = ecx

; 49   :     _Tree_unchecked_const_iterator& operator++() noexcept {

  00000	56		 push	 esi
  00001	8b f1		 mov	 esi, ecx
  00003	57		 push	 edi

; 50   :         if (_Ptr->_Right->_Isnil) { // climb looking for right subtree

  00004	8b 16		 mov	 edx, DWORD PTR [esi]
  00006	8b 7a 08	 mov	 edi, DWORD PTR [edx+8]
  00009	80 7f 0d 00	 cmp	 BYTE PTR [edi+13], 0
  0000d	74 22		 je	 SHORT $LN4@operator

; 51   :             _Nodeptr _Pnode;
; 52   :             while (!(_Pnode = _Ptr->_Parent)->_Isnil && _Ptr == _Pnode->_Right) {

  0000f	8b 42 04	 mov	 eax, DWORD PTR [edx+4]
  00012	80 78 0d 00	 cmp	 BYTE PTR [eax+13], 0
  00016	75 12		 jne	 SHORT $LN21@operator
$LL2@operator:
  00018	3b 50 08	 cmp	 edx, DWORD PTR [eax+8]
  0001b	75 0d		 jne	 SHORT $LN21@operator

; 53   :                 _Ptr = _Pnode; // ==> parent while right subtree

  0001d	89 06		 mov	 DWORD PTR [esi], eax
  0001f	8b d0		 mov	 edx, eax
  00021	8b 40 04	 mov	 eax, DWORD PTR [eax+4]
  00024	80 78 0d 00	 cmp	 BYTE PTR [eax+13], 0
  00028	74 ee		 je	 SHORT $LL2@operator
$LN21@operator:

; 54   :             }
; 55   : 
; 56   :             _Ptr = _Pnode; // ==> parent (head if end())
; 57   :         } else {
; 58   :             _Ptr = _Mytree::_Min(_Ptr->_Right); // ==> smallest of right subtree
; 59   :         }
; 60   : 
; 61   :         return *this;

  0002a	89 06		 mov	 DWORD PTR [esi], eax

; 62   :     }

  0002c	8b c6		 mov	 eax, esi
  0002e	5f		 pop	 edi
  0002f	5e		 pop	 esi
  00030	c3		 ret	 0
$LN4@operator:

; 476  :         while (!_Pnode->_Left->_Isnil) {

  00031	8b 0f		 mov	 ecx, DWORD PTR [edi]
  00033	80 79 0d 00	 cmp	 BYTE PTR [ecx+13], 0
  00037	75 13		 jne	 SHORT $LN10@operator
  00039	0f 1f 80 00 00
	00 00		 npad	 7
$LL9@operator:
  00040	8b 01		 mov	 eax, DWORD PTR [ecx]

; 477  :             _Pnode = _Pnode->_Left;

  00042	8b f9		 mov	 edi, ecx
  00044	8b c8		 mov	 ecx, eax
  00046	80 78 0d 00	 cmp	 BYTE PTR [eax+13], 0
  0004a	74 f4		 je	 SHORT $LL9@operator
$LN10@operator:

; 54   :             }
; 55   : 
; 56   :             _Ptr = _Pnode; // ==> parent (head if end())
; 57   :         } else {
; 58   :             _Ptr = _Mytree::_Min(_Ptr->_Right); // ==> smallest of right subtree
; 59   :         }
; 60   : 
; 61   :         return *this;

  0004c	89 3e		 mov	 DWORD PTR [esi], edi

; 62   :     }

  0004e	8b c6		 mov	 eax, esi
  00050	5f		 pop	 edi
  00051	5e		 pop	 esi
  00052	c3		 ret	 0
??E?$_Tree_unchecked_const_iterator@V?$_Tree_val@U?$_Tree_simple_types@U?$pair@$$CBKV?$vector@KV?$allocator@K@std@@@std@@@std@@@std@@@std@@U_Iterator_base0@2@@std@@QAEAAV01@XZ ENDP ; std::_Tree_unchecked_const_iterator<std::_Tree_val<std::_Tree_simple_types<std::pair<unsigned long const ,std::vector<unsigned long,std::allocator<unsigned long> > > > >,std::_Iterator_base0>::operator++
_TEXT	ENDS
; Function compile flags: /Ogtp
;	COMDAT ??__FsHousingMng@?1??GetInstance@CHousingMng@@SAPAV1@XZ@YAXXZ
text$yd	SEGMENT
??__FsHousingMng@?1??GetInstance@CHousingMng@@SAPAV1@XZ@YAXXZ PROC ; `CHousingMng::GetInstance'::`2'::`dynamic atexit destructor for 'sHousingMng'', COMDAT
  00000	b9 00 00 00 00	 mov	 ecx, OFFSET ?sHousingMng@?1??GetInstance@CHousingMng@@SAPAV2@XZ@4V2@A
  00005	e9 00 00 00 00	 jmp	 ??1CHousingMng@@QAE@XZ	; CHousingMng::~CHousingMng
??__FsHousingMng@?1??GetInstance@CHousingMng@@SAPAV1@XZ@YAXXZ ENDP ; `CHousingMng::GetInstance'::`2'::`dynamic atexit destructor for 'sHousingMng''
text$yd	ENDS
; Function compile flags: /Ogtp
; File C:\Program Files\Microsoft Visual Studio\2022\Professional\VC\Tools\MSVC\14.44.35207\include\xtree
;	COMDAT ??E?$_Tree_unchecked_const_iterator@V?$_Tree_val@U?$_Tree_simple_types@U?$pair@$$CBKPAVCHousing@@@std@@@std@@@std@@U_Iterator_base0@2@@std@@QAEAAV01@XZ
_TEXT	SEGMENT
??E?$_Tree_unchecked_const_iterator@V?$_Tree_val@U?$_Tree_simple_types@U?$pair@$$CBKPAVCHousing@@@std@@@std@@@std@@U_Iterator_base0@2@@std@@QAEAAV01@XZ PROC ; std::_Tree_unchecked_const_iterator<std::_Tree_val<std::_Tree_simple_types<std::pair<unsigned long const ,CHousing *> > >,std::_Iterator_base0>::operator++, COMDAT
; _this$ = ecx

; 49   :     _Tree_unchecked_const_iterator& operator++() noexcept {

  00000	56		 push	 esi
  00001	8b f1		 mov	 esi, ecx
  00003	57		 push	 edi

; 50   :         if (_Ptr->_Right->_Isnil) { // climb looking for right subtree

  00004	8b 16		 mov	 edx, DWORD PTR [esi]
  00006	8b 7a 08	 mov	 edi, DWORD PTR [edx+8]
  00009	80 7f 0d 00	 cmp	 BYTE PTR [edi+13], 0
  0000d	74 22		 je	 SHORT $LN4@operator

; 51   :             _Nodeptr _Pnode;
; 52   :             while (!(_Pnode = _Ptr->_Parent)->_Isnil && _Ptr == _Pnode->_Right) {

  0000f	8b 42 04	 mov	 eax, DWORD PTR [edx+4]
  00012	80 78 0d 00	 cmp	 BYTE PTR [eax+13], 0
  00016	75 12		 jne	 SHORT $LN21@operator
$LL2@operator:
  00018	3b 50 08	 cmp	 edx, DWORD PTR [eax+8]
  0001b	75 0d		 jne	 SHORT $LN21@operator

; 53   :                 _Ptr = _Pnode; // ==> parent while right subtree

  0001d	89 06		 mov	 DWORD PTR [esi], eax
  0001f	8b d0		 mov	 edx, eax
  00021	8b 40 04	 mov	 eax, DWORD PTR [eax+4]
  00024	80 78 0d 00	 cmp	 BYTE PTR [eax+13], 0
  00028	74 ee		 je	 SHORT $LL2@operator
$LN21@operator:

; 54   :             }
; 55   : 
; 56   :             _Ptr = _Pnode; // ==> parent (head if end())
; 57   :         } else {
; 58   :             _Ptr = _Mytree::_Min(_Ptr->_Right); // ==> smallest of right subtree
; 59   :         }
; 60   : 
; 61   :         return *this;

  0002a	89 06		 mov	 DWORD PTR [esi], eax

; 62   :     }

  0002c	8b c6		 mov	 eax, esi
  0002e	5f		 pop	 edi
  0002f	5e		 pop	 esi
  00030	c3		 ret	 0
$LN4@operator:

; 476  :         while (!_Pnode->_Left->_Isnil) {

  00031	8b 0f		 mov	 ecx, DWORD PTR [edi]
  00033	80 79 0d 00	 cmp	 BYTE PTR [ecx+13], 0
  00037	75 13		 jne	 SHORT $LN10@operator
  00039	0f 1f 80 00 00
	00 00		 npad	 7
$LL9@operator:
  00040	8b 01		 mov	 eax, DWORD PTR [ecx]

; 477  :             _Pnode = _Pnode->_Left;

  00042	8b f9		 mov	 edi, ecx
  00044	8b c8		 mov	 ecx, eax
  00046	80 78 0d 00	 cmp	 BYTE PTR [eax+13], 0
  0004a	74 f4		 je	 SHORT $LL9@operator
$LN10@operator:

; 54   :             }
; 55   : 
; 56   :             _Ptr = _Pnode; // ==> parent (head if end())
; 57   :         } else {
; 58   :             _Ptr = _Mytree::_Min(_Ptr->_Right); // ==> smallest of right subtree
; 59   :         }
; 60   : 
; 61   :         return *this;

  0004c	89 3e		 mov	 DWORD PTR [esi], edi

; 62   :     }

  0004e	8b c6		 mov	 eax, esi
  00050	5f		 pop	 edi
  00051	5e		 pop	 esi
  00052	c3		 ret	 0
??E?$_Tree_unchecked_const_iterator@V?$_Tree_val@U?$_Tree_simple_types@U?$pair@$$CBKPAVCHousing@@@std@@@std@@@std@@U_Iterator_base0@2@@std@@QAEAAV01@XZ ENDP ; std::_Tree_unchecked_const_iterator<std::_Tree_val<std::_Tree_simple_types<std::pair<unsigned long const ,CHousing *> > >,std::_Iterator_base0>::operator++
_TEXT	ENDS
; Function compile flags: /Ogtp
; File C:\IAGOS\server\v18\Source\Source\_Network\Misc\Include\ar.h
;	COMDAT ??$?6I@CAr@@QAEAAV0@ABI@Z
_TEXT	SEGMENT
_t$ = 8							; size = 4
??$?6I@CAr@@QAEAAV0@ABI@Z PROC				; CAr::operator<<<unsigned int>, COMDAT
; _this$ = ecx

; 255  : {

  00000	55		 push	 ebp
  00001	8b ec		 mov	 ebp, esp
  00003	56		 push	 esi

; 256  : 	CheckBuf(sizeof(T));

  00004	6a 04		 push	 4
  00006	8b f1		 mov	 esi, ecx
  00008	e8 00 00 00 00	 call	 ?CheckBuf@CAr@@QAEXI@Z	; CAr::CheckBuf

; 257  : 	*(UNALIGNED T*)m_lpBufCur = t;

  0000d	8b 56 08	 mov	 edx, DWORD PTR [esi+8]
  00010	8b 45 08	 mov	 eax, DWORD PTR _t$[ebp]
  00013	8b 00		 mov	 eax, DWORD PTR [eax]
  00015	89 02		 mov	 DWORD PTR [edx], eax

; 258  : 	m_lpBufCur += sizeof(T);
; 259  : 	return *this;

  00017	8b c6		 mov	 eax, esi
  00019	83 46 08 04	 add	 DWORD PTR [esi+8], 4
  0001d	5e		 pop	 esi

; 260  : }

  0001e	5d		 pop	 ebp
  0001f	c2 04 00	 ret	 4
??$?6I@CAr@@QAEAAV0@ABI@Z ENDP				; CAr::operator<<<unsigned int>
_TEXT	ENDS
; Function compile flags: /Ogtp
; File C:\Program Files\Microsoft Visual Studio\2022\Professional\VC\Tools\MSVC\14.44.35207\include\xtree
;	COMDAT ?_Insert_node@?$_Tree_val@U?$_Tree_simple_types@U?$pair@$$CBKPAVCHousing@@@std@@@std@@@std@@QAEPAU?$_Tree_node@U?$pair@$$CBKPAVCHousing@@@std@@PAX@2@U?$_Tree_id@PAU?$_Tree_node@U?$pair@$$CBKPAVCHousing@@@std@@PAX@std@@@2@QAU32@@Z
_TEXT	SEGMENT
__Head$1$ = -4						; size = 4
__Loc$ = 8						; size = 8
__Newnode$ = 16						; size = 4
?_Insert_node@?$_Tree_val@U?$_Tree_simple_types@U?$pair@$$CBKPAVCHousing@@@std@@@std@@@std@@QAEPAU?$_Tree_node@U?$pair@$$CBKPAVCHousing@@@std@@PAX@2@U?$_Tree_id@PAU?$_Tree_node@U?$pair@$$CBKPAVCHousing@@@std@@PAX@std@@@2@QAU32@@Z PROC ; std::_Tree_val<std::_Tree_simple_types<std::pair<unsigned long const ,CHousing *> > >::_Insert_node, COMDAT
; _this$ = ecx

; 669  :     _Nodeptr _Insert_node(const _Tree_id<_Nodeptr> _Loc, const _Nodeptr _Newnode) noexcept {

  00000	55		 push	 ebp
  00001	8b ec		 mov	 ebp, esp
  00003	51		 push	 ecx

; 670  :         ++_Mysize;
; 671  :         const auto _Head  = _Myhead;
; 672  :         _Newnode->_Parent = _Loc._Parent;

  00004	8b 55 08	 mov	 edx, DWORD PTR __Loc$[ebp]
  00007	53		 push	 ebx
  00008	8b d9		 mov	 ebx, ecx
  0000a	57		 push	 edi
  0000b	8b 7d 10	 mov	 edi, DWORD PTR __Newnode$[ebp]
  0000e	8b 03		 mov	 eax, DWORD PTR [ebx]
  00010	ff 43 04	 inc	 DWORD PTR [ebx+4]
  00013	89 45 fc	 mov	 DWORD PTR __Head$1$[ebp], eax
  00016	89 57 04	 mov	 DWORD PTR [edi+4], edx

; 673  :         if (_Loc._Parent == _Head) { // first node in tree, just set head values

  00019	3b d0		 cmp	 edx, eax
  0001b	75 16		 jne	 SHORT $LN5@Insert_nod

; 674  :             _Head->_Left     = _Newnode;

  0001d	89 38		 mov	 DWORD PTR [eax], edi

; 675  :             _Head->_Parent   = _Newnode;

  0001f	89 78 04	 mov	 DWORD PTR [eax+4], edi

; 676  :             _Head->_Right    = _Newnode;

  00022	89 78 08	 mov	 DWORD PTR [eax+8], edi

; 735  :         return _Newnode;
; 736  :     }

  00025	8b c7		 mov	 eax, edi
  00027	c6 47 0c 01	 mov	 BYTE PTR [edi+12], 1
  0002b	5f		 pop	 edi
  0002c	5b		 pop	 ebx
  0002d	8b e5		 mov	 esp, ebp
  0002f	5d		 pop	 ebp
  00030	c2 0c 00	 ret	 12			; 0000000cH
$LN5@Insert_nod:

; 677  :             _Newnode->_Color = _Black; // the root is black
; 678  :             return _Newnode;
; 679  :         }
; 680  : 
; 681  :         _STL_INTERNAL_CHECK(_Loc._Child != _Tree_child::_Unused);
; 682  :         if (_Loc._Child == _Tree_child::_Right) { // add to right of _Loc._Parent

  00033	83 7d 0c 00	 cmp	 DWORD PTR __Loc$[ebp+4], 0
  00037	75 0d		 jne	 SHORT $LN6@Insert_nod

; 683  :             _STL_INTERNAL_CHECK(_Loc._Parent->_Right->_Isnil);
; 684  :             _Loc._Parent->_Right = _Newnode;

  00039	89 7a 08	 mov	 DWORD PTR [edx+8], edi

; 685  :             if (_Loc._Parent == _Head->_Right) { // remember rightmost node

  0003c	3b 50 08	 cmp	 edx, DWORD PTR [eax+8]
  0003f	75 0d		 jne	 SHORT $LN9@Insert_nod

; 686  :                 _Head->_Right = _Newnode;

  00041	89 78 08	 mov	 DWORD PTR [eax+8], edi

; 687  :             }
; 688  :         } else { // add to left of _Loc._Parent

  00044	eb 08		 jmp	 SHORT $LN9@Insert_nod
$LN6@Insert_nod:

; 689  :             _STL_INTERNAL_CHECK(_Loc._Parent->_Left->_Isnil);
; 690  :             _Loc._Parent->_Left = _Newnode;

  00046	89 3a		 mov	 DWORD PTR [edx], edi

; 691  :             if (_Loc._Parent == _Head->_Left) { // remember leftmost node

  00048	3b 10		 cmp	 edx, DWORD PTR [eax]
  0004a	75 02		 jne	 SHORT $LN9@Insert_nod

; 692  :                 _Head->_Left = _Newnode;

  0004c	89 38		 mov	 DWORD PTR [eax], edi
$LN9@Insert_nod:

; 693  :             }
; 694  :         }
; 695  : 
; 696  :         for (_Nodeptr _Pnode = _Newnode; _Pnode->_Parent->_Color == _Red;) {

  0004e	8b 4f 04	 mov	 ecx, DWORD PTR [edi+4]
  00051	8b c7		 mov	 eax, edi
  00053	80 79 0c 00	 cmp	 BYTE PTR [ecx+12], 0
  00057	0f 85 7d 01 00
	00		 jne	 $LN3@Insert_nod
  0005d	56		 push	 esi
  0005e	66 90		 npad	 2
$LL4@Insert_nod:

; 697  :             if (_Pnode->_Parent == _Pnode->_Parent->_Parent->_Left) { // fixup red-red in left subtree

  00060	8b 50 04	 mov	 edx, DWORD PTR [eax+4]
  00063	8b 72 04	 mov	 esi, DWORD PTR [edx+4]
  00066	8b 0e		 mov	 ecx, DWORD PTR [esi]
  00068	3b d1		 cmp	 edx, ecx
  0006a	0f 85 aa 00 00
	00		 jne	 $LN10@Insert_nod

; 698  :                 const auto _Parent_sibling = _Pnode->_Parent->_Parent->_Right;

  00070	8b 4e 08	 mov	 ecx, DWORD PTR [esi+8]

; 699  :                 if (_Parent_sibling->_Color == _Red) { // parent's sibling has two red children, blacken both

  00073	80 79 0c 00	 cmp	 BYTE PTR [ecx+12], 0
  00077	0f 84 a3 00 00
	00		 je	 $LN82@Insert_nod

; 700  :                     _Pnode->_Parent->_Color          = _Black;
; 701  :                     _Parent_sibling->_Color          = _Black;
; 702  :                     _Pnode->_Parent->_Parent->_Color = _Red;
; 703  :                     _Pnode                           = _Pnode->_Parent->_Parent;
; 704  :                 } else { // parent's sibling has red and black children
; 705  :                     if (_Pnode == _Pnode->_Parent->_Right) { // rotate right child to left

  0007d	8b 72 08	 mov	 esi, DWORD PTR [edx+8]
  00080	3b c6		 cmp	 eax, esi
  00082	75 37		 jne	 SHORT $LN57@Insert_nod

; 485  :         _Wherenode->_Right = _Pnode->_Left;

  00084	8b 0e		 mov	 ecx, DWORD PTR [esi]

; 706  :                         _Pnode = _Pnode->_Parent;

  00086	8b c2		 mov	 eax, edx

; 485  :         _Wherenode->_Right = _Pnode->_Left;

  00088	89 4a 08	 mov	 DWORD PTR [edx+8], ecx

; 486  : 
; 487  :         if (!_Pnode->_Left->_Isnil) {

  0008b	8b 0e		 mov	 ecx, DWORD PTR [esi]
  0008d	80 79 0d 00	 cmp	 BYTE PTR [ecx+13], 0
  00091	75 03		 jne	 SHORT $LN21@Insert_nod

; 488  :             _Pnode->_Left->_Parent = _Wherenode;

  00093	89 41 04	 mov	 DWORD PTR [ecx+4], eax
$LN21@Insert_nod:

; 489  :         }
; 490  : 
; 491  :         _Pnode->_Parent = _Wherenode->_Parent;

  00096	8b 4a 04	 mov	 ecx, DWORD PTR [edx+4]
  00099	89 4e 04	 mov	 DWORD PTR [esi+4], ecx

; 492  : 
; 493  :         if (_Wherenode == _Myhead->_Parent) {

  0009c	8b 0b		 mov	 ecx, DWORD PTR [ebx]
  0009e	3b 41 04	 cmp	 eax, DWORD PTR [ecx+4]
  000a1	75 05		 jne	 SHORT $LN22@Insert_nod

; 494  :             _Myhead->_Parent = _Pnode;

  000a3	89 71 04	 mov	 DWORD PTR [ecx+4], esi
  000a6	eb 0e		 jmp	 SHORT $LN25@Insert_nod
$LN22@Insert_nod:

; 495  :         } else if (_Wherenode == _Wherenode->_Parent->_Left) {

  000a8	8b 4a 04	 mov	 ecx, DWORD PTR [edx+4]
  000ab	3b 01		 cmp	 eax, DWORD PTR [ecx]
  000ad	75 04		 jne	 SHORT $LN24@Insert_nod

; 496  :             _Wherenode->_Parent->_Left = _Pnode;

  000af	89 31		 mov	 DWORD PTR [ecx], esi

; 497  :         } else {

  000b1	eb 03		 jmp	 SHORT $LN25@Insert_nod
$LN24@Insert_nod:

; 498  :             _Wherenode->_Parent->_Right = _Pnode;

  000b3	89 71 08	 mov	 DWORD PTR [ecx+8], esi
$LN25@Insert_nod:

; 499  :         }
; 500  : 
; 501  :         _Pnode->_Left       = _Wherenode;

  000b6	89 06		 mov	 DWORD PTR [esi], eax

; 502  :         _Wherenode->_Parent = _Pnode;

  000b8	89 70 04	 mov	 DWORD PTR [eax+4], esi
$LN57@Insert_nod:

; 707  :                         _Lrotate(_Pnode);
; 708  :                     }
; 709  : 
; 710  :                     _Pnode->_Parent->_Color          = _Black; // propagate red up

  000bb	8b 48 04	 mov	 ecx, DWORD PTR [eax+4]
  000be	c6 41 0c 01	 mov	 BYTE PTR [ecx+12], 1

; 711  :                     _Pnode->_Parent->_Parent->_Color = _Red;

  000c2	8b 48 04	 mov	 ecx, DWORD PTR [eax+4]
  000c5	8b 49 04	 mov	 ecx, DWORD PTR [ecx+4]
  000c8	c6 41 0c 00	 mov	 BYTE PTR [ecx+12], 0

; 712  :                     _Rrotate(_Pnode->_Parent->_Parent);

  000cc	8b 48 04	 mov	 ecx, DWORD PTR [eax+4]
  000cf	8b 51 04	 mov	 edx, DWORD PTR [ecx+4]

; 506  :         _Nodeptr _Pnode   = _Wherenode->_Left;

  000d2	8b 32		 mov	 esi, DWORD PTR [edx]

; 507  :         _Wherenode->_Left = _Pnode->_Right;

  000d4	8b 4e 08	 mov	 ecx, DWORD PTR [esi+8]
  000d7	89 0a		 mov	 DWORD PTR [edx], ecx

; 508  : 
; 509  :         if (!_Pnode->_Right->_Isnil) {

  000d9	8b 4e 08	 mov	 ecx, DWORD PTR [esi+8]
  000dc	80 79 0d 00	 cmp	 BYTE PTR [ecx+13], 0
  000e0	75 03		 jne	 SHORT $LN29@Insert_nod

; 510  :             _Pnode->_Right->_Parent = _Wherenode;

  000e2	89 51 04	 mov	 DWORD PTR [ecx+4], edx
$LN29@Insert_nod:

; 511  :         }
; 512  : 
; 513  :         _Pnode->_Parent = _Wherenode->_Parent;

  000e5	8b 4a 04	 mov	 ecx, DWORD PTR [edx+4]
  000e8	89 4e 04	 mov	 DWORD PTR [esi+4], ecx

; 514  : 
; 515  :         if (_Wherenode == _Myhead->_Parent) {

  000eb	8b 0b		 mov	 ecx, DWORD PTR [ebx]
  000ed	3b 51 04	 cmp	 edx, DWORD PTR [ecx+4]
  000f0	75 0b		 jne	 SHORT $LN30@Insert_nod

; 516  :             _Myhead->_Parent = _Pnode;

  000f2	89 71 04	 mov	 DWORD PTR [ecx+4], esi

; 521  :         }
; 522  : 
; 523  :         _Pnode->_Right      = _Wherenode;

  000f5	89 56 08	 mov	 DWORD PTR [esi+8], edx

; 713  :                 }
; 714  :             } else { // fixup red-red in right subtree

  000f8	e9 cc 00 00 00	 jmp	 $LN81@Insert_nod
$LN30@Insert_nod:

; 517  :         } else if (_Wherenode == _Wherenode->_Parent->_Right) {

  000fd	8b 4a 04	 mov	 ecx, DWORD PTR [edx+4]
  00100	3b 51 08	 cmp	 edx, DWORD PTR [ecx+8]
  00103	75 0b		 jne	 SHORT $LN32@Insert_nod

; 518  :             _Wherenode->_Parent->_Right = _Pnode;

  00105	89 71 08	 mov	 DWORD PTR [ecx+8], esi

; 521  :         }
; 522  : 
; 523  :         _Pnode->_Right      = _Wherenode;

  00108	89 56 08	 mov	 DWORD PTR [esi+8], edx

; 713  :                 }
; 714  :             } else { // fixup red-red in right subtree

  0010b	e9 b9 00 00 00	 jmp	 $LN81@Insert_nod
$LN32@Insert_nod:

; 520  :             _Wherenode->_Parent->_Left = _Pnode;

  00110	89 31		 mov	 DWORD PTR [ecx], esi

; 521  :         }
; 522  : 
; 523  :         _Pnode->_Right      = _Wherenode;

  00112	89 56 08	 mov	 DWORD PTR [esi+8], edx

; 713  :                 }
; 714  :             } else { // fixup red-red in right subtree

  00115	e9 af 00 00 00	 jmp	 $LN81@Insert_nod
$LN10@Insert_nod:

; 715  :                 const auto _Parent_sibling = _Pnode->_Parent->_Parent->_Left;
; 716  :                 if (_Parent_sibling->_Color == _Red) { // parent's sibling has two red children, blacken both

  0011a	80 79 0c 00	 cmp	 BYTE PTR [ecx+12], 0
  0011e	75 1d		 jne	 SHORT $LN15@Insert_nod
$LN82@Insert_nod:

; 693  :             }
; 694  :         }
; 695  : 
; 696  :         for (_Nodeptr _Pnode = _Newnode; _Pnode->_Parent->_Color == _Red;) {

  00120	c6 42 0c 01	 mov	 BYTE PTR [edx+12], 1
  00124	c6 41 0c 01	 mov	 BYTE PTR [ecx+12], 1
  00128	8b 48 04	 mov	 ecx, DWORD PTR [eax+4]
  0012b	8b 49 04	 mov	 ecx, DWORD PTR [ecx+4]
  0012e	c6 41 0c 00	 mov	 BYTE PTR [ecx+12], 0
  00132	8b 48 04	 mov	 ecx, DWORD PTR [eax+4]
  00135	8b 41 04	 mov	 eax, DWORD PTR [ecx+4]
  00138	e9 8f 00 00 00	 jmp	 $LN2@Insert_nod
$LN15@Insert_nod:

; 717  :                     _Pnode->_Parent->_Color          = _Black;
; 718  :                     _Parent_sibling->_Color          = _Black;
; 719  :                     _Pnode->_Parent->_Parent->_Color = _Red;
; 720  :                     _Pnode                           = _Pnode->_Parent->_Parent;
; 721  :                 } else { // parent's sibling has red and black children
; 722  :                     if (_Pnode == _Pnode->_Parent->_Left) { // rotate left child to right

  0013d	8b 32		 mov	 esi, DWORD PTR [edx]
  0013f	3b c6		 cmp	 eax, esi
  00141	75 3a		 jne	 SHORT $LN42@Insert_nod

; 507  :         _Wherenode->_Left = _Pnode->_Right;

  00143	8b 4e 08	 mov	 ecx, DWORD PTR [esi+8]

; 723  :                         _Pnode = _Pnode->_Parent;

  00146	8b c2		 mov	 eax, edx

; 507  :         _Wherenode->_Left = _Pnode->_Right;

  00148	89 08		 mov	 DWORD PTR [eax], ecx

; 508  : 
; 509  :         if (!_Pnode->_Right->_Isnil) {

  0014a	8b 4e 08	 mov	 ecx, DWORD PTR [esi+8]
  0014d	80 79 0d 00	 cmp	 BYTE PTR [ecx+13], 0
  00151	75 03		 jne	 SHORT $LN37@Insert_nod

; 510  :             _Pnode->_Right->_Parent = _Wherenode;

  00153	89 41 04	 mov	 DWORD PTR [ecx+4], eax
$LN37@Insert_nod:

; 511  :         }
; 512  : 
; 513  :         _Pnode->_Parent = _Wherenode->_Parent;

  00156	8b 4a 04	 mov	 ecx, DWORD PTR [edx+4]
  00159	89 4e 04	 mov	 DWORD PTR [esi+4], ecx

; 514  : 
; 515  :         if (_Wherenode == _Myhead->_Parent) {

  0015c	8b 0b		 mov	 ecx, DWORD PTR [ebx]
  0015e	3b 41 04	 cmp	 eax, DWORD PTR [ecx+4]
  00161	75 05		 jne	 SHORT $LN38@Insert_nod

; 516  :             _Myhead->_Parent = _Pnode;

  00163	89 71 04	 mov	 DWORD PTR [ecx+4], esi
  00166	eb 0f		 jmp	 SHORT $LN41@Insert_nod
$LN38@Insert_nod:

; 517  :         } else if (_Wherenode == _Wherenode->_Parent->_Right) {

  00168	8b 4a 04	 mov	 ecx, DWORD PTR [edx+4]
  0016b	3b 41 08	 cmp	 eax, DWORD PTR [ecx+8]
  0016e	75 05		 jne	 SHORT $LN40@Insert_nod

; 518  :             _Wherenode->_Parent->_Right = _Pnode;

  00170	89 71 08	 mov	 DWORD PTR [ecx+8], esi

; 519  :         } else {

  00173	eb 02		 jmp	 SHORT $LN41@Insert_nod
$LN40@Insert_nod:

; 520  :             _Wherenode->_Parent->_Left = _Pnode;

  00175	89 31		 mov	 DWORD PTR [ecx], esi
$LN41@Insert_nod:

; 521  :         }
; 522  : 
; 523  :         _Pnode->_Right      = _Wherenode;

  00177	89 46 08	 mov	 DWORD PTR [esi+8], eax

; 524  :         _Wherenode->_Parent = _Pnode;

  0017a	89 70 04	 mov	 DWORD PTR [eax+4], esi
$LN42@Insert_nod:

; 724  :                         _Rrotate(_Pnode);
; 725  :                     }
; 726  : 
; 727  :                     _Pnode->_Parent->_Color          = _Black; // propagate red up

  0017d	8b 48 04	 mov	 ecx, DWORD PTR [eax+4]
  00180	c6 41 0c 01	 mov	 BYTE PTR [ecx+12], 1

; 728  :                     _Pnode->_Parent->_Parent->_Color = _Red;

  00184	8b 48 04	 mov	 ecx, DWORD PTR [eax+4]
  00187	8b 49 04	 mov	 ecx, DWORD PTR [ecx+4]
  0018a	c6 41 0c 00	 mov	 BYTE PTR [ecx+12], 0

; 729  :                     _Lrotate(_Pnode->_Parent->_Parent);

  0018e	8b 48 04	 mov	 ecx, DWORD PTR [eax+4]
  00191	8b 51 04	 mov	 edx, DWORD PTR [ecx+4]

; 484  :         _Nodeptr _Pnode    = _Wherenode->_Right;

  00194	8b 72 08	 mov	 esi, DWORD PTR [edx+8]

; 485  :         _Wherenode->_Right = _Pnode->_Left;

  00197	8b 0e		 mov	 ecx, DWORD PTR [esi]
  00199	89 4a 08	 mov	 DWORD PTR [edx+8], ecx

; 486  : 
; 487  :         if (!_Pnode->_Left->_Isnil) {

  0019c	8b 0e		 mov	 ecx, DWORD PTR [esi]
  0019e	80 79 0d 00	 cmp	 BYTE PTR [ecx+13], 0
  001a2	75 03		 jne	 SHORT $LN45@Insert_nod

; 488  :             _Pnode->_Left->_Parent = _Wherenode;

  001a4	89 51 04	 mov	 DWORD PTR [ecx+4], edx
$LN45@Insert_nod:

; 489  :         }
; 490  : 
; 491  :         _Pnode->_Parent = _Wherenode->_Parent;

  001a7	8b 4a 04	 mov	 ecx, DWORD PTR [edx+4]
  001aa	89 4e 04	 mov	 DWORD PTR [esi+4], ecx

; 492  : 
; 493  :         if (_Wherenode == _Myhead->_Parent) {

  001ad	8b 0b		 mov	 ecx, DWORD PTR [ebx]
  001af	3b 51 04	 cmp	 edx, DWORD PTR [ecx+4]
  001b2	75 05		 jne	 SHORT $LN46@Insert_nod

; 494  :             _Myhead->_Parent = _Pnode;

  001b4	89 71 04	 mov	 DWORD PTR [ecx+4], esi
  001b7	eb 0e		 jmp	 SHORT $LN49@Insert_nod
$LN46@Insert_nod:

; 495  :         } else if (_Wherenode == _Wherenode->_Parent->_Left) {

  001b9	8b 4a 04	 mov	 ecx, DWORD PTR [edx+4]
  001bc	3b 11		 cmp	 edx, DWORD PTR [ecx]
  001be	75 04		 jne	 SHORT $LN48@Insert_nod

; 496  :             _Wherenode->_Parent->_Left = _Pnode;

  001c0	89 31		 mov	 DWORD PTR [ecx], esi

; 497  :         } else {

  001c2	eb 03		 jmp	 SHORT $LN49@Insert_nod
$LN48@Insert_nod:

; 498  :             _Wherenode->_Parent->_Right = _Pnode;

  001c4	89 71 08	 mov	 DWORD PTR [ecx+8], esi
$LN49@Insert_nod:

; 499  :         }
; 500  : 
; 501  :         _Pnode->_Left       = _Wherenode;

  001c7	89 16		 mov	 DWORD PTR [esi], edx
$LN81@Insert_nod:

; 693  :             }
; 694  :         }
; 695  : 
; 696  :         for (_Nodeptr _Pnode = _Newnode; _Pnode->_Parent->_Color == _Red;) {

  001c9	89 72 04	 mov	 DWORD PTR [edx+4], esi
$LN2@Insert_nod:
  001cc	8b 48 04	 mov	 ecx, DWORD PTR [eax+4]
  001cf	80 79 0c 00	 cmp	 BYTE PTR [ecx+12], 0
  001d3	0f 84 87 fe ff
	ff		 je	 $LL4@Insert_nod
  001d9	5e		 pop	 esi
$LN3@Insert_nod:

; 730  :                 }
; 731  :             }
; 732  :         }
; 733  : 
; 734  :         _Head->_Parent->_Color = _Black; // root is always black

  001da	8b 45 fc	 mov	 eax, DWORD PTR __Head$1$[ebp]
  001dd	8b 40 04	 mov	 eax, DWORD PTR [eax+4]
  001e0	c6 40 0c 01	 mov	 BYTE PTR [eax+12], 1

; 735  :         return _Newnode;
; 736  :     }

  001e4	8b c7		 mov	 eax, edi
  001e6	5f		 pop	 edi
  001e7	5b		 pop	 ebx
  001e8	8b e5		 mov	 esp, ebp
  001ea	5d		 pop	 ebp
  001eb	c2 0c 00	 ret	 12			; 0000000cH
?_Insert_node@?$_Tree_val@U?$_Tree_simple_types@U?$pair@$$CBKPAVCHousing@@@std@@@std@@@std@@QAEPAU?$_Tree_node@U?$pair@$$CBKPAVCHousing@@@std@@PAX@2@U?$_Tree_id@PAU?$_Tree_node@U?$pair@$$CBKPAVCHousing@@@std@@PAX@std@@@2@QAU32@@Z ENDP ; std::_Tree_val<std::_Tree_simple_types<std::pair<unsigned long const ,CHousing *> > >::_Insert_node
_TEXT	ENDS
; Function compile flags: /Ogtp
; File C:\Program Files\Microsoft Visual Studio\2022\Professional\VC\Tools\MSVC\14.44.35207\include\xtree
; File C:\Program Files\Microsoft Visual Studio\2022\Professional\VC\Tools\MSVC\14.44.35207\include\utility
; File C:\Program Files\Microsoft Visual Studio\2022\Professional\VC\Tools\MSVC\14.44.35207\include\xtree
;	COMDAT ?_Extract@?$_Tree_val@U?$_Tree_simple_types@U?$pair@$$CBKPAVCHousing@@@std@@@std@@@std@@QAEPAU?$_Tree_node@U?$pair@$$CBKPAVCHousing@@@std@@PAX@2@V?$_Tree_unchecked_const_iterator@V?$_Tree_val@U?$_Tree_simple_types@U?$pair@$$CBKPAVCHousing@@@std@@@std@@@std@@U_Iterator_base0@2@@2@@Z
_TEXT	SEGMENT
tv1039 = -16						; size = 4
tv1073 = -12						; size = 4
tv1093 = -12						; size = 4
$T1 = -12						; size = 4
__Erasednode$1$ = -8					; size = 4
_this$1$ = -4						; size = 4
__Where$ = 8						; size = 4
?_Extract@?$_Tree_val@U?$_Tree_simple_types@U?$pair@$$CBKPAVCHousing@@@std@@@std@@@std@@QAEPAU?$_Tree_node@U?$pair@$$CBKPAVCHousing@@@std@@PAX@2@V?$_Tree_unchecked_const_iterator@V?$_Tree_val@U?$_Tree_simple_types@U?$pair@$$CBKPAVCHousing@@@std@@@std@@@std@@U_Iterator_base0@2@@2@@Z PROC ; std::_Tree_val<std::_Tree_simple_types<std::pair<unsigned long const ,CHousing *> > >::_Extract, COMDAT
; _this$ = ecx

; 527  :     _Nodeptr _Extract(_Unchecked_const_iterator _Where) noexcept {

  00000	55		 push	 ebp
  00001	8b ec		 mov	 ebp, esp
  00003	83 ec 10	 sub	 esp, 16			; 00000010H

; 528  :         _Nodeptr _Erasednode = _Where._Ptr; // node to erase

  00006	8b 45 08	 mov	 eax, DWORD PTR __Where$[ebp]
  00009	53		 push	 ebx
  0000a	56		 push	 esi
  0000b	8b d9		 mov	 ebx, ecx
  0000d	89 45 f8	 mov	 DWORD PTR __Erasednode$1$[ebp], eax
  00010	57		 push	 edi

; 529  :         ++_Where; // save successor iterator for return

  00011	8d 4d 08	 lea	 ecx, DWORD PTR __Where$[ebp]
  00014	89 5d fc	 mov	 DWORD PTR _this$1$[ebp], ebx
  00017	e8 00 00 00 00	 call	 ??E?$_Tree_unchecked_const_iterator@V?$_Tree_val@U?$_Tree_simple_types@U?$pair@$$CBKPAVCHousing@@@std@@@std@@@std@@U_Iterator_base0@2@@std@@QAEAAV01@XZ ; std::_Tree_unchecked_const_iterator<std::_Tree_val<std::_Tree_simple_types<std::pair<unsigned long const ,CHousing *> > >,std::_Iterator_base0>::operator++

; 530  : 
; 531  :         _Nodeptr _Fixnode; // the node to recolor as needed
; 532  :         _Nodeptr _Fixnodeparent; // parent of _Fixnode (which may be nil)
; 533  :         _Nodeptr _Pnode = _Erasednode;
; 534  : 
; 535  :         if (_Pnode->_Left->_Isnil) {

  0001c	8b 4d f8	 mov	 ecx, DWORD PTR __Erasednode$1$[ebp]
  0001f	8b 01		 mov	 eax, DWORD PTR [ecx]
  00021	8b 79 08	 mov	 edi, DWORD PTR [ecx+8]
  00024	80 78 0d 00	 cmp	 BYTE PTR [eax+13], 0
  00028	75 18		 jne	 SHORT $LN94@Extract

; 536  :             _Fixnode = _Pnode->_Right; // stitch up right subtree
; 537  :         } else if (_Pnode->_Right->_Isnil) {

  0002a	80 7f 0d 00	 cmp	 BYTE PTR [edi+13], 0
  0002e	74 04		 je	 SHORT $LN7@Extract

; 538  :             _Fixnode = _Pnode->_Left; // stitch up left subtree

  00030	8b f8		 mov	 edi, eax

; 539  :         } else { // two subtrees, must lift successor node to replace erased

  00032	eb 0e		 jmp	 SHORT $LN94@Extract
$LN7@Extract:

; 540  :             _Pnode   = _Where._Ptr; // _Pnode is successor node

  00034	8b 55 08	 mov	 edx, DWORD PTR __Where$[ebp]

; 541  :             _Fixnode = _Pnode->_Right; // _Fixnode is only subtree

  00037	8b 7a 08	 mov	 edi, DWORD PTR [edx+8]
  0003a	3b d1		 cmp	 edx, ecx

; 542  :         }
; 543  : 
; 544  :         if (_Pnode == _Erasednode) { // at most one subtree, relink it

  0003c	0f 85 91 00 00
	00		 jne	 $LN9@Extract
$LN94@Extract:

; 545  :             _Fixnodeparent = _Erasednode->_Parent;
; 546  :             if (!_Fixnode->_Isnil) {

  00042	80 7f 0d 00	 cmp	 BYTE PTR [edi+13], 0
  00046	8b 71 04	 mov	 esi, DWORD PTR [ecx+4]
  00049	75 03		 jne	 SHORT $LN11@Extract

; 547  :                 _Fixnode->_Parent = _Fixnodeparent; // link up

  0004b	89 77 04	 mov	 DWORD PTR [edi+4], esi
$LN11@Extract:

; 548  :             }
; 549  : 
; 550  :             if (_Myhead->_Parent == _Erasednode) {

  0004e	8b 03		 mov	 eax, DWORD PTR [ebx]
  00050	39 48 04	 cmp	 DWORD PTR [eax+4], ecx
  00053	75 05		 jne	 SHORT $LN12@Extract

; 551  :                 _Myhead->_Parent = _Fixnode; // link down from root

  00055	89 78 04	 mov	 DWORD PTR [eax+4], edi
  00058	eb 0b		 jmp	 SHORT $LN15@Extract
$LN12@Extract:

; 552  :             } else if (_Fixnodeparent->_Left == _Erasednode) {

  0005a	39 0e		 cmp	 DWORD PTR [esi], ecx
  0005c	75 04		 jne	 SHORT $LN14@Extract

; 553  :                 _Fixnodeparent->_Left = _Fixnode; // link down to left

  0005e	89 3e		 mov	 DWORD PTR [esi], edi

; 554  :             } else {

  00060	eb 03		 jmp	 SHORT $LN15@Extract
$LN14@Extract:

; 555  :                 _Fixnodeparent->_Right = _Fixnode; // link down to right

  00062	89 7e 08	 mov	 DWORD PTR [esi+8], edi
$LN15@Extract:

; 556  :             }
; 557  : 
; 558  :             if (_Myhead->_Left == _Erasednode) {

  00065	8b 03		 mov	 eax, DWORD PTR [ebx]
  00067	39 08		 cmp	 DWORD PTR [eax], ecx
  00069	75 28		 jne	 SHORT $LN16@Extract

; 559  :                 _Myhead->_Left = _Fixnode->_Isnil ? _Fixnodeparent // smallest is parent of erased node

  0006b	80 7f 0d 00	 cmp	 BYTE PTR [edi+13], 0
  0006f	74 04		 je	 SHORT $LN42@Extract
  00071	8b d6		 mov	 edx, esi
  00073	eb 1c		 jmp	 SHORT $LN43@Extract
$LN42@Extract:

; 476  :         while (!_Pnode->_Left->_Isnil) {

  00075	8b 0f		 mov	 ecx, DWORD PTR [edi]

; 559  :                 _Myhead->_Left = _Fixnode->_Isnil ? _Fixnodeparent // smallest is parent of erased node

  00077	8b d7		 mov	 edx, edi

; 476  :         while (!_Pnode->_Left->_Isnil) {

  00079	80 79 0d 00	 cmp	 BYTE PTR [ecx+13], 0
  0007d	75 0f		 jne	 SHORT $LN49@Extract
  0007f	90		 npad	 1
$LL48@Extract:
  00080	8b 01		 mov	 eax, DWORD PTR [ecx]

; 477  :             _Pnode = _Pnode->_Left;

  00082	8b d1		 mov	 edx, ecx
  00084	8b c8		 mov	 ecx, eax
  00086	80 78 0d 00	 cmp	 BYTE PTR [eax+13], 0
  0008a	74 f4		 je	 SHORT $LL48@Extract
  0008c	8b 03		 mov	 eax, DWORD PTR [ebx]
$LN49@Extract:
  0008e	8b 4d f8	 mov	 ecx, DWORD PTR __Erasednode$1$[ebp]
$LN43@Extract:

; 559  :                 _Myhead->_Left = _Fixnode->_Isnil ? _Fixnodeparent // smallest is parent of erased node

  00091	89 10		 mov	 DWORD PTR [eax], edx
$LN16@Extract:

; 560  :                                                   : _Min(_Fixnode); // smallest in relinked subtree
; 561  :             }
; 562  : 
; 563  :             if (_Myhead->_Right == _Erasednode) {

  00093	8b 13		 mov	 edx, DWORD PTR [ebx]
  00095	39 4a 08	 cmp	 DWORD PTR [edx+8], ecx
  00098	75 34		 jne	 SHORT $LN17@Extract

; 564  :                 _Myhead->_Right = _Fixnode->_Isnil ? _Fixnodeparent // largest is parent of erased node

  0009a	80 7f 0d 00	 cmp	 BYTE PTR [edi+13], 0
  0009e	74 0d		 je	 SHORT $LN44@Extract

; 565  :                                                    : _Max(_Fixnode); // largest in relinked subtree
; 566  :             }
; 567  :         } else { // erased has two subtrees, _Pnode is successor to erased

  000a0	8b 45 f8	 mov	 eax, DWORD PTR __Erasednode$1$[ebp]
  000a3	8b ce		 mov	 ecx, esi
  000a5	89 4a 08	 mov	 DWORD PTR [edx+8], ecx
  000a8	e9 94 00 00 00	 jmp	 $LN58@Extract
$LN44@Extract:

; 468  :         while (!_Pnode->_Right->_Isnil) {

  000ad	8b 47 08	 mov	 eax, DWORD PTR [edi+8]

; 564  :                 _Myhead->_Right = _Fixnode->_Isnil ? _Fixnodeparent // largest is parent of erased node

  000b0	8b cf		 mov	 ecx, edi

; 468  :         while (!_Pnode->_Right->_Isnil) {

  000b2	80 78 0d 00	 cmp	 BYTE PTR [eax+13], 0
  000b6	75 13		 jne	 SHORT $LN54@Extract
  000b8	0f 1f 84 00 00
	00 00 00	 npad	 8
$LL53@Extract:

; 469  :             _Pnode = _Pnode->_Right;

  000c0	8b c8		 mov	 ecx, eax
  000c2	8b 41 08	 mov	 eax, DWORD PTR [ecx+8]
  000c5	80 78 0d 00	 cmp	 BYTE PTR [eax+13], 0
  000c9	74 f5		 je	 SHORT $LL53@Extract
$LN54@Extract:

; 564  :                 _Myhead->_Right = _Fixnode->_Isnil ? _Fixnodeparent // largest is parent of erased node

  000cb	89 4a 08	 mov	 DWORD PTR [edx+8], ecx
$LN17@Extract:

; 565  :                                                    : _Max(_Fixnode); // largest in relinked subtree
; 566  :             }
; 567  :         } else { // erased has two subtrees, _Pnode is successor to erased

  000ce	8b 45 f8	 mov	 eax, DWORD PTR __Erasednode$1$[ebp]
  000d1	eb 6e		 jmp	 SHORT $LN58@Extract
$LN9@Extract:

; 568  :             _Erasednode->_Left->_Parent = _Pnode; // link left up

  000d3	89 50 04	 mov	 DWORD PTR [eax+4], edx

; 569  :             _Pnode->_Left               = _Erasednode->_Left; // link successor down

  000d6	8b 01		 mov	 eax, DWORD PTR [ecx]
  000d8	89 02		 mov	 DWORD PTR [edx], eax

; 570  : 
; 571  :             if (_Pnode == _Erasednode->_Right) {

  000da	8d 42 04	 lea	 eax, DWORD PTR [edx+4]
  000dd	89 45 f4	 mov	 DWORD PTR $T1[ebp], eax
  000e0	3b 51 08	 cmp	 edx, DWORD PTR [ecx+8]
  000e3	75 04		 jne	 SHORT $LN18@Extract

; 572  :                 _Fixnodeparent = _Pnode; // successor is next to erased

  000e5	8b f2		 mov	 esi, edx

; 573  :             } else { // successor further down, link in place of erased

  000e7	eb 1f		 jmp	 SHORT $LN19@Extract
$LN18@Extract:

; 574  :                 _Fixnodeparent = _Pnode->_Parent; // parent is successor's
; 575  :                 if (!_Fixnode->_Isnil) {

  000e9	80 7f 0d 00	 cmp	 BYTE PTR [edi+13], 0
  000ed	8b 30		 mov	 esi, DWORD PTR [eax]
  000ef	75 03		 jne	 SHORT $LN20@Extract

; 576  :                     _Fixnode->_Parent = _Fixnodeparent; // link fix up

  000f1	89 77 04	 mov	 DWORD PTR [edi+4], esi
$LN20@Extract:

; 577  :                 }
; 578  : 
; 579  :                 _Fixnodeparent->_Left        = _Fixnode; // link fix down

  000f4	89 3e		 mov	 DWORD PTR [esi], edi

; 580  :                 _Pnode->_Right               = _Erasednode->_Right; // link next down

  000f6	8b 41 08	 mov	 eax, DWORD PTR [ecx+8]
  000f9	89 42 08	 mov	 DWORD PTR [edx+8], eax

; 581  :                 _Erasednode->_Right->_Parent = _Pnode; // right up

  000fc	8b 41 08	 mov	 eax, DWORD PTR [ecx+8]
  000ff	89 50 04	 mov	 DWORD PTR [eax+4], edx
  00102	8d 42 04	 lea	 eax, DWORD PTR [edx+4]
  00105	89 45 f4	 mov	 DWORD PTR $T1[ebp], eax
$LN19@Extract:

; 582  :             }
; 583  : 
; 584  :             if (_Myhead->_Parent == _Erasednode) {

  00108	8b 03		 mov	 eax, DWORD PTR [ebx]
  0010a	39 48 04	 cmp	 DWORD PTR [eax+4], ecx
  0010d	75 05		 jne	 SHORT $LN21@Extract

; 585  :                 _Myhead->_Parent = _Pnode; // link down from root

  0010f	89 50 04	 mov	 DWORD PTR [eax+4], edx
  00112	eb 0e		 jmp	 SHORT $LN141@Extract
$LN21@Extract:

; 586  :             } else if (_Erasednode->_Parent->_Left == _Erasednode) {

  00114	8b 41 04	 mov	 eax, DWORD PTR [ecx+4]
  00117	39 08		 cmp	 DWORD PTR [eax], ecx
  00119	75 04		 jne	 SHORT $LN23@Extract

; 587  :                 _Erasednode->_Parent->_Left = _Pnode; // link down to left

  0011b	89 10		 mov	 DWORD PTR [eax], edx

; 588  :             } else {

  0011d	eb 03		 jmp	 SHORT $LN141@Extract
$LN23@Extract:

; 589  :                 _Erasednode->_Parent->_Right = _Pnode; // link down to right

  0011f	89 50 08	 mov	 DWORD PTR [eax+8], edx
$LN141@Extract:

; 590  :             }
; 591  : 
; 592  :             _Pnode->_Parent = _Erasednode->_Parent; // link successor up

  00122	b8 04 00 00 00	 mov	 eax, 4
  00127	8b 04 08	 mov	 eax, DWORD PTR [eax+ecx]
  0012a	8b 4d f4	 mov	 ecx, DWORD PTR $T1[ebp]
  0012d	89 01		 mov	 DWORD PTR [ecx], eax
; File C:\Program Files\Microsoft Visual Studio\2022\Professional\VC\Tools\MSVC\14.44.35207\include\utility

; 140  :     _Left    = _STD move(_Right);

  0012f	8b 45 f8	 mov	 eax, DWORD PTR __Erasednode$1$[ebp]
  00132	8a 4a 0c	 mov	 cl, BYTE PTR [edx+12]
  00135	8a 40 0c	 mov	 al, BYTE PTR [eax+12]
  00138	88 42 0c	 mov	 BYTE PTR [edx+12], al

; 141  :     _Right   = _STD move(_Tmp);

  0013b	8b 45 f8	 mov	 eax, DWORD PTR __Erasednode$1$[ebp]
  0013e	88 48 0c	 mov	 BYTE PTR [eax+12], cl
$LN58@Extract:
; File C:\Program Files\Microsoft Visual Studio\2022\Professional\VC\Tools\MSVC\14.44.35207\include\xtree

; 596  :         if (_Erasednode->_Color == _Black) { // erasing black link, must recolor/rebalance tree

  00141	80 78 0c 01	 cmp	 BYTE PTR [eax+12], 1
  00145	0f 85 ba 01 00
	00		 jne	 $LN25@Extract

; 597  :             for (; _Fixnode != _Myhead->_Parent && _Fixnode->_Color == _Black; _Fixnodeparent = _Fixnode->_Parent) {

  0014b	8b 03		 mov	 eax, DWORD PTR [ebx]
  0014d	3b 78 04	 cmp	 edi, DWORD PTR [eax+4]
  00150	0f 84 a8 01 00
	00		 je	 $LN3@Extract
  00156	80 7f 0c 01	 cmp	 BYTE PTR [edi+12], 1
  0015a	89 75 f4	 mov	 DWORD PTR tv1093[ebp], esi
  0015d	0f 85 9b 01 00
	00		 jne	 $LN3@Extract
$LL4@Extract:

; 598  :                 if (_Fixnode == _Fixnodeparent->_Left) { // fixup left subtree

  00163	8b 0e		 mov	 ecx, DWORD PTR [esi]
  00165	3b f9		 cmp	 edi, ecx
  00167	0f 85 be 00 00
	00		 jne	 $LN26@Extract

; 599  :                     _Pnode = _Fixnodeparent->_Right;

  0016d	8b 4e 08	 mov	 ecx, DWORD PTR [esi+8]

; 600  :                     if (_Pnode->_Color == _Red) { // rotate red up from right subtree

  00170	80 79 0c 00	 cmp	 BYTE PTR [ecx+12], 0
  00174	75 54		 jne	 SHORT $LN95@Extract

; 601  :                         _Pnode->_Color         = _Black;

  00176	c6 41 0c 01	 mov	 BYTE PTR [ecx+12], 1

; 484  :         _Nodeptr _Pnode    = _Wherenode->_Right;

  0017a	8b 4e 08	 mov	 ecx, DWORD PTR [esi+8]

; 602  :                         _Fixnodeparent->_Color = _Red;

  0017d	c6 46 0c 00	 mov	 BYTE PTR [esi+12], 0

; 485  :         _Wherenode->_Right = _Pnode->_Left;

  00181	8b 01		 mov	 eax, DWORD PTR [ecx]
  00183	89 46 08	 mov	 DWORD PTR [esi+8], eax

; 486  : 
; 487  :         if (!_Pnode->_Left->_Isnil) {

  00186	8b 01		 mov	 eax, DWORD PTR [ecx]
  00188	80 78 0d 00	 cmp	 BYTE PTR [eax+13], 0
  0018c	75 03		 jne	 SHORT $LN61@Extract

; 488  :             _Pnode->_Left->_Parent = _Wherenode;

  0018e	89 70 04	 mov	 DWORD PTR [eax+4], esi
$LN61@Extract:

; 489  :         }
; 490  : 
; 491  :         _Pnode->_Parent = _Wherenode->_Parent;

  00191	8b 46 04	 mov	 eax, DWORD PTR [esi+4]
  00194	8d 56 04	 lea	 edx, DWORD PTR [esi+4]
  00197	89 41 04	 mov	 DWORD PTR [ecx+4], eax

; 492  : 
; 493  :         if (_Wherenode == _Myhead->_Parent) {

  0019a	8b 03		 mov	 eax, DWORD PTR [ebx]
  0019c	3b 70 04	 cmp	 esi, DWORD PTR [eax+4]
  0019f	75 0c		 jne	 SHORT $LN62@Extract

; 494  :             _Myhead->_Parent = _Pnode;

  001a1	89 48 04	 mov	 DWORD PTR [eax+4], ecx

; 499  :         }
; 500  : 
; 501  :         _Pnode->_Left       = _Wherenode;

  001a4	89 31		 mov	 DWORD PTR [ecx], esi

; 502  :         _Wherenode->_Parent = _Pnode;

  001a6	89 0a		 mov	 DWORD PTR [edx], ecx

; 603  :                         _Lrotate(_Fixnodeparent);
; 604  :                         _Pnode = _Fixnodeparent->_Right;

  001a8	8b 4e 08	 mov	 ecx, DWORD PTR [esi+8]
  001ab	eb 20		 jmp	 SHORT $LN87@Extract
$LN62@Extract:

; 495  :         } else if (_Wherenode == _Wherenode->_Parent->_Left) {

  001ad	8b 02		 mov	 eax, DWORD PTR [edx]
  001af	3b 30		 cmp	 esi, DWORD PTR [eax]
  001b1	75 0b		 jne	 SHORT $LN64@Extract

; 496  :             _Wherenode->_Parent->_Left = _Pnode;

  001b3	89 08		 mov	 DWORD PTR [eax], ecx

; 499  :         }
; 500  : 
; 501  :         _Pnode->_Left       = _Wherenode;

  001b5	89 31		 mov	 DWORD PTR [ecx], esi

; 502  :         _Wherenode->_Parent = _Pnode;

  001b7	89 0a		 mov	 DWORD PTR [edx], ecx

; 603  :                         _Lrotate(_Fixnodeparent);
; 604  :                         _Pnode = _Fixnodeparent->_Right;

  001b9	8b 4e 08	 mov	 ecx, DWORD PTR [esi+8]
  001bc	eb 0f		 jmp	 SHORT $LN87@Extract
$LN64@Extract:

; 498  :             _Wherenode->_Parent->_Right = _Pnode;

  001be	89 48 08	 mov	 DWORD PTR [eax+8], ecx

; 499  :         }
; 500  : 
; 501  :         _Pnode->_Left       = _Wherenode;

  001c1	89 31		 mov	 DWORD PTR [ecx], esi

; 502  :         _Wherenode->_Parent = _Pnode;

  001c3	89 0a		 mov	 DWORD PTR [edx], ecx

; 603  :                         _Lrotate(_Fixnodeparent);
; 604  :                         _Pnode = _Fixnodeparent->_Right;

  001c5	8b 4e 08	 mov	 ecx, DWORD PTR [esi+8]
  001c8	eb 03		 jmp	 SHORT $LN87@Extract
$LN95@Extract:
  001ca	8d 56 04	 lea	 edx, DWORD PTR [esi+4]
$LN87@Extract:

; 605  :                     }
; 606  : 
; 607  :                     if (_Pnode->_Isnil) {

  001cd	80 79 0d 00	 cmp	 BYTE PTR [ecx+13], 0
  001d1	0f 85 d0 00 00
	00		 jne	 $LN2@Extract

; 608  :                         _Fixnode = _Fixnodeparent; // shouldn't happen
; 609  :                     } else if (_Pnode->_Left->_Color == _Black
; 610  :                                && _Pnode->_Right->_Color == _Black) { // redden right subtree with black children

  001d7	8b 01		 mov	 eax, DWORD PTR [ecx]
  001d9	80 78 0c 01	 cmp	 BYTE PTR [eax+12], 1
  001dd	75 0d		 jne	 SHORT $LN97@Extract
  001df	8b 41 08	 mov	 eax, DWORD PTR [ecx+8]
  001e2	80 78 0c 01	 cmp	 BYTE PTR [eax+12], 1
  001e6	0f 84 b4 00 00
	00		 je	 $LN142@Extract
$LN97@Extract:

; 611  :                         _Pnode->_Color = _Red;
; 612  :                         _Fixnode       = _Fixnodeparent;
; 613  :                     } else { // must rearrange right subtree
; 614  :                         if (_Pnode->_Right->_Color == _Black) { // rotate red up from left sub-subtree

  001ec	8b 41 08	 mov	 eax, DWORD PTR [ecx+8]
  001ef	8b 5d fc	 mov	 ebx, DWORD PTR _this$1$[ebp]
  001f2	80 78 0c 01	 cmp	 BYTE PTR [eax+12], 1
  001f6	75 15		 jne	 SHORT $LN33@Extract

; 615  :                             _Pnode->_Left->_Color = _Black;

  001f8	8b 01		 mov	 eax, DWORD PTR [ecx]

; 616  :                             _Pnode->_Color        = _Red;
; 617  :                             _Rrotate(_Pnode);

  001fa	51		 push	 ecx
  001fb	c6 40 0c 01	 mov	 BYTE PTR [eax+12], 1
  001ff	c6 41 0c 00	 mov	 BYTE PTR [ecx+12], 0
  00203	8b cb		 mov	 ecx, ebx
  00205	e8 00 00 00 00	 call	 ?_Rrotate@?$_Tree_val@U?$_Tree_simple_types@U?$pair@$$CBKPAVCHousing@@@std@@@std@@@std@@QAEXPAU?$_Tree_node@U?$pair@$$CBKPAVCHousing@@@std@@PAX@2@@Z ; std::_Tree_val<std::_Tree_simple_types<std::pair<unsigned long const ,CHousing *> > >::_Rrotate

; 618  :                             _Pnode = _Fixnodeparent->_Right;

  0020a	8b 4e 08	 mov	 ecx, DWORD PTR [esi+8]
$LN33@Extract:

; 619  :                         }
; 620  : 
; 621  :                         _Pnode->_Color         = _Fixnodeparent->_Color;

  0020d	8a 46 0c	 mov	 al, BYTE PTR [esi+12]
  00210	88 41 0c	 mov	 BYTE PTR [ecx+12], al

; 622  :                         _Fixnodeparent->_Color = _Black;

  00213	c6 46 0c 01	 mov	 BYTE PTR [esi+12], 1

; 623  :                         _Pnode->_Right->_Color = _Black;

  00217	8b 41 08	 mov	 eax, DWORD PTR [ecx+8]

; 624  :                         _Lrotate(_Fixnodeparent);

  0021a	8b cb		 mov	 ecx, ebx
  0021c	56		 push	 esi
  0021d	c6 40 0c 01	 mov	 BYTE PTR [eax+12], 1
  00221	e8 00 00 00 00	 call	 ?_Lrotate@?$_Tree_val@U?$_Tree_simple_types@U?$pair@$$CBKPAVCHousing@@@std@@@std@@@std@@QAEXPAU?$_Tree_node@U?$pair@$$CBKPAVCHousing@@@std@@PAX@2@@Z ; std::_Tree_val<std::_Tree_simple_types<std::pair<unsigned long const ,CHousing *> > >::_Lrotate

; 625  :                         break; // tree now recolored/rebalanced

  00226	e9 d3 00 00 00	 jmp	 $LN3@Extract
$LN26@Extract:

; 626  :                     }
; 627  :                 } else { // fixup right subtree
; 628  :                     _Pnode = _Fixnodeparent->_Left;
; 629  :                     if (_Pnode->_Color == _Red) { // rotate red up from left subtree

  0022b	80 79 0c 00	 cmp	 BYTE PTR [ecx+12], 0
  0022f	75 55		 jne	 SHORT $LN96@Extract

; 630  :                         _Pnode->_Color         = _Black;

  00231	c6 41 0c 01	 mov	 BYTE PTR [ecx+12], 1

; 506  :         _Nodeptr _Pnode   = _Wherenode->_Left;

  00235	8b 0e		 mov	 ecx, DWORD PTR [esi]

; 631  :                         _Fixnodeparent->_Color = _Red;

  00237	c6 46 0c 00	 mov	 BYTE PTR [esi+12], 0

; 507  :         _Wherenode->_Left = _Pnode->_Right;

  0023b	8b 41 08	 mov	 eax, DWORD PTR [ecx+8]
  0023e	89 06		 mov	 DWORD PTR [esi], eax

; 508  : 
; 509  :         if (!_Pnode->_Right->_Isnil) {

  00240	8b 41 08	 mov	 eax, DWORD PTR [ecx+8]
  00243	80 78 0d 00	 cmp	 BYTE PTR [eax+13], 0
  00247	75 03		 jne	 SHORT $LN69@Extract

; 510  :             _Pnode->_Right->_Parent = _Wherenode;

  00249	89 70 04	 mov	 DWORD PTR [eax+4], esi
$LN69@Extract:

; 511  :         }
; 512  : 
; 513  :         _Pnode->_Parent = _Wherenode->_Parent;

  0024c	8b 46 04	 mov	 eax, DWORD PTR [esi+4]
  0024f	8d 56 04	 lea	 edx, DWORD PTR [esi+4]
  00252	89 41 04	 mov	 DWORD PTR [ecx+4], eax

; 514  : 
; 515  :         if (_Wherenode == _Myhead->_Parent) {

  00255	8b 03		 mov	 eax, DWORD PTR [ebx]
  00257	3b 70 04	 cmp	 esi, DWORD PTR [eax+4]
  0025a	75 0c		 jne	 SHORT $LN70@Extract

; 516  :             _Myhead->_Parent = _Pnode;

  0025c	89 48 04	 mov	 DWORD PTR [eax+4], ecx

; 521  :         }
; 522  : 
; 523  :         _Pnode->_Right      = _Wherenode;

  0025f	89 71 08	 mov	 DWORD PTR [ecx+8], esi

; 524  :         _Wherenode->_Parent = _Pnode;

  00262	89 0a		 mov	 DWORD PTR [edx], ecx

; 632  :                         _Rrotate(_Fixnodeparent);
; 633  :                         _Pnode = _Fixnodeparent->_Left;

  00264	8b 0e		 mov	 ecx, DWORD PTR [esi]
  00266	eb 21		 jmp	 SHORT $LN86@Extract
$LN70@Extract:

; 517  :         } else if (_Wherenode == _Wherenode->_Parent->_Right) {

  00268	8b 02		 mov	 eax, DWORD PTR [edx]
  0026a	3b 70 08	 cmp	 esi, DWORD PTR [eax+8]
  0026d	75 0c		 jne	 SHORT $LN72@Extract

; 518  :             _Wherenode->_Parent->_Right = _Pnode;

  0026f	89 48 08	 mov	 DWORD PTR [eax+8], ecx

; 521  :         }
; 522  : 
; 523  :         _Pnode->_Right      = _Wherenode;

  00272	89 71 08	 mov	 DWORD PTR [ecx+8], esi

; 524  :         _Wherenode->_Parent = _Pnode;

  00275	89 0a		 mov	 DWORD PTR [edx], ecx

; 632  :                         _Rrotate(_Fixnodeparent);
; 633  :                         _Pnode = _Fixnodeparent->_Left;

  00277	8b 0e		 mov	 ecx, DWORD PTR [esi]
  00279	eb 0e		 jmp	 SHORT $LN86@Extract
$LN72@Extract:

; 520  :             _Wherenode->_Parent->_Left = _Pnode;

  0027b	89 08		 mov	 DWORD PTR [eax], ecx

; 521  :         }
; 522  : 
; 523  :         _Pnode->_Right      = _Wherenode;

  0027d	89 71 08	 mov	 DWORD PTR [ecx+8], esi

; 524  :         _Wherenode->_Parent = _Pnode;

  00280	89 0a		 mov	 DWORD PTR [edx], ecx

; 632  :                         _Rrotate(_Fixnodeparent);
; 633  :                         _Pnode = _Fixnodeparent->_Left;

  00282	8b 0e		 mov	 ecx, DWORD PTR [esi]
  00284	eb 03		 jmp	 SHORT $LN86@Extract
$LN96@Extract:
  00286	8d 56 04	 lea	 edx, DWORD PTR [esi+4]
$LN86@Extract:

; 634  :                     }
; 635  : 
; 636  :                     if (_Pnode->_Isnil) {

  00289	80 79 0d 00	 cmp	 BYTE PTR [ecx+13], 0
  0028d	75 18		 jne	 SHORT $LN2@Extract

; 637  :                         _Fixnode = _Fixnodeparent; // shouldn't happen
; 638  :                     } else if (_Pnode->_Right->_Color == _Black
; 639  :                                && _Pnode->_Left->_Color == _Black) { // redden left subtree with black children

  0028f	8b 59 08	 mov	 ebx, DWORD PTR [ecx+8]
  00292	80 7b 0c 01	 cmp	 BYTE PTR [ebx+12], 1
  00296	75 2c		 jne	 SHORT $LN98@Extract
  00298	8b 01		 mov	 eax, DWORD PTR [ecx]
  0029a	80 78 0c 01	 cmp	 BYTE PTR [eax+12], 1
  0029e	75 24		 jne	 SHORT $LN98@Extract
$LN142@Extract:

; 597  :             for (; _Fixnode != _Myhead->_Parent && _Fixnode->_Color == _Black; _Fixnodeparent = _Fixnode->_Parent) {

  002a0	8b 5d fc	 mov	 ebx, DWORD PTR _this$1$[ebp]
  002a3	c6 41 0c 00	 mov	 BYTE PTR [ecx+12], 0
$LN2@Extract:
  002a7	8b 03		 mov	 eax, DWORD PTR [ebx]
  002a9	8b 4d f4	 mov	 ecx, DWORD PTR tv1093[ebp]
  002ac	8b f9		 mov	 edi, ecx
  002ae	8b 32		 mov	 esi, DWORD PTR [edx]
  002b0	3b 48 04	 cmp	 ecx, DWORD PTR [eax+4]
  002b3	74 49		 je	 SHORT $LN3@Extract
  002b5	80 7f 0c 01	 cmp	 BYTE PTR [edi+12], 1
  002b9	89 75 f4	 mov	 DWORD PTR tv1093[ebp], esi
  002bc	0f 84 a1 fe ff
	ff		 je	 $LL4@Extract
  002c2	eb 3a		 jmp	 SHORT $LN3@Extract
$LN98@Extract:

; 640  :                         _Pnode->_Color = _Red;
; 641  :                         _Fixnode       = _Fixnodeparent;
; 642  :                     } else { // must rearrange left subtree
; 643  :                         if (_Pnode->_Left->_Color == _Black) { // rotate red up from right sub-subtree

  002c4	8b 01		 mov	 eax, DWORD PTR [ecx]
  002c6	80 78 0c 01	 cmp	 BYTE PTR [eax+12], 1
  002ca	75 17		 jne	 SHORT $LN101@Extract

; 644  :                             _Pnode->_Right->_Color = _Black;

  002cc	c6 43 0c 01	 mov	 BYTE PTR [ebx+12], 1

; 645  :                             _Pnode->_Color         = _Red;
; 646  :                             _Lrotate(_Pnode);

  002d0	8b 5d fc	 mov	 ebx, DWORD PTR _this$1$[ebp]
  002d3	c6 41 0c 00	 mov	 BYTE PTR [ecx+12], 0
  002d7	51		 push	 ecx
  002d8	8b cb		 mov	 ecx, ebx
  002da	e8 00 00 00 00	 call	 ?_Lrotate@?$_Tree_val@U?$_Tree_simple_types@U?$pair@$$CBKPAVCHousing@@@std@@@std@@@std@@QAEXPAU?$_Tree_node@U?$pair@$$CBKPAVCHousing@@@std@@PAX@2@@Z ; std::_Tree_val<std::_Tree_simple_types<std::pair<unsigned long const ,CHousing *> > >::_Lrotate

; 647  :                             _Pnode = _Fixnodeparent->_Left;

  002df	8b 0e		 mov	 ecx, DWORD PTR [esi]
  002e1	eb 03		 jmp	 SHORT $LN39@Extract
$LN101@Extract:

; 640  :                         _Pnode->_Color = _Red;
; 641  :                         _Fixnode       = _Fixnodeparent;
; 642  :                     } else { // must rearrange left subtree
; 643  :                         if (_Pnode->_Left->_Color == _Black) { // rotate red up from right sub-subtree

  002e3	8b 5d fc	 mov	 ebx, DWORD PTR _this$1$[ebp]
$LN39@Extract:

; 648  :                         }
; 649  : 
; 650  :                         _Pnode->_Color         = _Fixnodeparent->_Color;

  002e6	8a 46 0c	 mov	 al, BYTE PTR [esi+12]
  002e9	88 41 0c	 mov	 BYTE PTR [ecx+12], al

; 651  :                         _Fixnodeparent->_Color = _Black;

  002ec	c6 46 0c 01	 mov	 BYTE PTR [esi+12], 1

; 652  :                         _Pnode->_Left->_Color  = _Black;

  002f0	8b 01		 mov	 eax, DWORD PTR [ecx]

; 653  :                         _Rrotate(_Fixnodeparent);

  002f2	8b cb		 mov	 ecx, ebx
  002f4	56		 push	 esi
  002f5	c6 40 0c 01	 mov	 BYTE PTR [eax+12], 1
  002f9	e8 00 00 00 00	 call	 ?_Rrotate@?$_Tree_val@U?$_Tree_simple_types@U?$pair@$$CBKPAVCHousing@@@std@@@std@@@std@@QAEXPAU?$_Tree_node@U?$pair@$$CBKPAVCHousing@@@std@@PAX@2@@Z ; std::_Tree_val<std::_Tree_simple_types<std::pair<unsigned long const ,CHousing *> > >::_Rrotate
$LN3@Extract:

; 654  :                         break; // tree now recolored/rebalanced
; 655  :                     }
; 656  :                 }
; 657  :             }
; 658  : 
; 659  :             _Fixnode->_Color = _Black; // stopping node is black

  002fe	8b 45 f8	 mov	 eax, DWORD PTR __Erasednode$1$[ebp]
  00301	c6 47 0c 01	 mov	 BYTE PTR [edi+12], 1
$LN25@Extract:

; 660  :         }
; 661  : 
; 662  :         if (0 < _Mysize) {

  00305	8b 4b 04	 mov	 ecx, DWORD PTR [ebx+4]
  00308	85 c9		 test	 ecx, ecx
  0030a	74 04		 je	 SHORT $LN40@Extract

; 663  :             --_Mysize;

  0030c	49		 dec	 ecx
  0030d	89 4b 04	 mov	 DWORD PTR [ebx+4], ecx
$LN40@Extract:

; 664  :         }
; 665  : 
; 666  :         return _Erasednode;
; 667  :     }

  00310	5f		 pop	 edi
  00311	5e		 pop	 esi
  00312	5b		 pop	 ebx
  00313	8b e5		 mov	 esp, ebp
  00315	5d		 pop	 ebp
  00316	c2 04 00	 ret	 4
?_Extract@?$_Tree_val@U?$_Tree_simple_types@U?$pair@$$CBKPAVCHousing@@@std@@@std@@@std@@QAEPAU?$_Tree_node@U?$pair@$$CBKPAVCHousing@@@std@@PAX@2@V?$_Tree_unchecked_const_iterator@V?$_Tree_val@U?$_Tree_simple_types@U?$pair@$$CBKPAVCHousing@@@std@@@std@@@std@@U_Iterator_base0@2@@2@@Z ENDP ; std::_Tree_val<std::_Tree_simple_types<std::pair<unsigned long const ,CHousing *> > >::_Extract
_TEXT	ENDS
; Function compile flags: /Ogtp
; File C:\Program Files\Microsoft Visual Studio\2022\Professional\VC\Tools\MSVC\14.44.35207\include\xtree
;	COMDAT ?_Rrotate@?$_Tree_val@U?$_Tree_simple_types@U?$pair@$$CBKPAVCHousing@@@std@@@std@@@std@@QAEXPAU?$_Tree_node@U?$pair@$$CBKPAVCHousing@@@std@@PAX@2@@Z
_TEXT	SEGMENT
__Wherenode$ = 8					; size = 4
?_Rrotate@?$_Tree_val@U?$_Tree_simple_types@U?$pair@$$CBKPAVCHousing@@@std@@@std@@@std@@QAEXPAU?$_Tree_node@U?$pair@$$CBKPAVCHousing@@@std@@PAX@2@@Z PROC ; std::_Tree_val<std::_Tree_simple_types<std::pair<unsigned long const ,CHousing *> > >::_Rrotate, COMDAT
; _this$ = ecx

; 505  :     void _Rrotate(_Nodeptr _Wherenode) noexcept { // promote left node to root of subtree

  00000	55		 push	 ebp
  00001	8b ec		 mov	 ebp, esp

; 506  :         _Nodeptr _Pnode   = _Wherenode->_Left;

  00003	8b 55 08	 mov	 edx, DWORD PTR __Wherenode$[ebp]
  00006	56		 push	 esi
  00007	8b 32		 mov	 esi, DWORD PTR [edx]

; 507  :         _Wherenode->_Left = _Pnode->_Right;

  00009	8b 46 08	 mov	 eax, DWORD PTR [esi+8]
  0000c	89 02		 mov	 DWORD PTR [edx], eax

; 508  : 
; 509  :         if (!_Pnode->_Right->_Isnil) {

  0000e	8b 46 08	 mov	 eax, DWORD PTR [esi+8]
  00011	80 78 0d 00	 cmp	 BYTE PTR [eax+13], 0
  00015	75 03		 jne	 SHORT $LN2@Rrotate

; 510  :             _Pnode->_Right->_Parent = _Wherenode;

  00017	89 50 04	 mov	 DWORD PTR [eax+4], edx
$LN2@Rrotate:

; 511  :         }
; 512  : 
; 513  :         _Pnode->_Parent = _Wherenode->_Parent;

  0001a	8b 42 04	 mov	 eax, DWORD PTR [edx+4]
  0001d	89 46 04	 mov	 DWORD PTR [esi+4], eax

; 514  : 
; 515  :         if (_Wherenode == _Myhead->_Parent) {

  00020	8b 01		 mov	 eax, DWORD PTR [ecx]
  00022	3b 50 04	 cmp	 edx, DWORD PTR [eax+4]
  00025	75 0e		 jne	 SHORT $LN3@Rrotate

; 516  :             _Myhead->_Parent = _Pnode;

  00027	89 70 04	 mov	 DWORD PTR [eax+4], esi

; 521  :         }
; 522  : 
; 523  :         _Pnode->_Right      = _Wherenode;
; 524  :         _Wherenode->_Parent = _Pnode;
; 525  :     }

  0002a	89 56 08	 mov	 DWORD PTR [esi+8], edx
  0002d	89 72 04	 mov	 DWORD PTR [edx+4], esi
  00030	5e		 pop	 esi
  00031	5d		 pop	 ebp
  00032	c2 04 00	 ret	 4
$LN3@Rrotate:

; 517  :         } else if (_Wherenode == _Wherenode->_Parent->_Right) {

  00035	8b 42 04	 mov	 eax, DWORD PTR [edx+4]
  00038	3b 50 08	 cmp	 edx, DWORD PTR [eax+8]
  0003b	75 0e		 jne	 SHORT $LN5@Rrotate

; 518  :             _Wherenode->_Parent->_Right = _Pnode;

  0003d	89 70 08	 mov	 DWORD PTR [eax+8], esi

; 521  :         }
; 522  : 
; 523  :         _Pnode->_Right      = _Wherenode;
; 524  :         _Wherenode->_Parent = _Pnode;
; 525  :     }

  00040	89 56 08	 mov	 DWORD PTR [esi+8], edx
  00043	89 72 04	 mov	 DWORD PTR [edx+4], esi
  00046	5e		 pop	 esi
  00047	5d		 pop	 ebp
  00048	c2 04 00	 ret	 4
$LN5@Rrotate:

; 519  :         } else {
; 520  :             _Wherenode->_Parent->_Left = _Pnode;

  0004b	89 30		 mov	 DWORD PTR [eax], esi

; 521  :         }
; 522  : 
; 523  :         _Pnode->_Right      = _Wherenode;
; 524  :         _Wherenode->_Parent = _Pnode;
; 525  :     }

  0004d	89 56 08	 mov	 DWORD PTR [esi+8], edx
  00050	89 72 04	 mov	 DWORD PTR [edx+4], esi
  00053	5e		 pop	 esi
  00054	5d		 pop	 ebp
  00055	c2 04 00	 ret	 4
?_Rrotate@?$_Tree_val@U?$_Tree_simple_types@U?$pair@$$CBKPAVCHousing@@@std@@@std@@@std@@QAEXPAU?$_Tree_node@U?$pair@$$CBKPAVCHousing@@@std@@PAX@2@@Z ENDP ; std::_Tree_val<std::_Tree_simple_types<std::pair<unsigned long const ,CHousing *> > >::_Rrotate
_TEXT	ENDS
; Function compile flags: /Ogtp
; File C:\Program Files\Microsoft Visual Studio\2022\Professional\VC\Tools\MSVC\14.44.35207\include\xtree
;	COMDAT ?_Lrotate@?$_Tree_val@U?$_Tree_simple_types@U?$pair@$$CBKPAVCHousing@@@std@@@std@@@std@@QAEXPAU?$_Tree_node@U?$pair@$$CBKPAVCHousing@@@std@@PAX@2@@Z
_TEXT	SEGMENT
__Wherenode$ = 8					; size = 4
?_Lrotate@?$_Tree_val@U?$_Tree_simple_types@U?$pair@$$CBKPAVCHousing@@@std@@@std@@@std@@QAEXPAU?$_Tree_node@U?$pair@$$CBKPAVCHousing@@@std@@PAX@2@@Z PROC ; std::_Tree_val<std::_Tree_simple_types<std::pair<unsigned long const ,CHousing *> > >::_Lrotate, COMDAT
; _this$ = ecx

; 483  :     void _Lrotate(_Nodeptr _Wherenode) noexcept { // promote right node to root of subtree

  00000	55		 push	 ebp
  00001	8b ec		 mov	 ebp, esp

; 484  :         _Nodeptr _Pnode    = _Wherenode->_Right;

  00003	8b 55 08	 mov	 edx, DWORD PTR __Wherenode$[ebp]
  00006	56		 push	 esi
  00007	8b 72 08	 mov	 esi, DWORD PTR [edx+8]

; 485  :         _Wherenode->_Right = _Pnode->_Left;

  0000a	8b 06		 mov	 eax, DWORD PTR [esi]
  0000c	89 42 08	 mov	 DWORD PTR [edx+8], eax

; 486  : 
; 487  :         if (!_Pnode->_Left->_Isnil) {

  0000f	8b 06		 mov	 eax, DWORD PTR [esi]
  00011	80 78 0d 00	 cmp	 BYTE PTR [eax+13], 0
  00015	75 03		 jne	 SHORT $LN2@Lrotate

; 488  :             _Pnode->_Left->_Parent = _Wherenode;

  00017	89 50 04	 mov	 DWORD PTR [eax+4], edx
$LN2@Lrotate:

; 489  :         }
; 490  : 
; 491  :         _Pnode->_Parent = _Wherenode->_Parent;

  0001a	8b 42 04	 mov	 eax, DWORD PTR [edx+4]
  0001d	89 46 04	 mov	 DWORD PTR [esi+4], eax

; 492  : 
; 493  :         if (_Wherenode == _Myhead->_Parent) {

  00020	8b 01		 mov	 eax, DWORD PTR [ecx]
  00022	3b 50 04	 cmp	 edx, DWORD PTR [eax+4]
  00025	75 0d		 jne	 SHORT $LN3@Lrotate

; 494  :             _Myhead->_Parent = _Pnode;

  00027	89 70 04	 mov	 DWORD PTR [eax+4], esi

; 499  :         }
; 500  : 
; 501  :         _Pnode->_Left       = _Wherenode;
; 502  :         _Wherenode->_Parent = _Pnode;
; 503  :     }

  0002a	89 16		 mov	 DWORD PTR [esi], edx
  0002c	89 72 04	 mov	 DWORD PTR [edx+4], esi
  0002f	5e		 pop	 esi
  00030	5d		 pop	 ebp
  00031	c2 04 00	 ret	 4
$LN3@Lrotate:

; 495  :         } else if (_Wherenode == _Wherenode->_Parent->_Left) {

  00034	8b 42 04	 mov	 eax, DWORD PTR [edx+4]
  00037	3b 10		 cmp	 edx, DWORD PTR [eax]
  00039	75 0c		 jne	 SHORT $LN5@Lrotate

; 496  :             _Wherenode->_Parent->_Left = _Pnode;

  0003b	89 30		 mov	 DWORD PTR [eax], esi

; 499  :         }
; 500  : 
; 501  :         _Pnode->_Left       = _Wherenode;
; 502  :         _Wherenode->_Parent = _Pnode;
; 503  :     }

  0003d	89 16		 mov	 DWORD PTR [esi], edx
  0003f	89 72 04	 mov	 DWORD PTR [edx+4], esi
  00042	5e		 pop	 esi
  00043	5d		 pop	 ebp
  00044	c2 04 00	 ret	 4
$LN5@Lrotate:

; 497  :         } else {
; 498  :             _Wherenode->_Parent->_Right = _Pnode;

  00047	89 70 08	 mov	 DWORD PTR [eax+8], esi

; 499  :         }
; 500  : 
; 501  :         _Pnode->_Left       = _Wherenode;
; 502  :         _Wherenode->_Parent = _Pnode;
; 503  :     }

  0004a	89 16		 mov	 DWORD PTR [esi], edx
  0004c	89 72 04	 mov	 DWORD PTR [edx+4], esi
  0004f	5e		 pop	 esi
  00050	5d		 pop	 ebp
  00051	c2 04 00	 ret	 4
?_Lrotate@?$_Tree_val@U?$_Tree_simple_types@U?$pair@$$CBKPAVCHousing@@@std@@@std@@@std@@QAEXPAU?$_Tree_node@U?$pair@$$CBKPAVCHousing@@@std@@PAX@2@@Z ENDP ; std::_Tree_val<std::_Tree_simple_types<std::pair<unsigned long const ,CHousing *> > >::_Lrotate
_TEXT	ENDS
; Function compile flags: /Ogtp
; File C:\Program Files\Microsoft Visual Studio\2022\Professional\VC\Tools\MSVC\14.44.35207\include\xtree
; File C:\Program Files\Microsoft Visual Studio\2022\Professional\VC\Tools\MSVC\14.44.35207\include\utility
; File C:\Program Files\Microsoft Visual Studio\2022\Professional\VC\Tools\MSVC\14.44.35207\include\xmemory
; File C:\Program Files\Microsoft Visual Studio\2022\Professional\VC\Tools\MSVC\14.44.35207\include\xtree
; File C:\Program Files\Microsoft Visual Studio\2022\Professional\VC\Tools\MSVC\14.44.35207\include\xmemory
; File C:\Program Files\Microsoft Visual Studio\2022\Professional\VC\Tools\MSVC\14.44.35207\include\xtree
;	COMDAT ??1?$_Tree@V?$_Tmap_traits@KPAVCHousing@@U?$less@K@std@@V?$allocator@U?$pair@$$CBKPAVCHousing@@@std@@@3@$0A@@std@@@std@@QAE@XZ
_TEXT	SEGMENT
??1?$_Tree@V?$_Tmap_traits@KPAVCHousing@@U?$less@K@std@@V?$allocator@U?$pair@$$CBKPAVCHousing@@@std@@@3@$0A@@std@@@std@@QAE@XZ PROC ; std::_Tree<std::_Tmap_traits<unsigned long,CHousing *,std::less<unsigned long>,std::allocator<std::pair<unsigned long const ,CHousing *> >,0> >::~_Tree<std::_Tmap_traits<unsigned long,CHousing *,std::less<unsigned long>,std::allocator<std::pair<unsigned long const ,CHousing *> >,0> >, COMDAT
; _this$ = ecx

; 1095 :     ~_Tree() noexcept {

  00000	56		 push	 esi
  00001	57		 push	 edi
  00002	8b f9		 mov	 edi, ecx

; 777  :         _Erase_tree(_Al, _Myhead->_Parent);

  00004	8b 37		 mov	 esi, DWORD PTR [edi]
  00006	8b 76 04	 mov	 esi, DWORD PTR [esi+4]

; 768  :         while (!_Rootnode->_Isnil) { // free subtrees, then node

  00009	80 7e 0d 00	 cmp	 BYTE PTR [esi+13], 0
  0000d	75 21		 jne	 SHORT $LN61@Tree
  0000f	90		 npad	 1
$LL8@Tree:

; 769  :             _Erase_tree(_Al, _Rootnode->_Right);

  00010	ff 76 08	 push	 DWORD PTR [esi+8]
  00013	8b cf		 mov	 ecx, edi
  00015	57		 push	 edi
  00016	e8 00 00 00 00	 call	 ??$_Erase_tree@V?$allocator@U?$_Tree_node@U?$pair@$$CBKPAVCHousing@@@std@@PAX@std@@@std@@@?$_Tree_val@U?$_Tree_simple_types@U?$pair@$$CBKPAVCHousing@@@std@@@std@@@std@@QAEXAAV?$allocator@U?$_Tree_node@U?$pair@$$CBKPAVCHousing@@@std@@PAX@std@@@1@PAU?$_Tree_node@U?$pair@$$CBKPAVCHousing@@@std@@PAX@1@@Z ; std::_Tree_val<std::_Tree_simple_types<std::pair<unsigned long const ,CHousing *> > >::_Erase_tree<std::allocator<std::_Tree_node<std::pair<unsigned long const ,CHousing *>,void *> > >
; File C:\Program Files\Microsoft Visual Studio\2022\Professional\VC\Tools\MSVC\14.44.35207\include\utility

; 773  :     _Ty _Old_val = static_cast<_Ty&&>(_Val);

  0001b	8b c6		 mov	 eax, esi

; 774  :     _Val         = static_cast<_Other&&>(_New_val);

  0001d	8b 36		 mov	 esi, DWORD PTR [esi]
; File C:\Program Files\Microsoft Visual Studio\2022\Professional\VC\Tools\MSVC\14.44.35207\include\xmemory

; 289  :         ::operator delete(_Ptr, _Bytes);

  0001f	6a 18		 push	 24			; 00000018H
  00021	50		 push	 eax
  00022	e8 00 00 00 00	 call	 ??3@YAXPAXI@Z		; operator delete
  00027	83 c4 08	 add	 esp, 8
; File C:\Program Files\Microsoft Visual Studio\2022\Professional\VC\Tools\MSVC\14.44.35207\include\xtree

; 768  :         while (!_Rootnode->_Isnil) { // free subtrees, then node

  0002a	80 7e 0d 00	 cmp	 BYTE PTR [esi+13], 0
  0002e	74 e0		 je	 SHORT $LL8@Tree
$LN61@Tree:
; File C:\Program Files\Microsoft Visual Studio\2022\Professional\VC\Tools\MSVC\14.44.35207\include\xmemory

; 289  :         ::operator delete(_Ptr, _Bytes);

  00030	6a 18		 push	 24			; 00000018H
  00032	ff 37		 push	 DWORD PTR [edi]
  00034	e8 00 00 00 00	 call	 ??3@YAXPAXI@Z		; operator delete
  00039	83 c4 08	 add	 esp, 8
  0003c	5f		 pop	 edi
  0003d	5e		 pop	 esi
; File C:\Program Files\Microsoft Visual Studio\2022\Professional\VC\Tools\MSVC\14.44.35207\include\xtree

; 1102 :     }

  0003e	c3		 ret	 0
??1?$_Tree@V?$_Tmap_traits@KPAVCHousing@@U?$less@K@std@@V?$allocator@U?$pair@$$CBKPAVCHousing@@@std@@@3@$0A@@std@@@std@@QAE@XZ ENDP ; std::_Tree<std::_Tmap_traits<unsigned long,CHousing *,std::less<unsigned long>,std::allocator<std::pair<unsigned long const ,CHousing *> >,0> >::~_Tree<std::_Tmap_traits<unsigned long,CHousing *,std::less<unsigned long>,std::allocator<std::pair<unsigned long const ,CHousing *> >,0> >
_TEXT	ENDS
; Function compile flags: /Ogtp
; File C:\IAGOS\server\v18\Source\Source\_Common\Housing.cpp
;	COMDAT ?SetVisitAllow@CHousingMng@@QAEXKKH@Z
_TEXT	SEGMENT
_dwPlayerId$ = 8					; size = 4
_dwTargetId$ = 12					; size = 4
_bAllow$ = 16						; size = 4
?SetVisitAllow@CHousingMng@@QAEXKKH@Z PROC		; CHousingMng::SetVisitAllow, COMDAT
; _this$ = ecx

; 644  : {

  00000	55		 push	 ebp
  00001	8b ec		 mov	 ebp, esp

; 645  : 	CHousing* pHousing = GetHousing( dwPlayerId );

  00003	ff 75 08	 push	 DWORD PTR _dwPlayerId$[ebp]
  00006	e8 00 00 00 00	 call	 ?GetHousing@CHousingMng@@QAEPAVCHousing@@K@Z ; CHousingMng::GetHousing

; 646  : 	if( pHousing )

  0000b	85 c0		 test	 eax, eax
  0000d	74 0d		 je	 SHORT $LN2@SetVisitAl

; 647  : 		pHousing->SetVisitAllow( dwTargetId, bAllow );

  0000f	ff 75 10	 push	 DWORD PTR _bAllow$[ebp]
  00012	8b c8		 mov	 ecx, eax
  00014	ff 75 0c	 push	 DWORD PTR _dwTargetId$[ebp]
  00017	e8 00 00 00 00	 call	 ?SetVisitAllow@CHousing@@QAEXKH@Z ; CHousing::SetVisitAllow
$LN2@SetVisitAl:

; 648  : }

  0001c	5d		 pop	 ebp
  0001d	c2 0c 00	 ret	 12			; 0000000cH
?SetVisitAllow@CHousingMng@@QAEXKKH@Z ENDP		; CHousingMng::SetVisitAllow
_TEXT	ENDS
; Function compile flags: /Ogtp
; File C:\IAGOS\server\v18\Source\Source\_Common\Housing.cpp
;	COMDAT ?SetupFurniture@CHousingMng@@QAEXKUHOUSINGINFO@@@Z
_TEXT	SEGMENT
_dwPlayerId$ = 8					; size = 4
_housingInfo$ = 12					; size = 32
?SetupFurniture@CHousingMng@@QAEXKUHOUSINGINFO@@@Z PROC	; CHousingMng::SetupFurniture, COMDAT
; _this$ = ecx

; 637  : {

  00000	55		 push	 ebp
  00001	8b ec		 mov	 ebp, esp

; 638  : 	CHousing* pHousing = GetHousing( dwPlayerId );

  00003	ff 75 08	 push	 DWORD PTR _dwPlayerId$[ebp]
  00006	e8 00 00 00 00	 call	 ?GetHousing@CHousingMng@@QAEPAVCHousing@@K@Z ; CHousingMng::GetHousing

; 639  : 	if( pHousing )

  0000b	85 c0		 test	 eax, eax
  0000d	74 1b		 je	 SHORT $LN2@SetupFurni

; 640  : 		pHousing->SetupFurniture( housingInfo );

  0000f	0f 10 45 0c	 movups	 xmm0, XMMWORD PTR _housingInfo$[ebp]
  00013	83 ec 20	 sub	 esp, 32			; 00000020H
  00016	8b cc		 mov	 ecx, esp
  00018	0f 11 01	 movups	 XMMWORD PTR [ecx], xmm0
  0001b	0f 10 45 1c	 movups	 xmm0, XMMWORD PTR _housingInfo$[ebp+16]
  0001f	0f 11 41 10	 movups	 XMMWORD PTR [ecx+16], xmm0
  00023	8b c8		 mov	 ecx, eax
  00025	e8 00 00 00 00	 call	 ?SetupFurniture@CHousing@@QAEXUHOUSINGINFO@@@Z ; CHousing::SetupFurniture
$LN2@SetupFurni:

; 641  : }

  0002a	5d		 pop	 ebp
  0002b	c2 24 00	 ret	 36			; 00000024H
?SetupFurniture@CHousingMng@@QAEXKUHOUSINGINFO@@@Z ENDP	; CHousingMng::SetupFurniture
_TEXT	ENDS
; Function compile flags: /Ogtp
; File C:\IAGOS\server\v18\Source\Source\_Common\Housing.cpp
;	COMDAT ?SetFurnitureList@CHousingMng@@QAEXKAAUHOUSINGINFO@@H@Z
_TEXT	SEGMENT
_dwPlayerId$ = 8					; size = 4
_housingInfo$ = 12					; size = 4
_bAdd$ = 16						; size = 4
?SetFurnitureList@CHousingMng@@QAEXKAAUHOUSINGINFO@@H@Z PROC ; CHousingMng::SetFurnitureList, COMDAT
; _this$ = ecx

; 630  : {

  00000	55		 push	 ebp
  00001	8b ec		 mov	 ebp, esp

; 631  : 	CHousing* pHousing = GetHousing( dwPlayerId );

  00003	ff 75 08	 push	 DWORD PTR _dwPlayerId$[ebp]
  00006	e8 00 00 00 00	 call	 ?GetHousing@CHousingMng@@QAEPAVCHousing@@K@Z ; CHousingMng::GetHousing

; 632  : 	if( pHousing )

  0000b	85 c0		 test	 eax, eax
  0000d	74 0d		 je	 SHORT $LN2@SetFurnitu

; 633  : 		pHousing->SetFurnitureList( housingInfo, bAdd );

  0000f	ff 75 10	 push	 DWORD PTR _bAdd$[ebp]
  00012	8b c8		 mov	 ecx, eax
  00014	ff 75 0c	 push	 DWORD PTR _housingInfo$[ebp]
  00017	e8 00 00 00 00	 call	 ?SetFurnitureList@CHousing@@QAEXAAUHOUSINGINFO@@H@Z ; CHousing::SetFurnitureList
$LN2@SetFurnitu:

; 634  : }

  0001c	5d		 pop	 ebp
  0001d	c2 0c 00	 ret	 12			; 0000000cH
?SetFurnitureList@CHousingMng@@QAEXKAAUHOUSINGINFO@@H@Z ENDP ; CHousingMng::SetFurnitureList
_TEXT	ENDS
; Function compile flags: /Ogtp
; File C:\IAGOS\server\v18\Source\Source\_Common\Housing.cpp
; File C:\Program Files\Microsoft Visual Studio\2022\Professional\VC\Tools\MSVC\14.44.35207\include\xtree
; File C:\IAGOS\server\v18\Source\Source\_Common\Housing.cpp
; File C:\Program Files\Microsoft Visual Studio\2022\Professional\VC\Tools\MSVC\14.44.35207\include\xtree
; File C:\Program Files\Microsoft Visual Studio\2022\Professional\VC\Tools\MSVC\14.44.35207\include\type_traits
; File C:\Program Files\Microsoft Visual Studio\2022\Professional\VC\Tools\MSVC\14.44.35207\include\xtree
; File C:\IAGOS\server\v18\Source\Source\_Common\Housing.cpp
;	COMDAT ?GetHousing@CHousingMng@@QAEPAVCHousing@@K@Z
_TEXT	SEGMENT
__Loc$1 = -12						; size = 12
_dwPlayerId$ = 8					; size = 4
?GetHousing@CHousingMng@@QAEPAVCHousing@@K@Z PROC	; CHousingMng::GetHousing, COMDAT
; _this$ = ecx

; 663  : {

  00000	55		 push	 ebp
  00001	8b ec		 mov	 ebp, esp
  00003	83 ec 0c	 sub	 esp, 12			; 0000000cH
  00006	56		 push	 esi
; File C:\Program Files\Microsoft Visual Studio\2022\Professional\VC\Tools\MSVC\14.44.35207\include\xtree

; 1384 :         const _Tree_find_result<_Nodeptr> _Loc = _Find_lower_bound(_Keyval);

  00007	8d 45 08	 lea	 eax, DWORD PTR _dwPlayerId$[ebp]
  0000a	50		 push	 eax
; File C:\IAGOS\server\v18\Source\Source\_Common\Housing.cpp

; 664  : 	MAP_HP::iterator it = m_mapHousing.find( dwPlayerId );

  0000b	8d 71 08	 lea	 esi, DWORD PTR [ecx+8]
; File C:\Program Files\Microsoft Visual Studio\2022\Professional\VC\Tools\MSVC\14.44.35207\include\xtree

; 1384 :         const _Tree_find_result<_Nodeptr> _Loc = _Find_lower_bound(_Keyval);

  0000e	8d 45 f4	 lea	 eax, DWORD PTR __Loc$1[ebp]
  00011	8b ce		 mov	 ecx, esi
  00013	50		 push	 eax
  00014	e8 00 00 00 00	 call	 ??$_Find_lower_bound@K@?$_Tree@V?$_Tmap_traits@KPAVCHousing@@U?$less@K@std@@V?$allocator@U?$pair@$$CBKPAVCHousing@@@std@@@3@$0A@@std@@@std@@IBE?AU?$_Tree_find_result@PAU?$_Tree_node@U?$pair@$$CBKPAVCHousing@@@std@@PAX@std@@@1@ABK@Z ; std::_Tree<std::_Tmap_traits<unsigned long,CHousing *,std::less<unsigned long>,std::allocator<std::pair<unsigned long const ,CHousing *> >,0> >::_Find_lower_bound<unsigned long>

; 1624 :         return !_Bound->_Isnil && !_DEBUG_LT_PRED(_Getcomp(), _Keyval, _Traits::_Kfn(_Bound->_Myval));

  00019	8b 45 fc	 mov	 eax, DWORD PTR __Loc$1[ebp+8]
  0001c	80 78 0d 00	 cmp	 BYTE PTR [eax+13], 0
  00020	75 16		 jne	 SHORT $LN50@GetHousing
; File C:\Program Files\Microsoft Visual Studio\2022\Professional\VC\Tools\MSVC\14.44.35207\include\type_traits

; 2380 :         return _Left < _Right;

  00022	8b 4d 08	 mov	 ecx, DWORD PTR _dwPlayerId$[ebp]
  00025	3b 48 10	 cmp	 ecx, DWORD PTR [eax+16]
; File C:\Program Files\Microsoft Visual Studio\2022\Professional\VC\Tools\MSVC\14.44.35207\include\xtree

; 1624 :         return !_Bound->_Isnil && !_DEBUG_LT_PRED(_Getcomp(), _Keyval, _Traits::_Kfn(_Bound->_Myval));

  00028	72 0e		 jb	 SHORT $LN50@GetHousing

; 37   :     _Tree_unchecked_const_iterator(_Nodeptr _Pnode, const _Mytree* _Plist) noexcept : _Ptr(_Pnode) {

  0002a	3b 06		 cmp	 eax, DWORD PTR [esi]
; File C:\IAGOS\server\v18\Source\Source\_Common\Housing.cpp

; 665  : 	if( it == m_mapHousing.end() )

  0002c	74 0a		 je	 SHORT $LN50@GetHousing

; 667  : 
; 668  : 	return it->second;

  0002e	8b 40 14	 mov	 eax, DWORD PTR [eax+20]
  00031	5e		 pop	 esi

; 669  : }

  00032	8b e5		 mov	 esp, ebp
  00034	5d		 pop	 ebp
  00035	c2 04 00	 ret	 4
$LN50@GetHousing:

; 666  : 		return NULL;

  00038	33 c0		 xor	 eax, eax
  0003a	5e		 pop	 esi

; 669  : }

  0003b	8b e5		 mov	 esp, ebp
  0003d	5d		 pop	 ebp
  0003e	c2 04 00	 ret	 4
?GetHousing@CHousingMng@@QAEPAVCHousing@@K@Z ENDP	; CHousingMng::GetHousing
_TEXT	ENDS
; Function compile flags: /Ogtp
; File C:\IAGOS\server\v18\Source\Source\_Common\Housing.cpp
; File C:\Program Files\Microsoft Visual Studio\2022\Professional\VC\Tools\MSVC\14.44.35207\include\xtree
; File C:\Program Files\Microsoft Visual Studio\2022\Professional\VC\Tools\MSVC\14.44.35207\include\utility
; File C:\Program Files\Microsoft Visual Studio\2022\Professional\VC\Tools\MSVC\14.44.35207\include\xtree
; File C:\Program Files\Microsoft Visual Studio\2022\Professional\VC\Tools\MSVC\14.44.35207\include\utility
; File C:\Program Files\Microsoft Visual Studio\2022\Professional\VC\Tools\MSVC\14.44.35207\include\xtree
; File C:\Program Files\Microsoft Visual Studio\2022\Professional\VC\Tools\MSVC\14.44.35207\include\type_traits
; File C:\Program Files\Microsoft Visual Studio\2022\Professional\VC\Tools\MSVC\14.44.35207\include\xtree
; File C:\IAGOS\server\v18\Source\Source\_Common\Housing.cpp
; File C:\Program Files\Microsoft Visual Studio\2022\Professional\VC\Tools\MSVC\14.44.35207\include\xtree
; File C:\Program Files\Microsoft Visual Studio\2022\Professional\VC\Tools\MSVC\14.44.35207\include\xmemory
; File C:\Program Files\Microsoft Visual Studio\2022\Professional\VC\Tools\MSVC\14.44.35207\include\xtree
; File C:\Program Files\Microsoft Visual Studio\2022\Professional\VC\Tools\MSVC\14.44.35207\include\xmemory
; File C:\Program Files\Microsoft Visual Studio\2022\Professional\VC\Tools\MSVC\14.44.35207\include\xtree
; File C:\Program Files\Microsoft Visual Studio\2022\Professional\VC\Tools\MSVC\14.44.35207\include\xmemory
; File C:\Program Files\Microsoft Visual Studio\2022\Professional\VC\Tools\MSVC\14.44.35207\include\xtree
; File C:\Program Files\Microsoft Visual Studio\2022\Professional\VC\Tools\MSVC\14.44.35207\include\xmemory
; File C:\Program Files\Microsoft Visual Studio\2022\Professional\VC\Tools\MSVC\14.44.35207\include\xtree
; File C:\IAGOS\server\v18\Source\Source\_Common\Housing.cpp
; File C:\Program Files\Microsoft Visual Studio\2022\Professional\VC\Tools\MSVC\14.44.35207\include\xtree
; File C:\IAGOS\server\v18\Source\Source\_Common\Housing.cpp
;	COMDAT ?CreateHousing@CHousingMng@@QAEPAVCHousing@@K@Z
_TEXT	SEGMENT
$T3 = -48						; size = 12
__Loc$4 = -36						; size = 12
$T5 = -24						; size = 8
$T6 = -24						; size = 8
$T7 = -20						; size = 4
_this$1$ = -16						; size = 4
__$EHRec$ = -12						; size = 12
_dwPlayerId$ = 8					; size = 4
?CreateHousing@CHousingMng@@QAEPAVCHousing@@K@Z PROC	; CHousingMng::CreateHousing, COMDAT
; _this$ = ecx

; 651  : {

  00000	55		 push	 ebp
  00001	8b ec		 mov	 ebp, esp
  00003	6a ff		 push	 -1
  00005	68 00 00 00 00	 push	 __ehhandler$?CreateHousing@CHousingMng@@QAEPAVCHousing@@K@Z
  0000a	64 a1 00 00 00
	00		 mov	 eax, DWORD PTR fs:0
  00010	50		 push	 eax
  00011	83 ec 24	 sub	 esp, 36			; 00000024H
  00014	53		 push	 ebx
  00015	56		 push	 esi
  00016	57		 push	 edi
  00017	a1 00 00 00 00	 mov	 eax, DWORD PTR ___security_cookie
  0001c	33 c5		 xor	 eax, ebp
  0001e	50		 push	 eax
  0001f	8d 45 f4	 lea	 eax, DWORD PTR __$EHRec$[ebp]
  00022	64 a3 00 00 00
	00		 mov	 DWORD PTR fs:0, eax
  00028	8b f1		 mov	 esi, ecx
  0002a	89 75 f0	 mov	 DWORD PTR _this$1$[ebp], esi

; 652  : 	pair<MAP_HP::iterator, bool> p	= m_mapHousing.insert( MAP_HP::value_type( dwPlayerId, new CHousing( dwPlayerId ) ) );

  0002d	6a 20		 push	 32			; 00000020H
  0002f	e8 00 00 00 00	 call	 ??2@YAPAXI@Z		; operator new
  00034	8b 7d 08	 mov	 edi, DWORD PTR _dwPlayerId$[ebp]
  00037	83 c4 04	 add	 esp, 4
  0003a	89 45 ec	 mov	 DWORD PTR $T7[ebp], eax
  0003d	85 c0		 test	 eax, eax
  0003f	74 0c		 je	 SHORT $LN4@CreateHous
  00041	57		 push	 edi
  00042	8b c8		 mov	 ecx, eax
  00044	e8 00 00 00 00	 call	 ??0CHousing@@QAE@K@Z	; CHousing::CHousing
  00049	8b d8		 mov	 ebx, eax
  0004b	eb 02		 jmp	 SHORT $LN5@CreateHous
$LN4@CreateHous:
  0004d	33 db		 xor	 ebx, ebx
$LN5@CreateHous:
; File C:\Program Files\Microsoft Visual Studio\2022\Professional\VC\Tools\MSVC\14.44.35207\include\xtree

; 1017 :             _Loc                = _Find_lower_bound(_Keyval);

  0004f	8d 45 e8	 lea	 eax, DWORD PTR $T5[ebp]
; File C:\Program Files\Microsoft Visual Studio\2022\Professional\VC\Tools\MSVC\14.44.35207\include\utility

; 274  :         : first(_STD forward<_Other1>(_Val1)), second(_STD forward<_Other2>(_Val2)) {

  00052	89 7d e8	 mov	 DWORD PTR $T5[ebp], edi
; File C:\Program Files\Microsoft Visual Studio\2022\Professional\VC\Tools\MSVC\14.44.35207\include\xtree

; 1017 :             _Loc                = _Find_lower_bound(_Keyval);

  00055	50		 push	 eax
  00056	8d 45 d0	 lea	 eax, DWORD PTR $T3[ebp]
; File C:\Program Files\Microsoft Visual Studio\2022\Professional\VC\Tools\MSVC\14.44.35207\include\utility

; 274  :         : first(_STD forward<_Other1>(_Val1)), second(_STD forward<_Other2>(_Val2)) {

  00059	89 5d ec	 mov	 DWORD PTR $T5[ebp+4], ebx
; File C:\Program Files\Microsoft Visual Studio\2022\Professional\VC\Tools\MSVC\14.44.35207\include\xtree

; 1017 :             _Loc                = _Find_lower_bound(_Keyval);

  0005c	50		 push	 eax
  0005d	8d 4e 08	 lea	 ecx, DWORD PTR [esi+8]
  00060	e8 00 00 00 00	 call	 ??$_Find_lower_bound@K@?$_Tree@V?$_Tmap_traits@KPAVCHousing@@U?$less@K@std@@V?$allocator@U?$pair@$$CBKPAVCHousing@@@std@@@3@$0A@@std@@@std@@IBE?AU?$_Tree_find_result@PAU?$_Tree_node@U?$pair@$$CBKPAVCHousing@@@std@@PAX@std@@@1@ABK@Z ; std::_Tree<std::_Tmap_traits<unsigned long,CHousing *,std::less<unsigned long>,std::allocator<std::pair<unsigned long const ,CHousing *> >,0> >::_Find_lower_bound<unsigned long>
  00065	f3 0f 7e 00	 movq	 xmm0, QWORD PTR [eax]
  00069	8b 40 08	 mov	 eax, DWORD PTR [eax+8]
  0006c	66 0f d6 45 dc	 movq	 QWORD PTR __Loc$4[ebp], xmm0

; 1624 :         return !_Bound->_Isnil && !_DEBUG_LT_PRED(_Getcomp(), _Keyval, _Traits::_Kfn(_Bound->_Myval));

  00071	80 78 0d 00	 cmp	 BYTE PTR [eax+13], 0
  00075	75 28		 jne	 SHORT $LN13@CreateHous
; File C:\Program Files\Microsoft Visual Studio\2022\Professional\VC\Tools\MSVC\14.44.35207\include\type_traits

; 2380 :         return _Left < _Right;

  00077	3b 78 10	 cmp	 edi, DWORD PTR [eax+16]
; File C:\Program Files\Microsoft Visual Studio\2022\Professional\VC\Tools\MSVC\14.44.35207\include\xtree

; 1624 :         return !_Bound->_Isnil && !_DEBUG_LT_PRED(_Getcomp(), _Keyval, _Traits::_Kfn(_Bound->_Myval));

  0007a	72 23		 jb	 SHORT $LN13@CreateHous
; File C:\IAGOS\server\v18\Source\Source\_Common\Housing.cpp

; 655  : 		Error( "CHousingMng::CreateHousing() - Housing Create Failed!!" );

  0007c	68 00 00 00 00	 push	 OFFSET ??_C@_0DH@NCLOMDHD@CHousingMng?3?3CreateHousing?$CI?$CJ?5?9?5@
  00081	e8 00 00 00 00	 call	 ?Error@@YAPBDPBDZZ	; Error
  00086	83 c4 04	 add	 esp, 4

; 656  : 		return NULL;

  00089	33 c0		 xor	 eax, eax

; 660  : }

  0008b	8b 4d f4	 mov	 ecx, DWORD PTR __$EHRec$[ebp]
  0008e	64 89 0d 00 00
	00 00		 mov	 DWORD PTR fs:0, ecx
  00095	59		 pop	 ecx
  00096	5f		 pop	 edi
  00097	5e		 pop	 esi
  00098	5b		 pop	 ebx
  00099	8b e5		 mov	 esp, ebp
  0009b	5d		 pop	 ebp
  0009c	c2 04 00	 ret	 4
$LN13@CreateHous:
; File C:\Program Files\Microsoft Visual Studio\2022\Professional\VC\Tools\MSVC\14.44.35207\include\xtree

; 1648 :         if (max_size() == _Get_scary()->_Mysize) {

  0009f	81 7e 0c aa aa
	aa 0a		 cmp	 DWORD PTR [esi+12], 178956970 ; 0aaaaaaaH
  000a6	74 68		 je	 SHORT $LN123@CreateHous
; File C:\Program Files\Microsoft Visual Studio\2022\Professional\VC\Tools\MSVC\14.44.35207\include\xmemory

; 1160 :     _CONSTEXPR20 explicit _Alloc_construct_ptr(_Alloc& _Al_) : _Al(_Al_), _Ptr(nullptr) {}

  000a8	8b 45 f0	 mov	 eax, DWORD PTR _this$1$[ebp]
; File C:\Program Files\Microsoft Visual Studio\2022\Professional\VC\Tools\MSVC\14.44.35207\include\xtree

; 1023 :             _Inserted = _Tree_temp_node<_Alnode>(_Getal(), _Scary->_Myhead, _STD forward<_Valtys>(_Vals)...)._Release();

  000ab	8b 76 08	 mov	 esi, DWORD PTR [esi+8]
; File C:\Program Files\Microsoft Visual Studio\2022\Professional\VC\Tools\MSVC\14.44.35207\include\xmemory

; 1160 :     _CONSTEXPR20 explicit _Alloc_construct_ptr(_Alloc& _Al_) : _Al(_Al_), _Ptr(nullptr) {}

  000ae	83 c0 08	 add	 eax, 8
  000b1	89 45 e8	 mov	 DWORD PTR $T6[ebp], eax

; 136  :         return ::operator new(_Bytes);

  000b4	6a 18		 push	 24			; 00000018H
; File C:\Program Files\Microsoft Visual Studio\2022\Professional\VC\Tools\MSVC\14.44.35207\include\xtree

; 808  :     explicit _Tree_temp_node_alloc(_Alnode& _Al_) : _Alloc_construct_ptr<_Alnode>(_Al_) {

  000b6	c7 45 fc 00 00
	00 00		 mov	 DWORD PTR __$EHRec$[ebp+8], 0
; File C:\Program Files\Microsoft Visual Studio\2022\Professional\VC\Tools\MSVC\14.44.35207\include\xmemory

; 1167 :         _Ptr = nullptr; // if allocate throws, prevents double-free

  000bd	c7 45 ec 00 00
	00 00		 mov	 DWORD PTR $T6[ebp+4], 0

; 136  :         return ::operator new(_Bytes);

  000c4	e8 00 00 00 00	 call	 ??2@YAPAXI@Z		; operator new
; File C:\Program Files\Microsoft Visual Studio\2022\Professional\VC\Tools\MSVC\14.44.35207\include\xtree

; 1042 :         return {_Scary->_Insert_node(_Loc._Location, _Inserted), true};

  000c9	8b 4d f0	 mov	 ecx, DWORD PTR _this$1$[ebp]
; File C:\Program Files\Microsoft Visual Studio\2022\Professional\VC\Tools\MSVC\14.44.35207\include\xmemory

; 136  :         return ::operator new(_Bytes);

  000cc	83 c4 04	 add	 esp, 4
; File C:\Program Files\Microsoft Visual Studio\2022\Professional\VC\Tools\MSVC\14.44.35207\include\xtree

; 810  :     }

  000cf	c7 45 fc ff ff
	ff ff		 mov	 DWORD PTR __$EHRec$[ebp+8], -1

; 830  :         _Alnode_traits::construct(this->_Al, _STD addressof(this->_Ptr->_Myval), _STD forward<_Valtys>(_Vals)...);

  000d6	89 78 10	 mov	 DWORD PTR [eax+16], edi

; 1042 :         return {_Scary->_Insert_node(_Loc._Location, _Inserted), true};

  000d9	50		 push	 eax
  000da	ff 75 e0	 push	 DWORD PTR __Loc$4[ebp+4]

; 830  :         _Alnode_traits::construct(this->_Al, _STD addressof(this->_Ptr->_Myval), _STD forward<_Valtys>(_Vals)...);

  000dd	89 58 14	 mov	 DWORD PTR [eax+20], ebx

; 1042 :         return {_Scary->_Insert_node(_Loc._Location, _Inserted), true};

  000e0	8d 49 08	 lea	 ecx, DWORD PTR [ecx+8]
  000e3	ff 75 dc	 push	 DWORD PTR __Loc$4[ebp]

; 831  :         _Construct_in_place(this->_Ptr->_Left, _Myhead);

  000e6	89 30		 mov	 DWORD PTR [eax], esi

; 832  :         _Construct_in_place(this->_Ptr->_Parent, _Myhead);

  000e8	89 70 04	 mov	 DWORD PTR [eax+4], esi

; 833  :         _Construct_in_place(this->_Ptr->_Right, _Myhead);

  000eb	89 70 08	 mov	 DWORD PTR [eax+8], esi

; 834  :         this->_Ptr->_Color = _Red;

  000ee	66 c7 40 0c 00
	00		 mov	 WORD PTR [eax+12], 0

; 1042 :         return {_Scary->_Insert_node(_Loc._Location, _Inserted), true};

  000f4	e8 00 00 00 00	 call	 ?_Insert_node@?$_Tree_val@U?$_Tree_simple_types@U?$pair@$$CBKPAVCHousing@@@std@@@std@@@std@@QAEPAU?$_Tree_node@U?$pair@$$CBKPAVCHousing@@@std@@PAX@2@U?$_Tree_id@PAU?$_Tree_node@U?$pair@$$CBKPAVCHousing@@@std@@PAX@std@@@2@QAU32@@Z ; std::_Tree_val<std::_Tree_simple_types<std::pair<unsigned long const ,CHousing *> > >::_Insert_node
; File C:\IAGOS\server\v18\Source\Source\_Common\Housing.cpp

; 659  : 	return p.first->second;

  000f9	8b 40 14	 mov	 eax, DWORD PTR [eax+20]

; 660  : }

  000fc	8b 4d f4	 mov	 ecx, DWORD PTR __$EHRec$[ebp]
  000ff	64 89 0d 00 00
	00 00		 mov	 DWORD PTR fs:0, ecx
  00106	59		 pop	 ecx
  00107	5f		 pop	 edi
  00108	5e		 pop	 esi
  00109	5b		 pop	 ebx
  0010a	8b e5		 mov	 esp, ebp
  0010c	5d		 pop	 ebp
  0010d	c2 04 00	 ret	 4
$LN123@CreateHous:
; File C:\Program Files\Microsoft Visual Studio\2022\Professional\VC\Tools\MSVC\14.44.35207\include\xtree

; 1649 :             _Throw_tree_length_error();

  00110	e8 00 00 00 00	 call	 ?_Throw_tree_length_error@std@@YAXXZ ; std::_Throw_tree_length_error
$LN121@CreateHous:
  00115	cc		 int	 3
_TEXT	ENDS
;	COMDAT text$x
text$x	SEGMENT
__unwindfunclet$?CreateHousing@CHousingMng@@QAEPAVCHousing@@K@Z$3:
  00000	8d 4d e8	 lea	 ecx, DWORD PTR $T6[ebp]
  00003	e9 00 00 00 00	 jmp	 ??1?$_Alloc_construct_ptr@V?$allocator@U?$_Tree_node@U?$pair@$$CBKPAVCHousing@@@std@@PAX@std@@@std@@@std@@QAE@XZ ; std::_Alloc_construct_ptr<std::allocator<std::_Tree_node<std::pair<unsigned long const ,CHousing *>,void *> > >::~_Alloc_construct_ptr<std::allocator<std::_Tree_node<std::pair<unsigned long const ,CHousing *>,void *> > >
  00008	cc		 int	 3
  00009	cc		 int	 3
  0000a	cc		 int	 3
  0000b	cc		 int	 3
  0000c	cc		 int	 3
__ehhandler$?CreateHousing@CHousingMng@@QAEPAVCHousing@@K@Z:
  0000d	90		 npad	 1
  0000e	90		 npad	 1
  0000f	8b 54 24 08	 mov	 edx, DWORD PTR [esp+8]
  00013	8d 42 0c	 lea	 eax, DWORD PTR [edx+12]
  00016	8b 4a cc	 mov	 ecx, DWORD PTR [edx-52]
  00019	33 c8		 xor	 ecx, eax
  0001b	e8 00 00 00 00	 call	 @__security_check_cookie@4
  00020	b8 00 00 00 00	 mov	 eax, OFFSET __ehfuncinfo$?CreateHousing@CHousingMng@@QAEPAVCHousing@@K@Z
  00025	e9 00 00 00 00	 jmp	 ___CxxFrameHandler3
text$x	ENDS
?CreateHousing@CHousingMng@@QAEPAVCHousing@@K@Z ENDP	; CHousingMng::CreateHousing
; Function compile flags: /Ogtp
; File C:\IAGOS\server\v18\Source\Source\_Common\Housing.cpp
; File C:\IAGOS\server\v18\Source\Source\DX_SDK\d3dx9math.inl
; File C:\IAGOS\server\v18\Source\Source\_Common\Housing.cpp
;	COMDAT ?GoOut@CHousingMng@@QAEXPAVCUser@@@Z
_TEXT	SEGMENT
$T1 = -16						; size = 12
__$ArrayPad$ = -4					; size = 4
_pUser$ = 8						; size = 4
?GoOut@CHousingMng@@QAEXPAVCUser@@@Z PROC		; CHousingMng::GoOut, COMDAT
; _this$ = ecx

; 623  : {

  00000	55		 push	 ebp
  00001	8b ec		 mov	 ebp, esp
  00003	83 ec 10	 sub	 esp, 16			; 00000010H
  00006	a1 00 00 00 00	 mov	 eax, DWORD PTR ___security_cookie
  0000b	33 c5		 xor	 eax, ebp
  0000d	89 45 fc	 mov	 DWORD PTR __$ArrayPad$[ebp], eax
  00010	56		 push	 esi
  00011	8b 75 08	 mov	 esi, DWORD PTR _pUser$[ebp]

; 624  : 	pUser->REPLACE( g_uIdofMulti, WI_WORLD_MADRIGAL, D3DXVECTOR3( 6985.0f, 0.0f, 3234.0f ), REPLACE_FORCE, nDefaultLayer );

  00014	8d 45 f0	 lea	 eax, DWORD PTR $T1[ebp]
  00017	6a 00		 push	 0
  00019	6a 01		 push	 1
  0001b	50		 push	 eax
  0001c	6a 01		 push	 1
  0001e	ff 35 00 00 00
	00		 push	 DWORD PTR ?g_uIdofMulti@@3KA ; g_uIdofMulti
  00024	8b ce		 mov	 ecx, esi
; File C:\IAGOS\server\v18\Source\Source\DX_SDK\d3dx9math.inl

; 300  :     x = fx;

  00026	c7 45 f0 00 48
	da 45		 mov	 DWORD PTR $T1[ebp], 1171933184 ; 45da4800H

; 301  :     y = fy;

  0002d	c7 45 f4 00 00
	00 00		 mov	 DWORD PTR $T1[ebp+4], 0

; 302  :     z = fz;

  00034	c7 45 f8 00 20
	4a 45		 mov	 DWORD PTR $T1[ebp+8], 1162485760 ; 454a2000H
; File C:\IAGOS\server\v18\Source\Source\_Common\Housing.cpp

; 624  : 	pUser->REPLACE( g_uIdofMulti, WI_WORLD_MADRIGAL, D3DXVECTOR3( 6985.0f, 0.0f, 3234.0f ), REPLACE_FORCE, nDefaultLayer );

  0003b	e8 00 00 00 00	 call	 ?Replace@CMover@@QAEHKKAAUD3DXVECTOR3@@W4REPLACE_TYPE@@H@Z ; CMover::Replace

; 625  : 	pUser->SetAngle( 50.0f );

  00040	51		 push	 ecx
  00041	8b ce		 mov	 ecx, esi
  00043	c7 04 24 00 00
	48 42		 mov	 DWORD PTR [esp], 1112014848 ; 42480000H
  0004a	e8 00 00 00 00	 call	 ?SetAngle@CObj@@QAEXM@Z	; CObj::SetAngle

; 626  : }

  0004f	8b 4d fc	 mov	 ecx, DWORD PTR __$ArrayPad$[ebp]
  00052	33 cd		 xor	 ecx, ebp
  00054	5e		 pop	 esi
  00055	e8 00 00 00 00	 call	 @__security_check_cookie@4
  0005a	8b e5		 mov	 esp, ebp
  0005c	5d		 pop	 ebp
  0005d	c2 04 00	 ret	 4
?GoOut@CHousingMng@@QAEXPAVCUser@@@Z ENDP		; CHousingMng::GoOut
_TEXT	ENDS
; Function compile flags: /Ogtp
; File C:\IAGOS\server\v18\Source\Source\_Common\Housing.cpp
; File C:\IAGOS\server\v18\Source\Source\_Common\Obj.h
; File C:\IAGOS\server\v18\Source\Source\_Common\Housing.cpp
; File C:\IAGOS\server\v18\Source\Source\_Common\Mover.h
; File C:\IAGOS\server\v18\Source\Source\_Common\Housing.cpp
; File C:\IAGOS\server\v18\Source\Source\_Common\Obj.h
; File C:\IAGOS\server\v18\Source\Source\_Common\Housing.cpp
; File C:\IAGOS\server\v18\Source\Source\_Common\Obj.h
; File C:\IAGOS\server\v18\Source\Source\_Common\Housing.cpp
; File C:\IAGOS\server\v18\Source\Source\DX_SDK\d3dx9math.inl
; File C:\IAGOS\server\v18\Source\Source\_Common\Housing.cpp
; File C:\IAGOS\server\v18\Source\Source\DX_SDK\d3dx9math.inl
; File C:\IAGOS\server\v18\Source\Source\_Common\Housing.cpp
;	COMDAT ?SetVisitRoom@CHousingMng@@QAEXPAVCUser@@K@Z
_TEXT	SEGMENT
_pWorld$1$ = -20					; size = 4
$T1 = -16						; size = 12
$T2 = -16						; size = 12
__$ArrayPad$ = -4					; size = 4
_pUser$ = 8						; size = 4
_dwPlayerId$ = 12					; size = 4
?SetVisitRoom@CHousingMng@@QAEXPAVCUser@@K@Z PROC	; CHousingMng::SetVisitRoom, COMDAT
; _this$ = ecx

; 556  : {

  00000	55		 push	 ebp
  00001	8b ec		 mov	 ebp, esp
  00003	83 ec 14	 sub	 esp, 20			; 00000014H
  00006	a1 00 00 00 00	 mov	 eax, DWORD PTR ___security_cookie
  0000b	33 c5		 xor	 eax, ebp
  0000d	89 45 fc	 mov	 DWORD PTR __$ArrayPad$[ebp], eax
  00010	53		 push	 ebx
  00011	8b 5d 0c	 mov	 ebx, DWORD PTR _dwPlayerId$[ebp]
  00014	56		 push	 esi
  00015	57		 push	 edi
  00016	8b 7d 08	 mov	 edi, DWORD PTR _pUser$[ebp]
  00019	8b f1		 mov	 esi, ecx

; 557  : 	CWorld* pWorld = g_WorldMng.GetWorld( WI_WORLD_MINIROOM );

  0001b	68 d1 00 00 00	 push	 209			; 000000d1H
  00020	b9 00 00 00 00	 mov	 ecx, OFFSET ?g_WorldMng@@3VCWorldMng@@A ; g_WorldMng
  00025	e8 00 00 00 00	 call	 ?GetWorld@CWorldMng@@QAEPAVCWorld@@K@Z ; CWorldMng::GetWorld

; 558  : 	ASSERT( pWorld );
; 559  : 	CHousing* pHousing = GetHousing( dwPlayerId );

  0002a	53		 push	 ebx
  0002b	8b ce		 mov	 ecx, esi
  0002d	89 45 ec	 mov	 DWORD PTR _pWorld$1$[ebp], eax
  00030	e8 00 00 00 00	 call	 ?GetHousing@CHousingMng@@QAEPAVCHousing@@K@Z ; CHousingMng::GetHousing
; File C:\IAGOS\server\v18\Source\Source\_Common\Obj.h

; 327  : 	return pObj && ( pObj->IsDelete() == FALSE ); 

  00035	85 ff		 test	 edi, edi
  00037	0f 84 d6 00 00
	00		 je	 $LN7@SetVisitRo

; 180  : 	BOOL			IsDelete()	{ return (m_dwFlags & OBJ_FLAG_DELETE);  }

  0003d	f6 47 04 01	 test	 BYTE PTR [edi+4], 1

; 327  : 	return pObj && ( pObj->IsDelete() == FALSE ); 

  00041	0f 85 cc 00 00
	00		 jne	 $LN7@SetVisitRo
; File C:\IAGOS\server\v18\Source\Source\_Common\Housing.cpp

; 560  : 	if( IsValidObj( pUser ) && pHousing )

  00047	85 c0		 test	 eax, eax
  00049	0f 84 c4 00 00
	00		 je	 $LN7@SetVisitRo
; File C:\IAGOS\server\v18\Source\Source\_Common\Mover.h

; 1090 : 	DWORD			IsAuthHigher( DWORD dwAuthorization ) { return dwAuthorization <= m_dwAuthorization; }

  0004f	83 bf 40 06 00
	00 4c		 cmp	 DWORD PTR [edi+1600], 76 ; 0000004cH
; File C:\IAGOS\server\v18\Source\Source\_Common\Housing.cpp

; 563  : 		if( !pUser->IsAuthHigher( AUTH_GAMEMASTER ) )	// GMŔĚ ľĆ´Ď¶ó¸é...

  00056	73 47		 jae	 SHORT $LN4@SetVisitRo

; 566  : 				|| !CNpcChecker::GetInstance()->IsCloseNpc( MMI_VISIT_FRIEND, pUser->GetWorld(), pUser->GetPos() ) ) // NPC ±ŮĂłżˇ ŔÖ´ÂÁö °Ë»ç..

  00058	ff b7 34 02 00
	00		 push	 DWORD PTR [edi+564]
  0005e	8b c8		 mov	 ecx, eax
  00060	e8 00 00 00 00	 call	 ?IsAllowVisit@CHousing@@QAEHK@Z ; CHousing::IsAllowVisit
  00065	85 c0		 test	 eax, eax
  00067	0f 84 a6 00 00
	00		 je	 $LN7@SetVisitRo
; File C:\IAGOS\server\v18\Source\Source\_Common\Obj.h

; 215  : 	D3DXVECTOR3		GetPos()	{ return m_vPos; }

  0006d	8b 87 68 01 00
	00		 mov	 eax, DWORD PTR [edi+360]
  00073	f3 0f 7e 87 60
	01 00 00	 movq	 xmm0, QWORD PTR [edi+352]
  0007b	89 45 f8	 mov	 DWORD PTR $T1[ebp+8], eax
; File C:\IAGOS\server\v18\Source\Source\_Common\Housing.cpp

; 566  : 				|| !CNpcChecker::GetInstance()->IsCloseNpc( MMI_VISIT_FRIEND, pUser->GetWorld(), pUser->GetPos() ) ) // NPC ±ŮĂłżˇ ŔÖ´ÂÁö °Ë»ç..

  0007e	8d 45 f0	 lea	 eax, DWORD PTR $T1[ebp]
  00081	50		 push	 eax
  00082	ff b7 6c 01 00
	00		 push	 DWORD PTR [edi+364]
; File C:\IAGOS\server\v18\Source\Source\_Common\Obj.h

; 215  : 	D3DXVECTOR3		GetPos()	{ return m_vPos; }

  00088	66 0f d6 45 f0	 movq	 QWORD PTR $T1[ebp], xmm0
; File C:\IAGOS\server\v18\Source\Source\_Common\Housing.cpp

; 566  : 				|| !CNpcChecker::GetInstance()->IsCloseNpc( MMI_VISIT_FRIEND, pUser->GetWorld(), pUser->GetPos() ) ) // NPC ±ŮĂłżˇ ŔÖ´ÂÁö °Ë»ç..

  0008d	6a 7b		 push	 123			; 0000007bH
  0008f	e8 00 00 00 00	 call	 ?GetInstance@CNpcChecker@@SAPAV1@XZ ; CNpcChecker::GetInstance
  00094	8b c8		 mov	 ecx, eax
  00096	e8 00 00 00 00	 call	 ?IsCloseNpc@CNpcChecker@@QAEHHPAVCWorld@@AAUD3DXVECTOR3@@@Z ; CNpcChecker::IsCloseNpc
  0009b	85 c0		 test	 eax, eax
  0009d	74 74		 je	 SHORT $LN7@SetVisitRo
$LN4@SetVisitRo:

; 567  : 				return;
; 568  : 		}
; 569  : 		// ·ąŔĚľî°ˇ Á¸ŔçÇĎ´ÂÁö Č®ŔÎÇĎ°í ŔÔŔĺ...
; 570  : 		if( pWorld->m_linkMap.GetLinkMap( static_cast<int>( dwPlayerId ) ) )

  0009f	8b 4d ec	 mov	 ecx, DWORD PTR _pWorld$1$[ebp]
  000a2	53		 push	 ebx
  000a3	83 c1 24	 add	 ecx, 36			; 00000024H
  000a6	e8 00 00 00 00	 call	 ?GetLinkMap@CLayeredLinkMap@@QAEPAVCLinkMap@@H@Z ; CLayeredLinkMap::GetLinkMap
  000ab	85 c0		 test	 eax, eax
  000ad	74 64		 je	 SHORT $LN7@SetVisitRo

; 572  : 			if( pUser->REPLACE( g_uIdofMulti, WI_WORLD_MINIROOM, D3DXVECTOR3( 253.0f, 105.0f, 243.0f ), REPLACE_NORMAL, static_cast<int>( dwPlayerId ) ) )

  000af	53		 push	 ebx
  000b0	6a 00		 push	 0
  000b2	8d 45 f0	 lea	 eax, DWORD PTR $T2[ebp]
; File C:\IAGOS\server\v18\Source\Source\DX_SDK\d3dx9math.inl

; 300  :     x = fx;

  000b5	c7 45 f0 00 00
	7d 43		 mov	 DWORD PTR $T2[ebp], 1132265472 ; 437d0000H
; File C:\IAGOS\server\v18\Source\Source\_Common\Housing.cpp

; 572  : 			if( pUser->REPLACE( g_uIdofMulti, WI_WORLD_MINIROOM, D3DXVECTOR3( 253.0f, 105.0f, 243.0f ), REPLACE_NORMAL, static_cast<int>( dwPlayerId ) ) )

  000bc	50		 push	 eax
  000bd	68 d1 00 00 00	 push	 209			; 000000d1H
  000c2	ff 35 00 00 00
	00		 push	 DWORD PTR ?g_uIdofMulti@@3KA ; g_uIdofMulti
  000c8	8b cf		 mov	 ecx, edi
; File C:\IAGOS\server\v18\Source\Source\DX_SDK\d3dx9math.inl

; 301  :     y = fy;

  000ca	c7 45 f4 00 00
	d2 42		 mov	 DWORD PTR $T2[ebp+4], 1121058816 ; 42d20000H

; 302  :     z = fz;

  000d1	c7 45 f8 00 00
	73 43		 mov	 DWORD PTR $T2[ebp+8], 1131610112 ; 43730000H
; File C:\IAGOS\server\v18\Source\Source\_Common\Housing.cpp

; 572  : 			if( pUser->REPLACE( g_uIdofMulti, WI_WORLD_MINIROOM, D3DXVECTOR3( 253.0f, 105.0f, 243.0f ), REPLACE_NORMAL, static_cast<int>( dwPlayerId ) ) )

  000d8	e8 00 00 00 00	 call	 ?Replace@CMover@@QAEHKKAAUD3DXVECTOR3@@W4REPLACE_TYPE@@H@Z ; CMover::Replace
  000dd	85 c0		 test	 eax, eax
  000df	74 32		 je	 SHORT $LN7@SetVisitRo

; 573  : 			{
; 574  : 				pUser->SetAngle( 175.0f );

  000e1	51		 push	 ecx
  000e2	8b cf		 mov	 ecx, edi
  000e4	c7 04 24 00 00
	2f 43		 mov	 DWORD PTR [esp], 1127153664 ; 432f0000H
  000eb	e8 00 00 00 00	 call	 ?SetAngle@CObj@@QAEXM@Z	; CObj::SetAngle

; 575  : 				pUser->AddDefinedCaption( FALSE, TID_GAME_HOUSING_ENTER, "\"%s\"", CPlayerDataCenter::GetInstance()->GetPlayerString( dwPlayerId ) );

  000f0	53		 push	 ebx
  000f1	e8 00 00 00 00	 call	 ?GetInstance@CPlayerDataCenter@@SAPAV1@XZ ; CPlayerDataCenter::GetInstance
  000f6	8b c8		 mov	 ecx, eax
  000f8	e8 00 00 00 00	 call	 ?GetPlayerString@CPlayerDataCenter@@QAEPBDK@Z ; CPlayerDataCenter::GetPlayerString
  000fd	50		 push	 eax
  000fe	68 00 00 00 00	 push	 OFFSET ??_C@_04OEDFLLKD@?$CC?$CFs?$CC@
  00103	68 05 10 00 00	 push	 4101			; 00001005H
  00108	6a 00		 push	 0
  0010a	57		 push	 edi
  0010b	e8 00 00 00 00	 call	 ?AddDefinedCaption@CUser@@QAAXHHPBDZZ ; CUser::AddDefinedCaption
  00110	83 c4 14	 add	 esp, 20			; 00000014H
$LN7@SetVisitRo:

; 576  : 			}
; 577  : 		}
; 578  : 	}
; 579  : }

  00113	8b 4d fc	 mov	 ecx, DWORD PTR __$ArrayPad$[ebp]
  00116	5f		 pop	 edi
  00117	5e		 pop	 esi
  00118	33 cd		 xor	 ecx, ebp
  0011a	5b		 pop	 ebx
  0011b	e8 00 00 00 00	 call	 @__security_check_cookie@4
  00120	8b e5		 mov	 esp, ebp
  00122	5d		 pop	 ebp
  00123	c2 08 00	 ret	 8
?SetVisitRoom@CHousingMng@@QAEXPAVCUser@@K@Z ENDP	; CHousingMng::SetVisitRoom
_TEXT	ENDS
; Function compile flags: /Ogtp
; File C:\IAGOS\server\v18\Source\Source\_Common\Housing.cpp
; File C:\Program Files\Microsoft Visual Studio\2022\Professional\VC\Tools\MSVC\14.44.35207\include\xtree
; File C:\IAGOS\server\v18\Source\Source\_Common\Housing.cpp
; File C:\Program Files\Microsoft Visual Studio\2022\Professional\VC\Tools\MSVC\14.44.35207\include\xtree
; File C:\Program Files\Microsoft Visual Studio\2022\Professional\VC\Tools\MSVC\14.44.35207\include\type_traits
; File C:\Program Files\Microsoft Visual Studio\2022\Professional\VC\Tools\MSVC\14.44.35207\include\xtree
; File C:\IAGOS\server\v18\Source\Source\_Common\Housing.cpp
;	COMDAT ?OnReqVisitableList@CHousingMng@@QAEXPAVCUser@@@Z
_TEXT	SEGMENT
__Loc$1 = -12						; size = 12
_pUser$ = 8						; size = 4
?OnReqVisitableList@CHousingMng@@QAEXPAVCUser@@@Z PROC	; CHousingMng::OnReqVisitableList, COMDAT
; _this$ = ecx

; 616  : {

  00000	55		 push	 ebp
  00001	8b ec		 mov	 ebp, esp
  00003	83 ec 0c	 sub	 esp, 12			; 0000000cH
  00006	53		 push	 ebx
  00007	56		 push	 esi
  00008	57		 push	 edi

; 617  : 	MAP_VSTABLE::iterator it = m_mapVisitable.find( pUser->m_idPlayer );

  00009	8b 7d 08	 mov	 edi, DWORD PTR _pUser$[ebp]
; File C:\Program Files\Microsoft Visual Studio\2022\Professional\VC\Tools\MSVC\14.44.35207\include\xtree

; 1384 :         const _Tree_find_result<_Nodeptr> _Loc = _Find_lower_bound(_Keyval);

  0000c	8d 45 f4	 lea	 eax, DWORD PTR __Loc$1[ebp]
; File C:\IAGOS\server\v18\Source\Source\_Common\Housing.cpp

; 616  : {

  0000f	8b d9		 mov	 ebx, ecx

; 617  : 	MAP_VSTABLE::iterator it = m_mapVisitable.find( pUser->m_idPlayer );

  00011	8d b7 34 02 00
	00		 lea	 esi, DWORD PTR [edi+564]
; File C:\Program Files\Microsoft Visual Studio\2022\Professional\VC\Tools\MSVC\14.44.35207\include\xtree

; 1384 :         const _Tree_find_result<_Nodeptr> _Loc = _Find_lower_bound(_Keyval);

  00017	56		 push	 esi
  00018	50		 push	 eax
  00019	e8 00 00 00 00	 call	 ??$_Find_lower_bound@K@?$_Tree@V?$_Tmap_traits@KV?$vector@KV?$allocator@K@std@@@std@@U?$less@K@2@V?$allocator@U?$pair@$$CBKV?$vector@KV?$allocator@K@std@@@std@@@std@@@2@$0A@@std@@@std@@IBE?AU?$_Tree_find_result@PAU?$_Tree_node@U?$pair@$$CBKV?$vector@KV?$allocator@K@std@@@std@@@std@@PAX@std@@@1@ABK@Z ; std::_Tree<std::_Tmap_traits<unsigned long,std::vector<unsigned long,std::allocator<unsigned long> >,std::less<unsigned long>,std::allocator<std::pair<unsigned long const ,std::vector<unsigned long,std::allocator<unsigned long> > > >,0> >::_Find_lower_bound<unsigned long>

; 1624 :         return !_Bound->_Isnil && !_DEBUG_LT_PRED(_Getcomp(), _Keyval, _Traits::_Kfn(_Bound->_Myval));

  0001e	8b 55 fc	 mov	 edx, DWORD PTR __Loc$1[ebp+8]
  00021	80 7a 0d 00	 cmp	 BYTE PTR [edx+13], 0
  00025	75 16		 jne	 SHORT $LN2@OnReqVisit
; File C:\Program Files\Microsoft Visual Studio\2022\Professional\VC\Tools\MSVC\14.44.35207\include\type_traits

; 2380 :         return _Left < _Right;

  00027	8b 06		 mov	 eax, DWORD PTR [esi]
  00029	3b 42 10	 cmp	 eax, DWORD PTR [edx+16]
; File C:\Program Files\Microsoft Visual Studio\2022\Professional\VC\Tools\MSVC\14.44.35207\include\xtree

; 1624 :         return !_Bound->_Isnil && !_DEBUG_LT_PRED(_Getcomp(), _Keyval, _Traits::_Kfn(_Bound->_Myval));

  0002c	72 0f		 jb	 SHORT $LN2@OnReqVisit

; 37   :     _Tree_unchecked_const_iterator(_Nodeptr _Pnode, const _Mytree* _Plist) noexcept : _Ptr(_Pnode) {

  0002e	3b 13		 cmp	 edx, DWORD PTR [ebx]
; File C:\IAGOS\server\v18\Source\Source\_Common\Housing.cpp

; 618  : 	if( it != m_mapVisitable.end() )

  00030	74 0b		 je	 SHORT $LN2@OnReqVisit

; 619  : 		pUser->AddHousingVisitableList( it->second );

  00032	8d 42 14	 lea	 eax, DWORD PTR [edx+20]
  00035	8b cf		 mov	 ecx, edi
  00037	50		 push	 eax
  00038	e8 00 00 00 00	 call	 ?AddHousingVisitableList@CUser@@QAEXAAV?$vector@KV?$allocator@K@std@@@std@@@Z ; CUser::AddHousingVisitableList
$LN2@OnReqVisit:

; 620  : }

  0003d	5f		 pop	 edi
  0003e	5e		 pop	 esi
  0003f	5b		 pop	 ebx
  00040	8b e5		 mov	 esp, ebp
  00042	5d		 pop	 ebp
  00043	c2 04 00	 ret	 4
?OnReqVisitableList@CHousingMng@@QAEXPAVCUser@@@Z ENDP	; CHousingMng::OnReqVisitableList
_TEXT	ENDS
; Function compile flags: /Ogtp
; File C:\IAGOS\server\v18\Source\Source\_Common\Housing.cpp
; File C:\Program Files\Microsoft Visual Studio\2022\Professional\VC\Tools\MSVC\14.44.35207\include\xtree
; File C:\IAGOS\server\v18\Source\Source\_Common\Housing.cpp
; File C:\Program Files\Microsoft Visual Studio\2022\Professional\VC\Tools\MSVC\14.44.35207\include\xtree
; File C:\Program Files\Microsoft Visual Studio\2022\Professional\VC\Tools\MSVC\14.44.35207\include\type_traits
; File C:\Program Files\Microsoft Visual Studio\2022\Professional\VC\Tools\MSVC\14.44.35207\include\xtree
; File C:\IAGOS\server\v18\Source\Source\_Common\Housing.cpp
; File C:\Program Files\Microsoft Visual Studio\2022\Professional\VC\Tools\MSVC\14.44.35207\include\vector
; File C:\IAGOS\server\v18\Source\Source\_Common\Housing.cpp
; File C:\Program Files\Microsoft Visual Studio\2022\Professional\VC\Tools\MSVC\14.44.35207\include\vector
; File C:\IAGOS\server\v18\Source\Source\_Common\Housing.cpp
; File C:\Program Files\Microsoft Visual Studio\2022\Professional\VC\Tools\MSVC\14.44.35207\include\xutility
; File C:\Program Files\Microsoft Visual Studio\2022\Professional\VC\Tools\MSVC\14.44.35207\include\vector
; File C:\Program Files\Microsoft Visual Studio\2022\Professional\VC\Tools\MSVC\14.44.35207\include\xutility
; File C:\Program Files\Microsoft Visual Studio\2022\Professional\VC\Tools\MSVC\14.44.35207\include\vector
; File C:\IAGOS\server\v18\Source\Source\_Common\Housing.cpp
; File C:\Program Files\Microsoft Visual Studio\2022\Professional\VC\Tools\MSVC\14.44.35207\include\xtree
; File C:\Program Files\Microsoft Visual Studio\2022\Professional\VC\Tools\MSVC\14.44.35207\include\vector
; File C:\Program Files\Microsoft Visual Studio\2022\Professional\VC\Tools\MSVC\14.44.35207\include\xmemory
; File C:\IAGOS\server\v18\Source\Source\_Common\Housing.cpp
;	COMDAT ?SetRemoveVisitable@CHousingMng@@QAEXKK@Z
_TEXT	SEGMENT
__Loc$1 = -12						; size = 12
_dwPlayerId$ = 8					; size = 4
_dwTargetId$ = 12					; size = 4
?SetRemoveVisitable@CHousingMng@@QAEXKK@Z PROC		; CHousingMng::SetRemoveVisitable, COMDAT
; _this$ = ecx

; 598  : {

  00000	55		 push	 ebp
  00001	8b ec		 mov	 ebp, esp
  00003	83 ec 0c	 sub	 esp, 12			; 0000000cH
  00006	53		 push	 ebx
  00007	56		 push	 esi
; File C:\Program Files\Microsoft Visual Studio\2022\Professional\VC\Tools\MSVC\14.44.35207\include\xtree

; 1384 :         const _Tree_find_result<_Nodeptr> _Loc = _Find_lower_bound(_Keyval);

  00008	8d 45 0c	 lea	 eax, DWORD PTR _dwTargetId$[ebp]
; File C:\IAGOS\server\v18\Source\Source\_Common\Housing.cpp

; 598  : {

  0000b	8b d9		 mov	 ebx, ecx
; File C:\Program Files\Microsoft Visual Studio\2022\Professional\VC\Tools\MSVC\14.44.35207\include\xtree

; 1384 :         const _Tree_find_result<_Nodeptr> _Loc = _Find_lower_bound(_Keyval);

  0000d	50		 push	 eax
  0000e	8d 45 f4	 lea	 eax, DWORD PTR __Loc$1[ebp]
  00011	50		 push	 eax
  00012	e8 00 00 00 00	 call	 ??$_Find_lower_bound@K@?$_Tree@V?$_Tmap_traits@KV?$vector@KV?$allocator@K@std@@@std@@U?$less@K@2@V?$allocator@U?$pair@$$CBKV?$vector@KV?$allocator@K@std@@@std@@@std@@@2@$0A@@std@@@std@@IBE?AU?$_Tree_find_result@PAU?$_Tree_node@U?$pair@$$CBKV?$vector@KV?$allocator@K@std@@@std@@@std@@PAX@std@@@1@ABK@Z ; std::_Tree<std::_Tmap_traits<unsigned long,std::vector<unsigned long,std::allocator<unsigned long> >,std::less<unsigned long>,std::allocator<std::pair<unsigned long const ,std::vector<unsigned long,std::allocator<unsigned long> > > >,0> >::_Find_lower_bound<unsigned long>

; 1624 :         return !_Bound->_Isnil && !_DEBUG_LT_PRED(_Getcomp(), _Keyval, _Traits::_Kfn(_Bound->_Myval));

  00017	8b 75 fc	 mov	 esi, DWORD PTR __Loc$1[ebp+8]
  0001a	80 7e 0d 00	 cmp	 BYTE PTR [esi+13], 0
  0001e	75 70		 jne	 SHORT $LN172@SetRemoveV
; File C:\Program Files\Microsoft Visual Studio\2022\Professional\VC\Tools\MSVC\14.44.35207\include\type_traits

; 2380 :         return _Left < _Right;

  00020	8b 45 0c	 mov	 eax, DWORD PTR _dwTargetId$[ebp]
  00023	3b 46 10	 cmp	 eax, DWORD PTR [esi+16]
; File C:\Program Files\Microsoft Visual Studio\2022\Professional\VC\Tools\MSVC\14.44.35207\include\xtree

; 1624 :         return !_Bound->_Isnil && !_DEBUG_LT_PRED(_Getcomp(), _Keyval, _Traits::_Kfn(_Bound->_Myval));

  00026	72 68		 jb	 SHORT $LN172@SetRemoveV

; 37   :     _Tree_unchecked_const_iterator(_Nodeptr _Pnode, const _Mytree* _Plist) noexcept : _Ptr(_Pnode) {

  00028	3b 33		 cmp	 esi, DWORD PTR [ebx]
; File C:\IAGOS\server\v18\Source\Source\_Common\Housing.cpp

; 600  : 	if( it != m_mapVisitable.end() )

  0002a	74 64		 je	 SHORT $LN172@SetRemoveV
; File C:\Program Files\Microsoft Visual Studio\2022\Professional\VC\Tools\MSVC\14.44.35207\include\vector

; 46   :     _CONSTEXPR20 _Vector_const_iterator(_Tptr _Parg, const _Container_base* _Pvector) noexcept : _Ptr(_Parg) {

  0002c	8b 46 14	 mov	 eax, DWORD PTR [esi+20]
  0002f	8b 56 18	 mov	 edx, DWORD PTR [esi+24]

; 176  :         return !(*this == _Right);

  00032	3b c2		 cmp	 eax, edx
; File C:\IAGOS\server\v18\Source\Source\_Common\Housing.cpp

; 602  : 		for( vector<DWORD>::iterator it2=it->second.begin(); it2!=it->second.end(); it2++ )

  00034	74 5a		 je	 SHORT $LN172@SetRemoveV
  00036	57		 push	 edi
  00037	8b 7d 08	 mov	 edi, DWORD PTR _dwPlayerId$[ebp]
  0003a	66 0f 1f 44 00
	00		 npad	 6
$LL4@SetRemoveV:

; 603  : 		{
; 604  : 			if( (*it2) == dwPlayerId )

  00040	8d 48 04	 lea	 ecx, DWORD PTR [eax+4]
  00043	39 38		 cmp	 DWORD PTR [eax], edi
  00045	74 0f		 je	 SHORT $LN194@SetRemoveV
; File C:\Program Files\Microsoft Visual Studio\2022\Professional\VC\Tools\MSVC\14.44.35207\include\vector

; 82   :         ++_Ptr;

  00047	8b c1		 mov	 eax, ecx

; 176  :         return !(*this == _Right);

  00049	3b ca		 cmp	 ecx, edx
; File C:\IAGOS\server\v18\Source\Source\_Common\Housing.cpp

; 602  : 		for( vector<DWORD>::iterator it2=it->second.begin(); it2!=it->second.end(); it2++ )

  0004b	75 f3		 jne	 SHORT $LL4@SetRemoveV

; 613  : }

  0004d	5f		 pop	 edi
  0004e	5e		 pop	 esi
  0004f	5b		 pop	 ebx
  00050	8b e5		 mov	 esp, ebp
  00052	5d		 pop	 ebp
  00053	c2 08 00	 ret	 8
$LN194@SetRemoveV:
; File C:\Program Files\Microsoft Visual Studio\2022\Professional\VC\Tools\MSVC\14.44.35207\include\xutility

; 5147 :                 return _STD _Copy_memmove(_First, _Last, _Dest);

  00056	50		 push	 eax
  00057	52		 push	 edx
  00058	51		 push	 ecx
  00059	e8 00 00 00 00	 call	 ??$_Copy_memmove@PAKPAK@std@@YAPAKPAK00@Z ; std::_Copy_memmove<unsigned long *,unsigned long *>
; File C:\Program Files\Microsoft Visual Studio\2022\Professional\VC\Tools\MSVC\14.44.35207\include\vector

; 1778 :         --_Mylast;

  0005e	83 46 18 fc	 add	 DWORD PTR [esi+24], -4	; fffffffcH
; File C:\Program Files\Microsoft Visual Studio\2022\Professional\VC\Tools\MSVC\14.44.35207\include\xutility

; 5147 :                 return _STD _Copy_memmove(_First, _Last, _Dest);

  00062	83 c4 0c	 add	 esp, 12			; 0000000cH
; File C:\Program Files\Microsoft Visual Studio\2022\Professional\VC\Tools\MSVC\14.44.35207\include\vector

; 1915 :         return static_cast<size_type>(_My_data._Mylast - _My_data._Myfirst);

  00065	8b 46 18	 mov	 eax, DWORD PTR [esi+24]
  00068	2b 46 14	 sub	 eax, DWORD PTR [esi+20]
; File C:\IAGOS\server\v18\Source\Source\_Common\Housing.cpp

; 607  : 				if( it->second.size() == 0 )

  0006b	a9 fc ff ff ff	 test	 eax, -4			; fffffffcH
  00070	75 1d		 jne	 SHORT $LN205@SetRemoveV
; File C:\Program Files\Microsoft Visual Studio\2022\Professional\VC\Tools\MSVC\14.44.35207\include\xtree

; 1303 :         _Nodeptr _Erasednode = _Scary->_Extract(_Where); // node to erase

  00072	56		 push	 esi
  00073	8b cb		 mov	 ecx, ebx
  00075	e8 00 00 00 00	 call	 ?_Extract@?$_Tree_val@U?$_Tree_simple_types@U?$pair@$$CBKV?$vector@KV?$allocator@K@std@@@std@@@std@@@std@@@std@@QAEPAU?$_Tree_node@U?$pair@$$CBKV?$vector@KV?$allocator@K@std@@@std@@@std@@PAX@2@V?$_Tree_unchecked_const_iterator@V?$_Tree_val@U?$_Tree_simple_types@U?$pair@$$CBKV?$vector@KV?$allocator@K@std@@@std@@@std@@@std@@@std@@U_Iterator_base0@2@@2@@Z ; std::_Tree_val<std::_Tree_simple_types<std::pair<unsigned long const ,std::vector<unsigned long,std::allocator<unsigned long> > > > >::_Extract
  0007a	8b f0		 mov	 esi, eax

; 381  :         allocator_traits<_Alloc>::destroy(_Al, _STD addressof(_Ptr->_Myval));

  0007c	8d 4e 14	 lea	 ecx, DWORD PTR [esi+20]
; File C:\Program Files\Microsoft Visual Studio\2022\Professional\VC\Tools\MSVC\14.44.35207\include\vector

; 830  :         _Tidy();

  0007f	e8 00 00 00 00	 call	 ?_Tidy@?$vector@KV?$allocator@K@std@@@std@@AAEXXZ ; std::vector<unsigned long,std::allocator<unsigned long> >::_Tidy
; File C:\Program Files\Microsoft Visual Studio\2022\Professional\VC\Tools\MSVC\14.44.35207\include\xmemory

; 289  :         ::operator delete(_Ptr, _Bytes);

  00084	6a 20		 push	 32			; 00000020H
  00086	56		 push	 esi
  00087	e8 00 00 00 00	 call	 ??3@YAXPAXI@Z		; operator delete
  0008c	83 c4 08	 add	 esp, 8
$LN205@SetRemoveV:
  0008f	5f		 pop	 edi
$LN172@SetRemoveV:
  00090	5e		 pop	 esi
; File C:\IAGOS\server\v18\Source\Source\_Common\Housing.cpp

; 613  : }

  00091	5b		 pop	 ebx
  00092	8b e5		 mov	 esp, ebp
  00094	5d		 pop	 ebp
  00095	c2 08 00	 ret	 8
?SetRemoveVisitable@CHousingMng@@QAEXKK@Z ENDP		; CHousingMng::SetRemoveVisitable
_TEXT	ENDS
; Function compile flags: /Ogtp
; File C:\IAGOS\server\v18\Source\Source\_Common\Housing.cpp
; File C:\Program Files\Microsoft Visual Studio\2022\Professional\VC\Tools\MSVC\14.44.35207\include\xtree
; File C:\Program Files\Microsoft Visual Studio\2022\Professional\VC\Tools\MSVC\14.44.35207\include\type_traits
; File C:\Program Files\Microsoft Visual Studio\2022\Professional\VC\Tools\MSVC\14.44.35207\include\xtree
; File C:\Program Files\Microsoft Visual Studio\2022\Professional\VC\Tools\MSVC\14.44.35207\include\type_traits
; File C:\Program Files\Microsoft Visual Studio\2022\Professional\VC\Tools\MSVC\14.44.35207\include\xtree
; File C:\IAGOS\server\v18\Source\Source\_Common\Project.h
; File C:\IAGOS\server\v18\Source\Source\_Common\Obj.h
; File C:\IAGOS\server\v18\Source\Source\_Common\Housing.cpp
; File C:\Program Files\Microsoft Visual Studio\2022\Professional\VC\Tools\MSVC\14.44.35207\include\xtree
; File C:\Program Files\Microsoft Visual Studio\2022\Professional\VC\Tools\MSVC\14.44.35207\include\type_traits
; File C:\Program Files\Microsoft Visual Studio\2022\Professional\VC\Tools\MSVC\14.44.35207\include\xtree
; File C:\IAGOS\server\v18\Source\Source\_Common\Housing.cpp
; File C:\Program Files\Microsoft Visual Studio\2022\Professional\VC\Tools\MSVC\14.44.35207\include\vector
; File C:\IAGOS\server\v18\Source\Source\_Common\Housing.cpp
; File C:\Program Files\Microsoft Visual Studio\2022\Professional\VC\Tools\MSVC\14.44.35207\include\vector
; File C:\IAGOS\server\v18\Source\Source\_Common\Housing.cpp
; File C:\Program Files\Microsoft Visual Studio\2022\Professional\VC\Tools\MSVC\14.44.35207\include\vector
; File C:\IAGOS\server\v18\Source\Source\_Common\Housing.cpp
; File C:\Program Files\Microsoft Visual Studio\2022\Professional\VC\Tools\MSVC\14.44.35207\include\vector
; File C:\IAGOS\server\v18\Source\Source\_Common\Housing.cpp
; File C:\Program Files\Microsoft Visual Studio\2022\Professional\VC\Tools\MSVC\14.44.35207\include\vector
; File C:\Program Files\Microsoft Visual Studio\2022\Professional\VC\Tools\MSVC\14.44.35207\include\utility
; File C:\Program Files\Microsoft Visual Studio\2022\Professional\VC\Tools\MSVC\14.44.35207\include\vector
; File C:\Program Files\Microsoft Visual Studio\2022\Professional\VC\Tools\MSVC\14.44.35207\include\xmemory
; File C:\Program Files\Microsoft Visual Studio\2022\Professional\VC\Tools\MSVC\14.44.35207\include\vector
; File C:\Program Files\Microsoft Visual Studio\2022\Professional\VC\Tools\MSVC\14.44.35207\include\xmemory
; File C:\Program Files\Microsoft Visual Studio\2022\Professional\VC\Tools\MSVC\14.44.35207\include\vector
; File C:\Program Files\Microsoft Visual Studio\2022\Professional\VC\Tools\MSVC\14.44.35207\include\xmemory
; File C:\Program Files\Microsoft Visual Studio\2022\Professional\VC\Tools\MSVC\14.44.35207\include\vector
; File C:\Program Files\Microsoft Visual Studio\2022\Professional\VC\Tools\MSVC\14.44.35207\include\xmemory
; File C:\Program Files\Microsoft Visual Studio\2022\Professional\VC\Tools\MSVC\14.44.35207\include\vector
; File C:\Program Files\Microsoft Visual Studio\2022\Professional\VC\Tools\MSVC\14.44.35207\include\xmemory
; File C:\Program Files\Microsoft Visual Studio\2022\Professional\VC\Tools\MSVC\14.44.35207\include\vector
; File C:\Program Files\Microsoft Visual Studio\2022\Professional\VC\Tools\MSVC\14.44.35207\include\xtree
; File C:\IAGOS\server\v18\Source\Source\_Common\Housing.cpp
; File C:\Program Files\Microsoft Visual Studio\2022\Professional\VC\Tools\MSVC\14.44.35207\include\xtree
; File C:\Program Files\Microsoft Visual Studio\2022\Professional\VC\Tools\MSVC\14.44.35207\include\type_traits
; File C:\Program Files\Microsoft Visual Studio\2022\Professional\VC\Tools\MSVC\14.44.35207\include\xtree
; File C:\Program Files\Microsoft Visual Studio\2022\Professional\VC\Tools\MSVC\14.44.35207\include\xmemory
; File C:\Program Files\Microsoft Visual Studio\2022\Professional\VC\Tools\MSVC\14.44.35207\include\xtree
; File C:\Program Files\Microsoft Visual Studio\2022\Professional\VC\Tools\MSVC\14.44.35207\include\xmemory
; File C:\Program Files\Microsoft Visual Studio\2022\Professional\VC\Tools\MSVC\14.44.35207\include\utility
; File C:\Program Files\Microsoft Visual Studio\2022\Professional\VC\Tools\MSVC\14.44.35207\include\xmemory
; File C:\Program Files\Microsoft Visual Studio\2022\Professional\VC\Tools\MSVC\14.44.35207\include\utility
; File C:\Program Files\Microsoft Visual Studio\2022\Professional\VC\Tools\MSVC\14.44.35207\include\vector
; File C:\Program Files\Microsoft Visual Studio\2022\Professional\VC\Tools\MSVC\14.44.35207\include\utility
; File C:\Program Files\Microsoft Visual Studio\2022\Professional\VC\Tools\MSVC\14.44.35207\include\vector
; File C:\Program Files\Microsoft Visual Studio\2022\Professional\VC\Tools\MSVC\14.44.35207\include\xtree
; File C:\Program Files\Microsoft Visual Studio\2022\Professional\VC\Tools\MSVC\14.44.35207\include\vector
; File C:\Program Files\Microsoft Visual Studio\2022\Professional\VC\Tools\MSVC\14.44.35207\include\xtree
; File C:\Program Files\Microsoft Visual Studio\2022\Professional\VC\Tools\MSVC\14.44.35207\include\vector
; File C:\Program Files\Microsoft Visual Studio\2022\Professional\VC\Tools\MSVC\14.44.35207\include\xmemory
; File C:\Program Files\Microsoft Visual Studio\2022\Professional\VC\Tools\MSVC\14.44.35207\include\vector
; File C:\Program Files\Microsoft Visual Studio\2022\Professional\VC\Tools\MSVC\14.44.35207\include\xmemory
; File C:\Program Files\Microsoft Visual Studio\2022\Professional\VC\Tools\MSVC\14.44.35207\include\vector
; File C:\Program Files\Microsoft Visual Studio\2022\Professional\VC\Tools\MSVC\14.44.35207\include\xmemory
; File C:\IAGOS\server\v18\Source\Source\_Common\Housing.cpp
; File C:\Program Files\Microsoft Visual Studio\2022\Professional\VC\Tools\MSVC\14.44.35207\include\vector
; File C:\Program Files\Microsoft Visual Studio\2022\Professional\VC\Tools\MSVC\14.44.35207\include\xtree
; File C:\Program Files\Microsoft Visual Studio\2022\Professional\VC\Tools\MSVC\14.44.35207\include\xmemory
; File C:\IAGOS\server\v18\Source\Source\_Common\Housing.cpp
;	COMDAT ?SetAddVisitable@CHousingMng@@QAEXKK@Z
_TEXT	SEGMENT
$T3 = -68						; size = 16
__Loc$4 = -52						; size = 12
__Loc$5 = -52						; size = 12
_vecTemp$6 = -40					; size = 12
$T7 = -28						; size = 12
$T8 = -24						; size = 8
_this$1$ = -16						; size = 4
__$EHRec$ = -12						; size = 12
_dwPlayerId$ = 8					; size = 4
__ULast$1$ = 8						; size = 4
_dwTargetId$ = 12					; size = 4
?SetAddVisitable@CHousingMng@@QAEXKK@Z PROC		; CHousingMng::SetAddVisitable, COMDAT
; _this$ = ecx

; 582  : {

  00000	55		 push	 ebp
  00001	8b ec		 mov	 ebp, esp
  00003	6a ff		 push	 -1
  00005	68 00 00 00 00	 push	 __ehhandler$?SetAddVisitable@CHousingMng@@QAEXKK@Z
  0000a	64 a1 00 00 00
	00		 mov	 eax, DWORD PTR fs:0
  00010	50		 push	 eax
  00011	83 ec 38	 sub	 esp, 56			; 00000038H
  00014	53		 push	 ebx
  00015	56		 push	 esi
  00016	57		 push	 edi
  00017	a1 00 00 00 00	 mov	 eax, DWORD PTR ___security_cookie
  0001c	33 c5		 xor	 eax, ebp
  0001e	50		 push	 eax
  0001f	8d 45 f4	 lea	 eax, DWORD PTR __$EHRec$[ebp]
  00022	64 a3 00 00 00
	00		 mov	 DWORD PTR fs:0, eax
  00028	89 4d f0	 mov	 DWORD PTR _this$1$[ebp], ecx
; File C:\Program Files\Microsoft Visual Studio\2022\Professional\VC\Tools\MSVC\14.44.35207\include\xtree

; 1630 :         _Tree_find_result<_Nodeptr> _Result{{_Scary->_Myhead->_Parent, _Tree_child::_Right}, _Scary->_Myhead};

  0002b	8b 3d 28 00 00
	00		 mov	 edi, DWORD PTR ?prj@@3VCProject@@A+40
  00031	8b d7		 mov	 edx, edi

; 1631 :         _Nodeptr _Trynode = _Result._Location._Parent;
; 1632 :         while (!_Trynode->_Isnil) {

  00033	8b 75 08	 mov	 esi, DWORD PTR _dwPlayerId$[ebp]
  00036	8b 47 04	 mov	 eax, DWORD PTR [edi+4]
  00039	80 78 0d 00	 cmp	 BYTE PTR [eax+13], 0
  0003d	75 15		 jne	 SHORT $LN19@SetAddVisi
  0003f	90		 npad	 1
$LL18@SetAddVisi:
; File C:\Program Files\Microsoft Visual Studio\2022\Professional\VC\Tools\MSVC\14.44.35207\include\type_traits

; 2380 :         return _Left < _Right;

  00040	39 70 10	 cmp	 DWORD PTR [eax+16], esi
; File C:\Program Files\Microsoft Visual Studio\2022\Professional\VC\Tools\MSVC\14.44.35207\include\xtree

; 1634 :             if (_DEBUG_LT_PRED(_Getcomp(), _Traits::_Kfn(_Trynode->_Myval), _Keyval)) {

  00043	73 05		 jae	 SHORT $LN20@SetAddVisi

; 1635 :                 _Result._Location._Child = _Tree_child::_Right;
; 1636 :                 _Trynode                 = _Trynode->_Right;

  00045	8b 40 08	 mov	 eax, DWORD PTR [eax+8]

; 1637 :             } else {

  00048	eb 04		 jmp	 SHORT $LN21@SetAddVisi
$LN20@SetAddVisi:

; 1638 :                 _Result._Location._Child = _Tree_child::_Left;
; 1639 :                 _Result._Bound           = _Trynode;

  0004a	8b d0		 mov	 edx, eax

; 1640 :                 _Trynode                 = _Trynode->_Left;

  0004c	8b 00		 mov	 eax, DWORD PTR [eax]
$LN21@SetAddVisi:

; 1631 :         _Nodeptr _Trynode = _Result._Location._Parent;
; 1632 :         while (!_Trynode->_Isnil) {

  0004e	80 78 0d 00	 cmp	 BYTE PTR [eax+13], 0
  00052	74 ec		 je	 SHORT $LL18@SetAddVisi
$LN19@SetAddVisi:

; 1624 :         return !_Bound->_Isnil && !_DEBUG_LT_PRED(_Getcomp(), _Keyval, _Traits::_Kfn(_Bound->_Myval));

  00054	80 7a 0d 00	 cmp	 BYTE PTR [edx+13], 0
  00058	75 05		 jne	 SHORT $LN15@SetAddVisi
; File C:\Program Files\Microsoft Visual Studio\2022\Professional\VC\Tools\MSVC\14.44.35207\include\type_traits

; 2380 :         return _Left < _Right;

  0005a	3b 72 10	 cmp	 esi, DWORD PTR [edx+16]
; File C:\Program Files\Microsoft Visual Studio\2022\Professional\VC\Tools\MSVC\14.44.35207\include\xtree

; 1624 :         return !_Bound->_Isnil && !_DEBUG_LT_PRED(_Getcomp(), _Keyval, _Traits::_Kfn(_Bound->_Myval));

  0005d	73 02		 jae	 SHORT $LN14@SetAddVisi
$LN15@SetAddVisi:

; 1389 :         return _Get_scary()->_Myhead;

  0005f	8b d7		 mov	 edx, edi
$LN14@SetAddVisi:

; 37   :     _Tree_unchecked_const_iterator(_Nodeptr _Pnode, const _Mytree* _Plist) noexcept : _Ptr(_Pnode) {

  00061	3b d7		 cmp	 edx, edi
; File C:\IAGOS\server\v18\Source\Source\_Common\Project.h

; 1436 : 	if( i != m_idPlayerToUserPtr.end() )

  00063	0f 84 2e 02 00
	00		 je	 $LN3@SetAddVisi

; 1437 : 		return i->second;

  00069	8b 4a 14	 mov	 ecx, DWORD PTR [edx+20]
; File C:\IAGOS\server\v18\Source\Source\_Common\Obj.h

; 327  : 	return pObj && ( pObj->IsDelete() == FALSE ); 

  0006c	85 c9		 test	 ecx, ecx
  0006e	0f 84 23 02 00
	00		 je	 $LN3@SetAddVisi

; 180  : 	BOOL			IsDelete()	{ return (m_dwFlags & OBJ_FLAG_DELETE);  }

  00074	f6 41 04 01	 test	 BYTE PTR [ecx+4], 1

; 327  : 	return pObj && ( pObj->IsDelete() == FALSE ); 

  00078	0f 85 19 02 00
	00		 jne	 $LN3@SetAddVisi
; File C:\IAGOS\server\v18\Source\Source\_Common\Housing.cpp

; 584  : 	if( !IsValidObj( pUser ) || !pUser->m_RTMessenger.GetFriend( dwTargetId ) )

  0007e	8b 5d 0c	 mov	 ebx, DWORD PTR _dwTargetId$[ebp]
  00081	81 c1 44 8e 00
	00		 add	 ecx, 36420		; 00008e44H
  00087	53		 push	 ebx
  00088	e8 00 00 00 00	 call	 ?GetFriend@CRTMessenger@@QAEPAU_Friend@@K@Z ; CRTMessenger::GetFriend
  0008d	85 c0		 test	 eax, eax
  0008f	0f 84 02 02 00
	00		 je	 $LN3@SetAddVisi
; File C:\Program Files\Microsoft Visual Studio\2022\Professional\VC\Tools\MSVC\14.44.35207\include\xtree

; 1384 :         const _Tree_find_result<_Nodeptr> _Loc = _Find_lower_bound(_Keyval);

  00095	8b 7d f0	 mov	 edi, DWORD PTR _this$1$[ebp]
  00098	8d 45 0c	 lea	 eax, DWORD PTR _dwTargetId$[ebp]
  0009b	50		 push	 eax
  0009c	8d 45 cc	 lea	 eax, DWORD PTR __Loc$4[ebp]
  0009f	8b cf		 mov	 ecx, edi
  000a1	50		 push	 eax
  000a2	e8 00 00 00 00	 call	 ??$_Find_lower_bound@K@?$_Tree@V?$_Tmap_traits@KV?$vector@KV?$allocator@K@std@@@std@@U?$less@K@2@V?$allocator@U?$pair@$$CBKV?$vector@KV?$allocator@K@std@@@std@@@std@@@2@$0A@@std@@@std@@IBE?AU?$_Tree_find_result@PAU?$_Tree_node@U?$pair@$$CBKV?$vector@KV?$allocator@K@std@@@std@@@std@@PAX@std@@@1@ABK@Z ; std::_Tree<std::_Tmap_traits<unsigned long,std::vector<unsigned long,std::allocator<unsigned long> >,std::less<unsigned long>,std::allocator<std::pair<unsigned long const ,std::vector<unsigned long,std::allocator<unsigned long> > > >,0> >::_Find_lower_bound<unsigned long>

; 1624 :         return !_Bound->_Isnil && !_DEBUG_LT_PRED(_Getcomp(), _Keyval, _Traits::_Kfn(_Bound->_Myval));

  000a7	8b 4d d4	 mov	 ecx, DWORD PTR __Loc$4[ebp+8]
  000aa	80 79 0d 00	 cmp	 BYTE PTR [ecx+13], 0
  000ae	75 4c		 jne	 SHORT $LN4@SetAddVisi
; File C:\Program Files\Microsoft Visual Studio\2022\Professional\VC\Tools\MSVC\14.44.35207\include\type_traits

; 2380 :         return _Left < _Right;

  000b0	3b 59 10	 cmp	 ebx, DWORD PTR [ecx+16]
; File C:\Program Files\Microsoft Visual Studio\2022\Professional\VC\Tools\MSVC\14.44.35207\include\xtree

; 1624 :         return !_Bound->_Isnil && !_DEBUG_LT_PRED(_Getcomp(), _Keyval, _Traits::_Kfn(_Bound->_Myval));

  000b3	72 47		 jb	 SHORT $LN4@SetAddVisi

; 37   :     _Tree_unchecked_const_iterator(_Nodeptr _Pnode, const _Mytree* _Plist) noexcept : _Ptr(_Pnode) {

  000b5	3b 0f		 cmp	 ecx, DWORD PTR [edi]
; File C:\IAGOS\server\v18\Source\Source\_Common\Housing.cpp

; 587  : 	if( it != m_mapVisitable.end() )

  000b7	74 43		 je	 SHORT $LN4@SetAddVisi
; File C:\Program Files\Microsoft Visual Studio\2022\Professional\VC\Tools\MSVC\14.44.35207\include\vector

; 844  :         if (_Mylast != _My_data._Myend) {

  000b9	8b 41 18	 mov	 eax, DWORD PTR [ecx+24]
; File C:\IAGOS\server\v18\Source\Source\_Common\Housing.cpp

; 588  : 		it->second.push_back( dwPlayerId );

  000bc	83 c1 14	 add	 ecx, 20			; 00000014H
; File C:\Program Files\Microsoft Visual Studio\2022\Professional\VC\Tools\MSVC\14.44.35207\include\vector

; 844  :         if (_Mylast != _My_data._Myend) {

  000bf	3b 41 08	 cmp	 eax, DWORD PTR [ecx+8]
  000c2	74 1a		 je	 SHORT $LN126@SetAddVisi

; 860  :             _STD _Construct_in_place(*_Mylast, _STD forward<_Valty>(_Val)...);

  000c4	89 30		 mov	 DWORD PTR [eax], esi

; 861  :         } else {
; 862  :             _ASAN_VECTOR_EXTEND_GUARD(static_cast<size_type>(_Mylast - _My_data._Myfirst) + 1);
; 863  :             _Alty_traits::construct(_Getal(), _Unfancy(_Mylast), _STD forward<_Valty>(_Val)...);
; 864  :             _ASAN_VECTOR_RELEASE_GUARD;
; 865  :         }
; 866  : 
; 867  :         _Orphan_range(_Mylast, _Mylast);
; 868  :         _Ty& _Result = *_Mylast;
; 869  :         ++_Mylast;

  000c6	83 41 04 04	 add	 DWORD PTR [ecx+4], 4
; File C:\IAGOS\server\v18\Source\Source\_Common\Housing.cpp

; 595  : }

  000ca	8b 4d f4	 mov	 ecx, DWORD PTR __$EHRec$[ebp]
  000cd	64 89 0d 00 00
	00 00		 mov	 DWORD PTR fs:0, ecx
  000d4	59		 pop	 ecx
  000d5	5f		 pop	 edi
  000d6	5e		 pop	 esi
  000d7	5b		 pop	 ebx
  000d8	8b e5		 mov	 esp, ebp
  000da	5d		 pop	 ebp
  000db	c2 08 00	 ret	 8
$LN126@SetAddVisi:
; File C:\Program Files\Microsoft Visual Studio\2022\Professional\VC\Tools\MSVC\14.44.35207\include\vector

; 848  :         return *_Emplace_reallocate(_Mylast, _STD forward<_Valty>(_Val)...);

  000de	8d 55 08	 lea	 edx, DWORD PTR _dwPlayerId$[ebp]
  000e1	52		 push	 edx
  000e2	50		 push	 eax
  000e3	e8 00 00 00 00	 call	 ??$_Emplace_reallocate@ABK@?$vector@KV?$allocator@K@std@@@std@@AAEPAKQAKABK@Z ; std::vector<unsigned long,std::allocator<unsigned long> >::_Emplace_reallocate<unsigned long const &>
; File C:\IAGOS\server\v18\Source\Source\_Common\Housing.cpp

; 595  : }

  000e8	8b 4d f4	 mov	 ecx, DWORD PTR __$EHRec$[ebp]
  000eb	64 89 0d 00 00
	00 00		 mov	 DWORD PTR fs:0, ecx
  000f2	59		 pop	 ecx
  000f3	5f		 pop	 edi
  000f4	5e		 pop	 esi
  000f5	5b		 pop	 ebx
  000f6	8b e5		 mov	 esp, ebp
  000f8	5d		 pop	 ebp
  000f9	c2 08 00	 ret	 8
$LN4@SetAddVisi:
; File C:\Program Files\Microsoft Visual Studio\2022\Professional\VC\Tools\MSVC\14.44.35207\include\vector

; 400  :     _CONSTEXPR20 _Vector_val() noexcept : _Myfirst(), _Mylast(), _Myend() {}

  000fc	c7 45 d8 00 00
	00 00		 mov	 DWORD PTR _vecTemp$6[ebp], 0
  00103	c7 45 dc 00 00
	00 00		 mov	 DWORD PTR _vecTemp$6[ebp+4], 0
  0010a	c7 45 e0 00 00
	00 00		 mov	 DWORD PTR _vecTemp$6[ebp+8], 0

; 848  :         return *_Emplace_reallocate(_Mylast, _STD forward<_Valty>(_Val)...);

  00111	8d 45 08	 lea	 eax, DWORD PTR _dwPlayerId$[ebp]
; File C:\IAGOS\server\v18\Source\Source\_Common\Housing.cpp

; 591  : 		vector<DWORD> vecTemp;

  00114	c7 45 fc 00 00
	00 00		 mov	 DWORD PTR __$EHRec$[ebp+8], 0
; File C:\Program Files\Microsoft Visual Studio\2022\Professional\VC\Tools\MSVC\14.44.35207\include\vector

; 848  :         return *_Emplace_reallocate(_Mylast, _STD forward<_Valty>(_Val)...);

  0011b	50		 push	 eax
  0011c	6a 00		 push	 0
  0011e	8d 4d d8	 lea	 ecx, DWORD PTR _vecTemp$6[ebp]
  00121	e8 00 00 00 00	 call	 ??$_Emplace_reallocate@ABK@?$vector@KV?$allocator@K@std@@@std@@AAEPAKQAKABK@Z ; std::vector<unsigned long,std::allocator<unsigned long> >::_Emplace_reallocate<unsigned long const &>

; 748  :         const auto _Count       = static_cast<size_type>(_Right_data._Mylast - _Right_data._Myfirst);

  00126	8b 4d dc	 mov	 ecx, DWORD PTR _vecTemp$6[ebp+4]

; 400  :     _CONSTEXPR20 _Vector_val() noexcept : _Myfirst(), _Mylast(), _Myend() {}

  00129	33 ff		 xor	 edi, edi

; 748  :         const auto _Count       = static_cast<size_type>(_Right_data._Mylast - _Right_data._Myfirst);

  0012b	8b 75 d8	 mov	 esi, DWORD PTR _vecTemp$6[ebp]
  0012e	8b c1		 mov	 eax, ecx
  00130	2b c6		 sub	 eax, esi
; File C:\Program Files\Microsoft Visual Studio\2022\Professional\VC\Tools\MSVC\14.44.35207\include\utility

; 274  :         : first(_STD forward<_Other1>(_Val1)), second(_STD forward<_Other2>(_Val2)) {

  00132	89 5d bc	 mov	 DWORD PTR $T3[ebp], ebx
; File C:\Program Files\Microsoft Visual Studio\2022\Professional\VC\Tools\MSVC\14.44.35207\include\vector

; 400  :     _CONSTEXPR20 _Vector_val() noexcept : _Myfirst(), _Mylast(), _Myend() {}

  00135	33 db		 xor	 ebx, ebx

; 748  :         const auto _Count       = static_cast<size_type>(_Right_data._Mylast - _Right_data._Myfirst);

  00137	c1 f8 02	 sar	 eax, 2

; 400  :     _CONSTEXPR20 _Vector_val() noexcept : _Myfirst(), _Mylast(), _Myend() {}

  0013a	89 5d c0	 mov	 DWORD PTR $T3[ebp+4], ebx
  0013d	89 5d c4	 mov	 DWORD PTR $T3[ebp+8], ebx
  00140	89 7d c8	 mov	 DWORD PTR $T3[ebp+12], edi

; 748  :         const auto _Count       = static_cast<size_type>(_Right_data._Mylast - _Right_data._Myfirst);

  00143	89 4d 08	 mov	 DWORD PTR __ULast$1$[ebp], ecx

; 2111 :         if (_Count != 0) {

  00146	85 c0		 test	 eax, eax
  00148	74 5d		 je	 SHORT $LN196@SetAddVisi

; 2051 :         if (_Newcapacity > max_size()) {

  0014a	3d ff ff ff 3f	 cmp	 eax, 1073741823		; 3fffffffH
  0014f	0f 87 56 01 00
	00		 ja	 $LN400@SetAddVisi
; File C:\Program Files\Microsoft Visual Studio\2022\Professional\VC\Tools\MSVC\14.44.35207\include\xmemory

; 122  :     return _Count * _Ty_size;

  00155	8d 3c 85 00 00
	00 00		 lea	 edi, DWORD PTR [eax*4]

; 227  :     if (_Bytes == 0) {

  0015c	85 ff		 test	 edi, edi
  0015e	74 23		 je	 SHORT $LN174@SetAddVisi
$LN175@SetAddVisi:

; 228  :         return nullptr;
; 229  :     }
; 230  : 
; 231  : #if _HAS_CXX20 // TRANSITION, GH-1532
; 232  :     if (_STD is_constant_evaluated()) {
; 233  :         return _Traits::_Allocate(_Bytes);
; 234  :     }
; 235  : #endif // _HAS_CXX20
; 236  : 
; 237  : #ifdef __cpp_aligned_new
; 238  :     if constexpr (_Align > __STDCPP_DEFAULT_NEW_ALIGNMENT__) {
; 239  :         size_t _Passed_align = _Align;
; 240  : #if defined(_M_IX86) || defined(_M_X64)
; 241  :         if (_Bytes >= _Big_allocation_threshold) {
; 242  :             // boost the alignment of big allocations to help autovectorization
; 243  :             _Passed_align = (_STD max)(_Align, _Big_allocation_alignment);
; 244  :         }
; 245  : #endif // defined(_M_IX86) || defined(_M_X64)
; 246  :         return _Traits::_Allocate_aligned(_Bytes, _Passed_align);
; 247  :     } else
; 248  : #endif // defined(__cpp_aligned_new)
; 249  :     {
; 250  : #if defined(_M_IX86) || defined(_M_X64)
; 251  :         if (_Bytes >= _Big_allocation_threshold) {

  00160	57		 push	 edi
  00161	81 ff 00 10 00
	00		 cmp	 edi, 4096		; 00001000H
  00167	72 07		 jb	 SHORT $LN176@SetAddVisi

; 252  :             // boost the alignment of big allocations to help autovectorization
; 253  :             return _Allocate_manually_vector_aligned<_Traits>(_Bytes);

  00169	e8 00 00 00 00	 call	 ??$_Allocate_manually_vector_aligned@U_Default_allocate_traits@std@@@std@@YAPAXI@Z ; std::_Allocate_manually_vector_aligned<std::_Default_allocate_traits>
  0016e	eb 05		 jmp	 SHORT $LN398@SetAddVisi
$LN176@SetAddVisi:

; 136  :         return ::operator new(_Bytes);

  00170	e8 00 00 00 00	 call	 ??2@YAPAXI@Z		; operator new
$LN398@SetAddVisi:
; File C:\Program Files\Microsoft Visual Studio\2022\Professional\VC\Tools\MSVC\14.44.35207\include\vector

; 2035 :         _Myfirst              = _Newvec;

  00175	8b 4d dc	 mov	 ecx, DWORD PTR _vecTemp$6[ebp+4]
  00178	8b d8		 mov	 ebx, eax
  0017a	8b 75 d8	 mov	 esi, DWORD PTR _vecTemp$6[ebp]
  0017d	83 c4 04	 add	 esp, 4
  00180	89 4d 08	 mov	 DWORD PTR __ULast$1$[ebp], ecx
$LN174@SetAddVisi:
; File C:\Program Files\Microsoft Visual Studio\2022\Professional\VC\Tools\MSVC\14.44.35207\include\xmemory

; 1889 :                 _STD _Copy_memmove(_STD _To_address(_UFirst), _STD _To_address(_ULast), _STD _Unfancy(_Dest));

  00183	53		 push	 ebx
  00184	51		 push	 ecx
; File C:\Program Files\Microsoft Visual Studio\2022\Professional\VC\Tools\MSVC\14.44.35207\include\vector

; 2037 :         _Myend                = _Newvec + _Newcapacity;

  00185	03 fb		 add	 edi, ebx
  00187	89 5d c0	 mov	 DWORD PTR $T3[ebp+4], ebx
; File C:\Program Files\Microsoft Visual Studio\2022\Professional\VC\Tools\MSVC\14.44.35207\include\xmemory

; 1889 :                 _STD _Copy_memmove(_STD _To_address(_UFirst), _STD _To_address(_ULast), _STD _Unfancy(_Dest));

  0018a	56		 push	 esi
; File C:\Program Files\Microsoft Visual Studio\2022\Professional\VC\Tools\MSVC\14.44.35207\include\vector

; 2037 :         _Myend                = _Newvec + _Newcapacity;

  0018b	89 7d c8	 mov	 DWORD PTR $T3[ebp+12], edi
; File C:\Program Files\Microsoft Visual Studio\2022\Professional\VC\Tools\MSVC\14.44.35207\include\xmemory

; 1889 :                 _STD _Copy_memmove(_STD _To_address(_UFirst), _STD _To_address(_ULast), _STD _Unfancy(_Dest));

  0018e	e8 00 00 00 00	 call	 ??$_Copy_memmove@PAKPAK@std@@YAPAKPAK00@Z ; std::_Copy_memmove<unsigned long *,unsigned long *>

; 1890 :                 _Dest += _ULast - _UFirst;

  00193	8b 45 08	 mov	 eax, DWORD PTR __ULast$1$[ebp]
  00196	83 c4 0c	 add	 esp, 12			; 0000000cH
  00199	2b c6		 sub	 eax, esi
; File C:\Program Files\Microsoft Visual Studio\2022\Professional\VC\Tools\MSVC\14.44.35207\include\vector

; 2120 :                 _My_data._Mylast = _STD _Uninitialized_copy(_STD forward<_Valty>(_Val)..., _My_data._Myfirst, _Al);

  0019b	8b 75 d8	 mov	 esi, DWORD PTR _vecTemp$6[ebp]
; File C:\Program Files\Microsoft Visual Studio\2022\Professional\VC\Tools\MSVC\14.44.35207\include\xmemory

; 1890 :                 _Dest += _ULast - _UFirst;

  0019e	c1 f8 02	 sar	 eax, 2
  001a1	8d 04 83	 lea	 eax, DWORD PTR [ebx+eax*4]
; File C:\Program Files\Microsoft Visual Studio\2022\Professional\VC\Tools\MSVC\14.44.35207\include\vector

; 2120 :                 _My_data._Mylast = _STD _Uninitialized_copy(_STD forward<_Valty>(_Val)..., _My_data._Myfirst, _Al);

  001a4	89 45 c4	 mov	 DWORD PTR $T3[ebp+8], eax
$LN196@SetAddVisi:
; File C:\Program Files\Microsoft Visual Studio\2022\Professional\VC\Tools\MSVC\14.44.35207\include\xtree

; 1017 :             _Loc                = _Find_lower_bound(_Keyval);

  001a7	8b 4d f0	 mov	 ecx, DWORD PTR _this$1$[ebp]
  001aa	8d 45 bc	 lea	 eax, DWORD PTR $T3[ebp]
  001ad	50		 push	 eax
  001ae	8d 45 e4	 lea	 eax, DWORD PTR $T7[ebp]
; File C:\IAGOS\server\v18\Source\Source\_Common\Housing.cpp

; 593  : 		m_mapVisitable.insert( MAP_VSTABLE::value_type( dwTargetId, vecTemp ) );

  001b1	c6 45 fc 01	 mov	 BYTE PTR __$EHRec$[ebp+8], 1
; File C:\Program Files\Microsoft Visual Studio\2022\Professional\VC\Tools\MSVC\14.44.35207\include\xtree

; 1017 :             _Loc                = _Find_lower_bound(_Keyval);

  001b5	50		 push	 eax
  001b6	e8 00 00 00 00	 call	 ??$_Find_lower_bound@K@?$_Tree@V?$_Tmap_traits@KV?$vector@KV?$allocator@K@std@@@std@@U?$less@K@2@V?$allocator@U?$pair@$$CBKV?$vector@KV?$allocator@K@std@@@std@@@std@@@2@$0A@@std@@@std@@IBE?AU?$_Tree_find_result@PAU?$_Tree_node@U?$pair@$$CBKV?$vector@KV?$allocator@K@std@@@std@@@std@@PAX@std@@@1@ABK@Z ; std::_Tree<std::_Tmap_traits<unsigned long,std::vector<unsigned long,std::allocator<unsigned long> >,std::less<unsigned long>,std::allocator<std::pair<unsigned long const ,std::vector<unsigned long,std::allocator<unsigned long> > > >,0> >::_Find_lower_bound<unsigned long>
  001bb	8b 48 08	 mov	 ecx, DWORD PTR [eax+8]
  001be	f3 0f 7e 00	 movq	 xmm0, QWORD PTR [eax]
  001c2	66 0f d6 45 cc	 movq	 QWORD PTR __Loc$5[ebp], xmm0

; 1624 :         return !_Bound->_Isnil && !_DEBUG_LT_PRED(_Getcomp(), _Keyval, _Traits::_Kfn(_Bound->_Myval));

  001c7	80 79 0d 00	 cmp	 BYTE PTR [ecx+13], 0
  001cb	75 08		 jne	 SHORT $LN210@SetAddVisi
; File C:\Program Files\Microsoft Visual Studio\2022\Professional\VC\Tools\MSVC\14.44.35207\include\type_traits

; 2380 :         return _Left < _Right;

  001cd	8b 45 0c	 mov	 eax, DWORD PTR _dwTargetId$[ebp]
  001d0	3b 41 10	 cmp	 eax, DWORD PTR [ecx+16]
; File C:\Program Files\Microsoft Visual Studio\2022\Professional\VC\Tools\MSVC\14.44.35207\include\xtree

; 1624 :         return !_Bound->_Isnil && !_DEBUG_LT_PRED(_Getcomp(), _Keyval, _Traits::_Kfn(_Bound->_Myval));

  001d3	73 62		 jae	 SHORT $LN324@SetAddVisi
$LN210@SetAddVisi:

; 1648 :         if (max_size() == _Get_scary()->_Mysize) {

  001d5	8b 45 f0	 mov	 eax, DWORD PTR _this$1$[ebp]
  001d8	81 78 04 ff ff
	ff 07		 cmp	 DWORD PTR [eax+4], 134217727 ; 07ffffffH
  001df	0f 84 cb 00 00
	00		 je	 $LN401@SetAddVisi

; 1023 :             _Inserted = _Tree_temp_node<_Alnode>(_Getal(), _Scary->_Myhead, _STD forward<_Valtys>(_Vals)...)._Release();

  001e5	8b 30		 mov	 esi, DWORD PTR [eax]
; File C:\Program Files\Microsoft Visual Studio\2022\Professional\VC\Tools\MSVC\14.44.35207\include\xmemory

; 1160 :     _CONSTEXPR20 explicit _Alloc_construct_ptr(_Alloc& _Al_) : _Al(_Al_), _Ptr(nullptr) {}

  001e7	89 45 e8	 mov	 DWORD PTR $T8[ebp], eax

; 136  :         return ::operator new(_Bytes);

  001ea	6a 20		 push	 32			; 00000020H
; File C:\Program Files\Microsoft Visual Studio\2022\Professional\VC\Tools\MSVC\14.44.35207\include\xtree

; 808  :     explicit _Tree_temp_node_alloc(_Alnode& _Al_) : _Alloc_construct_ptr<_Alnode>(_Al_) {

  001ec	c6 45 fc 02	 mov	 BYTE PTR __$EHRec$[ebp+8], 2
; File C:\Program Files\Microsoft Visual Studio\2022\Professional\VC\Tools\MSVC\14.44.35207\include\xmemory

; 1167 :         _Ptr = nullptr; // if allocate throws, prevents double-free

  001f0	c7 45 ec 00 00
	00 00		 mov	 DWORD PTR $T8[ebp+4], 0

; 136  :         return ::operator new(_Bytes);

  001f7	e8 00 00 00 00	 call	 ??2@YAPAXI@Z		; operator new
; File C:\Program Files\Microsoft Visual Studio\2022\Professional\VC\Tools\MSVC\14.44.35207\include\utility

; 278  :     pair(pair&&)      = default;

  001fc	8b 4d 0c	 mov	 ecx, DWORD PTR _dwTargetId$[ebp]
; File C:\Program Files\Microsoft Visual Studio\2022\Professional\VC\Tools\MSVC\14.44.35207\include\xmemory

; 136  :         return ::operator new(_Bytes);

  001ff	83 c4 04	 add	 esp, 4
; File C:\Program Files\Microsoft Visual Studio\2022\Professional\VC\Tools\MSVC\14.44.35207\include\utility

; 773  :     _Ty _Old_val = static_cast<_Ty&&>(_Val);

  00202	8b d7		 mov	 edx, edi

; 774  :     _Val         = static_cast<_Other&&>(_New_val);

  00204	33 ff		 xor	 edi, edi

; 278  :     pair(pair&&)      = default;

  00206	89 48 10	 mov	 DWORD PTR [eax+16], ecx

; 773  :     _Ty _Old_val = static_cast<_Ty&&>(_Val);

  00209	8b cb		 mov	 ecx, ebx
; File C:\Program Files\Microsoft Visual Studio\2022\Professional\VC\Tools\MSVC\14.44.35207\include\vector

; 403  :         : _Myfirst(_First), _Mylast(_Last), _Myend(_End) {}

  0020b	89 48 14	 mov	 DWORD PTR [eax+20], ecx
; File C:\Program Files\Microsoft Visual Studio\2022\Professional\VC\Tools\MSVC\14.44.35207\include\utility

; 774  :     _Val         = static_cast<_Other&&>(_New_val);

  0020e	33 db		 xor	 ebx, ebx
; File C:\Program Files\Microsoft Visual Studio\2022\Professional\VC\Tools\MSVC\14.44.35207\include\vector

; 403  :         : _Myfirst(_First), _Mylast(_Last), _Myend(_End) {}

  00210	8b 4d c4	 mov	 ecx, DWORD PTR $T3[ebp+8]
  00213	89 48 18	 mov	 DWORD PTR [eax+24], ecx
; File C:\Program Files\Microsoft Visual Studio\2022\Professional\VC\Tools\MSVC\14.44.35207\include\xtree

; 1042 :         return {_Scary->_Insert_node(_Loc._Location, _Inserted), true};

  00216	8b 4d f0	 mov	 ecx, DWORD PTR _this$1$[ebp]
  00219	50		 push	 eax
  0021a	ff 75 d0	 push	 DWORD PTR __Loc$5[ebp+4]
; File C:\Program Files\Microsoft Visual Studio\2022\Professional\VC\Tools\MSVC\14.44.35207\include\vector

; 403  :         : _Myfirst(_First), _Mylast(_Last), _Myend(_End) {}

  0021d	89 50 1c	 mov	 DWORD PTR [eax+28], edx
; File C:\Program Files\Microsoft Visual Studio\2022\Professional\VC\Tools\MSVC\14.44.35207\include\xtree

; 1042 :         return {_Scary->_Insert_node(_Loc._Location, _Inserted), true};

  00220	ff 75 cc	 push	 DWORD PTR __Loc$5[ebp]

; 831  :         _Construct_in_place(this->_Ptr->_Left, _Myhead);

  00223	89 30		 mov	 DWORD PTR [eax], esi

; 832  :         _Construct_in_place(this->_Ptr->_Parent, _Myhead);

  00225	89 70 04	 mov	 DWORD PTR [eax+4], esi

; 833  :         _Construct_in_place(this->_Ptr->_Right, _Myhead);

  00228	89 70 08	 mov	 DWORD PTR [eax+8], esi

; 834  :         this->_Ptr->_Color = _Red;

  0022b	66 89 58 0c	 mov	 WORD PTR [eax+12], bx

; 1042 :         return {_Scary->_Insert_node(_Loc._Location, _Inserted), true};

  0022f	e8 00 00 00 00	 call	 ?_Insert_node@?$_Tree_val@U?$_Tree_simple_types@U?$pair@$$CBKV?$vector@KV?$allocator@K@std@@@std@@@std@@@std@@@std@@QAEPAU?$_Tree_node@U?$pair@$$CBKV?$vector@KV?$allocator@K@std@@@std@@@std@@PAX@2@U?$_Tree_id@PAU?$_Tree_node@U?$pair@$$CBKV?$vector@KV?$allocator@K@std@@@std@@@std@@PAX@std@@@2@QAU32@@Z ; std::_Tree_val<std::_Tree_simple_types<std::pair<unsigned long const ,std::vector<unsigned long,std::allocator<unsigned long> > > > >::_Insert_node
  00234	8b 75 d8	 mov	 esi, DWORD PTR _vecTemp$6[ebp]
$LN324@SetAddVisi:
; File C:\Program Files\Microsoft Visual Studio\2022\Professional\VC\Tools\MSVC\14.44.35207\include\vector

; 2090 :         if (_Myfirst) { // destroy and deallocate old array

  00237	85 db		 test	 ebx, ebx
  00239	74 2c		 je	 SHORT $LN348@SetAddVisi

; 2093 :             _Al.deallocate(_Myfirst, static_cast<size_type>(_Myend - _Myfirst));

  0023b	2b fb		 sub	 edi, ebx
; File C:\Program Files\Microsoft Visual Studio\2022\Professional\VC\Tools\MSVC\14.44.35207\include\xmemory

; 985  :         _STD _Deallocate<_New_alignof<_Ty>>(_Ptr, sizeof(_Ty) * _Count);

  0023d	8b c3		 mov	 eax, ebx
  0023f	83 e7 fc	 and	 edi, -4			; fffffffcH

; 284  :         if (_Bytes >= _Big_allocation_threshold) {

  00242	81 ff 00 10 00
	00		 cmp	 edi, 4096		; 00001000H
  00248	72 10		 jb	 SHORT $LN361@SetAddVisi

; 205  :     const uintptr_t _Ptr_container   = _Ptr_user[-1];

  0024a	8b 58 fc	 mov	 ebx, DWORD PTR [eax-4]
  0024d	83 c7 23	 add	 edi, 35			; 00000023H
  00250	2b c3		 sub	 eax, ebx

; 219  :     _STL_VERIFY(_Back_shift >= _Min_back_shift && _Back_shift <= _Non_user_size, "invalid argument");

  00252	83 c0 fc	 add	 eax, -4			; fffffffcH
  00255	83 f8 1f	 cmp	 eax, 31			; 0000001fH
  00258	77 5b		 ja	 SHORT $LN383@SetAddVisi
$LN361@SetAddVisi:

; 289  :         ::operator delete(_Ptr, _Bytes);

  0025a	57		 push	 edi
  0025b	53		 push	 ebx
  0025c	e8 00 00 00 00	 call	 ??3@YAXPAXI@Z		; operator delete
  00261	8b 75 d8	 mov	 esi, DWORD PTR _vecTemp$6[ebp]
  00264	83 c4 08	 add	 esp, 8
$LN348@SetAddVisi:
; File C:\Program Files\Microsoft Visual Studio\2022\Professional\VC\Tools\MSVC\14.44.35207\include\vector

; 2090 :         if (_Myfirst) { // destroy and deallocate old array

  00267	85 f6		 test	 esi, esi
  00269	74 2c		 je	 SHORT $LN3@SetAddVisi

; 2093 :             _Al.deallocate(_Myfirst, static_cast<size_type>(_Myend - _Myfirst));

  0026b	8b 4d e0	 mov	 ecx, DWORD PTR _vecTemp$6[ebp+8]
; File C:\Program Files\Microsoft Visual Studio\2022\Professional\VC\Tools\MSVC\14.44.35207\include\xmemory

; 985  :         _STD _Deallocate<_New_alignof<_Ty>>(_Ptr, sizeof(_Ty) * _Count);

  0026e	8b c6		 mov	 eax, esi
; File C:\Program Files\Microsoft Visual Studio\2022\Professional\VC\Tools\MSVC\14.44.35207\include\vector

; 2093 :             _Al.deallocate(_Myfirst, static_cast<size_type>(_Myend - _Myfirst));

  00270	2b ce		 sub	 ecx, esi
; File C:\Program Files\Microsoft Visual Studio\2022\Professional\VC\Tools\MSVC\14.44.35207\include\xmemory

; 985  :         _STD _Deallocate<_New_alignof<_Ty>>(_Ptr, sizeof(_Ty) * _Count);

  00272	83 e1 fc	 and	 ecx, -4			; fffffffcH

; 284  :         if (_Bytes >= _Big_allocation_threshold) {

  00275	81 f9 00 10 00
	00		 cmp	 ecx, 4096		; 00001000H
  0027b	72 10		 jb	 SHORT $LN384@SetAddVisi

; 205  :     const uintptr_t _Ptr_container   = _Ptr_user[-1];

  0027d	8b 70 fc	 mov	 esi, DWORD PTR [eax-4]
  00280	83 c1 23	 add	 ecx, 35			; 00000023H
  00283	2b c6		 sub	 eax, esi

; 219  :     _STL_VERIFY(_Back_shift >= _Min_back_shift && _Back_shift <= _Non_user_size, "invalid argument");

  00285	83 c0 fc	 add	 eax, -4			; fffffffcH
  00288	83 f8 1f	 cmp	 eax, 31			; 0000001fH
  0028b	77 28		 ja	 SHORT $LN383@SetAddVisi
$LN384@SetAddVisi:

; 289  :         ::operator delete(_Ptr, _Bytes);

  0028d	51		 push	 ecx
  0028e	56		 push	 esi
  0028f	e8 00 00 00 00	 call	 ??3@YAXPAXI@Z		; operator delete
  00294	83 c4 08	 add	 esp, 8
$LN3@SetAddVisi:
; File C:\IAGOS\server\v18\Source\Source\_Common\Housing.cpp

; 595  : }

  00297	8b 4d f4	 mov	 ecx, DWORD PTR __$EHRec$[ebp]
  0029a	64 89 0d 00 00
	00 00		 mov	 DWORD PTR fs:0, ecx
  002a1	59		 pop	 ecx
  002a2	5f		 pop	 edi
  002a3	5e		 pop	 esi
  002a4	5b		 pop	 ebx
  002a5	8b e5		 mov	 esp, ebp
  002a7	5d		 pop	 ebp
  002a8	c2 08 00	 ret	 8
$LN400@SetAddVisi:
; File C:\Program Files\Microsoft Visual Studio\2022\Professional\VC\Tools\MSVC\14.44.35207\include\vector

; 2052 :             _Xlength();

  002ab	e8 00 00 00 00	 call	 ?_Xlength@?$vector@KV?$allocator@K@std@@@std@@CAXXZ ; std::vector<unsigned long,std::allocator<unsigned long> >::_Xlength
$LN401@SetAddVisi:
; File C:\Program Files\Microsoft Visual Studio\2022\Professional\VC\Tools\MSVC\14.44.35207\include\xtree

; 1649 :             _Throw_tree_length_error();

  002b0	e8 00 00 00 00	 call	 ?_Throw_tree_length_error@std@@YAXXZ ; std::_Throw_tree_length_error
$LN383@SetAddVisi:
; File C:\Program Files\Microsoft Visual Studio\2022\Professional\VC\Tools\MSVC\14.44.35207\include\xmemory

; 219  :     _STL_VERIFY(_Back_shift >= _Min_back_shift && _Back_shift <= _Non_user_size, "invalid argument");

  002b5	6a 00		 push	 0
  002b7	6a 00		 push	 0
  002b9	6a 00		 push	 0
  002bb	6a 00		 push	 0
  002bd	6a 00		 push	 0
  002bf	e8 00 00 00 00	 call	 __invoke_watson
$LN397@SetAddVisi:
  002c4	cc		 int	 3
_TEXT	ENDS
;	COMDAT text$x
text$x	SEGMENT
__unwindfunclet$?SetAddVisitable@CHousingMng@@QAEXKK@Z$0:
  00000	8d 4d d8	 lea	 ecx, DWORD PTR _vecTemp$6[ebp]
  00003	e9 00 00 00 00	 jmp	 ??1?$vector@KV?$allocator@K@std@@@std@@QAE@XZ ; std::vector<unsigned long,std::allocator<unsigned long> >::~vector<unsigned long,std::allocator<unsigned long> >
__unwindfunclet$?SetAddVisitable@CHousingMng@@QAEXKK@Z$1:
  00008	8d 4d bc	 lea	 ecx, DWORD PTR $T3[ebp]
  0000b	e9 00 00 00 00	 jmp	 ??1?$pair@$$CBKV?$vector@KV?$allocator@K@std@@@std@@@std@@QAE@XZ
__unwindfunclet$?SetAddVisitable@CHousingMng@@QAEXKK@Z$6:
  00010	8d 4d e8	 lea	 ecx, DWORD PTR $T8[ebp]
  00013	e9 00 00 00 00	 jmp	 ??1?$_Alloc_construct_ptr@V?$allocator@U?$_Tree_node@U?$pair@$$CBKV?$vector@KV?$allocator@K@std@@@std@@@std@@PAX@std@@@std@@@std@@QAE@XZ ; std::_Alloc_construct_ptr<std::allocator<std::_Tree_node<std::pair<unsigned long const ,std::vector<unsigned long,std::allocator<unsigned long> > >,void *> > >::~_Alloc_construct_ptr<std::allocator<std::_Tree_node<std::pair<unsigned long const ,std::vector<unsigned long,std::allocator<unsigned long> > >,void *> > >
  00018	cc		 int	 3
  00019	cc		 int	 3
  0001a	cc		 int	 3
  0001b	cc		 int	 3
  0001c	cc		 int	 3
__ehhandler$?SetAddVisitable@CHousingMng@@QAEXKK@Z:
  0001d	90		 npad	 1
  0001e	90		 npad	 1
  0001f	8b 54 24 08	 mov	 edx, DWORD PTR [esp+8]
  00023	8d 42 0c	 lea	 eax, DWORD PTR [edx+12]
  00026	8b 4a b8	 mov	 ecx, DWORD PTR [edx-72]
  00029	33 c8		 xor	 ecx, eax
  0002b	e8 00 00 00 00	 call	 @__security_check_cookie@4
  00030	b8 00 00 00 00	 mov	 eax, OFFSET __ehfuncinfo$?SetAddVisitable@CHousingMng@@QAEXKK@Z
  00035	e9 00 00 00 00	 jmp	 ___CxxFrameHandler3
text$x	ENDS
?SetAddVisitable@CHousingMng@@QAEXKK@Z ENDP		; CHousingMng::SetAddVisitable
; Function compile flags: /Ogtp
; File C:\Program Files\Microsoft Visual Studio\2022\Professional\VC\Tools\MSVC\14.44.35207\include\xtree
; File C:\Program Files\Microsoft Visual Studio\2022\Professional\VC\Tools\MSVC\14.44.35207\include\xmemory
;	COMDAT ??1?$map@KV?$vector@KV?$allocator@K@std@@@std@@U?$less@K@2@V?$allocator@U?$pair@$$CBKV?$vector@KV?$allocator@K@std@@@std@@@std@@@2@@std@@QAE@XZ
_TEXT	SEGMENT
??1?$map@KV?$vector@KV?$allocator@K@std@@@std@@U?$less@K@2@V?$allocator@U?$pair@$$CBKV?$vector@KV?$allocator@K@std@@@std@@@std@@@2@@std@@QAE@XZ PROC ; std::map<unsigned long,std::vector<unsigned long,std::allocator<unsigned long> >,std::less<unsigned long>,std::allocator<std::pair<unsigned long const ,std::vector<unsigned long,std::allocator<unsigned long> > > > >::~map<unsigned long,std::vector<unsigned long,std::allocator<unsigned long> >,std::less<unsigned long>,std::allocator<std::pair<unsigned long const ,std::vector<unsigned long,std::allocator<unsigned long> > > > >, COMDAT
; _this$ = ecx
; File C:\Program Files\Microsoft Visual Studio\2022\Professional\VC\Tools\MSVC\14.44.35207\include\xtree

; 777  :         _Erase_tree(_Al, _Myhead->_Parent);

  00000	56		 push	 esi
  00001	8b f1		 mov	 esi, ecx
  00003	8b 06		 mov	 eax, DWORD PTR [esi]
  00005	ff 70 04	 push	 DWORD PTR [eax+4]
  00008	56		 push	 esi
  00009	e8 00 00 00 00	 call	 ??$_Erase_tree@V?$allocator@U?$_Tree_node@U?$pair@$$CBKV?$vector@KV?$allocator@K@std@@@std@@@std@@PAX@std@@@std@@@?$_Tree_val@U?$_Tree_simple_types@U?$pair@$$CBKV?$vector@KV?$allocator@K@std@@@std@@@std@@@std@@@std@@QAEXAAV?$allocator@U?$_Tree_node@U?$pair@$$CBKV?$vector@KV?$allocator@K@std@@@std@@@std@@PAX@std@@@1@PAU?$_Tree_node@U?$pair@$$CBKV?$vector@KV?$allocator@K@std@@@std@@@std@@PAX@1@@Z ; std::_Tree_val<std::_Tree_simple_types<std::pair<unsigned long const ,std::vector<unsigned long,std::allocator<unsigned long> > > > >::_Erase_tree<std::allocator<std::_Tree_node<std::pair<unsigned long const ,std::vector<unsigned long,std::allocator<unsigned long> > >,void *> > >
; File C:\Program Files\Microsoft Visual Studio\2022\Professional\VC\Tools\MSVC\14.44.35207\include\xmemory

; 289  :         ::operator delete(_Ptr, _Bytes);

  0000e	6a 20		 push	 32			; 00000020H
  00010	ff 36		 push	 DWORD PTR [esi]
  00012	e8 00 00 00 00	 call	 ??3@YAXPAXI@Z		; operator delete
  00017	83 c4 08	 add	 esp, 8
  0001a	5e		 pop	 esi
  0001b	c3		 ret	 0
??1?$map@KV?$vector@KV?$allocator@K@std@@@std@@U?$less@K@2@V?$allocator@U?$pair@$$CBKV?$vector@KV?$allocator@K@std@@@std@@@std@@@2@@std@@QAE@XZ ENDP ; std::map<unsigned long,std::vector<unsigned long,std::allocator<unsigned long> >,std::less<unsigned long>,std::allocator<std::pair<unsigned long const ,std::vector<unsigned long,std::allocator<unsigned long> > > > >::~map<unsigned long,std::vector<unsigned long,std::allocator<unsigned long> >,std::less<unsigned long>,std::allocator<std::pair<unsigned long const ,std::vector<unsigned long,std::allocator<unsigned long> > > > >
_TEXT	ENDS
; Function compile flags: /Ogtp
; File C:\Program Files\Microsoft Visual Studio\2022\Professional\VC\Tools\MSVC\14.44.35207\include\xtree
;	COMDAT ?_Insert_node@?$_Tree_val@U?$_Tree_simple_types@U?$pair@$$CBKV?$vector@KV?$allocator@K@std@@@std@@@std@@@std@@@std@@QAEPAU?$_Tree_node@U?$pair@$$CBKV?$vector@KV?$allocator@K@std@@@std@@@std@@PAX@2@U?$_Tree_id@PAU?$_Tree_node@U?$pair@$$CBKV?$vector@KV?$allocator@K@std@@@std@@@std@@PAX@std@@@2@QAU32@@Z
_TEXT	SEGMENT
__Head$1$ = -4						; size = 4
__Loc$ = 8						; size = 8
__Newnode$ = 16						; size = 4
?_Insert_node@?$_Tree_val@U?$_Tree_simple_types@U?$pair@$$CBKV?$vector@KV?$allocator@K@std@@@std@@@std@@@std@@@std@@QAEPAU?$_Tree_node@U?$pair@$$CBKV?$vector@KV?$allocator@K@std@@@std@@@std@@PAX@2@U?$_Tree_id@PAU?$_Tree_node@U?$pair@$$CBKV?$vector@KV?$allocator@K@std@@@std@@@std@@PAX@std@@@2@QAU32@@Z PROC ; std::_Tree_val<std::_Tree_simple_types<std::pair<unsigned long const ,std::vector<unsigned long,std::allocator<unsigned long> > > > >::_Insert_node, COMDAT
; _this$ = ecx

; 669  :     _Nodeptr _Insert_node(const _Tree_id<_Nodeptr> _Loc, const _Nodeptr _Newnode) noexcept {

  00000	55		 push	 ebp
  00001	8b ec		 mov	 ebp, esp
  00003	51		 push	 ecx

; 670  :         ++_Mysize;
; 671  :         const auto _Head  = _Myhead;
; 672  :         _Newnode->_Parent = _Loc._Parent;

  00004	8b 55 08	 mov	 edx, DWORD PTR __Loc$[ebp]
  00007	53		 push	 ebx
  00008	8b d9		 mov	 ebx, ecx
  0000a	57		 push	 edi
  0000b	8b 7d 10	 mov	 edi, DWORD PTR __Newnode$[ebp]
  0000e	8b 03		 mov	 eax, DWORD PTR [ebx]
  00010	ff 43 04	 inc	 DWORD PTR [ebx+4]
  00013	89 45 fc	 mov	 DWORD PTR __Head$1$[ebp], eax
  00016	89 57 04	 mov	 DWORD PTR [edi+4], edx

; 673  :         if (_Loc._Parent == _Head) { // first node in tree, just set head values

  00019	3b d0		 cmp	 edx, eax
  0001b	75 16		 jne	 SHORT $LN5@Insert_nod

; 674  :             _Head->_Left     = _Newnode;

  0001d	89 38		 mov	 DWORD PTR [eax], edi

; 675  :             _Head->_Parent   = _Newnode;

  0001f	89 78 04	 mov	 DWORD PTR [eax+4], edi

; 676  :             _Head->_Right    = _Newnode;

  00022	89 78 08	 mov	 DWORD PTR [eax+8], edi

; 735  :         return _Newnode;
; 736  :     }

  00025	8b c7		 mov	 eax, edi
  00027	c6 47 0c 01	 mov	 BYTE PTR [edi+12], 1
  0002b	5f		 pop	 edi
  0002c	5b		 pop	 ebx
  0002d	8b e5		 mov	 esp, ebp
  0002f	5d		 pop	 ebp
  00030	c2 0c 00	 ret	 12			; 0000000cH
$LN5@Insert_nod:

; 677  :             _Newnode->_Color = _Black; // the root is black
; 678  :             return _Newnode;
; 679  :         }
; 680  : 
; 681  :         _STL_INTERNAL_CHECK(_Loc._Child != _Tree_child::_Unused);
; 682  :         if (_Loc._Child == _Tree_child::_Right) { // add to right of _Loc._Parent

  00033	83 7d 0c 00	 cmp	 DWORD PTR __Loc$[ebp+4], 0
  00037	75 0d		 jne	 SHORT $LN6@Insert_nod

; 683  :             _STL_INTERNAL_CHECK(_Loc._Parent->_Right->_Isnil);
; 684  :             _Loc._Parent->_Right = _Newnode;

  00039	89 7a 08	 mov	 DWORD PTR [edx+8], edi

; 685  :             if (_Loc._Parent == _Head->_Right) { // remember rightmost node

  0003c	3b 50 08	 cmp	 edx, DWORD PTR [eax+8]
  0003f	75 0d		 jne	 SHORT $LN9@Insert_nod

; 686  :                 _Head->_Right = _Newnode;

  00041	89 78 08	 mov	 DWORD PTR [eax+8], edi

; 687  :             }
; 688  :         } else { // add to left of _Loc._Parent

  00044	eb 08		 jmp	 SHORT $LN9@Insert_nod
$LN6@Insert_nod:

; 689  :             _STL_INTERNAL_CHECK(_Loc._Parent->_Left->_Isnil);
; 690  :             _Loc._Parent->_Left = _Newnode;

  00046	89 3a		 mov	 DWORD PTR [edx], edi

; 691  :             if (_Loc._Parent == _Head->_Left) { // remember leftmost node

  00048	3b 10		 cmp	 edx, DWORD PTR [eax]
  0004a	75 02		 jne	 SHORT $LN9@Insert_nod

; 692  :                 _Head->_Left = _Newnode;

  0004c	89 38		 mov	 DWORD PTR [eax], edi
$LN9@Insert_nod:

; 693  :             }
; 694  :         }
; 695  : 
; 696  :         for (_Nodeptr _Pnode = _Newnode; _Pnode->_Parent->_Color == _Red;) {

  0004e	8b 4f 04	 mov	 ecx, DWORD PTR [edi+4]
  00051	8b c7		 mov	 eax, edi
  00053	80 79 0c 00	 cmp	 BYTE PTR [ecx+12], 0
  00057	0f 85 7d 01 00
	00		 jne	 $LN3@Insert_nod
  0005d	56		 push	 esi
  0005e	66 90		 npad	 2
$LL4@Insert_nod:

; 697  :             if (_Pnode->_Parent == _Pnode->_Parent->_Parent->_Left) { // fixup red-red in left subtree

  00060	8b 50 04	 mov	 edx, DWORD PTR [eax+4]
  00063	8b 72 04	 mov	 esi, DWORD PTR [edx+4]
  00066	8b 0e		 mov	 ecx, DWORD PTR [esi]
  00068	3b d1		 cmp	 edx, ecx
  0006a	0f 85 aa 00 00
	00		 jne	 $LN10@Insert_nod

; 698  :                 const auto _Parent_sibling = _Pnode->_Parent->_Parent->_Right;

  00070	8b 4e 08	 mov	 ecx, DWORD PTR [esi+8]

; 699  :                 if (_Parent_sibling->_Color == _Red) { // parent's sibling has two red children, blacken both

  00073	80 79 0c 00	 cmp	 BYTE PTR [ecx+12], 0
  00077	0f 84 a3 00 00
	00		 je	 $LN82@Insert_nod

; 700  :                     _Pnode->_Parent->_Color          = _Black;
; 701  :                     _Parent_sibling->_Color          = _Black;
; 702  :                     _Pnode->_Parent->_Parent->_Color = _Red;
; 703  :                     _Pnode                           = _Pnode->_Parent->_Parent;
; 704  :                 } else { // parent's sibling has red and black children
; 705  :                     if (_Pnode == _Pnode->_Parent->_Right) { // rotate right child to left

  0007d	8b 72 08	 mov	 esi, DWORD PTR [edx+8]
  00080	3b c6		 cmp	 eax, esi
  00082	75 37		 jne	 SHORT $LN57@Insert_nod

; 485  :         _Wherenode->_Right = _Pnode->_Left;

  00084	8b 0e		 mov	 ecx, DWORD PTR [esi]

; 706  :                         _Pnode = _Pnode->_Parent;

  00086	8b c2		 mov	 eax, edx

; 485  :         _Wherenode->_Right = _Pnode->_Left;

  00088	89 4a 08	 mov	 DWORD PTR [edx+8], ecx

; 486  : 
; 487  :         if (!_Pnode->_Left->_Isnil) {

  0008b	8b 0e		 mov	 ecx, DWORD PTR [esi]
  0008d	80 79 0d 00	 cmp	 BYTE PTR [ecx+13], 0
  00091	75 03		 jne	 SHORT $LN21@Insert_nod

; 488  :             _Pnode->_Left->_Parent = _Wherenode;

  00093	89 41 04	 mov	 DWORD PTR [ecx+4], eax
$LN21@Insert_nod:

; 489  :         }
; 490  : 
; 491  :         _Pnode->_Parent = _Wherenode->_Parent;

  00096	8b 4a 04	 mov	 ecx, DWORD PTR [edx+4]
  00099	89 4e 04	 mov	 DWORD PTR [esi+4], ecx

; 492  : 
; 493  :         if (_Wherenode == _Myhead->_Parent) {

  0009c	8b 0b		 mov	 ecx, DWORD PTR [ebx]
  0009e	3b 41 04	 cmp	 eax, DWORD PTR [ecx+4]
  000a1	75 05		 jne	 SHORT $LN22@Insert_nod

; 494  :             _Myhead->_Parent = _Pnode;

  000a3	89 71 04	 mov	 DWORD PTR [ecx+4], esi
  000a6	eb 0e		 jmp	 SHORT $LN25@Insert_nod
$LN22@Insert_nod:

; 495  :         } else if (_Wherenode == _Wherenode->_Parent->_Left) {

  000a8	8b 4a 04	 mov	 ecx, DWORD PTR [edx+4]
  000ab	3b 01		 cmp	 eax, DWORD PTR [ecx]
  000ad	75 04		 jne	 SHORT $LN24@Insert_nod

; 496  :             _Wherenode->_Parent->_Left = _Pnode;

  000af	89 31		 mov	 DWORD PTR [ecx], esi

; 497  :         } else {

  000b1	eb 03		 jmp	 SHORT $LN25@Insert_nod
$LN24@Insert_nod:

; 498  :             _Wherenode->_Parent->_Right = _Pnode;

  000b3	89 71 08	 mov	 DWORD PTR [ecx+8], esi
$LN25@Insert_nod:

; 499  :         }
; 500  : 
; 501  :         _Pnode->_Left       = _Wherenode;

  000b6	89 06		 mov	 DWORD PTR [esi], eax

; 502  :         _Wherenode->_Parent = _Pnode;

  000b8	89 70 04	 mov	 DWORD PTR [eax+4], esi
$LN57@Insert_nod:

; 707  :                         _Lrotate(_Pnode);
; 708  :                     }
; 709  : 
; 710  :                     _Pnode->_Parent->_Color          = _Black; // propagate red up

  000bb	8b 48 04	 mov	 ecx, DWORD PTR [eax+4]
  000be	c6 41 0c 01	 mov	 BYTE PTR [ecx+12], 1

; 711  :                     _Pnode->_Parent->_Parent->_Color = _Red;

  000c2	8b 48 04	 mov	 ecx, DWORD PTR [eax+4]
  000c5	8b 49 04	 mov	 ecx, DWORD PTR [ecx+4]
  000c8	c6 41 0c 00	 mov	 BYTE PTR [ecx+12], 0

; 712  :                     _Rrotate(_Pnode->_Parent->_Parent);

  000cc	8b 48 04	 mov	 ecx, DWORD PTR [eax+4]
  000cf	8b 51 04	 mov	 edx, DWORD PTR [ecx+4]

; 506  :         _Nodeptr _Pnode   = _Wherenode->_Left;

  000d2	8b 32		 mov	 esi, DWORD PTR [edx]

; 507  :         _Wherenode->_Left = _Pnode->_Right;

  000d4	8b 4e 08	 mov	 ecx, DWORD PTR [esi+8]
  000d7	89 0a		 mov	 DWORD PTR [edx], ecx

; 508  : 
; 509  :         if (!_Pnode->_Right->_Isnil) {

  000d9	8b 4e 08	 mov	 ecx, DWORD PTR [esi+8]
  000dc	80 79 0d 00	 cmp	 BYTE PTR [ecx+13], 0
  000e0	75 03		 jne	 SHORT $LN29@Insert_nod

; 510  :             _Pnode->_Right->_Parent = _Wherenode;

  000e2	89 51 04	 mov	 DWORD PTR [ecx+4], edx
$LN29@Insert_nod:

; 511  :         }
; 512  : 
; 513  :         _Pnode->_Parent = _Wherenode->_Parent;

  000e5	8b 4a 04	 mov	 ecx, DWORD PTR [edx+4]
  000e8	89 4e 04	 mov	 DWORD PTR [esi+4], ecx

; 514  : 
; 515  :         if (_Wherenode == _Myhead->_Parent) {

  000eb	8b 0b		 mov	 ecx, DWORD PTR [ebx]
  000ed	3b 51 04	 cmp	 edx, DWORD PTR [ecx+4]
  000f0	75 0b		 jne	 SHORT $LN30@Insert_nod

; 516  :             _Myhead->_Parent = _Pnode;

  000f2	89 71 04	 mov	 DWORD PTR [ecx+4], esi

; 521  :         }
; 522  : 
; 523  :         _Pnode->_Right      = _Wherenode;

  000f5	89 56 08	 mov	 DWORD PTR [esi+8], edx

; 713  :                 }
; 714  :             } else { // fixup red-red in right subtree

  000f8	e9 cc 00 00 00	 jmp	 $LN81@Insert_nod
$LN30@Insert_nod:

; 517  :         } else if (_Wherenode == _Wherenode->_Parent->_Right) {

  000fd	8b 4a 04	 mov	 ecx, DWORD PTR [edx+4]
  00100	3b 51 08	 cmp	 edx, DWORD PTR [ecx+8]
  00103	75 0b		 jne	 SHORT $LN32@Insert_nod

; 518  :             _Wherenode->_Parent->_Right = _Pnode;

  00105	89 71 08	 mov	 DWORD PTR [ecx+8], esi

; 521  :         }
; 522  : 
; 523  :         _Pnode->_Right      = _Wherenode;

  00108	89 56 08	 mov	 DWORD PTR [esi+8], edx

; 713  :                 }
; 714  :             } else { // fixup red-red in right subtree

  0010b	e9 b9 00 00 00	 jmp	 $LN81@Insert_nod
$LN32@Insert_nod:

; 520  :             _Wherenode->_Parent->_Left = _Pnode;

  00110	89 31		 mov	 DWORD PTR [ecx], esi

; 521  :         }
; 522  : 
; 523  :         _Pnode->_Right      = _Wherenode;

  00112	89 56 08	 mov	 DWORD PTR [esi+8], edx

; 713  :                 }
; 714  :             } else { // fixup red-red in right subtree

  00115	e9 af 00 00 00	 jmp	 $LN81@Insert_nod
$LN10@Insert_nod:

; 715  :                 const auto _Parent_sibling = _Pnode->_Parent->_Parent->_Left;
; 716  :                 if (_Parent_sibling->_Color == _Red) { // parent's sibling has two red children, blacken both

  0011a	80 79 0c 00	 cmp	 BYTE PTR [ecx+12], 0
  0011e	75 1d		 jne	 SHORT $LN15@Insert_nod
$LN82@Insert_nod:

; 693  :             }
; 694  :         }
; 695  : 
; 696  :         for (_Nodeptr _Pnode = _Newnode; _Pnode->_Parent->_Color == _Red;) {

  00120	c6 42 0c 01	 mov	 BYTE PTR [edx+12], 1
  00124	c6 41 0c 01	 mov	 BYTE PTR [ecx+12], 1
  00128	8b 48 04	 mov	 ecx, DWORD PTR [eax+4]
  0012b	8b 49 04	 mov	 ecx, DWORD PTR [ecx+4]
  0012e	c6 41 0c 00	 mov	 BYTE PTR [ecx+12], 0
  00132	8b 48 04	 mov	 ecx, DWORD PTR [eax+4]
  00135	8b 41 04	 mov	 eax, DWORD PTR [ecx+4]
  00138	e9 8f 00 00 00	 jmp	 $LN2@Insert_nod
$LN15@Insert_nod:

; 717  :                     _Pnode->_Parent->_Color          = _Black;
; 718  :                     _Parent_sibling->_Color          = _Black;
; 719  :                     _Pnode->_Parent->_Parent->_Color = _Red;
; 720  :                     _Pnode                           = _Pnode->_Parent->_Parent;
; 721  :                 } else { // parent's sibling has red and black children
; 722  :                     if (_Pnode == _Pnode->_Parent->_Left) { // rotate left child to right

  0013d	8b 32		 mov	 esi, DWORD PTR [edx]
  0013f	3b c6		 cmp	 eax, esi
  00141	75 3a		 jne	 SHORT $LN42@Insert_nod

; 507  :         _Wherenode->_Left = _Pnode->_Right;

  00143	8b 4e 08	 mov	 ecx, DWORD PTR [esi+8]

; 723  :                         _Pnode = _Pnode->_Parent;

  00146	8b c2		 mov	 eax, edx

; 507  :         _Wherenode->_Left = _Pnode->_Right;

  00148	89 08		 mov	 DWORD PTR [eax], ecx

; 508  : 
; 509  :         if (!_Pnode->_Right->_Isnil) {

  0014a	8b 4e 08	 mov	 ecx, DWORD PTR [esi+8]
  0014d	80 79 0d 00	 cmp	 BYTE PTR [ecx+13], 0
  00151	75 03		 jne	 SHORT $LN37@Insert_nod

; 510  :             _Pnode->_Right->_Parent = _Wherenode;

  00153	89 41 04	 mov	 DWORD PTR [ecx+4], eax
$LN37@Insert_nod:

; 511  :         }
; 512  : 
; 513  :         _Pnode->_Parent = _Wherenode->_Parent;

  00156	8b 4a 04	 mov	 ecx, DWORD PTR [edx+4]
  00159	89 4e 04	 mov	 DWORD PTR [esi+4], ecx

; 514  : 
; 515  :         if (_Wherenode == _Myhead->_Parent) {

  0015c	8b 0b		 mov	 ecx, DWORD PTR [ebx]
  0015e	3b 41 04	 cmp	 eax, DWORD PTR [ecx+4]
  00161	75 05		 jne	 SHORT $LN38@Insert_nod

; 516  :             _Myhead->_Parent = _Pnode;

  00163	89 71 04	 mov	 DWORD PTR [ecx+4], esi
  00166	eb 0f		 jmp	 SHORT $LN41@Insert_nod
$LN38@Insert_nod:

; 517  :         } else if (_Wherenode == _Wherenode->_Parent->_Right) {

  00168	8b 4a 04	 mov	 ecx, DWORD PTR [edx+4]
  0016b	3b 41 08	 cmp	 eax, DWORD PTR [ecx+8]
  0016e	75 05		 jne	 SHORT $LN40@Insert_nod

; 518  :             _Wherenode->_Parent->_Right = _Pnode;

  00170	89 71 08	 mov	 DWORD PTR [ecx+8], esi

; 519  :         } else {

  00173	eb 02		 jmp	 SHORT $LN41@Insert_nod
$LN40@Insert_nod:

; 520  :             _Wherenode->_Parent->_Left = _Pnode;

  00175	89 31		 mov	 DWORD PTR [ecx], esi
$LN41@Insert_nod:

; 521  :         }
; 522  : 
; 523  :         _Pnode->_Right      = _Wherenode;

  00177	89 46 08	 mov	 DWORD PTR [esi+8], eax

; 524  :         _Wherenode->_Parent = _Pnode;

  0017a	89 70 04	 mov	 DWORD PTR [eax+4], esi
$LN42@Insert_nod:

; 724  :                         _Rrotate(_Pnode);
; 725  :                     }
; 726  : 
; 727  :                     _Pnode->_Parent->_Color          = _Black; // propagate red up

  0017d	8b 48 04	 mov	 ecx, DWORD PTR [eax+4]
  00180	c6 41 0c 01	 mov	 BYTE PTR [ecx+12], 1

; 728  :                     _Pnode->_Parent->_Parent->_Color = _Red;

  00184	8b 48 04	 mov	 ecx, DWORD PTR [eax+4]
  00187	8b 49 04	 mov	 ecx, DWORD PTR [ecx+4]
  0018a	c6 41 0c 00	 mov	 BYTE PTR [ecx+12], 0

; 729  :                     _Lrotate(_Pnode->_Parent->_Parent);

  0018e	8b 48 04	 mov	 ecx, DWORD PTR [eax+4]
  00191	8b 51 04	 mov	 edx, DWORD PTR [ecx+4]

; 484  :         _Nodeptr _Pnode    = _Wherenode->_Right;

  00194	8b 72 08	 mov	 esi, DWORD PTR [edx+8]

; 485  :         _Wherenode->_Right = _Pnode->_Left;

  00197	8b 0e		 mov	 ecx, DWORD PTR [esi]
  00199	89 4a 08	 mov	 DWORD PTR [edx+8], ecx

; 486  : 
; 487  :         if (!_Pnode->_Left->_Isnil) {

  0019c	8b 0e		 mov	 ecx, DWORD PTR [esi]
  0019e	80 79 0d 00	 cmp	 BYTE PTR [ecx+13], 0
  001a2	75 03		 jne	 SHORT $LN45@Insert_nod

; 488  :             _Pnode->_Left->_Parent = _Wherenode;

  001a4	89 51 04	 mov	 DWORD PTR [ecx+4], edx
$LN45@Insert_nod:

; 489  :         }
; 490  : 
; 491  :         _Pnode->_Parent = _Wherenode->_Parent;

  001a7	8b 4a 04	 mov	 ecx, DWORD PTR [edx+4]
  001aa	89 4e 04	 mov	 DWORD PTR [esi+4], ecx

; 492  : 
; 493  :         if (_Wherenode == _Myhead->_Parent) {

  001ad	8b 0b		 mov	 ecx, DWORD PTR [ebx]
  001af	3b 51 04	 cmp	 edx, DWORD PTR [ecx+4]
  001b2	75 05		 jne	 SHORT $LN46@Insert_nod

; 494  :             _Myhead->_Parent = _Pnode;

  001b4	89 71 04	 mov	 DWORD PTR [ecx+4], esi
  001b7	eb 0e		 jmp	 SHORT $LN49@Insert_nod
$LN46@Insert_nod:

; 495  :         } else if (_Wherenode == _Wherenode->_Parent->_Left) {

  001b9	8b 4a 04	 mov	 ecx, DWORD PTR [edx+4]
  001bc	3b 11		 cmp	 edx, DWORD PTR [ecx]
  001be	75 04		 jne	 SHORT $LN48@Insert_nod

; 496  :             _Wherenode->_Parent->_Left = _Pnode;

  001c0	89 31		 mov	 DWORD PTR [ecx], esi

; 497  :         } else {

  001c2	eb 03		 jmp	 SHORT $LN49@Insert_nod
$LN48@Insert_nod:

; 498  :             _Wherenode->_Parent->_Right = _Pnode;

  001c4	89 71 08	 mov	 DWORD PTR [ecx+8], esi
$LN49@Insert_nod:

; 499  :         }
; 500  : 
; 501  :         _Pnode->_Left       = _Wherenode;

  001c7	89 16		 mov	 DWORD PTR [esi], edx
$LN81@Insert_nod:

; 693  :             }
; 694  :         }
; 695  : 
; 696  :         for (_Nodeptr _Pnode = _Newnode; _Pnode->_Parent->_Color == _Red;) {

  001c9	89 72 04	 mov	 DWORD PTR [edx+4], esi
$LN2@Insert_nod:
  001cc	8b 48 04	 mov	 ecx, DWORD PTR [eax+4]
  001cf	80 79 0c 00	 cmp	 BYTE PTR [ecx+12], 0
  001d3	0f 84 87 fe ff
	ff		 je	 $LL4@Insert_nod
  001d9	5e		 pop	 esi
$LN3@Insert_nod:

; 730  :                 }
; 731  :             }
; 732  :         }
; 733  : 
; 734  :         _Head->_Parent->_Color = _Black; // root is always black

  001da	8b 45 fc	 mov	 eax, DWORD PTR __Head$1$[ebp]
  001dd	8b 40 04	 mov	 eax, DWORD PTR [eax+4]
  001e0	c6 40 0c 01	 mov	 BYTE PTR [eax+12], 1

; 735  :         return _Newnode;
; 736  :     }

  001e4	8b c7		 mov	 eax, edi
  001e6	5f		 pop	 edi
  001e7	5b		 pop	 ebx
  001e8	8b e5		 mov	 esp, ebp
  001ea	5d		 pop	 ebp
  001eb	c2 0c 00	 ret	 12			; 0000000cH
?_Insert_node@?$_Tree_val@U?$_Tree_simple_types@U?$pair@$$CBKV?$vector@KV?$allocator@K@std@@@std@@@std@@@std@@@std@@QAEPAU?$_Tree_node@U?$pair@$$CBKV?$vector@KV?$allocator@K@std@@@std@@@std@@PAX@2@U?$_Tree_id@PAU?$_Tree_node@U?$pair@$$CBKV?$vector@KV?$allocator@K@std@@@std@@@std@@PAX@std@@@2@QAU32@@Z ENDP ; std::_Tree_val<std::_Tree_simple_types<std::pair<unsigned long const ,std::vector<unsigned long,std::allocator<unsigned long> > > > >::_Insert_node
_TEXT	ENDS
; Function compile flags: /Ogtp
; File C:\Program Files\Microsoft Visual Studio\2022\Professional\VC\Tools\MSVC\14.44.35207\include\xtree
; File C:\Program Files\Microsoft Visual Studio\2022\Professional\VC\Tools\MSVC\14.44.35207\include\utility
; File C:\Program Files\Microsoft Visual Studio\2022\Professional\VC\Tools\MSVC\14.44.35207\include\xtree
;	COMDAT ?_Extract@?$_Tree_val@U?$_Tree_simple_types@U?$pair@$$CBKV?$vector@KV?$allocator@K@std@@@std@@@std@@@std@@@std@@QAEPAU?$_Tree_node@U?$pair@$$CBKV?$vector@KV?$allocator@K@std@@@std@@@std@@PAX@2@V?$_Tree_unchecked_const_iterator@V?$_Tree_val@U?$_Tree_simple_types@U?$pair@$$CBKV?$vector@KV?$allocator@K@std@@@std@@@std@@@std@@@std@@U_Iterator_base0@2@@2@@Z
_TEXT	SEGMENT
tv1039 = -16						; size = 4
tv1073 = -12						; size = 4
tv1093 = -12						; size = 4
$T1 = -12						; size = 4
__Erasednode$1$ = -8					; size = 4
_this$1$ = -4						; size = 4
__Where$ = 8						; size = 4
?_Extract@?$_Tree_val@U?$_Tree_simple_types@U?$pair@$$CBKV?$vector@KV?$allocator@K@std@@@std@@@std@@@std@@@std@@QAEPAU?$_Tree_node@U?$pair@$$CBKV?$vector@KV?$allocator@K@std@@@std@@@std@@PAX@2@V?$_Tree_unchecked_const_iterator@V?$_Tree_val@U?$_Tree_simple_types@U?$pair@$$CBKV?$vector@KV?$allocator@K@std@@@std@@@std@@@std@@@std@@U_Iterator_base0@2@@2@@Z PROC ; std::_Tree_val<std::_Tree_simple_types<std::pair<unsigned long const ,std::vector<unsigned long,std::allocator<unsigned long> > > > >::_Extract, COMDAT
; _this$ = ecx

; 527  :     _Nodeptr _Extract(_Unchecked_const_iterator _Where) noexcept {

  00000	55		 push	 ebp
  00001	8b ec		 mov	 ebp, esp
  00003	83 ec 10	 sub	 esp, 16			; 00000010H

; 528  :         _Nodeptr _Erasednode = _Where._Ptr; // node to erase

  00006	8b 45 08	 mov	 eax, DWORD PTR __Where$[ebp]
  00009	53		 push	 ebx
  0000a	56		 push	 esi
  0000b	8b d9		 mov	 ebx, ecx
  0000d	89 45 f8	 mov	 DWORD PTR __Erasednode$1$[ebp], eax
  00010	57		 push	 edi

; 529  :         ++_Where; // save successor iterator for return

  00011	8d 4d 08	 lea	 ecx, DWORD PTR __Where$[ebp]
  00014	89 5d fc	 mov	 DWORD PTR _this$1$[ebp], ebx
  00017	e8 00 00 00 00	 call	 ??E?$_Tree_unchecked_const_iterator@V?$_Tree_val@U?$_Tree_simple_types@U?$pair@$$CBKV?$vector@KV?$allocator@K@std@@@std@@@std@@@std@@@std@@U_Iterator_base0@2@@std@@QAEAAV01@XZ ; std::_Tree_unchecked_const_iterator<std::_Tree_val<std::_Tree_simple_types<std::pair<unsigned long const ,std::vector<unsigned long,std::allocator<unsigned long> > > > >,std::_Iterator_base0>::operator++

; 530  : 
; 531  :         _Nodeptr _Fixnode; // the node to recolor as needed
; 532  :         _Nodeptr _Fixnodeparent; // parent of _Fixnode (which may be nil)
; 533  :         _Nodeptr _Pnode = _Erasednode;
; 534  : 
; 535  :         if (_Pnode->_Left->_Isnil) {

  0001c	8b 4d f8	 mov	 ecx, DWORD PTR __Erasednode$1$[ebp]
  0001f	8b 01		 mov	 eax, DWORD PTR [ecx]
  00021	8b 79 08	 mov	 edi, DWORD PTR [ecx+8]
  00024	80 78 0d 00	 cmp	 BYTE PTR [eax+13], 0
  00028	75 18		 jne	 SHORT $LN94@Extract

; 536  :             _Fixnode = _Pnode->_Right; // stitch up right subtree
; 537  :         } else if (_Pnode->_Right->_Isnil) {

  0002a	80 7f 0d 00	 cmp	 BYTE PTR [edi+13], 0
  0002e	74 04		 je	 SHORT $LN7@Extract

; 538  :             _Fixnode = _Pnode->_Left; // stitch up left subtree

  00030	8b f8		 mov	 edi, eax

; 539  :         } else { // two subtrees, must lift successor node to replace erased

  00032	eb 0e		 jmp	 SHORT $LN94@Extract
$LN7@Extract:

; 540  :             _Pnode   = _Where._Ptr; // _Pnode is successor node

  00034	8b 55 08	 mov	 edx, DWORD PTR __Where$[ebp]

; 541  :             _Fixnode = _Pnode->_Right; // _Fixnode is only subtree

  00037	8b 7a 08	 mov	 edi, DWORD PTR [edx+8]
  0003a	3b d1		 cmp	 edx, ecx

; 542  :         }
; 543  : 
; 544  :         if (_Pnode == _Erasednode) { // at most one subtree, relink it

  0003c	0f 85 91 00 00
	00		 jne	 $LN9@Extract
$LN94@Extract:

; 545  :             _Fixnodeparent = _Erasednode->_Parent;
; 546  :             if (!_Fixnode->_Isnil) {

  00042	80 7f 0d 00	 cmp	 BYTE PTR [edi+13], 0
  00046	8b 71 04	 mov	 esi, DWORD PTR [ecx+4]
  00049	75 03		 jne	 SHORT $LN11@Extract

; 547  :                 _Fixnode->_Parent = _Fixnodeparent; // link up

  0004b	89 77 04	 mov	 DWORD PTR [edi+4], esi
$LN11@Extract:

; 548  :             }
; 549  : 
; 550  :             if (_Myhead->_Parent == _Erasednode) {

  0004e	8b 03		 mov	 eax, DWORD PTR [ebx]
  00050	39 48 04	 cmp	 DWORD PTR [eax+4], ecx
  00053	75 05		 jne	 SHORT $LN12@Extract

; 551  :                 _Myhead->_Parent = _Fixnode; // link down from root

  00055	89 78 04	 mov	 DWORD PTR [eax+4], edi
  00058	eb 0b		 jmp	 SHORT $LN15@Extract
$LN12@Extract:

; 552  :             } else if (_Fixnodeparent->_Left == _Erasednode) {

  0005a	39 0e		 cmp	 DWORD PTR [esi], ecx
  0005c	75 04		 jne	 SHORT $LN14@Extract

; 553  :                 _Fixnodeparent->_Left = _Fixnode; // link down to left

  0005e	89 3e		 mov	 DWORD PTR [esi], edi

; 554  :             } else {

  00060	eb 03		 jmp	 SHORT $LN15@Extract
$LN14@Extract:

; 555  :                 _Fixnodeparent->_Right = _Fixnode; // link down to right

  00062	89 7e 08	 mov	 DWORD PTR [esi+8], edi
$LN15@Extract:

; 556  :             }
; 557  : 
; 558  :             if (_Myhead->_Left == _Erasednode) {

  00065	8b 03		 mov	 eax, DWORD PTR [ebx]
  00067	39 08		 cmp	 DWORD PTR [eax], ecx
  00069	75 28		 jne	 SHORT $LN16@Extract

; 559  :                 _Myhead->_Left = _Fixnode->_Isnil ? _Fixnodeparent // smallest is parent of erased node

  0006b	80 7f 0d 00	 cmp	 BYTE PTR [edi+13], 0
  0006f	74 04		 je	 SHORT $LN42@Extract
  00071	8b d6		 mov	 edx, esi
  00073	eb 1c		 jmp	 SHORT $LN43@Extract
$LN42@Extract:

; 476  :         while (!_Pnode->_Left->_Isnil) {

  00075	8b 0f		 mov	 ecx, DWORD PTR [edi]

; 559  :                 _Myhead->_Left = _Fixnode->_Isnil ? _Fixnodeparent // smallest is parent of erased node

  00077	8b d7		 mov	 edx, edi

; 476  :         while (!_Pnode->_Left->_Isnil) {

  00079	80 79 0d 00	 cmp	 BYTE PTR [ecx+13], 0
  0007d	75 0f		 jne	 SHORT $LN49@Extract
  0007f	90		 npad	 1
$LL48@Extract:
  00080	8b 01		 mov	 eax, DWORD PTR [ecx]

; 477  :             _Pnode = _Pnode->_Left;

  00082	8b d1		 mov	 edx, ecx
  00084	8b c8		 mov	 ecx, eax
  00086	80 78 0d 00	 cmp	 BYTE PTR [eax+13], 0
  0008a	74 f4		 je	 SHORT $LL48@Extract
  0008c	8b 03		 mov	 eax, DWORD PTR [ebx]
$LN49@Extract:
  0008e	8b 4d f8	 mov	 ecx, DWORD PTR __Erasednode$1$[ebp]
$LN43@Extract:

; 559  :                 _Myhead->_Left = _Fixnode->_Isnil ? _Fixnodeparent // smallest is parent of erased node

  00091	89 10		 mov	 DWORD PTR [eax], edx
$LN16@Extract:

; 560  :                                                   : _Min(_Fixnode); // smallest in relinked subtree
; 561  :             }
; 562  : 
; 563  :             if (_Myhead->_Right == _Erasednode) {

  00093	8b 13		 mov	 edx, DWORD PTR [ebx]
  00095	39 4a 08	 cmp	 DWORD PTR [edx+8], ecx
  00098	75 34		 jne	 SHORT $LN17@Extract

; 564  :                 _Myhead->_Right = _Fixnode->_Isnil ? _Fixnodeparent // largest is parent of erased node

  0009a	80 7f 0d 00	 cmp	 BYTE PTR [edi+13], 0
  0009e	74 0d		 je	 SHORT $LN44@Extract

; 565  :                                                    : _Max(_Fixnode); // largest in relinked subtree
; 566  :             }
; 567  :         } else { // erased has two subtrees, _Pnode is successor to erased

  000a0	8b 45 f8	 mov	 eax, DWORD PTR __Erasednode$1$[ebp]
  000a3	8b ce		 mov	 ecx, esi
  000a5	89 4a 08	 mov	 DWORD PTR [edx+8], ecx
  000a8	e9 94 00 00 00	 jmp	 $LN58@Extract
$LN44@Extract:

; 468  :         while (!_Pnode->_Right->_Isnil) {

  000ad	8b 47 08	 mov	 eax, DWORD PTR [edi+8]

; 564  :                 _Myhead->_Right = _Fixnode->_Isnil ? _Fixnodeparent // largest is parent of erased node

  000b0	8b cf		 mov	 ecx, edi

; 468  :         while (!_Pnode->_Right->_Isnil) {

  000b2	80 78 0d 00	 cmp	 BYTE PTR [eax+13], 0
  000b6	75 13		 jne	 SHORT $LN54@Extract
  000b8	0f 1f 84 00 00
	00 00 00	 npad	 8
$LL53@Extract:

; 469  :             _Pnode = _Pnode->_Right;

  000c0	8b c8		 mov	 ecx, eax
  000c2	8b 41 08	 mov	 eax, DWORD PTR [ecx+8]
  000c5	80 78 0d 00	 cmp	 BYTE PTR [eax+13], 0
  000c9	74 f5		 je	 SHORT $LL53@Extract
$LN54@Extract:

; 564  :                 _Myhead->_Right = _Fixnode->_Isnil ? _Fixnodeparent // largest is parent of erased node

  000cb	89 4a 08	 mov	 DWORD PTR [edx+8], ecx
$LN17@Extract:

; 565  :                                                    : _Max(_Fixnode); // largest in relinked subtree
; 566  :             }
; 567  :         } else { // erased has two subtrees, _Pnode is successor to erased

  000ce	8b 45 f8	 mov	 eax, DWORD PTR __Erasednode$1$[ebp]
  000d1	eb 6e		 jmp	 SHORT $LN58@Extract
$LN9@Extract:

; 568  :             _Erasednode->_Left->_Parent = _Pnode; // link left up

  000d3	89 50 04	 mov	 DWORD PTR [eax+4], edx

; 569  :             _Pnode->_Left               = _Erasednode->_Left; // link successor down

  000d6	8b 01		 mov	 eax, DWORD PTR [ecx]
  000d8	89 02		 mov	 DWORD PTR [edx], eax

; 570  : 
; 571  :             if (_Pnode == _Erasednode->_Right) {

  000da	8d 42 04	 lea	 eax, DWORD PTR [edx+4]
  000dd	89 45 f4	 mov	 DWORD PTR $T1[ebp], eax
  000e0	3b 51 08	 cmp	 edx, DWORD PTR [ecx+8]
  000e3	75 04		 jne	 SHORT $LN18@Extract

; 572  :                 _Fixnodeparent = _Pnode; // successor is next to erased

  000e5	8b f2		 mov	 esi, edx

; 573  :             } else { // successor further down, link in place of erased

  000e7	eb 1f		 jmp	 SHORT $LN19@Extract
$LN18@Extract:

; 574  :                 _Fixnodeparent = _Pnode->_Parent; // parent is successor's
; 575  :                 if (!_Fixnode->_Isnil) {

  000e9	80 7f 0d 00	 cmp	 BYTE PTR [edi+13], 0
  000ed	8b 30		 mov	 esi, DWORD PTR [eax]
  000ef	75 03		 jne	 SHORT $LN20@Extract

; 576  :                     _Fixnode->_Parent = _Fixnodeparent; // link fix up

  000f1	89 77 04	 mov	 DWORD PTR [edi+4], esi
$LN20@Extract:

; 577  :                 }
; 578  : 
; 579  :                 _Fixnodeparent->_Left        = _Fixnode; // link fix down

  000f4	89 3e		 mov	 DWORD PTR [esi], edi

; 580  :                 _Pnode->_Right               = _Erasednode->_Right; // link next down

  000f6	8b 41 08	 mov	 eax, DWORD PTR [ecx+8]
  000f9	89 42 08	 mov	 DWORD PTR [edx+8], eax

; 581  :                 _Erasednode->_Right->_Parent = _Pnode; // right up

  000fc	8b 41 08	 mov	 eax, DWORD PTR [ecx+8]
  000ff	89 50 04	 mov	 DWORD PTR [eax+4], edx
  00102	8d 42 04	 lea	 eax, DWORD PTR [edx+4]
  00105	89 45 f4	 mov	 DWORD PTR $T1[ebp], eax
$LN19@Extract:

; 582  :             }
; 583  : 
; 584  :             if (_Myhead->_Parent == _Erasednode) {

  00108	8b 03		 mov	 eax, DWORD PTR [ebx]
  0010a	39 48 04	 cmp	 DWORD PTR [eax+4], ecx
  0010d	75 05		 jne	 SHORT $LN21@Extract

; 585  :                 _Myhead->_Parent = _Pnode; // link down from root

  0010f	89 50 04	 mov	 DWORD PTR [eax+4], edx
  00112	eb 0e		 jmp	 SHORT $LN141@Extract
$LN21@Extract:

; 586  :             } else if (_Erasednode->_Parent->_Left == _Erasednode) {

  00114	8b 41 04	 mov	 eax, DWORD PTR [ecx+4]
  00117	39 08		 cmp	 DWORD PTR [eax], ecx
  00119	75 04		 jne	 SHORT $LN23@Extract

; 587  :                 _Erasednode->_Parent->_Left = _Pnode; // link down to left

  0011b	89 10		 mov	 DWORD PTR [eax], edx

; 588  :             } else {

  0011d	eb 03		 jmp	 SHORT $LN141@Extract
$LN23@Extract:

; 589  :                 _Erasednode->_Parent->_Right = _Pnode; // link down to right

  0011f	89 50 08	 mov	 DWORD PTR [eax+8], edx
$LN141@Extract:

; 590  :             }
; 591  : 
; 592  :             _Pnode->_Parent = _Erasednode->_Parent; // link successor up

  00122	b8 04 00 00 00	 mov	 eax, 4
  00127	8b 04 08	 mov	 eax, DWORD PTR [eax+ecx]
  0012a	8b 4d f4	 mov	 ecx, DWORD PTR $T1[ebp]
  0012d	89 01		 mov	 DWORD PTR [ecx], eax
; File C:\Program Files\Microsoft Visual Studio\2022\Professional\VC\Tools\MSVC\14.44.35207\include\utility

; 140  :     _Left    = _STD move(_Right);

  0012f	8b 45 f8	 mov	 eax, DWORD PTR __Erasednode$1$[ebp]
  00132	8a 4a 0c	 mov	 cl, BYTE PTR [edx+12]
  00135	8a 40 0c	 mov	 al, BYTE PTR [eax+12]
  00138	88 42 0c	 mov	 BYTE PTR [edx+12], al

; 141  :     _Right   = _STD move(_Tmp);

  0013b	8b 45 f8	 mov	 eax, DWORD PTR __Erasednode$1$[ebp]
  0013e	88 48 0c	 mov	 BYTE PTR [eax+12], cl
$LN58@Extract:
; File C:\Program Files\Microsoft Visual Studio\2022\Professional\VC\Tools\MSVC\14.44.35207\include\xtree

; 596  :         if (_Erasednode->_Color == _Black) { // erasing black link, must recolor/rebalance tree

  00141	80 78 0c 01	 cmp	 BYTE PTR [eax+12], 1
  00145	0f 85 ba 01 00
	00		 jne	 $LN25@Extract

; 597  :             for (; _Fixnode != _Myhead->_Parent && _Fixnode->_Color == _Black; _Fixnodeparent = _Fixnode->_Parent) {

  0014b	8b 03		 mov	 eax, DWORD PTR [ebx]
  0014d	3b 78 04	 cmp	 edi, DWORD PTR [eax+4]
  00150	0f 84 a8 01 00
	00		 je	 $LN3@Extract
  00156	80 7f 0c 01	 cmp	 BYTE PTR [edi+12], 1
  0015a	89 75 f4	 mov	 DWORD PTR tv1093[ebp], esi
  0015d	0f 85 9b 01 00
	00		 jne	 $LN3@Extract
$LL4@Extract:

; 598  :                 if (_Fixnode == _Fixnodeparent->_Left) { // fixup left subtree

  00163	8b 0e		 mov	 ecx, DWORD PTR [esi]
  00165	3b f9		 cmp	 edi, ecx
  00167	0f 85 be 00 00
	00		 jne	 $LN26@Extract

; 599  :                     _Pnode = _Fixnodeparent->_Right;

  0016d	8b 4e 08	 mov	 ecx, DWORD PTR [esi+8]

; 600  :                     if (_Pnode->_Color == _Red) { // rotate red up from right subtree

  00170	80 79 0c 00	 cmp	 BYTE PTR [ecx+12], 0
  00174	75 54		 jne	 SHORT $LN95@Extract

; 601  :                         _Pnode->_Color         = _Black;

  00176	c6 41 0c 01	 mov	 BYTE PTR [ecx+12], 1

; 484  :         _Nodeptr _Pnode    = _Wherenode->_Right;

  0017a	8b 4e 08	 mov	 ecx, DWORD PTR [esi+8]

; 602  :                         _Fixnodeparent->_Color = _Red;

  0017d	c6 46 0c 00	 mov	 BYTE PTR [esi+12], 0

; 485  :         _Wherenode->_Right = _Pnode->_Left;

  00181	8b 01		 mov	 eax, DWORD PTR [ecx]
  00183	89 46 08	 mov	 DWORD PTR [esi+8], eax

; 486  : 
; 487  :         if (!_Pnode->_Left->_Isnil) {

  00186	8b 01		 mov	 eax, DWORD PTR [ecx]
  00188	80 78 0d 00	 cmp	 BYTE PTR [eax+13], 0
  0018c	75 03		 jne	 SHORT $LN61@Extract

; 488  :             _Pnode->_Left->_Parent = _Wherenode;

  0018e	89 70 04	 mov	 DWORD PTR [eax+4], esi
$LN61@Extract:

; 489  :         }
; 490  : 
; 491  :         _Pnode->_Parent = _Wherenode->_Parent;

  00191	8b 46 04	 mov	 eax, DWORD PTR [esi+4]
  00194	8d 56 04	 lea	 edx, DWORD PTR [esi+4]
  00197	89 41 04	 mov	 DWORD PTR [ecx+4], eax

; 492  : 
; 493  :         if (_Wherenode == _Myhead->_Parent) {

  0019a	8b 03		 mov	 eax, DWORD PTR [ebx]
  0019c	3b 70 04	 cmp	 esi, DWORD PTR [eax+4]
  0019f	75 0c		 jne	 SHORT $LN62@Extract

; 494  :             _Myhead->_Parent = _Pnode;

  001a1	89 48 04	 mov	 DWORD PTR [eax+4], ecx

; 499  :         }
; 500  : 
; 501  :         _Pnode->_Left       = _Wherenode;

  001a4	89 31		 mov	 DWORD PTR [ecx], esi

; 502  :         _Wherenode->_Parent = _Pnode;

  001a6	89 0a		 mov	 DWORD PTR [edx], ecx

; 603  :                         _Lrotate(_Fixnodeparent);
; 604  :                         _Pnode = _Fixnodeparent->_Right;

  001a8	8b 4e 08	 mov	 ecx, DWORD PTR [esi+8]
  001ab	eb 20		 jmp	 SHORT $LN87@Extract
$LN62@Extract:

; 495  :         } else if (_Wherenode == _Wherenode->_Parent->_Left) {

  001ad	8b 02		 mov	 eax, DWORD PTR [edx]
  001af	3b 30		 cmp	 esi, DWORD PTR [eax]
  001b1	75 0b		 jne	 SHORT $LN64@Extract

; 496  :             _Wherenode->_Parent->_Left = _Pnode;

  001b3	89 08		 mov	 DWORD PTR [eax], ecx

; 499  :         }
; 500  : 
; 501  :         _Pnode->_Left       = _Wherenode;

  001b5	89 31		 mov	 DWORD PTR [ecx], esi

; 502  :         _Wherenode->_Parent = _Pnode;

  001b7	89 0a		 mov	 DWORD PTR [edx], ecx

; 603  :                         _Lrotate(_Fixnodeparent);
; 604  :                         _Pnode = _Fixnodeparent->_Right;

  001b9	8b 4e 08	 mov	 ecx, DWORD PTR [esi+8]
  001bc	eb 0f		 jmp	 SHORT $LN87@Extract
$LN64@Extract:

; 498  :             _Wherenode->_Parent->_Right = _Pnode;

  001be	89 48 08	 mov	 DWORD PTR [eax+8], ecx

; 499  :         }
; 500  : 
; 501  :         _Pnode->_Left       = _Wherenode;

  001c1	89 31		 mov	 DWORD PTR [ecx], esi

; 502  :         _Wherenode->_Parent = _Pnode;

  001c3	89 0a		 mov	 DWORD PTR [edx], ecx

; 603  :                         _Lrotate(_Fixnodeparent);
; 604  :                         _Pnode = _Fixnodeparent->_Right;

  001c5	8b 4e 08	 mov	 ecx, DWORD PTR [esi+8]
  001c8	eb 03		 jmp	 SHORT $LN87@Extract
$LN95@Extract:
  001ca	8d 56 04	 lea	 edx, DWORD PTR [esi+4]
$LN87@Extract:

; 605  :                     }
; 606  : 
; 607  :                     if (_Pnode->_Isnil) {

  001cd	80 79 0d 00	 cmp	 BYTE PTR [ecx+13], 0
  001d1	0f 85 d0 00 00
	00		 jne	 $LN2@Extract

; 608  :                         _Fixnode = _Fixnodeparent; // shouldn't happen
; 609  :                     } else if (_Pnode->_Left->_Color == _Black
; 610  :                                && _Pnode->_Right->_Color == _Black) { // redden right subtree with black children

  001d7	8b 01		 mov	 eax, DWORD PTR [ecx]
  001d9	80 78 0c 01	 cmp	 BYTE PTR [eax+12], 1
  001dd	75 0d		 jne	 SHORT $LN97@Extract
  001df	8b 41 08	 mov	 eax, DWORD PTR [ecx+8]
  001e2	80 78 0c 01	 cmp	 BYTE PTR [eax+12], 1
  001e6	0f 84 b4 00 00
	00		 je	 $LN142@Extract
$LN97@Extract:

; 611  :                         _Pnode->_Color = _Red;
; 612  :                         _Fixnode       = _Fixnodeparent;
; 613  :                     } else { // must rearrange right subtree
; 614  :                         if (_Pnode->_Right->_Color == _Black) { // rotate red up from left sub-subtree

  001ec	8b 41 08	 mov	 eax, DWORD PTR [ecx+8]
  001ef	8b 5d fc	 mov	 ebx, DWORD PTR _this$1$[ebp]
  001f2	80 78 0c 01	 cmp	 BYTE PTR [eax+12], 1
  001f6	75 15		 jne	 SHORT $LN33@Extract

; 615  :                             _Pnode->_Left->_Color = _Black;

  001f8	8b 01		 mov	 eax, DWORD PTR [ecx]

; 616  :                             _Pnode->_Color        = _Red;
; 617  :                             _Rrotate(_Pnode);

  001fa	51		 push	 ecx
  001fb	c6 40 0c 01	 mov	 BYTE PTR [eax+12], 1
  001ff	c6 41 0c 00	 mov	 BYTE PTR [ecx+12], 0
  00203	8b cb		 mov	 ecx, ebx
  00205	e8 00 00 00 00	 call	 ?_Rrotate@?$_Tree_val@U?$_Tree_simple_types@U?$pair@$$CBKV?$vector@KV?$allocator@K@std@@@std@@@std@@@std@@@std@@QAEXPAU?$_Tree_node@U?$pair@$$CBKV?$vector@KV?$allocator@K@std@@@std@@@std@@PAX@2@@Z ; std::_Tree_val<std::_Tree_simple_types<std::pair<unsigned long const ,std::vector<unsigned long,std::allocator<unsigned long> > > > >::_Rrotate

; 618  :                             _Pnode = _Fixnodeparent->_Right;

  0020a	8b 4e 08	 mov	 ecx, DWORD PTR [esi+8]
$LN33@Extract:

; 619  :                         }
; 620  : 
; 621  :                         _Pnode->_Color         = _Fixnodeparent->_Color;

  0020d	8a 46 0c	 mov	 al, BYTE PTR [esi+12]
  00210	88 41 0c	 mov	 BYTE PTR [ecx+12], al

; 622  :                         _Fixnodeparent->_Color = _Black;

  00213	c6 46 0c 01	 mov	 BYTE PTR [esi+12], 1

; 623  :                         _Pnode->_Right->_Color = _Black;

  00217	8b 41 08	 mov	 eax, DWORD PTR [ecx+8]

; 624  :                         _Lrotate(_Fixnodeparent);

  0021a	8b cb		 mov	 ecx, ebx
  0021c	56		 push	 esi
  0021d	c6 40 0c 01	 mov	 BYTE PTR [eax+12], 1
  00221	e8 00 00 00 00	 call	 ?_Lrotate@?$_Tree_val@U?$_Tree_simple_types@U?$pair@$$CBKV?$vector@KV?$allocator@K@std@@@std@@@std@@@std@@@std@@QAEXPAU?$_Tree_node@U?$pair@$$CBKV?$vector@KV?$allocator@K@std@@@std@@@std@@PAX@2@@Z ; std::_Tree_val<std::_Tree_simple_types<std::pair<unsigned long const ,std::vector<unsigned long,std::allocator<unsigned long> > > > >::_Lrotate

; 625  :                         break; // tree now recolored/rebalanced

  00226	e9 d3 00 00 00	 jmp	 $LN3@Extract
$LN26@Extract:

; 626  :                     }
; 627  :                 } else { // fixup right subtree
; 628  :                     _Pnode = _Fixnodeparent->_Left;
; 629  :                     if (_Pnode->_Color == _Red) { // rotate red up from left subtree

  0022b	80 79 0c 00	 cmp	 BYTE PTR [ecx+12], 0
  0022f	75 55		 jne	 SHORT $LN96@Extract

; 630  :                         _Pnode->_Color         = _Black;

  00231	c6 41 0c 01	 mov	 BYTE PTR [ecx+12], 1

; 506  :         _Nodeptr _Pnode   = _Wherenode->_Left;

  00235	8b 0e		 mov	 ecx, DWORD PTR [esi]

; 631  :                         _Fixnodeparent->_Color = _Red;

  00237	c6 46 0c 00	 mov	 BYTE PTR [esi+12], 0

; 507  :         _Wherenode->_Left = _Pnode->_Right;

  0023b	8b 41 08	 mov	 eax, DWORD PTR [ecx+8]
  0023e	89 06		 mov	 DWORD PTR [esi], eax

; 508  : 
; 509  :         if (!_Pnode->_Right->_Isnil) {

  00240	8b 41 08	 mov	 eax, DWORD PTR [ecx+8]
  00243	80 78 0d 00	 cmp	 BYTE PTR [eax+13], 0
  00247	75 03		 jne	 SHORT $LN69@Extract

; 510  :             _Pnode->_Right->_Parent = _Wherenode;

  00249	89 70 04	 mov	 DWORD PTR [eax+4], esi
$LN69@Extract:

; 511  :         }
; 512  : 
; 513  :         _Pnode->_Parent = _Wherenode->_Parent;

  0024c	8b 46 04	 mov	 eax, DWORD PTR [esi+4]
  0024f	8d 56 04	 lea	 edx, DWORD PTR [esi+4]
  00252	89 41 04	 mov	 DWORD PTR [ecx+4], eax

; 514  : 
; 515  :         if (_Wherenode == _Myhead->_Parent) {

  00255	8b 03		 mov	 eax, DWORD PTR [ebx]
  00257	3b 70 04	 cmp	 esi, DWORD PTR [eax+4]
  0025a	75 0c		 jne	 SHORT $LN70@Extract

; 516  :             _Myhead->_Parent = _Pnode;

  0025c	89 48 04	 mov	 DWORD PTR [eax+4], ecx

; 521  :         }
; 522  : 
; 523  :         _Pnode->_Right      = _Wherenode;

  0025f	89 71 08	 mov	 DWORD PTR [ecx+8], esi

; 524  :         _Wherenode->_Parent = _Pnode;

  00262	89 0a		 mov	 DWORD PTR [edx], ecx

; 632  :                         _Rrotate(_Fixnodeparent);
; 633  :                         _Pnode = _Fixnodeparent->_Left;

  00264	8b 0e		 mov	 ecx, DWORD PTR [esi]
  00266	eb 21		 jmp	 SHORT $LN86@Extract
$LN70@Extract:

; 517  :         } else if (_Wherenode == _Wherenode->_Parent->_Right) {

  00268	8b 02		 mov	 eax, DWORD PTR [edx]
  0026a	3b 70 08	 cmp	 esi, DWORD PTR [eax+8]
  0026d	75 0c		 jne	 SHORT $LN72@Extract

; 518  :             _Wherenode->_Parent->_Right = _Pnode;

  0026f	89 48 08	 mov	 DWORD PTR [eax+8], ecx

; 521  :         }
; 522  : 
; 523  :         _Pnode->_Right      = _Wherenode;

  00272	89 71 08	 mov	 DWORD PTR [ecx+8], esi

; 524  :         _Wherenode->_Parent = _Pnode;

  00275	89 0a		 mov	 DWORD PTR [edx], ecx

; 632  :                         _Rrotate(_Fixnodeparent);
; 633  :                         _Pnode = _Fixnodeparent->_Left;

  00277	8b 0e		 mov	 ecx, DWORD PTR [esi]
  00279	eb 0e		 jmp	 SHORT $LN86@Extract
$LN72@Extract:

; 520  :             _Wherenode->_Parent->_Left = _Pnode;

  0027b	89 08		 mov	 DWORD PTR [eax], ecx

; 521  :         }
; 522  : 
; 523  :         _Pnode->_Right      = _Wherenode;

  0027d	89 71 08	 mov	 DWORD PTR [ecx+8], esi

; 524  :         _Wherenode->_Parent = _Pnode;

  00280	89 0a		 mov	 DWORD PTR [edx], ecx

; 632  :                         _Rrotate(_Fixnodeparent);
; 633  :                         _Pnode = _Fixnodeparent->_Left;

  00282	8b 0e		 mov	 ecx, DWORD PTR [esi]
  00284	eb 03		 jmp	 SHORT $LN86@Extract
$LN96@Extract:
  00286	8d 56 04	 lea	 edx, DWORD PTR [esi+4]
$LN86@Extract:

; 634  :                     }
; 635  : 
; 636  :                     if (_Pnode->_Isnil) {

  00289	80 79 0d 00	 cmp	 BYTE PTR [ecx+13], 0
  0028d	75 18		 jne	 SHORT $LN2@Extract

; 637  :                         _Fixnode = _Fixnodeparent; // shouldn't happen
; 638  :                     } else if (_Pnode->_Right->_Color == _Black
; 639  :                                && _Pnode->_Left->_Color == _Black) { // redden left subtree with black children

  0028f	8b 59 08	 mov	 ebx, DWORD PTR [ecx+8]
  00292	80 7b 0c 01	 cmp	 BYTE PTR [ebx+12], 1
  00296	75 2c		 jne	 SHORT $LN98@Extract
  00298	8b 01		 mov	 eax, DWORD PTR [ecx]
  0029a	80 78 0c 01	 cmp	 BYTE PTR [eax+12], 1
  0029e	75 24		 jne	 SHORT $LN98@Extract
$LN142@Extract:

; 597  :             for (; _Fixnode != _Myhead->_Parent && _Fixnode->_Color == _Black; _Fixnodeparent = _Fixnode->_Parent) {

  002a0	8b 5d fc	 mov	 ebx, DWORD PTR _this$1$[ebp]
  002a3	c6 41 0c 00	 mov	 BYTE PTR [ecx+12], 0
$LN2@Extract:
  002a7	8b 03		 mov	 eax, DWORD PTR [ebx]
  002a9	8b 4d f4	 mov	 ecx, DWORD PTR tv1093[ebp]
  002ac	8b f9		 mov	 edi, ecx
  002ae	8b 32		 mov	 esi, DWORD PTR [edx]
  002b0	3b 48 04	 cmp	 ecx, DWORD PTR [eax+4]
  002b3	74 49		 je	 SHORT $LN3@Extract
  002b5	80 7f 0c 01	 cmp	 BYTE PTR [edi+12], 1
  002b9	89 75 f4	 mov	 DWORD PTR tv1093[ebp], esi
  002bc	0f 84 a1 fe ff
	ff		 je	 $LL4@Extract
  002c2	eb 3a		 jmp	 SHORT $LN3@Extract
$LN98@Extract:

; 640  :                         _Pnode->_Color = _Red;
; 641  :                         _Fixnode       = _Fixnodeparent;
; 642  :                     } else { // must rearrange left subtree
; 643  :                         if (_Pnode->_Left->_Color == _Black) { // rotate red up from right sub-subtree

  002c4	8b 01		 mov	 eax, DWORD PTR [ecx]
  002c6	80 78 0c 01	 cmp	 BYTE PTR [eax+12], 1
  002ca	75 17		 jne	 SHORT $LN101@Extract

; 644  :                             _Pnode->_Right->_Color = _Black;

  002cc	c6 43 0c 01	 mov	 BYTE PTR [ebx+12], 1

; 645  :                             _Pnode->_Color         = _Red;
; 646  :                             _Lrotate(_Pnode);

  002d0	8b 5d fc	 mov	 ebx, DWORD PTR _this$1$[ebp]
  002d3	c6 41 0c 00	 mov	 BYTE PTR [ecx+12], 0
  002d7	51		 push	 ecx
  002d8	8b cb		 mov	 ecx, ebx
  002da	e8 00 00 00 00	 call	 ?_Lrotate@?$_Tree_val@U?$_Tree_simple_types@U?$pair@$$CBKV?$vector@KV?$allocator@K@std@@@std@@@std@@@std@@@std@@QAEXPAU?$_Tree_node@U?$pair@$$CBKV?$vector@KV?$allocator@K@std@@@std@@@std@@PAX@2@@Z ; std::_Tree_val<std::_Tree_simple_types<std::pair<unsigned long const ,std::vector<unsigned long,std::allocator<unsigned long> > > > >::_Lrotate

; 647  :                             _Pnode = _Fixnodeparent->_Left;

  002df	8b 0e		 mov	 ecx, DWORD PTR [esi]
  002e1	eb 03		 jmp	 SHORT $LN39@Extract
$LN101@Extract:

; 640  :                         _Pnode->_Color = _Red;
; 641  :                         _Fixnode       = _Fixnodeparent;
; 642  :                     } else { // must rearrange left subtree
; 643  :                         if (_Pnode->_Left->_Color == _Black) { // rotate red up from right sub-subtree

  002e3	8b 5d fc	 mov	 ebx, DWORD PTR _this$1$[ebp]
$LN39@Extract:

; 648  :                         }
; 649  : 
; 650  :                         _Pnode->_Color         = _Fixnodeparent->_Color;

  002e6	8a 46 0c	 mov	 al, BYTE PTR [esi+12]
  002e9	88 41 0c	 mov	 BYTE PTR [ecx+12], al

; 651  :                         _Fixnodeparent->_Color = _Black;

  002ec	c6 46 0c 01	 mov	 BYTE PTR [esi+12], 1

; 652  :                         _Pnode->_Left->_Color  = _Black;

  002f0	8b 01		 mov	 eax, DWORD PTR [ecx]

; 653  :                         _Rrotate(_Fixnodeparent);

  002f2	8b cb		 mov	 ecx, ebx
  002f4	56		 push	 esi
  002f5	c6 40 0c 01	 mov	 BYTE PTR [eax+12], 1
  002f9	e8 00 00 00 00	 call	 ?_Rrotate@?$_Tree_val@U?$_Tree_simple_types@U?$pair@$$CBKV?$vector@KV?$allocator@K@std@@@std@@@std@@@std@@@std@@QAEXPAU?$_Tree_node@U?$pair@$$CBKV?$vector@KV?$allocator@K@std@@@std@@@std@@PAX@2@@Z ; std::_Tree_val<std::_Tree_simple_types<std::pair<unsigned long const ,std::vector<unsigned long,std::allocator<unsigned long> > > > >::_Rrotate
$LN3@Extract:

; 654  :                         break; // tree now recolored/rebalanced
; 655  :                     }
; 656  :                 }
; 657  :             }
; 658  : 
; 659  :             _Fixnode->_Color = _Black; // stopping node is black

  002fe	8b 45 f8	 mov	 eax, DWORD PTR __Erasednode$1$[ebp]
  00301	c6 47 0c 01	 mov	 BYTE PTR [edi+12], 1
$LN25@Extract:

; 660  :         }
; 661  : 
; 662  :         if (0 < _Mysize) {

  00305	8b 4b 04	 mov	 ecx, DWORD PTR [ebx+4]
  00308	85 c9		 test	 ecx, ecx
  0030a	74 04		 je	 SHORT $LN40@Extract

; 663  :             --_Mysize;

  0030c	49		 dec	 ecx
  0030d	89 4b 04	 mov	 DWORD PTR [ebx+4], ecx
$LN40@Extract:

; 664  :         }
; 665  : 
; 666  :         return _Erasednode;
; 667  :     }

  00310	5f		 pop	 edi
  00311	5e		 pop	 esi
  00312	5b		 pop	 ebx
  00313	8b e5		 mov	 esp, ebp
  00315	5d		 pop	 ebp
  00316	c2 04 00	 ret	 4
?_Extract@?$_Tree_val@U?$_Tree_simple_types@U?$pair@$$CBKV?$vector@KV?$allocator@K@std@@@std@@@std@@@std@@@std@@QAEPAU?$_Tree_node@U?$pair@$$CBKV?$vector@KV?$allocator@K@std@@@std@@@std@@PAX@2@V?$_Tree_unchecked_const_iterator@V?$_Tree_val@U?$_Tree_simple_types@U?$pair@$$CBKV?$vector@KV?$allocator@K@std@@@std@@@std@@@std@@@std@@U_Iterator_base0@2@@2@@Z ENDP ; std::_Tree_val<std::_Tree_simple_types<std::pair<unsigned long const ,std::vector<unsigned long,std::allocator<unsigned long> > > > >::_Extract
_TEXT	ENDS
; Function compile flags: /Ogtp
; File C:\Program Files\Microsoft Visual Studio\2022\Professional\VC\Tools\MSVC\14.44.35207\include\xtree
;	COMDAT ?_Rrotate@?$_Tree_val@U?$_Tree_simple_types@U?$pair@$$CBKV?$vector@KV?$allocator@K@std@@@std@@@std@@@std@@@std@@QAEXPAU?$_Tree_node@U?$pair@$$CBKV?$vector@KV?$allocator@K@std@@@std@@@std@@PAX@2@@Z
_TEXT	SEGMENT
__Wherenode$ = 8					; size = 4
?_Rrotate@?$_Tree_val@U?$_Tree_simple_types@U?$pair@$$CBKV?$vector@KV?$allocator@K@std@@@std@@@std@@@std@@@std@@QAEXPAU?$_Tree_node@U?$pair@$$CBKV?$vector@KV?$allocator@K@std@@@std@@@std@@PAX@2@@Z PROC ; std::_Tree_val<std::_Tree_simple_types<std::pair<unsigned long const ,std::vector<unsigned long,std::allocator<unsigned long> > > > >::_Rrotate, COMDAT
; _this$ = ecx

; 505  :     void _Rrotate(_Nodeptr _Wherenode) noexcept { // promote left node to root of subtree

  00000	55		 push	 ebp
  00001	8b ec		 mov	 ebp, esp

; 506  :         _Nodeptr _Pnode   = _Wherenode->_Left;

  00003	8b 55 08	 mov	 edx, DWORD PTR __Wherenode$[ebp]
  00006	56		 push	 esi
  00007	8b 32		 mov	 esi, DWORD PTR [edx]

; 507  :         _Wherenode->_Left = _Pnode->_Right;

  00009	8b 46 08	 mov	 eax, DWORD PTR [esi+8]
  0000c	89 02		 mov	 DWORD PTR [edx], eax

; 508  : 
; 509  :         if (!_Pnode->_Right->_Isnil) {

  0000e	8b 46 08	 mov	 eax, DWORD PTR [esi+8]
  00011	80 78 0d 00	 cmp	 BYTE PTR [eax+13], 0
  00015	75 03		 jne	 SHORT $LN2@Rrotate

; 510  :             _Pnode->_Right->_Parent = _Wherenode;

  00017	89 50 04	 mov	 DWORD PTR [eax+4], edx
$LN2@Rrotate:

; 511  :         }
; 512  : 
; 513  :         _Pnode->_Parent = _Wherenode->_Parent;

  0001a	8b 42 04	 mov	 eax, DWORD PTR [edx+4]
  0001d	89 46 04	 mov	 DWORD PTR [esi+4], eax

; 514  : 
; 515  :         if (_Wherenode == _Myhead->_Parent) {

  00020	8b 01		 mov	 eax, DWORD PTR [ecx]
  00022	3b 50 04	 cmp	 edx, DWORD PTR [eax+4]
  00025	75 0e		 jne	 SHORT $LN3@Rrotate

; 516  :             _Myhead->_Parent = _Pnode;

  00027	89 70 04	 mov	 DWORD PTR [eax+4], esi

; 521  :         }
; 522  : 
; 523  :         _Pnode->_Right      = _Wherenode;
; 524  :         _Wherenode->_Parent = _Pnode;
; 525  :     }

  0002a	89 56 08	 mov	 DWORD PTR [esi+8], edx
  0002d	89 72 04	 mov	 DWORD PTR [edx+4], esi
  00030	5e		 pop	 esi
  00031	5d		 pop	 ebp
  00032	c2 04 00	 ret	 4
$LN3@Rrotate:

; 517  :         } else if (_Wherenode == _Wherenode->_Parent->_Right) {

  00035	8b 42 04	 mov	 eax, DWORD PTR [edx+4]
  00038	3b 50 08	 cmp	 edx, DWORD PTR [eax+8]
  0003b	75 0e		 jne	 SHORT $LN5@Rrotate

; 518  :             _Wherenode->_Parent->_Right = _Pnode;

  0003d	89 70 08	 mov	 DWORD PTR [eax+8], esi

; 521  :         }
; 522  : 
; 523  :         _Pnode->_Right      = _Wherenode;
; 524  :         _Wherenode->_Parent = _Pnode;
; 525  :     }

  00040	89 56 08	 mov	 DWORD PTR [esi+8], edx
  00043	89 72 04	 mov	 DWORD PTR [edx+4], esi
  00046	5e		 pop	 esi
  00047	5d		 pop	 ebp
  00048	c2 04 00	 ret	 4
$LN5@Rrotate:

; 519  :         } else {
; 520  :             _Wherenode->_Parent->_Left = _Pnode;

  0004b	89 30		 mov	 DWORD PTR [eax], esi

; 521  :         }
; 522  : 
; 523  :         _Pnode->_Right      = _Wherenode;
; 524  :         _Wherenode->_Parent = _Pnode;
; 525  :     }

  0004d	89 56 08	 mov	 DWORD PTR [esi+8], edx
  00050	89 72 04	 mov	 DWORD PTR [edx+4], esi
  00053	5e		 pop	 esi
  00054	5d		 pop	 ebp
  00055	c2 04 00	 ret	 4
?_Rrotate@?$_Tree_val@U?$_Tree_simple_types@U?$pair@$$CBKV?$vector@KV?$allocator@K@std@@@std@@@std@@@std@@@std@@QAEXPAU?$_Tree_node@U?$pair@$$CBKV?$vector@KV?$allocator@K@std@@@std@@@std@@PAX@2@@Z ENDP ; std::_Tree_val<std::_Tree_simple_types<std::pair<unsigned long const ,std::vector<unsigned long,std::allocator<unsigned long> > > > >::_Rrotate
_TEXT	ENDS
; Function compile flags: /Ogtp
; File C:\Program Files\Microsoft Visual Studio\2022\Professional\VC\Tools\MSVC\14.44.35207\include\xtree
;	COMDAT ?_Lrotate@?$_Tree_val@U?$_Tree_simple_types@U?$pair@$$CBKV?$vector@KV?$allocator@K@std@@@std@@@std@@@std@@@std@@QAEXPAU?$_Tree_node@U?$pair@$$CBKV?$vector@KV?$allocator@K@std@@@std@@@std@@PAX@2@@Z
_TEXT	SEGMENT
__Wherenode$ = 8					; size = 4
?_Lrotate@?$_Tree_val@U?$_Tree_simple_types@U?$pair@$$CBKV?$vector@KV?$allocator@K@std@@@std@@@std@@@std@@@std@@QAEXPAU?$_Tree_node@U?$pair@$$CBKV?$vector@KV?$allocator@K@std@@@std@@@std@@PAX@2@@Z PROC ; std::_Tree_val<std::_Tree_simple_types<std::pair<unsigned long const ,std::vector<unsigned long,std::allocator<unsigned long> > > > >::_Lrotate, COMDAT
; _this$ = ecx

; 483  :     void _Lrotate(_Nodeptr _Wherenode) noexcept { // promote right node to root of subtree

  00000	55		 push	 ebp
  00001	8b ec		 mov	 ebp, esp

; 484  :         _Nodeptr _Pnode    = _Wherenode->_Right;

  00003	8b 55 08	 mov	 edx, DWORD PTR __Wherenode$[ebp]
  00006	56		 push	 esi
  00007	8b 72 08	 mov	 esi, DWORD PTR [edx+8]

; 485  :         _Wherenode->_Right = _Pnode->_Left;

  0000a	8b 06		 mov	 eax, DWORD PTR [esi]
  0000c	89 42 08	 mov	 DWORD PTR [edx+8], eax

; 486  : 
; 487  :         if (!_Pnode->_Left->_Isnil) {

  0000f	8b 06		 mov	 eax, DWORD PTR [esi]
  00011	80 78 0d 00	 cmp	 BYTE PTR [eax+13], 0
  00015	75 03		 jne	 SHORT $LN2@Lrotate

; 488  :             _Pnode->_Left->_Parent = _Wherenode;

  00017	89 50 04	 mov	 DWORD PTR [eax+4], edx
$LN2@Lrotate:

; 489  :         }
; 490  : 
; 491  :         _Pnode->_Parent = _Wherenode->_Parent;

  0001a	8b 42 04	 mov	 eax, DWORD PTR [edx+4]
  0001d	89 46 04	 mov	 DWORD PTR [esi+4], eax

; 492  : 
; 493  :         if (_Wherenode == _Myhead->_Parent) {

  00020	8b 01		 mov	 eax, DWORD PTR [ecx]
  00022	3b 50 04	 cmp	 edx, DWORD PTR [eax+4]
  00025	75 0d		 jne	 SHORT $LN3@Lrotate

; 494  :             _Myhead->_Parent = _Pnode;

  00027	89 70 04	 mov	 DWORD PTR [eax+4], esi

; 499  :         }
; 500  : 
; 501  :         _Pnode->_Left       = _Wherenode;
; 502  :         _Wherenode->_Parent = _Pnode;
; 503  :     }

  0002a	89 16		 mov	 DWORD PTR [esi], edx
  0002c	89 72 04	 mov	 DWORD PTR [edx+4], esi
  0002f	5e		 pop	 esi
  00030	5d		 pop	 ebp
  00031	c2 04 00	 ret	 4
$LN3@Lrotate:

; 495  :         } else if (_Wherenode == _Wherenode->_Parent->_Left) {

  00034	8b 42 04	 mov	 eax, DWORD PTR [edx+4]
  00037	3b 10		 cmp	 edx, DWORD PTR [eax]
  00039	75 0c		 jne	 SHORT $LN5@Lrotate

; 496  :             _Wherenode->_Parent->_Left = _Pnode;

  0003b	89 30		 mov	 DWORD PTR [eax], esi

; 499  :         }
; 500  : 
; 501  :         _Pnode->_Left       = _Wherenode;
; 502  :         _Wherenode->_Parent = _Pnode;
; 503  :     }

  0003d	89 16		 mov	 DWORD PTR [esi], edx
  0003f	89 72 04	 mov	 DWORD PTR [edx+4], esi
  00042	5e		 pop	 esi
  00043	5d		 pop	 ebp
  00044	c2 04 00	 ret	 4
$LN5@Lrotate:

; 497  :         } else {
; 498  :             _Wherenode->_Parent->_Right = _Pnode;

  00047	89 70 08	 mov	 DWORD PTR [eax+8], esi

; 499  :         }
; 500  : 
; 501  :         _Pnode->_Left       = _Wherenode;
; 502  :         _Wherenode->_Parent = _Pnode;
; 503  :     }

  0004a	89 16		 mov	 DWORD PTR [esi], edx
  0004c	89 72 04	 mov	 DWORD PTR [edx+4], esi
  0004f	5e		 pop	 esi
  00050	5d		 pop	 ebp
  00051	c2 04 00	 ret	 4
?_Lrotate@?$_Tree_val@U?$_Tree_simple_types@U?$pair@$$CBKV?$vector@KV?$allocator@K@std@@@std@@@std@@@std@@@std@@QAEXPAU?$_Tree_node@U?$pair@$$CBKV?$vector@KV?$allocator@K@std@@@std@@@std@@PAX@2@@Z ENDP ; std::_Tree_val<std::_Tree_simple_types<std::pair<unsigned long const ,std::vector<unsigned long,std::allocator<unsigned long> > > > >::_Lrotate
_TEXT	ENDS
; Function compile flags: /Ogtp
; File C:\IAGOS\server\v18\Source\Source\_Common\Housing.cpp
; File C:\Program Files\Microsoft Visual Studio\2022\Professional\VC\Tools\MSVC\14.44.35207\include\xtree
; File C:\IAGOS\server\v18\Source\Source\_Common\Housing.cpp
; File C:\Program Files\Microsoft Visual Studio\2022\Professional\VC\Tools\MSVC\14.44.35207\include\xtree
; File C:\Program Files\Microsoft Visual Studio\2022\Professional\VC\Tools\MSVC\14.44.35207\include\type_traits
; File C:\Program Files\Microsoft Visual Studio\2022\Professional\VC\Tools\MSVC\14.44.35207\include\xtree
; File C:\IAGOS\server\v18\Source\Source\_Common\Housing.cpp
; File C:\Program Files\Microsoft Visual Studio\2022\Professional\VC\Tools\MSVC\14.44.35207\include\xtree
; File C:\Program Files\Microsoft Visual Studio\2022\Professional\VC\Tools\MSVC\14.44.35207\include\xmemory
; File C:\IAGOS\server\v18\Source\Source\_Common\Housing.cpp
;	COMDAT ?DestroyHousing@CHousingMng@@QAEHK@Z
_TEXT	SEGMENT
__Loc$1 = -12						; size = 12
_dwPlayerId$ = 8					; size = 4
?DestroyHousing@CHousingMng@@QAEHK@Z PROC		; CHousingMng::DestroyHousing, COMDAT
; _this$ = ecx

; 543  : {

  00000	55		 push	 ebp
  00001	8b ec		 mov	 ebp, esp
  00003	83 ec 0c	 sub	 esp, 12			; 0000000cH
  00006	53		 push	 ebx
  00007	56		 push	 esi
; File C:\Program Files\Microsoft Visual Studio\2022\Professional\VC\Tools\MSVC\14.44.35207\include\xtree

; 1384 :         const _Tree_find_result<_Nodeptr> _Loc = _Find_lower_bound(_Keyval);

  00008	8d 45 08	 lea	 eax, DWORD PTR _dwPlayerId$[ebp]
  0000b	50		 push	 eax
; File C:\IAGOS\server\v18\Source\Source\_Common\Housing.cpp

; 544  : 	MAP_HP::iterator it = m_mapHousing.find( dwPlayerId );

  0000c	8d 59 08	 lea	 ebx, DWORD PTR [ecx+8]
; File C:\Program Files\Microsoft Visual Studio\2022\Professional\VC\Tools\MSVC\14.44.35207\include\xtree

; 1384 :         const _Tree_find_result<_Nodeptr> _Loc = _Find_lower_bound(_Keyval);

  0000f	8d 45 f4	 lea	 eax, DWORD PTR __Loc$1[ebp]
  00012	8b cb		 mov	 ecx, ebx
  00014	50		 push	 eax
  00015	e8 00 00 00 00	 call	 ??$_Find_lower_bound@K@?$_Tree@V?$_Tmap_traits@KPAVCHousing@@U?$less@K@std@@V?$allocator@U?$pair@$$CBKPAVCHousing@@@std@@@3@$0A@@std@@@std@@IBE?AU?$_Tree_find_result@PAU?$_Tree_node@U?$pair@$$CBKPAVCHousing@@@std@@PAX@std@@@1@ABK@Z ; std::_Tree<std::_Tmap_traits<unsigned long,CHousing *,std::less<unsigned long>,std::allocator<std::pair<unsigned long const ,CHousing *> >,0> >::_Find_lower_bound<unsigned long>

; 1624 :         return !_Bound->_Isnil && !_DEBUG_LT_PRED(_Getcomp(), _Keyval, _Traits::_Kfn(_Bound->_Myval));

  0001a	8b 75 fc	 mov	 esi, DWORD PTR __Loc$1[ebp+8]
  0001d	8b 45 08	 mov	 eax, DWORD PTR _dwPlayerId$[ebp]
  00020	80 7e 0d 00	 cmp	 BYTE PTR [esi+13], 0
  00024	75 4b		 jne	 SHORT $LN2@DestroyHou
; File C:\Program Files\Microsoft Visual Studio\2022\Professional\VC\Tools\MSVC\14.44.35207\include\type_traits

; 2380 :         return _Left < _Right;

  00026	3b 46 10	 cmp	 eax, DWORD PTR [esi+16]
; File C:\Program Files\Microsoft Visual Studio\2022\Professional\VC\Tools\MSVC\14.44.35207\include\xtree

; 1624 :         return !_Bound->_Isnil && !_DEBUG_LT_PRED(_Getcomp(), _Keyval, _Traits::_Kfn(_Bound->_Myval));

  00029	72 46		 jb	 SHORT $LN2@DestroyHou

; 37   :     _Tree_unchecked_const_iterator(_Nodeptr _Pnode, const _Mytree* _Plist) noexcept : _Ptr(_Pnode) {

  0002b	3b 33		 cmp	 esi, DWORD PTR [ebx]
; File C:\IAGOS\server\v18\Source\Source\_Common\Housing.cpp

; 545  : 	if( it != m_mapHousing.end() )

  0002d	74 42		 je	 SHORT $LN2@DestroyHou

; 546  : 	{
; 547  : 		SAFE_DELETE( it->second );

  0002f	57		 push	 edi
  00030	8b 7e 14	 mov	 edi, DWORD PTR [esi+20]
  00033	85 ff		 test	 edi, edi
  00035	74 19		 je	 SHORT $LN3@DestroyHou
  00037	8b cf		 mov	 ecx, edi
  00039	e8 00 00 00 00	 call	 ??1CHousing@@QAE@XZ	; CHousing::~CHousing
  0003e	6a 20		 push	 32			; 00000020H
  00040	57		 push	 edi
  00041	e8 00 00 00 00	 call	 ??3@YAXPAXI@Z		; operator delete
  00046	83 c4 08	 add	 esp, 8
  00049	c7 46 14 00 00
	00 00		 mov	 DWORD PTR [esi+20], 0
$LN3@DestroyHou:
; File C:\Program Files\Microsoft Visual Studio\2022\Professional\VC\Tools\MSVC\14.44.35207\include\xtree

; 1303 :         _Nodeptr _Erasednode = _Scary->_Extract(_Where); // node to erase

  00050	56		 push	 esi
  00051	8b cb		 mov	 ecx, ebx
  00053	e8 00 00 00 00	 call	 ?_Extract@?$_Tree_val@U?$_Tree_simple_types@U?$pair@$$CBKPAVCHousing@@@std@@@std@@@std@@QAEPAU?$_Tree_node@U?$pair@$$CBKPAVCHousing@@@std@@PAX@2@V?$_Tree_unchecked_const_iterator@V?$_Tree_val@U?$_Tree_simple_types@U?$pair@$$CBKPAVCHousing@@@std@@@std@@@std@@U_Iterator_base0@2@@2@@Z ; std::_Tree_val<std::_Tree_simple_types<std::pair<unsigned long const ,CHousing *> > >::_Extract
; File C:\Program Files\Microsoft Visual Studio\2022\Professional\VC\Tools\MSVC\14.44.35207\include\xmemory

; 289  :         ::operator delete(_Ptr, _Bytes);

  00058	6a 18		 push	 24			; 00000018H
  0005a	50		 push	 eax
  0005b	e8 00 00 00 00	 call	 ??3@YAXPAXI@Z		; operator delete
  00060	83 c4 08	 add	 esp, 8
; File C:\IAGOS\server\v18\Source\Source\_Common\Housing.cpp

; 549  : 		return TRUE;

  00063	b8 01 00 00 00	 mov	 eax, 1
  00068	5f		 pop	 edi
  00069	5e		 pop	 esi

; 553  : }

  0006a	5b		 pop	 ebx
  0006b	8b e5		 mov	 esp, ebp
  0006d	5d		 pop	 ebp
  0006e	c2 04 00	 ret	 4
$LN2@DestroyHou:

; 550  : 	}
; 551  : 	Error( "CHousingMng::DestroyHousing() - Housing not found : %d", dwPlayerId );

  00071	50		 push	 eax
  00072	68 00 00 00 00	 push	 OFFSET ??_C@_0DH@MBBGENJL@CHousingMng?3?3DestroyHousing?$CI?$CJ?5?9@
  00077	e8 00 00 00 00	 call	 ?Error@@YAPBDPBDZZ	; Error
  0007c	83 c4 08	 add	 esp, 8

; 552  : 	return FALSE;

  0007f	33 c0		 xor	 eax, eax
  00081	5e		 pop	 esi

; 553  : }

  00082	5b		 pop	 ebx
  00083	8b e5		 mov	 esp, ebp
  00085	5d		 pop	 ebp
  00086	c2 04 00	 ret	 4
?DestroyHousing@CHousingMng@@QAEHK@Z ENDP		; CHousingMng::DestroyHousing
_TEXT	ENDS
; Function compile flags: /Ogtp
; File C:\IAGOS\server\v18\Source\Source\_Common\Housing.cpp
;	COMDAT ?CreateRoomLayer@CHousingMng@@QAEXK@Z
_TEXT	SEGMENT
_dwPlayerId$ = 8					; size = 4
?CreateRoomLayer@CHousingMng@@QAEXK@Z PROC		; CHousingMng::CreateRoomLayer, COMDAT
; _this$ = ecx

; 536  : {

  00000	55		 push	 ebp
  00001	8b ec		 mov	 ebp, esp
  00003	56		 push	 esi

; 537  : 	CWorld* pWorld = g_WorldMng.GetWorld( WI_WORLD_MINIROOM );

  00004	68 d1 00 00 00	 push	 209			; 000000d1H
  00009	b9 00 00 00 00	 mov	 ecx, OFFSET ?g_WorldMng@@3VCWorldMng@@A ; g_WorldMng
  0000e	e8 00 00 00 00	 call	 ?GetWorld@CWorldMng@@QAEPAVCWorld@@K@Z ; CWorldMng::GetWorld
  00013	8b f0		 mov	 esi, eax

; 538  : 	if( pWorld && !pWorld->m_linkMap.GetLinkMap( static_cast<int>( dwPlayerId ) ) )

  00015	85 f6		 test	 esi, esi
  00017	74 19		 je	 SHORT $LN2@CreateRoom
  00019	ff 75 08	 push	 DWORD PTR _dwPlayerId$[ebp]
  0001c	8d 4e 24	 lea	 ecx, DWORD PTR [esi+36]
  0001f	e8 00 00 00 00	 call	 ?GetLinkMap@CLayeredLinkMap@@QAEPAVCLinkMap@@H@Z ; CLayeredLinkMap::GetLinkMap
  00024	85 c0		 test	 eax, eax
  00026	75 0a		 jne	 SHORT $LN2@CreateRoom

; 539  : 		pWorld->CreateLayer( static_cast<int>( dwPlayerId ) );

  00028	ff 75 08	 push	 DWORD PTR _dwPlayerId$[ebp]
  0002b	8b ce		 mov	 ecx, esi
  0002d	e8 00 00 00 00	 call	 ?CreateLayer@CWorld@@QAEHH@Z ; CWorld::CreateLayer
$LN2@CreateRoom:
  00032	5e		 pop	 esi

; 540  : }

  00033	5d		 pop	 ebp
  00034	c2 04 00	 ret	 4
?CreateRoomLayer@CHousingMng@@QAEXK@Z ENDP		; CHousingMng::CreateRoomLayer
_TEXT	ENDS
; Function compile flags: /Ogtp
; File C:\IAGOS\server\v18\Source\Source\_Common\Housing.cpp
; File C:\IAGOS\server\v18\Source\Source\_Network\Net\Include\DPMng.h
; File C:\IAGOS\server\v18\Source\Source\_Common\Housing.cpp
;	COMDAT ?ReqGMFunrnitureListAll@CHousingMng@@QAEXPAVCUser@@@Z
_TEXT	SEGMENT
_nBufSize$2 = -16436					; size = 4
$T3 = -16432						; size = 4
$T4 = -16428						; size = 4
$T5 = -16424						; size = 4
_ar$6 = -16420						; size = 16404
__$ArrayPad$ = -16					; size = 4
__$EHRec$ = -12						; size = 12
_pUser$ = 8						; size = 4
?ReqGMFunrnitureListAll@CHousingMng@@QAEXPAVCUser@@@Z PROC ; CHousingMng::ReqGMFunrnitureListAll, COMDAT
; _this$ = ecx

; 525  : {

  00000	55		 push	 ebp
  00001	8b ec		 mov	 ebp, esp
  00003	6a ff		 push	 -1
  00005	68 00 00 00 00	 push	 __ehhandler$?ReqGMFunrnitureListAll@CHousingMng@@QAEXPAVCUser@@@Z
  0000a	64 a1 00 00 00
	00		 mov	 eax, DWORD PTR fs:0
  00010	50		 push	 eax
  00011	b8 28 40 00 00	 mov	 eax, 16424		; 00004028H
  00016	e8 00 00 00 00	 call	 __chkstk
  0001b	a1 00 00 00 00	 mov	 eax, DWORD PTR ___security_cookie
  00020	33 c5		 xor	 eax, ebp
  00022	89 45 f0	 mov	 DWORD PTR __$ArrayPad$[ebp], eax
  00025	56		 push	 esi
  00026	50		 push	 eax
  00027	8d 45 f4	 lea	 eax, DWORD PTR __$EHRec$[ebp]
  0002a	64 a3 00 00 00
	00		 mov	 DWORD PTR fs:0, eax

; 526  : 	CHousing* pHousing = GetHousing( pUser->m_idPlayer );

  00030	8b 75 08	 mov	 esi, DWORD PTR _pUser$[ebp]
  00033	81 c6 34 02 00
	00		 add	 esi, 564		; 00000234H
  00039	ff 36		 push	 DWORD PTR [esi]
  0003b	e8 00 00 00 00	 call	 ?GetHousing@CHousingMng@@QAEPAVCHousing@@K@Z ; CHousingMng::GetHousing

; 527  : 	if( pHousing )

  00040	85 c0		 test	 eax, eax
  00042	0f 84 a3 00 00
	00		 je	 $LN2@ReqGMFunrn

; 528  : 	{
; 529  : 		BEFORESENDDUAL( ar, PACKETTYPE_HOUSING_GM_REMOVEALL, DPID_UNKNOWN, DPID_UNKNOWN );

  00048	6a 00		 push	 0
  0004a	6a 00		 push	 0
  0004c	8d 8d dc bf ff
	ff		 lea	 ecx, DWORD PTR _ar$6[ebp]
  00052	e8 00 00 00 00	 call	 ??0CAr@@QAE@PAXI@Z	; CAr::CAr
  00057	8d 85 d8 bf ff
	ff		 lea	 eax, DWORD PTR $T5[ebp]
  0005d	c7 45 fc 00 00
	00 00		 mov	 DWORD PTR __$EHRec$[ebp+8], 0
  00064	50		 push	 eax
  00065	8d 85 d4 bf ff
	ff		 lea	 eax, DWORD PTR $T4[ebp]
  0006b	c7 85 d8 bf ff
	ff 08 30 00 70	 mov	 DWORD PTR $T5[ebp], 1879060488 ; 70003008H
  00075	50		 push	 eax
  00076	8d 85 d0 bf ff
	ff		 lea	 eax, DWORD PTR $T3[ebp]
  0007c	c7 85 d4 bf ff
	ff ff ff ff ff	 mov	 DWORD PTR $T4[ebp], -1
  00086	50		 push	 eax
  00087	8d 8d dc bf ff
	ff		 lea	 ecx, DWORD PTR _ar$6[ebp]
  0008d	c7 85 d0 bf ff
	ff ff ff ff ff	 mov	 DWORD PTR $T3[ebp], -1
  00097	e8 00 00 00 00	 call	 ??$?6I@CAr@@QAEAAV0@ABI@Z ; CAr::operator<<<unsigned int>
  0009c	8b c8		 mov	 ecx, eax
  0009e	e8 00 00 00 00	 call	 ??$?6I@CAr@@QAEAAV0@ABI@Z ; CAr::operator<<<unsigned int>
  000a3	8b c8		 mov	 ecx, eax
  000a5	e8 00 00 00 00	 call	 ??$?6K@CAr@@QAEAAV0@ABK@Z ; CAr::operator<<<unsigned long>

; 530  : 		ar << pUser->m_idPlayer;

  000aa	56		 push	 esi
  000ab	8d 8d dc bf ff
	ff		 lea	 ecx, DWORD PTR _ar$6[ebp]
  000b1	e8 00 00 00 00	 call	 ??$?6K@CAr@@QAEAAV0@ABK@Z ; CAr::operator<<<unsigned long>

; 531  : 		SEND( ar, &g_dpDBClient, DPID_SERVERPLAYER );

  000b6	8d 85 cc bf ff
	ff		 lea	 eax, DWORD PTR _nBufSize$2[ebp]
  000bc	50		 push	 eax
  000bd	8d 8d dc bf ff
	ff		 lea	 ecx, DWORD PTR _ar$6[ebp]
  000c3	e8 00 00 00 00	 call	 ?GetBuffer@CAr@@QAEPAEPAH@Z ; CAr::GetBuffer
; File C:\IAGOS\server\v18\Source\Source\_Network\Net\Include\DPMng.h

; 171  : 	if( !m_pDPSock )

  000c8	8b 0d 04 00 00
	00		 mov	 ecx, DWORD PTR ?g_dpDBClient@@3VCDPDatabaseClient@@A+4
  000ce	85 c9		 test	 ecx, ecx
  000d0	74 0e		 je	 SHORT $LN5@ReqGMFunrn

; 172  : 		return FALSE;
; 173  : 	return m_pDPSock->Send( (char*)lpData, dwDataSize, dpidTo );

  000d2	6a 01		 push	 1
  000d4	ff b5 cc bf ff
	ff		 push	 DWORD PTR _nBufSize$2[ebp]
  000da	50		 push	 eax
  000db	e8 00 00 00 00	 call	 ?Send@CDPSock@@QAEHPADKK@Z ; CDPSock::Send
$LN5@ReqGMFunrn:
; File C:\IAGOS\server\v18\Source\Source\_Common\Housing.cpp

; 532  : 	}

  000e0	8d 8d dc bf ff
	ff		 lea	 ecx, DWORD PTR _ar$6[ebp]
  000e6	e8 00 00 00 00	 call	 ??1CAr@@QAE@XZ		; CAr::~CAr
$LN2@ReqGMFunrn:

; 533  : }

  000eb	8b 4d f4	 mov	 ecx, DWORD PTR __$EHRec$[ebp]
  000ee	64 89 0d 00 00
	00 00		 mov	 DWORD PTR fs:0, ecx
  000f5	59		 pop	 ecx
  000f6	5e		 pop	 esi
  000f7	8b 4d f0	 mov	 ecx, DWORD PTR __$ArrayPad$[ebp]
  000fa	33 cd		 xor	 ecx, ebp
  000fc	e8 00 00 00 00	 call	 @__security_check_cookie@4
  00101	8b e5		 mov	 esp, ebp
  00103	5d		 pop	 ebp
  00104	c2 04 00	 ret	 4
_TEXT	ENDS
;	COMDAT text$x
text$x	SEGMENT
__unwindfunclet$?ReqGMFunrnitureListAll@CHousingMng@@QAEXPAVCUser@@@Z$0:
  00000	8d 8d dc bf ff
	ff		 lea	 ecx, DWORD PTR _ar$6[ebp]
  00006	e9 00 00 00 00	 jmp	 ??1CAr@@QAE@XZ		; CAr::~CAr
  0000b	cc		 int	 3
  0000c	cc		 int	 3
  0000d	cc		 int	 3
  0000e	cc		 int	 3
  0000f	cc		 int	 3
__ehhandler$?ReqGMFunrnitureListAll@CHousingMng@@QAEXPAVCUser@@@Z:
  00010	90		 npad	 1
  00011	90		 npad	 1
  00012	8b 54 24 08	 mov	 edx, DWORD PTR [esp+8]
  00016	8d 42 0c	 lea	 eax, DWORD PTR [edx+12]
  00019	8b 8a d0 bf ff
	ff		 mov	 ecx, DWORD PTR [edx-16432]
  0001f	33 c8		 xor	 ecx, eax
  00021	e8 00 00 00 00	 call	 @__security_check_cookie@4
  00026	8b 4a fc	 mov	 ecx, DWORD PTR [edx-4]
  00029	33 c8		 xor	 ecx, eax
  0002b	e8 00 00 00 00	 call	 @__security_check_cookie@4
  00030	b8 00 00 00 00	 mov	 eax, OFFSET __ehfuncinfo$?ReqGMFunrnitureListAll@CHousingMng@@QAEXPAVCUser@@@Z
  00035	e9 00 00 00 00	 jmp	 ___CxxFrameHandler3
text$x	ENDS
?ReqGMFunrnitureListAll@CHousingMng@@QAEXPAVCUser@@@Z ENDP ; CHousingMng::ReqGMFunrnitureListAll
; Function compile flags: /Ogtp
; File C:\IAGOS\server\v18\Source\Source\_Common\Housing.cpp
; File C:\IAGOS\server\v18\Source\Source\_Network\Net\Include\DPMng.h
; File C:\IAGOS\server\v18\Source\Source\_Common\Housing.cpp
;	COMDAT ?ReqSetAllowVisit@CHousingMng@@QAEHPAVCUser@@KH@Z
_TEXT	SEGMENT
_nBufSize$2 = -16440					; size = 4
_dwPlayerId$GSCopy$ = -16436				; size = 4
$T3 = -16432						; size = 4
$T4 = -16428						; size = 4
$T5 = -16424						; size = 4
_ar$6 = -16420						; size = 16404
__$ArrayPad$ = -16					; size = 4
__$EHRec$ = -12						; size = 12
_pUser$ = 8						; size = 4
_dwPlayerId$ = 12					; size = 4
_bAllow$ = 16						; size = 4
?ReqSetAllowVisit@CHousingMng@@QAEHPAVCUser@@KH@Z PROC	; CHousingMng::ReqSetAllowVisit, COMDAT
; _this$ = ecx

; 508  : {

  00000	55		 push	 ebp
  00001	8b ec		 mov	 ebp, esp
  00003	6a ff		 push	 -1
  00005	68 00 00 00 00	 push	 __ehhandler$?ReqSetAllowVisit@CHousingMng@@QAEHPAVCUser@@KH@Z
  0000a	64 a1 00 00 00
	00		 mov	 eax, DWORD PTR fs:0
  00010	50		 push	 eax
  00011	b8 2c 40 00 00	 mov	 eax, 16428		; 0000402cH
  00016	e8 00 00 00 00	 call	 __chkstk
  0001b	a1 00 00 00 00	 mov	 eax, DWORD PTR ___security_cookie
  00020	33 c5		 xor	 eax, ebp
  00022	89 45 f0	 mov	 DWORD PTR __$ArrayPad$[ebp], eax
  00025	53		 push	 ebx
  00026	56		 push	 esi
  00027	57		 push	 edi
  00028	50		 push	 eax
  00029	8d 45 f4	 lea	 eax, DWORD PTR __$EHRec$[ebp]
  0002c	64 a3 00 00 00
	00		 mov	 DWORD PTR fs:0, eax
  00032	8b 75 08	 mov	 esi, DWORD PTR _pUser$[ebp]
  00035	8b 5d 0c	 mov	 ebx, DWORD PTR _dwPlayerId$[ebp]
  00038	89 9d cc bf ff
	ff		 mov	 DWORD PTR _dwPlayerId$GSCopy$[ebp], ebx

; 509  : 	ASSERT( pUser );
; 510  : 	CHousing* pHousing = GetHousing( pUser->m_idPlayer );

  0003e	ff b6 34 02 00
	00		 push	 DWORD PTR [esi+564]
  00044	e8 00 00 00 00	 call	 ?GetHousing@CHousingMng@@QAEPAVCHousing@@K@Z ; CHousingMng::GetHousing

; 511  : 	if( pUser->m_RTMessenger.GetFriend( dwPlayerId ) && pHousing && ( pHousing->IsAllowVisit( dwPlayerId ) != bAllow ) )

  00049	53		 push	 ebx
  0004a	8d 8e 44 8e 00
	00		 lea	 ecx, DWORD PTR [esi+36420]
  00050	8b f8		 mov	 edi, eax
  00052	e8 00 00 00 00	 call	 ?GetFriend@CRTMessenger@@QAEPAU_Friend@@K@Z ; CRTMessenger::GetFriend
  00057	85 c0		 test	 eax, eax
  00059	0f 84 e8 00 00
	00		 je	 $LN2@ReqSetAllo
  0005f	85 ff		 test	 edi, edi
  00061	0f 84 e0 00 00
	00		 je	 $LN2@ReqSetAllo
  00067	53		 push	 ebx
  00068	8b cf		 mov	 ecx, edi
  0006a	e8 00 00 00 00	 call	 ?IsAllowVisit@CHousing@@QAEHK@Z ; CHousing::IsAllowVisit
  0006f	3b 45 10	 cmp	 eax, DWORD PTR _bAllow$[ebp]
  00072	0f 84 cf 00 00
	00		 je	 $LN2@ReqSetAllo

; 512  : 	{
; 513  : 		pHousing->Setting( TRUE );
; 514  : 		BEFORESENDDUAL( ar, PACKETTYPE_HOUSING_SETVISITALLOW, DPID_UNKNOWN, DPID_UNKNOWN );

  00078	6a 00		 push	 0
  0007a	6a 00		 push	 0
  0007c	8d 8d dc bf ff
	ff		 lea	 ecx, DWORD PTR _ar$6[ebp]
  00082	c7 07 01 00 00
	00		 mov	 DWORD PTR [edi], 1
  00088	e8 00 00 00 00	 call	 ??0CAr@@QAE@PAXI@Z	; CAr::CAr
  0008d	8d 85 d8 bf ff
	ff		 lea	 eax, DWORD PTR $T5[ebp]
  00093	c7 45 fc 00 00
	00 00		 mov	 DWORD PTR __$EHRec$[ebp+8], 0
  0009a	50		 push	 eax
  0009b	8d 85 d4 bf ff
	ff		 lea	 eax, DWORD PTR $T4[ebp]
  000a1	c7 85 d8 bf ff
	ff 05 30 00 70	 mov	 DWORD PTR $T5[ebp], 1879060485 ; 70003005H
  000ab	50		 push	 eax
  000ac	8d 85 d0 bf ff
	ff		 lea	 eax, DWORD PTR $T3[ebp]
  000b2	c7 85 d4 bf ff
	ff ff ff ff ff	 mov	 DWORD PTR $T4[ebp], -1
  000bc	50		 push	 eax
  000bd	8d 8d dc bf ff
	ff		 lea	 ecx, DWORD PTR _ar$6[ebp]
  000c3	c7 85 d0 bf ff
	ff ff ff ff ff	 mov	 DWORD PTR $T3[ebp], -1
  000cd	e8 00 00 00 00	 call	 ??$?6I@CAr@@QAEAAV0@ABI@Z ; CAr::operator<<<unsigned int>
  000d2	8b c8		 mov	 ecx, eax
  000d4	e8 00 00 00 00	 call	 ??$?6I@CAr@@QAEAAV0@ABI@Z ; CAr::operator<<<unsigned int>
  000d9	8b c8		 mov	 ecx, eax
  000db	e8 00 00 00 00	 call	 ??$?6K@CAr@@QAEAAV0@ABK@Z ; CAr::operator<<<unsigned long>

; 515  : 		ar << pUser->m_idPlayer << dwPlayerId << bAllow;

  000e0	8d 45 10	 lea	 eax, DWORD PTR _bAllow$[ebp]
  000e3	50		 push	 eax
  000e4	8d 85 cc bf ff
	ff		 lea	 eax, DWORD PTR _dwPlayerId$GSCopy$[ebp]
  000ea	50		 push	 eax
  000eb	8d 86 34 02 00
	00		 lea	 eax, DWORD PTR [esi+564]
  000f1	50		 push	 eax
  000f2	8d 8d dc bf ff
	ff		 lea	 ecx, DWORD PTR _ar$6[ebp]
  000f8	e8 00 00 00 00	 call	 ??$?6K@CAr@@QAEAAV0@ABK@Z ; CAr::operator<<<unsigned long>
  000fd	8b c8		 mov	 ecx, eax
  000ff	e8 00 00 00 00	 call	 ??$?6K@CAr@@QAEAAV0@ABK@Z ; CAr::operator<<<unsigned long>
  00104	8b c8		 mov	 ecx, eax
  00106	e8 00 00 00 00	 call	 ??$?6H@CAr@@QAEAAV0@ABH@Z ; CAr::operator<<<int>

; 516  : 		SEND( ar, &g_dpDBClient, DPID_SERVERPLAYER );

  0010b	8d 85 c8 bf ff
	ff		 lea	 eax, DWORD PTR _nBufSize$2[ebp]
  00111	50		 push	 eax
  00112	8d 8d dc bf ff
	ff		 lea	 ecx, DWORD PTR _ar$6[ebp]
  00118	e8 00 00 00 00	 call	 ?GetBuffer@CAr@@QAEPAEPAH@Z ; CAr::GetBuffer
; File C:\IAGOS\server\v18\Source\Source\_Network\Net\Include\DPMng.h

; 171  : 	if( !m_pDPSock )

  0011d	8b 0d 04 00 00
	00		 mov	 ecx, DWORD PTR ?g_dpDBClient@@3VCDPDatabaseClient@@A+4
  00123	85 c9		 test	 ecx, ecx
  00125	74 0e		 je	 SHORT $LN6@ReqSetAllo

; 172  : 		return FALSE;
; 173  : 	return m_pDPSock->Send( (char*)lpData, dwDataSize, dpidTo );

  00127	6a 01		 push	 1
  00129	ff b5 c8 bf ff
	ff		 push	 DWORD PTR _nBufSize$2[ebp]
  0012f	50		 push	 eax
  00130	e8 00 00 00 00	 call	 ?Send@CDPSock@@QAEHPADKK@Z ; CDPSock::Send
$LN6@ReqSetAllo:
; File C:\IAGOS\server\v18\Source\Source\_Common\Housing.cpp

; 517  : 	}

  00135	8d 8d dc bf ff
	ff		 lea	 ecx, DWORD PTR _ar$6[ebp]
  0013b	e8 00 00 00 00	 call	 ??1CAr@@QAE@XZ		; CAr::~CAr

; 520  : 
; 521  : 	return TRUE;

  00140	b8 01 00 00 00	 mov	 eax, 1
  00145	eb 02		 jmp	 SHORT $LN1@ReqSetAllo
$LN2@ReqSetAllo:

; 518  : 	else
; 519  : 		return FALSE;

  00147	33 c0		 xor	 eax, eax
$LN1@ReqSetAllo:

; 522  : }

  00149	8b 4d f4	 mov	 ecx, DWORD PTR __$EHRec$[ebp]
  0014c	64 89 0d 00 00
	00 00		 mov	 DWORD PTR fs:0, ecx
  00153	59		 pop	 ecx
  00154	5f		 pop	 edi
  00155	5e		 pop	 esi
  00156	5b		 pop	 ebx
  00157	8b 4d f0	 mov	 ecx, DWORD PTR __$ArrayPad$[ebp]
  0015a	33 cd		 xor	 ecx, ebp
  0015c	e8 00 00 00 00	 call	 @__security_check_cookie@4
  00161	8b e5		 mov	 esp, ebp
  00163	5d		 pop	 ebp
  00164	c2 0c 00	 ret	 12			; 0000000cH
_TEXT	ENDS
;	COMDAT text$x
text$x	SEGMENT
__unwindfunclet$?ReqSetAllowVisit@CHousingMng@@QAEHPAVCUser@@KH@Z$0:
  00000	8d 8d dc bf ff
	ff		 lea	 ecx, DWORD PTR _ar$6[ebp]
  00006	e9 00 00 00 00	 jmp	 ??1CAr@@QAE@XZ		; CAr::~CAr
  0000b	cc		 int	 3
  0000c	cc		 int	 3
  0000d	cc		 int	 3
  0000e	cc		 int	 3
  0000f	cc		 int	 3
__ehhandler$?ReqSetAllowVisit@CHousingMng@@QAEHPAVCUser@@KH@Z:
  00010	90		 npad	 1
  00011	90		 npad	 1
  00012	8b 54 24 08	 mov	 edx, DWORD PTR [esp+8]
  00016	8d 42 0c	 lea	 eax, DWORD PTR [edx+12]
  00019	8b 8a c4 bf ff
	ff		 mov	 ecx, DWORD PTR [edx-16444]
  0001f	33 c8		 xor	 ecx, eax
  00021	e8 00 00 00 00	 call	 @__security_check_cookie@4
  00026	8b 4a fc	 mov	 ecx, DWORD PTR [edx-4]
  00029	33 c8		 xor	 ecx, eax
  0002b	e8 00 00 00 00	 call	 @__security_check_cookie@4
  00030	b8 00 00 00 00	 mov	 eax, OFFSET __ehfuncinfo$?ReqSetAllowVisit@CHousingMng@@QAEHPAVCUser@@KH@Z
  00035	e9 00 00 00 00	 jmp	 ___CxxFrameHandler3
text$x	ENDS
?ReqSetAllowVisit@CHousingMng@@QAEHPAVCUser@@KH@Z ENDP	; CHousingMng::ReqSetAllowVisit
; Function compile flags: /Ogtp
; File C:\IAGOS\server\v18\Source\Source\_Common\Housing.cpp
; File C:\IAGOS\server\v18\Source\Source\_Network\Net\Include\DPMng.h
; File C:\IAGOS\server\v18\Source\Source\_Common\Housing.cpp
;	COMDAT ?ReqSetupFurniture@CHousingMng@@QAEHPAVCUser@@UHOUSINGINFO@@@Z
_TEXT	SEGMENT
_nBufSize$2 = -16436					; size = 4
$T3 = -16432						; size = 4
$T4 = -16428						; size = 4
$T5 = -16424						; size = 4
_ar$6 = -16420						; size = 16404
__$ArrayPad$ = -16					; size = 4
__$EHRec$ = -12						; size = 12
_pUser$ = 8						; size = 4
_housingInfo$ = 12					; size = 32
?ReqSetupFurniture@CHousingMng@@QAEHPAVCUser@@UHOUSINGINFO@@@Z PROC ; CHousingMng::ReqSetupFurniture, COMDAT
; _this$ = ecx

; 491  : {

  00000	55		 push	 ebp
  00001	8b ec		 mov	 ebp, esp
  00003	6a ff		 push	 -1
  00005	68 00 00 00 00	 push	 __ehhandler$?ReqSetupFurniture@CHousingMng@@QAEHPAVCUser@@UHOUSINGINFO@@@Z
  0000a	64 a1 00 00 00
	00		 mov	 eax, DWORD PTR fs:0
  00010	50		 push	 eax
  00011	b8 28 40 00 00	 mov	 eax, 16424		; 00004028H
  00016	e8 00 00 00 00	 call	 __chkstk
  0001b	a1 00 00 00 00	 mov	 eax, DWORD PTR ___security_cookie
  00020	33 c5		 xor	 eax, ebp
  00022	89 45 f0	 mov	 DWORD PTR __$ArrayPad$[ebp], eax
  00025	56		 push	 esi
  00026	57		 push	 edi
  00027	50		 push	 eax
  00028	8d 45 f4	 lea	 eax, DWORD PTR __$EHRec$[ebp]
  0002b	64 a3 00 00 00
	00		 mov	 DWORD PTR fs:0, eax
  00031	8b 7d 08	 mov	 edi, DWORD PTR _pUser$[ebp]

; 492  : 	CHousing* pHousing = GetHousing( pUser->m_idPlayer );

  00034	ff b7 34 02 00
	00		 push	 DWORD PTR [edi+564]
  0003a	e8 00 00 00 00	 call	 ?GetHousing@CHousingMng@@QAEPAVCHousing@@K@Z ; CHousingMng::GetHousing
  0003f	8b f0		 mov	 esi, eax

; 493  : 	if( pHousing && pHousing->IsSetupAble( pUser, housingInfo ) )

  00041	85 f6		 test	 esi, esi
  00043	0f 84 e9 00 00
	00		 je	 $LN2@ReqSetupFu
  00049	0f 10 45 0c	 movups	 xmm0, XMMWORD PTR _housingInfo$[ebp]
  0004d	83 ec 20	 sub	 esp, 32			; 00000020H
  00050	8b cc		 mov	 ecx, esp
  00052	57		 push	 edi
  00053	0f 11 01	 movups	 XMMWORD PTR [ecx], xmm0
  00056	0f 10 45 1c	 movups	 xmm0, XMMWORD PTR _housingInfo$[ebp+16]
  0005a	0f 11 41 10	 movups	 XMMWORD PTR [ecx+16], xmm0
  0005e	8b ce		 mov	 ecx, esi
  00060	e8 00 00 00 00	 call	 ?IsSetupAble@CHousing@@QAEHPAVCUser@@UHOUSINGINFO@@@Z ; CHousing::IsSetupAble
  00065	85 c0		 test	 eax, eax
  00067	0f 84 c5 00 00
	00		 je	 $LN2@ReqSetupFu

; 494  : 	{
; 495  : 		pHousing->Setting( TRUE );
; 496  : 		BEFORESENDDUAL( ar, PACKETTYPE_HOUSING_SETUPFURNITURE, DPID_UNKNOWN, DPID_UNKNOWN );

  0006d	6a 00		 push	 0
  0006f	6a 00		 push	 0
  00071	8d 8d dc bf ff
	ff		 lea	 ecx, DWORD PTR _ar$6[ebp]
  00077	c7 06 01 00 00
	00		 mov	 DWORD PTR [esi], 1
  0007d	e8 00 00 00 00	 call	 ??0CAr@@QAE@PAXI@Z	; CAr::CAr
  00082	8d 85 d8 bf ff
	ff		 lea	 eax, DWORD PTR $T5[ebp]
  00088	c7 45 fc 00 00
	00 00		 mov	 DWORD PTR __$EHRec$[ebp+8], 0
  0008f	50		 push	 eax
  00090	8d 85 d4 bf ff
	ff		 lea	 eax, DWORD PTR $T4[ebp]
  00096	c7 85 d8 bf ff
	ff 02 30 00 70	 mov	 DWORD PTR $T5[ebp], 1879060482 ; 70003002H
  000a0	50		 push	 eax
  000a1	8d 85 d0 bf ff
	ff		 lea	 eax, DWORD PTR $T3[ebp]
  000a7	c7 85 d4 bf ff
	ff ff ff ff ff	 mov	 DWORD PTR $T4[ebp], -1
  000b1	50		 push	 eax
  000b2	8d 8d dc bf ff
	ff		 lea	 ecx, DWORD PTR _ar$6[ebp]
  000b8	c7 85 d0 bf ff
	ff ff ff ff ff	 mov	 DWORD PTR $T3[ebp], -1
  000c2	e8 00 00 00 00	 call	 ??$?6I@CAr@@QAEAAV0@ABI@Z ; CAr::operator<<<unsigned int>
  000c7	8b c8		 mov	 ecx, eax
  000c9	e8 00 00 00 00	 call	 ??$?6I@CAr@@QAEAAV0@ABI@Z ; CAr::operator<<<unsigned int>
  000ce	8b c8		 mov	 ecx, eax
  000d0	e8 00 00 00 00	 call	 ??$?6K@CAr@@QAEAAV0@ABK@Z ; CAr::operator<<<unsigned long>

; 497  : 		ar << pUser->m_idPlayer;

  000d5	8d 87 34 02 00
	00		 lea	 eax, DWORD PTR [edi+564]
  000db	50		 push	 eax
  000dc	8d 8d dc bf ff
	ff		 lea	 ecx, DWORD PTR _ar$6[ebp]
  000e2	e8 00 00 00 00	 call	 ??$?6K@CAr@@QAEAAV0@ABK@Z ; CAr::operator<<<unsigned long>

; 498  : 		housingInfo.Serialize( ar );

  000e7	8d 85 dc bf ff
	ff		 lea	 eax, DWORD PTR _ar$6[ebp]
  000ed	50		 push	 eax
  000ee	8d 4d 0c	 lea	 ecx, DWORD PTR _housingInfo$[ebp]
  000f1	e8 00 00 00 00	 call	 ?Serialize@HOUSINGINFO@@QAEXAAVCAr@@@Z ; HOUSINGINFO::Serialize

; 499  : 		SEND( ar, &g_dpDBClient, DPID_SERVERPLAYER );

  000f6	8d 85 cc bf ff
	ff		 lea	 eax, DWORD PTR _nBufSize$2[ebp]
  000fc	50		 push	 eax
  000fd	8d 8d dc bf ff
	ff		 lea	 ecx, DWORD PTR _ar$6[ebp]
  00103	e8 00 00 00 00	 call	 ?GetBuffer@CAr@@QAEPAEPAH@Z ; CAr::GetBuffer
; File C:\IAGOS\server\v18\Source\Source\_Network\Net\Include\DPMng.h

; 171  : 	if( !m_pDPSock )

  00108	8b 0d 04 00 00
	00		 mov	 ecx, DWORD PTR ?g_dpDBClient@@3VCDPDatabaseClient@@A+4
  0010e	85 c9		 test	 ecx, ecx
  00110	74 0e		 je	 SHORT $LN6@ReqSetupFu

; 172  : 		return FALSE;
; 173  : 	return m_pDPSock->Send( (char*)lpData, dwDataSize, dpidTo );

  00112	6a 01		 push	 1
  00114	ff b5 cc bf ff
	ff		 push	 DWORD PTR _nBufSize$2[ebp]
  0011a	50		 push	 eax
  0011b	e8 00 00 00 00	 call	 ?Send@CDPSock@@QAEHPADKK@Z ; CDPSock::Send
$LN6@ReqSetupFu:
; File C:\IAGOS\server\v18\Source\Source\_Common\Housing.cpp

; 500  : 	}

  00120	8d 8d dc bf ff
	ff		 lea	 ecx, DWORD PTR _ar$6[ebp]
  00126	e8 00 00 00 00	 call	 ??1CAr@@QAE@XZ		; CAr::~CAr

; 503  : 
; 504  : 	return TRUE;

  0012b	b8 01 00 00 00	 mov	 eax, 1
  00130	eb 02		 jmp	 SHORT $LN1@ReqSetupFu
$LN2@ReqSetupFu:

; 501  : 	else
; 502  : 		return FALSE;

  00132	33 c0		 xor	 eax, eax
$LN1@ReqSetupFu:

; 505  : }

  00134	8b 4d f4	 mov	 ecx, DWORD PTR __$EHRec$[ebp]
  00137	64 89 0d 00 00
	00 00		 mov	 DWORD PTR fs:0, ecx
  0013e	59		 pop	 ecx
  0013f	5f		 pop	 edi
  00140	5e		 pop	 esi
  00141	8b 4d f0	 mov	 ecx, DWORD PTR __$ArrayPad$[ebp]
  00144	33 cd		 xor	 ecx, ebp
  00146	e8 00 00 00 00	 call	 @__security_check_cookie@4
  0014b	8b e5		 mov	 esp, ebp
  0014d	5d		 pop	 ebp
  0014e	c2 24 00	 ret	 36			; 00000024H
_TEXT	ENDS
;	COMDAT text$x
text$x	SEGMENT
__unwindfunclet$?ReqSetupFurniture@CHousingMng@@QAEHPAVCUser@@UHOUSINGINFO@@@Z$0:
  00000	8d 8d dc bf ff
	ff		 lea	 ecx, DWORD PTR _ar$6[ebp]
  00006	e9 00 00 00 00	 jmp	 ??1CAr@@QAE@XZ		; CAr::~CAr
  0000b	cc		 int	 3
  0000c	cc		 int	 3
  0000d	cc		 int	 3
  0000e	cc		 int	 3
  0000f	cc		 int	 3
__ehhandler$?ReqSetupFurniture@CHousingMng@@QAEHPAVCUser@@UHOUSINGINFO@@@Z:
  00010	90		 npad	 1
  00011	90		 npad	 1
  00012	8b 54 24 08	 mov	 edx, DWORD PTR [esp+8]
  00016	8d 42 0c	 lea	 eax, DWORD PTR [edx+12]
  00019	8b 8a cc bf ff
	ff		 mov	 ecx, DWORD PTR [edx-16436]
  0001f	33 c8		 xor	 ecx, eax
  00021	e8 00 00 00 00	 call	 @__security_check_cookie@4
  00026	8b 4a fc	 mov	 ecx, DWORD PTR [edx-4]
  00029	33 c8		 xor	 ecx, eax
  0002b	e8 00 00 00 00	 call	 @__security_check_cookie@4
  00030	b8 00 00 00 00	 mov	 eax, OFFSET __ehfuncinfo$?ReqSetupFurniture@CHousingMng@@QAEHPAVCUser@@UHOUSINGINFO@@@Z
  00035	e9 00 00 00 00	 jmp	 ___CxxFrameHandler3
text$x	ENDS
?ReqSetupFurniture@CHousingMng@@QAEHPAVCUser@@UHOUSINGINFO@@@Z ENDP ; CHousingMng::ReqSetupFurniture
; Function compile flags: /Ogtp
; File C:\IAGOS\server\v18\Source\Source\_Common\Housing.cpp
; File C:\IAGOS\server\v18\Source\Source\_Network\Net\Include\DPMng.h
; File C:\IAGOS\server\v18\Source\Source\_Common\Housing.cpp
;	COMDAT ?ReqSetFurnitureList@CHousingMng@@QAEHPAVCUser@@K@Z
_TEXT	SEGMENT
_nBufSize$2 = -16436					; size = 4
$T3 = -16432						; size = 4
$T4 = -16428						; size = 4
$T5 = -16424						; size = 4
_ar$6 = -16420						; size = 16404
__$ArrayPad$ = -16					; size = 4
__$EHRec$ = -12						; size = 12
_pUser$ = 8						; size = 4
_dwItemId$ = 12						; size = 4
?ReqSetFurnitureList@CHousingMng@@QAEHPAVCUser@@K@Z PROC ; CHousingMng::ReqSetFurnitureList, COMDAT
; _this$ = ecx

; 475  : {

  00000	55		 push	 ebp
  00001	8b ec		 mov	 ebp, esp
  00003	6a ff		 push	 -1
  00005	68 00 00 00 00	 push	 __ehhandler$?ReqSetFurnitureList@CHousingMng@@QAEHPAVCUser@@K@Z
  0000a	64 a1 00 00 00
	00		 mov	 eax, DWORD PTR fs:0
  00010	50		 push	 eax
  00011	b8 28 40 00 00	 mov	 eax, 16424		; 00004028H
  00016	e8 00 00 00 00	 call	 __chkstk
  0001b	a1 00 00 00 00	 mov	 eax, DWORD PTR ___security_cookie
  00020	33 c5		 xor	 eax, ebp
  00022	89 45 f0	 mov	 DWORD PTR __$ArrayPad$[ebp], eax
  00025	53		 push	 ebx
  00026	56		 push	 esi
  00027	57		 push	 edi
  00028	50		 push	 eax
  00029	8d 45 f4	 lea	 eax, DWORD PTR __$EHRec$[ebp]
  0002c	64 a3 00 00 00
	00		 mov	 DWORD PTR fs:0, eax
  00032	8b 7d 08	 mov	 edi, DWORD PTR _pUser$[ebp]

; 476  : 	CHousing* pHousing = GetHousing( pUser->m_idPlayer );

  00035	ff b7 34 02 00
	00		 push	 DWORD PTR [edi+564]
  0003b	8d 9f 34 02 00
	00		 lea	 ebx, DWORD PTR [edi+564]
  00041	e8 00 00 00 00	 call	 ?GetHousing@CHousingMng@@QAEPAVCHousing@@K@Z ; CHousingMng::GetHousing
  00046	8b f0		 mov	 esi, eax

; 477  : 	if( pHousing && pHousing->IsListUpAble( pUser, dwItemId ) )

  00048	85 f6		 test	 esi, esi
  0004a	0f 84 ce 00 00
	00		 je	 $LN2@ReqSetFurn
  00050	ff 75 0c	 push	 DWORD PTR _dwItemId$[ebp]
  00053	8b ce		 mov	 ecx, esi
  00055	57		 push	 edi
  00056	e8 00 00 00 00	 call	 ?IsListUpAble@CHousing@@QAEHPAVCUser@@K@Z ; CHousing::IsListUpAble
  0005b	85 c0		 test	 eax, eax
  0005d	0f 84 bb 00 00
	00		 je	 $LN2@ReqSetFurn

; 478  : 	{
; 479  : 		pHousing->Setting( TRUE );
; 480  : 		BEFORESENDDUAL( ar, PACKETTYPE_HOUSING_FURNITURELIST, DPID_UNKNOWN, DPID_UNKNOWN );

  00063	6a 00		 push	 0
  00065	6a 00		 push	 0
  00067	8d 8d dc bf ff
	ff		 lea	 ecx, DWORD PTR _ar$6[ebp]
  0006d	c7 06 01 00 00
	00		 mov	 DWORD PTR [esi], 1
  00073	e8 00 00 00 00	 call	 ??0CAr@@QAE@PAXI@Z	; CAr::CAr
  00078	8d 85 d8 bf ff
	ff		 lea	 eax, DWORD PTR $T5[ebp]
  0007e	c7 45 fc 00 00
	00 00		 mov	 DWORD PTR __$EHRec$[ebp+8], 0
  00085	50		 push	 eax
  00086	8d 85 d4 bf ff
	ff		 lea	 eax, DWORD PTR $T4[ebp]
  0008c	c7 85 d8 bf ff
	ff 01 30 00 70	 mov	 DWORD PTR $T5[ebp], 1879060481 ; 70003001H
  00096	50		 push	 eax
  00097	8d 85 d0 bf ff
	ff		 lea	 eax, DWORD PTR $T3[ebp]
  0009d	c7 85 d4 bf ff
	ff ff ff ff ff	 mov	 DWORD PTR $T4[ebp], -1
  000a7	50		 push	 eax
  000a8	8d 8d dc bf ff
	ff		 lea	 ecx, DWORD PTR _ar$6[ebp]
  000ae	c7 85 d0 bf ff
	ff ff ff ff ff	 mov	 DWORD PTR $T3[ebp], -1
  000b8	e8 00 00 00 00	 call	 ??$?6I@CAr@@QAEAAV0@ABI@Z ; CAr::operator<<<unsigned int>
  000bd	8b c8		 mov	 ecx, eax
  000bf	e8 00 00 00 00	 call	 ??$?6I@CAr@@QAEAAV0@ABI@Z ; CAr::operator<<<unsigned int>
  000c4	8b c8		 mov	 ecx, eax
  000c6	e8 00 00 00 00	 call	 ??$?6K@CAr@@QAEAAV0@ABK@Z ; CAr::operator<<<unsigned long>

; 481  : 		ar << pUser->m_idPlayer << dwItemId;

  000cb	8d 45 0c	 lea	 eax, DWORD PTR _dwItemId$[ebp]
  000ce	50		 push	 eax
  000cf	53		 push	 ebx
  000d0	8d 8d dc bf ff
	ff		 lea	 ecx, DWORD PTR _ar$6[ebp]
  000d6	e8 00 00 00 00	 call	 ??$?6K@CAr@@QAEAAV0@ABK@Z ; CAr::operator<<<unsigned long>
  000db	8b c8		 mov	 ecx, eax
  000dd	e8 00 00 00 00	 call	 ??$?6K@CAr@@QAEAAV0@ABK@Z ; CAr::operator<<<unsigned long>

; 482  : 		SEND( ar, &g_dpDBClient, DPID_SERVERPLAYER );

  000e2	8d 85 cc bf ff
	ff		 lea	 eax, DWORD PTR _nBufSize$2[ebp]
  000e8	50		 push	 eax
  000e9	8d 8d dc bf ff
	ff		 lea	 ecx, DWORD PTR _ar$6[ebp]
  000ef	e8 00 00 00 00	 call	 ?GetBuffer@CAr@@QAEPAEPAH@Z ; CAr::GetBuffer
; File C:\IAGOS\server\v18\Source\Source\_Network\Net\Include\DPMng.h

; 171  : 	if( !m_pDPSock )

  000f4	8b 0d 04 00 00
	00		 mov	 ecx, DWORD PTR ?g_dpDBClient@@3VCDPDatabaseClient@@A+4
  000fa	85 c9		 test	 ecx, ecx
  000fc	74 0e		 je	 SHORT $LN6@ReqSetFurn

; 172  : 		return FALSE;
; 173  : 	return m_pDPSock->Send( (char*)lpData, dwDataSize, dpidTo );

  000fe	6a 01		 push	 1
  00100	ff b5 cc bf ff
	ff		 push	 DWORD PTR _nBufSize$2[ebp]
  00106	50		 push	 eax
  00107	e8 00 00 00 00	 call	 ?Send@CDPSock@@QAEHPADKK@Z ; CDPSock::Send
$LN6@ReqSetFurn:
; File C:\IAGOS\server\v18\Source\Source\_Common\Housing.cpp

; 483  : 	}

  0010c	8d 8d dc bf ff
	ff		 lea	 ecx, DWORD PTR _ar$6[ebp]
  00112	e8 00 00 00 00	 call	 ??1CAr@@QAE@XZ		; CAr::~CAr

; 486  : 
; 487  : 	return TRUE;

  00117	b8 01 00 00 00	 mov	 eax, 1
  0011c	eb 02		 jmp	 SHORT $LN1@ReqSetFurn
$LN2@ReqSetFurn:

; 484  : 	else
; 485  : 		return FALSE;

  0011e	33 c0		 xor	 eax, eax
$LN1@ReqSetFurn:

; 488  : }

  00120	8b 4d f4	 mov	 ecx, DWORD PTR __$EHRec$[ebp]
  00123	64 89 0d 00 00
	00 00		 mov	 DWORD PTR fs:0, ecx
  0012a	59		 pop	 ecx
  0012b	5f		 pop	 edi
  0012c	5e		 pop	 esi
  0012d	5b		 pop	 ebx
  0012e	8b 4d f0	 mov	 ecx, DWORD PTR __$ArrayPad$[ebp]
  00131	33 cd		 xor	 ecx, ebp
  00133	e8 00 00 00 00	 call	 @__security_check_cookie@4
  00138	8b e5		 mov	 esp, ebp
  0013a	5d		 pop	 ebp
  0013b	c2 08 00	 ret	 8
_TEXT	ENDS
;	COMDAT text$x
text$x	SEGMENT
__unwindfunclet$?ReqSetFurnitureList@CHousingMng@@QAEHPAVCUser@@K@Z$0:
  00000	8d 8d dc bf ff
	ff		 lea	 ecx, DWORD PTR _ar$6[ebp]
  00006	e9 00 00 00 00	 jmp	 ??1CAr@@QAE@XZ		; CAr::~CAr
  0000b	cc		 int	 3
  0000c	cc		 int	 3
  0000d	cc		 int	 3
  0000e	cc		 int	 3
  0000f	cc		 int	 3
__ehhandler$?ReqSetFurnitureList@CHousingMng@@QAEHPAVCUser@@K@Z:
  00010	90		 npad	 1
  00011	90		 npad	 1
  00012	8b 54 24 08	 mov	 edx, DWORD PTR [esp+8]
  00016	8d 42 0c	 lea	 eax, DWORD PTR [edx+12]
  00019	8b 8a c8 bf ff
	ff		 mov	 ecx, DWORD PTR [edx-16440]
  0001f	33 c8		 xor	 ecx, eax
  00021	e8 00 00 00 00	 call	 @__security_check_cookie@4
  00026	8b 4a fc	 mov	 ecx, DWORD PTR [edx-4]
  00029	33 c8		 xor	 ecx, eax
  0002b	e8 00 00 00 00	 call	 @__security_check_cookie@4
  00030	b8 00 00 00 00	 mov	 eax, OFFSET __ehfuncinfo$?ReqSetFurnitureList@CHousingMng@@QAEHPAVCUser@@K@Z
  00035	e9 00 00 00 00	 jmp	 ___CxxFrameHandler3
text$x	ENDS
?ReqSetFurnitureList@CHousingMng@@QAEHPAVCUser@@K@Z ENDP ; CHousingMng::ReqSetFurnitureList
; Function compile flags: /Ogtp
; File C:\IAGOS\server\v18\Source\Source\_Common\Housing.cpp
; File C:\IAGOS\server\v18\Source\Source\_Network\Net\Include\DPMng.h
; File C:\IAGOS\server\v18\Source\Source\_Common\Housing.cpp
;	COMDAT ?ReqLoadHousingInfo@CHousingMng@@QAEXK@Z
_TEXT	SEGMENT
_nBufSize$ = -16436					; size = 4
$T2 = -16432						; size = 4
$T3 = -16428						; size = 4
$T4 = -16424						; size = 4
_ar$ = -16420						; size = 16404
__$ArrayPad$ = -16					; size = 4
__$EHRec$ = -12						; size = 12
_dwPlayerId$ = 8					; size = 4
?ReqLoadHousingInfo@CHousingMng@@QAEXK@Z PROC		; CHousingMng::ReqLoadHousingInfo, COMDAT
; _this$ = ecx

; 468  : {

  00000	55		 push	 ebp
  00001	8b ec		 mov	 ebp, esp
  00003	6a ff		 push	 -1
  00005	68 00 00 00 00	 push	 __ehhandler$?ReqLoadHousingInfo@CHousingMng@@QAEXK@Z
  0000a	64 a1 00 00 00
	00		 mov	 eax, DWORD PTR fs:0
  00010	50		 push	 eax
  00011	b8 28 40 00 00	 mov	 eax, 16424		; 00004028H
  00016	e8 00 00 00 00	 call	 __chkstk
  0001b	a1 00 00 00 00	 mov	 eax, DWORD PTR ___security_cookie
  00020	33 c5		 xor	 eax, ebp
  00022	89 45 f0	 mov	 DWORD PTR __$ArrayPad$[ebp], eax
  00025	50		 push	 eax
  00026	8d 45 f4	 lea	 eax, DWORD PTR __$EHRec$[ebp]
  00029	64 a3 00 00 00
	00		 mov	 DWORD PTR fs:0, eax

; 469  : 	BEFORESENDDUAL( ar, PACKETTYPE_HOUSING_LOADINFO, DPID_UNKNOWN, DPID_UNKNOWN );

  0002f	6a 00		 push	 0
  00031	6a 00		 push	 0
  00033	8d 8d dc bf ff
	ff		 lea	 ecx, DWORD PTR _ar$[ebp]
  00039	e8 00 00 00 00	 call	 ??0CAr@@QAE@PAXI@Z	; CAr::CAr
  0003e	8d 85 d8 bf ff
	ff		 lea	 eax, DWORD PTR $T4[ebp]
  00044	c7 45 fc 00 00
	00 00		 mov	 DWORD PTR __$EHRec$[ebp+8], 0
  0004b	50		 push	 eax
  0004c	8d 85 d4 bf ff
	ff		 lea	 eax, DWORD PTR $T3[ebp]
  00052	c7 85 d8 bf ff
	ff 00 30 00 70	 mov	 DWORD PTR $T4[ebp], 1879060480 ; 70003000H
  0005c	50		 push	 eax
  0005d	8d 85 d0 bf ff
	ff		 lea	 eax, DWORD PTR $T2[ebp]
  00063	c7 85 d4 bf ff
	ff ff ff ff ff	 mov	 DWORD PTR $T3[ebp], -1
  0006d	50		 push	 eax
  0006e	8d 8d dc bf ff
	ff		 lea	 ecx, DWORD PTR _ar$[ebp]
  00074	c7 85 d0 bf ff
	ff ff ff ff ff	 mov	 DWORD PTR $T2[ebp], -1
  0007e	e8 00 00 00 00	 call	 ??$?6I@CAr@@QAEAAV0@ABI@Z ; CAr::operator<<<unsigned int>
  00083	8b c8		 mov	 ecx, eax
  00085	e8 00 00 00 00	 call	 ??$?6I@CAr@@QAEAAV0@ABI@Z ; CAr::operator<<<unsigned int>
  0008a	8b c8		 mov	 ecx, eax
  0008c	e8 00 00 00 00	 call	 ??$?6K@CAr@@QAEAAV0@ABK@Z ; CAr::operator<<<unsigned long>

; 470  : 	ar << dwPlayerId;

  00091	8d 45 08	 lea	 eax, DWORD PTR _dwPlayerId$[ebp]
  00094	50		 push	 eax
  00095	8d 8d dc bf ff
	ff		 lea	 ecx, DWORD PTR _ar$[ebp]
  0009b	e8 00 00 00 00	 call	 ??$?6K@CAr@@QAEAAV0@ABK@Z ; CAr::operator<<<unsigned long>

; 471  : 	SEND( ar, &g_dpDBClient, DPID_SERVERPLAYER );

  000a0	8d 85 cc bf ff
	ff		 lea	 eax, DWORD PTR _nBufSize$[ebp]
  000a6	50		 push	 eax
  000a7	8d 8d dc bf ff
	ff		 lea	 ecx, DWORD PTR _ar$[ebp]
  000ad	e8 00 00 00 00	 call	 ?GetBuffer@CAr@@QAEPAEPAH@Z ; CAr::GetBuffer
; File C:\IAGOS\server\v18\Source\Source\_Network\Net\Include\DPMng.h

; 171  : 	if( !m_pDPSock )

  000b2	8b 0d 04 00 00
	00		 mov	 ecx, DWORD PTR ?g_dpDBClient@@3VCDPDatabaseClient@@A+4
  000b8	85 c9		 test	 ecx, ecx
  000ba	74 0e		 je	 SHORT $LN4@ReqLoadHou

; 172  : 		return FALSE;
; 173  : 	return m_pDPSock->Send( (char*)lpData, dwDataSize, dpidTo );

  000bc	6a 01		 push	 1
  000be	ff b5 cc bf ff
	ff		 push	 DWORD PTR _nBufSize$[ebp]
  000c4	50		 push	 eax
  000c5	e8 00 00 00 00	 call	 ?Send@CDPSock@@QAEHPADKK@Z ; CDPSock::Send
$LN4@ReqLoadHou:
; File C:\IAGOS\server\v18\Source\Source\_Common\Housing.cpp

; 472  : }

  000ca	8d 8d dc bf ff
	ff		 lea	 ecx, DWORD PTR _ar$[ebp]
  000d0	e8 00 00 00 00	 call	 ??1CAr@@QAE@XZ		; CAr::~CAr
  000d5	8b 4d f4	 mov	 ecx, DWORD PTR __$EHRec$[ebp]
  000d8	64 89 0d 00 00
	00 00		 mov	 DWORD PTR fs:0, ecx
  000df	59		 pop	 ecx
  000e0	8b 4d f0	 mov	 ecx, DWORD PTR __$ArrayPad$[ebp]
  000e3	33 cd		 xor	 ecx, ebp
  000e5	e8 00 00 00 00	 call	 @__security_check_cookie@4
  000ea	8b e5		 mov	 esp, ebp
  000ec	5d		 pop	 ebp
  000ed	c2 04 00	 ret	 4
_TEXT	ENDS
;	COMDAT text$x
text$x	SEGMENT
__unwindfunclet$?ReqLoadHousingInfo@CHousingMng@@QAEXK@Z$0:
  00000	8d 8d dc bf ff
	ff		 lea	 ecx, DWORD PTR _ar$[ebp]
  00006	e9 00 00 00 00	 jmp	 ??1CAr@@QAE@XZ		; CAr::~CAr
  0000b	cc		 int	 3
  0000c	cc		 int	 3
  0000d	cc		 int	 3
  0000e	cc		 int	 3
  0000f	cc		 int	 3
__ehhandler$?ReqLoadHousingInfo@CHousingMng@@QAEXK@Z:
  00010	90		 npad	 1
  00011	90		 npad	 1
  00012	8b 54 24 08	 mov	 edx, DWORD PTR [esp+8]
  00016	8d 42 0c	 lea	 eax, DWORD PTR [edx+12]
  00019	8b 8a d4 bf ff
	ff		 mov	 ecx, DWORD PTR [edx-16428]
  0001f	33 c8		 xor	 ecx, eax
  00021	e8 00 00 00 00	 call	 @__security_check_cookie@4
  00026	8b 4a fc	 mov	 ecx, DWORD PTR [edx-4]
  00029	33 c8		 xor	 ecx, eax
  0002b	e8 00 00 00 00	 call	 @__security_check_cookie@4
  00030	b8 00 00 00 00	 mov	 eax, OFFSET __ehfuncinfo$?ReqLoadHousingInfo@CHousingMng@@QAEXK@Z
  00035	e9 00 00 00 00	 jmp	 ___CxxFrameHandler3
text$x	ENDS
?ReqLoadHousingInfo@CHousingMng@@QAEXK@Z ENDP		; CHousingMng::ReqLoadHousingInfo
; Function compile flags: /Ogtp
; File C:\IAGOS\server\v18\Source\Source\_Common\Housing.cpp
;	COMDAT ?GetInstance@CHousingMng@@SAPAV1@XZ
_TEXT	SEGMENT
__$EHRec$ = -12						; size = 12
?GetInstance@CHousingMng@@SAPAV1@XZ PROC		; CHousingMng::GetInstance, COMDAT

; 461  : {

  00000	55		 push	 ebp
  00001	8b ec		 mov	 ebp, esp
  00003	6a ff		 push	 -1
  00005	68 00 00 00 00	 push	 __ehhandler$?GetInstance@CHousingMng@@SAPAV1@XZ
  0000a	64 a1 00 00 00
	00		 mov	 eax, DWORD PTR fs:0
  00010	50		 push	 eax
  00011	a1 00 00 00 00	 mov	 eax, DWORD PTR ___security_cookie
  00016	33 c5		 xor	 eax, ebp
  00018	50		 push	 eax
  00019	8d 45 f4	 lea	 eax, DWORD PTR __$EHRec$[ebp]
  0001c	64 a3 00 00 00
	00		 mov	 DWORD PTR fs:0, eax

; 462  : 	static CHousingMng sHousingMng;

  00022	64 a1 00 00 00
	00		 mov	 eax, DWORD PTR fs:__tls_array
  00028	8b 0d 00 00 00
	00		 mov	 ecx, DWORD PTR __tls_index
  0002e	8b 0c 88	 mov	 ecx, DWORD PTR [eax+ecx*4]
  00031	a1 00 00 00 00	 mov	 eax, DWORD PTR ?$TSS0@?1??GetInstance@CHousingMng@@SAPAV2@XZ@4HA
  00036	3b 81 00 00 00
	00		 cmp	 eax, DWORD PTR __Init_thread_epoch[ecx]
  0003c	7f 14		 jg	 SHORT $LN9@GetInstanc
$LN5@GetInstanc:

; 463  : 	return & sHousingMng;
; 464  : }

  0003e	b8 00 00 00 00	 mov	 eax, OFFSET ?sHousingMng@?1??GetInstance@CHousingMng@@SAPAV2@XZ@4V2@A
  00043	8b 4d f4	 mov	 ecx, DWORD PTR __$EHRec$[ebp]
  00046	64 89 0d 00 00
	00 00		 mov	 DWORD PTR fs:0, ecx
  0004d	59		 pop	 ecx
  0004e	8b e5		 mov	 esp, ebp
  00050	5d		 pop	 ebp
  00051	c3		 ret	 0
$LN9@GetInstanc:

; 462  : 	static CHousingMng sHousingMng;

  00052	68 00 00 00 00	 push	 OFFSET ?$TSS0@?1??GetInstance@CHousingMng@@SAPAV2@XZ@4HA
  00057	e8 00 00 00 00	 call	 __Init_thread_header
  0005c	83 c4 04	 add	 esp, 4
  0005f	83 3d 00 00 00
	00 ff		 cmp	 DWORD PTR ?$TSS0@?1??GetInstance@CHousingMng@@SAPAV2@XZ@4HA, -1
  00066	75 d6		 jne	 SHORT $LN5@GetInstanc
  00068	b9 00 00 00 00	 mov	 ecx, OFFSET ?sHousingMng@?1??GetInstance@CHousingMng@@SAPAV2@XZ@4V2@A
  0006d	c7 45 fc 00 00
	00 00		 mov	 DWORD PTR __$EHRec$[ebp+8], 0
  00074	e8 00 00 00 00	 call	 ??0CHousingMng@@QAE@XZ	; CHousingMng::CHousingMng
  00079	68 00 00 00 00	 push	 OFFSET ??__FsHousingMng@?1??GetInstance@CHousingMng@@SAPAV1@XZ@YAXXZ ; `CHousingMng::GetInstance'::`2'::`dynamic atexit destructor for 'sHousingMng''
  0007e	e8 00 00 00 00	 call	 _atexit
  00083	68 00 00 00 00	 push	 OFFSET ?$TSS0@?1??GetInstance@CHousingMng@@SAPAV2@XZ@4HA
  00088	e8 00 00 00 00	 call	 __Init_thread_footer
  0008d	83 c4 08	 add	 esp, 8
  00090	eb ac		 jmp	 SHORT $LN5@GetInstanc
_TEXT	ENDS
;	COMDAT text$x
text$x	SEGMENT
__unwindfunclet$?GetInstance@CHousingMng@@SAPAV1@XZ$0:
  00000	68 00 00 00 00	 push	 OFFSET ?$TSS0@?1??GetInstance@CHousingMng@@SAPAV2@XZ@4HA
  00005	e8 00 00 00 00	 call	 __Init_thread_abort
  0000a	59		 pop	 ecx
  0000b	c3		 ret	 0
  0000c	cc		 int	 3
  0000d	cc		 int	 3
  0000e	cc		 int	 3
  0000f	cc		 int	 3
  00010	cc		 int	 3
__ehhandler$?GetInstance@CHousingMng@@SAPAV1@XZ:
  00011	90		 npad	 1
  00012	90		 npad	 1
  00013	8b 54 24 08	 mov	 edx, DWORD PTR [esp+8]
  00017	8d 42 0c	 lea	 eax, DWORD PTR [edx+12]
  0001a	8b 4a fc	 mov	 ecx, DWORD PTR [edx-4]
  0001d	33 c8		 xor	 ecx, eax
  0001f	e8 00 00 00 00	 call	 @__security_check_cookie@4
  00024	b8 00 00 00 00	 mov	 eax, OFFSET __ehfuncinfo$?GetInstance@CHousingMng@@SAPAV1@XZ
  00029	e9 00 00 00 00	 jmp	 ___CxxFrameHandler3
text$x	ENDS
?GetInstance@CHousingMng@@SAPAV1@XZ ENDP		; CHousingMng::GetInstance
; Function compile flags: /Ogtp
; File C:\IAGOS\server\v18\Source\Source\_Common\Housing.cpp
; File C:\Program Files\Microsoft Visual Studio\2022\Professional\VC\Tools\MSVC\14.44.35207\include\xtree
; File C:\IAGOS\server\v18\Source\Source\_Common\Housing.cpp
; File C:\Program Files\Microsoft Visual Studio\2022\Professional\VC\Tools\MSVC\14.44.35207\include\xtree
; File C:\IAGOS\server\v18\Source\Source\_Common\Housing.cpp
; File C:\Program Files\Microsoft Visual Studio\2022\Professional\VC\Tools\MSVC\14.44.35207\include\xtree
; File C:\IAGOS\server\v18\Source\Source\_Common\Housing.cpp
; File C:\Program Files\Microsoft Visual Studio\2022\Professional\VC\Tools\MSVC\14.44.35207\include\xtree
; File C:\Program Files\Microsoft Visual Studio\2022\Professional\VC\Tools\MSVC\14.44.35207\include\utility
; File C:\Program Files\Microsoft Visual Studio\2022\Professional\VC\Tools\MSVC\14.44.35207\include\xmemory
; File C:\Program Files\Microsoft Visual Studio\2022\Professional\VC\Tools\MSVC\14.44.35207\include\xtree
; File C:\IAGOS\server\v18\Source\Source\_Common\Housing.cpp
;	COMDAT ?Clear@CHousingMng@@QAEXXZ
_TEXT	SEGMENT
_this$1$ = -8						; size = 4
_it$1 = -4						; size = 4
?Clear@CHousingMng@@QAEXXZ PROC				; CHousingMng::Clear, COMDAT
; _this$ = ecx

; 451  : {

  00000	55		 push	 ebp
  00001	8b ec		 mov	 ebp, esp
  00003	83 ec 08	 sub	 esp, 8
  00006	53		 push	 ebx
  00007	56		 push	 esi
; File C:\Program Files\Microsoft Visual Studio\2022\Professional\VC\Tools\MSVC\14.44.35207\include\xtree

; 1142 :         return iterator(_Scary->_Myhead->_Left, _Scary);

  00008	8d 59 08	 lea	 ebx, DWORD PTR [ecx+8]
; File C:\IAGOS\server\v18\Source\Source\_Common\Housing.cpp

; 451  : {

  0000b	89 4d f8	 mov	 DWORD PTR _this$1$[ebp], ecx
  0000e	57		 push	 edi
; File C:\Program Files\Microsoft Visual Studio\2022\Professional\VC\Tools\MSVC\14.44.35207\include\xtree

; 1142 :         return iterator(_Scary->_Myhead->_Left, _Scary);

  0000f	8b 3b		 mov	 edi, DWORD PTR [ebx]

; 37   :     _Tree_unchecked_const_iterator(_Nodeptr _Pnode, const _Mytree* _Plist) noexcept : _Ptr(_Pnode) {

  00011	8b 37		 mov	 esi, DWORD PTR [edi]
  00013	89 75 fc	 mov	 DWORD PTR _it$1[ebp], esi

; 237  :         return !(*this == _Right);

  00016	3b f7		 cmp	 esi, edi
; File C:\IAGOS\server\v18\Source\Source\_Common\Housing.cpp

; 452  : 	for( MAP_HP::iterator it=m_mapHousing.begin(); it!=m_mapHousing.end(); it++ )

  00018	74 37		 je	 SHORT $LN3@Clear
  0001a	66 0f 1f 44 00
	00		 npad	 6
$LL4@Clear:

; 453  : 		SAFE_DELETE( it->second );

  00020	8b 7e 14	 mov	 edi, DWORD PTR [esi+20]
  00023	85 ff		 test	 edi, edi
  00025	74 19		 je	 SHORT $LN2@Clear
  00027	8b cf		 mov	 ecx, edi
  00029	e8 00 00 00 00	 call	 ??1CHousing@@QAE@XZ	; CHousing::~CHousing
  0002e	6a 20		 push	 32			; 00000020H
  00030	57		 push	 edi
  00031	e8 00 00 00 00	 call	 ??3@YAXPAXI@Z		; operator delete
  00036	83 c4 08	 add	 esp, 8
  00039	c7 46 14 00 00
	00 00		 mov	 DWORD PTR [esi+20], 0
$LN2@Clear:
; File C:\Program Files\Microsoft Visual Studio\2022\Professional\VC\Tools\MSVC\14.44.35207\include\xtree

; 198  :         _Mybase::operator++();

  00040	8d 4d fc	 lea	 ecx, DWORD PTR _it$1[ebp]
  00043	e8 00 00 00 00	 call	 ??E?$_Tree_unchecked_const_iterator@V?$_Tree_val@U?$_Tree_simple_types@U?$pair@$$CBKPAVCHousing@@@std@@@std@@@std@@U_Iterator_base0@2@@std@@QAEAAV01@XZ ; std::_Tree_unchecked_const_iterator<std::_Tree_val<std::_Tree_simple_types<std::pair<unsigned long const ,CHousing *> > >,std::_Iterator_base0>::operator++

; 37   :     _Tree_unchecked_const_iterator(_Nodeptr _Pnode, const _Mytree* _Plist) noexcept : _Ptr(_Pnode) {

  00048	8b 3b		 mov	 edi, DWORD PTR [ebx]

; 237  :         return !(*this == _Right);

  0004a	8b 75 fc	 mov	 esi, DWORD PTR _it$1[ebp]
  0004d	3b f7		 cmp	 esi, edi
; File C:\IAGOS\server\v18\Source\Source\_Common\Housing.cpp

; 452  : 	for( MAP_HP::iterator it=m_mapHousing.begin(); it!=m_mapHousing.end(); it++ )

  0004f	75 cf		 jne	 SHORT $LL4@Clear
$LN3@Clear:
; File C:\Program Files\Microsoft Visual Studio\2022\Professional\VC\Tools\MSVC\14.44.35207\include\xtree

; 1374 :         _Scary->_Erase_tree(_Getal(), _Head->_Parent);

  00051	8b 77 04	 mov	 esi, DWORD PTR [edi+4]

; 768  :         while (!_Rootnode->_Isnil) { // free subtrees, then node

  00054	80 7e 0d 00	 cmp	 BYTE PTR [esi+13], 0
  00058	75 26		 jne	 SHORT $LN119@Clear
  0005a	66 0f 1f 44 00
	00		 npad	 6
$LL80@Clear:

; 769  :             _Erase_tree(_Al, _Rootnode->_Right);

  00060	ff 76 08	 push	 DWORD PTR [esi+8]
  00063	8b cb		 mov	 ecx, ebx
  00065	53		 push	 ebx
  00066	e8 00 00 00 00	 call	 ??$_Erase_tree@V?$allocator@U?$_Tree_node@U?$pair@$$CBKPAVCHousing@@@std@@PAX@std@@@std@@@?$_Tree_val@U?$_Tree_simple_types@U?$pair@$$CBKPAVCHousing@@@std@@@std@@@std@@QAEXAAV?$allocator@U?$_Tree_node@U?$pair@$$CBKPAVCHousing@@@std@@PAX@std@@@1@PAU?$_Tree_node@U?$pair@$$CBKPAVCHousing@@@std@@PAX@1@@Z ; std::_Tree_val<std::_Tree_simple_types<std::pair<unsigned long const ,CHousing *> > >::_Erase_tree<std::allocator<std::_Tree_node<std::pair<unsigned long const ,CHousing *>,void *> > >
; File C:\Program Files\Microsoft Visual Studio\2022\Professional\VC\Tools\MSVC\14.44.35207\include\utility

; 773  :     _Ty _Old_val = static_cast<_Ty&&>(_Val);

  0006b	8b c6		 mov	 eax, esi

; 774  :     _Val         = static_cast<_Other&&>(_New_val);

  0006d	8b 36		 mov	 esi, DWORD PTR [esi]
; File C:\Program Files\Microsoft Visual Studio\2022\Professional\VC\Tools\MSVC\14.44.35207\include\xmemory

; 289  :         ::operator delete(_Ptr, _Bytes);

  0006f	6a 18		 push	 24			; 00000018H
  00071	50		 push	 eax
  00072	e8 00 00 00 00	 call	 ??3@YAXPAXI@Z		; operator delete
  00077	83 c4 08	 add	 esp, 8
; File C:\Program Files\Microsoft Visual Studio\2022\Professional\VC\Tools\MSVC\14.44.35207\include\xtree

; 768  :         while (!_Rootnode->_Isnil) { // free subtrees, then node

  0007a	80 7e 0d 00	 cmp	 BYTE PTR [esi+13], 0
  0007e	74 e0		 je	 SHORT $LL80@Clear
$LN119@Clear:

; 1375 :         _Head->_Parent  = _Head;

  00080	89 7f 04	 mov	 DWORD PTR [edi+4], edi

; 1376 :         _Head->_Left    = _Head;

  00083	89 3f		 mov	 DWORD PTR [edi], edi

; 1377 :         _Head->_Right   = _Head;

  00085	89 7f 08	 mov	 DWORD PTR [edi+8], edi

; 1378 :         _Scary->_Mysize = 0;

  00088	c7 43 04 00 00
	00 00		 mov	 DWORD PTR [ebx+4], 0

; 1373 :         auto _Head = _Scary->_Myhead;

  0008f	8b 5d f8	 mov	 ebx, DWORD PTR _this$1$[ebp]

; 1374 :         _Scary->_Erase_tree(_Getal(), _Head->_Parent);

  00092	8b cb		 mov	 ecx, ebx
  00094	8b 33		 mov	 esi, DWORD PTR [ebx]
  00096	ff 76 04	 push	 DWORD PTR [esi+4]
  00099	53		 push	 ebx
  0009a	e8 00 00 00 00	 call	 ??$_Erase_tree@V?$allocator@U?$_Tree_node@U?$pair@$$CBKV?$vector@KV?$allocator@K@std@@@std@@@std@@PAX@std@@@std@@@?$_Tree_val@U?$_Tree_simple_types@U?$pair@$$CBKV?$vector@KV?$allocator@K@std@@@std@@@std@@@std@@@std@@QAEXAAV?$allocator@U?$_Tree_node@U?$pair@$$CBKV?$vector@KV?$allocator@K@std@@@std@@@std@@PAX@std@@@1@PAU?$_Tree_node@U?$pair@$$CBKV?$vector@KV?$allocator@K@std@@@std@@@std@@PAX@1@@Z ; std::_Tree_val<std::_Tree_simple_types<std::pair<unsigned long const ,std::vector<unsigned long,std::allocator<unsigned long> > > > >::_Erase_tree<std::allocator<std::_Tree_node<std::pair<unsigned long const ,std::vector<unsigned long,std::allocator<unsigned long> > >,void *> > >

; 1378 :         _Scary->_Mysize = 0;

  0009f	5f		 pop	 edi
  000a0	89 76 04	 mov	 DWORD PTR [esi+4], esi
  000a3	89 36		 mov	 DWORD PTR [esi], esi
  000a5	89 76 08	 mov	 DWORD PTR [esi+8], esi
  000a8	5e		 pop	 esi
  000a9	c7 43 04 00 00
	00 00		 mov	 DWORD PTR [ebx+4], 0
  000b0	5b		 pop	 ebx
; File C:\IAGOS\server\v18\Source\Source\_Common\Housing.cpp

; 458  : }

  000b1	8b e5		 mov	 esp, ebp
  000b3	5d		 pop	 ebp
  000b4	c3		 ret	 0
?Clear@CHousingMng@@QAEXXZ ENDP				; CHousingMng::Clear
_TEXT	ENDS
; Function compile flags: /Ogtp
; File C:\IAGOS\server\v18\Source\Source\_Common\Housing.cpp
; File C:\Program Files\Microsoft Visual Studio\2022\Professional\VC\Tools\MSVC\14.44.35207\include\xtree
; File C:\Program Files\Microsoft Visual Studio\2022\Professional\VC\Tools\MSVC\14.44.35207\include\xmemory
; File C:\IAGOS\server\v18\Source\Source\_Common\Housing.cpp
;	COMDAT ??1CHousingMng@@QAE@XZ
_TEXT	SEGMENT
??1CHousingMng@@QAE@XZ PROC				; CHousingMng::~CHousingMng, COMDAT
; _this$ = ecx

; 446  : {

  00000	56		 push	 esi
  00001	8b f1		 mov	 esi, ecx

; 447  : 	Clear();

  00003	e8 00 00 00 00	 call	 ?Clear@CHousingMng@@QAEXXZ ; CHousingMng::Clear

; 448  : }

  00008	8d 4e 08	 lea	 ecx, DWORD PTR [esi+8]
  0000b	e8 00 00 00 00	 call	 ??1?$_Tree@V?$_Tmap_traits@KPAVCHousing@@U?$less@K@std@@V?$allocator@U?$pair@$$CBKPAVCHousing@@@std@@@3@$0A@@std@@@std@@QAE@XZ ; std::_Tree<std::_Tmap_traits<unsigned long,CHousing *,std::less<unsigned long>,std::allocator<std::pair<unsigned long const ,CHousing *> >,0> >::~_Tree<std::_Tmap_traits<unsigned long,CHousing *,std::less<unsigned long>,std::allocator<std::pair<unsigned long const ,CHousing *> >,0> >
; File C:\Program Files\Microsoft Visual Studio\2022\Professional\VC\Tools\MSVC\14.44.35207\include\xtree

; 777  :         _Erase_tree(_Al, _Myhead->_Parent);

  00010	8b 06		 mov	 eax, DWORD PTR [esi]
  00012	8b ce		 mov	 ecx, esi
  00014	ff 70 04	 push	 DWORD PTR [eax+4]
  00017	56		 push	 esi
  00018	e8 00 00 00 00	 call	 ??$_Erase_tree@V?$allocator@U?$_Tree_node@U?$pair@$$CBKV?$vector@KV?$allocator@K@std@@@std@@@std@@PAX@std@@@std@@@?$_Tree_val@U?$_Tree_simple_types@U?$pair@$$CBKV?$vector@KV?$allocator@K@std@@@std@@@std@@@std@@@std@@QAEXAAV?$allocator@U?$_Tree_node@U?$pair@$$CBKV?$vector@KV?$allocator@K@std@@@std@@@std@@PAX@std@@@1@PAU?$_Tree_node@U?$pair@$$CBKV?$vector@KV?$allocator@K@std@@@std@@@std@@PAX@1@@Z ; std::_Tree_val<std::_Tree_simple_types<std::pair<unsigned long const ,std::vector<unsigned long,std::allocator<unsigned long> > > > >::_Erase_tree<std::allocator<std::_Tree_node<std::pair<unsigned long const ,std::vector<unsigned long,std::allocator<unsigned long> > >,void *> > >
; File C:\Program Files\Microsoft Visual Studio\2022\Professional\VC\Tools\MSVC\14.44.35207\include\xmemory

; 289  :         ::operator delete(_Ptr, _Bytes);

  0001d	6a 20		 push	 32			; 00000020H
  0001f	ff 36		 push	 DWORD PTR [esi]
  00021	e8 00 00 00 00	 call	 ??3@YAXPAXI@Z		; operator delete
  00026	83 c4 08	 add	 esp, 8
  00029	5e		 pop	 esi
; File C:\IAGOS\server\v18\Source\Source\_Common\Housing.cpp

; 448  : }

  0002a	c3		 ret	 0
??1CHousingMng@@QAE@XZ ENDP				; CHousingMng::~CHousingMng
_TEXT	ENDS
; Function compile flags: /Ogtp
; File C:\IAGOS\server\v18\Source\Source\_Common\Housing.cpp
; File C:\Program Files\Microsoft Visual Studio\2022\Professional\VC\Tools\MSVC\14.44.35207\include\xmemory
; File C:\Program Files\Microsoft Visual Studio\2022\Professional\VC\Tools\MSVC\14.44.35207\include\xtree
; File C:\Program Files\Microsoft Visual Studio\2022\Professional\VC\Tools\MSVC\14.44.35207\include\xmemory
; File C:\Program Files\Microsoft Visual Studio\2022\Professional\VC\Tools\MSVC\14.44.35207\include\xtree
; File C:\IAGOS\server\v18\Source\Source\_Common\Housing.cpp
; File C:\Program Files\Microsoft Visual Studio\2022\Professional\VC\Tools\MSVC\14.44.35207\include\xmemory
; File C:\IAGOS\server\v18\Source\Source\_Common\Housing.cpp
; File C:\Program Files\Microsoft Visual Studio\2022\Professional\VC\Tools\MSVC\14.44.35207\include\xtree
; File C:\Program Files\Microsoft Visual Studio\2022\Professional\VC\Tools\MSVC\14.44.35207\include\xmemory
; File C:\Program Files\Microsoft Visual Studio\2022\Professional\VC\Tools\MSVC\14.44.35207\include\xtree
; File C:\IAGOS\server\v18\Source\Source\_Common\Housing.cpp
;	COMDAT ??0CHousingMng@@QAE@XZ
_TEXT	SEGMENT
_this$ = -20						; size = 4
_this$ = -16						; size = 4
__$EHRec$ = -12						; size = 12
??0CHousingMng@@QAE@XZ PROC				; CHousingMng::CHousingMng, COMDAT
; _this$ = ecx

; 442  : {

  00000	55		 push	 ebp
  00001	8b ec		 mov	 ebp, esp
  00003	6a ff		 push	 -1
  00005	68 00 00 00 00	 push	 __ehhandler$??0CHousingMng@@QAE@XZ
  0000a	64 a1 00 00 00
	00		 mov	 eax, DWORD PTR fs:0
  00010	50		 push	 eax
  00011	83 ec 08	 sub	 esp, 8
  00014	56		 push	 esi
  00015	57		 push	 edi
  00016	a1 00 00 00 00	 mov	 eax, DWORD PTR ___security_cookie
  0001b	33 c5		 xor	 eax, ebp
  0001d	50		 push	 eax
  0001e	8d 45 f4	 lea	 eax, DWORD PTR __$EHRec$[ebp]
  00021	64 a3 00 00 00
	00		 mov	 DWORD PTR fs:0, eax
  00027	8b f9		 mov	 edi, ecx
  00029	89 7d f0	 mov	 DWORD PTR _this$[ebp], edi
; File C:\Program Files\Microsoft Visual Studio\2022\Professional\VC\Tools\MSVC\14.44.35207\include\xmemory

; 136  :         return ::operator new(_Bytes);

  0002c	6a 20		 push	 32			; 00000020H
; File C:\Program Files\Microsoft Visual Studio\2022\Professional\VC\Tools\MSVC\14.44.35207\include\xtree

; 450  :     _Tree_val() noexcept : _Myhead(), _Mysize(0) {}

  0002e	c7 07 00 00 00
	00		 mov	 DWORD PTR [edi], 0
  00034	c7 47 04 00 00
	00 00		 mov	 DWORD PTR [edi+4], 0
; File C:\Program Files\Microsoft Visual Studio\2022\Professional\VC\Tools\MSVC\14.44.35207\include\xmemory

; 136  :         return ::operator new(_Bytes);

  0003b	e8 00 00 00 00	 call	 ??2@YAPAXI@Z		; operator new
; File C:\Program Files\Microsoft Visual Studio\2022\Professional\VC\Tools\MSVC\14.44.35207\include\xtree

; 346  :         _Construct_in_place(_Pnode->_Left, _Pnode);

  00040	89 00		 mov	 DWORD PTR [eax], eax

; 347  :         _Construct_in_place(_Pnode->_Parent, _Pnode);

  00042	89 40 04	 mov	 DWORD PTR [eax+4], eax

; 348  :         _Construct_in_place(_Pnode->_Right, _Pnode);

  00045	89 40 08	 mov	 DWORD PTR [eax+8], eax

; 349  :         _Pnode->_Color = _Black;

  00048	66 c7 40 0c 01
	01		 mov	 WORD PTR [eax+12], 257	; 00000101H

; 1957 :         _Scary->_Myhead = _Node::_Buyheadnode(_Getal());

  0004e	89 07		 mov	 DWORD PTR [edi], eax
; File C:\IAGOS\server\v18\Source\Source\_Common\Housing.cpp

; 442  : {

  00050	8d 77 08	 lea	 esi, DWORD PTR [edi+8]
  00053	c7 45 fc 00 00
	00 00		 mov	 DWORD PTR __$EHRec$[ebp+8], 0
; File C:\Program Files\Microsoft Visual Studio\2022\Professional\VC\Tools\MSVC\14.44.35207\include\xmemory

; 136  :         return ::operator new(_Bytes);

  0005a	6a 18		 push	 24			; 00000018H
; File C:\IAGOS\server\v18\Source\Source\_Common\Housing.cpp

; 442  : {

  0005c	89 75 ec	 mov	 DWORD PTR _this$[ebp], esi
; File C:\Program Files\Microsoft Visual Studio\2022\Professional\VC\Tools\MSVC\14.44.35207\include\xtree

; 450  :     _Tree_val() noexcept : _Myhead(), _Mysize(0) {}

  0005f	c7 06 00 00 00
	00		 mov	 DWORD PTR [esi], 0
  00065	c7 46 04 00 00
	00 00		 mov	 DWORD PTR [esi+4], 0
; File C:\Program Files\Microsoft Visual Studio\2022\Professional\VC\Tools\MSVC\14.44.35207\include\xmemory

; 136  :         return ::operator new(_Bytes);

  0006c	e8 00 00 00 00	 call	 ??2@YAPAXI@Z		; operator new
  00071	83 c4 08	 add	 esp, 8
; File C:\Program Files\Microsoft Visual Studio\2022\Professional\VC\Tools\MSVC\14.44.35207\include\xtree

; 346  :         _Construct_in_place(_Pnode->_Left, _Pnode);

  00074	89 00		 mov	 DWORD PTR [eax], eax

; 347  :         _Construct_in_place(_Pnode->_Parent, _Pnode);

  00076	89 40 04	 mov	 DWORD PTR [eax+4], eax

; 348  :         _Construct_in_place(_Pnode->_Right, _Pnode);

  00079	89 40 08	 mov	 DWORD PTR [eax+8], eax

; 349  :         _Pnode->_Color = _Black;

  0007c	66 c7 40 0c 01
	01		 mov	 WORD PTR [eax+12], 257	; 00000101H

; 1957 :         _Scary->_Myhead = _Node::_Buyheadnode(_Getal());

  00082	89 06		 mov	 DWORD PTR [esi], eax
; File C:\IAGOS\server\v18\Source\Source\_Common\Housing.cpp

; 443  : }

  00084	8b c7		 mov	 eax, edi
  00086	8b 4d f4	 mov	 ecx, DWORD PTR __$EHRec$[ebp]
  00089	64 89 0d 00 00
	00 00		 mov	 DWORD PTR fs:0, ecx
  00090	59		 pop	 ecx
  00091	5f		 pop	 edi
  00092	5e		 pop	 esi
  00093	8b e5		 mov	 esp, ebp
  00095	5d		 pop	 ebp
  00096	c3		 ret	 0
_TEXT	ENDS
;	COMDAT text$x
text$x	SEGMENT
__unwindfunclet$??0CHousingMng@@QAE@XZ$0:
  00000	8b 4d f0	 mov	 ecx, DWORD PTR _this$[ebp]
  00003	e9 00 00 00 00	 jmp	 ??1?$map@KV?$vector@KV?$allocator@K@std@@@std@@U?$less@K@2@V?$allocator@U?$pair@$$CBKV?$vector@KV?$allocator@K@std@@@std@@@std@@@2@@std@@QAE@XZ
  00008	cc		 int	 3
  00009	cc		 int	 3
  0000a	cc		 int	 3
  0000b	cc		 int	 3
  0000c	cc		 int	 3
__ehhandler$??0CHousingMng@@QAE@XZ:
  0000d	90		 npad	 1
  0000e	90		 npad	 1
  0000f	8b 54 24 08	 mov	 edx, DWORD PTR [esp+8]
  00013	8d 42 0c	 lea	 eax, DWORD PTR [edx+12]
  00016	8b 4a ec	 mov	 ecx, DWORD PTR [edx-20]
  00019	33 c8		 xor	 ecx, eax
  0001b	e8 00 00 00 00	 call	 @__security_check_cookie@4
  00020	b8 00 00 00 00	 mov	 eax, OFFSET __ehfuncinfo$??0CHousingMng@@QAE@XZ
  00025	e9 00 00 00 00	 jmp	 ___CxxFrameHandler3
text$x	ENDS
??0CHousingMng@@QAE@XZ ENDP				; CHousingMng::CHousingMng
; Function compile flags: /Ogtp
; File C:\Program Files\Microsoft Visual Studio\2022\Professional\VC\Tools\MSVC\14.44.35207\include\vector
;	COMDAT ?_Xlength@?$vector@UHOUSINGINFO@@V?$allocator@UHOUSINGINFO@@@std@@@std@@CAXXZ
_TEXT	SEGMENT
?_Xlength@?$vector@UHOUSINGINFO@@V?$allocator@UHOUSINGINFO@@@std@@@std@@CAXXZ PROC ; std::vector<HOUSINGINFO,std::allocator<HOUSINGINFO> >::_Xlength, COMDAT

; 2184 :         _Xlength_error("vector too long");

  00000	68 00 00 00 00	 push	 OFFSET ??_C@_0BA@FOIKENOD@vector?5too?5long@
  00005	e8 00 00 00 00	 call	 ?_Xlength_error@std@@YAXPBD@Z ; std::_Xlength_error
$LN3@Xlength:
  0000a	cc		 int	 3
?_Xlength@?$vector@UHOUSINGINFO@@V?$allocator@UHOUSINGINFO@@@std@@@std@@CAXXZ ENDP ; std::vector<HOUSINGINFO,std::allocator<HOUSINGINFO> >::_Xlength
_TEXT	ENDS
; Function compile flags: /Ogtp
; File C:\Program Files\Microsoft Visual Studio\2022\Professional\VC\Tools\MSVC\14.44.35207\include\vector
; File C:\Program Files\Microsoft Visual Studio\2022\Professional\VC\Tools\MSVC\14.44.35207\include\xmemory
; File C:\Program Files\Microsoft Visual Studio\2022\Professional\VC\Tools\MSVC\14.44.35207\include\vector
; File C:\Program Files\Microsoft Visual Studio\2022\Professional\VC\Tools\MSVC\14.44.35207\include\xmemory
; File C:\Program Files\Microsoft Visual Studio\2022\Professional\VC\Tools\MSVC\14.44.35207\include\vector
; File C:\Program Files\Microsoft Visual Studio\2022\Professional\VC\Tools\MSVC\14.44.35207\include\xmemory
; File C:\Program Files\Microsoft Visual Studio\2022\Professional\VC\Tools\MSVC\14.44.35207\include\vector
;	COMDAT ??1?$vector@UHOUSINGINFO@@V?$allocator@UHOUSINGINFO@@@std@@@std@@QAE@XZ
_TEXT	SEGMENT
??1?$vector@UHOUSINGINFO@@V?$allocator@UHOUSINGINFO@@@std@@@std@@QAE@XZ PROC ; std::vector<HOUSINGINFO,std::allocator<HOUSINGINFO> >::~vector<HOUSINGINFO,std::allocator<HOUSINGINFO> >, COMDAT
; _this$ = ecx

; 829  :     _CONSTEXPR20 ~vector() noexcept {

  00000	56		 push	 esi
  00001	8b f1		 mov	 esi, ecx

; 2090 :         if (_Myfirst) { // destroy and deallocate old array

  00003	8b 06		 mov	 eax, DWORD PTR [esi]
  00005	85 c0		 test	 eax, eax
  00007	74 40		 je	 SHORT $LN5@vector

; 2091 :             _STD _Destroy_range(_Myfirst, _Mylast, _Al);
; 2092 :             _ASAN_VECTOR_REMOVE;
; 2093 :             _Al.deallocate(_Myfirst, static_cast<size_type>(_Myend - _Myfirst));

  00009	8b 4e 08	 mov	 ecx, DWORD PTR [esi+8]
  0000c	2b c8		 sub	 ecx, eax
; File C:\Program Files\Microsoft Visual Studio\2022\Professional\VC\Tools\MSVC\14.44.35207\include\xmemory

; 985  :         _STD _Deallocate<_New_alignof<_Ty>>(_Ptr, sizeof(_Ty) * _Count);

  0000e	83 e1 e0	 and	 ecx, -32		; ffffffe0H

; 284  :         if (_Bytes >= _Big_allocation_threshold) {

  00011	81 f9 00 10 00
	00		 cmp	 ecx, 4096		; 00001000H
  00017	72 12		 jb	 SHORT $LN18@vector

; 205  :     const uintptr_t _Ptr_container   = _Ptr_user[-1];

  00019	8b 50 fc	 mov	 edx, DWORD PTR [eax-4]
  0001c	83 c1 23	 add	 ecx, 35			; 00000023H

; 206  : 
; 207  :     // If the following asserts, it likely means that we are performing
; 208  :     // an aligned delete on memory coming from an unaligned allocation.
; 209  :     _STL_ASSERT(_Ptr_user[-2] == _Big_allocation_sentinel, "invalid argument");
; 210  : 
; 211  :     // Extra paranoia on aligned allocation/deallocation; ensure _Ptr_container is
; 212  :     // in range [_Min_back_shift, _Non_user_size]
; 213  : #ifdef _DEBUG
; 214  :     constexpr uintptr_t _Min_back_shift = 2 * sizeof(void*);
; 215  : #else // ^^^ defined(_DEBUG) / !defined(_DEBUG) vvv
; 216  :     constexpr uintptr_t _Min_back_shift = sizeof(void*);
; 217  : #endif // ^^^ !defined(_DEBUG) ^^^
; 218  :     const uintptr_t _Back_shift = reinterpret_cast<uintptr_t>(_Ptr) - _Ptr_container;

  0001f	2b c2		 sub	 eax, edx

; 219  :     _STL_VERIFY(_Back_shift >= _Min_back_shift && _Back_shift <= _Non_user_size, "invalid argument");

  00021	83 c0 fc	 add	 eax, -4			; fffffffcH
  00024	83 f8 1f	 cmp	 eax, 31			; 0000001fH
  00027	77 22		 ja	 SHORT $LN17@vector

; 220  :     _Ptr = reinterpret_cast<void*>(_Ptr_container);

  00029	8b c2		 mov	 eax, edx
$LN18@vector:

; 289  :         ::operator delete(_Ptr, _Bytes);

  0002b	51		 push	 ecx
  0002c	50		 push	 eax
  0002d	e8 00 00 00 00	 call	 ??3@YAXPAXI@Z		; operator delete
; File C:\Program Files\Microsoft Visual Studio\2022\Professional\VC\Tools\MSVC\14.44.35207\include\vector

; 2095 :             _Myfirst = nullptr;

  00032	c7 06 00 00 00
	00		 mov	 DWORD PTR [esi], 0
; File C:\Program Files\Microsoft Visual Studio\2022\Professional\VC\Tools\MSVC\14.44.35207\include\xmemory

; 289  :         ::operator delete(_Ptr, _Bytes);

  00038	83 c4 08	 add	 esp, 8
; File C:\Program Files\Microsoft Visual Studio\2022\Professional\VC\Tools\MSVC\14.44.35207\include\vector

; 2096 :             _Mylast  = nullptr;

  0003b	c7 46 04 00 00
	00 00		 mov	 DWORD PTR [esi+4], 0

; 2097 :             _Myend   = nullptr;

  00042	c7 46 08 00 00
	00 00		 mov	 DWORD PTR [esi+8], 0
$LN5@vector:
  00049	5e		 pop	 esi

; 835  :     }

  0004a	c3		 ret	 0
$LN17@vector:
; File C:\Program Files\Microsoft Visual Studio\2022\Professional\VC\Tools\MSVC\14.44.35207\include\xmemory

; 219  :     _STL_VERIFY(_Back_shift >= _Min_back_shift && _Back_shift <= _Non_user_size, "invalid argument");

  0004b	6a 00		 push	 0
  0004d	6a 00		 push	 0
  0004f	6a 00		 push	 0
  00051	6a 00		 push	 0
  00053	6a 00		 push	 0
  00055	e8 00 00 00 00	 call	 __invoke_watson
$LN26@vector:
  0005a	cc		 int	 3
??1?$vector@UHOUSINGINFO@@V?$allocator@UHOUSINGINFO@@@std@@@std@@QAE@XZ ENDP ; std::vector<HOUSINGINFO,std::allocator<HOUSINGINFO> >::~vector<HOUSINGINFO,std::allocator<HOUSINGINFO> >
_TEXT	ENDS
; Function compile flags: /Ogtp
; File C:\IAGOS\server\v18\Source\Source\_Common\Housing.cpp
; File C:\Program Files\Microsoft Visual Studio\2022\Professional\VC\Tools\MSVC\14.44.35207\include\vector
; File C:\IAGOS\server\v18\Source\Source\_Common\Housing.cpp
; File C:\Program Files\Microsoft Visual Studio\2022\Professional\VC\Tools\MSVC\14.44.35207\include\vector
; File C:\IAGOS\server\v18\Source\Source\_Common\Housing.cpp
;	COMDAT ?GetIndexFromList@CHousing@@AAEHK@Z
_TEXT	SEGMENT
_dwItemId$ = 8						; size = 4
?GetIndexFromList@CHousing@@AAEHK@Z PROC		; CHousing::GetIndexFromList, COMDAT
; _this$ = ecx

; 119  : {

  00000	55		 push	 ebp
  00001	8b ec		 mov	 ebp, esp
; File C:\Program Files\Microsoft Visual Studio\2022\Professional\VC\Tools\MSVC\14.44.35207\include\vector

; 1915 :         return static_cast<size_type>(_My_data._Mylast - _My_data._Myfirst);

  00003	8b 51 08	 mov	 edx, DWORD PTR [ecx+8]
; File C:\IAGOS\server\v18\Source\Source\_Common\Housing.cpp

; 120  : 	for( int i=0; i<(int)( m_vecHousingInfo.size() ) ; i++ )

  00006	33 c0		 xor	 eax, eax
; File C:\Program Files\Microsoft Visual Studio\2022\Professional\VC\Tools\MSVC\14.44.35207\include\vector

; 1915 :         return static_cast<size_type>(_My_data._Mylast - _My_data._Myfirst);

  00008	8b 49 0c	 mov	 ecx, DWORD PTR [ecx+12]
  0000b	2b ca		 sub	 ecx, edx
  0000d	c1 f9 05	 sar	 ecx, 5
; File C:\IAGOS\server\v18\Source\Source\_Common\Housing.cpp

; 119  : {

  00010	56		 push	 esi

; 120  : 	for( int i=0; i<(int)( m_vecHousingInfo.size() ) ; i++ )

  00011	85 c9		 test	 ecx, ecx
  00013	7e 0f		 jle	 SHORT $LN3@GetIndexFr
  00015	8b 75 08	 mov	 esi, DWORD PTR _dwItemId$[ebp]
$LL4@GetIndexFr:

; 121  : 	{
; 122  : 		if( dwItemId == m_vecHousingInfo[i].dwItemId )

  00018	3b 32		 cmp	 esi, DWORD PTR [edx]
  0001a	74 0b		 je	 SHORT $LN1@GetIndexFr

; 120  : 	for( int i=0; i<(int)( m_vecHousingInfo.size() ) ; i++ )

  0001c	40		 inc	 eax
  0001d	83 c2 20	 add	 edx, 32			; 00000020H
  00020	3b c1		 cmp	 eax, ecx
  00022	7c f4		 jl	 SHORT $LL4@GetIndexFr
$LN3@GetIndexFr:

; 123  : 			return i;
; 124  : 	}
; 125  : 
; 126  : 	return NULL_ID;

  00024	83 c8 ff	 or	 eax, -1
$LN1@GetIndexFr:
  00027	5e		 pop	 esi

; 127  : }

  00028	5d		 pop	 ebp
  00029	c2 04 00	 ret	 4
?GetIndexFromList@CHousing@@AAEHK@Z ENDP		; CHousing::GetIndexFromList
_TEXT	ENDS
; Function compile flags: /Ogtp
; File C:\IAGOS\server\v18\Source\Source\_Common\Housing.cpp
; File C:\Program Files\Microsoft Visual Studio\2022\Professional\VC\Tools\MSVC\14.44.35207\include\vector
; File C:\IAGOS\server\v18\Source\Source\_Common\Housing.cpp
; File C:\Program Files\Microsoft Visual Studio\2022\Professional\VC\Tools\MSVC\14.44.35207\include\vector
; File C:\Program Files\Microsoft Visual Studio\2022\Professional\VC\Tools\MSVC\14.44.35207\include\xutility
; File C:\Program Files\Microsoft Visual Studio\2022\Professional\VC\Tools\MSVC\14.44.35207\include\vector
; File C:\Program Files\Microsoft Visual Studio\2022\Professional\VC\Tools\MSVC\14.44.35207\include\xutility
; File C:\IAGOS\server\v18\Source\Source\_Common\Housing.cpp
; File C:\Program Files\Microsoft Visual Studio\2022\Professional\VC\Tools\MSVC\14.44.35207\include\vector
; File C:\IAGOS\server\v18\Source\Source\_Common\Housing.cpp
;	COMDAT ?RemoveFurnitureList@CHousing@@AAEHK@Z
_TEXT	SEGMENT
_dwItemId$ = 8						; size = 4
?RemoveFurnitureList@CHousing@@AAEHK@Z PROC		; CHousing::RemoveFurnitureList, COMDAT
; _this$ = ecx

; 145  : {

  00000	55		 push	 ebp
  00001	8b ec		 mov	 ebp, esp
  00003	56		 push	 esi

; 146  : 	int nIndex = GetIndexFromList( dwItemId );

  00004	ff 75 08	 push	 DWORD PTR _dwItemId$[ebp]
  00007	8b f1		 mov	 esi, ecx
  00009	e8 00 00 00 00	 call	 ?GetIndexFromList@CHousing@@AAEHK@Z ; CHousing::GetIndexFromList

; 147  : 	if( nIndex != NULL_ID )

  0000e	83 f8 ff	 cmp	 eax, -1
  00011	74 3c		 je	 SHORT $LN2@RemoveFurn

; 150  : 		if( m_vecHousingInfo[nIndex].bSetup )

  00013	8b 4e 08	 mov	 ecx, DWORD PTR [esi+8]
  00016	57		 push	 edi
; File C:\Program Files\Microsoft Visual Studio\2022\Professional\VC\Tools\MSVC\14.44.35207\include\vector

; 1934 :         return _My_data._Myfirst[_Pos];

  00017	8b f8		 mov	 edi, eax
  00019	c1 e7 05	 shl	 edi, 5
; File C:\IAGOS\server\v18\Source\Source\_Common\Housing.cpp

; 150  : 		if( m_vecHousingInfo[nIndex].bSetup )

  0001c	83 7c 39 08 00	 cmp	 DWORD PTR [ecx+edi+8], 0
  00021	74 08		 je	 SHORT $LN3@RemoveFurn

; 151  : 			RemoveFurnitureControl( nIndex );

  00023	50		 push	 eax
  00024	8b ce		 mov	 ecx, esi
  00026	e8 00 00 00 00	 call	 ?RemoveFurnitureControl@CHousing@@QAEXH@Z ; CHousing::RemoveFurnitureControl
$LN3@RemoveFurn:
; File C:\Program Files\Microsoft Visual Studio\2022\Professional\VC\Tools\MSVC\14.44.35207\include\vector

; 129  :         _Ptr += _Off;

  0002b	8b 46 08	 mov	 eax, DWORD PTR [esi+8]
  0002e	03 c7		 add	 eax, edi
; File C:\Program Files\Microsoft Visual Studio\2022\Professional\VC\Tools\MSVC\14.44.35207\include\xutility

; 5147 :                 return _STD _Copy_memmove(_First, _Last, _Dest);

  00030	50		 push	 eax
  00031	ff 76 0c	 push	 DWORD PTR [esi+12]
; File C:\Program Files\Microsoft Visual Studio\2022\Professional\VC\Tools\MSVC\14.44.35207\include\vector

; 1775 :         _STD _Move_unchecked(_Whereptr + 1, _Mylast, _Whereptr);

  00034	83 c0 20	 add	 eax, 32			; 00000020H
; File C:\Program Files\Microsoft Visual Studio\2022\Professional\VC\Tools\MSVC\14.44.35207\include\xutility

; 5147 :                 return _STD _Copy_memmove(_First, _Last, _Dest);

  00037	50		 push	 eax
  00038	e8 00 00 00 00	 call	 ??$_Copy_memmove@PAUHOUSINGINFO@@PAU1@@std@@YAPAUHOUSINGINFO@@PAU1@00@Z ; std::_Copy_memmove<HOUSINGINFO *,HOUSINGINFO *>
  0003d	83 c4 0c	 add	 esp, 12			; 0000000cH
; File C:\IAGOS\server\v18\Source\Source\_Common\Housing.cpp

; 156  : 		return TRUE;

  00040	b8 01 00 00 00	 mov	 eax, 1
; File C:\Program Files\Microsoft Visual Studio\2022\Professional\VC\Tools\MSVC\14.44.35207\include\vector

; 1778 :         --_Mylast;

  00045	83 46 0c e0	 add	 DWORD PTR [esi+12], -32	; ffffffe0H
; File C:\IAGOS\server\v18\Source\Source\_Common\Housing.cpp

; 156  : 		return TRUE;

  00049	5f		 pop	 edi
  0004a	5e		 pop	 esi

; 160  : }

  0004b	5d		 pop	 ebp
  0004c	c2 04 00	 ret	 4
$LN2@RemoveFurn:

; 157  : 	}
; 158  : 		
; 159  : 	return FALSE;

  0004f	33 c0		 xor	 eax, eax
  00051	5e		 pop	 esi

; 160  : }

  00052	5d		 pop	 ebp
  00053	c2 04 00	 ret	 4
?RemoveFurnitureList@CHousing@@AAEHK@Z ENDP		; CHousing::RemoveFurnitureList
_TEXT	ENDS
; Function compile flags: /Ogtp
; File C:\IAGOS\server\v18\Source\Source\_Common\Housing.cpp
; File C:\Program Files\Microsoft Visual Studio\2022\Professional\VC\Tools\MSVC\14.44.35207\include\vector
; File C:\IAGOS\server\v18\Source\Source\_Common\Housing.cpp
; File C:\Program Files\Microsoft Visual Studio\2022\Professional\VC\Tools\MSVC\14.44.35207\include\vector
; File C:\IAGOS\server\v18\Source\Source\_Common\Housing.cpp
; File C:\Program Files\Microsoft Visual Studio\2022\Professional\VC\Tools\MSVC\14.44.35207\include\vector
; File C:\IAGOS\server\v18\Source\Source\_Common\Housing.cpp
; File C:\IAGOS\server\v18\Source\Source\_Common\Project.h
; File C:\IAGOS\server\v18\Source\Source\_Common\data.h
; File C:\IAGOS\server\v18\Source\Source\_Common\Housing.cpp
; File C:\Program Files\Microsoft Visual Studio\2022\Professional\VC\Tools\MSVC\14.44.35207\include\vector
; File C:\IAGOS\server\v18\Source\Source\_Common\Project.h
; File C:\Program Files\Microsoft Visual Studio\2022\Professional\VC\Tools\MSVC\14.44.35207\include\vector
; File C:\IAGOS\server\v18\Source\Source\_Common\Housing.cpp
; File C:\Program Files\Microsoft Visual Studio\2022\Professional\VC\Tools\MSVC\14.44.35207\include\vector
; File C:\IAGOS\server\v18\Source\Source\_Common\Housing.cpp
;	COMDAT ?GetAllPaperingInfo@CHousing@@QAE?AV?$vector@KV?$allocator@K@std@@@std@@XZ
_TEXT	SEGMENT
_this$1$ = -20						; size = 4
$T2 = -16						; size = 4
__$EHRec$ = -12						; size = 12
___$ReturnUdt$ = 8					; size = 4
?GetAllPaperingInfo@CHousing@@QAE?AV?$vector@KV?$allocator@K@std@@@std@@XZ PROC ; CHousing::GetAllPaperingInfo, COMDAT
; _this$ = ecx

; 408  : {

  00000	55		 push	 ebp
  00001	8b ec		 mov	 ebp, esp
  00003	6a ff		 push	 -1
  00005	68 00 00 00 00	 push	 __ehhandler$?GetAllPaperingInfo@CHousing@@QAE?AV?$vector@KV?$allocator@K@std@@@std@@XZ
  0000a	64 a1 00 00 00
	00		 mov	 eax, DWORD PTR fs:0
  00010	50		 push	 eax
  00011	83 ec 08	 sub	 esp, 8
  00014	53		 push	 ebx
  00015	56		 push	 esi
  00016	57		 push	 edi
  00017	a1 00 00 00 00	 mov	 eax, DWORD PTR ___security_cookie
  0001c	33 c5		 xor	 eax, ebp
  0001e	50		 push	 eax
  0001f	8d 45 f4	 lea	 eax, DWORD PTR __$EHRec$[ebp]
  00022	64 a3 00 00 00
	00		 mov	 DWORD PTR fs:0, eax
  00028	89 4d ec	 mov	 DWORD PTR _this$1$[ebp], ecx
  0002b	c7 45 f0 00 00
	00 00		 mov	 DWORD PTR $T2[ebp], 0
; File C:\Program Files\Microsoft Visual Studio\2022\Professional\VC\Tools\MSVC\14.44.35207\include\vector

; 400  :     _CONSTEXPR20 _Vector_val() noexcept : _Myfirst(), _Mylast(), _Myend() {}

  00032	8b 75 08	 mov	 esi, DWORD PTR ___$ReturnUdt$[ebp]
  00035	c7 06 00 00 00
	00		 mov	 DWORD PTR [esi], 0
  0003b	c7 46 04 00 00
	00 00		 mov	 DWORD PTR [esi+4], 0
  00042	c7 46 08 00 00
	00 00		 mov	 DWORD PTR [esi+8], 0

; 1915 :         return static_cast<size_type>(_My_data._Mylast - _My_data._Myfirst);

  00049	8b 41 0c	 mov	 eax, DWORD PTR [ecx+12]
; File C:\IAGOS\server\v18\Source\Source\_Common\Housing.cpp

; 410  : 	for( DWORD i=0; i<m_vecHousingInfo.size(); i++ )

  0004c	33 db		 xor	 ebx, ebx
; File C:\Program Files\Microsoft Visual Studio\2022\Professional\VC\Tools\MSVC\14.44.35207\include\vector

; 1915 :         return static_cast<size_type>(_My_data._Mylast - _My_data._Myfirst);

  0004e	8b 51 08	 mov	 edx, DWORD PTR [ecx+8]
  00051	2b c2		 sub	 eax, edx
  00053	c1 f8 05	 sar	 eax, 5
; File C:\IAGOS\server\v18\Source\Source\_Common\Housing.cpp

; 417  : 	return vecTemp;

  00056	c7 45 fc 00 00
	00 00		 mov	 DWORD PTR __$EHRec$[ebp+8], 0
  0005d	c7 45 f0 01 00
	00 00		 mov	 DWORD PTR $T2[ebp], 1
  00064	85 c0		 test	 eax, eax
  00066	0f 84 81 00 00
	00		 je	 $LN53@GetAllPape
; File C:\Program Files\Microsoft Visual Studio\2022\Professional\VC\Tools\MSVC\14.44.35207\include\vector

; 841  :         auto& _My_data   = _Mypair._Myval2;

  0006c	33 ff		 xor	 edi, edi
  0006e	66 90		 npad	 2
$LL4@GetAllPape:
; File C:\IAGOS\server\v18\Source\Source\_Common\Housing.cpp

; 412  : 		ItemProp* pItemProp = prj.GetItemProp( m_vecHousingInfo[i].dwItemId );

  00070	8b 0c 17	 mov	 ecx, DWORD PTR [edi+edx]
; File C:\IAGOS\server\v18\Source\Source\_Common\Project.h

; 1389 : 	VERIFY_RANGE_ASSERT( nIndex, 0, m_aPropItem.GetSize(), "GetItemProp range_error", NULL );

  00073	85 c9		 test	 ecx, ecx
  00075	78 45		 js	 SHORT $LN29@GetAllPape
  00077	3b 0d 40 02 00
	00		 cmp	 ecx, DWORD PTR ?prj@@3VCProject@@A+576
  0007d	7d 3d		 jge	 SHORT $LN29@GetAllPape
; File C:\IAGOS\server\v18\Source\Source\_Common\data.h

; 270  : 	if( dwIndex >= (DWORD)m_nMaxIndex )

  0007f	72 04		 jb	 SHORT $LN34@GetAllPape

; 271  : 		return NULL;

  00081	33 c0		 xor	 eax, eax
  00083	eb 08		 jmp	 SHORT $LN33@GetAllPape
$LN34@GetAllPape:

; 272  : 	return (T*) m_apOffset[ dwIndex ];

  00085	a1 30 02 00 00	 mov	 eax, DWORD PTR ?prj@@3VCProject@@A+560
  0008a	8b 04 88	 mov	 eax, DWORD PTR [eax+ecx*4]
$LN33@GetAllPape:
; File C:\IAGOS\server\v18\Source\Source\_Common\Housing.cpp

; 413  : 		if( pItemProp && m_vecHousingInfo[i].bSetup && pItemProp->dwItemKind2 == IK2_PAPERING )

  0008d	85 c0		 test	 eax, eax
  0008f	74 46		 je	 SHORT $LN2@GetAllPape
  00091	03 d7		 add	 edx, edi
  00093	83 7a 08 00	 cmp	 DWORD PTR [edx+8], 0
  00097	74 3e		 je	 SHORT $LN2@GetAllPape
  00099	83 78 74 23	 cmp	 DWORD PTR [eax+116], 35	; 00000023H
  0009d	75 38		 jne	 SHORT $LN2@GetAllPape
; File C:\Program Files\Microsoft Visual Studio\2022\Professional\VC\Tools\MSVC\14.44.35207\include\vector

; 844  :         if (_Mylast != _My_data._Myend) {

  0009f	8b 4e 04	 mov	 ecx, DWORD PTR [esi+4]
  000a2	3b 4e 08	 cmp	 ecx, DWORD PTR [esi+8]
  000a5	74 0a		 je	 SHORT $LN45@GetAllPape

; 860  :             _STD _Construct_in_place(*_Mylast, _STD forward<_Valty>(_Val)...);

  000a7	8b 02		 mov	 eax, DWORD PTR [edx]
  000a9	89 01		 mov	 DWORD PTR [ecx], eax

; 861  :         } else {
; 862  :             _ASAN_VECTOR_EXTEND_GUARD(static_cast<size_type>(_Mylast - _My_data._Myfirst) + 1);
; 863  :             _Alty_traits::construct(_Getal(), _Unfancy(_Mylast), _STD forward<_Valty>(_Val)...);
; 864  :             _ASAN_VECTOR_RELEASE_GUARD;
; 865  :         }
; 866  : 
; 867  :         _Orphan_range(_Mylast, _Mylast);
; 868  :         _Ty& _Result = *_Mylast;
; 869  :         ++_Mylast;

  000ab	83 46 04 04	 add	 DWORD PTR [esi+4], 4

; 845  :             return _Emplace_back_with_unused_capacity(_STD forward<_Valty>(_Val)...);

  000af	eb 26		 jmp	 SHORT $LN2@GetAllPape
$LN45@GetAllPape:

; 846  :         }
; 847  : 
; 848  :         return *_Emplace_reallocate(_Mylast, _STD forward<_Valty>(_Val)...);

  000b1	52		 push	 edx
  000b2	51		 push	 ecx
  000b3	8b ce		 mov	 ecx, esi
  000b5	e8 00 00 00 00	 call	 ??$_Emplace_reallocate@ABK@?$vector@KV?$allocator@K@std@@@std@@AAEPAKQAKABK@Z ; std::vector<unsigned long,std::allocator<unsigned long> >::_Emplace_reallocate<unsigned long const &>
  000ba	eb 1b		 jmp	 SHORT $LN2@GetAllPape
$LN29@GetAllPape:
; File C:\IAGOS\server\v18\Source\Source\_Common\Project.h

; 579  : 	LPCTSTR szErr = Error( _T( "%s min:%d, max:%d, index:%d" ), szMsg, nMin, nMax, nIndex ); 

  000bc	51		 push	 ecx
  000bd	ff 35 40 02 00
	00		 push	 DWORD PTR ?prj@@3VCProject@@A+576
  000c3	6a 00		 push	 0
  000c5	68 00 00 00 00	 push	 OFFSET ??_C@_0BI@BEIFNGEL@GetItemProp?5range_error@
  000ca	68 00 00 00 00	 push	 OFFSET ??_C@_0BM@HMFGHCP@?$CFs?5min?3?$CFd?0?5max?3?$CFd?0?5index?3?$CFd@
  000cf	e8 00 00 00 00	 call	 ?Error@@YAPBDPBDZZ	; Error
  000d4	83 c4 14	 add	 esp, 20			; 00000014H
$LN2@GetAllPape:
; File C:\Program Files\Microsoft Visual Studio\2022\Professional\VC\Tools\MSVC\14.44.35207\include\vector

; 1915 :         return static_cast<size_type>(_My_data._Mylast - _My_data._Myfirst);

  000d7	8b 45 ec	 mov	 eax, DWORD PTR _this$1$[ebp]
; File C:\IAGOS\server\v18\Source\Source\_Common\Housing.cpp

; 410  : 	for( DWORD i=0; i<m_vecHousingInfo.size(); i++ )

  000da	43		 inc	 ebx
  000db	83 c7 20	 add	 edi, 32			; 00000020H
; File C:\Program Files\Microsoft Visual Studio\2022\Professional\VC\Tools\MSVC\14.44.35207\include\vector

; 1915 :         return static_cast<size_type>(_My_data._Mylast - _My_data._Myfirst);

  000de	8b 48 0c	 mov	 ecx, DWORD PTR [eax+12]
  000e1	8b 50 08	 mov	 edx, DWORD PTR [eax+8]
  000e4	2b ca		 sub	 ecx, edx
  000e6	c1 f9 05	 sar	 ecx, 5
; File C:\IAGOS\server\v18\Source\Source\_Common\Housing.cpp

; 410  : 	for( DWORD i=0; i<m_vecHousingInfo.size(); i++ )

  000e9	3b d9		 cmp	 ebx, ecx
  000eb	72 83		 jb	 SHORT $LL4@GetAllPape
$LN53@GetAllPape:

; 418  : }

  000ed	8b c6		 mov	 eax, esi
  000ef	8b 4d f4	 mov	 ecx, DWORD PTR __$EHRec$[ebp]
  000f2	64 89 0d 00 00
	00 00		 mov	 DWORD PTR fs:0, ecx
  000f9	59		 pop	 ecx
  000fa	5f		 pop	 edi
  000fb	5e		 pop	 esi
  000fc	5b		 pop	 ebx
  000fd	8b e5		 mov	 esp, ebp
  000ff	5d		 pop	 ebp
  00100	c2 04 00	 ret	 4
_TEXT	ENDS
;	COMDAT text$x
text$x	SEGMENT
__unwindfunclet$?GetAllPaperingInfo@CHousing@@QAE?AV?$vector@KV?$allocator@K@std@@@std@@XZ$0:
  00000	8b 45 f0	 mov	 eax, DWORD PTR $T2[ebp]
  00003	83 e0 01	 and	 eax, 1
  00006	0f 84 0c 00 00
	00		 je	 $LN8@GetAllPape
  0000c	83 65 f0 fe	 and	 DWORD PTR $T2[ebp], -2	; fffffffeH
  00010	8b 4d 08	 mov	 ecx, DWORD PTR ___$ReturnUdt$[ebp]
  00013	e9 00 00 00 00	 jmp	 ??1?$vector@KV?$allocator@K@std@@@std@@QAE@XZ ; std::vector<unsigned long,std::allocator<unsigned long> >::~vector<unsigned long,std::allocator<unsigned long> >
$LN8@GetAllPape:
  00018	c3		 ret	 0
  00019	cc		 int	 3
  0001a	cc		 int	 3
  0001b	cc		 int	 3
  0001c	cc		 int	 3
  0001d	cc		 int	 3
__ehhandler$?GetAllPaperingInfo@CHousing@@QAE?AV?$vector@KV?$allocator@K@std@@@std@@XZ:
  0001e	90		 npad	 1
  0001f	90		 npad	 1
  00020	8b 54 24 08	 mov	 edx, DWORD PTR [esp+8]
  00024	8d 42 0c	 lea	 eax, DWORD PTR [edx+12]
  00027	8b 4a e8	 mov	 ecx, DWORD PTR [edx-24]
  0002a	33 c8		 xor	 ecx, eax
  0002c	e8 00 00 00 00	 call	 @__security_check_cookie@4
  00031	b8 00 00 00 00	 mov	 eax, OFFSET __ehfuncinfo$?GetAllPaperingInfo@CHousing@@QAE?AV?$vector@KV?$allocator@K@std@@@std@@XZ
  00036	e9 00 00 00 00	 jmp	 ___CxxFrameHandler3
text$x	ENDS
?GetAllPaperingInfo@CHousing@@QAE?AV?$vector@KV?$allocator@K@std@@@std@@XZ ENDP ; CHousing::GetAllPaperingInfo
; Function compile flags: /Ogtp
; File C:\IAGOS\server\v18\Source\Source\_Common\Housing.cpp
; File C:\Program Files\Microsoft Visual Studio\2022\Professional\VC\Tools\MSVC\14.44.35207\include\xtree
; File C:\IAGOS\server\v18\Source\Source\_Common\Housing.cpp
; File C:\Program Files\Microsoft Visual Studio\2022\Professional\VC\Tools\MSVC\14.44.35207\include\xtree
; File C:\Program Files\Microsoft Visual Studio\2022\Professional\VC\Tools\MSVC\14.44.35207\include\type_traits
; File C:\Program Files\Microsoft Visual Studio\2022\Professional\VC\Tools\MSVC\14.44.35207\include\xtree
; File C:\Program Files\Microsoft Visual Studio\2022\Professional\VC\Tools\MSVC\14.44.35207\include\type_traits
; File C:\Program Files\Microsoft Visual Studio\2022\Professional\VC\Tools\MSVC\14.44.35207\include\xtree
; File C:\IAGOS\server\v18\Source\Source\_Common\Project.h
; File C:\IAGOS\server\v18\Source\Source\_Common\data.h
; File C:\IAGOS\server\v18\Source\Source\_Common\Project.h
; File C:\IAGOS\server\v18\Source\Source\_Common\Obj.h
; File C:\IAGOS\server\v18\Source\Source\_Common\Housing.cpp
;	COMDAT ?SetBuff@CHousing@@QAEXKH@Z
_TEXT	SEGMENT
_dwItemId$ = 8						; size = 4
_bSet$ = 12						; size = 4
?SetBuff@CHousing@@QAEXKH@Z PROC			; CHousing::SetBuff, COMDAT
; _this$ = ecx

; 395  : {

  00000	55		 push	 ebp
  00001	8b ec		 mov	 ebp, esp

; 396  : 	CUser* pUser = static_cast<CUser*>( prj.GetUserByID( m_dwMasterId ) );

  00003	8b 51 04	 mov	 edx, DWORD PTR [ecx+4]
  00006	56		 push	 esi
; File C:\Program Files\Microsoft Visual Studio\2022\Professional\VC\Tools\MSVC\14.44.35207\include\xtree

; 1630 :         _Tree_find_result<_Nodeptr> _Result{{_Scary->_Myhead->_Parent, _Tree_child::_Right}, _Scary->_Myhead};

  00007	8b 35 28 00 00
	00		 mov	 esi, DWORD PTR ?prj@@3VCProject@@A+40
  0000d	8b ce		 mov	 ecx, esi
; File C:\IAGOS\server\v18\Source\Source\_Common\Housing.cpp

; 395  : {

  0000f	57		 push	 edi
; File C:\Program Files\Microsoft Visual Studio\2022\Professional\VC\Tools\MSVC\14.44.35207\include\xtree

; 1630 :         _Tree_find_result<_Nodeptr> _Result{{_Scary->_Myhead->_Parent, _Tree_child::_Right}, _Scary->_Myhead};

  00010	8b 46 04	 mov	 eax, DWORD PTR [esi+4]

; 1631 :         _Nodeptr _Trynode = _Result._Location._Parent;
; 1632 :         while (!_Trynode->_Isnil) {

  00013	80 78 0d 00	 cmp	 BYTE PTR [eax+13], 0
  00017	75 1b		 jne	 SHORT $LN16@SetBuff
  00019	0f 1f 80 00 00
	00 00		 npad	 7
$LL15@SetBuff:
; File C:\Program Files\Microsoft Visual Studio\2022\Professional\VC\Tools\MSVC\14.44.35207\include\type_traits

; 2380 :         return _Left < _Right;

  00020	39 50 10	 cmp	 DWORD PTR [eax+16], edx
; File C:\Program Files\Microsoft Visual Studio\2022\Professional\VC\Tools\MSVC\14.44.35207\include\xtree

; 1634 :             if (_DEBUG_LT_PRED(_Getcomp(), _Traits::_Kfn(_Trynode->_Myval), _Keyval)) {

  00023	73 05		 jae	 SHORT $LN17@SetBuff

; 1635 :                 _Result._Location._Child = _Tree_child::_Right;
; 1636 :                 _Trynode                 = _Trynode->_Right;

  00025	8b 40 08	 mov	 eax, DWORD PTR [eax+8]

; 1637 :             } else {

  00028	eb 04		 jmp	 SHORT $LN18@SetBuff
$LN17@SetBuff:

; 1638 :                 _Result._Location._Child = _Tree_child::_Left;
; 1639 :                 _Result._Bound           = _Trynode;

  0002a	8b c8		 mov	 ecx, eax

; 1640 :                 _Trynode                 = _Trynode->_Left;

  0002c	8b 00		 mov	 eax, DWORD PTR [eax]
$LN18@SetBuff:

; 1631 :         _Nodeptr _Trynode = _Result._Location._Parent;
; 1632 :         while (!_Trynode->_Isnil) {

  0002e	80 78 0d 00	 cmp	 BYTE PTR [eax+13], 0
  00032	74 ec		 je	 SHORT $LL15@SetBuff
$LN16@SetBuff:

; 1624 :         return !_Bound->_Isnil && !_DEBUG_LT_PRED(_Getcomp(), _Keyval, _Traits::_Kfn(_Bound->_Myval));

  00034	80 79 0d 00	 cmp	 BYTE PTR [ecx+13], 0
  00038	75 05		 jne	 SHORT $LN12@SetBuff
; File C:\Program Files\Microsoft Visual Studio\2022\Professional\VC\Tools\MSVC\14.44.35207\include\type_traits

; 2380 :         return _Left < _Right;

  0003a	3b 51 10	 cmp	 edx, DWORD PTR [ecx+16]
; File C:\Program Files\Microsoft Visual Studio\2022\Professional\VC\Tools\MSVC\14.44.35207\include\xtree

; 1624 :         return !_Bound->_Isnil && !_DEBUG_LT_PRED(_Getcomp(), _Keyval, _Traits::_Kfn(_Bound->_Myval));

  0003d	73 02		 jae	 SHORT $LN11@SetBuff
$LN12@SetBuff:

; 1389 :         return _Get_scary()->_Myhead;

  0003f	8b ce		 mov	 ecx, esi
$LN11@SetBuff:

; 37   :     _Tree_unchecked_const_iterator(_Nodeptr _Pnode, const _Mytree* _Plist) noexcept : _Ptr(_Pnode) {

  00041	3b ce		 cmp	 ecx, esi
; File C:\IAGOS\server\v18\Source\Source\_Common\Project.h

; 1436 : 	if( i != m_idPlayerToUserPtr.end() )

  00043	74 05		 je	 SHORT $LN7@SetBuff

; 1437 : 		return i->second;

  00045	8b 71 14	 mov	 esi, DWORD PTR [ecx+20]
  00048	eb 02		 jmp	 SHORT $LN6@SetBuff
$LN7@SetBuff:

; 1438 : 	return NULL;

  0004a	33 f6		 xor	 esi, esi
$LN6@SetBuff:

; 1389 : 	VERIFY_RANGE_ASSERT( nIndex, 0, m_aPropItem.GetSize(), "GetItemProp range_error", NULL );

  0004c	8b 7d 08	 mov	 edi, DWORD PTR _dwItemId$[ebp]
  0004f	a1 40 02 00 00	 mov	 eax, DWORD PTR ?prj@@3VCProject@@A+576
  00054	85 ff		 test	 edi, edi
  00056	78 10		 js	 SHORT $LN71@SetBuff
  00058	3b f8		 cmp	 edi, eax
  0005a	7d 0c		 jge	 SHORT $LN71@SetBuff
; File C:\IAGOS\server\v18\Source\Source\_Common\data.h

; 270  : 	if( dwIndex >= (DWORD)m_nMaxIndex )

  0005c	73 20		 jae	 SHORT $LN100@SetBuff

; 271  : 		return NULL;
; 272  : 	return (T*) m_apOffset[ dwIndex ];

  0005e	a1 30 02 00 00	 mov	 eax, DWORD PTR ?prj@@3VCProject@@A+560
  00063	8b 04 b8	 mov	 eax, DWORD PTR [eax+edi*4]
; File C:\IAGOS\server\v18\Source\Source\_Common\Project.h

; 1390 : 	return m_aPropItem.GetAt( nIndex ); 

  00066	eb 18		 jmp	 SHORT $LN66@SetBuff
$LN71@SetBuff:

; 579  : 	LPCTSTR szErr = Error( _T( "%s min:%d, max:%d, index:%d" ), szMsg, nMin, nMax, nIndex ); 

  00068	57		 push	 edi
  00069	50		 push	 eax
  0006a	6a 00		 push	 0
  0006c	68 00 00 00 00	 push	 OFFSET ??_C@_0BI@BEIFNGEL@GetItemProp?5range_error@
  00071	68 00 00 00 00	 push	 OFFSET ??_C@_0BM@HMFGHCP@?$CFs?5min?3?$CFd?0?5max?3?$CFd?0?5index?3?$CFd@
  00076	e8 00 00 00 00	 call	 ?Error@@YAPBDPBDZZ	; Error
  0007b	83 c4 14	 add	 esp, 20			; 00000014H
$LN100@SetBuff:
; File C:\IAGOS\server\v18\Source\Source\_Common\Obj.h

; 327  : 	return pObj && ( pObj->IsDelete() == FALSE ); 

  0007e	33 c0		 xor	 eax, eax
$LN66@SetBuff:
  00080	85 f6		 test	 esi, esi
  00082	74 31		 je	 SHORT $LN4@SetBuff

; 180  : 	BOOL			IsDelete()	{ return (m_dwFlags & OBJ_FLAG_DELETE);  }

  00084	f6 46 04 01	 test	 BYTE PTR [esi+4], 1

; 327  : 	return pObj && ( pObj->IsDelete() == FALSE ); 

  00088	75 2b		 jne	 SHORT $LN4@SetBuff
; File C:\IAGOS\server\v18\Source\Source\_Common\Housing.cpp

; 398  : 	if( IsValidObj( pUser ) && pItemProp )

  0008a	85 c0		 test	 eax, eax
  0008c	74 27		 je	 SHORT $LN4@SetBuff

; 399  : 	{
; 400  : 		if( bSet )

  0008e	83 7d 0c 00	 cmp	 DWORD PTR _bSet$[ebp], 0
  00092	8b ce		 mov	 ecx, esi
  00094	74 17		 je	 SHORT $LN3@SetBuff

; 401  : 			pUser->ApplySkill( pUser, pItemProp, NULL );

  00096	6a 01		 push	 1
  00098	6a 00		 push	 0
  0009a	6a 00		 push	 0
  0009c	6a 00		 push	 0
  0009e	6a 00		 push	 0
  000a0	50		 push	 eax
  000a1	56		 push	 esi
  000a2	e8 00 00 00 00	 call	 ?ApplySkill@CCtrl@@QAEXPAV1@PAUItemProp@@PAUAddSkillProp@@_NHHH@Z ; CCtrl::ApplySkill
  000a7	5f		 pop	 edi

; 404  : 	}
; 405  : }

  000a8	5e		 pop	 esi
  000a9	5d		 pop	 ebp
  000aa	c2 08 00	 ret	 8
$LN3@SetBuff:

; 402  : 		else
; 403  : 			pUser->RemoveBuff( BUFF_ITEM, (WORD)( dwItemId ) );

  000ad	57		 push	 edi
  000ae	6a 00		 push	 0
  000b0	e8 00 00 00 00	 call	 ?RemoveBuff@CMover@@QAEXGG@Z ; CMover::RemoveBuff
$LN4@SetBuff:

; 404  : 	}
; 405  : }

  000b5	5f		 pop	 edi
  000b6	5e		 pop	 esi
  000b7	5d		 pop	 ebp
  000b8	c2 08 00	 ret	 8
?SetBuff@CHousing@@QAEXKH@Z ENDP			; CHousing::SetBuff
_TEXT	ENDS
; Function compile flags: /Ogtp
; File C:\IAGOS\server\v18\Source\Source\_Common\Housing.cpp
; File C:\Program Files\Microsoft Visual Studio\2022\Professional\VC\Tools\MSVC\14.44.35207\include\vector
; File C:\IAGOS\server\v18\Source\Source\_Common\Housing.cpp
; File C:\Program Files\Microsoft Visual Studio\2022\Professional\VC\Tools\MSVC\14.44.35207\include\vector
; File C:\IAGOS\server\v18\Source\Source\_Common\Housing.cpp
; File C:\Program Files\Microsoft Visual Studio\2022\Professional\VC\Tools\MSVC\14.44.35207\include\vector
; File C:\IAGOS\server\v18\Source\Source\_Common\Housing.cpp
; File C:\Program Files\Microsoft Visual Studio\2022\Professional\VC\Tools\MSVC\14.44.35207\include\vector
; File C:\IAGOS\server\v18\Source\Source\_Common\Housing.cpp
; File C:\Program Files\Microsoft Visual Studio\2022\Professional\VC\Tools\MSVC\14.44.35207\include\vector
; File C:\IAGOS\server\v18\Source\Source\_Common\Housing.cpp
;	COMDAT ?AddAllFurnitureControl@CHousing@@QAEXXZ
_TEXT	SEGMENT
?AddAllFurnitureControl@CHousing@@QAEXXZ PROC		; CHousing::AddAllFurnitureControl, COMDAT
; _this$ = ecx

; 386  : {

  00000	56		 push	 esi
  00001	57		 push	 edi
  00002	8b f9		 mov	 edi, ecx

; 387  : 	for( DWORD i=0; i<m_vecHousingInfo.size(); i++ )

  00004	33 f6		 xor	 esi, esi
; File C:\Program Files\Microsoft Visual Studio\2022\Professional\VC\Tools\MSVC\14.44.35207\include\vector

; 1915 :         return static_cast<size_type>(_My_data._Mylast - _My_data._Myfirst);

  00006	8b 47 0c	 mov	 eax, DWORD PTR [edi+12]
  00009	8b 4f 08	 mov	 ecx, DWORD PTR [edi+8]
  0000c	2b c1		 sub	 eax, ecx
  0000e	c1 f8 05	 sar	 eax, 5
; File C:\IAGOS\server\v18\Source\Source\_Common\Housing.cpp

; 387  : 	for( DWORD i=0; i<m_vecHousingInfo.size(); i++ )

  00011	85 c0		 test	 eax, eax
  00013	74 26		 je	 SHORT $LN3@AddAllFurn
  00015	53		 push	 ebx
; File C:\Program Files\Microsoft Visual Studio\2022\Professional\VC\Tools\MSVC\14.44.35207\include\vector

; 1914 :         auto& _My_data = _Mypair._Myval2;

  00016	33 db		 xor	 ebx, ebx
$LL4@AddAllFurn:
; File C:\IAGOS\server\v18\Source\Source\_Common\Housing.cpp

; 389  : 		if( m_vecHousingInfo[i].bSetup )

  00018	83 7c 0b 08 00	 cmp	 DWORD PTR [ebx+ecx+8], 0
  0001d	74 08		 je	 SHORT $LN2@AddAllFurn

; 390  : 			AddFurnitureControl( i );

  0001f	56		 push	 esi
  00020	8b cf		 mov	 ecx, edi
  00022	e8 00 00 00 00	 call	 ?AddFurnitureControl@CHousing@@QAEHH@Z ; CHousing::AddFurnitureControl
$LN2@AddAllFurn:
; File C:\Program Files\Microsoft Visual Studio\2022\Professional\VC\Tools\MSVC\14.44.35207\include\vector

; 1915 :         return static_cast<size_type>(_My_data._Mylast - _My_data._Myfirst);

  00027	8b 47 0c	 mov	 eax, DWORD PTR [edi+12]
; File C:\IAGOS\server\v18\Source\Source\_Common\Housing.cpp

; 387  : 	for( DWORD i=0; i<m_vecHousingInfo.size(); i++ )

  0002a	46		 inc	 esi
; File C:\Program Files\Microsoft Visual Studio\2022\Professional\VC\Tools\MSVC\14.44.35207\include\vector

; 1915 :         return static_cast<size_type>(_My_data._Mylast - _My_data._Myfirst);

  0002b	8b 4f 08	 mov	 ecx, DWORD PTR [edi+8]
; File C:\IAGOS\server\v18\Source\Source\_Common\Housing.cpp

; 387  : 	for( DWORD i=0; i<m_vecHousingInfo.size(); i++ )

  0002e	83 c3 20	 add	 ebx, 32			; 00000020H
; File C:\Program Files\Microsoft Visual Studio\2022\Professional\VC\Tools\MSVC\14.44.35207\include\vector

; 1915 :         return static_cast<size_type>(_My_data._Mylast - _My_data._Myfirst);

  00031	2b c1		 sub	 eax, ecx
  00033	c1 f8 05	 sar	 eax, 5
; File C:\IAGOS\server\v18\Source\Source\_Common\Housing.cpp

; 387  : 	for( DWORD i=0; i<m_vecHousingInfo.size(); i++ )

  00036	3b f0		 cmp	 esi, eax
  00038	72 de		 jb	 SHORT $LL4@AddAllFurn
  0003a	5b		 pop	 ebx
$LN3@AddAllFurn:
  0003b	5f		 pop	 edi

; 391  : 	}
; 392  : }

  0003c	5e		 pop	 esi
  0003d	c3		 ret	 0
?AddAllFurnitureControl@CHousing@@QAEXXZ ENDP		; CHousing::AddAllFurnitureControl
_TEXT	ENDS
; Function compile flags: /Ogtp
; File C:\IAGOS\server\v18\Source\Source\_Common\Housing.cpp
; File C:\Program Files\Microsoft Visual Studio\2022\Professional\VC\Tools\MSVC\14.44.35207\include\vector
; File C:\IAGOS\server\v18\Source\Source\_Common\Housing.cpp
; File C:\Program Files\Microsoft Visual Studio\2022\Professional\VC\Tools\MSVC\14.44.35207\include\vector
; File C:\IAGOS\server\v18\Source\Source\_Common\Housing.cpp
; File C:\IAGOS\server\v18\Source\Source\_Common\Project.h
; File C:\IAGOS\server\v18\Source\Source\_Common\data.h
; File C:\IAGOS\server\v18\Source\Source\_Common\Project.h
; File C:\IAGOS\server\v18\Source\Source\_Common\Housing.cpp
; File C:\Program Files\Microsoft Visual Studio\2022\Professional\VC\Tools\MSVC\14.44.35207\include\vector
; File C:\IAGOS\server\v18\Source\Source\_Common\Housing.cpp
;	COMDAT ?RemoveFurnitureControl@CHousing@@QAEXH@Z
_TEXT	SEGMENT
_nIndex$ = 8						; size = 4
?RemoveFurnitureControl@CHousing@@QAEXH@Z PROC		; CHousing::RemoveFurnitureControl, COMDAT
; _this$ = ecx

; 357  : {

  00000	55		 push	 ebp
  00001	8b ec		 mov	 ebp, esp
  00003	53		 push	 ebx
; File C:\Program Files\Microsoft Visual Studio\2022\Professional\VC\Tools\MSVC\14.44.35207\include\vector

; 1934 :         return _My_data._Myfirst[_Pos];

  00004	8b 5d 08	 mov	 ebx, DWORD PTR _nIndex$[ebp]
; File C:\IAGOS\server\v18\Source\Source\_Common\Housing.cpp

; 357  : {

  00007	56		 push	 esi
  00008	57		 push	 edi
  00009	8b f9		 mov	 edi, ecx
; File C:\Program Files\Microsoft Visual Studio\2022\Professional\VC\Tools\MSVC\14.44.35207\include\vector

; 1934 :         return _My_data._Myfirst[_Pos];

  0000b	c1 e3 05	 shl	 ebx, 5
; File C:\IAGOS\server\v18\Source\Source\_Common\Housing.cpp

; 358  : 	ItemProp* pItemProp = prj.GetItemProp( m_vecHousingInfo[nIndex].dwItemId );

  0000e	8b 47 08	 mov	 eax, DWORD PTR [edi+8]
  00011	8b 0c 03	 mov	 ecx, DWORD PTR [ebx+eax]
; File C:\IAGOS\server\v18\Source\Source\_Common\Project.h

; 1389 : 	VERIFY_RANGE_ASSERT( nIndex, 0, m_aPropItem.GetSize(), "GetItemProp range_error", NULL );

  00014	a1 40 02 00 00	 mov	 eax, DWORD PTR ?prj@@3VCProject@@A+576
  00019	85 c9		 test	 ecx, ecx
  0001b	78 10		 js	 SHORT $LN16@RemoveFurn
  0001d	3b c8		 cmp	 ecx, eax
  0001f	7d 0c		 jge	 SHORT $LN16@RemoveFurn
; File C:\IAGOS\server\v18\Source\Source\_Common\data.h

; 270  : 	if( dwIndex >= (DWORD)m_nMaxIndex )

  00021	73 20		 jae	 SHORT $LN40@RemoveFurn

; 271  : 		return NULL;
; 272  : 	return (T*) m_apOffset[ dwIndex ];

  00023	a1 30 02 00 00	 mov	 eax, DWORD PTR ?prj@@3VCProject@@A+560
  00028	8b 34 88	 mov	 esi, DWORD PTR [eax+ecx*4]
; File C:\IAGOS\server\v18\Source\Source\_Common\Project.h

; 1390 : 	return m_aPropItem.GetAt( nIndex ); 

  0002b	eb 18		 jmp	 SHORT $LN11@RemoveFurn
$LN16@RemoveFurn:

; 579  : 	LPCTSTR szErr = Error( _T( "%s min:%d, max:%d, index:%d" ), szMsg, nMin, nMax, nIndex ); 

  0002d	51		 push	 ecx
  0002e	50		 push	 eax
  0002f	6a 00		 push	 0
  00031	68 00 00 00 00	 push	 OFFSET ??_C@_0BI@BEIFNGEL@GetItemProp?5range_error@
  00036	68 00 00 00 00	 push	 OFFSET ??_C@_0BM@HMFGHCP@?$CFs?5min?3?$CFd?0?5max?3?$CFd?0?5index?3?$CFd@
  0003b	e8 00 00 00 00	 call	 ?Error@@YAPBDPBDZZ	; Error
  00040	83 c4 14	 add	 esp, 20			; 00000014H
$LN40@RemoveFurn:
; File C:\IAGOS\server\v18\Source\Source\_Common\Housing.cpp

; 359  : 	CWorld* pWorld = g_WorldMng.GetWorld( WI_WORLD_MINIROOM );

  00043	33 f6		 xor	 esi, esi
$LN11@RemoveFurn:
  00045	68 d1 00 00 00	 push	 209			; 000000d1H
  0004a	b9 00 00 00 00	 mov	 ecx, OFFSET ?g_WorldMng@@3VCWorldMng@@A ; g_WorldMng
  0004f	e8 00 00 00 00	 call	 ?GetWorld@CWorldMng@@QAEPAVCWorld@@K@Z ; CWorldMng::GetWorld

; 360  : 
; 361  : 	if( pWorld && pItemProp )

  00054	85 c0		 test	 eax, eax
  00056	74 62		 je	 SHORT $LN2@RemoveFurn
  00058	85 f6		 test	 esi, esi
  0005a	74 5e		 je	 SHORT $LN2@RemoveFurn

; 362  : 	{
; 363  : 		if( pWorld->m_linkMap.GetLinkMap( static_cast<int>( m_dwMasterId ) ) )

  0005c	ff 77 04	 push	 DWORD PTR [edi+4]
  0005f	8d 48 24	 lea	 ecx, DWORD PTR [eax+36]
  00062	e8 00 00 00 00	 call	 ?GetLinkMap@CLayeredLinkMap@@QAEPAVCLinkMap@@H@Z ; CLayeredLinkMap::GetLinkMap
  00067	85 c0		 test	 eax, eax
  00069	74 40		 je	 SHORT $LN6@RemoveFurn

; 364  : 		{
; 365  : 			if( pItemProp->dwItemKind2 == IK2_PAPERING )	// ş®Áö, ŔĺĆÇ(ÄÁĆ®·ŃŔ» »ýĽşÇĎÁö ľĘ°í Á¤ş¸¸¦ Ĺ¬¶óżˇ Ŕü´Ţ)

  0006b	83 7e 74 23	 cmp	 DWORD PTR [esi+116], 35	; 00000023H
  0006f	75 13		 jne	 SHORT $LN4@RemoveFurn

; 366  : 			{
; 367  : 				g_UserMng.AddHousingPaperingInfo( pItemProp->dwID, FALSE, m_dwMasterId );

  00071	ff 77 04	 push	 DWORD PTR [edi+4]
  00074	b9 00 00 00 00	 mov	 ecx, OFFSET ?g_UserMng@@3VCUserMng@@A ; g_UserMng
  00079	6a 00		 push	 0
  0007b	ff 36		 push	 DWORD PTR [esi]
  0007d	e8 00 00 00 00	 call	 ?AddHousingPaperingInfo@CUserMng@@QAEXKHK@Z ; CUserMng::AddHousingPaperingInfo

; 368  : 			}

  00082	eb 27		 jmp	 SHORT $LN6@RemoveFurn
$LN4@RemoveFurn:
; File C:\Program Files\Microsoft Visual Studio\2022\Professional\VC\Tools\MSVC\14.44.35207\include\vector

; 1934 :         return _My_data._Myfirst[_Pos];

  00084	8b 47 08	 mov	 eax, DWORD PTR [edi+8]
; File C:\IAGOS\server\v18\Source\Source\_Common\Housing.cpp

; 371  : 				CCtrl* pCtrl = prj.GetCtrl( m_vecHousingInfo[nIndex].objId );

  00087	b9 00 00 00 00	 mov	 ecx, OFFSET ?prj@@3VCProject@@A ; prj
  0008c	ff 74 18 1c	 push	 DWORD PTR [eax+ebx+28]
  00090	e8 00 00 00 00	 call	 ?GetCtrl@CProject@@QAEPAVCCtrl@@K@Z ; CProject::GetCtrl

; 372  : 				if( pCtrl )

  00095	85 c0		 test	 eax, eax
  00097	74 12		 je	 SHORT $LN6@RemoveFurn

; 373  : 				{
; 374  : 					pCtrl->Delete();

  00099	8b c8		 mov	 ecx, eax
  0009b	e8 00 00 00 00	 call	 ?Delete@CObj@@QAEXXZ	; CObj::Delete

; 375  : 					m_vecHousingInfo[nIndex].objId = NULL_ID;

  000a0	8b 47 08	 mov	 eax, DWORD PTR [edi+8]
  000a3	c7 44 03 1c ff
	ff ff ff	 mov	 DWORD PTR [ebx+eax+28], -1
$LN6@RemoveFurn:

; 376  : 				}
; 377  : 			}
; 378  : 		}
; 379  : 		
; 380  : 		SetBuff( m_vecHousingInfo[nIndex].dwItemId, FALSE );

  000ab	8b 47 08	 mov	 eax, DWORD PTR [edi+8]
  000ae	8b cf		 mov	 ecx, edi
  000b0	6a 00		 push	 0
  000b2	ff 34 03	 push	 DWORD PTR [ebx+eax]
  000b5	e8 00 00 00 00	 call	 ?SetBuff@CHousing@@QAEXKH@Z ; CHousing::SetBuff
$LN2@RemoveFurn:

; 381  : 	}
; 382  : 
; 383  : }

  000ba	5f		 pop	 edi
  000bb	5e		 pop	 esi
  000bc	5b		 pop	 ebx
  000bd	5d		 pop	 ebp
  000be	c2 04 00	 ret	 4
?RemoveFurnitureControl@CHousing@@QAEXH@Z ENDP		; CHousing::RemoveFurnitureControl
_TEXT	ENDS
; Function compile flags: /Ogtp
; File C:\IAGOS\server\v18\Source\Source\_Common\Housing.cpp
; File C:\Program Files\Microsoft Visual Studio\2022\Professional\VC\Tools\MSVC\14.44.35207\include\vector
; File C:\IAGOS\server\v18\Source\Source\_Common\Housing.cpp
; File C:\Program Files\Microsoft Visual Studio\2022\Professional\VC\Tools\MSVC\14.44.35207\include\vector
; File C:\IAGOS\server\v18\Source\Source\_Common\Housing.cpp
; File C:\IAGOS\server\v18\Source\Source\_Common\Project.h
; File C:\IAGOS\server\v18\Source\Source\_Common\data.h
; File C:\IAGOS\server\v18\Source\Source\_Common\Project.h
; File C:\IAGOS\server\v18\Source\Source\_Common\Housing.cpp
;	COMDAT ?AddFurnitureControl@CHousing@@QAEHH@Z
_TEXT	SEGMENT
_nIndex$ = 8						; size = 4
_pWorld$1$ = 8						; size = 4
?AddFurnitureControl@CHousing@@QAEHH@Z PROC		; CHousing::AddFurnitureControl, COMDAT
; _this$ = ecx

; 319  : {

  00000	55		 push	 ebp
  00001	8b ec		 mov	 ebp, esp
  00003	53		 push	 ebx
; File C:\Program Files\Microsoft Visual Studio\2022\Professional\VC\Tools\MSVC\14.44.35207\include\vector

; 1934 :         return _My_data._Myfirst[_Pos];

  00004	8b 5d 08	 mov	 ebx, DWORD PTR _nIndex$[ebp]
; File C:\IAGOS\server\v18\Source\Source\_Common\Housing.cpp

; 319  : {

  00007	56		 push	 esi
  00008	57		 push	 edi
  00009	8b f9		 mov	 edi, ecx
; File C:\Program Files\Microsoft Visual Studio\2022\Professional\VC\Tools\MSVC\14.44.35207\include\vector

; 1934 :         return _My_data._Myfirst[_Pos];

  0000b	c1 e3 05	 shl	 ebx, 5
; File C:\IAGOS\server\v18\Source\Source\_Common\Housing.cpp

; 320  : 	ItemProp* pItemProp = prj.GetItemProp( m_vecHousingInfo[nIndex].dwItemId );

  0000e	8b 47 08	 mov	 eax, DWORD PTR [edi+8]
  00011	8b 14 03	 mov	 edx, DWORD PTR [ebx+eax]
; File C:\IAGOS\server\v18\Source\Source\_Common\Project.h

; 1389 : 	VERIFY_RANGE_ASSERT( nIndex, 0, m_aPropItem.GetSize(), "GetItemProp range_error", NULL );

  00014	a1 40 02 00 00	 mov	 eax, DWORD PTR ?prj@@3VCProject@@A+576
  00019	85 d2		 test	 edx, edx
  0001b	78 10		 js	 SHORT $LN18@AddFurnitu
  0001d	3b d0		 cmp	 edx, eax
  0001f	7d 0c		 jge	 SHORT $LN18@AddFurnitu
; File C:\IAGOS\server\v18\Source\Source\_Common\data.h

; 270  : 	if( dwIndex >= (DWORD)m_nMaxIndex )

  00021	73 20		 jae	 SHORT $LN48@AddFurnitu

; 271  : 		return NULL;
; 272  : 	return (T*) m_apOffset[ dwIndex ];

  00023	a1 30 02 00 00	 mov	 eax, DWORD PTR ?prj@@3VCProject@@A+560
  00028	8b 34 90	 mov	 esi, DWORD PTR [eax+edx*4]
; File C:\IAGOS\server\v18\Source\Source\_Common\Project.h

; 1390 : 	return m_aPropItem.GetAt( nIndex ); 

  0002b	eb 18		 jmp	 SHORT $LN13@AddFurnitu
$LN18@AddFurnitu:

; 579  : 	LPCTSTR szErr = Error( _T( "%s min:%d, max:%d, index:%d" ), szMsg, nMin, nMax, nIndex ); 

  0002d	52		 push	 edx
  0002e	50		 push	 eax
  0002f	6a 00		 push	 0
  00031	68 00 00 00 00	 push	 OFFSET ??_C@_0BI@BEIFNGEL@GetItemProp?5range_error@
  00036	68 00 00 00 00	 push	 OFFSET ??_C@_0BM@HMFGHCP@?$CFs?5min?3?$CFd?0?5max?3?$CFd?0?5index?3?$CFd@
  0003b	e8 00 00 00 00	 call	 ?Error@@YAPBDPBDZZ	; Error
  00040	83 c4 14	 add	 esp, 20			; 00000014H
$LN48@AddFurnitu:
; File C:\IAGOS\server\v18\Source\Source\_Common\Housing.cpp

; 321  : 	CWorld* pWorld = g_WorldMng.GetWorld( WI_WORLD_MINIROOM );

  00043	33 f6		 xor	 esi, esi
$LN13@AddFurnitu:
  00045	68 d1 00 00 00	 push	 209			; 000000d1H
  0004a	b9 00 00 00 00	 mov	 ecx, OFFSET ?g_WorldMng@@3VCWorldMng@@A ; g_WorldMng
  0004f	e8 00 00 00 00	 call	 ?GetWorld@CWorldMng@@QAEPAVCWorld@@K@Z ; CWorldMng::GetWorld
  00054	89 45 08	 mov	 DWORD PTR _pWorld$1$[ebp], eax

; 322  : 
; 323  : 	if( pWorld && pItemProp )

  00057	85 c0		 test	 eax, eax
  00059	0f 84 b1 00 00
	00		 je	 $LN2@AddFurnitu
  0005f	85 f6		 test	 esi, esi
  00061	0f 84 a9 00 00
	00		 je	 $LN2@AddFurnitu

; 324  : 	{
; 325  : 		// ·ąŔĚľî°ˇ Á¸ŔçÇĎ´ÂÁö Č®ŔÎÇĎ°í °ˇ±¸ ÄÁĆ®·Ń »ýĽş...
; 326  : 		if( pWorld->m_linkMap.GetLinkMap( static_cast<int>( m_dwMasterId ) ) )

  00067	ff 77 04	 push	 DWORD PTR [edi+4]
  0006a	8d 48 24	 lea	 ecx, DWORD PTR [eax+36]
  0006d	e8 00 00 00 00	 call	 ?GetLinkMap@CLayeredLinkMap@@QAEPAVCLinkMap@@H@Z ; CLayeredLinkMap::GetLinkMap
  00072	85 c0		 test	 eax, eax
  00074	0f 84 96 00 00
	00		 je	 $LN2@AddFurnitu

; 327  : 		{
; 328  : 			if( pItemProp->dwItemKind2 == IK2_PAPERING )	// ş®Áö, ŔĺĆÇ(ÄÁĆ®·ŃŔ» »ýĽşÇĎÁö ľĘ°í Á¤ş¸¸¦ Ĺ¬¶óżˇ Ŕü´Ţ)

  0007a	83 7e 74 23	 cmp	 DWORD PTR [esi+116], 35	; 00000023H
  0007e	75 13		 jne	 SHORT $LN6@AddFurnitu

; 329  : 			{
; 330  : 				g_UserMng.AddHousingPaperingInfo( pItemProp->dwID, TRUE, m_dwMasterId );

  00080	ff 77 04	 push	 DWORD PTR [edi+4]
  00083	b9 00 00 00 00	 mov	 ecx, OFFSET ?g_UserMng@@3VCUserMng@@A ; g_UserMng
  00088	6a 01		 push	 1
  0008a	ff 36		 push	 DWORD PTR [esi]
  0008c	e8 00 00 00 00	 call	 ?AddHousingPaperingInfo@CUserMng@@QAEXKHK@Z ; CUserMng::AddHousingPaperingInfo

; 331  : 			}

  00091	eb 62		 jmp	 SHORT $LN7@AddFurnitu
$LN6@AddFurnitu:

; 332  : 			else
; 333  : 			{
; 334  : 				CCtrl* pCtrl	= (CCtrl*)CreateObj( D3DDEVICE, OT_CTRL, pItemProp->dwLinkKind );

  00093	6a 01		 push	 1
  00095	ff b6 e0 00 00
	00		 push	 DWORD PTR [esi+224]
  0009b	6a 02		 push	 2
  0009d	6a 00		 push	 0
  0009f	e8 00 00 00 00	 call	 ?CreateObj@@YAPAVCObj@@PAUIDirect3DDevice9@@KKH@Z ; CreateObj
  000a4	8b f0		 mov	 esi, eax
  000a6	83 c4 10	 add	 esp, 16			; 00000010H

; 335  : 				if( !pCtrl )

  000a9	85 f6		 test	 esi, esi
  000ab	74 63		 je	 SHORT $LN2@AddFurnitu

; 336  : 					return FALSE;
; 337  : 
; 338  : 				pCtrl->SetPos( m_vecHousingInfo[nIndex].vPos );

  000ad	8b 4f 08	 mov	 ecx, DWORD PTR [edi+8]
  000b0	83 c1 0c	 add	 ecx, 12			; 0000000cH
  000b3	03 cb		 add	 ecx, ebx
  000b5	51		 push	 ecx
  000b6	8b ce		 mov	 ecx, esi
  000b8	e8 00 00 00 00	 call	 ?SetPos@CObj@@QAEXABUD3DXVECTOR3@@@Z ; CObj::SetPos

; 339  : 				pCtrl->SetAngle( m_vecHousingInfo[nIndex].fAngle );

  000bd	8b 4f 08	 mov	 ecx, DWORD PTR [edi+8]
  000c0	51		 push	 ecx
  000c1	f3 0f 10 44 19
	18		 movss	 xmm0, DWORD PTR [ecx+ebx+24]
  000c7	8b ce		 mov	 ecx, esi
  000c9	f3 0f 11 04 24	 movss	 DWORD PTR [esp], xmm0
  000ce	e8 00 00 00 00	 call	 ?SetAngle@CObj@@QAEXM@Z	; CObj::SetAngle

; 340  : 				pCtrl->AddItToGlobalId();

  000d3	8b 06		 mov	 eax, DWORD PTR [esi]
  000d5	8b ce		 mov	 ecx, esi
  000d7	ff 50 3c	 call	 DWORD PTR [eax+60]

; 341  : 				m_vecHousingInfo[nIndex].objId = pCtrl->GetId();

  000da	8b 4f 08	 mov	 ecx, DWORD PTR [edi+8]
  000dd	8b 86 bc 01 00
	00		 mov	 eax, DWORD PTR [esi+444]
  000e3	89 44 19 1c	 mov	 DWORD PTR [ecx+ebx+28], eax

; 342  : 				pWorld->ADDOBJ( pCtrl, FALSE, static_cast<int>( m_dwMasterId ) );

  000e7	ff 77 04	 push	 DWORD PTR [edi+4]
  000ea	8b 4d 08	 mov	 ecx, DWORD PTR _pWorld$1$[ebp]
  000ed	6a 00		 push	 0
  000ef	56		 push	 esi
  000f0	e8 00 00 00 00	 call	 ?AddObj@CWorld@@QAEHPAVCObj@@HH@Z ; CWorld::AddObj
$LN7@AddFurnitu:

; 343  : 			}
; 344  : 		}
; 345  : 		else
; 346  : 			return FALSE;
; 347  : 		
; 348  : 		SetBuff( m_vecHousingInfo[nIndex].dwItemId, TRUE );

  000f5	8b 47 08	 mov	 eax, DWORD PTR [edi+8]
  000f8	8b cf		 mov	 ecx, edi
  000fa	6a 01		 push	 1
  000fc	ff 34 18	 push	 DWORD PTR [eax+ebx]
  000ff	e8 00 00 00 00	 call	 ?SetBuff@CHousing@@QAEXKH@Z ; CHousing::SetBuff
  00104	5f		 pop	 edi

; 349  : 	}
; 350  : 	else
; 351  : 		return FALSE;
; 352  : 	
; 353  : 	return TRUE;
; 354  : }

  00105	5e		 pop	 esi
  00106	b8 01 00 00 00	 mov	 eax, 1
  0010b	5b		 pop	 ebx
  0010c	5d		 pop	 ebp
  0010d	c2 04 00	 ret	 4
$LN2@AddFurnitu:
  00110	5f		 pop	 edi
  00111	5e		 pop	 esi
  00112	33 c0		 xor	 eax, eax
  00114	5b		 pop	 ebx
  00115	5d		 pop	 ebp
  00116	c2 04 00	 ret	 4
?AddFurnitureControl@CHousing@@QAEHH@Z ENDP		; CHousing::AddFurnitureControl
_TEXT	ENDS
; Function compile flags: /Ogtp
; File C:\IAGOS\server\v18\Source\Source\_Common\Housing.cpp
; File C:\Program Files\Microsoft Visual Studio\2022\Professional\VC\Tools\MSVC\14.44.35207\include\vector
; File C:\IAGOS\server\v18\Source\Source\_Common\Housing.cpp
; File C:\Program Files\Microsoft Visual Studio\2022\Professional\VC\Tools\MSVC\14.44.35207\include\vector
; File C:\IAGOS\server\v18\Source\Source\_Common\Housing.cpp
;	COMDAT ?IsAllowVisit@CHousing@@QAEHK@Z
_TEXT	SEGMENT
_dwPlayerId$ = 8					; size = 4
?IsAllowVisit@CHousing@@QAEHK@Z PROC			; CHousing::IsAllowVisit, COMDAT
; _this$ = ecx

; 303  : {

  00000	55		 push	 ebp
  00001	8b ec		 mov	 ebp, esp
  00003	56		 push	 esi

; 304  : 	// ŔÚ±â ąćŔĚ¸é ŔÔŔĺ °ˇ´É
; 305  : 	if( m_dwMasterId == dwPlayerId )

  00004	8b 75 08	 mov	 esi, DWORD PTR _dwPlayerId$[ebp]
  00007	39 71 04	 cmp	 DWORD PTR [ecx+4], esi
  0000a	74 27		 je	 SHORT $LN15@IsAllowVis
; File C:\Program Files\Microsoft Visual Studio\2022\Professional\VC\Tools\MSVC\14.44.35207\include\vector

; 1915 :         return static_cast<size_type>(_My_data._Mylast - _My_data._Myfirst);

  0000c	8b 41 14	 mov	 eax, DWORD PTR [ecx+20]
; File C:\IAGOS\server\v18\Source\Source\_Common\Housing.cpp

; 309  : 	for( DWORD i=0; i<m_vecIdVisitAllow.size(); i++ )

  0000f	33 d2		 xor	 edx, edx
; File C:\Program Files\Microsoft Visual Studio\2022\Professional\VC\Tools\MSVC\14.44.35207\include\vector

; 1915 :         return static_cast<size_type>(_My_data._Mylast - _My_data._Myfirst);

  00011	8b 49 18	 mov	 ecx, DWORD PTR [ecx+24]
  00014	2b c8		 sub	 ecx, eax
  00016	c1 f9 02	 sar	 ecx, 2
; File C:\IAGOS\server\v18\Source\Source\_Common\Housing.cpp

; 309  : 	for( DWORD i=0; i<m_vecIdVisitAllow.size(); i++ )

  00019	85 c9		 test	 ecx, ecx
  0001b	74 0f		 je	 SHORT $LN3@IsAllowVis
  0001d	0f 1f 00	 npad	 3
$LL4@IsAllowVis:

; 310  : 	{
; 311  : 		if( m_vecIdVisitAllow[i] == dwPlayerId )

  00020	39 30		 cmp	 DWORD PTR [eax], esi
  00022	74 0f		 je	 SHORT $LN15@IsAllowVis

; 309  : 	for( DWORD i=0; i<m_vecIdVisitAllow.size(); i++ )

  00024	42		 inc	 edx
  00025	83 c0 04	 add	 eax, 4
  00028	3b d1		 cmp	 edx, ecx
  0002a	72 f4		 jb	 SHORT $LL4@IsAllowVis
$LN3@IsAllowVis:

; 313  : 	}
; 314  : 
; 315  : 	return FALSE;

  0002c	33 c0		 xor	 eax, eax
  0002e	5e		 pop	 esi

; 316  : }

  0002f	5d		 pop	 ebp
  00030	c2 04 00	 ret	 4
$LN15@IsAllowVis:

; 312  : 			return TRUE;

  00033	b8 01 00 00 00	 mov	 eax, 1
  00038	5e		 pop	 esi

; 316  : }

  00039	5d		 pop	 ebp
  0003a	c2 04 00	 ret	 4
?IsAllowVisit@CHousing@@QAEHK@Z ENDP			; CHousing::IsAllowVisit
_TEXT	ENDS
; Function compile flags: /Ogtp
; File C:\IAGOS\server\v18\Source\Source\_Common\Housing.cpp
; File C:\Program Files\Microsoft Visual Studio\2022\Professional\VC\Tools\MSVC\14.44.35207\include\vector
; File C:\IAGOS\server\v18\Source\Source\_Common\Housing.cpp
; File C:\Program Files\Microsoft Visual Studio\2022\Professional\VC\Tools\MSVC\14.44.35207\include\vector
; File C:\IAGOS\server\v18\Source\Source\_Common\Housing.cpp
; File C:\Program Files\Microsoft Visual Studio\2022\Professional\VC\Tools\MSVC\14.44.35207\include\vector
; File C:\IAGOS\server\v18\Source\Source\_Common\Housing.cpp
; File C:\IAGOS\server\v18\Source\Source\_Common\Project.h
; File C:\IAGOS\server\v18\Source\Source\_Common\data.h
; File C:\IAGOS\server\v18\Source\Source\_Common\Housing.cpp
; File C:\IAGOS\server\v18\Source\Source\_Common\Project.h
; File C:\IAGOS\server\v18\Source\Source\_Common\Housing.cpp
; File C:\Program Files\Microsoft Visual Studio\2022\Professional\VC\Tools\MSVC\14.44.35207\include\vector
; File C:\IAGOS\server\v18\Source\Source\_Common\Housing.cpp
; File C:\Program Files\Microsoft Visual Studio\2022\Professional\VC\Tools\MSVC\14.44.35207\include\vector
; File C:\IAGOS\server\v18\Source\Source\_Common\Housing.cpp
; File C:\Program Files\Microsoft Visual Studio\2022\Professional\VC\Tools\MSVC\14.44.35207\include\vector
; File C:\IAGOS\server\v18\Source\Source\_Common\Housing.cpp
; File C:\Program Files\Microsoft Visual Studio\2022\Professional\VC\Tools\MSVC\14.44.35207\include\vector
; File C:\IAGOS\server\v18\Source\Source\_Common\Housing.cpp
;	COMDAT ?IsSetupAble@CHousing@@QAEHPAVCUser@@UHOUSINGINFO@@@Z
_TEXT	SEGMENT
_this$1$ = -20						; size = 4
_pItemPropReq$1$ = -16					; size = 4
_i$1$ = -12						; size = 4
_nCount$1$ = -8						; size = 4
tv441 = -4						; size = 4
_pUser$ = 8						; size = 4
_housingInfo$ = 12					; size = 32
?IsSetupAble@CHousing@@QAEHPAVCUser@@UHOUSINGINFO@@@Z PROC ; CHousing::IsSetupAble, COMDAT
; _this$ = ecx

; 247  : {

  00000	55		 push	 ebp
  00001	8b ec		 mov	 ebp, esp
  00003	83 ec 14	 sub	 esp, 20			; 00000014H
  00006	53		 push	 ebx
  00007	8b d9		 mov	 ebx, ecx
  00009	56		 push	 esi
  0000a	57		 push	 edi
  0000b	89 5d ec	 mov	 DWORD PTR _this$1$[ebp], ebx

; 248  : 	if( m_bSetting )

  0000e	83 3b 00	 cmp	 DWORD PTR [ebx], 0
  00011	0f 85 4d 01 00
	00		 jne	 $LN9@IsSetupAbl

; 249  : 		return FALSE;
; 250  : 
; 251  : 	// ÇĂ·ąŔĚľî°ˇ ąćżˇ ŔÖľîľß ÇĎ°í ŔÚ˝ĹŔÇ ·ąŔĚľîżˇ µéľî°ˇ ŔÖ´Â °ćżě¸¸ °ˇ´É...
; 252  : 	CWorld* pWorld = pUser->GetWorld();

  00017	8b 7d 08	 mov	 edi, DWORD PTR _pUser$[ebp]
  0001a	8b 87 6c 01 00
	00		 mov	 eax, DWORD PTR [edi+364]

; 253  : 	if( !pWorld || ( pWorld->GetID() != WI_WORLD_MINIROOM ) 
; 254  : 		|| ( pUser->GetLayer() != static_cast<int>( pUser->m_idPlayer ) ) )

  00020	85 c0		 test	 eax, eax
  00022	0f 84 3c 01 00
	00		 je	 $LN9@IsSetupAbl
  00028	81 38 d1 00 00
	00		 cmp	 DWORD PTR [eax], 209	; 000000d1H
  0002e	0f 85 30 01 00
	00		 jne	 $LN9@IsSetupAbl
  00034	8b 87 b8 01 00
	00		 mov	 eax, DWORD PTR [edi+440]
  0003a	3b 87 34 02 00
	00		 cmp	 eax, DWORD PTR [edi+564]
  00040	0f 85 1e 01 00
	00		 jne	 $LN9@IsSetupAbl

; 255  : 		return FALSE;
; 256  : 	
; 257  : 	// ÇŘ´ç °ˇ±¸°ˇ ¸ń·Ďżˇ ŔÖ°í ŔĚąĚ ĽłÄˇµÇľî ŔÖ´ÂÁö Č®ŔÎ...
; 258  : 	int nIndex = GetIndexFromList( housingInfo.dwItemId );

  00046	8b 75 0c	 mov	 esi, DWORD PTR _housingInfo$[ebp]
  00049	56		 push	 esi
  0004a	e8 00 00 00 00	 call	 ?GetIndexFromList@CHousing@@AAEHK@Z ; CHousing::GetIndexFromList

; 259  : 	if( nIndex == NULL_ID )

  0004f	83 f8 ff	 cmp	 eax, -1
  00052	0f 84 0c 01 00
	00		 je	 $LN9@IsSetupAbl

; 262  : 	if( m_vecHousingInfo[nIndex].bSetup == housingInfo.bSetup )

  00058	8b 4b 08	 mov	 ecx, DWORD PTR [ebx+8]
; File C:\Program Files\Microsoft Visual Studio\2022\Professional\VC\Tools\MSVC\14.44.35207\include\vector

; 1934 :         return _My_data._Myfirst[_Pos];

  0005b	c1 e0 05	 shl	 eax, 5
; File C:\IAGOS\server\v18\Source\Source\_Common\Housing.cpp

; 262  : 	if( m_vecHousingInfo[nIndex].bSetup == housingInfo.bSetup )

  0005e	8b 44 08 08	 mov	 eax, DWORD PTR [eax+ecx+8]
  00062	3b 45 14	 cmp	 eax, DWORD PTR _housingInfo$[ebp+8]
  00065	0f 84 f9 00 00
	00		 je	 $LN9@IsSetupAbl

; 263  : 		return FALSE;
; 264  : 	
; 265  : 	ItemProp* pItemPropReq = prj.GetItemProp( housingInfo.dwItemId );

  0006b	56		 push	 esi
  0006c	b9 00 00 00 00	 mov	 ecx, OFFSET ?prj@@3VCProject@@A ; prj
  00071	e8 00 00 00 00	 call	 ?GetItemProp@CProject@@QAEPAUItemProp@@H@Z ; CProject::GetItemProp
  00076	89 45 f0	 mov	 DWORD PTR _pItemPropReq$1$[ebp], eax

; 266  : 	if( !pItemPropReq )

  00079	85 c0		 test	 eax, eax
  0007b	0f 84 e3 00 00
	00		 je	 $LN9@IsSetupAbl
; File C:\Program Files\Microsoft Visual Studio\2022\Professional\VC\Tools\MSVC\14.44.35207\include\vector

; 1915 :         return static_cast<size_type>(_My_data._Mylast - _My_data._Myfirst);

  00081	8b 4b 0c	 mov	 ecx, DWORD PTR [ebx+12]
; File C:\IAGOS\server\v18\Source\Source\_Common\Housing.cpp

; 270  : 	int nCount = 0;	

  00084	33 d2		 xor	 edx, edx
; File C:\Program Files\Microsoft Visual Studio\2022\Professional\VC\Tools\MSVC\14.44.35207\include\vector

; 1915 :         return static_cast<size_type>(_My_data._Mylast - _My_data._Myfirst);

  00086	8b 73 08	 mov	 esi, DWORD PTR [ebx+8]
  00089	2b ce		 sub	 ecx, esi
  0008b	c1 f9 05	 sar	 ecx, 5
; File C:\IAGOS\server\v18\Source\Source\_Common\Housing.cpp

; 270  : 	int nCount = 0;	

  0008e	89 55 f8	 mov	 DWORD PTR _nCount$1$[ebp], edx

; 271  : 	for( DWORD i=0; i<m_vecHousingInfo.size(); i++ )

  00091	89 55 f4	 mov	 DWORD PTR _i$1$[ebp], edx
  00094	85 c9		 test	 ecx, ecx
  00096	0f 84 a9 00 00
	00		 je	 $LN3@IsSetupAbl
  0009c	8b 4b 0c	 mov	 ecx, DWORD PTR [ebx+12]
  0009f	33 c0		 xor	 eax, eax
  000a1	8b 1d 40 02 00
	00		 mov	 ebx, DWORD PTR ?prj@@3VCProject@@A+576
  000a7	89 45 fc	 mov	 DWORD PTR tv441[ebp], eax
  000aa	66 0f 1f 44 00
	00		 npad	 6
$LL4@IsSetupAbl:

; 272  : 	{
; 273  : 		if( housingInfo.bSetup && m_vecHousingInfo[i].bSetup )

  000b0	83 7d 14 00	 cmp	 DWORD PTR _housingInfo$[ebp+8], 0
  000b4	8b f9		 mov	 edi, ecx
  000b6	8b d6		 mov	 edx, esi
  000b8	74 63		 je	 SHORT $LN2@IsSetupAbl
  000ba	83 7c 30 08 00	 cmp	 DWORD PTR [eax+esi+8], 0
  000bf	74 5c		 je	 SHORT $LN2@IsSetupAbl

; 275  : 			ItemProp* pItemProp = prj.GetItemProp( m_vecHousingInfo[i].dwItemId );

  000c1	8b 0c 30	 mov	 ecx, DWORD PTR [eax+esi]
; File C:\IAGOS\server\v18\Source\Source\_Common\Project.h

; 1389 : 	VERIFY_RANGE_ASSERT( nIndex, 0, m_aPropItem.GetSize(), "GetItemProp range_error", NULL );

  000c4	85 c9		 test	 ecx, ecx
  000c6	78 30		 js	 SHORT $LN37@IsSetupAbl
  000c8	3b cb		 cmp	 ecx, ebx
  000ca	7d 2c		 jge	 SHORT $LN37@IsSetupAbl
; File C:\IAGOS\server\v18\Source\Source\_Common\data.h

; 270  : 	if( dwIndex >= (DWORD)m_nMaxIndex )

  000cc	72 04		 jb	 SHORT $LN42@IsSetupAbl

; 271  : 		return NULL;

  000ce	33 c0		 xor	 eax, eax
  000d0	eb 08		 jmp	 SHORT $LN41@IsSetupAbl
$LN42@IsSetupAbl:

; 272  : 	return (T*) m_apOffset[ dwIndex ];

  000d2	a1 30 02 00 00	 mov	 eax, DWORD PTR ?prj@@3VCProject@@A+560
  000d7	8b 04 88	 mov	 eax, DWORD PTR [eax+ecx*4]
$LN41@IsSetupAbl:
; File C:\IAGOS\server\v18\Source\Source\_Common\Housing.cpp

; 275  : 			ItemProp* pItemProp = prj.GetItemProp( m_vecHousingInfo[i].dwItemId );

  000da	8b d6		 mov	 edx, esi
  000dc	8b cf		 mov	 ecx, edi

; 276  : 			if( pItemProp && pItemProp->dwItemKind3 == pItemPropReq->dwItemKind3 )

  000de	85 c0		 test	 eax, eax
  000e0	74 3b		 je	 SHORT $LN2@IsSetupAbl
  000e2	8b 5d f0	 mov	 ebx, DWORD PTR _pItemPropReq$1$[ebp]
  000e5	8b 40 78	 mov	 eax, DWORD PTR [eax+120]
  000e8	3b 43 78	 cmp	 eax, DWORD PTR [ebx+120]
  000eb	8b 1d 40 02 00
	00		 mov	 ebx, DWORD PTR ?prj@@3VCProject@@A+576
  000f1	75 2a		 jne	 SHORT $LN2@IsSetupAbl

; 277  : 				nCount++;

  000f3	ff 45 f8	 inc	 DWORD PTR _nCount$1$[ebp]
  000f6	eb 25		 jmp	 SHORT $LN2@IsSetupAbl
$LN37@IsSetupAbl:
; File C:\IAGOS\server\v18\Source\Source\_Common\Project.h

; 579  : 	LPCTSTR szErr = Error( _T( "%s min:%d, max:%d, index:%d" ), szMsg, nMin, nMax, nIndex ); 

  000f8	51		 push	 ecx
  000f9	53		 push	 ebx
  000fa	6a 00		 push	 0
  000fc	68 00 00 00 00	 push	 OFFSET ??_C@_0BI@BEIFNGEL@GetItemProp?5range_error@
  00101	68 00 00 00 00	 push	 OFFSET ??_C@_0BM@HMFGHCP@?$CFs?5min?3?$CFd?0?5max?3?$CFd?0?5index?3?$CFd@
  00106	e8 00 00 00 00	 call	 ?Error@@YAPBDPBDZZ	; Error

; 1389 : 	VERIFY_RANGE_ASSERT( nIndex, 0, m_aPropItem.GetSize(), "GetItemProp range_error", NULL );

  0010b	8b 45 ec	 mov	 eax, DWORD PTR _this$1$[ebp]

; 579  : 	LPCTSTR szErr = Error( _T( "%s min:%d, max:%d, index:%d" ), szMsg, nMin, nMax, nIndex ); 

  0010e	83 c4 14	 add	 esp, 20			; 00000014H

; 1389 : 	VERIFY_RANGE_ASSERT( nIndex, 0, m_aPropItem.GetSize(), "GetItemProp range_error", NULL );

  00111	8b 1d 40 02 00
	00		 mov	 ebx, DWORD PTR ?prj@@3VCProject@@A+576
  00117	8b 50 08	 mov	 edx, DWORD PTR [eax+8]
  0011a	8b 48 0c	 mov	 ecx, DWORD PTR [eax+12]
$LN2@IsSetupAbl:
; File C:\IAGOS\server\v18\Source\Source\_Common\Housing.cpp

; 271  : 	for( DWORD i=0; i<m_vecHousingInfo.size(); i++ )

  0011d	8b 7d f4	 mov	 edi, DWORD PTR _i$1$[ebp]
; File C:\Program Files\Microsoft Visual Studio\2022\Professional\VC\Tools\MSVC\14.44.35207\include\vector

; 1915 :         return static_cast<size_type>(_My_data._Mylast - _My_data._Myfirst);

  00120	8b c1		 mov	 eax, ecx
; File C:\IAGOS\server\v18\Source\Source\_Common\Housing.cpp

; 271  : 	for( DWORD i=0; i<m_vecHousingInfo.size(); i++ )

  00122	83 45 fc 20	 add	 DWORD PTR tv441[ebp], 32 ; 00000020H
; File C:\Program Files\Microsoft Visual Studio\2022\Professional\VC\Tools\MSVC\14.44.35207\include\vector

; 1915 :         return static_cast<size_type>(_My_data._Mylast - _My_data._Myfirst);

  00126	2b c2		 sub	 eax, edx
; File C:\IAGOS\server\v18\Source\Source\_Common\Housing.cpp

; 271  : 	for( DWORD i=0; i<m_vecHousingInfo.size(); i++ )

  00128	47		 inc	 edi
; File C:\Program Files\Microsoft Visual Studio\2022\Professional\VC\Tools\MSVC\14.44.35207\include\vector

; 1915 :         return static_cast<size_type>(_My_data._Mylast - _My_data._Myfirst);

  00129	c1 f8 05	 sar	 eax, 5
; File C:\IAGOS\server\v18\Source\Source\_Common\Housing.cpp

; 271  : 	for( DWORD i=0; i<m_vecHousingInfo.size(); i++ )

  0012c	3b f8		 cmp	 edi, eax
  0012e	89 7d f4	 mov	 DWORD PTR _i$1$[ebp], edi
  00131	8b 45 fc	 mov	 eax, DWORD PTR tv441[ebp]
; File C:\Program Files\Microsoft Visual Studio\2022\Professional\VC\Tools\MSVC\14.44.35207\include\vector

; 1915 :         return static_cast<size_type>(_My_data._Mylast - _My_data._Myfirst);

  00134	8b f2		 mov	 esi, edx
; File C:\IAGOS\server\v18\Source\Source\_Common\Housing.cpp

; 271  : 	for( DWORD i=0; i<m_vecHousingInfo.size(); i++ )

  00136	0f 82 74 ff ff
	ff		 jb	 $LL4@IsSetupAbl
  0013c	8b 55 f8	 mov	 edx, DWORD PTR _nCount$1$[ebp]
  0013f	8b 7d 08	 mov	 edi, DWORD PTR _pUser$[ebp]
  00142	8b 45 f0	 mov	 eax, DWORD PTR _pItemPropReq$1$[ebp]
$LN3@IsSetupAbl:

; 278  : 		}
; 279  : 	}
; 280  : 	
; 281  : 	// ĂÖ´ë ¸î°ł ĽłÄˇ °ˇ´ÉÇŃ°ˇ?
; 282  : 	switch( pItemPropReq->dwItemKind3 )

  00145	81 78 78 82 00
	00 00		 cmp	 DWORD PTR [eax+120], 130 ; 00000082H
  0014c	75 05		 jne	 SHORT $LN16@IsSetupAbl

; 283  : 	{
; 284  : 		case IK3_PROPS :	// ĽŇÇ°Ŕş ĂÖ´ë 2
; 285  : 			if( nCount >= 2 )

  0014e	83 fa 02	 cmp	 edx, 2
  00151	7d 05		 jge	 SHORT $LN48@IsSetupAbl
$LN16@IsSetupAbl:

; 286  : 			{
; 287  : 				pUser->AddDefinedText( TID_GAME_HOUSING_INSTALL_FAIL02 );
; 288  : 				return FALSE;	
; 289  : 			}
; 290  : 
; 291  : 		default :	// ±×żÜ´Â 1°ł¸¸ ĽłÄˇ °ˇ´É
; 292  : 			if( nCount >= 1 )

  00153	83 fa 01	 cmp	 edx, 1
  00156	7c 17		 jl	 SHORT $LN18@IsSetupAbl
$LN48@IsSetupAbl:

; 293  : 			{
; 294  : 				pUser->AddDefinedText( TID_GAME_HOUSING_INSTALL_FAIL02 );

  00158	68 e4 0f 00 00	 push	 4068			; 00000fe4H
  0015d	8b cf		 mov	 ecx, edi
  0015f	e8 00 00 00 00	 call	 ?AddDefinedText@CUser@@QAEXH@Z ; CUser::AddDefinedText
$LN9@IsSetupAbl:

; 295  : 				return FALSE;	
; 296  : 			}
; 297  : 	}
; 298  : 
; 299  : 	return TRUE;
; 300  : }

  00164	5f		 pop	 edi
  00165	5e		 pop	 esi
  00166	33 c0		 xor	 eax, eax
  00168	5b		 pop	 ebx
  00169	8b e5		 mov	 esp, ebp
  0016b	5d		 pop	 ebp
  0016c	c2 24 00	 ret	 36			; 00000024H
$LN18@IsSetupAbl:
  0016f	5f		 pop	 edi
  00170	5e		 pop	 esi
  00171	b8 01 00 00 00	 mov	 eax, 1
  00176	5b		 pop	 ebx
  00177	8b e5		 mov	 esp, ebp
  00179	5d		 pop	 ebp
  0017a	c2 24 00	 ret	 36			; 00000024H
?IsSetupAble@CHousing@@QAEHPAVCUser@@UHOUSINGINFO@@@Z ENDP ; CHousing::IsSetupAble
_TEXT	ENDS
; Function compile flags: /Ogtp
; File C:\IAGOS\server\v18\Source\Source\_Common\Housing.cpp
; File C:\Program Files\Microsoft Visual Studio\2022\Professional\VC\Tools\MSVC\14.44.35207\include\vector
; File C:\IAGOS\server\v18\Source\Source\_Common\Housing.cpp
;	COMDAT ?IsListUpAble@CHousing@@QAEHPAVCUser@@K@Z
_TEXT	SEGMENT
_pUser$ = 8						; size = 4
_dwItemId$ = 12						; size = 4
?IsListUpAble@CHousing@@QAEHPAVCUser@@K@Z PROC		; CHousing::IsListUpAble, COMDAT
; _this$ = ecx

; 224  : {

  00000	55		 push	 ebp
  00001	8b ec		 mov	 ebp, esp

; 225  : 	if( m_bSetting )

  00003	83 39 00	 cmp	 DWORD PTR [ecx], 0
  00006	75 1d		 jne	 SHORT $LN28@IsListUpAb
; File C:\Program Files\Microsoft Visual Studio\2022\Professional\VC\Tools\MSVC\14.44.35207\include\vector

; 1915 :         return static_cast<size_type>(_My_data._Mylast - _My_data._Myfirst);

  00008	8b 51 0c	 mov	 edx, DWORD PTR [ecx+12]
  0000b	8b 41 08	 mov	 eax, DWORD PTR [ecx+8]
  0000e	2b d0		 sub	 edx, eax
  00010	c1 fa 05	 sar	 edx, 5
; File C:\IAGOS\server\v18\Source\Source\_Common\Housing.cpp

; 228  : 	if( m_vecHousingInfo.size() >= 99 )

  00013	83 fa 63	 cmp	 edx, 99			; 00000063H
  00016	72 13		 jb	 SHORT $LN6@IsListUpAb

; 229  : 	{
; 230  : 		pUser->AddDefinedText( TID_GAME_HOUSING_OVERMAX );

  00018	8b 4d 08	 mov	 ecx, DWORD PTR _pUser$[ebp]
  0001b	68 ea 0f 00 00	 push	 4074			; 00000feaH
  00020	e8 00 00 00 00	 call	 ?AddDefinedText@CUser@@QAEXH@Z ; CUser::AddDefinedText
$LN28@IsListUpAb:

; 244  : }

  00025	33 c0		 xor	 eax, eax
  00027	5d		 pop	 ebp
  00028	c2 08 00	 ret	 8
$LN6@IsListUpAb:

; 231  : 		return FALSE;
; 232  : 	}
; 233  : 
; 234  : 	for( DWORD i=0; i<m_vecHousingInfo.size(); i++ )

  0002b	33 c9		 xor	 ecx, ecx
  0002d	56		 push	 esi
  0002e	85 d2		 test	 edx, edx
  00030	74 0f		 je	 SHORT $LN3@IsListUpAb
  00032	8b 75 0c	 mov	 esi, DWORD PTR _dwItemId$[ebp]
$LL4@IsListUpAb:

; 235  : 	{
; 236  : 		if( m_vecHousingInfo[i].dwItemId == dwItemId )

  00035	39 30		 cmp	 DWORD PTR [eax], esi
  00037	74 12		 je	 SHORT $LN19@IsListUpAb

; 231  : 		return FALSE;
; 232  : 	}
; 233  : 
; 234  : 	for( DWORD i=0; i<m_vecHousingInfo.size(); i++ )

  00039	41		 inc	 ecx
  0003a	83 c0 20	 add	 eax, 32			; 00000020H
  0003d	3b ca		 cmp	 ecx, edx
  0003f	72 f4		 jb	 SHORT $LL4@IsListUpAb
$LN3@IsListUpAb:

; 240  : 		}
; 241  : 	}
; 242  : 
; 243  : 	return TRUE;

  00041	b8 01 00 00 00	 mov	 eax, 1
  00046	5e		 pop	 esi

; 244  : }

  00047	5d		 pop	 ebp
  00048	c2 08 00	 ret	 8
$LN19@IsListUpAb:

; 237  : 		{
; 238  : 			pUser->AddDefinedText( TID_GAME_HOUSING_ADDITION_FAIL );

  0004b	8b 4d 08	 mov	 ecx, DWORD PTR _pUser$[ebp]
  0004e	68 e1 0f 00 00	 push	 4065			; 00000fe1H
  00053	e8 00 00 00 00	 call	 ?AddDefinedText@CUser@@QAEXH@Z ; CUser::AddDefinedText

; 239  : 			return FALSE;

  00058	33 c0		 xor	 eax, eax
  0005a	5e		 pop	 esi

; 244  : }

  0005b	5d		 pop	 ebp
  0005c	c2 08 00	 ret	 8
?IsListUpAble@CHousing@@QAEHPAVCUser@@K@Z ENDP		; CHousing::IsListUpAble
_TEXT	ENDS
; Function compile flags: /Ogtp
; File C:\IAGOS\server\v18\Source\Source\_Common\Housing.cpp
; File C:\Program Files\Microsoft Visual Studio\2022\Professional\VC\Tools\MSVC\14.44.35207\include\vector
; File C:\IAGOS\server\v18\Source\Source\_Common\Housing.cpp
; File C:\Program Files\Microsoft Visual Studio\2022\Professional\VC\Tools\MSVC\14.44.35207\include\vector
; File C:\IAGOS\server\v18\Source\Source\_Common\Housing.cpp
; File C:\Program Files\Microsoft Visual Studio\2022\Professional\VC\Tools\MSVC\14.44.35207\include\vector
; File C:\IAGOS\server\v18\Source\Source\_Common\Housing.cpp
; File C:\Program Files\Microsoft Visual Studio\2022\Professional\VC\Tools\MSVC\14.44.35207\include\xutility
; File C:\Program Files\Microsoft Visual Studio\2022\Professional\VC\Tools\MSVC\14.44.35207\include\vector
; File C:\IAGOS\server\v18\Source\Source\_Common\Housing.cpp
; File C:\Program Files\Microsoft Visual Studio\2022\Professional\VC\Tools\MSVC\14.44.35207\include\xtree
; File C:\Program Files\Microsoft Visual Studio\2022\Professional\VC\Tools\MSVC\14.44.35207\include\type_traits
; File C:\Program Files\Microsoft Visual Studio\2022\Professional\VC\Tools\MSVC\14.44.35207\include\xtree
; File C:\Program Files\Microsoft Visual Studio\2022\Professional\VC\Tools\MSVC\14.44.35207\include\type_traits
; File C:\Program Files\Microsoft Visual Studio\2022\Professional\VC\Tools\MSVC\14.44.35207\include\xtree
; File C:\IAGOS\server\v18\Source\Source\_Common\Project.h
; File C:\IAGOS\server\v18\Source\Source\_Common\Obj.h
; File C:\IAGOS\server\v18\Source\Source\_Common\Housing.cpp
; File C:\Program Files\Microsoft Visual Studio\2022\Professional\VC\Tools\MSVC\14.44.35207\include\xtree
; File C:\Program Files\Microsoft Visual Studio\2022\Professional\VC\Tools\MSVC\14.44.35207\include\type_traits
; File C:\Program Files\Microsoft Visual Studio\2022\Professional\VC\Tools\MSVC\14.44.35207\include\xtree
; File C:\Program Files\Microsoft Visual Studio\2022\Professional\VC\Tools\MSVC\14.44.35207\include\type_traits
; File C:\Program Files\Microsoft Visual Studio\2022\Professional\VC\Tools\MSVC\14.44.35207\include\xtree
; File C:\IAGOS\server\v18\Source\Source\_Common\Project.h
; File C:\IAGOS\server\v18\Source\Source\_Common\Obj.h
; File C:\IAGOS\server\v18\Source\Source\_Common\Housing.cpp
;	COMDAT ?SetVisitAllow@CHousing@@QAEXKH@Z
_TEXT	SEGMENT
_dwTargetId$ = 8					; size = 4
_bAllow$ = 12						; size = 4
?SetVisitAllow@CHousing@@QAEXKH@Z PROC			; CHousing::SetVisitAllow, COMDAT
; _this$ = ecx

; 189  : {

  00000	55		 push	 ebp
  00001	8b ec		 mov	 ebp, esp

; 190  : 	if( bAllow )

  00003	83 7d 0c 00	 cmp	 DWORD PTR _bAllow$[ebp], 0
  00007	56		 push	 esi
  00008	8b 75 08	 mov	 esi, DWORD PTR _dwTargetId$[ebp]
  0000b	57		 push	 edi
  0000c	8b f9		 mov	 edi, ecx
  0000e	74 1f		 je	 SHORT $LN5@SetVisitAl
; File C:\Program Files\Microsoft Visual Studio\2022\Professional\VC\Tools\MSVC\14.44.35207\include\vector

; 844  :         if (_Mylast != _My_data._Myend) {

  00010	8b 4f 18	 mov	 ecx, DWORD PTR [edi+24]
  00013	3b 4f 1c	 cmp	 ecx, DWORD PTR [edi+28]
  00016	74 08		 je	 SHORT $LN183@SetVisitAl

; 860  :             _STD _Construct_in_place(*_Mylast, _STD forward<_Valty>(_Val)...);

  00018	89 31		 mov	 DWORD PTR [ecx], esi

; 861  :         } else {
; 862  :             _ASAN_VECTOR_EXTEND_GUARD(static_cast<size_type>(_Mylast - _My_data._Myfirst) + 1);
; 863  :             _Alty_traits::construct(_Getal(), _Unfancy(_Mylast), _STD forward<_Valty>(_Val)...);
; 864  :             _ASAN_VECTOR_RELEASE_GUARD;
; 865  :         }
; 866  : 
; 867  :         _Orphan_range(_Mylast, _Mylast);
; 868  :         _Ty& _Result = *_Mylast;
; 869  :         ++_Mylast;

  0001a	83 47 18 04	 add	 DWORD PTR [edi+24], 4

; 845  :             return _Emplace_back_with_unused_capacity(_STD forward<_Valty>(_Val)...);

  0001e	eb 3e		 jmp	 SHORT $LN3@SetVisitAl
$LN183@SetVisitAl:

; 846  :         }
; 847  : 
; 848  :         return *_Emplace_reallocate(_Mylast, _STD forward<_Valty>(_Val)...);

  00020	8d 55 08	 lea	 edx, DWORD PTR _dwTargetId$[ebp]
  00023	52		 push	 edx
  00024	51		 push	 ecx
  00025	8d 4f 14	 lea	 ecx, DWORD PTR [edi+20]
  00028	e8 00 00 00 00	 call	 ??$_Emplace_reallocate@ABK@?$vector@KV?$allocator@K@std@@@std@@AAEPAKQAKABK@Z ; std::vector<unsigned long,std::allocator<unsigned long> >::_Emplace_reallocate<unsigned long const &>
; File C:\IAGOS\server\v18\Source\Source\_Common\Housing.cpp

; 191  : 		m_vecIdVisitAllow.push_back( dwTargetId );

  0002d	eb 2f		 jmp	 SHORT $LN3@SetVisitAl
$LN5@SetVisitAl:
; File C:\Program Files\Microsoft Visual Studio\2022\Professional\VC\Tools\MSVC\14.44.35207\include\vector

; 46   :     _CONSTEXPR20 _Vector_const_iterator(_Tptr _Parg, const _Container_base* _Pvector) noexcept : _Ptr(_Parg) {

  0002f	8b 47 14	 mov	 eax, DWORD PTR [edi+20]
  00032	8b 57 18	 mov	 edx, DWORD PTR [edi+24]

; 176  :         return !(*this == _Right);

  00035	3b c2		 cmp	 eax, edx
; File C:\IAGOS\server\v18\Source\Source\_Common\Housing.cpp

; 194  : 		for( vector<DWORD>::iterator it=m_vecIdVisitAllow.begin(); it!=m_vecIdVisitAllow.end(); it++ )

  00037	74 25		 je	 SHORT $LN3@SetVisitAl
  00039	0f 1f 80 00 00
	00 00		 npad	 7
$LL4@SetVisitAl:

; 195  : 		{
; 196  : 			if( (*it) == dwTargetId )

  00040	8d 48 04	 lea	 ecx, DWORD PTR [eax+4]
  00043	39 30		 cmp	 DWORD PTR [eax], esi
  00045	74 08		 je	 SHORT $LN199@SetVisitAl
; File C:\Program Files\Microsoft Visual Studio\2022\Professional\VC\Tools\MSVC\14.44.35207\include\vector

; 82   :         ++_Ptr;

  00047	8b c1		 mov	 eax, ecx

; 176  :         return !(*this == _Right);

  00049	3b ca		 cmp	 ecx, edx
; File C:\IAGOS\server\v18\Source\Source\_Common\Housing.cpp

; 194  : 		for( vector<DWORD>::iterator it=m_vecIdVisitAllow.begin(); it!=m_vecIdVisitAllow.end(); it++ )

  0004b	75 f3		 jne	 SHORT $LL4@SetVisitAl

; 195  : 		{
; 196  : 			if( (*it) == dwTargetId )

  0004d	eb 0f		 jmp	 SHORT $LN3@SetVisitAl
$LN199@SetVisitAl:
; File C:\Program Files\Microsoft Visual Studio\2022\Professional\VC\Tools\MSVC\14.44.35207\include\xutility

; 5147 :                 return _STD _Copy_memmove(_First, _Last, _Dest);

  0004f	50		 push	 eax
  00050	52		 push	 edx
  00051	51		 push	 ecx
  00052	e8 00 00 00 00	 call	 ??$_Copy_memmove@PAKPAK@std@@YAPAKPAK00@Z ; std::_Copy_memmove<unsigned long *,unsigned long *>
  00057	83 c4 0c	 add	 esp, 12			; 0000000cH
; File C:\Program Files\Microsoft Visual Studio\2022\Professional\VC\Tools\MSVC\14.44.35207\include\vector

; 1778 :         --_Mylast;

  0005a	83 47 18 fc	 add	 DWORD PTR [edi+24], -4	; fffffffcH
$LN3@SetVisitAl:
; File C:\IAGOS\server\v18\Source\Source\_Common\Housing.cpp

; 205  : 	CUser* pUser = static_cast<CUser*>( prj.GetUserByID( m_dwMasterId ) );

  0005e	8b 57 04	 mov	 edx, DWORD PTR [edi+4]
  00061	c7 07 00 00 00
	00		 mov	 DWORD PTR [edi], 0
  00067	53		 push	 ebx
; File C:\Program Files\Microsoft Visual Studio\2022\Professional\VC\Tools\MSVC\14.44.35207\include\xtree

; 1630 :         _Tree_find_result<_Nodeptr> _Result{{_Scary->_Myhead->_Parent, _Tree_child::_Right}, _Scary->_Myhead};

  00068	8b 1d 28 00 00
	00		 mov	 ebx, DWORD PTR ?prj@@3VCProject@@A+40
  0006e	8b cb		 mov	 ecx, ebx
  00070	8b 43 04	 mov	 eax, DWORD PTR [ebx+4]

; 1631 :         _Nodeptr _Trynode = _Result._Location._Parent;
; 1632 :         while (!_Trynode->_Isnil) {

  00073	80 78 0d 00	 cmp	 BYTE PTR [eax+13], 0
  00077	75 1b		 jne	 SHORT $LN23@SetVisitAl
  00079	0f 1f 80 00 00
	00 00		 npad	 7
$LL22@SetVisitAl:
; File C:\Program Files\Microsoft Visual Studio\2022\Professional\VC\Tools\MSVC\14.44.35207\include\type_traits

; 2380 :         return _Left < _Right;

  00080	39 50 10	 cmp	 DWORD PTR [eax+16], edx
; File C:\Program Files\Microsoft Visual Studio\2022\Professional\VC\Tools\MSVC\14.44.35207\include\xtree

; 1634 :             if (_DEBUG_LT_PRED(_Getcomp(), _Traits::_Kfn(_Trynode->_Myval), _Keyval)) {

  00083	73 05		 jae	 SHORT $LN24@SetVisitAl

; 1635 :                 _Result._Location._Child = _Tree_child::_Right;
; 1636 :                 _Trynode                 = _Trynode->_Right;

  00085	8b 40 08	 mov	 eax, DWORD PTR [eax+8]

; 1637 :             } else {

  00088	eb 04		 jmp	 SHORT $LN25@SetVisitAl
$LN24@SetVisitAl:

; 1638 :                 _Result._Location._Child = _Tree_child::_Left;
; 1639 :                 _Result._Bound           = _Trynode;

  0008a	8b c8		 mov	 ecx, eax

; 1640 :                 _Trynode                 = _Trynode->_Left;

  0008c	8b 00		 mov	 eax, DWORD PTR [eax]
$LN25@SetVisitAl:

; 1631 :         _Nodeptr _Trynode = _Result._Location._Parent;
; 1632 :         while (!_Trynode->_Isnil) {

  0008e	80 78 0d 00	 cmp	 BYTE PTR [eax+13], 0
  00092	74 ec		 je	 SHORT $LL22@SetVisitAl
$LN23@SetVisitAl:

; 1624 :         return !_Bound->_Isnil && !_DEBUG_LT_PRED(_Getcomp(), _Keyval, _Traits::_Kfn(_Bound->_Myval));

  00094	80 79 0d 00	 cmp	 BYTE PTR [ecx+13], 0
  00098	75 05		 jne	 SHORT $LN19@SetVisitAl
; File C:\Program Files\Microsoft Visual Studio\2022\Professional\VC\Tools\MSVC\14.44.35207\include\type_traits

; 2380 :         return _Left < _Right;

  0009a	3b 51 10	 cmp	 edx, DWORD PTR [ecx+16]
; File C:\Program Files\Microsoft Visual Studio\2022\Professional\VC\Tools\MSVC\14.44.35207\include\xtree

; 1624 :         return !_Bound->_Isnil && !_DEBUG_LT_PRED(_Getcomp(), _Keyval, _Traits::_Kfn(_Bound->_Myval));

  0009d	73 02		 jae	 SHORT $LN18@SetVisitAl
$LN19@SetVisitAl:

; 1389 :         return _Get_scary()->_Myhead;

  0009f	8b cb		 mov	 ecx, ebx
$LN18@SetVisitAl:

; 37   :     _Tree_unchecked_const_iterator(_Nodeptr _Pnode, const _Mytree* _Plist) noexcept : _Ptr(_Pnode) {

  000a1	3b cb		 cmp	 ecx, ebx
; File C:\IAGOS\server\v18\Source\Source\_Common\Project.h

; 1436 : 	if( i != m_idPlayerToUserPtr.end() )

  000a3	8b 5d 0c	 mov	 ebx, DWORD PTR _bAllow$[ebp]
  000a6	74 14		 je	 SHORT $LN8@SetVisitAl

; 1437 : 		return i->second;

  000a8	8b 49 14	 mov	 ecx, DWORD PTR [ecx+20]
; File C:\IAGOS\server\v18\Source\Source\_Common\Obj.h

; 327  : 	return pObj && ( pObj->IsDelete() == FALSE ); 

  000ab	85 c9		 test	 ecx, ecx
  000ad	74 0d		 je	 SHORT $LN8@SetVisitAl

; 180  : 	BOOL			IsDelete()	{ return (m_dwFlags & OBJ_FLAG_DELETE);  }

  000af	f6 41 04 01	 test	 BYTE PTR [ecx+4], 1

; 327  : 	return pObj && ( pObj->IsDelete() == FALSE ); 

  000b3	75 07		 jne	 SHORT $LN8@SetVisitAl
; File C:\IAGOS\server\v18\Source\Source\_Common\Housing.cpp

; 207  : 		pUser->AddHousingSetVisitAllow( dwTargetId, bAllow );

  000b5	53		 push	 ebx
  000b6	56		 push	 esi
  000b7	e8 00 00 00 00	 call	 ?AddHousingSetVisitAllow@CUser@@QAEXKH@Z ; CUser::AddHousingSetVisitAllow
$LN8@SetVisitAl:

; 208  : 
; 209  : 	if( bAllow )

  000bc	8b 47 04	 mov	 eax, DWORD PTR [edi+4]
  000bf	85 db		 test	 ebx, ebx
  000c1	5b		 pop	 ebx
  000c2	56		 push	 esi
  000c3	50		 push	 eax
  000c4	74 12		 je	 SHORT $LN9@SetVisitAl

; 210  : 		CHousingMng::GetInstance()->SetAddVisitable( m_dwMasterId, dwTargetId );

  000c6	e8 00 00 00 00	 call	 ?GetInstance@CHousingMng@@SAPAV1@XZ ; CHousingMng::GetInstance
  000cb	8b c8		 mov	 ecx, eax
  000cd	e8 00 00 00 00	 call	 ?SetAddVisitable@CHousingMng@@QAEXKK@Z ; CHousingMng::SetAddVisitable
  000d2	5f		 pop	 edi

; 218  : 	}
; 219  : #endif // __WORLDSERVER
; 220  : }

  000d3	5e		 pop	 esi
  000d4	5d		 pop	 ebp
  000d5	c2 08 00	 ret	 8
$LN9@SetVisitAl:

; 211  : 	else
; 212  : 	{
; 213  : 		CHousingMng::GetInstance()->SetRemoveVisitable( m_dwMasterId, dwTargetId );

  000d8	e8 00 00 00 00	 call	 ?GetInstance@CHousingMng@@SAPAV1@XZ ; CHousingMng::GetInstance
  000dd	8b c8		 mov	 ecx, eax
  000df	e8 00 00 00 00	 call	 ?SetRemoveVisitable@CHousingMng@@QAEXKK@Z ; CHousingMng::SetRemoveVisitable
; File C:\Program Files\Microsoft Visual Studio\2022\Professional\VC\Tools\MSVC\14.44.35207\include\xtree

; 1630 :         _Tree_find_result<_Nodeptr> _Result{{_Scary->_Myhead->_Parent, _Tree_child::_Right}, _Scary->_Myhead};

  000e4	8b 15 28 00 00
	00		 mov	 edx, DWORD PTR ?prj@@3VCProject@@A+40
  000ea	8b ca		 mov	 ecx, edx
  000ec	8b 42 04	 mov	 eax, DWORD PTR [edx+4]

; 1631 :         _Nodeptr _Trynode = _Result._Location._Parent;
; 1632 :         while (!_Trynode->_Isnil) {

  000ef	80 78 0d 00	 cmp	 BYTE PTR [eax+13], 0
  000f3	75 14		 jne	 SHORT $LN89@SetVisitAl
$LL88@SetVisitAl:
; File C:\Program Files\Microsoft Visual Studio\2022\Professional\VC\Tools\MSVC\14.44.35207\include\type_traits

; 2380 :         return _Left < _Right;

  000f5	39 70 10	 cmp	 DWORD PTR [eax+16], esi
; File C:\Program Files\Microsoft Visual Studio\2022\Professional\VC\Tools\MSVC\14.44.35207\include\xtree

; 1634 :             if (_DEBUG_LT_PRED(_Getcomp(), _Traits::_Kfn(_Trynode->_Myval), _Keyval)) {

  000f8	73 05		 jae	 SHORT $LN90@SetVisitAl

; 1635 :                 _Result._Location._Child = _Tree_child::_Right;
; 1636 :                 _Trynode                 = _Trynode->_Right;

  000fa	8b 40 08	 mov	 eax, DWORD PTR [eax+8]

; 1637 :             } else {

  000fd	eb 04		 jmp	 SHORT $LN91@SetVisitAl
$LN90@SetVisitAl:

; 1638 :                 _Result._Location._Child = _Tree_child::_Left;
; 1639 :                 _Result._Bound           = _Trynode;

  000ff	8b c8		 mov	 ecx, eax

; 1640 :                 _Trynode                 = _Trynode->_Left;

  00101	8b 00		 mov	 eax, DWORD PTR [eax]
$LN91@SetVisitAl:

; 1631 :         _Nodeptr _Trynode = _Result._Location._Parent;
; 1632 :         while (!_Trynode->_Isnil) {

  00103	80 78 0d 00	 cmp	 BYTE PTR [eax+13], 0
  00107	74 ec		 je	 SHORT $LL88@SetVisitAl
$LN89@SetVisitAl:

; 1624 :         return !_Bound->_Isnil && !_DEBUG_LT_PRED(_Getcomp(), _Keyval, _Traits::_Kfn(_Bound->_Myval));

  00109	80 79 0d 00	 cmp	 BYTE PTR [ecx+13], 0
  0010d	75 05		 jne	 SHORT $LN85@SetVisitAl
; File C:\Program Files\Microsoft Visual Studio\2022\Professional\VC\Tools\MSVC\14.44.35207\include\type_traits

; 2380 :         return _Left < _Right;

  0010f	3b 71 10	 cmp	 esi, DWORD PTR [ecx+16]
; File C:\Program Files\Microsoft Visual Studio\2022\Professional\VC\Tools\MSVC\14.44.35207\include\xtree

; 1624 :         return !_Bound->_Isnil && !_DEBUG_LT_PRED(_Getcomp(), _Keyval, _Traits::_Kfn(_Bound->_Myval));

  00112	73 02		 jae	 SHORT $LN84@SetVisitAl
$LN85@SetVisitAl:

; 1389 :         return _Get_scary()->_Myhead;

  00114	8b ca		 mov	 ecx, edx
$LN84@SetVisitAl:

; 37   :     _Tree_unchecked_const_iterator(_Nodeptr _Pnode, const _Mytree* _Plist) noexcept : _Ptr(_Pnode) {

  00116	3b ca		 cmp	 ecx, edx
; File C:\IAGOS\server\v18\Source\Source\_Common\Project.h

; 1436 : 	if( i != m_idPlayerToUserPtr.end() )

  00118	74 37		 je	 SHORT $LN11@SetVisitAl

; 1437 : 		return i->second;

  0011a	8b 49 14	 mov	 ecx, DWORD PTR [ecx+20]
; File C:\IAGOS\server\v18\Source\Source\_Common\Obj.h

; 327  : 	return pObj && ( pObj->IsDelete() == FALSE ); 

  0011d	85 c9		 test	 ecx, ecx
  0011f	74 30		 je	 SHORT $LN11@SetVisitAl

; 180  : 	BOOL			IsDelete()	{ return (m_dwFlags & OBJ_FLAG_DELETE);  }

  00121	f6 41 04 01	 test	 BYTE PTR [ecx+4], 1

; 327  : 	return pObj && ( pObj->IsDelete() == FALSE ); 

  00125	75 2a		 jne	 SHORT $LN11@SetVisitAl
; File C:\IAGOS\server\v18\Source\Source\_Common\Housing.cpp

; 216  : 			&& pUser->GetWorld()->GetID() == WI_WORLD_MINIROOM && pUser->GetLayer() == m_dwMasterId )

  00127	8b 81 6c 01 00
	00		 mov	 eax, DWORD PTR [ecx+364]
  0012d	85 c0		 test	 eax, eax
  0012f	74 20		 je	 SHORT $LN11@SetVisitAl
  00131	81 38 d1 00 00
	00		 cmp	 DWORD PTR [eax], 209	; 000000d1H
  00137	75 18		 jne	 SHORT $LN11@SetVisitAl
  00139	8b 81 b8 01 00
	00		 mov	 eax, DWORD PTR [ecx+440]
  0013f	3b 47 04	 cmp	 eax, DWORD PTR [edi+4]
  00142	75 0d		 jne	 SHORT $LN11@SetVisitAl

; 217  : 			CHousingMng::GetInstance()->GoOut( pUser );

  00144	51		 push	 ecx
  00145	e8 00 00 00 00	 call	 ?GetInstance@CHousingMng@@SAPAV1@XZ ; CHousingMng::GetInstance
  0014a	8b c8		 mov	 ecx, eax
  0014c	e8 00 00 00 00	 call	 ?GoOut@CHousingMng@@QAEXPAVCUser@@@Z ; CHousingMng::GoOut
$LN11@SetVisitAl:

; 218  : 	}
; 219  : #endif // __WORLDSERVER
; 220  : }

  00151	5f		 pop	 edi
  00152	5e		 pop	 esi
  00153	5d		 pop	 ebp
  00154	c2 08 00	 ret	 8
?SetVisitAllow@CHousing@@QAEXKH@Z ENDP			; CHousing::SetVisitAllow
_TEXT	ENDS
; Function compile flags: /Ogtp
; File C:\IAGOS\server\v18\Source\Source\_Common\Housing.cpp
; File C:\Program Files\Microsoft Visual Studio\2022\Professional\VC\Tools\MSVC\14.44.35207\include\vector
; File C:\IAGOS\server\v18\Source\Source\_Common\Housing.cpp
; File C:\Program Files\Microsoft Visual Studio\2022\Professional\VC\Tools\MSVC\14.44.35207\include\xtree
; File C:\Program Files\Microsoft Visual Studio\2022\Professional\VC\Tools\MSVC\14.44.35207\include\type_traits
; File C:\Program Files\Microsoft Visual Studio\2022\Professional\VC\Tools\MSVC\14.44.35207\include\xtree
; File C:\Program Files\Microsoft Visual Studio\2022\Professional\VC\Tools\MSVC\14.44.35207\include\type_traits
; File C:\Program Files\Microsoft Visual Studio\2022\Professional\VC\Tools\MSVC\14.44.35207\include\xtree
; File C:\IAGOS\server\v18\Source\Source\_Common\Project.h
; File C:\IAGOS\server\v18\Source\Source\_Common\Obj.h
; File C:\Program Files\Microsoft Visual Studio\2022\Professional\VC\Tools\MSVC\14.44.35207\include\vector
; File C:\IAGOS\server\v18\Source\Source\_Common\Housing.cpp
;	COMDAT ?SetupFurniture@CHousing@@QAEXUHOUSINGINFO@@@Z
_TEXT	SEGMENT
_housingInfo$ = 8					; size = 32
?SetupFurniture@CHousing@@QAEXUHOUSINGINFO@@@Z PROC	; CHousing::SetupFurniture, COMDAT
; _this$ = ecx

; 163  : {

  00000	55		 push	 ebp
  00001	8b ec		 mov	 ebp, esp
  00003	56		 push	 esi
  00004	57		 push	 edi

; 164  : 	int nIndex = GetIndexFromList( housingInfo.dwItemId );

  00005	ff 75 08	 push	 DWORD PTR _housingInfo$[ebp]
  00008	8b f1		 mov	 esi, ecx
  0000a	e8 00 00 00 00	 call	 ?GetIndexFromList@CHousing@@AAEHK@Z ; CHousing::GetIndexFromList
  0000f	8b f8		 mov	 edi, eax

; 165  : 	if( nIndex != NULL_ID )

  00011	83 ff ff	 cmp	 edi, -1
  00014	0f 84 be 00 00
	00		 je	 $LN6@SetupFurni

; 167  : 		m_vecHousingInfo[nIndex].bSetup = housingInfo.bSetup;

  0001a	8b 4e 08	 mov	 ecx, DWORD PTR [esi+8]
  0001d	8b 45 10	 mov	 eax, DWORD PTR _housingInfo$[ebp+8]
  00020	53		 push	 ebx
; File C:\Program Files\Microsoft Visual Studio\2022\Professional\VC\Tools\MSVC\14.44.35207\include\vector

; 1934 :         return _My_data._Myfirst[_Pos];

  00021	8b df		 mov	 ebx, edi
  00023	c1 e3 05	 shl	 ebx, 5
; File C:\IAGOS\server\v18\Source\Source\_Common\Housing.cpp

; 167  : 		m_vecHousingInfo[nIndex].bSetup = housingInfo.bSetup;

  00026	89 44 19 08	 mov	 DWORD PTR [ecx+ebx+8], eax

; 168  : 		if( housingInfo.bSetup )

  0002a	83 7d 10 00	 cmp	 DWORD PTR _housingInfo$[ebp+8], 0
  0002e	74 23		 je	 SHORT $LN3@SetupFurni

; 169  : 		{
; 170  : 			m_vecHousingInfo[nIndex].vPos = housingInfo.vPos;

  00030	8b 4e 08	 mov	 ecx, DWORD PTR [esi+8]
  00033	f3 0f 7e 45 14	 movq	 xmm0, QWORD PTR _housingInfo$[ebp+12]
  00038	66 0f d6 44 19
	0c		 movq	 QWORD PTR [ecx+ebx+12], xmm0
  0003e	8b 45 1c	 mov	 eax, DWORD PTR _housingInfo$[ebp+20]
  00041	89 44 19 14	 mov	 DWORD PTR [ecx+ebx+20], eax

; 171  : 			m_vecHousingInfo[nIndex].fAngle = housingInfo.fAngle;

  00045	8b 46 08	 mov	 eax, DWORD PTR [esi+8]
  00048	f3 0f 10 45 20	 movss	 xmm0, DWORD PTR _housingInfo$[ebp+24]
  0004d	f3 0f 11 44 18
	18		 movss	 DWORD PTR [eax+ebx+24], xmm0
$LN3@SetupFurni:

; 172  : 		}
; 173  : #ifdef __WORLDSERVER
; 174  : 		Setting( FALSE );
; 175  : 		CUser* pUser = static_cast<CUser*>( prj.GetUserByID( m_dwMasterId ) );

  00053	8b 56 04	 mov	 edx, DWORD PTR [esi+4]
  00056	c7 06 00 00 00
	00		 mov	 DWORD PTR [esi], 0
; File C:\Program Files\Microsoft Visual Studio\2022\Professional\VC\Tools\MSVC\14.44.35207\include\xtree

; 1630 :         _Tree_find_result<_Nodeptr> _Result{{_Scary->_Myhead->_Parent, _Tree_child::_Right}, _Scary->_Myhead};

  0005c	8b 0d 28 00 00
	00		 mov	 ecx, DWORD PTR ?prj@@3VCProject@@A+40
  00062	8b 41 04	 mov	 eax, DWORD PTR [ecx+4]

; 1631 :         _Nodeptr _Trynode = _Result._Location._Parent;
; 1632 :         while (!_Trynode->_Isnil) {

  00065	80 78 0d 00	 cmp	 BYTE PTR [eax+13], 0
  00069	75 19		 jne	 SHORT $LN27@SetupFurni
  0006b	0f 1f 44 00 00	 npad	 5
$LL26@SetupFurni:
; File C:\Program Files\Microsoft Visual Studio\2022\Professional\VC\Tools\MSVC\14.44.35207\include\type_traits

; 2380 :         return _Left < _Right;

  00070	39 50 10	 cmp	 DWORD PTR [eax+16], edx
; File C:\Program Files\Microsoft Visual Studio\2022\Professional\VC\Tools\MSVC\14.44.35207\include\xtree

; 1634 :             if (_DEBUG_LT_PRED(_Getcomp(), _Traits::_Kfn(_Trynode->_Myval), _Keyval)) {

  00073	73 05		 jae	 SHORT $LN28@SetupFurni

; 1635 :                 _Result._Location._Child = _Tree_child::_Right;
; 1636 :                 _Trynode                 = _Trynode->_Right;

  00075	8b 40 08	 mov	 eax, DWORD PTR [eax+8]

; 1637 :             } else {

  00078	eb 04		 jmp	 SHORT $LN29@SetupFurni
$LN28@SetupFurni:

; 1638 :                 _Result._Location._Child = _Tree_child::_Left;
; 1639 :                 _Result._Bound           = _Trynode;

  0007a	8b c8		 mov	 ecx, eax

; 1640 :                 _Trynode                 = _Trynode->_Left;

  0007c	8b 00		 mov	 eax, DWORD PTR [eax]
$LN29@SetupFurni:

; 1631 :         _Nodeptr _Trynode = _Result._Location._Parent;
; 1632 :         while (!_Trynode->_Isnil) {

  0007e	80 78 0d 00	 cmp	 BYTE PTR [eax+13], 0
  00082	74 ec		 je	 SHORT $LL26@SetupFurni
$LN27@SetupFurni:

; 1624 :         return !_Bound->_Isnil && !_DEBUG_LT_PRED(_Getcomp(), _Keyval, _Traits::_Kfn(_Bound->_Myval));

  00084	80 79 0d 00	 cmp	 BYTE PTR [ecx+13], 0
  00088	75 0c		 jne	 SHORT $LN23@SetupFurni
; File C:\Program Files\Microsoft Visual Studio\2022\Professional\VC\Tools\MSVC\14.44.35207\include\type_traits

; 2380 :         return _Left < _Right;

  0008a	3b 51 10	 cmp	 edx, DWORD PTR [ecx+16]
; File C:\Program Files\Microsoft Visual Studio\2022\Professional\VC\Tools\MSVC\14.44.35207\include\xtree

; 1624 :         return !_Bound->_Isnil && !_DEBUG_LT_PRED(_Getcomp(), _Keyval, _Traits::_Kfn(_Bound->_Myval));

  0008d	72 07		 jb	 SHORT $LN23@SetupFurni

; 1386 :             return _Loc._Bound;

  0008f	a1 28 00 00 00	 mov	 eax, DWORD PTR ?prj@@3VCProject@@A+40
  00094	eb 07		 jmp	 SHORT $LN22@SetupFurni
$LN23@SetupFurni:

; 1387 :         }
; 1388 : 
; 1389 :         return _Get_scary()->_Myhead;

  00096	a1 28 00 00 00	 mov	 eax, DWORD PTR ?prj@@3VCProject@@A+40
  0009b	8b c8		 mov	 ecx, eax
$LN22@SetupFurni:

; 37   :     _Tree_unchecked_const_iterator(_Nodeptr _Pnode, const _Mytree* _Plist) noexcept : _Ptr(_Pnode) {

  0009d	3b c8		 cmp	 ecx, eax
; File C:\IAGOS\server\v18\Source\Source\_Common\Project.h

; 1436 : 	if( i != m_idPlayerToUserPtr.end() )

  0009f	74 36		 je	 SHORT $LN104@SetupFurni

; 1437 : 		return i->second;

  000a1	8b 49 14	 mov	 ecx, DWORD PTR [ecx+20]
; File C:\IAGOS\server\v18\Source\Source\_Common\Obj.h

; 327  : 	return pObj && ( pObj->IsDelete() == FALSE ); 

  000a4	85 c9		 test	 ecx, ecx
  000a6	74 2f		 je	 SHORT $LN104@SetupFurni

; 180  : 	BOOL			IsDelete()	{ return (m_dwFlags & OBJ_FLAG_DELETE);  }

  000a8	f6 41 04 01	 test	 BYTE PTR [ecx+4], 1

; 327  : 	return pObj && ( pObj->IsDelete() == FALSE ); 

  000ac	75 29		 jne	 SHORT $LN104@SetupFurni
; File C:\Program Files\Microsoft Visual Studio\2022\Professional\VC\Tools\MSVC\14.44.35207\include\vector

; 1934 :         return _My_data._Myfirst[_Pos];

  000ae	8b 46 08	 mov	 eax, DWORD PTR [esi+8]
  000b1	03 c3		 add	 eax, ebx
; File C:\IAGOS\server\v18\Source\Source\_Common\Housing.cpp

; 178  : 			pUser->AddHousingSetupFurniture( &m_vecHousingInfo[nIndex] );

  000b3	50		 push	 eax
  000b4	e8 00 00 00 00	 call	 ?AddHousingSetupFurniture@CUser@@QAEXPAUHOUSINGINFO@@@Z ; CUser::AddHousingSetupFurniture

; 179  : 			if( m_vecHousingInfo[nIndex].bSetup )

  000b9	8b 46 08	 mov	 eax, DWORD PTR [esi+8]
  000bc	8b ce		 mov	 ecx, esi
  000be	57		 push	 edi
  000bf	83 7c 18 08 00	 cmp	 DWORD PTR [eax+ebx+8], 0
  000c4	74 0c		 je	 SHORT $LN5@SetupFurni

; 180  : 				AddFurnitureControl( nIndex );

  000c6	e8 00 00 00 00	 call	 ?AddFurnitureControl@CHousing@@QAEHH@Z ; CHousing::AddFurnitureControl
  000cb	5b		 pop	 ebx
  000cc	5f		 pop	 edi

; 183  : 		}
; 184  : #endif // __WORLDSERVER
; 185  : 	}
; 186  : }

  000cd	5e		 pop	 esi
  000ce	5d		 pop	 ebp
  000cf	c2 20 00	 ret	 32			; 00000020H
$LN5@SetupFurni:

; 181  : 			else
; 182  : 				RemoveFurnitureControl( nIndex );

  000d2	e8 00 00 00 00	 call	 ?RemoveFurnitureControl@CHousing@@QAEXH@Z ; CHousing::RemoveFurnitureControl
$LN104@SetupFurni:
  000d7	5b		 pop	 ebx
$LN6@SetupFurni:
  000d8	5f		 pop	 edi

; 183  : 		}
; 184  : #endif // __WORLDSERVER
; 185  : 	}
; 186  : }

  000d9	5e		 pop	 esi
  000da	5d		 pop	 ebp
  000db	c2 20 00	 ret	 32			; 00000020H
?SetupFurniture@CHousing@@QAEXUHOUSINGINFO@@@Z ENDP	; CHousing::SetupFurniture
_TEXT	ENDS
; Function compile flags: /Ogtp
; File C:\IAGOS\server\v18\Source\Source\_Common\Housing.cpp
; File C:\Program Files\Microsoft Visual Studio\2022\Professional\VC\Tools\MSVC\14.44.35207\include\vector
; File C:\IAGOS\server\v18\Source\Source\_Common\Housing.cpp
; File C:\Program Files\Microsoft Visual Studio\2022\Professional\VC\Tools\MSVC\14.44.35207\include\vector
; File C:\Program Files\Microsoft Visual Studio\2022\Professional\VC\Tools\MSVC\14.44.35207\include\xutility
; File C:\Program Files\Microsoft Visual Studio\2022\Professional\VC\Tools\MSVC\14.44.35207\include\vector
; File C:\IAGOS\server\v18\Source\Source\_Common\Housing.cpp
; File C:\Program Files\Microsoft Visual Studio\2022\Professional\VC\Tools\MSVC\14.44.35207\include\xtree
; File C:\Program Files\Microsoft Visual Studio\2022\Professional\VC\Tools\MSVC\14.44.35207\include\type_traits
; File C:\Program Files\Microsoft Visual Studio\2022\Professional\VC\Tools\MSVC\14.44.35207\include\xtree
; File C:\Program Files\Microsoft Visual Studio\2022\Professional\VC\Tools\MSVC\14.44.35207\include\type_traits
; File C:\Program Files\Microsoft Visual Studio\2022\Professional\VC\Tools\MSVC\14.44.35207\include\xtree
; File C:\IAGOS\server\v18\Source\Source\_Common\Project.h
; File C:\IAGOS\server\v18\Source\Source\_Common\Obj.h
; File C:\IAGOS\server\v18\Source\Source\_Common\Housing.cpp
;	COMDAT ?SetFurnitureList@CHousing@@QAEXAAUHOUSINGINFO@@H@Z
_TEXT	SEGMENT
_housingInfo$ = 8					; size = 4
_bAdd$ = 12						; size = 4
?SetFurnitureList@CHousing@@QAEXAAUHOUSINGINFO@@H@Z PROC ; CHousing::SetFurnitureList, COMDAT
; _this$ = ecx

; 130  : {

  00000	55		 push	 ebp
  00001	8b ec		 mov	 ebp, esp

; 131  : 	if( bAdd )	// ¸®˝şĆ®żˇ Ăß°ˇÇĎ´Â °Ĺ...

  00003	83 7d 0c 00	 cmp	 DWORD PTR _bAdd$[ebp], 0
  00007	56		 push	 esi
  00008	57		 push	 edi
  00009	8b 7d 08	 mov	 edi, DWORD PTR _housingInfo$[ebp]
  0000c	8b f1		 mov	 esi, ecx
  0000e	74 28		 je	 SHORT $LN2@SetFurnitu
; File C:\Program Files\Microsoft Visual Studio\2022\Professional\VC\Tools\MSVC\14.44.35207\include\vector

; 844  :         if (_Mylast != _My_data._Myend) {

  00010	8b 46 0c	 mov	 eax, DWORD PTR [esi+12]
; File C:\IAGOS\server\v18\Source\Source\_Common\Housing.cpp

; 132  : 		m_vecHousingInfo.push_back( housingInfo );

  00013	8d 4e 08	 lea	 ecx, DWORD PTR [esi+8]
; File C:\Program Files\Microsoft Visual Studio\2022\Professional\VC\Tools\MSVC\14.44.35207\include\vector

; 844  :         if (_Mylast != _My_data._Myend) {

  00016	3b 41 08	 cmp	 eax, DWORD PTR [ecx+8]
  00019	74 14		 je	 SHORT $LN9@SetFurnitu
; File C:\Program Files\Microsoft Visual Studio\2022\Professional\VC\Tools\MSVC\14.44.35207\include\xutility

; 476  :         ::new (static_cast<void*>(_STD addressof(_Obj))) _Ty(_STD forward<_Types>(_Args)...);

  0001b	0f 10 07	 movups	 xmm0, XMMWORD PTR [edi]
  0001e	0f 11 00	 movups	 XMMWORD PTR [eax], xmm0
  00021	0f 10 47 10	 movups	 xmm0, XMMWORD PTR [edi+16]
  00025	0f 11 40 10	 movups	 XMMWORD PTR [eax+16], xmm0
; File C:\Program Files\Microsoft Visual Studio\2022\Professional\VC\Tools\MSVC\14.44.35207\include\vector

; 869  :         ++_Mylast;

  00029	83 41 04 20	 add	 DWORD PTR [ecx+4], 32	; 00000020H

; 845  :             return _Emplace_back_with_unused_capacity(_STD forward<_Valty>(_Val)...);

  0002d	eb 10		 jmp	 SHORT $LN3@SetFurnitu
$LN9@SetFurnitu:

; 846  :         }
; 847  : 
; 848  :         return *_Emplace_reallocate(_Mylast, _STD forward<_Valty>(_Val)...);

  0002f	57		 push	 edi
  00030	50		 push	 eax
  00031	e8 00 00 00 00	 call	 ??$_Emplace_reallocate@ABUHOUSINGINFO@@@?$vector@UHOUSINGINFO@@V?$allocator@UHOUSINGINFO@@@std@@@std@@AAEPAUHOUSINGINFO@@QAU2@ABU2@@Z ; std::vector<HOUSINGINFO,std::allocator<HOUSINGINFO> >::_Emplace_reallocate<HOUSINGINFO const &>
; File C:\IAGOS\server\v18\Source\Source\_Common\Housing.cpp

; 132  : 		m_vecHousingInfo.push_back( housingInfo );

  00036	eb 07		 jmp	 SHORT $LN3@SetFurnitu
$LN2@SetFurnitu:

; 133  : 	else
; 134  : 		RemoveFurnitureList( housingInfo.dwItemId );

  00038	ff 37		 push	 DWORD PTR [edi]
  0003a	e8 00 00 00 00	 call	 ?RemoveFurnitureList@CHousing@@AAEHK@Z ; CHousing::RemoveFurnitureList
$LN3@SetFurnitu:

; 135  : 
; 136  : #ifdef __WORLDSERVER
; 137  : 	Setting( FALSE );
; 138  : 	CUser* pUser = static_cast<CUser*>( prj.GetUserByID( m_dwMasterId ) );

  0003f	8b 56 04	 mov	 edx, DWORD PTR [esi+4]
  00042	c7 06 00 00 00
	00		 mov	 DWORD PTR [esi], 0
; File C:\Program Files\Microsoft Visual Studio\2022\Professional\VC\Tools\MSVC\14.44.35207\include\xtree

; 1630 :         _Tree_find_result<_Nodeptr> _Result{{_Scary->_Myhead->_Parent, _Tree_child::_Right}, _Scary->_Myhead};

  00048	8b 35 28 00 00
	00		 mov	 esi, DWORD PTR ?prj@@3VCProject@@A+40
  0004e	8b ce		 mov	 ecx, esi
  00050	8b 46 04	 mov	 eax, DWORD PTR [esi+4]

; 1631 :         _Nodeptr _Trynode = _Result._Location._Parent;
; 1632 :         while (!_Trynode->_Isnil) {

  00053	80 78 0d 00	 cmp	 BYTE PTR [eax+13], 0
  00057	75 1b		 jne	 SHORT $LN26@SetFurnitu
  00059	0f 1f 80 00 00
	00 00		 npad	 7
$LL25@SetFurnitu:
; File C:\Program Files\Microsoft Visual Studio\2022\Professional\VC\Tools\MSVC\14.44.35207\include\type_traits

; 2380 :         return _Left < _Right;

  00060	39 50 10	 cmp	 DWORD PTR [eax+16], edx
; File C:\Program Files\Microsoft Visual Studio\2022\Professional\VC\Tools\MSVC\14.44.35207\include\xtree

; 1634 :             if (_DEBUG_LT_PRED(_Getcomp(), _Traits::_Kfn(_Trynode->_Myval), _Keyval)) {

  00063	73 05		 jae	 SHORT $LN27@SetFurnitu

; 1635 :                 _Result._Location._Child = _Tree_child::_Right;
; 1636 :                 _Trynode                 = _Trynode->_Right;

  00065	8b 40 08	 mov	 eax, DWORD PTR [eax+8]

; 1637 :             } else {

  00068	eb 04		 jmp	 SHORT $LN28@SetFurnitu
$LN27@SetFurnitu:

; 1638 :                 _Result._Location._Child = _Tree_child::_Left;
; 1639 :                 _Result._Bound           = _Trynode;

  0006a	8b c8		 mov	 ecx, eax

; 1640 :                 _Trynode                 = _Trynode->_Left;

  0006c	8b 00		 mov	 eax, DWORD PTR [eax]
$LN28@SetFurnitu:

; 1631 :         _Nodeptr _Trynode = _Result._Location._Parent;
; 1632 :         while (!_Trynode->_Isnil) {

  0006e	80 78 0d 00	 cmp	 BYTE PTR [eax+13], 0
  00072	74 ec		 je	 SHORT $LL25@SetFurnitu
$LN26@SetFurnitu:

; 1624 :         return !_Bound->_Isnil && !_DEBUG_LT_PRED(_Getcomp(), _Keyval, _Traits::_Kfn(_Bound->_Myval));

  00074	80 79 0d 00	 cmp	 BYTE PTR [ecx+13], 0
  00078	75 05		 jne	 SHORT $LN22@SetFurnitu
; File C:\Program Files\Microsoft Visual Studio\2022\Professional\VC\Tools\MSVC\14.44.35207\include\type_traits

; 2380 :         return _Left < _Right;

  0007a	3b 51 10	 cmp	 edx, DWORD PTR [ecx+16]
; File C:\Program Files\Microsoft Visual Studio\2022\Professional\VC\Tools\MSVC\14.44.35207\include\xtree

; 1624 :         return !_Bound->_Isnil && !_DEBUG_LT_PRED(_Getcomp(), _Keyval, _Traits::_Kfn(_Bound->_Myval));

  0007d	73 02		 jae	 SHORT $LN21@SetFurnitu
$LN22@SetFurnitu:

; 1389 :         return _Get_scary()->_Myhead;

  0007f	8b ce		 mov	 ecx, esi
$LN21@SetFurnitu:

; 37   :     _Tree_unchecked_const_iterator(_Nodeptr _Pnode, const _Mytree* _Plist) noexcept : _Ptr(_Pnode) {

  00081	3b ce		 cmp	 ecx, esi
; File C:\IAGOS\server\v18\Source\Source\_Common\Project.h

; 1436 : 	if( i != m_idPlayerToUserPtr.end() )

  00083	74 16		 je	 SHORT $LN4@SetFurnitu

; 1437 : 		return i->second;

  00085	8b 49 14	 mov	 ecx, DWORD PTR [ecx+20]
; File C:\IAGOS\server\v18\Source\Source\_Common\Obj.h

; 327  : 	return pObj && ( pObj->IsDelete() == FALSE ); 

  00088	85 c9		 test	 ecx, ecx
  0008a	74 0f		 je	 SHORT $LN4@SetFurnitu

; 180  : 	BOOL			IsDelete()	{ return (m_dwFlags & OBJ_FLAG_DELETE);  }

  0008c	f6 41 04 01	 test	 BYTE PTR [ecx+4], 1

; 327  : 	return pObj && ( pObj->IsDelete() == FALSE ); 

  00090	75 09		 jne	 SHORT $LN4@SetFurnitu
; File C:\IAGOS\server\v18\Source\Source\_Common\Housing.cpp

; 140  : 		pUser->AddHousingSetFurnitureList( housingInfo, bAdd );

  00092	ff 75 0c	 push	 DWORD PTR _bAdd$[ebp]
  00095	57		 push	 edi
  00096	e8 00 00 00 00	 call	 ?AddHousingSetFurnitureList@CUser@@QAEXAAUHOUSINGINFO@@H@Z ; CUser::AddHousingSetFurnitureList
$LN4@SetFurnitu:

; 141  : #endif // __WORLDSERVER
; 142  : }

  0009b	5f		 pop	 edi
  0009c	5e		 pop	 esi
  0009d	5d		 pop	 ebp
  0009e	c2 08 00	 ret	 8
?SetFurnitureList@CHousing@@QAEXAAUHOUSINGINFO@@H@Z ENDP ; CHousing::SetFurnitureList
_TEXT	ENDS
; Function compile flags: /Ogtp
; File C:\IAGOS\server\v18\Source\Source\_Common\Housing.cpp
; File C:\IAGOS\server\v18\Source\Source\_Network\Misc\Include\ar.h
; File C:\IAGOS\server\v18\Source\Source\_Common\Housing.cpp
; File C:\Program Files\Microsoft Visual Studio\2022\Professional\VC\Tools\MSVC\14.44.35207\include\vector
; File C:\IAGOS\server\v18\Source\Source\_Common\Housing.cpp
; File C:\Program Files\Microsoft Visual Studio\2022\Professional\VC\Tools\MSVC\14.44.35207\include\vector
; File C:\IAGOS\server\v18\Source\Source\_Common\Housing.cpp
; File C:\Program Files\Microsoft Visual Studio\2022\Professional\VC\Tools\MSVC\14.44.35207\include\vector
; File C:\IAGOS\server\v18\Source\Source\_Common\Housing.cpp
; File C:\Program Files\Microsoft Visual Studio\2022\Professional\VC\Tools\MSVC\14.44.35207\include\vector
; File C:\IAGOS\server\v18\Source\Source\_Network\Misc\Include\ar.h
; File C:\IAGOS\server\v18\Source\Source\_Common\housing.h
; File C:\Program Files\Microsoft Visual Studio\2022\Professional\VC\Tools\MSVC\14.44.35207\include\vector
; File C:\IAGOS\server\v18\Source\Source\_Common\Housing.cpp
; File C:\Program Files\Microsoft Visual Studio\2022\Professional\VC\Tools\MSVC\14.44.35207\include\vector
; File C:\IAGOS\server\v18\Source\Source\_Common\Housing.cpp
; File C:\Program Files\Microsoft Visual Studio\2022\Professional\VC\Tools\MSVC\14.44.35207\include\vector
; File C:\IAGOS\server\v18\Source\Source\_Common\Housing.cpp
; File C:\Program Files\Microsoft Visual Studio\2022\Professional\VC\Tools\MSVC\14.44.35207\include\vector
; File C:\IAGOS\server\v18\Source\Source\_Common\Housing.cpp
; File C:\Program Files\Microsoft Visual Studio\2022\Professional\VC\Tools\MSVC\14.44.35207\include\vector
; File C:\IAGOS\server\v18\Source\Source\_Common\Housing.cpp
; File C:\Program Files\Microsoft Visual Studio\2022\Professional\VC\Tools\MSVC\14.44.35207\include\vector
; File C:\IAGOS\server\v18\Source\Source\_Common\Housing.cpp
; File C:\Program Files\Microsoft Visual Studio\2022\Professional\VC\Tools\MSVC\14.44.35207\include\vector
; File C:\IAGOS\server\v18\Source\Source\_Common\Housing.cpp
; File C:\Program Files\Microsoft Visual Studio\2022\Professional\VC\Tools\MSVC\14.44.35207\include\vector
; File C:\IAGOS\server\v18\Source\Source\_Common\Housing.cpp
; File C:\Program Files\Microsoft Visual Studio\2022\Professional\VC\Tools\MSVC\14.44.35207\include\vector
; File C:\IAGOS\server\v18\Source\Source\_Common\Housing.cpp
; File C:\Program Files\Microsoft Visual Studio\2022\Professional\VC\Tools\MSVC\14.44.35207\include\vector
; File C:\IAGOS\server\v18\Source\Source\_Common\Housing.cpp
; File C:\Program Files\Microsoft Visual Studio\2022\Professional\VC\Tools\MSVC\14.44.35207\include\vector
; File C:\IAGOS\server\v18\Source\Source\_Common\Housing.cpp
; File C:\IAGOS\server\v18\Source\Source\_Network\Misc\Include\ar.h
; File C:\IAGOS\server\v18\Source\Source\_Common\housing.h
; File C:\IAGOS\server\v18\Source\Source\DX_SDK\d3dx9math.inl
; File C:\IAGOS\server\v18\Source\Source\_Common\housing.h
; File C:\Program Files\Microsoft Visual Studio\2022\Professional\VC\Tools\MSVC\14.44.35207\include\vector
; File C:\Program Files\Microsoft Visual Studio\2022\Professional\VC\Tools\MSVC\14.44.35207\include\xutility
; File C:\Program Files\Microsoft Visual Studio\2022\Professional\VC\Tools\MSVC\14.44.35207\include\vector
; File C:\IAGOS\server\v18\Source\Source\_Common\Housing.cpp
; File C:\Program Files\Microsoft Visual Studio\2022\Professional\VC\Tools\MSVC\14.44.35207\include\xtree
; File C:\IAGOS\server\v18\Source\Source\_Common\Housing.cpp
; File C:\Program Files\Microsoft Visual Studio\2022\Professional\VC\Tools\MSVC\14.44.35207\include\xtree
; File C:\IAGOS\server\v18\Source\Source\_Common\Housing.cpp
; File C:\Program Files\Microsoft Visual Studio\2022\Professional\VC\Tools\MSVC\14.44.35207\include\xtree
; File C:\Program Files\Microsoft Visual Studio\2022\Professional\VC\Tools\MSVC\14.44.35207\include\type_traits
; File C:\Program Files\Microsoft Visual Studio\2022\Professional\VC\Tools\MSVC\14.44.35207\include\xtree
; File C:\Program Files\Microsoft Visual Studio\2022\Professional\VC\Tools\MSVC\14.44.35207\include\type_traits
; File C:\Program Files\Microsoft Visual Studio\2022\Professional\VC\Tools\MSVC\14.44.35207\include\xtree
; File C:\IAGOS\server\v18\Source\Source\_Common\Project.h
; File C:\Program Files\Microsoft Visual Studio\2022\Professional\VC\Tools\MSVC\14.44.35207\include\vector
; File C:\IAGOS\server\v18\Source\Source\_Common\Housing.cpp
; File C:\Program Files\Microsoft Visual Studio\2022\Professional\VC\Tools\MSVC\14.44.35207\include\vector
; File C:\IAGOS\server\v18\Source\Source\_Common\Housing.cpp
; File C:\IAGOS\server\v18\Source\Source\_Common\Obj.h
; File C:\IAGOS\server\v18\Source\Source\_Common\Housing.cpp
; File C:\IAGOS\server\v18\Source\Source\_Network\Net\Include\DPMng.h
; File C:\IAGOS\server\v18\Source\Source\_Common\Housing.cpp
;	COMDAT ?Serialize@CHousing@@QAEXAAVCAr@@@Z
_TEXT	SEGMENT
_nBufSize$3 = -16484					; size = 4
_housingInfo$4 = -16480					; size = 32
$T5 = -16448						; size = 4
tv1110 = -16448						; size = 4
$T6 = -16444						; size = 4
tv1111 = -16444						; size = 4
_this$GSCopy$1$ = -16440				; size = 4
$T7 = -16436						; size = 4
$T8 = -16436						; size = 4
_nSize$2$ = -16436					; size = 4
tv1145 = -16436						; size = 4
$T9 = -16432						; size = 4
$T10 = -16432						; size = 4
$T11 = -16432						; size = 4
$T12 = -16432						; size = 4
tv1109 = -16432						; size = 4
_i$1$ = -16428						; size = 4
_nSize$1$ = -16428					; size = 4
$T13 = -16428						; size = 4
_nSize$14 = -16424					; size = 4
_dwPlayerId$15 = -16424					; size = 4
tv1106 = -16424						; size = 4
_ar$16 = -16420						; size = 16404
__$ArrayPad$ = -16					; size = 4
__$EHRec$ = -12						; size = 12
_ar$ = 8						; size = 4
?Serialize@CHousing@@QAEXAAVCAr@@@Z PROC		; CHousing::Serialize, COMDAT
; _this$ = ecx

; 74   : {

  00000	55		 push	 ebp
  00001	8b ec		 mov	 ebp, esp
  00003	6a ff		 push	 -1
  00005	68 00 00 00 00	 push	 __ehhandler$?Serialize@CHousing@@QAEXAAVCAr@@@Z
  0000a	64 a1 00 00 00
	00		 mov	 eax, DWORD PTR fs:0
  00010	50		 push	 eax
  00011	b8 58 40 00 00	 mov	 eax, 16472		; 00004058H
  00016	e8 00 00 00 00	 call	 __chkstk
  0001b	a1 00 00 00 00	 mov	 eax, DWORD PTR ___security_cookie
  00020	33 c5		 xor	 eax, ebp
  00022	89 45 f0	 mov	 DWORD PTR __$ArrayPad$[ebp], eax
  00025	56		 push	 esi
  00026	57		 push	 edi
  00027	50		 push	 eax
  00028	8d 45 f4	 lea	 eax, DWORD PTR __$EHRec$[ebp]
  0002b	64 a3 00 00 00
	00		 mov	 DWORD PTR fs:0, eax
  00031	8b c1		 mov	 eax, ecx
  00033	89 85 c8 bf ff
	ff		 mov	 DWORD PTR _this$GSCopy$1$[ebp], eax
  00039	8b 7d 08	 mov	 edi, DWORD PTR _ar$[ebp]
; File C:\IAGOS\server\v18\Source\Source\_Network\Misc\Include\ar.h

; 146  : 	return (m_nMode & CAr::load) == 0;

  0003c	8d 70 08	 lea	 esi, DWORD PTR [eax+8]
  0003f	f6 07 01	 test	 BYTE PTR [edi], 1
; File C:\IAGOS\server\v18\Source\Source\_Common\Housing.cpp

; 75   : 	if( ar.IsStoring() )

  00042	0f 85 8e 01 00
	00		 jne	 $LN14@Serialize
; File C:\Program Files\Microsoft Visual Studio\2022\Professional\VC\Tools\MSVC\14.44.35207\include\vector

; 1915 :         return static_cast<size_type>(_My_data._Mylast - _My_data._Myfirst);

  00048	8b 46 04	 mov	 eax, DWORD PTR [esi+4]
; File C:\IAGOS\server\v18\Source\Source\_Common\Housing.cpp

; 77   : 		ar << m_vecHousingInfo.size();	// ÇĎżěÂˇ °ˇ±¸ Á¤ş¸..

  0004b	8b cf		 mov	 ecx, edi
; File C:\Program Files\Microsoft Visual Studio\2022\Professional\VC\Tools\MSVC\14.44.35207\include\vector

; 1915 :         return static_cast<size_type>(_My_data._Mylast - _My_data._Myfirst);

  0004d	2b 06		 sub	 eax, DWORD PTR [esi]
  0004f	c1 f8 05	 sar	 eax, 5
; File C:\IAGOS\server\v18\Source\Source\_Common\Housing.cpp

; 77   : 		ar << m_vecHousingInfo.size();	// ÇĎżěÂˇ °ˇ±¸ Á¤ş¸..

  00052	89 85 cc bf ff
	ff		 mov	 DWORD PTR $T7[ebp], eax
  00058	8d 85 cc bf ff
	ff		 lea	 eax, DWORD PTR $T7[ebp]
  0005e	50		 push	 eax
  0005f	e8 00 00 00 00	 call	 ??$?6I@CAr@@QAEAAV0@ABI@Z ; CAr::operator<<<unsigned int>
; File C:\Program Files\Microsoft Visual Studio\2022\Professional\VC\Tools\MSVC\14.44.35207\include\vector

; 1915 :         return static_cast<size_type>(_My_data._Mylast - _My_data._Myfirst);

  00064	8b 46 04	 mov	 eax, DWORD PTR [esi+4]
  00067	8b 0e		 mov	 ecx, DWORD PTR [esi]
  00069	2b c1		 sub	 eax, ecx
  0006b	c1 f8 05	 sar	 eax, 5
; File C:\IAGOS\server\v18\Source\Source\_Common\Housing.cpp

; 78   : 		for( DWORD i=0; i<m_vecHousingInfo.size(); i++ )

  0006e	c7 85 d4 bf ff
	ff 00 00 00 00	 mov	 DWORD PTR _i$1$[ebp], 0
  00078	85 c0		 test	 eax, eax
  0007a	0f 84 eb 00 00
	00		 je	 $LN3@Serialize
; File C:\Program Files\Microsoft Visual Studio\2022\Professional\VC\Tools\MSVC\14.44.35207\include\vector

; 1914 :         auto& _My_data = _Mypair._Myval2;

  00080	33 c0		 xor	 eax, eax
  00082	89 85 d8 bf ff
	ff		 mov	 DWORD PTR tv1106[ebp], eax
$LL4@Serialize:

; 1934 :         return _My_data._Myfirst[_Pos];

  00088	03 c8		 add	 ecx, eax
; File C:\IAGOS\server\v18\Source\Source\_Network\Misc\Include\ar.h

; 146  : 	return (m_nMode & CAr::load) == 0;

  0008a	f6 07 01	 test	 BYTE PTR [edi], 1
  0008d	8d 51 18	 lea	 edx, DWORD PTR [ecx+24]
  00090	89 95 c4 bf ff
	ff		 mov	 DWORD PTR tv1111[ebp], edx
  00096	8d 41 04	 lea	 eax, DWORD PTR [ecx+4]
  00099	8d 51 0c	 lea	 edx, DWORD PTR [ecx+12]
  0009c	89 85 cc bf ff
	ff		 mov	 DWORD PTR tv1145[ebp], eax
  000a2	89 95 c0 bf ff
	ff		 mov	 DWORD PTR tv1110[ebp], edx
  000a8	8d 51 08	 lea	 edx, DWORD PTR [ecx+8]
  000ab	89 95 d0 bf ff
	ff		 mov	 DWORD PTR tv1109[ebp], edx
; File C:\IAGOS\server\v18\Source\Source\_Common\housing.h

; 38   : 		if( ar.IsStoring() )

  000b1	8d 51 18	 lea	 edx, DWORD PTR [ecx+24]
  000b4	75 44		 jne	 SHORT $LN48@Serialize

; 39   : 			ar << dwItemId << static_cast<time_t>(tKeepTime - time_null()) << bSetup << vPos << fAngle;

  000b6	8b 00		 mov	 eax, DWORD PTR [eax]
  000b8	2b 05 00 00 00
	00		 sub	 eax, DWORD PTR ?g_tCurrent@@3JA ; g_tCurrent
  000be	89 85 cc bf ff
	ff		 mov	 DWORD PTR $T8[ebp], eax
  000c4	8d 41 0c	 lea	 eax, DWORD PTR [ecx+12]
  000c7	52		 push	 edx
  000c8	50		 push	 eax
  000c9	8d 41 08	 lea	 eax, DWORD PTR [ecx+8]
  000cc	50		 push	 eax
  000cd	8d 85 cc bf ff
	ff		 lea	 eax, DWORD PTR $T8[ebp]
  000d3	50		 push	 eax
  000d4	51		 push	 ecx
  000d5	8b cf		 mov	 ecx, edi
  000d7	e8 00 00 00 00	 call	 ??$?6K@CAr@@QAEAAV0@ABK@Z ; CAr::operator<<<unsigned long>
  000dc	8b c8		 mov	 ecx, eax
  000de	e8 00 00 00 00	 call	 ??$?6J@CAr@@QAEAAV0@ABJ@Z ; CAr::operator<<<long>
  000e3	8b c8		 mov	 ecx, eax
  000e5	e8 00 00 00 00	 call	 ??$?6H@CAr@@QAEAAV0@ABH@Z ; CAr::operator<<<int>
  000ea	8b c8		 mov	 ecx, eax
  000ec	e8 00 00 00 00	 call	 ??$?6UD3DXVECTOR3@@@CAr@@QAEAAV0@ABUD3DXVECTOR3@@@Z ; CAr::operator<<<D3DXVECTOR3>
  000f1	8b c8		 mov	 ecx, eax
  000f3	e8 00 00 00 00	 call	 ??$?6M@CAr@@QAEAAV0@ABM@Z ; CAr::operator<<<float>
  000f8	eb 45		 jmp	 SHORT $LN2@Serialize
$LN48@Serialize:

; 40   : 		else
; 41   : 		{
; 42   : 			ar >> dwItemId >> tKeepTime;

  000fa	50		 push	 eax
  000fb	51		 push	 ecx
  000fc	8b cf		 mov	 ecx, edi
  000fe	e8 00 00 00 00	 call	 ??$?5K@CAr@@QAEAAV0@AAK@Z ; CAr::operator>><unsigned long>
  00103	8b c8		 mov	 ecx, eax
  00105	e8 00 00 00 00	 call	 ??$?5J@CAr@@QAEAAV0@AAJ@Z ; CAr::operator>><long>

; 43   : 			tKeepTime += time_null();

  0010a	8b 8d cc bf ff
	ff		 mov	 ecx, DWORD PTR tv1145[ebp]

; 44   : 			ar >> bSetup >> vPos >> fAngle;

  00110	ff b5 c4 bf ff
	ff		 push	 DWORD PTR tv1111[ebp]
  00116	a1 00 00 00 00	 mov	 eax, DWORD PTR ?g_tCurrent@@3JA ; g_tCurrent
  0011b	ff b5 c0 bf ff
	ff		 push	 DWORD PTR tv1110[ebp]
  00121	01 01		 add	 DWORD PTR [ecx], eax
  00123	8b cf		 mov	 ecx, edi
  00125	8b 85 d0 bf ff
	ff		 mov	 eax, DWORD PTR tv1109[ebp]
  0012b	50		 push	 eax
  0012c	e8 00 00 00 00	 call	 ??$?5H@CAr@@QAEAAV0@AAH@Z ; CAr::operator>><int>
  00131	8b c8		 mov	 ecx, eax
  00133	e8 00 00 00 00	 call	 ??$?5UD3DXVECTOR3@@@CAr@@QAEAAV0@AAUD3DXVECTOR3@@@Z ; CAr::operator>><D3DXVECTOR3>
  00138	8b c8		 mov	 ecx, eax
  0013a	e8 00 00 00 00	 call	 ??$?5M@CAr@@QAEAAV0@AAM@Z ; CAr::operator>><float>
$LN2@Serialize:
; File C:\Program Files\Microsoft Visual Studio\2022\Professional\VC\Tools\MSVC\14.44.35207\include\vector

; 1915 :         return static_cast<size_type>(_My_data._Mylast - _My_data._Myfirst);

  0013f	8b 46 04	 mov	 eax, DWORD PTR [esi+4]
; File C:\IAGOS\server\v18\Source\Source\_Common\Housing.cpp

; 78   : 		for( DWORD i=0; i<m_vecHousingInfo.size(); i++ )

  00142	8b 95 d4 bf ff
	ff		 mov	 edx, DWORD PTR _i$1$[ebp]
; File C:\Program Files\Microsoft Visual Studio\2022\Professional\VC\Tools\MSVC\14.44.35207\include\vector

; 1915 :         return static_cast<size_type>(_My_data._Mylast - _My_data._Myfirst);

  00148	8b 0e		 mov	 ecx, DWORD PTR [esi]
; File C:\IAGOS\server\v18\Source\Source\_Common\Housing.cpp

; 78   : 		for( DWORD i=0; i<m_vecHousingInfo.size(); i++ )

  0014a	42		 inc	 edx
  0014b	83 85 d8 bf ff
	ff 20		 add	 DWORD PTR tv1106[ebp], 32 ; 00000020H
; File C:\Program Files\Microsoft Visual Studio\2022\Professional\VC\Tools\MSVC\14.44.35207\include\vector

; 1915 :         return static_cast<size_type>(_My_data._Mylast - _My_data._Myfirst);

  00152	2b c1		 sub	 eax, ecx
  00154	c1 f8 05	 sar	 eax, 5
; File C:\IAGOS\server\v18\Source\Source\_Common\Housing.cpp

; 78   : 		for( DWORD i=0; i<m_vecHousingInfo.size(); i++ )

  00157	3b d0		 cmp	 edx, eax
  00159	89 95 d4 bf ff
	ff		 mov	 DWORD PTR _i$1$[ebp], edx
  0015f	8b 85 d8 bf ff
	ff		 mov	 eax, DWORD PTR tv1106[ebp]
  00165	0f 82 1d ff ff
	ff		 jb	 $LL4@Serialize
$LN3@Serialize:
; File C:\Program Files\Microsoft Visual Studio\2022\Professional\VC\Tools\MSVC\14.44.35207\include\vector

; 1915 :         return static_cast<size_type>(_My_data._Mylast - _My_data._Myfirst);

  0016b	8b 8d c8 bf ff
	ff		 mov	 ecx, DWORD PTR _this$GSCopy$1$[ebp]
  00171	8b 41 18	 mov	 eax, DWORD PTR [ecx+24]
  00174	2b 41 14	 sub	 eax, DWORD PTR [ecx+20]
; File C:\IAGOS\server\v18\Source\Source\_Common\Housing.cpp

; 80   : 		ar << m_vecIdVisitAllow.size(); // ąćą® Çăżë ¸ń·Ď...

  00177	8b cf		 mov	 ecx, edi
; File C:\Program Files\Microsoft Visual Studio\2022\Professional\VC\Tools\MSVC\14.44.35207\include\vector

; 1915 :         return static_cast<size_type>(_My_data._Mylast - _My_data._Myfirst);

  00179	c1 f8 02	 sar	 eax, 2
; File C:\IAGOS\server\v18\Source\Source\_Common\Housing.cpp

; 80   : 		ar << m_vecIdVisitAllow.size(); // ąćą® Çăżë ¸ń·Ď...

  0017c	89 85 d0 bf ff
	ff		 mov	 DWORD PTR $T9[ebp], eax
  00182	8d 85 d0 bf ff
	ff		 lea	 eax, DWORD PTR $T9[ebp]
  00188	50		 push	 eax
  00189	e8 00 00 00 00	 call	 ??$?6I@CAr@@QAEAAV0@ABI@Z ; CAr::operator<<<unsigned int>
; File C:\Program Files\Microsoft Visual Studio\2022\Professional\VC\Tools\MSVC\14.44.35207\include\vector

; 1915 :         return static_cast<size_type>(_My_data._Mylast - _My_data._Myfirst);

  0018e	8b 85 c8 bf ff
	ff		 mov	 eax, DWORD PTR _this$GSCopy$1$[ebp]
; File C:\IAGOS\server\v18\Source\Source\_Common\Housing.cpp

; 81   : 		for( DWORD i=0; i<m_vecIdVisitAllow.size(); i++ )

  00194	33 f6		 xor	 esi, esi
; File C:\Program Files\Microsoft Visual Studio\2022\Professional\VC\Tools\MSVC\14.44.35207\include\vector

; 1915 :         return static_cast<size_type>(_My_data._Mylast - _My_data._Myfirst);

  00196	8b 48 14	 mov	 ecx, DWORD PTR [eax+20]
  00199	8b 40 18	 mov	 eax, DWORD PTR [eax+24]
  0019c	2b c1		 sub	 eax, ecx
  0019e	c1 f8 02	 sar	 eax, 2
; File C:\IAGOS\server\v18\Source\Source\_Common\Housing.cpp

; 81   : 		for( DWORD i=0; i<m_vecIdVisitAllow.size(); i++ )

  001a1	85 c0		 test	 eax, eax
  001a3	0f 84 6d 03 00
	00		 je	 $LN12@Serialize
  001a9	0f 1f 80 00 00
	00 00		 npad	 7
$LL7@Serialize:
; File C:\Program Files\Microsoft Visual Studio\2022\Professional\VC\Tools\MSVC\14.44.35207\include\vector

; 1934 :         return _My_data._Myfirst[_Pos];

  001b0	8d 04 b1	 lea	 eax, DWORD PTR [ecx+esi*4]
; File C:\IAGOS\server\v18\Source\Source\_Common\Housing.cpp

; 82   : 			ar << m_vecIdVisitAllow[i];

  001b3	8b cf		 mov	 ecx, edi
  001b5	50		 push	 eax
  001b6	e8 00 00 00 00	 call	 ??$?6K@CAr@@QAEAAV0@ABK@Z ; CAr::operator<<<unsigned long>
; File C:\Program Files\Microsoft Visual Studio\2022\Professional\VC\Tools\MSVC\14.44.35207\include\vector

; 1915 :         return static_cast<size_type>(_My_data._Mylast - _My_data._Myfirst);

  001bb	8b 85 c8 bf ff
	ff		 mov	 eax, DWORD PTR _this$GSCopy$1$[ebp]
; File C:\IAGOS\server\v18\Source\Source\_Common\Housing.cpp

; 81   : 		for( DWORD i=0; i<m_vecIdVisitAllow.size(); i++ )

  001c1	46		 inc	 esi
; File C:\Program Files\Microsoft Visual Studio\2022\Professional\VC\Tools\MSVC\14.44.35207\include\vector

; 1915 :         return static_cast<size_type>(_My_data._Mylast - _My_data._Myfirst);

  001c2	8b 48 14	 mov	 ecx, DWORD PTR [eax+20]
  001c5	8b 40 18	 mov	 eax, DWORD PTR [eax+24]
  001c8	2b c1		 sub	 eax, ecx
  001ca	c1 f8 02	 sar	 eax, 2
; File C:\IAGOS\server\v18\Source\Source\_Common\Housing.cpp

; 81   : 		for( DWORD i=0; i<m_vecIdVisitAllow.size(); i++ )

  001cd	3b f0		 cmp	 esi, eax
  001cf	72 df		 jb	 SHORT $LL7@Serialize

; 83   : 	}

  001d1	e9 40 03 00 00	 jmp	 $LN12@Serialize
$LN14@Serialize:
; File C:\Program Files\Microsoft Visual Studio\2022\Professional\VC\Tools\MSVC\14.44.35207\include\vector

; 1812 :         if (_Myfirst == _Mylast) { // already empty, nothing to do

  001d6	8b 06		 mov	 eax, DWORD PTR [esi]
  001d8	3b 46 04	 cmp	 eax, DWORD PTR [esi+4]
  001db	74 03		 je	 SHORT $LN149@Serialize

; 1813 :             // This is an optimization for debug mode: we can avoid taking the debug lock to invalidate iterators.
; 1814 :             // Note that when clearing an empty vector, this will preserve past-the-end iterators, which is allowed by
; 1815 :             // N4950 [sequence.reqmts]/54 "a.clear() [...] may invalidate the past-the-end iterator".
; 1816 :             return;
; 1817 :         }
; 1818 : 
; 1819 :         _My_data._Orphan_all();
; 1820 :         _Destroy_range(_Myfirst, _Mylast, _Getal());
; 1821 :         _ASAN_VECTOR_MODIFY(static_cast<difference_type>(_Myfirst - _Mylast)); // negative when destroying elements
; 1822 :         _Mylast = _Myfirst;

  001dd	89 46 04	 mov	 DWORD PTR [esi+4], eax
$LN149@Serialize:
; File C:\IAGOS\server\v18\Source\Source\_Common\Housing.cpp

; 88   : 		ar >> nSize;

  001e0	8d 85 d8 bf ff
	ff		 lea	 eax, DWORD PTR _nSize$14[ebp]
  001e6	c7 85 d8 bf ff
	ff 00 00 00 00	 mov	 DWORD PTR _nSize$14[ebp], 0
  001f0	50		 push	 eax
  001f1	8b cf		 mov	 ecx, edi
  001f3	e8 00 00 00 00	 call	 ??$?5H@CAr@@QAEAAV0@AAH@Z ; CAr::operator>><int>

; 89   : 		for( int i=0; i<nSize; i++ )

  001f8	8b 85 d8 bf ff
	ff		 mov	 eax, DWORD PTR _nSize$14[ebp]
  001fe	89 85 d4 bf ff
	ff		 mov	 DWORD PTR _nSize$1$[ebp], eax
  00204	85 c0		 test	 eax, eax
  00206	0f 8e 1e 01 00
	00		 jle	 $LN9@Serialize
  0020c	0f 1f 40 00	 npad	 4
$LL10@Serialize:
; File C:\IAGOS\server\v18\Source\Source\_Network\Misc\Include\ar.h

; 146  : 	return (m_nMode & CAr::load) == 0;

  00210	f6 07 01	 test	 BYTE PTR [edi], 1
  00213	0f 57 c0	 xorps	 xmm0, xmm0
; File C:\IAGOS\server\v18\Source\Source\_Common\housing.h

; 20   : 	HOUSINGINFO() : dwItemId(NULL_ID), tKeepTime(0), vPos(0.0f,0.0f,0.0f), bSetup(FALSE), fAngle(0.0f)

  00216	c7 85 a0 bf ff
	ff ff ff ff ff	 mov	 DWORD PTR _housingInfo$4[ebp], -1

; 38   : 		if( ar.IsStoring() )

  00220	8b cf		 mov	 ecx, edi

; 20   : 	HOUSINGINFO() : dwItemId(NULL_ID), tKeepTime(0), vPos(0.0f,0.0f,0.0f), bSetup(FALSE), fAngle(0.0f)

  00222	c7 85 a4 bf ff
	ff 00 00 00 00	 mov	 DWORD PTR _housingInfo$4[ebp+4], 0
  0022c	c7 85 a8 bf ff
	ff 00 00 00 00	 mov	 DWORD PTR _housingInfo$4[ebp+8], 0
; File C:\IAGOS\server\v18\Source\Source\DX_SDK\d3dx9math.inl

; 300  :     x = fx;

  00236	0f 11 85 ac bf
	ff ff		 movups	 XMMWORD PTR _housingInfo$4[ebp+12], xmm0
; File C:\IAGOS\server\v18\Source\Source\_Common\housing.h

; 22   : 	, objId( NULL_ID )

  0023d	c7 85 bc bf ff
	ff ff ff ff ff	 mov	 DWORD PTR _housingInfo$4[ebp+28], -1

; 38   : 		if( ar.IsStoring() )

  00247	75 53		 jne	 SHORT $LN63@Serialize

; 39   : 			ar << dwItemId << static_cast<time_t>(tKeepTime - time_null()) << bSetup << vPos << fAngle;

  00249	a1 00 00 00 00	 mov	 eax, DWORD PTR ?g_tCurrent@@3JA ; g_tCurrent
  0024e	f7 d8		 neg	 eax
  00250	89 85 d0 bf ff
	ff		 mov	 DWORD PTR $T12[ebp], eax
  00256	8d 85 b8 bf ff
	ff		 lea	 eax, DWORD PTR _housingInfo$4[ebp+24]
  0025c	50		 push	 eax
  0025d	8d 85 ac bf ff
	ff		 lea	 eax, DWORD PTR _housingInfo$4[ebp+12]
  00263	50		 push	 eax
  00264	8d 85 a8 bf ff
	ff		 lea	 eax, DWORD PTR _housingInfo$4[ebp+8]
  0026a	50		 push	 eax
  0026b	8d 85 d0 bf ff
	ff		 lea	 eax, DWORD PTR $T12[ebp]
  00271	50		 push	 eax
  00272	8d 85 a0 bf ff
	ff		 lea	 eax, DWORD PTR _housingInfo$4[ebp]
  00278	50		 push	 eax
  00279	e8 00 00 00 00	 call	 ??$?6K@CAr@@QAEAAV0@ABK@Z ; CAr::operator<<<unsigned long>
  0027e	8b c8		 mov	 ecx, eax
  00280	e8 00 00 00 00	 call	 ??$?6J@CAr@@QAEAAV0@ABJ@Z ; CAr::operator<<<long>
  00285	8b c8		 mov	 ecx, eax
  00287	e8 00 00 00 00	 call	 ??$?6H@CAr@@QAEAAV0@ABH@Z ; CAr::operator<<<int>
  0028c	8b c8		 mov	 ecx, eax
  0028e	e8 00 00 00 00	 call	 ??$?6UD3DXVECTOR3@@@CAr@@QAEAAV0@ABUD3DXVECTOR3@@@Z ; CAr::operator<<<D3DXVECTOR3>
  00293	8b c8		 mov	 ecx, eax
  00295	e8 00 00 00 00	 call	 ??$?6M@CAr@@QAEAAV0@ABM@Z ; CAr::operator<<<float>
  0029a	eb 4f		 jmp	 SHORT $LN64@Serialize
$LN63@Serialize:

; 40   : 		else
; 41   : 		{
; 42   : 			ar >> dwItemId >> tKeepTime;

  0029c	8d 85 a4 bf ff
	ff		 lea	 eax, DWORD PTR _housingInfo$4[ebp+4]
  002a2	50		 push	 eax
  002a3	8d 85 a0 bf ff
	ff		 lea	 eax, DWORD PTR _housingInfo$4[ebp]
  002a9	50		 push	 eax
  002aa	e8 00 00 00 00	 call	 ??$?5K@CAr@@QAEAAV0@AAK@Z ; CAr::operator>><unsigned long>
  002af	8b c8		 mov	 ecx, eax
  002b1	e8 00 00 00 00	 call	 ??$?5J@CAr@@QAEAAV0@AAJ@Z ; CAr::operator>><long>

; 43   : 			tKeepTime += time_null();

  002b6	a1 00 00 00 00	 mov	 eax, DWORD PTR ?g_tCurrent@@3JA ; g_tCurrent

; 44   : 			ar >> bSetup >> vPos >> fAngle;

  002bb	8b cf		 mov	 ecx, edi
  002bd	01 85 a4 bf ff
	ff		 add	 DWORD PTR _housingInfo$4[ebp+4], eax
  002c3	8d 85 b8 bf ff
	ff		 lea	 eax, DWORD PTR _housingInfo$4[ebp+24]
  002c9	50		 push	 eax
  002ca	8d 85 ac bf ff
	ff		 lea	 eax, DWORD PTR _housingInfo$4[ebp+12]
  002d0	50		 push	 eax
  002d1	8d 85 a8 bf ff
	ff		 lea	 eax, DWORD PTR _housingInfo$4[ebp+8]
  002d7	50		 push	 eax
  002d8	e8 00 00 00 00	 call	 ??$?5H@CAr@@QAEAAV0@AAH@Z ; CAr::operator>><int>
  002dd	8b c8		 mov	 ecx, eax
  002df	e8 00 00 00 00	 call	 ??$?5UD3DXVECTOR3@@@CAr@@QAEAAV0@AAUD3DXVECTOR3@@@Z ; CAr::operator>><D3DXVECTOR3>
  002e4	8b c8		 mov	 ecx, eax
  002e6	e8 00 00 00 00	 call	 ??$?5M@CAr@@QAEAAV0@AAM@Z ; CAr::operator>><float>
$LN64@Serialize:
; File C:\Program Files\Microsoft Visual Studio\2022\Professional\VC\Tools\MSVC\14.44.35207\include\vector

; 844  :         if (_Mylast != _My_data._Myend) {

  002eb	8b 46 04	 mov	 eax, DWORD PTR [esi+4]
  002ee	3b 46 08	 cmp	 eax, DWORD PTR [esi+8]
  002f1	74 1b		 je	 SHORT $LN73@Serialize
; File C:\Program Files\Microsoft Visual Studio\2022\Professional\VC\Tools\MSVC\14.44.35207\include\xutility

; 476  :         ::new (static_cast<void*>(_STD addressof(_Obj))) _Ty(_STD forward<_Types>(_Args)...);

  002f3	0f 10 85 a0 bf
	ff ff		 movups	 xmm0, XMMWORD PTR _housingInfo$4[ebp]
  002fa	0f 11 00	 movups	 XMMWORD PTR [eax], xmm0
  002fd	0f 10 85 b0 bf
	ff ff		 movups	 xmm0, XMMWORD PTR _housingInfo$4[ebp+16]
  00304	0f 11 40 10	 movups	 XMMWORD PTR [eax+16], xmm0
; File C:\Program Files\Microsoft Visual Studio\2022\Professional\VC\Tools\MSVC\14.44.35207\include\vector

; 869  :         ++_Mylast;

  00308	83 46 04 20	 add	 DWORD PTR [esi+4], 32	; 00000020H

; 845  :             return _Emplace_back_with_unused_capacity(_STD forward<_Valty>(_Val)...);

  0030c	eb 0f		 jmp	 SHORT $LN8@Serialize
$LN73@Serialize:

; 846  :         }
; 847  : 
; 848  :         return *_Emplace_reallocate(_Mylast, _STD forward<_Valty>(_Val)...);

  0030e	8d 8d a0 bf ff
	ff		 lea	 ecx, DWORD PTR _housingInfo$4[ebp]
  00314	51		 push	 ecx
  00315	50		 push	 eax
  00316	8b ce		 mov	 ecx, esi
  00318	e8 00 00 00 00	 call	 ??$_Emplace_reallocate@ABUHOUSINGINFO@@@?$vector@UHOUSINGINFO@@V?$allocator@UHOUSINGINFO@@@std@@@std@@AAEPAUHOUSINGINFO@@QAU2@ABU2@@Z ; std::vector<HOUSINGINFO,std::allocator<HOUSINGINFO> >::_Emplace_reallocate<HOUSINGINFO const &>
$LN8@Serialize:
; File C:\IAGOS\server\v18\Source\Source\_Common\Housing.cpp

; 89   : 		for( int i=0; i<nSize; i++ )

  0031d	83 ad d4 bf ff
	ff 01		 sub	 DWORD PTR _nSize$1$[ebp], 1
  00324	0f 85 e6 fe ff
	ff		 jne	 $LL10@Serialize
$LN9@Serialize:
; File C:\Program Files\Microsoft Visual Studio\2022\Professional\VC\Tools\MSVC\14.44.35207\include\xtree

; 1630 :         _Tree_find_result<_Nodeptr> _Result{{_Scary->_Myhead->_Parent, _Tree_child::_Right}, _Scary->_Myhead};

  0032a	8b 15 28 00 00
	00		 mov	 edx, DWORD PTR ?prj@@3VCProject@@A+40
; File C:\IAGOS\server\v18\Source\Source\_Common\Housing.cpp

; 96   : 		CUser* pUser = static_cast<CUser*>( prj.GetUserByID( m_dwMasterId ) );

  00330	8b 8d c8 bf ff
	ff		 mov	 ecx, DWORD PTR _this$GSCopy$1$[ebp]
; File C:\Program Files\Microsoft Visual Studio\2022\Professional\VC\Tools\MSVC\14.44.35207\include\xtree

; 1630 :         _Tree_find_result<_Nodeptr> _Result{{_Scary->_Myhead->_Parent, _Tree_child::_Right}, _Scary->_Myhead};

  00336	8b 42 04	 mov	 eax, DWORD PTR [edx+4]
; File C:\IAGOS\server\v18\Source\Source\_Common\Housing.cpp

; 96   : 		CUser* pUser = static_cast<CUser*>( prj.GetUserByID( m_dwMasterId ) );

  00339	8b 71 04	 mov	 esi, DWORD PTR [ecx+4]
; File C:\Program Files\Microsoft Visual Studio\2022\Professional\VC\Tools\MSVC\14.44.35207\include\xtree

; 1632 :         while (!_Trynode->_Isnil) {

  0033c	80 78 0d 00	 cmp	 BYTE PTR [eax+13], 0
  00340	75 14		 jne	 SHORT $LN90@Serialize
$LL89@Serialize:
; File C:\Program Files\Microsoft Visual Studio\2022\Professional\VC\Tools\MSVC\14.44.35207\include\type_traits

; 2380 :         return _Left < _Right;

  00342	39 70 10	 cmp	 DWORD PTR [eax+16], esi
; File C:\Program Files\Microsoft Visual Studio\2022\Professional\VC\Tools\MSVC\14.44.35207\include\xtree

; 1634 :             if (_DEBUG_LT_PRED(_Getcomp(), _Traits::_Kfn(_Trynode->_Myval), _Keyval)) {

  00345	73 05		 jae	 SHORT $LN91@Serialize

; 1635 :                 _Result._Location._Child = _Tree_child::_Right;
; 1636 :                 _Trynode                 = _Trynode->_Right;

  00347	8b 40 08	 mov	 eax, DWORD PTR [eax+8]

; 1637 :             } else {

  0034a	eb 04		 jmp	 SHORT $LN92@Serialize
$LN91@Serialize:

; 1638 :                 _Result._Location._Child = _Tree_child::_Left;
; 1639 :                 _Result._Bound           = _Trynode;

  0034c	8b d0		 mov	 edx, eax

; 1640 :                 _Trynode                 = _Trynode->_Left;

  0034e	8b 00		 mov	 eax, DWORD PTR [eax]
$LN92@Serialize:

; 1632 :         while (!_Trynode->_Isnil) {

  00350	80 78 0d 00	 cmp	 BYTE PTR [eax+13], 0
  00354	74 ec		 je	 SHORT $LL89@Serialize
$LN90@Serialize:

; 1624 :         return !_Bound->_Isnil && !_DEBUG_LT_PRED(_Getcomp(), _Keyval, _Traits::_Kfn(_Bound->_Myval));

  00356	80 7a 0d 00	 cmp	 BYTE PTR [edx+13], 0
  0035a	75 0c		 jne	 SHORT $LN86@Serialize
; File C:\Program Files\Microsoft Visual Studio\2022\Professional\VC\Tools\MSVC\14.44.35207\include\type_traits

; 2380 :         return _Left < _Right;

  0035c	3b 72 10	 cmp	 esi, DWORD PTR [edx+16]
; File C:\Program Files\Microsoft Visual Studio\2022\Professional\VC\Tools\MSVC\14.44.35207\include\xtree

; 1624 :         return !_Bound->_Isnil && !_DEBUG_LT_PRED(_Getcomp(), _Keyval, _Traits::_Kfn(_Bound->_Myval));

  0035f	72 07		 jb	 SHORT $LN86@Serialize

; 1386 :             return _Loc._Bound;

  00361	a1 28 00 00 00	 mov	 eax, DWORD PTR ?prj@@3VCProject@@A+40
  00366	eb 07		 jmp	 SHORT $LN85@Serialize
$LN86@Serialize:

; 1387 :         }
; 1388 : 
; 1389 :         return _Get_scary()->_Myhead;

  00368	a1 28 00 00 00	 mov	 eax, DWORD PTR ?prj@@3VCProject@@A+40
  0036d	8b d0		 mov	 edx, eax
$LN85@Serialize:

; 37   :     _Tree_unchecked_const_iterator(_Nodeptr _Pnode, const _Mytree* _Plist) noexcept : _Ptr(_Pnode) {

  0036f	3b d0		 cmp	 edx, eax
; File C:\IAGOS\server\v18\Source\Source\_Common\Project.h

; 1436 : 	if( i != m_idPlayerToUserPtr.end() )

  00371	74 05		 je	 SHORT $LN81@Serialize

; 1437 : 		return i->second;

  00373	8b 42 14	 mov	 eax, DWORD PTR [edx+20]
  00376	eb 02		 jmp	 SHORT $LN175@Serialize
$LN81@Serialize:

; 1438 : 	return NULL;

  00378	33 c0		 xor	 eax, eax
$LN175@Serialize:
; File C:\Program Files\Microsoft Visual Studio\2022\Professional\VC\Tools\MSVC\14.44.35207\include\vector

; 1808 :         auto& _My_data    = _Mypair._Myval2;

  0037a	8d 71 14	 lea	 esi, DWORD PTR [ecx+20]
  0037d	89 85 d4 bf ff
	ff		 mov	 DWORD PTR $T13[ebp], eax

; 1812 :         if (_Myfirst == _Mylast) { // already empty, nothing to do

  00383	8b 06		 mov	 eax, DWORD PTR [esi]
  00385	3b 46 04	 cmp	 eax, DWORD PTR [esi+4]
  00388	74 03		 je	 SHORT $LN140@Serialize

; 1813 :             // This is an optimization for debug mode: we can avoid taking the debug lock to invalidate iterators.
; 1814 :             // Note that when clearing an empty vector, this will preserve past-the-end iterators, which is allowed by
; 1815 :             // N4950 [sequence.reqmts]/54 "a.clear() [...] may invalidate the past-the-end iterator".
; 1816 :             return;
; 1817 :         }
; 1818 : 
; 1819 :         _My_data._Orphan_all();
; 1820 :         _Destroy_range(_Myfirst, _Mylast, _Getal());
; 1821 :         _ASAN_VECTOR_MODIFY(static_cast<difference_type>(_Myfirst - _Mylast)); // negative when destroying elements
; 1822 :         _Mylast = _Myfirst;

  0038a	89 46 04	 mov	 DWORD PTR [esi+4], eax
$LN140@Serialize:
; File C:\IAGOS\server\v18\Source\Source\_Common\Housing.cpp

; 99   : 		ar >> nSize;

  0038d	8d 85 d8 bf ff
	ff		 lea	 eax, DWORD PTR _nSize$14[ebp]
  00393	8b cf		 mov	 ecx, edi
  00395	50		 push	 eax
  00396	e8 00 00 00 00	 call	 ??$?5H@CAr@@QAEAAV0@AAH@Z ; CAr::operator>><int>

; 100  : 		for( int i=0; i<nSize; i++ )

  0039b	8b 85 d8 bf ff
	ff		 mov	 eax, DWORD PTR _nSize$14[ebp]
  003a1	89 85 cc bf ff
	ff		 mov	 DWORD PTR _nSize$2$[ebp], eax
  003a7	85 c0		 test	 eax, eax
  003a9	0f 8e 67 01 00
	00		 jle	 $LN12@Serialize
  003af	90		 npad	 1
$LL13@Serialize:

; 101  : 		{
; 102  : 			DWORD dwPlayerId;
; 103  : 			ar >> dwPlayerId;

  003b0	8d 85 d8 bf ff
	ff		 lea	 eax, DWORD PTR _dwPlayerId$15[ebp]
  003b6	8b cf		 mov	 ecx, edi
  003b8	50		 push	 eax
  003b9	e8 00 00 00 00	 call	 ??$?5K@CAr@@QAEAAV0@AAK@Z ; CAr::operator>><unsigned long>
; File C:\Program Files\Microsoft Visual Studio\2022\Professional\VC\Tools\MSVC\14.44.35207\include\vector

; 844  :         if (_Mylast != _My_data._Myend) {

  003be	8b 46 04	 mov	 eax, DWORD PTR [esi+4]
  003c1	3b 46 08	 cmp	 eax, DWORD PTR [esi+8]
  003c4	74 0e		 je	 SHORT $LN28@Serialize

; 860  :             _STD _Construct_in_place(*_Mylast, _STD forward<_Valty>(_Val)...);

  003c6	8b 8d d8 bf ff
	ff		 mov	 ecx, DWORD PTR _dwPlayerId$15[ebp]
  003cc	89 08		 mov	 DWORD PTR [eax], ecx

; 869  :         ++_Mylast;

  003ce	83 46 04 04	 add	 DWORD PTR [esi+4], 4

; 845  :             return _Emplace_back_with_unused_capacity(_STD forward<_Valty>(_Val)...);

  003d2	eb 15		 jmp	 SHORT $LN27@Serialize
$LN28@Serialize:

; 846  :         }
; 847  : 
; 848  :         return *_Emplace_reallocate(_Mylast, _STD forward<_Valty>(_Val)...);

  003d4	8d 8d d8 bf ff
	ff		 lea	 ecx, DWORD PTR _dwPlayerId$15[ebp]
  003da	51		 push	 ecx
  003db	50		 push	 eax
  003dc	8b ce		 mov	 ecx, esi
  003de	e8 00 00 00 00	 call	 ??$_Emplace_reallocate@ABK@?$vector@KV?$allocator@K@std@@@std@@AAEPAKQAKABK@Z ; std::vector<unsigned long,std::allocator<unsigned long> >::_Emplace_reallocate<unsigned long const &>
  003e3	8b 8d d8 bf ff
	ff		 mov	 ecx, DWORD PTR _dwPlayerId$15[ebp]
$LN27@Serialize:
; File C:\IAGOS\server\v18\Source\Source\_Common\Housing.cpp

; 106  : 			CHousingMng::GetInstance()->SetAddVisitable( m_dwMasterId, dwPlayerId );

  003e9	8b 85 c8 bf ff
	ff		 mov	 eax, DWORD PTR _this$GSCopy$1$[ebp]
  003ef	51		 push	 ecx
  003f0	ff 70 04	 push	 DWORD PTR [eax+4]
  003f3	e8 00 00 00 00	 call	 ?GetInstance@CHousingMng@@SAPAV1@XZ ; CHousingMng::GetInstance
  003f8	8b c8		 mov	 ecx, eax
  003fa	e8 00 00 00 00	 call	 ?SetAddVisitable@CHousingMng@@QAEXKK@Z ; CHousingMng::SetAddVisitable
; File C:\IAGOS\server\v18\Source\Source\_Common\Obj.h

; 327  : 	return pObj && ( pObj->IsDelete() == FALSE ); 

  003ff	8b 85 d4 bf ff
	ff		 mov	 eax, DWORD PTR $T13[ebp]
  00405	85 c0		 test	 eax, eax
  00407	0f 84 fc 00 00
	00		 je	 $LN11@Serialize

; 180  : 	BOOL			IsDelete()	{ return (m_dwFlags & OBJ_FLAG_DELETE);  }

  0040d	f6 40 04 01	 test	 BYTE PTR [eax+4], 1

; 327  : 	return pObj && ( pObj->IsDelete() == FALSE ); 

  00411	0f 85 f2 00 00
	00		 jne	 $LN11@Serialize
; File C:\IAGOS\server\v18\Source\Source\_Common\Housing.cpp

; 107  : 			if( IsValidObj( pUser ) && !pUser->m_RTMessenger.GetFriend( dwPlayerId ) )

  00417	ff b5 d8 bf ff
	ff		 push	 DWORD PTR _dwPlayerId$15[ebp]
  0041d	8d 88 44 8e 00
	00		 lea	 ecx, DWORD PTR [eax+36420]
  00423	e8 00 00 00 00	 call	 ?GetFriend@CRTMessenger@@QAEPAU_Friend@@K@Z ; CRTMessenger::GetFriend
  00428	85 c0		 test	 eax, eax
  0042a	0f 85 d9 00 00
	00		 jne	 $LN11@Serialize

; 108  : 			{
; 109  : 				BEFORESENDDUAL( ar, PACKETTYPE_HOUSING_SETVISITALLOW, DPID_UNKNOWN, DPID_UNKNOWN );

  00430	50		 push	 eax
  00431	50		 push	 eax
  00432	8d 8d dc bf ff
	ff		 lea	 ecx, DWORD PTR _ar$16[ebp]
  00438	e8 00 00 00 00	 call	 ??0CAr@@QAE@PAXI@Z	; CAr::CAr
  0043d	8d 85 d0 bf ff
	ff		 lea	 eax, DWORD PTR $T10[ebp]
  00443	c7 45 fc 00 00
	00 00		 mov	 DWORD PTR __$EHRec$[ebp+8], 0
  0044a	50		 push	 eax
  0044b	8d 85 c0 bf ff
	ff		 lea	 eax, DWORD PTR $T5[ebp]
  00451	c7 85 d0 bf ff
	ff 05 30 00 70	 mov	 DWORD PTR $T10[ebp], 1879060485 ; 70003005H
  0045b	50		 push	 eax
  0045c	8d 85 c4 bf ff
	ff		 lea	 eax, DWORD PTR $T6[ebp]
  00462	c7 85 c0 bf ff
	ff ff ff ff ff	 mov	 DWORD PTR $T5[ebp], -1
  0046c	50		 push	 eax
  0046d	8d 8d dc bf ff
	ff		 lea	 ecx, DWORD PTR _ar$16[ebp]
  00473	c7 85 c4 bf ff
	ff ff ff ff ff	 mov	 DWORD PTR $T6[ebp], -1
  0047d	e8 00 00 00 00	 call	 ??$?6I@CAr@@QAEAAV0@ABI@Z ; CAr::operator<<<unsigned int>
  00482	8b c8		 mov	 ecx, eax
  00484	e8 00 00 00 00	 call	 ??$?6I@CAr@@QAEAAV0@ABI@Z ; CAr::operator<<<unsigned int>
  00489	8b c8		 mov	 ecx, eax
  0048b	e8 00 00 00 00	 call	 ??$?6K@CAr@@QAEAAV0@ABK@Z ; CAr::operator<<<unsigned long>

; 110  : 				ar << pUser->m_idPlayer << dwPlayerId << FALSE;

  00490	8d 85 d0 bf ff
	ff		 lea	 eax, DWORD PTR $T11[ebp]
  00496	c7 85 d0 bf ff
	ff 00 00 00 00	 mov	 DWORD PTR $T11[ebp], 0
  004a0	50		 push	 eax
  004a1	8d 85 d8 bf ff
	ff		 lea	 eax, DWORD PTR _dwPlayerId$15[ebp]
  004a7	50		 push	 eax
  004a8	8b 85 d4 bf ff
	ff		 mov	 eax, DWORD PTR $T13[ebp]
  004ae	8d 8d dc bf ff
	ff		 lea	 ecx, DWORD PTR _ar$16[ebp]
  004b4	05 34 02 00 00	 add	 eax, 564		; 00000234H
  004b9	50		 push	 eax
  004ba	e8 00 00 00 00	 call	 ??$?6K@CAr@@QAEAAV0@ABK@Z ; CAr::operator<<<unsigned long>
  004bf	8b c8		 mov	 ecx, eax
  004c1	e8 00 00 00 00	 call	 ??$?6K@CAr@@QAEAAV0@ABK@Z ; CAr::operator<<<unsigned long>
  004c6	8b c8		 mov	 ecx, eax
  004c8	e8 00 00 00 00	 call	 ??$?6H@CAr@@QAEAAV0@ABH@Z ; CAr::operator<<<int>

; 111  : 				SEND( ar, &g_dpDBClient, DPID_SERVERPLAYER );

  004cd	8d 85 9c bf ff
	ff		 lea	 eax, DWORD PTR _nBufSize$3[ebp]
  004d3	50		 push	 eax
  004d4	8d 8d dc bf ff
	ff		 lea	 ecx, DWORD PTR _ar$16[ebp]
  004da	e8 00 00 00 00	 call	 ?GetBuffer@CAr@@QAEPAEPAH@Z ; CAr::GetBuffer
; File C:\IAGOS\server\v18\Source\Source\_Network\Net\Include\DPMng.h

; 171  : 	if( !m_pDPSock )

  004df	8b 0d 04 00 00
	00		 mov	 ecx, DWORD PTR ?g_dpDBClient@@3VCDPDatabaseClient@@A+4
  004e5	85 c9		 test	 ecx, ecx
  004e7	74 0e		 je	 SHORT $LN38@Serialize

; 172  : 		return FALSE;
; 173  : 	return m_pDPSock->Send( (char*)lpData, dwDataSize, dpidTo );

  004e9	6a 01		 push	 1
  004eb	ff b5 9c bf ff
	ff		 push	 DWORD PTR _nBufSize$3[ebp]
  004f1	50		 push	 eax
  004f2	e8 00 00 00 00	 call	 ?Send@CDPSock@@QAEHPADKK@Z ; CDPSock::Send
$LN38@Serialize:
; File C:\IAGOS\server\v18\Source\Source\_Common\Housing.cpp

; 112  : 			}

  004f7	8d 8d dc bf ff
	ff		 lea	 ecx, DWORD PTR _ar$16[ebp]
  004fd	c7 45 fc ff ff
	ff ff		 mov	 DWORD PTR __$EHRec$[ebp+8], -1
  00504	e8 00 00 00 00	 call	 ??1CAr@@QAE@XZ		; CAr::~CAr
$LN11@Serialize:

; 100  : 		for( int i=0; i<nSize; i++ )

  00509	83 ad cc bf ff
	ff 01		 sub	 DWORD PTR _nSize$2$[ebp], 1
  00510	0f 85 9a fe ff
	ff		 jne	 $LL13@Serialize
$LN12@Serialize:

; 113  : #endif // __WORLDSERVER
; 114  : 		}
; 115  : 	}
; 116  : }

  00516	8b 4d f4	 mov	 ecx, DWORD PTR __$EHRec$[ebp]
  00519	64 89 0d 00 00
	00 00		 mov	 DWORD PTR fs:0, ecx
  00520	59		 pop	 ecx
  00521	5f		 pop	 edi
  00522	5e		 pop	 esi
  00523	8b 4d f0	 mov	 ecx, DWORD PTR __$ArrayPad$[ebp]
  00526	33 cd		 xor	 ecx, ebp
  00528	e8 00 00 00 00	 call	 @__security_check_cookie@4
  0052d	8b e5		 mov	 esp, ebp
  0052f	5d		 pop	 ebp
  00530	c2 04 00	 ret	 4
_TEXT	ENDS
;	COMDAT text$x
text$x	SEGMENT
__unwindfunclet$?Serialize@CHousing@@QAEXAAVCAr@@@Z$0:
  00000	8d 8d dc bf ff
	ff		 lea	 ecx, DWORD PTR _ar$16[ebp]
  00006	e9 00 00 00 00	 jmp	 ??1CAr@@QAE@XZ		; CAr::~CAr
  0000b	cc		 int	 3
  0000c	cc		 int	 3
  0000d	cc		 int	 3
  0000e	cc		 int	 3
  0000f	cc		 int	 3
__ehhandler$?Serialize@CHousing@@QAEXAAVCAr@@@Z:
  00010	90		 npad	 1
  00011	90		 npad	 1
  00012	8b 54 24 08	 mov	 edx, DWORD PTR [esp+8]
  00016	8d 42 0c	 lea	 eax, DWORD PTR [edx+12]
  00019	8b 8a 9c bf ff
	ff		 mov	 ecx, DWORD PTR [edx-16484]
  0001f	33 c8		 xor	 ecx, eax
  00021	e8 00 00 00 00	 call	 @__security_check_cookie@4
  00026	8b 4a fc	 mov	 ecx, DWORD PTR [edx-4]
  00029	33 c8		 xor	 ecx, eax
  0002b	e8 00 00 00 00	 call	 @__security_check_cookie@4
  00030	b8 00 00 00 00	 mov	 eax, OFFSET __ehfuncinfo$?Serialize@CHousing@@QAEXAAVCAr@@@Z
  00035	e9 00 00 00 00	 jmp	 ___CxxFrameHandler3
text$x	ENDS
?Serialize@CHousing@@QAEXAAVCAr@@@Z ENDP		; CHousing::Serialize
; Function compile flags: /Ogtp
; File C:\IAGOS\server\v18\Source\Source\_Common\Housing.cpp
; File C:\IAGOS\server\v18\Source\Source\_Common\World.h
; File C:\Program Files\Microsoft Visual Studio\2022\Professional\VC\Tools\MSVC\14.44.35207\include\vector
; File C:\IAGOS\server\v18\Source\Source\_Common\Housing.cpp
; File C:\Program Files\Microsoft Visual Studio\2022\Professional\VC\Tools\MSVC\14.44.35207\include\vector
; File C:\IAGOS\server\v18\Source\Source\_Common\Housing.cpp
; File C:\Program Files\Microsoft Visual Studio\2022\Professional\VC\Tools\MSVC\14.44.35207\include\vector
; File C:\IAGOS\server\v18\Source\Source\_Common\Housing.cpp
; File C:\Program Files\Microsoft Visual Studio\2022\Professional\VC\Tools\MSVC\14.44.35207\include\vector
; File C:\IAGOS\server\v18\Source\Source\_Common\Housing.cpp
; File C:\IAGOS\server\v18\Source\Source\_Common\World.h
; File C:\IAGOS\server\v18\Source\Source\_Common\Housing.cpp
; File C:\Program Files\Microsoft Visual Studio\2022\Professional\VC\Tools\MSVC\14.44.35207\include\vector
; File C:\IAGOS\server\v18\Source\Source\_Common\Housing.cpp
;	COMDAT ??1CHousing@@QAE@XZ
_TEXT	SEGMENT
__$EHRec$ = -12						; size = 12
??1CHousing@@QAE@XZ PROC				; CHousing::~CHousing, COMDAT
; _this$ = ecx

; 41   : {

  00000	55		 push	 ebp
  00001	8b ec		 mov	 ebp, esp
  00003	6a ff		 push	 -1
  00005	68 00 00 00 00	 push	 __ehhandler$??1CHousing@@QAE@XZ
  0000a	64 a1 00 00 00
	00		 mov	 eax, DWORD PTR fs:0
  00010	50		 push	 eax
  00011	51		 push	 ecx
  00012	53		 push	 ebx
  00013	56		 push	 esi
  00014	57		 push	 edi
  00015	a1 00 00 00 00	 mov	 eax, DWORD PTR ___security_cookie
  0001a	33 c5		 xor	 eax, ebp
  0001c	50		 push	 eax
  0001d	8d 45 f4	 lea	 eax, DWORD PTR __$EHRec$[ebp]
  00020	64 a3 00 00 00
	00		 mov	 DWORD PTR fs:0, eax
  00026	8b d9		 mov	 ebx, ecx

; 42   : #ifdef __WORLDSERVER
; 43   : 	// ąćżˇ ŔÖ´Â łđµéŔ» ´Ů ÂŃľĆł˝ ČÄ ·ąŔĚľî¸¦ ĆÄ±«ÇŃ´Ů.
; 44   : 	CWorld* pWorld = g_WorldMng.GetWorld( WI_WORLD_MINIROOM );

  00028	68 d1 00 00 00	 push	 209			; 000000d1H
  0002d	b9 00 00 00 00	 mov	 ecx, OFFSET ?g_WorldMng@@3VCWorldMng@@A ; g_WorldMng
  00032	e8 00 00 00 00	 call	 ?GetWorld@CWorldMng@@QAEPAVCWorld@@K@Z ; CWorldMng::GetWorld

; 45   : 	if( pWorld )

  00037	85 c0		 test	 eax, eax
  00039	74 0d		 je	 SHORT $LN31@CHousing
; File C:\IAGOS\server\v18\Source\Source\_Common\World.h

; 615  : 	void	Invalidate( int nLayer, BOOL bInvalid = TRUE )	{	m_linkMap.Invalidate( nLayer, bInvalid );	}

  0003b	6a 01		 push	 1
  0003d	ff 73 04	 push	 DWORD PTR [ebx+4]
  00040	8d 48 24	 lea	 ecx, DWORD PTR [eax+36]
  00043	e8 00 00 00 00	 call	 ?Invalidate@CLayeredLinkMap@@QAEXHH@Z ; CLayeredLinkMap::Invalidate
$LN31@CHousing:
; File C:\Program Files\Microsoft Visual Studio\2022\Professional\VC\Tools\MSVC\14.44.35207\include\vector

; 1915 :         return static_cast<size_type>(_My_data._Mylast - _My_data._Myfirst);

  00048	8b 43 18	 mov	 eax, DWORD PTR [ebx+24]
  0004b	8d 4b 14	 lea	 ecx, DWORD PTR [ebx+20]
  0004e	8b 53 14	 mov	 edx, DWORD PTR [ebx+20]
; File C:\IAGOS\server\v18\Source\Source\_Common\Housing.cpp

; 48   : 	for( DWORD i=0; i<m_vecIdVisitAllow.size(); i++ )

  00051	33 f6		 xor	 esi, esi
; File C:\Program Files\Microsoft Visual Studio\2022\Professional\VC\Tools\MSVC\14.44.35207\include\vector

; 1915 :         return static_cast<size_type>(_My_data._Mylast - _My_data._Myfirst);

  00053	2b c2		 sub	 eax, edx
  00055	c1 f8 02	 sar	 eax, 2
; File C:\IAGOS\server\v18\Source\Source\_Common\Housing.cpp

; 48   : 	for( DWORD i=0; i<m_vecIdVisitAllow.size(); i++ )

  00058	85 c0		 test	 eax, eax
  0005a	74 2d		 je	 SHORT $LN32@CHousing
  0005c	0f 1f 40 00	 npad	 4
$LL4@CHousing:

; 49   : 		CHousingMng::GetInstance()->SetRemoveVisitable( m_dwMasterId, m_vecIdVisitAllow[i] );

  00060	ff 34 b2	 push	 DWORD PTR [edx+esi*4]
  00063	ff 73 04	 push	 DWORD PTR [ebx+4]
  00066	e8 00 00 00 00	 call	 ?GetInstance@CHousingMng@@SAPAV1@XZ ; CHousingMng::GetInstance
  0006b	8b c8		 mov	 ecx, eax
  0006d	e8 00 00 00 00	 call	 ?SetRemoveVisitable@CHousingMng@@QAEXKK@Z ; CHousingMng::SetRemoveVisitable
; File C:\Program Files\Microsoft Visual Studio\2022\Professional\VC\Tools\MSVC\14.44.35207\include\vector

; 1915 :         return static_cast<size_type>(_My_data._Mylast - _My_data._Myfirst);

  00072	8b 43 18	 mov	 eax, DWORD PTR [ebx+24]
; File C:\IAGOS\server\v18\Source\Source\_Common\Housing.cpp

; 48   : 	for( DWORD i=0; i<m_vecIdVisitAllow.size(); i++ )

  00075	46		 inc	 esi
; File C:\Program Files\Microsoft Visual Studio\2022\Professional\VC\Tools\MSVC\14.44.35207\include\vector

; 1915 :         return static_cast<size_type>(_My_data._Mylast - _My_data._Myfirst);

  00076	8b 53 14	 mov	 edx, DWORD PTR [ebx+20]
  00079	2b c2		 sub	 eax, edx
  0007b	c1 f8 02	 sar	 eax, 2
; File C:\IAGOS\server\v18\Source\Source\_Common\Housing.cpp

; 48   : 	for( DWORD i=0; i<m_vecIdVisitAllow.size(); i++ )

  0007e	3b f0		 cmp	 esi, eax
  00080	72 de		 jb	 SHORT $LL4@CHousing
; File C:\IAGOS\server\v18\Source\Source\_Common\World.h

; 615  : 	void	Invalidate( int nLayer, BOOL bInvalid = TRUE )	{	m_linkMap.Invalidate( nLayer, bInvalid );	}

  00082	8b f3		 mov	 esi, ebx
  00084	8d 4e 14	 lea	 ecx, DWORD PTR [esi+20]
; File C:\IAGOS\server\v18\Source\Source\_Common\Housing.cpp

; 48   : 	for( DWORD i=0; i<m_vecIdVisitAllow.size(); i++ )

  00087	eb 02		 jmp	 SHORT $LN3@CHousing
$LN32@CHousing:
  00089	8b f3		 mov	 esi, ebx
$LN3@CHousing:
; File C:\Program Files\Microsoft Visual Studio\2022\Professional\VC\Tools\MSVC\14.44.35207\include\vector

; 1812 :         if (_Myfirst == _Mylast) { // already empty, nothing to do

  0008b	8b 46 08	 mov	 eax, DWORD PTR [esi+8]
  0008e	3b 46 0c	 cmp	 eax, DWORD PTR [esi+12]
  00091	74 03		 je	 SHORT $LN16@CHousing

; 1813 :             // This is an optimization for debug mode: we can avoid taking the debug lock to invalidate iterators.
; 1814 :             // Note that when clearing an empty vector, this will preserve past-the-end iterators, which is allowed by
; 1815 :             // N4950 [sequence.reqmts]/54 "a.clear() [...] may invalidate the past-the-end iterator".
; 1816 :             return;
; 1817 :         }
; 1818 : 
; 1819 :         _My_data._Orphan_all();
; 1820 :         _Destroy_range(_Myfirst, _Mylast, _Getal());
; 1821 :         _ASAN_VECTOR_MODIFY(static_cast<difference_type>(_Myfirst - _Mylast)); // negative when destroying elements
; 1822 :         _Mylast = _Myfirst;

  00093	89 46 0c	 mov	 DWORD PTR [esi+12], eax
$LN16@CHousing:

; 1812 :         if (_Myfirst == _Mylast) { // already empty, nothing to do

  00096	8b 01		 mov	 eax, DWORD PTR [ecx]
  00098	3b 41 04	 cmp	 eax, DWORD PTR [ecx+4]
  0009b	74 03		 je	 SHORT $LN20@CHousing

; 1813 :             // This is an optimization for debug mode: we can avoid taking the debug lock to invalidate iterators.
; 1814 :             // Note that when clearing an empty vector, this will preserve past-the-end iterators, which is allowed by
; 1815 :             // N4950 [sequence.reqmts]/54 "a.clear() [...] may invalidate the past-the-end iterator".
; 1816 :             return;
; 1817 :         }
; 1818 : 
; 1819 :         _My_data._Orphan_all();
; 1820 :         _Destroy_range(_Myfirst, _Mylast, _Getal());
; 1821 :         _ASAN_VECTOR_MODIFY(static_cast<difference_type>(_Myfirst - _Mylast)); // negative when destroying elements
; 1822 :         _Mylast = _Myfirst;

  0009d	89 41 04	 mov	 DWORD PTR [ecx+4], eax
$LN20@CHousing:

; 830  :         _Tidy();

  000a0	8d 4b 14	 lea	 ecx, DWORD PTR [ebx+20]
  000a3	e8 00 00 00 00	 call	 ?_Tidy@?$vector@KV?$allocator@K@std@@@std@@AAEXXZ ; std::vector<unsigned long,std::allocator<unsigned long> >::_Tidy
; File C:\IAGOS\server\v18\Source\Source\_Common\Housing.cpp

; 53   : }

  000a8	8d 4e 08	 lea	 ecx, DWORD PTR [esi+8]
  000ab	e8 00 00 00 00	 call	 ??1?$vector@UHOUSINGINFO@@V?$allocator@UHOUSINGINFO@@@std@@@std@@QAE@XZ ; std::vector<HOUSINGINFO,std::allocator<HOUSINGINFO> >::~vector<HOUSINGINFO,std::allocator<HOUSINGINFO> >
  000b0	8b 4d f4	 mov	 ecx, DWORD PTR __$EHRec$[ebp]
  000b3	64 89 0d 00 00
	00 00		 mov	 DWORD PTR fs:0, ecx
  000ba	59		 pop	 ecx
  000bb	5f		 pop	 edi
  000bc	5e		 pop	 esi
  000bd	5b		 pop	 ebx
  000be	8b e5		 mov	 esp, ebp
  000c0	5d		 pop	 ebp
  000c1	c3		 ret	 0
  000c2	cc		 int	 3
  000c3	cc		 int	 3
  000c4	cc		 int	 3
  000c5	cc		 int	 3
  000c6	cc		 int	 3
_TEXT	ENDS
;	COMDAT text$x
text$x	SEGMENT
__ehhandler$??1CHousing@@QAE@XZ:
  00000	90		 npad	 1
  00001	90		 npad	 1
  00002	8b 54 24 08	 mov	 edx, DWORD PTR [esp+8]
  00006	8d 42 0c	 lea	 eax, DWORD PTR [edx+12]
  00009	8b 4a ec	 mov	 ecx, DWORD PTR [edx-20]
  0000c	33 c8		 xor	 ecx, eax
  0000e	e8 00 00 00 00	 call	 @__security_check_cookie@4
  00013	b8 00 00 00 00	 mov	 eax, OFFSET __ehfuncinfo$??1CHousing@@QAE@XZ
  00018	e9 00 00 00 00	 jmp	 ___CxxFrameHandler3
text$x	ENDS
??1CHousing@@QAE@XZ ENDP				; CHousing::~CHousing
; Function compile flags: /Ogtp
; File C:\IAGOS\server\v18\Source\Source\_Common\Housing.cpp
; File C:\Program Files\Microsoft Visual Studio\2022\Professional\VC\Tools\MSVC\14.44.35207\include\vector
; File C:\IAGOS\server\v18\Source\Source\_Common\Housing.cpp
; File C:\Program Files\Microsoft Visual Studio\2022\Professional\VC\Tools\MSVC\14.44.35207\include\vector
; File C:\IAGOS\server\v18\Source\Source\_Common\Housing.cpp
;	COMDAT ??0CHousing@@QAE@K@Z
_TEXT	SEGMENT
_this$ = -4						; size = 4
_dwPlayerId$ = 8					; size = 4
??0CHousing@@QAE@K@Z PROC				; CHousing::CHousing, COMDAT
; _this$ = ecx

; 37   : {

  00000	55		 push	 ebp
  00001	8b ec		 mov	 ebp, esp
  00003	51		 push	 ecx

; 36   : m_dwMasterId( dwPlayerId )

  00004	8b 45 08	 mov	 eax, DWORD PTR _dwPlayerId$[ebp]
  00007	89 41 04	 mov	 DWORD PTR [ecx+4], eax

; 38   : }

  0000a	8b c1		 mov	 eax, ecx
  0000c	c7 01 00 00 00
	00		 mov	 DWORD PTR [ecx], 0
; File C:\Program Files\Microsoft Visual Studio\2022\Professional\VC\Tools\MSVC\14.44.35207\include\vector

; 400  :     _CONSTEXPR20 _Vector_val() noexcept : _Myfirst(), _Mylast(), _Myend() {}

  00012	c7 41 08 00 00
	00 00		 mov	 DWORD PTR [ecx+8], 0
  00019	c7 41 0c 00 00
	00 00		 mov	 DWORD PTR [ecx+12], 0
  00020	c7 41 10 00 00
	00 00		 mov	 DWORD PTR [ecx+16], 0
; File C:\IAGOS\server\v18\Source\Source\_Common\Housing.cpp

; 37   : {

  00027	89 4d fc	 mov	 DWORD PTR _this$[ebp], ecx
; File C:\Program Files\Microsoft Visual Studio\2022\Professional\VC\Tools\MSVC\14.44.35207\include\vector

; 400  :     _CONSTEXPR20 _Vector_val() noexcept : _Myfirst(), _Mylast(), _Myend() {}

  0002a	c7 41 14 00 00
	00 00		 mov	 DWORD PTR [ecx+20], 0
  00031	c7 41 18 00 00
	00 00		 mov	 DWORD PTR [ecx+24], 0
  00038	c7 41 1c 00 00
	00 00		 mov	 DWORD PTR [ecx+28], 0
; File C:\IAGOS\server\v18\Source\Source\_Common\Housing.cpp

; 38   : }

  0003f	8b e5		 mov	 esp, ebp
  00041	5d		 pop	 ebp
  00042	c2 04 00	 ret	 4
??0CHousing@@QAE@K@Z ENDP				; CHousing::CHousing
_TEXT	ENDS
; Function compile flags: /Ogtp
; File C:\IAGOS\server\v18\Source\Source\_Network\Misc\Include\ar.h
;	COMDAT ??$?5M@CAr@@QAEAAV0@AAM@Z
_TEXT	SEGMENT
_t$ = 8							; size = 4
??$?5M@CAr@@QAEAAV0@AAM@Z PROC				; CAr::operator>><float>, COMDAT
; _this$ = ecx

; 302  : {

  00000	55		 push	 ebp
  00001	8b ec		 mov	 ebp, esp
  00003	8b d1		 mov	 edx, ecx

; 303  : 	if (m_lpBufCur + sizeof(T) <= m_lpBufMax)

  00005	8b 4a 08	 mov	 ecx, DWORD PTR [edx+8]
  00008	8d 41 04	 lea	 eax, DWORD PTR [ecx+4]
  0000b	3b 42 0c	 cmp	 eax, DWORD PTR [edx+12]
  0000e	8b 45 08	 mov	 eax, DWORD PTR _t$[ebp]
  00011	77 0e		 ja	 SHORT $LN2@operator

; 304  : 	{
; 305  : 		t = *(UNALIGNED T*)m_lpBufCur;

  00013	8b 09		 mov	 ecx, DWORD PTR [ecx]
  00015	89 08		 mov	 DWORD PTR [eax], ecx

; 312  : 	}
; 313  : 	return *this;
; 314  : }

  00017	8b c2		 mov	 eax, edx
  00019	83 42 08 04	 add	 DWORD PTR [edx+8], 4
  0001d	5d		 pop	 ebp
  0001e	c2 04 00	 ret	 4
$LN2@operator:

; 306  : 		m_lpBufCur += sizeof(T);
; 307  : 	}
; 308  : 	else
; 309  : 	{
; 310  : 		t = T();

  00021	c7 00 00 00 00
	00		 mov	 DWORD PTR [eax], 0

; 311  : 		m_lpBufCur = m_lpBufMax;

  00027	8b 42 0c	 mov	 eax, DWORD PTR [edx+12]
  0002a	89 42 08	 mov	 DWORD PTR [edx+8], eax

; 312  : 	}
; 313  : 	return *this;
; 314  : }

  0002d	8b c2		 mov	 eax, edx
  0002f	5d		 pop	 ebp
  00030	c2 04 00	 ret	 4
??$?5M@CAr@@QAEAAV0@AAM@Z ENDP				; CAr::operator>><float>
_TEXT	ENDS
; Function compile flags: /Ogtp
; File C:\IAGOS\server\v18\Source\Source\_Network\Misc\Include\ar.h
;	COMDAT ??$?5UD3DXVECTOR3@@@CAr@@QAEAAV0@AAUD3DXVECTOR3@@@Z
_TEXT	SEGMENT
$T1 = -12						; size = 12
_t$ = 8							; size = 4
??$?5UD3DXVECTOR3@@@CAr@@QAEAAV0@AAUD3DXVECTOR3@@@Z PROC ; CAr::operator>><D3DXVECTOR3>, COMDAT
; _this$ = ecx

; 302  : {

  00000	55		 push	 ebp
  00001	8b ec		 mov	 ebp, esp
  00003	83 ec 0c	 sub	 esp, 12			; 0000000cH
  00006	8b d1		 mov	 edx, ecx

; 303  : 	if (m_lpBufCur + sizeof(T) <= m_lpBufMax)

  00008	8b 4d 08	 mov	 ecx, DWORD PTR _t$[ebp]
  0000b	56		 push	 esi
  0000c	8b 72 08	 mov	 esi, DWORD PTR [edx+8]
  0000f	8d 46 0c	 lea	 eax, DWORD PTR [esi+12]
  00012	3b 42 0c	 cmp	 eax, DWORD PTR [edx+12]
  00015	77 1b		 ja	 SHORT $LN2@operator

; 304  : 	{
; 305  : 		t = *(UNALIGNED T*)m_lpBufCur;

  00017	f3 0f 7e 06	 movq	 xmm0, QWORD PTR [esi]
  0001b	66 0f d6 01	 movq	 QWORD PTR [ecx], xmm0
  0001f	8b 46 08	 mov	 eax, DWORD PTR [esi+8]
  00022	89 41 08	 mov	 DWORD PTR [ecx+8], eax

; 312  : 	}
; 313  : 	return *this;
; 314  : }

  00025	8b c2		 mov	 eax, edx
  00027	83 42 08 0c	 add	 DWORD PTR [edx+8], 12	; 0000000cH
  0002b	5e		 pop	 esi
  0002c	8b e5		 mov	 esp, ebp
  0002e	5d		 pop	 ebp
  0002f	c2 04 00	 ret	 4
$LN2@operator:

; 306  : 		m_lpBufCur += sizeof(T);
; 307  : 	}
; 308  : 	else
; 309  : 	{
; 310  : 		t = T();

  00032	f3 0f 7e 45 f4	 movq	 xmm0, QWORD PTR $T1[ebp]
  00037	8b 45 fc	 mov	 eax, DWORD PTR $T1[ebp+8]
  0003a	66 0f d6 01	 movq	 QWORD PTR [ecx], xmm0
  0003e	89 41 08	 mov	 DWORD PTR [ecx+8], eax

; 311  : 		m_lpBufCur = m_lpBufMax;

  00041	8b 42 0c	 mov	 eax, DWORD PTR [edx+12]
  00044	89 42 08	 mov	 DWORD PTR [edx+8], eax

; 312  : 	}
; 313  : 	return *this;
; 314  : }

  00047	8b c2		 mov	 eax, edx
  00049	5e		 pop	 esi
  0004a	8b e5		 mov	 esp, ebp
  0004c	5d		 pop	 ebp
  0004d	c2 04 00	 ret	 4
??$?5UD3DXVECTOR3@@@CAr@@QAEAAV0@AAUD3DXVECTOR3@@@Z ENDP ; CAr::operator>><D3DXVECTOR3>
_TEXT	ENDS
; Function compile flags: /Ogtp
; File C:\IAGOS\server\v18\Source\Source\_Network\Misc\Include\ar.h
;	COMDAT ??$?5H@CAr@@QAEAAV0@AAH@Z
_TEXT	SEGMENT
_t$ = 8							; size = 4
??$?5H@CAr@@QAEAAV0@AAH@Z PROC				; CAr::operator>><int>, COMDAT
; _this$ = ecx

; 302  : {

  00000	55		 push	 ebp
  00001	8b ec		 mov	 ebp, esp
  00003	8b d1		 mov	 edx, ecx

; 303  : 	if (m_lpBufCur + sizeof(T) <= m_lpBufMax)

  00005	8b 4a 08	 mov	 ecx, DWORD PTR [edx+8]
  00008	8d 41 04	 lea	 eax, DWORD PTR [ecx+4]
  0000b	3b 42 0c	 cmp	 eax, DWORD PTR [edx+12]
  0000e	8b 45 08	 mov	 eax, DWORD PTR _t$[ebp]
  00011	77 0e		 ja	 SHORT $LN2@operator

; 304  : 	{
; 305  : 		t = *(UNALIGNED T*)m_lpBufCur;

  00013	8b 09		 mov	 ecx, DWORD PTR [ecx]
  00015	89 08		 mov	 DWORD PTR [eax], ecx

; 312  : 	}
; 313  : 	return *this;
; 314  : }

  00017	8b c2		 mov	 eax, edx
  00019	83 42 08 04	 add	 DWORD PTR [edx+8], 4
  0001d	5d		 pop	 ebp
  0001e	c2 04 00	 ret	 4
$LN2@operator:

; 306  : 		m_lpBufCur += sizeof(T);
; 307  : 	}
; 308  : 	else
; 309  : 	{
; 310  : 		t = T();

  00021	c7 00 00 00 00
	00		 mov	 DWORD PTR [eax], 0

; 311  : 		m_lpBufCur = m_lpBufMax;

  00027	8b 42 0c	 mov	 eax, DWORD PTR [edx+12]
  0002a	89 42 08	 mov	 DWORD PTR [edx+8], eax

; 312  : 	}
; 313  : 	return *this;
; 314  : }

  0002d	8b c2		 mov	 eax, edx
  0002f	5d		 pop	 ebp
  00030	c2 04 00	 ret	 4
??$?5H@CAr@@QAEAAV0@AAH@Z ENDP				; CAr::operator>><int>
_TEXT	ENDS
; Function compile flags: /Ogtp
; File C:\IAGOS\server\v18\Source\Source\_Network\Misc\Include\ar.h
;	COMDAT ??$?5J@CAr@@QAEAAV0@AAJ@Z
_TEXT	SEGMENT
_t$ = 8							; size = 4
??$?5J@CAr@@QAEAAV0@AAJ@Z PROC				; CAr::operator>><long>, COMDAT
; _this$ = ecx

; 302  : {

  00000	55		 push	 ebp
  00001	8b ec		 mov	 ebp, esp
  00003	8b d1		 mov	 edx, ecx

; 303  : 	if (m_lpBufCur + sizeof(T) <= m_lpBufMax)

  00005	8b 4a 08	 mov	 ecx, DWORD PTR [edx+8]
  00008	8d 41 04	 lea	 eax, DWORD PTR [ecx+4]
  0000b	3b 42 0c	 cmp	 eax, DWORD PTR [edx+12]
  0000e	8b 45 08	 mov	 eax, DWORD PTR _t$[ebp]
  00011	77 0e		 ja	 SHORT $LN2@operator

; 304  : 	{
; 305  : 		t = *(UNALIGNED T*)m_lpBufCur;

  00013	8b 09		 mov	 ecx, DWORD PTR [ecx]
  00015	89 08		 mov	 DWORD PTR [eax], ecx

; 312  : 	}
; 313  : 	return *this;
; 314  : }

  00017	8b c2		 mov	 eax, edx
  00019	83 42 08 04	 add	 DWORD PTR [edx+8], 4
  0001d	5d		 pop	 ebp
  0001e	c2 04 00	 ret	 4
$LN2@operator:

; 306  : 		m_lpBufCur += sizeof(T);
; 307  : 	}
; 308  : 	else
; 309  : 	{
; 310  : 		t = T();

  00021	c7 00 00 00 00
	00		 mov	 DWORD PTR [eax], 0

; 311  : 		m_lpBufCur = m_lpBufMax;

  00027	8b 42 0c	 mov	 eax, DWORD PTR [edx+12]
  0002a	89 42 08	 mov	 DWORD PTR [edx+8], eax

; 312  : 	}
; 313  : 	return *this;
; 314  : }

  0002d	8b c2		 mov	 eax, edx
  0002f	5d		 pop	 ebp
  00030	c2 04 00	 ret	 4
??$?5J@CAr@@QAEAAV0@AAJ@Z ENDP				; CAr::operator>><long>
_TEXT	ENDS
; Function compile flags: /Ogtp
; File C:\IAGOS\server\v18\Source\Source\_Network\Misc\Include\ar.h
;	COMDAT ??$?5K@CAr@@QAEAAV0@AAK@Z
_TEXT	SEGMENT
_t$ = 8							; size = 4
??$?5K@CAr@@QAEAAV0@AAK@Z PROC				; CAr::operator>><unsigned long>, COMDAT
; _this$ = ecx

; 302  : {

  00000	55		 push	 ebp
  00001	8b ec		 mov	 ebp, esp
  00003	8b d1		 mov	 edx, ecx

; 303  : 	if (m_lpBufCur + sizeof(T) <= m_lpBufMax)

  00005	8b 4a 08	 mov	 ecx, DWORD PTR [edx+8]
  00008	8d 41 04	 lea	 eax, DWORD PTR [ecx+4]
  0000b	3b 42 0c	 cmp	 eax, DWORD PTR [edx+12]
  0000e	8b 45 08	 mov	 eax, DWORD PTR _t$[ebp]
  00011	77 0e		 ja	 SHORT $LN2@operator

; 304  : 	{
; 305  : 		t = *(UNALIGNED T*)m_lpBufCur;

  00013	8b 09		 mov	 ecx, DWORD PTR [ecx]
  00015	89 08		 mov	 DWORD PTR [eax], ecx

; 312  : 	}
; 313  : 	return *this;
; 314  : }

  00017	8b c2		 mov	 eax, edx
  00019	83 42 08 04	 add	 DWORD PTR [edx+8], 4
  0001d	5d		 pop	 ebp
  0001e	c2 04 00	 ret	 4
$LN2@operator:

; 306  : 		m_lpBufCur += sizeof(T);
; 307  : 	}
; 308  : 	else
; 309  : 	{
; 310  : 		t = T();

  00021	c7 00 00 00 00
	00		 mov	 DWORD PTR [eax], 0

; 311  : 		m_lpBufCur = m_lpBufMax;

  00027	8b 42 0c	 mov	 eax, DWORD PTR [edx+12]
  0002a	89 42 08	 mov	 DWORD PTR [edx+8], eax

; 312  : 	}
; 313  : 	return *this;
; 314  : }

  0002d	8b c2		 mov	 eax, edx
  0002f	5d		 pop	 ebp
  00030	c2 04 00	 ret	 4
??$?5K@CAr@@QAEAAV0@AAK@Z ENDP				; CAr::operator>><unsigned long>
_TEXT	ENDS
; Function compile flags: /Ogtp
; File C:\IAGOS\server\v18\Source\Source\_Network\Misc\Include\ar.h
;	COMDAT ??$?6M@CAr@@QAEAAV0@ABM@Z
_TEXT	SEGMENT
_t$ = 8							; size = 4
??$?6M@CAr@@QAEAAV0@ABM@Z PROC				; CAr::operator<<<float>, COMDAT
; _this$ = ecx

; 255  : {

  00000	55		 push	 ebp
  00001	8b ec		 mov	 ebp, esp
  00003	56		 push	 esi

; 256  : 	CheckBuf(sizeof(T));

  00004	6a 04		 push	 4
  00006	8b f1		 mov	 esi, ecx
  00008	e8 00 00 00 00	 call	 ?CheckBuf@CAr@@QAEXI@Z	; CAr::CheckBuf

; 257  : 	*(UNALIGNED T*)m_lpBufCur = t;

  0000d	8b 56 08	 mov	 edx, DWORD PTR [esi+8]
  00010	8b 45 08	 mov	 eax, DWORD PTR _t$[ebp]
  00013	8b 00		 mov	 eax, DWORD PTR [eax]
  00015	89 02		 mov	 DWORD PTR [edx], eax

; 258  : 	m_lpBufCur += sizeof(T);
; 259  : 	return *this;

  00017	8b c6		 mov	 eax, esi
  00019	83 46 08 04	 add	 DWORD PTR [esi+8], 4
  0001d	5e		 pop	 esi

; 260  : }

  0001e	5d		 pop	 ebp
  0001f	c2 04 00	 ret	 4
??$?6M@CAr@@QAEAAV0@ABM@Z ENDP				; CAr::operator<<<float>
_TEXT	ENDS
; Function compile flags: /Ogtp
; File C:\IAGOS\server\v18\Source\Source\_Network\Misc\Include\ar.h
;	COMDAT ??$?6UD3DXVECTOR3@@@CAr@@QAEAAV0@ABUD3DXVECTOR3@@@Z
_TEXT	SEGMENT
_t$ = 8							; size = 4
??$?6UD3DXVECTOR3@@@CAr@@QAEAAV0@ABUD3DXVECTOR3@@@Z PROC ; CAr::operator<<<D3DXVECTOR3>, COMDAT
; _this$ = ecx

; 255  : {

  00000	55		 push	 ebp
  00001	8b ec		 mov	 ebp, esp
  00003	56		 push	 esi

; 256  : 	CheckBuf(sizeof(T));

  00004	6a 0c		 push	 12			; 0000000cH
  00006	8b f1		 mov	 esi, ecx
  00008	e8 00 00 00 00	 call	 ?CheckBuf@CAr@@QAEXI@Z	; CAr::CheckBuf

; 257  : 	*(UNALIGNED T*)m_lpBufCur = t;

  0000d	8b 56 08	 mov	 edx, DWORD PTR [esi+8]
  00010	8b 45 08	 mov	 eax, DWORD PTR _t$[ebp]
  00013	f3 0f 7e 00	 movq	 xmm0, QWORD PTR [eax]
  00017	66 0f d6 02	 movq	 QWORD PTR [edx], xmm0
  0001b	8b 40 08	 mov	 eax, DWORD PTR [eax+8]
  0001e	89 42 08	 mov	 DWORD PTR [edx+8], eax

; 258  : 	m_lpBufCur += sizeof(T);
; 259  : 	return *this;

  00021	8b c6		 mov	 eax, esi
  00023	83 46 08 0c	 add	 DWORD PTR [esi+8], 12	; 0000000cH
  00027	5e		 pop	 esi

; 260  : }

  00028	5d		 pop	 ebp
  00029	c2 04 00	 ret	 4
??$?6UD3DXVECTOR3@@@CAr@@QAEAAV0@ABUD3DXVECTOR3@@@Z ENDP ; CAr::operator<<<D3DXVECTOR3>
_TEXT	ENDS
; Function compile flags: /Ogtp
; File C:\IAGOS\server\v18\Source\Source\_Network\Misc\Include\ar.h
;	COMDAT ??$?6H@CAr@@QAEAAV0@ABH@Z
_TEXT	SEGMENT
_t$ = 8							; size = 4
??$?6H@CAr@@QAEAAV0@ABH@Z PROC				; CAr::operator<<<int>, COMDAT
; _this$ = ecx

; 255  : {

  00000	55		 push	 ebp
  00001	8b ec		 mov	 ebp, esp
  00003	56		 push	 esi

; 256  : 	CheckBuf(sizeof(T));

  00004	6a 04		 push	 4
  00006	8b f1		 mov	 esi, ecx
  00008	e8 00 00 00 00	 call	 ?CheckBuf@CAr@@QAEXI@Z	; CAr::CheckBuf

; 257  : 	*(UNALIGNED T*)m_lpBufCur = t;

  0000d	8b 56 08	 mov	 edx, DWORD PTR [esi+8]
  00010	8b 45 08	 mov	 eax, DWORD PTR _t$[ebp]
  00013	8b 00		 mov	 eax, DWORD PTR [eax]
  00015	89 02		 mov	 DWORD PTR [edx], eax

; 258  : 	m_lpBufCur += sizeof(T);
; 259  : 	return *this;

  00017	8b c6		 mov	 eax, esi
  00019	83 46 08 04	 add	 DWORD PTR [esi+8], 4
  0001d	5e		 pop	 esi

; 260  : }

  0001e	5d		 pop	 ebp
  0001f	c2 04 00	 ret	 4
??$?6H@CAr@@QAEAAV0@ABH@Z ENDP				; CAr::operator<<<int>
_TEXT	ENDS
; Function compile flags: /Ogtp
; File C:\IAGOS\server\v18\Source\Source\_Network\Misc\Include\ar.h
;	COMDAT ??$?6J@CAr@@QAEAAV0@ABJ@Z
_TEXT	SEGMENT
_t$ = 8							; size = 4
??$?6J@CAr@@QAEAAV0@ABJ@Z PROC				; CAr::operator<<<long>, COMDAT
; _this$ = ecx

; 255  : {

  00000	55		 push	 ebp
  00001	8b ec		 mov	 ebp, esp
  00003	56		 push	 esi

; 256  : 	CheckBuf(sizeof(T));

  00004	6a 04		 push	 4
  00006	8b f1		 mov	 esi, ecx
  00008	e8 00 00 00 00	 call	 ?CheckBuf@CAr@@QAEXI@Z	; CAr::CheckBuf

; 257  : 	*(UNALIGNED T*)m_lpBufCur = t;

  0000d	8b 56 08	 mov	 edx, DWORD PTR [esi+8]
  00010	8b 45 08	 mov	 eax, DWORD PTR _t$[ebp]
  00013	8b 00		 mov	 eax, DWORD PTR [eax]
  00015	89 02		 mov	 DWORD PTR [edx], eax

; 258  : 	m_lpBufCur += sizeof(T);
; 259  : 	return *this;

  00017	8b c6		 mov	 eax, esi
  00019	83 46 08 04	 add	 DWORD PTR [esi+8], 4
  0001d	5e		 pop	 esi

; 260  : }

  0001e	5d		 pop	 ebp
  0001f	c2 04 00	 ret	 4
??$?6J@CAr@@QAEAAV0@ABJ@Z ENDP				; CAr::operator<<<long>
_TEXT	ENDS
; Function compile flags: /Ogtp
; File C:\IAGOS\server\v18\Source\Source\_Network\Misc\Include\ar.h
;	COMDAT ??$?6K@CAr@@QAEAAV0@ABK@Z
_TEXT	SEGMENT
_t$ = 8							; size = 4
??$?6K@CAr@@QAEAAV0@ABK@Z PROC				; CAr::operator<<<unsigned long>, COMDAT
; _this$ = ecx

; 255  : {

  00000	55		 push	 ebp
  00001	8b ec		 mov	 ebp, esp
  00003	56		 push	 esi

; 256  : 	CheckBuf(sizeof(T));

  00004	6a 04		 push	 4
  00006	8b f1		 mov	 esi, ecx
  00008	e8 00 00 00 00	 call	 ?CheckBuf@CAr@@QAEXI@Z	; CAr::CheckBuf

; 257  : 	*(UNALIGNED T*)m_lpBufCur = t;

  0000d	8b 56 08	 mov	 edx, DWORD PTR [esi+8]
  00010	8b 45 08	 mov	 eax, DWORD PTR _t$[ebp]
  00013	8b 00		 mov	 eax, DWORD PTR [eax]
  00015	89 02		 mov	 DWORD PTR [edx], eax

; 258  : 	m_lpBufCur += sizeof(T);
; 259  : 	return *this;

  00017	8b c6		 mov	 eax, esi
  00019	83 46 08 04	 add	 DWORD PTR [esi+8], 4
  0001d	5e		 pop	 esi

; 260  : }

  0001e	5d		 pop	 ebp
  0001f	c2 04 00	 ret	 4
??$?6K@CAr@@QAEAAV0@ABK@Z ENDP				; CAr::operator<<<unsigned long>
_TEXT	ENDS
; Function compile flags: /Ogtp
; File C:\IAGOS\server\v18\Source\Source\_Common\housing.h
; File C:\IAGOS\server\v18\Source\Source\_Network\Misc\Include\ar.h
; File C:\IAGOS\server\v18\Source\Source\_Common\housing.h
; File C:\IAGOS\server\v18\Source\Source\_Network\Misc\Include\ar.h
; File C:\IAGOS\server\v18\Source\Source\_Common\housing.h
;	COMDAT ?Serialize@HOUSINGINFO@@QAEXAAVCAr@@@Z
_TEXT	SEGMENT
tv216 = -8						; size = 4
tv217 = -4						; size = 4
_ar$ = 8						; size = 4
$T1 = 8							; size = 4
?Serialize@HOUSINGINFO@@QAEXAAVCAr@@@Z PROC		; HOUSINGINFO::Serialize, COMDAT
; _this$ = ecx

; 37   : 	{

  00000	55		 push	 ebp
  00001	8b ec		 mov	 ebp, esp
  00003	83 ec 08	 sub	 esp, 8
  00006	53		 push	 ebx
  00007	56		 push	 esi
; File C:\IAGOS\server\v18\Source\Source\_Network\Misc\Include\ar.h

; 146  : 	return (m_nMode & CAr::load) == 0;

  00008	8b 75 08	 mov	 esi, DWORD PTR _ar$[ebp]
  0000b	8d 51 0c	 lea	 edx, DWORD PTR [ecx+12]
  0000e	8d 41 08	 lea	 eax, DWORD PTR [ecx+8]
  00011	89 55 fc	 mov	 DWORD PTR tv217[ebp], edx
; File C:\IAGOS\server\v18\Source\Source\_Common\housing.h

; 37   : 	{

  00014	57		 push	 edi
; File C:\IAGOS\server\v18\Source\Source\_Network\Misc\Include\ar.h

; 146  : 	return (m_nMode & CAr::load) == 0;

  00015	8d 79 04	 lea	 edi, DWORD PTR [ecx+4]
  00018	89 45 f8	 mov	 DWORD PTR tv216[ebp], eax
  0001b	f6 06 01	 test	 BYTE PTR [esi], 1
  0001e	8d 59 18	 lea	 ebx, DWORD PTR [ecx+24]
; File C:\IAGOS\server\v18\Source\Source\_Common\housing.h

; 38   : 		if( ar.IsStoring() )

  00021	75 42		 jne	 SHORT $LN2@Serialize

; 39   : 			ar << dwItemId << static_cast<time_t>(tKeepTime - time_null()) << bSetup << vPos << fAngle;

  00023	8b 07		 mov	 eax, DWORD PTR [edi]
  00025	2b 05 00 00 00
	00		 sub	 eax, DWORD PTR ?g_tCurrent@@3JA ; g_tCurrent
  0002b	53		 push	 ebx
  0002c	89 45 08	 mov	 DWORD PTR $T1[ebp], eax
  0002f	8d 41 08	 lea	 eax, DWORD PTR [ecx+8]
  00032	52		 push	 edx
  00033	50		 push	 eax
  00034	8d 45 08	 lea	 eax, DWORD PTR $T1[ebp]
  00037	50		 push	 eax
  00038	51		 push	 ecx
  00039	8b ce		 mov	 ecx, esi
  0003b	e8 00 00 00 00	 call	 ??$?6K@CAr@@QAEAAV0@ABK@Z ; CAr::operator<<<unsigned long>
  00040	8b c8		 mov	 ecx, eax
  00042	e8 00 00 00 00	 call	 ??$?6J@CAr@@QAEAAV0@ABJ@Z ; CAr::operator<<<long>
  00047	8b c8		 mov	 ecx, eax
  00049	e8 00 00 00 00	 call	 ??$?6H@CAr@@QAEAAV0@ABH@Z ; CAr::operator<<<int>
  0004e	8b c8		 mov	 ecx, eax
  00050	e8 00 00 00 00	 call	 ??$?6UD3DXVECTOR3@@@CAr@@QAEAAV0@ABUD3DXVECTOR3@@@Z ; CAr::operator<<<D3DXVECTOR3>
  00055	8b c8		 mov	 ecx, eax
  00057	e8 00 00 00 00	 call	 ??$?6M@CAr@@QAEAAV0@ABM@Z ; CAr::operator<<<float>
  0005c	5f		 pop	 edi

; 45   : 		}
; 46   : 	}

  0005d	5e		 pop	 esi
  0005e	5b		 pop	 ebx
  0005f	8b e5		 mov	 esp, ebp
  00061	5d		 pop	 ebp
  00062	c2 04 00	 ret	 4
$LN2@Serialize:

; 40   : 		else
; 41   : 		{
; 42   : 			ar >> dwItemId >> tKeepTime;

  00065	57		 push	 edi
  00066	51		 push	 ecx
  00067	8b ce		 mov	 ecx, esi
  00069	e8 00 00 00 00	 call	 ??$?5K@CAr@@QAEAAV0@AAK@Z ; CAr::operator>><unsigned long>
  0006e	8b c8		 mov	 ecx, eax
  00070	e8 00 00 00 00	 call	 ??$?5J@CAr@@QAEAAV0@AAJ@Z ; CAr::operator>><long>

; 43   : 			tKeepTime += time_null();

  00075	a1 00 00 00 00	 mov	 eax, DWORD PTR ?g_tCurrent@@3JA ; g_tCurrent

; 44   : 			ar >> bSetup >> vPos >> fAngle;

  0007a	8b ce		 mov	 ecx, esi
  0007c	01 07		 add	 DWORD PTR [edi], eax
  0007e	8b 45 f8	 mov	 eax, DWORD PTR tv216[ebp]
  00081	53		 push	 ebx
  00082	ff 75 fc	 push	 DWORD PTR tv217[ebp]
  00085	50		 push	 eax
  00086	e8 00 00 00 00	 call	 ??$?5H@CAr@@QAEAAV0@AAH@Z ; CAr::operator>><int>
  0008b	8b c8		 mov	 ecx, eax
  0008d	e8 00 00 00 00	 call	 ??$?5UD3DXVECTOR3@@@CAr@@QAEAAV0@AAUD3DXVECTOR3@@@Z ; CAr::operator>><D3DXVECTOR3>
  00092	8b c8		 mov	 ecx, eax
  00094	e8 00 00 00 00	 call	 ??$?5M@CAr@@QAEAAV0@AAM@Z ; CAr::operator>><float>
  00099	5f		 pop	 edi

; 45   : 		}
; 46   : 	}

  0009a	5e		 pop	 esi
  0009b	5b		 pop	 ebx
  0009c	8b e5		 mov	 esp, ebp
  0009e	5d		 pop	 ebp
  0009f	c2 04 00	 ret	 4
?Serialize@HOUSINGINFO@@QAEXAAVCAr@@@Z ENDP		; HOUSINGINFO::Serialize
_TEXT	ENDS
; Function compile flags: /Ogtp
; File C:\Program Files\Microsoft Visual Studio\2022\Professional\VC\Tools\MSVC\14.44.35207\include\xmemory
;	COMDAT ??$_Allocate_manually_vector_aligned@U_Default_allocate_traits@std@@@std@@YAPAXI@Z
_TEXT	SEGMENT
__Bytes$ = 8						; size = 4
??$_Allocate_manually_vector_aligned@U_Default_allocate_traits@std@@@std@@YAPAXI@Z PROC ; std::_Allocate_manually_vector_aligned<std::_Default_allocate_traits>, COMDAT

; 182  : __declspec(allocator) void* _Allocate_manually_vector_aligned(const size_t _Bytes) {

  00000	55		 push	 ebp
  00001	8b ec		 mov	 ebp, esp

; 183  :     // allocate _Bytes manually aligned to at least _Big_allocation_alignment
; 184  :     const size_t _Block_size = _Non_user_size + _Bytes;

  00003	8b 45 08	 mov	 eax, DWORD PTR __Bytes$[ebp]
  00006	8d 48 23	 lea	 ecx, DWORD PTR [eax+35]

; 185  :     if (_Block_size <= _Bytes) {

  00009	3b c8		 cmp	 ecx, eax
  0000b	0f 86 00 00 00
	00		 jbe	 ?_Throw_bad_array_new_length@std@@YAXXZ ; std::_Throw_bad_array_new_length

; 136  :         return ::operator new(_Bytes);

  00011	51		 push	 ecx
  00012	e8 00 00 00 00	 call	 ??2@YAPAXI@Z		; operator new

; 186  :         _Throw_bad_array_new_length(); // add overflow
; 187  :     }
; 188  : 
; 189  :     const uintptr_t _Ptr_container = reinterpret_cast<uintptr_t>(_Traits::_Allocate(_Block_size));

  00017	8b c8		 mov	 ecx, eax

; 136  :         return ::operator new(_Bytes);

  00019	83 c4 04	 add	 esp, 4

; 190  :     _STL_VERIFY(_Ptr_container != 0, "invalid argument"); // validate even in release since we're doing p[-1]

  0001c	85 c9		 test	 ecx, ecx
  0001e	74 0b		 je	 SHORT $LN9@Allocate_m

; 191  :     void* const _Ptr = reinterpret_cast<void*>((_Ptr_container + _Non_user_size) & ~(_Big_allocation_alignment - 1));

  00020	8d 41 23	 lea	 eax, DWORD PTR [ecx+35]
  00023	83 e0 e0	 and	 eax, -32		; ffffffe0H

; 192  :     static_cast<uintptr_t*>(_Ptr)[-1] = _Ptr_container;

  00026	89 48 fc	 mov	 DWORD PTR [eax-4], ecx

; 193  : 
; 194  : #ifdef _DEBUG
; 195  :     static_cast<uintptr_t*>(_Ptr)[-2] = _Big_allocation_sentinel;
; 196  : #endif // defined(_DEBUG)
; 197  :     return _Ptr;
; 198  : }

  00029	5d		 pop	 ebp
  0002a	c3		 ret	 0
$LN9@Allocate_m:

; 190  :     _STL_VERIFY(_Ptr_container != 0, "invalid argument"); // validate even in release since we're doing p[-1]

  0002b	6a 00		 push	 0
  0002d	6a 00		 push	 0
  0002f	6a 00		 push	 0
  00031	6a 00		 push	 0
  00033	6a 00		 push	 0
  00035	e8 00 00 00 00	 call	 __invoke_watson
$LN7@Allocate_m:
  0003a	cc		 int	 3
??$_Allocate_manually_vector_aligned@U_Default_allocate_traits@std@@@std@@YAPAXI@Z ENDP ; std::_Allocate_manually_vector_aligned<std::_Default_allocate_traits>
_TEXT	ENDS
; Function compile flags: /Ogtp
; File C:\IAGOS\server\v18\Source\Source\_Common\Project.h
; File C:\IAGOS\server\v18\Source\Source\_Common\data.h
; File C:\IAGOS\server\v18\Source\Source\_Common\Project.h
;	COMDAT ?GetItemProp@CProject@@QAEPAUItemProp@@H@Z
_TEXT	SEGMENT
_nIndex$ = 8						; size = 4
?GetItemProp@CProject@@QAEPAUItemProp@@H@Z PROC		; CProject::GetItemProp, COMDAT
; _this$ = ecx

; 1388 : { 

  00000	55		 push	 ebp
  00001	8b ec		 mov	 ebp, esp

; 1389 : 	VERIFY_RANGE_ASSERT( nIndex, 0, m_aPropItem.GetSize(), "GetItemProp range_error", NULL );

  00003	8b 55 08	 mov	 edx, DWORD PTR _nIndex$[ebp]
  00006	56		 push	 esi
  00007	85 d2		 test	 edx, edx
  00009	78 18		 js	 SHORT $LN14@GetItemPro
  0000b	3b 91 40 02 00
	00		 cmp	 edx, DWORD PTR [ecx+576]
  00011	7d 10		 jge	 SHORT $LN14@GetItemPro
; File C:\IAGOS\server\v18\Source\Source\_Common\data.h

; 270  : 	if( dwIndex >= (DWORD)m_nMaxIndex )

  00013	73 29		 jae	 SHORT $LN18@GetItemPro

; 271  : 		return NULL;
; 272  : 	return (T*) m_apOffset[ dwIndex ];

  00015	8b 81 30 02 00
	00		 mov	 eax, DWORD PTR [ecx+560]
  0001b	5e		 pop	 esi
  0001c	8b 04 90	 mov	 eax, DWORD PTR [eax+edx*4]
; File C:\IAGOS\server\v18\Source\Source\_Common\Project.h

; 1391 : }

  0001f	5d		 pop	 ebp
  00020	c2 04 00	 ret	 4
$LN14@GetItemPro:

; 579  : 	LPCTSTR szErr = Error( _T( "%s min:%d, max:%d, index:%d" ), szMsg, nMin, nMax, nIndex ); 

  00023	52		 push	 edx
  00024	ff b1 40 02 00
	00		 push	 DWORD PTR [ecx+576]
  0002a	6a 00		 push	 0
  0002c	68 00 00 00 00	 push	 OFFSET ??_C@_0BI@BEIFNGEL@GetItemProp?5range_error@
  00031	68 00 00 00 00	 push	 OFFSET ??_C@_0BM@HMFGHCP@?$CFs?5min?3?$CFd?0?5max?3?$CFd?0?5index?3?$CFd@
  00036	e8 00 00 00 00	 call	 ?Error@@YAPBDPBDZZ	; Error
  0003b	83 c4 14	 add	 esp, 20			; 00000014H
$LN18@GetItemPro:

; 1391 : }

  0003e	33 c0		 xor	 eax, eax
  00040	5e		 pop	 esi
  00041	5d		 pop	 ebp
  00042	c2 04 00	 ret	 4
?GetItemProp@CProject@@QAEPAUItemProp@@H@Z ENDP		; CProject::GetItemProp
_TEXT	ENDS
; Function compile flags: /Ogtp
; File C:\Program Files\Microsoft Visual Studio\2022\Professional\VC\Tools\MSVC\14.44.35207\include\vector
;	COMDAT ?_Xlength@?$vector@KV?$allocator@K@std@@@std@@CAXXZ
_TEXT	SEGMENT
?_Xlength@?$vector@KV?$allocator@K@std@@@std@@CAXXZ PROC ; std::vector<unsigned long,std::allocator<unsigned long> >::_Xlength, COMDAT

; 2184 :         _Xlength_error("vector too long");

  00000	68 00 00 00 00	 push	 OFFSET ??_C@_0BA@FOIKENOD@vector?5too?5long@
  00005	e8 00 00 00 00	 call	 ?_Xlength_error@std@@YAXPBD@Z ; std::_Xlength_error
$LN3@Xlength:
  0000a	cc		 int	 3
?_Xlength@?$vector@KV?$allocator@K@std@@@std@@CAXXZ ENDP ; std::vector<unsigned long,std::allocator<unsigned long> >::_Xlength
_TEXT	ENDS
; Function compile flags: /Ogtp
; File C:\Program Files\Microsoft Visual Studio\2022\Professional\VC\Tools\MSVC\14.44.35207\include\vector
; File C:\Program Files\Microsoft Visual Studio\2022\Professional\VC\Tools\MSVC\14.44.35207\include\xmemory
; File C:\Program Files\Microsoft Visual Studio\2022\Professional\VC\Tools\MSVC\14.44.35207\include\vector
; File C:\Program Files\Microsoft Visual Studio\2022\Professional\VC\Tools\MSVC\14.44.35207\include\xmemory
; File C:\Program Files\Microsoft Visual Studio\2022\Professional\VC\Tools\MSVC\14.44.35207\include\vector
; File C:\Program Files\Microsoft Visual Studio\2022\Professional\VC\Tools\MSVC\14.44.35207\include\xmemory
; File C:\Program Files\Microsoft Visual Studio\2022\Professional\VC\Tools\MSVC\14.44.35207\include\vector
;	COMDAT ?_Tidy@?$vector@KV?$allocator@K@std@@@std@@AAEXXZ
_TEXT	SEGMENT
?_Tidy@?$vector@KV?$allocator@K@std@@@std@@AAEXXZ PROC	; std::vector<unsigned long,std::allocator<unsigned long> >::_Tidy, COMDAT
; _this$ = ecx

; 2081 :     _CONSTEXPR20 void _Tidy() noexcept { // free all storage

  00000	56		 push	 esi
  00001	8b f1		 mov	 esi, ecx

; 2082 :         auto& _Al         = _Getal();
; 2083 :         auto& _My_data    = _Mypair._Myval2;
; 2084 :         pointer& _Myfirst = _My_data._Myfirst;
; 2085 :         pointer& _Mylast  = _My_data._Mylast;
; 2086 :         pointer& _Myend   = _My_data._Myend;
; 2087 : 
; 2088 :         _My_data._Orphan_all();
; 2089 : 
; 2090 :         if (_Myfirst) { // destroy and deallocate old array

  00003	8b 06		 mov	 eax, DWORD PTR [esi]
  00005	85 c0		 test	 eax, eax
  00007	74 40		 je	 SHORT $LN2@Tidy

; 2091 :             _STD _Destroy_range(_Myfirst, _Mylast, _Al);
; 2092 :             _ASAN_VECTOR_REMOVE;
; 2093 :             _Al.deallocate(_Myfirst, static_cast<size_type>(_Myend - _Myfirst));

  00009	8b 4e 08	 mov	 ecx, DWORD PTR [esi+8]
  0000c	2b c8		 sub	 ecx, eax
; File C:\Program Files\Microsoft Visual Studio\2022\Professional\VC\Tools\MSVC\14.44.35207\include\xmemory

; 985  :         _STD _Deallocate<_New_alignof<_Ty>>(_Ptr, sizeof(_Ty) * _Count);

  0000e	83 e1 fc	 and	 ecx, -4			; fffffffcH

; 284  :         if (_Bytes >= _Big_allocation_threshold) {

  00011	81 f9 00 10 00
	00		 cmp	 ecx, 4096		; 00001000H
  00017	72 12		 jb	 SHORT $LN15@Tidy

; 205  :     const uintptr_t _Ptr_container   = _Ptr_user[-1];

  00019	8b 50 fc	 mov	 edx, DWORD PTR [eax-4]
  0001c	83 c1 23	 add	 ecx, 35			; 00000023H

; 206  : 
; 207  :     // If the following asserts, it likely means that we are performing
; 208  :     // an aligned delete on memory coming from an unaligned allocation.
; 209  :     _STL_ASSERT(_Ptr_user[-2] == _Big_allocation_sentinel, "invalid argument");
; 210  : 
; 211  :     // Extra paranoia on aligned allocation/deallocation; ensure _Ptr_container is
; 212  :     // in range [_Min_back_shift, _Non_user_size]
; 213  : #ifdef _DEBUG
; 214  :     constexpr uintptr_t _Min_back_shift = 2 * sizeof(void*);
; 215  : #else // ^^^ defined(_DEBUG) / !defined(_DEBUG) vvv
; 216  :     constexpr uintptr_t _Min_back_shift = sizeof(void*);
; 217  : #endif // ^^^ !defined(_DEBUG) ^^^
; 218  :     const uintptr_t _Back_shift = reinterpret_cast<uintptr_t>(_Ptr) - _Ptr_container;

  0001f	2b c2		 sub	 eax, edx

; 219  :     _STL_VERIFY(_Back_shift >= _Min_back_shift && _Back_shift <= _Non_user_size, "invalid argument");

  00021	83 c0 fc	 add	 eax, -4			; fffffffcH
  00024	83 f8 1f	 cmp	 eax, 31			; 0000001fH
  00027	77 22		 ja	 SHORT $LN14@Tidy

; 220  :     _Ptr = reinterpret_cast<void*>(_Ptr_container);

  00029	8b c2		 mov	 eax, edx
$LN15@Tidy:

; 289  :         ::operator delete(_Ptr, _Bytes);

  0002b	51		 push	 ecx
  0002c	50		 push	 eax
  0002d	e8 00 00 00 00	 call	 ??3@YAXPAXI@Z		; operator delete
; File C:\Program Files\Microsoft Visual Studio\2022\Professional\VC\Tools\MSVC\14.44.35207\include\vector

; 2095 :             _Myfirst = nullptr;

  00032	c7 06 00 00 00
	00		 mov	 DWORD PTR [esi], 0
; File C:\Program Files\Microsoft Visual Studio\2022\Professional\VC\Tools\MSVC\14.44.35207\include\xmemory

; 289  :         ::operator delete(_Ptr, _Bytes);

  00038	83 c4 08	 add	 esp, 8
; File C:\Program Files\Microsoft Visual Studio\2022\Professional\VC\Tools\MSVC\14.44.35207\include\vector

; 2096 :             _Mylast  = nullptr;

  0003b	c7 46 04 00 00
	00 00		 mov	 DWORD PTR [esi+4], 0

; 2097 :             _Myend   = nullptr;

  00042	c7 46 08 00 00
	00 00		 mov	 DWORD PTR [esi+8], 0
$LN2@Tidy:

; 2099 :     }

  00049	5e		 pop	 esi
  0004a	c3		 ret	 0
$LN14@Tidy:
; File C:\Program Files\Microsoft Visual Studio\2022\Professional\VC\Tools\MSVC\14.44.35207\include\xmemory

; 219  :     _STL_VERIFY(_Back_shift >= _Min_back_shift && _Back_shift <= _Non_user_size, "invalid argument");

  0004b	6a 00		 push	 0
  0004d	6a 00		 push	 0
  0004f	6a 00		 push	 0
  00051	6a 00		 push	 0
  00053	6a 00		 push	 0
  00055	e8 00 00 00 00	 call	 __invoke_watson
$LN22@Tidy:
  0005a	cc		 int	 3
?_Tidy@?$vector@KV?$allocator@K@std@@@std@@AAEXXZ ENDP	; std::vector<unsigned long,std::allocator<unsigned long> >::_Tidy
_TEXT	ENDS
; Function compile flags: /Ogtp
; File C:\Program Files\Microsoft Visual Studio\2022\Professional\VC\Tools\MSVC\14.44.35207\include\vector
;	COMDAT ??1?$vector@KV?$allocator@K@std@@@std@@QAE@XZ
_TEXT	SEGMENT
??1?$vector@KV?$allocator@K@std@@@std@@QAE@XZ PROC	; std::vector<unsigned long,std::allocator<unsigned long> >::~vector<unsigned long,std::allocator<unsigned long> >, COMDAT
; _this$ = ecx

; 830  :         _Tidy();

  00000	e9 00 00 00 00	 jmp	 ?_Tidy@?$vector@KV?$allocator@K@std@@@std@@AAEXXZ ; std::vector<unsigned long,std::allocator<unsigned long> >::_Tidy
??1?$vector@KV?$allocator@K@std@@@std@@QAE@XZ ENDP	; std::vector<unsigned long,std::allocator<unsigned long> >::~vector<unsigned long,std::allocator<unsigned long> >
_TEXT	ENDS
; Function compile flags: /Ogtp
; File C:\IAGOS\server\v18\Source\Source\DX_SDK\d3dx9math.h
;	COMDAT ??0D3DXVECTOR3@@QAE@XZ
_TEXT	SEGMENT
??0D3DXVECTOR3@@QAE@XZ PROC				; D3DXVECTOR3::D3DXVECTOR3, COMDAT
; _this$ = ecx

; 165  :     D3DXVECTOR3() {};

  00000	8b c1		 mov	 eax, ecx
  00002	c3		 ret	 0
??0D3DXVECTOR3@@QAE@XZ ENDP				; D3DXVECTOR3::D3DXVECTOR3
_TEXT	ENDS
; Function compile flags: /Ogtp
; File C:\Program Files\Microsoft Visual Studio\2022\Professional\VC\Tools\MSVC\14.44.35207\include\xtree
;	COMDAT ?_Throw_tree_length_error@std@@YAXXZ
_TEXT	SEGMENT
?_Throw_tree_length_error@std@@YAXXZ PROC		; std::_Throw_tree_length_error, COMDAT

; 417  :     _Xlength_error("map/set too long");

  00000	68 00 00 00 00	 push	 OFFSET ??_C@_0BB@GCADKGJO@map?1set?5too?5long@
  00005	e8 00 00 00 00	 call	 ?_Xlength_error@std@@YAXPBD@Z ; std::_Xlength_error
$LN3@Throw_tree:
  0000a	cc		 int	 3
?_Throw_tree_length_error@std@@YAXXZ ENDP		; std::_Throw_tree_length_error
_TEXT	ENDS
; Function compile flags: /Ogtp
; File C:\Program Files\Microsoft Visual Studio\2022\Professional\VC\Tools\MSVC\14.44.35207\include\xmemory
;	COMDAT ?_Throw_bad_array_new_length@std@@YAXXZ
_TEXT	SEGMENT
$T1 = -12						; size = 12
?_Throw_bad_array_new_length@std@@YAXXZ PROC		; std::_Throw_bad_array_new_length, COMDAT

; 107  : [[noreturn]] inline void _Throw_bad_array_new_length() {

  00000	55		 push	 ebp
  00001	8b ec		 mov	 ebp, esp
  00003	83 ec 0c	 sub	 esp, 12			; 0000000cH

; 108  :     _THROW(bad_array_new_length{});

  00006	8d 4d f4	 lea	 ecx, DWORD PTR $T1[ebp]
  00009	e8 00 00 00 00	 call	 ??0bad_array_new_length@std@@QAE@XZ ; std::bad_array_new_length::bad_array_new_length
  0000e	68 00 00 00 00	 push	 OFFSET __TI3?AVbad_array_new_length@std@@
  00013	8d 45 f4	 lea	 eax, DWORD PTR $T1[ebp]
  00016	50		 push	 eax
  00017	e8 00 00 00 00	 call	 __CxxThrowException@8
$LN3@Throw_bad_:
  0001c	cc		 int	 3
?_Throw_bad_array_new_length@std@@YAXXZ ENDP		; std::_Throw_bad_array_new_length
_TEXT	ENDS
; Function compile flags: /Ogtp
; File C:\Program Files\Microsoft Visual Studio\2022\Professional\VC\Tools\MSVC\14.44.35207\include\vcruntime_exception.h
;	COMDAT ??_Gbad_array_new_length@std@@UAEPAXI@Z
_TEXT	SEGMENT
___flags$ = 8						; size = 4
??_Gbad_array_new_length@std@@UAEPAXI@Z PROC		; std::bad_array_new_length::`scalar deleting destructor', COMDAT
; _this$ = ecx
  00000	55		 push	 ebp
  00001	8b ec		 mov	 ebp, esp

; 90   :     {

  00003	56		 push	 esi
  00004	8b f1		 mov	 esi, ecx

; 91   :         __std_exception_destroy(&_Data);

  00006	8d 46 04	 lea	 eax, DWORD PTR [esi+4]
  00009	c7 06 00 00 00
	00		 mov	 DWORD PTR [esi], OFFSET ??_7exception@std@@6B@
  0000f	50		 push	 eax
  00010	e8 00 00 00 00	 call	 ___std_exception_destroy
  00015	83 c4 04	 add	 esp, 4
  00018	f6 45 08 01	 test	 BYTE PTR ___flags$[ebp], 1
  0001c	74 0b		 je	 SHORT $LN18@scalar
  0001e	6a 0c		 push	 12			; 0000000cH
  00020	56		 push	 esi
  00021	e8 00 00 00 00	 call	 ??3@YAXPAXI@Z		; operator delete
  00026	83 c4 08	 add	 esp, 8
$LN18@scalar:
  00029	8b c6		 mov	 eax, esi
  0002b	5e		 pop	 esi
  0002c	5d		 pop	 ebp
  0002d	c2 04 00	 ret	 4
??_Gbad_array_new_length@std@@UAEPAXI@Z ENDP		; std::bad_array_new_length::`scalar deleting destructor'
_TEXT	ENDS
; Function compile flags: /Ogtp
; File C:\Program Files\Microsoft Visual Studio\2022\Professional\VC\Tools\MSVC\14.44.35207\include\vcruntime_exception.h
;	COMDAT ??0bad_array_new_length@std@@QAE@ABV01@@Z
_TEXT	SEGMENT
___that$ = 8						; size = 4
??0bad_array_new_length@std@@QAE@ABV01@@Z PROC		; std::bad_array_new_length::bad_array_new_length, COMDAT
; _this$ = ecx
  00000	55		 push	 ebp
  00001	8b ec		 mov	 ebp, esp

; 73   :     {

  00003	56		 push	 esi
  00004	8b f1		 mov	 esi, ecx
  00006	0f 57 c0	 xorps	 xmm0, xmm0

; 72   :         : _Data()

  00009	8d 46 04	 lea	 eax, DWORD PTR [esi+4]

; 74   :         __std_exception_copy(&_Other._Data, &_Data);

  0000c	50		 push	 eax
  0000d	c7 06 00 00 00
	00		 mov	 DWORD PTR [esi], OFFSET ??_7exception@std@@6B@
  00013	66 0f d6 00	 movq	 QWORD PTR [eax], xmm0
  00017	8b 45 08	 mov	 eax, DWORD PTR ___that$[ebp]
  0001a	83 c0 04	 add	 eax, 4
  0001d	50		 push	 eax
  0001e	e8 00 00 00 00	 call	 ___std_exception_copy
  00023	83 c4 08	 add	 esp, 8
  00026	c7 06 00 00 00
	00		 mov	 DWORD PTR [esi], OFFSET ??_7bad_array_new_length@std@@6B@
  0002c	8b c6		 mov	 eax, esi
  0002e	5e		 pop	 esi
  0002f	5d		 pop	 ebp
  00030	c2 04 00	 ret	 4
??0bad_array_new_length@std@@QAE@ABV01@@Z ENDP		; std::bad_array_new_length::bad_array_new_length
_TEXT	ENDS
; Function compile flags: /Ogtp
; File C:\Program Files\Microsoft Visual Studio\2022\Professional\VC\Tools\MSVC\14.44.35207\include\vcruntime_exception.h
;	COMDAT ??1bad_array_new_length@std@@UAE@XZ
_TEXT	SEGMENT
??1bad_array_new_length@std@@UAE@XZ PROC		; std::bad_array_new_length::~bad_array_new_length, COMDAT
; _this$ = ecx

; 91   :         __std_exception_destroy(&_Data);

  00000	8d 41 04	 lea	 eax, DWORD PTR [ecx+4]
  00003	c7 01 00 00 00
	00		 mov	 DWORD PTR [ecx], OFFSET ??_7exception@std@@6B@
  00009	50		 push	 eax
  0000a	e8 00 00 00 00	 call	 ___std_exception_destroy
  0000f	59		 pop	 ecx
  00010	c3		 ret	 0
??1bad_array_new_length@std@@UAE@XZ ENDP		; std::bad_array_new_length::~bad_array_new_length
_TEXT	ENDS
; Function compile flags: /Ogtp
; File C:\Program Files\Microsoft Visual Studio\2022\Professional\VC\Tools\MSVC\14.44.35207\include\vcruntime_exception.h
;	COMDAT ??0bad_array_new_length@std@@QAE@XZ
_TEXT	SEGMENT
??0bad_array_new_length@std@@QAE@XZ PROC		; std::bad_array_new_length::bad_array_new_length, COMDAT
; _this$ = ecx

; 144  :     {

  00000	0f 57 c0	 xorps	 xmm0, xmm0

; 145  :     }

  00003	8b c1		 mov	 eax, ecx

; 66   :         : _Data()

  00005	66 0f d6 41 04	 movq	 QWORD PTR [ecx+4], xmm0

; 67   :     {
; 68   :         _Data._What = _Message;

  0000a	c7 41 04 00 00
	00 00		 mov	 DWORD PTR [ecx+4], OFFSET ??_C@_0BF@KINCDENJ@bad?5array?5new?5length@

; 144  :     {

  00011	c7 01 00 00 00
	00		 mov	 DWORD PTR [ecx], OFFSET ??_7bad_array_new_length@std@@6B@

; 145  :     }

  00017	c3		 ret	 0
??0bad_array_new_length@std@@QAE@XZ ENDP		; std::bad_array_new_length::bad_array_new_length
_TEXT	ENDS
; Function compile flags: /Ogtp
; File C:\Program Files\Microsoft Visual Studio\2022\Professional\VC\Tools\MSVC\14.44.35207\include\vcruntime_exception.h
;	COMDAT ??_Gbad_alloc@std@@UAEPAXI@Z
_TEXT	SEGMENT
___flags$ = 8						; size = 4
??_Gbad_alloc@std@@UAEPAXI@Z PROC			; std::bad_alloc::`scalar deleting destructor', COMDAT
; _this$ = ecx
  00000	55		 push	 ebp
  00001	8b ec		 mov	 ebp, esp

; 90   :     {

  00003	56		 push	 esi
  00004	8b f1		 mov	 esi, ecx

; 91   :         __std_exception_destroy(&_Data);

  00006	8d 46 04	 lea	 eax, DWORD PTR [esi+4]
  00009	c7 06 00 00 00
	00		 mov	 DWORD PTR [esi], OFFSET ??_7exception@std@@6B@
  0000f	50		 push	 eax
  00010	e8 00 00 00 00	 call	 ___std_exception_destroy
  00015	83 c4 04	 add	 esp, 4
  00018	f6 45 08 01	 test	 BYTE PTR ___flags$[ebp], 1
  0001c	74 0b		 je	 SHORT $LN13@scalar
  0001e	6a 0c		 push	 12			; 0000000cH
  00020	56		 push	 esi
  00021	e8 00 00 00 00	 call	 ??3@YAXPAXI@Z		; operator delete
  00026	83 c4 08	 add	 esp, 8
$LN13@scalar:
  00029	8b c6		 mov	 eax, esi
  0002b	5e		 pop	 esi
  0002c	5d		 pop	 ebp
  0002d	c2 04 00	 ret	 4
??_Gbad_alloc@std@@UAEPAXI@Z ENDP			; std::bad_alloc::`scalar deleting destructor'
_TEXT	ENDS
; Function compile flags: /Ogtp
; File C:\Program Files\Microsoft Visual Studio\2022\Professional\VC\Tools\MSVC\14.44.35207\include\vcruntime_exception.h
;	COMDAT ??0bad_alloc@std@@QAE@ABV01@@Z
_TEXT	SEGMENT
___that$ = 8						; size = 4
??0bad_alloc@std@@QAE@ABV01@@Z PROC			; std::bad_alloc::bad_alloc, COMDAT
; _this$ = ecx
  00000	55		 push	 ebp
  00001	8b ec		 mov	 ebp, esp

; 73   :     {

  00003	56		 push	 esi
  00004	8b f1		 mov	 esi, ecx
  00006	0f 57 c0	 xorps	 xmm0, xmm0

; 72   :         : _Data()

  00009	8d 46 04	 lea	 eax, DWORD PTR [esi+4]

; 74   :         __std_exception_copy(&_Other._Data, &_Data);

  0000c	50		 push	 eax
  0000d	c7 06 00 00 00
	00		 mov	 DWORD PTR [esi], OFFSET ??_7exception@std@@6B@
  00013	66 0f d6 00	 movq	 QWORD PTR [eax], xmm0
  00017	8b 45 08	 mov	 eax, DWORD PTR ___that$[ebp]
  0001a	83 c0 04	 add	 eax, 4
  0001d	50		 push	 eax
  0001e	e8 00 00 00 00	 call	 ___std_exception_copy
  00023	83 c4 08	 add	 esp, 8
  00026	c7 06 00 00 00
	00		 mov	 DWORD PTR [esi], OFFSET ??_7bad_alloc@std@@6B@
  0002c	8b c6		 mov	 eax, esi
  0002e	5e		 pop	 esi
  0002f	5d		 pop	 ebp
  00030	c2 04 00	 ret	 4
??0bad_alloc@std@@QAE@ABV01@@Z ENDP			; std::bad_alloc::bad_alloc
_TEXT	ENDS
; Function compile flags: /Ogtp
; File C:\Program Files\Microsoft Visual Studio\2022\Professional\VC\Tools\MSVC\14.44.35207\include\vcruntime_exception.h
;	COMDAT ??_Gexception@std@@UAEPAXI@Z
_TEXT	SEGMENT
___flags$ = 8						; size = 4
??_Gexception@std@@UAEPAXI@Z PROC			; std::exception::`scalar deleting destructor', COMDAT
; _this$ = ecx
  00000	55		 push	 ebp
  00001	8b ec		 mov	 ebp, esp

; 90   :     {

  00003	56		 push	 esi
  00004	8b f1		 mov	 esi, ecx

; 91   :         __std_exception_destroy(&_Data);

  00006	8d 46 04	 lea	 eax, DWORD PTR [esi+4]
  00009	c7 06 00 00 00
	00		 mov	 DWORD PTR [esi], OFFSET ??_7exception@std@@6B@
  0000f	50		 push	 eax
  00010	e8 00 00 00 00	 call	 ___std_exception_destroy
  00015	83 c4 04	 add	 esp, 4
  00018	f6 45 08 01	 test	 BYTE PTR ___flags$[ebp], 1
  0001c	74 0b		 je	 SHORT $LN8@scalar
  0001e	6a 0c		 push	 12			; 0000000cH
  00020	56		 push	 esi
  00021	e8 00 00 00 00	 call	 ??3@YAXPAXI@Z		; operator delete
  00026	83 c4 08	 add	 esp, 8
$LN8@scalar:
  00029	8b c6		 mov	 eax, esi
  0002b	5e		 pop	 esi
  0002c	5d		 pop	 ebp
  0002d	c2 04 00	 ret	 4
??_Gexception@std@@UAEPAXI@Z ENDP			; std::exception::`scalar deleting destructor'
_TEXT	ENDS
; Function compile flags: /Ogtp
; File C:\Program Files\Microsoft Visual Studio\2022\Professional\VC\Tools\MSVC\14.44.35207\include\vcruntime_exception.h
;	COMDAT ?what@exception@std@@UBEPBDXZ
_TEXT	SEGMENT
?what@exception@std@@UBEPBDXZ PROC			; std::exception::what, COMDAT
; _this$ = ecx

; 96   :         return _Data._What ? _Data._What : "Unknown exception";

  00000	8b 49 04	 mov	 ecx, DWORD PTR [ecx+4]
  00003	b8 00 00 00 00	 mov	 eax, OFFSET ??_C@_0BC@EOODALEL@Unknown?5exception@
  00008	85 c9		 test	 ecx, ecx
  0000a	0f 45 c1	 cmovne	 eax, ecx

; 97   :     }

  0000d	c3		 ret	 0
?what@exception@std@@UBEPBDXZ ENDP			; std::exception::what
_TEXT	ENDS
; Function compile flags: /Ogtp
; File C:\Program Files\Microsoft Visual Studio\2022\Professional\VC\Tools\MSVC\14.44.35207\include\vcruntime_exception.h
;	COMDAT ??1exception@std@@UAE@XZ
_TEXT	SEGMENT
??1exception@std@@UAE@XZ PROC				; std::exception::~exception, COMDAT
; _this$ = ecx

; 91   :         __std_exception_destroy(&_Data);

  00000	8d 41 04	 lea	 eax, DWORD PTR [ecx+4]
  00003	c7 01 00 00 00
	00		 mov	 DWORD PTR [ecx], OFFSET ??_7exception@std@@6B@
  00009	50		 push	 eax
  0000a	e8 00 00 00 00	 call	 ___std_exception_destroy
  0000f	59		 pop	 ecx

; 92   :     }

  00010	c3		 ret	 0
??1exception@std@@UAE@XZ ENDP				; std::exception::~exception
_TEXT	ENDS
; Function compile flags: /Ogtp
; File C:\Program Files\Microsoft Visual Studio\2022\Professional\VC\Tools\MSVC\14.44.35207\include\vcruntime_exception.h
;	COMDAT ??0exception@std@@QAE@ABV01@@Z
_TEXT	SEGMENT
__Other$ = 8						; size = 4
??0exception@std@@QAE@ABV01@@Z PROC			; std::exception::exception, COMDAT
; _this$ = ecx

; 73   :     {

  00000	55		 push	 ebp
  00001	8b ec		 mov	 ebp, esp
  00003	56		 push	 esi
  00004	8b f1		 mov	 esi, ecx
  00006	0f 57 c0	 xorps	 xmm0, xmm0
  00009	8d 46 04	 lea	 eax, DWORD PTR [esi+4]

; 74   :         __std_exception_copy(&_Other._Data, &_Data);

  0000c	50		 push	 eax
  0000d	c7 06 00 00 00
	00		 mov	 DWORD PTR [esi], OFFSET ??_7exception@std@@6B@
  00013	66 0f d6 00	 movq	 QWORD PTR [eax], xmm0
  00017	8b 45 08	 mov	 eax, DWORD PTR __Other$[ebp]
  0001a	83 c0 04	 add	 eax, 4
  0001d	50		 push	 eax
  0001e	e8 00 00 00 00	 call	 ___std_exception_copy
  00023	83 c4 08	 add	 esp, 8

; 75   :     }

  00026	8b c6		 mov	 eax, esi
  00028	5e		 pop	 esi
  00029	5d		 pop	 ebp
  0002a	c2 04 00	 ret	 4
??0exception@std@@QAE@ABV01@@Z ENDP			; std::exception::exception
_TEXT	ENDS
; Function compile flags: /Ogtp
; File C:\IAGOS\server\v18\Source\Source\_Common\Housing.cpp
;	COMDAT ?__empty_global_delete@@YAXPAXI@Z
_TEXT	SEGMENT
___formal$ = 8						; size = 4
___formal$ = 12						; size = 4
?__empty_global_delete@@YAXPAXI@Z PROC			; __empty_global_delete, COMDAT

  00000	c2 00 00	 ret	 0
?__empty_global_delete@@YAXPAXI@Z ENDP			; __empty_global_delete
_TEXT	ENDS
; Function compile flags: /Ogtp
; File C:\IAGOS\server\v18\Source\Source\_Common\Housing.cpp
;	COMDAT ?__empty_global_delete@@YAXPAX@Z
_TEXT	SEGMENT
___formal$ = 8						; size = 4
?__empty_global_delete@@YAXPAX@Z PROC			; __empty_global_delete, COMDAT

  00000	c2 00 00	 ret	 0
?__empty_global_delete@@YAXPAX@Z ENDP			; __empty_global_delete
_TEXT	ENDS
END
