; Listing generated by Microsoft (R) Optimizing Compiler Version 19.44.35225.0 

	TITLE	C:\IAGOS\server\v18\Source\Output\WorldServer\Release\ItemUpgrade.obj
	.686P
	.XMM
	include listing.inc
	.model	flat

INCLUDELIB LIBCMT
INCLUDELIB OLDNAMES

CONST	SEGMENT
?piecewise_construct@std@@3Upiecewise_construct_t@1@B	ORG $+1 ; std::piecewise_construct
CONST	ENDS
PUBLIC	?__empty_global_delete@@YAXPAX@Z		; __empty_global_delete
PUBLIC	?__empty_global_delete@@YAXPAXI@Z		; __empty_global_delete
PUBLIC	___local_stdio_printf_options
PUBLIC	_sprintf
PUBLIC	??0exception@std@@QAE@ABV01@@Z			; std::exception::exception
PUBLIC	??1exception@std@@UAE@XZ			; std::exception::~exception
PUBLIC	?what@exception@std@@UBEPBDXZ			; std::exception::what
PUBLIC	??_Gexception@std@@UAEPAXI@Z			; std::exception::`scalar deleting destructor'
PUBLIC	??0bad_alloc@std@@QAE@ABV01@@Z			; std::bad_alloc::bad_alloc
PUBLIC	??_Gbad_alloc@std@@UAEPAXI@Z			; std::bad_alloc::`scalar deleting destructor'
PUBLIC	??0bad_array_new_length@std@@QAE@XZ		; std::bad_array_new_length::bad_array_new_length
PUBLIC	??1bad_array_new_length@std@@UAE@XZ		; std::bad_array_new_length::~bad_array_new_length
PUBLIC	??0bad_array_new_length@std@@QAE@ABV01@@Z	; std::bad_array_new_length::bad_array_new_length
PUBLIC	??_Gbad_array_new_length@std@@UAEPAXI@Z		; std::bad_array_new_length::`scalar deleting destructor'
PUBLIC	?_Throw_bad_array_new_length@std@@YAXXZ		; std::_Throw_bad_array_new_length
PUBLIC	?_Throw_tree_length_error@std@@YAXXZ		; std::_Throw_tree_length_error
PUBLIC	??0_LogItemInfo@@QAE@XZ				; _LogItemInfo::_LogItemInfo
PUBLIC	??1?$_Tree@V?$_Tmap_traits@HHU?$less@H@std@@V?$allocator@U?$pair@$$CBHH@std@@@2@$0A@@std@@@std@@QAE@XZ ; std::_Tree<std::_Tmap_traits<int,int,std::less<int>,std::allocator<std::pair<int const ,int> >,0> >::~_Tree<std::_Tmap_traits<int,int,std::less<int>,std::allocator<std::pair<int const ,int> >,0> >
PUBLIC	?clear@?$_Tree@V?$_Tmap_traits@HHU?$less@H@std@@V?$allocator@U?$pair@$$CBHH@std@@@2@$0A@@std@@@std@@QAEXXZ ; std::_Tree<std::_Tmap_traits<int,int,std::less<int>,std::allocator<std::pair<int const ,int> >,0> >::clear
PUBLIC	?_Insert_node@?$_Tree_val@U?$_Tree_simple_types@U?$pair@$$CBHH@std@@@std@@@std@@QAEPAU?$_Tree_node@U?$pair@$$CBHH@std@@PAX@2@U?$_Tree_id@PAU?$_Tree_node@U?$pair@$$CBHH@std@@PAX@std@@@2@QAU32@@Z ; std::_Tree_val<std::_Tree_simple_types<std::pair<int const ,int> > >::_Insert_node
PUBLIC	??1?$map@HHU?$less@H@std@@V?$allocator@U?$pair@$$CBHH@std@@@2@@std@@QAE@XZ ; std::map<int,int,std::less<int>,std::allocator<std::pair<int const ,int> > >::~map<int,int,std::less<int>,std::allocator<std::pair<int const ,int> > >
PUBLIC	?GetItemProp@CProject@@QAEPAUItemProp@@H@Z	; CProject::GetItemProp
PUBLIC	?GetPropA@CItemElem@@QAEPAUItemProp@@XZ		; CItemElem::GetPropA
PUBLIC	?IsVisPet@CItemElem@@QAEHXZ			; CItemElem::IsVisPet
PUBLIC	?IsEquip@?$CItemContainer@VCItemElem@@@@QAEHK@Z	; CItemContainer<CItemElem>::IsEquip
PUBLIC	?IsFull@?$CItemContainer@VCItemElem@@@@QAEHPAVCItemElem@@PAUItemProp@@F@Z ; CItemContainer<CItemElem>::IsFull
PUBLIC	?GetAtId@?$CItemContainer@VCItemElem@@@@QAEPAVCItemElem@@K@Z ; CItemContainer<CItemElem>::GetAtId
PUBLIC	??$_Erase_tree@V?$allocator@U?$_Tree_node@U?$pair@$$CBHH@std@@PAX@std@@@std@@@?$_Tree_val@U?$_Tree_simple_types@U?$pair@$$CBHH@std@@@std@@@std@@QAEXAAV?$allocator@U?$_Tree_node@U?$pair@$$CBHH@std@@PAX@std@@@1@PAU?$_Tree_node@U?$pair@$$CBHH@std@@PAX@1@@Z ; std::_Tree_val<std::_Tree_simple_types<std::pair<int const ,int> > >::_Erase_tree<std::allocator<std::_Tree_node<std::pair<int const ,int>,void *> > >
PUBLIC	??$_Allocate_manually_vector_aligned@U_Default_allocate_traits@std@@@std@@YAPAXI@Z ; std::_Allocate_manually_vector_aligned<std::_Default_allocate_traits>
PUBLIC	??0CItemUpgrade@@QAE@XZ				; CItemUpgrade::CItemUpgrade
PUBLIC	??1CItemUpgrade@@QAE@XZ				; CItemUpgrade::~CItemUpgrade
PUBLIC	?GetInstance@CItemUpgrade@@SAPAV1@XZ		; CItemUpgrade::GetInstance
PUBLIC	?LoadScript@CItemUpgrade@@QAEXXZ		; CItemUpgrade::LoadScript
PUBLIC	?OnPiercingSize@CItemUpgrade@@QAEXPAVCUser@@KKK@Z ; CItemUpgrade::OnPiercingSize
PUBLIC	?GetSizeProb@CItemUpgrade@@QAEHPAVCItemElem@@@Z	; CItemUpgrade::GetSizeProb
PUBLIC	?OnPiercing@CItemUpgrade@@QAEXPAVCUser@@KK@Z	; CItemUpgrade::OnPiercing
PUBLIC	?OnPiercingRemove@CItemUpgrade@@QAEXPAVCUser@@K@Z ; CItemUpgrade::OnPiercingRemove
PUBLIC	?OnSmeltSafety@CItemUpgrade@@QAEEPAVCUser@@PAVCItemElem@@111@Z ; CItemUpgrade::OnSmeltSafety
PUBLIC	?OnEnchant@CItemUpgrade@@QAEXPAVCUser@@PAVCItemElem@@1@Z ; CItemUpgrade::OnEnchant
PUBLIC	?GetAttributeDamageFactor@CItemUpgrade@@QAEHH@Z	; CItemUpgrade::GetAttributeDamageFactor
PUBLIC	?GetAttributeDefenseFactor@CItemUpgrade@@QAEHH@Z ; CItemUpgrade::GetAttributeDefenseFactor
PUBLIC	?GetAttributeAddAtkDmgFactor@CItemUpgrade@@QAEHH@Z ; CItemUpgrade::GetAttributeAddAtkDmgFactor
PUBLIC	?ChangeAttribute@CItemUpgrade@@QAEXPAVCUser@@KKW4ePropType@SAI79@@@Z ; CItemUpgrade::ChangeAttribute
PUBLIC	?OnItemTransy@CItemUpgrade@@QAEXPAVCUser@@KKKH@Z ; CItemUpgrade::OnItemTransy
PUBLIC	?RunItemTransy@CItemUpgrade@@AAEHPAVCUser@@PAVCItemElem@@K@Z ; CItemUpgrade::RunItemTransy
PUBLIC	?RefineAccessory@CItemUpgrade@@AAEXPAVCUser@@PAVCItemElem@@1@Z ; CItemUpgrade::RefineAccessory
PUBLIC	?RefineCollector@CItemUpgrade@@AAEXPAVCUser@@PAVCItemElem@@1@Z ; CItemUpgrade::RefineCollector
PUBLIC	?SmeltSafetyNormal@CItemUpgrade@@AAEEPAVCUser@@PAVCItemElem@@111@Z ; CItemUpgrade::SmeltSafetyNormal
PUBLIC	?SmeltSafetyGeneral@CItemUpgrade@@AAEEPAVCUser@@PAVCItemElem@@111@Z ; CItemUpgrade::SmeltSafetyGeneral
PUBLIC	?SmeltSafetyAccessory@CItemUpgrade@@AAEEPAVCUser@@PAVCItemElem@@11@Z ; CItemUpgrade::SmeltSafetyAccessory
PUBLIC	?SmeltSafetyPiercingSize@CItemUpgrade@@AAEEPAVCUser@@PAVCItemElem@@11@Z ; CItemUpgrade::SmeltSafetyPiercingSize
PUBLIC	?SmeltSafetyAttribute@CItemUpgrade@@AAEEPAVCUser@@PAVCItemElem@@111@Z ; CItemUpgrade::SmeltSafetyAttribute
PUBLIC	?EnchantGeneral@CItemUpgrade@@QAEXPAVCUser@@PAVCItemElem@@1@Z ; CItemUpgrade::EnchantGeneral
PUBLIC	?GetGeneralEnchantProb@CItemUpgrade@@QAEHH@Z	; CItemUpgrade::GetGeneralEnchantProb
PUBLIC	?EnchantAttribute@CItemUpgrade@@QAEXPAVCUser@@PAVCItemElem@@1@Z ; CItemUpgrade::EnchantAttribute
PUBLIC	?GetAttributeEnchantProb@CItemUpgrade@@QAEHH@Z	; CItemUpgrade::GetAttributeEnchantProb
PUBLIC	?WhatEleCard@CItemUpgrade@@QAEKK@Z		; CItemUpgrade::WhatEleCard
PUBLIC	??1?$_Tree@V?$_Tmap_traits@HU__ATTRIBUTE_ENCHANT@@U?$less@H@std@@V?$allocator@U?$pair@$$CBHU__ATTRIBUTE_ENCHANT@@@std@@@3@$0A@@std@@@std@@QAE@XZ ; std::_Tree<std::_Tmap_traits<int,__ATTRIBUTE_ENCHANT,std::less<int>,std::allocator<std::pair<int const ,__ATTRIBUTE_ENCHANT> >,0> >::~_Tree<std::_Tmap_traits<int,__ATTRIBUTE_ENCHANT,std::less<int>,std::allocator<std::pair<int const ,__ATTRIBUTE_ENCHANT> >,0> >
PUBLIC	?_Insert_node@?$_Tree_val@U?$_Tree_simple_types@U?$pair@$$CBHU__ATTRIBUTE_ENCHANT@@@std@@@std@@@std@@QAEPAU?$_Tree_node@U?$pair@$$CBHU__ATTRIBUTE_ENCHANT@@@std@@PAX@2@U?$_Tree_id@PAU?$_Tree_node@U?$pair@$$CBHU__ATTRIBUTE_ENCHANT@@@std@@PAX@std@@@2@QAU32@@Z ; std::_Tree_val<std::_Tree_simple_types<std::pair<int const ,__ATTRIBUTE_ENCHANT> > >::_Insert_node
PUBLIC	??1?$map@HU__ATTRIBUTE_ENCHANT@@U?$less@H@std@@V?$allocator@U?$pair@$$CBHU__ATTRIBUTE_ENCHANT@@@std@@@3@@std@@QAE@XZ ; std::map<int,__ATTRIBUTE_ENCHANT,std::less<int>,std::allocator<std::pair<int const ,__ATTRIBUTE_ENCHANT> > >::~map<int,__ATTRIBUTE_ENCHANT,std::less<int>,std::allocator<std::pair<int const ,__ATTRIBUTE_ENCHANT> > >
PUBLIC	?LoadScriptBaruna@CItemUpgrade@@QAEXXZ		; CItemUpgrade::LoadScriptBaruna
PUBLIC	?CreateBarunaCrystal@CItemUpgrade@@QAEXPAVCUser@@PAVCItemElem@@1@Z ; CItemUpgrade::CreateBarunaCrystal
PUBLIC	?BarunaChaosGemExtract@CItemUpgrade@@QAEXPAVCUser@@PAVCItemElem@@@Z ; CItemUpgrade::BarunaChaosGemExtract
PUBLIC	?CreateBarunaChaosGem@CItemUpgrade@@QAEXPAVCUser@@PAVCItemElem@@1@Z ; CItemUpgrade::CreateBarunaChaosGem
PUBLIC	?CreateStone@CItemUpgrade@@QAEXPAVCUser@@PAVCItemElem@@11@Z ; CItemUpgrade::CreateStone
PUBLIC	?EnchantBaruna@CItemUpgrade@@QAEXPAVCUser@@PAVCItemElem@@111@Z ; CItemUpgrade::EnchantBaruna
PUBLIC	?GetBarunaEnchantProp@CItemUpgrade@@QAEHH@Z	; CItemUpgrade::GetBarunaEnchantProp
PUBLIC	?GetBarunaEnchantDowngradeProp@CItemUpgrade@@QAEHH@Z ; CItemUpgrade::GetBarunaEnchantDowngradeProp
PUBLIC	?GetBarunaPetMultiplicator@CItemUpgrade@@QAEMH@Z ; CItemUpgrade::GetBarunaPetMultiplicator
PUBLIC	?GetBarunaFailForNextLevel@CItemUpgrade@@QAEHH@Z ; CItemUpgrade::GetBarunaFailForNextLevel
PUBLIC	??1?$_Tree@V?$_Tmap_traits@HU__CHAOS_GEM@@U?$less@H@std@@V?$allocator@U?$pair@$$CBHU__CHAOS_GEM@@@std@@@3@$0A@@std@@@std@@QAE@XZ ; std::_Tree<std::_Tmap_traits<int,__CHAOS_GEM,std::less<int>,std::allocator<std::pair<int const ,__CHAOS_GEM> >,0> >::~_Tree<std::_Tmap_traits<int,__CHAOS_GEM,std::less<int>,std::allocator<std::pair<int const ,__CHAOS_GEM> >,0> >
PUBLIC	?_Insert_node@?$_Tree_val@U?$_Tree_simple_types@U?$pair@$$CBHU__CHAOS_GEM@@@std@@@std@@@std@@QAEPAU?$_Tree_node@U?$pair@$$CBHU__CHAOS_GEM@@@std@@PAX@2@U?$_Tree_id@PAU?$_Tree_node@U?$pair@$$CBHU__CHAOS_GEM@@@std@@PAX@std@@@2@QAU32@@Z ; std::_Tree_val<std::_Tree_simple_types<std::pair<int const ,__CHAOS_GEM> > >::_Insert_node
PUBLIC	??1?$map@HU__CHAOS_GEM@@U?$less@H@std@@V?$allocator@U?$pair@$$CBHU__CHAOS_GEM@@@std@@@3@@std@@QAE@XZ ; std::map<int,__CHAOS_GEM,std::less<int>,std::allocator<std::pair<int const ,__CHAOS_GEM> > >::~map<int,__CHAOS_GEM,std::less<int>,std::allocator<std::pair<int const ,__CHAOS_GEM> > >
PUBLIC	?CreateBarunaPiercing@CItemUpgrade@@QAEXPAVCUser@@PAVCItemElem@@111@Z ; CItemUpgrade::CreateBarunaPiercing
PUBLIC	?PetVisSize@CItemUpgrade@@QAEXPAVCUser@@K@Z	; CItemUpgrade::PetVisSize
PUBLIC	?SetPetVisItem@CItemUpgrade@@QAEXPAVCUser@@K@Z	; CItemUpgrade::SetPetVisItem
PUBLIC	?RemovePetVisItem@CItemUpgrade@@QAEXPAVCUser@@HH@Z ; CItemUpgrade::RemovePetVisItem
PUBLIC	?PutPetVisItemLog@CItemUpgrade@@QAEXPAVCUser@@PBD1PAVCItemElem@@H@Z ; CItemUpgrade::PutPetVisItemLog
PUBLIC	?SwapVis@CItemUpgrade@@QAEXPAVCUser@@HH@Z	; CItemUpgrade::SwapVis
PUBLIC	?ChangeVisPetSfx@CItemUpgrade@@QAEXPAVCUser@@PAVCItemElem@@@Z ; CItemUpgrade::ChangeVisPetSfx
PUBLIC	?TransFormVisPet@CItemUpgrade@@QAEXPAVCUser@@K@Z ; CItemUpgrade::TransFormVisPet
PUBLIC	??$_Erase_tree@V?$allocator@U?$_Tree_node@U?$pair@$$CBHU__ATTRIBUTE_ENCHANT@@@std@@PAX@std@@@std@@@?$_Tree_val@U?$_Tree_simple_types@U?$pair@$$CBHU__ATTRIBUTE_ENCHANT@@@std@@@std@@@std@@QAEXAAV?$allocator@U?$_Tree_node@U?$pair@$$CBHU__ATTRIBUTE_ENCHANT@@@std@@PAX@std@@@1@PAU?$_Tree_node@U?$pair@$$CBHU__ATTRIBUTE_ENCHANT@@@std@@PAX@1@@Z ; std::_Tree_val<std::_Tree_simple_types<std::pair<int const ,__ATTRIBUTE_ENCHANT> > >::_Erase_tree<std::allocator<std::_Tree_node<std::pair<int const ,__ATTRIBUTE_ENCHANT>,void *> > >
PUBLIC	??$_Find_lower_bound@H@?$_Tree@V?$_Tmap_traits@HU__CHAOS_GEM@@U?$less@H@std@@V?$allocator@U?$pair@$$CBHU__CHAOS_GEM@@@std@@@3@$0A@@std@@@std@@IBE?AU?$_Tree_find_result@PAU?$_Tree_node@U?$pair@$$CBHU__CHAOS_GEM@@@std@@PAX@std@@@1@ABH@Z ; std::_Tree<std::_Tmap_traits<int,__CHAOS_GEM,std::less<int>,std::allocator<std::pair<int const ,__CHAOS_GEM> >,0> >::_Find_lower_bound<int>
PUBLIC	??$_Erase_tree@V?$allocator@U?$_Tree_node@U?$pair@$$CBHU__CHAOS_GEM@@@std@@PAX@std@@@std@@@?$_Tree_val@U?$_Tree_simple_types@U?$pair@$$CBHU__CHAOS_GEM@@@std@@@std@@@std@@QAEXAAV?$allocator@U?$_Tree_node@U?$pair@$$CBHU__CHAOS_GEM@@@std@@PAX@std@@@1@PAU?$_Tree_node@U?$pair@$$CBHU__CHAOS_GEM@@@std@@PAX@1@@Z ; std::_Tree_val<std::_Tree_simple_types<std::pair<int const ,__CHAOS_GEM> > >::_Erase_tree<std::allocator<std::_Tree_node<std::pair<int const ,__CHAOS_GEM>,void *> > >
PUBLIC	??$_Find_lower_bound@H@?$_Tree@V?$_Tmap_traits@HU__ATTRIBUTE_ENCHANT@@U?$less@H@std@@V?$allocator@U?$pair@$$CBHU__ATTRIBUTE_ENCHANT@@@std@@@3@$0A@@std@@@std@@IBE?AU?$_Tree_find_result@PAU?$_Tree_node@U?$pair@$$CBHU__ATTRIBUTE_ENCHANT@@@std@@PAX@std@@@1@ABH@Z ; std::_Tree<std::_Tmap_traits<int,__ATTRIBUTE_ENCHANT,std::less<int>,std::allocator<std::pair<int const ,__ATTRIBUTE_ENCHANT> >,0> >::_Find_lower_bound<int>
PUBLIC	??$_Find_lower_bound@H@?$_Tree@V?$_Tmap_traits@HHU?$less@H@std@@V?$allocator@U?$pair@$$CBHH@std@@@2@$0A@@std@@@std@@IBE?AU?$_Tree_find_result@PAU?$_Tree_node@U?$pair@$$CBHH@std@@PAX@std@@@1@ABH@Z ; std::_Tree<std::_Tmap_traits<int,int,std::less<int>,std::allocator<std::pair<int const ,int> >,0> >::_Find_lower_bound<int>
PUBLIC	??1?$_Alloc_construct_ptr@V?$allocator@U?$_Tree_node@U?$pair@$$CBHH@std@@PAX@std@@@std@@@std@@QAE@XZ ; std::_Alloc_construct_ptr<std::allocator<std::_Tree_node<std::pair<int const ,int>,void *> > >::~_Alloc_construct_ptr<std::allocator<std::_Tree_node<std::pair<int const ,int>,void *> > >
PUBLIC	??1?$_Alloc_construct_ptr@V?$allocator@U?$_Tree_node@U?$pair@$$CBHU__ATTRIBUTE_ENCHANT@@@std@@PAX@std@@@std@@@std@@QAE@XZ ; std::_Alloc_construct_ptr<std::allocator<std::_Tree_node<std::pair<int const ,__ATTRIBUTE_ENCHANT>,void *> > >::~_Alloc_construct_ptr<std::allocator<std::_Tree_node<std::pair<int const ,__ATTRIBUTE_ENCHANT>,void *> > >
PUBLIC	??1?$_Alloc_construct_ptr@V?$allocator@U?$_Tree_node@U?$pair@$$CBHU__CHAOS_GEM@@@std@@PAX@std@@@std@@@std@@QAE@XZ ; std::_Alloc_construct_ptr<std::allocator<std::_Tree_node<std::pair<int const ,__CHAOS_GEM>,void *> > >::~_Alloc_construct_ptr<std::allocator<std::_Tree_node<std::pair<int const ,__CHAOS_GEM>,void *> > >
PUBLIC	?_OptionsStorage@?1??__local_stdio_printf_options@@9@4_KA ; `__local_stdio_printf_options'::`2'::_OptionsStorage
PUBLIC	??_C@_02DPKJAMEF@?$CFd@				; `string'
PUBLIC	??_C@_01PLPBNMEI@M@				; `string'
PUBLIC	??_C@_00CNPNBAHC@@				; `string'
PUBLIC	??_7exception@std@@6B@				; std::exception::`vftable'
PUBLIC	??_C@_0BC@EOODALEL@Unknown?5exception@		; `string'
PUBLIC	??_7bad_alloc@std@@6B@				; std::bad_alloc::`vftable'
PUBLIC	??_7bad_array_new_length@std@@6B@		; std::bad_array_new_length::`vftable'
PUBLIC	??_C@_0BF@KINCDENJ@bad?5array?5new?5length@	; `string'
PUBLIC	??_R0?AVexception@std@@@8			; std::exception `RTTI Type Descriptor'
PUBLIC	__CT??_R0?AVexception@std@@@8??0exception@std@@QAE@ABV01@@Z12
PUBLIC	__TI3?AVbad_array_new_length@std@@
PUBLIC	__CTA3?AVbad_array_new_length@std@@
PUBLIC	??_R0?AVbad_array_new_length@std@@@8		; std::bad_array_new_length `RTTI Type Descriptor'
PUBLIC	__CT??_R0?AVbad_array_new_length@std@@@8??0bad_array_new_length@std@@QAE@ABV01@@Z12
PUBLIC	??_R0?AVbad_alloc@std@@@8			; std::bad_alloc `RTTI Type Descriptor'
PUBLIC	__CT??_R0?AVbad_alloc@std@@@8??0bad_alloc@std@@QAE@ABV01@@Z12
PUBLIC	??_C@_0BB@GCADKGJO@map?1set?5too?5long@		; `string'
PUBLIC	??_C@_0BM@HMFGHCP@?$CFs?5min?3?$CFd?0?5max?3?$CFd?0?5index?3?$CFd@ ; `string'
PUBLIC	??_C@_0BI@BEIFNGEL@GetItemProp?5range_error@	; `string'
PUBLIC	??_R4exception@std@@6B@				; std::exception::`RTTI Complete Object Locator'
PUBLIC	??_R3exception@std@@8				; std::exception::`RTTI Class Hierarchy Descriptor'
PUBLIC	??_R2exception@std@@8				; std::exception::`RTTI Base Class Array'
PUBLIC	??_R1A@?0A@EA@exception@std@@8			; std::exception::`RTTI Base Class Descriptor at (0,-1,0,64)'
PUBLIC	??_R4bad_array_new_length@std@@6B@		; std::bad_array_new_length::`RTTI Complete Object Locator'
PUBLIC	??_R3bad_array_new_length@std@@8		; std::bad_array_new_length::`RTTI Class Hierarchy Descriptor'
PUBLIC	??_R2bad_array_new_length@std@@8		; std::bad_array_new_length::`RTTI Base Class Array'
PUBLIC	??_R1A@?0A@EA@bad_array_new_length@std@@8	; std::bad_array_new_length::`RTTI Base Class Descriptor at (0,-1,0,64)'
PUBLIC	??_R1A@?0A@EA@bad_alloc@std@@8			; std::bad_alloc::`RTTI Base Class Descriptor at (0,-1,0,64)'
PUBLIC	??_R3bad_alloc@std@@8				; std::bad_alloc::`RTTI Class Hierarchy Descriptor'
PUBLIC	??_R2bad_alloc@std@@8				; std::bad_alloc::`RTTI Base Class Array'
PUBLIC	??_R4bad_alloc@std@@6B@				; std::bad_alloc::`RTTI Complete Object Locator'
PUBLIC	??_C@_0BA@IAAIFMCJ@ItemUpgrade?4lua@		; `string'
PUBLIC	??_C@_0DL@MEIBMACM@CItemUpgrade?3?3LoadScript?$CI?$CJ?5?9?5It@ ; `string'
PUBLIC	??_C@_09CPEADECJ@tSuitProb@			; `string'
PUBLIC	??_C@_0M@IAAAPADN@tWeaponProb@			; `string'
PUBLIC	??_C@_08GMCIKKIC@tGeneral@			; `string'
PUBLIC	??_C@_0L@IOMDLKDC@tAttribute@			; `string'
PUBLIC	??_C@_05JBKGBCJC@nProb@				; `string'
PUBLIC	??_C@_0M@DAIDPKFC@nDamageRate@			; `string'
PUBLIC	??_C@_0N@BGJGNMMP@nDefenseRate@			; `string'
PUBLIC	??_C@_0P@FAOHCBHB@nAddAtkDmgRate@		; `string'
PUBLIC	??_C@_0BE@KIIJAFJA@nItemTransyLowLevel@		; `string'
PUBLIC	??_C@_0BF@EOMJLBOM@nItemTransyHighLevel@	; `string'
PUBLIC	??_C@_0L@CHGADHBA@Baruna?4lua@			; `string'
PUBLIC	??_C@_0DG@NIMIMML@CItemUpgrade?3?3LoadScript?$CI?$CJ?5?9?5Ba@ ; `string'
PUBLIC	??_C@_0P@KHAPPOBC@tBarunaUpgrade@		; `string'
PUBLIC	??_C@_0BB@KEOOECFG@tBarunaDowngrade@		; `string'
PUBLIC	??_C@_0BI@JDBHEFPP@tBarunaPetMultiplicator@	; `string'
PUBLIC	??_C@_0BI@CGEHICCE@tBarunaNeedFailForPetUp@	; `string'
PUBLIC	??_C@_0BA@CHPGJKHE@tBarunaChaosGem@		; `string'
PUBLIC	??_C@_0BA@LJBFGODG@nChaosGemAmount@		; `string'
PUBLIC	??_C@_0BA@BNGODABA@nChaosGemChance@		; `string'
PUBLIC	??_C@_0BC@MBHINFNF@nChaosPieceAmount@		; `string'
PUBLIC	??_C@_0BC@GFADILPD@nChaosPieceChance@		; `string'
PUBLIC	??_C@_08DGHAMMOF@PIERCING@			; `string'
PUBLIC	??_C@_01DCLJPIOD@?$CB@				; `string'
PUBLIC	??_C@_0BD@CHOHAILH@PIERCING_PROTECTED@		; `string'
PUBLIC	??_C@_01IPJKGB@?$CD@				; `string'
PUBLIC	??_C@_01FDFGLJHB@2@				; `string'
PUBLIC	??_C@_01EPMOAMKG@$@				; `string'
PUBLIC	??_C@_0BA@PKNCKPDH@PIERCING_REMOVE@		; `string'
PUBLIC	??_C@_01HIHLOKLC@1@				; `string'
PUBLIC	??_C@_01NANMIPIL@N@				; `string'
PUBLIC	??_C@_0BI@NMHNGLNA@UPGRADEITEM_SMELTSAFETY@	; `string'
PUBLIC	??_C@_01BIAFAFID@F@				; `string'
PUBLIC	??_C@_01IGIGCIAN@H@				; `string'
PUBLIC	??_C@_01OCOKONAJ@L@				; `string'
PUBLIC	??_C@_0BF@JEPBEGGA@PIERCING_SMELTSAFETY@	; `string'
PUBLIC	??_C@_0M@FAGCGIOJ@UPGRADEITEM@			; `string'
PUBLIC	??_C@_01LELAEKIP@J@				; `string'
PUBLIC	??_C@_01MJMHLOMK@O@				; `string'
PUBLIC	??_C@_0O@EJMCNMBD@UPGRADEBARUNA@		; `string'
PUBLIC	??_C@_0BI@KEPNAMED@CHANGE_ATTRIBUTE_TARGET@	; `string'
PUBLIC	??_C@_0BK@KBLOLHCF@CHANGE_ATTRIBUTE_MATERIAL@	; `string'
PUBLIC	??_C@_0L@NPPDFLAM@RemoveItem@			; `string'
PUBLIC	??_C@_0L@EMDEHLJF@CreateItem@			; `string'
PUBLIC	??_C@_09DPACILDJ@?$CC?$CFs?$CC?5?$CC?$CFs?$CC@	; `string'
PUBLIC	??_C@_0BC@HAKKJLBB@VIS_SLOT_MATERIAL@		; `string'
PUBLIC	??_C@_0O@KOMGOEFL@VIS_SLOT_SIZE@		; `string'
PUBLIC	??_C@_0N@JGNDKGOK@VIS_MATERIAL@			; `string'
PUBLIC	??_C@_0N@HCOLJNOE@VIS_PIERCING@			; `string'
PUBLIC	??_C@_0BD@EOJLJBKF@VIS_REMOVE_EXPIRED@		; `string'
PUBLIC	??_C@_0BC@LPGJAKI@VIS_REMOVE_BYUSER@		; `string'
PUBLIC	??_C@_04OEDFLLKD@?$CC?$CFs?$CC@			; `string'
PUBLIC	??_C@_0BB@PNCKCHMF@TRANSFORM_VISPET@		; `string'
PUBLIC	??_C@_0N@GELFDHNG@CONTAINER?1?10@		; `string'
PUBLIC	__real@3f666666
PUBLIC	__real@3f800000
PUBLIC	__real@42c80000
EXTRN	??2@YAPAXI@Z:PROC				; operator new
EXTRN	??3@YAXPAXI@Z:PROC				; operator delete
EXTRN	_atexit:PROC
EXTRN	__Init_thread_header:PROC
EXTRN	__Init_thread_abort:PROC
EXTRN	__Init_thread_footer:PROC
EXTRN	__invoke_watson:PROC
EXTRN	___stdio_common_vsprintf:PROC
EXTRN	___std_exception_copy:PROC
EXTRN	___std_exception_destroy:PROC
EXTRN	??_Eexception@std@@UAEPAXI@Z:PROC		; std::exception::`vector deleting destructor'
EXTRN	??_Ebad_alloc@std@@UAEPAXI@Z:PROC		; std::bad_alloc::`vector deleting destructor'
EXTRN	??_Ebad_array_new_length@std@@UAEPAXI@Z:PROC	; std::bad_array_new_length::`vector deleting destructor'
EXTRN	?_Xlength_error@std@@YAXPBD@Z:PROC		; std::_Xlength_error
EXTRN	?WriteError@@YAXPBDZZ:PROC			; WriteError
EXTRN	?xRandom@@YAKKK@Z:PROC				; xRandom
EXTRN	?Error@@YAPBDPBDZZ:PROC				; Error
EXTRN	?GetLanguage@@YAHXZ:PROC			; GetLanguage
EXTRN	?SmeltSafetyUltimate@CUltimateWeapon@@QAEEPAVCUser@@PAVCItemElem@@11@Z:PROC ; CUltimateWeapon::SmeltSafetyUltimate
EXTRN	_lua_tonumberx:PROC
EXTRN	_lua_pushnil:PROC
EXTRN	_lua_getglobal:PROC
EXTRN	_lua_next:PROC
EXTRN	??0CLuaBase@@QAE@XZ:PROC			; CLuaBase::CLuaBase
EXTRN	??1CLuaBase@@UAE@XZ:PROC			; CLuaBase::~CLuaBase
EXTRN	?RunScript@CLuaBase@@QAEHPBD@Z:PROC		; CLuaBase::RunScript
EXTRN	?Pop@CLuaBase@@QAEXH@Z:PROC			; CLuaBase::Pop
EXTRN	?GetGlobalNumber@CLuaBase@@QAENPAD@Z:PROC	; CLuaBase::GetGlobalNumber
EXTRN	?GetFieldToNumber@CLuaBase@@QAENHPAD@Z:PROC	; CLuaBase::GetFieldToNumber
EXTRN	?GetMover@CProject@@QAEPAVCMover@@K@Z:PROC	; CProject::GetMover
EXTRN	?GetInstance@CAccessoryProperty@@SAPAV1@XZ:PROC	; CAccessoryProperty::GetInstance
EXTRN	?IsAccessory@CAccessoryProperty@@QAEHK@Z:PROC	; CAccessoryProperty::IsAccessory
EXTRN	?GetPiercingSize@CPiercing@@QAEHXZ:PROC		; CPiercing::GetPiercingSize
EXTRN	?GetPiercingItem@CPiercing@@QAEKH@Z:PROC	; CPiercing::GetPiercingItem
EXTRN	?GetVisKeepTime@CPiercing@@QAEJH@Z:PROC		; CPiercing::GetVisKeepTime
EXTRN	?SetSerialNumber@CItemBase@@QAEXXZ:PROC		; CItemBase::SetSerialNumber
EXTRN	?IsPierceAble@CItemElem@@QAEHKH@Z:PROC		; CItemElem::IsPierceAble
EXTRN	??0CItemElem@@QAE@XZ:PROC			; CItemElem::CItemElem
EXTRN	??1CItemElem@@UAE@XZ:PROC			; CItemElem::~CItemElem
EXTRN	?IsDiceRefineryAble@CItemElem@@SAHPAUItemProp@@@Z:PROC ; CItemElem::IsDiceRefineryAble
EXTRN	?IsEleRefineryAble@CItemElem@@SAHPAUItemProp@@@Z:PROC ; CItemElem::IsEleRefineryAble
EXTRN	?GetVisPetSfxId@CItemElem@@QAEKXZ:PROC		; CItemElem::GetVisPetSfxId
EXTRN	?IsUsableItem@@YAHPAVCItemBase@@@Z:PROC		; IsUsableItem
EXTRN	?GetBuffByIk3@CBuffMgr@@QAEPAVIBuff@@K@Z:PROC	; CBuffMgr::GetBuffByIk3
EXTRN	?GetOther@CVTInfo@@QAEPAVCMover@@XZ:PROC	; CVTInfo::GetOther
EXTRN	?VendorIsVendor@CVTInfo@@QAEHXZ:PROC		; CVTInfo::VendorIsVendor
EXTRN	?HasBuff@CMover@@QAEHGG@Z:PROC			; CMover::HasBuff
EXTRN	?RemoveBuff@CMover@@QAEXGG@Z:PROC		; CMover::RemoveBuff
EXTRN	?HasBuffByIk3@CMover@@QAEHK@Z:PROC		; CMover::HasBuffByIk3
EXTRN	?SetPetVisDST@CMover@@QAEXPAVCItemElem@@@Z:PROC	; CMover::SetPetVisDST
EXTRN	?ResetPetVisDST@CMover@@QAEXPAVCItemElem@@@Z:PROC ; CMover::ResetPetVisDST
EXTRN	?IsSatisfyNeedVis@CMover@@QAEEPAVCItemElem@@PAUItemProp@@@Z:PROC ; CMover::IsSatisfyNeedVis
EXTRN	?GetAdjParam@CMover@@QAEHH@Z:PROC		; CMover::GetAdjParam
EXTRN	?GetName@CMover@@QAEPBDH@Z:PROC			; CMover::GetName
EXTRN	?AddGold@CMover@@QAEHHH@Z:PROC			; CMover::AddGold
EXTRN	?Pierce@CMover@@QAEHPAVCItemElem@@K@Z:PROC	; CMover::Pierce
EXTRN	?UpdateItem@CMover@@QAEXEDKK@Z:PROC		; CMover::UpdateItem
EXTRN	?CreateItem@CMover@@QAEHPAVCItemBase@@PAEPAFE@Z:PROC ; CMover::CreateItem
EXTRN	?RemoveItem@CMover@@QAEXEF@Z:PROC		; CMover::RemoveItem
EXTRN	?GetInstance@CCollectingProperty@@SAPAV1@XZ:PROC ; CCollectingProperty::GetInstance
EXTRN	?GetEnchantProbability@CCollectingProperty@@QAEHH@Z:PROC ; CCollectingProperty::GetEnchantProbability
EXTRN	?AddDefinedText@CUser@@QAAXHPBDZZ:PROC		; CUser::AddDefinedText
EXTRN	?AddDefinedText@CUser@@QAEXH@Z:PROC		; CUser::AddDefinedText
EXTRN	?AddPlaySound@CUser@@QAEXK@Z:PROC		; CUser::AddPlaySound
EXTRN	?AddCreateSfxObj@CUserMng@@QAEXPAVCCtrl@@KMMMH@Z:PROC ; CUserMng::AddCreateSfxObj
EXTRN	?AddChangeMoverSfxId@CUserMng@@QAEXPAVCMover@@@Z:PROC ; CUserMng::AddChangeMoverSfxId
EXTRN	?OnLogItem@CDPSrvr@@QAEXAAU_LogItemInfo@@PAVCItemElem@@H@Z:PROC ; CDPSrvr::OnLogItem
EXTRN	?PutItemLog@CDPSrvr@@QAEXPAVCUser@@PBD1PAVCItemElem@@H@Z:PROC ; CDPSrvr::PutItemLog
EXTRN	?SendLogSMItemUse@CDPDatabaseClient@@QAEXPBDPAVCUser@@PAVCItemElem@@PAUItemProp@@0@Z:PROC ; CDPDatabaseClient::SendLogSMItemUse
EXTRN	@__security_check_cookie@4:PROC
EXTRN	__CxxThrowException@8:PROC
EXTRN	___CxxFrameHandler3:PROC
EXTRN	__ftol2_sse:PROC
EXTRN	__Init_thread_epoch:DWORD
EXTRN	??_7type_info@@6B@:QWORD			; type_info::`vftable'
EXTRN	?g_tCurrent@@3JA:DWORD				; g_tCurrent
EXTRN	?g_next@@3KA:DWORD				; g_next
EXTRN	?prj@@3VCProject@@A:BYTE			; prj
EXTRN	?g_UserMng@@3VCUserMng@@A:BYTE			; g_UserMng
EXTRN	?g_DPSrvr@@3VCDPSrvr@@A:BYTE			; g_DPSrvr
EXTRN	?g_dpDBClient@@3VCDPDatabaseClient@@A:BYTE	; g_dpDBClient
EXTRN	___security_cookie:DWORD
EXTRN	__fltused:DWORD
EXTRN	__tls_array:DWORD
EXTRN	__tls_index:DWORD
;	COMDAT ?_OptionsStorage@?1??__local_stdio_printf_options@@9@4_KA
_BSS	SEGMENT
?_OptionsStorage@?1??__local_stdio_printf_options@@9@4_KA DQ 01H DUP (?) ; `__local_stdio_printf_options'::`2'::_OptionsStorage
_BSS	ENDS
;	COMDAT ?sItemUpgrade@?1??GetInstance@CItemUpgrade@@SAPAV2@XZ@4V2@A
_BSS	SEGMENT
?sItemUpgrade@?1??GetInstance@CItemUpgrade@@SAPAV2@XZ@4V2@A DB 050H DUP (?) ; `CItemUpgrade::GetInstance'::`2'::sItemUpgrade
_BSS	ENDS
;	COMDAT ?$TSS0@?1??GetInstance@CItemUpgrade@@SAPAV2@XZ@4HA
_BSS	SEGMENT
?$TSS0@?1??GetInstance@CItemUpgrade@@SAPAV2@XZ@4HA DD 01H DUP (?) ; `CItemUpgrade::GetInstance'::`2'::$TSS0
_BSS	ENDS
;	COMDAT __real@42c80000
CONST	SEGMENT
__real@42c80000 DD 042c80000r			; 100
CONST	ENDS
;	COMDAT __real@3f800000
CONST	SEGMENT
__real@3f800000 DD 03f800000r			; 1
CONST	ENDS
;	COMDAT __real@3f666666
CONST	SEGMENT
__real@3f666666 DD 03f666666r			; 0.9
CONST	ENDS
;	COMDAT ??_C@_0N@GELFDHNG@CONTAINER?1?10@
CONST	SEGMENT
??_C@_0N@GELFDHNG@CONTAINER?1?10@ DB 'CONTAINER//0', 00H ; `string'
CONST	ENDS
;	COMDAT ??_C@_0BB@PNCKCHMF@TRANSFORM_VISPET@
CONST	SEGMENT
??_C@_0BB@PNCKCHMF@TRANSFORM_VISPET@ DB 'TRANSFORM_VISPET', 00H ; `string'
CONST	ENDS
;	COMDAT ??_C@_04OEDFLLKD@?$CC?$CFs?$CC@
CONST	SEGMENT
??_C@_04OEDFLLKD@?$CC?$CFs?$CC@ DB '"%s"', 00H		; `string'
CONST	ENDS
;	COMDAT ??_C@_0BC@LPGJAKI@VIS_REMOVE_BYUSER@
CONST	SEGMENT
??_C@_0BC@LPGJAKI@VIS_REMOVE_BYUSER@ DB 'VIS_REMOVE_BYUSER', 00H ; `string'
CONST	ENDS
;	COMDAT ??_C@_0BD@EOJLJBKF@VIS_REMOVE_EXPIRED@
CONST	SEGMENT
??_C@_0BD@EOJLJBKF@VIS_REMOVE_EXPIRED@ DB 'VIS_REMOVE_EXPIRED', 00H ; `string'
CONST	ENDS
;	COMDAT ??_C@_0N@HCOLJNOE@VIS_PIERCING@
CONST	SEGMENT
??_C@_0N@HCOLJNOE@VIS_PIERCING@ DB 'VIS_PIERCING', 00H	; `string'
CONST	ENDS
;	COMDAT ??_C@_0N@JGNDKGOK@VIS_MATERIAL@
CONST	SEGMENT
??_C@_0N@JGNDKGOK@VIS_MATERIAL@ DB 'VIS_MATERIAL', 00H	; `string'
CONST	ENDS
;	COMDAT ??_C@_0O@KOMGOEFL@VIS_SLOT_SIZE@
CONST	SEGMENT
??_C@_0O@KOMGOEFL@VIS_SLOT_SIZE@ DB 'VIS_SLOT_SIZE', 00H ; `string'
CONST	ENDS
;	COMDAT ??_C@_0BC@HAKKJLBB@VIS_SLOT_MATERIAL@
CONST	SEGMENT
??_C@_0BC@HAKKJLBB@VIS_SLOT_MATERIAL@ DB 'VIS_SLOT_MATERIAL', 00H ; `string'
CONST	ENDS
;	COMDAT ??_C@_09DPACILDJ@?$CC?$CFs?$CC?5?$CC?$CFs?$CC@
CONST	SEGMENT
??_C@_09DPACILDJ@?$CC?$CFs?$CC?5?$CC?$CFs?$CC@ DB '"%s" "%s"', 00H ; `string'
CONST	ENDS
;	COMDAT ??_C@_0L@EMDEHLJF@CreateItem@
CONST	SEGMENT
??_C@_0L@EMDEHLJF@CreateItem@ DB 'CreateItem', 00H	; `string'
CONST	ENDS
;	COMDAT ??_C@_0L@NPPDFLAM@RemoveItem@
CONST	SEGMENT
??_C@_0L@NPPDFLAM@RemoveItem@ DB 'RemoveItem', 00H	; `string'
CONST	ENDS
;	COMDAT ??_C@_0BK@KBLOLHCF@CHANGE_ATTRIBUTE_MATERIAL@
CONST	SEGMENT
??_C@_0BK@KBLOLHCF@CHANGE_ATTRIBUTE_MATERIAL@ DB 'CHANGE_ATTRIBUTE_MATERI'
	DB	'AL', 00H					; `string'
CONST	ENDS
;	COMDAT ??_C@_0BI@KEPNAMED@CHANGE_ATTRIBUTE_TARGET@
CONST	SEGMENT
??_C@_0BI@KEPNAMED@CHANGE_ATTRIBUTE_TARGET@ DB 'CHANGE_ATTRIBUTE_TARGET', 00H ; `string'
CONST	ENDS
;	COMDAT ??_C@_0O@EJMCNMBD@UPGRADEBARUNA@
CONST	SEGMENT
??_C@_0O@EJMCNMBD@UPGRADEBARUNA@ DB 'UPGRADEBARUNA', 00H ; `string'
CONST	ENDS
;	COMDAT ??_C@_01MJMHLOMK@O@
CONST	SEGMENT
??_C@_01MJMHLOMK@O@ DB 'O', 00H				; `string'
CONST	ENDS
;	COMDAT ??_C@_01LELAEKIP@J@
CONST	SEGMENT
??_C@_01LELAEKIP@J@ DB 'J', 00H				; `string'
CONST	ENDS
;	COMDAT ??_C@_0M@FAGCGIOJ@UPGRADEITEM@
CONST	SEGMENT
??_C@_0M@FAGCGIOJ@UPGRADEITEM@ DB 'UPGRADEITEM', 00H	; `string'
CONST	ENDS
;	COMDAT ??_C@_0BF@JEPBEGGA@PIERCING_SMELTSAFETY@
CONST	SEGMENT
??_C@_0BF@JEPBEGGA@PIERCING_SMELTSAFETY@ DB 'PIERCING_SMELTSAFETY', 00H ; `string'
CONST	ENDS
;	COMDAT ??_C@_01OCOKONAJ@L@
CONST	SEGMENT
??_C@_01OCOKONAJ@L@ DB 'L', 00H				; `string'
CONST	ENDS
;	COMDAT ??_C@_01IGIGCIAN@H@
CONST	SEGMENT
??_C@_01IGIGCIAN@H@ DB 'H', 00H				; `string'
CONST	ENDS
;	COMDAT ??_C@_01BIAFAFID@F@
CONST	SEGMENT
??_C@_01BIAFAFID@F@ DB 'F', 00H				; `string'
CONST	ENDS
;	COMDAT ??_C@_0BI@NMHNGLNA@UPGRADEITEM_SMELTSAFETY@
CONST	SEGMENT
??_C@_0BI@NMHNGLNA@UPGRADEITEM_SMELTSAFETY@ DB 'UPGRADEITEM_SMELTSAFETY', 00H ; `string'
CONST	ENDS
;	COMDAT ??_C@_01NANMIPIL@N@
CONST	SEGMENT
??_C@_01NANMIPIL@N@ DB 'N', 00H				; `string'
CONST	ENDS
;	COMDAT ??_C@_01HIHLOKLC@1@
CONST	SEGMENT
??_C@_01HIHLOKLC@1@ DB '1', 00H				; `string'
CONST	ENDS
;	COMDAT ??_C@_0BA@PKNCKPDH@PIERCING_REMOVE@
CONST	SEGMENT
??_C@_0BA@PKNCKPDH@PIERCING_REMOVE@ DB 'PIERCING_REMOVE', 00H ; `string'
CONST	ENDS
;	COMDAT ??_C@_01EPMOAMKG@$@
CONST	SEGMENT
??_C@_01EPMOAMKG@$@ DB '$', 00H				; `string'
CONST	ENDS
;	COMDAT ??_C@_01FDFGLJHB@2@
CONST	SEGMENT
??_C@_01FDFGLJHB@2@ DB '2', 00H				; `string'
CONST	ENDS
;	COMDAT ??_C@_01IPJKGB@?$CD@
CONST	SEGMENT
??_C@_01IPJKGB@?$CD@ DB '#', 00H			; `string'
CONST	ENDS
;	COMDAT ??_C@_0BD@CHOHAILH@PIERCING_PROTECTED@
CONST	SEGMENT
??_C@_0BD@CHOHAILH@PIERCING_PROTECTED@ DB 'PIERCING_PROTECTED', 00H ; `string'
CONST	ENDS
;	COMDAT ??_C@_01DCLJPIOD@?$CB@
CONST	SEGMENT
??_C@_01DCLJPIOD@?$CB@ DB '!', 00H			; `string'
CONST	ENDS
;	COMDAT ??_C@_08DGHAMMOF@PIERCING@
CONST	SEGMENT
??_C@_08DGHAMMOF@PIERCING@ DB 'PIERCING', 00H		; `string'
CONST	ENDS
;	COMDAT ??_C@_0BC@GFADILPD@nChaosPieceChance@
CONST	SEGMENT
??_C@_0BC@GFADILPD@nChaosPieceChance@ DB 'nChaosPieceChance', 00H ; `string'
CONST	ENDS
;	COMDAT ??_C@_0BC@MBHINFNF@nChaosPieceAmount@
CONST	SEGMENT
??_C@_0BC@MBHINFNF@nChaosPieceAmount@ DB 'nChaosPieceAmount', 00H ; `string'
CONST	ENDS
;	COMDAT ??_C@_0BA@BNGODABA@nChaosGemChance@
CONST	SEGMENT
??_C@_0BA@BNGODABA@nChaosGemChance@ DB 'nChaosGemChance', 00H ; `string'
CONST	ENDS
;	COMDAT ??_C@_0BA@LJBFGODG@nChaosGemAmount@
CONST	SEGMENT
??_C@_0BA@LJBFGODG@nChaosGemAmount@ DB 'nChaosGemAmount', 00H ; `string'
CONST	ENDS
;	COMDAT ??_C@_0BA@CHPGJKHE@tBarunaChaosGem@
CONST	SEGMENT
??_C@_0BA@CHPGJKHE@tBarunaChaosGem@ DB 'tBarunaChaosGem', 00H ; `string'
CONST	ENDS
;	COMDAT ??_C@_0BI@CGEHICCE@tBarunaNeedFailForPetUp@
CONST	SEGMENT
??_C@_0BI@CGEHICCE@tBarunaNeedFailForPetUp@ DB 'tBarunaNeedFailForPetUp', 00H ; `string'
CONST	ENDS
;	COMDAT ??_C@_0BI@JDBHEFPP@tBarunaPetMultiplicator@
CONST	SEGMENT
??_C@_0BI@JDBHEFPP@tBarunaPetMultiplicator@ DB 'tBarunaPetMultiplicator', 00H ; `string'
CONST	ENDS
;	COMDAT ??_C@_0BB@KEOOECFG@tBarunaDowngrade@
CONST	SEGMENT
??_C@_0BB@KEOOECFG@tBarunaDowngrade@ DB 'tBarunaDowngrade', 00H ; `string'
CONST	ENDS
;	COMDAT ??_C@_0P@KHAPPOBC@tBarunaUpgrade@
CONST	SEGMENT
??_C@_0P@KHAPPOBC@tBarunaUpgrade@ DB 'tBarunaUpgrade', 00H ; `string'
CONST	ENDS
;	COMDAT ??_C@_0DG@NIMIMML@CItemUpgrade?3?3LoadScript?$CI?$CJ?5?9?5Ba@
CONST	SEGMENT
??_C@_0DG@NIMIMML@CItemUpgrade?3?3LoadScript?$CI?$CJ?5?9?5Ba@ DB 'CItemUp'
	DB	'grade::LoadScript() - Baruna.lua Run Failed!!!', 00H ; `string'
CONST	ENDS
;	COMDAT ??_C@_0L@CHGADHBA@Baruna?4lua@
CONST	SEGMENT
??_C@_0L@CHGADHBA@Baruna?4lua@ DB 'Baruna.lua', 00H	; `string'
CONST	ENDS
;	COMDAT ??_C@_0BF@EOMJLBOM@nItemTransyHighLevel@
CONST	SEGMENT
??_C@_0BF@EOMJLBOM@nItemTransyHighLevel@ DB 'nItemTransyHighLevel', 00H ; `string'
CONST	ENDS
;	COMDAT ??_C@_0BE@KIIJAFJA@nItemTransyLowLevel@
CONST	SEGMENT
??_C@_0BE@KIIJAFJA@nItemTransyLowLevel@ DB 'nItemTransyLowLevel', 00H ; `string'
CONST	ENDS
;	COMDAT ??_C@_0P@FAOHCBHB@nAddAtkDmgRate@
CONST	SEGMENT
??_C@_0P@FAOHCBHB@nAddAtkDmgRate@ DB 'nAddAtkDmgRate', 00H ; `string'
CONST	ENDS
;	COMDAT ??_C@_0N@BGJGNMMP@nDefenseRate@
CONST	SEGMENT
??_C@_0N@BGJGNMMP@nDefenseRate@ DB 'nDefenseRate', 00H	; `string'
CONST	ENDS
;	COMDAT ??_C@_0M@DAIDPKFC@nDamageRate@
CONST	SEGMENT
??_C@_0M@DAIDPKFC@nDamageRate@ DB 'nDamageRate', 00H	; `string'
CONST	ENDS
;	COMDAT ??_C@_05JBKGBCJC@nProb@
CONST	SEGMENT
??_C@_05JBKGBCJC@nProb@ DB 'nProb', 00H			; `string'
CONST	ENDS
;	COMDAT ??_C@_0L@IOMDLKDC@tAttribute@
CONST	SEGMENT
??_C@_0L@IOMDLKDC@tAttribute@ DB 'tAttribute', 00H	; `string'
CONST	ENDS
;	COMDAT ??_C@_08GMCIKKIC@tGeneral@
CONST	SEGMENT
??_C@_08GMCIKKIC@tGeneral@ DB 'tGeneral', 00H		; `string'
CONST	ENDS
;	COMDAT ??_C@_0M@IAAAPADN@tWeaponProb@
CONST	SEGMENT
??_C@_0M@IAAAPADN@tWeaponProb@ DB 'tWeaponProb', 00H	; `string'
CONST	ENDS
;	COMDAT ??_C@_09CPEADECJ@tSuitProb@
CONST	SEGMENT
??_C@_09CPEADECJ@tSuitProb@ DB 'tSuitProb', 00H		; `string'
CONST	ENDS
;	COMDAT ??_C@_0DL@MEIBMACM@CItemUpgrade?3?3LoadScript?$CI?$CJ?5?9?5It@
CONST	SEGMENT
??_C@_0DL@MEIBMACM@CItemUpgrade?3?3LoadScript?$CI?$CJ?5?9?5It@ DB 'CItemU'
	DB	'pgrade::LoadScript() - ItemUpgrade.lua Run Failed!!!', 00H ; `string'
CONST	ENDS
;	COMDAT ??_C@_0BA@IAAIFMCJ@ItemUpgrade?4lua@
CONST	SEGMENT
??_C@_0BA@IAAIFMCJ@ItemUpgrade?4lua@ DB 'ItemUpgrade.lua', 00H ; `string'
CONST	ENDS
;	COMDAT ??_R4bad_alloc@std@@6B@
rdata$r	SEGMENT
??_R4bad_alloc@std@@6B@ DD 00H				; std::bad_alloc::`RTTI Complete Object Locator'
	DD	00H
	DD	00H
	DD	FLAT:??_R0?AVbad_alloc@std@@@8
	DD	FLAT:??_R3bad_alloc@std@@8
rdata$r	ENDS
;	COMDAT ??_R2bad_alloc@std@@8
rdata$r	SEGMENT
??_R2bad_alloc@std@@8 DD FLAT:??_R1A@?0A@EA@bad_alloc@std@@8 ; std::bad_alloc::`RTTI Base Class Array'
	DD	FLAT:??_R1A@?0A@EA@exception@std@@8
rdata$r	ENDS
;	COMDAT ??_R3bad_alloc@std@@8
rdata$r	SEGMENT
??_R3bad_alloc@std@@8 DD 00H				; std::bad_alloc::`RTTI Class Hierarchy Descriptor'
	DD	00H
	DD	02H
	DD	FLAT:??_R2bad_alloc@std@@8
rdata$r	ENDS
;	COMDAT ??_R1A@?0A@EA@bad_alloc@std@@8
rdata$r	SEGMENT
??_R1A@?0A@EA@bad_alloc@std@@8 DD FLAT:??_R0?AVbad_alloc@std@@@8 ; std::bad_alloc::`RTTI Base Class Descriptor at (0,-1,0,64)'
	DD	01H
	DD	00H
	DD	0ffffffffH
	DD	00H
	DD	040H
	DD	FLAT:??_R3bad_alloc@std@@8
rdata$r	ENDS
;	COMDAT ??_R1A@?0A@EA@bad_array_new_length@std@@8
rdata$r	SEGMENT
??_R1A@?0A@EA@bad_array_new_length@std@@8 DD FLAT:??_R0?AVbad_array_new_length@std@@@8 ; std::bad_array_new_length::`RTTI Base Class Descriptor at (0,-1,0,64)'
	DD	02H
	DD	00H
	DD	0ffffffffH
	DD	00H
	DD	040H
	DD	FLAT:??_R3bad_array_new_length@std@@8
rdata$r	ENDS
;	COMDAT ??_R2bad_array_new_length@std@@8
rdata$r	SEGMENT
??_R2bad_array_new_length@std@@8 DD FLAT:??_R1A@?0A@EA@bad_array_new_length@std@@8 ; std::bad_array_new_length::`RTTI Base Class Array'
	DD	FLAT:??_R1A@?0A@EA@bad_alloc@std@@8
	DD	FLAT:??_R1A@?0A@EA@exception@std@@8
rdata$r	ENDS
;	COMDAT ??_R3bad_array_new_length@std@@8
rdata$r	SEGMENT
??_R3bad_array_new_length@std@@8 DD 00H			; std::bad_array_new_length::`RTTI Class Hierarchy Descriptor'
	DD	00H
	DD	03H
	DD	FLAT:??_R2bad_array_new_length@std@@8
rdata$r	ENDS
;	COMDAT ??_R4bad_array_new_length@std@@6B@
rdata$r	SEGMENT
??_R4bad_array_new_length@std@@6B@ DD 00H		; std::bad_array_new_length::`RTTI Complete Object Locator'
	DD	00H
	DD	00H
	DD	FLAT:??_R0?AVbad_array_new_length@std@@@8
	DD	FLAT:??_R3bad_array_new_length@std@@8
rdata$r	ENDS
;	COMDAT ??_R1A@?0A@EA@exception@std@@8
rdata$r	SEGMENT
??_R1A@?0A@EA@exception@std@@8 DD FLAT:??_R0?AVexception@std@@@8 ; std::exception::`RTTI Base Class Descriptor at (0,-1,0,64)'
	DD	00H
	DD	00H
	DD	0ffffffffH
	DD	00H
	DD	040H
	DD	FLAT:??_R3exception@std@@8
rdata$r	ENDS
;	COMDAT ??_R2exception@std@@8
rdata$r	SEGMENT
??_R2exception@std@@8 DD FLAT:??_R1A@?0A@EA@exception@std@@8 ; std::exception::`RTTI Base Class Array'
rdata$r	ENDS
;	COMDAT ??_R3exception@std@@8
rdata$r	SEGMENT
??_R3exception@std@@8 DD 00H				; std::exception::`RTTI Class Hierarchy Descriptor'
	DD	00H
	DD	01H
	DD	FLAT:??_R2exception@std@@8
rdata$r	ENDS
;	COMDAT ??_R4exception@std@@6B@
rdata$r	SEGMENT
??_R4exception@std@@6B@ DD 00H				; std::exception::`RTTI Complete Object Locator'
	DD	00H
	DD	00H
	DD	FLAT:??_R0?AVexception@std@@@8
	DD	FLAT:??_R3exception@std@@8
rdata$r	ENDS
;	COMDAT ??_C@_0BI@BEIFNGEL@GetItemProp?5range_error@
CONST	SEGMENT
??_C@_0BI@BEIFNGEL@GetItemProp?5range_error@ DB 'GetItemProp range_error', 00H ; `string'
CONST	ENDS
;	COMDAT ??_C@_0BM@HMFGHCP@?$CFs?5min?3?$CFd?0?5max?3?$CFd?0?5index?3?$CFd@
CONST	SEGMENT
??_C@_0BM@HMFGHCP@?$CFs?5min?3?$CFd?0?5max?3?$CFd?0?5index?3?$CFd@ DB '%s'
	DB	' min:%d, max:%d, index:%d', 00H		; `string'
CONST	ENDS
;	COMDAT ??_C@_0BB@GCADKGJO@map?1set?5too?5long@
CONST	SEGMENT
??_C@_0BB@GCADKGJO@map?1set?5too?5long@ DB 'map/set too long', 00H ; `string'
CONST	ENDS
;	COMDAT __CT??_R0?AVbad_alloc@std@@@8??0bad_alloc@std@@QAE@ABV01@@Z12
xdata$x	SEGMENT
__CT??_R0?AVbad_alloc@std@@@8??0bad_alloc@std@@QAE@ABV01@@Z12 DD 010H
	DD	FLAT:??_R0?AVbad_alloc@std@@@8
	DD	00H
	DD	0ffffffffH
	ORG $+4
	DD	0cH
	DD	FLAT:??0bad_alloc@std@@QAE@ABV01@@Z
xdata$x	ENDS
;	COMDAT ??_R0?AVbad_alloc@std@@@8
data$r	SEGMENT
??_R0?AVbad_alloc@std@@@8 DD FLAT:??_7type_info@@6B@	; std::bad_alloc `RTTI Type Descriptor'
	DD	00H
	DB	'.?AVbad_alloc@std@@', 00H
data$r	ENDS
;	COMDAT __CT??_R0?AVbad_array_new_length@std@@@8??0bad_array_new_length@std@@QAE@ABV01@@Z12
xdata$x	SEGMENT
__CT??_R0?AVbad_array_new_length@std@@@8??0bad_array_new_length@std@@QAE@ABV01@@Z12 DD 00H
	DD	FLAT:??_R0?AVbad_array_new_length@std@@@8
	DD	00H
	DD	0ffffffffH
	ORG $+4
	DD	0cH
	DD	FLAT:??0bad_array_new_length@std@@QAE@ABV01@@Z
xdata$x	ENDS
;	COMDAT ??_R0?AVbad_array_new_length@std@@@8
data$r	SEGMENT
??_R0?AVbad_array_new_length@std@@@8 DD FLAT:??_7type_info@@6B@ ; std::bad_array_new_length `RTTI Type Descriptor'
	DD	00H
	DB	'.?AVbad_array_new_length@std@@', 00H
data$r	ENDS
;	COMDAT __CTA3?AVbad_array_new_length@std@@
xdata$x	SEGMENT
__CTA3?AVbad_array_new_length@std@@ DD 03H
	DD	FLAT:__CT??_R0?AVbad_array_new_length@std@@@8??0bad_array_new_length@std@@QAE@ABV01@@Z12
	DD	FLAT:__CT??_R0?AVbad_alloc@std@@@8??0bad_alloc@std@@QAE@ABV01@@Z12
	DD	FLAT:__CT??_R0?AVexception@std@@@8??0exception@std@@QAE@ABV01@@Z12
xdata$x	ENDS
;	COMDAT __TI3?AVbad_array_new_length@std@@
xdata$x	SEGMENT
__TI3?AVbad_array_new_length@std@@ DD 00H
	DD	FLAT:??1bad_array_new_length@std@@UAE@XZ
	DD	00H
	DD	FLAT:__CTA3?AVbad_array_new_length@std@@
xdata$x	ENDS
;	COMDAT __CT??_R0?AVexception@std@@@8??0exception@std@@QAE@ABV01@@Z12
xdata$x	SEGMENT
__CT??_R0?AVexception@std@@@8??0exception@std@@QAE@ABV01@@Z12 DD 00H
	DD	FLAT:??_R0?AVexception@std@@@8
	DD	00H
	DD	0ffffffffH
	ORG $+4
	DD	0cH
	DD	FLAT:??0exception@std@@QAE@ABV01@@Z
xdata$x	ENDS
;	COMDAT ??_R0?AVexception@std@@@8
data$r	SEGMENT
??_R0?AVexception@std@@@8 DD FLAT:??_7type_info@@6B@	; std::exception `RTTI Type Descriptor'
	DD	00H
	DB	'.?AVexception@std@@', 00H
data$r	ENDS
;	COMDAT ??_C@_0BF@KINCDENJ@bad?5array?5new?5length@
CONST	SEGMENT
??_C@_0BF@KINCDENJ@bad?5array?5new?5length@ DB 'bad array new length', 00H ; `string'
CONST	ENDS
;	COMDAT ??_7bad_array_new_length@std@@6B@
CONST	SEGMENT
??_7bad_array_new_length@std@@6B@ DD FLAT:??_R4bad_array_new_length@std@@6B@ ; std::bad_array_new_length::`vftable'
	DD	FLAT:??_Ebad_array_new_length@std@@UAEPAXI@Z
	DD	FLAT:?what@exception@std@@UBEPBDXZ
CONST	ENDS
;	COMDAT ??_7bad_alloc@std@@6B@
CONST	SEGMENT
??_7bad_alloc@std@@6B@ DD FLAT:??_R4bad_alloc@std@@6B@	; std::bad_alloc::`vftable'
	DD	FLAT:??_Ebad_alloc@std@@UAEPAXI@Z
	DD	FLAT:?what@exception@std@@UBEPBDXZ
CONST	ENDS
;	COMDAT ??_C@_0BC@EOODALEL@Unknown?5exception@
CONST	SEGMENT
??_C@_0BC@EOODALEL@Unknown?5exception@ DB 'Unknown exception', 00H ; `string'
CONST	ENDS
;	COMDAT ??_7exception@std@@6B@
CONST	SEGMENT
??_7exception@std@@6B@ DD FLAT:??_R4exception@std@@6B@	; std::exception::`vftable'
	DD	FLAT:??_Eexception@std@@UAEPAXI@Z
	DD	FLAT:?what@exception@std@@UBEPBDXZ
CONST	ENDS
;	COMDAT ??_C@_00CNPNBAHC@@
CONST	SEGMENT
??_C@_00CNPNBAHC@@ DB 00H				; `string'
CONST	ENDS
;	COMDAT ??_C@_01PLPBNMEI@M@
CONST	SEGMENT
??_C@_01PLPBNMEI@M@ DB 'M', 00H				; `string'
CONST	ENDS
;	COMDAT ??_C@_02DPKJAMEF@?$CFd@
CONST	SEGMENT
??_C@_02DPKJAMEF@?$CFd@ DB '%d', 00H			; `string'
CONST	ENDS
;	COMDAT xdata$x
xdata$x	SEGMENT
__unwindtable$??$?0U?$pair@HU__CHAOS_GEM@@@std@@@?$_Tree_temp_node@V?$allocator@U?$_Tree_node@U?$pair@$$CBHU__CHAOS_GEM@@@std@@PAX@std@@@std@@@std@@QAE@AAV?$allocator@U?$_Tree_node@U?$pair@$$CBHU__CHAOS_GEM@@@std@@PAX@std@@@1@PAU?$_Tree_node@U?$pair@$$CBHU__CHAOS_GEM@@@std@@PAX@1@$$QAU?$pair@HU__CHAOS_GEM@@@1@@Z DD 0ffffffffH
	DD	FLAT:__unwindfunclet$??$?0U?$pair@HU__CHAOS_GEM@@@std@@@?$_Tree_temp_node@V?$allocator@U?$_Tree_node@U?$pair@$$CBHU__CHAOS_GEM@@@std@@PAX@std@@@std@@@std@@QAE@AAV?$allocator@U?$_Tree_node@U?$pair@$$CBHU__CHAOS_GEM@@@std@@PAX@std@@@1@PAU?$_Tree_node@U?$pair@$$CBHU__CHAOS_GEM@@@std@@PAX@1@$$QAU?$pair@HU__CHAOS_GEM@@@1@@Z$1
__ehfuncinfo$??$?0U?$pair@HU__CHAOS_GEM@@@std@@@?$_Tree_temp_node@V?$allocator@U?$_Tree_node@U?$pair@$$CBHU__CHAOS_GEM@@@std@@PAX@std@@@std@@@std@@QAE@AAV?$allocator@U?$_Tree_node@U?$pair@$$CBHU__CHAOS_GEM@@@std@@PAX@std@@@1@PAU?$_Tree_node@U?$pair@$$CBHU__CHAOS_GEM@@@std@@PAX@1@$$QAU?$pair@HU__CHAOS_GEM@@@1@@Z DD 019930522H
	DD	01H
	DD	FLAT:__unwindtable$??$?0U?$pair@HU__CHAOS_GEM@@@std@@@?$_Tree_temp_node@V?$allocator@U?$_Tree_node@U?$pair@$$CBHU__CHAOS_GEM@@@std@@PAX@std@@@std@@@std@@QAE@AAV?$allocator@U?$_Tree_node@U?$pair@$$CBHU__CHAOS_GEM@@@std@@PAX@std@@@1@PAU?$_Tree_node@U?$pair@$$CBHU__CHAOS_GEM@@@std@@PAX@1@$$QAU?$pair@HU__CHAOS_GEM@@@1@@Z
	DD	2 DUP(00H)
	DD	2 DUP(00H)
	DD	00H
	DD	01H
xdata$x	ENDS
;	COMDAT xdata$x
xdata$x	SEGMENT
__unwindtable$??0?$_Tree_temp_node_alloc@V?$allocator@U?$_Tree_node@U?$pair@$$CBHU__CHAOS_GEM@@@std@@PAX@std@@@std@@@std@@QAE@AAV?$allocator@U?$_Tree_node@U?$pair@$$CBHU__CHAOS_GEM@@@std@@PAX@std@@@1@@Z DD 0ffffffffH
	DD	FLAT:__unwindfunclet$??0?$_Tree_temp_node_alloc@V?$allocator@U?$_Tree_node@U?$pair@$$CBHU__CHAOS_GEM@@@std@@PAX@std@@@std@@@std@@QAE@AAV?$allocator@U?$_Tree_node@U?$pair@$$CBHU__CHAOS_GEM@@@std@@PAX@std@@@1@@Z$0
__ehfuncinfo$??0?$_Tree_temp_node_alloc@V?$allocator@U?$_Tree_node@U?$pair@$$CBHU__CHAOS_GEM@@@std@@PAX@std@@@std@@@std@@QAE@AAV?$allocator@U?$_Tree_node@U?$pair@$$CBHU__CHAOS_GEM@@@std@@PAX@std@@@1@@Z DD 019930522H
	DD	01H
	DD	FLAT:__unwindtable$??0?$_Tree_temp_node_alloc@V?$allocator@U?$_Tree_node@U?$pair@$$CBHU__CHAOS_GEM@@@std@@PAX@std@@@std@@@std@@QAE@AAV?$allocator@U?$_Tree_node@U?$pair@$$CBHU__CHAOS_GEM@@@std@@PAX@std@@@1@@Z
	DD	2 DUP(00H)
	DD	2 DUP(00H)
	DD	00H
	DD	01H
xdata$x	ENDS
;	COMDAT xdata$x
xdata$x	SEGMENT
__unwindtable$??$?0U?$pair@HU__ATTRIBUTE_ENCHANT@@@std@@@?$_Tree_temp_node@V?$allocator@U?$_Tree_node@U?$pair@$$CBHU__ATTRIBUTE_ENCHANT@@@std@@PAX@std@@@std@@@std@@QAE@AAV?$allocator@U?$_Tree_node@U?$pair@$$CBHU__ATTRIBUTE_ENCHANT@@@std@@PAX@std@@@1@PAU?$_Tree_node@U?$pair@$$CBHU__ATTRIBUTE_ENCHANT@@@std@@PAX@1@$$QAU?$pair@HU__ATTRIBUTE_ENCHANT@@@1@@Z DD 0ffffffffH
	DD	FLAT:__unwindfunclet$??$?0U?$pair@HU__ATTRIBUTE_ENCHANT@@@std@@@?$_Tree_temp_node@V?$allocator@U?$_Tree_node@U?$pair@$$CBHU__ATTRIBUTE_ENCHANT@@@std@@PAX@std@@@std@@@std@@QAE@AAV?$allocator@U?$_Tree_node@U?$pair@$$CBHU__ATTRIBUTE_ENCHANT@@@std@@PAX@std@@@1@PAU?$_Tree_node@U?$pair@$$CBHU__ATTRIBUTE_ENCHANT@@@std@@PAX@1@$$QAU?$pair@HU__ATTRIBUTE_ENCHANT@@@1@@Z$1
__ehfuncinfo$??$?0U?$pair@HU__ATTRIBUTE_ENCHANT@@@std@@@?$_Tree_temp_node@V?$allocator@U?$_Tree_node@U?$pair@$$CBHU__ATTRIBUTE_ENCHANT@@@std@@PAX@std@@@std@@@std@@QAE@AAV?$allocator@U?$_Tree_node@U?$pair@$$CBHU__ATTRIBUTE_ENCHANT@@@std@@PAX@std@@@1@PAU?$_Tree_node@U?$pair@$$CBHU__ATTRIBUTE_ENCHANT@@@std@@PAX@1@$$QAU?$pair@HU__ATTRIBUTE_ENCHANT@@@1@@Z DD 019930522H
	DD	01H
	DD	FLAT:__unwindtable$??$?0U?$pair@HU__ATTRIBUTE_ENCHANT@@@std@@@?$_Tree_temp_node@V?$allocator@U?$_Tree_node@U?$pair@$$CBHU__ATTRIBUTE_ENCHANT@@@std@@PAX@std@@@std@@@std@@QAE@AAV?$allocator@U?$_Tree_node@U?$pair@$$CBHU__ATTRIBUTE_ENCHANT@@@std@@PAX@std@@@1@PAU?$_Tree_node@U?$pair@$$CBHU__ATTRIBUTE_ENCHANT@@@std@@PAX@1@$$QAU?$pair@HU__ATTRIBUTE_ENCHANT@@@1@@Z
	DD	2 DUP(00H)
	DD	2 DUP(00H)
	DD	00H
	DD	01H
xdata$x	ENDS
;	COMDAT xdata$x
xdata$x	SEGMENT
__unwindtable$??0?$_Tree_temp_node_alloc@V?$allocator@U?$_Tree_node@U?$pair@$$CBHU__ATTRIBUTE_ENCHANT@@@std@@PAX@std@@@std@@@std@@QAE@AAV?$allocator@U?$_Tree_node@U?$pair@$$CBHU__ATTRIBUTE_ENCHANT@@@std@@PAX@std@@@1@@Z DD 0ffffffffH
	DD	FLAT:__unwindfunclet$??0?$_Tree_temp_node_alloc@V?$allocator@U?$_Tree_node@U?$pair@$$CBHU__ATTRIBUTE_ENCHANT@@@std@@PAX@std@@@std@@@std@@QAE@AAV?$allocator@U?$_Tree_node@U?$pair@$$CBHU__ATTRIBUTE_ENCHANT@@@std@@PAX@std@@@1@@Z$0
__ehfuncinfo$??0?$_Tree_temp_node_alloc@V?$allocator@U?$_Tree_node@U?$pair@$$CBHU__ATTRIBUTE_ENCHANT@@@std@@PAX@std@@@std@@@std@@QAE@AAV?$allocator@U?$_Tree_node@U?$pair@$$CBHU__ATTRIBUTE_ENCHANT@@@std@@PAX@std@@@1@@Z DD 019930522H
	DD	01H
	DD	FLAT:__unwindtable$??0?$_Tree_temp_node_alloc@V?$allocator@U?$_Tree_node@U?$pair@$$CBHU__ATTRIBUTE_ENCHANT@@@std@@PAX@std@@@std@@@std@@QAE@AAV?$allocator@U?$_Tree_node@U?$pair@$$CBHU__ATTRIBUTE_ENCHANT@@@std@@PAX@std@@@1@@Z
	DD	2 DUP(00H)
	DD	2 DUP(00H)
	DD	00H
	DD	01H
xdata$x	ENDS
;	COMDAT xdata$x
xdata$x	SEGMENT
__unwindtable$??$?0U?$pair@HH@std@@@?$_Tree_temp_node@V?$allocator@U?$_Tree_node@U?$pair@$$CBHH@std@@PAX@std@@@std@@@std@@QAE@AAV?$allocator@U?$_Tree_node@U?$pair@$$CBHH@std@@PAX@std@@@1@PAU?$_Tree_node@U?$pair@$$CBHH@std@@PAX@1@$$QAU?$pair@HH@1@@Z DD 0ffffffffH
	DD	FLAT:__unwindfunclet$??$?0U?$pair@HH@std@@@?$_Tree_temp_node@V?$allocator@U?$_Tree_node@U?$pair@$$CBHH@std@@PAX@std@@@std@@@std@@QAE@AAV?$allocator@U?$_Tree_node@U?$pair@$$CBHH@std@@PAX@std@@@1@PAU?$_Tree_node@U?$pair@$$CBHH@std@@PAX@1@$$QAU?$pair@HH@1@@Z$1
__ehfuncinfo$??$?0U?$pair@HH@std@@@?$_Tree_temp_node@V?$allocator@U?$_Tree_node@U?$pair@$$CBHH@std@@PAX@std@@@std@@@std@@QAE@AAV?$allocator@U?$_Tree_node@U?$pair@$$CBHH@std@@PAX@std@@@1@PAU?$_Tree_node@U?$pair@$$CBHH@std@@PAX@1@$$QAU?$pair@HH@1@@Z DD 019930522H
	DD	01H
	DD	FLAT:__unwindtable$??$?0U?$pair@HH@std@@@?$_Tree_temp_node@V?$allocator@U?$_Tree_node@U?$pair@$$CBHH@std@@PAX@std@@@std@@@std@@QAE@AAV?$allocator@U?$_Tree_node@U?$pair@$$CBHH@std@@PAX@std@@@1@PAU?$_Tree_node@U?$pair@$$CBHH@std@@PAX@1@$$QAU?$pair@HH@1@@Z
	DD	2 DUP(00H)
	DD	2 DUP(00H)
	DD	00H
	DD	01H
xdata$x	ENDS
;	COMDAT xdata$x
xdata$x	SEGMENT
__unwindtable$??0?$_Tree_temp_node_alloc@V?$allocator@U?$_Tree_node@U?$pair@$$CBHH@std@@PAX@std@@@std@@@std@@QAE@AAV?$allocator@U?$_Tree_node@U?$pair@$$CBHH@std@@PAX@std@@@1@@Z DD 0ffffffffH
	DD	FLAT:__unwindfunclet$??0?$_Tree_temp_node_alloc@V?$allocator@U?$_Tree_node@U?$pair@$$CBHH@std@@PAX@std@@@std@@@std@@QAE@AAV?$allocator@U?$_Tree_node@U?$pair@$$CBHH@std@@PAX@std@@@1@@Z$0
__ehfuncinfo$??0?$_Tree_temp_node_alloc@V?$allocator@U?$_Tree_node@U?$pair@$$CBHH@std@@PAX@std@@@std@@@std@@QAE@AAV?$allocator@U?$_Tree_node@U?$pair@$$CBHH@std@@PAX@std@@@1@@Z DD 019930522H
	DD	01H
	DD	FLAT:__unwindtable$??0?$_Tree_temp_node_alloc@V?$allocator@U?$_Tree_node@U?$pair@$$CBHH@std@@PAX@std@@@std@@@std@@QAE@AAV?$allocator@U?$_Tree_node@U?$pair@$$CBHH@std@@PAX@std@@@1@@Z
	DD	2 DUP(00H)
	DD	2 DUP(00H)
	DD	00H
	DD	01H
xdata$x	ENDS
;	COMDAT xdata$x
xdata$x	SEGMENT
__unwindtable$??$_Emplace@U?$pair@HU__CHAOS_GEM@@@std@@@?$_Tree@V?$_Tmap_traits@HU__CHAOS_GEM@@U?$less@H@std@@V?$allocator@U?$pair@$$CBHU__CHAOS_GEM@@@std@@@3@$0A@@std@@@std@@IAE?AU?$pair@PAU?$_Tree_node@U?$pair@$$CBHU__CHAOS_GEM@@@std@@PAX@std@@_N@1@$$QAU?$pair@HU__CHAOS_GEM@@@1@@Z DD 0ffffffffH
	DD	FLAT:__unwindfunclet$??$_Emplace@U?$pair@HU__CHAOS_GEM@@@std@@@?$_Tree@V?$_Tmap_traits@HU__CHAOS_GEM@@U?$less@H@std@@V?$allocator@U?$pair@$$CBHU__CHAOS_GEM@@@std@@@3@$0A@@std@@@std@@IAE?AU?$pair@PAU?$_Tree_node@U?$pair@$$CBHU__CHAOS_GEM@@@std@@PAX@std@@_N@1@$$QAU?$pair@HU__CHAOS_GEM@@@1@@Z$2
__ehfuncinfo$??$_Emplace@U?$pair@HU__CHAOS_GEM@@@std@@@?$_Tree@V?$_Tmap_traits@HU__CHAOS_GEM@@U?$less@H@std@@V?$allocator@U?$pair@$$CBHU__CHAOS_GEM@@@std@@@3@$0A@@std@@@std@@IAE?AU?$pair@PAU?$_Tree_node@U?$pair@$$CBHU__CHAOS_GEM@@@std@@PAX@std@@_N@1@$$QAU?$pair@HU__CHAOS_GEM@@@1@@Z DD 019930522H
	DD	01H
	DD	FLAT:__unwindtable$??$_Emplace@U?$pair@HU__CHAOS_GEM@@@std@@@?$_Tree@V?$_Tmap_traits@HU__CHAOS_GEM@@U?$less@H@std@@V?$allocator@U?$pair@$$CBHU__CHAOS_GEM@@@std@@@3@$0A@@std@@@std@@IAE?AU?$pair@PAU?$_Tree_node@U?$pair@$$CBHU__CHAOS_GEM@@@std@@PAX@std@@_N@1@$$QAU?$pair@HU__CHAOS_GEM@@@1@@Z
	DD	2 DUP(00H)
	DD	2 DUP(00H)
	DD	00H
	DD	01H
xdata$x	ENDS
;	COMDAT xdata$x
xdata$x	SEGMENT
__unwindtable$??$_Emplace@U?$pair@HU__ATTRIBUTE_ENCHANT@@@std@@@?$_Tree@V?$_Tmap_traits@HU__ATTRIBUTE_ENCHANT@@U?$less@H@std@@V?$allocator@U?$pair@$$CBHU__ATTRIBUTE_ENCHANT@@@std@@@3@$0A@@std@@@std@@IAE?AU?$pair@PAU?$_Tree_node@U?$pair@$$CBHU__ATTRIBUTE_ENCHANT@@@std@@PAX@std@@_N@1@$$QAU?$pair@HU__ATTRIBUTE_ENCHANT@@@1@@Z DD 0ffffffffH
	DD	FLAT:__unwindfunclet$??$_Emplace@U?$pair@HU__ATTRIBUTE_ENCHANT@@@std@@@?$_Tree@V?$_Tmap_traits@HU__ATTRIBUTE_ENCHANT@@U?$less@H@std@@V?$allocator@U?$pair@$$CBHU__ATTRIBUTE_ENCHANT@@@std@@@3@$0A@@std@@@std@@IAE?AU?$pair@PAU?$_Tree_node@U?$pair@$$CBHU__ATTRIBUTE_ENCHANT@@@std@@PAX@std@@_N@1@$$QAU?$pair@HU__ATTRIBUTE_ENCHANT@@@1@@Z$2
__ehfuncinfo$??$_Emplace@U?$pair@HU__ATTRIBUTE_ENCHANT@@@std@@@?$_Tree@V?$_Tmap_traits@HU__ATTRIBUTE_ENCHANT@@U?$less@H@std@@V?$allocator@U?$pair@$$CBHU__ATTRIBUTE_ENCHANT@@@std@@@3@$0A@@std@@@std@@IAE?AU?$pair@PAU?$_Tree_node@U?$pair@$$CBHU__ATTRIBUTE_ENCHANT@@@std@@PAX@std@@_N@1@$$QAU?$pair@HU__ATTRIBUTE_ENCHANT@@@1@@Z DD 019930522H
	DD	01H
	DD	FLAT:__unwindtable$??$_Emplace@U?$pair@HU__ATTRIBUTE_ENCHANT@@@std@@@?$_Tree@V?$_Tmap_traits@HU__ATTRIBUTE_ENCHANT@@U?$less@H@std@@V?$allocator@U?$pair@$$CBHU__ATTRIBUTE_ENCHANT@@@std@@@3@$0A@@std@@@std@@IAE?AU?$pair@PAU?$_Tree_node@U?$pair@$$CBHU__ATTRIBUTE_ENCHANT@@@std@@PAX@std@@_N@1@$$QAU?$pair@HU__ATTRIBUTE_ENCHANT@@@1@@Z
	DD	2 DUP(00H)
	DD	2 DUP(00H)
	DD	00H
	DD	01H
xdata$x	ENDS
;	COMDAT xdata$x
xdata$x	SEGMENT
__unwindtable$??$_Emplace@U?$pair@HH@std@@@?$_Tree@V?$_Tmap_traits@HHU?$less@H@std@@V?$allocator@U?$pair@$$CBHH@std@@@2@$0A@@std@@@std@@IAE?AU?$pair@PAU?$_Tree_node@U?$pair@$$CBHH@std@@PAX@std@@_N@1@$$QAU?$pair@HH@1@@Z DD 0ffffffffH
	DD	FLAT:__unwindfunclet$??$_Emplace@U?$pair@HH@std@@@?$_Tree@V?$_Tmap_traits@HHU?$less@H@std@@V?$allocator@U?$pair@$$CBHH@std@@@2@$0A@@std@@@std@@IAE?AU?$pair@PAU?$_Tree_node@U?$pair@$$CBHH@std@@PAX@std@@_N@1@$$QAU?$pair@HH@1@@Z$2
__ehfuncinfo$??$_Emplace@U?$pair@HH@std@@@?$_Tree@V?$_Tmap_traits@HHU?$less@H@std@@V?$allocator@U?$pair@$$CBHH@std@@@2@$0A@@std@@@std@@IAE?AU?$pair@PAU?$_Tree_node@U?$pair@$$CBHH@std@@PAX@std@@_N@1@$$QAU?$pair@HH@1@@Z DD 019930522H
	DD	01H
	DD	FLAT:__unwindtable$??$_Emplace@U?$pair@HH@std@@@?$_Tree@V?$_Tmap_traits@HHU?$less@H@std@@V?$allocator@U?$pair@$$CBHH@std@@@2@$0A@@std@@@std@@IAE?AU?$pair@PAU?$_Tree_node@U?$pair@$$CBHH@std@@PAX@std@@_N@1@$$QAU?$pair@HH@1@@Z
	DD	2 DUP(00H)
	DD	2 DUP(00H)
	DD	00H
	DD	01H
xdata$x	ENDS
;	COMDAT xdata$x
xdata$x	SEGMENT
__unwindtable$??$emplace@U?$pair@HU__CHAOS_GEM@@@std@@@?$_Tree@V?$_Tmap_traits@HU__CHAOS_GEM@@U?$less@H@std@@V?$allocator@U?$pair@$$CBHU__CHAOS_GEM@@@std@@@3@$0A@@std@@@std@@QAE?AU?$pair@V?$_Tree_iterator@V?$_Tree_val@U?$_Tree_simple_types@U?$pair@$$CBHU__CHAOS_GEM@@@std@@@std@@@std@@@std@@_N@1@$$QAU?$pair@HU__CHAOS_GEM@@@1@@Z DD 0ffffffffH
	DD	FLAT:__unwindfunclet$??$emplace@U?$pair@HU__CHAOS_GEM@@@std@@@?$_Tree@V?$_Tmap_traits@HU__CHAOS_GEM@@U?$less@H@std@@V?$allocator@U?$pair@$$CBHU__CHAOS_GEM@@@std@@@3@$0A@@std@@@std@@QAE?AU?$pair@V?$_Tree_iterator@V?$_Tree_val@U?$_Tree_simple_types@U?$pair@$$CBHU__CHAOS_GEM@@@std@@@std@@@std@@@std@@_N@1@$$QAU?$pair@HU__CHAOS_GEM@@@1@@Z$2
__ehfuncinfo$??$emplace@U?$pair@HU__CHAOS_GEM@@@std@@@?$_Tree@V?$_Tmap_traits@HU__CHAOS_GEM@@U?$less@H@std@@V?$allocator@U?$pair@$$CBHU__CHAOS_GEM@@@std@@@3@$0A@@std@@@std@@QAE?AU?$pair@V?$_Tree_iterator@V?$_Tree_val@U?$_Tree_simple_types@U?$pair@$$CBHU__CHAOS_GEM@@@std@@@std@@@std@@@std@@_N@1@$$QAU?$pair@HU__CHAOS_GEM@@@1@@Z DD 019930522H
	DD	01H
	DD	FLAT:__unwindtable$??$emplace@U?$pair@HU__CHAOS_GEM@@@std@@@?$_Tree@V?$_Tmap_traits@HU__CHAOS_GEM@@U?$less@H@std@@V?$allocator@U?$pair@$$CBHU__CHAOS_GEM@@@std@@@3@$0A@@std@@@std@@QAE?AU?$pair@V?$_Tree_iterator@V?$_Tree_val@U?$_Tree_simple_types@U?$pair@$$CBHU__CHAOS_GEM@@@std@@@std@@@std@@@std@@_N@1@$$QAU?$pair@HU__CHAOS_GEM@@@1@@Z
	DD	2 DUP(00H)
	DD	2 DUP(00H)
	DD	00H
	DD	01H
xdata$x	ENDS
;	COMDAT xdata$x
xdata$x	SEGMENT
__unwindtable$??$emplace@U?$pair@HU__ATTRIBUTE_ENCHANT@@@std@@@?$_Tree@V?$_Tmap_traits@HU__ATTRIBUTE_ENCHANT@@U?$less@H@std@@V?$allocator@U?$pair@$$CBHU__ATTRIBUTE_ENCHANT@@@std@@@3@$0A@@std@@@std@@QAE?AU?$pair@V?$_Tree_iterator@V?$_Tree_val@U?$_Tree_simple_types@U?$pair@$$CBHU__ATTRIBUTE_ENCHANT@@@std@@@std@@@std@@@std@@_N@1@$$QAU?$pair@HU__ATTRIBUTE_ENCHANT@@@1@@Z DD 0ffffffffH
	DD	FLAT:__unwindfunclet$??$emplace@U?$pair@HU__ATTRIBUTE_ENCHANT@@@std@@@?$_Tree@V?$_Tmap_traits@HU__ATTRIBUTE_ENCHANT@@U?$less@H@std@@V?$allocator@U?$pair@$$CBHU__ATTRIBUTE_ENCHANT@@@std@@@3@$0A@@std@@@std@@QAE?AU?$pair@V?$_Tree_iterator@V?$_Tree_val@U?$_Tree_simple_types@U?$pair@$$CBHU__ATTRIBUTE_ENCHANT@@@std@@@std@@@std@@@std@@_N@1@$$QAU?$pair@HU__ATTRIBUTE_ENCHANT@@@1@@Z$2
__ehfuncinfo$??$emplace@U?$pair@HU__ATTRIBUTE_ENCHANT@@@std@@@?$_Tree@V?$_Tmap_traits@HU__ATTRIBUTE_ENCHANT@@U?$less@H@std@@V?$allocator@U?$pair@$$CBHU__ATTRIBUTE_ENCHANT@@@std@@@3@$0A@@std@@@std@@QAE?AU?$pair@V?$_Tree_iterator@V?$_Tree_val@U?$_Tree_simple_types@U?$pair@$$CBHU__ATTRIBUTE_ENCHANT@@@std@@@std@@@std@@@std@@_N@1@$$QAU?$pair@HU__ATTRIBUTE_ENCHANT@@@1@@Z DD 019930522H
	DD	01H
	DD	FLAT:__unwindtable$??$emplace@U?$pair@HU__ATTRIBUTE_ENCHANT@@@std@@@?$_Tree@V?$_Tmap_traits@HU__ATTRIBUTE_ENCHANT@@U?$less@H@std@@V?$allocator@U?$pair@$$CBHU__ATTRIBUTE_ENCHANT@@@std@@@3@$0A@@std@@@std@@QAE?AU?$pair@V?$_Tree_iterator@V?$_Tree_val@U?$_Tree_simple_types@U?$pair@$$CBHU__ATTRIBUTE_ENCHANT@@@std@@@std@@@std@@@std@@_N@1@$$QAU?$pair@HU__ATTRIBUTE_ENCHANT@@@1@@Z
	DD	2 DUP(00H)
	DD	2 DUP(00H)
	DD	00H
	DD	01H
xdata$x	ENDS
;	COMDAT xdata$x
xdata$x	SEGMENT
__unwindtable$??$emplace@U?$pair@HH@std@@@?$_Tree@V?$_Tmap_traits@HHU?$less@H@std@@V?$allocator@U?$pair@$$CBHH@std@@@2@$0A@@std@@@std@@QAE?AU?$pair@V?$_Tree_iterator@V?$_Tree_val@U?$_Tree_simple_types@U?$pair@$$CBHH@std@@@std@@@std@@@std@@_N@1@$$QAU?$pair@HH@1@@Z DD 0ffffffffH
	DD	FLAT:__unwindfunclet$??$emplace@U?$pair@HH@std@@@?$_Tree@V?$_Tmap_traits@HHU?$less@H@std@@V?$allocator@U?$pair@$$CBHH@std@@@2@$0A@@std@@@std@@QAE?AU?$pair@V?$_Tree_iterator@V?$_Tree_val@U?$_Tree_simple_types@U?$pair@$$CBHH@std@@@std@@@std@@@std@@_N@1@$$QAU?$pair@HH@1@@Z$2
__ehfuncinfo$??$emplace@U?$pair@HH@std@@@?$_Tree@V?$_Tmap_traits@HHU?$less@H@std@@V?$allocator@U?$pair@$$CBHH@std@@@2@$0A@@std@@@std@@QAE?AU?$pair@V?$_Tree_iterator@V?$_Tree_val@U?$_Tree_simple_types@U?$pair@$$CBHH@std@@@std@@@std@@@std@@_N@1@$$QAU?$pair@HH@1@@Z DD 019930522H
	DD	01H
	DD	FLAT:__unwindtable$??$emplace@U?$pair@HH@std@@@?$_Tree@V?$_Tmap_traits@HHU?$less@H@std@@V?$allocator@U?$pair@$$CBHH@std@@@2@$0A@@std@@@std@@QAE?AU?$pair@V?$_Tree_iterator@V?$_Tree_val@U?$_Tree_simple_types@U?$pair@$$CBHH@std@@@std@@@std@@@std@@_N@1@$$QAU?$pair@HH@1@@Z
	DD	2 DUP(00H)
	DD	2 DUP(00H)
	DD	00H
	DD	01H
xdata$x	ENDS
;	COMDAT xdata$x
xdata$x	SEGMENT
__unwindtable$??$insert@U?$pair@HU__CHAOS_GEM@@@std@@$0A@@?$map@HU__CHAOS_GEM@@U?$less@H@std@@V?$allocator@U?$pair@$$CBHU__CHAOS_GEM@@@std@@@3@@std@@QAE?AU?$pair@V?$_Tree_iterator@V?$_Tree_val@U?$_Tree_simple_types@U?$pair@$$CBHU__CHAOS_GEM@@@std@@@std@@@std@@@std@@_N@1@$$QAU?$pair@HU__CHAOS_GEM@@@1@@Z DD 0ffffffffH
	DD	FLAT:__unwindfunclet$??$insert@U?$pair@HU__CHAOS_GEM@@@std@@$0A@@?$map@HU__CHAOS_GEM@@U?$less@H@std@@V?$allocator@U?$pair@$$CBHU__CHAOS_GEM@@@std@@@3@@std@@QAE?AU?$pair@V?$_Tree_iterator@V?$_Tree_val@U?$_Tree_simple_types@U?$pair@$$CBHU__CHAOS_GEM@@@std@@@std@@@std@@@std@@_N@1@$$QAU?$pair@HU__CHAOS_GEM@@@1@@Z$2
__ehfuncinfo$??$insert@U?$pair@HU__CHAOS_GEM@@@std@@$0A@@?$map@HU__CHAOS_GEM@@U?$less@H@std@@V?$allocator@U?$pair@$$CBHU__CHAOS_GEM@@@std@@@3@@std@@QAE?AU?$pair@V?$_Tree_iterator@V?$_Tree_val@U?$_Tree_simple_types@U?$pair@$$CBHU__CHAOS_GEM@@@std@@@std@@@std@@@std@@_N@1@$$QAU?$pair@HU__CHAOS_GEM@@@1@@Z DD 019930522H
	DD	01H
	DD	FLAT:__unwindtable$??$insert@U?$pair@HU__CHAOS_GEM@@@std@@$0A@@?$map@HU__CHAOS_GEM@@U?$less@H@std@@V?$allocator@U?$pair@$$CBHU__CHAOS_GEM@@@std@@@3@@std@@QAE?AU?$pair@V?$_Tree_iterator@V?$_Tree_val@U?$_Tree_simple_types@U?$pair@$$CBHU__CHAOS_GEM@@@std@@@std@@@std@@@std@@_N@1@$$QAU?$pair@HU__CHAOS_GEM@@@1@@Z
	DD	2 DUP(00H)
	DD	2 DUP(00H)
	DD	00H
	DD	01H
xdata$x	ENDS
;	COMDAT xdata$x
xdata$x	SEGMENT
__unwindtable$??$insert@U?$pair@HU__ATTRIBUTE_ENCHANT@@@std@@$0A@@?$map@HU__ATTRIBUTE_ENCHANT@@U?$less@H@std@@V?$allocator@U?$pair@$$CBHU__ATTRIBUTE_ENCHANT@@@std@@@3@@std@@QAE?AU?$pair@V?$_Tree_iterator@V?$_Tree_val@U?$_Tree_simple_types@U?$pair@$$CBHU__ATTRIBUTE_ENCHANT@@@std@@@std@@@std@@@std@@_N@1@$$QAU?$pair@HU__ATTRIBUTE_ENCHANT@@@1@@Z DD 0ffffffffH
	DD	FLAT:__unwindfunclet$??$insert@U?$pair@HU__ATTRIBUTE_ENCHANT@@@std@@$0A@@?$map@HU__ATTRIBUTE_ENCHANT@@U?$less@H@std@@V?$allocator@U?$pair@$$CBHU__ATTRIBUTE_ENCHANT@@@std@@@3@@std@@QAE?AU?$pair@V?$_Tree_iterator@V?$_Tree_val@U?$_Tree_simple_types@U?$pair@$$CBHU__ATTRIBUTE_ENCHANT@@@std@@@std@@@std@@@std@@_N@1@$$QAU?$pair@HU__ATTRIBUTE_ENCHANT@@@1@@Z$2
__ehfuncinfo$??$insert@U?$pair@HU__ATTRIBUTE_ENCHANT@@@std@@$0A@@?$map@HU__ATTRIBUTE_ENCHANT@@U?$less@H@std@@V?$allocator@U?$pair@$$CBHU__ATTRIBUTE_ENCHANT@@@std@@@3@@std@@QAE?AU?$pair@V?$_Tree_iterator@V?$_Tree_val@U?$_Tree_simple_types@U?$pair@$$CBHU__ATTRIBUTE_ENCHANT@@@std@@@std@@@std@@@std@@_N@1@$$QAU?$pair@HU__ATTRIBUTE_ENCHANT@@@1@@Z DD 019930522H
	DD	01H
	DD	FLAT:__unwindtable$??$insert@U?$pair@HU__ATTRIBUTE_ENCHANT@@@std@@$0A@@?$map@HU__ATTRIBUTE_ENCHANT@@U?$less@H@std@@V?$allocator@U?$pair@$$CBHU__ATTRIBUTE_ENCHANT@@@std@@@3@@std@@QAE?AU?$pair@V?$_Tree_iterator@V?$_Tree_val@U?$_Tree_simple_types@U?$pair@$$CBHU__ATTRIBUTE_ENCHANT@@@std@@@std@@@std@@@std@@_N@1@$$QAU?$pair@HU__ATTRIBUTE_ENCHANT@@@1@@Z
	DD	2 DUP(00H)
	DD	2 DUP(00H)
	DD	00H
	DD	01H
xdata$x	ENDS
;	COMDAT xdata$x
xdata$x	SEGMENT
__unwindtable$??$insert@U?$pair@HH@std@@$0A@@?$map@HHU?$less@H@std@@V?$allocator@U?$pair@$$CBHH@std@@@2@@std@@QAE?AU?$pair@V?$_Tree_iterator@V?$_Tree_val@U?$_Tree_simple_types@U?$pair@$$CBHH@std@@@std@@@std@@@std@@_N@1@$$QAU?$pair@HH@1@@Z DD 0ffffffffH
	DD	FLAT:__unwindfunclet$??$insert@U?$pair@HH@std@@$0A@@?$map@HHU?$less@H@std@@V?$allocator@U?$pair@$$CBHH@std@@@2@@std@@QAE?AU?$pair@V?$_Tree_iterator@V?$_Tree_val@U?$_Tree_simple_types@U?$pair@$$CBHH@std@@@std@@@std@@@std@@_N@1@$$QAU?$pair@HH@1@@Z$2
__ehfuncinfo$??$insert@U?$pair@HH@std@@$0A@@?$map@HHU?$less@H@std@@V?$allocator@U?$pair@$$CBHH@std@@@2@@std@@QAE?AU?$pair@V?$_Tree_iterator@V?$_Tree_val@U?$_Tree_simple_types@U?$pair@$$CBHH@std@@@std@@@std@@@std@@_N@1@$$QAU?$pair@HH@1@@Z DD 019930522H
	DD	01H
	DD	FLAT:__unwindtable$??$insert@U?$pair@HH@std@@$0A@@?$map@HHU?$less@H@std@@V?$allocator@U?$pair@$$CBHH@std@@@2@@std@@QAE?AU?$pair@V?$_Tree_iterator@V?$_Tree_val@U?$_Tree_simple_types@U?$pair@$$CBHH@std@@@std@@@std@@@std@@_N@1@$$QAU?$pair@HH@1@@Z
	DD	2 DUP(00H)
	DD	2 DUP(00H)
	DD	00H
	DD	01H
xdata$x	ENDS
;	COMDAT xdata$x
xdata$x	SEGMENT
__unwindtable$?CreateStone@CItemUpgrade@@QAEXPAVCUser@@PAVCItemElem@@11@Z DD 0ffffffffH
	DD	FLAT:__unwindfunclet$?CreateStone@CItemUpgrade@@QAEXPAVCUser@@PAVCItemElem@@11@Z$0
	DD	00H
	DD	FLAT:__unwindfunclet$?CreateStone@CItemUpgrade@@QAEXPAVCUser@@PAVCItemElem@@11@Z$1
__ehfuncinfo$?CreateStone@CItemUpgrade@@QAEXPAVCUser@@PAVCItemElem@@11@Z DD 019930522H
	DD	02H
	DD	FLAT:__unwindtable$?CreateStone@CItemUpgrade@@QAEXPAVCUser@@PAVCItemElem@@11@Z
	DD	2 DUP(00H)
	DD	2 DUP(00H)
	DD	00H
	DD	01H
xdata$x	ENDS
;	COMDAT xdata$x
xdata$x	SEGMENT
__unwindtable$?CreateBarunaChaosGem@CItemUpgrade@@QAEXPAVCUser@@PAVCItemElem@@1@Z DD 0ffffffffH
	DD	FLAT:__unwindfunclet$?CreateBarunaChaosGem@CItemUpgrade@@QAEXPAVCUser@@PAVCItemElem@@1@Z$0
	DD	00H
	DD	FLAT:__unwindfunclet$?CreateBarunaChaosGem@CItemUpgrade@@QAEXPAVCUser@@PAVCItemElem@@1@Z$1
__ehfuncinfo$?CreateBarunaChaosGem@CItemUpgrade@@QAEXPAVCUser@@PAVCItemElem@@1@Z DD 019930522H
	DD	02H
	DD	FLAT:__unwindtable$?CreateBarunaChaosGem@CItemUpgrade@@QAEXPAVCUser@@PAVCItemElem@@1@Z
	DD	2 DUP(00H)
	DD	2 DUP(00H)
	DD	00H
	DD	01H
xdata$x	ENDS
;	COMDAT xdata$x
xdata$x	SEGMENT
__unwindtable$?BarunaChaosGemExtract@CItemUpgrade@@QAEXPAVCUser@@PAVCItemElem@@@Z DD 0ffffffffH
	DD	FLAT:__unwindfunclet$?BarunaChaosGemExtract@CItemUpgrade@@QAEXPAVCUser@@PAVCItemElem@@@Z$0
	DD	00H
	DD	FLAT:__unwindfunclet$?BarunaChaosGemExtract@CItemUpgrade@@QAEXPAVCUser@@PAVCItemElem@@@Z$1
	DD	0ffffffffH
	DD	FLAT:__unwindfunclet$?BarunaChaosGemExtract@CItemUpgrade@@QAEXPAVCUser@@PAVCItemElem@@@Z$2
	DD	02H
	DD	FLAT:__unwindfunclet$?BarunaChaosGemExtract@CItemUpgrade@@QAEXPAVCUser@@PAVCItemElem@@@Z$3
__ehfuncinfo$?BarunaChaosGemExtract@CItemUpgrade@@QAEXPAVCUser@@PAVCItemElem@@@Z DD 019930522H
	DD	04H
	DD	FLAT:__unwindtable$?BarunaChaosGemExtract@CItemUpgrade@@QAEXPAVCUser@@PAVCItemElem@@@Z
	DD	2 DUP(00H)
	DD	2 DUP(00H)
	DD	00H
	DD	01H
xdata$x	ENDS
;	COMDAT xdata$x
xdata$x	SEGMENT
__unwindtable$?CreateBarunaCrystal@CItemUpgrade@@QAEXPAVCUser@@PAVCItemElem@@1@Z DD 0ffffffffH
	DD	FLAT:__unwindfunclet$?CreateBarunaCrystal@CItemUpgrade@@QAEXPAVCUser@@PAVCItemElem@@1@Z$0
	DD	00H
	DD	FLAT:__unwindfunclet$?CreateBarunaCrystal@CItemUpgrade@@QAEXPAVCUser@@PAVCItemElem@@1@Z$1
__ehfuncinfo$?CreateBarunaCrystal@CItemUpgrade@@QAEXPAVCUser@@PAVCItemElem@@1@Z DD 019930522H
	DD	02H
	DD	FLAT:__unwindtable$?CreateBarunaCrystal@CItemUpgrade@@QAEXPAVCUser@@PAVCItemElem@@1@Z
	DD	2 DUP(00H)
	DD	2 DUP(00H)
	DD	00H
	DD	01H
xdata$x	ENDS
;	COMDAT xdata$x
xdata$x	SEGMENT
__ehfuncinfo$?LoadScriptBaruna@CItemUpgrade@@QAEXXZ DD 019930522H
	DD	06H
	DD	FLAT:__unwindtable$?LoadScriptBaruna@CItemUpgrade@@QAEXXZ
	DD	2 DUP(00H)
	DD	2 DUP(00H)
	DD	00H
	DD	01H
__unwindtable$?LoadScriptBaruna@CItemUpgrade@@QAEXXZ DD 0ffffffffH
	DD	FLAT:__unwindfunclet$?LoadScriptBaruna@CItemUpgrade@@QAEXXZ$0
	DD	00H
	DD	FLAT:__unwindfunclet$?LoadScriptBaruna@CItemUpgrade@@QAEXXZ$3
	DD	00H
	DD	FLAT:__unwindfunclet$?LoadScriptBaruna@CItemUpgrade@@QAEXXZ$8
	DD	00H
	DD	FLAT:__unwindfunclet$?LoadScriptBaruna@CItemUpgrade@@QAEXXZ$18
	DD	00H
	DD	FLAT:__unwindfunclet$?LoadScriptBaruna@CItemUpgrade@@QAEXXZ$23
	DD	00H
	DD	FLAT:__unwindfunclet$?LoadScriptBaruna@CItemUpgrade@@QAEXXZ$13
xdata$x	ENDS
;	COMDAT xdata$x
xdata$x	SEGMENT
__unwindtable$?RunItemTransy@CItemUpgrade@@AAEHPAVCUser@@PAVCItemElem@@K@Z DD 0ffffffffH
	DD	FLAT:__unwindfunclet$?RunItemTransy@CItemUpgrade@@AAEHPAVCUser@@PAVCItemElem@@K@Z$0
__ehfuncinfo$?RunItemTransy@CItemUpgrade@@AAEHPAVCUser@@PAVCItemElem@@K@Z DD 019930522H
	DD	01H
	DD	FLAT:__unwindtable$?RunItemTransy@CItemUpgrade@@AAEHPAVCUser@@PAVCItemElem@@K@Z
	DD	2 DUP(00H)
	DD	2 DUP(00H)
	DD	00H
	DD	01H
xdata$x	ENDS
;	COMDAT xdata$x
xdata$x	SEGMENT
__ehfuncinfo$?LoadScript@CItemUpgrade@@QAEXXZ DD 019930522H
	DD	05H
	DD	FLAT:__unwindtable$?LoadScript@CItemUpgrade@@QAEXXZ
	DD	2 DUP(00H)
	DD	2 DUP(00H)
	DD	00H
	DD	01H
__unwindtable$?LoadScript@CItemUpgrade@@QAEXXZ DD 0ffffffffH
	DD	FLAT:__unwindfunclet$?LoadScript@CItemUpgrade@@QAEXXZ$0
	DD	00H
	DD	FLAT:__unwindfunclet$?LoadScript@CItemUpgrade@@QAEXXZ$3
	DD	00H
	DD	FLAT:__unwindfunclet$?LoadScript@CItemUpgrade@@QAEXXZ$8
	DD	00H
	DD	FLAT:__unwindfunclet$?LoadScript@CItemUpgrade@@QAEXXZ$13
	DD	00H
	DD	FLAT:__unwindfunclet$?LoadScript@CItemUpgrade@@QAEXXZ$18
xdata$x	ENDS
;	COMDAT xdata$x
xdata$x	SEGMENT
__unwindtable$?GetInstance@CItemUpgrade@@SAPAV1@XZ DD 0ffffffffH
	DD	FLAT:__unwindfunclet$?GetInstance@CItemUpgrade@@SAPAV1@XZ$0
__ehfuncinfo$?GetInstance@CItemUpgrade@@SAPAV1@XZ DD 019930522H
	DD	01H
	DD	FLAT:__unwindtable$?GetInstance@CItemUpgrade@@SAPAV1@XZ
	DD	2 DUP(00H)
	DD	2 DUP(00H)
	DD	00H
	DD	01H
xdata$x	ENDS
;	COMDAT xdata$x
xdata$x	SEGMENT
__ehfuncinfo$??0CItemUpgrade@@QAE@XZ DD 019930522H
	DD	09H
	DD	FLAT:__unwindtable$??0CItemUpgrade@@QAE@XZ
	DD	2 DUP(00H)
	DD	2 DUP(00H)
	DD	00H
	DD	01H
__unwindtable$??0CItemUpgrade@@QAE@XZ DD 0ffffffffH
	DD	FLAT:__unwindfunclet$??0CItemUpgrade@@QAE@XZ$0
	DD	00H
	DD	FLAT:__unwindfunclet$??0CItemUpgrade@@QAE@XZ$1
	DD	01H
	DD	FLAT:__unwindfunclet$??0CItemUpgrade@@QAE@XZ$2
	DD	02H
	DD	FLAT:__unwindfunclet$??0CItemUpgrade@@QAE@XZ$3
	DD	03H
	DD	FLAT:__unwindfunclet$??0CItemUpgrade@@QAE@XZ$4
	DD	04H
	DD	FLAT:__unwindfunclet$??0CItemUpgrade@@QAE@XZ$5
	DD	05H
	DD	FLAT:__unwindfunclet$??0CItemUpgrade@@QAE@XZ$6
	DD	06H
	DD	FLAT:__unwindfunclet$??0CItemUpgrade@@QAE@XZ$7
	DD	07H
	DD	FLAT:__unwindfunclet$??0CItemUpgrade@@QAE@XZ$8
xdata$x	ENDS
; Function compile flags: /Ogtp
; File C:\Program Files\Microsoft Visual Studio\2022\Professional\VC\Tools\MSVC\14.44.35207\include\xmemory
;	COMDAT ??1?$_Alloc_construct_ptr@V?$allocator@U?$_Tree_node@U?$pair@$$CBHU__CHAOS_GEM@@@std@@PAX@std@@@std@@@std@@QAE@XZ
_TEXT	SEGMENT
??1?$_Alloc_construct_ptr@V?$allocator@U?$_Tree_node@U?$pair@$$CBHU__CHAOS_GEM@@@std@@PAX@std@@@std@@@std@@QAE@XZ PROC ; std::_Alloc_construct_ptr<std::allocator<std::_Tree_node<std::pair<int const ,__CHAOS_GEM>,void *> > >::~_Alloc_construct_ptr<std::allocator<std::_Tree_node<std::pair<int const ,__CHAOS_GEM>,void *> > >, COMDAT
; _this$ = ecx

; 1172 :         if (_Ptr) {

  00000	8b 41 04	 mov	 eax, DWORD PTR [ecx+4]
  00003	85 c0		 test	 eax, eax
  00005	74 0b		 je	 SHORT $LN10@Alloc_cons

; 289  :         ::operator delete(_Ptr, _Bytes);

  00007	6a 24		 push	 36			; 00000024H
  00009	50		 push	 eax
  0000a	e8 00 00 00 00	 call	 ??3@YAXPAXI@Z		; operator delete
  0000f	83 c4 08	 add	 esp, 8
$LN10@Alloc_cons:

; 1173 :             _Al.deallocate(_Ptr, 1);
; 1174 :         }
; 1175 :     }

  00012	c3		 ret	 0
??1?$_Alloc_construct_ptr@V?$allocator@U?$_Tree_node@U?$pair@$$CBHU__CHAOS_GEM@@@std@@PAX@std@@@std@@@std@@QAE@XZ ENDP ; std::_Alloc_construct_ptr<std::allocator<std::_Tree_node<std::pair<int const ,__CHAOS_GEM>,void *> > >::~_Alloc_construct_ptr<std::allocator<std::_Tree_node<std::pair<int const ,__CHAOS_GEM>,void *> > >
_TEXT	ENDS
; Function compile flags: /Ogtp
; File C:\Program Files\Microsoft Visual Studio\2022\Professional\VC\Tools\MSVC\14.44.35207\include\xmemory
;	COMDAT ??1?$_Alloc_construct_ptr@V?$allocator@U?$_Tree_node@U?$pair@$$CBHU__ATTRIBUTE_ENCHANT@@@std@@PAX@std@@@std@@@std@@QAE@XZ
_TEXT	SEGMENT
??1?$_Alloc_construct_ptr@V?$allocator@U?$_Tree_node@U?$pair@$$CBHU__ATTRIBUTE_ENCHANT@@@std@@PAX@std@@@std@@@std@@QAE@XZ PROC ; std::_Alloc_construct_ptr<std::allocator<std::_Tree_node<std::pair<int const ,__ATTRIBUTE_ENCHANT>,void *> > >::~_Alloc_construct_ptr<std::allocator<std::_Tree_node<std::pair<int const ,__ATTRIBUTE_ENCHANT>,void *> > >, COMDAT
; _this$ = ecx

; 1172 :         if (_Ptr) {

  00000	8b 41 04	 mov	 eax, DWORD PTR [ecx+4]
  00003	85 c0		 test	 eax, eax
  00005	74 0b		 je	 SHORT $LN10@Alloc_cons

; 289  :         ::operator delete(_Ptr, _Bytes);

  00007	6a 24		 push	 36			; 00000024H
  00009	50		 push	 eax
  0000a	e8 00 00 00 00	 call	 ??3@YAXPAXI@Z		; operator delete
  0000f	83 c4 08	 add	 esp, 8
$LN10@Alloc_cons:

; 1173 :             _Al.deallocate(_Ptr, 1);
; 1174 :         }
; 1175 :     }

  00012	c3		 ret	 0
??1?$_Alloc_construct_ptr@V?$allocator@U?$_Tree_node@U?$pair@$$CBHU__ATTRIBUTE_ENCHANT@@@std@@PAX@std@@@std@@@std@@QAE@XZ ENDP ; std::_Alloc_construct_ptr<std::allocator<std::_Tree_node<std::pair<int const ,__ATTRIBUTE_ENCHANT>,void *> > >::~_Alloc_construct_ptr<std::allocator<std::_Tree_node<std::pair<int const ,__ATTRIBUTE_ENCHANT>,void *> > >
_TEXT	ENDS
; Function compile flags: /Ogtp
; File C:\Program Files\Microsoft Visual Studio\2022\Professional\VC\Tools\MSVC\14.44.35207\include\xmemory
;	COMDAT ??1?$_Alloc_construct_ptr@V?$allocator@U?$_Tree_node@U?$pair@$$CBHH@std@@PAX@std@@@std@@@std@@QAE@XZ
_TEXT	SEGMENT
??1?$_Alloc_construct_ptr@V?$allocator@U?$_Tree_node@U?$pair@$$CBHH@std@@PAX@std@@@std@@@std@@QAE@XZ PROC ; std::_Alloc_construct_ptr<std::allocator<std::_Tree_node<std::pair<int const ,int>,void *> > >::~_Alloc_construct_ptr<std::allocator<std::_Tree_node<std::pair<int const ,int>,void *> > >, COMDAT
; _this$ = ecx

; 1172 :         if (_Ptr) {

  00000	8b 41 04	 mov	 eax, DWORD PTR [ecx+4]
  00003	85 c0		 test	 eax, eax
  00005	74 0b		 je	 SHORT $LN10@Alloc_cons

; 289  :         ::operator delete(_Ptr, _Bytes);

  00007	6a 18		 push	 24			; 00000018H
  00009	50		 push	 eax
  0000a	e8 00 00 00 00	 call	 ??3@YAXPAXI@Z		; operator delete
  0000f	83 c4 08	 add	 esp, 8
$LN10@Alloc_cons:

; 1173 :             _Al.deallocate(_Ptr, 1);
; 1174 :         }
; 1175 :     }

  00012	c3		 ret	 0
??1?$_Alloc_construct_ptr@V?$allocator@U?$_Tree_node@U?$pair@$$CBHH@std@@PAX@std@@@std@@@std@@QAE@XZ ENDP ; std::_Alloc_construct_ptr<std::allocator<std::_Tree_node<std::pair<int const ,int>,void *> > >::~_Alloc_construct_ptr<std::allocator<std::_Tree_node<std::pair<int const ,int>,void *> > >
_TEXT	ENDS
; Function compile flags: /Ogtp
; File C:\Program Files\Microsoft Visual Studio\2022\Professional\VC\Tools\MSVC\14.44.35207\include\xtree
; File C:\Program Files\Microsoft Visual Studio\2022\Professional\VC\Tools\MSVC\14.44.35207\include\type_traits
; File C:\Program Files\Microsoft Visual Studio\2022\Professional\VC\Tools\MSVC\14.44.35207\include\xtree
; File C:\Program Files\Microsoft Visual Studio\2022\Professional\VC\Tools\MSVC\14.44.35207\include\type_traits
; File C:\Program Files\Microsoft Visual Studio\2022\Professional\VC\Tools\MSVC\14.44.35207\include\xtree
;	COMDAT ??$_Find_lower_bound@H@?$_Tree@V?$_Tmap_traits@HHU?$less@H@std@@V?$allocator@U?$pair@$$CBHH@std@@@2@$0A@@std@@@std@@IBE?AU?$_Tree_find_result@PAU?$_Tree_node@U?$pair@$$CBHH@std@@PAX@std@@@1@ABH@Z
_TEXT	SEGMENT
___$ReturnUdt$ = 8					; size = 4
__Keyval$ = 12						; size = 4
??$_Find_lower_bound@H@?$_Tree@V?$_Tmap_traits@HHU?$less@H@std@@V?$allocator@U?$pair@$$CBHH@std@@@2@$0A@@std@@@std@@IBE?AU?$_Tree_find_result@PAU?$_Tree_node@U?$pair@$$CBHH@std@@PAX@std@@@1@ABH@Z PROC ; std::_Tree<std::_Tmap_traits<int,int,std::less<int>,std::allocator<std::pair<int const ,int> >,0> >::_Find_lower_bound<int>, COMDAT
; _this$ = ecx

; 1628 :     _Tree_find_result<_Nodeptr> _Find_lower_bound(const _Keyty& _Keyval) const {

  00000	55		 push	 ebp
  00001	8b ec		 mov	 ebp, esp

; 1629 :         const auto _Scary = _Get_scary();
; 1630 :         _Tree_find_result<_Nodeptr> _Result{{_Scary->_Myhead->_Parent, _Tree_child::_Right}, _Scary->_Myhead};

  00003	8b 09		 mov	 ecx, DWORD PTR [ecx]
  00005	8b 55 08	 mov	 edx, DWORD PTR ___$ReturnUdt$[ebp]
  00008	8b 41 04	 mov	 eax, DWORD PTR [ecx+4]
  0000b	89 02		 mov	 DWORD PTR [edx], eax
  0000d	c7 42 04 00 00
	00 00		 mov	 DWORD PTR [edx+4], 0
  00014	89 4a 08	 mov	 DWORD PTR [edx+8], ecx

; 1631 :         _Nodeptr _Trynode = _Result._Location._Parent;
; 1632 :         while (!_Trynode->_Isnil) {

  00017	80 78 0d 00	 cmp	 BYTE PTR [eax+13], 0
  0001b	75 28		 jne	 SHORT $LN13@Find_lower
; File C:\Program Files\Microsoft Visual Studio\2022\Professional\VC\Tools\MSVC\14.44.35207\include\type_traits

; 2380 :         return _Left < _Right;

  0001d	8b 4d 0c	 mov	 ecx, DWORD PTR __Keyval$[ebp]
  00020	56		 push	 esi
  00021	8b 31		 mov	 esi, DWORD PTR [ecx]
$LL2@Find_lower:
; File C:\Program Files\Microsoft Visual Studio\2022\Professional\VC\Tools\MSVC\14.44.35207\include\xtree

; 1633 :             _Result._Location._Parent = _Trynode;

  00023	89 02		 mov	 DWORD PTR [edx], eax
; File C:\Program Files\Microsoft Visual Studio\2022\Professional\VC\Tools\MSVC\14.44.35207\include\type_traits

; 2380 :         return _Left < _Right;

  00025	39 70 10	 cmp	 DWORD PTR [eax+16], esi
; File C:\Program Files\Microsoft Visual Studio\2022\Professional\VC\Tools\MSVC\14.44.35207\include\xtree

; 1634 :             if (_DEBUG_LT_PRED(_Getcomp(), _Traits::_Kfn(_Trynode->_Myval), _Keyval)) {

  00028	7d 07		 jge	 SHORT $LN4@Find_lower

; 1635 :                 _Result._Location._Child = _Tree_child::_Right;
; 1636 :                 _Trynode                 = _Trynode->_Right;

  0002a	8b 40 08	 mov	 eax, DWORD PTR [eax+8]
  0002d	33 c9		 xor	 ecx, ecx

; 1637 :             } else {

  0002f	eb 0a		 jmp	 SHORT $LN5@Find_lower
$LN4@Find_lower:

; 1638 :                 _Result._Location._Child = _Tree_child::_Left;
; 1639 :                 _Result._Bound           = _Trynode;

  00031	89 42 08	 mov	 DWORD PTR [edx+8], eax

; 1640 :                 _Trynode                 = _Trynode->_Left;

  00034	b9 01 00 00 00	 mov	 ecx, 1
  00039	8b 00		 mov	 eax, DWORD PTR [eax]
$LN5@Find_lower:

; 1631 :         _Nodeptr _Trynode = _Result._Location._Parent;
; 1632 :         while (!_Trynode->_Isnil) {

  0003b	89 4a 04	 mov	 DWORD PTR [edx+4], ecx
  0003e	80 78 0d 00	 cmp	 BYTE PTR [eax+13], 0
  00042	74 df		 je	 SHORT $LL2@Find_lower
  00044	5e		 pop	 esi
$LN13@Find_lower:

; 1641 :             }
; 1642 :         }
; 1643 : 
; 1644 :         return _Result;
; 1645 :     }

  00045	8b c2		 mov	 eax, edx
  00047	5d		 pop	 ebp
  00048	c2 08 00	 ret	 8
??$_Find_lower_bound@H@?$_Tree@V?$_Tmap_traits@HHU?$less@H@std@@V?$allocator@U?$pair@$$CBHH@std@@@2@$0A@@std@@@std@@IBE?AU?$_Tree_find_result@PAU?$_Tree_node@U?$pair@$$CBHH@std@@PAX@std@@@1@ABH@Z ENDP ; std::_Tree<std::_Tmap_traits<int,int,std::less<int>,std::allocator<std::pair<int const ,int> >,0> >::_Find_lower_bound<int>
_TEXT	ENDS
; Function compile flags: /Ogtp
; File C:\Program Files\Microsoft Visual Studio\2022\Professional\VC\Tools\MSVC\14.44.35207\include\xtree
; File C:\Program Files\Microsoft Visual Studio\2022\Professional\VC\Tools\MSVC\14.44.35207\include\type_traits
; File C:\Program Files\Microsoft Visual Studio\2022\Professional\VC\Tools\MSVC\14.44.35207\include\xtree
; File C:\Program Files\Microsoft Visual Studio\2022\Professional\VC\Tools\MSVC\14.44.35207\include\type_traits
; File C:\Program Files\Microsoft Visual Studio\2022\Professional\VC\Tools\MSVC\14.44.35207\include\xtree
;	COMDAT ??$_Find_lower_bound@H@?$_Tree@V?$_Tmap_traits@HU__ATTRIBUTE_ENCHANT@@U?$less@H@std@@V?$allocator@U?$pair@$$CBHU__ATTRIBUTE_ENCHANT@@@std@@@3@$0A@@std@@@std@@IBE?AU?$_Tree_find_result@PAU?$_Tree_node@U?$pair@$$CBHU__ATTRIBUTE_ENCHANT@@@std@@PAX@std@@@1@ABH@Z
_TEXT	SEGMENT
___$ReturnUdt$ = 8					; size = 4
__Keyval$ = 12						; size = 4
??$_Find_lower_bound@H@?$_Tree@V?$_Tmap_traits@HU__ATTRIBUTE_ENCHANT@@U?$less@H@std@@V?$allocator@U?$pair@$$CBHU__ATTRIBUTE_ENCHANT@@@std@@@3@$0A@@std@@@std@@IBE?AU?$_Tree_find_result@PAU?$_Tree_node@U?$pair@$$CBHU__ATTRIBUTE_ENCHANT@@@std@@PAX@std@@@1@ABH@Z PROC ; std::_Tree<std::_Tmap_traits<int,__ATTRIBUTE_ENCHANT,std::less<int>,std::allocator<std::pair<int const ,__ATTRIBUTE_ENCHANT> >,0> >::_Find_lower_bound<int>, COMDAT
; _this$ = ecx

; 1628 :     _Tree_find_result<_Nodeptr> _Find_lower_bound(const _Keyty& _Keyval) const {

  00000	55		 push	 ebp
  00001	8b ec		 mov	 ebp, esp

; 1629 :         const auto _Scary = _Get_scary();
; 1630 :         _Tree_find_result<_Nodeptr> _Result{{_Scary->_Myhead->_Parent, _Tree_child::_Right}, _Scary->_Myhead};

  00003	8b 09		 mov	 ecx, DWORD PTR [ecx]
  00005	8b 55 08	 mov	 edx, DWORD PTR ___$ReturnUdt$[ebp]
  00008	8b 41 04	 mov	 eax, DWORD PTR [ecx+4]
  0000b	89 02		 mov	 DWORD PTR [edx], eax
  0000d	c7 42 04 00 00
	00 00		 mov	 DWORD PTR [edx+4], 0
  00014	89 4a 08	 mov	 DWORD PTR [edx+8], ecx

; 1631 :         _Nodeptr _Trynode = _Result._Location._Parent;
; 1632 :         while (!_Trynode->_Isnil) {

  00017	80 78 0d 00	 cmp	 BYTE PTR [eax+13], 0
  0001b	75 28		 jne	 SHORT $LN13@Find_lower
; File C:\Program Files\Microsoft Visual Studio\2022\Professional\VC\Tools\MSVC\14.44.35207\include\type_traits

; 2380 :         return _Left < _Right;

  0001d	8b 4d 0c	 mov	 ecx, DWORD PTR __Keyval$[ebp]
  00020	56		 push	 esi
  00021	8b 31		 mov	 esi, DWORD PTR [ecx]
$LL2@Find_lower:
; File C:\Program Files\Microsoft Visual Studio\2022\Professional\VC\Tools\MSVC\14.44.35207\include\xtree

; 1633 :             _Result._Location._Parent = _Trynode;

  00023	89 02		 mov	 DWORD PTR [edx], eax
; File C:\Program Files\Microsoft Visual Studio\2022\Professional\VC\Tools\MSVC\14.44.35207\include\type_traits

; 2380 :         return _Left < _Right;

  00025	39 70 10	 cmp	 DWORD PTR [eax+16], esi
; File C:\Program Files\Microsoft Visual Studio\2022\Professional\VC\Tools\MSVC\14.44.35207\include\xtree

; 1634 :             if (_DEBUG_LT_PRED(_Getcomp(), _Traits::_Kfn(_Trynode->_Myval), _Keyval)) {

  00028	7d 07		 jge	 SHORT $LN4@Find_lower

; 1635 :                 _Result._Location._Child = _Tree_child::_Right;
; 1636 :                 _Trynode                 = _Trynode->_Right;

  0002a	8b 40 08	 mov	 eax, DWORD PTR [eax+8]
  0002d	33 c9		 xor	 ecx, ecx

; 1637 :             } else {

  0002f	eb 0a		 jmp	 SHORT $LN5@Find_lower
$LN4@Find_lower:

; 1638 :                 _Result._Location._Child = _Tree_child::_Left;
; 1639 :                 _Result._Bound           = _Trynode;

  00031	89 42 08	 mov	 DWORD PTR [edx+8], eax

; 1640 :                 _Trynode                 = _Trynode->_Left;

  00034	b9 01 00 00 00	 mov	 ecx, 1
  00039	8b 00		 mov	 eax, DWORD PTR [eax]
$LN5@Find_lower:

; 1631 :         _Nodeptr _Trynode = _Result._Location._Parent;
; 1632 :         while (!_Trynode->_Isnil) {

  0003b	89 4a 04	 mov	 DWORD PTR [edx+4], ecx
  0003e	80 78 0d 00	 cmp	 BYTE PTR [eax+13], 0
  00042	74 df		 je	 SHORT $LL2@Find_lower
  00044	5e		 pop	 esi
$LN13@Find_lower:

; 1641 :             }
; 1642 :         }
; 1643 : 
; 1644 :         return _Result;
; 1645 :     }

  00045	8b c2		 mov	 eax, edx
  00047	5d		 pop	 ebp
  00048	c2 08 00	 ret	 8
??$_Find_lower_bound@H@?$_Tree@V?$_Tmap_traits@HU__ATTRIBUTE_ENCHANT@@U?$less@H@std@@V?$allocator@U?$pair@$$CBHU__ATTRIBUTE_ENCHANT@@@std@@@3@$0A@@std@@@std@@IBE?AU?$_Tree_find_result@PAU?$_Tree_node@U?$pair@$$CBHU__ATTRIBUTE_ENCHANT@@@std@@PAX@std@@@1@ABH@Z ENDP ; std::_Tree<std::_Tmap_traits<int,__ATTRIBUTE_ENCHANT,std::less<int>,std::allocator<std::pair<int const ,__ATTRIBUTE_ENCHANT> >,0> >::_Find_lower_bound<int>
_TEXT	ENDS
; Function compile flags: /Ogtp
; File C:\Program Files\Microsoft Visual Studio\2022\Professional\VC\Tools\MSVC\14.44.35207\include\xtree
; File C:\Program Files\Microsoft Visual Studio\2022\Professional\VC\Tools\MSVC\14.44.35207\include\utility
; File C:\Program Files\Microsoft Visual Studio\2022\Professional\VC\Tools\MSVC\14.44.35207\include\xmemory
; File C:\Program Files\Microsoft Visual Studio\2022\Professional\VC\Tools\MSVC\14.44.35207\include\xtree
;	COMDAT ??$_Erase_tree@V?$allocator@U?$_Tree_node@U?$pair@$$CBHU__CHAOS_GEM@@@std@@PAX@std@@@std@@@?$_Tree_val@U?$_Tree_simple_types@U?$pair@$$CBHU__CHAOS_GEM@@@std@@@std@@@std@@QAEXAAV?$allocator@U?$_Tree_node@U?$pair@$$CBHU__CHAOS_GEM@@@std@@PAX@std@@@1@PAU?$_Tree_node@U?$pair@$$CBHU__CHAOS_GEM@@@std@@PAX@1@@Z
_TEXT	SEGMENT
__Al$ = 8						; size = 4
__Rootnode$ = 12					; size = 4
??$_Erase_tree@V?$allocator@U?$_Tree_node@U?$pair@$$CBHU__CHAOS_GEM@@@std@@PAX@std@@@std@@@?$_Tree_val@U?$_Tree_simple_types@U?$pair@$$CBHU__CHAOS_GEM@@@std@@@std@@@std@@QAEXAAV?$allocator@U?$_Tree_node@U?$pair@$$CBHU__CHAOS_GEM@@@std@@PAX@std@@@1@PAU?$_Tree_node@U?$pair@$$CBHU__CHAOS_GEM@@@std@@PAX@1@@Z PROC ; std::_Tree_val<std::_Tree_simple_types<std::pair<int const ,__CHAOS_GEM> > >::_Erase_tree<std::allocator<std::_Tree_node<std::pair<int const ,__CHAOS_GEM>,void *> > >, COMDAT
; _this$ = ecx

; 767  :     void _Erase_tree(_Alnode& _Al, _Nodeptr _Rootnode) noexcept {

  00000	55		 push	 ebp
  00001	8b ec		 mov	 ebp, esp
  00003	53		 push	 ebx
  00004	56		 push	 esi

; 768  :         while (!_Rootnode->_Isnil) { // free subtrees, then node

  00005	8b 75 0c	 mov	 esi, DWORD PTR __Rootnode$[ebp]
  00008	8b d9		 mov	 ebx, ecx
  0000a	80 7e 0d 00	 cmp	 BYTE PTR [esi+13], 0
  0000e	75 25		 jne	 SHORT $LN34@Erase_tree
  00010	57		 push	 edi
  00011	8b 7d 08	 mov	 edi, DWORD PTR __Al$[ebp]
$LL2@Erase_tree:

; 769  :             _Erase_tree(_Al, _Rootnode->_Right);

  00014	ff 76 08	 push	 DWORD PTR [esi+8]
  00017	8b cb		 mov	 ecx, ebx
  00019	57		 push	 edi
  0001a	e8 00 00 00 00	 call	 ??$_Erase_tree@V?$allocator@U?$_Tree_node@U?$pair@$$CBHU__CHAOS_GEM@@@std@@PAX@std@@@std@@@?$_Tree_val@U?$_Tree_simple_types@U?$pair@$$CBHU__CHAOS_GEM@@@std@@@std@@@std@@QAEXAAV?$allocator@U?$_Tree_node@U?$pair@$$CBHU__CHAOS_GEM@@@std@@PAX@std@@@1@PAU?$_Tree_node@U?$pair@$$CBHU__CHAOS_GEM@@@std@@PAX@1@@Z ; std::_Tree_val<std::_Tree_simple_types<std::pair<int const ,__CHAOS_GEM> > >::_Erase_tree<std::allocator<std::_Tree_node<std::pair<int const ,__CHAOS_GEM>,void *> > >
; File C:\Program Files\Microsoft Visual Studio\2022\Professional\VC\Tools\MSVC\14.44.35207\include\utility

; 773  :     _Ty _Old_val = static_cast<_Ty&&>(_Val);

  0001f	8b c6		 mov	 eax, esi

; 774  :     _Val         = static_cast<_Other&&>(_New_val);

  00021	8b 36		 mov	 esi, DWORD PTR [esi]
; File C:\Program Files\Microsoft Visual Studio\2022\Professional\VC\Tools\MSVC\14.44.35207\include\xmemory

; 289  :         ::operator delete(_Ptr, _Bytes);

  00023	6a 24		 push	 36			; 00000024H
  00025	50		 push	 eax
  00026	e8 00 00 00 00	 call	 ??3@YAXPAXI@Z		; operator delete
  0002b	83 c4 08	 add	 esp, 8
; File C:\Program Files\Microsoft Visual Studio\2022\Professional\VC\Tools\MSVC\14.44.35207\include\xtree

; 768  :         while (!_Rootnode->_Isnil) { // free subtrees, then node

  0002e	80 7e 0d 00	 cmp	 BYTE PTR [esi+13], 0
  00032	74 e0		 je	 SHORT $LL2@Erase_tree
  00034	5f		 pop	 edi
$LN34@Erase_tree:
  00035	5e		 pop	 esi

; 770  :             _Alnode::value_type::_Freenode(_Al, _STD exchange(_Rootnode, _Rootnode->_Left));
; 771  :         }
; 772  :     }

  00036	5b		 pop	 ebx
  00037	5d		 pop	 ebp
  00038	c2 08 00	 ret	 8
??$_Erase_tree@V?$allocator@U?$_Tree_node@U?$pair@$$CBHU__CHAOS_GEM@@@std@@PAX@std@@@std@@@?$_Tree_val@U?$_Tree_simple_types@U?$pair@$$CBHU__CHAOS_GEM@@@std@@@std@@@std@@QAEXAAV?$allocator@U?$_Tree_node@U?$pair@$$CBHU__CHAOS_GEM@@@std@@PAX@std@@@1@PAU?$_Tree_node@U?$pair@$$CBHU__CHAOS_GEM@@@std@@PAX@1@@Z ENDP ; std::_Tree_val<std::_Tree_simple_types<std::pair<int const ,__CHAOS_GEM> > >::_Erase_tree<std::allocator<std::_Tree_node<std::pair<int const ,__CHAOS_GEM>,void *> > >
_TEXT	ENDS
; Function compile flags: /Ogtp
; File C:\Program Files\Microsoft Visual Studio\2022\Professional\VC\Tools\MSVC\14.44.35207\include\xtree
; File C:\Program Files\Microsoft Visual Studio\2022\Professional\VC\Tools\MSVC\14.44.35207\include\type_traits
; File C:\Program Files\Microsoft Visual Studio\2022\Professional\VC\Tools\MSVC\14.44.35207\include\xtree
; File C:\Program Files\Microsoft Visual Studio\2022\Professional\VC\Tools\MSVC\14.44.35207\include\type_traits
; File C:\Program Files\Microsoft Visual Studio\2022\Professional\VC\Tools\MSVC\14.44.35207\include\xtree
;	COMDAT ??$_Find_lower_bound@H@?$_Tree@V?$_Tmap_traits@HU__CHAOS_GEM@@U?$less@H@std@@V?$allocator@U?$pair@$$CBHU__CHAOS_GEM@@@std@@@3@$0A@@std@@@std@@IBE?AU?$_Tree_find_result@PAU?$_Tree_node@U?$pair@$$CBHU__CHAOS_GEM@@@std@@PAX@std@@@1@ABH@Z
_TEXT	SEGMENT
___$ReturnUdt$ = 8					; size = 4
__Keyval$ = 12						; size = 4
??$_Find_lower_bound@H@?$_Tree@V?$_Tmap_traits@HU__CHAOS_GEM@@U?$less@H@std@@V?$allocator@U?$pair@$$CBHU__CHAOS_GEM@@@std@@@3@$0A@@std@@@std@@IBE?AU?$_Tree_find_result@PAU?$_Tree_node@U?$pair@$$CBHU__CHAOS_GEM@@@std@@PAX@std@@@1@ABH@Z PROC ; std::_Tree<std::_Tmap_traits<int,__CHAOS_GEM,std::less<int>,std::allocator<std::pair<int const ,__CHAOS_GEM> >,0> >::_Find_lower_bound<int>, COMDAT
; _this$ = ecx

; 1628 :     _Tree_find_result<_Nodeptr> _Find_lower_bound(const _Keyty& _Keyval) const {

  00000	55		 push	 ebp
  00001	8b ec		 mov	 ebp, esp

; 1629 :         const auto _Scary = _Get_scary();
; 1630 :         _Tree_find_result<_Nodeptr> _Result{{_Scary->_Myhead->_Parent, _Tree_child::_Right}, _Scary->_Myhead};

  00003	8b 09		 mov	 ecx, DWORD PTR [ecx]
  00005	8b 55 08	 mov	 edx, DWORD PTR ___$ReturnUdt$[ebp]
  00008	8b 41 04	 mov	 eax, DWORD PTR [ecx+4]
  0000b	89 02		 mov	 DWORD PTR [edx], eax
  0000d	c7 42 04 00 00
	00 00		 mov	 DWORD PTR [edx+4], 0
  00014	89 4a 08	 mov	 DWORD PTR [edx+8], ecx

; 1631 :         _Nodeptr _Trynode = _Result._Location._Parent;
; 1632 :         while (!_Trynode->_Isnil) {

  00017	80 78 0d 00	 cmp	 BYTE PTR [eax+13], 0
  0001b	75 28		 jne	 SHORT $LN13@Find_lower
; File C:\Program Files\Microsoft Visual Studio\2022\Professional\VC\Tools\MSVC\14.44.35207\include\type_traits

; 2380 :         return _Left < _Right;

  0001d	8b 4d 0c	 mov	 ecx, DWORD PTR __Keyval$[ebp]
  00020	56		 push	 esi
  00021	8b 31		 mov	 esi, DWORD PTR [ecx]
$LL2@Find_lower:
; File C:\Program Files\Microsoft Visual Studio\2022\Professional\VC\Tools\MSVC\14.44.35207\include\xtree

; 1633 :             _Result._Location._Parent = _Trynode;

  00023	89 02		 mov	 DWORD PTR [edx], eax
; File C:\Program Files\Microsoft Visual Studio\2022\Professional\VC\Tools\MSVC\14.44.35207\include\type_traits

; 2380 :         return _Left < _Right;

  00025	39 70 10	 cmp	 DWORD PTR [eax+16], esi
; File C:\Program Files\Microsoft Visual Studio\2022\Professional\VC\Tools\MSVC\14.44.35207\include\xtree

; 1634 :             if (_DEBUG_LT_PRED(_Getcomp(), _Traits::_Kfn(_Trynode->_Myval), _Keyval)) {

  00028	7d 07		 jge	 SHORT $LN4@Find_lower

; 1635 :                 _Result._Location._Child = _Tree_child::_Right;
; 1636 :                 _Trynode                 = _Trynode->_Right;

  0002a	8b 40 08	 mov	 eax, DWORD PTR [eax+8]
  0002d	33 c9		 xor	 ecx, ecx

; 1637 :             } else {

  0002f	eb 0a		 jmp	 SHORT $LN5@Find_lower
$LN4@Find_lower:

; 1638 :                 _Result._Location._Child = _Tree_child::_Left;
; 1639 :                 _Result._Bound           = _Trynode;

  00031	89 42 08	 mov	 DWORD PTR [edx+8], eax

; 1640 :                 _Trynode                 = _Trynode->_Left;

  00034	b9 01 00 00 00	 mov	 ecx, 1
  00039	8b 00		 mov	 eax, DWORD PTR [eax]
$LN5@Find_lower:

; 1631 :         _Nodeptr _Trynode = _Result._Location._Parent;
; 1632 :         while (!_Trynode->_Isnil) {

  0003b	89 4a 04	 mov	 DWORD PTR [edx+4], ecx
  0003e	80 78 0d 00	 cmp	 BYTE PTR [eax+13], 0
  00042	74 df		 je	 SHORT $LL2@Find_lower
  00044	5e		 pop	 esi
$LN13@Find_lower:

; 1641 :             }
; 1642 :         }
; 1643 : 
; 1644 :         return _Result;
; 1645 :     }

  00045	8b c2		 mov	 eax, edx
  00047	5d		 pop	 ebp
  00048	c2 08 00	 ret	 8
??$_Find_lower_bound@H@?$_Tree@V?$_Tmap_traits@HU__CHAOS_GEM@@U?$less@H@std@@V?$allocator@U?$pair@$$CBHU__CHAOS_GEM@@@std@@@3@$0A@@std@@@std@@IBE?AU?$_Tree_find_result@PAU?$_Tree_node@U?$pair@$$CBHU__CHAOS_GEM@@@std@@PAX@std@@@1@ABH@Z ENDP ; std::_Tree<std::_Tmap_traits<int,__CHAOS_GEM,std::less<int>,std::allocator<std::pair<int const ,__CHAOS_GEM> >,0> >::_Find_lower_bound<int>
_TEXT	ENDS
; Function compile flags: /Ogtp
; File C:\Program Files\Microsoft Visual Studio\2022\Professional\VC\Tools\MSVC\14.44.35207\include\xtree
; File C:\Program Files\Microsoft Visual Studio\2022\Professional\VC\Tools\MSVC\14.44.35207\include\utility
; File C:\Program Files\Microsoft Visual Studio\2022\Professional\VC\Tools\MSVC\14.44.35207\include\xmemory
; File C:\Program Files\Microsoft Visual Studio\2022\Professional\VC\Tools\MSVC\14.44.35207\include\xtree
;	COMDAT ??$_Erase_tree@V?$allocator@U?$_Tree_node@U?$pair@$$CBHU__ATTRIBUTE_ENCHANT@@@std@@PAX@std@@@std@@@?$_Tree_val@U?$_Tree_simple_types@U?$pair@$$CBHU__ATTRIBUTE_ENCHANT@@@std@@@std@@@std@@QAEXAAV?$allocator@U?$_Tree_node@U?$pair@$$CBHU__ATTRIBUTE_ENCHANT@@@std@@PAX@std@@@1@PAU?$_Tree_node@U?$pair@$$CBHU__ATTRIBUTE_ENCHANT@@@std@@PAX@1@@Z
_TEXT	SEGMENT
__Al$ = 8						; size = 4
__Rootnode$ = 12					; size = 4
??$_Erase_tree@V?$allocator@U?$_Tree_node@U?$pair@$$CBHU__ATTRIBUTE_ENCHANT@@@std@@PAX@std@@@std@@@?$_Tree_val@U?$_Tree_simple_types@U?$pair@$$CBHU__ATTRIBUTE_ENCHANT@@@std@@@std@@@std@@QAEXAAV?$allocator@U?$_Tree_node@U?$pair@$$CBHU__ATTRIBUTE_ENCHANT@@@std@@PAX@std@@@1@PAU?$_Tree_node@U?$pair@$$CBHU__ATTRIBUTE_ENCHANT@@@std@@PAX@1@@Z PROC ; std::_Tree_val<std::_Tree_simple_types<std::pair<int const ,__ATTRIBUTE_ENCHANT> > >::_Erase_tree<std::allocator<std::_Tree_node<std::pair<int const ,__ATTRIBUTE_ENCHANT>,void *> > >, COMDAT
; _this$ = ecx

; 767  :     void _Erase_tree(_Alnode& _Al, _Nodeptr _Rootnode) noexcept {

  00000	55		 push	 ebp
  00001	8b ec		 mov	 ebp, esp
  00003	53		 push	 ebx
  00004	56		 push	 esi

; 768  :         while (!_Rootnode->_Isnil) { // free subtrees, then node

  00005	8b 75 0c	 mov	 esi, DWORD PTR __Rootnode$[ebp]
  00008	8b d9		 mov	 ebx, ecx
  0000a	80 7e 0d 00	 cmp	 BYTE PTR [esi+13], 0
  0000e	75 25		 jne	 SHORT $LN34@Erase_tree
  00010	57		 push	 edi
  00011	8b 7d 08	 mov	 edi, DWORD PTR __Al$[ebp]
$LL2@Erase_tree:

; 769  :             _Erase_tree(_Al, _Rootnode->_Right);

  00014	ff 76 08	 push	 DWORD PTR [esi+8]
  00017	8b cb		 mov	 ecx, ebx
  00019	57		 push	 edi
  0001a	e8 00 00 00 00	 call	 ??$_Erase_tree@V?$allocator@U?$_Tree_node@U?$pair@$$CBHU__ATTRIBUTE_ENCHANT@@@std@@PAX@std@@@std@@@?$_Tree_val@U?$_Tree_simple_types@U?$pair@$$CBHU__ATTRIBUTE_ENCHANT@@@std@@@std@@@std@@QAEXAAV?$allocator@U?$_Tree_node@U?$pair@$$CBHU__ATTRIBUTE_ENCHANT@@@std@@PAX@std@@@1@PAU?$_Tree_node@U?$pair@$$CBHU__ATTRIBUTE_ENCHANT@@@std@@PAX@1@@Z ; std::_Tree_val<std::_Tree_simple_types<std::pair<int const ,__ATTRIBUTE_ENCHANT> > >::_Erase_tree<std::allocator<std::_Tree_node<std::pair<int const ,__ATTRIBUTE_ENCHANT>,void *> > >
; File C:\Program Files\Microsoft Visual Studio\2022\Professional\VC\Tools\MSVC\14.44.35207\include\utility

; 773  :     _Ty _Old_val = static_cast<_Ty&&>(_Val);

  0001f	8b c6		 mov	 eax, esi

; 774  :     _Val         = static_cast<_Other&&>(_New_val);

  00021	8b 36		 mov	 esi, DWORD PTR [esi]
; File C:\Program Files\Microsoft Visual Studio\2022\Professional\VC\Tools\MSVC\14.44.35207\include\xmemory

; 289  :         ::operator delete(_Ptr, _Bytes);

  00023	6a 24		 push	 36			; 00000024H
  00025	50		 push	 eax
  00026	e8 00 00 00 00	 call	 ??3@YAXPAXI@Z		; operator delete
  0002b	83 c4 08	 add	 esp, 8
; File C:\Program Files\Microsoft Visual Studio\2022\Professional\VC\Tools\MSVC\14.44.35207\include\xtree

; 768  :         while (!_Rootnode->_Isnil) { // free subtrees, then node

  0002e	80 7e 0d 00	 cmp	 BYTE PTR [esi+13], 0
  00032	74 e0		 je	 SHORT $LL2@Erase_tree
  00034	5f		 pop	 edi
$LN34@Erase_tree:
  00035	5e		 pop	 esi

; 770  :             _Alnode::value_type::_Freenode(_Al, _STD exchange(_Rootnode, _Rootnode->_Left));
; 771  :         }
; 772  :     }

  00036	5b		 pop	 ebx
  00037	5d		 pop	 ebp
  00038	c2 08 00	 ret	 8
??$_Erase_tree@V?$allocator@U?$_Tree_node@U?$pair@$$CBHU__ATTRIBUTE_ENCHANT@@@std@@PAX@std@@@std@@@?$_Tree_val@U?$_Tree_simple_types@U?$pair@$$CBHU__ATTRIBUTE_ENCHANT@@@std@@@std@@@std@@QAEXAAV?$allocator@U?$_Tree_node@U?$pair@$$CBHU__ATTRIBUTE_ENCHANT@@@std@@PAX@std@@@1@PAU?$_Tree_node@U?$pair@$$CBHU__ATTRIBUTE_ENCHANT@@@std@@PAX@1@@Z ENDP ; std::_Tree_val<std::_Tree_simple_types<std::pair<int const ,__ATTRIBUTE_ENCHANT> > >::_Erase_tree<std::allocator<std::_Tree_node<std::pair<int const ,__ATTRIBUTE_ENCHANT>,void *> > >
_TEXT	ENDS
; Function compile flags: /Ogtp
;	COMDAT ??__FsItemUpgrade@?1??GetInstance@CItemUpgrade@@SAPAV1@XZ@YAXXZ
text$yd	SEGMENT
??__FsItemUpgrade@?1??GetInstance@CItemUpgrade@@SAPAV1@XZ@YAXXZ PROC ; `CItemUpgrade::GetInstance'::`2'::`dynamic atexit destructor for 'sItemUpgrade'', COMDAT
  00000	b9 00 00 00 00	 mov	 ecx, OFFSET ?sItemUpgrade@?1??GetInstance@CItemUpgrade@@SAPAV2@XZ@4V2@A
  00005	e9 00 00 00 00	 jmp	 ??1CItemUpgrade@@QAE@XZ	; CItemUpgrade::~CItemUpgrade
??__FsItemUpgrade@?1??GetInstance@CItemUpgrade@@SAPAV1@XZ@YAXXZ ENDP ; `CItemUpgrade::GetInstance'::`2'::`dynamic atexit destructor for 'sItemUpgrade''
text$yd	ENDS
; Function compile flags: /Ogtp
; File C:\IAGOS\server\v18\Source\Source\WorldServer\ItemUpgrade.cpp
; File C:\IAGOS\server\v18\Source\Source\_Common\Obj.h
; File C:\IAGOS\server\v18\Source\Source\WorldServer\ItemUpgrade.cpp
;	COMDAT ?TransFormVisPet@CItemUpgrade@@QAEXPAVCUser@@K@Z
_TEXT	SEGMENT
_pUser$ = 8						; size = 4
_objIdMaterial$ = 12					; size = 4
?TransFormVisPet@CItemUpgrade@@QAEXPAVCUser@@K@Z PROC	; CItemUpgrade::TransFormVisPet, COMDAT
; _this$ = ecx

; 2233 : {

  00000	55		 push	 ebp
  00001	8b ec		 mov	 ebp, esp
  00003	53		 push	 ebx
  00004	56		 push	 esi
  00005	57		 push	 edi

; 2234 : 	CMover* pEatPet = prj.GetMover( pUser->GetEatPetId() );

  00006	8b 7d 08	 mov	 edi, DWORD PTR _pUser$[ebp]
  00009	b9 00 00 00 00	 mov	 ecx, OFFSET ?prj@@3VCProject@@A ; prj
  0000e	ff b7 74 06 00
	00		 push	 DWORD PTR [edi+1652]
  00014	e8 00 00 00 00	 call	 ?GetMover@CProject@@QAEPAVCMover@@K@Z ; CProject::GetMover
; File C:\IAGOS\server\v18\Source\Source\_Common\Obj.h

; 327  : 	return pObj && ( pObj->IsDelete() == FALSE ); 

  00019	85 c0		 test	 eax, eax
  0001b	0f 84 ea 00 00
	00		 je	 $LN2@TransFormV

; 180  : 	BOOL			IsDelete()	{ return (m_dwFlags & OBJ_FLAG_DELETE);  }

  00021	f6 40 04 01	 test	 BYTE PTR [eax+4], 1

; 327  : 	return pObj && ( pObj->IsDelete() == FALSE ); 

  00025	0f 85 e0 00 00
	00		 jne	 $LN2@TransFormV
; File C:\IAGOS\server\v18\Source\Source\WorldServer\ItemUpgrade.cpp

; 2238 : 		if( pAI )

  0002b	8b 80 88 01 00
	00		 mov	 eax, DWORD PTR [eax+392]
  00031	85 c0		 test	 eax, eax
  00033	0f 84 de 00 00
	00		 je	 $LN3@TransFormV

; 2239 : 		{
; 2240 : 			CItemElem* pItemEatPet = pUser->m_Inventory.GetAtId( pAI->GetPetItemId() );

  00039	ff 70 4c	 push	 DWORD PTR [eax+76]
  0003c	8d 8f fc 0a 00
	00		 lea	 ecx, DWORD PTR [edi+2812]
  00042	e8 00 00 00 00	 call	 ?GetAtId@?$CItemContainer@VCItemElem@@@@QAEPAVCItemElem@@K@Z ; CItemContainer<CItemElem>::GetAtId

; 2241 : 			CItemElem* pItemMaterial = pUser->m_Inventory.GetAtId( objIdMaterial );

  00047	ff 75 0c	 push	 DWORD PTR _objIdMaterial$[ebp]
  0004a	8d 8f fc 0a 00
	00		 lea	 ecx, DWORD PTR [edi+2812]
  00050	8b d8		 mov	 ebx, eax
  00052	e8 00 00 00 00	 call	 ?GetAtId@?$CItemContainer@VCItemElem@@@@QAEPAVCItemElem@@K@Z ; CItemContainer<CItemElem>::GetAtId

; 2242 : 			if( IsUsableItem( pItemEatPet ) && IsUsableItem( pItemMaterial ) )

  00057	53		 push	 ebx
  00058	8b f0		 mov	 esi, eax
  0005a	e8 00 00 00 00	 call	 ?IsUsableItem@@YAHPAVCItemBase@@@Z ; IsUsableItem
  0005f	83 c4 04	 add	 esp, 4
  00062	85 c0		 test	 eax, eax
  00064	0f 84 ad 00 00
	00		 je	 $LN3@TransFormV
  0006a	56		 push	 esi
  0006b	e8 00 00 00 00	 call	 ?IsUsableItem@@YAHPAVCItemBase@@@Z ; IsUsableItem
  00070	83 c4 04	 add	 esp, 4
  00073	85 c0		 test	 eax, eax
  00075	0f 84 9c 00 00
	00		 je	 $LN3@TransFormV

; 2243 : 			{
; 2244 : 				if( pItemEatPet->IsVisPet() )

  0007b	8b cb		 mov	 ecx, ebx
  0007d	e8 00 00 00 00	 call	 ?IsVisPet@CItemElem@@QAEHXZ ; CItemElem::IsVisPet
  00082	85 c0		 test	 eax, eax
  00084	0f 85 81 00 00
	00		 jne	 $LN2@TransFormV

; 2245 : 				{
; 2246 : 					pUser->AddDefinedText( TID_GAME_PET_TRAN_FAILURE );
; 2247 : 					return;
; 2248 : 				}
; 2249 : 								
; 2250 : 				if( pItemMaterial->m_bCharged )		// ╗¾┐ļ╚Ł ŠŲ└╠┼█ Ę╬▒ū

  0008a	39 86 a4 00 00
	00		 cmp	 DWORD PTR [esi+164], eax
  00090	74 1e		 je	 SHORT $LN7@TransFormV

; 2251 : 					g_dpDBClient.SendLogSMItemUse( "1", pUser, pItemMaterial, pItemMaterial->GetProp() );

  00092	68 00 00 00 00	 push	 OFFSET ??_C@_00CNPNBAHC@@
  00097	8b ce		 mov	 ecx, esi
  00099	e8 00 00 00 00	 call	 ?GetPropA@CItemElem@@QAEPAUItemProp@@XZ ; CItemElem::GetPropA
  0009e	50		 push	 eax
  0009f	56		 push	 esi
  000a0	57		 push	 edi
  000a1	68 00 00 00 00	 push	 OFFSET ??_C@_01HIHLOKLC@1@
  000a6	b9 00 00 00 00	 mov	 ecx, OFFSET ?g_dpDBClient@@3VCDPDatabaseClient@@A ; g_dpDBClient
  000ab	e8 00 00 00 00	 call	 ?SendLogSMItemUse@CDPDatabaseClient@@QAEXPBDPAVCUser@@PAVCItemElem@@PAUItemProp@@0@Z ; CDPDatabaseClient::SendLogSMItemUse
$LN7@TransFormV:

; 2252 : 				pUser->RemoveItem( (BYTE)( objIdMaterial ), 1 );

  000b0	6a 01		 push	 1
  000b2	ff 75 0c	 push	 DWORD PTR _objIdMaterial$[ebp]
  000b5	8b cf		 mov	 ecx, edi
  000b7	e8 00 00 00 00	 call	 ?RemoveItem@CMover@@QAEXEF@Z ; CMover::RemoveItem

; 2253 : 				pUser->UpdateItem( (BYTE)( pItemEatPet->m_dwObjId ), UI_TRANSFORM_VISPET, TRUE );

  000bc	0f b6 43 04	 movzx	 eax, BYTE PTR [ebx+4]
  000c0	8b cf		 mov	 ecx, edi
  000c2	6a 00		 push	 0
  000c4	6a 01		 push	 1
  000c6	6a 12		 push	 18			; 00000012H
  000c8	50		 push	 eax
  000c9	e8 00 00 00 00	 call	 ?UpdateItem@CMover@@QAEXEDKK@Z ; CMover::UpdateItem

; 2254 : 				g_DPSrvr.PutItemLog( pUser, "!", "TRANSFORM_VISPET", pItemEatPet );

  000ce	6a 00		 push	 0
  000d0	53		 push	 ebx
  000d1	68 00 00 00 00	 push	 OFFSET ??_C@_0BB@PNCKCHMF@TRANSFORM_VISPET@
  000d6	68 00 00 00 00	 push	 OFFSET ??_C@_01DCLJPIOD@?$CB@
  000db	57		 push	 edi
  000dc	b9 00 00 00 00	 mov	 ecx, OFFSET ?g_DPSrvr@@3VCDPSrvr@@A ; g_DPSrvr
  000e1	e8 00 00 00 00	 call	 ?PutItemLog@CDPSrvr@@QAEXPAVCUser@@PBD1PAVCItemElem@@H@Z ; CDPSrvr::PutItemLog

; 2255 : 				pUser->AddDefinedText( TID_GAME_PET_TRAN_SUCCESS, "\"%s\"", pItemEatPet->GetProp()->szName );

  000e6	8b cb		 mov	 ecx, ebx
  000e8	e8 00 00 00 00	 call	 ?GetPropA@CItemElem@@QAEPAUItemProp@@XZ ; CItemElem::GetPropA
  000ed	83 c0 04	 add	 eax, 4
  000f0	50		 push	 eax
  000f1	68 00 00 00 00	 push	 OFFSET ??_C@_04OEDFLLKD@?$CC?$CFs?$CC@
  000f6	68 fb 10 00 00	 push	 4347			; 000010fbH
  000fb	57		 push	 edi
  000fc	e8 00 00 00 00	 call	 ?AddDefinedText@CUser@@QAAXHPBDZZ ; CUser::AddDefinedText
  00101	83 c4 10	 add	 esp, 16			; 00000010H
  00104	5f		 pop	 edi

; 2262 : 	}
; 2263 : }

  00105	5e		 pop	 esi
  00106	5b		 pop	 ebx
  00107	5d		 pop	 ebp
  00108	c2 08 00	 ret	 8
$LN2@TransFormV:

; 2256 : 			}
; 2257 : 		}
; 2258 : 	}
; 2259 : 	else
; 2260 : 	{
; 2261 : 		pUser->AddDefinedText( TID_GAME_PET_TRAN_FAILURE );

  0010b	68 fc 10 00 00	 push	 4348			; 000010fcH
  00110	8b cf		 mov	 ecx, edi
  00112	e8 00 00 00 00	 call	 ?AddDefinedText@CUser@@QAEXH@Z ; CUser::AddDefinedText
$LN3@TransFormV:

; 2262 : 	}
; 2263 : }

  00117	5f		 pop	 edi
  00118	5e		 pop	 esi
  00119	5b		 pop	 ebx
  0011a	5d		 pop	 ebp
  0011b	c2 08 00	 ret	 8
?TransFormVisPet@CItemUpgrade@@QAEXPAVCUser@@K@Z ENDP	; CItemUpgrade::TransFormVisPet
_TEXT	ENDS
; Function compile flags: /Ogtp
; File C:\IAGOS\server\v18\Source\Source\WorldServer\ItemUpgrade.cpp
; File C:\IAGOS\server\v18\Source\Source\_Common\Obj.h
; File C:\IAGOS\server\v18\Source\Source\WorldServer\ItemUpgrade.cpp
; File C:\IAGOS\server\v18\Source\Source\_Common\Obj.h
; File C:\IAGOS\server\v18\Source\Source\WorldServer\ItemUpgrade.cpp
;	COMDAT ?ChangeVisPetSfx@CItemUpgrade@@QAEXPAVCUser@@PAVCItemElem@@@Z
_TEXT	SEGMENT
_pUser$ = 8						; size = 4
_pItemElemPet$ = 12					; size = 4
?ChangeVisPetSfx@CItemUpgrade@@QAEXPAVCUser@@PAVCItemElem@@@Z PROC ; CItemUpgrade::ChangeVisPetSfx, COMDAT
; _this$ = ecx

; 2219 : {

  00000	55		 push	 ebp
  00001	8b ec		 mov	 ebp, esp
  00003	56		 push	 esi

; 2220 : 	CMover* pVisPet = prj.GetMover( pUser->GetEatPetId() );

  00004	8b 75 08	 mov	 esi, DWORD PTR _pUser$[ebp]
  00007	b9 00 00 00 00	 mov	 ecx, OFFSET ?prj@@3VCProject@@A ; prj
  0000c	57		 push	 edi
  0000d	ff b6 74 06 00
	00		 push	 DWORD PTR [esi+1652]
  00013	e8 00 00 00 00	 call	 ?GetMover@CProject@@QAEPAVCMover@@K@Z ; CProject::GetMover
; File C:\IAGOS\server\v18\Source\Source\_Common\Obj.h

; 180  : 	BOOL			IsDelete()	{ return (m_dwFlags & OBJ_FLAG_DELETE);  }

  00018	f6 46 04 01	 test	 BYTE PTR [esi+4], 1
; File C:\IAGOS\server\v18\Source\Source\WorldServer\ItemUpgrade.cpp

; 2220 : 	CMover* pVisPet = prj.GetMover( pUser->GetEatPetId() );

  0001c	8b f8		 mov	 edi, eax
; File C:\IAGOS\server\v18\Source\Source\_Common\Obj.h

; 327  : 	return pObj && ( pObj->IsDelete() == FALSE ); 

  0001e	75 2b		 jne	 SHORT $LN3@ChangeVisP
  00020	85 ff		 test	 edi, edi
  00022	74 27		 je	 SHORT $LN3@ChangeVisP

; 180  : 	BOOL			IsDelete()	{ return (m_dwFlags & OBJ_FLAG_DELETE);  }

  00024	f6 47 04 01	 test	 BYTE PTR [edi+4], 1

; 327  : 	return pObj && ( pObj->IsDelete() == FALSE ); 

  00028	75 21		 jne	 SHORT $LN3@ChangeVisP
; File C:\IAGOS\server\v18\Source\Source\WorldServer\ItemUpgrade.cpp

; 2223 : 		DWORD dwSfxId = pItemElemPet->GetVisPetSfxId();

  0002a	8b 4d 0c	 mov	 ecx, DWORD PTR _pItemElemPet$[ebp]
  0002d	e8 00 00 00 00	 call	 ?GetVisPetSfxId@CItemElem@@QAEKXZ ; CItemElem::GetVisPetSfxId

; 2224 : 		if( pVisPet->m_dwMoverSfxId != dwSfxId )

  00032	39 87 9c 10 00
	00		 cmp	 DWORD PTR [edi+4252], eax
  00038	74 11		 je	 SHORT $LN3@ChangeVisP

; 2225 : 		{
; 2226 : 			pVisPet->m_dwMoverSfxId = dwSfxId;
; 2227 : 			g_UserMng.AddChangeMoverSfxId( pVisPet );

  0003a	57		 push	 edi
  0003b	b9 00 00 00 00	 mov	 ecx, OFFSET ?g_UserMng@@3VCUserMng@@A ; g_UserMng
  00040	89 87 9c 10 00
	00		 mov	 DWORD PTR [edi+4252], eax
  00046	e8 00 00 00 00	 call	 ?AddChangeMoverSfxId@CUserMng@@QAEXPAVCMover@@@Z ; CUserMng::AddChangeMoverSfxId
$LN3@ChangeVisP:

; 2228 : 		}
; 2229 : 	}
; 2230 : }

  0004b	5f		 pop	 edi
  0004c	5e		 pop	 esi
  0004d	5d		 pop	 ebp
  0004e	c2 08 00	 ret	 8
?ChangeVisPetSfx@CItemUpgrade@@QAEXPAVCUser@@PAVCItemElem@@@Z ENDP ; CItemUpgrade::ChangeVisPetSfx
_TEXT	ENDS
; Function compile flags: /Ogtp
; File C:\IAGOS\server\v18\Source\Source\WorldServer\ItemUpgrade.cpp
; File C:\IAGOS\server\v18\Source\Source\_Common\Obj.h
; File C:\IAGOS\server\v18\Source\Source\_Common\Mover.h
; File C:\IAGOS\server\v18\Source\Source\WorldServer\ItemUpgrade.cpp
;	COMDAT ?SwapVis@CItemUpgrade@@QAEXPAVCUser@@HH@Z
_TEXT	SEGMENT
_pUser$ = 8						; size = 4
_nPos1$ = 12						; size = 4
_nPos2$ = 16						; size = 4
?SwapVis@CItemUpgrade@@QAEXPAVCUser@@HH@Z PROC		; CItemUpgrade::SwapVis, COMDAT
; _this$ = ecx

; 2206 : {

  00000	55		 push	 ebp
  00001	8b ec		 mov	 ebp, esp
  00003	56		 push	 esi
; File C:\IAGOS\server\v18\Source\Source\_Common\Obj.h

; 327  : 	return pObj && ( pObj->IsDelete() == FALSE ); 

  00004	8b 75 08	 mov	 esi, DWORD PTR _pUser$[ebp]
  00007	85 f6		 test	 esi, esi
  00009	74 46		 je	 SHORT $LN1@SwapVis

; 180  : 	BOOL			IsDelete()	{ return (m_dwFlags & OBJ_FLAG_DELETE);  }

  0000b	f6 46 04 01	 test	 BYTE PTR [esi+4], 1

; 327  : 	return pObj && ( pObj->IsDelete() == FALSE ); 

  0000f	75 40		 jne	 SHORT $LN1@SwapVis
  00011	57		 push	 edi
; File C:\IAGOS\server\v18\Source\Source\_Common\Mover.h

; 823  : 	CItemElem*	GetVisPetItem( void )	{ return m_Inventory.GetAtId( m_objIdVisPet ); }

  00012	ff b6 a0 10 00
	00		 push	 DWORD PTR [esi+4256]
  00018	8d 8e fc 0a 00
	00		 lea	 ecx, DWORD PTR [esi+2812]
  0001e	e8 00 00 00 00	 call	 ?GetAtId@?$CItemContainer@VCItemElem@@@@QAEPAVCItemElem@@K@Z ; CItemContainer<CItemElem>::GetAtId
; File C:\IAGOS\server\v18\Source\Source\WorldServer\ItemUpgrade.cpp

; 2210 : 	CItemElem* pItemElemPet = pUser->GetVisPetItem();

  00023	8b f8		 mov	 edi, eax

; 2211 : 	if( !IsUsableItem( pItemElemPet ) )

  00025	57		 push	 edi
  00026	e8 00 00 00 00	 call	 ?IsUsableItem@@YAHPAVCItemBase@@@Z ; IsUsableItem
  0002b	83 c4 04	 add	 esp, 4
  0002e	85 c0		 test	 eax, eax
  00030	74 1e		 je	 SHORT $LN17@SwapVis

; 2212 : 		return;
; 2213 : 	
; 2214 : 	pUser->UpdateItem( (BYTE)( pItemElemPet->m_dwObjId ), UI_PETVIS_ITEMSWAP, MAKELONG( nPos1, nPos2 ) );

  00032	0f b7 55 10	 movzx	 edx, WORD PTR _nPos2$[ebp]
  00036	8b ce		 mov	 ecx, esi
  00038	0f b7 45 0c	 movzx	 eax, WORD PTR _nPos1$[ebp]
  0003c	6a 00		 push	 0
  0003e	c1 e2 10	 shl	 edx, 16			; 00000010H
  00041	0b d0		 or	 edx, eax
  00043	0f b6 47 04	 movzx	 eax, BYTE PTR [edi+4]
  00047	52		 push	 edx
  00048	6a 11		 push	 17			; 00000011H
  0004a	50		 push	 eax
  0004b	e8 00 00 00 00	 call	 ?UpdateItem@CMover@@QAEXEDKK@Z ; CMover::UpdateItem
$LN17@SwapVis:
  00050	5f		 pop	 edi
$LN1@SwapVis:
  00051	5e		 pop	 esi

; 2215 : }

  00052	5d		 pop	 ebp
  00053	c2 0c 00	 ret	 12			; 0000000cH
?SwapVis@CItemUpgrade@@QAEXPAVCUser@@HH@Z ENDP		; CItemUpgrade::SwapVis
_TEXT	ENDS
; Function compile flags: /Ogtp
; File C:\IAGOS\server\v18\Source\Source\WorldServer\ItemUpgrade.cpp
; File C:\IAGOS\server\v18\Source\Source\_Common\Item.h
; File C:\IAGOS\server\v18\Source\Source\WorldServer\ItemUpgrade.cpp
; File C:\IAGOS\server\v18\Source\Source\_Common\Item.h
; File C:\IAGOS\server\v18\Source\Source\WorldServer\ItemUpgrade.cpp
;	COMDAT ?PutPetVisItemLog@CItemUpgrade@@QAEXPAVCUser@@PBD1PAVCItemElem@@H@Z
_TEXT	SEGMENT
_pItem$GSCopy$1$ = -208					; size = 4
_log$ = -204						; size = 200
__$ArrayPad$ = -4					; size = 4
_pUser$ = 8						; size = 4
_szAction$ = 12						; size = 4
_szContext$ = 16					; size = 4
_pItem$ = 20						; size = 4
_nPosition$ = 24					; size = 4
?PutPetVisItemLog@CItemUpgrade@@QAEXPAVCUser@@PBD1PAVCItemElem@@H@Z PROC ; CItemUpgrade::PutPetVisItemLog, COMDAT
; _this$ = ecx

; 2194 : {	// ŠŲ└╠┼█└╠ ┴”░┼Ą╚ └╠╚─┐Ī ╚Ż├ŌĄŪ┴÷ Š╩ĄĄĘŽ ┴ų└ŪŪžŠ▀ Ūį

  00000	55		 push	 ebp
  00001	8b ec		 mov	 ebp, esp
  00003	81 ec d0 00 00
	00		 sub	 esp, 208		; 000000d0H
  00009	a1 00 00 00 00	 mov	 eax, DWORD PTR ___security_cookie
  0000e	33 c5		 xor	 eax, ebp
  00010	89 45 fc	 mov	 DWORD PTR __$ArrayPad$[ebp], eax
  00013	8b 45 14	 mov	 eax, DWORD PTR _pItem$[ebp]

; 2195 : 	LogItemInfo	log;

  00016	8d 8d 34 ff ff
	ff		 lea	 ecx, DWORD PTR _log$[ebp]
  0001c	53		 push	 ebx
  0001d	8b 5d 08	 mov	 ebx, DWORD PTR _pUser$[ebp]
  00020	56		 push	 esi
  00021	8b 75 0c	 mov	 esi, DWORD PTR _szAction$[ebp]
  00024	57		 push	 edi
  00025	8b 7d 10	 mov	 edi, DWORD PTR _szContext$[ebp]
  00028	89 85 30 ff ff
	ff		 mov	 DWORD PTR _pItem$GSCopy$1$[ebp], eax
  0002e	e8 00 00 00 00	 call	 ??0_LogItemInfo@@QAE@XZ	; _LogItemInfo::_LogItemInfo

; 2196 : 	log.Action	=  szAction;
; 2197 : 	log.SendName	= pUser->GetName();

  00033	6a 00		 push	 0
  00035	8b cb		 mov	 ecx, ebx
  00037	89 b5 34 ff ff
	ff		 mov	 DWORD PTR _log$[ebp], esi
  0003d	e8 00 00 00 00	 call	 ?GetName@CMover@@QAEPBDH@Z ; CMover::GetName
  00042	89 85 38 ff ff
	ff		 mov	 DWORD PTR _log$[ebp+4], eax

; 2198 : 	log.RecvName	= szContext;
; 2199 : 	log.WorldId		= pUser->GetWorld() ? pUser->GetWorld()->GetID() : WI_WORLD_NONE;	// chipi_090623 ╝÷┴ż - ├╣ ┴ó╝ėĮ├ ĖĖĘßĄ╚ ╣÷Ū┴└╬ ░µ┐ņ ┐∙ĄÕ░Ī Š°┤┬ ╗¾┼┬Ę╬ ĄķŠŅ┐┬┤┘. 

  00048	8b 83 6c 01 00
	00		 mov	 eax, DWORD PTR [ebx+364]
  0004e	89 bd 3c ff ff
	ff		 mov	 DWORD PTR _log$[ebp+8], edi
  00054	85 c0		 test	 eax, eax
  00056	74 0a		 je	 SHORT $LN3@PutPetVisI
  00058	8b 00		 mov	 eax, DWORD PTR [eax]
  0005a	89 85 40 ff ff
	ff		 mov	 DWORD PTR _log$[ebp+12], eax
  00060	eb 0a		 jmp	 SHORT $LN4@PutPetVisI
$LN3@PutPetVisI:
  00062	c7 85 40 ff ff
	ff 00 00 00 00	 mov	 DWORD PTR _log$[ebp+12], 0
$LN4@PutPetVisI:

; 2200 : 	log.Gold	= pUser->GetGold();

  0006c	8b 83 e0 14 00
	00		 mov	 eax, DWORD PTR [ebx+5344]
; File C:\IAGOS\server\v18\Source\Source\_Common\Item.h

; 279  : 	time_t	GetVisKeepTime( int nth )					{ return m_piercing.GetVisKeepTime( nth ); }

  00072	8b 9d 30 ff ff
	ff		 mov	 ebx, DWORD PTR _pItem$GSCopy$1$[ebp]
  00078	ff 75 18	 push	 DWORD PTR _nPosition$[ebp]
; File C:\IAGOS\server\v18\Source\Source\WorldServer\ItemUpgrade.cpp

; 2200 : 	log.Gold	= pUser->GetGold();

  0007b	89 85 44 ff ff
	ff		 mov	 DWORD PTR _log$[ebp+16], eax
; File C:\IAGOS\server\v18\Source\Source\_Common\Item.h

; 279  : 	time_t	GetVisKeepTime( int nth )					{ return m_piercing.GetVisKeepTime( nth ); }

  00081	8d 4b 3c	 lea	 ecx, DWORD PTR [ebx+60]
  00084	e8 00 00 00 00	 call	 ?GetVisKeepTime@CPiercing@@QAEJH@Z ; CPiercing::GetVisKeepTime
; File C:\IAGOS\server\v18\Source\Source\WorldServer\ItemUpgrade.cpp

; 2201 : 	log.Gold2	= pItem->GetVisKeepTime( nPosition ) - time_null();

  00089	2b 05 00 00 00
	00		 sub	 eax, DWORD PTR ?g_tCurrent@@3JA ; g_tCurrent

; 2202 : 	g_DPSrvr.OnLogItem( log, pItem, pItem->m_nItemNum );

  0008f	b9 00 00 00 00	 mov	 ecx, OFFSET ?g_DPSrvr@@3VCDPSrvr@@A ; g_DPSrvr
  00094	89 85 48 ff ff
	ff		 mov	 DWORD PTR _log$[ebp+20], eax
  0009a	0f bf 43 74	 movsx	 eax, WORD PTR [ebx+116]
  0009e	50		 push	 eax
  0009f	53		 push	 ebx
  000a0	8d 85 34 ff ff
	ff		 lea	 eax, DWORD PTR _log$[ebp]
  000a6	50		 push	 eax
  000a7	e8 00 00 00 00	 call	 ?OnLogItem@CDPSrvr@@QAEXAAU_LogItemInfo@@PAVCItemElem@@H@Z ; CDPSrvr::OnLogItem

; 2203 : }

  000ac	8b 4d fc	 mov	 ecx, DWORD PTR __$ArrayPad$[ebp]
  000af	5f		 pop	 edi
  000b0	5e		 pop	 esi
  000b1	33 cd		 xor	 ecx, ebp
  000b3	5b		 pop	 ebx
  000b4	e8 00 00 00 00	 call	 @__security_check_cookie@4
  000b9	8b e5		 mov	 esp, ebp
  000bb	5d		 pop	 ebp
  000bc	c2 14 00	 ret	 20			; 00000014H
?PutPetVisItemLog@CItemUpgrade@@QAEXPAVCUser@@PBD1PAVCItemElem@@H@Z ENDP ; CItemUpgrade::PutPetVisItemLog
_TEXT	ENDS
; Function compile flags: /Ogtp
; File C:\IAGOS\server\v18\Source\Source\WorldServer\ItemUpgrade.cpp
; File C:\IAGOS\server\v18\Source\Source\_Common\Obj.h
; File C:\IAGOS\server\v18\Source\Source\WorldServer\ItemUpgrade.cpp
; File C:\IAGOS\server\v18\Source\Source\_Common\Obj.h
; File C:\IAGOS\server\v18\Source\Source\_Common\Mover.h
; File C:\IAGOS\server\v18\Source\Source\WorldServer\ItemUpgrade.cpp
; File C:\IAGOS\server\v18\Source\Source\_Common\Item.h
; File C:\IAGOS\server\v18\Source\Source\WorldServer\ItemUpgrade.cpp
;	COMDAT ?RemovePetVisItem@CItemUpgrade@@QAEXPAVCUser@@HH@Z
_TEXT	SEGMENT
_pUser$ = 8						; size = 4
_dwItemId$1$ = 8					; size = 4
_nPosition$ = 12					; size = 4
_bExpired$ = 16						; size = 4
?RemovePetVisItem@CItemUpgrade@@QAEXPAVCUser@@HH@Z PROC	; CItemUpgrade::RemovePetVisItem, COMDAT
; _this$ = ecx

; 2168 : {

  00000	55		 push	 ebp
  00001	8b ec		 mov	 ebp, esp
  00003	53		 push	 ebx
  00004	56		 push	 esi
; File C:\IAGOS\server\v18\Source\Source\_Common\Obj.h

; 327  : 	return pObj && ( pObj->IsDelete() == FALSE ); 

  00005	8b 75 08	 mov	 esi, DWORD PTR _pUser$[ebp]
; File C:\IAGOS\server\v18\Source\Source\WorldServer\ItemUpgrade.cpp

; 2168 : {

  00008	8b d9		 mov	 ebx, ecx
; File C:\IAGOS\server\v18\Source\Source\_Common\Obj.h

; 327  : 	return pObj && ( pObj->IsDelete() == FALSE ); 

  0000a	85 f6		 test	 esi, esi
  0000c	0f 84 bd 00 00
	00		 je	 $LN1@RemovePetV

; 180  : 	BOOL			IsDelete()	{ return (m_dwFlags & OBJ_FLAG_DELETE);  }

  00012	f6 46 04 01	 test	 BYTE PTR [esi+4], 1

; 327  : 	return pObj && ( pObj->IsDelete() == FALSE ); 

  00016	0f 85 b3 00 00
	00		 jne	 $LN1@RemovePetV
  0001c	57		 push	 edi
; File C:\IAGOS\server\v18\Source\Source\_Common\Mover.h

; 823  : 	CItemElem*	GetVisPetItem( void )	{ return m_Inventory.GetAtId( m_objIdVisPet ); }

  0001d	ff b6 a0 10 00
	00		 push	 DWORD PTR [esi+4256]
  00023	8d 8e fc 0a 00
	00		 lea	 ecx, DWORD PTR [esi+2812]
  00029	e8 00 00 00 00	 call	 ?GetAtId@?$CItemContainer@VCItemElem@@@@QAEPAVCItemElem@@K@Z ; CItemContainer<CItemElem>::GetAtId
; File C:\IAGOS\server\v18\Source\Source\WorldServer\ItemUpgrade.cpp

; 2172 : 	CItemElem* pItemElemPet = pUser->GetVisPetItem();

  0002e	8b f8		 mov	 edi, eax

; 2173 : 	if( !IsUsableItem( pItemElemPet ) )

  00030	57		 push	 edi
  00031	e8 00 00 00 00	 call	 ?IsUsableItem@@YAHPAVCItemBase@@@Z ; IsUsableItem
  00036	83 c4 04	 add	 esp, 4
  00039	85 c0		 test	 eax, eax
  0003b	0f 84 8d 00 00
	00		 je	 $LN25@RemovePetV
; File C:\IAGOS\server\v18\Source\Source\_Common\Item.h

; 105  : 	DWORD	GetPiercingItem( int nth )	{	return m_piercing.GetPiercingItem( nth );	}

  00041	ff 75 0c	 push	 DWORD PTR _nPosition$[ebp]
  00044	8d 4f 3c	 lea	 ecx, DWORD PTR [edi+60]
  00047	e8 00 00 00 00	 call	 ?GetPiercingItem@CPiercing@@QAEKH@Z ; CPiercing::GetPiercingItem
; File C:\IAGOS\server\v18\Source\Source\WorldServer\ItemUpgrade.cpp

; 2176 : 	DWORD dwItemId = pItemElemPet->GetPiercingItem( nPosition );

  0004c	89 45 08	 mov	 DWORD PTR _dwItemId$1$[ebp], eax

; 2177 : 	if( dwItemId  == 0 )	// └╠╣╠ ║±ŠŅ└ų┤┬ ĮĮĘį

  0004f	85 c0		 test	 eax, eax
  00051	74 7b		 je	 SHORT $LN25@RemovePetV

; 2178 : 		return;
; 2179 : 
; 2180 : 	pUser->ResetPetVisDST( pItemElemPet );

  00053	57		 push	 edi
  00054	8b ce		 mov	 ecx, esi
  00056	e8 00 00 00 00	 call	 ?ResetPetVisDST@CMover@@QAEXPAVCItemElem@@@Z ; CMover::ResetPetVisDST

; 2181 : 	if( bExpired )
; 2182 : 		PutPetVisItemLog( pUser, "$", "VIS_REMOVE_EXPIRED", pItemElemPet, nPosition );
; 2183 : 	else
; 2184 : 		PutPetVisItemLog( pUser, "$", "VIS_REMOVE_BYUSER", pItemElemPet, nPosition );
; 2185 : 	pUser->UpdateItem( (BYTE)( pItemElemPet->m_dwObjId ), UI_PETVIS_ITEM, MAKELONG( nPosition, 0 ), 0 ); // Ūž┤ń ĮĮĘį└╗ ║±┐Ņ┤┘.

  0005b	ff 75 0c	 push	 DWORD PTR _nPosition$[ebp]
  0005e	83 7d 10 00	 cmp	 DWORD PTR _bExpired$[ebp], 0
  00062	b8 00 00 00 00	 mov	 eax, OFFSET ??_C@_0BD@EOJLJBKF@VIS_REMOVE_EXPIRED@
  00067	57		 push	 edi
  00068	b9 00 00 00 00	 mov	 ecx, OFFSET ??_C@_0BC@LPGJAKI@VIS_REMOVE_BYUSER@
  0006d	0f 45 c8	 cmovne	 ecx, eax
  00070	51		 push	 ecx
  00071	68 00 00 00 00	 push	 OFFSET ??_C@_01EPMOAMKG@$@
  00076	56		 push	 esi
  00077	8b cb		 mov	 ecx, ebx
  00079	e8 00 00 00 00	 call	 ?PutPetVisItemLog@CItemUpgrade@@QAEXPAVCUser@@PBD1PAVCItemElem@@H@Z ; CItemUpgrade::PutPetVisItemLog
  0007e	8b 45 0c	 mov	 eax, DWORD PTR _nPosition$[ebp]
  00081	8b ce		 mov	 ecx, esi
  00083	6a 00		 push	 0
  00085	0f b7 c0	 movzx	 eax, ax
  00088	50		 push	 eax
  00089	0f b6 47 04	 movzx	 eax, BYTE PTR [edi+4]
  0008d	6a 10		 push	 16			; 00000010H
  0008f	50		 push	 eax
  00090	e8 00 00 00 00	 call	 ?UpdateItem@CMover@@QAEXEDKK@Z ; CMover::UpdateItem

; 2186 : 	ItemProp* pItemProp = prj.GetItemProp( dwItemId );

  00095	ff 75 08	 push	 DWORD PTR _dwItemId$1$[ebp]
  00098	b9 00 00 00 00	 mov	 ecx, OFFSET ?prj@@3VCProject@@A ; prj
  0009d	e8 00 00 00 00	 call	 ?GetItemProp@CProject@@QAEPAUItemProp@@H@Z ; CProject::GetItemProp

; 2187 : 	if( pItemProp )

  000a2	85 c0		 test	 eax, eax
  000a4	74 17		 je	 SHORT $LN7@RemovePetV

; 2188 : 		pUser->AddDefinedText( TID_GAME_BUFFPET_REMOVEVIS, "\"%s\"", pItemProp->szName );

  000a6	83 c0 04	 add	 eax, 4
  000a9	50		 push	 eax
  000aa	68 00 00 00 00	 push	 OFFSET ??_C@_04OEDFLLKD@?$CC?$CFs?$CC@
  000af	68 81 10 00 00	 push	 4225			; 00001081H
  000b4	56		 push	 esi
  000b5	e8 00 00 00 00	 call	 ?AddDefinedText@CUser@@QAAXHPBDZZ ; CUser::AddDefinedText
  000ba	83 c4 10	 add	 esp, 16			; 00000010H
$LN7@RemovePetV:

; 2189 : 	pUser->SetPetVisDST( pItemElemPet );

  000bd	57		 push	 edi
  000be	8b ce		 mov	 ecx, esi
  000c0	e8 00 00 00 00	 call	 ?SetPetVisDST@CMover@@QAEXPAVCItemElem@@@Z ; CMover::SetPetVisDST

; 2190 : 	ChangeVisPetSfx( pUser, pItemElemPet );

  000c5	57		 push	 edi
  000c6	56		 push	 esi
  000c7	8b cb		 mov	 ecx, ebx
  000c9	e8 00 00 00 00	 call	 ?ChangeVisPetSfx@CItemUpgrade@@QAEXPAVCUser@@PAVCItemElem@@@Z ; CItemUpgrade::ChangeVisPetSfx
$LN25@RemovePetV:
  000ce	5f		 pop	 edi
$LN1@RemovePetV:
  000cf	5e		 pop	 esi

; 2191 : }

  000d0	5b		 pop	 ebx
  000d1	5d		 pop	 ebp
  000d2	c2 0c 00	 ret	 12			; 0000000cH
?RemovePetVisItem@CItemUpgrade@@QAEXPAVCUser@@HH@Z ENDP	; CItemUpgrade::RemovePetVisItem
_TEXT	ENDS
; Function compile flags: /Ogtp
; File C:\IAGOS\server\v18\Source\Source\WorldServer\ItemUpgrade.cpp
; File C:\IAGOS\server\v18\Source\Source\_Common\Obj.h
; File C:\IAGOS\server\v18\Source\Source\WorldServer\ItemUpgrade.cpp
; File C:\IAGOS\server\v18\Source\Source\_Common\Obj.h
; File C:\IAGOS\server\v18\Source\Source\_Common\Mover.h
; File C:\IAGOS\server\v18\Source\Source\WorldServer\ItemUpgrade.cpp
; File C:\IAGOS\server\v18\Source\Source\_Common\Item.h
; File C:\IAGOS\server\v18\Source\Source\WorldServer\ItemUpgrade.cpp
; File C:\IAGOS\server\v18\Source\Source\_Common\Item.h
; File C:\IAGOS\server\v18\Source\Source\WorldServer\ItemUpgrade.cpp
; File C:\IAGOS\server\v18\Source\Source\_Common\Item.h
; File C:\IAGOS\server\v18\Source\Source\WorldServer\ItemUpgrade.cpp
; File C:\IAGOS\server\v18\Source\Source\_Common\Item.h
; File C:\IAGOS\server\v18\Source\Source\WorldServer\ItemUpgrade.cpp
; File C:\IAGOS\server\v18\Source\Source\_Common\Item.h
; File C:\IAGOS\server\v18\Source\Source\WorldServer\ItemUpgrade.cpp
; File C:\IAGOS\server\v18\Source\Source\_Common\Item.h
; File C:\IAGOS\server\v18\Source\Source\WorldServer\ItemUpgrade.cpp
;	COMDAT ?SetPetVisItem@CItemUpgrade@@QAEXPAVCUser@@K@Z
_TEXT	SEGMENT
_this$1$ = -16						; size = 4
_pItemElemVis$1$ = -12					; size = 4
_pItemElemPet$1$ = -8					; size = 4
tv337 = -4						; size = 4
_pUser$ = 8						; size = 4
_pVisProp$1$ = 8					; size = 4
_objIdVis$ = 12						; size = 4
?SetPetVisItem@CItemUpgrade@@QAEXPAVCUser@@K@Z PROC	; CItemUpgrade::SetPetVisItem, COMDAT
; _this$ = ecx

; 2106 : {

  00000	55		 push	 ebp
  00001	8b ec		 mov	 ebp, esp
  00003	83 ec 10	 sub	 esp, 16			; 00000010H
  00006	57		 push	 edi
; File C:\IAGOS\server\v18\Source\Source\_Common\Obj.h

; 327  : 	return pObj && ( pObj->IsDelete() == FALSE ); 

  00007	8b 7d 08	 mov	 edi, DWORD PTR _pUser$[ebp]
; File C:\IAGOS\server\v18\Source\Source\WorldServer\ItemUpgrade.cpp

; 2106 : {

  0000a	89 4d f0	 mov	 DWORD PTR _this$1$[ebp], ecx
; File C:\IAGOS\server\v18\Source\Source\_Common\Obj.h

; 327  : 	return pObj && ( pObj->IsDelete() == FALSE ); 

  0000d	85 ff		 test	 edi, edi
  0000f	0f 84 d6 01 00
	00		 je	 $LN1@SetPetVisI

; 180  : 	BOOL			IsDelete()	{ return (m_dwFlags & OBJ_FLAG_DELETE);  }

  00015	f6 47 04 01	 test	 BYTE PTR [edi+4], 1

; 327  : 	return pObj && ( pObj->IsDelete() == FALSE ); 

  00019	0f 85 cc 01 00
	00		 jne	 $LN1@SetPetVisI
  0001f	53		 push	 ebx
  00020	56		 push	 esi
; File C:\IAGOS\server\v18\Source\Source\_Common\Mover.h

; 823  : 	CItemElem*	GetVisPetItem( void )	{ return m_Inventory.GetAtId( m_objIdVisPet ); }

  00021	ff b7 a0 10 00
	00		 push	 DWORD PTR [edi+4256]
  00027	8d 8f fc 0a 00
	00		 lea	 ecx, DWORD PTR [edi+2812]
  0002d	e8 00 00 00 00	 call	 ?GetAtId@?$CItemContainer@VCItemElem@@@@QAEPAVCItemElem@@K@Z ; CItemContainer<CItemElem>::GetAtId
; File C:\IAGOS\server\v18\Source\Source\WorldServer\ItemUpgrade.cpp

; 2111 : 	CItemElem* pItemElemVis = pUser->m_Inventory.GetAtId( objIdVis );

  00032	ff 75 0c	 push	 DWORD PTR _objIdVis$[ebp]
  00035	8b d8		 mov	 ebx, eax
  00037	8d 8f fc 0a 00
	00		 lea	 ecx, DWORD PTR [edi+2812]
  0003d	89 5d f8	 mov	 DWORD PTR _pItemElemPet$1$[ebp], ebx
  00040	e8 00 00 00 00	 call	 ?GetAtId@?$CItemContainer@VCItemElem@@@@QAEPAVCItemElem@@K@Z ; CItemContainer<CItemElem>::GetAtId
  00045	8b f0		 mov	 esi, eax

; 2112 : 
; 2113 : 	if( !IsUsableItem( pItemElemPet ) )

  00047	53		 push	 ebx
  00048	89 75 f4	 mov	 DWORD PTR _pItemElemVis$1$[ebp], esi
  0004b	e8 00 00 00 00	 call	 ?IsUsableItem@@YAHPAVCItemBase@@@Z ; IsUsableItem
  00050	83 c4 04	 add	 esp, 4
  00053	85 c0		 test	 eax, eax
  00055	75 15		 jne	 SHORT $LN6@SetPetVisI

; 2114 : 	{
; 2115 : 		pUser->AddDefinedText( TID_GAME_BUFFPET_NOSUMMON01 );

  00057	68 7d 10 00 00	 push	 4221			; 0000107dH

; 2144 : 	{
; 2145 : 		pUser->AddDefinedText( TID_GAME_BUFFPET_LACKSLOT );

  0005c	8b cf		 mov	 ecx, edi
  0005e	e8 00 00 00 00	 call	 ?AddDefinedText@CUser@@QAEXH@Z ; CUser::AddDefinedText
  00063	5e		 pop	 esi
  00064	5b		 pop	 ebx
  00065	5f		 pop	 edi

; 2165 : }

  00066	8b e5		 mov	 esp, ebp
  00068	5d		 pop	 ebp
  00069	c2 08 00	 ret	 8
$LN6@SetPetVisI:

; 2116 : 		return;
; 2117 : 	}
; 2118 : 		
; 2119 : 	if( !IsUsableItem( pItemElemVis ) )

  0006c	56		 push	 esi
  0006d	e8 00 00 00 00	 call	 ?IsUsableItem@@YAHPAVCItemBase@@@Z ; IsUsableItem
  00072	83 c4 04	 add	 esp, 4
  00075	85 c0		 test	 eax, eax
  00077	0f 84 6c 01 00
	00		 je	 $LN48@SetPetVisI

; 2120 : 		return;
; 2121 : 
; 2122 : 	ItemProp* pVisProp = prj.GetItemProp( pItemElemVis->m_dwItemId );

  0007d	ff 76 0c	 push	 DWORD PTR [esi+12]
  00080	b9 00 00 00 00	 mov	 ecx, OFFSET ?prj@@3VCProject@@A ; prj
  00085	e8 00 00 00 00	 call	 ?GetItemProp@CProject@@QAEPAUItemProp@@H@Z ; CProject::GetItemProp
  0008a	89 45 08	 mov	 DWORD PTR _pVisProp$1$[ebp], eax

; 2123 : 	if( !pVisProp )

  0008d	85 c0		 test	 eax, eax
  0008f	0f 84 54 01 00
	00		 je	 $LN48@SetPetVisI

; 2124 : 		return;
; 2125 : 
; 2126 : 	if( !pItemElemPet->IsPierceAble( pVisProp->dwItemKind3 ) )	// ║±Į║ └Õ┬° ░Ī┤╔ ░╦╗ń.

  00095	6a 00		 push	 0
  00097	ff 70 78	 push	 DWORD PTR [eax+120]
  0009a	8b cb		 mov	 ecx, ebx
  0009c	e8 00 00 00 00	 call	 ?IsPierceAble@CItemElem@@QAEHKH@Z ; CItemElem::IsPierceAble
  000a1	85 c0		 test	 eax, eax
  000a3	0f 84 40 01 00
	00		 je	 $LN48@SetPetVisI
; File C:\IAGOS\server\v18\Source\Source\_Common\Item.h

; 103  : 	int		GetPiercingSize()	{	return m_piercing.GetPiercingSize();		}

  000a9	8b 45 f8	 mov	 eax, DWORD PTR _pItemElemPet$1$[ebp]
; File C:\IAGOS\server\v18\Source\Source\WorldServer\ItemUpgrade.cpp

; 2129 : 	int nFirstEmptySlot = NULL_ID;

  000ac	83 ce ff	 or	 esi, -1
; File C:\IAGOS\server\v18\Source\Source\_Common\Item.h

; 103  : 	int		GetPiercingSize()	{	return m_piercing.GetPiercingSize();		}

  000af	83 c0 3c	 add	 eax, 60			; 0000003cH
; File C:\IAGOS\server\v18\Source\Source\WorldServer\ItemUpgrade.cpp

; 2130 : 	for( int i=0; i<pItemElemPet->GetPiercingSize(); i++ )

  000b2	33 db		 xor	 ebx, ebx
; File C:\IAGOS\server\v18\Source\Source\_Common\Item.h

; 103  : 	int		GetPiercingSize()	{	return m_piercing.GetPiercingSize();		}

  000b4	8b c8		 mov	 ecx, eax
  000b6	89 45 fc	 mov	 DWORD PTR tv337[ebp], eax
  000b9	e8 00 00 00 00	 call	 ?GetPiercingSize@CPiercing@@QAEHXZ ; CPiercing::GetPiercingSize
; File C:\IAGOS\server\v18\Source\Source\WorldServer\ItemUpgrade.cpp

; 2130 : 	for( int i=0; i<pItemElemPet->GetPiercingSize(); i++ )

  000be	85 c0		 test	 eax, eax
  000c0	0f 8e 17 01 00
	00		 jle	 $LN33@SetPetVisI
$LL4@SetPetVisI:
; File C:\IAGOS\server\v18\Source\Source\_Common\Item.h

; 105  : 	DWORD	GetPiercingItem( int nth )	{	return m_piercing.GetPiercingItem( nth );	}

  000c6	8b 4d fc	 mov	 ecx, DWORD PTR tv337[ebp]
  000c9	53		 push	 ebx
  000ca	e8 00 00 00 00	 call	 ?GetPiercingItem@CPiercing@@QAEKH@Z ; CPiercing::GetPiercingItem
; File C:\IAGOS\server\v18\Source\Source\WorldServer\ItemUpgrade.cpp

; 2133 : 		if( dwVisId == pVisProp->dwID )	// └╠╣╠ ░░└║ ┴ŠĘ∙└Ū ║±Į║░Ī └Õ┬°ĄŪŠŅ └ų┤┘.

  000cf	8b 4d 08	 mov	 ecx, DWORD PTR _pVisProp$1$[ebp]
  000d2	3b 01		 cmp	 eax, DWORD PTR [ecx]
  000d4	0f 84 ee 00 00
	00		 je	 $LN29@SetPetVisI

; 2136 : 			return;
; 2137 : 		}
; 2138 : 
; 2139 : 		if( nFirstEmptySlot == NULL_ID && dwVisId == 0 )

  000da	83 fe ff	 cmp	 esi, -1
  000dd	75 05		 jne	 SHORT $LN2@SetPetVisI
  000df	85 c0		 test	 eax, eax
  000e1	0f 44 f3	 cmove	 esi, ebx
$LN2@SetPetVisI:
; File C:\IAGOS\server\v18\Source\Source\_Common\Item.h

; 103  : 	int		GetPiercingSize()	{	return m_piercing.GetPiercingSize();		}

  000e4	8b 4d fc	 mov	 ecx, DWORD PTR tv337[ebp]
; File C:\IAGOS\server\v18\Source\Source\WorldServer\ItemUpgrade.cpp

; 2130 : 	for( int i=0; i<pItemElemPet->GetPiercingSize(); i++ )

  000e7	43		 inc	 ebx
; File C:\IAGOS\server\v18\Source\Source\_Common\Item.h

; 103  : 	int		GetPiercingSize()	{	return m_piercing.GetPiercingSize();		}

  000e8	e8 00 00 00 00	 call	 ?GetPiercingSize@CPiercing@@QAEHXZ ; CPiercing::GetPiercingSize
; File C:\IAGOS\server\v18\Source\Source\WorldServer\ItemUpgrade.cpp

; 2130 : 	for( int i=0; i<pItemElemPet->GetPiercingSize(); i++ )

  000ed	3b d8		 cmp	 ebx, eax
  000ef	7c d5		 jl	 SHORT $LL4@SetPetVisI

; 2140 : 			nFirstEmptySlot = i;
; 2141 : 	}
; 2142 : 
; 2143 : 	if( nFirstEmptySlot == NULL_ID )	// ║±ŠŅ└ų┤┬ ║±Į║ ĮĮĘį└╠ Š°┤┘.

  000f1	83 fe ff	 cmp	 esi, -1
  000f4	0f 84 e3 00 00
	00		 je	 $LN33@SetPetVisI

; 2146 : 		return;
; 2147 : 	}
; 2148 : 
; 2149 : 	if( pUser->IsSatisfyNeedVis( pItemElemPet, pVisProp ) != SUCCSESS_NEEDVIS )

  000fa	ff 75 08	 push	 DWORD PTR _pVisProp$1$[ebp]
  000fd	8b 5d f8	 mov	 ebx, DWORD PTR _pItemElemPet$1$[ebp]
  00100	8b cf		 mov	 ecx, edi
  00102	53		 push	 ebx
  00103	e8 00 00 00 00	 call	 ?IsSatisfyNeedVis@CMover@@QAEEPAVCItemElem@@PAUItemProp@@@Z ; CMover::IsSatisfyNeedVis
  00108	8b cf		 mov	 ecx, edi
  0010a	3c 03		 cmp	 al, 3
  0010c	74 13		 je	 SHORT $LN13@SetPetVisI

; 2150 : 	{
; 2151 : 		pUser->AddDefinedText( TID_GAME_BUFFPET_REQVIS );

  0010e	68 80 10 00 00	 push	 4224			; 00001080H
  00113	e8 00 00 00 00	 call	 ?AddDefinedText@CUser@@QAEXH@Z ; CUser::AddDefinedText
  00118	5e		 pop	 esi
  00119	5b		 pop	 ebx
  0011a	5f		 pop	 edi

; 2165 : }

  0011b	8b e5		 mov	 esp, ebp
  0011d	5d		 pop	 ebp
  0011e	c2 08 00	 ret	 8
$LN13@SetPetVisI:

; 2152 : 		return;
; 2153 : 	}
; 2154 : 
; 2155 : 	
; 2156 : 	pUser->ResetPetVisDST( pItemElemPet );

  00121	53		 push	 ebx
  00122	e8 00 00 00 00	 call	 ?ResetPetVisDST@CMover@@QAEXPAVCItemElem@@@Z ; CMover::ResetPetVisDST

; 2157 : 	pUser->UpdateItem( (BYTE)( pItemElemPet->m_dwObjId ), UI_PETVIS_ITEM, MAKELONG( nFirstEmptySlot, pItemElemVis->m_dwItemId ), pVisProp->dwAbilityMin );

  00127	8b 45 08	 mov	 eax, DWORD PTR _pVisProp$1$[ebp]
  0012a	ff b0 e4 00 00
	00		 push	 DWORD PTR [eax+228]
  00130	8b 45 f4	 mov	 eax, DWORD PTR _pItemElemVis$1$[ebp]
  00133	0f b7 48 0c	 movzx	 ecx, WORD PTR [eax+12]
  00137	c1 e1 10	 shl	 ecx, 16			; 00000010H
  0013a	0f b7 c6	 movzx	 eax, si
  0013d	0b c8		 or	 ecx, eax
  0013f	0f b6 43 04	 movzx	 eax, BYTE PTR [ebx+4]
  00143	51		 push	 ecx
  00144	6a 10		 push	 16			; 00000010H
  00146	50		 push	 eax
  00147	8b cf		 mov	 ecx, edi
  00149	e8 00 00 00 00	 call	 ?UpdateItem@CMover@@QAEXEDKK@Z ; CMover::UpdateItem

; 2158 : 	PutPetVisItemLog( pUser, "!", "VIS_MATERIAL", pItemElemPet, nFirstEmptySlot );

  0014e	56		 push	 esi
  0014f	8b 75 f0	 mov	 esi, DWORD PTR _this$1$[ebp]
  00152	8b ce		 mov	 ecx, esi
  00154	53		 push	 ebx
  00155	68 00 00 00 00	 push	 OFFSET ??_C@_0N@JGNDKGOK@VIS_MATERIAL@
  0015a	68 00 00 00 00	 push	 OFFSET ??_C@_01DCLJPIOD@?$CB@
  0015f	57		 push	 edi
  00160	e8 00 00 00 00	 call	 ?PutPetVisItemLog@CItemUpgrade@@QAEXPAVCUser@@PBD1PAVCItemElem@@H@Z ; CItemUpgrade::PutPetVisItemLog

; 2159 : 	if( pItemElemVis->m_bCharged )		// ╗¾┐ļ╚Ł ŠŲ└╠┼█ Ę╬▒ū

  00165	8b 45 f4	 mov	 eax, DWORD PTR _pItemElemVis$1$[ebp]
  00168	83 b8 a4 00 00
	00 00		 cmp	 DWORD PTR [eax+164], 0
  0016f	74 19		 je	 SHORT $LN14@SetPetVisI

; 2160 : 		g_dpDBClient.SendLogSMItemUse( "1", pUser, pItemElemVis, pVisProp );		

  00171	68 00 00 00 00	 push	 OFFSET ??_C@_00CNPNBAHC@@
  00176	ff 75 08	 push	 DWORD PTR _pVisProp$1$[ebp]
  00179	b9 00 00 00 00	 mov	 ecx, OFFSET ?g_dpDBClient@@3VCDPDatabaseClient@@A ; g_dpDBClient
  0017e	50		 push	 eax
  0017f	57		 push	 edi
  00180	68 00 00 00 00	 push	 OFFSET ??_C@_01HIHLOKLC@1@
  00185	e8 00 00 00 00	 call	 ?SendLogSMItemUse@CDPDatabaseClient@@QAEXPBDPAVCUser@@PAVCItemElem@@PAUItemProp@@0@Z ; CDPDatabaseClient::SendLogSMItemUse
$LN14@SetPetVisI:

; 2161 : 	g_DPSrvr.PutItemLog( pUser, "$", "VIS_PIERCING", pItemElemPet );

  0018a	6a 00		 push	 0
  0018c	53		 push	 ebx
  0018d	68 00 00 00 00	 push	 OFFSET ??_C@_0N@HCOLJNOE@VIS_PIERCING@
  00192	68 00 00 00 00	 push	 OFFSET ??_C@_01EPMOAMKG@$@
  00197	57		 push	 edi
  00198	b9 00 00 00 00	 mov	 ecx, OFFSET ?g_DPSrvr@@3VCDPSrvr@@A ; g_DPSrvr
  0019d	e8 00 00 00 00	 call	 ?PutItemLog@CDPSrvr@@QAEXPAVCUser@@PBD1PAVCItemElem@@H@Z ; CDPSrvr::PutItemLog

; 2162 : 	pUser->RemoveItem( (BYTE)( objIdVis ), 1 );

  001a2	6a 01		 push	 1
  001a4	ff 75 0c	 push	 DWORD PTR _objIdVis$[ebp]
  001a7	8b cf		 mov	 ecx, edi
  001a9	e8 00 00 00 00	 call	 ?RemoveItem@CMover@@QAEXEF@Z ; CMover::RemoveItem

; 2163 : 	pUser->SetPetVisDST( pItemElemPet );

  001ae	53		 push	 ebx
  001af	8b cf		 mov	 ecx, edi
  001b1	e8 00 00 00 00	 call	 ?SetPetVisDST@CMover@@QAEXPAVCItemElem@@@Z ; CMover::SetPetVisDST

; 2164 : 	ChangeVisPetSfx( pUser, pItemElemPet );

  001b6	53		 push	 ebx
  001b7	57		 push	 edi
  001b8	8b ce		 mov	 ecx, esi
  001ba	e8 00 00 00 00	 call	 ?ChangeVisPetSfx@CItemUpgrade@@QAEXPAVCUser@@PAVCItemElem@@@Z ; CItemUpgrade::ChangeVisPetSfx
  001bf	5e		 pop	 esi
  001c0	5b		 pop	 ebx
  001c1	5f		 pop	 edi

; 2165 : }

  001c2	8b e5		 mov	 esp, ebp
  001c4	5d		 pop	 ebp
  001c5	c2 08 00	 ret	 8
$LN29@SetPetVisI:

; 2134 : 		{
; 2135 : 			pUser->AddDefinedText( TID_GAME_BUFFPET_EQUIPVIS );

  001c8	68 7f 10 00 00	 push	 4223			; 0000107fH

; 2144 : 	{
; 2145 : 		pUser->AddDefinedText( TID_GAME_BUFFPET_LACKSLOT );

  001cd	8b cf		 mov	 ecx, edi
  001cf	e8 00 00 00 00	 call	 ?AddDefinedText@CUser@@QAEXH@Z ; CUser::AddDefinedText
  001d4	5e		 pop	 esi
  001d5	5b		 pop	 ebx
  001d6	5f		 pop	 edi

; 2165 : }

  001d7	8b e5		 mov	 esp, ebp
  001d9	5d		 pop	 ebp
  001da	c2 08 00	 ret	 8
$LN33@SetPetVisI:

; 2144 : 	{
; 2145 : 		pUser->AddDefinedText( TID_GAME_BUFFPET_LACKSLOT );

  001dd	68 7e 10 00 00	 push	 4222			; 0000107eH
  001e2	8b cf		 mov	 ecx, edi
  001e4	e8 00 00 00 00	 call	 ?AddDefinedText@CUser@@QAEXH@Z ; CUser::AddDefinedText
$LN48@SetPetVisI:
  001e9	5e		 pop	 esi
  001ea	5b		 pop	 ebx
$LN1@SetPetVisI:
  001eb	5f		 pop	 edi

; 2165 : }

  001ec	8b e5		 mov	 esp, ebp
  001ee	5d		 pop	 ebp
  001ef	c2 08 00	 ret	 8
?SetPetVisItem@CItemUpgrade@@QAEXPAVCUser@@K@Z ENDP	; CItemUpgrade::SetPetVisItem
_TEXT	ENDS
; Function compile flags: /Ogtp
; File C:\IAGOS\server\v18\Source\Source\WorldServer\ItemUpgrade.cpp
; File C:\IAGOS\server\v18\Source\Source\_Common\Obj.h
; File C:\IAGOS\server\v18\Source\Source\_Common\Mover.h
; File C:\IAGOS\server\v18\Source\Source\WorldServer\ItemUpgrade.cpp
; File C:\IAGOS\server\v18\Source\Source\_Common\Item.h
; File C:\IAGOS\server\v18\Source\Source\WorldServer\ItemUpgrade.cpp
;	COMDAT ?PetVisSize@CItemUpgrade@@QAEXPAVCUser@@K@Z
_TEXT	SEGMENT
_pUser$ = 8						; size = 4
_objIdMaterial$ = 12					; size = 4
?PetVisSize@CItemUpgrade@@QAEXPAVCUser@@K@Z PROC	; CItemUpgrade::PetVisSize, COMDAT
; _this$ = ecx

; 2071 : {

  00000	55		 push	 ebp
  00001	8b ec		 mov	 ebp, esp
  00003	57		 push	 edi
; File C:\IAGOS\server\v18\Source\Source\_Common\Obj.h

; 327  : 	return pObj && ( pObj->IsDelete() == FALSE ); 

  00004	8b 7d 08	 mov	 edi, DWORD PTR _pUser$[ebp]
  00007	85 ff		 test	 edi, edi
  00009	0f 84 21 01 00
	00		 je	 $LN1@PetVisSize

; 180  : 	BOOL			IsDelete()	{ return (m_dwFlags & OBJ_FLAG_DELETE);  }

  0000f	f6 47 04 01	 test	 BYTE PTR [edi+4], 1

; 327  : 	return pObj && ( pObj->IsDelete() == FALSE ); 

  00013	0f 85 17 01 00
	00		 jne	 $LN1@PetVisSize
  00019	53		 push	 ebx
  0001a	56		 push	 esi
; File C:\IAGOS\server\v18\Source\Source\_Common\Mover.h

; 823  : 	CItemElem*	GetVisPetItem( void )	{ return m_Inventory.GetAtId( m_objIdVisPet ); }

  0001b	ff b7 a0 10 00
	00		 push	 DWORD PTR [edi+4256]
  00021	8d 8f fc 0a 00
	00		 lea	 ecx, DWORD PTR [edi+2812]
  00027	e8 00 00 00 00	 call	 ?GetAtId@?$CItemContainer@VCItemElem@@@@QAEPAVCItemElem@@K@Z ; CItemContainer<CItemElem>::GetAtId
; File C:\IAGOS\server\v18\Source\Source\WorldServer\ItemUpgrade.cpp

; 2076 : 	CItemElem* pItemElemMaterial = pUser->m_Inventory.GetAtId( objIdMaterial );

  0002c	ff 75 0c	 push	 DWORD PTR _objIdMaterial$[ebp]
  0002f	8d 8f fc 0a 00
	00		 lea	 ecx, DWORD PTR [edi+2812]
  00035	8b d8		 mov	 ebx, eax
  00037	e8 00 00 00 00	 call	 ?GetAtId@?$CItemContainer@VCItemElem@@@@QAEPAVCItemElem@@K@Z ; CItemContainer<CItemElem>::GetAtId

; 2077 : 
; 2078 : 	if( !IsUsableItem( pItemElemPet ) || !pItemElemPet->IsVisPet() )

  0003c	53		 push	 ebx
  0003d	8b f0		 mov	 esi, eax
  0003f	e8 00 00 00 00	 call	 ?IsUsableItem@@YAHPAVCItemBase@@@Z ; IsUsableItem
  00044	83 c4 04	 add	 esp, 4
  00047	85 c0		 test	 eax, eax
  00049	0f 84 d3 00 00
	00		 je	 $LN4@PetVisSize
  0004f	8b cb		 mov	 ecx, ebx
  00051	e8 00 00 00 00	 call	 ?IsVisPet@CItemElem@@QAEHXZ ; CItemElem::IsVisPet
  00056	85 c0		 test	 eax, eax
  00058	0f 84 c4 00 00
	00		 je	 $LN4@PetVisSize

; 2081 : 		return;
; 2082 : 	}
; 2083 : 
; 2084 : 	if( !IsUsableItem( pItemElemMaterial ) )

  0005e	56		 push	 esi
  0005f	e8 00 00 00 00	 call	 ?IsUsableItem@@YAHPAVCItemBase@@@Z ; IsUsableItem
  00064	83 c4 04	 add	 esp, 4
  00067	85 c0		 test	 eax, eax
  00069	0f 84 bf 00 00
	00		 je	 $LN29@PetVisSize

; 2085 : 		return;
; 2086 : 
; 2087 : 	if( pItemElemMaterial->m_dwItemId != II_SYS_SYS_VIS_KEY01 )

  0006f	81 7e 0c e7 68
	00 00		 cmp	 DWORD PTR [esi+12], 26855 ; 000068e7H
  00076	0f 85 b2 00 00
	00		 jne	 $LN29@PetVisSize

; 2088 : 		return;
; 2089 : 
; 2090 : 
; 2091 : 	if( !pItemElemPet->IsPierceAble( NULL_ID, TRUE ) ) // ║±Į║ ĮĮĘį ╚«└Õ ░Ī┤╔ ░╦╗ń

  0007c	6a 01		 push	 1
  0007e	6a ff		 push	 -1
  00080	8b cb		 mov	 ecx, ebx
  00082	e8 00 00 00 00	 call	 ?IsPierceAble@CItemElem@@QAEHKH@Z ; CItemElem::IsPierceAble
  00087	85 c0		 test	 eax, eax
  00089	75 13		 jne	 SHORT $LN7@PetVisSize

; 2092 : 	{
; 2093 : 		pUser->AddDefinedText( TID_GAME_BUFFPET_EXPANSION );

  0008b	68 84 10 00 00	 push	 4228			; 00001084H
  00090	8b cf		 mov	 ecx, edi
  00092	e8 00 00 00 00	 call	 ?AddDefinedText@CUser@@QAEXH@Z ; CUser::AddDefinedText
  00097	5e		 pop	 esi
  00098	5b		 pop	 ebx
  00099	5f		 pop	 edi

; 2103 : }

  0009a	5d		 pop	 ebp
  0009b	c2 08 00	 ret	 8
$LN7@PetVisSize:

; 2094 : 		return;
; 2095 : 	}
; 2096 : 		
; 2097 : 	g_DPSrvr.PutItemLog( pUser, "!", "VIS_SLOT_MATERIAL", pItemElemMaterial );

  0009e	6a 00		 push	 0
  000a0	56		 push	 esi
  000a1	68 00 00 00 00	 push	 OFFSET ??_C@_0BC@HAKKJLBB@VIS_SLOT_MATERIAL@
  000a6	68 00 00 00 00	 push	 OFFSET ??_C@_01DCLJPIOD@?$CB@
  000ab	57		 push	 edi
  000ac	b9 00 00 00 00	 mov	 ecx, OFFSET ?g_DPSrvr@@3VCDPSrvr@@A ; g_DPSrvr
  000b1	e8 00 00 00 00	 call	 ?PutItemLog@CDPSrvr@@QAEXPAVCUser@@PBD1PAVCItemElem@@H@Z ; CDPSrvr::PutItemLog

; 2098 : 	if( pItemElemMaterial->m_bCharged )

  000b6	83 be a4 00 00
	00 00		 cmp	 DWORD PTR [esi+164], 0
  000bd	74 1e		 je	 SHORT $LN8@PetVisSize

; 2099 : 		g_dpDBClient.SendLogSMItemUse( "1", pUser, pItemElemMaterial, pItemElemMaterial->GetProp() );	

  000bf	68 00 00 00 00	 push	 OFFSET ??_C@_00CNPNBAHC@@
  000c4	8b ce		 mov	 ecx, esi
  000c6	e8 00 00 00 00	 call	 ?GetPropA@CItemElem@@QAEPAUItemProp@@XZ ; CItemElem::GetPropA
  000cb	50		 push	 eax
  000cc	56		 push	 esi
  000cd	57		 push	 edi
  000ce	68 00 00 00 00	 push	 OFFSET ??_C@_01HIHLOKLC@1@
  000d3	b9 00 00 00 00	 mov	 ecx, OFFSET ?g_dpDBClient@@3VCDPDatabaseClient@@A ; g_dpDBClient
  000d8	e8 00 00 00 00	 call	 ?SendLogSMItemUse@CDPDatabaseClient@@QAEXPBDPAVCUser@@PAVCItemElem@@PAUItemProp@@0@Z ; CDPDatabaseClient::SendLogSMItemUse
$LN8@PetVisSize:
; File C:\IAGOS\server\v18\Source\Source\_Common\Item.h

; 103  : 	int		GetPiercingSize()	{	return m_piercing.GetPiercingSize();		}

  000dd	8d 4b 3c	 lea	 ecx, DWORD PTR [ebx+60]
  000e0	e8 00 00 00 00	 call	 ?GetPiercingSize@CPiercing@@QAEHXZ ; CPiercing::GetPiercingSize
; File C:\IAGOS\server\v18\Source\Source\WorldServer\ItemUpgrade.cpp

; 2100 : 	pUser->UpdateItem( (BYTE)( pItemElemPet->m_dwObjId ), UI_PETVIS_SIZE, pItemElemPet->GetPiercingSize() + 1 );

  000e5	6a 00		 push	 0
  000e7	40		 inc	 eax
  000e8	8b cf		 mov	 ecx, edi
  000ea	50		 push	 eax
  000eb	0f b6 43 04	 movzx	 eax, BYTE PTR [ebx+4]
  000ef	6a 0f		 push	 15			; 0000000fH
  000f1	50		 push	 eax
  000f2	e8 00 00 00 00	 call	 ?UpdateItem@CMover@@QAEXEDKK@Z ; CMover::UpdateItem

; 2101 : 	g_DPSrvr.PutItemLog( pUser, "#", "VIS_SLOT_SIZE", pItemElemPet );

  000f7	6a 00		 push	 0
  000f9	53		 push	 ebx
  000fa	68 00 00 00 00	 push	 OFFSET ??_C@_0O@KOMGOEFL@VIS_SLOT_SIZE@
  000ff	68 00 00 00 00	 push	 OFFSET ??_C@_01IPJKGB@?$CD@
  00104	57		 push	 edi
  00105	b9 00 00 00 00	 mov	 ecx, OFFSET ?g_DPSrvr@@3VCDPSrvr@@A ; g_DPSrvr
  0010a	e8 00 00 00 00	 call	 ?PutItemLog@CDPSrvr@@QAEXPAVCUser@@PBD1PAVCItemElem@@H@Z ; CDPSrvr::PutItemLog

; 2102 : 	pUser->RemoveItem( (BYTE)( objIdMaterial ), 1 );

  0010f	6a 01		 push	 1
  00111	ff 75 0c	 push	 DWORD PTR _objIdMaterial$[ebp]
  00114	8b cf		 mov	 ecx, edi
  00116	e8 00 00 00 00	 call	 ?RemoveItem@CMover@@QAEXEF@Z ; CMover::RemoveItem
  0011b	5e		 pop	 esi
  0011c	5b		 pop	 ebx
  0011d	5f		 pop	 edi

; 2103 : }

  0011e	5d		 pop	 ebp
  0011f	c2 08 00	 ret	 8
$LN4@PetVisSize:

; 2079 : 	{
; 2080 : 		pUser->AddDefinedText( TID_GAME_BUFFPET_NOSUMMON02 );	

  00122	68 83 10 00 00	 push	 4227			; 00001083H
  00127	8b cf		 mov	 ecx, edi
  00129	e8 00 00 00 00	 call	 ?AddDefinedText@CUser@@QAEXH@Z ; CUser::AddDefinedText
$LN29@PetVisSize:
  0012e	5e		 pop	 esi
  0012f	5b		 pop	 ebx
$LN1@PetVisSize:
  00130	5f		 pop	 edi

; 2103 : }

  00131	5d		 pop	 ebp
  00132	c2 08 00	 ret	 8
?PetVisSize@CItemUpgrade@@QAEXPAVCUser@@K@Z ENDP	; CItemUpgrade::PetVisSize
_TEXT	ENDS
; Function compile flags: /Ogtp
; File C:\IAGOS\server\v18\Source\Source\WorldServer\ItemUpgrade.cpp
;	COMDAT ?CreateBarunaPiercing@CItemUpgrade@@QAEXPAVCUser@@PAVCItemElem@@111@Z
_TEXT	SEGMENT
_pUser$ = 8						; size = 4
_pItemMain$ = 12					; size = 4
_pRune$ = 16						; size = 4
_pScroll$ = 20						; size = 4
_pCrystal$ = 24						; size = 4
?CreateBarunaPiercing@CItemUpgrade@@QAEXPAVCUser@@PAVCItemElem@@111@Z PROC ; CItemUpgrade::CreateBarunaPiercing, COMDAT
; _this$ = ecx

; 1631 : 	return;
; 1632 : }

  00000	c2 14 00	 ret	 20			; 00000014H
?CreateBarunaPiercing@CItemUpgrade@@QAEXPAVCUser@@PAVCItemElem@@111@Z ENDP ; CItemUpgrade::CreateBarunaPiercing
_TEXT	ENDS
; Function compile flags: /Ogtp
;	COMDAT ??1?$map@HU__CHAOS_GEM@@U?$less@H@std@@V?$allocator@U?$pair@$$CBHU__CHAOS_GEM@@@std@@@3@@std@@QAE@XZ
_TEXT	SEGMENT
??1?$map@HU__CHAOS_GEM@@U?$less@H@std@@V?$allocator@U?$pair@$$CBHU__CHAOS_GEM@@@std@@@3@@std@@QAE@XZ PROC ; std::map<int,__CHAOS_GEM,std::less<int>,std::allocator<std::pair<int const ,__CHAOS_GEM> > >::~map<int,__CHAOS_GEM,std::less<int>,std::allocator<std::pair<int const ,__CHAOS_GEM> > >, COMDAT
; _this$ = ecx
  00000	e9 00 00 00 00	 jmp	 ??1?$_Tree@V?$_Tmap_traits@HU__CHAOS_GEM@@U?$less@H@std@@V?$allocator@U?$pair@$$CBHU__CHAOS_GEM@@@std@@@3@$0A@@std@@@std@@QAE@XZ ; std::_Tree<std::_Tmap_traits<int,__CHAOS_GEM,std::less<int>,std::allocator<std::pair<int const ,__CHAOS_GEM> >,0> >::~_Tree<std::_Tmap_traits<int,__CHAOS_GEM,std::less<int>,std::allocator<std::pair<int const ,__CHAOS_GEM> >,0> >
??1?$map@HU__CHAOS_GEM@@U?$less@H@std@@V?$allocator@U?$pair@$$CBHU__CHAOS_GEM@@@std@@@3@@std@@QAE@XZ ENDP ; std::map<int,__CHAOS_GEM,std::less<int>,std::allocator<std::pair<int const ,__CHAOS_GEM> > >::~map<int,__CHAOS_GEM,std::less<int>,std::allocator<std::pair<int const ,__CHAOS_GEM> > >
_TEXT	ENDS
; Function compile flags: /Ogtp
; File C:\Program Files\Microsoft Visual Studio\2022\Professional\VC\Tools\MSVC\14.44.35207\include\xtree
;	COMDAT ?_Insert_node@?$_Tree_val@U?$_Tree_simple_types@U?$pair@$$CBHU__CHAOS_GEM@@@std@@@std@@@std@@QAEPAU?$_Tree_node@U?$pair@$$CBHU__CHAOS_GEM@@@std@@PAX@2@U?$_Tree_id@PAU?$_Tree_node@U?$pair@$$CBHU__CHAOS_GEM@@@std@@PAX@std@@@2@QAU32@@Z
_TEXT	SEGMENT
__Head$1$ = -4						; size = 4
__Loc$ = 8						; size = 8
__Newnode$ = 16						; size = 4
?_Insert_node@?$_Tree_val@U?$_Tree_simple_types@U?$pair@$$CBHU__CHAOS_GEM@@@std@@@std@@@std@@QAEPAU?$_Tree_node@U?$pair@$$CBHU__CHAOS_GEM@@@std@@PAX@2@U?$_Tree_id@PAU?$_Tree_node@U?$pair@$$CBHU__CHAOS_GEM@@@std@@PAX@std@@@2@QAU32@@Z PROC ; std::_Tree_val<std::_Tree_simple_types<std::pair<int const ,__CHAOS_GEM> > >::_Insert_node, COMDAT
; _this$ = ecx

; 669  :     _Nodeptr _Insert_node(const _Tree_id<_Nodeptr> _Loc, const _Nodeptr _Newnode) noexcept {

  00000	55		 push	 ebp
  00001	8b ec		 mov	 ebp, esp
  00003	51		 push	 ecx

; 670  :         ++_Mysize;
; 671  :         const auto _Head  = _Myhead;
; 672  :         _Newnode->_Parent = _Loc._Parent;

  00004	8b 55 08	 mov	 edx, DWORD PTR __Loc$[ebp]
  00007	53		 push	 ebx
  00008	8b d9		 mov	 ebx, ecx
  0000a	57		 push	 edi
  0000b	8b 7d 10	 mov	 edi, DWORD PTR __Newnode$[ebp]
  0000e	8b 03		 mov	 eax, DWORD PTR [ebx]
  00010	ff 43 04	 inc	 DWORD PTR [ebx+4]
  00013	89 45 fc	 mov	 DWORD PTR __Head$1$[ebp], eax
  00016	89 57 04	 mov	 DWORD PTR [edi+4], edx

; 673  :         if (_Loc._Parent == _Head) { // first node in tree, just set head values

  00019	3b d0		 cmp	 edx, eax
  0001b	75 16		 jne	 SHORT $LN5@Insert_nod

; 674  :             _Head->_Left     = _Newnode;

  0001d	89 38		 mov	 DWORD PTR [eax], edi

; 675  :             _Head->_Parent   = _Newnode;

  0001f	89 78 04	 mov	 DWORD PTR [eax+4], edi

; 676  :             _Head->_Right    = _Newnode;

  00022	89 78 08	 mov	 DWORD PTR [eax+8], edi

; 735  :         return _Newnode;
; 736  :     }

  00025	8b c7		 mov	 eax, edi
  00027	c6 47 0c 01	 mov	 BYTE PTR [edi+12], 1
  0002b	5f		 pop	 edi
  0002c	5b		 pop	 ebx
  0002d	8b e5		 mov	 esp, ebp
  0002f	5d		 pop	 ebp
  00030	c2 0c 00	 ret	 12			; 0000000cH
$LN5@Insert_nod:

; 677  :             _Newnode->_Color = _Black; // the root is black
; 678  :             return _Newnode;
; 679  :         }
; 680  : 
; 681  :         _STL_INTERNAL_CHECK(_Loc._Child != _Tree_child::_Unused);
; 682  :         if (_Loc._Child == _Tree_child::_Right) { // add to right of _Loc._Parent

  00033	83 7d 0c 00	 cmp	 DWORD PTR __Loc$[ebp+4], 0
  00037	75 0d		 jne	 SHORT $LN6@Insert_nod

; 683  :             _STL_INTERNAL_CHECK(_Loc._Parent->_Right->_Isnil);
; 684  :             _Loc._Parent->_Right = _Newnode;

  00039	89 7a 08	 mov	 DWORD PTR [edx+8], edi

; 685  :             if (_Loc._Parent == _Head->_Right) { // remember rightmost node

  0003c	3b 50 08	 cmp	 edx, DWORD PTR [eax+8]
  0003f	75 0d		 jne	 SHORT $LN9@Insert_nod

; 686  :                 _Head->_Right = _Newnode;

  00041	89 78 08	 mov	 DWORD PTR [eax+8], edi

; 687  :             }
; 688  :         } else { // add to left of _Loc._Parent

  00044	eb 08		 jmp	 SHORT $LN9@Insert_nod
$LN6@Insert_nod:

; 689  :             _STL_INTERNAL_CHECK(_Loc._Parent->_Left->_Isnil);
; 690  :             _Loc._Parent->_Left = _Newnode;

  00046	89 3a		 mov	 DWORD PTR [edx], edi

; 691  :             if (_Loc._Parent == _Head->_Left) { // remember leftmost node

  00048	3b 10		 cmp	 edx, DWORD PTR [eax]
  0004a	75 02		 jne	 SHORT $LN9@Insert_nod

; 692  :                 _Head->_Left = _Newnode;

  0004c	89 38		 mov	 DWORD PTR [eax], edi
$LN9@Insert_nod:

; 693  :             }
; 694  :         }
; 695  : 
; 696  :         for (_Nodeptr _Pnode = _Newnode; _Pnode->_Parent->_Color == _Red;) {

  0004e	8b 4f 04	 mov	 ecx, DWORD PTR [edi+4]
  00051	8b c7		 mov	 eax, edi
  00053	80 79 0c 00	 cmp	 BYTE PTR [ecx+12], 0
  00057	0f 85 7d 01 00
	00		 jne	 $LN3@Insert_nod
  0005d	56		 push	 esi
  0005e	66 90		 npad	 2
$LL4@Insert_nod:

; 697  :             if (_Pnode->_Parent == _Pnode->_Parent->_Parent->_Left) { // fixup red-red in left subtree

  00060	8b 50 04	 mov	 edx, DWORD PTR [eax+4]
  00063	8b 72 04	 mov	 esi, DWORD PTR [edx+4]
  00066	8b 0e		 mov	 ecx, DWORD PTR [esi]
  00068	3b d1		 cmp	 edx, ecx
  0006a	0f 85 aa 00 00
	00		 jne	 $LN10@Insert_nod

; 698  :                 const auto _Parent_sibling = _Pnode->_Parent->_Parent->_Right;

  00070	8b 4e 08	 mov	 ecx, DWORD PTR [esi+8]

; 699  :                 if (_Parent_sibling->_Color == _Red) { // parent's sibling has two red children, blacken both

  00073	80 79 0c 00	 cmp	 BYTE PTR [ecx+12], 0
  00077	0f 84 a3 00 00
	00		 je	 $LN82@Insert_nod

; 700  :                     _Pnode->_Parent->_Color          = _Black;
; 701  :                     _Parent_sibling->_Color          = _Black;
; 702  :                     _Pnode->_Parent->_Parent->_Color = _Red;
; 703  :                     _Pnode                           = _Pnode->_Parent->_Parent;
; 704  :                 } else { // parent's sibling has red and black children
; 705  :                     if (_Pnode == _Pnode->_Parent->_Right) { // rotate right child to left

  0007d	8b 72 08	 mov	 esi, DWORD PTR [edx+8]
  00080	3b c6		 cmp	 eax, esi
  00082	75 37		 jne	 SHORT $LN57@Insert_nod

; 485  :         _Wherenode->_Right = _Pnode->_Left;

  00084	8b 0e		 mov	 ecx, DWORD PTR [esi]

; 706  :                         _Pnode = _Pnode->_Parent;

  00086	8b c2		 mov	 eax, edx

; 485  :         _Wherenode->_Right = _Pnode->_Left;

  00088	89 4a 08	 mov	 DWORD PTR [edx+8], ecx

; 486  : 
; 487  :         if (!_Pnode->_Left->_Isnil) {

  0008b	8b 0e		 mov	 ecx, DWORD PTR [esi]
  0008d	80 79 0d 00	 cmp	 BYTE PTR [ecx+13], 0
  00091	75 03		 jne	 SHORT $LN21@Insert_nod

; 488  :             _Pnode->_Left->_Parent = _Wherenode;

  00093	89 41 04	 mov	 DWORD PTR [ecx+4], eax
$LN21@Insert_nod:

; 489  :         }
; 490  : 
; 491  :         _Pnode->_Parent = _Wherenode->_Parent;

  00096	8b 4a 04	 mov	 ecx, DWORD PTR [edx+4]
  00099	89 4e 04	 mov	 DWORD PTR [esi+4], ecx

; 492  : 
; 493  :         if (_Wherenode == _Myhead->_Parent) {

  0009c	8b 0b		 mov	 ecx, DWORD PTR [ebx]
  0009e	3b 41 04	 cmp	 eax, DWORD PTR [ecx+4]
  000a1	75 05		 jne	 SHORT $LN22@Insert_nod

; 494  :             _Myhead->_Parent = _Pnode;

  000a3	89 71 04	 mov	 DWORD PTR [ecx+4], esi
  000a6	eb 0e		 jmp	 SHORT $LN25@Insert_nod
$LN22@Insert_nod:

; 495  :         } else if (_Wherenode == _Wherenode->_Parent->_Left) {

  000a8	8b 4a 04	 mov	 ecx, DWORD PTR [edx+4]
  000ab	3b 01		 cmp	 eax, DWORD PTR [ecx]
  000ad	75 04		 jne	 SHORT $LN24@Insert_nod

; 496  :             _Wherenode->_Parent->_Left = _Pnode;

  000af	89 31		 mov	 DWORD PTR [ecx], esi

; 497  :         } else {

  000b1	eb 03		 jmp	 SHORT $LN25@Insert_nod
$LN24@Insert_nod:

; 498  :             _Wherenode->_Parent->_Right = _Pnode;

  000b3	89 71 08	 mov	 DWORD PTR [ecx+8], esi
$LN25@Insert_nod:

; 499  :         }
; 500  : 
; 501  :         _Pnode->_Left       = _Wherenode;

  000b6	89 06		 mov	 DWORD PTR [esi], eax

; 502  :         _Wherenode->_Parent = _Pnode;

  000b8	89 70 04	 mov	 DWORD PTR [eax+4], esi
$LN57@Insert_nod:

; 707  :                         _Lrotate(_Pnode);
; 708  :                     }
; 709  : 
; 710  :                     _Pnode->_Parent->_Color          = _Black; // propagate red up

  000bb	8b 48 04	 mov	 ecx, DWORD PTR [eax+4]
  000be	c6 41 0c 01	 mov	 BYTE PTR [ecx+12], 1

; 711  :                     _Pnode->_Parent->_Parent->_Color = _Red;

  000c2	8b 48 04	 mov	 ecx, DWORD PTR [eax+4]
  000c5	8b 49 04	 mov	 ecx, DWORD PTR [ecx+4]
  000c8	c6 41 0c 00	 mov	 BYTE PTR [ecx+12], 0

; 712  :                     _Rrotate(_Pnode->_Parent->_Parent);

  000cc	8b 48 04	 mov	 ecx, DWORD PTR [eax+4]
  000cf	8b 51 04	 mov	 edx, DWORD PTR [ecx+4]

; 506  :         _Nodeptr _Pnode   = _Wherenode->_Left;

  000d2	8b 32		 mov	 esi, DWORD PTR [edx]

; 507  :         _Wherenode->_Left = _Pnode->_Right;

  000d4	8b 4e 08	 mov	 ecx, DWORD PTR [esi+8]
  000d7	89 0a		 mov	 DWORD PTR [edx], ecx

; 508  : 
; 509  :         if (!_Pnode->_Right->_Isnil) {

  000d9	8b 4e 08	 mov	 ecx, DWORD PTR [esi+8]
  000dc	80 79 0d 00	 cmp	 BYTE PTR [ecx+13], 0
  000e0	75 03		 jne	 SHORT $LN29@Insert_nod

; 510  :             _Pnode->_Right->_Parent = _Wherenode;

  000e2	89 51 04	 mov	 DWORD PTR [ecx+4], edx
$LN29@Insert_nod:

; 511  :         }
; 512  : 
; 513  :         _Pnode->_Parent = _Wherenode->_Parent;

  000e5	8b 4a 04	 mov	 ecx, DWORD PTR [edx+4]
  000e8	89 4e 04	 mov	 DWORD PTR [esi+4], ecx

; 514  : 
; 515  :         if (_Wherenode == _Myhead->_Parent) {

  000eb	8b 0b		 mov	 ecx, DWORD PTR [ebx]
  000ed	3b 51 04	 cmp	 edx, DWORD PTR [ecx+4]
  000f0	75 0b		 jne	 SHORT $LN30@Insert_nod

; 516  :             _Myhead->_Parent = _Pnode;

  000f2	89 71 04	 mov	 DWORD PTR [ecx+4], esi

; 521  :         }
; 522  : 
; 523  :         _Pnode->_Right      = _Wherenode;

  000f5	89 56 08	 mov	 DWORD PTR [esi+8], edx

; 713  :                 }
; 714  :             } else { // fixup red-red in right subtree

  000f8	e9 cc 00 00 00	 jmp	 $LN81@Insert_nod
$LN30@Insert_nod:

; 517  :         } else if (_Wherenode == _Wherenode->_Parent->_Right) {

  000fd	8b 4a 04	 mov	 ecx, DWORD PTR [edx+4]
  00100	3b 51 08	 cmp	 edx, DWORD PTR [ecx+8]
  00103	75 0b		 jne	 SHORT $LN32@Insert_nod

; 518  :             _Wherenode->_Parent->_Right = _Pnode;

  00105	89 71 08	 mov	 DWORD PTR [ecx+8], esi

; 521  :         }
; 522  : 
; 523  :         _Pnode->_Right      = _Wherenode;

  00108	89 56 08	 mov	 DWORD PTR [esi+8], edx

; 713  :                 }
; 714  :             } else { // fixup red-red in right subtree

  0010b	e9 b9 00 00 00	 jmp	 $LN81@Insert_nod
$LN32@Insert_nod:

; 520  :             _Wherenode->_Parent->_Left = _Pnode;

  00110	89 31		 mov	 DWORD PTR [ecx], esi

; 521  :         }
; 522  : 
; 523  :         _Pnode->_Right      = _Wherenode;

  00112	89 56 08	 mov	 DWORD PTR [esi+8], edx

; 713  :                 }
; 714  :             } else { // fixup red-red in right subtree

  00115	e9 af 00 00 00	 jmp	 $LN81@Insert_nod
$LN10@Insert_nod:

; 715  :                 const auto _Parent_sibling = _Pnode->_Parent->_Parent->_Left;
; 716  :                 if (_Parent_sibling->_Color == _Red) { // parent's sibling has two red children, blacken both

  0011a	80 79 0c 00	 cmp	 BYTE PTR [ecx+12], 0
  0011e	75 1d		 jne	 SHORT $LN15@Insert_nod
$LN82@Insert_nod:

; 693  :             }
; 694  :         }
; 695  : 
; 696  :         for (_Nodeptr _Pnode = _Newnode; _Pnode->_Parent->_Color == _Red;) {

  00120	c6 42 0c 01	 mov	 BYTE PTR [edx+12], 1
  00124	c6 41 0c 01	 mov	 BYTE PTR [ecx+12], 1
  00128	8b 48 04	 mov	 ecx, DWORD PTR [eax+4]
  0012b	8b 49 04	 mov	 ecx, DWORD PTR [ecx+4]
  0012e	c6 41 0c 00	 mov	 BYTE PTR [ecx+12], 0
  00132	8b 48 04	 mov	 ecx, DWORD PTR [eax+4]
  00135	8b 41 04	 mov	 eax, DWORD PTR [ecx+4]
  00138	e9 8f 00 00 00	 jmp	 $LN2@Insert_nod
$LN15@Insert_nod:

; 717  :                     _Pnode->_Parent->_Color          = _Black;
; 718  :                     _Parent_sibling->_Color          = _Black;
; 719  :                     _Pnode->_Parent->_Parent->_Color = _Red;
; 720  :                     _Pnode                           = _Pnode->_Parent->_Parent;
; 721  :                 } else { // parent's sibling has red and black children
; 722  :                     if (_Pnode == _Pnode->_Parent->_Left) { // rotate left child to right

  0013d	8b 32		 mov	 esi, DWORD PTR [edx]
  0013f	3b c6		 cmp	 eax, esi
  00141	75 3a		 jne	 SHORT $LN42@Insert_nod

; 507  :         _Wherenode->_Left = _Pnode->_Right;

  00143	8b 4e 08	 mov	 ecx, DWORD PTR [esi+8]

; 723  :                         _Pnode = _Pnode->_Parent;

  00146	8b c2		 mov	 eax, edx

; 507  :         _Wherenode->_Left = _Pnode->_Right;

  00148	89 08		 mov	 DWORD PTR [eax], ecx

; 508  : 
; 509  :         if (!_Pnode->_Right->_Isnil) {

  0014a	8b 4e 08	 mov	 ecx, DWORD PTR [esi+8]
  0014d	80 79 0d 00	 cmp	 BYTE PTR [ecx+13], 0
  00151	75 03		 jne	 SHORT $LN37@Insert_nod

; 510  :             _Pnode->_Right->_Parent = _Wherenode;

  00153	89 41 04	 mov	 DWORD PTR [ecx+4], eax
$LN37@Insert_nod:

; 511  :         }
; 512  : 
; 513  :         _Pnode->_Parent = _Wherenode->_Parent;

  00156	8b 4a 04	 mov	 ecx, DWORD PTR [edx+4]
  00159	89 4e 04	 mov	 DWORD PTR [esi+4], ecx

; 514  : 
; 515  :         if (_Wherenode == _Myhead->_Parent) {

  0015c	8b 0b		 mov	 ecx, DWORD PTR [ebx]
  0015e	3b 41 04	 cmp	 eax, DWORD PTR [ecx+4]
  00161	75 05		 jne	 SHORT $LN38@Insert_nod

; 516  :             _Myhead->_Parent = _Pnode;

  00163	89 71 04	 mov	 DWORD PTR [ecx+4], esi
  00166	eb 0f		 jmp	 SHORT $LN41@Insert_nod
$LN38@Insert_nod:

; 517  :         } else if (_Wherenode == _Wherenode->_Parent->_Right) {

  00168	8b 4a 04	 mov	 ecx, DWORD PTR [edx+4]
  0016b	3b 41 08	 cmp	 eax, DWORD PTR [ecx+8]
  0016e	75 05		 jne	 SHORT $LN40@Insert_nod

; 518  :             _Wherenode->_Parent->_Right = _Pnode;

  00170	89 71 08	 mov	 DWORD PTR [ecx+8], esi

; 519  :         } else {

  00173	eb 02		 jmp	 SHORT $LN41@Insert_nod
$LN40@Insert_nod:

; 520  :             _Wherenode->_Parent->_Left = _Pnode;

  00175	89 31		 mov	 DWORD PTR [ecx], esi
$LN41@Insert_nod:

; 521  :         }
; 522  : 
; 523  :         _Pnode->_Right      = _Wherenode;

  00177	89 46 08	 mov	 DWORD PTR [esi+8], eax

; 524  :         _Wherenode->_Parent = _Pnode;

  0017a	89 70 04	 mov	 DWORD PTR [eax+4], esi
$LN42@Insert_nod:

; 724  :                         _Rrotate(_Pnode);
; 725  :                     }
; 726  : 
; 727  :                     _Pnode->_Parent->_Color          = _Black; // propagate red up

  0017d	8b 48 04	 mov	 ecx, DWORD PTR [eax+4]
  00180	c6 41 0c 01	 mov	 BYTE PTR [ecx+12], 1

; 728  :                     _Pnode->_Parent->_Parent->_Color = _Red;

  00184	8b 48 04	 mov	 ecx, DWORD PTR [eax+4]
  00187	8b 49 04	 mov	 ecx, DWORD PTR [ecx+4]
  0018a	c6 41 0c 00	 mov	 BYTE PTR [ecx+12], 0

; 729  :                     _Lrotate(_Pnode->_Parent->_Parent);

  0018e	8b 48 04	 mov	 ecx, DWORD PTR [eax+4]
  00191	8b 51 04	 mov	 edx, DWORD PTR [ecx+4]

; 484  :         _Nodeptr _Pnode    = _Wherenode->_Right;

  00194	8b 72 08	 mov	 esi, DWORD PTR [edx+8]

; 485  :         _Wherenode->_Right = _Pnode->_Left;

  00197	8b 0e		 mov	 ecx, DWORD PTR [esi]
  00199	89 4a 08	 mov	 DWORD PTR [edx+8], ecx

; 486  : 
; 487  :         if (!_Pnode->_Left->_Isnil) {

  0019c	8b 0e		 mov	 ecx, DWORD PTR [esi]
  0019e	80 79 0d 00	 cmp	 BYTE PTR [ecx+13], 0
  001a2	75 03		 jne	 SHORT $LN45@Insert_nod

; 488  :             _Pnode->_Left->_Parent = _Wherenode;

  001a4	89 51 04	 mov	 DWORD PTR [ecx+4], edx
$LN45@Insert_nod:

; 489  :         }
; 490  : 
; 491  :         _Pnode->_Parent = _Wherenode->_Parent;

  001a7	8b 4a 04	 mov	 ecx, DWORD PTR [edx+4]
  001aa	89 4e 04	 mov	 DWORD PTR [esi+4], ecx

; 492  : 
; 493  :         if (_Wherenode == _Myhead->_Parent) {

  001ad	8b 0b		 mov	 ecx, DWORD PTR [ebx]
  001af	3b 51 04	 cmp	 edx, DWORD PTR [ecx+4]
  001b2	75 05		 jne	 SHORT $LN46@Insert_nod

; 494  :             _Myhead->_Parent = _Pnode;

  001b4	89 71 04	 mov	 DWORD PTR [ecx+4], esi
  001b7	eb 0e		 jmp	 SHORT $LN49@Insert_nod
$LN46@Insert_nod:

; 495  :         } else if (_Wherenode == _Wherenode->_Parent->_Left) {

  001b9	8b 4a 04	 mov	 ecx, DWORD PTR [edx+4]
  001bc	3b 11		 cmp	 edx, DWORD PTR [ecx]
  001be	75 04		 jne	 SHORT $LN48@Insert_nod

; 496  :             _Wherenode->_Parent->_Left = _Pnode;

  001c0	89 31		 mov	 DWORD PTR [ecx], esi

; 497  :         } else {

  001c2	eb 03		 jmp	 SHORT $LN49@Insert_nod
$LN48@Insert_nod:

; 498  :             _Wherenode->_Parent->_Right = _Pnode;

  001c4	89 71 08	 mov	 DWORD PTR [ecx+8], esi
$LN49@Insert_nod:

; 499  :         }
; 500  : 
; 501  :         _Pnode->_Left       = _Wherenode;

  001c7	89 16		 mov	 DWORD PTR [esi], edx
$LN81@Insert_nod:

; 693  :             }
; 694  :         }
; 695  : 
; 696  :         for (_Nodeptr _Pnode = _Newnode; _Pnode->_Parent->_Color == _Red;) {

  001c9	89 72 04	 mov	 DWORD PTR [edx+4], esi
$LN2@Insert_nod:
  001cc	8b 48 04	 mov	 ecx, DWORD PTR [eax+4]
  001cf	80 79 0c 00	 cmp	 BYTE PTR [ecx+12], 0
  001d3	0f 84 87 fe ff
	ff		 je	 $LL4@Insert_nod
  001d9	5e		 pop	 esi
$LN3@Insert_nod:

; 730  :                 }
; 731  :             }
; 732  :         }
; 733  : 
; 734  :         _Head->_Parent->_Color = _Black; // root is always black

  001da	8b 45 fc	 mov	 eax, DWORD PTR __Head$1$[ebp]
  001dd	8b 40 04	 mov	 eax, DWORD PTR [eax+4]
  001e0	c6 40 0c 01	 mov	 BYTE PTR [eax+12], 1

; 735  :         return _Newnode;
; 736  :     }

  001e4	8b c7		 mov	 eax, edi
  001e6	5f		 pop	 edi
  001e7	5b		 pop	 ebx
  001e8	8b e5		 mov	 esp, ebp
  001ea	5d		 pop	 ebp
  001eb	c2 0c 00	 ret	 12			; 0000000cH
?_Insert_node@?$_Tree_val@U?$_Tree_simple_types@U?$pair@$$CBHU__CHAOS_GEM@@@std@@@std@@@std@@QAEPAU?$_Tree_node@U?$pair@$$CBHU__CHAOS_GEM@@@std@@PAX@2@U?$_Tree_id@PAU?$_Tree_node@U?$pair@$$CBHU__CHAOS_GEM@@@std@@PAX@std@@@2@QAU32@@Z ENDP ; std::_Tree_val<std::_Tree_simple_types<std::pair<int const ,__CHAOS_GEM> > >::_Insert_node
_TEXT	ENDS
; Function compile flags: /Ogtp
; File C:\Program Files\Microsoft Visual Studio\2022\Professional\VC\Tools\MSVC\14.44.35207\include\xtree
; File C:\Program Files\Microsoft Visual Studio\2022\Professional\VC\Tools\MSVC\14.44.35207\include\utility
; File C:\Program Files\Microsoft Visual Studio\2022\Professional\VC\Tools\MSVC\14.44.35207\include\xmemory
; File C:\Program Files\Microsoft Visual Studio\2022\Professional\VC\Tools\MSVC\14.44.35207\include\xtree
; File C:\Program Files\Microsoft Visual Studio\2022\Professional\VC\Tools\MSVC\14.44.35207\include\xmemory
; File C:\Program Files\Microsoft Visual Studio\2022\Professional\VC\Tools\MSVC\14.44.35207\include\xtree
;	COMDAT ??1?$_Tree@V?$_Tmap_traits@HU__CHAOS_GEM@@U?$less@H@std@@V?$allocator@U?$pair@$$CBHU__CHAOS_GEM@@@std@@@3@$0A@@std@@@std@@QAE@XZ
_TEXT	SEGMENT
??1?$_Tree@V?$_Tmap_traits@HU__CHAOS_GEM@@U?$less@H@std@@V?$allocator@U?$pair@$$CBHU__CHAOS_GEM@@@std@@@3@$0A@@std@@@std@@QAE@XZ PROC ; std::_Tree<std::_Tmap_traits<int,__CHAOS_GEM,std::less<int>,std::allocator<std::pair<int const ,__CHAOS_GEM> >,0> >::~_Tree<std::_Tmap_traits<int,__CHAOS_GEM,std::less<int>,std::allocator<std::pair<int const ,__CHAOS_GEM> >,0> >, COMDAT
; _this$ = ecx

; 1095 :     ~_Tree() noexcept {

  00000	56		 push	 esi
  00001	57		 push	 edi
  00002	8b f9		 mov	 edi, ecx

; 777  :         _Erase_tree(_Al, _Myhead->_Parent);

  00004	8b 37		 mov	 esi, DWORD PTR [edi]
  00006	8b 76 04	 mov	 esi, DWORD PTR [esi+4]

; 768  :         while (!_Rootnode->_Isnil) { // free subtrees, then node

  00009	80 7e 0d 00	 cmp	 BYTE PTR [esi+13], 0
  0000d	75 21		 jne	 SHORT $LN61@Tree
  0000f	90		 npad	 1
$LL8@Tree:

; 769  :             _Erase_tree(_Al, _Rootnode->_Right);

  00010	ff 76 08	 push	 DWORD PTR [esi+8]
  00013	8b cf		 mov	 ecx, edi
  00015	57		 push	 edi
  00016	e8 00 00 00 00	 call	 ??$_Erase_tree@V?$allocator@U?$_Tree_node@U?$pair@$$CBHU__CHAOS_GEM@@@std@@PAX@std@@@std@@@?$_Tree_val@U?$_Tree_simple_types@U?$pair@$$CBHU__CHAOS_GEM@@@std@@@std@@@std@@QAEXAAV?$allocator@U?$_Tree_node@U?$pair@$$CBHU__CHAOS_GEM@@@std@@PAX@std@@@1@PAU?$_Tree_node@U?$pair@$$CBHU__CHAOS_GEM@@@std@@PAX@1@@Z ; std::_Tree_val<std::_Tree_simple_types<std::pair<int const ,__CHAOS_GEM> > >::_Erase_tree<std::allocator<std::_Tree_node<std::pair<int const ,__CHAOS_GEM>,void *> > >
; File C:\Program Files\Microsoft Visual Studio\2022\Professional\VC\Tools\MSVC\14.44.35207\include\utility

; 773  :     _Ty _Old_val = static_cast<_Ty&&>(_Val);

  0001b	8b c6		 mov	 eax, esi

; 774  :     _Val         = static_cast<_Other&&>(_New_val);

  0001d	8b 36		 mov	 esi, DWORD PTR [esi]
; File C:\Program Files\Microsoft Visual Studio\2022\Professional\VC\Tools\MSVC\14.44.35207\include\xmemory

; 289  :         ::operator delete(_Ptr, _Bytes);

  0001f	6a 24		 push	 36			; 00000024H
  00021	50		 push	 eax
  00022	e8 00 00 00 00	 call	 ??3@YAXPAXI@Z		; operator delete
  00027	83 c4 08	 add	 esp, 8
; File C:\Program Files\Microsoft Visual Studio\2022\Professional\VC\Tools\MSVC\14.44.35207\include\xtree

; 768  :         while (!_Rootnode->_Isnil) { // free subtrees, then node

  0002a	80 7e 0d 00	 cmp	 BYTE PTR [esi+13], 0
  0002e	74 e0		 je	 SHORT $LL8@Tree
$LN61@Tree:
; File C:\Program Files\Microsoft Visual Studio\2022\Professional\VC\Tools\MSVC\14.44.35207\include\xmemory

; 289  :         ::operator delete(_Ptr, _Bytes);

  00030	6a 24		 push	 36			; 00000024H
  00032	ff 37		 push	 DWORD PTR [edi]
  00034	e8 00 00 00 00	 call	 ??3@YAXPAXI@Z		; operator delete
  00039	83 c4 08	 add	 esp, 8
  0003c	5f		 pop	 edi
  0003d	5e		 pop	 esi
; File C:\Program Files\Microsoft Visual Studio\2022\Professional\VC\Tools\MSVC\14.44.35207\include\xtree

; 1102 :     }

  0003e	c3		 ret	 0
??1?$_Tree@V?$_Tmap_traits@HU__CHAOS_GEM@@U?$less@H@std@@V?$allocator@U?$pair@$$CBHU__CHAOS_GEM@@@std@@@3@$0A@@std@@@std@@QAE@XZ ENDP ; std::_Tree<std::_Tmap_traits<int,__CHAOS_GEM,std::less<int>,std::allocator<std::pair<int const ,__CHAOS_GEM> >,0> >::~_Tree<std::_Tmap_traits<int,__CHAOS_GEM,std::less<int>,std::allocator<std::pair<int const ,__CHAOS_GEM> >,0> >
_TEXT	ENDS
; Function compile flags: /Ogtp
; File C:\IAGOS\server\v18\Source\Source\WorldServer\ItemUpgrade.cpp
; File C:\Program Files\Microsoft Visual Studio\2022\Professional\VC\Tools\MSVC\14.44.35207\include\xtree
; File C:\IAGOS\server\v18\Source\Source\WorldServer\ItemUpgrade.cpp
; File C:\Program Files\Microsoft Visual Studio\2022\Professional\VC\Tools\MSVC\14.44.35207\include\xtree
; File C:\IAGOS\server\v18\Source\Source\WorldServer\ItemUpgrade.cpp
; File C:\Program Files\Microsoft Visual Studio\2022\Professional\VC\Tools\MSVC\14.44.35207\include\xtree
; File C:\IAGOS\server\v18\Source\Source\WorldServer\ItemUpgrade.cpp
; File C:\Program Files\Microsoft Visual Studio\2022\Professional\VC\Tools\MSVC\14.44.35207\include\xtree
; File C:\Program Files\Microsoft Visual Studio\2022\Professional\VC\Tools\MSVC\14.44.35207\include\type_traits
; File C:\Program Files\Microsoft Visual Studio\2022\Professional\VC\Tools\MSVC\14.44.35207\include\xtree
; File C:\IAGOS\server\v18\Source\Source\WorldServer\ItemUpgrade.cpp
;	COMDAT ?GetBarunaFailForNextLevel@CItemUpgrade@@QAEHH@Z
_TEXT	SEGMENT
__Loc$1 = -12						; size = 12
_nLevel$ = 8						; size = 4
$T2 = 8							; size = 4
?GetBarunaFailForNextLevel@CItemUpgrade@@QAEHH@Z PROC	; CItemUpgrade::GetBarunaFailForNextLevel, COMDAT
; _this$ = ecx

; 1438 : {

  00000	55		 push	 ebp
  00001	8b ec		 mov	 ebp, esp
  00003	83 ec 0c	 sub	 esp, 12			; 0000000cH
  00006	56		 push	 esi

; 1440 : 	map<int, int>::iterator it = m_mapPetFailForLevel.find( nLevel + 1 );

  00007	8b 75 08	 mov	 esi, DWORD PTR _nLevel$[ebp]
; File C:\Program Files\Microsoft Visual Studio\2022\Professional\VC\Tools\MSVC\14.44.35207\include\xtree

; 1384 :         const _Tree_find_result<_Nodeptr> _Loc = _Find_lower_bound(_Keyval);

  0000a	8d 45 08	 lea	 eax, DWORD PTR $T2[ebp]
; File C:\IAGOS\server\v18\Source\Source\WorldServer\ItemUpgrade.cpp

; 1438 : {

  0000d	57		 push	 edi
; File C:\Program Files\Microsoft Visual Studio\2022\Professional\VC\Tools\MSVC\14.44.35207\include\xtree

; 1384 :         const _Tree_find_result<_Nodeptr> _Loc = _Find_lower_bound(_Keyval);

  0000e	50		 push	 eax
; File C:\IAGOS\server\v18\Source\Source\WorldServer\ItemUpgrade.cpp

; 1440 : 	map<int, int>::iterator it = m_mapPetFailForLevel.find( nLevel + 1 );

  0000f	8d 79 38	 lea	 edi, DWORD PTR [ecx+56]
  00012	46		 inc	 esi
; File C:\Program Files\Microsoft Visual Studio\2022\Professional\VC\Tools\MSVC\14.44.35207\include\xtree

; 1384 :         const _Tree_find_result<_Nodeptr> _Loc = _Find_lower_bound(_Keyval);

  00013	8d 45 f4	 lea	 eax, DWORD PTR __Loc$1[ebp]
; File C:\IAGOS\server\v18\Source\Source\WorldServer\ItemUpgrade.cpp

; 1440 : 	map<int, int>::iterator it = m_mapPetFailForLevel.find( nLevel + 1 );

  00016	89 75 08	 mov	 DWORD PTR $T2[ebp], esi
; File C:\Program Files\Microsoft Visual Studio\2022\Professional\VC\Tools\MSVC\14.44.35207\include\xtree

; 1384 :         const _Tree_find_result<_Nodeptr> _Loc = _Find_lower_bound(_Keyval);

  00019	50		 push	 eax
  0001a	8b cf		 mov	 ecx, edi
  0001c	e8 00 00 00 00	 call	 ??$_Find_lower_bound@H@?$_Tree@V?$_Tmap_traits@HHU?$less@H@std@@V?$allocator@U?$pair@$$CBHH@std@@@2@$0A@@std@@@std@@IBE?AU?$_Tree_find_result@PAU?$_Tree_node@U?$pair@$$CBHH@std@@PAX@std@@@1@ABH@Z ; std::_Tree<std::_Tmap_traits<int,int,std::less<int>,std::allocator<std::pair<int const ,int> >,0> >::_Find_lower_bound<int>

; 1624 :         return !_Bound->_Isnil && !_DEBUG_LT_PRED(_Getcomp(), _Keyval, _Traits::_Kfn(_Bound->_Myval));

  00021	8b 45 fc	 mov	 eax, DWORD PTR __Loc$1[ebp+8]
  00024	80 78 0d 00	 cmp	 BYTE PTR [eax+13], 0
  00028	75 14		 jne	 SHORT $LN55@GetBarunaF
; File C:\Program Files\Microsoft Visual Studio\2022\Professional\VC\Tools\MSVC\14.44.35207\include\type_traits

; 2380 :         return _Left < _Right;

  0002a	3b 70 10	 cmp	 esi, DWORD PTR [eax+16]
; File C:\Program Files\Microsoft Visual Studio\2022\Professional\VC\Tools\MSVC\14.44.35207\include\xtree

; 1624 :         return !_Bound->_Isnil && !_DEBUG_LT_PRED(_Getcomp(), _Keyval, _Traits::_Kfn(_Bound->_Myval));

  0002d	7c 0f		 jl	 SHORT $LN55@GetBarunaF

; 37   :     _Tree_unchecked_const_iterator(_Nodeptr _Pnode, const _Mytree* _Plist) noexcept : _Ptr(_Pnode) {

  0002f	3b 07		 cmp	 eax, DWORD PTR [edi]
; File C:\IAGOS\server\v18\Source\Source\WorldServer\ItemUpgrade.cpp

; 1441 : 	if( it != m_mapPetFailForLevel.end() )

  00031	74 0b		 je	 SHORT $LN55@GetBarunaF

; 1442 : 		nAmount = it->second;
; 1443 : 	return nAmount;

  00033	8b 40 14	 mov	 eax, DWORD PTR [eax+20]
  00036	5f		 pop	 edi

; 1444 : }

  00037	5e		 pop	 esi
  00038	8b e5		 mov	 esp, ebp
  0003a	5d		 pop	 ebp
  0003b	c2 04 00	 ret	 4
$LN55@GetBarunaF:
  0003e	5f		 pop	 edi
  0003f	33 c0		 xor	 eax, eax
  00041	5e		 pop	 esi
  00042	8b e5		 mov	 esp, ebp
  00044	5d		 pop	 ebp
  00045	c2 04 00	 ret	 4
?GetBarunaFailForNextLevel@CItemUpgrade@@QAEHH@Z ENDP	; CItemUpgrade::GetBarunaFailForNextLevel
_TEXT	ENDS
; Function compile flags: /Ogtp
; File C:\IAGOS\server\v18\Source\Source\WorldServer\ItemUpgrade.cpp
; File C:\Program Files\Microsoft Visual Studio\2022\Professional\VC\Tools\MSVC\14.44.35207\include\xtree
; File C:\IAGOS\server\v18\Source\Source\WorldServer\ItemUpgrade.cpp
; File C:\Program Files\Microsoft Visual Studio\2022\Professional\VC\Tools\MSVC\14.44.35207\include\xtree
; File C:\IAGOS\server\v18\Source\Source\WorldServer\ItemUpgrade.cpp
; File C:\Program Files\Microsoft Visual Studio\2022\Professional\VC\Tools\MSVC\14.44.35207\include\xtree
; File C:\Program Files\Microsoft Visual Studio\2022\Professional\VC\Tools\MSVC\14.44.35207\include\type_traits
; File C:\Program Files\Microsoft Visual Studio\2022\Professional\VC\Tools\MSVC\14.44.35207\include\xtree
; File C:\IAGOS\server\v18\Source\Source\WorldServer\ItemUpgrade.cpp
;	COMDAT ?GetBarunaPetMultiplicator@CItemUpgrade@@QAEMH@Z
_TEXT	SEGMENT
__Loc$1 = -16						; size = 12
_nExtraProp$ = -4					; size = 4
_nLevel$ = 8						; size = 4
?GetBarunaPetMultiplicator@CItemUpgrade@@QAEMH@Z PROC	; CItemUpgrade::GetBarunaPetMultiplicator, COMDAT
; _this$ = ecx

; 1429 : {

  00000	55		 push	 ebp
  00001	8b ec		 mov	 ebp, esp
  00003	83 ec 10	 sub	 esp, 16			; 00000010H
  00006	56		 push	 esi
; File C:\Program Files\Microsoft Visual Studio\2022\Professional\VC\Tools\MSVC\14.44.35207\include\xtree

; 1384 :         const _Tree_find_result<_Nodeptr> _Loc = _Find_lower_bound(_Keyval);

  00007	8d 45 08	 lea	 eax, DWORD PTR _nLevel$[ebp]
; File C:\IAGOS\server\v18\Source\Source\WorldServer\ItemUpgrade.cpp

; 1430 : 	float nExtraProp = 1.0f;

  0000a	c7 45 fc 00 00
	80 3f		 mov	 DWORD PTR _nExtraProp$[ebp], 1065353216 ; 3f800000H
; File C:\Program Files\Microsoft Visual Studio\2022\Professional\VC\Tools\MSVC\14.44.35207\include\xtree

; 1384 :         const _Tree_find_result<_Nodeptr> _Loc = _Find_lower_bound(_Keyval);

  00011	50		 push	 eax
; File C:\IAGOS\server\v18\Source\Source\WorldServer\ItemUpgrade.cpp

; 1431 : 	map<int, int>::iterator it = m_mapPetMultiplicator.find( nLevel );

  00012	8d 71 30	 lea	 esi, DWORD PTR [ecx+48]
; File C:\Program Files\Microsoft Visual Studio\2022\Professional\VC\Tools\MSVC\14.44.35207\include\xtree

; 1384 :         const _Tree_find_result<_Nodeptr> _Loc = _Find_lower_bound(_Keyval);

  00015	8d 45 f0	 lea	 eax, DWORD PTR __Loc$1[ebp]
  00018	8b ce		 mov	 ecx, esi
  0001a	50		 push	 eax
  0001b	e8 00 00 00 00	 call	 ??$_Find_lower_bound@H@?$_Tree@V?$_Tmap_traits@HHU?$less@H@std@@V?$allocator@U?$pair@$$CBHH@std@@@2@$0A@@std@@@std@@IBE?AU?$_Tree_find_result@PAU?$_Tree_node@U?$pair@$$CBHH@std@@PAX@std@@@1@ABH@Z ; std::_Tree<std::_Tmap_traits<int,int,std::less<int>,std::allocator<std::pair<int const ,int> >,0> >::_Find_lower_bound<int>

; 1624 :         return !_Bound->_Isnil && !_DEBUG_LT_PRED(_Getcomp(), _Keyval, _Traits::_Kfn(_Bound->_Myval));

  00020	8b 4d f8	 mov	 ecx, DWORD PTR __Loc$1[ebp+8]
  00023	80 79 0d 00	 cmp	 BYTE PTR [ecx+13], 0
  00027	75 29		 jne	 SHORT $LN55@GetBarunaP
; File C:\Program Files\Microsoft Visual Studio\2022\Professional\VC\Tools\MSVC\14.44.35207\include\type_traits

; 2380 :         return _Left < _Right;

  00029	8b 45 08	 mov	 eax, DWORD PTR _nLevel$[ebp]
  0002c	3b 41 10	 cmp	 eax, DWORD PTR [ecx+16]
; File C:\Program Files\Microsoft Visual Studio\2022\Professional\VC\Tools\MSVC\14.44.35207\include\xtree

; 1624 :         return !_Bound->_Isnil && !_DEBUG_LT_PRED(_Getcomp(), _Keyval, _Traits::_Kfn(_Bound->_Myval));

  0002f	7c 21		 jl	 SHORT $LN55@GetBarunaP

; 37   :     _Tree_unchecked_const_iterator(_Nodeptr _Pnode, const _Mytree* _Plist) noexcept : _Ptr(_Pnode) {

  00031	3b 0e		 cmp	 ecx, DWORD PTR [esi]
; File C:\IAGOS\server\v18\Source\Source\WorldServer\ItemUpgrade.cpp

; 1432 : 	if( it != m_mapPetMultiplicator.end() )

  00033	74 1d		 je	 SHORT $LN55@GetBarunaP

; 1433 : 		nExtraProp = (static_cast<float>(it->second) / 100.0f ) + nExtraProp;

  00035	66 0f 6e 41 14	 movd	 xmm0, DWORD PTR [ecx+20]
  0003a	0f 5b c0	 cvtdq2ps xmm0, xmm0
  0003d	f3 0f 5e 05 00
	00 00 00	 divss	 xmm0, DWORD PTR __real@42c80000
  00045	f3 0f 58 05 00
	00 00 00	 addss	 xmm0, DWORD PTR __real@3f800000
  0004d	f3 0f 11 45 fc	 movss	 DWORD PTR _nExtraProp$[ebp], xmm0
$LN55@GetBarunaP:

; 1434 : 	return nExtraProp;
; 1435 : }

  00052	d9 45 fc	 fld	 DWORD PTR _nExtraProp$[ebp]
  00055	5e		 pop	 esi
  00056	8b e5		 mov	 esp, ebp
  00058	5d		 pop	 ebp
  00059	c2 04 00	 ret	 4
?GetBarunaPetMultiplicator@CItemUpgrade@@QAEMH@Z ENDP	; CItemUpgrade::GetBarunaPetMultiplicator
_TEXT	ENDS
; Function compile flags: /Ogtp
; File C:\IAGOS\server\v18\Source\Source\WorldServer\ItemUpgrade.cpp
; File C:\Program Files\Microsoft Visual Studio\2022\Professional\VC\Tools\MSVC\14.44.35207\include\xtree
; File C:\IAGOS\server\v18\Source\Source\WorldServer\ItemUpgrade.cpp
; File C:\Program Files\Microsoft Visual Studio\2022\Professional\VC\Tools\MSVC\14.44.35207\include\xtree
; File C:\IAGOS\server\v18\Source\Source\WorldServer\ItemUpgrade.cpp
; File C:\Program Files\Microsoft Visual Studio\2022\Professional\VC\Tools\MSVC\14.44.35207\include\xtree
; File C:\IAGOS\server\v18\Source\Source\WorldServer\ItemUpgrade.cpp
; File C:\Program Files\Microsoft Visual Studio\2022\Professional\VC\Tools\MSVC\14.44.35207\include\xtree
; File C:\Program Files\Microsoft Visual Studio\2022\Professional\VC\Tools\MSVC\14.44.35207\include\type_traits
; File C:\Program Files\Microsoft Visual Studio\2022\Professional\VC\Tools\MSVC\14.44.35207\include\xtree
; File C:\IAGOS\server\v18\Source\Source\WorldServer\ItemUpgrade.cpp
;	COMDAT ?GetBarunaEnchantDowngradeProp@CItemUpgrade@@QAEHH@Z
_TEXT	SEGMENT
__Loc$1 = -12						; size = 12
_nAbillityOption$ = 8					; size = 4
$T2 = 8							; size = 4
?GetBarunaEnchantDowngradeProp@CItemUpgrade@@QAEHH@Z PROC ; CItemUpgrade::GetBarunaEnchantDowngradeProp, COMDAT
; _this$ = ecx

; 1421 : {

  00000	55		 push	 ebp
  00001	8b ec		 mov	 ebp, esp
  00003	83 ec 0c	 sub	 esp, 12			; 0000000cH
  00006	56		 push	 esi

; 1423 : 	map<int, int>::iterator it = m_mapBarunaEnchantDowngrade.find( nAbillityOption +1 );

  00007	8b 75 08	 mov	 esi, DWORD PTR _nAbillityOption$[ebp]
; File C:\Program Files\Microsoft Visual Studio\2022\Professional\VC\Tools\MSVC\14.44.35207\include\xtree

; 1384 :         const _Tree_find_result<_Nodeptr> _Loc = _Find_lower_bound(_Keyval);

  0000a	8d 45 08	 lea	 eax, DWORD PTR $T2[ebp]
; File C:\IAGOS\server\v18\Source\Source\WorldServer\ItemUpgrade.cpp

; 1421 : {

  0000d	57		 push	 edi
; File C:\Program Files\Microsoft Visual Studio\2022\Professional\VC\Tools\MSVC\14.44.35207\include\xtree

; 1384 :         const _Tree_find_result<_Nodeptr> _Loc = _Find_lower_bound(_Keyval);

  0000e	50		 push	 eax
; File C:\IAGOS\server\v18\Source\Source\WorldServer\ItemUpgrade.cpp

; 1423 : 	map<int, int>::iterator it = m_mapBarunaEnchantDowngrade.find( nAbillityOption +1 );

  0000f	8d 79 48	 lea	 edi, DWORD PTR [ecx+72]
  00012	46		 inc	 esi
; File C:\Program Files\Microsoft Visual Studio\2022\Professional\VC\Tools\MSVC\14.44.35207\include\xtree

; 1384 :         const _Tree_find_result<_Nodeptr> _Loc = _Find_lower_bound(_Keyval);

  00013	8d 45 f4	 lea	 eax, DWORD PTR __Loc$1[ebp]
; File C:\IAGOS\server\v18\Source\Source\WorldServer\ItemUpgrade.cpp

; 1423 : 	map<int, int>::iterator it = m_mapBarunaEnchantDowngrade.find( nAbillityOption +1 );

  00016	89 75 08	 mov	 DWORD PTR $T2[ebp], esi
; File C:\Program Files\Microsoft Visual Studio\2022\Professional\VC\Tools\MSVC\14.44.35207\include\xtree

; 1384 :         const _Tree_find_result<_Nodeptr> _Loc = _Find_lower_bound(_Keyval);

  00019	50		 push	 eax
  0001a	8b cf		 mov	 ecx, edi
  0001c	e8 00 00 00 00	 call	 ??$_Find_lower_bound@H@?$_Tree@V?$_Tmap_traits@HHU?$less@H@std@@V?$allocator@U?$pair@$$CBHH@std@@@2@$0A@@std@@@std@@IBE?AU?$_Tree_find_result@PAU?$_Tree_node@U?$pair@$$CBHH@std@@PAX@std@@@1@ABH@Z ; std::_Tree<std::_Tmap_traits<int,int,std::less<int>,std::allocator<std::pair<int const ,int> >,0> >::_Find_lower_bound<int>

; 1624 :         return !_Bound->_Isnil && !_DEBUG_LT_PRED(_Getcomp(), _Keyval, _Traits::_Kfn(_Bound->_Myval));

  00021	8b 45 fc	 mov	 eax, DWORD PTR __Loc$1[ebp+8]
  00024	80 78 0d 00	 cmp	 BYTE PTR [eax+13], 0
  00028	75 14		 jne	 SHORT $LN55@GetBarunaE
; File C:\Program Files\Microsoft Visual Studio\2022\Professional\VC\Tools\MSVC\14.44.35207\include\type_traits

; 2380 :         return _Left < _Right;

  0002a	3b 70 10	 cmp	 esi, DWORD PTR [eax+16]
; File C:\Program Files\Microsoft Visual Studio\2022\Professional\VC\Tools\MSVC\14.44.35207\include\xtree

; 1624 :         return !_Bound->_Isnil && !_DEBUG_LT_PRED(_Getcomp(), _Keyval, _Traits::_Kfn(_Bound->_Myval));

  0002d	7c 0f		 jl	 SHORT $LN55@GetBarunaE

; 37   :     _Tree_unchecked_const_iterator(_Nodeptr _Pnode, const _Mytree* _Plist) noexcept : _Ptr(_Pnode) {

  0002f	3b 07		 cmp	 eax, DWORD PTR [edi]
; File C:\IAGOS\server\v18\Source\Source\WorldServer\ItemUpgrade.cpp

; 1424 : 	if( it != m_mapBarunaEnchantDowngrade.end() )

  00031	74 0b		 je	 SHORT $LN55@GetBarunaE

; 1425 : 		nProb = it->second;
; 1426 : 	return nProb;

  00033	8b 40 14	 mov	 eax, DWORD PTR [eax+20]
  00036	5f		 pop	 edi

; 1427 : }

  00037	5e		 pop	 esi
  00038	8b e5		 mov	 esp, ebp
  0003a	5d		 pop	 ebp
  0003b	c2 04 00	 ret	 4
$LN55@GetBarunaE:
  0003e	5f		 pop	 edi
  0003f	33 c0		 xor	 eax, eax
  00041	5e		 pop	 esi
  00042	8b e5		 mov	 esp, ebp
  00044	5d		 pop	 ebp
  00045	c2 04 00	 ret	 4
?GetBarunaEnchantDowngradeProp@CItemUpgrade@@QAEHH@Z ENDP ; CItemUpgrade::GetBarunaEnchantDowngradeProp
_TEXT	ENDS
; Function compile flags: /Ogtp
; File C:\IAGOS\server\v18\Source\Source\WorldServer\ItemUpgrade.cpp
; File C:\Program Files\Microsoft Visual Studio\2022\Professional\VC\Tools\MSVC\14.44.35207\include\xtree
; File C:\IAGOS\server\v18\Source\Source\WorldServer\ItemUpgrade.cpp
; File C:\Program Files\Microsoft Visual Studio\2022\Professional\VC\Tools\MSVC\14.44.35207\include\xtree
; File C:\IAGOS\server\v18\Source\Source\WorldServer\ItemUpgrade.cpp
; File C:\Program Files\Microsoft Visual Studio\2022\Professional\VC\Tools\MSVC\14.44.35207\include\xtree
; File C:\IAGOS\server\v18\Source\Source\WorldServer\ItemUpgrade.cpp
; File C:\Program Files\Microsoft Visual Studio\2022\Professional\VC\Tools\MSVC\14.44.35207\include\xtree
; File C:\Program Files\Microsoft Visual Studio\2022\Professional\VC\Tools\MSVC\14.44.35207\include\type_traits
; File C:\Program Files\Microsoft Visual Studio\2022\Professional\VC\Tools\MSVC\14.44.35207\include\xtree
; File C:\IAGOS\server\v18\Source\Source\WorldServer\ItemUpgrade.cpp
;	COMDAT ?GetBarunaEnchantProp@CItemUpgrade@@QAEHH@Z
_TEXT	SEGMENT
__Loc$1 = -12						; size = 12
_nAbillityOption$ = 8					; size = 4
$T2 = 8							; size = 4
?GetBarunaEnchantProp@CItemUpgrade@@QAEHH@Z PROC	; CItemUpgrade::GetBarunaEnchantProp, COMDAT
; _this$ = ecx

; 1413 : {

  00000	55		 push	 ebp
  00001	8b ec		 mov	 ebp, esp
  00003	83 ec 0c	 sub	 esp, 12			; 0000000cH
  00006	56		 push	 esi

; 1415 : 	map<int, int>::iterator it = m_mapBarunaEnchantUpgrade.find( nAbillityOption +1 );

  00007	8b 75 08	 mov	 esi, DWORD PTR _nAbillityOption$[ebp]
; File C:\Program Files\Microsoft Visual Studio\2022\Professional\VC\Tools\MSVC\14.44.35207\include\xtree

; 1384 :         const _Tree_find_result<_Nodeptr> _Loc = _Find_lower_bound(_Keyval);

  0000a	8d 45 08	 lea	 eax, DWORD PTR $T2[ebp]
; File C:\IAGOS\server\v18\Source\Source\WorldServer\ItemUpgrade.cpp

; 1413 : {

  0000d	57		 push	 edi
; File C:\Program Files\Microsoft Visual Studio\2022\Professional\VC\Tools\MSVC\14.44.35207\include\xtree

; 1384 :         const _Tree_find_result<_Nodeptr> _Loc = _Find_lower_bound(_Keyval);

  0000e	50		 push	 eax
; File C:\IAGOS\server\v18\Source\Source\WorldServer\ItemUpgrade.cpp

; 1415 : 	map<int, int>::iterator it = m_mapBarunaEnchantUpgrade.find( nAbillityOption +1 );

  0000f	8d 79 40	 lea	 edi, DWORD PTR [ecx+64]
  00012	46		 inc	 esi
; File C:\Program Files\Microsoft Visual Studio\2022\Professional\VC\Tools\MSVC\14.44.35207\include\xtree

; 1384 :         const _Tree_find_result<_Nodeptr> _Loc = _Find_lower_bound(_Keyval);

  00013	8d 45 f4	 lea	 eax, DWORD PTR __Loc$1[ebp]
; File C:\IAGOS\server\v18\Source\Source\WorldServer\ItemUpgrade.cpp

; 1415 : 	map<int, int>::iterator it = m_mapBarunaEnchantUpgrade.find( nAbillityOption +1 );

  00016	89 75 08	 mov	 DWORD PTR $T2[ebp], esi
; File C:\Program Files\Microsoft Visual Studio\2022\Professional\VC\Tools\MSVC\14.44.35207\include\xtree

; 1384 :         const _Tree_find_result<_Nodeptr> _Loc = _Find_lower_bound(_Keyval);

  00019	50		 push	 eax
  0001a	8b cf		 mov	 ecx, edi
  0001c	e8 00 00 00 00	 call	 ??$_Find_lower_bound@H@?$_Tree@V?$_Tmap_traits@HHU?$less@H@std@@V?$allocator@U?$pair@$$CBHH@std@@@2@$0A@@std@@@std@@IBE?AU?$_Tree_find_result@PAU?$_Tree_node@U?$pair@$$CBHH@std@@PAX@std@@@1@ABH@Z ; std::_Tree<std::_Tmap_traits<int,int,std::less<int>,std::allocator<std::pair<int const ,int> >,0> >::_Find_lower_bound<int>

; 1624 :         return !_Bound->_Isnil && !_DEBUG_LT_PRED(_Getcomp(), _Keyval, _Traits::_Kfn(_Bound->_Myval));

  00021	8b 45 fc	 mov	 eax, DWORD PTR __Loc$1[ebp+8]
  00024	80 78 0d 00	 cmp	 BYTE PTR [eax+13], 0
  00028	75 14		 jne	 SHORT $LN55@GetBarunaE
; File C:\Program Files\Microsoft Visual Studio\2022\Professional\VC\Tools\MSVC\14.44.35207\include\type_traits

; 2380 :         return _Left < _Right;

  0002a	3b 70 10	 cmp	 esi, DWORD PTR [eax+16]
; File C:\Program Files\Microsoft Visual Studio\2022\Professional\VC\Tools\MSVC\14.44.35207\include\xtree

; 1624 :         return !_Bound->_Isnil && !_DEBUG_LT_PRED(_Getcomp(), _Keyval, _Traits::_Kfn(_Bound->_Myval));

  0002d	7c 0f		 jl	 SHORT $LN55@GetBarunaE

; 37   :     _Tree_unchecked_const_iterator(_Nodeptr _Pnode, const _Mytree* _Plist) noexcept : _Ptr(_Pnode) {

  0002f	3b 07		 cmp	 eax, DWORD PTR [edi]
; File C:\IAGOS\server\v18\Source\Source\WorldServer\ItemUpgrade.cpp

; 1416 : 	if( it != m_mapBarunaEnchantUpgrade.end() )

  00031	74 0b		 je	 SHORT $LN55@GetBarunaE

; 1417 : 		nProb = it->second;
; 1418 : 	return nProb;

  00033	8b 40 14	 mov	 eax, DWORD PTR [eax+20]
  00036	5f		 pop	 edi

; 1419 : }

  00037	5e		 pop	 esi
  00038	8b e5		 mov	 esp, ebp
  0003a	5d		 pop	 ebp
  0003b	c2 04 00	 ret	 4
$LN55@GetBarunaE:
  0003e	5f		 pop	 edi
  0003f	33 c0		 xor	 eax, eax
  00041	5e		 pop	 esi
  00042	8b e5		 mov	 esp, ebp
  00044	5d		 pop	 ebp
  00045	c2 04 00	 ret	 4
?GetBarunaEnchantProp@CItemUpgrade@@QAEHH@Z ENDP	; CItemUpgrade::GetBarunaEnchantProp
_TEXT	ENDS
; Function compile flags: /Ogtp
; File C:\IAGOS\server\v18\Source\Source\WorldServer\ItemUpgrade.cpp
; File C:\IAGOS\server\v18\Source\Source\_Common\Item.h
; File C:\IAGOS\server\v18\Source\Source\_Common\Project.h
; File C:\IAGOS\server\v18\Source\Source\_Common\data.h
; File C:\IAGOS\server\v18\Source\Source\_Common\Project.h
; File C:\IAGOS\server\v18\Source\Source\WorldServer\ItemUpgrade.cpp
; File C:\IAGOS\server\v18\Source\Source\_Common\Item.h
; File C:\IAGOS\server\v18\Source\Source\_Common\Project.h
; File C:\IAGOS\server\v18\Source\Source\_Common\data.h
; File C:\IAGOS\server\v18\Source\Source\_Common\Project.h
; File C:\IAGOS\server\v18\Source\Source\WorldServer\ItemUpgrade.cpp
; File C:\IAGOS\server\v18\Source\Source\_Common\xUtil.h
; File C:\IAGOS\server\v18\Source\Source\WorldServer\ItemUpgrade.cpp
; File C:\IAGOS\server\v18\Source\Source\_Common\Mover.h
; File C:\IAGOS\server\v18\Source\Source\WorldServer\ItemUpgrade.cpp
; File C:\IAGOS\server\v18\Source\Source\_Common\Obj.h
; File C:\IAGOS\server\v18\Source\Source\WorldServer\ItemUpgrade.cpp
; File C:\IAGOS\server\v18\Source\Source\_Common\Obj.h
; File C:\IAGOS\server\v18\Source\Source\WorldServer\ItemUpgrade.cpp
; File C:\IAGOS\server\v18\Source\Source\_Common\Obj.h
; File C:\IAGOS\server\v18\Source\Source\WorldServer\ItemUpgrade.cpp
; File C:\IAGOS\server\v18\Source\Source\_Common\Obj.h
; File C:\IAGOS\server\v18\Source\Source\WorldServer\ItemUpgrade.cpp
; File C:\IAGOS\server\v18\Source\Source\_Common\Obj.h
; File C:\IAGOS\server\v18\Source\Source\WorldServer\ItemUpgrade.cpp
; File C:\IAGOS\server\v18\Source\Source\_Common\xUtil.h
; File C:\IAGOS\server\v18\Source\Source\WorldServer\ItemUpgrade.cpp
; File C:\IAGOS\server\v18\Source\Source\_Common\Mover.h
; File C:\IAGOS\server\v18\Source\Source\WorldServer\ItemUpgrade.cpp
; File C:\IAGOS\server\v18\Source\Source\_Common\Obj.h
; File C:\IAGOS\server\v18\Source\Source\WorldServer\ItemUpgrade.cpp
; File C:\IAGOS\server\v18\Source\Source\_Common\Obj.h
; File C:\IAGOS\server\v18\Source\Source\WorldServer\ItemUpgrade.cpp
; File C:\IAGOS\server\v18\Source\Source\_Common\Obj.h
; File C:\IAGOS\server\v18\Source\Source\WorldServer\ItemUpgrade.cpp
;	COMDAT ?EnchantBaruna@CItemUpgrade@@QAEXPAVCUser@@PAVCItemElem@@111@Z
_TEXT	SEGMENT
$T1 = -264						; size = 12
$T2 = -264						; size = 12
$T3 = -252						; size = 12
$T4 = -252						; size = 12
$T5 = -240						; size = 12
$T6 = -240						; size = 12
_nDownPercent$1$ = -228					; size = 4
_pItemMaterial$GSCopy$1$ = -224				; size = 4
_pProtectScroll$GSCopy$1$ = -220			; size = 4
_nPercent$1$ = -216					; size = 4
tv1013 = -216						; size = 4
tv1015 = -216						; size = 4
tv888 = -212						; size = 4
_this$GSCopy$1$ = -212					; size = 4
_nPetLevel$1$ = -205					; size = 1
_aLogItem$ = -204					; size = 200
__$ArrayPad$ = -4					; size = 4
_pUser$ = 8						; size = 4
_pItemMain$ = 12					; size = 4
_pItemMaterial$ = 16					; size = 4
_pBarunaPet$ = 20					; size = 4
_pProtectScroll$ = 24					; size = 4
?EnchantBaruna@CItemUpgrade@@QAEXPAVCUser@@PAVCItemElem@@111@Z PROC ; CItemUpgrade::EnchantBaruna, COMDAT
; _this$ = ecx

; 1278 : {

  00000	55		 push	 ebp
  00001	8b ec		 mov	 ebp, esp
  00003	81 ec 08 01 00
	00		 sub	 esp, 264		; 00000108H
  00009	a1 00 00 00 00	 mov	 eax, DWORD PTR ___security_cookie
  0000e	33 c5		 xor	 eax, ebp
  00010	89 45 fc	 mov	 DWORD PTR __$ArrayPad$[ebp], eax
  00013	8b 45 10	 mov	 eax, DWORD PTR _pItemMaterial$[ebp]
  00016	53		 push	 ebx
  00017	56		 push	 esi
  00018	8b 75 08	 mov	 esi, DWORD PTR _pUser$[ebp]
  0001b	57		 push	 edi
  0001c	8b 7d 0c	 mov	 edi, DWORD PTR _pItemMain$[ebp]
  0001f	89 85 20 ff ff
	ff		 mov	 DWORD PTR _pItemMaterial$GSCopy$1$[ebp], eax
  00025	8b 45 18	 mov	 eax, DWORD PTR _pProtectScroll$[ebp]
  00028	89 8d 2c ff ff
	ff		 mov	 DWORD PTR _this$GSCopy$1$[ebp], ecx

; 1279 : 	int*  pAbilityOption = pItemMain->GetAbilityOptionPtr();

  0002e	8d 5f 64	 lea	 ebx, DWORD PTR [edi+100]
  00031	89 85 24 ff ff
	ff		 mov	 DWORD PTR _pProtectScroll$GSCopy$1$[ebp], eax

; 1280 : 	if( pAbilityOption == NULL )

  00037	85 db		 test	 ebx, ebx
  00039	0f 84 d2 05 00
	00		 je	 $LN1@EnchantBar
; File C:\IAGOS\server\v18\Source\Source\_Common\Item.h

; 230  : 	ItemProp*	GetProp()	{	return prj.GetItemProp( m_dwItemId );	}

  0003f	8b 4f 0c	 mov	 ecx, DWORD PTR [edi+12]
; File C:\IAGOS\server\v18\Source\Source\_Common\Project.h

; 1389 : 	VERIFY_RANGE_ASSERT( nIndex, 0, m_aPropItem.GetSize(), "GetItemProp range_error", NULL );

  00042	a1 40 02 00 00	 mov	 eax, DWORD PTR ?prj@@3VCProject@@A+576
  00047	85 c9		 test	 ecx, ecx
  00049	78 11		 js	 SHORT $LN37@EnchantBar
  0004b	3b c8		 cmp	 ecx, eax
  0004d	7d 0d		 jge	 SHORT $LN37@EnchantBar
; File C:\IAGOS\server\v18\Source\Source\_Common\data.h

; 270  : 	if( dwIndex >= (DWORD)m_nMaxIndex )

  0004f	8b 15 30 02 00
	00		 mov	 edx, DWORD PTR ?prj@@3VCProject@@A+560
  00055	73 26		 jae	 SHORT $LN129@EnchantBar

; 271  : 		return NULL;
; 272  : 	return (T*) m_apOffset[ dwIndex ];

  00057	8b 0c 8a	 mov	 ecx, DWORD PTR [edx+ecx*4]
; File C:\IAGOS\server\v18\Source\Source\_Common\Project.h

; 1390 : 	return m_aPropItem.GetAt( nIndex ); 

  0005a	eb 23		 jmp	 SHORT $LN32@EnchantBar
$LN37@EnchantBar:

; 579  : 	LPCTSTR szErr = Error( _T( "%s min:%d, max:%d, index:%d" ), szMsg, nMin, nMax, nIndex ); 

  0005c	51		 push	 ecx
  0005d	50		 push	 eax
  0005e	6a 00		 push	 0
  00060	68 00 00 00 00	 push	 OFFSET ??_C@_0BI@BEIFNGEL@GetItemProp?5range_error@
  00065	68 00 00 00 00	 push	 OFFSET ??_C@_0BM@HMFGHCP@?$CFs?5min?3?$CFd?0?5max?3?$CFd?0?5index?3?$CFd@
  0006a	e8 00 00 00 00	 call	 ?Error@@YAPBDPBDZZ	; Error

; 1389 : 	VERIFY_RANGE_ASSERT( nIndex, 0, m_aPropItem.GetSize(), "GetItemProp range_error", NULL );

  0006f	a1 40 02 00 00	 mov	 eax, DWORD PTR ?prj@@3VCProject@@A+576

; 579  : 	LPCTSTR szErr = Error( _T( "%s min:%d, max:%d, index:%d" ), szMsg, nMin, nMax, nIndex ); 

  00074	83 c4 14	 add	 esp, 20			; 00000014H

; 1389 : 	VERIFY_RANGE_ASSERT( nIndex, 0, m_aPropItem.GetSize(), "GetItemProp range_error", NULL );

  00077	8b 15 30 02 00
	00		 mov	 edx, DWORD PTR ?prj@@3VCProject@@A+560
$LN129@EnchantBar:
; File C:\IAGOS\server\v18\Source\Source\WorldServer\ItemUpgrade.cpp

; 1283 : 	if( pItemMain->GetProp()->dwReferStat1 < BARUNA_D || pItemMain->GetProp()->dwReferStat1 > BARUNA_S )

  0007d	33 c9		 xor	 ecx, ecx
$LN32@EnchantBar:
  0007f	83 b9 d0 01 00
	00 04		 cmp	 DWORD PTR [ecx+464], 4
  00086	0f 82 79 05 00
	00		 jb	 $LN4@EnchantBar
; File C:\IAGOS\server\v18\Source\Source\_Common\Item.h

; 230  : 	ItemProp*	GetProp()	{	return prj.GetItemProp( m_dwItemId );	}

  0008c	8b 4f 0c	 mov	 ecx, DWORD PTR [edi+12]
; File C:\IAGOS\server\v18\Source\Source\_Common\Project.h

; 1389 : 	VERIFY_RANGE_ASSERT( nIndex, 0, m_aPropItem.GetSize(), "GetItemProp range_error", NULL );

  0008f	85 c9		 test	 ecx, ecx
  00091	78 0b		 js	 SHORT $LN51@EnchantBar
  00093	3b c8		 cmp	 ecx, eax
  00095	7d 07		 jge	 SHORT $LN51@EnchantBar
; File C:\IAGOS\server\v18\Source\Source\_Common\data.h

; 270  : 	if( dwIndex >= (DWORD)m_nMaxIndex )

  00097	73 1b		 jae	 SHORT $LN130@EnchantBar

; 271  : 		return NULL;
; 272  : 	return (T*) m_apOffset[ dwIndex ];

  00099	8b 04 8a	 mov	 eax, DWORD PTR [edx+ecx*4]
; File C:\IAGOS\server\v18\Source\Source\_Common\Project.h

; 1390 : 	return m_aPropItem.GetAt( nIndex ); 

  0009c	eb 18		 jmp	 SHORT $LN46@EnchantBar
$LN51@EnchantBar:

; 579  : 	LPCTSTR szErr = Error( _T( "%s min:%d, max:%d, index:%d" ), szMsg, nMin, nMax, nIndex ); 

  0009e	51		 push	 ecx
  0009f	50		 push	 eax
  000a0	6a 00		 push	 0
  000a2	68 00 00 00 00	 push	 OFFSET ??_C@_0BI@BEIFNGEL@GetItemProp?5range_error@
  000a7	68 00 00 00 00	 push	 OFFSET ??_C@_0BM@HMFGHCP@?$CFs?5min?3?$CFd?0?5max?3?$CFd?0?5index?3?$CFd@
  000ac	e8 00 00 00 00	 call	 ?Error@@YAPBDPBDZZ	; Error
  000b1	83 c4 14	 add	 esp, 20			; 00000014H
$LN130@EnchantBar:
; File C:\IAGOS\server\v18\Source\Source\WorldServer\ItemUpgrade.cpp

; 1283 : 	if( pItemMain->GetProp()->dwReferStat1 < BARUNA_D || pItemMain->GetProp()->dwReferStat1 > BARUNA_S )

  000b4	33 c0		 xor	 eax, eax
$LN46@EnchantBar:
  000b6	83 b8 d0 01 00
	00 08		 cmp	 DWORD PTR [eax+464], 8
  000bd	0f 87 42 05 00
	00		 ja	 $LN4@EnchantBar

; 1286 : 		return;
; 1287 : 	}
; 1288 : 	if( pItemMaterial->GetProp()->dwID != II_GEN_MAT_OPERCID )

  000c3	8b 8d 20 ff ff
	ff		 mov	 ecx, DWORD PTR _pItemMaterial$GSCopy$1$[ebp]
  000c9	e8 00 00 00 00	 call	 ?GetPropA@CItemElem@@QAEPAUItemProp@@XZ ; CItemElem::GetPropA
  000ce	81 38 89 1b 00
	00		 cmp	 DWORD PTR [eax], 7049	; 00001b89H
  000d4	0f 85 2b 05 00
	00		 jne	 $LN4@EnchantBar

; 1289 : 	{
; 1290 : 		pUser->AddDefinedText( TID_MMI_NEWSMELT_CID01 );
; 1291 : 		return;
; 1292 : 	}
; 1293 : 	if( *pAbilityOption >= GetMaxBarunaEnchantSize() )

  000da	8b 85 2c ff ff
	ff		 mov	 eax, DWORD PTR _this$GSCopy$1$[ebp]
  000e0	8b 1b		 mov	 ebx, DWORD PTR [ebx]
  000e2	3b 58 44	 cmp	 ebx, DWORD PTR [eax+68]
  000e5	7c 0a		 jl	 SHORT $LN6@EnchantBar

; 1294 : 	{
; 1295 : 		pUser->AddDefinedText( TID_UPGRADE_MAXOVER );			

  000e7	68 a2 08 00 00	 push	 2210			; 000008a2H

; 1296 : 		return;

  000ec	e9 19 05 00 00	 jmp	 $LN131@EnchantBar
$LN6@EnchantBar:

; 1297 : 	}
; 1298 : 
; 1299 : 	int nPercent = GetBarunaEnchantProp( *pAbilityOption );

  000f1	53		 push	 ebx
  000f2	8b c8		 mov	 ecx, eax
  000f4	e8 00 00 00 00	 call	 ?GetBarunaEnchantProp@CItemUpgrade@@QAEHH@Z ; CItemUpgrade::GetBarunaEnchantProp

; 1300 : 	int nDownPercent = GetBarunaEnchantDowngradeProp ( *pAbilityOption );

  000f9	53		 push	 ebx
  000fa	8b 9d 2c ff ff
	ff		 mov	 ebx, DWORD PTR _this$GSCopy$1$[ebp]
  00100	8b cb		 mov	 ecx, ebx
  00102	89 85 28 ff ff
	ff		 mov	 DWORD PTR _nPercent$1$[ebp], eax
  00108	e8 00 00 00 00	 call	 ?GetBarunaEnchantDowngradeProp@CItemUpgrade@@QAEHH@Z ; CItemUpgrade::GetBarunaEnchantDowngradeProp

; 1301 : 	// todo: pet level
; 1302 : 	BYTE nPetLevel = 0;
; 1303 : 	CItemElem* pItemElem	= pUser->m_Inventory.GetAtId( pUser->dwBarunaPetItemId );

  0010d	ff b6 d4 14 00
	00		 push	 DWORD PTR [esi+5332]
  00113	32 c9		 xor	 cl, cl
  00115	89 85 1c ff ff
	ff		 mov	 DWORD PTR _nDownPercent$1$[ebp], eax
  0011b	88 8d 33 ff ff
	ff		 mov	 BYTE PTR _nPetLevel$1$[ebp], cl
  00121	8d 8e fc 0a 00
	00		 lea	 ecx, DWORD PTR [esi+2812]
  00127	e8 00 00 00 00	 call	 ?GetAtId@?$CItemContainer@VCItemElem@@@@QAEPAVCItemElem@@K@Z ; CItemContainer<CItemElem>::GetAtId

; 1304 : 	if( pItemElem )

  0012c	85 c0		 test	 eax, eax
  0012e	74 0b		 je	 SHORT $LN99@EnchantBar

; 1305 : 		nPetLevel = pItemElem->m_nRepairNumber;

  00130	8a 40 6c	 mov	 al, BYTE PTR [eax+108]
  00133	88 85 33 ff ff
	ff		 mov	 BYTE PTR _nPetLevel$1$[ebp], al
  00139	eb 06		 jmp	 SHORT $LN7@EnchantBar
$LN99@EnchantBar:

; 1304 : 	if( pItemElem )

  0013b	8a 85 33 ff ff
	ff		 mov	 al, BYTE PTR _nPetLevel$1$[ebp]
$LN7@EnchantBar:

; 1306 : 
; 1307 : 	nPercent = (float)nPercent * GetBarunaPetMultiplicator( nPetLevel );

  00141	0f b6 c0	 movzx	 eax, al
  00144	8b cb		 mov	 ecx, ebx
  00146	50		 push	 eax
  00147	e8 00 00 00 00	 call	 ?GetBarunaPetMultiplicator@CItemUpgrade@@QAEMH@Z ; CItemUpgrade::GetBarunaPetMultiplicator
  0014c	66 0f 6e 85 28
	ff ff ff	 movd	 xmm0, DWORD PTR _nPercent$1$[ebp]

; 1308 : 
; 1309 : 	LogItemInfo aLogItem;

  00154	8d 8d 34 ff ff
	ff		 lea	 ecx, DWORD PTR _aLogItem$[ebp]
  0015a	0f 5b c0	 cvtdq2ps xmm0, xmm0
  0015d	f3 0f 11 85 28
	ff ff ff	 movss	 DWORD PTR tv1015[ebp], xmm0
  00165	d8 8d 28 ff ff
	ff		 fmul	 DWORD PTR tv1015[ebp]
  0016b	d9 9d 28 ff ff
	ff		 fstp	 DWORD PTR tv1013[ebp]
  00171	e8 00 00 00 00	 call	 ??0_LogItemInfo@@QAE@XZ	; _LogItemInfo::_LogItemInfo

; 1310 : 	aLogItem.SendName = pUser->GetName();

  00176	6a 00		 push	 0
  00178	8b ce		 mov	 ecx, esi
  0017a	e8 00 00 00 00	 call	 ?GetName@CMover@@QAEPBDH@Z ; CMover::GetName

; 1311 : 	aLogItem.RecvName = "UPGRADEBARUNA";
; 1312 : 	aLogItem.WorldId = pUser->GetWorld()->GetID();
; 1313 : 	aLogItem.nPetLevel = nPetLevel;

  0017f	8a 8d 33 ff ff
	ff		 mov	 cl, BYTE PTR _nPetLevel$1$[ebp]

; 1314 : 	aLogItem.dwPetExp = 0;
; 1315 : 
; 1316 : 	BYTE nProtectStrenght = 0;

  00185	32 db		 xor	 bl, bl

; 1317 : 
; 1318 : 	if( IsUsableItem( pProtectScroll ))

  00187	ff b5 24 ff ff
	ff		 push	 DWORD PTR _pProtectScroll$GSCopy$1$[ebp]
  0018d	89 85 38 ff ff
	ff		 mov	 DWORD PTR _aLogItem$[ebp+4], eax
  00193	8b 86 6c 01 00
	00		 mov	 eax, DWORD PTR [esi+364]
  00199	c7 85 3c ff ff
	ff 00 00 00 00	 mov	 DWORD PTR _aLogItem$[ebp+8], OFFSET ??_C@_0O@EJMCNMBD@UPGRADEBARUNA@
  001a3	8b 00		 mov	 eax, DWORD PTR [eax]
  001a5	89 85 40 ff ff
	ff		 mov	 DWORD PTR _aLogItem$[ebp+12], eax
  001ab	88 4d e9	 mov	 BYTE PTR _aLogItem$[ebp+181], cl
  001ae	c7 45 ec 00 00
	00 00		 mov	 DWORD PTR _aLogItem$[ebp+184], 0
  001b5	e8 00 00 00 00	 call	 ?IsUsableItem@@YAHPAVCItemBase@@@Z ; IsUsableItem
  001ba	83 c4 04	 add	 esp, 4
  001bd	85 c0		 test	 eax, eax
  001bf	74 1b		 je	 SHORT $LN12@EnchantBar

; 1319 : 	{
; 1320 : 		if( pProtectScroll->GetProp()->dwID == II_SYS_SYS_SCR_BARUNASMELPROT )

  001c1	8b 9d 24 ff ff
	ff		 mov	 ebx, DWORD PTR _pProtectScroll$GSCopy$1$[ebp]
  001c7	8b cb		 mov	 ecx, ebx
  001c9	e8 00 00 00 00	 call	 ?GetPropA@CItemElem@@QAEPAUItemProp@@XZ ; CItemElem::GetPropA
  001ce	81 38 06 50 00
	00		 cmp	 DWORD PTR [eax], 20486	; 00005006H
  001d4	0f 85 2f 01 00
	00		 jne	 $LN9@EnchantBar

; 1321 : 			nProtectStrenght = 1;

  001da	b3 01		 mov	 bl, 1
$LN12@EnchantBar:
; File C:\IAGOS\server\v18\Source\Source\_Common\xUtil.h

; 16   : 	g_next = g_next * 1103515245 + 12345;// + nRandomSeed[ i++ ];

  001dc	69 0d 00 00 00
	00 6d 4e c6 41	 imul	 ecx, DWORD PTR ?g_next@@3KA, 1103515245 ; g_next

; 22   : 	return  xRand() % num;

  001e6	b8 59 17 b7 d1	 mov	 eax, -776530087		; d1b71759H

; 16   : 	g_next = g_next * 1103515245 + 12345;// + nRandomSeed[ i++ ];

  001eb	81 c1 39 30 00
	00		 add	 ecx, 12345		; 00003039H

; 22   : 	return  xRand() % num;

  001f1	f7 e1		 mul	 ecx

; 16   : 	g_next = g_next * 1103515245 + 12345;// + nRandomSeed[ i++ ];

  001f3	89 0d 00 00 00
	00		 mov	 DWORD PTR ?g_next@@3KA, ecx ; g_next

; 22   : 	return  xRand() % num;

  001f9	c1 ea 0d	 shr	 edx, 13			; 0000000dH
  001fc	69 c2 10 27 00
	00		 imul	 eax, edx, 10000
  00202	2b c8		 sub	 ecx, eax
; File C:\IAGOS\server\v18\Source\Source\WorldServer\ItemUpgrade.cpp

; 1332 : 	if( (int)( xRandom( 10000 ) ) > nPercent )

  00204	f3 0f 2c 85 28
	ff ff ff	 cvttss2si eax, DWORD PTR tv1013[ebp]
  0020c	3b c8		 cmp	 ecx, eax
  0020e	8b ce		 mov	 ecx, esi
  00210	0f 8e cf 02 00
	00		 jle	 $LN13@EnchantBar

; 1333 : 	{
; 1334 : 		pUser->AddDefinedText( TID_UPGRADE_FAIL );

  00216	68 9e 08 00 00	 push	 2206			; 0000089eH
  0021b	e8 00 00 00 00	 call	 ?AddDefinedText@CUser@@QAEXH@Z ; CUser::AddDefinedText

; 1335 : 		pUser->AddPlaySound( SND_INF_UPGRADEFAIL );

  00220	6a 0d		 push	 13			; 0000000dH
  00222	8b ce		 mov	 ecx, esi
  00224	e8 00 00 00 00	 call	 ?AddPlaySound@CUser@@QAEXK@Z ; CUser::AddPlaySound
; File C:\IAGOS\server\v18\Source\Source\_Common\Mover.h

; 1740 : 		if( GetAdjParam(DST_CHRSTATE) & CHS_INVISIBILITY )	// ĖČ╣²┼§ĖĒ╚Ł░Ī ░╔Ę╚┤┬░Ī?

  00229	6a 40		 push	 64			; 00000040H
  0022b	8b ce		 mov	 ecx, esi
  0022d	e8 00 00 00 00	 call	 ?GetAdjParam@CMover@@QAEHH@Z ; CMover::GetAdjParam
  00232	a9 00 04 00 00	 test	 eax, 1024		; 00000400H
  00237	0f 85 8f 00 00
	00		 jne	 $LN15@EnchantBar
; File C:\IAGOS\server\v18\Source\Source\WorldServer\ItemUpgrade.cpp

; 1337 : 		if((pUser->IsMode( TRANSPARENT_MODE ) ) == 0)

  0023d	f6 86 40 02 00
	00 02		 test	 BYTE PTR [esi+576], 2
  00244	0f 85 82 00 00
	00		 jne	 $LN15@EnchantBar
; File C:\IAGOS\server\v18\Source\Source\_Common\Obj.h

; 215  : 	D3DXVECTOR3		GetPos()	{ return m_vPos; }

  0024a	f3 0f 7e 86 60
	01 00 00	 movq	 xmm0, QWORD PTR [esi+352]
; File C:\IAGOS\server\v18\Source\Source\WorldServer\ItemUpgrade.cpp

; 1338 : 			g_UserMng.AddCreateSfxObj((CMover *)pUser, XI_INT_FAIL, pUser->GetPos().x, pUser->GetPos().y, pUser->GetPos().z);

  00252	b9 00 00 00 00	 mov	 ecx, OFFSET ?g_UserMng@@3VCUserMng@@A ; g_UserMng
; File C:\IAGOS\server\v18\Source\Source\_Common\Obj.h

; 215  : 	D3DXVECTOR3		GetPos()	{ return m_vPos; }

  00257	8b 86 68 01 00
	00		 mov	 eax, DWORD PTR [esi+360]
  0025d	66 0f d6 85 10
	ff ff ff	 movq	 QWORD PTR $T5[ebp], xmm0
  00265	f3 0f 7e c0	 movq	 xmm0, xmm0
  00269	66 0f d6 85 04
	ff ff ff	 movq	 QWORD PTR $T3[ebp], xmm0
  00271	f3 0f 7e 86 60
	01 00 00	 movq	 xmm0, QWORD PTR [esi+352]
; File C:\IAGOS\server\v18\Source\Source\WorldServer\ItemUpgrade.cpp

; 1338 : 			g_UserMng.AddCreateSfxObj((CMover *)pUser, XI_INT_FAIL, pUser->GetPos().x, pUser->GetPos().y, pUser->GetPos().z);

  00279	6a 00		 push	 0
  0027b	83 ec 0c	 sub	 esp, 12			; 0000000cH
; File C:\IAGOS\server\v18\Source\Source\_Common\Obj.h

; 215  : 	D3DXVECTOR3		GetPos()	{ return m_vPos; }

  0027e	66 0f d6 85 f8
	fe ff ff	 movq	 QWORD PTR $T1[ebp], xmm0
  00286	89 85 18 ff ff
	ff		 mov	 DWORD PTR $T5[ebp+8], eax
; File C:\IAGOS\server\v18\Source\Source\WorldServer\ItemUpgrade.cpp

; 1338 : 			g_UserMng.AddCreateSfxObj((CMover *)pUser, XI_INT_FAIL, pUser->GetPos().x, pUser->GetPos().y, pUser->GetPos().z);

  0028c	f3 0f 10 85 18
	ff ff ff	 movss	 xmm0, DWORD PTR $T5[ebp+8]
; File C:\IAGOS\server\v18\Source\Source\_Common\Obj.h

; 215  : 	D3DXVECTOR3		GetPos()	{ return m_vPos; }

  00294	89 85 0c ff ff
	ff		 mov	 DWORD PTR $T3[ebp+8], eax
; File C:\IAGOS\server\v18\Source\Source\WorldServer\ItemUpgrade.cpp

; 1338 : 			g_UserMng.AddCreateSfxObj((CMover *)pUser, XI_INT_FAIL, pUser->GetPos().x, pUser->GetPos().y, pUser->GetPos().z);

  0029a	f3 0f 11 44 24
	08		 movss	 DWORD PTR [esp+8], xmm0
  002a0	f3 0f 10 85 08
	ff ff ff	 movss	 xmm0, DWORD PTR $T3[ebp+4]
  002a8	f3 0f 11 44 24
	04		 movss	 DWORD PTR [esp+4], xmm0
  002ae	f3 0f 10 85 f8
	fe ff ff	 movss	 xmm0, DWORD PTR $T1[ebp]
  002b6	f3 0f 11 04 24	 movss	 DWORD PTR [esp], xmm0
  002bb	68 b3 06 00 00	 push	 1715			; 000006b3H
  002c0	56		 push	 esi
; File C:\IAGOS\server\v18\Source\Source\_Common\Obj.h

; 215  : 	D3DXVECTOR3		GetPos()	{ return m_vPos; }

  002c1	89 85 00 ff ff
	ff		 mov	 DWORD PTR $T1[ebp+8], eax
; File C:\IAGOS\server\v18\Source\Source\WorldServer\ItemUpgrade.cpp

; 1338 : 			g_UserMng.AddCreateSfxObj((CMover *)pUser, XI_INT_FAIL, pUser->GetPos().x, pUser->GetPos().y, pUser->GetPos().z);

  002c7	e8 00 00 00 00	 call	 ?AddCreateSfxObj@CUserMng@@QAEXPAVCCtrl@@KMMMH@Z ; CUserMng::AddCreateSfxObj
$LN15@EnchantBar:

; 1339 : 
; 1340 : 		if( nProtectStrenght == 0 )

  002cc	84 db		 test	 bl, bl
  002ce	75 59		 jne	 SHORT $LN16@EnchantBar

; 1341 : 		{
; 1342 : 			aLogItem.Action = "L";
; 1343 : 			g_DPSrvr.OnLogItem( aLogItem, pItemMain, pItemMain->m_nItemNum );

  002d0	0f bf 47 74	 movsx	 eax, WORD PTR [edi+116]
  002d4	b9 00 00 00 00	 mov	 ecx, OFFSET ?g_DPSrvr@@3VCDPSrvr@@A ; g_DPSrvr
  002d9	50		 push	 eax
  002da	57		 push	 edi
  002db	8d 85 34 ff ff
	ff		 lea	 eax, DWORD PTR _aLogItem$[ebp]
  002e1	c7 85 34 ff ff
	ff 00 00 00 00	 mov	 DWORD PTR _aLogItem$[ebp], OFFSET ??_C@_01OCOKONAJ@L@
  002eb	50		 push	 eax
  002ec	e8 00 00 00 00	 call	 ?OnLogItem@CDPSrvr@@QAEXAAU_LogItemInfo@@PAVCItemElem@@H@Z ; CDPSrvr::OnLogItem

; 1344 : 			pUser->RemoveItem( (BYTE)( pItemMain->m_dwObjId ), (short)1 );

  002f1	0f b6 47 04	 movzx	 eax, BYTE PTR [edi+4]
  002f5	8b ce		 mov	 ecx, esi
  002f7	6a 01		 push	 1
  002f9	50		 push	 eax
  002fa	e8 00 00 00 00	 call	 ?RemoveItem@CMover@@QAEXEF@Z ; CMover::RemoveItem

; 1345 : 			pUser->AddDefinedText( TID_MMI_NEWSMELT_NEWSMELT06 );

  002ff	68 95 11 00 00	 push	 4501			; 00001195H

; 1346 : 		}else

  00304	e9 0c 01 00 00	 jmp	 $LN132@EnchantBar
$LN9@EnchantBar:

; 1322 : 		else
; 1323 : 		if( pProtectScroll->GetProp()->dwID == II_SYS_SYS_SCR_BARUNASMELPROT02 )

  00309	8b cb		 mov	 ecx, ebx
  0030b	e8 00 00 00 00	 call	 ?GetPropA@CItemElem@@QAEPAUItemProp@@XZ ; CItemElem::GetPropA
  00310	81 38 4f 51 00
	00		 cmp	 DWORD PTR [eax], 20815	; 0000514fH
  00316	75 07		 jne	 SHORT $LN11@EnchantBar

; 1324 : 			nProtectStrenght = 2;

  00318	b3 02		 mov	 bl, 2
  0031a	e9 bd fe ff ff	 jmp	 $LN12@EnchantBar
$LN11@EnchantBar:

; 1325 : 		else
; 1326 : 		{
; 1327 : 			pUser->AddDefinedText( TID_SBEVE_NOTUSEITEM );

  0031f	68 ff 01 00 00	 push	 511			; 000001ffH

; 1328 : 			return;

  00324	e9 e1 02 00 00	 jmp	 $LN131@EnchantBar
$LN16@EnchantBar:

; 1347 : 		if( nProtectStrenght == 1 && *pAbilityOption > 0 )

  00329	80 fb 01	 cmp	 bl, 1
  0032c	0f 85 a4 00 00
	00		 jne	 $LN18@EnchantBar
  00332	83 7f 64 00	 cmp	 DWORD PTR [edi+100], 0
  00336	0f 8e e0 00 00
	00		 jle	 $LN22@EnchantBar
; File C:\IAGOS\server\v18\Source\Source\_Common\xUtil.h

; 16   : 	g_next = g_next * 1103515245 + 12345;// + nRandomSeed[ i++ ];

  0033c	69 0d 00 00 00
	00 6d 4e c6 41	 imul	 ecx, DWORD PTR ?g_next@@3KA, 1103515245 ; g_next

; 22   : 	return  xRand() % num;

  00346	b8 59 17 b7 d1	 mov	 eax, -776530087		; d1b71759H

; 16   : 	g_next = g_next * 1103515245 + 12345;// + nRandomSeed[ i++ ];

  0034b	81 c1 39 30 00
	00		 add	 ecx, 12345		; 00003039H

; 22   : 	return  xRand() % num;

  00351	f7 e1		 mul	 ecx

; 16   : 	g_next = g_next * 1103515245 + 12345;// + nRandomSeed[ i++ ];

  00353	89 0d 00 00 00
	00		 mov	 DWORD PTR ?g_next@@3KA, ecx ; g_next

; 22   : 	return  xRand() % num;

  00359	c1 ea 0d	 shr	 edx, 13			; 0000000dH
  0035c	69 c2 10 27 00
	00		 imul	 eax, edx, 10000
  00362	2b c8		 sub	 ecx, eax
; File C:\IAGOS\server\v18\Source\Source\WorldServer\ItemUpgrade.cpp

; 1349 : 			if((int)(xRandom(10000))< nDownPercent)

  00364	3b 8d 1c ff ff
	ff		 cmp	 ecx, DWORD PTR _nDownPercent$1$[ebp]
  0036a	7d 11		 jge	 SHORT $LN20@EnchantBar

; 1350 : 			{
; 1351 : 				aLogItem.Action = "F";

  0036c	c7 85 34 ff ff
	ff 00 00 00 00	 mov	 DWORD PTR _aLogItem$[ebp], OFFSET ??_C@_01BIAFAFID@F@

; 1352 : 				g_DPSrvr.OnLogItem( aLogItem, pItemMain, pItemMain->m_nItemNum );
; 1353 : 				pUser->RemoveItem( (BYTE)( pProtectScroll->m_dwObjId ), (short)1 );
; 1354 : 				pUser->AddDefinedText( TID_MMI_NEWSMELT_NEWSMELT05 );

  00376	bb 94 11 00 00	 mov	 ebx, 4500		; 00001194H

; 1355 : 			}

  0037b	eb 24		 jmp	 SHORT $LN133@EnchantBar
$LN20@EnchantBar:

; 1356 : 			else
; 1357 : 			{
; 1358 : 				pUser->UpdateItem( (BYTE)pItemMain->m_dwObjId, UI_AO,  pItemMain->GetAbilityOption() - 1 );

  0037d	8b 47 64	 mov	 eax, DWORD PTR [edi+100]
  00380	8b ce		 mov	 ecx, esi
  00382	6a 00		 push	 0
  00384	48		 dec	 eax
  00385	50		 push	 eax
  00386	0f b6 47 04	 movzx	 eax, BYTE PTR [edi+4]
  0038a	6a 03		 push	 3
  0038c	50		 push	 eax
  0038d	e8 00 00 00 00	 call	 ?UpdateItem@CMover@@QAEXEDKK@Z ; CMover::UpdateItem

; 1359 : 				aLogItem.Action = "M";

  00392	c7 85 34 ff ff
	ff 00 00 00 00	 mov	 DWORD PTR _aLogItem$[ebp], OFFSET ??_C@_01PLPBNMEI@M@

; 1360 : 				g_DPSrvr.OnLogItem( aLogItem, pItemMain, pItemMain->m_nItemNum );
; 1361 : 				pUser->RemoveItem( (BYTE)( pProtectScroll->m_dwObjId ), (short)1 );
; 1362 : 				pUser->AddDefinedText( TID_MMI_NEWSMELT_NEWSMELT04 );

  0039c	bb 93 11 00 00	 mov	 ebx, 4499		; 00001193H
$LN133@EnchantBar:

; 1363 : 			}
; 1364 : 		}else

  003a1	b8 74 00 00 00	 mov	 eax, 116		; 00000074H
  003a6	8d 8d 34 ff ff
	ff		 lea	 ecx, DWORD PTR _aLogItem$[ebp]
  003ac	8b d7		 mov	 edx, edi
  003ae	0f bf 04 07	 movsx	 eax, WORD PTR [edi+eax]
  003b2	50		 push	 eax
  003b3	52		 push	 edx
  003b4	51		 push	 ecx
  003b5	b9 00 00 00 00	 mov	 ecx, OFFSET ?g_DPSrvr@@3VCDPSrvr@@A ; g_DPSrvr
  003ba	e8 00 00 00 00	 call	 ?OnLogItem@CDPSrvr@@QAEXAAU_LogItemInfo@@PAVCItemElem@@H@Z ; CDPSrvr::OnLogItem
  003bf	8b 85 24 ff ff
	ff		 mov	 eax, DWORD PTR _pProtectScroll$GSCopy$1$[ebp]
  003c5	8b ce		 mov	 ecx, esi
  003c7	6a 01		 push	 1
  003c9	0f b6 40 04	 movzx	 eax, BYTE PTR [eax+4]
  003cd	50		 push	 eax
  003ce	e8 00 00 00 00	 call	 ?RemoveItem@CMover@@QAEXEF@Z ; CMover::RemoveItem
  003d3	53		 push	 ebx
  003d4	eb 3f		 jmp	 SHORT $LN132@EnchantBar
$LN18@EnchantBar:

; 1365 : 		if( nProtectStrenght == 2 )

  003d6	80 fb 02	 cmp	 bl, 2
  003d9	75 41		 jne	 SHORT $LN22@EnchantBar

; 1366 : 		{
; 1367 : 			aLogItem.Action = "F";
; 1368 : 			g_DPSrvr.OnLogItem( aLogItem, pItemMain, pItemMain->m_nItemNum );

  003db	0f bf 47 74	 movsx	 eax, WORD PTR [edi+116]
  003df	b9 00 00 00 00	 mov	 ecx, OFFSET ?g_DPSrvr@@3VCDPSrvr@@A ; g_DPSrvr
  003e4	50		 push	 eax
  003e5	57		 push	 edi
  003e6	8d 85 34 ff ff
	ff		 lea	 eax, DWORD PTR _aLogItem$[ebp]
  003ec	c7 85 34 ff ff
	ff 00 00 00 00	 mov	 DWORD PTR _aLogItem$[ebp], OFFSET ??_C@_01BIAFAFID@F@
  003f6	50		 push	 eax
  003f7	e8 00 00 00 00	 call	 ?OnLogItem@CDPSrvr@@QAEXAAU_LogItemInfo@@PAVCItemElem@@H@Z ; CDPSrvr::OnLogItem

; 1369 : 			pUser->RemoveItem( (BYTE)( pProtectScroll->m_dwObjId ), (short)1 );

  003fc	8b 85 24 ff ff
	ff		 mov	 eax, DWORD PTR _pProtectScroll$GSCopy$1$[ebp]
  00402	8b ce		 mov	 ecx, esi
  00404	6a 01		 push	 1
  00406	0f b6 40 04	 movzx	 eax, BYTE PTR [eax+4]
  0040a	50		 push	 eax
  0040b	e8 00 00 00 00	 call	 ?RemoveItem@CMover@@QAEXEF@Z ; CMover::RemoveItem

; 1370 : 			pUser->AddDefinedText( TID_MMI_NEWSMELT_NEWSMELT05 );

  00410	68 94 11 00 00	 push	 4500			; 00001194H
$LN132@EnchantBar:

; 1371 : 		}
; 1372 : 		CItemElem* pItemElem	= pUser->m_Inventory.GetAtId( pUser->dwBarunaPetItemId );

  00415	8b ce		 mov	 ecx, esi
  00417	e8 00 00 00 00	 call	 ?AddDefinedText@CUser@@QAEXH@Z ; CUser::AddDefinedText
$LN22@EnchantBar:
  0041c	ff b6 d4 14 00
	00		 push	 DWORD PTR [esi+5332]
  00422	8d 8e fc 0a 00
	00		 lea	 ecx, DWORD PTR [esi+2812]
  00428	e8 00 00 00 00	 call	 ?GetAtId@?$CItemContainer@VCItemElem@@@@QAEPAVCItemElem@@K@Z ; CItemContainer<CItemElem>::GetAtId
  0042d	8b f8		 mov	 edi, eax

; 1373 : 		if( pItemElem )

  0042f	85 ff		 test	 edi, edi
  00431	0f 84 86 01 00
	00		 je	 $LN14@EnchantBar

; 1374 : 		{
; 1375 : 			if( pItemElem->m_nRepairNumber >= m_mapPetFailForLevel.size())

  00437	8b 8d 2c ff ff
	ff		 mov	 ecx, DWORD PTR _this$GSCopy$1$[ebp]
  0043d	0f b6 57 6c	 movzx	 edx, BYTE PTR [edi+108]
  00441	3b 51 3c	 cmp	 edx, DWORD PTR [ecx+60]
  00444	0f 83 c7 01 00
	00		 jae	 $LN1@EnchantBar

; 1376 : 			{
; 1377 : 				return; // max lvl
; 1378 : 			}
; 1379 : 			if( pItemElem->m_nRepair + 1 >= GetBarunaFailForNextLevel( pItemElem->m_nRepairNumber ))

  0044a	8b 47 68	 mov	 eax, DWORD PTR [edi+104]
  0044d	52		 push	 edx
  0044e	8d 58 01	 lea	 ebx, DWORD PTR [eax+1]
  00451	8a 47 04	 mov	 al, BYTE PTR [edi+4]
  00454	89 85 2c ff ff
	ff		 mov	 DWORD PTR tv888[ebp], eax
  0045a	e8 00 00 00 00	 call	 ?GetBarunaFailForNextLevel@CItemUpgrade@@QAEHH@Z ; CItemUpgrade::GetBarunaFailForNextLevel
  0045f	8b ce		 mov	 ecx, esi
  00461	6a 00		 push	 0
  00463	3b d8		 cmp	 ebx, eax
  00465	7c 6b		 jl	 SHORT $LN25@EnchantBar

; 1380 : 			{
; 1381 : 				//levelup
; 1382 : 				pUser->UpdateItem( pItemElem->m_dwObjId, UI_REPAIR_NUM, NULL );

  00467	6a 00		 push	 0
  00469	6a 0c		 push	 12			; 0000000cH
  0046b	ff b5 2c ff ff
	ff		 push	 DWORD PTR tv888[ebp]
  00471	e8 00 00 00 00	 call	 ?UpdateItem@CMover@@QAEXEDKK@Z ; CMover::UpdateItem

; 1383 : 				pUser->UpdateItem( pItemElem->m_dwObjId, UI_RN, pItemElem->m_nRepairNumber + 1 );

  00476	0f b6 47 6c	 movzx	 eax, BYTE PTR [edi+108]
  0047a	8b ce		 mov	 ecx, esi
  0047c	6a 00		 push	 0
  0047e	40		 inc	 eax
  0047f	50		 push	 eax
  00480	0f b6 47 04	 movzx	 eax, BYTE PTR [edi+4]
  00484	6a 02		 push	 2
  00486	50		 push	 eax
  00487	e8 00 00 00 00	 call	 ?UpdateItem@CMover@@QAEXEDKK@Z ; CMover::UpdateItem

; 1384 : 				CMover* pBarunaPet = NULL;
; 1385 : 				pBarunaPet = prj.GetMover( pUser->GetEatPetId( ) );

  0048c	ff b6 74 06 00
	00		 push	 DWORD PTR [esi+1652]
  00492	b9 00 00 00 00	 mov	 ecx, OFFSET ?prj@@3VCProject@@A ; prj
  00497	e8 00 00 00 00	 call	 ?GetMover@CProject@@QAEPAVCMover@@K@Z ; CProject::GetMover

; 1386 :  				if( pBarunaPet )

  0049c	85 c0		 test	 eax, eax
  0049e	0f 84 19 01 00
	00		 je	 $LN14@EnchantBar

; 1387 : 				{
; 1388 : 					g_UserMng.AddCreateSfxObj( pBarunaPet, XI_GEN_LEVEL_UP01 );

  004a4	6a 00		 push	 0
  004a6	83 ec 0c	 sub	 esp, 12			; 0000000cH
  004a9	b9 00 00 00 00	 mov	 ecx, OFFSET ?g_UserMng@@3VCUserMng@@A ; g_UserMng
  004ae	c7 44 24 08 00
	00 00 00	 mov	 DWORD PTR [esp+8], 0
  004b6	c7 44 24 04 00
	00 00 00	 mov	 DWORD PTR [esp+4], 0
  004be	c7 04 24 00 00
	00 00		 mov	 DWORD PTR [esp], 0
  004c5	6a 2a		 push	 42			; 0000002aH
  004c7	50		 push	 eax
  004c8	e8 00 00 00 00	 call	 ?AddCreateSfxObj@CUserMng@@QAEXPAVCCtrl@@KMMMH@Z ; CUserMng::AddCreateSfxObj

; 1389 : 				}
; 1390 : 			}

  004cd	e9 eb 00 00 00	 jmp	 $LN14@EnchantBar
$LN25@EnchantBar:

; 1391 : 			else
; 1392 : 				pUser->UpdateItem( pItemElem->m_dwObjId, UI_REPAIR_NUM, pItemElem->m_nRepair + 1 );

  004d2	53		 push	 ebx
  004d3	6a 0c		 push	 12			; 0000000cH
  004d5	ff b5 2c ff ff
	ff		 push	 DWORD PTR tv888[ebp]
  004db	e8 00 00 00 00	 call	 ?UpdateItem@CMover@@QAEXEDKK@Z ; CMover::UpdateItem

; 1393 : 		}
; 1394 : 	}

  004e0	e9 d8 00 00 00	 jmp	 $LN14@EnchantBar
$LN13@EnchantBar:

; 1395 : 	else
; 1396 : 	{
; 1397 : 		pUser->AddDefinedText( TID_MMI_NEWSMELT_NEWSMELT03 );

  004e5	68 92 11 00 00	 push	 4498			; 00001192H
  004ea	e8 00 00 00 00	 call	 ?AddDefinedText@CUser@@QAEXH@Z ; CUser::AddDefinedText

; 1398 : 		pUser->AddPlaySound( SND_INF_UPGRADESUCCESS );

  004ef	6a 0e		 push	 14			; 0000000eH
  004f1	8b ce		 mov	 ecx, esi
  004f3	e8 00 00 00 00	 call	 ?AddPlaySound@CUser@@QAEXK@Z ; CUser::AddPlaySound
; File C:\IAGOS\server\v18\Source\Source\_Common\Mover.h

; 1740 : 		if( GetAdjParam(DST_CHRSTATE) & CHS_INVISIBILITY )	// ĖČ╣²┼§ĖĒ╚Ł░Ī ░╔Ę╚┤┬░Ī?

  004f8	6a 40		 push	 64			; 00000040H
  004fa	8b ce		 mov	 ecx, esi
  004fc	e8 00 00 00 00	 call	 ?GetAdjParam@CMover@@QAEHH@Z ; CMover::GetAdjParam
  00501	a9 00 04 00 00	 test	 eax, 1024		; 00000400H
  00506	75 7f		 jne	 SHORT $LN28@EnchantBar
; File C:\IAGOS\server\v18\Source\Source\WorldServer\ItemUpgrade.cpp

; 1400 : 		if((pUser->IsMode( TRANSPARENT_MODE ) ) == 0)

  00508	f6 86 40 02 00
	00 02		 test	 BYTE PTR [esi+576], 2
  0050f	75 76		 jne	 SHORT $LN28@EnchantBar
; File C:\IAGOS\server\v18\Source\Source\_Common\Obj.h

; 215  : 	D3DXVECTOR3		GetPos()	{ return m_vPos; }

  00511	f3 0f 7e 86 60
	01 00 00	 movq	 xmm0, QWORD PTR [esi+352]
; File C:\IAGOS\server\v18\Source\Source\WorldServer\ItemUpgrade.cpp

; 1401 : 			g_UserMng.AddCreateSfxObj((CMover *)pUser, XI_INT_SUCCESS, pUser->GetPos().x, pUser->GetPos().y, pUser->GetPos().z);

  00519	b9 00 00 00 00	 mov	 ecx, OFFSET ?g_UserMng@@3VCUserMng@@A ; g_UserMng
; File C:\IAGOS\server\v18\Source\Source\_Common\Obj.h

; 215  : 	D3DXVECTOR3		GetPos()	{ return m_vPos; }

  0051e	8b 86 68 01 00
	00		 mov	 eax, DWORD PTR [esi+360]
  00524	66 0f d6 85 f8
	fe ff ff	 movq	 QWORD PTR $T2[ebp], xmm0
  0052c	f3 0f 7e c0	 movq	 xmm0, xmm0
  00530	66 0f d6 85 04
	ff ff ff	 movq	 QWORD PTR $T4[ebp], xmm0
  00538	f3 0f 7e 86 60
	01 00 00	 movq	 xmm0, QWORD PTR [esi+352]
; File C:\IAGOS\server\v18\Source\Source\WorldServer\ItemUpgrade.cpp

; 1401 : 			g_UserMng.AddCreateSfxObj((CMover *)pUser, XI_INT_SUCCESS, pUser->GetPos().x, pUser->GetPos().y, pUser->GetPos().z);

  00540	6a 00		 push	 0
  00542	83 ec 0c	 sub	 esp, 12			; 0000000cH
; File C:\IAGOS\server\v18\Source\Source\_Common\Obj.h

; 215  : 	D3DXVECTOR3		GetPos()	{ return m_vPos; }

  00545	66 0f d6 85 10
	ff ff ff	 movq	 QWORD PTR $T6[ebp], xmm0
  0054d	89 85 00 ff ff
	ff		 mov	 DWORD PTR $T2[ebp+8], eax
; File C:\IAGOS\server\v18\Source\Source\WorldServer\ItemUpgrade.cpp

; 1401 : 			g_UserMng.AddCreateSfxObj((CMover *)pUser, XI_INT_SUCCESS, pUser->GetPos().x, pUser->GetPos().y, pUser->GetPos().z);

  00553	f3 0f 10 85 00
	ff ff ff	 movss	 xmm0, DWORD PTR $T2[ebp+8]
  0055b	f3 0f 11 44 24
	08		 movss	 DWORD PTR [esp+8], xmm0
  00561	f3 0f 10 85 08
	ff ff ff	 movss	 xmm0, DWORD PTR $T4[ebp+4]
  00569	f3 0f 11 44 24
	04		 movss	 DWORD PTR [esp+4], xmm0
  0056f	f3 0f 10 85 10
	ff ff ff	 movss	 xmm0, DWORD PTR $T6[ebp]
  00577	f3 0f 11 04 24	 movss	 DWORD PTR [esp], xmm0
  0057c	68 b2 06 00 00	 push	 1714			; 000006b2H
  00581	56		 push	 esi
  00582	e8 00 00 00 00	 call	 ?AddCreateSfxObj@CUserMng@@QAEXPAVCCtrl@@KMMMH@Z ; CUserMng::AddCreateSfxObj
$LN28@EnchantBar:

; 1402 : 
; 1403 : 		pUser->UpdateItem( (BYTE)pItemMain->m_dwObjId, UI_AO,  pItemMain->GetAbilityOption()+1 );

  00587	8b 47 64	 mov	 eax, DWORD PTR [edi+100]
  0058a	8b ce		 mov	 ecx, esi
  0058c	6a 00		 push	 0
  0058e	40		 inc	 eax
  0058f	50		 push	 eax
  00590	0f b6 47 04	 movzx	 eax, BYTE PTR [edi+4]
  00594	6a 03		 push	 3
  00596	50		 push	 eax
  00597	e8 00 00 00 00	 call	 ?UpdateItem@CMover@@QAEXEDKK@Z ; CMover::UpdateItem

; 1404 : 		aLogItem.Action = "H";
; 1405 : 		g_DPSrvr.OnLogItem( aLogItem, pItemMain, pItemMain->m_nItemNum );

  0059c	0f bf 47 74	 movsx	 eax, WORD PTR [edi+116]
  005a0	b9 00 00 00 00	 mov	 ecx, OFFSET ?g_DPSrvr@@3VCDPSrvr@@A ; g_DPSrvr
  005a5	50		 push	 eax
  005a6	57		 push	 edi
  005a7	8d 85 34 ff ff
	ff		 lea	 eax, DWORD PTR _aLogItem$[ebp]
  005ad	c7 85 34 ff ff
	ff 00 00 00 00	 mov	 DWORD PTR _aLogItem$[ebp], OFFSET ??_C@_01IGIGCIAN@H@
  005b7	50		 push	 eax
  005b8	e8 00 00 00 00	 call	 ?OnLogItem@CDPSrvr@@QAEXAAU_LogItemInfo@@PAVCItemElem@@H@Z ; CDPSrvr::OnLogItem
$LN14@EnchantBar:

; 1406 : 	}
; 1407 : 	aLogItem.Action = "N";
; 1408 : 	g_DPSrvr.OnLogItem( aLogItem, pItemMaterial, pItemMaterial->m_nItemNum );

  005bd	8b 9d 20 ff ff
	ff		 mov	 ebx, DWORD PTR _pItemMaterial$GSCopy$1$[ebp]
  005c3	b9 00 00 00 00	 mov	 ecx, OFFSET ?g_DPSrvr@@3VCDPSrvr@@A ; g_DPSrvr
  005c8	c7 85 34 ff ff
	ff 00 00 00 00	 mov	 DWORD PTR _aLogItem$[ebp], OFFSET ??_C@_01NANMIPIL@N@
  005d2	0f bf 43 74	 movsx	 eax, WORD PTR [ebx+116]
  005d6	50		 push	 eax
  005d7	53		 push	 ebx
  005d8	8d 85 34 ff ff
	ff		 lea	 eax, DWORD PTR _aLogItem$[ebp]
  005de	50		 push	 eax
  005df	e8 00 00 00 00	 call	 ?OnLogItem@CDPSrvr@@QAEXAAU_LogItemInfo@@PAVCItemElem@@H@Z ; CDPSrvr::OnLogItem

; 1409 : 
; 1410 : 	pUser->RemoveItem( (BYTE)( pItemMaterial->m_dwObjId ), (short)1 );

  005e4	0f b6 43 04	 movzx	 eax, BYTE PTR [ebx+4]
  005e8	8b ce		 mov	 ecx, esi
  005ea	6a 01		 push	 1
  005ec	50		 push	 eax
  005ed	e8 00 00 00 00	 call	 ?RemoveItem@CMover@@QAEXEF@Z ; CMover::RemoveItem
  005f2	5f		 pop	 edi

; 1411 : }

  005f3	5e		 pop	 esi
  005f4	5b		 pop	 ebx
  005f5	8b 4d fc	 mov	 ecx, DWORD PTR __$ArrayPad$[ebp]
  005f8	33 cd		 xor	 ecx, ebp
  005fa	e8 00 00 00 00	 call	 @__security_check_cookie@4
  005ff	8b e5		 mov	 esp, ebp
  00601	5d		 pop	 ebp
  00602	c2 14 00	 ret	 20			; 00000014H
$LN4@EnchantBar:

; 1284 : 	{
; 1285 : 		pUser->AddDefinedText( TID_MMI_NEWSMELT_CID01 );

  00605	68 7b 11 00 00	 push	 4475			; 0000117bH
$LN131@EnchantBar:

; 1411 : }

  0060a	8b ce		 mov	 ecx, esi
  0060c	e8 00 00 00 00	 call	 ?AddDefinedText@CUser@@QAEXH@Z ; CUser::AddDefinedText
$LN1@EnchantBar:
  00611	8b 4d fc	 mov	 ecx, DWORD PTR __$ArrayPad$[ebp]
  00614	5f		 pop	 edi
  00615	5e		 pop	 esi
  00616	33 cd		 xor	 ecx, ebp
  00618	5b		 pop	 ebx
  00619	e8 00 00 00 00	 call	 @__security_check_cookie@4
  0061e	8b e5		 mov	 esp, ebp
  00620	5d		 pop	 ebp
  00621	c2 14 00	 ret	 20			; 00000014H
?EnchantBaruna@CItemUpgrade@@QAEXPAVCUser@@PAVCItemElem@@111@Z ENDP ; CItemUpgrade::EnchantBaruna
_TEXT	ENDS
; Function compile flags: /Ogtp
; File C:\IAGOS\server\v18\Source\Source\WorldServer\ItemUpgrade.cpp
; File C:\IAGOS\server\v18\Source\Source\_Common\Item.h
; File C:\IAGOS\server\v18\Source\Source\WorldServer\ItemUpgrade.cpp
; File C:\IAGOS\server\v18\Source\Source\_Common\Project.h
; File C:\IAGOS\server\v18\Source\Source\_Common\data.h
; File C:\IAGOS\server\v18\Source\Source\_Common\Project.h
; File C:\IAGOS\server\v18\Source\Source\WorldServer\ItemUpgrade.cpp
; File C:\IAGOS\server\v18\Source\Source\_Common\Item.h
; File C:\IAGOS\server\v18\Source\Source\_Common\Project.h
; File C:\IAGOS\server\v18\Source\Source\_Common\data.h
; File C:\IAGOS\server\v18\Source\Source\_Common\Project.h
; File C:\IAGOS\server\v18\Source\Source\WorldServer\ItemUpgrade.cpp
; File C:\IAGOS\server\v18\Source\Source\_Common\Item.h
; File C:\IAGOS\server\v18\Source\Source\_Common\Project.h
; File C:\IAGOS\server\v18\Source\Source\_Common\data.h
; File C:\IAGOS\server\v18\Source\Source\_Common\Project.h
; File C:\IAGOS\server\v18\Source\Source\WorldServer\ItemUpgrade.cpp
; File C:\IAGOS\server\v18\Source\Source\_Common\Project.h
; File C:\IAGOS\server\v18\Source\Source\WorldServer\ItemUpgrade.cpp
; File C:\IAGOS\server\v18\Source\Source\_Common\Project.h
; File C:\IAGOS\server\v18\Source\Source\_Common\data.h
; File C:\IAGOS\server\v18\Source\Source\WorldServer\ItemUpgrade.cpp
; File C:\IAGOS\server\v18\Source\Source\_Common\Project.h
; File C:\IAGOS\server\v18\Source\Source\WorldServer\ItemUpgrade.cpp
;	COMDAT ?CreateStone@CItemUpgrade@@QAEXPAVCUser@@PAVCItemElem@@11@Z
_TEXT	SEGMENT
_pPowder$GSCopy$1$ = -372				; size = 4
_itemElemTemp$ = -368					; size = 176
_itemElem$ = -192					; size = 176
__$ArrayPad$ = -16					; size = 4
__$EHRec$ = -12						; size = 12
_pUser$ = 8						; size = 4
_pCrystal$ = 12						; size = 4
_pChaosGem$ = 16					; size = 4
_pPowder$ = 20						; size = 4
?CreateStone@CItemUpgrade@@QAEXPAVCUser@@PAVCItemElem@@11@Z PROC ; CItemUpgrade::CreateStone, COMDAT
; _this$ = ecx

; 1598 : {

  00000	55		 push	 ebp
  00001	8b ec		 mov	 ebp, esp
  00003	6a ff		 push	 -1
  00005	68 00 00 00 00	 push	 __ehhandler$?CreateStone@CItemUpgrade@@QAEXPAVCUser@@PAVCItemElem@@11@Z
  0000a	64 a1 00 00 00
	00		 mov	 eax, DWORD PTR fs:0
  00010	50		 push	 eax
  00011	81 ec 68 01 00
	00		 sub	 esp, 360		; 00000168H
  00017	a1 00 00 00 00	 mov	 eax, DWORD PTR ___security_cookie
  0001c	33 c5		 xor	 eax, ebp
  0001e	89 45 f0	 mov	 DWORD PTR __$ArrayPad$[ebp], eax
  00021	53		 push	 ebx
  00022	56		 push	 esi
  00023	57		 push	 edi
  00024	50		 push	 eax
  00025	8d 45 f4	 lea	 eax, DWORD PTR __$EHRec$[ebp]
  00028	64 a3 00 00 00
	00		 mov	 DWORD PTR fs:0, eax
  0002e	8b 7d 0c	 mov	 edi, DWORD PTR _pCrystal$[ebp]
  00031	8b 45 14	 mov	 eax, DWORD PTR _pPowder$[ebp]
  00034	8b 75 08	 mov	 esi, DWORD PTR _pUser$[ebp]
  00037	8b 5d 10	 mov	 ebx, DWORD PTR _pChaosGem$[ebp]
; File C:\IAGOS\server\v18\Source\Source\_Common\Item.h

; 230  : 	ItemProp*	GetProp()	{	return prj.GetItemProp( m_dwItemId );	}

  0003a	8b 4f 0c	 mov	 ecx, DWORD PTR [edi+12]
; File C:\IAGOS\server\v18\Source\Source\WorldServer\ItemUpgrade.cpp

; 1598 : {

  0003d	89 85 8c fe ff
	ff		 mov	 DWORD PTR _pPowder$GSCopy$1$[ebp], eax
; File C:\IAGOS\server\v18\Source\Source\_Common\Project.h

; 1389 : 	VERIFY_RANGE_ASSERT( nIndex, 0, m_aPropItem.GetSize(), "GetItemProp range_error", NULL );

  00043	a1 40 02 00 00	 mov	 eax, DWORD PTR ?prj@@3VCProject@@A+576
  00048	85 c9		 test	 ecx, ecx
  0004a	78 11		 js	 SHORT $LN19@CreateSton
  0004c	3b c8		 cmp	 ecx, eax
  0004e	7d 0d		 jge	 SHORT $LN19@CreateSton
; File C:\IAGOS\server\v18\Source\Source\_Common\data.h

; 270  : 	if( dwIndex >= (DWORD)m_nMaxIndex )

  00050	8b 15 30 02 00
	00		 mov	 edx, DWORD PTR ?prj@@3VCProject@@A+560
  00056	73 26		 jae	 SHORT $LN69@CreateSton

; 272  : 	return (T*) m_apOffset[ dwIndex ];

  00058	8b 0c 8a	 mov	 ecx, DWORD PTR [edx+ecx*4]
; File C:\IAGOS\server\v18\Source\Source\_Common\Project.h

; 1390 : 	return m_aPropItem.GetAt( nIndex ); 

  0005b	eb 23		 jmp	 SHORT $LN14@CreateSton
$LN19@CreateSton:

; 579  : 	LPCTSTR szErr = Error( _T( "%s min:%d, max:%d, index:%d" ), szMsg, nMin, nMax, nIndex ); 

  0005d	51		 push	 ecx
  0005e	50		 push	 eax
  0005f	6a 00		 push	 0
  00061	68 00 00 00 00	 push	 OFFSET ??_C@_0BI@BEIFNGEL@GetItemProp?5range_error@
  00066	68 00 00 00 00	 push	 OFFSET ??_C@_0BM@HMFGHCP@?$CFs?5min?3?$CFd?0?5max?3?$CFd?0?5index?3?$CFd@
  0006b	e8 00 00 00 00	 call	 ?Error@@YAPBDPBDZZ	; Error

; 1389 : 	VERIFY_RANGE_ASSERT( nIndex, 0, m_aPropItem.GetSize(), "GetItemProp range_error", NULL );

  00070	a1 40 02 00 00	 mov	 eax, DWORD PTR ?prj@@3VCProject@@A+576

; 579  : 	LPCTSTR szErr = Error( _T( "%s min:%d, max:%d, index:%d" ), szMsg, nMin, nMax, nIndex ); 

  00075	83 c4 14	 add	 esp, 20			; 00000014H

; 1389 : 	VERIFY_RANGE_ASSERT( nIndex, 0, m_aPropItem.GetSize(), "GetItemProp range_error", NULL );

  00078	8b 15 30 02 00
	00		 mov	 edx, DWORD PTR ?prj@@3VCProject@@A+560
$LN69@CreateSton:
; File C:\IAGOS\server\v18\Source\Source\WorldServer\ItemUpgrade.cpp

; 1599 : 	if( pCrystal->GetProp()->dwID != II_GEN_MAT_CID )

  0007e	33 c9		 xor	 ecx, ecx
$LN14@CreateSton:
  00080	81 39 7d 1b 00
	00		 cmp	 DWORD PTR [ecx], 7037	; 00001b7dH
  00086	0f 85 b3 01 00
	00		 jne	 $LN1@CreateSton
; File C:\IAGOS\server\v18\Source\Source\_Common\Item.h

; 230  : 	ItemProp*	GetProp()	{	return prj.GetItemProp( m_dwItemId );	}

  0008c	8b 4b 0c	 mov	 ecx, DWORD PTR [ebx+12]
; File C:\IAGOS\server\v18\Source\Source\_Common\Project.h

; 1389 : 	VERIFY_RANGE_ASSERT( nIndex, 0, m_aPropItem.GetSize(), "GetItemProp range_error", NULL );

  0008f	85 c9		 test	 ecx, ecx
  00091	78 0b		 js	 SHORT $LN33@CreateSton
  00093	3b c8		 cmp	 ecx, eax
  00095	7d 07		 jge	 SHORT $LN33@CreateSton
; File C:\IAGOS\server\v18\Source\Source\_Common\data.h

; 270  : 	if( dwIndex >= (DWORD)m_nMaxIndex )

  00097	73 26		 jae	 SHORT $LN70@CreateSton

; 272  : 	return (T*) m_apOffset[ dwIndex ];

  00099	8b 0c 8a	 mov	 ecx, DWORD PTR [edx+ecx*4]
; File C:\IAGOS\server\v18\Source\Source\_Common\Project.h

; 1390 : 	return m_aPropItem.GetAt( nIndex ); 

  0009c	eb 23		 jmp	 SHORT $LN28@CreateSton
$LN33@CreateSton:

; 579  : 	LPCTSTR szErr = Error( _T( "%s min:%d, max:%d, index:%d" ), szMsg, nMin, nMax, nIndex ); 

  0009e	51		 push	 ecx
  0009f	50		 push	 eax
  000a0	6a 00		 push	 0
  000a2	68 00 00 00 00	 push	 OFFSET ??_C@_0BI@BEIFNGEL@GetItemProp?5range_error@
  000a7	68 00 00 00 00	 push	 OFFSET ??_C@_0BM@HMFGHCP@?$CFs?5min?3?$CFd?0?5max?3?$CFd?0?5index?3?$CFd@
  000ac	e8 00 00 00 00	 call	 ?Error@@YAPBDPBDZZ	; Error

; 1389 : 	VERIFY_RANGE_ASSERT( nIndex, 0, m_aPropItem.GetSize(), "GetItemProp range_error", NULL );

  000b1	a1 40 02 00 00	 mov	 eax, DWORD PTR ?prj@@3VCProject@@A+576

; 579  : 	LPCTSTR szErr = Error( _T( "%s min:%d, max:%d, index:%d" ), szMsg, nMin, nMax, nIndex ); 

  000b6	83 c4 14	 add	 esp, 20			; 00000014H

; 1389 : 	VERIFY_RANGE_ASSERT( nIndex, 0, m_aPropItem.GetSize(), "GetItemProp range_error", NULL );

  000b9	8b 15 30 02 00
	00		 mov	 edx, DWORD PTR ?prj@@3VCProject@@A+560
$LN70@CreateSton:
; File C:\IAGOS\server\v18\Source\Source\WorldServer\ItemUpgrade.cpp

; 1601 : 	if( pChaosGem->GetProp()->dwID != II_GEN_MAT_OPER )

  000bf	33 c9		 xor	 ecx, ecx
$LN28@CreateSton:
  000c1	81 39 80 1b 00
	00		 cmp	 DWORD PTR [ecx], 7040	; 00001b80H
  000c7	0f 85 72 01 00
	00		 jne	 $LN1@CreateSton
; File C:\IAGOS\server\v18\Source\Source\_Common\Item.h

; 230  : 	ItemProp*	GetProp()	{	return prj.GetItemProp( m_dwItemId );	}

  000cd	8b 8d 8c fe ff
	ff		 mov	 ecx, DWORD PTR _pPowder$GSCopy$1$[ebp]
  000d3	8b 49 0c	 mov	 ecx, DWORD PTR [ecx+12]
; File C:\IAGOS\server\v18\Source\Source\_Common\Project.h

; 1389 : 	VERIFY_RANGE_ASSERT( nIndex, 0, m_aPropItem.GetSize(), "GetItemProp range_error", NULL );

  000d6	85 c9		 test	 ecx, ecx
  000d8	78 0b		 js	 SHORT $LN47@CreateSton
  000da	3b c8		 cmp	 ecx, eax
  000dc	7d 07		 jge	 SHORT $LN47@CreateSton
; File C:\IAGOS\server\v18\Source\Source\_Common\data.h

; 270  : 	if( dwIndex >= (DWORD)m_nMaxIndex )

  000de	73 1b		 jae	 SHORT $LN71@CreateSton

; 272  : 	return (T*) m_apOffset[ dwIndex ];

  000e0	8b 04 8a	 mov	 eax, DWORD PTR [edx+ecx*4]
; File C:\IAGOS\server\v18\Source\Source\_Common\Project.h

; 1390 : 	return m_aPropItem.GetAt( nIndex ); 

  000e3	eb 18		 jmp	 SHORT $LN42@CreateSton
$LN47@CreateSton:

; 579  : 	LPCTSTR szErr = Error( _T( "%s min:%d, max:%d, index:%d" ), szMsg, nMin, nMax, nIndex ); 

  000e5	51		 push	 ecx
  000e6	50		 push	 eax
  000e7	6a 00		 push	 0
  000e9	68 00 00 00 00	 push	 OFFSET ??_C@_0BI@BEIFNGEL@GetItemProp?5range_error@
  000ee	68 00 00 00 00	 push	 OFFSET ??_C@_0BM@HMFGHCP@?$CFs?5min?3?$CFd?0?5max?3?$CFd?0?5index?3?$CFd@
  000f3	e8 00 00 00 00	 call	 ?Error@@YAPBDPBDZZ	; Error
  000f8	83 c4 14	 add	 esp, 20			; 00000014H
$LN71@CreateSton:
; File C:\IAGOS\server\v18\Source\Source\WorldServer\ItemUpgrade.cpp

; 1603 : 	if( pPowder->GetProp()->dwID != II_GEN_MAT_BARYUMMEAL )

  000fb	33 c0		 xor	 eax, eax
$LN42@CreateSton:
  000fd	81 38 83 1b 00
	00		 cmp	 DWORD PTR [eax], 7043	; 00001b83H
  00103	0f 85 36 01 00
	00		 jne	 $LN1@CreateSton

; 1606 : 	CItemElem itemElemTemp;

  00109	8d 8d 90 fe ff
	ff		 lea	 ecx, DWORD PTR _itemElemTemp$[ebp]
  0010f	e8 00 00 00 00	 call	 ??0CItemElem@@QAE@XZ	; CItemElem::CItemElem
; File C:\IAGOS\server\v18\Source\Source\_Common\Project.h

; 1389 : 	VERIFY_RANGE_ASSERT( nIndex, 0, m_aPropItem.GetSize(), "GetItemProp range_error", NULL );

  00114	a1 40 02 00 00	 mov	 eax, DWORD PTR ?prj@@3VCProject@@A+576
; File C:\IAGOS\server\v18\Source\Source\WorldServer\ItemUpgrade.cpp

; 1606 : 	CItemElem itemElemTemp;

  00119	c7 45 fc 00 00
	00 00		 mov	 DWORD PTR __$EHRec$[ebp+8], 0

; 1607 : 	itemElemTemp.m_dwItemId = II_GEN_MAT_OPERCID;

  00120	c7 85 9c fe ff
	ff 89 1b 00 00	 mov	 DWORD PTR _itemElemTemp$[ebp+12], 7049 ; 00001b89H
; File C:\IAGOS\server\v18\Source\Source\_Common\Project.h

; 1389 : 	VERIFY_RANGE_ASSERT( nIndex, 0, m_aPropItem.GetSize(), "GetItemProp range_error", NULL );

  0012a	3d 89 1b 00 00	 cmp	 eax, 7049		; 00001b89H
  0012f	0f 8e e5 00 00
	00		 jle	 $LN61@CreateSton
; File C:\IAGOS\server\v18\Source\Source\_Common\data.h

; 270  : 	if( dwIndex >= (DWORD)m_nMaxIndex )

  00135	77 04		 ja	 SHORT $LN66@CreateSton

; 271  : 		return NULL;

  00137	33 c9		 xor	 ecx, ecx
  00139	eb 0b		 jmp	 SHORT $LN65@CreateSton
$LN66@CreateSton:

; 272  : 	return (T*) m_apOffset[ dwIndex ];

  0013b	a1 30 02 00 00	 mov	 eax, DWORD PTR ?prj@@3VCProject@@A+560
  00140	8b 88 24 6e 00
	00		 mov	 ecx, DWORD PTR [eax+28196]
$LN65@CreateSton:
; File C:\IAGOS\server\v18\Source\Source\WorldServer\ItemUpgrade.cpp

; 1609 : 	if( !pItemprop )

  00146	85 c9		 test	 ecx, ecx
  00148	0f 84 e6 00 00
	00		 je	 $LN11@CreateSton

; 1610 : 		return;
; 1611 : 	if( (DWORD)( 1 ) > pItemprop->dwPackMax && pUser->m_Inventory.IsFull( &itemElemTemp, pItemprop, (short)( 1 - pItemprop->dwPackMax ) ) )

  0014e	8b 41 6c	 mov	 eax, DWORD PTR [ecx+108]
  00151	0f b7 d0	 movzx	 edx, ax
  00154	83 f8 01	 cmp	 eax, 1
  00157	73 30		 jae	 SHORT $LN6@CreateSton
  00159	b8 01 00 00 00	 mov	 eax, 1
  0015e	2b c2		 sub	 eax, edx
  00160	50		 push	 eax
  00161	51		 push	 ecx
  00162	8d 85 90 fe ff
	ff		 lea	 eax, DWORD PTR _itemElemTemp$[ebp]
  00168	50		 push	 eax
  00169	8d 8e fc 0a 00
	00		 lea	 ecx, DWORD PTR [esi+2812]
  0016f	e8 00 00 00 00	 call	 ?IsFull@?$CItemContainer@VCItemElem@@@@QAEHPAVCItemElem@@PAUItemProp@@F@Z ; CItemContainer<CItemElem>::IsFull
  00174	85 c0		 test	 eax, eax
  00176	74 11		 je	 SHORT $LN6@CreateSton

; 1612 : 	{
; 1613 : 		pUser->AddDefinedText( TID_GAME_LACKSPACE );

  00178	68 72 02 00 00	 push	 626			; 00000272H
  0017d	8b ce		 mov	 ecx, esi
  0017f	e8 00 00 00 00	 call	 ?AddDefinedText@CUser@@QAEXH@Z ; CUser::AddDefinedText
  00184	e9 ab 00 00 00	 jmp	 $LN11@CreateSton
$LN6@CreateSton:

; 1614 : 		return;
; 1615 : 	}
; 1616 : 	CItemElem itemElem;

  00189	8d 8d 40 ff ff
	ff		 lea	 ecx, DWORD PTR _itemElem$[ebp]
  0018f	e8 00 00 00 00	 call	 ??0CItemElem@@QAE@XZ	; CItemElem::CItemElem

; 1617 : 	itemElem.m_dwItemId = II_GEN_MAT_OPERCID;
; 1618 : 	itemElem.m_nItemNum	= 1;

  00194	b8 01 00 00 00	 mov	 eax, 1
  00199	c6 45 fc 01	 mov	 BYTE PTR __$EHRec$[ebp+8], 1

; 1619 : 	itemElem.SetSerialNumber();

  0019d	8d 8d 40 ff ff
	ff		 lea	 ecx, DWORD PTR _itemElem$[ebp]
  001a3	c7 85 4c ff ff
	ff 89 1b 00 00	 mov	 DWORD PTR _itemElem$[ebp+12], 7049 ; 00001b89H
  001ad	66 89 45 b4	 mov	 WORD PTR _itemElem$[ebp+116], ax
  001b1	e8 00 00 00 00	 call	 ?SetSerialNumber@CItemBase@@QAEXXZ ; CItemBase::SetSerialNumber

; 1620 : 	itemElem.m_nHitPoint	= 0;		
; 1621 : 	pUser->CreateItem( &itemElem );

  001b6	6a 00		 push	 0
  001b8	6a 00		 push	 0
  001ba	6a 00		 push	 0
  001bc	8d 85 40 ff ff
	ff		 lea	 eax, DWORD PTR _itemElem$[ebp]
  001c2	c7 45 b0 00 00
	00 00		 mov	 DWORD PTR _itemElem$[ebp+112], 0
  001c9	50		 push	 eax
  001ca	8b ce		 mov	 ecx, esi
  001cc	e8 00 00 00 00	 call	 ?CreateItem@CMover@@QAEHPAVCItemBase@@PAEPAFE@Z ; CMover::CreateItem

; 1622 : 	pUser->AddDefinedText( TID_MMI_NEWSMELT_OPERCID04 );

  001d1	68 8f 11 00 00	 push	 4495			; 0000118fH
  001d6	8b ce		 mov	 ecx, esi
  001d8	e8 00 00 00 00	 call	 ?AddDefinedText@CUser@@QAEXH@Z ; CUser::AddDefinedText

; 1623 : 
; 1624 : 	pUser->RemoveItem( (BYTE)( pCrystal->m_dwObjId ), (short)1 );

  001dd	0f b6 47 04	 movzx	 eax, BYTE PTR [edi+4]
  001e1	8b ce		 mov	 ecx, esi
  001e3	6a 01		 push	 1
  001e5	50		 push	 eax
  001e6	e8 00 00 00 00	 call	 ?RemoveItem@CMover@@QAEXEF@Z ; CMover::RemoveItem

; 1625 : 	pUser->RemoveItem( (BYTE)( pChaosGem->m_dwObjId ), (short)1 );

  001eb	0f b6 43 04	 movzx	 eax, BYTE PTR [ebx+4]
  001ef	8b ce		 mov	 ecx, esi
  001f1	6a 01		 push	 1
  001f3	50		 push	 eax
  001f4	e8 00 00 00 00	 call	 ?RemoveItem@CMover@@QAEXEF@Z ; CMover::RemoveItem

; 1626 : 	pUser->RemoveItem( (BYTE)( pPowder->m_dwObjId ), (short)1 );

  001f9	8b 85 8c fe ff
	ff		 mov	 eax, DWORD PTR _pPowder$GSCopy$1$[ebp]
  001ff	8b ce		 mov	 ecx, esi
  00201	6a 01		 push	 1
  00203	0f b6 40 04	 movzx	 eax, BYTE PTR [eax+4]
  00207	50		 push	 eax
  00208	e8 00 00 00 00	 call	 ?RemoveItem@CMover@@QAEXEF@Z ; CMover::RemoveItem

; 1627 : }

  0020d	8d 8d 40 ff ff
	ff		 lea	 ecx, DWORD PTR _itemElem$[ebp]
  00213	e8 00 00 00 00	 call	 ??1CItemElem@@UAE@XZ	; CItemElem::~CItemElem
  00218	eb 1a		 jmp	 SHORT $LN11@CreateSton
$LN61@CreateSton:
; File C:\IAGOS\server\v18\Source\Source\_Common\Project.h

; 579  : 	LPCTSTR szErr = Error( _T( "%s min:%d, max:%d, index:%d" ), szMsg, nMin, nMax, nIndex ); 

  0021a	68 89 1b 00 00	 push	 7049			; 00001b89H
  0021f	50		 push	 eax
  00220	6a 00		 push	 0
  00222	68 00 00 00 00	 push	 OFFSET ??_C@_0BI@BEIFNGEL@GetItemProp?5range_error@
  00227	68 00 00 00 00	 push	 OFFSET ??_C@_0BM@HMFGHCP@?$CFs?5min?3?$CFd?0?5max?3?$CFd?0?5index?3?$CFd@
  0022c	e8 00 00 00 00	 call	 ?Error@@YAPBDPBDZZ	; Error
  00231	83 c4 14	 add	 esp, 20			; 00000014H
$LN11@CreateSton:
; File C:\IAGOS\server\v18\Source\Source\WorldServer\ItemUpgrade.cpp

; 1627 : }

  00234	8d 8d 90 fe ff
	ff		 lea	 ecx, DWORD PTR _itemElemTemp$[ebp]
  0023a	e8 00 00 00 00	 call	 ??1CItemElem@@UAE@XZ	; CItemElem::~CItemElem
$LN1@CreateSton:
  0023f	8b 4d f4	 mov	 ecx, DWORD PTR __$EHRec$[ebp]
  00242	64 89 0d 00 00
	00 00		 mov	 DWORD PTR fs:0, ecx
  00249	59		 pop	 ecx
  0024a	5f		 pop	 edi
  0024b	5e		 pop	 esi
  0024c	5b		 pop	 ebx
  0024d	8b 4d f0	 mov	 ecx, DWORD PTR __$ArrayPad$[ebp]
  00250	33 cd		 xor	 ecx, ebp
  00252	e8 00 00 00 00	 call	 @__security_check_cookie@4
  00257	8b e5		 mov	 esp, ebp
  00259	5d		 pop	 ebp
  0025a	c2 10 00	 ret	 16			; 00000010H
_TEXT	ENDS
;	COMDAT text$x
text$x	SEGMENT
__unwindfunclet$?CreateStone@CItemUpgrade@@QAEXPAVCUser@@PAVCItemElem@@11@Z$0:
  00000	8d 8d 90 fe ff
	ff		 lea	 ecx, DWORD PTR _itemElemTemp$[ebp]
  00006	e9 00 00 00 00	 jmp	 ??1CItemElem@@UAE@XZ	; CItemElem::~CItemElem
__unwindfunclet$?CreateStone@CItemUpgrade@@QAEXPAVCUser@@PAVCItemElem@@11@Z$1:
  0000b	8d 8d 40 ff ff
	ff		 lea	 ecx, DWORD PTR _itemElem$[ebp]
  00011	e9 00 00 00 00	 jmp	 ??1CItemElem@@UAE@XZ	; CItemElem::~CItemElem
  00016	cc		 int	 3
  00017	cc		 int	 3
  00018	cc		 int	 3
  00019	cc		 int	 3
  0001a	cc		 int	 3
__ehhandler$?CreateStone@CItemUpgrade@@QAEXPAVCUser@@PAVCItemElem@@11@Z:
  0001b	90		 npad	 1
  0001c	90		 npad	 1
  0001d	8b 54 24 08	 mov	 edx, DWORD PTR [esp+8]
  00021	8d 42 0c	 lea	 eax, DWORD PTR [edx+12]
  00024	8b 8a 88 fe ff
	ff		 mov	 ecx, DWORD PTR [edx-376]
  0002a	33 c8		 xor	 ecx, eax
  0002c	e8 00 00 00 00	 call	 @__security_check_cookie@4
  00031	8b 4a fc	 mov	 ecx, DWORD PTR [edx-4]
  00034	33 c8		 xor	 ecx, eax
  00036	e8 00 00 00 00	 call	 @__security_check_cookie@4
  0003b	b8 00 00 00 00	 mov	 eax, OFFSET __ehfuncinfo$?CreateStone@CItemUpgrade@@QAEXPAVCUser@@PAVCItemElem@@11@Z
  00040	e9 00 00 00 00	 jmp	 ___CxxFrameHandler3
text$x	ENDS
?CreateStone@CItemUpgrade@@QAEXPAVCUser@@PAVCItemElem@@11@Z ENDP ; CItemUpgrade::CreateStone
; Function compile flags: /Ogtp
; File C:\IAGOS\server\v18\Source\Source\WorldServer\ItemUpgrade.cpp
; File C:\IAGOS\server\v18\Source\Source\_Common\Project.h
; File C:\IAGOS\server\v18\Source\Source\_Common\Item.h
; File C:\IAGOS\server\v18\Source\Source\_Common\Project.h
; File C:\IAGOS\server\v18\Source\Source\_Common\data.h
; File C:\IAGOS\server\v18\Source\Source\_Common\Project.h
; File C:\IAGOS\server\v18\Source\Source\WorldServer\ItemUpgrade.cpp
; File C:\IAGOS\server\v18\Source\Source\_Common\Item.h
; File C:\IAGOS\server\v18\Source\Source\_Common\Project.h
; File C:\IAGOS\server\v18\Source\Source\_Common\data.h
; File C:\IAGOS\server\v18\Source\Source\_Common\Project.h
; File C:\IAGOS\server\v18\Source\Source\WorldServer\ItemUpgrade.cpp
; File C:\IAGOS\server\v18\Source\Source\_Common\Project.h
; File C:\IAGOS\server\v18\Source\Source\WorldServer\ItemUpgrade.cpp
; File C:\IAGOS\server\v18\Source\Source\_Common\Project.h
; File C:\IAGOS\server\v18\Source\Source\_Common\data.h
; File C:\IAGOS\server\v18\Source\Source\WorldServer\ItemUpgrade.cpp
; File C:\IAGOS\server\v18\Source\Source\_Common\Project.h
; File C:\IAGOS\server\v18\Source\Source\WorldServer\ItemUpgrade.cpp
;	COMDAT ?CreateBarunaChaosGem@CItemUpgrade@@QAEXPAVCUser@@PAVCItemElem@@1@Z
_TEXT	SEGMENT
_itemElemTemp$ = -368					; size = 176
_itemElem$ = -192					; size = 176
__$ArrayPad$ = -16					; size = 4
__$EHRec$ = -12						; size = 12
_pUser$ = 8						; size = 4
_pChaosDreg$ = 12					; size = 4
_pPotion$ = 16						; size = 4
?CreateBarunaChaosGem@CItemUpgrade@@QAEXPAVCUser@@PAVCItemElem@@1@Z PROC ; CItemUpgrade::CreateBarunaChaosGem, COMDAT
; _this$ = ecx

; 1570 : {

  00000	55		 push	 ebp
  00001	8b ec		 mov	 ebp, esp
  00003	6a ff		 push	 -1
  00005	68 00 00 00 00	 push	 __ehhandler$?CreateBarunaChaosGem@CItemUpgrade@@QAEXPAVCUser@@PAVCItemElem@@1@Z
  0000a	64 a1 00 00 00
	00		 mov	 eax, DWORD PTR fs:0
  00010	50		 push	 eax
  00011	81 ec 64 01 00
	00		 sub	 esp, 356		; 00000164H
  00017	a1 00 00 00 00	 mov	 eax, DWORD PTR ___security_cookie
  0001c	33 c5		 xor	 eax, ebp
  0001e	89 45 f0	 mov	 DWORD PTR __$ArrayPad$[ebp], eax
  00021	53		 push	 ebx
  00022	56		 push	 esi
  00023	57		 push	 edi
  00024	50		 push	 eax
  00025	8d 45 f4	 lea	 eax, DWORD PTR __$EHRec$[ebp]
  00028	64 a3 00 00 00
	00		 mov	 DWORD PTR fs:0, eax
  0002e	8b 7d 0c	 mov	 edi, DWORD PTR _pChaosDreg$[ebp]
  00031	8b 75 08	 mov	 esi, DWORD PTR _pUser$[ebp]
  00034	8b 5d 10	 mov	 ebx, DWORD PTR _pPotion$[ebp]
; File C:\IAGOS\server\v18\Source\Source\_Common\Project.h

; 1389 : 	VERIFY_RANGE_ASSERT( nIndex, 0, m_aPropItem.GetSize(), "GetItemProp range_error", NULL );

  00037	a1 40 02 00 00	 mov	 eax, DWORD PTR ?prj@@3VCProject@@A+576
; File C:\IAGOS\server\v18\Source\Source\_Common\Item.h

; 230  : 	ItemProp*	GetProp()	{	return prj.GetItemProp( m_dwItemId );	}

  0003c	8b 4f 0c	 mov	 ecx, DWORD PTR [edi+12]
; File C:\IAGOS\server\v18\Source\Source\_Common\Project.h

; 1389 : 	VERIFY_RANGE_ASSERT( nIndex, 0, m_aPropItem.GetSize(), "GetItemProp range_error", NULL );

  0003f	85 c9		 test	 ecx, ecx
  00041	78 11		 js	 SHORT $LN18@CreateBaru
  00043	3b c8		 cmp	 ecx, eax
  00045	7d 0d		 jge	 SHORT $LN18@CreateBaru
; File C:\IAGOS\server\v18\Source\Source\_Common\data.h

; 270  : 	if( dwIndex >= (DWORD)m_nMaxIndex )

  00047	8b 15 30 02 00
	00		 mov	 edx, DWORD PTR ?prj@@3VCProject@@A+560
  0004d	73 26		 jae	 SHORT $LN54@CreateBaru

; 272  : 	return (T*) m_apOffset[ dwIndex ];

  0004f	8b 0c 8a	 mov	 ecx, DWORD PTR [edx+ecx*4]
; File C:\IAGOS\server\v18\Source\Source\_Common\Project.h

; 1390 : 	return m_aPropItem.GetAt( nIndex ); 

  00052	eb 23		 jmp	 SHORT $LN13@CreateBaru
$LN18@CreateBaru:

; 579  : 	LPCTSTR szErr = Error( _T( "%s min:%d, max:%d, index:%d" ), szMsg, nMin, nMax, nIndex ); 

  00054	51		 push	 ecx
  00055	50		 push	 eax
  00056	6a 00		 push	 0
  00058	68 00 00 00 00	 push	 OFFSET ??_C@_0BI@BEIFNGEL@GetItemProp?5range_error@
  0005d	68 00 00 00 00	 push	 OFFSET ??_C@_0BM@HMFGHCP@?$CFs?5min?3?$CFd?0?5max?3?$CFd?0?5index?3?$CFd@
  00062	e8 00 00 00 00	 call	 ?Error@@YAPBDPBDZZ	; Error

; 1389 : 	VERIFY_RANGE_ASSERT( nIndex, 0, m_aPropItem.GetSize(), "GetItemProp range_error", NULL );

  00067	a1 40 02 00 00	 mov	 eax, DWORD PTR ?prj@@3VCProject@@A+576

; 579  : 	LPCTSTR szErr = Error( _T( "%s min:%d, max:%d, index:%d" ), szMsg, nMin, nMax, nIndex ); 

  0006c	83 c4 14	 add	 esp, 20			; 00000014H

; 1389 : 	VERIFY_RANGE_ASSERT( nIndex, 0, m_aPropItem.GetSize(), "GetItemProp range_error", NULL );

  0006f	8b 15 30 02 00
	00		 mov	 edx, DWORD PTR ?prj@@3VCProject@@A+560
$LN54@CreateBaru:
; File C:\IAGOS\server\v18\Source\Source\WorldServer\ItemUpgrade.cpp

; 1571 : 	if( pChaosDreg->GetProp()->dwID != II_GEN_MAT_OPERPIECE )

  00075	33 c9		 xor	 ecx, ecx
$LN13@CreateBaru:
  00077	81 39 81 1b 00
	00		 cmp	 DWORD PTR [ecx], 7041	; 00001b81H
  0007d	0f 85 58 01 00
	00		 jne	 $LN1@CreateBaru
; File C:\IAGOS\server\v18\Source\Source\_Common\Item.h

; 230  : 	ItemProp*	GetProp()	{	return prj.GetItemProp( m_dwItemId );	}

  00083	8b 4b 0c	 mov	 ecx, DWORD PTR [ebx+12]
; File C:\IAGOS\server\v18\Source\Source\_Common\Project.h

; 1389 : 	VERIFY_RANGE_ASSERT( nIndex, 0, m_aPropItem.GetSize(), "GetItemProp range_error", NULL );

  00086	85 c9		 test	 ecx, ecx
  00088	78 0b		 js	 SHORT $LN32@CreateBaru
  0008a	3b c8		 cmp	 ecx, eax
  0008c	7d 07		 jge	 SHORT $LN32@CreateBaru
; File C:\IAGOS\server\v18\Source\Source\_Common\data.h

; 270  : 	if( dwIndex >= (DWORD)m_nMaxIndex )

  0008e	73 1b		 jae	 SHORT $LN55@CreateBaru

; 272  : 	return (T*) m_apOffset[ dwIndex ];

  00090	8b 04 8a	 mov	 eax, DWORD PTR [edx+ecx*4]
; File C:\IAGOS\server\v18\Source\Source\_Common\Project.h

; 1390 : 	return m_aPropItem.GetAt( nIndex ); 

  00093	eb 18		 jmp	 SHORT $LN27@CreateBaru
$LN32@CreateBaru:

; 579  : 	LPCTSTR szErr = Error( _T( "%s min:%d, max:%d, index:%d" ), szMsg, nMin, nMax, nIndex ); 

  00095	51		 push	 ecx
  00096	50		 push	 eax
  00097	6a 00		 push	 0
  00099	68 00 00 00 00	 push	 OFFSET ??_C@_0BI@BEIFNGEL@GetItemProp?5range_error@
  0009e	68 00 00 00 00	 push	 OFFSET ??_C@_0BM@HMFGHCP@?$CFs?5min?3?$CFd?0?5max?3?$CFd?0?5index?3?$CFd@
  000a3	e8 00 00 00 00	 call	 ?Error@@YAPBDPBDZZ	; Error
  000a8	83 c4 14	 add	 esp, 20			; 00000014H
$LN55@CreateBaru:
; File C:\IAGOS\server\v18\Source\Source\WorldServer\ItemUpgrade.cpp

; 1573 : 	if( pPotion->GetProp()->dwID != II_GEN_MAT_OPERMIX )

  000ab	33 c0		 xor	 eax, eax
$LN27@CreateBaru:
  000ad	81 38 82 1b 00
	00		 cmp	 DWORD PTR [eax], 7042	; 00001b82H
  000b3	0f 85 22 01 00
	00		 jne	 $LN1@CreateBaru

; 1576 : 	CItemElem itemElemTemp;

  000b9	8d 8d 90 fe ff
	ff		 lea	 ecx, DWORD PTR _itemElemTemp$[ebp]
  000bf	e8 00 00 00 00	 call	 ??0CItemElem@@QAE@XZ	; CItemElem::CItemElem
; File C:\IAGOS\server\v18\Source\Source\_Common\Project.h

; 1389 : 	VERIFY_RANGE_ASSERT( nIndex, 0, m_aPropItem.GetSize(), "GetItemProp range_error", NULL );

  000c4	a1 40 02 00 00	 mov	 eax, DWORD PTR ?prj@@3VCProject@@A+576
; File C:\IAGOS\server\v18\Source\Source\WorldServer\ItemUpgrade.cpp

; 1576 : 	CItemElem itemElemTemp;

  000c9	c7 45 fc 00 00
	00 00		 mov	 DWORD PTR __$EHRec$[ebp+8], 0

; 1577 : 	itemElemTemp.m_dwItemId = II_GEN_MAT_OPER;

  000d0	c7 85 9c fe ff
	ff 80 1b 00 00	 mov	 DWORD PTR _itemElemTemp$[ebp+12], 7040 ; 00001b80H
; File C:\IAGOS\server\v18\Source\Source\_Common\Project.h

; 1389 : 	VERIFY_RANGE_ASSERT( nIndex, 0, m_aPropItem.GetSize(), "GetItemProp range_error", NULL );

  000da	3d 80 1b 00 00	 cmp	 eax, 7040		; 00001b80H
  000df	0f 8e d1 00 00
	00		 jle	 $LN46@CreateBaru
; File C:\IAGOS\server\v18\Source\Source\_Common\data.h

; 270  : 	if( dwIndex >= (DWORD)m_nMaxIndex )

  000e5	77 04		 ja	 SHORT $LN51@CreateBaru

; 271  : 		return NULL;

  000e7	33 c9		 xor	 ecx, ecx
  000e9	eb 0b		 jmp	 SHORT $LN50@CreateBaru
$LN51@CreateBaru:

; 272  : 	return (T*) m_apOffset[ dwIndex ];

  000eb	a1 30 02 00 00	 mov	 eax, DWORD PTR ?prj@@3VCProject@@A+560
  000f0	8b 88 00 6e 00
	00		 mov	 ecx, DWORD PTR [eax+28160]
$LN50@CreateBaru:
; File C:\IAGOS\server\v18\Source\Source\WorldServer\ItemUpgrade.cpp

; 1579 : 	if( !pItemprop )

  000f6	85 c9		 test	 ecx, ecx
  000f8	0f 84 d2 00 00
	00		 je	 $LN10@CreateBaru

; 1580 : 		return;
; 1581 : 	if( (DWORD)( 1 ) > pItemprop->dwPackMax && pUser->m_Inventory.IsFull( &itemElemTemp, pItemprop, (short)( 1 - pItemprop->dwPackMax ) ) )

  000fe	8b 41 6c	 mov	 eax, DWORD PTR [ecx+108]
  00101	0f b7 d0	 movzx	 edx, ax
  00104	83 f8 01	 cmp	 eax, 1
  00107	73 30		 jae	 SHORT $LN5@CreateBaru
  00109	b8 01 00 00 00	 mov	 eax, 1
  0010e	2b c2		 sub	 eax, edx
  00110	50		 push	 eax
  00111	51		 push	 ecx
  00112	8d 85 90 fe ff
	ff		 lea	 eax, DWORD PTR _itemElemTemp$[ebp]
  00118	50		 push	 eax
  00119	8d 8e fc 0a 00
	00		 lea	 ecx, DWORD PTR [esi+2812]
  0011f	e8 00 00 00 00	 call	 ?IsFull@?$CItemContainer@VCItemElem@@@@QAEHPAVCItemElem@@PAUItemProp@@F@Z ; CItemContainer<CItemElem>::IsFull
  00124	85 c0		 test	 eax, eax
  00126	74 11		 je	 SHORT $LN5@CreateBaru

; 1582 : 	{
; 1583 : 		pUser->AddDefinedText( TID_GAME_LACKSPACE );

  00128	68 72 02 00 00	 push	 626			; 00000272H
  0012d	8b ce		 mov	 ecx, esi
  0012f	e8 00 00 00 00	 call	 ?AddDefinedText@CUser@@QAEXH@Z ; CUser::AddDefinedText
  00134	e9 97 00 00 00	 jmp	 $LN10@CreateBaru
$LN5@CreateBaru:

; 1584 : 		return;
; 1585 : 	}
; 1586 : 	CItemElem itemElem;

  00139	8d 8d 40 ff ff
	ff		 lea	 ecx, DWORD PTR _itemElem$[ebp]
  0013f	e8 00 00 00 00	 call	 ??0CItemElem@@QAE@XZ	; CItemElem::CItemElem

; 1587 : 	itemElem.m_dwItemId = II_GEN_MAT_OPER;
; 1588 : 	itemElem.m_nItemNum	= 1;

  00144	b8 01 00 00 00	 mov	 eax, 1
  00149	c6 45 fc 01	 mov	 BYTE PTR __$EHRec$[ebp+8], 1

; 1589 : 	itemElem.SetSerialNumber();

  0014d	8d 8d 40 ff ff
	ff		 lea	 ecx, DWORD PTR _itemElem$[ebp]
  00153	c7 85 4c ff ff
	ff 80 1b 00 00	 mov	 DWORD PTR _itemElem$[ebp+12], 7040 ; 00001b80H
  0015d	66 89 45 b4	 mov	 WORD PTR _itemElem$[ebp+116], ax
  00161	e8 00 00 00 00	 call	 ?SetSerialNumber@CItemBase@@QAEXXZ ; CItemBase::SetSerialNumber

; 1590 : 	itemElem.m_nHitPoint	= 0;		
; 1591 : 	pUser->CreateItem( &itemElem );

  00166	6a 00		 push	 0
  00168	6a 00		 push	 0
  0016a	6a 00		 push	 0
  0016c	8d 85 40 ff ff
	ff		 lea	 eax, DWORD PTR _itemElem$[ebp]
  00172	c7 45 b0 00 00
	00 00		 mov	 DWORD PTR _itemElem$[ebp+112], 0
  00179	50		 push	 eax
  0017a	8b ce		 mov	 ecx, esi
  0017c	e8 00 00 00 00	 call	 ?CreateItem@CMover@@QAEHPAVCItemBase@@PAEPAFE@Z ; CMover::CreateItem

; 1592 : 	pUser->AddDefinedText( TID_MMI_NEWSMELT_OPER04 );

  00181	68 86 11 00 00	 push	 4486			; 00001186H
  00186	8b ce		 mov	 ecx, esi
  00188	e8 00 00 00 00	 call	 ?AddDefinedText@CUser@@QAEXH@Z ; CUser::AddDefinedText

; 1593 : 
; 1594 : 	pUser->RemoveItem( (BYTE)( pChaosDreg->m_dwObjId ), (short)1 );

  0018d	0f b6 47 04	 movzx	 eax, BYTE PTR [edi+4]
  00191	8b ce		 mov	 ecx, esi
  00193	6a 01		 push	 1
  00195	50		 push	 eax
  00196	e8 00 00 00 00	 call	 ?RemoveItem@CMover@@QAEXEF@Z ; CMover::RemoveItem

; 1595 : 	pUser->RemoveItem( (BYTE)( pPotion->m_dwObjId ), (short)1 );

  0019b	0f b6 43 04	 movzx	 eax, BYTE PTR [ebx+4]
  0019f	8b ce		 mov	 ecx, esi
  001a1	6a 01		 push	 1
  001a3	50		 push	 eax
  001a4	e8 00 00 00 00	 call	 ?RemoveItem@CMover@@QAEXEF@Z ; CMover::RemoveItem

; 1596 : }

  001a9	8d 8d 40 ff ff
	ff		 lea	 ecx, DWORD PTR _itemElem$[ebp]
  001af	e8 00 00 00 00	 call	 ??1CItemElem@@UAE@XZ	; CItemElem::~CItemElem
  001b4	eb 1a		 jmp	 SHORT $LN10@CreateBaru
$LN46@CreateBaru:
; File C:\IAGOS\server\v18\Source\Source\_Common\Project.h

; 579  : 	LPCTSTR szErr = Error( _T( "%s min:%d, max:%d, index:%d" ), szMsg, nMin, nMax, nIndex ); 

  001b6	68 80 1b 00 00	 push	 7040			; 00001b80H
  001bb	50		 push	 eax
  001bc	6a 00		 push	 0
  001be	68 00 00 00 00	 push	 OFFSET ??_C@_0BI@BEIFNGEL@GetItemProp?5range_error@
  001c3	68 00 00 00 00	 push	 OFFSET ??_C@_0BM@HMFGHCP@?$CFs?5min?3?$CFd?0?5max?3?$CFd?0?5index?3?$CFd@
  001c8	e8 00 00 00 00	 call	 ?Error@@YAPBDPBDZZ	; Error
  001cd	83 c4 14	 add	 esp, 20			; 00000014H
$LN10@CreateBaru:
; File C:\IAGOS\server\v18\Source\Source\WorldServer\ItemUpgrade.cpp

; 1596 : }

  001d0	8d 8d 90 fe ff
	ff		 lea	 ecx, DWORD PTR _itemElemTemp$[ebp]
  001d6	e8 00 00 00 00	 call	 ??1CItemElem@@UAE@XZ	; CItemElem::~CItemElem
$LN1@CreateBaru:
  001db	8b 4d f4	 mov	 ecx, DWORD PTR __$EHRec$[ebp]
  001de	64 89 0d 00 00
	00 00		 mov	 DWORD PTR fs:0, ecx
  001e5	59		 pop	 ecx
  001e6	5f		 pop	 edi
  001e7	5e		 pop	 esi
  001e8	5b		 pop	 ebx
  001e9	8b 4d f0	 mov	 ecx, DWORD PTR __$ArrayPad$[ebp]
  001ec	33 cd		 xor	 ecx, ebp
  001ee	e8 00 00 00 00	 call	 @__security_check_cookie@4
  001f3	8b e5		 mov	 esp, ebp
  001f5	5d		 pop	 ebp
  001f6	c2 0c 00	 ret	 12			; 0000000cH
_TEXT	ENDS
;	COMDAT text$x
text$x	SEGMENT
__unwindfunclet$?CreateBarunaChaosGem@CItemUpgrade@@QAEXPAVCUser@@PAVCItemElem@@1@Z$0:
  00000	8d 8d 90 fe ff
	ff		 lea	 ecx, DWORD PTR _itemElemTemp$[ebp]
  00006	e9 00 00 00 00	 jmp	 ??1CItemElem@@UAE@XZ	; CItemElem::~CItemElem
__unwindfunclet$?CreateBarunaChaosGem@CItemUpgrade@@QAEXPAVCUser@@PAVCItemElem@@1@Z$1:
  0000b	8d 8d 40 ff ff
	ff		 lea	 ecx, DWORD PTR _itemElem$[ebp]
  00011	e9 00 00 00 00	 jmp	 ??1CItemElem@@UAE@XZ	; CItemElem::~CItemElem
  00016	cc		 int	 3
  00017	cc		 int	 3
  00018	cc		 int	 3
  00019	cc		 int	 3
  0001a	cc		 int	 3
__ehhandler$?CreateBarunaChaosGem@CItemUpgrade@@QAEXPAVCUser@@PAVCItemElem@@1@Z:
  0001b	90		 npad	 1
  0001c	90		 npad	 1
  0001d	8b 54 24 08	 mov	 edx, DWORD PTR [esp+8]
  00021	8d 42 0c	 lea	 eax, DWORD PTR [edx+12]
  00024	8b 8a 8c fe ff
	ff		 mov	 ecx, DWORD PTR [edx-372]
  0002a	33 c8		 xor	 ecx, eax
  0002c	e8 00 00 00 00	 call	 @__security_check_cookie@4
  00031	8b 4a fc	 mov	 ecx, DWORD PTR [edx-4]
  00034	33 c8		 xor	 ecx, eax
  00036	e8 00 00 00 00	 call	 @__security_check_cookie@4
  0003b	b8 00 00 00 00	 mov	 eax, OFFSET __ehfuncinfo$?CreateBarunaChaosGem@CItemUpgrade@@QAEXPAVCUser@@PAVCItemElem@@1@Z
  00040	e9 00 00 00 00	 jmp	 ___CxxFrameHandler3
text$x	ENDS
?CreateBarunaChaosGem@CItemUpgrade@@QAEXPAVCUser@@PAVCItemElem@@1@Z ENDP ; CItemUpgrade::CreateBarunaChaosGem
; Function compile flags: /Ogtp
; File C:\IAGOS\server\v18\Source\Source\WorldServer\ItemUpgrade.cpp
; File C:\IAGOS\server\v18\Source\Source\_Common\Project.h
; File C:\IAGOS\server\v18\Source\Source\WorldServer\ItemUpgrade.cpp
; File C:\IAGOS\server\v18\Source\Source\_Common\Item.h
; File C:\IAGOS\server\v18\Source\Source\WorldServer\ItemUpgrade.cpp
; File C:\IAGOS\server\v18\Source\Source\_Common\Project.h
; File C:\IAGOS\server\v18\Source\Source\_Common\data.h
; File C:\IAGOS\server\v18\Source\Source\_Common\Project.h
; File C:\IAGOS\server\v18\Source\Source\WorldServer\ItemUpgrade.cpp
; File C:\IAGOS\server\v18\Source\Source\_Common\Item.h
; File C:\IAGOS\server\v18\Source\Source\_Common\Project.h
; File C:\IAGOS\server\v18\Source\Source\_Common\data.h
; File C:\IAGOS\server\v18\Source\Source\_Common\Project.h
; File C:\IAGOS\server\v18\Source\Source\WorldServer\ItemUpgrade.cpp
; File C:\Program Files\Microsoft Visual Studio\2022\Professional\VC\Tools\MSVC\14.44.35207\include\xtree
; File C:\Program Files\Microsoft Visual Studio\2022\Professional\VC\Tools\MSVC\14.44.35207\include\type_traits
; File C:\Program Files\Microsoft Visual Studio\2022\Professional\VC\Tools\MSVC\14.44.35207\include\xtree
; File C:\IAGOS\server\v18\Source\Source\WorldServer\ItemUpgrade.cpp
; File C:\IAGOS\server\v18\Source\Source\_Common\Item.h
; File C:\IAGOS\server\v18\Source\Source\_Common\Project.h
; File C:\IAGOS\server\v18\Source\Source\_Common\data.h
; File C:\IAGOS\server\v18\Source\Source\_Common\Project.h
; File C:\IAGOS\server\v18\Source\Source\WorldServer\ItemUpgrade.cpp
; File C:\Program Files\Microsoft Visual Studio\2022\Professional\VC\Tools\MSVC\14.44.35207\include\xtree
; File C:\IAGOS\server\v18\Source\Source\WorldServer\ItemUpgrade.cpp
; File C:\IAGOS\server\v18\Source\Source\_Common\xUtil.h
; File C:\IAGOS\server\v18\Source\Source\WorldServer\ItemUpgrade.cpp
; File C:\IAGOS\server\v18\Source\Source\_Common\xUtil.h
; File C:\IAGOS\server\v18\Source\Source\WorldServer\ItemUpgrade.cpp
; File C:\IAGOS\server\v18\Source\Source\_Common\Project.h
; File C:\IAGOS\server\v18\Source\Source\WorldServer\ItemUpgrade.cpp
; File C:\IAGOS\server\v18\Source\Source\_Common\Project.h
; File C:\IAGOS\server\v18\Source\Source\_Common\data.h
; File C:\IAGOS\server\v18\Source\Source\WorldServer\ItemUpgrade.cpp
; File C:\IAGOS\server\v18\Source\Source\_Common\Project.h
; File C:\IAGOS\server\v18\Source\Source\WorldServer\ItemUpgrade.cpp
; File C:\IAGOS\server\v18\Source\Source\_Common\Project.h
; File C:\IAGOS\server\v18\Source\Source\WorldServer\ItemUpgrade.cpp
; File C:\IAGOS\server\v18\Source\Source\_Common\Project.h
; File C:\IAGOS\server\v18\Source\Source\_Common\data.h
; File C:\IAGOS\server\v18\Source\Source\WorldServer\ItemUpgrade.cpp
; File C:\IAGOS\server\v18\Source\Source\_Common\Project.h
; File C:\IAGOS\server\v18\Source\Source\WorldServer\ItemUpgrade.cpp
;	COMDAT ?BarunaChaosGemExtract@CItemUpgrade@@QAEXPAVCUser@@PAVCItemElem@@@Z
_TEXT	SEGMENT
__Loc$2 = -756						; size = 12
tv1039 = -744						; size = 4
$T3 = -740						; size = 4
_pEquip$GSCopy$1$ = -736				; size = 4
_i$4 = -732						; size = 4
_this$1$ = -728						; size = 4
_pUser$GSCopy$1$ = -724					; size = 4
_itemElemTemp$5 = -720					; size = 176
_itemElemTemp$6 = -544					; size = 176
_itemElem$7 = -368					; size = 176
_itemElem$8 = -192					; size = 176
__$ArrayPad$ = -16					; size = 4
__$EHRec$ = -12						; size = 12
_pUser$ = 8						; size = 4
_pEquip$ = 12						; size = 4
?BarunaChaosGemExtract@CItemUpgrade@@QAEXPAVCUser@@PAVCItemElem@@@Z PROC ; CItemUpgrade::BarunaChaosGemExtract, COMDAT
; _this$ = ecx

; 1499 : {

  00000	55		 push	 ebp
  00001	8b ec		 mov	 ebp, esp
  00003	6a ff		 push	 -1
  00005	68 00 00 00 00	 push	 __ehhandler$?BarunaChaosGemExtract@CItemUpgrade@@QAEXPAVCUser@@PAVCItemElem@@@Z
  0000a	64 a1 00 00 00
	00		 mov	 eax, DWORD PTR fs:0
  00010	50		 push	 eax
  00011	81 ec e8 02 00
	00		 sub	 esp, 744		; 000002e8H
  00017	a1 00 00 00 00	 mov	 eax, DWORD PTR ___security_cookie
  0001c	33 c5		 xor	 eax, ebp
  0001e	89 45 f0	 mov	 DWORD PTR __$ArrayPad$[ebp], eax
  00021	53		 push	 ebx
  00022	56		 push	 esi
  00023	57		 push	 edi
  00024	50		 push	 eax
  00025	8d 45 f4	 lea	 eax, DWORD PTR __$EHRec$[ebp]
  00028	64 a3 00 00 00
	00		 mov	 DWORD PTR fs:0, eax
  0002e	89 8d 28 fd ff
	ff		 mov	 DWORD PTR _this$1$[ebp], ecx
  00034	8b 4d 0c	 mov	 ecx, DWORD PTR _pEquip$[ebp]
  00037	8b 75 08	 mov	 esi, DWORD PTR _pUser$[ebp]
; File C:\IAGOS\server\v18\Source\Source\_Common\Project.h

; 1389 : 	VERIFY_RANGE_ASSERT( nIndex, 0, m_aPropItem.GetSize(), "GetItemProp range_error", NULL );

  0003a	8b 1d 40 02 00
	00		 mov	 ebx, DWORD PTR ?prj@@3VCProject@@A+576
; File C:\IAGOS\server\v18\Source\Source\WorldServer\ItemUpgrade.cpp

; 1499 : {

  00040	89 b5 2c fd ff
	ff		 mov	 DWORD PTR _pUser$GSCopy$1$[ebp], esi
; File C:\IAGOS\server\v18\Source\Source\_Common\Item.h

; 230  : 	ItemProp*	GetProp()	{	return prj.GetItemProp( m_dwItemId );	}

  00046	8b 51 0c	 mov	 edx, DWORD PTR [ecx+12]
; File C:\IAGOS\server\v18\Source\Source\WorldServer\ItemUpgrade.cpp

; 1499 : {

  00049	89 8d 20 fd ff
	ff		 mov	 DWORD PTR _pEquip$GSCopy$1$[ebp], ecx
; File C:\IAGOS\server\v18\Source\Source\_Common\Project.h

; 1389 : 	VERIFY_RANGE_ASSERT( nIndex, 0, m_aPropItem.GetSize(), "GetItemProp range_error", NULL );

  0004f	85 d2		 test	 edx, edx
  00051	78 10		 js	 SHORT $LN164@BarunaChao
  00053	3b d3		 cmp	 edx, ebx
  00055	7d 0c		 jge	 SHORT $LN164@BarunaChao
; File C:\IAGOS\server\v18\Source\Source\_Common\data.h

; 270  : 	if( dwIndex >= (DWORD)m_nMaxIndex )

  00057	73 2c		 jae	 SHORT $LN209@BarunaChao

; 272  : 	return (T*) m_apOffset[ dwIndex ];

  00059	a1 30 02 00 00	 mov	 eax, DWORD PTR ?prj@@3VCProject@@A+560
  0005e	8b 04 90	 mov	 eax, DWORD PTR [eax+edx*4]
; File C:\IAGOS\server\v18\Source\Source\_Common\Project.h

; 1390 : 	return m_aPropItem.GetAt( nIndex ); 

  00061	eb 24		 jmp	 SHORT $LN159@BarunaChao
$LN164@BarunaChao:

; 579  : 	LPCTSTR szErr = Error( _T( "%s min:%d, max:%d, index:%d" ), szMsg, nMin, nMax, nIndex ); 

  00063	52		 push	 edx
  00064	53		 push	 ebx
  00065	6a 00		 push	 0
  00067	68 00 00 00 00	 push	 OFFSET ??_C@_0BI@BEIFNGEL@GetItemProp?5range_error@
  0006c	68 00 00 00 00	 push	 OFFSET ??_C@_0BM@HMFGHCP@?$CFs?5min?3?$CFd?0?5max?3?$CFd?0?5index?3?$CFd@
  00071	e8 00 00 00 00	 call	 ?Error@@YAPBDPBDZZ	; Error

; 1389 : 	VERIFY_RANGE_ASSERT( nIndex, 0, m_aPropItem.GetSize(), "GetItemProp range_error", NULL );

  00076	8b 1d 40 02 00
	00		 mov	 ebx, DWORD PTR ?prj@@3VCProject@@A+576

; 579  : 	LPCTSTR szErr = Error( _T( "%s min:%d, max:%d, index:%d" ), szMsg, nMin, nMax, nIndex ); 

  0007c	83 c4 14	 add	 esp, 20			; 00000014H
  0007f	8b 8d 20 fd ff
	ff		 mov	 ecx, DWORD PTR _pEquip$GSCopy$1$[ebp]
$LN209@BarunaChao:
; File C:\IAGOS\server\v18\Source\Source\WorldServer\ItemUpgrade.cpp

; 1500 : 	if( pEquip->GetProp()->dwItemKind1 != IK1_WEAPON && pEquip->GetProp()->dwItemKind1 != IK1_ARMOR )

  00085	33 c0		 xor	 eax, eax
$LN159@BarunaChao:
  00087	83 78 70 01	 cmp	 DWORD PTR [eax+112], 1
  0008b	74 4c		 je	 SHORT $LN5@BarunaChao
; File C:\IAGOS\server\v18\Source\Source\_Common\Item.h

; 230  : 	ItemProp*	GetProp()	{	return prj.GetItemProp( m_dwItemId );	}

  0008d	8b 49 0c	 mov	 ecx, DWORD PTR [ecx+12]
; File C:\IAGOS\server\v18\Source\Source\_Common\Project.h

; 1389 : 	VERIFY_RANGE_ASSERT( nIndex, 0, m_aPropItem.GetSize(), "GetItemProp range_error", NULL );

  00090	85 c9		 test	 ecx, ecx
  00092	78 10		 js	 SHORT $LN187@BarunaChao
  00094	3b cb		 cmp	 ecx, ebx
  00096	7d 0c		 jge	 SHORT $LN187@BarunaChao
; File C:\IAGOS\server\v18\Source\Source\_Common\data.h

; 270  : 	if( dwIndex >= (DWORD)m_nMaxIndex )

  00098	73 26		 jae	 SHORT $LN210@BarunaChao

; 272  : 	return (T*) m_apOffset[ dwIndex ];

  0009a	a1 30 02 00 00	 mov	 eax, DWORD PTR ?prj@@3VCProject@@A+560
  0009f	8b 04 88	 mov	 eax, DWORD PTR [eax+ecx*4]
; File C:\IAGOS\server\v18\Source\Source\_Common\Project.h

; 1390 : 	return m_aPropItem.GetAt( nIndex ); 

  000a2	eb 1e		 jmp	 SHORT $LN182@BarunaChao
$LN187@BarunaChao:

; 579  : 	LPCTSTR szErr = Error( _T( "%s min:%d, max:%d, index:%d" ), szMsg, nMin, nMax, nIndex ); 

  000a4	51		 push	 ecx
  000a5	53		 push	 ebx
  000a6	6a 00		 push	 0
  000a8	68 00 00 00 00	 push	 OFFSET ??_C@_0BI@BEIFNGEL@GetItemProp?5range_error@
  000ad	68 00 00 00 00	 push	 OFFSET ??_C@_0BM@HMFGHCP@?$CFs?5min?3?$CFd?0?5max?3?$CFd?0?5index?3?$CFd@
  000b2	e8 00 00 00 00	 call	 ?Error@@YAPBDPBDZZ	; Error

; 1389 : 	VERIFY_RANGE_ASSERT( nIndex, 0, m_aPropItem.GetSize(), "GetItemProp range_error", NULL );

  000b7	8b 1d 40 02 00
	00		 mov	 ebx, DWORD PTR ?prj@@3VCProject@@A+576

; 579  : 	LPCTSTR szErr = Error( _T( "%s min:%d, max:%d, index:%d" ), szMsg, nMin, nMax, nIndex ); 

  000bd	83 c4 14	 add	 esp, 20			; 00000014H
$LN210@BarunaChao:
; File C:\IAGOS\server\v18\Source\Source\WorldServer\ItemUpgrade.cpp

; 1500 : 	if( pEquip->GetProp()->dwItemKind1 != IK1_WEAPON && pEquip->GetProp()->dwItemKind1 != IK1_ARMOR )

  000c0	33 c0		 xor	 eax, eax
$LN182@BarunaChao:
  000c2	83 78 70 02	 cmp	 DWORD PTR [eax+112], 2
  000c6	74 11		 je	 SHORT $LN5@BarunaChao

; 1501 : 	{
; 1502 : 		pUser->AddDefinedText( TID_MMI_NEWSMELT_OPEREXTRACT01 );

  000c8	68 87 11 00 00	 push	 4487			; 00001187H
  000cd	8b ce		 mov	 ecx, esi
  000cf	e8 00 00 00 00	 call	 ?AddDefinedText@CUser@@QAEXH@Z ; CUser::AddDefinedText

; 1503 : 		return;

  000d4	e9 b4 03 00 00	 jmp	 $LN1@BarunaChao
$LN5@BarunaChao:
  000d9	8b 85 28 fd ff
	ff		 mov	 eax, DWORD PTR _this$1$[ebp]

; 1511 : 			if( pEquip->GetProp()->dwItemLV >= it->first )

  000df	bf 96 00 00 00	 mov	 edi, 150		; 00000096H
  000e4	83 c0 28	 add	 eax, 40			; 00000028H
  000e7	c7 85 24 fd ff
	ff 96 00 00 00	 mov	 DWORD PTR _i$4[ebp], 150 ; 00000096H
  000f1	89 85 18 fd ff
	ff		 mov	 DWORD PTR tv1039[ebp], eax
  000f7	eb 0d		 jmp	 SHORT $LN4@BarunaChao
  000f9	0f 1f 80 00 00
	00 00		 npad	 7
$LL205@BarunaChao:

; 1507 : 	for( int i = 150; i > 0; i-- )

  00100	8b bd 1c fd ff
	ff		 mov	 edi, DWORD PTR $T3[ebp]
$LN4@BarunaChao:
; File C:\Program Files\Microsoft Visual Studio\2022\Professional\VC\Tools\MSVC\14.44.35207\include\xtree

; 1384 :         const _Tree_find_result<_Nodeptr> _Loc = _Find_lower_bound(_Keyval);

  00106	8d 8d 24 fd ff
	ff		 lea	 ecx, DWORD PTR _i$4[ebp]
  0010c	51		 push	 ecx
  0010d	8d 8d 0c fd ff
	ff		 lea	 ecx, DWORD PTR __Loc$2[ebp]
  00113	51		 push	 ecx
  00114	8b c8		 mov	 ecx, eax
  00116	e8 00 00 00 00	 call	 ??$_Find_lower_bound@H@?$_Tree@V?$_Tmap_traits@HU__CHAOS_GEM@@U?$less@H@std@@V?$allocator@U?$pair@$$CBHU__CHAOS_GEM@@@std@@@3@$0A@@std@@@std@@IBE?AU?$_Tree_find_result@PAU?$_Tree_node@U?$pair@$$CBHU__CHAOS_GEM@@@std@@PAX@std@@@1@ABH@Z ; std::_Tree<std::_Tmap_traits<int,__CHAOS_GEM,std::less<int>,std::allocator<std::pair<int const ,__CHAOS_GEM> >,0> >::_Find_lower_bound<int>

; 1624 :         return !_Bound->_Isnil && !_DEBUG_LT_PRED(_Getcomp(), _Keyval, _Traits::_Kfn(_Bound->_Myval));

  0011b	8b b5 14 fd ff
	ff		 mov	 esi, DWORD PTR __Loc$2[ebp+8]
  00121	80 7e 0d 00	 cmp	 BYTE PTR [esi+13], 0
  00125	75 5a		 jne	 SHORT $LN39@BarunaChao
; File C:\Program Files\Microsoft Visual Studio\2022\Professional\VC\Tools\MSVC\14.44.35207\include\type_traits

; 2380 :         return _Left < _Right;

  00127	3b 7e 10	 cmp	 edi, DWORD PTR [esi+16]
; File C:\Program Files\Microsoft Visual Studio\2022\Professional\VC\Tools\MSVC\14.44.35207\include\xtree

; 1624 :         return !_Bound->_Isnil && !_DEBUG_LT_PRED(_Getcomp(), _Keyval, _Traits::_Kfn(_Bound->_Myval));

  0012a	7c 55		 jl	 SHORT $LN39@BarunaChao

; 37   :     _Tree_unchecked_const_iterator(_Nodeptr _Pnode, const _Mytree* _Plist) noexcept : _Ptr(_Pnode) {

  0012c	8b 85 28 fd ff
	ff		 mov	 eax, DWORD PTR _this$1$[ebp]
  00132	8b fe		 mov	 edi, esi
  00134	3b 70 28	 cmp	 esi, DWORD PTR [eax+40]
; File C:\IAGOS\server\v18\Source\Source\WorldServer\ItemUpgrade.cpp

; 1510 : 		if( it != m_mapChaosGemTable.end() )

  00137	74 51		 je	 SHORT $LN2@BarunaChao
; File C:\IAGOS\server\v18\Source\Source\_Common\Item.h

; 230  : 	ItemProp*	GetProp()	{	return prj.GetItemProp( m_dwItemId );	}

  00139	8b 85 20 fd ff
	ff		 mov	 eax, DWORD PTR _pEquip$GSCopy$1$[ebp]
  0013f	8b 48 0c	 mov	 ecx, DWORD PTR [eax+12]
; File C:\IAGOS\server\v18\Source\Source\_Common\Project.h

; 1389 : 	VERIFY_RANGE_ASSERT( nIndex, 0, m_aPropItem.GetSize(), "GetItemProp range_error", NULL );

  00142	85 c9		 test	 ecx, ecx
  00144	78 10		 js	 SHORT $LN202@BarunaChao
  00146	3b cb		 cmp	 ecx, ebx
  00148	7d 0c		 jge	 SHORT $LN202@BarunaChao
; File C:\IAGOS\server\v18\Source\Source\_Common\data.h

; 270  : 	if( dwIndex >= (DWORD)m_nMaxIndex )

  0014a	73 26		 jae	 SHORT $LN211@BarunaChao

; 272  : 	return (T*) m_apOffset[ dwIndex ];

  0014c	a1 30 02 00 00	 mov	 eax, DWORD PTR ?prj@@3VCProject@@A+560
  00151	8b 04 88	 mov	 eax, DWORD PTR [eax+ecx*4]
; File C:\IAGOS\server\v18\Source\Source\_Common\Project.h

; 1390 : 	return m_aPropItem.GetAt( nIndex ); 

  00154	eb 1e		 jmp	 SHORT $LN113@BarunaChao
$LN202@BarunaChao:

; 579  : 	LPCTSTR szErr = Error( _T( "%s min:%d, max:%d, index:%d" ), szMsg, nMin, nMax, nIndex ); 

  00156	51		 push	 ecx
  00157	53		 push	 ebx
  00158	6a 00		 push	 0
  0015a	68 00 00 00 00	 push	 OFFSET ??_C@_0BI@BEIFNGEL@GetItemProp?5range_error@
  0015f	68 00 00 00 00	 push	 OFFSET ??_C@_0BM@HMFGHCP@?$CFs?5min?3?$CFd?0?5max?3?$CFd?0?5index?3?$CFd@
  00164	e8 00 00 00 00	 call	 ?Error@@YAPBDPBDZZ	; Error

; 1389 : 	VERIFY_RANGE_ASSERT( nIndex, 0, m_aPropItem.GetSize(), "GetItemProp range_error", NULL );

  00169	8b 1d 40 02 00
	00		 mov	 ebx, DWORD PTR ?prj@@3VCProject@@A+576

; 579  : 	LPCTSTR szErr = Error( _T( "%s min:%d, max:%d, index:%d" ), szMsg, nMin, nMax, nIndex ); 

  0016f	83 c4 14	 add	 esp, 20			; 00000014H
$LN211@BarunaChao:
; File C:\IAGOS\server\v18\Source\Source\WorldServer\ItemUpgrade.cpp

; 1511 : 			if( pEquip->GetProp()->dwItemLV >= it->first )

  00172	33 c0		 xor	 eax, eax
$LN113@BarunaChao:
  00174	8b 80 bc 00 00
	00		 mov	 eax, DWORD PTR [eax+188]
  0017a	3b 46 10	 cmp	 eax, DWORD PTR [esi+16]
  0017d	73 2c		 jae	 SHORT $LN195@BarunaChao
  0017f	eb 09		 jmp	 SHORT $LN2@BarunaChao
$LN39@BarunaChao:
; File C:\Program Files\Microsoft Visual Studio\2022\Professional\VC\Tools\MSVC\14.44.35207\include\xtree

; 1389 :         return _Get_scary()->_Myhead;

  00181	8b 85 28 fd ff
	ff		 mov	 eax, DWORD PTR _this$1$[ebp]
  00187	8b 78 28	 mov	 edi, DWORD PTR [eax+40]
$LN2@BarunaChao:
; File C:\IAGOS\server\v18\Source\Source\WorldServer\ItemUpgrade.cpp

; 1507 : 	for( int i = 150; i > 0; i-- )

  0018a	8b 85 24 fd ff
	ff		 mov	 eax, DWORD PTR _i$4[ebp]
  00190	48		 dec	 eax
  00191	89 85 24 fd ff
	ff		 mov	 DWORD PTR _i$4[ebp], eax
  00197	85 c0		 test	 eax, eax
  00199	89 85 1c fd ff
	ff		 mov	 DWORD PTR $T3[ebp], eax
  0019f	8b 85 18 fd ff
	ff		 mov	 eax, DWORD PTR tv1039[ebp]
  001a5	0f 8f 55 ff ff
	ff		 jg	 $LL205@BarunaChao
$LN195@BarunaChao:
; File C:\IAGOS\server\v18\Source\Source\_Common\xUtil.h

; 16   : 	g_next = g_next * 1103515245 + 12345;// + nRandomSeed[ i++ ];

  001ab	69 35 00 00 00
	00 6d 4e c6 41	 imul	 esi, DWORD PTR ?g_next@@3KA, 1103515245 ; g_next

; 22   : 	return  xRand() % num;

  001b5	b8 59 17 b7 d1	 mov	 eax, -776530087		; d1b71759H

; 16   : 	g_next = g_next * 1103515245 + 12345;// + nRandomSeed[ i++ ];

  001ba	81 c6 39 30 00
	00		 add	 esi, 12345		; 00003039H

; 22   : 	return  xRand() % num;

  001c0	f7 e6		 mul	 esi

; 16   : 	g_next = g_next * 1103515245 + 12345;// + nRandomSeed[ i++ ];

  001c2	89 35 00 00 00
	00		 mov	 DWORD PTR ?g_next@@3KA, esi ; g_next

; 22   : 	return  xRand() % num;

  001c8	c1 ea 0d	 shr	 edx, 13			; 0000000dH
  001cb	69 ca 10 27 00
	00		 imul	 ecx, edx, 10000
  001d1	8b d6		 mov	 edx, esi
  001d3	2b d1		 sub	 edx, ecx
; File C:\IAGOS\server\v18\Source\Source\WorldServer\ItemUpgrade.cpp

; 1515 : 	if( (int)( xRandom( 10000 ) ) > it->second.nChaosGemChance )

  001d5	3b 57 18	 cmp	 edx, DWORD PTR [edi+24]
  001d8	0f 8e 6f 01 00
	00		 jle	 $LN8@BarunaChao
; File C:\IAGOS\server\v18\Source\Source\_Common\xUtil.h

; 16   : 	g_next = g_next * 1103515245 + 12345;// + nRandomSeed[ i++ ];

  001de	69 ce 6d 4e c6
	41		 imul	 ecx, esi, 1103515245

; 22   : 	return  xRand() % num;

  001e4	b8 59 17 b7 d1	 mov	 eax, -776530087		; d1b71759H

; 16   : 	g_next = g_next * 1103515245 + 12345;// + nRandomSeed[ i++ ];

  001e9	81 c1 39 30 00
	00		 add	 ecx, 12345		; 00003039H

; 22   : 	return  xRand() % num;

  001ef	f7 e1		 mul	 ecx

; 16   : 	g_next = g_next * 1103515245 + 12345;// + nRandomSeed[ i++ ];

  001f1	89 0d 00 00 00
	00		 mov	 DWORD PTR ?g_next@@3KA, ecx ; g_next

; 22   : 	return  xRand() % num;

  001f7	c1 ea 0d	 shr	 edx, 13			; 0000000dH
  001fa	69 c2 10 27 00
	00		 imul	 eax, edx, 10000
  00200	2b c8		 sub	 ecx, eax
; File C:\IAGOS\server\v18\Source\Source\WorldServer\ItemUpgrade.cpp

; 1518 : 		if( (int)( xRandom( 10000 ) ) < it->second.nChaosPieceChance )

  00202	3b 4f 20	 cmp	 ecx, DWORD PTR [edi+32]
  00205	0f 8d 2b 01 00
	00		 jge	 $LN10@BarunaChao

; 1519 : 		{
; 1520 : 			int nAmount = (int)(xRandom( 1, it->second.nChaosPieceAmount ));

  0020b	ff 77 1c	 push	 DWORD PTR [edi+28]
  0020e	6a 01		 push	 1
  00210	e8 00 00 00 00	 call	 ?xRandom@@YAKKK@Z	; xRandom
  00215	83 c4 08	 add	 esp, 8

; 1521 : 			CItemElem itemElemTemp;

  00218	8d 8d e0 fd ff
	ff		 lea	 ecx, DWORD PTR _itemElemTemp$6[ebp]
  0021e	8b f0		 mov	 esi, eax
  00220	e8 00 00 00 00	 call	 ??0CItemElem@@QAE@XZ	; CItemElem::CItemElem
; File C:\IAGOS\server\v18\Source\Source\_Common\Project.h

; 1389 : 	VERIFY_RANGE_ASSERT( nIndex, 0, m_aPropItem.GetSize(), "GetItemProp range_error", NULL );

  00225	8b 0d 40 02 00
	00		 mov	 ecx, DWORD PTR ?prj@@3VCProject@@A+576
; File C:\IAGOS\server\v18\Source\Source\WorldServer\ItemUpgrade.cpp

; 1521 : 			CItemElem itemElemTemp;

  0022b	c7 45 fc 00 00
	00 00		 mov	 DWORD PTR __$EHRec$[ebp+8], 0

; 1522 : 			itemElemTemp.m_dwItemId = II_GEN_MAT_OPERPIECE;

  00232	c7 85 ec fd ff
	ff 81 1b 00 00	 mov	 DWORD PTR _itemElemTemp$6[ebp+12], 7041 ; 00001b81H
; File C:\IAGOS\server\v18\Source\Source\_Common\Project.h

; 1389 : 	VERIFY_RANGE_ASSERT( nIndex, 0, m_aPropItem.GetSize(), "GetItemProp range_error", NULL );

  0023c	81 f9 81 1b 00
	00		 cmp	 ecx, 7041		; 00001b81H
  00242	0f 8e c9 00 00
	00		 jle	 $LN150@BarunaChao
; File C:\IAGOS\server\v18\Source\Source\_Common\data.h

; 270  : 	if( dwIndex >= (DWORD)m_nMaxIndex )

  00248	77 04		 ja	 SHORT $LN155@BarunaChao

; 271  : 		return NULL;

  0024a	33 c9		 xor	 ecx, ecx
  0024c	eb 0b		 jmp	 SHORT $LN154@BarunaChao
$LN155@BarunaChao:

; 272  : 	return (T*) m_apOffset[ dwIndex ];

  0024e	a1 30 02 00 00	 mov	 eax, DWORD PTR ?prj@@3VCProject@@A+560
  00253	8b 88 04 6e 00
	00		 mov	 ecx, DWORD PTR [eax+28164]
$LN154@BarunaChao:
; File C:\IAGOS\server\v18\Source\Source\WorldServer\ItemUpgrade.cpp

; 1524 : 			if( !pItemprop )

  00259	85 c9		 test	 ecx, ecx
  0025b	0f 84 ca 00 00
	00		 je	 $LN21@BarunaChao

; 1525 : 				return;
; 1526 : 			if( (DWORD)( nAmount ) > pItemprop->dwPackMax && pUser->m_Inventory.IsFull( &itemElemTemp, pItemprop, (short)( nAmount - pItemprop->dwPackMax ) ) )

  00261	8b 41 6c	 mov	 eax, DWORD PTR [ecx+108]
  00264	8b 9d 2c fd ff
	ff		 mov	 ebx, DWORD PTR _pUser$GSCopy$1$[ebp]
  0026a	0f b7 d0	 movzx	 edx, ax
  0026d	3b f0		 cmp	 esi, eax
  0026f	76 33		 jbe	 SHORT $LN203@BarunaChao
  00271	8b c6		 mov	 eax, esi
  00273	2b c2		 sub	 eax, edx
  00275	50		 push	 eax
  00276	51		 push	 ecx
  00277	8d 85 e0 fd ff
	ff		 lea	 eax, DWORD PTR _itemElemTemp$6[ebp]
  0027d	50		 push	 eax
  0027e	8d 8b fc 0a 00
	00		 lea	 ecx, DWORD PTR [ebx+2812]
  00284	e8 00 00 00 00	 call	 ?IsFull@?$CItemContainer@VCItemElem@@@@QAEHPAVCItemElem@@PAUItemProp@@F@Z ; CItemContainer<CItemElem>::IsFull
  00289	85 c0		 test	 eax, eax
  0028b	74 17		 je	 SHORT $LN203@BarunaChao

; 1527 : 			{
; 1528 : 				pUser->AddDefinedText( TID_GAME_LACKSPACE );

  0028d	68 72 02 00 00	 push	 626			; 00000272H
  00292	8b cb		 mov	 ecx, ebx
  00294	e8 00 00 00 00	 call	 ?AddDefinedText@CUser@@QAEXH@Z ; CUser::AddDefinedText

; 1529 : 				return;

  00299	8d 8d e0 fd ff
	ff		 lea	 ecx, DWORD PTR _itemElemTemp$6[ebp]
  0029f	e9 e4 01 00 00	 jmp	 $LN213@BarunaChao
$LN203@BarunaChao:

; 1530 : 			}
; 1531 : 			CItemElem itemElem;

  002a4	8d 8d 40 ff ff
	ff		 lea	 ecx, DWORD PTR _itemElem$8[ebp]
  002aa	e8 00 00 00 00	 call	 ??0CItemElem@@QAE@XZ	; CItemElem::CItemElem

; 1532 : 			itemElem.m_dwItemId = II_GEN_MAT_OPERPIECE;
; 1533 : 			itemElem.m_nItemNum	= nAmount;
; 1534 : 			itemElem.SetSerialNumber();

  002af	8d 8d 40 ff ff
	ff		 lea	 ecx, DWORD PTR _itemElem$8[ebp]
  002b5	c6 45 fc 01	 mov	 BYTE PTR __$EHRec$[ebp+8], 1
  002b9	c7 85 4c ff ff
	ff 81 1b 00 00	 mov	 DWORD PTR _itemElem$8[ebp+12], 7041 ; 00001b81H
  002c3	66 89 75 b4	 mov	 WORD PTR _itemElem$8[ebp+116], si
  002c7	e8 00 00 00 00	 call	 ?SetSerialNumber@CItemBase@@QAEXXZ ; CItemBase::SetSerialNumber

; 1535 : 			itemElem.m_nHitPoint	= 0;		
; 1536 : 			pUser->CreateItem( &itemElem );

  002cc	6a 00		 push	 0
  002ce	6a 00		 push	 0
  002d0	6a 00		 push	 0
  002d2	8d 85 40 ff ff
	ff		 lea	 eax, DWORD PTR _itemElem$8[ebp]
  002d8	c7 45 b0 00 00
	00 00		 mov	 DWORD PTR _itemElem$8[ebp+112], 0
  002df	50		 push	 eax
  002e0	8b cb		 mov	 ecx, ebx
  002e2	e8 00 00 00 00	 call	 ?CreateItem@CMover@@QAEHPAVCItemBase@@PAEPAFE@Z ; CMover::CreateItem

; 1537 : 			pUser->AddDefinedText( TID_MMI_NEWSMELT_OPEREXTRACT04, "%d", nAmount );

  002e7	56		 push	 esi
  002e8	68 00 00 00 00	 push	 OFFSET ??_C@_02DPKJAMEF@?$CFd@
  002ed	68 8a 11 00 00	 push	 4490			; 0000118aH
  002f2	53		 push	 ebx
  002f3	e8 00 00 00 00	 call	 ?AddDefinedText@CUser@@QAAXHPBDZZ ; CUser::AddDefinedText
  002f8	83 c4 10	 add	 esp, 16			; 00000010H

; 1538 : 		}

  002fb	8d 8d 40 ff ff
	ff		 lea	 ecx, DWORD PTR _itemElem$8[ebp]
  00301	e8 00 00 00 00	 call	 ??1CItemElem@@UAE@XZ	; CItemElem::~CItemElem
  00306	8d 8d e0 fd ff
	ff		 lea	 ecx, DWORD PTR _itemElemTemp$6[ebp]
  0030c	e9 35 01 00 00	 jmp	 $LN212@BarunaChao
$LN150@BarunaChao:
; File C:\IAGOS\server\v18\Source\Source\_Common\Project.h

; 579  : 	LPCTSTR szErr = Error( _T( "%s min:%d, max:%d, index:%d" ), szMsg, nMin, nMax, nIndex ); 

  00311	68 81 1b 00 00	 push	 7041			; 00001b81H
  00316	51		 push	 ecx
  00317	6a 00		 push	 0
  00319	68 00 00 00 00	 push	 OFFSET ??_C@_0BI@BEIFNGEL@GetItemProp?5range_error@
  0031e	68 00 00 00 00	 push	 OFFSET ??_C@_0BM@HMFGHCP@?$CFs?5min?3?$CFd?0?5max?3?$CFd?0?5index?3?$CFd@
  00323	e8 00 00 00 00	 call	 ?Error@@YAPBDPBDZZ	; Error
  00328	83 c4 14	 add	 esp, 20			; 00000014H
$LN21@BarunaChao:
; File C:\IAGOS\server\v18\Source\Source\WorldServer\ItemUpgrade.cpp

; 1529 : 				return;

  0032b	8d 8d e0 fd ff
	ff		 lea	 ecx, DWORD PTR _itemElemTemp$6[ebp]
  00331	e9 52 01 00 00	 jmp	 $LN213@BarunaChao
$LN10@BarunaChao:

; 1539 : 		else
; 1540 : 		{
; 1541 : 			pUser->AddDefinedText( TID_MMI_NEWSMELT_OPEREXTRACT03 );

  00336	8b 9d 2c fd ff
	ff		 mov	 ebx, DWORD PTR _pUser$GSCopy$1$[ebp]
  0033c	8b cb		 mov	 ecx, ebx
  0033e	68 89 11 00 00	 push	 4489			; 00001189H
  00343	e8 00 00 00 00	 call	 ?AddDefinedText@CUser@@QAEXH@Z ; CUser::AddDefinedText

; 1542 : 		}
; 1543 : 	}

  00348	e9 05 01 00 00	 jmp	 $LN9@BarunaChao
$LN8@BarunaChao:

; 1544 : 	else
; 1545 : 	{
; 1546 : 		int nAmount = (int)(xRandom( 1, it->second.nChaosGemAmount ));

  0034d	ff 77 14	 push	 DWORD PTR [edi+20]
  00350	6a 01		 push	 1
  00352	e8 00 00 00 00	 call	 ?xRandom@@YAKKK@Z	; xRandom
  00357	83 c4 08	 add	 esp, 8

; 1547 : 		CItemElem itemElemTemp;

  0035a	8d 8d 30 fd ff
	ff		 lea	 ecx, DWORD PTR _itemElemTemp$5[ebp]
  00360	8b f0		 mov	 esi, eax
  00362	e8 00 00 00 00	 call	 ??0CItemElem@@QAE@XZ	; CItemElem::CItemElem
; File C:\IAGOS\server\v18\Source\Source\_Common\Project.h

; 1389 : 	VERIFY_RANGE_ASSERT( nIndex, 0, m_aPropItem.GetSize(), "GetItemProp range_error", NULL );

  00367	8b 0d 40 02 00
	00		 mov	 ecx, DWORD PTR ?prj@@3VCProject@@A+576
; File C:\IAGOS\server\v18\Source\Source\WorldServer\ItemUpgrade.cpp

; 1547 : 		CItemElem itemElemTemp;

  0036d	c7 45 fc 02 00
	00 00		 mov	 DWORD PTR __$EHRec$[ebp+8], 2

; 1548 : 		itemElemTemp.m_dwItemId = II_GEN_MAT_OPER;

  00374	c7 85 3c fd ff
	ff 80 1b 00 00	 mov	 DWORD PTR _itemElemTemp$5[ebp+12], 7040 ; 00001b80H
; File C:\IAGOS\server\v18\Source\Source\_Common\Project.h

; 1389 : 	VERIFY_RANGE_ASSERT( nIndex, 0, m_aPropItem.GetSize(), "GetItemProp range_error", NULL );

  0037e	81 f9 80 1b 00
	00		 cmp	 ecx, 7040		; 00001b80H
  00384	0f 8e de 00 00
	00		 jle	 $LN104@BarunaChao
; File C:\IAGOS\server\v18\Source\Source\_Common\data.h

; 270  : 	if( dwIndex >= (DWORD)m_nMaxIndex )

  0038a	77 04		 ja	 SHORT $LN109@BarunaChao

; 271  : 		return NULL;

  0038c	33 c9		 xor	 ecx, ecx
  0038e	eb 0b		 jmp	 SHORT $LN108@BarunaChao
$LN109@BarunaChao:

; 272  : 	return (T*) m_apOffset[ dwIndex ];

  00390	a1 30 02 00 00	 mov	 eax, DWORD PTR ?prj@@3VCProject@@A+560
  00395	8b 88 00 6e 00
	00		 mov	 ecx, DWORD PTR [eax+28160]
$LN108@BarunaChao:
; File C:\IAGOS\server\v18\Source\Source\WorldServer\ItemUpgrade.cpp

; 1550 : 		if( !pItemprop )

  0039b	85 c9		 test	 ecx, ecx
  0039d	0f 84 df 00 00
	00		 je	 $LN22@BarunaChao

; 1551 : 			return;
; 1552 : 		if( (DWORD)( nAmount ) > pItemprop->dwPackMax && pUser->m_Inventory.IsFull( &itemElemTemp, pItemprop, (short)( nAmount - pItemprop->dwPackMax ) ) )

  003a3	8b 41 6c	 mov	 eax, DWORD PTR [ecx+108]
  003a6	8b 9d 2c fd ff
	ff		 mov	 ebx, DWORD PTR _pUser$GSCopy$1$[ebp]
  003ac	0f b7 d0	 movzx	 edx, ax
  003af	3b f0		 cmp	 esi, eax
  003b1	76 2d		 jbe	 SHORT $LN204@BarunaChao
  003b3	8b c6		 mov	 eax, esi
  003b5	2b c2		 sub	 eax, edx
  003b7	50		 push	 eax
  003b8	51		 push	 ecx
  003b9	8d 85 30 fd ff
	ff		 lea	 eax, DWORD PTR _itemElemTemp$5[ebp]
  003bf	50		 push	 eax
  003c0	8d 8b fc 0a 00
	00		 lea	 ecx, DWORD PTR [ebx+2812]
  003c6	e8 00 00 00 00	 call	 ?IsFull@?$CItemContainer@VCItemElem@@@@QAEHPAVCItemElem@@PAUItemProp@@F@Z ; CItemContainer<CItemElem>::IsFull
  003cb	85 c0		 test	 eax, eax
  003cd	74 11		 je	 SHORT $LN204@BarunaChao

; 1553 : 		{
; 1554 : 			pUser->AddDefinedText( TID_GAME_LACKSPACE );

  003cf	68 72 02 00 00	 push	 626			; 00000272H
  003d4	8b cb		 mov	 ecx, ebx
  003d6	e8 00 00 00 00	 call	 ?AddDefinedText@CUser@@QAEXH@Z ; CUser::AddDefinedText
  003db	e9 a2 00 00 00	 jmp	 $LN22@BarunaChao
$LN204@BarunaChao:

; 1556 : 		}
; 1557 : 		CItemElem itemElem;

  003e0	8d 8d 90 fe ff
	ff		 lea	 ecx, DWORD PTR _itemElem$7[ebp]
  003e6	e8 00 00 00 00	 call	 ??0CItemElem@@QAE@XZ	; CItemElem::CItemElem

; 1558 : 		itemElem.m_dwItemId = II_GEN_MAT_OPER;
; 1559 : 		itemElem.m_nItemNum	= nAmount;
; 1560 : 		itemElem.SetSerialNumber();

  003eb	8d 8d 90 fe ff
	ff		 lea	 ecx, DWORD PTR _itemElem$7[ebp]
  003f1	c6 45 fc 03	 mov	 BYTE PTR __$EHRec$[ebp+8], 3
  003f5	c7 85 9c fe ff
	ff 80 1b 00 00	 mov	 DWORD PTR _itemElem$7[ebp+12], 7040 ; 00001b80H
  003ff	66 89 b5 04 ff
	ff ff		 mov	 WORD PTR _itemElem$7[ebp+116], si
  00406	e8 00 00 00 00	 call	 ?SetSerialNumber@CItemBase@@QAEXXZ ; CItemBase::SetSerialNumber

; 1561 : 		itemElem.m_nHitPoint	= 0;		
; 1562 : 		pUser->CreateItem( &itemElem );

  0040b	6a 00		 push	 0
  0040d	6a 00		 push	 0
  0040f	6a 00		 push	 0
  00411	8d 85 90 fe ff
	ff		 lea	 eax, DWORD PTR _itemElem$7[ebp]
  00417	c7 85 00 ff ff
	ff 00 00 00 00	 mov	 DWORD PTR _itemElem$7[ebp+112], 0
  00421	50		 push	 eax
  00422	8b cb		 mov	 ecx, ebx
  00424	e8 00 00 00 00	 call	 ?CreateItem@CMover@@QAEHPAVCItemBase@@PAEPAFE@Z ; CMover::CreateItem

; 1563 : 		pUser->AddDefinedText( TID_MMI_NEWSMELT_OPER04 );

  00429	68 86 11 00 00	 push	 4486			; 00001186H
  0042e	8b cb		 mov	 ecx, ebx
  00430	e8 00 00 00 00	 call	 ?AddDefinedText@CUser@@QAEXH@Z ; CUser::AddDefinedText

; 1564 : 		// success
; 1565 : 	}

  00435	8d 8d 90 fe ff
	ff		 lea	 ecx, DWORD PTR _itemElem$7[ebp]
  0043b	e8 00 00 00 00	 call	 ??1CItemElem@@UAE@XZ	; CItemElem::~CItemElem
  00440	8d 8d 30 fd ff
	ff		 lea	 ecx, DWORD PTR _itemElemTemp$5[ebp]
$LN212@BarunaChao:

; 1566 : 
; 1567 : 	pUser->RemoveItem( (BYTE)( pEquip->m_dwObjId ), (short)1 );

  00446	c7 45 fc ff ff
	ff ff		 mov	 DWORD PTR __$EHRec$[ebp+8], -1
  0044d	e8 00 00 00 00	 call	 ??1CItemElem@@UAE@XZ	; CItemElem::~CItemElem
$LN9@BarunaChao:
  00452	8b 85 20 fd ff
	ff		 mov	 eax, DWORD PTR _pEquip$GSCopy$1$[ebp]
  00458	8b cb		 mov	 ecx, ebx
  0045a	6a 01		 push	 1
  0045c	0f b6 40 04	 movzx	 eax, BYTE PTR [eax+4]
  00460	50		 push	 eax
  00461	e8 00 00 00 00	 call	 ?RemoveItem@CMover@@QAEXEF@Z ; CMover::RemoveItem
  00466	eb 25		 jmp	 SHORT $LN1@BarunaChao
$LN104@BarunaChao:
; File C:\IAGOS\server\v18\Source\Source\_Common\Project.h

; 579  : 	LPCTSTR szErr = Error( _T( "%s min:%d, max:%d, index:%d" ), szMsg, nMin, nMax, nIndex ); 

  00468	68 80 1b 00 00	 push	 7040			; 00001b80H
  0046d	51		 push	 ecx
  0046e	6a 00		 push	 0
  00470	68 00 00 00 00	 push	 OFFSET ??_C@_0BI@BEIFNGEL@GetItemProp?5range_error@
  00475	68 00 00 00 00	 push	 OFFSET ??_C@_0BM@HMFGHCP@?$CFs?5min?3?$CFd?0?5max?3?$CFd?0?5index?3?$CFd@
  0047a	e8 00 00 00 00	 call	 ?Error@@YAPBDPBDZZ	; Error
  0047f	83 c4 14	 add	 esp, 20			; 00000014H
$LN22@BarunaChao:
; File C:\IAGOS\server\v18\Source\Source\WorldServer\ItemUpgrade.cpp

; 1555 : 			return;

  00482	8d 8d 30 fd ff
	ff		 lea	 ecx, DWORD PTR _itemElemTemp$5[ebp]
$LN213@BarunaChao:

; 1568 : }

  00488	e8 00 00 00 00	 call	 ??1CItemElem@@UAE@XZ	; CItemElem::~CItemElem
$LN1@BarunaChao:
  0048d	8b 4d f4	 mov	 ecx, DWORD PTR __$EHRec$[ebp]
  00490	64 89 0d 00 00
	00 00		 mov	 DWORD PTR fs:0, ecx
  00497	59		 pop	 ecx
  00498	5f		 pop	 edi
  00499	5e		 pop	 esi
  0049a	5b		 pop	 ebx
  0049b	8b 4d f0	 mov	 ecx, DWORD PTR __$ArrayPad$[ebp]
  0049e	33 cd		 xor	 ecx, ebp
  004a0	e8 00 00 00 00	 call	 @__security_check_cookie@4
  004a5	8b e5		 mov	 esp, ebp
  004a7	5d		 pop	 ebp
  004a8	c2 08 00	 ret	 8
_TEXT	ENDS
;	COMDAT text$x
text$x	SEGMENT
__unwindfunclet$?BarunaChaosGemExtract@CItemUpgrade@@QAEXPAVCUser@@PAVCItemElem@@@Z$0:
  00000	8d 8d e0 fd ff
	ff		 lea	 ecx, DWORD PTR _itemElemTemp$6[ebp]
  00006	e9 00 00 00 00	 jmp	 ??1CItemElem@@UAE@XZ	; CItemElem::~CItemElem
__unwindfunclet$?BarunaChaosGemExtract@CItemUpgrade@@QAEXPAVCUser@@PAVCItemElem@@@Z$1:
  0000b	8d 8d 40 ff ff
	ff		 lea	 ecx, DWORD PTR _itemElem$8[ebp]
  00011	e9 00 00 00 00	 jmp	 ??1CItemElem@@UAE@XZ	; CItemElem::~CItemElem
__unwindfunclet$?BarunaChaosGemExtract@CItemUpgrade@@QAEXPAVCUser@@PAVCItemElem@@@Z$2:
  00016	8d 8d 30 fd ff
	ff		 lea	 ecx, DWORD PTR _itemElemTemp$5[ebp]
  0001c	e9 00 00 00 00	 jmp	 ??1CItemElem@@UAE@XZ	; CItemElem::~CItemElem
__unwindfunclet$?BarunaChaosGemExtract@CItemUpgrade@@QAEXPAVCUser@@PAVCItemElem@@@Z$3:
  00021	8d 8d 90 fe ff
	ff		 lea	 ecx, DWORD PTR _itemElem$7[ebp]
  00027	e9 00 00 00 00	 jmp	 ??1CItemElem@@UAE@XZ	; CItemElem::~CItemElem
  0002c	cc		 int	 3
  0002d	cc		 int	 3
  0002e	cc		 int	 3
  0002f	cc		 int	 3
  00030	cc		 int	 3
__ehhandler$?BarunaChaosGemExtract@CItemUpgrade@@QAEXPAVCUser@@PAVCItemElem@@@Z:
  00031	90		 npad	 1
  00032	90		 npad	 1
  00033	8b 54 24 08	 mov	 edx, DWORD PTR [esp+8]
  00037	8d 42 0c	 lea	 eax, DWORD PTR [edx+12]
  0003a	8b 8a 08 fd ff
	ff		 mov	 ecx, DWORD PTR [edx-760]
  00040	33 c8		 xor	 ecx, eax
  00042	e8 00 00 00 00	 call	 @__security_check_cookie@4
  00047	8b 4a fc	 mov	 ecx, DWORD PTR [edx-4]
  0004a	33 c8		 xor	 ecx, eax
  0004c	e8 00 00 00 00	 call	 @__security_check_cookie@4
  00051	b8 00 00 00 00	 mov	 eax, OFFSET __ehfuncinfo$?BarunaChaosGemExtract@CItemUpgrade@@QAEXPAVCUser@@PAVCItemElem@@@Z
  00056	e9 00 00 00 00	 jmp	 ___CxxFrameHandler3
text$x	ENDS
?BarunaChaosGemExtract@CItemUpgrade@@QAEXPAVCUser@@PAVCItemElem@@@Z ENDP ; CItemUpgrade::BarunaChaosGemExtract
; Function compile flags: /Ogtp
; File C:\IAGOS\server\v18\Source\Source\WorldServer\ItemUpgrade.cpp
; File C:\IAGOS\server\v18\Source\Source\_Common\Project.h
; File C:\IAGOS\server\v18\Source\Source\_Common\Item.h
; File C:\IAGOS\server\v18\Source\Source\WorldServer\ItemUpgrade.cpp
; File C:\IAGOS\server\v18\Source\Source\_Common\Project.h
; File C:\IAGOS\server\v18\Source\Source\_Common\data.h
; File C:\IAGOS\server\v18\Source\Source\_Common\Project.h
; File C:\IAGOS\server\v18\Source\Source\WorldServer\ItemUpgrade.cpp
; File C:\IAGOS\server\v18\Source\Source\_Common\Item.h
; File C:\IAGOS\server\v18\Source\Source\_Common\Project.h
; File C:\IAGOS\server\v18\Source\Source\_Common\data.h
; File C:\IAGOS\server\v18\Source\Source\_Common\Project.h
; File C:\IAGOS\server\v18\Source\Source\WorldServer\ItemUpgrade.cpp
; File C:\IAGOS\server\v18\Source\Source\_Common\Item.h
; File C:\IAGOS\server\v18\Source\Source\_Common\Project.h
; File C:\IAGOS\server\v18\Source\Source\_Common\data.h
; File C:\IAGOS\server\v18\Source\Source\_Common\Project.h
; File C:\IAGOS\server\v18\Source\Source\_Common\Item.h
; File C:\IAGOS\server\v18\Source\Source\_Common\Project.h
; File C:\IAGOS\server\v18\Source\Source\_Common\data.h
; File C:\IAGOS\server\v18\Source\Source\_Common\Project.h
; File C:\IAGOS\server\v18\Source\Source\WorldServer\ItemUpgrade.cpp
;	COMDAT ?CreateBarunaCrystal@CItemUpgrade@@QAEXPAVCUser@@PAVCItemElem@@1@Z
_TEXT	SEGMENT
tv541 = -380						; size = 4
_dwItemID$ = -376					; size = 4
_pPotion$GSCopy$1$ = -376				; size = 4
_remove$1$ = -372					; size = 4
_itemElemTemp$ = -368					; size = 176
_itemElem$ = -192					; size = 176
__$ArrayPad$ = -16					; size = 4
__$EHRec$ = -12						; size = 12
_pUser$ = 8						; size = 4
_pCrystal$ = 12						; size = 4
_pPotion$ = 16						; size = 4
?CreateBarunaCrystal@CItemUpgrade@@QAEXPAVCUser@@PAVCItemElem@@1@Z PROC ; CItemUpgrade::CreateBarunaCrystal, COMDAT
; _this$ = ecx

; 1447 : {

  00000	55		 push	 ebp
  00001	8b ec		 mov	 ebp, esp
  00003	6a ff		 push	 -1
  00005	68 00 00 00 00	 push	 __ehhandler$?CreateBarunaCrystal@CItemUpgrade@@QAEXPAVCUser@@PAVCItemElem@@1@Z
  0000a	64 a1 00 00 00
	00		 mov	 eax, DWORD PTR fs:0
  00010	50		 push	 eax
  00011	81 ec 70 01 00
	00		 sub	 esp, 368		; 00000170H
  00017	a1 00 00 00 00	 mov	 eax, DWORD PTR ___security_cookie
  0001c	33 c5		 xor	 eax, ebp
  0001e	89 45 f0	 mov	 DWORD PTR __$ArrayPad$[ebp], eax
  00021	53		 push	 ebx
  00022	56		 push	 esi
  00023	57		 push	 edi
  00024	50		 push	 eax
  00025	8d 45 f4	 lea	 eax, DWORD PTR __$EHRec$[ebp]
  00028	64 a3 00 00 00
	00		 mov	 DWORD PTR fs:0, eax
  0002e	8b 5d 0c	 mov	 ebx, DWORD PTR _pCrystal$[ebp]
  00031	8b 75 10	 mov	 esi, DWORD PTR _pPotion$[ebp]
  00034	8b 7d 08	 mov	 edi, DWORD PTR _pUser$[ebp]
; File C:\IAGOS\server\v18\Source\Source\_Common\Project.h

; 1389 : 	VERIFY_RANGE_ASSERT( nIndex, 0, m_aPropItem.GetSize(), "GetItemProp range_error", NULL );

  00037	a1 40 02 00 00	 mov	 eax, DWORD PTR ?prj@@3VCProject@@A+576
; File C:\IAGOS\server\v18\Source\Source\_Common\Item.h

; 230  : 	ItemProp*	GetProp()	{	return prj.GetItemProp( m_dwItemId );	}

  0003c	8b 4b 0c	 mov	 ecx, DWORD PTR [ebx+12]
; File C:\IAGOS\server\v18\Source\Source\WorldServer\ItemUpgrade.cpp

; 1447 : {

  0003f	89 b5 88 fe ff
	ff		 mov	 DWORD PTR _pPotion$GSCopy$1$[ebp], esi

; 1448 : 	short remove = 10;

  00045	c7 85 8c fe ff
	ff 0a 00 00 00	 mov	 DWORD PTR _remove$1$[ebp], 10 ; 0000000aH
; File C:\IAGOS\server\v18\Source\Source\_Common\Project.h

; 1389 : 	VERIFY_RANGE_ASSERT( nIndex, 0, m_aPropItem.GetSize(), "GetItemProp range_error", NULL );

  0004f	85 c9		 test	 ecx, ecx
  00051	78 11		 js	 SHORT $LN29@CreateBaru
  00053	3b c8		 cmp	 ecx, eax
  00055	7d 0d		 jge	 SHORT $LN29@CreateBaru
; File C:\IAGOS\server\v18\Source\Source\_Common\data.h

; 270  : 	if( dwIndex >= (DWORD)m_nMaxIndex )

  00057	8b 15 30 02 00
	00		 mov	 edx, DWORD PTR ?prj@@3VCProject@@A+560
  0005d	73 26		 jae	 SHORT $LN82@CreateBaru

; 271  : 		return NULL;
; 272  : 	return (T*) m_apOffset[ dwIndex ];

  0005f	8b 0c 8a	 mov	 ecx, DWORD PTR [edx+ecx*4]
; File C:\IAGOS\server\v18\Source\Source\_Common\Project.h

; 1390 : 	return m_aPropItem.GetAt( nIndex ); 

  00062	eb 23		 jmp	 SHORT $LN24@CreateBaru
$LN29@CreateBaru:

; 579  : 	LPCTSTR szErr = Error( _T( "%s min:%d, max:%d, index:%d" ), szMsg, nMin, nMax, nIndex ); 

  00064	51		 push	 ecx
  00065	50		 push	 eax
  00066	6a 00		 push	 0
  00068	68 00 00 00 00	 push	 OFFSET ??_C@_0BI@BEIFNGEL@GetItemProp?5range_error@
  0006d	68 00 00 00 00	 push	 OFFSET ??_C@_0BM@HMFGHCP@?$CFs?5min?3?$CFd?0?5max?3?$CFd?0?5index?3?$CFd@
  00072	e8 00 00 00 00	 call	 ?Error@@YAPBDPBDZZ	; Error

; 1389 : 	VERIFY_RANGE_ASSERT( nIndex, 0, m_aPropItem.GetSize(), "GetItemProp range_error", NULL );

  00077	a1 40 02 00 00	 mov	 eax, DWORD PTR ?prj@@3VCProject@@A+576

; 579  : 	LPCTSTR szErr = Error( _T( "%s min:%d, max:%d, index:%d" ), szMsg, nMin, nMax, nIndex ); 

  0007c	83 c4 14	 add	 esp, 20			; 00000014H

; 1389 : 	VERIFY_RANGE_ASSERT( nIndex, 0, m_aPropItem.GetSize(), "GetItemProp range_error", NULL );

  0007f	8b 15 30 02 00
	00		 mov	 edx, DWORD PTR ?prj@@3VCProject@@A+560
$LN82@CreateBaru:
; File C:\IAGOS\server\v18\Source\Source\WorldServer\ItemUpgrade.cpp

; 1449 : 	if (pCrystal->GetProp()->dwItemKind3 != IK3_CIDCRYSTAL)

  00085	33 c9		 xor	 ecx, ecx
$LN24@CreateBaru:
  00087	81 79 78 9e 00
	00 00		 cmp	 DWORD PTR [ecx+120], 158 ; 0000009eH
  0008e	0f 85 32 02 00
	00		 jne	 $LN1@CreateBaru
; File C:\IAGOS\server\v18\Source\Source\_Common\Item.h

; 230  : 	ItemProp*	GetProp()	{	return prj.GetItemProp( m_dwItemId );	}

  00094	8b 4e 0c	 mov	 ecx, DWORD PTR [esi+12]
; File C:\IAGOS\server\v18\Source\Source\_Common\Project.h

; 1389 : 	VERIFY_RANGE_ASSERT( nIndex, 0, m_aPropItem.GetSize(), "GetItemProp range_error", NULL );

  00097	85 c9		 test	 ecx, ecx
  00099	78 0b		 js	 SHORT $LN43@CreateBaru
  0009b	3b c8		 cmp	 ecx, eax
  0009d	7d 07		 jge	 SHORT $LN43@CreateBaru
; File C:\IAGOS\server\v18\Source\Source\_Common\data.h

; 270  : 	if( dwIndex >= (DWORD)m_nMaxIndex )

  0009f	73 26		 jae	 SHORT $LN83@CreateBaru

; 271  : 		return NULL;
; 272  : 	return (T*) m_apOffset[ dwIndex ];

  000a1	8b 0c 8a	 mov	 ecx, DWORD PTR [edx+ecx*4]
; File C:\IAGOS\server\v18\Source\Source\_Common\Project.h

; 1390 : 	return m_aPropItem.GetAt( nIndex ); 

  000a4	eb 23		 jmp	 SHORT $LN38@CreateBaru
$LN43@CreateBaru:

; 579  : 	LPCTSTR szErr = Error( _T( "%s min:%d, max:%d, index:%d" ), szMsg, nMin, nMax, nIndex ); 

  000a6	51		 push	 ecx
  000a7	50		 push	 eax
  000a8	6a 00		 push	 0
  000aa	68 00 00 00 00	 push	 OFFSET ??_C@_0BI@BEIFNGEL@GetItemProp?5range_error@
  000af	68 00 00 00 00	 push	 OFFSET ??_C@_0BM@HMFGHCP@?$CFs?5min?3?$CFd?0?5max?3?$CFd?0?5index?3?$CFd@
  000b4	e8 00 00 00 00	 call	 ?Error@@YAPBDPBDZZ	; Error

; 1389 : 	VERIFY_RANGE_ASSERT( nIndex, 0, m_aPropItem.GetSize(), "GetItemProp range_error", NULL );

  000b9	a1 40 02 00 00	 mov	 eax, DWORD PTR ?prj@@3VCProject@@A+576

; 579  : 	LPCTSTR szErr = Error( _T( "%s min:%d, max:%d, index:%d" ), szMsg, nMin, nMax, nIndex ); 

  000be	83 c4 14	 add	 esp, 20			; 00000014H

; 1389 : 	VERIFY_RANGE_ASSERT( nIndex, 0, m_aPropItem.GetSize(), "GetItemProp range_error", NULL );

  000c1	8b 15 30 02 00
	00		 mov	 edx, DWORD PTR ?prj@@3VCProject@@A+560
$LN83@CreateBaru:
; File C:\IAGOS\server\v18\Source\Source\WorldServer\ItemUpgrade.cpp

; 1451 : 	if (pPotion->GetProp()->dwItemKind3 != IK3_CIDMIX)

  000c7	33 c9		 xor	 ecx, ecx
$LN38@CreateBaru:
  000c9	81 79 78 a0 00
	00 00		 cmp	 DWORD PTR [ecx+120], 160 ; 000000a0H
  000d0	0f 85 f0 01 00
	00		 jne	 $LN1@CreateBaru
; File C:\IAGOS\server\v18\Source\Source\_Common\Item.h

; 230  : 	ItemProp*	GetProp()	{	return prj.GetItemProp( m_dwItemId );	}

  000d6	8b 4e 0c	 mov	 ecx, DWORD PTR [esi+12]
; File C:\IAGOS\server\v18\Source\Source\_Common\Project.h

; 1389 : 	VERIFY_RANGE_ASSERT( nIndex, 0, m_aPropItem.GetSize(), "GetItemProp range_error", NULL );

  000d9	85 c9		 test	 ecx, ecx
  000db	78 0b		 js	 SHORT $LN57@CreateBaru
  000dd	3b c8		 cmp	 ecx, eax
  000df	7d 07		 jge	 SHORT $LN57@CreateBaru
; File C:\IAGOS\server\v18\Source\Source\_Common\data.h

; 270  : 	if( dwIndex >= (DWORD)m_nMaxIndex )

  000e1	73 26		 jae	 SHORT $LN84@CreateBaru

; 271  : 		return NULL;
; 272  : 	return (T*) m_apOffset[ dwIndex ];

  000e3	8b 34 8a	 mov	 esi, DWORD PTR [edx+ecx*4]
; File C:\IAGOS\server\v18\Source\Source\_Common\Project.h

; 1390 : 	return m_aPropItem.GetAt( nIndex ); 

  000e6	eb 23		 jmp	 SHORT $LN52@CreateBaru
$LN57@CreateBaru:

; 579  : 	LPCTSTR szErr = Error( _T( "%s min:%d, max:%d, index:%d" ), szMsg, nMin, nMax, nIndex ); 

  000e8	51		 push	 ecx
  000e9	50		 push	 eax
  000ea	6a 00		 push	 0
  000ec	68 00 00 00 00	 push	 OFFSET ??_C@_0BI@BEIFNGEL@GetItemProp?5range_error@
  000f1	68 00 00 00 00	 push	 OFFSET ??_C@_0BM@HMFGHCP@?$CFs?5min?3?$CFd?0?5max?3?$CFd?0?5index?3?$CFd@
  000f6	e8 00 00 00 00	 call	 ?Error@@YAPBDPBDZZ	; Error

; 1389 : 	VERIFY_RANGE_ASSERT( nIndex, 0, m_aPropItem.GetSize(), "GetItemProp range_error", NULL );

  000fb	a1 40 02 00 00	 mov	 eax, DWORD PTR ?prj@@3VCProject@@A+576

; 579  : 	LPCTSTR szErr = Error( _T( "%s min:%d, max:%d, index:%d" ), szMsg, nMin, nMax, nIndex ); 

  00100	83 c4 14	 add	 esp, 20			; 00000014H

; 1389 : 	VERIFY_RANGE_ASSERT( nIndex, 0, m_aPropItem.GetSize(), "GetItemProp range_error", NULL );

  00103	8b 15 30 02 00
	00		 mov	 edx, DWORD PTR ?prj@@3VCProject@@A+560
$LN84@CreateBaru:
; File C:\IAGOS\server\v18\Source\Source\_Common\Item.h

; 230  : 	ItemProp*	GetProp()	{	return prj.GetItemProp( m_dwItemId );	}

  00109	33 f6		 xor	 esi, esi
$LN52@CreateBaru:
  0010b	8b 4b 0c	 mov	 ecx, DWORD PTR [ebx+12]
; File C:\IAGOS\server\v18\Source\Source\_Common\Project.h

; 1389 : 	VERIFY_RANGE_ASSERT( nIndex, 0, m_aPropItem.GetSize(), "GetItemProp range_error", NULL );

  0010e	85 c9		 test	 ecx, ecx
  00110	78 0b		 js	 SHORT $LN71@CreateBaru
  00112	3b c8		 cmp	 ecx, eax
  00114	7d 07		 jge	 SHORT $LN71@CreateBaru
; File C:\IAGOS\server\v18\Source\Source\_Common\data.h

; 270  : 	if( dwIndex >= (DWORD)m_nMaxIndex )

  00116	73 1b		 jae	 SHORT $LN85@CreateBaru

; 271  : 		return NULL;
; 272  : 	return (T*) m_apOffset[ dwIndex ];

  00118	8b 0c 8a	 mov	 ecx, DWORD PTR [edx+ecx*4]
; File C:\IAGOS\server\v18\Source\Source\_Common\Project.h

; 1390 : 	return m_aPropItem.GetAt( nIndex ); 

  0011b	eb 18		 jmp	 SHORT $LN66@CreateBaru
$LN71@CreateBaru:

; 579  : 	LPCTSTR szErr = Error( _T( "%s min:%d, max:%d, index:%d" ), szMsg, nMin, nMax, nIndex ); 

  0011d	51		 push	 ecx
  0011e	50		 push	 eax
  0011f	6a 00		 push	 0
  00121	68 00 00 00 00	 push	 OFFSET ??_C@_0BI@BEIFNGEL@GetItemProp?5range_error@
  00126	68 00 00 00 00	 push	 OFFSET ??_C@_0BM@HMFGHCP@?$CFs?5min?3?$CFd?0?5max?3?$CFd?0?5index?3?$CFd@
  0012b	e8 00 00 00 00	 call	 ?Error@@YAPBDPBDZZ	; Error
  00130	83 c4 14	 add	 esp, 20			; 00000014H
$LN85@CreateBaru:
; File C:\IAGOS\server\v18\Source\Source\WorldServer\ItemUpgrade.cpp

; 1453 : 	if (pPotion->GetProp()->dwItemLV != pCrystal->GetProp()->dwItemLV)

  00133	33 c9		 xor	 ecx, ecx
$LN66@CreateBaru:
  00135	8b 86 bc 00 00
	00		 mov	 eax, DWORD PTR [esi+188]
  0013b	3b 81 bc 00 00
	00		 cmp	 eax, DWORD PTR [ecx+188]
  00141	74 11		 je	 SHORT $LN6@CreateBaru

; 1454 : 	{
; 1455 : 		pUser->AddDefinedText(TID_MMI_NEWSMELT_CID04);

  00143	68 7e 11 00 00	 push	 4478			; 0000117eH
  00148	8b cf		 mov	 ecx, edi
  0014a	e8 00 00 00 00	 call	 ?AddDefinedText@CUser@@QAEXH@Z ; CUser::AddDefinedText

; 1456 : 		return;

  0014f	e9 72 01 00 00	 jmp	 $LN1@CreateBaru
$LN6@CreateBaru:

; 1457 : 	}
; 1458 : 	if (pCrystal->m_dwItemId == II_GEN_MAT_CIDPIEC01)

  00154	81 7b 0c 7e 1b
	00 00		 cmp	 DWORD PTR [ebx+12], 7038 ; 00001b7eH
  0015b	75 2b		 jne	 SHORT $LN7@CreateBaru

; 1459 : 		remove = 1;

  0015d	c7 85 8c fe ff
	ff 01 00 00 00	 mov	 DWORD PTR _remove$1$[ebp], 1
$LN9@CreateBaru:

; 1465 : 		}
; 1466 : 	DWORD dwItemID;
; 1467 : 	switch (pCrystal->GetProp()->dwID)

  00167	8b cb		 mov	 ecx, ebx
  00169	e8 00 00 00 00	 call	 ?GetPropA@CItemElem@@QAEPAUItemProp@@XZ ; CItemElem::GetPropA
  0016e	8b 00		 mov	 eax, DWORD PTR [eax]
  00170	05 82 e4 ff ff	 add	 eax, -7038		; ffffe482H
  00175	83 f8 0a	 cmp	 eax, 10			; 0000000aH
  00178	77 49		 ja	 SHORT $LN80@CreateBaru
  0017a	0f b6 80 00 00
	00 00		 movzx	 eax, BYTE PTR $LN78@CreateBaru[eax]
  00181	ff 24 85 00 00
	00 00		 jmp	 DWORD PTR $LN79@CreateBaru[eax*4]
$LN7@CreateBaru:

; 1460 : 	else
; 1461 : 		if (pCrystal->m_nItemNum < 10)

  00188	66 83 7b 74 0a	 cmp	 WORD PTR [ebx+116], 10	; 0000000aH
  0018d	7d d8		 jge	 SHORT $LN9@CreateBaru

; 1462 : 		{
; 1463 : 			pUser->AddDefinedText(TID_MMI_NEWSMELT_CID05);

  0018f	68 7f 11 00 00	 push	 4479			; 0000117fH
  00194	8b cf		 mov	 ecx, edi
  00196	e8 00 00 00 00	 call	 ?AddDefinedText@CUser@@QAEXH@Z ; CUser::AddDefinedText

; 1464 : 			return;

  0019b	e9 26 01 00 00	 jmp	 $LN1@CreateBaru
$LN10@CreateBaru:

; 1468 : 	{
; 1469 : 	case II_GEN_MAT_CIDPIECE05: dwItemID = II_GEN_MAT_CIDPIECE04;    break;

  001a0	be 87 1b 00 00	 mov	 esi, 7047		; 00001b87H
  001a5	eb 22		 jmp	 SHORT $LN2@CreateBaru
$LN11@CreateBaru:

; 1470 : 	case II_GEN_MAT_CIDPIECE04: dwItemID = II_GEN_MAT_CIDPIECE03;    break;

  001a7	be 86 1b 00 00	 mov	 esi, 7046		; 00001b86H
  001ac	eb 1b		 jmp	 SHORT $LN2@CreateBaru
$LN12@CreateBaru:

; 1471 : 	case II_GEN_MAT_CIDPIECE03: dwItemID = II_GEN_MAT_CIDPIECE02;    break;

  001ae	be 85 1b 00 00	 mov	 esi, 7045		; 00001b85H
  001b3	eb 14		 jmp	 SHORT $LN2@CreateBaru
$LN13@CreateBaru:

; 1472 : 	case II_GEN_MAT_CIDPIECE02: dwItemID = II_GEN_MAT_CIDPIEC01;    break;

  001b5	be 7e 1b 00 00	 mov	 esi, 7038		; 00001b7eH
  001ba	eb 0d		 jmp	 SHORT $LN2@CreateBaru
$LN14@CreateBaru:

; 1473 : 	case II_GEN_MAT_CIDPIEC01: dwItemID = II_GEN_MAT_CID;        break;

  001bc	be 7d 1b 00 00	 mov	 esi, 7037		; 00001b7dH
  001c1	eb 06		 jmp	 SHORT $LN2@CreateBaru
$LN80@CreateBaru:

; 1465 : 		}
; 1466 : 	DWORD dwItemID;
; 1467 : 	switch (pCrystal->GetProp()->dwID)

  001c3	8b b5 88 fe ff
	ff		 mov	 esi, DWORD PTR _dwItemID$[ebp]
$LN2@CreateBaru:

; 1474 : 	}
; 1475 : 
; 1476 : 	CItemElem itemElemTemp;

  001c9	8d 8d 90 fe ff
	ff		 lea	 ecx, DWORD PTR _itemElemTemp$[ebp]
  001cf	e8 00 00 00 00	 call	 ??0CItemElem@@QAE@XZ	; CItemElem::CItemElem

; 1477 : 	itemElemTemp.m_dwItemId = dwItemID;
; 1478 : 	ItemProp* pItemprop = itemElemTemp.GetProp();

  001d4	8d 8d 90 fe ff
	ff		 lea	 ecx, DWORD PTR _itemElemTemp$[ebp]
  001da	c7 45 fc 00 00
	00 00		 mov	 DWORD PTR __$EHRec$[ebp+8], 0
  001e1	89 b5 9c fe ff
	ff		 mov	 DWORD PTR _itemElemTemp$[ebp+12], esi
  001e7	e8 00 00 00 00	 call	 ?GetPropA@CItemElem@@QAEPAUItemProp@@XZ ; CItemElem::GetPropA
  001ec	8b d0		 mov	 edx, eax

; 1479 : 	if (!pItemprop)

  001ee	85 d2		 test	 edx, edx
  001f0	0f 84 c5 00 00
	00		 je	 $LN21@CreateBaru

; 1480 : 		return;
; 1481 : 	if ((DWORD)(1) > pItemprop->dwPackMax && pUser->m_Inventory.IsFull(&itemElemTemp, pItemprop, (short)(1 - pItemprop->dwPackMax)))

  001f6	8b 4a 6c	 mov	 ecx, DWORD PTR [edx+108]
  001f9	0f b7 c1	 movzx	 eax, cx
  001fc	89 85 84 fe ff
	ff		 mov	 DWORD PTR tv541[ebp], eax
  00202	b8 01 00 00 00	 mov	 eax, 1
  00207	3b c8		 cmp	 ecx, eax
  00209	73 2f		 jae	 SHORT $LN16@CreateBaru
  0020b	2b 85 84 fe ff
	ff		 sub	 eax, DWORD PTR tv541[ebp]
  00211	8d 8f fc 0a 00
	00		 lea	 ecx, DWORD PTR [edi+2812]
  00217	50		 push	 eax
  00218	52		 push	 edx
  00219	8d 85 90 fe ff
	ff		 lea	 eax, DWORD PTR _itemElemTemp$[ebp]
  0021f	50		 push	 eax
  00220	e8 00 00 00 00	 call	 ?IsFull@?$CItemContainer@VCItemElem@@@@QAEHPAVCItemElem@@PAUItemProp@@F@Z ; CItemContainer<CItemElem>::IsFull
  00225	85 c0		 test	 eax, eax
  00227	74 11		 je	 SHORT $LN16@CreateBaru

; 1482 : 	{
; 1483 : 		pUser->AddDefinedText(TID_GAME_LACKSPACE);

  00229	68 72 02 00 00	 push	 626			; 00000272H
  0022e	8b cf		 mov	 ecx, edi
  00230	e8 00 00 00 00	 call	 ?AddDefinedText@CUser@@QAEXH@Z ; CUser::AddDefinedText
  00235	e9 81 00 00 00	 jmp	 $LN21@CreateBaru
$LN16@CreateBaru:

; 1484 : 		return;
; 1485 : 	}
; 1486 : 	CItemElem itemElem;

  0023a	8d 8d 40 ff ff
	ff		 lea	 ecx, DWORD PTR _itemElem$[ebp]
  00240	e8 00 00 00 00	 call	 ??0CItemElem@@QAE@XZ	; CItemElem::CItemElem

; 1487 : 	itemElem.m_dwItemId = dwItemID;
; 1488 : 	itemElem.m_nItemNum = 1;

  00245	b8 01 00 00 00	 mov	 eax, 1
  0024a	c6 45 fc 01	 mov	 BYTE PTR __$EHRec$[ebp+8], 1

; 1489 : 	itemElem.SetSerialNumber();

  0024e	8d 8d 40 ff ff
	ff		 lea	 ecx, DWORD PTR _itemElem$[ebp]
  00254	89 b5 4c ff ff
	ff		 mov	 DWORD PTR _itemElem$[ebp+12], esi
  0025a	66 89 45 b4	 mov	 WORD PTR _itemElem$[ebp+116], ax
  0025e	e8 00 00 00 00	 call	 ?SetSerialNumber@CItemBase@@QAEXXZ ; CItemBase::SetSerialNumber

; 1490 : 	itemElem.m_nHitPoint = 0;
; 1491 : 	pUser->CreateItem(&itemElem);

  00263	6a 00		 push	 0
  00265	6a 00		 push	 0
  00267	6a 00		 push	 0
  00269	8d 85 40 ff ff
	ff		 lea	 eax, DWORD PTR _itemElem$[ebp]
  0026f	c7 45 b0 00 00
	00 00		 mov	 DWORD PTR _itemElem$[ebp+112], 0
  00276	50		 push	 eax
  00277	8b cf		 mov	 ecx, edi
  00279	e8 00 00 00 00	 call	 ?CreateItem@CMover@@QAEHPAVCItemBase@@PAEPAFE@Z ; CMover::CreateItem

; 1492 : 	pUser->AddDefinedText(TID_MMI_NEWSMELT_CID08);

  0027e	68 82 11 00 00	 push	 4482			; 00001182H
  00283	8b cf		 mov	 ecx, edi
  00285	e8 00 00 00 00	 call	 ?AddDefinedText@CUser@@QAEXH@Z ; CUser::AddDefinedText

; 1493 : 
; 1494 : 	pUser->RemoveItem((BYTE)(pCrystal->m_dwObjId), remove);

  0028a	ff b5 8c fe ff
	ff		 push	 DWORD PTR _remove$1$[ebp]
  00290	0f b6 43 04	 movzx	 eax, BYTE PTR [ebx+4]
  00294	8b cf		 mov	 ecx, edi
  00296	50		 push	 eax
  00297	e8 00 00 00 00	 call	 ?RemoveItem@CMover@@QAEXEF@Z ; CMover::RemoveItem

; 1495 : 	pUser->RemoveItem((BYTE)(pPotion->m_dwObjId), (short)1);

  0029c	8b 85 88 fe ff
	ff		 mov	 eax, DWORD PTR _pPotion$GSCopy$1$[ebp]
  002a2	8b cf		 mov	 ecx, edi
  002a4	6a 01		 push	 1
  002a6	0f b6 40 04	 movzx	 eax, BYTE PTR [eax+4]
  002aa	50		 push	 eax
  002ab	e8 00 00 00 00	 call	 ?RemoveItem@CMover@@QAEXEF@Z ; CMover::RemoveItem

; 1496 : }

  002b0	8d 8d 40 ff ff
	ff		 lea	 ecx, DWORD PTR _itemElem$[ebp]
  002b6	e8 00 00 00 00	 call	 ??1CItemElem@@UAE@XZ	; CItemElem::~CItemElem
$LN21@CreateBaru:
  002bb	8d 8d 90 fe ff
	ff		 lea	 ecx, DWORD PTR _itemElemTemp$[ebp]
  002c1	e8 00 00 00 00	 call	 ??1CItemElem@@UAE@XZ	; CItemElem::~CItemElem
$LN1@CreateBaru:
  002c6	8b 4d f4	 mov	 ecx, DWORD PTR __$EHRec$[ebp]
  002c9	64 89 0d 00 00
	00 00		 mov	 DWORD PTR fs:0, ecx
  002d0	59		 pop	 ecx
  002d1	5f		 pop	 edi
  002d2	5e		 pop	 esi
  002d3	5b		 pop	 ebx
  002d4	8b 4d f0	 mov	 ecx, DWORD PTR __$ArrayPad$[ebp]
  002d7	33 cd		 xor	 ecx, ebp
  002d9	e8 00 00 00 00	 call	 @__security_check_cookie@4
  002de	8b e5		 mov	 esp, ebp
  002e0	5d		 pop	 ebp
  002e1	c2 0c 00	 ret	 12			; 0000000cH
$LN79@CreateBaru:
  002e4	00 00 00 00	 DD	 $LN14@CreateBaru
  002e8	00 00 00 00	 DD	 $LN13@CreateBaru
  002ec	00 00 00 00	 DD	 $LN12@CreateBaru
  002f0	00 00 00 00	 DD	 $LN11@CreateBaru
  002f4	00 00 00 00	 DD	 $LN10@CreateBaru
  002f8	00 00 00 00	 DD	 $LN80@CreateBaru
$LN78@CreateBaru:
  002fc	00		 DB	 0
  002fd	05		 DB	 5
  002fe	05		 DB	 5
  002ff	05		 DB	 5
  00300	05		 DB	 5
  00301	05		 DB	 5
  00302	05		 DB	 5
  00303	01		 DB	 1
  00304	02		 DB	 2
  00305	03		 DB	 3
  00306	04		 DB	 4
_TEXT	ENDS
;	COMDAT text$x
text$x	SEGMENT
__unwindfunclet$?CreateBarunaCrystal@CItemUpgrade@@QAEXPAVCUser@@PAVCItemElem@@1@Z$0:
  00000	8d 8d 90 fe ff
	ff		 lea	 ecx, DWORD PTR _itemElemTemp$[ebp]
  00006	e9 00 00 00 00	 jmp	 ??1CItemElem@@UAE@XZ	; CItemElem::~CItemElem
__unwindfunclet$?CreateBarunaCrystal@CItemUpgrade@@QAEXPAVCUser@@PAVCItemElem@@1@Z$1:
  0000b	8d 8d 40 ff ff
	ff		 lea	 ecx, DWORD PTR _itemElem$[ebp]
  00011	e9 00 00 00 00	 jmp	 ??1CItemElem@@UAE@XZ	; CItemElem::~CItemElem
  00016	cc		 int	 3
  00017	cc		 int	 3
  00018	cc		 int	 3
  00019	cc		 int	 3
  0001a	cc		 int	 3
__ehhandler$?CreateBarunaCrystal@CItemUpgrade@@QAEXPAVCUser@@PAVCItemElem@@1@Z:
  0001b	90		 npad	 1
  0001c	90		 npad	 1
  0001d	8b 54 24 08	 mov	 edx, DWORD PTR [esp+8]
  00021	8d 42 0c	 lea	 eax, DWORD PTR [edx+12]
  00024	8b 8a 80 fe ff
	ff		 mov	 ecx, DWORD PTR [edx-384]
  0002a	33 c8		 xor	 ecx, eax
  0002c	e8 00 00 00 00	 call	 @__security_check_cookie@4
  00031	8b 4a fc	 mov	 ecx, DWORD PTR [edx-4]
  00034	33 c8		 xor	 ecx, eax
  00036	e8 00 00 00 00	 call	 @__security_check_cookie@4
  0003b	b8 00 00 00 00	 mov	 eax, OFFSET __ehfuncinfo$?CreateBarunaCrystal@CItemUpgrade@@QAEXPAVCUser@@PAVCItemElem@@1@Z
  00040	e9 00 00 00 00	 jmp	 ___CxxFrameHandler3
text$x	ENDS
?CreateBarunaCrystal@CItemUpgrade@@QAEXPAVCUser@@PAVCItemElem@@1@Z ENDP ; CItemUpgrade::CreateBarunaCrystal
; Function compile flags: /Ogtp
; File C:\IAGOS\server\v18\Source\Source\WorldServer\ItemUpgrade.cpp
; File C:\IAGOS\server\v18\Source\Source\_Common\LuaBase.h
; File C:\IAGOS\server\v18\Source\Source\WorldServer\ItemUpgrade.cpp
; File C:\IAGOS\server\v18\Source\Source\_Common\LuaBase.h
; File C:\Program Files\Microsoft Visual Studio\2022\Professional\VC\Tools\MSVC\14.44.35207\include\utility
; File C:\IAGOS\server\v18\Source\Source\_Common\LuaBase.h
; File C:\Program Files\Microsoft Visual Studio\2022\Professional\VC\Tools\MSVC\14.44.35207\include\xtree
; File C:\IAGOS\server\v18\Source\Source\_Common\LuaBase.h
; File C:\IAGOS\server\v18\Source\Source\WorldServer\ItemUpgrade.cpp
; File C:\Program Files\Microsoft Visual Studio\2022\Professional\VC\Tools\MSVC\14.44.35207\include\utility
; File C:\Program Files\Microsoft Visual Studio\2022\Professional\VC\Tools\MSVC\14.44.35207\include\xtree
; File C:\Program Files\Microsoft Visual Studio\2022\Professional\VC\Tools\MSVC\14.44.35207\include\utility
; File C:\Program Files\Microsoft Visual Studio\2022\Professional\VC\Tools\MSVC\14.44.35207\include\xtree
; File C:\Program Files\Microsoft Visual Studio\2022\Professional\VC\Tools\MSVC\14.44.35207\include\type_traits
; File C:\Program Files\Microsoft Visual Studio\2022\Professional\VC\Tools\MSVC\14.44.35207\include\xtree
; File C:\Program Files\Microsoft Visual Studio\2022\Professional\VC\Tools\MSVC\14.44.35207\include\xmemory
; File C:\Program Files\Microsoft Visual Studio\2022\Professional\VC\Tools\MSVC\14.44.35207\include\xtree
; File C:\Program Files\Microsoft Visual Studio\2022\Professional\VC\Tools\MSVC\14.44.35207\include\xmemory
; File C:\Program Files\Microsoft Visual Studio\2022\Professional\VC\Tools\MSVC\14.44.35207\include\utility
; File C:\Program Files\Microsoft Visual Studio\2022\Professional\VC\Tools\MSVC\14.44.35207\include\xmemory
; File C:\Program Files\Microsoft Visual Studio\2022\Professional\VC\Tools\MSVC\14.44.35207\include\xtree
; File C:\Program Files\Microsoft Visual Studio\2022\Professional\VC\Tools\MSVC\14.44.35207\include\utility
; File C:\Program Files\Microsoft Visual Studio\2022\Professional\VC\Tools\MSVC\14.44.35207\include\xtree
; File C:\Program Files\Microsoft Visual Studio\2022\Professional\VC\Tools\MSVC\14.44.35207\include\utility
; File C:\Program Files\Microsoft Visual Studio\2022\Professional\VC\Tools\MSVC\14.44.35207\include\xtree
; File C:\Program Files\Microsoft Visual Studio\2022\Professional\VC\Tools\MSVC\14.44.35207\include\utility
; File C:\Program Files\Microsoft Visual Studio\2022\Professional\VC\Tools\MSVC\14.44.35207\include\xtree
; File C:\IAGOS\server\v18\Source\Source\WorldServer\ItemUpgrade.cpp
; File C:\IAGOS\server\v18\Source\Source\_Common\LuaBase.h
; File C:\IAGOS\server\v18\Source\Source\WorldServer\ItemUpgrade.cpp
; File C:\IAGOS\server\v18\Source\Source\_Common\LuaBase.h
; File C:\IAGOS\server\v18\Source\Source\WorldServer\ItemUpgrade.cpp
; File C:\IAGOS\server\v18\Source\Source\_Common\LuaBase.h
; File C:\Program Files\Microsoft Visual Studio\2022\Professional\VC\Tools\MSVC\14.44.35207\include\utility
; File C:\IAGOS\server\v18\Source\Source\_Common\LuaBase.h
; File C:\Program Files\Microsoft Visual Studio\2022\Professional\VC\Tools\MSVC\14.44.35207\include\xtree
; File C:\IAGOS\server\v18\Source\Source\_Common\LuaBase.h
; File C:\IAGOS\server\v18\Source\Source\WorldServer\ItemUpgrade.cpp
; File C:\Program Files\Microsoft Visual Studio\2022\Professional\VC\Tools\MSVC\14.44.35207\include\utility
; File C:\Program Files\Microsoft Visual Studio\2022\Professional\VC\Tools\MSVC\14.44.35207\include\xtree
; File C:\Program Files\Microsoft Visual Studio\2022\Professional\VC\Tools\MSVC\14.44.35207\include\utility
; File C:\Program Files\Microsoft Visual Studio\2022\Professional\VC\Tools\MSVC\14.44.35207\include\xtree
; File C:\Program Files\Microsoft Visual Studio\2022\Professional\VC\Tools\MSVC\14.44.35207\include\type_traits
; File C:\Program Files\Microsoft Visual Studio\2022\Professional\VC\Tools\MSVC\14.44.35207\include\xtree
; File C:\Program Files\Microsoft Visual Studio\2022\Professional\VC\Tools\MSVC\14.44.35207\include\xmemory
; File C:\Program Files\Microsoft Visual Studio\2022\Professional\VC\Tools\MSVC\14.44.35207\include\xtree
; File C:\Program Files\Microsoft Visual Studio\2022\Professional\VC\Tools\MSVC\14.44.35207\include\xmemory
; File C:\Program Files\Microsoft Visual Studio\2022\Professional\VC\Tools\MSVC\14.44.35207\include\utility
; File C:\Program Files\Microsoft Visual Studio\2022\Professional\VC\Tools\MSVC\14.44.35207\include\xmemory
; File C:\Program Files\Microsoft Visual Studio\2022\Professional\VC\Tools\MSVC\14.44.35207\include\xtree
; File C:\Program Files\Microsoft Visual Studio\2022\Professional\VC\Tools\MSVC\14.44.35207\include\utility
; File C:\Program Files\Microsoft Visual Studio\2022\Professional\VC\Tools\MSVC\14.44.35207\include\xtree
; File C:\Program Files\Microsoft Visual Studio\2022\Professional\VC\Tools\MSVC\14.44.35207\include\utility
; File C:\Program Files\Microsoft Visual Studio\2022\Professional\VC\Tools\MSVC\14.44.35207\include\xtree
; File C:\Program Files\Microsoft Visual Studio\2022\Professional\VC\Tools\MSVC\14.44.35207\include\utility
; File C:\Program Files\Microsoft Visual Studio\2022\Professional\VC\Tools\MSVC\14.44.35207\include\xtree
; File C:\IAGOS\server\v18\Source\Source\WorldServer\ItemUpgrade.cpp
; File C:\IAGOS\server\v18\Source\Source\_Common\LuaBase.h
; File C:\IAGOS\server\v18\Source\Source\WorldServer\ItemUpgrade.cpp
; File C:\IAGOS\server\v18\Source\Source\_Common\LuaBase.h
; File C:\IAGOS\server\v18\Source\Source\WorldServer\ItemUpgrade.cpp
; File C:\IAGOS\server\v18\Source\Source\_Common\LuaBase.h
; File C:\Program Files\Microsoft Visual Studio\2022\Professional\VC\Tools\MSVC\14.44.35207\include\utility
; File C:\IAGOS\server\v18\Source\Source\_Common\LuaBase.h
; File C:\Program Files\Microsoft Visual Studio\2022\Professional\VC\Tools\MSVC\14.44.35207\include\xtree
; File C:\IAGOS\server\v18\Source\Source\_Common\LuaBase.h
; File C:\IAGOS\server\v18\Source\Source\WorldServer\ItemUpgrade.cpp
; File C:\Program Files\Microsoft Visual Studio\2022\Professional\VC\Tools\MSVC\14.44.35207\include\utility
; File C:\Program Files\Microsoft Visual Studio\2022\Professional\VC\Tools\MSVC\14.44.35207\include\xtree
; File C:\Program Files\Microsoft Visual Studio\2022\Professional\VC\Tools\MSVC\14.44.35207\include\utility
; File C:\Program Files\Microsoft Visual Studio\2022\Professional\VC\Tools\MSVC\14.44.35207\include\xtree
; File C:\Program Files\Microsoft Visual Studio\2022\Professional\VC\Tools\MSVC\14.44.35207\include\type_traits
; File C:\Program Files\Microsoft Visual Studio\2022\Professional\VC\Tools\MSVC\14.44.35207\include\xtree
; File C:\Program Files\Microsoft Visual Studio\2022\Professional\VC\Tools\MSVC\14.44.35207\include\xmemory
; File C:\Program Files\Microsoft Visual Studio\2022\Professional\VC\Tools\MSVC\14.44.35207\include\xtree
; File C:\Program Files\Microsoft Visual Studio\2022\Professional\VC\Tools\MSVC\14.44.35207\include\xmemory
; File C:\Program Files\Microsoft Visual Studio\2022\Professional\VC\Tools\MSVC\14.44.35207\include\utility
; File C:\Program Files\Microsoft Visual Studio\2022\Professional\VC\Tools\MSVC\14.44.35207\include\xmemory
; File C:\Program Files\Microsoft Visual Studio\2022\Professional\VC\Tools\MSVC\14.44.35207\include\xtree
; File C:\Program Files\Microsoft Visual Studio\2022\Professional\VC\Tools\MSVC\14.44.35207\include\utility
; File C:\Program Files\Microsoft Visual Studio\2022\Professional\VC\Tools\MSVC\14.44.35207\include\xtree
; File C:\Program Files\Microsoft Visual Studio\2022\Professional\VC\Tools\MSVC\14.44.35207\include\utility
; File C:\Program Files\Microsoft Visual Studio\2022\Professional\VC\Tools\MSVC\14.44.35207\include\xtree
; File C:\Program Files\Microsoft Visual Studio\2022\Professional\VC\Tools\MSVC\14.44.35207\include\utility
; File C:\Program Files\Microsoft Visual Studio\2022\Professional\VC\Tools\MSVC\14.44.35207\include\xtree
; File C:\IAGOS\server\v18\Source\Source\WorldServer\ItemUpgrade.cpp
; File C:\IAGOS\server\v18\Source\Source\_Common\LuaBase.h
; File C:\IAGOS\server\v18\Source\Source\WorldServer\ItemUpgrade.cpp
; File C:\IAGOS\server\v18\Source\Source\_Common\LuaBase.h
; File C:\IAGOS\server\v18\Source\Source\WorldServer\ItemUpgrade.cpp
; File C:\IAGOS\server\v18\Source\Source\_Common\LuaBase.h
; File C:\Program Files\Microsoft Visual Studio\2022\Professional\VC\Tools\MSVC\14.44.35207\include\utility
; File C:\IAGOS\server\v18\Source\Source\_Common\LuaBase.h
; File C:\Program Files\Microsoft Visual Studio\2022\Professional\VC\Tools\MSVC\14.44.35207\include\xtree
; File C:\IAGOS\server\v18\Source\Source\_Common\LuaBase.h
; File C:\IAGOS\server\v18\Source\Source\WorldServer\ItemUpgrade.cpp
; File C:\Program Files\Microsoft Visual Studio\2022\Professional\VC\Tools\MSVC\14.44.35207\include\utility
; File C:\Program Files\Microsoft Visual Studio\2022\Professional\VC\Tools\MSVC\14.44.35207\include\xtree
; File C:\Program Files\Microsoft Visual Studio\2022\Professional\VC\Tools\MSVC\14.44.35207\include\utility
; File C:\Program Files\Microsoft Visual Studio\2022\Professional\VC\Tools\MSVC\14.44.35207\include\xtree
; File C:\Program Files\Microsoft Visual Studio\2022\Professional\VC\Tools\MSVC\14.44.35207\include\type_traits
; File C:\Program Files\Microsoft Visual Studio\2022\Professional\VC\Tools\MSVC\14.44.35207\include\xtree
; File C:\Program Files\Microsoft Visual Studio\2022\Professional\VC\Tools\MSVC\14.44.35207\include\xmemory
; File C:\Program Files\Microsoft Visual Studio\2022\Professional\VC\Tools\MSVC\14.44.35207\include\xtree
; File C:\Program Files\Microsoft Visual Studio\2022\Professional\VC\Tools\MSVC\14.44.35207\include\xmemory
; File C:\Program Files\Microsoft Visual Studio\2022\Professional\VC\Tools\MSVC\14.44.35207\include\utility
; File C:\Program Files\Microsoft Visual Studio\2022\Professional\VC\Tools\MSVC\14.44.35207\include\xmemory
; File C:\Program Files\Microsoft Visual Studio\2022\Professional\VC\Tools\MSVC\14.44.35207\include\xtree
; File C:\Program Files\Microsoft Visual Studio\2022\Professional\VC\Tools\MSVC\14.44.35207\include\utility
; File C:\Program Files\Microsoft Visual Studio\2022\Professional\VC\Tools\MSVC\14.44.35207\include\xtree
; File C:\Program Files\Microsoft Visual Studio\2022\Professional\VC\Tools\MSVC\14.44.35207\include\utility
; File C:\Program Files\Microsoft Visual Studio\2022\Professional\VC\Tools\MSVC\14.44.35207\include\xtree
; File C:\Program Files\Microsoft Visual Studio\2022\Professional\VC\Tools\MSVC\14.44.35207\include\utility
; File C:\Program Files\Microsoft Visual Studio\2022\Professional\VC\Tools\MSVC\14.44.35207\include\xtree
; File C:\IAGOS\server\v18\Source\Source\WorldServer\ItemUpgrade.cpp
; File C:\IAGOS\server\v18\Source\Source\_Common\LuaBase.h
; File C:\IAGOS\server\v18\Source\Source\WorldServer\ItemUpgrade.cpp
; File C:\IAGOS\server\v18\Source\Source\_Common\LuaBase.h
; File C:\IAGOS\server\v18\Source\Source\WorldServer\ItemUpgrade.cpp
; File C:\IAGOS\server\v18\Source\Source\_Common\LuaBase.h
; File C:\IAGOS\server\v18\Source\Source\WorldServer\ItemUpgrade.cpp
; File C:\IAGOS\server\v18\Source\Source\_Common\LuaBase.h
; File C:\Program Files\Microsoft Visual Studio\2022\Professional\VC\Tools\MSVC\14.44.35207\include\utility
; File C:\Program Files\Microsoft Visual Studio\2022\Professional\VC\Tools\MSVC\14.44.35207\include\xtree
; File C:\Program Files\Microsoft Visual Studio\2022\Professional\VC\Tools\MSVC\14.44.35207\include\utility
; File C:\Program Files\Microsoft Visual Studio\2022\Professional\VC\Tools\MSVC\14.44.35207\include\xtree
; File C:\IAGOS\server\v18\Source\Source\_Common\LuaBase.h
; File C:\IAGOS\server\v18\Source\Source\WorldServer\ItemUpgrade.cpp
; File C:\Program Files\Microsoft Visual Studio\2022\Professional\VC\Tools\MSVC\14.44.35207\include\utility
; File C:\Program Files\Microsoft Visual Studio\2022\Professional\VC\Tools\MSVC\14.44.35207\include\xtree
; File C:\Program Files\Microsoft Visual Studio\2022\Professional\VC\Tools\MSVC\14.44.35207\include\type_traits
; File C:\Program Files\Microsoft Visual Studio\2022\Professional\VC\Tools\MSVC\14.44.35207\include\xtree
; File C:\Program Files\Microsoft Visual Studio\2022\Professional\VC\Tools\MSVC\14.44.35207\include\xmemory
; File C:\Program Files\Microsoft Visual Studio\2022\Professional\VC\Tools\MSVC\14.44.35207\include\xtree
; File C:\Program Files\Microsoft Visual Studio\2022\Professional\VC\Tools\MSVC\14.44.35207\include\xmemory
; File C:\Program Files\Microsoft Visual Studio\2022\Professional\VC\Tools\MSVC\14.44.35207\include\utility
; File C:\Program Files\Microsoft Visual Studio\2022\Professional\VC\Tools\MSVC\14.44.35207\include\xmemory
; File C:\Program Files\Microsoft Visual Studio\2022\Professional\VC\Tools\MSVC\14.44.35207\include\xtree
; File C:\Program Files\Microsoft Visual Studio\2022\Professional\VC\Tools\MSVC\14.44.35207\include\utility
; File C:\Program Files\Microsoft Visual Studio\2022\Professional\VC\Tools\MSVC\14.44.35207\include\xtree
; File C:\Program Files\Microsoft Visual Studio\2022\Professional\VC\Tools\MSVC\14.44.35207\include\utility
; File C:\Program Files\Microsoft Visual Studio\2022\Professional\VC\Tools\MSVC\14.44.35207\include\xtree
; File C:\Program Files\Microsoft Visual Studio\2022\Professional\VC\Tools\MSVC\14.44.35207\include\utility
; File C:\Program Files\Microsoft Visual Studio\2022\Professional\VC\Tools\MSVC\14.44.35207\include\xtree
; File C:\IAGOS\server\v18\Source\Source\WorldServer\ItemUpgrade.cpp
; File C:\IAGOS\server\v18\Source\Source\_Common\LuaBase.h
; File C:\IAGOS\server\v18\Source\Source\WorldServer\ItemUpgrade.cpp
; File C:\Program Files\Microsoft Visual Studio\2022\Professional\VC\Tools\MSVC\14.44.35207\include\xtree
; File C:\IAGOS\server\v18\Source\Source\WorldServer\ItemUpgrade.cpp
;	COMDAT ?LoadScriptBaruna@CItemUpgrade@@QAEXXZ
_TEXT	SEGMENT
$T2 = -112						; size = 20
$T3 = -92						; size = 12
$T4 = -80						; size = 12
$T5 = -80						; size = 12
$T6 = -80						; size = 12
__Loc$7 = -80						; size = 12
$T8 = -80						; size = 12
__Loc$9 = -68						; size = 12
__Loc$10 = -68						; size = 12
__Loc$11 = -68						; size = 12
__Loc$12 = -68						; size = 12
tv2743 = -64						; size = 8
$T13 = -56						; size = 8
$T14 = -56						; size = 8
$T15 = -56						; size = 8
$T16 = -56						; size = 8
$T17 = -56						; size = 8
tv2862 = -48						; size = 8
tv2735 = -48						; size = 8
tv2739 = -48						; size = 8
tv2770 = -48						; size = 8
tv2799 = -48						; size = 8
tv2827 = -48						; size = 8
tv2748 = -40						; size = 8
tv2776 = -40						; size = 8
tv2805 = -40						; size = 8
tv2833 = -40						; size = 8
tv2856 = -40						; size = 8
$T18 = -32						; size = 8
$T19 = -32						; size = 8
$T20 = -32						; size = 8
tv2731 = -32						; size = 8
$T21 = -32						; size = 8
_lua$ = -24						; size = 8
_this$1$ = -16						; size = 4
__$EHRec$ = -12						; size = 12
?LoadScriptBaruna@CItemUpgrade@@QAEXXZ PROC		; CItemUpgrade::LoadScriptBaruna, COMDAT
; _this$ = ecx

; 125  : {

  00000	55		 push	 ebp
  00001	8b ec		 mov	 ebp, esp
  00003	6a ff		 push	 -1
  00005	68 00 00 00 00	 push	 __ehhandler$?LoadScriptBaruna@CItemUpgrade@@QAEXXZ
  0000a	64 a1 00 00 00
	00		 mov	 eax, DWORD PTR fs:0
  00010	50		 push	 eax
  00011	83 ec 64	 sub	 esp, 100		; 00000064H
  00014	56		 push	 esi
  00015	57		 push	 edi
  00016	a1 00 00 00 00	 mov	 eax, DWORD PTR ___security_cookie
  0001b	33 c5		 xor	 eax, ebp
  0001d	50		 push	 eax
  0001e	8d 45 f4	 lea	 eax, DWORD PTR __$EHRec$[ebp]
  00021	64 a3 00 00 00
	00		 mov	 DWORD PTR fs:0, eax
  00027	8b f1		 mov	 esi, ecx
  00029	89 75 f0	 mov	 DWORD PTR _this$1$[ebp], esi

; 126  : 	CLuaBase	lua;

  0002c	8d 4d e8	 lea	 ecx, DWORD PTR _lua$[ebp]
  0002f	e8 00 00 00 00	 call	 ??0CLuaBase@@QAE@XZ	; CLuaBase::CLuaBase

; 127  : 	if( lua.RunScript( "Baruna.lua" ) != 0 )

  00034	68 00 00 00 00	 push	 OFFSET ??_C@_0L@CHGADHBA@Baruna?4lua@
  00039	8d 4d e8	 lea	 ecx, DWORD PTR _lua$[ebp]
  0003c	c7 45 fc 00 00
	00 00		 mov	 DWORD PTR __$EHRec$[ebp+8], 0
  00043	e8 00 00 00 00	 call	 ?RunScript@CLuaBase@@QAEHPBD@Z ; CLuaBase::RunScript
  00048	85 c0		 test	 eax, eax
  0004a	74 0d		 je	 SHORT $LN12@LoadScript

; 128  : 	{
; 129  : 		Error( "CItemUpgrade::LoadScript() - Baruna.lua Run Failed!!!" );

  0004c	68 00 00 00 00	 push	 OFFSET ??_C@_0DG@NIMIMML@CItemUpgrade?3?3LoadScript?$CI?$CJ?5?9?5Ba@
  00051	e8 00 00 00 00	 call	 ?Error@@YAPBDPBDZZ	; Error
  00056	83 c4 04	 add	 esp, 4
$LN12@LoadScript:
; File C:\IAGOS\server\v18\Source\Source\_Common\LuaBase.h

; 47   : 	void		GetGloabal( char* szName )					{  lua_getglobal( m_pLuaState, szName );  }

  00059	68 00 00 00 00	 push	 OFFSET ??_C@_0P@KHAPPOBC@tBarunaUpgrade@
  0005e	ff 75 ec	 push	 DWORD PTR _lua$[ebp+4]
  00061	e8 00 00 00 00	 call	 _lua_getglobal

; 40   : 	void		PushNil()									{  lua_pushnil( m_pLuaState );  }

  00066	ff 75 ec	 push	 DWORD PTR _lua$[ebp+4]
  00069	e8 00 00 00 00	 call	 _lua_pushnil

; 46   : 	int			TableLoop( int nStackPos )					{  return lua_next( m_pLuaState, nStackPos );  }	

  0006e	6a fe		 push	 -2			; fffffffeH
  00070	ff 75 ec	 push	 DWORD PTR _lua$[ebp+4]
  00073	e8 00 00 00 00	 call	 _lua_next
  00078	83 c4 14	 add	 esp, 20			; 00000014H
; File C:\IAGOS\server\v18\Source\Source\WorldServer\ItemUpgrade.cpp

; 135  : 	while( lua.TableLoop( -2 ) )

  0007b	85 c0		 test	 eax, eax
  0007d	0f 84 da 00 00
	00		 je	 $LN3@LoadScript
  00083	8d 7e 40	 lea	 edi, DWORD PTR [esi+64]
$LL2@LoadScript:
; File C:\IAGOS\server\v18\Source\Source\_Common\LuaBase.h

; 43   : 	double		ToNumber( int nStackPos )					{  return lua_tonumber( m_pLuaState, nStackPos );  }

  00086	6a 00		 push	 0
  00088	6a ff		 push	 -1
  0008a	ff 75 ec	 push	 DWORD PTR _lua$[ebp+4]
  0008d	e8 00 00 00 00	 call	 _lua_tonumberx
  00092	6a 00		 push	 0
  00094	6a fe		 push	 -2			; fffffffeH
  00096	ff 75 ec	 push	 DWORD PTR _lua$[ebp+4]
  00099	dd 5d d0	 fstp	 QWORD PTR tv2862[ebp]
  0009c	e8 00 00 00 00	 call	 _lua_tonumberx
; File C:\Program Files\Microsoft Visual Studio\2022\Professional\VC\Tools\MSVC\14.44.35207\include\utility

; 274  :         : first(_STD forward<_Other1>(_Val1)), second(_STD forward<_Other2>(_Val2)) {

  000a1	f2 0f 2c 45 d0	 cvttsd2si eax, QWORD PTR tv2862[ebp]
; File C:\IAGOS\server\v18\Source\Source\_Common\LuaBase.h

; 43   : 	double		ToNumber( int nStackPos )					{  return lua_tonumber( m_pLuaState, nStackPos );  }

  000a6	83 c4 18	 add	 esp, 24			; 00000018H
; File C:\Program Files\Microsoft Visual Studio\2022\Professional\VC\Tools\MSVC\14.44.35207\include\xtree

; 1017 :             _Loc                = _Find_lower_bound(_Keyval);

  000a9	8b cf		 mov	 ecx, edi
; File C:\IAGOS\server\v18\Source\Source\_Common\LuaBase.h

; 43   : 	double		ToNumber( int nStackPos )					{  return lua_tonumber( m_pLuaState, nStackPos );  }

  000ab	dd 5d d8	 fstp	 QWORD PTR tv2856[ebp]
; File C:\IAGOS\server\v18\Source\Source\WorldServer\ItemUpgrade.cpp

; 137  : 		m_mapBarunaEnchantUpgrade.insert( make_pair( static_cast<int>(lua.ToNumber(-2)), static_cast<int>(lua.ToNumber(-1)) ) );

  000ae	f2 0f 2c 75 d8	 cvttsd2si esi, QWORD PTR tv2856[ebp]
; File C:\Program Files\Microsoft Visual Studio\2022\Professional\VC\Tools\MSVC\14.44.35207\include\utility

; 274  :         : first(_STD forward<_Other1>(_Val1)), second(_STD forward<_Other2>(_Val2)) {

  000b3	89 45 e4	 mov	 DWORD PTR $T18[ebp+4], eax
; File C:\Program Files\Microsoft Visual Studio\2022\Professional\VC\Tools\MSVC\14.44.35207\include\xtree

; 1017 :             _Loc                = _Find_lower_bound(_Keyval);

  000b6	8d 45 e0	 lea	 eax, DWORD PTR $T18[ebp]
  000b9	50		 push	 eax
  000ba	8d 45 b0	 lea	 eax, DWORD PTR $T4[ebp]
  000bd	50		 push	 eax
; File C:\Program Files\Microsoft Visual Studio\2022\Professional\VC\Tools\MSVC\14.44.35207\include\utility

; 274  :         : first(_STD forward<_Other1>(_Val1)), second(_STD forward<_Other2>(_Val2)) {

  000be	89 75 e0	 mov	 DWORD PTR $T18[ebp], esi
; File C:\Program Files\Microsoft Visual Studio\2022\Professional\VC\Tools\MSVC\14.44.35207\include\xtree

; 1017 :             _Loc                = _Find_lower_bound(_Keyval);

  000c1	e8 00 00 00 00	 call	 ??$_Find_lower_bound@H@?$_Tree@V?$_Tmap_traits@HHU?$less@H@std@@V?$allocator@U?$pair@$$CBHH@std@@@2@$0A@@std@@@std@@IBE?AU?$_Tree_find_result@PAU?$_Tree_node@U?$pair@$$CBHH@std@@PAX@std@@@1@ABH@Z ; std::_Tree<std::_Tmap_traits<int,int,std::less<int>,std::allocator<std::pair<int const ,int> >,0> >::_Find_lower_bound<int>
  000c6	f3 0f 7e 00	 movq	 xmm0, QWORD PTR [eax]
  000ca	8b 40 08	 mov	 eax, DWORD PTR [eax+8]
  000cd	66 0f d6 45 bc	 movq	 QWORD PTR __Loc$10[ebp], xmm0

; 1624 :         return !_Bound->_Isnil && !_DEBUG_LT_PRED(_Getcomp(), _Keyval, _Traits::_Kfn(_Bound->_Myval));

  000d2	80 78 0d 00	 cmp	 BYTE PTR [eax+13], 0
  000d6	75 05		 jne	 SHORT $LN49@LoadScript
; File C:\Program Files\Microsoft Visual Studio\2022\Professional\VC\Tools\MSVC\14.44.35207\include\type_traits

; 2380 :         return _Left < _Right;

  000d8	3b 70 10	 cmp	 esi, DWORD PTR [eax+16]
; File C:\Program Files\Microsoft Visual Studio\2022\Professional\VC\Tools\MSVC\14.44.35207\include\xtree

; 1624 :         return !_Bound->_Isnil && !_DEBUG_LT_PRED(_Getcomp(), _Keyval, _Traits::_Kfn(_Bound->_Myval));

  000db	7d 5e		 jge	 SHORT $LN129@LoadScript
$LN49@LoadScript:

; 1648 :         if (max_size() == _Get_scary()->_Mysize) {

  000dd	81 7f 04 aa aa
	aa 0a		 cmp	 DWORD PTR [edi+4], 178956970 ; 0aaaaaaaH
  000e4	0f 84 29 05 00
	00		 je	 $LN639@LoadScript

; 1023 :             _Inserted = _Tree_temp_node<_Alnode>(_Getal(), _Scary->_Myhead, _STD forward<_Valtys>(_Vals)...)._Release();

  000ea	8b 37		 mov	 esi, DWORD PTR [edi]
; File C:\Program Files\Microsoft Visual Studio\2022\Professional\VC\Tools\MSVC\14.44.35207\include\xmemory

; 1160 :     _CONSTEXPR20 explicit _Alloc_construct_ptr(_Alloc& _Al_) : _Al(_Al_), _Ptr(nullptr) {}

  000ec	89 7d c8	 mov	 DWORD PTR $T16[ebp], edi

; 136  :         return ::operator new(_Bytes);

  000ef	6a 18		 push	 24			; 00000018H
; File C:\Program Files\Microsoft Visual Studio\2022\Professional\VC\Tools\MSVC\14.44.35207\include\xtree

; 808  :     explicit _Tree_temp_node_alloc(_Alnode& _Al_) : _Alloc_construct_ptr<_Alnode>(_Al_) {

  000f1	c6 45 fc 01	 mov	 BYTE PTR __$EHRec$[ebp+8], 1
; File C:\Program Files\Microsoft Visual Studio\2022\Professional\VC\Tools\MSVC\14.44.35207\include\xmemory

; 1167 :         _Ptr = nullptr; // if allocate throws, prevents double-free

  000f5	c7 45 cc 00 00
	00 00		 mov	 DWORD PTR $T16[ebp+4], 0

; 136  :         return ::operator new(_Bytes);

  000fc	e8 00 00 00 00	 call	 ??2@YAPAXI@Z		; operator new
; File C:\Program Files\Microsoft Visual Studio\2022\Professional\VC\Tools\MSVC\14.44.35207\include\utility

; 303  :         : first(_STD forward<_Other1>(_Right.first)), second(_STD forward<_Other2>(_Right.second)) {}

  00101	f2 0f 2c 4d d8	 cvttsd2si ecx, QWORD PTR tv2856[ebp]
; File C:\Program Files\Microsoft Visual Studio\2022\Professional\VC\Tools\MSVC\14.44.35207\include\xmemory

; 136  :         return ::operator new(_Bytes);

  00106	83 c4 04	 add	 esp, 4
; File C:\Program Files\Microsoft Visual Studio\2022\Professional\VC\Tools\MSVC\14.44.35207\include\xtree

; 810  :     }

  00109	c6 45 fc 00	 mov	 BYTE PTR __$EHRec$[ebp+8], 0
; File C:\Program Files\Microsoft Visual Studio\2022\Professional\VC\Tools\MSVC\14.44.35207\include\utility

; 774  :     _Val         = static_cast<_Other&&>(_New_val);

  0010d	c7 45 cc 00 00
	00 00		 mov	 DWORD PTR $T16[ebp+4], 0
; File C:\Program Files\Microsoft Visual Studio\2022\Professional\VC\Tools\MSVC\14.44.35207\include\xtree

; 1042 :         return {_Scary->_Insert_node(_Loc._Location, _Inserted), true};

  00114	50		 push	 eax
  00115	ff 75 c0	 push	 DWORD PTR __Loc$10[ebp+4]
; File C:\Program Files\Microsoft Visual Studio\2022\Professional\VC\Tools\MSVC\14.44.35207\include\utility

; 303  :         : first(_STD forward<_Other1>(_Right.first)), second(_STD forward<_Other2>(_Right.second)) {}

  00118	89 48 10	 mov	 DWORD PTR [eax+16], ecx
  0011b	f2 0f 2c 4d d0	 cvttsd2si ecx, QWORD PTR tv2862[ebp]
; File C:\Program Files\Microsoft Visual Studio\2022\Professional\VC\Tools\MSVC\14.44.35207\include\xtree

; 1042 :         return {_Scary->_Insert_node(_Loc._Location, _Inserted), true};

  00120	ff 75 bc	 push	 DWORD PTR __Loc$10[ebp]
; File C:\Program Files\Microsoft Visual Studio\2022\Professional\VC\Tools\MSVC\14.44.35207\include\utility

; 303  :         : first(_STD forward<_Other1>(_Right.first)), second(_STD forward<_Other2>(_Right.second)) {}

  00123	89 48 14	 mov	 DWORD PTR [eax+20], ecx
; File C:\Program Files\Microsoft Visual Studio\2022\Professional\VC\Tools\MSVC\14.44.35207\include\xtree

; 1042 :         return {_Scary->_Insert_node(_Loc._Location, _Inserted), true};

  00126	8b cf		 mov	 ecx, edi

; 831  :         _Construct_in_place(this->_Ptr->_Left, _Myhead);

  00128	89 30		 mov	 DWORD PTR [eax], esi

; 832  :         _Construct_in_place(this->_Ptr->_Parent, _Myhead);

  0012a	89 70 04	 mov	 DWORD PTR [eax+4], esi

; 833  :         _Construct_in_place(this->_Ptr->_Right, _Myhead);

  0012d	89 70 08	 mov	 DWORD PTR [eax+8], esi

; 834  :         this->_Ptr->_Color = _Red;

  00130	66 c7 40 0c 00
	00		 mov	 WORD PTR [eax+12], 0

; 1042 :         return {_Scary->_Insert_node(_Loc._Location, _Inserted), true};

  00136	e8 00 00 00 00	 call	 ?_Insert_node@?$_Tree_val@U?$_Tree_simple_types@U?$pair@$$CBHH@std@@@std@@@std@@QAEPAU?$_Tree_node@U?$pair@$$CBHH@std@@PAX@2@U?$_Tree_id@PAU?$_Tree_node@U?$pair@$$CBHH@std@@PAX@std@@@2@QAU32@@Z ; std::_Tree_val<std::_Tree_simple_types<std::pair<int const ,int> > >::_Insert_node
$LN129@LoadScript:
; File C:\IAGOS\server\v18\Source\Source\WorldServer\ItemUpgrade.cpp

; 138  : 		lua.Pop( 1 );

  0013b	6a 01		 push	 1
  0013d	8d 4d e8	 lea	 ecx, DWORD PTR _lua$[ebp]
  00140	e8 00 00 00 00	 call	 ?Pop@CLuaBase@@QAEXH@Z	; CLuaBase::Pop
; File C:\IAGOS\server\v18\Source\Source\_Common\LuaBase.h

; 46   : 	int			TableLoop( int nStackPos )					{  return lua_next( m_pLuaState, nStackPos );  }	

  00145	6a fe		 push	 -2			; fffffffeH
  00147	ff 75 ec	 push	 DWORD PTR _lua$[ebp+4]
  0014a	e8 00 00 00 00	 call	 _lua_next
  0014f	83 c4 08	 add	 esp, 8
; File C:\IAGOS\server\v18\Source\Source\WorldServer\ItemUpgrade.cpp

; 135  : 	while( lua.TableLoop( -2 ) )

  00152	85 c0		 test	 eax, eax
  00154	0f 85 2c ff ff
	ff		 jne	 $LL2@LoadScript
  0015a	8b 75 f0	 mov	 esi, DWORD PTR _this$1$[ebp]
$LN3@LoadScript:

; 139  : 	}
; 140  : 	lua.Pop(0);

  0015d	6a 00		 push	 0
  0015f	8d 4d e8	 lea	 ecx, DWORD PTR _lua$[ebp]
  00162	e8 00 00 00 00	 call	 ?Pop@CLuaBase@@QAEXH@Z	; CLuaBase::Pop
; File C:\IAGOS\server\v18\Source\Source\_Common\LuaBase.h

; 47   : 	void		GetGloabal( char* szName )					{  lua_getglobal( m_pLuaState, szName );  }

  00167	68 00 00 00 00	 push	 OFFSET ??_C@_0BB@KEOOECFG@tBarunaDowngrade@
  0016c	ff 75 ec	 push	 DWORD PTR _lua$[ebp+4]
  0016f	e8 00 00 00 00	 call	 _lua_getglobal

; 40   : 	void		PushNil()									{  lua_pushnil( m_pLuaState );  }

  00174	ff 75 ec	 push	 DWORD PTR _lua$[ebp+4]
  00177	e8 00 00 00 00	 call	 _lua_pushnil

; 46   : 	int			TableLoop( int nStackPos )					{  return lua_next( m_pLuaState, nStackPos );  }	

  0017c	6a fe		 push	 -2			; fffffffeH
  0017e	ff 75 ec	 push	 DWORD PTR _lua$[ebp+4]
  00181	e8 00 00 00 00	 call	 _lua_next
  00186	83 c4 14	 add	 esp, 20			; 00000014H
; File C:\IAGOS\server\v18\Source\Source\WorldServer\ItemUpgrade.cpp

; 143  : 	while( lua.TableLoop( -2 ) )

  00189	85 c0		 test	 eax, eax
  0018b	0f 84 d7 00 00
	00		 je	 $LN5@LoadScript
  00191	8d 7e 48	 lea	 edi, DWORD PTR [esi+72]
$LL4@LoadScript:
; File C:\IAGOS\server\v18\Source\Source\_Common\LuaBase.h

; 43   : 	double		ToNumber( int nStackPos )					{  return lua_tonumber( m_pLuaState, nStackPos );  }

  00194	6a 00		 push	 0
  00196	6a ff		 push	 -1
  00198	ff 75 ec	 push	 DWORD PTR _lua$[ebp+4]
  0019b	e8 00 00 00 00	 call	 _lua_tonumberx
  001a0	6a 00		 push	 0
  001a2	6a fe		 push	 -2			; fffffffeH
  001a4	ff 75 ec	 push	 DWORD PTR _lua$[ebp+4]
  001a7	dd 5d d8	 fstp	 QWORD PTR tv2833[ebp]
  001aa	e8 00 00 00 00	 call	 _lua_tonumberx
; File C:\Program Files\Microsoft Visual Studio\2022\Professional\VC\Tools\MSVC\14.44.35207\include\utility

; 274  :         : first(_STD forward<_Other1>(_Val1)), second(_STD forward<_Other2>(_Val2)) {

  001af	f2 0f 2c 45 d8	 cvttsd2si eax, QWORD PTR tv2833[ebp]
; File C:\IAGOS\server\v18\Source\Source\_Common\LuaBase.h

; 43   : 	double		ToNumber( int nStackPos )					{  return lua_tonumber( m_pLuaState, nStackPos );  }

  001b4	83 c4 18	 add	 esp, 24			; 00000018H
; File C:\Program Files\Microsoft Visual Studio\2022\Professional\VC\Tools\MSVC\14.44.35207\include\xtree

; 1017 :             _Loc                = _Find_lower_bound(_Keyval);

  001b7	8b cf		 mov	 ecx, edi
; File C:\IAGOS\server\v18\Source\Source\_Common\LuaBase.h

; 43   : 	double		ToNumber( int nStackPos )					{  return lua_tonumber( m_pLuaState, nStackPos );  }

  001b9	dd 5d d0	 fstp	 QWORD PTR tv2827[ebp]
; File C:\IAGOS\server\v18\Source\Source\WorldServer\ItemUpgrade.cpp

; 145  : 		m_mapBarunaEnchantDowngrade.insert( make_pair( static_cast<int>(lua.ToNumber(-2)), static_cast<int>(lua.ToNumber(-1)) ) );

  001bc	f2 0f 2c 75 d0	 cvttsd2si esi, QWORD PTR tv2827[ebp]
; File C:\Program Files\Microsoft Visual Studio\2022\Professional\VC\Tools\MSVC\14.44.35207\include\utility

; 274  :         : first(_STD forward<_Other1>(_Val1)), second(_STD forward<_Other2>(_Val2)) {

  001c1	89 45 cc	 mov	 DWORD PTR $T13[ebp+4], eax
; File C:\Program Files\Microsoft Visual Studio\2022\Professional\VC\Tools\MSVC\14.44.35207\include\xtree

; 1017 :             _Loc                = _Find_lower_bound(_Keyval);

  001c4	8d 45 c8	 lea	 eax, DWORD PTR $T13[ebp]
  001c7	50		 push	 eax
  001c8	8d 45 b0	 lea	 eax, DWORD PTR $T5[ebp]
  001cb	50		 push	 eax
; File C:\Program Files\Microsoft Visual Studio\2022\Professional\VC\Tools\MSVC\14.44.35207\include\utility

; 274  :         : first(_STD forward<_Other1>(_Val1)), second(_STD forward<_Other2>(_Val2)) {

  001cc	89 75 c8	 mov	 DWORD PTR $T13[ebp], esi
; File C:\Program Files\Microsoft Visual Studio\2022\Professional\VC\Tools\MSVC\14.44.35207\include\xtree

; 1017 :             _Loc                = _Find_lower_bound(_Keyval);

  001cf	e8 00 00 00 00	 call	 ??$_Find_lower_bound@H@?$_Tree@V?$_Tmap_traits@HHU?$less@H@std@@V?$allocator@U?$pair@$$CBHH@std@@@2@$0A@@std@@@std@@IBE?AU?$_Tree_find_result@PAU?$_Tree_node@U?$pair@$$CBHH@std@@PAX@std@@@1@ABH@Z ; std::_Tree<std::_Tmap_traits<int,int,std::less<int>,std::allocator<std::pair<int const ,int> >,0> >::_Find_lower_bound<int>
  001d4	f3 0f 7e 00	 movq	 xmm0, QWORD PTR [eax]
  001d8	8b 40 08	 mov	 eax, DWORD PTR [eax+8]
  001db	66 0f d6 45 bc	 movq	 QWORD PTR __Loc$11[ebp], xmm0

; 1624 :         return !_Bound->_Isnil && !_DEBUG_LT_PRED(_Getcomp(), _Keyval, _Traits::_Kfn(_Bound->_Myval));

  001e0	80 78 0d 00	 cmp	 BYTE PTR [eax+13], 0
  001e4	75 05		 jne	 SHORT $LN174@LoadScript
; File C:\Program Files\Microsoft Visual Studio\2022\Professional\VC\Tools\MSVC\14.44.35207\include\type_traits

; 2380 :         return _Left < _Right;

  001e6	3b 70 10	 cmp	 esi, DWORD PTR [eax+16]
; File C:\Program Files\Microsoft Visual Studio\2022\Professional\VC\Tools\MSVC\14.44.35207\include\xtree

; 1624 :         return !_Bound->_Isnil && !_DEBUG_LT_PRED(_Getcomp(), _Keyval, _Traits::_Kfn(_Bound->_Myval));

  001e9	7d 5e		 jge	 SHORT $LN254@LoadScript
$LN174@LoadScript:

; 1648 :         if (max_size() == _Get_scary()->_Mysize) {

  001eb	81 7f 04 aa aa
	aa 0a		 cmp	 DWORD PTR [edi+4], 178956970 ; 0aaaaaaaH
  001f2	0f 84 1b 04 00
	00		 je	 $LN639@LoadScript

; 1023 :             _Inserted = _Tree_temp_node<_Alnode>(_Getal(), _Scary->_Myhead, _STD forward<_Valtys>(_Vals)...)._Release();

  001f8	8b 37		 mov	 esi, DWORD PTR [edi]
; File C:\Program Files\Microsoft Visual Studio\2022\Professional\VC\Tools\MSVC\14.44.35207\include\xmemory

; 1160 :     _CONSTEXPR20 explicit _Alloc_construct_ptr(_Alloc& _Al_) : _Al(_Al_), _Ptr(nullptr) {}

  001fa	89 7d e0	 mov	 DWORD PTR $T19[ebp], edi

; 136  :         return ::operator new(_Bytes);

  001fd	6a 18		 push	 24			; 00000018H
; File C:\Program Files\Microsoft Visual Studio\2022\Professional\VC\Tools\MSVC\14.44.35207\include\xtree

; 808  :     explicit _Tree_temp_node_alloc(_Alnode& _Al_) : _Alloc_construct_ptr<_Alnode>(_Al_) {

  001ff	c6 45 fc 02	 mov	 BYTE PTR __$EHRec$[ebp+8], 2
; File C:\Program Files\Microsoft Visual Studio\2022\Professional\VC\Tools\MSVC\14.44.35207\include\xmemory

; 1167 :         _Ptr = nullptr; // if allocate throws, prevents double-free

  00203	c7 45 e4 00 00
	00 00		 mov	 DWORD PTR $T19[ebp+4], 0

; 136  :         return ::operator new(_Bytes);

  0020a	e8 00 00 00 00	 call	 ??2@YAPAXI@Z		; operator new
; File C:\Program Files\Microsoft Visual Studio\2022\Professional\VC\Tools\MSVC\14.44.35207\include\utility

; 303  :         : first(_STD forward<_Other1>(_Right.first)), second(_STD forward<_Other2>(_Right.second)) {}

  0020f	f2 0f 2c 4d d0	 cvttsd2si ecx, QWORD PTR tv2827[ebp]
; File C:\Program Files\Microsoft Visual Studio\2022\Professional\VC\Tools\MSVC\14.44.35207\include\xmemory

; 136  :         return ::operator new(_Bytes);

  00214	83 c4 04	 add	 esp, 4
; File C:\Program Files\Microsoft Visual Studio\2022\Professional\VC\Tools\MSVC\14.44.35207\include\xtree

; 810  :     }

  00217	c6 45 fc 00	 mov	 BYTE PTR __$EHRec$[ebp+8], 0
; File C:\Program Files\Microsoft Visual Studio\2022\Professional\VC\Tools\MSVC\14.44.35207\include\utility

; 774  :     _Val         = static_cast<_Other&&>(_New_val);

  0021b	c7 45 e4 00 00
	00 00		 mov	 DWORD PTR $T19[ebp+4], 0
; File C:\Program Files\Microsoft Visual Studio\2022\Professional\VC\Tools\MSVC\14.44.35207\include\xtree

; 1042 :         return {_Scary->_Insert_node(_Loc._Location, _Inserted), true};

  00222	50		 push	 eax
  00223	ff 75 c0	 push	 DWORD PTR __Loc$11[ebp+4]
; File C:\Program Files\Microsoft Visual Studio\2022\Professional\VC\Tools\MSVC\14.44.35207\include\utility

; 303  :         : first(_STD forward<_Other1>(_Right.first)), second(_STD forward<_Other2>(_Right.second)) {}

  00226	89 48 10	 mov	 DWORD PTR [eax+16], ecx
  00229	f2 0f 2c 4d d8	 cvttsd2si ecx, QWORD PTR tv2833[ebp]
; File C:\Program Files\Microsoft Visual Studio\2022\Professional\VC\Tools\MSVC\14.44.35207\include\xtree

; 1042 :         return {_Scary->_Insert_node(_Loc._Location, _Inserted), true};

  0022e	ff 75 bc	 push	 DWORD PTR __Loc$11[ebp]
; File C:\Program Files\Microsoft Visual Studio\2022\Professional\VC\Tools\MSVC\14.44.35207\include\utility

; 303  :         : first(_STD forward<_Other1>(_Right.first)), second(_STD forward<_Other2>(_Right.second)) {}

  00231	89 48 14	 mov	 DWORD PTR [eax+20], ecx
; File C:\Program Files\Microsoft Visual Studio\2022\Professional\VC\Tools\MSVC\14.44.35207\include\xtree

; 1042 :         return {_Scary->_Insert_node(_Loc._Location, _Inserted), true};

  00234	8b cf		 mov	 ecx, edi

; 831  :         _Construct_in_place(this->_Ptr->_Left, _Myhead);

  00236	89 30		 mov	 DWORD PTR [eax], esi

; 832  :         _Construct_in_place(this->_Ptr->_Parent, _Myhead);

  00238	89 70 04	 mov	 DWORD PTR [eax+4], esi

; 833  :         _Construct_in_place(this->_Ptr->_Right, _Myhead);

  0023b	89 70 08	 mov	 DWORD PTR [eax+8], esi

; 834  :         this->_Ptr->_Color = _Red;

  0023e	66 c7 40 0c 00
	00		 mov	 WORD PTR [eax+12], 0

; 1042 :         return {_Scary->_Insert_node(_Loc._Location, _Inserted), true};

  00244	e8 00 00 00 00	 call	 ?_Insert_node@?$_Tree_val@U?$_Tree_simple_types@U?$pair@$$CBHH@std@@@std@@@std@@QAEPAU?$_Tree_node@U?$pair@$$CBHH@std@@PAX@2@U?$_Tree_id@PAU?$_Tree_node@U?$pair@$$CBHH@std@@PAX@std@@@2@QAU32@@Z ; std::_Tree_val<std::_Tree_simple_types<std::pair<int const ,int> > >::_Insert_node
$LN254@LoadScript:
; File C:\IAGOS\server\v18\Source\Source\WorldServer\ItemUpgrade.cpp

; 146  : 		lua.Pop( 1 );

  00249	6a 01		 push	 1
  0024b	8d 4d e8	 lea	 ecx, DWORD PTR _lua$[ebp]
  0024e	e8 00 00 00 00	 call	 ?Pop@CLuaBase@@QAEXH@Z	; CLuaBase::Pop
; File C:\IAGOS\server\v18\Source\Source\_Common\LuaBase.h

; 46   : 	int			TableLoop( int nStackPos )					{  return lua_next( m_pLuaState, nStackPos );  }	

  00253	6a fe		 push	 -2			; fffffffeH
  00255	ff 75 ec	 push	 DWORD PTR _lua$[ebp+4]
  00258	e8 00 00 00 00	 call	 _lua_next
  0025d	83 c4 08	 add	 esp, 8
; File C:\IAGOS\server\v18\Source\Source\WorldServer\ItemUpgrade.cpp

; 143  : 	while( lua.TableLoop( -2 ) )

  00260	85 c0		 test	 eax, eax
  00262	0f 85 2c ff ff
	ff		 jne	 $LL4@LoadScript
$LN5@LoadScript:

; 147  : 	}
; 148  : 	lua.Pop(0);

  00268	6a 00		 push	 0
  0026a	8d 4d e8	 lea	 ecx, DWORD PTR _lua$[ebp]
  0026d	e8 00 00 00 00	 call	 ?Pop@CLuaBase@@QAEXH@Z	; CLuaBase::Pop
; File C:\IAGOS\server\v18\Source\Source\_Common\LuaBase.h

; 47   : 	void		GetGloabal( char* szName )					{  lua_getglobal( m_pLuaState, szName );  }

  00272	68 00 00 00 00	 push	 OFFSET ??_C@_0BI@JDBHEFPP@tBarunaPetMultiplicator@
  00277	ff 75 ec	 push	 DWORD PTR _lua$[ebp+4]
  0027a	e8 00 00 00 00	 call	 _lua_getglobal

; 40   : 	void		PushNil()									{  lua_pushnil( m_pLuaState );  }

  0027f	ff 75 ec	 push	 DWORD PTR _lua$[ebp+4]
  00282	e8 00 00 00 00	 call	 _lua_pushnil

; 46   : 	int			TableLoop( int nStackPos )					{  return lua_next( m_pLuaState, nStackPos );  }	

  00287	6a fe		 push	 -2			; fffffffeH
  00289	ff 75 ec	 push	 DWORD PTR _lua$[ebp+4]
  0028c	e8 00 00 00 00	 call	 _lua_next
  00291	83 c4 14	 add	 esp, 20			; 00000014H
; File C:\IAGOS\server\v18\Source\Source\WorldServer\ItemUpgrade.cpp

; 151  : 	while( lua.TableLoop( -2 ) )

  00294	85 c0		 test	 eax, eax
  00296	0f 84 da 00 00
	00		 je	 $LN7@LoadScript
  0029c	8b 7d f0	 mov	 edi, DWORD PTR _this$1$[ebp]
  0029f	83 c7 30	 add	 edi, 48			; 00000030H
$LL6@LoadScript:
; File C:\IAGOS\server\v18\Source\Source\_Common\LuaBase.h

; 43   : 	double		ToNumber( int nStackPos )					{  return lua_tonumber( m_pLuaState, nStackPos );  }

  002a2	6a 00		 push	 0
  002a4	6a ff		 push	 -1
  002a6	ff 75 ec	 push	 DWORD PTR _lua$[ebp+4]
  002a9	e8 00 00 00 00	 call	 _lua_tonumberx
  002ae	6a 00		 push	 0
  002b0	6a fe		 push	 -2			; fffffffeH
  002b2	ff 75 ec	 push	 DWORD PTR _lua$[ebp+4]
  002b5	dd 5d d8	 fstp	 QWORD PTR tv2805[ebp]
  002b8	e8 00 00 00 00	 call	 _lua_tonumberx
; File C:\Program Files\Microsoft Visual Studio\2022\Professional\VC\Tools\MSVC\14.44.35207\include\utility

; 274  :         : first(_STD forward<_Other1>(_Val1)), second(_STD forward<_Other2>(_Val2)) {

  002bd	f2 0f 2c 45 d8	 cvttsd2si eax, QWORD PTR tv2805[ebp]
; File C:\IAGOS\server\v18\Source\Source\_Common\LuaBase.h

; 43   : 	double		ToNumber( int nStackPos )					{  return lua_tonumber( m_pLuaState, nStackPos );  }

  002c2	83 c4 18	 add	 esp, 24			; 00000018H
; File C:\Program Files\Microsoft Visual Studio\2022\Professional\VC\Tools\MSVC\14.44.35207\include\xtree

; 1017 :             _Loc                = _Find_lower_bound(_Keyval);

  002c5	8b cf		 mov	 ecx, edi
; File C:\IAGOS\server\v18\Source\Source\_Common\LuaBase.h

; 43   : 	double		ToNumber( int nStackPos )					{  return lua_tonumber( m_pLuaState, nStackPos );  }

  002c7	dd 5d d0	 fstp	 QWORD PTR tv2799[ebp]
; File C:\IAGOS\server\v18\Source\Source\WorldServer\ItemUpgrade.cpp

; 153  : 		m_mapPetMultiplicator.insert( make_pair( static_cast<int>(lua.ToNumber(-2)), static_cast<int>(lua.ToNumber(-1)) ) );

  002ca	f2 0f 2c 75 d0	 cvttsd2si esi, QWORD PTR tv2799[ebp]
; File C:\Program Files\Microsoft Visual Studio\2022\Professional\VC\Tools\MSVC\14.44.35207\include\utility

; 274  :         : first(_STD forward<_Other1>(_Val1)), second(_STD forward<_Other2>(_Val2)) {

  002cf	89 45 cc	 mov	 DWORD PTR $T14[ebp+4], eax
; File C:\Program Files\Microsoft Visual Studio\2022\Professional\VC\Tools\MSVC\14.44.35207\include\xtree

; 1017 :             _Loc                = _Find_lower_bound(_Keyval);

  002d2	8d 45 c8	 lea	 eax, DWORD PTR $T14[ebp]
  002d5	50		 push	 eax
  002d6	8d 45 b0	 lea	 eax, DWORD PTR $T6[ebp]
  002d9	50		 push	 eax
; File C:\Program Files\Microsoft Visual Studio\2022\Professional\VC\Tools\MSVC\14.44.35207\include\utility

; 274  :         : first(_STD forward<_Other1>(_Val1)), second(_STD forward<_Other2>(_Val2)) {

  002da	89 75 c8	 mov	 DWORD PTR $T14[ebp], esi
; File C:\Program Files\Microsoft Visual Studio\2022\Professional\VC\Tools\MSVC\14.44.35207\include\xtree

; 1017 :             _Loc                = _Find_lower_bound(_Keyval);

  002dd	e8 00 00 00 00	 call	 ??$_Find_lower_bound@H@?$_Tree@V?$_Tmap_traits@HHU?$less@H@std@@V?$allocator@U?$pair@$$CBHH@std@@@2@$0A@@std@@@std@@IBE?AU?$_Tree_find_result@PAU?$_Tree_node@U?$pair@$$CBHH@std@@PAX@std@@@1@ABH@Z ; std::_Tree<std::_Tmap_traits<int,int,std::less<int>,std::allocator<std::pair<int const ,int> >,0> >::_Find_lower_bound<int>
  002e2	f3 0f 7e 00	 movq	 xmm0, QWORD PTR [eax]
  002e6	8b 40 08	 mov	 eax, DWORD PTR [eax+8]
  002e9	66 0f d6 45 bc	 movq	 QWORD PTR __Loc$9[ebp], xmm0

; 1624 :         return !_Bound->_Isnil && !_DEBUG_LT_PRED(_Getcomp(), _Keyval, _Traits::_Kfn(_Bound->_Myval));

  002ee	80 78 0d 00	 cmp	 BYTE PTR [eax+13], 0
  002f2	75 05		 jne	 SHORT $LN394@LoadScript
; File C:\Program Files\Microsoft Visual Studio\2022\Professional\VC\Tools\MSVC\14.44.35207\include\type_traits

; 2380 :         return _Left < _Right;

  002f4	3b 70 10	 cmp	 esi, DWORD PTR [eax+16]
; File C:\Program Files\Microsoft Visual Studio\2022\Professional\VC\Tools\MSVC\14.44.35207\include\xtree

; 1624 :         return !_Bound->_Isnil && !_DEBUG_LT_PRED(_Getcomp(), _Keyval, _Traits::_Kfn(_Bound->_Myval));

  002f7	7d 5e		 jge	 SHORT $LN474@LoadScript
$LN394@LoadScript:

; 1648 :         if (max_size() == _Get_scary()->_Mysize) {

  002f9	81 7f 04 aa aa
	aa 0a		 cmp	 DWORD PTR [edi+4], 178956970 ; 0aaaaaaaH
  00300	0f 84 0d 03 00
	00		 je	 $LN639@LoadScript

; 1023 :             _Inserted = _Tree_temp_node<_Alnode>(_Getal(), _Scary->_Myhead, _STD forward<_Valtys>(_Vals)...)._Release();

  00306	8b 37		 mov	 esi, DWORD PTR [edi]
; File C:\Program Files\Microsoft Visual Studio\2022\Professional\VC\Tools\MSVC\14.44.35207\include\xmemory

; 1160 :     _CONSTEXPR20 explicit _Alloc_construct_ptr(_Alloc& _Al_) : _Al(_Al_), _Ptr(nullptr) {}

  00308	89 7d e0	 mov	 DWORD PTR $T21[ebp], edi

; 136  :         return ::operator new(_Bytes);

  0030b	6a 18		 push	 24			; 00000018H
; File C:\Program Files\Microsoft Visual Studio\2022\Professional\VC\Tools\MSVC\14.44.35207\include\xtree

; 808  :     explicit _Tree_temp_node_alloc(_Alnode& _Al_) : _Alloc_construct_ptr<_Alnode>(_Al_) {

  0030d	c6 45 fc 03	 mov	 BYTE PTR __$EHRec$[ebp+8], 3
; File C:\Program Files\Microsoft Visual Studio\2022\Professional\VC\Tools\MSVC\14.44.35207\include\xmemory

; 1167 :         _Ptr = nullptr; // if allocate throws, prevents double-free

  00311	c7 45 e4 00 00
	00 00		 mov	 DWORD PTR $T21[ebp+4], 0

; 136  :         return ::operator new(_Bytes);

  00318	e8 00 00 00 00	 call	 ??2@YAPAXI@Z		; operator new
; File C:\Program Files\Microsoft Visual Studio\2022\Professional\VC\Tools\MSVC\14.44.35207\include\utility

; 303  :         : first(_STD forward<_Other1>(_Right.first)), second(_STD forward<_Other2>(_Right.second)) {}

  0031d	f2 0f 2c 4d d0	 cvttsd2si ecx, QWORD PTR tv2799[ebp]
; File C:\Program Files\Microsoft Visual Studio\2022\Professional\VC\Tools\MSVC\14.44.35207\include\xmemory

; 136  :         return ::operator new(_Bytes);

  00322	83 c4 04	 add	 esp, 4
; File C:\Program Files\Microsoft Visual Studio\2022\Professional\VC\Tools\MSVC\14.44.35207\include\xtree

; 810  :     }

  00325	c6 45 fc 00	 mov	 BYTE PTR __$EHRec$[ebp+8], 0
; File C:\Program Files\Microsoft Visual Studio\2022\Professional\VC\Tools\MSVC\14.44.35207\include\utility

; 774  :     _Val         = static_cast<_Other&&>(_New_val);

  00329	c7 45 e4 00 00
	00 00		 mov	 DWORD PTR $T21[ebp+4], 0
; File C:\Program Files\Microsoft Visual Studio\2022\Professional\VC\Tools\MSVC\14.44.35207\include\xtree

; 1042 :         return {_Scary->_Insert_node(_Loc._Location, _Inserted), true};

  00330	50		 push	 eax
  00331	ff 75 c0	 push	 DWORD PTR __Loc$9[ebp+4]
; File C:\Program Files\Microsoft Visual Studio\2022\Professional\VC\Tools\MSVC\14.44.35207\include\utility

; 303  :         : first(_STD forward<_Other1>(_Right.first)), second(_STD forward<_Other2>(_Right.second)) {}

  00334	89 48 10	 mov	 DWORD PTR [eax+16], ecx
  00337	f2 0f 2c 4d d8	 cvttsd2si ecx, QWORD PTR tv2805[ebp]
; File C:\Program Files\Microsoft Visual Studio\2022\Professional\VC\Tools\MSVC\14.44.35207\include\xtree

; 1042 :         return {_Scary->_Insert_node(_Loc._Location, _Inserted), true};

  0033c	ff 75 bc	 push	 DWORD PTR __Loc$9[ebp]
; File C:\Program Files\Microsoft Visual Studio\2022\Professional\VC\Tools\MSVC\14.44.35207\include\utility

; 303  :         : first(_STD forward<_Other1>(_Right.first)), second(_STD forward<_Other2>(_Right.second)) {}

  0033f	89 48 14	 mov	 DWORD PTR [eax+20], ecx
; File C:\Program Files\Microsoft Visual Studio\2022\Professional\VC\Tools\MSVC\14.44.35207\include\xtree

; 1042 :         return {_Scary->_Insert_node(_Loc._Location, _Inserted), true};

  00342	8b cf		 mov	 ecx, edi

; 831  :         _Construct_in_place(this->_Ptr->_Left, _Myhead);

  00344	89 30		 mov	 DWORD PTR [eax], esi

; 832  :         _Construct_in_place(this->_Ptr->_Parent, _Myhead);

  00346	89 70 04	 mov	 DWORD PTR [eax+4], esi

; 833  :         _Construct_in_place(this->_Ptr->_Right, _Myhead);

  00349	89 70 08	 mov	 DWORD PTR [eax+8], esi

; 834  :         this->_Ptr->_Color = _Red;

  0034c	66 c7 40 0c 00
	00		 mov	 WORD PTR [eax+12], 0

; 1042 :         return {_Scary->_Insert_node(_Loc._Location, _Inserted), true};

  00352	e8 00 00 00 00	 call	 ?_Insert_node@?$_Tree_val@U?$_Tree_simple_types@U?$pair@$$CBHH@std@@@std@@@std@@QAEPAU?$_Tree_node@U?$pair@$$CBHH@std@@PAX@2@U?$_Tree_id@PAU?$_Tree_node@U?$pair@$$CBHH@std@@PAX@std@@@2@QAU32@@Z ; std::_Tree_val<std::_Tree_simple_types<std::pair<int const ,int> > >::_Insert_node
$LN474@LoadScript:
; File C:\IAGOS\server\v18\Source\Source\WorldServer\ItemUpgrade.cpp

; 154  : 		lua.Pop( 1 );

  00357	6a 01		 push	 1
  00359	8d 4d e8	 lea	 ecx, DWORD PTR _lua$[ebp]
  0035c	e8 00 00 00 00	 call	 ?Pop@CLuaBase@@QAEXH@Z	; CLuaBase::Pop
; File C:\IAGOS\server\v18\Source\Source\_Common\LuaBase.h

; 46   : 	int			TableLoop( int nStackPos )					{  return lua_next( m_pLuaState, nStackPos );  }	

  00361	6a fe		 push	 -2			; fffffffeH
  00363	ff 75 ec	 push	 DWORD PTR _lua$[ebp+4]
  00366	e8 00 00 00 00	 call	 _lua_next
  0036b	83 c4 08	 add	 esp, 8
; File C:\IAGOS\server\v18\Source\Source\WorldServer\ItemUpgrade.cpp

; 151  : 	while( lua.TableLoop( -2 ) )

  0036e	85 c0		 test	 eax, eax
  00370	0f 85 2c ff ff
	ff		 jne	 $LL6@LoadScript
$LN7@LoadScript:

; 155  : 	}
; 156  : 	lua.Pop(0);

  00376	6a 00		 push	 0
  00378	8d 4d e8	 lea	 ecx, DWORD PTR _lua$[ebp]
  0037b	e8 00 00 00 00	 call	 ?Pop@CLuaBase@@QAEXH@Z	; CLuaBase::Pop
; File C:\IAGOS\server\v18\Source\Source\_Common\LuaBase.h

; 47   : 	void		GetGloabal( char* szName )					{  lua_getglobal( m_pLuaState, szName );  }

  00380	68 00 00 00 00	 push	 OFFSET ??_C@_0BI@CGEHICCE@tBarunaNeedFailForPetUp@
  00385	ff 75 ec	 push	 DWORD PTR _lua$[ebp+4]
  00388	e8 00 00 00 00	 call	 _lua_getglobal

; 40   : 	void		PushNil()									{  lua_pushnil( m_pLuaState );  }

  0038d	ff 75 ec	 push	 DWORD PTR _lua$[ebp+4]
  00390	e8 00 00 00 00	 call	 _lua_pushnil

; 46   : 	int			TableLoop( int nStackPos )					{  return lua_next( m_pLuaState, nStackPos );  }	

  00395	6a fe		 push	 -2			; fffffffeH
  00397	ff 75 ec	 push	 DWORD PTR _lua$[ebp+4]
  0039a	e8 00 00 00 00	 call	 _lua_next
  0039f	83 c4 14	 add	 esp, 20			; 00000014H
; File C:\IAGOS\server\v18\Source\Source\WorldServer\ItemUpgrade.cpp

; 159  : 	while( lua.TableLoop( -2 ) )

  003a2	85 c0		 test	 eax, eax
  003a4	0f 84 da 00 00
	00		 je	 $LN9@LoadScript
  003aa	8b 7d f0	 mov	 edi, DWORD PTR _this$1$[ebp]
  003ad	83 c7 38	 add	 edi, 56			; 00000038H
$LL8@LoadScript:
; File C:\IAGOS\server\v18\Source\Source\_Common\LuaBase.h

; 43   : 	double		ToNumber( int nStackPos )					{  return lua_tonumber( m_pLuaState, nStackPos );  }

  003b0	6a 00		 push	 0
  003b2	6a ff		 push	 -1
  003b4	ff 75 ec	 push	 DWORD PTR _lua$[ebp+4]
  003b7	e8 00 00 00 00	 call	 _lua_tonumberx
  003bc	6a 00		 push	 0
  003be	6a fe		 push	 -2			; fffffffeH
  003c0	ff 75 ec	 push	 DWORD PTR _lua$[ebp+4]
  003c3	dd 5d d8	 fstp	 QWORD PTR tv2776[ebp]
  003c6	e8 00 00 00 00	 call	 _lua_tonumberx
; File C:\Program Files\Microsoft Visual Studio\2022\Professional\VC\Tools\MSVC\14.44.35207\include\utility

; 274  :         : first(_STD forward<_Other1>(_Val1)), second(_STD forward<_Other2>(_Val2)) {

  003cb	f2 0f 2c 45 d8	 cvttsd2si eax, QWORD PTR tv2776[ebp]
; File C:\IAGOS\server\v18\Source\Source\_Common\LuaBase.h

; 43   : 	double		ToNumber( int nStackPos )					{  return lua_tonumber( m_pLuaState, nStackPos );  }

  003d0	83 c4 18	 add	 esp, 24			; 00000018H
; File C:\Program Files\Microsoft Visual Studio\2022\Professional\VC\Tools\MSVC\14.44.35207\include\xtree

; 1017 :             _Loc                = _Find_lower_bound(_Keyval);

  003d3	8b cf		 mov	 ecx, edi
; File C:\IAGOS\server\v18\Source\Source\_Common\LuaBase.h

; 43   : 	double		ToNumber( int nStackPos )					{  return lua_tonumber( m_pLuaState, nStackPos );  }

  003d5	dd 5d d0	 fstp	 QWORD PTR tv2770[ebp]
; File C:\IAGOS\server\v18\Source\Source\WorldServer\ItemUpgrade.cpp

; 161  : 		m_mapPetFailForLevel.insert( make_pair( static_cast<int>(lua.ToNumber(-2)), static_cast<int>(lua.ToNumber(-1)) ) );

  003d8	f2 0f 2c 75 d0	 cvttsd2si esi, QWORD PTR tv2770[ebp]
; File C:\Program Files\Microsoft Visual Studio\2022\Professional\VC\Tools\MSVC\14.44.35207\include\utility

; 274  :         : first(_STD forward<_Other1>(_Val1)), second(_STD forward<_Other2>(_Val2)) {

  003dd	89 45 cc	 mov	 DWORD PTR $T15[ebp+4], eax
; File C:\Program Files\Microsoft Visual Studio\2022\Professional\VC\Tools\MSVC\14.44.35207\include\xtree

; 1017 :             _Loc                = _Find_lower_bound(_Keyval);

  003e0	8d 45 c8	 lea	 eax, DWORD PTR $T15[ebp]
  003e3	50		 push	 eax
  003e4	8d 45 b0	 lea	 eax, DWORD PTR $T8[ebp]
  003e7	50		 push	 eax
; File C:\Program Files\Microsoft Visual Studio\2022\Professional\VC\Tools\MSVC\14.44.35207\include\utility

; 274  :         : first(_STD forward<_Other1>(_Val1)), second(_STD forward<_Other2>(_Val2)) {

  003e8	89 75 c8	 mov	 DWORD PTR $T15[ebp], esi
; File C:\Program Files\Microsoft Visual Studio\2022\Professional\VC\Tools\MSVC\14.44.35207\include\xtree

; 1017 :             _Loc                = _Find_lower_bound(_Keyval);

  003eb	e8 00 00 00 00	 call	 ??$_Find_lower_bound@H@?$_Tree@V?$_Tmap_traits@HHU?$less@H@std@@V?$allocator@U?$pair@$$CBHH@std@@@2@$0A@@std@@@std@@IBE?AU?$_Tree_find_result@PAU?$_Tree_node@U?$pair@$$CBHH@std@@PAX@std@@@1@ABH@Z ; std::_Tree<std::_Tmap_traits<int,int,std::less<int>,std::allocator<std::pair<int const ,int> >,0> >::_Find_lower_bound<int>
  003f0	f3 0f 7e 00	 movq	 xmm0, QWORD PTR [eax]
  003f4	8b 40 08	 mov	 eax, DWORD PTR [eax+8]
  003f7	66 0f d6 45 bc	 movq	 QWORD PTR __Loc$12[ebp], xmm0

; 1624 :         return !_Bound->_Isnil && !_DEBUG_LT_PRED(_Getcomp(), _Keyval, _Traits::_Kfn(_Bound->_Myval));

  003fc	80 78 0d 00	 cmp	 BYTE PTR [eax+13], 0
  00400	75 05		 jne	 SHORT $LN510@LoadScript
; File C:\Program Files\Microsoft Visual Studio\2022\Professional\VC\Tools\MSVC\14.44.35207\include\type_traits

; 2380 :         return _Left < _Right;

  00402	3b 70 10	 cmp	 esi, DWORD PTR [eax+16]
; File C:\Program Files\Microsoft Visual Studio\2022\Professional\VC\Tools\MSVC\14.44.35207\include\xtree

; 1624 :         return !_Bound->_Isnil && !_DEBUG_LT_PRED(_Getcomp(), _Keyval, _Traits::_Kfn(_Bound->_Myval));

  00405	7d 5e		 jge	 SHORT $LN590@LoadScript
$LN510@LoadScript:

; 1648 :         if (max_size() == _Get_scary()->_Mysize) {

  00407	81 7f 04 aa aa
	aa 0a		 cmp	 DWORD PTR [edi+4], 178956970 ; 0aaaaaaaH
  0040e	0f 84 ff 01 00
	00		 je	 $LN639@LoadScript

; 1023 :             _Inserted = _Tree_temp_node<_Alnode>(_Getal(), _Scary->_Myhead, _STD forward<_Valtys>(_Vals)...)._Release();

  00414	8b 37		 mov	 esi, DWORD PTR [edi]
; File C:\Program Files\Microsoft Visual Studio\2022\Professional\VC\Tools\MSVC\14.44.35207\include\xmemory

; 1160 :     _CONSTEXPR20 explicit _Alloc_construct_ptr(_Alloc& _Al_) : _Al(_Al_), _Ptr(nullptr) {}

  00416	89 7d e0	 mov	 DWORD PTR $T20[ebp], edi

; 136  :         return ::operator new(_Bytes);

  00419	6a 18		 push	 24			; 00000018H
; File C:\Program Files\Microsoft Visual Studio\2022\Professional\VC\Tools\MSVC\14.44.35207\include\xtree

; 808  :     explicit _Tree_temp_node_alloc(_Alnode& _Al_) : _Alloc_construct_ptr<_Alnode>(_Al_) {

  0041b	c6 45 fc 04	 mov	 BYTE PTR __$EHRec$[ebp+8], 4
; File C:\Program Files\Microsoft Visual Studio\2022\Professional\VC\Tools\MSVC\14.44.35207\include\xmemory

; 1167 :         _Ptr = nullptr; // if allocate throws, prevents double-free

  0041f	c7 45 e4 00 00
	00 00		 mov	 DWORD PTR $T20[ebp+4], 0

; 136  :         return ::operator new(_Bytes);

  00426	e8 00 00 00 00	 call	 ??2@YAPAXI@Z		; operator new
; File C:\Program Files\Microsoft Visual Studio\2022\Professional\VC\Tools\MSVC\14.44.35207\include\utility

; 303  :         : first(_STD forward<_Other1>(_Right.first)), second(_STD forward<_Other2>(_Right.second)) {}

  0042b	f2 0f 2c 4d d0	 cvttsd2si ecx, QWORD PTR tv2770[ebp]
; File C:\Program Files\Microsoft Visual Studio\2022\Professional\VC\Tools\MSVC\14.44.35207\include\xmemory

; 136  :         return ::operator new(_Bytes);

  00430	83 c4 04	 add	 esp, 4
; File C:\Program Files\Microsoft Visual Studio\2022\Professional\VC\Tools\MSVC\14.44.35207\include\xtree

; 810  :     }

  00433	c6 45 fc 00	 mov	 BYTE PTR __$EHRec$[ebp+8], 0
; File C:\Program Files\Microsoft Visual Studio\2022\Professional\VC\Tools\MSVC\14.44.35207\include\utility

; 774  :     _Val         = static_cast<_Other&&>(_New_val);

  00437	c7 45 e4 00 00
	00 00		 mov	 DWORD PTR $T20[ebp+4], 0
; File C:\Program Files\Microsoft Visual Studio\2022\Professional\VC\Tools\MSVC\14.44.35207\include\xtree

; 1042 :         return {_Scary->_Insert_node(_Loc._Location, _Inserted), true};

  0043e	50		 push	 eax
  0043f	ff 75 c0	 push	 DWORD PTR __Loc$12[ebp+4]
; File C:\Program Files\Microsoft Visual Studio\2022\Professional\VC\Tools\MSVC\14.44.35207\include\utility

; 303  :         : first(_STD forward<_Other1>(_Right.first)), second(_STD forward<_Other2>(_Right.second)) {}

  00442	89 48 10	 mov	 DWORD PTR [eax+16], ecx
  00445	f2 0f 2c 4d d8	 cvttsd2si ecx, QWORD PTR tv2776[ebp]
; File C:\Program Files\Microsoft Visual Studio\2022\Professional\VC\Tools\MSVC\14.44.35207\include\xtree

; 1042 :         return {_Scary->_Insert_node(_Loc._Location, _Inserted), true};

  0044a	ff 75 bc	 push	 DWORD PTR __Loc$12[ebp]
; File C:\Program Files\Microsoft Visual Studio\2022\Professional\VC\Tools\MSVC\14.44.35207\include\utility

; 303  :         : first(_STD forward<_Other1>(_Right.first)), second(_STD forward<_Other2>(_Right.second)) {}

  0044d	89 48 14	 mov	 DWORD PTR [eax+20], ecx
; File C:\Program Files\Microsoft Visual Studio\2022\Professional\VC\Tools\MSVC\14.44.35207\include\xtree

; 1042 :         return {_Scary->_Insert_node(_Loc._Location, _Inserted), true};

  00450	8b cf		 mov	 ecx, edi

; 831  :         _Construct_in_place(this->_Ptr->_Left, _Myhead);

  00452	89 30		 mov	 DWORD PTR [eax], esi

; 832  :         _Construct_in_place(this->_Ptr->_Parent, _Myhead);

  00454	89 70 04	 mov	 DWORD PTR [eax+4], esi

; 833  :         _Construct_in_place(this->_Ptr->_Right, _Myhead);

  00457	89 70 08	 mov	 DWORD PTR [eax+8], esi

; 834  :         this->_Ptr->_Color = _Red;

  0045a	66 c7 40 0c 00
	00		 mov	 WORD PTR [eax+12], 0

; 1042 :         return {_Scary->_Insert_node(_Loc._Location, _Inserted), true};

  00460	e8 00 00 00 00	 call	 ?_Insert_node@?$_Tree_val@U?$_Tree_simple_types@U?$pair@$$CBHH@std@@@std@@@std@@QAEPAU?$_Tree_node@U?$pair@$$CBHH@std@@PAX@2@U?$_Tree_id@PAU?$_Tree_node@U?$pair@$$CBHH@std@@PAX@std@@@2@QAU32@@Z ; std::_Tree_val<std::_Tree_simple_types<std::pair<int const ,int> > >::_Insert_node
$LN590@LoadScript:
; File C:\IAGOS\server\v18\Source\Source\WorldServer\ItemUpgrade.cpp

; 162  : 		lua.Pop( 1 );

  00465	6a 01		 push	 1
  00467	8d 4d e8	 lea	 ecx, DWORD PTR _lua$[ebp]
  0046a	e8 00 00 00 00	 call	 ?Pop@CLuaBase@@QAEXH@Z	; CLuaBase::Pop
; File C:\IAGOS\server\v18\Source\Source\_Common\LuaBase.h

; 46   : 	int			TableLoop( int nStackPos )					{  return lua_next( m_pLuaState, nStackPos );  }	

  0046f	6a fe		 push	 -2			; fffffffeH
  00471	ff 75 ec	 push	 DWORD PTR _lua$[ebp+4]
  00474	e8 00 00 00 00	 call	 _lua_next
  00479	83 c4 08	 add	 esp, 8
; File C:\IAGOS\server\v18\Source\Source\WorldServer\ItemUpgrade.cpp

; 159  : 	while( lua.TableLoop( -2 ) )

  0047c	85 c0		 test	 eax, eax
  0047e	0f 85 2c ff ff
	ff		 jne	 $LL8@LoadScript
$LN9@LoadScript:

; 163  : 	}
; 164  : 	lua.Pop(0);

  00484	6a 00		 push	 0
  00486	8d 4d e8	 lea	 ecx, DWORD PTR _lua$[ebp]
  00489	e8 00 00 00 00	 call	 ?Pop@CLuaBase@@QAEXH@Z	; CLuaBase::Pop
; File C:\IAGOS\server\v18\Source\Source\_Common\LuaBase.h

; 47   : 	void		GetGloabal( char* szName )					{  lua_getglobal( m_pLuaState, szName );  }

  0048e	68 00 00 00 00	 push	 OFFSET ??_C@_0BA@CHPGJKHE@tBarunaChaosGem@
  00493	ff 75 ec	 push	 DWORD PTR _lua$[ebp+4]
  00496	e8 00 00 00 00	 call	 _lua_getglobal

; 40   : 	void		PushNil()									{  lua_pushnil( m_pLuaState );  }

  0049b	ff 75 ec	 push	 DWORD PTR _lua$[ebp+4]
  0049e	e8 00 00 00 00	 call	 _lua_pushnil

; 46   : 	int			TableLoop( int nStackPos )					{  return lua_next( m_pLuaState, nStackPos );  }	

  004a3	6a fe		 push	 -2			; fffffffeH
  004a5	ff 75 ec	 push	 DWORD PTR _lua$[ebp+4]
  004a8	e8 00 00 00 00	 call	 _lua_next
  004ad	83 c4 14	 add	 esp, 20			; 00000014H
; File C:\IAGOS\server\v18\Source\Source\WorldServer\ItemUpgrade.cpp

; 167  :  	while( lua.TableLoop( -2 ) )

  004b0	85 c0		 test	 eax, eax
  004b2	0f 84 38 01 00
	00		 je	 $LN11@LoadScript
  004b8	0f 1f 84 00 00
	00 00 00	 npad	 8
$LL10@LoadScript:

; 168  :  	{
; 169  :  		__CHAOS_GEM chaoGem;
; 170  : 		chaoGem.nChaosGemAmount = static_cast<int>(lua.GetFieldToNumber( -1, "nChaosGemAmount" ));

  004c0	68 00 00 00 00	 push	 OFFSET ??_C@_0BA@LJBFGODG@nChaosGemAmount@
  004c5	6a ff		 push	 -1
  004c7	8d 4d e8	 lea	 ecx, DWORD PTR _lua$[ebp]
  004ca	e8 00 00 00 00	 call	 ?GetFieldToNumber@CLuaBase@@QAENHPAD@Z ; CLuaBase::GetFieldToNumber

; 171  : 		chaoGem.nChaosGemChance = static_cast<int>(lua.GetFieldToNumber( -1, "nChaosGemChance" ));

  004cf	68 00 00 00 00	 push	 OFFSET ??_C@_0BA@BNGODABA@nChaosGemChance@
  004d4	dd 5d d8	 fstp	 QWORD PTR tv2748[ebp]
  004d7	6a ff		 push	 -1
  004d9	8d 4d e8	 lea	 ecx, DWORD PTR _lua$[ebp]
  004dc	e8 00 00 00 00	 call	 ?GetFieldToNumber@CLuaBase@@QAENHPAD@Z ; CLuaBase::GetFieldToNumber

; 172  : 		chaoGem.nChaosPieceAmount = static_cast<int>(lua.GetFieldToNumber( -1, "nChaosPieceAmount" ));

  004e1	68 00 00 00 00	 push	 OFFSET ??_C@_0BC@MBHINFNF@nChaosPieceAmount@
  004e6	dd 5d c0	 fstp	 QWORD PTR tv2743[ebp]
  004e9	6a ff		 push	 -1
  004eb	8d 4d e8	 lea	 ecx, DWORD PTR _lua$[ebp]
  004ee	e8 00 00 00 00	 call	 ?GetFieldToNumber@CLuaBase@@QAENHPAD@Z ; CLuaBase::GetFieldToNumber

; 173  : 		chaoGem.nChaosPieceChance = static_cast<int>(lua.GetFieldToNumber( -1, "nChaosPieceChance" ));

  004f3	68 00 00 00 00	 push	 OFFSET ??_C@_0BC@GFADILPD@nChaosPieceChance@
  004f8	dd 5d d0	 fstp	 QWORD PTR tv2739[ebp]
  004fb	f2 0f 2c 7d d0	 cvttsd2si edi, QWORD PTR tv2739[ebp]
  00500	6a ff		 push	 -1
  00502	8d 4d e8	 lea	 ecx, DWORD PTR _lua$[ebp]
  00505	e8 00 00 00 00	 call	 ?GetFieldToNumber@CLuaBase@@QAENHPAD@Z ; CLuaBase::GetFieldToNumber
; File C:\IAGOS\server\v18\Source\Source\_Common\LuaBase.h

; 43   : 	double		ToNumber( int nStackPos )					{  return lua_tonumber( m_pLuaState, nStackPos );  }

  0050a	6a 00		 push	 0
  0050c	6a fe		 push	 -2			; fffffffeH
  0050e	ff 75 ec	 push	 DWORD PTR _lua$[ebp+4]
; File C:\IAGOS\server\v18\Source\Source\WorldServer\ItemUpgrade.cpp

; 173  : 		chaoGem.nChaosPieceChance = static_cast<int>(lua.GetFieldToNumber( -1, "nChaosPieceChance" ));

  00511	dd 5d d0	 fstp	 QWORD PTR tv2735[ebp]
  00514	f2 0f 2c 75 d0	 cvttsd2si esi, QWORD PTR tv2735[ebp]
; File C:\IAGOS\server\v18\Source\Source\_Common\LuaBase.h

; 43   : 	double		ToNumber( int nStackPos )					{  return lua_tonumber( m_pLuaState, nStackPos );  }

  00519	e8 00 00 00 00	 call	 _lua_tonumberx
  0051e	83 c4 0c	 add	 esp, 12			; 0000000cH
; File C:\Program Files\Microsoft Visual Studio\2022\Professional\VC\Tools\MSVC\14.44.35207\include\utility

; 274  :         : first(_STD forward<_Other1>(_Val1)), second(_STD forward<_Other2>(_Val2)) {

  00521	89 7d 9c	 mov	 DWORD PTR $T2[ebp+12], edi
; File C:\Program Files\Microsoft Visual Studio\2022\Professional\VC\Tools\MSVC\14.44.35207\include\xtree

; 1017 :             _Loc                = _Find_lower_bound(_Keyval);

  00524	8b 7d f0	 mov	 edi, DWORD PTR _this$1$[ebp]
  00527	83 c7 28	 add	 edi, 40			; 00000028H
; File C:\Program Files\Microsoft Visual Studio\2022\Professional\VC\Tools\MSVC\14.44.35207\include\utility

; 274  :         : first(_STD forward<_Other1>(_Val1)), second(_STD forward<_Other2>(_Val2)) {

  0052a	89 75 a0	 mov	 DWORD PTR $T2[ebp+16], esi
; File C:\Program Files\Microsoft Visual Studio\2022\Professional\VC\Tools\MSVC\14.44.35207\include\xtree

; 1017 :             _Loc                = _Find_lower_bound(_Keyval);

  0052d	8b cf		 mov	 ecx, edi
; File C:\IAGOS\server\v18\Source\Source\_Common\LuaBase.h

; 43   : 	double		ToNumber( int nStackPos )					{  return lua_tonumber( m_pLuaState, nStackPos );  }

  0052f	dd 5d e0	 fstp	 QWORD PTR tv2731[ebp]
; File C:\IAGOS\server\v18\Source\Source\WorldServer\ItemUpgrade.cpp

; 175  : 		m_mapChaosGemTable.insert( make_pair( static_cast<int>(lua.ToNumber(-2)), chaoGem ) );  

  00532	f2 0f 2c 45 e0	 cvttsd2si eax, QWORD PTR tv2731[ebp]
; File C:\Program Files\Microsoft Visual Studio\2022\Professional\VC\Tools\MSVC\14.44.35207\include\utility

; 274  :         : first(_STD forward<_Other1>(_Val1)), second(_STD forward<_Other2>(_Val2)) {

  00537	89 45 90	 mov	 DWORD PTR $T2[ebp], eax
  0053a	f2 0f 2c 45 d8	 cvttsd2si eax, QWORD PTR tv2748[ebp]
  0053f	89 45 94	 mov	 DWORD PTR $T2[ebp+4], eax
  00542	f2 0f 2c 45 c0	 cvttsd2si eax, QWORD PTR tv2743[ebp]
  00547	89 45 98	 mov	 DWORD PTR $T2[ebp+8], eax
; File C:\Program Files\Microsoft Visual Studio\2022\Professional\VC\Tools\MSVC\14.44.35207\include\xtree

; 1017 :             _Loc                = _Find_lower_bound(_Keyval);

  0054a	8d 45 90	 lea	 eax, DWORD PTR $T2[ebp]
  0054d	50		 push	 eax
  0054e	8d 45 a4	 lea	 eax, DWORD PTR $T3[ebp]
  00551	50		 push	 eax
  00552	e8 00 00 00 00	 call	 ??$_Find_lower_bound@H@?$_Tree@V?$_Tmap_traits@HU__CHAOS_GEM@@U?$less@H@std@@V?$allocator@U?$pair@$$CBHU__CHAOS_GEM@@@std@@@3@$0A@@std@@@std@@IBE?AU?$_Tree_find_result@PAU?$_Tree_node@U?$pair@$$CBHU__CHAOS_GEM@@@std@@PAX@std@@@1@ABH@Z ; std::_Tree<std::_Tmap_traits<int,__CHAOS_GEM,std::less<int>,std::allocator<std::pair<int const ,__CHAOS_GEM> >,0> >::_Find_lower_bound<int>
  00557	8b 48 08	 mov	 ecx, DWORD PTR [eax+8]
  0055a	f3 0f 7e 00	 movq	 xmm0, QWORD PTR [eax]
  0055e	66 0f d6 45 b0	 movq	 QWORD PTR __Loc$7[ebp], xmm0

; 1624 :         return !_Bound->_Isnil && !_DEBUG_LT_PRED(_Getcomp(), _Keyval, _Traits::_Kfn(_Bound->_Myval));

  00563	80 79 0d 00	 cmp	 BYTE PTR [ecx+13], 0
  00567	75 0a		 jne	 SHORT $LN666@LoadScript
; File C:\Program Files\Microsoft Visual Studio\2022\Professional\VC\Tools\MSVC\14.44.35207\include\type_traits

; 2380 :         return _Left < _Right;

  00569	f2 0f 2c 45 e0	 cvttsd2si eax, QWORD PTR tv2731[ebp]
  0056e	3b 41 10	 cmp	 eax, DWORD PTR [ecx+16]
; File C:\Program Files\Microsoft Visual Studio\2022\Professional\VC\Tools\MSVC\14.44.35207\include\xtree

; 1624 :         return !_Bound->_Isnil && !_DEBUG_LT_PRED(_Getcomp(), _Keyval, _Traits::_Kfn(_Bound->_Myval));

  00571	7d 5e		 jge	 SHORT $LN360@LoadScript
$LN666@LoadScript:

; 1648 :         if (max_size() == _Get_scary()->_Mysize) {

  00573	81 7f 04 c7 71
	1c 07		 cmp	 DWORD PTR [edi+4], 119304647 ; 071c71c7H
  0057a	0f 84 93 00 00
	00		 je	 $LN639@LoadScript

; 1023 :             _Inserted = _Tree_temp_node<_Alnode>(_Getal(), _Scary->_Myhead, _STD forward<_Valtys>(_Vals)...)._Release();

  00580	8b 37		 mov	 esi, DWORD PTR [edi]
; File C:\Program Files\Microsoft Visual Studio\2022\Professional\VC\Tools\MSVC\14.44.35207\include\xmemory

; 1160 :     _CONSTEXPR20 explicit _Alloc_construct_ptr(_Alloc& _Al_) : _Al(_Al_), _Ptr(nullptr) {}

  00582	89 7d c8	 mov	 DWORD PTR $T17[ebp], edi

; 136  :         return ::operator new(_Bytes);

  00585	6a 24		 push	 36			; 00000024H
; File C:\Program Files\Microsoft Visual Studio\2022\Professional\VC\Tools\MSVC\14.44.35207\include\xtree

; 808  :     explicit _Tree_temp_node_alloc(_Alnode& _Al_) : _Alloc_construct_ptr<_Alnode>(_Al_) {

  00587	c6 45 fc 05	 mov	 BYTE PTR __$EHRec$[ebp+8], 5
; File C:\Program Files\Microsoft Visual Studio\2022\Professional\VC\Tools\MSVC\14.44.35207\include\xmemory

; 1167 :         _Ptr = nullptr; // if allocate throws, prevents double-free

  0058b	c7 45 cc 00 00
	00 00		 mov	 DWORD PTR $T17[ebp+4], 0

; 136  :         return ::operator new(_Bytes);

  00592	e8 00 00 00 00	 call	 ??2@YAPAXI@Z		; operator new
; File C:\Program Files\Microsoft Visual Studio\2022\Professional\VC\Tools\MSVC\14.44.35207\include\utility

; 303  :         : first(_STD forward<_Other1>(_Right.first)), second(_STD forward<_Other2>(_Right.second)) {}

  00597	f2 0f 2c 4d e0	 cvttsd2si ecx, QWORD PTR tv2731[ebp]
; File C:\Program Files\Microsoft Visual Studio\2022\Professional\VC\Tools\MSVC\14.44.35207\include\xmemory

; 136  :         return ::operator new(_Bytes);

  0059c	83 c4 04	 add	 esp, 4
; File C:\Program Files\Microsoft Visual Studio\2022\Professional\VC\Tools\MSVC\14.44.35207\include\xtree

; 810  :     }

  0059f	c6 45 fc 00	 mov	 BYTE PTR __$EHRec$[ebp+8], 0
; File C:\Program Files\Microsoft Visual Studio\2022\Professional\VC\Tools\MSVC\14.44.35207\include\utility

; 774  :     _Val         = static_cast<_Other&&>(_New_val);

  005a3	c7 45 cc 00 00
	00 00		 mov	 DWORD PTR $T17[ebp+4], 0
; File C:\Program Files\Microsoft Visual Studio\2022\Professional\VC\Tools\MSVC\14.44.35207\include\xtree

; 1042 :         return {_Scary->_Insert_node(_Loc._Location, _Inserted), true};

  005aa	50		 push	 eax
; File C:\Program Files\Microsoft Visual Studio\2022\Professional\VC\Tools\MSVC\14.44.35207\include\utility

; 303  :         : first(_STD forward<_Other1>(_Right.first)), second(_STD forward<_Other2>(_Right.second)) {}

  005ab	0f 10 45 94	 movups	 xmm0, XMMWORD PTR $T2[ebp+4]
  005af	89 48 10	 mov	 DWORD PTR [eax+16], ecx
; File C:\Program Files\Microsoft Visual Studio\2022\Professional\VC\Tools\MSVC\14.44.35207\include\xtree

; 1042 :         return {_Scary->_Insert_node(_Loc._Location, _Inserted), true};

  005b2	8b cf		 mov	 ecx, edi
  005b4	ff 75 b4	 push	 DWORD PTR __Loc$7[ebp+4]
; File C:\Program Files\Microsoft Visual Studio\2022\Professional\VC\Tools\MSVC\14.44.35207\include\utility

; 303  :         : first(_STD forward<_Other1>(_Right.first)), second(_STD forward<_Other2>(_Right.second)) {}

  005b7	0f 11 40 14	 movups	 XMMWORD PTR [eax+20], xmm0
; File C:\Program Files\Microsoft Visual Studio\2022\Professional\VC\Tools\MSVC\14.44.35207\include\xtree

; 831  :         _Construct_in_place(this->_Ptr->_Left, _Myhead);

  005bb	89 30		 mov	 DWORD PTR [eax], esi

; 1042 :         return {_Scary->_Insert_node(_Loc._Location, _Inserted), true};

  005bd	ff 75 b0	 push	 DWORD PTR __Loc$7[ebp]

; 832  :         _Construct_in_place(this->_Ptr->_Parent, _Myhead);

  005c0	89 70 04	 mov	 DWORD PTR [eax+4], esi

; 833  :         _Construct_in_place(this->_Ptr->_Right, _Myhead);

  005c3	89 70 08	 mov	 DWORD PTR [eax+8], esi

; 834  :         this->_Ptr->_Color = _Red;

  005c6	66 c7 40 0c 00
	00		 mov	 WORD PTR [eax+12], 0

; 1042 :         return {_Scary->_Insert_node(_Loc._Location, _Inserted), true};

  005cc	e8 00 00 00 00	 call	 ?_Insert_node@?$_Tree_val@U?$_Tree_simple_types@U?$pair@$$CBHU__CHAOS_GEM@@@std@@@std@@@std@@QAEPAU?$_Tree_node@U?$pair@$$CBHU__CHAOS_GEM@@@std@@PAX@2@U?$_Tree_id@PAU?$_Tree_node@U?$pair@$$CBHU__CHAOS_GEM@@@std@@PAX@std@@@2@QAU32@@Z ; std::_Tree_val<std::_Tree_simple_types<std::pair<int const ,__CHAOS_GEM> > >::_Insert_node
$LN360@LoadScript:
; File C:\IAGOS\server\v18\Source\Source\WorldServer\ItemUpgrade.cpp

; 176  : 		lua.Pop( 1 );

  005d1	6a 01		 push	 1
  005d3	8d 4d e8	 lea	 ecx, DWORD PTR _lua$[ebp]
  005d6	e8 00 00 00 00	 call	 ?Pop@CLuaBase@@QAEXH@Z	; CLuaBase::Pop
; File C:\IAGOS\server\v18\Source\Source\_Common\LuaBase.h

; 46   : 	int			TableLoop( int nStackPos )					{  return lua_next( m_pLuaState, nStackPos );  }	

  005db	6a fe		 push	 -2			; fffffffeH
  005dd	ff 75 ec	 push	 DWORD PTR _lua$[ebp+4]
  005e0	e8 00 00 00 00	 call	 _lua_next
  005e5	83 c4 08	 add	 esp, 8
; File C:\IAGOS\server\v18\Source\Source\WorldServer\ItemUpgrade.cpp

; 167  :  	while( lua.TableLoop( -2 ) )

  005e8	85 c0		 test	 eax, eax
  005ea	0f 85 d0 fe ff
	ff		 jne	 $LL10@LoadScript
$LN11@LoadScript:

; 177  :   	}
; 178  : 	lua.Pop(0);

  005f0	6a 00		 push	 0
  005f2	8d 4d e8	 lea	 ecx, DWORD PTR _lua$[ebp]
  005f5	e8 00 00 00 00	 call	 ?Pop@CLuaBase@@QAEXH@Z	; CLuaBase::Pop

; 179  : }

  005fa	8d 4d e8	 lea	 ecx, DWORD PTR _lua$[ebp]
  005fd	e8 00 00 00 00	 call	 ??1CLuaBase@@UAE@XZ	; CLuaBase::~CLuaBase
  00602	8b 4d f4	 mov	 ecx, DWORD PTR __$EHRec$[ebp]
  00605	64 89 0d 00 00
	00 00		 mov	 DWORD PTR fs:0, ecx
  0060c	59		 pop	 ecx
  0060d	5f		 pop	 edi
  0060e	5e		 pop	 esi
  0060f	8b e5		 mov	 esp, ebp
  00611	5d		 pop	 ebp
  00612	c3		 ret	 0
$LN639@LoadScript:
; File C:\Program Files\Microsoft Visual Studio\2022\Professional\VC\Tools\MSVC\14.44.35207\include\xtree

; 1649 :             _Throw_tree_length_error();

  00613	e8 00 00 00 00	 call	 ?_Throw_tree_length_error@std@@YAXXZ ; std::_Throw_tree_length_error
$LN668@LoadScript:
  00618	cc		 int	 3
_TEXT	ENDS
;	COMDAT text$x
text$x	SEGMENT
__unwindfunclet$?LoadScriptBaruna@CItemUpgrade@@QAEXXZ$0:
  00000	8d 4d e8	 lea	 ecx, DWORD PTR _lua$[ebp]
  00003	e9 00 00 00 00	 jmp	 ??1CLuaBase@@UAE@XZ	; CLuaBase::~CLuaBase
__unwindfunclet$?LoadScriptBaruna@CItemUpgrade@@QAEXXZ$3:
  00008	8d 4d c8	 lea	 ecx, DWORD PTR $T16[ebp]
  0000b	e9 00 00 00 00	 jmp	 ??1?$_Alloc_construct_ptr@V?$allocator@U?$_Tree_node@U?$pair@$$CBHH@std@@PAX@std@@@std@@@std@@QAE@XZ ; std::_Alloc_construct_ptr<std::allocator<std::_Tree_node<std::pair<int const ,int>,void *> > >::~_Alloc_construct_ptr<std::allocator<std::_Tree_node<std::pair<int const ,int>,void *> > >
__unwindfunclet$?LoadScriptBaruna@CItemUpgrade@@QAEXXZ$8:
  00010	8d 4d e0	 lea	 ecx, DWORD PTR $T19[ebp]
  00013	e9 00 00 00 00	 jmp	 ??1?$_Alloc_construct_ptr@V?$allocator@U?$_Tree_node@U?$pair@$$CBHH@std@@PAX@std@@@std@@@std@@QAE@XZ ; std::_Alloc_construct_ptr<std::allocator<std::_Tree_node<std::pair<int const ,int>,void *> > >::~_Alloc_construct_ptr<std::allocator<std::_Tree_node<std::pair<int const ,int>,void *> > >
__unwindfunclet$?LoadScriptBaruna@CItemUpgrade@@QAEXXZ$18:
  00018	8d 4d e0	 lea	 ecx, DWORD PTR $T21[ebp]
  0001b	e9 00 00 00 00	 jmp	 ??1?$_Alloc_construct_ptr@V?$allocator@U?$_Tree_node@U?$pair@$$CBHH@std@@PAX@std@@@std@@@std@@QAE@XZ ; std::_Alloc_construct_ptr<std::allocator<std::_Tree_node<std::pair<int const ,int>,void *> > >::~_Alloc_construct_ptr<std::allocator<std::_Tree_node<std::pair<int const ,int>,void *> > >
__unwindfunclet$?LoadScriptBaruna@CItemUpgrade@@QAEXXZ$23:
  00020	8d 4d e0	 lea	 ecx, DWORD PTR $T20[ebp]
  00023	e9 00 00 00 00	 jmp	 ??1?$_Alloc_construct_ptr@V?$allocator@U?$_Tree_node@U?$pair@$$CBHH@std@@PAX@std@@@std@@@std@@QAE@XZ ; std::_Alloc_construct_ptr<std::allocator<std::_Tree_node<std::pair<int const ,int>,void *> > >::~_Alloc_construct_ptr<std::allocator<std::_Tree_node<std::pair<int const ,int>,void *> > >
__unwindfunclet$?LoadScriptBaruna@CItemUpgrade@@QAEXXZ$13:
  00028	8d 4d c8	 lea	 ecx, DWORD PTR $T17[ebp]
  0002b	e9 00 00 00 00	 jmp	 ??1?$_Alloc_construct_ptr@V?$allocator@U?$_Tree_node@U?$pair@$$CBHU__CHAOS_GEM@@@std@@PAX@std@@@std@@@std@@QAE@XZ ; std::_Alloc_construct_ptr<std::allocator<std::_Tree_node<std::pair<int const ,__CHAOS_GEM>,void *> > >::~_Alloc_construct_ptr<std::allocator<std::_Tree_node<std::pair<int const ,__CHAOS_GEM>,void *> > >
  00030	cc		 int	 3
  00031	cc		 int	 3
  00032	cc		 int	 3
  00033	cc		 int	 3
  00034	cc		 int	 3
__ehhandler$?LoadScriptBaruna@CItemUpgrade@@QAEXXZ:
  00035	90		 npad	 1
  00036	90		 npad	 1
  00037	8b 54 24 08	 mov	 edx, DWORD PTR [esp+8]
  0003b	8d 42 0c	 lea	 eax, DWORD PTR [edx+12]
  0003e	8b 4a 90	 mov	 ecx, DWORD PTR [edx-112]
  00041	33 c8		 xor	 ecx, eax
  00043	e8 00 00 00 00	 call	 @__security_check_cookie@4
  00048	b8 00 00 00 00	 mov	 eax, OFFSET __ehfuncinfo$?LoadScriptBaruna@CItemUpgrade@@QAEXXZ
  0004d	e9 00 00 00 00	 jmp	 ___CxxFrameHandler3
text$x	ENDS
?LoadScriptBaruna@CItemUpgrade@@QAEXXZ ENDP		; CItemUpgrade::LoadScriptBaruna
; Function compile flags: /Ogtp
;	COMDAT ??1?$map@HU__ATTRIBUTE_ENCHANT@@U?$less@H@std@@V?$allocator@U?$pair@$$CBHU__ATTRIBUTE_ENCHANT@@@std@@@3@@std@@QAE@XZ
_TEXT	SEGMENT
??1?$map@HU__ATTRIBUTE_ENCHANT@@U?$less@H@std@@V?$allocator@U?$pair@$$CBHU__ATTRIBUTE_ENCHANT@@@std@@@3@@std@@QAE@XZ PROC ; std::map<int,__ATTRIBUTE_ENCHANT,std::less<int>,std::allocator<std::pair<int const ,__ATTRIBUTE_ENCHANT> > >::~map<int,__ATTRIBUTE_ENCHANT,std::less<int>,std::allocator<std::pair<int const ,__ATTRIBUTE_ENCHANT> > >, COMDAT
; _this$ = ecx
  00000	e9 00 00 00 00	 jmp	 ??1?$_Tree@V?$_Tmap_traits@HU__ATTRIBUTE_ENCHANT@@U?$less@H@std@@V?$allocator@U?$pair@$$CBHU__ATTRIBUTE_ENCHANT@@@std@@@3@$0A@@std@@@std@@QAE@XZ ; std::_Tree<std::_Tmap_traits<int,__ATTRIBUTE_ENCHANT,std::less<int>,std::allocator<std::pair<int const ,__ATTRIBUTE_ENCHANT> >,0> >::~_Tree<std::_Tmap_traits<int,__ATTRIBUTE_ENCHANT,std::less<int>,std::allocator<std::pair<int const ,__ATTRIBUTE_ENCHANT> >,0> >
??1?$map@HU__ATTRIBUTE_ENCHANT@@U?$less@H@std@@V?$allocator@U?$pair@$$CBHU__ATTRIBUTE_ENCHANT@@@std@@@3@@std@@QAE@XZ ENDP ; std::map<int,__ATTRIBUTE_ENCHANT,std::less<int>,std::allocator<std::pair<int const ,__ATTRIBUTE_ENCHANT> > >::~map<int,__ATTRIBUTE_ENCHANT,std::less<int>,std::allocator<std::pair<int const ,__ATTRIBUTE_ENCHANT> > >
_TEXT	ENDS
; Function compile flags: /Ogtp
; File C:\Program Files\Microsoft Visual Studio\2022\Professional\VC\Tools\MSVC\14.44.35207\include\xtree
;	COMDAT ?_Insert_node@?$_Tree_val@U?$_Tree_simple_types@U?$pair@$$CBHU__ATTRIBUTE_ENCHANT@@@std@@@std@@@std@@QAEPAU?$_Tree_node@U?$pair@$$CBHU__ATTRIBUTE_ENCHANT@@@std@@PAX@2@U?$_Tree_id@PAU?$_Tree_node@U?$pair@$$CBHU__ATTRIBUTE_ENCHANT@@@std@@PAX@std@@@2@QAU32@@Z
_TEXT	SEGMENT
__Head$1$ = -4						; size = 4
__Loc$ = 8						; size = 8
__Newnode$ = 16						; size = 4
?_Insert_node@?$_Tree_val@U?$_Tree_simple_types@U?$pair@$$CBHU__ATTRIBUTE_ENCHANT@@@std@@@std@@@std@@QAEPAU?$_Tree_node@U?$pair@$$CBHU__ATTRIBUTE_ENCHANT@@@std@@PAX@2@U?$_Tree_id@PAU?$_Tree_node@U?$pair@$$CBHU__ATTRIBUTE_ENCHANT@@@std@@PAX@std@@@2@QAU32@@Z PROC ; std::_Tree_val<std::_Tree_simple_types<std::pair<int const ,__ATTRIBUTE_ENCHANT> > >::_Insert_node, COMDAT
; _this$ = ecx

; 669  :     _Nodeptr _Insert_node(const _Tree_id<_Nodeptr> _Loc, const _Nodeptr _Newnode) noexcept {

  00000	55		 push	 ebp
  00001	8b ec		 mov	 ebp, esp
  00003	51		 push	 ecx

; 670  :         ++_Mysize;
; 671  :         const auto _Head  = _Myhead;
; 672  :         _Newnode->_Parent = _Loc._Parent;

  00004	8b 55 08	 mov	 edx, DWORD PTR __Loc$[ebp]
  00007	53		 push	 ebx
  00008	8b d9		 mov	 ebx, ecx
  0000a	57		 push	 edi
  0000b	8b 7d 10	 mov	 edi, DWORD PTR __Newnode$[ebp]
  0000e	8b 03		 mov	 eax, DWORD PTR [ebx]
  00010	ff 43 04	 inc	 DWORD PTR [ebx+4]
  00013	89 45 fc	 mov	 DWORD PTR __Head$1$[ebp], eax
  00016	89 57 04	 mov	 DWORD PTR [edi+4], edx

; 673  :         if (_Loc._Parent == _Head) { // first node in tree, just set head values

  00019	3b d0		 cmp	 edx, eax
  0001b	75 16		 jne	 SHORT $LN5@Insert_nod

; 674  :             _Head->_Left     = _Newnode;

  0001d	89 38		 mov	 DWORD PTR [eax], edi

; 675  :             _Head->_Parent   = _Newnode;

  0001f	89 78 04	 mov	 DWORD PTR [eax+4], edi

; 676  :             _Head->_Right    = _Newnode;

  00022	89 78 08	 mov	 DWORD PTR [eax+8], edi

; 735  :         return _Newnode;
; 736  :     }

  00025	8b c7		 mov	 eax, edi
  00027	c6 47 0c 01	 mov	 BYTE PTR [edi+12], 1
  0002b	5f		 pop	 edi
  0002c	5b		 pop	 ebx
  0002d	8b e5		 mov	 esp, ebp
  0002f	5d		 pop	 ebp
  00030	c2 0c 00	 ret	 12			; 0000000cH
$LN5@Insert_nod:

; 677  :             _Newnode->_Color = _Black; // the root is black
; 678  :             return _Newnode;
; 679  :         }
; 680  : 
; 681  :         _STL_INTERNAL_CHECK(_Loc._Child != _Tree_child::_Unused);
; 682  :         if (_Loc._Child == _Tree_child::_Right) { // add to right of _Loc._Parent

  00033	83 7d 0c 00	 cmp	 DWORD PTR __Loc$[ebp+4], 0
  00037	75 0d		 jne	 SHORT $LN6@Insert_nod

; 683  :             _STL_INTERNAL_CHECK(_Loc._Parent->_Right->_Isnil);
; 684  :             _Loc._Parent->_Right = _Newnode;

  00039	89 7a 08	 mov	 DWORD PTR [edx+8], edi

; 685  :             if (_Loc._Parent == _Head->_Right) { // remember rightmost node

  0003c	3b 50 08	 cmp	 edx, DWORD PTR [eax+8]
  0003f	75 0d		 jne	 SHORT $LN9@Insert_nod

; 686  :                 _Head->_Right = _Newnode;

  00041	89 78 08	 mov	 DWORD PTR [eax+8], edi

; 687  :             }
; 688  :         } else { // add to left of _Loc._Parent

  00044	eb 08		 jmp	 SHORT $LN9@Insert_nod
$LN6@Insert_nod:

; 689  :             _STL_INTERNAL_CHECK(_Loc._Parent->_Left->_Isnil);
; 690  :             _Loc._Parent->_Left = _Newnode;

  00046	89 3a		 mov	 DWORD PTR [edx], edi

; 691  :             if (_Loc._Parent == _Head->_Left) { // remember leftmost node

  00048	3b 10		 cmp	 edx, DWORD PTR [eax]
  0004a	75 02		 jne	 SHORT $LN9@Insert_nod

; 692  :                 _Head->_Left = _Newnode;

  0004c	89 38		 mov	 DWORD PTR [eax], edi
$LN9@Insert_nod:

; 693  :             }
; 694  :         }
; 695  : 
; 696  :         for (_Nodeptr _Pnode = _Newnode; _Pnode->_Parent->_Color == _Red;) {

  0004e	8b 4f 04	 mov	 ecx, DWORD PTR [edi+4]
  00051	8b c7		 mov	 eax, edi
  00053	80 79 0c 00	 cmp	 BYTE PTR [ecx+12], 0
  00057	0f 85 7d 01 00
	00		 jne	 $LN3@Insert_nod
  0005d	56		 push	 esi
  0005e	66 90		 npad	 2
$LL4@Insert_nod:

; 697  :             if (_Pnode->_Parent == _Pnode->_Parent->_Parent->_Left) { // fixup red-red in left subtree

  00060	8b 50 04	 mov	 edx, DWORD PTR [eax+4]
  00063	8b 72 04	 mov	 esi, DWORD PTR [edx+4]
  00066	8b 0e		 mov	 ecx, DWORD PTR [esi]
  00068	3b d1		 cmp	 edx, ecx
  0006a	0f 85 aa 00 00
	00		 jne	 $LN10@Insert_nod

; 698  :                 const auto _Parent_sibling = _Pnode->_Parent->_Parent->_Right;

  00070	8b 4e 08	 mov	 ecx, DWORD PTR [esi+8]

; 699  :                 if (_Parent_sibling->_Color == _Red) { // parent's sibling has two red children, blacken both

  00073	80 79 0c 00	 cmp	 BYTE PTR [ecx+12], 0
  00077	0f 84 a3 00 00
	00		 je	 $LN82@Insert_nod

; 700  :                     _Pnode->_Parent->_Color          = _Black;
; 701  :                     _Parent_sibling->_Color          = _Black;
; 702  :                     _Pnode->_Parent->_Parent->_Color = _Red;
; 703  :                     _Pnode                           = _Pnode->_Parent->_Parent;
; 704  :                 } else { // parent's sibling has red and black children
; 705  :                     if (_Pnode == _Pnode->_Parent->_Right) { // rotate right child to left

  0007d	8b 72 08	 mov	 esi, DWORD PTR [edx+8]
  00080	3b c6		 cmp	 eax, esi
  00082	75 37		 jne	 SHORT $LN57@Insert_nod

; 485  :         _Wherenode->_Right = _Pnode->_Left;

  00084	8b 0e		 mov	 ecx, DWORD PTR [esi]

; 706  :                         _Pnode = _Pnode->_Parent;

  00086	8b c2		 mov	 eax, edx

; 485  :         _Wherenode->_Right = _Pnode->_Left;

  00088	89 4a 08	 mov	 DWORD PTR [edx+8], ecx

; 486  : 
; 487  :         if (!_Pnode->_Left->_Isnil) {

  0008b	8b 0e		 mov	 ecx, DWORD PTR [esi]
  0008d	80 79 0d 00	 cmp	 BYTE PTR [ecx+13], 0
  00091	75 03		 jne	 SHORT $LN21@Insert_nod

; 488  :             _Pnode->_Left->_Parent = _Wherenode;

  00093	89 41 04	 mov	 DWORD PTR [ecx+4], eax
$LN21@Insert_nod:

; 489  :         }
; 490  : 
; 491  :         _Pnode->_Parent = _Wherenode->_Parent;

  00096	8b 4a 04	 mov	 ecx, DWORD PTR [edx+4]
  00099	89 4e 04	 mov	 DWORD PTR [esi+4], ecx

; 492  : 
; 493  :         if (_Wherenode == _Myhead->_Parent) {

  0009c	8b 0b		 mov	 ecx, DWORD PTR [ebx]
  0009e	3b 41 04	 cmp	 eax, DWORD PTR [ecx+4]
  000a1	75 05		 jne	 SHORT $LN22@Insert_nod

; 494  :             _Myhead->_Parent = _Pnode;

  000a3	89 71 04	 mov	 DWORD PTR [ecx+4], esi
  000a6	eb 0e		 jmp	 SHORT $LN25@Insert_nod
$LN22@Insert_nod:

; 495  :         } else if (_Wherenode == _Wherenode->_Parent->_Left) {

  000a8	8b 4a 04	 mov	 ecx, DWORD PTR [edx+4]
  000ab	3b 01		 cmp	 eax, DWORD PTR [ecx]
  000ad	75 04		 jne	 SHORT $LN24@Insert_nod

; 496  :             _Wherenode->_Parent->_Left = _Pnode;

  000af	89 31		 mov	 DWORD PTR [ecx], esi

; 497  :         } else {

  000b1	eb 03		 jmp	 SHORT $LN25@Insert_nod
$LN24@Insert_nod:

; 498  :             _Wherenode->_Parent->_Right = _Pnode;

  000b3	89 71 08	 mov	 DWORD PTR [ecx+8], esi
$LN25@Insert_nod:

; 499  :         }
; 500  : 
; 501  :         _Pnode->_Left       = _Wherenode;

  000b6	89 06		 mov	 DWORD PTR [esi], eax

; 502  :         _Wherenode->_Parent = _Pnode;

  000b8	89 70 04	 mov	 DWORD PTR [eax+4], esi
$LN57@Insert_nod:

; 707  :                         _Lrotate(_Pnode);
; 708  :                     }
; 709  : 
; 710  :                     _Pnode->_Parent->_Color          = _Black; // propagate red up

  000bb	8b 48 04	 mov	 ecx, DWORD PTR [eax+4]
  000be	c6 41 0c 01	 mov	 BYTE PTR [ecx+12], 1

; 711  :                     _Pnode->_Parent->_Parent->_Color = _Red;

  000c2	8b 48 04	 mov	 ecx, DWORD PTR [eax+4]
  000c5	8b 49 04	 mov	 ecx, DWORD PTR [ecx+4]
  000c8	c6 41 0c 00	 mov	 BYTE PTR [ecx+12], 0

; 712  :                     _Rrotate(_Pnode->_Parent->_Parent);

  000cc	8b 48 04	 mov	 ecx, DWORD PTR [eax+4]
  000cf	8b 51 04	 mov	 edx, DWORD PTR [ecx+4]

; 506  :         _Nodeptr _Pnode   = _Wherenode->_Left;

  000d2	8b 32		 mov	 esi, DWORD PTR [edx]

; 507  :         _Wherenode->_Left = _Pnode->_Right;

  000d4	8b 4e 08	 mov	 ecx, DWORD PTR [esi+8]
  000d7	89 0a		 mov	 DWORD PTR [edx], ecx

; 508  : 
; 509  :         if (!_Pnode->_Right->_Isnil) {

  000d9	8b 4e 08	 mov	 ecx, DWORD PTR [esi+8]
  000dc	80 79 0d 00	 cmp	 BYTE PTR [ecx+13], 0
  000e0	75 03		 jne	 SHORT $LN29@Insert_nod

; 510  :             _Pnode->_Right->_Parent = _Wherenode;

  000e2	89 51 04	 mov	 DWORD PTR [ecx+4], edx
$LN29@Insert_nod:

; 511  :         }
; 512  : 
; 513  :         _Pnode->_Parent = _Wherenode->_Parent;

  000e5	8b 4a 04	 mov	 ecx, DWORD PTR [edx+4]
  000e8	89 4e 04	 mov	 DWORD PTR [esi+4], ecx

; 514  : 
; 515  :         if (_Wherenode == _Myhead->_Parent) {

  000eb	8b 0b		 mov	 ecx, DWORD PTR [ebx]
  000ed	3b 51 04	 cmp	 edx, DWORD PTR [ecx+4]
  000f0	75 0b		 jne	 SHORT $LN30@Insert_nod

; 516  :             _Myhead->_Parent = _Pnode;

  000f2	89 71 04	 mov	 DWORD PTR [ecx+4], esi

; 521  :         }
; 522  : 
; 523  :         _Pnode->_Right      = _Wherenode;

  000f5	89 56 08	 mov	 DWORD PTR [esi+8], edx

; 713  :                 }
; 714  :             } else { // fixup red-red in right subtree

  000f8	e9 cc 00 00 00	 jmp	 $LN81@Insert_nod
$LN30@Insert_nod:

; 517  :         } else if (_Wherenode == _Wherenode->_Parent->_Right) {

  000fd	8b 4a 04	 mov	 ecx, DWORD PTR [edx+4]
  00100	3b 51 08	 cmp	 edx, DWORD PTR [ecx+8]
  00103	75 0b		 jne	 SHORT $LN32@Insert_nod

; 518  :             _Wherenode->_Parent->_Right = _Pnode;

  00105	89 71 08	 mov	 DWORD PTR [ecx+8], esi

; 521  :         }
; 522  : 
; 523  :         _Pnode->_Right      = _Wherenode;

  00108	89 56 08	 mov	 DWORD PTR [esi+8], edx

; 713  :                 }
; 714  :             } else { // fixup red-red in right subtree

  0010b	e9 b9 00 00 00	 jmp	 $LN81@Insert_nod
$LN32@Insert_nod:

; 520  :             _Wherenode->_Parent->_Left = _Pnode;

  00110	89 31		 mov	 DWORD PTR [ecx], esi

; 521  :         }
; 522  : 
; 523  :         _Pnode->_Right      = _Wherenode;

  00112	89 56 08	 mov	 DWORD PTR [esi+8], edx

; 713  :                 }
; 714  :             } else { // fixup red-red in right subtree

  00115	e9 af 00 00 00	 jmp	 $LN81@Insert_nod
$LN10@Insert_nod:

; 715  :                 const auto _Parent_sibling = _Pnode->_Parent->_Parent->_Left;
; 716  :                 if (_Parent_sibling->_Color == _Red) { // parent's sibling has two red children, blacken both

  0011a	80 79 0c 00	 cmp	 BYTE PTR [ecx+12], 0
  0011e	75 1d		 jne	 SHORT $LN15@Insert_nod
$LN82@Insert_nod:

; 693  :             }
; 694  :         }
; 695  : 
; 696  :         for (_Nodeptr _Pnode = _Newnode; _Pnode->_Parent->_Color == _Red;) {

  00120	c6 42 0c 01	 mov	 BYTE PTR [edx+12], 1
  00124	c6 41 0c 01	 mov	 BYTE PTR [ecx+12], 1
  00128	8b 48 04	 mov	 ecx, DWORD PTR [eax+4]
  0012b	8b 49 04	 mov	 ecx, DWORD PTR [ecx+4]
  0012e	c6 41 0c 00	 mov	 BYTE PTR [ecx+12], 0
  00132	8b 48 04	 mov	 ecx, DWORD PTR [eax+4]
  00135	8b 41 04	 mov	 eax, DWORD PTR [ecx+4]
  00138	e9 8f 00 00 00	 jmp	 $LN2@Insert_nod
$LN15@Insert_nod:

; 717  :                     _Pnode->_Parent->_Color          = _Black;
; 718  :                     _Parent_sibling->_Color          = _Black;
; 719  :                     _Pnode->_Parent->_Parent->_Color = _Red;
; 720  :                     _Pnode                           = _Pnode->_Parent->_Parent;
; 721  :                 } else { // parent's sibling has red and black children
; 722  :                     if (_Pnode == _Pnode->_Parent->_Left) { // rotate left child to right

  0013d	8b 32		 mov	 esi, DWORD PTR [edx]
  0013f	3b c6		 cmp	 eax, esi
  00141	75 3a		 jne	 SHORT $LN42@Insert_nod

; 507  :         _Wherenode->_Left = _Pnode->_Right;

  00143	8b 4e 08	 mov	 ecx, DWORD PTR [esi+8]

; 723  :                         _Pnode = _Pnode->_Parent;

  00146	8b c2		 mov	 eax, edx

; 507  :         _Wherenode->_Left = _Pnode->_Right;

  00148	89 08		 mov	 DWORD PTR [eax], ecx

; 508  : 
; 509  :         if (!_Pnode->_Right->_Isnil) {

  0014a	8b 4e 08	 mov	 ecx, DWORD PTR [esi+8]
  0014d	80 79 0d 00	 cmp	 BYTE PTR [ecx+13], 0
  00151	75 03		 jne	 SHORT $LN37@Insert_nod

; 510  :             _Pnode->_Right->_Parent = _Wherenode;

  00153	89 41 04	 mov	 DWORD PTR [ecx+4], eax
$LN37@Insert_nod:

; 511  :         }
; 512  : 
; 513  :         _Pnode->_Parent = _Wherenode->_Parent;

  00156	8b 4a 04	 mov	 ecx, DWORD PTR [edx+4]
  00159	89 4e 04	 mov	 DWORD PTR [esi+4], ecx

; 514  : 
; 515  :         if (_Wherenode == _Myhead->_Parent) {

  0015c	8b 0b		 mov	 ecx, DWORD PTR [ebx]
  0015e	3b 41 04	 cmp	 eax, DWORD PTR [ecx+4]
  00161	75 05		 jne	 SHORT $LN38@Insert_nod

; 516  :             _Myhead->_Parent = _Pnode;

  00163	89 71 04	 mov	 DWORD PTR [ecx+4], esi
  00166	eb 0f		 jmp	 SHORT $LN41@Insert_nod
$LN38@Insert_nod:

; 517  :         } else if (_Wherenode == _Wherenode->_Parent->_Right) {

  00168	8b 4a 04	 mov	 ecx, DWORD PTR [edx+4]
  0016b	3b 41 08	 cmp	 eax, DWORD PTR [ecx+8]
  0016e	75 05		 jne	 SHORT $LN40@Insert_nod

; 518  :             _Wherenode->_Parent->_Right = _Pnode;

  00170	89 71 08	 mov	 DWORD PTR [ecx+8], esi

; 519  :         } else {

  00173	eb 02		 jmp	 SHORT $LN41@Insert_nod
$LN40@Insert_nod:

; 520  :             _Wherenode->_Parent->_Left = _Pnode;

  00175	89 31		 mov	 DWORD PTR [ecx], esi
$LN41@Insert_nod:

; 521  :         }
; 522  : 
; 523  :         _Pnode->_Right      = _Wherenode;

  00177	89 46 08	 mov	 DWORD PTR [esi+8], eax

; 524  :         _Wherenode->_Parent = _Pnode;

  0017a	89 70 04	 mov	 DWORD PTR [eax+4], esi
$LN42@Insert_nod:

; 724  :                         _Rrotate(_Pnode);
; 725  :                     }
; 726  : 
; 727  :                     _Pnode->_Parent->_Color          = _Black; // propagate red up

  0017d	8b 48 04	 mov	 ecx, DWORD PTR [eax+4]
  00180	c6 41 0c 01	 mov	 BYTE PTR [ecx+12], 1

; 728  :                     _Pnode->_Parent->_Parent->_Color = _Red;

  00184	8b 48 04	 mov	 ecx, DWORD PTR [eax+4]
  00187	8b 49 04	 mov	 ecx, DWORD PTR [ecx+4]
  0018a	c6 41 0c 00	 mov	 BYTE PTR [ecx+12], 0

; 729  :                     _Lrotate(_Pnode->_Parent->_Parent);

  0018e	8b 48 04	 mov	 ecx, DWORD PTR [eax+4]
  00191	8b 51 04	 mov	 edx, DWORD PTR [ecx+4]

; 484  :         _Nodeptr _Pnode    = _Wherenode->_Right;

  00194	8b 72 08	 mov	 esi, DWORD PTR [edx+8]

; 485  :         _Wherenode->_Right = _Pnode->_Left;

  00197	8b 0e		 mov	 ecx, DWORD PTR [esi]
  00199	89 4a 08	 mov	 DWORD PTR [edx+8], ecx

; 486  : 
; 487  :         if (!_Pnode->_Left->_Isnil) {

  0019c	8b 0e		 mov	 ecx, DWORD PTR [esi]
  0019e	80 79 0d 00	 cmp	 BYTE PTR [ecx+13], 0
  001a2	75 03		 jne	 SHORT $LN45@Insert_nod

; 488  :             _Pnode->_Left->_Parent = _Wherenode;

  001a4	89 51 04	 mov	 DWORD PTR [ecx+4], edx
$LN45@Insert_nod:

; 489  :         }
; 490  : 
; 491  :         _Pnode->_Parent = _Wherenode->_Parent;

  001a7	8b 4a 04	 mov	 ecx, DWORD PTR [edx+4]
  001aa	89 4e 04	 mov	 DWORD PTR [esi+4], ecx

; 492  : 
; 493  :         if (_Wherenode == _Myhead->_Parent) {

  001ad	8b 0b		 mov	 ecx, DWORD PTR [ebx]
  001af	3b 51 04	 cmp	 edx, DWORD PTR [ecx+4]
  001b2	75 05		 jne	 SHORT $LN46@Insert_nod

; 494  :             _Myhead->_Parent = _Pnode;

  001b4	89 71 04	 mov	 DWORD PTR [ecx+4], esi
  001b7	eb 0e		 jmp	 SHORT $LN49@Insert_nod
$LN46@Insert_nod:

; 495  :         } else if (_Wherenode == _Wherenode->_Parent->_Left) {

  001b9	8b 4a 04	 mov	 ecx, DWORD PTR [edx+4]
  001bc	3b 11		 cmp	 edx, DWORD PTR [ecx]
  001be	75 04		 jne	 SHORT $LN48@Insert_nod

; 496  :             _Wherenode->_Parent->_Left = _Pnode;

  001c0	89 31		 mov	 DWORD PTR [ecx], esi

; 497  :         } else {

  001c2	eb 03		 jmp	 SHORT $LN49@Insert_nod
$LN48@Insert_nod:

; 498  :             _Wherenode->_Parent->_Right = _Pnode;

  001c4	89 71 08	 mov	 DWORD PTR [ecx+8], esi
$LN49@Insert_nod:

; 499  :         }
; 500  : 
; 501  :         _Pnode->_Left       = _Wherenode;

  001c7	89 16		 mov	 DWORD PTR [esi], edx
$LN81@Insert_nod:

; 693  :             }
; 694  :         }
; 695  : 
; 696  :         for (_Nodeptr _Pnode = _Newnode; _Pnode->_Parent->_Color == _Red;) {

  001c9	89 72 04	 mov	 DWORD PTR [edx+4], esi
$LN2@Insert_nod:
  001cc	8b 48 04	 mov	 ecx, DWORD PTR [eax+4]
  001cf	80 79 0c 00	 cmp	 BYTE PTR [ecx+12], 0
  001d3	0f 84 87 fe ff
	ff		 je	 $LL4@Insert_nod
  001d9	5e		 pop	 esi
$LN3@Insert_nod:

; 730  :                 }
; 731  :             }
; 732  :         }
; 733  : 
; 734  :         _Head->_Parent->_Color = _Black; // root is always black

  001da	8b 45 fc	 mov	 eax, DWORD PTR __Head$1$[ebp]
  001dd	8b 40 04	 mov	 eax, DWORD PTR [eax+4]
  001e0	c6 40 0c 01	 mov	 BYTE PTR [eax+12], 1

; 735  :         return _Newnode;
; 736  :     }

  001e4	8b c7		 mov	 eax, edi
  001e6	5f		 pop	 edi
  001e7	5b		 pop	 ebx
  001e8	8b e5		 mov	 esp, ebp
  001ea	5d		 pop	 ebp
  001eb	c2 0c 00	 ret	 12			; 0000000cH
?_Insert_node@?$_Tree_val@U?$_Tree_simple_types@U?$pair@$$CBHU__ATTRIBUTE_ENCHANT@@@std@@@std@@@std@@QAEPAU?$_Tree_node@U?$pair@$$CBHU__ATTRIBUTE_ENCHANT@@@std@@PAX@2@U?$_Tree_id@PAU?$_Tree_node@U?$pair@$$CBHU__ATTRIBUTE_ENCHANT@@@std@@PAX@std@@@2@QAU32@@Z ENDP ; std::_Tree_val<std::_Tree_simple_types<std::pair<int const ,__ATTRIBUTE_ENCHANT> > >::_Insert_node
_TEXT	ENDS
; Function compile flags: /Ogtp
; File C:\Program Files\Microsoft Visual Studio\2022\Professional\VC\Tools\MSVC\14.44.35207\include\xtree
; File C:\Program Files\Microsoft Visual Studio\2022\Professional\VC\Tools\MSVC\14.44.35207\include\utility
; File C:\Program Files\Microsoft Visual Studio\2022\Professional\VC\Tools\MSVC\14.44.35207\include\xmemory
; File C:\Program Files\Microsoft Visual Studio\2022\Professional\VC\Tools\MSVC\14.44.35207\include\xtree
; File C:\Program Files\Microsoft Visual Studio\2022\Professional\VC\Tools\MSVC\14.44.35207\include\xmemory
; File C:\Program Files\Microsoft Visual Studio\2022\Professional\VC\Tools\MSVC\14.44.35207\include\xtree
;	COMDAT ??1?$_Tree@V?$_Tmap_traits@HU__ATTRIBUTE_ENCHANT@@U?$less@H@std@@V?$allocator@U?$pair@$$CBHU__ATTRIBUTE_ENCHANT@@@std@@@3@$0A@@std@@@std@@QAE@XZ
_TEXT	SEGMENT
??1?$_Tree@V?$_Tmap_traits@HU__ATTRIBUTE_ENCHANT@@U?$less@H@std@@V?$allocator@U?$pair@$$CBHU__ATTRIBUTE_ENCHANT@@@std@@@3@$0A@@std@@@std@@QAE@XZ PROC ; std::_Tree<std::_Tmap_traits<int,__ATTRIBUTE_ENCHANT,std::less<int>,std::allocator<std::pair<int const ,__ATTRIBUTE_ENCHANT> >,0> >::~_Tree<std::_Tmap_traits<int,__ATTRIBUTE_ENCHANT,std::less<int>,std::allocator<std::pair<int const ,__ATTRIBUTE_ENCHANT> >,0> >, COMDAT
; _this$ = ecx

; 1095 :     ~_Tree() noexcept {

  00000	56		 push	 esi
  00001	57		 push	 edi
  00002	8b f9		 mov	 edi, ecx

; 777  :         _Erase_tree(_Al, _Myhead->_Parent);

  00004	8b 37		 mov	 esi, DWORD PTR [edi]
  00006	8b 76 04	 mov	 esi, DWORD PTR [esi+4]

; 768  :         while (!_Rootnode->_Isnil) { // free subtrees, then node

  00009	80 7e 0d 00	 cmp	 BYTE PTR [esi+13], 0
  0000d	75 21		 jne	 SHORT $LN61@Tree
  0000f	90		 npad	 1
$LL8@Tree:

; 769  :             _Erase_tree(_Al, _Rootnode->_Right);

  00010	ff 76 08	 push	 DWORD PTR [esi+8]
  00013	8b cf		 mov	 ecx, edi
  00015	57		 push	 edi
  00016	e8 00 00 00 00	 call	 ??$_Erase_tree@V?$allocator@U?$_Tree_node@U?$pair@$$CBHU__ATTRIBUTE_ENCHANT@@@std@@PAX@std@@@std@@@?$_Tree_val@U?$_Tree_simple_types@U?$pair@$$CBHU__ATTRIBUTE_ENCHANT@@@std@@@std@@@std@@QAEXAAV?$allocator@U?$_Tree_node@U?$pair@$$CBHU__ATTRIBUTE_ENCHANT@@@std@@PAX@std@@@1@PAU?$_Tree_node@U?$pair@$$CBHU__ATTRIBUTE_ENCHANT@@@std@@PAX@1@@Z ; std::_Tree_val<std::_Tree_simple_types<std::pair<int const ,__ATTRIBUTE_ENCHANT> > >::_Erase_tree<std::allocator<std::_Tree_node<std::pair<int const ,__ATTRIBUTE_ENCHANT>,void *> > >
; File C:\Program Files\Microsoft Visual Studio\2022\Professional\VC\Tools\MSVC\14.44.35207\include\utility

; 773  :     _Ty _Old_val = static_cast<_Ty&&>(_Val);

  0001b	8b c6		 mov	 eax, esi

; 774  :     _Val         = static_cast<_Other&&>(_New_val);

  0001d	8b 36		 mov	 esi, DWORD PTR [esi]
; File C:\Program Files\Microsoft Visual Studio\2022\Professional\VC\Tools\MSVC\14.44.35207\include\xmemory

; 289  :         ::operator delete(_Ptr, _Bytes);

  0001f	6a 24		 push	 36			; 00000024H
  00021	50		 push	 eax
  00022	e8 00 00 00 00	 call	 ??3@YAXPAXI@Z		; operator delete
  00027	83 c4 08	 add	 esp, 8
; File C:\Program Files\Microsoft Visual Studio\2022\Professional\VC\Tools\MSVC\14.44.35207\include\xtree

; 768  :         while (!_Rootnode->_Isnil) { // free subtrees, then node

  0002a	80 7e 0d 00	 cmp	 BYTE PTR [esi+13], 0
  0002e	74 e0		 je	 SHORT $LL8@Tree
$LN61@Tree:
; File C:\Program Files\Microsoft Visual Studio\2022\Professional\VC\Tools\MSVC\14.44.35207\include\xmemory

; 289  :         ::operator delete(_Ptr, _Bytes);

  00030	6a 24		 push	 36			; 00000024H
  00032	ff 37		 push	 DWORD PTR [edi]
  00034	e8 00 00 00 00	 call	 ??3@YAXPAXI@Z		; operator delete
  00039	83 c4 08	 add	 esp, 8
  0003c	5f		 pop	 edi
  0003d	5e		 pop	 esi
; File C:\Program Files\Microsoft Visual Studio\2022\Professional\VC\Tools\MSVC\14.44.35207\include\xtree

; 1102 :     }

  0003e	c3		 ret	 0
??1?$_Tree@V?$_Tmap_traits@HU__ATTRIBUTE_ENCHANT@@U?$less@H@std@@V?$allocator@U?$pair@$$CBHU__ATTRIBUTE_ENCHANT@@@std@@@3@$0A@@std@@@std@@QAE@XZ ENDP ; std::_Tree<std::_Tmap_traits<int,__ATTRIBUTE_ENCHANT,std::less<int>,std::allocator<std::pair<int const ,__ATTRIBUTE_ENCHANT> >,0> >::~_Tree<std::_Tmap_traits<int,__ATTRIBUTE_ENCHANT,std::less<int>,std::allocator<std::pair<int const ,__ATTRIBUTE_ENCHANT> >,0> >
_TEXT	ENDS
; Function compile flags: /Ogtp
; File C:\IAGOS\server\v18\Source\Source\WorldServer\ItemUpgrade.cpp
;	COMDAT ?WhatEleCard@CItemUpgrade@@QAEKK@Z
_TEXT	SEGMENT
_dwItemType$ = 8					; size = 4
?WhatEleCard@CItemUpgrade@@QAEKK@Z PROC			; CItemUpgrade::WhatEleCard, COMDAT
; _this$ = ecx

; 1936 : {	// ╝ė╝║ ┴”Ę├ ┐ļ ─½ĄÕ└Ū ┴ŠĘ∙░Ī 

  00000	55		 push	 ebp
  00001	8b ec		 mov	 ebp, esp

; 1937 : 	// ╝ė╝║ ┤ń ŪŽ│¬Ę╬ ┼ļŪšĄ╩
; 1938 : 	switch( dwItemType )

  00003	8b 45 08	 mov	 eax, DWORD PTR _dwItemType$[ebp]
  00006	48		 dec	 eax
  00007	83 f8 04	 cmp	 eax, 4
  0000a	77 34		 ja	 SHORT $LN9@WhatEleCar
  0000c	ff 24 85 00 00
	00 00		 jmp	 DWORD PTR $LN11@WhatEleCar[eax*4]
$LN4@WhatEleCar:

; 1939 : 	{
; 1940 : 	case SAI79::FIRE:
; 1941 : 		return II_GEN_MAT_ELE_FLAME;

  00013	b8 86 0c 00 00	 mov	 eax, 3206		; 00000c86H

; 1952 : 	}
; 1953 : }

  00018	5d		 pop	 ebp
  00019	c2 04 00	 ret	 4
$LN5@WhatEleCar:

; 1942 : 	case SAI79::WATER:
; 1943 : 		return II_GEN_MAT_ELE_RIVER;

  0001c	b8 8b 0c 00 00	 mov	 eax, 3211		; 00000c8bH

; 1952 : 	}
; 1953 : }

  00021	5d		 pop	 ebp
  00022	c2 04 00	 ret	 4
$LN6@WhatEleCar:

; 1944 : 	case SAI79::ELECTRICITY:
; 1945 : 		return II_GEN_MAT_ELE_GENERATOR;

  00025	b8 90 0c 00 00	 mov	 eax, 3216		; 00000c90H

; 1952 : 	}
; 1953 : }

  0002a	5d		 pop	 ebp
  0002b	c2 04 00	 ret	 4
$LN7@WhatEleCar:

; 1946 : 	case SAI79::EARTH:
; 1947 : 		return II_GEN_MAT_ELE_DESERT;

  0002e	b8 95 0c 00 00	 mov	 eax, 3221		; 00000c95H

; 1952 : 	}
; 1953 : }

  00033	5d		 pop	 ebp
  00034	c2 04 00	 ret	 4
$LN8@WhatEleCar:

; 1948 : 	case SAI79::WIND:
; 1949 : 		return II_GEN_MAT_ELE_CYCLON;

  00037	b8 9a 0c 00 00	 mov	 eax, 3226		; 00000c9aH

; 1952 : 	}
; 1953 : }

  0003c	5d		 pop	 ebp
  0003d	c2 04 00	 ret	 4
$LN9@WhatEleCar:

; 1950 : 	default:
; 1951 : 		return 0;

  00040	33 c0		 xor	 eax, eax

; 1952 : 	}
; 1953 : }

  00042	5d		 pop	 ebp
  00043	c2 04 00	 ret	 4
  00046	66 90		 npad	 2
$LN11@WhatEleCar:
  00048	00 00 00 00	 DD	 $LN4@WhatEleCar
  0004c	00 00 00 00	 DD	 $LN5@WhatEleCar
  00050	00 00 00 00	 DD	 $LN6@WhatEleCar
  00054	00 00 00 00	 DD	 $LN8@WhatEleCar
  00058	00 00 00 00	 DD	 $LN7@WhatEleCar
?WhatEleCard@CItemUpgrade@@QAEKK@Z ENDP			; CItemUpgrade::WhatEleCard
_TEXT	ENDS
; Function compile flags: /Ogtp
; File C:\IAGOS\server\v18\Source\Source\WorldServer\ItemUpgrade.cpp
; File C:\Program Files\Microsoft Visual Studio\2022\Professional\VC\Tools\MSVC\14.44.35207\include\xtree
; File C:\IAGOS\server\v18\Source\Source\WorldServer\ItemUpgrade.cpp
; File C:\Program Files\Microsoft Visual Studio\2022\Professional\VC\Tools\MSVC\14.44.35207\include\xtree
; File C:\IAGOS\server\v18\Source\Source\WorldServer\ItemUpgrade.cpp
; File C:\Program Files\Microsoft Visual Studio\2022\Professional\VC\Tools\MSVC\14.44.35207\include\xtree
; File C:\IAGOS\server\v18\Source\Source\WorldServer\ItemUpgrade.cpp
; File C:\Program Files\Microsoft Visual Studio\2022\Professional\VC\Tools\MSVC\14.44.35207\include\xtree
; File C:\Program Files\Microsoft Visual Studio\2022\Professional\VC\Tools\MSVC\14.44.35207\include\type_traits
; File C:\Program Files\Microsoft Visual Studio\2022\Professional\VC\Tools\MSVC\14.44.35207\include\xtree
; File C:\IAGOS\server\v18\Source\Source\WorldServer\ItemUpgrade.cpp
;	COMDAT ?GetAttributeEnchantProb@CItemUpgrade@@QAEHH@Z
_TEXT	SEGMENT
__Loc$1 = -12						; size = 12
_nAbilityOption$ = 8					; size = 4
$T2 = 8							; size = 4
?GetAttributeEnchantProb@CItemUpgrade@@QAEHH@Z PROC	; CItemUpgrade::GetAttributeEnchantProb, COMDAT
; _this$ = ecx

; 1889 : {

  00000	55		 push	 ebp
  00001	8b ec		 mov	 ebp, esp
  00003	83 ec 0c	 sub	 esp, 12			; 0000000cH
  00006	56		 push	 esi

; 1890 : 	map<int, __ATTRIBUTE_ENCHANT>::iterator it = m_mapAttributeEnchant.find( nAbilityOption + 1 );

  00007	8b 75 08	 mov	 esi, DWORD PTR _nAbilityOption$[ebp]
; File C:\Program Files\Microsoft Visual Studio\2022\Professional\VC\Tools\MSVC\14.44.35207\include\xtree

; 1384 :         const _Tree_find_result<_Nodeptr> _Loc = _Find_lower_bound(_Keyval);

  0000a	8d 45 08	 lea	 eax, DWORD PTR $T2[ebp]
; File C:\IAGOS\server\v18\Source\Source\WorldServer\ItemUpgrade.cpp

; 1889 : {

  0000d	57		 push	 edi
; File C:\Program Files\Microsoft Visual Studio\2022\Professional\VC\Tools\MSVC\14.44.35207\include\xtree

; 1384 :         const _Tree_find_result<_Nodeptr> _Loc = _Find_lower_bound(_Keyval);

  0000e	50		 push	 eax
; File C:\IAGOS\server\v18\Source\Source\WorldServer\ItemUpgrade.cpp

; 1890 : 	map<int, __ATTRIBUTE_ENCHANT>::iterator it = m_mapAttributeEnchant.find( nAbilityOption + 1 );

  0000f	8d 79 20	 lea	 edi, DWORD PTR [ecx+32]
  00012	46		 inc	 esi
; File C:\Program Files\Microsoft Visual Studio\2022\Professional\VC\Tools\MSVC\14.44.35207\include\xtree

; 1384 :         const _Tree_find_result<_Nodeptr> _Loc = _Find_lower_bound(_Keyval);

  00013	8d 45 f4	 lea	 eax, DWORD PTR __Loc$1[ebp]
; File C:\IAGOS\server\v18\Source\Source\WorldServer\ItemUpgrade.cpp

; 1890 : 	map<int, __ATTRIBUTE_ENCHANT>::iterator it = m_mapAttributeEnchant.find( nAbilityOption + 1 );

  00016	89 75 08	 mov	 DWORD PTR $T2[ebp], esi
; File C:\Program Files\Microsoft Visual Studio\2022\Professional\VC\Tools\MSVC\14.44.35207\include\xtree

; 1384 :         const _Tree_find_result<_Nodeptr> _Loc = _Find_lower_bound(_Keyval);

  00019	50		 push	 eax
  0001a	8b cf		 mov	 ecx, edi
  0001c	e8 00 00 00 00	 call	 ??$_Find_lower_bound@H@?$_Tree@V?$_Tmap_traits@HU__ATTRIBUTE_ENCHANT@@U?$less@H@std@@V?$allocator@U?$pair@$$CBHU__ATTRIBUTE_ENCHANT@@@std@@@3@$0A@@std@@@std@@IBE?AU?$_Tree_find_result@PAU?$_Tree_node@U?$pair@$$CBHU__ATTRIBUTE_ENCHANT@@@std@@PAX@std@@@1@ABH@Z ; std::_Tree<std::_Tmap_traits<int,__ATTRIBUTE_ENCHANT,std::less<int>,std::allocator<std::pair<int const ,__ATTRIBUTE_ENCHANT> >,0> >::_Find_lower_bound<int>

; 1624 :         return !_Bound->_Isnil && !_DEBUG_LT_PRED(_Getcomp(), _Keyval, _Traits::_Kfn(_Bound->_Myval));

  00021	8b 45 fc	 mov	 eax, DWORD PTR __Loc$1[ebp+8]
  00024	80 78 0d 00	 cmp	 BYTE PTR [eax+13], 0
  00028	75 14		 jne	 SHORT $LN2@GetAttribu
; File C:\Program Files\Microsoft Visual Studio\2022\Professional\VC\Tools\MSVC\14.44.35207\include\type_traits

; 2380 :         return _Left < _Right;

  0002a	3b 70 10	 cmp	 esi, DWORD PTR [eax+16]
; File C:\Program Files\Microsoft Visual Studio\2022\Professional\VC\Tools\MSVC\14.44.35207\include\xtree

; 1624 :         return !_Bound->_Isnil && !_DEBUG_LT_PRED(_Getcomp(), _Keyval, _Traits::_Kfn(_Bound->_Myval));

  0002d	7c 0f		 jl	 SHORT $LN2@GetAttribu

; 37   :     _Tree_unchecked_const_iterator(_Nodeptr _Pnode, const _Mytree* _Plist) noexcept : _Ptr(_Pnode) {

  0002f	3b 07		 cmp	 eax, DWORD PTR [edi]
; File C:\IAGOS\server\v18\Source\Source\WorldServer\ItemUpgrade.cpp

; 1891 : 	if( it != m_mapAttributeEnchant.end() )

  00031	74 0b		 je	 SHORT $LN2@GetAttribu

; 1892 : 		return it->second.nProb;

  00033	8b 40 14	 mov	 eax, DWORD PTR [eax+20]
  00036	5f		 pop	 edi

; 1895 : }

  00037	5e		 pop	 esi
  00038	8b e5		 mov	 esp, ebp
  0003a	5d		 pop	 ebp
  0003b	c2 04 00	 ret	 4
$LN2@GetAttribu:
  0003e	5f		 pop	 edi

; 1893 : 
; 1894 : 	return 0;

  0003f	33 c0		 xor	 eax, eax

; 1895 : }

  00041	5e		 pop	 esi
  00042	8b e5		 mov	 esp, ebp
  00044	5d		 pop	 ebp
  00045	c2 04 00	 ret	 4
?GetAttributeEnchantProb@CItemUpgrade@@QAEHH@Z ENDP	; CItemUpgrade::GetAttributeEnchantProb
_TEXT	ENDS
; Function compile flags: /Ogtp
; File C:\IAGOS\server\v18\Source\Source\WorldServer\ItemUpgrade.cpp
; File C:\IAGOS\server\v18\Source\Source\_Common\Item.h
; File C:\IAGOS\server\v18\Source\Source\_Common\Project.h
; File C:\IAGOS\server\v18\Source\Source\_Common\data.h
; File C:\IAGOS\server\v18\Source\Source\_Common\Project.h
; File C:\IAGOS\server\v18\Source\Source\WorldServer\ItemUpgrade.cpp
; File C:\IAGOS\server\v18\Source\Source\_Common\Item.h
; File C:\IAGOS\server\v18\Source\Source\_Common\Project.h
; File C:\IAGOS\server\v18\Source\Source\_Common\data.h
; File C:\IAGOS\server\v18\Source\Source\_Common\Project.h
; File C:\IAGOS\server\v18\Source\Source\WorldServer\ItemUpgrade.cpp
; File C:\IAGOS\server\v18\Source\Source\_Common\Item.h
; File C:\IAGOS\server\v18\Source\Source\_Common\Project.h
; File C:\IAGOS\server\v18\Source\Source\_Common\data.h
; File C:\IAGOS\server\v18\Source\Source\_Common\Project.h
; File C:\IAGOS\server\v18\Source\Source\WorldServer\ItemUpgrade.cpp
; File C:\IAGOS\server\v18\Source\Source\_Common\Item.h
; File C:\IAGOS\server\v18\Source\Source\WorldServer\ItemUpgrade.cpp
; File C:\IAGOS\server\v18\Source\Source\_Common\Item.h
; File C:\IAGOS\server\v18\Source\Source\_Common\Project.h
; File C:\IAGOS\server\v18\Source\Source\_Common\data.h
; File C:\IAGOS\server\v18\Source\Source\_Common\Project.h
; File C:\IAGOS\server\v18\Source\Source\WorldServer\ItemUpgrade.cpp
; File C:\IAGOS\server\v18\Source\Source\_Common\Project.h
; File C:\IAGOS\server\v18\Source\Source\_Common\data.h
; File C:\IAGOS\server\v18\Source\Source\WorldServer\ItemUpgrade.cpp
; File C:\IAGOS\server\v18\Source\Source\_Common\Project.h
; File C:\IAGOS\server\v18\Source\Source\_Common\data.h
; File C:\IAGOS\server\v18\Source\Source\WorldServer\ItemUpgrade.cpp
; File C:\IAGOS\server\v18\Source\Source\_Common\xUtil.h
; File C:\IAGOS\server\v18\Source\Source\WorldServer\ItemUpgrade.cpp
; File C:\IAGOS\server\v18\Source\Source\_Common\Mover.h
; File C:\IAGOS\server\v18\Source\Source\WorldServer\ItemUpgrade.cpp
; File C:\IAGOS\server\v18\Source\Source\_Common\Obj.h
; File C:\IAGOS\server\v18\Source\Source\WorldServer\ItemUpgrade.cpp
; File C:\IAGOS\server\v18\Source\Source\_Common\Obj.h
; File C:\IAGOS\server\v18\Source\Source\WorldServer\ItemUpgrade.cpp
; File C:\IAGOS\server\v18\Source\Source\_Common\Obj.h
; File C:\IAGOS\server\v18\Source\Source\WorldServer\ItemUpgrade.cpp
; File C:\IAGOS\server\v18\Source\Source\_Common\Mover.h
; File C:\IAGOS\server\v18\Source\Source\WorldServer\ItemUpgrade.cpp
; File C:\IAGOS\server\v18\Source\Source\_Common\Obj.h
; File C:\IAGOS\server\v18\Source\Source\WorldServer\ItemUpgrade.cpp
; File C:\IAGOS\server\v18\Source\Source\_Common\Obj.h
; File C:\IAGOS\server\v18\Source\Source\WorldServer\ItemUpgrade.cpp
; File C:\IAGOS\server\v18\Source\Source\_Common\Obj.h
; File C:\IAGOS\server\v18\Source\Source\WorldServer\ItemUpgrade.cpp
;	COMDAT ?EnchantAttribute@CItemUpgrade@@QAEXPAVCUser@@PAVCItemElem@@1@Z
_TEXT	SEGMENT
$T1 = -252						; size = 12
$T2 = -252						; size = 12
$T3 = -240						; size = 12
$T4 = -240						; size = 12
$T5 = -228						; size = 12
$T6 = -228						; size = 12
_pItemMaterial$GSCopy$1$ = -216				; size = 4
_dwReqCard$1$ = -212					; size = 4
_bSmelprot$1$ = -212					; size = 4
_nPercent$1$ = -208					; size = 4
_this$GSCopy$1$ = -208					; size = 4
_aLogItem$ = -204					; size = 200
__$ArrayPad$ = -4					; size = 4
_pUser$ = 8						; size = 4
_pItemMain$ = 12					; size = 4
_pItemMaterial$ = 16					; size = 4
?EnchantAttribute@CItemUpgrade@@QAEXPAVCUser@@PAVCItemElem@@1@Z PROC ; CItemUpgrade::EnchantAttribute, COMDAT
; _this$ = ecx

; 1637 : {

  00000	55		 push	 ebp
  00001	8b ec		 mov	 ebp, esp
  00003	81 ec fc 00 00
	00		 sub	 esp, 252		; 000000fcH
  00009	a1 00 00 00 00	 mov	 eax, DWORD PTR ___security_cookie
  0000e	33 c5		 xor	 eax, ebp
  00010	89 45 fc	 mov	 DWORD PTR __$ArrayPad$[ebp], eax
  00013	53		 push	 ebx
  00014	8b 5d 10	 mov	 ebx, DWORD PTR _pItemMaterial$[ebp]
  00017	56		 push	 esi
  00018	8b 75 08	 mov	 esi, DWORD PTR _pUser$[ebp]
  0001b	57		 push	 edi
  0001c	8b 7d 0c	 mov	 edi, DWORD PTR _pItemMain$[ebp]
  0001f	89 8d 30 ff ff
	ff		 mov	 DWORD PTR _this$GSCopy$1$[ebp], ecx
  00025	89 9d 28 ff ff
	ff		 mov	 DWORD PTR _pItemMaterial$GSCopy$1$[ebp], ebx

; 1638 : 	int*  pAbilityOption = &(pItemMain->m_nResistAbilityOption);

  0002b	8d 87 80 00 00
	00		 lea	 eax, DWORD PTR [edi+128]

; 1639 : 	if( pAbilityOption == NULL )

  00031	85 c0		 test	 eax, eax
  00033	0f 84 ea 05 00
	00		 je	 $LN1@EnchantAtt

; 1640 : 		return;
; 1641 : 
; 1642 : 	// 2░Ī┴÷ ╝ė╝║└║ ┴”Ę├Ūę╝÷ Š°└Į
; 1643 : 	if( pItemMain->m_bItemResist != SAI79::NO_PROP )

  00039	80 7f 7c 00	 cmp	 BYTE PTR [edi+124], 0
  0003d	8b 0d 40 02 00
	00		 mov	 ecx, DWORD PTR ?prj@@3VCProject@@A+576
  00043	74 60		 je	 SHORT $LN142@EnchantAtt
; File C:\IAGOS\server\v18\Source\Source\_Common\Item.h

; 230  : 	ItemProp*	GetProp()	{	return prj.GetItemProp( m_dwItemId );	}

  00045	8b 53 0c	 mov	 edx, DWORD PTR [ebx+12]
; File C:\IAGOS\server\v18\Source\Source\_Common\Project.h

; 1389 : 	VERIFY_RANGE_ASSERT( nIndex, 0, m_aPropItem.GetSize(), "GetItemProp range_error", NULL );

  00048	85 d2		 test	 edx, edx
  0004a	78 10		 js	 SHORT $LN143@EnchantAtt
  0004c	3b d1		 cmp	 edx, ecx
  0004e	7d 0c		 jge	 SHORT $LN143@EnchantAtt
; File C:\IAGOS\server\v18\Source\Source\_Common\data.h

; 270  : 	if( dwIndex >= (DWORD)m_nMaxIndex )

  00050	73 26		 jae	 SHORT $LN184@EnchantAtt

; 272  : 	return (T*) m_apOffset[ dwIndex ];

  00052	a1 30 02 00 00	 mov	 eax, DWORD PTR ?prj@@3VCProject@@A+560
  00057	8b 14 90	 mov	 edx, DWORD PTR [eax+edx*4]
; File C:\IAGOS\server\v18\Source\Source\_Common\Project.h

; 1390 : 	return m_aPropItem.GetAt( nIndex ); 

  0005a	eb 1e		 jmp	 SHORT $LN41@EnchantAtt
$LN143@EnchantAtt:

; 579  : 	LPCTSTR szErr = Error( _T( "%s min:%d, max:%d, index:%d" ), szMsg, nMin, nMax, nIndex ); 

  0005c	52		 push	 edx
  0005d	51		 push	 ecx
  0005e	6a 00		 push	 0
  00060	68 00 00 00 00	 push	 OFFSET ??_C@_0BI@BEIFNGEL@GetItemProp?5range_error@
  00065	68 00 00 00 00	 push	 OFFSET ??_C@_0BM@HMFGHCP@?$CFs?5min?3?$CFd?0?5max?3?$CFd?0?5index?3?$CFd@
  0006a	e8 00 00 00 00	 call	 ?Error@@YAPBDPBDZZ	; Error

; 1389 : 	VERIFY_RANGE_ASSERT( nIndex, 0, m_aPropItem.GetSize(), "GetItemProp range_error", NULL );

  0006f	8b 0d 40 02 00
	00		 mov	 ecx, DWORD PTR ?prj@@3VCProject@@A+576

; 579  : 	LPCTSTR szErr = Error( _T( "%s min:%d, max:%d, index:%d" ), szMsg, nMin, nMax, nIndex ); 

  00075	83 c4 14	 add	 esp, 20			; 00000014H
$LN184@EnchantAtt:
; File C:\IAGOS\server\v18\Source\Source\WorldServer\ItemUpgrade.cpp

; 1645 : 		if( pItemMain->m_bItemResist != pItemMaterial->GetProp()->eItemType )

  00078	33 d2		 xor	 edx, edx
$LN41@EnchantAtt:
  0007a	0f b6 47 7c	 movzx	 eax, BYTE PTR [edi+124]
  0007e	3b 82 f0 00 00
	00		 cmp	 eax, DWORD PTR [edx+240]
  00084	74 1f		 je	 SHORT $LN142@EnchantAtt

; 1646 : 		{
; 1647 : 			pUser->AddDefinedText( TID_UPGRADE_ERROR_TWOELEMENT );								

  00086	68 9c 08 00 00	 push	 2204			; 0000089cH
  0008b	8b ce		 mov	 ecx, esi
  0008d	e8 00 00 00 00	 call	 ?AddDefinedText@CUser@@QAEXH@Z ; CUser::AddDefinedText
  00092	5f		 pop	 edi

; 1820 : }

  00093	5e		 pop	 esi
  00094	5b		 pop	 ebx
  00095	8b 4d fc	 mov	 ecx, DWORD PTR __$ArrayPad$[ebp]
  00098	33 cd		 xor	 ecx, ebp
  0009a	e8 00 00 00 00	 call	 @__security_check_cookie@4
  0009f	8b e5		 mov	 esp, ebp
  000a1	5d		 pop	 ebp
  000a2	c2 0c 00	 ret	 12			; 0000000cH
$LN142@EnchantAtt:
; File C:\IAGOS\server\v18\Source\Source\_Common\Item.h

; 230  : 	ItemProp*	GetProp()	{	return prj.GetItemProp( m_dwItemId );	}

  000a5	8b 57 0c	 mov	 edx, DWORD PTR [edi+12]
; File C:\IAGOS\server\v18\Source\Source\_Common\Project.h

; 1389 : 	VERIFY_RANGE_ASSERT( nIndex, 0, m_aPropItem.GetSize(), "GetItemProp range_error", NULL );

  000a8	85 d2		 test	 edx, edx
  000aa	78 10		 js	 SHORT $LN32@EnchantAtt
  000ac	3b d1		 cmp	 edx, ecx
  000ae	7d 0c		 jge	 SHORT $LN32@EnchantAtt
; File C:\IAGOS\server\v18\Source\Source\_Common\data.h

; 270  : 	if( dwIndex >= (DWORD)m_nMaxIndex )

  000b0	73 20		 jae	 SHORT $LN185@EnchantAtt

; 272  : 	return (T*) m_apOffset[ dwIndex ];

  000b2	a1 30 02 00 00	 mov	 eax, DWORD PTR ?prj@@3VCProject@@A+560
  000b7	8b 04 90	 mov	 eax, DWORD PTR [eax+edx*4]
; File C:\IAGOS\server\v18\Source\Source\_Common\Project.h

; 1390 : 	return m_aPropItem.GetAt( nIndex ); 

  000ba	eb 18		 jmp	 SHORT $LN27@EnchantAtt
$LN32@EnchantAtt:

; 579  : 	LPCTSTR szErr = Error( _T( "%s min:%d, max:%d, index:%d" ), szMsg, nMin, nMax, nIndex ); 

  000bc	52		 push	 edx
  000bd	51		 push	 ecx
  000be	6a 00		 push	 0
  000c0	68 00 00 00 00	 push	 OFFSET ??_C@_0BI@BEIFNGEL@GetItemProp?5range_error@
  000c5	68 00 00 00 00	 push	 OFFSET ??_C@_0BM@HMFGHCP@?$CFs?5min?3?$CFd?0?5max?3?$CFd?0?5index?3?$CFd@
  000ca	e8 00 00 00 00	 call	 ?Error@@YAPBDPBDZZ	; Error
  000cf	83 c4 14	 add	 esp, 20			; 00000014H
$LN185@EnchantAtt:
; File C:\IAGOS\server\v18\Source\Source\WorldServer\ItemUpgrade.cpp

; 1652 : 	if( !CItemElem::IsEleRefineryAble(pItemMain->GetProp()) )

  000d2	33 c0		 xor	 eax, eax
$LN27@EnchantAtt:
  000d4	50		 push	 eax
  000d5	e8 00 00 00 00	 call	 ?IsEleRefineryAble@CItemElem@@SAHPAUItemProp@@@Z ; CItemElem::IsEleRefineryAble
  000da	83 c4 04	 add	 esp, 4
  000dd	85 c0		 test	 eax, eax
  000df	75 1f		 jne	 SHORT $LN5@EnchantAtt

; 1653 : 	{
; 1654 : 		pUser->AddDefinedText( TID_GAME_NOTEQUALITEM );			

  000e1	68 4d 09 00 00	 push	 2381			; 0000094dH
  000e6	8b ce		 mov	 ecx, esi
  000e8	e8 00 00 00 00	 call	 ?AddDefinedText@CUser@@QAEXH@Z ; CUser::AddDefinedText
  000ed	5f		 pop	 edi

; 1820 : }

  000ee	5e		 pop	 esi
  000ef	5b		 pop	 ebx
  000f0	8b 4d fc	 mov	 ecx, DWORD PTR __$ArrayPad$[ebp]
  000f3	33 cd		 xor	 ecx, ebp
  000f5	e8 00 00 00 00	 call	 @__security_check_cookie@4
  000fa	8b e5		 mov	 esp, ebp
  000fc	5d		 pop	 ebp
  000fd	c2 0c 00	 ret	 12			; 0000000cH
$LN5@EnchantAtt:
; File C:\IAGOS\server\v18\Source\Source\_Common\Item.h

; 230  : 	ItemProp*	GetProp()	{	return prj.GetItemProp( m_dwItemId );	}

  00100	8b 43 0c	 mov	 eax, DWORD PTR [ebx+12]
; File C:\IAGOS\server\v18\Source\Source\_Common\Project.h

; 1389 : 	VERIFY_RANGE_ASSERT( nIndex, 0, m_aPropItem.GetSize(), "GetItemProp range_error", NULL );

  00103	8b 1d 40 02 00
	00		 mov	 ebx, DWORD PTR ?prj@@3VCProject@@A+576
  00109	85 c0		 test	 eax, eax
  0010b	78 11		 js	 SHORT $LN60@EnchantAtt
  0010d	3b c3		 cmp	 eax, ebx
  0010f	7d 0d		 jge	 SHORT $LN60@EnchantAtt
; File C:\IAGOS\server\v18\Source\Source\_Common\data.h

; 270  : 	if( dwIndex >= (DWORD)m_nMaxIndex )

  00111	73 27		 jae	 SHORT $LN186@EnchantAtt

; 272  : 	return (T*) m_apOffset[ dwIndex ];

  00113	8b 0d 30 02 00
	00		 mov	 ecx, DWORD PTR ?prj@@3VCProject@@A+560
  00119	8b 04 81	 mov	 eax, DWORD PTR [ecx+eax*4]
; File C:\IAGOS\server\v18\Source\Source\_Common\Project.h

; 1390 : 	return m_aPropItem.GetAt( nIndex ); 

  0011c	eb 1e		 jmp	 SHORT $LN55@EnchantAtt
$LN60@EnchantAtt:

; 579  : 	LPCTSTR szErr = Error( _T( "%s min:%d, max:%d, index:%d" ), szMsg, nMin, nMax, nIndex ); 

  0011e	50		 push	 eax
  0011f	53		 push	 ebx
  00120	6a 00		 push	 0
  00122	68 00 00 00 00	 push	 OFFSET ??_C@_0BI@BEIFNGEL@GetItemProp?5range_error@
  00127	68 00 00 00 00	 push	 OFFSET ??_C@_0BM@HMFGHCP@?$CFs?5min?3?$CFd?0?5max?3?$CFd?0?5index?3?$CFd@
  0012c	e8 00 00 00 00	 call	 ?Error@@YAPBDPBDZZ	; Error

; 1389 : 	VERIFY_RANGE_ASSERT( nIndex, 0, m_aPropItem.GetSize(), "GetItemProp range_error", NULL );

  00131	8b 1d 40 02 00
	00		 mov	 ebx, DWORD PTR ?prj@@3VCProject@@A+576

; 579  : 	LPCTSTR szErr = Error( _T( "%s min:%d, max:%d, index:%d" ), szMsg, nMin, nMax, nIndex ); 

  00137	83 c4 14	 add	 esp, 20			; 00000014H
$LN186@EnchantAtt:
; File C:\IAGOS\server\v18\Source\Source\WorldServer\ItemUpgrade.cpp

; 1660 : 	DWORD dwReqCard	= WhatEleCard( pItemMaterial->GetProp()->eItemType );

  0013a	33 c0		 xor	 eax, eax
$LN55@EnchantAtt:
  0013c	ff b0 f0 00 00
	00		 push	 DWORD PTR [eax+240]
  00142	8b 8d 30 ff ff
	ff		 mov	 ecx, DWORD PTR _this$GSCopy$1$[ebp]
  00148	e8 00 00 00 00	 call	 ?WhatEleCard@CItemUpgrade@@QAEKK@Z ; CItemUpgrade::WhatEleCard
; File C:\IAGOS\server\v18\Source\Source\_Common\Item.h

; 230  : 	ItemProp*	GetProp()	{	return prj.GetItemProp( m_dwItemId );	}

  0014d	8b 8d 28 ff ff
	ff		 mov	 ecx, DWORD PTR _pItemMaterial$GSCopy$1$[ebp]
; File C:\IAGOS\server\v18\Source\Source\WorldServer\ItemUpgrade.cpp

; 1660 : 	DWORD dwReqCard	= WhatEleCard( pItemMaterial->GetProp()->eItemType );

  00153	89 85 2c ff ff
	ff		 mov	 DWORD PTR _dwReqCard$1$[ebp], eax
; File C:\IAGOS\server\v18\Source\Source\_Common\Item.h

; 230  : 	ItemProp*	GetProp()	{	return prj.GetItemProp( m_dwItemId );	}

  00159	8b 49 0c	 mov	 ecx, DWORD PTR [ecx+12]
; File C:\IAGOS\server\v18\Source\Source\_Common\Project.h

; 1389 : 	VERIFY_RANGE_ASSERT( nIndex, 0, m_aPropItem.GetSize(), "GetItemProp range_error", NULL );

  0015c	85 c9		 test	 ecx, ecx
  0015e	78 10		 js	 SHORT $LN74@EnchantAtt
  00160	3b cb		 cmp	 ecx, ebx
  00162	7d 0c		 jge	 SHORT $LN74@EnchantAtt
; File C:\IAGOS\server\v18\Source\Source\_Common\data.h

; 270  : 	if( dwIndex >= (DWORD)m_nMaxIndex )

  00164	73 20		 jae	 SHORT $LN187@EnchantAtt

; 272  : 	return (T*) m_apOffset[ dwIndex ];

  00166	a1 30 02 00 00	 mov	 eax, DWORD PTR ?prj@@3VCProject@@A+560
  0016b	8b 04 88	 mov	 eax, DWORD PTR [eax+ecx*4]
; File C:\IAGOS\server\v18\Source\Source\_Common\Project.h

; 1390 : 	return m_aPropItem.GetAt( nIndex ); 

  0016e	eb 18		 jmp	 SHORT $LN69@EnchantAtt
$LN74@EnchantAtt:

; 579  : 	LPCTSTR szErr = Error( _T( "%s min:%d, max:%d, index:%d" ), szMsg, nMin, nMax, nIndex ); 

  00170	51		 push	 ecx
  00171	53		 push	 ebx
  00172	6a 00		 push	 0
  00174	68 00 00 00 00	 push	 OFFSET ??_C@_0BI@BEIFNGEL@GetItemProp?5range_error@
  00179	68 00 00 00 00	 push	 OFFSET ??_C@_0BM@HMFGHCP@?$CFs?5min?3?$CFd?0?5max?3?$CFd?0?5index?3?$CFd@
  0017e	e8 00 00 00 00	 call	 ?Error@@YAPBDPBDZZ	; Error
  00183	83 c4 14	 add	 esp, 20			; 00000014H
$LN187@EnchantAtt:
; File C:\IAGOS\server\v18\Source\Source\WorldServer\ItemUpgrade.cpp

; 1665 : 	if( pItemMaterial->GetProp()->dwID != dwReqCard )

  00186	33 c0		 xor	 eax, eax
$LN69@EnchantAtt:
  00188	8b 8d 2c ff ff
	ff		 mov	 ecx, DWORD PTR _dwReqCard$1$[ebp]
  0018e	39 08		 cmp	 DWORD PTR [eax], ecx
  00190	74 1f		 je	 SHORT $LN6@EnchantAtt

; 1666 : 	{
; 1667 : 		pUser->AddDefinedText( TID_UPGRADE_ERROR_WRONGUPLEVEL );			

  00192	68 c3 08 00 00	 push	 2243			; 000008c3H
  00197	8b ce		 mov	 ecx, esi
  00199	e8 00 00 00 00	 call	 ?AddDefinedText@CUser@@QAEXH@Z ; CUser::AddDefinedText
  0019e	5f		 pop	 edi

; 1820 : }

  0019f	5e		 pop	 esi
  001a0	5b		 pop	 ebx
  001a1	8b 4d fc	 mov	 ecx, DWORD PTR __$ArrayPad$[ebp]
  001a4	33 cd		 xor	 ecx, ebp
  001a6	e8 00 00 00 00	 call	 @__security_check_cookie@4
  001ab	8b e5		 mov	 esp, ebp
  001ad	5d		 pop	 ebp
  001ae	c2 0c 00	 ret	 12			; 0000000cH
$LN6@EnchantAtt:

; 1668 : 		return;					
; 1669 : 	}
; 1670 : 
; 1671 : 	// ├ų┤ļ ░¬└╗ │č┤┬ ░µ┐ņ ┴▀┤▄
; 1672 : 	if( *pAbilityOption >= GetMaxAttributeEnchantSize() )

  001b1	8b 8d 30 ff ff
	ff		 mov	 ecx, DWORD PTR _this$GSCopy$1$[ebp]
  001b7	8b 87 80 00 00
	00		 mov	 eax, DWORD PTR [edi+128]
  001bd	3b 41 24	 cmp	 eax, DWORD PTR [ecx+36]
  001c0	7c 1f		 jl	 SHORT $LN7@EnchantAtt

; 1673 : 	{
; 1674 : 		pUser->AddDefinedText( TID_UPGRADE_MAXOVER );			

  001c2	68 a2 08 00 00	 push	 2210			; 000008a2H
  001c7	8b ce		 mov	 ecx, esi
  001c9	e8 00 00 00 00	 call	 ?AddDefinedText@CUser@@QAEXH@Z ; CUser::AddDefinedText
  001ce	5f		 pop	 edi

; 1820 : }

  001cf	5e		 pop	 esi
  001d0	5b		 pop	 ebx
  001d1	8b 4d fc	 mov	 ecx, DWORD PTR __$ArrayPad$[ebp]
  001d4	33 cd		 xor	 ecx, ebp
  001d6	e8 00 00 00 00	 call	 @__security_check_cookie@4
  001db	8b e5		 mov	 esp, ebp
  001dd	5d		 pop	 ebp
  001de	c2 0c 00	 ret	 12			; 0000000cH
$LN7@EnchantAtt:

; 1675 : 		return;
; 1676 : 	}
; 1677 : 	// 10000┤▄└¦└Ū ╝║░° Ų█╝ŠŲ« 
; 1678 : 	int nPercent = GetAttributeEnchantProb( *pAbilityOption );

  001e1	50		 push	 eax
  001e2	e8 00 00 00 00	 call	 ?GetAttributeEnchantProb@CItemUpgrade@@QAEHH@Z ; CItemUpgrade::GetAttributeEnchantProb

; 1679 : 
; 1680 : 	LogItemInfo aLogItem;

  001e7	8d 8d 34 ff ff
	ff		 lea	 ecx, DWORD PTR _aLogItem$[ebp]
  001ed	89 85 30 ff ff
	ff		 mov	 DWORD PTR _nPercent$1$[ebp], eax
  001f3	e8 00 00 00 00	 call	 ??0_LogItemInfo@@QAE@XZ	; _LogItemInfo::_LogItemInfo

; 1681 : 	aLogItem.SendName = pUser->GetName();

  001f8	6a 00		 push	 0
  001fa	8b ce		 mov	 ecx, esi
  001fc	e8 00 00 00 00	 call	 ?GetName@CMover@@QAEPBDH@Z ; CMover::GetName

; 1682 : 	aLogItem.RecvName = "UPGRADEITEM";
; 1683 : 	aLogItem.WorldId = pUser->GetWorld()->GetID();

  00201	8b 8e 6c 01 00
	00		 mov	 ecx, DWORD PTR [esi+364]
  00207	89 85 38 ff ff
	ff		 mov	 DWORD PTR _aLogItem$[ebp+4], eax

; 1684 : 	aLogItem.Gold = pUser->GetGold();

  0020d	8b 86 e0 14 00
	00		 mov	 eax, DWORD PTR [esi+5344]
  00213	c7 85 3c ff ff
	ff 00 00 00 00	 mov	 DWORD PTR _aLogItem$[ebp+8], OFFSET ??_C@_0M@FAGCGIOJ@UPGRADEITEM@
  0021d	8b 09		 mov	 ecx, DWORD PTR [ecx]

; 1685 : 	aLogItem.Gold2 = pUser->GetGold();
; 1686 : 
; 1687 : 
; 1688 : 	BOOL bSmelprot	= FALSE;
; 1689 : 	if( pUser->HasBuff( BUFF_ITEM, II_SYS_SYS_SCR_SMELPROT ) )

  0021f	68 e0 28 00 00	 push	 10464			; 000028e0H
  00224	89 8d 40 ff ff
	ff		 mov	 DWORD PTR _aLogItem$[ebp+12], ecx
  0022a	8b ce		 mov	 ecx, esi
  0022c	6a 00		 push	 0
  0022e	89 85 44 ff ff
	ff		 mov	 DWORD PTR _aLogItem$[ebp+16], eax
  00234	89 85 48 ff ff
	ff		 mov	 DWORD PTR _aLogItem$[ebp+20], eax
  0023a	c7 85 2c ff ff
	ff 00 00 00 00	 mov	 DWORD PTR _bSmelprot$1$[ebp], 0
  00244	e8 00 00 00 00	 call	 ?HasBuff@CMover@@QAEHGG@Z ; CMover::HasBuff
  00249	85 c0		 test	 eax, eax
  0024b	74 6d		 je	 SHORT $LN9@EnchantAtt

; 1690 : 	{
; 1691 : 		bSmelprot	= TRUE;
; 1692 : 		pUser->RemoveBuff( BUFF_ITEM, II_SYS_SYS_SCR_SMELPROT );

  0024d	68 e0 28 00 00	 push	 10464			; 000028e0H
  00252	6a 00		 push	 0
  00254	8b ce		 mov	 ecx, esi
  00256	c7 85 2c ff ff
	ff 01 00 00 00	 mov	 DWORD PTR _bSmelprot$1$[ebp], 1
  00260	e8 00 00 00 00	 call	 ?RemoveBuff@CMover@@QAEXGG@Z ; CMover::RemoveBuff
; File C:\IAGOS\server\v18\Source\Source\_Common\Project.h

; 1389 : 	VERIFY_RANGE_ASSERT( nIndex, 0, m_aPropItem.GetSize(), "GetItemProp range_error", NULL );

  00265	a1 40 02 00 00	 mov	 eax, DWORD PTR ?prj@@3VCProject@@A+576
  0026a	3d e0 28 00 00	 cmp	 eax, 10464		; 000028e0H
  0026f	7f 1c		 jg	 SHORT $LN86@EnchantAtt

; 579  : 	LPCTSTR szErr = Error( _T( "%s min:%d, max:%d, index:%d" ), szMsg, nMin, nMax, nIndex ); 

  00271	68 e0 28 00 00	 push	 10464			; 000028e0H
  00276	50		 push	 eax
  00277	6a 00		 push	 0
  00279	68 00 00 00 00	 push	 OFFSET ??_C@_0BI@BEIFNGEL@GetItemProp?5range_error@
  0027e	68 00 00 00 00	 push	 OFFSET ??_C@_0BM@HMFGHCP@?$CFs?5min?3?$CFd?0?5max?3?$CFd?0?5index?3?$CFd@
  00283	e8 00 00 00 00	 call	 ?Error@@YAPBDPBDZZ	; Error
  00288	83 c4 14	 add	 esp, 20			; 00000014H

; 1389 : 	VERIFY_RANGE_ASSERT( nIndex, 0, m_aPropItem.GetSize(), "GetItemProp range_error", NULL );

  0028b	eb 2d		 jmp	 SHORT $LN9@EnchantAtt
$LN86@EnchantAtt:
; File C:\IAGOS\server\v18\Source\Source\_Common\data.h

; 270  : 	if( dwIndex >= (DWORD)m_nMaxIndex )

  0028d	77 04		 ja	 SHORT $LN95@EnchantAtt

; 271  : 		return NULL;

  0028f	33 c0		 xor	 eax, eax
  00291	eb 0b		 jmp	 SHORT $LN94@EnchantAtt
$LN95@EnchantAtt:

; 272  : 	return (T*) m_apOffset[ dwIndex ];

  00293	a1 30 02 00 00	 mov	 eax, DWORD PTR ?prj@@3VCProject@@A+560
  00298	8b 80 80 a3 00
	00		 mov	 eax, DWORD PTR [eax+41856]
$LN94@EnchantAtt:
; File C:\IAGOS\server\v18\Source\Source\WorldServer\ItemUpgrade.cpp

; 1695 : 		if( pItemProp )

  0029e	85 c0		 test	 eax, eax
  002a0	74 18		 je	 SHORT $LN9@EnchantAtt

; 1696 : 			g_dpDBClient.SendLogSMItemUse( "2", pUser, NULL, pItemProp );

  002a2	68 00 00 00 00	 push	 OFFSET ??_C@_00CNPNBAHC@@
  002a7	50		 push	 eax
  002a8	6a 00		 push	 0
  002aa	56		 push	 esi
  002ab	68 00 00 00 00	 push	 OFFSET ??_C@_01FDFGLJHB@2@
  002b0	b9 00 00 00 00	 mov	 ecx, OFFSET ?g_dpDBClient@@3VCDPDatabaseClient@@A ; g_dpDBClient
  002b5	e8 00 00 00 00	 call	 ?SendLogSMItemUse@CDPDatabaseClient@@QAEXPBDPAVCUser@@PAVCItemElem@@PAUItemProp@@0@Z ; CDPDatabaseClient::SendLogSMItemUse
$LN9@EnchantAtt:

; 1697 : 	}
; 1698 : 	
; 1699 : #if __VER >= 14 // __EXT_ATTRIBUTE
; 1700 : 	if( pUser->HasBuff( BUFF_ITEM, II_SYS_SYS_SCR_SMELTING2 ) )	// ╝ė╝║ ┴”Ę├└Ū Ą╬ĘńĖČĖ«

  002ba	68 f9 28 00 00	 push	 10489			; 000028f9H
  002bf	6a 00		 push	 0
  002c1	8b ce		 mov	 ecx, esi
  002c3	e8 00 00 00 00	 call	 ?HasBuff@CMover@@QAEHGG@Z ; CMover::HasBuff
  002c8	85 c0		 test	 eax, eax
  002ca	74 76		 je	 SHORT $LN12@EnchantAtt

; 1701 : #else // __EXT_ATTRIBUTE
; 1702 : 	if( pUser->HasBuff( BUFF_ITEM, II_SYS_SYS_SCR_SMELTING ) ) // ┴”Ę├└Ū Ą╬ĘńĖČĖ«
; 1703 : #endif // __EXT_ATTRIBUTE
; 1704 : 	{
; 1705 : #if __VER >= 14 // __EXT_ATTRIBUTE
; 1706 : 		if( *pAbilityOption < 10 )

  002cc	83 bf 80 00 00
	00 0a		 cmp	 DWORD PTR [edi+128], 10	; 0000000aH
  002d3	7d 6d		 jge	 SHORT $LN12@EnchantAtt

; 1707 : #else // __EXT_ATTRIBUTE
; 1708 : 		if( *pAbilityOption < 7 )
; 1709 : #endif // __EXT_ATTRIBUTE
; 1710 : 		{
; 1711 : 			nPercent	+= 1000;

  002d5	81 85 30 ff ff
	ff e8 03 00 00	 add	 DWORD PTR _nPercent$1$[ebp], 1000 ; 000003e8H

; 1712 : #if __VER >= 14 // __EXT_ATTRIBUTE
; 1713 : 			pUser->RemoveBuff( BUFF_ITEM, II_SYS_SYS_SCR_SMELTING2 );

  002df	8b ce		 mov	 ecx, esi
  002e1	68 f9 28 00 00	 push	 10489			; 000028f9H
  002e6	6a 00		 push	 0
  002e8	e8 00 00 00 00	 call	 ?RemoveBuff@CMover@@QAEXGG@Z ; CMover::RemoveBuff
; File C:\IAGOS\server\v18\Source\Source\_Common\Project.h

; 1389 : 	VERIFY_RANGE_ASSERT( nIndex, 0, m_aPropItem.GetSize(), "GetItemProp range_error", NULL );

  002ed	a1 40 02 00 00	 mov	 eax, DWORD PTR ?prj@@3VCProject@@A+576
  002f2	3d f9 28 00 00	 cmp	 eax, 10489		; 000028f9H
  002f7	7f 1c		 jg	 SHORT $LN118@EnchantAtt

; 579  : 	LPCTSTR szErr = Error( _T( "%s min:%d, max:%d, index:%d" ), szMsg, nMin, nMax, nIndex ); 

  002f9	68 f9 28 00 00	 push	 10489			; 000028f9H
  002fe	50		 push	 eax
  002ff	6a 00		 push	 0
  00301	68 00 00 00 00	 push	 OFFSET ??_C@_0BI@BEIFNGEL@GetItemProp?5range_error@
  00306	68 00 00 00 00	 push	 OFFSET ??_C@_0BM@HMFGHCP@?$CFs?5min?3?$CFd?0?5max?3?$CFd?0?5index?3?$CFd@
  0030b	e8 00 00 00 00	 call	 ?Error@@YAPBDPBDZZ	; Error
  00310	83 c4 14	 add	 esp, 20			; 00000014H

; 1389 : 	VERIFY_RANGE_ASSERT( nIndex, 0, m_aPropItem.GetSize(), "GetItemProp range_error", NULL );

  00313	eb 2d		 jmp	 SHORT $LN12@EnchantAtt
$LN118@EnchantAtt:
; File C:\IAGOS\server\v18\Source\Source\_Common\data.h

; 270  : 	if( dwIndex >= (DWORD)m_nMaxIndex )

  00315	77 04		 ja	 SHORT $LN127@EnchantAtt

; 271  : 		return NULL;

  00317	33 c0		 xor	 eax, eax
  00319	eb 0b		 jmp	 SHORT $LN126@EnchantAtt
$LN127@EnchantAtt:

; 272  : 	return (T*) m_apOffset[ dwIndex ];

  0031b	a1 30 02 00 00	 mov	 eax, DWORD PTR ?prj@@3VCProject@@A+560
  00320	8b 80 e4 a3 00
	00		 mov	 eax, DWORD PTR [eax+41956]
$LN126@EnchantAtt:
; File C:\IAGOS\server\v18\Source\Source\WorldServer\ItemUpgrade.cpp

; 1719 : 			if( pItemProp )

  00326	85 c0		 test	 eax, eax
  00328	74 18		 je	 SHORT $LN12@EnchantAtt

; 1720 : 				g_dpDBClient.SendLogSMItemUse( "2", pUser, NULL, pItemProp );

  0032a	68 00 00 00 00	 push	 OFFSET ??_C@_00CNPNBAHC@@
  0032f	50		 push	 eax
  00330	6a 00		 push	 0
  00332	56		 push	 esi
  00333	68 00 00 00 00	 push	 OFFSET ??_C@_01FDFGLJHB@2@
  00338	b9 00 00 00 00	 mov	 ecx, OFFSET ?g_dpDBClient@@3VCDPDatabaseClient@@A ; g_dpDBClient
  0033d	e8 00 00 00 00	 call	 ?SendLogSMItemUse@CDPDatabaseClient@@QAEXPBDPAVCUser@@PAVCItemElem@@PAUItemProp@@0@Z ; CDPDatabaseClient::SendLogSMItemUse
$LN12@EnchantAtt:

; 1721 : 		}
; 1722 : 	}
; 1723 : #ifdef __SM_ITEM_2ND_EX
; 1724 : 	BOOL bSmelprot2	= FALSE;
; 1725 : 	if( !bSmelprot && pUser->HasBuff( BUFF_ITEM, II_SYS_SYS_SCR_SMELPROT2 ) )
; 1726 : 	{
; 1727 : 		bSmelprot2	= TRUE;
; 1728 : 		pUser->RemoveBuff( BUFF_ITEM, II_SYS_SYS_SCR_SMELPROT2 );
; 1729 : 	}
; 1730 : #endif	// __SM_ITEM_2ND_EX
; 1731 : #ifndef __UPGRADE_SUCCESS_SCROLL
; 1732 : 	if( pUser->HasBuff( BUFF_ITEM, II_SYS_SYS_SCR_SUPERSMELTING ) )
; 1733 : 	{
; 1734 : 		if( *pAbilityOption < 7 )
; 1735 : 		{
; 1736 : 			nPercent	+= 10000;
; 1737 : 			pUser->RemoveBuff( BUFF_ITEM, II_SYS_SYS_SCR_SUPERSMELTING );
; 1738 : 
; 1739 : 			ItemProp* pItemProp = prj.GetItemProp( II_SYS_SYS_SCR_SUPERSMELTING );
; 1740 : 			if( pItemProp )
; 1741 : 				g_dpDBClient.SendLogSMItemUse( "2", pUser, NULL, pItemProp );
; 1742 : 		}				
; 1743 : 	}
; 1744 : 
; 1745 : #else // __UPGRADE_SUCCESS_SCROLL
; 1746 : 	if( pUser->HasBuffByIk3( IK3_GEN_ATT_ENCHANT_RATE ))

  00342	68 a6 00 00 00	 push	 166			; 000000a6H
  00347	8b ce		 mov	 ecx, esi
  00349	e8 00 00 00 00	 call	 ?HasBuffByIk3@CMover@@QAEHK@Z ; CMover::HasBuffByIk3
  0034e	85 c0		 test	 eax, eax
  00350	74 6e		 je	 SHORT $LN16@EnchantAtt

; 1747 : 	{
; 1748 : 		IBuff* pBuff = pUser->m_buffs.GetBuffByIk3( IK3_GEN_ATT_ENCHANT_RATE );

  00352	68 a6 00 00 00	 push	 166			; 000000a6H
  00357	8d 8e ec 02 00
	00		 lea	 ecx, DWORD PTR [esi+748]
  0035d	e8 00 00 00 00	 call	 ?GetBuffByIk3@CBuffMgr@@QAEPAVIBuff@@K@Z ; CBuffMgr::GetBuffByIk3

; 1749 : 		if( pBuff != NULL )

  00362	85 c0		 test	 eax, eax
  00364	74 5a		 je	 SHORT $LN16@EnchantAtt

; 1750 : 		{
; 1751 : 			ItemProp *pItemProp = pBuff->GetProp();

  00366	8b 10		 mov	 edx, DWORD PTR [eax]
  00368	8b c8		 mov	 ecx, eax
  0036a	ff 52 24	 call	 DWORD PTR [edx+36]
  0036d	8b d8		 mov	 ebx, eax

; 1752 : 			if( pItemProp )

  0036f	85 db		 test	 ebx, ebx
  00371	74 4d		 je	 SHORT $LN16@EnchantAtt

; 1753 : 			{
; 1754 : 				if( *pAbilityOption >= pItemProp->nTargetMinEnchant && *pAbilityOption <= pItemProp->nTargetMaxEnchant )

  00373	8b 87 80 00 00
	00		 mov	 eax, DWORD PTR [edi+128]
  00379	3b 83 a0 02 00
	00		 cmp	 eax, DWORD PTR [ebx+672]
  0037f	7c 3f		 jl	 SHORT $LN16@EnchantAtt
  00381	3b 83 a4 02 00
	00		 cmp	 eax, DWORD PTR [ebx+676]
  00387	7f 37		 jg	 SHORT $LN16@EnchantAtt

; 1755 : 				{
; 1756 : 					nPercent += pItemProp->nEffectValue;

  00389	8b 85 30 ff ff
	ff		 mov	 eax, DWORD PTR _nPercent$1$[ebp]

; 1757 : 					pUser->RemoveBuff( BUFF_ITEM, pItemProp->dwID );

  0038f	8b ce		 mov	 ecx, esi
  00391	03 83 9c 02 00
	00		 add	 eax, DWORD PTR [ebx+668]
  00397	89 85 30 ff ff
	ff		 mov	 DWORD PTR _nPercent$1$[ebp], eax
  0039d	0f b7 03	 movzx	 eax, WORD PTR [ebx]
  003a0	50		 push	 eax
  003a1	6a 00		 push	 0
  003a3	e8 00 00 00 00	 call	 ?RemoveBuff@CMover@@QAEXGG@Z ; CMover::RemoveBuff

; 1758 : 					g_dpDBClient.SendLogSMItemUse( "2", pUser, NULL, pItemProp );

  003a8	68 00 00 00 00	 push	 OFFSET ??_C@_00CNPNBAHC@@
  003ad	53		 push	 ebx
  003ae	6a 00		 push	 0
  003b0	56		 push	 esi
  003b1	68 00 00 00 00	 push	 OFFSET ??_C@_01FDFGLJHB@2@
  003b6	b9 00 00 00 00	 mov	 ecx, OFFSET ?g_dpDBClient@@3VCDPDatabaseClient@@A ; g_dpDBClient
  003bb	e8 00 00 00 00	 call	 ?SendLogSMItemUse@CDPDatabaseClient@@QAEXPBDPAVCUser@@PAVCItemElem@@PAUItemProp@@0@Z ; CDPDatabaseClient::SendLogSMItemUse
$LN16@EnchantAtt:
; File C:\IAGOS\server\v18\Source\Source\_Common\xUtil.h

; 16   : 	g_next = g_next * 1103515245 + 12345;// + nRandomSeed[ i++ ];

  003c0	69 0d 00 00 00
	00 6d 4e c6 41	 imul	 ecx, DWORD PTR ?g_next@@3KA, 1103515245 ; g_next

; 22   : 	return  xRand() % num;

  003ca	b8 59 17 b7 d1	 mov	 eax, -776530087		; d1b71759H

; 16   : 	g_next = g_next * 1103515245 + 12345;// + nRandomSeed[ i++ ];

  003cf	81 c1 39 30 00
	00		 add	 ecx, 12345		; 00003039H

; 22   : 	return  xRand() % num;

  003d5	f7 e1		 mul	 ecx

; 16   : 	g_next = g_next * 1103515245 + 12345;// + nRandomSeed[ i++ ];

  003d7	89 0d 00 00 00
	00		 mov	 DWORD PTR ?g_next@@3KA, ecx ; g_next

; 22   : 	return  xRand() % num;

  003dd	c1 ea 0d	 shr	 edx, 13			; 0000000dH
  003e0	69 c2 10 27 00
	00		 imul	 eax, edx, 10000
  003e6	2b c8		 sub	 ecx, eax
; File C:\IAGOS\server\v18\Source\Source\WorldServer\ItemUpgrade.cpp

; 1765 : 	if( (int)( xRandom( 10000 ) ) > nPercent )

  003e8	3b 8d 30 ff ff
	ff		 cmp	 ecx, DWORD PTR _nPercent$1$[ebp]
  003ee	8b ce		 mov	 ecx, esi
  003f0	0f 8e fb 00 00
	00		 jle	 $LN17@EnchantAtt

; 1766 : 	{
; 1767 : 		// ĮŪŲą Ė▐╝╝┴÷ ├ŌĘ┬
; 1768 : 		pUser->AddDefinedText( TID_UPGRADE_FAIL );

  003f6	68 9e 08 00 00	 push	 2206			; 0000089eH
  003fb	e8 00 00 00 00	 call	 ?AddDefinedText@CUser@@QAEXH@Z ; CUser::AddDefinedText

; 1769 : 		pUser->AddPlaySound( SND_INF_UPGRADEFAIL );

  00400	6a 0d		 push	 13			; 0000000dH
  00402	8b ce		 mov	 ecx, esi
  00404	e8 00 00 00 00	 call	 ?AddPlaySound@CUser@@QAEXK@Z ; CUser::AddPlaySound
; File C:\IAGOS\server\v18\Source\Source\_Common\Mover.h

; 1740 : 		if( GetAdjParam(DST_CHRSTATE) & CHS_INVISIBILITY )	// ĖČ╣²┼§ĖĒ╚Ł░Ī ░╔Ę╚┤┬░Ī?

  00409	6a 40		 push	 64			; 00000040H
  0040b	8b ce		 mov	 ecx, esi
  0040d	e8 00 00 00 00	 call	 ?GetAdjParam@CMover@@QAEHH@Z ; CMover::GetAdjParam
  00412	a9 00 04 00 00	 test	 eax, 1024		; 00000400H
  00417	75 7f		 jne	 SHORT $LN19@EnchantAtt
; File C:\IAGOS\server\v18\Source\Source\WorldServer\ItemUpgrade.cpp

; 1771 : 		if((pUser->IsMode( TRANSPARENT_MODE ) ) == 0)

  00419	f6 86 40 02 00
	00 02		 test	 BYTE PTR [esi+576], 2
  00420	75 76		 jne	 SHORT $LN19@EnchantAtt
; File C:\IAGOS\server\v18\Source\Source\_Common\Obj.h

; 215  : 	D3DXVECTOR3		GetPos()	{ return m_vPos; }

  00422	f3 0f 7e 86 60
	01 00 00	 movq	 xmm0, QWORD PTR [esi+352]
; File C:\IAGOS\server\v18\Source\Source\WorldServer\ItemUpgrade.cpp

; 1772 : 			g_UserMng.AddCreateSfxObj((CMover *)pUser, XI_INT_FAIL, pUser->GetPos().x, pUser->GetPos().y, pUser->GetPos().z);

  0042a	b9 00 00 00 00	 mov	 ecx, OFFSET ?g_UserMng@@3VCUserMng@@A ; g_UserMng
; File C:\IAGOS\server\v18\Source\Source\_Common\Obj.h

; 215  : 	D3DXVECTOR3		GetPos()	{ return m_vPos; }

  0042f	8b 86 68 01 00
	00		 mov	 eax, DWORD PTR [esi+360]
  00435	66 0f d6 85 1c
	ff ff ff	 movq	 QWORD PTR $T5[ebp], xmm0
  0043d	f3 0f 7e c0	 movq	 xmm0, xmm0
  00441	66 0f d6 85 10
	ff ff ff	 movq	 QWORD PTR $T3[ebp], xmm0
  00449	f3 0f 7e 86 60
	01 00 00	 movq	 xmm0, QWORD PTR [esi+352]
; File C:\IAGOS\server\v18\Source\Source\WorldServer\ItemUpgrade.cpp

; 1772 : 			g_UserMng.AddCreateSfxObj((CMover *)pUser, XI_INT_FAIL, pUser->GetPos().x, pUser->GetPos().y, pUser->GetPos().z);

  00451	6a 00		 push	 0
  00453	83 ec 0c	 sub	 esp, 12			; 0000000cH
; File C:\IAGOS\server\v18\Source\Source\_Common\Obj.h

; 215  : 	D3DXVECTOR3		GetPos()	{ return m_vPos; }

  00456	66 0f d6 85 04
	ff ff ff	 movq	 QWORD PTR $T1[ebp], xmm0
  0045e	89 85 24 ff ff
	ff		 mov	 DWORD PTR $T5[ebp+8], eax
; File C:\IAGOS\server\v18\Source\Source\WorldServer\ItemUpgrade.cpp

; 1772 : 			g_UserMng.AddCreateSfxObj((CMover *)pUser, XI_INT_FAIL, pUser->GetPos().x, pUser->GetPos().y, pUser->GetPos().z);

  00464	f3 0f 10 85 24
	ff ff ff	 movss	 xmm0, DWORD PTR $T5[ebp+8]
  0046c	f3 0f 11 44 24
	08		 movss	 DWORD PTR [esp+8], xmm0
  00472	f3 0f 10 85 14
	ff ff ff	 movss	 xmm0, DWORD PTR $T3[ebp+4]
  0047a	f3 0f 11 44 24
	04		 movss	 DWORD PTR [esp+4], xmm0
  00480	f3 0f 10 85 04
	ff ff ff	 movss	 xmm0, DWORD PTR $T1[ebp]
  00488	f3 0f 11 04 24	 movss	 DWORD PTR [esp], xmm0
  0048d	68 b3 06 00 00	 push	 1715			; 000006b3H
  00492	56		 push	 esi
  00493	e8 00 00 00 00	 call	 ?AddCreateSfxObj@CUserMng@@QAEXPAVCCtrl@@KMMMH@Z ; CUserMng::AddCreateSfxObj
$LN19@EnchantAtt:

; 1773 : 
; 1774 : 		// ĮŪŲąŪŽĖķ nLevDown└╠╗¾└╠Ėķ ŠŲ└╠┼█ ╗Ķ┴”
; 1775 : 		if( *pAbilityOption >= 3 )

  00498	83 bf 80 00 00
	00 03		 cmp	 DWORD PTR [edi+128], 3
  0049f	7c 41		 jl	 SHORT $LN20@EnchantAtt

; 1776 : 		{
; 1777 : 			if( !bSmelprot )

  004a1	83 bd 2c ff ff
	ff 00		 cmp	 DWORD PTR _bSmelprot$1$[ebp], 0
  004a8	0f 85 40 01 00
	00		 jne	 $LN18@EnchantAtt

; 1778 : 			{	// ╗ń┐ļŠ╚ŪŽĖķ ĄķŠŅ┐╚.. ┤ļ╗¾ ŠŲ└╠┼█ ╗Ķ┴” ĮŪŲą Ę╬▒ū
; 1779 : #ifdef __SM_ITEM_2ND_EX
; 1780 : 				if( bSmelprot2  )
; 1781 : 				{
; 1782 : 					pUser->UpdateItem( (BYTE)pItemMain->m_dwObjId, UI_RAO, pItemMain->m_nResistAbilityOption - 1 );
; 1783 : 					aLogItem.Action = "8";
; 1784 : 					g_DPSrvr.OnLogItem( aLogItem, pItemMain, pItemMain->m_nItemNum );
; 1785 : 				}
; 1786 : 				else
; 1787 : #endif	// __SM_ITEM_2ND_EX
; 1788 : 				{
; 1789 : 					aLogItem.Action = "L";
; 1790 : 					g_DPSrvr.OnLogItem( aLogItem, pItemMain, pItemMain->m_nItemNum );

  004ae	0f bf 47 74	 movsx	 eax, WORD PTR [edi+116]
  004b2	b9 00 00 00 00	 mov	 ecx, OFFSET ?g_DPSrvr@@3VCDPSrvr@@A ; g_DPSrvr
  004b7	50		 push	 eax
  004b8	57		 push	 edi
  004b9	8d 85 34 ff ff
	ff		 lea	 eax, DWORD PTR _aLogItem$[ebp]
  004bf	c7 85 34 ff ff
	ff 00 00 00 00	 mov	 DWORD PTR _aLogItem$[ebp], OFFSET ??_C@_01OCOKONAJ@L@
  004c9	50		 push	 eax
  004ca	e8 00 00 00 00	 call	 ?OnLogItem@CDPSrvr@@QAEXAAU_LogItemInfo@@PAVCItemElem@@H@Z ; CDPSrvr::OnLogItem

; 1791 : 					pUser->RemoveItem( (BYTE)( pItemMain->m_dwObjId ), (short)1 );

  004cf	0f b6 47 04	 movzx	 eax, BYTE PTR [edi+4]
  004d3	8b ce		 mov	 ecx, esi
  004d5	6a 01		 push	 1
  004d7	50		 push	 eax
  004d8	e8 00 00 00 00	 call	 ?RemoveItem@CMover@@QAEXEF@Z ; CMover::RemoveItem

; 1792 : 				}
; 1793 : 			}
; 1794 : 		}

  004dd	e9 0c 01 00 00	 jmp	 $LN18@EnchantAtt
$LN20@EnchantAtt:

; 1795 : 		else
; 1796 : 		{	// ╗ń┐ļ└╗ ŪŽĖķ ĮŪŲą Ę╬▒ū
; 1797 : 			aLogItem.Action = "J";

  004e2	c7 85 34 ff ff
	ff 00 00 00 00	 mov	 DWORD PTR _aLogItem$[ebp], OFFSET ??_C@_01LELAEKIP@J@

; 1798 : 			g_DPSrvr.OnLogItem( aLogItem, pItemMain, pItemMain->m_nItemNum );
; 1799 : 		}
; 1800 : 	}

  004ec	e9 e6 00 00 00	 jmp	 $LN188@EnchantAtt
$LN17@EnchantAtt:

; 1801 : 	else
; 1802 : 	{
; 1803 : 		// ╝║░°
; 1804 : 		pUser->AddDefinedText( TID_UPGRADE_SUCCEEFUL );

  004f1	68 9d 08 00 00	 push	 2205			; 0000089dH
  004f6	e8 00 00 00 00	 call	 ?AddDefinedText@CUser@@QAEXH@Z ; CUser::AddDefinedText

; 1805 : 		pUser->AddPlaySound( SND_INF_UPGRADESUCCESS );

  004fb	6a 0e		 push	 14			; 0000000eH
  004fd	8b ce		 mov	 ecx, esi
  004ff	e8 00 00 00 00	 call	 ?AddPlaySound@CUser@@QAEXK@Z ; CUser::AddPlaySound
; File C:\IAGOS\server\v18\Source\Source\_Common\Mover.h

; 1740 : 		if( GetAdjParam(DST_CHRSTATE) & CHS_INVISIBILITY )	// ĖČ╣²┼§ĖĒ╚Ł░Ī ░╔Ę╚┤┬░Ī?

  00504	6a 40		 push	 64			; 00000040H
  00506	8b ce		 mov	 ecx, esi
  00508	e8 00 00 00 00	 call	 ?GetAdjParam@CMover@@QAEHH@Z ; CMover::GetAdjParam
  0050d	a9 00 04 00 00	 test	 eax, 1024		; 00000400H
  00512	75 7f		 jne	 SHORT $LN23@EnchantAtt
; File C:\IAGOS\server\v18\Source\Source\WorldServer\ItemUpgrade.cpp

; 1807 : 		if((pUser->IsMode( TRANSPARENT_MODE ) ) == 0)

  00514	f6 86 40 02 00
	00 02		 test	 BYTE PTR [esi+576], 2
  0051b	75 76		 jne	 SHORT $LN23@EnchantAtt
; File C:\IAGOS\server\v18\Source\Source\_Common\Obj.h

; 215  : 	D3DXVECTOR3		GetPos()	{ return m_vPos; }

  0051d	f3 0f 7e 86 60
	01 00 00	 movq	 xmm0, QWORD PTR [esi+352]
; File C:\IAGOS\server\v18\Source\Source\WorldServer\ItemUpgrade.cpp

; 1808 : 			g_UserMng.AddCreateSfxObj((CMover *)pUser, XI_INT_SUCCESS, pUser->GetPos().x, pUser->GetPos().y, pUser->GetPos().z);

  00525	b9 00 00 00 00	 mov	 ecx, OFFSET ?g_UserMng@@3VCUserMng@@A ; g_UserMng
; File C:\IAGOS\server\v18\Source\Source\_Common\Obj.h

; 215  : 	D3DXVECTOR3		GetPos()	{ return m_vPos; }

  0052a	8b 86 68 01 00
	00		 mov	 eax, DWORD PTR [esi+360]
  00530	66 0f d6 85 04
	ff ff ff	 movq	 QWORD PTR $T2[ebp], xmm0
  00538	f3 0f 7e c0	 movq	 xmm0, xmm0
  0053c	66 0f d6 85 10
	ff ff ff	 movq	 QWORD PTR $T4[ebp], xmm0
  00544	f3 0f 7e 86 60
	01 00 00	 movq	 xmm0, QWORD PTR [esi+352]
; File C:\IAGOS\server\v18\Source\Source\WorldServer\ItemUpgrade.cpp

; 1808 : 			g_UserMng.AddCreateSfxObj((CMover *)pUser, XI_INT_SUCCESS, pUser->GetPos().x, pUser->GetPos().y, pUser->GetPos().z);

  0054c	6a 00		 push	 0
  0054e	83 ec 0c	 sub	 esp, 12			; 0000000cH
; File C:\IAGOS\server\v18\Source\Source\_Common\Obj.h

; 215  : 	D3DXVECTOR3		GetPos()	{ return m_vPos; }

  00551	66 0f d6 85 1c
	ff ff ff	 movq	 QWORD PTR $T6[ebp], xmm0
  00559	89 85 0c ff ff
	ff		 mov	 DWORD PTR $T2[ebp+8], eax
; File C:\IAGOS\server\v18\Source\Source\WorldServer\ItemUpgrade.cpp

; 1808 : 			g_UserMng.AddCreateSfxObj((CMover *)pUser, XI_INT_SUCCESS, pUser->GetPos().x, pUser->GetPos().y, pUser->GetPos().z);

  0055f	f3 0f 10 85 0c
	ff ff ff	 movss	 xmm0, DWORD PTR $T2[ebp+8]
  00567	f3 0f 11 44 24
	08		 movss	 DWORD PTR [esp+8], xmm0
  0056d	f3 0f 10 85 14
	ff ff ff	 movss	 xmm0, DWORD PTR $T4[ebp+4]
  00575	f3 0f 11 44 24
	04		 movss	 DWORD PTR [esp+4], xmm0
  0057b	f3 0f 10 85 1c
	ff ff ff	 movss	 xmm0, DWORD PTR $T6[ebp]
  00583	f3 0f 11 04 24	 movss	 DWORD PTR [esp], xmm0
  00588	68 b2 06 00 00	 push	 1714			; 000006b2H
  0058d	56		 push	 esi
  0058e	e8 00 00 00 00	 call	 ?AddCreateSfxObj@CUserMng@@QAEXPAVCCtrl@@KMMMH@Z ; CUserMng::AddCreateSfxObj
$LN23@EnchantAtt:

; 1809 : 
; 1810 : 		pUser->UpdateItem( (BYTE)pItemMain->m_dwObjId, UI_IR,  pItemMaterial->GetProp()->eItemType );

  00593	8b 8d 28 ff ff
	ff		 mov	 ecx, DWORD PTR _pItemMaterial$GSCopy$1$[ebp]
  00599	e8 00 00 00 00	 call	 ?GetPropA@CItemElem@@QAEPAUItemProp@@XZ ; CItemElem::GetPropA
  0059e	6a 00		 push	 0
  005a0	8b ce		 mov	 ecx, esi
  005a2	8b 80 f0 00 00
	00		 mov	 eax, DWORD PTR [eax+240]
  005a8	50		 push	 eax
  005a9	0f b6 47 04	 movzx	 eax, BYTE PTR [edi+4]
  005ad	6a 05		 push	 5
  005af	50		 push	 eax
  005b0	e8 00 00 00 00	 call	 ?UpdateItem@CMover@@QAEXEDKK@Z ; CMover::UpdateItem

; 1811 : 		pUser->UpdateItem( (BYTE)pItemMain->m_dwObjId, UI_RAO,  pItemMain->m_nResistAbilityOption+1 );

  005b5	8b 87 80 00 00
	00		 mov	 eax, DWORD PTR [edi+128]
  005bb	8b ce		 mov	 ecx, esi
  005bd	6a 00		 push	 0
  005bf	40		 inc	 eax
  005c0	50		 push	 eax
  005c1	0f b6 47 04	 movzx	 eax, BYTE PTR [edi+4]
  005c5	6a 04		 push	 4
  005c7	50		 push	 eax
  005c8	e8 00 00 00 00	 call	 ?UpdateItem@CMover@@QAEXEDKK@Z ; CMover::UpdateItem

; 1812 : 		aLogItem.Action = "O";

  005cd	c7 85 34 ff ff
	ff 00 00 00 00	 mov	 DWORD PTR _aLogItem$[ebp], OFFSET ??_C@_01MJMHLOMK@O@
$LN188@EnchantAtt:

; 1813 : 		g_DPSrvr.OnLogItem( aLogItem, pItemMain, pItemMain->m_nItemNum );
; 1814 : 	}
; 1815 : 
; 1816 : 	aLogItem.Action = "N";

  005d7	0f bf 47 74	 movsx	 eax, WORD PTR [edi+116]
  005db	b9 00 00 00 00	 mov	 ecx, OFFSET ?g_DPSrvr@@3VCDPSrvr@@A ; g_DPSrvr
  005e0	50		 push	 eax
  005e1	57		 push	 edi
  005e2	8d 85 34 ff ff
	ff		 lea	 eax, DWORD PTR _aLogItem$[ebp]
  005e8	50		 push	 eax
  005e9	e8 00 00 00 00	 call	 ?OnLogItem@CDPSrvr@@QAEXAAU_LogItemInfo@@PAVCItemElem@@H@Z ; CDPSrvr::OnLogItem
$LN18@EnchantAtt:

; 1817 : 	g_DPSrvr.OnLogItem( aLogItem, pItemMaterial, pItemMaterial->m_nItemNum );

  005ee	8b bd 28 ff ff
	ff		 mov	 edi, DWORD PTR _pItemMaterial$GSCopy$1$[ebp]
  005f4	b9 00 00 00 00	 mov	 ecx, OFFSET ?g_DPSrvr@@3VCDPSrvr@@A ; g_DPSrvr
  005f9	c7 85 34 ff ff
	ff 00 00 00 00	 mov	 DWORD PTR _aLogItem$[ebp], OFFSET ??_C@_01NANMIPIL@N@
  00603	0f bf 47 74	 movsx	 eax, WORD PTR [edi+116]
  00607	50		 push	 eax
  00608	57		 push	 edi
  00609	8d 85 34 ff ff
	ff		 lea	 eax, DWORD PTR _aLogItem$[ebp]
  0060f	50		 push	 eax
  00610	e8 00 00 00 00	 call	 ?OnLogItem@CDPSrvr@@QAEXAAU_LogItemInfo@@PAVCItemElem@@H@Z ; CDPSrvr::OnLogItem

; 1818 : 	// ┴”Ę├ŠŲ┼█ ╗Ķ┴” - ╝║░°└╠┤°, ĮŪŲą┤°...
; 1819 : 	pUser->RemoveItem( (BYTE)( pItemMaterial->m_dwObjId ), (short)1 );

  00615	0f b6 47 04	 movzx	 eax, BYTE PTR [edi+4]
  00619	8b ce		 mov	 ecx, esi
  0061b	6a 01		 push	 1
  0061d	50		 push	 eax
  0061e	e8 00 00 00 00	 call	 ?RemoveItem@CMover@@QAEXEF@Z ; CMover::RemoveItem
$LN1@EnchantAtt:

; 1820 : }

  00623	8b 4d fc	 mov	 ecx, DWORD PTR __$ArrayPad$[ebp]
  00626	5f		 pop	 edi
  00627	5e		 pop	 esi
  00628	33 cd		 xor	 ecx, ebp
  0062a	5b		 pop	 ebx
  0062b	e8 00 00 00 00	 call	 @__security_check_cookie@4
  00630	8b e5		 mov	 esp, ebp
  00632	5d		 pop	 ebp
  00633	c2 0c 00	 ret	 12			; 0000000cH
?EnchantAttribute@CItemUpgrade@@QAEXPAVCUser@@PAVCItemElem@@1@Z ENDP ; CItemUpgrade::EnchantAttribute
_TEXT	ENDS
; Function compile flags: /Ogtp
; File C:\IAGOS\server\v18\Source\Source\WorldServer\ItemUpgrade.cpp
; File C:\Program Files\Microsoft Visual Studio\2022\Professional\VC\Tools\MSVC\14.44.35207\include\xtree
; File C:\IAGOS\server\v18\Source\Source\WorldServer\ItemUpgrade.cpp
; File C:\Program Files\Microsoft Visual Studio\2022\Professional\VC\Tools\MSVC\14.44.35207\include\xtree
; File C:\IAGOS\server\v18\Source\Source\WorldServer\ItemUpgrade.cpp
; File C:\Program Files\Microsoft Visual Studio\2022\Professional\VC\Tools\MSVC\14.44.35207\include\xtree
; File C:\IAGOS\server\v18\Source\Source\WorldServer\ItemUpgrade.cpp
; File C:\Program Files\Microsoft Visual Studio\2022\Professional\VC\Tools\MSVC\14.44.35207\include\xtree
; File C:\Program Files\Microsoft Visual Studio\2022\Professional\VC\Tools\MSVC\14.44.35207\include\type_traits
; File C:\Program Files\Microsoft Visual Studio\2022\Professional\VC\Tools\MSVC\14.44.35207\include\xtree
; File C:\IAGOS\server\v18\Source\Source\WorldServer\ItemUpgrade.cpp
;	COMDAT ?GetGeneralEnchantProb@CItemUpgrade@@QAEHH@Z
_TEXT	SEGMENT
__Loc$1 = -16						; size = 12
_this$1$ = -4						; size = 4
_nAbilityOption$ = 8					; size = 4
$T2 = 8							; size = 4
?GetGeneralEnchantProb@CItemUpgrade@@QAEHH@Z PROC	; CItemUpgrade::GetGeneralEnchantProb, COMDAT
; _this$ = ecx

; 1263 : {

  00000	55		 push	 ebp
  00001	8b ec		 mov	 ebp, esp
  00003	83 ec 10	 sub	 esp, 16			; 00000010H
  00006	53		 push	 ebx
  00007	56		 push	 esi

; 1266 : 	map<int, int>::iterator it = m_mapGeneralEnchant.find( nAbilityOption + 1 );

  00008	8d 41 18	 lea	 eax, DWORD PTR [ecx+24]
  0000b	33 f6		 xor	 esi, esi
  0000d	57		 push	 edi
  0000e	8b 7d 08	 mov	 edi, DWORD PTR _nAbilityOption$[ebp]
; File C:\Program Files\Microsoft Visual Studio\2022\Professional\VC\Tools\MSVC\14.44.35207\include\xtree

; 1384 :         const _Tree_find_result<_Nodeptr> _Loc = _Find_lower_bound(_Keyval);

  00011	8d 4d 08	 lea	 ecx, DWORD PTR $T2[ebp]
  00014	51		 push	 ecx
  00015	8d 4d f0	 lea	 ecx, DWORD PTR __Loc$1[ebp]
; File C:\IAGOS\server\v18\Source\Source\WorldServer\ItemUpgrade.cpp

; 1266 : 	map<int, int>::iterator it = m_mapGeneralEnchant.find( nAbilityOption + 1 );

  00018	89 45 fc	 mov	 DWORD PTR _this$1$[ebp], eax
; File C:\Program Files\Microsoft Visual Studio\2022\Professional\VC\Tools\MSVC\14.44.35207\include\xtree

; 1384 :         const _Tree_find_result<_Nodeptr> _Loc = _Find_lower_bound(_Keyval);

  0001b	51		 push	 ecx
; File C:\IAGOS\server\v18\Source\Source\WorldServer\ItemUpgrade.cpp

; 1266 : 	map<int, int>::iterator it = m_mapGeneralEnchant.find( nAbilityOption + 1 );

  0001c	8d 5f 01	 lea	 ebx, DWORD PTR [edi+1]
; File C:\Program Files\Microsoft Visual Studio\2022\Professional\VC\Tools\MSVC\14.44.35207\include\xtree

; 1384 :         const _Tree_find_result<_Nodeptr> _Loc = _Find_lower_bound(_Keyval);

  0001f	8b c8		 mov	 ecx, eax
; File C:\IAGOS\server\v18\Source\Source\WorldServer\ItemUpgrade.cpp

; 1266 : 	map<int, int>::iterator it = m_mapGeneralEnchant.find( nAbilityOption + 1 );

  00021	89 5d 08	 mov	 DWORD PTR $T2[ebp], ebx
; File C:\Program Files\Microsoft Visual Studio\2022\Professional\VC\Tools\MSVC\14.44.35207\include\xtree

; 1384 :         const _Tree_find_result<_Nodeptr> _Loc = _Find_lower_bound(_Keyval);

  00024	e8 00 00 00 00	 call	 ??$_Find_lower_bound@H@?$_Tree@V?$_Tmap_traits@HHU?$less@H@std@@V?$allocator@U?$pair@$$CBHH@std@@@2@$0A@@std@@@std@@IBE?AU?$_Tree_find_result@PAU?$_Tree_node@U?$pair@$$CBHH@std@@PAX@std@@@1@ABH@Z ; std::_Tree<std::_Tmap_traits<int,int,std::less<int>,std::allocator<std::pair<int const ,int> >,0> >::_Find_lower_bound<int>

; 1624 :         return !_Bound->_Isnil && !_DEBUG_LT_PRED(_Getcomp(), _Keyval, _Traits::_Kfn(_Bound->_Myval));

  00029	8b 45 f8	 mov	 eax, DWORD PTR __Loc$1[ebp+8]
  0002c	80 78 0d 00	 cmp	 BYTE PTR [eax+13], 0
  00030	75 0f		 jne	 SHORT $LN2@GetGeneral
; File C:\Program Files\Microsoft Visual Studio\2022\Professional\VC\Tools\MSVC\14.44.35207\include\type_traits

; 2380 :         return _Left < _Right;

  00032	3b 58 10	 cmp	 ebx, DWORD PTR [eax+16]
; File C:\Program Files\Microsoft Visual Studio\2022\Professional\VC\Tools\MSVC\14.44.35207\include\xtree

; 1624 :         return !_Bound->_Isnil && !_DEBUG_LT_PRED(_Getcomp(), _Keyval, _Traits::_Kfn(_Bound->_Myval));

  00035	7c 0a		 jl	 SHORT $LN2@GetGeneral

; 37   :     _Tree_unchecked_const_iterator(_Nodeptr _Pnode, const _Mytree* _Plist) noexcept : _Ptr(_Pnode) {

  00037	8b 4d fc	 mov	 ecx, DWORD PTR _this$1$[ebp]
  0003a	3b 01		 cmp	 eax, DWORD PTR [ecx]
; File C:\IAGOS\server\v18\Source\Source\WorldServer\ItemUpgrade.cpp

; 1267 : 	if( it != m_mapGeneralEnchant.end() )

  0003c	74 03		 je	 SHORT $LN2@GetGeneral

; 1268 : 		nProb = it->second;

  0003e	8b 70 14	 mov	 esi, DWORD PTR [eax+20]
$LN2@GetGeneral:

; 1269 : 
; 1270 : 	if( ::GetLanguage() != LANG_KOR && nAbilityOption >= 3 )	// ┴”Ę├ 4║╬┼═ 10% ╚«Ę³ ░©╝ę(Ūž┐▄ĖĖ)

  00041	e8 00 00 00 00	 call	 ?GetLanguage@@YAHXZ	; GetLanguage
  00046	85 c0		 test	 eax, eax
  00048	74 21		 je	 SHORT $LN54@GetGeneral
  0004a	83 ff 03	 cmp	 edi, 3
  0004d	7c 1c		 jl	 SHORT $LN54@GetGeneral

; 1271 : 		nProb = static_cast<int>(static_cast<float>(nProb) * 0.9f);

  0004f	66 0f 6e c6	 movd	 xmm0, esi
  00053	0f 5b c0	 cvtdq2ps xmm0, xmm0
  00056	5f		 pop	 edi

; 1272 : 	
; 1273 : 	return nProb;
; 1274 : }

  00057	5e		 pop	 esi
  00058	5b		 pop	 ebx
  00059	f3 0f 59 05 00
	00 00 00	 mulss	 xmm0, DWORD PTR __real@3f666666
  00061	f3 0f 2c c0	 cvttss2si eax, xmm0
  00065	8b e5		 mov	 esp, ebp
  00067	5d		 pop	 ebp
  00068	c2 04 00	 ret	 4
$LN54@GetGeneral:
  0006b	5f		 pop	 edi
  0006c	8b c6		 mov	 eax, esi
  0006e	5e		 pop	 esi
  0006f	5b		 pop	 ebx
  00070	8b e5		 mov	 esp, ebp
  00072	5d		 pop	 ebp
  00073	c2 04 00	 ret	 4
?GetGeneralEnchantProb@CItemUpgrade@@QAEHH@Z ENDP	; CItemUpgrade::GetGeneralEnchantProb
_TEXT	ENDS
; Function compile flags: /Ogtp
; File C:\IAGOS\server\v18\Source\Source\WorldServer\ItemUpgrade.cpp
; File C:\IAGOS\server\v18\Source\Source\_Common\Item.h
; File C:\IAGOS\server\v18\Source\Source\_Common\Project.h
; File C:\IAGOS\server\v18\Source\Source\_Common\data.h
; File C:\IAGOS\server\v18\Source\Source\_Common\Project.h
; File C:\IAGOS\server\v18\Source\Source\WorldServer\ItemUpgrade.cpp
; File C:\IAGOS\server\v18\Source\Source\_Common\Item.h
; File C:\IAGOS\server\v18\Source\Source\_Common\Project.h
; File C:\IAGOS\server\v18\Source\Source\_Common\data.h
; File C:\IAGOS\server\v18\Source\Source\_Common\Project.h
; File C:\IAGOS\server\v18\Source\Source\WorldServer\ItemUpgrade.cpp
; File C:\IAGOS\server\v18\Source\Source\_Common\Item.h
; File C:\IAGOS\server\v18\Source\Source\_Common\Project.h
; File C:\IAGOS\server\v18\Source\Source\_Common\data.h
; File C:\IAGOS\server\v18\Source\Source\_Common\Project.h
; File C:\IAGOS\server\v18\Source\Source\WorldServer\ItemUpgrade.cpp
; File C:\IAGOS\server\v18\Source\Source\_Common\Project.h
; File C:\IAGOS\server\v18\Source\Source\_Common\data.h
; File C:\IAGOS\server\v18\Source\Source\WorldServer\ItemUpgrade.cpp
; File C:\IAGOS\server\v18\Source\Source\_Common\xUtil.h
; File C:\IAGOS\server\v18\Source\Source\WorldServer\ItemUpgrade.cpp
; File C:\IAGOS\server\v18\Source\Source\_Common\Mover.h
; File C:\IAGOS\server\v18\Source\Source\WorldServer\ItemUpgrade.cpp
; File C:\IAGOS\server\v18\Source\Source\_Common\Obj.h
; File C:\IAGOS\server\v18\Source\Source\WorldServer\ItemUpgrade.cpp
; File C:\IAGOS\server\v18\Source\Source\_Common\Obj.h
; File C:\IAGOS\server\v18\Source\Source\WorldServer\ItemUpgrade.cpp
; File C:\IAGOS\server\v18\Source\Source\_Common\Obj.h
; File C:\IAGOS\server\v18\Source\Source\WorldServer\ItemUpgrade.cpp
; File C:\IAGOS\server\v18\Source\Source\_Common\Mover.h
; File C:\IAGOS\server\v18\Source\Source\WorldServer\ItemUpgrade.cpp
; File C:\IAGOS\server\v18\Source\Source\_Common\Obj.h
; File C:\IAGOS\server\v18\Source\Source\WorldServer\ItemUpgrade.cpp
; File C:\IAGOS\server\v18\Source\Source\_Common\Obj.h
; File C:\IAGOS\server\v18\Source\Source\WorldServer\ItemUpgrade.cpp
; File C:\IAGOS\server\v18\Source\Source\_Common\Obj.h
; File C:\IAGOS\server\v18\Source\Source\WorldServer\ItemUpgrade.cpp
;	COMDAT ?EnchantGeneral@CItemUpgrade@@QAEXPAVCUser@@PAVCItemElem@@1@Z
_TEXT	SEGMENT
$T1 = -252						; size = 12
$T2 = -252						; size = 12
$T3 = -240						; size = 12
$T4 = -240						; size = 12
$T5 = -228						; size = 12
$T6 = -228						; size = 12
_pItemMaterial$GSCopy$1$ = -216				; size = 4
_bSmelprot$1$ = -212					; size = 4
_this$GSCopy$1$ = -212					; size = 4
_nPercent$1$ = -208					; size = 4
_aLogItem$ = -204					; size = 200
__$ArrayPad$ = -4					; size = 4
_pUser$ = 8						; size = 4
_pItemMain$ = 12					; size = 4
_pItemMaterial$ = 16					; size = 4
?EnchantGeneral@CItemUpgrade@@QAEXPAVCUser@@PAVCItemElem@@1@Z PROC ; CItemUpgrade::EnchantGeneral, COMDAT
; _this$ = ecx

; 1076 : {	

  00000	55		 push	 ebp
  00001	8b ec		 mov	 ebp, esp
  00003	81 ec fc 00 00
	00		 sub	 esp, 252		; 000000fcH
  00009	a1 00 00 00 00	 mov	 eax, DWORD PTR ___security_cookie
  0000e	33 c5		 xor	 eax, ebp
  00010	89 45 fc	 mov	 DWORD PTR __$ArrayPad$[ebp], eax
  00013	8b 45 10	 mov	 eax, DWORD PTR _pItemMaterial$[ebp]
  00016	53		 push	 ebx
  00017	56		 push	 esi
  00018	8b 75 08	 mov	 esi, DWORD PTR _pUser$[ebp]
  0001b	57		 push	 edi
  0001c	8b 7d 0c	 mov	 edi, DWORD PTR _pItemMain$[ebp]
  0001f	89 8d 2c ff ff
	ff		 mov	 DWORD PTR _this$GSCopy$1$[ebp], ecx
  00025	89 85 28 ff ff
	ff		 mov	 DWORD PTR _pItemMaterial$GSCopy$1$[ebp], eax

; 1077 : 	int*  pAbilityOption = pItemMain->GetAbilityOptionPtr();

  0002b	8d 5f 64	 lea	 ebx, DWORD PTR [edi+100]

; 1078 : 	if( pAbilityOption == NULL )

  0002e	85 db		 test	 ebx, ebx
  00030	0f 84 59 05 00
	00		 je	 $LN1@EnchantGen
; File C:\IAGOS\server\v18\Source\Source\_Common\Item.h

; 230  : 	ItemProp*	GetProp()	{	return prj.GetItemProp( m_dwItemId );	}

  00036	8b 57 0c	 mov	 edx, DWORD PTR [edi+12]
; File C:\IAGOS\server\v18\Source\Source\_Common\Project.h

; 1389 : 	VERIFY_RANGE_ASSERT( nIndex, 0, m_aPropItem.GetSize(), "GetItemProp range_error", NULL );

  00039	8b 0d 40 02 00
	00		 mov	 ecx, DWORD PTR ?prj@@3VCProject@@A+576
  0003f	85 d2		 test	 edx, edx
  00041	78 10		 js	 SHORT $LN117@EnchantGen
  00043	3b d1		 cmp	 edx, ecx
  00045	7d 0c		 jge	 SHORT $LN117@EnchantGen
; File C:\IAGOS\server\v18\Source\Source\_Common\data.h

; 270  : 	if( dwIndex >= (DWORD)m_nMaxIndex )

  00047	73 26		 jae	 SHORT $LN160@EnchantGen

; 272  : 	return (T*) m_apOffset[ dwIndex ];

  00049	a1 30 02 00 00	 mov	 eax, DWORD PTR ?prj@@3VCProject@@A+560
  0004e	8b 04 90	 mov	 eax, DWORD PTR [eax+edx*4]
; File C:\IAGOS\server\v18\Source\Source\_Common\Project.h

; 1390 : 	return m_aPropItem.GetAt( nIndex ); 

  00051	eb 1e		 jmp	 SHORT $LN28@EnchantGen
$LN117@EnchantGen:

; 579  : 	LPCTSTR szErr = Error( _T( "%s min:%d, max:%d, index:%d" ), szMsg, nMin, nMax, nIndex ); 

  00053	52		 push	 edx
  00054	51		 push	 ecx
  00055	6a 00		 push	 0
  00057	68 00 00 00 00	 push	 OFFSET ??_C@_0BI@BEIFNGEL@GetItemProp?5range_error@
  0005c	68 00 00 00 00	 push	 OFFSET ??_C@_0BM@HMFGHCP@?$CFs?5min?3?$CFd?0?5max?3?$CFd?0?5index?3?$CFd@
  00061	e8 00 00 00 00	 call	 ?Error@@YAPBDPBDZZ	; Error

; 1389 : 	VERIFY_RANGE_ASSERT( nIndex, 0, m_aPropItem.GetSize(), "GetItemProp range_error", NULL );

  00066	8b 0d 40 02 00
	00		 mov	 ecx, DWORD PTR ?prj@@3VCProject@@A+576

; 579  : 	LPCTSTR szErr = Error( _T( "%s min:%d, max:%d, index:%d" ), szMsg, nMin, nMax, nIndex ); 

  0006c	83 c4 14	 add	 esp, 20			; 00000014H
$LN160@EnchantGen:
; File C:\IAGOS\server\v18\Source\Source\WorldServer\ItemUpgrade.cpp

; 1083 : 	if( pItemMain->GetProp()->dwReferStat1 == WEAPON_ULTIMATE )

  0006f	33 c0		 xor	 eax, eax
$LN28@EnchantGen:
  00071	83 b8 d0 01 00
	00 02		 cmp	 DWORD PTR [eax+464], 2
  00078	0f 84 05 05 00
	00		 je	 $LN118@EnchantGen
; File C:\IAGOS\server\v18\Source\Source\_Common\Item.h

; 230  : 	ItemProp*	GetProp()	{	return prj.GetItemProp( m_dwItemId );	}

  0007e	8b 95 28 ff ff
	ff		 mov	 edx, DWORD PTR _pItemMaterial$GSCopy$1$[ebp]
  00084	8b 52 0c	 mov	 edx, DWORD PTR [edx+12]
; File C:\IAGOS\server\v18\Source\Source\_Common\Project.h

; 1389 : 	VERIFY_RANGE_ASSERT( nIndex, 0, m_aPropItem.GetSize(), "GetItemProp range_error", NULL );

  00087	85 d2		 test	 edx, edx
  00089	78 10		 js	 SHORT $LN47@EnchantGen
  0008b	3b d1		 cmp	 edx, ecx
  0008d	7d 0c		 jge	 SHORT $LN47@EnchantGen
; File C:\IAGOS\server\v18\Source\Source\_Common\data.h

; 270  : 	if( dwIndex >= (DWORD)m_nMaxIndex )

  0008f	73 26		 jae	 SHORT $LN161@EnchantGen

; 272  : 	return (T*) m_apOffset[ dwIndex ];

  00091	a1 30 02 00 00	 mov	 eax, DWORD PTR ?prj@@3VCProject@@A+560
  00096	8b 04 90	 mov	 eax, DWORD PTR [eax+edx*4]
; File C:\IAGOS\server\v18\Source\Source\_Common\Project.h

; 1390 : 	return m_aPropItem.GetAt( nIndex ); 

  00099	eb 1e		 jmp	 SHORT $LN42@EnchantGen
$LN47@EnchantGen:

; 579  : 	LPCTSTR szErr = Error( _T( "%s min:%d, max:%d, index:%d" ), szMsg, nMin, nMax, nIndex ); 

  0009b	52		 push	 edx
  0009c	51		 push	 ecx
  0009d	6a 00		 push	 0
  0009f	68 00 00 00 00	 push	 OFFSET ??_C@_0BI@BEIFNGEL@GetItemProp?5range_error@
  000a4	68 00 00 00 00	 push	 OFFSET ??_C@_0BM@HMFGHCP@?$CFs?5min?3?$CFd?0?5max?3?$CFd?0?5index?3?$CFd@
  000a9	e8 00 00 00 00	 call	 ?Error@@YAPBDPBDZZ	; Error

; 1389 : 	VERIFY_RANGE_ASSERT( nIndex, 0, m_aPropItem.GetSize(), "GetItemProp range_error", NULL );

  000ae	8b 0d 40 02 00
	00		 mov	 ecx, DWORD PTR ?prj@@3VCProject@@A+576

; 579  : 	LPCTSTR szErr = Error( _T( "%s min:%d, max:%d, index:%d" ), szMsg, nMin, nMax, nIndex ); 

  000b4	83 c4 14	 add	 esp, 20			; 00000014H
$LN161@EnchantGen:
; File C:\IAGOS\server\v18\Source\Source\WorldServer\ItemUpgrade.cpp

; 1090 : 		&& pItemMaterial->GetProp()->dwID != II_GEN_MAT_ORICHALCUM01_1 )

  000b7	33 c0		 xor	 eax, eax
$LN42@EnchantGen:
  000b9	81 38 f3 07 00
	00		 cmp	 DWORD PTR [eax], 2035	; 000007f3H
  000bf	74 1d		 je	 SHORT $LN4@EnchantGen
  000c1	8b 8d 28 ff ff
	ff		 mov	 ecx, DWORD PTR _pItemMaterial$GSCopy$1$[ebp]
  000c7	e8 00 00 00 00	 call	 ?GetPropA@CItemElem@@QAEPAUItemProp@@XZ ; CItemElem::GetPropA
  000cc	81 38 22 08 00
	00		 cmp	 DWORD PTR [eax], 2082	; 00000822H
  000d2	0f 85 ab 04 00
	00		 jne	 $LN118@EnchantGen
  000d8	8b 0d 40 02 00
	00		 mov	 ecx, DWORD PTR ?prj@@3VCProject@@A+576
$LN4@EnchantGen:
; File C:\IAGOS\server\v18\Source\Source\_Common\Item.h

; 230  : 	ItemProp*	GetProp()	{	return prj.GetItemProp( m_dwItemId );	}

  000de	8b 57 0c	 mov	 edx, DWORD PTR [edi+12]
; File C:\IAGOS\server\v18\Source\Source\_Common\Project.h

; 1389 : 	VERIFY_RANGE_ASSERT( nIndex, 0, m_aPropItem.GetSize(), "GetItemProp range_error", NULL );

  000e1	85 d2		 test	 edx, edx
  000e3	78 10		 js	 SHORT $LN61@EnchantGen
  000e5	3b d1		 cmp	 edx, ecx
  000e7	7d 0c		 jge	 SHORT $LN61@EnchantGen
; File C:\IAGOS\server\v18\Source\Source\_Common\data.h

; 270  : 	if( dwIndex >= (DWORD)m_nMaxIndex )

  000e9	73 20		 jae	 SHORT $LN162@EnchantGen

; 272  : 	return (T*) m_apOffset[ dwIndex ];

  000eb	a1 30 02 00 00	 mov	 eax, DWORD PTR ?prj@@3VCProject@@A+560
  000f0	8b 04 90	 mov	 eax, DWORD PTR [eax+edx*4]
; File C:\IAGOS\server\v18\Source\Source\_Common\Project.h

; 1390 : 	return m_aPropItem.GetAt( nIndex ); 

  000f3	eb 18		 jmp	 SHORT $LN56@EnchantGen
$LN61@EnchantGen:

; 579  : 	LPCTSTR szErr = Error( _T( "%s min:%d, max:%d, index:%d" ), szMsg, nMin, nMax, nIndex ); 

  000f5	52		 push	 edx
  000f6	51		 push	 ecx
  000f7	6a 00		 push	 0
  000f9	68 00 00 00 00	 push	 OFFSET ??_C@_0BI@BEIFNGEL@GetItemProp?5range_error@
  000fe	68 00 00 00 00	 push	 OFFSET ??_C@_0BM@HMFGHCP@?$CFs?5min?3?$CFd?0?5max?3?$CFd?0?5index?3?$CFd@
  00103	e8 00 00 00 00	 call	 ?Error@@YAPBDPBDZZ	; Error
  00108	83 c4 14	 add	 esp, 20			; 00000014H
$LN162@EnchantGen:
; File C:\IAGOS\server\v18\Source\Source\WorldServer\ItemUpgrade.cpp

; 1097 : 	if( pItemMain->GetProp()->dwReferStat1 >= BARUNA_D && pItemMain->GetProp()->dwReferStat1 <= BARUNA_S )

  0010b	33 c0		 xor	 eax, eax
$LN56@EnchantGen:
  0010d	83 b8 d0 01 00
	00 04		 cmp	 DWORD PTR [eax+464], 4
  00114	72 14		 jb	 SHORT $LN5@EnchantGen
  00116	8b cf		 mov	 ecx, edi
  00118	e8 00 00 00 00	 call	 ?GetPropA@CItemElem@@QAEPAUItemProp@@XZ ; CItemElem::GetPropA
  0011d	83 b8 d0 01 00
	00 08		 cmp	 DWORD PTR [eax+464], 8
  00124	0f 86 59 04 00
	00		 jbe	 $LN118@EnchantGen
$LN5@EnchantGen:

; 1098 : 	{
; 1099 : 		pUser->AddDefinedText( TID_GAME_NOTEQUALITEM );
; 1100 : 		return;
; 1101 : 	}
; 1102 : #endif // __NEW_ITEM_VARUNA
; 1103 : 	if( !CItemElem::IsDiceRefineryAble(pItemMain->GetProp()) )

  0012a	8b cf		 mov	 ecx, edi
  0012c	e8 00 00 00 00	 call	 ?GetPropA@CItemElem@@QAEPAUItemProp@@XZ ; CItemElem::GetPropA
  00131	50		 push	 eax
  00132	e8 00 00 00 00	 call	 ?IsDiceRefineryAble@CItemElem@@SAHPAUItemProp@@@Z ; CItemElem::IsDiceRefineryAble
  00137	83 c4 04	 add	 esp, 4
  0013a	85 c0		 test	 eax, eax
  0013c	0f 84 41 04 00
	00		 je	 $LN118@EnchantGen

; 1106 : 		return;								
; 1107 : 	}
; 1108 : 
; 1109 : 	if( *pAbilityOption >= GetMaxGeneralEnchantSize() )

  00142	8b 8d 2c ff ff
	ff		 mov	 ecx, DWORD PTR _this$GSCopy$1$[ebp]
  00148	8b 03		 mov	 eax, DWORD PTR [ebx]
  0014a	3b 41 1c	 cmp	 eax, DWORD PTR [ecx+28]
  0014d	7c 0a		 jl	 SHORT $LN7@EnchantGen

; 1110 : 	{
; 1111 : 		pUser->AddDefinedText( TID_UPGRADE_MAXOVER );			

  0014f	68 a2 08 00 00	 push	 2210			; 000008a2H

; 1112 : 		return;

  00154	e9 2f 04 00 00	 jmp	 $LN163@EnchantGen
$LN7@EnchantGen:

; 1113 : 	}
; 1114 : 
; 1115 : 	// 1000┤▄└¦└Ū ╝║░° Ų█╝ŠŲ« 
; 1116 : 	int nPercent = GetGeneralEnchantProb( *pAbilityOption );

  00159	50		 push	 eax
  0015a	e8 00 00 00 00	 call	 ?GetGeneralEnchantProb@CItemUpgrade@@QAEHH@Z ; CItemUpgrade::GetGeneralEnchantProb

; 1117 : 
; 1118 : 	LogItemInfo aLogItem;

  0015f	8d 8d 34 ff ff
	ff		 lea	 ecx, DWORD PTR _aLogItem$[ebp]
  00165	89 85 30 ff ff
	ff		 mov	 DWORD PTR _nPercent$1$[ebp], eax
  0016b	e8 00 00 00 00	 call	 ??0_LogItemInfo@@QAE@XZ	; _LogItemInfo::_LogItemInfo

; 1119 : 	aLogItem.SendName = pUser->GetName();

  00170	6a 00		 push	 0
  00172	8b ce		 mov	 ecx, esi
  00174	e8 00 00 00 00	 call	 ?GetName@CMover@@QAEPBDH@Z ; CMover::GetName

; 1120 : 	aLogItem.RecvName = "UPGRADEITEM";
; 1121 : 	aLogItem.WorldId = pUser->GetWorld()->GetID();

  00179	8b 8e 6c 01 00
	00		 mov	 ecx, DWORD PTR [esi+364]
  0017f	89 85 38 ff ff
	ff		 mov	 DWORD PTR _aLogItem$[ebp+4], eax

; 1122 : 	aLogItem.Gold = pUser->GetGold();

  00185	8b 86 e0 14 00
	00		 mov	 eax, DWORD PTR [esi+5344]
  0018b	c7 85 3c ff ff
	ff 00 00 00 00	 mov	 DWORD PTR _aLogItem$[ebp+8], OFFSET ??_C@_0M@FAGCGIOJ@UPGRADEITEM@
  00195	8b 09		 mov	 ecx, DWORD PTR [ecx]

; 1123 : 	aLogItem.Gold2 = pUser->GetGold();
; 1124 : 
; 1125 : 	BOOL bSmelprot	= FALSE;
; 1126 : 	if( pUser->HasBuff( BUFF_ITEM, II_SYS_SYS_SCR_SMELPROT ) )

  00197	68 e0 28 00 00	 push	 10464			; 000028e0H
  0019c	89 8d 40 ff ff
	ff		 mov	 DWORD PTR _aLogItem$[ebp+12], ecx
  001a2	8b ce		 mov	 ecx, esi
  001a4	6a 00		 push	 0
  001a6	89 85 44 ff ff
	ff		 mov	 DWORD PTR _aLogItem$[ebp+16], eax
  001ac	89 85 48 ff ff
	ff		 mov	 DWORD PTR _aLogItem$[ebp+20], eax
  001b2	c7 85 2c ff ff
	ff 00 00 00 00	 mov	 DWORD PTR _bSmelprot$1$[ebp], 0
  001bc	e8 00 00 00 00	 call	 ?HasBuff@CMover@@QAEHGG@Z ; CMover::HasBuff
  001c1	85 c0		 test	 eax, eax
  001c3	74 6d		 je	 SHORT $LN9@EnchantGen

; 1127 : 	{
; 1128 : 		bSmelprot	= TRUE;
; 1129 : 		pUser->RemoveBuff( BUFF_ITEM, II_SYS_SYS_SCR_SMELPROT );

  001c5	68 e0 28 00 00	 push	 10464			; 000028e0H
  001ca	6a 00		 push	 0
  001cc	8b ce		 mov	 ecx, esi
  001ce	c7 85 2c ff ff
	ff 01 00 00 00	 mov	 DWORD PTR _bSmelprot$1$[ebp], 1
  001d8	e8 00 00 00 00	 call	 ?RemoveBuff@CMover@@QAEXGG@Z ; CMover::RemoveBuff
; File C:\IAGOS\server\v18\Source\Source\_Common\Project.h

; 1389 : 	VERIFY_RANGE_ASSERT( nIndex, 0, m_aPropItem.GetSize(), "GetItemProp range_error", NULL );

  001dd	a1 40 02 00 00	 mov	 eax, DWORD PTR ?prj@@3VCProject@@A+576
  001e2	3d e0 28 00 00	 cmp	 eax, 10464		; 000028e0H
  001e7	7f 1c		 jg	 SHORT $LN73@EnchantGen

; 579  : 	LPCTSTR szErr = Error( _T( "%s min:%d, max:%d, index:%d" ), szMsg, nMin, nMax, nIndex ); 

  001e9	68 e0 28 00 00	 push	 10464			; 000028e0H
  001ee	50		 push	 eax
  001ef	6a 00		 push	 0
  001f1	68 00 00 00 00	 push	 OFFSET ??_C@_0BI@BEIFNGEL@GetItemProp?5range_error@
  001f6	68 00 00 00 00	 push	 OFFSET ??_C@_0BM@HMFGHCP@?$CFs?5min?3?$CFd?0?5max?3?$CFd?0?5index?3?$CFd@
  001fb	e8 00 00 00 00	 call	 ?Error@@YAPBDPBDZZ	; Error
  00200	83 c4 14	 add	 esp, 20			; 00000014H

; 1389 : 	VERIFY_RANGE_ASSERT( nIndex, 0, m_aPropItem.GetSize(), "GetItemProp range_error", NULL );

  00203	eb 2d		 jmp	 SHORT $LN9@EnchantGen
$LN73@EnchantGen:
; File C:\IAGOS\server\v18\Source\Source\_Common\data.h

; 270  : 	if( dwIndex >= (DWORD)m_nMaxIndex )

  00205	77 04		 ja	 SHORT $LN82@EnchantGen

; 271  : 		return NULL;

  00207	33 c0		 xor	 eax, eax
  00209	eb 0b		 jmp	 SHORT $LN81@EnchantGen
$LN82@EnchantGen:

; 272  : 	return (T*) m_apOffset[ dwIndex ];

  0020b	a1 30 02 00 00	 mov	 eax, DWORD PTR ?prj@@3VCProject@@A+560
  00210	8b 80 80 a3 00
	00		 mov	 eax, DWORD PTR [eax+41856]
$LN81@EnchantGen:
; File C:\IAGOS\server\v18\Source\Source\WorldServer\ItemUpgrade.cpp

; 1132 : 		if( pItemProp )

  00216	85 c0		 test	 eax, eax
  00218	74 18		 je	 SHORT $LN9@EnchantGen

; 1133 : 			g_dpDBClient.SendLogSMItemUse( "2", pUser, NULL, pItemProp );

  0021a	68 00 00 00 00	 push	 OFFSET ??_C@_00CNPNBAHC@@
  0021f	50		 push	 eax
  00220	6a 00		 push	 0
  00222	56		 push	 esi
  00223	68 00 00 00 00	 push	 OFFSET ??_C@_01FDFGLJHB@2@
  00228	b9 00 00 00 00	 mov	 ecx, OFFSET ?g_dpDBClient@@3VCDPDatabaseClient@@A ; g_dpDBClient
  0022d	e8 00 00 00 00	 call	 ?SendLogSMItemUse@CDPDatabaseClient@@QAEXPBDPAVCUser@@PAVCItemElem@@PAUItemProp@@0@Z ; CDPDatabaseClient::SendLogSMItemUse
$LN9@EnchantGen:

; 1134 : 	}
; 1135 : #ifndef __UPGRADE_SUCCESS_SCROLL
; 1136 : 	if( pUser->HasBuff( BUFF_ITEM, II_SYS_SYS_SCR_SMELTING ) )
; 1137 : 	{
; 1138 : 		if( *pAbilityOption < 7 )
; 1139 : 		{
; 1140 : 			nPercent	+= 1000;
; 1141 : 			pUser->RemoveBuff( BUFF_ITEM, II_SYS_SYS_SCR_SMELTING );
; 1142 : 
; 1143 : 			ItemProp* pItemProp = prj.GetItemProp( II_SYS_SYS_SCR_SMELTING );
; 1144 : 			if( pItemProp )
; 1145 : 				g_dpDBClient.SendLogSMItemUse( "2", pUser, NULL, pItemProp );
; 1146 : 		}
; 1147 : 	}
; 1148 : #ifdef __SM_ITEM_2ND_EX
; 1149 : 	BOOL bSmelprot2	= FALSE;
; 1150 : 	if( !bSmelprot && pUser->HasBuff( BUFF_ITEM, II_SYS_SYS_SCR_SMELPROT2 ) )
; 1151 : 	{
; 1152 : 		bSmelprot2	= TRUE;
; 1153 : 		pUser->RemoveBuff( BUFF_ITEM, II_SYS_SYS_SCR_SMELPROT2 );
; 1154 : 	}
; 1155 : #endif	// __SM_ITEM_2ND_EX
; 1156 : 
; 1157 : 	if( pUser->HasBuff( BUFF_ITEM, II_SYS_SYS_SCR_SUPERSMELTING ) )
; 1158 : 	{
; 1159 : 		if( *pAbilityOption < 7 )
; 1160 : 		{
; 1161 : 			nPercent	+= 10000;
; 1162 : 			pUser->RemoveBuff( BUFF_ITEM, II_SYS_SYS_SCR_SUPERSMELTING );
; 1163 : 
; 1164 : 			ItemProp* pItemProp = prj.GetItemProp( II_SYS_SYS_SCR_SUPERSMELTING );
; 1165 : 			if( pItemProp )
; 1166 : 				g_dpDBClient.SendLogSMItemUse( "2", pUser, NULL, pItemProp );
; 1167 : 		}				
; 1168 : 	}
; 1169 : #else // __UPGRADE_SUCCESS_SCROLL
; 1170 : 	if( pUser->HasBuffByIk3( IK3_GENERAL_WEAPON_ENCHANT_RATE ) && pItemMain->GetProp()->dwItemKind1 == IK1_WEAPON )

  00232	68 a7 00 00 00	 push	 167			; 000000a7H
  00237	8b ce		 mov	 ecx, esi
  00239	e8 00 00 00 00	 call	 ?HasBuffByIk3@CMover@@QAEHK@Z ; CMover::HasBuffByIk3
  0023e	85 c0		 test	 eax, eax
  00240	74 78		 je	 SHORT $LN13@EnchantGen
  00242	8b cf		 mov	 ecx, edi
  00244	e8 00 00 00 00	 call	 ?GetPropA@CItemElem@@QAEPAUItemProp@@XZ ; CItemElem::GetPropA
  00249	83 78 70 01	 cmp	 DWORD PTR [eax+112], 1
  0024d	75 6b		 jne	 SHORT $LN13@EnchantGen

; 1171 : 	{
; 1172 : 		IBuff* pBuff = pUser->m_buffs.GetBuffByIk3( IK3_GENERAL_WEAPON_ENCHANT_RATE );

  0024f	68 a7 00 00 00	 push	 167			; 000000a7H
  00254	8d 8e ec 02 00
	00		 lea	 ecx, DWORD PTR [esi+748]
  0025a	e8 00 00 00 00	 call	 ?GetBuffByIk3@CBuffMgr@@QAEPAVIBuff@@K@Z ; CBuffMgr::GetBuffByIk3

; 1173 : 		if( pBuff != NULL )

  0025f	85 c0		 test	 eax, eax
  00261	74 57		 je	 SHORT $LN13@EnchantGen

; 1174 : 		{
; 1175 : 			ItemProp *pItemProp = pBuff->GetProp();

  00263	8b 10		 mov	 edx, DWORD PTR [eax]
  00265	8b c8		 mov	 ecx, eax
  00267	ff 52 24	 call	 DWORD PTR [edx+36]
  0026a	8b d8		 mov	 ebx, eax

; 1176 : 			if( pItemProp )

  0026c	85 db		 test	 ebx, ebx
  0026e	74 4a		 je	 SHORT $LN13@EnchantGen

; 1177 : 			{
; 1178 : 				if( *pAbilityOption >= pItemProp->nTargetMinEnchant && *pAbilityOption <= pItemProp->nTargetMaxEnchant )

  00270	8b 47 64	 mov	 eax, DWORD PTR [edi+100]
  00273	3b 83 a0 02 00
	00		 cmp	 eax, DWORD PTR [ebx+672]
  00279	7c 3f		 jl	 SHORT $LN13@EnchantGen
  0027b	3b 83 a4 02 00
	00		 cmp	 eax, DWORD PTR [ebx+676]
  00281	7f 37		 jg	 SHORT $LN13@EnchantGen

; 1179 : 				{
; 1180 : 					nPercent += pItemProp->nEffectValue;

  00283	8b 85 30 ff ff
	ff		 mov	 eax, DWORD PTR _nPercent$1$[ebp]

; 1181 : 					pUser->RemoveBuff( BUFF_ITEM, pItemProp->dwID );

  00289	8b ce		 mov	 ecx, esi
  0028b	03 83 9c 02 00
	00		 add	 eax, DWORD PTR [ebx+668]
  00291	89 85 30 ff ff
	ff		 mov	 DWORD PTR _nPercent$1$[ebp], eax
  00297	0f b7 03	 movzx	 eax, WORD PTR [ebx]
  0029a	50		 push	 eax
  0029b	6a 00		 push	 0
  0029d	e8 00 00 00 00	 call	 ?RemoveBuff@CMover@@QAEXGG@Z ; CMover::RemoveBuff

; 1182 : 					g_dpDBClient.SendLogSMItemUse( "2", pUser, NULL, pItemProp );

  002a2	68 00 00 00 00	 push	 OFFSET ??_C@_00CNPNBAHC@@
  002a7	53		 push	 ebx
  002a8	6a 00		 push	 0
  002aa	56		 push	 esi
  002ab	68 00 00 00 00	 push	 OFFSET ??_C@_01FDFGLJHB@2@
  002b0	b9 00 00 00 00	 mov	 ecx, OFFSET ?g_dpDBClient@@3VCDPDatabaseClient@@A ; g_dpDBClient
  002b5	e8 00 00 00 00	 call	 ?SendLogSMItemUse@CDPDatabaseClient@@QAEXPBDPAVCUser@@PAVCItemElem@@PAUItemProp@@0@Z ; CDPDatabaseClient::SendLogSMItemUse
$LN13@EnchantGen:

; 1183 : 				}
; 1184 : 			}
; 1185 : 		}
; 1186 : 	}
; 1187 : 	if( pUser->HasBuffByIk3( IK3_GENERAL_ENCHANT_RATE ) )

  002ba	68 a5 00 00 00	 push	 165			; 000000a5H
  002bf	8b ce		 mov	 ecx, esi
  002c1	e8 00 00 00 00	 call	 ?HasBuffByIk3@CMover@@QAEHK@Z ; CMover::HasBuffByIk3
  002c6	85 c0		 test	 eax, eax
  002c8	74 6b		 je	 SHORT $LN17@EnchantGen

; 1188 : 	{
; 1189 : 		IBuff* pBuff = pUser->m_buffs.GetBuffByIk3( IK3_GENERAL_ENCHANT_RATE );

  002ca	68 a5 00 00 00	 push	 165			; 000000a5H
  002cf	8d 8e ec 02 00
	00		 lea	 ecx, DWORD PTR [esi+748]
  002d5	e8 00 00 00 00	 call	 ?GetBuffByIk3@CBuffMgr@@QAEPAVIBuff@@K@Z ; CBuffMgr::GetBuffByIk3

; 1190 : 		if( pBuff != NULL )

  002da	85 c0		 test	 eax, eax
  002dc	74 57		 je	 SHORT $LN17@EnchantGen

; 1191 : 		{
; 1192 : 			ItemProp *pItemProp = pBuff->GetProp();

  002de	8b 10		 mov	 edx, DWORD PTR [eax]
  002e0	8b c8		 mov	 ecx, eax
  002e2	ff 52 24	 call	 DWORD PTR [edx+36]
  002e5	8b d8		 mov	 ebx, eax

; 1193 : 			if( pItemProp )

  002e7	85 db		 test	 ebx, ebx
  002e9	74 4a		 je	 SHORT $LN17@EnchantGen

; 1194 : 			{
; 1195 : 				if( *pAbilityOption >= pItemProp->nTargetMinEnchant && *pAbilityOption <= pItemProp->nTargetMaxEnchant )

  002eb	8b 47 64	 mov	 eax, DWORD PTR [edi+100]
  002ee	3b 83 a0 02 00
	00		 cmp	 eax, DWORD PTR [ebx+672]
  002f4	7c 3f		 jl	 SHORT $LN17@EnchantGen
  002f6	3b 83 a4 02 00
	00		 cmp	 eax, DWORD PTR [ebx+676]
  002fc	7f 37		 jg	 SHORT $LN17@EnchantGen

; 1196 : 				{
; 1197 : 					nPercent += pItemProp->nEffectValue;

  002fe	8b 85 30 ff ff
	ff		 mov	 eax, DWORD PTR _nPercent$1$[ebp]

; 1198 : 					pUser->RemoveBuff( BUFF_ITEM, pItemProp->dwID );

  00304	8b ce		 mov	 ecx, esi
  00306	03 83 9c 02 00
	00		 add	 eax, DWORD PTR [ebx+668]
  0030c	89 85 30 ff ff
	ff		 mov	 DWORD PTR _nPercent$1$[ebp], eax
  00312	0f b7 03	 movzx	 eax, WORD PTR [ebx]
  00315	50		 push	 eax
  00316	6a 00		 push	 0
  00318	e8 00 00 00 00	 call	 ?RemoveBuff@CMover@@QAEXGG@Z ; CMover::RemoveBuff

; 1199 : 					g_dpDBClient.SendLogSMItemUse( "2", pUser, NULL, pItemProp );

  0031d	68 00 00 00 00	 push	 OFFSET ??_C@_00CNPNBAHC@@
  00322	53		 push	 ebx
  00323	6a 00		 push	 0
  00325	56		 push	 esi
  00326	68 00 00 00 00	 push	 OFFSET ??_C@_01FDFGLJHB@2@
  0032b	b9 00 00 00 00	 mov	 ecx, OFFSET ?g_dpDBClient@@3VCDPDatabaseClient@@A ; g_dpDBClient
  00330	e8 00 00 00 00	 call	 ?SendLogSMItemUse@CDPDatabaseClient@@QAEXPBDPAVCUser@@PAVCItemElem@@PAUItemProp@@0@Z ; CDPDatabaseClient::SendLogSMItemUse
$LN17@EnchantGen:
; File C:\IAGOS\server\v18\Source\Source\_Common\xUtil.h

; 16   : 	g_next = g_next * 1103515245 + 12345;// + nRandomSeed[ i++ ];

  00335	69 0d 00 00 00
	00 6d 4e c6 41	 imul	 ecx, DWORD PTR ?g_next@@3KA, 1103515245 ; g_next

; 22   : 	return  xRand() % num;

  0033f	b8 59 17 b7 d1	 mov	 eax, -776530087		; d1b71759H

; 16   : 	g_next = g_next * 1103515245 + 12345;// + nRandomSeed[ i++ ];

  00344	81 c1 39 30 00
	00		 add	 ecx, 12345		; 00003039H

; 22   : 	return  xRand() % num;

  0034a	f7 e1		 mul	 ecx

; 16   : 	g_next = g_next * 1103515245 + 12345;// + nRandomSeed[ i++ ];

  0034c	89 0d 00 00 00
	00		 mov	 DWORD PTR ?g_next@@3KA, ecx ; g_next

; 22   : 	return  xRand() % num;

  00352	c1 ea 0d	 shr	 edx, 13			; 0000000dH
  00355	69 c2 10 27 00
	00		 imul	 eax, edx, 10000
  0035b	2b c8		 sub	 ecx, eax
; File C:\IAGOS\server\v18\Source\Source\WorldServer\ItemUpgrade.cpp

; 1206 : 	if( (int)( xRandom( 10000 ) ) > nPercent )

  0035d	3b 8d 30 ff ff
	ff		 cmp	 ecx, DWORD PTR _nPercent$1$[ebp]
  00363	8b ce		 mov	 ecx, esi
  00365	0f 8e f8 00 00
	00		 jle	 $LN18@EnchantGen

; 1207 : 	{
; 1208 : 		// ĮŪŲą Ė▐╝╝┴÷ ├ŌĘ┬
; 1209 : 		pUser->AddDefinedText( TID_UPGRADE_FAIL );

  0036b	68 9e 08 00 00	 push	 2206			; 0000089eH
  00370	e8 00 00 00 00	 call	 ?AddDefinedText@CUser@@QAEXH@Z ; CUser::AddDefinedText

; 1210 : 		pUser->AddPlaySound( SND_INF_UPGRADEFAIL );

  00375	6a 0d		 push	 13			; 0000000dH
  00377	8b ce		 mov	 ecx, esi
  00379	e8 00 00 00 00	 call	 ?AddPlaySound@CUser@@QAEXK@Z ; CUser::AddPlaySound
; File C:\IAGOS\server\v18\Source\Source\_Common\Mover.h

; 1740 : 		if( GetAdjParam(DST_CHRSTATE) & CHS_INVISIBILITY )	// ĖČ╣²┼§ĖĒ╚Ł░Ī ░╔Ę╚┤┬░Ī?

  0037e	6a 40		 push	 64			; 00000040H
  00380	8b ce		 mov	 ecx, esi
  00382	e8 00 00 00 00	 call	 ?GetAdjParam@CMover@@QAEHH@Z ; CMover::GetAdjParam
  00387	a9 00 04 00 00	 test	 eax, 1024		; 00000400H
  0038c	75 7f		 jne	 SHORT $LN20@EnchantGen
; File C:\IAGOS\server\v18\Source\Source\WorldServer\ItemUpgrade.cpp

; 1212 : 		if((pUser->IsMode( TRANSPARENT_MODE ) ) == 0)

  0038e	f6 86 40 02 00
	00 02		 test	 BYTE PTR [esi+576], 2
  00395	75 76		 jne	 SHORT $LN20@EnchantGen
; File C:\IAGOS\server\v18\Source\Source\_Common\Obj.h

; 215  : 	D3DXVECTOR3		GetPos()	{ return m_vPos; }

  00397	f3 0f 7e 86 60
	01 00 00	 movq	 xmm0, QWORD PTR [esi+352]
; File C:\IAGOS\server\v18\Source\Source\WorldServer\ItemUpgrade.cpp

; 1213 : 			g_UserMng.AddCreateSfxObj((CMover *)pUser, XI_INT_FAIL, pUser->GetPos().x, pUser->GetPos().y, pUser->GetPos().z);

  0039f	b9 00 00 00 00	 mov	 ecx, OFFSET ?g_UserMng@@3VCUserMng@@A ; g_UserMng
; File C:\IAGOS\server\v18\Source\Source\_Common\Obj.h

; 215  : 	D3DXVECTOR3		GetPos()	{ return m_vPos; }

  003a4	8b 86 68 01 00
	00		 mov	 eax, DWORD PTR [esi+360]
  003aa	66 0f d6 85 1c
	ff ff ff	 movq	 QWORD PTR $T5[ebp], xmm0
  003b2	f3 0f 7e c0	 movq	 xmm0, xmm0
  003b6	66 0f d6 85 10
	ff ff ff	 movq	 QWORD PTR $T3[ebp], xmm0
  003be	f3 0f 7e 86 60
	01 00 00	 movq	 xmm0, QWORD PTR [esi+352]
; File C:\IAGOS\server\v18\Source\Source\WorldServer\ItemUpgrade.cpp

; 1213 : 			g_UserMng.AddCreateSfxObj((CMover *)pUser, XI_INT_FAIL, pUser->GetPos().x, pUser->GetPos().y, pUser->GetPos().z);

  003c6	6a 00		 push	 0
  003c8	83 ec 0c	 sub	 esp, 12			; 0000000cH
; File C:\IAGOS\server\v18\Source\Source\_Common\Obj.h

; 215  : 	D3DXVECTOR3		GetPos()	{ return m_vPos; }

  003cb	66 0f d6 85 04
	ff ff ff	 movq	 QWORD PTR $T1[ebp], xmm0
  003d3	89 85 24 ff ff
	ff		 mov	 DWORD PTR $T5[ebp+8], eax
; File C:\IAGOS\server\v18\Source\Source\WorldServer\ItemUpgrade.cpp

; 1213 : 			g_UserMng.AddCreateSfxObj((CMover *)pUser, XI_INT_FAIL, pUser->GetPos().x, pUser->GetPos().y, pUser->GetPos().z);

  003d9	f3 0f 10 85 24
	ff ff ff	 movss	 xmm0, DWORD PTR $T5[ebp+8]
  003e1	f3 0f 11 44 24
	08		 movss	 DWORD PTR [esp+8], xmm0
  003e7	f3 0f 10 85 14
	ff ff ff	 movss	 xmm0, DWORD PTR $T3[ebp+4]
  003ef	f3 0f 11 44 24
	04		 movss	 DWORD PTR [esp+4], xmm0
  003f5	f3 0f 10 85 04
	ff ff ff	 movss	 xmm0, DWORD PTR $T1[ebp]
  003fd	f3 0f 11 04 24	 movss	 DWORD PTR [esp], xmm0
  00402	68 b3 06 00 00	 push	 1715			; 000006b3H
  00407	56		 push	 esi
  00408	e8 00 00 00 00	 call	 ?AddCreateSfxObj@CUserMng@@QAEXPAVCCtrl@@KMMMH@Z ; CUserMng::AddCreateSfxObj
$LN20@EnchantGen:

; 1214 : 
; 1215 : 		// ĮŪŲąŪŽĖķ 3└╠╗¾└╠Ėķ ŠŲ└╠┼█ ╗Ķ┴”
; 1216 : 		if( *pAbilityOption >= 3 )

  0040d	83 7f 64 03	 cmp	 DWORD PTR [edi+100], 3
  00411	0f 8c 24 01 00
	00		 jl	 $LN19@EnchantGen

; 1217 : 		{
; 1218 : 			if( !bSmelprot )

  00417	83 bd 2c ff ff
	ff 00		 cmp	 DWORD PTR _bSmelprot$1$[ebp], 0
  0041e	b9 00 00 00 00	 mov	 ecx, OFFSET ?g_DPSrvr@@3VCDPSrvr@@A ; g_DPSrvr
  00423	0f bf 47 74	 movsx	 eax, WORD PTR [edi+116]
  00427	50		 push	 eax
  00428	57		 push	 edi
  00429	8d 85 34 ff ff
	ff		 lea	 eax, DWORD PTR _aLogItem$[ebp]
  0042f	50		 push	 eax
  00430	75 22		 jne	 SHORT $LN22@EnchantGen

; 1219 : 			{	// ╗ń┐ļŠ╚ŪŽĖķ ĄķŠŅ┐╚.. ┤ļ╗¾ ŠŲ└╠┼█ ╗Ķ┴” ĮŪŲą Ę╬▒ū
; 1220 : #ifdef __SM_ITEM_2ND_EX
; 1221 : 				if( bSmelprot2 )
; 1222 : 				{
; 1223 : 					pUser->UpdateItem( (BYTE)pItemMain->m_dwObjId, UI_AO,  pItemMain->GetAbilityOption() - 1 );
; 1224 : 					aLogItem.Action = "9";
; 1225 : 					g_DPSrvr.OnLogItem( aLogItem, pItemMain, pItemMain->m_nItemNum );
; 1226 : 				}
; 1227 : 				else
; 1228 : #endif	// __SM_ITEM_2ND_EX
; 1229 : 				{
; 1230 : 					aLogItem.Action = "L";

  00432	c7 85 34 ff ff
	ff 00 00 00 00	 mov	 DWORD PTR _aLogItem$[ebp], OFFSET ??_C@_01OCOKONAJ@L@

; 1231 : 					g_DPSrvr.OnLogItem( aLogItem, pItemMain, pItemMain->m_nItemNum );

  0043c	e8 00 00 00 00	 call	 ?OnLogItem@CDPSrvr@@QAEXAAU_LogItemInfo@@PAVCItemElem@@H@Z ; CDPSrvr::OnLogItem

; 1232 : 					pUser->RemoveItem( (BYTE)( pItemMain->m_dwObjId ), (short)1 );

  00441	0f b6 47 04	 movzx	 eax, BYTE PTR [edi+4]
  00445	8b ce		 mov	 ecx, esi
  00447	6a 01		 push	 1
  00449	50		 push	 eax
  0044a	e8 00 00 00 00	 call	 ?RemoveItem@CMover@@QAEXEF@Z ; CMover::RemoveItem

; 1233 : 				}
; 1234 : 			}

  0044f	e9 e7 00 00 00	 jmp	 $LN19@EnchantGen
$LN22@EnchantGen:

; 1235 : 			else
; 1236 : 			{
; 1237 : 				aLogItem.Action = "F";

  00454	c7 85 34 ff ff
	ff 00 00 00 00	 mov	 DWORD PTR _aLogItem$[ebp], OFFSET ??_C@_01BIAFAFID@F@

; 1238 : 				g_DPSrvr.OnLogItem( aLogItem, pItemMain, pItemMain->m_nItemNum );
; 1239 : 			}
; 1240 : 		}
; 1241 : 	}

  0045e	e9 d3 00 00 00	 jmp	 $LN164@EnchantGen
$LN18@EnchantGen:

; 1242 : 	else
; 1243 : 	{
; 1244 : 		// ╝║░°
; 1245 : 		pUser->AddDefinedText( TID_UPGRADE_SUCCEEFUL );

  00463	68 9d 08 00 00	 push	 2205			; 0000089dH
  00468	e8 00 00 00 00	 call	 ?AddDefinedText@CUser@@QAEXH@Z ; CUser::AddDefinedText

; 1246 : 		pUser->AddPlaySound( SND_INF_UPGRADESUCCESS );

  0046d	6a 0e		 push	 14			; 0000000eH
  0046f	8b ce		 mov	 ecx, esi
  00471	e8 00 00 00 00	 call	 ?AddPlaySound@CUser@@QAEXK@Z ; CUser::AddPlaySound
; File C:\IAGOS\server\v18\Source\Source\_Common\Mover.h

; 1740 : 		if( GetAdjParam(DST_CHRSTATE) & CHS_INVISIBILITY )	// ĖČ╣²┼§ĖĒ╚Ł░Ī ░╔Ę╚┤┬░Ī?

  00476	6a 40		 push	 64			; 00000040H
  00478	8b ce		 mov	 ecx, esi
  0047a	e8 00 00 00 00	 call	 ?GetAdjParam@CMover@@QAEHH@Z ; CMover::GetAdjParam
  0047f	a9 00 04 00 00	 test	 eax, 1024		; 00000400H
  00484	75 7f		 jne	 SHORT $LN24@EnchantGen
; File C:\IAGOS\server\v18\Source\Source\WorldServer\ItemUpgrade.cpp

; 1248 : 		if((pUser->IsMode( TRANSPARENT_MODE ) ) == 0)

  00486	f6 86 40 02 00
	00 02		 test	 BYTE PTR [esi+576], 2
  0048d	75 76		 jne	 SHORT $LN24@EnchantGen
; File C:\IAGOS\server\v18\Source\Source\_Common\Obj.h

; 215  : 	D3DXVECTOR3		GetPos()	{ return m_vPos; }

  0048f	f3 0f 7e 86 60
	01 00 00	 movq	 xmm0, QWORD PTR [esi+352]
; File C:\IAGOS\server\v18\Source\Source\WorldServer\ItemUpgrade.cpp

; 1249 : 			g_UserMng.AddCreateSfxObj((CMover *)pUser, XI_INT_SUCCESS, pUser->GetPos().x, pUser->GetPos().y, pUser->GetPos().z);

  00497	b9 00 00 00 00	 mov	 ecx, OFFSET ?g_UserMng@@3VCUserMng@@A ; g_UserMng
; File C:\IAGOS\server\v18\Source\Source\_Common\Obj.h

; 215  : 	D3DXVECTOR3		GetPos()	{ return m_vPos; }

  0049c	8b 86 68 01 00
	00		 mov	 eax, DWORD PTR [esi+360]
  004a2	66 0f d6 85 04
	ff ff ff	 movq	 QWORD PTR $T2[ebp], xmm0
  004aa	f3 0f 7e c0	 movq	 xmm0, xmm0
  004ae	66 0f d6 85 10
	ff ff ff	 movq	 QWORD PTR $T4[ebp], xmm0
  004b6	f3 0f 7e 86 60
	01 00 00	 movq	 xmm0, QWORD PTR [esi+352]
; File C:\IAGOS\server\v18\Source\Source\WorldServer\ItemUpgrade.cpp

; 1249 : 			g_UserMng.AddCreateSfxObj((CMover *)pUser, XI_INT_SUCCESS, pUser->GetPos().x, pUser->GetPos().y, pUser->GetPos().z);

  004be	6a 00		 push	 0
  004c0	83 ec 0c	 sub	 esp, 12			; 0000000cH
; File C:\IAGOS\server\v18\Source\Source\_Common\Obj.h

; 215  : 	D3DXVECTOR3		GetPos()	{ return m_vPos; }

  004c3	66 0f d6 85 1c
	ff ff ff	 movq	 QWORD PTR $T6[ebp], xmm0
  004cb	89 85 0c ff ff
	ff		 mov	 DWORD PTR $T2[ebp+8], eax
; File C:\IAGOS\server\v18\Source\Source\WorldServer\ItemUpgrade.cpp

; 1249 : 			g_UserMng.AddCreateSfxObj((CMover *)pUser, XI_INT_SUCCESS, pUser->GetPos().x, pUser->GetPos().y, pUser->GetPos().z);

  004d1	f3 0f 10 85 0c
	ff ff ff	 movss	 xmm0, DWORD PTR $T2[ebp+8]
  004d9	f3 0f 11 44 24
	08		 movss	 DWORD PTR [esp+8], xmm0
  004df	f3 0f 10 85 14
	ff ff ff	 movss	 xmm0, DWORD PTR $T4[ebp+4]
  004e7	f3 0f 11 44 24
	04		 movss	 DWORD PTR [esp+4], xmm0
  004ed	f3 0f 10 85 1c
	ff ff ff	 movss	 xmm0, DWORD PTR $T6[ebp]
  004f5	f3 0f 11 04 24	 movss	 DWORD PTR [esp], xmm0
  004fa	68 b2 06 00 00	 push	 1714			; 000006b2H
  004ff	56		 push	 esi
  00500	e8 00 00 00 00	 call	 ?AddCreateSfxObj@CUserMng@@QAEXPAVCCtrl@@KMMMH@Z ; CUserMng::AddCreateSfxObj
$LN24@EnchantGen:

; 1250 : 
; 1251 : 		pUser->UpdateItem( (BYTE)pItemMain->m_dwObjId, UI_AO,  pItemMain->GetAbilityOption()+1 );

  00505	8b 47 64	 mov	 eax, DWORD PTR [edi+100]
  00508	8b ce		 mov	 ecx, esi
  0050a	6a 00		 push	 0
  0050c	40		 inc	 eax
  0050d	50		 push	 eax
  0050e	0f b6 47 04	 movzx	 eax, BYTE PTR [edi+4]
  00512	6a 03		 push	 3
  00514	50		 push	 eax
  00515	e8 00 00 00 00	 call	 ?UpdateItem@CMover@@QAEXEDKK@Z ; CMover::UpdateItem

; 1252 : 		aLogItem.Action = "H";
; 1253 : 		g_DPSrvr.OnLogItem( aLogItem, pItemMain, pItemMain->m_nItemNum );

  0051a	0f bf 47 74	 movsx	 eax, WORD PTR [edi+116]
  0051e	b9 00 00 00 00	 mov	 ecx, OFFSET ?g_DPSrvr@@3VCDPSrvr@@A ; g_DPSrvr
  00523	50		 push	 eax
  00524	57		 push	 edi
  00525	8d 85 34 ff ff
	ff		 lea	 eax, DWORD PTR _aLogItem$[ebp]
  0052b	c7 85 34 ff ff
	ff 00 00 00 00	 mov	 DWORD PTR _aLogItem$[ebp], OFFSET ??_C@_01IGIGCIAN@H@
  00535	50		 push	 eax
$LN164@EnchantGen:

; 1254 : 	}
; 1255 : 
; 1256 : 	aLogItem.Action = "N";

  00536	e8 00 00 00 00	 call	 ?OnLogItem@CDPSrvr@@QAEXAAU_LogItemInfo@@PAVCItemElem@@H@Z ; CDPSrvr::OnLogItem
$LN19@EnchantGen:

; 1257 : 	g_DPSrvr.OnLogItem( aLogItem, pItemMaterial, pItemMaterial->m_nItemNum );

  0053b	8b 9d 28 ff ff
	ff		 mov	 ebx, DWORD PTR _pItemMaterial$GSCopy$1$[ebp]
  00541	b9 00 00 00 00	 mov	 ecx, OFFSET ?g_DPSrvr@@3VCDPSrvr@@A ; g_DPSrvr
  00546	c7 85 34 ff ff
	ff 00 00 00 00	 mov	 DWORD PTR _aLogItem$[ebp], OFFSET ??_C@_01NANMIPIL@N@
  00550	0f bf 43 74	 movsx	 eax, WORD PTR [ebx+116]
  00554	50		 push	 eax
  00555	53		 push	 ebx
  00556	8d 85 34 ff ff
	ff		 lea	 eax, DWORD PTR _aLogItem$[ebp]
  0055c	50		 push	 eax
  0055d	e8 00 00 00 00	 call	 ?OnLogItem@CDPSrvr@@QAEXAAU_LogItemInfo@@PAVCItemElem@@H@Z ; CDPSrvr::OnLogItem

; 1258 : 	// ┴”Ę├ŠŲ┼█ ╗Ķ┴” - ╝║░°└╠┤°, ĮŪŲą┤°...
; 1259 : 	pUser->RemoveItem( (BYTE)( pItemMaterial->m_dwObjId ), (short)1 );

  00562	0f b6 43 04	 movzx	 eax, BYTE PTR [ebx+4]
  00566	8b ce		 mov	 ecx, esi
  00568	6a 01		 push	 1
  0056a	50		 push	 eax
  0056b	e8 00 00 00 00	 call	 ?RemoveItem@CMover@@QAEXEF@Z ; CMover::RemoveItem
  00570	5f		 pop	 edi

; 1260 : }

  00571	5e		 pop	 esi
  00572	5b		 pop	 ebx
  00573	8b 4d fc	 mov	 ecx, DWORD PTR __$ArrayPad$[ebp]
  00576	33 cd		 xor	 ecx, ebp
  00578	e8 00 00 00 00	 call	 @__security_check_cookie@4
  0057d	8b e5		 mov	 esp, ebp
  0057f	5d		 pop	 ebp
  00580	c2 0c 00	 ret	 12			; 0000000cH
$LN118@EnchantGen:

; 1104 : 	{
; 1105 : 		pUser->AddDefinedText( TID_GAME_NOTEQUALITEM );			

  00583	68 4d 09 00 00	 push	 2381			; 0000094dH
$LN163@EnchantGen:

; 1260 : }

  00588	8b ce		 mov	 ecx, esi
  0058a	e8 00 00 00 00	 call	 ?AddDefinedText@CUser@@QAEXH@Z ; CUser::AddDefinedText
$LN1@EnchantGen:
  0058f	8b 4d fc	 mov	 ecx, DWORD PTR __$ArrayPad$[ebp]
  00592	5f		 pop	 edi
  00593	5e		 pop	 esi
  00594	33 cd		 xor	 ecx, ebp
  00596	5b		 pop	 ebx
  00597	e8 00 00 00 00	 call	 @__security_check_cookie@4
  0059c	8b e5		 mov	 esp, ebp
  0059e	5d		 pop	 ebp
  0059f	c2 0c 00	 ret	 12			; 0000000cH
?EnchantGeneral@CItemUpgrade@@QAEXPAVCUser@@PAVCItemElem@@1@Z ENDP ; CItemUpgrade::EnchantGeneral
_TEXT	ENDS
; Function compile flags: /Ogtp
; File C:\IAGOS\server\v18\Source\Source\WorldServer\ItemUpgrade.cpp
; File C:\IAGOS\server\v18\Source\Source\_Common\Item.h
; File C:\IAGOS\server\v18\Source\Source\WorldServer\ItemUpgrade.cpp
; File C:\IAGOS\server\v18\Source\Source\_Common\Project.h
; File C:\IAGOS\server\v18\Source\Source\WorldServer\ItemUpgrade.cpp
; File C:\IAGOS\server\v18\Source\Source\_Common\Project.h
; File C:\IAGOS\server\v18\Source\Source\_Common\data.h
; File C:\IAGOS\server\v18\Source\Source\_Common\Project.h
; File C:\IAGOS\server\v18\Source\Source\WorldServer\ItemUpgrade.cpp
; File C:\IAGOS\server\v18\Source\Source\_Common\Item.h
; File C:\IAGOS\server\v18\Source\Source\_Common\Project.h
; File C:\IAGOS\server\v18\Source\Source\_Common\data.h
; File C:\IAGOS\server\v18\Source\Source\_Common\Project.h
; File C:\IAGOS\server\v18\Source\Source\WorldServer\ItemUpgrade.cpp
; File C:\IAGOS\server\v18\Source\Source\_Common\Item.h
; File C:\IAGOS\server\v18\Source\Source\_Common\Project.h
; File C:\IAGOS\server\v18\Source\Source\_Common\data.h
; File C:\IAGOS\server\v18\Source\Source\_Common\Project.h
; File C:\IAGOS\server\v18\Source\Source\_Common\Item.h
; File C:\IAGOS\server\v18\Source\Source\_Common\Project.h
; File C:\IAGOS\server\v18\Source\Source\_Common\data.h
; File C:\IAGOS\server\v18\Source\Source\_Common\Project.h
; File C:\IAGOS\server\v18\Source\Source\WorldServer\ItemUpgrade.cpp
; File C:\IAGOS\server\v18\Source\Source\_Common\Item.h
; File C:\IAGOS\server\v18\Source\Source\_Common\Project.h
; File C:\IAGOS\server\v18\Source\Source\_Common\data.h
; File C:\IAGOS\server\v18\Source\Source\_Common\Project.h
; File C:\IAGOS\server\v18\Source\Source\WorldServer\ItemUpgrade.cpp
; File C:\IAGOS\server\v18\Source\Source\_Common\xUtil.h
; File C:\IAGOS\server\v18\Source\Source\WorldServer\ItemUpgrade.cpp
; File C:\IAGOS\server\v18\Source\Source\_Common\Mover.h
; File C:\IAGOS\server\v18\Source\Source\WorldServer\ItemUpgrade.cpp
; File C:\IAGOS\server\v18\Source\Source\_Common\Obj.h
; File C:\IAGOS\server\v18\Source\Source\WorldServer\ItemUpgrade.cpp
; File C:\IAGOS\server\v18\Source\Source\_Common\Obj.h
; File C:\IAGOS\server\v18\Source\Source\WorldServer\ItemUpgrade.cpp
; File C:\IAGOS\server\v18\Source\Source\_Common\Obj.h
; File C:\IAGOS\server\v18\Source\Source\WorldServer\ItemUpgrade.cpp
; File C:\IAGOS\server\v18\Source\Source\_Common\Mover.h
; File C:\IAGOS\server\v18\Source\Source\WorldServer\ItemUpgrade.cpp
; File C:\IAGOS\server\v18\Source\Source\_Common\Obj.h
; File C:\IAGOS\server\v18\Source\Source\WorldServer\ItemUpgrade.cpp
; File C:\IAGOS\server\v18\Source\Source\_Common\Obj.h
; File C:\IAGOS\server\v18\Source\Source\WorldServer\ItemUpgrade.cpp
; File C:\IAGOS\server\v18\Source\Source\_Common\Obj.h
; File C:\IAGOS\server\v18\Source\Source\WorldServer\ItemUpgrade.cpp
;	COMDAT ?SmeltSafetyAttribute@CItemUpgrade@@AAEEPAVCUser@@PAVCItemElem@@111@Z
_TEXT	SEGMENT
$T1 = -260						; size = 12
$T2 = -260						; size = 12
$T3 = -248						; size = 12
$T4 = -248						; size = 12
$T5 = -236						; size = 12
$T6 = -236						; size = 12
_this$GSCopy$1$ = -224					; size = 4
_pItemProtScr$GSCopy$1$ = -220				; size = 4
_pItemMaterial$GSCopy$1$ = -216				; size = 4
_pItemProp$1$ = -212					; size = 4
_dwValue$1$ = -212					; size = 4
_pItemSmeltScr$GSCopy$1$ = -212				; size = 4
_nPercent$1$ = -208					; size = 4
$T7 = -208						; size = 4
_aLogItem$ = -204					; size = 200
__$ArrayPad$ = -4					; size = 4
_pUser$ = 8						; size = 4
_pItemMain$ = 12					; size = 4
_pItemMaterial$ = 16					; size = 4
_pItemProtScr$ = 20					; size = 4
_pItemSmeltScr$ = 24					; size = 4
?SmeltSafetyAttribute@CItemUpgrade@@AAEEPAVCUser@@PAVCItemElem@@111@Z PROC ; CItemUpgrade::SmeltSafetyAttribute, COMDAT
; _this$ = ecx

; 966  : {

  00000	55		 push	 ebp
  00001	8b ec		 mov	 ebp, esp
  00003	81 ec 04 01 00
	00		 sub	 esp, 260		; 00000104H
  00009	a1 00 00 00 00	 mov	 eax, DWORD PTR ___security_cookie
  0000e	33 c5		 xor	 eax, ebp
  00010	89 45 fc	 mov	 DWORD PTR __$ArrayPad$[ebp], eax
  00013	8b 45 14	 mov	 eax, DWORD PTR _pItemProtScr$[ebp]
  00016	53		 push	 ebx
  00017	8b 5d 0c	 mov	 ebx, DWORD PTR _pItemMain$[ebp]
  0001a	56		 push	 esi
  0001b	8b 75 08	 mov	 esi, DWORD PTR _pUser$[ebp]
  0001e	89 85 24 ff ff
	ff		 mov	 DWORD PTR _pItemProtScr$GSCopy$1$[ebp], eax
  00024	8b 45 18	 mov	 eax, DWORD PTR _pItemSmeltScr$[ebp]
  00027	89 8d 20 ff ff
	ff		 mov	 DWORD PTR _this$GSCopy$1$[ebp], ecx
; File C:\IAGOS\server\v18\Source\Source\_Common\Item.h

; 230  : 	ItemProp*	GetProp()	{	return prj.GetItemProp( m_dwItemId );	}

  0002d	8b 4b 0c	 mov	 ecx, DWORD PTR [ebx+12]
; File C:\IAGOS\server\v18\Source\Source\WorldServer\ItemUpgrade.cpp

; 966  : {

  00030	89 85 2c ff ff
	ff		 mov	 DWORD PTR _pItemSmeltScr$GSCopy$1$[ebp], eax
; File C:\IAGOS\server\v18\Source\Source\_Common\Project.h

; 1389 : 	VERIFY_RANGE_ASSERT( nIndex, 0, m_aPropItem.GetSize(), "GetItemProp range_error", NULL );

  00036	a1 40 02 00 00	 mov	 eax, DWORD PTR ?prj@@3VCProject@@A+576
; File C:\IAGOS\server\v18\Source\Source\WorldServer\ItemUpgrade.cpp

; 966  : {

  0003b	57		 push	 edi
  0003c	8b 7d 10	 mov	 edi, DWORD PTR _pItemMaterial$[ebp]
  0003f	89 bd 28 ff ff
	ff		 mov	 DWORD PTR _pItemMaterial$GSCopy$1$[ebp], edi
; File C:\IAGOS\server\v18\Source\Source\_Common\Project.h

; 1389 : 	VERIFY_RANGE_ASSERT( nIndex, 0, m_aPropItem.GetSize(), "GetItemProp range_error", NULL );

  00045	85 c9		 test	 ecx, ecx
  00047	78 10		 js	 SHORT $LN26@SmeltSafet
  00049	3b c8		 cmp	 ecx, eax
  0004b	7d 0c		 jge	 SHORT $LN26@SmeltSafet
; File C:\IAGOS\server\v18\Source\Source\_Common\data.h

; 270  : 	if( dwIndex >= (DWORD)m_nMaxIndex )

  0004d	73 20		 jae	 SHORT $LN162@SmeltSafet

; 271  : 		return NULL;
; 272  : 	return (T*) m_apOffset[ dwIndex ];

  0004f	a1 30 02 00 00	 mov	 eax, DWORD PTR ?prj@@3VCProject@@A+560
  00054	8b 04 88	 mov	 eax, DWORD PTR [eax+ecx*4]
; File C:\IAGOS\server\v18\Source\Source\_Common\Project.h

; 1390 : 	return m_aPropItem.GetAt( nIndex ); 

  00057	eb 18		 jmp	 SHORT $LN21@SmeltSafet
$LN26@SmeltSafet:

; 579  : 	LPCTSTR szErr = Error( _T( "%s min:%d, max:%d, index:%d" ), szMsg, nMin, nMax, nIndex ); 

  00059	51		 push	 ecx
  0005a	50		 push	 eax
  0005b	6a 00		 push	 0
  0005d	68 00 00 00 00	 push	 OFFSET ??_C@_0BI@BEIFNGEL@GetItemProp?5range_error@
  00062	68 00 00 00 00	 push	 OFFSET ??_C@_0BM@HMFGHCP@?$CFs?5min?3?$CFd?0?5max?3?$CFd?0?5index?3?$CFd@
  00067	e8 00 00 00 00	 call	 ?Error@@YAPBDPBDZZ	; Error
  0006c	83 c4 14	 add	 esp, 20			; 00000014H
$LN162@SmeltSafet:
; File C:\IAGOS\server\v18\Source\Source\WorldServer\ItemUpgrade.cpp

; 968  : 	if( !CItemElem::IsEleRefineryAble( pItemMain->GetProp() ) )

  0006f	33 c0		 xor	 eax, eax
$LN21@SmeltSafet:
  00071	50		 push	 eax
  00072	e8 00 00 00 00	 call	 ?IsEleRefineryAble@CItemElem@@SAHPAUItemProp@@@Z ; CItemElem::IsEleRefineryAble
  00077	83 c4 04	 add	 esp, 4
  0007a	85 c0		 test	 eax, eax
  0007c	74 4d		 je	 SHORT $LN9@SmeltSafet

; 969  : 		return 0;
; 970  : 
; 971  : 	// ╝ė╝║└║ Ūč░Ī┴÷ĖĖ
; 972  : 	if( pItemMain->m_bItemResist != SAI79::NO_PROP )

  0007e	80 7b 7c 00	 cmp	 BYTE PTR [ebx+124], 0
  00082	74 5c		 je	 SHORT $LN130@SmeltSafet
; File C:\IAGOS\server\v18\Source\Source\_Common\Item.h

; 230  : 	ItemProp*	GetProp()	{	return prj.GetItemProp( m_dwItemId );	}

  00084	8b 4f 0c	 mov	 ecx, DWORD PTR [edi+12]
; File C:\IAGOS\server\v18\Source\Source\_Common\Project.h

; 1389 : 	VERIFY_RANGE_ASSERT( nIndex, 0, m_aPropItem.GetSize(), "GetItemProp range_error", NULL );

  00087	8b 3d 40 02 00
	00		 mov	 edi, DWORD PTR ?prj@@3VCProject@@A+576
  0008d	85 c9		 test	 ecx, ecx
  0008f	78 10		 js	 SHORT $LN68@SmeltSafet
  00091	3b cf		 cmp	 ecx, edi
  00093	7d 0c		 jge	 SHORT $LN68@SmeltSafet
; File C:\IAGOS\server\v18\Source\Source\_Common\data.h

; 270  : 	if( dwIndex >= (DWORD)m_nMaxIndex )

  00095	73 26		 jae	 SHORT $LN163@SmeltSafet

; 271  : 		return NULL;
; 272  : 	return (T*) m_apOffset[ dwIndex ];

  00097	a1 30 02 00 00	 mov	 eax, DWORD PTR ?prj@@3VCProject@@A+560
  0009c	8b 0c 88	 mov	 ecx, DWORD PTR [eax+ecx*4]
; File C:\IAGOS\server\v18\Source\Source\_Common\Project.h

; 1390 : 	return m_aPropItem.GetAt( nIndex ); 

  0009f	eb 1e		 jmp	 SHORT $LN63@SmeltSafet
$LN68@SmeltSafet:

; 579  : 	LPCTSTR szErr = Error( _T( "%s min:%d, max:%d, index:%d" ), szMsg, nMin, nMax, nIndex ); 

  000a1	51		 push	 ecx
  000a2	57		 push	 edi
  000a3	6a 00		 push	 0
  000a5	68 00 00 00 00	 push	 OFFSET ??_C@_0BI@BEIFNGEL@GetItemProp?5range_error@
  000aa	68 00 00 00 00	 push	 OFFSET ??_C@_0BM@HMFGHCP@?$CFs?5min?3?$CFd?0?5max?3?$CFd?0?5index?3?$CFd@
  000af	e8 00 00 00 00	 call	 ?Error@@YAPBDPBDZZ	; Error

; 1389 : 	VERIFY_RANGE_ASSERT( nIndex, 0, m_aPropItem.GetSize(), "GetItemProp range_error", NULL );

  000b4	8b 3d 40 02 00
	00		 mov	 edi, DWORD PTR ?prj@@3VCProject@@A+576

; 579  : 	LPCTSTR szErr = Error( _T( "%s min:%d, max:%d, index:%d" ), szMsg, nMin, nMax, nIndex ); 

  000ba	83 c4 14	 add	 esp, 20			; 00000014H
$LN163@SmeltSafet:
; File C:\IAGOS\server\v18\Source\Source\WorldServer\ItemUpgrade.cpp

; 974  : 		if( pItemMain->m_bItemResist != pItemMaterial->GetProp()->eItemType )

  000bd	33 c9		 xor	 ecx, ecx
$LN63@SmeltSafet:
  000bf	0f b6 43 7c	 movzx	 eax, BYTE PTR [ebx+124]
  000c3	3b 81 f0 00 00
	00		 cmp	 eax, DWORD PTR [ecx+240]
  000c9	74 1b		 je	 SHORT $LN125@SmeltSafet
$LN9@SmeltSafet:
  000cb	5f		 pop	 edi

; 1067 : 
; 1068 : 		return 1;
; 1069 : 	}
; 1070 : 	return 0;
; 1071 : }

  000cc	5e		 pop	 esi
  000cd	32 c0		 xor	 al, al
  000cf	5b		 pop	 ebx
  000d0	8b 4d fc	 mov	 ecx, DWORD PTR __$ArrayPad$[ebp]
  000d3	33 cd		 xor	 ecx, ebp
  000d5	e8 00 00 00 00	 call	 @__security_check_cookie@4
  000da	8b e5		 mov	 esp, ebp
  000dc	5d		 pop	 ebp
  000dd	c2 14 00	 ret	 20			; 00000014H
$LN130@SmeltSafet:

; 969  : 		return 0;
; 970  : 
; 971  : 	// ╝ė╝║└║ Ūč░Ī┴÷ĖĖ
; 972  : 	if( pItemMain->m_bItemResist != SAI79::NO_PROP )

  000e0	8b 3d 40 02 00
	00		 mov	 edi, DWORD PTR ?prj@@3VCProject@@A+576
$LN125@SmeltSafet:
; File C:\IAGOS\server\v18\Source\Source\_Common\Item.h

; 230  : 	ItemProp*	GetProp()	{	return prj.GetItemProp( m_dwItemId );	}

  000e6	8b 8d 28 ff ff
	ff		 mov	 ecx, DWORD PTR _pItemMaterial$GSCopy$1$[ebp]
  000ec	8b 49 0c	 mov	 ecx, DWORD PTR [ecx+12]
; File C:\IAGOS\server\v18\Source\Source\_Common\Project.h

; 1389 : 	VERIFY_RANGE_ASSERT( nIndex, 0, m_aPropItem.GetSize(), "GetItemProp range_error", NULL );

  000ef	85 c9		 test	 ecx, ecx
  000f1	78 16		 js	 SHORT $LN40@SmeltSafet
  000f3	3b cf		 cmp	 ecx, edi
  000f5	7d 12		 jge	 SHORT $LN40@SmeltSafet
; File C:\IAGOS\server\v18\Source\Source\_Common\data.h

; 270  : 	if( dwIndex >= (DWORD)m_nMaxIndex )

  000f7	73 2c		 jae	 SHORT $LN164@SmeltSafet

; 271  : 		return NULL;
; 272  : 	return (T*) m_apOffset[ dwIndex ];

  000f9	a1 30 02 00 00	 mov	 eax, DWORD PTR ?prj@@3VCProject@@A+560
  000fe	8b 04 88	 mov	 eax, DWORD PTR [eax+ecx*4]
  00101	89 85 30 ff ff
	ff		 mov	 DWORD PTR $T7[ebp], eax
; File C:\IAGOS\server\v18\Source\Source\_Common\Project.h

; 1390 : 	return m_aPropItem.GetAt( nIndex ); 

  00107	eb 26		 jmp	 SHORT $LN35@SmeltSafet
$LN40@SmeltSafet:

; 579  : 	LPCTSTR szErr = Error( _T( "%s min:%d, max:%d, index:%d" ), szMsg, nMin, nMax, nIndex ); 

  00109	51		 push	 ecx
  0010a	57		 push	 edi
  0010b	6a 00		 push	 0
  0010d	68 00 00 00 00	 push	 OFFSET ??_C@_0BI@BEIFNGEL@GetItemProp?5range_error@
  00112	68 00 00 00 00	 push	 OFFSET ??_C@_0BM@HMFGHCP@?$CFs?5min?3?$CFd?0?5max?3?$CFd?0?5index?3?$CFd@
  00117	e8 00 00 00 00	 call	 ?Error@@YAPBDPBDZZ	; Error

; 1389 : 	VERIFY_RANGE_ASSERT( nIndex, 0, m_aPropItem.GetSize(), "GetItemProp range_error", NULL );

  0011c	8b 3d 40 02 00
	00		 mov	 edi, DWORD PTR ?prj@@3VCProject@@A+576

; 579  : 	LPCTSTR szErr = Error( _T( "%s min:%d, max:%d, index:%d" ), szMsg, nMin, nMax, nIndex ); 

  00122	83 c4 14	 add	 esp, 20			; 00000014H
$LN164@SmeltSafet:
; File C:\IAGOS\server\v18\Source\Source\_Common\Item.h

; 230  : 	ItemProp*	GetProp()	{	return prj.GetItemProp( m_dwItemId );	}

  00125	c7 85 30 ff ff
	ff 00 00 00 00	 mov	 DWORD PTR $T7[ebp], 0
$LN35@SmeltSafet:
  0012f	8b 85 28 ff ff
	ff		 mov	 eax, DWORD PTR _pItemMaterial$GSCopy$1$[ebp]
  00135	8b 48 0c	 mov	 ecx, DWORD PTR [eax+12]
; File C:\IAGOS\server\v18\Source\Source\_Common\Project.h

; 1389 : 	VERIFY_RANGE_ASSERT( nIndex, 0, m_aPropItem.GetSize(), "GetItemProp range_error", NULL );

  00138	85 c9		 test	 ecx, ecx
  0013a	78 10		 js	 SHORT $LN54@SmeltSafet
  0013c	3b cf		 cmp	 ecx, edi
  0013e	7d 0c		 jge	 SHORT $LN54@SmeltSafet
; File C:\IAGOS\server\v18\Source\Source\_Common\data.h

; 270  : 	if( dwIndex >= (DWORD)m_nMaxIndex )

  00140	73 26		 jae	 SHORT $LN165@SmeltSafet

; 271  : 		return NULL;
; 272  : 	return (T*) m_apOffset[ dwIndex ];

  00142	a1 30 02 00 00	 mov	 eax, DWORD PTR ?prj@@3VCProject@@A+560
  00147	8b 04 88	 mov	 eax, DWORD PTR [eax+ecx*4]
; File C:\IAGOS\server\v18\Source\Source\_Common\Project.h

; 1390 : 	return m_aPropItem.GetAt( nIndex ); 

  0014a	eb 1e		 jmp	 SHORT $LN49@SmeltSafet
$LN54@SmeltSafet:

; 579  : 	LPCTSTR szErr = Error( _T( "%s min:%d, max:%d, index:%d" ), szMsg, nMin, nMax, nIndex ); 

  0014c	51		 push	 ecx
  0014d	57		 push	 edi
  0014e	6a 00		 push	 0
  00150	68 00 00 00 00	 push	 OFFSET ??_C@_0BI@BEIFNGEL@GetItemProp?5range_error@
  00155	68 00 00 00 00	 push	 OFFSET ??_C@_0BM@HMFGHCP@?$CFs?5min?3?$CFd?0?5max?3?$CFd?0?5index?3?$CFd@
  0015a	e8 00 00 00 00	 call	 ?Error@@YAPBDPBDZZ	; Error

; 1389 : 	VERIFY_RANGE_ASSERT( nIndex, 0, m_aPropItem.GetSize(), "GetItemProp range_error", NULL );

  0015f	8b 3d 40 02 00
	00		 mov	 edi, DWORD PTR ?prj@@3VCProject@@A+576

; 579  : 	LPCTSTR szErr = Error( _T( "%s min:%d, max:%d, index:%d" ), szMsg, nMin, nMax, nIndex ); 

  00165	83 c4 14	 add	 esp, 20			; 00000014H
$LN165@SmeltSafet:
; File C:\IAGOS\server\v18\Source\Source\WorldServer\ItemUpgrade.cpp

; 979  : 	if( pItemMaterial->GetProp()->dwID != WhatEleCard( pItemMaterial->GetProp()->eItemType ) )

  00168	33 c0		 xor	 eax, eax
$LN49@SmeltSafet:
  0016a	ff b0 f0 00 00
	00		 push	 DWORD PTR [eax+240]
  00170	8b 8d 20 ff ff
	ff		 mov	 ecx, DWORD PTR _this$GSCopy$1$[ebp]
  00176	e8 00 00 00 00	 call	 ?WhatEleCard@CItemUpgrade@@QAEKK@Z ; CItemUpgrade::WhatEleCard
  0017b	8b 8d 30 ff ff
	ff		 mov	 ecx, DWORD PTR $T7[ebp]
  00181	39 01		 cmp	 DWORD PTR [ecx], eax
  00183	0f 85 42 ff ff
	ff		 jne	 $LN9@SmeltSafet
; File C:\IAGOS\server\v18\Source\Source\_Common\Item.h

; 230  : 	ItemProp*	GetProp()	{	return prj.GetItemProp( m_dwItemId );	}

  00189	8b 4b 0c	 mov	 ecx, DWORD PTR [ebx+12]
; File C:\IAGOS\server\v18\Source\Source\_Common\Project.h

; 1389 : 	VERIFY_RANGE_ASSERT( nIndex, 0, m_aPropItem.GetSize(), "GetItemProp range_error", NULL );

  0018c	85 c9		 test	 ecx, ecx
  0018e	78 10		 js	 SHORT $LN82@SmeltSafet
  00190	3b cf		 cmp	 ecx, edi
  00192	7d 0c		 jge	 SHORT $LN82@SmeltSafet
; File C:\IAGOS\server\v18\Source\Source\_Common\data.h

; 270  : 	if( dwIndex >= (DWORD)m_nMaxIndex )

  00194	73 20		 jae	 SHORT $LN166@SmeltSafet

; 271  : 		return NULL;
; 272  : 	return (T*) m_apOffset[ dwIndex ];

  00196	a1 30 02 00 00	 mov	 eax, DWORD PTR ?prj@@3VCProject@@A+560
  0019b	8b 04 88	 mov	 eax, DWORD PTR [eax+ecx*4]
; File C:\IAGOS\server\v18\Source\Source\_Common\Project.h

; 1390 : 	return m_aPropItem.GetAt( nIndex ); 

  0019e	eb 18		 jmp	 SHORT $LN77@SmeltSafet
$LN82@SmeltSafet:

; 579  : 	LPCTSTR szErr = Error( _T( "%s min:%d, max:%d, index:%d" ), szMsg, nMin, nMax, nIndex ); 

  001a0	51		 push	 ecx
  001a1	57		 push	 edi
  001a2	6a 00		 push	 0
  001a4	68 00 00 00 00	 push	 OFFSET ??_C@_0BI@BEIFNGEL@GetItemProp?5range_error@
  001a9	68 00 00 00 00	 push	 OFFSET ??_C@_0BM@HMFGHCP@?$CFs?5min?3?$CFd?0?5max?3?$CFd?0?5index?3?$CFd@
  001ae	e8 00 00 00 00	 call	 ?Error@@YAPBDPBDZZ	; Error
  001b3	83 c4 14	 add	 esp, 20			; 00000014H
$LN166@SmeltSafet:
; File C:\IAGOS\server\v18\Source\Source\WorldServer\ItemUpgrade.cpp

; 983  : 	if( pItemMain->GetProp()->dwReferStat1 >= BARUNA_D && pItemMain->GetProp()->dwReferStat1 <= BARUNA_S )

  001b6	33 c0		 xor	 eax, eax
$LN77@SmeltSafet:
  001b8	83 b8 d0 01 00
	00 04		 cmp	 DWORD PTR [eax+464], 4
  001bf	72 14		 jb	 SHORT $LN6@SmeltSafet
  001c1	8b cb		 mov	 ecx, ebx
  001c3	e8 00 00 00 00	 call	 ?GetPropA@CItemElem@@QAEPAUItemProp@@XZ ; CItemElem::GetPropA
  001c8	83 b8 d0 01 00
	00 08		 cmp	 DWORD PTR [eax+464], 8
  001cf	0f 86 f6 fe ff
	ff		 jbe	 $LN9@SmeltSafet
$LN6@SmeltSafet:

; 984  : 	{
; 985  : 		return 0;
; 986  : 	}
; 987  : #endif // __NEW_ITEM_VARUNA
; 988  : 
; 989  : 	// ├ų┤ļ ░¬└╗ │č┤┬ ░µ┐ņ ┴▀┤▄
; 990  : 	if( pItemMain->m_nResistAbilityOption >= GetMaxAttributeEnchantSize() )

  001d5	8b 8d 20 ff ff
	ff		 mov	 ecx, DWORD PTR _this$GSCopy$1$[ebp]
  001db	8b 83 80 00 00
	00		 mov	 eax, DWORD PTR [ebx+128]
  001e1	3b 41 24	 cmp	 eax, DWORD PTR [ecx+36]
  001e4	7c 15		 jl	 SHORT $LN7@SmeltSafet

; 1067 : 
; 1068 : 		return 1;
; 1069 : 	}
; 1070 : 	return 0;
; 1071 : }

  001e6	5f		 pop	 edi
  001e7	5e		 pop	 esi
  001e8	b0 03		 mov	 al, 3
  001ea	5b		 pop	 ebx
  001eb	8b 4d fc	 mov	 ecx, DWORD PTR __$ArrayPad$[ebp]
  001ee	33 cd		 xor	 ecx, ebp
  001f0	e8 00 00 00 00	 call	 @__security_check_cookie@4
  001f5	8b e5		 mov	 esp, ebp
  001f7	5d		 pop	 ebp
  001f8	c2 14 00	 ret	 20			; 00000014H
$LN7@SmeltSafet:

; 991  : 		return 3;
; 992  : 	
; 993  : 	// 10000┤▄└¦└Ū ╝║░° Ų█╝ŠŲ«
; 994  : 	int nPercent = GetAttributeEnchantProb( pItemMain->m_nResistAbilityOption );

  001fb	50		 push	 eax
  001fc	e8 00 00 00 00	 call	 ?GetAttributeEnchantProb@CItemUpgrade@@QAEHH@Z ; CItemUpgrade::GetAttributeEnchantProb

; 995  : 
; 996  : 	//	╝ė╝║ ┴”Ę├└Ū Ą╬ĘńĖČĖ«Ė” ╗ń┐ļŪ▀┤┘Ėķ
; 997  : 	if( pItemSmeltScr != NULL )

  00201	8b bd 2c ff ff
	ff		 mov	 edi, DWORD PTR _pItemSmeltScr$GSCopy$1$[ebp]
  00207	89 85 30 ff ff
	ff		 mov	 DWORD PTR _nPercent$1$[ebp], eax
  0020d	85 ff		 test	 edi, edi
  0020f	0f 84 8a 00 00
	00		 je	 $LN10@SmeltSafet

; 998  : 	{
; 999  : 		//	╝ė╝║ ┴”Ę├└Ū Ą╬ĘńĖČĖ«░Ī Ė┬┤┬┴÷ ╚«└╬
; 1000 : 		if( IsUsableItem( pItemSmeltScr ) && pItemSmeltScr->GetProp()->dwID == II_SYS_SYS_SCR_SMELTING2 )

  00215	57		 push	 edi
  00216	e8 00 00 00 00	 call	 ?IsUsableItem@@YAHPAVCItemBase@@@Z ; IsUsableItem
  0021b	83 c4 04	 add	 esp, 4
  0021e	85 c0		 test	 eax, eax
  00220	0f 84 a5 fe ff
	ff		 je	 $LN9@SmeltSafet
  00226	8b cf		 mov	 ecx, edi
  00228	e8 00 00 00 00	 call	 ?GetPropA@CItemElem@@QAEPAUItemProp@@XZ ; CItemElem::GetPropA
  0022d	81 38 f9 28 00
	00		 cmp	 DWORD PTR [eax], 10489	; 000028f9H
  00233	0f 85 92 fe ff
	ff		 jne	 $LN9@SmeltSafet

; 1001 : 		{
; 1002 : 			//	╝ė╝║ ┴”Ę├└Ū Ą╬ĘńĖČĖ« ╗ń┐ļ░Ī┤╔ ╝÷─Ī└╬░Ī
; 1003 : 			if( pItemMain->m_nResistAbilityOption < 10 )

  00239	83 bb 80 00 00
	00 0a		 cmp	 DWORD PTR [ebx+128], 10	; 0000000aH
  00240	7d 5d		 jge	 SHORT $LN10@SmeltSafet

; 1004 : 			{
; 1005 : 				nPercent	+= 1000;

  00242	81 85 30 ff ff
	ff e8 03 00 00	 add	 DWORD PTR _nPercent$1$[ebp], 1000 ; 000003e8H

; 1006 : 				//	╝ė╝║ ┴”Ę├└Ū Ą╬ĘńĖČĖ« Ę╬▒ū │▓▒µ░═
; 1007 : 				ItemProp* pItemProp = pItemSmeltScr->GetProp();

  0024c	8b cf		 mov	 ecx, edi
  0024e	e8 00 00 00 00	 call	 ?GetPropA@CItemElem@@QAEPAUItemProp@@XZ ; CItemElem::GetPropA
  00253	89 85 2c ff ff
	ff		 mov	 DWORD PTR _pItemProp$1$[ebp], eax

; 1008 : 				if( pItemProp )

  00259	85 c0		 test	 eax, eax
  0025b	74 34		 je	 SHORT $LN12@SmeltSafet

; 1009 : 				{
; 1010 : 					g_dpDBClient.SendLogSMItemUse( "1", pUser, pItemSmeltScr, pItemProp );

  0025d	68 00 00 00 00	 push	 OFFSET ??_C@_00CNPNBAHC@@
  00262	50		 push	 eax
  00263	57		 push	 edi
  00264	56		 push	 esi
  00265	68 00 00 00 00	 push	 OFFSET ??_C@_01HIHLOKLC@1@
  0026a	b9 00 00 00 00	 mov	 ecx, OFFSET ?g_dpDBClient@@3VCDPDatabaseClient@@A ; g_dpDBClient
  0026f	e8 00 00 00 00	 call	 ?SendLogSMItemUse@CDPDatabaseClient@@QAEXPBDPAVCUser@@PAVCItemElem@@PAUItemProp@@0@Z ; CDPDatabaseClient::SendLogSMItemUse

; 1011 : 					g_dpDBClient.SendLogSMItemUse( "2", pUser, NULL, pItemProp );

  00274	68 00 00 00 00	 push	 OFFSET ??_C@_00CNPNBAHC@@
  00279	ff b5 2c ff ff
	ff		 push	 DWORD PTR _pItemProp$1$[ebp]
  0027f	b9 00 00 00 00	 mov	 ecx, OFFSET ?g_dpDBClient@@3VCDPDatabaseClient@@A ; g_dpDBClient
  00284	6a 00		 push	 0
  00286	56		 push	 esi
  00287	68 00 00 00 00	 push	 OFFSET ??_C@_01FDFGLJHB@2@
  0028c	e8 00 00 00 00	 call	 ?SendLogSMItemUse@CDPDatabaseClient@@QAEXPBDPAVCUser@@PAVCItemElem@@PAUItemProp@@0@Z ; CDPDatabaseClient::SendLogSMItemUse
$LN12@SmeltSafet:

; 1012 : 				}
; 1013 : 				pUser->RemoveItem( (BYTE)( pItemSmeltScr->m_dwObjId ), 1 );

  00291	0f b6 47 04	 movzx	 eax, BYTE PTR [edi+4]
  00295	8b ce		 mov	 ecx, esi
  00297	6a 01		 push	 1
  00299	50		 push	 eax
  0029a	e8 00 00 00 00	 call	 ?RemoveItem@CMover@@QAEXEF@Z ; CMover::RemoveItem
$LN10@SmeltSafet:

; 1014 : 			}
; 1015 : 		}
; 1016 : 		//	╝ė╝║ ┴”Ę├└Ū Ą╬ĘńĖČĖ«░Ī ŠŲ┤ęČ¦
; 1017 : 		else
; 1018 : 			return 0;
; 1019 : 	}
; 1020 : 
; 1021 : 	LogItemInfo aLogItem;

  0029f	8d 8d 34 ff ff
	ff		 lea	 ecx, DWORD PTR _aLogItem$[ebp]
  002a5	e8 00 00 00 00	 call	 ??0_LogItemInfo@@QAE@XZ	; _LogItemInfo::_LogItemInfo

; 1022 : 	aLogItem.Action = "N";
; 1023 : 	aLogItem.SendName = pUser->GetName();

  002aa	6a 00		 push	 0
  002ac	8b ce		 mov	 ecx, esi
  002ae	c7 85 34 ff ff
	ff 00 00 00 00	 mov	 DWORD PTR _aLogItem$[ebp], OFFSET ??_C@_01NANMIPIL@N@
  002b8	e8 00 00 00 00	 call	 ?GetName@CMover@@QAEPBDH@Z ; CMover::GetName

; 1024 : 	aLogItem.RecvName = "UPGRADEITEM_SMELTSAFETY";
; 1025 : 	aLogItem.WorldId = pUser->GetWorld()->GetID();
; 1026 : 	aLogItem.Gold = pUser->GetGold();
; 1027 : 	aLogItem.Gold2 = pUser->GetGold();
; 1028 : 
; 1029 : 	g_DPSrvr.OnLogItem( aLogItem, pItemMaterial, pItemMaterial->m_nItemNum );

  002bd	8b bd 28 ff ff
	ff		 mov	 edi, DWORD PTR _pItemMaterial$GSCopy$1$[ebp]
  002c3	b9 00 00 00 00	 mov	 ecx, OFFSET ?g_DPSrvr@@3VCDPSrvr@@A ; g_DPSrvr
  002c8	89 85 38 ff ff
	ff		 mov	 DWORD PTR _aLogItem$[ebp+4], eax
  002ce	8b 86 6c 01 00
	00		 mov	 eax, DWORD PTR [esi+364]
  002d4	c7 85 3c ff ff
	ff 00 00 00 00	 mov	 DWORD PTR _aLogItem$[ebp+8], OFFSET ??_C@_0BI@NMHNGLNA@UPGRADEITEM_SMELTSAFETY@
  002de	8b 00		 mov	 eax, DWORD PTR [eax]
  002e0	89 85 40 ff ff
	ff		 mov	 DWORD PTR _aLogItem$[ebp+12], eax
  002e6	8b 86 e0 14 00
	00		 mov	 eax, DWORD PTR [esi+5344]
  002ec	89 85 44 ff ff
	ff		 mov	 DWORD PTR _aLogItem$[ebp+16], eax
  002f2	89 85 48 ff ff
	ff		 mov	 DWORD PTR _aLogItem$[ebp+20], eax
  002f8	0f bf 47 74	 movsx	 eax, WORD PTR [edi+116]
  002fc	50		 push	 eax
  002fd	57		 push	 edi
  002fe	8d 85 34 ff ff
	ff		 lea	 eax, DWORD PTR _aLogItem$[ebp]
  00304	50		 push	 eax
  00305	e8 00 00 00 00	 call	 ?OnLogItem@CDPSrvr@@QAEXAAU_LogItemInfo@@PAVCItemElem@@H@Z ; CDPSrvr::OnLogItem

; 1030 : 	DWORD dwValue = pItemMaterial->GetProp()->eItemType;

  0030a	8b cf		 mov	 ecx, edi
  0030c	e8 00 00 00 00	 call	 ?GetPropA@CItemElem@@QAEPAUItemProp@@XZ ; CItemElem::GetPropA

; 1031 : 	pUser->RemoveItem( (BYTE)( pItemMaterial->m_dwObjId ), (short)1 );

  00311	6a 01		 push	 1
  00313	8b ce		 mov	 ecx, esi
  00315	8b 80 f0 00 00
	00		 mov	 eax, DWORD PTR [eax+240]
  0031b	89 85 2c ff ff
	ff		 mov	 DWORD PTR _dwValue$1$[ebp], eax
  00321	0f b6 47 04	 movzx	 eax, BYTE PTR [edi+4]
  00325	50		 push	 eax
  00326	e8 00 00 00 00	 call	 ?RemoveItem@CMover@@QAEXEF@Z ; CMover::RemoveItem

; 1032 : 
; 1033 : 	ItemProp* pItemProp = pItemProtScr->GetProp();

  0032b	8b 8d 24 ff ff
	ff		 mov	 ecx, DWORD PTR _pItemProtScr$GSCopy$1$[ebp]
  00331	e8 00 00 00 00	 call	 ?GetPropA@CItemElem@@QAEPAUItemProp@@XZ ; CItemElem::GetPropA
  00336	8b f8		 mov	 edi, eax

; 1034 : 	if( pItemProp )

  00338	85 ff		 test	 edi, edi
  0033a	74 34		 je	 SHORT $LN13@SmeltSafet

; 1035 : 	{
; 1036 : 		g_dpDBClient.SendLogSMItemUse( "1", pUser, pItemProtScr, pItemProp );

  0033c	68 00 00 00 00	 push	 OFFSET ??_C@_00CNPNBAHC@@
  00341	57		 push	 edi
  00342	ff b5 24 ff ff
	ff		 push	 DWORD PTR _pItemProtScr$GSCopy$1$[ebp]
  00348	b9 00 00 00 00	 mov	 ecx, OFFSET ?g_dpDBClient@@3VCDPDatabaseClient@@A ; g_dpDBClient
  0034d	56		 push	 esi
  0034e	68 00 00 00 00	 push	 OFFSET ??_C@_01HIHLOKLC@1@
  00353	e8 00 00 00 00	 call	 ?SendLogSMItemUse@CDPDatabaseClient@@QAEXPBDPAVCUser@@PAVCItemElem@@PAUItemProp@@0@Z ; CDPDatabaseClient::SendLogSMItemUse

; 1037 : 		g_dpDBClient.SendLogSMItemUse( "2", pUser, NULL, pItemProp );

  00358	68 00 00 00 00	 push	 OFFSET ??_C@_00CNPNBAHC@@
  0035d	57		 push	 edi
  0035e	6a 00		 push	 0
  00360	56		 push	 esi
  00361	68 00 00 00 00	 push	 OFFSET ??_C@_01FDFGLJHB@2@
  00366	b9 00 00 00 00	 mov	 ecx, OFFSET ?g_dpDBClient@@3VCDPDatabaseClient@@A ; g_dpDBClient
  0036b	e8 00 00 00 00	 call	 ?SendLogSMItemUse@CDPDatabaseClient@@QAEXPBDPAVCUser@@PAVCItemElem@@PAUItemProp@@0@Z ; CDPDatabaseClient::SendLogSMItemUse
$LN13@SmeltSafet:

; 1038 : 	}
; 1039 : 	pUser->RemoveItem( (BYTE)( pItemProtScr->m_dwObjId ), 1 );

  00370	8b 85 24 ff ff
	ff		 mov	 eax, DWORD PTR _pItemProtScr$GSCopy$1$[ebp]
  00376	8b ce		 mov	 ecx, esi
  00378	6a 01		 push	 1
  0037a	0f b6 40 04	 movzx	 eax, BYTE PTR [eax+4]
  0037e	50		 push	 eax
  0037f	e8 00 00 00 00	 call	 ?RemoveItem@CMover@@QAEXEF@Z ; CMover::RemoveItem
; File C:\IAGOS\server\v18\Source\Source\_Common\xUtil.h

; 16   : 	g_next = g_next * 1103515245 + 12345;// + nRandomSeed[ i++ ];

  00384	69 0d 00 00 00
	00 6d 4e c6 41	 imul	 ecx, DWORD PTR ?g_next@@3KA, 1103515245 ; g_next

; 22   : 	return  xRand() % num;

  0038e	b8 59 17 b7 d1	 mov	 eax, -776530087		; d1b71759H

; 16   : 	g_next = g_next * 1103515245 + 12345;// + nRandomSeed[ i++ ];

  00393	81 c1 39 30 00
	00		 add	 ecx, 12345		; 00003039H

; 22   : 	return  xRand() % num;

  00399	f7 e1		 mul	 ecx

; 16   : 	g_next = g_next * 1103515245 + 12345;// + nRandomSeed[ i++ ];

  0039b	89 0d 00 00 00
	00		 mov	 DWORD PTR ?g_next@@3KA, ecx ; g_next

; 22   : 	return  xRand() % num;

  003a1	c1 ea 0d	 shr	 edx, 13			; 0000000dH
  003a4	69 c2 10 27 00
	00		 imul	 eax, edx, 10000
  003aa	2b c8		 sub	 ecx, eax
; File C:\IAGOS\server\v18\Source\Source\WorldServer\ItemUpgrade.cpp

; 1042 : 	if( (int)( xRandom( 10000 ) ) > nPercent )

  003ac	3b 8d 30 ff ff
	ff		 cmp	 ecx, DWORD PTR _nPercent$1$[ebp]
  003b2	8b ce		 mov	 ecx, esi
  003b4	0f 8e cc 00 00
	00		 jle	 $LN14@SmeltSafet

; 1043 : 	{
; 1044 : 		// ĮŪŲą
; 1045 : 		pUser->AddPlaySound( SND_INF_UPGRADEFAIL );

  003ba	6a 0d		 push	 13			; 0000000dH
  003bc	e8 00 00 00 00	 call	 ?AddPlaySound@CUser@@QAEXK@Z ; CUser::AddPlaySound
; File C:\IAGOS\server\v18\Source\Source\_Common\Mover.h

; 1740 : 		if( GetAdjParam(DST_CHRSTATE) & CHS_INVISIBILITY )	// ĖČ╣²┼§ĖĒ╚Ł░Ī ░╔Ę╚┤┬░Ī?

  003c1	6a 40		 push	 64			; 00000040H
  003c3	8b ce		 mov	 ecx, esi
  003c5	e8 00 00 00 00	 call	 ?GetAdjParam@CMover@@QAEHH@Z ; CMover::GetAdjParam
  003ca	a9 00 04 00 00	 test	 eax, 1024		; 00000400H
  003cf	75 7f		 jne	 SHORT $LN16@SmeltSafet
; File C:\IAGOS\server\v18\Source\Source\WorldServer\ItemUpgrade.cpp

; 1047 : 		if( !pUser->IsMode( TRANSPARENT_MODE ) )

  003d1	f6 86 40 02 00
	00 02		 test	 BYTE PTR [esi+576], 2
  003d8	75 76		 jne	 SHORT $LN16@SmeltSafet
; File C:\IAGOS\server\v18\Source\Source\_Common\Obj.h

; 215  : 	D3DXVECTOR3		GetPos()	{ return m_vPos; }

  003da	f3 0f 7e 86 60
	01 00 00	 movq	 xmm0, QWORD PTR [esi+352]
; File C:\IAGOS\server\v18\Source\Source\WorldServer\ItemUpgrade.cpp

; 1048 : 			g_UserMng.AddCreateSfxObj( (CMover *)pUser, XI_INT_FAIL, pUser->GetPos().x, pUser->GetPos().y, pUser->GetPos().z );

  003e2	b9 00 00 00 00	 mov	 ecx, OFFSET ?g_UserMng@@3VCUserMng@@A ; g_UserMng
; File C:\IAGOS\server\v18\Source\Source\_Common\Obj.h

; 215  : 	D3DXVECTOR3		GetPos()	{ return m_vPos; }

  003e7	8b 86 68 01 00
	00		 mov	 eax, DWORD PTR [esi+360]
  003ed	66 0f d6 85 14
	ff ff ff	 movq	 QWORD PTR $T5[ebp], xmm0
  003f5	f3 0f 7e c0	 movq	 xmm0, xmm0
  003f9	66 0f d6 85 08
	ff ff ff	 movq	 QWORD PTR $T3[ebp], xmm0
  00401	f3 0f 7e 86 60
	01 00 00	 movq	 xmm0, QWORD PTR [esi+352]
; File C:\IAGOS\server\v18\Source\Source\WorldServer\ItemUpgrade.cpp

; 1048 : 			g_UserMng.AddCreateSfxObj( (CMover *)pUser, XI_INT_FAIL, pUser->GetPos().x, pUser->GetPos().y, pUser->GetPos().z );

  00409	6a 00		 push	 0
  0040b	83 ec 0c	 sub	 esp, 12			; 0000000cH
; File C:\IAGOS\server\v18\Source\Source\_Common\Obj.h

; 215  : 	D3DXVECTOR3		GetPos()	{ return m_vPos; }

  0040e	66 0f d6 85 fc
	fe ff ff	 movq	 QWORD PTR $T1[ebp], xmm0
  00416	89 85 1c ff ff
	ff		 mov	 DWORD PTR $T5[ebp+8], eax
; File C:\IAGOS\server\v18\Source\Source\WorldServer\ItemUpgrade.cpp

; 1048 : 			g_UserMng.AddCreateSfxObj( (CMover *)pUser, XI_INT_FAIL, pUser->GetPos().x, pUser->GetPos().y, pUser->GetPos().z );

  0041c	f3 0f 10 85 1c
	ff ff ff	 movss	 xmm0, DWORD PTR $T5[ebp+8]
  00424	f3 0f 11 44 24
	08		 movss	 DWORD PTR [esp+8], xmm0
  0042a	f3 0f 10 85 0c
	ff ff ff	 movss	 xmm0, DWORD PTR $T3[ebp+4]
  00432	f3 0f 11 44 24
	04		 movss	 DWORD PTR [esp+4], xmm0
  00438	f3 0f 10 85 fc
	fe ff ff	 movss	 xmm0, DWORD PTR $T1[ebp]
  00440	f3 0f 11 04 24	 movss	 DWORD PTR [esp], xmm0
  00445	68 b3 06 00 00	 push	 1715			; 000006b3H
  0044a	56		 push	 esi
  0044b	e8 00 00 00 00	 call	 ?AddCreateSfxObj@CUserMng@@QAEXPAVCCtrl@@KMMMH@Z ; CUserMng::AddCreateSfxObj
$LN16@SmeltSafet:

; 1049 : 
; 1050 : 		aLogItem.Action = "J";
; 1051 : 		g_DPSrvr.OnLogItem( aLogItem, pItemMain, pItemMain->m_nItemNum );

  00450	0f bf 43 74	 movsx	 eax, WORD PTR [ebx+116]
  00454	b9 00 00 00 00	 mov	 ecx, OFFSET ?g_DPSrvr@@3VCDPSrvr@@A ; g_DPSrvr
  00459	50		 push	 eax
  0045a	53		 push	 ebx
  0045b	8d 85 34 ff ff
	ff		 lea	 eax, DWORD PTR _aLogItem$[ebp]
  00461	c7 85 34 ff ff
	ff 00 00 00 00	 mov	 DWORD PTR _aLogItem$[ebp], OFFSET ??_C@_01LELAEKIP@J@
  0046b	50		 push	 eax
  0046c	e8 00 00 00 00	 call	 ?OnLogItem@CDPSrvr@@QAEXAAU_LogItemInfo@@PAVCItemElem@@H@Z ; CDPSrvr::OnLogItem
  00471	5f		 pop	 edi

; 1067 : 
; 1068 : 		return 1;
; 1069 : 	}
; 1070 : 	return 0;
; 1071 : }

  00472	5e		 pop	 esi
  00473	b0 02		 mov	 al, 2
  00475	5b		 pop	 ebx
  00476	8b 4d fc	 mov	 ecx, DWORD PTR __$ArrayPad$[ebp]
  00479	33 cd		 xor	 ecx, ebp
  0047b	e8 00 00 00 00	 call	 @__security_check_cookie@4
  00480	8b e5		 mov	 esp, ebp
  00482	5d		 pop	 ebp
  00483	c2 14 00	 ret	 20			; 00000014H
$LN14@SmeltSafet:

; 1052 : 
; 1053 : 		return 2;
; 1054 : 	}
; 1055 : 	else
; 1056 : 	{
; 1057 : 		// ╝║░°
; 1058 : 		pUser->AddPlaySound( SND_INF_UPGRADESUCCESS );

  00486	6a 0e		 push	 14			; 0000000eH
  00488	e8 00 00 00 00	 call	 ?AddPlaySound@CUser@@QAEXK@Z ; CUser::AddPlaySound
; File C:\IAGOS\server\v18\Source\Source\_Common\Mover.h

; 1740 : 		if( GetAdjParam(DST_CHRSTATE) & CHS_INVISIBILITY )	// ĖČ╣²┼§ĖĒ╚Ł░Ī ░╔Ę╚┤┬░Ī?

  0048d	6a 40		 push	 64			; 00000040H
  0048f	8b ce		 mov	 ecx, esi
  00491	e8 00 00 00 00	 call	 ?GetAdjParam@CMover@@QAEHH@Z ; CMover::GetAdjParam
  00496	a9 00 04 00 00	 test	 eax, 1024		; 00000400H
  0049b	75 7f		 jne	 SHORT $LN17@SmeltSafet
; File C:\IAGOS\server\v18\Source\Source\WorldServer\ItemUpgrade.cpp

; 1060 : 		if( !pUser->IsMode( TRANSPARENT_MODE ) )

  0049d	f6 86 40 02 00
	00 02		 test	 BYTE PTR [esi+576], 2
  004a4	75 76		 jne	 SHORT $LN17@SmeltSafet
; File C:\IAGOS\server\v18\Source\Source\_Common\Obj.h

; 215  : 	D3DXVECTOR3		GetPos()	{ return m_vPos; }

  004a6	f3 0f 7e 86 60
	01 00 00	 movq	 xmm0, QWORD PTR [esi+352]
; File C:\IAGOS\server\v18\Source\Source\WorldServer\ItemUpgrade.cpp

; 1061 : 			g_UserMng.AddCreateSfxObj( (CMover *)pUser, XI_INT_SUCCESS, pUser->GetPos().x, pUser->GetPos().y, pUser->GetPos().z );

  004ae	b9 00 00 00 00	 mov	 ecx, OFFSET ?g_UserMng@@3VCUserMng@@A ; g_UserMng
; File C:\IAGOS\server\v18\Source\Source\_Common\Obj.h

; 215  : 	D3DXVECTOR3		GetPos()	{ return m_vPos; }

  004b3	8b 86 68 01 00
	00		 mov	 eax, DWORD PTR [esi+360]
  004b9	66 0f d6 85 fc
	fe ff ff	 movq	 QWORD PTR $T2[ebp], xmm0
  004c1	f3 0f 7e c0	 movq	 xmm0, xmm0
  004c5	66 0f d6 85 08
	ff ff ff	 movq	 QWORD PTR $T4[ebp], xmm0
  004cd	f3 0f 7e 86 60
	01 00 00	 movq	 xmm0, QWORD PTR [esi+352]
; File C:\IAGOS\server\v18\Source\Source\WorldServer\ItemUpgrade.cpp

; 1061 : 			g_UserMng.AddCreateSfxObj( (CMover *)pUser, XI_INT_SUCCESS, pUser->GetPos().x, pUser->GetPos().y, pUser->GetPos().z );

  004d5	6a 00		 push	 0
  004d7	83 ec 0c	 sub	 esp, 12			; 0000000cH
; File C:\IAGOS\server\v18\Source\Source\_Common\Obj.h

; 215  : 	D3DXVECTOR3		GetPos()	{ return m_vPos; }

  004da	66 0f d6 85 14
	ff ff ff	 movq	 QWORD PTR $T6[ebp], xmm0
  004e2	89 85 04 ff ff
	ff		 mov	 DWORD PTR $T2[ebp+8], eax
; File C:\IAGOS\server\v18\Source\Source\WorldServer\ItemUpgrade.cpp

; 1061 : 			g_UserMng.AddCreateSfxObj( (CMover *)pUser, XI_INT_SUCCESS, pUser->GetPos().x, pUser->GetPos().y, pUser->GetPos().z );

  004e8	f3 0f 10 85 04
	ff ff ff	 movss	 xmm0, DWORD PTR $T2[ebp+8]
  004f0	f3 0f 11 44 24
	08		 movss	 DWORD PTR [esp+8], xmm0
  004f6	f3 0f 10 85 0c
	ff ff ff	 movss	 xmm0, DWORD PTR $T4[ebp+4]
  004fe	f3 0f 11 44 24
	04		 movss	 DWORD PTR [esp+4], xmm0
  00504	f3 0f 10 85 14
	ff ff ff	 movss	 xmm0, DWORD PTR $T6[ebp]
  0050c	f3 0f 11 04 24	 movss	 DWORD PTR [esp], xmm0
  00511	68 b2 06 00 00	 push	 1714			; 000006b2H
  00516	56		 push	 esi
  00517	e8 00 00 00 00	 call	 ?AddCreateSfxObj@CUserMng@@QAEXPAVCCtrl@@KMMMH@Z ; CUserMng::AddCreateSfxObj
$LN17@SmeltSafet:

; 1062 : 
; 1063 : 		pUser->UpdateItem( (BYTE)pItemMain->m_dwObjId, UI_IR, dwValue );

  0051c	0f b6 43 04	 movzx	 eax, BYTE PTR [ebx+4]
  00520	8b ce		 mov	 ecx, esi
  00522	6a 00		 push	 0
  00524	ff b5 2c ff ff
	ff		 push	 DWORD PTR _dwValue$1$[ebp]
  0052a	6a 05		 push	 5
  0052c	50		 push	 eax
  0052d	e8 00 00 00 00	 call	 ?UpdateItem@CMover@@QAEXEDKK@Z ; CMover::UpdateItem

; 1064 : 		pUser->UpdateItem( (BYTE)pItemMain->m_dwObjId, UI_RAO,  pItemMain->m_nResistAbilityOption + 1 );

  00532	8b 83 80 00 00
	00		 mov	 eax, DWORD PTR [ebx+128]
  00538	8b ce		 mov	 ecx, esi
  0053a	6a 00		 push	 0
  0053c	40		 inc	 eax
  0053d	50		 push	 eax
  0053e	0f b6 43 04	 movzx	 eax, BYTE PTR [ebx+4]
  00542	6a 04		 push	 4
  00544	50		 push	 eax
  00545	e8 00 00 00 00	 call	 ?UpdateItem@CMover@@QAEXEDKK@Z ; CMover::UpdateItem

; 1065 : 		aLogItem.Action = "O";
; 1066 : 		g_DPSrvr.OnLogItem( aLogItem, pItemMain, pItemMain->m_nItemNum );

  0054a	0f bf 43 74	 movsx	 eax, WORD PTR [ebx+116]
  0054e	b9 00 00 00 00	 mov	 ecx, OFFSET ?g_DPSrvr@@3VCDPSrvr@@A ; g_DPSrvr
  00553	50		 push	 eax
  00554	53		 push	 ebx
  00555	8d 85 34 ff ff
	ff		 lea	 eax, DWORD PTR _aLogItem$[ebp]
  0055b	c7 85 34 ff ff
	ff 00 00 00 00	 mov	 DWORD PTR _aLogItem$[ebp], OFFSET ??_C@_01MJMHLOMK@O@
  00565	50		 push	 eax
  00566	e8 00 00 00 00	 call	 ?OnLogItem@CDPSrvr@@QAEXAAU_LogItemInfo@@PAVCItemElem@@H@Z ; CDPSrvr::OnLogItem

; 1067 : 
; 1068 : 		return 1;
; 1069 : 	}
; 1070 : 	return 0;
; 1071 : }

  0056b	8b 4d fc	 mov	 ecx, DWORD PTR __$ArrayPad$[ebp]
  0056e	b0 01		 mov	 al, 1
  00570	5f		 pop	 edi
  00571	5e		 pop	 esi
  00572	33 cd		 xor	 ecx, ebp
  00574	5b		 pop	 ebx
  00575	e8 00 00 00 00	 call	 @__security_check_cookie@4
  0057a	8b e5		 mov	 esp, ebp
  0057c	5d		 pop	 ebp
  0057d	c2 14 00	 ret	 20			; 00000014H
?SmeltSafetyAttribute@CItemUpgrade@@AAEEPAVCUser@@PAVCItemElem@@111@Z ENDP ; CItemUpgrade::SmeltSafetyAttribute
_TEXT	ENDS
; Function compile flags: /Ogtp
; File C:\IAGOS\server\v18\Source\Source\WorldServer\ItemUpgrade.cpp
; File C:\IAGOS\server\v18\Source\Source\_Common\Item.h
; File C:\IAGOS\server\v18\Source\Source\WorldServer\ItemUpgrade.cpp
; File C:\IAGOS\server\v18\Source\Source\_Common\Project.h
; File C:\IAGOS\server\v18\Source\Source\WorldServer\ItemUpgrade.cpp
; File C:\IAGOS\server\v18\Source\Source\_Common\Project.h
; File C:\IAGOS\server\v18\Source\Source\_Common\data.h
; File C:\IAGOS\server\v18\Source\Source\_Common\Project.h
; File C:\IAGOS\server\v18\Source\Source\WorldServer\ItemUpgrade.cpp
; File C:\IAGOS\server\v18\Source\Source\_Common\Item.h
; File C:\IAGOS\server\v18\Source\Source\_Common\Project.h
; File C:\IAGOS\server\v18\Source\Source\_Common\data.h
; File C:\IAGOS\server\v18\Source\Source\_Common\Project.h
; File C:\IAGOS\server\v18\Source\Source\WorldServer\ItemUpgrade.cpp
; File C:\IAGOS\server\v18\Source\Source\_Common\Item.h
; File C:\IAGOS\server\v18\Source\Source\_Common\Project.h
; File C:\IAGOS\server\v18\Source\Source\_Common\data.h
; File C:\IAGOS\server\v18\Source\Source\_Common\Project.h
; File C:\IAGOS\server\v18\Source\Source\WorldServer\ItemUpgrade.cpp
; File C:\IAGOS\server\v18\Source\Source\_Common\Item.h
; File C:\IAGOS\server\v18\Source\Source\_Common\Project.h
; File C:\IAGOS\server\v18\Source\Source\_Common\data.h
; File C:\IAGOS\server\v18\Source\Source\_Common\Project.h
; File C:\IAGOS\server\v18\Source\Source\WorldServer\ItemUpgrade.cpp
; File C:\IAGOS\server\v18\Source\Source\_Common\xUtil.h
; File C:\IAGOS\server\v18\Source\Source\WorldServer\ItemUpgrade.cpp
; File C:\IAGOS\server\v18\Source\Source\_Common\xUtil.h
; File C:\IAGOS\server\v18\Source\Source\WorldServer\ItemUpgrade.cpp
; File C:\IAGOS\server\v18\Source\Source\_Common\Mover.h
; File C:\IAGOS\server\v18\Source\Source\WorldServer\ItemUpgrade.cpp
; File C:\IAGOS\server\v18\Source\Source\_Common\Obj.h
; File C:\IAGOS\server\v18\Source\Source\WorldServer\ItemUpgrade.cpp
; File C:\IAGOS\server\v18\Source\Source\_Common\Obj.h
; File C:\IAGOS\server\v18\Source\Source\WorldServer\ItemUpgrade.cpp
; File C:\IAGOS\server\v18\Source\Source\_Common\Obj.h
; File C:\IAGOS\server\v18\Source\Source\WorldServer\ItemUpgrade.cpp
; File C:\IAGOS\server\v18\Source\Source\_Common\Mover.h
; File C:\IAGOS\server\v18\Source\Source\WorldServer\ItemUpgrade.cpp
; File C:\IAGOS\server\v18\Source\Source\_Common\Obj.h
; File C:\IAGOS\server\v18\Source\Source\WorldServer\ItemUpgrade.cpp
; File C:\IAGOS\server\v18\Source\Source\_Common\Obj.h
; File C:\IAGOS\server\v18\Source\Source\WorldServer\ItemUpgrade.cpp
; File C:\IAGOS\server\v18\Source\Source\_Common\Obj.h
; File C:\IAGOS\server\v18\Source\Source\WorldServer\ItemUpgrade.cpp
; File C:\IAGOS\server\v18\Source\Source\_Common\Item.h
; File C:\IAGOS\server\v18\Source\Source\WorldServer\ItemUpgrade.cpp
;	COMDAT ?SmeltSafetyPiercingSize@CItemUpgrade@@AAEEPAVCUser@@PAVCItemElem@@11@Z
_TEXT	SEGMENT
$T1 = -256						; size = 12
$T2 = -256						; size = 12
$T3 = -244						; size = 12
$T4 = -244						; size = 12
$T5 = -232						; size = 12
$T6 = -232						; size = 12
_this$GSCopy$1$ = -220					; size = 4
_pItemMain$GSCopy$1$ = -216				; size = 4
_pItemProtScr$GSCopy$1$ = -212				; size = 4
_pItemMaterial$GSCopy$1$ = -208				; size = 4
_aLogItem$ = -204					; size = 200
__$ArrayPad$ = -4					; size = 4
_pUser$ = 8						; size = 4
_pItemMain$ = 12					; size = 4
_pItemMaterial$ = 16					; size = 4
_pItemProtScr$ = 20					; size = 4
?SmeltSafetyPiercingSize@CItemUpgrade@@AAEEPAVCUser@@PAVCItemElem@@11@Z PROC ; CItemUpgrade::SmeltSafetyPiercingSize, COMDAT
; _this$ = ecx

; 749  : {

  00000	55		 push	 ebp
  00001	8b ec		 mov	 ebp, esp
  00003	81 ec 00 01 00
	00		 sub	 esp, 256		; 00000100H
  00009	a1 00 00 00 00	 mov	 eax, DWORD PTR ___security_cookie
  0000e	33 c5		 xor	 eax, ebp
  00010	89 45 fc	 mov	 DWORD PTR __$ArrayPad$[ebp], eax
  00013	8b 45 10	 mov	 eax, DWORD PTR _pItemMaterial$[ebp]
  00016	53		 push	 ebx
  00017	8b 5d 08	 mov	 ebx, DWORD PTR _pUser$[ebp]
  0001a	56		 push	 esi
; File C:\IAGOS\server\v18\Source\Source\_Common\Item.h

; 230  : 	ItemProp*	GetProp()	{	return prj.GetItemProp( m_dwItemId );	}

  0001b	8b 50 0c	 mov	 edx, DWORD PTR [eax+12]
; File C:\IAGOS\server\v18\Source\Source\WorldServer\ItemUpgrade.cpp

; 749  : {

  0001e	8b 75 0c	 mov	 esi, DWORD PTR _pItemMain$[ebp]
  00021	89 85 30 ff ff
	ff		 mov	 DWORD PTR _pItemMaterial$GSCopy$1$[ebp], eax
; File C:\IAGOS\server\v18\Source\Source\_Common\Project.h

; 1389 : 	VERIFY_RANGE_ASSERT( nIndex, 0, m_aPropItem.GetSize(), "GetItemProp range_error", NULL );

  00027	a1 40 02 00 00	 mov	 eax, DWORD PTR ?prj@@3VCProject@@A+576
; File C:\IAGOS\server\v18\Source\Source\WorldServer\ItemUpgrade.cpp

; 749  : {

  0002c	89 8d 24 ff ff
	ff		 mov	 DWORD PTR _this$GSCopy$1$[ebp], ecx
  00032	89 b5 28 ff ff
	ff		 mov	 DWORD PTR _pItemMain$GSCopy$1$[ebp], esi
  00038	57		 push	 edi
  00039	8b 7d 14	 mov	 edi, DWORD PTR _pItemProtScr$[ebp]
  0003c	89 bd 2c ff ff
	ff		 mov	 DWORD PTR _pItemProtScr$GSCopy$1$[ebp], edi
; File C:\IAGOS\server\v18\Source\Source\_Common\Project.h

; 1389 : 	VERIFY_RANGE_ASSERT( nIndex, 0, m_aPropItem.GetSize(), "GetItemProp range_error", NULL );

  00042	85 d2		 test	 edx, edx
  00044	78 11		 js	 SHORT $LN21@SmeltSafet
  00046	3b d0		 cmp	 edx, eax
  00048	7d 0d		 jge	 SHORT $LN21@SmeltSafet
; File C:\IAGOS\server\v18\Source\Source\_Common\data.h

; 270  : 	if( dwIndex >= (DWORD)m_nMaxIndex )

  0004a	8b 0d 30 02 00
	00		 mov	 ecx, DWORD PTR ?prj@@3VCProject@@A+560
  00050	73 26		 jae	 SHORT $LN135@SmeltSafet

; 271  : 		return NULL;
; 272  : 	return (T*) m_apOffset[ dwIndex ];

  00052	8b 14 91	 mov	 edx, DWORD PTR [ecx+edx*4]
; File C:\IAGOS\server\v18\Source\Source\_Common\Project.h

; 1390 : 	return m_aPropItem.GetAt( nIndex ); 

  00055	eb 23		 jmp	 SHORT $LN16@SmeltSafet
$LN21@SmeltSafet:

; 579  : 	LPCTSTR szErr = Error( _T( "%s min:%d, max:%d, index:%d" ), szMsg, nMin, nMax, nIndex ); 

  00057	52		 push	 edx
  00058	50		 push	 eax
  00059	6a 00		 push	 0
  0005b	68 00 00 00 00	 push	 OFFSET ??_C@_0BI@BEIFNGEL@GetItemProp?5range_error@
  00060	68 00 00 00 00	 push	 OFFSET ??_C@_0BM@HMFGHCP@?$CFs?5min?3?$CFd?0?5max?3?$CFd?0?5index?3?$CFd@
  00065	e8 00 00 00 00	 call	 ?Error@@YAPBDPBDZZ	; Error

; 1389 : 	VERIFY_RANGE_ASSERT( nIndex, 0, m_aPropItem.GetSize(), "GetItemProp range_error", NULL );

  0006a	a1 40 02 00 00	 mov	 eax, DWORD PTR ?prj@@3VCProject@@A+576

; 579  : 	LPCTSTR szErr = Error( _T( "%s min:%d, max:%d, index:%d" ), szMsg, nMin, nMax, nIndex ); 

  0006f	83 c4 14	 add	 esp, 20			; 00000014H

; 1389 : 	VERIFY_RANGE_ASSERT( nIndex, 0, m_aPropItem.GetSize(), "GetItemProp range_error", NULL );

  00072	8b 0d 30 02 00
	00		 mov	 ecx, DWORD PTR ?prj@@3VCProject@@A+560
$LN135@SmeltSafet:
; File C:\IAGOS\server\v18\Source\Source\WorldServer\ItemUpgrade.cpp

; 751  : 	if( pItemMaterial->GetProp()->dwID != II_GEN_MAT_MOONSTONE && pItemMaterial->GetProp()->dwID != II_GEN_MAT_MOONSTONE_1 )

  00078	33 d2		 xor	 edx, edx
$LN16@SmeltSafet:
  0007a	81 3a f4 07 00
	00		 cmp	 DWORD PTR [edx], 2036	; 000007f4H
  00080	74 47		 je	 SHORT $LN2@SmeltSafet
; File C:\IAGOS\server\v18\Source\Source\_Common\Item.h

; 230  : 	ItemProp*	GetProp()	{	return prj.GetItemProp( m_dwItemId );	}

  00082	8b 95 30 ff ff
	ff		 mov	 edx, DWORD PTR _pItemMaterial$GSCopy$1$[ebp]
  00088	8b 52 0c	 mov	 edx, DWORD PTR [edx+12]
; File C:\IAGOS\server\v18\Source\Source\_Common\Project.h

; 1389 : 	VERIFY_RANGE_ASSERT( nIndex, 0, m_aPropItem.GetSize(), "GetItemProp range_error", NULL );

  0008b	85 d2		 test	 edx, edx
  0008d	78 0b		 js	 SHORT $LN35@SmeltSafet
  0008f	3b d0		 cmp	 edx, eax
  00091	7d 07		 jge	 SHORT $LN35@SmeltSafet
; File C:\IAGOS\server\v18\Source\Source\_Common\data.h

; 270  : 	if( dwIndex >= (DWORD)m_nMaxIndex )

  00093	73 26		 jae	 SHORT $LN136@SmeltSafet

; 271  : 		return NULL;
; 272  : 	return (T*) m_apOffset[ dwIndex ];

  00095	8b 14 91	 mov	 edx, DWORD PTR [ecx+edx*4]
; File C:\IAGOS\server\v18\Source\Source\_Common\Project.h

; 1390 : 	return m_aPropItem.GetAt( nIndex ); 

  00098	eb 23		 jmp	 SHORT $LN30@SmeltSafet
$LN35@SmeltSafet:

; 579  : 	LPCTSTR szErr = Error( _T( "%s min:%d, max:%d, index:%d" ), szMsg, nMin, nMax, nIndex ); 

  0009a	52		 push	 edx
  0009b	50		 push	 eax
  0009c	6a 00		 push	 0
  0009e	68 00 00 00 00	 push	 OFFSET ??_C@_0BI@BEIFNGEL@GetItemProp?5range_error@
  000a3	68 00 00 00 00	 push	 OFFSET ??_C@_0BM@HMFGHCP@?$CFs?5min?3?$CFd?0?5max?3?$CFd?0?5index?3?$CFd@
  000a8	e8 00 00 00 00	 call	 ?Error@@YAPBDPBDZZ	; Error

; 1389 : 	VERIFY_RANGE_ASSERT( nIndex, 0, m_aPropItem.GetSize(), "GetItemProp range_error", NULL );

  000ad	a1 40 02 00 00	 mov	 eax, DWORD PTR ?prj@@3VCProject@@A+576

; 579  : 	LPCTSTR szErr = Error( _T( "%s min:%d, max:%d, index:%d" ), szMsg, nMin, nMax, nIndex ); 

  000b2	83 c4 14	 add	 esp, 20			; 00000014H

; 1389 : 	VERIFY_RANGE_ASSERT( nIndex, 0, m_aPropItem.GetSize(), "GetItemProp range_error", NULL );

  000b5	8b 0d 30 02 00
	00		 mov	 ecx, DWORD PTR ?prj@@3VCProject@@A+560
$LN136@SmeltSafet:
; File C:\IAGOS\server\v18\Source\Source\WorldServer\ItemUpgrade.cpp

; 751  : 	if( pItemMaterial->GetProp()->dwID != II_GEN_MAT_MOONSTONE && pItemMaterial->GetProp()->dwID != II_GEN_MAT_MOONSTONE_1 )

  000bb	33 d2		 xor	 edx, edx
$LN30@SmeltSafet:
  000bd	81 3a 23 08 00
	00		 cmp	 DWORD PTR [edx], 2083	; 00000823H
  000c3	0f 85 c8 00 00
	00		 jne	 $LN110@SmeltSafet
$LN2@SmeltSafet:

; 752  : 	{
; 753  : 		//pUser->AddDefinedText( TID_GAME_NOTEQUALITEM );
; 754  : 		return 0;
; 755  : 	}
; 756  : 	//	ŪŪŠŅĮ╠ ║Ė╚Ż└Ū Ą╬ĘńĖČĖ«└╬░Ī
; 757  : 	if( pItemProtScr->m_dwItemId != II_SYS_SYS_SCR_PIEPROT )

  000c9	81 7f 0c e1 28
	00 00		 cmp	 DWORD PTR [edi+12], 10465 ; 000028e1H
  000d0	0f 85 bb 00 00
	00		 jne	 $LN110@SmeltSafet
; File C:\IAGOS\server\v18\Source\Source\_Common\Item.h

; 230  : 	ItemProp*	GetProp()	{	return prj.GetItemProp( m_dwItemId );	}

  000d6	8b 56 0c	 mov	 edx, DWORD PTR [esi+12]
; File C:\IAGOS\server\v18\Source\Source\_Common\Project.h

; 1389 : 	VERIFY_RANGE_ASSERT( nIndex, 0, m_aPropItem.GetSize(), "GetItemProp range_error", NULL );

  000d9	85 d2		 test	 edx, edx
  000db	78 0b		 js	 SHORT $LN49@SmeltSafet
  000dd	3b d0		 cmp	 edx, eax
  000df	7d 07		 jge	 SHORT $LN49@SmeltSafet
; File C:\IAGOS\server\v18\Source\Source\_Common\data.h

; 270  : 	if( dwIndex >= (DWORD)m_nMaxIndex )

  000e1	73 26		 jae	 SHORT $LN137@SmeltSafet

; 271  : 		return NULL;
; 272  : 	return (T*) m_apOffset[ dwIndex ];

  000e3	8b 14 91	 mov	 edx, DWORD PTR [ecx+edx*4]
; File C:\IAGOS\server\v18\Source\Source\_Common\Project.h

; 1390 : 	return m_aPropItem.GetAt( nIndex ); 

  000e6	eb 23		 jmp	 SHORT $LN44@SmeltSafet
$LN49@SmeltSafet:

; 579  : 	LPCTSTR szErr = Error( _T( "%s min:%d, max:%d, index:%d" ), szMsg, nMin, nMax, nIndex ); 

  000e8	52		 push	 edx
  000e9	50		 push	 eax
  000ea	6a 00		 push	 0
  000ec	68 00 00 00 00	 push	 OFFSET ??_C@_0BI@BEIFNGEL@GetItemProp?5range_error@
  000f1	68 00 00 00 00	 push	 OFFSET ??_C@_0BM@HMFGHCP@?$CFs?5min?3?$CFd?0?5max?3?$CFd?0?5index?3?$CFd@
  000f6	e8 00 00 00 00	 call	 ?Error@@YAPBDPBDZZ	; Error

; 1389 : 	VERIFY_RANGE_ASSERT( nIndex, 0, m_aPropItem.GetSize(), "GetItemProp range_error", NULL );

  000fb	a1 40 02 00 00	 mov	 eax, DWORD PTR ?prj@@3VCProject@@A+576

; 579  : 	LPCTSTR szErr = Error( _T( "%s min:%d, max:%d, index:%d" ), szMsg, nMin, nMax, nIndex ); 

  00100	83 c4 14	 add	 esp, 20			; 00000014H

; 1389 : 	VERIFY_RANGE_ASSERT( nIndex, 0, m_aPropItem.GetSize(), "GetItemProp range_error", NULL );

  00103	8b 0d 30 02 00
	00		 mov	 ecx, DWORD PTR ?prj@@3VCProject@@A+560
$LN137@SmeltSafet:
; File C:\IAGOS\server\v18\Source\Source\WorldServer\ItemUpgrade.cpp

; 763  : 	if( pItemMain->GetProp()->dwReferStat1 >= BARUNA_D && pItemMain->GetProp()->dwReferStat1 <= BARUNA_S )

  00109	33 d2		 xor	 edx, edx
$LN44@SmeltSafet:
  0010b	83 ba d0 01 00
	00 04		 cmp	 DWORD PTR [edx+464], 4
  00112	72 33		 jb	 SHORT $LN4@SmeltSafet
; File C:\IAGOS\server\v18\Source\Source\_Common\Item.h

; 230  : 	ItemProp*	GetProp()	{	return prj.GetItemProp( m_dwItemId );	}

  00114	8b 56 0c	 mov	 edx, DWORD PTR [esi+12]
; File C:\IAGOS\server\v18\Source\Source\_Common\Project.h

; 1389 : 	VERIFY_RANGE_ASSERT( nIndex, 0, m_aPropItem.GetSize(), "GetItemProp range_error", NULL );

  00117	85 d2		 test	 edx, edx
  00119	78 0b		 js	 SHORT $LN63@SmeltSafet
  0011b	3b d0		 cmp	 edx, eax
  0011d	7d 07		 jge	 SHORT $LN63@SmeltSafet
; File C:\IAGOS\server\v18\Source\Source\_Common\data.h

; 270  : 	if( dwIndex >= (DWORD)m_nMaxIndex )

  0011f	73 1b		 jae	 SHORT $LN138@SmeltSafet

; 271  : 		return NULL;
; 272  : 	return (T*) m_apOffset[ dwIndex ];

  00121	8b 04 91	 mov	 eax, DWORD PTR [ecx+edx*4]
; File C:\IAGOS\server\v18\Source\Source\_Common\Project.h

; 1390 : 	return m_aPropItem.GetAt( nIndex ); 

  00124	eb 18		 jmp	 SHORT $LN58@SmeltSafet
$LN63@SmeltSafet:

; 579  : 	LPCTSTR szErr = Error( _T( "%s min:%d, max:%d, index:%d" ), szMsg, nMin, nMax, nIndex ); 

  00126	52		 push	 edx
  00127	50		 push	 eax
  00128	6a 00		 push	 0
  0012a	68 00 00 00 00	 push	 OFFSET ??_C@_0BI@BEIFNGEL@GetItemProp?5range_error@
  0012f	68 00 00 00 00	 push	 OFFSET ??_C@_0BM@HMFGHCP@?$CFs?5min?3?$CFd?0?5max?3?$CFd?0?5index?3?$CFd@
  00134	e8 00 00 00 00	 call	 ?Error@@YAPBDPBDZZ	; Error
  00139	83 c4 14	 add	 esp, 20			; 00000014H
$LN138@SmeltSafet:
; File C:\IAGOS\server\v18\Source\Source\WorldServer\ItemUpgrade.cpp

; 763  : 	if( pItemMain->GetProp()->dwReferStat1 >= BARUNA_D && pItemMain->GetProp()->dwReferStat1 <= BARUNA_S )

  0013c	33 c0		 xor	 eax, eax
$LN58@SmeltSafet:
  0013e	83 b8 d0 01 00
	00 08		 cmp	 DWORD PTR [eax+464], 8
  00145	76 4a		 jbe	 SHORT $LN110@SmeltSafet
$LN4@SmeltSafet:

; 764  : 	{
; 765  : 		return 0;
; 766  : 	}
; 767  : #endif // __NEW_ITEM_VARUNA
; 768  : 
; 769  : 	LogItemInfo aLogItem;

  00147	8d 8d 34 ff ff
	ff		 lea	 ecx, DWORD PTR _aLogItem$[ebp]
  0014d	e8 00 00 00 00	 call	 ??0_LogItemInfo@@QAE@XZ	; _LogItemInfo::_LogItemInfo

; 770  : 	aLogItem.SendName = pUser->GetName();

  00152	6a 00		 push	 0
  00154	8b cb		 mov	 ecx, ebx
  00156	e8 00 00 00 00	 call	 ?GetName@CMover@@QAEPBDH@Z ; CMover::GetName

; 771  : 	aLogItem.RecvName = "PIERCING_SMELTSAFETY";
; 772  : 	aLogItem.WorldId = pUser->GetWorld()->GetID();
; 773  : 
; 774  : 	int nCost = 100000;
; 775  : 
; 776  : 	if( 0 < nCost )
; 777  : 	{
; 778  : 		if( pUser->GetGold() < nCost )

  0015b	81 bb e0 14 00
	00 a0 86 01 00	 cmp	 DWORD PTR [ebx+5344], 100000 ; 000186a0H
  00165	8b cb		 mov	 ecx, ebx
  00167	89 85 38 ff ff
	ff		 mov	 DWORD PTR _aLogItem$[ebp+4], eax
  0016d	8b 83 6c 01 00
	00		 mov	 eax, DWORD PTR [ebx+364]
  00173	c7 85 3c ff ff
	ff 00 00 00 00	 mov	 DWORD PTR _aLogItem$[ebp+8], OFFSET ??_C@_0BF@JEPBEGGA@PIERCING_SMELTSAFETY@
  0017d	8b 00		 mov	 eax, DWORD PTR [eax]
  0017f	89 85 40 ff ff
	ff		 mov	 DWORD PTR _aLogItem$[ebp+12], eax
  00185	7d 1f		 jge	 SHORT $LN7@SmeltSafet

; 779  : 		{
; 780  : 			pUser->AddDefinedText( TID_GAME_LACKMONEY );

  00187	68 71 02 00 00	 push	 625			; 00000271H
  0018c	e8 00 00 00 00	 call	 ?AddDefinedText@CUser@@QAEXH@Z ; CUser::AddDefinedText
$LN110@SmeltSafet:

; 837  : 
; 838  : 		return 1;
; 839  : 	}
; 840  : 	return 0;
; 841  : }

  00191	5f		 pop	 edi
  00192	5e		 pop	 esi
  00193	32 c0		 xor	 al, al
  00195	5b		 pop	 ebx
  00196	8b 4d fc	 mov	 ecx, DWORD PTR __$ArrayPad$[ebp]
  00199	33 cd		 xor	 ecx, ebp
  0019b	e8 00 00 00 00	 call	 @__security_check_cookie@4
  001a0	8b e5		 mov	 esp, ebp
  001a2	5d		 pop	 ebp
  001a3	c2 10 00	 ret	 16			; 00000010H
$LN7@SmeltSafet:

; 781  : 			return 0;
; 782  : 		}
; 783  : 
; 784  : 		pUser->AddGold( -( nCost ) );

  001a6	6a 01		 push	 1
  001a8	68 60 79 fe ff	 push	 -100000			; fffe7960H
  001ad	e8 00 00 00 00	 call	 ?AddGold@CMover@@QAEHHH@Z ; CMover::AddGold

; 785  : 
; 786  : 		aLogItem.Gold = pUser->GetGold() + nCost;

  001b2	8b 8b e0 14 00
	00		 mov	 ecx, DWORD PTR [ebx+5344]

; 787  : 		aLogItem.Gold2 = pUser->GetGold();
; 788  : 		aLogItem.Action = "!";
; 789  : 		//aLogItem.ItemName = "SEED";
; 790  : 		_stprintf( aLogItem.szItemName, "%d", II_GOLD_SEED1 );

  001b8	6a 0c		 push	 12			; 0000000cH
  001ba	68 00 00 00 00	 push	 OFFSET ??_C@_02DPKJAMEF@?$CFd@
  001bf	89 8d 48 ff ff
	ff		 mov	 DWORD PTR _aLogItem$[ebp+20], ecx
  001c5	8d 81 a0 86 01
	00		 lea	 eax, DWORD PTR [ecx+100000]
  001cb	c7 85 34 ff ff
	ff 00 00 00 00	 mov	 DWORD PTR _aLogItem$[ebp], OFFSET ??_C@_01DCLJPIOD@?$CB@
  001d5	89 85 44 ff ff
	ff		 mov	 DWORD PTR _aLogItem$[ebp+16], eax
  001db	8d 85 58 ff ff
	ff		 lea	 eax, DWORD PTR _aLogItem$[ebp+36]
  001e1	50		 push	 eax
  001e2	e8 00 00 00 00	 call	 _sprintf
  001e7	83 c4 0c	 add	 esp, 12			; 0000000cH

; 791  : 		aLogItem.itemNumber = nCost;

  001ea	c7 85 78 ff ff
	ff a0 86 01 00	 mov	 DWORD PTR _aLogItem$[ebp+68], 100000 ; 000186a0H

; 792  : 		g_DPSrvr.OnLogItem( aLogItem );

  001f4	8d 85 34 ff ff
	ff		 lea	 eax, DWORD PTR _aLogItem$[ebp]
  001fa	b9 00 00 00 00	 mov	 ecx, OFFSET ?g_DPSrvr@@3VCDPSrvr@@A ; g_DPSrvr
  001ff	6a 00		 push	 0
  00201	6a 00		 push	 0
  00203	50		 push	 eax
  00204	e8 00 00 00 00	 call	 ?OnLogItem@CDPSrvr@@QAEXAAU_LogItemInfo@@PAVCItemElem@@H@Z ; CDPSrvr::OnLogItem

; 793  : 	}
; 794  : 	else
; 795  : 	{
; 796  : 		return 0;
; 797  : 	}
; 798  : 	aLogItem.Gold = aLogItem.Gold2 = pUser->GetGold();
; 799  : 
; 800  : 	// └ńĘß┐═ Ą╬ĘńĖČĖ« ╗Ķ┴”.
; 801  : 	aLogItem.Action = "!";
; 802  : 	g_DPSrvr.OnLogItem( aLogItem, pItemMaterial, pItemMaterial->m_nItemNum );

  00209	8b 8d 30 ff ff
	ff		 mov	 ecx, DWORD PTR _pItemMaterial$GSCopy$1$[ebp]
  0020f	8b 83 e0 14 00
	00		 mov	 eax, DWORD PTR [ebx+5344]
  00215	89 85 48 ff ff
	ff		 mov	 DWORD PTR _aLogItem$[ebp+20], eax
  0021b	89 85 44 ff ff
	ff		 mov	 DWORD PTR _aLogItem$[ebp+16], eax
  00221	0f bf 41 74	 movsx	 eax, WORD PTR [ecx+116]
  00225	50		 push	 eax
  00226	51		 push	 ecx
  00227	8d 85 34 ff ff
	ff		 lea	 eax, DWORD PTR _aLogItem$[ebp]
  0022d	c7 85 34 ff ff
	ff 00 00 00 00	 mov	 DWORD PTR _aLogItem$[ebp], OFFSET ??_C@_01DCLJPIOD@?$CB@
  00237	50		 push	 eax
  00238	b9 00 00 00 00	 mov	 ecx, OFFSET ?g_DPSrvr@@3VCDPSrvr@@A ; g_DPSrvr
  0023d	e8 00 00 00 00	 call	 ?OnLogItem@CDPSrvr@@QAEXAAU_LogItemInfo@@PAVCItemElem@@H@Z ; CDPSrvr::OnLogItem

; 803  : 	pUser->RemoveItem( (BYTE)( pItemMaterial->m_dwObjId ), 1 );

  00242	8b 95 30 ff ff
	ff		 mov	 edx, DWORD PTR _pItemMaterial$GSCopy$1$[ebp]
  00248	8b cb		 mov	 ecx, ebx
  0024a	6a 01		 push	 1
  0024c	0f b6 42 04	 movzx	 eax, BYTE PTR [edx+4]
  00250	50		 push	 eax
  00251	e8 00 00 00 00	 call	 ?RemoveItem@CMover@@QAEXEF@Z ; CMover::RemoveItem

; 804  : 	//	ŪŪŠŅĮ╠ ║Ė╚Ż└Ū Ą╬ĘńĖČĖ« Ę╬▒ū │▓▒µ░═
; 805  : 	ItemProp* pItemProp = pItemProtScr->GetProp();

  00256	8b cf		 mov	 ecx, edi
  00258	e8 00 00 00 00	 call	 ?GetPropA@CItemElem@@QAEPAUItemProp@@XZ ; CItemElem::GetPropA
  0025d	8b f8		 mov	 edi, eax

; 806  : 	if( pItemProp )

  0025f	85 ff		 test	 edi, edi
  00261	74 34		 je	 SHORT $LN8@SmeltSafet

; 807  : 	{
; 808  : 		g_dpDBClient.SendLogSMItemUse( "1", pUser, pItemProtScr, pItemProp );

  00263	68 00 00 00 00	 push	 OFFSET ??_C@_00CNPNBAHC@@
  00268	57		 push	 edi
  00269	ff b5 2c ff ff
	ff		 push	 DWORD PTR _pItemProtScr$GSCopy$1$[ebp]
  0026f	b9 00 00 00 00	 mov	 ecx, OFFSET ?g_dpDBClient@@3VCDPDatabaseClient@@A ; g_dpDBClient
  00274	53		 push	 ebx
  00275	68 00 00 00 00	 push	 OFFSET ??_C@_01HIHLOKLC@1@
  0027a	e8 00 00 00 00	 call	 ?SendLogSMItemUse@CDPDatabaseClient@@QAEXPBDPAVCUser@@PAVCItemElem@@PAUItemProp@@0@Z ; CDPDatabaseClient::SendLogSMItemUse

; 809  : 		g_dpDBClient.SendLogSMItemUse( "2", pUser, NULL, pItemProp );

  0027f	68 00 00 00 00	 push	 OFFSET ??_C@_00CNPNBAHC@@
  00284	57		 push	 edi
  00285	6a 00		 push	 0
  00287	53		 push	 ebx
  00288	68 00 00 00 00	 push	 OFFSET ??_C@_01FDFGLJHB@2@
  0028d	b9 00 00 00 00	 mov	 ecx, OFFSET ?g_dpDBClient@@3VCDPDatabaseClient@@A ; g_dpDBClient
  00292	e8 00 00 00 00	 call	 ?SendLogSMItemUse@CDPDatabaseClient@@QAEXPBDPAVCUser@@PAVCItemElem@@PAUItemProp@@0@Z ; CDPDatabaseClient::SendLogSMItemUse
$LN8@SmeltSafet:

; 810  : 	}
; 811  : 	pUser->RemoveItem( (BYTE)( pItemProtScr->m_dwObjId ), 1 );

  00297	8b 85 2c ff ff
	ff		 mov	 eax, DWORD PTR _pItemProtScr$GSCopy$1$[ebp]
  0029d	8b cb		 mov	 ecx, ebx
  0029f	6a 01		 push	 1
  002a1	0f b6 40 04	 movzx	 eax, BYTE PTR [eax+4]
  002a5	50		 push	 eax
  002a6	e8 00 00 00 00	 call	 ?RemoveItem@CMover@@QAEXEF@Z ; CMover::RemoveItem

; 813  : 	int nPercent = GetSizeProb( pItemMain );

  002ab	8b 8d 24 ff ff
	ff		 mov	 ecx, DWORD PTR _this$GSCopy$1$[ebp]
  002b1	56		 push	 esi
  002b2	e8 00 00 00 00	 call	 ?GetSizeProb@CItemUpgrade@@QAEHPAVCItemElem@@@Z ; CItemUpgrade::GetSizeProb
; File C:\IAGOS\server\v18\Source\Source\_Common\xUtil.h

; 16   : 	g_next = g_next * 1103515245 + 12345;// + nRandomSeed[ i++ ];

  002b7	69 35 00 00 00
	00 6d 4e c6 41	 imul	 esi, DWORD PTR ?g_next@@3KA, 1103515245 ; g_next
; File C:\IAGOS\server\v18\Source\Source\WorldServer\ItemUpgrade.cpp

; 813  : 	int nPercent = GetSizeProb( pItemMain );

  002c1	8b f8		 mov	 edi, eax
; File C:\IAGOS\server\v18\Source\Source\_Common\xUtil.h

; 22   : 	return  xRand() % num;

  002c3	b8 59 17 b7 d1	 mov	 eax, -776530087		; d1b71759H

; 16   : 	g_next = g_next * 1103515245 + 12345;// + nRandomSeed[ i++ ];

  002c8	81 c6 39 30 00
	00		 add	 esi, 12345		; 00003039H

; 22   : 	return  xRand() % num;

  002ce	f7 e6		 mul	 esi

; 16   : 	g_next = g_next * 1103515245 + 12345;// + nRandomSeed[ i++ ];

  002d0	89 35 00 00 00
	00		 mov	 DWORD PTR ?g_next@@3KA, esi ; g_next

; 22   : 	return  xRand() % num;

  002d6	c1 ea 0d	 shr	 edx, 13			; 0000000dH
  002d9	69 ca 10 27 00
	00		 imul	 ecx, edx, 10000
  002df	2b f1		 sub	 esi, ecx
; File C:\IAGOS\server\v18\Source\Source\WorldServer\ItemUpgrade.cpp

; 815  : 	if( nPercent < (int)( xRandom( 10000 ) ) )

  002e1	8b cb		 mov	 ecx, ebx
  002e3	3b fe		 cmp	 edi, esi
  002e5	0f 8d d2 00 00
	00		 jge	 $LN9@SmeltSafet

; 816  : 	{	// ĮŪŲą
; 817  : 		//pUser->AddDefinedText( TID_MMI_PIERCINGFAIL );
; 818  : 		pUser->AddPlaySound( SND_INF_UPGRADEFAIL );

  002eb	6a 0d		 push	 13			; 0000000dH
  002ed	e8 00 00 00 00	 call	 ?AddPlaySound@CUser@@QAEXK@Z ; CUser::AddPlaySound
; File C:\IAGOS\server\v18\Source\Source\_Common\Mover.h

; 1740 : 		if( GetAdjParam(DST_CHRSTATE) & CHS_INVISIBILITY )	// ĖČ╣²┼§ĖĒ╚Ł░Ī ░╔Ę╚┤┬░Ī?

  002f2	6a 40		 push	 64			; 00000040H
  002f4	8b cb		 mov	 ecx, ebx
  002f6	e8 00 00 00 00	 call	 ?GetAdjParam@CMover@@QAEHH@Z ; CMover::GetAdjParam
  002fb	a9 00 04 00 00	 test	 eax, 1024		; 00000400H
  00300	75 7f		 jne	 SHORT $LN11@SmeltSafet
; File C:\IAGOS\server\v18\Source\Source\WorldServer\ItemUpgrade.cpp

; 819  : 		if( pUser->IsMode( TRANSPARENT_MODE ) == 0)

  00302	f6 83 40 02 00
	00 02		 test	 BYTE PTR [ebx+576], 2
  00309	75 76		 jne	 SHORT $LN11@SmeltSafet
; File C:\IAGOS\server\v18\Source\Source\_Common\Obj.h

; 215  : 	D3DXVECTOR3		GetPos()	{ return m_vPos; }

  0030b	f3 0f 7e 83 60
	01 00 00	 movq	 xmm0, QWORD PTR [ebx+352]
; File C:\IAGOS\server\v18\Source\Source\WorldServer\ItemUpgrade.cpp

; 820  : 			g_UserMng.AddCreateSfxObj( (CMover *)pUser, XI_INT_FAIL, pUser->GetPos().x, pUser->GetPos().y, pUser->GetPos().z);

  00313	b9 00 00 00 00	 mov	 ecx, OFFSET ?g_UserMng@@3VCUserMng@@A ; g_UserMng
; File C:\IAGOS\server\v18\Source\Source\_Common\Obj.h

; 215  : 	D3DXVECTOR3		GetPos()	{ return m_vPos; }

  00318	8b 83 68 01 00
	00		 mov	 eax, DWORD PTR [ebx+360]
  0031e	66 0f d6 85 18
	ff ff ff	 movq	 QWORD PTR $T5[ebp], xmm0
  00326	f3 0f 7e c0	 movq	 xmm0, xmm0
  0032a	66 0f d6 85 0c
	ff ff ff	 movq	 QWORD PTR $T3[ebp], xmm0
  00332	f3 0f 7e 83 60
	01 00 00	 movq	 xmm0, QWORD PTR [ebx+352]
; File C:\IAGOS\server\v18\Source\Source\WorldServer\ItemUpgrade.cpp

; 820  : 			g_UserMng.AddCreateSfxObj( (CMover *)pUser, XI_INT_FAIL, pUser->GetPos().x, pUser->GetPos().y, pUser->GetPos().z);

  0033a	6a 00		 push	 0
  0033c	83 ec 0c	 sub	 esp, 12			; 0000000cH
; File C:\IAGOS\server\v18\Source\Source\_Common\Obj.h

; 215  : 	D3DXVECTOR3		GetPos()	{ return m_vPos; }

  0033f	66 0f d6 85 00
	ff ff ff	 movq	 QWORD PTR $T1[ebp], xmm0
  00347	89 85 20 ff ff
	ff		 mov	 DWORD PTR $T5[ebp+8], eax
; File C:\IAGOS\server\v18\Source\Source\WorldServer\ItemUpgrade.cpp

; 820  : 			g_UserMng.AddCreateSfxObj( (CMover *)pUser, XI_INT_FAIL, pUser->GetPos().x, pUser->GetPos().y, pUser->GetPos().z);

  0034d	f3 0f 10 85 20
	ff ff ff	 movss	 xmm0, DWORD PTR $T5[ebp+8]
  00355	f3 0f 11 44 24
	08		 movss	 DWORD PTR [esp+8], xmm0
  0035b	f3 0f 10 85 10
	ff ff ff	 movss	 xmm0, DWORD PTR $T3[ebp+4]
  00363	f3 0f 11 44 24
	04		 movss	 DWORD PTR [esp+4], xmm0
  00369	f3 0f 10 85 00
	ff ff ff	 movss	 xmm0, DWORD PTR $T1[ebp]
  00371	f3 0f 11 04 24	 movss	 DWORD PTR [esp], xmm0
  00376	68 b3 06 00 00	 push	 1715			; 000006b3H
  0037b	53		 push	 ebx
  0037c	e8 00 00 00 00	 call	 ?AddCreateSfxObj@CUserMng@@QAEXPAVCCtrl@@KMMMH@Z ; CUserMng::AddCreateSfxObj
$LN11@SmeltSafet:

; 821  : 		
; 822  : 		aLogItem.Action = "!";
; 823  : 		g_DPSrvr.OnLogItem( aLogItem, pItemMain, pItemMain->m_nItemNum );

  00381	8b b5 28 ff ff
	ff		 mov	 esi, DWORD PTR _pItemMain$GSCopy$1$[ebp]
  00387	b9 00 00 00 00	 mov	 ecx, OFFSET ?g_DPSrvr@@3VCDPSrvr@@A ; g_DPSrvr
  0038c	c7 85 34 ff ff
	ff 00 00 00 00	 mov	 DWORD PTR _aLogItem$[ebp], OFFSET ??_C@_01DCLJPIOD@?$CB@
  00396	0f bf 46 74	 movsx	 eax, WORD PTR [esi+116]
  0039a	50		 push	 eax
  0039b	56		 push	 esi
  0039c	8d 85 34 ff ff
	ff		 lea	 eax, DWORD PTR _aLogItem$[ebp]
  003a2	50		 push	 eax
  003a3	e8 00 00 00 00	 call	 ?OnLogItem@CDPSrvr@@QAEXAAU_LogItemInfo@@PAVCItemElem@@H@Z ; CDPSrvr::OnLogItem
  003a8	5f		 pop	 edi

; 837  : 
; 838  : 		return 1;
; 839  : 	}
; 840  : 	return 0;
; 841  : }

  003a9	5e		 pop	 esi
  003aa	b0 02		 mov	 al, 2
  003ac	5b		 pop	 ebx
  003ad	8b 4d fc	 mov	 ecx, DWORD PTR __$ArrayPad$[ebp]
  003b0	33 cd		 xor	 ecx, ebp
  003b2	e8 00 00 00 00	 call	 @__security_check_cookie@4
  003b7	8b e5		 mov	 esp, ebp
  003b9	5d		 pop	 ebp
  003ba	c2 10 00	 ret	 16			; 00000010H
$LN9@SmeltSafet:

; 824  : 
; 825  : 		return 2;
; 826  : 	}
; 827  : 	else
; 828  : 	{	// ╝║░°
; 829  : 		//pUser->AddDefinedText( TID_MMI_PIERCINGSUCCESS );
; 830  : 		pUser->AddPlaySound( SND_INF_UPGRADESUCCESS );

  003bd	6a 0e		 push	 14			; 0000000eH
  003bf	e8 00 00 00 00	 call	 ?AddPlaySound@CUser@@QAEXK@Z ; CUser::AddPlaySound
; File C:\IAGOS\server\v18\Source\Source\_Common\Mover.h

; 1740 : 		if( GetAdjParam(DST_CHRSTATE) & CHS_INVISIBILITY )	// ĖČ╣²┼§ĖĒ╚Ł░Ī ░╔Ę╚┤┬░Ī?

  003c4	6a 40		 push	 64			; 00000040H
  003c6	8b cb		 mov	 ecx, ebx
  003c8	e8 00 00 00 00	 call	 ?GetAdjParam@CMover@@QAEHH@Z ; CMover::GetAdjParam
  003cd	a9 00 04 00 00	 test	 eax, 1024		; 00000400H
  003d2	75 7f		 jne	 SHORT $LN12@SmeltSafet
; File C:\IAGOS\server\v18\Source\Source\WorldServer\ItemUpgrade.cpp

; 831  : 		if( pUser->IsMode( TRANSPARENT_MODE ) == 0)

  003d4	f6 83 40 02 00
	00 02		 test	 BYTE PTR [ebx+576], 2
  003db	75 76		 jne	 SHORT $LN12@SmeltSafet
; File C:\IAGOS\server\v18\Source\Source\_Common\Obj.h

; 215  : 	D3DXVECTOR3		GetPos()	{ return m_vPos; }

  003dd	f3 0f 7e 83 60
	01 00 00	 movq	 xmm0, QWORD PTR [ebx+352]
; File C:\IAGOS\server\v18\Source\Source\WorldServer\ItemUpgrade.cpp

; 832  : 			g_UserMng.AddCreateSfxObj( (CMover *)pUser, XI_INT_SUCCESS, pUser->GetPos().x, pUser->GetPos().y, pUser->GetPos().z );

  003e5	b9 00 00 00 00	 mov	 ecx, OFFSET ?g_UserMng@@3VCUserMng@@A ; g_UserMng
; File C:\IAGOS\server\v18\Source\Source\_Common\Obj.h

; 215  : 	D3DXVECTOR3		GetPos()	{ return m_vPos; }

  003ea	8b 83 68 01 00
	00		 mov	 eax, DWORD PTR [ebx+360]
  003f0	66 0f d6 85 00
	ff ff ff	 movq	 QWORD PTR $T2[ebp], xmm0
  003f8	f3 0f 7e c0	 movq	 xmm0, xmm0
  003fc	66 0f d6 85 0c
	ff ff ff	 movq	 QWORD PTR $T4[ebp], xmm0
  00404	f3 0f 7e 83 60
	01 00 00	 movq	 xmm0, QWORD PTR [ebx+352]
; File C:\IAGOS\server\v18\Source\Source\WorldServer\ItemUpgrade.cpp

; 832  : 			g_UserMng.AddCreateSfxObj( (CMover *)pUser, XI_INT_SUCCESS, pUser->GetPos().x, pUser->GetPos().y, pUser->GetPos().z );

  0040c	6a 00		 push	 0
  0040e	83 ec 0c	 sub	 esp, 12			; 0000000cH
; File C:\IAGOS\server\v18\Source\Source\_Common\Obj.h

; 215  : 	D3DXVECTOR3		GetPos()	{ return m_vPos; }

  00411	66 0f d6 85 18
	ff ff ff	 movq	 QWORD PTR $T6[ebp], xmm0
  00419	89 85 08 ff ff
	ff		 mov	 DWORD PTR $T2[ebp+8], eax
; File C:\IAGOS\server\v18\Source\Source\WorldServer\ItemUpgrade.cpp

; 832  : 			g_UserMng.AddCreateSfxObj( (CMover *)pUser, XI_INT_SUCCESS, pUser->GetPos().x, pUser->GetPos().y, pUser->GetPos().z );

  0041f	f3 0f 10 85 08
	ff ff ff	 movss	 xmm0, DWORD PTR $T2[ebp+8]
  00427	f3 0f 11 44 24
	08		 movss	 DWORD PTR [esp+8], xmm0
  0042d	f3 0f 10 85 10
	ff ff ff	 movss	 xmm0, DWORD PTR $T4[ebp+4]
  00435	f3 0f 11 44 24
	04		 movss	 DWORD PTR [esp+4], xmm0
  0043b	f3 0f 10 85 18
	ff ff ff	 movss	 xmm0, DWORD PTR $T6[ebp]
  00443	f3 0f 11 04 24	 movss	 DWORD PTR [esp], xmm0
  00448	68 b2 06 00 00	 push	 1714			; 000006b2H
  0044d	53		 push	 ebx
  0044e	e8 00 00 00 00	 call	 ?AddCreateSfxObj@CUserMng@@QAEXPAVCCtrl@@KMMMH@Z ; CUserMng::AddCreateSfxObj
$LN12@SmeltSafet:
; File C:\IAGOS\server\v18\Source\Source\_Common\Item.h

; 103  : 	int		GetPiercingSize()	{	return m_piercing.GetPiercingSize();		}

  00453	8b b5 28 ff ff
	ff		 mov	 esi, DWORD PTR _pItemMain$GSCopy$1$[ebp]
  00459	8d 4e 3c	 lea	 ecx, DWORD PTR [esi+60]
  0045c	e8 00 00 00 00	 call	 ?GetPiercingSize@CPiercing@@QAEHXZ ; CPiercing::GetPiercingSize
; File C:\IAGOS\server\v18\Source\Source\WorldServer\ItemUpgrade.cpp

; 833  : 		pUser->UpdateItem( (BYTE)pItemMain->m_dwObjId, UI_PIERCING_SIZE, pItemMain->GetPiercingSize() + 1 );

  00461	6a 00		 push	 0
  00463	40		 inc	 eax
  00464	8b cb		 mov	 ecx, ebx
  00466	50		 push	 eax
  00467	0f b6 46 04	 movzx	 eax, BYTE PTR [esi+4]
  0046b	6a 06		 push	 6
  0046d	50		 push	 eax
  0046e	e8 00 00 00 00	 call	 ?UpdateItem@CMover@@QAEXEDKK@Z ; CMover::UpdateItem

; 834  : 
; 835  : 		aLogItem.Action = "#";
; 836  : 		g_DPSrvr.OnLogItem( aLogItem, pItemMain, pItemMain->m_nItemNum );

  00473	0f bf 46 74	 movsx	 eax, WORD PTR [esi+116]
  00477	b9 00 00 00 00	 mov	 ecx, OFFSET ?g_DPSrvr@@3VCDPSrvr@@A ; g_DPSrvr
  0047c	50		 push	 eax
  0047d	56		 push	 esi
  0047e	8d 85 34 ff ff
	ff		 lea	 eax, DWORD PTR _aLogItem$[ebp]
  00484	c7 85 34 ff ff
	ff 00 00 00 00	 mov	 DWORD PTR _aLogItem$[ebp], OFFSET ??_C@_01IPJKGB@?$CD@
  0048e	50		 push	 eax
  0048f	e8 00 00 00 00	 call	 ?OnLogItem@CDPSrvr@@QAEXAAU_LogItemInfo@@PAVCItemElem@@H@Z ; CDPSrvr::OnLogItem

; 837  : 
; 838  : 		return 1;
; 839  : 	}
; 840  : 	return 0;
; 841  : }

  00494	8b 4d fc	 mov	 ecx, DWORD PTR __$ArrayPad$[ebp]
  00497	b0 01		 mov	 al, 1
  00499	5f		 pop	 edi
  0049a	5e		 pop	 esi
  0049b	33 cd		 xor	 ecx, ebp
  0049d	5b		 pop	 ebx
  0049e	e8 00 00 00 00	 call	 @__security_check_cookie@4
  004a3	8b e5		 mov	 esp, ebp
  004a5	5d		 pop	 ebp
  004a6	c2 10 00	 ret	 16			; 00000010H
?SmeltSafetyPiercingSize@CItemUpgrade@@AAEEPAVCUser@@PAVCItemElem@@11@Z ENDP ; CItemUpgrade::SmeltSafetyPiercingSize
_TEXT	ENDS
; Function compile flags: /Ogtp
; File C:\IAGOS\server\v18\Source\Source\WorldServer\ItemUpgrade.cpp
; File C:\IAGOS\server\v18\Source\Source\_Common\Item.h
; File C:\IAGOS\server\v18\Source\Source\_Common\Project.h
; File C:\IAGOS\server\v18\Source\Source\_Common\data.h
; File C:\IAGOS\server\v18\Source\Source\_Common\Project.h
; File C:\IAGOS\server\v18\Source\Source\WorldServer\ItemUpgrade.cpp
; File C:\IAGOS\server\v18\Source\Source\_Common\Item.h
; File C:\IAGOS\server\v18\Source\Source\_Common\Project.h
; File C:\IAGOS\server\v18\Source\Source\_Common\data.h
; File C:\IAGOS\server\v18\Source\Source\_Common\Project.h
; File C:\IAGOS\server\v18\Source\Source\WorldServer\ItemUpgrade.cpp
; File C:\IAGOS\server\v18\Source\Source\_Common\Item.h
; File C:\IAGOS\server\v18\Source\Source\_Common\Project.h
; File C:\IAGOS\server\v18\Source\Source\_Common\data.h
; File C:\IAGOS\server\v18\Source\Source\_Common\Project.h
; File C:\IAGOS\server\v18\Source\Source\WorldServer\ItemUpgrade.cpp
; File C:\IAGOS\server\v18\Source\Source\_Common\Item.h
; File C:\IAGOS\server\v18\Source\Source\_Common\Project.h
; File C:\IAGOS\server\v18\Source\Source\_Common\Item.h
; File C:\IAGOS\server\v18\Source\Source\_Common\Project.h
; File C:\IAGOS\server\v18\Source\Source\_Common\data.h
; File C:\IAGOS\server\v18\Source\Source\WorldServer\ItemUpgrade.cpp
; File C:\IAGOS\server\v18\Source\Source\_Common\Project.h
; File C:\IAGOS\server\v18\Source\Source\WorldServer\ItemUpgrade.cpp
; File C:\IAGOS\server\v18\Source\Source\_Common\Item.h
; File C:\IAGOS\server\v18\Source\Source\WorldServer\ItemUpgrade.cpp
; File C:\IAGOS\server\v18\Source\Source\_Common\xUtil.h
; File C:\IAGOS\server\v18\Source\Source\WorldServer\ItemUpgrade.cpp
; File C:\IAGOS\server\v18\Source\Source\_Common\xUtil.h
; File C:\IAGOS\server\v18\Source\Source\WorldServer\ItemUpgrade.cpp
; File C:\IAGOS\server\v18\Source\Source\_Common\Mover.h
; File C:\IAGOS\server\v18\Source\Source\WorldServer\ItemUpgrade.cpp
; File C:\IAGOS\server\v18\Source\Source\_Common\Obj.h
; File C:\IAGOS\server\v18\Source\Source\WorldServer\ItemUpgrade.cpp
; File C:\IAGOS\server\v18\Source\Source\_Common\Obj.h
; File C:\IAGOS\server\v18\Source\Source\WorldServer\ItemUpgrade.cpp
; File C:\IAGOS\server\v18\Source\Source\_Common\Obj.h
; File C:\IAGOS\server\v18\Source\Source\WorldServer\ItemUpgrade.cpp
; File C:\IAGOS\server\v18\Source\Source\_Common\Mover.h
; File C:\IAGOS\server\v18\Source\Source\WorldServer\ItemUpgrade.cpp
; File C:\IAGOS\server\v18\Source\Source\_Common\Obj.h
; File C:\IAGOS\server\v18\Source\Source\WorldServer\ItemUpgrade.cpp
; File C:\IAGOS\server\v18\Source\Source\_Common\Obj.h
; File C:\IAGOS\server\v18\Source\Source\WorldServer\ItemUpgrade.cpp
; File C:\IAGOS\server\v18\Source\Source\_Common\Obj.h
; File C:\IAGOS\server\v18\Source\Source\WorldServer\ItemUpgrade.cpp
;	COMDAT ?SmeltSafetyAccessory@CItemUpgrade@@AAEEPAVCUser@@PAVCItemElem@@11@Z
_TEXT	SEGMENT
$T1 = -244						; size = 12
$T2 = -244						; size = 12
$T3 = -232						; size = 12
$T4 = -232						; size = 12
$T5 = -220						; size = 12
$T6 = -220						; size = 12
_pItemProtScr$GSCopy$1$ = -208				; size = 4
_aLogItem$ = -204					; size = 200
__$ArrayPad$ = -4					; size = 4
_pUser$ = 8						; size = 4
_pItemMain$ = 12					; size = 4
_pItemMaterial$ = 16					; size = 4
_pItemProtScr$ = 20					; size = 4
?SmeltSafetyAccessory@CItemUpgrade@@AAEEPAVCUser@@PAVCItemElem@@11@Z PROC ; CItemUpgrade::SmeltSafetyAccessory, COMDAT
; _this$ = ecx

; 677  : {

  00000	55		 push	 ebp
  00001	8b ec		 mov	 ebp, esp
  00003	81 ec f4 00 00
	00		 sub	 esp, 244		; 000000f4H
  00009	a1 00 00 00 00	 mov	 eax, DWORD PTR ___security_cookie
  0000e	33 c5		 xor	 eax, ebp
  00010	89 45 fc	 mov	 DWORD PTR __$ArrayPad$[ebp], eax
  00013	8b 45 14	 mov	 eax, DWORD PTR _pItemProtScr$[ebp]
  00016	53		 push	 ebx
  00017	8b 5d 0c	 mov	 ebx, DWORD PTR _pItemMain$[ebp]
  0001a	56		 push	 esi
  0001b	8b 75 10	 mov	 esi, DWORD PTR _pItemMaterial$[ebp]
  0001e	57		 push	 edi
  0001f	8b 7d 08	 mov	 edi, DWORD PTR _pUser$[ebp]
  00022	89 85 30 ff ff
	ff		 mov	 DWORD PTR _pItemProtScr$GSCopy$1$[ebp], eax
; File C:\IAGOS\server\v18\Source\Source\_Common\Item.h

; 230  : 	ItemProp*	GetProp()	{	return prj.GetItemProp( m_dwItemId );	}

  00028	8b 4e 0c	 mov	 ecx, DWORD PTR [esi+12]
; File C:\IAGOS\server\v18\Source\Source\_Common\Project.h

; 1389 : 	VERIFY_RANGE_ASSERT( nIndex, 0, m_aPropItem.GetSize(), "GetItemProp range_error", NULL );

  0002b	a1 40 02 00 00	 mov	 eax, DWORD PTR ?prj@@3VCProject@@A+576
  00030	85 c9		 test	 ecx, ecx
  00032	78 11		 js	 SHORT $LN18@SmeltSafet
  00034	3b c8		 cmp	 ecx, eax
  00036	7d 0d		 jge	 SHORT $LN18@SmeltSafet
; File C:\IAGOS\server\v18\Source\Source\_Common\data.h

; 270  : 	if( dwIndex >= (DWORD)m_nMaxIndex )

  00038	8b 15 30 02 00
	00		 mov	 edx, DWORD PTR ?prj@@3VCProject@@A+560
  0003e	73 26		 jae	 SHORT $LN129@SmeltSafet

; 272  : 	return (T*) m_apOffset[ dwIndex ];

  00040	8b 0c 8a	 mov	 ecx, DWORD PTR [edx+ecx*4]
; File C:\IAGOS\server\v18\Source\Source\_Common\Project.h

; 1390 : 	return m_aPropItem.GetAt( nIndex ); 

  00043	eb 23		 jmp	 SHORT $LN13@SmeltSafet
$LN18@SmeltSafet:

; 579  : 	LPCTSTR szErr = Error( _T( "%s min:%d, max:%d, index:%d" ), szMsg, nMin, nMax, nIndex ); 

  00045	51		 push	 ecx
  00046	50		 push	 eax
  00047	6a 00		 push	 0
  00049	68 00 00 00 00	 push	 OFFSET ??_C@_0BI@BEIFNGEL@GetItemProp?5range_error@
  0004e	68 00 00 00 00	 push	 OFFSET ??_C@_0BM@HMFGHCP@?$CFs?5min?3?$CFd?0?5max?3?$CFd?0?5index?3?$CFd@
  00053	e8 00 00 00 00	 call	 ?Error@@YAPBDPBDZZ	; Error

; 1389 : 	VERIFY_RANGE_ASSERT( nIndex, 0, m_aPropItem.GetSize(), "GetItemProp range_error", NULL );

  00058	a1 40 02 00 00	 mov	 eax, DWORD PTR ?prj@@3VCProject@@A+576

; 579  : 	LPCTSTR szErr = Error( _T( "%s min:%d, max:%d, index:%d" ), szMsg, nMin, nMax, nIndex ); 

  0005d	83 c4 14	 add	 esp, 20			; 00000014H

; 1389 : 	VERIFY_RANGE_ASSERT( nIndex, 0, m_aPropItem.GetSize(), "GetItemProp range_error", NULL );

  00060	8b 15 30 02 00
	00		 mov	 edx, DWORD PTR ?prj@@3VCProject@@A+560
$LN129@SmeltSafet:
; File C:\IAGOS\server\v18\Source\Source\WorldServer\ItemUpgrade.cpp

; 679  : 	if( pItemMaterial->GetProp()->dwID != II_GEN_MAT_MOONSTONE && pItemMaterial->GetProp()->dwID != II_GEN_MAT_MOONSTONE_1 )

  00066	33 c9		 xor	 ecx, ecx
$LN13@SmeltSafet:
  00068	81 39 f4 07 00
	00		 cmp	 DWORD PTR [ecx], 2036	; 000007f4H
  0006e	74 3d		 je	 SHORT $LN2@SmeltSafet
; File C:\IAGOS\server\v18\Source\Source\_Common\Item.h

; 230  : 	ItemProp*	GetProp()	{	return prj.GetItemProp( m_dwItemId );	}

  00070	8b 4e 0c	 mov	 ecx, DWORD PTR [esi+12]
; File C:\IAGOS\server\v18\Source\Source\_Common\Project.h

; 1389 : 	VERIFY_RANGE_ASSERT( nIndex, 0, m_aPropItem.GetSize(), "GetItemProp range_error", NULL );

  00073	85 c9		 test	 ecx, ecx
  00075	78 0b		 js	 SHORT $LN46@SmeltSafet
  00077	3b c8		 cmp	 ecx, eax
  00079	7d 07		 jge	 SHORT $LN46@SmeltSafet
; File C:\IAGOS\server\v18\Source\Source\_Common\data.h

; 270  : 	if( dwIndex >= (DWORD)m_nMaxIndex )

  0007b	73 26		 jae	 SHORT $LN130@SmeltSafet

; 272  : 	return (T*) m_apOffset[ dwIndex ];

  0007d	8b 0c 8a	 mov	 ecx, DWORD PTR [edx+ecx*4]
; File C:\IAGOS\server\v18\Source\Source\_Common\Project.h

; 1390 : 	return m_aPropItem.GetAt( nIndex ); 

  00080	eb 23		 jmp	 SHORT $LN41@SmeltSafet
$LN46@SmeltSafet:

; 579  : 	LPCTSTR szErr = Error( _T( "%s min:%d, max:%d, index:%d" ), szMsg, nMin, nMax, nIndex ); 

  00082	51		 push	 ecx
  00083	50		 push	 eax
  00084	6a 00		 push	 0
  00086	68 00 00 00 00	 push	 OFFSET ??_C@_0BI@BEIFNGEL@GetItemProp?5range_error@
  0008b	68 00 00 00 00	 push	 OFFSET ??_C@_0BM@HMFGHCP@?$CFs?5min?3?$CFd?0?5max?3?$CFd?0?5index?3?$CFd@
  00090	e8 00 00 00 00	 call	 ?Error@@YAPBDPBDZZ	; Error

; 1389 : 	VERIFY_RANGE_ASSERT( nIndex, 0, m_aPropItem.GetSize(), "GetItemProp range_error", NULL );

  00095	a1 40 02 00 00	 mov	 eax, DWORD PTR ?prj@@3VCProject@@A+576

; 579  : 	LPCTSTR szErr = Error( _T( "%s min:%d, max:%d, index:%d" ), szMsg, nMin, nMax, nIndex ); 

  0009a	83 c4 14	 add	 esp, 20			; 00000014H

; 1389 : 	VERIFY_RANGE_ASSERT( nIndex, 0, m_aPropItem.GetSize(), "GetItemProp range_error", NULL );

  0009d	8b 15 30 02 00
	00		 mov	 edx, DWORD PTR ?prj@@3VCProject@@A+560
$LN130@SmeltSafet:
; File C:\IAGOS\server\v18\Source\Source\WorldServer\ItemUpgrade.cpp

; 679  : 	if( pItemMaterial->GetProp()->dwID != II_GEN_MAT_MOONSTONE && pItemMaterial->GetProp()->dwID != II_GEN_MAT_MOONSTONE_1 )

  000a3	33 c9		 xor	 ecx, ecx
$LN41@SmeltSafet:
  000a5	81 39 23 08 00
	00		 cmp	 DWORD PTR [ecx], 2083	; 00000823H
  000ab	75 38		 jne	 SHORT $LN107@SmeltSafet
$LN2@SmeltSafet:
; File C:\IAGOS\server\v18\Source\Source\_Common\Item.h

; 230  : 	ItemProp*	GetProp()	{	return prj.GetItemProp( m_dwItemId );	}

  000ad	8b 8d 30 ff ff
	ff		 mov	 ecx, DWORD PTR _pItemProtScr$GSCopy$1$[ebp]
  000b3	8b 49 0c	 mov	 ecx, DWORD PTR [ecx+12]
; File C:\IAGOS\server\v18\Source\Source\_Common\Project.h

; 1389 : 	VERIFY_RANGE_ASSERT( nIndex, 0, m_aPropItem.GetSize(), "GetItemProp range_error", NULL );

  000b6	85 c9		 test	 ecx, ecx
  000b8	78 0b		 js	 SHORT $LN32@SmeltSafet
  000ba	3b c8		 cmp	 ecx, eax
  000bc	7d 07		 jge	 SHORT $LN32@SmeltSafet
; File C:\IAGOS\server\v18\Source\Source\_Common\data.h

; 270  : 	if( dwIndex >= (DWORD)m_nMaxIndex )

  000be	73 1b		 jae	 SHORT $LN131@SmeltSafet

; 272  : 	return (T*) m_apOffset[ dwIndex ];

  000c0	8b 04 8a	 mov	 eax, DWORD PTR [edx+ecx*4]
; File C:\IAGOS\server\v18\Source\Source\_Common\Project.h

; 1390 : 	return m_aPropItem.GetAt( nIndex ); 

  000c3	eb 18		 jmp	 SHORT $LN27@SmeltSafet
$LN32@SmeltSafet:

; 579  : 	LPCTSTR szErr = Error( _T( "%s min:%d, max:%d, index:%d" ), szMsg, nMin, nMax, nIndex ); 

  000c5	51		 push	 ecx
  000c6	50		 push	 eax
  000c7	6a 00		 push	 0
  000c9	68 00 00 00 00	 push	 OFFSET ??_C@_0BI@BEIFNGEL@GetItemProp?5range_error@
  000ce	68 00 00 00 00	 push	 OFFSET ??_C@_0BM@HMFGHCP@?$CFs?5min?3?$CFd?0?5max?3?$CFd?0?5index?3?$CFd@
  000d3	e8 00 00 00 00	 call	 ?Error@@YAPBDPBDZZ	; Error
  000d8	83 c4 14	 add	 esp, 20			; 00000014H
$LN131@SmeltSafet:
; File C:\IAGOS\server\v18\Source\Source\WorldServer\ItemUpgrade.cpp

; 685  : 	if( pItemProtScr->GetProp()->dwID != II_SYS_SYS_SCR_SMELPROT4 )

  000db	33 c0		 xor	 eax, eax
$LN27@SmeltSafet:
  000dd	81 38 69 67 00
	00		 cmp	 DWORD PTR [eax], 26473	; 00006769H
  000e3	74 15		 je	 SHORT $LN3@SmeltSafet
$LN107@SmeltSafet:
  000e5	5f		 pop	 edi

; 742  : 
; 743  : 		return 1;
; 744  : 	}
; 745  : 	return 0;
; 746  : }

  000e6	5e		 pop	 esi
  000e7	32 c0		 xor	 al, al
  000e9	5b		 pop	 ebx
  000ea	8b 4d fc	 mov	 ecx, DWORD PTR __$ArrayPad$[ebp]
  000ed	33 cd		 xor	 ecx, ebp
  000ef	e8 00 00 00 00	 call	 @__security_check_cookie@4
  000f4	8b e5		 mov	 esp, ebp
  000f6	5d		 pop	 ebp
  000f7	c2 10 00	 ret	 16			; 00000010H
$LN3@SmeltSafet:

; 686  : 	{
; 687  : 		//pUser->AddDefinedText( TID_GAME_NOTEQUALITEM );
; 688  : 		return 0;
; 689  : 	}
; 690  : 	//	┴”Ę├╝÷─Ī░Ī max─ĪĖ” │čŠ·└╗Č¦ Ė«┼Ž
; 691  : 	if( pItemMain->GetAbilityOption() >= MAX_AAO )	// 20

  000fa	83 7b 64 14	 cmp	 DWORD PTR [ebx+100], 20	; 00000014H
  000fe	7c 15		 jl	 SHORT $LN4@SmeltSafet

; 742  : 
; 743  : 		return 1;
; 744  : 	}
; 745  : 	return 0;
; 746  : }

  00100	5f		 pop	 edi
  00101	5e		 pop	 esi
  00102	b0 03		 mov	 al, 3
  00104	5b		 pop	 ebx
  00105	8b 4d fc	 mov	 ecx, DWORD PTR __$ArrayPad$[ebp]
  00108	33 cd		 xor	 ecx, ebp
  0010a	e8 00 00 00 00	 call	 @__security_check_cookie@4
  0010f	8b e5		 mov	 esp, ebp
  00111	5d		 pop	 ebp
  00112	c2 10 00	 ret	 16			; 00000010H
$LN4@SmeltSafet:

; 692  : 	{
; 693  : 		//pUser->AddDefinedText( TID_GAME_ACCESSORY_MAX_AAO );
; 694  : 		return 3;
; 695  : 	}
; 696  : 
; 697  : 	// log
; 698  : 	LogItemInfo aLogItem;

  00115	8d 8d 34 ff ff
	ff		 lea	 ecx, DWORD PTR _aLogItem$[ebp]
  0011b	e8 00 00 00 00	 call	 ??0_LogItemInfo@@QAE@XZ	; _LogItemInfo::_LogItemInfo

; 699  : 	aLogItem.SendName	= pUser->GetName();

  00120	6a 00		 push	 0
  00122	8b cf		 mov	 ecx, edi
  00124	e8 00 00 00 00	 call	 ?GetName@CMover@@QAEPBDH@Z ; CMover::GetName
  00129	89 85 38 ff ff
	ff		 mov	 DWORD PTR _aLogItem$[ebp+4], eax

; 700  : 	aLogItem.RecvName	= "UPGRADEITEM_SMELTSAFETY";
; 701  : 	aLogItem.WorldId	= pUser->GetWorld()->GetID();
; 702  : 	aLogItem.Gold	= pUser->GetGold();
; 703  : 	aLogItem.Gold2	= pUser->GetGold();
; 704  : 
; 705  : 	aLogItem.Action	= "N";
; 706  : 	g_DPSrvr.OnLogItem( aLogItem, pItemMaterial, pItemMaterial->m_nItemNum );

  0012f	b9 00 00 00 00	 mov	 ecx, OFFSET ?g_DPSrvr@@3VCDPSrvr@@A ; g_DPSrvr
  00134	8b 87 6c 01 00
	00		 mov	 eax, DWORD PTR [edi+364]
  0013a	c7 85 3c ff ff
	ff 00 00 00 00	 mov	 DWORD PTR _aLogItem$[ebp+8], OFFSET ??_C@_0BI@NMHNGLNA@UPGRADEITEM_SMELTSAFETY@
  00144	8b 00		 mov	 eax, DWORD PTR [eax]
  00146	89 85 40 ff ff
	ff		 mov	 DWORD PTR _aLogItem$[ebp+12], eax
  0014c	8b 87 e0 14 00
	00		 mov	 eax, DWORD PTR [edi+5344]
  00152	89 85 44 ff ff
	ff		 mov	 DWORD PTR _aLogItem$[ebp+16], eax
  00158	89 85 48 ff ff
	ff		 mov	 DWORD PTR _aLogItem$[ebp+20], eax
  0015e	0f bf 46 74	 movsx	 eax, WORD PTR [esi+116]
  00162	50		 push	 eax
  00163	56		 push	 esi
  00164	8d 85 34 ff ff
	ff		 lea	 eax, DWORD PTR _aLogItem$[ebp]
  0016a	c7 85 34 ff ff
	ff 00 00 00 00	 mov	 DWORD PTR _aLogItem$[ebp], OFFSET ??_C@_01NANMIPIL@N@
  00174	50		 push	 eax
  00175	e8 00 00 00 00	 call	 ?OnLogItem@CDPSrvr@@QAEXAAU_LogItemInfo@@PAVCItemElem@@H@Z ; CDPSrvr::OnLogItem

; 707  : 	pUser->RemoveItem( (BYTE)( pItemMaterial->m_dwObjId ), 1 );

  0017a	0f b6 46 04	 movzx	 eax, BYTE PTR [esi+4]
  0017e	8b cf		 mov	 ecx, edi
  00180	6a 01		 push	 1
  00182	50		 push	 eax
  00183	e8 00 00 00 00	 call	 ?RemoveItem@CMover@@QAEXEF@Z ; CMover::RemoveItem
; File C:\IAGOS\server\v18\Source\Source\_Common\Item.h

; 230  : 	ItemProp*	GetProp()	{	return prj.GetItemProp( m_dwItemId );	}

  00188	8b 95 30 ff ff
	ff		 mov	 edx, DWORD PTR _pItemProtScr$GSCopy$1$[ebp]
; File C:\IAGOS\server\v18\Source\Source\_Common\Project.h

; 1389 : 	VERIFY_RANGE_ASSERT( nIndex, 0, m_aPropItem.GetSize(), "GetItemProp range_error", NULL );

  0018e	a1 40 02 00 00	 mov	 eax, DWORD PTR ?prj@@3VCProject@@A+576
; File C:\IAGOS\server\v18\Source\Source\_Common\Item.h

; 230  : 	ItemProp*	GetProp()	{	return prj.GetItemProp( m_dwItemId );	}

  00193	8b 4a 0c	 mov	 ecx, DWORD PTR [edx+12]
; File C:\IAGOS\server\v18\Source\Source\_Common\Project.h

; 1389 : 	VERIFY_RANGE_ASSERT( nIndex, 0, m_aPropItem.GetSize(), "GetItemProp range_error", NULL );

  00196	85 c9		 test	 ecx, ecx
  00198	78 47		 js	 SHORT $LN60@SmeltSafet
  0019a	3b c8		 cmp	 ecx, eax
  0019c	7d 43		 jge	 SHORT $LN60@SmeltSafet
; File C:\IAGOS\server\v18\Source\Source\_Common\data.h

; 270  : 	if( dwIndex >= (DWORD)m_nMaxIndex )

  0019e	72 04		 jb	 SHORT $LN65@SmeltSafet

; 271  : 		return NULL;

  001a0	33 f6		 xor	 esi, esi
  001a2	eb 08		 jmp	 SHORT $LN64@SmeltSafet
$LN65@SmeltSafet:

; 272  : 	return (T*) m_apOffset[ dwIndex ];

  001a4	a1 30 02 00 00	 mov	 eax, DWORD PTR ?prj@@3VCProject@@A+560
  001a9	8b 34 88	 mov	 esi, DWORD PTR [eax+ecx*4]
$LN64@SmeltSafet:
; File C:\IAGOS\server\v18\Source\Source\WorldServer\ItemUpgrade.cpp

; 710  : 	if( pItemProp )

  001ac	85 f6		 test	 esi, esi
  001ae	74 47		 je	 SHORT $LN5@SmeltSafet

; 711  : 	{
; 712  : 		g_dpDBClient.SendLogSMItemUse( "1", pUser, pItemProtScr, pItemProp );

  001b0	68 00 00 00 00	 push	 OFFSET ??_C@_00CNPNBAHC@@
  001b5	56		 push	 esi
  001b6	52		 push	 edx
  001b7	57		 push	 edi
  001b8	68 00 00 00 00	 push	 OFFSET ??_C@_01HIHLOKLC@1@
  001bd	b9 00 00 00 00	 mov	 ecx, OFFSET ?g_dpDBClient@@3VCDPDatabaseClient@@A ; g_dpDBClient
  001c2	e8 00 00 00 00	 call	 ?SendLogSMItemUse@CDPDatabaseClient@@QAEXPBDPAVCUser@@PAVCItemElem@@PAUItemProp@@0@Z ; CDPDatabaseClient::SendLogSMItemUse

; 713  : 		g_dpDBClient.SendLogSMItemUse( "2", pUser, NULL, pItemProp );

  001c7	68 00 00 00 00	 push	 OFFSET ??_C@_00CNPNBAHC@@
  001cc	56		 push	 esi
  001cd	6a 00		 push	 0
  001cf	57		 push	 edi
  001d0	68 00 00 00 00	 push	 OFFSET ??_C@_01FDFGLJHB@2@
  001d5	b9 00 00 00 00	 mov	 ecx, OFFSET ?g_dpDBClient@@3VCDPDatabaseClient@@A ; g_dpDBClient
  001da	e8 00 00 00 00	 call	 ?SendLogSMItemUse@CDPDatabaseClient@@QAEXPBDPAVCUser@@PAVCItemElem@@PAUItemProp@@0@Z ; CDPDatabaseClient::SendLogSMItemUse
  001df	eb 16		 jmp	 SHORT $LN5@SmeltSafet
$LN60@SmeltSafet:
; File C:\IAGOS\server\v18\Source\Source\_Common\Project.h

; 579  : 	LPCTSTR szErr = Error( _T( "%s min:%d, max:%d, index:%d" ), szMsg, nMin, nMax, nIndex ); 

  001e1	51		 push	 ecx
  001e2	50		 push	 eax
  001e3	6a 00		 push	 0
  001e5	68 00 00 00 00	 push	 OFFSET ??_C@_0BI@BEIFNGEL@GetItemProp?5range_error@
  001ea	68 00 00 00 00	 push	 OFFSET ??_C@_0BM@HMFGHCP@?$CFs?5min?3?$CFd?0?5max?3?$CFd?0?5index?3?$CFd@
  001ef	e8 00 00 00 00	 call	 ?Error@@YAPBDPBDZZ	; Error
  001f4	83 c4 14	 add	 esp, 20			; 00000014H
$LN5@SmeltSafet:
; File C:\IAGOS\server\v18\Source\Source\WorldServer\ItemUpgrade.cpp

; 715  : 	pUser->RemoveItem( (BYTE)( pItemProtScr->m_dwObjId ), 1 );

  001f7	8b 85 30 ff ff
	ff		 mov	 eax, DWORD PTR _pItemProtScr$GSCopy$1$[ebp]
  001fd	8b cf		 mov	 ecx, edi
  001ff	6a 01		 push	 1
  00201	0f b6 40 04	 movzx	 eax, BYTE PTR [eax+4]
  00205	50		 push	 eax
  00206	e8 00 00 00 00	 call	 ?RemoveItem@CMover@@QAEXEF@Z ; CMover::RemoveItem
; File C:\IAGOS\server\v18\Source\Source\_Common\Item.h

; 232  : 	int			GetAbilityOption() { return m_nAbilityOption; }

  0020b	8b 73 64	 mov	 esi, DWORD PTR [ebx+100]
; File C:\IAGOS\server\v18\Source\Source\WorldServer\ItemUpgrade.cpp

; 718  : 	DWORD dwProbability = CAccessoryProperty::GetInstance()->GetProbability( pItemMain->GetAbilityOption() );

  0020e	e8 00 00 00 00	 call	 ?GetInstance@CAccessoryProperty@@SAPAV1@XZ ; CAccessoryProperty::GetInstance
; File C:\IAGOS\server\v18\Source\Source\_Common\xUtil.h

; 16   : 	g_next = g_next * 1103515245 + 12345;// + nRandomSeed[ i++ ];

  00213	69 0d 00 00 00
	00 6d 4e c6 41	 imul	 ecx, DWORD PTR ?g_next@@3KA, 1103515245 ; g_next
; File C:\IAGOS\server\v18\Source\Source\WorldServer\ItemUpgrade.cpp

; 718  : 	DWORD dwProbability = CAccessoryProperty::GetInstance()->GetProbability( pItemMain->GetAbilityOption() );

  0021d	8b 74 b0 04	 mov	 esi, DWORD PTR [eax+esi*4+4]
; File C:\IAGOS\server\v18\Source\Source\_Common\xUtil.h

; 22   : 	return  xRand() % num;

  00221	b8 59 17 b7 d1	 mov	 eax, -776530087		; d1b71759H

; 16   : 	g_next = g_next * 1103515245 + 12345;// + nRandomSeed[ i++ ];

  00226	81 c1 39 30 00
	00		 add	 ecx, 12345		; 00003039H

; 22   : 	return  xRand() % num;

  0022c	f7 e1		 mul	 ecx

; 16   : 	g_next = g_next * 1103515245 + 12345;// + nRandomSeed[ i++ ];

  0022e	89 0d 00 00 00
	00		 mov	 DWORD PTR ?g_next@@3KA, ecx ; g_next

; 22   : 	return  xRand() % num;

  00234	c1 ea 0d	 shr	 edx, 13			; 0000000dH
  00237	69 c2 10 27 00
	00		 imul	 eax, edx, 10000
  0023d	2b c8		 sub	 ecx, eax
; File C:\IAGOS\server\v18\Source\Source\WorldServer\ItemUpgrade.cpp

; 720  : 	if( xRandom( 10000 ) > dwProbability )	// ĮŪŲą

  0023f	3b ce		 cmp	 ecx, esi
  00241	8b cf		 mov	 ecx, edi
  00243	0f 86 cc 00 00
	00		 jbe	 $LN6@SmeltSafet

; 721  : 	{
; 722  : 		pUser->AddPlaySound( SND_INF_UPGRADEFAIL );

  00249	6a 0d		 push	 13			; 0000000dH
  0024b	e8 00 00 00 00	 call	 ?AddPlaySound@CUser@@QAEXK@Z ; CUser::AddPlaySound
; File C:\IAGOS\server\v18\Source\Source\_Common\Mover.h

; 1740 : 		if( GetAdjParam(DST_CHRSTATE) & CHS_INVISIBILITY )	// ĖČ╣²┼§ĖĒ╚Ł░Ī ░╔Ę╚┤┬░Ī?

  00250	6a 40		 push	 64			; 00000040H
  00252	8b cf		 mov	 ecx, edi
  00254	e8 00 00 00 00	 call	 ?GetAdjParam@CMover@@QAEHH@Z ; CMover::GetAdjParam
  00259	a9 00 04 00 00	 test	 eax, 1024		; 00000400H
  0025e	75 7f		 jne	 SHORT $LN8@SmeltSafet
; File C:\IAGOS\server\v18\Source\Source\WorldServer\ItemUpgrade.cpp

; 723  : 		if( pUser->IsMode( TRANSPARENT_MODE ) == 0 )

  00260	f6 87 40 02 00
	00 02		 test	 BYTE PTR [edi+576], 2
  00267	75 76		 jne	 SHORT $LN8@SmeltSafet
; File C:\IAGOS\server\v18\Source\Source\_Common\Obj.h

; 215  : 	D3DXVECTOR3		GetPos()	{ return m_vPos; }

  00269	f3 0f 7e 87 60
	01 00 00	 movq	 xmm0, QWORD PTR [edi+352]
; File C:\IAGOS\server\v18\Source\Source\WorldServer\ItemUpgrade.cpp

; 724  : 			g_UserMng.AddCreateSfxObj( (CMover *)pUser, XI_INT_FAIL, pUser->GetPos().x, pUser->GetPos().y, pUser->GetPos().z );

  00271	b9 00 00 00 00	 mov	 ecx, OFFSET ?g_UserMng@@3VCUserMng@@A ; g_UserMng
; File C:\IAGOS\server\v18\Source\Source\_Common\Obj.h

; 215  : 	D3DXVECTOR3		GetPos()	{ return m_vPos; }

  00276	8b 87 68 01 00
	00		 mov	 eax, DWORD PTR [edi+360]
  0027c	66 0f d6 85 24
	ff ff ff	 movq	 QWORD PTR $T5[ebp], xmm0
  00284	f3 0f 7e c0	 movq	 xmm0, xmm0
  00288	66 0f d6 85 18
	ff ff ff	 movq	 QWORD PTR $T3[ebp], xmm0
  00290	f3 0f 7e 87 60
	01 00 00	 movq	 xmm0, QWORD PTR [edi+352]
; File C:\IAGOS\server\v18\Source\Source\WorldServer\ItemUpgrade.cpp

; 724  : 			g_UserMng.AddCreateSfxObj( (CMover *)pUser, XI_INT_FAIL, pUser->GetPos().x, pUser->GetPos().y, pUser->GetPos().z );

  00298	6a 00		 push	 0
  0029a	83 ec 0c	 sub	 esp, 12			; 0000000cH
; File C:\IAGOS\server\v18\Source\Source\_Common\Obj.h

; 215  : 	D3DXVECTOR3		GetPos()	{ return m_vPos; }

  0029d	66 0f d6 85 0c
	ff ff ff	 movq	 QWORD PTR $T1[ebp], xmm0
  002a5	89 85 2c ff ff
	ff		 mov	 DWORD PTR $T5[ebp+8], eax
; File C:\IAGOS\server\v18\Source\Source\WorldServer\ItemUpgrade.cpp

; 724  : 			g_UserMng.AddCreateSfxObj( (CMover *)pUser, XI_INT_FAIL, pUser->GetPos().x, pUser->GetPos().y, pUser->GetPos().z );

  002ab	f3 0f 10 85 2c
	ff ff ff	 movss	 xmm0, DWORD PTR $T5[ebp+8]
  002b3	f3 0f 11 44 24
	08		 movss	 DWORD PTR [esp+8], xmm0
  002b9	f3 0f 10 85 1c
	ff ff ff	 movss	 xmm0, DWORD PTR $T3[ebp+4]
  002c1	f3 0f 11 44 24
	04		 movss	 DWORD PTR [esp+4], xmm0
  002c7	f3 0f 10 85 0c
	ff ff ff	 movss	 xmm0, DWORD PTR $T1[ebp]
  002cf	f3 0f 11 04 24	 movss	 DWORD PTR [esp], xmm0
  002d4	68 b3 06 00 00	 push	 1715			; 000006b3H
  002d9	57		 push	 edi
  002da	e8 00 00 00 00	 call	 ?AddCreateSfxObj@CUserMng@@QAEXPAVCCtrl@@KMMMH@Z ; CUserMng::AddCreateSfxObj
$LN8@SmeltSafet:

; 725  : 
; 726  : 		aLogItem.Action	= "L";
; 727  : 		g_DPSrvr.OnLogItem( aLogItem, pItemMain, pItemMain->m_nItemNum );

  002df	0f bf 43 74	 movsx	 eax, WORD PTR [ebx+116]
  002e3	b9 00 00 00 00	 mov	 ecx, OFFSET ?g_DPSrvr@@3VCDPSrvr@@A ; g_DPSrvr
  002e8	50		 push	 eax
  002e9	53		 push	 ebx
  002ea	8d 85 34 ff ff
	ff		 lea	 eax, DWORD PTR _aLogItem$[ebp]
  002f0	c7 85 34 ff ff
	ff 00 00 00 00	 mov	 DWORD PTR _aLogItem$[ebp], OFFSET ??_C@_01OCOKONAJ@L@
  002fa	50		 push	 eax
  002fb	e8 00 00 00 00	 call	 ?OnLogItem@CDPSrvr@@QAEXAAU_LogItemInfo@@PAVCItemElem@@H@Z ; CDPSrvr::OnLogItem
  00300	5f		 pop	 edi

; 742  : 
; 743  : 		return 1;
; 744  : 	}
; 745  : 	return 0;
; 746  : }

  00301	5e		 pop	 esi
  00302	b0 02		 mov	 al, 2
  00304	5b		 pop	 ebx
  00305	8b 4d fc	 mov	 ecx, DWORD PTR __$ArrayPad$[ebp]
  00308	33 cd		 xor	 ecx, ebp
  0030a	e8 00 00 00 00	 call	 @__security_check_cookie@4
  0030f	8b e5		 mov	 esp, ebp
  00311	5d		 pop	 ebp
  00312	c2 10 00	 ret	 16			; 00000010H
$LN6@SmeltSafet:

; 728  : 
; 729  : 		return 2;
; 730  : 	}
; 731  : 	else	// ╝║░°
; 732  : 	{
; 733  : 		pUser->AddPlaySound( SND_INF_UPGRADESUCCESS );

  00315	6a 0e		 push	 14			; 0000000eH
  00317	e8 00 00 00 00	 call	 ?AddPlaySound@CUser@@QAEXK@Z ; CUser::AddPlaySound
; File C:\IAGOS\server\v18\Source\Source\_Common\Mover.h

; 1740 : 		if( GetAdjParam(DST_CHRSTATE) & CHS_INVISIBILITY )	// ĖČ╣²┼§ĖĒ╚Ł░Ī ░╔Ę╚┤┬░Ī?

  0031c	6a 40		 push	 64			; 00000040H
  0031e	8b cf		 mov	 ecx, edi
  00320	e8 00 00 00 00	 call	 ?GetAdjParam@CMover@@QAEHH@Z ; CMover::GetAdjParam
  00325	a9 00 04 00 00	 test	 eax, 1024		; 00000400H
  0032a	75 7f		 jne	 SHORT $LN9@SmeltSafet
; File C:\IAGOS\server\v18\Source\Source\WorldServer\ItemUpgrade.cpp

; 735  : 		if( pUser->IsMode( TRANSPARENT_MODE ) == 0)

  0032c	f6 87 40 02 00
	00 02		 test	 BYTE PTR [edi+576], 2
  00333	75 76		 jne	 SHORT $LN9@SmeltSafet
; File C:\IAGOS\server\v18\Source\Source\_Common\Obj.h

; 215  : 	D3DXVECTOR3		GetPos()	{ return m_vPos; }

  00335	f3 0f 7e 87 60
	01 00 00	 movq	 xmm0, QWORD PTR [edi+352]
; File C:\IAGOS\server\v18\Source\Source\WorldServer\ItemUpgrade.cpp

; 736  : 			g_UserMng.AddCreateSfxObj( (CMover *)pUser, XI_INT_SUCCESS, pUser->GetPos().x, pUser->GetPos().y, pUser->GetPos().z);

  0033d	b9 00 00 00 00	 mov	 ecx, OFFSET ?g_UserMng@@3VCUserMng@@A ; g_UserMng
; File C:\IAGOS\server\v18\Source\Source\_Common\Obj.h

; 215  : 	D3DXVECTOR3		GetPos()	{ return m_vPos; }

  00342	8b 87 68 01 00
	00		 mov	 eax, DWORD PTR [edi+360]
  00348	66 0f d6 85 0c
	ff ff ff	 movq	 QWORD PTR $T2[ebp], xmm0
  00350	f3 0f 7e c0	 movq	 xmm0, xmm0
  00354	66 0f d6 85 18
	ff ff ff	 movq	 QWORD PTR $T4[ebp], xmm0
  0035c	f3 0f 7e 87 60
	01 00 00	 movq	 xmm0, QWORD PTR [edi+352]
; File C:\IAGOS\server\v18\Source\Source\WorldServer\ItemUpgrade.cpp

; 736  : 			g_UserMng.AddCreateSfxObj( (CMover *)pUser, XI_INT_SUCCESS, pUser->GetPos().x, pUser->GetPos().y, pUser->GetPos().z);

  00364	6a 00		 push	 0
  00366	83 ec 0c	 sub	 esp, 12			; 0000000cH
; File C:\IAGOS\server\v18\Source\Source\_Common\Obj.h

; 215  : 	D3DXVECTOR3		GetPos()	{ return m_vPos; }

  00369	66 0f d6 85 24
	ff ff ff	 movq	 QWORD PTR $T6[ebp], xmm0
  00371	89 85 14 ff ff
	ff		 mov	 DWORD PTR $T2[ebp+8], eax
; File C:\IAGOS\server\v18\Source\Source\WorldServer\ItemUpgrade.cpp

; 736  : 			g_UserMng.AddCreateSfxObj( (CMover *)pUser, XI_INT_SUCCESS, pUser->GetPos().x, pUser->GetPos().y, pUser->GetPos().z);

  00377	f3 0f 10 85 14
	ff ff ff	 movss	 xmm0, DWORD PTR $T2[ebp+8]
  0037f	f3 0f 11 44 24
	08		 movss	 DWORD PTR [esp+8], xmm0
  00385	f3 0f 10 85 1c
	ff ff ff	 movss	 xmm0, DWORD PTR $T4[ebp+4]
  0038d	f3 0f 11 44 24
	04		 movss	 DWORD PTR [esp+4], xmm0
  00393	f3 0f 10 85 24
	ff ff ff	 movss	 xmm0, DWORD PTR $T6[ebp]
  0039b	f3 0f 11 04 24	 movss	 DWORD PTR [esp], xmm0
  003a0	68 b2 06 00 00	 push	 1714			; 000006b2H
  003a5	57		 push	 edi
  003a6	e8 00 00 00 00	 call	 ?AddCreateSfxObj@CUserMng@@QAEXPAVCCtrl@@KMMMH@Z ; CUserMng::AddCreateSfxObj
$LN9@SmeltSafet:

; 737  : 
; 738  : 		pUser->UpdateItem( (BYTE)pItemMain->m_dwObjId, UI_AO,  pItemMain->GetAbilityOption()+1 );

  003ab	8b 43 64	 mov	 eax, DWORD PTR [ebx+100]
  003ae	8b cf		 mov	 ecx, edi
  003b0	6a 00		 push	 0
  003b2	40		 inc	 eax
  003b3	50		 push	 eax
  003b4	0f b6 43 04	 movzx	 eax, BYTE PTR [ebx+4]
  003b8	6a 03		 push	 3
  003ba	50		 push	 eax
  003bb	e8 00 00 00 00	 call	 ?UpdateItem@CMover@@QAEXEDKK@Z ; CMover::UpdateItem

; 739  : 
; 740  : 		aLogItem.Action		= "H";
; 741  : 		g_DPSrvr.OnLogItem( aLogItem, pItemMain, pItemMain->m_nItemNum );

  003c0	0f bf 43 74	 movsx	 eax, WORD PTR [ebx+116]
  003c4	b9 00 00 00 00	 mov	 ecx, OFFSET ?g_DPSrvr@@3VCDPSrvr@@A ; g_DPSrvr
  003c9	50		 push	 eax
  003ca	53		 push	 ebx
  003cb	8d 85 34 ff ff
	ff		 lea	 eax, DWORD PTR _aLogItem$[ebp]
  003d1	c7 85 34 ff ff
	ff 00 00 00 00	 mov	 DWORD PTR _aLogItem$[ebp], OFFSET ??_C@_01IGIGCIAN@H@
  003db	50		 push	 eax
  003dc	e8 00 00 00 00	 call	 ?OnLogItem@CDPSrvr@@QAEXAAU_LogItemInfo@@PAVCItemElem@@H@Z ; CDPSrvr::OnLogItem

; 742  : 
; 743  : 		return 1;
; 744  : 	}
; 745  : 	return 0;
; 746  : }

  003e1	8b 4d fc	 mov	 ecx, DWORD PTR __$ArrayPad$[ebp]
  003e4	b0 01		 mov	 al, 1
  003e6	5f		 pop	 edi
  003e7	5e		 pop	 esi
  003e8	33 cd		 xor	 ecx, ebp
  003ea	5b		 pop	 ebx
  003eb	e8 00 00 00 00	 call	 @__security_check_cookie@4
  003f0	8b e5		 mov	 esp, ebp
  003f2	5d		 pop	 ebp
  003f3	c2 10 00	 ret	 16			; 00000010H
?SmeltSafetyAccessory@CItemUpgrade@@AAEEPAVCUser@@PAVCItemElem@@11@Z ENDP ; CItemUpgrade::SmeltSafetyAccessory
_TEXT	ENDS
; Function compile flags: /Ogtp
; File C:\IAGOS\server\v18\Source\Source\WorldServer\ItemUpgrade.cpp
; File C:\IAGOS\server\v18\Source\Source\_Common\Item.h
; File C:\IAGOS\server\v18\Source\Source\WorldServer\ItemUpgrade.cpp
; File C:\IAGOS\server\v18\Source\Source\_Common\Project.h
; File C:\IAGOS\server\v18\Source\Source\_Common\data.h
; File C:\IAGOS\server\v18\Source\Source\_Common\Project.h
; File C:\IAGOS\server\v18\Source\Source\WorldServer\ItemUpgrade.cpp
; File C:\IAGOS\server\v18\Source\Source\_Common\Item.h
; File C:\IAGOS\server\v18\Source\Source\_Common\Project.h
; File C:\IAGOS\server\v18\Source\Source\_Common\data.h
; File C:\IAGOS\server\v18\Source\Source\_Common\Project.h
; File C:\IAGOS\server\v18\Source\Source\WorldServer\ItemUpgrade.cpp
; File C:\IAGOS\server\v18\Source\Source\_Common\Item.h
; File C:\IAGOS\server\v18\Source\Source\_Common\Project.h
; File C:\IAGOS\server\v18\Source\Source\_Common\data.h
; File C:\IAGOS\server\v18\Source\Source\_Common\Project.h
; File C:\IAGOS\server\v18\Source\Source\WorldServer\ItemUpgrade.cpp
; File C:\IAGOS\server\v18\Source\Source\_Common\xUtil.h
; File C:\IAGOS\server\v18\Source\Source\WorldServer\ItemUpgrade.cpp
; File C:\IAGOS\server\v18\Source\Source\_Common\Mover.h
; File C:\IAGOS\server\v18\Source\Source\WorldServer\ItemUpgrade.cpp
; File C:\IAGOS\server\v18\Source\Source\_Common\Obj.h
; File C:\IAGOS\server\v18\Source\Source\WorldServer\ItemUpgrade.cpp
; File C:\IAGOS\server\v18\Source\Source\_Common\Obj.h
; File C:\IAGOS\server\v18\Source\Source\WorldServer\ItemUpgrade.cpp
; File C:\IAGOS\server\v18\Source\Source\_Common\Obj.h
; File C:\IAGOS\server\v18\Source\Source\WorldServer\ItemUpgrade.cpp
; File C:\IAGOS\server\v18\Source\Source\_Common\Mover.h
; File C:\IAGOS\server\v18\Source\Source\WorldServer\ItemUpgrade.cpp
; File C:\IAGOS\server\v18\Source\Source\_Common\Obj.h
; File C:\IAGOS\server\v18\Source\Source\WorldServer\ItemUpgrade.cpp
; File C:\IAGOS\server\v18\Source\Source\_Common\Obj.h
; File C:\IAGOS\server\v18\Source\Source\WorldServer\ItemUpgrade.cpp
; File C:\IAGOS\server\v18\Source\Source\_Common\Obj.h
; File C:\IAGOS\server\v18\Source\Source\WorldServer\ItemUpgrade.cpp
;	COMDAT ?SmeltSafetyGeneral@CItemUpgrade@@AAEEPAVCUser@@PAVCItemElem@@111@Z
_TEXT	SEGMENT
$T1 = -256						; size = 12
$T2 = -256						; size = 12
$T3 = -244						; size = 12
$T4 = -244						; size = 12
$T5 = -232						; size = 12
$T6 = -232						; size = 12
_pItemMaterial$GSCopy$1$ = -220				; size = 4
_pItemProp$1$ = -216					; size = 4
_pItemProtScr$GSCopy$1$ = -212				; size = 4
_nPercent$1$ = -208					; size = 4
_this$GSCopy$1$ = -208					; size = 4
_aLogItem$ = -204					; size = 200
__$ArrayPad$ = -4					; size = 4
_pUser$ = 8						; size = 4
_pItemMain$ = 12					; size = 4
_pItemMaterial$ = 16					; size = 4
_pItemProtScr$ = 20					; size = 4
_pItemSmeltScr$ = 24					; size = 4
?SmeltSafetyGeneral@CItemUpgrade@@AAEEPAVCUser@@PAVCItemElem@@111@Z PROC ; CItemUpgrade::SmeltSafetyGeneral, COMDAT
; _this$ = ecx

; 567  : {

  00000	55		 push	 ebp
  00001	8b ec		 mov	 ebp, esp
  00003	81 ec 00 01 00
	00		 sub	 esp, 256		; 00000100H
  00009	a1 00 00 00 00	 mov	 eax, DWORD PTR ___security_cookie
  0000e	33 c5		 xor	 eax, ebp
  00010	89 45 fc	 mov	 DWORD PTR __$ArrayPad$[ebp], eax
  00013	8b 45 10	 mov	 eax, DWORD PTR _pItemMaterial$[ebp]
  00016	53		 push	 ebx
  00017	8b 5d 18	 mov	 ebx, DWORD PTR _pItemSmeltScr$[ebp]
  0001a	56		 push	 esi
  0001b	8b 75 08	 mov	 esi, DWORD PTR _pUser$[ebp]
  0001e	57		 push	 edi
  0001f	8b 7d 0c	 mov	 edi, DWORD PTR _pItemMain$[ebp]
  00022	89 85 24 ff ff
	ff		 mov	 DWORD PTR _pItemMaterial$GSCopy$1$[ebp], eax
  00028	8b 45 14	 mov	 eax, DWORD PTR _pItemProtScr$[ebp]
  0002b	89 8d 30 ff ff
	ff		 mov	 DWORD PTR _this$GSCopy$1$[ebp], ecx
; File C:\IAGOS\server\v18\Source\Source\_Common\Item.h

; 230  : 	ItemProp*	GetProp()	{	return prj.GetItemProp( m_dwItemId );	}

  00031	8b 4f 0c	 mov	 ecx, DWORD PTR [edi+12]
; File C:\IAGOS\server\v18\Source\Source\WorldServer\ItemUpgrade.cpp

; 567  : {

  00034	89 85 2c ff ff
	ff		 mov	 DWORD PTR _pItemProtScr$GSCopy$1$[ebp], eax
; File C:\IAGOS\server\v18\Source\Source\_Common\Project.h

; 1389 : 	VERIFY_RANGE_ASSERT( nIndex, 0, m_aPropItem.GetSize(), "GetItemProp range_error", NULL );

  0003a	a1 40 02 00 00	 mov	 eax, DWORD PTR ?prj@@3VCProject@@A+576
  0003f	85 c9		 test	 ecx, ecx
  00041	78 10		 js	 SHORT $LN25@SmeltSafet
  00043	3b c8		 cmp	 ecx, eax
  00045	7d 0c		 jge	 SHORT $LN25@SmeltSafet
; File C:\IAGOS\server\v18\Source\Source\_Common\data.h

; 270  : 	if( dwIndex >= (DWORD)m_nMaxIndex )

  00047	73 20		 jae	 SHORT $LN123@SmeltSafet

; 271  : 		return NULL;
; 272  : 	return (T*) m_apOffset[ dwIndex ];

  00049	a1 30 02 00 00	 mov	 eax, DWORD PTR ?prj@@3VCProject@@A+560
  0004e	8b 04 88	 mov	 eax, DWORD PTR [eax+ecx*4]
; File C:\IAGOS\server\v18\Source\Source\_Common\Project.h

; 1390 : 	return m_aPropItem.GetAt( nIndex ); 

  00051	eb 18		 jmp	 SHORT $LN20@SmeltSafet
$LN25@SmeltSafet:

; 579  : 	LPCTSTR szErr = Error( _T( "%s min:%d, max:%d, index:%d" ), szMsg, nMin, nMax, nIndex ); 

  00053	51		 push	 ecx
  00054	50		 push	 eax
  00055	6a 00		 push	 0
  00057	68 00 00 00 00	 push	 OFFSET ??_C@_0BI@BEIFNGEL@GetItemProp?5range_error@
  0005c	68 00 00 00 00	 push	 OFFSET ??_C@_0BM@HMFGHCP@?$CFs?5min?3?$CFd?0?5max?3?$CFd?0?5index?3?$CFd@
  00061	e8 00 00 00 00	 call	 ?Error@@YAPBDPBDZZ	; Error
  00066	83 c4 14	 add	 esp, 20			; 00000014H
$LN123@SmeltSafet:
; File C:\IAGOS\server\v18\Source\Source\WorldServer\ItemUpgrade.cpp

; 569  : 	if( !CItemElem::IsDiceRefineryAble(pItemMain->GetProp()) )

  00069	33 c0		 xor	 eax, eax
$LN20@SmeltSafet:
  0006b	50		 push	 eax
  0006c	e8 00 00 00 00	 call	 ?IsDiceRefineryAble@CItemElem@@SAHPAUItemProp@@@Z ; CItemElem::IsDiceRefineryAble
  00071	83 c4 04	 add	 esp, 4
  00074	85 c0		 test	 eax, eax
  00076	0f 84 20 04 00
	00		 je	 $LN4@SmeltSafet
; File C:\IAGOS\server\v18\Source\Source\_Common\Item.h

; 230  : 	ItemProp*	GetProp()	{	return prj.GetItemProp( m_dwItemId );	}

  0007c	8b 4f 0c	 mov	 ecx, DWORD PTR [edi+12]
; File C:\IAGOS\server\v18\Source\Source\_Common\Project.h

; 1389 : 	VERIFY_RANGE_ASSERT( nIndex, 0, m_aPropItem.GetSize(), "GetItemProp range_error", NULL );

  0007f	a1 40 02 00 00	 mov	 eax, DWORD PTR ?prj@@3VCProject@@A+576
  00084	85 c9		 test	 ecx, ecx
  00086	78 11		 js	 SHORT $LN39@SmeltSafet
  00088	3b c8		 cmp	 ecx, eax
  0008a	7d 0d		 jge	 SHORT $LN39@SmeltSafet
; File C:\IAGOS\server\v18\Source\Source\_Common\data.h

; 270  : 	if( dwIndex >= (DWORD)m_nMaxIndex )

  0008c	8b 15 30 02 00
	00		 mov	 edx, DWORD PTR ?prj@@3VCProject@@A+560
  00092	73 26		 jae	 SHORT $LN124@SmeltSafet

; 271  : 		return NULL;
; 272  : 	return (T*) m_apOffset[ dwIndex ];

  00094	8b 0c 8a	 mov	 ecx, DWORD PTR [edx+ecx*4]
; File C:\IAGOS\server\v18\Source\Source\_Common\Project.h

; 1390 : 	return m_aPropItem.GetAt( nIndex ); 

  00097	eb 23		 jmp	 SHORT $LN34@SmeltSafet
$LN39@SmeltSafet:

; 579  : 	LPCTSTR szErr = Error( _T( "%s min:%d, max:%d, index:%d" ), szMsg, nMin, nMax, nIndex ); 

  00099	51		 push	 ecx
  0009a	50		 push	 eax
  0009b	6a 00		 push	 0
  0009d	68 00 00 00 00	 push	 OFFSET ??_C@_0BI@BEIFNGEL@GetItemProp?5range_error@
  000a2	68 00 00 00 00	 push	 OFFSET ??_C@_0BM@HMFGHCP@?$CFs?5min?3?$CFd?0?5max?3?$CFd?0?5index?3?$CFd@
  000a7	e8 00 00 00 00	 call	 ?Error@@YAPBDPBDZZ	; Error

; 1389 : 	VERIFY_RANGE_ASSERT( nIndex, 0, m_aPropItem.GetSize(), "GetItemProp range_error", NULL );

  000ac	a1 40 02 00 00	 mov	 eax, DWORD PTR ?prj@@3VCProject@@A+576

; 579  : 	LPCTSTR szErr = Error( _T( "%s min:%d, max:%d, index:%d" ), szMsg, nMin, nMax, nIndex ); 

  000b1	83 c4 14	 add	 esp, 20			; 00000014H

; 1389 : 	VERIFY_RANGE_ASSERT( nIndex, 0, m_aPropItem.GetSize(), "GetItemProp range_error", NULL );

  000b4	8b 15 30 02 00
	00		 mov	 edx, DWORD PTR ?prj@@3VCProject@@A+560
$LN124@SmeltSafet:
; File C:\IAGOS\server\v18\Source\Source\WorldServer\ItemUpgrade.cpp

; 576  : 	if( pItemMain->GetProp()->dwReferStat1 == WEAPON_ULTIMATE || pItemProtScr->GetProp()->dwID != II_SYS_SYS_SCR_SMELPROT )

  000ba	33 c9		 xor	 ecx, ecx
$LN34@SmeltSafet:
  000bc	83 b9 d0 01 00
	00 02		 cmp	 DWORD PTR [ecx+464], 2
  000c3	0f 84 d3 03 00
	00		 je	 $LN4@SmeltSafet
; File C:\IAGOS\server\v18\Source\Source\_Common\Item.h

; 230  : 	ItemProp*	GetProp()	{	return prj.GetItemProp( m_dwItemId );	}

  000c9	8b 8d 2c ff ff
	ff		 mov	 ecx, DWORD PTR _pItemProtScr$GSCopy$1$[ebp]
  000cf	8b 49 0c	 mov	 ecx, DWORD PTR [ecx+12]
; File C:\IAGOS\server\v18\Source\Source\_Common\Project.h

; 1389 : 	VERIFY_RANGE_ASSERT( nIndex, 0, m_aPropItem.GetSize(), "GetItemProp range_error", NULL );

  000d2	85 c9		 test	 ecx, ecx
  000d4	78 0b		 js	 SHORT $LN53@SmeltSafet
  000d6	3b c8		 cmp	 ecx, eax
  000d8	7d 07		 jge	 SHORT $LN53@SmeltSafet
; File C:\IAGOS\server\v18\Source\Source\_Common\data.h

; 270  : 	if( dwIndex >= (DWORD)m_nMaxIndex )

  000da	73 1b		 jae	 SHORT $LN125@SmeltSafet

; 271  : 		return NULL;
; 272  : 	return (T*) m_apOffset[ dwIndex ];

  000dc	8b 04 8a	 mov	 eax, DWORD PTR [edx+ecx*4]
; File C:\IAGOS\server\v18\Source\Source\_Common\Project.h

; 1390 : 	return m_aPropItem.GetAt( nIndex ); 

  000df	eb 18		 jmp	 SHORT $LN48@SmeltSafet
$LN53@SmeltSafet:

; 579  : 	LPCTSTR szErr = Error( _T( "%s min:%d, max:%d, index:%d" ), szMsg, nMin, nMax, nIndex ); 

  000e1	51		 push	 ecx
  000e2	50		 push	 eax
  000e3	6a 00		 push	 0
  000e5	68 00 00 00 00	 push	 OFFSET ??_C@_0BI@BEIFNGEL@GetItemProp?5range_error@
  000ea	68 00 00 00 00	 push	 OFFSET ??_C@_0BM@HMFGHCP@?$CFs?5min?3?$CFd?0?5max?3?$CFd?0?5index?3?$CFd@
  000ef	e8 00 00 00 00	 call	 ?Error@@YAPBDPBDZZ	; Error
  000f4	83 c4 14	 add	 esp, 20			; 00000014H
$LN125@SmeltSafet:
; File C:\IAGOS\server\v18\Source\Source\WorldServer\ItemUpgrade.cpp

; 576  : 	if( pItemMain->GetProp()->dwReferStat1 == WEAPON_ULTIMATE || pItemProtScr->GetProp()->dwID != II_SYS_SYS_SCR_SMELPROT )

  000f7	33 c0		 xor	 eax, eax
$LN48@SmeltSafet:
  000f9	81 38 e0 28 00
	00		 cmp	 DWORD PTR [eax], 10464	; 000028e0H
  000ff	0f 85 97 03 00
	00		 jne	 $LN4@SmeltSafet

; 577  : 	{
; 578  : 		//pUser->AddDefinedText( TID_GAME_NOTEQUALITEM );
; 579  : 		return 0;
; 580  : 	}
; 581  : 
; 582  : #ifdef __NEW_ITEM_VARUNA
; 583  : 	if( pItemMain->GetProp()->dwReferStat1 >= BARUNA_D && pItemMain->GetProp()->dwReferStat1 <= BARUNA_S )

  00105	8b cf		 mov	 ecx, edi
  00107	e8 00 00 00 00	 call	 ?GetPropA@CItemElem@@QAEPAUItemProp@@XZ ; CItemElem::GetPropA
  0010c	83 b8 d0 01 00
	00 04		 cmp	 DWORD PTR [eax+464], 4
  00113	72 14		 jb	 SHORT $LN5@SmeltSafet
  00115	8b cf		 mov	 ecx, edi
  00117	e8 00 00 00 00	 call	 ?GetPropA@CItemElem@@QAEPAUItemProp@@XZ ; CItemElem::GetPropA
  0011c	83 b8 d0 01 00
	00 08		 cmp	 DWORD PTR [eax+464], 8
  00123	0f 86 73 03 00
	00		 jbe	 $LN4@SmeltSafet
$LN5@SmeltSafet:

; 584  : 	{
; 585  : 		return 0;
; 586  : 	}
; 587  : #endif // __NEW_ITEM_VARUNA
; 588  : 
; 589  : 	//	┴”Ę├╝÷─Ī░Ī max─ĪĖ” │čŠ·└╗Č¦ Ė«┼Ž
; 590  : 	if( pItemMain->GetAbilityOption() >= GetMaxGeneralEnchantSize() )

  00129	8b 8d 30 ff ff
	ff		 mov	 ecx, DWORD PTR _this$GSCopy$1$[ebp]
  0012f	8b 47 64	 mov	 eax, DWORD PTR [edi+100]
  00132	3b 41 1c	 cmp	 eax, DWORD PTR [ecx+28]
  00135	7c 15		 jl	 SHORT $LN6@SmeltSafet

; 670  : 
; 671  : 		return 1;
; 672  : 	}
; 673  : 	return 0;
; 674  : }

  00137	5f		 pop	 edi
  00138	5e		 pop	 esi
  00139	b0 03		 mov	 al, 3
  0013b	5b		 pop	 ebx
  0013c	8b 4d fc	 mov	 ecx, DWORD PTR __$ArrayPad$[ebp]
  0013f	33 cd		 xor	 ecx, ebp
  00141	e8 00 00 00 00	 call	 @__security_check_cookie@4
  00146	8b e5		 mov	 esp, ebp
  00148	5d		 pop	 ebp
  00149	c2 14 00	 ret	 20			; 00000014H
$LN6@SmeltSafet:

; 591  : 	{
; 592  : 		//pUser->AddDefinedText( TID_UPGRADE_MAXOVER );
; 593  : 		return 3;
; 594  : 	}
; 595  : 	
; 596  : 	// 1000┤▄└¦└Ū ╝║░° Ų█╝ŠŲ«
; 597  : 	int nPercent = GetGeneralEnchantProb( pItemMain->GetAbilityOption() );

  0014c	50		 push	 eax
  0014d	e8 00 00 00 00	 call	 ?GetGeneralEnchantProb@CItemUpgrade@@QAEHH@Z ; CItemUpgrade::GetGeneralEnchantProb
  00152	89 85 30 ff ff
	ff		 mov	 DWORD PTR _nPercent$1$[ebp], eax

; 598  : 	
; 599  : 	//	┴”Ę├└Ū Ą╬ĘńĖČĖ«Ė” ╗ń┐ļŪ▀┤┘Ėķ
; 600  : 	if( pItemSmeltScr != NULL )

  00158	85 db		 test	 ebx, ebx
  0015a	0f 84 87 00 00
	00		 je	 $LN9@SmeltSafet

; 601  : 	{
; 602  : 		//	┴”Ę├└Ū Ą╬ĘńĖČĖ«░Ī Ė┬┤┬┴÷ ╚«└╬
; 603  : 		if( IsUsableItem( pItemSmeltScr ) && pItemSmeltScr->GetProp()->dwID == II_SYS_SYS_SCR_SMELTING )

  00160	53		 push	 ebx
  00161	e8 00 00 00 00	 call	 ?IsUsableItem@@YAHPAVCItemBase@@@Z ; IsUsableItem
  00166	83 c4 04	 add	 esp, 4
  00169	85 c0		 test	 eax, eax
  0016b	0f 84 2b 03 00
	00		 je	 $LN4@SmeltSafet
  00171	8b cb		 mov	 ecx, ebx
  00173	e8 00 00 00 00	 call	 ?GetPropA@CItemElem@@QAEPAUItemProp@@XZ ; CItemElem::GetPropA
  00178	81 38 e4 28 00
	00		 cmp	 DWORD PTR [eax], 10468	; 000028e4H
  0017e	0f 85 18 03 00
	00		 jne	 $LN4@SmeltSafet

; 604  : 		{
; 605  : 			//	┴”Ę├└Ū Ą╬ĘńĖČĖ« ╗ń┐ļ░Ī┤╔ ╝÷─Ī└╬░Ī
; 606  : 			if( pItemMain->GetAbilityOption() < 7 )

  00184	83 7f 64 07	 cmp	 DWORD PTR [edi+100], 7
  00188	7d 5d		 jge	 SHORT $LN9@SmeltSafet

; 607  : 			{
; 608  : 				nPercent += 1000;

  0018a	81 85 30 ff ff
	ff e8 03 00 00	 add	 DWORD PTR _nPercent$1$[ebp], 1000 ; 000003e8H

; 609  : 				ItemProp* pItemProp = pItemSmeltScr->GetProp();

  00194	8b cb		 mov	 ecx, ebx
  00196	e8 00 00 00 00	 call	 ?GetPropA@CItemElem@@QAEPAUItemProp@@XZ ; CItemElem::GetPropA
  0019b	89 85 28 ff ff
	ff		 mov	 DWORD PTR _pItemProp$1$[ebp], eax

; 610  : 				if( pItemProp)

  001a1	85 c0		 test	 eax, eax
  001a3	74 34		 je	 SHORT $LN11@SmeltSafet

; 611  : 				{
; 612  : 					g_dpDBClient.SendLogSMItemUse( "1", pUser, pItemSmeltScr, pItemProp );

  001a5	68 00 00 00 00	 push	 OFFSET ??_C@_00CNPNBAHC@@
  001aa	50		 push	 eax
  001ab	53		 push	 ebx
  001ac	56		 push	 esi
  001ad	68 00 00 00 00	 push	 OFFSET ??_C@_01HIHLOKLC@1@
  001b2	b9 00 00 00 00	 mov	 ecx, OFFSET ?g_dpDBClient@@3VCDPDatabaseClient@@A ; g_dpDBClient
  001b7	e8 00 00 00 00	 call	 ?SendLogSMItemUse@CDPDatabaseClient@@QAEXPBDPAVCUser@@PAVCItemElem@@PAUItemProp@@0@Z ; CDPDatabaseClient::SendLogSMItemUse

; 613  : 					g_dpDBClient.SendLogSMItemUse( "2", pUser, NULL, pItemProp );

  001bc	68 00 00 00 00	 push	 OFFSET ??_C@_00CNPNBAHC@@
  001c1	ff b5 28 ff ff
	ff		 push	 DWORD PTR _pItemProp$1$[ebp]
  001c7	b9 00 00 00 00	 mov	 ecx, OFFSET ?g_dpDBClient@@3VCDPDatabaseClient@@A ; g_dpDBClient
  001cc	6a 00		 push	 0
  001ce	56		 push	 esi
  001cf	68 00 00 00 00	 push	 OFFSET ??_C@_01FDFGLJHB@2@
  001d4	e8 00 00 00 00	 call	 ?SendLogSMItemUse@CDPDatabaseClient@@QAEXPBDPAVCUser@@PAVCItemElem@@PAUItemProp@@0@Z ; CDPDatabaseClient::SendLogSMItemUse
$LN11@SmeltSafet:

; 614  : 				}
; 615  : 				pUser->RemoveItem( (BYTE)( pItemSmeltScr->m_dwObjId ), 1 );

  001d9	0f b6 43 04	 movzx	 eax, BYTE PTR [ebx+4]
  001dd	8b ce		 mov	 ecx, esi
  001df	6a 01		 push	 1
  001e1	50		 push	 eax
  001e2	e8 00 00 00 00	 call	 ?RemoveItem@CMover@@QAEXEF@Z ; CMover::RemoveItem
$LN9@SmeltSafet:

; 616  : 			}
; 617  : 		}
; 618  : 		//	┴”Ę├└Ū Ą╬ĘńĖČĖ«░Ī ŠŲ┤ęČ¦
; 619  : 		else
; 620  : 			return 0;
; 621  : 	}
; 622  : 
; 623  : 	LogItemInfo aLogItem;

  001e7	8d 8d 34 ff ff
	ff		 lea	 ecx, DWORD PTR _aLogItem$[ebp]
  001ed	e8 00 00 00 00	 call	 ??0_LogItemInfo@@QAE@XZ	; _LogItemInfo::_LogItemInfo

; 624  : 	aLogItem.Action = "N";
; 625  : 	aLogItem.SendName = pUser->GetName();

  001f2	6a 00		 push	 0
  001f4	8b ce		 mov	 ecx, esi
  001f6	c7 85 34 ff ff
	ff 00 00 00 00	 mov	 DWORD PTR _aLogItem$[ebp], OFFSET ??_C@_01NANMIPIL@N@
  00200	e8 00 00 00 00	 call	 ?GetName@CMover@@QAEPBDH@Z ; CMover::GetName

; 626  : 	aLogItem.RecvName = "UPGRADEITEM_SMELTSAFETY";
; 627  : 	aLogItem.WorldId = pUser->GetWorld()->GetID();
; 628  : 	aLogItem.Gold = pUser->GetGold();
; 629  : 	aLogItem.Gold2 = pUser->GetGold();
; 630  : 
; 631  : 	g_DPSrvr.OnLogItem( aLogItem, pItemMaterial, pItemMaterial->m_nItemNum );

  00205	8b 9d 24 ff ff
	ff		 mov	 ebx, DWORD PTR _pItemMaterial$GSCopy$1$[ebp]
  0020b	b9 00 00 00 00	 mov	 ecx, OFFSET ?g_DPSrvr@@3VCDPSrvr@@A ; g_DPSrvr
  00210	89 85 38 ff ff
	ff		 mov	 DWORD PTR _aLogItem$[ebp+4], eax
  00216	8b 86 6c 01 00
	00		 mov	 eax, DWORD PTR [esi+364]
  0021c	c7 85 3c ff ff
	ff 00 00 00 00	 mov	 DWORD PTR _aLogItem$[ebp+8], OFFSET ??_C@_0BI@NMHNGLNA@UPGRADEITEM_SMELTSAFETY@
  00226	8b 00		 mov	 eax, DWORD PTR [eax]
  00228	89 85 40 ff ff
	ff		 mov	 DWORD PTR _aLogItem$[ebp+12], eax
  0022e	8b 86 e0 14 00
	00		 mov	 eax, DWORD PTR [esi+5344]
  00234	89 85 44 ff ff
	ff		 mov	 DWORD PTR _aLogItem$[ebp+16], eax
  0023a	89 85 48 ff ff
	ff		 mov	 DWORD PTR _aLogItem$[ebp+20], eax
  00240	0f bf 43 74	 movsx	 eax, WORD PTR [ebx+116]
  00244	50		 push	 eax
  00245	53		 push	 ebx
  00246	8d 85 34 ff ff
	ff		 lea	 eax, DWORD PTR _aLogItem$[ebp]
  0024c	50		 push	 eax
  0024d	e8 00 00 00 00	 call	 ?OnLogItem@CDPSrvr@@QAEXAAU_LogItemInfo@@PAVCItemElem@@H@Z ; CDPSrvr::OnLogItem

; 632  : 	// ┴”Ę├ŠŲ┼█ ╗Ķ┴” - ╝║░°└╠┤°, ĮŪŲą┤°...
; 633  : 	pUser->RemoveItem( (BYTE)( pItemMaterial->m_dwObjId ), 1 );

  00252	0f b6 43 04	 movzx	 eax, BYTE PTR [ebx+4]
  00256	8b ce		 mov	 ecx, esi
  00258	6a 01		 push	 1
  0025a	50		 push	 eax
  0025b	e8 00 00 00 00	 call	 ?RemoveItem@CMover@@QAEXEF@Z ; CMover::RemoveItem

; 634  : 	//	║Ė╚Ż└Ū Ą╬ĘńĖČĖ« Ę╬▒ū│▓▒µ░═
; 635  : 	ItemProp* pItemProp = pItemProtScr->GetProp();

  00260	8b 8d 2c ff ff
	ff		 mov	 ecx, DWORD PTR _pItemProtScr$GSCopy$1$[ebp]
  00266	e8 00 00 00 00	 call	 ?GetPropA@CItemElem@@QAEPAUItemProp@@XZ ; CItemElem::GetPropA
  0026b	8b d8		 mov	 ebx, eax

; 636  : 	if( pItemProp )

  0026d	85 db		 test	 ebx, ebx
  0026f	74 34		 je	 SHORT $LN12@SmeltSafet

; 637  : 	{
; 638  : 		g_dpDBClient.SendLogSMItemUse( "1", pUser, pItemProtScr, pItemProp );

  00271	68 00 00 00 00	 push	 OFFSET ??_C@_00CNPNBAHC@@
  00276	53		 push	 ebx
  00277	ff b5 2c ff ff
	ff		 push	 DWORD PTR _pItemProtScr$GSCopy$1$[ebp]
  0027d	b9 00 00 00 00	 mov	 ecx, OFFSET ?g_dpDBClient@@3VCDPDatabaseClient@@A ; g_dpDBClient
  00282	56		 push	 esi
  00283	68 00 00 00 00	 push	 OFFSET ??_C@_01HIHLOKLC@1@
  00288	e8 00 00 00 00	 call	 ?SendLogSMItemUse@CDPDatabaseClient@@QAEXPBDPAVCUser@@PAVCItemElem@@PAUItemProp@@0@Z ; CDPDatabaseClient::SendLogSMItemUse

; 639  : 		g_dpDBClient.SendLogSMItemUse( "2", pUser, NULL, pItemProp );

  0028d	68 00 00 00 00	 push	 OFFSET ??_C@_00CNPNBAHC@@
  00292	53		 push	 ebx
  00293	6a 00		 push	 0
  00295	56		 push	 esi
  00296	68 00 00 00 00	 push	 OFFSET ??_C@_01FDFGLJHB@2@
  0029b	b9 00 00 00 00	 mov	 ecx, OFFSET ?g_dpDBClient@@3VCDPDatabaseClient@@A ; g_dpDBClient
  002a0	e8 00 00 00 00	 call	 ?SendLogSMItemUse@CDPDatabaseClient@@QAEXPBDPAVCUser@@PAVCItemElem@@PAUItemProp@@0@Z ; CDPDatabaseClient::SendLogSMItemUse
$LN12@SmeltSafet:

; 640  : 	}
; 641  : 	pUser->RemoveItem( (BYTE)( pItemProtScr->m_dwObjId ), 1 );

  002a5	8b 85 2c ff ff
	ff		 mov	 eax, DWORD PTR _pItemProtScr$GSCopy$1$[ebp]
  002ab	8b ce		 mov	 ecx, esi
  002ad	6a 01		 push	 1
  002af	0f b6 40 04	 movzx	 eax, BYTE PTR [eax+4]
  002b3	50		 push	 eax
  002b4	e8 00 00 00 00	 call	 ?RemoveItem@CMover@@QAEXEF@Z ; CMover::RemoveItem
; File C:\IAGOS\server\v18\Source\Source\_Common\xUtil.h

; 16   : 	g_next = g_next * 1103515245 + 12345;// + nRandomSeed[ i++ ];

  002b9	69 0d 00 00 00
	00 6d 4e c6 41	 imul	 ecx, DWORD PTR ?g_next@@3KA, 1103515245 ; g_next

; 22   : 	return  xRand() % num;

  002c3	b8 59 17 b7 d1	 mov	 eax, -776530087		; d1b71759H

; 16   : 	g_next = g_next * 1103515245 + 12345;// + nRandomSeed[ i++ ];

  002c8	81 c1 39 30 00
	00		 add	 ecx, 12345		; 00003039H

; 22   : 	return  xRand() % num;

  002ce	f7 e1		 mul	 ecx

; 16   : 	g_next = g_next * 1103515245 + 12345;// + nRandomSeed[ i++ ];

  002d0	89 0d 00 00 00
	00		 mov	 DWORD PTR ?g_next@@3KA, ecx ; g_next

; 22   : 	return  xRand() % num;

  002d6	c1 ea 0d	 shr	 edx, 13			; 0000000dH
  002d9	69 c2 10 27 00
	00		 imul	 eax, edx, 10000
  002df	2b c8		 sub	 ecx, eax
; File C:\IAGOS\server\v18\Source\Source\WorldServer\ItemUpgrade.cpp

; 644  : 	if( (int)( xRandom( 10000 ) ) > nPercent )

  002e1	3b 8d 30 ff ff
	ff		 cmp	 ecx, DWORD PTR _nPercent$1$[ebp]
  002e7	8b ce		 mov	 ecx, esi
  002e9	0f 8e cc 00 00
	00		 jle	 $LN13@SmeltSafet

; 645  : 	{
; 646  : 		// ĮŪŲą Ė▐╝╝┴÷ ├ŌĘ┬
; 647  : 		//pUser->AddDefinedText( TID_UPGRADE_FAIL );
; 648  : 		pUser->AddPlaySound( SND_INF_UPGRADEFAIL );

  002ef	6a 0d		 push	 13			; 0000000dH
  002f1	e8 00 00 00 00	 call	 ?AddPlaySound@CUser@@QAEXK@Z ; CUser::AddPlaySound
; File C:\IAGOS\server\v18\Source\Source\_Common\Mover.h

; 1740 : 		if( GetAdjParam(DST_CHRSTATE) & CHS_INVISIBILITY )	// ĖČ╣²┼§ĖĒ╚Ł░Ī ░╔Ę╚┤┬░Ī?

  002f6	6a 40		 push	 64			; 00000040H
  002f8	8b ce		 mov	 ecx, esi
  002fa	e8 00 00 00 00	 call	 ?GetAdjParam@CMover@@QAEHH@Z ; CMover::GetAdjParam
  002ff	a9 00 04 00 00	 test	 eax, 1024		; 00000400H
  00304	75 7f		 jne	 SHORT $LN15@SmeltSafet
; File C:\IAGOS\server\v18\Source\Source\WorldServer\ItemUpgrade.cpp

; 650  : 		if((pUser->IsMode( TRANSPARENT_MODE ) ) == 0)

  00306	f6 86 40 02 00
	00 02		 test	 BYTE PTR [esi+576], 2
  0030d	75 76		 jne	 SHORT $LN15@SmeltSafet
; File C:\IAGOS\server\v18\Source\Source\_Common\Obj.h

; 215  : 	D3DXVECTOR3		GetPos()	{ return m_vPos; }

  0030f	f3 0f 7e 86 60
	01 00 00	 movq	 xmm0, QWORD PTR [esi+352]
; File C:\IAGOS\server\v18\Source\Source\WorldServer\ItemUpgrade.cpp

; 651  : 			g_UserMng.AddCreateSfxObj( (CMover *)pUser, XI_INT_FAIL, pUser->GetPos().x, pUser->GetPos().y, pUser->GetPos().z );

  00317	b9 00 00 00 00	 mov	 ecx, OFFSET ?g_UserMng@@3VCUserMng@@A ; g_UserMng
; File C:\IAGOS\server\v18\Source\Source\_Common\Obj.h

; 215  : 	D3DXVECTOR3		GetPos()	{ return m_vPos; }

  0031c	8b 86 68 01 00
	00		 mov	 eax, DWORD PTR [esi+360]
  00322	66 0f d6 85 18
	ff ff ff	 movq	 QWORD PTR $T5[ebp], xmm0
  0032a	f3 0f 7e c0	 movq	 xmm0, xmm0
  0032e	66 0f d6 85 0c
	ff ff ff	 movq	 QWORD PTR $T3[ebp], xmm0
  00336	f3 0f 7e 86 60
	01 00 00	 movq	 xmm0, QWORD PTR [esi+352]
; File C:\IAGOS\server\v18\Source\Source\WorldServer\ItemUpgrade.cpp

; 651  : 			g_UserMng.AddCreateSfxObj( (CMover *)pUser, XI_INT_FAIL, pUser->GetPos().x, pUser->GetPos().y, pUser->GetPos().z );

  0033e	6a 00		 push	 0
  00340	83 ec 0c	 sub	 esp, 12			; 0000000cH
; File C:\IAGOS\server\v18\Source\Source\_Common\Obj.h

; 215  : 	D3DXVECTOR3		GetPos()	{ return m_vPos; }

  00343	66 0f d6 85 00
	ff ff ff	 movq	 QWORD PTR $T1[ebp], xmm0
  0034b	89 85 20 ff ff
	ff		 mov	 DWORD PTR $T5[ebp+8], eax
; File C:\IAGOS\server\v18\Source\Source\WorldServer\ItemUpgrade.cpp

; 651  : 			g_UserMng.AddCreateSfxObj( (CMover *)pUser, XI_INT_FAIL, pUser->GetPos().x, pUser->GetPos().y, pUser->GetPos().z );

  00351	f3 0f 10 85 20
	ff ff ff	 movss	 xmm0, DWORD PTR $T5[ebp+8]
  00359	f3 0f 11 44 24
	08		 movss	 DWORD PTR [esp+8], xmm0
  0035f	f3 0f 10 85 10
	ff ff ff	 movss	 xmm0, DWORD PTR $T3[ebp+4]
  00367	f3 0f 11 44 24
	04		 movss	 DWORD PTR [esp+4], xmm0
  0036d	f3 0f 10 85 00
	ff ff ff	 movss	 xmm0, DWORD PTR $T1[ebp]
  00375	f3 0f 11 04 24	 movss	 DWORD PTR [esp], xmm0
  0037a	68 b3 06 00 00	 push	 1715			; 000006b3H
  0037f	56		 push	 esi
  00380	e8 00 00 00 00	 call	 ?AddCreateSfxObj@CUserMng@@QAEXPAVCCtrl@@KMMMH@Z ; CUserMng::AddCreateSfxObj
$LN15@SmeltSafet:

; 652  : 		
; 653  : 		aLogItem.Action = "F";
; 654  : 		g_DPSrvr.OnLogItem( aLogItem, pItemMain, pItemMain->m_nItemNum );

  00385	0f bf 47 74	 movsx	 eax, WORD PTR [edi+116]
  00389	b9 00 00 00 00	 mov	 ecx, OFFSET ?g_DPSrvr@@3VCDPSrvr@@A ; g_DPSrvr
  0038e	50		 push	 eax
  0038f	57		 push	 edi
  00390	8d 85 34 ff ff
	ff		 lea	 eax, DWORD PTR _aLogItem$[ebp]
  00396	c7 85 34 ff ff
	ff 00 00 00 00	 mov	 DWORD PTR _aLogItem$[ebp], OFFSET ??_C@_01BIAFAFID@F@
  003a0	50		 push	 eax
  003a1	e8 00 00 00 00	 call	 ?OnLogItem@CDPSrvr@@QAEXAAU_LogItemInfo@@PAVCItemElem@@H@Z ; CDPSrvr::OnLogItem
  003a6	5f		 pop	 edi

; 670  : 
; 671  : 		return 1;
; 672  : 	}
; 673  : 	return 0;
; 674  : }

  003a7	5e		 pop	 esi
  003a8	b0 02		 mov	 al, 2
  003aa	5b		 pop	 ebx
  003ab	8b 4d fc	 mov	 ecx, DWORD PTR __$ArrayPad$[ebp]
  003ae	33 cd		 xor	 ecx, ebp
  003b0	e8 00 00 00 00	 call	 @__security_check_cookie@4
  003b5	8b e5		 mov	 esp, ebp
  003b7	5d		 pop	 ebp
  003b8	c2 14 00	 ret	 20			; 00000014H
$LN13@SmeltSafet:

; 655  : 
; 656  : 		return 2;
; 657  : 	}
; 658  : 	else
; 659  : 	{
; 660  : 		// ╝║░°
; 661  : 		//pUser->AddDefinedText( TID_UPGRADE_SUCCEEFUL );
; 662  : 		pUser->AddPlaySound( SND_INF_UPGRADESUCCESS );

  003bb	6a 0e		 push	 14			; 0000000eH
  003bd	e8 00 00 00 00	 call	 ?AddPlaySound@CUser@@QAEXK@Z ; CUser::AddPlaySound
; File C:\IAGOS\server\v18\Source\Source\_Common\Mover.h

; 1740 : 		if( GetAdjParam(DST_CHRSTATE) & CHS_INVISIBILITY )	// ĖČ╣²┼§ĖĒ╚Ł░Ī ░╔Ę╚┤┬░Ī?

  003c2	6a 40		 push	 64			; 00000040H
  003c4	8b ce		 mov	 ecx, esi
  003c6	e8 00 00 00 00	 call	 ?GetAdjParam@CMover@@QAEHH@Z ; CMover::GetAdjParam
  003cb	a9 00 04 00 00	 test	 eax, 1024		; 00000400H
  003d0	75 7f		 jne	 SHORT $LN16@SmeltSafet
; File C:\IAGOS\server\v18\Source\Source\WorldServer\ItemUpgrade.cpp

; 664  : 		if((pUser->IsMode( TRANSPARENT_MODE ) ) == 0)

  003d2	f6 86 40 02 00
	00 02		 test	 BYTE PTR [esi+576], 2
  003d9	75 76		 jne	 SHORT $LN16@SmeltSafet
; File C:\IAGOS\server\v18\Source\Source\_Common\Obj.h

; 215  : 	D3DXVECTOR3		GetPos()	{ return m_vPos; }

  003db	f3 0f 7e 86 60
	01 00 00	 movq	 xmm0, QWORD PTR [esi+352]
; File C:\IAGOS\server\v18\Source\Source\WorldServer\ItemUpgrade.cpp

; 665  : 			g_UserMng.AddCreateSfxObj( (CMover *)pUser, XI_INT_SUCCESS, pUser->GetPos().x, pUser->GetPos().y, pUser->GetPos().z );

  003e3	b9 00 00 00 00	 mov	 ecx, OFFSET ?g_UserMng@@3VCUserMng@@A ; g_UserMng
; File C:\IAGOS\server\v18\Source\Source\_Common\Obj.h

; 215  : 	D3DXVECTOR3		GetPos()	{ return m_vPos; }

  003e8	8b 86 68 01 00
	00		 mov	 eax, DWORD PTR [esi+360]
  003ee	66 0f d6 85 00
	ff ff ff	 movq	 QWORD PTR $T2[ebp], xmm0
  003f6	f3 0f 7e c0	 movq	 xmm0, xmm0
  003fa	66 0f d6 85 0c
	ff ff ff	 movq	 QWORD PTR $T4[ebp], xmm0
  00402	f3 0f 7e 86 60
	01 00 00	 movq	 xmm0, QWORD PTR [esi+352]
; File C:\IAGOS\server\v18\Source\Source\WorldServer\ItemUpgrade.cpp

; 665  : 			g_UserMng.AddCreateSfxObj( (CMover *)pUser, XI_INT_SUCCESS, pUser->GetPos().x, pUser->GetPos().y, pUser->GetPos().z );

  0040a	6a 00		 push	 0
  0040c	83 ec 0c	 sub	 esp, 12			; 0000000cH
; File C:\IAGOS\server\v18\Source\Source\_Common\Obj.h

; 215  : 	D3DXVECTOR3		GetPos()	{ return m_vPos; }

  0040f	66 0f d6 85 18
	ff ff ff	 movq	 QWORD PTR $T6[ebp], xmm0
  00417	89 85 08 ff ff
	ff		 mov	 DWORD PTR $T2[ebp+8], eax
; File C:\IAGOS\server\v18\Source\Source\WorldServer\ItemUpgrade.cpp

; 665  : 			g_UserMng.AddCreateSfxObj( (CMover *)pUser, XI_INT_SUCCESS, pUser->GetPos().x, pUser->GetPos().y, pUser->GetPos().z );

  0041d	f3 0f 10 85 08
	ff ff ff	 movss	 xmm0, DWORD PTR $T2[ebp+8]
  00425	f3 0f 11 44 24
	08		 movss	 DWORD PTR [esp+8], xmm0
  0042b	f3 0f 10 85 10
	ff ff ff	 movss	 xmm0, DWORD PTR $T4[ebp+4]
  00433	f3 0f 11 44 24
	04		 movss	 DWORD PTR [esp+4], xmm0
  00439	f3 0f 10 85 18
	ff ff ff	 movss	 xmm0, DWORD PTR $T6[ebp]
  00441	f3 0f 11 04 24	 movss	 DWORD PTR [esp], xmm0
  00446	68 b2 06 00 00	 push	 1714			; 000006b2H
  0044b	56		 push	 esi
  0044c	e8 00 00 00 00	 call	 ?AddCreateSfxObj@CUserMng@@QAEXPAVCCtrl@@KMMMH@Z ; CUserMng::AddCreateSfxObj
$LN16@SmeltSafet:

; 666  : 		
; 667  : 		pUser->UpdateItem( (BYTE)pItemMain->m_dwObjId, UI_AO,  pItemMain->GetAbilityOption() + 1 );

  00451	8b 47 64	 mov	 eax, DWORD PTR [edi+100]
  00454	8b ce		 mov	 ecx, esi
  00456	6a 00		 push	 0
  00458	40		 inc	 eax
  00459	50		 push	 eax
  0045a	0f b6 47 04	 movzx	 eax, BYTE PTR [edi+4]
  0045e	6a 03		 push	 3
  00460	50		 push	 eax
  00461	e8 00 00 00 00	 call	 ?UpdateItem@CMover@@QAEXEDKK@Z ; CMover::UpdateItem

; 668  : 		aLogItem.Action = "H";
; 669  : 		g_DPSrvr.OnLogItem( aLogItem, pItemMain, pItemMain->m_nItemNum );

  00466	0f bf 47 74	 movsx	 eax, WORD PTR [edi+116]
  0046a	b9 00 00 00 00	 mov	 ecx, OFFSET ?g_DPSrvr@@3VCDPSrvr@@A ; g_DPSrvr
  0046f	50		 push	 eax
  00470	57		 push	 edi
  00471	8d 85 34 ff ff
	ff		 lea	 eax, DWORD PTR _aLogItem$[ebp]
  00477	c7 85 34 ff ff
	ff 00 00 00 00	 mov	 DWORD PTR _aLogItem$[ebp], OFFSET ??_C@_01IGIGCIAN@H@
  00481	50		 push	 eax
  00482	e8 00 00 00 00	 call	 ?OnLogItem@CDPSrvr@@QAEXAAU_LogItemInfo@@PAVCItemElem@@H@Z ; CDPSrvr::OnLogItem
  00487	5f		 pop	 edi

; 670  : 
; 671  : 		return 1;
; 672  : 	}
; 673  : 	return 0;
; 674  : }

  00488	5e		 pop	 esi
  00489	b0 01		 mov	 al, 1
  0048b	5b		 pop	 ebx
  0048c	8b 4d fc	 mov	 ecx, DWORD PTR __$ArrayPad$[ebp]
  0048f	33 cd		 xor	 ecx, ebp
  00491	e8 00 00 00 00	 call	 @__security_check_cookie@4
  00496	8b e5		 mov	 esp, ebp
  00498	5d		 pop	 ebp
  00499	c2 14 00	 ret	 20			; 00000014H
$LN4@SmeltSafet:
  0049c	8b 4d fc	 mov	 ecx, DWORD PTR __$ArrayPad$[ebp]
  0049f	32 c0		 xor	 al, al
  004a1	5f		 pop	 edi
  004a2	5e		 pop	 esi
  004a3	33 cd		 xor	 ecx, ebp
  004a5	5b		 pop	 ebx
  004a6	e8 00 00 00 00	 call	 @__security_check_cookie@4
  004ab	8b e5		 mov	 esp, ebp
  004ad	5d		 pop	 ebp
  004ae	c2 14 00	 ret	 20			; 00000014H
?SmeltSafetyGeneral@CItemUpgrade@@AAEEPAVCUser@@PAVCItemElem@@111@Z ENDP ; CItemUpgrade::SmeltSafetyGeneral
_TEXT	ENDS
; Function compile flags: /Ogtp
; File C:\IAGOS\server\v18\Source\Source\WorldServer\ItemUpgrade.cpp
; File C:\IAGOS\server\v18\Source\Source\_Common\Project.h
; File C:\IAGOS\server\v18\Source\Source\WorldServer\ItemUpgrade.cpp
; File C:\IAGOS\server\v18\Source\Source\_Common\Item.h
; File C:\IAGOS\server\v18\Source\Source\WorldServer\ItemUpgrade.cpp
; File C:\IAGOS\server\v18\Source\Source\_Common\Item.h
; File C:\IAGOS\server\v18\Source\Source\_Common\Project.h
; File C:\IAGOS\server\v18\Source\Source\_Common\data.h
; File C:\IAGOS\server\v18\Source\Source\_Common\Project.h
; File C:\IAGOS\server\v18\Source\Source\WorldServer\ItemUpgrade.cpp
;	COMDAT ?SmeltSafetyNormal@CItemUpgrade@@AAEEPAVCUser@@PAVCItemElem@@111@Z
_TEXT	SEGMENT
_pUser$ = 8						; size = 4
_pItemMain$ = 12					; size = 4
_pItemMaterial$ = 16					; size = 4
_pItemProtScr$ = 20					; size = 4
_pItemSmeltScr$ = 24					; size = 4
?SmeltSafetyNormal@CItemUpgrade@@AAEEPAVCUser@@PAVCItemElem@@111@Z PROC ; CItemUpgrade::SmeltSafetyNormal, COMDAT
; _this$ = ecx

; 547  : {

  00000	55		 push	 ebp
  00001	8b ec		 mov	 ebp, esp
; File C:\IAGOS\server\v18\Source\Source\_Common\Project.h

; 1389 : 	VERIFY_RANGE_ASSERT( nIndex, 0, m_aPropItem.GetSize(), "GetItemProp range_error", NULL );

  00003	a1 40 02 00 00	 mov	 eax, DWORD PTR ?prj@@3VCProject@@A+576
; File C:\IAGOS\server\v18\Source\Source\WorldServer\ItemUpgrade.cpp

; 547  : {

  00008	56		 push	 esi
; File C:\IAGOS\server\v18\Source\Source\_Common\Item.h

; 230  : 	ItemProp*	GetProp()	{	return prj.GetItemProp( m_dwItemId );	}

  00009	8b 75 10	 mov	 esi, DWORD PTR _pItemMaterial$[ebp]
; File C:\IAGOS\server\v18\Source\Source\WorldServer\ItemUpgrade.cpp

; 547  : {

  0000c	57		 push	 edi
  0000d	8b f9		 mov	 edi, ecx
; File C:\IAGOS\server\v18\Source\Source\_Common\Item.h

; 230  : 	ItemProp*	GetProp()	{	return prj.GetItemProp( m_dwItemId );	}

  0000f	8b 56 0c	 mov	 edx, DWORD PTR [esi+12]
; File C:\IAGOS\server\v18\Source\Source\_Common\Project.h

; 1389 : 	VERIFY_RANGE_ASSERT( nIndex, 0, m_aPropItem.GetSize(), "GetItemProp range_error", NULL );

  00012	85 d2		 test	 edx, edx
  00014	78 10		 js	 SHORT $LN16@SmeltSafet
  00016	3b d0		 cmp	 edx, eax
  00018	7d 0c		 jge	 SHORT $LN16@SmeltSafet
; File C:\IAGOS\server\v18\Source\Source\_Common\data.h

; 270  : 	if( dwIndex >= (DWORD)m_nMaxIndex )

  0001a	73 20		 jae	 SHORT $LN29@SmeltSafet

; 271  : 		return NULL;
; 272  : 	return (T*) m_apOffset[ dwIndex ];

  0001c	a1 30 02 00 00	 mov	 eax, DWORD PTR ?prj@@3VCProject@@A+560
  00021	8b 04 90	 mov	 eax, DWORD PTR [eax+edx*4]
; File C:\IAGOS\server\v18\Source\Source\_Common\Project.h

; 1390 : 	return m_aPropItem.GetAt( nIndex ); 

  00024	eb 18		 jmp	 SHORT $LN11@SmeltSafet
$LN16@SmeltSafet:

; 579  : 	LPCTSTR szErr = Error( _T( "%s min:%d, max:%d, index:%d" ), szMsg, nMin, nMax, nIndex ); 

  00026	52		 push	 edx
  00027	50		 push	 eax
  00028	6a 00		 push	 0
  0002a	68 00 00 00 00	 push	 OFFSET ??_C@_0BI@BEIFNGEL@GetItemProp?5range_error@
  0002f	68 00 00 00 00	 push	 OFFSET ??_C@_0BM@HMFGHCP@?$CFs?5min?3?$CFd?0?5max?3?$CFd?0?5index?3?$CFd@
  00034	e8 00 00 00 00	 call	 ?Error@@YAPBDPBDZZ	; Error
  00039	83 c4 14	 add	 esp, 20			; 00000014H
$LN29@SmeltSafet:
; File C:\IAGOS\server\v18\Source\Source\WorldServer\ItemUpgrade.cpp

; 549  : 	switch( pItemMaterial->GetProp()->dwID )

  0003c	33 c0		 xor	 eax, eax
$LN11@SmeltSafet:
  0003e	8b 00		 mov	 eax, DWORD PTR [eax]
  00040	2d f2 07 00 00	 sub	 eax, 2034		; 000007f2H
  00045	74 2c		 je	 SHORT $LN6@SmeltSafet
  00047	83 e8 01	 sub	 eax, 1
  0004a	74 0d		 je	 SHORT $LN4@SmeltSafet
  0004c	83 e8 2f	 sub	 eax, 47			; 0000002fH
  0004f	74 08		 je	 SHORT $LN4@SmeltSafet

; 559  : 
; 560  : 		default:
; 561  : 			break;
; 562  : 	}
; 563  : 	return 0;

  00051	5f		 pop	 edi
  00052	32 c0		 xor	 al, al

; 564  : }

  00054	5e		 pop	 esi
  00055	5d		 pop	 ebp
  00056	c2 14 00	 ret	 20			; 00000014H
$LN4@SmeltSafet:

; 550  : 	{
; 551  : 		//	┐└Ė«─«─±└ŽČ¦ └Ž╣▌┴”Ę├
; 552  : 		case II_GEN_MAT_ORICHALCUM01:
; 553  : 		case II_GEN_MAT_ORICHALCUM01_1:
; 554  : 			return SmeltSafetyGeneral( pUser, pItemMain, pItemMaterial, pItemProtScr, pItemSmeltScr );

  00059	ff 75 18	 push	 DWORD PTR _pItemSmeltScr$[ebp]
  0005c	8b cf		 mov	 ecx, edi
  0005e	ff 75 14	 push	 DWORD PTR _pItemProtScr$[ebp]
  00061	56		 push	 esi
  00062	ff 75 0c	 push	 DWORD PTR _pItemMain$[ebp]
  00065	ff 75 08	 push	 DWORD PTR _pUser$[ebp]
  00068	e8 00 00 00 00	 call	 ?SmeltSafetyGeneral@CItemUpgrade@@AAEEPAVCUser@@PAVCItemElem@@111@Z ; CItemUpgrade::SmeltSafetyGeneral
  0006d	5f		 pop	 edi

; 564  : }

  0006e	5e		 pop	 esi
  0006f	5d		 pop	 ebp
  00070	c2 14 00	 ret	 20			; 00000014H
$LN6@SmeltSafet:

; 555  : 
; 556  : 		//	║¹│¬┤┬ ┐└Ė«─«─±└ŽČ¦ Š¾┼═Ė┌┐■Ų∙ ┴”Ę├
; 557  : 		case II_GEN_MAT_ORICHALCUM02:
; 558  : 			return prj.m_UltimateWeapon.SmeltSafetyUltimate( pUser, pItemMain, pItemMaterial, pItemProtScr );

  00073	ff 75 14	 push	 DWORD PTR _pItemProtScr$[ebp]
  00076	b9 74 96 0d 00	 mov	 ecx, OFFSET ?prj@@3VCProject@@A+890484
  0007b	56		 push	 esi
  0007c	ff 75 0c	 push	 DWORD PTR _pItemMain$[ebp]
  0007f	ff 75 08	 push	 DWORD PTR _pUser$[ebp]
  00082	e8 00 00 00 00	 call	 ?SmeltSafetyUltimate@CUltimateWeapon@@QAEEPAVCUser@@PAVCItemElem@@11@Z ; CUltimateWeapon::SmeltSafetyUltimate
  00087	5f		 pop	 edi

; 564  : }

  00088	5e		 pop	 esi
  00089	5d		 pop	 ebp
  0008a	c2 14 00	 ret	 20			; 00000014H
?SmeltSafetyNormal@CItemUpgrade@@AAEEPAVCUser@@PAVCItemElem@@111@Z ENDP ; CItemUpgrade::SmeltSafetyNormal
_TEXT	ENDS
; Function compile flags: /Ogtp
; File C:\IAGOS\server\v18\Source\Source\WorldServer\ItemUpgrade.cpp
; File C:\IAGOS\server\v18\Source\Source\_Common\Project.h
; File C:\IAGOS\server\v18\Source\Source\WorldServer\ItemUpgrade.cpp
; File C:\IAGOS\server\v18\Source\Source\_Common\Item.h
; File C:\IAGOS\server\v18\Source\Source\_Common\Project.h
; File C:\IAGOS\server\v18\Source\Source\_Common\data.h
; File C:\IAGOS\server\v18\Source\Source\_Common\Project.h
; File C:\IAGOS\server\v18\Source\Source\WorldServer\ItemUpgrade.cpp
; File C:\IAGOS\server\v18\Source\Source\_Common\Item.h
; File C:\IAGOS\server\v18\Source\Source\_Common\Project.h
; File C:\IAGOS\server\v18\Source\Source\_Common\data.h
; File C:\IAGOS\server\v18\Source\Source\_Common\Project.h
; File C:\IAGOS\server\v18\Source\Source\WorldServer\ItemUpgrade.cpp
; File C:\Program Files\Microsoft Visual Studio\2022\Professional\VC\Tools\MSVC\14.44.35207\include\vector
; File C:\IAGOS\server\v18\Source\Source\WorldServer\ItemUpgrade.cpp
; File C:\IAGOS\server\v18\Source\Source\_Common\xUtil.h
; File C:\IAGOS\server\v18\Source\Source\WorldServer\ItemUpgrade.cpp
; File C:\IAGOS\server\v18\Source\Source\_Common\xUtil.h
; File C:\IAGOS\server\v18\Source\Source\WorldServer\ItemUpgrade.cpp
; File C:\IAGOS\server\v18\Source\Source\_Common\xUtil.h
; File C:\IAGOS\server\v18\Source\Source\WorldServer\ItemUpgrade.cpp
; File C:\IAGOS\server\v18\Source\Source\_Common\Mover.h
; File C:\IAGOS\server\v18\Source\Source\WorldServer\ItemUpgrade.cpp
; File C:\IAGOS\server\v18\Source\Source\_Common\Obj.h
; File C:\IAGOS\server\v18\Source\Source\WorldServer\ItemUpgrade.cpp
; File C:\IAGOS\server\v18\Source\Source\_Common\Obj.h
; File C:\IAGOS\server\v18\Source\Source\WorldServer\ItemUpgrade.cpp
; File C:\IAGOS\server\v18\Source\Source\_Common\Obj.h
; File C:\IAGOS\server\v18\Source\Source\WorldServer\ItemUpgrade.cpp
; File C:\IAGOS\server\v18\Source\Source\_Common\Mover.h
; File C:\IAGOS\server\v18\Source\Source\WorldServer\ItemUpgrade.cpp
; File C:\IAGOS\server\v18\Source\Source\_Common\Obj.h
; File C:\IAGOS\server\v18\Source\Source\WorldServer\ItemUpgrade.cpp
; File C:\IAGOS\server\v18\Source\Source\_Common\Obj.h
; File C:\IAGOS\server\v18\Source\Source\WorldServer\ItemUpgrade.cpp
; File C:\IAGOS\server\v18\Source\Source\_Common\Obj.h
; File C:\IAGOS\server\v18\Source\Source\WorldServer\ItemUpgrade.cpp
;	COMDAT ?RefineCollector@CItemUpgrade@@AAEXPAVCUser@@PAVCItemElem@@1@Z
_TEXT	SEGMENT
$T1 = -244						; size = 12
$T2 = -244						; size = 12
$T3 = -232						; size = 12
$T4 = -232						; size = 12
$T5 = -220						; size = 12
$T6 = -220						; size = 12
_nProb$1$ = -208					; size = 4
_aLogItem$ = -204					; size = 200
__$ArrayPad$ = -4					; size = 4
_pUser$ = 8						; size = 4
_pItemMain$ = 12					; size = 4
_pItemMaterial$ = 16					; size = 4
?RefineCollector@CItemUpgrade@@AAEXPAVCUser@@PAVCItemElem@@1@Z PROC ; CItemUpgrade::RefineCollector, COMDAT
; _this$ = ecx

; 913  : {

  00000	55		 push	 ebp
  00001	8b ec		 mov	 ebp, esp
  00003	81 ec f4 00 00
	00		 sub	 esp, 244		; 000000f4H
  00009	a1 00 00 00 00	 mov	 eax, DWORD PTR ___security_cookie
  0000e	33 c5		 xor	 eax, ebp
  00010	89 45 fc	 mov	 DWORD PTR __$ArrayPad$[ebp], eax
; File C:\IAGOS\server\v18\Source\Source\_Common\Project.h

; 1389 : 	VERIFY_RANGE_ASSERT( nIndex, 0, m_aPropItem.GetSize(), "GetItemProp range_error", NULL );

  00013	a1 40 02 00 00	 mov	 eax, DWORD PTR ?prj@@3VCProject@@A+576
; File C:\IAGOS\server\v18\Source\Source\WorldServer\ItemUpgrade.cpp

; 913  : {

  00018	53		 push	 ebx
  00019	8b 5d 0c	 mov	 ebx, DWORD PTR _pItemMain$[ebp]
  0001c	56		 push	 esi
  0001d	8b 75 08	 mov	 esi, DWORD PTR _pUser$[ebp]
  00020	57		 push	 edi
  00021	8b 7d 10	 mov	 edi, DWORD PTR _pItemMaterial$[ebp]
; File C:\IAGOS\server\v18\Source\Source\_Common\Item.h

; 230  : 	ItemProp*	GetProp()	{	return prj.GetItemProp( m_dwItemId );	}

  00024	8b 4f 0c	 mov	 ecx, DWORD PTR [edi+12]
; File C:\IAGOS\server\v18\Source\Source\_Common\Project.h

; 1389 : 	VERIFY_RANGE_ASSERT( nIndex, 0, m_aPropItem.GetSize(), "GetItemProp range_error", NULL );

  00027	85 c9		 test	 ecx, ecx
  00029	78 11		 js	 SHORT $LN17@RefineColl
  0002b	3b c8		 cmp	 ecx, eax
  0002d	7d 0d		 jge	 SHORT $LN17@RefineColl
; File C:\IAGOS\server\v18\Source\Source\_Common\data.h

; 270  : 	if( dwIndex >= (DWORD)m_nMaxIndex )

  0002f	8b 15 30 02 00
	00		 mov	 edx, DWORD PTR ?prj@@3VCProject@@A+560
  00035	73 26		 jae	 SHORT $LN94@RefineColl

; 271  : 		return NULL;
; 272  : 	return (T*) m_apOffset[ dwIndex ];

  00037	8b 0c 8a	 mov	 ecx, DWORD PTR [edx+ecx*4]
; File C:\IAGOS\server\v18\Source\Source\_Common\Project.h

; 1390 : 	return m_aPropItem.GetAt( nIndex ); 

  0003a	eb 23		 jmp	 SHORT $LN12@RefineColl
$LN17@RefineColl:

; 579  : 	LPCTSTR szErr = Error( _T( "%s min:%d, max:%d, index:%d" ), szMsg, nMin, nMax, nIndex ); 

  0003c	51		 push	 ecx
  0003d	50		 push	 eax
  0003e	6a 00		 push	 0
  00040	68 00 00 00 00	 push	 OFFSET ??_C@_0BI@BEIFNGEL@GetItemProp?5range_error@
  00045	68 00 00 00 00	 push	 OFFSET ??_C@_0BM@HMFGHCP@?$CFs?5min?3?$CFd?0?5max?3?$CFd?0?5index?3?$CFd@
  0004a	e8 00 00 00 00	 call	 ?Error@@YAPBDPBDZZ	; Error

; 1389 : 	VERIFY_RANGE_ASSERT( nIndex, 0, m_aPropItem.GetSize(), "GetItemProp range_error", NULL );

  0004f	a1 40 02 00 00	 mov	 eax, DWORD PTR ?prj@@3VCProject@@A+576

; 579  : 	LPCTSTR szErr = Error( _T( "%s min:%d, max:%d, index:%d" ), szMsg, nMin, nMax, nIndex ); 

  00054	83 c4 14	 add	 esp, 20			; 00000014H

; 1389 : 	VERIFY_RANGE_ASSERT( nIndex, 0, m_aPropItem.GetSize(), "GetItemProp range_error", NULL );

  00057	8b 15 30 02 00
	00		 mov	 edx, DWORD PTR ?prj@@3VCProject@@A+560
$LN94@RefineColl:
; File C:\IAGOS\server\v18\Source\Source\WorldServer\ItemUpgrade.cpp

; 915  : 	if( pItemMaterial->GetProp()->dwID != II_GEN_MAT_MOONSTONE && pItemMaterial->GetProp()->dwID != II_GEN_MAT_MOONSTONE_1 )

  0005d	33 c9		 xor	 ecx, ecx
$LN12@RefineColl:
  0005f	81 39 f4 07 00
	00		 cmp	 DWORD PTR [ecx], 2036	; 000007f4H
  00065	74 51		 je	 SHORT $LN2@RefineColl
; File C:\IAGOS\server\v18\Source\Source\_Common\Item.h

; 230  : 	ItemProp*	GetProp()	{	return prj.GetItemProp( m_dwItemId );	}

  00067	8b 4f 0c	 mov	 ecx, DWORD PTR [edi+12]
; File C:\IAGOS\server\v18\Source\Source\_Common\Project.h

; 1389 : 	VERIFY_RANGE_ASSERT( nIndex, 0, m_aPropItem.GetSize(), "GetItemProp range_error", NULL );

  0006a	85 c9		 test	 ecx, ecx
  0006c	78 0b		 js	 SHORT $LN36@RefineColl
  0006e	3b c8		 cmp	 ecx, eax
  00070	7d 07		 jge	 SHORT $LN36@RefineColl
; File C:\IAGOS\server\v18\Source\Source\_Common\data.h

; 270  : 	if( dwIndex >= (DWORD)m_nMaxIndex )

  00072	73 1b		 jae	 SHORT $LN95@RefineColl

; 271  : 		return NULL;
; 272  : 	return (T*) m_apOffset[ dwIndex ];

  00074	8b 04 8a	 mov	 eax, DWORD PTR [edx+ecx*4]
; File C:\IAGOS\server\v18\Source\Source\_Common\Project.h

; 1390 : 	return m_aPropItem.GetAt( nIndex ); 

  00077	eb 18		 jmp	 SHORT $LN31@RefineColl
$LN36@RefineColl:

; 579  : 	LPCTSTR szErr = Error( _T( "%s min:%d, max:%d, index:%d" ), szMsg, nMin, nMax, nIndex ); 

  00079	51		 push	 ecx
  0007a	50		 push	 eax
  0007b	6a 00		 push	 0
  0007d	68 00 00 00 00	 push	 OFFSET ??_C@_0BI@BEIFNGEL@GetItemProp?5range_error@
  00082	68 00 00 00 00	 push	 OFFSET ??_C@_0BM@HMFGHCP@?$CFs?5min?3?$CFd?0?5max?3?$CFd?0?5index?3?$CFd@
  00087	e8 00 00 00 00	 call	 ?Error@@YAPBDPBDZZ	; Error
  0008c	83 c4 14	 add	 esp, 20			; 00000014H
$LN95@RefineColl:
; File C:\IAGOS\server\v18\Source\Source\WorldServer\ItemUpgrade.cpp

; 915  : 	if( pItemMaterial->GetProp()->dwID != II_GEN_MAT_MOONSTONE && pItemMaterial->GetProp()->dwID != II_GEN_MAT_MOONSTONE_1 )

  0008f	33 c0		 xor	 eax, eax
$LN31@RefineColl:
  00091	81 38 23 08 00
	00		 cmp	 DWORD PTR [eax], 2083	; 00000823H
  00097	74 1f		 je	 SHORT $LN2@RefineColl

; 916  : 	{
; 917  : 		pUser->AddDefinedText( TID_GAME_NOTEQUALITEM );

  00099	68 4d 09 00 00	 push	 2381			; 0000094dH
  0009e	8b ce		 mov	 ecx, esi
  000a0	e8 00 00 00 00	 call	 ?AddDefinedText@CUser@@QAEXH@Z ; CUser::AddDefinedText
  000a5	5f		 pop	 edi

; 962  : }

  000a6	5e		 pop	 esi
  000a7	5b		 pop	 ebx
  000a8	8b 4d fc	 mov	 ecx, DWORD PTR __$ArrayPad$[ebp]
  000ab	33 cd		 xor	 ecx, ebp
  000ad	e8 00 00 00 00	 call	 @__security_check_cookie@4
  000b2	8b e5		 mov	 esp, ebp
  000b4	5d		 pop	 ebp
  000b5	c2 0c 00	 ret	 12			; 0000000cH
$LN2@RefineColl:

; 918  : 		return;
; 919  : 	}
; 920  : 
; 921  : 	CCollectingProperty* pProperty	= CCollectingProperty::GetInstance();

  000b8	e8 00 00 00 00	 call	 ?GetInstance@CCollectingProperty@@SAPAV1@XZ ; CCollectingProperty::GetInstance

; 922  : 	if( pItemMain->GetAbilityOption() >= pProperty->GetMaxCollectorLevel() )

  000bd	8b 53 64	 mov	 edx, DWORD PTR [ebx+100]
; File C:\Program Files\Microsoft Visual Studio\2022\Professional\VC\Tools\MSVC\14.44.35207\include\vector

; 1915 :         return static_cast<size_type>(_My_data._Mylast - _My_data._Myfirst);

  000c0	8b 48 14	 mov	 ecx, DWORD PTR [eax+20]
  000c3	2b 48 10	 sub	 ecx, DWORD PTR [eax+16]
  000c6	c1 f9 02	 sar	 ecx, 2
; File C:\IAGOS\server\v18\Source\Source\WorldServer\ItemUpgrade.cpp

; 922  : 	if( pItemMain->GetAbilityOption() >= pProperty->GetMaxCollectorLevel() )

  000c9	3b d1		 cmp	 edx, ecx
  000cb	7c 1f		 jl	 SHORT $LN3@RefineColl

; 923  : 	{
; 924  : 		pUser->AddDefinedText( TID_GAME_MAX_COLLECTOR_LEVEL );

  000cd	68 32 0d 00 00	 push	 3378			; 00000d32H
  000d2	8b ce		 mov	 ecx, esi
  000d4	e8 00 00 00 00	 call	 ?AddDefinedText@CUser@@QAEXH@Z ; CUser::AddDefinedText
  000d9	5f		 pop	 edi

; 962  : }

  000da	5e		 pop	 esi
  000db	5b		 pop	 ebx
  000dc	8b 4d fc	 mov	 ecx, DWORD PTR __$ArrayPad$[ebp]
  000df	33 cd		 xor	 ecx, ebp
  000e1	e8 00 00 00 00	 call	 @__security_check_cookie@4
  000e6	8b e5		 mov	 esp, ebp
  000e8	5d		 pop	 ebp
  000e9	c2 0c 00	 ret	 12			; 0000000cH
$LN3@RefineColl:

; 925  : 		return;
; 926  : 	}
; 927  : 	
; 928  : 	int nProb	= pProperty->GetEnchantProbability( pItemMain->GetAbilityOption() );

  000ec	52		 push	 edx
  000ed	8b c8		 mov	 ecx, eax
  000ef	e8 00 00 00 00	 call	 ?GetEnchantProbability@CCollectingProperty@@QAEHH@Z ; CCollectingProperty::GetEnchantProbability
  000f4	89 85 30 ff ff
	ff		 mov	 DWORD PTR _nProb$1$[ebp], eax

; 929  : 	if( nProb == 0 )

  000fa	85 c0		 test	 eax, eax
  000fc	0f 84 30 02 00
	00		 je	 $LN1@RefineColl

; 930  : 		return;
; 931  : 
; 932  : 	// log
; 933  : 	LogItemInfo aLogItem;

  00102	8d 8d 34 ff ff
	ff		 lea	 ecx, DWORD PTR _aLogItem$[ebp]
  00108	e8 00 00 00 00	 call	 ??0_LogItemInfo@@QAE@XZ	; _LogItemInfo::_LogItemInfo

; 934  : 	aLogItem.SendName	= pUser->GetName();

  0010d	6a 00		 push	 0
  0010f	8b ce		 mov	 ecx, esi
  00111	e8 00 00 00 00	 call	 ?GetName@CMover@@QAEPBDH@Z ; CMover::GetName
; File C:\IAGOS\server\v18\Source\Source\_Common\xUtil.h

; 16   : 	g_next = g_next * 1103515245 + 12345;// + nRandomSeed[ i++ ];

  00116	69 0d 00 00 00
	00 6d 4e c6 41	 imul	 ecx, DWORD PTR ?g_next@@3KA, 1103515245 ; g_next
; File C:\IAGOS\server\v18\Source\Source\WorldServer\ItemUpgrade.cpp

; 934  : 	aLogItem.SendName	= pUser->GetName();

  00120	89 85 38 ff ff
	ff		 mov	 DWORD PTR _aLogItem$[ebp+4], eax

; 936  : 	aLogItem.WorldId	= pUser->GetWorld()->GetID();

  00126	8b 86 6c 01 00
	00		 mov	 eax, DWORD PTR [esi+364]
  0012c	c7 85 3c ff ff
	ff 00 00 00 00	 mov	 DWORD PTR _aLogItem$[ebp+8], OFFSET ??_C@_0M@FAGCGIOJ@UPGRADEITEM@
; File C:\IAGOS\server\v18\Source\Source\_Common\xUtil.h

; 16   : 	g_next = g_next * 1103515245 + 12345;// + nRandomSeed[ i++ ];

  00136	81 c1 39 30 00
	00		 add	 ecx, 12345		; 00003039H
; File C:\IAGOS\server\v18\Source\Source\WorldServer\ItemUpgrade.cpp

; 936  : 	aLogItem.WorldId	= pUser->GetWorld()->GetID();

  0013c	8b 00		 mov	 eax, DWORD PTR [eax]
  0013e	89 85 40 ff ff
	ff		 mov	 DWORD PTR _aLogItem$[ebp+12], eax

; 937  : 	aLogItem.Gold	= pUser->GetGold();

  00144	8b 86 e0 14 00
	00		 mov	 eax, DWORD PTR [esi+5344]
  0014a	89 85 44 ff ff
	ff		 mov	 DWORD PTR _aLogItem$[ebp+16], eax

; 938  : 	aLogItem.Gold2	= pUser->GetGold();

  00150	89 85 48 ff ff
	ff		 mov	 DWORD PTR _aLogItem$[ebp+20], eax
; File C:\IAGOS\server\v18\Source\Source\_Common\xUtil.h

; 22   : 	return  xRand() % num;

  00156	b8 d3 4d 62 10	 mov	 eax, 274877907		; 10624dd3H
  0015b	f7 e1		 mul	 ecx

; 16   : 	g_next = g_next * 1103515245 + 12345;// + nRandomSeed[ i++ ];

  0015d	89 0d 00 00 00
	00		 mov	 DWORD PTR ?g_next@@3KA, ecx ; g_next

; 22   : 	return  xRand() % num;

  00163	c1 ea 06	 shr	 edx, 6
  00166	69 c2 e8 03 00
	00		 imul	 eax, edx, 1000
  0016c	2b c8		 sub	 ecx, eax
; File C:\IAGOS\server\v18\Source\Source\WorldServer\ItemUpgrade.cpp

; 941  : 	if( (int)( dwRand ) < nProb )

  0016e	3b 8d 30 ff ff
	ff		 cmp	 ecx, DWORD PTR _nProb$1$[ebp]
  00174	8b ce		 mov	 ecx, esi
  00176	0f 8d dd 00 00
	00		 jge	 $LN5@RefineColl

; 942  : 	{
; 943  : 		pUser->AddDefinedText( TID_UPGRADE_SUCCEEFUL );

  0017c	68 9d 08 00 00	 push	 2205			; 0000089dH
  00181	e8 00 00 00 00	 call	 ?AddDefinedText@CUser@@QAEXH@Z ; CUser::AddDefinedText

; 944  : 		pUser->AddPlaySound( SND_INF_UPGRADESUCCESS );

  00186	6a 0e		 push	 14			; 0000000eH
  00188	8b ce		 mov	 ecx, esi
  0018a	e8 00 00 00 00	 call	 ?AddPlaySound@CUser@@QAEXK@Z ; CUser::AddPlaySound
; File C:\IAGOS\server\v18\Source\Source\_Common\Mover.h

; 1740 : 		if( GetAdjParam(DST_CHRSTATE) & CHS_INVISIBILITY )	// ĖČ╣²┼§ĖĒ╚Ł░Ī ░╔Ę╚┤┬░Ī?

  0018f	6a 40		 push	 64			; 00000040H
  00191	8b ce		 mov	 ecx, esi
  00193	e8 00 00 00 00	 call	 ?GetAdjParam@CMover@@QAEHH@Z ; CMover::GetAdjParam
  00198	a9 00 04 00 00	 test	 eax, 1024		; 00000400H
  0019d	75 7f		 jne	 SHORT $LN7@RefineColl
; File C:\IAGOS\server\v18\Source\Source\WorldServer\ItemUpgrade.cpp

; 945  : 		if( pUser->IsMode( TRANSPARENT_MODE ) == 0 )

  0019f	f6 86 40 02 00
	00 02		 test	 BYTE PTR [esi+576], 2
  001a6	75 76		 jne	 SHORT $LN7@RefineColl
; File C:\IAGOS\server\v18\Source\Source\_Common\Obj.h

; 215  : 	D3DXVECTOR3		GetPos()	{ return m_vPos; }

  001a8	f3 0f 7e 86 60
	01 00 00	 movq	 xmm0, QWORD PTR [esi+352]
; File C:\IAGOS\server\v18\Source\Source\WorldServer\ItemUpgrade.cpp

; 946  : 			g_UserMng.AddCreateSfxObj( (CMover *)pUser, XI_INT_SUCCESS, pUser->GetPos().x, pUser->GetPos().y, pUser->GetPos().z );

  001b0	b9 00 00 00 00	 mov	 ecx, OFFSET ?g_UserMng@@3VCUserMng@@A ; g_UserMng
; File C:\IAGOS\server\v18\Source\Source\_Common\Obj.h

; 215  : 	D3DXVECTOR3		GetPos()	{ return m_vPos; }

  001b5	8b 86 68 01 00
	00		 mov	 eax, DWORD PTR [esi+360]
  001bb	66 0f d6 85 24
	ff ff ff	 movq	 QWORD PTR $T5[ebp], xmm0
  001c3	f3 0f 7e c0	 movq	 xmm0, xmm0
  001c7	66 0f d6 85 18
	ff ff ff	 movq	 QWORD PTR $T3[ebp], xmm0
  001cf	f3 0f 7e 86 60
	01 00 00	 movq	 xmm0, QWORD PTR [esi+352]
; File C:\IAGOS\server\v18\Source\Source\WorldServer\ItemUpgrade.cpp

; 946  : 			g_UserMng.AddCreateSfxObj( (CMover *)pUser, XI_INT_SUCCESS, pUser->GetPos().x, pUser->GetPos().y, pUser->GetPos().z );

  001d7	6a 00		 push	 0
  001d9	83 ec 0c	 sub	 esp, 12			; 0000000cH
; File C:\IAGOS\server\v18\Source\Source\_Common\Obj.h

; 215  : 	D3DXVECTOR3		GetPos()	{ return m_vPos; }

  001dc	66 0f d6 85 0c
	ff ff ff	 movq	 QWORD PTR $T1[ebp], xmm0
  001e4	89 85 2c ff ff
	ff		 mov	 DWORD PTR $T5[ebp+8], eax
; File C:\IAGOS\server\v18\Source\Source\WorldServer\ItemUpgrade.cpp

; 946  : 			g_UserMng.AddCreateSfxObj( (CMover *)pUser, XI_INT_SUCCESS, pUser->GetPos().x, pUser->GetPos().y, pUser->GetPos().z );

  001ea	f3 0f 10 85 2c
	ff ff ff	 movss	 xmm0, DWORD PTR $T5[ebp+8]
  001f2	f3 0f 11 44 24
	08		 movss	 DWORD PTR [esp+8], xmm0
  001f8	f3 0f 10 85 1c
	ff ff ff	 movss	 xmm0, DWORD PTR $T3[ebp+4]
  00200	f3 0f 11 44 24
	04		 movss	 DWORD PTR [esp+4], xmm0
  00206	f3 0f 10 85 0c
	ff ff ff	 movss	 xmm0, DWORD PTR $T1[ebp]
  0020e	f3 0f 11 04 24	 movss	 DWORD PTR [esp], xmm0
  00213	68 b2 06 00 00	 push	 1714			; 000006b2H
  00218	56		 push	 esi
  00219	e8 00 00 00 00	 call	 ?AddCreateSfxObj@CUserMng@@QAEXPAVCCtrl@@KMMMH@Z ; CUserMng::AddCreateSfxObj
$LN7@RefineColl:

; 947  : 		pUser->UpdateItem( (BYTE)pItemMain->m_dwObjId, UI_AO,  pItemMain->GetAbilityOption()+1 );

  0021e	8b 43 64	 mov	 eax, DWORD PTR [ebx+100]
  00221	8b ce		 mov	 ecx, esi
  00223	6a 00		 push	 0
  00225	40		 inc	 eax
  00226	50		 push	 eax
  00227	0f b6 43 04	 movzx	 eax, BYTE PTR [ebx+4]
  0022b	6a 03		 push	 3
  0022d	50		 push	 eax
  0022e	e8 00 00 00 00	 call	 ?UpdateItem@CMover@@QAEXEDKK@Z ; CMover::UpdateItem

; 948  : 		aLogItem.Action		= "H";
; 949  : 		g_DPSrvr.OnLogItem( aLogItem, pItemMain, pItemMain->m_nItemNum );

  00233	0f bf 43 74	 movsx	 eax, WORD PTR [ebx+116]
  00237	b9 00 00 00 00	 mov	 ecx, OFFSET ?g_DPSrvr@@3VCDPSrvr@@A ; g_DPSrvr
  0023c	50		 push	 eax
  0023d	53		 push	 ebx
  0023e	8d 85 34 ff ff
	ff		 lea	 eax, DWORD PTR _aLogItem$[ebp]
  00244	c7 85 34 ff ff
	ff 00 00 00 00	 mov	 DWORD PTR _aLogItem$[ebp], OFFSET ??_C@_01IGIGCIAN@H@
  0024e	50		 push	 eax
  0024f	e8 00 00 00 00	 call	 ?OnLogItem@CDPSrvr@@QAEXAAU_LogItemInfo@@PAVCItemElem@@H@Z ; CDPSrvr::OnLogItem

; 950  : 	}

  00254	e9 a2 00 00 00	 jmp	 $LN8@RefineColl
$LN5@RefineColl:

; 951  : 	else
; 952  : 	{
; 953  : 		pUser->AddDefinedText( TID_UPGRADE_FAIL );

  00259	68 9e 08 00 00	 push	 2206			; 0000089eH
  0025e	e8 00 00 00 00	 call	 ?AddDefinedText@CUser@@QAEXH@Z ; CUser::AddDefinedText

; 954  : 		pUser->AddPlaySound( SND_INF_UPGRADEFAIL );

  00263	6a 0d		 push	 13			; 0000000dH
  00265	8b ce		 mov	 ecx, esi
  00267	e8 00 00 00 00	 call	 ?AddPlaySound@CUser@@QAEXK@Z ; CUser::AddPlaySound
; File C:\IAGOS\server\v18\Source\Source\_Common\Mover.h

; 1740 : 		if( GetAdjParam(DST_CHRSTATE) & CHS_INVISIBILITY )	// ĖČ╣²┼§ĖĒ╚Ł░Ī ░╔Ę╚┤┬░Ī?

  0026c	6a 40		 push	 64			; 00000040H
  0026e	8b ce		 mov	 ecx, esi
  00270	e8 00 00 00 00	 call	 ?GetAdjParam@CMover@@QAEHH@Z ; CMover::GetAdjParam
  00275	a9 00 04 00 00	 test	 eax, 1024		; 00000400H
  0027a	75 7f		 jne	 SHORT $LN8@RefineColl
; File C:\IAGOS\server\v18\Source\Source\WorldServer\ItemUpgrade.cpp

; 955  : 		if( pUser->IsMode( TRANSPARENT_MODE ) == 0 )

  0027c	f6 86 40 02 00
	00 02		 test	 BYTE PTR [esi+576], 2
  00283	75 76		 jne	 SHORT $LN8@RefineColl
; File C:\IAGOS\server\v18\Source\Source\_Common\Obj.h

; 215  : 	D3DXVECTOR3		GetPos()	{ return m_vPos; }

  00285	f3 0f 7e 86 60
	01 00 00	 movq	 xmm0, QWORD PTR [esi+352]
; File C:\IAGOS\server\v18\Source\Source\WorldServer\ItemUpgrade.cpp

; 956  : 			g_UserMng.AddCreateSfxObj( (CMover *)pUser, XI_INT_FAIL, pUser->GetPos().x, pUser->GetPos().y, pUser->GetPos().z );

  0028d	b9 00 00 00 00	 mov	 ecx, OFFSET ?g_UserMng@@3VCUserMng@@A ; g_UserMng
; File C:\IAGOS\server\v18\Source\Source\_Common\Obj.h

; 215  : 	D3DXVECTOR3		GetPos()	{ return m_vPos; }

  00292	8b 86 68 01 00
	00		 mov	 eax, DWORD PTR [esi+360]
  00298	66 0f d6 85 0c
	ff ff ff	 movq	 QWORD PTR $T2[ebp], xmm0
  002a0	f3 0f 7e c0	 movq	 xmm0, xmm0
  002a4	66 0f d6 85 18
	ff ff ff	 movq	 QWORD PTR $T4[ebp], xmm0
  002ac	f3 0f 7e 86 60
	01 00 00	 movq	 xmm0, QWORD PTR [esi+352]
; File C:\IAGOS\server\v18\Source\Source\WorldServer\ItemUpgrade.cpp

; 956  : 			g_UserMng.AddCreateSfxObj( (CMover *)pUser, XI_INT_FAIL, pUser->GetPos().x, pUser->GetPos().y, pUser->GetPos().z );

  002b4	6a 00		 push	 0
  002b6	83 ec 0c	 sub	 esp, 12			; 0000000cH
; File C:\IAGOS\server\v18\Source\Source\_Common\Obj.h

; 215  : 	D3DXVECTOR3		GetPos()	{ return m_vPos; }

  002b9	66 0f d6 85 24
	ff ff ff	 movq	 QWORD PTR $T6[ebp], xmm0
  002c1	89 85 14 ff ff
	ff		 mov	 DWORD PTR $T2[ebp+8], eax
; File C:\IAGOS\server\v18\Source\Source\WorldServer\ItemUpgrade.cpp

; 956  : 			g_UserMng.AddCreateSfxObj( (CMover *)pUser, XI_INT_FAIL, pUser->GetPos().x, pUser->GetPos().y, pUser->GetPos().z );

  002c7	f3 0f 10 85 14
	ff ff ff	 movss	 xmm0, DWORD PTR $T2[ebp+8]
  002cf	f3 0f 11 44 24
	08		 movss	 DWORD PTR [esp+8], xmm0
  002d5	f3 0f 10 85 1c
	ff ff ff	 movss	 xmm0, DWORD PTR $T4[ebp+4]
  002dd	f3 0f 11 44 24
	04		 movss	 DWORD PTR [esp+4], xmm0
  002e3	f3 0f 10 85 24
	ff ff ff	 movss	 xmm0, DWORD PTR $T6[ebp]
  002eb	f3 0f 11 04 24	 movss	 DWORD PTR [esp], xmm0
  002f0	68 b3 06 00 00	 push	 1715			; 000006b3H
  002f5	56		 push	 esi
  002f6	e8 00 00 00 00	 call	 ?AddCreateSfxObj@CUserMng@@QAEXPAVCCtrl@@KMMMH@Z ; CUserMng::AddCreateSfxObj
$LN8@RefineColl:

; 957  : 		// log
; 958  : 	}
; 959  : 	aLogItem.Action	= "N";
; 960  : 	g_DPSrvr.OnLogItem( aLogItem, pItemMaterial, pItemMaterial->m_nItemNum );

  002fb	0f bf 47 74	 movsx	 eax, WORD PTR [edi+116]
  002ff	b9 00 00 00 00	 mov	 ecx, OFFSET ?g_DPSrvr@@3VCDPSrvr@@A ; g_DPSrvr
  00304	50		 push	 eax
  00305	57		 push	 edi
  00306	8d 85 34 ff ff
	ff		 lea	 eax, DWORD PTR _aLogItem$[ebp]
  0030c	c7 85 34 ff ff
	ff 00 00 00 00	 mov	 DWORD PTR _aLogItem$[ebp], OFFSET ??_C@_01NANMIPIL@N@
  00316	50		 push	 eax
  00317	e8 00 00 00 00	 call	 ?OnLogItem@CDPSrvr@@QAEXAAU_LogItemInfo@@PAVCItemElem@@H@Z ; CDPSrvr::OnLogItem

; 961  : 	pUser->UpdateItem( (BYTE)pItemMaterial->m_dwObjId, UI_NUM, pItemMaterial->m_nItemNum - 1 );

  0031c	0f bf 47 74	 movsx	 eax, WORD PTR [edi+116]
  00320	8b ce		 mov	 ecx, esi
  00322	6a 00		 push	 0
  00324	48		 dec	 eax
  00325	50		 push	 eax
  00326	0f b6 47 04	 movzx	 eax, BYTE PTR [edi+4]
  0032a	6a 00		 push	 0
  0032c	50		 push	 eax
  0032d	e8 00 00 00 00	 call	 ?UpdateItem@CMover@@QAEXEDKK@Z ; CMover::UpdateItem
$LN1@RefineColl:

; 962  : }

  00332	8b 4d fc	 mov	 ecx, DWORD PTR __$ArrayPad$[ebp]
  00335	5f		 pop	 edi
  00336	5e		 pop	 esi
  00337	33 cd		 xor	 ecx, ebp
  00339	5b		 pop	 ebx
  0033a	e8 00 00 00 00	 call	 @__security_check_cookie@4
  0033f	8b e5		 mov	 esp, ebp
  00341	5d		 pop	 ebp
  00342	c2 0c 00	 ret	 12			; 0000000cH
?RefineCollector@CItemUpgrade@@AAEXPAVCUser@@PAVCItemElem@@1@Z ENDP ; CItemUpgrade::RefineCollector
_TEXT	ENDS
; Function compile flags: /Ogtp
; File C:\IAGOS\server\v18\Source\Source\WorldServer\ItemUpgrade.cpp
; File C:\IAGOS\server\v18\Source\Source\_Common\Project.h
; File C:\IAGOS\server\v18\Source\Source\WorldServer\ItemUpgrade.cpp
; File C:\IAGOS\server\v18\Source\Source\_Common\Item.h
; File C:\IAGOS\server\v18\Source\Source\WorldServer\ItemUpgrade.cpp
; File C:\IAGOS\server\v18\Source\Source\_Common\Project.h
; File C:\IAGOS\server\v18\Source\Source\_Common\data.h
; File C:\IAGOS\server\v18\Source\Source\_Common\Project.h
; File C:\IAGOS\server\v18\Source\Source\WorldServer\ItemUpgrade.cpp
; File C:\IAGOS\server\v18\Source\Source\_Common\Item.h
; File C:\IAGOS\server\v18\Source\Source\_Common\Project.h
; File C:\IAGOS\server\v18\Source\Source\_Common\data.h
; File C:\IAGOS\server\v18\Source\Source\_Common\Project.h
; File C:\IAGOS\server\v18\Source\Source\WorldServer\ItemUpgrade.cpp
; File C:\IAGOS\server\v18\Source\Source\_Common\Project.h
; File C:\IAGOS\server\v18\Source\Source\_Common\data.h
; File C:\IAGOS\server\v18\Source\Source\WorldServer\ItemUpgrade.cpp
; File C:\IAGOS\server\v18\Source\Source\_Common\xUtil.h
; File C:\IAGOS\server\v18\Source\Source\WorldServer\ItemUpgrade.cpp
; File C:\IAGOS\server\v18\Source\Source\_Common\Mover.h
; File C:\IAGOS\server\v18\Source\Source\WorldServer\ItemUpgrade.cpp
; File C:\IAGOS\server\v18\Source\Source\_Common\Obj.h
; File C:\IAGOS\server\v18\Source\Source\WorldServer\ItemUpgrade.cpp
; File C:\IAGOS\server\v18\Source\Source\_Common\Obj.h
; File C:\IAGOS\server\v18\Source\Source\WorldServer\ItemUpgrade.cpp
; File C:\IAGOS\server\v18\Source\Source\_Common\Obj.h
; File C:\IAGOS\server\v18\Source\Source\WorldServer\ItemUpgrade.cpp
; File C:\IAGOS\server\v18\Source\Source\_Common\Mover.h
; File C:\IAGOS\server\v18\Source\Source\WorldServer\ItemUpgrade.cpp
; File C:\IAGOS\server\v18\Source\Source\_Common\Obj.h
; File C:\IAGOS\server\v18\Source\Source\WorldServer\ItemUpgrade.cpp
; File C:\IAGOS\server\v18\Source\Source\_Common\Obj.h
; File C:\IAGOS\server\v18\Source\Source\WorldServer\ItemUpgrade.cpp
; File C:\IAGOS\server\v18\Source\Source\_Common\Obj.h
; File C:\IAGOS\server\v18\Source\Source\WorldServer\ItemUpgrade.cpp
;	COMDAT ?RefineAccessory@CItemUpgrade@@AAEXPAVCUser@@PAVCItemElem@@1@Z
_TEXT	SEGMENT
$T1 = -248						; size = 12
$T2 = -248						; size = 12
$T3 = -236						; size = 12
$T4 = -236						; size = 12
$T5 = -224						; size = 12
$T6 = -224						; size = 12
_dwProbability$1$ = -212				; size = 4
_pItemMaterial$GSCopy$1$ = -208				; size = 4
_aLogItem$ = -204					; size = 200
__$ArrayPad$ = -4					; size = 4
_pUser$ = 8						; size = 4
_pItemMain$ = 12					; size = 4
_pItemMaterial$ = 16					; size = 4
?RefineAccessory@CItemUpgrade@@AAEXPAVCUser@@PAVCItemElem@@1@Z PROC ; CItemUpgrade::RefineAccessory, COMDAT
; _this$ = ecx

; 844  : {

  00000	55		 push	 ebp
  00001	8b ec		 mov	 ebp, esp
  00003	81 ec f8 00 00
	00		 sub	 esp, 248		; 000000f8H
  00009	a1 00 00 00 00	 mov	 eax, DWORD PTR ___security_cookie
  0000e	33 c5		 xor	 eax, ebp
  00010	89 45 fc	 mov	 DWORD PTR __$ArrayPad$[ebp], eax
  00013	8b 55 10	 mov	 edx, DWORD PTR _pItemMaterial$[ebp]
; File C:\IAGOS\server\v18\Source\Source\_Common\Project.h

; 1389 : 	VERIFY_RANGE_ASSERT( nIndex, 0, m_aPropItem.GetSize(), "GetItemProp range_error", NULL );

  00016	a1 40 02 00 00	 mov	 eax, DWORD PTR ?prj@@3VCProject@@A+576
; File C:\IAGOS\server\v18\Source\Source\WorldServer\ItemUpgrade.cpp

; 844  : {

  0001b	53		 push	 ebx
  0001c	8b 5d 0c	 mov	 ebx, DWORD PTR _pItemMain$[ebp]
; File C:\IAGOS\server\v18\Source\Source\_Common\Item.h

; 230  : 	ItemProp*	GetProp()	{	return prj.GetItemProp( m_dwItemId );	}

  0001f	8b 4a 0c	 mov	 ecx, DWORD PTR [edx+12]
; File C:\IAGOS\server\v18\Source\Source\WorldServer\ItemUpgrade.cpp

; 844  : {

  00022	89 95 30 ff ff
	ff		 mov	 DWORD PTR _pItemMaterial$GSCopy$1$[ebp], edx
  00028	56		 push	 esi
  00029	57		 push	 edi
  0002a	8b 7d 08	 mov	 edi, DWORD PTR _pUser$[ebp]
; File C:\IAGOS\server\v18\Source\Source\_Common\Project.h

; 1389 : 	VERIFY_RANGE_ASSERT( nIndex, 0, m_aPropItem.GetSize(), "GetItemProp range_error", NULL );

  0002d	85 c9		 test	 ecx, ecx
  0002f	78 11		 js	 SHORT $LN20@RefineAcce
  00031	3b c8		 cmp	 ecx, eax
  00033	7d 0d		 jge	 SHORT $LN20@RefineAcce
; File C:\IAGOS\server\v18\Source\Source\_Common\data.h

; 270  : 	if( dwIndex >= (DWORD)m_nMaxIndex )

  00035	8b 35 30 02 00
	00		 mov	 esi, DWORD PTR ?prj@@3VCProject@@A+560
  0003b	73 2c		 jae	 SHORT $LN111@RefineAcce

; 272  : 	return (T*) m_apOffset[ dwIndex ];

  0003d	8b 0c 8e	 mov	 ecx, DWORD PTR [esi+ecx*4]
; File C:\IAGOS\server\v18\Source\Source\_Common\Project.h

; 1390 : 	return m_aPropItem.GetAt( nIndex ); 

  00040	eb 29		 jmp	 SHORT $LN15@RefineAcce
$LN20@RefineAcce:

; 579  : 	LPCTSTR szErr = Error( _T( "%s min:%d, max:%d, index:%d" ), szMsg, nMin, nMax, nIndex ); 

  00042	51		 push	 ecx
  00043	50		 push	 eax
  00044	6a 00		 push	 0
  00046	68 00 00 00 00	 push	 OFFSET ??_C@_0BI@BEIFNGEL@GetItemProp?5range_error@
  0004b	68 00 00 00 00	 push	 OFFSET ??_C@_0BM@HMFGHCP@?$CFs?5min?3?$CFd?0?5max?3?$CFd?0?5index?3?$CFd@
  00050	e8 00 00 00 00	 call	 ?Error@@YAPBDPBDZZ	; Error

; 1389 : 	VERIFY_RANGE_ASSERT( nIndex, 0, m_aPropItem.GetSize(), "GetItemProp range_error", NULL );

  00055	a1 40 02 00 00	 mov	 eax, DWORD PTR ?prj@@3VCProject@@A+576

; 579  : 	LPCTSTR szErr = Error( _T( "%s min:%d, max:%d, index:%d" ), szMsg, nMin, nMax, nIndex ); 

  0005a	83 c4 14	 add	 esp, 20			; 00000014H

; 1389 : 	VERIFY_RANGE_ASSERT( nIndex, 0, m_aPropItem.GetSize(), "GetItemProp range_error", NULL );

  0005d	8b 35 30 02 00
	00		 mov	 esi, DWORD PTR ?prj@@3VCProject@@A+560
  00063	8b 95 30 ff ff
	ff		 mov	 edx, DWORD PTR _pItemMaterial$GSCopy$1$[ebp]
$LN111@RefineAcce:
; File C:\IAGOS\server\v18\Source\Source\WorldServer\ItemUpgrade.cpp

; 846  : 	if( pItemMaterial->GetProp()->dwID != II_GEN_MAT_MOONSTONE && pItemMaterial->GetProp()->dwID != II_GEN_MAT_MOONSTONE_1 )

  00069	33 c9		 xor	 ecx, ecx
$LN15@RefineAcce:
  0006b	81 39 f4 07 00
	00		 cmp	 DWORD PTR [ecx], 2036	; 000007f4H
  00071	74 51		 je	 SHORT $LN2@RefineAcce
; File C:\IAGOS\server\v18\Source\Source\_Common\Item.h

; 230  : 	ItemProp*	GetProp()	{	return prj.GetItemProp( m_dwItemId );	}

  00073	8b 4a 0c	 mov	 ecx, DWORD PTR [edx+12]
; File C:\IAGOS\server\v18\Source\Source\_Common\Project.h

; 1389 : 	VERIFY_RANGE_ASSERT( nIndex, 0, m_aPropItem.GetSize(), "GetItemProp range_error", NULL );

  00076	85 c9		 test	 ecx, ecx
  00078	78 0b		 js	 SHORT $LN34@RefineAcce
  0007a	3b c8		 cmp	 ecx, eax
  0007c	7d 07		 jge	 SHORT $LN34@RefineAcce
; File C:\IAGOS\server\v18\Source\Source\_Common\data.h

; 270  : 	if( dwIndex >= (DWORD)m_nMaxIndex )

  0007e	73 1b		 jae	 SHORT $LN112@RefineAcce

; 272  : 	return (T*) m_apOffset[ dwIndex ];

  00080	8b 04 8e	 mov	 eax, DWORD PTR [esi+ecx*4]
; File C:\IAGOS\server\v18\Source\Source\_Common\Project.h

; 1390 : 	return m_aPropItem.GetAt( nIndex ); 

  00083	eb 18		 jmp	 SHORT $LN29@RefineAcce
$LN34@RefineAcce:

; 579  : 	LPCTSTR szErr = Error( _T( "%s min:%d, max:%d, index:%d" ), szMsg, nMin, nMax, nIndex ); 

  00085	51		 push	 ecx
  00086	50		 push	 eax
  00087	6a 00		 push	 0
  00089	68 00 00 00 00	 push	 OFFSET ??_C@_0BI@BEIFNGEL@GetItemProp?5range_error@
  0008e	68 00 00 00 00	 push	 OFFSET ??_C@_0BM@HMFGHCP@?$CFs?5min?3?$CFd?0?5max?3?$CFd?0?5index?3?$CFd@
  00093	e8 00 00 00 00	 call	 ?Error@@YAPBDPBDZZ	; Error
  00098	83 c4 14	 add	 esp, 20			; 00000014H
$LN112@RefineAcce:
; File C:\IAGOS\server\v18\Source\Source\WorldServer\ItemUpgrade.cpp

; 846  : 	if( pItemMaterial->GetProp()->dwID != II_GEN_MAT_MOONSTONE && pItemMaterial->GetProp()->dwID != II_GEN_MAT_MOONSTONE_1 )

  0009b	33 c0		 xor	 eax, eax
$LN29@RefineAcce:
  0009d	81 38 23 08 00
	00		 cmp	 DWORD PTR [eax], 2083	; 00000823H
  000a3	74 1f		 je	 SHORT $LN2@RefineAcce

; 847  : 	{
; 848  : 		pUser->AddDefinedText( TID_GAME_NOTEQUALITEM );

  000a5	68 4d 09 00 00	 push	 2381			; 0000094dH
  000aa	8b cf		 mov	 ecx, edi
  000ac	e8 00 00 00 00	 call	 ?AddDefinedText@CUser@@QAEXH@Z ; CUser::AddDefinedText
  000b1	5f		 pop	 edi

; 910  : }

  000b2	5e		 pop	 esi
  000b3	5b		 pop	 ebx
  000b4	8b 4d fc	 mov	 ecx, DWORD PTR __$ArrayPad$[ebp]
  000b7	33 cd		 xor	 ecx, ebp
  000b9	e8 00 00 00 00	 call	 @__security_check_cookie@4
  000be	8b e5		 mov	 esp, ebp
  000c0	5d		 pop	 ebp
  000c1	c2 0c 00	 ret	 12			; 0000000cH
$LN2@RefineAcce:

; 849  : 		return;
; 850  : 	}
; 851  : 	if( pItemMain->GetAbilityOption() >= MAX_AAO )	// 20

  000c4	83 7b 64 14	 cmp	 DWORD PTR [ebx+100], 20	; 00000014H
  000c8	7c 1f		 jl	 SHORT $LN3@RefineAcce

; 852  : 	{
; 853  : 		pUser->AddDefinedText( TID_GAME_ACCESSORY_MAX_AAO );

  000ca	68 52 0d 00 00	 push	 3410			; 00000d52H
  000cf	8b cf		 mov	 ecx, edi
  000d1	e8 00 00 00 00	 call	 ?AddDefinedText@CUser@@QAEXH@Z ; CUser::AddDefinedText
  000d6	5f		 pop	 edi

; 910  : }

  000d7	5e		 pop	 esi
  000d8	5b		 pop	 ebx
  000d9	8b 4d fc	 mov	 ecx, DWORD PTR __$ArrayPad$[ebp]
  000dc	33 cd		 xor	 ecx, ebp
  000de	e8 00 00 00 00	 call	 @__security_check_cookie@4
  000e3	8b e5		 mov	 esp, ebp
  000e5	5d		 pop	 ebp
  000e6	c2 0c 00	 ret	 12			; 0000000cH
$LN3@RefineAcce:

; 854  : 		return;
; 855  : 	}
; 856  : 
; 857  : 	// log
; 858  : 	LogItemInfo aLogItem;

  000e9	8d 8d 34 ff ff
	ff		 lea	 ecx, DWORD PTR _aLogItem$[ebp]
  000ef	e8 00 00 00 00	 call	 ??0_LogItemInfo@@QAE@XZ	; _LogItemInfo::_LogItemInfo

; 859  : 	aLogItem.SendName	= pUser->GetName();

  000f4	6a 00		 push	 0
  000f6	8b cf		 mov	 ecx, edi
  000f8	e8 00 00 00 00	 call	 ?GetName@CMover@@QAEPBDH@Z ; CMover::GetName

; 860  : 	aLogItem.RecvName	= "UPGRADEITEM";
; 861  : 	aLogItem.WorldId	= pUser->GetWorld()->GetID();
; 862  : 	aLogItem.Gold	= pUser->GetGold();
; 863  : 	aLogItem.Gold2	= pUser->GetGold();
; 864  : 
; 865  : 	DWORD dwProbability		= CAccessoryProperty::GetInstance()->GetProbability( pItemMain->GetAbilityOption() );

  000fd	8b 73 64	 mov	 esi, DWORD PTR [ebx+100]
  00100	89 85 38 ff ff
	ff		 mov	 DWORD PTR _aLogItem$[ebp+4], eax
  00106	8b 87 6c 01 00
	00		 mov	 eax, DWORD PTR [edi+364]
  0010c	c7 85 3c ff ff
	ff 00 00 00 00	 mov	 DWORD PTR _aLogItem$[ebp+8], OFFSET ??_C@_0M@FAGCGIOJ@UPGRADEITEM@
  00116	8b 00		 mov	 eax, DWORD PTR [eax]
  00118	89 85 40 ff ff
	ff		 mov	 DWORD PTR _aLogItem$[ebp+12], eax
  0011e	8b 87 e0 14 00
	00		 mov	 eax, DWORD PTR [edi+5344]
  00124	89 85 44 ff ff
	ff		 mov	 DWORD PTR _aLogItem$[ebp+16], eax
  0012a	89 85 48 ff ff
	ff		 mov	 DWORD PTR _aLogItem$[ebp+20], eax
  00130	e8 00 00 00 00	 call	 ?GetInstance@CAccessoryProperty@@SAPAV1@XZ ; CAccessoryProperty::GetInstance

; 866  : 	// Šū╝╝╝ŁĖ« ║Ė╚Ż└Ū Ą╬ĘńĖČĖ«
; 867  : 	BOOL bSmelprot	= FALSE;
; 868  : 	if( pUser->HasBuff( BUFF_ITEM, II_SYS_SYS_SCR_SMELPROT4 ) )

  00135	68 69 67 00 00	 push	 26473			; 00006769H
  0013a	8b cf		 mov	 ecx, edi
  0013c	8b 44 b0 04	 mov	 eax, DWORD PTR [eax+esi*4+4]
  00140	33 f6		 xor	 esi, esi
  00142	56		 push	 esi
  00143	89 85 2c ff ff
	ff		 mov	 DWORD PTR _dwProbability$1$[ebp], eax
  00149	e8 00 00 00 00	 call	 ?HasBuff@CMover@@QAEHGG@Z ; CMover::HasBuff
  0014e	85 c0		 test	 eax, eax
  00150	74 68		 je	 SHORT $LN5@RefineAcce

; 869  : 	{
; 870  : 		bSmelprot	= TRUE;
; 871  : 		pUser->RemoveBuff( BUFF_ITEM, II_SYS_SYS_SCR_SMELPROT4 );

  00152	68 69 67 00 00	 push	 26473			; 00006769H
  00157	6a 00		 push	 0
  00159	8b cf		 mov	 ecx, edi
  0015b	be 01 00 00 00	 mov	 esi, 1
  00160	e8 00 00 00 00	 call	 ?RemoveBuff@CMover@@QAEXGG@Z ; CMover::RemoveBuff
; File C:\IAGOS\server\v18\Source\Source\_Common\Project.h

; 1389 : 	VERIFY_RANGE_ASSERT( nIndex, 0, m_aPropItem.GetSize(), "GetItemProp range_error", NULL );

  00165	a1 40 02 00 00	 mov	 eax, DWORD PTR ?prj@@3VCProject@@A+576
  0016a	3d 69 67 00 00	 cmp	 eax, 26473		; 00006769H
  0016f	7f 1c		 jg	 SHORT $LN48@RefineAcce

; 579  : 	LPCTSTR szErr = Error( _T( "%s min:%d, max:%d, index:%d" ), szMsg, nMin, nMax, nIndex ); 

  00171	68 69 67 00 00	 push	 26473			; 00006769H
  00176	50		 push	 eax
  00177	6a 00		 push	 0
  00179	68 00 00 00 00	 push	 OFFSET ??_C@_0BI@BEIFNGEL@GetItemProp?5range_error@
  0017e	68 00 00 00 00	 push	 OFFSET ??_C@_0BM@HMFGHCP@?$CFs?5min?3?$CFd?0?5max?3?$CFd?0?5index?3?$CFd@
  00183	e8 00 00 00 00	 call	 ?Error@@YAPBDPBDZZ	; Error
  00188	83 c4 14	 add	 esp, 20			; 00000014H

; 1389 : 	VERIFY_RANGE_ASSERT( nIndex, 0, m_aPropItem.GetSize(), "GetItemProp range_error", NULL );

  0018b	eb 2d		 jmp	 SHORT $LN5@RefineAcce
$LN48@RefineAcce:
; File C:\IAGOS\server\v18\Source\Source\_Common\data.h

; 270  : 	if( dwIndex >= (DWORD)m_nMaxIndex )

  0018d	77 04		 ja	 SHORT $LN57@RefineAcce

; 271  : 		return NULL;

  0018f	33 c0		 xor	 eax, eax
  00191	eb 0b		 jmp	 SHORT $LN56@RefineAcce
$LN57@RefineAcce:

; 272  : 	return (T*) m_apOffset[ dwIndex ];

  00193	a1 30 02 00 00	 mov	 eax, DWORD PTR ?prj@@3VCProject@@A+560
  00198	8b 80 a4 9d 01
	00		 mov	 eax, DWORD PTR [eax+105892]
$LN56@RefineAcce:
; File C:\IAGOS\server\v18\Source\Source\WorldServer\ItemUpgrade.cpp

; 873  : 		if( pItemProp )

  0019e	85 c0		 test	 eax, eax
  001a0	74 18		 je	 SHORT $LN5@RefineAcce

; 874  : 			g_dpDBClient.SendLogSMItemUse( "2", pUser, NULL, pItemProp );

  001a2	68 00 00 00 00	 push	 OFFSET ??_C@_00CNPNBAHC@@
  001a7	50		 push	 eax
  001a8	6a 00		 push	 0
  001aa	57		 push	 edi
  001ab	68 00 00 00 00	 push	 OFFSET ??_C@_01FDFGLJHB@2@
  001b0	b9 00 00 00 00	 mov	 ecx, OFFSET ?g_dpDBClient@@3VCDPDatabaseClient@@A ; g_dpDBClient
  001b5	e8 00 00 00 00	 call	 ?SendLogSMItemUse@CDPDatabaseClient@@QAEXPBDPAVCUser@@PAVCItemElem@@PAUItemProp@@0@Z ; CDPDatabaseClient::SendLogSMItemUse
$LN5@RefineAcce:
; File C:\IAGOS\server\v18\Source\Source\_Common\xUtil.h

; 16   : 	g_next = g_next * 1103515245 + 12345;// + nRandomSeed[ i++ ];

  001ba	69 0d 00 00 00
	00 6d 4e c6 41	 imul	 ecx, DWORD PTR ?g_next@@3KA, 1103515245 ; g_next

; 22   : 	return  xRand() % num;

  001c4	b8 59 17 b7 d1	 mov	 eax, -776530087		; d1b71759H

; 16   : 	g_next = g_next * 1103515245 + 12345;// + nRandomSeed[ i++ ];

  001c9	81 c1 39 30 00
	00		 add	 ecx, 12345		; 00003039H

; 22   : 	return  xRand() % num;

  001cf	f7 e1		 mul	 ecx

; 16   : 	g_next = g_next * 1103515245 + 12345;// + nRandomSeed[ i++ ];

  001d1	89 0d 00 00 00
	00		 mov	 DWORD PTR ?g_next@@3KA, ecx ; g_next

; 22   : 	return  xRand() % num;

  001d7	c1 ea 0d	 shr	 edx, 13			; 0000000dH
  001da	69 c2 10 27 00
	00		 imul	 eax, edx, 10000
  001e0	2b c8		 sub	 ecx, eax
; File C:\IAGOS\server\v18\Source\Source\WorldServer\ItemUpgrade.cpp

; 877  : 	if( xRandom( 10000 ) < dwProbability )	// ╝║░°

  001e2	3b 8d 2c ff ff
	ff		 cmp	 ecx, DWORD PTR _dwProbability$1$[ebp]
  001e8	8b cf		 mov	 ecx, edi
  001ea	0f 83 dd 00 00
	00		 jae	 $LN6@RefineAcce

; 878  : 	{
; 879  : 		pUser->AddDefinedText( TID_UPGRADE_SUCCEEFUL );

  001f0	68 9d 08 00 00	 push	 2205			; 0000089dH
  001f5	e8 00 00 00 00	 call	 ?AddDefinedText@CUser@@QAEXH@Z ; CUser::AddDefinedText

; 880  : 		pUser->AddPlaySound( SND_INF_UPGRADESUCCESS );

  001fa	6a 0e		 push	 14			; 0000000eH
  001fc	8b cf		 mov	 ecx, edi
  001fe	e8 00 00 00 00	 call	 ?AddPlaySound@CUser@@QAEXK@Z ; CUser::AddPlaySound
; File C:\IAGOS\server\v18\Source\Source\_Common\Mover.h

; 1740 : 		if( GetAdjParam(DST_CHRSTATE) & CHS_INVISIBILITY )	// ĖČ╣²┼§ĖĒ╚Ł░Ī ░╔Ę╚┤┬░Ī?

  00203	6a 40		 push	 64			; 00000040H
  00205	8b cf		 mov	 ecx, edi
  00207	e8 00 00 00 00	 call	 ?GetAdjParam@CMover@@QAEHH@Z ; CMover::GetAdjParam
  0020c	a9 00 04 00 00	 test	 eax, 1024		; 00000400H
  00211	75 7f		 jne	 SHORT $LN8@RefineAcce
; File C:\IAGOS\server\v18\Source\Source\WorldServer\ItemUpgrade.cpp

; 882  : 		if( pUser->IsMode( TRANSPARENT_MODE ) == 0)

  00213	f6 87 40 02 00
	00 02		 test	 BYTE PTR [edi+576], 2
  0021a	75 76		 jne	 SHORT $LN8@RefineAcce
; File C:\IAGOS\server\v18\Source\Source\_Common\Obj.h

; 215  : 	D3DXVECTOR3		GetPos()	{ return m_vPos; }

  0021c	f3 0f 7e 87 60
	01 00 00	 movq	 xmm0, QWORD PTR [edi+352]
; File C:\IAGOS\server\v18\Source\Source\WorldServer\ItemUpgrade.cpp

; 883  : 			g_UserMng.AddCreateSfxObj( (CMover *)pUser, XI_INT_SUCCESS, pUser->GetPos().x, pUser->GetPos().y, pUser->GetPos().z);

  00224	b9 00 00 00 00	 mov	 ecx, OFFSET ?g_UserMng@@3VCUserMng@@A ; g_UserMng
; File C:\IAGOS\server\v18\Source\Source\_Common\Obj.h

; 215  : 	D3DXVECTOR3		GetPos()	{ return m_vPos; }

  00229	8b 87 68 01 00
	00		 mov	 eax, DWORD PTR [edi+360]
  0022f	66 0f d6 85 20
	ff ff ff	 movq	 QWORD PTR $T5[ebp], xmm0
  00237	f3 0f 7e c0	 movq	 xmm0, xmm0
  0023b	66 0f d6 85 14
	ff ff ff	 movq	 QWORD PTR $T3[ebp], xmm0
  00243	f3 0f 7e 87 60
	01 00 00	 movq	 xmm0, QWORD PTR [edi+352]
; File C:\IAGOS\server\v18\Source\Source\WorldServer\ItemUpgrade.cpp

; 883  : 			g_UserMng.AddCreateSfxObj( (CMover *)pUser, XI_INT_SUCCESS, pUser->GetPos().x, pUser->GetPos().y, pUser->GetPos().z);

  0024b	6a 00		 push	 0
  0024d	83 ec 0c	 sub	 esp, 12			; 0000000cH
; File C:\IAGOS\server\v18\Source\Source\_Common\Obj.h

; 215  : 	D3DXVECTOR3		GetPos()	{ return m_vPos; }

  00250	66 0f d6 85 08
	ff ff ff	 movq	 QWORD PTR $T1[ebp], xmm0
  00258	89 85 28 ff ff
	ff		 mov	 DWORD PTR $T5[ebp+8], eax
; File C:\IAGOS\server\v18\Source\Source\WorldServer\ItemUpgrade.cpp

; 883  : 			g_UserMng.AddCreateSfxObj( (CMover *)pUser, XI_INT_SUCCESS, pUser->GetPos().x, pUser->GetPos().y, pUser->GetPos().z);

  0025e	f3 0f 10 85 28
	ff ff ff	 movss	 xmm0, DWORD PTR $T5[ebp+8]
  00266	f3 0f 11 44 24
	08		 movss	 DWORD PTR [esp+8], xmm0
  0026c	f3 0f 10 85 18
	ff ff ff	 movss	 xmm0, DWORD PTR $T3[ebp+4]
  00274	f3 0f 11 44 24
	04		 movss	 DWORD PTR [esp+4], xmm0
  0027a	f3 0f 10 85 08
	ff ff ff	 movss	 xmm0, DWORD PTR $T1[ebp]
  00282	f3 0f 11 04 24	 movss	 DWORD PTR [esp], xmm0
  00287	68 b2 06 00 00	 push	 1714			; 000006b2H
  0028c	57		 push	 edi
  0028d	e8 00 00 00 00	 call	 ?AddCreateSfxObj@CUserMng@@QAEXPAVCCtrl@@KMMMH@Z ; CUserMng::AddCreateSfxObj
$LN8@RefineAcce:

; 884  : 
; 885  : 		pUser->UpdateItem( (BYTE)pItemMain->m_dwObjId, UI_AO,  pItemMain->GetAbilityOption()+1 );

  00292	8b 43 64	 mov	 eax, DWORD PTR [ebx+100]
  00295	8b cf		 mov	 ecx, edi
  00297	6a 00		 push	 0
  00299	40		 inc	 eax
  0029a	50		 push	 eax
  0029b	0f b6 43 04	 movzx	 eax, BYTE PTR [ebx+4]
  0029f	6a 03		 push	 3
  002a1	50		 push	 eax
  002a2	e8 00 00 00 00	 call	 ?UpdateItem@CMover@@QAEXEDKK@Z ; CMover::UpdateItem

; 886  : 
; 887  : 		aLogItem.Action		= "H";
; 888  : 		g_DPSrvr.OnLogItem( aLogItem, pItemMain, pItemMain->m_nItemNum );

  002a7	0f bf 43 74	 movsx	 eax, WORD PTR [ebx+116]
  002ab	b9 00 00 00 00	 mov	 ecx, OFFSET ?g_DPSrvr@@3VCDPSrvr@@A ; g_DPSrvr
  002b0	50		 push	 eax
  002b1	53		 push	 ebx
  002b2	8d 85 34 ff ff
	ff		 lea	 eax, DWORD PTR _aLogItem$[ebp]
  002b8	c7 85 34 ff ff
	ff 00 00 00 00	 mov	 DWORD PTR _aLogItem$[ebp], OFFSET ??_C@_01IGIGCIAN@H@
  002c2	50		 push	 eax
  002c3	e8 00 00 00 00	 call	 ?OnLogItem@CDPSrvr@@QAEXAAU_LogItemInfo@@PAVCItemElem@@H@Z ; CDPSrvr::OnLogItem

; 889  : 	}

  002c8	e9 dc 00 00 00	 jmp	 $LN11@RefineAcce
$LN6@RefineAcce:

; 890  : 	else	// ĮŪŲą
; 891  : 	{
; 892  : 		pUser->AddDefinedText( TID_UPGRADE_FAIL );

  002cd	68 9e 08 00 00	 push	 2206			; 0000089eH
  002d2	e8 00 00 00 00	 call	 ?AddDefinedText@CUser@@QAEXH@Z ; CUser::AddDefinedText

; 893  : 		pUser->AddPlaySound( SND_INF_UPGRADEFAIL );

  002d7	6a 0d		 push	 13			; 0000000dH
  002d9	8b cf		 mov	 ecx, edi
  002db	e8 00 00 00 00	 call	 ?AddPlaySound@CUser@@QAEXK@Z ; CUser::AddPlaySound
; File C:\IAGOS\server\v18\Source\Source\_Common\Mover.h

; 1740 : 		if( GetAdjParam(DST_CHRSTATE) & CHS_INVISIBILITY )	// ĖČ╣²┼§ĖĒ╚Ł░Ī ░╔Ę╚┤┬░Ī?

  002e0	6a 40		 push	 64			; 00000040H
  002e2	8b cf		 mov	 ecx, edi
  002e4	e8 00 00 00 00	 call	 ?GetAdjParam@CMover@@QAEHH@Z ; CMover::GetAdjParam
  002e9	a9 00 04 00 00	 test	 eax, 1024		; 00000400H
  002ee	75 7f		 jne	 SHORT $LN9@RefineAcce
; File C:\IAGOS\server\v18\Source\Source\WorldServer\ItemUpgrade.cpp

; 894  : 		if( pUser->IsMode( TRANSPARENT_MODE ) == 0 )

  002f0	f6 87 40 02 00
	00 02		 test	 BYTE PTR [edi+576], 2
  002f7	75 76		 jne	 SHORT $LN9@RefineAcce
; File C:\IAGOS\server\v18\Source\Source\_Common\Obj.h

; 215  : 	D3DXVECTOR3		GetPos()	{ return m_vPos; }

  002f9	f3 0f 7e 87 60
	01 00 00	 movq	 xmm0, QWORD PTR [edi+352]
; File C:\IAGOS\server\v18\Source\Source\WorldServer\ItemUpgrade.cpp

; 895  : 			g_UserMng.AddCreateSfxObj( (CMover *)pUser, XI_INT_FAIL, pUser->GetPos().x, pUser->GetPos().y, pUser->GetPos().z );

  00301	b9 00 00 00 00	 mov	 ecx, OFFSET ?g_UserMng@@3VCUserMng@@A ; g_UserMng
; File C:\IAGOS\server\v18\Source\Source\_Common\Obj.h

; 215  : 	D3DXVECTOR3		GetPos()	{ return m_vPos; }

  00306	8b 87 68 01 00
	00		 mov	 eax, DWORD PTR [edi+360]
  0030c	66 0f d6 85 08
	ff ff ff	 movq	 QWORD PTR $T2[ebp], xmm0
  00314	f3 0f 7e c0	 movq	 xmm0, xmm0
  00318	66 0f d6 85 14
	ff ff ff	 movq	 QWORD PTR $T4[ebp], xmm0
  00320	f3 0f 7e 87 60
	01 00 00	 movq	 xmm0, QWORD PTR [edi+352]
; File C:\IAGOS\server\v18\Source\Source\WorldServer\ItemUpgrade.cpp

; 895  : 			g_UserMng.AddCreateSfxObj( (CMover *)pUser, XI_INT_FAIL, pUser->GetPos().x, pUser->GetPos().y, pUser->GetPos().z );

  00328	6a 00		 push	 0
  0032a	83 ec 0c	 sub	 esp, 12			; 0000000cH
; File C:\IAGOS\server\v18\Source\Source\_Common\Obj.h

; 215  : 	D3DXVECTOR3		GetPos()	{ return m_vPos; }

  0032d	66 0f d6 85 20
	ff ff ff	 movq	 QWORD PTR $T6[ebp], xmm0
  00335	89 85 10 ff ff
	ff		 mov	 DWORD PTR $T2[ebp+8], eax
; File C:\IAGOS\server\v18\Source\Source\WorldServer\ItemUpgrade.cpp

; 895  : 			g_UserMng.AddCreateSfxObj( (CMover *)pUser, XI_INT_FAIL, pUser->GetPos().x, pUser->GetPos().y, pUser->GetPos().z );

  0033b	f3 0f 10 85 10
	ff ff ff	 movss	 xmm0, DWORD PTR $T2[ebp+8]
  00343	f3 0f 11 44 24
	08		 movss	 DWORD PTR [esp+8], xmm0
  00349	f3 0f 10 85 18
	ff ff ff	 movss	 xmm0, DWORD PTR $T4[ebp+4]
  00351	f3 0f 11 44 24
	04		 movss	 DWORD PTR [esp+4], xmm0
  00357	f3 0f 10 85 20
	ff ff ff	 movss	 xmm0, DWORD PTR $T6[ebp]
  0035f	f3 0f 11 04 24	 movss	 DWORD PTR [esp], xmm0
  00364	68 b3 06 00 00	 push	 1715			; 000006b3H
  00369	57		 push	 edi
  0036a	e8 00 00 00 00	 call	 ?AddCreateSfxObj@CUserMng@@QAEXPAVCCtrl@@KMMMH@Z ; CUserMng::AddCreateSfxObj
$LN9@RefineAcce:

; 896  : 
; 897  : 		if( !bSmelprot )

  0036f	85 f6		 test	 esi, esi
  00371	75 36		 jne	 SHORT $LN11@RefineAcce

; 898  : 		{
; 899  : 			if( pItemMain->GetAbilityOption() >= 3 )		// ╗Ķ┴”

  00373	83 7b 64 03	 cmp	 DWORD PTR [ebx+100], 3
  00377	7c 30		 jl	 SHORT $LN11@RefineAcce

; 900  : 			{
; 901  : 				aLogItem.Action	= "L";
; 902  : 				g_DPSrvr.OnLogItem( aLogItem, pItemMain, pItemMain->m_nItemNum );

  00379	0f bf 43 74	 movsx	 eax, WORD PTR [ebx+116]
  0037d	b9 00 00 00 00	 mov	 ecx, OFFSET ?g_DPSrvr@@3VCDPSrvr@@A ; g_DPSrvr
  00382	50		 push	 eax
  00383	53		 push	 ebx
  00384	8d 85 34 ff ff
	ff		 lea	 eax, DWORD PTR _aLogItem$[ebp]
  0038a	c7 85 34 ff ff
	ff 00 00 00 00	 mov	 DWORD PTR _aLogItem$[ebp], OFFSET ??_C@_01OCOKONAJ@L@
  00394	50		 push	 eax
  00395	e8 00 00 00 00	 call	 ?OnLogItem@CDPSrvr@@QAEXAAU_LogItemInfo@@PAVCItemElem@@H@Z ; CDPSrvr::OnLogItem

; 903  : 				pUser->UpdateItem( (BYTE)pItemMain->m_dwObjId, UI_NUM, 0 );

  0039a	0f b6 43 04	 movzx	 eax, BYTE PTR [ebx+4]
  0039e	8b cf		 mov	 ecx, edi
  003a0	56		 push	 esi
  003a1	56		 push	 esi
  003a2	56		 push	 esi
  003a3	50		 push	 eax
  003a4	e8 00 00 00 00	 call	 ?UpdateItem@CMover@@QAEXEDKK@Z ; CMover::UpdateItem
$LN11@RefineAcce:

; 904  : 			}
; 905  : 		}
; 906  : 	}
; 907  : 	aLogItem.Action	= "N";
; 908  : 	g_DPSrvr.OnLogItem( aLogItem, pItemMaterial, pItemMaterial->m_nItemNum );

  003a9	8b b5 30 ff ff
	ff		 mov	 esi, DWORD PTR _pItemMaterial$GSCopy$1$[ebp]
  003af	b9 00 00 00 00	 mov	 ecx, OFFSET ?g_DPSrvr@@3VCDPSrvr@@A ; g_DPSrvr
  003b4	c7 85 34 ff ff
	ff 00 00 00 00	 mov	 DWORD PTR _aLogItem$[ebp], OFFSET ??_C@_01NANMIPIL@N@
  003be	0f bf 46 74	 movsx	 eax, WORD PTR [esi+116]
  003c2	50		 push	 eax
  003c3	56		 push	 esi
  003c4	8d 85 34 ff ff
	ff		 lea	 eax, DWORD PTR _aLogItem$[ebp]
  003ca	50		 push	 eax
  003cb	e8 00 00 00 00	 call	 ?OnLogItem@CDPSrvr@@QAEXAAU_LogItemInfo@@PAVCItemElem@@H@Z ; CDPSrvr::OnLogItem

; 909  : 	pUser->UpdateItem( (BYTE)pItemMaterial->m_dwObjId, UI_NUM, pItemMaterial->m_nItemNum - 1 );

  003d0	0f bf 46 74	 movsx	 eax, WORD PTR [esi+116]
  003d4	8b cf		 mov	 ecx, edi
  003d6	6a 00		 push	 0
  003d8	48		 dec	 eax
  003d9	50		 push	 eax
  003da	0f b6 46 04	 movzx	 eax, BYTE PTR [esi+4]
  003de	6a 00		 push	 0
  003e0	50		 push	 eax
  003e1	e8 00 00 00 00	 call	 ?UpdateItem@CMover@@QAEXEDKK@Z ; CMover::UpdateItem

; 910  : }

  003e6	8b 4d fc	 mov	 ecx, DWORD PTR __$ArrayPad$[ebp]
  003e9	5f		 pop	 edi
  003ea	5e		 pop	 esi
  003eb	33 cd		 xor	 ecx, ebp
  003ed	5b		 pop	 ebx
  003ee	e8 00 00 00 00	 call	 @__security_check_cookie@4
  003f3	8b e5		 mov	 esp, ebp
  003f5	5d		 pop	 ebp
  003f6	c2 0c 00	 ret	 12			; 0000000cH
?RefineAccessory@CItemUpgrade@@AAEXPAVCUser@@PAVCItemElem@@1@Z ENDP ; CItemUpgrade::RefineAccessory
_TEXT	ENDS
; Function compile flags: /Ogtp
; File C:\IAGOS\server\v18\Source\Source\WorldServer\ItemUpgrade.cpp
; File C:\IAGOS\server\v18\Source\Source\_Common\Item.h
; File C:\IAGOS\server\v18\Source\Source\WorldServer\ItemUpgrade.cpp
; File C:\IAGOS\server\v18\Source\Source\_Common\Project.h
; File C:\IAGOS\server\v18\Source\Source\_Common\data.h
; File C:\IAGOS\server\v18\Source\Source\_Common\Project.h
; File C:\IAGOS\server\v18\Source\Source\_Common\data.h
; File C:\IAGOS\server\v18\Source\Source\_Common\Project.h
; File C:\IAGOS\server\v18\Source\Source\WorldServer\ItemUpgrade.cpp
; File C:\IAGOS\server\v18\Source\Source\_Common\Obj.h
; File C:\IAGOS\server\v18\Source\Source\WorldServer\ItemUpgrade.cpp
; File C:\IAGOS\server\v18\Source\Source\_Common\Obj.h
; File C:\IAGOS\server\v18\Source\Source\WorldServer\ItemUpgrade.cpp
; File C:\IAGOS\server\v18\Source\Source\_Common\Obj.h
; File C:\IAGOS\server\v18\Source\Source\WorldServer\ItemUpgrade.cpp
;	COMDAT ?RunItemTransy@CItemUpgrade@@AAEHPAVCUser@@PAVCItemElem@@K@Z
_TEXT	SEGMENT
$T2 = -236						; size = 12
$T3 = -224						; size = 12
$T4 = -212						; size = 12
_pItemElemTarget$GSCopy$1$ = -200			; size = 4
_pUser$GSCopy$1$ = -196					; size = 4
_ItemElemSend$ = -192					; size = 176
__$ArrayPad$ = -16					; size = 4
__$EHRec$ = -12						; size = 12
_pUser$ = 8						; size = 4
_pItemElemTarget$ = 12					; size = 4
_dwChangeId$ = 16					; size = 4
?RunItemTransy@CItemUpgrade@@AAEHPAVCUser@@PAVCItemElem@@K@Z PROC ; CItemUpgrade::RunItemTransy, COMDAT
; _this$ = ecx

; 2025 : {

  00000	55		 push	 ebp
  00001	8b ec		 mov	 ebp, esp
  00003	6a ff		 push	 -1
  00005	68 00 00 00 00	 push	 __ehhandler$?RunItemTransy@CItemUpgrade@@AAEHPAVCUser@@PAVCItemElem@@K@Z
  0000a	64 a1 00 00 00
	00		 mov	 eax, DWORD PTR fs:0
  00010	50		 push	 eax
  00011	81 ec e0 00 00
	00		 sub	 esp, 224		; 000000e0H
  00017	a1 00 00 00 00	 mov	 eax, DWORD PTR ___security_cookie
  0001c	33 c5		 xor	 eax, ebp
  0001e	89 45 f0	 mov	 DWORD PTR __$ArrayPad$[ebp], eax
  00021	53		 push	 ebx
  00022	56		 push	 esi
  00023	57		 push	 edi
  00024	50		 push	 eax
  00025	8d 45 f4	 lea	 eax, DWORD PTR __$EHRec$[ebp]
  00028	64 a3 00 00 00
	00		 mov	 DWORD PTR fs:0, eax
  0002e	8b 4d 0c	 mov	 ecx, DWORD PTR _pItemElemTarget$[ebp]
  00031	8b 45 08	 mov	 eax, DWORD PTR _pUser$[ebp]
  00034	8b 75 10	 mov	 esi, DWORD PTR _dwChangeId$[ebp]
  00037	89 8d 38 ff ff
	ff		 mov	 DWORD PTR _pItemElemTarget$GSCopy$1$[ebp], ecx
; File C:\IAGOS\server\v18\Source\Source\_Common\Item.h

; 230  : 	ItemProp*	GetProp()	{	return prj.GetItemProp( m_dwItemId );	}

  0003d	8b 49 0c	 mov	 ecx, DWORD PTR [ecx+12]
; File C:\IAGOS\server\v18\Source\Source\WorldServer\ItemUpgrade.cpp

; 2025 : {

  00040	89 85 3c ff ff
	ff		 mov	 DWORD PTR _pUser$GSCopy$1$[ebp], eax
; File C:\IAGOS\server\v18\Source\Source\_Common\Project.h

; 1389 : 	VERIFY_RANGE_ASSERT( nIndex, 0, m_aPropItem.GetSize(), "GetItemProp range_error", NULL );

  00046	a1 40 02 00 00	 mov	 eax, DWORD PTR ?prj@@3VCProject@@A+576
  0004b	85 c9		 test	 ecx, ecx
  0004d	78 11		 js	 SHORT $LN17@RunItemTra
  0004f	3b c8		 cmp	 ecx, eax
  00051	7d 0d		 jge	 SHORT $LN17@RunItemTra
; File C:\IAGOS\server\v18\Source\Source\_Common\data.h

; 270  : 	if( dwIndex >= (DWORD)m_nMaxIndex )

  00053	8b 15 30 02 00
	00		 mov	 edx, DWORD PTR ?prj@@3VCProject@@A+560
  00059	73 26		 jae	 SHORT $LN43@RunItemTra

; 271  : 		return NULL;
; 272  : 	return (T*) m_apOffset[ dwIndex ];

  0005b	8b 3c 8a	 mov	 edi, DWORD PTR [edx+ecx*4]
; File C:\IAGOS\server\v18\Source\Source\_Common\Project.h

; 1390 : 	return m_aPropItem.GetAt( nIndex ); 

  0005e	eb 23		 jmp	 SHORT $LN12@RunItemTra
$LN17@RunItemTra:

; 579  : 	LPCTSTR szErr = Error( _T( "%s min:%d, max:%d, index:%d" ), szMsg, nMin, nMax, nIndex ); 

  00060	51		 push	 ecx
  00061	50		 push	 eax
  00062	6a 00		 push	 0
  00064	68 00 00 00 00	 push	 OFFSET ??_C@_0BI@BEIFNGEL@GetItemProp?5range_error@
  00069	68 00 00 00 00	 push	 OFFSET ??_C@_0BM@HMFGHCP@?$CFs?5min?3?$CFd?0?5max?3?$CFd?0?5index?3?$CFd@
  0006e	e8 00 00 00 00	 call	 ?Error@@YAPBDPBDZZ	; Error

; 1389 : 	VERIFY_RANGE_ASSERT( nIndex, 0, m_aPropItem.GetSize(), "GetItemProp range_error", NULL );

  00073	a1 40 02 00 00	 mov	 eax, DWORD PTR ?prj@@3VCProject@@A+576

; 579  : 	LPCTSTR szErr = Error( _T( "%s min:%d, max:%d, index:%d" ), szMsg, nMin, nMax, nIndex ); 

  00078	83 c4 14	 add	 esp, 20			; 00000014H

; 1389 : 	VERIFY_RANGE_ASSERT( nIndex, 0, m_aPropItem.GetSize(), "GetItemProp range_error", NULL );

  0007b	8b 15 30 02 00
	00		 mov	 edx, DWORD PTR ?prj@@3VCProject@@A+560
$LN43@RunItemTra:
  00081	33 ff		 xor	 edi, edi
$LN12@RunItemTra:
  00083	85 f6		 test	 esi, esi
  00085	78 0b		 js	 SHORT $LN29@RunItemTra
  00087	3b f0		 cmp	 esi, eax
  00089	7d 07		 jge	 SHORT $LN29@RunItemTra
; File C:\IAGOS\server\v18\Source\Source\_Common\data.h

; 270  : 	if( dwIndex >= (DWORD)m_nMaxIndex )

  0008b	73 1b		 jae	 SHORT $LN44@RunItemTra

; 271  : 		return NULL;
; 272  : 	return (T*) m_apOffset[ dwIndex ];

  0008d	8b 34 b2	 mov	 esi, DWORD PTR [edx+esi*4]
; File C:\IAGOS\server\v18\Source\Source\_Common\Project.h

; 1390 : 	return m_aPropItem.GetAt( nIndex ); 

  00090	eb 18		 jmp	 SHORT $LN24@RunItemTra
$LN29@RunItemTra:

; 579  : 	LPCTSTR szErr = Error( _T( "%s min:%d, max:%d, index:%d" ), szMsg, nMin, nMax, nIndex ); 

  00092	56		 push	 esi
  00093	50		 push	 eax
  00094	6a 00		 push	 0
  00096	68 00 00 00 00	 push	 OFFSET ??_C@_0BI@BEIFNGEL@GetItemProp?5range_error@
  0009b	68 00 00 00 00	 push	 OFFSET ??_C@_0BM@HMFGHCP@?$CFs?5min?3?$CFd?0?5max?3?$CFd?0?5index?3?$CFd@
  000a0	e8 00 00 00 00	 call	 ?Error@@YAPBDPBDZZ	; Error
  000a5	83 c4 14	 add	 esp, 20			; 00000014H
$LN44@RunItemTra:
; File C:\IAGOS\server\v18\Source\Source\WorldServer\ItemUpgrade.cpp

; 2040 : 		|| pItemProp->dwAbilityMax != pItemPropChange->dwAbilityMax || pItemProp->fAttackSpeed != pItemPropChange->fAttackSpeed

  000a8	33 f6		 xor	 esi, esi
$LN24@RunItemTra:
  000aa	85 ff		 test	 edi, edi
  000ac	0f 84 66 02 00
	00		 je	 $LN3@RunItemTra
  000b2	85 f6		 test	 esi, esi
  000b4	0f 84 5e 02 00
	00		 je	 $LN3@RunItemTra
  000ba	8b 07		 mov	 eax, DWORD PTR [edi]
  000bc	3b 06		 cmp	 eax, DWORD PTR [esi]
  000be	0f 84 54 02 00
	00		 je	 $LN3@RunItemTra
  000c4	8b 4f 74	 mov	 ecx, DWORD PTR [edi+116]
  000c7	83 f9 07	 cmp	 ecx, 7
  000ca	74 09		 je	 SHORT $LN4@RunItemTra
  000cc	83 f9 08	 cmp	 ecx, 8
  000cf	0f 85 43 02 00
	00		 jne	 $LN3@RunItemTra
$LN4@RunItemTra:
  000d5	8b 87 88 00 00
	00		 mov	 eax, DWORD PTR [edi+136]
  000db	85 c0		 test	 eax, eax
  000dd	74 09		 je	 SHORT $LN5@RunItemTra
  000df	83 f8 01	 cmp	 eax, 1
  000e2	0f 85 30 02 00
	00		 jne	 $LN3@RunItemTra
$LN5@RunItemTra:
  000e8	8b 56 74	 mov	 edx, DWORD PTR [esi+116]
  000eb	83 fa 07	 cmp	 edx, 7
  000ee	74 09		 je	 SHORT $LN6@RunItemTra
  000f0	83 fa 08	 cmp	 edx, 8
  000f3	0f 85 1f 02 00
	00		 jne	 $LN3@RunItemTra
$LN6@RunItemTra:
  000f9	8b 9e 88 00 00
	00		 mov	 ebx, DWORD PTR [esi+136]
  000ff	85 db		 test	 ebx, ebx
  00101	74 09		 je	 SHORT $LN7@RunItemTra
  00103	83 fb 01	 cmp	 ebx, 1
  00106	0f 85 0c 02 00
	00		 jne	 $LN3@RunItemTra
$LN7@RunItemTra:
  0010c	3b c3		 cmp	 eax, ebx
  0010e	0f 84 04 02 00
	00		 je	 $LN3@RunItemTra
  00114	8b 47 70	 mov	 eax, DWORD PTR [edi+112]
  00117	3b 46 70	 cmp	 eax, DWORD PTR [esi+112]
  0011a	0f 85 f8 01 00
	00		 jne	 $LN3@RunItemTra
  00120	3b ca		 cmp	 ecx, edx
  00122	0f 85 f0 01 00
	00		 jne	 $LN3@RunItemTra
  00128	8b 47 78	 mov	 eax, DWORD PTR [edi+120]
  0012b	3b 46 78	 cmp	 eax, DWORD PTR [esi+120]
  0012e	0f 85 e4 01 00
	00		 jne	 $LN3@RunItemTra
  00134	8b 47 7c	 mov	 eax, DWORD PTR [edi+124]
  00137	3b 46 7c	 cmp	 eax, DWORD PTR [esi+124]
  0013a	0f 85 d8 01 00
	00		 jne	 $LN3@RunItemTra
  00140	8b 87 a0 00 00
	00		 mov	 eax, DWORD PTR [edi+160]
  00146	3b 86 a0 00 00
	00		 cmp	 eax, DWORD PTR [esi+160]
  0014c	0f 85 c6 01 00
	00		 jne	 $LN3@RunItemTra
  00152	8b 87 a8 00 00
	00		 mov	 eax, DWORD PTR [edi+168]
  00158	3b 86 a8 00 00
	00		 cmp	 eax, DWORD PTR [esi+168]
  0015e	0f 85 b4 01 00
	00		 jne	 $LN3@RunItemTra
  00164	8b 87 bc 00 00
	00		 mov	 eax, DWORD PTR [edi+188]
  0016a	3b 86 bc 00 00
	00		 cmp	 eax, DWORD PTR [esi+188]
  00170	0f 85 a2 01 00
	00		 jne	 $LN3@RunItemTra
  00176	8b 87 e4 00 00
	00		 mov	 eax, DWORD PTR [edi+228]
  0017c	3b 86 e4 00 00
	00		 cmp	 eax, DWORD PTR [esi+228]
  00182	0f 85 90 01 00
	00		 jne	 $LN3@RunItemTra
  00188	8b 87 e8 00 00
	00		 mov	 eax, DWORD PTR [edi+232]
  0018e	3b 86 e8 00 00
	00		 cmp	 eax, DWORD PTR [esi+232]
  00194	0f 85 7e 01 00
	00		 jne	 $LN3@RunItemTra
  0019a	f3 0f 10 87 30
	01 00 00	 movss	 xmm0, DWORD PTR [edi+304]
  001a2	0f 2e 86 30 01
	00 00		 ucomiss xmm0, DWORD PTR [esi+304]
  001a9	9f		 lahf
  001aa	f6 c4 44	 test	 ah, 68			; 00000044H
  001ad	0f 8a 65 01 00
	00		 jp	 $LN3@RunItemTra

; 2043 : 
; 2044 : 
; 2045 : 	// ŠŲ└╠┼█ Ų«ĘŻ┴÷ ╝║░°
; 2046 : 	pUser->AddPlaySound( SND_INF_UPGRADESUCCESS );			

  001b3	8b bd 3c ff ff
	ff		 mov	 edi, DWORD PTR _pUser$GSCopy$1$[ebp]
  001b9	8b cf		 mov	 ecx, edi
  001bb	6a 0e		 push	 14			; 0000000eH
  001bd	e8 00 00 00 00	 call	 ?AddPlaySound@CUser@@QAEXK@Z ; CUser::AddPlaySound
; File C:\IAGOS\server\v18\Source\Source\_Common\Obj.h

; 215  : 	D3DXVECTOR3		GetPos()	{ return m_vPos; }

  001c2	f3 0f 7e 87 60
	01 00 00	 movq	 xmm0, QWORD PTR [edi+352]
; File C:\IAGOS\server\v18\Source\Source\WorldServer\ItemUpgrade.cpp

; 2047 : 	g_UserMng.AddCreateSfxObj((CMover *)pUser, XI_INT_SUCCESS, pUser->GetPos().x, pUser->GetPos().y, pUser->GetPos().z);			

  001ca	b9 00 00 00 00	 mov	 ecx, OFFSET ?g_UserMng@@3VCUserMng@@A ; g_UserMng
; File C:\IAGOS\server\v18\Source\Source\_Common\Obj.h

; 215  : 	D3DXVECTOR3		GetPos()	{ return m_vPos; }

  001cf	8b 87 68 01 00
	00		 mov	 eax, DWORD PTR [edi+360]
  001d5	66 0f d6 85 2c
	ff ff ff	 movq	 QWORD PTR $T4[ebp], xmm0
  001dd	f3 0f 7e c0	 movq	 xmm0, xmm0
  001e1	66 0f d6 85 20
	ff ff ff	 movq	 QWORD PTR $T3[ebp], xmm0
  001e9	f3 0f 7e 87 60
	01 00 00	 movq	 xmm0, QWORD PTR [edi+352]
; File C:\IAGOS\server\v18\Source\Source\WorldServer\ItemUpgrade.cpp

; 2047 : 	g_UserMng.AddCreateSfxObj((CMover *)pUser, XI_INT_SUCCESS, pUser->GetPos().x, pUser->GetPos().y, pUser->GetPos().z);			

  001f1	6a 00		 push	 0
  001f3	83 ec 0c	 sub	 esp, 12			; 0000000cH
; File C:\IAGOS\server\v18\Source\Source\_Common\Obj.h

; 215  : 	D3DXVECTOR3		GetPos()	{ return m_vPos; }

  001f6	66 0f d6 85 14
	ff ff ff	 movq	 QWORD PTR $T2[ebp], xmm0
  001fe	89 85 34 ff ff
	ff		 mov	 DWORD PTR $T4[ebp+8], eax
; File C:\IAGOS\server\v18\Source\Source\WorldServer\ItemUpgrade.cpp

; 2047 : 	g_UserMng.AddCreateSfxObj((CMover *)pUser, XI_INT_SUCCESS, pUser->GetPos().x, pUser->GetPos().y, pUser->GetPos().z);			

  00204	f3 0f 10 85 34
	ff ff ff	 movss	 xmm0, DWORD PTR $T4[ebp+8]
  0020c	f3 0f 11 44 24
	08		 movss	 DWORD PTR [esp+8], xmm0
  00212	f3 0f 10 85 24
	ff ff ff	 movss	 xmm0, DWORD PTR $T3[ebp+4]
  0021a	f3 0f 11 44 24
	04		 movss	 DWORD PTR [esp+4], xmm0
  00220	f3 0f 10 85 14
	ff ff ff	 movss	 xmm0, DWORD PTR $T2[ebp]
  00228	f3 0f 11 04 24	 movss	 DWORD PTR [esp], xmm0
  0022d	68 b2 06 00 00	 push	 1714			; 000006b2H
  00232	57		 push	 edi
  00233	e8 00 00 00 00	 call	 ?AddCreateSfxObj@CUserMng@@QAEXPAVCCtrl@@KMMMH@Z ; CUserMng::AddCreateSfxObj

; 2048 : 
; 2049 : 	// ▒Ō┴Ė ŠŲ└╠┼█└Ū Elem ┴ż║ĖĖ” └·└Õ ŪŽ░Ē └š└Į...
; 2050 : 	CItemElem ItemElemSend;

  00238	8d 8d 40 ff ff
	ff		 lea	 ecx, DWORD PTR _ItemElemSend$[ebp]
  0023e	e8 00 00 00 00	 call	 ??0CItemElem@@QAE@XZ	; CItemElem::CItemElem

; 2051 : 	ItemElemSend = *pItemElemTarget;

  00243	8b 85 40 ff ff
	ff		 mov	 eax, DWORD PTR _ItemElemSend$[ebp]
  00249	8d 8d 40 ff ff
	ff		 lea	 ecx, DWORD PTR _ItemElemSend$[ebp]
  0024f	8b 9d 38 ff ff
	ff		 mov	 ebx, DWORD PTR _pItemElemTarget$GSCopy$1$[ebp]
  00255	53		 push	 ebx
  00256	c7 45 fc 00 00
	00 00		 mov	 DWORD PTR __$EHRec$[ebp+8], 0
  0025d	ff 50 10	 call	 DWORD PTR [eax+16]

; 2052 : 	ItemElemSend.m_dwItemId = pItemPropChange->dwID;

  00260	8b 06		 mov	 eax, DWORD PTR [esi]

; 2053 : 	ItemElemSend.m_nHitPoint	= pItemPropChange->dwEndurance;		// │╗▒ĖĘ┬ 100%
; 2054 : 
; 2055 : 	g_dpDBClient.SendLogSMItemUse( "1", pUser, pItemElemTarget, pItemElemTarget->GetProp(), "RemoveItem" );	

  00262	8b cb		 mov	 ecx, ebx
  00264	89 85 4c ff ff
	ff		 mov	 DWORD PTR _ItemElemSend$[ebp+12], eax
  0026a	8b 86 90 00 00
	00		 mov	 eax, DWORD PTR [esi+144]
  00270	68 00 00 00 00	 push	 OFFSET ??_C@_0L@NPPDFLAM@RemoveItem@
  00275	89 45 b0	 mov	 DWORD PTR _ItemElemSend$[ebp+112], eax
  00278	e8 00 00 00 00	 call	 ?GetPropA@CItemElem@@QAEPAUItemProp@@XZ ; CItemElem::GetPropA
  0027d	50		 push	 eax
  0027e	53		 push	 ebx
  0027f	57		 push	 edi
  00280	68 00 00 00 00	 push	 OFFSET ??_C@_01HIHLOKLC@1@
  00285	b9 00 00 00 00	 mov	 ecx, OFFSET ?g_dpDBClient@@3VCDPDatabaseClient@@A ; g_dpDBClient
  0028a	e8 00 00 00 00	 call	 ?SendLogSMItemUse@CDPDatabaseClient@@QAEXPBDPAVCUser@@PAVCItemElem@@PAUItemProp@@0@Z ; CDPDatabaseClient::SendLogSMItemUse

; 2056 : 	g_dpDBClient.SendLogSMItemUse( "1", pUser, &ItemElemSend, ItemElemSend.GetProp(), "CreateItem" );	

  0028f	68 00 00 00 00	 push	 OFFSET ??_C@_0L@EMDEHLJF@CreateItem@
  00294	8d 8d 40 ff ff
	ff		 lea	 ecx, DWORD PTR _ItemElemSend$[ebp]
  0029a	e8 00 00 00 00	 call	 ?GetPropA@CItemElem@@QAEPAUItemProp@@XZ ; CItemElem::GetPropA
  0029f	50		 push	 eax
  002a0	8d 85 40 ff ff
	ff		 lea	 eax, DWORD PTR _ItemElemSend$[ebp]
  002a6	b9 00 00 00 00	 mov	 ecx, OFFSET ?g_dpDBClient@@3VCDPDatabaseClient@@A ; g_dpDBClient
  002ab	50		 push	 eax
  002ac	57		 push	 edi
  002ad	68 00 00 00 00	 push	 OFFSET ??_C@_01HIHLOKLC@1@
  002b2	e8 00 00 00 00	 call	 ?SendLogSMItemUse@CDPDatabaseClient@@QAEXPBDPAVCUser@@PAVCItemElem@@PAUItemProp@@0@Z ; CDPDatabaseClient::SendLogSMItemUse

; 2057 : 	pUser->AddDefinedText( TID_GAME_ITEM_TRANSY_SUCCESS, "\"%s\" \"%s\"", pItemElemTarget->GetProp()->szName, ItemElemSend.GetProp()->szName );

  002b7	8d 8d 40 ff ff
	ff		 lea	 ecx, DWORD PTR _ItemElemSend$[ebp]
  002bd	e8 00 00 00 00	 call	 ?GetPropA@CItemElem@@QAEPAUItemProp@@XZ ; CItemElem::GetPropA
  002c2	83 c0 04	 add	 eax, 4
  002c5	8b cb		 mov	 ecx, ebx
  002c7	50		 push	 eax
  002c8	e8 00 00 00 00	 call	 ?GetPropA@CItemElem@@QAEPAUItemProp@@XZ ; CItemElem::GetPropA
  002cd	83 c0 04	 add	 eax, 4
  002d0	50		 push	 eax
  002d1	68 00 00 00 00	 push	 OFFSET ??_C@_09DPACILDJ@?$CC?$CFs?$CC?5?$CC?$CFs?$CC@
  002d6	68 02 0b 00 00	 push	 2818			; 00000b02H
  002db	57		 push	 edi
  002dc	e8 00 00 00 00	 call	 ?AddDefinedText@CUser@@QAAXHPBDZZ ; CUser::AddDefinedText

; 2058 : 
; 2059 : 	// ▒Ō┴Ė ŠŲ└╠┼█ └ńĘß ╗Ķ┴”
; 2060 : 	pUser->RemoveItem( (BYTE)( pItemElemTarget->m_dwObjId ), (short)1 );

  002e1	0f b6 43 04	 movzx	 eax, BYTE PTR [ebx+4]
  002e5	83 c4 14	 add	 esp, 20			; 00000014H
  002e8	8b cf		 mov	 ecx, edi
  002ea	6a 01		 push	 1
  002ec	50		 push	 eax
  002ed	e8 00 00 00 00	 call	 ?RemoveItem@CMover@@QAEXEF@Z ; CMover::RemoveItem

; 2061 : 	
; 2062 : 	// ╗§Ę╬┐Ņ ŠŲ└╠┼█ ┴÷▒▐
; 2063 : 	pUser->CreateItem( &ItemElemSend );

  002f2	6a 00		 push	 0
  002f4	6a 00		 push	 0
  002f6	6a 00		 push	 0
  002f8	8d 85 40 ff ff
	ff		 lea	 eax, DWORD PTR _ItemElemSend$[ebp]
  002fe	8b cf		 mov	 ecx, edi
  00300	50		 push	 eax
  00301	e8 00 00 00 00	 call	 ?CreateItem@CMover@@QAEHPAVCItemBase@@PAEPAFE@Z ; CMover::CreateItem

; 2064 : 	
; 2065 : 	return TRUE;

  00306	8d 8d 40 ff ff
	ff		 lea	 ecx, DWORD PTR _ItemElemSend$[ebp]
  0030c	e8 00 00 00 00	 call	 ??1CItemElem@@UAE@XZ	; CItemElem::~CItemElem
  00311	b8 01 00 00 00	 mov	 eax, 1
  00316	eb 02		 jmp	 SHORT $LN1@RunItemTra
$LN3@RunItemTra:

; 2041 : 		)
; 2042 : 		return FALSE;

  00318	33 c0		 xor	 eax, eax
$LN1@RunItemTra:

; 2066 : }

  0031a	8b 4d f4	 mov	 ecx, DWORD PTR __$EHRec$[ebp]
  0031d	64 89 0d 00 00
	00 00		 mov	 DWORD PTR fs:0, ecx
  00324	59		 pop	 ecx
  00325	5f		 pop	 edi
  00326	5e		 pop	 esi
  00327	5b		 pop	 ebx
  00328	8b 4d f0	 mov	 ecx, DWORD PTR __$ArrayPad$[ebp]
  0032b	33 cd		 xor	 ecx, ebp
  0032d	e8 00 00 00 00	 call	 @__security_check_cookie@4
  00332	8b e5		 mov	 esp, ebp
  00334	5d		 pop	 ebp
  00335	c2 0c 00	 ret	 12			; 0000000cH
_TEXT	ENDS
;	COMDAT text$x
text$x	SEGMENT
__unwindfunclet$?RunItemTransy@CItemUpgrade@@AAEHPAVCUser@@PAVCItemElem@@K@Z$0:
  00000	8d 8d 40 ff ff
	ff		 lea	 ecx, DWORD PTR _ItemElemSend$[ebp]
  00006	e9 00 00 00 00	 jmp	 ??1CItemElem@@UAE@XZ	; CItemElem::~CItemElem
  0000b	cc		 int	 3
  0000c	cc		 int	 3
  0000d	cc		 int	 3
  0000e	cc		 int	 3
  0000f	cc		 int	 3
__ehhandler$?RunItemTransy@CItemUpgrade@@AAEHPAVCUser@@PAVCItemElem@@K@Z:
  00010	90		 npad	 1
  00011	90		 npad	 1
  00012	8b 54 24 08	 mov	 edx, DWORD PTR [esp+8]
  00016	8d 42 0c	 lea	 eax, DWORD PTR [edx+12]
  00019	8b 8a 10 ff ff
	ff		 mov	 ecx, DWORD PTR [edx-240]
  0001f	33 c8		 xor	 ecx, eax
  00021	e8 00 00 00 00	 call	 @__security_check_cookie@4
  00026	8b 4a fc	 mov	 ecx, DWORD PTR [edx-4]
  00029	33 c8		 xor	 ecx, eax
  0002b	e8 00 00 00 00	 call	 @__security_check_cookie@4
  00030	b8 00 00 00 00	 mov	 eax, OFFSET __ehfuncinfo$?RunItemTransy@CItemUpgrade@@AAEHPAVCUser@@PAVCItemElem@@K@Z
  00035	e9 00 00 00 00	 jmp	 ___CxxFrameHandler3
text$x	ENDS
?RunItemTransy@CItemUpgrade@@AAEHPAVCUser@@PAVCItemElem@@K@Z ENDP ; CItemUpgrade::RunItemTransy
; Function compile flags: /Ogtp
; File C:\IAGOS\server\v18\Source\Source\WorldServer\ItemUpgrade.cpp
;	COMDAT ?OnItemTransy@CItemUpgrade@@QAEXPAVCUser@@KKKH@Z
_TEXT	SEGMENT
_this$1$ = -4						; size = 4
_pUser$ = 8						; size = 4
_objidTarget$ = 12					; size = 4
_objidTransy$ = 16					; size = 4
_dwChangeId$ = 20					; size = 4
_bCash$ = 24						; size = 4
?OnItemTransy@CItemUpgrade@@QAEXPAVCUser@@KKKH@Z PROC	; CItemUpgrade::OnItemTransy, COMDAT
; _this$ = ecx

; 1958 : {

  00000	55		 push	 ebp
  00001	8b ec		 mov	 ebp, esp
  00003	51		 push	 ecx
  00004	53		 push	 ebx
  00005	56		 push	 esi
  00006	57		 push	 edi

; 1959 : 	CItemElem* pItemElemTarget = pUser->m_Inventory.GetAtId( objidTarget );	

  00007	8b 7d 08	 mov	 edi, DWORD PTR _pUser$[ebp]
  0000a	ff 75 0c	 push	 DWORD PTR _objidTarget$[ebp]
  0000d	89 4d fc	 mov	 DWORD PTR _this$1$[ebp], ecx
  00010	8d 8f fc 0a 00
	00		 lea	 ecx, DWORD PTR [edi+2812]
  00016	e8 00 00 00 00	 call	 ?GetAtId@?$CItemContainer@VCItemElem@@@@QAEPAVCItemElem@@K@Z ; CItemContainer<CItemElem>::GetAtId
  0001b	8b d8		 mov	 ebx, eax

; 1960 : 	if( !IsUsableItem( pItemElemTarget ) )

  0001d	53		 push	 ebx
  0001e	e8 00 00 00 00	 call	 ?IsUsableItem@@YAHPAVCItemBase@@@Z ; IsUsableItem
  00023	83 c4 04	 add	 esp, 4
  00026	85 c0		 test	 eax, eax
  00028	0f 84 e1 00 00
	00		 je	 $LN12@OnItemTran

; 1961 : 		return;
; 1962 : 
; 1963 : 	// └Õ┬°ĄŪŠŅ └ų┤┬ ŠŲ└╠┼█└╠Ėķ Ė«┼Ž( ┐└Č¾└╠~~~ ż╗ż╗ )
; 1964 : 	if( pUser->m_Inventory.IsEquip( objidTarget ) )

  0002e	ff 75 0c	 push	 DWORD PTR _objidTarget$[ebp]
  00031	8d 8f fc 0a 00
	00		 lea	 ecx, DWORD PTR [edi+2812]
  00037	e8 00 00 00 00	 call	 ?IsEquip@?$CItemContainer@VCItemElem@@@@QAEHK@Z ; CItemContainer<CItemElem>::IsEquip
  0003c	85 c0		 test	 eax, eax
  0003e	74 1c		 je	 SHORT $LN3@OnItemTran

; 1965 : 	{
; 1966 : 		pUser->AddDefinedText( TID_GAME_EQUIPPUT , "" );

  00040	68 00 00 00 00	 push	 OFFSET ??_C@_00CNPNBAHC@@
  00045	68 c2 03 00 00	 push	 962			; 000003c2H
  0004a	57		 push	 edi
  0004b	e8 00 00 00 00	 call	 ?AddDefinedText@CUser@@QAAXHPBDZZ ; CUser::AddDefinedText
  00050	83 c4 0c	 add	 esp, 12			; 0000000cH
  00053	5f		 pop	 edi

; 1996 : 		}
; 1997 : 	}
; 1998 : 	else
; 1999 : 	{
; 2000 : 		//	mulcom	BEGIN100312	Ųõ│─Ę╬ ŠŲ└╠┼█ Ų«Ę╗┴÷ ▒▌┴÷.
; 2001 : 		#ifdef	__ITEMTRANSY_PENYA
; 2002 : 			int nPayPenya = 0;
; 2003 : 			if( pItemElemTarget->GetProp()->dwLimitLevel1 < 61 )
; 2004 : 				nPayPenya = m_nItemTransyLowLevel;
; 2005 : 			else
; 2006 : 				nPayPenya = m_nItemTransyHighLevel;
; 2007 : 
; 2008 : 			if( pUser->GetGold() < nPayPenya || objidTransy != NULL_ID )
; 2009 : 			{
; 2010 : 				pUser->AddDefinedText( TID_GAME_LACKMONEY );
; 2011 : 				return;
; 2012 : 			}
; 2013 : 
; 2014 : 			if( RunItemTransy( pUser, pItemElemTarget, dwChangeId ) )
; 2015 : 			{
; 2016 : 				pUser->AddGold( -nPayPenya );
; 2017 : 				g_DPSrvr.PutPenyaLog( pUser, "O", "TRANSYITEM_PAY", nPayPenya );
; 2018 : 			}
; 2019 : 		#endif
; 2020 : 		//	mulcom	END100312	Ųõ│─Ę╬ ŠŲ└╠┼█ Ų«Ę╗┴÷ ▒▌┴÷.
; 2021 : 	}
; 2022 : }

  00054	5e		 pop	 esi
  00055	5b		 pop	 ebx
  00056	8b e5		 mov	 esp, ebp
  00058	5d		 pop	 ebp
  00059	c2 14 00	 ret	 20			; 00000014H
$LN3@OnItemTran:

; 1967 : 		return;
; 1968 : 	}
; 1969 : 
; 1970 : 	if( bCash )

  0005c	83 7d 18 00	 cmp	 DWORD PTR _bCash$[ebp], 0
  00060	0f 84 a9 00 00
	00		 je	 $LN12@OnItemTran

; 1971 : 	{
; 1972 : 		CItemElem* pItemElemTransy = pUser->m_Inventory.GetAtId( objidTransy );

  00066	ff 75 10	 push	 DWORD PTR _objidTransy$[ebp]
  00069	8d 8f fc 0a 00
	00		 lea	 ecx, DWORD PTR [edi+2812]
  0006f	e8 00 00 00 00	 call	 ?GetAtId@?$CItemContainer@VCItemElem@@@@QAEPAVCItemElem@@K@Z ; CItemContainer<CItemElem>::GetAtId
  00074	8b f0		 mov	 esi, eax

; 1973 : 		if( !IsUsableItem( pItemElemTransy ) )

  00076	56		 push	 esi
  00077	e8 00 00 00 00	 call	 ?IsUsableItem@@YAHPAVCItemBase@@@Z ; IsUsableItem
  0007c	83 c4 04	 add	 esp, 4
  0007f	85 c0		 test	 eax, eax
  00081	0f 84 88 00 00
	00		 je	 $LN12@OnItemTran

; 1974 : 			return;
; 1975 : 
; 1976 : 		// └ńĘß░Ī Ų«ĘŻ┴÷(ITM)└╬┴÷ ░╦╗ń
; 1977 : 		if( pItemElemTransy->GetProp()->dwID != II_CHR_SYS_SCR_ITEMTRANSY_A && pItemElemTransy->GetProp()->dwID != II_CHR_SYS_SCR_ITEMTRANSY_B )

  00087	8b ce		 mov	 ecx, esi
  00089	e8 00 00 00 00	 call	 ?GetPropA@CItemElem@@QAEPAUItemProp@@XZ ; CItemElem::GetPropA
  0008e	81 38 5c 66 00
	00		 cmp	 DWORD PTR [eax], 26204	; 0000665cH
  00094	74 0f		 je	 SHORT $LN7@OnItemTran
  00096	8b ce		 mov	 ecx, esi
  00098	e8 00 00 00 00	 call	 ?GetPropA@CItemElem@@QAEPAUItemProp@@XZ ; CItemElem::GetPropA
  0009d	81 38 6a 66 00
	00		 cmp	 DWORD PTR [eax], 26218	; 0000666aH
  000a3	75 6a		 jne	 SHORT $LN12@OnItemTran
$LN7@OnItemTran:

; 1978 : 			return;
; 1979 : 		
; 1980 : 		// Ę╣║¦ ░╦╗ń
; 1981 : 		if( pItemElemTransy->GetProp()->dwID == II_CHR_SYS_SCR_ITEMTRANSY_A )

  000a5	8b ce		 mov	 ecx, esi
  000a7	e8 00 00 00 00	 call	 ?GetPropA@CItemElem@@QAEPAUItemProp@@XZ ; CItemElem::GetPropA
  000ac	8b cb		 mov	 ecx, ebx
  000ae	81 38 5c 66 00
	00		 cmp	 DWORD PTR [eax], 26204	; 0000665cH
  000b4	75 10		 jne	 SHORT $LN8@OnItemTran

; 1982 : 		{
; 1983 : 			if( pItemElemTarget->GetProp()->dwLimitLevel1 > 60 )

  000b6	e8 00 00 00 00	 call	 ?GetPropA@CItemElem@@QAEPAUItemProp@@XZ ; CItemElem::GetPropA
  000bb	83 b8 30 02 00
	00 3c		 cmp	 DWORD PTR [eax+560], 60	; 0000003cH
  000c2	77 4b		 ja	 SHORT $LN12@OnItemTran

; 1984 : 				return;
; 1985 : 		}

  000c4	eb 0e		 jmp	 SHORT $LN11@OnItemTran
$LN8@OnItemTran:

; 1986 : 		else
; 1987 : 		{
; 1988 : 			if( pItemElemTarget->GetProp()->dwLimitLevel1 < 61 )

  000c6	e8 00 00 00 00	 call	 ?GetPropA@CItemElem@@QAEPAUItemProp@@XZ ; CItemElem::GetPropA
  000cb	83 b8 30 02 00
	00 3d		 cmp	 DWORD PTR [eax+560], 61	; 0000003dH
  000d2	72 3b		 jb	 SHORT $LN12@OnItemTran
$LN11@OnItemTran:

; 1989 : 				return;
; 1990 : 		}
; 1991 : 
; 1992 : 		if( RunItemTransy( pUser, pItemElemTarget, dwChangeId ) )

  000d4	ff 75 14	 push	 DWORD PTR _dwChangeId$[ebp]
  000d7	8b 4d fc	 mov	 ecx, DWORD PTR _this$1$[ebp]
  000da	53		 push	 ebx
  000db	57		 push	 edi
  000dc	e8 00 00 00 00	 call	 ?RunItemTransy@CItemUpgrade@@AAEHPAVCUser@@PAVCItemElem@@K@Z ; CItemUpgrade::RunItemTransy
  000e1	85 c0		 test	 eax, eax
  000e3	74 2a		 je	 SHORT $LN12@OnItemTran

; 1993 : 		{
; 1994 : 			g_dpDBClient.SendLogSMItemUse( "1", pUser, pItemElemTransy, pItemElemTransy->GetProp(), "RemoveItem" );	

  000e5	68 00 00 00 00	 push	 OFFSET ??_C@_0L@NPPDFLAM@RemoveItem@
  000ea	8b ce		 mov	 ecx, esi
  000ec	e8 00 00 00 00	 call	 ?GetPropA@CItemElem@@QAEPAUItemProp@@XZ ; CItemElem::GetPropA
  000f1	50		 push	 eax
  000f2	56		 push	 esi
  000f3	57		 push	 edi
  000f4	68 00 00 00 00	 push	 OFFSET ??_C@_01HIHLOKLC@1@
  000f9	b9 00 00 00 00	 mov	 ecx, OFFSET ?g_dpDBClient@@3VCDPDatabaseClient@@A ; g_dpDBClient
  000fe	e8 00 00 00 00	 call	 ?SendLogSMItemUse@CDPDatabaseClient@@QAEXPBDPAVCUser@@PAVCItemElem@@PAUItemProp@@0@Z ; CDPDatabaseClient::SendLogSMItemUse

; 1995 : 			pUser->RemoveItem( (BYTE)( objidTransy ), (short)1 );		// ▒Ō┴Ė ŠŲ└╠┼█ └ńĘß ╗Ķ┴”

  00103	6a 01		 push	 1
  00105	ff 75 10	 push	 DWORD PTR _objidTransy$[ebp]
  00108	8b cf		 mov	 ecx, edi
  0010a	e8 00 00 00 00	 call	 ?RemoveItem@CMover@@QAEXEF@Z ; CMover::RemoveItem
$LN12@OnItemTran:

; 1996 : 		}
; 1997 : 	}
; 1998 : 	else
; 1999 : 	{
; 2000 : 		//	mulcom	BEGIN100312	Ųõ│─Ę╬ ŠŲ└╠┼█ Ų«Ę╗┴÷ ▒▌┴÷.
; 2001 : 		#ifdef	__ITEMTRANSY_PENYA
; 2002 : 			int nPayPenya = 0;
; 2003 : 			if( pItemElemTarget->GetProp()->dwLimitLevel1 < 61 )
; 2004 : 				nPayPenya = m_nItemTransyLowLevel;
; 2005 : 			else
; 2006 : 				nPayPenya = m_nItemTransyHighLevel;
; 2007 : 
; 2008 : 			if( pUser->GetGold() < nPayPenya || objidTransy != NULL_ID )
; 2009 : 			{
; 2010 : 				pUser->AddDefinedText( TID_GAME_LACKMONEY );
; 2011 : 				return;
; 2012 : 			}
; 2013 : 
; 2014 : 			if( RunItemTransy( pUser, pItemElemTarget, dwChangeId ) )
; 2015 : 			{
; 2016 : 				pUser->AddGold( -nPayPenya );
; 2017 : 				g_DPSrvr.PutPenyaLog( pUser, "O", "TRANSYITEM_PAY", nPayPenya );
; 2018 : 			}
; 2019 : 		#endif
; 2020 : 		//	mulcom	END100312	Ųõ│─Ę╬ ŠŲ└╠┼█ Ų«Ę╗┴÷ ▒▌┴÷.
; 2021 : 	}
; 2022 : }

  0010f	5f		 pop	 edi
  00110	5e		 pop	 esi
  00111	5b		 pop	 ebx
  00112	8b e5		 mov	 esp, ebp
  00114	5d		 pop	 ebp
  00115	c2 14 00	 ret	 20			; 00000014H
?OnItemTransy@CItemUpgrade@@QAEXPAVCUser@@KKKH@Z ENDP	; CItemUpgrade::OnItemTransy
_TEXT	ENDS
; Function compile flags: /Ogtp
; File C:\IAGOS\server\v18\Source\Source\WorldServer\ItemUpgrade.cpp
; File C:\IAGOS\server\v18\Source\Source\_Common\Mover.h
; File C:\IAGOS\server\v18\Source\Source\WorldServer\ItemUpgrade.cpp
; File C:\IAGOS\server\v18\Source\Source\_Common\Obj.h
; File C:\IAGOS\server\v18\Source\Source\WorldServer\ItemUpgrade.cpp
; File C:\IAGOS\server\v18\Source\Source\_Common\Obj.h
; File C:\IAGOS\server\v18\Source\Source\WorldServer\ItemUpgrade.cpp
; File C:\IAGOS\server\v18\Source\Source\_Common\Obj.h
; File C:\IAGOS\server\v18\Source\Source\WorldServer\ItemUpgrade.cpp
;	COMDAT ?ChangeAttribute@CItemUpgrade@@QAEXPAVCUser@@KKW4ePropType@SAI79@@@Z
_TEXT	SEGMENT
$T1 = -252						; size = 12
$T2 = -240						; size = 12
$T3 = -228						; size = 12
_dwTargetItem$GSCopy$1$ = -216				; size = 4
_dwUseItem$GSCopy$1$ = -212				; size = 4
_pUseItemElem$1$ = -208					; size = 4
_aLogItem$4 = -204					; size = 200
__$ArrayPad$ = -4					; size = 4
_pUser$ = 8						; size = 4
_dwTargetItem$ = 12					; size = 4
_dwUseItem$ = 16					; size = 4
_nAttribute$ = 20					; size = 4
?ChangeAttribute@CItemUpgrade@@QAEXPAVCUser@@KKW4ePropType@SAI79@@@Z PROC ; CItemUpgrade::ChangeAttribute, COMDAT
; _this$ = ecx

; 1823 : {

  00000	55		 push	 ebp
  00001	8b ec		 mov	 ebp, esp
  00003	81 ec fc 00 00
	00		 sub	 esp, 252		; 000000fcH
  00009	a1 00 00 00 00	 mov	 eax, DWORD PTR ___security_cookie
  0000e	33 c5		 xor	 eax, ebp
  00010	89 45 fc	 mov	 DWORD PTR __$ArrayPad$[ebp], eax
  00013	8b 45 0c	 mov	 eax, DWORD PTR _dwTargetItem$[ebp]
  00016	8b 4d 10	 mov	 ecx, DWORD PTR _dwUseItem$[ebp]
  00019	53		 push	 ebx
  0001a	56		 push	 esi
  0001b	8b 75 08	 mov	 esi, DWORD PTR _pUser$[ebp]
  0001e	57		 push	 edi
  0001f	89 8d 2c ff ff
	ff		 mov	 DWORD PTR _dwUseItem$GSCopy$1$[ebp], ecx

; 1824 : 	CItemElem* pTargetItemElem	= pUser->m_Inventory.GetAtId( dwTargetItem );

  00025	50		 push	 eax
  00026	8d 8e fc 0a 00
	00		 lea	 ecx, DWORD PTR [esi+2812]
  0002c	89 85 28 ff ff
	ff		 mov	 DWORD PTR _dwTargetItem$GSCopy$1$[ebp], eax
  00032	e8 00 00 00 00	 call	 ?GetAtId@?$CItemContainer@VCItemElem@@@@QAEPAVCItemElem@@K@Z ; CItemContainer<CItemElem>::GetAtId

; 1825 : 	CItemElem* pUseItemElem = pUser->m_Inventory.GetAtId( dwUseItem );		

  00037	ff b5 2c ff ff
	ff		 push	 DWORD PTR _dwUseItem$GSCopy$1$[ebp]
  0003d	8d 8e fc 0a 00
	00		 lea	 ecx, DWORD PTR [esi+2812]
  00043	8b f8		 mov	 edi, eax
  00045	e8 00 00 00 00	 call	 ?GetAtId@?$CItemContainer@VCItemElem@@@@QAEPAVCItemElem@@K@Z ; CItemContainer<CItemElem>::GetAtId

; 1826 : 
; 1827 : 	if( pUser->m_vtInfo.GetOther() )	// ░┼ĘĪ┴▀└╬ ┤ļ╗¾└╠ └ų└ĖĖķ?

  0004a	8d 8e 98 0c 00
	00		 lea	 ecx, DWORD PTR [esi+3224]
  00050	89 85 30 ff ff
	ff		 mov	 DWORD PTR _pUseItemElem$1$[ebp], eax
  00056	e8 00 00 00 00	 call	 ?GetOther@CVTInfo@@QAEPAVCMover@@XZ ; CVTInfo::GetOther
  0005b	85 c0		 test	 eax, eax
  0005d	0f 85 34 02 00
	00		 jne	 $LN10@ChangeAttr

; 1828 : 		return;
; 1829 : 	if( pUser->m_vtInfo.VendorIsVendor() )		// │╗░Ī Ų╚░Ē └ų└ĖĖķ?

  00063	8d 8e 98 0c 00
	00		 lea	 ecx, DWORD PTR [esi+3224]
  00069	e8 00 00 00 00	 call	 ?VendorIsVendor@CVTInfo@@QAEHXZ ; CVTInfo::VendorIsVendor
  0006e	85 c0		 test	 eax, eax
  00070	0f 85 21 02 00
	00		 jne	 $LN10@ChangeAttr

; 1830 : 		return;
; 1831 : 
; 1832 : #if __VER >= 11 // __SYS_COLLECTING
; 1833 : #if __VER < 14 // __SMELT_SAFETY
; 1834 : 	if( pUser->PreRefine( dwTargetItem, dwUseItem ) )
; 1835 : 		return;
; 1836 : #endif // __SMELT_SAFETY
; 1837 : #endif	// __SYS_COLLECTING
; 1838 : 	if( !IsUsableItem( pTargetItemElem ) || !IsUsableItem( pUseItemElem ) )

  00076	57		 push	 edi
  00077	e8 00 00 00 00	 call	 ?IsUsableItem@@YAHPAVCItemBase@@@Z ; IsUsableItem
  0007c	83 c4 04	 add	 esp, 4
  0007f	85 c0		 test	 eax, eax
  00081	0f 84 10 02 00
	00		 je	 $LN10@ChangeAttr
  00087	ff b5 30 ff ff
	ff		 push	 DWORD PTR _pUseItemElem$1$[ebp]
  0008d	e8 00 00 00 00	 call	 ?IsUsableItem@@YAHPAVCItemBase@@@Z ; IsUsableItem
  00092	83 c4 04	 add	 esp, 4
  00095	85 c0		 test	 eax, eax
  00097	0f 84 fa 01 00
	00		 je	 $LN10@ChangeAttr

; 1839 : 		return;
; 1840 : 
; 1841 : 	// ┤ļ╗¾└╠ └Õ┬°┴▀└╬░Ī?
; 1842 : 	if( pUser->m_Inventory.IsEquip( dwTargetItem ) )

  0009d	ff b5 28 ff ff
	ff		 push	 DWORD PTR _dwTargetItem$GSCopy$1$[ebp]
  000a3	8d 8e fc 0a 00
	00		 lea	 ecx, DWORD PTR [esi+2812]
  000a9	e8 00 00 00 00	 call	 ?IsEquip@?$CItemContainer@VCItemElem@@@@QAEHK@Z ; CItemContainer<CItemElem>::IsEquip
  000ae	85 c0		 test	 eax, eax
  000b0	74 26		 je	 SHORT $LN6@ChangeAttr

; 1843 : 	{
; 1844 : 		pUser->AddDefinedText( TID_GAME_EQUIPPUT , "" );

  000b2	68 00 00 00 00	 push	 OFFSET ??_C@_00CNPNBAHC@@
  000b7	68 c2 03 00 00	 push	 962			; 000003c2H
  000bc	56		 push	 esi
  000bd	e8 00 00 00 00	 call	 ?AddDefinedText@CUser@@QAAXHPBDZZ ; CUser::AddDefinedText
  000c2	83 c4 0c	 add	 esp, 12			; 0000000cH
  000c5	5f		 pop	 edi

; 1886 : }

  000c6	5e		 pop	 esi
  000c7	5b		 pop	 ebx
  000c8	8b 4d fc	 mov	 ecx, DWORD PTR __$ArrayPad$[ebp]
  000cb	33 cd		 xor	 ecx, ebp
  000cd	e8 00 00 00 00	 call	 @__security_check_cookie@4
  000d2	8b e5		 mov	 esp, ebp
  000d4	5d		 pop	 ebp
  000d5	c2 10 00	 ret	 16			; 00000010H
$LN6@ChangeAttr:

; 1845 : 		return;
; 1846 : 	}
; 1847 : 	
; 1848 : 	if( !CItemElem::IsEleRefineryAble( pTargetItemElem->GetProp() ) )	// ╝ė╝║┴”Ę├ ░Ī┤╔Ūč ŠŲ└╠┼█└╠ ŠŲ┤Ž┐õ..

  000d8	8b cf		 mov	 ecx, edi
  000da	e8 00 00 00 00	 call	 ?GetPropA@CItemElem@@QAEPAUItemProp@@XZ ; CItemElem::GetPropA
  000df	50		 push	 eax
  000e0	e8 00 00 00 00	 call	 ?IsEleRefineryAble@CItemElem@@SAHPAUItemProp@@@Z ; CItemElem::IsEleRefineryAble
  000e5	83 c4 04	 add	 esp, 4
  000e8	85 c0		 test	 eax, eax
  000ea	0f 84 a7 01 00
	00		 je	 $LN10@ChangeAttr

; 1849 : 		return;
; 1850 : 
; 1851 : 	if( pUseItemElem->m_dwItemId != II_SYS_SYS_SCR_SOKCHANG )	// ╝ė╝║║»░µ ŠŲ└╠┼█└╠ ŠŲ┤Ž│ū...

  000f0	8b 85 30 ff ff
	ff		 mov	 eax, DWORD PTR _pUseItemElem$1$[ebp]
  000f6	81 78 0c 45 4e
	00 00		 cmp	 DWORD PTR [eax+12], 20037 ; 00004e45H
  000fd	0f 85 94 01 00
	00		 jne	 $LN10@ChangeAttr

; 1852 : 		return;
; 1853 : 
; 1854 : 	if( nAttribute >= SAI79::END_PROP || nAttribute <= SAI79::NO_PROP )

  00103	8b 5d 14	 mov	 ebx, DWORD PTR _nAttribute$[ebp]
  00106	8d 43 ff	 lea	 eax, DWORD PTR [ebx-1]
  00109	83 f8 04	 cmp	 eax, 4
  0010c	0f 87 85 01 00
	00		 ja	 $LN10@ChangeAttr

; 1855 : 		return;
; 1856 : 
; 1857 : 	if( pTargetItemElem->m_bItemResist == nAttribute )	// ░░└║ ╝ė╝║└╬ ░µ┐ņ ╝ė╝║║»░µ ║ę░Ī!!

  00112	8a 57 7c	 mov	 dl, BYTE PTR [edi+124]
  00115	0f b6 c2	 movzx	 eax, dl
  00118	3b c3		 cmp	 eax, ebx
  0011a	75 0a		 jne	 SHORT $LN11@ChangeAttr

; 1858 : 	{
; 1859 : 		pUser->AddDefinedText( TID_GAME_NOCHANGE_SAME_ATTRIBUTE );

  0011c	68 06 10 00 00	 push	 4102			; 00001006H

; 1860 : 		return;

  00121	e9 6a 01 00 00	 jmp	 $LN45@ChangeAttr
$LN11@ChangeAttr:

; 1861 : 	}
; 1862 : 	
; 1863 : 	if( (pTargetItemElem->m_bItemResist != SAI79::NO_PROP) && (pTargetItemElem->m_nResistAbilityOption > 0) )

  00126	84 d2		 test	 dl, dl
  00128	0f 84 5d 01 00
	00		 je	 $LN12@ChangeAttr
  0012e	83 bf 80 00 00
	00 00		 cmp	 DWORD PTR [edi+128], 0
  00135	0f 8e 50 01 00
	00		 jle	 $LN12@ChangeAttr

; 1864 : 	{
; 1865 : 		pUser->AddPlaySound( SND_INF_UPGRADESUCCESS );

  0013b	6a 0e		 push	 14			; 0000000eH
  0013d	8b ce		 mov	 ecx, esi
  0013f	e8 00 00 00 00	 call	 ?AddPlaySound@CUser@@QAEXK@Z ; CUser::AddPlaySound
; File C:\IAGOS\server\v18\Source\Source\_Common\Mover.h

; 1740 : 		if( GetAdjParam(DST_CHRSTATE) & CHS_INVISIBILITY )	// ĖČ╣²┼§ĖĒ╚Ł░Ī ░╔Ę╚┤┬░Ī?

  00144	6a 40		 push	 64			; 00000040H
  00146	8b ce		 mov	 ecx, esi
  00148	e8 00 00 00 00	 call	 ?GetAdjParam@CMover@@QAEHH@Z ; CMover::GetAdjParam
  0014d	a9 00 04 00 00	 test	 eax, 1024		; 00000400H
  00152	75 7f		 jne	 SHORT $LN14@ChangeAttr
; File C:\IAGOS\server\v18\Source\Source\WorldServer\ItemUpgrade.cpp

; 1866 : 		if( ( pUser->IsMode( TRANSPARENT_MODE ) ) == 0 )

  00154	f6 86 40 02 00
	00 02		 test	 BYTE PTR [esi+576], 2
  0015b	75 76		 jne	 SHORT $LN14@ChangeAttr
; File C:\IAGOS\server\v18\Source\Source\_Common\Obj.h

; 215  : 	D3DXVECTOR3		GetPos()	{ return m_vPos; }

  0015d	f3 0f 7e 86 60
	01 00 00	 movq	 xmm0, QWORD PTR [esi+352]
; File C:\IAGOS\server\v18\Source\Source\WorldServer\ItemUpgrade.cpp

; 1867 : 			g_UserMng.AddCreateSfxObj((CMover *)pUser, XI_INT_SUCCESS, pUser->GetPos().x, pUser->GetPos().y, pUser->GetPos().z);

  00165	b9 00 00 00 00	 mov	 ecx, OFFSET ?g_UserMng@@3VCUserMng@@A ; g_UserMng
; File C:\IAGOS\server\v18\Source\Source\_Common\Obj.h

; 215  : 	D3DXVECTOR3		GetPos()	{ return m_vPos; }

  0016a	8b 86 68 01 00
	00		 mov	 eax, DWORD PTR [esi+360]
  00170	66 0f d6 85 1c
	ff ff ff	 movq	 QWORD PTR $T3[ebp], xmm0
  00178	f3 0f 7e c0	 movq	 xmm0, xmm0
  0017c	66 0f d6 85 10
	ff ff ff	 movq	 QWORD PTR $T2[ebp], xmm0
  00184	f3 0f 7e 86 60
	01 00 00	 movq	 xmm0, QWORD PTR [esi+352]
; File C:\IAGOS\server\v18\Source\Source\WorldServer\ItemUpgrade.cpp

; 1867 : 			g_UserMng.AddCreateSfxObj((CMover *)pUser, XI_INT_SUCCESS, pUser->GetPos().x, pUser->GetPos().y, pUser->GetPos().z);

  0018c	6a 00		 push	 0
  0018e	83 ec 0c	 sub	 esp, 12			; 0000000cH
; File C:\IAGOS\server\v18\Source\Source\_Common\Obj.h

; 215  : 	D3DXVECTOR3		GetPos()	{ return m_vPos; }

  00191	66 0f d6 85 04
	ff ff ff	 movq	 QWORD PTR $T1[ebp], xmm0
  00199	89 85 24 ff ff
	ff		 mov	 DWORD PTR $T3[ebp+8], eax
; File C:\IAGOS\server\v18\Source\Source\WorldServer\ItemUpgrade.cpp

; 1867 : 			g_UserMng.AddCreateSfxObj((CMover *)pUser, XI_INT_SUCCESS, pUser->GetPos().x, pUser->GetPos().y, pUser->GetPos().z);

  0019f	f3 0f 10 85 24
	ff ff ff	 movss	 xmm0, DWORD PTR $T3[ebp+8]
  001a7	f3 0f 11 44 24
	08		 movss	 DWORD PTR [esp+8], xmm0
  001ad	f3 0f 10 85 14
	ff ff ff	 movss	 xmm0, DWORD PTR $T2[ebp+4]
  001b5	f3 0f 11 44 24
	04		 movss	 DWORD PTR [esp+4], xmm0
  001bb	f3 0f 10 85 04
	ff ff ff	 movss	 xmm0, DWORD PTR $T1[ebp]
  001c3	f3 0f 11 04 24	 movss	 DWORD PTR [esp], xmm0
  001c8	68 b2 06 00 00	 push	 1714			; 000006b2H
  001cd	56		 push	 esi
  001ce	e8 00 00 00 00	 call	 ?AddCreateSfxObj@CUserMng@@QAEXPAVCCtrl@@KMMMH@Z ; CUserMng::AddCreateSfxObj
$LN14@ChangeAttr:

; 1868 : 		pUser->UpdateItem( (BYTE)pTargetItemElem->m_dwObjId, UI_IR,  nAttribute );	// ╝ė╝║ ║»░µ

  001d3	0f b6 47 04	 movzx	 eax, BYTE PTR [edi+4]
  001d7	8b ce		 mov	 ecx, esi
  001d9	6a 00		 push	 0
  001db	53		 push	 ebx
  001dc	6a 05		 push	 5
  001de	50		 push	 eax
  001df	e8 00 00 00 00	 call	 ?UpdateItem@CMover@@QAEXEDKK@Z ; CMover::UpdateItem

; 1869 : 
; 1870 : 		// ╝ė╝║┴”Ę├ ║»░µ ╝║░° Ę╬▒ū
; 1871 : 		LogItemInfo aLogItem;

  001e4	8d 8d 34 ff ff
	ff		 lea	 ecx, DWORD PTR _aLogItem$4[ebp]
  001ea	e8 00 00 00 00	 call	 ??0_LogItemInfo@@QAE@XZ	; _LogItemInfo::_LogItemInfo

; 1872 : 		aLogItem.SendName = pUser->GetName();

  001ef	6a 00		 push	 0
  001f1	8b ce		 mov	 ecx, esi
  001f3	e8 00 00 00 00	 call	 ?GetName@CMover@@QAEPBDH@Z ; CMover::GetName
  001f8	89 85 38 ff ff
	ff		 mov	 DWORD PTR _aLogItem$4[ebp+4], eax

; 1873 : 		aLogItem.RecvName = "CHANGE_ATTRIBUTE_TARGET";
; 1874 : 		aLogItem.WorldId = pUser->GetWorld()->GetID();
; 1875 : 		aLogItem.Gold = pUser->GetGold();
; 1876 : 		aLogItem.Gold2 = pUser->GetGold();
; 1877 : 		aLogItem.Action = "O";
; 1878 : 		g_DPSrvr.OnLogItem( aLogItem, pTargetItemElem );

  001fe	b9 00 00 00 00	 mov	 ecx, OFFSET ?g_DPSrvr@@3VCDPSrvr@@A ; g_DPSrvr
  00203	8b 86 6c 01 00
	00		 mov	 eax, DWORD PTR [esi+364]
  00209	c7 85 3c ff ff
	ff 00 00 00 00	 mov	 DWORD PTR _aLogItem$4[ebp+8], OFFSET ??_C@_0BI@KEPNAMED@CHANGE_ATTRIBUTE_TARGET@
  00213	6a 00		 push	 0
  00215	57		 push	 edi
  00216	8b 00		 mov	 eax, DWORD PTR [eax]
  00218	89 85 40 ff ff
	ff		 mov	 DWORD PTR _aLogItem$4[ebp+12], eax
  0021e	8b 86 e0 14 00
	00		 mov	 eax, DWORD PTR [esi+5344]
  00224	89 85 44 ff ff
	ff		 mov	 DWORD PTR _aLogItem$4[ebp+16], eax
  0022a	89 85 48 ff ff
	ff		 mov	 DWORD PTR _aLogItem$4[ebp+20], eax
  00230	8d 85 34 ff ff
	ff		 lea	 eax, DWORD PTR _aLogItem$4[ebp]
  00236	50		 push	 eax
  00237	c7 85 34 ff ff
	ff 00 00 00 00	 mov	 DWORD PTR _aLogItem$4[ebp], OFFSET ??_C@_01MJMHLOMK@O@
  00241	e8 00 00 00 00	 call	 ?OnLogItem@CDPSrvr@@QAEXAAU_LogItemInfo@@PAVCItemElem@@H@Z ; CDPSrvr::OnLogItem

; 1879 : 		
; 1880 : 		aLogItem.RecvName = "CHANGE_ATTRIBUTE_MATERIAL";
; 1881 : 		g_DPSrvr.OnLogItem( aLogItem, pUseItemElem );

  00246	6a 00		 push	 0
  00248	ff b5 30 ff ff
	ff		 push	 DWORD PTR _pUseItemElem$1$[ebp]
  0024e	8d 85 34 ff ff
	ff		 lea	 eax, DWORD PTR _aLogItem$4[ebp]
  00254	c7 85 3c ff ff
	ff 00 00 00 00	 mov	 DWORD PTR _aLogItem$4[ebp+8], OFFSET ??_C@_0BK@KBLOLHCF@CHANGE_ATTRIBUTE_MATERIAL@
  0025e	50		 push	 eax
  0025f	b9 00 00 00 00	 mov	 ecx, OFFSET ?g_DPSrvr@@3VCDPSrvr@@A ; g_DPSrvr
  00264	e8 00 00 00 00	 call	 ?OnLogItem@CDPSrvr@@QAEXAAU_LogItemInfo@@PAVCItemElem@@H@Z ; CDPSrvr::OnLogItem

; 1882 : 		pUser->RemoveItem( (BYTE)( dwUseItem ), 1 );	// └»Ęß ŠŲ└╠┼█ ╗Ķ┴”

  00269	6a 01		 push	 1
  0026b	ff b5 2c ff ff
	ff		 push	 DWORD PTR _dwUseItem$GSCopy$1$[ebp]
  00271	8b ce		 mov	 ecx, esi
  00273	e8 00 00 00 00	 call	 ?RemoveItem@CMover@@QAEXEF@Z ; CMover::RemoveItem
  00278	5f		 pop	 edi

; 1886 : }

  00279	5e		 pop	 esi
  0027a	5b		 pop	 ebx
  0027b	8b 4d fc	 mov	 ecx, DWORD PTR __$ArrayPad$[ebp]
  0027e	33 cd		 xor	 ecx, ebp
  00280	e8 00 00 00 00	 call	 @__security_check_cookie@4
  00285	8b e5		 mov	 esp, ebp
  00287	5d		 pop	 ebp
  00288	c2 10 00	 ret	 16			; 00000010H
$LN12@ChangeAttr:

; 1883 : 	}
; 1884 : 	else
; 1885 : 		pUser->AddDefinedText( TID_GAME_NOTELEMENT );

  0028b	68 47 09 00 00	 push	 2375			; 00000947H
$LN45@ChangeAttr:

; 1886 : }

  00290	8b ce		 mov	 ecx, esi
  00292	e8 00 00 00 00	 call	 ?AddDefinedText@CUser@@QAEXH@Z ; CUser::AddDefinedText
$LN10@ChangeAttr:
  00297	8b 4d fc	 mov	 ecx, DWORD PTR __$ArrayPad$[ebp]
  0029a	5f		 pop	 edi
  0029b	5e		 pop	 esi
  0029c	33 cd		 xor	 ecx, ebp
  0029e	5b		 pop	 ebx
  0029f	e8 00 00 00 00	 call	 @__security_check_cookie@4
  002a4	8b e5		 mov	 esp, ebp
  002a6	5d		 pop	 ebp
  002a7	c2 10 00	 ret	 16			; 00000010H
?ChangeAttribute@CItemUpgrade@@QAEXPAVCUser@@KKW4ePropType@SAI79@@@Z ENDP ; CItemUpgrade::ChangeAttribute
_TEXT	ENDS
; Function compile flags: /Ogtp
; File C:\IAGOS\server\v18\Source\Source\WorldServer\ItemUpgrade.cpp
; File C:\Program Files\Microsoft Visual Studio\2022\Professional\VC\Tools\MSVC\14.44.35207\include\xtree
; File C:\IAGOS\server\v18\Source\Source\WorldServer\ItemUpgrade.cpp
; File C:\Program Files\Microsoft Visual Studio\2022\Professional\VC\Tools\MSVC\14.44.35207\include\xtree
; File C:\IAGOS\server\v18\Source\Source\WorldServer\ItemUpgrade.cpp
; File C:\Program Files\Microsoft Visual Studio\2022\Professional\VC\Tools\MSVC\14.44.35207\include\xtree
; File C:\Program Files\Microsoft Visual Studio\2022\Professional\VC\Tools\MSVC\14.44.35207\include\type_traits
; File C:\Program Files\Microsoft Visual Studio\2022\Professional\VC\Tools\MSVC\14.44.35207\include\xtree
; File C:\IAGOS\server\v18\Source\Source\WorldServer\ItemUpgrade.cpp
;	COMDAT ?GetAttributeAddAtkDmgFactor@CItemUpgrade@@QAEHH@Z
_TEXT	SEGMENT
__Loc$1 = -12						; size = 12
_nAbilityOption$ = 8					; size = 4
?GetAttributeAddAtkDmgFactor@CItemUpgrade@@QAEHH@Z PROC	; CItemUpgrade::GetAttributeAddAtkDmgFactor, COMDAT
; _this$ = ecx

; 1923 : {

  00000	55		 push	 ebp
  00001	8b ec		 mov	 ebp, esp
  00003	83 ec 0c	 sub	 esp, 12			; 0000000cH
  00006	56		 push	 esi

; 1924 : 	if( nAbilityOption > GetMaxAttributeEnchantSize() )

  00007	8b 75 08	 mov	 esi, DWORD PTR _nAbilityOption$[ebp]
; File C:\Program Files\Microsoft Visual Studio\2022\Professional\VC\Tools\MSVC\14.44.35207\include\xtree

; 1384 :         const _Tree_find_result<_Nodeptr> _Loc = _Find_lower_bound(_Keyval);

  0000a	8d 45 08	 lea	 eax, DWORD PTR _nAbilityOption$[ebp]
; File C:\IAGOS\server\v18\Source\Source\WorldServer\ItemUpgrade.cpp

; 1924 : 	if( nAbilityOption > GetMaxAttributeEnchantSize() )

  0000d	3b 71 24	 cmp	 esi, DWORD PTR [ecx+36]
  00010	57		 push	 edi
  00011	0f 4f 71 24	 cmovg	 esi, DWORD PTR [ecx+36]

; 1925 : 		nAbilityOption = GetMaxAttributeEnchantSize();
; 1926 : 
; 1927 : 	map<int, __ATTRIBUTE_ENCHANT>::iterator it = m_mapAttributeEnchant.find( nAbilityOption );

  00015	8d 79 20	 lea	 edi, DWORD PTR [ecx+32]
; File C:\Program Files\Microsoft Visual Studio\2022\Professional\VC\Tools\MSVC\14.44.35207\include\xtree

; 1384 :         const _Tree_find_result<_Nodeptr> _Loc = _Find_lower_bound(_Keyval);

  00018	50		 push	 eax
  00019	8d 45 f4	 lea	 eax, DWORD PTR __Loc$1[ebp]
; File C:\IAGOS\server\v18\Source\Source\WorldServer\ItemUpgrade.cpp

; 1924 : 	if( nAbilityOption > GetMaxAttributeEnchantSize() )

  0001c	89 75 08	 mov	 DWORD PTR _nAbilityOption$[ebp], esi
; File C:\Program Files\Microsoft Visual Studio\2022\Professional\VC\Tools\MSVC\14.44.35207\include\xtree

; 1384 :         const _Tree_find_result<_Nodeptr> _Loc = _Find_lower_bound(_Keyval);

  0001f	50		 push	 eax
  00020	8b cf		 mov	 ecx, edi
  00022	e8 00 00 00 00	 call	 ??$_Find_lower_bound@H@?$_Tree@V?$_Tmap_traits@HU__ATTRIBUTE_ENCHANT@@U?$less@H@std@@V?$allocator@U?$pair@$$CBHU__ATTRIBUTE_ENCHANT@@@std@@@3@$0A@@std@@@std@@IBE?AU?$_Tree_find_result@PAU?$_Tree_node@U?$pair@$$CBHU__ATTRIBUTE_ENCHANT@@@std@@PAX@std@@@1@ABH@Z ; std::_Tree<std::_Tmap_traits<int,__ATTRIBUTE_ENCHANT,std::less<int>,std::allocator<std::pair<int const ,__ATTRIBUTE_ENCHANT> >,0> >::_Find_lower_bound<int>

; 1624 :         return !_Bound->_Isnil && !_DEBUG_LT_PRED(_Getcomp(), _Keyval, _Traits::_Kfn(_Bound->_Myval));

  00027	8b 45 fc	 mov	 eax, DWORD PTR __Loc$1[ebp+8]
  0002a	80 78 0d 00	 cmp	 BYTE PTR [eax+13], 0
  0002e	75 14		 jne	 SHORT $LN3@GetAttribu
; File C:\Program Files\Microsoft Visual Studio\2022\Professional\VC\Tools\MSVC\14.44.35207\include\type_traits

; 2380 :         return _Left < _Right;

  00030	3b 70 10	 cmp	 esi, DWORD PTR [eax+16]
; File C:\Program Files\Microsoft Visual Studio\2022\Professional\VC\Tools\MSVC\14.44.35207\include\xtree

; 1624 :         return !_Bound->_Isnil && !_DEBUG_LT_PRED(_Getcomp(), _Keyval, _Traits::_Kfn(_Bound->_Myval));

  00033	7c 0f		 jl	 SHORT $LN3@GetAttribu

; 37   :     _Tree_unchecked_const_iterator(_Nodeptr _Pnode, const _Mytree* _Plist) noexcept : _Ptr(_Pnode) {

  00035	3b 07		 cmp	 eax, DWORD PTR [edi]
; File C:\IAGOS\server\v18\Source\Source\WorldServer\ItemUpgrade.cpp

; 1928 : 	if( it != m_mapAttributeEnchant.end() )

  00037	74 0b		 je	 SHORT $LN3@GetAttribu

; 1929 : 		return it->second.nAddAtkDmgRate;

  00039	8b 40 20	 mov	 eax, DWORD PTR [eax+32]
  0003c	5f		 pop	 edi

; 1932 : }

  0003d	5e		 pop	 esi
  0003e	8b e5		 mov	 esp, ebp
  00040	5d		 pop	 ebp
  00041	c2 04 00	 ret	 4
$LN3@GetAttribu:
  00044	5f		 pop	 edi

; 1930 : 
; 1931 : 	return 0;

  00045	33 c0		 xor	 eax, eax

; 1932 : }

  00047	5e		 pop	 esi
  00048	8b e5		 mov	 esp, ebp
  0004a	5d		 pop	 ebp
  0004b	c2 04 00	 ret	 4
?GetAttributeAddAtkDmgFactor@CItemUpgrade@@QAEHH@Z ENDP	; CItemUpgrade::GetAttributeAddAtkDmgFactor
_TEXT	ENDS
; Function compile flags: /Ogtp
; File C:\IAGOS\server\v18\Source\Source\WorldServer\ItemUpgrade.cpp
; File C:\Program Files\Microsoft Visual Studio\2022\Professional\VC\Tools\MSVC\14.44.35207\include\xtree
; File C:\IAGOS\server\v18\Source\Source\WorldServer\ItemUpgrade.cpp
; File C:\Program Files\Microsoft Visual Studio\2022\Professional\VC\Tools\MSVC\14.44.35207\include\xtree
; File C:\IAGOS\server\v18\Source\Source\WorldServer\ItemUpgrade.cpp
; File C:\Program Files\Microsoft Visual Studio\2022\Professional\VC\Tools\MSVC\14.44.35207\include\xtree
; File C:\Program Files\Microsoft Visual Studio\2022\Professional\VC\Tools\MSVC\14.44.35207\include\type_traits
; File C:\Program Files\Microsoft Visual Studio\2022\Professional\VC\Tools\MSVC\14.44.35207\include\xtree
; File C:\IAGOS\server\v18\Source\Source\WorldServer\ItemUpgrade.cpp
;	COMDAT ?GetAttributeDefenseFactor@CItemUpgrade@@QAEHH@Z
_TEXT	SEGMENT
__Loc$1 = -12						; size = 12
_nAbilityOption$ = 8					; size = 4
?GetAttributeDefenseFactor@CItemUpgrade@@QAEHH@Z PROC	; CItemUpgrade::GetAttributeDefenseFactor, COMDAT
; _this$ = ecx

; 1911 : {

  00000	55		 push	 ebp
  00001	8b ec		 mov	 ebp, esp
  00003	83 ec 0c	 sub	 esp, 12			; 0000000cH
  00006	56		 push	 esi

; 1912 : 	if( nAbilityOption > GetMaxAttributeEnchantSize() )

  00007	8b 75 08	 mov	 esi, DWORD PTR _nAbilityOption$[ebp]
; File C:\Program Files\Microsoft Visual Studio\2022\Professional\VC\Tools\MSVC\14.44.35207\include\xtree

; 1384 :         const _Tree_find_result<_Nodeptr> _Loc = _Find_lower_bound(_Keyval);

  0000a	8d 45 08	 lea	 eax, DWORD PTR _nAbilityOption$[ebp]
; File C:\IAGOS\server\v18\Source\Source\WorldServer\ItemUpgrade.cpp

; 1912 : 	if( nAbilityOption > GetMaxAttributeEnchantSize() )

  0000d	3b 71 24	 cmp	 esi, DWORD PTR [ecx+36]
  00010	57		 push	 edi
  00011	0f 4f 71 24	 cmovg	 esi, DWORD PTR [ecx+36]

; 1913 : 		nAbilityOption = GetMaxAttributeEnchantSize();
; 1914 : 
; 1915 : 	map<int, __ATTRIBUTE_ENCHANT>::iterator it = m_mapAttributeEnchant.find( nAbilityOption );

  00015	8d 79 20	 lea	 edi, DWORD PTR [ecx+32]
; File C:\Program Files\Microsoft Visual Studio\2022\Professional\VC\Tools\MSVC\14.44.35207\include\xtree

; 1384 :         const _Tree_find_result<_Nodeptr> _Loc = _Find_lower_bound(_Keyval);

  00018	50		 push	 eax
  00019	8d 45 f4	 lea	 eax, DWORD PTR __Loc$1[ebp]
; File C:\IAGOS\server\v18\Source\Source\WorldServer\ItemUpgrade.cpp

; 1912 : 	if( nAbilityOption > GetMaxAttributeEnchantSize() )

  0001c	89 75 08	 mov	 DWORD PTR _nAbilityOption$[ebp], esi
; File C:\Program Files\Microsoft Visual Studio\2022\Professional\VC\Tools\MSVC\14.44.35207\include\xtree

; 1384 :         const _Tree_find_result<_Nodeptr> _Loc = _Find_lower_bound(_Keyval);

  0001f	50		 push	 eax
  00020	8b cf		 mov	 ecx, edi
  00022	e8 00 00 00 00	 call	 ??$_Find_lower_bound@H@?$_Tree@V?$_Tmap_traits@HU__ATTRIBUTE_ENCHANT@@U?$less@H@std@@V?$allocator@U?$pair@$$CBHU__ATTRIBUTE_ENCHANT@@@std@@@3@$0A@@std@@@std@@IBE?AU?$_Tree_find_result@PAU?$_Tree_node@U?$pair@$$CBHU__ATTRIBUTE_ENCHANT@@@std@@PAX@std@@@1@ABH@Z ; std::_Tree<std::_Tmap_traits<int,__ATTRIBUTE_ENCHANT,std::less<int>,std::allocator<std::pair<int const ,__ATTRIBUTE_ENCHANT> >,0> >::_Find_lower_bound<int>

; 1624 :         return !_Bound->_Isnil && !_DEBUG_LT_PRED(_Getcomp(), _Keyval, _Traits::_Kfn(_Bound->_Myval));

  00027	8b 45 fc	 mov	 eax, DWORD PTR __Loc$1[ebp+8]
  0002a	80 78 0d 00	 cmp	 BYTE PTR [eax+13], 0
  0002e	75 14		 jne	 SHORT $LN3@GetAttribu
; File C:\Program Files\Microsoft Visual Studio\2022\Professional\VC\Tools\MSVC\14.44.35207\include\type_traits

; 2380 :         return _Left < _Right;

  00030	3b 70 10	 cmp	 esi, DWORD PTR [eax+16]
; File C:\Program Files\Microsoft Visual Studio\2022\Professional\VC\Tools\MSVC\14.44.35207\include\xtree

; 1624 :         return !_Bound->_Isnil && !_DEBUG_LT_PRED(_Getcomp(), _Keyval, _Traits::_Kfn(_Bound->_Myval));

  00033	7c 0f		 jl	 SHORT $LN3@GetAttribu

; 37   :     _Tree_unchecked_const_iterator(_Nodeptr _Pnode, const _Mytree* _Plist) noexcept : _Ptr(_Pnode) {

  00035	3b 07		 cmp	 eax, DWORD PTR [edi]
; File C:\IAGOS\server\v18\Source\Source\WorldServer\ItemUpgrade.cpp

; 1916 : 	if( it != m_mapAttributeEnchant.end() )

  00037	74 0b		 je	 SHORT $LN3@GetAttribu

; 1917 : 		return it->second.nDefenseRate;

  00039	8b 40 1c	 mov	 eax, DWORD PTR [eax+28]
  0003c	5f		 pop	 edi

; 1920 : }

  0003d	5e		 pop	 esi
  0003e	8b e5		 mov	 esp, ebp
  00040	5d		 pop	 ebp
  00041	c2 04 00	 ret	 4
$LN3@GetAttribu:
  00044	5f		 pop	 edi

; 1918 : 
; 1919 : 	return 0;

  00045	33 c0		 xor	 eax, eax

; 1920 : }

  00047	5e		 pop	 esi
  00048	8b e5		 mov	 esp, ebp
  0004a	5d		 pop	 ebp
  0004b	c2 04 00	 ret	 4
?GetAttributeDefenseFactor@CItemUpgrade@@QAEHH@Z ENDP	; CItemUpgrade::GetAttributeDefenseFactor
_TEXT	ENDS
; Function compile flags: /Ogtp
; File C:\IAGOS\server\v18\Source\Source\WorldServer\ItemUpgrade.cpp
; File C:\Program Files\Microsoft Visual Studio\2022\Professional\VC\Tools\MSVC\14.44.35207\include\xtree
; File C:\IAGOS\server\v18\Source\Source\WorldServer\ItemUpgrade.cpp
; File C:\Program Files\Microsoft Visual Studio\2022\Professional\VC\Tools\MSVC\14.44.35207\include\xtree
; File C:\IAGOS\server\v18\Source\Source\WorldServer\ItemUpgrade.cpp
; File C:\Program Files\Microsoft Visual Studio\2022\Professional\VC\Tools\MSVC\14.44.35207\include\xtree
; File C:\Program Files\Microsoft Visual Studio\2022\Professional\VC\Tools\MSVC\14.44.35207\include\type_traits
; File C:\Program Files\Microsoft Visual Studio\2022\Professional\VC\Tools\MSVC\14.44.35207\include\xtree
; File C:\IAGOS\server\v18\Source\Source\WorldServer\ItemUpgrade.cpp
;	COMDAT ?GetAttributeDamageFactor@CItemUpgrade@@QAEHH@Z
_TEXT	SEGMENT
__Loc$1 = -12						; size = 12
_nAbilityOption$ = 8					; size = 4
?GetAttributeDamageFactor@CItemUpgrade@@QAEHH@Z PROC	; CItemUpgrade::GetAttributeDamageFactor, COMDAT
; _this$ = ecx

; 1898 : {

  00000	55		 push	 ebp
  00001	8b ec		 mov	 ebp, esp
  00003	83 ec 0c	 sub	 esp, 12			; 0000000cH
  00006	56		 push	 esi

; 1899 : 	if( nAbilityOption > GetMaxAttributeEnchantSize() )

  00007	8b 75 08	 mov	 esi, DWORD PTR _nAbilityOption$[ebp]
; File C:\Program Files\Microsoft Visual Studio\2022\Professional\VC\Tools\MSVC\14.44.35207\include\xtree

; 1384 :         const _Tree_find_result<_Nodeptr> _Loc = _Find_lower_bound(_Keyval);

  0000a	8d 45 08	 lea	 eax, DWORD PTR _nAbilityOption$[ebp]
; File C:\IAGOS\server\v18\Source\Source\WorldServer\ItemUpgrade.cpp

; 1899 : 	if( nAbilityOption > GetMaxAttributeEnchantSize() )

  0000d	3b 71 24	 cmp	 esi, DWORD PTR [ecx+36]
  00010	57		 push	 edi
  00011	0f 4f 71 24	 cmovg	 esi, DWORD PTR [ecx+36]

; 1900 : 		nAbilityOption = GetMaxAttributeEnchantSize();
; 1901 : 
; 1902 : 	map<int, __ATTRIBUTE_ENCHANT>::iterator it = m_mapAttributeEnchant.find( nAbilityOption );

  00015	8d 79 20	 lea	 edi, DWORD PTR [ecx+32]
; File C:\Program Files\Microsoft Visual Studio\2022\Professional\VC\Tools\MSVC\14.44.35207\include\xtree

; 1384 :         const _Tree_find_result<_Nodeptr> _Loc = _Find_lower_bound(_Keyval);

  00018	50		 push	 eax
  00019	8d 45 f4	 lea	 eax, DWORD PTR __Loc$1[ebp]
; File C:\IAGOS\server\v18\Source\Source\WorldServer\ItemUpgrade.cpp

; 1899 : 	if( nAbilityOption > GetMaxAttributeEnchantSize() )

  0001c	89 75 08	 mov	 DWORD PTR _nAbilityOption$[ebp], esi
; File C:\Program Files\Microsoft Visual Studio\2022\Professional\VC\Tools\MSVC\14.44.35207\include\xtree

; 1384 :         const _Tree_find_result<_Nodeptr> _Loc = _Find_lower_bound(_Keyval);

  0001f	50		 push	 eax
  00020	8b cf		 mov	 ecx, edi
  00022	e8 00 00 00 00	 call	 ??$_Find_lower_bound@H@?$_Tree@V?$_Tmap_traits@HU__ATTRIBUTE_ENCHANT@@U?$less@H@std@@V?$allocator@U?$pair@$$CBHU__ATTRIBUTE_ENCHANT@@@std@@@3@$0A@@std@@@std@@IBE?AU?$_Tree_find_result@PAU?$_Tree_node@U?$pair@$$CBHU__ATTRIBUTE_ENCHANT@@@std@@PAX@std@@@1@ABH@Z ; std::_Tree<std::_Tmap_traits<int,__ATTRIBUTE_ENCHANT,std::less<int>,std::allocator<std::pair<int const ,__ATTRIBUTE_ENCHANT> >,0> >::_Find_lower_bound<int>

; 1624 :         return !_Bound->_Isnil && !_DEBUG_LT_PRED(_Getcomp(), _Keyval, _Traits::_Kfn(_Bound->_Myval));

  00027	8b 45 fc	 mov	 eax, DWORD PTR __Loc$1[ebp+8]
  0002a	80 78 0d 00	 cmp	 BYTE PTR [eax+13], 0
  0002e	75 14		 jne	 SHORT $LN3@GetAttribu
; File C:\Program Files\Microsoft Visual Studio\2022\Professional\VC\Tools\MSVC\14.44.35207\include\type_traits

; 2380 :         return _Left < _Right;

  00030	3b 70 10	 cmp	 esi, DWORD PTR [eax+16]
; File C:\Program Files\Microsoft Visual Studio\2022\Professional\VC\Tools\MSVC\14.44.35207\include\xtree

; 1624 :         return !_Bound->_Isnil && !_DEBUG_LT_PRED(_Getcomp(), _Keyval, _Traits::_Kfn(_Bound->_Myval));

  00033	7c 0f		 jl	 SHORT $LN3@GetAttribu

; 37   :     _Tree_unchecked_const_iterator(_Nodeptr _Pnode, const _Mytree* _Plist) noexcept : _Ptr(_Pnode) {

  00035	3b 07		 cmp	 eax, DWORD PTR [edi]
; File C:\IAGOS\server\v18\Source\Source\WorldServer\ItemUpgrade.cpp

; 1903 : 	if( it != m_mapAttributeEnchant.end() )

  00037	74 0b		 je	 SHORT $LN3@GetAttribu

; 1904 : 		return it->second.nAddDamageRate;

  00039	8b 40 18	 mov	 eax, DWORD PTR [eax+24]
  0003c	5f		 pop	 edi

; 1907 : }

  0003d	5e		 pop	 esi
  0003e	8b e5		 mov	 esp, ebp
  00040	5d		 pop	 ebp
  00041	c2 04 00	 ret	 4
$LN3@GetAttribu:
  00044	5f		 pop	 edi

; 1905 : 
; 1906 : 	return 0;

  00045	33 c0		 xor	 eax, eax

; 1907 : }

  00047	5e		 pop	 esi
  00048	8b e5		 mov	 esp, ebp
  0004a	5d		 pop	 ebp
  0004b	c2 04 00	 ret	 4
?GetAttributeDamageFactor@CItemUpgrade@@QAEHH@Z ENDP	; CItemUpgrade::GetAttributeDamageFactor
_TEXT	ENDS
; Function compile flags: /Ogtp
; File C:\IAGOS\server\v18\Source\Source\WorldServer\ItemUpgrade.cpp
; File C:\IAGOS\server\v18\Source\Source\_Common\Item.h
; File C:\IAGOS\server\v18\Source\Source\WorldServer\ItemUpgrade.cpp
; File C:\IAGOS\server\v18\Source\Source\_Common\Item.h
; File C:\IAGOS\server\v18\Source\Source\WorldServer\ItemUpgrade.cpp
;	COMDAT ?OnEnchant@CItemUpgrade@@QAEXPAVCUser@@PAVCItemElem@@1@Z
_TEXT	SEGMENT
_this$1$ = -4						; size = 4
_pUser$ = 8						; size = 4
_pItemMain$ = 12					; size = 4
_pItemMaterial$ = 16					; size = 4
?OnEnchant@CItemUpgrade@@QAEXPAVCUser@@PAVCItemElem@@1@Z PROC ; CItemUpgrade::OnEnchant, COMDAT
; _this$ = ecx

; 467  : {

  00000	55		 push	 ebp
  00001	8b ec		 mov	 ebp, esp
  00003	51		 push	 ecx
  00004	56		 push	 esi

; 468  : #if __VER >= 14 // __SMELT_SAFETY
; 469  : 	if( !IsUsableItem( pItemMain ) || !IsUsableItem( pItemMaterial ) )

  00005	8b 75 0c	 mov	 esi, DWORD PTR _pItemMain$[ebp]
  00008	56		 push	 esi
  00009	89 4d fc	 mov	 DWORD PTR _this$1$[ebp], ecx
  0000c	e8 00 00 00 00	 call	 ?IsUsableItem@@YAHPAVCItemBase@@@Z ; IsUsableItem
  00011	83 c4 04	 add	 esp, 4
  00014	85 c0		 test	 eax, eax
  00016	0f 84 fd 00 00
	00		 je	 $LN5@OnEnchant
  0001c	53		 push	 ebx
  0001d	8b 5d 10	 mov	 ebx, DWORD PTR _pItemMaterial$[ebp]
  00020	53		 push	 ebx
  00021	e8 00 00 00 00	 call	 ?IsUsableItem@@YAHPAVCItemBase@@@Z ; IsUsableItem
  00026	83 c4 04	 add	 esp, 4
  00029	85 c0		 test	 eax, eax
  0002b	0f 84 e7 00 00
	00		 je	 $LN32@OnEnchant

; 470  : 		return;
; 471  : 	// ┤ļ╗¾└╠ └Õ┬°┴▀└╬░Ī?
; 472  : 	if( pUser->m_Inventory.IsEquip( pItemMain->m_dwObjId ) )

  00031	57		 push	 edi
  00032	8b 7d 08	 mov	 edi, DWORD PTR _pUser$[ebp]
  00035	ff 76 04	 push	 DWORD PTR [esi+4]
  00038	8d 8f fc 0a 00
	00		 lea	 ecx, DWORD PTR [edi+2812]
  0003e	e8 00 00 00 00	 call	 ?IsEquip@?$CItemContainer@VCItemElem@@@@QAEHK@Z ; CItemContainer<CItemElem>::IsEquip
  00043	85 c0		 test	 eax, eax
  00045	74 1c		 je	 SHORT $LN6@OnEnchant

; 473  : 	{
; 474  : 		pUser->AddDefinedText( TID_GAME_EQUIPPUT , "" );

  00047	68 00 00 00 00	 push	 OFFSET ??_C@_00CNPNBAHC@@
  0004c	68 c2 03 00 00	 push	 962			; 000003c2H
  00051	57		 push	 edi
  00052	e8 00 00 00 00	 call	 ?AddDefinedText@CUser@@QAAXHPBDZZ ; CUser::AddDefinedText
  00057	83 c4 0c	 add	 esp, 12			; 0000000cH
  0005a	5f		 pop	 edi
  0005b	5b		 pop	 ebx
  0005c	5e		 pop	 esi

; 503  : #endif // __SMELT_SAFETY
; 504  : 			break;
; 505  : 	}
; 506  : }

  0005d	8b e5		 mov	 esp, ebp
  0005f	5d		 pop	 ebp
  00060	c2 0c 00	 ret	 12			; 0000000cH
$LN6@OnEnchant:

; 475  : 		return;
; 476  : 	}
; 477  : #endif // __SMELT_SAFETY
; 478  : #ifdef __NEW_ITEM_VARUNA
; 479  : 	if( pItemMain->GetProp()->dwReferStat1 >= BARUNA_D && pItemMain->GetProp()->dwReferStat1 <= BARUNA_S )

  00063	8b ce		 mov	 ecx, esi
  00065	e8 00 00 00 00	 call	 ?GetPropA@CItemElem@@QAEPAUItemProp@@XZ ; CItemElem::GetPropA
  0006a	83 b8 d0 01 00
	00 04		 cmp	 DWORD PTR [eax+464], 4
  00071	72 25		 jb	 SHORT $LN7@OnEnchant
  00073	8b ce		 mov	 ecx, esi
  00075	e8 00 00 00 00	 call	 ?GetPropA@CItemElem@@QAEPAUItemProp@@XZ ; CItemElem::GetPropA
  0007a	83 b8 d0 01 00
	00 08		 cmp	 DWORD PTR [eax+464], 8
  00081	77 15		 ja	 SHORT $LN7@OnEnchant

; 480  : 	{
; 481  : 		pUser->AddDefinedText( TID_GAME_NOTEQUALITEM );

  00083	68 4d 09 00 00	 push	 2381			; 0000094dH
  00088	8b cf		 mov	 ecx, edi
  0008a	e8 00 00 00 00	 call	 ?AddDefinedText@CUser@@QAEXH@Z ; CUser::AddDefinedText
  0008f	5f		 pop	 edi
  00090	5b		 pop	 ebx
  00091	5e		 pop	 esi

; 503  : #endif // __SMELT_SAFETY
; 504  : 			break;
; 505  : 	}
; 506  : }

  00092	8b e5		 mov	 esp, ebp
  00094	5d		 pop	 ebp
  00095	c2 0c 00	 ret	 12			; 0000000cH
$LN7@OnEnchant:

; 482  : 		return;
; 483  : 	}
; 484  : #endif // __NEW_ITEM_VARUNA
; 485  : 
; 486  : 	switch( pItemMaterial->GetProp()->dwItemKind3 )

  00098	8b cb		 mov	 ecx, ebx
  0009a	e8 00 00 00 00	 call	 ?GetPropA@CItemElem@@QAEPAUItemProp@@XZ ; CItemElem::GetPropA
  0009f	8b 40 78	 mov	 eax, DWORD PTR [eax+120]
  000a2	83 f8 25	 cmp	 eax, 37			; 00000025H
  000a5	74 65		 je	 SHORT $LN8@OnEnchant
  000a7	83 f8 77	 cmp	 eax, 119		; 00000077H
  000aa	74 4c		 je	 SHORT $LN9@OnEnchant
; File C:\IAGOS\server\v18\Source\Source\_Common\Item.h

; 154  : 	BOOL	IsAccessory( void )		{	return CAccessoryProperty::GetInstance()->IsAccessory( m_dwItemId );	}

  000ac	ff 76 0c	 push	 DWORD PTR [esi+12]
  000af	e8 00 00 00 00	 call	 ?GetInstance@CAccessoryProperty@@SAPAV1@XZ ; CAccessoryProperty::GetInstance
  000b4	8b c8		 mov	 ecx, eax
  000b6	e8 00 00 00 00	 call	 ?IsAccessory@CAccessoryProperty@@QAEHK@Z ; CAccessoryProperty::IsAccessory
; File C:\IAGOS\server\v18\Source\Source\WorldServer\ItemUpgrade.cpp

; 498  : 			if( pItemMain->IsAccessory() )

  000bb	85 c0		 test	 eax, eax
  000bd	74 14		 je	 SHORT $LN11@OnEnchant

; 499  : 				RefineAccessory( pUser, pItemMain, pItemMaterial );

  000bf	8b 4d fc	 mov	 ecx, DWORD PTR _this$1$[ebp]
  000c2	53		 push	 ebx
  000c3	56		 push	 esi
  000c4	57		 push	 edi
  000c5	e8 00 00 00 00	 call	 ?RefineAccessory@CItemUpgrade@@AAEXPAVCUser@@PAVCItemElem@@1@Z ; CItemUpgrade::RefineAccessory
  000ca	5f		 pop	 edi
  000cb	5b		 pop	 ebx
  000cc	5e		 pop	 esi

; 503  : #endif // __SMELT_SAFETY
; 504  : 			break;
; 505  : 	}
; 506  : }

  000cd	8b e5		 mov	 esp, ebp
  000cf	5d		 pop	 ebp
  000d0	c2 0c 00	 ret	 12			; 0000000cH
$LN11@OnEnchant:
; File C:\IAGOS\server\v18\Source\Source\_Common\Item.h

; 153  : 	BOOL	IsCollector( BOOL bRefinable = FALSE )	{	return( m_dwItemId == II_GEN_TOO_COL_NORMAL || ( !bRefinable && m_dwItemId == II_GEN_TOO_COL_EVENT ) );		}

  000d3	8b 46 0c	 mov	 eax, DWORD PTR [esi+12]
  000d6	3d 54 67 00 00	 cmp	 eax, 26452		; 00006754H
  000db	74 07		 je	 SHORT $LN22@OnEnchant
  000dd	3d c5 67 00 00	 cmp	 eax, 26565		; 000067c5H
  000e2	75 33		 jne	 SHORT $LN33@OnEnchant
$LN22@OnEnchant:
; File C:\IAGOS\server\v18\Source\Source\WorldServer\ItemUpgrade.cpp

; 502  : 				RefineCollector( pUser, pItemMain, pItemMaterial );

  000e4	8b 4d fc	 mov	 ecx, DWORD PTR _this$1$[ebp]
  000e7	53		 push	 ebx
  000e8	56		 push	 esi
  000e9	57		 push	 edi
  000ea	e8 00 00 00 00	 call	 ?RefineCollector@CItemUpgrade@@AAEXPAVCUser@@PAVCItemElem@@1@Z ; CItemUpgrade::RefineCollector
  000ef	5f		 pop	 edi
  000f0	5b		 pop	 ebx
  000f1	5e		 pop	 esi

; 503  : #endif // __SMELT_SAFETY
; 504  : 			break;
; 505  : 	}
; 506  : }

  000f2	8b e5		 mov	 esp, ebp
  000f4	5d		 pop	 ebp
  000f5	c2 0c 00	 ret	 12			; 0000000cH
$LN9@OnEnchant:

; 490  : 			break;
; 491  : 
; 492  : 		case IK3_ENCHANT:	
; 493  : 			EnchantGeneral( pUser, pItemMain, pItemMaterial );

  000f8	8b 4d fc	 mov	 ecx, DWORD PTR _this$1$[ebp]
  000fb	53		 push	 ebx
  000fc	56		 push	 esi
  000fd	57		 push	 edi
  000fe	e8 00 00 00 00	 call	 ?EnchantGeneral@CItemUpgrade@@QAEXPAVCUser@@PAVCItemElem@@1@Z ; CItemUpgrade::EnchantGeneral
  00103	5f		 pop	 edi
  00104	5b		 pop	 ebx
  00105	5e		 pop	 esi

; 503  : #endif // __SMELT_SAFETY
; 504  : 			break;
; 505  : 	}
; 506  : }

  00106	8b e5		 mov	 esp, ebp
  00108	5d		 pop	 ebp
  00109	c2 0c 00	 ret	 12			; 0000000cH
$LN8@OnEnchant:

; 487  : 	{
; 488  : 		case IK3_ELECARD:	
; 489  : 			EnchantAttribute( pUser, pItemMain, pItemMaterial );

  0010c	8b 4d fc	 mov	 ecx, DWORD PTR _this$1$[ebp]
  0010f	53		 push	 ebx
  00110	56		 push	 esi
  00111	57		 push	 edi
  00112	e8 00 00 00 00	 call	 ?EnchantAttribute@CItemUpgrade@@QAEXPAVCUser@@PAVCItemElem@@1@Z ; CItemUpgrade::EnchantAttribute
$LN33@OnEnchant:
  00117	5f		 pop	 edi
$LN32@OnEnchant:
  00118	5b		 pop	 ebx
$LN5@OnEnchant:
  00119	5e		 pop	 esi

; 503  : #endif // __SMELT_SAFETY
; 504  : 			break;
; 505  : 	}
; 506  : }

  0011a	8b e5		 mov	 esp, ebp
  0011c	5d		 pop	 ebp
  0011d	c2 0c 00	 ret	 12			; 0000000cH
?OnEnchant@CItemUpgrade@@QAEXPAVCUser@@PAVCItemElem@@1@Z ENDP ; CItemUpgrade::OnEnchant
_TEXT	ENDS
; Function compile flags: /Ogtp
; File C:\IAGOS\server\v18\Source\Source\WorldServer\ItemUpgrade.cpp
; File C:\IAGOS\server\v18\Source\Source\_Common\Project.h
; File C:\IAGOS\server\v18\Source\Source\WorldServer\ItemUpgrade.cpp
; File C:\IAGOS\server\v18\Source\Source\_Common\Item.h
; File C:\IAGOS\server\v18\Source\Source\WorldServer\ItemUpgrade.cpp
; File C:\IAGOS\server\v18\Source\Source\_Common\Item.h
; File C:\IAGOS\server\v18\Source\Source\_Common\Project.h
; File C:\IAGOS\server\v18\Source\Source\_Common\data.h
; File C:\IAGOS\server\v18\Source\Source\_Common\Project.h
; File C:\IAGOS\server\v18\Source\Source\WorldServer\ItemUpgrade.cpp
; File C:\IAGOS\server\v18\Source\Source\_Common\Item.h
; File C:\IAGOS\server\v18\Source\Source\_Common\Project.h
; File C:\IAGOS\server\v18\Source\Source\_Common\data.h
; File C:\IAGOS\server\v18\Source\Source\_Common\Project.h
; File C:\IAGOS\server\v18\Source\Source\WorldServer\ItemUpgrade.cpp
; File C:\IAGOS\server\v18\Source\Source\_Common\Item.h
; File C:\IAGOS\server\v18\Source\Source\_Common\Project.h
; File C:\IAGOS\server\v18\Source\Source\_Common\data.h
; File C:\IAGOS\server\v18\Source\Source\_Common\Project.h
; File C:\IAGOS\server\v18\Source\Source\WorldServer\ItemUpgrade.cpp
; File C:\IAGOS\server\v18\Source\Source\_Common\Item.h
; File C:\IAGOS\server\v18\Source\Source\WorldServer\ItemUpgrade.cpp
;	COMDAT ?OnSmeltSafety@CItemUpgrade@@QAEEPAVCUser@@PAVCItemElem@@111@Z
_TEXT	SEGMENT
_this$1$ = -4						; size = 4
_pUser$ = 8						; size = 4
_pItemMain$ = 12					; size = 4
_pItemMaterial$ = 16					; size = 4
_pItemProtScr$ = 20					; size = 4
_pItemSmeltScr$ = 24					; size = 4
?OnSmeltSafety@CItemUpgrade@@QAEEPAVCUser@@PAVCItemElem@@111@Z PROC ; CItemUpgrade::OnSmeltSafety, COMDAT
; _this$ = ecx

; 510  : {

  00000	55		 push	 ebp
  00001	8b ec		 mov	 ebp, esp
  00003	51		 push	 ecx
; File C:\IAGOS\server\v18\Source\Source\_Common\Project.h

; 1389 : 	VERIFY_RANGE_ASSERT( nIndex, 0, m_aPropItem.GetSize(), "GetItemProp range_error", NULL );

  00004	a1 40 02 00 00	 mov	 eax, DWORD PTR ?prj@@3VCProject@@A+576
; File C:\IAGOS\server\v18\Source\Source\WorldServer\ItemUpgrade.cpp

; 510  : {

  00009	56		 push	 esi
; File C:\IAGOS\server\v18\Source\Source\_Common\Item.h

; 230  : 	ItemProp*	GetProp()	{	return prj.GetItemProp( m_dwItemId );	}

  0000a	8b 75 0c	 mov	 esi, DWORD PTR _pItemMain$[ebp]
; File C:\IAGOS\server\v18\Source\Source\WorldServer\ItemUpgrade.cpp

; 510  : {

  0000d	57		 push	 edi
  0000e	89 4d fc	 mov	 DWORD PTR _this$1$[ebp], ecx
; File C:\IAGOS\server\v18\Source\Source\_Common\Item.h

; 230  : 	ItemProp*	GetProp()	{	return prj.GetItemProp( m_dwItemId );	}

  00011	8b 56 0c	 mov	 edx, DWORD PTR [esi+12]
; File C:\IAGOS\server\v18\Source\Source\_Common\Project.h

; 1389 : 	VERIFY_RANGE_ASSERT( nIndex, 0, m_aPropItem.GetSize(), "GetItemProp range_error", NULL );

  00014	85 d2		 test	 edx, edx
  00016	78 11		 js	 SHORT $LN20@OnSmeltSaf
  00018	3b d0		 cmp	 edx, eax
  0001a	7d 0d		 jge	 SHORT $LN20@OnSmeltSaf
; File C:\IAGOS\server\v18\Source\Source\_Common\data.h

; 270  : 	if( dwIndex >= (DWORD)m_nMaxIndex )

  0001c	8b 3d 30 02 00
	00		 mov	 edi, DWORD PTR ?prj@@3VCProject@@A+560
  00022	73 26		 jae	 SHORT $LN74@OnSmeltSaf

; 271  : 		return NULL;
; 272  : 	return (T*) m_apOffset[ dwIndex ];

  00024	8b 0c 97	 mov	 ecx, DWORD PTR [edi+edx*4]
; File C:\IAGOS\server\v18\Source\Source\_Common\Project.h

; 1390 : 	return m_aPropItem.GetAt( nIndex ); 

  00027	eb 23		 jmp	 SHORT $LN15@OnSmeltSaf
$LN20@OnSmeltSaf:

; 579  : 	LPCTSTR szErr = Error( _T( "%s min:%d, max:%d, index:%d" ), szMsg, nMin, nMax, nIndex ); 

  00029	52		 push	 edx
  0002a	50		 push	 eax
  0002b	6a 00		 push	 0
  0002d	68 00 00 00 00	 push	 OFFSET ??_C@_0BI@BEIFNGEL@GetItemProp?5range_error@
  00032	68 00 00 00 00	 push	 OFFSET ??_C@_0BM@HMFGHCP@?$CFs?5min?3?$CFd?0?5max?3?$CFd?0?5index?3?$CFd@
  00037	e8 00 00 00 00	 call	 ?Error@@YAPBDPBDZZ	; Error

; 1389 : 	VERIFY_RANGE_ASSERT( nIndex, 0, m_aPropItem.GetSize(), "GetItemProp range_error", NULL );

  0003c	a1 40 02 00 00	 mov	 eax, DWORD PTR ?prj@@3VCProject@@A+576

; 579  : 	LPCTSTR szErr = Error( _T( "%s min:%d, max:%d, index:%d" ), szMsg, nMin, nMax, nIndex ); 

  00041	83 c4 14	 add	 esp, 20			; 00000014H

; 1389 : 	VERIFY_RANGE_ASSERT( nIndex, 0, m_aPropItem.GetSize(), "GetItemProp range_error", NULL );

  00044	8b 3d 30 02 00
	00		 mov	 edi, DWORD PTR ?prj@@3VCProject@@A+560
$LN74@OnSmeltSaf:
; File C:\IAGOS\server\v18\Source\Source\WorldServer\ItemUpgrade.cpp

; 512  : 	if( pItemMain->GetProp()->dwReferStat1 >= BARUNA_D && pItemMain->GetProp()->dwReferStat1 <= BARUNA_S )

  0004a	33 c9		 xor	 ecx, ecx
$LN15@OnSmeltSaf:
  0004c	83 b9 d0 01 00
	00 04		 cmp	 DWORD PTR [ecx+464], 4
  00053	72 48		 jb	 SHORT $LN4@OnSmeltSaf
; File C:\IAGOS\server\v18\Source\Source\_Common\Item.h

; 230  : 	ItemProp*	GetProp()	{	return prj.GetItemProp( m_dwItemId );	}

  00055	8b 4e 0c	 mov	 ecx, DWORD PTR [esi+12]
; File C:\IAGOS\server\v18\Source\Source\_Common\Project.h

; 1389 : 	VERIFY_RANGE_ASSERT( nIndex, 0, m_aPropItem.GetSize(), "GetItemProp range_error", NULL );

  00058	85 c9		 test	 ecx, ecx
  0005a	78 0b		 js	 SHORT $LN34@OnSmeltSaf
  0005c	3b c8		 cmp	 ecx, eax
  0005e	7d 07		 jge	 SHORT $LN34@OnSmeltSaf
; File C:\IAGOS\server\v18\Source\Source\_Common\data.h

; 270  : 	if( dwIndex >= (DWORD)m_nMaxIndex )

  00060	73 26		 jae	 SHORT $LN75@OnSmeltSaf

; 271  : 		return NULL;
; 272  : 	return (T*) m_apOffset[ dwIndex ];

  00062	8b 0c 8f	 mov	 ecx, DWORD PTR [edi+ecx*4]
; File C:\IAGOS\server\v18\Source\Source\_Common\Project.h

; 1390 : 	return m_aPropItem.GetAt( nIndex ); 

  00065	eb 23		 jmp	 SHORT $LN29@OnSmeltSaf
$LN34@OnSmeltSaf:

; 579  : 	LPCTSTR szErr = Error( _T( "%s min:%d, max:%d, index:%d" ), szMsg, nMin, nMax, nIndex ); 

  00067	51		 push	 ecx
  00068	50		 push	 eax
  00069	6a 00		 push	 0
  0006b	68 00 00 00 00	 push	 OFFSET ??_C@_0BI@BEIFNGEL@GetItemProp?5range_error@
  00070	68 00 00 00 00	 push	 OFFSET ??_C@_0BM@HMFGHCP@?$CFs?5min?3?$CFd?0?5max?3?$CFd?0?5index?3?$CFd@
  00075	e8 00 00 00 00	 call	 ?Error@@YAPBDPBDZZ	; Error

; 1389 : 	VERIFY_RANGE_ASSERT( nIndex, 0, m_aPropItem.GetSize(), "GetItemProp range_error", NULL );

  0007a	a1 40 02 00 00	 mov	 eax, DWORD PTR ?prj@@3VCProject@@A+576

; 579  : 	LPCTSTR szErr = Error( _T( "%s min:%d, max:%d, index:%d" ), szMsg, nMin, nMax, nIndex ); 

  0007f	83 c4 14	 add	 esp, 20			; 00000014H

; 1389 : 	VERIFY_RANGE_ASSERT( nIndex, 0, m_aPropItem.GetSize(), "GetItemProp range_error", NULL );

  00082	8b 3d 30 02 00
	00		 mov	 edi, DWORD PTR ?prj@@3VCProject@@A+560
$LN75@OnSmeltSaf:
; File C:\IAGOS\server\v18\Source\Source\WorldServer\ItemUpgrade.cpp

; 512  : 	if( pItemMain->GetProp()->dwReferStat1 >= BARUNA_D && pItemMain->GetProp()->dwReferStat1 <= BARUNA_S )

  00088	33 c9		 xor	 ecx, ecx
$LN29@OnSmeltSaf:
  0008a	83 b9 d0 01 00
	00 08		 cmp	 DWORD PTR [ecx+464], 8
  00091	77 0a		 ja	 SHORT $LN4@OnSmeltSaf

; 513  : 	{
; 514  : 		return 0;

  00093	5f		 pop	 edi
  00094	32 c0		 xor	 al, al

; 544  : }

  00096	5e		 pop	 esi
  00097	8b e5		 mov	 esp, ebp
  00099	5d		 pop	 ebp
  0009a	c2 14 00	 ret	 20			; 00000014H
$LN4@OnSmeltSaf:
  0009d	53		 push	 ebx
; File C:\IAGOS\server\v18\Source\Source\_Common\Item.h

; 230  : 	ItemProp*	GetProp()	{	return prj.GetItemProp( m_dwItemId );	}

  0009e	8b 5d 10	 mov	 ebx, DWORD PTR _pItemMaterial$[ebp]
  000a1	8b 4b 0c	 mov	 ecx, DWORD PTR [ebx+12]
; File C:\IAGOS\server\v18\Source\Source\_Common\Project.h

; 1389 : 	VERIFY_RANGE_ASSERT( nIndex, 0, m_aPropItem.GetSize(), "GetItemProp range_error", NULL );

  000a4	85 c9		 test	 ecx, ecx
  000a6	78 0b		 js	 SHORT $LN48@OnSmeltSaf
  000a8	3b c8		 cmp	 ecx, eax
  000aa	7d 07		 jge	 SHORT $LN48@OnSmeltSaf
; File C:\IAGOS\server\v18\Source\Source\_Common\data.h

; 270  : 	if( dwIndex >= (DWORD)m_nMaxIndex )

  000ac	73 1b		 jae	 SHORT $LN76@OnSmeltSaf

; 271  : 		return NULL;
; 272  : 	return (T*) m_apOffset[ dwIndex ];

  000ae	8b 04 8f	 mov	 eax, DWORD PTR [edi+ecx*4]
; File C:\IAGOS\server\v18\Source\Source\_Common\Project.h

; 1390 : 	return m_aPropItem.GetAt( nIndex ); 

  000b1	eb 18		 jmp	 SHORT $LN43@OnSmeltSaf
$LN48@OnSmeltSaf:

; 579  : 	LPCTSTR szErr = Error( _T( "%s min:%d, max:%d, index:%d" ), szMsg, nMin, nMax, nIndex ); 

  000b3	51		 push	 ecx
  000b4	50		 push	 eax
  000b5	6a 00		 push	 0
  000b7	68 00 00 00 00	 push	 OFFSET ??_C@_0BI@BEIFNGEL@GetItemProp?5range_error@
  000bc	68 00 00 00 00	 push	 OFFSET ??_C@_0BM@HMFGHCP@?$CFs?5min?3?$CFd?0?5max?3?$CFd?0?5index?3?$CFd@
  000c1	e8 00 00 00 00	 call	 ?Error@@YAPBDPBDZZ	; Error
  000c6	83 c4 14	 add	 esp, 20			; 00000014H
$LN76@OnSmeltSaf:
; File C:\IAGOS\server\v18\Source\Source\WorldServer\ItemUpgrade.cpp

; 518  : 	switch( pItemMaterial->GetProp()->dwItemKind3 )

  000c9	33 c0		 xor	 eax, eax
$LN43@OnSmeltSaf:
  000cb	8b 40 78	 mov	 eax, DWORD PTR [eax+120]
  000ce	83 f8 25	 cmp	 eax, 37			; 00000025H
  000d1	0f 84 85 00 00
	00		 je	 $LN9@OnSmeltSaf
  000d7	83 f8 3d	 cmp	 eax, 61			; 0000003dH
  000da	74 2c		 je	 SHORT $LN6@OnSmeltSaf
  000dc	83 f8 77	 cmp	 eax, 119		; 00000077H
  000df	74 0b		 je	 SHORT $LN5@OnSmeltSaf

; 538  : #endif // __15_5TH_ELEMENTAL_SMELT_SAFETY
; 539  : 
; 540  : 		default:
; 541  : 			break;
; 542  : 	}
; 543  : 	return 0;

  000e1	5b		 pop	 ebx
  000e2	5f		 pop	 edi
  000e3	32 c0		 xor	 al, al

; 544  : }

  000e5	5e		 pop	 esi
  000e6	8b e5		 mov	 esp, ebp
  000e8	5d		 pop	 ebp
  000e9	c2 14 00	 ret	 20			; 00000014H
$LN5@OnSmeltSaf:

; 519  : 	{
; 520  : 		//	┐└Ė«─«─±└ŽČ¦
; 521  : 		case IK3_ENCHANT:
; 522  : 			//	└Ž╣▌┴”Ę├(└Ž╣▌ or Š¾┼═Ė┌┐■Ų∙└╬┴÷ └ń░╦╗ń)
; 523  : 			return SmeltSafetyNormal( pUser, pItemMain, pItemMaterial, pItemProtScr, pItemSmeltScr );

  000ec	ff 75 18	 push	 DWORD PTR _pItemSmeltScr$[ebp]
  000ef	8b 4d fc	 mov	 ecx, DWORD PTR _this$1$[ebp]
  000f2	ff 75 14	 push	 DWORD PTR _pItemProtScr$[ebp]
  000f5	53		 push	 ebx
  000f6	56		 push	 esi
  000f7	ff 75 08	 push	 DWORD PTR _pUser$[ebp]
  000fa	e8 00 00 00 00	 call	 ?SmeltSafetyNormal@CItemUpgrade@@AAEEPAVCUser@@PAVCItemElem@@111@Z ; CItemUpgrade::SmeltSafetyNormal
  000ff	5b		 pop	 ebx
  00100	5f		 pop	 edi

; 544  : }

  00101	5e		 pop	 esi
  00102	8b e5		 mov	 esp, ebp
  00104	5d		 pop	 ebp
  00105	c2 14 00	 ret	 20			; 00000014H
$LN6@OnSmeltSaf:
; File C:\IAGOS\server\v18\Source\Source\_Common\Item.h

; 154  : 	BOOL	IsAccessory( void )		{	return CAccessoryProperty::GetInstance()->IsAccessory( m_dwItemId );	}

  00108	ff 76 0c	 push	 DWORD PTR [esi+12]
  0010b	e8 00 00 00 00	 call	 ?GetInstance@CAccessoryProperty@@SAPAV1@XZ ; CAccessoryProperty::GetInstance
  00110	8b c8		 mov	 ecx, eax
  00112	e8 00 00 00 00	 call	 ?IsAccessory@CAccessoryProperty@@QAEHK@Z ; CAccessoryProperty::IsAccessory
; File C:\IAGOS\server\v18\Source\Source\WorldServer\ItemUpgrade.cpp

; 528  : 			if( pItemMain->IsAccessory() )

  00117	85 c0		 test	 eax, eax
  00119	74 19		 je	 SHORT $LN7@OnSmeltSaf

; 529  : 				return SmeltSafetyAccessory( pUser, pItemMain, pItemMaterial, pItemProtScr );

  0011b	ff 75 14	 push	 DWORD PTR _pItemProtScr$[ebp]
  0011e	8b 4d fc	 mov	 ecx, DWORD PTR _this$1$[ebp]
  00121	53		 push	 ebx
  00122	56		 push	 esi
  00123	ff 75 08	 push	 DWORD PTR _pUser$[ebp]
  00126	e8 00 00 00 00	 call	 ?SmeltSafetyAccessory@CItemUpgrade@@AAEEPAVCUser@@PAVCItemElem@@11@Z ; CItemUpgrade::SmeltSafetyAccessory
  0012b	5b		 pop	 ebx
  0012c	5f		 pop	 edi

; 544  : }

  0012d	5e		 pop	 esi
  0012e	8b e5		 mov	 esp, ebp
  00130	5d		 pop	 ebp
  00131	c2 14 00	 ret	 20			; 00000014H
$LN7@OnSmeltSaf:

; 530  : 			//	ŪŪŠŅĮ╠└╬░Ī
; 531  : 			else if( pItemMain->IsPierceAble( NULL_ID, TRUE ) )

  00134	6a 01		 push	 1
  00136	6a ff		 push	 -1
  00138	8b ce		 mov	 ecx, esi
  0013a	e8 00 00 00 00	 call	 ?IsPierceAble@CItemElem@@QAEHKH@Z ; CItemElem::IsPierceAble
  0013f	85 c0		 test	 eax, eax
  00141	74 19		 je	 SHORT $LN9@OnSmeltSaf

; 532  : 				return SmeltSafetyPiercingSize( pUser, pItemMain, pItemMaterial, pItemProtScr );

  00143	ff 75 14	 push	 DWORD PTR _pItemProtScr$[ebp]
  00146	8b 4d fc	 mov	 ecx, DWORD PTR _this$1$[ebp]
  00149	53		 push	 ebx
  0014a	56		 push	 esi
  0014b	ff 75 08	 push	 DWORD PTR _pUser$[ebp]
  0014e	e8 00 00 00 00	 call	 ?SmeltSafetyPiercingSize@CItemUpgrade@@AAEEPAVCUser@@PAVCItemElem@@11@Z ; CItemUpgrade::SmeltSafetyPiercingSize
  00153	5b		 pop	 ebx
  00154	5f		 pop	 edi

; 544  : }

  00155	5e		 pop	 esi
  00156	8b e5		 mov	 esp, ebp
  00158	5d		 pop	 ebp
  00159	c2 14 00	 ret	 20			; 00000014H
$LN9@OnSmeltSaf:

; 533  : 
; 534  : #if __VER >= 15 // __15_5TH_ELEMENTAL_SMELT_SAFETY
; 535  : 		// ╝ė╝║─½ĄÕ └ŽČ¦
; 536  : 		case IK3_ELECARD:
; 537  : 			return SmeltSafetyAttribute( pUser, pItemMain, pItemMaterial, pItemProtScr, pItemSmeltScr );

  0015c	ff 75 18	 push	 DWORD PTR _pItemSmeltScr$[ebp]
  0015f	8b 4d fc	 mov	 ecx, DWORD PTR _this$1$[ebp]
  00162	ff 75 14	 push	 DWORD PTR _pItemProtScr$[ebp]
  00165	53		 push	 ebx
  00166	56		 push	 esi
  00167	ff 75 08	 push	 DWORD PTR _pUser$[ebp]
  0016a	e8 00 00 00 00	 call	 ?SmeltSafetyAttribute@CItemUpgrade@@AAEEPAVCUser@@PAVCItemElem@@111@Z ; CItemUpgrade::SmeltSafetyAttribute
  0016f	5b		 pop	 ebx
  00170	5f		 pop	 edi

; 544  : }

  00171	5e		 pop	 esi
  00172	8b e5		 mov	 esp, ebp
  00174	5d		 pop	 ebp
  00175	c2 14 00	 ret	 20			; 00000014H
?OnSmeltSafety@CItemUpgrade@@QAEEPAVCUser@@PAVCItemElem@@111@Z ENDP ; CItemUpgrade::OnSmeltSafety
_TEXT	ENDS
; Function compile flags: /Ogtp
; File C:\IAGOS\server\v18\Source\Source\WorldServer\ItemUpgrade.cpp
; File C:\IAGOS\server\v18\Source\Source\_Common\Item.h
; File C:\IAGOS\server\v18\Source\Source\WorldServer\ItemUpgrade.cpp
; File C:\IAGOS\server\v18\Source\Source\_Common\Item.h
; File C:\IAGOS\server\v18\Source\Source\WorldServer\ItemUpgrade.cpp
; File C:\IAGOS\server\v18\Source\Source\_Common\Item.h
; File C:\IAGOS\server\v18\Source\Source\WorldServer\ItemUpgrade.cpp
; File C:\IAGOS\server\v18\Source\Source\_Common\Item.h
; File C:\IAGOS\server\v18\Source\Source\WorldServer\ItemUpgrade.cpp
;	COMDAT ?OnPiercingRemove@CItemUpgrade@@QAEXPAVCUser@@K@Z
_TEXT	SEGMENT
_pItemElem$1$ = -208					; size = 4
_aLogItem$1 = -204					; size = 200
__$ArrayPad$ = -4					; size = 4
_pUser$ = 8						; size = 4
_objId$ = 12						; size = 4
?OnPiercingRemove@CItemUpgrade@@QAEXPAVCUser@@K@Z PROC	; CItemUpgrade::OnPiercingRemove, COMDAT
; _this$ = ecx

; 414  : {

  00000	55		 push	 ebp
  00001	8b ec		 mov	 ebp, esp
  00003	81 ec d0 00 00
	00		 sub	 esp, 208		; 000000d0H
  00009	a1 00 00 00 00	 mov	 eax, DWORD PTR ___security_cookie
  0000e	33 c5		 xor	 eax, ebp
  00010	89 45 fc	 mov	 DWORD PTR __$ArrayPad$[ebp], eax
  00013	53		 push	 ebx
  00014	8b 5d 08	 mov	 ebx, DWORD PTR _pUser$[ebp]
  00017	56		 push	 esi
  00018	57		 push	 edi
  00019	8b 7d 0c	 mov	 edi, DWORD PTR _objId$[ebp]

; 415  : 	CItemElem* pItemElem = pUser->m_Inventory.GetAtId( objId );

  0001c	8d 8b fc 0a 00
	00		 lea	 ecx, DWORD PTR [ebx+2812]
  00022	57		 push	 edi
  00023	e8 00 00 00 00	 call	 ?GetAtId@?$CItemContainer@VCItemElem@@@@QAEPAVCItemElem@@K@Z ; CItemContainer<CItemElem>::GetAtId
  00028	8b f0		 mov	 esi, eax

; 416  : 	if( !IsUsableItem( pItemElem ) || !pItemElem->IsPierceAble() )

  0002a	56		 push	 esi
  0002b	89 b5 30 ff ff
	ff		 mov	 DWORD PTR _pItemElem$1$[ebp], esi
  00031	e8 00 00 00 00	 call	 ?IsUsableItem@@YAHPAVCItemBase@@@Z ; IsUsableItem
  00036	83 c4 04	 add	 esp, 4
  00039	85 c0		 test	 eax, eax
  0003b	0f 84 7c 01 00
	00		 je	 $LN6@OnPiercing
  00041	6a 00		 push	 0
  00043	6a ff		 push	 -1
  00045	8b ce		 mov	 ecx, esi
  00047	e8 00 00 00 00	 call	 ?IsPierceAble@CItemElem@@QAEHKH@Z ; CItemElem::IsPierceAble
  0004c	85 c0		 test	 eax, eax
  0004e	0f 84 69 01 00
	00		 je	 $LN6@OnPiercing

; 417  : 		return;
; 418  : 
; 419  : 	if( pUser->m_Inventory.IsEquip( objId ) )

  00054	57		 push	 edi
  00055	8d 8b fc 0a 00
	00		 lea	 ecx, DWORD PTR [ebx+2812]
  0005b	e8 00 00 00 00	 call	 ?IsEquip@?$CItemContainer@VCItemElem@@@@QAEHK@Z ; CItemContainer<CItemElem>::IsEquip
  00060	85 c0		 test	 eax, eax
  00062	0f 85 55 01 00
	00		 jne	 $LN6@OnPiercing
; File C:\IAGOS\server\v18\Source\Source\_Common\Item.h

; 103  : 	int		GetPiercingSize()	{	return m_piercing.GetPiercingSize();		}

  00068	8d 7e 3c	 lea	 edi, DWORD PTR [esi+60]
  0006b	8b cf		 mov	 ecx, edi
  0006d	e8 00 00 00 00	 call	 ?GetPiercingSize@CPiercing@@QAEHXZ ; CPiercing::GetPiercingSize
; File C:\IAGOS\server\v18\Source\Source\WorldServer\ItemUpgrade.cpp

; 423  : 	if( pItemElem->GetPiercingSize() == 0 || pItemElem->GetPiercingItem( 0 ) == 0 )

  00072	85 c0		 test	 eax, eax
  00074	0f 84 37 01 00
	00		 je	 $LN9@OnPiercing
; File C:\IAGOS\server\v18\Source\Source\_Common\Item.h

; 105  : 	DWORD	GetPiercingItem( int nth )	{	return m_piercing.GetPiercingItem( nth );	}

  0007a	6a 00		 push	 0
  0007c	8b cf		 mov	 ecx, edi
  0007e	e8 00 00 00 00	 call	 ?GetPiercingItem@CPiercing@@QAEKH@Z ; CPiercing::GetPiercingItem
; File C:\IAGOS\server\v18\Source\Source\WorldServer\ItemUpgrade.cpp

; 423  : 	if( pItemElem->GetPiercingSize() == 0 || pItemElem->GetPiercingItem( 0 ) == 0 )

  00083	85 c0		 test	 eax, eax
  00085	0f 84 26 01 00
	00		 je	 $LN9@OnPiercing

; 426  : 		return;
; 427  : 	}
; 428  : #ifdef __NEW_ITEM_VARUNA
; 429  : 	if( pItemElem->GetProp()->dwReferStat1 >= BARUNA_D && pItemElem->GetProp()->dwReferStat1 <= BARUNA_S )

  0008b	8b ce		 mov	 ecx, esi
  0008d	e8 00 00 00 00	 call	 ?GetPropA@CItemElem@@QAEPAUItemProp@@XZ ; CItemElem::GetPropA
  00092	83 b8 d0 01 00
	00 04		 cmp	 DWORD PTR [eax+464], 4
  00099	72 14		 jb	 SHORT $LN10@OnPiercing
  0009b	8b ce		 mov	 ecx, esi
  0009d	e8 00 00 00 00	 call	 ?GetPropA@CItemElem@@QAEPAUItemProp@@XZ ; CItemElem::GetPropA
  000a2	83 b8 d0 01 00
	00 08		 cmp	 DWORD PTR [eax+464], 8
  000a9	0f 86 0e 01 00
	00		 jbe	 $LN6@OnPiercing
$LN10@OnPiercing:

; 430  : 	{
; 431  : 		return;
; 432  : 	}
; 433  : #endif // __NEW_ITEM_VARUNA
; 434  : 
; 435  : 	int nPayPenya = 1000000; // ┴÷║ęŪę Ųõ│─
; 436  : 	if( pUser->GetGold() < nPayPenya )	// Ųõ│─░Ī ║╬┴ĘŪŽ┤┘.

  000af	81 bb e0 14 00
	00 40 42 0f 00	 cmp	 DWORD PTR [ebx+5344], 1000000 ; 000f4240H
  000b9	7d 0a		 jge	 SHORT $LN11@OnPiercing

; 437  : 	{
; 438  : 		pUser->AddDefinedText( TID_GAME_LACKMONEY );

  000bb	68 71 02 00 00	 push	 625			; 00000271H

; 439  : 		return;

  000c0	e9 f1 00 00 00	 jmp	 $LN36@OnPiercing
$LN11@OnPiercing:
; File C:\IAGOS\server\v18\Source\Source\_Common\Item.h

; 103  : 	int		GetPiercingSize()	{	return m_piercing.GetPiercingSize();		}

  000c5	8b cf		 mov	 ecx, edi
  000c7	e8 00 00 00 00	 call	 ?GetPiercingSize@CPiercing@@QAEHXZ ; CPiercing::GetPiercingSize
  000cc	8b f0		 mov	 esi, eax
; File C:\IAGOS\server\v18\Source\Source\WorldServer\ItemUpgrade.cpp

; 442  : 	for( int i=pItemElem->GetPiercingSize()-1; i>=0; i-- )

  000ce	83 ee 01	 sub	 esi, 1
  000d1	0f 88 e6 00 00
	00		 js	 $LN6@OnPiercing
$LL4@OnPiercing:
; File C:\IAGOS\server\v18\Source\Source\_Common\Item.h

; 105  : 	DWORD	GetPiercingItem( int nth )	{	return m_piercing.GetPiercingItem( nth );	}

  000d7	56		 push	 esi
  000d8	8b cf		 mov	 ecx, edi
  000da	e8 00 00 00 00	 call	 ?GetPiercingItem@CPiercing@@QAEKH@Z ; CPiercing::GetPiercingItem
; File C:\IAGOS\server\v18\Source\Source\WorldServer\ItemUpgrade.cpp

; 444  : 		if( pItemElem->GetPiercingItem( i ) != 0 )

  000df	85 c0		 test	 eax, eax
  000e1	75 18		 jne	 SHORT $LN23@OnPiercing

; 442  : 	for( int i=pItemElem->GetPiercingSize()-1; i>=0; i-- )

  000e3	83 ee 01	 sub	 esi, 1
  000e6	79 ef		 jns	 SHORT $LL4@OnPiercing

; 459  : 			break;
; 460  : 		}
; 461  : 	}
; 462  : }

  000e8	5f		 pop	 edi
  000e9	5e		 pop	 esi
  000ea	5b		 pop	 ebx
  000eb	8b 4d fc	 mov	 ecx, DWORD PTR __$ArrayPad$[ebp]
  000ee	33 cd		 xor	 ecx, ebp
  000f0	e8 00 00 00 00	 call	 @__security_check_cookie@4
  000f5	8b e5		 mov	 esp, ebp
  000f7	5d		 pop	 ebp
  000f8	c2 08 00	 ret	 8
$LN23@OnPiercing:

; 445  : 		{
; 446  : 			pUser->AddGold( -nPayPenya );	// Ųõ│─ ┴÷║ę

  000fb	6a 01		 push	 1
  000fd	68 c0 bd f0 ff	 push	 -1000000		; fff0bdc0H
  00102	8b cb		 mov	 ecx, ebx
  00104	e8 00 00 00 00	 call	 ?AddGold@CMover@@QAEHHH@Z ; CMover::AddGold

; 447  : 			pUser->AddDefinedText( TID_GAME_REMOVE_PIERCING_SUCCESS );

  00109	68 86 0d 00 00	 push	 3462			; 00000d86H
  0010e	8b cb		 mov	 ecx, ebx
  00110	e8 00 00 00 00	 call	 ?AddDefinedText@CUser@@QAEXH@Z ; CUser::AddDefinedText

; 448  : 			pUser->UpdateItem( (BYTE)( pItemElem->m_dwObjId ), UI_PIERCING, MAKELONG( i, 0 ) );

  00115	0f b7 c6	 movzx	 eax, si
  00118	8b cb		 mov	 ecx, ebx
  0011a	8b b5 30 ff ff
	ff		 mov	 esi, DWORD PTR _pItemElem$1$[ebp]
  00120	6a 00		 push	 0
  00122	50		 push	 eax
  00123	6a 07		 push	 7
  00125	0f b6 46 04	 movzx	 eax, BYTE PTR [esi+4]
  00129	50		 push	 eax
  0012a	e8 00 00 00 00	 call	 ?UpdateItem@CMover@@QAEXEDKK@Z ; CMover::UpdateItem

; 449  : 
; 450  : 			LogItemInfo aLogItem;

  0012f	8d 8d 34 ff ff
	ff		 lea	 ecx, DWORD PTR _aLogItem$1[ebp]
  00135	e8 00 00 00 00	 call	 ??0_LogItemInfo@@QAE@XZ	; _LogItemInfo::_LogItemInfo

; 451  : 			aLogItem.Action = "$";
; 452  : 			aLogItem.SendName = pUser->GetName();

  0013a	6a 00		 push	 0
  0013c	8b cb		 mov	 ecx, ebx
  0013e	c7 85 34 ff ff
	ff 00 00 00 00	 mov	 DWORD PTR _aLogItem$1[ebp], OFFSET ??_C@_01EPMOAMKG@$@
  00148	e8 00 00 00 00	 call	 ?GetName@CMover@@QAEPBDH@Z ; CMover::GetName

; 453  : 			aLogItem.RecvName = "PIERCING_REMOVE";
; 454  : 			aLogItem.WorldId = pUser->GetWorld()->GetID();
; 455  : 			aLogItem.Gold = pUser->GetGold() + nPayPenya;

  0014d	8b 8b e0 14 00
	00		 mov	 ecx, DWORD PTR [ebx+5344]
  00153	89 85 38 ff ff
	ff		 mov	 DWORD PTR _aLogItem$1[ebp+4], eax
  00159	8b 83 6c 01 00
	00		 mov	 eax, DWORD PTR [ebx+364]
  0015f	c7 85 3c ff ff
	ff 00 00 00 00	 mov	 DWORD PTR _aLogItem$1[ebp+8], OFFSET ??_C@_0BA@PKNCKPDH@PIERCING_REMOVE@

; 456  : 			aLogItem.Gold2 = pUser->GetGold();
; 457  : 			aLogItem.Gold_1 = -nPayPenya;
; 458  : 			g_DPSrvr.OnLogItem( aLogItem, pItemElem, 1 );

  00169	6a 01		 push	 1
  0016b	56		 push	 esi
  0016c	8b 00		 mov	 eax, DWORD PTR [eax]
  0016e	89 85 40 ff ff
	ff		 mov	 DWORD PTR _aLogItem$1[ebp+12], eax
  00174	8d 81 40 42 0f
	00		 lea	 eax, DWORD PTR [ecx+1000000]
  0017a	89 85 44 ff ff
	ff		 mov	 DWORD PTR _aLogItem$1[ebp+16], eax
  00180	8d 85 34 ff ff
	ff		 lea	 eax, DWORD PTR _aLogItem$1[ebp]
  00186	89 8d 48 ff ff
	ff		 mov	 DWORD PTR _aLogItem$1[ebp+20], ecx
  0018c	b9 00 00 00 00	 mov	 ecx, OFFSET ?g_DPSrvr@@3VCDPSrvr@@A ; g_DPSrvr
  00191	50		 push	 eax
  00192	c7 45 80 c0 bd
	f0 ff		 mov	 DWORD PTR _aLogItem$1[ebp+76], -1000000 ; fff0bdc0H
  00199	e8 00 00 00 00	 call	 ?OnLogItem@CDPSrvr@@QAEXAAU_LogItemInfo@@PAVCItemElem@@H@Z ; CDPSrvr::OnLogItem
  0019e	5f		 pop	 edi

; 459  : 			break;
; 460  : 		}
; 461  : 	}
; 462  : }

  0019f	5e		 pop	 esi
  001a0	5b		 pop	 ebx
  001a1	8b 4d fc	 mov	 ecx, DWORD PTR __$ArrayPad$[ebp]
  001a4	33 cd		 xor	 ecx, ebp
  001a6	e8 00 00 00 00	 call	 @__security_check_cookie@4
  001ab	8b e5		 mov	 esp, ebp
  001ad	5d		 pop	 ebp
  001ae	c2 08 00	 ret	 8
$LN9@OnPiercing:

; 424  : 	{
; 425  : 		pUser->AddDefinedText( TID_GAME_REMOVE_PIERCING_ERROR );

  001b1	68 85 0d 00 00	 push	 3461			; 00000d85H
$LN36@OnPiercing:

; 459  : 			break;
; 460  : 		}
; 461  : 	}
; 462  : }

  001b6	8b cb		 mov	 ecx, ebx
  001b8	e8 00 00 00 00	 call	 ?AddDefinedText@CUser@@QAEXH@Z ; CUser::AddDefinedText
$LN6@OnPiercing:
  001bd	8b 4d fc	 mov	 ecx, DWORD PTR __$ArrayPad$[ebp]
  001c0	5f		 pop	 edi
  001c1	5e		 pop	 esi
  001c2	33 cd		 xor	 ecx, ebp
  001c4	5b		 pop	 ebx
  001c5	e8 00 00 00 00	 call	 @__security_check_cookie@4
  001ca	8b e5		 mov	 esp, ebp
  001cc	5d		 pop	 ebp
  001cd	c2 08 00	 ret	 8
?OnPiercingRemove@CItemUpgrade@@QAEXPAVCUser@@K@Z ENDP	; CItemUpgrade::OnPiercingRemove
_TEXT	ENDS
; Function compile flags: /Ogtp
; File C:\IAGOS\server\v18\Source\Source\WorldServer\ItemUpgrade.cpp
; File C:\IAGOS\server\v18\Source\Source\_Common\Item.h
; File C:\IAGOS\server\v18\Source\Source\WorldServer\ItemUpgrade.cpp
; File C:\IAGOS\server\v18\Source\Source\_Common\Item.h
; File C:\IAGOS\server\v18\Source\Source\WorldServer\ItemUpgrade.cpp
; File C:\IAGOS\server\v18\Source\Source\_Common\Item.h
; File C:\IAGOS\server\v18\Source\Source\WorldServer\ItemUpgrade.cpp
; File C:\IAGOS\server\v18\Source\Source\_Common\Obj.h
; File C:\IAGOS\server\v18\Source\Source\WorldServer\ItemUpgrade.cpp
; File C:\IAGOS\server\v18\Source\Source\_Common\Obj.h
; File C:\IAGOS\server\v18\Source\Source\WorldServer\ItemUpgrade.cpp
; File C:\IAGOS\server\v18\Source\Source\_Common\Obj.h
; File C:\IAGOS\server\v18\Source\Source\WorldServer\ItemUpgrade.cpp
;	COMDAT ?OnPiercing@CItemUpgrade@@QAEXPAVCUser@@KK@Z
_TEXT	SEGMENT
$T1 = -264						; size = 12
$T2 = -252						; size = 12
$T3 = -240						; size = 12
_pItemElem0$1$ = -228					; size = 4
_pUser$GSCopy$1$ = -224					; size = 4
tv394 = -220						; size = 4
_dwSocketCard$GSCopy$1$ = -216				; size = 4
_pItemElem1$1$ = -212					; size = 4
_nSize$1$ = -208					; size = 4
_dwItemId$GSCopy$1$ = -208				; size = 4
_aLogItem$ = -204					; size = 200
__$ArrayPad$ = -4					; size = 4
_pUser$ = 8						; size = 4
_dwItemId$ = 12						; size = 4
_dwSocketCard$ = 16					; size = 4
?OnPiercing@CItemUpgrade@@QAEXPAVCUser@@KK@Z PROC	; CItemUpgrade::OnPiercing, COMDAT
; _this$ = ecx

; 333  : {

  00000	55		 push	 ebp
  00001	8b ec		 mov	 ebp, esp
  00003	81 ec 08 01 00
	00		 sub	 esp, 264		; 00000108H
  00009	a1 00 00 00 00	 mov	 eax, DWORD PTR ___security_cookie
  0000e	33 c5		 xor	 eax, ebp
  00010	89 45 fc	 mov	 DWORD PTR __$ArrayPad$[ebp], eax
  00013	8b 45 0c	 mov	 eax, DWORD PTR _dwItemId$[ebp]
  00016	8b 4d 10	 mov	 ecx, DWORD PTR _dwSocketCard$[ebp]
  00019	53		 push	 ebx
  0001a	56		 push	 esi
  0001b	8b 75 08	 mov	 esi, DWORD PTR _pUser$[ebp]
  0001e	57		 push	 edi
  0001f	89 8d 28 ff ff
	ff		 mov	 DWORD PTR _dwSocketCard$GSCopy$1$[ebp], ecx

; 334  : 	// └╬║ź┼õĖ«┐Ī └ų┤┬┴÷ └Õ┬°ĄŪŠŅ └ų┤┬┴÷ ╚«└╬└╗ ŪžŠ▀ Ūį
; 335  : 	CItemElem* pItemElem0	= pUser->m_Inventory.GetAtId( dwItemId );

  00025	50		 push	 eax
  00026	8d 8e fc 0a 00
	00		 lea	 ecx, DWORD PTR [esi+2812]
  0002c	89 b5 20 ff ff
	ff		 mov	 DWORD PTR _pUser$GSCopy$1$[ebp], esi
  00032	89 85 30 ff ff
	ff		 mov	 DWORD PTR _dwItemId$GSCopy$1$[ebp], eax
  00038	e8 00 00 00 00	 call	 ?GetAtId@?$CItemContainer@VCItemElem@@@@QAEPAVCItemElem@@K@Z ; CItemContainer<CItemElem>::GetAtId

; 336  : 	CItemElem* pItemElem1	= pUser->m_Inventory.GetAtId( dwSocketCard );

  0003d	ff b5 28 ff ff
	ff		 push	 DWORD PTR _dwSocketCard$GSCopy$1$[ebp]
  00043	8b d8		 mov	 ebx, eax
  00045	8d 8e fc 0a 00
	00		 lea	 ecx, DWORD PTR [esi+2812]
  0004b	89 9d 1c ff ff
	ff		 mov	 DWORD PTR _pItemElem0$1$[ebp], ebx
  00051	e8 00 00 00 00	 call	 ?GetAtId@?$CItemContainer@VCItemElem@@@@QAEPAVCItemElem@@K@Z ; CItemContainer<CItemElem>::GetAtId

; 337  : 	if( IsUsableItem( pItemElem0 ) == FALSE || IsUsableItem( pItemElem1 ) == FALSE )

  00056	53		 push	 ebx
  00057	89 85 2c ff ff
	ff		 mov	 DWORD PTR _pItemElem1$1$[ebp], eax
  0005d	e8 00 00 00 00	 call	 ?IsUsableItem@@YAHPAVCItemBase@@@Z ; IsUsableItem
  00062	83 c4 04	 add	 esp, 4
  00065	85 c0		 test	 eax, eax
  00067	0f 84 d1 02 00
	00		 je	 $LN6@OnPiercing
  0006d	ff b5 2c ff ff
	ff		 push	 DWORD PTR _pItemElem1$1$[ebp]
  00073	e8 00 00 00 00	 call	 ?IsUsableItem@@YAHPAVCItemBase@@@Z ; IsUsableItem
  00078	83 c4 04	 add	 esp, 4
  0007b	85 c0		 test	 eax, eax
  0007d	0f 84 bb 02 00
	00		 je	 $LN6@OnPiercing

; 338  : 		return;
; 339  : 
; 340  : 	// └Õ┬°ĄŪŠŅ └ų┤┬ ŠŲ└╠┼█└║ ŪŪŠŅĮ╠ Ė°Ūį
; 341  : 	if( pUser->m_Inventory.IsEquip( dwItemId ) )

  00083	ff b5 30 ff ff
	ff		 push	 DWORD PTR _dwItemId$GSCopy$1$[ebp]
  00089	8d 8e fc 0a 00
	00		 lea	 ecx, DWORD PTR [esi+2812]
  0008f	e8 00 00 00 00	 call	 ?IsEquip@?$CItemContainer@VCItemElem@@@@QAEHK@Z ; CItemContainer<CItemElem>::IsEquip
  00094	85 c0		 test	 eax, eax
  00096	74 26		 je	 SHORT $LN7@OnPiercing

; 342  : 	{
; 343  : 		pUser->AddDefinedText( TID_GAME_EQUIPPUT , "" );

  00098	68 00 00 00 00	 push	 OFFSET ??_C@_00CNPNBAHC@@
  0009d	68 c2 03 00 00	 push	 962			; 000003c2H
  000a2	56		 push	 esi
  000a3	e8 00 00 00 00	 call	 ?AddDefinedText@CUser@@QAAXHPBDZZ ; CUser::AddDefinedText
  000a8	83 c4 0c	 add	 esp, 12			; 0000000cH
  000ab	5f		 pop	 edi

; 409  : 	}
; 410  : 
; 411  : }

  000ac	5e		 pop	 esi
  000ad	5b		 pop	 ebx
  000ae	8b 4d fc	 mov	 ecx, DWORD PTR __$ArrayPad$[ebp]
  000b1	33 cd		 xor	 ecx, ebp
  000b3	e8 00 00 00 00	 call	 @__security_check_cookie@4
  000b8	8b e5		 mov	 esp, ebp
  000ba	5d		 pop	 ebp
  000bb	c2 0c 00	 ret	 12			; 0000000cH
$LN7@OnPiercing:

; 344  : 		return;
; 345  : 	}			
; 346  : 
; 347  : 	// ─½ĄÕ░Ī ĄķŠŅ░ź ŠŲ└╠┼█└╠ ŪŪŠŅĮ╠ ░Ī┤╔Ūč┴÷ ░╦╗ń
; 348  : 	if( !pItemElem0->IsPierceAble() )

  000be	6a 00		 push	 0
  000c0	6a ff		 push	 -1
  000c2	8b cb		 mov	 ecx, ebx
  000c4	e8 00 00 00 00	 call	 ?IsPierceAble@CItemElem@@QAEHKH@Z ; CItemElem::IsPierceAble
  000c9	85 c0		 test	 eax, eax
  000cb	75 26		 jne	 SHORT $LN8@OnPiercing

; 349  : 	{
; 350  : 		pUser->AddDefinedText(  TID_PIERCING_POSSIBLE_ITEM, "" );

  000cd	68 00 00 00 00	 push	 OFFSET ??_C@_00CNPNBAHC@@
  000d2	68 4a 0a 00 00	 push	 2634			; 00000a4aH
  000d7	56		 push	 esi
  000d8	e8 00 00 00 00	 call	 ?AddDefinedText@CUser@@QAAXHPBDZZ ; CUser::AddDefinedText
  000dd	83 c4 0c	 add	 esp, 12			; 0000000cH
  000e0	5f		 pop	 edi

; 409  : 	}
; 410  : 
; 411  : }

  000e1	5e		 pop	 esi
  000e2	5b		 pop	 ebx
  000e3	8b 4d fc	 mov	 ecx, DWORD PTR __$ArrayPad$[ebp]
  000e6	33 cd		 xor	 ecx, ebp
  000e8	e8 00 00 00 00	 call	 @__security_check_cookie@4
  000ed	8b e5		 mov	 esp, ebp
  000ef	5d		 pop	 ebp
  000f0	c2 0c 00	 ret	 12			; 0000000cH
$LN8@OnPiercing:

; 351  : 		return;
; 352  : 	}
; 353  : #ifdef __NEW_ITEM_VARUNA
; 354  : 	if( pItemElem0->GetProp()->dwReferStat1 >= BARUNA_D && pItemElem0->GetProp()->dwReferStat1 <= BARUNA_S )

  000f3	8b cb		 mov	 ecx, ebx
  000f5	e8 00 00 00 00	 call	 ?GetPropA@CItemElem@@QAEPAUItemProp@@XZ ; CItemElem::GetPropA
  000fa	83 b8 d0 01 00
	00 04		 cmp	 DWORD PTR [eax+464], 4
  00101	72 2f		 jb	 SHORT $LN9@OnPiercing
  00103	8b cb		 mov	 ecx, ebx
  00105	e8 00 00 00 00	 call	 ?GetPropA@CItemElem@@QAEPAUItemProp@@XZ ; CItemElem::GetPropA
  0010a	83 b8 d0 01 00
	00 08		 cmp	 DWORD PTR [eax+464], 8
  00111	77 1f		 ja	 SHORT $LN9@OnPiercing

; 355  : 	{
; 356  : 		pUser->AddDefinedText( TID_PIERCING_POSSIBLE_ITEM );

  00113	68 4a 0a 00 00	 push	 2634			; 00000a4aH
  00118	8b ce		 mov	 ecx, esi
  0011a	e8 00 00 00 00	 call	 ?AddDefinedText@CUser@@QAEXH@Z ; CUser::AddDefinedText
  0011f	5f		 pop	 edi

; 409  : 	}
; 410  : 
; 411  : }

  00120	5e		 pop	 esi
  00121	5b		 pop	 ebx
  00122	8b 4d fc	 mov	 ecx, DWORD PTR __$ArrayPad$[ebp]
  00125	33 cd		 xor	 ecx, ebp
  00127	e8 00 00 00 00	 call	 @__security_check_cookie@4
  0012c	8b e5		 mov	 esp, ebp
  0012e	5d		 pop	 ebp
  0012f	c2 0c 00	 ret	 12			; 0000000cH
$LN9@OnPiercing:

; 357  : 		return;
; 358  : 	}
; 359  : #endif // __NEW_ITEM_VARUNA
; 360  : 
; 361  : 	//  IK3_SOCKETCARD?░Ī ŠŲ┤ŽĖķ ŪŪŠŅĮ╠ Ė°Ūį
; 362  : 	if( !pItemElem0->IsPierceAble( pItemElem1->GetProp()->dwItemKind3 ) )

  00132	8b 8d 2c ff ff
	ff		 mov	 ecx, DWORD PTR _pItemElem1$1$[ebp]
  00138	6a 00		 push	 0
  0013a	e8 00 00 00 00	 call	 ?GetPropA@CItemElem@@QAEPAUItemProp@@XZ ; CItemElem::GetPropA
  0013f	8b cb		 mov	 ecx, ebx
  00141	8b 40 78	 mov	 eax, DWORD PTR [eax+120]
  00144	50		 push	 eax
  00145	e8 00 00 00 00	 call	 ?IsPierceAble@CItemElem@@QAEHKH@Z ; CItemElem::IsPierceAble
  0014a	85 c0		 test	 eax, eax
  0014c	75 26		 jne	 SHORT $LN10@OnPiercing

; 363  : 	{
; 364  : 		pUser->AddDefinedText( TID_UPGRADE_ERROR_WRONGUPLEVEL , "" );			

  0014e	68 00 00 00 00	 push	 OFFSET ??_C@_00CNPNBAHC@@
  00153	68 c3 08 00 00	 push	 2243			; 000008c3H
  00158	56		 push	 esi
  00159	e8 00 00 00 00	 call	 ?AddDefinedText@CUser@@QAAXHPBDZZ ; CUser::AddDefinedText
  0015e	83 c4 0c	 add	 esp, 12			; 0000000cH
  00161	5f		 pop	 edi

; 409  : 	}
; 410  : 
; 411  : }

  00162	5e		 pop	 esi
  00163	5b		 pop	 ebx
  00164	8b 4d fc	 mov	 ecx, DWORD PTR __$ArrayPad$[ebp]
  00167	33 cd		 xor	 ecx, ebp
  00169	e8 00 00 00 00	 call	 @__security_check_cookie@4
  0016e	8b e5		 mov	 esp, ebp
  00170	5d		 pop	 ebp
  00171	c2 0c 00	 ret	 12			; 0000000cH
$LN10@OnPiercing:
; File C:\IAGOS\server\v18\Source\Source\_Common\Item.h

; 103  : 	int		GetPiercingSize()	{	return m_piercing.GetPiercingSize();		}

  00174	8d 43 3c	 lea	 eax, DWORD PTR [ebx+60]
  00177	8b c8		 mov	 ecx, eax
  00179	89 85 24 ff ff
	ff		 mov	 DWORD PTR tv394[ebp], eax
  0017f	e8 00 00 00 00	 call	 ?GetPiercingSize@CPiercing@@QAEHXZ ; CPiercing::GetPiercingSize
; File C:\IAGOS\server\v18\Source\Source\WorldServer\ItemUpgrade.cpp

; 371  : 	int nCount = 0;

  00184	33 db		 xor	 ebx, ebx
  00186	89 85 30 ff ff
	ff		 mov	 DWORD PTR _nSize$1$[ebp], eax
; File C:\IAGOS\server\v18\Source\Source\_Common\Item.h

; 103  : 	int		GetPiercingSize()	{	return m_piercing.GetPiercingSize();		}

  0018c	33 ff		 xor	 edi, edi
; File C:\IAGOS\server\v18\Source\Source\WorldServer\ItemUpgrade.cpp

; 372  : 	for( int j = 0; j < nSize; j++ )

  0018e	85 c0		 test	 eax, eax
  00190	7e 29		 jle	 SHORT $LN3@OnPiercing
  00192	8b f0		 mov	 esi, eax
$LL4@OnPiercing:
; File C:\IAGOS\server\v18\Source\Source\_Common\Item.h

; 105  : 	DWORD	GetPiercingItem( int nth )	{	return m_piercing.GetPiercingItem( nth );	}

  00194	8b 8d 24 ff ff
	ff		 mov	 ecx, DWORD PTR tv394[ebp]
  0019a	57		 push	 edi
  0019b	e8 00 00 00 00	 call	 ?GetPiercingItem@CPiercing@@QAEKH@Z ; CPiercing::GetPiercingItem
; File C:\IAGOS\server\v18\Source\Source\WorldServer\ItemUpgrade.cpp

; 372  : 	for( int j = 0; j < nSize; j++ )

  001a0	85 c0		 test	 eax, eax
  001a2	8d 4b 01	 lea	 ecx, DWORD PTR [ebx+1]
  001a5	0f 44 cb	 cmove	 ecx, ebx
  001a8	47		 inc	 edi
  001a9	8b d9		 mov	 ebx, ecx
  001ab	3b fe		 cmp	 edi, esi
  001ad	7c e5		 jl	 SHORT $LL4@OnPiercing
  001af	8b b5 20 ff ff
	ff		 mov	 esi, DWORD PTR _pUser$GSCopy$1$[ebp]
  001b5	8b 85 30 ff ff
	ff		 mov	 eax, DWORD PTR _nSize$1$[ebp]
$LN3@OnPiercing:

; 373  : 	{
; 374  : 		if( pItemElem0->GetPiercingItem( j ) != 0 )
; 375  : 			nCount++;
; 376  : 	}
; 377  : 
; 378  : 	// ║¾░„└╠ Š°└ĖĖķ ┴▀┤▄
; 379  : 	if( nCount == nSize )

  001bb	3b d8		 cmp	 ebx, eax
  001bd	75 26		 jne	 SHORT $LN12@OnPiercing

; 380  : 	{
; 381  : 		pUser->AddDefinedText( TID_PIERCING_ERROR_NOPIERCING, "" );

  001bf	68 00 00 00 00	 push	 OFFSET ??_C@_00CNPNBAHC@@
  001c4	68 52 0a 00 00	 push	 2642			; 00000a52H
  001c9	56		 push	 esi
  001ca	e8 00 00 00 00	 call	 ?AddDefinedText@CUser@@QAAXHPBDZZ ; CUser::AddDefinedText
  001cf	83 c4 0c	 add	 esp, 12			; 0000000cH
  001d2	5f		 pop	 edi

; 409  : 	}
; 410  : 
; 411  : }

  001d3	5e		 pop	 esi
  001d4	5b		 pop	 ebx
  001d5	8b 4d fc	 mov	 ecx, DWORD PTR __$ArrayPad$[ebp]
  001d8	33 cd		 xor	 ecx, ebp
  001da	e8 00 00 00 00	 call	 @__security_check_cookie@4
  001df	8b e5		 mov	 esp, ebp
  001e1	5d		 pop	 ebp
  001e2	c2 0c 00	 ret	 12			; 0000000cH
$LN12@OnPiercing:

; 382  : 		return;
; 383  : 	}
; 384  : 
; 385  : 	// ╦¼
; 386  : 	if( pUser->m_vtInfo.GetOther() )	// ░┼ĘĪ┴▀└╬ ┤ļ╗¾└╠ └ų└ĖĖķ?

  001e5	8d 8e 98 0c 00
	00		 lea	 ecx, DWORD PTR [esi+3224]
  001eb	e8 00 00 00 00	 call	 ?GetOther@CVTInfo@@QAEPAVCMover@@XZ ; CVTInfo::GetOther
  001f0	85 c0		 test	 eax, eax
  001f2	0f 85 46 01 00
	00		 jne	 $LN6@OnPiercing

; 387  : 		return;
; 388  : 	if( pUser->m_vtInfo.VendorIsVendor() )		// │╗░Ī Ų╚░Ē └ų└ĖĖķ?

  001f8	8d 8e 98 0c 00
	00		 lea	 ecx, DWORD PTR [esi+3224]
  001fe	e8 00 00 00 00	 call	 ?VendorIsVendor@CVTInfo@@QAEHXZ ; CVTInfo::VendorIsVendor
  00203	85 c0		 test	 eax, eax
  00205	0f 85 33 01 00
	00		 jne	 $LN6@OnPiercing

; 389  : 		return;
; 390  : 
; 391  : 	LogItemInfo aLogItem;

  0020b	8d 8d 34 ff ff
	ff		 lea	 ecx, DWORD PTR _aLogItem$[ebp]
  00211	e8 00 00 00 00	 call	 ??0_LogItemInfo@@QAE@XZ	; _LogItemInfo::_LogItemInfo

; 392  : 	aLogItem.SendName = pUser->GetName();

  00216	6a 00		 push	 0
  00218	8b ce		 mov	 ecx, esi
  0021a	e8 00 00 00 00	 call	 ?GetName@CMover@@QAEPBDH@Z ; CMover::GetName

; 393  : 	aLogItem.RecvName = "PIERCING";
; 394  : 	aLogItem.WorldId = pUser->GetWorld()->GetID();
; 395  : 	aLogItem.Gold = aLogItem.Gold2 = pUser->GetGold();
; 396  : 
; 397  : 	if( pUser->Pierce( pItemElem0, pItemElem1->m_dwItemId ) )

  0021f	8b 9d 2c ff ff
	ff		 mov	 ebx, DWORD PTR _pItemElem1$1$[ebp]
  00225	8b ce		 mov	 ecx, esi
  00227	8b bd 1c ff ff
	ff		 mov	 edi, DWORD PTR _pItemElem0$1$[ebp]
  0022d	89 85 38 ff ff
	ff		 mov	 DWORD PTR _aLogItem$[ebp+4], eax
  00233	8b 86 6c 01 00
	00		 mov	 eax, DWORD PTR [esi+364]
  00239	c7 85 3c ff ff
	ff 00 00 00 00	 mov	 DWORD PTR _aLogItem$[ebp+8], OFFSET ??_C@_08DGHAMMOF@PIERCING@
  00243	8b 00		 mov	 eax, DWORD PTR [eax]
  00245	89 85 40 ff ff
	ff		 mov	 DWORD PTR _aLogItem$[ebp+12], eax
  0024b	8b 86 e0 14 00
	00		 mov	 eax, DWORD PTR [esi+5344]
  00251	89 85 48 ff ff
	ff		 mov	 DWORD PTR _aLogItem$[ebp+20], eax
  00257	89 85 44 ff ff
	ff		 mov	 DWORD PTR _aLogItem$[ebp+16], eax
  0025d	ff 73 0c	 push	 DWORD PTR [ebx+12]
  00260	57		 push	 edi
  00261	e8 00 00 00 00	 call	 ?Pierce@CMover@@QAEHPAVCItemElem@@K@Z ; CMover::Pierce
  00266	85 c0		 test	 eax, eax
  00268	0f 84 d0 00 00
	00		 je	 $LN6@OnPiercing

; 398  : 	{
; 399  : 		aLogItem.Action = "$";

  0026e	c7 85 34 ff ff
	ff 00 00 00 00	 mov	 DWORD PTR _aLogItem$[ebp], OFFSET ??_C@_01EPMOAMKG@$@

; 400  : 		g_DPSrvr.OnLogItem( aLogItem, pItemElem0, pItemElem0->m_nItemNum );

  00278	b9 00 00 00 00	 mov	 ecx, OFFSET ?g_DPSrvr@@3VCDPSrvr@@A ; g_DPSrvr
  0027d	0f bf 47 74	 movsx	 eax, WORD PTR [edi+116]
  00281	50		 push	 eax
  00282	57		 push	 edi
  00283	8d 85 34 ff ff
	ff		 lea	 eax, DWORD PTR _aLogItem$[ebp]
  00289	50		 push	 eax
  0028a	e8 00 00 00 00	 call	 ?OnLogItem@CDPSrvr@@QAEXAAU_LogItemInfo@@PAVCItemElem@@H@Z ; CDPSrvr::OnLogItem

; 401  : 		aLogItem.Action = "!";

  0028f	c7 85 34 ff ff
	ff 00 00 00 00	 mov	 DWORD PTR _aLogItem$[ebp], OFFSET ??_C@_01DCLJPIOD@?$CB@

; 402  : 		g_DPSrvr.OnLogItem( aLogItem, pItemElem1, pItemElem1->m_nItemNum );

  00299	b9 00 00 00 00	 mov	 ecx, OFFSET ?g_DPSrvr@@3VCDPSrvr@@A ; g_DPSrvr
  0029e	0f bf 43 74	 movsx	 eax, WORD PTR [ebx+116]
  002a2	50		 push	 eax
  002a3	53		 push	 ebx
  002a4	8d 85 34 ff ff
	ff		 lea	 eax, DWORD PTR _aLogItem$[ebp]
  002aa	50		 push	 eax
  002ab	e8 00 00 00 00	 call	 ?OnLogItem@CDPSrvr@@QAEXAAU_LogItemInfo@@PAVCItemElem@@H@Z ; CDPSrvr::OnLogItem

; 403  : 
; 404  : 		// ŠŲ└╠┼█ ╣┌▒Ō ╝║░°~
; 405  : 		pUser->AddPlaySound( SND_INF_UPGRADESUCCESS );

  002b0	6a 0e		 push	 14			; 0000000eH
  002b2	8b ce		 mov	 ecx, esi
  002b4	e8 00 00 00 00	 call	 ?AddPlaySound@CUser@@QAEXK@Z ; CUser::AddPlaySound
; File C:\IAGOS\server\v18\Source\Source\_Common\Obj.h

; 215  : 	D3DXVECTOR3		GetPos()	{ return m_vPos; }

  002b9	f3 0f 7e 86 60
	01 00 00	 movq	 xmm0, QWORD PTR [esi+352]
; File C:\IAGOS\server\v18\Source\Source\WorldServer\ItemUpgrade.cpp

; 406  : 		g_UserMng.AddCreateSfxObj((CMover *)pUser, XI_INT_SUCCESS, pUser->GetPos().x, pUser->GetPos().y, pUser->GetPos().z);

  002c1	b9 00 00 00 00	 mov	 ecx, OFFSET ?g_UserMng@@3VCUserMng@@A ; g_UserMng
; File C:\IAGOS\server\v18\Source\Source\_Common\Obj.h

; 215  : 	D3DXVECTOR3		GetPos()	{ return m_vPos; }

  002c6	8b 86 68 01 00
	00		 mov	 eax, DWORD PTR [esi+360]
  002cc	66 0f d6 85 10
	ff ff ff	 movq	 QWORD PTR $T3[ebp], xmm0
  002d4	f3 0f 7e c0	 movq	 xmm0, xmm0
  002d8	66 0f d6 85 04
	ff ff ff	 movq	 QWORD PTR $T2[ebp], xmm0
  002e0	f3 0f 7e 86 60
	01 00 00	 movq	 xmm0, QWORD PTR [esi+352]
; File C:\IAGOS\server\v18\Source\Source\WorldServer\ItemUpgrade.cpp

; 406  : 		g_UserMng.AddCreateSfxObj((CMover *)pUser, XI_INT_SUCCESS, pUser->GetPos().x, pUser->GetPos().y, pUser->GetPos().z);

  002e8	6a 00		 push	 0
  002ea	83 ec 0c	 sub	 esp, 12			; 0000000cH
; File C:\IAGOS\server\v18\Source\Source\_Common\Obj.h

; 215  : 	D3DXVECTOR3		GetPos()	{ return m_vPos; }

  002ed	66 0f d6 85 f8
	fe ff ff	 movq	 QWORD PTR $T1[ebp], xmm0
  002f5	89 85 18 ff ff
	ff		 mov	 DWORD PTR $T3[ebp+8], eax
; File C:\IAGOS\server\v18\Source\Source\WorldServer\ItemUpgrade.cpp

; 406  : 		g_UserMng.AddCreateSfxObj((CMover *)pUser, XI_INT_SUCCESS, pUser->GetPos().x, pUser->GetPos().y, pUser->GetPos().z);

  002fb	f3 0f 10 85 18
	ff ff ff	 movss	 xmm0, DWORD PTR $T3[ebp+8]
  00303	f3 0f 11 44 24
	08		 movss	 DWORD PTR [esp+8], xmm0
  00309	f3 0f 10 85 08
	ff ff ff	 movss	 xmm0, DWORD PTR $T2[ebp+4]
  00311	f3 0f 11 44 24
	04		 movss	 DWORD PTR [esp+4], xmm0
  00317	f3 0f 10 85 f8
	fe ff ff	 movss	 xmm0, DWORD PTR $T1[ebp]
  0031f	f3 0f 11 04 24	 movss	 DWORD PTR [esp], xmm0
  00324	68 b2 06 00 00	 push	 1714			; 000006b2H
  00329	56		 push	 esi
  0032a	e8 00 00 00 00	 call	 ?AddCreateSfxObj@CUserMng@@QAEXPAVCCtrl@@KMMMH@Z ; CUserMng::AddCreateSfxObj

; 407  : 		// └ńĘß ŠŲ└╠┼█ ╗Ķ┴”
; 408  : 		pUser->RemoveItem( (BYTE)( dwSocketCard ), (short)1 );

  0032f	6a 01		 push	 1
  00331	ff b5 28 ff ff
	ff		 push	 DWORD PTR _dwSocketCard$GSCopy$1$[ebp]
  00337	8b ce		 mov	 ecx, esi
  00339	e8 00 00 00 00	 call	 ?RemoveItem@CMover@@QAEXEF@Z ; CMover::RemoveItem
$LN6@OnPiercing:

; 409  : 	}
; 410  : 
; 411  : }

  0033e	8b 4d fc	 mov	 ecx, DWORD PTR __$ArrayPad$[ebp]
  00341	5f		 pop	 edi
  00342	5e		 pop	 esi
  00343	33 cd		 xor	 ecx, ebp
  00345	5b		 pop	 ebx
  00346	e8 00 00 00 00	 call	 @__security_check_cookie@4
  0034b	8b e5		 mov	 esp, ebp
  0034d	5d		 pop	 ebp
  0034e	c2 0c 00	 ret	 12			; 0000000cH
?OnPiercing@CItemUpgrade@@QAEXPAVCUser@@KK@Z ENDP	; CItemUpgrade::OnPiercing
_TEXT	ENDS
; Function compile flags: /Ogtp
; File C:\IAGOS\server\v18\Source\Source\WorldServer\ItemUpgrade.cpp
; File C:\IAGOS\server\v18\Source\Source\_Common\Item.h
; File C:\Program Files\Microsoft Visual Studio\2022\Professional\VC\Tools\MSVC\14.44.35207\include\xtree
; File C:\IAGOS\server\v18\Source\Source\WorldServer\ItemUpgrade.cpp
; File C:\Program Files\Microsoft Visual Studio\2022\Professional\VC\Tools\MSVC\14.44.35207\include\xtree
; File C:\IAGOS\server\v18\Source\Source\WorldServer\ItemUpgrade.cpp
; File C:\Program Files\Microsoft Visual Studio\2022\Professional\VC\Tools\MSVC\14.44.35207\include\xtree
; File C:\Program Files\Microsoft Visual Studio\2022\Professional\VC\Tools\MSVC\14.44.35207\include\type_traits
; File C:\Program Files\Microsoft Visual Studio\2022\Professional\VC\Tools\MSVC\14.44.35207\include\xtree
; File C:\IAGOS\server\v18\Source\Source\WorldServer\ItemUpgrade.cpp
; File C:\IAGOS\server\v18\Source\Source\_Common\Item.h
; File C:\Program Files\Microsoft Visual Studio\2022\Professional\VC\Tools\MSVC\14.44.35207\include\xtree
; File C:\IAGOS\server\v18\Source\Source\WorldServer\ItemUpgrade.cpp
; File C:\Program Files\Microsoft Visual Studio\2022\Professional\VC\Tools\MSVC\14.44.35207\include\xtree
; File C:\IAGOS\server\v18\Source\Source\WorldServer\ItemUpgrade.cpp
; File C:\Program Files\Microsoft Visual Studio\2022\Professional\VC\Tools\MSVC\14.44.35207\include\xtree
; File C:\Program Files\Microsoft Visual Studio\2022\Professional\VC\Tools\MSVC\14.44.35207\include\type_traits
; File C:\Program Files\Microsoft Visual Studio\2022\Professional\VC\Tools\MSVC\14.44.35207\include\xtree
; File C:\IAGOS\server\v18\Source\Source\WorldServer\ItemUpgrade.cpp
;	COMDAT ?GetSizeProb@CItemUpgrade@@QAEHPAVCItemElem@@@Z
_TEXT	SEGMENT
__Loc$1 = -16						; size = 12
__Loc$2 = -16						; size = 12
_pItemElem$ = 8						; size = 4
$T3 = 8							; size = 4
$T4 = 8							; size = 4
?GetSizeProb@CItemUpgrade@@QAEHPAVCItemElem@@@Z PROC	; CItemUpgrade::GetSizeProb, COMDAT
; _this$ = ecx

; 310  : {

  00000	55		 push	 ebp
  00001	8b ec		 mov	 ebp, esp
  00003	83 ec 10	 sub	 esp, 16			; 00000010H
  00006	53		 push	 ebx
  00007	56		 push	 esi

; 311  : 	// ŲĒ╣²└ĖĘ╬...IK3_SOCKETCARD░Ī ┴ż╗¾└╠Ėķ Į┤Ų«...
; 312  : 	if( pItemElem->IsPierceAble( IK3_SOCKETCARD ) )

  00008	8b 75 08	 mov	 esi, DWORD PTR _pItemElem$[ebp]
  0000b	8b d9		 mov	 ebx, ecx
  0000d	57		 push	 edi
  0000e	6a 00		 push	 0
  00010	6a 3e		 push	 62			; 0000003eH
  00012	8b ce		 mov	 ecx, esi
  00014	8d 7e 3c	 lea	 edi, DWORD PTR [esi+60]
  00017	e8 00 00 00 00	 call	 ?IsPierceAble@CItemElem@@QAEHKH@Z ; CItemElem::IsPierceAble
  0001c	85 c0		 test	 eax, eax
  0001e	74 3f		 je	 SHORT $LN107@GetSizePro
; File C:\IAGOS\server\v18\Source\Source\_Common\Item.h

; 103  : 	int		GetPiercingSize()	{	return m_piercing.GetPiercingSize();		}

  00020	8b cf		 mov	 ecx, edi
  00022	e8 00 00 00 00	 call	 ?GetPiercingSize@CPiercing@@QAEHXZ ; CPiercing::GetPiercingSize
; File C:\Program Files\Microsoft Visual Studio\2022\Professional\VC\Tools\MSVC\14.44.35207\include\xtree

; 1384 :         const _Tree_find_result<_Nodeptr> _Loc = _Find_lower_bound(_Keyval);

  00027	8d 4b 08	 lea	 ecx, DWORD PTR [ebx+8]
; File C:\IAGOS\server\v18\Source\Source\WorldServer\ItemUpgrade.cpp

; 315  : 		map<int, int>::iterator it = m_mapSuitProb.find( pItemElem->GetPiercingSize()+1 );

  0002a	8d 78 01	 lea	 edi, DWORD PTR [eax+1]
; File C:\Program Files\Microsoft Visual Studio\2022\Professional\VC\Tools\MSVC\14.44.35207\include\xtree

; 1384 :         const _Tree_find_result<_Nodeptr> _Loc = _Find_lower_bound(_Keyval);

  0002d	8d 45 08	 lea	 eax, DWORD PTR $T3[ebp]
; File C:\IAGOS\server\v18\Source\Source\WorldServer\ItemUpgrade.cpp

; 315  : 		map<int, int>::iterator it = m_mapSuitProb.find( pItemElem->GetPiercingSize()+1 );

  00030	89 7d 08	 mov	 DWORD PTR $T3[ebp], edi
; File C:\Program Files\Microsoft Visual Studio\2022\Professional\VC\Tools\MSVC\14.44.35207\include\xtree

; 1384 :         const _Tree_find_result<_Nodeptr> _Loc = _Find_lower_bound(_Keyval);

  00033	50		 push	 eax
  00034	8d 45 f0	 lea	 eax, DWORD PTR __Loc$1[ebp]
  00037	50		 push	 eax
  00038	e8 00 00 00 00	 call	 ??$_Find_lower_bound@H@?$_Tree@V?$_Tmap_traits@HHU?$less@H@std@@V?$allocator@U?$pair@$$CBHH@std@@@2@$0A@@std@@@std@@IBE?AU?$_Tree_find_result@PAU?$_Tree_node@U?$pair@$$CBHH@std@@PAX@std@@@1@ABH@Z ; std::_Tree<std::_Tmap_traits<int,int,std::less<int>,std::allocator<std::pair<int const ,int> >,0> >::_Find_lower_bound<int>

; 1624 :         return !_Bound->_Isnil && !_DEBUG_LT_PRED(_Getcomp(), _Keyval, _Traits::_Kfn(_Bound->_Myval));

  0003d	8b 45 f8	 mov	 eax, DWORD PTR __Loc$1[ebp+8]
  00040	80 78 0d 00	 cmp	 BYTE PTR [eax+13], 0
  00044	75 16		 jne	 SHORT $LN112@GetSizePro
; File C:\Program Files\Microsoft Visual Studio\2022\Professional\VC\Tools\MSVC\14.44.35207\include\type_traits

; 2380 :         return _Left < _Right;

  00046	3b 78 10	 cmp	 edi, DWORD PTR [eax+16]
; File C:\Program Files\Microsoft Visual Studio\2022\Professional\VC\Tools\MSVC\14.44.35207\include\xtree

; 1624 :         return !_Bound->_Isnil && !_DEBUG_LT_PRED(_Getcomp(), _Keyval, _Traits::_Kfn(_Bound->_Myval));

  00049	7c 11		 jl	 SHORT $LN112@GetSizePro

; 37   :     _Tree_unchecked_const_iterator(_Nodeptr _Pnode, const _Mytree* _Plist) noexcept : _Ptr(_Pnode) {

  0004b	3b 43 08	 cmp	 eax, DWORD PTR [ebx+8]
; File C:\IAGOS\server\v18\Source\Source\WorldServer\ItemUpgrade.cpp

; 316  : 		if( it != m_mapSuitProb.end() )

  0004e	74 0c		 je	 SHORT $LN112@GetSizePro
$LN121@GetSizePro:

; 326  : 			return it->second;
; 327  : 	}
; 328  : 
; 329  : 	return 0;
; 330  : }

  00050	8b 40 14	 mov	 eax, DWORD PTR [eax+20]
  00053	5f		 pop	 edi
  00054	5e		 pop	 esi
  00055	5b		 pop	 ebx
  00056	8b e5		 mov	 esp, ebp
  00058	5d		 pop	 ebp
  00059	c2 04 00	 ret	 4
$LN112@GetSizePro:

; 317  : 			return it->second;
; 318  : 	}
; 319  : 	
; 320  : 	// ŲĒ╣²└ĖĘ╬...IK3_SOCKETCARD2░Ī ┴ż╗¾└╠Ėķ ╣½▒Ō┬╩...
; 321  : 	if( pItemElem->IsPierceAble( IK3_SOCKETCARD2 ) )

  0005c	8d 7e 3c	 lea	 edi, DWORD PTR [esi+60]
$LN107@GetSizePro:
  0005f	6a 00		 push	 0
  00061	6a 3f		 push	 63			; 0000003fH
  00063	8b ce		 mov	 ecx, esi
  00065	e8 00 00 00 00	 call	 ?IsPierceAble@CItemElem@@QAEHKH@Z ; CItemElem::IsPierceAble
  0006a	85 c0		 test	 eax, eax
  0006c	74 30		 je	 SHORT $LN5@GetSizePro
; File C:\IAGOS\server\v18\Source\Source\_Common\Item.h

; 103  : 	int		GetPiercingSize()	{	return m_piercing.GetPiercingSize();		}

  0006e	8b cf		 mov	 ecx, edi
  00070	e8 00 00 00 00	 call	 ?GetPiercingSize@CPiercing@@QAEHXZ ; CPiercing::GetPiercingSize
; File C:\Program Files\Microsoft Visual Studio\2022\Professional\VC\Tools\MSVC\14.44.35207\include\xtree

; 1384 :         const _Tree_find_result<_Nodeptr> _Loc = _Find_lower_bound(_Keyval);

  00075	8d 4b 10	 lea	 ecx, DWORD PTR [ebx+16]
; File C:\IAGOS\server\v18\Source\Source\WorldServer\ItemUpgrade.cpp

; 324  : 		map<int, int>::iterator it = m_mapWeaponProb.find( pItemElem->GetPiercingSize()+1 );

  00078	8d 70 01	 lea	 esi, DWORD PTR [eax+1]
; File C:\Program Files\Microsoft Visual Studio\2022\Professional\VC\Tools\MSVC\14.44.35207\include\xtree

; 1384 :         const _Tree_find_result<_Nodeptr> _Loc = _Find_lower_bound(_Keyval);

  0007b	8d 45 08	 lea	 eax, DWORD PTR $T4[ebp]
; File C:\IAGOS\server\v18\Source\Source\WorldServer\ItemUpgrade.cpp

; 324  : 		map<int, int>::iterator it = m_mapWeaponProb.find( pItemElem->GetPiercingSize()+1 );

  0007e	89 75 08	 mov	 DWORD PTR $T4[ebp], esi
; File C:\Program Files\Microsoft Visual Studio\2022\Professional\VC\Tools\MSVC\14.44.35207\include\xtree

; 1384 :         const _Tree_find_result<_Nodeptr> _Loc = _Find_lower_bound(_Keyval);

  00081	50		 push	 eax
  00082	8d 45 f0	 lea	 eax, DWORD PTR __Loc$2[ebp]
  00085	50		 push	 eax
  00086	e8 00 00 00 00	 call	 ??$_Find_lower_bound@H@?$_Tree@V?$_Tmap_traits@HHU?$less@H@std@@V?$allocator@U?$pair@$$CBHH@std@@@2@$0A@@std@@@std@@IBE?AU?$_Tree_find_result@PAU?$_Tree_node@U?$pair@$$CBHH@std@@PAX@std@@@1@ABH@Z ; std::_Tree<std::_Tmap_traits<int,int,std::less<int>,std::allocator<std::pair<int const ,int> >,0> >::_Find_lower_bound<int>

; 1624 :         return !_Bound->_Isnil && !_DEBUG_LT_PRED(_Getcomp(), _Keyval, _Traits::_Kfn(_Bound->_Myval));

  0008b	8b 45 f8	 mov	 eax, DWORD PTR __Loc$2[ebp+8]
  0008e	80 78 0d 00	 cmp	 BYTE PTR [eax+13], 0
  00092	75 0a		 jne	 SHORT $LN5@GetSizePro
; File C:\Program Files\Microsoft Visual Studio\2022\Professional\VC\Tools\MSVC\14.44.35207\include\type_traits

; 2380 :         return _Left < _Right;

  00094	3b 70 10	 cmp	 esi, DWORD PTR [eax+16]
; File C:\Program Files\Microsoft Visual Studio\2022\Professional\VC\Tools\MSVC\14.44.35207\include\xtree

; 1624 :         return !_Bound->_Isnil && !_DEBUG_LT_PRED(_Getcomp(), _Keyval, _Traits::_Kfn(_Bound->_Myval));

  00097	7c 05		 jl	 SHORT $LN5@GetSizePro

; 37   :     _Tree_unchecked_const_iterator(_Nodeptr _Pnode, const _Mytree* _Plist) noexcept : _Ptr(_Pnode) {

  00099	3b 43 10	 cmp	 eax, DWORD PTR [ebx+16]
; File C:\IAGOS\server\v18\Source\Source\WorldServer\ItemUpgrade.cpp

; 325  : 		if( it != m_mapWeaponProb.end() )

  0009c	75 b2		 jne	 SHORT $LN121@GetSizePro
$LN5@GetSizePro:
  0009e	5f		 pop	 edi

; 326  : 			return it->second;
; 327  : 	}
; 328  : 
; 329  : 	return 0;
; 330  : }

  0009f	5e		 pop	 esi
  000a0	33 c0		 xor	 eax, eax
  000a2	5b		 pop	 ebx
  000a3	8b e5		 mov	 esp, ebp
  000a5	5d		 pop	 ebp
  000a6	c2 04 00	 ret	 4
?GetSizeProb@CItemUpgrade@@QAEHPAVCItemElem@@@Z ENDP	; CItemUpgrade::GetSizeProb
_TEXT	ENDS
; Function compile flags: /Ogtp
; File C:\IAGOS\server\v18\Source\Source\WorldServer\ItemUpgrade.cpp
; File C:\IAGOS\server\v18\Source\Source\_Common\xUtil.h
; File C:\IAGOS\server\v18\Source\Source\WorldServer\ItemUpgrade.cpp
; File C:\IAGOS\server\v18\Source\Source\_Common\Obj.h
; File C:\IAGOS\server\v18\Source\Source\WorldServer\ItemUpgrade.cpp
; File C:\IAGOS\server\v18\Source\Source\_Common\Obj.h
; File C:\IAGOS\server\v18\Source\Source\WorldServer\ItemUpgrade.cpp
; File C:\IAGOS\server\v18\Source\Source\_Common\Obj.h
; File C:\IAGOS\server\v18\Source\Source\WorldServer\ItemUpgrade.cpp
; File C:\IAGOS\server\v18\Source\Source\_Common\Obj.h
; File C:\IAGOS\server\v18\Source\Source\WorldServer\ItemUpgrade.cpp
; File C:\IAGOS\server\v18\Source\Source\_Common\Obj.h
; File C:\IAGOS\server\v18\Source\Source\WorldServer\ItemUpgrade.cpp
; File C:\IAGOS\server\v18\Source\Source\_Common\Obj.h
; File C:\IAGOS\server\v18\Source\Source\WorldServer\ItemUpgrade.cpp
; File C:\IAGOS\server\v18\Source\Source\_Common\Item.h
; File C:\IAGOS\server\v18\Source\Source\WorldServer\ItemUpgrade.cpp
;	COMDAT ?OnPiercingSize@CItemUpgrade@@QAEXPAVCUser@@KKK@Z
_TEXT	SEGMENT
$T1 = -264						; size = 12
$T2 = -264						; size = 12
$T3 = -252						; size = 12
$T4 = -252						; size = 12
$T5 = -240						; size = 12
$T6 = -240						; size = 12
_dwId1$GSCopy$1$ = -228					; size = 4
_this$GSCopy$1$ = -224					; size = 4
_dwId3$GSCopy$1$ = -220					; size = 4
_dwId2$GSCopy$1$ = -216					; size = 4
_nPersent$1$ = -212					; size = 4
_pItemElem1$1$ = -208					; size = 4
_aLogItem$ = -204					; size = 200
__$ArrayPad$ = -4					; size = 4
_pUser$ = 8						; size = 4
_dwId1$ = 12						; size = 4
_dwId2$ = 16						; size = 4
_dwId3$ = 20						; size = 4
?OnPiercingSize@CItemUpgrade@@QAEXPAVCUser@@KKK@Z PROC	; CItemUpgrade::OnPiercingSize, COMDAT
; _this$ = ecx

; 182  : {

  00000	55		 push	 ebp
  00001	8b ec		 mov	 ebp, esp
  00003	81 ec 08 01 00
	00		 sub	 esp, 264		; 00000108H
  00009	a1 00 00 00 00	 mov	 eax, DWORD PTR ___security_cookie
  0000e	33 c5		 xor	 eax, ebp
  00010	89 45 fc	 mov	 DWORD PTR __$ArrayPad$[ebp], eax
  00013	8b 45 10	 mov	 eax, DWORD PTR _dwId2$[ebp]
  00016	53		 push	 ebx
  00017	56		 push	 esi
  00018	8b 75 08	 mov	 esi, DWORD PTR _pUser$[ebp]
  0001b	89 8d 20 ff ff
	ff		 mov	 DWORD PTR _this$GSCopy$1$[ebp], ecx
  00021	8b 4d 0c	 mov	 ecx, DWORD PTR _dwId1$[ebp]
  00024	57		 push	 edi
  00025	89 8d 1c ff ff
	ff		 mov	 DWORD PTR _dwId1$GSCopy$1$[ebp], ecx
  0002b	89 85 28 ff ff
	ff		 mov	 DWORD PTR _dwId2$GSCopy$1$[ebp], eax
  00031	8b 45 14	 mov	 eax, DWORD PTR _dwId3$[ebp]

; 183  : 	CItemElem* pItemElem0	= pUser->m_Inventory.GetAtId( dwId1 );

  00034	51		 push	 ecx
  00035	8d 8e fc 0a 00
	00		 lea	 ecx, DWORD PTR [esi+2812]
  0003b	89 85 24 ff ff
	ff		 mov	 DWORD PTR _dwId3$GSCopy$1$[ebp], eax
  00041	e8 00 00 00 00	 call	 ?GetAtId@?$CItemContainer@VCItemElem@@@@QAEPAVCItemElem@@K@Z ; CItemContainer<CItemElem>::GetAtId

; 184  : 	CItemElem* pItemElem1	= pUser->m_Inventory.GetAtId( dwId2 );

  00046	ff b5 28 ff ff
	ff		 push	 DWORD PTR _dwId2$GSCopy$1$[ebp]
  0004c	8d 8e fc 0a 00
	00		 lea	 ecx, DWORD PTR [esi+2812]
  00052	8b d8		 mov	 ebx, eax
  00054	e8 00 00 00 00	 call	 ?GetAtId@?$CItemContainer@VCItemElem@@@@QAEPAVCItemElem@@K@Z ; CItemContainer<CItemElem>::GetAtId

; 185  : 	CItemElem* pItemElem2	= pUser->m_Inventory.GetAtId( dwId3 );

  00059	ff b5 24 ff ff
	ff		 push	 DWORD PTR _dwId3$GSCopy$1$[ebp]
  0005f	8d 8e fc 0a 00
	00		 lea	 ecx, DWORD PTR [esi+2812]
  00065	89 85 30 ff ff
	ff		 mov	 DWORD PTR _pItemElem1$1$[ebp], eax
  0006b	e8 00 00 00 00	 call	 ?GetAtId@?$CItemContainer@VCItemElem@@@@QAEPAVCItemElem@@K@Z ; CItemContainer<CItemElem>::GetAtId

; 186  : 
; 187  : 	if( IsUsableItem( pItemElem0 ) == FALSE || IsUsableItem( pItemElem1 ) == FALSE )

  00070	53		 push	 ebx
  00071	8b f8		 mov	 edi, eax
  00073	e8 00 00 00 00	 call	 ?IsUsableItem@@YAHPAVCItemBase@@@Z ; IsUsableItem
  00078	83 c4 04	 add	 esp, 4
  0007b	85 c0		 test	 eax, eax
  0007d	0f 84 bd 04 00
	00		 je	 $LN11@OnPiercing
  00083	ff b5 30 ff ff
	ff		 push	 DWORD PTR _pItemElem1$1$[ebp]
  00089	e8 00 00 00 00	 call	 ?IsUsableItem@@YAHPAVCItemBase@@@Z ; IsUsableItem
  0008e	83 c4 04	 add	 esp, 4
  00091	85 c0		 test	 eax, eax
  00093	0f 84 a7 04 00
	00		 je	 $LN11@OnPiercing

; 188  : 		return;
; 189  : 
; 190  : 	if( pUser->m_vtInfo.GetOther() || pUser->m_vtInfo.VendorIsVendor() ) // ░┼ĘĪ ┴▀└╠Ėķ...

  00099	8d 8e 98 0c 00
	00		 lea	 ecx, DWORD PTR [esi+3224]
  0009f	e8 00 00 00 00	 call	 ?GetOther@CVTInfo@@QAEPAVCMover@@XZ ; CVTInfo::GetOther
  000a4	85 c0		 test	 eax, eax
  000a6	0f 85 94 04 00
	00		 jne	 $LN11@OnPiercing
  000ac	8d 8e 98 0c 00
	00		 lea	 ecx, DWORD PTR [esi+3224]
  000b2	e8 00 00 00 00	 call	 ?VendorIsVendor@CVTInfo@@QAEHXZ ; CVTInfo::VendorIsVendor
  000b7	85 c0		 test	 eax, eax
  000b9	0f 85 81 04 00
	00		 jne	 $LN11@OnPiercing

; 191  : 		return;	
; 192  : 	
; 193  : 	if( pUser->m_Inventory.IsEquip( pItemElem0->m_dwObjId ) )

  000bf	ff 73 04	 push	 DWORD PTR [ebx+4]
  000c2	8d 8e fc 0a 00
	00		 lea	 ecx, DWORD PTR [esi+2812]
  000c8	e8 00 00 00 00	 call	 ?IsEquip@?$CItemContainer@VCItemElem@@@@QAEHK@Z ; CItemContainer<CItemElem>::IsEquip
  000cd	85 c0		 test	 eax, eax
  000cf	74 0a		 je	 SHORT $LN6@OnPiercing

; 194  : 	{
; 195  : 		pUser->AddDefinedText( TID_GAME_EQUIPPUT );

  000d1	68 c2 03 00 00	 push	 962			; 000003c2H

; 196  : 		return;

  000d6	e9 5e 04 00 00	 jmp	 $LN63@OnPiercing
$LN6@OnPiercing:

; 197  : 	}	
; 198  : 
; 199  : 	//////////////// ├╣╣°┬░ ŠŲ└╠┼█ //////////////// 
; 200  : 	if( !pItemElem0->IsPierceAble( NULL_ID, TRUE ) )

  000db	6a 01		 push	 1
  000dd	6a ff		 push	 -1
  000df	8b cb		 mov	 ecx, ebx
  000e1	e8 00 00 00 00	 call	 ?IsPierceAble@CItemElem@@QAEHKH@Z ; CItemElem::IsPierceAble
  000e6	85 c0		 test	 eax, eax
  000e8	0f 84 46 04 00
	00		 je	 $LN46@OnPiercing

; 201  : 	{
; 202  : 		pUser->AddDefinedText( TID_PIERCING_POSSIBLE_ITEM );
; 203  : 		return;
; 204  : 	}
; 205  : #ifdef __NEW_ITEM_VARUNA
; 206  : 	if( pItemElem0->GetProp()->dwReferStat1 >= BARUNA_D && pItemElem0->GetProp()->dwReferStat1 <= BARUNA_S )

  000ee	8b cb		 mov	 ecx, ebx
  000f0	e8 00 00 00 00	 call	 ?GetPropA@CItemElem@@QAEPAUItemProp@@XZ ; CItemElem::GetPropA
  000f5	83 b8 d0 01 00
	00 04		 cmp	 DWORD PTR [eax+464], 4
  000fc	72 14		 jb	 SHORT $LN8@OnPiercing
  000fe	8b cb		 mov	 ecx, ebx
  00100	e8 00 00 00 00	 call	 ?GetPropA@CItemElem@@QAEPAUItemProp@@XZ ; CItemElem::GetPropA
  00105	83 b8 d0 01 00
	00 08		 cmp	 DWORD PTR [eax+464], 8
  0010c	0f 86 22 04 00
	00		 jbe	 $LN46@OnPiercing
$LN8@OnPiercing:

; 209  : 		return;
; 210  : 	}
; 211  : #endif // __NEW_ITEM_VARUNA
; 212  : 
; 213  : 	if( pItemElem1->GetProp()->dwID != II_GEN_MAT_MOONSTONE 
; 214  : 		&& pItemElem1->GetProp()->dwID != II_GEN_MAT_MOONSTONE_1 )

  00112	8b 8d 30 ff ff
	ff		 mov	 ecx, DWORD PTR _pItemElem1$1$[ebp]
  00118	e8 00 00 00 00	 call	 ?GetPropA@CItemElem@@QAEPAUItemProp@@XZ ; CItemElem::GetPropA
  0011d	81 38 f4 07 00
	00		 cmp	 DWORD PTR [eax], 2036	; 000007f4H
  00123	74 13		 je	 SHORT $LN9@OnPiercing
  00125	8b 8d 30 ff ff
	ff		 mov	 ecx, DWORD PTR _pItemElem1$1$[ebp]
  0012b	e8 00 00 00 00	 call	 ?GetPropA@CItemElem@@QAEPAUItemProp@@XZ ; CItemElem::GetPropA
  00130	81 38 23 08 00
	00		 cmp	 DWORD PTR [eax], 2083	; 00000823H
  00136	75 16		 jne	 SHORT $LN44@OnPiercing
$LN9@OnPiercing:

; 215  : 	{
; 216  : 		pUser->AddDefinedText( TID_SBEVE_NOTUSEITEM );			// ŪŪŠŅĮ╠┐Ī Ū╩┐õŪč ┴ų╗ń└¦░Ī ŠŲ┤ŽĖķ ║ę░Ī┤╔
; 217  : 		return;
; 218  : 	}
; 219  : 	
; 220  : 	if( IsUsableItem( pItemElem2 ) && pItemElem2->m_dwItemId != II_SYS_SYS_SCR_PIEPROT )

  00138	57		 push	 edi
  00139	e8 00 00 00 00	 call	 ?IsUsableItem@@YAHPAVCItemBase@@@Z ; IsUsableItem
  0013e	83 c4 04	 add	 esp, 4
  00141	85 c0		 test	 eax, eax
  00143	74 13		 je	 SHORT $LN10@OnPiercing
  00145	81 7f 0c e1 28
	00 00		 cmp	 DWORD PTR [edi+12], 10465 ; 000028e1H
  0014c	74 0a		 je	 SHORT $LN10@OnPiercing
$LN44@OnPiercing:

; 221  : 	{
; 222  : 		pUser->AddDefinedText( TID_SBEVE_NOTUSEITEM );			// ╗¾┐ļŠŲ└╠┼█└╠ ŠŲ┤ŽĖķ ║ę░Ī┤╔

  0014e	68 ff 01 00 00	 push	 511			; 000001ffH

; 223  : 		return;

  00153	e9 e1 03 00 00	 jmp	 $LN63@OnPiercing
$LN10@OnPiercing:

; 224  : 	}
; 225  : 
; 226  : 	LogItemInfo aLogItem;

  00158	8d 8d 34 ff ff
	ff		 lea	 ecx, DWORD PTR _aLogItem$[ebp]
  0015e	e8 00 00 00 00	 call	 ??0_LogItemInfo@@QAE@XZ	; _LogItemInfo::_LogItemInfo

; 227  : 	aLogItem.SendName = pUser->GetName();

  00163	6a 00		 push	 0
  00165	8b ce		 mov	 ecx, esi
  00167	e8 00 00 00 00	 call	 ?GetName@CMover@@QAEPBDH@Z ; CMover::GetName

; 228  : 	aLogItem.RecvName = "PIERCING";
; 229  : 	aLogItem.WorldId = pUser->GetWorld()->GetID();
; 230  : 
; 231  : 	int nCost = 100000;
; 232  : 
; 233  : 	if( 0 < nCost )
; 234  : 	{
; 235  : 		if( pUser->GetGold() < nCost )

  0016c	81 be e0 14 00
	00 a0 86 01 00	 cmp	 DWORD PTR [esi+5344], 100000 ; 000186a0H
  00176	89 85 38 ff ff
	ff		 mov	 DWORD PTR _aLogItem$[ebp+4], eax
  0017c	8b 86 6c 01 00
	00		 mov	 eax, DWORD PTR [esi+364]
  00182	c7 85 3c ff ff
	ff 00 00 00 00	 mov	 DWORD PTR _aLogItem$[ebp+8], OFFSET ??_C@_08DGHAMMOF@PIERCING@
  0018c	8b 00		 mov	 eax, DWORD PTR [eax]
  0018e	89 85 40 ff ff
	ff		 mov	 DWORD PTR _aLogItem$[ebp+12], eax
  00194	7d 26		 jge	 SHORT $LN13@OnPiercing

; 236  : 		{
; 237  : 			pUser->AddDefinedText( TID_GAME_LACKMONEY , "" );

  00196	68 00 00 00 00	 push	 OFFSET ??_C@_00CNPNBAHC@@
  0019b	68 71 02 00 00	 push	 625			; 00000271H
  001a0	56		 push	 esi
  001a1	e8 00 00 00 00	 call	 ?AddDefinedText@CUser@@QAAXHPBDZZ ; CUser::AddDefinedText
  001a6	83 c4 0c	 add	 esp, 12			; 0000000cH
  001a9	5f		 pop	 edi

; 305  : 		}
; 306  : 	}
; 307  : }

  001aa	5e		 pop	 esi
  001ab	5b		 pop	 ebx
  001ac	8b 4d fc	 mov	 ecx, DWORD PTR __$ArrayPad$[ebp]
  001af	33 cd		 xor	 ecx, ebp
  001b1	e8 00 00 00 00	 call	 @__security_check_cookie@4
  001b6	8b e5		 mov	 esp, ebp
  001b8	5d		 pop	 ebp
  001b9	c2 10 00	 ret	 16			; 00000010H
$LN13@OnPiercing:

; 238  : 			return;
; 239  : 		}
; 240  : 
; 241  : 		pUser->AddGold( -( nCost ) );

  001bc	6a 01		 push	 1
  001be	68 60 79 fe ff	 push	 -100000			; fffe7960H
  001c3	8b ce		 mov	 ecx, esi
  001c5	e8 00 00 00 00	 call	 ?AddGold@CMover@@QAEHHH@Z ; CMover::AddGold

; 242  : 
; 243  : 		aLogItem.Gold = pUser->GetGold() + nCost;

  001ca	8b 8e e0 14 00
	00		 mov	 ecx, DWORD PTR [esi+5344]

; 244  : 		aLogItem.Gold2 = pUser->GetGold();
; 245  : 		aLogItem.Action = "!";
; 246  : 		//aLogItem.ItemName = "SEED";
; 247  : 		_stprintf( aLogItem.szItemName, "%d", II_GOLD_SEED1 );

  001d0	6a 0c		 push	 12			; 0000000cH
  001d2	68 00 00 00 00	 push	 OFFSET ??_C@_02DPKJAMEF@?$CFd@
  001d7	89 8d 48 ff ff
	ff		 mov	 DWORD PTR _aLogItem$[ebp+20], ecx
  001dd	8d 81 a0 86 01
	00		 lea	 eax, DWORD PTR [ecx+100000]
  001e3	c7 85 34 ff ff
	ff 00 00 00 00	 mov	 DWORD PTR _aLogItem$[ebp], OFFSET ??_C@_01DCLJPIOD@?$CB@
  001ed	89 85 44 ff ff
	ff		 mov	 DWORD PTR _aLogItem$[ebp+16], eax
  001f3	8d 85 58 ff ff
	ff		 lea	 eax, DWORD PTR _aLogItem$[ebp+36]
  001f9	50		 push	 eax
  001fa	e8 00 00 00 00	 call	 _sprintf
  001ff	83 c4 0c	 add	 esp, 12			; 0000000cH

; 248  : 		aLogItem.itemNumber = nCost;

  00202	c7 85 78 ff ff
	ff a0 86 01 00	 mov	 DWORD PTR _aLogItem$[ebp+68], 100000 ; 000186a0H

; 249  : 		g_DPSrvr.OnLogItem( aLogItem );

  0020c	8d 85 34 ff ff
	ff		 lea	 eax, DWORD PTR _aLogItem$[ebp]
  00212	b9 00 00 00 00	 mov	 ecx, OFFSET ?g_DPSrvr@@3VCDPSrvr@@A ; g_DPSrvr
  00217	6a 00		 push	 0
  00219	6a 00		 push	 0
  0021b	50		 push	 eax
  0021c	e8 00 00 00 00	 call	 ?OnLogItem@CDPSrvr@@QAEXAAU_LogItemInfo@@PAVCItemElem@@H@Z ; CDPSrvr::OnLogItem

; 250  : 	}
; 251  : 	else
; 252  : 	{
; 253  : 		return;
; 254  : 	}
; 255  : 	aLogItem.Gold = aLogItem.Gold2 = pUser->GetGold();

  00221	8b 86 e0 14 00
	00		 mov	 eax, DWORD PTR [esi+5344]

; 256  : 
; 257  : 	int nPersent = 0;
; 258  : 	if( pItemElem1->GetProp()->dwID == II_GEN_MAT_MOONSTONE
; 259  : 		|| pItemElem1->GetProp()->dwID == II_GEN_MAT_MOONSTONE_1 )

  00227	8b 8d 30 ff ff
	ff		 mov	 ecx, DWORD PTR _pItemElem1$1$[ebp]
  0022d	89 85 48 ff ff
	ff		 mov	 DWORD PTR _aLogItem$[ebp+20], eax
  00233	89 85 44 ff ff
	ff		 mov	 DWORD PTR _aLogItem$[ebp+16], eax
  00239	c7 85 2c ff ff
	ff 00 00 00 00	 mov	 DWORD PTR _nPersent$1$[ebp], 0
  00243	e8 00 00 00 00	 call	 ?GetPropA@CItemElem@@QAEPAUItemProp@@XZ ; CItemElem::GetPropA
  00248	81 38 f4 07 00
	00		 cmp	 DWORD PTR [eax], 2036	; 000007f4H
  0024e	74 13		 je	 SHORT $LN15@OnPiercing
  00250	8b 8d 30 ff ff
	ff		 mov	 ecx, DWORD PTR _pItemElem1$1$[ebp]
  00256	e8 00 00 00 00	 call	 ?GetPropA@CItemElem@@QAEPAUItemProp@@XZ ; CItemElem::GetPropA
  0025b	81 38 23 08 00
	00		 cmp	 DWORD PTR [eax], 2083	; 00000823H
  00261	75 12		 jne	 SHORT $LN14@OnPiercing
$LN15@OnPiercing:

; 260  : 		nPersent = GetSizeProb( pItemElem0 );

  00263	8b 8d 20 ff ff
	ff		 mov	 ecx, DWORD PTR _this$GSCopy$1$[ebp]
  00269	53		 push	 ebx
  0026a	e8 00 00 00 00	 call	 ?GetSizeProb@CItemUpgrade@@QAEHPAVCItemElem@@@Z ; CItemUpgrade::GetSizeProb
  0026f	89 85 2c ff ff
	ff		 mov	 DWORD PTR _nPersent$1$[ebp], eax
$LN14@OnPiercing:
; File C:\IAGOS\server\v18\Source\Source\_Common\xUtil.h

; 16   : 	g_next = g_next * 1103515245 + 12345;// + nRandomSeed[ i++ ];

  00275	69 0d 00 00 00
	00 6d 4e c6 41	 imul	 ecx, DWORD PTR ?g_next@@3KA, 1103515245 ; g_next

; 22   : 	return  xRand() % num;

  0027f	b8 59 17 b7 d1	 mov	 eax, -776530087		; d1b71759H

; 16   : 	g_next = g_next * 1103515245 + 12345;// + nRandomSeed[ i++ ];

  00284	81 c1 39 30 00
	00		 add	 ecx, 12345		; 00003039H

; 22   : 	return  xRand() % num;

  0028a	f7 e1		 mul	 ecx

; 16   : 	g_next = g_next * 1103515245 + 12345;// + nRandomSeed[ i++ ];

  0028c	89 0d 00 00 00
	00		 mov	 DWORD PTR ?g_next@@3KA, ecx ; g_next

; 22   : 	return  xRand() % num;

  00292	c1 ea 0d	 shr	 edx, 13			; 0000000dH
  00295	69 c2 10 27 00
	00		 imul	 eax, edx, 10000
  0029b	2b c8		 sub	 ecx, eax
; File C:\IAGOS\server\v18\Source\Source\WorldServer\ItemUpgrade.cpp

; 262  : 	if( nPersent < (int)( xRandom( 10000 ) ) )

  0029d	39 8d 2c ff ff
	ff		 cmp	 DWORD PTR _nPersent$1$[ebp], ecx
  002a3	0f 8d ed 00 00
	00		 jge	 $LN16@OnPiercing

; 263  : 	{	// ĮŪŲą
; 264  : 		if( pItemElem2 )								// ╗¾┐ļ╚Ł ŠŲ└╠┼█└╗ ╗ń┐ļŪŽ┐┤└ĖĖķ...

  002a9	85 ff		 test	 edi, edi

; 265  : 			aLogItem.RecvName = "PIERCING_PROTECTED";
; 266  : 		aLogItem.Action = "!";

  002ab	c7 85 34 ff ff
	ff 00 00 00 00	 mov	 DWORD PTR _aLogItem$[ebp], OFFSET ??_C@_01DCLJPIOD@?$CB@
  002b5	b8 00 00 00 00	 mov	 eax, OFFSET ??_C@_0BD@CHOHAILH@PIERCING_PROTECTED@

; 267  : 		g_DPSrvr.OnLogItem( aLogItem, pItemElem0, pItemElem0->m_nItemNum );

  002ba	b9 00 00 00 00	 mov	 ecx, OFFSET ?g_DPSrvr@@3VCDPSrvr@@A ; g_DPSrvr
  002bf	0f 44 85 3c ff
	ff ff		 cmove	 eax, DWORD PTR _aLogItem$[ebp+8]
  002c6	89 85 3c ff ff
	ff		 mov	 DWORD PTR _aLogItem$[ebp+8], eax
  002cc	0f bf 43 74	 movsx	 eax, WORD PTR [ebx+116]
  002d0	50		 push	 eax
  002d1	53		 push	 ebx
  002d2	8d 85 34 ff ff
	ff		 lea	 eax, DWORD PTR _aLogItem$[ebp]
  002d8	50		 push	 eax
  002d9	e8 00 00 00 00	 call	 ?OnLogItem@CDPSrvr@@QAEXAAU_LogItemInfo@@PAVCItemElem@@H@Z ; CDPSrvr::OnLogItem

; 268  : 		aLogItem.RecvName = "PIERCING";
; 269  : 
; 270  : 		pUser->AddPlaySound( SND_INF_UPGRADEFAIL );

  002de	6a 0d		 push	 13			; 0000000dH
  002e0	8b ce		 mov	 ecx, esi
  002e2	c7 85 3c ff ff
	ff 00 00 00 00	 mov	 DWORD PTR _aLogItem$[ebp+8], OFFSET ??_C@_08DGHAMMOF@PIERCING@
  002ec	e8 00 00 00 00	 call	 ?AddPlaySound@CUser@@QAEXK@Z ; CUser::AddPlaySound
; File C:\IAGOS\server\v18\Source\Source\_Common\Obj.h

; 215  : 	D3DXVECTOR3		GetPos()	{ return m_vPos; }

  002f1	f3 0f 7e 86 60
	01 00 00	 movq	 xmm0, QWORD PTR [esi+352]
; File C:\IAGOS\server\v18\Source\Source\WorldServer\ItemUpgrade.cpp

; 271  : 		g_UserMng.AddCreateSfxObj((CMover *)pUser, XI_INT_FAIL, pUser->GetPos().x, pUser->GetPos().y, pUser->GetPos().z);

  002f9	b9 00 00 00 00	 mov	 ecx, OFFSET ?g_UserMng@@3VCUserMng@@A ; g_UserMng
; File C:\IAGOS\server\v18\Source\Source\_Common\Obj.h

; 215  : 	D3DXVECTOR3		GetPos()	{ return m_vPos; }

  002fe	8b 86 68 01 00
	00		 mov	 eax, DWORD PTR [esi+360]
  00304	66 0f d6 85 10
	ff ff ff	 movq	 QWORD PTR $T5[ebp], xmm0
  0030c	f3 0f 7e c0	 movq	 xmm0, xmm0
  00310	66 0f d6 85 04
	ff ff ff	 movq	 QWORD PTR $T3[ebp], xmm0
  00318	f3 0f 7e 86 60
	01 00 00	 movq	 xmm0, QWORD PTR [esi+352]
; File C:\IAGOS\server\v18\Source\Source\WorldServer\ItemUpgrade.cpp

; 271  : 		g_UserMng.AddCreateSfxObj((CMover *)pUser, XI_INT_FAIL, pUser->GetPos().x, pUser->GetPos().y, pUser->GetPos().z);

  00320	6a 00		 push	 0
  00322	83 ec 0c	 sub	 esp, 12			; 0000000cH
; File C:\IAGOS\server\v18\Source\Source\_Common\Obj.h

; 215  : 	D3DXVECTOR3		GetPos()	{ return m_vPos; }

  00325	66 0f d6 85 f8
	fe ff ff	 movq	 QWORD PTR $T1[ebp], xmm0
  0032d	89 85 18 ff ff
	ff		 mov	 DWORD PTR $T5[ebp+8], eax
; File C:\IAGOS\server\v18\Source\Source\WorldServer\ItemUpgrade.cpp

; 271  : 		g_UserMng.AddCreateSfxObj((CMover *)pUser, XI_INT_FAIL, pUser->GetPos().x, pUser->GetPos().y, pUser->GetPos().z);

  00333	f3 0f 10 85 18
	ff ff ff	 movss	 xmm0, DWORD PTR $T5[ebp+8]
  0033b	f3 0f 11 44 24
	08		 movss	 DWORD PTR [esp+8], xmm0
  00341	f3 0f 10 85 08
	ff ff ff	 movss	 xmm0, DWORD PTR $T3[ebp+4]
  00349	f3 0f 11 44 24
	04		 movss	 DWORD PTR [esp+4], xmm0
  0034f	f3 0f 10 85 f8
	fe ff ff	 movss	 xmm0, DWORD PTR $T1[ebp]
  00357	f3 0f 11 04 24	 movss	 DWORD PTR [esp], xmm0
  0035c	68 b3 06 00 00	 push	 1715			; 000006b3H
  00361	56		 push	 esi
  00362	e8 00 00 00 00	 call	 ?AddCreateSfxObj@CUserMng@@QAEXPAVCCtrl@@KMMMH@Z ; CUserMng::AddCreateSfxObj

; 272  : 		pUser->AddDefinedText( TID_MMI_PIERCINGFAIL , "" );

  00367	68 00 00 00 00	 push	 OFFSET ??_C@_00CNPNBAHC@@
  0036c	68 5b 0a 00 00	 push	 2651			; 00000a5bH
  00371	56		 push	 esi
  00372	e8 00 00 00 00	 call	 ?AddDefinedText@CUser@@QAAXHPBDZZ ; CUser::AddDefinedText
  00377	83 c4 0c	 add	 esp, 12			; 0000000cH

; 273  : 		
; 274  : 		if( pItemElem2 == NULL )								// ╗¾┐ļ╚Ł ŠŲ└╠┼█└╗ ╗ń┐ļŪŽ┴÷ Š╩Šę┤┘Ėķ 

  0037a	85 ff		 test	 edi, edi
  0037c	0f 85 e1 00 00
	00		 jne	 $LN17@OnPiercing

; 275  : 			pUser->RemoveItem( (BYTE)( dwId1 ), (short)1 );	// ŪŪŠŅĮ╠ ┤ļ╗¾ ŠŲ└╠┼█└║ ╗Ķ┴”Ą╚┤┘.			

  00382	6a 01		 push	 1
  00384	ff b5 1c ff ff
	ff		 push	 DWORD PTR _dwId1$GSCopy$1$[ebp]
  0038a	8b ce		 mov	 ecx, esi
  0038c	e8 00 00 00 00	 call	 ?RemoveItem@CMover@@QAEXEF@Z ; CMover::RemoveItem

; 276  : 	}

  00391	e9 cd 00 00 00	 jmp	 $LN17@OnPiercing
$LN16@OnPiercing:

; 277  : 	else
; 278  : 	{	// ╝║░°			
; 279  : 		pUser->AddPlaySound( SND_INF_UPGRADESUCCESS );			

  00396	6a 0e		 push	 14			; 0000000eH
  00398	8b ce		 mov	 ecx, esi
  0039a	e8 00 00 00 00	 call	 ?AddPlaySound@CUser@@QAEXK@Z ; CUser::AddPlaySound
; File C:\IAGOS\server\v18\Source\Source\_Common\Obj.h

; 215  : 	D3DXVECTOR3		GetPos()	{ return m_vPos; }

  0039f	f3 0f 7e 86 60
	01 00 00	 movq	 xmm0, QWORD PTR [esi+352]
; File C:\IAGOS\server\v18\Source\Source\WorldServer\ItemUpgrade.cpp

; 280  : 		g_UserMng.AddCreateSfxObj((CMover *)pUser, XI_INT_SUCCESS, pUser->GetPos().x, pUser->GetPos().y, pUser->GetPos().z);			

  003a7	b9 00 00 00 00	 mov	 ecx, OFFSET ?g_UserMng@@3VCUserMng@@A ; g_UserMng
; File C:\IAGOS\server\v18\Source\Source\_Common\Obj.h

; 215  : 	D3DXVECTOR3		GetPos()	{ return m_vPos; }

  003ac	8b 86 68 01 00
	00		 mov	 eax, DWORD PTR [esi+360]
  003b2	66 0f d6 85 f8
	fe ff ff	 movq	 QWORD PTR $T2[ebp], xmm0
  003ba	f3 0f 7e c0	 movq	 xmm0, xmm0
  003be	66 0f d6 85 04
	ff ff ff	 movq	 QWORD PTR $T4[ebp], xmm0
  003c6	f3 0f 7e 86 60
	01 00 00	 movq	 xmm0, QWORD PTR [esi+352]
; File C:\IAGOS\server\v18\Source\Source\WorldServer\ItemUpgrade.cpp

; 280  : 		g_UserMng.AddCreateSfxObj((CMover *)pUser, XI_INT_SUCCESS, pUser->GetPos().x, pUser->GetPos().y, pUser->GetPos().z);			

  003ce	6a 00		 push	 0
  003d0	83 ec 0c	 sub	 esp, 12			; 0000000cH
; File C:\IAGOS\server\v18\Source\Source\_Common\Obj.h

; 215  : 	D3DXVECTOR3		GetPos()	{ return m_vPos; }

  003d3	66 0f d6 85 10
	ff ff ff	 movq	 QWORD PTR $T6[ebp], xmm0
  003db	89 85 00 ff ff
	ff		 mov	 DWORD PTR $T2[ebp+8], eax
; File C:\IAGOS\server\v18\Source\Source\WorldServer\ItemUpgrade.cpp

; 280  : 		g_UserMng.AddCreateSfxObj((CMover *)pUser, XI_INT_SUCCESS, pUser->GetPos().x, pUser->GetPos().y, pUser->GetPos().z);			

  003e1	f3 0f 10 85 00
	ff ff ff	 movss	 xmm0, DWORD PTR $T2[ebp+8]
  003e9	f3 0f 11 44 24
	08		 movss	 DWORD PTR [esp+8], xmm0
  003ef	f3 0f 10 85 08
	ff ff ff	 movss	 xmm0, DWORD PTR $T4[ebp+4]
  003f7	f3 0f 11 44 24
	04		 movss	 DWORD PTR [esp+4], xmm0
  003fd	f3 0f 10 85 10
	ff ff ff	 movss	 xmm0, DWORD PTR $T6[ebp]
  00405	f3 0f 11 04 24	 movss	 DWORD PTR [esp], xmm0
  0040a	68 b2 06 00 00	 push	 1714			; 000006b2H
  0040f	56		 push	 esi
  00410	e8 00 00 00 00	 call	 ?AddCreateSfxObj@CUserMng@@QAEXPAVCCtrl@@KMMMH@Z ; CUserMng::AddCreateSfxObj
; File C:\IAGOS\server\v18\Source\Source\_Common\Item.h

; 103  : 	int		GetPiercingSize()	{	return m_piercing.GetPiercingSize();		}

  00415	8d 4b 3c	 lea	 ecx, DWORD PTR [ebx+60]
  00418	e8 00 00 00 00	 call	 ?GetPiercingSize@CPiercing@@QAEHXZ ; CPiercing::GetPiercingSize
; File C:\IAGOS\server\v18\Source\Source\WorldServer\ItemUpgrade.cpp

; 281  : 		pUser->UpdateItem( (BYTE)pItemElem0->m_dwObjId, UI_PIERCING_SIZE, pItemElem0->GetPiercingSize() + 1 );

  0041d	6a 00		 push	 0
  0041f	40		 inc	 eax
  00420	8b ce		 mov	 ecx, esi
  00422	50		 push	 eax
  00423	0f b6 43 04	 movzx	 eax, BYTE PTR [ebx+4]
  00427	6a 06		 push	 6
  00429	50		 push	 eax
  0042a	e8 00 00 00 00	 call	 ?UpdateItem@CMover@@QAEXEDKK@Z ; CMover::UpdateItem

; 282  : 		pUser->AddDefinedText( TID_MMI_PIERCINGSUCCESS , "" );

  0042f	68 00 00 00 00	 push	 OFFSET ??_C@_00CNPNBAHC@@
  00434	68 5a 0a 00 00	 push	 2650			; 00000a5aH
  00439	56		 push	 esi
  0043a	e8 00 00 00 00	 call	 ?AddDefinedText@CUser@@QAAXHPBDZZ ; CUser::AddDefinedText
  0043f	83 c4 0c	 add	 esp, 12			; 0000000cH

; 283  : 
; 284  : 		aLogItem.Action = "#";

  00442	c7 85 34 ff ff
	ff 00 00 00 00	 mov	 DWORD PTR _aLogItem$[ebp], OFFSET ??_C@_01IPJKGB@?$CD@

; 285  : 		g_DPSrvr.OnLogItem( aLogItem, pItemElem0, pItemElem0->m_nItemNum );

  0044c	0f bf 43 74	 movsx	 eax, WORD PTR [ebx+116]
  00450	b9 00 00 00 00	 mov	 ecx, OFFSET ?g_DPSrvr@@3VCDPSrvr@@A ; g_DPSrvr
  00455	50		 push	 eax
  00456	53		 push	 ebx
  00457	8d 85 34 ff ff
	ff		 lea	 eax, DWORD PTR _aLogItem$[ebp]
  0045d	50		 push	 eax
  0045e	e8 00 00 00 00	 call	 ?OnLogItem@CDPSrvr@@QAEXAAU_LogItemInfo@@PAVCItemElem@@H@Z ; CDPSrvr::OnLogItem
$LN17@OnPiercing:

; 286  : 	}
; 287  : 	aLogItem.Action = "!";
; 288  : 	g_DPSrvr.OnLogItem( aLogItem, pItemElem1, pItemElem1->m_nItemNum );

  00463	8b 8d 30 ff ff
	ff		 mov	 ecx, DWORD PTR _pItemElem1$1$[ebp]
  00469	c7 85 34 ff ff
	ff 00 00 00 00	 mov	 DWORD PTR _aLogItem$[ebp], OFFSET ??_C@_01DCLJPIOD@?$CB@
  00473	0f bf 41 74	 movsx	 eax, WORD PTR [ecx+116]
  00477	50		 push	 eax
  00478	51		 push	 ecx
  00479	8d 85 34 ff ff
	ff		 lea	 eax, DWORD PTR _aLogItem$[ebp]
  0047f	b9 00 00 00 00	 mov	 ecx, OFFSET ?g_DPSrvr@@3VCDPSrvr@@A ; g_DPSrvr
  00484	50		 push	 eax
  00485	e8 00 00 00 00	 call	 ?OnLogItem@CDPSrvr@@QAEXAAU_LogItemInfo@@PAVCItemElem@@H@Z ; CDPSrvr::OnLogItem

; 289  : 
; 290  : 	// ┤┘└╠Į║┐═ └»ĘßŠŲ└╠┼█ ╗Ķ┴”Ūč┤┘.
; 291  : 	pUser->RemoveItem( (BYTE)( dwId2 ), (short)1 );

  0048a	6a 01		 push	 1
  0048c	ff b5 28 ff ff
	ff		 push	 DWORD PTR _dwId2$GSCopy$1$[ebp]
  00492	8b ce		 mov	 ecx, esi
  00494	e8 00 00 00 00	 call	 ?RemoveItem@CMover@@QAEXEF@Z ; CMover::RemoveItem

; 292  : 
; 293  : 	if( dwId3 != NULL_ID )

  00499	8b 9d 24 ff ff
	ff		 mov	 ebx, DWORD PTR _dwId3$GSCopy$1$[ebp]
  0049f	83 fb ff	 cmp	 ebx, -1
  004a2	0f 84 98 00 00
	00		 je	 $LN11@OnPiercing

; 294  : 	{
; 295  : 		aLogItem.Action = "!";
; 296  : 		if( IsUsableItem( pItemElem2 ) )

  004a8	57		 push	 edi
  004a9	c7 85 34 ff ff
	ff 00 00 00 00	 mov	 DWORD PTR _aLogItem$[ebp], OFFSET ??_C@_01DCLJPIOD@?$CB@
  004b3	e8 00 00 00 00	 call	 ?IsUsableItem@@YAHPAVCItemBase@@@Z ; IsUsableItem
  004b8	83 c4 04	 add	 esp, 4
  004bb	b9 00 00 00 00	 mov	 ecx, OFFSET ?g_DPSrvr@@3VCDPSrvr@@A ; g_DPSrvr
  004c0	85 c0		 test	 eax, eax
  004c2	74 4d		 je	 SHORT $LN21@OnPiercing

; 297  : 		{
; 298  : 			g_DPSrvr.OnLogItem( aLogItem, pItemElem2, pItemElem2->m_nItemNum );

  004c4	0f bf 47 74	 movsx	 eax, WORD PTR [edi+116]
  004c8	50		 push	 eax
  004c9	57		 push	 edi
  004ca	8d 85 34 ff ff
	ff		 lea	 eax, DWORD PTR _aLogItem$[ebp]
  004d0	50		 push	 eax
  004d1	e8 00 00 00 00	 call	 ?OnLogItem@CDPSrvr@@QAEXAAU_LogItemInfo@@PAVCItemElem@@H@Z ; CDPSrvr::OnLogItem

; 299  : 			g_dpDBClient.SendLogSMItemUse( "2", pUser, pItemElem2, pItemElem2->GetProp() );

  004d6	68 00 00 00 00	 push	 OFFSET ??_C@_00CNPNBAHC@@
  004db	8b cf		 mov	 ecx, edi
  004dd	e8 00 00 00 00	 call	 ?GetPropA@CItemElem@@QAEPAUItemProp@@XZ ; CItemElem::GetPropA
  004e2	50		 push	 eax
  004e3	57		 push	 edi
  004e4	56		 push	 esi
  004e5	68 00 00 00 00	 push	 OFFSET ??_C@_01FDFGLJHB@2@
  004ea	b9 00 00 00 00	 mov	 ecx, OFFSET ?g_dpDBClient@@3VCDPDatabaseClient@@A ; g_dpDBClient
  004ef	e8 00 00 00 00	 call	 ?SendLogSMItemUse@CDPDatabaseClient@@QAEXPBDPAVCUser@@PAVCItemElem@@PAUItemProp@@0@Z ; CDPDatabaseClient::SendLogSMItemUse

; 300  : 			pUser->RemoveItem( (BYTE)( dwId3 ), (short)1 );

  004f4	6a 01		 push	 1
  004f6	53		 push	 ebx
  004f7	8b ce		 mov	 ecx, esi
  004f9	e8 00 00 00 00	 call	 ?RemoveItem@CMover@@QAEXEF@Z ; CMover::RemoveItem
  004fe	5f		 pop	 edi

; 305  : 		}
; 306  : 	}
; 307  : }

  004ff	5e		 pop	 esi
  00500	5b		 pop	 ebx
  00501	8b 4d fc	 mov	 ecx, DWORD PTR __$ArrayPad$[ebp]
  00504	33 cd		 xor	 ecx, ebp
  00506	e8 00 00 00 00	 call	 @__security_check_cookie@4
  0050b	8b e5		 mov	 esp, ebp
  0050d	5d		 pop	 ebp
  0050e	c2 10 00	 ret	 16			; 00000010H
$LN21@OnPiercing:

; 301  : 		}
; 302  : 		else
; 303  : 		{
; 304  : 			g_DPSrvr.OnLogItem( aLogItem, NULL, 0 );

  00511	6a 00		 push	 0
  00513	6a 00		 push	 0
  00515	8d 85 34 ff ff
	ff		 lea	 eax, DWORD PTR _aLogItem$[ebp]
  0051b	50		 push	 eax
  0051c	e8 00 00 00 00	 call	 ?OnLogItem@CDPSrvr@@QAEXAAU_LogItemInfo@@PAVCItemElem@@H@Z ; CDPSrvr::OnLogItem
  00521	5f		 pop	 edi

; 305  : 		}
; 306  : 	}
; 307  : }

  00522	5e		 pop	 esi
  00523	5b		 pop	 ebx
  00524	8b 4d fc	 mov	 ecx, DWORD PTR __$ArrayPad$[ebp]
  00527	33 cd		 xor	 ecx, ebp
  00529	e8 00 00 00 00	 call	 @__security_check_cookie@4
  0052e	8b e5		 mov	 esp, ebp
  00530	5d		 pop	 ebp
  00531	c2 10 00	 ret	 16			; 00000010H
$LN46@OnPiercing:

; 207  : 	{
; 208  : 		pUser->AddDefinedText( TID_PIERCING_POSSIBLE_ITEM );

  00534	68 4a 0a 00 00	 push	 2634			; 00000a4aH
$LN63@OnPiercing:

; 305  : 		}
; 306  : 	}
; 307  : }

  00539	8b ce		 mov	 ecx, esi
  0053b	e8 00 00 00 00	 call	 ?AddDefinedText@CUser@@QAEXH@Z ; CUser::AddDefinedText
$LN11@OnPiercing:
  00540	8b 4d fc	 mov	 ecx, DWORD PTR __$ArrayPad$[ebp]
  00543	5f		 pop	 edi
  00544	5e		 pop	 esi
  00545	33 cd		 xor	 ecx, ebp
  00547	5b		 pop	 ebx
  00548	e8 00 00 00 00	 call	 @__security_check_cookie@4
  0054d	8b e5		 mov	 esp, ebp
  0054f	5d		 pop	 ebp
  00550	c2 10 00	 ret	 16			; 00000010H
?OnPiercingSize@CItemUpgrade@@QAEXPAVCUser@@KKK@Z ENDP	; CItemUpgrade::OnPiercingSize
_TEXT	ENDS
; Function compile flags: /Ogtp
; File C:\IAGOS\server\v18\Source\Source\WorldServer\ItemUpgrade.cpp
; File C:\IAGOS\server\v18\Source\Source\_Common\LuaBase.h
; File C:\IAGOS\server\v18\Source\Source\WorldServer\ItemUpgrade.cpp
; File C:\IAGOS\server\v18\Source\Source\_Common\LuaBase.h
; File C:\Program Files\Microsoft Visual Studio\2022\Professional\VC\Tools\MSVC\14.44.35207\include\utility
; File C:\IAGOS\server\v18\Source\Source\_Common\LuaBase.h
; File C:\Program Files\Microsoft Visual Studio\2022\Professional\VC\Tools\MSVC\14.44.35207\include\xtree
; File C:\IAGOS\server\v18\Source\Source\_Common\LuaBase.h
; File C:\IAGOS\server\v18\Source\Source\WorldServer\ItemUpgrade.cpp
; File C:\Program Files\Microsoft Visual Studio\2022\Professional\VC\Tools\MSVC\14.44.35207\include\utility
; File C:\Program Files\Microsoft Visual Studio\2022\Professional\VC\Tools\MSVC\14.44.35207\include\xtree
; File C:\Program Files\Microsoft Visual Studio\2022\Professional\VC\Tools\MSVC\14.44.35207\include\utility
; File C:\Program Files\Microsoft Visual Studio\2022\Professional\VC\Tools\MSVC\14.44.35207\include\xtree
; File C:\Program Files\Microsoft Visual Studio\2022\Professional\VC\Tools\MSVC\14.44.35207\include\type_traits
; File C:\Program Files\Microsoft Visual Studio\2022\Professional\VC\Tools\MSVC\14.44.35207\include\xtree
; File C:\Program Files\Microsoft Visual Studio\2022\Professional\VC\Tools\MSVC\14.44.35207\include\xmemory
; File C:\Program Files\Microsoft Visual Studio\2022\Professional\VC\Tools\MSVC\14.44.35207\include\xtree
; File C:\Program Files\Microsoft Visual Studio\2022\Professional\VC\Tools\MSVC\14.44.35207\include\xmemory
; File C:\Program Files\Microsoft Visual Studio\2022\Professional\VC\Tools\MSVC\14.44.35207\include\utility
; File C:\Program Files\Microsoft Visual Studio\2022\Professional\VC\Tools\MSVC\14.44.35207\include\xmemory
; File C:\Program Files\Microsoft Visual Studio\2022\Professional\VC\Tools\MSVC\14.44.35207\include\xtree
; File C:\Program Files\Microsoft Visual Studio\2022\Professional\VC\Tools\MSVC\14.44.35207\include\utility
; File C:\Program Files\Microsoft Visual Studio\2022\Professional\VC\Tools\MSVC\14.44.35207\include\xtree
; File C:\Program Files\Microsoft Visual Studio\2022\Professional\VC\Tools\MSVC\14.44.35207\include\utility
; File C:\Program Files\Microsoft Visual Studio\2022\Professional\VC\Tools\MSVC\14.44.35207\include\xtree
; File C:\Program Files\Microsoft Visual Studio\2022\Professional\VC\Tools\MSVC\14.44.35207\include\utility
; File C:\Program Files\Microsoft Visual Studio\2022\Professional\VC\Tools\MSVC\14.44.35207\include\xtree
; File C:\IAGOS\server\v18\Source\Source\WorldServer\ItemUpgrade.cpp
; File C:\IAGOS\server\v18\Source\Source\_Common\LuaBase.h
; File C:\IAGOS\server\v18\Source\Source\WorldServer\ItemUpgrade.cpp
; File C:\IAGOS\server\v18\Source\Source\_Common\LuaBase.h
; File C:\IAGOS\server\v18\Source\Source\WorldServer\ItemUpgrade.cpp
; File C:\IAGOS\server\v18\Source\Source\_Common\LuaBase.h
; File C:\Program Files\Microsoft Visual Studio\2022\Professional\VC\Tools\MSVC\14.44.35207\include\utility
; File C:\IAGOS\server\v18\Source\Source\_Common\LuaBase.h
; File C:\Program Files\Microsoft Visual Studio\2022\Professional\VC\Tools\MSVC\14.44.35207\include\xtree
; File C:\IAGOS\server\v18\Source\Source\_Common\LuaBase.h
; File C:\IAGOS\server\v18\Source\Source\WorldServer\ItemUpgrade.cpp
; File C:\Program Files\Microsoft Visual Studio\2022\Professional\VC\Tools\MSVC\14.44.35207\include\utility
; File C:\Program Files\Microsoft Visual Studio\2022\Professional\VC\Tools\MSVC\14.44.35207\include\xtree
; File C:\Program Files\Microsoft Visual Studio\2022\Professional\VC\Tools\MSVC\14.44.35207\include\utility
; File C:\Program Files\Microsoft Visual Studio\2022\Professional\VC\Tools\MSVC\14.44.35207\include\xtree
; File C:\Program Files\Microsoft Visual Studio\2022\Professional\VC\Tools\MSVC\14.44.35207\include\type_traits
; File C:\Program Files\Microsoft Visual Studio\2022\Professional\VC\Tools\MSVC\14.44.35207\include\xtree
; File C:\Program Files\Microsoft Visual Studio\2022\Professional\VC\Tools\MSVC\14.44.35207\include\xmemory
; File C:\Program Files\Microsoft Visual Studio\2022\Professional\VC\Tools\MSVC\14.44.35207\include\xtree
; File C:\Program Files\Microsoft Visual Studio\2022\Professional\VC\Tools\MSVC\14.44.35207\include\xmemory
; File C:\Program Files\Microsoft Visual Studio\2022\Professional\VC\Tools\MSVC\14.44.35207\include\utility
; File C:\Program Files\Microsoft Visual Studio\2022\Professional\VC\Tools\MSVC\14.44.35207\include\xmemory
; File C:\Program Files\Microsoft Visual Studio\2022\Professional\VC\Tools\MSVC\14.44.35207\include\xtree
; File C:\Program Files\Microsoft Visual Studio\2022\Professional\VC\Tools\MSVC\14.44.35207\include\utility
; File C:\Program Files\Microsoft Visual Studio\2022\Professional\VC\Tools\MSVC\14.44.35207\include\xtree
; File C:\Program Files\Microsoft Visual Studio\2022\Professional\VC\Tools\MSVC\14.44.35207\include\utility
; File C:\Program Files\Microsoft Visual Studio\2022\Professional\VC\Tools\MSVC\14.44.35207\include\xtree
; File C:\Program Files\Microsoft Visual Studio\2022\Professional\VC\Tools\MSVC\14.44.35207\include\utility
; File C:\Program Files\Microsoft Visual Studio\2022\Professional\VC\Tools\MSVC\14.44.35207\include\xtree
; File C:\IAGOS\server\v18\Source\Source\WorldServer\ItemUpgrade.cpp
; File C:\IAGOS\server\v18\Source\Source\_Common\LuaBase.h
; File C:\IAGOS\server\v18\Source\Source\WorldServer\ItemUpgrade.cpp
; File C:\IAGOS\server\v18\Source\Source\_Common\LuaBase.h
; File C:\IAGOS\server\v18\Source\Source\WorldServer\ItemUpgrade.cpp
; File C:\IAGOS\server\v18\Source\Source\_Common\LuaBase.h
; File C:\Program Files\Microsoft Visual Studio\2022\Professional\VC\Tools\MSVC\14.44.35207\include\utility
; File C:\IAGOS\server\v18\Source\Source\_Common\LuaBase.h
; File C:\Program Files\Microsoft Visual Studio\2022\Professional\VC\Tools\MSVC\14.44.35207\include\xtree
; File C:\IAGOS\server\v18\Source\Source\_Common\LuaBase.h
; File C:\IAGOS\server\v18\Source\Source\WorldServer\ItemUpgrade.cpp
; File C:\Program Files\Microsoft Visual Studio\2022\Professional\VC\Tools\MSVC\14.44.35207\include\utility
; File C:\Program Files\Microsoft Visual Studio\2022\Professional\VC\Tools\MSVC\14.44.35207\include\xtree
; File C:\Program Files\Microsoft Visual Studio\2022\Professional\VC\Tools\MSVC\14.44.35207\include\utility
; File C:\Program Files\Microsoft Visual Studio\2022\Professional\VC\Tools\MSVC\14.44.35207\include\xtree
; File C:\Program Files\Microsoft Visual Studio\2022\Professional\VC\Tools\MSVC\14.44.35207\include\type_traits
; File C:\Program Files\Microsoft Visual Studio\2022\Professional\VC\Tools\MSVC\14.44.35207\include\xtree
; File C:\Program Files\Microsoft Visual Studio\2022\Professional\VC\Tools\MSVC\14.44.35207\include\xmemory
; File C:\Program Files\Microsoft Visual Studio\2022\Professional\VC\Tools\MSVC\14.44.35207\include\xtree
; File C:\Program Files\Microsoft Visual Studio\2022\Professional\VC\Tools\MSVC\14.44.35207\include\xmemory
; File C:\Program Files\Microsoft Visual Studio\2022\Professional\VC\Tools\MSVC\14.44.35207\include\utility
; File C:\Program Files\Microsoft Visual Studio\2022\Professional\VC\Tools\MSVC\14.44.35207\include\xmemory
; File C:\Program Files\Microsoft Visual Studio\2022\Professional\VC\Tools\MSVC\14.44.35207\include\xtree
; File C:\Program Files\Microsoft Visual Studio\2022\Professional\VC\Tools\MSVC\14.44.35207\include\utility
; File C:\Program Files\Microsoft Visual Studio\2022\Professional\VC\Tools\MSVC\14.44.35207\include\xtree
; File C:\Program Files\Microsoft Visual Studio\2022\Professional\VC\Tools\MSVC\14.44.35207\include\utility
; File C:\Program Files\Microsoft Visual Studio\2022\Professional\VC\Tools\MSVC\14.44.35207\include\xtree
; File C:\Program Files\Microsoft Visual Studio\2022\Professional\VC\Tools\MSVC\14.44.35207\include\utility
; File C:\Program Files\Microsoft Visual Studio\2022\Professional\VC\Tools\MSVC\14.44.35207\include\xtree
; File C:\IAGOS\server\v18\Source\Source\WorldServer\ItemUpgrade.cpp
; File C:\IAGOS\server\v18\Source\Source\_Common\LuaBase.h
; File C:\IAGOS\server\v18\Source\Source\WorldServer\ItemUpgrade.cpp
; File C:\IAGOS\server\v18\Source\Source\_Common\LuaBase.h
; File C:\IAGOS\server\v18\Source\Source\WorldServer\ItemUpgrade.cpp
; File C:\IAGOS\server\v18\Source\Source\_Common\LuaBase.h
; File C:\IAGOS\server\v18\Source\Source\WorldServer\ItemUpgrade.cpp
; File C:\IAGOS\server\v18\Source\Source\_Common\LuaBase.h
; File C:\Program Files\Microsoft Visual Studio\2022\Professional\VC\Tools\MSVC\14.44.35207\include\utility
; File C:\Program Files\Microsoft Visual Studio\2022\Professional\VC\Tools\MSVC\14.44.35207\include\xtree
; File C:\Program Files\Microsoft Visual Studio\2022\Professional\VC\Tools\MSVC\14.44.35207\include\utility
; File C:\Program Files\Microsoft Visual Studio\2022\Professional\VC\Tools\MSVC\14.44.35207\include\xtree
; File C:\IAGOS\server\v18\Source\Source\_Common\LuaBase.h
; File C:\IAGOS\server\v18\Source\Source\WorldServer\ItemUpgrade.cpp
; File C:\Program Files\Microsoft Visual Studio\2022\Professional\VC\Tools\MSVC\14.44.35207\include\utility
; File C:\Program Files\Microsoft Visual Studio\2022\Professional\VC\Tools\MSVC\14.44.35207\include\xtree
; File C:\Program Files\Microsoft Visual Studio\2022\Professional\VC\Tools\MSVC\14.44.35207\include\type_traits
; File C:\Program Files\Microsoft Visual Studio\2022\Professional\VC\Tools\MSVC\14.44.35207\include\xtree
; File C:\Program Files\Microsoft Visual Studio\2022\Professional\VC\Tools\MSVC\14.44.35207\include\xmemory
; File C:\Program Files\Microsoft Visual Studio\2022\Professional\VC\Tools\MSVC\14.44.35207\include\xtree
; File C:\Program Files\Microsoft Visual Studio\2022\Professional\VC\Tools\MSVC\14.44.35207\include\xmemory
; File C:\Program Files\Microsoft Visual Studio\2022\Professional\VC\Tools\MSVC\14.44.35207\include\utility
; File C:\Program Files\Microsoft Visual Studio\2022\Professional\VC\Tools\MSVC\14.44.35207\include\xmemory
; File C:\Program Files\Microsoft Visual Studio\2022\Professional\VC\Tools\MSVC\14.44.35207\include\xtree
; File C:\Program Files\Microsoft Visual Studio\2022\Professional\VC\Tools\MSVC\14.44.35207\include\utility
; File C:\Program Files\Microsoft Visual Studio\2022\Professional\VC\Tools\MSVC\14.44.35207\include\xtree
; File C:\Program Files\Microsoft Visual Studio\2022\Professional\VC\Tools\MSVC\14.44.35207\include\utility
; File C:\Program Files\Microsoft Visual Studio\2022\Professional\VC\Tools\MSVC\14.44.35207\include\xtree
; File C:\Program Files\Microsoft Visual Studio\2022\Professional\VC\Tools\MSVC\14.44.35207\include\utility
; File C:\Program Files\Microsoft Visual Studio\2022\Professional\VC\Tools\MSVC\14.44.35207\include\xtree
; File C:\IAGOS\server\v18\Source\Source\WorldServer\ItemUpgrade.cpp
; File C:\IAGOS\server\v18\Source\Source\_Common\LuaBase.h
; File C:\IAGOS\server\v18\Source\Source\WorldServer\ItemUpgrade.cpp
; File C:\Program Files\Microsoft Visual Studio\2022\Professional\VC\Tools\MSVC\14.44.35207\include\xtree
; File C:\IAGOS\server\v18\Source\Source\WorldServer\ItemUpgrade.cpp
;	COMDAT ?LoadScript@CItemUpgrade@@QAEXXZ
_TEXT	SEGMENT
$T2 = -112						; size = 20
$T3 = -92						; size = 12
$T4 = -80						; size = 12
$T5 = -80						; size = 12
$T6 = -80						; size = 12
__Loc$7 = -80						; size = 12
__Loc$8 = -68						; size = 12
__Loc$9 = -68						; size = 12
__Loc$10 = -68						; size = 12
tv2254 = -64						; size = 8
$T11 = -56						; size = 8
$T12 = -56						; size = 8
$T13 = -56						; size = 8
$T14 = -56						; size = 8
tv2246 = -48						; size = 8
tv2250 = -48						; size = 8
tv2281 = -48						; size = 8
tv2309 = -48						; size = 8
tv2344 = -48						; size = 8
tv2258 = -40						; size = 8
tv2287 = -40						; size = 8
tv2315 = -40						; size = 8
tv2338 = -40						; size = 8
$T15 = -32						; size = 8
$T16 = -32						; size = 8
$T17 = -32						; size = 8
tv2242 = -32						; size = 8
_lua$ = -24						; size = 8
_this$1$ = -16						; size = 4
__$EHRec$ = -12						; size = 12
?LoadScript@CItemUpgrade@@QAEXXZ PROC			; CItemUpgrade::LoadScript, COMDAT
; _this$ = ecx

; 57   : {

  00000	55		 push	 ebp
  00001	8b ec		 mov	 ebp, esp
  00003	6a ff		 push	 -1
  00005	68 00 00 00 00	 push	 __ehhandler$?LoadScript@CItemUpgrade@@QAEXXZ
  0000a	64 a1 00 00 00
	00		 mov	 eax, DWORD PTR fs:0
  00010	50		 push	 eax
  00011	83 ec 64	 sub	 esp, 100		; 00000064H
  00014	56		 push	 esi
  00015	57		 push	 edi
  00016	a1 00 00 00 00	 mov	 eax, DWORD PTR ___security_cookie
  0001b	33 c5		 xor	 eax, ebp
  0001d	50		 push	 eax
  0001e	8d 45 f4	 lea	 eax, DWORD PTR __$EHRec$[ebp]
  00021	64 a3 00 00 00
	00		 mov	 DWORD PTR fs:0, eax
  00027	8b f1		 mov	 esi, ecx
  00029	89 75 f0	 mov	 DWORD PTR _this$1$[ebp], esi

; 58   : 	CLuaBase	lua;

  0002c	8d 4d e8	 lea	 ecx, DWORD PTR _lua$[ebp]
  0002f	e8 00 00 00 00	 call	 ??0CLuaBase@@QAE@XZ	; CLuaBase::CLuaBase

; 59   : 	if( lua.RunScript( "ItemUpgrade.lua" ) != 0 )

  00034	68 00 00 00 00	 push	 OFFSET ??_C@_0BA@IAAIFMCJ@ItemUpgrade?4lua@
  00039	8d 4d e8	 lea	 ecx, DWORD PTR _lua$[ebp]
  0003c	c7 45 fc 00 00
	00 00		 mov	 DWORD PTR __$EHRec$[ebp+8], 0
  00043	e8 00 00 00 00	 call	 ?RunScript@CLuaBase@@QAEHPBD@Z ; CLuaBase::RunScript
  00048	85 c0		 test	 eax, eax
  0004a	74 0d		 je	 SHORT $LN10@LoadScript

; 60   : 	{
; 61   : 		Error( "CItemUpgrade::LoadScript() - ItemUpgrade.lua Run Failed!!!" );

  0004c	68 00 00 00 00	 push	 OFFSET ??_C@_0DL@MEIBMACM@CItemUpgrade?3?3LoadScript?$CI?$CJ?5?9?5It@
  00051	e8 00 00 00 00	 call	 ?Error@@YAPBDPBDZZ	; Error
  00056	83 c4 04	 add	 esp, 4
$LN10@LoadScript:
; File C:\IAGOS\server\v18\Source\Source\_Common\LuaBase.h

; 47   : 	void		GetGloabal( char* szName )					{  lua_getglobal( m_pLuaState, szName );  }

  00059	68 00 00 00 00	 push	 OFFSET ??_C@_09CPEADECJ@tSuitProb@
  0005e	ff 75 ec	 push	 DWORD PTR _lua$[ebp+4]
  00061	e8 00 00 00 00	 call	 _lua_getglobal

; 40   : 	void		PushNil()									{  lua_pushnil( m_pLuaState );  }

  00066	ff 75 ec	 push	 DWORD PTR _lua$[ebp+4]
  00069	e8 00 00 00 00	 call	 _lua_pushnil

; 46   : 	int			TableLoop( int nStackPos )					{  return lua_next( m_pLuaState, nStackPos );  }	

  0006e	6a fe		 push	 -2			; fffffffeH
  00070	ff 75 ec	 push	 DWORD PTR _lua$[ebp+4]
  00073	e8 00 00 00 00	 call	 _lua_next
  00078	83 c4 14	 add	 esp, 20			; 00000014H
; File C:\IAGOS\server\v18\Source\Source\WorldServer\ItemUpgrade.cpp

; 68   : 	while( lua.TableLoop( -2 ) )

  0007b	85 c0		 test	 eax, eax
  0007d	0f 84 da 00 00
	00		 je	 $LN3@LoadScript
  00083	8d 7e 08	 lea	 edi, DWORD PTR [esi+8]
$LL2@LoadScript:
; File C:\IAGOS\server\v18\Source\Source\_Common\LuaBase.h

; 43   : 	double		ToNumber( int nStackPos )					{  return lua_tonumber( m_pLuaState, nStackPos );  }

  00086	6a 00		 push	 0
  00088	6a ff		 push	 -1
  0008a	ff 75 ec	 push	 DWORD PTR _lua$[ebp+4]
  0008d	e8 00 00 00 00	 call	 _lua_tonumberx
  00092	6a 00		 push	 0
  00094	6a fe		 push	 -2			; fffffffeH
  00096	ff 75 ec	 push	 DWORD PTR _lua$[ebp+4]
  00099	dd 5d d0	 fstp	 QWORD PTR tv2344[ebp]
  0009c	e8 00 00 00 00	 call	 _lua_tonumberx
; File C:\Program Files\Microsoft Visual Studio\2022\Professional\VC\Tools\MSVC\14.44.35207\include\utility

; 274  :         : first(_STD forward<_Other1>(_Val1)), second(_STD forward<_Other2>(_Val2)) {

  000a1	f2 0f 2c 45 d0	 cvttsd2si eax, QWORD PTR tv2344[ebp]
; File C:\IAGOS\server\v18\Source\Source\_Common\LuaBase.h

; 43   : 	double		ToNumber( int nStackPos )					{  return lua_tonumber( m_pLuaState, nStackPos );  }

  000a6	83 c4 18	 add	 esp, 24			; 00000018H
; File C:\Program Files\Microsoft Visual Studio\2022\Professional\VC\Tools\MSVC\14.44.35207\include\xtree

; 1017 :             _Loc                = _Find_lower_bound(_Keyval);

  000a9	8b cf		 mov	 ecx, edi
; File C:\IAGOS\server\v18\Source\Source\_Common\LuaBase.h

; 43   : 	double		ToNumber( int nStackPos )					{  return lua_tonumber( m_pLuaState, nStackPos );  }

  000ab	dd 5d d8	 fstp	 QWORD PTR tv2338[ebp]
; File C:\IAGOS\server\v18\Source\Source\WorldServer\ItemUpgrade.cpp

; 70   : 		m_mapSuitProb.insert( make_pair( static_cast<int>(lua.ToNumber(-2)), static_cast<int>(lua.ToNumber(-1)) ) );

  000ae	f2 0f 2c 75 d8	 cvttsd2si esi, QWORD PTR tv2338[ebp]
; File C:\Program Files\Microsoft Visual Studio\2022\Professional\VC\Tools\MSVC\14.44.35207\include\utility

; 274  :         : first(_STD forward<_Other1>(_Val1)), second(_STD forward<_Other2>(_Val2)) {

  000b3	89 45 e4	 mov	 DWORD PTR $T15[ebp+4], eax
; File C:\Program Files\Microsoft Visual Studio\2022\Professional\VC\Tools\MSVC\14.44.35207\include\xtree

; 1017 :             _Loc                = _Find_lower_bound(_Keyval);

  000b6	8d 45 e0	 lea	 eax, DWORD PTR $T15[ebp]
  000b9	50		 push	 eax
  000ba	8d 45 b0	 lea	 eax, DWORD PTR $T4[ebp]
  000bd	50		 push	 eax
; File C:\Program Files\Microsoft Visual Studio\2022\Professional\VC\Tools\MSVC\14.44.35207\include\utility

; 274  :         : first(_STD forward<_Other1>(_Val1)), second(_STD forward<_Other2>(_Val2)) {

  000be	89 75 e0	 mov	 DWORD PTR $T15[ebp], esi
; File C:\Program Files\Microsoft Visual Studio\2022\Professional\VC\Tools\MSVC\14.44.35207\include\xtree

; 1017 :             _Loc                = _Find_lower_bound(_Keyval);

  000c1	e8 00 00 00 00	 call	 ??$_Find_lower_bound@H@?$_Tree@V?$_Tmap_traits@HHU?$less@H@std@@V?$allocator@U?$pair@$$CBHH@std@@@2@$0A@@std@@@std@@IBE?AU?$_Tree_find_result@PAU?$_Tree_node@U?$pair@$$CBHH@std@@PAX@std@@@1@ABH@Z ; std::_Tree<std::_Tmap_traits<int,int,std::less<int>,std::allocator<std::pair<int const ,int> >,0> >::_Find_lower_bound<int>
  000c6	f3 0f 7e 00	 movq	 xmm0, QWORD PTR [eax]
  000ca	8b 40 08	 mov	 eax, DWORD PTR [eax+8]
  000cd	66 0f d6 45 bc	 movq	 QWORD PTR __Loc$8[ebp], xmm0

; 1624 :         return !_Bound->_Isnil && !_DEBUG_LT_PRED(_Getcomp(), _Keyval, _Traits::_Kfn(_Bound->_Myval));

  000d2	80 78 0d 00	 cmp	 BYTE PTR [eax+13], 0
  000d6	75 05		 jne	 SHORT $LN41@LoadScript
; File C:\Program Files\Microsoft Visual Studio\2022\Professional\VC\Tools\MSVC\14.44.35207\include\type_traits

; 2380 :         return _Left < _Right;

  000d8	3b 70 10	 cmp	 esi, DWORD PTR [eax+16]
; File C:\Program Files\Microsoft Visual Studio\2022\Professional\VC\Tools\MSVC\14.44.35207\include\xtree

; 1624 :         return !_Bound->_Isnil && !_DEBUG_LT_PRED(_Getcomp(), _Keyval, _Traits::_Kfn(_Bound->_Myval));

  000db	7d 5e		 jge	 SHORT $LN121@LoadScript
$LN41@LoadScript:

; 1648 :         if (max_size() == _Get_scary()->_Mysize) {

  000dd	81 7f 04 aa aa
	aa 0a		 cmp	 DWORD PTR [edi+4], 178956970 ; 0aaaaaaaH
  000e4	0f 84 4f 04 00
	00		 je	 $LN512@LoadScript

; 1023 :             _Inserted = _Tree_temp_node<_Alnode>(_Getal(), _Scary->_Myhead, _STD forward<_Valtys>(_Vals)...)._Release();

  000ea	8b 37		 mov	 esi, DWORD PTR [edi]
; File C:\Program Files\Microsoft Visual Studio\2022\Professional\VC\Tools\MSVC\14.44.35207\include\xmemory

; 1160 :     _CONSTEXPR20 explicit _Alloc_construct_ptr(_Alloc& _Al_) : _Al(_Al_), _Ptr(nullptr) {}

  000ec	89 7d c8	 mov	 DWORD PTR $T13[ebp], edi

; 136  :         return ::operator new(_Bytes);

  000ef	6a 18		 push	 24			; 00000018H
; File C:\Program Files\Microsoft Visual Studio\2022\Professional\VC\Tools\MSVC\14.44.35207\include\xtree

; 808  :     explicit _Tree_temp_node_alloc(_Alnode& _Al_) : _Alloc_construct_ptr<_Alnode>(_Al_) {

  000f1	c6 45 fc 01	 mov	 BYTE PTR __$EHRec$[ebp+8], 1
; File C:\Program Files\Microsoft Visual Studio\2022\Professional\VC\Tools\MSVC\14.44.35207\include\xmemory

; 1167 :         _Ptr = nullptr; // if allocate throws, prevents double-free

  000f5	c7 45 cc 00 00
	00 00		 mov	 DWORD PTR $T13[ebp+4], 0

; 136  :         return ::operator new(_Bytes);

  000fc	e8 00 00 00 00	 call	 ??2@YAPAXI@Z		; operator new
; File C:\Program Files\Microsoft Visual Studio\2022\Professional\VC\Tools\MSVC\14.44.35207\include\utility

; 303  :         : first(_STD forward<_Other1>(_Right.first)), second(_STD forward<_Other2>(_Right.second)) {}

  00101	f2 0f 2c 4d d8	 cvttsd2si ecx, QWORD PTR tv2338[ebp]
; File C:\Program Files\Microsoft Visual Studio\2022\Professional\VC\Tools\MSVC\14.44.35207\include\xmemory

; 136  :         return ::operator new(_Bytes);

  00106	83 c4 04	 add	 esp, 4
; File C:\Program Files\Microsoft Visual Studio\2022\Professional\VC\Tools\MSVC\14.44.35207\include\xtree

; 810  :     }

  00109	c6 45 fc 00	 mov	 BYTE PTR __$EHRec$[ebp+8], 0
; File C:\Program Files\Microsoft Visual Studio\2022\Professional\VC\Tools\MSVC\14.44.35207\include\utility

; 774  :     _Val         = static_cast<_Other&&>(_New_val);

  0010d	c7 45 cc 00 00
	00 00		 mov	 DWORD PTR $T13[ebp+4], 0
; File C:\Program Files\Microsoft Visual Studio\2022\Professional\VC\Tools\MSVC\14.44.35207\include\xtree

; 1042 :         return {_Scary->_Insert_node(_Loc._Location, _Inserted), true};

  00114	50		 push	 eax
  00115	ff 75 c0	 push	 DWORD PTR __Loc$8[ebp+4]
; File C:\Program Files\Microsoft Visual Studio\2022\Professional\VC\Tools\MSVC\14.44.35207\include\utility

; 303  :         : first(_STD forward<_Other1>(_Right.first)), second(_STD forward<_Other2>(_Right.second)) {}

  00118	89 48 10	 mov	 DWORD PTR [eax+16], ecx
  0011b	f2 0f 2c 4d d0	 cvttsd2si ecx, QWORD PTR tv2344[ebp]
; File C:\Program Files\Microsoft Visual Studio\2022\Professional\VC\Tools\MSVC\14.44.35207\include\xtree

; 1042 :         return {_Scary->_Insert_node(_Loc._Location, _Inserted), true};

  00120	ff 75 bc	 push	 DWORD PTR __Loc$8[ebp]
; File C:\Program Files\Microsoft Visual Studio\2022\Professional\VC\Tools\MSVC\14.44.35207\include\utility

; 303  :         : first(_STD forward<_Other1>(_Right.first)), second(_STD forward<_Other2>(_Right.second)) {}

  00123	89 48 14	 mov	 DWORD PTR [eax+20], ecx
; File C:\Program Files\Microsoft Visual Studio\2022\Professional\VC\Tools\MSVC\14.44.35207\include\xtree

; 1042 :         return {_Scary->_Insert_node(_Loc._Location, _Inserted), true};

  00126	8b cf		 mov	 ecx, edi

; 831  :         _Construct_in_place(this->_Ptr->_Left, _Myhead);

  00128	89 30		 mov	 DWORD PTR [eax], esi

; 832  :         _Construct_in_place(this->_Ptr->_Parent, _Myhead);

  0012a	89 70 04	 mov	 DWORD PTR [eax+4], esi

; 833  :         _Construct_in_place(this->_Ptr->_Right, _Myhead);

  0012d	89 70 08	 mov	 DWORD PTR [eax+8], esi

; 834  :         this->_Ptr->_Color = _Red;

  00130	66 c7 40 0c 00
	00		 mov	 WORD PTR [eax+12], 0

; 1042 :         return {_Scary->_Insert_node(_Loc._Location, _Inserted), true};

  00136	e8 00 00 00 00	 call	 ?_Insert_node@?$_Tree_val@U?$_Tree_simple_types@U?$pair@$$CBHH@std@@@std@@@std@@QAEPAU?$_Tree_node@U?$pair@$$CBHH@std@@PAX@2@U?$_Tree_id@PAU?$_Tree_node@U?$pair@$$CBHH@std@@PAX@std@@@2@QAU32@@Z ; std::_Tree_val<std::_Tree_simple_types<std::pair<int const ,int> > >::_Insert_node
$LN121@LoadScript:
; File C:\IAGOS\server\v18\Source\Source\WorldServer\ItemUpgrade.cpp

; 71   : 		lua.Pop( 1 );

  0013b	6a 01		 push	 1
  0013d	8d 4d e8	 lea	 ecx, DWORD PTR _lua$[ebp]
  00140	e8 00 00 00 00	 call	 ?Pop@CLuaBase@@QAEXH@Z	; CLuaBase::Pop
; File C:\IAGOS\server\v18\Source\Source\_Common\LuaBase.h

; 46   : 	int			TableLoop( int nStackPos )					{  return lua_next( m_pLuaState, nStackPos );  }	

  00145	6a fe		 push	 -2			; fffffffeH
  00147	ff 75 ec	 push	 DWORD PTR _lua$[ebp+4]
  0014a	e8 00 00 00 00	 call	 _lua_next
  0014f	83 c4 08	 add	 esp, 8
; File C:\IAGOS\server\v18\Source\Source\WorldServer\ItemUpgrade.cpp

; 68   : 	while( lua.TableLoop( -2 ) )

  00152	85 c0		 test	 eax, eax
  00154	0f 85 2c ff ff
	ff		 jne	 $LL2@LoadScript
  0015a	8b 75 f0	 mov	 esi, DWORD PTR _this$1$[ebp]
$LN3@LoadScript:

; 72   : 	}
; 73   : 	lua.Pop(0);

  0015d	6a 00		 push	 0
  0015f	8d 4d e8	 lea	 ecx, DWORD PTR _lua$[ebp]
  00162	e8 00 00 00 00	 call	 ?Pop@CLuaBase@@QAEXH@Z	; CLuaBase::Pop
; File C:\IAGOS\server\v18\Source\Source\_Common\LuaBase.h

; 47   : 	void		GetGloabal( char* szName )					{  lua_getglobal( m_pLuaState, szName );  }

  00167	68 00 00 00 00	 push	 OFFSET ??_C@_0M@IAAAPADN@tWeaponProb@
  0016c	ff 75 ec	 push	 DWORD PTR _lua$[ebp+4]
  0016f	e8 00 00 00 00	 call	 _lua_getglobal

; 40   : 	void		PushNil()									{  lua_pushnil( m_pLuaState );  }

  00174	ff 75 ec	 push	 DWORD PTR _lua$[ebp+4]
  00177	e8 00 00 00 00	 call	 _lua_pushnil

; 46   : 	int			TableLoop( int nStackPos )					{  return lua_next( m_pLuaState, nStackPos );  }	

  0017c	6a fe		 push	 -2			; fffffffeH
  0017e	ff 75 ec	 push	 DWORD PTR _lua$[ebp+4]
  00181	e8 00 00 00 00	 call	 _lua_next
  00186	83 c4 14	 add	 esp, 20			; 00000014H
; File C:\IAGOS\server\v18\Source\Source\WorldServer\ItemUpgrade.cpp

; 78   : 	while( lua.TableLoop( -2 ) )

  00189	85 c0		 test	 eax, eax
  0018b	0f 84 d7 00 00
	00		 je	 $LN5@LoadScript
  00191	8d 7e 10	 lea	 edi, DWORD PTR [esi+16]
$LL4@LoadScript:
; File C:\IAGOS\server\v18\Source\Source\_Common\LuaBase.h

; 43   : 	double		ToNumber( int nStackPos )					{  return lua_tonumber( m_pLuaState, nStackPos );  }

  00194	6a 00		 push	 0
  00196	6a ff		 push	 -1
  00198	ff 75 ec	 push	 DWORD PTR _lua$[ebp+4]
  0019b	e8 00 00 00 00	 call	 _lua_tonumberx
  001a0	6a 00		 push	 0
  001a2	6a fe		 push	 -2			; fffffffeH
  001a4	ff 75 ec	 push	 DWORD PTR _lua$[ebp+4]
  001a7	dd 5d d8	 fstp	 QWORD PTR tv2315[ebp]
  001aa	e8 00 00 00 00	 call	 _lua_tonumberx
; File C:\Program Files\Microsoft Visual Studio\2022\Professional\VC\Tools\MSVC\14.44.35207\include\utility

; 274  :         : first(_STD forward<_Other1>(_Val1)), second(_STD forward<_Other2>(_Val2)) {

  001af	f2 0f 2c 45 d8	 cvttsd2si eax, QWORD PTR tv2315[ebp]
; File C:\IAGOS\server\v18\Source\Source\_Common\LuaBase.h

; 43   : 	double		ToNumber( int nStackPos )					{  return lua_tonumber( m_pLuaState, nStackPos );  }

  001b4	83 c4 18	 add	 esp, 24			; 00000018H
; File C:\Program Files\Microsoft Visual Studio\2022\Professional\VC\Tools\MSVC\14.44.35207\include\xtree

; 1017 :             _Loc                = _Find_lower_bound(_Keyval);

  001b7	8b cf		 mov	 ecx, edi
; File C:\IAGOS\server\v18\Source\Source\_Common\LuaBase.h

; 43   : 	double		ToNumber( int nStackPos )					{  return lua_tonumber( m_pLuaState, nStackPos );  }

  001b9	dd 5d d0	 fstp	 QWORD PTR tv2309[ebp]
; File C:\IAGOS\server\v18\Source\Source\WorldServer\ItemUpgrade.cpp

; 80   : 		m_mapWeaponProb.insert( make_pair( static_cast<int>(lua.ToNumber(-2)), static_cast<int>(lua.ToNumber(-1)) ) );

  001bc	f2 0f 2c 75 d0	 cvttsd2si esi, QWORD PTR tv2309[ebp]
; File C:\Program Files\Microsoft Visual Studio\2022\Professional\VC\Tools\MSVC\14.44.35207\include\utility

; 274  :         : first(_STD forward<_Other1>(_Val1)), second(_STD forward<_Other2>(_Val2)) {

  001c1	89 45 cc	 mov	 DWORD PTR $T11[ebp+4], eax
; File C:\Program Files\Microsoft Visual Studio\2022\Professional\VC\Tools\MSVC\14.44.35207\include\xtree

; 1017 :             _Loc                = _Find_lower_bound(_Keyval);

  001c4	8d 45 c8	 lea	 eax, DWORD PTR $T11[ebp]
  001c7	50		 push	 eax
  001c8	8d 45 b0	 lea	 eax, DWORD PTR $T5[ebp]
  001cb	50		 push	 eax
; File C:\Program Files\Microsoft Visual Studio\2022\Professional\VC\Tools\MSVC\14.44.35207\include\utility

; 274  :         : first(_STD forward<_Other1>(_Val1)), second(_STD forward<_Other2>(_Val2)) {

  001cc	89 75 c8	 mov	 DWORD PTR $T11[ebp], esi
; File C:\Program Files\Microsoft Visual Studio\2022\Professional\VC\Tools\MSVC\14.44.35207\include\xtree

; 1017 :             _Loc                = _Find_lower_bound(_Keyval);

  001cf	e8 00 00 00 00	 call	 ??$_Find_lower_bound@H@?$_Tree@V?$_Tmap_traits@HHU?$less@H@std@@V?$allocator@U?$pair@$$CBHH@std@@@2@$0A@@std@@@std@@IBE?AU?$_Tree_find_result@PAU?$_Tree_node@U?$pair@$$CBHH@std@@PAX@std@@@1@ABH@Z ; std::_Tree<std::_Tmap_traits<int,int,std::less<int>,std::allocator<std::pair<int const ,int> >,0> >::_Find_lower_bound<int>
  001d4	f3 0f 7e 00	 movq	 xmm0, QWORD PTR [eax]
  001d8	8b 40 08	 mov	 eax, DWORD PTR [eax+8]
  001db	66 0f d6 45 bc	 movq	 QWORD PTR __Loc$9[ebp], xmm0

; 1624 :         return !_Bound->_Isnil && !_DEBUG_LT_PRED(_Getcomp(), _Keyval, _Traits::_Kfn(_Bound->_Myval));

  001e0	80 78 0d 00	 cmp	 BYTE PTR [eax+13], 0
  001e4	75 05		 jne	 SHORT $LN158@LoadScript
; File C:\Program Files\Microsoft Visual Studio\2022\Professional\VC\Tools\MSVC\14.44.35207\include\type_traits

; 2380 :         return _Left < _Right;

  001e6	3b 70 10	 cmp	 esi, DWORD PTR [eax+16]
; File C:\Program Files\Microsoft Visual Studio\2022\Professional\VC\Tools\MSVC\14.44.35207\include\xtree

; 1624 :         return !_Bound->_Isnil && !_DEBUG_LT_PRED(_Getcomp(), _Keyval, _Traits::_Kfn(_Bound->_Myval));

  001e9	7d 5e		 jge	 SHORT $LN238@LoadScript
$LN158@LoadScript:

; 1648 :         if (max_size() == _Get_scary()->_Mysize) {

  001eb	81 7f 04 aa aa
	aa 0a		 cmp	 DWORD PTR [edi+4], 178956970 ; 0aaaaaaaH
  001f2	0f 84 41 03 00
	00		 je	 $LN512@LoadScript

; 1023 :             _Inserted = _Tree_temp_node<_Alnode>(_Getal(), _Scary->_Myhead, _STD forward<_Valtys>(_Vals)...)._Release();

  001f8	8b 37		 mov	 esi, DWORD PTR [edi]
; File C:\Program Files\Microsoft Visual Studio\2022\Professional\VC\Tools\MSVC\14.44.35207\include\xmemory

; 1160 :     _CONSTEXPR20 explicit _Alloc_construct_ptr(_Alloc& _Al_) : _Al(_Al_), _Ptr(nullptr) {}

  001fa	89 7d e0	 mov	 DWORD PTR $T16[ebp], edi

; 136  :         return ::operator new(_Bytes);

  001fd	6a 18		 push	 24			; 00000018H
; File C:\Program Files\Microsoft Visual Studio\2022\Professional\VC\Tools\MSVC\14.44.35207\include\xtree

; 808  :     explicit _Tree_temp_node_alloc(_Alnode& _Al_) : _Alloc_construct_ptr<_Alnode>(_Al_) {

  001ff	c6 45 fc 02	 mov	 BYTE PTR __$EHRec$[ebp+8], 2
; File C:\Program Files\Microsoft Visual Studio\2022\Professional\VC\Tools\MSVC\14.44.35207\include\xmemory

; 1167 :         _Ptr = nullptr; // if allocate throws, prevents double-free

  00203	c7 45 e4 00 00
	00 00		 mov	 DWORD PTR $T16[ebp+4], 0

; 136  :         return ::operator new(_Bytes);

  0020a	e8 00 00 00 00	 call	 ??2@YAPAXI@Z		; operator new
; File C:\Program Files\Microsoft Visual Studio\2022\Professional\VC\Tools\MSVC\14.44.35207\include\utility

; 303  :         : first(_STD forward<_Other1>(_Right.first)), second(_STD forward<_Other2>(_Right.second)) {}

  0020f	f2 0f 2c 4d d0	 cvttsd2si ecx, QWORD PTR tv2309[ebp]
; File C:\Program Files\Microsoft Visual Studio\2022\Professional\VC\Tools\MSVC\14.44.35207\include\xmemory

; 136  :         return ::operator new(_Bytes);

  00214	83 c4 04	 add	 esp, 4
; File C:\Program Files\Microsoft Visual Studio\2022\Professional\VC\Tools\MSVC\14.44.35207\include\xtree

; 810  :     }

  00217	c6 45 fc 00	 mov	 BYTE PTR __$EHRec$[ebp+8], 0
; File C:\Program Files\Microsoft Visual Studio\2022\Professional\VC\Tools\MSVC\14.44.35207\include\utility

; 774  :     _Val         = static_cast<_Other&&>(_New_val);

  0021b	c7 45 e4 00 00
	00 00		 mov	 DWORD PTR $T16[ebp+4], 0
; File C:\Program Files\Microsoft Visual Studio\2022\Professional\VC\Tools\MSVC\14.44.35207\include\xtree

; 1042 :         return {_Scary->_Insert_node(_Loc._Location, _Inserted), true};

  00222	50		 push	 eax
  00223	ff 75 c0	 push	 DWORD PTR __Loc$9[ebp+4]
; File C:\Program Files\Microsoft Visual Studio\2022\Professional\VC\Tools\MSVC\14.44.35207\include\utility

; 303  :         : first(_STD forward<_Other1>(_Right.first)), second(_STD forward<_Other2>(_Right.second)) {}

  00226	89 48 10	 mov	 DWORD PTR [eax+16], ecx
  00229	f2 0f 2c 4d d8	 cvttsd2si ecx, QWORD PTR tv2315[ebp]
; File C:\Program Files\Microsoft Visual Studio\2022\Professional\VC\Tools\MSVC\14.44.35207\include\xtree

; 1042 :         return {_Scary->_Insert_node(_Loc._Location, _Inserted), true};

  0022e	ff 75 bc	 push	 DWORD PTR __Loc$9[ebp]
; File C:\Program Files\Microsoft Visual Studio\2022\Professional\VC\Tools\MSVC\14.44.35207\include\utility

; 303  :         : first(_STD forward<_Other1>(_Right.first)), second(_STD forward<_Other2>(_Right.second)) {}

  00231	89 48 14	 mov	 DWORD PTR [eax+20], ecx
; File C:\Program Files\Microsoft Visual Studio\2022\Professional\VC\Tools\MSVC\14.44.35207\include\xtree

; 1042 :         return {_Scary->_Insert_node(_Loc._Location, _Inserted), true};

  00234	8b cf		 mov	 ecx, edi

; 831  :         _Construct_in_place(this->_Ptr->_Left, _Myhead);

  00236	89 30		 mov	 DWORD PTR [eax], esi

; 832  :         _Construct_in_place(this->_Ptr->_Parent, _Myhead);

  00238	89 70 04	 mov	 DWORD PTR [eax+4], esi

; 833  :         _Construct_in_place(this->_Ptr->_Right, _Myhead);

  0023b	89 70 08	 mov	 DWORD PTR [eax+8], esi

; 834  :         this->_Ptr->_Color = _Red;

  0023e	66 c7 40 0c 00
	00		 mov	 WORD PTR [eax+12], 0

; 1042 :         return {_Scary->_Insert_node(_Loc._Location, _Inserted), true};

  00244	e8 00 00 00 00	 call	 ?_Insert_node@?$_Tree_val@U?$_Tree_simple_types@U?$pair@$$CBHH@std@@@std@@@std@@QAEPAU?$_Tree_node@U?$pair@$$CBHH@std@@PAX@2@U?$_Tree_id@PAU?$_Tree_node@U?$pair@$$CBHH@std@@PAX@std@@@2@QAU32@@Z ; std::_Tree_val<std::_Tree_simple_types<std::pair<int const ,int> > >::_Insert_node
$LN238@LoadScript:
; File C:\IAGOS\server\v18\Source\Source\WorldServer\ItemUpgrade.cpp

; 81   : 		lua.Pop( 1 );

  00249	6a 01		 push	 1
  0024b	8d 4d e8	 lea	 ecx, DWORD PTR _lua$[ebp]
  0024e	e8 00 00 00 00	 call	 ?Pop@CLuaBase@@QAEXH@Z	; CLuaBase::Pop
; File C:\IAGOS\server\v18\Source\Source\_Common\LuaBase.h

; 46   : 	int			TableLoop( int nStackPos )					{  return lua_next( m_pLuaState, nStackPos );  }	

  00253	6a fe		 push	 -2			; fffffffeH
  00255	ff 75 ec	 push	 DWORD PTR _lua$[ebp+4]
  00258	e8 00 00 00 00	 call	 _lua_next
  0025d	83 c4 08	 add	 esp, 8
; File C:\IAGOS\server\v18\Source\Source\WorldServer\ItemUpgrade.cpp

; 78   : 	while( lua.TableLoop( -2 ) )

  00260	85 c0		 test	 eax, eax
  00262	0f 85 2c ff ff
	ff		 jne	 $LL4@LoadScript
$LN5@LoadScript:

; 82   : 	}
; 83   : 	lua.Pop(0);

  00268	6a 00		 push	 0
  0026a	8d 4d e8	 lea	 ecx, DWORD PTR _lua$[ebp]
  0026d	e8 00 00 00 00	 call	 ?Pop@CLuaBase@@QAEXH@Z	; CLuaBase::Pop
; File C:\IAGOS\server\v18\Source\Source\_Common\LuaBase.h

; 47   : 	void		GetGloabal( char* szName )					{  lua_getglobal( m_pLuaState, szName );  }

  00272	68 00 00 00 00	 push	 OFFSET ??_C@_08GMCIKKIC@tGeneral@
  00277	ff 75 ec	 push	 DWORD PTR _lua$[ebp+4]
  0027a	e8 00 00 00 00	 call	 _lua_getglobal

; 40   : 	void		PushNil()									{  lua_pushnil( m_pLuaState );  }

  0027f	ff 75 ec	 push	 DWORD PTR _lua$[ebp+4]
  00282	e8 00 00 00 00	 call	 _lua_pushnil

; 46   : 	int			TableLoop( int nStackPos )					{  return lua_next( m_pLuaState, nStackPos );  }	

  00287	6a fe		 push	 -2			; fffffffeH
  00289	ff 75 ec	 push	 DWORD PTR _lua$[ebp+4]
  0028c	e8 00 00 00 00	 call	 _lua_next
  00291	83 c4 14	 add	 esp, 20			; 00000014H
; File C:\IAGOS\server\v18\Source\Source\WorldServer\ItemUpgrade.cpp

; 89   : 	while( lua.TableLoop( -2 ) )

  00294	85 c0		 test	 eax, eax
  00296	0f 84 da 00 00
	00		 je	 $LN7@LoadScript
  0029c	8b 7d f0	 mov	 edi, DWORD PTR _this$1$[ebp]
  0029f	83 c7 18	 add	 edi, 24			; 00000018H
$LL6@LoadScript:
; File C:\IAGOS\server\v18\Source\Source\_Common\LuaBase.h

; 43   : 	double		ToNumber( int nStackPos )					{  return lua_tonumber( m_pLuaState, nStackPos );  }

  002a2	6a 00		 push	 0
  002a4	6a ff		 push	 -1
  002a6	ff 75 ec	 push	 DWORD PTR _lua$[ebp+4]
  002a9	e8 00 00 00 00	 call	 _lua_tonumberx
  002ae	6a 00		 push	 0
  002b0	6a fe		 push	 -2			; fffffffeH
  002b2	ff 75 ec	 push	 DWORD PTR _lua$[ebp+4]
  002b5	dd 5d d8	 fstp	 QWORD PTR tv2287[ebp]
  002b8	e8 00 00 00 00	 call	 _lua_tonumberx
; File C:\Program Files\Microsoft Visual Studio\2022\Professional\VC\Tools\MSVC\14.44.35207\include\utility

; 274  :         : first(_STD forward<_Other1>(_Val1)), second(_STD forward<_Other2>(_Val2)) {

  002bd	f2 0f 2c 45 d8	 cvttsd2si eax, QWORD PTR tv2287[ebp]
; File C:\IAGOS\server\v18\Source\Source\_Common\LuaBase.h

; 43   : 	double		ToNumber( int nStackPos )					{  return lua_tonumber( m_pLuaState, nStackPos );  }

  002c2	83 c4 18	 add	 esp, 24			; 00000018H
; File C:\Program Files\Microsoft Visual Studio\2022\Professional\VC\Tools\MSVC\14.44.35207\include\xtree

; 1017 :             _Loc                = _Find_lower_bound(_Keyval);

  002c5	8b cf		 mov	 ecx, edi
; File C:\IAGOS\server\v18\Source\Source\_Common\LuaBase.h

; 43   : 	double		ToNumber( int nStackPos )					{  return lua_tonumber( m_pLuaState, nStackPos );  }

  002c7	dd 5d d0	 fstp	 QWORD PTR tv2281[ebp]
; File C:\IAGOS\server\v18\Source\Source\WorldServer\ItemUpgrade.cpp

; 91   : 		m_mapGeneralEnchant.insert( make_pair( static_cast<int>(lua.ToNumber(-2)), static_cast<int>(lua.ToNumber(-1)) ) );

  002ca	f2 0f 2c 75 d0	 cvttsd2si esi, QWORD PTR tv2281[ebp]
; File C:\Program Files\Microsoft Visual Studio\2022\Professional\VC\Tools\MSVC\14.44.35207\include\utility

; 274  :         : first(_STD forward<_Other1>(_Val1)), second(_STD forward<_Other2>(_Val2)) {

  002cf	89 45 cc	 mov	 DWORD PTR $T12[ebp+4], eax
; File C:\Program Files\Microsoft Visual Studio\2022\Professional\VC\Tools\MSVC\14.44.35207\include\xtree

; 1017 :             _Loc                = _Find_lower_bound(_Keyval);

  002d2	8d 45 c8	 lea	 eax, DWORD PTR $T12[ebp]
  002d5	50		 push	 eax
  002d6	8d 45 b0	 lea	 eax, DWORD PTR $T6[ebp]
  002d9	50		 push	 eax
; File C:\Program Files\Microsoft Visual Studio\2022\Professional\VC\Tools\MSVC\14.44.35207\include\utility

; 274  :         : first(_STD forward<_Other1>(_Val1)), second(_STD forward<_Other2>(_Val2)) {

  002da	89 75 c8	 mov	 DWORD PTR $T12[ebp], esi
; File C:\Program Files\Microsoft Visual Studio\2022\Professional\VC\Tools\MSVC\14.44.35207\include\xtree

; 1017 :             _Loc                = _Find_lower_bound(_Keyval);

  002dd	e8 00 00 00 00	 call	 ??$_Find_lower_bound@H@?$_Tree@V?$_Tmap_traits@HHU?$less@H@std@@V?$allocator@U?$pair@$$CBHH@std@@@2@$0A@@std@@@std@@IBE?AU?$_Tree_find_result@PAU?$_Tree_node@U?$pair@$$CBHH@std@@PAX@std@@@1@ABH@Z ; std::_Tree<std::_Tmap_traits<int,int,std::less<int>,std::allocator<std::pair<int const ,int> >,0> >::_Find_lower_bound<int>
  002e2	f3 0f 7e 00	 movq	 xmm0, QWORD PTR [eax]
  002e6	8b 40 08	 mov	 eax, DWORD PTR [eax+8]
  002e9	66 0f d6 45 bc	 movq	 QWORD PTR __Loc$10[ebp], xmm0

; 1624 :         return !_Bound->_Isnil && !_DEBUG_LT_PRED(_Getcomp(), _Keyval, _Traits::_Kfn(_Bound->_Myval));

  002ee	80 78 0d 00	 cmp	 BYTE PTR [eax+13], 0
  002f2	75 05		 jne	 SHORT $LN274@LoadScript
; File C:\Program Files\Microsoft Visual Studio\2022\Professional\VC\Tools\MSVC\14.44.35207\include\type_traits

; 2380 :         return _Left < _Right;

  002f4	3b 70 10	 cmp	 esi, DWORD PTR [eax+16]
; File C:\Program Files\Microsoft Visual Studio\2022\Professional\VC\Tools\MSVC\14.44.35207\include\xtree

; 1624 :         return !_Bound->_Isnil && !_DEBUG_LT_PRED(_Getcomp(), _Keyval, _Traits::_Kfn(_Bound->_Myval));

  002f7	7d 5e		 jge	 SHORT $LN354@LoadScript
$LN274@LoadScript:

; 1648 :         if (max_size() == _Get_scary()->_Mysize) {

  002f9	81 7f 04 aa aa
	aa 0a		 cmp	 DWORD PTR [edi+4], 178956970 ; 0aaaaaaaH
  00300	0f 84 33 02 00
	00		 je	 $LN512@LoadScript

; 1023 :             _Inserted = _Tree_temp_node<_Alnode>(_Getal(), _Scary->_Myhead, _STD forward<_Valtys>(_Vals)...)._Release();

  00306	8b 37		 mov	 esi, DWORD PTR [edi]
; File C:\Program Files\Microsoft Visual Studio\2022\Professional\VC\Tools\MSVC\14.44.35207\include\xmemory

; 1160 :     _CONSTEXPR20 explicit _Alloc_construct_ptr(_Alloc& _Al_) : _Al(_Al_), _Ptr(nullptr) {}

  00308	89 7d e0	 mov	 DWORD PTR $T17[ebp], edi

; 136  :         return ::operator new(_Bytes);

  0030b	6a 18		 push	 24			; 00000018H
; File C:\Program Files\Microsoft Visual Studio\2022\Professional\VC\Tools\MSVC\14.44.35207\include\xtree

; 808  :     explicit _Tree_temp_node_alloc(_Alnode& _Al_) : _Alloc_construct_ptr<_Alnode>(_Al_) {

  0030d	c6 45 fc 03	 mov	 BYTE PTR __$EHRec$[ebp+8], 3
; File C:\Program Files\Microsoft Visual Studio\2022\Professional\VC\Tools\MSVC\14.44.35207\include\xmemory

; 1167 :         _Ptr = nullptr; // if allocate throws, prevents double-free

  00311	c7 45 e4 00 00
	00 00		 mov	 DWORD PTR $T17[ebp+4], 0

; 136  :         return ::operator new(_Bytes);

  00318	e8 00 00 00 00	 call	 ??2@YAPAXI@Z		; operator new
; File C:\Program Files\Microsoft Visual Studio\2022\Professional\VC\Tools\MSVC\14.44.35207\include\utility

; 303  :         : first(_STD forward<_Other1>(_Right.first)), second(_STD forward<_Other2>(_Right.second)) {}

  0031d	f2 0f 2c 4d d0	 cvttsd2si ecx, QWORD PTR tv2281[ebp]
; File C:\Program Files\Microsoft Visual Studio\2022\Professional\VC\Tools\MSVC\14.44.35207\include\xmemory

; 136  :         return ::operator new(_Bytes);

  00322	83 c4 04	 add	 esp, 4
; File C:\Program Files\Microsoft Visual Studio\2022\Professional\VC\Tools\MSVC\14.44.35207\include\xtree

; 810  :     }

  00325	c6 45 fc 00	 mov	 BYTE PTR __$EHRec$[ebp+8], 0
; File C:\Program Files\Microsoft Visual Studio\2022\Professional\VC\Tools\MSVC\14.44.35207\include\utility

; 774  :     _Val         = static_cast<_Other&&>(_New_val);

  00329	c7 45 e4 00 00
	00 00		 mov	 DWORD PTR $T17[ebp+4], 0
; File C:\Program Files\Microsoft Visual Studio\2022\Professional\VC\Tools\MSVC\14.44.35207\include\xtree

; 1042 :         return {_Scary->_Insert_node(_Loc._Location, _Inserted), true};

  00330	50		 push	 eax
  00331	ff 75 c0	 push	 DWORD PTR __Loc$10[ebp+4]
; File C:\Program Files\Microsoft Visual Studio\2022\Professional\VC\Tools\MSVC\14.44.35207\include\utility

; 303  :         : first(_STD forward<_Other1>(_Right.first)), second(_STD forward<_Other2>(_Right.second)) {}

  00334	89 48 10	 mov	 DWORD PTR [eax+16], ecx
  00337	f2 0f 2c 4d d8	 cvttsd2si ecx, QWORD PTR tv2287[ebp]
; File C:\Program Files\Microsoft Visual Studio\2022\Professional\VC\Tools\MSVC\14.44.35207\include\xtree

; 1042 :         return {_Scary->_Insert_node(_Loc._Location, _Inserted), true};

  0033c	ff 75 bc	 push	 DWORD PTR __Loc$10[ebp]
; File C:\Program Files\Microsoft Visual Studio\2022\Professional\VC\Tools\MSVC\14.44.35207\include\utility

; 303  :         : first(_STD forward<_Other1>(_Right.first)), second(_STD forward<_Other2>(_Right.second)) {}

  0033f	89 48 14	 mov	 DWORD PTR [eax+20], ecx
; File C:\Program Files\Microsoft Visual Studio\2022\Professional\VC\Tools\MSVC\14.44.35207\include\xtree

; 1042 :         return {_Scary->_Insert_node(_Loc._Location, _Inserted), true};

  00342	8b cf		 mov	 ecx, edi

; 831  :         _Construct_in_place(this->_Ptr->_Left, _Myhead);

  00344	89 30		 mov	 DWORD PTR [eax], esi

; 832  :         _Construct_in_place(this->_Ptr->_Parent, _Myhead);

  00346	89 70 04	 mov	 DWORD PTR [eax+4], esi

; 833  :         _Construct_in_place(this->_Ptr->_Right, _Myhead);

  00349	89 70 08	 mov	 DWORD PTR [eax+8], esi

; 834  :         this->_Ptr->_Color = _Red;

  0034c	66 c7 40 0c 00
	00		 mov	 WORD PTR [eax+12], 0

; 1042 :         return {_Scary->_Insert_node(_Loc._Location, _Inserted), true};

  00352	e8 00 00 00 00	 call	 ?_Insert_node@?$_Tree_val@U?$_Tree_simple_types@U?$pair@$$CBHH@std@@@std@@@std@@QAEPAU?$_Tree_node@U?$pair@$$CBHH@std@@PAX@2@U?$_Tree_id@PAU?$_Tree_node@U?$pair@$$CBHH@std@@PAX@std@@@2@QAU32@@Z ; std::_Tree_val<std::_Tree_simple_types<std::pair<int const ,int> > >::_Insert_node
$LN354@LoadScript:
; File C:\IAGOS\server\v18\Source\Source\WorldServer\ItemUpgrade.cpp

; 92   : 		lua.Pop( 1 );

  00357	6a 01		 push	 1
  00359	8d 4d e8	 lea	 ecx, DWORD PTR _lua$[ebp]
  0035c	e8 00 00 00 00	 call	 ?Pop@CLuaBase@@QAEXH@Z	; CLuaBase::Pop
; File C:\IAGOS\server\v18\Source\Source\_Common\LuaBase.h

; 46   : 	int			TableLoop( int nStackPos )					{  return lua_next( m_pLuaState, nStackPos );  }	

  00361	6a fe		 push	 -2			; fffffffeH
  00363	ff 75 ec	 push	 DWORD PTR _lua$[ebp+4]
  00366	e8 00 00 00 00	 call	 _lua_next
  0036b	83 c4 08	 add	 esp, 8
; File C:\IAGOS\server\v18\Source\Source\WorldServer\ItemUpgrade.cpp

; 89   : 	while( lua.TableLoop( -2 ) )

  0036e	85 c0		 test	 eax, eax
  00370	0f 85 2c ff ff
	ff		 jne	 $LL6@LoadScript
$LN7@LoadScript:

; 93   : 	}
; 94   : 	lua.Pop(0);

  00376	6a 00		 push	 0
  00378	8d 4d e8	 lea	 ecx, DWORD PTR _lua$[ebp]
  0037b	e8 00 00 00 00	 call	 ?Pop@CLuaBase@@QAEXH@Z	; CLuaBase::Pop
; File C:\IAGOS\server\v18\Source\Source\_Common\LuaBase.h

; 47   : 	void		GetGloabal( char* szName )					{  lua_getglobal( m_pLuaState, szName );  }

  00380	68 00 00 00 00	 push	 OFFSET ??_C@_0L@IOMDLKDC@tAttribute@
  00385	ff 75 ec	 push	 DWORD PTR _lua$[ebp+4]
  00388	e8 00 00 00 00	 call	 _lua_getglobal

; 40   : 	void		PushNil()									{  lua_pushnil( m_pLuaState );  }

  0038d	ff 75 ec	 push	 DWORD PTR _lua$[ebp+4]
  00390	e8 00 00 00 00	 call	 _lua_pushnil

; 46   : 	int			TableLoop( int nStackPos )					{  return lua_next( m_pLuaState, nStackPos );  }	

  00395	6a fe		 push	 -2			; fffffffeH
  00397	ff 75 ec	 push	 DWORD PTR _lua$[ebp+4]
  0039a	e8 00 00 00 00	 call	 _lua_next
  0039f	83 c4 14	 add	 esp, 20			; 00000014H
; File C:\IAGOS\server\v18\Source\Source\WorldServer\ItemUpgrade.cpp

; 99   :  	while( lua.TableLoop( -2 ) )

  003a2	85 c0		 test	 eax, eax
  003a4	0f 84 36 01 00
	00		 je	 $LN9@LoadScript
  003aa	66 0f 1f 44 00
	00		 npad	 6
$LL8@LoadScript:

; 100  :  	{
; 101  :  		__ATTRIBUTE_ENCHANT attrEnchant;
; 102  : 		attrEnchant.nProb = static_cast<int>(lua.GetFieldToNumber( -1, "nProb" ));

  003b0	68 00 00 00 00	 push	 OFFSET ??_C@_05JBKGBCJC@nProb@
  003b5	6a ff		 push	 -1
  003b7	8d 4d e8	 lea	 ecx, DWORD PTR _lua$[ebp]
  003ba	e8 00 00 00 00	 call	 ?GetFieldToNumber@CLuaBase@@QAENHPAD@Z ; CLuaBase::GetFieldToNumber

; 103  : 		attrEnchant.nAddDamageRate = static_cast<int>(lua.GetFieldToNumber( -1, "nDamageRate" ));

  003bf	68 00 00 00 00	 push	 OFFSET ??_C@_0M@DAIDPKFC@nDamageRate@
  003c4	dd 5d d8	 fstp	 QWORD PTR tv2258[ebp]
  003c7	6a ff		 push	 -1
  003c9	8d 4d e8	 lea	 ecx, DWORD PTR _lua$[ebp]
  003cc	e8 00 00 00 00	 call	 ?GetFieldToNumber@CLuaBase@@QAENHPAD@Z ; CLuaBase::GetFieldToNumber

; 104  : #if __VER >= 14 // __EXT_ATTRIBUTE
; 105  : 		attrEnchant.nDefenseRate = static_cast<int>(lua.GetFieldToNumber( -1, "nDefenseRate" ));

  003d1	68 00 00 00 00	 push	 OFFSET ??_C@_0N@BGJGNMMP@nDefenseRate@
  003d6	dd 5d c0	 fstp	 QWORD PTR tv2254[ebp]
  003d9	6a ff		 push	 -1
  003db	8d 4d e8	 lea	 ecx, DWORD PTR _lua$[ebp]
  003de	e8 00 00 00 00	 call	 ?GetFieldToNumber@CLuaBase@@QAENHPAD@Z ; CLuaBase::GetFieldToNumber

; 106  : 		attrEnchant.nAddAtkDmgRate = static_cast<int>(lua.GetFieldToNumber( -1, "nAddAtkDmgRate" ));

  003e3	68 00 00 00 00	 push	 OFFSET ??_C@_0P@FAOHCBHB@nAddAtkDmgRate@
  003e8	dd 5d d0	 fstp	 QWORD PTR tv2250[ebp]
  003eb	f2 0f 2c 7d d0	 cvttsd2si edi, QWORD PTR tv2250[ebp]
  003f0	6a ff		 push	 -1
  003f2	8d 4d e8	 lea	 ecx, DWORD PTR _lua$[ebp]
  003f5	e8 00 00 00 00	 call	 ?GetFieldToNumber@CLuaBase@@QAENHPAD@Z ; CLuaBase::GetFieldToNumber
; File C:\IAGOS\server\v18\Source\Source\_Common\LuaBase.h

; 43   : 	double		ToNumber( int nStackPos )					{  return lua_tonumber( m_pLuaState, nStackPos );  }

  003fa	6a 00		 push	 0
  003fc	6a fe		 push	 -2			; fffffffeH
  003fe	ff 75 ec	 push	 DWORD PTR _lua$[ebp+4]
; File C:\IAGOS\server\v18\Source\Source\WorldServer\ItemUpgrade.cpp

; 106  : 		attrEnchant.nAddAtkDmgRate = static_cast<int>(lua.GetFieldToNumber( -1, "nAddAtkDmgRate" ));

  00401	dd 5d d0	 fstp	 QWORD PTR tv2246[ebp]
  00404	f2 0f 2c 75 d0	 cvttsd2si esi, QWORD PTR tv2246[ebp]
; File C:\IAGOS\server\v18\Source\Source\_Common\LuaBase.h

; 43   : 	double		ToNumber( int nStackPos )					{  return lua_tonumber( m_pLuaState, nStackPos );  }

  00409	e8 00 00 00 00	 call	 _lua_tonumberx
  0040e	83 c4 0c	 add	 esp, 12			; 0000000cH
; File C:\Program Files\Microsoft Visual Studio\2022\Professional\VC\Tools\MSVC\14.44.35207\include\utility

; 274  :         : first(_STD forward<_Other1>(_Val1)), second(_STD forward<_Other2>(_Val2)) {

  00411	89 7d 9c	 mov	 DWORD PTR $T2[ebp+12], edi
; File C:\Program Files\Microsoft Visual Studio\2022\Professional\VC\Tools\MSVC\14.44.35207\include\xtree

; 1017 :             _Loc                = _Find_lower_bound(_Keyval);

  00414	8b 7d f0	 mov	 edi, DWORD PTR _this$1$[ebp]
  00417	83 c7 20	 add	 edi, 32			; 00000020H
; File C:\Program Files\Microsoft Visual Studio\2022\Professional\VC\Tools\MSVC\14.44.35207\include\utility

; 274  :         : first(_STD forward<_Other1>(_Val1)), second(_STD forward<_Other2>(_Val2)) {

  0041a	89 75 a0	 mov	 DWORD PTR $T2[ebp+16], esi
; File C:\Program Files\Microsoft Visual Studio\2022\Professional\VC\Tools\MSVC\14.44.35207\include\xtree

; 1017 :             _Loc                = _Find_lower_bound(_Keyval);

  0041d	8b cf		 mov	 ecx, edi
; File C:\IAGOS\server\v18\Source\Source\_Common\LuaBase.h

; 43   : 	double		ToNumber( int nStackPos )					{  return lua_tonumber( m_pLuaState, nStackPos );  }

  0041f	dd 5d e0	 fstp	 QWORD PTR tv2242[ebp]
; File C:\IAGOS\server\v18\Source\Source\WorldServer\ItemUpgrade.cpp

; 108  : 		m_mapAttributeEnchant.insert( make_pair( static_cast<int>(lua.ToNumber(-2)), attrEnchant ) );  

  00422	f2 0f 2c 45 e0	 cvttsd2si eax, QWORD PTR tv2242[ebp]
; File C:\Program Files\Microsoft Visual Studio\2022\Professional\VC\Tools\MSVC\14.44.35207\include\utility

; 274  :         : first(_STD forward<_Other1>(_Val1)), second(_STD forward<_Other2>(_Val2)) {

  00427	89 45 90	 mov	 DWORD PTR $T2[ebp], eax
  0042a	f2 0f 2c 45 d8	 cvttsd2si eax, QWORD PTR tv2258[ebp]
  0042f	89 45 94	 mov	 DWORD PTR $T2[ebp+4], eax
  00432	f2 0f 2c 45 c0	 cvttsd2si eax, QWORD PTR tv2254[ebp]
  00437	89 45 98	 mov	 DWORD PTR $T2[ebp+8], eax
; File C:\Program Files\Microsoft Visual Studio\2022\Professional\VC\Tools\MSVC\14.44.35207\include\xtree

; 1017 :             _Loc                = _Find_lower_bound(_Keyval);

  0043a	8d 45 90	 lea	 eax, DWORD PTR $T2[ebp]
  0043d	50		 push	 eax
  0043e	8d 45 a4	 lea	 eax, DWORD PTR $T3[ebp]
  00441	50		 push	 eax
  00442	e8 00 00 00 00	 call	 ??$_Find_lower_bound@H@?$_Tree@V?$_Tmap_traits@HU__ATTRIBUTE_ENCHANT@@U?$less@H@std@@V?$allocator@U?$pair@$$CBHU__ATTRIBUTE_ENCHANT@@@std@@@3@$0A@@std@@@std@@IBE?AU?$_Tree_find_result@PAU?$_Tree_node@U?$pair@$$CBHU__ATTRIBUTE_ENCHANT@@@std@@PAX@std@@@1@ABH@Z ; std::_Tree<std::_Tmap_traits<int,__ATTRIBUTE_ENCHANT,std::less<int>,std::allocator<std::pair<int const ,__ATTRIBUTE_ENCHANT> >,0> >::_Find_lower_bound<int>
  00447	8b 48 08	 mov	 ecx, DWORD PTR [eax+8]
  0044a	f3 0f 7e 00	 movq	 xmm0, QWORD PTR [eax]
  0044e	66 0f d6 45 b0	 movq	 QWORD PTR __Loc$7[ebp], xmm0

; 1624 :         return !_Bound->_Isnil && !_DEBUG_LT_PRED(_Getcomp(), _Keyval, _Traits::_Kfn(_Bound->_Myval));

  00453	80 79 0d 00	 cmp	 BYTE PTR [ecx+13], 0
  00457	75 0a		 jne	 SHORT $LN390@LoadScript
; File C:\Program Files\Microsoft Visual Studio\2022\Professional\VC\Tools\MSVC\14.44.35207\include\type_traits

; 2380 :         return _Left < _Right;

  00459	f2 0f 2c 45 e0	 cvttsd2si eax, QWORD PTR tv2242[ebp]
  0045e	3b 41 10	 cmp	 eax, DWORD PTR [ecx+16]
; File C:\Program Files\Microsoft Visual Studio\2022\Professional\VC\Tools\MSVC\14.44.35207\include\xtree

; 1624 :         return !_Bound->_Isnil && !_DEBUG_LT_PRED(_Getcomp(), _Keyval, _Traits::_Kfn(_Bound->_Myval));

  00461	7d 5e		 jge	 SHORT $LN470@LoadScript
$LN390@LoadScript:

; 1648 :         if (max_size() == _Get_scary()->_Mysize) {

  00463	81 7f 04 c7 71
	1c 07		 cmp	 DWORD PTR [edi+4], 119304647 ; 071c71c7H
  0046a	0f 84 c9 00 00
	00		 je	 $LN512@LoadScript

; 1023 :             _Inserted = _Tree_temp_node<_Alnode>(_Getal(), _Scary->_Myhead, _STD forward<_Valtys>(_Vals)...)._Release();

  00470	8b 37		 mov	 esi, DWORD PTR [edi]
; File C:\Program Files\Microsoft Visual Studio\2022\Professional\VC\Tools\MSVC\14.44.35207\include\xmemory

; 1160 :     _CONSTEXPR20 explicit _Alloc_construct_ptr(_Alloc& _Al_) : _Al(_Al_), _Ptr(nullptr) {}

  00472	89 7d c8	 mov	 DWORD PTR $T14[ebp], edi

; 136  :         return ::operator new(_Bytes);

  00475	6a 24		 push	 36			; 00000024H
; File C:\Program Files\Microsoft Visual Studio\2022\Professional\VC\Tools\MSVC\14.44.35207\include\xtree

; 808  :     explicit _Tree_temp_node_alloc(_Alnode& _Al_) : _Alloc_construct_ptr<_Alnode>(_Al_) {

  00477	c6 45 fc 04	 mov	 BYTE PTR __$EHRec$[ebp+8], 4
; File C:\Program Files\Microsoft Visual Studio\2022\Professional\VC\Tools\MSVC\14.44.35207\include\xmemory

; 1167 :         _Ptr = nullptr; // if allocate throws, prevents double-free

  0047b	c7 45 cc 00 00
	00 00		 mov	 DWORD PTR $T14[ebp+4], 0

; 136  :         return ::operator new(_Bytes);

  00482	e8 00 00 00 00	 call	 ??2@YAPAXI@Z		; operator new
; File C:\Program Files\Microsoft Visual Studio\2022\Professional\VC\Tools\MSVC\14.44.35207\include\utility

; 303  :         : first(_STD forward<_Other1>(_Right.first)), second(_STD forward<_Other2>(_Right.second)) {}

  00487	f2 0f 2c 4d e0	 cvttsd2si ecx, QWORD PTR tv2242[ebp]
; File C:\Program Files\Microsoft Visual Studio\2022\Professional\VC\Tools\MSVC\14.44.35207\include\xmemory

; 136  :         return ::operator new(_Bytes);

  0048c	83 c4 04	 add	 esp, 4
; File C:\Program Files\Microsoft Visual Studio\2022\Professional\VC\Tools\MSVC\14.44.35207\include\xtree

; 810  :     }

  0048f	c6 45 fc 00	 mov	 BYTE PTR __$EHRec$[ebp+8], 0
; File C:\Program Files\Microsoft Visual Studio\2022\Professional\VC\Tools\MSVC\14.44.35207\include\utility

; 774  :     _Val         = static_cast<_Other&&>(_New_val);

  00493	c7 45 cc 00 00
	00 00		 mov	 DWORD PTR $T14[ebp+4], 0
; File C:\Program Files\Microsoft Visual Studio\2022\Professional\VC\Tools\MSVC\14.44.35207\include\xtree

; 1042 :         return {_Scary->_Insert_node(_Loc._Location, _Inserted), true};

  0049a	50		 push	 eax
; File C:\Program Files\Microsoft Visual Studio\2022\Professional\VC\Tools\MSVC\14.44.35207\include\utility

; 303  :         : first(_STD forward<_Other1>(_Right.first)), second(_STD forward<_Other2>(_Right.second)) {}

  0049b	0f 10 45 94	 movups	 xmm0, XMMWORD PTR $T2[ebp+4]
  0049f	89 48 10	 mov	 DWORD PTR [eax+16], ecx
; File C:\Program Files\Microsoft Visual Studio\2022\Professional\VC\Tools\MSVC\14.44.35207\include\xtree

; 1042 :         return {_Scary->_Insert_node(_Loc._Location, _Inserted), true};

  004a2	8b cf		 mov	 ecx, edi
  004a4	ff 75 b4	 push	 DWORD PTR __Loc$7[ebp+4]
; File C:\Program Files\Microsoft Visual Studio\2022\Professional\VC\Tools\MSVC\14.44.35207\include\utility

; 303  :         : first(_STD forward<_Other1>(_Right.first)), second(_STD forward<_Other2>(_Right.second)) {}

  004a7	0f 11 40 14	 movups	 XMMWORD PTR [eax+20], xmm0
; File C:\Program Files\Microsoft Visual Studio\2022\Professional\VC\Tools\MSVC\14.44.35207\include\xtree

; 831  :         _Construct_in_place(this->_Ptr->_Left, _Myhead);

  004ab	89 30		 mov	 DWORD PTR [eax], esi

; 1042 :         return {_Scary->_Insert_node(_Loc._Location, _Inserted), true};

  004ad	ff 75 b0	 push	 DWORD PTR __Loc$7[ebp]

; 832  :         _Construct_in_place(this->_Ptr->_Parent, _Myhead);

  004b0	89 70 04	 mov	 DWORD PTR [eax+4], esi

; 833  :         _Construct_in_place(this->_Ptr->_Right, _Myhead);

  004b3	89 70 08	 mov	 DWORD PTR [eax+8], esi

; 834  :         this->_Ptr->_Color = _Red;

  004b6	66 c7 40 0c 00
	00		 mov	 WORD PTR [eax+12], 0

; 1042 :         return {_Scary->_Insert_node(_Loc._Location, _Inserted), true};

  004bc	e8 00 00 00 00	 call	 ?_Insert_node@?$_Tree_val@U?$_Tree_simple_types@U?$pair@$$CBHU__ATTRIBUTE_ENCHANT@@@std@@@std@@@std@@QAEPAU?$_Tree_node@U?$pair@$$CBHU__ATTRIBUTE_ENCHANT@@@std@@PAX@2@U?$_Tree_id@PAU?$_Tree_node@U?$pair@$$CBHU__ATTRIBUTE_ENCHANT@@@std@@PAX@std@@@2@QAU32@@Z ; std::_Tree_val<std::_Tree_simple_types<std::pair<int const ,__ATTRIBUTE_ENCHANT> > >::_Insert_node
$LN470@LoadScript:
; File C:\IAGOS\server\v18\Source\Source\WorldServer\ItemUpgrade.cpp

; 109  : 		lua.Pop( 1 );

  004c1	6a 01		 push	 1
  004c3	8d 4d e8	 lea	 ecx, DWORD PTR _lua$[ebp]
  004c6	e8 00 00 00 00	 call	 ?Pop@CLuaBase@@QAEXH@Z	; CLuaBase::Pop
; File C:\IAGOS\server\v18\Source\Source\_Common\LuaBase.h

; 46   : 	int			TableLoop( int nStackPos )					{  return lua_next( m_pLuaState, nStackPos );  }	

  004cb	6a fe		 push	 -2			; fffffffeH
  004cd	ff 75 ec	 push	 DWORD PTR _lua$[ebp+4]
  004d0	e8 00 00 00 00	 call	 _lua_next
  004d5	83 c4 08	 add	 esp, 8
; File C:\IAGOS\server\v18\Source\Source\WorldServer\ItemUpgrade.cpp

; 99   :  	while( lua.TableLoop( -2 ) )

  004d8	85 c0		 test	 eax, eax
  004da	0f 85 d0 fe ff
	ff		 jne	 $LL8@LoadScript
$LN9@LoadScript:

; 110  : #if __VER < 14 // __EXT_ATTRIBUTE
; 111  : 		if( ( ::GetLanguage() == LANG_FRE || ::GetLanguage() == LANG_GER ) && m_mapAttributeEnchant.size() == 10 )
; 112  : 			break;
; 113  : #endif // __EXT_ATTRIBUTE
; 114  :   	}
; 115  : 	lua.Pop(0);

  004e0	6a 00		 push	 0
  004e2	8d 4d e8	 lea	 ecx, DWORD PTR _lua$[ebp]
  004e5	e8 00 00 00 00	 call	 ?Pop@CLuaBase@@QAEXH@Z	; CLuaBase::Pop

; 116  : #endif // __EXT_ENCHANT
; 117  : #ifdef __SYS_ITEMTRANSY
; 118  : 	m_nItemTransyLowLevel = static_cast<int>( lua.GetGlobalNumber( "nItemTransyLowLevel" ) );

  004ea	68 00 00 00 00	 push	 OFFSET ??_C@_0BE@KIIJAFJA@nItemTransyLowLevel@
  004ef	8d 4d e8	 lea	 ecx, DWORD PTR _lua$[ebp]
  004f2	e8 00 00 00 00	 call	 ?GetGlobalNumber@CLuaBase@@QAENPAD@Z ; CLuaBase::GetGlobalNumber
  004f7	e8 00 00 00 00	 call	 __ftol2_sse
  004fc	8b 75 f0	 mov	 esi, DWORD PTR _this$1$[ebp]

; 119  : 	m_nItemTransyHighLevel = static_cast<int>( lua.GetGlobalNumber( "nItemTransyHighLevel" ) );

  004ff	8d 4d e8	 lea	 ecx, DWORD PTR _lua$[ebp]
  00502	68 00 00 00 00	 push	 OFFSET ??_C@_0BF@EOMJLBOM@nItemTransyHighLevel@
  00507	89 06		 mov	 DWORD PTR [esi], eax
  00509	e8 00 00 00 00	 call	 ?GetGlobalNumber@CLuaBase@@QAENPAD@Z ; CLuaBase::GetGlobalNumber
  0050e	e8 00 00 00 00	 call	 __ftol2_sse

; 120  : 	lua.Pop(0);

  00513	6a 00		 push	 0
  00515	8d 4d e8	 lea	 ecx, DWORD PTR _lua$[ebp]
  00518	89 46 04	 mov	 DWORD PTR [esi+4], eax
  0051b	e8 00 00 00 00	 call	 ?Pop@CLuaBase@@QAEXH@Z	; CLuaBase::Pop

; 122  : }

  00520	8d 4d e8	 lea	 ecx, DWORD PTR _lua$[ebp]
  00523	e8 00 00 00 00	 call	 ??1CLuaBase@@UAE@XZ	; CLuaBase::~CLuaBase
  00528	8b 4d f4	 mov	 ecx, DWORD PTR __$EHRec$[ebp]
  0052b	64 89 0d 00 00
	00 00		 mov	 DWORD PTR fs:0, ecx
  00532	59		 pop	 ecx
  00533	5f		 pop	 edi
  00534	5e		 pop	 esi
  00535	8b e5		 mov	 esp, ebp
  00537	5d		 pop	 ebp
  00538	c3		 ret	 0
$LN512@LoadScript:
; File C:\Program Files\Microsoft Visual Studio\2022\Professional\VC\Tools\MSVC\14.44.35207\include\xtree

; 1649 :             _Throw_tree_length_error();

  00539	e8 00 00 00 00	 call	 ?_Throw_tree_length_error@std@@YAXXZ ; std::_Throw_tree_length_error
$LN535@LoadScript:
  0053e	cc		 int	 3
_TEXT	ENDS
;	COMDAT text$x
text$x	SEGMENT
__unwindfunclet$?LoadScript@CItemUpgrade@@QAEXXZ$0:
  00000	8d 4d e8	 lea	 ecx, DWORD PTR _lua$[ebp]
  00003	e9 00 00 00 00	 jmp	 ??1CLuaBase@@UAE@XZ	; CLuaBase::~CLuaBase
__unwindfunclet$?LoadScript@CItemUpgrade@@QAEXXZ$3:
  00008	8d 4d c8	 lea	 ecx, DWORD PTR $T13[ebp]
  0000b	e9 00 00 00 00	 jmp	 ??1?$_Alloc_construct_ptr@V?$allocator@U?$_Tree_node@U?$pair@$$CBHH@std@@PAX@std@@@std@@@std@@QAE@XZ ; std::_Alloc_construct_ptr<std::allocator<std::_Tree_node<std::pair<int const ,int>,void *> > >::~_Alloc_construct_ptr<std::allocator<std::_Tree_node<std::pair<int const ,int>,void *> > >
__unwindfunclet$?LoadScript@CItemUpgrade@@QAEXXZ$8:
  00010	8d 4d e0	 lea	 ecx, DWORD PTR $T16[ebp]
  00013	e9 00 00 00 00	 jmp	 ??1?$_Alloc_construct_ptr@V?$allocator@U?$_Tree_node@U?$pair@$$CBHH@std@@PAX@std@@@std@@@std@@QAE@XZ ; std::_Alloc_construct_ptr<std::allocator<std::_Tree_node<std::pair<int const ,int>,void *> > >::~_Alloc_construct_ptr<std::allocator<std::_Tree_node<std::pair<int const ,int>,void *> > >
__unwindfunclet$?LoadScript@CItemUpgrade@@QAEXXZ$13:
  00018	8d 4d e0	 lea	 ecx, DWORD PTR $T17[ebp]
  0001b	e9 00 00 00 00	 jmp	 ??1?$_Alloc_construct_ptr@V?$allocator@U?$_Tree_node@U?$pair@$$CBHH@std@@PAX@std@@@std@@@std@@QAE@XZ ; std::_Alloc_construct_ptr<std::allocator<std::_Tree_node<std::pair<int const ,int>,void *> > >::~_Alloc_construct_ptr<std::allocator<std::_Tree_node<std::pair<int const ,int>,void *> > >
__unwindfunclet$?LoadScript@CItemUpgrade@@QAEXXZ$18:
  00020	8d 4d c8	 lea	 ecx, DWORD PTR $T14[ebp]
  00023	e9 00 00 00 00	 jmp	 ??1?$_Alloc_construct_ptr@V?$allocator@U?$_Tree_node@U?$pair@$$CBHU__ATTRIBUTE_ENCHANT@@@std@@PAX@std@@@std@@@std@@QAE@XZ ; std::_Alloc_construct_ptr<std::allocator<std::_Tree_node<std::pair<int const ,__ATTRIBUTE_ENCHANT>,void *> > >::~_Alloc_construct_ptr<std::allocator<std::_Tree_node<std::pair<int const ,__ATTRIBUTE_ENCHANT>,void *> > >
  00028	cc		 int	 3
  00029	cc		 int	 3
  0002a	cc		 int	 3
  0002b	cc		 int	 3
  0002c	cc		 int	 3
__ehhandler$?LoadScript@CItemUpgrade@@QAEXXZ:
  0002d	90		 npad	 1
  0002e	90		 npad	 1
  0002f	8b 54 24 08	 mov	 edx, DWORD PTR [esp+8]
  00033	8d 42 0c	 lea	 eax, DWORD PTR [edx+12]
  00036	8b 4a 90	 mov	 ecx, DWORD PTR [edx-112]
  00039	33 c8		 xor	 ecx, eax
  0003b	e8 00 00 00 00	 call	 @__security_check_cookie@4
  00040	b8 00 00 00 00	 mov	 eax, OFFSET __ehfuncinfo$?LoadScript@CItemUpgrade@@QAEXXZ
  00045	e9 00 00 00 00	 jmp	 ___CxxFrameHandler3
text$x	ENDS
?LoadScript@CItemUpgrade@@QAEXXZ ENDP			; CItemUpgrade::LoadScript
; Function compile flags: /Ogtp
; File C:\IAGOS\server\v18\Source\Source\WorldServer\ItemUpgrade.cpp
;	COMDAT ?GetInstance@CItemUpgrade@@SAPAV1@XZ
_TEXT	SEGMENT
__$EHRec$ = -12						; size = 12
?GetInstance@CItemUpgrade@@SAPAV1@XZ PROC		; CItemUpgrade::GetInstance, COMDAT

; 51   : {	

  00000	55		 push	 ebp
  00001	8b ec		 mov	 ebp, esp
  00003	6a ff		 push	 -1
  00005	68 00 00 00 00	 push	 __ehhandler$?GetInstance@CItemUpgrade@@SAPAV1@XZ
  0000a	64 a1 00 00 00
	00		 mov	 eax, DWORD PTR fs:0
  00010	50		 push	 eax
  00011	a1 00 00 00 00	 mov	 eax, DWORD PTR ___security_cookie
  00016	33 c5		 xor	 eax, ebp
  00018	50		 push	 eax
  00019	8d 45 f4	 lea	 eax, DWORD PTR __$EHRec$[ebp]
  0001c	64 a3 00 00 00
	00		 mov	 DWORD PTR fs:0, eax

; 52   : 	static CItemUpgrade sItemUpgrade;

  00022	64 a1 00 00 00
	00		 mov	 eax, DWORD PTR fs:__tls_array
  00028	8b 0d 00 00 00
	00		 mov	 ecx, DWORD PTR __tls_index
  0002e	8b 0c 88	 mov	 ecx, DWORD PTR [eax+ecx*4]
  00031	a1 00 00 00 00	 mov	 eax, DWORD PTR ?$TSS0@?1??GetInstance@CItemUpgrade@@SAPAV2@XZ@4HA
  00036	3b 81 00 00 00
	00		 cmp	 eax, DWORD PTR __Init_thread_epoch[ecx]
  0003c	7f 14		 jg	 SHORT $LN9@GetInstanc
$LN5@GetInstanc:

; 53   : 	return &sItemUpgrade;
; 54   : }

  0003e	b8 00 00 00 00	 mov	 eax, OFFSET ?sItemUpgrade@?1??GetInstance@CItemUpgrade@@SAPAV2@XZ@4V2@A
  00043	8b 4d f4	 mov	 ecx, DWORD PTR __$EHRec$[ebp]
  00046	64 89 0d 00 00
	00 00		 mov	 DWORD PTR fs:0, ecx
  0004d	59		 pop	 ecx
  0004e	8b e5		 mov	 esp, ebp
  00050	5d		 pop	 ebp
  00051	c3		 ret	 0
$LN9@GetInstanc:

; 52   : 	static CItemUpgrade sItemUpgrade;

  00052	68 00 00 00 00	 push	 OFFSET ?$TSS0@?1??GetInstance@CItemUpgrade@@SAPAV2@XZ@4HA
  00057	e8 00 00 00 00	 call	 __Init_thread_header
  0005c	83 c4 04	 add	 esp, 4
  0005f	83 3d 00 00 00
	00 ff		 cmp	 DWORD PTR ?$TSS0@?1??GetInstance@CItemUpgrade@@SAPAV2@XZ@4HA, -1
  00066	75 d6		 jne	 SHORT $LN5@GetInstanc
  00068	b9 00 00 00 00	 mov	 ecx, OFFSET ?sItemUpgrade@?1??GetInstance@CItemUpgrade@@SAPAV2@XZ@4V2@A
  0006d	c7 45 fc 00 00
	00 00		 mov	 DWORD PTR __$EHRec$[ebp+8], 0
  00074	e8 00 00 00 00	 call	 ??0CItemUpgrade@@QAE@XZ	; CItemUpgrade::CItemUpgrade
  00079	68 00 00 00 00	 push	 OFFSET ??__FsItemUpgrade@?1??GetInstance@CItemUpgrade@@SAPAV1@XZ@YAXXZ ; `CItemUpgrade::GetInstance'::`2'::`dynamic atexit destructor for 'sItemUpgrade''
  0007e	e8 00 00 00 00	 call	 _atexit
  00083	68 00 00 00 00	 push	 OFFSET ?$TSS0@?1??GetInstance@CItemUpgrade@@SAPAV2@XZ@4HA
  00088	e8 00 00 00 00	 call	 __Init_thread_footer
  0008d	83 c4 08	 add	 esp, 8
  00090	eb ac		 jmp	 SHORT $LN5@GetInstanc
_TEXT	ENDS
;	COMDAT text$x
text$x	SEGMENT
__unwindfunclet$?GetInstance@CItemUpgrade@@SAPAV1@XZ$0:
  00000	68 00 00 00 00	 push	 OFFSET ?$TSS0@?1??GetInstance@CItemUpgrade@@SAPAV2@XZ@4HA
  00005	e8 00 00 00 00	 call	 __Init_thread_abort
  0000a	59		 pop	 ecx
  0000b	c3		 ret	 0
  0000c	cc		 int	 3
  0000d	cc		 int	 3
  0000e	cc		 int	 3
  0000f	cc		 int	 3
  00010	cc		 int	 3
__ehhandler$?GetInstance@CItemUpgrade@@SAPAV1@XZ:
  00011	90		 npad	 1
  00012	90		 npad	 1
  00013	8b 54 24 08	 mov	 edx, DWORD PTR [esp+8]
  00017	8d 42 0c	 lea	 eax, DWORD PTR [edx+12]
  0001a	8b 4a fc	 mov	 ecx, DWORD PTR [edx-4]
  0001d	33 c8		 xor	 ecx, eax
  0001f	e8 00 00 00 00	 call	 @__security_check_cookie@4
  00024	b8 00 00 00 00	 mov	 eax, OFFSET __ehfuncinfo$?GetInstance@CItemUpgrade@@SAPAV1@XZ
  00029	e9 00 00 00 00	 jmp	 ___CxxFrameHandler3
text$x	ENDS
?GetInstance@CItemUpgrade@@SAPAV1@XZ ENDP		; CItemUpgrade::GetInstance
; Function compile flags: /Ogtp
; File C:\IAGOS\server\v18\Source\Source\WorldServer\ItemUpgrade.cpp
; File C:\Program Files\Microsoft Visual Studio\2022\Professional\VC\Tools\MSVC\14.44.35207\include\xtree
; File C:\IAGOS\server\v18\Source\Source\WorldServer\ItemUpgrade.cpp
; File C:\Program Files\Microsoft Visual Studio\2022\Professional\VC\Tools\MSVC\14.44.35207\include\xtree
; File C:\Program Files\Microsoft Visual Studio\2022\Professional\VC\Tools\MSVC\14.44.35207\include\utility
; File C:\Program Files\Microsoft Visual Studio\2022\Professional\VC\Tools\MSVC\14.44.35207\include\xmemory
; File C:\Program Files\Microsoft Visual Studio\2022\Professional\VC\Tools\MSVC\14.44.35207\include\xtree
; File C:\IAGOS\server\v18\Source\Source\WorldServer\ItemUpgrade.cpp
; File C:\Program Files\Microsoft Visual Studio\2022\Professional\VC\Tools\MSVC\14.44.35207\include\xtree
; File C:\IAGOS\server\v18\Source\Source\WorldServer\ItemUpgrade.cpp
;	COMDAT ??1CItemUpgrade@@QAE@XZ
_TEXT	SEGMENT
__Head$1$ = -4						; size = 4
??1CItemUpgrade@@QAE@XZ PROC				; CItemUpgrade::~CItemUpgrade, COMDAT
; _this$ = ecx

; 38   : {

  00000	55		 push	 ebp
  00001	8b ec		 mov	 ebp, esp
  00003	51		 push	 ecx
  00004	53		 push	 ebx
  00005	8b d9		 mov	 ebx, ecx
  00007	56		 push	 esi
  00008	57		 push	 edi

; 39   : 	m_mapSuitProb.clear();

  00009	8d 4b 08	 lea	 ecx, DWORD PTR [ebx+8]
  0000c	e8 00 00 00 00	 call	 ?clear@?$_Tree@V?$_Tmap_traits@HHU?$less@H@std@@V?$allocator@U?$pair@$$CBHH@std@@@2@$0A@@std@@@std@@QAEXXZ ; std::_Tree<std::_Tmap_traits<int,int,std::less<int>,std::allocator<std::pair<int const ,int> >,0> >::clear

; 40   : 	m_mapWeaponProb.clear();

  00011	8d 4b 10	 lea	 ecx, DWORD PTR [ebx+16]
  00014	e8 00 00 00 00	 call	 ?clear@?$_Tree@V?$_Tmap_traits@HHU?$less@H@std@@V?$allocator@U?$pair@$$CBHH@std@@@2@$0A@@std@@@std@@QAEXXZ ; std::_Tree<std::_Tmap_traits<int,int,std::less<int>,std::allocator<std::pair<int const ,int> >,0> >::clear

; 41   : #if __VER >= 13 // __EXT_ENCHANT
; 42   : 	m_mapGeneralEnchant.clear();

  00019	8d 4b 18	 lea	 ecx, DWORD PTR [ebx+24]
  0001c	e8 00 00 00 00	 call	 ?clear@?$_Tree@V?$_Tmap_traits@HHU?$less@H@std@@V?$allocator@U?$pair@$$CBHH@std@@@2@$0A@@std@@@std@@QAEXXZ ; std::_Tree<std::_Tmap_traits<int,int,std::less<int>,std::allocator<std::pair<int const ,int> >,0> >::clear
; File C:\Program Files\Microsoft Visual Studio\2022\Professional\VC\Tools\MSVC\14.44.35207\include\xtree

; 1373 :         auto _Head = _Scary->_Myhead;

  00021	8b 43 20	 mov	 eax, DWORD PTR [ebx+32]
; File C:\IAGOS\server\v18\Source\Source\WorldServer\ItemUpgrade.cpp

; 43   : 	m_mapAttributeEnchant.clear();

  00024	8d 7b 20	 lea	 edi, DWORD PTR [ebx+32]
; File C:\Program Files\Microsoft Visual Studio\2022\Professional\VC\Tools\MSVC\14.44.35207\include\xtree

; 1373 :         auto _Head = _Scary->_Myhead;

  00027	89 45 fc	 mov	 DWORD PTR __Head$1$[ebp], eax

; 1374 :         _Scary->_Erase_tree(_Getal(), _Head->_Parent);

  0002a	8b 70 04	 mov	 esi, DWORD PTR [eax+4]

; 768  :         while (!_Rootnode->_Isnil) { // free subtrees, then node

  0002d	80 7e 0d 00	 cmp	 BYTE PTR [esi+13], 0
  00031	75 23		 jne	 SHORT $LN87@CItemUpgra
$LL8@CItemUpgra:

; 769  :             _Erase_tree(_Al, _Rootnode->_Right);

  00033	ff 76 08	 push	 DWORD PTR [esi+8]
  00036	8b cf		 mov	 ecx, edi
  00038	57		 push	 edi
  00039	e8 00 00 00 00	 call	 ??$_Erase_tree@V?$allocator@U?$_Tree_node@U?$pair@$$CBHU__ATTRIBUTE_ENCHANT@@@std@@PAX@std@@@std@@@?$_Tree_val@U?$_Tree_simple_types@U?$pair@$$CBHU__ATTRIBUTE_ENCHANT@@@std@@@std@@@std@@QAEXAAV?$allocator@U?$_Tree_node@U?$pair@$$CBHU__ATTRIBUTE_ENCHANT@@@std@@PAX@std@@@1@PAU?$_Tree_node@U?$pair@$$CBHU__ATTRIBUTE_ENCHANT@@@std@@PAX@1@@Z ; std::_Tree_val<std::_Tree_simple_types<std::pair<int const ,__ATTRIBUTE_ENCHANT> > >::_Erase_tree<std::allocator<std::_Tree_node<std::pair<int const ,__ATTRIBUTE_ENCHANT>,void *> > >
; File C:\Program Files\Microsoft Visual Studio\2022\Professional\VC\Tools\MSVC\14.44.35207\include\utility

; 773  :     _Ty _Old_val = static_cast<_Ty&&>(_Val);

  0003e	8b c6		 mov	 eax, esi

; 774  :     _Val         = static_cast<_Other&&>(_New_val);

  00040	8b 36		 mov	 esi, DWORD PTR [esi]
; File C:\Program Files\Microsoft Visual Studio\2022\Professional\VC\Tools\MSVC\14.44.35207\include\xmemory

; 289  :         ::operator delete(_Ptr, _Bytes);

  00042	6a 24		 push	 36			; 00000024H
  00044	50		 push	 eax
  00045	e8 00 00 00 00	 call	 ??3@YAXPAXI@Z		; operator delete
  0004a	83 c4 08	 add	 esp, 8
; File C:\Program Files\Microsoft Visual Studio\2022\Professional\VC\Tools\MSVC\14.44.35207\include\xtree

; 768  :         while (!_Rootnode->_Isnil) { // free subtrees, then node

  0004d	80 7e 0d 00	 cmp	 BYTE PTR [esi+13], 0
  00051	74 e0		 je	 SHORT $LL8@CItemUpgra
  00053	8b 45 fc	 mov	 eax, DWORD PTR __Head$1$[ebp]
$LN87@CItemUpgra:

; 1375 :         _Head->_Parent  = _Head;

  00056	89 40 04	 mov	 DWORD PTR [eax+4], eax
; File C:\IAGOS\server\v18\Source\Source\WorldServer\ItemUpgrade.cpp

; 46   : 	m_mapBarunaEnchantUpgrade.clear();

  00059	8d 4b 40	 lea	 ecx, DWORD PTR [ebx+64]
; File C:\Program Files\Microsoft Visual Studio\2022\Professional\VC\Tools\MSVC\14.44.35207\include\xtree

; 1376 :         _Head->_Left    = _Head;

  0005c	89 00		 mov	 DWORD PTR [eax], eax

; 1377 :         _Head->_Right   = _Head;

  0005e	89 40 08	 mov	 DWORD PTR [eax+8], eax

; 1378 :         _Scary->_Mysize = 0;

  00061	c7 47 04 00 00
	00 00		 mov	 DWORD PTR [edi+4], 0
; File C:\IAGOS\server\v18\Source\Source\WorldServer\ItemUpgrade.cpp

; 46   : 	m_mapBarunaEnchantUpgrade.clear();

  00068	e8 00 00 00 00	 call	 ?clear@?$_Tree@V?$_Tmap_traits@HHU?$less@H@std@@V?$allocator@U?$pair@$$CBHH@std@@@2@$0A@@std@@@std@@QAEXXZ ; std::_Tree<std::_Tmap_traits<int,int,std::less<int>,std::allocator<std::pair<int const ,int> >,0> >::clear

; 47   : #endif // __NEW_ITEM_VARUNA
; 48   : }

  0006d	8d 4b 48	 lea	 ecx, DWORD PTR [ebx+72]
  00070	e8 00 00 00 00	 call	 ??1?$_Tree@V?$_Tmap_traits@HHU?$less@H@std@@V?$allocator@U?$pair@$$CBHH@std@@@2@$0A@@std@@@std@@QAE@XZ ; std::_Tree<std::_Tmap_traits<int,int,std::less<int>,std::allocator<std::pair<int const ,int> >,0> >::~_Tree<std::_Tmap_traits<int,int,std::less<int>,std::allocator<std::pair<int const ,int> >,0> >
  00075	8d 4b 40	 lea	 ecx, DWORD PTR [ebx+64]
  00078	e8 00 00 00 00	 call	 ??1?$_Tree@V?$_Tmap_traits@HHU?$less@H@std@@V?$allocator@U?$pair@$$CBHH@std@@@2@$0A@@std@@@std@@QAE@XZ ; std::_Tree<std::_Tmap_traits<int,int,std::less<int>,std::allocator<std::pair<int const ,int> >,0> >::~_Tree<std::_Tmap_traits<int,int,std::less<int>,std::allocator<std::pair<int const ,int> >,0> >
  0007d	8d 4b 38	 lea	 ecx, DWORD PTR [ebx+56]
  00080	e8 00 00 00 00	 call	 ??1?$_Tree@V?$_Tmap_traits@HHU?$less@H@std@@V?$allocator@U?$pair@$$CBHH@std@@@2@$0A@@std@@@std@@QAE@XZ ; std::_Tree<std::_Tmap_traits<int,int,std::less<int>,std::allocator<std::pair<int const ,int> >,0> >::~_Tree<std::_Tmap_traits<int,int,std::less<int>,std::allocator<std::pair<int const ,int> >,0> >
  00085	8d 4b 30	 lea	 ecx, DWORD PTR [ebx+48]
  00088	e8 00 00 00 00	 call	 ??1?$_Tree@V?$_Tmap_traits@HHU?$less@H@std@@V?$allocator@U?$pair@$$CBHH@std@@@2@$0A@@std@@@std@@QAE@XZ ; std::_Tree<std::_Tmap_traits<int,int,std::less<int>,std::allocator<std::pair<int const ,int> >,0> >::~_Tree<std::_Tmap_traits<int,int,std::less<int>,std::allocator<std::pair<int const ,int> >,0> >
  0008d	8d 4b 28	 lea	 ecx, DWORD PTR [ebx+40]
  00090	e8 00 00 00 00	 call	 ??1?$_Tree@V?$_Tmap_traits@HU__CHAOS_GEM@@U?$less@H@std@@V?$allocator@U?$pair@$$CBHU__CHAOS_GEM@@@std@@@3@$0A@@std@@@std@@QAE@XZ ; std::_Tree<std::_Tmap_traits<int,__CHAOS_GEM,std::less<int>,std::allocator<std::pair<int const ,__CHAOS_GEM> >,0> >::~_Tree<std::_Tmap_traits<int,__CHAOS_GEM,std::less<int>,std::allocator<std::pair<int const ,__CHAOS_GEM> >,0> >
  00095	8b cf		 mov	 ecx, edi
  00097	e8 00 00 00 00	 call	 ??1?$_Tree@V?$_Tmap_traits@HU__ATTRIBUTE_ENCHANT@@U?$less@H@std@@V?$allocator@U?$pair@$$CBHU__ATTRIBUTE_ENCHANT@@@std@@@3@$0A@@std@@@std@@QAE@XZ ; std::_Tree<std::_Tmap_traits<int,__ATTRIBUTE_ENCHANT,std::less<int>,std::allocator<std::pair<int const ,__ATTRIBUTE_ENCHANT> >,0> >::~_Tree<std::_Tmap_traits<int,__ATTRIBUTE_ENCHANT,std::less<int>,std::allocator<std::pair<int const ,__ATTRIBUTE_ENCHANT> >,0> >
  0009c	8d 4b 18	 lea	 ecx, DWORD PTR [ebx+24]
  0009f	e8 00 00 00 00	 call	 ??1?$_Tree@V?$_Tmap_traits@HHU?$less@H@std@@V?$allocator@U?$pair@$$CBHH@std@@@2@$0A@@std@@@std@@QAE@XZ ; std::_Tree<std::_Tmap_traits<int,int,std::less<int>,std::allocator<std::pair<int const ,int> >,0> >::~_Tree<std::_Tmap_traits<int,int,std::less<int>,std::allocator<std::pair<int const ,int> >,0> >
  000a4	8d 4b 10	 lea	 ecx, DWORD PTR [ebx+16]
  000a7	e8 00 00 00 00	 call	 ??1?$_Tree@V?$_Tmap_traits@HHU?$less@H@std@@V?$allocator@U?$pair@$$CBHH@std@@@2@$0A@@std@@@std@@QAE@XZ ; std::_Tree<std::_Tmap_traits<int,int,std::less<int>,std::allocator<std::pair<int const ,int> >,0> >::~_Tree<std::_Tmap_traits<int,int,std::less<int>,std::allocator<std::pair<int const ,int> >,0> >
  000ac	8d 4b 08	 lea	 ecx, DWORD PTR [ebx+8]
  000af	e8 00 00 00 00	 call	 ??1?$_Tree@V?$_Tmap_traits@HHU?$less@H@std@@V?$allocator@U?$pair@$$CBHH@std@@@2@$0A@@std@@@std@@QAE@XZ ; std::_Tree<std::_Tmap_traits<int,int,std::less<int>,std::allocator<std::pair<int const ,int> >,0> >::~_Tree<std::_Tmap_traits<int,int,std::less<int>,std::allocator<std::pair<int const ,int> >,0> >
  000b4	5f		 pop	 edi
  000b5	5e		 pop	 esi
  000b6	5b		 pop	 ebx
  000b7	8b e5		 mov	 esp, ebp
  000b9	5d		 pop	 ebp
  000ba	c3		 ret	 0
??1CItemUpgrade@@QAE@XZ ENDP				; CItemUpgrade::~CItemUpgrade
_TEXT	ENDS
; Function compile flags: /Ogtp
; File C:\IAGOS\server\v18\Source\Source\WorldServer\ItemUpgrade.cpp
; File C:\Program Files\Microsoft Visual Studio\2022\Professional\VC\Tools\MSVC\14.44.35207\include\xmemory
; File C:\IAGOS\server\v18\Source\Source\WorldServer\ItemUpgrade.cpp
; File C:\Program Files\Microsoft Visual Studio\2022\Professional\VC\Tools\MSVC\14.44.35207\include\xtree
; File C:\Program Files\Microsoft Visual Studio\2022\Professional\VC\Tools\MSVC\14.44.35207\include\xmemory
; File C:\Program Files\Microsoft Visual Studio\2022\Professional\VC\Tools\MSVC\14.44.35207\include\xtree
; File C:\IAGOS\server\v18\Source\Source\WorldServer\ItemUpgrade.cpp
; File C:\Program Files\Microsoft Visual Studio\2022\Professional\VC\Tools\MSVC\14.44.35207\include\xmemory
; File C:\IAGOS\server\v18\Source\Source\WorldServer\ItemUpgrade.cpp
; File C:\Program Files\Microsoft Visual Studio\2022\Professional\VC\Tools\MSVC\14.44.35207\include\xtree
; File C:\Program Files\Microsoft Visual Studio\2022\Professional\VC\Tools\MSVC\14.44.35207\include\xmemory
; File C:\Program Files\Microsoft Visual Studio\2022\Professional\VC\Tools\MSVC\14.44.35207\include\xtree
; File C:\IAGOS\server\v18\Source\Source\WorldServer\ItemUpgrade.cpp
; File C:\Program Files\Microsoft Visual Studio\2022\Professional\VC\Tools\MSVC\14.44.35207\include\xmemory
; File C:\IAGOS\server\v18\Source\Source\WorldServer\ItemUpgrade.cpp
; File C:\Program Files\Microsoft Visual Studio\2022\Professional\VC\Tools\MSVC\14.44.35207\include\xtree
; File C:\Program Files\Microsoft Visual Studio\2022\Professional\VC\Tools\MSVC\14.44.35207\include\xmemory
; File C:\Program Files\Microsoft Visual Studio\2022\Professional\VC\Tools\MSVC\14.44.35207\include\xtree
; File C:\IAGOS\server\v18\Source\Source\WorldServer\ItemUpgrade.cpp
; File C:\Program Files\Microsoft Visual Studio\2022\Professional\VC\Tools\MSVC\14.44.35207\include\xmemory
; File C:\IAGOS\server\v18\Source\Source\WorldServer\ItemUpgrade.cpp
; File C:\Program Files\Microsoft Visual Studio\2022\Professional\VC\Tools\MSVC\14.44.35207\include\xtree
; File C:\Program Files\Microsoft Visual Studio\2022\Professional\VC\Tools\MSVC\14.44.35207\include\xmemory
; File C:\Program Files\Microsoft Visual Studio\2022\Professional\VC\Tools\MSVC\14.44.35207\include\xtree
; File C:\IAGOS\server\v18\Source\Source\WorldServer\ItemUpgrade.cpp
; File C:\Program Files\Microsoft Visual Studio\2022\Professional\VC\Tools\MSVC\14.44.35207\include\xmemory
; File C:\IAGOS\server\v18\Source\Source\WorldServer\ItemUpgrade.cpp
; File C:\Program Files\Microsoft Visual Studio\2022\Professional\VC\Tools\MSVC\14.44.35207\include\xtree
; File C:\Program Files\Microsoft Visual Studio\2022\Professional\VC\Tools\MSVC\14.44.35207\include\xmemory
; File C:\Program Files\Microsoft Visual Studio\2022\Professional\VC\Tools\MSVC\14.44.35207\include\xtree
; File C:\IAGOS\server\v18\Source\Source\WorldServer\ItemUpgrade.cpp
; File C:\Program Files\Microsoft Visual Studio\2022\Professional\VC\Tools\MSVC\14.44.35207\include\xmemory
; File C:\IAGOS\server\v18\Source\Source\WorldServer\ItemUpgrade.cpp
; File C:\Program Files\Microsoft Visual Studio\2022\Professional\VC\Tools\MSVC\14.44.35207\include\xtree
; File C:\Program Files\Microsoft Visual Studio\2022\Professional\VC\Tools\MSVC\14.44.35207\include\xmemory
; File C:\Program Files\Microsoft Visual Studio\2022\Professional\VC\Tools\MSVC\14.44.35207\include\xtree
; File C:\IAGOS\server\v18\Source\Source\WorldServer\ItemUpgrade.cpp
; File C:\Program Files\Microsoft Visual Studio\2022\Professional\VC\Tools\MSVC\14.44.35207\include\xmemory
; File C:\IAGOS\server\v18\Source\Source\WorldServer\ItemUpgrade.cpp
; File C:\Program Files\Microsoft Visual Studio\2022\Professional\VC\Tools\MSVC\14.44.35207\include\xtree
; File C:\Program Files\Microsoft Visual Studio\2022\Professional\VC\Tools\MSVC\14.44.35207\include\xmemory
; File C:\Program Files\Microsoft Visual Studio\2022\Professional\VC\Tools\MSVC\14.44.35207\include\xtree
; File C:\IAGOS\server\v18\Source\Source\WorldServer\ItemUpgrade.cpp
; File C:\Program Files\Microsoft Visual Studio\2022\Professional\VC\Tools\MSVC\14.44.35207\include\xmemory
; File C:\IAGOS\server\v18\Source\Source\WorldServer\ItemUpgrade.cpp
; File C:\Program Files\Microsoft Visual Studio\2022\Professional\VC\Tools\MSVC\14.44.35207\include\xtree
; File C:\Program Files\Microsoft Visual Studio\2022\Professional\VC\Tools\MSVC\14.44.35207\include\xmemory
; File C:\Program Files\Microsoft Visual Studio\2022\Professional\VC\Tools\MSVC\14.44.35207\include\xtree
; File C:\IAGOS\server\v18\Source\Source\WorldServer\ItemUpgrade.cpp
; File C:\Program Files\Microsoft Visual Studio\2022\Professional\VC\Tools\MSVC\14.44.35207\include\xmemory
; File C:\IAGOS\server\v18\Source\Source\WorldServer\ItemUpgrade.cpp
; File C:\Program Files\Microsoft Visual Studio\2022\Professional\VC\Tools\MSVC\14.44.35207\include\xtree
; File C:\Program Files\Microsoft Visual Studio\2022\Professional\VC\Tools\MSVC\14.44.35207\include\xmemory
; File C:\Program Files\Microsoft Visual Studio\2022\Professional\VC\Tools\MSVC\14.44.35207\include\xtree
; File C:\IAGOS\server\v18\Source\Source\WorldServer\ItemUpgrade.cpp
;	COMDAT ??0CItemUpgrade@@QAE@XZ
_TEXT	SEGMENT
_this$ = -20						; size = 4
_this$ = -20						; size = 4
_this$ = -20						; size = 4
_this$ = -20						; size = 4
_this$ = -20						; size = 4
_this$ = -20						; size = 4
_this$ = -20						; size = 4
_this$ = -20						; size = 4
_this$ = -20						; size = 4
_this$ = -16						; size = 4
__$EHRec$ = -12						; size = 12
??0CItemUpgrade@@QAE@XZ PROC				; CItemUpgrade::CItemUpgrade, COMDAT
; _this$ = ecx

; 30   : {

  00000	55		 push	 ebp
  00001	8b ec		 mov	 ebp, esp
  00003	6a ff		 push	 -1
  00005	68 00 00 00 00	 push	 __ehhandler$??0CItemUpgrade@@QAE@XZ
  0000a	64 a1 00 00 00
	00		 mov	 eax, DWORD PTR fs:0
  00010	50		 push	 eax
  00011	83 ec 08	 sub	 esp, 8
  00014	56		 push	 esi
  00015	57		 push	 edi
  00016	a1 00 00 00 00	 mov	 eax, DWORD PTR ___security_cookie
  0001b	33 c5		 xor	 eax, ebp
  0001d	50		 push	 eax
  0001e	8d 45 f4	 lea	 eax, DWORD PTR __$EHRec$[ebp]
  00021	64 a3 00 00 00
	00		 mov	 DWORD PTR fs:0, eax
  00027	8b f9		 mov	 edi, ecx
  00029	89 7d f0	 mov	 DWORD PTR _this$[ebp], edi
  0002c	8d 77 08	 lea	 esi, DWORD PTR [edi+8]
  0002f	c7 07 40 42 0f
	00		 mov	 DWORD PTR [edi], 1000000 ; 000f4240H
  00035	c7 47 04 80 84
	1e 00		 mov	 DWORD PTR [edi+4], 2000000 ; 001e8480H
; File C:\Program Files\Microsoft Visual Studio\2022\Professional\VC\Tools\MSVC\14.44.35207\include\xmemory

; 136  :         return ::operator new(_Bytes);

  0003c	6a 18		 push	 24			; 00000018H
; File C:\IAGOS\server\v18\Source\Source\WorldServer\ItemUpgrade.cpp

; 30   : {

  0003e	89 75 ec	 mov	 DWORD PTR _this$[ebp], esi
; File C:\Program Files\Microsoft Visual Studio\2022\Professional\VC\Tools\MSVC\14.44.35207\include\xtree

; 450  :     _Tree_val() noexcept : _Myhead(), _Mysize(0) {}

  00041	c7 06 00 00 00
	00		 mov	 DWORD PTR [esi], 0
  00047	c7 46 04 00 00
	00 00		 mov	 DWORD PTR [esi+4], 0
; File C:\Program Files\Microsoft Visual Studio\2022\Professional\VC\Tools\MSVC\14.44.35207\include\xmemory

; 136  :         return ::operator new(_Bytes);

  0004e	e8 00 00 00 00	 call	 ??2@YAPAXI@Z		; operator new
; File C:\Program Files\Microsoft Visual Studio\2022\Professional\VC\Tools\MSVC\14.44.35207\include\xtree

; 346  :         _Construct_in_place(_Pnode->_Left, _Pnode);

  00053	89 00		 mov	 DWORD PTR [eax], eax

; 347  :         _Construct_in_place(_Pnode->_Parent, _Pnode);

  00055	89 40 04	 mov	 DWORD PTR [eax+4], eax

; 348  :         _Construct_in_place(_Pnode->_Right, _Pnode);

  00058	89 40 08	 mov	 DWORD PTR [eax+8], eax

; 349  :         _Pnode->_Color = _Black;

  0005b	66 c7 40 0c 01
	01		 mov	 WORD PTR [eax+12], 257	; 00000101H

; 1957 :         _Scary->_Myhead = _Node::_Buyheadnode(_Getal());

  00061	89 06		 mov	 DWORD PTR [esi], eax
; File C:\IAGOS\server\v18\Source\Source\WorldServer\ItemUpgrade.cpp

; 30   : {

  00063	8d 77 10	 lea	 esi, DWORD PTR [edi+16]
  00066	c7 45 fc 00 00
	00 00		 mov	 DWORD PTR __$EHRec$[ebp+8], 0
; File C:\Program Files\Microsoft Visual Studio\2022\Professional\VC\Tools\MSVC\14.44.35207\include\xmemory

; 136  :         return ::operator new(_Bytes);

  0006d	6a 18		 push	 24			; 00000018H
; File C:\IAGOS\server\v18\Source\Source\WorldServer\ItemUpgrade.cpp

; 30   : {

  0006f	89 75 ec	 mov	 DWORD PTR _this$[ebp], esi
; File C:\Program Files\Microsoft Visual Studio\2022\Professional\VC\Tools\MSVC\14.44.35207\include\xtree

; 450  :     _Tree_val() noexcept : _Myhead(), _Mysize(0) {}

  00072	c7 06 00 00 00
	00		 mov	 DWORD PTR [esi], 0
  00078	c7 46 04 00 00
	00 00		 mov	 DWORD PTR [esi+4], 0
; File C:\Program Files\Microsoft Visual Studio\2022\Professional\VC\Tools\MSVC\14.44.35207\include\xmemory

; 136  :         return ::operator new(_Bytes);

  0007f	e8 00 00 00 00	 call	 ??2@YAPAXI@Z		; operator new
; File C:\Program Files\Microsoft Visual Studio\2022\Professional\VC\Tools\MSVC\14.44.35207\include\xtree

; 346  :         _Construct_in_place(_Pnode->_Left, _Pnode);

  00084	89 00		 mov	 DWORD PTR [eax], eax

; 347  :         _Construct_in_place(_Pnode->_Parent, _Pnode);

  00086	89 40 04	 mov	 DWORD PTR [eax+4], eax

; 348  :         _Construct_in_place(_Pnode->_Right, _Pnode);

  00089	89 40 08	 mov	 DWORD PTR [eax+8], eax

; 349  :         _Pnode->_Color = _Black;

  0008c	66 c7 40 0c 01
	01		 mov	 WORD PTR [eax+12], 257	; 00000101H

; 1957 :         _Scary->_Myhead = _Node::_Buyheadnode(_Getal());

  00092	89 06		 mov	 DWORD PTR [esi], eax
; File C:\IAGOS\server\v18\Source\Source\WorldServer\ItemUpgrade.cpp

; 30   : {

  00094	8d 77 18	 lea	 esi, DWORD PTR [edi+24]
  00097	c6 45 fc 01	 mov	 BYTE PTR __$EHRec$[ebp+8], 1
; File C:\Program Files\Microsoft Visual Studio\2022\Professional\VC\Tools\MSVC\14.44.35207\include\xmemory

; 136  :         return ::operator new(_Bytes);

  0009b	6a 18		 push	 24			; 00000018H
; File C:\IAGOS\server\v18\Source\Source\WorldServer\ItemUpgrade.cpp

; 30   : {

  0009d	89 75 ec	 mov	 DWORD PTR _this$[ebp], esi
; File C:\Program Files\Microsoft Visual Studio\2022\Professional\VC\Tools\MSVC\14.44.35207\include\xtree

; 450  :     _Tree_val() noexcept : _Myhead(), _Mysize(0) {}

  000a0	c7 06 00 00 00
	00		 mov	 DWORD PTR [esi], 0
  000a6	c7 46 04 00 00
	00 00		 mov	 DWORD PTR [esi+4], 0
; File C:\Program Files\Microsoft Visual Studio\2022\Professional\VC\Tools\MSVC\14.44.35207\include\xmemory

; 136  :         return ::operator new(_Bytes);

  000ad	e8 00 00 00 00	 call	 ??2@YAPAXI@Z		; operator new
; File C:\Program Files\Microsoft Visual Studio\2022\Professional\VC\Tools\MSVC\14.44.35207\include\xtree

; 346  :         _Construct_in_place(_Pnode->_Left, _Pnode);

  000b2	89 00		 mov	 DWORD PTR [eax], eax

; 347  :         _Construct_in_place(_Pnode->_Parent, _Pnode);

  000b4	89 40 04	 mov	 DWORD PTR [eax+4], eax

; 348  :         _Construct_in_place(_Pnode->_Right, _Pnode);

  000b7	89 40 08	 mov	 DWORD PTR [eax+8], eax

; 349  :         _Pnode->_Color = _Black;

  000ba	66 c7 40 0c 01
	01		 mov	 WORD PTR [eax+12], 257	; 00000101H

; 1957 :         _Scary->_Myhead = _Node::_Buyheadnode(_Getal());

  000c0	89 06		 mov	 DWORD PTR [esi], eax
; File C:\IAGOS\server\v18\Source\Source\WorldServer\ItemUpgrade.cpp

; 30   : {

  000c2	8d 77 20	 lea	 esi, DWORD PTR [edi+32]
  000c5	c6 45 fc 02	 mov	 BYTE PTR __$EHRec$[ebp+8], 2
; File C:\Program Files\Microsoft Visual Studio\2022\Professional\VC\Tools\MSVC\14.44.35207\include\xmemory

; 136  :         return ::operator new(_Bytes);

  000c9	6a 24		 push	 36			; 00000024H
; File C:\IAGOS\server\v18\Source\Source\WorldServer\ItemUpgrade.cpp

; 30   : {

  000cb	89 75 ec	 mov	 DWORD PTR _this$[ebp], esi
; File C:\Program Files\Microsoft Visual Studio\2022\Professional\VC\Tools\MSVC\14.44.35207\include\xtree

; 450  :     _Tree_val() noexcept : _Myhead(), _Mysize(0) {}

  000ce	c7 06 00 00 00
	00		 mov	 DWORD PTR [esi], 0
  000d4	c7 46 04 00 00
	00 00		 mov	 DWORD PTR [esi+4], 0
; File C:\Program Files\Microsoft Visual Studio\2022\Professional\VC\Tools\MSVC\14.44.35207\include\xmemory

; 136  :         return ::operator new(_Bytes);

  000db	e8 00 00 00 00	 call	 ??2@YAPAXI@Z		; operator new
; File C:\Program Files\Microsoft Visual Studio\2022\Professional\VC\Tools\MSVC\14.44.35207\include\xtree

; 346  :         _Construct_in_place(_Pnode->_Left, _Pnode);

  000e0	89 00		 mov	 DWORD PTR [eax], eax

; 347  :         _Construct_in_place(_Pnode->_Parent, _Pnode);

  000e2	89 40 04	 mov	 DWORD PTR [eax+4], eax

; 348  :         _Construct_in_place(_Pnode->_Right, _Pnode);

  000e5	89 40 08	 mov	 DWORD PTR [eax+8], eax

; 349  :         _Pnode->_Color = _Black;

  000e8	66 c7 40 0c 01
	01		 mov	 WORD PTR [eax+12], 257	; 00000101H

; 1957 :         _Scary->_Myhead = _Node::_Buyheadnode(_Getal());

  000ee	89 06		 mov	 DWORD PTR [esi], eax
; File C:\IAGOS\server\v18\Source\Source\WorldServer\ItemUpgrade.cpp

; 30   : {

  000f0	8d 77 28	 lea	 esi, DWORD PTR [edi+40]
  000f3	c6 45 fc 03	 mov	 BYTE PTR __$EHRec$[ebp+8], 3
; File C:\Program Files\Microsoft Visual Studio\2022\Professional\VC\Tools\MSVC\14.44.35207\include\xmemory

; 136  :         return ::operator new(_Bytes);

  000f7	6a 24		 push	 36			; 00000024H
; File C:\IAGOS\server\v18\Source\Source\WorldServer\ItemUpgrade.cpp

; 30   : {

  000f9	89 75 ec	 mov	 DWORD PTR _this$[ebp], esi
; File C:\Program Files\Microsoft Visual Studio\2022\Professional\VC\Tools\MSVC\14.44.35207\include\xtree

; 450  :     _Tree_val() noexcept : _Myhead(), _Mysize(0) {}

  000fc	c7 06 00 00 00
	00		 mov	 DWORD PTR [esi], 0
  00102	c7 46 04 00 00
	00 00		 mov	 DWORD PTR [esi+4], 0
; File C:\Program Files\Microsoft Visual Studio\2022\Professional\VC\Tools\MSVC\14.44.35207\include\xmemory

; 136  :         return ::operator new(_Bytes);

  00109	e8 00 00 00 00	 call	 ??2@YAPAXI@Z		; operator new
; File C:\Program Files\Microsoft Visual Studio\2022\Professional\VC\Tools\MSVC\14.44.35207\include\xtree

; 346  :         _Construct_in_place(_Pnode->_Left, _Pnode);

  0010e	89 00		 mov	 DWORD PTR [eax], eax

; 347  :         _Construct_in_place(_Pnode->_Parent, _Pnode);

  00110	89 40 04	 mov	 DWORD PTR [eax+4], eax

; 348  :         _Construct_in_place(_Pnode->_Right, _Pnode);

  00113	89 40 08	 mov	 DWORD PTR [eax+8], eax

; 349  :         _Pnode->_Color = _Black;

  00116	66 c7 40 0c 01
	01		 mov	 WORD PTR [eax+12], 257	; 00000101H

; 1957 :         _Scary->_Myhead = _Node::_Buyheadnode(_Getal());

  0011c	89 06		 mov	 DWORD PTR [esi], eax
; File C:\IAGOS\server\v18\Source\Source\WorldServer\ItemUpgrade.cpp

; 30   : {

  0011e	8d 77 30	 lea	 esi, DWORD PTR [edi+48]
  00121	c6 45 fc 04	 mov	 BYTE PTR __$EHRec$[ebp+8], 4
; File C:\Program Files\Microsoft Visual Studio\2022\Professional\VC\Tools\MSVC\14.44.35207\include\xmemory

; 136  :         return ::operator new(_Bytes);

  00125	6a 18		 push	 24			; 00000018H
; File C:\IAGOS\server\v18\Source\Source\WorldServer\ItemUpgrade.cpp

; 30   : {

  00127	89 75 ec	 mov	 DWORD PTR _this$[ebp], esi
; File C:\Program Files\Microsoft Visual Studio\2022\Professional\VC\Tools\MSVC\14.44.35207\include\xtree

; 450  :     _Tree_val() noexcept : _Myhead(), _Mysize(0) {}

  0012a	c7 06 00 00 00
	00		 mov	 DWORD PTR [esi], 0
  00130	c7 46 04 00 00
	00 00		 mov	 DWORD PTR [esi+4], 0
; File C:\Program Files\Microsoft Visual Studio\2022\Professional\VC\Tools\MSVC\14.44.35207\include\xmemory

; 136  :         return ::operator new(_Bytes);

  00137	e8 00 00 00 00	 call	 ??2@YAPAXI@Z		; operator new
; File C:\Program Files\Microsoft Visual Studio\2022\Professional\VC\Tools\MSVC\14.44.35207\include\xtree

; 346  :         _Construct_in_place(_Pnode->_Left, _Pnode);

  0013c	89 00		 mov	 DWORD PTR [eax], eax

; 347  :         _Construct_in_place(_Pnode->_Parent, _Pnode);

  0013e	89 40 04	 mov	 DWORD PTR [eax+4], eax

; 348  :         _Construct_in_place(_Pnode->_Right, _Pnode);

  00141	89 40 08	 mov	 DWORD PTR [eax+8], eax

; 349  :         _Pnode->_Color = _Black;

  00144	66 c7 40 0c 01
	01		 mov	 WORD PTR [eax+12], 257	; 00000101H

; 1957 :         _Scary->_Myhead = _Node::_Buyheadnode(_Getal());

  0014a	89 06		 mov	 DWORD PTR [esi], eax
; File C:\IAGOS\server\v18\Source\Source\WorldServer\ItemUpgrade.cpp

; 30   : {

  0014c	c6 45 fc 05	 mov	 BYTE PTR __$EHRec$[ebp+8], 5
  00150	8d 77 38	 lea	 esi, DWORD PTR [edi+56]
; File C:\Program Files\Microsoft Visual Studio\2022\Professional\VC\Tools\MSVC\14.44.35207\include\xmemory

; 136  :         return ::operator new(_Bytes);

  00153	6a 18		 push	 24			; 00000018H
; File C:\IAGOS\server\v18\Source\Source\WorldServer\ItemUpgrade.cpp

; 30   : {

  00155	89 75 ec	 mov	 DWORD PTR _this$[ebp], esi
; File C:\Program Files\Microsoft Visual Studio\2022\Professional\VC\Tools\MSVC\14.44.35207\include\xtree

; 450  :     _Tree_val() noexcept : _Myhead(), _Mysize(0) {}

  00158	c7 06 00 00 00
	00		 mov	 DWORD PTR [esi], 0
  0015e	c7 46 04 00 00
	00 00		 mov	 DWORD PTR [esi+4], 0
; File C:\Program Files\Microsoft Visual Studio\2022\Professional\VC\Tools\MSVC\14.44.35207\include\xmemory

; 136  :         return ::operator new(_Bytes);

  00165	e8 00 00 00 00	 call	 ??2@YAPAXI@Z		; operator new
; File C:\Program Files\Microsoft Visual Studio\2022\Professional\VC\Tools\MSVC\14.44.35207\include\xtree

; 346  :         _Construct_in_place(_Pnode->_Left, _Pnode);

  0016a	89 00		 mov	 DWORD PTR [eax], eax

; 347  :         _Construct_in_place(_Pnode->_Parent, _Pnode);

  0016c	89 40 04	 mov	 DWORD PTR [eax+4], eax

; 348  :         _Construct_in_place(_Pnode->_Right, _Pnode);

  0016f	89 40 08	 mov	 DWORD PTR [eax+8], eax

; 349  :         _Pnode->_Color = _Black;

  00172	66 c7 40 0c 01
	01		 mov	 WORD PTR [eax+12], 257	; 00000101H

; 1957 :         _Scary->_Myhead = _Node::_Buyheadnode(_Getal());

  00178	89 06		 mov	 DWORD PTR [esi], eax
; File C:\IAGOS\server\v18\Source\Source\WorldServer\ItemUpgrade.cpp

; 30   : {

  0017a	8d 77 40	 lea	 esi, DWORD PTR [edi+64]
  0017d	c6 45 fc 06	 mov	 BYTE PTR __$EHRec$[ebp+8], 6
; File C:\Program Files\Microsoft Visual Studio\2022\Professional\VC\Tools\MSVC\14.44.35207\include\xmemory

; 136  :         return ::operator new(_Bytes);

  00181	6a 18		 push	 24			; 00000018H
; File C:\IAGOS\server\v18\Source\Source\WorldServer\ItemUpgrade.cpp

; 30   : {

  00183	89 75 ec	 mov	 DWORD PTR _this$[ebp], esi
; File C:\Program Files\Microsoft Visual Studio\2022\Professional\VC\Tools\MSVC\14.44.35207\include\xtree

; 450  :     _Tree_val() noexcept : _Myhead(), _Mysize(0) {}

  00186	c7 06 00 00 00
	00		 mov	 DWORD PTR [esi], 0
  0018c	c7 46 04 00 00
	00 00		 mov	 DWORD PTR [esi+4], 0
; File C:\Program Files\Microsoft Visual Studio\2022\Professional\VC\Tools\MSVC\14.44.35207\include\xmemory

; 136  :         return ::operator new(_Bytes);

  00193	e8 00 00 00 00	 call	 ??2@YAPAXI@Z		; operator new
; File C:\Program Files\Microsoft Visual Studio\2022\Professional\VC\Tools\MSVC\14.44.35207\include\xtree

; 346  :         _Construct_in_place(_Pnode->_Left, _Pnode);

  00198	89 00		 mov	 DWORD PTR [eax], eax

; 347  :         _Construct_in_place(_Pnode->_Parent, _Pnode);

  0019a	89 40 04	 mov	 DWORD PTR [eax+4], eax

; 348  :         _Construct_in_place(_Pnode->_Right, _Pnode);

  0019d	89 40 08	 mov	 DWORD PTR [eax+8], eax

; 349  :         _Pnode->_Color = _Black;

  001a0	66 c7 40 0c 01
	01		 mov	 WORD PTR [eax+12], 257	; 00000101H

; 1957 :         _Scary->_Myhead = _Node::_Buyheadnode(_Getal());

  001a6	89 06		 mov	 DWORD PTR [esi], eax
; File C:\IAGOS\server\v18\Source\Source\WorldServer\ItemUpgrade.cpp

; 30   : {

  001a8	8d 77 48	 lea	 esi, DWORD PTR [edi+72]
  001ab	c6 45 fc 07	 mov	 BYTE PTR __$EHRec$[ebp+8], 7
; File C:\Program Files\Microsoft Visual Studio\2022\Professional\VC\Tools\MSVC\14.44.35207\include\xmemory

; 136  :         return ::operator new(_Bytes);

  001af	6a 18		 push	 24			; 00000018H
; File C:\IAGOS\server\v18\Source\Source\WorldServer\ItemUpgrade.cpp

; 30   : {

  001b1	89 75 ec	 mov	 DWORD PTR _this$[ebp], esi
; File C:\Program Files\Microsoft Visual Studio\2022\Professional\VC\Tools\MSVC\14.44.35207\include\xtree

; 450  :     _Tree_val() noexcept : _Myhead(), _Mysize(0) {}

  001b4	c7 06 00 00 00
	00		 mov	 DWORD PTR [esi], 0
  001ba	c7 46 04 00 00
	00 00		 mov	 DWORD PTR [esi+4], 0
; File C:\Program Files\Microsoft Visual Studio\2022\Professional\VC\Tools\MSVC\14.44.35207\include\xmemory

; 136  :         return ::operator new(_Bytes);

  001c1	e8 00 00 00 00	 call	 ??2@YAPAXI@Z		; operator new
  001c6	83 c4 24	 add	 esp, 36			; 00000024H
; File C:\Program Files\Microsoft Visual Studio\2022\Professional\VC\Tools\MSVC\14.44.35207\include\xtree

; 346  :         _Construct_in_place(_Pnode->_Left, _Pnode);

  001c9	89 00		 mov	 DWORD PTR [eax], eax

; 347  :         _Construct_in_place(_Pnode->_Parent, _Pnode);

  001cb	89 40 04	 mov	 DWORD PTR [eax+4], eax

; 348  :         _Construct_in_place(_Pnode->_Right, _Pnode);

  001ce	89 40 08	 mov	 DWORD PTR [eax+8], eax

; 349  :         _Pnode->_Color = _Black;

  001d1	66 c7 40 0c 01
	01		 mov	 WORD PTR [eax+12], 257	; 00000101H

; 1957 :         _Scary->_Myhead = _Node::_Buyheadnode(_Getal());

  001d7	89 06		 mov	 DWORD PTR [esi], eax
; File C:\IAGOS\server\v18\Source\Source\WorldServer\ItemUpgrade.cpp

; 31   : 	LoadScript();

  001d9	8b cf		 mov	 ecx, edi
  001db	c6 45 fc 08	 mov	 BYTE PTR __$EHRec$[ebp+8], 8
  001df	e8 00 00 00 00	 call	 ?LoadScript@CItemUpgrade@@QAEXXZ ; CItemUpgrade::LoadScript

; 32   : #ifdef __NEW_ITEM_VARUNA
; 33   : 	LoadScriptBaruna();

  001e4	8b cf		 mov	 ecx, edi
  001e6	e8 00 00 00 00	 call	 ?LoadScriptBaruna@CItemUpgrade@@QAEXXZ ; CItemUpgrade::LoadScriptBaruna

; 34   : #endif // __NEW_ITEM_VARUNA
; 35   : }

  001eb	8b c7		 mov	 eax, edi
  001ed	8b 4d f4	 mov	 ecx, DWORD PTR __$EHRec$[ebp]
  001f0	64 89 0d 00 00
	00 00		 mov	 DWORD PTR fs:0, ecx
  001f7	59		 pop	 ecx
  001f8	5f		 pop	 edi
  001f9	5e		 pop	 esi
  001fa	8b e5		 mov	 esp, ebp
  001fc	5d		 pop	 ebp
  001fd	c3		 ret	 0
_TEXT	ENDS
;	COMDAT text$x
text$x	SEGMENT
__unwindfunclet$??0CItemUpgrade@@QAE@XZ$0:
  00000	8b 4d f0	 mov	 ecx, DWORD PTR _this$[ebp]
  00003	83 c1 08	 add	 ecx, 8
  00006	e9 00 00 00 00	 jmp	 ??1?$map@HHU?$less@H@std@@V?$allocator@U?$pair@$$CBHH@std@@@2@@std@@QAE@XZ
__unwindfunclet$??0CItemUpgrade@@QAE@XZ$1:
  0000b	8b 4d f0	 mov	 ecx, DWORD PTR _this$[ebp]
  0000e	83 c1 10	 add	 ecx, 16			; 00000010H
  00011	e9 00 00 00 00	 jmp	 ??1?$map@HHU?$less@H@std@@V?$allocator@U?$pair@$$CBHH@std@@@2@@std@@QAE@XZ
__unwindfunclet$??0CItemUpgrade@@QAE@XZ$2:
  00016	8b 4d f0	 mov	 ecx, DWORD PTR _this$[ebp]
  00019	83 c1 18	 add	 ecx, 24			; 00000018H
  0001c	e9 00 00 00 00	 jmp	 ??1?$map@HHU?$less@H@std@@V?$allocator@U?$pair@$$CBHH@std@@@2@@std@@QAE@XZ
__unwindfunclet$??0CItemUpgrade@@QAE@XZ$3:
  00021	8b 4d f0	 mov	 ecx, DWORD PTR _this$[ebp]
  00024	83 c1 20	 add	 ecx, 32			; 00000020H
  00027	e9 00 00 00 00	 jmp	 ??1?$map@HU__ATTRIBUTE_ENCHANT@@U?$less@H@std@@V?$allocator@U?$pair@$$CBHU__ATTRIBUTE_ENCHANT@@@std@@@3@@std@@QAE@XZ
__unwindfunclet$??0CItemUpgrade@@QAE@XZ$4:
  0002c	8b 4d f0	 mov	 ecx, DWORD PTR _this$[ebp]
  0002f	83 c1 28	 add	 ecx, 40			; 00000028H
  00032	e9 00 00 00 00	 jmp	 ??1?$map@HU__CHAOS_GEM@@U?$less@H@std@@V?$allocator@U?$pair@$$CBHU__CHAOS_GEM@@@std@@@3@@std@@QAE@XZ
__unwindfunclet$??0CItemUpgrade@@QAE@XZ$5:
  00037	8b 4d f0	 mov	 ecx, DWORD PTR _this$[ebp]
  0003a	83 c1 30	 add	 ecx, 48			; 00000030H
  0003d	e9 00 00 00 00	 jmp	 ??1?$map@HHU?$less@H@std@@V?$allocator@U?$pair@$$CBHH@std@@@2@@std@@QAE@XZ
__unwindfunclet$??0CItemUpgrade@@QAE@XZ$6:
  00042	8b 4d f0	 mov	 ecx, DWORD PTR _this$[ebp]
  00045	83 c1 38	 add	 ecx, 56			; 00000038H
  00048	e9 00 00 00 00	 jmp	 ??1?$map@HHU?$less@H@std@@V?$allocator@U?$pair@$$CBHH@std@@@2@@std@@QAE@XZ
__unwindfunclet$??0CItemUpgrade@@QAE@XZ$7:
  0004d	8b 4d f0	 mov	 ecx, DWORD PTR _this$[ebp]
  00050	83 c1 40	 add	 ecx, 64			; 00000040H
  00053	e9 00 00 00 00	 jmp	 ??1?$map@HHU?$less@H@std@@V?$allocator@U?$pair@$$CBHH@std@@@2@@std@@QAE@XZ
__unwindfunclet$??0CItemUpgrade@@QAE@XZ$8:
  00058	8b 4d f0	 mov	 ecx, DWORD PTR _this$[ebp]
  0005b	83 c1 48	 add	 ecx, 72			; 00000048H
  0005e	e9 00 00 00 00	 jmp	 ??1?$map@HHU?$less@H@std@@V?$allocator@U?$pair@$$CBHH@std@@@2@@std@@QAE@XZ
  00063	cc		 int	 3
  00064	cc		 int	 3
  00065	cc		 int	 3
  00066	cc		 int	 3
  00067	cc		 int	 3
__ehhandler$??0CItemUpgrade@@QAE@XZ:
  00068	90		 npad	 1
  00069	90		 npad	 1
  0006a	8b 54 24 08	 mov	 edx, DWORD PTR [esp+8]
  0006e	8d 42 0c	 lea	 eax, DWORD PTR [edx+12]
  00071	8b 4a ec	 mov	 ecx, DWORD PTR [edx-20]
  00074	33 c8		 xor	 ecx, eax
  00076	e8 00 00 00 00	 call	 @__security_check_cookie@4
  0007b	b8 00 00 00 00	 mov	 eax, OFFSET __ehfuncinfo$??0CItemUpgrade@@QAE@XZ
  00080	e9 00 00 00 00	 jmp	 ___CxxFrameHandler3
text$x	ENDS
??0CItemUpgrade@@QAE@XZ ENDP				; CItemUpgrade::CItemUpgrade
; Function compile flags: /Ogtp
; File C:\Program Files\Microsoft Visual Studio\2022\Professional\VC\Tools\MSVC\14.44.35207\include\xmemory
;	COMDAT ??$_Allocate_manually_vector_aligned@U_Default_allocate_traits@std@@@std@@YAPAXI@Z
_TEXT	SEGMENT
__Bytes$ = 8						; size = 4
??$_Allocate_manually_vector_aligned@U_Default_allocate_traits@std@@@std@@YAPAXI@Z PROC ; std::_Allocate_manually_vector_aligned<std::_Default_allocate_traits>, COMDAT

; 182  : __declspec(allocator) void* _Allocate_manually_vector_aligned(const size_t _Bytes) {

  00000	55		 push	 ebp
  00001	8b ec		 mov	 ebp, esp

; 183  :     // allocate _Bytes manually aligned to at least _Big_allocation_alignment
; 184  :     const size_t _Block_size = _Non_user_size + _Bytes;

  00003	8b 45 08	 mov	 eax, DWORD PTR __Bytes$[ebp]
  00006	8d 48 23	 lea	 ecx, DWORD PTR [eax+35]

; 185  :     if (_Block_size <= _Bytes) {

  00009	3b c8		 cmp	 ecx, eax
  0000b	0f 86 00 00 00
	00		 jbe	 ?_Throw_bad_array_new_length@std@@YAXXZ ; std::_Throw_bad_array_new_length

; 136  :         return ::operator new(_Bytes);

  00011	51		 push	 ecx
  00012	e8 00 00 00 00	 call	 ??2@YAPAXI@Z		; operator new

; 186  :         _Throw_bad_array_new_length(); // add overflow
; 187  :     }
; 188  : 
; 189  :     const uintptr_t _Ptr_container = reinterpret_cast<uintptr_t>(_Traits::_Allocate(_Block_size));

  00017	8b c8		 mov	 ecx, eax

; 136  :         return ::operator new(_Bytes);

  00019	83 c4 04	 add	 esp, 4

; 190  :     _STL_VERIFY(_Ptr_container != 0, "invalid argument"); // validate even in release since we're doing p[-1]

  0001c	85 c9		 test	 ecx, ecx
  0001e	74 0b		 je	 SHORT $LN9@Allocate_m

; 191  :     void* const _Ptr = reinterpret_cast<void*>((_Ptr_container + _Non_user_size) & ~(_Big_allocation_alignment - 1));

  00020	8d 41 23	 lea	 eax, DWORD PTR [ecx+35]
  00023	83 e0 e0	 and	 eax, -32		; ffffffe0H

; 192  :     static_cast<uintptr_t*>(_Ptr)[-1] = _Ptr_container;

  00026	89 48 fc	 mov	 DWORD PTR [eax-4], ecx

; 193  : 
; 194  : #ifdef _DEBUG
; 195  :     static_cast<uintptr_t*>(_Ptr)[-2] = _Big_allocation_sentinel;
; 196  : #endif // defined(_DEBUG)
; 197  :     return _Ptr;
; 198  : }

  00029	5d		 pop	 ebp
  0002a	c3		 ret	 0
$LN9@Allocate_m:

; 190  :     _STL_VERIFY(_Ptr_container != 0, "invalid argument"); // validate even in release since we're doing p[-1]

  0002b	6a 00		 push	 0
  0002d	6a 00		 push	 0
  0002f	6a 00		 push	 0
  00031	6a 00		 push	 0
  00033	6a 00		 push	 0
  00035	e8 00 00 00 00	 call	 __invoke_watson
$LN7@Allocate_m:
  0003a	cc		 int	 3
??$_Allocate_manually_vector_aligned@U_Default_allocate_traits@std@@@std@@YAPAXI@Z ENDP ; std::_Allocate_manually_vector_aligned<std::_Default_allocate_traits>
_TEXT	ENDS
; Function compile flags: /Ogtp
; File C:\Program Files\Microsoft Visual Studio\2022\Professional\VC\Tools\MSVC\14.44.35207\include\xtree
; File C:\Program Files\Microsoft Visual Studio\2022\Professional\VC\Tools\MSVC\14.44.35207\include\utility
; File C:\Program Files\Microsoft Visual Studio\2022\Professional\VC\Tools\MSVC\14.44.35207\include\xmemory
; File C:\Program Files\Microsoft Visual Studio\2022\Professional\VC\Tools\MSVC\14.44.35207\include\xtree
;	COMDAT ??$_Erase_tree@V?$allocator@U?$_Tree_node@U?$pair@$$CBHH@std@@PAX@std@@@std@@@?$_Tree_val@U?$_Tree_simple_types@U?$pair@$$CBHH@std@@@std@@@std@@QAEXAAV?$allocator@U?$_Tree_node@U?$pair@$$CBHH@std@@PAX@std@@@1@PAU?$_Tree_node@U?$pair@$$CBHH@std@@PAX@1@@Z
_TEXT	SEGMENT
__Al$ = 8						; size = 4
__Rootnode$ = 12					; size = 4
??$_Erase_tree@V?$allocator@U?$_Tree_node@U?$pair@$$CBHH@std@@PAX@std@@@std@@@?$_Tree_val@U?$_Tree_simple_types@U?$pair@$$CBHH@std@@@std@@@std@@QAEXAAV?$allocator@U?$_Tree_node@U?$pair@$$CBHH@std@@PAX@std@@@1@PAU?$_Tree_node@U?$pair@$$CBHH@std@@PAX@1@@Z PROC ; std::_Tree_val<std::_Tree_simple_types<std::pair<int const ,int> > >::_Erase_tree<std::allocator<std::_Tree_node<std::pair<int const ,int>,void *> > >, COMDAT
; _this$ = ecx

; 767  :     void _Erase_tree(_Alnode& _Al, _Nodeptr _Rootnode) noexcept {

  00000	55		 push	 ebp
  00001	8b ec		 mov	 ebp, esp
  00003	53		 push	 ebx
  00004	56		 push	 esi

; 768  :         while (!_Rootnode->_Isnil) { // free subtrees, then node

  00005	8b 75 0c	 mov	 esi, DWORD PTR __Rootnode$[ebp]
  00008	8b d9		 mov	 ebx, ecx
  0000a	80 7e 0d 00	 cmp	 BYTE PTR [esi+13], 0
  0000e	75 25		 jne	 SHORT $LN34@Erase_tree
  00010	57		 push	 edi
  00011	8b 7d 08	 mov	 edi, DWORD PTR __Al$[ebp]
$LL2@Erase_tree:

; 769  :             _Erase_tree(_Al, _Rootnode->_Right);

  00014	ff 76 08	 push	 DWORD PTR [esi+8]
  00017	8b cb		 mov	 ecx, ebx
  00019	57		 push	 edi
  0001a	e8 00 00 00 00	 call	 ??$_Erase_tree@V?$allocator@U?$_Tree_node@U?$pair@$$CBHH@std@@PAX@std@@@std@@@?$_Tree_val@U?$_Tree_simple_types@U?$pair@$$CBHH@std@@@std@@@std@@QAEXAAV?$allocator@U?$_Tree_node@U?$pair@$$CBHH@std@@PAX@std@@@1@PAU?$_Tree_node@U?$pair@$$CBHH@std@@PAX@1@@Z ; std::_Tree_val<std::_Tree_simple_types<std::pair<int const ,int> > >::_Erase_tree<std::allocator<std::_Tree_node<std::pair<int const ,int>,void *> > >
; File C:\Program Files\Microsoft Visual Studio\2022\Professional\VC\Tools\MSVC\14.44.35207\include\utility

; 773  :     _Ty _Old_val = static_cast<_Ty&&>(_Val);

  0001f	8b c6		 mov	 eax, esi

; 774  :     _Val         = static_cast<_Other&&>(_New_val);

  00021	8b 36		 mov	 esi, DWORD PTR [esi]
; File C:\Program Files\Microsoft Visual Studio\2022\Professional\VC\Tools\MSVC\14.44.35207\include\xmemory

; 289  :         ::operator delete(_Ptr, _Bytes);

  00023	6a 18		 push	 24			; 00000018H
  00025	50		 push	 eax
  00026	e8 00 00 00 00	 call	 ??3@YAXPAXI@Z		; operator delete
  0002b	83 c4 08	 add	 esp, 8
; File C:\Program Files\Microsoft Visual Studio\2022\Professional\VC\Tools\MSVC\14.44.35207\include\xtree

; 768  :         while (!_Rootnode->_Isnil) { // free subtrees, then node

  0002e	80 7e 0d 00	 cmp	 BYTE PTR [esi+13], 0
  00032	74 e0		 je	 SHORT $LL2@Erase_tree
  00034	5f		 pop	 edi
$LN34@Erase_tree:
  00035	5e		 pop	 esi

; 770  :             _Alnode::value_type::_Freenode(_Al, _STD exchange(_Rootnode, _Rootnode->_Left));
; 771  :         }
; 772  :     }

  00036	5b		 pop	 ebx
  00037	5d		 pop	 ebp
  00038	c2 08 00	 ret	 8
??$_Erase_tree@V?$allocator@U?$_Tree_node@U?$pair@$$CBHH@std@@PAX@std@@@std@@@?$_Tree_val@U?$_Tree_simple_types@U?$pair@$$CBHH@std@@@std@@@std@@QAEXAAV?$allocator@U?$_Tree_node@U?$pair@$$CBHH@std@@PAX@std@@@1@PAU?$_Tree_node@U?$pair@$$CBHH@std@@PAX@1@@Z ENDP ; std::_Tree_val<std::_Tree_simple_types<std::pair<int const ,int> > >::_Erase_tree<std::allocator<std::_Tree_node<std::pair<int const ,int>,void *> > >
_TEXT	ENDS
; Function compile flags: /Ogtp
; File C:\IAGOS\server\v18\Source\Source\_Common\Item.h
;	COMDAT ?GetAtId@?$CItemContainer@VCItemElem@@@@QAEPAVCItemElem@@K@Z
_TEXT	SEGMENT
_dwId$ = 8						; size = 4
?GetAtId@?$CItemContainer@VCItemElem@@@@QAEPAVCItemElem@@K@Z PROC ; CItemContainer<CItemElem>::GetAtId, COMDAT
; _this$ = ecx

; 518  : {

  00000	55		 push	 ebp
  00001	8b ec		 mov	 ebp, esp

; 519  : 	if( dwId >= (DWORD)( GetMax() ) ) return NULL;

  00003	8b 45 08	 mov	 eax, DWORD PTR _dwId$[ebp]
  00006	3b 41 0c	 cmp	 eax, DWORD PTR [ecx+12]
  00009	73 15		 jae	 SHORT $LN7@GetAtId

; 520  : 	T* pItemElem = &m_apItem[ dwId ];

  0000b	69 c0 b0 00 00
	00		 imul	 eax, eax, 176
  00011	03 41 10	 add	 eax, DWORD PTR [ecx+16]

; 50   : 	BOOL			IsEmpty() { return m_dwItemId ? FALSE : TRUE; }

  00014	33 c9		 xor	 ecx, ecx
  00016	39 48 0c	 cmp	 DWORD PTR [eax+12], ecx
  00019	0f 44 c1	 cmove	 eax, ecx

; 523  : 	return pItemElem;
; 524  : }

  0001c	5d		 pop	 ebp
  0001d	c2 04 00	 ret	 4
$LN7@GetAtId:

; 521  : 	if( pItemElem->IsEmpty() ) 
; 522  : 		return NULL;

  00020	33 c0		 xor	 eax, eax

; 523  : 	return pItemElem;
; 524  : }

  00022	5d		 pop	 ebp
  00023	c2 04 00	 ret	 4
?GetAtId@?$CItemContainer@VCItemElem@@@@QAEPAVCItemElem@@K@Z ENDP ; CItemContainer<CItemElem>::GetAtId
_TEXT	ENDS
; Function compile flags: /Ogtp
; File C:\IAGOS\server\v18\Source\Source\_Common\Item.h
;	COMDAT ?IsFull@?$CItemContainer@VCItemElem@@@@QAEHPAVCItemElem@@PAUItemProp@@F@Z
_TEXT	SEGMENT
_this$1$ = -4						; size = 4
_pElem$ = 8						; size = 4
_pItemProp$ = 12					; size = 4
_nNum$ = 16						; size = 2
tv344 = 16						; size = 4
?IsFull@?$CItemContainer@VCItemElem@@@@QAEHPAVCItemElem@@PAUItemProp@@F@Z PROC ; CItemContainer<CItemElem>::IsFull, COMDAT
; _this$ = ecx

; 632  : {

  00000	55		 push	 ebp
  00001	8b ec		 mov	 ebp, esp
  00003	51		 push	 ecx

; 633  : 	int nId;
; 634  : 	short nNumtmp	= nNum;

  00004	0f b7 55 10	 movzx	 edx, WORD PTR _nNum$[ebp]
  00008	53		 push	 ebx
  00009	56		 push	 esi
  0000a	8b f1		 mov	 esi, ecx
  0000c	57		 push	 edi

; 635  : 	CItemElem* pElemtmp;
; 636  : 	for( DWORD i = 0; i < m_dwIndexNum; i++ )

  0000d	33 ff		 xor	 edi, edi
  0000f	89 75 fc	 mov	 DWORD PTR _this$1$[ebp], esi
  00012	39 7e 08	 cmp	 DWORD PTR [esi+8], edi
  00015	0f 86 7e 00 00
	00		 jbe	 $LN19@IsFull

; 637  : 	{
; 638  : 		nId	= m_apIndex[i];

  0001b	8b 5e 04	 mov	 ebx, DWORD PTR [esi+4]
  0001e	66 90		 npad	 2
$LL4@IsFull:
  00020	8b 03		 mov	 eax, DWORD PTR [ebx]

; 639  : 		if( nId < 0 || nId >= (int)( m_dwItemMax ) )

  00022	85 c0		 test	 eax, eax
  00024	78 6a		 js	 SHORT $LN2@IsFull
  00026	3b 46 0c	 cmp	 eax, DWORD PTR [esi+12]
  00029	7d 65		 jge	 SHORT $LN2@IsFull

; 640  : 			continue;
; 641  : 		pElemtmp	= (CItemElem*)&m_apItem[nId];

  0002b	69 c8 b0 00 00
	00		 imul	 ecx, eax, 176
  00031	03 4e 10	 add	 ecx, DWORD PTR [esi+16]

; 50   : 	BOOL			IsEmpty() { return m_dwItemId ? FALSE : TRUE; }

  00034	8b 41 0c	 mov	 eax, DWORD PTR [ecx+12]
  00037	85 c0		 test	 eax, eax

; 642  : 		if( pElemtmp->IsEmpty() )

  00039	75 10		 jne	 SHORT $LN7@IsFull

; 643  : 		{
; 644  : 			if( nNumtmp > (short)pItemProp->dwPackMax )

  0003b	8b 45 0c	 mov	 eax, DWORD PTR _pItemProp$[ebp]
  0003e	0f b7 40 6c	 movzx	 eax, WORD PTR [eax+108]
  00042	66 3b d0	 cmp	 dx, ax
  00045	7e 60		 jle	 SHORT $LN12@IsFull

; 645  : 				nNumtmp		-= (short)pItemProp->dwPackMax;

  00047	2b d0		 sub	 edx, eax

; 646  : 			else
; 647  : 				return FALSE;
; 648  : 		}

  00049	eb 45		 jmp	 SHORT $LN2@IsFull
$LN7@IsFull:

; 649  : 		else if( pElem->m_dwItemId == pElemtmp->m_dwItemId
; 650  : 				&& pElem->m_byFlag == pElemtmp->m_byFlag && pElem->m_bCharged == pElemtmp->m_bCharged )

  0004b	8b 75 08	 mov	 esi, DWORD PTR _pElem$[ebp]
  0004e	39 46 0c	 cmp	 DWORD PTR [esi+12], eax
  00051	75 3a		 jne	 SHORT $LN24@IsFull
  00053	8a 46 76	 mov	 al, BYTE PTR [esi+118]
  00056	3a 41 76	 cmp	 al, BYTE PTR [ecx+118]
  00059	75 32		 jne	 SHORT $LN24@IsFull
  0005b	8b 86 a4 00 00
	00		 mov	 eax, DWORD PTR [esi+164]
  00061	3b 81 a4 00 00
	00		 cmp	 eax, DWORD PTR [ecx+164]
  00067	75 24		 jne	 SHORT $LN24@IsFull

; 651  : 		{
; 652  : 			if( pElemtmp->m_nItemNum + nNumtmp > (short)pItemProp->dwPackMax )

  00069	0f b7 71 74	 movzx	 esi, WORD PTR [ecx+116]
  0006d	0f bf c2	 movsx	 eax, dx
  00070	0f bf ce	 movsx	 ecx, si
  00073	03 c8		 add	 ecx, eax
  00075	89 4d 10	 mov	 DWORD PTR tv344[ebp], ecx
  00078	8b 4d 0c	 mov	 ecx, DWORD PTR _pItemProp$[ebp]
  0007b	0f b7 41 6c	 movzx	 eax, WORD PTR [ecx+108]
  0007f	98		 cwde
  00080	39 45 10	 cmp	 DWORD PTR tv344[ebp], eax
  00083	7e 22		 jle	 SHORT $LN12@IsFull

; 653  : 				nNumtmp	-= ( (short)pItemProp->dwPackMax - pElemtmp->m_nItemNum );

  00085	0f b7 41 6c	 movzx	 eax, WORD PTR [ecx+108]
  00089	2b f0		 sub	 esi, eax
  0008b	03 d6		 add	 edx, esi
$LN24@IsFull:

; 635  : 	CItemElem* pElemtmp;
; 636  : 	for( DWORD i = 0; i < m_dwIndexNum; i++ )

  0008d	8b 75 fc	 mov	 esi, DWORD PTR _this$1$[ebp]
$LN2@IsFull:
  00090	47		 inc	 edi
  00091	83 c3 04	 add	 ebx, 4
  00094	3b 7e 08	 cmp	 edi, DWORD PTR [esi+8]
  00097	72 87		 jb	 SHORT $LL4@IsFull
$LN19@IsFull:
  00099	5f		 pop	 edi

; 654  : 			else
; 655  : 				return FALSE;
; 656  : 		}
; 657  : 	}
; 658  : 
; 659  : 	return TRUE;
; 660  : }

  0009a	5e		 pop	 esi
  0009b	b8 01 00 00 00	 mov	 eax, 1
  000a0	5b		 pop	 ebx
  000a1	8b e5		 mov	 esp, ebp
  000a3	5d		 pop	 ebp
  000a4	c2 0c 00	 ret	 12			; 0000000cH
$LN12@IsFull:
  000a7	5f		 pop	 edi
  000a8	5e		 pop	 esi
  000a9	33 c0		 xor	 eax, eax
  000ab	5b		 pop	 ebx
  000ac	8b e5		 mov	 esp, ebp
  000ae	5d		 pop	 ebp
  000af	c2 0c 00	 ret	 12			; 0000000cH
?IsFull@?$CItemContainer@VCItemElem@@@@QAEHPAVCItemElem@@PAUItemProp@@F@Z ENDP ; CItemContainer<CItemElem>::IsFull
_TEXT	ENDS
; Function compile flags: /Ogtp
; File C:\IAGOS\server\v18\Source\Source\_Common\Item.h
;	COMDAT ?IsEquip@?$CItemContainer@VCItemElem@@@@QAEHK@Z
_TEXT	SEGMENT
_dwObjId$ = 8						; size = 4
?IsEquip@?$CItemContainer@VCItemElem@@@@QAEHK@Z PROC	; CItemContainer<CItemElem>::IsEquip, COMDAT
; _this$ = ecx

; 602  : {

  00000	55		 push	 ebp
  00001	8b ec		 mov	 ebp, esp

; 603  : 	if( !m_apItem )

  00003	8b 51 10	 mov	 edx, DWORD PTR [ecx+16]
  00006	85 d2		 test	 edx, edx
  00008	75 13		 jne	 SHORT $LN2@IsEquip

; 604  : 	{
; 605  : 		WriteError( "CONTAINER//0" );

  0000a	68 00 00 00 00	 push	 OFFSET ??_C@_0N@GELFDHNG@CONTAINER?1?10@
  0000f	e8 00 00 00 00	 call	 ?WriteError@@YAXPBDZZ	; WriteError
  00014	83 c4 04	 add	 esp, 4
$LN4@IsEquip:

; 613  : 		return TRUE;
; 614  : 	return FALSE;
; 615  : }

  00017	33 c0		 xor	 eax, eax
  00019	5d		 pop	 ebp
  0001a	c2 04 00	 ret	 4
$LN2@IsEquip:

; 606  : 		return FALSE;
; 607  : 	}
; 608  : 
; 609  : 	if( dwObjId >= m_dwItemMax )

  0001d	8b 45 08	 mov	 eax, DWORD PTR _dwObjId$[ebp]
  00020	3b 41 0c	 cmp	 eax, DWORD PTR [ecx+12]
  00023	73 f2		 jae	 SHORT $LN4@IsEquip

; 610  : 		return FALSE;
; 611  : 
; 612  : 	if( m_apItem[ dwObjId ].m_dwObjIndex >= m_dwIndexNum )

  00025	69 c0 b0 00 00
	00		 imul	 eax, eax, 176
  0002b	8b 44 10 08	 mov	 eax, DWORD PTR [eax+edx+8]
  0002f	3b 41 08	 cmp	 eax, DWORD PTR [ecx+8]
  00032	1b c0		 sbb	 eax, eax
  00034	40		 inc	 eax

; 613  : 		return TRUE;
; 614  : 	return FALSE;
; 615  : }

  00035	5d		 pop	 ebp
  00036	c2 04 00	 ret	 4
?IsEquip@?$CItemContainer@VCItemElem@@@@QAEHK@Z ENDP	; CItemContainer<CItemElem>::IsEquip
_TEXT	ENDS
; Function compile flags: /Ogtp
; File C:\IAGOS\server\v18\Source\Source\_Common\Item.h
; File C:\IAGOS\server\v18\Source\Source\_Common\Project.h
; File C:\IAGOS\server\v18\Source\Source\_Common\Item.h
; File C:\IAGOS\server\v18\Source\Source\_Common\Project.h
; File C:\IAGOS\server\v18\Source\Source\_Common\data.h
; File C:\IAGOS\server\v18\Source\Source\_Common\Item.h
; File C:\IAGOS\server\v18\Source\Source\_Common\Project.h
; File C:\IAGOS\server\v18\Source\Source\_Common\data.h
; File C:\IAGOS\server\v18\Source\Source\_Common\Project.h
; File C:\IAGOS\server\v18\Source\Source\_Common\ProjectCmn.h
; File C:\IAGOS\server\v18\Source\Source\_Common\Project.h
; File C:\IAGOS\server\v18\Source\Source\_Common\Item.h
; File C:\IAGOS\server\v18\Source\Source\_Common\Project.h
; File C:\IAGOS\server\v18\Source\Source\_Common\data.h
; File C:\IAGOS\server\v18\Source\Source\_Common\Item.h
; File C:\IAGOS\server\v18\Source\Source\_Common\Project.h
; File C:\IAGOS\server\v18\Source\Source\_Common\data.h
; File C:\IAGOS\server\v18\Source\Source\_Common\Project.h
; File C:\IAGOS\server\v18\Source\Source\_Common\Item.h
; File C:\IAGOS\server\v18\Source\Source\_Common\Project.h
; File C:\IAGOS\server\v18\Source\Source\_Common\Item.h
;	COMDAT ?IsVisPet@CItemElem@@QAEHXZ
_TEXT	SEGMENT
?IsVisPet@CItemElem@@QAEHXZ PROC			; CItemElem::IsVisPet, COMDAT
; _this$ = ecx
; File C:\IAGOS\server\v18\Source\Source\_Common\Project.h

; 1389 : 	VERIFY_RANGE_ASSERT( nIndex, 0, m_aPropItem.GetSize(), "GetItemProp range_error", NULL );

  00000	a1 40 02 00 00	 mov	 eax, DWORD PTR ?prj@@3VCProject@@A+576
; File C:\IAGOS\server\v18\Source\Source\_Common\Item.h

; 275  : 	BOOL	IsVisPet()	{ return ( GetProp() && GetProp()->IsVisPet() ) || IsTransformVisPet() ; }

  00005	56		 push	 esi
  00006	57		 push	 edi
  00007	8b f9		 mov	 edi, ecx

; 230  : 	ItemProp*	GetProp()	{	return prj.GetItemProp( m_dwItemId );	}

  00009	8b 57 0c	 mov	 edx, DWORD PTR [edi+12]
; File C:\IAGOS\server\v18\Source\Source\_Common\Project.h

; 1389 : 	VERIFY_RANGE_ASSERT( nIndex, 0, m_aPropItem.GetSize(), "GetItemProp range_error", NULL );

  0000c	85 d2		 test	 edx, edx
  0000e	78 56		 js	 SHORT $LN13@IsVisPet
  00010	3b d0		 cmp	 edx, eax
  00012	7d 52		 jge	 SHORT $LN13@IsVisPet
; File C:\IAGOS\server\v18\Source\Source\_Common\data.h

; 270  : 	if( dwIndex >= (DWORD)m_nMaxIndex )

  00014	8b 35 30 02 00
	00		 mov	 esi, DWORD PTR ?prj@@3VCProject@@A+560
  0001a	72 04		 jb	 SHORT $LN18@IsVisPet

; 271  : 		return NULL;

  0001c	33 c9		 xor	 ecx, ecx
  0001e	eb 03		 jmp	 SHORT $LN8@IsVisPet
$LN18@IsVisPet:

; 272  : 	return (T*) m_apOffset[ dwIndex ];

  00020	8b 0c 96	 mov	 ecx, DWORD PTR [esi+edx*4]
$LN8@IsVisPet:
; File C:\IAGOS\server\v18\Source\Source\_Common\Item.h

; 275  : 	BOOL	IsVisPet()	{ return ( GetProp() && GetProp()->IsVisPet() ) || IsTransformVisPet() ; }

  00023	85 c9		 test	 ecx, ecx
  00025	74 60		 je	 SHORT $LN3@IsVisPet
; File C:\IAGOS\server\v18\Source\Source\_Common\Project.h

; 1389 : 	VERIFY_RANGE_ASSERT( nIndex, 0, m_aPropItem.GetSize(), "GetItemProp range_error", NULL );

  00027	3b d0		 cmp	 edx, eax
  00029	7d 07		 jge	 SHORT $LN27@IsVisPet
; File C:\IAGOS\server\v18\Source\Source\_Common\data.h

; 270  : 	if( dwIndex >= (DWORD)m_nMaxIndex )

  0002b	73 26		 jae	 SHORT $LN85@IsVisPet

; 272  : 	return (T*) m_apOffset[ dwIndex ];

  0002d	8b 0c 96	 mov	 ecx, DWORD PTR [esi+edx*4]
; File C:\IAGOS\server\v18\Source\Source\_Common\Project.h

; 1390 : 	return m_aPropItem.GetAt( nIndex ); 

  00030	eb 23		 jmp	 SHORT $LN22@IsVisPet
$LN27@IsVisPet:

; 579  : 	LPCTSTR szErr = Error( _T( "%s min:%d, max:%d, index:%d" ), szMsg, nMin, nMax, nIndex ); 

  00032	52		 push	 edx
  00033	50		 push	 eax
  00034	6a 00		 push	 0
  00036	68 00 00 00 00	 push	 OFFSET ??_C@_0BI@BEIFNGEL@GetItemProp?5range_error@
  0003b	68 00 00 00 00	 push	 OFFSET ??_C@_0BM@HMFGHCP@?$CFs?5min?3?$CFd?0?5max?3?$CFd?0?5index?3?$CFd@
  00040	e8 00 00 00 00	 call	 ?Error@@YAPBDPBDZZ	; Error

; 1389 : 	VERIFY_RANGE_ASSERT( nIndex, 0, m_aPropItem.GetSize(), "GetItemProp range_error", NULL );

  00045	a1 40 02 00 00	 mov	 eax, DWORD PTR ?prj@@3VCProject@@A+576

; 579  : 	LPCTSTR szErr = Error( _T( "%s min:%d, max:%d, index:%d" ), szMsg, nMin, nMax, nIndex ); 

  0004a	83 c4 14	 add	 esp, 20			; 00000014H

; 1389 : 	VERIFY_RANGE_ASSERT( nIndex, 0, m_aPropItem.GetSize(), "GetItemProp range_error", NULL );

  0004d	8b 35 30 02 00
	00		 mov	 esi, DWORD PTR ?prj@@3VCProject@@A+560
$LN85@IsVisPet:
; File C:\IAGOS\server\v18\Source\Source\_Common\ProjectCmn.h

; 456  : 	BOOL	IsVisPet()	{ return (dwItemKind3 == IK3_PET) && (dwReferStat1 == PET_VIS); }

  00053	33 c9		 xor	 ecx, ecx
$LN22@IsVisPet:
  00055	83 79 78 64	 cmp	 DWORD PTR [ecx+120], 100 ; 00000064H
  00059	75 2c		 jne	 SHORT $LN3@IsVisPet
  0005b	83 b9 d0 01 00
	00 01		 cmp	 DWORD PTR [ecx+464], 1
  00062	74 6d		 je	 SHORT $LN4@IsVisPet
  00064	eb 21		 jmp	 SHORT $LN3@IsVisPet
$LN13@IsVisPet:
; File C:\IAGOS\server\v18\Source\Source\_Common\Project.h

; 579  : 	LPCTSTR szErr = Error( _T( "%s min:%d, max:%d, index:%d" ), szMsg, nMin, nMax, nIndex ); 

  00066	52		 push	 edx
  00067	50		 push	 eax
  00068	6a 00		 push	 0
  0006a	68 00 00 00 00	 push	 OFFSET ??_C@_0BI@BEIFNGEL@GetItemProp?5range_error@
  0006f	68 00 00 00 00	 push	 OFFSET ??_C@_0BM@HMFGHCP@?$CFs?5min?3?$CFd?0?5max?3?$CFd?0?5index?3?$CFd@
  00074	e8 00 00 00 00	 call	 ?Error@@YAPBDPBDZZ	; Error
  00079	a1 40 02 00 00	 mov	 eax, DWORD PTR ?prj@@3VCProject@@A+576
  0007e	83 c4 14	 add	 esp, 20			; 00000014H
  00081	8b 35 30 02 00
	00		 mov	 esi, DWORD PTR ?prj@@3VCProject@@A+560
$LN3@IsVisPet:
; File C:\IAGOS\server\v18\Source\Source\_Common\Item.h

; 230  : 	ItemProp*	GetProp()	{	return prj.GetItemProp( m_dwItemId );	}

  00087	8b 4f 0c	 mov	 ecx, DWORD PTR [edi+12]
; File C:\IAGOS\server\v18\Source\Source\_Common\Project.h

; 1389 : 	VERIFY_RANGE_ASSERT( nIndex, 0, m_aPropItem.GetSize(), "GetItemProp range_error", NULL );

  0008a	85 c9		 test	 ecx, ecx
  0008c	78 4b		 js	 SHORT $LN49@IsVisPet
  0008e	3b c8		 cmp	 ecx, eax
  00090	7d 47		 jge	 SHORT $LN49@IsVisPet
; File C:\IAGOS\server\v18\Source\Source\_Common\data.h

; 270  : 	if( dwIndex >= (DWORD)m_nMaxIndex )

  00092	72 04		 jb	 SHORT $LN54@IsVisPet

; 271  : 		return NULL;

  00094	33 d2		 xor	 edx, edx
  00096	eb 03		 jmp	 SHORT $LN44@IsVisPet
$LN54@IsVisPet:

; 272  : 	return (T*) m_apOffset[ dwIndex ];

  00098	8b 14 8e	 mov	 edx, DWORD PTR [esi+ecx*4]
$LN44@IsVisPet:
; File C:\IAGOS\server\v18\Source\Source\_Common\Item.h

; 281  : 	BOOL	IsTransformVisPet() { return GetProp() && GetProp()->dwItemKind3 == IK3_PET && m_bTranformVisPet; }

  0009b	85 d2		 test	 edx, edx
  0009d	74 50		 je	 SHORT $LN70@IsVisPet
; File C:\IAGOS\server\v18\Source\Source\_Common\Project.h

; 1389 : 	VERIFY_RANGE_ASSERT( nIndex, 0, m_aPropItem.GetSize(), "GetItemProp range_error", NULL );

  0009f	3b c8		 cmp	 ecx, eax
  000a1	7d 07		 jge	 SHORT $LN63@IsVisPet
; File C:\IAGOS\server\v18\Source\Source\_Common\data.h

; 270  : 	if( dwIndex >= (DWORD)m_nMaxIndex )

  000a3	73 1b		 jae	 SHORT $LN86@IsVisPet

; 272  : 	return (T*) m_apOffset[ dwIndex ];

  000a5	8b 04 8e	 mov	 eax, DWORD PTR [esi+ecx*4]
; File C:\IAGOS\server\v18\Source\Source\_Common\Project.h

; 1390 : 	return m_aPropItem.GetAt( nIndex ); 

  000a8	eb 18		 jmp	 SHORT $LN58@IsVisPet
$LN63@IsVisPet:

; 579  : 	LPCTSTR szErr = Error( _T( "%s min:%d, max:%d, index:%d" ), szMsg, nMin, nMax, nIndex ); 

  000aa	51		 push	 ecx
  000ab	50		 push	 eax
  000ac	6a 00		 push	 0
  000ae	68 00 00 00 00	 push	 OFFSET ??_C@_0BI@BEIFNGEL@GetItemProp?5range_error@
  000b3	68 00 00 00 00	 push	 OFFSET ??_C@_0BM@HMFGHCP@?$CFs?5min?3?$CFd?0?5max?3?$CFd?0?5index?3?$CFd@
  000b8	e8 00 00 00 00	 call	 ?Error@@YAPBDPBDZZ	; Error
  000bd	83 c4 14	 add	 esp, 20			; 00000014H
$LN86@IsVisPet:
; File C:\IAGOS\server\v18\Source\Source\_Common\Item.h

; 281  : 	BOOL	IsTransformVisPet() { return GetProp() && GetProp()->dwItemKind3 == IK3_PET && m_bTranformVisPet; }

  000c0	33 c0		 xor	 eax, eax
$LN58@IsVisPet:
  000c2	83 78 78 64	 cmp	 DWORD PTR [eax+120], 100 ; 00000064H
  000c6	75 27		 jne	 SHORT $LN70@IsVisPet
  000c8	83 bf ac 00 00
	00 00		 cmp	 DWORD PTR [edi+172], 0
  000cf	74 1e		 je	 SHORT $LN70@IsVisPet
$LN4@IsVisPet:
  000d1	5f		 pop	 edi

; 275  : 	BOOL	IsVisPet()	{ return ( GetProp() && GetProp()->IsVisPet() ) || IsTransformVisPet() ; }

  000d2	b8 01 00 00 00	 mov	 eax, 1
  000d7	5e		 pop	 esi
  000d8	c3		 ret	 0
$LN49@IsVisPet:
; File C:\IAGOS\server\v18\Source\Source\_Common\Project.h

; 579  : 	LPCTSTR szErr = Error( _T( "%s min:%d, max:%d, index:%d" ), szMsg, nMin, nMax, nIndex ); 

  000d9	51		 push	 ecx
  000da	50		 push	 eax
  000db	6a 00		 push	 0
  000dd	68 00 00 00 00	 push	 OFFSET ??_C@_0BI@BEIFNGEL@GetItemProp?5range_error@
  000e2	68 00 00 00 00	 push	 OFFSET ??_C@_0BM@HMFGHCP@?$CFs?5min?3?$CFd?0?5max?3?$CFd?0?5index?3?$CFd@
  000e7	e8 00 00 00 00	 call	 ?Error@@YAPBDPBDZZ	; Error
  000ec	83 c4 14	 add	 esp, 20			; 00000014H
$LN70@IsVisPet:
  000ef	5f		 pop	 edi
; File C:\IAGOS\server\v18\Source\Source\_Common\Item.h

; 275  : 	BOOL	IsVisPet()	{ return ( GetProp() && GetProp()->IsVisPet() ) || IsTransformVisPet() ; }

  000f0	33 c0		 xor	 eax, eax
  000f2	5e		 pop	 esi
  000f3	c3		 ret	 0
?IsVisPet@CItemElem@@QAEHXZ ENDP			; CItemElem::IsVisPet
_TEXT	ENDS
; Function compile flags: /Ogtp
; File C:\IAGOS\server\v18\Source\Source\_Common\Item.h
; File C:\IAGOS\server\v18\Source\Source\_Common\Project.h
; File C:\IAGOS\server\v18\Source\Source\_Common\data.h
; File C:\IAGOS\server\v18\Source\Source\_Common\Item.h
; File C:\IAGOS\server\v18\Source\Source\_Common\Project.h
; File C:\IAGOS\server\v18\Source\Source\_Common\Item.h
;	COMDAT ?GetPropA@CItemElem@@QAEPAUItemProp@@XZ
_TEXT	SEGMENT
?GetPropA@CItemElem@@QAEPAUItemProp@@XZ PROC		; CItemElem::GetPropA, COMDAT
; _this$ = ecx

; 230  : 	ItemProp*	GetProp()	{	return prj.GetItemProp( m_dwItemId );	}

  00000	8b 49 0c	 mov	 ecx, DWORD PTR [ecx+12]
; File C:\IAGOS\server\v18\Source\Source\_Common\Project.h

; 1389 : 	VERIFY_RANGE_ASSERT( nIndex, 0, m_aPropItem.GetSize(), "GetItemProp range_error", NULL );

  00003	a1 40 02 00 00	 mov	 eax, DWORD PTR ?prj@@3VCProject@@A+576
  00008	85 c9		 test	 ecx, ecx
  0000a	78 0f		 js	 SHORT $LN8@GetPropA
  0000c	3b c8		 cmp	 ecx, eax
  0000e	7d 0b		 jge	 SHORT $LN8@GetPropA
; File C:\IAGOS\server\v18\Source\Source\_Common\data.h

; 270  : 	if( dwIndex >= (DWORD)m_nMaxIndex )

  00010	73 1f		 jae	 SHORT $LN15@GetPropA

; 271  : 		return NULL;
; 272  : 	return (T*) m_apOffset[ dwIndex ];

  00012	a1 30 02 00 00	 mov	 eax, DWORD PTR ?prj@@3VCProject@@A+560
  00017	8b 04 88	 mov	 eax, DWORD PTR [eax+ecx*4]
; File C:\IAGOS\server\v18\Source\Source\_Common\Item.h

; 230  : 	ItemProp*	GetProp()	{	return prj.GetItemProp( m_dwItemId );	}

  0001a	c3		 ret	 0
$LN8@GetPropA:
; File C:\IAGOS\server\v18\Source\Source\_Common\Project.h

; 579  : 	LPCTSTR szErr = Error( _T( "%s min:%d, max:%d, index:%d" ), szMsg, nMin, nMax, nIndex ); 

  0001b	51		 push	 ecx
  0001c	50		 push	 eax
  0001d	6a 00		 push	 0
  0001f	68 00 00 00 00	 push	 OFFSET ??_C@_0BI@BEIFNGEL@GetItemProp?5range_error@
  00024	68 00 00 00 00	 push	 OFFSET ??_C@_0BM@HMFGHCP@?$CFs?5min?3?$CFd?0?5max?3?$CFd?0?5index?3?$CFd@
  00029	e8 00 00 00 00	 call	 ?Error@@YAPBDPBDZZ	; Error
  0002e	83 c4 14	 add	 esp, 20			; 00000014H
$LN15@GetPropA:
; File C:\IAGOS\server\v18\Source\Source\_Common\Item.h

; 230  : 	ItemProp*	GetProp()	{	return prj.GetItemProp( m_dwItemId );	}

  00031	33 c0		 xor	 eax, eax
  00033	c3		 ret	 0
?GetPropA@CItemElem@@QAEPAUItemProp@@XZ ENDP		; CItemElem::GetPropA
_TEXT	ENDS
; Function compile flags: /Ogtp
; File C:\IAGOS\server\v18\Source\Source\_Common\Project.h
; File C:\IAGOS\server\v18\Source\Source\_Common\data.h
; File C:\IAGOS\server\v18\Source\Source\_Common\Project.h
;	COMDAT ?GetItemProp@CProject@@QAEPAUItemProp@@H@Z
_TEXT	SEGMENT
_nIndex$ = 8						; size = 4
?GetItemProp@CProject@@QAEPAUItemProp@@H@Z PROC		; CProject::GetItemProp, COMDAT
; _this$ = ecx

; 1388 : { 

  00000	55		 push	 ebp
  00001	8b ec		 mov	 ebp, esp

; 1389 : 	VERIFY_RANGE_ASSERT( nIndex, 0, m_aPropItem.GetSize(), "GetItemProp range_error", NULL );

  00003	8b 55 08	 mov	 edx, DWORD PTR _nIndex$[ebp]
  00006	56		 push	 esi
  00007	85 d2		 test	 edx, edx
  00009	78 18		 js	 SHORT $LN14@GetItemPro
  0000b	3b 91 40 02 00
	00		 cmp	 edx, DWORD PTR [ecx+576]
  00011	7d 10		 jge	 SHORT $LN14@GetItemPro
; File C:\IAGOS\server\v18\Source\Source\_Common\data.h

; 270  : 	if( dwIndex >= (DWORD)m_nMaxIndex )

  00013	73 29		 jae	 SHORT $LN18@GetItemPro

; 271  : 		return NULL;
; 272  : 	return (T*) m_apOffset[ dwIndex ];

  00015	8b 81 30 02 00
	00		 mov	 eax, DWORD PTR [ecx+560]
  0001b	5e		 pop	 esi
  0001c	8b 04 90	 mov	 eax, DWORD PTR [eax+edx*4]
; File C:\IAGOS\server\v18\Source\Source\_Common\Project.h

; 1391 : }

  0001f	5d		 pop	 ebp
  00020	c2 04 00	 ret	 4
$LN14@GetItemPro:

; 579  : 	LPCTSTR szErr = Error( _T( "%s min:%d, max:%d, index:%d" ), szMsg, nMin, nMax, nIndex ); 

  00023	52		 push	 edx
  00024	ff b1 40 02 00
	00		 push	 DWORD PTR [ecx+576]
  0002a	6a 00		 push	 0
  0002c	68 00 00 00 00	 push	 OFFSET ??_C@_0BI@BEIFNGEL@GetItemProp?5range_error@
  00031	68 00 00 00 00	 push	 OFFSET ??_C@_0BM@HMFGHCP@?$CFs?5min?3?$CFd?0?5max?3?$CFd?0?5index?3?$CFd@
  00036	e8 00 00 00 00	 call	 ?Error@@YAPBDPBDZZ	; Error
  0003b	83 c4 14	 add	 esp, 20			; 00000014H
$LN18@GetItemPro:

; 1391 : }

  0003e	33 c0		 xor	 eax, eax
  00040	5e		 pop	 esi
  00041	5d		 pop	 ebp
  00042	c2 04 00	 ret	 4
?GetItemProp@CProject@@QAEPAUItemProp@@H@Z ENDP		; CProject::GetItemProp
_TEXT	ENDS
; Function compile flags: /Ogtp
;	COMDAT ??1?$map@HHU?$less@H@std@@V?$allocator@U?$pair@$$CBHH@std@@@2@@std@@QAE@XZ
_TEXT	SEGMENT
??1?$map@HHU?$less@H@std@@V?$allocator@U?$pair@$$CBHH@std@@@2@@std@@QAE@XZ PROC ; std::map<int,int,std::less<int>,std::allocator<std::pair<int const ,int> > >::~map<int,int,std::less<int>,std::allocator<std::pair<int const ,int> > >, COMDAT
; _this$ = ecx
  00000	e9 00 00 00 00	 jmp	 ??1?$_Tree@V?$_Tmap_traits@HHU?$less@H@std@@V?$allocator@U?$pair@$$CBHH@std@@@2@$0A@@std@@@std@@QAE@XZ ; std::_Tree<std::_Tmap_traits<int,int,std::less<int>,std::allocator<std::pair<int const ,int> >,0> >::~_Tree<std::_Tmap_traits<int,int,std::less<int>,std::allocator<std::pair<int const ,int> >,0> >
??1?$map@HHU?$less@H@std@@V?$allocator@U?$pair@$$CBHH@std@@@2@@std@@QAE@XZ ENDP ; std::map<int,int,std::less<int>,std::allocator<std::pair<int const ,int> > >::~map<int,int,std::less<int>,std::allocator<std::pair<int const ,int> > >
_TEXT	ENDS
; Function compile flags: /Ogtp
; File C:\Program Files\Microsoft Visual Studio\2022\Professional\VC\Tools\MSVC\14.44.35207\include\xtree
;	COMDAT ?_Insert_node@?$_Tree_val@U?$_Tree_simple_types@U?$pair@$$CBHH@std@@@std@@@std@@QAEPAU?$_Tree_node@U?$pair@$$CBHH@std@@PAX@2@U?$_Tree_id@PAU?$_Tree_node@U?$pair@$$CBHH@std@@PAX@std@@@2@QAU32@@Z
_TEXT	SEGMENT
__Head$1$ = -4						; size = 4
__Loc$ = 8						; size = 8
__Newnode$ = 16						; size = 4
?_Insert_node@?$_Tree_val@U?$_Tree_simple_types@U?$pair@$$CBHH@std@@@std@@@std@@QAEPAU?$_Tree_node@U?$pair@$$CBHH@std@@PAX@2@U?$_Tree_id@PAU?$_Tree_node@U?$pair@$$CBHH@std@@PAX@std@@@2@QAU32@@Z PROC ; std::_Tree_val<std::_Tree_simple_types<std::pair<int const ,int> > >::_Insert_node, COMDAT
; _this$ = ecx

; 669  :     _Nodeptr _Insert_node(const _Tree_id<_Nodeptr> _Loc, const _Nodeptr _Newnode) noexcept {

  00000	55		 push	 ebp
  00001	8b ec		 mov	 ebp, esp
  00003	51		 push	 ecx

; 670  :         ++_Mysize;
; 671  :         const auto _Head  = _Myhead;
; 672  :         _Newnode->_Parent = _Loc._Parent;

  00004	8b 55 08	 mov	 edx, DWORD PTR __Loc$[ebp]
  00007	53		 push	 ebx
  00008	8b d9		 mov	 ebx, ecx
  0000a	57		 push	 edi
  0000b	8b 7d 10	 mov	 edi, DWORD PTR __Newnode$[ebp]
  0000e	8b 03		 mov	 eax, DWORD PTR [ebx]
  00010	ff 43 04	 inc	 DWORD PTR [ebx+4]
  00013	89 45 fc	 mov	 DWORD PTR __Head$1$[ebp], eax
  00016	89 57 04	 mov	 DWORD PTR [edi+4], edx

; 673  :         if (_Loc._Parent == _Head) { // first node in tree, just set head values

  00019	3b d0		 cmp	 edx, eax
  0001b	75 16		 jne	 SHORT $LN5@Insert_nod

; 674  :             _Head->_Left     = _Newnode;

  0001d	89 38		 mov	 DWORD PTR [eax], edi

; 675  :             _Head->_Parent   = _Newnode;

  0001f	89 78 04	 mov	 DWORD PTR [eax+4], edi

; 676  :             _Head->_Right    = _Newnode;

  00022	89 78 08	 mov	 DWORD PTR [eax+8], edi

; 735  :         return _Newnode;
; 736  :     }

  00025	8b c7		 mov	 eax, edi
  00027	c6 47 0c 01	 mov	 BYTE PTR [edi+12], 1
  0002b	5f		 pop	 edi
  0002c	5b		 pop	 ebx
  0002d	8b e5		 mov	 esp, ebp
  0002f	5d		 pop	 ebp
  00030	c2 0c 00	 ret	 12			; 0000000cH
$LN5@Insert_nod:

; 677  :             _Newnode->_Color = _Black; // the root is black
; 678  :             return _Newnode;
; 679  :         }
; 680  : 
; 681  :         _STL_INTERNAL_CHECK(_Loc._Child != _Tree_child::_Unused);
; 682  :         if (_Loc._Child == _Tree_child::_Right) { // add to right of _Loc._Parent

  00033	83 7d 0c 00	 cmp	 DWORD PTR __Loc$[ebp+4], 0
  00037	75 0d		 jne	 SHORT $LN6@Insert_nod

; 683  :             _STL_INTERNAL_CHECK(_Loc._Parent->_Right->_Isnil);
; 684  :             _Loc._Parent->_Right = _Newnode;

  00039	89 7a 08	 mov	 DWORD PTR [edx+8], edi

; 685  :             if (_Loc._Parent == _Head->_Right) { // remember rightmost node

  0003c	3b 50 08	 cmp	 edx, DWORD PTR [eax+8]
  0003f	75 0d		 jne	 SHORT $LN9@Insert_nod

; 686  :                 _Head->_Right = _Newnode;

  00041	89 78 08	 mov	 DWORD PTR [eax+8], edi

; 687  :             }
; 688  :         } else { // add to left of _Loc._Parent

  00044	eb 08		 jmp	 SHORT $LN9@Insert_nod
$LN6@Insert_nod:

; 689  :             _STL_INTERNAL_CHECK(_Loc._Parent->_Left->_Isnil);
; 690  :             _Loc._Parent->_Left = _Newnode;

  00046	89 3a		 mov	 DWORD PTR [edx], edi

; 691  :             if (_Loc._Parent == _Head->_Left) { // remember leftmost node

  00048	3b 10		 cmp	 edx, DWORD PTR [eax]
  0004a	75 02		 jne	 SHORT $LN9@Insert_nod

; 692  :                 _Head->_Left = _Newnode;

  0004c	89 38		 mov	 DWORD PTR [eax], edi
$LN9@Insert_nod:

; 693  :             }
; 694  :         }
; 695  : 
; 696  :         for (_Nodeptr _Pnode = _Newnode; _Pnode->_Parent->_Color == _Red;) {

  0004e	8b 4f 04	 mov	 ecx, DWORD PTR [edi+4]
  00051	8b c7		 mov	 eax, edi
  00053	80 79 0c 00	 cmp	 BYTE PTR [ecx+12], 0
  00057	0f 85 7d 01 00
	00		 jne	 $LN3@Insert_nod
  0005d	56		 push	 esi
  0005e	66 90		 npad	 2
$LL4@Insert_nod:

; 697  :             if (_Pnode->_Parent == _Pnode->_Parent->_Parent->_Left) { // fixup red-red in left subtree

  00060	8b 50 04	 mov	 edx, DWORD PTR [eax+4]
  00063	8b 72 04	 mov	 esi, DWORD PTR [edx+4]
  00066	8b 0e		 mov	 ecx, DWORD PTR [esi]
  00068	3b d1		 cmp	 edx, ecx
  0006a	0f 85 aa 00 00
	00		 jne	 $LN10@Insert_nod

; 698  :                 const auto _Parent_sibling = _Pnode->_Parent->_Parent->_Right;

  00070	8b 4e 08	 mov	 ecx, DWORD PTR [esi+8]

; 699  :                 if (_Parent_sibling->_Color == _Red) { // parent's sibling has two red children, blacken both

  00073	80 79 0c 00	 cmp	 BYTE PTR [ecx+12], 0
  00077	0f 84 a3 00 00
	00		 je	 $LN82@Insert_nod

; 700  :                     _Pnode->_Parent->_Color          = _Black;
; 701  :                     _Parent_sibling->_Color          = _Black;
; 702  :                     _Pnode->_Parent->_Parent->_Color = _Red;
; 703  :                     _Pnode                           = _Pnode->_Parent->_Parent;
; 704  :                 } else { // parent's sibling has red and black children
; 705  :                     if (_Pnode == _Pnode->_Parent->_Right) { // rotate right child to left

  0007d	8b 72 08	 mov	 esi, DWORD PTR [edx+8]
  00080	3b c6		 cmp	 eax, esi
  00082	75 37		 jne	 SHORT $LN57@Insert_nod

; 485  :         _Wherenode->_Right = _Pnode->_Left;

  00084	8b 0e		 mov	 ecx, DWORD PTR [esi]

; 706  :                         _Pnode = _Pnode->_Parent;

  00086	8b c2		 mov	 eax, edx

; 485  :         _Wherenode->_Right = _Pnode->_Left;

  00088	89 4a 08	 mov	 DWORD PTR [edx+8], ecx

; 486  : 
; 487  :         if (!_Pnode->_Left->_Isnil) {

  0008b	8b 0e		 mov	 ecx, DWORD PTR [esi]
  0008d	80 79 0d 00	 cmp	 BYTE PTR [ecx+13], 0
  00091	75 03		 jne	 SHORT $LN21@Insert_nod

; 488  :             _Pnode->_Left->_Parent = _Wherenode;

  00093	89 41 04	 mov	 DWORD PTR [ecx+4], eax
$LN21@Insert_nod:

; 489  :         }
; 490  : 
; 491  :         _Pnode->_Parent = _Wherenode->_Parent;

  00096	8b 4a 04	 mov	 ecx, DWORD PTR [edx+4]
  00099	89 4e 04	 mov	 DWORD PTR [esi+4], ecx

; 492  : 
; 493  :         if (_Wherenode == _Myhead->_Parent) {

  0009c	8b 0b		 mov	 ecx, DWORD PTR [ebx]
  0009e	3b 41 04	 cmp	 eax, DWORD PTR [ecx+4]
  000a1	75 05		 jne	 SHORT $LN22@Insert_nod

; 494  :             _Myhead->_Parent = _Pnode;

  000a3	89 71 04	 mov	 DWORD PTR [ecx+4], esi
  000a6	eb 0e		 jmp	 SHORT $LN25@Insert_nod
$LN22@Insert_nod:

; 495  :         } else if (_Wherenode == _Wherenode->_Parent->_Left) {

  000a8	8b 4a 04	 mov	 ecx, DWORD PTR [edx+4]
  000ab	3b 01		 cmp	 eax, DWORD PTR [ecx]
  000ad	75 04		 jne	 SHORT $LN24@Insert_nod

; 496  :             _Wherenode->_Parent->_Left = _Pnode;

  000af	89 31		 mov	 DWORD PTR [ecx], esi

; 497  :         } else {

  000b1	eb 03		 jmp	 SHORT $LN25@Insert_nod
$LN24@Insert_nod:

; 498  :             _Wherenode->_Parent->_Right = _Pnode;

  000b3	89 71 08	 mov	 DWORD PTR [ecx+8], esi
$LN25@Insert_nod:

; 499  :         }
; 500  : 
; 501  :         _Pnode->_Left       = _Wherenode;

  000b6	89 06		 mov	 DWORD PTR [esi], eax

; 502  :         _Wherenode->_Parent = _Pnode;

  000b8	89 70 04	 mov	 DWORD PTR [eax+4], esi
$LN57@Insert_nod:

; 707  :                         _Lrotate(_Pnode);
; 708  :                     }
; 709  : 
; 710  :                     _Pnode->_Parent->_Color          = _Black; // propagate red up

  000bb	8b 48 04	 mov	 ecx, DWORD PTR [eax+4]
  000be	c6 41 0c 01	 mov	 BYTE PTR [ecx+12], 1

; 711  :                     _Pnode->_Parent->_Parent->_Color = _Red;

  000c2	8b 48 04	 mov	 ecx, DWORD PTR [eax+4]
  000c5	8b 49 04	 mov	 ecx, DWORD PTR [ecx+4]
  000c8	c6 41 0c 00	 mov	 BYTE PTR [ecx+12], 0

; 712  :                     _Rrotate(_Pnode->_Parent->_Parent);

  000cc	8b 48 04	 mov	 ecx, DWORD PTR [eax+4]
  000cf	8b 51 04	 mov	 edx, DWORD PTR [ecx+4]

; 506  :         _Nodeptr _Pnode   = _Wherenode->_Left;

  000d2	8b 32		 mov	 esi, DWORD PTR [edx]

; 507  :         _Wherenode->_Left = _Pnode->_Right;

  000d4	8b 4e 08	 mov	 ecx, DWORD PTR [esi+8]
  000d7	89 0a		 mov	 DWORD PTR [edx], ecx

; 508  : 
; 509  :         if (!_Pnode->_Right->_Isnil) {

  000d9	8b 4e 08	 mov	 ecx, DWORD PTR [esi+8]
  000dc	80 79 0d 00	 cmp	 BYTE PTR [ecx+13], 0
  000e0	75 03		 jne	 SHORT $LN29@Insert_nod

; 510  :             _Pnode->_Right->_Parent = _Wherenode;

  000e2	89 51 04	 mov	 DWORD PTR [ecx+4], edx
$LN29@Insert_nod:

; 511  :         }
; 512  : 
; 513  :         _Pnode->_Parent = _Wherenode->_Parent;

  000e5	8b 4a 04	 mov	 ecx, DWORD PTR [edx+4]
  000e8	89 4e 04	 mov	 DWORD PTR [esi+4], ecx

; 514  : 
; 515  :         if (_Wherenode == _Myhead->_Parent) {

  000eb	8b 0b		 mov	 ecx, DWORD PTR [ebx]
  000ed	3b 51 04	 cmp	 edx, DWORD PTR [ecx+4]
  000f0	75 0b		 jne	 SHORT $LN30@Insert_nod

; 516  :             _Myhead->_Parent = _Pnode;

  000f2	89 71 04	 mov	 DWORD PTR [ecx+4], esi

; 521  :         }
; 522  : 
; 523  :         _Pnode->_Right      = _Wherenode;

  000f5	89 56 08	 mov	 DWORD PTR [esi+8], edx

; 713  :                 }
; 714  :             } else { // fixup red-red in right subtree

  000f8	e9 cc 00 00 00	 jmp	 $LN81@Insert_nod
$LN30@Insert_nod:

; 517  :         } else if (_Wherenode == _Wherenode->_Parent->_Right) {

  000fd	8b 4a 04	 mov	 ecx, DWORD PTR [edx+4]
  00100	3b 51 08	 cmp	 edx, DWORD PTR [ecx+8]
  00103	75 0b		 jne	 SHORT $LN32@Insert_nod

; 518  :             _Wherenode->_Parent->_Right = _Pnode;

  00105	89 71 08	 mov	 DWORD PTR [ecx+8], esi

; 521  :         }
; 522  : 
; 523  :         _Pnode->_Right      = _Wherenode;

  00108	89 56 08	 mov	 DWORD PTR [esi+8], edx

; 713  :                 }
; 714  :             } else { // fixup red-red in right subtree

  0010b	e9 b9 00 00 00	 jmp	 $LN81@Insert_nod
$LN32@Insert_nod:

; 520  :             _Wherenode->_Parent->_Left = _Pnode;

  00110	89 31		 mov	 DWORD PTR [ecx], esi

; 521  :         }
; 522  : 
; 523  :         _Pnode->_Right      = _Wherenode;

  00112	89 56 08	 mov	 DWORD PTR [esi+8], edx

; 713  :                 }
; 714  :             } else { // fixup red-red in right subtree

  00115	e9 af 00 00 00	 jmp	 $LN81@Insert_nod
$LN10@Insert_nod:

; 715  :                 const auto _Parent_sibling = _Pnode->_Parent->_Parent->_Left;
; 716  :                 if (_Parent_sibling->_Color == _Red) { // parent's sibling has two red children, blacken both

  0011a	80 79 0c 00	 cmp	 BYTE PTR [ecx+12], 0
  0011e	75 1d		 jne	 SHORT $LN15@Insert_nod
$LN82@Insert_nod:

; 693  :             }
; 694  :         }
; 695  : 
; 696  :         for (_Nodeptr _Pnode = _Newnode; _Pnode->_Parent->_Color == _Red;) {

  00120	c6 42 0c 01	 mov	 BYTE PTR [edx+12], 1
  00124	c6 41 0c 01	 mov	 BYTE PTR [ecx+12], 1
  00128	8b 48 04	 mov	 ecx, DWORD PTR [eax+4]
  0012b	8b 49 04	 mov	 ecx, DWORD PTR [ecx+4]
  0012e	c6 41 0c 00	 mov	 BYTE PTR [ecx+12], 0
  00132	8b 48 04	 mov	 ecx, DWORD PTR [eax+4]
  00135	8b 41 04	 mov	 eax, DWORD PTR [ecx+4]
  00138	e9 8f 00 00 00	 jmp	 $LN2@Insert_nod
$LN15@Insert_nod:

; 717  :                     _Pnode->_Parent->_Color          = _Black;
; 718  :                     _Parent_sibling->_Color          = _Black;
; 719  :                     _Pnode->_Parent->_Parent->_Color = _Red;
; 720  :                     _Pnode                           = _Pnode->_Parent->_Parent;
; 721  :                 } else { // parent's sibling has red and black children
; 722  :                     if (_Pnode == _Pnode->_Parent->_Left) { // rotate left child to right

  0013d	8b 32		 mov	 esi, DWORD PTR [edx]
  0013f	3b c6		 cmp	 eax, esi
  00141	75 3a		 jne	 SHORT $LN42@Insert_nod

; 507  :         _Wherenode->_Left = _Pnode->_Right;

  00143	8b 4e 08	 mov	 ecx, DWORD PTR [esi+8]

; 723  :                         _Pnode = _Pnode->_Parent;

  00146	8b c2		 mov	 eax, edx

; 507  :         _Wherenode->_Left = _Pnode->_Right;

  00148	89 08		 mov	 DWORD PTR [eax], ecx

; 508  : 
; 509  :         if (!_Pnode->_Right->_Isnil) {

  0014a	8b 4e 08	 mov	 ecx, DWORD PTR [esi+8]
  0014d	80 79 0d 00	 cmp	 BYTE PTR [ecx+13], 0
  00151	75 03		 jne	 SHORT $LN37@Insert_nod

; 510  :             _Pnode->_Right->_Parent = _Wherenode;

  00153	89 41 04	 mov	 DWORD PTR [ecx+4], eax
$LN37@Insert_nod:

; 511  :         }
; 512  : 
; 513  :         _Pnode->_Parent = _Wherenode->_Parent;

  00156	8b 4a 04	 mov	 ecx, DWORD PTR [edx+4]
  00159	89 4e 04	 mov	 DWORD PTR [esi+4], ecx

; 514  : 
; 515  :         if (_Wherenode == _Myhead->_Parent) {

  0015c	8b 0b		 mov	 ecx, DWORD PTR [ebx]
  0015e	3b 41 04	 cmp	 eax, DWORD PTR [ecx+4]
  00161	75 05		 jne	 SHORT $LN38@Insert_nod

; 516  :             _Myhead->_Parent = _Pnode;

  00163	89 71 04	 mov	 DWORD PTR [ecx+4], esi
  00166	eb 0f		 jmp	 SHORT $LN41@Insert_nod
$LN38@Insert_nod:

; 517  :         } else if (_Wherenode == _Wherenode->_Parent->_Right) {

  00168	8b 4a 04	 mov	 ecx, DWORD PTR [edx+4]
  0016b	3b 41 08	 cmp	 eax, DWORD PTR [ecx+8]
  0016e	75 05		 jne	 SHORT $LN40@Insert_nod

; 518  :             _Wherenode->_Parent->_Right = _Pnode;

  00170	89 71 08	 mov	 DWORD PTR [ecx+8], esi

; 519  :         } else {

  00173	eb 02		 jmp	 SHORT $LN41@Insert_nod
$LN40@Insert_nod:

; 520  :             _Wherenode->_Parent->_Left = _Pnode;

  00175	89 31		 mov	 DWORD PTR [ecx], esi
$LN41@Insert_nod:

; 521  :         }
; 522  : 
; 523  :         _Pnode->_Right      = _Wherenode;

  00177	89 46 08	 mov	 DWORD PTR [esi+8], eax

; 524  :         _Wherenode->_Parent = _Pnode;

  0017a	89 70 04	 mov	 DWORD PTR [eax+4], esi
$LN42@Insert_nod:

; 724  :                         _Rrotate(_Pnode);
; 725  :                     }
; 726  : 
; 727  :                     _Pnode->_Parent->_Color          = _Black; // propagate red up

  0017d	8b 48 04	 mov	 ecx, DWORD PTR [eax+4]
  00180	c6 41 0c 01	 mov	 BYTE PTR [ecx+12], 1

; 728  :                     _Pnode->_Parent->_Parent->_Color = _Red;

  00184	8b 48 04	 mov	 ecx, DWORD PTR [eax+4]
  00187	8b 49 04	 mov	 ecx, DWORD PTR [ecx+4]
  0018a	c6 41 0c 00	 mov	 BYTE PTR [ecx+12], 0

; 729  :                     _Lrotate(_Pnode->_Parent->_Parent);

  0018e	8b 48 04	 mov	 ecx, DWORD PTR [eax+4]
  00191	8b 51 04	 mov	 edx, DWORD PTR [ecx+4]

; 484  :         _Nodeptr _Pnode    = _Wherenode->_Right;

  00194	8b 72 08	 mov	 esi, DWORD PTR [edx+8]

; 485  :         _Wherenode->_Right = _Pnode->_Left;

  00197	8b 0e		 mov	 ecx, DWORD PTR [esi]
  00199	89 4a 08	 mov	 DWORD PTR [edx+8], ecx

; 486  : 
; 487  :         if (!_Pnode->_Left->_Isnil) {

  0019c	8b 0e		 mov	 ecx, DWORD PTR [esi]
  0019e	80 79 0d 00	 cmp	 BYTE PTR [ecx+13], 0
  001a2	75 03		 jne	 SHORT $LN45@Insert_nod

; 488  :             _Pnode->_Left->_Parent = _Wherenode;

  001a4	89 51 04	 mov	 DWORD PTR [ecx+4], edx
$LN45@Insert_nod:

; 489  :         }
; 490  : 
; 491  :         _Pnode->_Parent = _Wherenode->_Parent;

  001a7	8b 4a 04	 mov	 ecx, DWORD PTR [edx+4]
  001aa	89 4e 04	 mov	 DWORD PTR [esi+4], ecx

; 492  : 
; 493  :         if (_Wherenode == _Myhead->_Parent) {

  001ad	8b 0b		 mov	 ecx, DWORD PTR [ebx]
  001af	3b 51 04	 cmp	 edx, DWORD PTR [ecx+4]
  001b2	75 05		 jne	 SHORT $LN46@Insert_nod

; 494  :             _Myhead->_Parent = _Pnode;

  001b4	89 71 04	 mov	 DWORD PTR [ecx+4], esi
  001b7	eb 0e		 jmp	 SHORT $LN49@Insert_nod
$LN46@Insert_nod:

; 495  :         } else if (_Wherenode == _Wherenode->_Parent->_Left) {

  001b9	8b 4a 04	 mov	 ecx, DWORD PTR [edx+4]
  001bc	3b 11		 cmp	 edx, DWORD PTR [ecx]
  001be	75 04		 jne	 SHORT $LN48@Insert_nod

; 496  :             _Wherenode->_Parent->_Left = _Pnode;

  001c0	89 31		 mov	 DWORD PTR [ecx], esi

; 497  :         } else {

  001c2	eb 03		 jmp	 SHORT $LN49@Insert_nod
$LN48@Insert_nod:

; 498  :             _Wherenode->_Parent->_Right = _Pnode;

  001c4	89 71 08	 mov	 DWORD PTR [ecx+8], esi
$LN49@Insert_nod:

; 499  :         }
; 500  : 
; 501  :         _Pnode->_Left       = _Wherenode;

  001c7	89 16		 mov	 DWORD PTR [esi], edx
$LN81@Insert_nod:

; 693  :             }
; 694  :         }
; 695  : 
; 696  :         for (_Nodeptr _Pnode = _Newnode; _Pnode->_Parent->_Color == _Red;) {

  001c9	89 72 04	 mov	 DWORD PTR [edx+4], esi
$LN2@Insert_nod:
  001cc	8b 48 04	 mov	 ecx, DWORD PTR [eax+4]
  001cf	80 79 0c 00	 cmp	 BYTE PTR [ecx+12], 0
  001d3	0f 84 87 fe ff
	ff		 je	 $LL4@Insert_nod
  001d9	5e		 pop	 esi
$LN3@Insert_nod:

; 730  :                 }
; 731  :             }
; 732  :         }
; 733  : 
; 734  :         _Head->_Parent->_Color = _Black; // root is always black

  001da	8b 45 fc	 mov	 eax, DWORD PTR __Head$1$[ebp]
  001dd	8b 40 04	 mov	 eax, DWORD PTR [eax+4]
  001e0	c6 40 0c 01	 mov	 BYTE PTR [eax+12], 1

; 735  :         return _Newnode;
; 736  :     }

  001e4	8b c7		 mov	 eax, edi
  001e6	5f		 pop	 edi
  001e7	5b		 pop	 ebx
  001e8	8b e5		 mov	 esp, ebp
  001ea	5d		 pop	 ebp
  001eb	c2 0c 00	 ret	 12			; 0000000cH
?_Insert_node@?$_Tree_val@U?$_Tree_simple_types@U?$pair@$$CBHH@std@@@std@@@std@@QAEPAU?$_Tree_node@U?$pair@$$CBHH@std@@PAX@2@U?$_Tree_id@PAU?$_Tree_node@U?$pair@$$CBHH@std@@PAX@std@@@2@QAU32@@Z ENDP ; std::_Tree_val<std::_Tree_simple_types<std::pair<int const ,int> > >::_Insert_node
_TEXT	ENDS
; Function compile flags: /Ogtp
; File C:\Program Files\Microsoft Visual Studio\2022\Professional\VC\Tools\MSVC\14.44.35207\include\xtree
; File C:\Program Files\Microsoft Visual Studio\2022\Professional\VC\Tools\MSVC\14.44.35207\include\utility
; File C:\Program Files\Microsoft Visual Studio\2022\Professional\VC\Tools\MSVC\14.44.35207\include\xmemory
; File C:\Program Files\Microsoft Visual Studio\2022\Professional\VC\Tools\MSVC\14.44.35207\include\xtree
;	COMDAT ?clear@?$_Tree@V?$_Tmap_traits@HHU?$less@H@std@@V?$allocator@U?$pair@$$CBHH@std@@@2@$0A@@std@@@std@@QAEXXZ
_TEXT	SEGMENT
?clear@?$_Tree@V?$_Tmap_traits@HHU?$less@H@std@@V?$allocator@U?$pair@$$CBHH@std@@@2@$0A@@std@@@std@@QAEXXZ PROC ; std::_Tree<std::_Tmap_traits<int,int,std::less<int>,std::allocator<std::pair<int const ,int> >,0> >::clear, COMDAT
; _this$ = ecx

; 1370 :     void clear() noexcept {

  00000	53		 push	 ebx
  00001	8b d9		 mov	 ebx, ecx
  00003	56		 push	 esi
  00004	57		 push	 edi

; 1371 :         const auto _Scary = _Get_scary();
; 1372 :         _Scary->_Orphan_ptr(nullptr);
; 1373 :         auto _Head = _Scary->_Myhead;

  00005	8b 3b		 mov	 edi, DWORD PTR [ebx]

; 1374 :         _Scary->_Erase_tree(_Getal(), _Head->_Parent);

  00007	8b 77 04	 mov	 esi, DWORD PTR [edi+4]

; 768  :         while (!_Rootnode->_Isnil) { // free subtrees, then node

  0000a	80 7e 0d 00	 cmp	 BYTE PTR [esi+13], 0
  0000e	75 20		 jne	 SHORT $LN38@clear
$LL5@clear:

; 769  :             _Erase_tree(_Al, _Rootnode->_Right);

  00010	ff 76 08	 push	 DWORD PTR [esi+8]
  00013	8b cb		 mov	 ecx, ebx
  00015	53		 push	 ebx
  00016	e8 00 00 00 00	 call	 ??$_Erase_tree@V?$allocator@U?$_Tree_node@U?$pair@$$CBHH@std@@PAX@std@@@std@@@?$_Tree_val@U?$_Tree_simple_types@U?$pair@$$CBHH@std@@@std@@@std@@QAEXAAV?$allocator@U?$_Tree_node@U?$pair@$$CBHH@std@@PAX@std@@@1@PAU?$_Tree_node@U?$pair@$$CBHH@std@@PAX@1@@Z ; std::_Tree_val<std::_Tree_simple_types<std::pair<int const ,int> > >::_Erase_tree<std::allocator<std::_Tree_node<std::pair<int const ,int>,void *> > >
; File C:\Program Files\Microsoft Visual Studio\2022\Professional\VC\Tools\MSVC\14.44.35207\include\utility

; 773  :     _Ty _Old_val = static_cast<_Ty&&>(_Val);

  0001b	8b c6		 mov	 eax, esi

; 774  :     _Val         = static_cast<_Other&&>(_New_val);

  0001d	8b 36		 mov	 esi, DWORD PTR [esi]
; File C:\Program Files\Microsoft Visual Studio\2022\Professional\VC\Tools\MSVC\14.44.35207\include\xmemory

; 289  :         ::operator delete(_Ptr, _Bytes);

  0001f	6a 18		 push	 24			; 00000018H
  00021	50		 push	 eax
  00022	e8 00 00 00 00	 call	 ??3@YAXPAXI@Z		; operator delete
  00027	83 c4 08	 add	 esp, 8
; File C:\Program Files\Microsoft Visual Studio\2022\Professional\VC\Tools\MSVC\14.44.35207\include\xtree

; 768  :         while (!_Rootnode->_Isnil) { // free subtrees, then node

  0002a	80 7e 0d 00	 cmp	 BYTE PTR [esi+13], 0
  0002e	74 e0		 je	 SHORT $LL5@clear
$LN38@clear:

; 1375 :         _Head->_Parent  = _Head;

  00030	89 7f 04	 mov	 DWORD PTR [edi+4], edi

; 1376 :         _Head->_Left    = _Head;

  00033	89 3f		 mov	 DWORD PTR [edi], edi

; 1377 :         _Head->_Right   = _Head;

  00035	89 7f 08	 mov	 DWORD PTR [edi+8], edi

; 1378 :         _Scary->_Mysize = 0;

  00038	5f		 pop	 edi
  00039	5e		 pop	 esi
  0003a	c7 43 04 00 00
	00 00		 mov	 DWORD PTR [ebx+4], 0
  00041	5b		 pop	 ebx

; 1379 :     }

  00042	c3		 ret	 0
?clear@?$_Tree@V?$_Tmap_traits@HHU?$less@H@std@@V?$allocator@U?$pair@$$CBHH@std@@@2@$0A@@std@@@std@@QAEXXZ ENDP ; std::_Tree<std::_Tmap_traits<int,int,std::less<int>,std::allocator<std::pair<int const ,int> >,0> >::clear
_TEXT	ENDS
; Function compile flags: /Ogtp
; File C:\Program Files\Microsoft Visual Studio\2022\Professional\VC\Tools\MSVC\14.44.35207\include\xtree
; File C:\Program Files\Microsoft Visual Studio\2022\Professional\VC\Tools\MSVC\14.44.35207\include\utility
; File C:\Program Files\Microsoft Visual Studio\2022\Professional\VC\Tools\MSVC\14.44.35207\include\xmemory
; File C:\Program Files\Microsoft Visual Studio\2022\Professional\VC\Tools\MSVC\14.44.35207\include\xtree
; File C:\Program Files\Microsoft Visual Studio\2022\Professional\VC\Tools\MSVC\14.44.35207\include\xmemory
; File C:\Program Files\Microsoft Visual Studio\2022\Professional\VC\Tools\MSVC\14.44.35207\include\xtree
;	COMDAT ??1?$_Tree@V?$_Tmap_traits@HHU?$less@H@std@@V?$allocator@U?$pair@$$CBHH@std@@@2@$0A@@std@@@std@@QAE@XZ
_TEXT	SEGMENT
??1?$_Tree@V?$_Tmap_traits@HHU?$less@H@std@@V?$allocator@U?$pair@$$CBHH@std@@@2@$0A@@std@@@std@@QAE@XZ PROC ; std::_Tree<std::_Tmap_traits<int,int,std::less<int>,std::allocator<std::pair<int const ,int> >,0> >::~_Tree<std::_Tmap_traits<int,int,std::less<int>,std::allocator<std::pair<int const ,int> >,0> >, COMDAT
; _this$ = ecx

; 1095 :     ~_Tree() noexcept {

  00000	56		 push	 esi
  00001	57		 push	 edi
  00002	8b f9		 mov	 edi, ecx

; 777  :         _Erase_tree(_Al, _Myhead->_Parent);

  00004	8b 37		 mov	 esi, DWORD PTR [edi]
  00006	8b 76 04	 mov	 esi, DWORD PTR [esi+4]

; 768  :         while (!_Rootnode->_Isnil) { // free subtrees, then node

  00009	80 7e 0d 00	 cmp	 BYTE PTR [esi+13], 0
  0000d	75 21		 jne	 SHORT $LN61@Tree
  0000f	90		 npad	 1
$LL8@Tree:

; 769  :             _Erase_tree(_Al, _Rootnode->_Right);

  00010	ff 76 08	 push	 DWORD PTR [esi+8]
  00013	8b cf		 mov	 ecx, edi
  00015	57		 push	 edi
  00016	e8 00 00 00 00	 call	 ??$_Erase_tree@V?$allocator@U?$_Tree_node@U?$pair@$$CBHH@std@@PAX@std@@@std@@@?$_Tree_val@U?$_Tree_simple_types@U?$pair@$$CBHH@std@@@std@@@std@@QAEXAAV?$allocator@U?$_Tree_node@U?$pair@$$CBHH@std@@PAX@std@@@1@PAU?$_Tree_node@U?$pair@$$CBHH@std@@PAX@1@@Z ; std::_Tree_val<std::_Tree_simple_types<std::pair<int const ,int> > >::_Erase_tree<std::allocator<std::_Tree_node<std::pair<int const ,int>,void *> > >
; File C:\Program Files\Microsoft Visual Studio\2022\Professional\VC\Tools\MSVC\14.44.35207\include\utility

; 773  :     _Ty _Old_val = static_cast<_Ty&&>(_Val);

  0001b	8b c6		 mov	 eax, esi

; 774  :     _Val         = static_cast<_Other&&>(_New_val);

  0001d	8b 36		 mov	 esi, DWORD PTR [esi]
; File C:\Program Files\Microsoft Visual Studio\2022\Professional\VC\Tools\MSVC\14.44.35207\include\xmemory

; 289  :         ::operator delete(_Ptr, _Bytes);

  0001f	6a 18		 push	 24			; 00000018H
  00021	50		 push	 eax
  00022	e8 00 00 00 00	 call	 ??3@YAXPAXI@Z		; operator delete
  00027	83 c4 08	 add	 esp, 8
; File C:\Program Files\Microsoft Visual Studio\2022\Professional\VC\Tools\MSVC\14.44.35207\include\xtree

; 768  :         while (!_Rootnode->_Isnil) { // free subtrees, then node

  0002a	80 7e 0d 00	 cmp	 BYTE PTR [esi+13], 0
  0002e	74 e0		 je	 SHORT $LL8@Tree
$LN61@Tree:
; File C:\Program Files\Microsoft Visual Studio\2022\Professional\VC\Tools\MSVC\14.44.35207\include\xmemory

; 289  :         ::operator delete(_Ptr, _Bytes);

  00030	6a 18		 push	 24			; 00000018H
  00032	ff 37		 push	 DWORD PTR [edi]
  00034	e8 00 00 00 00	 call	 ??3@YAXPAXI@Z		; operator delete
  00039	83 c4 08	 add	 esp, 8
  0003c	5f		 pop	 edi
  0003d	5e		 pop	 esi
; File C:\Program Files\Microsoft Visual Studio\2022\Professional\VC\Tools\MSVC\14.44.35207\include\xtree

; 1102 :     }

  0003e	c3		 ret	 0
??1?$_Tree@V?$_Tmap_traits@HHU?$less@H@std@@V?$allocator@U?$pair@$$CBHH@std@@@2@$0A@@std@@@std@@QAE@XZ ENDP ; std::_Tree<std::_Tmap_traits<int,int,std::less<int>,std::allocator<std::pair<int const ,int> >,0> >::~_Tree<std::_Tmap_traits<int,int,std::less<int>,std::allocator<std::pair<int const ,int> >,0> >
_TEXT	ENDS
; Function compile flags: /Ogtp
; File C:\IAGOS\server\v18\Source\Source\_network\CmnHdr.h
;	COMDAT ??0_LogItemInfo@@QAE@XZ
_TEXT	SEGMENT
??0_LogItemInfo@@QAE@XZ PROC				; _LogItemInfo::_LogItemInfo, COMDAT
; _this$ = ecx

; 636  : 	{
; 637  : 		Action = _T("");

  00000	c7 01 00 00 00
	00		 mov	 DWORD PTR [ecx], OFFSET ??_C@_00CNPNBAHC@@
  00006	0f 57 c0	 xorps	 xmm0, xmm0

; 638  : 		SendName = _T("");

  00009	c7 41 04 00 00
	00 00		 mov	 DWORD PTR [ecx+4], OFFSET ??_C@_00CNPNBAHC@@

; 639  : 		RecvName = _T("");
; 640  : 		WorldId = Gold = Gold2 = 0;
; 641  : 		Negudo = 0;
; 642  : 		MaxNegudo = 0;
; 643  : 		ItemNo = 0;
; 644  : 		//ItemName = _T("");
; 645  : 		::memset( szItemName, 0, sizeof(szItemName) );
; 646  : 		itemNumber = 0;
; 647  : 		nAbilityOption = 0;
; 648  : 		Gold_1 = 0;
; 649  : 		nSlot = 100;
; 650  : 		nSlot1 = 100;
; 651  : 		nItemResist = 0;
; 652  : 		nResistAbilityOption = 0;
; 653  : 		m_bCharged = FALSE;
; 654  : 		m_dwKeepTime = 0;
; 655  : #if __VER >= 11 // __SYS_IDENTIFY
; 656  : 		m_iRandomOptItemId = 0;
; 657  : #else	//__SYS_IDENTIFY
; 658  : 		m_nRandomOptItemId = 0;
; 659  : #endif	// __SYS_IDENTIFY
; 660  : #if __VER >= 12 // __EXT_PIERCING
; 661  : 		nPiercedSize = 0;
; 662  : //		for( int i=0; i<MAX_PIERCING_WEAPON; i++ )
; 663  : //			adwItemId[i] = 0;
; 664  : 		memset( adwItemId, 0, sizeof(adwItemId) );
; 665  : 		nUMPiercedSize = 0;
; 666  : //		for( i=0; i<MAX_PIERCING_ULTIMATE; i++ )
; 667  : //	adwUMItemId[i] = 0;
; 668  : 		memset( adwUMItemId, 0, sizeof(adwUMItemId) );
; 669  : #else // __EXT_PIERCING
; 670  : 		nPiercedSize = 0;
; 671  : 		adwItemId0 = 0;
; 672  : 		adwItemId1 = 0;
; 673  : 		adwItemId2 = 0;
; 674  : 		adwItemId3 = 0;
; 675  : #if __VER >= 9 // __ULTIMATE
; 676  : 		adwItemId4 = 0;
; 677  : #endif // __ULTIMATE
; 678  : #endif // __EXT_PIERCING
; 679  : #if __VER >= 9 // __PET_0410
; 680  : 		nPetKind = 0;
; 681  : 		nPetLevel = 0;
; 682  : 		dwPetExp = 0;
; 683  : 		wPetEnergy = 0;

  00010	33 c0		 xor	 eax, eax
  00012	c7 41 08 00 00
	00 00		 mov	 DWORD PTR [ecx+8], OFFSET ??_C@_00CNPNBAHC@@
  00019	c7 41 14 00 00
	00 00		 mov	 DWORD PTR [ecx+20], 0
  00020	c7 41 10 00 00
	00 00		 mov	 DWORD PTR [ecx+16], 0
  00027	c7 41 0c 00 00
	00 00		 mov	 DWORD PTR [ecx+12], 0
  0002e	c7 41 1c 00 00
	00 00		 mov	 DWORD PTR [ecx+28], 0
  00035	c7 41 20 00 00
	00 00		 mov	 DWORD PTR [ecx+32], 0
  0003c	c7 41 18 00 00
	00 00		 mov	 DWORD PTR [ecx+24], 0
  00043	0f 11 41 24	 movups	 XMMWORD PTR [ecx+36], xmm0
  00047	0f 11 41 34	 movups	 XMMWORD PTR [ecx+52], xmm0
  0004b	c7 41 44 00 00
	00 00		 mov	 DWORD PTR [ecx+68], 0
  00052	c7 41 48 00 00
	00 00		 mov	 DWORD PTR [ecx+72], 0
  00059	c7 41 4c 00 00
	00 00		 mov	 DWORD PTR [ecx+76], 0
  00060	c7 41 50 64 00
	00 00		 mov	 DWORD PTR [ecx+80], 100	; 00000064H
  00067	c7 41 54 64 00
	00 00		 mov	 DWORD PTR [ecx+84], 100	; 00000064H
  0006e	c7 41 58 00 00
	00 00		 mov	 DWORD PTR [ecx+88], 0
  00075	c7 41 5c 00 00
	00 00		 mov	 DWORD PTR [ecx+92], 0
  0007c	c7 41 60 00 00
	00 00		 mov	 DWORD PTR [ecx+96], 0
  00083	c7 41 64 00 00
	00 00		 mov	 DWORD PTR [ecx+100], 0
  0008a	c7 41 68 00 00
	00 00		 mov	 DWORD PTR [ecx+104], 0
  00091	c7 41 6c 00 00
	00 00		 mov	 DWORD PTR [ecx+108], 0
  00098	c7 41 70 00 00
	00 00		 mov	 DWORD PTR [ecx+112], 0
  0009f	0f 11 41 74	 movups	 XMMWORD PTR [ecx+116], xmm0
  000a3	0f 11 81 84 00
	00 00		 movups	 XMMWORD PTR [ecx+132], xmm0
  000aa	66 0f d6 81 94
	00 00 00	 movq	 QWORD PTR [ecx+148], xmm0
  000b2	c7 81 9c 00 00
	00 00 00 00 00	 mov	 DWORD PTR [ecx+156], 0
  000bc	0f 11 81 a0 00
	00 00		 movups	 XMMWORD PTR [ecx+160], xmm0
  000c3	c7 81 b0 00 00
	00 00 00 00 00	 mov	 DWORD PTR [ecx+176], 0
  000cd	89 81 bc 00 00
	00		 mov	 DWORD PTR [ecx+188], eax

; 684  : 		wPetLife = 0;
; 685  : 		nPetAL_D = 0;

  000d3	89 81 c0 00 00
	00		 mov	 DWORD PTR [ecx+192], eax

; 686  : 		nPetAL_C = 0;
; 687  : 		nPetAL_B = 0;
; 688  : 		nPetAL_A = 0;
; 689  : 		nPetAL_S = 0;

  000d9	88 81 c4 00 00
	00		 mov	 BYTE PTR [ecx+196], al

; 690  : #endif // __PET_0410
; 691  : 	}

  000df	8b c1		 mov	 eax, ecx
  000e1	66 c7 81 b4 00
	00 00 00 00	 mov	 WORD PTR [ecx+180], 0
  000ea	c7 81 b8 00 00
	00 00 00 00 00	 mov	 DWORD PTR [ecx+184], 0
  000f4	c3		 ret	 0
??0_LogItemInfo@@QAE@XZ ENDP				; _LogItemInfo::_LogItemInfo
_TEXT	ENDS
; Function compile flags: /Ogtp
; File C:\Program Files\Microsoft Visual Studio\2022\Professional\VC\Tools\MSVC\14.44.35207\include\xtree
;	COMDAT ?_Throw_tree_length_error@std@@YAXXZ
_TEXT	SEGMENT
?_Throw_tree_length_error@std@@YAXXZ PROC		; std::_Throw_tree_length_error, COMDAT

; 417  :     _Xlength_error("map/set too long");

  00000	68 00 00 00 00	 push	 OFFSET ??_C@_0BB@GCADKGJO@map?1set?5too?5long@
  00005	e8 00 00 00 00	 call	 ?_Xlength_error@std@@YAXPBD@Z ; std::_Xlength_error
$LN3@Throw_tree:
  0000a	cc		 int	 3
?_Throw_tree_length_error@std@@YAXXZ ENDP		; std::_Throw_tree_length_error
_TEXT	ENDS
; Function compile flags: /Ogtp
; File C:\Program Files\Microsoft Visual Studio\2022\Professional\VC\Tools\MSVC\14.44.35207\include\xmemory
;	COMDAT ?_Throw_bad_array_new_length@std@@YAXXZ
_TEXT	SEGMENT
$T1 = -12						; size = 12
?_Throw_bad_array_new_length@std@@YAXXZ PROC		; std::_Throw_bad_array_new_length, COMDAT

; 107  : [[noreturn]] inline void _Throw_bad_array_new_length() {

  00000	55		 push	 ebp
  00001	8b ec		 mov	 ebp, esp
  00003	83 ec 0c	 sub	 esp, 12			; 0000000cH

; 108  :     _THROW(bad_array_new_length{});

  00006	8d 4d f4	 lea	 ecx, DWORD PTR $T1[ebp]
  00009	e8 00 00 00 00	 call	 ??0bad_array_new_length@std@@QAE@XZ ; std::bad_array_new_length::bad_array_new_length
  0000e	68 00 00 00 00	 push	 OFFSET __TI3?AVbad_array_new_length@std@@
  00013	8d 45 f4	 lea	 eax, DWORD PTR $T1[ebp]
  00016	50		 push	 eax
  00017	e8 00 00 00 00	 call	 __CxxThrowException@8
$LN3@Throw_bad_:
  0001c	cc		 int	 3
?_Throw_bad_array_new_length@std@@YAXXZ ENDP		; std::_Throw_bad_array_new_length
_TEXT	ENDS
; Function compile flags: /Ogtp
; File C:\Program Files\Microsoft Visual Studio\2022\Professional\VC\Tools\MSVC\14.44.35207\include\vcruntime_exception.h
;	COMDAT ??_Gbad_array_new_length@std@@UAEPAXI@Z
_TEXT	SEGMENT
___flags$ = 8						; size = 4
??_Gbad_array_new_length@std@@UAEPAXI@Z PROC		; std::bad_array_new_length::`scalar deleting destructor', COMDAT
; _this$ = ecx
  00000	55		 push	 ebp
  00001	8b ec		 mov	 ebp, esp

; 90   :     {

  00003	56		 push	 esi
  00004	8b f1		 mov	 esi, ecx

; 91   :         __std_exception_destroy(&_Data);

  00006	8d 46 04	 lea	 eax, DWORD PTR [esi+4]
  00009	c7 06 00 00 00
	00		 mov	 DWORD PTR [esi], OFFSET ??_7exception@std@@6B@
  0000f	50		 push	 eax
  00010	e8 00 00 00 00	 call	 ___std_exception_destroy
  00015	83 c4 04	 add	 esp, 4
  00018	f6 45 08 01	 test	 BYTE PTR ___flags$[ebp], 1
  0001c	74 0b		 je	 SHORT $LN18@scalar
  0001e	6a 0c		 push	 12			; 0000000cH
  00020	56		 push	 esi
  00021	e8 00 00 00 00	 call	 ??3@YAXPAXI@Z		; operator delete
  00026	83 c4 08	 add	 esp, 8
$LN18@scalar:
  00029	8b c6		 mov	 eax, esi
  0002b	5e		 pop	 esi
  0002c	5d		 pop	 ebp
  0002d	c2 04 00	 ret	 4
??_Gbad_array_new_length@std@@UAEPAXI@Z ENDP		; std::bad_array_new_length::`scalar deleting destructor'
_TEXT	ENDS
; Function compile flags: /Ogtp
; File C:\Program Files\Microsoft Visual Studio\2022\Professional\VC\Tools\MSVC\14.44.35207\include\vcruntime_exception.h
;	COMDAT ??0bad_array_new_length@std@@QAE@ABV01@@Z
_TEXT	SEGMENT
___that$ = 8						; size = 4
??0bad_array_new_length@std@@QAE@ABV01@@Z PROC		; std::bad_array_new_length::bad_array_new_length, COMDAT
; _this$ = ecx
  00000	55		 push	 ebp
  00001	8b ec		 mov	 ebp, esp

; 73   :     {

  00003	56		 push	 esi
  00004	8b f1		 mov	 esi, ecx
  00006	0f 57 c0	 xorps	 xmm0, xmm0

; 72   :         : _Data()

  00009	8d 46 04	 lea	 eax, DWORD PTR [esi+4]

; 74   :         __std_exception_copy(&_Other._Data, &_Data);

  0000c	50		 push	 eax
  0000d	c7 06 00 00 00
	00		 mov	 DWORD PTR [esi], OFFSET ??_7exception@std@@6B@
  00013	66 0f d6 00	 movq	 QWORD PTR [eax], xmm0
  00017	8b 45 08	 mov	 eax, DWORD PTR ___that$[ebp]
  0001a	83 c0 04	 add	 eax, 4
  0001d	50		 push	 eax
  0001e	e8 00 00 00 00	 call	 ___std_exception_copy
  00023	83 c4 08	 add	 esp, 8
  00026	c7 06 00 00 00
	00		 mov	 DWORD PTR [esi], OFFSET ??_7bad_array_new_length@std@@6B@
  0002c	8b c6		 mov	 eax, esi
  0002e	5e		 pop	 esi
  0002f	5d		 pop	 ebp
  00030	c2 04 00	 ret	 4
??0bad_array_new_length@std@@QAE@ABV01@@Z ENDP		; std::bad_array_new_length::bad_array_new_length
_TEXT	ENDS
; Function compile flags: /Ogtp
; File C:\Program Files\Microsoft Visual Studio\2022\Professional\VC\Tools\MSVC\14.44.35207\include\vcruntime_exception.h
;	COMDAT ??1bad_array_new_length@std@@UAE@XZ
_TEXT	SEGMENT
??1bad_array_new_length@std@@UAE@XZ PROC		; std::bad_array_new_length::~bad_array_new_length, COMDAT
; _this$ = ecx

; 91   :         __std_exception_destroy(&_Data);

  00000	8d 41 04	 lea	 eax, DWORD PTR [ecx+4]
  00003	c7 01 00 00 00
	00		 mov	 DWORD PTR [ecx], OFFSET ??_7exception@std@@6B@
  00009	50		 push	 eax
  0000a	e8 00 00 00 00	 call	 ___std_exception_destroy
  0000f	59		 pop	 ecx
  00010	c3		 ret	 0
??1bad_array_new_length@std@@UAE@XZ ENDP		; std::bad_array_new_length::~bad_array_new_length
_TEXT	ENDS
; Function compile flags: /Ogtp
; File C:\Program Files\Microsoft Visual Studio\2022\Professional\VC\Tools\MSVC\14.44.35207\include\vcruntime_exception.h
;	COMDAT ??0bad_array_new_length@std@@QAE@XZ
_TEXT	SEGMENT
??0bad_array_new_length@std@@QAE@XZ PROC		; std::bad_array_new_length::bad_array_new_length, COMDAT
; _this$ = ecx

; 144  :     {

  00000	0f 57 c0	 xorps	 xmm0, xmm0

; 145  :     }

  00003	8b c1		 mov	 eax, ecx

; 66   :         : _Data()

  00005	66 0f d6 41 04	 movq	 QWORD PTR [ecx+4], xmm0

; 67   :     {
; 68   :         _Data._What = _Message;

  0000a	c7 41 04 00 00
	00 00		 mov	 DWORD PTR [ecx+4], OFFSET ??_C@_0BF@KINCDENJ@bad?5array?5new?5length@

; 144  :     {

  00011	c7 01 00 00 00
	00		 mov	 DWORD PTR [ecx], OFFSET ??_7bad_array_new_length@std@@6B@

; 145  :     }

  00017	c3		 ret	 0
??0bad_array_new_length@std@@QAE@XZ ENDP		; std::bad_array_new_length::bad_array_new_length
_TEXT	ENDS
; Function compile flags: /Ogtp
; File C:\Program Files\Microsoft Visual Studio\2022\Professional\VC\Tools\MSVC\14.44.35207\include\vcruntime_exception.h
;	COMDAT ??_Gbad_alloc@std@@UAEPAXI@Z
_TEXT	SEGMENT
___flags$ = 8						; size = 4
??_Gbad_alloc@std@@UAEPAXI@Z PROC			; std::bad_alloc::`scalar deleting destructor', COMDAT
; _this$ = ecx
  00000	55		 push	 ebp
  00001	8b ec		 mov	 ebp, esp

; 90   :     {

  00003	56		 push	 esi
  00004	8b f1		 mov	 esi, ecx

; 91   :         __std_exception_destroy(&_Data);

  00006	8d 46 04	 lea	 eax, DWORD PTR [esi+4]
  00009	c7 06 00 00 00
	00		 mov	 DWORD PTR [esi], OFFSET ??_7exception@std@@6B@
  0000f	50		 push	 eax
  00010	e8 00 00 00 00	 call	 ___std_exception_destroy
  00015	83 c4 04	 add	 esp, 4
  00018	f6 45 08 01	 test	 BYTE PTR ___flags$[ebp], 1
  0001c	74 0b		 je	 SHORT $LN13@scalar
  0001e	6a 0c		 push	 12			; 0000000cH
  00020	56		 push	 esi
  00021	e8 00 00 00 00	 call	 ??3@YAXPAXI@Z		; operator delete
  00026	83 c4 08	 add	 esp, 8
$LN13@scalar:
  00029	8b c6		 mov	 eax, esi
  0002b	5e		 pop	 esi
  0002c	5d		 pop	 ebp
  0002d	c2 04 00	 ret	 4
??_Gbad_alloc@std@@UAEPAXI@Z ENDP			; std::bad_alloc::`scalar deleting destructor'
_TEXT	ENDS
; Function compile flags: /Ogtp
; File C:\Program Files\Microsoft Visual Studio\2022\Professional\VC\Tools\MSVC\14.44.35207\include\vcruntime_exception.h
;	COMDAT ??0bad_alloc@std@@QAE@ABV01@@Z
_TEXT	SEGMENT
___that$ = 8						; size = 4
??0bad_alloc@std@@QAE@ABV01@@Z PROC			; std::bad_alloc::bad_alloc, COMDAT
; _this$ = ecx
  00000	55		 push	 ebp
  00001	8b ec		 mov	 ebp, esp

; 73   :     {

  00003	56		 push	 esi
  00004	8b f1		 mov	 esi, ecx
  00006	0f 57 c0	 xorps	 xmm0, xmm0

; 72   :         : _Data()

  00009	8d 46 04	 lea	 eax, DWORD PTR [esi+4]

; 74   :         __std_exception_copy(&_Other._Data, &_Data);

  0000c	50		 push	 eax
  0000d	c7 06 00 00 00
	00		 mov	 DWORD PTR [esi], OFFSET ??_7exception@std@@6B@
  00013	66 0f d6 00	 movq	 QWORD PTR [eax], xmm0
  00017	8b 45 08	 mov	 eax, DWORD PTR ___that$[ebp]
  0001a	83 c0 04	 add	 eax, 4
  0001d	50		 push	 eax
  0001e	e8 00 00 00 00	 call	 ___std_exception_copy
  00023	83 c4 08	 add	 esp, 8
  00026	c7 06 00 00 00
	00		 mov	 DWORD PTR [esi], OFFSET ??_7bad_alloc@std@@6B@
  0002c	8b c6		 mov	 eax, esi
  0002e	5e		 pop	 esi
  0002f	5d		 pop	 ebp
  00030	c2 04 00	 ret	 4
??0bad_alloc@std@@QAE@ABV01@@Z ENDP			; std::bad_alloc::bad_alloc
_TEXT	ENDS
; Function compile flags: /Ogtp
; File C:\Program Files\Microsoft Visual Studio\2022\Professional\VC\Tools\MSVC\14.44.35207\include\vcruntime_exception.h
;	COMDAT ??_Gexception@std@@UAEPAXI@Z
_TEXT	SEGMENT
___flags$ = 8						; size = 4
??_Gexception@std@@UAEPAXI@Z PROC			; std::exception::`scalar deleting destructor', COMDAT
; _this$ = ecx
  00000	55		 push	 ebp
  00001	8b ec		 mov	 ebp, esp

; 90   :     {

  00003	56		 push	 esi
  00004	8b f1		 mov	 esi, ecx

; 91   :         __std_exception_destroy(&_Data);

  00006	8d 46 04	 lea	 eax, DWORD PTR [esi+4]
  00009	c7 06 00 00 00
	00		 mov	 DWORD PTR [esi], OFFSET ??_7exception@std@@6B@
  0000f	50		 push	 eax
  00010	e8 00 00 00 00	 call	 ___std_exception_destroy
  00015	83 c4 04	 add	 esp, 4
  00018	f6 45 08 01	 test	 BYTE PTR ___flags$[ebp], 1
  0001c	74 0b		 je	 SHORT $LN8@scalar
  0001e	6a 0c		 push	 12			; 0000000cH
  00020	56		 push	 esi
  00021	e8 00 00 00 00	 call	 ??3@YAXPAXI@Z		; operator delete
  00026	83 c4 08	 add	 esp, 8
$LN8@scalar:
  00029	8b c6		 mov	 eax, esi
  0002b	5e		 pop	 esi
  0002c	5d		 pop	 ebp
  0002d	c2 04 00	 ret	 4
??_Gexception@std@@UAEPAXI@Z ENDP			; std::exception::`scalar deleting destructor'
_TEXT	ENDS
; Function compile flags: /Ogtp
; File C:\Program Files\Microsoft Visual Studio\2022\Professional\VC\Tools\MSVC\14.44.35207\include\vcruntime_exception.h
;	COMDAT ?what@exception@std@@UBEPBDXZ
_TEXT	SEGMENT
?what@exception@std@@UBEPBDXZ PROC			; std::exception::what, COMDAT
; _this$ = ecx

; 96   :         return _Data._What ? _Data._What : "Unknown exception";

  00000	8b 49 04	 mov	 ecx, DWORD PTR [ecx+4]
  00003	b8 00 00 00 00	 mov	 eax, OFFSET ??_C@_0BC@EOODALEL@Unknown?5exception@
  00008	85 c9		 test	 ecx, ecx
  0000a	0f 45 c1	 cmovne	 eax, ecx

; 97   :     }

  0000d	c3		 ret	 0
?what@exception@std@@UBEPBDXZ ENDP			; std::exception::what
_TEXT	ENDS
; Function compile flags: /Ogtp
; File C:\Program Files\Microsoft Visual Studio\2022\Professional\VC\Tools\MSVC\14.44.35207\include\vcruntime_exception.h
;	COMDAT ??1exception@std@@UAE@XZ
_TEXT	SEGMENT
??1exception@std@@UAE@XZ PROC				; std::exception::~exception, COMDAT
; _this$ = ecx

; 91   :         __std_exception_destroy(&_Data);

  00000	8d 41 04	 lea	 eax, DWORD PTR [ecx+4]
  00003	c7 01 00 00 00
	00		 mov	 DWORD PTR [ecx], OFFSET ??_7exception@std@@6B@
  00009	50		 push	 eax
  0000a	e8 00 00 00 00	 call	 ___std_exception_destroy
  0000f	59		 pop	 ecx

; 92   :     }

  00010	c3		 ret	 0
??1exception@std@@UAE@XZ ENDP				; std::exception::~exception
_TEXT	ENDS
; Function compile flags: /Ogtp
; File C:\Program Files\Microsoft Visual Studio\2022\Professional\VC\Tools\MSVC\14.44.35207\include\vcruntime_exception.h
;	COMDAT ??0exception@std@@QAE@ABV01@@Z
_TEXT	SEGMENT
__Other$ = 8						; size = 4
??0exception@std@@QAE@ABV01@@Z PROC			; std::exception::exception, COMDAT
; _this$ = ecx

; 73   :     {

  00000	55		 push	 ebp
  00001	8b ec		 mov	 ebp, esp
  00003	56		 push	 esi
  00004	8b f1		 mov	 esi, ecx
  00006	0f 57 c0	 xorps	 xmm0, xmm0
  00009	8d 46 04	 lea	 eax, DWORD PTR [esi+4]

; 74   :         __std_exception_copy(&_Other._Data, &_Data);

  0000c	50		 push	 eax
  0000d	c7 06 00 00 00
	00		 mov	 DWORD PTR [esi], OFFSET ??_7exception@std@@6B@
  00013	66 0f d6 00	 movq	 QWORD PTR [eax], xmm0
  00017	8b 45 08	 mov	 eax, DWORD PTR __Other$[ebp]
  0001a	83 c0 04	 add	 eax, 4
  0001d	50		 push	 eax
  0001e	e8 00 00 00 00	 call	 ___std_exception_copy
  00023	83 c4 08	 add	 esp, 8

; 75   :     }

  00026	8b c6		 mov	 eax, esi
  00028	5e		 pop	 esi
  00029	5d		 pop	 ebp
  0002a	c2 04 00	 ret	 4
??0exception@std@@QAE@ABV01@@Z ENDP			; std::exception::exception
_TEXT	ENDS
; Function compile flags: /Ogtp
; File C:\Program Files (x86)\Windows Kits\10\Include\10.0.26100.0\ucrt\stdio.h
;	COMDAT _sprintf
_TEXT	SEGMENT
__Buffer$ = 8						; size = 4
__Format$ = 12						; size = 4
_sprintf PROC						; COMDAT

; 1771 :     {

  00000	55		 push	 ebp
  00001	8b ec		 mov	 ebp, esp

; 1392 :         int const _Result = __stdio_common_vsprintf(

  00003	8d 45 10	 lea	 eax, DWORD PTR __Format$[ebp+4]
  00006	50		 push	 eax
  00007	6a 00		 push	 0
  00009	ff 75 0c	 push	 DWORD PTR __Format$[ebp]
  0000c	6a ff		 push	 -1
  0000e	ff 75 08	 push	 DWORD PTR __Buffer$[ebp]
  00011	e8 00 00 00 00	 call	 ___local_stdio_printf_options
  00016	8b 08		 mov	 ecx, DWORD PTR [eax]
  00018	ff 70 04	 push	 DWORD PTR [eax+4]
  0001b	83 c9 01	 or	 ecx, 1
  0001e	51		 push	 ecx
  0001f	e8 00 00 00 00	 call	 ___stdio_common_vsprintf

; 1393 :             _CRT_INTERNAL_LOCAL_PRINTF_OPTIONS | _CRT_INTERNAL_PRINTF_LEGACY_VSPRINTF_NULL_TERMINATION,
; 1394 :             _Buffer, _BufferCount, _Format, _Locale, _ArgList);
; 1395 : 
; 1396 :         return _Result < 0 ? -1 : _Result;

  00024	83 c9 ff	 or	 ecx, -1
  00027	83 c4 1c	 add	 esp, 28			; 0000001cH
  0002a	85 c0		 test	 eax, eax
  0002c	0f 48 c1	 cmovs	 eax, ecx

; 1772 :         int _Result;
; 1773 :         va_list _ArgList;
; 1774 :         __crt_va_start(_ArgList, _Format);
; 1775 : 
; 1776 :         _Result = _vsprintf_l(_Buffer, _Format, NULL, _ArgList);
; 1777 : 
; 1778 :         __crt_va_end(_ArgList);
; 1779 :         return _Result;
; 1780 :     }

  0002f	5d		 pop	 ebp
  00030	c3		 ret	 0
_sprintf ENDP
_TEXT	ENDS
; Function compile flags: /Ogtp
; File C:\Program Files (x86)\Windows Kits\10\Include\10.0.26100.0\ucrt\corecrt_stdio_config.h
;	COMDAT ___local_stdio_printf_options
_TEXT	SEGMENT
___local_stdio_printf_options PROC			; COMDAT

; 91   :         static unsigned __int64 _OptionsStorage;
; 92   :         return &_OptionsStorage;

  00000	b8 00 00 00 00	 mov	 eax, OFFSET ?_OptionsStorage@?1??__local_stdio_printf_options@@9@4_KA ; `__local_stdio_printf_options'::`2'::_OptionsStorage

; 93   :     }

  00005	c3		 ret	 0
___local_stdio_printf_options ENDP
_TEXT	ENDS
; Function compile flags: /Ogtp
; File C:\IAGOS\server\v18\Source\Source\WorldServer\ItemUpgrade.cpp
;	COMDAT ?__empty_global_delete@@YAXPAXI@Z
_TEXT	SEGMENT
___formal$ = 8						; size = 4
___formal$ = 12						; size = 4
?__empty_global_delete@@YAXPAXI@Z PROC			; __empty_global_delete, COMDAT

  00000	c2 00 00	 ret	 0
?__empty_global_delete@@YAXPAXI@Z ENDP			; __empty_global_delete
_TEXT	ENDS
; Function compile flags: /Ogtp
; File C:\IAGOS\server\v18\Source\Source\WorldServer\ItemUpgrade.cpp
;	COMDAT ?__empty_global_delete@@YAXPAX@Z
_TEXT	SEGMENT
___formal$ = 8						; size = 4
?__empty_global_delete@@YAXPAX@Z PROC			; __empty_global_delete, COMDAT

  00000	c2 00 00	 ret	 0
?__empty_global_delete@@YAXPAX@Z ENDP			; __empty_global_delete
_TEXT	ENDS
END
