; Listing generated by Microsoft (R) Optimizing Compiler Version 19.44.35225.0 

	TITLE	C:\IAGOS\server\v18\Source\Output\WorldServer\Release\ItemUpgrade.obj
	.686P
	.XMM
	include listing.inc
	.model	flat

INCLUDELIB LIBCMT
INCLUDELIB OLDNAMES

CONST	SEGMENT
?piecewise_construct@std@@3Upiecewise_construct_t@1@B	ORG $+1 ; std::piecewise_construct
CONST	ENDS
PUBLIC	?__empty_global_delete@@YAXPAX@Z		; __empty_global_delete
PUBLIC	?__empty_global_delete@@YAXPAXI@Z		; __empty_global_delete
PUBLIC	___local_stdio_printf_options
PUBLIC	_sprintf
PUBLIC	??0exception@std@@QAE@ABV01@@Z			; std::exception::exception
PUBLIC	??1exception@std@@UAE@XZ			; std::exception::~exception
PUBLIC	?what@exception@std@@UBEPBDXZ			; std::exception::what
PUBLIC	??_Gexception@std@@UAEPAXI@Z			; std::exception::`scalar deleting destructor'
PUBLIC	??0bad_alloc@std@@QAE@ABV01@@Z			; std::bad_alloc::bad_alloc
PUBLIC	??_Gbad_alloc@std@@UAEPAXI@Z			; std::bad_alloc::`scalar deleting destructor'
PUBLIC	??0bad_array_new_length@std@@QAE@XZ		; std::bad_array_new_length::bad_array_new_length
PUBLIC	??1bad_array_new_length@std@@UAE@XZ		; std::bad_array_new_length::~bad_array_new_length
PUBLIC	??0bad_array_new_length@std@@QAE@ABV01@@Z	; std::bad_array_new_length::bad_array_new_length
PUBLIC	??_Gbad_array_new_length@std@@UAEPAXI@Z		; std::bad_array_new_length::`scalar deleting destructor'
PUBLIC	?_Throw_bad_array_new_length@std@@YAXXZ		; std::_Throw_bad_array_new_length
PUBLIC	?_Throw_tree_length_error@std@@YAXXZ		; std::_Throw_tree_length_error
PUBLIC	??0_LogItemInfo@@QAE@XZ				; _LogItemInfo::_LogItemInfo
PUBLIC	??1?$_Tree@V?$_Tmap_traits@HHU?$less@H@std@@V?$allocator@U?$pair@$$CBHH@std@@@2@$0A@@std@@@std@@QAE@XZ ; std::_Tree<std::_Tmap_traits<int,int,std::less<int>,std::allocator<std::pair<int const ,int> >,0> >::~_Tree<std::_Tmap_traits<int,int,std::less<int>,std::allocator<std::pair<int const ,int> >,0> >
PUBLIC	?clear@?$_Tree@V?$_Tmap_traits@HHU?$less@H@std@@V?$allocator@U?$pair@$$CBHH@std@@@2@$0A@@std@@@std@@QAEXXZ ; std::_Tree<std::_Tmap_traits<int,int,std::less<int>,std::allocator<std::pair<int const ,int> >,0> >::clear
PUBLIC	?_Insert_node@?$_Tree_val@U?$_Tree_simple_types@U?$pair@$$CBHH@std@@@std@@@std@@QAEPAU?$_Tree_node@U?$pair@$$CBHH@std@@PAX@2@U?$_Tree_id@PAU?$_Tree_node@U?$pair@$$CBHH@std@@PAX@std@@@2@QAU32@@Z ; std::_Tree_val<std::_Tree_simple_types<std::pair<int const ,int> > >::_Insert_node
PUBLIC	??1?$map@HHU?$less@H@std@@V?$allocator@U?$pair@$$CBHH@std@@@2@@std@@QAE@XZ ; std::map<int,int,std::less<int>,std::allocator<std::pair<int const ,int> > >::~map<int,int,std::less<int>,std::allocator<std::pair<int const ,int> > >
PUBLIC	?GetItemProp@CProject@@QAEPAUItemProp@@H@Z	; CProject::GetItemProp
PUBLIC	?GetPropA@CItemElem@@QAEPAUItemProp@@XZ		; CItemElem::GetPropA
PUBLIC	?IsVisPet@CItemElem@@QAEHXZ			; CItemElem::IsVisPet
PUBLIC	?IsEquip@?$CItemContainer@VCItemElem@@@@QAEHK@Z	; CItemContainer<CItemElem>::IsEquip
PUBLIC	?IsFull@?$CItemContainer@VCItemElem@@@@QAEHPAVCItemElem@@PAUItemProp@@F@Z ; CItemContainer<CItemElem>::IsFull
PUBLIC	?GetAtId@?$CItemContainer@VCItemElem@@@@QAEPAVCItemElem@@K@Z ; CItemContainer<CItemElem>::GetAtId
PUBLIC	??$_Erase_tree@V?$allocator@U?$_Tree_node@U?$pair@$$CBHH@std@@PAX@std@@@std@@@?$_Tree_val@U?$_Tree_simple_types@U?$pair@$$CBHH@std@@@std@@@std@@QAEXAAV?$allocator@U?$_Tree_node@U?$pair@$$CBHH@std@@PAX@std@@@1@PAU?$_Tree_node@U?$pair@$$CBHH@std@@PAX@1@@Z ; std::_Tree_val<std::_Tree_simple_types<std::pair<int const ,int> > >::_Erase_tree<std::allocator<std::_Tree_node<std::pair<int const ,int>,void *> > >
PUBLIC	??$_Allocate_manually_vector_aligned@U_Default_allocate_traits@std@@@std@@YAPAXI@Z ; std::_Allocate_manually_vector_aligned<std::_Default_allocate_traits>
PUBLIC	??0CItemUpgrade@@QAE@XZ				; CItemUpgrade::CItemUpgrade
PUBLIC	??1CItemUpgrade@@QAE@XZ				; CItemUpgrade::~CItemUpgrade
PUBLIC	?GetInstance@CItemUpgrade@@SAPAV1@XZ		; CItemUpgrade::GetInstance
PUBLIC	?LoadScript@CItemUpgrade@@QAEXXZ		; CItemUpgrade::LoadScript
PUBLIC	?OnPiercingSize@CItemUpgrade@@QAEXPAVCUser@@KKK@Z ; CItemUpgrade::OnPiercingSize
PUBLIC	?GetSizeProb@CItemUpgrade@@QAEHPAVCItemElem@@@Z	; CItemUpgrade::GetSizeProb
PUBLIC	?OnPiercing@CItemUpgrade@@QAEXPAVCUser@@KK@Z	; CItemUpgrade::OnPiercing
PUBLIC	?OnPiercingRemove@CItemUpgrade@@QAEXPAVCUser@@K@Z ; CItemUpgrade::OnPiercingRemove
PUBLIC	?OnSmeltSafety@CItemUpgrade@@QAEEPAVCUser@@PAVCItemElem@@111@Z ; CItemUpgrade::OnSmeltSafety
PUBLIC	?OnEnchant@CItemUpgrade@@QAEXPAVCUser@@PAVCItemElem@@1@Z ; CItemUpgrade::OnEnchant
PUBLIC	?GetAttributeDamageFactor@CItemUpgrade@@QAEHH@Z	; CItemUpgrade::GetAttributeDamageFactor
PUBLIC	?GetAttributeDefenseFactor@CItemUpgrade@@QAEHH@Z ; CItemUpgrade::GetAttributeDefenseFactor
PUBLIC	?GetAttributeAddAtkDmgFactor@CItemUpgrade@@QAEHH@Z ; CItemUpgrade::GetAttributeAddAtkDmgFactor
PUBLIC	?ChangeAttribute@CItemUpgrade@@QAEXPAVCUser@@KKW4ePropType@SAI79@@@Z ; CItemUpgrade::ChangeAttribute
PUBLIC	?OnItemTransy@CItemUpgrade@@QAEXPAVCUser@@KKKH@Z ; CItemUpgrade::OnItemTransy
PUBLIC	?RunItemTransy@CItemUpgrade@@AAEHPAVCUser@@PAVCItemElem@@K@Z ; CItemUpgrade::RunItemTransy
PUBLIC	?RefineAccessory@CItemUpgrade@@AAEXPAVCUser@@PAVCItemElem@@1@Z ; CItemUpgrade::RefineAccessory
PUBLIC	?RefineCollector@CItemUpgrade@@AAEXPAVCUser@@PAVCItemElem@@1@Z ; CItemUpgrade::RefineCollector
PUBLIC	?SmeltSafetyNormal@CItemUpgrade@@AAEEPAVCUser@@PAVCItemElem@@111@Z ; CItemUpgrade::SmeltSafetyNormal
PUBLIC	?SmeltSafetyGeneral@CItemUpgrade@@AAEEPAVCUser@@PAVCItemElem@@111@Z ; CItemUpgrade::SmeltSafetyGeneral
PUBLIC	?SmeltSafetyAccessory@CItemUpgrade@@AAEEPAVCUser@@PAVCItemElem@@11@Z ; CItemUpgrade::SmeltSafetyAccessory
PUBLIC	?SmeltSafetyPiercingSize@CItemUpgrade@@AAEEPAVCUser@@PAVCItemElem@@11@Z ; CItemUpgrade::SmeltSafetyPiercingSize
PUBLIC	?SmeltSafetyAttribute@CItemUpgrade@@AAEEPAVCUser@@PAVCItemElem@@111@Z ; CItemUpgrade::SmeltSafetyAttribute
PUBLIC	?EnchantGeneral@CItemUpgrade@@QAEXPAVCUser@@PAVCItemElem@@1@Z ; CItemUpgrade::EnchantGeneral
PUBLIC	?GetGeneralEnchantProb@CItemUpgrade@@QAEHH@Z	; CItemUpgrade::GetGeneralEnchantProb
PUBLIC	?EnchantAttribute@CItemUpgrade@@QAEXPAVCUser@@PAVCItemElem@@1@Z ; CItemUpgrade::EnchantAttribute
PUBLIC	?GetAttributeEnchantProb@CItemUpgrade@@QAEHH@Z	; CItemUpgrade::GetAttributeEnchantProb
PUBLIC	?WhatEleCard@CItemUpgrade@@QAEKK@Z		; CItemUpgrade::WhatEleCard
PUBLIC	??1?$_Tree@V?$_Tmap_traits@HU__ATTRIBUTE_ENCHANT@@U?$less@H@std@@V?$allocator@U?$pair@$$CBHU__ATTRIBUTE_ENCHANT@@@std@@@3@$0A@@std@@@std@@QAE@XZ ; std::_Tree<std::_Tmap_traits<int,__ATTRIBUTE_ENCHANT,std::less<int>,std::allocator<std::pair<int const ,__ATTRIBUTE_ENCHANT> >,0> >::~_Tree<std::_Tmap_traits<int,__ATTRIBUTE_ENCHANT,std::less<int>,std::allocator<std::pair<int const ,__ATTRIBUTE_ENCHANT> >,0> >
PUBLIC	?_Insert_node@?$_Tree_val@U?$_Tree_simple_types@U?$pair@$$CBHU__ATTRIBUTE_ENCHANT@@@std@@@std@@@std@@QAEPAU?$_Tree_node@U?$pair@$$CBHU__ATTRIBUTE_ENCHANT@@@std@@PAX@2@U?$_Tree_id@PAU?$_Tree_node@U?$pair@$$CBHU__ATTRIBUTE_ENCHANT@@@std@@PAX@std@@@2@QAU32@@Z ; std::_Tree_val<std::_Tree_simple_types<std::pair<int const ,__ATTRIBUTE_ENCHANT> > >::_Insert_node
PUBLIC	??1?$map@HU__ATTRIBUTE_ENCHANT@@U?$less@H@std@@V?$allocator@U?$pair@$$CBHU__ATTRIBUTE_ENCHANT@@@std@@@3@@std@@QAE@XZ ; std::map<int,__ATTRIBUTE_ENCHANT,std::less<int>,std::allocator<std::pair<int const ,__ATTRIBUTE_ENCHANT> > >::~map<int,__ATTRIBUTE_ENCHANT,std::less<int>,std::allocator<std::pair<int const ,__ATTRIBUTE_ENCHANT> > >
PUBLIC	?LoadScriptBaruna@CItemUpgrade@@QAEXXZ		; CItemUpgrade::LoadScriptBaruna
PUBLIC	?CreateBarunaCrystal@CItemUpgrade@@QAEXPAVCUser@@PAVCItemElem@@1@Z ; CItemUpgrade::CreateBarunaCrystal
PUBLIC	?BarunaChaosGemExtract@CItemUpgrade@@QAEXPAVCUser@@PAVCItemElem@@@Z ; CItemUpgrade::BarunaChaosGemExtract
PUBLIC	?CreateBarunaChaosGem@CItemUpgrade@@QAEXPAVCUser@@PAVCItemElem@@1@Z ; CItemUpgrade::CreateBarunaChaosGem
PUBLIC	?CreateStone@CItemUpgrade@@QAEXPAVCUser@@PAVCItemElem@@11@Z ; CItemUpgrade::CreateStone
PUBLIC	?EnchantBaruna@CItemUpgrade@@QAEXPAVCUser@@PAVCItemElem@@111@Z ; CItemUpgrade::EnchantBaruna
PUBLIC	?GetBarunaEnchantProp@CItemUpgrade@@QAEHH@Z	; CItemUpgrade::GetBarunaEnchantProp
PUBLIC	?GetBarunaEnchantDowngradeProp@CItemUpgrade@@QAEHH@Z ; CItemUpgrade::GetBarunaEnchantDowngradeProp
PUBLIC	?GetBarunaPetMultiplicator@CItemUpgrade@@QAEMH@Z ; CItemUpgrade::GetBarunaPetMultiplicator
PUBLIC	?GetBarunaFailForNextLevel@CItemUpgrade@@QAEHH@Z ; CItemUpgrade::GetBarunaFailForNextLevel
PUBLIC	??1?$_Tree@V?$_Tmap_traits@HU__CHAOS_GEM@@U?$less@H@std@@V?$allocator@U?$pair@$$CBHU__CHAOS_GEM@@@std@@@3@$0A@@std@@@std@@QAE@XZ ; std::_Tree<std::_Tmap_traits<int,__CHAOS_GEM,std::less<int>,std::allocator<std::pair<int const ,__CHAOS_GEM> >,0> >::~_Tree<std::_Tmap_traits<int,__CHAOS_GEM,std::less<int>,std::allocator<std::pair<int const ,__CHAOS_GEM> >,0> >
PUBLIC	?_Insert_node@?$_Tree_val@U?$_Tree_simple_types@U?$pair@$$CBHU__CHAOS_GEM@@@std@@@std@@@std@@QAEPAU?$_Tree_node@U?$pair@$$CBHU__CHAOS_GEM@@@std@@PAX@2@U?$_Tree_id@PAU?$_Tree_node@U?$pair@$$CBHU__CHAOS_GEM@@@std@@PAX@std@@@2@QAU32@@Z ; std::_Tree_val<std::_Tree_simple_types<std::pair<int const ,__CHAOS_GEM> > >::_Insert_node
PUBLIC	??1?$map@HU__CHAOS_GEM@@U?$less@H@std@@V?$allocator@U?$pair@$$CBHU__CHAOS_GEM@@@std@@@3@@std@@QAE@XZ ; std::map<int,__CHAOS_GEM,std::less<int>,std::allocator<std::pair<int const ,__CHAOS_GEM> > >::~map<int,__CHAOS_GEM,std::less<int>,std::allocator<std::pair<int const ,__CHAOS_GEM> > >
PUBLIC	?CreateBarunaPiercing@CItemUpgrade@@QAEXPAVCUser@@PAVCItemElem@@111@Z ; CItemUpgrade::CreateBarunaPiercing
PUBLIC	?PetVisSize@CItemUpgrade@@QAEXPAVCUser@@K@Z	; CItemUpgrade::PetVisSize
PUBLIC	?SetPetVisItem@CItemUpgrade@@QAEXPAVCUser@@K@Z	; CItemUpgrade::SetPetVisItem
PUBLIC	?RemovePetVisItem@CItemUpgrade@@QAEXPAVCUser@@HH@Z ; CItemUpgrade::RemovePetVisItem
PUBLIC	?PutPetVisItemLog@CItemUpgrade@@QAEXPAVCUser@@PBD1PAVCItemElem@@H@Z ; CItemUpgrade::PutPetVisItemLog
PUBLIC	?SwapVis@CItemUpgrade@@QAEXPAVCUser@@HH@Z	; CItemUpgrade::SwapVis
PUBLIC	?ChangeVisPetSfx@CItemUpgrade@@QAEXPAVCUser@@PAVCItemElem@@@Z ; CItemUpgrade::ChangeVisPetSfx
PUBLIC	?TransFormVisPet@CItemUpgrade@@QAEXPAVCUser@@K@Z ; CItemUpgrade::TransFormVisPet
PUBLIC	??$_Erase_tree@V?$allocator@U?$_Tree_node@U?$pair@$$CBHU__ATTRIBUTE_ENCHANT@@@std@@PAX@std@@@std@@@?$_Tree_val@U?$_Tree_simple_types@U?$pair@$$CBHU__ATTRIBUTE_ENCHANT@@@std@@@std@@@std@@QAEXAAV?$allocator@U?$_Tree_node@U?$pair@$$CBHU__ATTRIBUTE_ENCHANT@@@std@@PAX@std@@@1@PAU?$_Tree_node@U?$pair@$$CBHU__ATTRIBUTE_ENCHANT@@@std@@PAX@1@@Z ; std::_Tree_val<std::_Tree_simple_types<std::pair<int const ,__ATTRIBUTE_ENCHANT> > >::_Erase_tree<std::allocator<std::_Tree_node<std::pair<int const ,__ATTRIBUTE_ENCHANT>,void *> > >
PUBLIC	??$_Find_lower_bound@H@?$_Tree@V?$_Tmap_traits@HU__CHAOS_GEM@@U?$less@H@std@@V?$allocator@U?$pair@$$CBHU__CHAOS_GEM@@@std@@@3@$0A@@std@@@std@@IBE?AU?$_Tree_find_result@PAU?$_Tree_node@U?$pair@$$CBHU__CHAOS_GEM@@@std@@PAX@std@@@1@ABH@Z ; std::_Tree<std::_Tmap_traits<int,__CHAOS_GEM,std::less<int>,std::allocator<std::pair<int const ,__CHAOS_GEM> >,0> >::_Find_lower_bound<int>
PUBLIC	??$_Erase_tree@V?$allocator@U?$_Tree_node@U?$pair@$$CBHU__CHAOS_GEM@@@std@@PAX@std@@@std@@@?$_Tree_val@U?$_Tree_simple_types@U?$pair@$$CBHU__CHAOS_GEM@@@std@@@std@@@std@@QAEXAAV?$allocator@U?$_Tree_node@U?$pair@$$CBHU__CHAOS_GEM@@@std@@PAX@std@@@1@PAU?$_Tree_node@U?$pair@$$CBHU__CHAOS_GEM@@@std@@PAX@1@@Z ; std::_Tree_val<std::_Tree_simple_types<std::pair<int const ,__CHAOS_GEM> > >::_Erase_tree<std::allocator<std::_Tree_node<std::pair<int const ,__CHAOS_GEM>,void *> > >
PUBLIC	??$_Find_lower_bound@H@?$_Tree@V?$_Tmap_traits@HU__ATTRIBUTE_ENCHANT@@U?$less@H@std@@V?$allocator@U?$pair@$$CBHU__ATTRIBUTE_ENCHANT@@@std@@@3@$0A@@std@@@std@@IBE?AU?$_Tree_find_result@PAU?$_Tree_node@U?$pair@$$CBHU__ATTRIBUTE_ENCHANT@@@std@@PAX@std@@@1@ABH@Z ; std::_Tree<std::_Tmap_traits<int,__ATTRIBUTE_ENCHANT,std::less<int>,std::allocator<std::pair<int const ,__ATTRIBUTE_ENCHANT> >,0> >::_Find_lower_bound<int>
PUBLIC	??$_Find_lower_bound@H@?$_Tree@V?$_Tmap_traits@HHU?$less@H@std@@V?$allocator@U?$pair@$$CBHH@std@@@2@$0A@@std@@@std@@IBE?AU?$_Tree_find_result@PAU?$_Tree_node@U?$pair@$$CBHH@std@@PAX@std@@@1@ABH@Z ; std::_Tree<std::_Tmap_traits<int,int,std::less<int>,std::allocator<std::pair<int const ,int> >,0> >::_Find_lower_bound<int>
PUBLIC	??1?$_Alloc_construct_ptr@V?$allocator@U?$_Tree_node@U?$pair@$$CBHH@std@@PAX@std@@@std@@@std@@QAE@XZ ; std::_Alloc_construct_ptr<std::allocator<std::_Tree_node<std::pair<int const ,int>,void *> > >::~_Alloc_construct_ptr<std::allocator<std::_Tree_node<std::pair<int const ,int>,void *> > >
PUBLIC	??1?$_Alloc_construct_ptr@V?$allocator@U?$_Tree_node@U?$pair@$$CBHU__ATTRIBUTE_ENCHANT@@@std@@PAX@std@@@std@@@std@@QAE@XZ ; std::_Alloc_construct_ptr<std::allocator<std::_Tree_node<std::pair<int const ,__ATTRIBUTE_ENCHANT>,void *> > >::~_Alloc_construct_ptr<std::allocator<std::_Tree_node<std::pair<int const ,__ATTRIBUTE_ENCHANT>,void *> > >
PUBLIC	??1?$_Alloc_construct_ptr@V?$allocator@U?$_Tree_node@U?$pair@$$CBHU__CHAOS_GEM@@@std@@PAX@std@@@std@@@std@@QAE@XZ ; std::_Alloc_construct_ptr<std::allocator<std::_Tree_node<std::pair<int const ,__CHAOS_GEM>,void *> > >::~_Alloc_construct_ptr<std::allocator<std::_Tree_node<std::pair<int const ,__CHAOS_GEM>,void *> > >
PUBLIC	?_OptionsStorage@?1??__local_stdio_printf_options@@9@4_KA ; `__local_stdio_printf_options'::`2'::_OptionsStorage
PUBLIC	??_C@_02DPKJAMEF@?$CFd@				; `string'
PUBLIC	??_C@_01PLPBNMEI@M@				; `string'
PUBLIC	??_C@_00CNPNBAHC@@				; `string'
PUBLIC	??_7exception@std@@6B@				; std::exception::`vftable'
PUBLIC	??_C@_0BC@EOODALEL@Unknown?5exception@		; `string'
PUBLIC	??_7bad_alloc@std@@6B@				; std::bad_alloc::`vftable'
PUBLIC	??_7bad_array_new_length@std@@6B@		; std::bad_array_new_length::`vftable'
PUBLIC	??_C@_0BF@KINCDENJ@bad?5array?5new?5length@	; `string'
PUBLIC	??_R0?AVexception@std@@@8			; std::exception `RTTI Type Descriptor'
PUBLIC	__CT??_R0?AVexception@std@@@8??0exception@std@@QAE@ABV01@@Z12
PUBLIC	__TI3?AVbad_array_new_length@std@@
PUBLIC	__CTA3?AVbad_array_new_length@std@@
PUBLIC	??_R0?AVbad_array_new_length@std@@@8		; std::bad_array_new_length `RTTI Type Descriptor'
PUBLIC	__CT??_R0?AVbad_array_new_length@std@@@8??0bad_array_new_length@std@@QAE@ABV01@@Z12
PUBLIC	??_R0?AVbad_alloc@std@@@8			; std::bad_alloc `RTTI Type Descriptor'
PUBLIC	__CT??_R0?AVbad_alloc@std@@@8??0bad_alloc@std@@QAE@ABV01@@Z12
PUBLIC	??_C@_0BB@GCADKGJO@map?1set?5too?5long@		; `string'
PUBLIC	??_C@_0BM@HMFGHCP@?$CFs?5min?3?$CFd?0?5max?3?$CFd?0?5index?3?$CFd@ ; `string'
PUBLIC	??_C@_0BI@BEIFNGEL@GetItemProp?5range_error@	; `string'
PUBLIC	??_R4exception@std@@6B@				; std::exception::`RTTI Complete Object Locator'
PUBLIC	??_R3exception@std@@8				; std::exception::`RTTI Class Hierarchy Descriptor'
PUBLIC	??_R2exception@std@@8				; std::exception::`RTTI Base Class Array'
PUBLIC	??_R1A@?0A@EA@exception@std@@8			; std::exception::`RTTI Base Class Descriptor at (0,-1,0,64)'
PUBLIC	??_R4bad_array_new_length@std@@6B@		; std::bad_array_new_length::`RTTI Complete Object Locator'
PUBLIC	??_R3bad_array_new_length@std@@8		; std::bad_array_new_length::`RTTI Class Hierarchy Descriptor'
PUBLIC	??_R2bad_array_new_length@std@@8		; std::bad_array_new_length::`RTTI Base Class Array'
PUBLIC	??_R1A@?0A@EA@bad_array_new_length@std@@8	; std::bad_array_new_length::`RTTI Base Class Descriptor at (0,-1,0,64)'
PUBLIC	??_R1A@?0A@EA@bad_alloc@std@@8			; std::bad_alloc::`RTTI Base Class Descriptor at (0,-1,0,64)'
PUBLIC	??_R3bad_alloc@std@@8				; std::bad_alloc::`RTTI Class Hierarchy Descriptor'
PUBLIC	??_R2bad_alloc@std@@8				; std::bad_alloc::`RTTI Base Class Array'
PUBLIC	??_R4bad_alloc@std@@6B@				; std::bad_alloc::`RTTI Complete Object Locator'
PUBLIC	??_C@_0BA@IAAIFMCJ@ItemUpgrade?4lua@		; `string'
PUBLIC	??_C@_0DL@MEIBMACM@CItemUpgrade?3?3LoadScript?$CI?$CJ?5?9?5It@ ; `string'
PUBLIC	??_C@_09CPEADECJ@tSuitProb@			; `string'
PUBLIC	??_C@_0M@IAAAPADN@tWeaponProb@			; `string'
PUBLIC	??_C@_08GMCIKKIC@tGeneral@			; `string'
PUBLIC	??_C@_0L@IOMDLKDC@tAttribute@			; `string'
PUBLIC	??_C@_05JBKGBCJC@nProb@				; `string'
PUBLIC	??_C@_0M@DAIDPKFC@nDamageRate@			; `string'
PUBLIC	??_C@_0N@BGJGNMMP@nDefenseRate@			; `string'
PUBLIC	??_C@_0P@FAOHCBHB@nAddAtkDmgRate@		; `string'
PUBLIC	??_C@_0BE@KIIJAFJA@nItemTransyLowLevel@		; `string'
PUBLIC	??_C@_0BF@EOMJLBOM@nItemTransyHighLevel@	; `string'
PUBLIC	??_C@_0L@CHGADHBA@Baruna?4lua@			; `string'
PUBLIC	??_C@_0DG@NIMIMML@CItemUpgrade?3?3LoadScript?$CI?$CJ?5?9?5Ba@ ; `string'
PUBLIC	??_C@_0P@KHAPPOBC@tBarunaUpgrade@		; `string'
PUBLIC	??_C@_0BB@KEOOECFG@tBarunaDowngrade@		; `string'
PUBLIC	??_C@_0BI@JDBHEFPP@tBarunaPetMultiplicator@	; `string'
PUBLIC	??_C@_0BI@CGEHICCE@tBarunaNeedFailForPetUp@	; `string'
PUBLIC	??_C@_0BA@CHPGJKHE@tBarunaChaosGem@		; `string'
PUBLIC	??_C@_0BA@LJBFGODG@nChaosGemAmount@		; `string'
PUBLIC	??_C@_0BA@BNGODABA@nChaosGemChance@		; `string'
PUBLIC	??_C@_0BC@MBHINFNF@nChaosPieceAmount@		; `string'
PUBLIC	??_C@_0BC@GFADILPD@nChaosPieceChance@		; `string'
PUBLIC	??_C@_08DGHAMMOF@PIERCING@			; `string'
PUBLIC	??_C@_01DCLJPIOD@?$CB@				; `string'
PUBLIC	??_C@_0BD@CHOHAILH@PIERCING_PROTECTED@		; `string'
PUBLIC	??_C@_01IPJKGB@?$CD@				; `string'
PUBLIC	??_C@_01FDFGLJHB@2@				; `string'
PUBLIC	??_C@_01EPMOAMKG@$@				; `string'
PUBLIC	??_C@_0BA@PKNCKPDH@PIERCING_REMOVE@		; `string'
PUBLIC	??_C@_01HIHLOKLC@1@				; `string'
PUBLIC	??_C@_01NANMIPIL@N@				; `string'
PUBLIC	??_C@_0BI@NMHNGLNA@UPGRADEITEM_SMELTSAFETY@	; `string'
PUBLIC	??_C@_01BIAFAFID@F@				; `string'
PUBLIC	??_C@_01IGIGCIAN@H@				; `string'
PUBLIC	??_C@_01OCOKONAJ@L@				; `string'
PUBLIC	??_C@_0BF@JEPBEGGA@PIERCING_SMELTSAFETY@	; `string'
PUBLIC	??_C@_0M@FAGCGIOJ@UPGRADEITEM@			; `string'
PUBLIC	??_C@_01LELAEKIP@J@				; `string'
PUBLIC	??_C@_01MJMHLOMK@O@				; `string'
PUBLIC	??_C@_0O@EJMCNMBD@UPGRADEBARUNA@		; `string'
PUBLIC	??_C@_0BI@KEPNAMED@CHANGE_ATTRIBUTE_TARGET@	; `string'
PUBLIC	??_C@_0BK@KBLOLHCF@CHANGE_ATTRIBUTE_MATERIAL@	; `string'
PUBLIC	??_C@_0L@NPPDFLAM@RemoveItem@			; `string'
PUBLIC	??_C@_0L@EMDEHLJF@CreateItem@			; `string'
PUBLIC	??_C@_09DPACILDJ@?$CC?$CFs?$CC?5?$CC?$CFs?$CC@	; `string'
PUBLIC	??_C@_0BC@HAKKJLBB@VIS_SLOT_MATERIAL@		; `string'
PUBLIC	??_C@_0O@KOMGOEFL@VIS_SLOT_SIZE@		; `string'
PUBLIC	??_C@_0N@JGNDKGOK@VIS_MATERIAL@			; `string'
PUBLIC	??_C@_0N@HCOLJNOE@VIS_PIERCING@			; `string'
PUBLIC	??_C@_0BD@EOJLJBKF@VIS_REMOVE_EXPIRED@		; `string'
PUBLIC	??_C@_0BC@LPGJAKI@VIS_REMOVE_BYUSER@		; `string'
PUBLIC	??_C@_04OEDFLLKD@?$CC?$CFs?$CC@			; `string'
PUBLIC	??_C@_0BB@PNCKCHMF@TRANSFORM_VISPET@		; `string'
PUBLIC	??_C@_0N@GELFDHNG@CONTAINER?1?10@		; `string'
PUBLIC	__real@3f666666
PUBLIC	__real@3f800000
PUBLIC	__real@42c80000
EXTRN	??2@YAPAXI@Z:PROC				; operator new
EXTRN	??3@YAXPAXI@Z:PROC				; operator delete
EXTRN	_atexit:PROC
EXTRN	__Init_thread_header:PROC
EXTRN	__Init_thread_abort:PROC
EXTRN	__Init_thread_footer:PROC
EXTRN	__invoke_watson:PROC
EXTRN	___stdio_common_vsprintf:PROC
EXTRN	___std_exception_copy:PROC
EXTRN	___std_exception_destroy:PROC
EXTRN	??_Eexception@std@@UAEPAXI@Z:PROC		; std::exception::`vector deleting destructor'
EXTRN	??_Ebad_alloc@std@@UAEPAXI@Z:PROC		; std::bad_alloc::`vector deleting destructor'
EXTRN	??_Ebad_array_new_length@std@@UAEPAXI@Z:PROC	; std::bad_array_new_length::`vector deleting destructor'
EXTRN	?_Xlength_error@std@@YAXPBD@Z:PROC		; std::_Xlength_error
EXTRN	?WriteError@@YAXPBDZZ:PROC			; WriteError
EXTRN	?xRandom@@YAKKK@Z:PROC				; xRandom
EXTRN	?Error@@YAPBDPBDZZ:PROC				; Error
EXTRN	?GetLanguage@@YAHXZ:PROC			; GetLanguage
EXTRN	?SmeltSafetyUltimate@CUltimateWeapon@@QAEEPAVCUser@@PAVCItemElem@@11@Z:PROC ; CUltimateWeapon::SmeltSafetyUltimate
EXTRN	_lua_tonumberx:PROC
EXTRN	_lua_pushnil:PROC
EXTRN	_lua_getglobal:PROC
EXTRN	_lua_next:PROC
EXTRN	??0CLuaBase@@QAE@XZ:PROC			; CLuaBase::CLuaBase
EXTRN	??1CLuaBase@@UAE@XZ:PROC			; CLuaBase::~CLuaBase
EXTRN	?RunScript@CLuaBase@@QAEHPBD@Z:PROC		; CLuaBase::RunScript
EXTRN	?Pop@CLuaBase@@QAEXH@Z:PROC			; CLuaBase::Pop
EXTRN	?GetGlobalNumber@CLuaBase@@QAENPAD@Z:PROC	; CLuaBase::GetGlobalNumber
EXTRN	?GetFieldToNumber@CLuaBase@@QAENHPAD@Z:PROC	; CLuaBase::GetFieldToNumber
EXTRN	?GetMover@CProject@@QAEPAVCMover@@K@Z:PROC	; CProject::GetMover
EXTRN	?GetInstance@CAccessoryProperty@@SAPAV1@XZ:PROC	; CAccessoryProperty::GetInstance
EXTRN	?IsAccessory@CAccessoryProperty@@QAEHK@Z:PROC	; CAccessoryProperty::IsAccessory
EXTRN	?GetPiercingSize@CPiercing@@QAEHXZ:PROC		; CPiercing::GetPiercingSize
EXTRN	?GetPiercingItem@CPiercing@@QAEKH@Z:PROC	; CPiercing::GetPiercingItem
EXTRN	?GetVisKeepTime@CPiercing@@QAEJH@Z:PROC		; CPiercing::GetVisKeepTime
EXTRN	?SetSerialNumber@CItemBase@@QAEXXZ:PROC		; CItemBase::SetSerialNumber
EXTRN	?IsPierceAble@CItemElem@@QAEHKH@Z:PROC		; CItemElem::IsPierceAble
EXTRN	??0CItemElem@@QAE@XZ:PROC			; CItemElem::CItemElem
EXTRN	??1CItemElem@@UAE@XZ:PROC			; CItemElem::~CItemElem
EXTRN	?IsDiceRefineryAble@CItemElem@@SAHPAUItemProp@@@Z:PROC ; CItemElem::IsDiceRefineryAble
EXTRN	?IsEleRefineryAble@CItemElem@@SAHPAUItemProp@@@Z:PROC ; CItemElem::IsEleRefineryAble
EXTRN	?GetVisPetSfxId@CItemElem@@QAEKXZ:PROC		; CItemElem::GetVisPetSfxId
EXTRN	?IsUsableItem@@YAHPAVCItemBase@@@Z:PROC		; IsUsableItem
EXTRN	?GetBuffByIk3@CBuffMgr@@QAEPAVIBuff@@K@Z:PROC	; CBuffMgr::GetBuffByIk3
EXTRN	?GetOther@CVTInfo@@QAEPAVCMover@@XZ:PROC	; CVTInfo::GetOther
EXTRN	?VendorIsVendor@CVTInfo@@QAEHXZ:PROC		; CVTInfo::VendorIsVendor
EXTRN	?HasBuff@CMover@@QAEHGG@Z:PROC			; CMover::HasBuff
EXTRN	?RemoveBuff@CMover@@QAEXGG@Z:PROC		; CMover::RemoveBuff
EXTRN	?HasBuffByIk3@CMover@@QAEHK@Z:PROC		; CMover::HasBuffByIk3
EXTRN	?SetPetVisDST@CMover@@QAEXPAVCItemElem@@@Z:PROC	; CMover::SetPetVisDST
EXTRN	?ResetPetVisDST@CMover@@QAEXPAVCItemElem@@@Z:PROC ; CMover::ResetPetVisDST
EXTRN	?IsSatisfyNeedVis@CMover@@QAEEPAVCItemElem@@PAUItemProp@@@Z:PROC ; CMover::IsSatisfyNeedVis
EXTRN	?GetAdjParam@CMover@@QAEHH@Z:PROC		; CMover::GetAdjParam
EXTRN	?GetName@CMover@@QAEPBDH@Z:PROC			; CMover::GetName
EXTRN	?AddGold@CMover@@QAEHHH@Z:PROC			; CMover::AddGold
EXTRN	?Pierce@CMover@@QAEHPAVCItemElem@@K@Z:PROC	; CMover::Pierce
EXTRN	?UpdateItem@CMover@@QAEXEDKK@Z:PROC		; CMover::UpdateItem
EXTRN	?CreateItem@CMover@@QAEHPAVCItemBase@@PAEPAFE@Z:PROC ; CMover::CreateItem
EXTRN	?RemoveItem@CMover@@QAEXEF@Z:PROC		; CMover::RemoveItem
EXTRN	?GetInstance@CCollectingProperty@@SAPAV1@XZ:PROC ; CCollectingProperty::GetInstance
EXTRN	?GetEnchantProbability@CCollectingProperty@@QAEHH@Z:PROC ; CCollectingProperty::GetEnchantProbability
EXTRN	?AddDefinedText@CUser@@QAAXHPBDZZ:PROC		; CUser::AddDefinedText
EXTRN	?AddDefinedText@CUser@@QAEXH@Z:PROC		; CUser::AddDefinedText
EXTRN	?AddPlaySound@CUser@@QAEXK@Z:PROC		; CUser::AddPlaySound
EXTRN	?AddCreateSfxObj@CUserMng@@QAEXPAVCCtrl@@KMMMH@Z:PROC ; CUserMng::AddCreateSfxObj
EXTRN	?AddChangeMoverSfxId@CUserMng@@QAEXPAVCMover@@@Z:PROC ; CUserMng::AddChangeMoverSfxId
EXTRN	?OnLogItem@CDPSrvr@@QAEXAAU_LogItemInfo@@PAVCItemElem@@H@Z:PROC ; CDPSrvr::OnLogItem
EXTRN	?PutItemLog@CDPSrvr@@QAEXPAVCUser@@PBD1PAVCItemElem@@H@Z:PROC ; CDPSrvr::PutItemLog
EXTRN	?SendLogSMItemUse@CDPDatabaseClient@@QAEXPBDPAVCUser@@PAVCItemElem@@PAUItemProp@@0@Z:PROC ; CDPDatabaseClient::SendLogSMItemUse
EXTRN	@__security_check_cookie@4:PROC
EXTRN	__CxxThrowException@8:PROC
EXTRN	___CxxFrameHandler3:PROC
EXTRN	__ftol2_sse:PROC
EXTRN	__Init_thread_epoch:DWORD
EXTRN	??_7type_info@@6B@:QWORD			; type_info::`vftable'
EXTRN	?g_tCurrent@@3JA:DWORD				; g_tCurrent
EXTRN	?g_next@@3KA:DWORD				; g_next
EXTRN	?prj@@3VCProject@@A:BYTE			; prj
EXTRN	?g_UserMng@@3VCUserMng@@A:BYTE			; g_UserMng
EXTRN	?g_DPSrvr@@3VCDPSrvr@@A:BYTE			; g_DPSrvr
EXTRN	?g_dpDBClient@@3VCDPDatabaseClient@@A:BYTE	; g_dpDBClient
EXTRN	___security_cookie:DWORD
EXTRN	__fltused:DWORD
EXTRN	__tls_array:DWORD
EXTRN	__tls_index:DWORD
;	COMDAT ?_OptionsStorage@?1??__local_stdio_printf_options@@9@4_KA
_BSS	SEGMENT
?_OptionsStorage@?1??__local_stdio_printf_options@@9@4_KA DQ 01H DUP (?) ; `__local_stdio_printf_options'::`2'::_OptionsStorage
_BSS	ENDS
;	COMDAT ?sItemUpgrade@?1??GetInstance@CItemUpgrade@@SAPAV2@XZ@4V2@A
_BSS	SEGMENT
?sItemUpgrade@?1??GetInstance@CItemUpgrade@@SAPAV2@XZ@4V2@A DB 050H DUP (?) ; `CItemUpgrade::GetInstance'::`2'::sItemUpgrade
_BSS	ENDS
;	COMDAT ?$TSS0@?1??GetInstance@CItemUpgrade@@SAPAV2@XZ@4HA
_BSS	SEGMENT
?$TSS0@?1??GetInstance@CItemUpgrade@@SAPAV2@XZ@4HA DD 01H DUP (?) ; `CItemUpgrade::GetInstance'::`2'::$TSS0
_BSS	ENDS
;	COMDAT __real@42c80000
CONST	SEGMENT
__real@42c80000 DD 042c80000r			; 100
CONST	ENDS
;	COMDAT __real@3f800000
CONST	SEGMENT
__real@3f800000 DD 03f800000r			; 1
CONST	ENDS
;	COMDAT __real@3f666666
CONST	SEGMENT
__real@3f666666 DD 03f666666r			; 0.9
CONST	ENDS
;	COMDAT ??_C@_0N@GELFDHNG@CONTAINER?1?10@
CONST	SEGMENT
??_C@_0N@GELFDHNG@CONTAINER?1?10@ DB 'CONTAINER//0', 00H ; `string'
CONST	ENDS
;	COMDAT ??_C@_0BB@PNCKCHMF@TRANSFORM_VISPET@
CONST	SEGMENT
??_C@_0BB@PNCKCHMF@TRANSFORM_VISPET@ DB 'TRANSFORM_VISPET', 00H ; `string'
CONST	ENDS
;	COMDAT ??_C@_04OEDFLLKD@?$CC?$CFs?$CC@
CONST	SEGMENT
??_C@_04OEDFLLKD@?$CC?$CFs?$CC@ DB '"%s"', 00H		; `string'
CONST	ENDS
;	COMDAT ??_C@_0BC@LPGJAKI@VIS_REMOVE_BYUSER@
CONST	SEGMENT
??_C@_0BC@LPGJAKI@VIS_REMOVE_BYUSER@ DB 'VIS_REMOVE_BYUSER', 00H ; `string'
CONST	ENDS
;	COMDAT ??_C@_0BD@EOJLJBKF@VIS_REMOVE_EXPIRED@
CONST	SEGMENT
??_C@_0BD@EOJLJBKF@VIS_REMOVE_EXPIRED@ DB 'VIS_REMOVE_EXPIRED', 00H ; `string'
CONST	ENDS
;	COMDAT ??_C@_0N@HCOLJNOE@VIS_PIERCING@
CONST	SEGMENT
??_C@_0N@HCOLJNOE@VIS_PIERCING@ DB 'VIS_PIERCING', 00H	; `string'
CONST	ENDS
;	COMDAT ??_C@_0N@JGNDKGOK@VIS_MATERIAL@
CONST	SEGMENT
??_C@_0N@JGNDKGOK@VIS_MATERIAL@ DB 'VIS_MATERIAL', 00H	; `string'
CONST	ENDS
;	COMDAT ??_C@_0O@KOMGOEFL@VIS_SLOT_SIZE@
CONST	SEGMENT
??_C@_0O@KOMGOEFL@VIS_SLOT_SIZE@ DB 'VIS_SLOT_SIZE', 00H ; `string'
CONST	ENDS
;	COMDAT ??_C@_0BC@HAKKJLBB@VIS_SLOT_MATERIAL@
CONST	SEGMENT
??_C@_0BC@HAKKJLBB@VIS_SLOT_MATERIAL@ DB 'VIS_SLOT_MATERIAL', 00H ; `string'
CONST	ENDS
;	COMDAT ??_C@_09DPACILDJ@?$CC?$CFs?$CC?5?$CC?$CFs?$CC@
CONST	SEGMENT
??_C@_09DPACILDJ@?$CC?$CFs?$CC?5?$CC?$CFs?$CC@ DB '"%s" "%s"', 00H ; `string'
CONST	ENDS
;	COMDAT ??_C@_0L@EMDEHLJF@CreateItem@
CONST	SEGMENT
??_C@_0L@EMDEHLJF@CreateItem@ DB 'CreateItem', 00H	; `string'
CONST	ENDS
;	COMDAT ??_C@_0L@NPPDFLAM@RemoveItem@
CONST	SEGMENT
??_C@_0L@NPPDFLAM@RemoveItem@ DB 'RemoveItem', 00H	; `string'
CONST	ENDS
;	COMDAT ??_C@_0BK@KBLOLHCF@CHANGE_ATTRIBUTE_MATERIAL@
CONST	SEGMENT
??_C@_0BK@KBLOLHCF@CHANGE_ATTRIBUTE_MATERIAL@ DB 'CHANGE_ATTRIBUTE_MATERI'
	DB	'AL', 00H					; `string'
CONST	ENDS
;	COMDAT ??_C@_0BI@KEPNAMED@CHANGE_ATTRIBUTE_TARGET@
CONST	SEGMENT
??_C@_0BI@KEPNAMED@CHANGE_ATTRIBUTE_TARGET@ DB 'CHANGE_ATTRIBUTE_TARGET', 00H ; `string'
CONST	ENDS
;	COMDAT ??_C@_0O@EJMCNMBD@UPGRADEBARUNA@
CONST	SEGMENT
??_C@_0O@EJMCNMBD@UPGRADEBARUNA@ DB 'UPGRADEBARUNA', 00H ; `string'
CONST	ENDS
;	COMDAT ??_C@_01MJMHLOMK@O@
CONST	SEGMENT
??_C@_01MJMHLOMK@O@ DB 'O', 00H				; `string'
CONST	ENDS
;	COMDAT ??_C@_01LELAEKIP@J@
CONST	SEGMENT
??_C@_01LELAEKIP@J@ DB 'J', 00H				; `string'
CONST	ENDS
;	COMDAT ??_C@_0M@FAGCGIOJ@UPGRADEITEM@
CONST	SEGMENT
??_C@_0M@FAGCGIOJ@UPGRADEITEM@ DB 'UPGRADEITEM', 00H	; `string'
CONST	ENDS
;	COMDAT ??_C@_0BF@JEPBEGGA@PIERCING_SMELTSAFETY@
CONST	SEGMENT
??_C@_0BF@JEPBEGGA@PIERCING_SMELTSAFETY@ DB 'PIERCING_SMELTSAFETY', 00H ; `string'
CONST	ENDS
;	COMDAT ??_C@_01OCOKONAJ@L@
CONST	SEGMENT
??_C@_01OCOKONAJ@L@ DB 'L', 00H				; `string'
CONST	ENDS
;	COMDAT ??_C@_01IGIGCIAN@H@
CONST	SEGMENT
??_C@_01IGIGCIAN@H@ DB 'H', 00H				; `string'
CONST	ENDS
;	COMDAT ??_C@_01BIAFAFID@F@
CONST	SEGMENT
??_C@_01BIAFAFID@F@ DB 'F', 00H				; `string'
CONST	ENDS
;	COMDAT ??_C@_0BI@NMHNGLNA@UPGRADEITEM_SMELTSAFETY@
CONST	SEGMENT
??_C@_0BI@NMHNGLNA@UPGRADEITEM_SMELTSAFETY@ DB 'UPGRADEITEM_SMELTSAFETY', 00H ; `string'
CONST	ENDS
;	COMDAT ??_C@_01NANMIPIL@N@
CONST	SEGMENT
??_C@_01NANMIPIL@N@ DB 'N', 00H				; `string'
CONST	ENDS
;	COMDAT ??_C@_01HIHLOKLC@1@
CONST	SEGMENT
??_C@_01HIHLOKLC@1@ DB '1', 00H				; `string'
CONST	ENDS
;	COMDAT ??_C@_0BA@PKNCKPDH@PIERCING_REMOVE@
CONST	SEGMENT
??_C@_0BA@PKNCKPDH@PIERCING_REMOVE@ DB 'PIERCING_REMOVE', 00H ; `string'
CONST	ENDS
;	COMDAT ??_C@_01EPMOAMKG@$@
CONST	SEGMENT
??_C@_01EPMOAMKG@$@ DB '$', 00H				; `string'
CONST	ENDS
;	COMDAT ??_C@_01FDFGLJHB@2@
CONST	SEGMENT
??_C@_01FDFGLJHB@2@ DB '2', 00H				; `string'
CONST	ENDS
;	COMDAT ??_C@_01IPJKGB@?$CD@
CONST	SEGMENT
??_C@_01IPJKGB@?$CD@ DB '#', 00H			; `string'
CONST	ENDS
;	COMDAT ??_C@_0BD@CHOHAILH@PIERCING_PROTECTED@
CONST	SEGMENT
??_C@_0BD@CHOHAILH@PIERCING_PROTECTED@ DB 'PIERCING_PROTECTED', 00H ; `string'
CONST	ENDS
;	COMDAT ??_C@_01DCLJPIOD@?$CB@
CONST	SEGMENT
??_C@_01DCLJPIOD@?$CB@ DB '!', 00H			; `string'
CONST	ENDS
;	COMDAT ??_C@_08DGHAMMOF@PIERCING@
CONST	SEGMENT
??_C@_08DGHAMMOF@PIERCING@ DB 'PIERCING', 00H		; `string'
CONST	ENDS
;	COMDAT ??_C@_0BC@GFADILPD@nChaosPieceChance@
CONST	SEGMENT
??_C@_0BC@GFADILPD@nChaosPieceChance@ DB 'nChaosPieceChance', 00H ; `string'
CONST	ENDS
;	COMDAT ??_C@_0BC@MBHINFNF@nChaosPieceAmount@
CONST	SEGMENT
??_C@_0BC@MBHINFNF@nChaosPieceAmount@ DB 'nChaosPieceAmount', 00H ; `string'
CONST	ENDS
;	COMDAT ??_C@_0BA@BNGODABA@nChaosGemChance@
CONST	SEGMENT
??_C@_0BA@BNGODABA@nChaosGemChance@ DB 'nChaosGemChance', 00H ; `string'
CONST	ENDS
;	COMDAT ??_C@_0BA@LJBFGODG@nChaosGemAmount@
CONST	SEGMENT
??_C@_0BA@LJBFGODG@nChaosGemAmount@ DB 'nChaosGemAmount', 00H ; `string'
CONST	ENDS
;	COMDAT ??_C@_0BA@CHPGJKHE@tBarunaChaosGem@
CONST	SEGMENT
??_C@_0BA@CHPGJKHE@tBarunaChaosGem@ DB 'tBarunaChaosGem', 00H ; `string'
CONST	ENDS
;	COMDAT ??_C@_0BI@CGEHICCE@tBarunaNeedFailForPetUp@
CONST	SEGMENT
??_C@_0BI@CGEHICCE@tBarunaNeedFailForPetUp@ DB 'tBarunaNeedFailForPetUp', 00H ; `string'
CONST	ENDS
;	COMDAT ??_C@_0BI@JDBHEFPP@tBarunaPetMultiplicator@
CONST	SEGMENT
??_C@_0BI@JDBHEFPP@tBarunaPetMultiplicator@ DB 'tBarunaPetMultiplicator', 00H ; `string'
CONST	ENDS
;	COMDAT ??_C@_0BB@KEOOECFG@tBarunaDowngrade@
CONST	SEGMENT
??_C@_0BB@KEOOECFG@tBarunaDowngrade@ DB 'tBarunaDowngrade', 00H ; `string'
CONST	ENDS
;	COMDAT ??_C@_0P@KHAPPOBC@tBarunaUpgrade@
CONST	SEGMENT
??_C@_0P@KHAPPOBC@tBarunaUpgrade@ DB 'tBarunaUpgrade', 00H ; `string'
CONST	ENDS
;	COMDAT ??_C@_0DG@NIMIMML@CItemUpgrade?3?3LoadScript?$CI?$CJ?5?9?5Ba@
CONST	SEGMENT
??_C@_0DG@NIMIMML@CItemUpgrade?3?3LoadScript?$CI?$CJ?5?9?5Ba@ DB 'CItemUp'
	DB	'grade::LoadScript() - Baruna.lua Run Failed!!!', 00H ; `string'
CONST	ENDS
;	COMDAT ??_C@_0L@CHGADHBA@Baruna?4lua@
CONST	SEGMENT
??_C@_0L@CHGADHBA@Baruna?4lua@ DB 'Baruna.lua', 00H	; `string'
CONST	ENDS
;	COMDAT ??_C@_0BF@EOMJLBOM@nItemTransyHighLevel@
CONST	SEGMENT
??_C@_0BF@EOMJLBOM@nItemTransyHighLevel@ DB 'nItemTransyHighLevel', 00H ; `string'
CONST	ENDS
;	COMDAT ??_C@_0BE@KIIJAFJA@nItemTransyLowLevel@
CONST	SEGMENT
??_C@_0BE@KIIJAFJA@nItemTransyLowLevel@ DB 'nItemTransyLowLevel', 00H ; `string'
CONST	ENDS
;	COMDAT ??_C@_0P@FAOHCBHB@nAddAtkDmgRate@
CONST	SEGMENT
??_C@_0P@FAOHCBHB@nAddAtkDmgRate@ DB 'nAddAtkDmgRate', 00H ; `string'
CONST	ENDS
;	COMDAT ??_C@_0N@BGJGNMMP@nDefenseRate@
CONST	SEGMENT
??_C@_0N@BGJGNMMP@nDefenseRate@ DB 'nDefenseRate', 00H	; `string'
CONST	ENDS
;	COMDAT ??_C@_0M@DAIDPKFC@nDamageRate@
CONST	SEGMENT
??_C@_0M@DAIDPKFC@nDamageRate@ DB 'nDamageRate', 00H	; `string'
CONST	ENDS
;	COMDAT ??_C@_05JBKGBCJC@nProb@
CONST	SEGMENT
??_C@_05JBKGBCJC@nProb@ DB 'nProb', 00H			; `string'
CONST	ENDS
;	COMDAT ??_C@_0L@IOMDLKDC@tAttribute@
CONST	SEGMENT
??_C@_0L@IOMDLKDC@tAttribute@ DB 'tAttribute', 00H	; `string'
CONST	ENDS
;	COMDAT ??_C@_08GMCIKKIC@tGeneral@
CONST	SEGMENT
??_C@_08GMCIKKIC@tGeneral@ DB 'tGeneral', 00H		; `string'
CONST	ENDS
;	COMDAT ??_C@_0M@IAAAPADN@tWeaponProb@
CONST	SEGMENT
??_C@_0M@IAAAPADN@tWeaponProb@ DB 'tWeaponProb', 00H	; `string'
CONST	ENDS
;	COMDAT ??_C@_09CPEADECJ@tSuitProb@
CONST	SEGMENT
??_C@_09CPEADECJ@tSuitProb@ DB 'tSuitProb', 00H		; `string'
CONST	ENDS
;	COMDAT ??_C@_0DL@MEIBMACM@CItemUpgrade?3?3LoadScript?$CI?$CJ?5?9?5It@
CONST	SEGMENT
??_C@_0DL@MEIBMACM@CItemUpgrade?3?3LoadScript?$CI?$CJ?5?9?5It@ DB 'CItemU'
	DB	'pgrade::LoadScript() - ItemUpgrade.lua Run Failed!!!', 00H ; `string'
CONST	ENDS
;	COMDAT ??_C@_0BA@IAAIFMCJ@ItemUpgrade?4lua@
CONST	SEGMENT
??_C@_0BA@IAAIFMCJ@ItemUpgrade?4lua@ DB 'ItemUpgrade.lua', 00H ; `string'
CONST	ENDS
;	COMDAT ??_R4bad_alloc@std@@6B@
rdata$r	SEGMENT
??_R4bad_alloc@std@@6B@ DD 00H				; std::bad_alloc::`RTTI Complete Object Locator'
	DD	00H
	DD	00H
	DD	FLAT:??_R0?AVbad_alloc@std@@@8
	DD	FLAT:??_R3bad_alloc@std@@8
rdata$r	ENDS
;	COMDAT ??_R2bad_alloc@std@@8
rdata$r	SEGMENT
??_R2bad_alloc@std@@8 DD FLAT:??_R1A@?0A@EA@bad_alloc@std@@8 ; std::bad_alloc::`RTTI Base Class Array'
	DD	FLAT:??_R1A@?0A@EA@exception@std@@8
rdata$r	ENDS
;	COMDAT ??_R3bad_alloc@std@@8
rdata$r	SEGMENT
??_R3bad_alloc@std@@8 DD 00H				; std::bad_alloc::`RTTI Class Hierarchy Descriptor'
	DD	00H
	DD	02H
	DD	FLAT:??_R2bad_alloc@std@@8
rdata$r	ENDS
;	COMDAT ??_R1A@?0A@EA@bad_alloc@std@@8
rdata$r	SEGMENT
??_R1A@?0A@EA@bad_alloc@std@@8 DD FLAT:??_R0?AVbad_alloc@std@@@8 ; std::bad_alloc::`RTTI Base Class Descriptor at (0,-1,0,64)'
	DD	01H
	DD	00H
	DD	0ffffffffH
	DD	00H
	DD	040H
	DD	FLAT:??_R3bad_alloc@std@@8
rdata$r	ENDS
;	COMDAT ??_R1A@?0A@EA@bad_array_new_length@std@@8
rdata$r	SEGMENT
??_R1A@?0A@EA@bad_array_new_length@std@@8 DD FLAT:??_R0?AVbad_array_new_length@std@@@8 ; std::bad_array_new_length::`RTTI Base Class Descriptor at (0,-1,0,64)'
	DD	02H
	DD	00H
	DD	0ffffffffH
	DD	00H
	DD	040H
	DD	FLAT:??_R3bad_array_new_length@std@@8
rdata$r	ENDS
;	COMDAT ??_R2bad_array_new_length@std@@8
rdata$r	SEGMENT
??_R2bad_array_new_length@std@@8 DD FLAT:??_R1A@?0A@EA@bad_array_new_length@std@@8 ; std::bad_array_new_length::`RTTI Base Class Array'
	DD	FLAT:??_R1A@?0A@EA@bad_alloc@std@@8
	DD	FLAT:??_R1A@?0A@EA@exception@std@@8
rdata$r	ENDS
;	COMDAT ??_R3bad_array_new_length@std@@8
rdata$r	SEGMENT
??_R3bad_array_new_length@std@@8 DD 00H			; std::bad_array_new_length::`RTTI Class Hierarchy Descriptor'
	DD	00H
	DD	03H
	DD	FLAT:??_R2bad_array_new_length@std@@8
rdata$r	ENDS
;	COMDAT ??_R4bad_array_new_length@std@@6B@
rdata$r	SEGMENT
??_R4bad_array_new_length@std@@6B@ DD 00H		; std::bad_array_new_length::`RTTI Complete Object Locator'
	DD	00H
	DD	00H
	DD	FLAT:??_R0?AVbad_array_new_length@std@@@8
	DD	FLAT:??_R3bad_array_new_length@std@@8
rdata$r	ENDS
;	COMDAT ??_R1A@?0A@EA@exception@std@@8
rdata$r	SEGMENT
??_R1A@?0A@EA@exception@std@@8 DD FLAT:??_R0?AVexception@std@@@8 ; std::exception::`RTTI Base Class Descriptor at (0,-1,0,64)'
	DD	00H
	DD	00H
	DD	0ffffffffH
	DD	00H
	DD	040H
	DD	FLAT:??_R3exception@std@@8
rdata$r	ENDS
;	COMDAT ??_R2exception@std@@8
rdata$r	SEGMENT
??_R2exception@std@@8 DD FLAT:??_R1A@?0A@EA@exception@std@@8 ; std::exception::`RTTI Base Class Array'
rdata$r	ENDS
;	COMDAT ??_R3exception@std@@8
rdata$r	SEGMENT
??_R3exception@std@@8 DD 00H				; std::exception::`RTTI Class Hierarchy Descriptor'
	DD	00H
	DD	01H
	DD	FLAT:??_R2exception@std@@8
rdata$r	ENDS
;	COMDAT ??_R4exception@std@@6B@
rdata$r	SEGMENT
??_R4exception@std@@6B@ DD 00H				; std::exception::`RTTI Complete Object Locator'
	DD	00H
	DD	00H
	DD	FLAT:??_R0?AVexception@std@@@8
	DD	FLAT:??_R3exception@std@@8
rdata$r	ENDS
;	COMDAT ??_C@_0BI@BEIFNGEL@GetItemProp?5range_error@
CONST	SEGMENT
??_C@_0BI@BEIFNGEL@GetItemProp?5range_error@ DB 'GetItemProp range_error', 00H ; `string'
CONST	ENDS
;	COMDAT ??_C@_0BM@HMFGHCP@?$CFs?5min?3?$CFd?0?5max?3?$CFd?0?5index?3?$CFd@
CONST	SEGMENT
??_C@_0BM@HMFGHCP@?$CFs?5min?3?$CFd?0?5max?3?$CFd?0?5index?3?$CFd@ DB '%s'
	DB	' min:%d, max:%d, index:%d', 00H		; `string'
CONST	ENDS
;	COMDAT ??_C@_0BB@GCADKGJO@map?1set?5too?5long@
CONST	SEGMENT
??_C@_0BB@GCADKGJO@map?1set?5too?5long@ DB 'map/set too long', 00H ; `string'
CONST	ENDS
;	COMDAT __CT??_R0?AVbad_alloc@std@@@8??0bad_alloc@std@@QAE@ABV01@@Z12
xdata$x	SEGMENT
__CT??_R0?AVbad_alloc@std@@@8??0bad_alloc@std@@QAE@ABV01@@Z12 DD 010H
	DD	FLAT:??_R0?AVbad_alloc@std@@@8
	DD	00H
	DD	0ffffffffH
	ORG $+4
	DD	0cH
	DD	FLAT:??0bad_alloc@std@@QAE@ABV01@@Z
xdata$x	ENDS
;	COMDAT ??_R0?AVbad_alloc@std@@@8
data$r	SEGMENT
??_R0?AVbad_alloc@std@@@8 DD FLAT:??_7type_info@@6B@	; std::bad_alloc `RTTI Type Descriptor'
	DD	00H
	DB	'.?AVbad_alloc@std@@', 00H
data$r	ENDS
;	COMDAT __CT??_R0?AVbad_array_new_length@std@@@8??0bad_array_new_length@std@@QAE@ABV01@@Z12
xdata$x	SEGMENT
__CT??_R0?AVbad_array_new_length@std@@@8??0bad_array_new_length@std@@QAE@ABV01@@Z12 DD 00H
	DD	FLAT:??_R0?AVbad_array_new_length@std@@@8
	DD	00H
	DD	0ffffffffH
	ORG $+4
	DD	0cH
	DD	FLAT:??0bad_array_new_length@std@@QAE@ABV01@@Z
xdata$x	ENDS
;	COMDAT ??_R0?AVbad_array_new_length@std@@@8
data$r	SEGMENT
??_R0?AVbad_array_new_length@std@@@8 DD FLAT:??_7type_info@@6B@ ; std::bad_array_new_length `RTTI Type Descriptor'
	DD	00H
	DB	'.?AVbad_array_new_length@std@@', 00H
data$r	ENDS
;	COMDAT __CTA3?AVbad_array_new_length@std@@
xdata$x	SEGMENT
__CTA3?AVbad_array_new_length@std@@ DD 03H
	DD	FLAT:__CT??_R0?AVbad_array_new_length@std@@@8??0bad_array_new_length@std@@QAE@ABV01@@Z12
	DD	FLAT:__CT??_R0?AVbad_alloc@std@@@8??0bad_alloc@std@@QAE@ABV01@@Z12
	DD	FLAT:__CT??_R0?AVexception@std@@@8??0exception@std@@QAE@ABV01@@Z12
xdata$x	ENDS
;	COMDAT __TI3?AVbad_array_new_length@std@@
xdata$x	SEGMENT
__TI3?AVbad_array_new_length@std@@ DD 00H
	DD	FLAT:??1bad_array_new_length@std@@UAE@XZ
	DD	00H
	DD	FLAT:__CTA3?AVbad_array_new_length@std@@
xdata$x	ENDS
;	COMDAT __CT??_R0?AVexception@std@@@8??0exception@std@@QAE@ABV01@@Z12
xdata$x	SEGMENT
__CT??_R0?AVexception@std@@@8??0exception@std@@QAE@ABV01@@Z12 DD 00H
	DD	FLAT:??_R0?AVexception@std@@@8
	DD	00H
	DD	0ffffffffH
	ORG $+4
	DD	0cH
	DD	FLAT:??0exception@std@@QAE@ABV01@@Z
xdata$x	ENDS
;	COMDAT ??_R0?AVexception@std@@@8
data$r	SEGMENT
??_R0?AVexception@std@@@8 DD FLAT:??_7type_info@@6B@	; std::exception `RTTI Type Descriptor'
	DD	00H
	DB	'.?AVexception@std@@', 00H
data$r	ENDS
;	COMDAT ??_C@_0BF@KINCDENJ@bad?5array?5new?5length@
CONST	SEGMENT
??_C@_0BF@KINCDENJ@bad?5array?5new?5length@ DB 'bad array new length', 00H ; `string'
CONST	ENDS
;	COMDAT ??_7bad_array_new_length@std@@6B@
CONST	SEGMENT
??_7bad_array_new_length@std@@6B@ DD FLAT:??_R4bad_array_new_length@std@@6B@ ; std::bad_array_new_length::`vftable'
	DD	FLAT:??_Ebad_array_new_length@std@@UAEPAXI@Z
	DD	FLAT:?what@exception@std@@UBEPBDXZ
CONST	ENDS
;	COMDAT ??_7bad_alloc@std@@6B@
CONST	SEGMENT
??_7bad_alloc@std@@6B@ DD FLAT:??_R4bad_alloc@std@@6B@	; std::bad_alloc::`vftable'
	DD	FLAT:??_Ebad_alloc@std@@UAEPAXI@Z
	DD	FLAT:?what@exception@std@@UBEPBDXZ
CONST	ENDS
;	COMDAT ??_C@_0BC@EOODALEL@Unknown?5exception@
CONST	SEGMENT
??_C@_0BC@EOODALEL@Unknown?5exception@ DB 'Unknown exception', 00H ; `string'
CONST	ENDS
;	COMDAT ??_7exception@std@@6B@
CONST	SEGMENT
??_7exception@std@@6B@ DD FLAT:??_R4exception@std@@6B@	; std::exception::`vftable'
	DD	FLAT:??_Eexception@std@@UAEPAXI@Z
	DD	FLAT:?what@exception@std@@UBEPBDXZ
CONST	ENDS
;	COMDAT ??_C@_00CNPNBAHC@@
CONST	SEGMENT
??_C@_00CNPNBAHC@@ DB 00H				; `string'
CONST	ENDS
;	COMDAT ??_C@_01PLPBNMEI@M@
CONST	SEGMENT
??_C@_01PLPBNMEI@M@ DB 'M', 00H				; `string'
CONST	ENDS
;	COMDAT ??_C@_02DPKJAMEF@?$CFd@
CONST	SEGMENT
??_C@_02DPKJAMEF@?$CFd@ DB '%d', 00H			; `string'
CONST	ENDS
;	COMDAT xdata$x
xdata$x	SEGMENT
__unwindtable$??$?0U?$pair@HU__CHAOS_GEM@@@std@@@?$_Tree_temp_node@V?$allocator@U?$_Tree_node@U?$pair@$$CBHU__CHAOS_GEM@@@std@@PAX@std@@@std@@@std@@QAE@AAV?$allocator@U?$_Tree_node@U?$pair@$$CBHU__CHAOS_GEM@@@std@@PAX@std@@@1@PAU?$_Tree_node@U?$pair@$$CBHU__CHAOS_GEM@@@std@@PAX@1@$$QAU?$pair@HU__CHAOS_GEM@@@1@@Z DD 0ffffffffH
	DD	FLAT:__unwindfunclet$??$?0U?$pair@HU__CHAOS_GEM@@@std@@@?$_Tree_temp_node@V?$allocator@U?$_Tree_node@U?$pair@$$CBHU__CHAOS_GEM@@@std@@PAX@std@@@std@@@std@@QAE@AAV?$allocator@U?$_Tree_node@U?$pair@$$CBHU__CHAOS_GEM@@@std@@PAX@std@@@1@PAU?$_Tree_node@U?$pair@$$CBHU__CHAOS_GEM@@@std@@PAX@1@$$QAU?$pair@HU__CHAOS_GEM@@@1@@Z$1
__ehfuncinfo$??$?0U?$pair@HU__CHAOS_GEM@@@std@@@?$_Tree_temp_node@V?$allocator@U?$_Tree_node@U?$pair@$$CBHU__CHAOS_GEM@@@std@@PAX@std@@@std@@@std@@QAE@AAV?$allocator@U?$_Tree_node@U?$pair@$$CBHU__CHAOS_GEM@@@std@@PAX@std@@@1@PAU?$_Tree_node@U?$pair@$$CBHU__CHAOS_GEM@@@std@@PAX@1@$$QAU?$pair@HU__CHAOS_GEM@@@1@@Z DD 019930522H
	DD	01H
	DD	FLAT:__unwindtable$??$?0U?$pair@HU__CHAOS_GEM@@@std@@@?$_Tree_temp_node@V?$allocator@U?$_Tree_node@U?$pair@$$CBHU__CHAOS_GEM@@@std@@PAX@std@@@std@@@std@@QAE@AAV?$allocator@U?$_Tree_node@U?$pair@$$CBHU__CHAOS_GEM@@@std@@PAX@std@@@1@PAU?$_Tree_node@U?$pair@$$CBHU__CHAOS_GEM@@@std@@PAX@1@$$QAU?$pair@HU__CHAOS_GEM@@@1@@Z
	DD	2 DUP(00H)
	DD	2 DUP(00H)
	DD	00H
	DD	01H
xdata$x	ENDS
;	COMDAT xdata$x
xdata$x	SEGMENT
__unwindtable$??0?$_Tree_temp_node_alloc@V?$allocator@U?$_Tree_node@U?$pair@$$CBHU__CHAOS_GEM@@@std@@PAX@std@@@std@@@std@@QAE@AAV?$allocator@U?$_Tree_node@U?$pair@$$CBHU__CHAOS_GEM@@@std@@PAX@std@@@1@@Z DD 0ffffffffH
	DD	FLAT:__unwindfunclet$??0?$_Tree_temp_node_alloc@V?$allocator@U?$_Tree_node@U?$pair@$$CBHU__CHAOS_GEM@@@std@@PAX@std@@@std@@@std@@QAE@AAV?$allocator@U?$_Tree_node@U?$pair@$$CBHU__CHAOS_GEM@@@std@@PAX@std@@@1@@Z$0
__ehfuncinfo$??0?$_Tree_temp_node_alloc@V?$allocator@U?$_Tree_node@U?$pair@$$CBHU__CHAOS_GEM@@@std@@PAX@std@@@std@@@std@@QAE@AAV?$allocator@U?$_Tree_node@U?$pair@$$CBHU__CHAOS_GEM@@@std@@PAX@std@@@1@@Z DD 019930522H
	DD	01H
	DD	FLAT:__unwindtable$??0?$_Tree_temp_node_alloc@V?$allocator@U?$_Tree_node@U?$pair@$$CBHU__CHAOS_GEM@@@std@@PAX@std@@@std@@@std@@QAE@AAV?$allocator@U?$_Tree_node@U?$pair@$$CBHU__CHAOS_GEM@@@std@@PAX@std@@@1@@Z
	DD	2 DUP(00H)
	DD	2 DUP(00H)
	DD	00H
	DD	01H
xdata$x	ENDS
;	COMDAT xdata$x
xdata$x	SEGMENT
__unwindtable$??$?0U?$pair@HU__ATTRIBUTE_ENCHANT@@@std@@@?$_Tree_temp_node@V?$allocator@U?$_Tree_node@U?$pair@$$CBHU__ATTRIBUTE_ENCHANT@@@std@@PAX@std@@@std@@@std@@QAE@AAV?$allocator@U?$_Tree_node@U?$pair@$$CBHU__ATTRIBUTE_ENCHANT@@@std@@PAX@std@@@1@PAU?$_Tree_node@U?$pair@$$CBHU__ATTRIBUTE_ENCHANT@@@std@@PAX@1@$$QAU?$pair@HU__ATTRIBUTE_ENCHANT@@@1@@Z DD 0ffffffffH
	DD	FLAT:__unwindfunclet$??$?0U?$pair@HU__ATTRIBUTE_ENCHANT@@@std@@@?$_Tree_temp_node@V?$allocator@U?$_Tree_node@U?$pair@$$CBHU__ATTRIBUTE_ENCHANT@@@std@@PAX@std@@@std@@@std@@QAE@AAV?$allocator@U?$_Tree_node@U?$pair@$$CBHU__ATTRIBUTE_ENCHANT@@@std@@PAX@std@@@1@PAU?$_Tree_node@U?$pair@$$CBHU__ATTRIBUTE_ENCHANT@@@std@@PAX@1@$$QAU?$pair@HU__ATTRIBUTE_ENCHANT@@@1@@Z$1
__ehfuncinfo$??$?0U?$pair@HU__ATTRIBUTE_ENCHANT@@@std@@@?$_Tree_temp_node@V?$allocator@U?$_Tree_node@U?$pair@$$CBHU__ATTRIBUTE_ENCHANT@@@std@@PAX@std@@@std@@@std@@QAE@AAV?$allocator@U?$_Tree_node@U?$pair@$$CBHU__ATTRIBUTE_ENCHANT@@@std@@PAX@std@@@1@PAU?$_Tree_node@U?$pair@$$CBHU__ATTRIBUTE_ENCHANT@@@std@@PAX@1@$$QAU?$pair@HU__ATTRIBUTE_ENCHANT@@@1@@Z DD 019930522H
	DD	01H
	DD	FLAT:__unwindtable$??$?0U?$pair@HU__ATTRIBUTE_ENCHANT@@@std@@@?$_Tree_temp_node@V?$allocator@U?$_Tree_node@U?$pair@$$CBHU__ATTRIBUTE_ENCHANT@@@std@@PAX@std@@@std@@@std@@QAE@AAV?$allocator@U?$_Tree_node@U?$pair@$$CBHU__ATTRIBUTE_ENCHANT@@@std@@PAX@std@@@1@PAU?$_Tree_node@U?$pair@$$CBHU__ATTRIBUTE_ENCHANT@@@std@@PAX@1@$$QAU?$pair@HU__ATTRIBUTE_ENCHANT@@@1@@Z
	DD	2 DUP(00H)
	DD	2 DUP(00H)
	DD	00H
	DD	01H
xdata$x	ENDS
;	COMDAT xdata$x
xdata$x	SEGMENT
__unwindtable$??0?$_Tree_temp_node_alloc@V?$allocator@U?$_Tree_node@U?$pair@$$CBHU__ATTRIBUTE_ENCHANT@@@std@@PAX@std@@@std@@@std@@QAE@AAV?$allocator@U?$_Tree_node@U?$pair@$$CBHU__ATTRIBUTE_ENCHANT@@@std@@PAX@std@@@1@@Z DD 0ffffffffH
	DD	FLAT:__unwindfunclet$??0?$_Tree_temp_node_alloc@V?$allocator@U?$_Tree_node@U?$pair@$$CBHU__ATTRIBUTE_ENCHANT@@@std@@PAX@std@@@std@@@std@@QAE@AAV?$allocator@U?$_Tree_node@U?$pair@$$CBHU__ATTRIBUTE_ENCHANT@@@std@@PAX@std@@@1@@Z$0
__ehfuncinfo$??0?$_Tree_temp_node_alloc@V?$allocator@U?$_Tree_node@U?$pair@$$CBHU__ATTRIBUTE_ENCHANT@@@std@@PAX@std@@@std@@@std@@QAE@AAV?$allocator@U?$_Tree_node@U?$pair@$$CBHU__ATTRIBUTE_ENCHANT@@@std@@PAX@std@@@1@@Z DD 019930522H
	DD	01H
	DD	FLAT:__unwindtable$??0?$_Tree_temp_node_alloc@V?$allocator@U?$_Tree_node@U?$pair@$$CBHU__ATTRIBUTE_ENCHANT@@@std@@PAX@std@@@std@@@std@@QAE@AAV?$allocator@U?$_Tree_node@U?$pair@$$CBHU__ATTRIBUTE_ENCHANT@@@std@@PAX@std@@@1@@Z
	DD	2 DUP(00H)
	DD	2 DUP(00H)
	DD	00H
	DD	01H
xdata$x	ENDS
;	COMDAT xdata$x
xdata$x	SEGMENT
__unwindtable$??$?0U?$pair@HH@std@@@?$_Tree_temp_node@V?$allocator@U?$_Tree_node@U?$pair@$$CBHH@std@@PAX@std@@@std@@@std@@QAE@AAV?$allocator@U?$_Tree_node@U?$pair@$$CBHH@std@@PAX@std@@@1@PAU?$_Tree_node@U?$pair@$$CBHH@std@@PAX@1@$$QAU?$pair@HH@1@@Z DD 0ffffffffH
	DD	FLAT:__unwindfunclet$??$?0U?$pair@HH@std@@@?$_Tree_temp_node@V?$allocator@U?$_Tree_node@U?$pair@$$CBHH@std@@PAX@std@@@std@@@std@@QAE@AAV?$allocator@U?$_Tree_node@U?$pair@$$CBHH@std@@PAX@std@@@1@PAU?$_Tree_node@U?$pair@$$CBHH@std@@PAX@1@$$QAU?$pair@HH@1@@Z$1
__ehfuncinfo$??$?0U?$pair@HH@std@@@?$_Tree_temp_node@V?$allocator@U?$_Tree_node@U?$pair@$$CBHH@std@@PAX@std@@@std@@@std@@QAE@AAV?$allocator@U?$_Tree_node@U?$pair@$$CBHH@std@@PAX@std@@@1@PAU?$_Tree_node@U?$pair@$$CBHH@std@@PAX@1@$$QAU?$pair@HH@1@@Z DD 019930522H
	DD	01H
	DD	FLAT:__unwindtable$??$?0U?$pair@HH@std@@@?$_Tree_temp_node@V?$allocator@U?$_Tree_node@U?$pair@$$CBHH@std@@PAX@std@@@std@@@std@@QAE@AAV?$allocator@U?$_Tree_node@U?$pair@$$CBHH@std@@PAX@std@@@1@PAU?$_Tree_node@U?$pair@$$CBHH@std@@PAX@1@$$QAU?$pair@HH@1@@Z
	DD	2 DUP(00H)
	DD	2 DUP(00H)
	DD	00H
	DD	01H
xdata$x	ENDS
;	COMDAT xdata$x
xdata$x	SEGMENT
__unwindtable$??0?$_Tree_temp_node_alloc@V?$allocator@U?$_Tree_node@U?$pair@$$CBHH@std@@PAX@std@@@std@@@std@@QAE@AAV?$allocator@U?$_Tree_node@U?$pair@$$CBHH@std@@PAX@std@@@1@@Z DD 0ffffffffH
	DD	FLAT:__unwindfunclet$??0?$_Tree_temp_node_alloc@V?$allocator@U?$_Tree_node@U?$pair@$$CBHH@std@@PAX@std@@@std@@@std@@QAE@AAV?$allocator@U?$_Tree_node@U?$pair@$$CBHH@std@@PAX@std@@@1@@Z$0
__ehfuncinfo$??0?$_Tree_temp_node_alloc@V?$allocator@U?$_Tree_node@U?$pair@$$CBHH@std@@PAX@std@@@std@@@std@@QAE@AAV?$allocator@U?$_Tree_node@U?$pair@$$CBHH@std@@PAX@std@@@1@@Z DD 019930522H
	DD	01H
	DD	FLAT:__unwindtable$??0?$_Tree_temp_node_alloc@V?$allocator@U?$_Tree_node@U?$pair@$$CBHH@std@@PAX@std@@@std@@@std@@QAE@AAV?$allocator@U?$_Tree_node@U?$pair@$$CBHH@std@@PAX@std@@@1@@Z
	DD	2 DUP(00H)
	DD	2 DUP(00H)
	DD	00H
	DD	01H
xdata$x	ENDS
;	COMDAT xdata$x
xdata$x	SEGMENT
__unwindtable$??$_Emplace@U?$pair@HU__CHAOS_GEM@@@std@@@?$_Tree@V?$_Tmap_traits@HU__CHAOS_GEM@@U?$less@H@std@@V?$allocator@U?$pair@$$CBHU__CHAOS_GEM@@@std@@@3@$0A@@std@@@std@@IAE?AU?$pair@PAU?$_Tree_node@U?$pair@$$CBHU__CHAOS_GEM@@@std@@PAX@std@@_N@1@$$QAU?$pair@HU__CHAOS_GEM@@@1@@Z DD 0ffffffffH
	DD	FLAT:__unwindfunclet$??$_Emplace@U?$pair@HU__CHAOS_GEM@@@std@@@?$_Tree@V?$_Tmap_traits@HU__CHAOS_GEM@@U?$less@H@std@@V?$allocator@U?$pair@$$CBHU__CHAOS_GEM@@@std@@@3@$0A@@std@@@std@@IAE?AU?$pair@PAU?$_Tree_node@U?$pair@$$CBHU__CHAOS_GEM@@@std@@PAX@std@@_N@1@$$QAU?$pair@HU__CHAOS_GEM@@@1@@Z$2
__ehfuncinfo$??$_Emplace@U?$pair@HU__CHAOS_GEM@@@std@@@?$_Tree@V?$_Tmap_traits@HU__CHAOS_GEM@@U?$less@H@std@@V?$allocator@U?$pair@$$CBHU__CHAOS_GEM@@@std@@@3@$0A@@std@@@std@@IAE?AU?$pair@PAU?$_Tree_node@U?$pair@$$CBHU__CHAOS_GEM@@@std@@PAX@std@@_N@1@$$QAU?$pair@HU__CHAOS_GEM@@@1@@Z DD 019930522H
	DD	01H
	DD	FLAT:__unwindtable$??$_Emplace@U?$pair@HU__CHAOS_GEM@@@std@@@?$_Tree@V?$_Tmap_traits@HU__CHAOS_GEM@@U?$less@H@std@@V?$allocator@U?$pair@$$CBHU__CHAOS_GEM@@@std@@@3@$0A@@std@@@std@@IAE?AU?$pair@PAU?$_Tree_node@U?$pair@$$CBHU__CHAOS_GEM@@@std@@PAX@std@@_N@1@$$QAU?$pair@HU__CHAOS_GEM@@@1@@Z
	DD	2 DUP(00H)
	DD	2 DUP(00H)
	DD	00H
	DD	01H
xdata$x	ENDS
;	COMDAT xdata$x
xdata$x	SEGMENT
__unwindtable$??$_Emplace@U?$pair@HU__ATTRIBUTE_ENCHANT@@@std@@@?$_Tree@V?$_Tmap_traits@HU__ATTRIBUTE_ENCHANT@@U?$less@H@std@@V?$allocator@U?$pair@$$CBHU__ATTRIBUTE_ENCHANT@@@std@@@3@$0A@@std@@@std@@IAE?AU?$pair@PAU?$_Tree_node@U?$pair@$$CBHU__ATTRIBUTE_ENCHANT@@@std@@PAX@std@@_N@1@$$QAU?$pair@HU__ATTRIBUTE_ENCHANT@@@1@@Z DD 0ffffffffH
	DD	FLAT:__unwindfunclet$??$_Emplace@U?$pair@HU__ATTRIBUTE_ENCHANT@@@std@@@?$_Tree@V?$_Tmap_traits@HU__ATTRIBUTE_ENCHANT@@U?$less@H@std@@V?$allocator@U?$pair@$$CBHU__ATTRIBUTE_ENCHANT@@@std@@@3@$0A@@std@@@std@@IAE?AU?$pair@PAU?$_Tree_node@U?$pair@$$CBHU__ATTRIBUTE_ENCHANT@@@std@@PAX@std@@_N@1@$$QAU?$pair@HU__ATTRIBUTE_ENCHANT@@@1@@Z$2
__ehfuncinfo$??$_Emplace@U?$pair@HU__ATTRIBUTE_ENCHANT@@@std@@@?$_Tree@V?$_Tmap_traits@HU__ATTRIBUTE_ENCHANT@@U?$less@H@std@@V?$allocator@U?$pair@$$CBHU__ATTRIBUTE_ENCHANT@@@std@@@3@$0A@@std@@@std@@IAE?AU?$pair@PAU?$_Tree_node@U?$pair@$$CBHU__ATTRIBUTE_ENCHANT@@@std@@PAX@std@@_N@1@$$QAU?$pair@HU__ATTRIBUTE_ENCHANT@@@1@@Z DD 019930522H
	DD	01H
	DD	FLAT:__unwindtable$??$_Emplace@U?$pair@HU__ATTRIBUTE_ENCHANT@@@std@@@?$_Tree@V?$_Tmap_traits@HU__ATTRIBUTE_ENCHANT@@U?$less@H@std@@V?$allocator@U?$pair@$$CBHU__ATTRIBUTE_ENCHANT@@@std@@@3@$0A@@std@@@std@@IAE?AU?$pair@PAU?$_Tree_node@U?$pair@$$CBHU__ATTRIBUTE_ENCHANT@@@std@@PAX@std@@_N@1@$$QAU?$pair@HU__ATTRIBUTE_ENCHANT@@@1@@Z
	DD	2 DUP(00H)
	DD	2 DUP(00H)
	DD	00H
	DD	01H
xdata$x	ENDS
;	COMDAT xdata$x
xdata$x	SEGMENT
__unwindtable$??$_Emplace@U?$pair@HH@std@@@?$_Tree@V?$_Tmap_traits@HHU?$less@H@std@@V?$allocator@U?$pair@$$CBHH@std@@@2@$0A@@std@@@std@@IAE?AU?$pair@PAU?$_Tree_node@U?$pair@$$CBHH@std@@PAX@std@@_N@1@$$QAU?$pair@HH@1@@Z DD 0ffffffffH
	DD	FLAT:__unwindfunclet$??$_Emplace@U?$pair@HH@std@@@?$_Tree@V?$_Tmap_traits@HHU?$less@H@std@@V?$allocator@U?$pair@$$CBHH@std@@@2@$0A@@std@@@std@@IAE?AU?$pair@PAU?$_Tree_node@U?$pair@$$CBHH@std@@PAX@std@@_N@1@$$QAU?$pair@HH@1@@Z$2
__ehfuncinfo$??$_Emplace@U?$pair@HH@std@@@?$_Tree@V?$_Tmap_traits@HHU?$less@H@std@@V?$allocator@U?$pair@$$CBHH@std@@@2@$0A@@std@@@std@@IAE?AU?$pair@PAU?$_Tree_node@U?$pair@$$CBHH@std@@PAX@std@@_N@1@$$QAU?$pair@HH@1@@Z DD 019930522H
	DD	01H
	DD	FLAT:__unwindtable$??$_Emplace@U?$pair@HH@std@@@?$_Tree@V?$_Tmap_traits@HHU?$less@H@std@@V?$allocator@U?$pair@$$CBHH@std@@@2@$0A@@std@@@std@@IAE?AU?$pair@PAU?$_Tree_node@U?$pair@$$CBHH@std@@PAX@std@@_N@1@$$QAU?$pair@HH@1@@Z
	DD	2 DUP(00H)
	DD	2 DUP(00H)
	DD	00H
	DD	01H
xdata$x	ENDS
;	COMDAT xdata$x
xdata$x	SEGMENT
__unwindtable$??$emplace@U?$pair@HU__CHAOS_GEM@@@std@@@?$_Tree@V?$_Tmap_traits@HU__CHAOS_GEM@@U?$less@H@std@@V?$allocator@U?$pair@$$CBHU__CHAOS_GEM@@@std@@@3@$0A@@std@@@std@@QAE?AU?$pair@V?$_Tree_iterator@V?$_Tree_val@U?$_Tree_simple_types@U?$pair@$$CBHU__CHAOS_GEM@@@std@@@std@@@std@@@std@@_N@1@$$QAU?$pair@HU__CHAOS_GEM@@@1@@Z DD 0ffffffffH
	DD	FLAT:__unwindfunclet$??$emplace@U?$pair@HU__CHAOS_GEM@@@std@@@?$_Tree@V?$_Tmap_traits@HU__CHAOS_GEM@@U?$less@H@std@@V?$allocator@U?$pair@$$CBHU__CHAOS_GEM@@@std@@@3@$0A@@std@@@std@@QAE?AU?$pair@V?$_Tree_iterator@V?$_Tree_val@U?$_Tree_simple_types@U?$pair@$$CBHU__CHAOS_GEM@@@std@@@std@@@std@@@std@@_N@1@$$QAU?$pair@HU__CHAOS_GEM@@@1@@Z$2
__ehfuncinfo$??$emplace@U?$pair@HU__CHAOS_GEM@@@std@@@?$_Tree@V?$_Tmap_traits@HU__CHAOS_GEM@@U?$less@H@std@@V?$allocator@U?$pair@$$CBHU__CHAOS_GEM@@@std@@@3@$0A@@std@@@std@@QAE?AU?$pair@V?$_Tree_iterator@V?$_Tree_val@U?$_Tree_simple_types@U?$pair@$$CBHU__CHAOS_GEM@@@std@@@std@@@std@@@std@@_N@1@$$QAU?$pair@HU__CHAOS_GEM@@@1@@Z DD 019930522H
	DD	01H
	DD	FLAT:__unwindtable$??$emplace@U?$pair@HU__CHAOS_GEM@@@std@@@?$_Tree@V?$_Tmap_traits@HU__CHAOS_GEM@@U?$less@H@std@@V?$allocator@U?$pair@$$CBHU__CHAOS_GEM@@@std@@@3@$0A@@std@@@std@@QAE?AU?$pair@V?$_Tree_iterator@V?$_Tree_val@U?$_Tree_simple_types@U?$pair@$$CBHU__CHAOS_GEM@@@std@@@std@@@std@@@std@@_N@1@$$QAU?$pair@HU__CHAOS_GEM@@@1@@Z
	DD	2 DUP(00H)
	DD	2 DUP(00H)
	DD	00H
	DD	01H
xdata$x	ENDS
;	COMDAT xdata$x
xdata$x	SEGMENT
__unwindtable$??$emplace@U?$pair@HU__ATTRIBUTE_ENCHANT@@@std@@@?$_Tree@V?$_Tmap_traits@HU__ATTRIBUTE_ENCHANT@@U?$less@H@std@@V?$allocator@U?$pair@$$CBHU__ATTRIBUTE_ENCHANT@@@std@@@3@$0A@@std@@@std@@QAE?AU?$pair@V?$_Tree_iterator@V?$_Tree_val@U?$_Tree_simple_types@U?$pair@$$CBHU__ATTRIBUTE_ENCHANT@@@std@@@std@@@std@@@std@@_N@1@$$QAU?$pair@HU__ATTRIBUTE_ENCHANT@@@1@@Z DD 0ffffffffH
	DD	FLAT:__unwindfunclet$??$emplace@U?$pair@HU__ATTRIBUTE_ENCHANT@@@std@@@?$_Tree@V?$_Tmap_traits@HU__ATTRIBUTE_ENCHANT@@U?$less@H@std@@V?$allocator@U?$pair@$$CBHU__ATTRIBUTE_ENCHANT@@@std@@@3@$0A@@std@@@std@@QAE?AU?$pair@V?$_Tree_iterator@V?$_Tree_val@U?$_Tree_simple_types@U?$pair@$$CBHU__ATTRIBUTE_ENCHANT@@@std@@@std@@@std@@@std@@_N@1@$$QAU?$pair@HU__ATTRIBUTE_ENCHANT@@@1@@Z$2
__ehfuncinfo$??$emplace@U?$pair@HU__ATTRIBUTE_ENCHANT@@@std@@@?$_Tree@V?$_Tmap_traits@HU__ATTRIBUTE_ENCHANT@@U?$less@H@std@@V?$allocator@U?$pair@$$CBHU__ATTRIBUTE_ENCHANT@@@std@@@3@$0A@@std@@@std@@QAE?AU?$pair@V?$_Tree_iterator@V?$_Tree_val@U?$_Tree_simple_types@U?$pair@$$CBHU__ATTRIBUTE_ENCHANT@@@std@@@std@@@std@@@std@@_N@1@$$QAU?$pair@HU__ATTRIBUTE_ENCHANT@@@1@@Z DD 019930522H
	DD	01H
	DD	FLAT:__unwindtable$??$emplace@U?$pair@HU__ATTRIBUTE_ENCHANT@@@std@@@?$_Tree@V?$_Tmap_traits@HU__ATTRIBUTE_ENCHANT@@U?$less@H@std@@V?$allocator@U?$pair@$$CBHU__ATTRIBUTE_ENCHANT@@@std@@@3@$0A@@std@@@std@@QAE?AU?$pair@V?$_Tree_iterator@V?$_Tree_val@U?$_Tree_simple_types@U?$pair@$$CBHU__ATTRIBUTE_ENCHANT@@@std@@@std@@@std@@@std@@_N@1@$$QAU?$pair@HU__ATTRIBUTE_ENCHANT@@@1@@Z
	DD	2 DUP(00H)
	DD	2 DUP(00H)
	DD	00H
	DD	01H
xdata$x	ENDS
;	COMDAT xdata$x
xdata$x	SEGMENT
__unwindtable$??$emplace@U?$pair@HH@std@@@?$_Tree@V?$_Tmap_traits@HHU?$less@H@std@@V?$allocator@U?$pair@$$CBHH@std@@@2@$0A@@std@@@std@@QAE?AU?$pair@V?$_Tree_iterator@V?$_Tree_val@U?$_Tree_simple_types@U?$pair@$$CBHH@std@@@std@@@std@@@std@@_N@1@$$QAU?$pair@HH@1@@Z DD 0ffffffffH
	DD	FLAT:__unwindfunclet$??$emplace@U?$pair@HH@std@@@?$_Tree@V?$_Tmap_traits@HHU?$less@H@std@@V?$allocator@U?$pair@$$CBHH@std@@@2@$0A@@std@@@std@@QAE?AU?$pair@V?$_Tree_iterator@V?$_Tree_val@U?$_Tree_simple_types@U?$pair@$$CBHH@std@@@std@@@std@@@std@@_N@1@$$QAU?$pair@HH@1@@Z$2
__ehfuncinfo$??$emplace@U?$pair@HH@std@@@?$_Tree@V?$_Tmap_traits@HHU?$less@H@std@@V?$allocator@U?$pair@$$CBHH@std@@@2@$0A@@std@@@std@@QAE?AU?$pair@V?$_Tree_iterator@V?$_Tree_val@U?$_Tree_simple_types@U?$pair@$$CBHH@std@@@std@@@std@@@std@@_N@1@$$QAU?$pair@HH@1@@Z DD 019930522H
	DD	01H
	DD	FLAT:__unwindtable$??$emplace@U?$pair@HH@std@@@?$_Tree@V?$_Tmap_traits@HHU?$less@H@std@@V?$allocator@U?$pair@$$CBHH@std@@@2@$0A@@std@@@std@@QAE?AU?$pair@V?$_Tree_iterator@V?$_Tree_val@U?$_Tree_simple_types@U?$pair@$$CBHH@std@@@std@@@std@@@std@@_N@1@$$QAU?$pair@HH@1@@Z
	DD	2 DUP(00H)
	DD	2 DUP(00H)
	DD	00H
	DD	01H
xdata$x	ENDS
;	COMDAT xdata$x
xdata$x	SEGMENT
__unwindtable$??$insert@U?$pair@HU__CHAOS_GEM@@@std@@$0A@@?$map@HU__CHAOS_GEM@@U?$less@H@std@@V?$allocator@U?$pair@$$CBHU__CHAOS_GEM@@@std@@@3@@std@@QAE?AU?$pair@V?$_Tree_iterator@V?$_Tree_val@U?$_Tree_simple_types@U?$pair@$$CBHU__CHAOS_GEM@@@std@@@std@@@std@@@std@@_N@1@$$QAU?$pair@HU__CHAOS_GEM@@@1@@Z DD 0ffffffffH
	DD	FLAT:__unwindfunclet$??$insert@U?$pair@HU__CHAOS_GEM@@@std@@$0A@@?$map@HU__CHAOS_GEM@@U?$less@H@std@@V?$allocator@U?$pair@$$CBHU__CHAOS_GEM@@@std@@@3@@std@@QAE?AU?$pair@V?$_Tree_iterator@V?$_Tree_val@U?$_Tree_simple_types@U?$pair@$$CBHU__CHAOS_GEM@@@std@@@std@@@std@@@std@@_N@1@$$QAU?$pair@HU__CHAOS_GEM@@@1@@Z$2
__ehfuncinfo$??$insert@U?$pair@HU__CHAOS_GEM@@@std@@$0A@@?$map@HU__CHAOS_GEM@@U?$less@H@std@@V?$allocator@U?$pair@$$CBHU__CHAOS_GEM@@@std@@@3@@std@@QAE?AU?$pair@V?$_Tree_iterator@V?$_Tree_val@U?$_Tree_simple_types@U?$pair@$$CBHU__CHAOS_GEM@@@std@@@std@@@std@@@std@@_N@1@$$QAU?$pair@HU__CHAOS_GEM@@@1@@Z DD 019930522H
	DD	01H
	DD	FLAT:__unwindtable$??$insert@U?$pair@HU__CHAOS_GEM@@@std@@$0A@@?$map@HU__CHAOS_GEM@@U?$less@H@std@@V?$allocator@U?$pair@$$CBHU__CHAOS_GEM@@@std@@@3@@std@@QAE?AU?$pair@V?$_Tree_iterator@V?$_Tree_val@U?$_Tree_simple_types@U?$pair@$$CBHU__CHAOS_GEM@@@std@@@std@@@std@@@std@@_N@1@$$QAU?$pair@HU__CHAOS_GEM@@@1@@Z
	DD	2 DUP(00H)
	DD	2 DUP(00H)
	DD	00H
	DD	01H
xdata$x	ENDS
;	COMDAT xdata$x
xdata$x	SEGMENT
__unwindtable$??$insert@U?$pair@HU__ATTRIBUTE_ENCHANT@@@std@@$0A@@?$map@HU__ATTRIBUTE_ENCHANT@@U?$less@H@std@@V?$allocator@U?$pair@$$CBHU__ATTRIBUTE_ENCHANT@@@std@@@3@@std@@QAE?AU?$pair@V?$_Tree_iterator@V?$_Tree_val@U?$_Tree_simple_types@U?$pair@$$CBHU__ATTRIBUTE_ENCHANT@@@std@@@std@@@std@@@std@@_N@1@$$QAU?$pair@HU__ATTRIBUTE_ENCHANT@@@1@@Z DD 0ffffffffH
	DD	FLAT:__unwindfunclet$??$insert@U?$pair@HU__ATTRIBUTE_ENCHANT@@@std@@$0A@@?$map@HU__ATTRIBUTE_ENCHANT@@U?$less@H@std@@V?$allocator@U?$pair@$$CBHU__ATTRIBUTE_ENCHANT@@@std@@@3@@std@@QAE?AU?$pair@V?$_Tree_iterator@V?$_Tree_val@U?$_Tree_simple_types@U?$pair@$$CBHU__ATTRIBUTE_ENCHANT@@@std@@@std@@@std@@@std@@_N@1@$$QAU?$pair@HU__ATTRIBUTE_ENCHANT@@@1@@Z$2
__ehfuncinfo$??$insert@U?$pair@HU__ATTRIBUTE_ENCHANT@@@std@@$0A@@?$map@HU__ATTRIBUTE_ENCHANT@@U?$less@H@std@@V?$allocator@U?$pair@$$CBHU__ATTRIBUTE_ENCHANT@@@std@@@3@@std@@QAE?AU?$pair@V?$_Tree_iterator@V?$_Tree_val@U?$_Tree_simple_types@U?$pair@$$CBHU__ATTRIBUTE_ENCHANT@@@std@@@std@@@std@@@std@@_N@1@$$QAU?$pair@HU__ATTRIBUTE_ENCHANT@@@1@@Z DD 019930522H
	DD	01H
	DD	FLAT:__unwindtable$??$insert@U?$pair@HU__ATTRIBUTE_ENCHANT@@@std@@$0A@@?$map@HU__ATTRIBUTE_ENCHANT@@U?$less@H@std@@V?$allocator@U?$pair@$$CBHU__ATTRIBUTE_ENCHANT@@@std@@@3@@std@@QAE?AU?$pair@V?$_Tree_iterator@V?$_Tree_val@U?$_Tree_simple_types@U?$pair@$$CBHU__ATTRIBUTE_ENCHANT@@@std@@@std@@@std@@@std@@_N@1@$$QAU?$pair@HU__ATTRIBUTE_ENCHANT@@@1@@Z
	DD	2 DUP(00H)
	DD	2 DUP(00H)
	DD	00H
	DD	01H
xdata$x	ENDS
;	COMDAT xdata$x
xdata$x	SEGMENT
__unwindtable$??$insert@U?$pair@HH@std@@$0A@@?$map@HHU?$less@H@std@@V?$allocator@U?$pair@$$CBHH@std@@@2@@std@@QAE?AU?$pair@V?$_Tree_iterator@V?$_Tree_val@U?$_Tree_simple_types@U?$pair@$$CBHH@std@@@std@@@std@@@std@@_N@1@$$QAU?$pair@HH@1@@Z DD 0ffffffffH
	DD	FLAT:__unwindfunclet$??$insert@U?$pair@HH@std@@$0A@@?$map@HHU?$less@H@std@@V?$allocator@U?$pair@$$CBHH@std@@@2@@std@@QAE?AU?$pair@V?$_Tree_iterator@V?$_Tree_val@U?$_Tree_simple_types@U?$pair@$$CBHH@std@@@std@@@std@@@std@@_N@1@$$QAU?$pair@HH@1@@Z$2
__ehfuncinfo$??$insert@U?$pair@HH@std@@$0A@@?$map@HHU?$less@H@std@@V?$allocator@U?$pair@$$CBHH@std@@@2@@std@@QAE?AU?$pair@V?$_Tree_iterator@V?$_Tree_val@U?$_Tree_simple_types@U?$pair@$$CBHH@std@@@std@@@std@@@std@@_N@1@$$QAU?$pair@HH@1@@Z DD 019930522H
	DD	01H
	DD	FLAT:__unwindtable$??$insert@U?$pair@HH@std@@$0A@@?$map@HHU?$less@H@std@@V?$allocator@U?$pair@$$CBHH@std@@@2@@std@@QAE?AU?$pair@V?$_Tree_iterator@V?$_Tree_val@U?$_Tree_simple_types@U?$pair@$$CBHH@std@@@std@@@std@@@std@@_N@1@$$QAU?$pair@HH@1@@Z
	DD	2 DUP(00H)
	DD	2 DUP(00H)
	DD	00H
	DD	01H
xdata$x	ENDS
;	COMDAT xdata$x
xdata$x	SEGMENT
__unwindtable$?CreateStone@CItemUpgrade@@QAEXPAVCUser@@PAVCItemElem@@11@Z DD 0ffffffffH
	DD	FLAT:__unwindfunclet$?CreateStone@CItemUpgrade@@QAEXPAVCUser@@PAVCItemElem@@11@Z$0
	DD	00H
	DD	FLAT:__unwindfunclet$?CreateStone@CItemUpgrade@@QAEXPAVCUser@@PAVCItemElem@@11@Z$1
__ehfuncinfo$?CreateStone@CItemUpgrade@@QAEXPAVCUser@@PAVCItemElem@@11@Z DD 019930522H
	DD	02H
	DD	FLAT:__unwindtable$?CreateStone@CItemUpgrade@@QAEXPAVCUser@@PAVCItemElem@@11@Z
	DD	2 DUP(00H)
	DD	2 DUP(00H)
	DD	00H
	DD	01H
xdata$x	ENDS
;	COMDAT xdata$x
xdata$x	SEGMENT
__unwindtable$?CreateBarunaChaosGem@CItemUpgrade@@QAEXPAVCUser@@PAVCItemElem@@1@Z DD 0ffffffffH
	DD	FLAT:__unwindfunclet$?CreateBarunaChaosGem@CItemUpgrade@@QAEXPAVCUser@@PAVCItemElem@@1@Z$0
	DD	00H
	DD	FLAT:__unwindfunclet$?CreateBarunaChaosGem@CItemUpgrade@@QAEXPAVCUser@@PAVCItemElem@@1@Z$1
__ehfuncinfo$?CreateBarunaChaosGem@CItemUpgrade@@QAEXPAVCUser@@PAVCItemElem@@1@Z DD 019930522H
	DD	02H
	DD	FLAT:__unwindtable$?CreateBarunaChaosGem@CItemUpgrade@@QAEXPAVCUser@@PAVCItemElem@@1@Z
	DD	2 DUP(00H)
	DD	2 DUP(00H)
	DD	00H
	DD	01H
xdata$x	ENDS
;	COMDAT xdata$x
xdata$x	SEGMENT
__unwindtable$?BarunaChaosGemExtract@CItemUpgrade@@QAEXPAVCUser@@PAVCItemElem@@@Z DD 0ffffffffH
	DD	FLAT:__unwindfunclet$?BarunaChaosGemExtract@CItemUpgrade@@QAEXPAVCUser@@PAVCItemElem@@@Z$0
	DD	00H
	DD	FLAT:__unwindfunclet$?BarunaChaosGemExtract@CItemUpgrade@@QAEXPAVCUser@@PAVCItemElem@@@Z$1
	DD	0ffffffffH
	DD	FLAT:__unwindfunclet$?BarunaChaosGemExtract@CItemUpgrade@@QAEXPAVCUser@@PAVCItemElem@@@Z$2
	DD	02H
	DD	FLAT:__unwindfunclet$?BarunaChaosGemExtract@CItemUpgrade@@QAEXPAVCUser@@PAVCItemElem@@@Z$3
__ehfuncinfo$?BarunaChaosGemExtract@CItemUpgrade@@QAEXPAVCUser@@PAVCItemElem@@@Z DD 019930522H
	DD	04H
	DD	FLAT:__unwindtable$?BarunaChaosGemExtract@CItemUpgrade@@QAEXPAVCUser@@PAVCItemElem@@@Z
	DD	2 DUP(00H)
	DD	2 DUP(00H)
	DD	00H
	DD	01H
xdata$x	ENDS
;	COMDAT xdata$x
xdata$x	SEGMENT
__unwindtable$?CreateBarunaCrystal@CItemUpgrade@@QAEXPAVCUser@@PAVCItemElem@@1@Z DD 0ffffffffH
	DD	FLAT:__unwindfunclet$?CreateBarunaCrystal@CItemUpgrade@@QAEXPAVCUser@@PAVCItemElem@@1@Z$0
	DD	00H
	DD	FLAT:__unwindfunclet$?CreateBarunaCrystal@CItemUpgrade@@QAEXPAVCUser@@PAVCItemElem@@1@Z$1
__ehfuncinfo$?CreateBarunaCrystal@CItemUpgrade@@QAEXPAVCUser@@PAVCItemElem@@1@Z DD 019930522H
	DD	02H
	DD	FLAT:__unwindtable$?CreateBarunaCrystal@CItemUpgrade@@QAEXPAVCUser@@PAVCItemElem@@1@Z
	DD	2 DUP(00H)
	DD	2 DUP(00H)
	DD	00H
	DD	01H
xdata$x	ENDS
;	COMDAT xdata$x
xdata$x	SEGMENT
__ehfuncinfo$?LoadScriptBaruna@CItemUpgrade@@QAEXXZ DD 019930522H
	DD	06H
	DD	FLAT:__unwindtable$?LoadScriptBaruna@CItemUpgrade@@QAEXXZ
	DD	2 DUP(00H)
	DD	2 DUP(00H)
	DD	00H
	DD	01H
__unwindtable$?LoadScriptBaruna@CItemUpgrade@@QAEXXZ DD 0ffffffffH
	DD	FLAT:__unwindfunclet$?LoadScriptBaruna@CItemUpgrade@@QAEXXZ$0
	DD	00H
	DD	FLAT:__unwindfunclet$?LoadScriptBaruna@CItemUpgrade@@QAEXXZ$3
	DD	00H
	DD	FLAT:__unwindfunclet$?LoadScriptBaruna@CItemUpgrade@@QAEXXZ$8
	DD	00H
	DD	FLAT:__unwindfunclet$?LoadScriptBaruna@CItemUpgrade@@QAEXXZ$18
	DD	00H
	DD	FLAT:__unwindfunclet$?LoadScriptBaruna@CItemUpgrade@@QAEXXZ$23
	DD	00H
	DD	FLAT:__unwindfunclet$?LoadScriptBaruna@CItemUpgrade@@QAEXXZ$13
xdata$x	ENDS
;	COMDAT xdata$x
xdata$x	SEGMENT
__unwindtable$?RunItemTransy@CItemUpgrade@@AAEHPAVCUser@@PAVCItemElem@@K@Z DD 0ffffffffH
	DD	FLAT:__unwindfunclet$?RunItemTransy@CItemUpgrade@@AAEHPAVCUser@@PAVCItemElem@@K@Z$0
__ehfuncinfo$?RunItemTransy@CItemUpgrade@@AAEHPAVCUser@@PAVCItemElem@@K@Z DD 019930522H
	DD	01H
	DD	FLAT:__unwindtable$?RunItemTransy@CItemUpgrade@@AAEHPAVCUser@@PAVCItemElem@@K@Z
	DD	2 DUP(00H)
	DD	2 DUP(00H)
	DD	00H
	DD	01H
xdata$x	ENDS
;	COMDAT xdata$x
xdata$x	SEGMENT
__ehfuncinfo$?LoadScript@CItemUpgrade@@QAEXXZ DD 019930522H
	DD	05H
	DD	FLAT:__unwindtable$?LoadScript@CItemUpgrade@@QAEXXZ
	DD	2 DUP(00H)
	DD	2 DUP(00H)
	DD	00H
	DD	01H
__unwindtable$?LoadScript@CItemUpgrade@@QAEXXZ DD 0ffffffffH
	DD	FLAT:__unwindfunclet$?LoadScript@CItemUpgrade@@QAEXXZ$0
	DD	00H
	DD	FLAT:__unwindfunclet$?LoadScript@CItemUpgrade@@QAEXXZ$3
	DD	00H
	DD	FLAT:__unwindfunclet$?LoadScript@CItemUpgrade@@QAEXXZ$8
	DD	00H
	DD	FLAT:__unwindfunclet$?LoadScript@CItemUpgrade@@QAEXXZ$13
	DD	00H
	DD	FLAT:__unwindfunclet$?LoadScript@CItemUpgrade@@QAEXXZ$18
xdata$x	ENDS
;	COMDAT xdata$x
xdata$x	SEGMENT
__unwindtable$?GetInstance@CItemUpgrade@@SAPAV1@XZ DD 0ffffffffH
	DD	FLAT:__unwindfunclet$?GetInstance@CItemUpgrade@@SAPAV1@XZ$0
__ehfuncinfo$?GetInstance@CItemUpgrade@@SAPAV1@XZ DD 019930522H
	DD	01H
	DD	FLAT:__unwindtable$?GetInstance@CItemUpgrade@@SAPAV1@XZ
	DD	2 DUP(00H)
	DD	2 DUP(00H)
	DD	00H
	DD	01H
xdata$x	ENDS
;	COMDAT xdata$x
xdata$x	SEGMENT
__ehfuncinfo$??0CItemUpgrade@@QAE@XZ DD 019930522H
	DD	09H
	DD	FLAT:__unwindtable$??0CItemUpgrade@@QAE@XZ
	DD	2 DUP(00H)
	DD	2 DUP(00H)
	DD	00H
	DD	01H
__unwindtable$??0CItemUpgrade@@QAE@XZ DD 0ffffffffH
	DD	FLAT:__unwindfunclet$??0CItemUpgrade@@QAE@XZ$0
	DD	00H
	DD	FLAT:__unwindfunclet$??0CItemUpgrade@@QAE@XZ$1
	DD	01H
	DD	FLAT:__unwindfunclet$??0CItemUpgrade@@QAE@XZ$2
	DD	02H
	DD	FLAT:__unwindfunclet$??0CItemUpgrade@@QAE@XZ$3
	DD	03H
	DD	FLAT:__unwindfunclet$??0CItemUpgrade@@QAE@XZ$4
	DD	04H
	DD	FLAT:__unwindfunclet$??0CItemUpgrade@@QAE@XZ$5
	DD	05H
	DD	FLAT:__unwindfunclet$??0CItemUpgrade@@QAE@XZ$6
	DD	06H
	DD	FLAT:__unwindfunclet$??0CItemUpgrade@@QAE@XZ$7
	DD	07H
	DD	FLAT:__unwindfunclet$??0CItemUpgrade@@QAE@XZ$8
xdata$x	ENDS
; Function compile flags: /Ogtp
; File C:\Program Files\Microsoft Visual Studio\2022\Professional\VC\Tools\MSVC\14.44.35207\include\xmemory
;	COMDAT ??1?$_Alloc_construct_ptr@V?$allocator@U?$_Tree_node@U?$pair@$$CBHU__CHAOS_GEM@@@std@@PAX@std@@@std@@@std@@QAE@XZ
_TEXT	SEGMENT
??1?$_Alloc_construct_ptr@V?$allocator@U?$_Tree_node@U?$pair@$$CBHU__CHAOS_GEM@@@std@@PAX@std@@@std@@@std@@QAE@XZ PROC ; std::_Alloc_construct_ptr<std::allocator<std::_Tree_node<std::pair<int const ,__CHAOS_GEM>,void *> > >::~_Alloc_construct_ptr<std::allocator<std::_Tree_node<std::pair<int const ,__CHAOS_GEM>,void *> > >, COMDAT
; _this$ = ecx

; 1172 :         if (_Ptr) {

  00000	8b 41 04	 mov	 eax, DWORD PTR [ecx+4]
  00003	85 c0		 test	 eax, eax
  00005	74 0b		 je	 SHORT $LN10@Alloc_cons

; 289  :         ::operator delete(_Ptr, _Bytes);

  00007	6a 24		 push	 36			; 00000024H
  00009	50		 push	 eax
  0000a	e8 00 00 00 00	 call	 ??3@YAXPAXI@Z		; operator delete
  0000f	83 c4 08	 add	 esp, 8
$LN10@Alloc_cons:

; 1173 :             _Al.deallocate(_Ptr, 1);
; 1174 :         }
; 1175 :     }

  00012	c3		 ret	 0
??1?$_Alloc_construct_ptr@V?$allocator@U?$_Tree_node@U?$pair@$$CBHU__CHAOS_GEM@@@std@@PAX@std@@@std@@@std@@QAE@XZ ENDP ; std::_Alloc_construct_ptr<std::allocator<std::_Tree_node<std::pair<int const ,__CHAOS_GEM>,void *> > >::~_Alloc_construct_ptr<std::allocator<std::_Tree_node<std::pair<int const ,__CHAOS_GEM>,void *> > >
_TEXT	ENDS
; Function compile flags: /Ogtp
; File C:\Program Files\Microsoft Visual Studio\2022\Professional\VC\Tools\MSVC\14.44.35207\include\xmemory
;	COMDAT ??1?$_Alloc_construct_ptr@V?$allocator@U?$_Tree_node@U?$pair@$$CBHU__ATTRIBUTE_ENCHANT@@@std@@PAX@std@@@std@@@std@@QAE@XZ
_TEXT	SEGMENT
??1?$_Alloc_construct_ptr@V?$allocator@U?$_Tree_node@U?$pair@$$CBHU__ATTRIBUTE_ENCHANT@@@std@@PAX@std@@@std@@@std@@QAE@XZ PROC ; std::_Alloc_construct_ptr<std::allocator<std::_Tree_node<std::pair<int const ,__ATTRIBUTE_ENCHANT>,void *> > >::~_Alloc_construct_ptr<std::allocator<std::_Tree_node<std::pair<int const ,__ATTRIBUTE_ENCHANT>,void *> > >, COMDAT
; _this$ = ecx

; 1172 :         if (_Ptr) {

  00000	8b 41 04	 mov	 eax, DWORD PTR [ecx+4]
  00003	85 c0		 test	 eax, eax
  00005	74 0b		 je	 SHORT $LN10@Alloc_cons

; 289  :         ::operator delete(_Ptr, _Bytes);

  00007	6a 24		 push	 36			; 00000024H
  00009	50		 push	 eax
  0000a	e8 00 00 00 00	 call	 ??3@YAXPAXI@Z		; operator delete
  0000f	83 c4 08	 add	 esp, 8
$LN10@Alloc_cons:

; 1173 :             _Al.deallocate(_Ptr, 1);
; 1174 :         }
; 1175 :     }

  00012	c3		 ret	 0
??1?$_Alloc_construct_ptr@V?$allocator@U?$_Tree_node@U?$pair@$$CBHU__ATTRIBUTE_ENCHANT@@@std@@PAX@std@@@std@@@std@@QAE@XZ ENDP ; std::_Alloc_construct_ptr<std::allocator<std::_Tree_node<std::pair<int const ,__ATTRIBUTE_ENCHANT>,void *> > >::~_Alloc_construct_ptr<std::allocator<std::_Tree_node<std::pair<int const ,__ATTRIBUTE_ENCHANT>,void *> > >
_TEXT	ENDS
; Function compile flags: /Ogtp
; File C:\Program Files\Microsoft Visual Studio\2022\Professional\VC\Tools\MSVC\14.44.35207\include\xmemory
;	COMDAT ??1?$_Alloc_construct_ptr@V?$allocator@U?$_Tree_node@U?$pair@$$CBHH@std@@PAX@std@@@std@@@std@@QAE@XZ
_TEXT	SEGMENT
??1?$_Alloc_construct_ptr@V?$allocator@U?$_Tree_node@U?$pair@$$CBHH@std@@PAX@std@@@std@@@std@@QAE@XZ PROC ; std::_Alloc_construct_ptr<std::allocator<std::_Tree_node<std::pair<int const ,int>,void *> > >::~_Alloc_construct_ptr<std::allocator<std::_Tree_node<std::pair<int const ,int>,void *> > >, COMDAT
; _this$ = ecx

; 1172 :         if (_Ptr) {

  00000	8b 41 04	 mov	 eax, DWORD PTR [ecx+4]
  00003	85 c0		 test	 eax, eax
  00005	74 0b		 je	 SHORT $LN10@Alloc_cons

; 289  :         ::operator delete(_Ptr, _Bytes);

  00007	6a 18		 push	 24			; 00000018H
  00009	50		 push	 eax
  0000a	e8 00 00 00 00	 call	 ??3@YAXPAXI@Z		; operator delete
  0000f	83 c4 08	 add	 esp, 8
$LN10@Alloc_cons:

; 1173 :             _Al.deallocate(_Ptr, 1);
; 1174 :         }
; 1175 :     }

  00012	c3		 ret	 0
??1?$_Alloc_construct_ptr@V?$allocator@U?$_Tree_node@U?$pair@$$CBHH@std@@PAX@std@@@std@@@std@@QAE@XZ ENDP ; std::_Alloc_construct_ptr<std::allocator<std::_Tree_node<std::pair<int const ,int>,void *> > >::~_Alloc_construct_ptr<std::allocator<std::_Tree_node<std::pair<int const ,int>,void *> > >
_TEXT	ENDS
; Function compile flags: /Ogtp
; File C:\Program Files\Microsoft Visual Studio\2022\Professional\VC\Tools\MSVC\14.44.35207\include\xtree
; File C:\Program Files\Microsoft Visual Studio\2022\Professional\VC\Tools\MSVC\14.44.35207\include\type_traits
; File C:\Program Files\Microsoft Visual Studio\2022\Professional\VC\Tools\MSVC\14.44.35207\include\xtree
; File C:\Program Files\Microsoft Visual Studio\2022\Professional\VC\Tools\MSVC\14.44.35207\include\type_traits
; File C:\Program Files\Microsoft Visual Studio\2022\Professional\VC\Tools\MSVC\14.44.35207\include\xtree
;	COMDAT ??$_Find_lower_bound@H@?$_Tree@V?$_Tmap_traits@HHU?$less@H@std@@V?$allocator@U?$pair@$$CBHH@std@@@2@$0A@@std@@@std@@IBE?AU?$_Tree_find_result@PAU?$_Tree_node@U?$pair@$$CBHH@std@@PAX@std@@@1@ABH@Z
_TEXT	SEGMENT
___$ReturnUdt$ = 8					; size = 4
__Keyval$ = 12						; size = 4
??$_Find_lower_bound@H@?$_Tree@V?$_Tmap_traits@HHU?$less@H@std@@V?$allocator@U?$pair@$$CBHH@std@@@2@$0A@@std@@@std@@IBE?AU?$_Tree_find_result@PAU?$_Tree_node@U?$pair@$$CBHH@std@@PAX@std@@@1@ABH@Z PROC ; std::_Tree<std::_Tmap_traits<int,int,std::less<int>,std::allocator<std::pair<int const ,int> >,0> >::_Find_lower_bound<int>, COMDAT
; _this$ = ecx

; 1628 :     _Tree_find_result<_Nodeptr> _Find_lower_bound(const _Keyty& _Keyval) const {

  00000	55		 push	 ebp
  00001	8b ec		 mov	 ebp, esp

; 1629 :         const auto _Scary = _Get_scary();
; 1630 :         _Tree_find_result<_Nodeptr> _Result{{_Scary->_Myhead->_Parent, _Tree_child::_Right}, _Scary->_Myhead};

  00003	8b 09		 mov	 ecx, DWORD PTR [ecx]
  00005	8b 55 08	 mov	 edx, DWORD PTR ___$ReturnUdt$[ebp]
  00008	8b 41 04	 mov	 eax, DWORD PTR [ecx+4]
  0000b	89 02		 mov	 DWORD PTR [edx], eax
  0000d	c7 42 04 00 00
	00 00		 mov	 DWORD PTR [edx+4], 0
  00014	89 4a 08	 mov	 DWORD PTR [edx+8], ecx

; 1631 :         _Nodeptr _Trynode = _Result._Location._Parent;
; 1632 :         while (!_Trynode->_Isnil) {

  00017	80 78 0d 00	 cmp	 BYTE PTR [eax+13], 0
  0001b	75 28		 jne	 SHORT $LN13@Find_lower
; File C:\Program Files\Microsoft Visual Studio\2022\Professional\VC\Tools\MSVC\14.44.35207\include\type_traits

; 2380 :         return _Left < _Right;

  0001d	8b 4d 0c	 mov	 ecx, DWORD PTR __Keyval$[ebp]
  00020	56		 push	 esi
  00021	8b 31		 mov	 esi, DWORD PTR [ecx]
$LL2@Find_lower:
; File C:\Program Files\Microsoft Visual Studio\2022\Professional\VC\Tools\MSVC\14.44.35207\include\xtree

; 1633 :             _Result._Location._Parent = _Trynode;

  00023	89 02		 mov	 DWORD PTR [edx], eax
; File C:\Program Files\Microsoft Visual Studio\2022\Professional\VC\Tools\MSVC\14.44.35207\include\type_traits

; 2380 :         return _Left < _Right;

  00025	39 70 10	 cmp	 DWORD PTR [eax+16], esi
; File C:\Program Files\Microsoft Visual Studio\2022\Professional\VC\Tools\MSVC\14.44.35207\include\xtree

; 1634 :             if (_DEBUG_LT_PRED(_Getcomp(), _Traits::_Kfn(_Trynode->_Myval), _Keyval)) {

  00028	7d 07		 jge	 SHORT $LN4@Find_lower

; 1635 :                 _Result._Location._Child = _Tree_child::_Right;
; 1636 :                 _Trynode                 = _Trynode->_Right;

  0002a	8b 40 08	 mov	 eax, DWORD PTR [eax+8]
  0002d	33 c9		 xor	 ecx, ecx

; 1637 :             } else {

  0002f	eb 0a		 jmp	 SHORT $LN5@Find_lower
$LN4@Find_lower:

; 1638 :                 _Result._Location._Child = _Tree_child::_Left;
; 1639 :                 _Result._Bound           = _Trynode;

  00031	89 42 08	 mov	 DWORD PTR [edx+8], eax

; 1640 :                 _Trynode                 = _Trynode->_Left;

  00034	b9 01 00 00 00	 mov	 ecx, 1
  00039	8b 00		 mov	 eax, DWORD PTR [eax]
$LN5@Find_lower:

; 1631 :         _Nodeptr _Trynode = _Result._Location._Parent;
; 1632 :         while (!_Trynode->_Isnil) {

  0003b	89 4a 04	 mov	 DWORD PTR [edx+4], ecx
  0003e	80 78 0d 00	 cmp	 BYTE PTR [eax+13], 0
  00042	74 df		 je	 SHORT $LL2@Find_lower
  00044	5e		 pop	 esi
$LN13@Find_lower:

; 1641 :             }
; 1642 :         }
; 1643 : 
; 1644 :         return _Result;
; 1645 :     }

  00045	8b c2		 mov	 eax, edx
  00047	5d		 pop	 ebp
  00048	c2 08 00	 ret	 8
??$_Find_lower_bound@H@?$_Tree@V?$_Tmap_traits@HHU?$less@H@std@@V?$allocator@U?$pair@$$CBHH@std@@@2@$0A@@std@@@std@@IBE?AU?$_Tree_find_result@PAU?$_Tree_node@U?$pair@$$CBHH@std@@PAX@std@@@1@ABH@Z ENDP ; std::_Tree<std::_Tmap_traits<int,int,std::less<int>,std::allocator<std::pair<int const ,int> >,0> >::_Find_lower_bound<int>
_TEXT	ENDS
; Function compile flags: /Ogtp
; File C:\Program Files\Microsoft Visual Studio\2022\Professional\VC\Tools\MSVC\14.44.35207\include\xtree
; File C:\Program Files\Microsoft Visual Studio\2022\Professional\VC\Tools\MSVC\14.44.35207\include\type_traits
; File C:\Program Files\Microsoft Visual Studio\2022\Professional\VC\Tools\MSVC\14.44.35207\include\xtree
; File C:\Program Files\Microsoft Visual Studio\2022\Professional\VC\Tools\MSVC\14.44.35207\include\type_traits
; File C:\Program Files\Microsoft Visual Studio\2022\Professional\VC\Tools\MSVC\14.44.35207\include\xtree
;	COMDAT ??$_Find_lower_bound@H@?$_Tree@V?$_Tmap_traits@HU__ATTRIBUTE_ENCHANT@@U?$less@H@std@@V?$allocator@U?$pair@$$CBHU__ATTRIBUTE_ENCHANT@@@std@@@3@$0A@@std@@@std@@IBE?AU?$_Tree_find_result@PAU?$_Tree_node@U?$pair@$$CBHU__ATTRIBUTE_ENCHANT@@@std@@PAX@std@@@1@ABH@Z
_TEXT	SEGMENT
___$ReturnUdt$ = 8					; size = 4
__Keyval$ = 12						; size = 4
??$_Find_lower_bound@H@?$_Tree@V?$_Tmap_traits@HU__ATTRIBUTE_ENCHANT@@U?$less@H@std@@V?$allocator@U?$pair@$$CBHU__ATTRIBUTE_ENCHANT@@@std@@@3@$0A@@std@@@std@@IBE?AU?$_Tree_find_result@PAU?$_Tree_node@U?$pair@$$CBHU__ATTRIBUTE_ENCHANT@@@std@@PAX@std@@@1@ABH@Z PROC ; std::_Tree<std::_Tmap_traits<int,__ATTRIBUTE_ENCHANT,std::less<int>,std::allocator<std::pair<int const ,__ATTRIBUTE_ENCHANT> >,0> >::_Find_lower_bound<int>, COMDAT
; _this$ = ecx

; 1628 :     _Tree_find_result<_Nodeptr> _Find_lower_bound(const _Keyty& _Keyval) const {

  00000	55		 push	 ebp
  00001	8b ec		 mov	 ebp, esp

; 1629 :         const auto _Scary = _Get_scary();
; 1630 :         _Tree_find_result<_Nodeptr> _Result{{_Scary->_Myhead->_Parent, _Tree_child::_Right}, _Scary->_Myhead};

  00003	8b 09		 mov	 ecx, DWORD PTR [ecx]
  00005	8b 55 08	 mov	 edx, DWORD PTR ___$ReturnUdt$[ebp]
  00008	8b 41 04	 mov	 eax, DWORD PTR [ecx+4]
  0000b	89 02		 mov	 DWORD PTR [edx], eax
  0000d	c7 42 04 00 00
	00 00		 mov	 DWORD PTR [edx+4], 0
  00014	89 4a 08	 mov	 DWORD PTR [edx+8], ecx

; 1631 :         _Nodeptr _Trynode = _Result._Location._Parent;
; 1632 :         while (!_Trynode->_Isnil) {

  00017	80 78 0d 00	 cmp	 BYTE PTR [eax+13], 0
  0001b	75 28		 jne	 SHORT $LN13@Find_lower
; File C:\Program Files\Microsoft Visual Studio\2022\Professional\VC\Tools\MSVC\14.44.35207\include\type_traits

; 2380 :         return _Left < _Right;

  0001d	8b 4d 0c	 mov	 ecx, DWORD PTR __Keyval$[ebp]
  00020	56		 push	 esi
  00021	8b 31		 mov	 esi, DWORD PTR [ecx]
$LL2@Find_lower:
; File C:\Program Files\Microsoft Visual Studio\2022\Professional\VC\Tools\MSVC\14.44.35207\include\xtree

; 1633 :             _Result._Location._Parent = _Trynode;

  00023	89 02		 mov	 DWORD PTR [edx], eax
; File C:\Program Files\Microsoft Visual Studio\2022\Professional\VC\Tools\MSVC\14.44.35207\include\type_traits

; 2380 :         return _Left < _Right;

  00025	39 70 10	 cmp	 DWORD PTR [eax+16], esi
; File C:\Program Files\Microsoft Visual Studio\2022\Professional\VC\Tools\MSVC\14.44.35207\include\xtree

; 1634 :             if (_DEBUG_LT_PRED(_Getcomp(), _Traits::_Kfn(_Trynode->_Myval), _Keyval)) {

  00028	7d 07		 jge	 SHORT $LN4@Find_lower

; 1635 :                 _Result._Location._Child = _Tree_child::_Right;
; 1636 :                 _Trynode                 = _Trynode->_Right;

  0002a	8b 40 08	 mov	 eax, DWORD PTR [eax+8]
  0002d	33 c9		 xor	 ecx, ecx

; 1637 :             } else {

  0002f	eb 0a		 jmp	 SHORT $LN5@Find_lower
$LN4@Find_lower:

; 1638 :                 _Result._Location._Child = _Tree_child::_Left;
; 1639 :                 _Result._Bound           = _Trynode;

  00031	89 42 08	 mov	 DWORD PTR [edx+8], eax

; 1640 :                 _Trynode                 = _Trynode->_Left;

  00034	b9 01 00 00 00	 mov	 ecx, 1
  00039	8b 00		 mov	 eax, DWORD PTR [eax]
$LN5@Find_lower:

; 1631 :         _Nodeptr _Trynode = _Result._Location._Parent;
; 1632 :         while (!_Trynode->_Isnil) {

  0003b	89 4a 04	 mov	 DWORD PTR [edx+4], ecx
  0003e	80 78 0d 00	 cmp	 BYTE PTR [eax+13], 0
  00042	74 df		 je	 SHORT $LL2@Find_lower
  00044	5e		 pop	 esi
$LN13@Find_lower:

; 1641 :             }
; 1642 :         }
; 1643 : 
; 1644 :         return _Result;
; 1645 :     }

  00045	8b c2		 mov	 eax, edx
  00047	5d		 pop	 ebp
  00048	c2 08 00	 ret	 8
??$_Find_lower_bound@H@?$_Tree@V?$_Tmap_traits@HU__ATTRIBUTE_ENCHANT@@U?$less@H@std@@V?$allocator@U?$pair@$$CBHU__ATTRIBUTE_ENCHANT@@@std@@@3@$0A@@std@@@std@@IBE?AU?$_Tree_find_result@PAU?$_Tree_node@U?$pair@$$CBHU__ATTRIBUTE_ENCHANT@@@std@@PAX@std@@@1@ABH@Z ENDP ; std::_Tree<std::_Tmap_traits<int,__ATTRIBUTE_ENCHANT,std::less<int>,std::allocator<std::pair<int const ,__ATTRIBUTE_ENCHANT> >,0> >::_Find_lower_bound<int>
_TEXT	ENDS
; Function compile flags: /Ogtp
; File C:\Program Files\Microsoft Visual Studio\2022\Professional\VC\Tools\MSVC\14.44.35207\include\xtree
; File C:\Program Files\Microsoft Visual Studio\2022\Professional\VC\Tools\MSVC\14.44.35207\include\utility
; File C:\Program Files\Microsoft Visual Studio\2022\Professional\VC\Tools\MSVC\14.44.35207\include\xmemory
; File C:\Program Files\Microsoft Visual Studio\2022\Professional\VC\Tools\MSVC\14.44.35207\include\xtree
;	COMDAT ??$_Erase_tree@V?$allocator@U?$_Tree_node@U?$pair@$$CBHU__CHAOS_GEM@@@std@@PAX@std@@@std@@@?$_Tree_val@U?$_Tree_simple_types@U?$pair@$$CBHU__CHAOS_GEM@@@std@@@std@@@std@@QAEXAAV?$allocator@U?$_Tree_node@U?$pair@$$CBHU__CHAOS_GEM@@@std@@PAX@std@@@1@PAU?$_Tree_node@U?$pair@$$CBHU__CHAOS_GEM@@@std@@PAX@1@@Z
_TEXT	SEGMENT
__Al$ = 8						; size = 4
__Rootnode$ = 12					; size = 4
??$_Erase_tree@V?$allocator@U?$_Tree_node@U?$pair@$$CBHU__CHAOS_GEM@@@std@@PAX@std@@@std@@@?$_Tree_val@U?$_Tree_simple_types@U?$pair@$$CBHU__CHAOS_GEM@@@std@@@std@@@std@@QAEXAAV?$allocator@U?$_Tree_node@U?$pair@$$CBHU__CHAOS_GEM@@@std@@PAX@std@@@1@PAU?$_Tree_node@U?$pair@$$CBHU__CHAOS_GEM@@@std@@PAX@1@@Z PROC ; std::_Tree_val<std::_Tree_simple_types<std::pair<int const ,__CHAOS_GEM> > >::_Erase_tree<std::allocator<std::_Tree_node<std::pair<int const ,__CHAOS_GEM>,void *> > >, COMDAT
; _this$ = ecx

; 767  :     void _Erase_tree(_Alnode& _Al, _Nodeptr _Rootnode) noexcept {

  00000	55		 push	 ebp
  00001	8b ec		 mov	 ebp, esp
  00003	53		 push	 ebx
  00004	56		 push	 esi

; 768  :         while (!_Rootnode->_Isnil) { // free subtrees, then node

  00005	8b 75 0c	 mov	 esi, DWORD PTR __Rootnode$[ebp]
  00008	8b d9		 mov	 ebx, ecx
  0000a	80 7e 0d 00	 cmp	 BYTE PTR [esi+13], 0
  0000e	75 25		 jne	 SHORT $LN34@Erase_tree
  00010	57		 push	 edi
  00011	8b 7d 08	 mov	 edi, DWORD PTR __Al$[ebp]
$LL2@Erase_tree:

; 769  :             _Erase_tree(_Al, _Rootnode->_Right);

  00014	ff 76 08	 push	 DWORD PTR [esi+8]
  00017	8b cb		 mov	 ecx, ebx
  00019	57		 push	 edi
  0001a	e8 00 00 00 00	 call	 ??$_Erase_tree@V?$allocator@U?$_Tree_node@U?$pair@$$CBHU__CHAOS_GEM@@@std@@PAX@std@@@std@@@?$_Tree_val@U?$_Tree_simple_types@U?$pair@$$CBHU__CHAOS_GEM@@@std@@@std@@@std@@QAEXAAV?$allocator@U?$_Tree_node@U?$pair@$$CBHU__CHAOS_GEM@@@std@@PAX@std@@@1@PAU?$_Tree_node@U?$pair@$$CBHU__CHAOS_GEM@@@std@@PAX@1@@Z ; std::_Tree_val<std::_Tree_simple_types<std::pair<int const ,__CHAOS_GEM> > >::_Erase_tree<std::allocator<std::_Tree_node<std::pair<int const ,__CHAOS_GEM>,void *> > >
; File C:\Program Files\Microsoft Visual Studio\2022\Professional\VC\Tools\MSVC\14.44.35207\include\utility

; 773  :     _Ty _Old_val = static_cast<_Ty&&>(_Val);

  0001f	8b c6		 mov	 eax, esi

; 774  :     _Val         = static_cast<_Other&&>(_New_val);

  00021	8b 36		 mov	 esi, DWORD PTR [esi]
; File C:\Program Files\Microsoft Visual Studio\2022\Professional\VC\Tools\MSVC\14.44.35207\include\xmemory

; 289  :         ::operator delete(_Ptr, _Bytes);

  00023	6a 24		 push	 36			; 00000024H
  00025	50		 push	 eax
  00026	e8 00 00 00 00	 call	 ??3@YAXPAXI@Z		; operator delete
  0002b	83 c4 08	 add	 esp, 8
; File C:\Program Files\Microsoft Visual Studio\2022\Professional\VC\Tools\MSVC\14.44.35207\include\xtree

; 768  :         while (!_Rootnode->_Isnil) { // free subtrees, then node

  0002e	80 7e 0d 00	 cmp	 BYTE PTR [esi+13], 0
  00032	74 e0		 je	 SHORT $LL2@Erase_tree
  00034	5f		 pop	 edi
$LN34@Erase_tree:
  00035	5e		 pop	 esi

; 770  :             _Alnode::value_type::_Freenode(_Al, _STD exchange(_Rootnode, _Rootnode->_Left));
; 771  :         }
; 772  :     }

  00036	5b		 pop	 ebx
  00037	5d		 pop	 ebp
  00038	c2 08 00	 ret	 8
??$_Erase_tree@V?$allocator@U?$_Tree_node@U?$pair@$$CBHU__CHAOS_GEM@@@std@@PAX@std@@@std@@@?$_Tree_val@U?$_Tree_simple_types@U?$pair@$$CBHU__CHAOS_GEM@@@std@@@std@@@std@@QAEXAAV?$allocator@U?$_Tree_node@U?$pair@$$CBHU__CHAOS_GEM@@@std@@PAX@std@@@1@PAU?$_Tree_node@U?$pair@$$CBHU__CHAOS_GEM@@@std@@PAX@1@@Z ENDP ; std::_Tree_val<std::_Tree_simple_types<std::pair<int const ,__CHAOS_GEM> > >::_Erase_tree<std::allocator<std::_Tree_node<std::pair<int const ,__CHAOS_GEM>,void *> > >
_TEXT	ENDS
; Function compile flags: /Ogtp
; File C:\Program Files\Microsoft Visual Studio\2022\Professional\VC\Tools\MSVC\14.44.35207\include\xtree
; File C:\Program Files\Microsoft Visual Studio\2022\Professional\VC\Tools\MSVC\14.44.35207\include\type_traits
; File C:\Program Files\Microsoft Visual Studio\2022\Professional\VC\Tools\MSVC\14.44.35207\include\xtree
; File C:\Program Files\Microsoft Visual Studio\2022\Professional\VC\Tools\MSVC\14.44.35207\include\type_traits
; File C:\Program Files\Microsoft Visual Studio\2022\Professional\VC\Tools\MSVC\14.44.35207\include\xtree
;	COMDAT ??$_Find_lower_bound@H@?$_Tree@V?$_Tmap_traits@HU__CHAOS_GEM@@U?$less@H@std@@V?$allocator@U?$pair@$$CBHU__CHAOS_GEM@@@std@@@3@$0A@@std@@@std@@IBE?AU?$_Tree_find_result@PAU?$_Tree_node@U?$pair@$$CBHU__CHAOS_GEM@@@std@@PAX@std@@@1@ABH@Z
_TEXT	SEGMENT
___$ReturnUdt$ = 8					; size = 4
__Keyval$ = 12						; size = 4
??$_Find_lower_bound@H@?$_Tree@V?$_Tmap_traits@HU__CHAOS_GEM@@U?$less@H@std@@V?$allocator@U?$pair@$$CBHU__CHAOS_GEM@@@std@@@3@$0A@@std@@@std@@IBE?AU?$_Tree_find_result@PAU?$_Tree_node@U?$pair@$$CBHU__CHAOS_GEM@@@std@@PAX@std@@@1@ABH@Z PROC ; std::_Tree<std::_Tmap_traits<int,__CHAOS_GEM,std::less<int>,std::allocator<std::pair<int const ,__CHAOS_GEM> >,0> >::_Find_lower_bound<int>, COMDAT
; _this$ = ecx

; 1628 :     _Tree_find_result<_Nodeptr> _Find_lower_bound(const _Keyty& _Keyval) const {

  00000	55		 push	 ebp
  00001	8b ec		 mov	 ebp, esp

; 1629 :         const auto _Scary = _Get_scary();
; 1630 :         _Tree_find_result<_Nodeptr> _Result{{_Scary->_Myhead->_Parent, _Tree_child::_Right}, _Scary->_Myhead};

  00003	8b 09		 mov	 ecx, DWORD PTR [ecx]
  00005	8b 55 08	 mov	 edx, DWORD PTR ___$ReturnUdt$[ebp]
  00008	8b 41 04	 mov	 eax, DWORD PTR [ecx+4]
  0000b	89 02		 mov	 DWORD PTR [edx], eax
  0000d	c7 42 04 00 00
	00 00		 mov	 DWORD PTR [edx+4], 0
  00014	89 4a 08	 mov	 DWORD PTR [edx+8], ecx

; 1631 :         _Nodeptr _Trynode = _Result._Location._Parent;
; 1632 :         while (!_Trynode->_Isnil) {

  00017	80 78 0d 00	 cmp	 BYTE PTR [eax+13], 0
  0001b	75 28		 jne	 SHORT $LN13@Find_lower
; File C:\Program Files\Microsoft Visual Studio\2022\Professional\VC\Tools\MSVC\14.44.35207\include\type_traits

; 2380 :         return _Left < _Right;

  0001d	8b 4d 0c	 mov	 ecx, DWORD PTR __Keyval$[ebp]
  00020	56		 push	 esi
  00021	8b 31		 mov	 esi, DWORD PTR [ecx]
$LL2@Find_lower:
; File C:\Program Files\Microsoft Visual Studio\2022\Professional\VC\Tools\MSVC\14.44.35207\include\xtree

; 1633 :             _Result._Location._Parent = _Trynode;

  00023	89 02		 mov	 DWORD PTR [edx], eax
; File C:\Program Files\Microsoft Visual Studio\2022\Professional\VC\Tools\MSVC\14.44.35207\include\type_traits

; 2380 :         return _Left < _Right;

  00025	39 70 10	 cmp	 DWORD PTR [eax+16], esi
; File C:\Program Files\Microsoft Visual Studio\2022\Professional\VC\Tools\MSVC\14.44.35207\include\xtree

; 1634 :             if (_DEBUG_LT_PRED(_Getcomp(), _Traits::_Kfn(_Trynode->_Myval), _Keyval)) {

  00028	7d 07		 jge	 SHORT $LN4@Find_lower

; 1635 :                 _Result._Location._Child = _Tree_child::_Right;
; 1636 :                 _Trynode                 = _Trynode->_Right;

  0002a	8b 40 08	 mov	 eax, DWORD PTR [eax+8]
  0002d	33 c9		 xor	 ecx, ecx

; 1637 :             } else {

  0002f	eb 0a		 jmp	 SHORT $LN5@Find_lower
$LN4@Find_lower:

; 1638 :                 _Result._Location._Child = _Tree_child::_Left;
; 1639 :                 _Result._Bound           = _Trynode;

  00031	89 42 08	 mov	 DWORD PTR [edx+8], eax

; 1640 :                 _Trynode                 = _Trynode->_Left;

  00034	b9 01 00 00 00	 mov	 ecx, 1
  00039	8b 00		 mov	 eax, DWORD PTR [eax]
$LN5@Find_lower:

; 1631 :         _Nodeptr _Trynode = _Result._Location._Parent;
; 1632 :         while (!_Trynode->_Isnil) {

  0003b	89 4a 04	 mov	 DWORD PTR [edx+4], ecx
  0003e	80 78 0d 00	 cmp	 BYTE PTR [eax+13], 0
  00042	74 df		 je	 SHORT $LL2@Find_lower
  00044	5e		 pop	 esi
$LN13@Find_lower:

; 1641 :             }
; 1642 :         }
; 1643 : 
; 1644 :         return _Result;
; 1645 :     }

  00045	8b c2		 mov	 eax, edx
  00047	5d		 pop	 ebp
  00048	c2 08 00	 ret	 8
??$_Find_lower_bound@H@?$_Tree@V?$_Tmap_traits@HU__CHAOS_GEM@@U?$less@H@std@@V?$allocator@U?$pair@$$CBHU__CHAOS_GEM@@@std@@@3@$0A@@std@@@std@@IBE?AU?$_Tree_find_result@PAU?$_Tree_node@U?$pair@$$CBHU__CHAOS_GEM@@@std@@PAX@std@@@1@ABH@Z ENDP ; std::_Tree<std::_Tmap_traits<int,__CHAOS_GEM,std::less<int>,std::allocator<std::pair<int const ,__CHAOS_GEM> >,0> >::_Find_lower_bound<int>
_TEXT	ENDS
; Function compile flags: /Ogtp
; File C:\Program Files\Microsoft Visual Studio\2022\Professional\VC\Tools\MSVC\14.44.35207\include\xtree
; File C:\Program Files\Microsoft Visual Studio\2022\Professional\VC\Tools\MSVC\14.44.35207\include\utility
; File C:\Program Files\Microsoft Visual Studio\2022\Professional\VC\Tools\MSVC\14.44.35207\include\xmemory
; File C:\Program Files\Microsoft Visual Studio\2022\Professional\VC\Tools\MSVC\14.44.35207\include\xtree
;	COMDAT ??$_Erase_tree@V?$allocator@U?$_Tree_node@U?$pair@$$CBHU__ATTRIBUTE_ENCHANT@@@std@@PAX@std@@@std@@@?$_Tree_val@U?$_Tree_simple_types@U?$pair@$$CBHU__ATTRIBUTE_ENCHANT@@@std@@@std@@@std@@QAEXAAV?$allocator@U?$_Tree_node@U?$pair@$$CBHU__ATTRIBUTE_ENCHANT@@@std@@PAX@std@@@1@PAU?$_Tree_node@U?$pair@$$CBHU__ATTRIBUTE_ENCHANT@@@std@@PAX@1@@Z
_TEXT	SEGMENT
__Al$ = 8						; size = 4
__Rootnode$ = 12					; size = 4
??$_Erase_tree@V?$allocator@U?$_Tree_node@U?$pair@$$CBHU__ATTRIBUTE_ENCHANT@@@std@@PAX@std@@@std@@@?$_Tree_val@U?$_Tree_simple_types@U?$pair@$$CBHU__ATTRIBUTE_ENCHANT@@@std@@@std@@@std@@QAEXAAV?$allocator@U?$_Tree_node@U?$pair@$$CBHU__ATTRIBUTE_ENCHANT@@@std@@PAX@std@@@1@PAU?$_Tree_node@U?$pair@$$CBHU__ATTRIBUTE_ENCHANT@@@std@@PAX@1@@Z PROC ; std::_Tree_val<std::_Tree_simple_types<std::pair<int const ,__ATTRIBUTE_ENCHANT> > >::_Erase_tree<std::allocator<std::_Tree_node<std::pair<int const ,__ATTRIBUTE_ENCHANT>,void *> > >, COMDAT
; _this$ = ecx

; 767  :     void _Erase_tree(_Alnode& _Al, _Nodeptr _Rootnode) noexcept {

  00000	55		 push	 ebp
  00001	8b ec		 mov	 ebp, esp
  00003	53		 push	 ebx
  00004	56		 push	 esi

; 768  :         while (!_Rootnode->_Isnil) { // free subtrees, then node

  00005	8b 75 0c	 mov	 esi, DWORD PTR __Rootnode$[ebp]
  00008	8b d9		 mov	 ebx, ecx
  0000a	80 7e 0d 00	 cmp	 BYTE PTR [esi+13], 0
  0000e	75 25		 jne	 SHORT $LN34@Erase_tree
  00010	57		 push	 edi
  00011	8b 7d 08	 mov	 edi, DWORD PTR __Al$[ebp]
$LL2@Erase_tree:

; 769  :             _Erase_tree(_Al, _Rootnode->_Right);

  00014	ff 76 08	 push	 DWORD PTR [esi+8]
  00017	8b cb		 mov	 ecx, ebx
  00019	57		 push	 edi
  0001a	e8 00 00 00 00	 call	 ??$_Erase_tree@V?$allocator@U?$_Tree_node@U?$pair@$$CBHU__ATTRIBUTE_ENCHANT@@@std@@PAX@std@@@std@@@?$_Tree_val@U?$_Tree_simple_types@U?$pair@$$CBHU__ATTRIBUTE_ENCHANT@@@std@@@std@@@std@@QAEXAAV?$allocator@U?$_Tree_node@U?$pair@$$CBHU__ATTRIBUTE_ENCHANT@@@std@@PAX@std@@@1@PAU?$_Tree_node@U?$pair@$$CBHU__ATTRIBUTE_ENCHANT@@@std@@PAX@1@@Z ; std::_Tree_val<std::_Tree_simple_types<std::pair<int const ,__ATTRIBUTE_ENCHANT> > >::_Erase_tree<std::allocator<std::_Tree_node<std::pair<int const ,__ATTRIBUTE_ENCHANT>,void *> > >
; File C:\Program Files\Microsoft Visual Studio\2022\Professional\VC\Tools\MSVC\14.44.35207\include\utility

; 773  :     _Ty _Old_val = static_cast<_Ty&&>(_Val);

  0001f	8b c6		 mov	 eax, esi

; 774  :     _Val         = static_cast<_Other&&>(_New_val);

  00021	8b 36		 mov	 esi, DWORD PTR [esi]
; File C:\Program Files\Microsoft Visual Studio\2022\Professional\VC\Tools\MSVC\14.44.35207\include\xmemory

; 289  :         ::operator delete(_Ptr, _Bytes);

  00023	6a 24		 push	 36			; 00000024H
  00025	50		 push	 eax
  00026	e8 00 00 00 00	 call	 ??3@YAXPAXI@Z		; operator delete
  0002b	83 c4 08	 add	 esp, 8
; File C:\Program Files\Microsoft Visual Studio\2022\Professional\VC\Tools\MSVC\14.44.35207\include\xtree

; 768  :         while (!_Rootnode->_Isnil) { // free subtrees, then node

  0002e	80 7e 0d 00	 cmp	 BYTE PTR [esi+13], 0
  00032	74 e0		 je	 SHORT $LL2@Erase_tree
  00034	5f		 pop	 edi
$LN34@Erase_tree:
  00035	5e		 pop	 esi

; 770  :             _Alnode::value_type::_Freenode(_Al, _STD exchange(_Rootnode, _Rootnode->_Left));
; 771  :         }
; 772  :     }

  00036	5b		 pop	 ebx
  00037	5d		 pop	 ebp
  00038	c2 08 00	 ret	 8
??$_Erase_tree@V?$allocator@U?$_Tree_node@U?$pair@$$CBHU__ATTRIBUTE_ENCHANT@@@std@@PAX@std@@@std@@@?$_Tree_val@U?$_Tree_simple_types@U?$pair@$$CBHU__ATTRIBUTE_ENCHANT@@@std@@@std@@@std@@QAEXAAV?$allocator@U?$_Tree_node@U?$pair@$$CBHU__ATTRIBUTE_ENCHANT@@@std@@PAX@std@@@1@PAU?$_Tree_node@U?$pair@$$CBHU__ATTRIBUTE_ENCHANT@@@std@@PAX@1@@Z ENDP ; std::_Tree_val<std::_Tree_simple_types<std::pair<int const ,__ATTRIBUTE_ENCHANT> > >::_Erase_tree<std::allocator<std::_Tree_node<std::pair<int const ,__ATTRIBUTE_ENCHANT>,void *> > >
_TEXT	ENDS
; Function compile flags: /Ogtp
;	COMDAT ??__FsItemUpgrade@?1??GetInstance@CItemUpgrade@@SAPAV1@XZ@YAXXZ
text$yd	SEGMENT
??__FsItemUpgrade@?1??GetInstance@CItemUpgrade@@SAPAV1@XZ@YAXXZ PROC ; `CItemUpgrade::GetInstance'::`2'::`dynamic atexit destructor for 'sItemUpgrade'', COMDAT
  00000	b9 00 00 00 00	 mov	 ecx, OFFSET ?sItemUpgrade@?1??GetInstance@CItemUpgrade@@SAPAV2@XZ@4V2@A
  00005	e9 00 00 00 00	 jmp	 ??1CItemUpgrade@@QAE@XZ	; CItemUpgrade::~CItemUpgrade
??__FsItemUpgrade@?1??GetInstance@CItemUpgrade@@SAPAV1@XZ@YAXXZ ENDP ; `CItemUpgrade::GetInstance'::`2'::`dynamic atexit destructor for 'sItemUpgrade''
text$yd	ENDS
; Function compile flags: /Ogtp
; File C:\IAGOS\server\v18\Source\Source\WorldServer\ItemUpgrade.cpp
; File C:\IAGOS\server\v18\Source\Source\_Common\Obj.h
; File C:\IAGOS\server\v18\Source\Source\WorldServer\ItemUpgrade.cpp
;	COMDAT ?TransFormVisPet@CItemUpgrade@@QAEXPAVCUser@@K@Z
_TEXT	SEGMENT
_pUser$ = 8						; size = 4
_objIdMaterial$ = 12					; size = 4
?TransFormVisPet@CItemUpgrade@@QAEXPAVCUser@@K@Z PROC	; CItemUpgrade::TransFormVisPet, COMDAT
; _this$ = ecx

; 2233 : {

  00000	55		 push	 ebp
  00001	8b ec		 mov	 ebp, esp
  00003	53		 push	 ebx
  00004	56		 push	 esi
  00005	57		 push	 edi

; 2234 : 	CMover* pEatPet = prj.GetMover( pUser->GetEatPetId() );

  00006	8b 7d 08	 mov	 edi, DWORD PTR _pUser$[ebp]
  00009	b9 00 00 00 00	 mov	 ecx, OFFSET ?prj@@3VCProject@@A ; prj
  0000e	ff b7 74 06 00
	00		 push	 DWORD PTR [edi+1652]
  00014	e8 00 00 00 00	 call	 ?GetMover@CProject@@QAEPAVCMover@@K@Z ; CProject::GetMover
; File C:\IAGOS\server\v18\Source\Source\_Common\Obj.h

; 327  : 	return pObj && ( pObj->IsDelete() == FALSE ); 

  00019	85 c0		 test	 eax, eax
  0001b	0f 84 ea 00 00
	00		 je	 $LN2@TransFormV

; 180  : 	BOOL			IsDelete()	{ return (m_dwFlags & OBJ_FLAG_DELETE);  }

  00021	f6 40 04 01	 test	 BYTE PTR [eax+4], 1

; 327  : 	return pObj && ( pObj->IsDelete() == FALSE ); 

  00025	0f 85 e0 00 00
	00		 jne	 $LN2@TransFormV
; File C:\IAGOS\server\v18\Source\Source\WorldServer\ItemUpgrade.cpp

; 2238 : 		if( pAI )

  0002b	8b 80 88 01 00
	00		 mov	 eax, DWORD PTR [eax+392]
  00031	85 c0		 test	 eax, eax
  00033	0f 84 de 00 00
	00		 je	 $LN3@TransFormV

; 2239 : 		{
; 2240 : 			CItemElem* pItemEatPet = pUser->m_Inventory.GetAtId( pAI->GetPetItemId() );

  00039	ff 70 4c	 push	 DWORD PTR [eax+76]
  0003c	8d 8f fc 0a 00
	00		 lea	 ecx, DWORD PTR [edi+2812]
  00042	e8 00 00 00 00	 call	 ?GetAtId@?$CItemContainer@VCItemElem@@@@QAEPAVCItemElem@@K@Z ; CItemContainer<CItemElem>::GetAtId

; 2241 : 			CItemElem* pItemMaterial = pUser->m_Inventory.GetAtId( objIdMaterial );

  00047	ff 75 0c	 push	 DWORD PTR _objIdMaterial$[ebp]
  0004a	8d 8f fc 0a 00
	00		 lea	 ecx, DWORD PTR [edi+2812]
  00050	8b d8		 mov	 ebx, eax
  00052	e8 00 00 00 00	 call	 ?GetAtId@?$CItemContainer@VCItemElem@@@@QAEPAVCItemElem@@K@Z ; CItemContainer<CItemElem>::GetAtId

; 2242 : 			if( IsUsableItem( pItemEatPet ) && IsUsableItem( pItemMaterial ) )

  00057	53		 push	 ebx
  00058	8b f0		 mov	 esi, eax
  0005a	e8 00 00 00 00	 call	 ?IsUsableItem@@YAHPAVCItemBase@@@Z ; IsUsableItem
  0005f	83 c4 04	 add	 esp, 4
  00062	85 c0		 test	 eax, eax
  00064	0f 84 ad 00 00
	00		 je	 $LN3@TransFormV
  0006a	56		 push	 esi
  0006b	e8 00 00 00 00	 call	 ?IsUsableItem@@YAHPAVCItemBase@@@Z ; IsUsableItem
  00070	83 c4 04	 add	 esp, 4
  00073	85 c0		 test	 eax, eax
  00075	0f 84 9c 00 00
	00		 je	 $LN3@TransFormV

; 2243 : 			{
; 2244 : 				if( pItemEatPet->IsVisPet() )

  0007b	8b cb		 mov	 ecx, ebx
  0007d	e8 00 00 00 00	 call	 ?IsVisPet@CItemElem@@QAEHXZ ; CItemElem::IsVisPet
  00082	85 c0		 test	 eax, eax
  00084	0f 85 81 00 00
	00		 jne	 $LN2@TransFormV

; 2245 : 				{
; 2246 : 					pUser->AddDefinedText( TID_GAME_PET_TRAN_FAILURE );
; 2247 : 					return;
; 2248 : 				}
; 2249 : 								
; 2250 : 				if( pItemMaterial->m_bCharged )		// ╗¾┐ļ╚Ł ŠŲ└╠┼█ Ę╬▒ū

  0008a	39 86 a4 00 00
	00		 cmp	 DWORD PTR [esi+164], eax
  00090	74 1e		 je	 SHORT $LN7@TransFormV

; 2251 : 					g_dpDBClient.SendLogSMItemUse( "1", pUser, pItemMaterial, pItemMaterial->GetProp() );

  00092	68 00 00 00 00	 push	 OFFSET ??_C@_00CNPNBAHC@@
  00097	8b ce		 mov	 ecx, esi
  00099	e8 00 00 00 00	 call	 ?GetPropA@CItemElem@@QAEPAUItemProp@@XZ ; CItemElem::GetPropA
  0009e	50		 push	 eax
  0009f	56		 push	 esi
  000a0	57		 push	 edi
  000a1	68 00 00 00 00	 push	 OFFSET ??_C@_01HIHLOKLC@1@
  000a6	b9 00 00 00 00	 mov	 ecx, OFFSET ?g_dpDBClient@@3VCDPDatabaseClient@@A ; g_dpDBClient
  000ab	e8 00 00 00 00	 call	 ?SendLogSMItemUse@CDPDatabaseClient@@QAEXPBDPAVCUser@@PAVCItemElem@@PAUItemProp@@0@Z ; CDPDatabaseClient::SendLogSMItemUse
$LN7@TransFormV:

; 2252 : 				pUser->RemoveItem( (BYTE)( objIdMaterial ), 1 );

  000b0	6a 01		 push	 1
  000b2	ff 75 0c	 push	 DWORD PTR _objIdMaterial$[ebp]
  000b5	8b cf		 mov	 ecx, edi
  000b7	e8 00 00 00 00	 call	 ?RemoveItem@CMover@@QAEXEF@Z ; CMover::RemoveItem

; 2253 : 				pUser->UpdateItem( (BYTE)( pItemEatPet->m_dwObjId ), UI_TRANSFORM_VISPET, TRUE );

  000bc	0f b6 43 04	 movzx	 eax, BYTE PTR [ebx+4]
  000c0	8b cf		 mov	 ecx, edi
  000c2	6a 00		 push	 0
  000c4	6a 01		 push	 1
  000c6	6a 12		 push	 18			; 00000012H
  000c8	50		 push	 eax
  000c9	e8 00 00 00 00	 call	 ?UpdateItem@CMover@@QAEXEDKK@Z ; CMover::UpdateItem

; 2254 : 				g_DPSrvr.PutItemLog( pUser, "!", "TRANSFORM_VISPET", pItemEatPet );

  000ce	6a 00		 push	 0
  000d0	53		 push	 ebx
  000d1	68 00 00 00 00	 push	 OFFSET ??_C@_0BB@PNCKCHMF@TRANSFORM_VISPET@
  000d6	68 00 00 00 00	 push	 OFFSET ??_C@_01DCLJPIOD@?$CB@
  000db	57		 push	 edi
  000dc	b9 00 00 00 00	 mov	 ecx, OFFSET ?g_DPSrvr@@3VCDPSrvr@@A ; g_DPSrvr
  000e1	e8 00 00 00 00	 call	 ?PutItemLog@CDPSrvr@@QAEXPAVCUser@@PBD1PAVCItemElem@@H@Z ; CDPSrvr::PutItemLog

; 2255 : 				pUser->AddDefinedText( TID_GAME_PET_TRAN_SUCCESS, "\"%s\"", pItemEatPet->GetProp()->szName );

  000e6	8b cb		 mov	 ecx, ebx
  000e8	e8 00 00 00 00	 call	 ?GetPropA@CItemElem@@QAEPAUItemProp@@XZ ; CItemElem::GetPropA
  000ed	83 c0 04	 add	 eax, 4
  000f0	50		 push	 eax
  000f1	68 00 00 00 00	 push	 OFFSET ??_C@_04OEDFLLKD@?$CC?$CFs?$CC@
  000f6	68 fb 10 00 00	 push	 4347			; 000010fbH
  000fb	57		 push	 edi
  000fc	e8 00 00 00 00	 call	 ?AddDefinedText@CUser@@QAAXHPBDZZ ; CUser::AddDefinedText
  00101	83 c4 10	 add	 esp, 16			; 00000010H
  00104	5f		 pop	 edi

; 2262 : 	}
; 2263 : }

  00105	5e		 pop	 esi
  00106	5b		 pop	 ebx
  00107	5d		 pop	 ebp
  00108	c2 08 00	 ret	 8
$LN2@TransFormV:

; 2256 : 			}
; 2257 : 		}
; 2258 : 	}
; 2259 : 	else
; 2260 : 	{
; 2261 : 		pUser->AddDefinedText( TID_GAME_PET_TRAN_FAILURE );

  0010b	68 fc 10 00 00	 push	 4348			; 000010fcH
  00110	8b cf		 mov	 ecx, edi
  00112	e8 00 00 00 00	 call	 ?AddDefinedText@CUser@@QAEXH@Z ; CUser::AddDefinedText
$LN3@TransFormV:

; 2262 : 	}
; 2263 : }

  00117	5f		 pop	 edi
  00118	5e		 pop	 esi
  00119	5b		 pop	 ebx
  0011a	5d		 pop	 ebp
  0011b	c2 08 00	 ret	 8
?TransFormVisPet@CItemUpgrade@@QAEXPAVCUser@@K@Z ENDP	; CItemUpgrade::TransFormVisPet
_TEXT	ENDS
; Function compile flags: /Ogtp
; File C:\IAGOS\server\v18\Source\Source\WorldServer\ItemUpgrade.cpp
; File C:\IAGOS\server\v18\Source\Source\_Common\Obj.h
; File C:\IAGOS\server\v18\Source\Source\WorldServer\ItemUpgrade.cpp
; File C:\IAGOS\server\v18\Source\Source\_Common\Obj.h
; File C:\IAGOS\server\v18\Source\Source\WorldServer\ItemUpgrade.cpp
;	COMDAT ?ChangeVisPetSfx@CItemUpgrade@@QAEXPAVCUser@@PAVCItemElem@@@Z
_TEXT	SEGMENT
_pUser$ = 8						; size = 4
_pItemElemPet$ = 12					; size = 4
?ChangeVisPetSfx@CItemUpgrade@@QAEXPAVCUser@@PAVCItemElem@@@Z PROC ; CItemUpgrade::ChangeVisPetSfx, COMDAT
; _this$ = ecx

; 2219 : {

  00000	55		 push	 ebp
  00001	8b ec		 mov	 ebp, esp
  00003	56		 push	 esi

; 2220 : 	CMover* pVisPet = prj.GetMover( pUser->GetEatPetId() );

  00004	8b 75 08	 mov	 esi, DWORD PTR _pUser$[ebp]
  00007	b9 00 00 00 00	 mov	 ecx, OFFSET ?prj@@3VCProject@@A ; prj
  0000c	57		 push	 edi
  0000d	ff b6 74 06 00
	00		 push	 DWORD PTR [esi+1652]
  00013	e8 00 00 00 00	 call	 ?GetMover@CProject@@QAEPAVCMover@@K@Z ; CProject::GetMover
; File C:\IAGOS\server\v18\Source\Source\_Common\Obj.h

; 180  : 	BOOL			IsDelete()	{ return (m_dwFlags & OBJ_FLAG_DELETE);  }

  00018	f6 46 04 01	 test	 BYTE PTR [esi+4], 1
; File C:\IAGOS\server\v18\Source\Source\WorldServer\ItemUpgrade.cpp

; 2220 : 	CMover* pVisPet = prj.GetMover( pUser->GetEatPetId() );

  0001c	8b f8		 mov	 edi, eax
; File C:\IAGOS\server\v18\Source\Source\_Common\Obj.h

; 327  : 	return pObj && ( pObj->IsDelete() == FALSE ); 

  0001e	75 2b		 jne	 SHORT $LN3@ChangeVisP
  00020	85 ff		 test	 edi, edi
  00022	74 27		 je	 SHORT $LN3@ChangeVisP

; 180  : 	BOOL			IsDelete()	{ return (m_dwFlags & OBJ_FLAG_DELETE);  }

  00024	f6 47 04 01	 test	 BYTE PTR [edi+4], 1

; 327  : 	return pObj && ( pObj->IsDelete() == FALSE ); 

  00028	75 21		 jne	 SHORT $LN3@ChangeVisP
; File C:\IAGOS\server\v18\Source\Source\WorldServer\ItemUpgrade.cpp

; 2223 : 		DWORD dwSfxId = pItemElemPet->GetVisPetSfxId();

  0002a	8b 4d 0c	 mov	 ecx, DWORD PTR _pItemElemPet$[ebp]
  0002d	e8 00 00 00 00	 call	 ?GetVisPetSfxId@CItemElem@@QAEKXZ ; CItemElem::GetVisPetSfxId

; 2224 : 		if( pVisPet->m_dwMoverSfxId != dwSfxId )

  00032	39 87 9c 10 00
	00		 cmp	 DWORD PTR [edi+4252], eax
  00038	74 11		 je	 SHORT $LN3@ChangeVisP

; 2225 : 		{
; 2226 : 			pVisPet->m_dwMoverSfxId = dwSfxId;
; 2227 : 			g_UserMng.AddChangeMoverSfxId( pVisPet );

  0003a	57		 push	 edi
  0003b	b9 00 00 00 00	 mov	 ecx, OFFSET ?g_UserMng@@3VCUserMng@@A ; g_UserMng
  00040	89 87 9c 10 00
	00		 mov	 DWORD PTR [edi+4252], eax
  00046	e8 00 00 00 00	 call	 ?AddChangeMoverSfxId@CUserMng@@QAEXPAVCMover@@@Z ; CUserMng::AddChangeMoverSfxId
$LN3@ChangeVisP:

; 2228 : 		}
; 2229 : 	}
; 2230 : }

  0004b	5f		 pop	 edi
  0004c	5e		 pop	 esi
  0004d	5d		 pop	 ebp
  0004e	c2 08 00	 ret	 8
?ChangeVisPetSfx@CItemUpgrade@@QAEXPAVCUser@@PAVCItemElem@@@Z ENDP ; CItemUpgrade::ChangeVisPetSfx
_TEXT	ENDS
; Function compile flags: /Ogtp
; File C:\IAGOS\server\v18\Source\Source\WorldServer\ItemUpgrade.cpp
; File C:\IAGOS\server\v18\Source\Source\_Common\Obj.h
; File C:\IAGOS\server\v18\Source\Source\_Common\Mover.h
; File C:\IAGOS\server\v18\Source\Source\WorldServer\ItemUpgrade.cpp
;	COMDAT ?SwapVis@CItemUpgrade@@QAEXPAVCUser@@HH@Z
_TEXT	SEGMENT
_pUser$ = 8						; size = 4
_nPos1$ = 12						; size = 4
_nPos2$ = 16						; size = 4
?SwapVis@CItemUpgrade@@QAEXPAVCUser@@HH@Z PROC		; CItemUpgrade::SwapVis, COMDAT
; _this$ = ecx

; 2206 : {

  00000	55		 push	 ebp
  00001	8b ec		 mov	 ebp, esp
  00003	56		 push	 esi
; File C:\IAGOS\server\v18\Source\Source\_Common\Obj.h

; 327  : 	return pObj && ( pObj->IsDelete() == FALSE ); 

  00004	8b 75 08	 mov	 esi, DWORD PTR _pUser$[ebp]
  00007	85 f6		 test	 esi, esi
  00009	74 46		 je	 SHORT $LN1@SwapVis

; 180  : 	BOOL			IsDelete()	{ return (m_dwFlags & OBJ_FLAG_DELETE);  }

  0000b	f6 46 04 01	 test	 BYTE PTR [esi+4], 1

; 327  : 	return pObj && ( pObj->IsDelete() == FALSE ); 

  0000f	75 40		 jne	 SHORT $LN1@SwapVis
  00011	57		 push	 edi
; File C:\IAGOS\server\v18\Source\Source\_Common\Mover.h

; 823  : 	CItemElem*	GetVisPetItem( void )	{ return m_Inventory.GetAtId( m_objIdVisPet ); }

  00012	ff b6 a0 10 00
	00		 push	 DWORD PTR [esi+4256]
  00018	8d 8e fc 0a 00
	00		 lea	 ecx, DWORD PTR [esi+2812]
  0001e	e8 00 00 00 00	 call	 ?GetAtId@?$CItemContainer@VCItemElem@@@@QAEPAVCItemElem@@K@Z ; CItemContainer<CItemElem>::GetAtId
; File C:\IAGOS\server\v18\Source\Source\WorldServer\ItemUpgrade.cpp

; 2210 : 	CItemElem* pItemElemPet = pUser->GetVisPetItem();

  00023	8b f8		 mov	 edi, eax

; 2211 : 	if( !IsUsableItem( pItemElemPet ) )

  00025	57		 push	 edi
  00026	e8 00 00 00 00	 call	 ?IsUsableItem@@YAHPAVCItemBase@@@Z ; IsUsableItem
  0002b	83 c4 04	 add	 esp, 4
  0002e	85 c0		 test	 eax, eax
  00030	74 1e		 je	 SHORT $LN17@SwapVis

; 2212 : 		return;
; 2213 : 	
; 2214 : 	pUser->UpdateItem( (BYTE)( pItemElemPet->m_dwObjId ), UI_PETVIS_ITEMSWAP, MAKELONG( nPos1, nPos2 ) );

  00032	0f b7 55 10	 movzx	 edx, WORD PTR _nPos2$[ebp]
  00036	8b ce		 mov	 ecx, esi
  00038	0f b7 45 0c	 movzx	 eax, WORD PTR _nPos1$[ebp]
  0003c	6a 00		 push	 0
  0003e	c1 e2 10	 shl	 edx, 16			; 00000010H
  00041	0b d0		 or	 edx, eax
  00043	0f b6 47 04	 movzx	 eax, BYTE PTR [edi+4]
  00047	52		 push	 edx
  00048	6a 11		 push	 17			; 00000011H
  0004a	50		 push	 eax
  0004b	e8 00 00 00 00	 call	 ?UpdateItem@CMover@@QAEXEDKK@Z ; CMover::UpdateItem
$LN17@SwapVis:
  00050	5f		 pop	 edi
$LN1@SwapVis:
  00051	5e		 pop	 esi

; 2215 : }

  00052	5d		 pop	 ebp
  00053	c2 0c 00	 ret	 12			; 0000000cH
?SwapVis@CItemUpgrade@@QAEXPAVCUser@@HH@Z ENDP		; CItemUpgrade::SwapVis
_TEXT	ENDS
; Function compile flags: /Ogtp
; File C:\IAGOS\server\v18\Source\Source\WorldServer\ItemUpgrade.cpp
; File C:\IAGOS\server\v18\Source\Source\_Common\Item.h
; File C:\IAGOS\server\v18\Source\Source\WorldServer\ItemUpgrade.cpp
; File C:\IAGOS\server\v18\Source\Source\_Common\Item.h
; File C:\IAGOS\server\v18\Source\Source\WorldServer\ItemUpgrade.cpp
;	COMDAT ?PutPetVisItemLog@CItemUpgrade@@QAEXPAVCUser@@PBD1PAVCItemElem@@H@Z
_TEXT	SEGMENT
_pItem$GSCopy$1$ = -208					; size = 4
_log$ = -204						; size = 200
__$ArrayPad$ = -4					; size = 4
_pUser$ = 8						; size = 4
_szAction$ = 12						; size = 4
_szContext$ = 16					; size = 4
_pItem$ = 20						; size = 4
_nPosition$ = 24					; size = 4
?PutPetVisItemLog@CItemUpgrade@@QAEXPAVCUser@@PBD1PAVCItemElem@@H@Z PROC ; CItemUpgrade::PutPetVisItemLog, COMDAT
; _this$ = ecx

; 2194 : {	// ŠŲ└╠┼█└╠ ┴”░┼Ą╚ └╠╚─┐Ī ╚Ż├ŌĄŪ┴÷ Š╩ĄĄĘŽ ┴ų└ŪŪžŠ▀ Ūį

  00000	55		 push	 ebp
  00001	8b ec		 mov	 ebp, esp
  00003	81 ec d0 00 00
	00		 sub	 esp, 208		; 000000d0H
  00009	a1 00 00 00 00	 mov	 eax, DWORD PTR ___security_cookie
  0000e	33 c5		 xor	 eax, ebp
  00010	89 45 fc	 mov	 DWORD PTR __$ArrayPad$[ebp], eax
  00013	8b 45 14	 mov	 eax, DWORD PTR _pItem$[ebp]

; 2195 : 	LogItemInfo	log;

  00016	8d 8d 34 ff ff
	ff		 lea	 ecx, DWORD PTR _log$[ebp]
  0001c	53		 push	 ebx
  0001d	8b 5d 08	 mov	 ebx, DWORD PTR _pUser$[ebp]
  00020	56		 push	 esi
  00021	8b 75 0c	 mov	 esi, DWORD PTR _szAction$[ebp]
  00024	57		 push	 edi
  00025	8b 7d 10	 mov	 edi, DWORD PTR _szContext$[ebp]
  00028	89 85 30 ff ff
	ff		 mov	 DWORD PTR _pItem$GSCopy$1$[ebp], eax
  0002e	e8 00 00 00 00	 call	 ??0_LogItemInfo@@QAE@XZ	; _LogItemInfo::_LogItemInfo

; 2196 : 	log.Action	=  szAction;
; 2197 : 	log.SendName	= pUser->GetName();

  00033	6a 00		 push	 0
  00035	8b cb		 mov	 ecx, ebx
  00037	89 b5 34 ff ff
	ff		 mov	 DWORD PTR _log$[ebp], esi
  0003d	e8 00 00 00 00	 call	 ?GetName@CMover@@QAEPBDH@Z ; CMover::GetName
  00042	89 85 38 ff ff
	ff		 mov	 DWORD PTR _log$[ebp+4], eax

; 2198 : 	log.RecvName	= szContext;
; 2199 : 	log.WorldId		= pUser->GetWorld() ? pUser->GetWorld()->GetID() : WI_WORLD_NONE;	// chipi_090623 ╝÷┴ż - ├╣ ┴ó╝ėĮ├ ĖĖĘßĄ╚ ╣÷Ū┴└╬ ░µ┐ņ ┐∙ĄÕ░Ī Š°┤┬ ╗¾┼┬Ę╬ ĄķŠŅ┐┬┤┘. 

  00048	8b 83 6c 01 00
	00		 mov	 eax, DWORD PTR [ebx+364]
  0004e	89 bd 3c ff ff
	ff		 mov	 DWORD PTR _log$[ebp+8], edi
  00054	85 c0		 test	 eax, eax
  00056	74 0a		 je	 SHORT $LN3@PutPetVisI
  00058	8b 00		 mov	 eax, DWORD PTR [eax]
  0005a	89 85 40 ff ff
	ff		 mov	 DWORD PTR _log$[ebp+12], eax
  00060	eb 0a		 jmp	 SHORT $LN4@PutPetVisI
$LN3@PutPetVisI:
  00062	c7 85 40 ff ff
	ff 00 00 00 00	 mov	 DWORD PTR _log$[ebp+12], 0
$LN4@PutPetVisI:

; 2200 : 	log.Gold	= pUser->GetGold();

  0006c	8b 83 e0 14 00
	00		 mov	 eax, DWORD PTR [ebx+5344]
; File C:\IAGOS\server\v18\Source\Source\_Common\Item.h

; 279  : 	time_t	GetVisKeepTime( int nth )					{ return m_piercing.GetVisKeepTime( nth ); }

  00072	8b 9d 30 ff ff
	ff		 mov	 ebx, DWORD PTR _pItem$GSCopy$1$[ebp]
  00078	ff 75 18	 push	 DWORD PTR _nPosition$[ebp]
; File C:\IAGOS\server\v18\Source\Source\WorldServer\ItemUpgrade.cpp

; 2200 : 	log.Gold	= pUser->GetGold();

  0007b	89 85 44 ff ff
	ff		 mov	 DWORD PTR _log$[ebp+16], eax
; File C:\IAGOS\server\v18\Source\Source\_Common\Item.h

; 279  : 	time_t	GetVisKeepTime( int nth )					{ return m_piercing.GetVisKeepTime( nth ); }

  00081	8d 4b 3c	 lea	 ecx, DWORD PTR [ebx+60]
  00084	e8 00 00 00 00	 call	 ?GetVisKeepTime@CPiercing@@QAEJH@Z ; CPiercing::GetVisKeepTime
; File C:\IAGOS\server\v18\Source\Source\WorldServer\ItemUpgrade.cpp

; 2201 : 	log.Gold2	= pItem->GetVisKeepTime( nPosition ) - time_null();

  00089	2b 05 00 00 00
	00		 sub	 eax, DWORD PTR ?g_tCurrent@@3JA ; g_tCurrent

; 2202 : 	g_DPSrvr.OnLogItem( log, pItem, pItem->m_nItemNum );

  0008f	b9 00 00 00 00	 mov	 ecx, OFFSET ?g_DPSrvr@@3VCDPSrvr@@A ; g_DPSrvr
  00094	89 85 48 ff ff
	ff		 mov	 DWORD PTR _log$[ebp+20], eax
  0009a	0f bf 43 74	 movsx	 eax, WORD PTR [ebx+116]
  0009e	50		 push	 eax
  0009f	53		 push	 ebx
  000a0	8d 85 34 ff ff
	ff		 lea	 eax, DWORD PTR _log$[ebp]
  000a6	50		 push	 eax
  000a7	e8 00 00 00 00	 call	 ?OnLogItem@CDPSrvr@@QAEXAAU_LogItemInfo@@PAVCItemElem@@H@Z ; CDPSrvr::OnLogItem

; 2203 : }

  000ac	8b 4d fc	 mov	 ecx, DWORD PTR __$ArrayPad$[ebp]
  000af	5f		 pop	 edi
  000b0	5e		 pop	 esi
  000b1	33 cd		 xor	 ecx, ebp
  000b3	5b		 pop	 ebx
  000b4	e8 00 00 00 00	 call	 @__security_check_cookie@4
  000b9	8b e5		 mov	 esp, ebp
  000bb	5d		 pop	 ebp
  000bc	c2 14 00	 ret	 20			; 00000014H
?PutPetVisItemLog@CItemUpgrade@@QAEXPAVCUser@@PBD1PAVCItemElem@@H@Z ENDP ; CItemUpgrade::PutPetVisItemLog
_TEXT	ENDS
; Function compile flags: /Ogtp
; File C:\IAGOS\server\v18\Source\Source\WorldServer\ItemUpgrade.cpp
; File C:\IAGOS\server\v18\Source\Source\_Common\Obj.h
; File C:\IAGOS\server\v18\Source\Source\WorldServer\ItemUpgrade.cpp
; File C:\IAGOS\server\v18\Source\Source\_Common\Obj.h
; File C:\IAGOS\server\v18\Source\Source\_Common\Mover.h
; File C:\IAGOS\server\v18\Source\Source\WorldServer\ItemUpgrade.cpp
; File C:\IAGOS\server\v18\Source\Source\_Common\Item.h
; File C:\IAGOS\server\v18\Source\Source\WorldServer\ItemUpgrade.cpp
;	COMDAT ?RemovePetVisItem@CItemUpgrade@@QAEXPAVCUser@@HH@Z
_TEXT	SEGMENT
_pUser$ = 8						; size = 4
_dwItemId$1$ = 8					; size = 4
_nPosition$ = 12					; size = 4
_bExpired$ = 16						; size = 4
?RemovePetVisItem@CItemUpgrade@@QAEXPAVCUser@@HH@Z PROC	; CItemUpgrade::RemovePetVisItem, COMDAT
; _this$ = ecx

; 2168 : {

  00000	55		 push	 ebp
  00001	8b ec		 mov	 ebp, esp
  00003	53		 push	 ebx
  00004	56		 push	 esi
; File C:\IAGOS\server\v18\Source\Source\_Common\Obj.h

; 327  : 	return pObj && ( pObj->IsDelete() == FALSE ); 

  00005	8b 75 08	 mov	 esi, DWORD PTR _pUser$[ebp]
; File C:\IAGOS\server\v18\Source\Source\WorldServer\ItemUpgrade.cpp

; 2168 : {

  00008	8b d9		 mov	 ebx, ecx
; File C:\IAGOS\server\v18\Source\Source\_Common\Obj.h

; 327  : 	return pObj && ( pObj->IsDelete() == FALSE ); 

  0000a	85 f6		 test	 esi, esi
  0000c	0f 84 bd 00 00
	00		 je	 $LN1@RemovePetV

; 180  : 	BOOL			IsDelete()	{ return (m_dwFlags & OBJ_FLAG_DELETE);  }

  00012	f6 46 04 01	 test	 BYTE PTR [esi+4], 1

; 327  : 	return pObj && ( pObj->IsDelete() == FALSE ); 

  00016	0f 85 b3 00 00
	00		 jne	 $LN1@RemovePetV
  0001c	57		 push	 edi
; File C:\IAGOS\server\v18\Source\Source\_Common\Mover.h

; 823  : 	CItemElem*	GetVisPetItem( void )	{ return m_Inventory.GetAtId( m_objIdVisPet ); }

  0001d	ff b6 a0 10 00
	00		 push	 DWORD PTR [esi+4256]
  00023	8d 8e fc 0a 00
	00		 lea	 ecx, DWORD PTR [esi+2812]
  00029	e8 00 00 00 00	 call	 ?GetAtId@?$CItemContainer@VCItemElem@@@@QAEPAVCItemElem@@K@Z ; CItemContainer<CItemElem>::GetAtId
; File C:\IAGOS\server\v18\Source\Source\WorldServer\ItemUpgrade.cpp

; 2172 : 	CItemElem* pItemElemPet = pUser->GetVisPetItem();

  0002e	8b f8		 mov	 edi, eax

; 2173 : 	if( !IsUsableItem( pItemElemPet ) )

  00030	57		 push	 edi
  00031	e8 00 00 00 00	 call	 ?IsUsableItem@@YAHPAVCItemBase@@@Z ; IsUsableItem
  00036	83 c4 04	 add	 esp, 4
  00039	85 c0		 test	 eax, eax
  0003b	0f 84 8d 00 00
	00		 je	 $LN25@RemovePetV
; File C:\IAGOS\server\v18\Source\Source\_Common\Item.h

; 105  : 	DWORD	GetPiercingItem( int nth )	{	return m_piercing.GetPiercingItem( nth );	}

  00041	ff 75 0c	 push	 DWORD PTR _nPosition$[ebp]
  00044	8d 4f 3c	 lea	 ecx, DWORD PTR [edi+60]
  00047	e8 00 00 00 00	 call	 ?GetPiercingItem@CPiercing@@QAEKH@Z ; CPiercing::GetPiercingItem
; File C:\IAGOS\server\v18\Source\Source\WorldServer\ItemUpgrade.cpp

; 2176 : 	DWORD dwItemId = pItemElemPet->GetPiercingItem( nPosition );

  0004c	89 45 08	 mov	 DWORD PTR _dwItemId$1$[ebp], eax

; 2177 : 	if( dwItemId  == 0 )	// └╠╣╠ ║±ŠŅ└ų┤┬ ĮĮĘį

  0004f	85 c0		 test	 eax, eax
  00051	74 7b		 je	 SHORT $LN25@RemovePetV

; 2178 : 		return;
; 2179 : 
; 2180 : 	pUser->ResetPetVisDST( pItemElemPet );

  00053	57		 push	 edi
  00054	8b ce		 mov	 ecx, esi
  00056	e8 00 00 00 00	 call	 ?ResetPetVisDST@CMover@@QAEXPAVCItemElem@@@Z ; CMover::ResetPetVisDST

; 2181 : 	if( bExpired )
; 2182 : 		PutPetVisItemLog( pUser, "$", "VIS_REMOVE_EXPIRED", pItemElemPet, nPosition );
; 2183 : 	else
; 2184 : 		PutPetVisItemLog( pUser, "$", "VIS_REMOVE_BYUSER", pItemElemPet, nPosition );
; 2185 : 	pUser->UpdateItem( (BYTE)( pItemElemPet->m_dwObjId ), UI_PETVIS_ITEM, MAKELONG( nPosition, 0 ), 0 ); // Ūž┤ń ĮĮĘį└╗ ║±┐Ņ┤┘.

  0005b	ff 75 0c	 push	 DWORD PTR _nPosition$[ebp]
  0005e	83 7d 10 00	 cmp	 DWORD PTR _bExpired$[ebp], 0
  00062	b8 00 00 00 00	 mov	 eax, OFFSET ??_C@_0BD@EOJLJBKF@VIS_REMOVE_EXPIRED@
  00067	57		 push	 edi
  00068	b9 00 00 00 00	 mov	 ecx, OFFSET ??_C@_0BC@LPGJAKI@VIS_REMOVE_BYUSER@
  0006d	0f 45 c8	 cmovne	 ecx, eax
  00070	51		 push	 ecx
  00071	68 00 00 00 00	 push	 OFFSET ??_C@_01EPMOAMKG@$@
  00076	56		 push	 esi
  00077	8b cb		 mov	 ecx, ebx
  00079	e8 00 00 00 00	 call	 ?PutPetVisItemLog@CItemUpgrade@@QAEXPAVCUser@@PBD1PAVCItemElem@@H@Z ; CItemUpgrade::PutPetVisItemLog
  0007e	8b 45 0c	 mov	 eax, DWORD PTR _nPosition$[ebp]
  00081	8b ce		 mov	 ecx, esi
  00083	6a 00		 push	 0
  00085	0f b7 c0	 movzx	 eax, ax
  00088	50		 push	 eax
  00089	0f b6 47 04	 movzx	 eax, BYTE PTR [edi+4]
  0008d	6a 10		 push	 16			; 00000010H
  0008f	50		 push	 eax
  00090	e8 00 00 00 00	 call	 ?UpdateItem@CMover@@QAEXEDKK@Z ; CMover::UpdateItem

; 2186 : 	ItemProp* pItemProp = prj.GetItemProp( dwItemId );

  00095	ff 75 08	 push	 DWORD PTR _dwItemId$1$[ebp]
  00098	b9 00 00 00 00	 mov	 ecx, OFFSET ?prj@@3VCProject@@A ; prj
  0009d	e8 00 00 00 00	 call	 ?GetItemProp@CProject@@QAEPAUItemProp@@H@Z ; CProject::GetItemProp

; 2187 : 	if( pItemProp )

  000a2	85 c0		 test	 eax, eax
  000a4	74 17		 je	 SHORT $LN7@RemovePetV

; 2188 : 		pUser->AddDefinedText( TID_GAME_BUFFPET_REMOVEVIS, "\"%s\"", pItemProp->szName );

  000a6	83 c0 04	 add	 eax, 4
  000a9	50		 push	 eax
  000aa	68 00 00 00 00	 push	 OFFSET ??_C@_04OEDFLLKD@?$CC?$CFs?$CC@
  000af	68 81 10 00 00	 push	 4225			; 00001081H
  000b4	56		 push	 esi
  000b5	e8 00 00 00 00	 call	 ?AddDefinedText@CUser@@QAAXHPBDZZ ; CUser::AddDefinedText
  000ba	83 c4 10	 add	 esp, 16			; 00000010H
$LN7@RemovePetV:

; 2189 : 	pUser->SetPetVisDST( pItemElemPet );

  000bd	57		 push	 edi
  000be	8b ce		 mov	 ecx, esi
  000c0	e8 00 00 00 00	 call	 ?SetPetVisDST@CMover@@QAEXPAVCItemElem@@@Z ; CMover::SetPetVisDST

; 2190 : 	ChangeVisPetSfx( pUser, pItemElemPet );

  000c5	57		 push	 edi
  000c6	56		 push	 esi
  000c7	8b cb		 mov	 ecx, ebx
  000c9	e8 00 00 00 00	 call	 ?ChangeVisPetSfx@CItemUpgrade@@QAEXPAVCUser@@PAVCItemElem@@@Z ; CItemUpgrade::ChangeVisPetSfx
$LN25@RemovePetV:
  000ce	5f		 pop	 edi
$LN1@RemovePetV:
  000cf	5e		 pop	 esi

; 2191 : }

  000d0	5b		 pop	 ebx
  000d1	5d		 pop	 ebp
  000d2	c2 0c 00	 ret	 12			; 0000000cH
?RemovePetVisItem@CItemUpgrade@@QAEXPAVCUser@@HH@Z ENDP	; CItemUpgrade::RemovePetVisItem
_TEXT	ENDS
; Function compile flags: /Ogtp
; File C:\IAGOS\server\v18\Source\Source\WorldServer\ItemUpgrade.cpp
; File C:\IAGOS\server\v18\Source\Source\_Common\Obj.h
; File C:\IAGOS\server\v18\Source\Source\WorldServer\ItemUpgrade.cpp
; File C:\IAGOS\server\v18\Source\Source\_Common\Obj.h
; File C:\IAGOS\server\v18\Source\Source\_Common\Mover.h
; File C:\IAGOS\server\v18\Source\Source\WorldServer\ItemUpgrade.cpp
; File C:\IAGOS\server\v18\Source\Source\_Common\Item.h
; File C:\IAGOS\server\v18\Source\Source\WorldServer\ItemUpgrade.cpp
; File C:\IAGOS\server\v18\Source\Source\_Common\Item.h
; File C:\IAGOS\server\v18\Source\Source\WorldServer\ItemUpgrade.cpp
; File C:\IAGOS\server\v18\Source\Source\_Common\Item.h
; File C:\IAGOS\server\v18\Source\Source\WorldServer\ItemUpgrade.cpp
; File C:\IAGOS\server\v18\Source\Source\_Common\Item.h
; File C:\IAGOS\server\v18\Source\Source\WorldServer\ItemUpgrade.cpp
; File C:\IAGOS\server\v18\Source\Source\_Common\Item.h
; File C:\IAGOS\server\v18\Source\Source\WorldServer\ItemUpgrade.cpp
; File C:\IAGOS\server\v18\Source\Source\_Common\Item.h
; File C:\IAGOS\server\v18\Source\Source\WorldServer\ItemUpgrade.cpp
;	COMDAT ?SetPetVisItem@CItemUpgrade@@QAEXPAVCUser@@K@Z
_TEXT	SEGMENT
_this$1$ = -16						; size = 4
_pItemElemVis$1$ = -12					; size = 4
_pItemElemPet$1$ = -8					; size = 4
tv337 = -4						; size = 4
_pUser$ = 8						; size = 4
_pVisProp$1$ = 8					; size = 4
_objIdVis$ = 12						; size = 4
?SetPetVisItem@CItemUpgrade@@QAEXPAVCUser@@K@Z PROC	; CItemUpgrade::SetPetVisItem, COMDAT
; _this$ = ecx

; 2106 : {

  00000	55		 push	 ebp
  00001	8b ec		 mov	 ebp, esp
  00003	83 ec 10	 sub	 esp, 16			; 00000010H
  00006	57		 push	 edi
; File C:\IAGOS\server\v18\Source\Source\_Common\Obj.h

; 327  : 	return pObj && ( pObj->IsDelete() == FALSE ); 

  00007	8b 7d 08	 mov	 edi, DWORD PTR _pUser$[ebp]
; File C:\IAGOS\server\v18\Source\Source\WorldServer\ItemUpgrade.cpp

; 2106 : {

  0000a	89 4d f0	 mov	 DWORD PTR _this$1$[ebp], ecx
; File C:\IAGOS\server\v18\Source\Source\_Common\Obj.h

; 327  : 	return pObj && ( pObj->IsDelete() == FALSE ); 

  0000d	85 ff		 test	 edi, edi
  0000f	0f 84 d6 01 00
	00		 je	 $LN1@SetPetVisI

; 180  : 	BOOL			IsDelete()	{ return (m_dwFlags & OBJ_FLAG_DELETE);  }

  00015	f6 47 04 01	 test	 BYTE PTR [edi+4], 1

; 327  : 	return pObj && ( pObj->IsDelete() == FALSE ); 

  00019	0f 85 cc 01 00
	00		 jne	 $LN1@SetPetVisI
  0001f	53		 push	 ebx
  00020	56		 push	 esi
; File C:\IAGOS\server\v18\Source\Source\_Common\Mover.h

; 823  : 	CItemElem*	GetVisPetItem( void )	{ return m_Inventory.GetAtId( m_objIdVisPet ); }

  00021	ff b7 a0 10 00
	00		 push	 DWORD PTR [edi+4256]
  00027	8d 8f fc 0a 00
	00		 lea	 ecx, DWORD PTR [edi+2812]
  0002d	e8 00 00 00 00	 call	 ?GetAtId@?$CItemContainer@VCItemElem@@@@QAEPAVCItemElem@@K@Z ; CItemContainer<CItemElem>::GetAtId
; File C:\IAGOS\server\v18\Source\Source\WorldServer\ItemUpgrade.cpp

; 2111 : 	CItemElem* pItemElemVis = pUser->m_Inventory.GetAtId( objIdVis );

  00032	ff 75 0c	 push	 DWORD PTR _objIdVis$[ebp]
  00035	8b d8		 mov	 ebx, eax
  00037	8d 8f fc 0a 00
	00		 lea	 ecx, DWORD PTR [edi+2812]
  0003d	89 5d f8	 mov	 DWORD PTR _pItemElemPet$1$[ebp], ebx
  00040	e8 00 00 00 00	 call	 ?GetAtId@?$CItemContainer@VCItemElem@@@@QAEPAVCItemElem@@K@Z ; CItemContainer<CItemElem>::GetAtId
  00045	8b f0		 mov	 esi, eax

; 2112 : 
; 2113 : 	if( !IsUsableItem( pItemElemPet ) )

  00047	53		 push	 ebx
  00048	89 75 f4	 mov	 DWORD PTR _pItemElemVis$1$[ebp], esi
  0004b	e8 00 00 00 00	 call	 ?IsUsableItem@@YAHPAVCItemBase@@@Z ; IsUsableItem
  00050	83 c4 04	 add	 esp, 4
  00053	85 c0		 test	 eax, eax
  00055	75 15		 jne	 SHORT $LN6@SetPetVisI

; 2114 : 	{
; 2115 : 		pUser->AddDefinedText( TID_GAME_BUFFPET_NOSUMMON01 );

  00057	68 7d 10 00 00	 push	 4221			; 0000107dH

; 2144 : 	{
; 2145 : 		pUser->AddDefinedText( TID_GAME_BUFFPET_LACKSLOT );

  0005c	8b cf		 mov	 ecx, edi
  0005e	e8 00 00 00 00	 call	 ?AddDefinedText@CUser@@QAEXH@Z ; CUser::AddDefinedText
  00063	5e		 pop	 esi
  00064	5b		 pop	 ebx
  00065	5f		 pop	 edi

; 2165 : }

  00066	8b e5		 mov	 esp, ebp
  00068	5d		 pop	 ebp
  00069	c2 08 00	 ret	 8
$LN6@SetPetVisI:

; 2116 : 		return;
; 2117 : 	}
; 2118 : 		
; 2119 : 	if( !IsUsableItem( pItemElemVis ) )

  0006c	56		 push	 esi
  0006d	e8 00 00 00 00	 call	 ?IsUsableItem@@YAHPAVCItemBase@@@Z ; IsUsableItem
  00072	83 c4 04	 add	 esp, 4
  00075	85 c0		 test	 eax, eax
  00077	0f 84 6c 01 00
	00		 je	 $LN48@SetPetVisI

; 2120 : 		return;
; 2121 : 
; 2122 : 	ItemProp* pVisProp = prj.GetItemProp( pItemElemVis->m_dwItemId );

  0007d	ff 76 0c	 push	 DWORD PTR [esi+12]
  00080	b9 00 00 00 00	 mov	 ecx, OFFSET ?prj@@3VCProject@@A ; prj
  00085	e8 00 00 00 00	 call	 ?GetItemProp@CProject@@QAEPAUItemProp@@H@Z ; CProject::GetItemProp
  0008a	89 45 08	 mov	 DWORD PTR _pVisProp$1$[ebp], eax

; 2123 : 	if( !pVisProp )

  0008d	85 c0		 test	 eax, eax
  0008f	0f 84 54 01 00
	00		 je	 $LN48@SetPetVisI

; 2124 : 		return;
; 2125 : 
; 2126 : 	if( !pItemElemPet->IsPierceAble( pVisProp->dwItemKind3 ) )	// ║±Į║ └Õ┬° ░Ī┤╔ ░╦╗ń.

  00095	6a 00		 push	 0
  00097	ff 70 78	 push	 DWORD PTR [eax+120]
  0009a	8b cb		 mov	 ecx, ebx
  0009c	e8 00 00 00 00	 call	 ?IsPierceAble@CItemElem@@QAEHKH@Z ; CItemElem::IsPierceAble
  000a1	85 c0		 test	 eax, eax
  000a3	0f 84 40 01 00
	00		 je	 $LN48@SetPetVisI
; File C:\IAGOS\server\v18\Source\Source\_Common\Item.h

; 103  : 	int		GetPiercingSize()	{	return m_piercing.GetPiercingSize();		}

  000a9	8b 45 f8	 mov	 eax, DWORD PTR _pItemElemPet$1$[ebp]
; File C:\IAGOS\server\v18\Source\Source\WorldServer\ItemUpgrade.cpp

; 2129 : 	int nFirstEmptySlot = NULL_ID;

  000ac	83 ce ff	 or	 esi, -1
; File C:\IAGOS\server\v18\Source\Source\_Common\Item.h

; 103  : 	int		GetPiercingSize()	{	return m_piercing.GetPiercingSize();		}

  000af	83 c0 3c	 add	 eax, 60			; 0000003cH
; File C:\IAGOS\server\v18\Source\Source\WorldServer\ItemUpgrade.cpp

; 2130 : 	for( int i=0; i<pItemElemPet->GetPiercingSize(); i++ )

  000b2	33 db		 xor	 ebx, ebx
; File C:\IAGOS\server\v18\Source\Source\_Common\Item.h

; 103  : 	int		GetPiercingSize()	{	return m_piercing.GetPiercingSize();		}

  000b4	8b c8		 mov	 ecx, eax
  000b6	89 45 fc	 mov	 DWORD PTR tv337[ebp], eax
  000b9	e8 00 00 00 00	 call	 ?GetPiercingSize@CPiercing@@QAEHXZ ; CPiercing::GetPiercingSize
; File C:\IAGOS\server\v18\Source\Source\WorldServer\ItemUpgrade.cpp

; 2130 : 	for( int i=0; i<pItemElemPet->GetPiercingSize(); i++ )

  000be	85 c0		 test	 eax, eax
  000c0	0f 8e 17 01 00
	00		 jle	 $LN33@SetPetVisI
$LL4@SetPetVisI:
; File C:\IAGOS\server\v18\Source\Source\_Common\Item.h

; 105  : 	DWORD	GetPiercingItem( int nth )	{	return m_piercing.GetPiercingItem( nth );	}

  000c6	8b 4d fc	 mov	 ecx, DWORD PTR tv337[ebp]
  000c9	53		 push	 ebx
  000ca	e8 00 00 00 00	 call	 ?GetPiercingItem@CPiercing@@QAEKH@Z ; CPiercing::GetPiercingItem
; File C:\IAGOS\server\v18\Source\Source\WorldServer\ItemUpgrade.cpp

; 2133 : 		if( dwVisId == pVisProp->dwID )	// └╠╣╠ ░░└║ ┴ŠĘ∙└Ū ║±Į║░Ī └Õ┬°ĄŪŠŅ └ų┤┘.

  000cf	8b 4d 08	 mov	 ecx, DWORD PTR _pVisProp$1$[ebp]
  000d2	3b 01		 cmp	 eax, DWORD PTR [ecx]
  000d4	0f 84 ee 00 00
	00		 je	 $LN29@SetPetVisI

; 2136 : 			return;
; 2137 : 		}
; 2138 : 
; 2139 : 		if( nFirstEmptySlot == NULL_ID && dwVisId == 0 )

  000da	83 fe ff	 cmp	 esi, -1
  000dd	75 05		 jne	 SHORT $LN2@SetPetVisI
  000df	85 c0		 test	 eax, eax
  000e1	0f 44 f3	 cmove	 esi, ebx
$LN2@SetPetVisI:
; File C:\IAGOS\server\v18\Source\Source\_Common\Item.h

; 103  : 	int		GetPiercingSize()	{	return m_piercing.GetPiercingSize();		}

  000e4	8b 4d fc	 mov	 ecx, DWORD PTR tv337[ebp]
; File C:\IAGOS\server\v18\Source\Source\WorldServer\ItemUpgrade.cpp

; 2130 : 	for( int i=0; i<pItemElemPet->GetPiercingSize(); i++ )

  000e7	43		 inc	 ebx
; File C:\IAGOS\server\v18\Source\Source\_Common\Item.h

; 103  : 	int		GetPiercingSize()	{	return m_piercing.GetPiercingSize();		}

  000e8	e8 00 00 00 00	 call	 ?GetPiercingSize@CPiercing@@QAEHXZ ; CPiercing::GetPiercingSize
; File C:\IAGOS\server\v18\Source\Source\WorldServer\ItemUpgrade.cpp

; 2130 : 	for( int i=0; i<pItemElemPet->GetPiercingSize(); i++ )

  000ed	3b d8		 cmp	 ebx, eax
  000ef	7c d5		 jl	 SHORT $LL4@SetPetVisI

; 2140 : 			nFirstEmptySlot = i;
; 2141 : 	}
; 2142 : 
; 2143 : 	if( nFirstEmptySlot == NULL_ID )	// ║±ŠŅ└ų┤┬ ║±Į║ ĮĮĘį└╠ Š°┤┘.

  000f1	83 fe ff	 cmp	 esi, -1
  000f4	0f 84 e3 00 00
	00		 je	 $LN33@SetPetVisI

; 2146 : 		return;
; 2147 : 	}
; 2148 : 
; 2149 : 	if( pUser->IsSatisfyNeedVis( pItemElemPet, pVisProp ) != SUCCSESS_NEEDVIS )

  000fa	ff 75 08	 push	 DWORD PTR _pVisProp$1$[ebp]
  000fd	8b 5d f8	 mov	 ebx, DWORD PTR _pItemElemPet$1$[ebp]
  00100	8b cf		 mov	 ecx, edi
  00102	53		 push	 ebx
  00103	e8 00 00 00 00	 call	 ?IsSatisfyNeedVis@CMover@@QAEEPAVCItemElem@@PAUItemProp@@@Z ; CMover::IsSatisfyNeedVis
  00108	8b cf		 mov	 ecx, edi
  0010a	3c 03		 cmp	 al, 3
  0010c	74 13		 je	 SHORT $LN13@SetPetVisI

; 2150 : 	{
; 2151 : 		pUser->AddDefinedText( TID_GAME_BUFFPET_REQVIS );

  0010e	68 80 10 00 00	 push	 4224			; 00001080H
  00113	e8 00 00 00 00	 call	 ?AddDefinedText@CUser@@QAEXH@Z ; CUser::AddDefinedText
  00118	5e		 pop	 esi
  00119	5b		 pop	 ebx
  0011a	5f		 pop	 edi

; 2165 : }

  0011b	8b e5		 mov	 esp, ebp
  0011d	5d		 pop	 ebp
  0011e	c2 08 00	 ret	 8
$LN13@SetPetVisI:

; 2152 : 		return;
; 2153 : 	}
; 2154 : 
; 2155 : 	
; 2156 : 	pUser->ResetPetVisDST( pItemElemPet );

  00121	53		 push	 ebx
  00122	e8 00 00 00 00	 call	 ?ResetPetVisDST@CMover@@QAEXPAVCItemElem@@@Z ; CMover::ResetPetVisDST

; 2157 : 	pUser->UpdateItem( (BYTE)( pItemElemPet->m_dwObjId ), UI_PETVIS_ITEM, MAKELONG( nFirstEmptySlot, pItemElemVis->m_dwItemId ), pVisProp->dwAbilityMin );

  00127	8b 45 08	 mov	 eax, DWORD PTR _pVisProp$1$[ebp]
  0012a	ff b0 e4 00 00
	00		 push	 DWORD PTR [eax+228]
  00130	8b 45 f4	 mov	 eax, DWORD PTR _pItemElemVis$1$[ebp]
  00133	0f b7 48 0c	 movzx	 ecx, WORD PTR [eax+12]
  00137	c1 e1 10	 shl	 ecx, 16			; 00000010H
  0013a	0f b7 c6	 movzx	 eax, si
  0013d	0b c8		 or	 ecx, eax
  0013f	0f b6 43 04	 movzx	 eax, BYTE PTR [ebx+4]
  00143	51		 push	 ecx
  00144	6a 10		 push	 16			; 00000010H
  00146	50		 push	 eax
  00147	8b cf		 mov	 ecx, edi
  00149	e8 00 00 00 00	 call	 ?UpdateItem@CMover@@QAEXEDKK@Z ; CMover::UpdateItem

; 2158 : 	PutPetVisItemLog( pUser, "!", "VIS_MATERIAL", pItemElemPet, nFirstEmptySlot );

  0014e	56		 push	 esi
  0014f	8b 75 f0	 mov	 esi, DWORD PTR _this$1$[ebp]
  00152	8b ce		 mov	 ecx, esi
  00154	53		 push	 ebx
  00155	68 00 00 00 00	 push	 OFFSET ??_C@_0N@JGNDKGOK@VIS_MATERIAL@
  0015a	68 00 00 00 00	 push	 OFFSET ??_C@_01DCLJPIOD@?$CB@
  0015f	57		 push	 edi
  00160	e8 00 00 00 00	 call	 ?PutPetVisItemLog@CItemUpgrade@@QAEXPAVCUser@@PBD1PAVCItemElem@@H@Z ; CItemUpgrade::PutPetVisItemLog

; 2159 : 	if( pItemElemVis->m_bCharged )		// ╗¾┐ļ╚Ł ŠŲ└╠┼█ Ę╬▒ū

  00165	8b 45 f4	 mov	 eax, DWORD PTR _pItemElemVis$1$[ebp]
  00168	83 b8 a4 00 00
	00 00		 cmp	 DWORD PTR [eax+164], 0
  0016f	74 19		 je	 SHORT $LN14@SetPetVisI

; 2160 : 		g_dpDBClient.SendLogSMItemUse( "1", pUser, pItemElemVis, pVisProp );		

  00171	68 00 00 00 00	 push	 OFFSET ??_C@_00CNPNBAHC@@
  00176	ff 75 08	 push	 DWORD PTR _pVisProp$1$[ebp]
  00179	b9 00 00 00 00	 mov	 ecx, OFFSET ?g_dpDBClient@@3VCDPDatabaseClient@@A ; g_dpDBClient
  0017e	50		 push	 eax
  0017f	57		 push	 edi
  00180	68 00 00 00 00	 push	 OFFSET ??_C@_01HIHLOKLC@1@
  00185	e8 00 00 00 00	 call	 ?SendLogSMItemUse@CDPDatabaseClient@@QAEXPBDPAVCUser@@PAVCItemElem@@PAUItemProp@@0@Z ; CDPDatabaseClient::SendLogSMItemUse
$LN14@SetPetVisI:

; 2161 : 	g_DPSrvr.PutItemLog( pUser, "$", "VIS_PIERCING", pItemElemPet );

  0018a	6a 00		 push	 0
  0018c	53		 push	 ebx
  0018d	68 00 00 00 00	 push	 OFFSET ??_C@_0N@HCOLJNOE@VIS_PIERCING@
  00192	68 00 00 00 00	 push	 OFFSET ??_C@_01EPMOAMKG@$@
  00197	57		 push	 edi
  00198	b9 00 00 00 00	 mov	 ecx, OFFSET ?g_DPSrvr@@3VCDPSrvr@@A ; g_DPSrvr
  0019d	e8 00 00 00 00	 call	 ?PutItemLog@CDPSrvr@@QAEXPAVCUser@@PBD1PAVCItemElem@@H@Z ; CDPSrvr::PutItemLog

; 2162 : 	pUser->RemoveItem( (BYTE)( objIdVis ), 1 );

  001a2	6a 01		 push	 1
  001a4	ff 75 0c	 push	 DWORD PTR _objIdVis$[ebp]
  001a7	8b cf		 mov	 ecx, edi
  001a9	e8 00 00 00 00	 call	 ?RemoveItem@CMover@@QAEXEF@Z ; CMover::RemoveItem

; 2163 : 	pUser->SetPetVisDST( pItemElemPet );

  001ae	53		 push	 ebx
  001af	8b cf		 mov	 ecx, edi
  001b1	e8 00 00 00 00	 call	 ?SetPetVisDST@CMover@@QAEXPAVCItemElem@@@Z ; CMover::SetPetVisDST

; 2164 : 	ChangeVisPetSfx( pUser, pItemElemPet );

  001b6	53		 push	 ebx
  001b7	57		 push	 edi
  001b8	8b ce		 mov	 ecx, esi
  001ba	e8 00 00 00 00	 call	 ?ChangeVisPetSfx@CItemUpgrade@@QAEXPAVCUser@@PAVCItemElem@@@Z ; CItemUpgrade::ChangeVisPetSfx
  001bf	5e		 pop	 esi
  001c0	5b		 pop	 ebx
  001c1	5f		 pop	 edi

; 2165 : }

  001c2	8b e5		 mov	 esp, ebp
  001c4	5d		 pop	 ebp
  001c5	c2 08 00	 ret	 8
$LN29@SetPetVisI:

; 2134 : 		{
; 2135 : 			pUser->AddDefinedText( TID_GAME_BUFFPET_EQUIPVIS );

  001c8	68 7f 10 00 00	 push	 4223			; 0000107fH

; 2144 : 	{
; 2145 : 		pUser->AddDefinedText( TID_GAME_BUFFPET_LACKSLOT );

  001cd	8b cf		 mov	 ecx, edi
  001cf	e8 00 00 00 00	 call	 ?AddDefinedText@CUser@@QAEXH@Z ; CUser::AddDefinedText
  001d4	5e		 pop	 esi
  001d5	5b		 pop	 ebx
  001d6	5f		 pop	 edi

; 2165 : }

  001d7	8b e5		 mov	 esp, ebp
  001d9	5d		 pop	 ebp
  001da	c2 08 00	 ret	 8
$LN33@SetPetVisI:

; 2144 : 	{
; 2145 : 		pUser->AddDefinedText( TID_GAME_BUFFPET_LACKSLOT );

  001dd	68 7e 10 00 00	 push	 4222			; 0000107eH
  001e2	8b cf		 mov	 ecx, edi
  001e4	e8 00 00 00 00	 call	 ?AddDefinedText@CUser@@QAEXH@Z ; CUser::AddDefinedText
$LN48@SetPetVisI:
  001e9	5e		 pop	 esi
  001ea	5b		 pop	 ebx
$LN1@SetPetVisI:
  001eb	5f		 pop	 edi

; 2165 : }

  001ec	8b e5		 mov	 esp, ebp
  001ee	5d		 pop	 ebp
  001ef	c2 08 00	 ret	 8
?SetPetVisItem@CItemUpgrade@@QAEXPAVCUser@@K@Z ENDP	; CItemUpgrade::SetPetVisItem
_TEXT	ENDS
; Function compile flags: /Ogtp
; File C:\IAGOS\server\v18\Source\Source\WorldServer\ItemUpgrade.cpp
; File C:\IAGOS\server\v18\Source\Source\_Common\Obj.h
; File C:\IAGOS\server\v18\Source\Source\_Common\Mover.h
; File C:\IAGOS\server\v18\Source\Source\WorldServer\ItemUpgrade.cpp
; File C:\IAGOS\server\v18\Source\Source\_Common\Item.h
; File C:\IAGOS\server\v18\Source\Source\WorldServer\ItemUpgrade.cpp
;	COMDAT ?PetVisSize@CItemUpgrade@@QAEXPAVCUser@@K@Z
_TEXT	SEGMENT
_pUser$ = 8						; size = 4
_objIdMaterial$ = 12					; size = 4
?PetVisSize@CItemUpgrade@@QAEXPAVCUser@@K@Z PROC	; CItemUpgrade::PetVisSize, COMDAT
; _this$ = ecx

; 2071 : {

  00000	55		 push	 ebp
  00001	8b ec		 mov	 ebp, esp
  00003	57		 push	 edi
; File C:\IAGOS\server\v18\Source\Source\_Common\Obj.h

; 327  : 	return pObj && ( pObj->IsDelete() == FALSE ); 

  00004	8b 7d 08	 mov	 edi, DWORD PTR _pUser$[ebp]
  00007	85 ff		 test	 edi, edi
  00009	0f 84 21 01 00
	00		 je	 $LN1@PetVisSize

; 180  : 	BOOL			IsDelete()	{ return (m_dwFlags & OBJ_FLAG_DELETE);  }

  0000f	f6 47 04 01	 test	 BYTE PTR [edi+4], 1

; 327  : 	return pObj && ( pObj->IsDelete() == FALSE ); 

  00013	0f 85 17 01 00
	00		 jne	 $LN1@PetVisSize
  00019	53		 push	 ebx
  0001a	56		 push	 esi
; File C:\IAGOS\server\v18\Source\Source\_Common\Mover.h

; 823  : 	CItemElem*	GetVisPetItem( void )	{ return m_Inventory.GetAtId( m_objIdVisPet ); }

  0001b	ff b7 a0 10 00
	00		 push	 DWORD PTR [edi+4256]
  00021	8d 8f fc 0a 00
	00		 lea	 ecx, DWORD PTR [edi+2812]
  00027	e8 00 00 00 00	 call	 ?GetAtId@?$CItemContainer@VCItemElem@@@@QAEPAVCItemElem@@K@Z ; CItemContainer<CItemElem>::GetAtId
; File C:\IAGOS\server\v18\Source\Source\WorldServer\ItemUpgrade.cpp

; 2076 : 	CItemElem* pItemElemMaterial = pUser->m_Inventory.GetAtId( objIdMaterial );

  0002c	ff 75 0c	 push	 DWORD PTR _objIdMaterial$[ebp]
  0002f	8d 8f fc 0a 00
	00		 lea	 ecx, DWORD PTR [edi+2812]
  00035	8b d8		 mov	 ebx, eax
  00037	e8 00 00 00 00	 call	 ?GetAtId@?$CItemContainer@VCItemElem@@@@QAEPAVCItemElem@@K@Z ; CItemContainer<CItemElem>::GetAtId

; 2077 : 
; 2078 : 	if( !IsUsableItem( pItemElemPet ) || !pItemElemPet->IsVisPet() )

  0003c	53		 push	 ebx
  0003d	8b f0		 mov	 esi, eax
  0003f	e8 00 00 00 00	 call	 ?IsUsableItem@@YAHPAVCItemBase@@@Z ; IsUsableItem
  00044	83 c4 04	 add	 esp, 4
  00047	85 c0		 test	 eax, eax
  00049	0f 84 d3 00 00
	00		 je	 $LN4@PetVisSize
  0004f	8b cb		 mov	 ecx, ebx
  00051	e8 00 00 00 00	 call	 ?IsVisPet@CItemElem@@QAEHXZ ; CItemElem::IsVisPet
  00056	85 c0		 test	 eax, eax
  00058	0f 84 c4 00 00
	00		 je	 $LN4@PetVisSize

; 2081 : 		return;
; 2082 : 	}
; 2083 : 
; 2084 : 	if( !IsUsableItem( pItemElemMaterial ) )

  0005e	56		 push	 esi
  0005f	e8 00 00 00 00	 call	 ?IsUsableItem@@YAHPAVCItemBase@@@Z ; IsUsableItem
  00064	83 c4 04	 add	 esp, 4
  00067	85 c0		 test	 eax, eax
  00069	0f 84 bf 00 00
	00		 je	 $LN29@PetVisSize

; 2085 : 		return;
; 2086 : 
; 2087 : 	if( pItemElemMaterial->m_dwItemId != II_SYS_SYS_VIS_KEY01 )

  0006f	81 7e 0c e7 68
	00 00		 cmp	 DWORD PTR [esi+12], 26855 ; 000068e7H
  00076	0f 85 b2 00 00
	00		 jne	 $LN29@PetVisSize

; 2088 : 		return;
; 2089 : 
; 2090 : 
; 2091 : 	if( !pItemElemPet->IsPierceAble( NULL_ID, TRUE ) ) // ║±Į║ ĮĮĘį ╚«└Õ ░Ī┤╔ ░╦╗ń

  0007c	6a 01		 push	 1
  0007e	6a ff		 push	 -1
  00080	8b cb		 mov	 ecx, ebx
  00082	e8 00 00 00 00	 call	 ?IsPierceAble@CItemElem@@QAEHKH@Z ; CItemElem::IsPierceAble
  00087	85 c0		 test	 eax, eax
  00089	75 13		 jne	 SHORT $LN7@PetVisSize

; 2092 : 	{
; 2093 : 		pUser->AddDefinedText( TID_GAME_BUFFPET_EXPANSION );

  0008b	68 84 10 00 00	 push	 4228			; 00001084H
  00090	8b cf		 mov	 ecx, edi
  00092	e8 00 00 00 00	 call	 ?AddDefinedText@CUser@@QAEXH@Z ; CUser::AddDefinedText
  00097	5e		 pop	 esi
  00098	5b		 pop	 ebx
  00099	5f		 pop	 edi

; 2103 : }

  0009a	5d		 pop	 ebp
  0009b	c2 08 00	 ret	 8
$LN7@PetVisSize:

; 2094 : 		return;
; 2095 : 	}
; 2096 : 		
; 2097 : 	g_DPSrvr.PutItemLog( pUser, "!", "VIS_SLOT_MATERIAL", pItemElemMaterial );

  0009e	6a 00		 push	 0
  000a0	56		 push	 esi
  000a1	68 00 00 00 00	 push	 OFFSET ??_C@_0BC@HAKKJLBB@VIS_SLOT_MATERIAL@
  000a6	68 00 00 00 00	 push	 OFFSET ??_C@_01DCLJPIOD@?$CB@
  000ab	57		 push	 edi
  000ac	b9 00 00 00 00	 mov	 ecx, OFFSET ?g_DPSrvr@@3VCDPSrvr@@A ; g_DPSrvr
  000b1	e8 00 00 00 00	 call	 ?PutItemLog@CDPSrvr@@QAEXPAVCUser@@PBD1PAVCItemElem@@H@Z ; CDPSrvr::PutItemLog

; 2098 : 	if( pItemElemMaterial->m_bCharged )

  000b6	83 be a4 00 00
	00 00		 cmp	 DWORD PTR [esi+164], 0
  000bd	74 1e		 je	 SHORT $LN8@PetVisSize

; 2099 : 		g_dpDBClient.SendLogSMItemUse( "1", pUser, pItemElemMaterial, pItemElemMaterial->GetProp() );	

  000bf	68 00 00 00 00	 push	 OFFSET ??_C@_00CNPNBAHC@@
  000c4	8b ce		 mov	 ecx, esi
  000c6	e8 00 00 00 00	 call	 ?GetPropA@CItemElem@@QAEPAUItemProp@@XZ ; CItemElem::GetPropA
  000cb	50		 push	 eax
  000cc	56		 push	 esi
  000cd	57		 push	 edi
  000ce	68 00 00 00 00	 push	 OFFSET ??_C@_01HIHLOKLC@1@
  000d3	b9 00 00 00 00	 mov	 ecx, OFFSET ?g_dpDBClient@@3VCDPDatabaseClient@@A ; g_dpDBClient
  000d8	e8 00 00 00 00	 call	 ?SendLogSMItemUse@CDPDatabaseClient@@QAEXPBDPAVCUser@@PAVCItemElem@@PAUItemProp@@0@Z ; CDPDatabaseClient::SendLogSMItemUse
$LN8@PetVisSize:
; File C:\IAGOS\server\v18\Source\Source\_Common\Item.h

; 103  : 	int		GetPiercingSize()	{	return m_piercing.GetPiercingSize();		}

  000dd	8d 4b 3c	 lea	 ecx, DWORD PTR [ebx+60]
  000e0	e8 00 00 00 00	 call	 ?GetPiercingSize@CPiercing@@QAEHXZ ; CPiercing::GetPiercingSize
; File C:\IAGOS\server\v18\Source\Source\WorldServer\ItemUpgrade.cpp

; 2100 : 	pUser->UpdateItem( (BYTE)( pItemElemPet->m_dwObjId ), UI_PETVIS_SIZE, pItemElemPet->GetPiercingSize() + 1 );

  000e5	6a 00		 push	 0
  000e7	40		 inc	 eax
  000e8	8b cf		 mov	 ecx, edi
  000ea	50		 push	 eax
  000eb	0f b6 43 04	 movzx	 eax, BYTE PTR [ebx+4]
  000ef	6a 0f		 push	 15			; 0000000fH
  000f1	50		 push	 eax
  000f2	e8 00 00 00 00	 call	 ?UpdateItem@CMover@@QAEXEDKK@Z ; CMover::UpdateItem

; 2101 : 	g_DPSrvr.PutItemLog( pUser, "#", "VIS_SLOT_SIZE", pItemElemPet );

  000f7	6a 00		 push	 0
  000f9	53		 push	 ebx
  000fa	68 00 00 00 00	 push	 OFFSET ??_C@_0O@KOMGOEFL@VIS_SLOT_SIZE@
  000ff	68 00 00 00 00	 push	 OFFSET ??_C@_01IPJKGB@?$CD@
  00104	57		 push	 edi
  00105	b9 00 00 00 00	 mov	 ecx, OFFSET ?g_DPSrvr@@3VCDPSrvr@@A ; g_DPSrvr
  0010a	e8 00 00 00 00	 call	 ?PutItemLog@CDPSrvr@@QAEXPAVCUser@@PBD1PAVCItemElem@@H@Z ; CDPSrvr::PutItemLog

; 2102 : 	pUser->RemoveItem( (BYTE)( objIdMaterial ), 1 );

  0010f	6a 01		 push	 1
  00111	ff 75 0c	 push	 DWORD PTR _objIdMaterial$[ebp]
  00114	8b cf		 mov	 ecx, edi
  00116	e8 00 00 00 00	 call	 ?RemoveItem@CMover@@QAEXEF@Z ; CMover::RemoveItem
  0011b	5e		 pop	 esi
  0011c	5b		 pop	 ebx
  0011d	5f		 pop	 edi

; 2103 : }

  0011e	5d		 pop	 ebp
  0011f	c2 08 00	 ret	 8
$LN4@PetVisSize:

; 2079 : 	{
; 2080 : 		pUser->AddDefinedText( TID_GAME_BUFFPET_NOSUMMON02 );	

  00122	68 83 10 00 00	 push	 4227			; 00001083H
  00127	8b cf		 mov	 ecx, edi
  00129	e8 00 00 00 00	 call	 ?AddDefinedText@CUser@@QAEXH@Z ; CUser::AddDefinedText
$LN29@PetVisSize:
  0012e	5e		 pop	 esi
  0012f	5b		 pop	 ebx
$LN1@PetVisSize:
  00130	5f		 pop	 edi

; 2103 : }

  00131	5d		 pop	 ebp
  00132	c2 08 00	 ret	 8
?PetVisSize@CItemUpgrade@@QAEXPAVCUser@@K@Z ENDP	; CItemUpgrade::PetVisSize
_TEXT	ENDS
; Function compile flags: /Ogtp
; File C:\IAGOS\server\v18\Source\Source\WorldServer\ItemUpgrade.cpp
;	COMDAT ?CreateBarunaPiercing@CItemUpgrade@@QAEXPAVCUser@@PAVCItemElem@@111@Z
_TEXT	SEGMENT
_pUser$ = 8						; size = 4
_pItemMain$ = 12					; size = 4
_pRune$ = 16						; size = 4
_pScroll$ = 20						; size = 4
_pCrystal$ = 24						; size = 4
?CreateBarunaPiercing@CItemUpgrade@@QAEXPAVCUser@@PAVCItemElem@@111@Z PROC ; CItemUpgrade::CreateBarunaPiercing, COMDAT
; _this$ = ecx

; 1631 : 	return;
; 1632 : }

  00000	c2 14 00	 ret	 20			; 00000014H
?CreateBarunaPiercing@CItemUpgrade@@QAEXPAVCUser@@PAVCItemElem@@111@Z ENDP ; CItemUpgrade::CreateBarunaPiercing
_TEXT	ENDS
; Function compile flags: /Ogtp
;	COMDAT ??1?$map@HU__CHAOS_GEM@@U?$less@H@std@@V?$allocator@U?$pair@$$CBHU__CHAOS_GEM@@@std@@@3@@std@@QAE@XZ
_TEXT	SEGMENT
??1?$map@HU__CHAOS_GEM@@U?$less@H@std@@V?$allocator@U?$pair@$$CBHU__CHAOS_GEM@@@std@@@3@@std@@QAE@XZ PROC ; std::map<int,__CHAOS_GEM,std::less<int>,std::allocator<std::pair<int const ,__CHAOS_GEM> > >::~map<int,__CHAOS_GEM,std::less<int>,std::allocator<std::pair<int const ,__CHAOS_GEM> > >, COMDAT
; _this$ = ecx
  00000	e9 00 00 00 00	 jmp	 ??1?$_Tree@V?$_Tmap_traits@HU__CHAOS_GEM@@U?$less@H@std@@V?$allocator@U?$pair@$$CBHU__CHAOS_GEM@@@std@@@3@$0A@@std@@@std@@QAE@XZ ; std::_Tree<std::_Tmap_traits<int,__CHAOS_GEM,std::less<int>,std::allocator<std::pair<int const ,__CHAOS_GEM> >,0> >::~_Tree<std::_Tmap_traits<int,__CHAOS_GEM,std::less<int>,std::allocator<std::pair<int const ,__CHAOS_GEM> >,0> >
??1?$map@HU__CHAOS_GEM@@U?$less@H@std@@V?$allocator@U?$pair@$$CBHU__CHAOS_GEM@@@std@@@3@@std@@QAE@XZ ENDP ; std::map<int,__CHAOS_GEM,std::less<int>,std::allocator<std::pair<int const ,__CHAOS_GEM> > >::~map<int,__CHAOS_GEM,std::less<int>,std::allocator<std::pair<int const ,__CHAOS_GEM> > >
_TEXT	ENDS
; Function compile flags: /Ogtp
; File C:\Program Files\Microsoft Visual Studio\2022\Professional\VC\Tools\MSVC\14.44.35207\include\xtree
;	COMDAT ?_Insert_node@?$_Tree_val@U?$_Tree_simple_types@U?$pair@$$CBHU__CHAOS_GEM@@@std@@@std@@@std@@QAEPAU?$_Tree_node@U?$pair@$$CBHU__CHAOS_GEM@@@std@@PAX@2@U?$_Tree_id@PAU?$_Tree_node@U?$pair@$$CBHU__CHAOS_GEM@@@std@@PAX@std@@@2@QAU32@@Z
_TEXT	SEGMENT
__Head$1$ = -4						; size = 4
__Loc$ = 8						; size = 8
__Newnode$ = 16						; size = 4
?_Insert_node@?$_Tree_val@U?$_Tree_simple_types@U?$pair@$$CBHU__CHAOS_GEM@@@std@@@std@@@std@@QAEPAU?$_Tree_node@U?$pair@$$CBHU__CHAOS_GEM@@@std@@PAX@2@U?$_Tree_id@PAU?$_Tree_node@U?$pair@$$CBHU__CHAOS_GEM@@@std@@PAX@std@@@2@QAU32@@Z PROC ; std::_Tree_val<std::_Tree_simple_types<std::pair<int const ,__CHAOS_GEM> > >::_Insert_node, COMDAT
; _this$ = ecx

; 669  :     _Nodeptr _Insert_node(const _Tree_id<_Nodeptr> _Loc, const _Nodeptr _Newnode) noexcept {

  00000	55		 push	 ebp
  00001	8b ec		 mov	 ebp, esp
  00003	51		 push	 ecx

; 670  :         ++_Mysize;
; 671  :         const auto _Head  = _Myhead;
; 672  :         _Newnode->_Parent = _Loc._Parent;

  00004	8b 55 08	 mov	 edx, DWORD PTR __Loc$[ebp]
  00007	53		 push	 ebx
  00008	8b d9		 mov	 ebx, ecx
  0000a	57		 push	 edi
  0000b	8b 7d 10	 mov	 edi, DWORD PTR __Newnode$[ebp]
  0000e	8b 03		 mov	 eax, DWORD PTR [ebx]
  00010	ff 43 04	 inc	 DWORD PTR [ebx+4]
  00013	89 45 fc	 mov	 DWORD PTR __Head$1$[ebp], eax
  00016	89 57 04	 mov	 DWORD PTR [edi+4], edx

; 673  :         if (_Loc._Parent == _Head) { // first node in tree, just set head values

  00019	3b d0		 cmp	 edx, eax
  0001b	75 16		 jne	 SHORT $LN5@Insert_nod

; 674  :             _Head->_Left     = _Newnode;

  0001d	89 38		 mov	 DWORD PTR [eax], edi

; 675  :             _Head->_Parent   = _Newnode;

  0001f	89 78 04	 mov	 DWORD PTR [eax+4], edi

; 676  :             _Head->_Right    = _Newnode;

  00022	89 78 08	 mov	 DWORD PTR [eax+8], edi

; 735  :         return _Newnode;
; 736  :     }

  00025	8b c7		 mov	 eax, edi
  00027	c6 47 0c 01	 mov	 BYTE PTR [edi+12], 1
  0002b	5f		 pop	 edi
  0002c	5b		 pop	 ebx
  0002d	8b e5		 mov	 esp, ebp
  0002f	5d		 pop	 ebp
  00030	c2 0c 00	 ret	 12			; 0000000cH
$LN5@Insert_nod:

; 677  :             _Newnode->_Color = _Black; // the root is black
; 678  :             return _Newnode;
; 679  :         }
; 680  : 
; 681  :         _STL_INTERNAL_CHECK(_Loc._Child != _Tree_child::_Unused);
; 682  :         if (_Loc._Child == _Tree_child::_Right) { // add to right of _Loc._Parent

  00033	83 7d 0c 00	 cmp	 DWORD PTR __Loc$[ebp+4], 0
  00037	75 0d		 jne	 SHORT $LN6@Insert_nod

; 683  :             _STL_INTERNAL_CHECK(_Loc._Parent->_Right->_Isnil);
; 684  :             _Loc._Parent->_Right = _Newnode;

  00039	89 7a 08	 mov	 DWORD PTR [edx+8], edi

; 685  :             if (_Loc._Parent == _Head->_Right) { // remember rightmost node

  0003c	3b 50 08	 cmp	 edx, DWORD PTR [eax+8]
  0003f	75 0d		 jne	 SHORT $LN9@Insert_nod

; 686  :                 _Head->_Right = _Newnode;

  00041	89 78 08	 mov	 DWORD PTR [eax+8], edi

; 687  :             }
; 688  :         } else { // add to left of _Loc._Parent

  00044	eb 08		 jmp	 SHORT $LN9@Insert_nod
$LN6@Insert_nod:

; 689  :             _STL_INTERNAL_CHECK(_Loc._Parent->_Left->_Isnil);
; 690  :             _Loc._Parent->_Left = _Newnode;

  00046	89 3a		 mov	 DWORD PTR [edx], edi

; 691  :             if (_Loc._Parent == _Head->_Left) { // remember leftmost node

  00048	3b 10		 cmp	 edx, DWORD PTR [eax]
  0004a	75 02		 jne	 SHORT $LN9@Insert_nod

; 692  :                 _Head->_Left = _Newnode;

  0004c	89 38		 mov	 DWORD PTR [eax], edi
$LN9@Insert_nod:

; 693  :             }
; 694  :         }
; 695  : 
; 696  :         for (_Nodeptr _Pnode = _Newnode; _Pnode->_Parent->_Color == _Red;) {

  0004e	8b 4f 04	 mov	 ecx, DWORD PTR [edi+4]
  00051	8b c7		 mov	 eax, edi
  00053	80 79 0c 00	 cmp	 BYTE PTR [ecx+12], 0
  00057	0f 85 7d 01 00
	00		 jne	 $LN3@Insert_nod
  0005d	56		 push	 esi
  0005e	66 90		 npad	 2
$LL4@Insert_nod:

; 697  :             if (_Pnode->_Parent == _Pnode->_Parent->_Parent->_Left) { // fixup red-red in left subtree

  00060	8b 50 04	 mov	 edx, DWORD PTR [eax+4]
  00063	8b 72 04	 mov	 esi, DWORD PTR [edx+4]
  00066	8b 0e		 mov	 ecx, DWORD PTR [esi]
  00068	3b d1		 cmp	 edx, ecx
  0006a	0f 85 aa 00 00
	00		 jne	 $LN10@Insert_nod

; 698  :                 const auto _Parent_sibling = _Pnode->_Parent->_Parent->_Right;

  00070	8b 4e 08	 mov	 ecx, DWORD PTR [esi+8]

; 699  :                 if (_Parent_sibling->_Color == _Red) { // parent's sibling has two red children, blacken both

  00073	80 79 0c 00	 cmp	 BYTE PTR [ecx+12], 0
  00077	0f 84 a3 00 00
	00		 je	 $LN82@Insert_nod

; 700  :                     _Pnode->_Parent->_Color          = _Black;
; 701  :                     _Parent_sibling->_Color          = _Black;
; 702  :                     _Pnode->_Parent->_Parent->_Color = _Red;
; 703  :                     _Pnode                           = _Pnode->_Parent->_Parent;
; 704  :                 } else { // parent's sibling has red and black children
; 705  :                     if (_Pnode == _Pnode->_Parent->_Right) { // rotate right child to left

  0007d	8b 72 08	 mov	 esi, DWORD PTR [edx+8]
  00080	3b c6		 cmp	 eax, esi
  00082	75 37		 jne	 SHORT $LN57@Insert_nod

; 485  :         _Wherenode->_Right = _Pnode->_Left;

  00084	8b 0e		 mov	 ecx, DWORD PTR [esi]

; 706  :                         _Pnode = _Pnode->_Parent;

  00086	8b c2		 mov	 eax, edx

; 485  :         _Wherenode->_Right = _Pnode->_Left;

  00088	89 4a 08	 mov	 DWORD PTR [edx+8], ecx

; 486  : 
; 487  :         if (!_Pnode->_Left->_Isnil) {

  0008b	8b 0e		 mov	 ecx, DWORD PTR [esi]
  0008d	80 79 0d 00	 cmp	 BYTE PTR [ecx+13], 0
  00091	75 03		 jne	 SHORT $LN21@Insert_nod

; 488  :             _Pnode->_Left->_Parent = _Wherenode;

  00093	89 41 04	 mov	 DWORD PTR [ecx+4], eax
$LN21@Insert_nod:

; 489  :         }
; 490  : 
; 491  :         _Pnode->_Parent = _Wherenode->_Parent;

  00096	8b 4a 04	 mov	 ecx, DWORD PTR [edx+4]
  00099	89 4e 04	 mov	 DWORD PTR [esi+4], ecx

; 492  : 
; 493  :         if (_Wherenode == _Myhead->_Parent) {

  0009c	8b 0b		 mov	 ecx, DWORD PTR [ebx]
  0009e	3b 41 04	 cmp	 eax, DWORD PTR [ecx+4]
  000a1	75 05		 jne	 SHORT $LN22@Insert_nod

; 494  :             _Myhead->_Parent = _Pnode;

  000a3	89 71 04	 mov	 DWORD PTR [ecx+4], esi
  000a6	eb 0e		 jmp	 SHORT $LN25@Insert_nod
$LN22@Insert_nod:

; 495  :         } else if (_Wherenode == _Wherenode->_Parent->_Left) {

  000a8	8b 4a 04	 mov	 ecx, DWORD PTR [edx+4]
  000ab	3b 01		 cmp	 eax, DWORD PTR [ecx]
  000ad	75 04		 jne	 SHORT $LN24@Insert_nod

; 496  :             _Wherenode->_Parent->_Left = _Pnode;

  000af	89 31		 mov	 DWORD PTR [ecx], esi

; 497  :         } else {

  000b1	eb 03		 jmp	 SHORT $LN25@Insert_nod
$LN24@Insert_nod:

; 498  :             _Wherenode->_Parent->_Right = _Pnode;

  000b3	89 71 08	 mov	 DWORD PTR [ecx+8], esi
$LN25@Insert_nod:

; 499  :         }
; 500  : 
; 501  :         _Pnode->_Left       = _Wherenode;

  000b6	89 06		 mov	 DWORD PTR [esi], eax

; 502  :         _Wherenode->_Parent = _Pnode;

  000b8	89 70 04	 mov	 DWORD PTR [eax+4], esi
$LN57@Insert_nod:

; 707  :                         _Lrotate(_Pnode);
; 708  :                     }
; 709  : 
; 710  :                     _Pnode->_Parent->_Color          = _Black; // propagate red up

  000bb	8b 48 04	 mov	 ecx, DWORD PTR [eax+4]
  000be	c6 41 0c 01	 mov	 BYTE PTR [ecx+12], 1

; 711  :                     _Pnode->_Parent->_Parent->_Color = _Red;

  000c2	8b 48 04	 mov	 ecx, DWORD PTR [eax+4]
  000c5	8b 49 04	 mov	 ecx, DWORD PTR [ecx+4]
  000c8	c6 41 0c 00	 mov	 BYTE PTR [ecx+12], 0

; 712  :                     _Rrotate(_Pnode->_Parent->_Parent);

  000cc	8b 48 04	 mov	 ecx, DWORD PTR [eax+4]
  000cf	8b 51 04	 mov	 edx, DWORD PTR [ecx+4]

; 506  :         _Nodeptr _Pnode   = _Wherenode->_Left;

  000d2	8b 32		 mov	 esi, DWORD PTR [edx]

; 507  :         _Wherenode->_Left = _Pnode->_Right;

  000d4	8b 4e 08	 mov	 ecx, DWORD PTR [esi+8]
  000d7	89 0a		 mov	 DWORD PTR [edx], ecx

; 508  : 
; 509  :         if (!_Pnode->_Right->_Isnil) {

  000d9	8b 4e 08	 mov	 ecx, DWORD PTR [esi+8]
  000dc	80 79 0d 00	 cmp	 BYTE PTR [ecx+13], 0
  000e0	75 03		 jne	 SHORT $LN29@Insert_nod

; 510  :             _Pnode->_Right->_Parent = _Wherenode;

  000e2	89 51 04	 mov	 DWORD PTR [ecx+4], edx
$LN29@Insert_nod:

; 511  :         }
; 512  : 
; 513  :         _Pnode->_Parent = _Wherenode->_Parent;

  000e5	8b 4a 04	 mov	 ecx, DWORD PTR [edx+4]
  000e8	89 4e 04	 mov	 DWORD PTR [esi+4], ecx

; 514  : 
; 515  :         if (_Wherenode == _Myhead->_Parent) {

  000eb	8b 0b		 mov	 ecx, DWORD PTR [ebx]
  000ed	3b 51 04	 cmp	 edx, DWORD PTR [ecx+4]
  000f0	75 0b		 jne	 SHORT $LN30@Insert_nod

; 516  :             _Myhead->_Parent = _Pnode;

  000f2	89 71 04	 mov	 DWORD PTR [ecx+4], esi

; 521  :         }
; 522  : 
; 523  :         _Pnode->_Right      = _Wherenode;

  000f5	89 56 08	 mov	 DWORD PTR [esi+8], edx

; 713  :                 }
; 714  :             } else { // fixup red-red in right subtree

  000f8	e9 cc 00 00 00	 jmp	 $LN81@Insert_nod
$LN30@Insert_nod:

; 517  :         } else if (_Wherenode == _Wherenode->_Parent->_Right) {

  000fd	8b 4a 04	 mov	 ecx, DWORD PTR [edx+4]
  00100	3b 51 08	 cmp	 edx, DWORD PTR [ecx+8]
  00103	75 0b		 jne	 SHORT $LN32@Insert_nod

; 518  :             _Wherenode->_Parent->_Right = _Pnode;

  00105	89 71 08	 mov	 DWORD PTR [ecx+8], esi

; 521  :         }
; 522  : 
; 523  :         _Pnode->_Right      = _Wherenode;

  00108	89 56 08	 mov	 DWORD PTR [esi+8], edx

; 713  :                 }
; 714  :             } else { // fixup red-red in right subtree

  0010b	e9 b9 00 00 00	 jmp	 $LN81@Insert_nod
$LN32@Insert_nod:

; 520  :             _Wherenode->_Parent->_Left = _Pnode;

  00110	89 31		 mov	 DWORD PTR [ecx], esi

; 521  :         }
; 522  : 
; 523  :         _Pnode->_Right      = _Wherenode;

  00112	89 56 08	 mov	 DWORD PTR [esi+8], edx

; 713  :                 }
; 714  :             } else { // fixup red-red in right subtree

  00115	e9 af 00 00 00	 jmp	 $LN81@Insert_nod
$LN10@Insert_nod:

; 715  :                 const auto _Parent_sibling = _Pnode->_Parent->_Parent->_Left;
; 716  :                 if (_Parent_sibling->_Color == _Red) { // parent's sibling has two red children, blacken both

  0011a	80 79 0c 00	 cmp	 BYTE PTR [ecx+12], 0
  0011e	75 1d		 jne	 SHORT $LN15@Insert_nod
$LN82@Insert_nod:

; 693  :             }
; 694  :         }
; 695  : 
; 696  :         for (_Nodeptr _Pnode = _Newnode; _Pnode->_Parent->_Color == _Red;) {

  00120	c6 42 0c 01	 mov	 BYTE PTR [edx+12], 1
  00124	c6 41 0c 01	 mov	 BYTE PTR [ecx+12], 1
  00128	8b 48 04	 mov	 ecx, DWORD PTR [eax+4]
  0012b	8b 49 04	 mov	 ecx, DWORD PTR [ecx+4]
  0012e	c6 41 0c 00	 mov	 BYTE PTR [ecx+12], 0
  00132	8b 48 04	 mov	 ecx, DWORD PTR [eax+4]
  00135	8b 41 04	 mov	 eax, DWORD PTR [ecx+4]
  00138	e9 8f 00 00 00	 jmp	 $LN2@Insert_nod
$LN15@Insert_nod:

; 717  :                     _Pnode->_Parent->_Color          = _Black;
; 718  :                     _Parent_sibling->_Color          = _Black;
; 719  :                     _Pnode->_Parent->_Parent->_Color = _Red;
; 720  :                     _Pnode                           = _Pnode->_Parent->_Parent;
; 721  :                 } else { // parent's sibling has red and black children
; 722  :                     if (_Pnode == _Pnode->_Parent->_Left) { // rotate left child to right

  0013d	8b 32		 mov	 esi, DWORD PTR [edx]
  0013f	3b c6		 cmp	 eax, esi
  00141	75 3a		 jne	 SHORT $LN42@Insert_nod

; 507  :         _Wherenode->_Left = _Pnode->_Right;

  00143	8b 4e 08	 mov	 ecx, DWORD PTR [esi+8]

; 723  :                         _Pnode = _Pnode->_Parent;

  00146	8b c2		 mov	 eax, edx

; 507  :         _Wherenode->_Left = _Pnode->_Right;

  00148	89 08		 mov	 DWORD PTR [eax], ecx

; 508  : 
; 509  :         if (!_Pnode->_Right->_Isnil) {

  0014a	8b 4e 08	 mov	 ecx, DWORD PTR [esi+8]
  0014d	80 79 0d 00	 cmp	 BYTE PTR [ecx+13], 0
  00151	75 03		 jne	 SHORT $LN37@Insert_nod

; 510  :             _Pnode->_Right->_Parent = _Wherenode;

  00153	89 41 04	 mov	 DWORD PTR [ecx+4], eax
$LN37@Insert_nod:

; 511  :         }
; 512  : 
; 513  :         _Pnode->_Parent = _Wherenode->_Parent;

  00156	8b 4a 04	 mov	 ecx, DWORD PTR [edx+4]
  00159	89 4e 04	 mov	 DWORD PTR [esi+4], ecx

; 514  : 
; 515  :         if (_Wherenode == _Myhead->_Parent) {

  0015c	8b 0b		 mov	 ecx, DWORD PTR [ebx]
  0015e	3b 41 04	 cmp	 eax, DWORD PTR [ecx+4]
  00161	75 05		 jne	 SHORT $LN38@Insert_nod

; 516  :             _Myhead->_Parent = _Pnode;

  00163	89 71 04	 mov	 DWORD PTR [ecx+4], esi
  00166	eb 0f		 jmp	 SHORT $LN41@Insert_nod
$LN38@Insert_nod:

; 517  :         } else if (_Wherenode == _Wherenode->_Parent->_Right) {

  00168	8b 4a 04	 mov	 ecx, DWORD PTR [edx+4]
  0016b	3b 41 08	 cmp	 eax, DWORD PTR [ecx+8]
  0016e	75 05		 jne	 SHORT $LN40@Insert_nod

; 518  :             _Wherenode->_Parent->_Right = _Pnode;

  00170	89 71 08	 mov	 DWORD PTR [ecx+8], esi

; 519  :         } else {

  00173	eb 02		 jmp	 SHORT $LN41@Insert_nod
$LN40@Insert_nod:

; 520  :             _Wherenode->_Parent->_Left = _Pnode;

  00175	89 31		 mov	 DWORD PTR [ecx], esi
$LN41@Insert_nod:

; 521  :         }
; 522  : 
; 523  :         _Pnode->_Right      = _Wherenode;

  00177	89 46 08	 mov	 DWORD PTR [esi+8], eax

; 524  :         _Wherenode->_Parent = _Pnode;

  0017a	89 70 04	 mov	 DWORD PTR [eax+4], esi
$LN42@Insert_nod:

; 724  :                         _Rrotate(_Pnode);
; 725  :                     }
; 726  : 
; 727  :                     _Pnode->_Parent->_Color          = _Black; // propagate red up

  0017d	8b 48 04	 mov	 ecx, DWORD PTR [eax+4]
  00180	c6 41 0c 01	 mov	 BYTE PTR [ecx+12], 1

; 728  :                     _Pnode->_Parent->_Parent->_Color = _Red;

  00184	8b 48 04	 mov	 ecx, DWORD PTR [eax+4]
  00187	8b 49 04	 mov	 ecx, DWORD PTR [ecx+4]
  0018a	c6 41 0c 00	 mov	 BYTE PTR [ecx+12], 0

; 729  :                     _Lrotate(_Pnode->_Parent->_Parent);

  0018e	8b 48 04	 mov	 ecx, DWORD PTR [eax+4]
  00191	8b 51 04	 mov	 edx, DWORD PTR [ecx+4]

; 484  :         _Nodeptr _Pnode    = _Wherenode->_Right;

  00194	8b 72 08	 mov	 esi, DWORD PTR [edx+8]

; 485  :         _Wherenode->_Right = _Pnode->_Left;

  00197	8b 0e		 mov	 ecx, DWORD PTR [esi]
  00199	89 4a 08	 mov	 DWORD PTR [edx+8], ecx

; 486  : 
; 487  :         if (!_Pnode->_Left->_Isnil) {

  0019c	8b 0e		 mov	 ecx, DWORD PTR [esi]
  0019e	80 79 0d 00	 cmp	 BYTE PTR [ecx+13], 0
  001a2	75 03		 jne	 SHORT $LN45@Insert_nod

; 488  :             _Pnode->_Left->_Parent = _Wherenode;

  001a4	89 51 04	 mov	 DWORD PTR [ecx+4], edx
$LN45@Insert_nod:

; 489  :         }
; 490  : 
; 491  :         _Pnode->_Parent = _Wherenode->_Parent;

  001a7	8b 4a 04	 mov	 ecx, DWORD PTR [edx+4]
  001aa	89 4e 04	 mov	 DWORD PTR [esi+4], ecx

; 492  : 
; 493  :         if (_Wherenode == _Myhead->_Parent) {

  001ad	8b 0b		 mov	 ecx, DWORD PTR [ebx]
  001af	3b 51 04	 cmp	 edx, DWORD PTR [ecx+4]
  001b2	75 05		 jne	 SHORT $LN46@Insert_nod

; 494  :             _Myhead->_Parent = _Pnode;

  001b4	89 71 04	 mov	 DWORD PTR [ecx+4], esi
  001b7	eb 0e		 jmp	 SHORT $LN49@Insert_nod
$LN46@Insert_nod:

; 495  :         } else if (_Wherenode == _Wherenode->_Parent->_Left) {

  001b9	8b 4a 04	 mov	 ecx, DWORD PTR [edx+4]
  001bc	3b 11		 cmp	 edx, DWORD PTR [ecx]
  001be	75 04		 jne	 SHORT $LN48@Insert_nod

; 496  :             _Wherenode->_Parent->_Left = _Pnode;

  001c0	89 31		 mov	 DWORD PTR [ecx], esi

; 497  :         } else {

  001c2	eb 03		 jmp	 SHORT $LN49@Insert_nod
$LN48@Insert_nod:

; 498  :             _Wherenode->_Parent->_Right = _Pnode;

  001c4	89 71 08	 mov	 DWORD PTR [ecx+8], esi
$LN49@Insert_nod:

; 499  :         }
; 500  : 
; 501  :         _Pnode->_Left       = _Wherenode;

  001c7	89 16		 mov	 DWORD PTR [esi], edx
$LN81@Insert_nod:

; 693  :             }
; 694  :         }
; 695  : 
; 696  :         for (_Nodeptr _Pnode = _Newnode; _Pnode->_Parent->_Color == _Red;) {

  001c9	89 72 04	 mov	 DWORD PTR [edx+4], esi
$LN2@Insert_nod:
  001cc	8b 48 04	 mov	 ecx, DWORD PTR [eax+4]
  001cf	80 79 0c 00	 cmp	 BYTE PTR [ecx+12], 0
  001d3	0f 84 87 fe ff
	ff		 je	 $LL4@Insert_nod
  001d9	5e		 pop	 esi
$LN3@Insert_nod:

; 730  :                 }
; 731  :             }
; 732  :         }
; 733  : 
; 734  :         _Head->_Parent->_Color = _Black; // root is always black

  001da	8b 45 fc	 mov	 eax, DWORD PTR __Head$1$[ebp]
  001dd	8b 40 04	 mov	 eax, DWORD PTR [eax+4]
  001e0	c6 40 0c 01	 mov	 BYTE PTR [eax+12], 1

; 735  :         return _Newnode;
; 736  :     }

  001e4	8b c7		 mov	 eax, edi
  001e6	5f		 pop	 edi
  001e7	5b		 pop	 ebx
  001e8	8b e5		 mov	 esp, ebp
  001ea	5d		 pop	 ebp
  001eb	c2 0c 00	 ret	 12			; 0000000cH
?_Insert_node@?$_Tree_val@U?$_Tree_simple_types@U?$pair@$$CBHU__CHAOS_GEM@@@std@@@std@@@std@@QAEPAU?$_Tree_node@U?$pair@$$CBHU__CHAOS_GEM@@@std@@PAX@2@U?$_Tree_id@PAU?$_Tree_node@U?$pair@$$CBHU__CHAOS_GEM@@@std@@PAX@std@@@2@QAU32@@Z ENDP ; std::_Tree_val<std::_Tree_simple_types<std::pair<int const ,__CHAOS_GEM> > >::_Insert_node
_TEXT	ENDS
; Function compile flags: /Ogtp
; File C:\Program Files\Microsoft Visual Studio\2022\Professional\VC\Tools\MSVC\14.44.35207\include\xtree
; File C:\Program Files\Microsoft Visual Studio\2022\Professional\VC\Tools\MSVC\14.44.35207\include\utility
; File C:\Program Files\Microsoft Visual Studio\2022\Professional\VC\Tools\MSVC\14.44.35207\include\xmemory
; File C:\Program Files\Microsoft Visual Studio\2022\Professional\VC\Tools\MSVC\14.44.35207\include\xtree
; File C:\Program Files\Microsoft Visual Studio\2022\Professional\VC\Tools\MSVC\14.44.35207\include\xmemory
; File C:\Program Files\Microsoft Visual Studio\2022\Professional\VC\Tools\MSVC\14.44.35207\include\xtree
;	COMDAT ??1?$_Tree@V?$_Tmap_traits@HU__CHAOS_GEM@@U?$less@H@std@@V?$allocator@U?$pair@$$CBHU__CHAOS_GEM@@@std@@@3@$0A@@std@@@std@@QAE@XZ
_TEXT	SEGMENT
??1?$_Tree@V?$_Tmap_traits@HU__CHAOS_GEM@@U?$less@H@std@@V?$allocator@U?$pair@$$CBHU__CHAOS_GEM@@@std@@@3@$0A@@std@@@std@@QAE@XZ PROC ; std::_Tree<std::_Tmap_traits<int,__CHAOS_GEM,std::less<int>,std::allocator<std::pair<int const ,__CHAOS_GEM> >,0> >::~_Tree<std::_Tmap_traits<int,__CHAOS_GEM,std::less<int>,std::allocator<std::pair<int const ,__CHAOS_GEM> >,0> >, COMDAT
; _this$ = ecx

; 1095 :     ~_Tree() noexcept {

  00000	56		 push	 esi
  00001	57		 push	 edi
  00002	8b f9		 mov	 edi, ecx

; 777  :         _Erase_tree(_Al, _Myhead->_Parent);

  00004	8b 37		 mov	 esi, DWORD PTR [edi]
  00006	8b 76 04	 mov	 esi, DWORD PTR [esi+4]

; 768  :         while (!_Rootnode->_Isnil) { // free subtrees, then node

  00009	80 7e 0d 00	 cmp	 BYTE PTR [esi+13], 0
  0000d	75 21		 jne	 SHORT $LN61@Tree
  0000f	90		 npad	 1
$LL8@Tree:

; 769  :             _Erase_tree(_Al, _Rootnode->_Right);

  00010	ff 76 08	 push	 DWORD PTR [esi+8]
  00013	8b cf		 mov	 ecx, edi
  00015	57		 push	 edi
  00016	e8 00 00 00 00	 call	 ??$_Erase_tree@V?$allocator@U?$_Tree_node@U?$pair@$$CBHU__CHAOS_GEM@@@std@@PAX@std@@@std@@@?$_Tree_val@U?$_Tree_simple_types@U?$pair@$$CBHU__CHAOS_GEM@@@std@@@std@@@std@@QAEXAAV?$allocator@U?$_Tree_node@U?$pair@$$CBHU__CHAOS_GEM@@@std@@PAX@std@@@1@PAU?$_Tree_node@U?$pair@$$CBHU__CHAOS_GEM@@@std@@PAX@1@@Z ; std::_Tree_val<std::_Tree_simple_types<std::pair<int const ,__CHAOS_GEM> > >::_Erase_tree<std::allocator<std::_Tree_node<std::pair<int const ,__CHAOS_GEM>,void *> > >
; File C:\Program Files\Microsoft Visual Studio\2022\Professional\VC\Tools\MSVC\14.44.35207\include\utility

; 773  :     _Ty _Old_val = static_cast<_Ty&&>(_Val);

  0001b	8b c6		 mov	 eax, esi

; 774  :     _Val         = static_cast<_Other&&>(_New_val);

  0001d	8b 36		 mov	 esi, DWORD PTR [esi]
; File C:\Program Files\Microsoft Visual Studio\2022\Professional\VC\Tools\MSVC\14.44.35207\include\xmemory

; 289  :         ::operator delete(_Ptr, _Bytes);

  0001f	6a 24		 push	 36			; 00000024H
  00021	50		 push	 eax
  00022	e8 00 00 00 00	 call	 ??3@YAXPAXI@Z		; operator delete
  00027	83 c4 08	 add	 esp, 8
; File C:\Program Files\Microsoft Visual Studio\2022\Professional\VC\Tools\MSVC\14.44.35207\include\xtree

; 768  :         while (!_Rootnode->_Isnil) { // free subtrees, then node

  0002a	80 7e 0d 00	 cmp	 BYTE PTR [esi+13], 0
  0002e	74 e0		 je	 SHORT $LL8@Tree
$LN61@Tree:
; File C:\Program Files\Microsoft Visual Studio\2022\Professional\VC\Tools\MSVC\14.44.35207\include\xmemory

; 289  :         ::operator delete(_Ptr, _Bytes);

  00030	6a 24		 push	 36			; 00000024H
  00032	ff 37		 push	 DWORD PTR [edi]
  00034	e8 00 00 00 00	 call	 ??3@YAXPAXI@Z		; operator delete
  00039	83 c4 08	 add	 esp, 8
  0003c	5f		 pop	 edi
  0003d	5e		 pop	 esi
; File C:\Program Files\Microsoft Visual Studio\2022\Professional\VC\Tools\MSVC\14.44.35207\include\xtree

; 1102 :     }

  0003e	c3		 ret	 0
??1?$_Tree@V?$_Tmap_traits@HU__CHAOS_GEM@@U?$less@H@std@@V?$allocator@U?$pair@$$CBHU__CHAOS_GEM@@@std@@@3@$0A@@std@@@std@@QAE@XZ ENDP ; std::_Tree<std::_Tmap_traits<int,__CHAOS_GEM,std::less<int>,std::allocator<std::pair<int const ,__CHAOS_GEM> >,0> >::~_Tree<std::_Tmap_traits<int,__CHAOS_GEM,std::less<int>,std::allocator<std::pair<int const ,__CHAOS_GEM> >,0> >
_TEXT	ENDS
; Function compile flags: /Ogtp
; File C:\IAGOS\server\v18\Source\Source\WorldServer\ItemUpgrade.cpp
; File C:\Program Files\Microsoft Visual Studio\2022\Professional\VC\Tools\MSVC\14.44.35207\include\xtree
; File C:\IAGOS\server\v18\Source\Source\WorldServer\ItemUpgrade.cpp
; File C:\Program Files\Microsoft Visual Studio\2022\Professional\VC\Tools\MSVC\14.44.35207\include\xtree
; File C:\IAGOS\server\v18\Source\Source\WorldServer\ItemUpgrade.cpp
; File C:\Program Files\Microsoft Visual Studio\2022\Professional\VC\Tools\MSVC\14.44.35207\include\xtree
; File C:\IAGOS\server\v18\Source\Source\WorldServer\ItemUpgrade.cpp
; File C:\Program Files\Microsoft Visual Studio\2022\Professional\VC\Tools\MSVC\14.44.35207\include\xtree
; File C:\Program Files\Microsoft Visual Studio\2022\Professional\VC\Tools\MSVC\14.44.35207\include\type_traits
; File C:\Program Files\Microsoft Visual Studio\2022\Professional\VC\Tools\MSVC\14.44.35207\include\xtree
; File C:\IAGOS\server\v18\Source\Source\WorldServer\ItemUpgrade.cpp
;	COMDAT ?GetBarunaFailForNextLevel@CItemUpgrade@@QAEHH@Z
_TEXT	SEGMENT
__Loc$1 = -12						; size = 12
_nLevel$ = 8						; size = 4
$T2 = 8							; size = 4
?GetBarunaFailForNextLevel@CItemUpgrade@@QAEHH@Z PROC	; CItemUpgrade::GetBarunaFailForNextLevel, COMDAT
; _this$ = ecx

; 1438 : {

  00000	55		 push	 ebp
  00001	8b ec		 mov	 ebp, esp
  00003	83 ec 0c	 sub	 esp, 12			; 0000000cH
  00006	56		 push	 esi

; 1440 : 	map<int, int>::iterator it = m_mapPetFailForLevel.find( nLevel + 1 );

  00007	8b 75 08	 mov	 esi, DWORD PTR _nLevel$[ebp]
; File C:\Program Files\Microsoft Visual Studio\2022\Professional\VC\Tools\MSVC\14.44.35207\include\xtree

; 1384 :         const _Tree_find_result<_Nodeptr> _Loc = _Find_lower_bound(_Keyval);

  0000a	8d 45 08	 lea	 eax, DWORD PTR $T2[ebp]
; File C:\IAGOS\server\v18\Source\Source\WorldServer\ItemUpgrade.cpp

; 1438 : {

  0000d	57		 push	 edi
; File C:\Program Files\Microsoft Visual Studio\2022\Professional\VC\Tools\MSVC\14.44.35207\include\xtree

; 1384 :         const _Tree_find_result<_Nodeptr> _Loc = _Find_lower_bound(_Keyval);

  0000e	50		 push	 eax
; File C:\IAGOS\server\v18\Source\Source\WorldServer\ItemUpgrade.cpp

; 1440 : 	map<int, int>::iterator it = m_mapPetFailForLevel.find( nLevel + 1 );

  0000f	8d 79 38	 lea	 edi, DWORD PTR [ecx+56]
  00012	46		 inc	 esi
; File C:\Program Files\Microsoft Visual Studio\2022\Professional\VC\Tools\MSVC\14.44.35207\include\xtree

; 1384 :         const _Tree_find_result<_Nodeptr> _Loc = _Find_lower_bound(_Keyval);

  00013	8d 45 f4	 lea	 eax, DWORD PTR __Loc$1[ebp]
; File C:\IAGOS\server\v18\Source\Source\WorldServer\ItemUpgrade.cpp

; 1440 : 	map<int, int>::iterator it = m_mapPetFailForLevel.find( nLevel + 1 );

  00016	89 75 08	 mov	 DWORD PTR $T2[ebp], esi
; File C:\Program Files\Microsoft Visual Studio\2022\Professional\VC\Tools\MSVC\14.44.35207\include\xtree

; 1384 :         const _Tree_find_result<_Nodeptr> _Loc = _Find_lower_bound(_Keyval);

  00019	50		 push	 eax
  0001a	8b cf		 mov	 ecx, edi
  0001c	e8 00 00 00 00	 call	 ??$_Find_lower_bound@H@?$_Tree@V?$_Tmap_traits@HHU?$less@H@std@@V?$allocator@U?$pair@$$CBHH@std@@@2@$0A@@std@@@std@@IBE?AU?$_Tree_find_result@PAU?$_Tree_node@U?$pair@$$CBHH@std@@PAX@std@@@1@ABH@Z ; std::_Tree<std::_Tmap_traits<int,int,std::less<int>,std::allocator<std::pair<int const ,int> >,0> >::_Find_lower_bound<int>

; 1624 :         return !_Bound->_Isnil && !_DEBUG_LT_PRED(_Getcomp(), _Keyval, _Traits::_Kfn(_Bound->_Myval));

  00021	8b 45 fc	 mov	 eax, DWORD PTR __Loc$1[ebp+8]
  00024	80 78 0d 00	 cmp	 BYTE PTR [eax+13], 0
  00028	75 14		 jne	 SHORT $LN55@GetBarunaF
; File C:\Program Files\Microsoft Visual Studio\2022\Professional\VC\Tools\MSVC\14.44.35207\include\type_traits

; 2380 :         return _Left < _Right;

  0002a	3b 70 10	 cmp	 esi, DWORD PTR [eax+16]
; File C:\Program Files\Microsoft Visual Studio\2022\Professional\VC\Tools\MSVC\14.44.35207\include\xtree

; 1624 :         return !_Bound->_Isnil && !_DEBUG_LT_PRED(_Getcomp(), _Keyval, _Traits::_Kfn(_Bound->_Myval));

  0002d	7c 0f		 jl	 SHORT $LN55@GetBarunaF

; 37   :     _Tree_unchecked_const_iterator(_Nodeptr _Pnode, const _Mytree* _Plist) noexcept : _Ptr(_Pnode) {

  0002f	3b 07		 cmp	 eax, DWORD PTR [edi]
; File C:\IAGOS\server\v18\Source\Source\WorldServer\ItemUpgrade.cpp

; 1441 : 	if( it != m_mapPetFailForLevel.end() )

  00031	74 0b		 je	 SHORT $LN55@GetBarunaF

; 1442 : 		nAmount = it->second;
; 1443 : 	return nAmount;

  00033	8b 40 14	 mov	 eax, DWORD PTR [eax+20]
  00036	5f		 pop	 edi

; 1444 : }

  00037	5e		 pop	 esi
  00038	8b e5		 mov	 esp, ebp
  0003a	5d		 pop	 ebp
  0003b	c2 04 00	 ret	 4
$LN55@GetBarunaF:
  0003e	5f		 pop	 edi
  0003f	33 c0		 xor	 eax, eax
  00041	5e		 pop	 esi
  00042	8b e5		 mov	 esp, ebp
  00044	5d		 pop	 ebp
  00045	c2 04 00	 ret	 4
?GetBarunaFailForNextLevel@CItemUpgrade@@QAEHH@Z ENDP	; CItemUpgrade::GetBarunaFailForNextLevel
_TEXT	ENDS
; Function compile flags: /Ogtp
; File C:\IAGOS\server\v18\Source\Source\WorldServer\ItemUpgrade.cpp
; File C:\Program Files\Microsoft Visual Studio\2022\Professional\VC\Tools\MSVC\14.44.35207\include\xtree
; File C:\IAGOS\server\v18\Source\Source\WorldServer\ItemUpgrade.cpp
; File C:\Program Files\Microsoft Visual Studio\2022\Professional\VC\Tools\MSVC\14.44.35207\include\xtree
; File C:\IAGOS\server\v18\Source\Source\WorldServer\ItemUpgrade.cpp
; File C:\Program Files\Microsoft Visual Studio\2022\Professional\VC\Tools\MSVC\14.44.35207\include\xtree
; File C:\Program Files\Microsoft Visual Studio\2022\Professional\VC\Tools\MSVC\14.44.35207\include\type_traits
; File C:\Program Files\Microsoft Visual Studio\2022\Professional\VC\Tools\MSVC\14.44.35207\include\xtree
; File C:\IAGOS\server\v18\Source\Source\WorldServer\ItemUpgrade.cpp
;	COMDAT ?GetBarunaPetMultiplicator@CItemUpgrade@@QAEMH@Z
_TEXT	SEGMENT
__Loc$1 = -16						; size = 12
_nExtraProp$ = -4					; size = 4
_nLevel$ = 8						; size = 4
?GetBarunaPetMultiplicator@CItemUpgrade@@QAEMH@Z PROC	; CItemUpgrade::GetBarunaPetMultiplicator, COMDAT
; _this$ = ecx

; 1429 : {

  00000	55		 push	 ebp
  00001	8b ec		 mov	 ebp, esp
  00003	83 ec 10	 sub	 esp, 16			; 00000010H
  00006	56		 push	 esi
; File C:\Program Files\Microsoft Visual Studio\2022\Professional\VC\Tools\MSVC\14.44.35207\include\xtree

; 1384 :         const _Tree_find_result<_Nodeptr> _Loc = _Find_lower_bound(_Keyval);

  00007	8d 45 08	 lea	 eax, DWORD PTR _nLevel$[ebp]
; File C:\IAGOS\server\v18\Source\Source\WorldServer\ItemUpgrade.cpp

; 1430 : 	float nExtraProp = 1.0f;

  0000a	c7 45 fc 00 00
	80 3f		 mov	 DWORD PTR _nExtraProp$[ebp], 1065353216 ; 3f800000H
; File C:\Program Files\Microsoft Visual Studio\2022\Professional\VC\Tools\MSVC\14.44.35207\include\xtree

; 1384 :         const _Tree_find_result<_Nodeptr> _Loc = _Find_lower_bound(_Keyval);

  00011	50		 push	 eax
; File C:\IAGOS\server\v18\Source\Source\WorldServer\ItemUpgrade.cpp

; 1431 : 	map<int, int>::iterator it = m_mapPetMultiplicator.find( nLevel );

  00012	8d 71 30	 lea	 esi, DWORD PTR [ecx+48]
; File C:\Program Files\Microsoft Visual Studio\2022\Professional\VC\Tools\MSVC\14.44.35207\include\xtree

; 1384 :         const _Tree_find_result<_Nodeptr> _Loc = _Find_lower_bound(_Keyval);

  00015	8d 45 f0	 lea	 eax, DWORD PTR __Loc$1[ebp]
  00018	8b ce		 mov	 ecx, esi
  0001a	50		 push	 eax
  0001b	e8 00 00 00 00	 call	 ??$_Find_lower_bound@H@?$_Tree@V?$_Tmap_traits@HHU?$less@H@std@@V?$allocator@U?$pair@$$CBHH@std@@@2@$0A@@std@@@std@@IBE?AU?$_Tree_find_result@PAU?$_Tree_node@U?$pair@$$CBHH@std@@PAX@std@@@1@ABH@Z ; std::_Tree<std::_Tmap_traits<int,int,std::less<int>,std::allocator<std::pair<int const ,int> >,0> >::_Find_lower_bound<int>

; 1624 :         return !_Bound->_Isnil && !_DEBUG_LT_PRED(_Getcomp(), _Keyval, _Traits::_Kfn(_Bound->_Myval));

  00020	8b 4d f8	 mov	 ecx, DWORD PTR __Loc$1[ebp+8]
  00023	80 79 0d 00	 cmp	 BYTE PTR [ecx+13], 0
  00027	75 29		 jne	 SHORT $LN55@GetBarunaP
; File C:\Program Files\Microsoft Visual Studio\2022\Professional\VC\Tools\MSVC\14.44.35207\include\type_traits

; 2380 :         return _Left < _Right;

  00029	8b 45 08	 mov	 eax, DWORD PTR _nLevel$[ebp]
  0002c	3b 41 10	 cmp	 eax, DWORD PTR [ecx+16]
; File C:\Program Files\Microsoft Visual Studio\2022\Professional\VC\Tools\MSVC\14.44.35207\include\xtree

; 1624 :         return !_Bound->_Isnil && !_DEBUG_LT_PRED(_Getcomp(), _Keyval, _Traits::_Kfn(_Bound->_Myval));

  0002f	7c 21		 jl	 SHORT $LN55@GetBarunaP

; 37   :     _Tree_unchecked_const_iterator(_Nodeptr _Pnode, const _Mytree* _Plist) noexcept : _Ptr(_Pnode) {

  00031	3b 0e		 cmp	 ecx, DWORD PTR [esi]
; File C:\IAGOS\server\v18\Source\Source\WorldServer\ItemUpgrade.cpp

; 1432 : 	if( it != m_mapPetMultiplicator.end() )

  00033	74 1d		 je	 SHORT $LN55@GetBarunaP

; 1433 : 		nExtraProp = (static_cast<float>(it->second) / 100.0f ) + nExtraProp;

  00035	66 0f 6e 41 14	 movd	 xmm0, DWORD PTR [ecx+20]
  0003a	0f 5b c0	 cvtdq2ps xmm0, xmm0
  0003d	f3 0f 5e 05 00
	00 00 00	 divss	 xmm0, DWORD PTR __real@42c80000
  00045	f3 0f 58 05 00
	00 00 00	 addss	 xmm0, DWORD PTR __real@3f800000
  0004d	f3 0f 11 45 fc	 movss	 DWORD PTR _nExtraProp$[ebp], xmm0
$LN55@GetBarunaP:

; 1434 : 	return nExtraProp;
; 1435 : }

  00052	d9 45 fc	 fld	 DWORD PTR _nExtraProp$[ebp]
  00055	5e		 pop	 esi
  00056	8b e5		 mov	 esp, ebp
  00058	5d		 pop	 ebp
  00059	c2 04 00	 ret	 4
?GetBarunaPetMultiplicator@CItemUpgrade@@QAEMH@Z ENDP	; CItemUpgrade::GetBarunaPetMultiplicator
_TEXT	ENDS
; Function compile flags: /Ogtp
; File C:\IAGOS\server\v18\Source\Source\WorldServer\ItemUpgrade.cpp
; File C:\Program Files\Microsoft Visual Studio\2022\Professional\VC\Tools\MSVC\14.44.35207\include\xtree
; File C:\IAGOS\server\v18\Source\Source\WorldServer\ItemUpgrade.cpp
; File C:\Program Files\Microsoft Visual Studio\2022\Professional\VC\Tools\MSVC\14.44.35207\include\xtree
; File C:\IAGOS\server\v18\Source\Source\WorldServer\ItemUpgrade.cpp
; File C:\Program Files\Microsoft Visual Studio\2022\Professional\VC\Tools\MSVC\14.44.35207\include\xtree
; File C:\IAGOS\server\v18\Source\Source\WorldServer\ItemUpgrade.cpp
; File C:\Program Files\Microsoft Visual Studio\2022\Professional\VC\Tools\MSVC\14.44.35207\include\xtree
; File C:\Program Files\Microsoft Visual Studio\2022\Professional\VC\Tools\MSVC\14.44.35207\include\type_traits
; File C:\Program Files\Microsoft Visual Studio\2022\Professional\VC\Tools\MSVC\14.44.35207\include\xtree
; File C:\IAGOS\server\v18\Source\Source\WorldServer\ItemUpgrade.cpp
;	COMDAT ?GetBarunaEnchantDowngradeProp@CItemUpgrade@@QAEHH@Z
_TEXT	SEGMENT
__Loc$1 = -12						; size = 12
_nAbillityOption$ = 8					; size = 4
$T2 = 8							; size = 4
?GetBarunaEnchantDowngradeProp@CItemUpgrade@@QAEHH@Z PROC ; CItemUpgrade::GetBarunaEnchantDowngradeProp, COMDAT
; _this$ = ecx

; 1421 : {

  00000	55		 push	 ebp
  00001	8b ec		 mov	 ebp, esp
  00003	83 ec 0c	 sub	 esp, 12			; 0000000cH
  00006	56		 push	 esi

; 1423 : 	map<int, int>::iterator it = m_mapBarunaEnchantDowngrade.find( nAbillityOption +1 );

  00007	8b 75 08	 mov	 esi, DWORD PTR _nAbillityOption$[ebp]
; File C:\Program Files\Microsoft Visual Studio\2022\Professional\VC\Tools\MSVC\14.44.35207\include\xtree

; 1384 :         const _Tree_find_result<_Nodeptr> _Loc = _Find_lower_bound(_Keyval);

  0000a	8d 45 08	 lea	 eax, DWORD PTR $T2[ebp]
; File C:\IAGOS\server\v18\Source\Source\WorldServer\ItemUpgrade.cpp

; 1421 : {

  0000d	57		 push	 edi
; File C:\Program Files\Microsoft Visual Studio\2022\Professional\VC\Tools\MSVC\14.44.35207\include\xtree

; 1384 :         const _Tree_find_result<_Nodeptr> _Loc = _Find_lower_bound(_Keyval);

  0000e	50		 push	 eax
; File C:\IAGOS\server\v18\Source\Source\WorldServer\ItemUpgrade.cpp

; 1423 : 	map<int, int>::iterator it = m_mapBarunaEnchantDowngrade.find( nAbillityOption +1 );

  0000f	8d 79 48	 lea	 edi, DWORD PTR [ecx+72]
  00012	46		 inc	 esi
; File C:\Program Files\Microsoft Visual Studio\2022\Professional\VC\Tools\MSVC\14.44.35207\include\xtree

; 1384 :         const _Tree_find_result<_Nodeptr> _Loc = _Find_lower_bound(_Keyval);

  00013	8d 45 f4	 lea	 eax, DWORD PTR __Loc$1[ebp]
; File C:\IAGOS\server\v18\Source\Source\WorldServer\ItemUpgrade.cpp

; 1423 : 	map<int, int>::iterator it = m_mapBarunaEnchantDowngrade.find( nAbillityOption +1 );

  00016	89 75 08	 mov	 DWORD PTR $T2[ebp], esi
; File C:\Program Files\Microsoft Visual Studio\2022\Professional\VC\Tools\MSVC\14.44.35207\include\xtree

; 1384 :         const _Tree_find_result<_Nodeptr> _Loc = _Find_lower_bound(_Keyval);

  00019	50		 push	 eax
  0001a	8b cf		 mov	 ecx, edi
  0001c	e8 00 00 00 00	 call	 ??$_Find_lower_bound@H@?$_Tree@V?$_Tmap_traits@HHU?$less@H@std@@V?$allocator@U?$pair@$$CBHH@std@@@2@$0A@@std@@@std@@IBE?AU?$_Tree_find_result@PAU?$_Tree_node@U?$pair@$$CBHH@std@@PAX@std@@@1@ABH@Z ; std::_Tree<std::_Tmap_traits<int,int,std::less<int>,std::allocator<std::pair<int const ,int> >,0> >::_Find_lower_bound<int>

; 1624 :         return !_Bound->_Isnil && !_DEBUG_LT_PRED(_Getcomp(), _Keyval, _Traits::_Kfn(_Bound->_Myval));

  00021	8b 45 fc	 mov	 eax, DWORD PTR __Loc$1[ebp+8]
  00024	80 78 0d 00	 cmp	 BYTE PTR [eax+13], 0
  00028	75 14		 jne	 SHORT $LN55@GetBarunaE
; File C:\Program Files\Microsoft Visual Studio\2022\Professional\VC\Tools\MSVC\14.44.35207\include\type_traits

; 2380 :         return _Left < _Right;

  0002a	3b 70 10	 cmp	 esi, DWORD PTR [eax+16]
; File C:\Program Files\Microsoft Visual Studio\2022\Professional\VC\Tools\MSVC\14.44.35207\include\xtree

; 1624 :         return !_Bound->_Isnil && !_DEBUG_LT_PRED(_Getcomp(), _Keyval, _Traits::_Kfn(_Bound->_Myval));

  0002d	7c 0f		 jl	 SHORT $LN55@GetBarunaE

; 37   :     _Tree_unchecked_const_iterator(_Nodeptr _Pnode, const _Mytree* _Plist) noexcept : _Ptr(_Pnode) {

  0002f	3b 07		 cmp	 eax, DWORD PTR [edi]
; File C:\IAGOS\server\v18\Source\Source\WorldServer\ItemUpgrade.cpp

; 1424 : 	if( it != m_mapBarunaEnchantDowngrade.end() )

  00031	74 0b		 je	 SHORT $LN55@GetBarunaE

; 1425 : 		nProb = it->second;
; 1426 : 	return nProb;

  00033	8b 40 14	 mov	 eax, DWORD PTR [eax+20]
  00036	5f		 pop	 edi

; 1427 : }

  00037	5e		 pop	 esi
  00038	8b e5		 mov	 esp, ebp
  0003a	5d		 pop	 ebp
  0003b	c2 04 00	 ret	 4
$LN55@GetBarunaE:
  0003e	5f		 pop	 edi
  0003f	33 c0		 xor	 eax, eax
  00041	5e		 pop	 esi
  00042	8b e5		 mov	 esp, ebp
  00044	5d		 pop	 ebp
  00045	c2 04 00	 ret	 4
?GetBarunaEnchantDowngradeProp@CItemUpgrade@@QAEHH@Z ENDP ; CItemUpgrade::GetBarunaEnchantDowngradeProp
_TEXT	ENDS
; Function compile flags: /Ogtp
; File C:\IAGOS\server\v18\Source\Source\WorldServer\ItemUpgrade.cpp
; File C:\Program Files\Microsoft Visual Studio\2022\Professional\VC\Tools\MSVC\14.44.35207\include\xtree
; File C:\IAGOS\server\v18\Source\Source\WorldServer\ItemUpgrade.cpp
; File C:\Program Files\Microsoft Visual Studio\2022\Professional\VC\Tools\MSVC\14.44.35207\include\xtree
; File C:\IAGOS\server\v18\Source\Source\WorldServer\ItemUpgrade.cpp
; File C:\Program Files\Microsoft Visual Studio\2022\Professional\VC\Tools\MSVC\14.44.35207\include\xtree
; File C:\IAGOS\server\v18\Source\Source\WorldServer\ItemUpgrade.cpp
; File C:\Program Files\Microsoft Visual Studio\2022\Professional\VC\Tools\MSVC\14.44.35207\include\xtree
; File C:\Program Files\Microsoft Visual Studio\2022\Professional\VC\Tools\MSVC\14.44.35207\include\type_traits
; File C:\Program Files\Microsoft Visual Studio\2022\Professional\VC\Tools\MSVC\14.44.35207\include\xtree
; File C:\IAGOS\server\v18\Source\Source\WorldServer\ItemUpgrade.cpp
;	COMDAT ?GetBarunaEnchantProp@CItemUpgrade@@QAEHH@Z
_TEXT	SEGMENT
__Loc$1 = -12						; size = 12
_nAbillityOption$ = 8					; size = 4
$T2 = 8							; size = 4
?GetBarunaEnchantProp@CItemUpgrade@@QAEHH@Z PROC	; CItemUpgrade::GetBarunaEnchantProp, COMDAT
; _this$ = ecx

; 1413 : {

  00000	55		 push	 ebp
  00001	8b ec		 mov	 ebp, esp
  00003	83 ec 0c	 sub	 esp, 12			; 0000000cH
  00006	56		 push	 esi

; 1415 : 	map<int, int>::iterator it = m_mapBarunaEnchantUpgrade.find( nAbillityOption +1 );

  00007	8b 75 08	 mov	 esi, DWORD PTR _nAbillityOption$[ebp]
; File C:\Program Files\Microsoft Visual Studio\2022\Professional\VC\Tools\MSVC\14.44.35207\include\xtree

; 1384 :         const _Tree_find_result<_Nodeptr> _Loc = _Find_lower_bound(_Keyval);

  0000a	8d 45 08	 lea	 eax, DWORD PTR $T2[ebp]
; File C:\IAGOS\server\v18\Source\Source\WorldServer\ItemUpgrade.cpp

; 1413 : {

  0000d	57		 push	 edi
; File C:\Program Files\Microsoft Visual Studio\2022\Professional\VC\Tools\MSVC\14.44.35207\include\xtree

; 1384 :         const _Tree_find_result<_Nodeptr> _Loc = _Find_lower_bound(_Keyval);

  0000e	50		 push	 eax
; File C:\IAGOS\server\v18\Source\Source\WorldServer\ItemUpgrade.cpp

; 1415 : 	map<int, int>::iterator it = m_mapBarunaEnchantUpgrade.find( nAbillityOption +1 );

  0000f	8d 79 40	 lea	 edi, DWORD PTR [ecx+64]
  00012	46		 inc	 esi
; File C:\Program Files\Microsoft Visual Studio\2022\Professional\VC\Tools\MSVC\14.44.35207\include\xtree

; 1384 :         const _Tree_find_result<_Nodeptr> _Loc = _Find_lower_bound(_Keyval);

  00013	8d 45 f4	 lea	 eax, DWORD PTR __Loc$1[ebp]
; File C:\IAGOS\server\v18\Source\Source\WorldServer\ItemUpgrade.cpp

; 1415 : 	map<int, int>::iterator it = m_mapBarunaEnchantUpgrade.find( nAbillityOption +1 );

  00016	89 75 08	 mov	 DWORD PTR $T2[ebp], esi
; File C:\Program Files\Microsoft Visual Studio\2022\Professional\VC\Tools\MSVC\14.44.35207\include\xtree

; 1384 :         const _Tree_find_result<_Nodeptr> _Loc = _Find_lower_bound(_Keyval);

  00019	50		 push	 eax
  0001a	8b cf		 mov	 ecx, edi
  0001c	e8 00 00 00 00	 call	 ??$_Find_lower_bound@H@?$_Tree@V?$_Tmap_traits@HHU?$less@H@std@@V?$allocator@U?$pair@$$CBHH@std@@@2@$0A@@std@@@std@@IBE?AU?$_Tree_find_result@PAU?$_Tree_node@U?$pair@$$CBHH@std@@PAX@std@@@1@ABH@Z ; std::_Tree<std::_Tmap_traits<int,int,std::less<int>,std::allocator<std::pair<int const ,int> >,0> >::_Find_lower_bound<int>

; 1624 :         return !_Bound->_Isnil && !_DEBUG_LT_PRED(_Getcomp(), _Keyval, _Traits::_Kfn(_Bound->_Myval));

  00021	8b 45 fc	 mov	 eax, DWORD PTR __Loc$1[ebp+8]
  00024	80 78 0d 00	 cmp	 BYTE PTR [eax+13], 0
  00028	75 14		 jne	 SHORT $LN55@GetBarunaE
; File C:\Program Files\Microsoft Visual Studio\2022\Professional\VC\Tools\MSVC\14.44.35207\include\type_traits

; 2380 :         return _Left < _Right;

  0002a	3b 70 10	 cmp	 esi, DWORD PTR [eax+16]
; File C:\Program Files\Microsoft Visual Studio\2022\Professional\VC\Tools\MSVC\14.44.35207\include\xtree

; 1624 :         return !_Bound->_Isnil && !_DEBUG_LT_PRED(_Getcomp(), _Keyval, _Traits::_Kfn(_Bound->_Myval));

  0002d	7c 0f		 jl	 SHORT $LN55@GetBarunaE

; 37   :     _Tree_unchecked_const_iterator(_Nodeptr _Pnode, const _Mytree* _Plist) noexcept : _Ptr(_Pnode) {

  0002f	3b 07		 cmp	 eax, DWORD PTR [edi]
; File C:\IAGOS\server\v18\Source\Source\WorldServer\ItemUpgrade.cpp

; 1416 : 	if( it != m_mapBarunaEnchantUpgrade.end() )

  00031	74 0b		 je	 SHORT $LN55@GetBarunaE

; 1417 : 		nProb = it->second;
; 1418 : 	return nProb;

  00033	8b 40 14	 mov	 eax, DWORD PTR [eax+20]
  00036	5f		 pop	 edi

; 1419 : }

  00037	5e		 pop	 esi
  00038	8b e5		 mov	 esp, ebp
  0003a	5d		 pop	 ebp
  0003b	c2 04 00	 ret	 4
$LN55@GetBarunaE:
  0003e	5f		 pop	 edi
  0003f	33 c0		 xor	 eax, eax
  00041	5e		 pop	 esi
  00042	8b e5		 mov	 esp, ebp
  00044	5d		 pop	 ebp
  00045	c2 04 00	 ret	 4
?GetBarunaEnchantProp@CItemUpgrade@@QAEHH@Z ENDP	; CItemUpgrade::GetBarunaEnchantProp
_TEXT	ENDS
; Function compile flags: /Ogtp
; File C:\IAGOS\server\v18\Source\Source\WorldServer\ItemUpgrade.cpp
; File C:\IAGOS\server\v18\Source\Source\_Common\Item.h
; File C:\IAGOS\server\v18\Source\Source\_Common\Project.h
; File C:\IAGOS\server\v18\Source\Source\_Common\data.h
; File C:\IAGOS\server\v18\Source\Source\_Common\Project.h
; File C:\IAGOS\server\v18\Source\Source\WorldServer\ItemUpgrade.cpp
; File C:\IAGOS\server\v18\Source\Source\_Common\Item.h
; File C:\IAGOS\server\v18\Source\Source\_Common\Project.h
; File C:\IAGOS\server\v18\Source\Source\_Common\data.h
; File C:\IAGOS\server\v18\Source\Source\_Common\Project.h
; File C:\IAGOS\server\v18\Source\Source\WorldServer\ItemUpgrade.cpp
; File C:\IAGOS\server\v18\Source\Source\_Common\xUtil.h
; File C:\IAGOS\server\v18\Source\Source\WorldServer\ItemUpgrade.cpp
; File C:\IAGOS\server\v18\Source\Source\_Common\Mover.h
; File C:\IAGOS\server\v18\Source\Source\WorldServer\ItemUpgrade.cpp
; File C:\IAGOS\server\v18\Source\Source\_Common\Obj.h
; File C:\IAGOS\server\v18\Source\Source\WorldServer\ItemUpgrade.cpp
; File C:\IAGOS\server\v18\Source\Source\_Common\Obj.h
; File C:\IAGOS\server\v18\Source\Source\WorldServer\ItemUpgrade.cpp
; File C:\IAGOS\server\v18\Source\Source\_Common\Obj.h
; File C:\IAGOS\server\v18\Source\Source\WorldServer\ItemUpgrade.cpp
; File C:\IAGOS\server\v18\Source\Source\_Common\Obj.h
; File C:\IAGOS\server\v18\Source\Source\WorldServer\ItemUpgrade.cpp
; File C:\IAGOS\server\v18\Source\Source\_Common\Obj.h
; File C:\IAGOS\server\v18\Source\Source\WorldServer\ItemUpgrade.cpp
; File C:\IAGOS\server\v18\Source\Source\_Common\xUtil.h
; File C:\IAGOS\server\v18\Source\Source\WorldServer\ItemUpgrade.cpp
; File C:\IAGOS\server\v18\Source\Source\_Common\Mover.h
; File C:\IAGOS\server\v18\Source\Source\WorldServer\ItemUpgrade.cpp
; File C:\IAGOS\server\v18\Source\Source\_Common\Obj.h
; File C:\IAGOS\server\v18\Source\Source\WorldServer\ItemUpgrade.cpp
; File C:\IAGOS\server\v18\Source\Source\_Common\Obj.h
; File C:\IAGOS\server\v18\Source\Source\WorldServer\ItemUpgrade.cpp
; File C:\IAGOS\server\v18\Source\Source\_Common\Obj.h
; File C:\IAGOS\server\v18\Source\Source\WorldServer\ItemUpgrade.cpp
;	COMDAT ?EnchantBaruna@CItemUpgrade@@QAEXPAVCUser@@PAVCItemElem@@111@Z
_TEXT	SEGMENT
$T1 = -264						; size = 12
$T2 = -264						; size = 12
$T3 = -252						; size = 12
$T4 = -252						; size = 12
$T5 = -240						; size = 12
$T6 = -240						; size = 12
_nDownPercent$1$ = -228					; size = 4
_pItemMaterial$GSCopy$1$ = -224				; size = 4
_pProtectScroll$GSCopy$1$ = -220			; size = 4
_nPercent$1$ = -216					; size = 4
tv1013 = -216						; size = 4
tv1015 = -216						; size = 4
tv888 = -212						; size = 4
_this$GSCopy$1$ = -212					; size = 4
_nPetLevel$1$ = -205					; size = 1
_aLogItem$ = -204					; size = 200
__$ArrayPad$ = -4					; size = 4
_pUser$ = 8						; size = 4
_pItemMain$ = 12					; size = 4
_pItemMaterial$ = 16					; size = 4
_pBarunaPet$ = 20					; size = 4
_pProtectScroll$ = 24					; size = 4
?EnchantBaruna@CItemUpgrade@@QAEXPAVCUser@@PAVCItemElem@@111@Z PROC ; CItemUpgrade::EnchantBaruna, COMDAT
; _this$ = ecx

; 1278 : {

  00000	55		 push	 ebp
  00001	8b ec		 mov	 ebp, esp
  00003	81 ec 08 01 00
	00		 sub	 esp, 264		; 00000108H
  00009	a1 00 00 00 00	 mov	 eax, DWORD PTR ___security_cookie
  0000e	33 c5		 xor	 eax, ebp
  00010	89 45 fc	 mov	 DWORD PTR __$ArrayPad$[ebp], eax
  00013	8b 45 10	 mov	 eax, DWORD PTR _pItemMaterial$[ebp]
  00016	53		 push	 ebx
  00017	56		 push	 esi
  00018	8b 75 08	 mov	 esi, DWORD PTR _pUser$[ebp]
  0001b	57		 push	 edi
  0001c	8b 7d 0c	 mov	 edi, DWORD PTR _pItemMain$[ebp]
  0001f	89 85 20 ff ff
	ff		 mov	 DWORD PTR _pItemMaterial$GSCopy$1$[ebp], eax
  00025	8b 45 18	 mov	 eax, DWORD PTR _pProtectScroll$[ebp]
  00028	89 8d 2c ff ff
	ff		 mov	 DWORD PTR _this$GSCopy$1$[ebp], ecx

; 1279 : 	int*  pAbilityOption = pItemMain->GetAbilityOptionPtr();

  0002e	8d 5f 64	 lea	 ebx, DWORD PTR [edi+100]
  00031	89 85 24 ff ff
	ff		 mov	 DWORD PTR _pProtectScroll$GSCopy$1$[ebp], eax

; 1280 : 	if( pAbilityOption == NULL )

  00037	85 db		 test	 ebx, ebx
  00039	0f 84 d2 05 00
	00		 je	 $LN1@EnchantBar
; File C:\IAGOS\server\v18\Source\Source\_Common\Item.h

; 230  : 	ItemProp*	GetProp()	{	return prj.GetItemProp( m_dwItemId );	}

  0003f	8b 4f 0c	 mov	 ecx, DWORD PTR [edi+12]
; File C:\IAGOS\server\v18\Source\Source\_Common\Project.h

; 1389 : 	VERIFY_RANGE_ASSERT( nIndex, 0, m_aPropItem.GetSize(), "GetItemProp range_error", NULL );

  00042	a1 40 02 00 00	 mov	 eax, DWORD PTR ?prj@@3VCProject@@A+576
  00047	85 c9		 test	 ecx, ecx
  00049	78 11		 js	 SHORT $LN37@EnchantBar
  0004b	3b c8		 cmp	 ecx, eax
  0004d	7d 0d		 jge	 SHORT $LN37@EnchantBar
; File C:\IAGOS\server\v18\Source\Source\_Common\data.h

; 270  : 	if( dwIndex >= (DWORD)m_nMaxIndex )

  0004f	8b 15 30 02 00
	00		 mov	 edx, DWORD PTR ?prj@@3VCProject@@A+560
  00055	73 26		 jae	 SHORT $LN129@EnchantBar

; 271  : 		return NULL;
; 272  : 	return (T*) m_apOffset[ dwIndex ];

  00057	8b 0c 8a	 mov	 ecx, DWORD PTR [edx+ecx*4]
; File C:\IAGOS\server\v18\Source\Source\_Common\Project.h

; 1390 : 	return m_aPropItem.GetAt( nIndex ); 

  0005a	eb 23		 jmp	 SHORT $LN32@EnchantBar
$LN37@EnchantBar:

; 579  : 	LPCTSTR szErr = Error( _T( "%s min:%d, max:%d, index:%d" ), szMsg, nMin, nMax, nIndex ); 

  0005c	51		 push	 ecx
  0005d	50		 push	 eax
  0005e	6a 00		 push	 0
  00060	68 00 00 00 00	 push	 OFFSET ??_C@_0BI@BEIFNGEL@GetItemProp?5range_error@
  00065	68 00 00 00 00	 push	 OFFSET ??_C@_0BM@HMFGHCP@?$CFs?5min?3?$CFd?0?5max?3?$CFd?0?5index?3?$CFd@
  0006a	e8 00 00 00 00	 call	 ?Error@@YAPBDPBDZZ	; Error

; 1389 : 	VERIFY_RANGE_ASSERT( nIndex, 0, m_aPropItem.GetSize(), "GetItemProp range_error", NULL );

  0006f	a1 40 02 00 00	 mov	 eax, DWORD PTR ?prj@@3VCProject@@A+576

; 579  : 	LPCTSTR szErr = Error( _T( "%s min:%d, max:%d, index:%d" ), szMsg, nMin, nMax, nIndex ); 

  00074	83 c4 14	 add	 esp, 20			; 00000014H

; 1389 : 	VERIFY_RANGE_ASSERT( nIndex, 0, m_aPropItem.GetSize(), "GetItemProp range_error", NULL );

  00077	8b 15 30 02 00
	00		 mov	 edx, DWORD PTR ?prj@@3VCProject@@A+560
$LN129@EnchantBar:
; File C:\IAGOS\server\v18\Source\Source\WorldServer\ItemUpgrade.cpp

; 1283 : 	if( pItemMain->GetProp()->dwReferStat1 < BARUNA_D || pItemMain->GetProp()->dwReferStat1 > BARUNA_S )

  0007d	33 c9		 xor	 ecx, ecx
$LN32@EnchantBar:
  0007f	83 b9 d0 01 00
	00 04		 cmp	 DWORD PTR [ecx+464], 4
  00086	0f 82 79 05 00
	00		 jb	 $LN4@EnchantBar
; File C:\IAGOS\server\v18\Source\Source\_Common\Item.h

; 230  : 	ItemProp*	GetProp()	{	return prj.GetItemProp( m_dwItemId );	}

  0008c	8b 4f 0c	 mov	 ecx, DWORD PTR [edi+12]
; File C:\IAGOS\server\v18\Source\Source\_Common\Project.h

; 1389 : 	VERIFY_RANGE_ASSERT( nIndex, 0, m_aPropItem.GetSize(), "GetItemProp range_error", NULL );

  0008f	85 c9		 test	 ecx, ecx
  00091	78 0b		 js	 SHORT $LN51@EnchantBar
  00093	3b c8		 cmp	 ecx, eax
  00095	7d 07		 jge	 SHORT $LN51@EnchantBar
; File C:\IAGOS\server\v18\Source\Source\_Common\data.h

; 270  : 	if( dwIndex >= (DWORD)m_nMaxIndex )

  00097	73 1b		 jae	 SHORT $LN130@EnchantBar

; 271  : 		return NULL;
; 272  : 	return (T*) m_apOffset[ dwIndex ];

  00099	8b 04 8a	 mov	 eax, DWORD PTR [edx+ecx*4]
; File C:\IAGOS\server\v18\Source\Source\_Common\Project.h

; 1390 : 	return m_aPropItem.GetAt( nIndex ); 

  0009c	eb 18		 jmp	 SHORT $LN46@EnchantBar
$LN51@EnchantBar:

; 579  : 	LPCTSTR szErr = Error( _T( "%s min:%d, max:%d, index:%d" ), szMsg, nMin, nMax, nIndex ); 

  0009e	51		 push	 ecx
  0009f	50		 push	 eax
  000a0	6a 00		 push	 0
  000a2	68 00 00 00 00	 push	 OFFSET ??_C@_0BI@BEIFNGEL@GetItemProp?5range_error@
  000a7	68 00 00 00 00	 push	 OFFSET ??_C@_0BM@HMFGHCP@?$CFs?5min?3?$CFd?0?5max?3?$CFd?0?5index?3?$CFd@
  000ac	e8 00 00 00 00	 call	 ?Error@@YAPBDPBDZZ	; Error
  000b1	83 c4 14	 add	 esp, 20			; 00000014H
$LN130@EnchantBar:
; File C:\IAGOS\server\v18\Source\Source\WorldServer\ItemUpgrade.cpp

; 1283 : 	if( pItemMain->GetProp()->dwReferStat1 < BARUNA_D || pItemMain->GetProp()->dwReferStat1 > BARUNA_S )

  000b4	33 c0		 xor	 eax, eax
$LN46@EnchantBar:
  000b6	83 b8 d0 01 00
	00 08		 cmp	 DWORD PTR [eax+464], 8
  000bd	0f 87 42 05 00
	00		 ja	 $LN4@EnchantBar

; 1286 : 		return;
; 1287 : 	}
; 1288 : 	if( pItemMaterial->GetProp()->dwID != II_GEN_MAT_OPERCID )

  000c3	8b 8d 20 ff ff
	ff		 mov	 ecx, DWORD PTR _pItemMaterial$GSCopy$1$[ebp]
  000c9	e8 00 00 00 00	 call	 ?GetPropA@CItemElem@@QAEPAUItemProp@@XZ ; CItemElem::GetPropA
  000ce	81 38 89 1b 00
	00		 cmp	 DWORD PTR [eax], 7049	; 00001b89H
  000d4	0f 85 2b 05 00
	00		 jne	 $LN4@EnchantBar

; 1289 : 	{
; 1290 : 		pUser->AddDefinedText( TID_MMI_NEWSMELT_CID01 );
; 1291 : 		return;
; 1292 : 	}
; 1293 : 	if( *pAbilityOption >= GetMaxBarunaEnchantSize() )

  000da	8b 85 2c ff ff
	ff		 mov	 eax, DWORD PTR _this$GSCopy$1$[ebp]
  000e0	8b 1b		 mov	 ebx, DWORD PTR [ebx]
  000e2	3b 58 44	 cmp	 ebx, DWORD PTR [eax+68]
  000e5	7c 0a		 jl	 SHORT $LN6@EnchantBar

; 1294 : 	{
; 1295 : 		pUser->AddDefinedText( TID_UPGRADE_MAXOVER );			

  000e7	68 a2 08 00 00	 push	 2210			; 000008a2H

; 1296 : 		return;

  000ec	e9 19 05 00 00	 jmp	 $LN131@EnchantBar
$LN6@EnchantBar:

; 1297 : 	}
; 1298 : 
; 1299 : 	int nPercent = GetBarunaEnchantProp( *pAbilityOption );

  000f1	53		 push	 ebx
  000f2	8b c8		 mov	 ecx, eax
  000f4	e8 00 00 00 00	 call	 ?GetBarunaEnchantProp@CItemUpgrade@@QAEHH@Z ; CItemUpgrade::GetBarunaEnchantProp

; 1300 : 	int nDownPercent = GetBarunaEnchantDowngradeProp ( *pAbilityOption );

  000f9	53		 push	 ebx
  000fa	8b 9d 2c ff ff
	ff		 mov	 ebx, DWORD PTR _this$GSCopy$1$[ebp]
  00100	8b cb		 mov	 ecx, ebx
  00102	89 85 28 ff ff
	ff		 mov	 DWORD PTR _nPercent$1$[ebp], eax
  00108	e8 00 00 00 00	 call	 ?GetBarunaEnchantDowngradeProp@CItemUpgrade@@QAEHH@Z ; CItemUpgrade::GetBarunaEnchantDowngradeProp

; 1301 : 	// todo: pet level
; 1302 : 	BYTE nPetLevel = 0;
; 1303 : 	CItemElem* pItemElem	= pUser->m_Inventory.GetAtId( pUser->dwBarunaPetItemId );

  0010d	ff b6 d4 14 00
	00		 push	 DWORD PTR [esi+5332]
  00113	32 c9		 xor	 cl, cl
  00115	89 85 1c ff ff
	ff		 mov	 DWORD PTR _nDownPercent$1$[ebp], eax
  0011b	88 8d 33 ff ff
	ff		 mov	 BYTE PTR _nPetLevel$1$[ebp], cl
  00121	8d 8e fc 0a 00
	00		 lea	 ecx, DWORD PTR [esi+2812]
  00127	e8 00 00 00 00	 call	 ?GetAtId@?$CItemContainer@VCItemElem@@@@QAEPAVCItemElem@@K@Z ; CItemContainer<CItemElem>::GetAtId

; 1304 : 	if( pItemElem )

  0012c	85 c0		 test	 eax, eax
  0012e	74 0b		 je	 SHORT $LN99@EnchantBar

; 1305 : 		nPetLevel = pItemElem->m_nRepairNumber;

  00130	8a 40 6c	 mov	 al, BYTE PTR [eax+108]
  00133	88 85 33 ff ff
	ff		 mov	 BYTE PTR _nPetLevel$1$[ebp], al
  00139	eb 06		 jmp	 SHORT $LN7@EnchantBar
$LN99@EnchantBar:

; 1304 : 	if( pItemElem )

  0013b	8a 85 33 ff ff
	ff		 mov	 al, BYTE PTR _nPetLevel$1$[ebp]
$LN7@EnchantBar:

; 1306 : 
; 1307 : 	nPercent = (float)nPercent * GetBarunaPetMultiplicator( nPetLevel );

  00141	0f b6 c0	 movzx	 eax, al
  00144	8b cb		 mov	 ecx, ebx
  00146	50		 push	 eax
  00147	e8 00 00 00 00	 call	 ?GetBarunaPetMultiplicator@CItemUpgrade@@QAEMH@Z ; CItemUpgrade::GetBarunaPetMultiplicator
  0014c	66 0f 6e 85 28
	ff ff ff	 movd	 xmm0, DWORD PTR _nPercent$1$[ebp]

; 1308 : 
; 1309 : 	LogItemInfo aLogItem;

  00154	8d 8d 34 ff ff
	ff		 lea	 ecx, DWORD PTR _aLogItem$[ebp]
  0015a	0f 5b c0	 cvtdq2ps xmm0, xmm0
  0015d	f3 0f 11 85 28
	ff ff ff	 movss	 DWORD PTR tv1015[ebp], xmm0
  00165	d8 8d 28 ff ff
	ff		 fmul	 DWORD PTR tv1015[ebp]
  0016b	d9 9d 28 ff ff
	ff		 fstp	 DWORD PTR tv1013[ebp]
  00171	e8 00 00 00 00	 call	 ??0_LogItemInfo@@QAE@XZ	; _LogItemInfo::_LogItemInfo

; 1310 : 	aLogItem.SendName = pUser->GetName();

  00176	6a 00		 push	 0
  00178	8b ce		 mov	 ecx, esi
  0017a	e8 00 00 00 00	 call	 ?GetName@CMover@@QAEPBDH@Z ; CMover::GetName

; 1311 : 	aLogItem.RecvName = "UPGRADEBARUNA";
; 1312 : 	aLogItem.WorldId = pUser->GetWorld()->GetID();
; 1313 : 	aLogItem.nPetLevel = nPetLevel;

  0017f	8a 8d 33 ff ff
	ff		 mov	 cl, BYTE PTR _nPetLevel$1$[ebp]

; 1314 : 	aLogItem.dwPetExp = 0;
; 1315 : 
; 1316 : 	BYTE nProtectStrenght = 0;

  00185	32 db		 xor	 bl, bl

; 1317 : 
; 1318 : 	if( IsUsableItem( pProtectScroll ))

  00187	ff b5 24 ff ff
	ff		 push	 DWORD PTR _pProtectScroll$GSCopy$1$[ebp]
  0018d	89 85 38 ff ff
	ff		 mov	 DWORD PTR _aLogItem$[ebp+4], eax
  00193	8b 86 6c 01 00
	00		 mov	 eax, DWORD PTR [esi+364]
  00199	c7 85 3c ff ff
	ff 00 00 00 00	 mov	 DWORD PTR _aLogItem$[ebp+8], OFFSET ??_C@_0O@EJMCNMBD@UPGRADEBARUNA@
  001a3	8b 00		 mov	 eax, DWORD PTR [eax]
  001a5	89 85 40 ff ff
	ff		 mov	 DWORD PTR _aLogItem$[ebp+12], eax
  001ab	88 4d e9	 mov	 BYTE PTR _aLogItem$[ebp+181], cl
  001ae	c7 45 ec 00 00
	00 00		 mov	 DWORD PTR _aLogItem$[ebp+184], 0
  001b5	e8 00 00 00 00	 call	 ?IsUsableItem@@YAHPAVCItemBase@@@Z ; IsUsableItem
  001ba	83 c4 04	 add	 esp, 4
  001bd	85 c0		 test	 eax, eax
  001bf	74 1b		 je	 SHORT $LN12@EnchantBar

; 1319 : 	{
; 1320 : 		if( pProtectScroll->GetProp()->dwID == II_SYS_SYS_SCR_BARUNASMELPROT )

  001c1	8b 9d 24 ff ff
	ff		 mov	 ebx, DWORD PTR _pProtectScroll$GSCopy$1$[ebp]
  001c7	8b cb		 mov	 ecx, ebx
  001c9	e8 00 00 00 00	 call	 ?GetPropA@CItemElem@@QAEPAUItemProp@@XZ ; CItemElem::GetPropA
  001ce	81 38 06 50 00
	00		 cmp	 DWORD PTR [eax], 20486	; 00005006H
  001d4	0f 85 2f 01 00
	00		 jne	 $LN9@EnchantBar

; 1321 : 			nProtectStrenght = 1;

  001da	b3 01		 mov	 bl, 1
$LN12@EnchantBar:
; File C:\IAGOS\server\v18\Source\Source\_Common\xUtil.h

; 16   : 	g_next = g_next * 1103515245 + 12345;// + nRandomSeed[ i++ ];

  001dc	69 0d 00 00 00
	00 6d 4e c6 41	 imul	 ecx, DWORD PTR ?g_next@@3KA, 1103515245 ; g_next

; 22   : 	return  xRand() % num;

  001e6	b8 59 17 b7 d1	 mov	 eax, -776530087		; d1b71759H

; 16   : 	g_next = g_next * 1103515245 + 12345;// + nRandomSeed[ i++ ];

  001eb	81 c1 39 30 00
	00		 add	 ecx, 12345		; 00003039H

; 22   : 	return  xRand() % num;

  001f1	f7 e1		 mul	 ecx

; 16   : 	g_next = g_next * 1103515245 + 12345;// + nRandomSeed[ i++ ];

  001f3	89 0d 00 00 00
	00		 mov	 DWORD PTR ?g_next@@3KA, ecx ; g_next

; 22   : 	return  xRand() % num;

  001f9	c1 ea 0d	 shr	 edx, 13			; 0000000dH
  001fc	69 c2 10 27 00
	00		 imul	 eax, edx, 10000
  00202	2b c8		 sub	 ecx, eax
; File C:\IAGOS\server\v18\Source\Source\WorldServer\ItemUpgrade.cpp

; 1332 : 	if( (int)( xRandom( 10000 ) ) > nPercent )

  00204	f3 0f 2c 85 28
	ff ff ff	 cvttss2si eax, DWORD PTR tv1013[ebp]
  0020c	3b c8		 cmp	 ecx, eax
  0020e	8b ce		 mov	 ecx, esi
  00210	0f 8e cf 02 00
	00		 jle	 $LN13@EnchantBar

; 1333 : 	{
; 1334 : 		pUser->AddDefinedText( TID_UPGRADE_FAIL );

  00216	68 9e 08 00 00	 push	 2206			; 0000089eH
  0021b	e8 00 00 00 00	 call	 ?AddDefinedText@CUser@@QAEXH@Z ; CUser::AddDefinedText

; 1335 : 		pUser->AddPlaySound( SND_INF_UPGRADEFAIL );

  00220	6a 0d		 push	 13			; 0000000dH
  00222	8b ce		 mov	 ecx, esi
  00224	e8 00 00 00 00	 call	 ?AddPlaySound@CUser@@QAEXK@Z ; CUser::AddPlaySound
; File C:\IAGOS\server\v18\Source\Source\_Common\Mover.h

; 1740 : 		if( GetAdjParam(DST_CHRSTATE) & CHS_INVISIBILITY )	// ĖČ╣²┼§ĖĒ╚Ł░Ī ░╔Ę╚┤┬░Ī?

  00229	6a 40		 push	 64			; 00000040H
  0022b	8b ce		 mov	 ecx, esi
  0022d	e8 00 00 00 00	 call	 ?GetAdjParam@CMover@@QAEHH@Z ; CMover::GetAdjParam
  00232	a9 00 04 00 00	 test	 eax, 1024		; 00000400H
  00237	0f 85 8f 00 00
	00		 jne	 $LN15@EnchantBar
; File C:\IAGOS\server\v18\Source\Source\WorldServer\ItemUpgrade.cpp

; 1337 : 		if((pUser->IsMode( TRANSPARENT_MODE ) ) == 0)

  0023d	f6 86 40 02 00
	00 02		 test	 BYTE PTR [esi+576], 2
  00244	0f 85 82 00 00
	00		 jne	 $LN15@EnchantBar
; File C:\IAGOS\server\v18\Source\Source\_Common\Obj.h

; 215  : 	D3DXVECTOR3		GetPos()	{ return m_vPos; }

  0024a	f3 0f 7e 86 60
	01 00 00	 movq	 xmm0, QWORD PTR [esi+352]
; File C:\IAGOS\server\v18\Source\Source\WorldServer\ItemUpgrade.cpp

; 1338 : 			g_UserMng.AddCreateSfxObj((CMover *)pUser, XI_INT_FAIL, pUser->GetPos().x, pUser->GetPos().y, pUser->GetPos().z);

  00252	b9 00 00 00 00	 mov	 ecx, OFFSET ?g_UserMng@@3VCUserMng@@A ; g_UserMng
; File C:\IAGOS\server\v18\Source\Source\_Common\Obj.h

; 215  : 	D3DXVECTOR3		GetPos()	{ return m_vPos; }

  00257	8b 86 68 01 00
	00		 mov	 eax, DWORD PTR [esi+360]
  0025d	66 0f d6 85 10
	ff ff ff	 movq	 QWORD PTR $T5[ebp], xmm0
  00265	f3 0f 7e c0	 movq	 xmm0, xmm0
  00269	66 0f d6 85 04
	ff ff ff	 movq	 QWORD PTR $T3[ebp], xmm0
  00271	f3 0f 7e 86 60
	01 00 00	 movq	 xmm0, QWORD PTR [esi+352]
; File C:\IAGOS\server\v18\Source\Source\WorldServer\ItemUpgrade.cpp

; 1338 : 			g_UserMng.AddCreateSfxObj((CMover *)pUser, XI_INT_FAIL, pUser->GetPos().x, pUser->GetPos().y, pUser->GetPos().z);

  00279	6a 00		 push	 0
  0027b	83 ec 0c	 sub	 esp, 12			; 0000000cH
; File C:\IAGOS\server\v18\Source\Source\_Common\Obj.h

; 215  : 	D3DXVECTOR3		GetPos()	{ return m_vPos; }

  0027e	66 0f d6 85 f8
	fe ff ff	 movq	 QWORD PTR $T1[ebp], xmm0
  00286	89 85 18 ff ff
	ff		 mov	 DWORD PTR $T5[ebp+8], eax
; File C:\IAGOS\server\v18\Source\Source\WorldServer\ItemUpgrade.cpp

; 1338 : 			g_UserMng.AddCreateSfxObj((CMover *)pUser, XI_INT_FAIL, pUser->GetPos().x, pUser->GetPos().y, pUser->GetPos().z);

  0028c	f3 0f 10 85 18
	ff ff ff	 movss	 xmm0, DWORD PTR $T5[ebp+8]
; File C:\IAGOS\server\v18\Source\Source\_Common\Obj.h

; 215  : 	D3DXVECTOR3		GetPos()	{ return m_vPos; }

  00294	89 85 0c ff ff
	ff		 mov	 DWORD PTR $T3[ebp+8], eax
; File C:\IAGOS\server\v18\Source\Source\WorldServer\ItemUpgrade.cpp

; 1338 : 			g_UserMng.AddCreateSfxObj((CMover *)pUser, XI_INT_FAIL, pUser->GetPos().x, pUser->GetPos().y, pUser->GetPos().z);

  0029a	f3 0f 11 44 24
	08		 movss	 DWORD PTR [esp+8], xmm0
  002a0	f3 0f 10 85 08
	ff ff ff	 movss	 xmm0, DWORD PTR $T3[ebp+4]
  002a8	f3 0f 11 44 24
	04		 movss	 DWORD PTR [esp+4], xmm0
  002ae	f3 0f 10 85 f8
	fe ff ff	 movss	 xmm0, DWORD PTR $T1[ebp]
  002b6	f3 0f 11 04 24	 movss	 DWORD PTR [esp], xmm0
  002bb	68 b3 06 00 00	 push	 1715			; 000006b3H
  002c0	56		 push	 esi
; File C:\IAGOS\server\v18\Source\Source\_Common\Obj.h

; 215  : 	D3DXVECTOR3		GetPos()	{ return m_vPos; }

  002c1	89 85 00 ff ff
	ff		 mov	 DWORD PTR $T1[ebp+8], eax
; File C:\IAGOS\server\v18\Source\Source\WorldServer\ItemUpgrade.cpp

; 1338 : 			g_UserMng.AddCreateSfxObj((CMover *)pUser, XI_INT_FAIL, pUser->GetPos().x, pUser->GetPos().y, pUser->GetPos().z);

  002c7	e8 00 00 00 00	 call	 ?AddCreateSfxObj@CUserMng@@QAEXPAVCCtrl@@KMMMH@Z ; CUserMng::AddCreateSfxObj
$LN15@EnchantBar:

; 1339 : 
; 1340 : 		if( nProtectStrenght == 0 )

  002cc	84 db		 test	 bl, bl
  002ce	75 59		 jne	 SHORT $LN16@EnchantBar

; 1341 : 		{
; 1342 : 			aLogItem.Action = "L";
; 1343 : 			g_DPSrvr.OnLogItem( aLogItem, pItemMain, pItemMain->m_nItemNum );

  002d0	0f bf 47 74	 movsx	 eax, WORD PTR [edi+116]
  002d4	b9 00 00 00 00	 mov	 ecx, OFFSET ?g_DPSrvr@@3VCDPSrvr@@A ; g_DPSrvr
  002d9	50		 push	 eax
  002da	57		 push	 edi
  002db	8d 85 34 ff ff
	ff		 lea	 eax, DWORD PTR _aLogItem$[ebp]
  002e1	c7 85 34 ff ff
	ff 00 00 00 00	 mov	 DWORD PTR _aLogItem$[ebp], OFFSET ??_C@_01OCOKONAJ@L@
  002eb	50		 push	 eax
  002ec	e8 00 00 00 00	 call	 ?OnLogItem@CDPSrvr@@QAEXAAU_LogItemInfo@@PAVCItemElem@@H@Z ; CDPSrvr::OnLogItem

; 1344 : 			pUser->RemoveItem( (BYTE)( pItemMain->m_dwObjId ), (short)1 );

  002f1	0f b6 47 04	 movzx	 eax, BYTE PTR [edi+4]
  002f5	8b ce		 mov	 ecx, esi
  002f7	6a 01		 push	 1
  002f9	50		 push	 eax
  002fa	e8 00 00 00 00	 call	 ?RemoveItem@CMover@@QAEXEF@Z ; CMover::RemoveItem

; 1345 : 			pUser->AddDefinedText( TID_MMI_NEWSMELT_NEWSMELT06 );

  002ff	68 95 11 00 00	 push	 4501			; 00001195H

; 1346 : 		}else

  00304	e9 0c 01 00 00	 jmp	 $LN132@EnchantBar
$LN9@EnchantBar:

; 1322 : 		else
; 1323 : 		if( pProtectScroll->GetProp()->dwID == II_SYS_SYS_SCR_BARUNASMELPROT02 )

  00309	8b cb		 mov	 ecx, ebx
  0030b	e8 00 00 00 00	 call	 ?GetPropA@CItemElem@@QAEPAUItemProp@@XZ ; CItemElem::GetPropA
  00310	81 38 4f 51 00
	00		 cmp	 DWORD PTR [eax], 20815	; 0000514fH
  00316	75 07		 jne	 SHORT $LN11@EnchantBar

; 1324 : 			nProtectStrenght = 2;

  00318	b3 02		 mov	 bl, 2
  0031a	e9 bd fe ff ff	 jmp	 $LN12@EnchantBar
$LN11@EnchantBar:

; 1325 : 		else
; 1326 : 		{
; 1327 : 			pUser->AddDefinedText( TID_SBEVE_NOTUSEITEM );

  0031f	68 ff 01 00 00	 push	 511			; 000001ffH

; 1328 : 			return;

  00324	e9 e1 02 00 00	 jmp	 $LN131@EnchantBar
$LN16@EnchantBar:

; 1347 : 		if( nProtectStrenght == 1 && *pAbilityOption > 0 )

  00329	80 fb 01	 cmp	 bl, 1
  0032c	0f 85 a4 00 00
	00		 jne	 $LN18@EnchantBar
  00332	83 7f 64 00	 cmp	 DWORD PTR [edi+100], 0
  00336	0f 8e e0 00 00
	00		 jle	 $LN22@EnchantBar
; File C:\IAGOS\server\v18\Source\Source\_Common\xUtil.h

; 16   : 	g_next = g_next * 1103515245 + 12345;// + nRandomSeed[ i++ ];

  0033c	69 0d 00 00 00
	00 6d 4e c6 41	 imul	 ecx, DWORD PTR ?g_next@@3KA, 1103515245 ; g_next

; 22   : 	return  xRand() % num;

  00346	b8 59 17 b7 d1	 mov	 eax, -776530087		; d1b71759H

; 16   : 	g_next = g_next * 1103515245 + 12345;// + nRandomSeed[ i++ ];

  0034b	81 c1 39 30 00
	00		 add	 ecx, 12345		; 00003039H

; 22   : 	return  xRand() % num;

  00351	f7 e1		 mul	 ecx

; 16   : 	g_next = g_next * 1103515245 + 12345;// + nRandomSeed[ i++ ];

  00353	89 0d 00 00 00
	00		 mov	 DWORD PTR ?g_next@@3KA, ecx ; g_next

; 22   : 	return  xRand() % num;

  00359	c1 ea 0d	 shr	 edx, 13			; 0000000dH
  0035c	69 c2 10 27 00
	00		 imul	 eax, edx, 10000
  00362	2b c8		 sub	 ecx, eax
; File C:\IAGOS\server\v18\Source\Source\WorldServer\ItemUpgrade.cpp

; 1349 : 			if((int)(xRandom(10000))< nDownPercent)

  00364	3b 8d 1c ff ff
	ff		 cmp	 ecx, DWORD PTR _nDownPercent$1$[ebp]
  0036a	7d 11		 jge	 SHORT $LN20@EnchantBar

; 1350 : 			{
; 1351 : 				aLogItem.Action = "F";

  0036c	c7 85 34 ff ff
	ff 00 00 00 00	 mov	 DWORD PTR _aLogItem$[ebp], OFFSET ??_C@_01BIAFAFID@F@

; 1352 : 				g_DPSrvr.OnLogItem( aLogItem, pItemMain, pItemMain->m_nItemNum );
; 1353 : 				pUser->RemoveItem( (BYTE)( pProtectScroll->m_dwObjId ), (short)1 );
; 1354 : 				pUser->AddDefinedText( TID_MMI_NEWSMELT_NEWSMELT05 );

  00376	bb 94 11 00 00	 mov	 ebx, 4500		; 00001194H

; 1355 : 			}

  0037b	eb 24		 jmp	 SHORT $LN133@EnchantBar
$LN20@EnchantBar:

; 1356 : 			else
; 1357 : 			{
; 1358 : 				pUser->UpdateItem( (BYTE)pItemMain->m_dwObjId, UI_AO,  pItemMain->GetAbilityOption() - 1 );

  0037d	8b 47 64	 mov	 eax, DWORD PTR [edi+100]
  00380	8b ce		 mov	 ecx, esi
  00382	6a 00		 push	 0
  00384	48		 dec	 eax
  00385	50		 push	 eax
  00386	0f b6 47 04	 movzx	 eax, BYTE PTR [edi+4]
  0038a	6a 03		 push	 3
  0038c	50		 push	 eax
  0038d	e8 00 00 00 00	 call	 ?UpdateItem@CMover@@QAEXEDKK@Z ; CMover::UpdateItem

; 1359 : 				aLogItem.Action = "M";

  00392	c7 85 34 ff ff
	ff 00 00 00 00	 mov	 DWORD PTR _aLogItem$[ebp], OFFSET ??_C@_01PLPBNMEI@M@

; 1360 : 				g_DPSrvr.OnLogItem( aLogItem, pItemMain, pItemMain->m_nItemNum );
; 1361 : 				pUser->RemoveItem( (BYTE)( pProtectScroll->m_dwObjId ), (short)1 );
; 1362 : 				pUser->AddDefinedText( TID_MMI_NEWSMELT_NEWSMELT04 );

  0039c	bb 93 11 00 00	 mov	 ebx, 4499		; 00001193H
$LN133@EnchantBar:

; 1363 : 			}
; 1364 : 		}else

  003a1	b8 74 00 00 00	 mov	 eax, 116		; 00000074H
  003a6	8d 8d 34 ff ff
	ff		 lea	 ecx, DWORD PTR _aLogItem$[ebp]
  003ac	8b d7		 mov	 edx, edi
  003ae	0f bf 04 07	 movsx	 eax, WORD PTR [edi+eax]
  003b2	50		 push	 eax
  003b3	52		 push	 edx
  003b4	51		 push	 ecx
  003b5	b9 00 00 00 00	 mov	 ecx, OFFSET ?g_DPSrvr@@3VCDPSrvr@@A ; g_DPSrvr
  003ba	e8 00 00 00 00	 call	 ?OnLogItem@CDPSrvr@@QAEXAAU_LogItemInfo@@PAVCItemElem@@H@Z ; CDPSrvr::OnLogItem
  003bf	8b 85 24 ff ff
	ff		 mov	 eax, DWORD PTR _pProtectScroll$GSCopy$1$[ebp]
  003c5	8b ce		 mov	 ecx, esi
  003c7	6a 01		 push	 1
  003c9	0f b6 40 04	 movzx	 eax, BYTE PTR [eax+4]
  003cd	50		 push	 eax
  003ce	e8 00 00 00 00	 call	 ?RemoveItem@CMover@@QAEXEF@Z ; CMover::RemoveItem
  003d3	53		 push	 ebx
  003d4	eb 3f		 jmp	 SHORT $LN132@EnchantBar
$LN18@EnchantBar:

; 1365 : 		if( nProtectStrenght == 2 )

  003d6	80 fb 02	 cmp	 bl, 2
  003d9	75 41		 jne	 SHORT $LN22@EnchantBar

; 1366 : 		{
; 1367 : 			aLogItem.Action = "F";
; 1368 : 			g_DPSrvr.OnLogItem( aLogItem, pItemMain, pItemMain->m_nItemNum );

  003db	0f bf 47 74	 movsx	 eax, WORD PTR [edi+116]
  003df	b9 00 00 00 00	 mov	 ecx, OFFSET ?g_DPSrvr@@3VCDPSrvr@@A ; g_DPSrvr
  003e4	50		 push	 eax
  003e5	57		 push	 edi
  003e6	8d 85 34 ff ff
	ff		 lea	 eax, DWORD PTR _aLogItem$[ebp]
  003ec	c7 85 34 ff ff
	ff 00 00 00 00	 mov	 DWORD PTR _aLogItem$[ebp], OFFSET ??_C@_01BIAFAFID@F@
  003f6	50		 push	 eax
  003f7	e8 00 00 00 00	 call	 ?OnLogItem@CDPSrvr@@QAEXAAU_LogItemInfo@@PAVCItemElem@@H@Z ; CDPSrvr::OnLogItem

; 1369 : 			pUser->RemoveItem( (BYTE)( pProtectScroll->m_dwObjId ), (short)1 );

  003fc	8b 85 24 ff ff
	ff		 mov	 eax, DWORD PTR _pProtectScroll$GSCopy$1$[ebp]
  00402	8b ce		 mov	 ecx, esi
  00404	6a 01		 push	 1
  00406	0f b6 40 04	 movzx	 eax, BYTE PTR [eax+4]
  0040a	50		 push	 eax
  0040b	e8 00 00 00 00	 call	 ?RemoveItem@CMover@@QAEXEF@Z ; CMover::RemoveItem

; 1370 : 			pUser->AddDefinedText( TID_MMI_NEWSMELT_NEWSMELT05 );

  00410	68 94 11 00 00	 push	 4500			; 00001194H
$LN132@EnchantBar:

; 1371 : 		}
; 1372 : 		CItemElem* pItemElem	= pUser->m_Inventory.GetAtId( pUser->dwBarunaPetItemId );

  00415	8b ce		 mov	 ecx, esi
  00417	e8 00 00 00 00	 call	 ?AddDefinedText@CUser@@QAEXH@Z ; CUser::AddDefinedText
$LN22@EnchantBar:
  0041c	ff b6 d4 14 00
	00		 push	 DWORD PTR [esi+5332]
  00422	8d 8e fc 0a 00
	00		 lea	 ecx, DWORD PTR [esi+2812]
  00428	e8 00 00 00 00	 call	 ?GetAtId@?$CItemContainer@VCItemElem@@@@QAEPAVCItemElem@@K@Z ; CItemContainer<CItemElem>::GetAtId
  0042d	8b f8		 mov	 edi, eax

; 1373 : 		if( pItemElem )

  0042f	85 ff		 test	 edi, edi
  00431	0f 84 86 01 00
	00		 je	 $LN14@EnchantBar

; 1374 : 		{
; 1375 : 			if( pItemElem->m_nRepairNumber >= m_mapPetFailForLevel.size())

  00437	8b 8d 2c ff ff
	ff		 mov	 ecx, DWORD PTR _this$GSCopy$1$[ebp]
  0043d	0f b6 57 6c	 movzx	 edx, BYTE PTR [edi+108]
  00441	3b 51 3c	 cmp	 edx, DWORD PTR [ecx+60]
  00444	0f 83 c7 01 00
	00		 jae	 $LN1@EnchantBar

; 1376 : 			{
; 1377 : 				return; // max lvl
; 1378 : 			}
; 1379 : 			if( pItemElem->m_nRepair + 1 >= GetBarunaFailForNextLevel( pItemElem->m_nRepairNumber ))

  0044a	8b 47 68	 mov	 eax, DWORD PTR [edi+104]
  0044d	52		 push	 edx
  0044e	8d 58 01	 lea	 ebx, DWORD PTR [eax+1]
  00451	8a 47 04	 mov	 al, BYTE PTR [edi+4]
  00454	89 85 2c ff ff
	ff		 mov	 DWORD PTR tv888[ebp], eax
  0045a	e8 00 00 00 00	 call	 ?GetBarunaFailForNextLevel@CItemUpgrade@@QAEHH@Z ; CItemUpgrade::GetBarunaFailForNextLevel
  0045f	8b ce		 mov	 ecx, esi
  00461	6a 00		 push	 0
  00463	3b d8		 cmp	 ebx, eax
  00465	7c 6b		 jl	 SHORT $LN25@EnchantBar

; 1380 : 			{
; 1381 : 				//levelup
; 1382 : 				pUser->UpdateItem( pItemElem->m_dwObjId, UI_REPAIR_NUM, NULL );

  00467	6a 00		 push	 0
  00469	6a 0c		 push	 12			; 0000000cH
  0046b	ff b5 2c ff ff
	ff		 push	 DWORD PTR tv888[ebp]
  00471	e8 00 00 00 00	 call	 ?UpdateItem@CMover@@QAEXEDKK@Z ; CMover::UpdateItem

; 1383 : 				pUser->UpdateItem( pItemElem->m_dwObjId, UI_RN, pItemElem->m_nRepairNumber + 1 );

  00476	0f b6 47 6c	 movzx	 eax, BYTE PTR [edi+108]
  0047a	8b ce		 mov	 ecx, esi
  0047c	6a 00		 push	 0
  0047e	40		 inc	 eax
  0047f	50		 push	 eax
  00480	0f b6 47 04	 movzx	 eax, BYTE PTR [edi+4]
  00484	6a 02		 push	 2
  00486	50		 push	 eax
  00487	e8 00 00 00 00	 call	 ?UpdateItem@CMover@@QAEXEDKK@Z ; CMover::UpdateItem

; 1384 : 				CMover* pBarunaPet = NULL;
; 1385 : 				pBarunaPet = prj.GetMover( pUser->GetEatPetId( ) );

  0048c	ff b6 74 06 00
	00		 push	 DWORD PTR [esi+1652]
  00492	b9 00 00 00 00	 mov	 ecx, OFFSET ?prj@@3VCProject@@A ; prj
  00497	e8 00 00 00 00	 call	 ?GetMover@CProject@@QAEPAVCMover@@K@Z ; CProject::GetMover

; 1386 :  				if( pBarunaPet )

  0049c	85 c0		 test	 eax, eax
  0049e	0f 84 19 01 00
	00		 je	 $LN14@EnchantBar

; 1387 : 				{
; 1388 : 					g_UserMng.AddCreateSfxObj( pBarunaPet, XI_GEN_LEVEL_UP01 );

  004a4	6a 00		 push	 0
  004a6	83 ec 0c	 sub	 esp, 12			; 0000000cH
  004a9	b9 00 00 00 00	 mov	 ecx, OFFSET ?g_UserMng@@3VCUserMng@@A ; g_UserMng
  004ae	c7 44 24 08 00
	00 00 00	 mov	 DWORD PTR [esp+8], 0
  004b6	c7 44 24 04 00
	00 00 00	 mov	 DWORD PTR [esp+4], 0
  004be	c7 04 24 00 00
	00 00		 mov	 DWORD PTR [esp], 0
  004c5	6a 2a		 push	 42			; 0000002aH
  004c7	50		 push	 eax
  004c8	e8 00 00 00 00	 call	 ?AddCreateSfxObj@CUserMng@@QAEXPAVCCtrl@@KMMMH@Z ; CUserMng::AddCreateSfxObj

; 1389 : 				}
; 1390 : 			}

  004cd	e9 eb 00 00 00	 jmp	 $LN14@EnchantBar
$LN25@EnchantBar:

; 1391 : 			else
; 1392 : 				pUser->UpdateItem( pItemElem->m_dwObjId, UI_REPAIR_NUM, pItemElem->m_nRepair + 1 );

  004d2	53		 push	 ebx
  004d3	6a 0c		 push	 12			; 0000000cH
  004d5	ff b5 2c ff ff
	ff		 push	 DWORD PTR tv888[ebp]
  004db	e8 00 00 00 00	 call	 ?UpdateItem@CMover@@QAEXEDKK@Z ; CMover::UpdateItem

; 1393 : 		}
; 1394 : 	}

  004e0	e9 d8 00 00 00	 jmp	 $LN14@EnchantBar
$LN13@EnchantBar:

; 1395 : 	else
; 1396 : 	{
; 1397 : 		pUser->AddDefinedText( TID_MMI_NEWSMELT_NEWSMELT03 );

  004e5	68 92 11 00 00	 push	 4498			; 00001192H
  004ea	e8 00 00 00 00	 call	 ?AddDefinedText@CUser@@QAEXH@Z ; CUser::AddDefinedText

; 1398 : 		pUser->AddPlaySound( SND_INF_UPGRADESUCCESS );

  004ef	6a 0e		 push	 14			; 0000000eH
  004f1	8b ce		 mov	 ecx, esi
  004f3	e8 00 00 00 00	 call	 ?AddPlaySound@CUser@@QAEXK@Z ; CUser::AddPlaySound
; File C:\IAGOS\server\v18\Source\Source\_Common\Mover.h

; 1740 : 		if( GetAdjParam(DST_CHRSTATE) & CHS_INVISIBILITY )	// ĖČ╣²┼§ĖĒ╚Ł░Ī ░╔Ę╚┤┬░Ī?

  004f8	6a 40		 push	 64			; 00000040H
  004fa	8b ce		 mov	 ecx, esi
  004fc	e8 00 00 00 00	 call	 ?GetAdjParam@CMover@@QAEHH@Z ; CMover::GetAdjParam
  00501	a9 00 04 00 00	 test	 eax, 1024		; 00000400H
  00506	75 7f		 jne	 SHORT $LN28@EnchantBar
; File C:\IAGOS\server\v18\Source\Source\WorldServer\ItemUpgrade.cpp

; 1400 : 		if((pUser->IsMode( TRANSPARENT_MODE ) ) == 0)

  00508	f6 86 40 02 00
	00 02		 test	 BYTE PTR [esi+576], 2
  0050f	75 76		 jne	 SHORT $LN28@EnchantBar
; File C:\IAGOS\server\v18\Source\Source\_Common\Obj.h

; 215  : 	D3DXVECTOR3		GetPos()	{ return m_vPos; }

  00511	f3 0f 7e 86 60
	01 00 00	 movq	 xmm0, QWORD PTR [esi+352]
; File C:\IAGOS\server\v18\Source\Source\WorldServer\ItemUpgrade.cpp

; 1401 : 			g_UserMng.AddCreateSfxObj((CMover *)pUser, XI_INT_SUCCESS, pUser->GetPos().x, pUser->GetPos().y, pUser->GetPos().z);

  00519	b9 00 00 00 00	 mov	 ecx, OFFSET ?g_UserMng@@3VCUserMng@@A ; g_UserMng
; File C:\IAGOS\server\v18\Source\Source\_Common\Obj.h

; 215  : 	D3DXVECTOR3		GetPos()	{ return m_vPos; }

  0051e	8b 86 68 01 00
	00		 mov	 eax, DWORD PTR [esi+360]
  00524	66 0f d6 85 f8
	fe ff ff	 movq	 QWORD PTR $T2[ebp], xmm0
  0052c	f3 0f 7e c0	 movq	 xmm0, xmm0
  00530	66 0f d6 85 04
	ff ff ff	 movq	 QWORD PTR $T4[ebp], xmm0
  00538	f3 0f 7e 86 60
	01 00 00	 movq	 xmm0, QWORD PTR [esi+352]
; File C:\IAGOS\server\v18\Source\Source\WorldServer\ItemUpgrade.cpp

; 1401 : 			g_UserMng.AddCreateSfxObj((CMover *)pUser, XI_INT_SUCCESS, pUser->GetPos().x, pUser->GetPos().y, pUser->GetPos().z);

  00540	6a 00		 push	 0
  00542	83 ec 0c	 sub	 esp, 12			; 0000000cH
; File C:\IAGOS\server\v18\Source\Source\_Common\Obj.h

; 215  : 	D3DXVECTOR3		GetPos()	{ return m_vPos; }

  00545	66 0f d6 85 10
	ff ff ff	 movq	 QWORD PTR $T6[ebp], xmm0
  0054d	89 85 00 ff ff
	ff		 mov	 DWORD PTR $T2[ebp+8], eax
; File C:\IAGOS\server\v18\Source\Source\WorldServer\ItemUpgrade.cpp

; 1401 : 			g_UserMng.AddCreateSfxObj((CMover *)pUser, XI_INT_SUCCESS, pUser->GetPos().x, pUser->GetPos().y, pUser->GetPos().z);

  00553	f3 0f 10 85 00
	ff ff ff	 movss	 xmm0, DWORD PTR $T2[ebp+8]
  0055b	f3 0f 11 44 24
	08		 movss	 DWORD PTR [esp+8], xmm0
  00561	f3 0f 10 85 08
	ff ff ff	 movss	 xmm0, DWORD PTR $T4[ebp+4]
  00569	f3 0f 11 44 24
	04		 movss	 DWORD PTR [esp+4], xmm0
  0056f	f3 0f 10 85 10
	ff ff ff	 movss	 xmm0, DWORD PTR $T6[ebp]
  00577	f3 0f 11 04 24	 movss	 DWORD PTR [esp], xmm0
  0057c	68 b2 06 00 00	 push	 1714			; 000006b2H
  00581	56		 push	 esi
  00582	e8 00 00 00 00	 call	 ?AddCreateSfxObj@CUserMng@@QAEXPAVCCtrl@@KMMMH@Z ; CUserMng::AddCreateSfxObj
$LN28@EnchantBar:

; 1402 : 
; 1403 : 		pUser->UpdateItem( (BYTE)pItemMain->m_dwObjId, UI_AO,  pItemMain->GetAbilityOption()+1 );

  00587	8b 47 64	 mov	 eax, DWORD PTR [edi+100]
  0058a	8b ce		 mov	 ecx, esi
  0058c	6a 00		 push	 0
  0058e	40		 inc	 eax
  0058f	50		 push	 eax
  00590	0f b6 47 04	 movzx	 eax, BYTE PTR [edi+4]
  00594	6a 03		 push	 3
  00596	50		 push	 eax
  00597	e8 00 00 00 00	 call	 ?UpdateItem@CMover@@QAEXEDKK@Z ; CMover::UpdateItem

; 1404 : 		aLogItem.Action = "H";
; 1405 : 		g_DPSrvr.OnLogItem( aLogItem, pItemMain, pItemMain->m_nItemNum );

  0059c	0f bf 47 74	 movsx	 eax, WORD PTR [edi+116]
  005a0	b9 00 00 00 00	 mov	 ecx, OFFSET ?g_DPSrvr@@3VCDPSrvr@@A ; g_DPSrvr
  005a5	50		 push	 eax
  005a6	57		 push	 edi
  005a7	8d 85 34 ff ff
	ff		 lea	 eax, DWORD PTR _aLogItem$[ebp]
  005ad	c7 85 34 ff ff
	ff 00 00 00 00	 mov	 DWORD PTR _aLogItem$[ebp], OFFSET ??_C@_01IGIGCIAN@H@
  005b7	50		 push	 eax
  005b8	e8 00 00 00 00	 call	 ?OnLogItem@CDPSrvr@@QAEXAAU_LogItemInfo@@PAVCItemElem@@H@Z ; CDPSrvr::OnLogItem
$LN14@EnchantBar:

; 1406 : 	}
; 1407 : 	aLogItem.Action = "N";
; 1408 : 	g_DPSrvr.OnLogItem( aLogItem, pItemMaterial, pItemMaterial->m_nItemNum );

  005bd	8b 9d 20 ff ff
	ff		 mov	 ebx, DWORD PTR _pItemMaterial$GSCopy$1$[ebp]
  005c3	b9 00 00 00 00	 mov	 ecx, OFFSET ?g_DPSrvr@@3VCDPSrvr@@A ; g_DPSrvr
  005c8	c7 85 34 ff ff
	ff 00 00 00 00	 mov	 DWORD PTR _aLogItem$[ebp], OFFSET ??_C@_01NANMIPIL@N@
  005d2	0f bf 43 74	 movsx	 eax, WORD PTR [ebx+116]
  005d6	50		 push	 eax
  005d7	53		 push	 ebx
  005d8	8d 85 34 ff ff
	ff		 lea	 eax, DWORD PTR _aLogItem$[ebp]
  005de	50		 push	 eax
  005df	e8 00 00 00 00	 call	 ?OnLogItem@CDPSrvr@@QAEXAAU_LogItemInfo@@PAVCItemElem@@H@Z ; CDPSrvr::OnLogItem

; 1409 : 
; 1410 : 	pUser->RemoveItem( (BYTE)( pItemMaterial->m_dwObjId ), (short)1 );

  005e4	0f b6 43 04	 movzx	 eax, BYTE PTR [ebx+4]
  005e8	8b ce		 mov	 ecx, esi
  005ea	6a 01		 push	 1
  005ec	50		 push	 eax
  005ed	e8 00 00 00 00	 call	 ?RemoveItem@CMover@@QAEXEF@Z ; CMover::RemoveItem
  005f2	5f		 pop	 edi

; 1411 : }

  005f3	5e		 pop	 esi
  005f4	5b		 pop	 ebx
  005f5	8b 4d fc	 mov	 ecx, DWORD PTR __$ArrayPad$[ebp]
  005f8	33 cd		 xor	 ecx, ebp
  005fa	e8 00 00 00 00	 call	 @__security_check_cookie@4
  005ff	8b e5		 mov	 esp, ebp
  00601	5d		 pop	 ebp
  00602	c2 14 00	 ret	 20			; 00000014H
$LN4@EnchantBar:

; 1284 : 	{
; 1285 : 		pUser->AddDefinedText( TID_MMI_NEWSMELT_CID01 );

  00605	68 7b 11 00 00	 push	 4475			; 0000117bH
$LN131@EnchantBar:

; 1411 : }

  0060a	8b ce		 mov	 ecx, esi
  0060c	e8 00 00 00 00	 call	 ?AddDefinedText@CUser@@QAEXH@Z ; CUser::AddDefinedText
$LN1@EnchantBar:
  00611	8b 4d fc	 mov	 ecx, DWORD PTR __$ArrayPad$[ebp]
  00614	5f		 pop	 edi
  00615	5e		 pop	 esi
  00616	33 cd		 xor	 ecx, ebp
  00618	5b		 pop	 ebx
  00619	e8 00 00 00 00	 call	 @__security_check_cookie@4
  0061e	8b e5		 mov	 esp, ebp
  00620	5d		 pop	 ebp
  00621	c2 14 00	 ret	 20			; 00000014H
?EnchantBaruna@CItemUpgrade@@QAEXPAVCUser@@PAVCItemElem@@111@Z ENDP ; CItemUpgrade::EnchantBaruna
_TEXT	ENDS
; Function compile flags: /Ogtp
; File C:\IAGOS\server\v18\Source\Source\WorldServer\ItemUpgrade.cpp
; File C:\IAGOS\server\v18\Source\Source\_Common\Item.h
; File C:\IAGOS\server\v18\Source\Source\WorldServer\ItemUpgrade.cpp
; File C:\IAGOS\server\v18\Source\Source\_Common\Project.h
; File C:\IAGOS\server\v18\Source\Source\_Common\data.h
; File C:\IAGOS\server\v18\Source\Source\_Common\Project.h
; File C:\IAGOS\server\v18\Source\Source\WorldServer\ItemUpgrade.cpp
; File C:\IAGOS\server\v18\Source\Source\_Common\Item.h
; File C:\IAGOS\server\v18\Source\Source\_Common\Project.h
; File C:\IAGOS\server\v18\Source\Source\_Common\data.h
; File C:\IAGOS\server\v18\Source\Source\_Common\Project.h
; File C:\IAGOS\server\v18\Source\Source\WorldServer\ItemUpgrade.cpp
; File C:\IAGOS\server\v18\Source\Source\_Common\Item.h
; File C:\IAGOS\server\v18\Source\Source\_Common\Project.h
; File C:\IAGOS\server\v18\Source\Source\_Common\data.h
; File C:\IAGOS\server\v18\Source\Source\_Common\Project.h
; File C:\IAGOS\server\v18\Source\Source\WorldServer\ItemUpgrade.cpp
; File C:\IAGOS\server\v18\Source\Source\_Common\Project.h
; File C:\IAGOS\server\v18\Source\Source\WorldServer\ItemUpgrade.cpp
; File C:\IAGOS\server\v18\Source\Source\_Common\Project.h
; File C:\IAGOS\server\v18\Source\Source\_Common\data.h
; File C:\IAGOS\server\v18\Source\Source\WorldServer\ItemUpgrade.cpp
; File C:\IAGOS\server\v18\Source\Source\_Common\Project.h
; File C:\IAGOS\server\v18\Source\Source\WorldServer\ItemUpgrade.cpp
;	COMDAT ?CreateStone@CItemUpgrade@@QAEXPAVCUser@@PAVCItemElem@@11@Z
_TEXT	SEGMENT
_pPowder$GSCopy$1$ = -372				; size = 4
_itemElemTemp$ = -368					; size = 176
_itemElem$ = -192					; size = 176
__$ArrayPad$ = -16					; size = 4
__$EHRec$ = -12						; size = 12
_pUser$ = 8						; size = 4
_pCrystal$ = 12						; size = 4
_pChaosGem$ = 16					; size = 4
_pPowder$ = 20						; size = 4
?CreateStone@CItemUpgrade@@QAEXPAVCUser@@PAVCItemElem@@11@Z PROC ; CItemUpgrade::CreateStone, COMDAT
; _this$ = ecx

; 1598 : {

  00000	55		 push	 ebp
  00001	8b ec		 mov	 ebp, esp
  00003	6a ff		 push	 -1
  00005	68 00 00 00 00	 push	 __ehhandler$?CreateStone@CItemUpgrade@@QAEXPAVCUser@@PAVCItemElem@@11@Z
  0000a	64 a1 00 00 00
	00		 mov	 eax, DWORD PTR fs:0
  00010	50		 push	 eax
  00011	81 ec 68 01 00
	00		 sub	 esp, 360		; 00000168H
  00017	a1 00 00 00 00	 mov	 eax, DWORD PTR ___security_cookie
  0001c	33 c5		 xor	 eax, ebp
  0001e	89 45 f0	 mov	 DWORD PTR __$ArrayPad$[ebp], eax
  00021	53		 push	 ebx
  00022	56		 push	 esi
  00023	57		 push	 edi
  00024	50		 push	 eax
  00025	8d 45 f4	 lea	 eax, DWORD PTR __$EHRec$[ebp]
  00028	64 a3 00 00 00
	00		 mov	 DWORD PTR fs:0, eax
  0002e	8b 7d 0c	 mov	 edi, DWORD PTR _pCrystal$[ebp]
  00031	8b 45 14	 mov	 eax, DWORD PTR _pPowder$[ebp]
  00034	8b 75 08	 mov	 esi, DWORD PTR _pUser$[ebp]
  00037	8b 5d 10	 mov	 ebx, DWORD PTR _pChaosGem$[ebp]
; File C:\IAGOS\server\v18\Source\Source\_Common\Item.h

; 230  : 	ItemProp*	GetProp()	{	return prj.GetItemProp( m_dwItemId );	}

  0003a	8b 4f 0c	 mov	 ecx, DWORD PTR [edi+12]
; File C:\IAGOS\server\v18\Source\Source\WorldServer\ItemUpgrade.cpp

; 1598 : {

  0003d	89 85 8c fe ff
	ff		 mov	 DWORD PTR _pPowder$GSCopy$1$[ebp], eax
; File C:\IAGOS\server\v18\Source\Source\_Common\Project.h

; 1389 : 	VERIFY_RANGE_ASSERT( nIndex, 0, m_aPropItem.GetSize(), "GetItemProp range_error", NULL );

  00043	a1 40 02 00 00	 mov	 eax, DWORD PTR ?prj@@3VCProject@@A+576
  00048	85 c9		 test	 ecx, ecx
  0004a	78 11		 js	 SHORT $LN19@CreateSton
  0004c	3b c8		 cmp	 ecx, eax
  0004e	7d 0d		 jge	 SHORT $LN19@CreateSton
; File C:\IAGOS\server\v18\Source\Source\_Common\data.h

; 270  : 	if( dwIndex >= (DWORD)m_nMaxIndex )

  00050	8b 15 30 02 00
	00		 mov	 edx, DWORD PTR ?prj@@3VCProject@@A+560
  00056	73 26		 jae	 SHORT $LN69@CreateSton

; 272  : 	return (T*) m_apOffset[ dwIndex ];

  00058	8b 0c 8a	 mov	 ecx, DWORD PTR [edx+ecx*4]
; File C:\IAGOS\server\v18\Source\Source\_Common\Project.h

; 1390 : 	return m_aPropItem.GetAt( nIndex ); 

  0005b	eb 23		 jmp	 SHORT $LN14@CreateSton
$LN19@CreateSton:

; 579  : 	LPCTSTR szErr = Error( _T( "%s min:%d, max:%d, index:%d" ), szMsg, nMin, nMax, nIndex ); 

  0005d	51		 push	 ecx
  0005e	50		 push	 eax
  0005f	6a 00		 push	 0
  00061	68 00 00 00 00	 push	 OFFSET ??_C@_0BI@BEIFNGEL@GetItemProp?5range_error@
  00066	68 00 00 00 00	 push	 OFFSET ??_C@_0BM@HMFGHCP@?$CFs?5min?3?$CFd?0?5max?3?$CFd?0?5index?3?$CFd@
  0006b	e8 00 00 00 00	 call	 ?Error@@YAPBDPBDZZ	; Error

; 1389 : 	VERIFY_RANGE_ASSERT( nIndex, 0, m_aPropItem.GetSize(), "GetItemProp range_error", NULL );

  00070	a1 40 02 00 00	 mov	 eax, DWORD PTR ?prj@@3VCProject@@A+576

; 579  : 	LPCTSTR szErr = Error( _T( "%s min:%d, max:%d, index:%d" ), szMsg, nMin, nMax, nIndex ); 

  00075	83 c4 14	 add	 esp, 20			; 00000014H

; 1389 : 	VERIFY_RANGE_ASSERT( nIndex, 0, m_aPropItem.GetSize(), "GetItemProp range_error", NULL );

  00078	8b 15 30 02 00
	00		 mov	 edx, DWORD PTR ?prj@@3VCProject@@A+560
$LN69@CreateSton:
; File C:\IAGOS\server\v18\Source\Source\WorldServer\ItemUpgrade.cpp

; 1599 : 	if( pCrystal->GetProp()->dwID != II_GEN_MAT_CID )

  0007e	33 c9		 xor	 ecx, ecx
$LN14@CreateSton:
  00080	81 39 7d 1b 00
	00		 cmp	 DWORD PTR [ecx], 7037	; 00001b7dH
  00086	0f 85 b3 01 00
	00		 jne	 $LN1@CreateSton
; File C:\IAGOS\server\v18\Source\Source\_Common\Item.h

; 230  : 	ItemProp*	GetProp()	{	return prj.GetItemProp( m_dwItemId );	}

  0008c	8b 4b 0c	 mov	 ecx, DWORD PTR [ebx+12]
; File C:\IAGOS\server\v18\Source\Source\_Common\Project.h

; 1389 : 	VERIFY_RANGE_ASSERT( nIndex, 0, m_aPropItem.GetSize(), "GetItemProp range_error", NULL );

  0008f	85 c9		 test	 ecx, ecx
  00091	78 0b		 js	 SHORT $LN33@CreateSton
  00093	3b c8		 cmp	 ecx, eax
  00095	7d 07		 jge	 SHORT $LN33@CreateSton
; File C:\IAGOS\server\v18\Source\Source\_Common\data.h

; 270  : 	if( dwIndex >= (DWORD)m_nMaxIndex )

  00097	73 26		 jae	 SHORT $LN70@CreateSton

; 272  : 	return (T*) m_apOffset[ dwIndex ];

  00099	8b 0c 8a	 mov	 ecx, DWORD PTR [edx+ecx*4]
; File C:\IAGOS\server\v18\Source\Source\_Common\Project.h

; 1390 : 	return m_aPropItem.GetAt( nIndex ); 

  0009c	eb 23		 jmp	 SHORT $LN28@CreateSton
$LN33@CreateSton:

; 579  : 	LPCTSTR szErr = Error( _T( "%s min:%d, max:%d, index:%d" ), szMsg, nMin, nMax, nIndex ); 

  0009e	51		 push	 ecx
  0009f	50		 push	 eax
  000a0	6a 00		 push	 0
  000a2	68 00 00 00 00	 push	 OFFSET ??_C@_0BI@BEIFNGEL@GetItemProp?5range_error@
  000a7	68 00 00 00 00	 push	 OFFSET ??_C@_0BM@HMFGHCP@?$CFs?5min?3?$CFd?0?5max?3?$CFd?0?5index?3?$CFd@
  000ac	e8 00 00 00 00	 call	 ?Error@@YAPBDPBDZZ	; Error

; 1389 : 	VERIFY_RANGE_ASSERT( nIndex, 0, m_aPropItem.GetSize(), "GetItemProp range_error", NULL );

  000b1	a1 40 02 00 00	 mov	 eax, DWORD PTR ?prj@@3VCProject@@A+576

; 579  : 	LPCTSTR szErr = Error( _T( "%s min:%d, max:%d, index:%d" ), szMsg, nMin, nMax, nIndex ); 

  000b6	83 c4 14	 add	 esp, 20			; 00000014H

; 1389 : 	VERIFY_RANGE_ASSERT( nIndex, 0, m_aPropItem.GetSize(), "GetItemProp range_error", NULL );

  000b9	8b 15 30 02 00
	00		 mov	 edx, DWORD PTR ?prj@@3VCProject@@A+560
$LN70@CreateSton:
; File C:\IAGOS\server\v18\Source\Source\WorldServer\ItemUpgrade.cpp

; 1601 : 	if( pChaosGem->GetProp()->dwID != II_GEN_MAT_OPER )

  000bf	33 c9		 xor	 ecx, ecx
$LN28@CreateSton:
  000c1	81 39 80 1b 00
	00		 cmp	 DWORD PTR [ecx], 7040	; 00001b80H
  000c7	0f 85 72 01 00
	00		 jne	 $LN1@CreateSton
; File C:\IAGOS\server\v18\Source\Source\_Common\Item.h

; 230  : 	ItemProp*	GetProp()	{	return prj.GetItemProp( m_dwItemId );	}

  000cd	8b 8d 8c fe ff
	ff		 mov	 ecx, DWORD PTR _pPowder$GSCopy$1$[ebp]
  000d3	8b 49 0c	 mov	 ecx, DWORD PTR [ecx+12]
; File C:\IAGOS\server\v18\Source\Source\_Common\Project.h

; 1389 : 	VERIFY_RANGE_ASSERT( nIndex, 0, m_aPropItem.GetSize(), "GetItemProp range_error", NULL );

  000d6	85 c9		 test	 ecx, ecx
  000d8	78 0b		 js	 SHORT $LN47@CreateSton
  000da	3b c8		 cmp	 ecx, eax
  000dc	7d 07		 jge	 SHORT $LN47@CreateSton
; File C:\IAGOS\server\v18\Source\Source\_Common\data.h

; 270  : 	if( dwIndex >= (DWORD)m_nMaxIndex )

  000de	73 1b		 jae	 SHORT $LN71@CreateSton

; 272  : 	return (T*) m_apOffset[ dwIndex ];

  000e0	8b 04 8a	 mov	 eax, DWORD PTR [edx+ecx*4]
; File C:\IAGOS\server\v18\Source\Source\_Common\Project.h

; 1390 : 	return m_aPropItem.GetAt( nIndex ); 

  000e3	eb 18		 jmp	 SHORT $LN42@CreateSton
$LN47@CreateSton:

; 579  : 	LPCTSTR szErr = Error( _T( "%s min:%d, max:%d, index:%d" ), szMsg, nMin, nMax, nIndex ); 

  000e5	51		 push	 ecx
  000e6	50		 push	 eax
  000e7	6a 00		 push	 0
  000e9	68 00 00 00 00	 push	 OFFSET ??_C@_0BI@BEIFNGEL@GetItemProp?5range_error@
  000ee	68 00 00 00 00	 push	 OFFSET ??_C@_0BM@HMFGHCP@?$CFs?5min?3?$CFd?0?5max?3?$CFd?0?5index?3?$CFd@
  000f3	e8 00 00 00 00	 call	 ?Error@@YAPBDPBDZZ	; Error
  000f8	83 c4 14	 add	 esp, 20			; 00000014H
$LN71@CreateSton:
; File C:\IAGOS\server\v18\Source\Source\WorldServer\ItemUpgrade.cpp

; 1603 : 	if( pPowder->GetProp()->dwID != II_GEN_MAT_BARYUMMEAL )

  000fb	33 c0		 xor	 eax, eax
$LN42@CreateSton:
  000fd	81 38 83 1b 00
	00		 cmp	 DWORD PTR [eax], 7043	; 00001b83H
  00103	0f 85 36 01 00
	00		 jne	 $LN1@CreateSton

; 1606 : 	CItemElem itemElemTemp;

  00109	8d 8d 90 fe ff
	ff		 lea	 ecx, DWORD PTR _itemElemTemp$[ebp]
  0010f	e8 00 00 00 00	 call	 ??0CItemElem@@QAE@XZ	; CItemElem::CItemElem
; File C:\IAGOS\server\v18\Source\Source\_Common\Project.h

; 1389 : 	VERIFY_RANGE_ASSERT( nIndex, 0, m_aPropItem.GetSize(), "GetItemProp range_error", NULL );

  00114	a1 40 02 00 00	 mov	 eax, DWORD PTR ?prj@@3VCProject@@A+576
; File C:\IAGOS\server\v18\Source\Source\WorldServer\ItemUpgrade.cpp

; 1606 : 	CItemElem itemElemTemp;

  00119	c7 45 fc 00 00
	00 00		 mov	 DWORD PTR __$EHRec$[ebp+8], 0

; 1607 : 	itemElemTemp.m_dwItemId = II_GEN_MAT_OPERCID;

  00120	c7 85 9c fe ff
	ff 89 1b 00 00	 mov	 DWORD PTR _itemElemTemp$[ebp+12], 7049 ; 00001b89H
; File C:\IAGOS\server\v18\Source\Source\_Common\Project.h

; 1389 : 	VERIFY_RANGE_ASSERT( nIndex, 0, m_aPropItem.GetSize(), "GetItemProp range_error", NULL );

  0012a	3d 89 1b 00 00	 cmp	 eax, 7049		; 00001b89H
  0012f	0f 8e e5 00 00
	00		 jle	 $LN61@CreateSton
; File C:\IAGOS\server\v18\Source\Source\_Common\data.h

; 270  : 	if( dwIndex >= (DWORD)m_nMaxIndex )

  00135	77 04		 ja	 SHORT $LN66@CreateSton

; 271  : 		return NULL;

  00137	33 c9		 xor	 ecx, ecx
  00139	eb 0b		 jmp	 SHORT $LN65@CreateSton
$LN66@CreateSton:

; 272  : 	return (T*) m_apOffset[ dwIndex ];

  0013b	a1 30 02 00 00	 mov	 eax, DWORD PTR ?prj@@3VCProject@@A+560
  00140	8b 88 24 6e 00
	00		 mov	 ecx, DWORD PTR [eax+28196]
$LN65@CreateSton:
; File C:\IAGOS\server\v18\Source\Source\WorldServer\ItemUpgrade.cpp

; 1609 : 	if( !pItemprop )

  00146	85 c9		 test	 ecx, ecx
  00148	0f 84 e6 00 00
	00		 je	 $LN11@CreateSton

; 1610 : 		return;
; 1611 : 	if( (DWORD)( 1 ) > pItemprop->dwPackMax && pUser->m_Inventory.IsFull( &itemElemTemp, pItemprop, (short)( 1 - pItemprop->dwPackMax ) ) )

  0014e	8b 41 6c	 mov	 eax, DWORD PTR [ecx+108]
  00151	0f b7 d0	 movzx	 edx, ax
  00154	83 f8 01	 cmp	 eax, 1
  00157	73 30		 jae	 SHORT $LN6@CreateSton
  00159	b8 01 00 00 00	 mov	 eax, 1
  0015e	2b c2		 sub	 eax, edx
  00160	50		 push	 eax
  00161	51		 push	 ecx
  00162	8d 85 90 fe ff
	ff		 lea	 eax, DWORD PTR _itemElemTemp$[ebp]
  00168	50		 push	 eax
  00169	8d 8e fc 0a 00
	00		 lea	 ecx, DWORD PTR [esi+2812]
  0016f	e8 00 00 00 00	 call	 ?IsFull@?$CItemContainer@VCItemElem@@@@QAEHPAVCItemElem@@PAUItemProp@@F@Z ; CItemContainer<CItemElem>::IsFull
  00174	85 c0		 test	 eax, eax
  00176	74 11		 je	 SHORT $LN6@CreateSton

; 1612 : 	{
; 1613 : 		pUser->AddDefinedText( TID_GAME_LACKSPACE );

  00178	68 72 02 00 00	 push	 626			; 00000272H
  0017d	8b ce		 mov	 ecx, esi
  0017f	e8 00 00 00 00	 call	 ?AddDefinedText@CUser@@QAEXH@Z ; CUser::AddDefinedText
  00184	e9 ab 00 00 00	 jmp	 $LN11@CreateSton
$LN6@CreateSton:

; 1614 : 		return;
; 1615 : 	}
; 1616 : 	CItemElem itemElem;

  00189	8d 8d 40 ff ff
	ff		 lea	 ecx, DWORD PTR _itemElem$[ebp]
  0018f	e8 00 00 00 00	 call	 ??0CItemElem@@QAE@XZ	; CItemElem::CItemElem

; 1617 : 	itemElem.m_dwItemId = II_GEN_MAT_OPERCID;
; 1618 : 	itemElem.m_nItemNum	= 1;

  00194	b8 01 00 00 00	 mov	 eax, 1
  00199	c6 45 fc 01	 mov	 BYTE PTR __$EHRec$[ebp+8], 1

; 1619 : 	itemElem.SetSerialNumber();

  0019d	8d 8d 40 ff ff
	ff		 lea	 ecx, DWORD PTR _itemElem$[ebp]
  001a3	c7 85 4c ff ff
	ff 89 1b 00 00	 mov	 DWORD PTR _itemElem$[ebp+12], 7049 ; 00001b89H
  001ad	66 89 45 b4	 mov	 WORD PTR _itemElem$[ebp+116], ax
  001b1	e8 00 00 00 00	 call	 ?SetSerialNumber@CItemBase@@QAEXXZ ; CItemBase::SetSerialNumber

; 1620 : 	itemElem.m_nHitPoint	= 0;		
; 1621 : 	pUser->CreateItem( &itemElem );

  001b6	6a 00		 push	 0
  001b8	6a 00		 push	 0
  001ba	6a 00		 push	 0
  001bc	8d 85 40 ff ff
	ff		 lea	 eax, DWORD PTR _itemElem$[ebp]
  001c2	c7 45 b0 00 00
	00 00		 mov	 DWORD PTR _itemElem$[ebp+112], 0
  001c9	50		 push	 eax
  001ca	8b ce		 mov	 ecx, esi
  001cc	e8 00 00 00 00	 call	 ?CreateItem@CMover@@QAEHPAVCItemBase@@PAEPAFE@Z ; CMover::CreateItem

; 1622 : 	pUser->AddDefinedText( TID_MMI_NEWSMELT_OPERCID04 );

  001d1	68 8f 11 00 00	 push	 4495			; 0000118fH
  001d6	8b ce		 mov	 ecx, esi
  001d8	e8 00 00 00 00	 call	 ?AddDefinedText@CUser@@QAEXH@Z ; CUser::AddDefinedText

; 1623 : 
; 1624 : 	pUser->RemoveItem( (BYTE)( pCrystal->m_dwObjId ), (short)1 );

  001dd	0f b6 47 04	 movzx	 eax, BYTE PTR [edi+4]
  001e1	8b ce		 mov	 ecx, esi
  001e3	6a 01		 push	 1
  001e5	50		 push	 eax
  001e6	e8 00 00 00 00	 call	 ?RemoveItem@CMover@@QAEXEF@Z ; CMover::RemoveItem

; 1625 : 	pUser->RemoveItem( (BYTE)( pChaosGem->m_dwObjId ), (short)1 );

  001eb	0f b6 43 04	 movzx	 eax, BYTE PTR [ebx+4]
  001ef	8b ce		 mov	 ecx, esi
  001f1	6a 01		 push	 1
  001f3	50		 push	 eax
  001f4	e8 00 00 00 00	 call	 ?RemoveItem@CMover@@QAEXEF@Z ; CMover::RemoveItem

; 1626 : 	pUser->RemoveItem( (BYTE)( pPowder->m_dwObjId ), (short)1 );

  001f9	8b 85 8c fe ff
	ff		 mov	 eax, DWORD PTR _pPowder$GSCopy$1$[ebp]
  001ff	8b ce		 mov	 ecx, esi
  00201	6a 01		 push	 1
  00203	0f b6 40 04	 movzx	 eax, BYTE PTR [eax+4]
  00207	50		 push	 eax
  00208	e8 00 00 00 00	 call	 ?RemoveItem@CMover@@QAEXEF@Z ; CMover::RemoveItem

; 1627 : }

  0020d	8d 8d 40 ff ff
	ff		 lea	 ecx, DWORD PTR _itemElem$[ebp]
  00213	e8 00 00 00 00	 call	 ??1CItemElem@@UAE@XZ	; CItemElem::~CItemElem
  00218	eb 1a		 jmp	 SHORT $LN11@CreateSton
$LN61@CreateSton:
; File C:\IAGOS\server\v18\Source\Source\_Common\Project.h

; 579  : 	LPCTSTR szErr = Error( _T( "%s min:%d, max:%d, index:%d" ), szMsg, nMin, nMax, nIndex ); 

  0021a	68 89 1b 00 00	 push	 7049			; 00001b89H
  0021f	50		 push	 eax
  00220	6a 00		 push	 0
  00222	68 00 00 00 00	 push	 OFFSET ??_C@_0BI@BEIFNGEL@GetItemProp?5range_error@
  00227	68 00 00 00 00	 push	 OFFSET ??_C@_0BM@HMFGHCP@?$CFs?5min?3?$CFd?0?5max?3?$CFd?0?5index?3?$CFd@
  0022c	e8 00 00 00 00	 call	 ?Error@@YAPBDPBDZZ	; Error
  00231	83 c4 14	 add	 esp, 20			; 00000014H
$LN11@CreateSton:
; File C:\IAGOS\server\v18\Source\Source\WorldServer\ItemUpgrade.cpp

; 1627 : }

  00234	8d 8d 90 fe ff
	ff		 lea	 ecx, DWORD PTR _itemElemTemp$[ebp]
  0023a	e8 00 00 00 00	 call	 ??1CItemElem@@UAE@XZ	; CItemElem::~CItemElem
$LN1@CreateSton:
  0023f	8b 4d f4	 mov	 ecx, DWORD PTR __$EHRec$[ebp]
  00242	64 89 0d 00 00
	00 00		 mov	 DWORD PTR fs:0, ecx
  00249	59		 pop	 ecx
  0024a	5f		 pop	 edi
  0024b	5e		 pop	 esi
  0024c	5b		 pop	 ebx
  0024d	8b 4d f0	 mov	 ecx, DWORD PTR __$ArrayPad$[ebp]
  00250	33 cd		 xor	 ecx, ebp
  00252	e8 00 00 00 00	 call	 @__security_check_cookie@4
  00257	8b e5		 mov	 esp, ebp
  00259	5d		 pop	 ebp
  0025a	c2 10 00	 ret	 16			; 00000010H
_TEXT	ENDS
;	COMDAT text$x
text$x	SEGMENT
__unwindfunclet$?CreateStone@CItemUpgrade@@QAEXPAVCUser@@PAVCItemElem@@11@Z$0:
  00000	8d 8d 90 fe ff
	ff		 lea	 ecx, DWORD PTR _itemElemTemp$[ebp]
  00006	e9 00 00 00 00	 jmp	 ??1CItemElem@@UAE@XZ	; CItemElem::~CItemElem
__unwindfunclet$?CreateStone@CItemUpgrade@@QAEXPAVCUser@@PAVCItemElem@@11@Z$1:
  0000b	8d 8d 40 ff ff
	ff		 lea	 ecx, DWORD PTR _itemElem$[ebp]
  00011	e9 00 00 00 00	 jmp	 ??1CItemElem@@UAE@XZ	; CItemElem::~CItemElem
  00016	cc		 int	 3
  00017	cc		 int	 3
  00018	cc		 int	 3
  00019	cc		 int	 3
  0001a	cc		 int	 3
__ehhandler$?CreateStone@CItemUpgrade@@QAEXPAVCUser@@PAVCItemElem@@11@Z:
  0001b	90		 npad	 1
  0001c	90		 npad	 1
  0001d	8b 54 24 08	 mov	 edx, DWORD PTR [esp+8]
  00021	8d 42 0c	 lea	 eax, DWORD PTR [edx+12]
  00024	8b 8a 88 fe ff
	ff		 mov	 ecx, DWORD PTR [edx-376]
  0002a	33 c8		 xor	 ecx, eax
  0002c	e8 00 00 00 00	 call	 @__security_check_cookie@4
  00031	8b 4a fc	 mov	 ecx, DWORD PTR [edx-4]
  00034	33 c8		 xor	 ecx, eax
  00036	e8 00 00 00 00	 call	 @__security_check_cookie@4
  0003b	b8 00 00 00 00	 mov	 eax, OFFSET __ehfuncinfo$?CreateStone@CItemUpgrade@@QAEXPAVCUser@@PAVCItemElem@@11@Z
  00040	e9 00 00 00 00	 jmp	 ___CxxFrameHandler3
text$x	ENDS
?CreateStone@CItemUpgrade@@QAEXPAVCUser@@PAVCItemElem@@11@Z ENDP ; CItemUpgrade::CreateStone
; Function compile flags: /Ogtp
; File C:\IAGOS\server\v18\Source\Source\WorldServer\ItemUpgrade.cpp
; File C:\IAGOS\server\v18\Source\Source\_Common\Project.h
; File C:\IAGOS\server\v18\Source\Source\_Common\Item.h
; File C:\IAGOS\server\v18\Source\Source\_Common\Project.h
; File C:\IAGOS\server\v18\Source\Source\_Common\data.h
; File C:\IAGOS\server\v18\Source\Source\_Common\Project.h
; File C:\IAGOS\server\v18\Source\Source\WorldServer\ItemUpgrade.cpp
; File C:\IAGOS\server\v18\Source\Source\_Common\Item.h
; File C:\IAGOS\server\v18\Source\Source\_Common\Project.h
; File C:\IAGOS\server\v18\Source\Source\_Common\data.h
; File C:\IAGOS\server\v18\Source\Source\_Common\Project.h
; File C:\IAGOS\server\v18\Source\Source\WorldServer\ItemUpgrade.cpp
; File C:\IAGOS\server\v18\Source\Source\_Common\Project.h
; File C:\IAGOS\server\v18\Source\Source\WorldServer\ItemUpgrade.cpp
; File C:\IAGOS\server\v18\Source\Source\_Common\Project.h
; File C:\IAGOS\server\v18\Source\Source\_Common\data.h
; File C:\IAGOS\server\v18\Source\Source\WorldServer\ItemUpgrade.cpp
; File C:\IAGOS\server\v18\Source\Source\_Common\Project.h
; File C:\IAGOS\server\v18\Source\Source\WorldServer\ItemUpgrade.cpp
;	COMDAT ?CreateBarunaChaosGem@CItemUpgrade@@QAEXPAVCUser@@PAVCItemElem@@1@Z
_TEXT	SEGMENT
_itemElemTemp$ = -368					; size = 176
_itemElem$ = -192					; size = 176
__$ArrayPad$ = -16					; size = 4
__$EHRec$ = -12						; size = 12
_pUser$ = 8						; size = 4
_pChaosDreg$ = 12					; size = 4
_pPotion$ = 16						; size = 4
?CreateBarunaChaosGem@CItemUpgrade@@QAEXPAVCUser@@PAVCItemElem@@1@Z PROC ; CItemUpgrade::CreateBarunaChaosGem, COMDAT
; _this$ = ecx

; 1570 : {

  00000	55		 push	 ebp
  00001	8b ec		 mov	 ebp, esp
  00003	6a ff		 push	 -1
  00005	68 00 00 00 00	 push	 __ehhandler$?CreateBarunaChaosGem@CItemUpgrade@@QAEXPAVCUser@@PAVCItemElem@@1@Z
  0000a	64 a1 00 00 00
	00		 mov	 eax, DWORD PTR fs:0
  00010	50		 push	 eax
  00011	81 ec 64 01 00
	00		 sub	 esp, 356		; 00000164H
  00017	a1 00 00 00 00	 mov	 eax, DWORD PTR ___security_cookie
  0001c	33 c5		 xor	 eax, ebp
  0001e	89 45 f0	 mov	 DWORD PTR __$ArrayPad$[ebp], eax
  00021	53		 push	 ebx
  00022	56		 push	 esi
  00023	57		 push	 edi
  00024	50		 push	 eax
  00025	8d 45 f4	 lea	 eax, DWORD PTR __$EHRec$[ebp]
  00028	64 a3 00 00 00
	00		 mov	 DWORD PTR fs:0, eax
  0002e	8b 7d 0c	 mov	 edi, DWORD PTR _pChaosDreg$[ebp]
  00031	8b 75 08	 mov	 esi, DWORD PTR _pUser$[ebp]
  00034	8b 5d 10	 mov	 ebx, DWORD PTR _pPotion$[ebp]
; File C:\IAGOS\server\v18\Source\Source\_Common\Project.h

; 1389 : 	VERIFY_RANGE_ASSERT( nIndex, 0, m_aPropItem.GetSize(), "GetItemProp range_error", NULL );

  00037	a1 40 02 00 00	 mov	 eax, DWORD PTR ?prj@@3VCProject@@A+576
; File C:\IAGOS\server\v18\Source\Source\_Common\Item.h

; 230  : 	ItemProp*	GetProp()	{	return prj.GetItemProp( m_dwItemId );	}

  0003c	8b 4f 0c	 mov	 ecx, DWORD PTR [edi+12]
; File C:\IAGOS\server\v18\Source\Source\_Common\Project.h

; 1389 : 	VERIFY_RANGE_ASSERT( nIndex, 0, m_aPropItem.GetSize(), "GetItemProp range_error", NULL );

  0003f	85 c9		 test	 ecx, ecx
  00041	78 11		 js	 SHORT $LN18@CreateBaru
  00043	3b c8		 cmp	 ecx, eax
  00045	7d 0d		 jge	 SHORT $LN18@CreateBaru
; File C:\IAGOS\server\v18\Source\Source\_Common\data.h

; 270  : 	if( dwIndex >= (DWORD)m_nMaxIndex )

  00047	8b 15 30 02 00
	00		 mov	 edx, DWORD PTR ?prj@@3VCProject@@A+560
  0004d	73 26		 jae	 SHORT $LN54@CreateBaru

; 272  : 	return (T*) m_apOffset[ dwIndex ];

  0004f	8b 0c 8a	 mov	 ecx, DWORD PTR [edx+ecx*4]
; File C:\IAGOS\server\v18\Source\Source\_Common\Project.h

; 1390 : 	return m_aPropItem.GetAt( nIndex ); 

  00052	eb 23		 jmp	 SHORT $LN13@CreateBaru
$LN18@CreateBaru:

; 579  : 	LPCTSTR szErr = Error( _T( "%s min:%d, max:%d, index:%d" ), szMsg, nMin, nMax, nIndex ); 

  00054	51		 push	 ecx
  00055	50		 push	 eax
  00056	6a 00		 push	 0
  00058	68 00 00 00 00	 push	 OFFSET ??_C@_0BI@BEIFNGEL@GetItemProp?5range_error@
  0005d	68 00 00 00 00	 push	 OFFSET ??_C@_0BM@HMFGHCP@?$CFs?5min?3?$CFd?0?5max?3?$CFd?0?5index?3?$CFd@
  00062	e8 00 00 00 00	 call	 ?Error@@YAPBDPBDZZ	; Error

; 1389 : 	VERIFY_RANGE_ASSERT( nIndex, 0, m_aPropItem.GetSize(), "GetItemProp range_error", NULL );

  00067	a1 40 02 00 00	 mov	 eax, DWORD PTR ?prj@@3VCProject@@A+576

; 579  : 	LPCTSTR szErr = Error( _T( "%s min:%d, max:%d, index:%d" ), szMsg, nMin, nMax, nIndex ); 

  0006c	83 c4 14	 add	 esp, 20			; 00000014H

; 1389 : 	VERIFY_RANGE_ASSERT( nIndex, 0, m_aPropItem.GetSize(), "GetItemProp range_error", NULL );

  0006f	8b 15 30 02 00
	00		 mov	 edx, DWORD PTR ?prj@@3VCProject@@A+560
$LN54@CreateBaru:
; File C:\IAGOS\server\v18\Source\Source\WorldServer\ItemUpgrade.cpp

; 1571 : 	if( pChaosDreg->GetProp()->dwID != II_GEN_MAT_OPERPIECE )

  00075	33 c9		 xor	 ecx, ecx
$LN13@CreateBaru:
  00077	81 39 81 1b 00
	00		 cmp	 DWORD PTR [ecx], 7041	; 00001b81H
  0007d	0f 85 58 01 00
	00		 jne	 $LN1@CreateBaru
; File C:\IAGOS\server\v18\Source\Source\_Common\Item.h

; 230  : 	ItemProp*	GetProp()	{	return prj.GetItemProp( m_dwItemId );	}

  00083	8b 4b 0c	 mov	 ecx, DWORD PTR [ebx+12]
; File C:\IAGOS\server\v18\Source\Source\_Common\Project.h

; 1389 : 	VERIFY_RANGE_ASSERT( nIndex, 0, m_aPropItem.GetSize(), "GetItemProp range_error", NULL );

  00086	85 c9		 test	 ecx, ecx
  00088	78 0b		 js	 SHORT $LN32@CreateBaru
  0008a	3b c8		 cmp	 ecx, eax
  0008c	7d 07		 jge	 SHORT $LN32@CreateBaru
; File C:\IAGOS\server\v18\Source\Source\_Common\data.h

; 270  : 	if( dwIndex >= (DWORD)m_nMaxIndex )

  0008e	73 1b		 jae	 SHORT $LN55@CreateBaru

; 272  : 	return (T*) m_apOffset[ dwIndex ];

  00090	8b 04 8a	 mov	 eax, DWORD PTR [edx+ecx*4]
; File C:\IAGOS\server\v18\Source\Source\_Common\Project.h

; 1390 : 	return m_aPropItem.GetAt( nIndex ); 

  00093	eb 18		 jmp	 SHORT $LN27@CreateBaru
$LN32@CreateBaru:

; 579  : 	LPCTSTR szErr = Error( _T( "%s min:%d, max:%d, index:%d" ), szMsg, nMin, nMax, nIndex ); 

  00095	51		 push	 ecx
  00096	50		 push	 eax
  00097	6a 00		 push	 0
  00099	68 00 00 00 00	 push	 OFFSET ??_C@_0BI@BEIFNGEL@GetItemProp?5range_error@
  0009e	68 00 00 00 00	 push	 OFFSET ??_C@_0BM@HMFGHCP@?$CFs?5min?3?$CFd?0?5max?3?$CFd?0?5index?3?$CFd@
  000a3	e8 00 00 00 00	 call	 ?Error@@YAPBDPBDZZ	; Error
  000a8	83 c4 14	 add	 esp, 20			; 00000014H
$LN55@CreateBaru:
; File C:\IAGOS\server\v18\Source\Source\WorldServer\ItemUpgrade.cpp

; 1573 : 	if( pPotion->GetProp()->dwID != II_GEN_MAT_OPERMIX )

  000ab	33 c0		 xor	 eax, eax
$LN27@CreateBaru:
  000ad	81 38 82 1b 00
	00		 cmp	 DWORD PTR [eax], 7042	; 00001b82H
  000b3	0f 85 22 01 00
	00		 jne	 $LN1@CreateBaru

; 1576 : 	CItemElem itemElemTemp;

  000b9	8d 8d 90 fe ff
	ff		 lea	 ecx, DWORD PTR _itemElemTemp$[ebp]
  000bf	e8 00 00 00 00	 call	 ??0CItemElem@@QAE@XZ	; CItemElem::CItemElem
; File C:\IAGOS\server\v18\Source\Source\_Common\Project.h

; 1389 : 	VERIFY_RANGE_ASSERT( nIndex, 0, m_aPropItem.GetSize(), "GetItemProp range_error", NULL );

  000c4	a1 40 02 00 00	 mov	 eax, DWORD PTR ?prj@@3VCProject@@A+576
; File C:\IAGOS\server\v18\Source\Source\WorldServer\ItemUpgrade.cpp

; 1576 : 	CItemElem itemElemTemp;

  000c9	c7 45 fc 00 00
	00 00		 mov	 DWORD PTR __$EHRec$[ebp+8], 0

; 1577 : 	itemElemTemp.m_dwItemId = II_GEN_MAT_OPER;

  000d0	c7 85 9c fe ff
	ff 80 1b 00 00	 mov	 DWORD PTR _itemElemTemp$[ebp+12], 7040 ; 00001b80H
; File C:\IAGOS\server\v18\Source\Source\_Common\Project.h

; 1389 : 	VERIFY_RANGE_ASSERT( nIndex, 0, m_aPropItem.GetSize(), "GetItemProp range_error", NULL );

  000da	3d 80 1b 00 00	 cmp	 eax, 7040		; 00001b80H
  000df	0f 8e d1 00 00
	00		 jle	 $LN46@CreateBaru
; File C:\IAGOS\server\v18\Source\Source\_Common\data.h

; 270  : 	if( dwIndex >= (DWORD)m_nMaxIndex )

  000e5	77 04		 ja	 SHORT $LN51@CreateBaru

; 271  : 		return NULL;

  000e7	33 c9		 xor	 ecx, ecx
  000e9	eb 0b		 jmp	 SHORT $LN50@CreateBaru
$LN51@CreateBaru:

; 272  : 	return (T*) m_apOffset[ dwIndex ];

  000eb	a1 30 02 00 00	 mov	 eax, DWORD PTR ?prj@@3VCProject@@A+560
  000f0	8b 88 00 6e 00
	00		 mov	 ecx, DWORD PTR [eax+28160]
$LN50@CreateBaru:
; File C:\IAGOS\server\v18\Source\Source\WorldServer\ItemUpgrade.cpp

; 1579 : 	if( !pItemprop )

  000f6	85 c9		 test	 ecx, ecx
  000f8	0f 84 d2 00 00
	00		 je	 $LN10@CreateBaru

; 1580 : 		return;
; 1581 : 	if( (DWORD)( 1 ) > pItemprop->dwPackMax && pUser->m_Inventory.IsFull( &itemElemTemp, pItemprop, (short)( 1 - pItemprop->dwPackMax ) ) )

  000fe	8b 41 6c	 mov	 eax, DWORD PTR [ecx+108]
  00101	0f b7 d0	 movzx	 edx, ax
  00104	83 f8 01	 cmp	 eax, 1
  00107	73 30		 jae	 SHORT $LN5@CreateBaru
  00109	b8 01 00 00 00	 mov	 eax, 1
  0010e	2b c2		 sub	 eax, edx
  00110	50		 push	 eax
  00111	51		 push	 ecx
  00112	8d 85 90 fe ff
	ff		 lea	 eax, DWORD PTR _itemElemTemp$[ebp]
  00118	50		 push	 eax
  00119	8d 8e fc 0a 00
	00		 lea	 ecx, DWORD PTR [esi+2812]
  0011f	e8 00 00 00 00	 call	 ?IsFull@?$CItemContainer@VCItemElem@@@@QAEHPAVCItemElem@@PAUItemProp@@F@Z ; CItemContainer<CItemElem>::IsFull
  00124	85 c0		 test	 eax, eax
  00126	74 11		 je	 SHORT $LN5@CreateBaru

; 1582 : 	{
; 1583 : 		pUser->AddDefinedText( TID_GAME_LACKSPACE );

  00128	68 72 02 00 00	 push	 626			; 00000272H
  0012d	8b ce		 mov	 ecx, esi
  0012f	e8 00 00 00 00	 call	 ?AddDefinedText@CUser@@QAEXH@Z ; CUser::AddDefinedText
  00134	e9 97 00 00 00	 jmp	 $LN10@CreateBaru
$LN5@CreateBaru:

; 1584 : 		return;
; 1585 : 	}
; 1586 : 	CItemElem itemElem;

  00139	8d 8d 40 ff ff
	ff		 lea	 ecx, DWORD PTR _itemElem$[ebp]
  0013f	e8 00 00 00 00	 call	 ??0CItemElem@@QAE@XZ	; CItemElem::CItemElem

; 1587 : 	itemElem.m_dwItemId = II_GEN_MAT_OPER;
; 1588 : 	itemElem.m_nItemNum	= 1;

  00144	b8 01 00 00 00	 mov	 eax, 1
  00149	c6 45 fc 01	 mov	 BYTE PTR __$EHRec$[ebp+8], 1

; 1589 : 	itemElem.SetSerialNumber();

  0014d	8d 8d 40 ff ff
	ff		 lea	 ecx, DWORD PTR _itemElem$[ebp]
  00153	c7 85 4c ff ff
	ff 80 1b 00 00	 mov	 DWORD PTR _itemElem$[ebp+12], 7040 ; 00001b80H
  0015d	66 89 45 b4	 mov	 WORD PTR _itemElem$[ebp+116], ax
  00161	e8 00 00 00 00	 call	 ?SetSerialNumber@CItemBase@@QAEXXZ ; CItemBase::SetSerialNumber

; 1590 : 	itemElem.m_nHitPoint	= 0;		
; 1591 : 	pUser->CreateItem( &itemElem );

  00166	6a 00		 push	 0
  00168	6a 00		 push	 0
  0016a	6a 00		 push	 0
  0016c	8d 85 40 ff ff
	ff		 lea	 eax, DWORD PTR _itemElem$[ebp]
  00172	c7 45 b0 00 00
	00 00		 mov	 DWORD PTR _itemElem$[ebp+112], 0
  00179	50		 push	 eax
  0017a	8b ce		 mov	 ecx, esi
  0017c	e8 00 00 00 00	 call	 ?CreateItem@CMover@@QAEHPAVCItemBase@@PAEPAFE@Z ; CMover::CreateItem

; 1592 : 	pUser->AddDefinedText( TID_MMI_NEWSMELT_OPER04 );

  00181	68 86 11 00 00	 push	 4486			; 00001186H
  00186	8b ce		 mov	 ecx, esi
  00188	e8 00 00 00 00	 call	 ?AddDefinedText@CUser@@QAEXH@Z ; CUser::AddDefinedText

; 1593 : 
; 1594 : 	pUser->RemoveItem( (BYTE)( pChaosDreg->m_dwObjId ), (short)1 );

  0018d	0f b6 47 04	 movzx	 eax, BYTE PTR [edi+4]
  00191	8b ce		 mov	 ecx, esi
  00193	6a 01		 push	 1
  00195	50		 push	 eax
  00196	e8 00 00 00 00	 call	 ?RemoveItem@CMover@@QAEXEF@Z ; CMover::RemoveItem

; 1595 : 	pUser->RemoveItem( (BYTE)( pPotion->m_dwObjId ), (short)1 );

  0019b	0f b6 43 04	 movzx	 eax, BYTE PTR [ebx+4]
  0019f	8b ce		 mov	 ecx, esi
  001a1	6a 01		 push	 1
  001a3	50		 push	 eax
  001a4	e8 00 00 00 00	 call	 ?RemoveItem@CMover@@QAEXEF@Z ; CMover::RemoveItem

; 1596 : }

  001a9	8d 8d 40 ff ff
	ff		 lea	 ecx, DWORD PTR _itemElem$[ebp]
  001af	e8 00 00 00 00	 call	 ??1CItemElem@@UAE@XZ	; CItemElem::~CItemElem
  001b4	eb 1a		 jmp	 SHORT $LN10@CreateBaru
$LN46@CreateBaru:
; File C:\IAGOS\server\v18\Source\Source\_Common\Project.h

; 579  : 	LPCTSTR szErr = Error( _T( "%s min:%d, max:%d, index:%d" ), szMsg, nMin, nMax, nIndex ); 

  001b6	68 80 1b 00 00	 push	 7040			; 00001b80H
  001bb	50		 push	 eax
  001bc	6a 00		 push	 0
  001be	68 00 00 00 00	 push	 OFFSET ??_C@_0BI@BEIFNGEL@GetItemProp?5range_error@
  001c3	68 00 00 00 00	 push	 OFFSET ??_C@_0BM@HMFGHCP@?$CFs?5min?3?$CFd?0?5max?3?$CFd?0?5index?3?$CFd@
  001c8	e8 00 00 00 00	 call	 ?Error@@YAPBDPBDZZ	; Error
  001cd	83 c4 14	 add	 esp, 20			; 00000014H
$LN10@CreateBaru:
; File C:\IAGOS\server\v18\Source\Source\WorldServer\ItemUpgrade.cpp

; 1596 : }

  001d0	8d 8d 90 fe ff
	ff		 lea	 ecx, DWORD PTR _itemElemTemp$[ebp]
  001d6	e8 00 00 00 00	 call	 ??1CItemElem@@UAE@XZ	; CItemElem::~CItemElem
$LN1@CreateBaru:
  001db	8b 4d f4	 mov	 ecx, DWORD PTR __$EHRec$[ebp]
  001de	64 89 0d 00 00
	00 00		 mov	 DWORD PTR fs:0, ecx
  001e5	59		 pop	 ecx
  001e6	5f		 pop	 edi
  001e7	5e		 pop	 esi
  001e8	5b		 pop	 ebx
  001e9	8b 4d f0	 mov	 ecx, DWORD PTR __$ArrayPad$[ebp]
  001ec	33 cd		 xor	 ecx, ebp
  001ee	e8 00 00 00 00	 call	 @__security_check_cookie@4
  001f3	8b e5		 mov	 esp, ebp
  001f5	5d		 pop	 ebp
  001f6	c2 0c 00	 ret	 12			; 0000000cH
_TEXT	ENDS
;	COMDAT text$x
text$x	SEGMENT
__unwindfunclet$?CreateBarunaChaosGem@CItemUpgrade@@QAEXPAVCUser@@PAVCItemElem@@1@Z$0:
  00000	8d 8d 90 fe ff
	ff		 lea	 ecx, DWORD PTR _itemElemTemp$[ebp]
  00006	e9 00 00 00 00	 jmp	 ??1CItemElem@@UAE@XZ	; CItemElem::~CItemElem
__unwindfunclet$?CreateBarunaChaosGem@CItemUpgrade@@QAEXPAVCUser@@PAVCItemElem@@1@Z$1:
  0000b	8d 8d 40 ff ff
	ff		 lea	 ecx, DWORD PTR _itemElem$[ebp]
  00011	e9 00 00 00 00	 jmp	 ??1CItemElem@@UAE@XZ	; CItemElem::~CItemElem
  00016	cc		 int	 3
  00017	cc		 int	 3
  00018	cc		 int	 3
  00019	cc		 int	 3
  0001a	cc		 int	 3
__ehhandler$?CreateBarunaChaosGem@CItemUpgrade@@QAEXPAVCUser@@PAVCItemElem@@1@Z:
  0001b	90		 npad	 1
  0001c	90		 npad	 1
  0001d	8b 54 24 08	 mov	 edx, DWORD PTR [esp+8]
  00021	8d 42 0c	 lea	 eax, DWORD PTR [edx+12]
  00024	8b 8a 8c fe ff
	ff		 mov	 ecx, DWORD PTR [edx-372]
  0002a	33 c8		 xor	 ecx, eax
  0002c	e8 00 00 00 00	 call	 @__security_check_cookie@4
  00031	8b 4a fc	 mov	 ecx, DWORD PTR [edx-4]
  00034	33 c8		 xor	 ecx, eax
  00036	e8 00 00 00 00	 call	 @__security_check_cookie@4
  0003b	b8 00 00 00 00	 mov	 eax, OFFSET __ehfuncinfo$?CreateBarunaChaosGem@CItemUpgrade@@QAEXPAVCUser@@PAVCItemElem@@1@Z
  00040	e9 00 00 00 00	 jmp	 ___CxxFrameHandler3
text$x	ENDS
?CreateBarunaChaosGem@CItemUpgrade@@QAEXPAVCUser@@PAVCItemElem@@1@Z ENDP ; CItemUpgrade::CreateBarunaChaosGem
; Function compile flags: /Ogtp
; File C:\IAGOS\server\v18\Source\Source\WorldServer\ItemUpgrade.cpp
; File C:\IAGOS\server\v18\Source\Source\_Common\Project.h
; File C:\IAGOS\server\v18\Source\Source\WorldServer\ItemUpgrade.cpp
; File C:\IAGOS\server\v18\Source\Source\_Common\Item.h
; File C:\IAGOS\server\v18\Source\Source\WorldServer\ItemUpgrade.cpp
; File C:\IAGOS\server\v18\Source\Source\_Common\Project.h
; File C:\IAGOS\server\v18\Source\Source\_Common\data.h
; File C:\IAGOS\server\v18\Source\Source\_Common\Project.h
; File C:\IAGOS\server\v18\Source\Source\WorldServer\ItemUpgrade.cpp
; File C:\IAGOS\server\v18\Source\Source\_Common\Item.h
; File C:\IAGOS\server\v18\Source\Source\_Common\Project.h
; File C:\IAGOS\server\v18\Source\Source\_Common\data.h
; File C:\IAGOS\server\v18\Source\Source\_Common\Project.h
; File C:\IAGOS\server\v18\Source\Source\WorldServer\ItemUpgrade.cpp
; File C:\Program Files\Microsoft Visual Studio\2022\Professional\VC\Tools\MSVC\14.44.35207\include\xtree
; File C:\Program Files\Microsoft Visual Studio\2022\Professional\VC\Tools\MSVC\14.44.35207\include\type_traits
; File C:\Program Files\Microsoft Visual Studio\2022\Professional\VC\Tools\MSVC\14.44.35207\include\xtree
; File C:\IAGOS\server\v18\Source\Source\WorldServer\ItemUpgrade.cpp
; File C:\IAGOS\server\v18\Source\Source\_Common\Item.h
; File C:\IAGOS\server\v18\Source\Source\_Common\Project.h
; File C:\IAGOS\server\v18\Source\Source\_Common\data.h
; File C:\IAGOS\server\v18\Source\Source\_Common\Project.h
; File C:\IAGOS\server\v18\Source\Source\WorldServer\ItemUpgrade.cpp
; File C:\Program Files\Microsoft Visual Studio\2022\Professional\VC\Tools\MSVC\14.44.35207\include\xtree
; File C:\IAGOS\server\v18\Source\Source\WorldServer\ItemUpgrade.cpp
; File C:\IAGOS\server\v18\Source\Source\_Common\xUtil.h
; File C:\IAGOS\server\v18\Source\Source\WorldServer\ItemUpgrade.cpp
; File C:\IAGOS\server\v18\Source\Source\_Common\xUtil.h
; File C:\IAGOS\server\v18\Source\Source\WorldServer\ItemUpgrade.cpp
; File C:\IAGOS\server\v18\Source\Source\_Common\Project.h
; File C:\IAGOS\server\v18\Source\Source\WorldServer\ItemUpgrade.cpp
; File C:\IAGOS\server\v18\Source\Source\_Common\Project.h
; File C:\IAGOS\server\v18\Source\Source\_Common\data.h
; File C:\IAGOS\server\v18\Source\Source\WorldServer\ItemUpgrade.cpp
; File C:\IAGOS\server\v18\Source\Source\_Common\Project.h
; File C:\IAGOS\server\v18\Source\Source\WorldServer\ItemUpgrade.cpp
; File C:\IAGOS\server\v18\Source\Source\_Common\Project.h
; File C:\IAGOS\server\v18\Source\Source\WorldServer\ItemUpgrade.cpp
; File C:\IAGOS\server\v18\Source\Source\_Common\Project.h
; File C:\IAGOS\server\v18\Source\Source\_Common\data.h
; File C:\IAGOS\server\v18\Source\Source\WorldServer\ItemUpgrade.cpp
; File C:\IAGOS\server\v18\Source\Source\_Common\Project.h
; File C:\IAGOS\server\v18\Source\Source\WorldServer\ItemUpgrade.cpp
;	COMDAT ?BarunaChaosGemExtract@CItemUpgrade@@QAEXPAVCUser@@PAVCItemElem@@@Z
_TEXT	SEGMENT
__Loc$2 = -756						; size = 12
tv1039 = -744						; size = 4
$T3 = -740						; size = 4
_pEquip$GSCopy$1$ = -736				; size = 4
_i$4 = -732						; size = 4
_this$1$ = -728						; size = 4
_pUser$GSCopy$1$ = -724					; size = 4
_itemElemTemp$5 = -720					; size = 176
_itemElemTemp$6 = -544					; size = 176
_itemElem$7 = -368					; size = 176
_itemElem$8 = -192					; size = 176
__$ArrayPad$ = -16					; size = 4
__$EHRec$ = -12						; size = 12
_pUser$ = 8						; size = 4
_pEquip$ = 12						; size = 4
?BarunaChaosGemExtract@CItemUpgrade@@QAEXPAVCUser@@PAVCItemElem@@@Z PROC ; CItemUpgrade::BarunaChaosGemExtract, COMDAT
; _this$ = ecx

; 1499 : {

  00000	55		 push	 ebp
  00001	8b ec		 mov	 ebp, esp
  00003	6a ff		 push	 -1
  00005	68 00 00 00 00	 push	 __ehhandler$?BarunaChaosGemExtract@CItemUpgrade@@QAEXPAVCUser@@PAVCItemElem@@@Z
  0000a	64 a1 00 00 00
	00		 mov	 eax, DWORD PTR fs:0
  00010	50		 push	 eax
  00011	81 ec e8 02 00
	00		 sub	 esp, 744		; 000002e8H
  00017	a1 00 00 00 00	 mov	 eax, DWORD PTR ___security_cookie
  0001c	33 c5		 xor	 eax, ebp
  0001e	89 45 f0	 mov	 DWORD PTR __$ArrayPad$[ebp], eax
  00021	53		 push	 ebx
  00022	56		 push	 esi
  00023	57		 push	 edi
  00024	50		 push	 eax
  00025	8d 45 f4	 lea	 eax, DWORD PTR __$EHRec$[ebp]
  00028	64 a3 00 00 00
	00		 mov	 DWORD PTR fs:0, eax
  0002e	89 8d 28 fd ff
	ff		 mov	 DWORD PTR _this$1$[ebp], ecx
  00034	8b 4d 0c	 mov	 ecx, DWORD PTR _pEquip$[ebp]
  00037	8b 75 08	 mov	 esi, DWORD PTR _pUser$[ebp]
; File C:\IAGOS\server\v18\Source\Source\_Common\Project.h

; 1389 : 	VERIFY_RANGE_ASSERT( nIndex, 0, m_aPropItem.GetSize(), "GetItemProp range_error", NULL );

  0003a	8b 1d 40 02 00
	00		 mov	 ebx, DWORD PTR ?prj@@3VCProject@@A+576
; File C:\IAGOS\server\v18\Source\Source\WorldServer\ItemUpgrade.cpp

; 1499 : {

  00040	89 b5 2c fd ff
	ff		 mov	 DWORD PTR _pUser$GSCopy$1$[ebp], esi
; File C:\IAGOS\server\v18\Source\Source\_Common\Item.h

; 230  : 	ItemProp*	GetProp()	{	return prj.GetItemProp( m_dwItemId );	}

  00046	8b 51 0c	 mov	 edx, DWORD PTR [ecx+12]
; File C:\IAGOS\server\v18\Source\Source\WorldServer\ItemUpgrade.cpp

; 1499 : {

  00049	89 8d 20 fd ff
	ff		 mov	 DWORD PTR _pEquip$GSCopy$1$[ebp], ecx
; File C:\IAGOS\server\v18\Source\Source\_Common\Project.h

; 1389 : 	VERIFY_RANGE_ASSERT( nIndex, 0, m_aPropItem.GetSize(), "GetItemProp range_error", NULL );

  0004f	85 d2		 test	 edx, edx
  00051	78 10		 js	 SHORT $LN164@BarunaChao
  00053	3b d3		 cmp	 edx, ebx
  00055	7d 0c		 jge	 SHORT $LN164@BarunaChao
; File C:\IAGOS\server\v18\Source\Source\_Common\data.h

; 270  : 	if( dwIndex >= (DWORD)m_nMaxIndex )

  00057	73 2c		 jae	 SHORT $LN209@BarunaChao

; 272  : 	return (T*) m_apOffset[ dwIndex ];

  00059	a1 30 02 00 00	 mov	 eax, DWORD PTR ?prj@@3VCProject@@A+560
  0005e	8b 04 90	 mov	 eax, DWORD PTR [eax+edx*4]
; File C:\IAGOS\server\v18\Source\Source\_Common\Project.h

; 1390 : 	return m_aPropItem.GetAt( nIndex ); 

  00061	eb 24		 jmp	 SHORT $LN159@BarunaChao
