; Listing generated by Microsoft (R) Optimizing Compiler Version 19.44.35225.0 

	TITLE	C:\IAGOS\server\v18\Source\Output\WorldServer\Release\ItemScript.obj
	.686P
	.XMM
	include listing.inc
	.model	flat

INCLUDELIB LIBCMT
INCLUDELIB OLDNAMES

PUBLIC	?__empty_global_delete@@YAXPAX@Z		; __empty_global_delete
PUBLIC	?__empty_global_delete@@YAXPAXI@Z		; __empty_global_delete
PUBLIC	?CompileItemScript@@YAHPBD@Z			; CompileItemScript
PUBLIC	?RunItemScript@@YAHPAVCMover@@KW4ITEM_OP@@PAH@Z	; RunItemScript
PUBLIC	?_OptionsStorage@?1??__local_stdio_printf_options@@9@4_KA ; `__local_stdio_printf_options'::`2'::_OptionsStorage
EXTRN	___stdio_common_vsprintf:PROC
EXTRN	_lua_tonumberx:PROC
EXTRN	_lua_touserdata:PROC
EXTRN	?SetDestParam@CMover@@QAEXHHHH@Z:PROC		; CMover::SetDestParam
EXTRN	?ResetDestParam@CMover@@QAEXHHH@Z:PROC		; CMover::ResetDestParam
EXTRN	__fltused:DWORD
;	COMDAT ?_OptionsStorage@?1??__local_stdio_printf_options@@9@4_KA
_BSS	SEGMENT
?_OptionsStorage@?1??__local_stdio_printf_options@@9@4_KA DQ 01H DUP (?) ; `__local_stdio_printf_options'::`2'::_OptionsStorage
_BSS	ENDS
; Function compile flags: /Ogtp
; File C:\IAGOS\server\v18\Source\Source\WorldServer\ItemScript.cpp
;	COMDAT ?_ResetDestParam@@YAHPAUlua_State@@@Z
_TEXT	SEGMENT
tv83 = -8						; size = 8
tv87 = -8						; size = 8
_L$ = 8							; size = 4
?_ResetDestParam@@YAHPAUlua_State@@@Z PROC		; _ResetDestParam, COMDAT

; 23   : {

  00000	55		 push	 ebp
  00001	8b ec		 mov	 ebp, esp
  00003	83 ec 08	 sub	 esp, 8
  00006	53		 push	 ebx
  00007	56		 push	 esi
  00008	57		 push	 edi

; 24   : 	CMover *pMover = (CMover *)lua_touserdata(L, 1);

  00009	8b 7d 08	 mov	 edi, DWORD PTR _L$[ebp]
  0000c	6a 01		 push	 1
  0000e	57		 push	 edi
  0000f	e8 00 00 00 00	 call	 _lua_touserdata

; 25   : 	int nDST = (int)lua_tonumber(L, 2);

  00014	6a 00		 push	 0
  00016	6a 02		 push	 2
  00018	57		 push	 edi
  00019	8b d8		 mov	 ebx, eax
  0001b	e8 00 00 00 00	 call	 _lua_tonumberx

; 26   : 	int nAdj = (int)lua_tonumber(L, 3);

  00020	6a 00		 push	 0
  00022	dd 5d f8	 fstp	 QWORD PTR tv83[ebp]
  00025	f2 0f 2c 75 f8	 cvttsd2si esi, QWORD PTR tv83[ebp]
  0002a	6a 03		 push	 3
  0002c	57		 push	 edi
  0002d	e8 00 00 00 00	 call	 _lua_tonumberx
  00032	83 c4 20	 add	 esp, 32			; 00000020H

; 27   : 
; 28   : 	pMover->ResetDestParam( nDST, nAdj, TRUE );

  00035	8b cb		 mov	 ecx, ebx
  00037	dd 5d f8	 fstp	 QWORD PTR tv87[ebp]
  0003a	f2 0f 2c 45 f8	 cvttsd2si eax, QWORD PTR tv87[ebp]
  0003f	6a 01		 push	 1
  00041	50		 push	 eax
  00042	56		 push	 esi
  00043	e8 00 00 00 00	 call	 ?ResetDestParam@CMover@@QAEXHHH@Z ; CMover::ResetDestParam

; 29   : 	return 0;

  00048	5f		 pop	 edi
  00049	5e		 pop	 esi
  0004a	33 c0		 xor	 eax, eax
  0004c	5b		 pop	 ebx

; 30   : }

  0004d	8b e5		 mov	 esp, ebp
  0004f	5d		 pop	 ebp
  00050	c3		 ret	 0
?_ResetDestParam@@YAHPAUlua_State@@@Z ENDP		; _ResetDestParam
_TEXT	ENDS
; Function compile flags: /Ogtp
; File C:\IAGOS\server\v18\Source\Source\WorldServer\ItemScript.cpp
;	COMDAT ?_SetDestParam@@YAHPAUlua_State@@@Z
_TEXT	SEGMENT
tv84 = -8						; size = 8
tv88 = -8						; size = 8
_L$ = 8							; size = 4
?_SetDestParam@@YAHPAUlua_State@@@Z PROC		; _SetDestParam, COMDAT

; 13   : {

  00000	55		 push	 ebp
  00001	8b ec		 mov	 ebp, esp
  00003	83 ec 08	 sub	 esp, 8
  00006	53		 push	 ebx
  00007	56		 push	 esi
  00008	57		 push	 edi

; 14   : 	CMover *pMover = (CMover *)lua_touserdata(L, 1);

  00009	8b 7d 08	 mov	 edi, DWORD PTR _L$[ebp]
  0000c	6a 01		 push	 1
  0000e	57		 push	 edi
  0000f	e8 00 00 00 00	 call	 _lua_touserdata

; 15   : 	int nDST = (int)lua_tonumber(L, 2);

  00014	6a 00		 push	 0
  00016	6a 02		 push	 2
  00018	57		 push	 edi
  00019	8b d8		 mov	 ebx, eax
  0001b	e8 00 00 00 00	 call	 _lua_tonumberx

; 16   : 	int nAdd = (int)lua_tonumber(L, 3);

  00020	6a 00		 push	 0
  00022	dd 5d f8	 fstp	 QWORD PTR tv84[ebp]
  00025	f2 0f 2c 75 f8	 cvttsd2si esi, QWORD PTR tv84[ebp]
  0002a	6a 03		 push	 3
  0002c	57		 push	 edi
  0002d	e8 00 00 00 00	 call	 _lua_tonumberx
  00032	83 c4 20	 add	 esp, 32			; 00000020H

; 17   : 
; 18   : 	pMover->SetDestParam( nDST, nAdd, NULL_CHGPARAM );

  00035	8b cb		 mov	 ecx, ebx
  00037	dd 5d f8	 fstp	 QWORD PTR tv88[ebp]
  0003a	f2 0f 2c 45 f8	 cvttsd2si eax, QWORD PTR tv88[ebp]
  0003f	6a 01		 push	 1
  00041	68 ff ff ff 7f	 push	 2147483647		; 7fffffffH
  00046	50		 push	 eax
  00047	56		 push	 esi
  00048	e8 00 00 00 00	 call	 ?SetDestParam@CMover@@QAEXHHHH@Z ; CMover::SetDestParam

; 19   : 	return 0;

  0004d	5f		 pop	 edi
  0004e	5e		 pop	 esi
  0004f	33 c0		 xor	 eax, eax
  00051	5b		 pop	 ebx

; 20   : }

  00052	8b e5		 mov	 esp, ebp
  00054	5d		 pop	 ebp
  00055	c3		 ret	 0
?_SetDestParam@@YAHPAUlua_State@@@Z ENDP		; _SetDestParam
_TEXT	ENDS
; Function compile flags: /Ogtp
; File C:\IAGOS\server\v18\Source\Source\WorldServer\ItemScript.cpp
;	COMDAT ?Trace@@YAHPAUlua_State@@@Z
_TEXT	SEGMENT
_L$ = 8							; size = 4
?Trace@@YAHPAUlua_State@@@Z PROC			; Trace, COMDAT

; 8    : 	TRACE("%s",lua_tostring(L,1));
; 9    : 	return 0;

  00000	33 c0		 xor	 eax, eax

; 10   : }

  00002	c3		 ret	 0
?Trace@@YAHPAUlua_State@@@Z ENDP			; Trace
_TEXT	ENDS
; Function compile flags: /Ogtp
; File C:\IAGOS\server\v18\Source\Source\WorldServer\ItemScript.cpp
;	COMDAT ?RunItemScript@@YAHPAVCMover@@KW4ITEM_OP@@PAH@Z
_TEXT	SEGMENT
_pMover$ = 8						; size = 4
_dwItemID$ = 12						; size = 4
_operation$ = 16					; size = 4
_pResult$ = 20						; size = 4
?RunItemScript@@YAHPAVCMover@@KW4ITEM_OP@@PAH@Z PROC	; RunItemScript, COMDAT

; 53   : #if !defined(__LUASCRIPT060908)
; 54   : 	return TRUE;

  00000	b8 01 00 00 00	 mov	 eax, 1

; 55   : #endif //__LUASCRIPT060908
; 56   : 
; 57   : 	char szFunction[64];
; 58   : 
; 59   : 	if (operation == ITEM_OP_USE)
; 60   : 		sprintf(szFunction, "F%d_use", dwItemID);
; 61   : 	else if (operation == ITEM_OP_EQUIP)
; 62   : 		sprintf(szFunction, "F%d_equip", dwItemID);
; 63   : 	else if (operation == ITEM_OP_UNEQUIP)
; 64   : 		sprintf(szFunction, "F%d_unequip", dwItemID);
; 65   : 
; 66   : 	lua_State* pVM = GetVM();
; 67   : 	lua_pushstring(pVM, szFunction);
; 68   : 	lua_pushglobaltable(pVM);
; 69   : 
; 70   : 	if (lua_isfunction(pVM, -1))
; 71   : 	{
; 72   : 		lua_pushlightuserdata(pVM, pMover);
; 73   : 		lua_call(pVM, 1, 1);
; 74   : 		if (pResult)
; 75   : 			*pResult = (int)lua_tonumber(pVM, -1);
; 76   : 		lua_pop(pVM, 1);
; 77   : 		return TRUE;
; 78   : 	}
; 79   : 	lua_pop(pVM, 1);
; 80   : 	return FALSE;
; 81   : }

  00005	c3		 ret	 0
?RunItemScript@@YAHPAVCMover@@KW4ITEM_OP@@PAH@Z ENDP	; RunItemScript
_TEXT	ENDS
; Function compile flags: /Ogtp
; File C:\IAGOS\server\v18\Source\Source\WorldServer\ItemScript.cpp
;	COMDAT ?CompileItemScript@@YAHPBD@Z
_TEXT	SEGMENT
_szFile$ = 8						; size = 4
?CompileItemScript@@YAHPBD@Z PROC			; CompileItemScript, COMDAT

; 34   : #if !defined(__LUASCRIPT060908)
; 35   : 	return TRUE;

  00000	b8 01 00 00 00	 mov	 eax, 1

; 36   : #endif //__LUASCRIPT060908
; 37   : 
; 38   : 	lua_State* pVM = GetVM();
; 39   : 	lua_register(pVM, "Trace", Trace);
; 40   : 	lua_register(pVM, "SetDestParam", _SetDestParam);
; 41   : 	lua_register(pVM, "ResetDestParam", _ResetDestParam);
; 42   : 
; 43   : 	if (luaL_dofile(pVM, szFile) != 0)
; 44   : 	{
; 45   : 		OutputDebugString(lua_tostring(pVM, -1));
; 46   : 		return FALSE;
; 47   : 	}
; 48   : 	return TRUE;
; 49   : }

  00005	c3		 ret	 0
?CompileItemScript@@YAHPBD@Z ENDP			; CompileItemScript
_TEXT	ENDS
; Function compile flags: /Ogtp
; File C:\IAGOS\server\v18\Source\Source\WorldServer\ItemScript.cpp
;	COMDAT ?__empty_global_delete@@YAXPAXI@Z
_TEXT	SEGMENT
___formal$ = 8						; size = 4
___formal$ = 12						; size = 4
?__empty_global_delete@@YAXPAXI@Z PROC			; __empty_global_delete, COMDAT

  00000	c2 00 00	 ret	 0
?__empty_global_delete@@YAXPAXI@Z ENDP			; __empty_global_delete
_TEXT	ENDS
; Function compile flags: /Ogtp
; File C:\IAGOS\server\v18\Source\Source\WorldServer\ItemScript.cpp
;	COMDAT ?__empty_global_delete@@YAXPAX@Z
_TEXT	SEGMENT
___formal$ = 8						; size = 4
?__empty_global_delete@@YAXPAX@Z PROC			; __empty_global_delete, COMDAT

  00000	c2 00 00	 ret	 0
?__empty_global_delete@@YAXPAX@Z ENDP			; __empty_global_delete
_TEXT	ENDS
END
