; Listing generated by Microsoft (R) Optimizing Compiler Version 19.44.35225.0 

	TITLE	C:\IAGOS\server\v18\Source\Output\WorldServer\Release\LinkMap.obj
	.686P
	.XMM
	include listing.inc
	.model	flat

INCLUDELIB LIBCMT
INCLUDELIB OLDNAMES

CONST	SEGMENT
?piecewise_construct@std@@3Upiecewise_construct_t@1@B	ORG $+1 ; std::piecewise_construct
CONST	ENDS
PUBLIC	?__empty_global_delete@@YAXPAX@Z		; __empty_global_delete
PUBLIC	?__empty_global_delete@@YAXPAXI@Z		; __empty_global_delete
PUBLIC	??0exception@std@@QAE@ABV01@@Z			; std::exception::exception
PUBLIC	??1exception@std@@UAE@XZ			; std::exception::~exception
PUBLIC	?what@exception@std@@UBEPBDXZ			; std::exception::what
PUBLIC	??_Gexception@std@@UAEPAXI@Z			; std::exception::`scalar deleting destructor'
PUBLIC	??0bad_alloc@std@@QAE@ABV01@@Z			; std::bad_alloc::bad_alloc
PUBLIC	??_Gbad_alloc@std@@UAEPAXI@Z			; std::bad_alloc::`scalar deleting destructor'
PUBLIC	??0bad_array_new_length@std@@QAE@XZ		; std::bad_array_new_length::bad_array_new_length
PUBLIC	??1bad_array_new_length@std@@UAE@XZ		; std::bad_array_new_length::~bad_array_new_length
PUBLIC	??0bad_array_new_length@std@@QAE@ABV01@@Z	; std::bad_array_new_length::bad_array_new_length
PUBLIC	??_Gbad_array_new_length@std@@UAEPAXI@Z		; std::bad_array_new_length::`scalar deleting destructor'
PUBLIC	?_Throw_bad_array_new_length@std@@YAXXZ		; std::_Throw_bad_array_new_length
PUBLIC	?_Throw_tree_length_error@std@@YAXXZ		; std::_Throw_tree_length_error
PUBLIC	?erase@?$_Tree@V?$_Tmap_traits@KPAVCUser@@U?$less@K@std@@V?$allocator@U?$pair@$$CBKPAVCUser@@@std@@@3@$0A@@std@@@std@@QAEIABK@Z ; std::_Tree<std::_Tmap_traits<unsigned long,CUser *,std::less<unsigned long>,std::allocator<std::pair<unsigned long const ,CUser *> >,0> >::erase
PUBLIC	?_Lrotate@?$_Tree_val@U?$_Tree_simple_types@U?$pair@$$CBKPAVCUser@@@std@@@std@@@std@@QAEXPAU?$_Tree_node@U?$pair@$$CBKPAVCUser@@@std@@PAX@2@@Z ; std::_Tree_val<std::_Tree_simple_types<std::pair<unsigned long const ,CUser *> > >::_Lrotate
PUBLIC	?_Rrotate@?$_Tree_val@U?$_Tree_simple_types@U?$pair@$$CBKPAVCUser@@@std@@@std@@@std@@QAEXPAU?$_Tree_node@U?$pair@$$CBKPAVCUser@@@std@@PAX@2@@Z ; std::_Tree_val<std::_Tree_simple_types<std::pair<unsigned long const ,CUser *> > >::_Rrotate
PUBLIC	?_Extract@?$_Tree_val@U?$_Tree_simple_types@U?$pair@$$CBKPAVCUser@@@std@@@std@@@std@@QAEPAU?$_Tree_node@U?$pair@$$CBKPAVCUser@@@std@@PAX@2@V?$_Tree_unchecked_const_iterator@V?$_Tree_val@U?$_Tree_simple_types@U?$pair@$$CBKPAVCUser@@@std@@@std@@@std@@U_Iterator_base0@2@@2@@Z ; std::_Tree_val<std::_Tree_simple_types<std::pair<unsigned long const ,CUser *> > >::_Extract
PUBLIC	?_Insert_node@?$_Tree_val@U?$_Tree_simple_types@U?$pair@$$CBKPAVCUser@@@std@@@std@@@std@@QAEPAU?$_Tree_node@U?$pair@$$CBKPAVCUser@@@std@@PAX@2@U?$_Tree_id@PAU?$_Tree_node@U?$pair@$$CBKPAVCUser@@@std@@PAX@std@@@2@QAU32@@Z ; std::_Tree_val<std::_Tree_simple_types<std::pair<unsigned long const ,CUser *> > >::_Insert_node
PUBLIC	??E?$_Tree_unchecked_const_iterator@V?$_Tree_val@U?$_Tree_simple_types@U?$pair@$$CBKPAVCUser@@@std@@@std@@@std@@U_Iterator_base0@2@@std@@QAEAAV01@XZ ; std::_Tree_unchecked_const_iterator<std::_Tree_val<std::_Tree_simple_types<std::pair<unsigned long const ,CUser *> > >,std::_Iterator_base0>::operator++
PUBLIC	?erase@?$_Tree@V?$_Tmap_traits@KPAVCCtrl@@U?$less@K@std@@V?$allocator@U?$pair@$$CBKPAVCCtrl@@@std@@@3@$0A@@std@@@std@@QAEIABK@Z ; std::_Tree<std::_Tmap_traits<unsigned long,CCtrl *,std::less<unsigned long>,std::allocator<std::pair<unsigned long const ,CCtrl *> >,0> >::erase
PUBLIC	?_Lrotate@?$_Tree_val@U?$_Tree_simple_types@U?$pair@$$CBKPAVCCtrl@@@std@@@std@@@std@@QAEXPAU?$_Tree_node@U?$pair@$$CBKPAVCCtrl@@@std@@PAX@2@@Z ; std::_Tree_val<std::_Tree_simple_types<std::pair<unsigned long const ,CCtrl *> > >::_Lrotate
PUBLIC	?_Rrotate@?$_Tree_val@U?$_Tree_simple_types@U?$pair@$$CBKPAVCCtrl@@@std@@@std@@@std@@QAEXPAU?$_Tree_node@U?$pair@$$CBKPAVCCtrl@@@std@@PAX@2@@Z ; std::_Tree_val<std::_Tree_simple_types<std::pair<unsigned long const ,CCtrl *> > >::_Rrotate
PUBLIC	?_Extract@?$_Tree_val@U?$_Tree_simple_types@U?$pair@$$CBKPAVCCtrl@@@std@@@std@@@std@@QAEPAU?$_Tree_node@U?$pair@$$CBKPAVCCtrl@@@std@@PAX@2@V?$_Tree_unchecked_const_iterator@V?$_Tree_val@U?$_Tree_simple_types@U?$pair@$$CBKPAVCCtrl@@@std@@@std@@@std@@U_Iterator_base0@2@@2@@Z ; std::_Tree_val<std::_Tree_simple_types<std::pair<unsigned long const ,CCtrl *> > >::_Extract
PUBLIC	?_Insert_node@?$_Tree_val@U?$_Tree_simple_types@U?$pair@$$CBKPAVCCtrl@@@std@@@std@@@std@@QAEPAU?$_Tree_node@U?$pair@$$CBKPAVCCtrl@@@std@@PAX@2@U?$_Tree_id@PAU?$_Tree_node@U?$pair@$$CBKPAVCCtrl@@@std@@PAX@std@@@2@QAU32@@Z ; std::_Tree_val<std::_Tree_simple_types<std::pair<unsigned long const ,CCtrl *> > >::_Insert_node
PUBLIC	??E?$_Tree_unchecked_const_iterator@V?$_Tree_val@U?$_Tree_simple_types@U?$pair@$$CBKPAVCCtrl@@@std@@@std@@@std@@U_Iterator_base0@2@@std@@QAEAAV01@XZ ; std::_Tree_unchecked_const_iterator<std::_Tree_val<std::_Tree_simple_types<std::pair<unsigned long const ,CCtrl *> > >,std::_Iterator_base0>::operator++
PUBLIC	??1?$_Alloc_construct_ptr@V?$allocator@U?$_Tree_node@U?$pair@$$CBKPAVCUser@@@std@@PAX@std@@@std@@@std@@QAE@XZ ; std::_Alloc_construct_ptr<std::allocator<std::_Tree_node<std::pair<unsigned long const ,CUser *>,void *> > >::~_Alloc_construct_ptr<std::allocator<std::_Tree_node<std::pair<unsigned long const ,CUser *>,void *> > >
PUBLIC	??1?$_Alloc_construct_ptr@V?$allocator@U?$_Tree_node@U?$pair@$$CBKPAVCCtrl@@@std@@PAX@std@@@std@@@std@@QAE@XZ ; std::_Alloc_construct_ptr<std::allocator<std::_Tree_node<std::pair<unsigned long const ,CCtrl *>,void *> > >::~_Alloc_construct_ptr<std::allocator<std::_Tree_node<std::pair<unsigned long const ,CCtrl *>,void *> > >
PUBLIC	??$_Erase_tree@V?$allocator@U?$_Tree_node@U?$pair@$$CBKPAVCCtrl@@@std@@PAX@std@@@std@@@?$_Tree_val@U?$_Tree_simple_types@U?$pair@$$CBKPAVCCtrl@@@std@@@std@@@std@@QAEXAAV?$allocator@U?$_Tree_node@U?$pair@$$CBKPAVCCtrl@@@std@@PAX@std@@@1@PAU?$_Tree_node@U?$pair@$$CBKPAVCCtrl@@@std@@PAX@1@@Z ; std::_Tree_val<std::_Tree_simple_types<std::pair<unsigned long const ,CCtrl *> > >::_Erase_tree<std::allocator<std::_Tree_node<std::pair<unsigned long const ,CCtrl *>,void *> > >
PUBLIC	??$_Erase_tree@V?$allocator@U?$_Tree_node@U?$pair@$$CBKPAVCUser@@@std@@PAX@std@@@std@@@?$_Tree_val@U?$_Tree_simple_types@U?$pair@$$CBKPAVCUser@@@std@@@std@@@std@@QAEXAAV?$allocator@U?$_Tree_node@U?$pair@$$CBKPAVCUser@@@std@@PAX@std@@@1@PAU?$_Tree_node@U?$pair@$$CBKPAVCUser@@@std@@PAX@1@@Z ; std::_Tree_val<std::_Tree_simple_types<std::pair<unsigned long const ,CUser *> > >::_Erase_tree<std::allocator<std::_Tree_node<std::pair<unsigned long const ,CUser *>,void *> > >
PUBLIC	??$_Allocate_manually_vector_aligned@U_Default_allocate_traits@std@@@std@@YAPAXI@Z ; std::_Allocate_manually_vector_aligned<std::_Default_allocate_traits>
PUBLIC	??0CLinkMap@@QAE@XZ				; CLinkMap::CLinkMap
PUBLIC	?Init@CLinkMap@@QAEXHHHH@Z			; CLinkMap::Init
PUBLIC	?Release@CLinkMap@@QAEXXZ			; CLinkMap::Release
PUBLIC	?CalcLinkLevel@CLinkMap@@QAEKPAVCObj@@M@Z	; CLinkMap::CalcLinkLevel
PUBLIC	?SetMaxLinkLevel@CLinkMap@@QAEXKH@Z		; CLinkMap::SetMaxLinkLevel
PUBLIC	?InsertObjLink@CLinkMap@@QAEHPAVCObj@@@Z	; CLinkMap::InsertObjLink
PUBLIC	?RemoveObjLink2@CLinkMap@@QAEHPAVCObj@@@Z	; CLinkMap::RemoveObjLink2
PUBLIC	?RemoveObjLink@CLinkMap@@QAEHPAVCObj@@@Z	; CLinkMap::RemoveObjLink
PUBLIC	?GetObjInLinkMap@CLinkMap@@QAEPAVCObj@@ABUD3DXVECTOR3@@KH@Z ; CLinkMap::GetObjInLinkMap
PUBLIC	?SetObjInLinkMap@CLinkMap@@QAEHABUD3DXVECTOR3@@KHPAVCObj@@@Z ; CLinkMap::SetObjInLinkMap
PUBLIC	?AddItToView@CLinkMap@@QAEXPAVCCtrl@@@Z		; CLinkMap::AddItToView
PUBLIC	?ModifyView@CLinkMap@@QAEXPAVCCtrl@@@Z		; CLinkMap::ModifyView
PUBLIC	?IsOverlapped@CLinkMap@@AAEHHHHH@Z		; CLinkMap::IsOverlapped
PUBLIC	?GetObjPtr@CLinkMap@@AAEPAPAVCObj@@ABUD3DXVECTOR3@@KH@Z ; CLinkMap::GetObjPtr
PUBLIC	??_7exception@std@@6B@				; std::exception::`vftable'
PUBLIC	??_C@_0BC@EOODALEL@Unknown?5exception@		; `string'
PUBLIC	??_7bad_alloc@std@@6B@				; std::bad_alloc::`vftable'
PUBLIC	??_7bad_array_new_length@std@@6B@		; std::bad_array_new_length::`vftable'
PUBLIC	??_C@_0BF@KINCDENJ@bad?5array?5new?5length@	; `string'
PUBLIC	??_R0?AVexception@std@@@8			; std::exception `RTTI Type Descriptor'
PUBLIC	__CT??_R0?AVexception@std@@@8??0exception@std@@QAE@ABV01@@Z12
PUBLIC	__TI3?AVbad_array_new_length@std@@
PUBLIC	__CTA3?AVbad_array_new_length@std@@
PUBLIC	??_R0?AVbad_array_new_length@std@@@8		; std::bad_array_new_length `RTTI Type Descriptor'
PUBLIC	__CT??_R0?AVbad_array_new_length@std@@@8??0bad_array_new_length@std@@QAE@ABV01@@Z12
PUBLIC	??_R0?AVbad_alloc@std@@@8			; std::bad_alloc `RTTI Type Descriptor'
PUBLIC	__CT??_R0?AVbad_alloc@std@@@8??0bad_alloc@std@@QAE@ABV01@@Z12
PUBLIC	??_C@_0BB@GCADKGJO@map?1set?5too?5long@		; `string'
PUBLIC	??_R4exception@std@@6B@				; std::exception::`RTTI Complete Object Locator'
PUBLIC	??_R3exception@std@@8				; std::exception::`RTTI Class Hierarchy Descriptor'
PUBLIC	??_R2exception@std@@8				; std::exception::`RTTI Base Class Array'
PUBLIC	??_R1A@?0A@EA@exception@std@@8			; std::exception::`RTTI Base Class Descriptor at (0,-1,0,64)'
PUBLIC	??_R4bad_array_new_length@std@@6B@		; std::bad_array_new_length::`RTTI Complete Object Locator'
PUBLIC	??_R3bad_array_new_length@std@@8		; std::bad_array_new_length::`RTTI Class Hierarchy Descriptor'
PUBLIC	??_R2bad_array_new_length@std@@8		; std::bad_array_new_length::`RTTI Base Class Array'
PUBLIC	??_R1A@?0A@EA@bad_array_new_length@std@@8	; std::bad_array_new_length::`RTTI Base Class Descriptor at (0,-1,0,64)'
PUBLIC	??_R1A@?0A@EA@bad_alloc@std@@8			; std::bad_alloc::`RTTI Base Class Descriptor at (0,-1,0,64)'
PUBLIC	??_R3bad_alloc@std@@8				; std::bad_alloc::`RTTI Class Hierarchy Descriptor'
PUBLIC	??_R2bad_alloc@std@@8				; std::bad_alloc::`RTTI Base Class Array'
PUBLIC	??_R4bad_alloc@std@@6B@				; std::bad_alloc::`RTTI Complete Object Locator'
PUBLIC	??_C@_0P@JGKCBPBI@ML?1?1?$CFs?1?1?$CFd?1?1?$CFd@ ; `string'
PUBLIC	??_C@_0EP@IJCIDOMO@?G?d?5InsertObjWorld?5?$LL?u?$LH?N?5?C?$NP?$LA?$KB?$LF?H?5?$LP@ ; `string'
PUBLIC	??_C@_0DF@BDOLIMDD@?G?d?5InsObjInFld?$LP?$KB?$LM?$KN?5?$LJ?$PM?$MA?$KH?$LI?$KG?5?$LJ?$PO?$LO?n?$LD@ ; `string'
PUBLIC	??_C@_0M@PHCAOLEG@ROL?1?1CALLED@		; `string'
PUBLIC	??_C@_0BD@KPINOHEH@ROL?1?1FIXED?1?1?$CFd?0?5?$CFd@ ; `string'
PUBLIC	??_C@_0BH@HPEOJKDN@ROL?1?1NOT?5FIXED?1?1?$CFd?0?5?$CFd@ ; `string'
PUBLIC	??_C@_0BA@EKLFALDM@ROL?1?1?$CFs?1?1?$CFd?1?1?$CFd@ ; `string'
PUBLIC	??_C@_0DC@MFJJAAPI@ROL?1?1POS?5OVERFLOW?1?1?$CFd?0?5?$CFd?0?5?$CFf?0?5@ ; `string'
PUBLIC	__real@00000000
PUBLIC	__real@3e800000
PUBLIC	__real@3f800000
PUBLIC	__real@4000000000000000
EXTRN	??2@YAPAXI@Z:PROC				; operator new
EXTRN	??3@YAXPAXI@Z:PROC				; operator delete
EXTRN	??_U@YAPAXI@Z:PROC				; operator new[]
EXTRN	??_V@YAXPAX@Z:PROC				; operator delete[]
EXTRN	__invoke_watson:PROC
EXTRN	___std_exception_copy:PROC
EXTRN	___std_exception_destroy:PROC
EXTRN	??_Eexception@std@@UAEPAXI@Z:PROC		; std::exception::`vector deleting destructor'
EXTRN	??_Ebad_alloc@std@@UAEPAXI@Z:PROC		; std::bad_alloc::`vector deleting destructor'
EXTRN	??_Ebad_array_new_length@std@@UAEPAXI@Z:PROC	; std::bad_array_new_length::`vector deleting destructor'
EXTRN	?_Xlength_error@std@@YAXPBD@Z:PROC		; std::_Xlength_error
EXTRN	?WriteError@@YAXPBDZZ:PROC			; WriteError
EXTRN	?Error@@YAPBDPBDZZ:PROC				; Error
EXTRN	?InsNextNode@CObj@@QAEXPAV1@@Z:PROC		; CObj::InsNextNode
EXTRN	?DelNode@CObj@@QAEXXZ:PROC			; CObj::DelNode
EXTRN	?GetLinkType@CObj@@QAEKXZ:PROC			; CObj::GetLinkType
EXTRN	?GetName@CMover@@QAEPBDH@Z:PROC			; CMover::GetName
EXTRN	?AddHdr@CUser@@QAEXKG@Z:PROC			; CUser::AddHdr
EXTRN	?AddAddObj@CUser@@QAEXPAVCCtrl@@@Z:PROC		; CUser::AddAddObj
EXTRN	@__security_check_cookie@4:PROC
EXTRN	__CxxThrowException@8:PROC
EXTRN	___CxxFrameHandler3:PROC
EXTRN	__libm_sse2_pow_precise:PROC
EXTRN	_memset:PROC
EXTRN	??_7type_info@@6B@:QWORD			; type_info::`vftable'
EXTRN	___security_cookie:DWORD
EXTRN	__fltused:DWORD
;	COMDAT __real@4000000000000000
CONST	SEGMENT
__real@4000000000000000 DQ 04000000000000000r	; 2
CONST	ENDS
;	COMDAT __real@3f800000
CONST	SEGMENT
__real@3f800000 DD 03f800000r			; 1
CONST	ENDS
;	COMDAT __real@3e800000
CONST	SEGMENT
__real@3e800000 DD 03e800000r			; 0.25
CONST	ENDS
;	COMDAT __real@00000000
CONST	SEGMENT
__real@00000000 DD 000000000r			; 0
CONST	ENDS
;	COMDAT ??_C@_0DC@MFJJAAPI@ROL?1?1POS?5OVERFLOW?1?1?$CFd?0?5?$CFd?0?5?$CFf?0?5@
CONST	SEGMENT
??_C@_0DC@MFJJAAPI@ROL?1?1POS?5OVERFLOW?1?1?$CFd?0?5?$CFd?0?5?$CFf?0?5@ DB 'R'
	DB	'OL//POS OVERFLOW//%d, %d, %f, %f, %f, %f, %f, %f', 00H ; `string'
CONST	ENDS
;	COMDAT ??_C@_0BA@EKLFALDM@ROL?1?1?$CFs?1?1?$CFd?1?1?$CFd@
CONST	SEGMENT
??_C@_0BA@EKLFALDM@ROL?1?1?$CFs?1?1?$CFd?1?1?$CFd@ DB 'ROL//%s//%d//%d', 00H ; `string'
CONST	ENDS
;	COMDAT ??_C@_0BH@HPEOJKDN@ROL?1?1NOT?5FIXED?1?1?$CFd?0?5?$CFd@
CONST	SEGMENT
??_C@_0BH@HPEOJKDN@ROL?1?1NOT?5FIXED?1?1?$CFd?0?5?$CFd@ DB 'ROL//NOT FIXE'
	DB	'D//%d, %d', 00H				; `string'
CONST	ENDS
;	COMDAT ??_C@_0BD@KPINOHEH@ROL?1?1FIXED?1?1?$CFd?0?5?$CFd@
CONST	SEGMENT
??_C@_0BD@KPINOHEH@ROL?1?1FIXED?1?1?$CFd?0?5?$CFd@ DB 'ROL//FIXED//%d, %d'
	DB	00H						; `string'
CONST	ENDS
;	COMDAT ??_C@_0M@PHCAOLEG@ROL?1?1CALLED@
CONST	SEGMENT
??_C@_0M@PHCAOLEG@ROL?1?1CALLED@ DB 'ROL//CALLED', 00H	; `string'
CONST	ENDS
;	COMDAT ??_C@_0DF@BDOLIMDD@?G?d?5InsObjInFld?$LP?$KB?$LM?$KN?5?$LJ?$PM?$MA?$KH?$LI?$KG?5?$LJ?$PO?$LO?n?$LD@
CONST	SEGMENT
??_C@_0DF@BDOLIMDD@?G?d?5InsObjInFld?$LP?$KB?$LM?$KN?5?$LJ?$PM?$MA?$KH?$LI?$KG?5?$LJ?$PO?$LO?n?$LD@ DB 0c7H
	DB	0e4H, ' InsObjInFld', 0bfH, 0a1H, 0bcH, 0adH, ' ', 0b9H, 0fcH, 0c0H
	DB	0a7H, 0b8H, 0a6H, ' ', 0b9H, 0feH, 0beH, 0eeH, 0b3H, 0adH, 0b0H
	DB	0d4H, ' ', 0c3H, 0dfH, 0b0H, 0a1H, 0b5H, 0c7H, 0b7H, 0c1H, 0b0H
	DB	0edH, ' ', 0c7H, 0cfH, 0b3H, 0d7H, '?', 0aH, 00H ; `string'
CONST	ENDS
;	COMDAT ??_C@_0EP@IJCIDOMO@?G?d?5InsertObjWorld?5?$LL?u?$LH?N?5?C?$NP?$LA?$KB?$LF?H?5?$LP@
CONST	SEGMENT
??_C@_0EP@IJCIDOMO@?G?d?5InsertObjWorld?5?$LL?u?$LH?N?5?C?$NP?$LA?$KB?$LF?H?5?$LP@ DB 0c7H
	DB	0e4H, ' InsertObjWorld ', 0bbH, 0f5H, 0b7H, 0ceH, ' ', 0c3H, 0dfH
	DB	0b0H, 0a1H, 0b5H, 0c8H, ' ', 0bfH, 0c0H, 0baH, 0eaH, 0c1H, 0a7H
	DB	0c6H, 0aeH, 0b0H, 0a1H, ' Next', 0bfH, 0cdH, ' Prev', 0bfH, 0a1H
	DB	' ', 0b0H, 0aaH, 0c0H, 0ccH, ' ', 0c0H, 0d6H, 0b3H, 0d7H, '?? '
	DB	'Type = %d ', 0aH, 00H			; `string'
CONST	ENDS
;	COMDAT ??_C@_0P@JGKCBPBI@ML?1?1?$CFs?1?1?$CFd?1?1?$CFd@
CONST	SEGMENT
??_C@_0P@JGKCBPBI@ML?1?1?$CFs?1?1?$CFd?1?1?$CFd@ DB 'ML//%s//%d//%d', 00H ; `string'
CONST	ENDS
_DATA	SEGMENT
?g_table@@3PAMA DD 042000000r			; 32	; g_table
	DD	042800000r			; 64
	DD	043000000r			; 128
	DD	043800000r			; 256
	DD	044000000r			; 512
	DD	044000000r			; 512
	DD	044000000r			; 512
?fDynamicGrid@@3PAMA DD 044000000r		; 512	; fDynamicGrid
	DD	044000000r			; 512
	DD	044000000r			; 512
	DD	044000000r			; 512
	DD	044000000r			; 512
	DD	044000000r			; 512
	DD	044000000r			; 512
?fStaticGrid@@3PAMA DD 040800000r		; 4	; fStaticGrid
	DD	041000000r			; 8
	DD	041800000r			; 16
	DD	042000000r			; 32
	DD	042800000r			; 64
	DD	043000000r			; 128
	DD	043800000r			; 256
_DATA	ENDS
;	COMDAT ??_R4bad_alloc@std@@6B@
rdata$r	SEGMENT
??_R4bad_alloc@std@@6B@ DD 00H				; std::bad_alloc::`RTTI Complete Object Locator'
	DD	00H
	DD	00H
	DD	FLAT:??_R0?AVbad_alloc@std@@@8
	DD	FLAT:??_R3bad_alloc@std@@8
rdata$r	ENDS
;	COMDAT ??_R2bad_alloc@std@@8
rdata$r	SEGMENT
??_R2bad_alloc@std@@8 DD FLAT:??_R1A@?0A@EA@bad_alloc@std@@8 ; std::bad_alloc::`RTTI Base Class Array'
	DD	FLAT:??_R1A@?0A@EA@exception@std@@8
rdata$r	ENDS
;	COMDAT ??_R3bad_alloc@std@@8
rdata$r	SEGMENT
??_R3bad_alloc@std@@8 DD 00H				; std::bad_alloc::`RTTI Class Hierarchy Descriptor'
	DD	00H
	DD	02H
	DD	FLAT:??_R2bad_alloc@std@@8
rdata$r	ENDS
;	COMDAT ??_R1A@?0A@EA@bad_alloc@std@@8
rdata$r	SEGMENT
??_R1A@?0A@EA@bad_alloc@std@@8 DD FLAT:??_R0?AVbad_alloc@std@@@8 ; std::bad_alloc::`RTTI Base Class Descriptor at (0,-1,0,64)'
	DD	01H
	DD	00H
	DD	0ffffffffH
	DD	00H
	DD	040H
	DD	FLAT:??_R3bad_alloc@std@@8
rdata$r	ENDS
;	COMDAT ??_R1A@?0A@EA@bad_array_new_length@std@@8
rdata$r	SEGMENT
??_R1A@?0A@EA@bad_array_new_length@std@@8 DD FLAT:??_R0?AVbad_array_new_length@std@@@8 ; std::bad_array_new_length::`RTTI Base Class Descriptor at (0,-1,0,64)'
	DD	02H
	DD	00H
	DD	0ffffffffH
	DD	00H
	DD	040H
	DD	FLAT:??_R3bad_array_new_length@std@@8
rdata$r	ENDS
;	COMDAT ??_R2bad_array_new_length@std@@8
rdata$r	SEGMENT
??_R2bad_array_new_length@std@@8 DD FLAT:??_R1A@?0A@EA@bad_array_new_length@std@@8 ; std::bad_array_new_length::`RTTI Base Class Array'
	DD	FLAT:??_R1A@?0A@EA@bad_alloc@std@@8
	DD	FLAT:??_R1A@?0A@EA@exception@std@@8
rdata$r	ENDS
;	COMDAT ??_R3bad_array_new_length@std@@8
rdata$r	SEGMENT
??_R3bad_array_new_length@std@@8 DD 00H			; std::bad_array_new_length::`RTTI Class Hierarchy Descriptor'
	DD	00H
	DD	03H
	DD	FLAT:??_R2bad_array_new_length@std@@8
rdata$r	ENDS
;	COMDAT ??_R4bad_array_new_length@std@@6B@
rdata$r	SEGMENT
??_R4bad_array_new_length@std@@6B@ DD 00H		; std::bad_array_new_length::`RTTI Complete Object Locator'
	DD	00H
	DD	00H
	DD	FLAT:??_R0?AVbad_array_new_length@std@@@8
	DD	FLAT:??_R3bad_array_new_length@std@@8
rdata$r	ENDS
;	COMDAT ??_R1A@?0A@EA@exception@std@@8
rdata$r	SEGMENT
??_R1A@?0A@EA@exception@std@@8 DD FLAT:??_R0?AVexception@std@@@8 ; std::exception::`RTTI Base Class Descriptor at (0,-1,0,64)'
	DD	00H
	DD	00H
	DD	0ffffffffH
	DD	00H
	DD	040H
	DD	FLAT:??_R3exception@std@@8
rdata$r	ENDS
;	COMDAT ??_R2exception@std@@8
rdata$r	SEGMENT
??_R2exception@std@@8 DD FLAT:??_R1A@?0A@EA@exception@std@@8 ; std::exception::`RTTI Base Class Array'
rdata$r	ENDS
;	COMDAT ??_R3exception@std@@8
rdata$r	SEGMENT
??_R3exception@std@@8 DD 00H				; std::exception::`RTTI Class Hierarchy Descriptor'
	DD	00H
	DD	01H
	DD	FLAT:??_R2exception@std@@8
rdata$r	ENDS
;	COMDAT ??_R4exception@std@@6B@
rdata$r	SEGMENT
??_R4exception@std@@6B@ DD 00H				; std::exception::`RTTI Complete Object Locator'
	DD	00H
	DD	00H
	DD	FLAT:??_R0?AVexception@std@@@8
	DD	FLAT:??_R3exception@std@@8
rdata$r	ENDS
;	COMDAT ??_C@_0BB@GCADKGJO@map?1set?5too?5long@
CONST	SEGMENT
??_C@_0BB@GCADKGJO@map?1set?5too?5long@ DB 'map/set too long', 00H ; `string'
CONST	ENDS
;	COMDAT __CT??_R0?AVbad_alloc@std@@@8??0bad_alloc@std@@QAE@ABV01@@Z12
xdata$x	SEGMENT
__CT??_R0?AVbad_alloc@std@@@8??0bad_alloc@std@@QAE@ABV01@@Z12 DD 010H
	DD	FLAT:??_R0?AVbad_alloc@std@@@8
	DD	00H
	DD	0ffffffffH
	ORG $+4
	DD	0cH
	DD	FLAT:??0bad_alloc@std@@QAE@ABV01@@Z
xdata$x	ENDS
;	COMDAT ??_R0?AVbad_alloc@std@@@8
data$r	SEGMENT
??_R0?AVbad_alloc@std@@@8 DD FLAT:??_7type_info@@6B@	; std::bad_alloc `RTTI Type Descriptor'
	DD	00H
	DB	'.?AVbad_alloc@std@@', 00H
data$r	ENDS
;	COMDAT __CT??_R0?AVbad_array_new_length@std@@@8??0bad_array_new_length@std@@QAE@ABV01@@Z12
xdata$x	SEGMENT
__CT??_R0?AVbad_array_new_length@std@@@8??0bad_array_new_length@std@@QAE@ABV01@@Z12 DD 00H
	DD	FLAT:??_R0?AVbad_array_new_length@std@@@8
	DD	00H
	DD	0ffffffffH
	ORG $+4
	DD	0cH
	DD	FLAT:??0bad_array_new_length@std@@QAE@ABV01@@Z
xdata$x	ENDS
;	COMDAT ??_R0?AVbad_array_new_length@std@@@8
data$r	SEGMENT
??_R0?AVbad_array_new_length@std@@@8 DD FLAT:??_7type_info@@6B@ ; std::bad_array_new_length `RTTI Type Descriptor'
	DD	00H
	DB	'.?AVbad_array_new_length@std@@', 00H
data$r	ENDS
;	COMDAT __CTA3?AVbad_array_new_length@std@@
xdata$x	SEGMENT
__CTA3?AVbad_array_new_length@std@@ DD 03H
	DD	FLAT:__CT??_R0?AVbad_array_new_length@std@@@8??0bad_array_new_length@std@@QAE@ABV01@@Z12
	DD	FLAT:__CT??_R0?AVbad_alloc@std@@@8??0bad_alloc@std@@QAE@ABV01@@Z12
	DD	FLAT:__CT??_R0?AVexception@std@@@8??0exception@std@@QAE@ABV01@@Z12
xdata$x	ENDS
;	COMDAT __TI3?AVbad_array_new_length@std@@
xdata$x	SEGMENT
__TI3?AVbad_array_new_length@std@@ DD 00H
	DD	FLAT:??1bad_array_new_length@std@@UAE@XZ
	DD	00H
	DD	FLAT:__CTA3?AVbad_array_new_length@std@@
xdata$x	ENDS
;	COMDAT __CT??_R0?AVexception@std@@@8??0exception@std@@QAE@ABV01@@Z12
xdata$x	SEGMENT
__CT??_R0?AVexception@std@@@8??0exception@std@@QAE@ABV01@@Z12 DD 00H
	DD	FLAT:??_R0?AVexception@std@@@8
	DD	00H
	DD	0ffffffffH
	ORG $+4
	DD	0cH
	DD	FLAT:??0exception@std@@QAE@ABV01@@Z
xdata$x	ENDS
;	COMDAT ??_R0?AVexception@std@@@8
data$r	SEGMENT
??_R0?AVexception@std@@@8 DD FLAT:??_7type_info@@6B@	; std::exception `RTTI Type Descriptor'
	DD	00H
	DB	'.?AVexception@std@@', 00H
data$r	ENDS
;	COMDAT ??_C@_0BF@KINCDENJ@bad?5array?5new?5length@
CONST	SEGMENT
??_C@_0BF@KINCDENJ@bad?5array?5new?5length@ DB 'bad array new length', 00H ; `string'
CONST	ENDS
;	COMDAT ??_7bad_array_new_length@std@@6B@
CONST	SEGMENT
??_7bad_array_new_length@std@@6B@ DD FLAT:??_R4bad_array_new_length@std@@6B@ ; std::bad_array_new_length::`vftable'
	DD	FLAT:??_Ebad_array_new_length@std@@UAEPAXI@Z
	DD	FLAT:?what@exception@std@@UBEPBDXZ
CONST	ENDS
;	COMDAT ??_7bad_alloc@std@@6B@
CONST	SEGMENT
??_7bad_alloc@std@@6B@ DD FLAT:??_R4bad_alloc@std@@6B@	; std::bad_alloc::`vftable'
	DD	FLAT:??_Ebad_alloc@std@@UAEPAXI@Z
	DD	FLAT:?what@exception@std@@UBEPBDXZ
CONST	ENDS
;	COMDAT ??_C@_0BC@EOODALEL@Unknown?5exception@
CONST	SEGMENT
??_C@_0BC@EOODALEL@Unknown?5exception@ DB 'Unknown exception', 00H ; `string'
CONST	ENDS
;	COMDAT ??_7exception@std@@6B@
CONST	SEGMENT
??_7exception@std@@6B@ DD FLAT:??_R4exception@std@@6B@	; std::exception::`vftable'
	DD	FLAT:??_Eexception@std@@UAEPAXI@Z
	DD	FLAT:?what@exception@std@@UBEPBDXZ
CONST	ENDS
;	COMDAT xdata$x
xdata$x	SEGMENT
__unwindtable$??$?0ABUpiecewise_construct_t@std@@V?$tuple@ABK@1@V?$tuple@$$V@1@@?$_Tree_temp_node@V?$allocator@U?$_Tree_node@U?$pair@$$CBKPAVCCtrl@@@std@@PAX@std@@@std@@@std@@QAE@AAV?$allocator@U?$_Tree_node@U?$pair@$$CBKPAVCCtrl@@@std@@PAX@std@@@1@PAU?$_Tree_node@U?$pair@$$CBKPAVCCtrl@@@std@@PAX@1@ABUpiecewise_construct_t@1@$$QAV?$tuple@ABK@1@$$QAV?$tuple@$$V@1@@Z DD 0ffffffffH
	DD	FLAT:__unwindfunclet$??$?0ABUpiecewise_construct_t@std@@V?$tuple@ABK@1@V?$tuple@$$V@1@@?$_Tree_temp_node@V?$allocator@U?$_Tree_node@U?$pair@$$CBKPAVCCtrl@@@std@@PAX@std@@@std@@@std@@QAE@AAV?$allocator@U?$_Tree_node@U?$pair@$$CBKPAVCCtrl@@@std@@PAX@std@@@1@PAU?$_Tree_node@U?$pair@$$CBKPAVCCtrl@@@std@@PAX@1@ABUpiecewise_construct_t@1@$$QAV?$tuple@ABK@1@$$QAV?$tuple@$$V@1@@Z$1
__ehfuncinfo$??$?0ABUpiecewise_construct_t@std@@V?$tuple@ABK@1@V?$tuple@$$V@1@@?$_Tree_temp_node@V?$allocator@U?$_Tree_node@U?$pair@$$CBKPAVCCtrl@@@std@@PAX@std@@@std@@@std@@QAE@AAV?$allocator@U?$_Tree_node@U?$pair@$$CBKPAVCCtrl@@@std@@PAX@std@@@1@PAU?$_Tree_node@U?$pair@$$CBKPAVCCtrl@@@std@@PAX@1@ABUpiecewise_construct_t@1@$$QAV?$tuple@ABK@1@$$QAV?$tuple@$$V@1@@Z DD 019930522H
	DD	01H
	DD	FLAT:__unwindtable$??$?0ABUpiecewise_construct_t@std@@V?$tuple@ABK@1@V?$tuple@$$V@1@@?$_Tree_temp_node@V?$allocator@U?$_Tree_node@U?$pair@$$CBKPAVCCtrl@@@std@@PAX@std@@@std@@@std@@QAE@AAV?$allocator@U?$_Tree_node@U?$pair@$$CBKPAVCCtrl@@@std@@PAX@std@@@1@PAU?$_Tree_node@U?$pair@$$CBKPAVCCtrl@@@std@@PAX@1@ABUpiecewise_construct_t@1@$$QAV?$tuple@ABK@1@$$QAV?$tuple@$$V@1@@Z
	DD	2 DUP(00H)
	DD	2 DUP(00H)
	DD	00H
	DD	01H
xdata$x	ENDS
;	COMDAT xdata$x
xdata$x	SEGMENT
__unwindtable$??$_Try_emplace@ABK$$V@?$map@KPAVCCtrl@@U?$less@K@std@@V?$allocator@U?$pair@$$CBKPAVCCtrl@@@std@@@3@@std@@AAE?AU?$pair@PAU?$_Tree_node@U?$pair@$$CBKPAVCCtrl@@@std@@PAX@std@@_N@1@ABK@Z DD 0ffffffffH
	DD	FLAT:__unwindfunclet$??$_Try_emplace@ABK$$V@?$map@KPAVCCtrl@@U?$less@K@std@@V?$allocator@U?$pair@$$CBKPAVCCtrl@@@std@@@3@@std@@AAE?AU?$pair@PAU?$_Tree_node@U?$pair@$$CBKPAVCCtrl@@@std@@PAX@std@@_N@1@ABK@Z$2
__ehfuncinfo$??$_Try_emplace@ABK$$V@?$map@KPAVCCtrl@@U?$less@K@std@@V?$allocator@U?$pair@$$CBKPAVCCtrl@@@std@@@3@@std@@AAE?AU?$pair@PAU?$_Tree_node@U?$pair@$$CBKPAVCCtrl@@@std@@PAX@std@@_N@1@ABK@Z DD 019930522H
	DD	01H
	DD	FLAT:__unwindtable$??$_Try_emplace@ABK$$V@?$map@KPAVCCtrl@@U?$less@K@std@@V?$allocator@U?$pair@$$CBKPAVCCtrl@@@std@@@3@@std@@AAE?AU?$pair@PAU?$_Tree_node@U?$pair@$$CBKPAVCCtrl@@@std@@PAX@std@@_N@1@ABK@Z
	DD	2 DUP(00H)
	DD	2 DUP(00H)
	DD	00H
	DD	01H
xdata$x	ENDS
;	COMDAT xdata$x
xdata$x	SEGMENT
__unwindtable$?NPCSetAt@CUser@@QAEXKPAVCCtrl@@@Z DD 0ffffffffH
	DD	FLAT:__unwindfunclet$?NPCSetAt@CUser@@QAEXKPAVCCtrl@@@Z$2
__ehfuncinfo$?NPCSetAt@CUser@@QAEXKPAVCCtrl@@@Z DD 019930522H
	DD	01H
	DD	FLAT:__unwindtable$?NPCSetAt@CUser@@QAEXKPAVCCtrl@@@Z
	DD	2 DUP(00H)
	DD	2 DUP(00H)
	DD	00H
	DD	01H
xdata$x	ENDS
;	COMDAT xdata$x
xdata$x	SEGMENT
__ehfuncinfo$?ModifyView@CLinkMap@@QAEXPAVCCtrl@@@Z DD 019930522H
	DD	08H
	DD	FLAT:__unwindtable$?ModifyView@CLinkMap@@QAEXPAVCCtrl@@@Z
	DD	2 DUP(00H)
	DD	2 DUP(00H)
	DD	00H
	DD	01H
__unwindtable$?ModifyView@CLinkMap@@QAEXPAVCCtrl@@@Z DD 0ffffffffH
	DD	FLAT:__unwindfunclet$?ModifyView@CLinkMap@@QAEXPAVCCtrl@@@Z$37
	DD	0ffffffffH
	DD	FLAT:__unwindfunclet$?ModifyView@CLinkMap@@QAEXPAVCCtrl@@@Z$32
	DD	0ffffffffH
	DD	FLAT:__unwindfunclet$?ModifyView@CLinkMap@@QAEXPAVCCtrl@@@Z$17
	DD	0ffffffffH
	DD	FLAT:__unwindfunclet$?ModifyView@CLinkMap@@QAEXPAVCCtrl@@@Z$12
	DD	0ffffffffH
	DD	FLAT:__unwindfunclet$?ModifyView@CLinkMap@@QAEXPAVCCtrl@@@Z$7
	DD	0ffffffffH
	DD	FLAT:__unwindfunclet$?ModifyView@CLinkMap@@QAEXPAVCCtrl@@@Z$2
	DD	0ffffffffH
	DD	FLAT:__unwindfunclet$?ModifyView@CLinkMap@@QAEXPAVCCtrl@@@Z$22
	DD	0ffffffffH
	DD	FLAT:__unwindfunclet$?ModifyView@CLinkMap@@QAEXPAVCCtrl@@@Z$27
xdata$x	ENDS
;	COMDAT xdata$x
xdata$x	SEGMENT
__ehfuncinfo$?AddItToView@CLinkMap@@QAEXPAVCCtrl@@@Z DD 019930522H
	DD	08H
	DD	FLAT:__unwindtable$?AddItToView@CLinkMap@@QAEXPAVCCtrl@@@Z
	DD	2 DUP(00H)
	DD	2 DUP(00H)
	DD	00H
	DD	01H
__unwindtable$?AddItToView@CLinkMap@@QAEXPAVCCtrl@@@Z DD 0ffffffffH
	DD	FLAT:__unwindfunclet$?AddItToView@CLinkMap@@QAEXPAVCCtrl@@@Z$37
	DD	0ffffffffH
	DD	FLAT:__unwindfunclet$?AddItToView@CLinkMap@@QAEXPAVCCtrl@@@Z$32
	DD	0ffffffffH
	DD	FLAT:__unwindfunclet$?AddItToView@CLinkMap@@QAEXPAVCCtrl@@@Z$12
	DD	0ffffffffH
	DD	FLAT:__unwindfunclet$?AddItToView@CLinkMap@@QAEXPAVCCtrl@@@Z$17
	DD	0ffffffffH
	DD	FLAT:__unwindfunclet$?AddItToView@CLinkMap@@QAEXPAVCCtrl@@@Z$7
	DD	0ffffffffH
	DD	FLAT:__unwindfunclet$?AddItToView@CLinkMap@@QAEXPAVCCtrl@@@Z$2
	DD	0ffffffffH
	DD	FLAT:__unwindfunclet$?AddItToView@CLinkMap@@QAEXPAVCCtrl@@@Z$22
	DD	0ffffffffH
	DD	FLAT:__unwindfunclet$?AddItToView@CLinkMap@@QAEXPAVCCtrl@@@Z$27
xdata$x	ENDS
;	COMDAT xdata$x
xdata$x	SEGMENT
__unwindtable$??0?$_Tree_temp_node_alloc@V?$allocator@U?$_Tree_node@U?$pair@$$CBKPAVCCtrl@@@std@@PAX@std@@@std@@@std@@QAE@AAV?$allocator@U?$_Tree_node@U?$pair@$$CBKPAVCCtrl@@@std@@PAX@std@@@1@@Z DD 0ffffffffH
	DD	FLAT:__unwindfunclet$??0?$_Tree_temp_node_alloc@V?$allocator@U?$_Tree_node@U?$pair@$$CBKPAVCCtrl@@@std@@PAX@std@@@std@@@std@@QAE@AAV?$allocator@U?$_Tree_node@U?$pair@$$CBKPAVCCtrl@@@std@@PAX@std@@@1@@Z$0
__ehfuncinfo$??0?$_Tree_temp_node_alloc@V?$allocator@U?$_Tree_node@U?$pair@$$CBKPAVCCtrl@@@std@@PAX@std@@@std@@@std@@QAE@AAV?$allocator@U?$_Tree_node@U?$pair@$$CBKPAVCCtrl@@@std@@PAX@std@@@1@@Z DD 019930522H
	DD	01H
	DD	FLAT:__unwindtable$??0?$_Tree_temp_node_alloc@V?$allocator@U?$_Tree_node@U?$pair@$$CBKPAVCCtrl@@@std@@PAX@std@@@std@@@std@@QAE@AAV?$allocator@U?$_Tree_node@U?$pair@$$CBKPAVCCtrl@@@std@@PAX@std@@@1@@Z
	DD	2 DUP(00H)
	DD	2 DUP(00H)
	DD	00H
	DD	01H
xdata$x	ENDS
;	COMDAT xdata$x
xdata$x	SEGMENT
__unwindtable$??$?0ABUpiecewise_construct_t@std@@V?$tuple@ABK@1@V?$tuple@$$V@1@@?$_Tree_temp_node@V?$allocator@U?$_Tree_node@U?$pair@$$CBKPAVCUser@@@std@@PAX@std@@@std@@@std@@QAE@AAV?$allocator@U?$_Tree_node@U?$pair@$$CBKPAVCUser@@@std@@PAX@std@@@1@PAU?$_Tree_node@U?$pair@$$CBKPAVCUser@@@std@@PAX@1@ABUpiecewise_construct_t@1@$$QAV?$tuple@ABK@1@$$QAV?$tuple@$$V@1@@Z DD 0ffffffffH
	DD	FLAT:__unwindfunclet$??$?0ABUpiecewise_construct_t@std@@V?$tuple@ABK@1@V?$tuple@$$V@1@@?$_Tree_temp_node@V?$allocator@U?$_Tree_node@U?$pair@$$CBKPAVCUser@@@std@@PAX@std@@@std@@@std@@QAE@AAV?$allocator@U?$_Tree_node@U?$pair@$$CBKPAVCUser@@@std@@PAX@std@@@1@PAU?$_Tree_node@U?$pair@$$CBKPAVCUser@@@std@@PAX@1@ABUpiecewise_construct_t@1@$$QAV?$tuple@ABK@1@$$QAV?$tuple@$$V@1@@Z$1
__ehfuncinfo$??$?0ABUpiecewise_construct_t@std@@V?$tuple@ABK@1@V?$tuple@$$V@1@@?$_Tree_temp_node@V?$allocator@U?$_Tree_node@U?$pair@$$CBKPAVCUser@@@std@@PAX@std@@@std@@@std@@QAE@AAV?$allocator@U?$_Tree_node@U?$pair@$$CBKPAVCUser@@@std@@PAX@std@@@1@PAU?$_Tree_node@U?$pair@$$CBKPAVCUser@@@std@@PAX@1@ABUpiecewise_construct_t@1@$$QAV?$tuple@ABK@1@$$QAV?$tuple@$$V@1@@Z DD 019930522H
	DD	01H
	DD	FLAT:__unwindtable$??$?0ABUpiecewise_construct_t@std@@V?$tuple@ABK@1@V?$tuple@$$V@1@@?$_Tree_temp_node@V?$allocator@U?$_Tree_node@U?$pair@$$CBKPAVCUser@@@std@@PAX@std@@@std@@@std@@QAE@AAV?$allocator@U?$_Tree_node@U?$pair@$$CBKPAVCUser@@@std@@PAX@std@@@1@PAU?$_Tree_node@U?$pair@$$CBKPAVCUser@@@std@@PAX@1@ABUpiecewise_construct_t@1@$$QAV?$tuple@ABK@1@$$QAV?$tuple@$$V@1@@Z
	DD	2 DUP(00H)
	DD	2 DUP(00H)
	DD	00H
	DD	01H
xdata$x	ENDS
;	COMDAT xdata$x
xdata$x	SEGMENT
__unwindtable$??0?$_Tree_temp_node_alloc@V?$allocator@U?$_Tree_node@U?$pair@$$CBKPAVCUser@@@std@@PAX@std@@@std@@@std@@QAE@AAV?$allocator@U?$_Tree_node@U?$pair@$$CBKPAVCUser@@@std@@PAX@std@@@1@@Z DD 0ffffffffH
	DD	FLAT:__unwindfunclet$??0?$_Tree_temp_node_alloc@V?$allocator@U?$_Tree_node@U?$pair@$$CBKPAVCUser@@@std@@PAX@std@@@std@@@std@@QAE@AAV?$allocator@U?$_Tree_node@U?$pair@$$CBKPAVCUser@@@std@@PAX@std@@@1@@Z$0
__ehfuncinfo$??0?$_Tree_temp_node_alloc@V?$allocator@U?$_Tree_node@U?$pair@$$CBKPAVCUser@@@std@@PAX@std@@@std@@@std@@QAE@AAV?$allocator@U?$_Tree_node@U?$pair@$$CBKPAVCUser@@@std@@PAX@std@@@1@@Z DD 019930522H
	DD	01H
	DD	FLAT:__unwindtable$??0?$_Tree_temp_node_alloc@V?$allocator@U?$_Tree_node@U?$pair@$$CBKPAVCUser@@@std@@PAX@std@@@std@@@std@@QAE@AAV?$allocator@U?$_Tree_node@U?$pair@$$CBKPAVCUser@@@std@@PAX@std@@@1@@Z
	DD	2 DUP(00H)
	DD	2 DUP(00H)
	DD	00H
	DD	01H
xdata$x	ENDS
;	COMDAT xdata$x
xdata$x	SEGMENT
__unwindtable$??$_Try_emplace@ABK$$V@?$map@KPAVCUser@@U?$less@K@std@@V?$allocator@U?$pair@$$CBKPAVCUser@@@std@@@3@@std@@AAE?AU?$pair@PAU?$_Tree_node@U?$pair@$$CBKPAVCUser@@@std@@PAX@std@@_N@1@ABK@Z DD 0ffffffffH
	DD	FLAT:__unwindfunclet$??$_Try_emplace@ABK$$V@?$map@KPAVCUser@@U?$less@K@std@@V?$allocator@U?$pair@$$CBKPAVCUser@@@std@@@3@@std@@AAE?AU?$pair@PAU?$_Tree_node@U?$pair@$$CBKPAVCUser@@@std@@PAX@std@@_N@1@ABK@Z$2
__ehfuncinfo$??$_Try_emplace@ABK$$V@?$map@KPAVCUser@@U?$less@K@std@@V?$allocator@U?$pair@$$CBKPAVCUser@@@std@@@3@@std@@AAE?AU?$pair@PAU?$_Tree_node@U?$pair@$$CBKPAVCUser@@@std@@PAX@std@@_N@1@ABK@Z DD 019930522H
	DD	01H
	DD	FLAT:__unwindtable$??$_Try_emplace@ABK$$V@?$map@KPAVCUser@@U?$less@K@std@@V?$allocator@U?$pair@$$CBKPAVCUser@@@std@@@3@@std@@AAE?AU?$pair@PAU?$_Tree_node@U?$pair@$$CBKPAVCUser@@@std@@PAX@std@@_N@1@ABK@Z
	DD	2 DUP(00H)
	DD	2 DUP(00H)
	DD	00H
	DD	01H
xdata$x	ENDS
;	COMDAT xdata$x
xdata$x	SEGMENT
__unwindtable$??A?$map@KPAVCCtrl@@U?$less@K@std@@V?$allocator@U?$pair@$$CBKPAVCCtrl@@@std@@@3@@std@@QAEAAPAVCCtrl@@ABK@Z DD 0ffffffffH
	DD	FLAT:__unwindfunclet$??A?$map@KPAVCCtrl@@U?$less@K@std@@V?$allocator@U?$pair@$$CBKPAVCCtrl@@@std@@@3@@std@@QAEAAPAVCCtrl@@ABK@Z$2
__ehfuncinfo$??A?$map@KPAVCCtrl@@U?$less@K@std@@V?$allocator@U?$pair@$$CBKPAVCCtrl@@@std@@@3@@std@@QAEAAPAVCCtrl@@ABK@Z DD 019930522H
	DD	01H
	DD	FLAT:__unwindtable$??A?$map@KPAVCCtrl@@U?$less@K@std@@V?$allocator@U?$pair@$$CBKPAVCCtrl@@@std@@@3@@std@@QAEAAPAVCCtrl@@ABK@Z
	DD	2 DUP(00H)
	DD	2 DUP(00H)
	DD	00H
	DD	01H
xdata$x	ENDS
;	COMDAT xdata$x
xdata$x	SEGMENT
__unwindtable$?PCSetAt@CCtrl@@QAEXKPAV1@@Z DD 0ffffffffH
	DD	FLAT:__unwindfunclet$?PCSetAt@CCtrl@@QAEXKPAV1@@Z$2
__ehfuncinfo$?PCSetAt@CCtrl@@QAEXKPAV1@@Z DD 019930522H
	DD	01H
	DD	FLAT:__unwindtable$?PCSetAt@CCtrl@@QAEXKPAV1@@Z
	DD	2 DUP(00H)
	DD	2 DUP(00H)
	DD	00H
	DD	01H
xdata$x	ENDS
;	COMDAT xdata$x
xdata$x	SEGMENT
__unwindtable$??A?$map@KPAVCUser@@U?$less@K@std@@V?$allocator@U?$pair@$$CBKPAVCUser@@@std@@@3@@std@@QAEAAPAVCUser@@ABK@Z DD 0ffffffffH
	DD	FLAT:__unwindfunclet$??A?$map@KPAVCUser@@U?$less@K@std@@V?$allocator@U?$pair@$$CBKPAVCUser@@@std@@@3@@std@@QAEAAPAVCUser@@ABK@Z$2
__ehfuncinfo$??A?$map@KPAVCUser@@U?$less@K@std@@V?$allocator@U?$pair@$$CBKPAVCUser@@@std@@@3@@std@@QAEAAPAVCUser@@ABK@Z DD 019930522H
	DD	01H
	DD	FLAT:__unwindtable$??A?$map@KPAVCUser@@U?$less@K@std@@V?$allocator@U?$pair@$$CBKPAVCUser@@@std@@@3@@std@@QAEAAPAVCUser@@ABK@Z
	DD	2 DUP(00H)
	DD	2 DUP(00H)
	DD	00H
	DD	01H
xdata$x	ENDS
; Function compile flags: /Ogtp
; File C:\IAGOS\server\v18\Source\Source\WorldServer\LinkMap.cpp
; File C:\IAGOS\server\v18\Source\Source\WorldServer\LinkMap.h
; File C:\IAGOS\server\v18\Source\Source\WorldServer\LinkMap.cpp
; File C:\IAGOS\server\v18\Source\Source\WorldServer\LinkMap.h
; File C:\IAGOS\server\v18\Source\Source\WorldServer\LinkMap.cpp
;	COMDAT ?GetObjPtr@CLinkMap@@AAEPAPAVCObj@@ABUD3DXVECTOR3@@KH@Z
_TEXT	SEGMENT
_vPos$ = 8						; size = 4
_dwLinkType$ = 12					; size = 4
_nLinkLevel$ = 16					; size = 4
?GetObjPtr@CLinkMap@@AAEPAPAVCObj@@ABUD3DXVECTOR3@@KH@Z PROC ; CLinkMap::GetObjPtr, COMDAT
; _this$ = ecx

; 90   : {

  00000	55		 push	 ebp
  00001	8b ec		 mov	 ebp, esp
  00003	56		 push	 esi
  00004	57		 push	 edi
; File C:\IAGOS\server\v18\Source\Source\WorldServer\LinkMap.h

; 73   : 	return m_infos[dwLinkType].nWidth[dwLinkLevel]; 

  00005	8b 7d 0c	 mov	 edi, DWORD PTR _dwLinkType$[ebp]
; File C:\IAGOS\server\v18\Source\Source\WorldServer\LinkMap.cpp

; 90   : {

  00008	8b f1		 mov	 esi, ecx
; File C:\IAGOS\server\v18\Source\Source\WorldServer\LinkMap.h

; 73   : 	return m_infos[dwLinkType].nWidth[dwLinkLevel]; 

  0000a	c1 e7 04	 shl	 edi, 4
  0000d	2b 7d 0c	 sub	 edi, DWORD PTR _dwLinkType$[ebp]
  00010	03 7d 10	 add	 edi, DWORD PTR _nLinkLevel$[ebp]
; File C:\IAGOS\server\v18\Source\Source\WorldServer\LinkMap.cpp

; 92   : 	int nMaxWidth = GetLinkWidth( dwLinkType, nLinkLevel ) * m_nLandWidth;

  00013	8b 86 f0 00 00
	00		 mov	 eax, DWORD PTR [esi+240]
  00019	66 0f 6e 96 30
	01 00 00	 movd	 xmm2, DWORD PTR [esi+304]

; 93   : 	
; 94   : 	int nUnit = (MAP_SIZE * m_nLandWidth) / nMaxWidth;
; 95   : 	int nPos = int( vPos.z / m_iMPU / nUnit ) * nMaxWidth + int( vPos.x / m_iMPU / nUnit );

  00021	0f 5b d2	 cvtdq2ps xmm2, xmm2
  00024	8b 4c be 04	 mov	 ecx, DWORD PTR [esi+edi*4+4]
  00028	0f af c8	 imul	 ecx, eax
  0002b	c1 e0 07	 shl	 eax, 7
  0002e	99		 cdq
  0002f	f7 f9		 idiv	 ecx
  00031	66 0f 6e c8	 movd	 xmm1, eax
  00035	8b 45 08	 mov	 eax, DWORD PTR _vPos$[ebp]
  00038	0f 5b c9	 cvtdq2ps xmm1, xmm1
  0003b	f3 0f 10 40 08	 movss	 xmm0, DWORD PTR [eax+8]
  00040	f3 0f 5e c2	 divss	 xmm0, xmm2
  00044	f3 0f 5e c1	 divss	 xmm0, xmm1
  00048	f3 0f 2c d0	 cvttss2si edx, xmm0
  0004c	f3 0f 10 00	 movss	 xmm0, DWORD PTR [eax]
  00050	f3 0f 5e c2	 divss	 xmm0, xmm2
  00054	0f af d1	 imul	 edx, ecx
  00057	f3 0f 5e c1	 divss	 xmm0, xmm1
  0005b	f3 0f 2c c0	 cvttss2si eax, xmm0
  0005f	03 d0		 add	 edx, eax

; 96   : 	if( nPos >= 0 && nPos < nMaxWidth * nMaxWidth )

  00061	78 14		 js	 SHORT $LN2@GetObjPtr
  00063	0f af c9	 imul	 ecx, ecx
  00066	3b d1		 cmp	 edx, ecx
  00068	7d 0d		 jge	 SHORT $LN2@GetObjPtr

; 97   : 		return (aObjLinkMap + nPos) ;

  0006a	8b 44 be 20	 mov	 eax, DWORD PTR [esi+edi*4+32]
  0006e	5f		 pop	 edi

; 99   : }

  0006f	5e		 pop	 esi
  00070	8d 04 90	 lea	 eax, DWORD PTR [eax+edx*4]
  00073	5d		 pop	 ebp
  00074	c2 0c 00	 ret	 12			; 0000000cH
$LN2@GetObjPtr:
  00077	5f		 pop	 edi

; 98   : 	return NULL;

  00078	33 c0		 xor	 eax, eax

; 99   : }

  0007a	5e		 pop	 esi
  0007b	5d		 pop	 ebp
  0007c	c2 0c 00	 ret	 12			; 0000000cH
?GetObjPtr@CLinkMap@@AAEPAPAVCObj@@ABUD3DXVECTOR3@@KH@Z ENDP ; CLinkMap::GetObjPtr
_TEXT	ENDS
; Function compile flags: /Ogtp
; File C:\IAGOS\server\v18\Source\Source\WorldServer\LinkMap.cpp
;	COMDAT ?IsOverlapped@CLinkMap@@AAEHHHHH@Z
_TEXT	SEGMENT
_c$ = 8							; size = 4
_p$ = 12						; size = 4
_r$ = 16						; size = 4
_w$ = 20						; size = 4
?IsOverlapped@CLinkMap@@AAEHHHHH@Z PROC			; CLinkMap::IsOverlapped, COMDAT
; _this$ = ecx

; 649  : {	/*	c	- old center,	p	- index,	r	- range,	w	- width		*/

  00000	55		 push	 ebp
  00001	8b ec		 mov	 ebp, esp

; 650  : 	int nZ;
; 651  : 	float fZ	= (float)( p - c + r ) / w;

  00003	8b 55 10	 mov	 edx, DWORD PTR _r$[ebp]
  00006	66 0f 6e 45 14	 movd	 xmm0, DWORD PTR _w$[ebp]
  0000b	56		 push	 esi
  0000c	57		 push	 edi
  0000d	8b 7d 0c	 mov	 edi, DWORD PTR _p$[ebp]
  00010	8b c7		 mov	 eax, edi
  00012	2b 45 08	 sub	 eax, DWORD PTR _c$[ebp]
  00015	03 c2		 add	 eax, edx
  00017	0f 5b c0	 cvtdq2ps xmm0, xmm0
  0001a	66 0f 6e c8	 movd	 xmm1, eax
  0001e	0f 5b c9	 cvtdq2ps xmm1, xmm1
  00021	f3 0f 5e c8	 divss	 xmm1, xmm0

; 652  : 	
; 653  : 	// find row
; 654  : 	if( fZ >= 0 )

  00025	0f 2f 0d 00 00
	00 00		 comiss	 xmm1, DWORD PTR __real@00000000
  0002c	f3 0f 2c c9	 cvttss2si ecx, xmm1
  00030	73 24		 jae	 SHORT $LN5@IsOverlapp

; 655  : 	{
; 656  : 		nZ	= (int)fZ;
; 657  : 	}
; 658  : 	else
; 659  : 	{
; 660  : 		if( (int)fZ / fZ == 1.0f )

  00032	66 0f 6e c1	 movd	 xmm0, ecx
  00036	0f 5b c0	 cvtdq2ps xmm0, xmm0
  00039	f3 0f 10 15 00
	00 00 00	 movss	 xmm2, DWORD PTR __real@3f800000
  00041	f3 0f 5e c1	 divss	 xmm0, xmm1
  00045	0f 2e c2	 ucomiss xmm0, xmm2
  00048	9f		 lahf
  00049	f6 c4 44	 test	 ah, 68			; 00000044H
  0004c	7b 08		 jnp	 SHORT $LN5@IsOverlapp

; 661  : 			nZ	= (int)fZ;
; 662  : 		else
; 663  : 			nZ	= (int)( fZ - 1 );

  0004e	f3 0f 5c ca	 subss	 xmm1, xmm2
  00052	f3 0f 2c c9	 cvttss2si ecx, xmm1
$LN5@IsOverlapp:

; 664  : 	}
; 665  : 
; 666  : 	int k	= c + nZ * w;

  00056	8b f1		 mov	 esi, ecx

; 667  : 	if( nZ >= -r && nZ <= r &&  k - r <= p && p <= k + r )

  00058	8b c2		 mov	 eax, edx
  0005a	0f af 75 14	 imul	 esi, DWORD PTR _w$[ebp]
  0005e	f7 d8		 neg	 eax
  00060	03 75 08	 add	 esi, DWORD PTR _c$[ebp]
  00063	3b c8		 cmp	 ecx, eax
  00065	7c 2c		 jl	 SHORT $LN6@IsOverlapp
  00067	3b ca		 cmp	 ecx, edx
  00069	7f 28		 jg	 SHORT $LN6@IsOverlapp
  0006b	8b c6		 mov	 eax, esi
  0006d	2b c2		 sub	 eax, edx
  0006f	3b c7		 cmp	 eax, edi
  00071	7f 20		 jg	 SHORT $LN6@IsOverlapp
  00073	8d 04 16	 lea	 eax, DWORD PTR [esi+edx]
  00076	3b f8		 cmp	 edi, eax
  00078	7f 19		 jg	 SHORT $LN6@IsOverlapp

; 668  : 	{
; 669  : 		return ( ( nZ + r ) * ( 2 * r + 1 ) + ( p - k/*nX*/ + r ) );	// mask index

  0007a	8d 04 11	 lea	 eax, DWORD PTR [ecx+edx]
  0007d	8d 0c 55 01 00
	00 00		 lea	 ecx, DWORD PTR [edx*2+1]
  00084	0f af c1	 imul	 eax, ecx
  00087	2b c6		 sub	 eax, esi
  00089	03 c7		 add	 eax, edi
  0008b	5f		 pop	 edi
  0008c	03 c2		 add	 eax, edx

; 673  : }

  0008e	5e		 pop	 esi
  0008f	5d		 pop	 ebp
  00090	c2 10 00	 ret	 16			; 00000010H
$LN6@IsOverlapp:
  00093	5f		 pop	 edi

; 670  : 	}
; 671  : 
; 672  : 	return -1;

  00094	83 c8 ff	 or	 eax, -1

; 673  : }

  00097	5e		 pop	 esi
  00098	5d		 pop	 ebp
  00099	c2 10 00	 ret	 16			; 00000010H
?IsOverlapped@CLinkMap@@AAEHHHHH@Z ENDP			; CLinkMap::IsOverlapped
_TEXT	ENDS
; Function compile flags: /Ogtp
; File C:\IAGOS\server\v18\Source\Source\WorldServer\LinkMap.cpp
; File C:\IAGOS\server\v18\Source\Source\_Common\Obj.h
; File C:\IAGOS\server\v18\Source\Source\WorldServer\LinkMap.cpp
; File C:\IAGOS\server\v18\Source\Source\_Common\Obj.h
; File C:\IAGOS\server\v18\Source\Source\WorldServer\LinkMap.cpp
; File C:\IAGOS\server\v18\Source\Source\_Common\Obj.h
; File C:\IAGOS\server\v18\Source\Source\WorldServer\LinkMap.cpp
; File C:\Program Files\Microsoft Visual Studio\2022\Professional\VC\Tools\MSVC\14.44.35207\include\xtree
; File C:\IAGOS\server\v18\Source\Source\_Common\Ctrl.h
; File C:\IAGOS\server\v18\Source\Source\WorldServer\LinkMap.cpp
; File C:\Program Files\Microsoft Visual Studio\2022\Professional\VC\Tools\MSVC\14.44.35207\include\xtree
; File C:\IAGOS\server\v18\Source\Source\_Common\Ctrl.h
; File C:\Program Files\Microsoft Visual Studio\2022\Professional\VC\Tools\MSVC\14.44.35207\include\xtree
; File C:\Program Files\Microsoft Visual Studio\2022\Professional\VC\Tools\MSVC\14.44.35207\include\type_traits
; File C:\Program Files\Microsoft Visual Studio\2022\Professional\VC\Tools\MSVC\14.44.35207\include\xtree
; File C:\Program Files\Microsoft Visual Studio\2022\Professional\VC\Tools\MSVC\14.44.35207\include\type_traits
; File C:\Program Files\Microsoft Visual Studio\2022\Professional\VC\Tools\MSVC\14.44.35207\include\xtree
; File C:\Program Files\Microsoft Visual Studio\2022\Professional\VC\Tools\MSVC\14.44.35207\include\xmemory
; File C:\Program Files\Microsoft Visual Studio\2022\Professional\VC\Tools\MSVC\14.44.35207\include\xtree
; File C:\Program Files\Microsoft Visual Studio\2022\Professional\VC\Tools\MSVC\14.44.35207\include\xmemory
; File C:\Program Files\Microsoft Visual Studio\2022\Professional\VC\Tools\MSVC\14.44.35207\include\xtree
; File C:\Program Files\Microsoft Visual Studio\2022\Professional\VC\Tools\MSVC\14.44.35207\include\xmemory
; File C:\Program Files\Microsoft Visual Studio\2022\Professional\VC\Tools\MSVC\14.44.35207\include\xtree
; File C:\Program Files\Microsoft Visual Studio\2022\Professional\VC\Tools\MSVC\14.44.35207\include\utility
; File C:\Program Files\Microsoft Visual Studio\2022\Professional\VC\Tools\MSVC\14.44.35207\include\xtree
; File C:\Program Files\Microsoft Visual Studio\2022\Professional\VC\Tools\MSVC\14.44.35207\include\map
; File C:\Program Files\Microsoft Visual Studio\2022\Professional\VC\Tools\MSVC\14.44.35207\include\xtree
; File C:\Program Files\Microsoft Visual Studio\2022\Professional\VC\Tools\MSVC\14.44.35207\include\map
; File C:\Program Files\Microsoft Visual Studio\2022\Professional\VC\Tools\MSVC\14.44.35207\include\xtree
; File C:\Program Files\Microsoft Visual Studio\2022\Professional\VC\Tools\MSVC\14.44.35207\include\map
; File C:\IAGOS\server\v18\Source\Source\WorldServer\LinkMap.cpp
; File C:\IAGOS\server\v18\Source\Source\_Common\Ctrl.h
; File C:\IAGOS\server\v18\Source\Source\WorldServer\LinkMap.cpp
; File C:\IAGOS\server\v18\Source\Source\_Common\Ctrl.h
; File C:\Program Files\Microsoft Visual Studio\2022\Professional\VC\Tools\MSVC\14.44.35207\include\xtree
; File C:\IAGOS\server\v18\Source\Source\WorldServer\LinkMap.cpp
; File C:\IAGOS\server\v18\Source\Source\_Common\Ctrl.h
; File C:\Program Files\Microsoft Visual Studio\2022\Professional\VC\Tools\MSVC\14.44.35207\include\xtree
; File C:\Program Files\Microsoft Visual Studio\2022\Professional\VC\Tools\MSVC\14.44.35207\include\type_traits
; File C:\Program Files\Microsoft Visual Studio\2022\Professional\VC\Tools\MSVC\14.44.35207\include\xtree
; File C:\Program Files\Microsoft Visual Studio\2022\Professional\VC\Tools\MSVC\14.44.35207\include\type_traits
; File C:\Program Files\Microsoft Visual Studio\2022\Professional\VC\Tools\MSVC\14.44.35207\include\xtree
; File C:\Program Files\Microsoft Visual Studio\2022\Professional\VC\Tools\MSVC\14.44.35207\include\xmemory
; File C:\Program Files\Microsoft Visual Studio\2022\Professional\VC\Tools\MSVC\14.44.35207\include\xtree
; File C:\Program Files\Microsoft Visual Studio\2022\Professional\VC\Tools\MSVC\14.44.35207\include\xmemory
; File C:\Program Files\Microsoft Visual Studio\2022\Professional\VC\Tools\MSVC\14.44.35207\include\xtree
; File C:\Program Files\Microsoft Visual Studio\2022\Professional\VC\Tools\MSVC\14.44.35207\include\xmemory
; File C:\Program Files\Microsoft Visual Studio\2022\Professional\VC\Tools\MSVC\14.44.35207\include\xtree
; File C:\Program Files\Microsoft Visual Studio\2022\Professional\VC\Tools\MSVC\14.44.35207\include\utility
; File C:\Program Files\Microsoft Visual Studio\2022\Professional\VC\Tools\MSVC\14.44.35207\include\xtree
; File C:\Program Files\Microsoft Visual Studio\2022\Professional\VC\Tools\MSVC\14.44.35207\include\map
; File C:\Program Files\Microsoft Visual Studio\2022\Professional\VC\Tools\MSVC\14.44.35207\include\xtree
; File C:\Program Files\Microsoft Visual Studio\2022\Professional\VC\Tools\MSVC\14.44.35207\include\map
; File C:\Program Files\Microsoft Visual Studio\2022\Professional\VC\Tools\MSVC\14.44.35207\include\xtree
; File C:\Program Files\Microsoft Visual Studio\2022\Professional\VC\Tools\MSVC\14.44.35207\include\map
; File C:\IAGOS\server\v18\Source\Source\_Common\Ctrl.h
; File C:\IAGOS\server\v18\Source\Source\WorldServer\LinkMap.cpp
; File C:\IAGOS\server\v18\Source\Source\_Common\Obj.h
; File C:\IAGOS\server\v18\Source\Source\WorldServer\LinkMap.cpp
; File C:\IAGOS\server\v18\Source\Source\_Common\Ctrl.h
; File C:\IAGOS\server\v18\Source\Source\WorldServer\LinkMap.cpp
; File C:\IAGOS\server\v18\Source\Source\_Common\Ctrl.h
; File C:\IAGOS\server\v18\Source\Source\WorldServer\user.h
; File C:\IAGOS\server\v18\Source\Source\WorldServer\LinkMap.cpp
; File C:\IAGOS\server\v18\Source\Source\_Common\Ctrl.h
; File C:\IAGOS\server\v18\Source\Source\WorldServer\LinkMap.cpp
; File C:\IAGOS\server\v18\Source\Source\_Common\Ctrl.h
; File C:\IAGOS\server\v18\Source\Source\WorldServer\user.h
; File C:\IAGOS\server\v18\Source\Source\WorldServer\LinkMap.cpp
; File C:\IAGOS\server\v18\Source\Source\WorldServer\LinkMap.h
; File C:\IAGOS\server\v18\Source\Source\WorldServer\LinkMap.cpp
; File C:\IAGOS\server\v18\Source\Source\WorldServer\LinkMap.h
; File C:\IAGOS\server\v18\Source\Source\WorldServer\LinkMap.cpp
; File C:\IAGOS\server\v18\Source\Source\WorldServer\LinkMap.h
; File C:\IAGOS\server\v18\Source\Source\WorldServer\LinkMap.cpp
; File C:\IAGOS\server\v18\Source\Source\WorldServer\LinkMap.h
; File C:\IAGOS\server\v18\Source\Source\WorldServer\LinkMap.cpp
; File C:\IAGOS\server\v18\Source\Source\_Common\Obj.h
; File C:\IAGOS\server\v18\Source\Source\WorldServer\LinkMap.cpp
; File C:\IAGOS\server\v18\Source\Source\WorldServer\user.h
; File C:\Program Files\Microsoft Visual Studio\2022\Professional\VC\Tools\MSVC\14.44.35207\include\xtree
; File C:\IAGOS\server\v18\Source\Source\WorldServer\LinkMap.cpp
; File C:\IAGOS\server\v18\Source\Source\WorldServer\user.h
; File C:\Program Files\Microsoft Visual Studio\2022\Professional\VC\Tools\MSVC\14.44.35207\include\xtree
; File C:\Program Files\Microsoft Visual Studio\2022\Professional\VC\Tools\MSVC\14.44.35207\include\type_traits
; File C:\Program Files\Microsoft Visual Studio\2022\Professional\VC\Tools\MSVC\14.44.35207\include\xtree
; File C:\Program Files\Microsoft Visual Studio\2022\Professional\VC\Tools\MSVC\14.44.35207\include\type_traits
; File C:\Program Files\Microsoft Visual Studio\2022\Professional\VC\Tools\MSVC\14.44.35207\include\xtree
; File C:\Program Files\Microsoft Visual Studio\2022\Professional\VC\Tools\MSVC\14.44.35207\include\xmemory
; File C:\Program Files\Microsoft Visual Studio\2022\Professional\VC\Tools\MSVC\14.44.35207\include\xtree
; File C:\Program Files\Microsoft Visual Studio\2022\Professional\VC\Tools\MSVC\14.44.35207\include\xmemory
; File C:\Program Files\Microsoft Visual Studio\2022\Professional\VC\Tools\MSVC\14.44.35207\include\xtree
; File C:\Program Files\Microsoft Visual Studio\2022\Professional\VC\Tools\MSVC\14.44.35207\include\xmemory
; File C:\Program Files\Microsoft Visual Studio\2022\Professional\VC\Tools\MSVC\14.44.35207\include\xtree
; File C:\Program Files\Microsoft Visual Studio\2022\Professional\VC\Tools\MSVC\14.44.35207\include\utility
; File C:\Program Files\Microsoft Visual Studio\2022\Professional\VC\Tools\MSVC\14.44.35207\include\xtree
; File C:\Program Files\Microsoft Visual Studio\2022\Professional\VC\Tools\MSVC\14.44.35207\include\map
; File C:\Program Files\Microsoft Visual Studio\2022\Professional\VC\Tools\MSVC\14.44.35207\include\xtree
; File C:\Program Files\Microsoft Visual Studio\2022\Professional\VC\Tools\MSVC\14.44.35207\include\map
; File C:\Program Files\Microsoft Visual Studio\2022\Professional\VC\Tools\MSVC\14.44.35207\include\xtree
; File C:\Program Files\Microsoft Visual Studio\2022\Professional\VC\Tools\MSVC\14.44.35207\include\map
; File C:\IAGOS\server\v18\Source\Source\WorldServer\LinkMap.cpp
; File C:\IAGOS\server\v18\Source\Source\WorldServer\user.h
; File C:\IAGOS\server\v18\Source\Source\WorldServer\LinkMap.cpp
; File C:\IAGOS\server\v18\Source\Source\_Common\Ctrl.h
; File C:\Program Files\Microsoft Visual Studio\2022\Professional\VC\Tools\MSVC\14.44.35207\include\xtree
; File C:\IAGOS\server\v18\Source\Source\_Common\Ctrl.h
; File C:\IAGOS\server\v18\Source\Source\WorldServer\LinkMap.cpp
; File C:\IAGOS\server\v18\Source\Source\_Common\Ctrl.h
; File C:\Program Files\Microsoft Visual Studio\2022\Professional\VC\Tools\MSVC\14.44.35207\include\xtree
; File C:\Program Files\Microsoft Visual Studio\2022\Professional\VC\Tools\MSVC\14.44.35207\include\type_traits
; File C:\Program Files\Microsoft Visual Studio\2022\Professional\VC\Tools\MSVC\14.44.35207\include\xtree
; File C:\Program Files\Microsoft Visual Studio\2022\Professional\VC\Tools\MSVC\14.44.35207\include\type_traits
; File C:\Program Files\Microsoft Visual Studio\2022\Professional\VC\Tools\MSVC\14.44.35207\include\xtree
; File C:\Program Files\Microsoft Visual Studio\2022\Professional\VC\Tools\MSVC\14.44.35207\include\xmemory
; File C:\Program Files\Microsoft Visual Studio\2022\Professional\VC\Tools\MSVC\14.44.35207\include\xtree
; File C:\Program Files\Microsoft Visual Studio\2022\Professional\VC\Tools\MSVC\14.44.35207\include\xmemory
; File C:\Program Files\Microsoft Visual Studio\2022\Professional\VC\Tools\MSVC\14.44.35207\include\xtree
; File C:\Program Files\Microsoft Visual Studio\2022\Professional\VC\Tools\MSVC\14.44.35207\include\xmemory
; File C:\Program Files\Microsoft Visual Studio\2022\Professional\VC\Tools\MSVC\14.44.35207\include\xtree
; File C:\Program Files\Microsoft Visual Studio\2022\Professional\VC\Tools\MSVC\14.44.35207\include\utility
; File C:\Program Files\Microsoft Visual Studio\2022\Professional\VC\Tools\MSVC\14.44.35207\include\xtree
; File C:\Program Files\Microsoft Visual Studio\2022\Professional\VC\Tools\MSVC\14.44.35207\include\map
; File C:\Program Files\Microsoft Visual Studio\2022\Professional\VC\Tools\MSVC\14.44.35207\include\xtree
; File C:\Program Files\Microsoft Visual Studio\2022\Professional\VC\Tools\MSVC\14.44.35207\include\map
; File C:\Program Files\Microsoft Visual Studio\2022\Professional\VC\Tools\MSVC\14.44.35207\include\xtree
; File C:\Program Files\Microsoft Visual Studio\2022\Professional\VC\Tools\MSVC\14.44.35207\include\map
; File C:\IAGOS\server\v18\Source\Source\_Common\Ctrl.h
; File C:\IAGOS\server\v18\Source\Source\WorldServer\LinkMap.cpp
; File C:\IAGOS\server\v18\Source\Source\_Common\Obj.h
; File C:\IAGOS\server\v18\Source\Source\WorldServer\LinkMap.cpp
; File C:\IAGOS\server\v18\Source\Source\WorldServer\user.h
; File C:\IAGOS\server\v18\Source\Source\WorldServer\LinkMap.cpp
; File C:\IAGOS\server\v18\Source\Source\WorldServer\user.h
; File C:\IAGOS\server\v18\Source\Source\WorldServer\LinkMap.cpp
; File C:\IAGOS\server\v18\Source\Source\_Common\Ctrl.h
; File C:\IAGOS\server\v18\Source\Source\WorldServer\LinkMap.cpp
; File C:\IAGOS\server\v18\Source\Source\_Common\Ctrl.h
; File C:\IAGOS\server\v18\Source\Source\WorldServer\LinkMap.cpp
; File C:\IAGOS\server\v18\Source\Source\WorldServer\LinkMap.h
; File C:\IAGOS\server\v18\Source\Source\WorldServer\LinkMap.cpp
; File C:\IAGOS\server\v18\Source\Source\WorldServer\LinkMap.h
; File C:\IAGOS\server\v18\Source\Source\WorldServer\LinkMap.cpp
; File C:\IAGOS\server\v18\Source\Source\WorldServer\LinkMap.h
; File C:\IAGOS\server\v18\Source\Source\WorldServer\LinkMap.cpp
; File C:\IAGOS\server\v18\Source\Source\_Common\Obj.h
; File C:\IAGOS\server\v18\Source\Source\WorldServer\LinkMap.cpp
; File C:\IAGOS\server\v18\Source\Source\WorldServer\user.h
; File C:\Program Files\Microsoft Visual Studio\2022\Professional\VC\Tools\MSVC\14.44.35207\include\xtree
; File C:\IAGOS\server\v18\Source\Source\WorldServer\LinkMap.cpp
; File C:\IAGOS\server\v18\Source\Source\WorldServer\user.h
; File C:\Program Files\Microsoft Visual Studio\2022\Professional\VC\Tools\MSVC\14.44.35207\include\xtree
; File C:\Program Files\Microsoft Visual Studio\2022\Professional\VC\Tools\MSVC\14.44.35207\include\type_traits
; File C:\Program Files\Microsoft Visual Studio\2022\Professional\VC\Tools\MSVC\14.44.35207\include\xtree
; File C:\Program Files\Microsoft Visual Studio\2022\Professional\VC\Tools\MSVC\14.44.35207\include\type_traits
; File C:\Program Files\Microsoft Visual Studio\2022\Professional\VC\Tools\MSVC\14.44.35207\include\xtree
; File C:\Program Files\Microsoft Visual Studio\2022\Professional\VC\Tools\MSVC\14.44.35207\include\map
; File C:\Program Files\Microsoft Visual Studio\2022\Professional\VC\Tools\MSVC\14.44.35207\include\xtree
; File C:\Program Files\Microsoft Visual Studio\2022\Professional\VC\Tools\MSVC\14.44.35207\include\xmemory
; File C:\Program Files\Microsoft Visual Studio\2022\Professional\VC\Tools\MSVC\14.44.35207\include\xtree
; File C:\Program Files\Microsoft Visual Studio\2022\Professional\VC\Tools\MSVC\14.44.35207\include\xmemory
; File C:\Program Files\Microsoft Visual Studio\2022\Professional\VC\Tools\MSVC\14.44.35207\include\xtree
; File C:\Program Files\Microsoft Visual Studio\2022\Professional\VC\Tools\MSVC\14.44.35207\include\xmemory
; File C:\Program Files\Microsoft Visual Studio\2022\Professional\VC\Tools\MSVC\14.44.35207\include\xtree
; File C:\Program Files\Microsoft Visual Studio\2022\Professional\VC\Tools\MSVC\14.44.35207\include\utility
; File C:\Program Files\Microsoft Visual Studio\2022\Professional\VC\Tools\MSVC\14.44.35207\include\map
; File C:\Program Files\Microsoft Visual Studio\2022\Professional\VC\Tools\MSVC\14.44.35207\include\utility
; File C:\Program Files\Microsoft Visual Studio\2022\Professional\VC\Tools\MSVC\14.44.35207\include\map
; File C:\Program Files\Microsoft Visual Studio\2022\Professional\VC\Tools\MSVC\14.44.35207\include\xtree
; File C:\Program Files\Microsoft Visual Studio\2022\Professional\VC\Tools\MSVC\14.44.35207\include\map
; File C:\Program Files\Microsoft Visual Studio\2022\Professional\VC\Tools\MSVC\14.44.35207\include\xtree
; File C:\Program Files\Microsoft Visual Studio\2022\Professional\VC\Tools\MSVC\14.44.35207\include\map
; File C:\Program Files\Microsoft Visual Studio\2022\Professional\VC\Tools\MSVC\14.44.35207\include\xtree
; File C:\Program Files\Microsoft Visual Studio\2022\Professional\VC\Tools\MSVC\14.44.35207\include\map
; File C:\IAGOS\server\v18\Source\Source\WorldServer\user.h
; File C:\IAGOS\server\v18\Source\Source\WorldServer\LinkMap.cpp
; File C:\Program Files\Microsoft Visual Studio\2022\Professional\VC\Tools\MSVC\14.44.35207\include\xtree
; File C:\IAGOS\server\v18\Source\Source\_Common\Ctrl.h
; File C:\IAGOS\server\v18\Source\Source\WorldServer\LinkMap.cpp
; File C:\Program Files\Microsoft Visual Studio\2022\Professional\VC\Tools\MSVC\14.44.35207\include\xtree
; File C:\IAGOS\server\v18\Source\Source\_Common\Ctrl.h
; File C:\Program Files\Microsoft Visual Studio\2022\Professional\VC\Tools\MSVC\14.44.35207\include\xtree
; File C:\Program Files\Microsoft Visual Studio\2022\Professional\VC\Tools\MSVC\14.44.35207\include\type_traits
; File C:\Program Files\Microsoft Visual Studio\2022\Professional\VC\Tools\MSVC\14.44.35207\include\xtree
; File C:\Program Files\Microsoft Visual Studio\2022\Professional\VC\Tools\MSVC\14.44.35207\include\type_traits
; File C:\Program Files\Microsoft Visual Studio\2022\Professional\VC\Tools\MSVC\14.44.35207\include\xtree
; File C:\Program Files\Microsoft Visual Studio\2022\Professional\VC\Tools\MSVC\14.44.35207\include\xmemory
; File C:\Program Files\Microsoft Visual Studio\2022\Professional\VC\Tools\MSVC\14.44.35207\include\xtree
; File C:\Program Files\Microsoft Visual Studio\2022\Professional\VC\Tools\MSVC\14.44.35207\include\xmemory
; File C:\Program Files\Microsoft Visual Studio\2022\Professional\VC\Tools\MSVC\14.44.35207\include\xtree
; File C:\Program Files\Microsoft Visual Studio\2022\Professional\VC\Tools\MSVC\14.44.35207\include\xmemory
; File C:\Program Files\Microsoft Visual Studio\2022\Professional\VC\Tools\MSVC\14.44.35207\include\xtree
; File C:\Program Files\Microsoft Visual Studio\2022\Professional\VC\Tools\MSVC\14.44.35207\include\utility
; File C:\Program Files\Microsoft Visual Studio\2022\Professional\VC\Tools\MSVC\14.44.35207\include\xtree
; File C:\Program Files\Microsoft Visual Studio\2022\Professional\VC\Tools\MSVC\14.44.35207\include\map
; File C:\Program Files\Microsoft Visual Studio\2022\Professional\VC\Tools\MSVC\14.44.35207\include\xtree
; File C:\Program Files\Microsoft Visual Studio\2022\Professional\VC\Tools\MSVC\14.44.35207\include\map
; File C:\Program Files\Microsoft Visual Studio\2022\Professional\VC\Tools\MSVC\14.44.35207\include\xtree
; File C:\Program Files\Microsoft Visual Studio\2022\Professional\VC\Tools\MSVC\14.44.35207\include\map
; File C:\IAGOS\server\v18\Source\Source\_Common\Ctrl.h
; File C:\IAGOS\server\v18\Source\Source\WorldServer\LinkMap.cpp
; File C:\IAGOS\server\v18\Source\Source\_Common\Obj.h
; File C:\IAGOS\server\v18\Source\Source\WorldServer\LinkMap.cpp
; File C:\IAGOS\server\v18\Source\Source\WorldServer\user.h
; File C:\IAGOS\server\v18\Source\Source\WorldServer\LinkMap.cpp
; File C:\IAGOS\server\v18\Source\Source\WorldServer\user.h
; File C:\IAGOS\server\v18\Source\Source\WorldServer\LinkMap.cpp
; File C:\IAGOS\server\v18\Source\Source\_Common\Ctrl.h
; File C:\IAGOS\server\v18\Source\Source\WorldServer\LinkMap.cpp
; File C:\IAGOS\server\v18\Source\Source\_Common\Ctrl.h
; File C:\IAGOS\server\v18\Source\Source\WorldServer\LinkMap.cpp
; File C:\IAGOS\server\v18\Source\Source\_Common\Obj.h
; File C:\IAGOS\server\v18\Source\Source\WorldServer\LinkMap.cpp
; File C:\IAGOS\server\v18\Source\Source\_Common\Ctrl.h
; File C:\Program Files\Microsoft Visual Studio\2022\Professional\VC\Tools\MSVC\14.44.35207\include\xtree
; File C:\IAGOS\server\v18\Source\Source\WorldServer\LinkMap.cpp
; File C:\IAGOS\server\v18\Source\Source\_Common\Ctrl.h
; File C:\IAGOS\server\v18\Source\Source\WorldServer\LinkMap.cpp
; File C:\IAGOS\server\v18\Source\Source\_Common\Ctrl.h
; File C:\Program Files\Microsoft Visual Studio\2022\Professional\VC\Tools\MSVC\14.44.35207\include\xtree
; File C:\IAGOS\server\v18\Source\Source\WorldServer\LinkMap.cpp
; File C:\Program Files\Microsoft Visual Studio\2022\Professional\VC\Tools\MSVC\14.44.35207\include\xtree
; File C:\Program Files\Microsoft Visual Studio\2022\Professional\VC\Tools\MSVC\14.44.35207\include\type_traits
; File C:\Program Files\Microsoft Visual Studio\2022\Professional\VC\Tools\MSVC\14.44.35207\include\xtree
; File C:\Program Files\Microsoft Visual Studio\2022\Professional\VC\Tools\MSVC\14.44.35207\include\type_traits
; File C:\Program Files\Microsoft Visual Studio\2022\Professional\VC\Tools\MSVC\14.44.35207\include\xtree
; File C:\Program Files\Microsoft Visual Studio\2022\Professional\VC\Tools\MSVC\14.44.35207\include\map
; File C:\Program Files\Microsoft Visual Studio\2022\Professional\VC\Tools\MSVC\14.44.35207\include\xmemory
; File C:\Program Files\Microsoft Visual Studio\2022\Professional\VC\Tools\MSVC\14.44.35207\include\xtree
; File C:\Program Files\Microsoft Visual Studio\2022\Professional\VC\Tools\MSVC\14.44.35207\include\xmemory
; File C:\Program Files\Microsoft Visual Studio\2022\Professional\VC\Tools\MSVC\14.44.35207\include\utility
; File C:\Program Files\Microsoft Visual Studio\2022\Professional\VC\Tools\MSVC\14.44.35207\include\xmemory
; File C:\Program Files\Microsoft Visual Studio\2022\Professional\VC\Tools\MSVC\14.44.35207\include\xtree
; File C:\Program Files\Microsoft Visual Studio\2022\Professional\VC\Tools\MSVC\14.44.35207\include\utility
; File C:\Program Files\Microsoft Visual Studio\2022\Professional\VC\Tools\MSVC\14.44.35207\include\map
; File C:\Program Files\Microsoft Visual Studio\2022\Professional\VC\Tools\MSVC\14.44.35207\include\utility
; File C:\Program Files\Microsoft Visual Studio\2022\Professional\VC\Tools\MSVC\14.44.35207\include\map
; File C:\Program Files\Microsoft Visual Studio\2022\Professional\VC\Tools\MSVC\14.44.35207\include\xtree
; File C:\Program Files\Microsoft Visual Studio\2022\Professional\VC\Tools\MSVC\14.44.35207\include\map
; File C:\Program Files\Microsoft Visual Studio\2022\Professional\VC\Tools\MSVC\14.44.35207\include\xtree
; File C:\Program Files\Microsoft Visual Studio\2022\Professional\VC\Tools\MSVC\14.44.35207\include\map
; File C:\Program Files\Microsoft Visual Studio\2022\Professional\VC\Tools\MSVC\14.44.35207\include\xtree
; File C:\Program Files\Microsoft Visual Studio\2022\Professional\VC\Tools\MSVC\14.44.35207\include\map
; File C:\IAGOS\server\v18\Source\Source\WorldServer\LinkMap.cpp
; File C:\Program Files\Microsoft Visual Studio\2022\Professional\VC\Tools\MSVC\14.44.35207\include\xtree
; File C:\IAGOS\server\v18\Source\Source\_Common\Ctrl.h
; File C:\Program Files\Microsoft Visual Studio\2022\Professional\VC\Tools\MSVC\14.44.35207\include\xtree
; File C:\IAGOS\server\v18\Source\Source\WorldServer\LinkMap.cpp
; File C:\IAGOS\server\v18\Source\Source\WorldServer\user.h
; File C:\IAGOS\server\v18\Source\Source\WorldServer\LinkMap.cpp
; File C:\Program Files\Microsoft Visual Studio\2022\Professional\VC\Tools\MSVC\14.44.35207\include\xtree
; File C:\IAGOS\server\v18\Source\Source\WorldServer\user.h
; File C:\Program Files\Microsoft Visual Studio\2022\Professional\VC\Tools\MSVC\14.44.35207\include\xtree
; File C:\IAGOS\server\v18\Source\Source\WorldServer\LinkMap.cpp
; File C:\Program Files\Microsoft Visual Studio\2022\Professional\VC\Tools\MSVC\14.44.35207\include\xtree
; File C:\Program Files\Microsoft Visual Studio\2022\Professional\VC\Tools\MSVC\14.44.35207\include\type_traits
; File C:\Program Files\Microsoft Visual Studio\2022\Professional\VC\Tools\MSVC\14.44.35207\include\xtree
; File C:\Program Files\Microsoft Visual Studio\2022\Professional\VC\Tools\MSVC\14.44.35207\include\type_traits
; File C:\Program Files\Microsoft Visual Studio\2022\Professional\VC\Tools\MSVC\14.44.35207\include\xtree
; File C:\Program Files\Microsoft Visual Studio\2022\Professional\VC\Tools\MSVC\14.44.35207\include\map
; File C:\Program Files\Microsoft Visual Studio\2022\Professional\VC\Tools\MSVC\14.44.35207\include\xmemory
; File C:\Program Files\Microsoft Visual Studio\2022\Professional\VC\Tools\MSVC\14.44.35207\include\xtree
; File C:\Program Files\Microsoft Visual Studio\2022\Professional\VC\Tools\MSVC\14.44.35207\include\xmemory
; File C:\Program Files\Microsoft Visual Studio\2022\Professional\VC\Tools\MSVC\14.44.35207\include\utility
; File C:\Program Files\Microsoft Visual Studio\2022\Professional\VC\Tools\MSVC\14.44.35207\include\xmemory
; File C:\Program Files\Microsoft Visual Studio\2022\Professional\VC\Tools\MSVC\14.44.35207\include\xtree
; File C:\Program Files\Microsoft Visual Studio\2022\Professional\VC\Tools\MSVC\14.44.35207\include\utility
; File C:\Program Files\Microsoft Visual Studio\2022\Professional\VC\Tools\MSVC\14.44.35207\include\map
; File C:\Program Files\Microsoft Visual Studio\2022\Professional\VC\Tools\MSVC\14.44.35207\include\utility
; File C:\Program Files\Microsoft Visual Studio\2022\Professional\VC\Tools\MSVC\14.44.35207\include\map
; File C:\Program Files\Microsoft Visual Studio\2022\Professional\VC\Tools\MSVC\14.44.35207\include\xtree
; File C:\Program Files\Microsoft Visual Studio\2022\Professional\VC\Tools\MSVC\14.44.35207\include\map
; File C:\Program Files\Microsoft Visual Studio\2022\Professional\VC\Tools\MSVC\14.44.35207\include\xtree
; File C:\Program Files\Microsoft Visual Studio\2022\Professional\VC\Tools\MSVC\14.44.35207\include\map
; File C:\Program Files\Microsoft Visual Studio\2022\Professional\VC\Tools\MSVC\14.44.35207\include\xtree
; File C:\Program Files\Microsoft Visual Studio\2022\Professional\VC\Tools\MSVC\14.44.35207\include\map
; File C:\IAGOS\server\v18\Source\Source\WorldServer\user.h
; File C:\IAGOS\server\v18\Source\Source\WorldServer\LinkMap.cpp
; File C:\IAGOS\server\v18\Source\Source\_Common\Obj.h
; File C:\IAGOS\server\v18\Source\Source\WorldServer\LinkMap.cpp
; File C:\IAGOS\server\v18\Source\Source\_Common\Ctrl.h
; File C:\IAGOS\server\v18\Source\Source\WorldServer\LinkMap.cpp
; File C:\IAGOS\server\v18\Source\Source\_Common\Ctrl.h
; File C:\IAGOS\server\v18\Source\Source\WorldServer\LinkMap.cpp
; File C:\IAGOS\server\v18\Source\Source\WorldServer\user.h
; File C:\IAGOS\server\v18\Source\Source\WorldServer\LinkMap.cpp
; File C:\IAGOS\server\v18\Source\Source\WorldServer\user.h
; File C:\IAGOS\server\v18\Source\Source\WorldServer\LinkMap.cpp
;	COMDAT ?ModifyView@CLinkMap@@QAEXPAVCCtrl@@@Z
_TEXT	SEGMENT
$T10 = -148						; size = 8
$T11 = -140						; size = 8
_vPos$ = -132						; size = 12
$T12 = -120						; size = 8
$T13 = -112						; size = 8
$T14 = -112						; size = 8
$T15 = -104						; size = 8
$T16 = -104						; size = 8
$T17 = -96						; size = 8
_objid$1$ = -92						; size = 4
tv7109 = -92						; size = 4
_objid$1$ = -92						; size = 4
_nCenter$1$ = -88					; size = 4
tv7007 = -88						; size = 4
_pfMask$1$ = -84					; size = 4
_apObj$4$ = -84						; size = 4
_nMaxPos$2$ = -80					; size = 4
_nMaxPos$1$ = -80					; size = 4
_pfMask$2$ = -76					; size = 4
_nOldCenter$1$ = -76					; size = 4
_objid$ = -72						; size = 4
tv7102 = -72						; size = 4
_objid$ = -72						; size = 4
_nLinkLevel$1$ = -68					; size = 4
_pUsertmp$3$ = -68					; size = 4
$T18 = -68						; size = 4
_this$1$ = -64						; size = 4
_j$1$ = -60						; size = 4
_nOldCenter$2$ = -60					; size = 4
tv7018 = -60						; size = 4
tv7086 = -60						; size = 4
tv7032 = -60						; size = 4
$T19 = -60						; size = 4
$T20 = -60						; size = 4
_this$1$ = -56						; size = 4
_pCtrltmp$1$ = -56					; size = 4
_pCtrltmp$3$ = -56					; size = 4
_nLinkLevel$1$ = -56					; size = 4
$T21 = -56						; size = 4
_this$1$ = -56						; size = 4
_pUsertmp$1$ = -52					; size = 4
_apObj$3$ = -52						; size = 4
tv6993 = -52						; size = 4
_apObj$2$ = -52						; size = 4
_i$8$ = -48						; size = 4
_nVisibilityRange$2$ = -48				; size = 4
_j$5$ = -44						; size = 4
_j$7$ = -44						; size = 4
tv7015 = -44						; size = 4
tv7026 = -44						; size = 4
tv7004 = -44						; size = 4
_j$3$ = -44						; size = 4
tv7039 = -44						; size = 4
tv7043 = -44						; size = 4
tv7020 = -40						; size = 4
tv7023 = -40						; size = 4
tv7001 = -40						; size = 4
_i$1$ = -40						; size = 4
tv7011 = -40						; size = 4
tv7034 = -40						; size = 4
tv7040 = -40						; size = 4
tv7008 = -40						; size = 4
tv7033 = -36						; size = 4
tv7002 = -36						; size = 4
tv7012 = -36						; size = 4
tv7024 = -36						; size = 4
_i$9$ = -36						; size = 4
tv7019 = -36						; size = 4
tv7044 = -36						; size = 4
tv7037 = -36						; size = 4
tv7045 = -32						; size = 4
tv7085 = -32						; size = 4
tv7087 = -32						; size = 4
tv7119 = -32						; size = 4
tv7038 = -32						; size = 4
_i$4$ = -32						; size = 4
_i$7$ = -32						; size = 4
tv7006 = -32						; size = 4
_this$1$ = -28						; size = 4
_this$1$ = -28						; size = 4
_apObj$1$ = -28						; size = 4
_this$1$ = -28						; size = 4
tv7003 = -28						; size = 4
_this$1$ = -28						; size = 4
tv7025 = -28						; size = 4
tv7014 = -28						; size = 4
_this$1$ = -28						; size = 4
__Myhead$1$ = -24					; size = 4
_objid$ = -24						; size = 4
_objid$ = -24						; size = 4
_objid$ = -24						; size = 4
_objid$ = -24						; size = 4
tv7098 = -24						; size = 4
_objid$ = -24						; size = 4
__Myhead$1$ = -24					; size = 4
__Myhead$1$ = -24					; size = 4
_objid$ = -24						; size = 4
__Myhead$1$ = -24					; size = 4
__Myhead$1$ = -24					; size = 4
__Myhead$1$ = -24					; size = 4
_nMaxWidth$2$ = -20					; size = 4
_nMaxWidth$1$ = -20					; size = 4
_nVisibilityRange$1$ = -16				; size = 4
_nCenter$2$ = -16					; size = 4
__$EHRec$ = -12						; size = 12
_pCtrl$ = 8						; size = 4
?ModifyView@CLinkMap@@QAEXPAVCCtrl@@@Z PROC		; CLinkMap::ModifyView, COMDAT
; _this$ = ecx

; 349  : {

  00000	55		 push	 ebp
  00001	8b ec		 mov	 ebp, esp
  00003	6a ff		 push	 -1
  00005	68 00 00 00 00	 push	 __ehhandler$?ModifyView@CLinkMap@@QAEXPAVCCtrl@@@Z
  0000a	64 a1 00 00 00
	00		 mov	 eax, DWORD PTR fs:0
  00010	50		 push	 eax
  00011	81 ec 88 00 00
	00		 sub	 esp, 136		; 00000088H
  00017	53		 push	 ebx
  00018	56		 push	 esi
  00019	57		 push	 edi
  0001a	a1 00 00 00 00	 mov	 eax, DWORD PTR ___security_cookie
  0001f	33 c5		 xor	 eax, ebp
  00021	50		 push	 eax
  00022	8d 45 f4	 lea	 eax, DWORD PTR __$EHRec$[ebp]
  00025	64 a3 00 00 00
	00		 mov	 DWORD PTR fs:0, eax
  0002b	8b d1		 mov	 edx, ecx
  0002d	89 55 c0	 mov	 DWORD PTR _this$1$[ebp], edx
; File C:\IAGOS\server\v18\Source\Source\_Common\Obj.h

; 238  : 	D3DXVECTOR3		GetLinkPos()							{	return m_vLink;	}

  00030	8b 4d 08	 mov	 ecx, DWORD PTR _pCtrl$[ebp]
; File C:\IAGOS\server\v18\Source\Source\WorldServer\LinkMap.cpp

; 365  : 	if( pCtrl->GetType() == OT_MOVER && ( (CMover*)pCtrl )->IsPlayer() )

  00033	83 b9 70 01 00
	00 05		 cmp	 DWORD PTR [ecx+368], 5
; File C:\IAGOS\server\v18\Source\Source\_Common\Obj.h

; 238  : 	D3DXVECTOR3		GetLinkPos()							{	return m_vLink;	}

  0003a	f3 0f 7e 81 ac
	01 00 00	 movq	 xmm0, QWORD PTR [ecx+428]
  00042	8b 81 b4 01 00
	00		 mov	 eax, DWORD PTR [ecx+436]
  00048	66 0f d6 85 7c
	ff ff ff	 movq	 QWORD PTR _vPos$[ebp], xmm0
  00050	89 45 84	 mov	 DWORD PTR _vPos$[ebp+8], eax
; File C:\IAGOS\server\v18\Source\Source\WorldServer\LinkMap.cpp

; 365  : 	if( pCtrl->GetType() == OT_MOVER && ( (CMover*)pCtrl )->IsPlayer() )

  00053	0f 85 73 0b 00
	00		 jne	 $LN72@ModifyView
  00059	83 b9 30 02 00
	00 00		 cmp	 DWORD PTR [ecx+560], 0
  00060	0f 84 66 0b 00
	00		 je	 $LN72@ModifyView

; 366  : 	{
; 367  : 		pUser	= (CUser*)pCtrl;
; 368  : 		
; 369  : 		for( int nLinkLevel = 0; nLinkLevel < MAX_LINKLEVEL; nLinkLevel++ )

  00066	33 f6		 xor	 esi, esi
  00068	89 75 bc	 mov	 DWORD PTR _nLinkLevel$1$[ebp], esi
  0006b	0f 1f 44 00 00	 npad	 5
$LL4@ModifyView:

; 370  : 		{
; 371  : //			player link
; 372  : 			apObj	    = GetObj( CObj::linkPlayer, nLinkLevel );
; 373  : 
; 374  : 			nMaxWidth	= GetLinkWidth( CObj::linkPlayer, nLinkLevel) * m_nLandWidth;

  00070	8b 82 f0 00 00
	00		 mov	 eax, DWORD PTR [edx+240]
  00076	8b 5c b2 7c	 mov	 ebx, DWORD PTR [edx+esi*4+124]
  0007a	8b bc b2 98 00
	00 00		 mov	 edi, DWORD PTR [edx+esi*4+152]
  00081	0f af d8	 imul	 ebx, eax

; 375  : 			nMaxPos		= nMaxWidth * nMaxWidth;
; 376  : 
; 377  : 			nUnit	    = (MAP_SIZE * m_nLandWidth) / nMaxWidth;

  00084	c1 e0 07	 shl	 eax, 7

; 378  : 			nCenter		= (int)( vPos.z / m_iMPU / nUnit ) * nMaxWidth + (int)( vPos.x / m_iMPU / nUnit );

  00087	f3 0f 10 45 84	 movss	 xmm0, DWORD PTR _vPos$[ebp+8]
  0008c	89 7d e4	 mov	 DWORD PTR _apObj$1$[ebp], edi
  0008f	8b d3		 mov	 edx, ebx
  00091	89 5d ec	 mov	 DWORD PTR _nMaxWidth$1$[ebp], ebx
  00094	0f af d3	 imul	 edx, ebx
  00097	89 55 b0	 mov	 DWORD PTR _nMaxPos$1$[ebp], edx
  0009a	99		 cdq
  0009b	f7 fb		 idiv	 ebx
  0009d	8b 55 c0	 mov	 edx, DWORD PTR _this$1$[ebp]
  000a0	66 0f 6e 92 30
	01 00 00	 movd	 xmm2, DWORD PTR [edx+304]
  000a8	0f 5b d2	 cvtdq2ps xmm2, xmm2
  000ab	8b 55 ec	 mov	 edx, DWORD PTR _nMaxWidth$1$[ebp]
  000ae	66 0f 6e c8	 movd	 xmm1, eax
  000b2	f3 0f 5e c2	 divss	 xmm0, xmm2
  000b6	0f 5b c9	 cvtdq2ps xmm1, xmm1
  000b9	f3 0f 5e c1	 divss	 xmm0, xmm1
  000bd	f3 0f 2c d8	 cvttss2si ebx, xmm0
  000c1	f3 0f 10 85 7c
	ff ff ff	 movss	 xmm0, DWORD PTR _vPos$[ebp]
  000c9	f3 0f 5e c2	 divss	 xmm0, xmm2
  000cd	0f af da	 imul	 ebx, edx
  000d0	f3 0f 5e c1	 divss	 xmm0, xmm1
  000d4	f3 0f 2c c0	 cvttss2si eax, xmm0
  000d8	03 d8		 add	 ebx, eax

; 379  : 			nOldCenter	= pUser->m_nOldCenter[nLinkLevel];

  000da	8b 84 b1 14 02
	00 00		 mov	 eax, DWORD PTR [ecx+esi*4+532]
  000e1	89 5d a8	 mov	 DWORD PTR _nCenter$1$[ebp], ebx
  000e4	89 45 b4	 mov	 DWORD PTR _nOldCenter$1$[ebp], eax

; 380  : 
; 381  : 			if( nCenter == nOldCenter ) 

  000e7	3b d8		 cmp	 ebx, eax
  000e9	75 1c		 jne	 SHORT $LN74@ModifyView

; 382  : 			{
; 383  : 				if( nLinkLevel == 0 )	

  000eb	85 f6		 test	 esi, esi
  000ed	0f 85 c4 0a 00
	00		 jne	 $LN2@ModifyView
$LN1191@ModifyView:

; 644  : 		}
; 645  : 	}
; 646  : }

  000f3	8b 4d f4	 mov	 ecx, DWORD PTR __$EHRec$[ebp]
  000f6	64 89 0d 00 00
	00 00		 mov	 DWORD PTR fs:0, ecx
  000fd	59		 pop	 ecx
  000fe	5f		 pop	 edi
  000ff	5e		 pop	 esi
  00100	5b		 pop	 ebx
  00101	8b e5		 mov	 esp, ebp
  00103	5d		 pop	 ebp
  00104	c2 04 00	 ret	 4
$LN74@ModifyView:

; 384  : 					return;
; 385  : 				continue;
; 386  : 			}
; 387  : 	
; 388  : 			nVisibilityRange	= m_nVisibilityRange[nLinkLevel];

  00107	8b 45 c0	 mov	 eax, DWORD PTR _this$1$[ebp]
  0010a	8b 9c b0 14 01
	00 00		 mov	 ebx, DWORD PTR [eax+esi*4+276]

; 389  : 			pfMask	= m_apfMask[nLinkLevel];

  00111	8b 84 b0 f8 00
	00 00		 mov	 eax, DWORD PTR [eax+esi*4+248]

; 390  : 			
; 391  : 			for( i = -nVisibilityRange; i <= nVisibilityRange; i++ )

  00118	8b f3		 mov	 esi, ebx
  0011a	f7 de		 neg	 esi
  0011c	89 5d f0	 mov	 DWORD PTR _nVisibilityRange$1$[ebp], ebx
  0011f	8b ce		 mov	 ecx, esi
  00121	89 45 ac	 mov	 DWORD PTR _pfMask$1$[ebp], eax
  00124	89 75 d0	 mov	 DWORD PTR _i$8$[ebp], esi
  00127	89 4d d8	 mov	 DWORD PTR _i$1$[ebp], ecx
  0012a	3b cb		 cmp	 ecx, ebx
  0012c	0f 8f 5b 02 00
	00		 jg	 $LN6@ModifyView

; 384  : 					return;
; 385  : 				continue;
; 386  : 			}
; 387  : 	
; 388  : 			nVisibilityRange	= m_nVisibilityRange[nLinkLevel];

  00132	8b c1		 mov	 eax, ecx
  00134	0f af c2	 imul	 eax, edx
  00137	89 45 d4	 mov	 DWORD PTR tv7043[ebp], eax
  0013a	66 0f 1f 44 00
	00		 npad	 6
$LL7@ModifyView:

; 392  : 			{
; 393  : 				for( j = -nVisibilityRange; j <= nVisibilityRange; j++ )

  00140	8d 1c 06	 lea	 ebx, DWORD PTR [esi+eax]
  00143	89 75 c4	 mov	 DWORD PTR _j$1$[ebp], esi
  00146	03 5d a8	 add	 ebx, DWORD PTR _nCenter$1$[ebp]
  00149	8b 45 f0	 mov	 eax, DWORD PTR _nVisibilityRange$1$[ebp]
  0014c	89 5d e0	 mov	 DWORD PTR tv7045[ebp], ebx
  0014f	8d 3c 9f	 lea	 edi, DWORD PTR [edi+ebx*4]
  00152	89 7d dc	 mov	 DWORD PTR tv7044[ebp], edi
$LL10@ModifyView:

; 394  : 				{
; 395  : 					nPos	= nCenter + i * nMaxWidth + j;
; 396  : 					if( nPos < 0 || nPos >= nMaxPos )	continue;

  00155	85 db		 test	 ebx, ebx
  00157	0f 88 fa 01 00
	00		 js	 $LN8@ModifyView
  0015d	3b 5d b0	 cmp	 ebx, DWORD PTR _nMaxPos$1$[ebp]
  00160	0f 8d f1 01 00
	00		 jge	 $LN8@ModifyView

; 397  : 					if( ( nMaskPos = IsOverlapped( nOldCenter, nPos, nVisibilityRange, nMaxWidth ) ) < 0 )

  00166	8b 4d c0	 mov	 ecx, DWORD PTR _this$1$[ebp]
  00169	52		 push	 edx
  0016a	50		 push	 eax
  0016b	53		 push	 ebx
  0016c	ff 75 b4	 push	 DWORD PTR _nOldCenter$1$[ebp]
  0016f	e8 00 00 00 00	 call	 ?IsOverlapped@CLinkMap@@AAEHHHHH@Z ; CLinkMap::IsOverlapped
  00174	85 c0		 test	 eax, eax
  00176	0f 89 cb 01 00
	00		 jns	 $LN78@ModifyView

; 398  : 					{
; 399  : 						pUsertmp	= (CUser*)apObj[nPos];

  0017c	8b 17		 mov	 edx, DWORD PTR [edi]
  0017e	89 55 cc	 mov	 DWORD PTR _pUsertmp$1$[ebp], edx

; 400  : 						while( pUsertmp )

  00181	85 d2		 test	 edx, edx
  00183	0f 84 c8 01 00
	00		 je	 $LN1319@ModifyView
  00189	0f 1f 80 00 00
	00 00		 npad	 7
$LL11@ModifyView:
; File C:\IAGOS\server\v18\Source\Source\_Common\Obj.h

; 180  : 	BOOL			IsDelete()	{ return (m_dwFlags & OBJ_FLAG_DELETE);  }

  00190	f6 42 04 01	 test	 BYTE PTR [edx+4], 1
; File C:\IAGOS\server\v18\Source\Source\WorldServer\LinkMap.cpp

; 402  : 							if( !pUsertmp->IsDelete() && pUsertmp != pUser )

  00194	0f 85 91 01 00
	00		 jne	 $LN80@ModifyView
  0019a	8b 75 08	 mov	 esi, DWORD PTR _pCtrl$[ebp]
  0019d	3b d6		 cmp	 edx, esi
  0019f	0f 84 86 01 00
	00		 je	 $LN80@ModifyView
; File C:\Program Files\Microsoft Visual Studio\2022\Professional\VC\Tools\MSVC\14.44.35207\include\xtree

; 1630 :         _Tree_find_result<_Nodeptr> _Result{{_Scary->_Myhead->_Parent, _Tree_child::_Right}, _Scary->_Myhead};

  001a5	8b 8e 0c 02 00
	00		 mov	 ecx, DWORD PTR [esi+524]
; File C:\IAGOS\server\v18\Source\Source\_Common\Ctrl.h

; 116  : 	m_2pc[ objid ] = (CUser *)pCtrl;

  001ab	8d 86 0c 02 00
	00		 lea	 eax, DWORD PTR [esi+524]
; File C:\IAGOS\server\v18\Source\Source\WorldServer\LinkMap.cpp

; 404  : 								pUser->PCSetAt( pUsertmp->GetId(), (CCtrl*)pUsertmp );

  001b1	8b 9a bc 01 00
	00		 mov	 ebx, DWORD PTR [edx+444]
; File C:\Program Files\Microsoft Visual Studio\2022\Professional\VC\Tools\MSVC\14.44.35207\include\xtree

; 1630 :         _Tree_find_result<_Nodeptr> _Result{{_Scary->_Myhead->_Parent, _Tree_child::_Right}, _Scary->_Myhead};

  001b7	33 f6		 xor	 esi, esi
; File C:\IAGOS\server\v18\Source\Source\_Common\Ctrl.h

; 116  : 	m_2pc[ objid ] = (CUser *)pCtrl;

  001b9	89 45 c8	 mov	 DWORD PTR _this$1$[ebp], eax
; File C:\Program Files\Microsoft Visual Studio\2022\Professional\VC\Tools\MSVC\14.44.35207\include\xtree

; 1630 :         _Tree_find_result<_Nodeptr> _Result{{_Scary->_Myhead->_Parent, _Tree_child::_Right}, _Scary->_Myhead};

  001bc	89 4d e8	 mov	 DWORD PTR __Myhead$1$[ebp], ecx
  001bf	8b 79 04	 mov	 edi, DWORD PTR [ecx+4]

; 1632 :         while (!_Trynode->_Isnil) {

  001c2	80 7f 0d 00	 cmp	 BYTE PTR [edi+13], 0
  001c6	75 28		 jne	 SHORT $LN995@ModifyView
  001c8	8b c7		 mov	 eax, edi
  001ca	66 0f 1f 44 00
	00		 npad	 6
$LL994@ModifyView:

; 1633 :             _Result._Location._Parent = _Trynode;

  001d0	8b f8		 mov	 edi, eax
; File C:\Program Files\Microsoft Visual Studio\2022\Professional\VC\Tools\MSVC\14.44.35207\include\type_traits

; 2380 :         return _Left < _Right;

  001d2	39 58 10	 cmp	 DWORD PTR [eax+16], ebx
; File C:\Program Files\Microsoft Visual Studio\2022\Professional\VC\Tools\MSVC\14.44.35207\include\xtree

; 1634 :             if (_DEBUG_LT_PRED(_Getcomp(), _Traits::_Kfn(_Trynode->_Myval), _Keyval)) {

  001d5	73 07		 jae	 SHORT $LN996@ModifyView

; 1635 :                 _Result._Location._Child = _Tree_child::_Right;
; 1636 :                 _Trynode                 = _Trynode->_Right;

  001d7	8b 40 08	 mov	 eax, DWORD PTR [eax+8]
  001da	33 f6		 xor	 esi, esi

; 1637 :             } else {

  001dc	eb 09		 jmp	 SHORT $LN997@ModifyView
$LN996@ModifyView:

; 1638 :                 _Result._Location._Child = _Tree_child::_Left;
; 1639 :                 _Result._Bound           = _Trynode;

  001de	8b c8		 mov	 ecx, eax
  001e0	be 01 00 00 00	 mov	 esi, 1

; 1640 :                 _Trynode                 = _Trynode->_Left;

  001e5	8b 00		 mov	 eax, DWORD PTR [eax]
$LN997@ModifyView:

; 1632 :         while (!_Trynode->_Isnil) {

  001e7	80 78 0d 00	 cmp	 BYTE PTR [eax+13], 0
  001eb	74 e3		 je	 SHORT $LL994@ModifyView
  001ed	8b 45 c8	 mov	 eax, DWORD PTR _this$1$[ebp]
$LN995@ModifyView:

; 1624 :         return !_Bound->_Isnil && !_DEBUG_LT_PRED(_Getcomp(), _Keyval, _Traits::_Kfn(_Bound->_Myval));

  001f0	80 79 0d 00	 cmp	 BYTE PTR [ecx+13], 0
  001f4	75 05		 jne	 SHORT $LN990@ModifyView
; File C:\Program Files\Microsoft Visual Studio\2022\Professional\VC\Tools\MSVC\14.44.35207\include\type_traits

; 2380 :         return _Left < _Right;

  001f6	3b 59 10	 cmp	 ebx, DWORD PTR [ecx+16]
; File C:\Program Files\Microsoft Visual Studio\2022\Professional\VC\Tools\MSVC\14.44.35207\include\xtree

; 1624 :         return !_Bound->_Isnil && !_DEBUG_LT_PRED(_Getcomp(), _Keyval, _Traits::_Kfn(_Bound->_Myval));

  001f9	73 61		 jae	 SHORT $LN989@ModifyView
$LN990@ModifyView:

; 1648 :         if (max_size() == _Get_scary()->_Mysize) {

  001fb	81 78 04 aa aa
	aa 0a		 cmp	 DWORD PTR [eax+4], 178956970 ; 0aaaaaaaH
  00202	0f 84 15 0e 00
	00		 je	 $LN1148@ModifyView
; File C:\Program Files\Microsoft Visual Studio\2022\Professional\VC\Tools\MSVC\14.44.35207\include\xmemory

; 1160 :     _CONSTEXPR20 explicit _Alloc_construct_ptr(_Alloc& _Al_) : _Al(_Al_), _Ptr(nullptr) {}

  00208	89 45 88	 mov	 DWORD PTR $T12[ebp], eax

; 136  :         return ::operator new(_Bytes);

  0020b	6a 18		 push	 24			; 00000018H
; File C:\Program Files\Microsoft Visual Studio\2022\Professional\VC\Tools\MSVC\14.44.35207\include\xtree

; 808  :     explicit _Tree_temp_node_alloc(_Alnode& _Al_) : _Alloc_construct_ptr<_Alnode>(_Al_) {

  0020d	c7 45 fc 00 00
	00 00		 mov	 DWORD PTR __$EHRec$[ebp+8], 0
; File C:\Program Files\Microsoft Visual Studio\2022\Professional\VC\Tools\MSVC\14.44.35207\include\xmemory

; 1167 :         _Ptr = nullptr; // if allocate throws, prevents double-free

  00214	c7 45 8c 00 00
	00 00		 mov	 DWORD PTR $T12[ebp+4], 0

; 136  :         return ::operator new(_Bytes);

  0021b	e8 00 00 00 00	 call	 ??2@YAPAXI@Z		; operator new
; File C:\Program Files\Microsoft Visual Studio\2022\Professional\VC\Tools\MSVC\14.44.35207\include\xtree

; 831  :         _Construct_in_place(this->_Ptr->_Left, _Myhead);

  00220	8b 4d e8	 mov	 ecx, DWORD PTR __Myhead$1$[ebp]
; File C:\Program Files\Microsoft Visual Studio\2022\Professional\VC\Tools\MSVC\14.44.35207\include\xmemory

; 136  :         return ::operator new(_Bytes);

  00223	83 c4 04	 add	 esp, 4
; File C:\Program Files\Microsoft Visual Studio\2022\Professional\VC\Tools\MSVC\14.44.35207\include\xtree

; 810  :     }

  00226	c7 45 fc ff ff
	ff ff		 mov	 DWORD PTR __$EHRec$[ebp+8], -1
; File C:\Program Files\Microsoft Visual Studio\2022\Professional\VC\Tools\MSVC\14.44.35207\include\utility

; 774  :     _Val         = static_cast<_Other&&>(_New_val);

  0022d	c7 45 8c 00 00
	00 00		 mov	 DWORD PTR $T12[ebp+4], 0

; 478  :         : first(_STD _Tuple_get<_Indices1>(_STD move(_Val1))...),

  00234	89 58 10	 mov	 DWORD PTR [eax+16], ebx

; 479  :           second(_STD _Tuple_get<_Indices2>(_STD move(_Val2))...) {}

  00237	c7 40 14 00 00
	00 00		 mov	 DWORD PTR [eax+20], 0
; File C:\Program Files\Microsoft Visual Studio\2022\Professional\VC\Tools\MSVC\14.44.35207\include\xtree

; 831  :         _Construct_in_place(this->_Ptr->_Left, _Myhead);

  0023e	89 08		 mov	 DWORD PTR [eax], ecx
; File C:\Program Files\Microsoft Visual Studio\2022\Professional\VC\Tools\MSVC\14.44.35207\include\map

; 211  :         return {_Scary->_Insert_node(_Loc._Location, _Inserted), true};

  00240	50		 push	 eax
; File C:\Program Files\Microsoft Visual Studio\2022\Professional\VC\Tools\MSVC\14.44.35207\include\xtree

; 832  :         _Construct_in_place(this->_Ptr->_Parent, _Myhead);

  00241	89 48 04	 mov	 DWORD PTR [eax+4], ecx

; 833  :         _Construct_in_place(this->_Ptr->_Right, _Myhead);

  00244	89 48 08	 mov	 DWORD PTR [eax+8], ecx
; File C:\Program Files\Microsoft Visual Studio\2022\Professional\VC\Tools\MSVC\14.44.35207\include\map

; 211  :         return {_Scary->_Insert_node(_Loc._Location, _Inserted), true};

  00247	8b 4d c8	 mov	 ecx, DWORD PTR _this$1$[ebp]
  0024a	56		 push	 esi
  0024b	57		 push	 edi
; File C:\Program Files\Microsoft Visual Studio\2022\Professional\VC\Tools\MSVC\14.44.35207\include\xtree

; 834  :         this->_Ptr->_Color = _Red;

  0024c	66 c7 40 0c 00
	00		 mov	 WORD PTR [eax+12], 0
; File C:\Program Files\Microsoft Visual Studio\2022\Professional\VC\Tools\MSVC\14.44.35207\include\map

; 211  :         return {_Scary->_Insert_node(_Loc._Location, _Inserted), true};

  00252	e8 00 00 00 00	 call	 ?_Insert_node@?$_Tree_val@U?$_Tree_simple_types@U?$pair@$$CBKPAVCUser@@@std@@@std@@@std@@QAEPAU?$_Tree_node@U?$pair@$$CBKPAVCUser@@@std@@PAX@2@U?$_Tree_id@PAU?$_Tree_node@U?$pair@$$CBKPAVCUser@@@std@@PAX@std@@@2@QAU32@@Z ; std::_Tree_val<std::_Tree_simple_types<std::pair<unsigned long const ,CUser *> > >::_Insert_node
  00257	8b 55 cc	 mov	 edx, DWORD PTR _pUsertmp$1$[ebp]
  0025a	8b c8		 mov	 ecx, eax
$LN989@ModifyView:
; File C:\IAGOS\server\v18\Source\Source\WorldServer\LinkMap.cpp

; 405  : 								pUser->AddAddObj( (CCtrl*)pUsertmp );

  0025c	8b 5d 08	 mov	 ebx, DWORD PTR _pCtrl$[ebp]
; File C:\IAGOS\server\v18\Source\Source\_Common\Ctrl.h

; 116  : 	m_2pc[ objid ] = (CUser *)pCtrl;

  0025f	89 51 14	 mov	 DWORD PTR [ecx+20], edx
; File C:\IAGOS\server\v18\Source\Source\WorldServer\LinkMap.cpp

; 405  : 								pUser->AddAddObj( (CCtrl*)pUsertmp );

  00262	8b cb		 mov	 ecx, ebx
  00264	52		 push	 edx
  00265	e8 00 00 00 00	 call	 ?AddAddObj@CUser@@QAEXPAVCCtrl@@@Z ; CUser::AddAddObj
; File C:\IAGOS\server\v18\Source\Source\_Common\Ctrl.h

; 116  : 	m_2pc[ objid ] = (CUser *)pCtrl;

  0026a	8b 45 cc	 mov	 eax, DWORD PTR _pUsertmp$1$[ebp]
; File C:\Program Files\Microsoft Visual Studio\2022\Professional\VC\Tools\MSVC\14.44.35207\include\xtree

; 1630 :         _Tree_find_result<_Nodeptr> _Result{{_Scary->_Myhead->_Parent, _Tree_child::_Right}, _Scary->_Myhead};

  0026d	33 f6		 xor	 esi, esi
; File C:\IAGOS\server\v18\Source\Source\WorldServer\LinkMap.cpp

; 406  : 								pUsertmp->PCSetAt( pUser->GetId(), (CCtrl*)pUser );

  0026f	8b 9b bc 01 00
	00		 mov	 ebx, DWORD PTR [ebx+444]
; File C:\IAGOS\server\v18\Source\Source\_Common\Ctrl.h

; 116  : 	m_2pc[ objid ] = (CUser *)pCtrl;

  00275	05 0c 02 00 00	 add	 eax, 524		; 0000020cH
  0027a	89 45 c8	 mov	 DWORD PTR _this$1$[ebp], eax
; File C:\Program Files\Microsoft Visual Studio\2022\Professional\VC\Tools\MSVC\14.44.35207\include\xtree

; 1630 :         _Tree_find_result<_Nodeptr> _Result{{_Scary->_Myhead->_Parent, _Tree_child::_Right}, _Scary->_Myhead};

  0027d	8b 08		 mov	 ecx, DWORD PTR [eax]
  0027f	89 4d e8	 mov	 DWORD PTR __Myhead$1$[ebp], ecx
  00282	8b 79 04	 mov	 edi, DWORD PTR [ecx+4]

; 1632 :         while (!_Trynode->_Isnil) {

  00285	80 7f 0d 00	 cmp	 BYTE PTR [edi+13], 0
  00289	75 25		 jne	 SHORT $LN878@ModifyView
  0028b	8b c7		 mov	 eax, edi
  0028d	0f 1f 00	 npad	 3
$LL877@ModifyView:

; 1633 :             _Result._Location._Parent = _Trynode;

  00290	8b f8		 mov	 edi, eax
; File C:\Program Files\Microsoft Visual Studio\2022\Professional\VC\Tools\MSVC\14.44.35207\include\type_traits

; 2380 :         return _Left < _Right;

  00292	39 58 10	 cmp	 DWORD PTR [eax+16], ebx
; File C:\Program Files\Microsoft Visual Studio\2022\Professional\VC\Tools\MSVC\14.44.35207\include\xtree

; 1634 :             if (_DEBUG_LT_PRED(_Getcomp(), _Traits::_Kfn(_Trynode->_Myval), _Keyval)) {

  00295	73 07		 jae	 SHORT $LN879@ModifyView

; 1635 :                 _Result._Location._Child = _Tree_child::_Right;
; 1636 :                 _Trynode                 = _Trynode->_Right;

  00297	8b 40 08	 mov	 eax, DWORD PTR [eax+8]
  0029a	33 f6		 xor	 esi, esi

; 1637 :             } else {

  0029c	eb 09		 jmp	 SHORT $LN880@ModifyView
$LN879@ModifyView:

; 1638 :                 _Result._Location._Child = _Tree_child::_Left;
; 1639 :                 _Result._Bound           = _Trynode;

  0029e	8b c8		 mov	 ecx, eax
  002a0	be 01 00 00 00	 mov	 esi, 1

; 1640 :                 _Trynode                 = _Trynode->_Left;

  002a5	8b 00		 mov	 eax, DWORD PTR [eax]
$LN880@ModifyView:

; 1632 :         while (!_Trynode->_Isnil) {

  002a7	80 78 0d 00	 cmp	 BYTE PTR [eax+13], 0
  002ab	74 e3		 je	 SHORT $LL877@ModifyView
  002ad	8b 45 c8	 mov	 eax, DWORD PTR _this$1$[ebp]
$LN878@ModifyView:

; 1624 :         return !_Bound->_Isnil && !_DEBUG_LT_PRED(_Getcomp(), _Keyval, _Traits::_Kfn(_Bound->_Myval));

  002b0	80 79 0d 00	 cmp	 BYTE PTR [ecx+13], 0
  002b4	75 05		 jne	 SHORT $LN873@ModifyView
; File C:\Program Files\Microsoft Visual Studio\2022\Professional\VC\Tools\MSVC\14.44.35207\include\type_traits

; 2380 :         return _Left < _Right;

  002b6	3b 59 10	 cmp	 ebx, DWORD PTR [ecx+16]
; File C:\Program Files\Microsoft Visual Studio\2022\Professional\VC\Tools\MSVC\14.44.35207\include\xtree

; 1624 :         return !_Bound->_Isnil && !_DEBUG_LT_PRED(_Getcomp(), _Keyval, _Traits::_Kfn(_Bound->_Myval));

  002b9	73 5e		 jae	 SHORT $LN872@ModifyView
$LN873@ModifyView:

; 1648 :         if (max_size() == _Get_scary()->_Mysize) {

  002bb	81 78 04 aa aa
	aa 0a		 cmp	 DWORD PTR [eax+4], 178956970 ; 0aaaaaaaH
  002c2	0f 84 55 0d 00
	00		 je	 $LN1148@ModifyView
; File C:\Program Files\Microsoft Visual Studio\2022\Professional\VC\Tools\MSVC\14.44.35207\include\xmemory

; 1160 :     _CONSTEXPR20 explicit _Alloc_construct_ptr(_Alloc& _Al_) : _Al(_Al_), _Ptr(nullptr) {}

  002c8	89 45 a0	 mov	 DWORD PTR $T17[ebp], eax

; 136  :         return ::operator new(_Bytes);

  002cb	6a 18		 push	 24			; 00000018H
; File C:\Program Files\Microsoft Visual Studio\2022\Professional\VC\Tools\MSVC\14.44.35207\include\xtree

; 808  :     explicit _Tree_temp_node_alloc(_Alnode& _Al_) : _Alloc_construct_ptr<_Alnode>(_Al_) {

  002cd	c7 45 fc 01 00
	00 00		 mov	 DWORD PTR __$EHRec$[ebp+8], 1
; File C:\Program Files\Microsoft Visual Studio\2022\Professional\VC\Tools\MSVC\14.44.35207\include\xmemory

; 1167 :         _Ptr = nullptr; // if allocate throws, prevents double-free

  002d4	c7 45 a4 00 00
	00 00		 mov	 DWORD PTR $T17[ebp+4], 0

; 136  :         return ::operator new(_Bytes);

  002db	e8 00 00 00 00	 call	 ??2@YAPAXI@Z		; operator new
; File C:\Program Files\Microsoft Visual Studio\2022\Professional\VC\Tools\MSVC\14.44.35207\include\xtree

; 831  :         _Construct_in_place(this->_Ptr->_Left, _Myhead);

  002e0	8b 4d e8	 mov	 ecx, DWORD PTR __Myhead$1$[ebp]
; File C:\Program Files\Microsoft Visual Studio\2022\Professional\VC\Tools\MSVC\14.44.35207\include\xmemory

; 136  :         return ::operator new(_Bytes);

  002e3	83 c4 04	 add	 esp, 4
; File C:\Program Files\Microsoft Visual Studio\2022\Professional\VC\Tools\MSVC\14.44.35207\include\xtree

; 810  :     }

  002e6	c7 45 fc ff ff
	ff ff		 mov	 DWORD PTR __$EHRec$[ebp+8], -1
; File C:\Program Files\Microsoft Visual Studio\2022\Professional\VC\Tools\MSVC\14.44.35207\include\utility

; 774  :     _Val         = static_cast<_Other&&>(_New_val);

  002ed	c7 45 a4 00 00
	00 00		 mov	 DWORD PTR $T17[ebp+4], 0

; 478  :         : first(_STD _Tuple_get<_Indices1>(_STD move(_Val1))...),

  002f4	89 58 10	 mov	 DWORD PTR [eax+16], ebx

; 479  :           second(_STD _Tuple_get<_Indices2>(_STD move(_Val2))...) {}

  002f7	c7 40 14 00 00
	00 00		 mov	 DWORD PTR [eax+20], 0
; File C:\Program Files\Microsoft Visual Studio\2022\Professional\VC\Tools\MSVC\14.44.35207\include\xtree

; 831  :         _Construct_in_place(this->_Ptr->_Left, _Myhead);

  002fe	89 08		 mov	 DWORD PTR [eax], ecx
; File C:\Program Files\Microsoft Visual Studio\2022\Professional\VC\Tools\MSVC\14.44.35207\include\map

; 211  :         return {_Scary->_Insert_node(_Loc._Location, _Inserted), true};

  00300	50		 push	 eax
; File C:\Program Files\Microsoft Visual Studio\2022\Professional\VC\Tools\MSVC\14.44.35207\include\xtree

; 832  :         _Construct_in_place(this->_Ptr->_Parent, _Myhead);

  00301	89 48 04	 mov	 DWORD PTR [eax+4], ecx

; 833  :         _Construct_in_place(this->_Ptr->_Right, _Myhead);

  00304	89 48 08	 mov	 DWORD PTR [eax+8], ecx
; File C:\Program Files\Microsoft Visual Studio\2022\Professional\VC\Tools\MSVC\14.44.35207\include\map

; 211  :         return {_Scary->_Insert_node(_Loc._Location, _Inserted), true};

  00307	8b 4d c8	 mov	 ecx, DWORD PTR _this$1$[ebp]
  0030a	56		 push	 esi
  0030b	57		 push	 edi
; File C:\Program Files\Microsoft Visual Studio\2022\Professional\VC\Tools\MSVC\14.44.35207\include\xtree

; 834  :         this->_Ptr->_Color = _Red;

  0030c	66 c7 40 0c 00
	00		 mov	 WORD PTR [eax+12], 0
; File C:\Program Files\Microsoft Visual Studio\2022\Professional\VC\Tools\MSVC\14.44.35207\include\map

; 211  :         return {_Scary->_Insert_node(_Loc._Location, _Inserted), true};

  00312	e8 00 00 00 00	 call	 ?_Insert_node@?$_Tree_val@U?$_Tree_simple_types@U?$pair@$$CBKPAVCUser@@@std@@@std@@@std@@QAEPAU?$_Tree_node@U?$pair@$$CBKPAVCUser@@@std@@PAX@2@U?$_Tree_id@PAU?$_Tree_node@U?$pair@$$CBKPAVCUser@@@std@@PAX@std@@@2@QAU32@@Z ; std::_Tree_val<std::_Tree_simple_types<std::pair<unsigned long const ,CUser *> > >::_Insert_node
  00317	8b c8		 mov	 ecx, eax
$LN872@ModifyView:
; File C:\IAGOS\server\v18\Source\Source\_Common\Ctrl.h

; 116  : 	m_2pc[ objid ] = (CUser *)pCtrl;

  00319	8b 75 08	 mov	 esi, DWORD PTR _pCtrl$[ebp]
  0031c	89 71 14	 mov	 DWORD PTR [ecx+20], esi
; File C:\IAGOS\server\v18\Source\Source\WorldServer\LinkMap.cpp

; 407  : 								pUsertmp->AddAddObj( (CCtrl*)pUser );

  0031f	8b 4d cc	 mov	 ecx, DWORD PTR _pUsertmp$1$[ebp]
  00322	56		 push	 esi
  00323	e8 00 00 00 00	 call	 ?AddAddObj@CUser@@QAEXPAVCCtrl@@@Z ; CUser::AddAddObj
  00328	8b 55 cc	 mov	 edx, DWORD PTR _pUsertmp$1$[ebp]
$LN80@ModifyView:

; 408  : 							}
; 409  : 							pUsertmp	= (CUser*)pUsertmp->GetNextNode();

  0032b	8b 92 80 01 00
	00		 mov	 edx, DWORD PTR [edx+384]
  00331	89 55 cc	 mov	 DWORD PTR _pUsertmp$1$[ebp], edx
  00334	85 d2		 test	 edx, edx
  00336	0f 85 54 fe ff
	ff		 jne	 $LL11@ModifyView

; 410  : 						}
; 411  : 					}

  0033c	8b 5d e0	 mov	 ebx, DWORD PTR tv7045[ebp]
  0033f	8b 75 c4	 mov	 esi, DWORD PTR _j$1$[ebp]
  00342	8b 7d dc	 mov	 edi, DWORD PTR tv7044[ebp]
  00345	eb 0a		 jmp	 SHORT $LN1319@ModifyView
$LN78@ModifyView:

; 412  : 					else	// old pos
; 413  : 					{
; 414  : 						pfMask[nMaskPos]	= TRUE;

  00347	8b 4d ac	 mov	 ecx, DWORD PTR _pfMask$1$[ebp]
  0034a	c7 04 81 01 00
	00 00		 mov	 DWORD PTR [ecx+eax*4], 1
$LN1319@ModifyView:

; 392  : 			{
; 393  : 				for( j = -nVisibilityRange; j <= nVisibilityRange; j++ )

  00351	8b 45 f0	 mov	 eax, DWORD PTR _nVisibilityRange$1$[ebp]
  00354	8b 55 ec	 mov	 edx, DWORD PTR _nMaxWidth$1$[ebp]
$LN8@ModifyView:
  00357	46		 inc	 esi
  00358	43		 inc	 ebx
  00359	83 c7 04	 add	 edi, 4
  0035c	89 75 c4	 mov	 DWORD PTR _j$1$[ebp], esi
  0035f	89 5d e0	 mov	 DWORD PTR tv7045[ebp], ebx
  00362	89 7d dc	 mov	 DWORD PTR tv7044[ebp], edi
  00365	3b f0		 cmp	 esi, eax
  00367	0f 8e e8 fd ff
	ff		 jle	 $LL10@ModifyView

; 390  : 			
; 391  : 			for( i = -nVisibilityRange; i <= nVisibilityRange; i++ )

  0036d	8b 4d d8	 mov	 ecx, DWORD PTR _i$1$[ebp]
  00370	8b 45 d4	 mov	 eax, DWORD PTR tv7043[ebp]
  00373	41		 inc	 ecx
  00374	8b 5d f0	 mov	 ebx, DWORD PTR _nVisibilityRange$1$[ebp]
  00377	03 c2		 add	 eax, edx
  00379	8b 7d e4	 mov	 edi, DWORD PTR _apObj$1$[ebp]
  0037c	8b 75 d0	 mov	 esi, DWORD PTR _i$8$[ebp]
  0037f	89 4d d8	 mov	 DWORD PTR _i$1$[ebp], ecx
  00382	89 45 d4	 mov	 DWORD PTR tv7043[ebp], eax
  00385	3b cb		 cmp	 ecx, ebx
  00387	0f 8e b3 fd ff
	ff		 jle	 $LL7@ModifyView
$LN6@ModifyView:

; 415  : 					}
; 416  : 				}
; 417  : 			}
; 418  : 
; 419  : 			for( i = -nVisibilityRange; i <= nVisibilityRange; i ++ )

  0038d	3b f3		 cmp	 esi, ebx
  0038f	0f 8f 12 08 00
	00		 jg	 $LN1268@ModifyView
  00395	8b c6		 mov	 eax, esi
  00397	33 d2		 xor	 edx, edx
  00399	0f af 45 ec	 imul	 eax, DWORD PTR _nMaxWidth$1$[ebp]
  0039d	8b f3		 mov	 esi, ebx
  0039f	8b 5d d0	 mov	 ebx, DWORD PTR _i$8$[ebp]
  003a2	2b f3		 sub	 esi, ebx
  003a4	46		 inc	 esi
  003a5	89 55 e0	 mov	 DWORD PTR tv7038[ebp], edx
  003a8	89 75 c4	 mov	 DWORD PTR tv7086[ebp], esi
  003ab	89 45 dc	 mov	 DWORD PTR tv7037[ebp], eax
  003ae	8d 0c 18	 lea	 ecx, DWORD PTR [eax+ebx]
  003b1	89 4d c8	 mov	 DWORD PTR $T21[ebp], ecx
$LL15@ModifyView:

; 420  : 			{
; 421  : 				for( j = -nVisibilityRange; j <= nVisibilityRange; j++ )

  003b4	8b 75 b4	 mov	 esi, DWORD PTR _nOldCenter$1$[ebp]
  003b7	03 c3		 add	 eax, ebx
  003b9	03 c6		 add	 eax, esi
  003bb	8d 3c 31	 lea	 edi, DWORD PTR [ecx+esi]
  003be	8b 4d e4	 mov	 ecx, DWORD PTR _apObj$1$[ebp]
  003c1	89 7d d8	 mov	 DWORD PTR tv7040[ebp], edi
  003c4	8d 0c 81	 lea	 ecx, DWORD PTR [ecx+eax*4]
  003c7	8b 45 f0	 mov	 eax, DWORD PTR _nVisibilityRange$1$[ebp]
  003ca	89 4d d4	 mov	 DWORD PTR tv7039[ebp], ecx
  003cd	0f 1f 00	 npad	 3
$LL18@ModifyView:

; 422  : 				{
; 423  : 					nPos	= nOldCenter + i * nMaxWidth + j;
; 424  : 					if( nPos < 0 || nPos >= nMaxPos )	continue;

  003d0	85 ff		 test	 edi, edi
  003d2	0f 88 a3 00 00
	00		 js	 $LN16@ModifyView
  003d8	3b 7d b0	 cmp	 edi, DWORD PTR _nMaxPos$1$[ebp]
  003db	0f 8d 9a 00 00
	00		 jge	 $LN16@ModifyView

; 425  : 					nMaskPos		= ( i + nVisibilityRange ) * ( 2 * nVisibilityRange + 1 ) + ( j + nVisibilityRange ) ;
; 426  : 					if( pfMask[nMaskPos] == FALSE )

  003e1	8b 75 ac	 mov	 esi, DWORD PTR _pfMask$1$[ebp]
  003e4	8d 04 45 01 00
	00 00		 lea	 eax, DWORD PTR [eax*2+1]
  003eb	0f af c2	 imul	 eax, edx
  003ee	03 c3		 add	 eax, ebx
  003f0	03 45 f0	 add	 eax, DWORD PTR _nVisibilityRange$1$[ebp]
  003f3	83 3c 86 00	 cmp	 DWORD PTR [esi+eax*4], 0
  003f7	75 78		 jne	 SHORT $LN83@ModifyView

; 427  : 					{
; 428  : 						pUsertmp	= (CUser*)apObj[nPos];

  003f9	8b 31		 mov	 esi, DWORD PTR [ecx]

; 429  : 						while( pUsertmp )

  003fb	85 f6		 test	 esi, esi
  003fd	74 79		 je	 SHORT $LN1320@ModifyView
  003ff	8b 7d 08	 mov	 edi, DWORD PTR _pCtrl$[ebp]
$LL19@ModifyView:
; File C:\IAGOS\server\v18\Source\Source\_Common\Obj.h

; 180  : 	BOOL			IsDelete()	{ return (m_dwFlags & OBJ_FLAG_DELETE);  }

  00402	f6 46 04 01	 test	 BYTE PTR [esi+4], 1
; File C:\IAGOS\server\v18\Source\Source\WorldServer\LinkMap.cpp

; 431  : 							if( !pUsertmp->IsDelete() )

  00406	75 54		 jne	 SHORT $LN85@ModifyView

; 433  : 								pUser->PCRemoveKey( pUsertmp->GetId() );

  00408	8b 86 bc 01 00
	00		 mov	 eax, DWORD PTR [esi+444]
; File C:\IAGOS\server\v18\Source\Source\_Common\Ctrl.h

; 121  : 	return m_2pc.erase( objid ) > 0;

  0040e	8d 8f 0c 02 00
	00		 lea	 ecx, DWORD PTR [edi+524]
; File C:\IAGOS\server\v18\Source\Source\WorldServer\LinkMap.cpp

; 433  : 								pUser->PCRemoveKey( pUsertmp->GetId() );

  00414	89 45 e8	 mov	 DWORD PTR _objid$[ebp], eax
; File C:\IAGOS\server\v18\Source\Source\_Common\Ctrl.h

; 121  : 	return m_2pc.erase( objid ) > 0;

  00417	8d 45 e8	 lea	 eax, DWORD PTR _objid$[ebp]
  0041a	50		 push	 eax
  0041b	e8 00 00 00 00	 call	 ?erase@?$_Tree@V?$_Tmap_traits@KPAVCUser@@U?$less@K@std@@V?$allocator@U?$pair@$$CBKPAVCUser@@@std@@@3@$0A@@std@@@std@@QAEIABK@Z ; std::_Tree<std::_Tmap_traits<unsigned long,CUser *,std::less<unsigned long>,std::allocator<std::pair<unsigned long const ,CUser *> >,0> >::erase
; File C:\IAGOS\server\v18\Source\Source\WorldServer\user.h

; 253  : 	void			AddRemoveObj( OBJID objid )		{ AddHdr( objid, SNAPSHOTTYPE_DEL_OBJ );	}

  00420	68 f1 00 00 00	 push	 241			; 000000f1H
  00425	ff b6 bc 01 00
	00		 push	 DWORD PTR [esi+444]
  0042b	8b cf		 mov	 ecx, edi
  0042d	e8 00 00 00 00	 call	 ?AddHdr@CUser@@QAEXKG@Z	; CUser::AddHdr
; File C:\IAGOS\server\v18\Source\Source\WorldServer\LinkMap.cpp

; 435  : 								pUsertmp->PCRemoveKey( pUser->GetId() );

  00432	8b 87 bc 01 00
	00		 mov	 eax, DWORD PTR [edi+444]
; File C:\IAGOS\server\v18\Source\Source\_Common\Ctrl.h

; 121  : 	return m_2pc.erase( objid ) > 0;

  00438	8d 8e 0c 02 00
	00		 lea	 ecx, DWORD PTR [esi+524]
; File C:\IAGOS\server\v18\Source\Source\WorldServer\LinkMap.cpp

; 435  : 								pUsertmp->PCRemoveKey( pUser->GetId() );

  0043e	89 45 e8	 mov	 DWORD PTR _objid$[ebp], eax
; File C:\IAGOS\server\v18\Source\Source\_Common\Ctrl.h

; 121  : 	return m_2pc.erase( objid ) > 0;

  00441	8d 45 e8	 lea	 eax, DWORD PTR _objid$[ebp]
  00444	50		 push	 eax
  00445	e8 00 00 00 00	 call	 ?erase@?$_Tree@V?$_Tmap_traits@KPAVCUser@@U?$less@K@std@@V?$allocator@U?$pair@$$CBKPAVCUser@@@std@@@3@$0A@@std@@@std@@QAEIABK@Z ; std::_Tree<std::_Tmap_traits<unsigned long,CUser *,std::less<unsigned long>,std::allocator<std::pair<unsigned long const ,CUser *> >,0> >::erase
; File C:\IAGOS\server\v18\Source\Source\WorldServer\user.h

; 253  : 	void			AddRemoveObj( OBJID objid )		{ AddHdr( objid, SNAPSHOTTYPE_DEL_OBJ );	}

  0044a	68 f1 00 00 00	 push	 241			; 000000f1H
  0044f	ff b7 bc 01 00
	00		 push	 DWORD PTR [edi+444]
  00455	8b ce		 mov	 ecx, esi
  00457	e8 00 00 00 00	 call	 ?AddHdr@CUser@@QAEXKG@Z	; CUser::AddHdr
$LN85@ModifyView:
; File C:\IAGOS\server\v18\Source\Source\WorldServer\LinkMap.cpp

; 438  : 							pUsertmp	= (CUser*)pUsertmp->GetNextNode();

  0045c	8b b6 80 01 00
	00		 mov	 esi, DWORD PTR [esi+384]
  00462	85 f6		 test	 esi, esi
  00464	75 9c		 jne	 SHORT $LL19@ModifyView

; 439  : 						}
; 440  : 					}

  00466	8b 7d d8	 mov	 edi, DWORD PTR tv7040[ebp]
  00469	8b 4d d4	 mov	 ecx, DWORD PTR tv7039[ebp]
  0046c	8b 55 e0	 mov	 edx, DWORD PTR tv7038[ebp]
  0046f	eb 07		 jmp	 SHORT $LN1320@ModifyView
$LN83@ModifyView:

; 441  : 					else
; 442  : 					{
; 443  : 						pfMask[nMaskPos]	= FALSE;

  00471	c7 04 86 00 00
	00 00		 mov	 DWORD PTR [esi+eax*4], 0
$LN1320@ModifyView:

; 420  : 			{
; 421  : 				for( j = -nVisibilityRange; j <= nVisibilityRange; j++ )

  00478	8b 45 f0	 mov	 eax, DWORD PTR _nVisibilityRange$1$[ebp]
$LN16@ModifyView:
  0047b	43		 inc	 ebx
  0047c	83 c1 04	 add	 ecx, 4
  0047f	47		 inc	 edi
  00480	89 4d d4	 mov	 DWORD PTR tv7039[ebp], ecx
  00483	89 7d d8	 mov	 DWORD PTR tv7040[ebp], edi
  00486	3b d8		 cmp	 ebx, eax
  00488	0f 8e 42 ff ff
	ff		 jle	 $LL18@ModifyView

; 415  : 					}
; 416  : 				}
; 417  : 			}
; 418  : 
; 419  : 			for( i = -nVisibilityRange; i <= nVisibilityRange; i ++ )

  0048e	8b 5d ec	 mov	 ebx, DWORD PTR _nMaxWidth$1$[ebp]
  00491	42		 inc	 edx
  00492	8b 4d c8	 mov	 ecx, DWORD PTR $T21[ebp]
  00495	8b 45 dc	 mov	 eax, DWORD PTR tv7037[ebp]
  00498	03 c3		 add	 eax, ebx
  0049a	89 55 e0	 mov	 DWORD PTR tv7038[ebp], edx
  0049d	83 6d c4 01	 sub	 DWORD PTR tv7086[ebp], 1
  004a1	8d 0c 19	 lea	 ecx, DWORD PTR [ecx+ebx]
  004a4	89 45 dc	 mov	 DWORD PTR tv7037[ebp], eax
  004a7	8b 5d d0	 mov	 ebx, DWORD PTR _i$8$[ebp]
  004aa	89 4d c8	 mov	 DWORD PTR $T21[ebp], ecx
  004ad	0f 85 01 ff ff
	ff		 jne	 $LL15@ModifyView

; 589  : 			for( i = -nVisibilityRange; i <= nVisibilityRange; i++ )

  004b3	8b 45 c0	 mov	 eax, DWORD PTR _this$1$[ebp]
; File C:\IAGOS\server\v18\Source\Source\WorldServer\LinkMap.h

; 78   : 	return m_infos[dwLinkType].apObj[dwLinkLevel]; 

  004b6	8b fb		 mov	 edi, ebx
; File C:\IAGOS\server\v18\Source\Source\WorldServer\LinkMap.cpp

; 589  : 			for( i = -nVisibilityRange; i <= nVisibilityRange; i++ )

  004b8	8b 55 bc	 mov	 edx, DWORD PTR _nLinkLevel$1$[ebp]
; File C:\IAGOS\server\v18\Source\Source\WorldServer\LinkMap.h

; 78   : 	return m_infos[dwLinkType].apObj[dwLinkLevel]; 

  004bb	8b 4d ec	 mov	 ecx, DWORD PTR _nMaxWidth$1$[ebp]
  004be	89 7d e0	 mov	 DWORD PTR _i$4$[ebp], edi
; File C:\IAGOS\server\v18\Source\Source\WorldServer\LinkMap.cpp

; 589  : 			for( i = -nVisibilityRange; i <= nVisibilityRange; i++ )

  004c1	8b 54 90 5c	 mov	 edx, DWORD PTR [eax+edx*4+92]
; File C:\IAGOS\server\v18\Source\Source\WorldServer\LinkMap.h

; 78   : 	return m_infos[dwLinkType].apObj[dwLinkLevel]; 

  004c5	8b c7		 mov	 eax, edi
  004c7	0f af c1	 imul	 eax, ecx
; File C:\IAGOS\server\v18\Source\Source\WorldServer\LinkMap.cpp

; 589  : 			for( i = -nVisibilityRange; i <= nVisibilityRange; i++ )

  004ca	89 55 cc	 mov	 DWORD PTR _apObj$2$[ebp], edx
; File C:\IAGOS\server\v18\Source\Source\WorldServer\LinkMap.h

; 78   : 	return m_infos[dwLinkType].apObj[dwLinkLevel]; 

  004cd	89 45 c4	 mov	 DWORD PTR tv7032[ebp], eax
; File C:\IAGOS\server\v18\Source\Source\WorldServer\LinkMap.cpp

; 451  : 			for( i = -nVisibilityRange; i <= nVisibilityRange; i++ )

  004d0	eb 03		 jmp	 SHORT $LN23@ModifyView
$LL1325@ModifyView:
  004d2	8b 4d ec	 mov	 ecx, DWORD PTR _nMaxWidth$1$[ebp]
$LN23@ModifyView:

; 452  : 			{
; 453  : 				for( j = -nVisibilityRange; j <= nVisibilityRange; j++ )

  004d5	8b 5d a8	 mov	 ebx, DWORD PTR _nCenter$1$[ebp]
  004d8	8b f7		 mov	 esi, edi
  004da	03 c6		 add	 eax, esi
  004dc	89 75 d4	 mov	 DWORD PTR _j$3$[ebp], esi
  004df	03 d8		 add	 ebx, eax
  004e1	8b 45 f0	 mov	 eax, DWORD PTR _nVisibilityRange$1$[ebp]
  004e4	89 5d d8	 mov	 DWORD PTR tv7034[ebp], ebx
  004e7	8d 3c 9a	 lea	 edi, DWORD PTR [edx+ebx*4]
  004ea	89 7d dc	 mov	 DWORD PTR tv7033[ebp], edi
  004ed	0f 1f 00	 npad	 3
$LL26@ModifyView:

; 454  : 				{
; 455  : 					nPos	= nCenter + i * nMaxWidth + j;
; 456  : 					if( nPos < 0 || nPos >= nMaxPos )	continue;

  004f0	85 db		 test	 ebx, ebx
  004f2	0f 88 ef 01 00
	00		 js	 $LN24@ModifyView
  004f8	3b 5d b0	 cmp	 ebx, DWORD PTR _nMaxPos$1$[ebp]
  004fb	0f 8d e6 01 00
	00		 jge	 $LN24@ModifyView

; 457  : 					if( ( nMaskPos = IsOverlapped( nOldCenter, nPos, nVisibilityRange, nMaxWidth ) ) < 0 )

  00501	51		 push	 ecx
  00502	8b 4d c0	 mov	 ecx, DWORD PTR _this$1$[ebp]
  00505	50		 push	 eax
  00506	53		 push	 ebx
  00507	ff 75 b4	 push	 DWORD PTR _nOldCenter$1$[ebp]
  0050a	e8 00 00 00 00	 call	 ?IsOverlapped@CLinkMap@@AAEHHHHH@Z ; CLinkMap::IsOverlapped
  0050f	85 c0		 test	 eax, eax
  00511	0f 89 c0 01 00
	00		 jns	 $LN88@ModifyView

; 458  : 					{
; 459  : 						pCtrltmp	= (CCtrl*)apObj[nPos];

  00517	8b 17		 mov	 edx, DWORD PTR [edi]
  00519	89 55 c8	 mov	 DWORD PTR _pCtrltmp$1$[ebp], edx

; 460  : 						while( pCtrltmp )

  0051c	85 d2		 test	 edx, edx
  0051e	0f 84 bd 01 00
	00		 je	 $LN1321@ModifyView
$LL27@ModifyView:
; File C:\IAGOS\server\v18\Source\Source\_Common\Obj.h

; 180  : 	BOOL			IsDelete()	{ return (m_dwFlags & OBJ_FLAG_DELETE);  }

  00524	f6 42 04 01	 test	 BYTE PTR [edx+4], 1
; File C:\IAGOS\server\v18\Source\Source\WorldServer\LinkMap.cpp

; 462  : 							if( !pCtrltmp->IsDelete() )

  00528	0f 85 8d 01 00
	00		 jne	 $LN494@ModifyView
; File C:\IAGOS\server\v18\Source\Source\WorldServer\user.h

; 207  : 	void			NPCSetAt( OBJID objid, CCtrl* pCtrl )	{	m_2npc[objid] = pCtrl;	}

  0052e	8b 45 08	 mov	 eax, DWORD PTR _pCtrl$[ebp]
; File C:\Program Files\Microsoft Visual Studio\2022\Professional\VC\Tools\MSVC\14.44.35207\include\xtree

; 1630 :         _Tree_find_result<_Nodeptr> _Result{{_Scary->_Myhead->_Parent, _Tree_child::_Right}, _Scary->_Myhead};

  00531	33 f6		 xor	 esi, esi
; File C:\IAGOS\server\v18\Source\Source\WorldServer\LinkMap.cpp

; 464  : 								pUser->NPCSetAt( pCtrltmp->GetId(), pCtrltmp );

  00533	8b 9a bc 01 00
	00		 mov	 ebx, DWORD PTR [edx+444]
; File C:\IAGOS\server\v18\Source\Source\WorldServer\user.h

; 207  : 	void			NPCSetAt( OBJID objid, CCtrl* pCtrl )	{	m_2npc[objid] = pCtrl;	}

  00539	05 68 55 00 00	 add	 eax, 21864		; 00005568H
  0053e	89 45 e4	 mov	 DWORD PTR _this$1$[ebp], eax
; File C:\Program Files\Microsoft Visual Studio\2022\Professional\VC\Tools\MSVC\14.44.35207\include\xtree

; 1630 :         _Tree_find_result<_Nodeptr> _Result{{_Scary->_Myhead->_Parent, _Tree_child::_Right}, _Scary->_Myhead};

  00541	8b 08		 mov	 ecx, DWORD PTR [eax]
  00543	89 4d e8	 mov	 DWORD PTR __Myhead$1$[ebp], ecx
  00546	8b 79 04	 mov	 edi, DWORD PTR [ecx+4]

; 1632 :         while (!_Trynode->_Isnil) {

  00549	80 7f 0d 00	 cmp	 BYTE PTR [edi+13], 0
  0054d	75 22		 jne	 SHORT $LN505@ModifyView
  0054f	8b c7		 mov	 eax, edi
$LL504@ModifyView:

; 1633 :             _Result._Location._Parent = _Trynode;

  00551	8b f8		 mov	 edi, eax
; File C:\Program Files\Microsoft Visual Studio\2022\Professional\VC\Tools\MSVC\14.44.35207\include\type_traits

; 2380 :         return _Left < _Right;

  00553	39 58 10	 cmp	 DWORD PTR [eax+16], ebx
; File C:\Program Files\Microsoft Visual Studio\2022\Professional\VC\Tools\MSVC\14.44.35207\include\xtree

; 1634 :             if (_DEBUG_LT_PRED(_Getcomp(), _Traits::_Kfn(_Trynode->_Myval), _Keyval)) {

  00556	73 07		 jae	 SHORT $LN506@ModifyView

; 1635 :                 _Result._Location._Child = _Tree_child::_Right;
; 1636 :                 _Trynode                 = _Trynode->_Right;

  00558	8b 40 08	 mov	 eax, DWORD PTR [eax+8]
  0055b	33 f6		 xor	 esi, esi

; 1637 :             } else {

  0055d	eb 09		 jmp	 SHORT $LN507@ModifyView
$LN506@ModifyView:

; 1638 :                 _Result._Location._Child = _Tree_child::_Left;
; 1639 :                 _Result._Bound           = _Trynode;

  0055f	8b c8		 mov	 ecx, eax
  00561	be 01 00 00 00	 mov	 esi, 1

; 1640 :                 _Trynode                 = _Trynode->_Left;

  00566	8b 00		 mov	 eax, DWORD PTR [eax]
$LN507@ModifyView:

; 1632 :         while (!_Trynode->_Isnil) {

  00568	80 78 0d 00	 cmp	 BYTE PTR [eax+13], 0
  0056c	74 e3		 je	 SHORT $LL504@ModifyView
  0056e	8b 45 e4	 mov	 eax, DWORD PTR _this$1$[ebp]
$LN505@ModifyView:

; 1624 :         return !_Bound->_Isnil && !_DEBUG_LT_PRED(_Getcomp(), _Keyval, _Traits::_Kfn(_Bound->_Myval));

  00571	80 79 0d 00	 cmp	 BYTE PTR [ecx+13], 0
  00575	75 05		 jne	 SHORT $LN500@ModifyView
; File C:\Program Files\Microsoft Visual Studio\2022\Professional\VC\Tools\MSVC\14.44.35207\include\type_traits

; 2380 :         return _Left < _Right;

  00577	3b 59 10	 cmp	 ebx, DWORD PTR [ecx+16]
; File C:\Program Files\Microsoft Visual Studio\2022\Professional\VC\Tools\MSVC\14.44.35207\include\xtree

; 1624 :         return !_Bound->_Isnil && !_DEBUG_LT_PRED(_Getcomp(), _Keyval, _Traits::_Kfn(_Bound->_Myval));

  0057a	73 6a		 jae	 SHORT $LN499@ModifyView
$LN500@ModifyView:

; 1648 :         if (max_size() == _Get_scary()->_Mysize) {

  0057c	81 78 04 aa aa
	aa 0a		 cmp	 DWORD PTR [eax+4], 178956970 ; 0aaaaaaaH
  00583	0f 84 94 0a 00
	00		 je	 $LN1148@ModifyView
; File C:\Program Files\Microsoft Visual Studio\2022\Professional\VC\Tools\MSVC\14.44.35207\include\xmemory

; 1160 :     _CONSTEXPR20 explicit _Alloc_construct_ptr(_Alloc& _Al_) : _Al(_Al_), _Ptr(nullptr) {}

  00589	89 85 74 ff ff
	ff		 mov	 DWORD PTR $T11[ebp], eax

; 136  :         return ::operator new(_Bytes);

  0058f	6a 18		 push	 24			; 00000018H
; File C:\Program Files\Microsoft Visual Studio\2022\Professional\VC\Tools\MSVC\14.44.35207\include\xtree

; 808  :     explicit _Tree_temp_node_alloc(_Alnode& _Al_) : _Alloc_construct_ptr<_Alnode>(_Al_) {

  00591	c7 45 fc 02 00
	00 00		 mov	 DWORD PTR __$EHRec$[ebp+8], 2
; File C:\Program Files\Microsoft Visual Studio\2022\Professional\VC\Tools\MSVC\14.44.35207\include\xmemory

; 1167 :         _Ptr = nullptr; // if allocate throws, prevents double-free

  00598	c7 85 78 ff ff
	ff 00 00 00 00	 mov	 DWORD PTR $T11[ebp+4], 0

; 136  :         return ::operator new(_Bytes);

  005a2	e8 00 00 00 00	 call	 ??2@YAPAXI@Z		; operator new
; File C:\Program Files\Microsoft Visual Studio\2022\Professional\VC\Tools\MSVC\14.44.35207\include\xtree

; 831  :         _Construct_in_place(this->_Ptr->_Left, _Myhead);

  005a7	8b 4d e8	 mov	 ecx, DWORD PTR __Myhead$1$[ebp]
; File C:\Program Files\Microsoft Visual Studio\2022\Professional\VC\Tools\MSVC\14.44.35207\include\xmemory

; 136  :         return ::operator new(_Bytes);

  005aa	83 c4 04	 add	 esp, 4
; File C:\Program Files\Microsoft Visual Studio\2022\Professional\VC\Tools\MSVC\14.44.35207\include\xtree

; 810  :     }

  005ad	c7 45 fc ff ff
	ff ff		 mov	 DWORD PTR __$EHRec$[ebp+8], -1
; File C:\Program Files\Microsoft Visual Studio\2022\Professional\VC\Tools\MSVC\14.44.35207\include\utility

; 774  :     _Val         = static_cast<_Other&&>(_New_val);

  005b4	c7 85 78 ff ff
	ff 00 00 00 00	 mov	 DWORD PTR $T11[ebp+4], 0

; 478  :         : first(_STD _Tuple_get<_Indices1>(_STD move(_Val1))...),

  005be	89 58 10	 mov	 DWORD PTR [eax+16], ebx

; 479  :           second(_STD _Tuple_get<_Indices2>(_STD move(_Val2))...) {}

  005c1	c7 40 14 00 00
	00 00		 mov	 DWORD PTR [eax+20], 0
; File C:\Program Files\Microsoft Visual Studio\2022\Professional\VC\Tools\MSVC\14.44.35207\include\xtree

; 831  :         _Construct_in_place(this->_Ptr->_Left, _Myhead);

  005c8	89 08		 mov	 DWORD PTR [eax], ecx
; File C:\Program Files\Microsoft Visual Studio\2022\Professional\VC\Tools\MSVC\14.44.35207\include\map

; 211  :         return {_Scary->_Insert_node(_Loc._Location, _Inserted), true};

  005ca	50		 push	 eax
; File C:\Program Files\Microsoft Visual Studio\2022\Professional\VC\Tools\MSVC\14.44.35207\include\xtree

; 832  :         _Construct_in_place(this->_Ptr->_Parent, _Myhead);

  005cb	89 48 04	 mov	 DWORD PTR [eax+4], ecx

; 833  :         _Construct_in_place(this->_Ptr->_Right, _Myhead);

  005ce	89 48 08	 mov	 DWORD PTR [eax+8], ecx
; File C:\Program Files\Microsoft Visual Studio\2022\Professional\VC\Tools\MSVC\14.44.35207\include\map

; 211  :         return {_Scary->_Insert_node(_Loc._Location, _Inserted), true};

  005d1	8b 4d e4	 mov	 ecx, DWORD PTR _this$1$[ebp]
  005d4	56		 push	 esi
  005d5	57		 push	 edi
; File C:\Program Files\Microsoft Visual Studio\2022\Professional\VC\Tools\MSVC\14.44.35207\include\xtree

; 834  :         this->_Ptr->_Color = _Red;

  005d6	66 c7 40 0c 00
	00		 mov	 WORD PTR [eax+12], 0
; File C:\Program Files\Microsoft Visual Studio\2022\Professional\VC\Tools\MSVC\14.44.35207\include\map

; 211  :         return {_Scary->_Insert_node(_Loc._Location, _Inserted), true};

  005dc	e8 00 00 00 00	 call	 ?_Insert_node@?$_Tree_val@U?$_Tree_simple_types@U?$pair@$$CBKPAVCCtrl@@@std@@@std@@@std@@QAEPAU?$_Tree_node@U?$pair@$$CBKPAVCCtrl@@@std@@PAX@2@U?$_Tree_id@PAU?$_Tree_node@U?$pair@$$CBKPAVCCtrl@@@std@@PAX@std@@@2@QAU32@@Z ; std::_Tree_val<std::_Tree_simple_types<std::pair<unsigned long const ,CCtrl *> > >::_Insert_node
  005e1	8b 55 c8	 mov	 edx, DWORD PTR _pCtrltmp$1$[ebp]
  005e4	8b c8		 mov	 ecx, eax
$LN499@ModifyView:
; File C:\IAGOS\server\v18\Source\Source\WorldServer\LinkMap.cpp

; 465  : 								pUser->AddAddObj( pCtrltmp );

  005e6	8b 5d 08	 mov	 ebx, DWORD PTR _pCtrl$[ebp]
; File C:\IAGOS\server\v18\Source\Source\WorldServer\user.h

; 207  : 	void			NPCSetAt( OBJID objid, CCtrl* pCtrl )	{	m_2npc[objid] = pCtrl;	}

  005e9	89 51 14	 mov	 DWORD PTR [ecx+20], edx
; File C:\IAGOS\server\v18\Source\Source\WorldServer\LinkMap.cpp

; 465  : 								pUser->AddAddObj( pCtrltmp );

  005ec	8b cb		 mov	 ecx, ebx
  005ee	52		 push	 edx
  005ef	e8 00 00 00 00	 call	 ?AddAddObj@CUser@@QAEXPAVCCtrl@@@Z ; CUser::AddAddObj
; File C:\IAGOS\server\v18\Source\Source\_Common\Ctrl.h

; 116  : 	m_2pc[ objid ] = (CUser *)pCtrl;

  005f4	8b 55 c8	 mov	 edx, DWORD PTR _pCtrltmp$1$[ebp]
; File C:\Program Files\Microsoft Visual Studio\2022\Professional\VC\Tools\MSVC\14.44.35207\include\xtree

; 1630 :         _Tree_find_result<_Nodeptr> _Result{{_Scary->_Myhead->_Parent, _Tree_child::_Right}, _Scary->_Myhead};

  005f7	33 f6		 xor	 esi, esi
  005f9	8b 8a 0c 02 00
	00		 mov	 ecx, DWORD PTR [edx+524]
; File C:\IAGOS\server\v18\Source\Source\_Common\Ctrl.h

; 116  : 	m_2pc[ objid ] = (CUser *)pCtrl;

  005ff	8d 82 0c 02 00
	00		 lea	 eax, DWORD PTR [edx+524]
; File C:\IAGOS\server\v18\Source\Source\WorldServer\LinkMap.cpp

; 466  : 								pCtrltmp->PCSetAt( pUser->GetId(), (CCtrl*)pUser );

  00605	8b 9b bc 01 00
	00		 mov	 ebx, DWORD PTR [ebx+444]
; File C:\IAGOS\server\v18\Source\Source\_Common\Ctrl.h

; 116  : 	m_2pc[ objid ] = (CUser *)pCtrl;

  0060b	89 45 e4	 mov	 DWORD PTR _this$1$[ebp], eax
; File C:\Program Files\Microsoft Visual Studio\2022\Professional\VC\Tools\MSVC\14.44.35207\include\xtree

; 1630 :         _Tree_find_result<_Nodeptr> _Result{{_Scary->_Myhead->_Parent, _Tree_child::_Right}, _Scary->_Myhead};

  0060e	89 4d e8	 mov	 DWORD PTR __Myhead$1$[ebp], ecx
  00611	8b 79 04	 mov	 edi, DWORD PTR [ecx+4]

; 1632 :         while (!_Trynode->_Isnil) {

  00614	80 7f 0d 00	 cmp	 BYTE PTR [edi+13], 0
  00618	75 26		 jne	 SHORT $LN388@ModifyView
  0061a	8b c7		 mov	 eax, edi
  0061c	0f 1f 40 00	 npad	 4
$LL387@ModifyView:

; 1633 :             _Result._Location._Parent = _Trynode;

  00620	8b f8		 mov	 edi, eax
; File C:\Program Files\Microsoft Visual Studio\2022\Professional\VC\Tools\MSVC\14.44.35207\include\type_traits

; 2380 :         return _Left < _Right;

  00622	39 58 10	 cmp	 DWORD PTR [eax+16], ebx
; File C:\Program Files\Microsoft Visual Studio\2022\Professional\VC\Tools\MSVC\14.44.35207\include\xtree

; 1634 :             if (_DEBUG_LT_PRED(_Getcomp(), _Traits::_Kfn(_Trynode->_Myval), _Keyval)) {

  00625	73 07		 jae	 SHORT $LN389@ModifyView

; 1635 :                 _Result._Location._Child = _Tree_child::_Right;
; 1636 :                 _Trynode                 = _Trynode->_Right;

  00627	8b 40 08	 mov	 eax, DWORD PTR [eax+8]
  0062a	33 f6		 xor	 esi, esi

; 1637 :             } else {

  0062c	eb 09		 jmp	 SHORT $LN390@ModifyView
$LN389@ModifyView:

; 1638 :                 _Result._Location._Child = _Tree_child::_Left;
; 1639 :                 _Result._Bound           = _Trynode;

  0062e	8b c8		 mov	 ecx, eax
  00630	be 01 00 00 00	 mov	 esi, 1

; 1640 :                 _Trynode                 = _Trynode->_Left;

  00635	8b 00		 mov	 eax, DWORD PTR [eax]
$LN390@ModifyView:

; 1632 :         while (!_Trynode->_Isnil) {

  00637	80 78 0d 00	 cmp	 BYTE PTR [eax+13], 0
  0063b	74 e3		 je	 SHORT $LL387@ModifyView
  0063d	8b 45 e4	 mov	 eax, DWORD PTR _this$1$[ebp]
$LN388@ModifyView:

; 1624 :         return !_Bound->_Isnil && !_DEBUG_LT_PRED(_Getcomp(), _Keyval, _Traits::_Kfn(_Bound->_Myval));

  00640	80 79 0d 00	 cmp	 BYTE PTR [ecx+13], 0
  00644	75 05		 jne	 SHORT $LN383@ModifyView
; File C:\Program Files\Microsoft Visual Studio\2022\Professional\VC\Tools\MSVC\14.44.35207\include\type_traits

; 2380 :         return _Left < _Right;

  00646	3b 59 10	 cmp	 ebx, DWORD PTR [ecx+16]
; File C:\Program Files\Microsoft Visual Studio\2022\Professional\VC\Tools\MSVC\14.44.35207\include\xtree

; 1624 :         return !_Bound->_Isnil && !_DEBUG_LT_PRED(_Getcomp(), _Keyval, _Traits::_Kfn(_Bound->_Myval));

  00649	73 6a		 jae	 SHORT $LN382@ModifyView
$LN383@ModifyView:

; 1648 :         if (max_size() == _Get_scary()->_Mysize) {

  0064b	81 78 04 aa aa
	aa 0a		 cmp	 DWORD PTR [eax+4], 178956970 ; 0aaaaaaaH
  00652	0f 84 c5 09 00
	00		 je	 $LN1148@ModifyView
; File C:\Program Files\Microsoft Visual Studio\2022\Professional\VC\Tools\MSVC\14.44.35207\include\xmemory

; 1160 :     _CONSTEXPR20 explicit _Alloc_construct_ptr(_Alloc& _Al_) : _Al(_Al_), _Ptr(nullptr) {}

  00658	89 85 6c ff ff
	ff		 mov	 DWORD PTR $T10[ebp], eax

; 136  :         return ::operator new(_Bytes);

  0065e	6a 18		 push	 24			; 00000018H
; File C:\Program Files\Microsoft Visual Studio\2022\Professional\VC\Tools\MSVC\14.44.35207\include\xtree

; 808  :     explicit _Tree_temp_node_alloc(_Alnode& _Al_) : _Alloc_construct_ptr<_Alnode>(_Al_) {

  00660	c7 45 fc 03 00
	00 00		 mov	 DWORD PTR __$EHRec$[ebp+8], 3
; File C:\Program Files\Microsoft Visual Studio\2022\Professional\VC\Tools\MSVC\14.44.35207\include\xmemory

; 1167 :         _Ptr = nullptr; // if allocate throws, prevents double-free

  00667	c7 85 70 ff ff
	ff 00 00 00 00	 mov	 DWORD PTR $T10[ebp+4], 0

; 136  :         return ::operator new(_Bytes);

  00671	e8 00 00 00 00	 call	 ??2@YAPAXI@Z		; operator new
; File C:\Program Files\Microsoft Visual Studio\2022\Professional\VC\Tools\MSVC\14.44.35207\include\xtree

; 831  :         _Construct_in_place(this->_Ptr->_Left, _Myhead);

  00676	8b 4d e8	 mov	 ecx, DWORD PTR __Myhead$1$[ebp]
; File C:\Program Files\Microsoft Visual Studio\2022\Professional\VC\Tools\MSVC\14.44.35207\include\xmemory

; 136  :         return ::operator new(_Bytes);

  00679	83 c4 04	 add	 esp, 4
; File C:\Program Files\Microsoft Visual Studio\2022\Professional\VC\Tools\MSVC\14.44.35207\include\xtree

; 810  :     }

  0067c	c7 45 fc ff ff
	ff ff		 mov	 DWORD PTR __$EHRec$[ebp+8], -1
; File C:\Program Files\Microsoft Visual Studio\2022\Professional\VC\Tools\MSVC\14.44.35207\include\utility

; 774  :     _Val         = static_cast<_Other&&>(_New_val);

  00683	c7 85 70 ff ff
	ff 00 00 00 00	 mov	 DWORD PTR $T10[ebp+4], 0

; 478  :         : first(_STD _Tuple_get<_Indices1>(_STD move(_Val1))...),

  0068d	89 58 10	 mov	 DWORD PTR [eax+16], ebx

; 479  :           second(_STD _Tuple_get<_Indices2>(_STD move(_Val2))...) {}

  00690	c7 40 14 00 00
	00 00		 mov	 DWORD PTR [eax+20], 0
; File C:\Program Files\Microsoft Visual Studio\2022\Professional\VC\Tools\MSVC\14.44.35207\include\xtree

; 831  :         _Construct_in_place(this->_Ptr->_Left, _Myhead);

  00697	89 08		 mov	 DWORD PTR [eax], ecx
; File C:\Program Files\Microsoft Visual Studio\2022\Professional\VC\Tools\MSVC\14.44.35207\include\map

; 211  :         return {_Scary->_Insert_node(_Loc._Location, _Inserted), true};

  00699	50		 push	 eax
; File C:\Program Files\Microsoft Visual Studio\2022\Professional\VC\Tools\MSVC\14.44.35207\include\xtree

; 832  :         _Construct_in_place(this->_Ptr->_Parent, _Myhead);

  0069a	89 48 04	 mov	 DWORD PTR [eax+4], ecx

; 833  :         _Construct_in_place(this->_Ptr->_Right, _Myhead);

  0069d	89 48 08	 mov	 DWORD PTR [eax+8], ecx
; File C:\Program Files\Microsoft Visual Studio\2022\Professional\VC\Tools\MSVC\14.44.35207\include\map

; 211  :         return {_Scary->_Insert_node(_Loc._Location, _Inserted), true};

  006a0	8b 4d e4	 mov	 ecx, DWORD PTR _this$1$[ebp]
  006a3	56		 push	 esi
  006a4	57		 push	 edi
; File C:\Program Files\Microsoft Visual Studio\2022\Professional\VC\Tools\MSVC\14.44.35207\include\xtree

; 834  :         this->_Ptr->_Color = _Red;

  006a5	66 c7 40 0c 00
	00		 mov	 WORD PTR [eax+12], 0
; File C:\Program Files\Microsoft Visual Studio\2022\Professional\VC\Tools\MSVC\14.44.35207\include\map

; 211  :         return {_Scary->_Insert_node(_Loc._Location, _Inserted), true};

  006ab	e8 00 00 00 00	 call	 ?_Insert_node@?$_Tree_val@U?$_Tree_simple_types@U?$pair@$$CBKPAVCUser@@@std@@@std@@@std@@QAEPAU?$_Tree_node@U?$pair@$$CBKPAVCUser@@@std@@PAX@2@U?$_Tree_id@PAU?$_Tree_node@U?$pair@$$CBKPAVCUser@@@std@@PAX@std@@@2@QAU32@@Z ; std::_Tree_val<std::_Tree_simple_types<std::pair<unsigned long const ,CUser *> > >::_Insert_node
  006b0	8b 55 c8	 mov	 edx, DWORD PTR _pCtrltmp$1$[ebp]
  006b3	8b c8		 mov	 ecx, eax
$LN382@ModifyView:
; File C:\IAGOS\server\v18\Source\Source\_Common\Ctrl.h

; 116  : 	m_2pc[ objid ] = (CUser *)pCtrl;

  006b5	8b 45 08	 mov	 eax, DWORD PTR _pCtrl$[ebp]
  006b8	89 41 14	 mov	 DWORD PTR [ecx+20], eax
$LN494@ModifyView:
; File C:\IAGOS\server\v18\Source\Source\WorldServer\LinkMap.cpp

; 468  : 							pCtrltmp	= (CCtrl*)pCtrltmp->GetNextNode();

  006bb	8b 92 80 01 00
	00		 mov	 edx, DWORD PTR [edx+384]
  006c1	89 55 c8	 mov	 DWORD PTR _pCtrltmp$1$[ebp], edx
  006c4	85 d2		 test	 edx, edx
  006c6	0f 85 58 fe ff
	ff		 jne	 $LL27@ModifyView

; 469  : 						}
; 470  : 					}

  006cc	8b 5d d8	 mov	 ebx, DWORD PTR tv7034[ebp]
  006cf	8b 75 d4	 mov	 esi, DWORD PTR _j$3$[ebp]
  006d2	8b 7d dc	 mov	 edi, DWORD PTR tv7033[ebp]
  006d5	eb 0a		 jmp	 SHORT $LN1321@ModifyView
$LN88@ModifyView:

; 471  : 					else	// old pos
; 472  : 					{
; 473  : 						pfMask[nMaskPos]	= TRUE;

  006d7	8b 4d ac	 mov	 ecx, DWORD PTR _pfMask$1$[ebp]
  006da	c7 04 81 01 00
	00 00		 mov	 DWORD PTR [ecx+eax*4], 1
$LN1321@ModifyView:

; 452  : 			{
; 453  : 				for( j = -nVisibilityRange; j <= nVisibilityRange; j++ )

  006e1	8b 45 f0	 mov	 eax, DWORD PTR _nVisibilityRange$1$[ebp]
  006e4	8b 4d ec	 mov	 ecx, DWORD PTR _nMaxWidth$1$[ebp]
$LN24@ModifyView:
  006e7	46		 inc	 esi
  006e8	43		 inc	 ebx
  006e9	83 c7 04	 add	 edi, 4
  006ec	89 75 d4	 mov	 DWORD PTR _j$3$[ebp], esi
  006ef	89 5d d8	 mov	 DWORD PTR tv7034[ebp], ebx
  006f2	89 7d dc	 mov	 DWORD PTR tv7033[ebp], edi
  006f5	3b f0		 cmp	 esi, eax
  006f7	0f 8e f3 fd ff
	ff		 jle	 $LL26@ModifyView

; 451  : 			for( i = -nVisibilityRange; i <= nVisibilityRange; i++ )

  006fd	8b 4d e0	 mov	 ecx, DWORD PTR _i$4$[ebp]
  00700	8b 45 c4	 mov	 eax, DWORD PTR tv7032[ebp]
  00703	41		 inc	 ecx
  00704	8b 75 ec	 mov	 esi, DWORD PTR _nMaxWidth$1$[ebp]
  00707	03 c6		 add	 eax, esi
  00709	8b 5d f0	 mov	 ebx, DWORD PTR _nVisibilityRange$1$[ebp]
  0070c	8b 55 cc	 mov	 edx, DWORD PTR _apObj$2$[ebp]
  0070f	8b 7d d0	 mov	 edi, DWORD PTR _i$8$[ebp]
  00712	89 4d e0	 mov	 DWORD PTR _i$4$[ebp], ecx
  00715	89 45 c4	 mov	 DWORD PTR tv7032[ebp], eax
  00718	89 55 cc	 mov	 DWORD PTR _apObj$2$[ebp], edx
  0071b	3b cb		 cmp	 ecx, ebx
  0071d	0f 8e af fd ff
	ff		 jle	 $LL1325@ModifyView

; 474  : 					}
; 475  : 				}
; 476  : 			}
; 477  : 
; 478  : 			for( i = -nVisibilityRange; i <= nVisibilityRange; i ++ )

  00723	8b c7		 mov	 eax, edi
  00725	33 d2		 xor	 edx, edx
  00727	0f af c6	 imul	 eax, esi
  0072a	8b f3		 mov	 esi, ebx
  0072c	2b f7		 sub	 esi, edi
  0072e	89 55 dc	 mov	 DWORD PTR tv7024[ebp], edx
  00731	46		 inc	 esi
  00732	89 75 e0	 mov	 DWORD PTR tv7087[ebp], esi
  00735	89 45 d8	 mov	 DWORD PTR tv7023[ebp], eax
  00738	8d 0c 38	 lea	 ecx, DWORD PTR [eax+edi]
  0073b	89 4d c4	 mov	 DWORD PTR $T20[ebp], ecx
  0073e	66 90		 npad	 2
$LL31@ModifyView:

; 415  : 					}
; 416  : 				}
; 417  : 			}
; 418  : 
; 419  : 			for( i = -nVisibilityRange; i <= nVisibilityRange; i ++ )

  00740	8b 75 b4	 mov	 esi, DWORD PTR _nOldCenter$1$[ebp]
  00743	8b df		 mov	 ebx, edi
  00745	03 c3		 add	 eax, ebx
  00747	03 c6		 add	 eax, esi
  00749	8d 3c 31	 lea	 edi, DWORD PTR [ecx+esi]
  0074c	8b 4d cc	 mov	 ecx, DWORD PTR _apObj$2$[ebp]
  0074f	89 7d d4	 mov	 DWORD PTR tv7026[ebp], edi
  00752	8d 0c 81	 lea	 ecx, DWORD PTR [ecx+eax*4]
  00755	8b 45 f0	 mov	 eax, DWORD PTR _nVisibilityRange$1$[ebp]
  00758	89 4d e4	 mov	 DWORD PTR tv7025[ebp], ecx
  0075b	0f 1f 44 00 00	 npad	 5
$LL34@ModifyView:

; 481  : 				{
; 482  : 					nPos	= nOldCenter + i * nMaxWidth + j;
; 483  : 					if( nPos < 0 || nPos >= nMaxPos )	continue;

  00760	85 ff		 test	 edi, edi
  00762	0f 88 91 00 00
	00		 js	 $LN32@ModifyView
  00768	3b 7d b0	 cmp	 edi, DWORD PTR _nMaxPos$1$[ebp]
  0076b	0f 8d 88 00 00
	00		 jge	 $LN32@ModifyView

; 484  : 					nMaskPos		= ( i + nVisibilityRange ) * ( 2 * nVisibilityRange + 1 ) + ( j + nVisibilityRange ) ;
; 485  : 					if( pfMask[nMaskPos] == FALSE )

  00771	8b 75 ac	 mov	 esi, DWORD PTR _pfMask$1$[ebp]
  00774	8d 04 45 01 00
	00 00		 lea	 eax, DWORD PTR [eax*2+1]
  0077b	0f af c2	 imul	 eax, edx
  0077e	03 c3		 add	 eax, ebx
  00780	03 45 f0	 add	 eax, DWORD PTR _nVisibilityRange$1$[ebp]
  00783	83 3c 86 00	 cmp	 DWORD PTR [esi+eax*4], 0
  00787	75 66		 jne	 SHORT $LN93@ModifyView

; 486  : 					{
; 487  : 						pCtrltmp	= (CCtrl*)apObj[nPos];

  00789	8b 31		 mov	 esi, DWORD PTR [ecx]

; 488  : 						while( pCtrltmp )

  0078b	85 f6		 test	 esi, esi
  0078d	74 67		 je	 SHORT $LN1322@ModifyView
  0078f	8b 7d 08	 mov	 edi, DWORD PTR _pCtrl$[ebp]
$LL35@ModifyView:
; File C:\IAGOS\server\v18\Source\Source\_Common\Obj.h

; 180  : 	BOOL			IsDelete()	{ return (m_dwFlags & OBJ_FLAG_DELETE);  }

  00792	f6 46 04 01	 test	 BYTE PTR [esi+4], 1
; File C:\IAGOS\server\v18\Source\Source\WorldServer\LinkMap.cpp

; 490  : 							if( !pCtrltmp->IsDelete() )

  00796	75 42		 jne	 SHORT $LN95@ModifyView

; 492  : 								pUser->NPCRemoveKey( pCtrltmp->GetId() );

  00798	8b 86 bc 01 00
	00		 mov	 eax, DWORD PTR [esi+444]
; File C:\IAGOS\server\v18\Source\Source\WorldServer\user.h

; 208  : 	BOOL			NPCRemoveKey( OBJID objid )		{	return m_2npc.erase( objid ) > 0; }

  0079e	8d 8f 68 55 00
	00		 lea	 ecx, DWORD PTR [edi+21864]
; File C:\IAGOS\server\v18\Source\Source\WorldServer\LinkMap.cpp

; 492  : 								pUser->NPCRemoveKey( pCtrltmp->GetId() );

  007a4	89 45 e8	 mov	 DWORD PTR _objid$[ebp], eax
; File C:\IAGOS\server\v18\Source\Source\WorldServer\user.h

; 208  : 	BOOL			NPCRemoveKey( OBJID objid )		{	return m_2npc.erase( objid ) > 0; }

  007a7	8d 45 e8	 lea	 eax, DWORD PTR _objid$[ebp]
  007aa	50		 push	 eax
  007ab	e8 00 00 00 00	 call	 ?erase@?$_Tree@V?$_Tmap_traits@KPAVCCtrl@@U?$less@K@std@@V?$allocator@U?$pair@$$CBKPAVCCtrl@@@std@@@3@$0A@@std@@@std@@QAEIABK@Z ; std::_Tree<std::_Tmap_traits<unsigned long,CCtrl *,std::less<unsigned long>,std::allocator<std::pair<unsigned long const ,CCtrl *> >,0> >::erase

; 253  : 	void			AddRemoveObj( OBJID objid )		{ AddHdr( objid, SNAPSHOTTYPE_DEL_OBJ );	}

  007b0	68 f1 00 00 00	 push	 241			; 000000f1H
  007b5	ff b6 bc 01 00
	00		 push	 DWORD PTR [esi+444]
  007bb	8b cf		 mov	 ecx, edi
  007bd	e8 00 00 00 00	 call	 ?AddHdr@CUser@@QAEXKG@Z	; CUser::AddHdr
; File C:\IAGOS\server\v18\Source\Source\WorldServer\LinkMap.cpp

; 494  : 								pCtrltmp->PCRemoveKey( pUser->GetId() );

  007c2	8b 87 bc 01 00
	00		 mov	 eax, DWORD PTR [edi+444]
; File C:\IAGOS\server\v18\Source\Source\_Common\Ctrl.h

; 121  : 	return m_2pc.erase( objid ) > 0;

  007c8	8d 8e 0c 02 00
	00		 lea	 ecx, DWORD PTR [esi+524]
; File C:\IAGOS\server\v18\Source\Source\WorldServer\LinkMap.cpp

; 494  : 								pCtrltmp->PCRemoveKey( pUser->GetId() );

  007ce	89 45 e8	 mov	 DWORD PTR _objid$[ebp], eax
; File C:\IAGOS\server\v18\Source\Source\_Common\Ctrl.h

; 121  : 	return m_2pc.erase( objid ) > 0;

  007d1	8d 45 e8	 lea	 eax, DWORD PTR _objid$[ebp]
  007d4	50		 push	 eax
  007d5	e8 00 00 00 00	 call	 ?erase@?$_Tree@V?$_Tmap_traits@KPAVCUser@@U?$less@K@std@@V?$allocator@U?$pair@$$CBKPAVCUser@@@std@@@3@$0A@@std@@@std@@QAEIABK@Z ; std::_Tree<std::_Tmap_traits<unsigned long,CUser *,std::less<unsigned long>,std::allocator<std::pair<unsigned long const ,CUser *> >,0> >::erase
$LN95@ModifyView:
; File C:\IAGOS\server\v18\Source\Source\WorldServer\LinkMap.cpp

; 496  : 							pCtrltmp	= (CCtrl*)pCtrltmp->GetNextNode();

  007da	8b b6 80 01 00
	00		 mov	 esi, DWORD PTR [esi+384]
  007e0	85 f6		 test	 esi, esi
  007e2	75 ae		 jne	 SHORT $LL35@ModifyView

; 497  : 						}
; 498  : 					}

  007e4	8b 7d d4	 mov	 edi, DWORD PTR tv7026[ebp]
  007e7	8b 4d e4	 mov	 ecx, DWORD PTR tv7025[ebp]
  007ea	8b 55 dc	 mov	 edx, DWORD PTR tv7024[ebp]
  007ed	eb 07		 jmp	 SHORT $LN1322@ModifyView
$LN93@ModifyView:

; 499  : 					else
; 500  : 					{
; 501  : 						pfMask[nMaskPos]	= FALSE;

  007ef	c7 04 86 00 00
	00 00		 mov	 DWORD PTR [esi+eax*4], 0
$LN1322@ModifyView:

; 479  : 			{
; 480  : 				for( j = -nVisibilityRange; j <= nVisibilityRange; j++ )

  007f6	8b 45 f0	 mov	 eax, DWORD PTR _nVisibilityRange$1$[ebp]
$LN32@ModifyView:
  007f9	43		 inc	 ebx
  007fa	83 c1 04	 add	 ecx, 4
  007fd	47		 inc	 edi
  007fe	89 4d e4	 mov	 DWORD PTR tv7025[ebp], ecx
  00801	89 7d d4	 mov	 DWORD PTR tv7026[ebp], edi
  00804	3b d8		 cmp	 ebx, eax
  00806	0f 8e 54 ff ff
	ff		 jle	 $LL34@ModifyView

; 474  : 					}
; 475  : 				}
; 476  : 			}
; 477  : 
; 478  : 			for( i = -nVisibilityRange; i <= nVisibilityRange; i ++ )

  0080c	8b 5d ec	 mov	 ebx, DWORD PTR _nMaxWidth$1$[ebp]
  0080f	42		 inc	 edx
  00810	8b 4d c4	 mov	 ecx, DWORD PTR $T20[ebp]
  00813	8b 45 d8	 mov	 eax, DWORD PTR tv7023[ebp]
  00816	8b 7d d0	 mov	 edi, DWORD PTR _i$8$[ebp]
  00819	03 c3		 add	 eax, ebx
  0081b	83 6d e0 01	 sub	 DWORD PTR tv7087[ebp], 1
  0081f	8d 0c 0b	 lea	 ecx, DWORD PTR [ebx+ecx]
  00822	89 45 d8	 mov	 DWORD PTR tv7023[ebp], eax
  00825	8b 5d cc	 mov	 ebx, DWORD PTR _apObj$2$[ebp]
  00828	89 55 dc	 mov	 DWORD PTR tv7024[ebp], edx
  0082b	89 4d c4	 mov	 DWORD PTR $T20[ebp], ecx
  0082e	89 5d cc	 mov	 DWORD PTR _apObj$2$[ebp], ebx
  00831	0f 85 09 ff ff
	ff		 jne	 $LL31@ModifyView

; 589  : 			for( i = -nVisibilityRange; i <= nVisibilityRange; i++ )

  00837	8b 45 bc	 mov	 eax, DWORD PTR _nLinkLevel$1$[ebp]
  0083a	8b 55 c0	 mov	 edx, DWORD PTR _this$1$[ebp]
; File C:\IAGOS\server\v18\Source\Source\WorldServer\LinkMap.h

; 78   : 	return m_infos[dwLinkType].apObj[dwLinkLevel]; 

  0083d	8b 4d ec	 mov	 ecx, DWORD PTR _nMaxWidth$1$[ebp]
  00840	89 7d e0	 mov	 DWORD PTR _i$7$[ebp], edi
; File C:\IAGOS\server\v18\Source\Source\WorldServer\LinkMap.cpp

; 589  : 			for( i = -nVisibilityRange; i <= nVisibilityRange; i++ )

  00843	8b 94 82 d4 00
	00 00		 mov	 edx, DWORD PTR [edx+eax*4+212]
; File C:\IAGOS\server\v18\Source\Source\WorldServer\LinkMap.h

; 78   : 	return m_infos[dwLinkType].apObj[dwLinkLevel]; 

  0084a	8b c7		 mov	 eax, edi
  0084c	0f af c1	 imul	 eax, ecx
; File C:\IAGOS\server\v18\Source\Source\WorldServer\LinkMap.cpp

; 589  : 			for( i = -nVisibilityRange; i <= nVisibilityRange; i++ )

  0084f	89 55 cc	 mov	 DWORD PTR _apObj$3$[ebp], edx
; File C:\IAGOS\server\v18\Source\Source\WorldServer\LinkMap.h

; 78   : 	return m_infos[dwLinkType].apObj[dwLinkLevel]; 

  00852	89 45 c4	 mov	 DWORD PTR tv7018[ebp], eax
; File C:\IAGOS\server\v18\Source\Source\WorldServer\LinkMap.cpp

; 508  : 			for( i = -nVisibilityRange; i <= nVisibilityRange; i++ )

  00855	eb 03		 jmp	 SHORT $LN39@ModifyView
$LL1326@ModifyView:
  00857	8b 4d ec	 mov	 ecx, DWORD PTR _nMaxWidth$1$[ebp]
$LN39@ModifyView:

; 509  : 			{
; 510  : 				for( j = -nVisibilityRange; j <= nVisibilityRange; j++ )

  0085a	8b 5d a8	 mov	 ebx, DWORD PTR _nCenter$1$[ebp]
  0085d	8b f7		 mov	 esi, edi
  0085f	03 c6		 add	 eax, esi
  00861	89 75 d4	 mov	 DWORD PTR _j$5$[ebp], esi
  00864	03 d8		 add	 ebx, eax
  00866	8b 45 f0	 mov	 eax, DWORD PTR _nVisibilityRange$1$[ebp]
  00869	89 5d d8	 mov	 DWORD PTR tv7020[ebp], ebx
  0086c	8d 3c 9a	 lea	 edi, DWORD PTR [edx+ebx*4]
  0086f	89 7d dc	 mov	 DWORD PTR tv7019[ebp], edi
$LL42@ModifyView:

; 511  : 				{
; 512  : 					nPos	= nCenter + i * nMaxWidth + j;
; 513  : 					if( nPos < 0 || nPos >= nMaxPos )	continue;

  00872	85 db		 test	 ebx, ebx
  00874	0f 88 db 01 00
	00		 js	 $LN40@ModifyView
  0087a	3b 5d b0	 cmp	 ebx, DWORD PTR _nMaxPos$1$[ebp]
  0087d	0f 8d d2 01 00
	00		 jge	 $LN40@ModifyView

; 514  : 					if( ( nMaskPos = IsOverlapped( nOldCenter, nPos, nVisibilityRange, nMaxWidth ) ) < 0 )

  00883	51		 push	 ecx
  00884	8b 4d c0	 mov	 ecx, DWORD PTR _this$1$[ebp]
  00887	50		 push	 eax
  00888	53		 push	 ebx
  00889	ff 75 b4	 push	 DWORD PTR _nOldCenter$1$[ebp]
  0088c	e8 00 00 00 00	 call	 ?IsOverlapped@CLinkMap@@AAEHHHHH@Z ; CLinkMap::IsOverlapped
  00891	85 c0		 test	 eax, eax
  00893	0f 89 ac 01 00
	00		 jns	 $LN98@ModifyView

; 515  : 					{
; 516  : 						pCtrltmp	= (CCtrl*)apObj[nPos];

  00899	8b 07		 mov	 eax, DWORD PTR [edi]
  0089b	89 45 c8	 mov	 DWORD PTR _pCtrltmp$3$[ebp], eax

; 517  : 						while( pCtrltmp )

  0089e	85 c0		 test	 eax, eax
  008a0	0f 84 a9 01 00
	00		 je	 $LN1323@ModifyView
$LL43@ModifyView:
; File C:\IAGOS\server\v18\Source\Source\_Common\Obj.h

; 180  : 	BOOL			IsDelete()	{ return (m_dwFlags & OBJ_FLAG_DELETE);  }

  008a6	f6 40 04 01	 test	 BYTE PTR [eax+4], 1
; File C:\IAGOS\server\v18\Source\Source\WorldServer\LinkMap.cpp

; 519  : 							if( !pCtrltmp->IsDelete() )

  008aa	0f 85 79 01 00
	00		 jne	 $LN245@ModifyView
; File C:\IAGOS\server\v18\Source\Source\WorldServer\user.h

; 207  : 	void			NPCSetAt( OBJID objid, CCtrl* pCtrl )	{	m_2npc[objid] = pCtrl;	}

  008b0	8b 55 08	 mov	 edx, DWORD PTR _pCtrl$[ebp]
; File C:\Program Files\Microsoft Visual Studio\2022\Professional\VC\Tools\MSVC\14.44.35207\include\xtree

; 1630 :         _Tree_find_result<_Nodeptr> _Result{{_Scary->_Myhead->_Parent, _Tree_child::_Right}, _Scary->_Myhead};

  008b3	33 f6		 xor	 esi, esi
; File C:\IAGOS\server\v18\Source\Source\WorldServer\LinkMap.cpp

; 521  : 								pUser->NPCSetAt( pCtrltmp->GetId(), pCtrltmp );

  008b5	8b 98 bc 01 00
	00		 mov	 ebx, DWORD PTR [eax+444]
; File C:\IAGOS\server\v18\Source\Source\WorldServer\user.h

; 207  : 	void			NPCSetAt( OBJID objid, CCtrl* pCtrl )	{	m_2npc[objid] = pCtrl;	}

  008bb	81 c2 68 55 00
	00		 add	 edx, 21864		; 00005568H
; File C:\Program Files\Microsoft Visual Studio\2022\Professional\VC\Tools\MSVC\14.44.35207\include\xtree

; 1630 :         _Tree_find_result<_Nodeptr> _Result{{_Scary->_Myhead->_Parent, _Tree_child::_Right}, _Scary->_Myhead};

  008c1	8b 02		 mov	 eax, DWORD PTR [edx]
  008c3	8b c8		 mov	 ecx, eax
  008c5	89 45 e8	 mov	 DWORD PTR __Myhead$1$[ebp], eax
  008c8	8b 78 04	 mov	 edi, DWORD PTR [eax+4]

; 1632 :         while (!_Trynode->_Isnil) {

  008cb	80 7f 0d 00	 cmp	 BYTE PTR [edi+13], 0
  008cf	75 1f		 jne	 SHORT $LN257@ModifyView
  008d1	8b c7		 mov	 eax, edi
$LL256@ModifyView:

; 1633 :             _Result._Location._Parent = _Trynode;

  008d3	8b f8		 mov	 edi, eax
; File C:\Program Files\Microsoft Visual Studio\2022\Professional\VC\Tools\MSVC\14.44.35207\include\type_traits

; 2380 :         return _Left < _Right;

  008d5	39 58 10	 cmp	 DWORD PTR [eax+16], ebx
; File C:\Program Files\Microsoft Visual Studio\2022\Professional\VC\Tools\MSVC\14.44.35207\include\xtree

; 1634 :             if (_DEBUG_LT_PRED(_Getcomp(), _Traits::_Kfn(_Trynode->_Myval), _Keyval)) {

  008d8	73 07		 jae	 SHORT $LN258@ModifyView

; 1635 :                 _Result._Location._Child = _Tree_child::_Right;
; 1636 :                 _Trynode                 = _Trynode->_Right;

  008da	8b 40 08	 mov	 eax, DWORD PTR [eax+8]
  008dd	33 f6		 xor	 esi, esi

; 1637 :             } else {

  008df	eb 09		 jmp	 SHORT $LN259@ModifyView
$LN258@ModifyView:

; 1638 :                 _Result._Location._Child = _Tree_child::_Left;
; 1639 :                 _Result._Bound           = _Trynode;

  008e1	8b c8		 mov	 ecx, eax
  008e3	be 01 00 00 00	 mov	 esi, 1

; 1640 :                 _Trynode                 = _Trynode->_Left;

  008e8	8b 00		 mov	 eax, DWORD PTR [eax]
$LN259@ModifyView:

; 1632 :         while (!_Trynode->_Isnil) {

  008ea	80 78 0d 00	 cmp	 BYTE PTR [eax+13], 0
  008ee	74 e3		 je	 SHORT $LL256@ModifyView
$LN257@ModifyView:

; 1624 :         return !_Bound->_Isnil && !_DEBUG_LT_PRED(_Getcomp(), _Keyval, _Traits::_Kfn(_Bound->_Myval));

  008f0	80 79 0d 00	 cmp	 BYTE PTR [ecx+13], 0
  008f4	75 0a		 jne	 SHORT $LN252@ModifyView
; File C:\Program Files\Microsoft Visual Studio\2022\Professional\VC\Tools\MSVC\14.44.35207\include\type_traits

; 2380 :         return _Left < _Right;

  008f6	3b 59 10	 cmp	 ebx, DWORD PTR [ecx+16]
; File C:\Program Files\Microsoft Visual Studio\2022\Professional\VC\Tools\MSVC\14.44.35207\include\xtree

; 1624 :         return !_Bound->_Isnil && !_DEBUG_LT_PRED(_Getcomp(), _Keyval, _Traits::_Kfn(_Bound->_Myval));

  008f9	72 05		 jb	 SHORT $LN252@ModifyView
; File C:\Program Files\Microsoft Visual Studio\2022\Professional\VC\Tools\MSVC\14.44.35207\include\map

; 199  :             return {_Loc._Bound, false};

  008fb	8b 5d 08	 mov	 ebx, DWORD PTR _pCtrl$[ebp]
  008fe	eb 64		 jmp	 SHORT $LN251@ModifyView
$LN252@ModifyView:
; File C:\Program Files\Microsoft Visual Studio\2022\Professional\VC\Tools\MSVC\14.44.35207\include\xtree

; 1648 :         if (max_size() == _Get_scary()->_Mysize) {

  00900	81 7a 04 aa aa
	aa 0a		 cmp	 DWORD PTR [edx+4], 178956970 ; 0aaaaaaaH
  00907	0f 84 10 07 00
	00		 je	 $LN1148@ModifyView
; File C:\Program Files\Microsoft Visual Studio\2022\Professional\VC\Tools\MSVC\14.44.35207\include\xmemory

; 1160 :     _CONSTEXPR20 explicit _Alloc_construct_ptr(_Alloc& _Al_) : _Al(_Al_), _Ptr(nullptr) {}

  0090d	89 55 98	 mov	 DWORD PTR $T15[ebp], edx

; 136  :         return ::operator new(_Bytes);

  00910	6a 18		 push	 24			; 00000018H
; File C:\Program Files\Microsoft Visual Studio\2022\Professional\VC\Tools\MSVC\14.44.35207\include\xtree

; 808  :     explicit _Tree_temp_node_alloc(_Alnode& _Al_) : _Alloc_construct_ptr<_Alnode>(_Al_) {

  00912	c7 45 fc 04 00
	00 00		 mov	 DWORD PTR __$EHRec$[ebp+8], 4
; File C:\Program Files\Microsoft Visual Studio\2022\Professional\VC\Tools\MSVC\14.44.35207\include\xmemory

; 1167 :         _Ptr = nullptr; // if allocate throws, prevents double-free

  00919	c7 45 9c 00 00
	00 00		 mov	 DWORD PTR $T15[ebp+4], 0

; 136  :         return ::operator new(_Bytes);

  00920	e8 00 00 00 00	 call	 ??2@YAPAXI@Z		; operator new
; File C:\Program Files\Microsoft Visual Studio\2022\Professional\VC\Tools\MSVC\14.44.35207\include\xtree

; 831  :         _Construct_in_place(this->_Ptr->_Left, _Myhead);

  00925	8b 55 e8	 mov	 edx, DWORD PTR __Myhead$1$[ebp]
; File C:\Program Files\Microsoft Visual Studio\2022\Professional\VC\Tools\MSVC\14.44.35207\include\xmemory

; 136  :         return ::operator new(_Bytes);

  00928	83 c4 04	 add	 esp, 4
; File C:\Program Files\Microsoft Visual Studio\2022\Professional\VC\Tools\MSVC\14.44.35207\include\xtree

; 810  :     }

  0092b	c7 45 fc ff ff
	ff ff		 mov	 DWORD PTR __$EHRec$[ebp+8], -1
; File C:\Program Files\Microsoft Visual Studio\2022\Professional\VC\Tools\MSVC\14.44.35207\include\utility

; 774  :     _Val         = static_cast<_Other&&>(_New_val);

  00932	c7 45 9c 00 00
	00 00		 mov	 DWORD PTR $T15[ebp+4], 0

; 478  :         : first(_STD _Tuple_get<_Indices1>(_STD move(_Val1))...),

  00939	89 58 10	 mov	 DWORD PTR [eax+16], ebx
; File C:\Program Files\Microsoft Visual Studio\2022\Professional\VC\Tools\MSVC\14.44.35207\include\map

; 211  :         return {_Scary->_Insert_node(_Loc._Location, _Inserted), true};

  0093c	8b 5d 08	 mov	 ebx, DWORD PTR _pCtrl$[ebp]
; File C:\Program Files\Microsoft Visual Studio\2022\Professional\VC\Tools\MSVC\14.44.35207\include\utility

; 479  :           second(_STD _Tuple_get<_Indices2>(_STD move(_Val2))...) {}

  0093f	c7 40 14 00 00
	00 00		 mov	 DWORD PTR [eax+20], 0
; File C:\Program Files\Microsoft Visual Studio\2022\Professional\VC\Tools\MSVC\14.44.35207\include\map

; 211  :         return {_Scary->_Insert_node(_Loc._Location, _Inserted), true};

  00946	50		 push	 eax
; File C:\Program Files\Microsoft Visual Studio\2022\Professional\VC\Tools\MSVC\14.44.35207\include\xtree

; 831  :         _Construct_in_place(this->_Ptr->_Left, _Myhead);

  00947	89 10		 mov	 DWORD PTR [eax], edx

; 832  :         _Construct_in_place(this->_Ptr->_Parent, _Myhead);

  00949	89 50 04	 mov	 DWORD PTR [eax+4], edx
; File C:\Program Files\Microsoft Visual Studio\2022\Professional\VC\Tools\MSVC\14.44.35207\include\map

; 211  :         return {_Scary->_Insert_node(_Loc._Location, _Inserted), true};

  0094c	8d 8b 68 55 00
	00		 lea	 ecx, DWORD PTR [ebx+21864]
  00952	56		 push	 esi
; File C:\Program Files\Microsoft Visual Studio\2022\Professional\VC\Tools\MSVC\14.44.35207\include\xtree

; 833  :         _Construct_in_place(this->_Ptr->_Right, _Myhead);

  00953	89 50 08	 mov	 DWORD PTR [eax+8], edx
; File C:\Program Files\Microsoft Visual Studio\2022\Professional\VC\Tools\MSVC\14.44.35207\include\map

; 211  :         return {_Scary->_Insert_node(_Loc._Location, _Inserted), true};

  00956	57		 push	 edi
; File C:\Program Files\Microsoft Visual Studio\2022\Professional\VC\Tools\MSVC\14.44.35207\include\xtree

; 834  :         this->_Ptr->_Color = _Red;

  00957	66 c7 40 0c 00
	00		 mov	 WORD PTR [eax+12], 0
; File C:\Program Files\Microsoft Visual Studio\2022\Professional\VC\Tools\MSVC\14.44.35207\include\map

; 211  :         return {_Scary->_Insert_node(_Loc._Location, _Inserted), true};

  0095d	e8 00 00 00 00	 call	 ?_Insert_node@?$_Tree_val@U?$_Tree_simple_types@U?$pair@$$CBKPAVCCtrl@@@std@@@std@@@std@@QAEPAU?$_Tree_node@U?$pair@$$CBKPAVCCtrl@@@std@@PAX@2@U?$_Tree_id@PAU?$_Tree_node@U?$pair@$$CBKPAVCCtrl@@@std@@PAX@std@@@2@QAU32@@Z ; std::_Tree_val<std::_Tree_simple_types<std::pair<unsigned long const ,CCtrl *> > >::_Insert_node
  00962	8b c8		 mov	 ecx, eax
$LN251@ModifyView:
; File C:\IAGOS\server\v18\Source\Source\WorldServer\user.h

; 207  : 	void			NPCSetAt( OBJID objid, CCtrl* pCtrl )	{	m_2npc[objid] = pCtrl;	}

  00964	8b 75 c8	 mov	 esi, DWORD PTR _pCtrltmp$3$[ebp]
  00967	89 71 14	 mov	 DWORD PTR [ecx+20], esi
; File C:\IAGOS\server\v18\Source\Source\WorldServer\LinkMap.cpp

; 522  : 								pUser->AddAddObj( pCtrltmp );

  0096a	8b cb		 mov	 ecx, ebx
  0096c	56		 push	 esi
  0096d	e8 00 00 00 00	 call	 ?AddAddObj@CUser@@QAEXPAVCCtrl@@@Z ; CUser::AddAddObj
; File C:\Program Files\Microsoft Visual Studio\2022\Professional\VC\Tools\MSVC\14.44.35207\include\xtree

; 1630 :         _Tree_find_result<_Nodeptr> _Result{{_Scary->_Myhead->_Parent, _Tree_child::_Right}, _Scary->_Myhead};

  00972	8b 8e 0c 02 00
	00		 mov	 ecx, DWORD PTR [esi+524]
; File C:\IAGOS\server\v18\Source\Source\_Common\Ctrl.h

; 116  : 	m_2pc[ objid ] = (CUser *)pCtrl;

  00978	8d 86 0c 02 00
	00		 lea	 eax, DWORD PTR [esi+524]
; File C:\IAGOS\server\v18\Source\Source\WorldServer\LinkMap.cpp

; 523  : 								pCtrltmp->PCSetAt( pUser->GetId(), (CCtrl*)pUser );

  0097e	8b 9b bc 01 00
	00		 mov	 ebx, DWORD PTR [ebx+444]
; File C:\Program Files\Microsoft Visual Studio\2022\Professional\VC\Tools\MSVC\14.44.35207\include\xtree

; 1630 :         _Tree_find_result<_Nodeptr> _Result{{_Scary->_Myhead->_Parent, _Tree_child::_Right}, _Scary->_Myhead};

  00984	33 f6		 xor	 esi, esi
; File C:\IAGOS\server\v18\Source\Source\_Common\Ctrl.h

; 116  : 	m_2pc[ objid ] = (CUser *)pCtrl;

  00986	89 45 e4	 mov	 DWORD PTR _this$1$[ebp], eax
; File C:\Program Files\Microsoft Visual Studio\2022\Professional\VC\Tools\MSVC\14.44.35207\include\xtree

; 1630 :         _Tree_find_result<_Nodeptr> _Result{{_Scary->_Myhead->_Parent, _Tree_child::_Right}, _Scary->_Myhead};

  00989	89 4d e8	 mov	 DWORD PTR __Myhead$1$[ebp], ecx
  0098c	8b 79 04	 mov	 edi, DWORD PTR [ecx+4]

; 1632 :         while (!_Trynode->_Isnil) {

  0098f	80 7f 0d 00	 cmp	 BYTE PTR [edi+13], 0
  00993	75 22		 jne	 SHORT $LN139@ModifyView
  00995	8b c7		 mov	 eax, edi
$LL138@ModifyView:

; 1633 :             _Result._Location._Parent = _Trynode;

  00997	8b f8		 mov	 edi, eax
; File C:\Program Files\Microsoft Visual Studio\2022\Professional\VC\Tools\MSVC\14.44.35207\include\type_traits

; 2380 :         return _Left < _Right;

  00999	39 58 10	 cmp	 DWORD PTR [eax+16], ebx
; File C:\Program Files\Microsoft Visual Studio\2022\Professional\VC\Tools\MSVC\14.44.35207\include\xtree

; 1634 :             if (_DEBUG_LT_PRED(_Getcomp(), _Traits::_Kfn(_Trynode->_Myval), _Keyval)) {

  0099c	73 07		 jae	 SHORT $LN140@ModifyView

; 1635 :                 _Result._Location._Child = _Tree_child::_Right;
; 1636 :                 _Trynode                 = _Trynode->_Right;

  0099e	8b 40 08	 mov	 eax, DWORD PTR [eax+8]
  009a1	33 f6		 xor	 esi, esi

; 1637 :             } else {

  009a3	eb 09		 jmp	 SHORT $LN141@ModifyView
$LN140@ModifyView:

; 1638 :                 _Result._Location._Child = _Tree_child::_Left;
; 1639 :                 _Result._Bound           = _Trynode;

  009a5	8b c8		 mov	 ecx, eax
  009a7	be 01 00 00 00	 mov	 esi, 1

; 1640 :                 _Trynode                 = _Trynode->_Left;

  009ac	8b 00		 mov	 eax, DWORD PTR [eax]
$LN141@ModifyView:

; 1632 :         while (!_Trynode->_Isnil) {

  009ae	80 78 0d 00	 cmp	 BYTE PTR [eax+13], 0
  009b2	74 e3		 je	 SHORT $LL138@ModifyView
  009b4	8b 45 e4	 mov	 eax, DWORD PTR _this$1$[ebp]
$LN139@ModifyView:

; 1624 :         return !_Bound->_Isnil && !_DEBUG_LT_PRED(_Getcomp(), _Keyval, _Traits::_Kfn(_Bound->_Myval));

  009b7	80 79 0d 00	 cmp	 BYTE PTR [ecx+13], 0
  009bb	75 05		 jne	 SHORT $LN134@ModifyView
; File C:\Program Files\Microsoft Visual Studio\2022\Professional\VC\Tools\MSVC\14.44.35207\include\type_traits

; 2380 :         return _Left < _Right;

  009bd	3b 59 10	 cmp	 ebx, DWORD PTR [ecx+16]
; File C:\Program Files\Microsoft Visual Studio\2022\Professional\VC\Tools\MSVC\14.44.35207\include\xtree

; 1624 :         return !_Bound->_Isnil && !_DEBUG_LT_PRED(_Getcomp(), _Keyval, _Traits::_Kfn(_Bound->_Myval));

  009c0	73 5e		 jae	 SHORT $LN133@ModifyView
$LN134@ModifyView:

; 1648 :         if (max_size() == _Get_scary()->_Mysize) {

  009c2	81 78 04 aa aa
	aa 0a		 cmp	 DWORD PTR [eax+4], 178956970 ; 0aaaaaaaH
  009c9	0f 84 4e 06 00
	00		 je	 $LN1148@ModifyView
; File C:\Program Files\Microsoft Visual Studio\2022\Professional\VC\Tools\MSVC\14.44.35207\include\xmemory

; 1160 :     _CONSTEXPR20 explicit _Alloc_construct_ptr(_Alloc& _Al_) : _Al(_Al_), _Ptr(nullptr) {}

  009cf	89 45 90	 mov	 DWORD PTR $T13[ebp], eax

; 136  :         return ::operator new(_Bytes);

  009d2	6a 18		 push	 24			; 00000018H
; File C:\Program Files\Microsoft Visual Studio\2022\Professional\VC\Tools\MSVC\14.44.35207\include\xtree

; 808  :     explicit _Tree_temp_node_alloc(_Alnode& _Al_) : _Alloc_construct_ptr<_Alnode>(_Al_) {

  009d4	c7 45 fc 05 00
	00 00		 mov	 DWORD PTR __$EHRec$[ebp+8], 5
; File C:\Program Files\Microsoft Visual Studio\2022\Professional\VC\Tools\MSVC\14.44.35207\include\xmemory

; 1167 :         _Ptr = nullptr; // if allocate throws, prevents double-free

  009db	c7 45 94 00 00
	00 00		 mov	 DWORD PTR $T13[ebp+4], 0

; 136  :         return ::operator new(_Bytes);

  009e2	e8 00 00 00 00	 call	 ??2@YAPAXI@Z		; operator new
; File C:\Program Files\Microsoft Visual Studio\2022\Professional\VC\Tools\MSVC\14.44.35207\include\xtree

; 831  :         _Construct_in_place(this->_Ptr->_Left, _Myhead);

  009e7	8b 4d e8	 mov	 ecx, DWORD PTR __Myhead$1$[ebp]
; File C:\Program Files\Microsoft Visual Studio\2022\Professional\VC\Tools\MSVC\14.44.35207\include\xmemory

; 136  :         return ::operator new(_Bytes);

  009ea	83 c4 04	 add	 esp, 4
; File C:\Program Files\Microsoft Visual Studio\2022\Professional\VC\Tools\MSVC\14.44.35207\include\xtree

; 810  :     }

  009ed	c7 45 fc ff ff
	ff ff		 mov	 DWORD PTR __$EHRec$[ebp+8], -1
; File C:\Program Files\Microsoft Visual Studio\2022\Professional\VC\Tools\MSVC\14.44.35207\include\utility

; 774  :     _Val         = static_cast<_Other&&>(_New_val);

  009f4	c7 45 94 00 00
	00 00		 mov	 DWORD PTR $T13[ebp+4], 0

; 478  :         : first(_STD _Tuple_get<_Indices1>(_STD move(_Val1))...),

  009fb	89 58 10	 mov	 DWORD PTR [eax+16], ebx

; 479  :           second(_STD _Tuple_get<_Indices2>(_STD move(_Val2))...) {}

  009fe	c7 40 14 00 00
	00 00		 mov	 DWORD PTR [eax+20], 0
; File C:\Program Files\Microsoft Visual Studio\2022\Professional\VC\Tools\MSVC\14.44.35207\include\xtree

; 831  :         _Construct_in_place(this->_Ptr->_Left, _Myhead);

  00a05	89 08		 mov	 DWORD PTR [eax], ecx
; File C:\Program Files\Microsoft Visual Studio\2022\Professional\VC\Tools\MSVC\14.44.35207\include\map

; 211  :         return {_Scary->_Insert_node(_Loc._Location, _Inserted), true};

  00a07	50		 push	 eax
; File C:\Program Files\Microsoft Visual Studio\2022\Professional\VC\Tools\MSVC\14.44.35207\include\xtree

; 832  :         _Construct_in_place(this->_Ptr->_Parent, _Myhead);

  00a08	89 48 04	 mov	 DWORD PTR [eax+4], ecx

; 833  :         _Construct_in_place(this->_Ptr->_Right, _Myhead);

  00a0b	89 48 08	 mov	 DWORD PTR [eax+8], ecx
; File C:\Program Files\Microsoft Visual Studio\2022\Professional\VC\Tools\MSVC\14.44.35207\include\map

; 211  :         return {_Scary->_Insert_node(_Loc._Location, _Inserted), true};

  00a0e	8b 4d e4	 mov	 ecx, DWORD PTR _this$1$[ebp]
  00a11	56		 push	 esi
  00a12	57		 push	 edi
; File C:\Program Files\Microsoft Visual Studio\2022\Professional\VC\Tools\MSVC\14.44.35207\include\xtree

; 834  :         this->_Ptr->_Color = _Red;

  00a13	66 c7 40 0c 00
	00		 mov	 WORD PTR [eax+12], 0
; File C:\Program Files\Microsoft Visual Studio\2022\Professional\VC\Tools\MSVC\14.44.35207\include\map

; 211  :         return {_Scary->_Insert_node(_Loc._Location, _Inserted), true};

  00a19	e8 00 00 00 00	 call	 ?_Insert_node@?$_Tree_val@U?$_Tree_simple_types@U?$pair@$$CBKPAVCUser@@@std@@@std@@@std@@QAEPAU?$_Tree_node@U?$pair@$$CBKPAVCUser@@@std@@PAX@2@U?$_Tree_id@PAU?$_Tree_node@U?$pair@$$CBKPAVCUser@@@std@@PAX@std@@@2@QAU32@@Z ; std::_Tree_val<std::_Tree_simple_types<std::pair<unsigned long const ,CUser *> > >::_Insert_node
  00a1e	8b c8		 mov	 ecx, eax
$LN133@ModifyView:
; File C:\IAGOS\server\v18\Source\Source\_Common\Ctrl.h

; 116  : 	m_2pc[ objid ] = (CUser *)pCtrl;

  00a20	8b 45 08	 mov	 eax, DWORD PTR _pCtrl$[ebp]
  00a23	89 41 14	 mov	 DWORD PTR [ecx+20], eax
  00a26	8b 45 c8	 mov	 eax, DWORD PTR _pCtrltmp$3$[ebp]
$LN245@ModifyView:
; File C:\IAGOS\server\v18\Source\Source\WorldServer\LinkMap.cpp

; 525  : 							pCtrltmp	= (CCtrl*)pCtrltmp->GetNextNode();

  00a29	8b 80 80 01 00
	00		 mov	 eax, DWORD PTR [eax+384]
  00a2f	89 45 c8	 mov	 DWORD PTR _pCtrltmp$3$[ebp], eax
  00a32	85 c0		 test	 eax, eax
  00a34	0f 85 6c fe ff
	ff		 jne	 $LL43@ModifyView

; 526  : 						}
; 527  : 					}

  00a3a	8b 5d d8	 mov	 ebx, DWORD PTR tv7020[ebp]
  00a3d	8b 75 d4	 mov	 esi, DWORD PTR _j$5$[ebp]
  00a40	8b 7d dc	 mov	 edi, DWORD PTR tv7019[ebp]
  00a43	eb 0a		 jmp	 SHORT $LN1323@ModifyView
$LN98@ModifyView:

; 528  : 					else	// old pos
; 529  : 					{
; 530  : 						pfMask[nMaskPos]	= TRUE;

  00a45	8b 4d ac	 mov	 ecx, DWORD PTR _pfMask$1$[ebp]
  00a48	c7 04 81 01 00
	00 00		 mov	 DWORD PTR [ecx+eax*4], 1
$LN1323@ModifyView:

; 509  : 			{
; 510  : 				for( j = -nVisibilityRange; j <= nVisibilityRange; j++ )

  00a4f	8b 45 f0	 mov	 eax, DWORD PTR _nVisibilityRange$1$[ebp]
  00a52	8b 4d ec	 mov	 ecx, DWORD PTR _nMaxWidth$1$[ebp]
$LN40@ModifyView:
  00a55	46		 inc	 esi
  00a56	43		 inc	 ebx
  00a57	83 c7 04	 add	 edi, 4
  00a5a	89 75 d4	 mov	 DWORD PTR _j$5$[ebp], esi
  00a5d	89 5d d8	 mov	 DWORD PTR tv7020[ebp], ebx
  00a60	89 7d dc	 mov	 DWORD PTR tv7019[ebp], edi
  00a63	3b f0		 cmp	 esi, eax
  00a65	0f 8e 07 fe ff
	ff		 jle	 $LL42@ModifyView

; 508  : 			for( i = -nVisibilityRange; i <= nVisibilityRange; i++ )

  00a6b	8b 4d e0	 mov	 ecx, DWORD PTR _i$7$[ebp]
  00a6e	8b 45 c4	 mov	 eax, DWORD PTR tv7018[ebp]
  00a71	41		 inc	 ecx
  00a72	8b 75 ec	 mov	 esi, DWORD PTR _nMaxWidth$1$[ebp]
  00a75	03 c6		 add	 eax, esi
  00a77	8b 5d f0	 mov	 ebx, DWORD PTR _nVisibilityRange$1$[ebp]
  00a7a	8b 55 cc	 mov	 edx, DWORD PTR _apObj$3$[ebp]
  00a7d	8b 7d d0	 mov	 edi, DWORD PTR _i$8$[ebp]
  00a80	89 4d e0	 mov	 DWORD PTR _i$7$[ebp], ecx
  00a83	89 45 c4	 mov	 DWORD PTR tv7018[ebp], eax
  00a86	89 55 cc	 mov	 DWORD PTR _apObj$3$[ebp], edx
  00a89	3b cb		 cmp	 ecx, ebx
  00a8b	0f 8e c6 fd ff
	ff		 jle	 $LL1326@ModifyView

; 531  : 					}
; 532  : 				}
; 533  : 			}
; 534  : 
; 535  : 			for( i = -nVisibilityRange; i <= nVisibilityRange; i ++ )

  00a91	8b c7		 mov	 eax, edi
  00a93	33 d2		 xor	 edx, edx
  00a95	0f af c6	 imul	 eax, esi
  00a98	8b f3		 mov	 esi, ebx
  00a9a	2b f7		 sub	 esi, edi
  00a9c	89 55 dc	 mov	 DWORD PTR tv7012[ebp], edx
  00a9f	46		 inc	 esi
  00aa0	89 75 e0	 mov	 DWORD PTR tv7119[ebp], esi
  00aa3	89 45 d8	 mov	 DWORD PTR tv7011[ebp], eax
  00aa6	8d 0c 38	 lea	 ecx, DWORD PTR [eax+edi]
  00aa9	89 4d c4	 mov	 DWORD PTR $T19[ebp], ecx
  00aac	0f 1f 40 00	 npad	 4
$LL47@ModifyView:

; 474  : 					}
; 475  : 				}
; 476  : 			}
; 477  : 
; 478  : 			for( i = -nVisibilityRange; i <= nVisibilityRange; i ++ )

  00ab0	8b 75 b4	 mov	 esi, DWORD PTR _nOldCenter$1$[ebp]
  00ab3	8b df		 mov	 ebx, edi
  00ab5	03 c3		 add	 eax, ebx
  00ab7	03 c6		 add	 eax, esi
  00ab9	8d 3c 31	 lea	 edi, DWORD PTR [ecx+esi]
  00abc	8b 4d cc	 mov	 ecx, DWORD PTR _apObj$3$[ebp]
  00abf	89 7d d4	 mov	 DWORD PTR tv7015[ebp], edi
  00ac2	8d 0c 81	 lea	 ecx, DWORD PTR [ecx+eax*4]
  00ac5	8b 45 f0	 mov	 eax, DWORD PTR _nVisibilityRange$1$[ebp]
  00ac8	89 4d e4	 mov	 DWORD PTR tv7014[ebp], ecx
  00acb	0f 1f 44 00 00	 npad	 5
$LL50@ModifyView:

; 538  : 				{
; 539  : 					nPos	= nOldCenter + i * nMaxWidth + j;
; 540  : 					if( nPos < 0 || nPos >= nMaxPos )	continue;

  00ad0	85 ff		 test	 edi, edi
  00ad2	0f 88 91 00 00
	00		 js	 $LN48@ModifyView
  00ad8	3b 7d b0	 cmp	 edi, DWORD PTR _nMaxPos$1$[ebp]
  00adb	0f 8d 88 00 00
	00		 jge	 $LN48@ModifyView

; 541  : 					nMaskPos		= ( i + nVisibilityRange ) * ( 2 * nVisibilityRange + 1 ) + ( j + nVisibilityRange ) ;
; 542  : 					if( pfMask[nMaskPos] == FALSE )

  00ae1	8b 75 ac	 mov	 esi, DWORD PTR _pfMask$1$[ebp]
  00ae4	8d 04 45 01 00
	00 00		 lea	 eax, DWORD PTR [eax*2+1]
  00aeb	0f af c2	 imul	 eax, edx
  00aee	03 c3		 add	 eax, ebx
  00af0	03 45 f0	 add	 eax, DWORD PTR _nVisibilityRange$1$[ebp]
  00af3	83 3c 86 00	 cmp	 DWORD PTR [esi+eax*4], 0
  00af7	75 66		 jne	 SHORT $LN103@ModifyView

; 543  : 					{
; 544  : 						pCtrltmp	= (CCtrl*)apObj[nPos];

  00af9	8b 31		 mov	 esi, DWORD PTR [ecx]

; 545  : 						while( pCtrltmp )

  00afb	85 f6		 test	 esi, esi
  00afd	74 67		 je	 SHORT $LN1324@ModifyView
  00aff	8b 7d 08	 mov	 edi, DWORD PTR _pCtrl$[ebp]
$LL51@ModifyView:
; File C:\IAGOS\server\v18\Source\Source\_Common\Obj.h

; 180  : 	BOOL			IsDelete()	{ return (m_dwFlags & OBJ_FLAG_DELETE);  }

  00b02	f6 46 04 01	 test	 BYTE PTR [esi+4], 1
; File C:\IAGOS\server\v18\Source\Source\WorldServer\LinkMap.cpp

; 547  : 							if( !pCtrltmp->IsDelete() )

  00b06	75 42		 jne	 SHORT $LN105@ModifyView

; 549  : 								pUser->NPCRemoveKey( pCtrltmp->GetId() );

  00b08	8b 86 bc 01 00
	00		 mov	 eax, DWORD PTR [esi+444]
; File C:\IAGOS\server\v18\Source\Source\WorldServer\user.h

; 208  : 	BOOL			NPCRemoveKey( OBJID objid )		{	return m_2npc.erase( objid ) > 0; }

  00b0e	8d 8f 68 55 00
	00		 lea	 ecx, DWORD PTR [edi+21864]
; File C:\IAGOS\server\v18\Source\Source\WorldServer\LinkMap.cpp

; 549  : 								pUser->NPCRemoveKey( pCtrltmp->GetId() );

  00b14	89 45 e8	 mov	 DWORD PTR _objid$[ebp], eax
; File C:\IAGOS\server\v18\Source\Source\WorldServer\user.h

; 208  : 	BOOL			NPCRemoveKey( OBJID objid )		{	return m_2npc.erase( objid ) > 0; }

  00b17	8d 45 e8	 lea	 eax, DWORD PTR _objid$[ebp]
  00b1a	50		 push	 eax
  00b1b	e8 00 00 00 00	 call	 ?erase@?$_Tree@V?$_Tmap_traits@KPAVCCtrl@@U?$less@K@std@@V?$allocator@U?$pair@$$CBKPAVCCtrl@@@std@@@3@$0A@@std@@@std@@QAEIABK@Z ; std::_Tree<std::_Tmap_traits<unsigned long,CCtrl *,std::less<unsigned long>,std::allocator<std::pair<unsigned long const ,CCtrl *> >,0> >::erase

; 253  : 	void			AddRemoveObj( OBJID objid )		{ AddHdr( objid, SNAPSHOTTYPE_DEL_OBJ );	}

  00b20	68 f1 00 00 00	 push	 241			; 000000f1H
  00b25	ff b6 bc 01 00
	00		 push	 DWORD PTR [esi+444]
  00b2b	8b cf		 mov	 ecx, edi
  00b2d	e8 00 00 00 00	 call	 ?AddHdr@CUser@@QAEXKG@Z	; CUser::AddHdr
; File C:\IAGOS\server\v18\Source\Source\WorldServer\LinkMap.cpp

; 551  : 								pCtrltmp->PCRemoveKey( pUser->GetId() );

  00b32	8b 87 bc 01 00
	00		 mov	 eax, DWORD PTR [edi+444]
; File C:\IAGOS\server\v18\Source\Source\_Common\Ctrl.h

; 121  : 	return m_2pc.erase( objid ) > 0;

  00b38	8d 8e 0c 02 00
	00		 lea	 ecx, DWORD PTR [esi+524]
; File C:\IAGOS\server\v18\Source\Source\WorldServer\LinkMap.cpp

; 551  : 								pCtrltmp->PCRemoveKey( pUser->GetId() );

  00b3e	89 45 e8	 mov	 DWORD PTR _objid$[ebp], eax
; File C:\IAGOS\server\v18\Source\Source\_Common\Ctrl.h

; 121  : 	return m_2pc.erase( objid ) > 0;

  00b41	8d 45 e8	 lea	 eax, DWORD PTR _objid$[ebp]
  00b44	50		 push	 eax
  00b45	e8 00 00 00 00	 call	 ?erase@?$_Tree@V?$_Tmap_traits@KPAVCUser@@U?$less@K@std@@V?$allocator@U?$pair@$$CBKPAVCUser@@@std@@@3@$0A@@std@@@std@@QAEIABK@Z ; std::_Tree<std::_Tmap_traits<unsigned long,CUser *,std::less<unsigned long>,std::allocator<std::pair<unsigned long const ,CUser *> >,0> >::erase
$LN105@ModifyView:
; File C:\IAGOS\server\v18\Source\Source\WorldServer\LinkMap.cpp

; 553  : 							pCtrltmp	= (CCtrl*)pCtrltmp->GetNextNode();

  00b4a	8b b6 80 01 00
	00		 mov	 esi, DWORD PTR [esi+384]
  00b50	85 f6		 test	 esi, esi
  00b52	75 ae		 jne	 SHORT $LL51@ModifyView

; 554  : 						}
; 555  : 					}

  00b54	8b 7d d4	 mov	 edi, DWORD PTR tv7015[ebp]
  00b57	8b 4d e4	 mov	 ecx, DWORD PTR tv7014[ebp]
  00b5a	8b 55 dc	 mov	 edx, DWORD PTR tv7012[ebp]
  00b5d	eb 07		 jmp	 SHORT $LN1324@ModifyView
$LN103@ModifyView:

; 556  : 					else
; 557  : 					{
; 558  : 						pfMask[nMaskPos]	= FALSE;

  00b5f	c7 04 86 00 00
	00 00		 mov	 DWORD PTR [esi+eax*4], 0
$LN1324@ModifyView:

; 536  : 			{
; 537  : 				for( j = -nVisibilityRange; j <= nVisibilityRange; j++ )

  00b66	8b 45 f0	 mov	 eax, DWORD PTR _nVisibilityRange$1$[ebp]
$LN48@ModifyView:
  00b69	43		 inc	 ebx
  00b6a	83 c1 04	 add	 ecx, 4
  00b6d	47		 inc	 edi
  00b6e	89 4d e4	 mov	 DWORD PTR tv7014[ebp], ecx
  00b71	89 7d d4	 mov	 DWORD PTR tv7015[ebp], edi
  00b74	3b d8		 cmp	 ebx, eax
  00b76	0f 8e 54 ff ff
	ff		 jle	 $LL50@ModifyView

; 531  : 					}
; 532  : 				}
; 533  : 			}
; 534  : 
; 535  : 			for( i = -nVisibilityRange; i <= nVisibilityRange; i ++ )

  00b7c	8b 5d ec	 mov	 ebx, DWORD PTR _nMaxWidth$1$[ebp]
  00b7f	42		 inc	 edx
  00b80	8b 4d c4	 mov	 ecx, DWORD PTR $T19[ebp]
  00b83	8b 45 d8	 mov	 eax, DWORD PTR tv7011[ebp]
  00b86	8b 7d d0	 mov	 edi, DWORD PTR _i$8$[ebp]
  00b89	03 c3		 add	 eax, ebx
  00b8b	83 6d e0 01	 sub	 DWORD PTR tv7119[ebp], 1
  00b8f	8d 0c 0b	 lea	 ecx, DWORD PTR [ebx+ecx]
  00b92	89 45 d8	 mov	 DWORD PTR tv7011[ebp], eax
  00b95	8b 5d cc	 mov	 ebx, DWORD PTR _apObj$3$[ebp]
  00b98	89 55 dc	 mov	 DWORD PTR tv7012[ebp], edx
  00b9b	89 4d c4	 mov	 DWORD PTR $T19[ebp], ecx
  00b9e	89 5d cc	 mov	 DWORD PTR _apObj$3$[ebp], ebx
  00ba1	0f 85 09 ff ff
	ff		 jne	 $LL47@ModifyView
$LN1268@ModifyView:

; 559  : 					}
; 560  : 				}
; 561  : 			}
; 562  : 			pUser->m_nOldCenter[nLinkLevel]	= nCenter;

  00ba7	8b 4d 08	 mov	 ecx, DWORD PTR _pCtrl$[ebp]
  00baa	8b 75 bc	 mov	 esi, DWORD PTR _nLinkLevel$1$[ebp]
  00bad	8b 45 a8	 mov	 eax, DWORD PTR _nCenter$1$[ebp]
  00bb0	89 84 b1 14 02
	00 00		 mov	 DWORD PTR [ecx+esi*4+532], eax
$LN2@ModifyView:

; 366  : 	{
; 367  : 		pUser	= (CUser*)pCtrl;
; 368  : 		
; 369  : 		for( int nLinkLevel = 0; nLinkLevel < MAX_LINKLEVEL; nLinkLevel++ )

  00bb7	46		 inc	 esi
  00bb8	89 75 bc	 mov	 DWORD PTR _nLinkLevel$1$[ebp], esi
  00bbb	83 fe 07	 cmp	 esi, 7
  00bbe	0f 8d 2f f5 ff
	ff		 jge	 $LN1191@ModifyView
  00bc4	8b 55 c0	 mov	 edx, DWORD PTR _this$1$[ebp]
  00bc7	e9 a4 f4 ff ff	 jmp	 $LL4@ModifyView
$LN72@ModifyView:

; 563  : 		}
; 564  : 	}
; 565  : 	// is not player
; 566  : 	else
; 567  : 	{
; 568  : 		const int nMaxLevel	= 1;
; 569  : 		for( int nLinkLevel = 0; nLinkLevel < nMaxLevel; nLinkLevel++ )

  00bcc	8d 81 14 02 00
	00		 lea	 eax, DWORD PTR [ecx+532]
  00bd2	c7 45 c8 00 00
	00 00		 mov	 DWORD PTR _nLinkLevel$1$[ebp], 0
  00bd9	8d 7a 7c	 lea	 edi, DWORD PTR [edx+124]
  00bdc	89 45 cc	 mov	 DWORD PTR tv6993[ebp], eax
  00bdf	89 7d e8	 mov	 DWORD PTR tv7098[ebp], edi
$LL55@ModifyView:

; 570  : 		{
; 571  : 			apObj	    = GetObj( CObj::linkPlayer, nLinkLevel );

  00be2	8b 47 1c	 mov	 eax, DWORD PTR [edi+28]

; 572  : 			nMaxWidth	= GetLinkWidth( CObj::linkPlayer, nLinkLevel) * m_nLandWidth;

  00be5	8b 1f		 mov	 ebx, DWORD PTR [edi]
  00be7	89 45 ac	 mov	 DWORD PTR _apObj$4$[ebp], eax
  00bea	8b 82 f0 00 00
	00		 mov	 eax, DWORD PTR [edx+240]
  00bf0	0f af d8	 imul	 ebx, eax

; 573  : 			nMaxPos		= nMaxWidth * nMaxWidth;
; 574  : 
; 575  : 			nUnit	    = (MAP_SIZE * m_nLandWidth) / nMaxWidth;

  00bf3	c1 e0 07	 shl	 eax, 7
  00bf6	99		 cdq

; 576  : 			nCenter		= (int)( vPos.z / m_iMPU / nUnit ) * nMaxWidth + (int)( vPos.x / m_iMPU / nUnit );

  00bf7	f3 0f 10 45 84	 movss	 xmm0, DWORD PTR _vPos$[ebp+8]
  00bfc	f7 fb		 idiv	 ebx
  00bfe	8b 55 c0	 mov	 edx, DWORD PTR _this$1$[ebp]
  00c01	8b cb		 mov	 ecx, ebx
  00c03	0f af cb	 imul	 ecx, ebx
  00c06	89 5d ec	 mov	 DWORD PTR _nMaxWidth$2$[ebp], ebx
  00c09	66 0f 6e 92 30
	01 00 00	 movd	 xmm2, DWORD PTR [edx+304]
  00c11	0f 5b d2	 cvtdq2ps xmm2, xmm2

; 577  : 			nOldCenter	= pCtrl->m_nOldCenter[nLinkLevel];

  00c14	8b 55 cc	 mov	 edx, DWORD PTR tv6993[ebp]
  00c17	89 4d b0	 mov	 DWORD PTR _nMaxPos$2$[ebp], ecx
  00c1a	66 0f 6e c8	 movd	 xmm1, eax
  00c1e	f3 0f 5e c2	 divss	 xmm0, xmm2
  00c22	0f 5b c9	 cvtdq2ps xmm1, xmm1
  00c25	f3 0f 5e c1	 divss	 xmm0, xmm1
  00c29	f3 0f 2c f0	 cvttss2si esi, xmm0
  00c2d	f3 0f 10 85 7c
	ff ff ff	 movss	 xmm0, DWORD PTR _vPos$[ebp]
  00c35	f3 0f 5e c2	 divss	 xmm0, xmm2
  00c39	0f af f3	 imul	 esi, ebx
  00c3c	f3 0f 5e c1	 divss	 xmm0, xmm1
  00c40	f3 0f 2c c0	 cvttss2si eax, xmm0
  00c44	03 f0		 add	 esi, eax
  00c46	8b 02		 mov	 eax, DWORD PTR [edx]
  00c48	89 75 f0	 mov	 DWORD PTR _nCenter$2$[ebp], esi
  00c4b	89 45 c4	 mov	 DWORD PTR _nOldCenter$2$[ebp], eax

; 578  : 
; 579  : 			if( nCenter == nOldCenter ) 

  00c4e	3b f0		 cmp	 esi, eax
  00c50	75 10		 jne	 SHORT $LN106@ModifyView

; 580  : 			{
; 581  : 				if( nLinkLevel == 0 )	

  00c52	8b 45 c8	 mov	 eax, DWORD PTR _nLinkLevel$1$[ebp]
  00c55	85 c0		 test	 eax, eax
  00c57	0f 84 96 f4 ff
	ff		 je	 $LN1191@ModifyView

; 582  : 					return;
; 583  : 				continue;

  00c5d	e9 9a 03 00 00	 jmp	 $LN53@ModifyView
$LN106@ModifyView:

; 584  : 			}
; 585  : 	
; 586  : 			nVisibilityRange	= m_nVisibilityRange[nLinkLevel];

  00c62	8b 87 98 00 00
	00		 mov	 eax, DWORD PTR [edi+152]

; 589  : 			for( i = -nVisibilityRange; i <= nVisibilityRange; i++ )

  00c68	8b d8		 mov	 ebx, eax
  00c6a	8b 4f 7c	 mov	 ecx, DWORD PTR [edi+124]
  00c6d	f7 db		 neg	 ebx
  00c6f	89 4d b4	 mov	 DWORD PTR _pfMask$2$[ebp], ecx
  00c72	8b cb		 mov	 ecx, ebx
  00c74	89 45 d0	 mov	 DWORD PTR _nVisibilityRange$2$[ebp], eax
  00c77	89 5d b8	 mov	 DWORD PTR tv7102[ebp], ebx
  00c7a	89 4d dc	 mov	 DWORD PTR _i$9$[ebp], ecx
  00c7d	3b c8		 cmp	 ecx, eax
  00c7f	0f 8f 72 03 00
	00		 jg	 $LN65@ModifyView

; 584  : 			}
; 585  : 	
; 586  : 			nVisibilityRange	= m_nVisibilityRange[nLinkLevel];

  00c85	8b d1		 mov	 edx, ecx
  00c87	8b 4d ec	 mov	 ecx, DWORD PTR _nMaxWidth$2$[ebp]
  00c8a	0f af d1	 imul	 edx, ecx
  00c8d	89 55 e0	 mov	 DWORD PTR tv7006[ebp], edx

; 589  : 			for( i = -nVisibilityRange; i <= nVisibilityRange; i++ )

  00c90	eb 03		 jmp	 SHORT $LN58@ModifyView
$LL1318@ModifyView:
  00c92	8b 4d ec	 mov	 ecx, DWORD PTR _nMaxWidth$2$[ebp]
$LN58@ModifyView:

; 590  : 			{
; 591  : 				for( j = -nVisibilityRange; j <= nVisibilityRange; j++ )

  00c95	8b 45 ac	 mov	 eax, DWORD PTR _apObj$4$[ebp]
  00c98	8b fb		 mov	 edi, ebx
  00c9a	89 7d d4	 mov	 DWORD PTR _j$7$[ebp], edi
  00c9d	8d 1c 3a	 lea	 ebx, DWORD PTR [edx+edi]
  00ca0	03 de		 add	 ebx, esi
  00ca2	89 5d d8	 mov	 DWORD PTR tv7008[ebp], ebx
  00ca5	8d 34 98	 lea	 esi, DWORD PTR [eax+ebx*4]
  00ca8	8b 45 d0	 mov	 eax, DWORD PTR _nVisibilityRange$2$[ebp]
  00cab	89 75 a8	 mov	 DWORD PTR tv7007[ebp], esi
  00cae	66 90		 npad	 2
$LL61@ModifyView:

; 592  : 				{
; 593  : 					nPos	= nCenter + i * nMaxWidth + j;
; 594  : 					if( nPos < 0 || nPos >= nMaxPos )	continue;

  00cb0	85 db		 test	 ebx, ebx
  00cb2	0f 88 d4 01 00
	00		 js	 $LN59@ModifyView
  00cb8	3b 5d b0	 cmp	 ebx, DWORD PTR _nMaxPos$2$[ebp]
  00cbb	0f 8d cb 01 00
	00		 jge	 $LN59@ModifyView

; 595  : 					if( ( nMaskPos = IsOverlapped( nOldCenter, nPos, nVisibilityRange, nMaxWidth ) ) < 0 )

  00cc1	51		 push	 ecx
  00cc2	8b 4d c0	 mov	 ecx, DWORD PTR _this$1$[ebp]
  00cc5	50		 push	 eax
  00cc6	53		 push	 ebx
  00cc7	ff 75 c4	 push	 DWORD PTR _nOldCenter$2$[ebp]
  00cca	e8 00 00 00 00	 call	 ?IsOverlapped@CLinkMap@@AAEHHHHH@Z ; CLinkMap::IsOverlapped
  00ccf	85 c0		 test	 eax, eax
  00cd1	0f 89 c6 02 00
	00		 jns	 $LN110@ModifyView

; 596  : 					{
; 597  : 						pUsertmp	= (CUser*)apObj[nPos];

  00cd7	8b 36		 mov	 esi, DWORD PTR [esi]
  00cd9	89 75 bc	 mov	 DWORD PTR _pUsertmp$3$[ebp], esi

; 598  : 						while( pUsertmp )

  00cdc	85 f6		 test	 esi, esi
  00cde	0f 84 9f 01 00
	00		 je	 $LN1316@ModifyView
$LL62@ModifyView:
; File C:\IAGOS\server\v18\Source\Source\_Common\Obj.h

; 180  : 	BOOL			IsDelete()	{ return (m_dwFlags & OBJ_FLAG_DELETE);  }

  00ce4	f6 46 04 01	 test	 BYTE PTR [esi+4], 1
; File C:\IAGOS\server\v18\Source\Source\WorldServer\LinkMap.cpp

; 600  : 							if( !pUsertmp->IsDelete() )

  00ce8	0f 85 7e 01 00
	00		 jne	 $LN112@ModifyView
; File C:\IAGOS\server\v18\Source\Source\_Common\Ctrl.h

; 116  : 	m_2pc[ objid ] = (CUser *)pCtrl;

  00cee	8b 45 08	 mov	 eax, DWORD PTR _pCtrl$[ebp]
; File C:\Program Files\Microsoft Visual Studio\2022\Professional\VC\Tools\MSVC\14.44.35207\include\xtree

; 1630 :         _Tree_find_result<_Nodeptr> _Result{{_Scary->_Myhead->_Parent, _Tree_child::_Right}, _Scary->_Myhead};

  00cf1	33 ff		 xor	 edi, edi
; File C:\IAGOS\server\v18\Source\Source\WorldServer\LinkMap.cpp

; 602  : 								pCtrl->PCSetAt( pUsertmp->GetId(), (CCtrl*)pUsertmp );

  00cf3	8b 96 bc 01 00
	00		 mov	 edx, DWORD PTR [esi+444]
; File C:\IAGOS\server\v18\Source\Source\_Common\Ctrl.h

; 116  : 	m_2pc[ objid ] = (CUser *)pCtrl;

  00cf9	05 0c 02 00 00	 add	 eax, 524		; 0000020cH
; File C:\IAGOS\server\v18\Source\Source\WorldServer\LinkMap.cpp

; 602  : 								pCtrl->PCSetAt( pUsertmp->GetId(), (CCtrl*)pUsertmp );

  00cfe	89 55 a4	 mov	 DWORD PTR _objid$1$[ebp], edx
; File C:\IAGOS\server\v18\Source\Source\_Common\Ctrl.h

; 116  : 	m_2pc[ objid ] = (CUser *)pCtrl;

  00d01	89 45 e4	 mov	 DWORD PTR _this$1$[ebp], eax
; File C:\Program Files\Microsoft Visual Studio\2022\Professional\VC\Tools\MSVC\14.44.35207\include\xtree

; 1630 :         _Tree_find_result<_Nodeptr> _Result{{_Scary->_Myhead->_Parent, _Tree_child::_Right}, _Scary->_Myhead};

  00d04	8b 08		 mov	 ecx, DWORD PTR [eax]
  00d06	8b 59 04	 mov	 ebx, DWORD PTR [ecx+4]

; 1632 :         while (!_Trynode->_Isnil) {

  00d09	80 7b 0d 00	 cmp	 BYTE PTR [ebx+13], 0
  00d0d	75 22		 jne	 SHORT $LN640@ModifyView
; File C:\IAGOS\server\v18\Source\Source\WorldServer\LinkMap.cpp

; 589  : 			for( i = -nVisibilityRange; i <= nVisibilityRange; i++ )

  00d0f	8b c3		 mov	 eax, ebx
$LL639@ModifyView:
; File C:\Program Files\Microsoft Visual Studio\2022\Professional\VC\Tools\MSVC\14.44.35207\include\xtree

; 1633 :             _Result._Location._Parent = _Trynode;

  00d11	8b d8		 mov	 ebx, eax
; File C:\Program Files\Microsoft Visual Studio\2022\Professional\VC\Tools\MSVC\14.44.35207\include\type_traits

; 2380 :         return _Left < _Right;

  00d13	39 50 10	 cmp	 DWORD PTR [eax+16], edx
; File C:\Program Files\Microsoft Visual Studio\2022\Professional\VC\Tools\MSVC\14.44.35207\include\xtree

; 1634 :             if (_DEBUG_LT_PRED(_Getcomp(), _Traits::_Kfn(_Trynode->_Myval), _Keyval)) {

  00d16	73 07		 jae	 SHORT $LN641@ModifyView

; 1635 :                 _Result._Location._Child = _Tree_child::_Right;
; 1636 :                 _Trynode                 = _Trynode->_Right;

  00d18	8b 40 08	 mov	 eax, DWORD PTR [eax+8]
  00d1b	33 ff		 xor	 edi, edi

; 1637 :             } else {

  00d1d	eb 09		 jmp	 SHORT $LN642@ModifyView
$LN641@ModifyView:

; 1638 :                 _Result._Location._Child = _Tree_child::_Left;
; 1639 :                 _Result._Bound           = _Trynode;

  00d1f	8b c8		 mov	 ecx, eax
  00d21	bf 01 00 00 00	 mov	 edi, 1

; 1640 :                 _Trynode                 = _Trynode->_Left;

  00d26	8b 00		 mov	 eax, DWORD PTR [eax]
$LN642@ModifyView:

; 1632 :         while (!_Trynode->_Isnil) {

  00d28	80 78 0d 00	 cmp	 BYTE PTR [eax+13], 0
  00d2c	74 e3		 je	 SHORT $LL639@ModifyView
  00d2e	8b 45 e4	 mov	 eax, DWORD PTR _this$1$[ebp]
$LN640@ModifyView:

; 1624 :         return !_Bound->_Isnil && !_DEBUG_LT_PRED(_Getcomp(), _Keyval, _Traits::_Kfn(_Bound->_Myval));

  00d31	80 79 0d 00	 cmp	 BYTE PTR [ecx+13], 0
  00d35	75 05		 jne	 SHORT $LN635@ModifyView
; File C:\Program Files\Microsoft Visual Studio\2022\Professional\VC\Tools\MSVC\14.44.35207\include\type_traits

; 2380 :         return _Left < _Right;

  00d37	3b 51 10	 cmp	 edx, DWORD PTR [ecx+16]
; File C:\Program Files\Microsoft Visual Studio\2022\Professional\VC\Tools\MSVC\14.44.35207\include\xtree

; 1624 :         return !_Bound->_Isnil && !_DEBUG_LT_PRED(_Getcomp(), _Keyval, _Traits::_Kfn(_Bound->_Myval));

  00d3a	73 63		 jae	 SHORT $LN634@ModifyView
$LN635@ModifyView:

; 1648 :         if (max_size() == _Get_scary()->_Mysize) {

  00d3c	81 78 04 aa aa
	aa 0a		 cmp	 DWORD PTR [eax+4], 178956970 ; 0aaaaaaaH
  00d43	0f 84 d4 02 00
	00		 je	 $LN1148@ModifyView
; File C:\Program Files\Microsoft Visual Studio\2022\Professional\VC\Tools\MSVC\14.44.35207\include\map

; 205  :         const auto _Inserted = _Tree_temp_node<_Alnode>(_Mybase::_Getal(), _Scary->_Myhead, piecewise_construct,

  00d49	8b 30		 mov	 esi, DWORD PTR [eax]
; File C:\Program Files\Microsoft Visual Studio\2022\Professional\VC\Tools\MSVC\14.44.35207\include\xmemory

; 1160 :     _CONSTEXPR20 explicit _Alloc_construct_ptr(_Alloc& _Al_) : _Al(_Al_), _Ptr(nullptr) {}

  00d4b	89 45 90	 mov	 DWORD PTR $T14[ebp], eax

; 136  :         return ::operator new(_Bytes);

  00d4e	6a 18		 push	 24			; 00000018H
; File C:\Program Files\Microsoft Visual Studio\2022\Professional\VC\Tools\MSVC\14.44.35207\include\xtree

; 808  :     explicit _Tree_temp_node_alloc(_Alnode& _Al_) : _Alloc_construct_ptr<_Alnode>(_Al_) {

  00d50	c7 45 fc 06 00
	00 00		 mov	 DWORD PTR __$EHRec$[ebp+8], 6
; File C:\Program Files\Microsoft Visual Studio\2022\Professional\VC\Tools\MSVC\14.44.35207\include\xmemory

; 1167 :         _Ptr = nullptr; // if allocate throws, prevents double-free

  00d57	c7 45 94 00 00
	00 00		 mov	 DWORD PTR $T14[ebp+4], 0

; 136  :         return ::operator new(_Bytes);

  00d5e	e8 00 00 00 00	 call	 ??2@YAPAXI@Z		; operator new
; File C:\Program Files\Microsoft Visual Studio\2022\Professional\VC\Tools\MSVC\14.44.35207\include\utility

; 478  :         : first(_STD _Tuple_get<_Indices1>(_STD move(_Val1))...),

  00d63	8b 4d a4	 mov	 ecx, DWORD PTR _objid$1$[ebp]
; File C:\Program Files\Microsoft Visual Studio\2022\Professional\VC\Tools\MSVC\14.44.35207\include\xmemory

; 136  :         return ::operator new(_Bytes);

  00d66	83 c4 04	 add	 esp, 4
; File C:\Program Files\Microsoft Visual Studio\2022\Professional\VC\Tools\MSVC\14.44.35207\include\xtree

; 810  :     }

  00d69	c7 45 fc ff ff
	ff ff		 mov	 DWORD PTR __$EHRec$[ebp+8], -1
; File C:\Program Files\Microsoft Visual Studio\2022\Professional\VC\Tools\MSVC\14.44.35207\include\utility

; 774  :     _Val         = static_cast<_Other&&>(_New_val);

  00d70	c7 45 94 00 00
	00 00		 mov	 DWORD PTR $T14[ebp+4], 0

; 478  :         : first(_STD _Tuple_get<_Indices1>(_STD move(_Val1))...),

  00d77	89 48 10	 mov	 DWORD PTR [eax+16], ecx
; File C:\Program Files\Microsoft Visual Studio\2022\Professional\VC\Tools\MSVC\14.44.35207\include\map

; 211  :         return {_Scary->_Insert_node(_Loc._Location, _Inserted), true};

  00d7a	8b 4d e4	 mov	 ecx, DWORD PTR _this$1$[ebp]
; File C:\Program Files\Microsoft Visual Studio\2022\Professional\VC\Tools\MSVC\14.44.35207\include\utility

; 479  :           second(_STD _Tuple_get<_Indices2>(_STD move(_Val2))...) {}

  00d7d	c7 40 14 00 00
	00 00		 mov	 DWORD PTR [eax+20], 0
; File C:\Program Files\Microsoft Visual Studio\2022\Professional\VC\Tools\MSVC\14.44.35207\include\map

; 211  :         return {_Scary->_Insert_node(_Loc._Location, _Inserted), true};

  00d84	50		 push	 eax
; File C:\Program Files\Microsoft Visual Studio\2022\Professional\VC\Tools\MSVC\14.44.35207\include\xtree

; 831  :         _Construct_in_place(this->_Ptr->_Left, _Myhead);

  00d85	89 30		 mov	 DWORD PTR [eax], esi

; 832  :         _Construct_in_place(this->_Ptr->_Parent, _Myhead);

  00d87	89 70 04	 mov	 DWORD PTR [eax+4], esi
; File C:\Program Files\Microsoft Visual Studio\2022\Professional\VC\Tools\MSVC\14.44.35207\include\map

; 211  :         return {_Scary->_Insert_node(_Loc._Location, _Inserted), true};

  00d8a	57		 push	 edi
; File C:\Program Files\Microsoft Visual Studio\2022\Professional\VC\Tools\MSVC\14.44.35207\include\xtree

; 833  :         _Construct_in_place(this->_Ptr->_Right, _Myhead);

  00d8b	89 70 08	 mov	 DWORD PTR [eax+8], esi
; File C:\Program Files\Microsoft Visual Studio\2022\Professional\VC\Tools\MSVC\14.44.35207\include\map

; 211  :         return {_Scary->_Insert_node(_Loc._Location, _Inserted), true};

  00d8e	53		 push	 ebx
; File C:\Program Files\Microsoft Visual Studio\2022\Professional\VC\Tools\MSVC\14.44.35207\include\xtree

; 834  :         this->_Ptr->_Color = _Red;

  00d8f	66 c7 40 0c 00
	00		 mov	 WORD PTR [eax+12], 0
; File C:\Program Files\Microsoft Visual Studio\2022\Professional\VC\Tools\MSVC\14.44.35207\include\map

; 211  :         return {_Scary->_Insert_node(_Loc._Location, _Inserted), true};

  00d95	e8 00 00 00 00	 call	 ?_Insert_node@?$_Tree_val@U?$_Tree_simple_types@U?$pair@$$CBKPAVCUser@@@std@@@std@@@std@@QAEPAU?$_Tree_node@U?$pair@$$CBKPAVCUser@@@std@@PAX@2@U?$_Tree_id@PAU?$_Tree_node@U?$pair@$$CBKPAVCUser@@@std@@PAX@std@@@2@QAU32@@Z ; std::_Tree_val<std::_Tree_simple_types<std::pair<unsigned long const ,CUser *> > >::_Insert_node
  00d9a	8b 75 bc	 mov	 esi, DWORD PTR _pUsertmp$3$[ebp]
  00d9d	8b c8		 mov	 ecx, eax
$LN634@ModifyView:
; File C:\IAGOS\server\v18\Source\Source\WorldServer\LinkMap.cpp

; 603  : 								pUsertmp->NPCSetAt( pCtrl->GetId(), pCtrl );

  00d9f	8b 45 08	 mov	 eax, DWORD PTR _pCtrl$[ebp]
; File C:\Program Files\Microsoft Visual Studio\2022\Professional\VC\Tools\MSVC\14.44.35207\include\xtree

; 1630 :         _Tree_find_result<_Nodeptr> _Result{{_Scary->_Myhead->_Parent, _Tree_child::_Right}, _Scary->_Myhead};

  00da2	33 ff		 xor	 edi, edi
; File C:\IAGOS\server\v18\Source\Source\_Common\Ctrl.h

; 116  : 	m_2pc[ objid ] = (CUser *)pCtrl;

  00da4	89 71 14	 mov	 DWORD PTR [ecx+20], esi
; File C:\Program Files\Microsoft Visual Studio\2022\Professional\VC\Tools\MSVC\14.44.35207\include\xtree

; 1630 :         _Tree_find_result<_Nodeptr> _Result{{_Scary->_Myhead->_Parent, _Tree_child::_Right}, _Scary->_Myhead};

  00da7	8b 8e 68 55 00
	00		 mov	 ecx, DWORD PTR [esi+21864]
; File C:\IAGOS\server\v18\Source\Source\WorldServer\LinkMap.cpp

; 603  : 								pUsertmp->NPCSetAt( pCtrl->GetId(), pCtrl );

  00dad	8b 90 bc 01 00
	00		 mov	 edx, DWORD PTR [eax+444]
; File C:\IAGOS\server\v18\Source\Source\WorldServer\user.h

; 207  : 	void			NPCSetAt( OBJID objid, CCtrl* pCtrl )	{	m_2npc[objid] = pCtrl;	}

  00db3	8d 86 68 55 00
	00		 lea	 eax, DWORD PTR [esi+21864]
; File C:\IAGOS\server\v18\Source\Source\WorldServer\LinkMap.cpp

; 603  : 								pUsertmp->NPCSetAt( pCtrl->GetId(), pCtrl );

  00db9	89 55 a4	 mov	 DWORD PTR _objid$1$[ebp], edx
; File C:\Program Files\Microsoft Visual Studio\2022\Professional\VC\Tools\MSVC\14.44.35207\include\xtree

; 1630 :         _Tree_find_result<_Nodeptr> _Result{{_Scary->_Myhead->_Parent, _Tree_child::_Right}, _Scary->_Myhead};

  00dbc	8b 59 04	 mov	 ebx, DWORD PTR [ecx+4]
; File C:\IAGOS\server\v18\Source\Source\WorldServer\user.h

; 207  : 	void			NPCSetAt( OBJID objid, CCtrl* pCtrl )	{	m_2npc[objid] = pCtrl;	}

  00dbf	89 45 e4	 mov	 DWORD PTR _this$1$[ebp], eax
; File C:\Program Files\Microsoft Visual Studio\2022\Professional\VC\Tools\MSVC\14.44.35207\include\xtree

; 1632 :         while (!_Trynode->_Isnil) {

  00dc2	80 7b 0d 00	 cmp	 BYTE PTR [ebx+13], 0
  00dc6	75 28		 jne	 SHORT $LN757@ModifyView
; File C:\IAGOS\server\v18\Source\Source\WorldServer\LinkMap.cpp

; 589  : 			for( i = -nVisibilityRange; i <= nVisibilityRange; i++ )

  00dc8	8b c3		 mov	 eax, ebx
  00dca	66 0f 1f 44 00
	00		 npad	 6
$LL756@ModifyView:
; File C:\Program Files\Microsoft Visual Studio\2022\Professional\VC\Tools\MSVC\14.44.35207\include\xtree

; 1633 :             _Result._Location._Parent = _Trynode;

  00dd0	8b d8		 mov	 ebx, eax
; File C:\Program Files\Microsoft Visual Studio\2022\Professional\VC\Tools\MSVC\14.44.35207\include\type_traits

; 2380 :         return _Left < _Right;

  00dd2	39 50 10	 cmp	 DWORD PTR [eax+16], edx
; File C:\Program Files\Microsoft Visual Studio\2022\Professional\VC\Tools\MSVC\14.44.35207\include\xtree

; 1634 :             if (_DEBUG_LT_PRED(_Getcomp(), _Traits::_Kfn(_Trynode->_Myval), _Keyval)) {

  00dd5	73 07		 jae	 SHORT $LN758@ModifyView

; 1635 :                 _Result._Location._Child = _Tree_child::_Right;
; 1636 :                 _Trynode                 = _Trynode->_Right;

  00dd7	8b 40 08	 mov	 eax, DWORD PTR [eax+8]
  00dda	33 ff		 xor	 edi, edi

; 1637 :             } else {

  00ddc	eb 09		 jmp	 SHORT $LN759@ModifyView
$LN758@ModifyView:

; 1638 :                 _Result._Location._Child = _Tree_child::_Left;
; 1639 :                 _Result._Bound           = _Trynode;

  00dde	8b c8		 mov	 ecx, eax
  00de0	bf 01 00 00 00	 mov	 edi, 1

; 1640 :                 _Trynode                 = _Trynode->_Left;

  00de5	8b 00		 mov	 eax, DWORD PTR [eax]
$LN759@ModifyView:

; 1632 :         while (!_Trynode->_Isnil) {

  00de7	80 78 0d 00	 cmp	 BYTE PTR [eax+13], 0
  00deb	74 e3		 je	 SHORT $LL756@ModifyView
  00ded	8b 45 e4	 mov	 eax, DWORD PTR _this$1$[ebp]
$LN757@ModifyView:

; 1624 :         return !_Bound->_Isnil && !_DEBUG_LT_PRED(_Getcomp(), _Keyval, _Traits::_Kfn(_Bound->_Myval));

  00df0	80 79 0d 00	 cmp	 BYTE PTR [ecx+13], 0
  00df4	75 05		 jne	 SHORT $LN752@ModifyView
; File C:\Program Files\Microsoft Visual Studio\2022\Professional\VC\Tools\MSVC\14.44.35207\include\type_traits

; 2380 :         return _Left < _Right;

  00df6	3b 51 10	 cmp	 edx, DWORD PTR [ecx+16]
; File C:\Program Files\Microsoft Visual Studio\2022\Professional\VC\Tools\MSVC\14.44.35207\include\xtree

; 1624 :         return !_Bound->_Isnil && !_DEBUG_LT_PRED(_Getcomp(), _Keyval, _Traits::_Kfn(_Bound->_Myval));

  00df9	73 63		 jae	 SHORT $LN751@ModifyView
$LN752@ModifyView:

; 1648 :         if (max_size() == _Get_scary()->_Mysize) {

  00dfb	81 78 04 aa aa
	aa 0a		 cmp	 DWORD PTR [eax+4], 178956970 ; 0aaaaaaaH
  00e02	0f 84 15 02 00
	00		 je	 $LN1148@ModifyView
; File C:\Program Files\Microsoft Visual Studio\2022\Professional\VC\Tools\MSVC\14.44.35207\include\map

; 205  :         const auto _Inserted = _Tree_temp_node<_Alnode>(_Mybase::_Getal(), _Scary->_Myhead, piecewise_construct,

  00e08	8b 30		 mov	 esi, DWORD PTR [eax]
; File C:\Program Files\Microsoft Visual Studio\2022\Professional\VC\Tools\MSVC\14.44.35207\include\xmemory

; 1160 :     _CONSTEXPR20 explicit _Alloc_construct_ptr(_Alloc& _Al_) : _Al(_Al_), _Ptr(nullptr) {}

  00e0a	89 45 98	 mov	 DWORD PTR $T16[ebp], eax

; 136  :         return ::operator new(_Bytes);

  00e0d	6a 18		 push	 24			; 00000018H
; File C:\Program Files\Microsoft Visual Studio\2022\Professional\VC\Tools\MSVC\14.44.35207\include\xtree

; 808  :     explicit _Tree_temp_node_alloc(_Alnode& _Al_) : _Alloc_construct_ptr<_Alnode>(_Al_) {

  00e0f	c7 45 fc 07 00
	00 00		 mov	 DWORD PTR __$EHRec$[ebp+8], 7
; File C:\Program Files\Microsoft Visual Studio\2022\Professional\VC\Tools\MSVC\14.44.35207\include\xmemory

; 1167 :         _Ptr = nullptr; // if allocate throws, prevents double-free

  00e16	c7 45 9c 00 00
	00 00		 mov	 DWORD PTR $T16[ebp+4], 0

; 136  :         return ::operator new(_Bytes);

  00e1d	e8 00 00 00 00	 call	 ??2@YAPAXI@Z		; operator new
; File C:\Program Files\Microsoft Visual Studio\2022\Professional\VC\Tools\MSVC\14.44.35207\include\utility

; 478  :         : first(_STD _Tuple_get<_Indices1>(_STD move(_Val1))...),

  00e22	8b 4d a4	 mov	 ecx, DWORD PTR _objid$1$[ebp]
; File C:\Program Files\Microsoft Visual Studio\2022\Professional\VC\Tools\MSVC\14.44.35207\include\xmemory

; 136  :         return ::operator new(_Bytes);

  00e25	83 c4 04	 add	 esp, 4
; File C:\Program Files\Microsoft Visual Studio\2022\Professional\VC\Tools\MSVC\14.44.35207\include\xtree

; 810  :     }

  00e28	c7 45 fc ff ff
	ff ff		 mov	 DWORD PTR __$EHRec$[ebp+8], -1
; File C:\Program Files\Microsoft Visual Studio\2022\Professional\VC\Tools\MSVC\14.44.35207\include\utility

; 774  :     _Val         = static_cast<_Other&&>(_New_val);

  00e2f	c7 45 9c 00 00
	00 00		 mov	 DWORD PTR $T16[ebp+4], 0

; 478  :         : first(_STD _Tuple_get<_Indices1>(_STD move(_Val1))...),

  00e36	89 48 10	 mov	 DWORD PTR [eax+16], ecx
; File C:\Program Files\Microsoft Visual Studio\2022\Professional\VC\Tools\MSVC\14.44.35207\include\map

; 211  :         return {_Scary->_Insert_node(_Loc._Location, _Inserted), true};

  00e39	8b 4d e4	 mov	 ecx, DWORD PTR _this$1$[ebp]
; File C:\Program Files\Microsoft Visual Studio\2022\Professional\VC\Tools\MSVC\14.44.35207\include\utility

; 479  :           second(_STD _Tuple_get<_Indices2>(_STD move(_Val2))...) {}

  00e3c	c7 40 14 00 00
	00 00		 mov	 DWORD PTR [eax+20], 0
; File C:\Program Files\Microsoft Visual Studio\2022\Professional\VC\Tools\MSVC\14.44.35207\include\map

; 211  :         return {_Scary->_Insert_node(_Loc._Location, _Inserted), true};

  00e43	50		 push	 eax
; File C:\Program Files\Microsoft Visual Studio\2022\Professional\VC\Tools\MSVC\14.44.35207\include\xtree

; 831  :         _Construct_in_place(this->_Ptr->_Left, _Myhead);

  00e44	89 30		 mov	 DWORD PTR [eax], esi

; 832  :         _Construct_in_place(this->_Ptr->_Parent, _Myhead);

  00e46	89 70 04	 mov	 DWORD PTR [eax+4], esi
; File C:\Program Files\Microsoft Visual Studio\2022\Professional\VC\Tools\MSVC\14.44.35207\include\map

; 211  :         return {_Scary->_Insert_node(_Loc._Location, _Inserted), true};

  00e49	57		 push	 edi
; File C:\Program Files\Microsoft Visual Studio\2022\Professional\VC\Tools\MSVC\14.44.35207\include\xtree

; 833  :         _Construct_in_place(this->_Ptr->_Right, _Myhead);

  00e4a	89 70 08	 mov	 DWORD PTR [eax+8], esi
; File C:\Program Files\Microsoft Visual Studio\2022\Professional\VC\Tools\MSVC\14.44.35207\include\map

; 211  :         return {_Scary->_Insert_node(_Loc._Location, _Inserted), true};

  00e4d	53		 push	 ebx
; File C:\Program Files\Microsoft Visual Studio\2022\Professional\VC\Tools\MSVC\14.44.35207\include\xtree

; 834  :         this->_Ptr->_Color = _Red;

  00e4e	66 c7 40 0c 00
	00		 mov	 WORD PTR [eax+12], 0
; File C:\Program Files\Microsoft Visual Studio\2022\Professional\VC\Tools\MSVC\14.44.35207\include\map

; 211  :         return {_Scary->_Insert_node(_Loc._Location, _Inserted), true};

  00e54	e8 00 00 00 00	 call	 ?_Insert_node@?$_Tree_val@U?$_Tree_simple_types@U?$pair@$$CBKPAVCCtrl@@@std@@@std@@@std@@QAEPAU?$_Tree_node@U?$pair@$$CBKPAVCCtrl@@@std@@PAX@2@U?$_Tree_id@PAU?$_Tree_node@U?$pair@$$CBKPAVCCtrl@@@std@@PAX@std@@@2@QAU32@@Z ; std::_Tree_val<std::_Tree_simple_types<std::pair<unsigned long const ,CCtrl *> > >::_Insert_node
  00e59	8b 75 bc	 mov	 esi, DWORD PTR _pUsertmp$3$[ebp]
  00e5c	8b c8		 mov	 ecx, eax
$LN751@ModifyView:
; File C:\IAGOS\server\v18\Source\Source\WorldServer\user.h

; 207  : 	void			NPCSetAt( OBJID objid, CCtrl* pCtrl )	{	m_2npc[objid] = pCtrl;	}

  00e5e	8b 45 08	 mov	 eax, DWORD PTR _pCtrl$[ebp]
  00e61	89 41 14	 mov	 DWORD PTR [ecx+20], eax
; File C:\IAGOS\server\v18\Source\Source\WorldServer\LinkMap.cpp

; 604  : 								pUsertmp->AddAddObj( pCtrl );

  00e64	8b ce		 mov	 ecx, esi
  00e66	50		 push	 eax
  00e67	e8 00 00 00 00	 call	 ?AddAddObj@CUser@@QAEXPAVCCtrl@@@Z ; CUser::AddAddObj
$LN112@ModifyView:

; 605  : 							}
; 606  : 							pUsertmp	= (CUser*)pUsertmp->GetNextNode();

  00e6c	8b b6 80 01 00
	00		 mov	 esi, DWORD PTR [esi+384]
  00e72	89 75 bc	 mov	 DWORD PTR _pUsertmp$3$[ebp], esi
  00e75	85 f6		 test	 esi, esi
  00e77	0f 85 67 fe ff
	ff		 jne	 $LL62@ModifyView

; 607  : 						}
; 608  : 					}

  00e7d	8b 5d d8	 mov	 ebx, DWORD PTR tv7008[ebp]
  00e80	8b 7d d4	 mov	 edi, DWORD PTR _j$7$[ebp]
$LN1316@ModifyView:

; 590  : 			{
; 591  : 				for( j = -nVisibilityRange; j <= nVisibilityRange; j++ )

  00e83	8b 75 a8	 mov	 esi, DWORD PTR tv7007[ebp]
$LN1329@ModifyView:
  00e86	8b 45 d0	 mov	 eax, DWORD PTR _nVisibilityRange$2$[ebp]
  00e89	8b 4d ec	 mov	 ecx, DWORD PTR _nMaxWidth$2$[ebp]
$LN59@ModifyView:
  00e8c	47		 inc	 edi
  00e8d	43		 inc	 ebx
  00e8e	83 c6 04	 add	 esi, 4
  00e91	89 7d d4	 mov	 DWORD PTR _j$7$[ebp], edi
  00e94	89 5d d8	 mov	 DWORD PTR tv7008[ebp], ebx
  00e97	89 75 a8	 mov	 DWORD PTR tv7007[ebp], esi
  00e9a	3b f8		 cmp	 edi, eax
  00e9c	0f 8e 0e fe ff
	ff		 jle	 $LL61@ModifyView

; 589  : 			for( i = -nVisibilityRange; i <= nVisibilityRange; i++ )

  00ea2	8b 4d dc	 mov	 ecx, DWORD PTR _i$9$[ebp]
  00ea5	8b 55 e0	 mov	 edx, DWORD PTR tv7006[ebp]
  00ea8	41		 inc	 ecx
  00ea9	8b 7d ec	 mov	 edi, DWORD PTR _nMaxWidth$2$[ebp]
  00eac	03 d7		 add	 edx, edi
  00eae	8b 5d b8	 mov	 ebx, DWORD PTR tv7102[ebp]
  00eb1	8b 75 f0	 mov	 esi, DWORD PTR _nCenter$2$[ebp]
  00eb4	89 4d dc	 mov	 DWORD PTR _i$9$[ebp], ecx
  00eb7	89 55 e0	 mov	 DWORD PTR tv7006[ebp], edx
  00eba	3b c8		 cmp	 ecx, eax
  00ebc	0f 8e d0 fd ff
	ff		 jle	 $LL1318@ModifyView

; 612  : 					}
; 613  : 				}
; 614  : 			}
; 615  : 
; 616  : 			for( i = -nVisibilityRange; i <= nVisibilityRange; i ++ )

  00ec2	8b 75 d0	 mov	 esi, DWORD PTR _nVisibilityRange$2$[ebp]
  00ec5	f7 d8		 neg	 eax
  00ec7	8b c8		 mov	 ecx, eax
  00ec9	8b de		 mov	 ebx, esi
  00ecb	0f af cf	 imul	 ecx, edi
  00ece	f7 db		 neg	 ebx
  00ed0	2b f0		 sub	 esi, eax
  00ed2	89 5d a4	 mov	 DWORD PTR tv7109[ebp], ebx
  00ed5	33 d2		 xor	 edx, edx
  00ed7	46		 inc	 esi
  00ed8	89 55 dc	 mov	 DWORD PTR tv7002[ebp], edx
  00edb	89 75 e0	 mov	 DWORD PTR tv7085[ebp], esi
  00ede	89 4d d8	 mov	 DWORD PTR tv7001[ebp], ecx
  00ee1	8d 04 0b	 lea	 eax, DWORD PTR [ebx+ecx]
  00ee4	89 45 bc	 mov	 DWORD PTR $T18[ebp], eax
$LL66@ModifyView:

; 617  : 			{
; 618  : 				for( j = -nVisibilityRange; j <= nVisibilityRange; j++ )

  00ee7	8b 75 c4	 mov	 esi, DWORD PTR _nOldCenter$2$[ebp]
  00eea	8d 3c 30	 lea	 edi, DWORD PTR [eax+esi]
  00eed	8d 04 19	 lea	 eax, DWORD PTR [ecx+ebx]
  00ef0	89 7d d4	 mov	 DWORD PTR tv7004[ebp], edi
  00ef3	8b 4d ac	 mov	 ecx, DWORD PTR _apObj$4$[ebp]
  00ef6	03 c6		 add	 eax, esi
  00ef8	8d 0c 81	 lea	 ecx, DWORD PTR [ecx+eax*4]
  00efb	8b 45 d0	 mov	 eax, DWORD PTR _nVisibilityRange$2$[ebp]
  00efe	89 4d e4	 mov	 DWORD PTR tv7003[ebp], ecx
$LL69@ModifyView:

; 619  : 				{
; 620  : 					nPos	= nOldCenter + i * nMaxWidth + j;
; 621  : 					if( nPos < 0 || nPos >= nMaxPos )	continue;

  00f01	85 ff		 test	 edi, edi
  00f03	0f 88 ad 00 00
	00		 js	 $LN67@ModifyView
  00f09	3b 7d b0	 cmp	 edi, DWORD PTR _nMaxPos$2$[ebp]
  00f0c	0f 8d a4 00 00
	00		 jge	 $LN67@ModifyView

; 622  : 					nMaskPos		= ( i + nVisibilityRange ) * ( 2 * nVisibilityRange + 1 ) + ( j + nVisibilityRange ) ;
; 623  : 					if( pfMask[nMaskPos] == FALSE )

  00f12	8b 75 b4	 mov	 esi, DWORD PTR _pfMask$2$[ebp]
  00f15	8d 04 45 01 00
	00 00		 lea	 eax, DWORD PTR [eax*2+1]
  00f1c	0f af c2	 imul	 eax, edx
  00f1f	03 c3		 add	 eax, ebx
  00f21	03 45 d0	 add	 eax, DWORD PTR _nVisibilityRange$2$[ebp]
  00f24	83 3c 86 00	 cmp	 DWORD PTR [esi+eax*4], 0
  00f28	0f 85 7e 00 00
	00		 jne	 $LN115@ModifyView

; 624  : 					{
; 625  : 						pUsertmp	= (CUser*)apObj[nPos];

  00f2e	8b 31		 mov	 esi, DWORD PTR [ecx]

; 626  : 						while( pUsertmp )

  00f30	85 f6		 test	 esi, esi
  00f32	0f 84 7b 00 00
	00		 je	 $LN1317@ModifyView
  00f38	8b 7d 08	 mov	 edi, DWORD PTR _pCtrl$[ebp]
  00f3b	0f 1f 44 00 00	 npad	 5
$LL70@ModifyView:
; File C:\IAGOS\server\v18\Source\Source\_Common\Obj.h

; 180  : 	BOOL			IsDelete()	{ return (m_dwFlags & OBJ_FLAG_DELETE);  }

  00f40	f6 46 04 01	 test	 BYTE PTR [esi+4], 1
; File C:\IAGOS\server\v18\Source\Source\WorldServer\LinkMap.cpp

; 628  : 							if( !pUsertmp->IsDelete() )

  00f44	75 42		 jne	 SHORT $LN117@ModifyView

; 630  : 								pCtrl->PCRemoveKey( pUsertmp->GetId() );

  00f46	8b 86 bc 01 00
	00		 mov	 eax, DWORD PTR [esi+444]
; File C:\IAGOS\server\v18\Source\Source\_Common\Ctrl.h

; 121  : 	return m_2pc.erase( objid ) > 0;

  00f4c	8d 8f 0c 02 00
	00		 lea	 ecx, DWORD PTR [edi+524]
; File C:\IAGOS\server\v18\Source\Source\WorldServer\LinkMap.cpp

; 630  : 								pCtrl->PCRemoveKey( pUsertmp->GetId() );

  00f52	89 45 b8	 mov	 DWORD PTR _objid$[ebp], eax
; File C:\IAGOS\server\v18\Source\Source\_Common\Ctrl.h

; 121  : 	return m_2pc.erase( objid ) > 0;

  00f55	8d 45 b8	 lea	 eax, DWORD PTR _objid$[ebp]
  00f58	50		 push	 eax
  00f59	e8 00 00 00 00	 call	 ?erase@?$_Tree@V?$_Tmap_traits@KPAVCUser@@U?$less@K@std@@V?$allocator@U?$pair@$$CBKPAVCUser@@@std@@@3@$0A@@std@@@std@@QAEIABK@Z ; std::_Tree<std::_Tmap_traits<unsigned long,CUser *,std::less<unsigned long>,std::allocator<std::pair<unsigned long const ,CUser *> >,0> >::erase
; File C:\IAGOS\server\v18\Source\Source\WorldServer\LinkMap.cpp

; 631  : 								pUsertmp->NPCRemoveKey( pCtrl->GetId() );

  00f5e	8b 87 bc 01 00
	00		 mov	 eax, DWORD PTR [edi+444]
; File C:\IAGOS\server\v18\Source\Source\WorldServer\user.h

; 208  : 	BOOL			NPCRemoveKey( OBJID objid )		{	return m_2npc.erase( objid ) > 0; }

  00f64	8d 8e 68 55 00
	00		 lea	 ecx, DWORD PTR [esi+21864]
; File C:\IAGOS\server\v18\Source\Source\WorldServer\LinkMap.cpp

; 631  : 								pUsertmp->NPCRemoveKey( pCtrl->GetId() );

  00f6a	89 45 b8	 mov	 DWORD PTR _objid$[ebp], eax
; File C:\IAGOS\server\v18\Source\Source\WorldServer\user.h

; 208  : 	BOOL			NPCRemoveKey( OBJID objid )		{	return m_2npc.erase( objid ) > 0; }

  00f6d	8d 45 b8	 lea	 eax, DWORD PTR _objid$[ebp]
  00f70	50		 push	 eax
  00f71	e8 00 00 00 00	 call	 ?erase@?$_Tree@V?$_Tmap_traits@KPAVCCtrl@@U?$less@K@std@@V?$allocator@U?$pair@$$CBKPAVCCtrl@@@std@@@3@$0A@@std@@@std@@QAEIABK@Z ; std::_Tree<std::_Tmap_traits<unsigned long,CCtrl *,std::less<unsigned long>,std::allocator<std::pair<unsigned long const ,CCtrl *> >,0> >::erase

; 253  : 	void			AddRemoveObj( OBJID objid )		{ AddHdr( objid, SNAPSHOTTYPE_DEL_OBJ );	}

  00f76	68 f1 00 00 00	 push	 241			; 000000f1H
  00f7b	ff b7 bc 01 00
	00		 push	 DWORD PTR [edi+444]
  00f81	8b ce		 mov	 ecx, esi
  00f83	e8 00 00 00 00	 call	 ?AddHdr@CUser@@QAEXKG@Z	; CUser::AddHdr
$LN117@ModifyView:
; File C:\IAGOS\server\v18\Source\Source\WorldServer\LinkMap.cpp

; 634  : 							pUsertmp	= (CUser*)pUsertmp->GetNextNode();

  00f88	8b b6 80 01 00
	00		 mov	 esi, DWORD PTR [esi+384]
  00f8e	85 f6		 test	 esi, esi
  00f90	75 ae		 jne	 SHORT $LL70@ModifyView

; 635  : 						}
; 636  : 					}

  00f92	8b 7d d4	 mov	 edi, DWORD PTR tv7004[ebp]
  00f95	8b 4d e4	 mov	 ecx, DWORD PTR tv7003[ebp]
  00f98	8b 55 dc	 mov	 edx, DWORD PTR tv7002[ebp]
  00f9b	eb 16		 jmp	 SHORT $LN1317@ModifyView
$LN110@ModifyView:

; 609  : 					else	// old pos
; 610  : 					{
; 611  : 						pfMask[nMaskPos]	= TRUE;

  00f9d	8b 4d b4	 mov	 ecx, DWORD PTR _pfMask$2$[ebp]
  00fa0	c7 04 81 01 00
	00 00		 mov	 DWORD PTR [ecx+eax*4], 1
  00fa7	e9 da fe ff ff	 jmp	 $LN1329@ModifyView
$LN115@ModifyView:

; 637  : 					else
; 638  : 					{
; 639  : 						pfMask[nMaskPos]	= FALSE;

  00fac	c7 04 86 00 00
	00 00		 mov	 DWORD PTR [esi+eax*4], 0
$LN1317@ModifyView:

; 617  : 			{
; 618  : 				for( j = -nVisibilityRange; j <= nVisibilityRange; j++ )

  00fb3	8b 45 d0	 mov	 eax, DWORD PTR _nVisibilityRange$2$[ebp]
$LN67@ModifyView:
  00fb6	43		 inc	 ebx
  00fb7	83 c1 04	 add	 ecx, 4
  00fba	47		 inc	 edi
  00fbb	89 4d e4	 mov	 DWORD PTR tv7003[ebp], ecx
  00fbe	89 7d d4	 mov	 DWORD PTR tv7004[ebp], edi
  00fc1	3b d8		 cmp	 ebx, eax
  00fc3	0f 8e 38 ff ff
	ff		 jle	 $LL69@ModifyView

; 612  : 					}
; 613  : 				}
; 614  : 			}
; 615  : 
; 616  : 			for( i = -nVisibilityRange; i <= nVisibilityRange; i ++ )

  00fc9	8b 5d ec	 mov	 ebx, DWORD PTR _nMaxWidth$2$[ebp]
  00fcc	42		 inc	 edx
  00fcd	8b 45 bc	 mov	 eax, DWORD PTR $T18[ebp]
  00fd0	8b 4d d8	 mov	 ecx, DWORD PTR tv7001[ebp]
  00fd3	03 cb		 add	 ecx, ebx
  00fd5	89 55 dc	 mov	 DWORD PTR tv7002[ebp], edx
  00fd8	83 6d e0 01	 sub	 DWORD PTR tv7085[ebp], 1
  00fdc	8d 04 18	 lea	 eax, DWORD PTR [eax+ebx]
  00fdf	89 4d d8	 mov	 DWORD PTR tv7001[ebp], ecx
  00fe2	8b 5d a4	 mov	 ebx, DWORD PTR tv7109[ebp]
  00fe5	89 45 bc	 mov	 DWORD PTR $T18[ebp], eax
  00fe8	0f 85 f9 fe ff
	ff		 jne	 $LL66@ModifyView
  00fee	8b 75 f0	 mov	 esi, DWORD PTR _nCenter$2$[ebp]
  00ff1	8b 7d e8	 mov	 edi, DWORD PTR tv7098[ebp]
  00ff4	8b 55 cc	 mov	 edx, DWORD PTR tv6993[ebp]
$LN65@ModifyView:
  00ff7	8b 45 c8	 mov	 eax, DWORD PTR _nLinkLevel$1$[ebp]

; 640  : 					}
; 641  : 				}
; 642  : 			}
; 643  : 			pCtrl->m_nOldCenter[nLinkLevel]	= nCenter;

  00ffa	89 32		 mov	 DWORD PTR [edx], esi
$LN53@ModifyView:

; 563  : 		}
; 564  : 	}
; 565  : 	// is not player
; 566  : 	else
; 567  : 	{
; 568  : 		const int nMaxLevel	= 1;
; 569  : 		for( int nLinkLevel = 0; nLinkLevel < nMaxLevel; nLinkLevel++ )

  00ffc	40		 inc	 eax
  00ffd	83 c7 04	 add	 edi, 4
  01000	83 c2 04	 add	 edx, 4
  01003	89 45 c8	 mov	 DWORD PTR _nLinkLevel$1$[ebp], eax
  01006	89 7d e8	 mov	 DWORD PTR tv7098[ebp], edi
  01009	89 55 cc	 mov	 DWORD PTR tv6993[ebp], edx
  0100c	83 f8 01	 cmp	 eax, 1
  0100f	0f 8d de f0 ff
	ff		 jge	 $LN1191@ModifyView
  01015	8b 55 c0	 mov	 edx, DWORD PTR _this$1$[ebp]
  01018	e9 c5 fb ff ff	 jmp	 $LL55@ModifyView
$LN1148@ModifyView:

; 644  : 		}
; 645  : 	}
; 646  : }

  0101d	e8 00 00 00 00	 call	 ?_Throw_tree_length_error@std@@YAXXZ ; std::_Throw_tree_length_error
$LN1328@ModifyView:
  01022	cc		 int	 3
_TEXT	ENDS
;	COMDAT text$x
text$x	SEGMENT
__unwindfunclet$?ModifyView@CLinkMap@@QAEXPAVCCtrl@@@Z$37:
  00000	8d 4d 88	 lea	 ecx, DWORD PTR $T12[ebp]
  00003	e9 00 00 00 00	 jmp	 ??1?$_Alloc_construct_ptr@V?$allocator@U?$_Tree_node@U?$pair@$$CBKPAVCUser@@@std@@PAX@std@@@std@@@std@@QAE@XZ ; std::_Alloc_construct_ptr<std::allocator<std::_Tree_node<std::pair<unsigned long const ,CUser *>,void *> > >::~_Alloc_construct_ptr<std::allocator<std::_Tree_node<std::pair<unsigned long const ,CUser *>,void *> > >
__unwindfunclet$?ModifyView@CLinkMap@@QAEXPAVCCtrl@@@Z$32:
  00008	8d 4d a0	 lea	 ecx, DWORD PTR $T17[ebp]
  0000b	e9 00 00 00 00	 jmp	 ??1?$_Alloc_construct_ptr@V?$allocator@U?$_Tree_node@U?$pair@$$CBKPAVCUser@@@std@@PAX@std@@@std@@@std@@QAE@XZ ; std::_Alloc_construct_ptr<std::allocator<std::_Tree_node<std::pair<unsigned long const ,CUser *>,void *> > >::~_Alloc_construct_ptr<std::allocator<std::_Tree_node<std::pair<unsigned long const ,CUser *>,void *> > >
__unwindfunclet$?ModifyView@CLinkMap@@QAEXPAVCCtrl@@@Z$17:
  00010	8d 8d 74 ff ff
	ff		 lea	 ecx, DWORD PTR $T11[ebp]
  00016	e9 00 00 00 00	 jmp	 ??1?$_Alloc_construct_ptr@V?$allocator@U?$_Tree_node@U?$pair@$$CBKPAVCCtrl@@@std@@PAX@std@@@std@@@std@@QAE@XZ ; std::_Alloc_construct_ptr<std::allocator<std::_Tree_node<std::pair<unsigned long const ,CCtrl *>,void *> > >::~_Alloc_construct_ptr<std::allocator<std::_Tree_node<std::pair<unsigned long const ,CCtrl *>,void *> > >
__unwindfunclet$?ModifyView@CLinkMap@@QAEXPAVCCtrl@@@Z$12:
  0001b	8d 8d 6c ff ff
	ff		 lea	 ecx, DWORD PTR $T10[ebp]
  00021	e9 00 00 00 00	 jmp	 ??1?$_Alloc_construct_ptr@V?$allocator@U?$_Tree_node@U?$pair@$$CBKPAVCUser@@@std@@PAX@std@@@std@@@std@@QAE@XZ ; std::_Alloc_construct_ptr<std::allocator<std::_Tree_node<std::pair<unsigned long const ,CUser *>,void *> > >::~_Alloc_construct_ptr<std::allocator<std::_Tree_node<std::pair<unsigned long const ,CUser *>,void *> > >
__unwindfunclet$?ModifyView@CLinkMap@@QAEXPAVCCtrl@@@Z$7:
  00026	8d 4d 98	 lea	 ecx, DWORD PTR $T15[ebp]
  00029	e9 00 00 00 00	 jmp	 ??1?$_Alloc_construct_ptr@V?$allocator@U?$_Tree_node@U?$pair@$$CBKPAVCCtrl@@@std@@PAX@std@@@std@@@std@@QAE@XZ ; std::_Alloc_construct_ptr<std::allocator<std::_Tree_node<std::pair<unsigned long const ,CCtrl *>,void *> > >::~_Alloc_construct_ptr<std::allocator<std::_Tree_node<std::pair<unsigned long const ,CCtrl *>,void *> > >
__unwindfunclet$?ModifyView@CLinkMap@@QAEXPAVCCtrl@@@Z$2:
  0002e	8d 4d 90	 lea	 ecx, DWORD PTR $T13[ebp]
  00031	e9 00 00 00 00	 jmp	 ??1?$_Alloc_construct_ptr@V?$allocator@U?$_Tree_node@U?$pair@$$CBKPAVCUser@@@std@@PAX@std@@@std@@@std@@QAE@XZ ; std::_Alloc_construct_ptr<std::allocator<std::_Tree_node<std::pair<unsigned long const ,CUser *>,void *> > >::~_Alloc_construct_ptr<std::allocator<std::_Tree_node<std::pair<unsigned long const ,CUser *>,void *> > >
__unwindfunclet$?ModifyView@CLinkMap@@QAEXPAVCCtrl@@@Z$22:
  00036	8d 4d 90	 lea	 ecx, DWORD PTR $T14[ebp]
  00039	e9 00 00 00 00	 jmp	 ??1?$_Alloc_construct_ptr@V?$allocator@U?$_Tree_node@U?$pair@$$CBKPAVCUser@@@std@@PAX@std@@@std@@@std@@QAE@XZ ; std::_Alloc_construct_ptr<std::allocator<std::_Tree_node<std::pair<unsigned long const ,CUser *>,void *> > >::~_Alloc_construct_ptr<std::allocator<std::_Tree_node<std::pair<unsigned long const ,CUser *>,void *> > >
__unwindfunclet$?ModifyView@CLinkMap@@QAEXPAVCCtrl@@@Z$27:
  0003e	8d 4d 98	 lea	 ecx, DWORD PTR $T16[ebp]
  00041	e9 00 00 00 00	 jmp	 ??1?$_Alloc_construct_ptr@V?$allocator@U?$_Tree_node@U?$pair@$$CBKPAVCCtrl@@@std@@PAX@std@@@std@@@std@@QAE@XZ ; std::_Alloc_construct_ptr<std::allocator<std::_Tree_node<std::pair<unsigned long const ,CCtrl *>,void *> > >::~_Alloc_construct_ptr<std::allocator<std::_Tree_node<std::pair<unsigned long const ,CCtrl *>,void *> > >
  00046	cc		 int	 3
  00047	cc		 int	 3
  00048	cc		 int	 3
  00049	cc		 int	 3
  0004a	cc		 int	 3
__ehhandler$?ModifyView@CLinkMap@@QAEXPAVCCtrl@@@Z:
  0004b	90		 npad	 1
  0004c	90		 npad	 1
  0004d	8b 54 24 08	 mov	 edx, DWORD PTR [esp+8]
  00051	8d 42 0c	 lea	 eax, DWORD PTR [edx+12]
  00054	8b 8a 68 ff ff
	ff		 mov	 ecx, DWORD PTR [edx-152]
  0005a	33 c8		 xor	 ecx, eax
  0005c	e8 00 00 00 00	 call	 @__security_check_cookie@4
  00061	b8 00 00 00 00	 mov	 eax, OFFSET __ehfuncinfo$?ModifyView@CLinkMap@@QAEXPAVCCtrl@@@Z
  00066	e9 00 00 00 00	 jmp	 ___CxxFrameHandler3
text$x	ENDS
?ModifyView@CLinkMap@@QAEXPAVCCtrl@@@Z ENDP		; CLinkMap::ModifyView
; Function compile flags: /Ogtp
; File C:\IAGOS\server\v18\Source\Source\WorldServer\LinkMap.cpp
; File C:\IAGOS\server\v18\Source\Source\_Common\Obj.h
; File C:\IAGOS\server\v18\Source\Source\WorldServer\LinkMap.cpp
; File C:\IAGOS\server\v18\Source\Source\_Common\Obj.h
; File C:\IAGOS\server\v18\Source\Source\WorldServer\LinkMap.cpp
; File C:\IAGOS\server\v18\Source\Source\WorldServer\LinkMap.h
; File C:\IAGOS\server\v18\Source\Source\WorldServer\LinkMap.cpp
; File C:\IAGOS\server\v18\Source\Source\_Common\Obj.h
; File C:\IAGOS\server\v18\Source\Source\WorldServer\LinkMap.cpp
; File C:\Program Files\Microsoft Visual Studio\2022\Professional\VC\Tools\MSVC\14.44.35207\include\xtree
; File C:\IAGOS\server\v18\Source\Source\_Common\Ctrl.h
; File C:\IAGOS\server\v18\Source\Source\WorldServer\LinkMap.cpp
; File C:\Program Files\Microsoft Visual Studio\2022\Professional\VC\Tools\MSVC\14.44.35207\include\xtree
; File C:\IAGOS\server\v18\Source\Source\WorldServer\LinkMap.cpp
; File C:\IAGOS\server\v18\Source\Source\_Common\Ctrl.h
; File C:\Program Files\Microsoft Visual Studio\2022\Professional\VC\Tools\MSVC\14.44.35207\include\xtree
; File C:\IAGOS\server\v18\Source\Source\WorldServer\LinkMap.cpp
; File C:\Program Files\Microsoft Visual Studio\2022\Professional\VC\Tools\MSVC\14.44.35207\include\xtree
; File C:\Program Files\Microsoft Visual Studio\2022\Professional\VC\Tools\MSVC\14.44.35207\include\type_traits
; File C:\Program Files\Microsoft Visual Studio\2022\Professional\VC\Tools\MSVC\14.44.35207\include\xtree
; File C:\Program Files\Microsoft Visual Studio\2022\Professional\VC\Tools\MSVC\14.44.35207\include\type_traits
; File C:\Program Files\Microsoft Visual Studio\2022\Professional\VC\Tools\MSVC\14.44.35207\include\xtree
; File C:\Program Files\Microsoft Visual Studio\2022\Professional\VC\Tools\MSVC\14.44.35207\include\map
; File C:\Program Files\Microsoft Visual Studio\2022\Professional\VC\Tools\MSVC\14.44.35207\include\xmemory
; File C:\Program Files\Microsoft Visual Studio\2022\Professional\VC\Tools\MSVC\14.44.35207\include\xtree
; File C:\Program Files\Microsoft Visual Studio\2022\Professional\VC\Tools\MSVC\14.44.35207\include\xmemory
; File C:\Program Files\Microsoft Visual Studio\2022\Professional\VC\Tools\MSVC\14.44.35207\include\utility
; File C:\Program Files\Microsoft Visual Studio\2022\Professional\VC\Tools\MSVC\14.44.35207\include\xmemory
; File C:\Program Files\Microsoft Visual Studio\2022\Professional\VC\Tools\MSVC\14.44.35207\include\xtree
; File C:\Program Files\Microsoft Visual Studio\2022\Professional\VC\Tools\MSVC\14.44.35207\include\utility
; File C:\Program Files\Microsoft Visual Studio\2022\Professional\VC\Tools\MSVC\14.44.35207\include\map
; File C:\Program Files\Microsoft Visual Studio\2022\Professional\VC\Tools\MSVC\14.44.35207\include\utility
; File C:\Program Files\Microsoft Visual Studio\2022\Professional\VC\Tools\MSVC\14.44.35207\include\map
; File C:\Program Files\Microsoft Visual Studio\2022\Professional\VC\Tools\MSVC\14.44.35207\include\xtree
; File C:\Program Files\Microsoft Visual Studio\2022\Professional\VC\Tools\MSVC\14.44.35207\include\map
; File C:\Program Files\Microsoft Visual Studio\2022\Professional\VC\Tools\MSVC\14.44.35207\include\xtree
; File C:\Program Files\Microsoft Visual Studio\2022\Professional\VC\Tools\MSVC\14.44.35207\include\map
; File C:\Program Files\Microsoft Visual Studio\2022\Professional\VC\Tools\MSVC\14.44.35207\include\xtree
; File C:\Program Files\Microsoft Visual Studio\2022\Professional\VC\Tools\MSVC\14.44.35207\include\map
; File C:\IAGOS\server\v18\Source\Source\_Common\Ctrl.h
; File C:\IAGOS\server\v18\Source\Source\WorldServer\LinkMap.cpp
; File C:\Program Files\Microsoft Visual Studio\2022\Professional\VC\Tools\MSVC\14.44.35207\include\xtree
; File C:\IAGOS\server\v18\Source\Source\_Common\Ctrl.h
; File C:\IAGOS\server\v18\Source\Source\WorldServer\LinkMap.cpp
; File C:\Program Files\Microsoft Visual Studio\2022\Professional\VC\Tools\MSVC\14.44.35207\include\xtree
; File C:\IAGOS\server\v18\Source\Source\WorldServer\LinkMap.cpp
; File C:\IAGOS\server\v18\Source\Source\_Common\Ctrl.h
; File C:\Program Files\Microsoft Visual Studio\2022\Professional\VC\Tools\MSVC\14.44.35207\include\xtree
; File C:\IAGOS\server\v18\Source\Source\WorldServer\LinkMap.cpp
; File C:\Program Files\Microsoft Visual Studio\2022\Professional\VC\Tools\MSVC\14.44.35207\include\xtree
; File C:\Program Files\Microsoft Visual Studio\2022\Professional\VC\Tools\MSVC\14.44.35207\include\type_traits
; File C:\Program Files\Microsoft Visual Studio\2022\Professional\VC\Tools\MSVC\14.44.35207\include\xtree
; File C:\Program Files\Microsoft Visual Studio\2022\Professional\VC\Tools\MSVC\14.44.35207\include\type_traits
; File C:\Program Files\Microsoft Visual Studio\2022\Professional\VC\Tools\MSVC\14.44.35207\include\xtree
; File C:\Program Files\Microsoft Visual Studio\2022\Professional\VC\Tools\MSVC\14.44.35207\include\map
; File C:\Program Files\Microsoft Visual Studio\2022\Professional\VC\Tools\MSVC\14.44.35207\include\xmemory
; File C:\Program Files\Microsoft Visual Studio\2022\Professional\VC\Tools\MSVC\14.44.35207\include\xtree
; File C:\Program Files\Microsoft Visual Studio\2022\Professional\VC\Tools\MSVC\14.44.35207\include\xmemory
; File C:\Program Files\Microsoft Visual Studio\2022\Professional\VC\Tools\MSVC\14.44.35207\include\utility
; File C:\Program Files\Microsoft Visual Studio\2022\Professional\VC\Tools\MSVC\14.44.35207\include\xmemory
; File C:\Program Files\Microsoft Visual Studio\2022\Professional\VC\Tools\MSVC\14.44.35207\include\xtree
; File C:\Program Files\Microsoft Visual Studio\2022\Professional\VC\Tools\MSVC\14.44.35207\include\utility
; File C:\Program Files\Microsoft Visual Studio\2022\Professional\VC\Tools\MSVC\14.44.35207\include\map
; File C:\Program Files\Microsoft Visual Studio\2022\Professional\VC\Tools\MSVC\14.44.35207\include\utility
; File C:\Program Files\Microsoft Visual Studio\2022\Professional\VC\Tools\MSVC\14.44.35207\include\map
; File C:\Program Files\Microsoft Visual Studio\2022\Professional\VC\Tools\MSVC\14.44.35207\include\xtree
; File C:\Program Files\Microsoft Visual Studio\2022\Professional\VC\Tools\MSVC\14.44.35207\include\map
; File C:\Program Files\Microsoft Visual Studio\2022\Professional\VC\Tools\MSVC\14.44.35207\include\xtree
; File C:\Program Files\Microsoft Visual Studio\2022\Professional\VC\Tools\MSVC\14.44.35207\include\map
; File C:\Program Files\Microsoft Visual Studio\2022\Professional\VC\Tools\MSVC\14.44.35207\include\xtree
; File C:\Program Files\Microsoft Visual Studio\2022\Professional\VC\Tools\MSVC\14.44.35207\include\map
; File C:\IAGOS\server\v18\Source\Source\WorldServer\LinkMap.cpp
; File C:\IAGOS\server\v18\Source\Source\_Common\Ctrl.h
; File C:\IAGOS\server\v18\Source\Source\WorldServer\LinkMap.cpp
; File C:\IAGOS\server\v18\Source\Source\WorldServer\LinkMap.h
; File C:\IAGOS\server\v18\Source\Source\WorldServer\LinkMap.cpp
; File C:\IAGOS\server\v18\Source\Source\WorldServer\LinkMap.h
; File C:\IAGOS\server\v18\Source\Source\WorldServer\LinkMap.cpp
; File C:\IAGOS\server\v18\Source\Source\WorldServer\LinkMap.h
; File C:\IAGOS\server\v18\Source\Source\WorldServer\LinkMap.cpp
; File C:\IAGOS\server\v18\Source\Source\_Common\Obj.h
; File C:\IAGOS\server\v18\Source\Source\WorldServer\LinkMap.cpp
; File C:\Program Files\Microsoft Visual Studio\2022\Professional\VC\Tools\MSVC\14.44.35207\include\xtree
; File C:\IAGOS\server\v18\Source\Source\_Common\Ctrl.h
; File C:\IAGOS\server\v18\Source\Source\WorldServer\LinkMap.cpp
; File C:\Program Files\Microsoft Visual Studio\2022\Professional\VC\Tools\MSVC\14.44.35207\include\xtree
; File C:\IAGOS\server\v18\Source\Source\WorldServer\LinkMap.cpp
; File C:\IAGOS\server\v18\Source\Source\_Common\Ctrl.h
; File C:\Program Files\Microsoft Visual Studio\2022\Professional\VC\Tools\MSVC\14.44.35207\include\xtree
; File C:\IAGOS\server\v18\Source\Source\WorldServer\LinkMap.cpp
; File C:\Program Files\Microsoft Visual Studio\2022\Professional\VC\Tools\MSVC\14.44.35207\include\xtree
; File C:\Program Files\Microsoft Visual Studio\2022\Professional\VC\Tools\MSVC\14.44.35207\include\type_traits
; File C:\Program Files\Microsoft Visual Studio\2022\Professional\VC\Tools\MSVC\14.44.35207\include\xtree
; File C:\Program Files\Microsoft Visual Studio\2022\Professional\VC\Tools\MSVC\14.44.35207\include\type_traits
; File C:\Program Files\Microsoft Visual Studio\2022\Professional\VC\Tools\MSVC\14.44.35207\include\xtree
; File C:\Program Files\Microsoft Visual Studio\2022\Professional\VC\Tools\MSVC\14.44.35207\include\map
; File C:\Program Files\Microsoft Visual Studio\2022\Professional\VC\Tools\MSVC\14.44.35207\include\xmemory
; File C:\Program Files\Microsoft Visual Studio\2022\Professional\VC\Tools\MSVC\14.44.35207\include\xtree
; File C:\Program Files\Microsoft Visual Studio\2022\Professional\VC\Tools\MSVC\14.44.35207\include\xmemory
; File C:\Program Files\Microsoft Visual Studio\2022\Professional\VC\Tools\MSVC\14.44.35207\include\utility
; File C:\Program Files\Microsoft Visual Studio\2022\Professional\VC\Tools\MSVC\14.44.35207\include\xmemory
; File C:\Program Files\Microsoft Visual Studio\2022\Professional\VC\Tools\MSVC\14.44.35207\include\xtree
; File C:\Program Files\Microsoft Visual Studio\2022\Professional\VC\Tools\MSVC\14.44.35207\include\utility
; File C:\Program Files\Microsoft Visual Studio\2022\Professional\VC\Tools\MSVC\14.44.35207\include\map
; File C:\Program Files\Microsoft Visual Studio\2022\Professional\VC\Tools\MSVC\14.44.35207\include\utility
; File C:\Program Files\Microsoft Visual Studio\2022\Professional\VC\Tools\MSVC\14.44.35207\include\map
; File C:\Program Files\Microsoft Visual Studio\2022\Professional\VC\Tools\MSVC\14.44.35207\include\xtree
; File C:\Program Files\Microsoft Visual Studio\2022\Professional\VC\Tools\MSVC\14.44.35207\include\map
; File C:\Program Files\Microsoft Visual Studio\2022\Professional\VC\Tools\MSVC\14.44.35207\include\xtree
; File C:\Program Files\Microsoft Visual Studio\2022\Professional\VC\Tools\MSVC\14.44.35207\include\map
; File C:\Program Files\Microsoft Visual Studio\2022\Professional\VC\Tools\MSVC\14.44.35207\include\xtree
; File C:\Program Files\Microsoft Visual Studio\2022\Professional\VC\Tools\MSVC\14.44.35207\include\map
; File C:\IAGOS\server\v18\Source\Source\_Common\Ctrl.h
; File C:\Program Files\Microsoft Visual Studio\2022\Professional\VC\Tools\MSVC\14.44.35207\include\xtree
; File C:\IAGOS\server\v18\Source\Source\_Common\Ctrl.h
; File C:\IAGOS\server\v18\Source\Source\WorldServer\user.h
; File C:\IAGOS\server\v18\Source\Source\WorldServer\LinkMap.cpp
; File C:\IAGOS\server\v18\Source\Source\WorldServer\user.h
; File C:\Program Files\Microsoft Visual Studio\2022\Professional\VC\Tools\MSVC\14.44.35207\include\xtree
; File C:\IAGOS\server\v18\Source\Source\WorldServer\LinkMap.cpp
; File C:\Program Files\Microsoft Visual Studio\2022\Professional\VC\Tools\MSVC\14.44.35207\include\xtree
; File C:\Program Files\Microsoft Visual Studio\2022\Professional\VC\Tools\MSVC\14.44.35207\include\type_traits
; File C:\Program Files\Microsoft Visual Studio\2022\Professional\VC\Tools\MSVC\14.44.35207\include\xtree
; File C:\Program Files\Microsoft Visual Studio\2022\Professional\VC\Tools\MSVC\14.44.35207\include\type_traits
; File C:\Program Files\Microsoft Visual Studio\2022\Professional\VC\Tools\MSVC\14.44.35207\include\xtree
; File C:\Program Files\Microsoft Visual Studio\2022\Professional\VC\Tools\MSVC\14.44.35207\include\map
; File C:\Program Files\Microsoft Visual Studio\2022\Professional\VC\Tools\MSVC\14.44.35207\include\xmemory
; File C:\Program Files\Microsoft Visual Studio\2022\Professional\VC\Tools\MSVC\14.44.35207\include\xtree
; File C:\Program Files\Microsoft Visual Studio\2022\Professional\VC\Tools\MSVC\14.44.35207\include\xmemory
; File C:\Program Files\Microsoft Visual Studio\2022\Professional\VC\Tools\MSVC\14.44.35207\include\utility
; File C:\Program Files\Microsoft Visual Studio\2022\Professional\VC\Tools\MSVC\14.44.35207\include\xmemory
; File C:\Program Files\Microsoft Visual Studio\2022\Professional\VC\Tools\MSVC\14.44.35207\include\xtree
; File C:\Program Files\Microsoft Visual Studio\2022\Professional\VC\Tools\MSVC\14.44.35207\include\utility
; File C:\Program Files\Microsoft Visual Studio\2022\Professional\VC\Tools\MSVC\14.44.35207\include\map
; File C:\Program Files\Microsoft Visual Studio\2022\Professional\VC\Tools\MSVC\14.44.35207\include\utility
; File C:\Program Files\Microsoft Visual Studio\2022\Professional\VC\Tools\MSVC\14.44.35207\include\map
; File C:\Program Files\Microsoft Visual Studio\2022\Professional\VC\Tools\MSVC\14.44.35207\include\xtree
; File C:\Program Files\Microsoft Visual Studio\2022\Professional\VC\Tools\MSVC\14.44.35207\include\map
; File C:\Program Files\Microsoft Visual Studio\2022\Professional\VC\Tools\MSVC\14.44.35207\include\xtree
; File C:\Program Files\Microsoft Visual Studio\2022\Professional\VC\Tools\MSVC\14.44.35207\include\map
; File C:\Program Files\Microsoft Visual Studio\2022\Professional\VC\Tools\MSVC\14.44.35207\include\xtree
; File C:\Program Files\Microsoft Visual Studio\2022\Professional\VC\Tools\MSVC\14.44.35207\include\map
; File C:\IAGOS\server\v18\Source\Source\WorldServer\LinkMap.cpp
; File C:\IAGOS\server\v18\Source\Source\WorldServer\user.h
; File C:\IAGOS\server\v18\Source\Source\WorldServer\LinkMap.cpp
; File C:\IAGOS\server\v18\Source\Source\WorldServer\LinkMap.h
; File C:\IAGOS\server\v18\Source\Source\WorldServer\LinkMap.cpp
; File C:\IAGOS\server\v18\Source\Source\WorldServer\LinkMap.h
; File C:\IAGOS\server\v18\Source\Source\WorldServer\LinkMap.cpp
; File C:\IAGOS\server\v18\Source\Source\_Common\Obj.h
; File C:\IAGOS\server\v18\Source\Source\WorldServer\LinkMap.cpp
; File C:\Program Files\Microsoft Visual Studio\2022\Professional\VC\Tools\MSVC\14.44.35207\include\xtree
; File C:\IAGOS\server\v18\Source\Source\_Common\Ctrl.h
; File C:\IAGOS\server\v18\Source\Source\WorldServer\LinkMap.cpp
; File C:\Program Files\Microsoft Visual Studio\2022\Professional\VC\Tools\MSVC\14.44.35207\include\xtree
; File C:\IAGOS\server\v18\Source\Source\WorldServer\LinkMap.cpp
; File C:\IAGOS\server\v18\Source\Source\_Common\Ctrl.h
; File C:\Program Files\Microsoft Visual Studio\2022\Professional\VC\Tools\MSVC\14.44.35207\include\xtree
; File C:\IAGOS\server\v18\Source\Source\WorldServer\LinkMap.cpp
; File C:\Program Files\Microsoft Visual Studio\2022\Professional\VC\Tools\MSVC\14.44.35207\include\xtree
; File C:\Program Files\Microsoft Visual Studio\2022\Professional\VC\Tools\MSVC\14.44.35207\include\type_traits
; File C:\Program Files\Microsoft Visual Studio\2022\Professional\VC\Tools\MSVC\14.44.35207\include\xtree
; File C:\Program Files\Microsoft Visual Studio\2022\Professional\VC\Tools\MSVC\14.44.35207\include\type_traits
; File C:\Program Files\Microsoft Visual Studio\2022\Professional\VC\Tools\MSVC\14.44.35207\include\xtree
; File C:\Program Files\Microsoft Visual Studio\2022\Professional\VC\Tools\MSVC\14.44.35207\include\map
; File C:\Program Files\Microsoft Visual Studio\2022\Professional\VC\Tools\MSVC\14.44.35207\include\xmemory
; File C:\Program Files\Microsoft Visual Studio\2022\Professional\VC\Tools\MSVC\14.44.35207\include\xtree
; File C:\Program Files\Microsoft Visual Studio\2022\Professional\VC\Tools\MSVC\14.44.35207\include\xmemory
; File C:\Program Files\Microsoft Visual Studio\2022\Professional\VC\Tools\MSVC\14.44.35207\include\utility
; File C:\Program Files\Microsoft Visual Studio\2022\Professional\VC\Tools\MSVC\14.44.35207\include\xmemory
; File C:\Program Files\Microsoft Visual Studio\2022\Professional\VC\Tools\MSVC\14.44.35207\include\xtree
; File C:\Program Files\Microsoft Visual Studio\2022\Professional\VC\Tools\MSVC\14.44.35207\include\utility
; File C:\Program Files\Microsoft Visual Studio\2022\Professional\VC\Tools\MSVC\14.44.35207\include\map
; File C:\Program Files\Microsoft Visual Studio\2022\Professional\VC\Tools\MSVC\14.44.35207\include\utility
; File C:\Program Files\Microsoft Visual Studio\2022\Professional\VC\Tools\MSVC\14.44.35207\include\map
; File C:\Program Files\Microsoft Visual Studio\2022\Professional\VC\Tools\MSVC\14.44.35207\include\xtree
; File C:\Program Files\Microsoft Visual Studio\2022\Professional\VC\Tools\MSVC\14.44.35207\include\map
; File C:\Program Files\Microsoft Visual Studio\2022\Professional\VC\Tools\MSVC\14.44.35207\include\xtree
; File C:\Program Files\Microsoft Visual Studio\2022\Professional\VC\Tools\MSVC\14.44.35207\include\map
; File C:\Program Files\Microsoft Visual Studio\2022\Professional\VC\Tools\MSVC\14.44.35207\include\xtree
; File C:\Program Files\Microsoft Visual Studio\2022\Professional\VC\Tools\MSVC\14.44.35207\include\map
; File C:\IAGOS\server\v18\Source\Source\_Common\Ctrl.h
; File C:\Program Files\Microsoft Visual Studio\2022\Professional\VC\Tools\MSVC\14.44.35207\include\xtree
; File C:\IAGOS\server\v18\Source\Source\_Common\Ctrl.h
; File C:\IAGOS\server\v18\Source\Source\WorldServer\user.h
; File C:\IAGOS\server\v18\Source\Source\WorldServer\LinkMap.cpp
; File C:\IAGOS\server\v18\Source\Source\WorldServer\user.h
; File C:\Program Files\Microsoft Visual Studio\2022\Professional\VC\Tools\MSVC\14.44.35207\include\xtree
; File C:\IAGOS\server\v18\Source\Source\WorldServer\LinkMap.cpp
; File C:\Program Files\Microsoft Visual Studio\2022\Professional\VC\Tools\MSVC\14.44.35207\include\xtree
; File C:\Program Files\Microsoft Visual Studio\2022\Professional\VC\Tools\MSVC\14.44.35207\include\type_traits
; File C:\Program Files\Microsoft Visual Studio\2022\Professional\VC\Tools\MSVC\14.44.35207\include\xtree
; File C:\Program Files\Microsoft Visual Studio\2022\Professional\VC\Tools\MSVC\14.44.35207\include\type_traits
; File C:\Program Files\Microsoft Visual Studio\2022\Professional\VC\Tools\MSVC\14.44.35207\include\xtree
; File C:\Program Files\Microsoft Visual Studio\2022\Professional\VC\Tools\MSVC\14.44.35207\include\map
; File C:\Program Files\Microsoft Visual Studio\2022\Professional\VC\Tools\MSVC\14.44.35207\include\xmemory
; File C:\Program Files\Microsoft Visual Studio\2022\Professional\VC\Tools\MSVC\14.44.35207\include\xtree
; File C:\Program Files\Microsoft Visual Studio\2022\Professional\VC\Tools\MSVC\14.44.35207\include\xmemory
; File C:\Program Files\Microsoft Visual Studio\2022\Professional\VC\Tools\MSVC\14.44.35207\include\utility
; File C:\Program Files\Microsoft Visual Studio\2022\Professional\VC\Tools\MSVC\14.44.35207\include\xmemory
; File C:\Program Files\Microsoft Visual Studio\2022\Professional\VC\Tools\MSVC\14.44.35207\include\xtree
; File C:\Program Files\Microsoft Visual Studio\2022\Professional\VC\Tools\MSVC\14.44.35207\include\utility
; File C:\Program Files\Microsoft Visual Studio\2022\Professional\VC\Tools\MSVC\14.44.35207\include\map
; File C:\Program Files\Microsoft Visual Studio\2022\Professional\VC\Tools\MSVC\14.44.35207\include\utility
; File C:\Program Files\Microsoft Visual Studio\2022\Professional\VC\Tools\MSVC\14.44.35207\include\map
; File C:\Program Files\Microsoft Visual Studio\2022\Professional\VC\Tools\MSVC\14.44.35207\include\xtree
; File C:\Program Files\Microsoft Visual Studio\2022\Professional\VC\Tools\MSVC\14.44.35207\include\map
; File C:\Program Files\Microsoft Visual Studio\2022\Professional\VC\Tools\MSVC\14.44.35207\include\xtree
; File C:\Program Files\Microsoft Visual Studio\2022\Professional\VC\Tools\MSVC\14.44.35207\include\map
; File C:\Program Files\Microsoft Visual Studio\2022\Professional\VC\Tools\MSVC\14.44.35207\include\xtree
; File C:\Program Files\Microsoft Visual Studio\2022\Professional\VC\Tools\MSVC\14.44.35207\include\map
; File C:\IAGOS\server\v18\Source\Source\WorldServer\LinkMap.cpp
; File C:\IAGOS\server\v18\Source\Source\WorldServer\user.h
; File C:\IAGOS\server\v18\Source\Source\WorldServer\LinkMap.cpp
; File C:\IAGOS\server\v18\Source\Source\WorldServer\LinkMap.h
; File C:\IAGOS\server\v18\Source\Source\WorldServer\LinkMap.cpp
; File C:\IAGOS\server\v18\Source\Source\_Common\Obj.h
; File C:\IAGOS\server\v18\Source\Source\WorldServer\LinkMap.cpp
; File C:\Program Files\Microsoft Visual Studio\2022\Professional\VC\Tools\MSVC\14.44.35207\include\xtree
; File C:\IAGOS\server\v18\Source\Source\WorldServer\LinkMap.cpp
; File C:\IAGOS\server\v18\Source\Source\WorldServer\user.h
; File C:\Program Files\Microsoft Visual Studio\2022\Professional\VC\Tools\MSVC\14.44.35207\include\xtree
; File C:\IAGOS\server\v18\Source\Source\WorldServer\LinkMap.cpp
; File C:\IAGOS\server\v18\Source\Source\WorldServer\user.h
; File C:\Program Files\Microsoft Visual Studio\2022\Professional\VC\Tools\MSVC\14.44.35207\include\xtree
; File C:\IAGOS\server\v18\Source\Source\WorldServer\LinkMap.cpp
; File C:\Program Files\Microsoft Visual Studio\2022\Professional\VC\Tools\MSVC\14.44.35207\include\xtree
; File C:\Program Files\Microsoft Visual Studio\2022\Professional\VC\Tools\MSVC\14.44.35207\include\type_traits
; File C:\Program Files\Microsoft Visual Studio\2022\Professional\VC\Tools\MSVC\14.44.35207\include\xtree
; File C:\Program Files\Microsoft Visual Studio\2022\Professional\VC\Tools\MSVC\14.44.35207\include\type_traits
; File C:\Program Files\Microsoft Visual Studio\2022\Professional\VC\Tools\MSVC\14.44.35207\include\xtree
; File C:\Program Files\Microsoft Visual Studio\2022\Professional\VC\Tools\MSVC\14.44.35207\include\map
; File C:\Program Files\Microsoft Visual Studio\2022\Professional\VC\Tools\MSVC\14.44.35207\include\xmemory
; File C:\Program Files\Microsoft Visual Studio\2022\Professional\VC\Tools\MSVC\14.44.35207\include\xtree
; File C:\Program Files\Microsoft Visual Studio\2022\Professional\VC\Tools\MSVC\14.44.35207\include\xmemory
; File C:\Program Files\Microsoft Visual Studio\2022\Professional\VC\Tools\MSVC\14.44.35207\include\utility
; File C:\Program Files\Microsoft Visual Studio\2022\Professional\VC\Tools\MSVC\14.44.35207\include\xmemory
; File C:\Program Files\Microsoft Visual Studio\2022\Professional\VC\Tools\MSVC\14.44.35207\include\xtree
; File C:\Program Files\Microsoft Visual Studio\2022\Professional\VC\Tools\MSVC\14.44.35207\include\utility
; File C:\Program Files\Microsoft Visual Studio\2022\Professional\VC\Tools\MSVC\14.44.35207\include\map
; File C:\Program Files\Microsoft Visual Studio\2022\Professional\VC\Tools\MSVC\14.44.35207\include\utility
; File C:\Program Files\Microsoft Visual Studio\2022\Professional\VC\Tools\MSVC\14.44.35207\include\map
; File C:\Program Files\Microsoft Visual Studio\2022\Professional\VC\Tools\MSVC\14.44.35207\include\xtree
; File C:\Program Files\Microsoft Visual Studio\2022\Professional\VC\Tools\MSVC\14.44.35207\include\map
; File C:\Program Files\Microsoft Visual Studio\2022\Professional\VC\Tools\MSVC\14.44.35207\include\xtree
; File C:\Program Files\Microsoft Visual Studio\2022\Professional\VC\Tools\MSVC\14.44.35207\include\map
; File C:\Program Files\Microsoft Visual Studio\2022\Professional\VC\Tools\MSVC\14.44.35207\include\xtree
; File C:\Program Files\Microsoft Visual Studio\2022\Professional\VC\Tools\MSVC\14.44.35207\include\map
; File C:\IAGOS\server\v18\Source\Source\WorldServer\user.h
; File C:\IAGOS\server\v18\Source\Source\WorldServer\LinkMap.cpp
; File C:\Program Files\Microsoft Visual Studio\2022\Professional\VC\Tools\MSVC\14.44.35207\include\xtree
; File C:\IAGOS\server\v18\Source\Source\_Common\Ctrl.h
; File C:\IAGOS\server\v18\Source\Source\WorldServer\LinkMap.cpp
; File C:\Program Files\Microsoft Visual Studio\2022\Professional\VC\Tools\MSVC\14.44.35207\include\xtree
; File C:\IAGOS\server\v18\Source\Source\WorldServer\LinkMap.cpp
; File C:\IAGOS\server\v18\Source\Source\_Common\Ctrl.h
; File C:\Program Files\Microsoft Visual Studio\2022\Professional\VC\Tools\MSVC\14.44.35207\include\xtree
; File C:\IAGOS\server\v18\Source\Source\WorldServer\LinkMap.cpp
; File C:\Program Files\Microsoft Visual Studio\2022\Professional\VC\Tools\MSVC\14.44.35207\include\xtree
; File C:\Program Files\Microsoft Visual Studio\2022\Professional\VC\Tools\MSVC\14.44.35207\include\type_traits
; File C:\Program Files\Microsoft Visual Studio\2022\Professional\VC\Tools\MSVC\14.44.35207\include\xtree
; File C:\Program Files\Microsoft Visual Studio\2022\Professional\VC\Tools\MSVC\14.44.35207\include\type_traits
; File C:\Program Files\Microsoft Visual Studio\2022\Professional\VC\Tools\MSVC\14.44.35207\include\xtree
; File C:\Program Files\Microsoft Visual Studio\2022\Professional\VC\Tools\MSVC\14.44.35207\include\map
; File C:\Program Files\Microsoft Visual Studio\2022\Professional\VC\Tools\MSVC\14.44.35207\include\xmemory
; File C:\Program Files\Microsoft Visual Studio\2022\Professional\VC\Tools\MSVC\14.44.35207\include\xtree
; File C:\Program Files\Microsoft Visual Studio\2022\Professional\VC\Tools\MSVC\14.44.35207\include\xmemory
; File C:\Program Files\Microsoft Visual Studio\2022\Professional\VC\Tools\MSVC\14.44.35207\include\utility
; File C:\Program Files\Microsoft Visual Studio\2022\Professional\VC\Tools\MSVC\14.44.35207\include\xmemory
; File C:\Program Files\Microsoft Visual Studio\2022\Professional\VC\Tools\MSVC\14.44.35207\include\xtree
; File C:\Program Files\Microsoft Visual Studio\2022\Professional\VC\Tools\MSVC\14.44.35207\include\utility
; File C:\Program Files\Microsoft Visual Studio\2022\Professional\VC\Tools\MSVC\14.44.35207\include\map
; File C:\Program Files\Microsoft Visual Studio\2022\Professional\VC\Tools\MSVC\14.44.35207\include\utility
; File C:\Program Files\Microsoft Visual Studio\2022\Professional\VC\Tools\MSVC\14.44.35207\include\map
; File C:\Program Files\Microsoft Visual Studio\2022\Professional\VC\Tools\MSVC\14.44.35207\include\xtree
; File C:\Program Files\Microsoft Visual Studio\2022\Professional\VC\Tools\MSVC\14.44.35207\include\map
; File C:\Program Files\Microsoft Visual Studio\2022\Professional\VC\Tools\MSVC\14.44.35207\include\xtree
; File C:\Program Files\Microsoft Visual Studio\2022\Professional\VC\Tools\MSVC\14.44.35207\include\map
; File C:\Program Files\Microsoft Visual Studio\2022\Professional\VC\Tools\MSVC\14.44.35207\include\xtree
; File C:\Program Files\Microsoft Visual Studio\2022\Professional\VC\Tools\MSVC\14.44.35207\include\map
; File C:\IAGOS\server\v18\Source\Source\_Common\Ctrl.h
; File C:\IAGOS\server\v18\Source\Source\WorldServer\LinkMap.cpp
;	COMDAT ?AddItToView@CLinkMap@@QAEXPAVCCtrl@@@Z
_TEXT	SEGMENT
_vPos$ = -140						; size = 12
$T10 = -128						; size = 8
$T11 = -128						; size = 8
$T12 = -120						; size = 8
$T13 = -120						; size = 8
$T14 = -112						; size = 8
$T15 = -104						; size = 8
$T16 = -96						; size = 8
$T17 = -88						; size = 8
_objid$1$ = -76						; size = 4
_apObj$1$ = -76						; size = 4
_nMaxHeight$2$ = -76					; size = 4
_objid$1$ = -76						; size = 4
_objid$1$ = -76						; size = 4
_objid$1$ = -76						; size = 4
_this$1$ = -72						; size = 4
_this$1$ = -72						; size = 4
_objid$1$ = -72						; size = 4
_apObj$2$ = -72						; size = 4
_nVisibilityRange$2$ = -72				; size = 4
_this$1$ = -68						; size = 4
_j$1$ = -68						; size = 4
_this$1$ = -68						; size = 4
_this$1$ = -68						; size = 4
_nLinkX$2$ = -68					; size = 4
_k$1$ = -64						; size = 4
_objid$1$ = -64						; size = 4
_k$2$ = -64						; size = 4
_k$3$ = -64						; size = 4
_this$1$ = -64						; size = 4
_j$3$ = -60						; size = 4
_apObj$3$ = -60						; size = 4
_apObj$4$ = -60						; size = 4
_this$1$ = -60						; size = 4
_objid$1$ = -60						; size = 4
_pUsertmp$2$ = -56					; size = 4
_nLinkX$1$ = -56					; size = 4
_pCtrltmp$1$ = -52					; size = 4
_pCtrltmp$2$ = -52					; size = 4
tv6007 = -52						; size = 4
tv5998 = -52						; size = 4
_k$4$ = -48						; size = 4
_pUsertmp$1$ = -48					; size = 4
tv6002 = -48						; size = 4
tv6000 = -48						; size = 4
_nUBoundZ$1$ = -44					; size = 4
_nUBoundZ$2$ = -44					; size = 4
_j$5$ = -40						; size = 4
_j$6$ = -40						; size = 4
_nMaxWidth$1$ = -36					; size = 4
_this$1$ = -36						; size = 4
_objid$1$ = -36						; size = 4
_nMaxWidth$2$ = -32					; size = 4
_nMaxHeight$1$ = -32					; size = 4
_this$1$ = -28						; size = 4
_i$1$ = -24						; size = 4
_nUBoundX$2$ = -24					; size = 4
_nVisibilityRange$1$ = -20				; size = 4
_nUBoundX$1$ = -16					; size = 4
__$EHRec$ = -12						; size = 12
_pCtrl$ = 8						; size = 4
?AddItToView@CLinkMap@@QAEXPAVCCtrl@@@Z PROC		; CLinkMap::AddItToView, COMDAT
; _this$ = ecx

; 206  : {

  00000	55		 push	 ebp
  00001	8b ec		 mov	 ebp, esp
  00003	6a ff		 push	 -1
  00005	68 00 00 00 00	 push	 __ehhandler$?AddItToView@CLinkMap@@QAEXPAVCCtrl@@@Z
  0000a	64 a1 00 00 00
	00		 mov	 eax, DWORD PTR fs:0
  00010	50		 push	 eax
  00011	81 ec 80 00 00
	00		 sub	 esp, 128		; 00000080H
  00017	53		 push	 ebx
  00018	56		 push	 esi
  00019	57		 push	 edi
  0001a	a1 00 00 00 00	 mov	 eax, DWORD PTR ___security_cookie
  0001f	33 c5		 xor	 eax, ebp
  00021	50		 push	 eax
  00022	8d 45 f4	 lea	 eax, DWORD PTR __$EHRec$[ebp]
  00025	64 a3 00 00 00
	00		 mov	 DWORD PTR fs:0, eax
  0002b	8b d9		 mov	 ebx, ecx
  0002d	89 5d e4	 mov	 DWORD PTR _this$1$[ebp], ebx
; File C:\IAGOS\server\v18\Source\Source\_Common\Obj.h

; 238  : 	D3DXVECTOR3		GetLinkPos()							{	return m_vLink;	}

  00030	8b 7d 08	 mov	 edi, DWORD PTR _pCtrl$[ebp]
  00033	f3 0f 7e 87 ac
	01 00 00	 movq	 xmm0, QWORD PTR [edi+428]
; File C:\IAGOS\server\v18\Source\Source\WorldServer\LinkMap.cpp

; 221  : 	if( pCtrl->GetType() == OT_MOVER && ( (CMover*)pCtrl )->IsPlayer() )

  0003b	8b b7 70 01 00
	00		 mov	 esi, DWORD PTR [edi+368]
; File C:\IAGOS\server\v18\Source\Source\_Common\Obj.h

; 238  : 	D3DXVECTOR3		GetLinkPos()							{	return m_vLink;	}

  00041	8b 87 b4 01 00
	00		 mov	 eax, DWORD PTR [edi+436]
  00047	66 0f d6 85 74
	ff ff ff	 movq	 QWORD PTR _vPos$[ebp], xmm0
  0004f	89 85 7c ff ff
	ff		 mov	 DWORD PTR _vPos$[ebp+8], eax
; File C:\IAGOS\server\v18\Source\Source\WorldServer\LinkMap.cpp

; 221  : 	if( pCtrl->GetType() == OT_MOVER && ( (CMover*)pCtrl )->IsPlayer() )

  00055	83 fe 05	 cmp	 esi, 5
  00058	0f 85 7a 07 00
	00		 jne	 $LN37@AddItToVie
  0005e	83 bf 30 02 00
	00 00		 cmp	 DWORD PTR [edi+560], 0
  00065	0f 84 6d 07 00
	00		 je	 $LN37@AddItToVie

; 222  : 	{
; 223  : 		pUser	= (CUser*)pCtrl;
; 224  : 		for( i = 0; i < MAX_LINKLEVEL; i++ )

  0006b	33 c0		 xor	 eax, eax
  0006d	89 45 e8	 mov	 DWORD PTR _i$1$[ebp], eax
$LL4@AddItToVie:

; 225  : 		{
; 226  : 			nMaxWidth	= GetLinkWidth( CObj::linkDynamic, i) * m_nLandWidth;

  00070	8b 4c 83 40	 mov	 ecx, DWORD PTR [ebx+eax*4+64]

; 227  : 			nMaxHeight	= GetLinkWidth( CObj::linkDynamic, i) * m_nLandHeight;

  00074	8b 93 f4 00 00
	00		 mov	 edx, DWORD PTR [ebx+244]
  0007a	8b 83 f0 00 00
	00		 mov	 eax, DWORD PTR [ebx+240]
  00080	8b f0		 mov	 esi, eax
  00082	0f af d1	 imul	 edx, ecx

; 228  : 
; 229  : 			nUnit	= (MAP_SIZE * m_nLandWidth) / nMaxWidth;

  00085	c1 e0 07	 shl	 eax, 7
  00088	0f af f1	 imul	 esi, ecx
  0008b	66 0f 6e 93 30
	01 00 00	 movd	 xmm2, DWORD PTR [ebx+304]

; 230  : 			nLinkX	= (int)( ( vPos.x / m_iMPU ) / nUnit );

  00093	f3 0f 10 85 74
	ff ff ff	 movss	 xmm0, DWORD PTR _vPos$[ebp]
  0009b	89 55 e0	 mov	 DWORD PTR _nMaxHeight$1$[ebp], edx
  0009e	99		 cdq
  0009f	f7 fe		 idiv	 esi
  000a1	0f 5b d2	 cvtdq2ps xmm2, xmm2

; 231  : 			nLinkZ	= (int)( ( vPos.z / m_iMPU ) / nUnit );
; 232  : 			nVisibilityRange	= m_nVisibilityRange[i];

  000a4	8b 55 e4	 mov	 edx, DWORD PTR _this$1$[ebp]
  000a7	89 75 dc	 mov	 DWORD PTR _nMaxWidth$1$[ebp], esi
  000aa	66 0f 6e c8	 movd	 xmm1, eax
  000ae	f3 0f 5e c2	 divss	 xmm0, xmm2
  000b2	8b 45 e8	 mov	 eax, DWORD PTR _i$1$[ebp]
  000b5	8b 94 82 14 01
	00 00		 mov	 edx, DWORD PTR [edx+eax*4+276]
  000bc	89 55 ec	 mov	 DWORD PTR _nVisibilityRange$1$[ebp], edx
  000bf	0f 5b c9	 cvtdq2ps xmm1, xmm1
  000c2	f3 0f 5e c1	 divss	 xmm0, xmm1
  000c6	f3 0f 2c d8	 cvttss2si ebx, xmm0
  000ca	f3 0f 10 85 7c
	ff ff ff	 movss	 xmm0, DWORD PTR _vPos$[ebp+8]
  000d2	f3 0f 5e c2	 divss	 xmm0, xmm2
  000d6	89 5d c8	 mov	 DWORD PTR _nLinkX$1$[ebp], ebx

; 233  : 			nUBoundX	= nLinkX + nVisibilityRange;

  000d9	8d 04 1a	 lea	 eax, DWORD PTR [edx+ebx]
  000dc	89 45 f0	 mov	 DWORD PTR _nUBoundX$1$[ebp], eax
  000df	f3 0f 5e c1	 divss	 xmm0, xmm1
  000e3	f3 0f 2c c8	 cvttss2si ecx, xmm0
  000e7	89 4d d8	 mov	 DWORD PTR _j$5$[ebp], ecx

; 234  : 			nUBoundZ	= nLinkZ + nVisibilityRange;

  000ea	8d 04 0a	 lea	 eax, DWORD PTR [edx+ecx]

; 235  : 			pUser->m_nOldCenter[i]	= nLinkZ * nMaxWidth + nLinkX;

  000ed	8b 55 e8	 mov	 edx, DWORD PTR _i$1$[ebp]
  000f0	89 45 d4	 mov	 DWORD PTR _nUBoundZ$1$[ebp], eax
  000f3	8b c1		 mov	 eax, ecx
  000f5	0f af c6	 imul	 eax, esi
  000f8	03 c3		 add	 eax, ebx
  000fa	89 84 97 14 02
	00 00		 mov	 DWORD PTR [edi+edx*4+532], eax

; 236  : 
; 237  : //			player link
; 238  : 			apObj	= GetObj( CObj::linkPlayer, i );	

  00101	8b c2		 mov	 eax, edx
  00103	8b 55 e4	 mov	 edx, DWORD PTR _this$1$[ebp]
  00106	8b 9c 82 98 00
	00 00		 mov	 ebx, DWORD PTR [edx+eax*4+152]

; 239  : 			for( j = nLinkZ - nVisibilityRange; j <= nUBoundZ; j++ )

  0010d	8b d1		 mov	 edx, ecx
  0010f	2b 55 ec	 sub	 edx, DWORD PTR _nVisibilityRange$1$[ebp]
  00112	89 5d b4	 mov	 DWORD PTR _apObj$1$[ebp], ebx
  00115	89 55 bc	 mov	 DWORD PTR _j$1$[ebp], edx
  00118	3b 55 d4	 cmp	 edx, DWORD PTR _nUBoundZ$1$[ebp]
  0011b	0f 8f a2 06 00
	00		 jg	 $LN2@AddItToVie
; File C:\IAGOS\server\v18\Source\Source\WorldServer\LinkMap.h

; 73   : 	return m_infos[dwLinkType].nWidth[dwLinkLevel]; 

  00121	8b c2		 mov	 eax, edx
  00123	0f af c6	 imul	 eax, esi
  00126	89 45 cc	 mov	 DWORD PTR tv6007[ebp], eax
  00129	0f 1f 80 00 00
	00 00		 npad	 7
$LL7@AddItToVie:
; File C:\IAGOS\server\v18\Source\Source\WorldServer\LinkMap.cpp

; 241  : 				if( j < 0 || j >= nMaxHeight )	continue;

  00130	8b 4d e0	 mov	 ecx, DWORD PTR _nMaxHeight$1$[ebp]
  00133	85 d2		 test	 edx, edx
  00135	0f 88 13 02 00
	00		 js	 $LN5@AddItToVie
  0013b	3b d1		 cmp	 edx, ecx
  0013d	0f 8d 0b 02 00
	00		 jge	 $LN5@AddItToVie

; 242  : 				for( k = nLinkX - nVisibilityRange; k <= nUBoundX; k++ )

  00143	8b 4d c8	 mov	 ecx, DWORD PTR _nLinkX$1$[ebp]
  00146	2b 4d ec	 sub	 ecx, DWORD PTR _nVisibilityRange$1$[ebp]
  00149	89 4d c0	 mov	 DWORD PTR _k$1$[ebp], ecx
  0014c	3b 4d f0	 cmp	 ecx, DWORD PTR _nUBoundX$1$[ebp]
  0014f	0f 8f f6 01 00
	00		 jg	 $LN1147@AddItToVie
  00155	8b 55 f0	 mov	 edx, DWORD PTR _nUBoundX$1$[ebp]
$LL10@AddItToVie:

; 243  : 				{
; 244  : 					if( k < 0 || k >= nMaxWidth )	continue;

  00158	85 c9		 test	 ecx, ecx
  0015a	0f 88 dc 01 00
	00		 js	 $LN8@AddItToVie
  00160	3b ce		 cmp	 ecx, esi
  00162	0f 8d d4 01 00
	00		 jge	 $LN8@AddItToVie

; 245  : 					pUsertmp	= (CUser*)apObj[j * nMaxWidth + k];

  00168	03 c1		 add	 eax, ecx
  0016a	8b 34 83	 mov	 esi, DWORD PTR [ebx+eax*4]
  0016d	89 75 d0	 mov	 DWORD PTR _pUsertmp$1$[ebp], esi

; 246  : 					while( pUsertmp )

  00170	85 f6		 test	 esi, esi
  00172	0f 84 be 01 00
	00		 je	 $LN1144@AddItToVie
  00178	0f 1f 84 00 00
	00 00 00	 npad	 8
$LL11@AddItToVie:
; File C:\IAGOS\server\v18\Source\Source\_Common\Obj.h

; 180  : 	BOOL			IsDelete()	{ return (m_dwFlags & OBJ_FLAG_DELETE);  }

  00180	f6 46 04 01	 test	 BYTE PTR [esi+4], 1
; File C:\IAGOS\server\v18\Source\Source\WorldServer\LinkMap.cpp

; 248  : 						if( !pUsertmp->IsDelete() && pUsertmp != pUser )

  00184	0f 85 92 01 00
	00		 jne	 $LN43@AddItToVie
  0018a	3b f7		 cmp	 esi, edi
  0018c	0f 84 8a 01 00
	00		 je	 $LN43@AddItToVie
; File C:\Program Files\Microsoft Visual Studio\2022\Professional\VC\Tools\MSVC\14.44.35207\include\xtree

; 1630 :         _Tree_find_result<_Nodeptr> _Result{{_Scary->_Myhead->_Parent, _Tree_child::_Right}, _Scary->_Myhead};

  00192	8b 8e 0c 02 00
	00		 mov	 ecx, DWORD PTR [esi+524]
; File C:\IAGOS\server\v18\Source\Source\_Common\Ctrl.h

; 116  : 	m_2pc[ objid ] = (CUser *)pCtrl;

  00198	8d 86 0c 02 00
	00		 lea	 eax, DWORD PTR [esi+524]
; File C:\IAGOS\server\v18\Source\Source\WorldServer\LinkMap.cpp

; 250  : 							pUsertmp->PCSetAt( pUser->GetId(), (CCtrl*)pUser );

  0019e	8b 97 bc 01 00
	00		 mov	 edx, DWORD PTR [edi+444]
; File C:\Program Files\Microsoft Visual Studio\2022\Professional\VC\Tools\MSVC\14.44.35207\include\xtree

; 1630 :         _Tree_find_result<_Nodeptr> _Result{{_Scary->_Myhead->_Parent, _Tree_child::_Right}, _Scary->_Myhead};

  001a4	33 ff		 xor	 edi, edi
; File C:\IAGOS\server\v18\Source\Source\WorldServer\LinkMap.cpp

; 250  : 							pUsertmp->PCSetAt( pUser->GetId(), (CCtrl*)pUser );

  001a6	89 55 c4	 mov	 DWORD PTR _objid$1$[ebp], edx
; File C:\IAGOS\server\v18\Source\Source\_Common\Ctrl.h

; 116  : 	m_2pc[ objid ] = (CUser *)pCtrl;

  001a9	89 45 b8	 mov	 DWORD PTR _this$1$[ebp], eax
; File C:\Program Files\Microsoft Visual Studio\2022\Professional\VC\Tools\MSVC\14.44.35207\include\xtree

; 1630 :         _Tree_find_result<_Nodeptr> _Result{{_Scary->_Myhead->_Parent, _Tree_child::_Right}, _Scary->_Myhead};

  001ac	8b 59 04	 mov	 ebx, DWORD PTR [ecx+4]

; 1632 :         while (!_Trynode->_Isnil) {

  001af	80 7b 0d 00	 cmp	 BYTE PTR [ebx+13], 0
  001b3	75 25		 jne	 SHORT $LN906@AddItToVie
; File C:\IAGOS\server\v18\Source\Source\WorldServer\LinkMap.cpp

; 239  : 			for( j = nLinkZ - nVisibilityRange; j <= nUBoundZ; j++ )

  001b5	8b c3		 mov	 eax, ebx
$LL905@AddItToVie:
; File C:\Program Files\Microsoft Visual Studio\2022\Professional\VC\Tools\MSVC\14.44.35207\include\xtree

; 1633 :             _Result._Location._Parent = _Trynode;

  001b7	8b d8		 mov	 ebx, eax
; File C:\Program Files\Microsoft Visual Studio\2022\Professional\VC\Tools\MSVC\14.44.35207\include\type_traits

; 2380 :         return _Left < _Right;

  001b9	39 50 10	 cmp	 DWORD PTR [eax+16], edx
; File C:\Program Files\Microsoft Visual Studio\2022\Professional\VC\Tools\MSVC\14.44.35207\include\xtree

; 1634 :             if (_DEBUG_LT_PRED(_Getcomp(), _Traits::_Kfn(_Trynode->_Myval), _Keyval)) {

  001bc	73 07		 jae	 SHORT $LN907@AddItToVie

; 1635 :                 _Result._Location._Child = _Tree_child::_Right;
; 1636 :                 _Trynode                 = _Trynode->_Right;

  001be	8b 40 08	 mov	 eax, DWORD PTR [eax+8]
  001c1	33 ff		 xor	 edi, edi

; 1637 :             } else {

  001c3	eb 09		 jmp	 SHORT $LN908@AddItToVie
$LN907@AddItToVie:

; 1638 :                 _Result._Location._Child = _Tree_child::_Left;
; 1639 :                 _Result._Bound           = _Trynode;

  001c5	8b c8		 mov	 ecx, eax
  001c7	bf 01 00 00 00	 mov	 edi, 1

; 1640 :                 _Trynode                 = _Trynode->_Left;

  001cc	8b 00		 mov	 eax, DWORD PTR [eax]
$LN908@AddItToVie:

; 1632 :         while (!_Trynode->_Isnil) {

  001ce	80 78 0d 00	 cmp	 BYTE PTR [eax+13], 0
  001d2	74 e3		 je	 SHORT $LL905@AddItToVie
  001d4	8d 86 0c 02 00
	00		 lea	 eax, DWORD PTR [esi+524]
$LN906@AddItToVie:

; 1624 :         return !_Bound->_Isnil && !_DEBUG_LT_PRED(_Getcomp(), _Keyval, _Traits::_Kfn(_Bound->_Myval));

  001da	80 79 0d 00	 cmp	 BYTE PTR [ecx+13], 0
  001de	75 05		 jne	 SHORT $LN901@AddItToVie
; File C:\Program Files\Microsoft Visual Studio\2022\Professional\VC\Tools\MSVC\14.44.35207\include\type_traits

; 2380 :         return _Left < _Right;

  001e0	3b 51 10	 cmp	 edx, DWORD PTR [ecx+16]
; File C:\Program Files\Microsoft Visual Studio\2022\Professional\VC\Tools\MSVC\14.44.35207\include\xtree

; 1624 :         return !_Bound->_Isnil && !_DEBUG_LT_PRED(_Getcomp(), _Keyval, _Traits::_Kfn(_Bound->_Myval));

  001e3	73 63		 jae	 SHORT $LN900@AddItToVie
$LN901@AddItToVie:

; 1648 :         if (max_size() == _Get_scary()->_Mysize) {

  001e5	81 78 04 aa aa
	aa 0a		 cmp	 DWORD PTR [eax+4], 178956970 ; 0aaaaaaaH
  001ec	0f 84 c6 08 00
	00		 je	 $LN1050@AddItToVie
; File C:\Program Files\Microsoft Visual Studio\2022\Professional\VC\Tools\MSVC\14.44.35207\include\map

; 205  :         const auto _Inserted = _Tree_temp_node<_Alnode>(_Mybase::_Getal(), _Scary->_Myhead, piecewise_construct,

  001f2	8b 30		 mov	 esi, DWORD PTR [eax]
; File C:\Program Files\Microsoft Visual Studio\2022\Professional\VC\Tools\MSVC\14.44.35207\include\xmemory

; 1160 :     _CONSTEXPR20 explicit _Alloc_construct_ptr(_Alloc& _Al_) : _Al(_Al_), _Ptr(nullptr) {}

  001f4	89 45 a8	 mov	 DWORD PTR $T17[ebp], eax

; 136  :         return ::operator new(_Bytes);

  001f7	6a 18		 push	 24			; 00000018H
; File C:\Program Files\Microsoft Visual Studio\2022\Professional\VC\Tools\MSVC\14.44.35207\include\xtree

; 808  :     explicit _Tree_temp_node_alloc(_Alnode& _Al_) : _Alloc_construct_ptr<_Alnode>(_Al_) {

  001f9	c7 45 fc 00 00
	00 00		 mov	 DWORD PTR __$EHRec$[ebp+8], 0
; File C:\Program Files\Microsoft Visual Studio\2022\Professional\VC\Tools\MSVC\14.44.35207\include\xmemory

; 1167 :         _Ptr = nullptr; // if allocate throws, prevents double-free

  00200	c7 45 ac 00 00
	00 00		 mov	 DWORD PTR $T17[ebp+4], 0

; 136  :         return ::operator new(_Bytes);

  00207	e8 00 00 00 00	 call	 ??2@YAPAXI@Z		; operator new
; File C:\Program Files\Microsoft Visual Studio\2022\Professional\VC\Tools\MSVC\14.44.35207\include\utility

; 478  :         : first(_STD _Tuple_get<_Indices1>(_STD move(_Val1))...),

  0020c	8b 4d c4	 mov	 ecx, DWORD PTR _objid$1$[ebp]
; File C:\Program Files\Microsoft Visual Studio\2022\Professional\VC\Tools\MSVC\14.44.35207\include\xmemory

; 136  :         return ::operator new(_Bytes);

  0020f	83 c4 04	 add	 esp, 4
; File C:\Program Files\Microsoft Visual Studio\2022\Professional\VC\Tools\MSVC\14.44.35207\include\xtree

; 810  :     }

  00212	c7 45 fc ff ff
	ff ff		 mov	 DWORD PTR __$EHRec$[ebp+8], -1
; File C:\Program Files\Microsoft Visual Studio\2022\Professional\VC\Tools\MSVC\14.44.35207\include\utility

; 774  :     _Val         = static_cast<_Other&&>(_New_val);

  00219	c7 45 ac 00 00
	00 00		 mov	 DWORD PTR $T17[ebp+4], 0

; 478  :         : first(_STD _Tuple_get<_Indices1>(_STD move(_Val1))...),

  00220	89 48 10	 mov	 DWORD PTR [eax+16], ecx
; File C:\Program Files\Microsoft Visual Studio\2022\Professional\VC\Tools\MSVC\14.44.35207\include\map

; 211  :         return {_Scary->_Insert_node(_Loc._Location, _Inserted), true};

  00223	8b 4d b8	 mov	 ecx, DWORD PTR _this$1$[ebp]
; File C:\Program Files\Microsoft Visual Studio\2022\Professional\VC\Tools\MSVC\14.44.35207\include\utility

; 479  :           second(_STD _Tuple_get<_Indices2>(_STD move(_Val2))...) {}

  00226	c7 40 14 00 00
	00 00		 mov	 DWORD PTR [eax+20], 0
; File C:\Program Files\Microsoft Visual Studio\2022\Professional\VC\Tools\MSVC\14.44.35207\include\map

; 211  :         return {_Scary->_Insert_node(_Loc._Location, _Inserted), true};

  0022d	50		 push	 eax
; File C:\Program Files\Microsoft Visual Studio\2022\Professional\VC\Tools\MSVC\14.44.35207\include\xtree

; 831  :         _Construct_in_place(this->_Ptr->_Left, _Myhead);

  0022e	89 30		 mov	 DWORD PTR [eax], esi

; 832  :         _Construct_in_place(this->_Ptr->_Parent, _Myhead);

  00230	89 70 04	 mov	 DWORD PTR [eax+4], esi
; File C:\Program Files\Microsoft Visual Studio\2022\Professional\VC\Tools\MSVC\14.44.35207\include\map

; 211  :         return {_Scary->_Insert_node(_Loc._Location, _Inserted), true};

  00233	57		 push	 edi
; File C:\Program Files\Microsoft Visual Studio\2022\Professional\VC\Tools\MSVC\14.44.35207\include\xtree

; 833  :         _Construct_in_place(this->_Ptr->_Right, _Myhead);

  00234	89 70 08	 mov	 DWORD PTR [eax+8], esi
; File C:\Program Files\Microsoft Visual Studio\2022\Professional\VC\Tools\MSVC\14.44.35207\include\map

; 211  :         return {_Scary->_Insert_node(_Loc._Location, _Inserted), true};

  00237	53		 push	 ebx
; File C:\Program Files\Microsoft Visual Studio\2022\Professional\VC\Tools\MSVC\14.44.35207\include\xtree

; 834  :         this->_Ptr->_Color = _Red;

  00238	66 c7 40 0c 00
	00		 mov	 WORD PTR [eax+12], 0
; File C:\Program Files\Microsoft Visual Studio\2022\Professional\VC\Tools\MSVC\14.44.35207\include\map

; 211  :         return {_Scary->_Insert_node(_Loc._Location, _Inserted), true};

  0023e	e8 00 00 00 00	 call	 ?_Insert_node@?$_Tree_val@U?$_Tree_simple_types@U?$pair@$$CBKPAVCUser@@@std@@@std@@@std@@QAEPAU?$_Tree_node@U?$pair@$$CBKPAVCUser@@@std@@PAX@2@U?$_Tree_id@PAU?$_Tree_node@U?$pair@$$CBKPAVCUser@@@std@@PAX@std@@@2@QAU32@@Z ; std::_Tree_val<std::_Tree_simple_types<std::pair<unsigned long const ,CUser *> > >::_Insert_node
  00243	8b 75 d0	 mov	 esi, DWORD PTR _pUsertmp$1$[ebp]
  00246	8b c8		 mov	 ecx, eax
$LN900@AddItToVie:
; File C:\IAGOS\server\v18\Source\Source\_Common\Ctrl.h

; 116  : 	m_2pc[ objid ] = (CUser *)pCtrl;

  00248	8b 5d 08	 mov	 ebx, DWORD PTR _pCtrl$[ebp]
  0024b	89 59 14	 mov	 DWORD PTR [ecx+20], ebx
; File C:\IAGOS\server\v18\Source\Source\WorldServer\LinkMap.cpp

; 251  : 							pUsertmp->AddAddObj( (CCtrl*)pUser );

  0024e	8b ce		 mov	 ecx, esi
  00250	53		 push	 ebx
  00251	e8 00 00 00 00	 call	 ?AddAddObj@CUser@@QAEXPAVCCtrl@@@Z ; CUser::AddAddObj
; File C:\Program Files\Microsoft Visual Studio\2022\Professional\VC\Tools\MSVC\14.44.35207\include\xtree

; 1630 :         _Tree_find_result<_Nodeptr> _Result{{_Scary->_Myhead->_Parent, _Tree_child::_Right}, _Scary->_Myhead};

  00256	8b 8b 0c 02 00
	00		 mov	 ecx, DWORD PTR [ebx+524]
; File C:\IAGOS\server\v18\Source\Source\_Common\Ctrl.h

; 116  : 	m_2pc[ objid ] = (CUser *)pCtrl;

  0025c	8d 83 0c 02 00
	00		 lea	 eax, DWORD PTR [ebx+524]
; File C:\IAGOS\server\v18\Source\Source\WorldServer\LinkMap.cpp

; 252  : 							pUser->PCSetAt( pUsertmp->GetId(), (CCtrl*)pUsertmp );

  00262	8b 96 bc 01 00
	00		 mov	 edx, DWORD PTR [esi+444]
; File C:\Program Files\Microsoft Visual Studio\2022\Professional\VC\Tools\MSVC\14.44.35207\include\xtree

; 1630 :         _Tree_find_result<_Nodeptr> _Result{{_Scary->_Myhead->_Parent, _Tree_child::_Right}, _Scary->_Myhead};

  00268	33 ff		 xor	 edi, edi
; File C:\IAGOS\server\v18\Source\Source\WorldServer\LinkMap.cpp

; 252  : 							pUser->PCSetAt( pUsertmp->GetId(), (CCtrl*)pUsertmp );

  0026a	89 55 b8	 mov	 DWORD PTR _objid$1$[ebp], edx
; File C:\IAGOS\server\v18\Source\Source\_Common\Ctrl.h

; 116  : 	m_2pc[ objid ] = (CUser *)pCtrl;

  0026d	89 45 c4	 mov	 DWORD PTR _this$1$[ebp], eax
; File C:\Program Files\Microsoft Visual Studio\2022\Professional\VC\Tools\MSVC\14.44.35207\include\xtree

; 1630 :         _Tree_find_result<_Nodeptr> _Result{{_Scary->_Myhead->_Parent, _Tree_child::_Right}, _Scary->_Myhead};

  00270	8b 59 04	 mov	 ebx, DWORD PTR [ecx+4]

; 1632 :         while (!_Trynode->_Isnil) {

  00273	80 7b 0d 00	 cmp	 BYTE PTR [ebx+13], 0
  00277	75 27		 jne	 SHORT $LN789@AddItToVie
; File C:\IAGOS\server\v18\Source\Source\WorldServer\LinkMap.cpp

; 239  : 			for( j = nLinkZ - nVisibilityRange; j <= nUBoundZ; j++ )

  00279	8b c3		 mov	 eax, ebx
  0027b	0f 1f 44 00 00	 npad	 5
$LL788@AddItToVie:
; File C:\Program Files\Microsoft Visual Studio\2022\Professional\VC\Tools\MSVC\14.44.35207\include\xtree

; 1633 :             _Result._Location._Parent = _Trynode;

  00280	8b d8		 mov	 ebx, eax
; File C:\Program Files\Microsoft Visual Studio\2022\Professional\VC\Tools\MSVC\14.44.35207\include\type_traits

; 2380 :         return _Left < _Right;

  00282	39 50 10	 cmp	 DWORD PTR [eax+16], edx
; File C:\Program Files\Microsoft Visual Studio\2022\Professional\VC\Tools\MSVC\14.44.35207\include\xtree

; 1634 :             if (_DEBUG_LT_PRED(_Getcomp(), _Traits::_Kfn(_Trynode->_Myval), _Keyval)) {

  00285	73 07		 jae	 SHORT $LN790@AddItToVie

; 1635 :                 _Result._Location._Child = _Tree_child::_Right;
; 1636 :                 _Trynode                 = _Trynode->_Right;

  00287	8b 40 08	 mov	 eax, DWORD PTR [eax+8]
  0028a	33 ff		 xor	 edi, edi

; 1637 :             } else {

  0028c	eb 09		 jmp	 SHORT $LN791@AddItToVie
$LN790@AddItToVie:

; 1638 :                 _Result._Location._Child = _Tree_child::_Left;
; 1639 :                 _Result._Bound           = _Trynode;

  0028e	8b c8		 mov	 ecx, eax
  00290	bf 01 00 00 00	 mov	 edi, 1

; 1640 :                 _Trynode                 = _Trynode->_Left;

  00295	8b 00		 mov	 eax, DWORD PTR [eax]
$LN791@AddItToVie:

; 1632 :         while (!_Trynode->_Isnil) {

  00297	80 78 0d 00	 cmp	 BYTE PTR [eax+13], 0
  0029b	74 e3		 je	 SHORT $LL788@AddItToVie
  0029d	8b 45 c4	 mov	 eax, DWORD PTR _this$1$[ebp]
$LN789@AddItToVie:

; 1624 :         return !_Bound->_Isnil && !_DEBUG_LT_PRED(_Getcomp(), _Keyval, _Traits::_Kfn(_Bound->_Myval));

  002a0	80 79 0d 00	 cmp	 BYTE PTR [ecx+13], 0
  002a4	75 05		 jne	 SHORT $LN784@AddItToVie
; File C:\Program Files\Microsoft Visual Studio\2022\Professional\VC\Tools\MSVC\14.44.35207\include\type_traits

; 2380 :         return _Left < _Right;

  002a6	3b 51 10	 cmp	 edx, DWORD PTR [ecx+16]
; File C:\Program Files\Microsoft Visual Studio\2022\Professional\VC\Tools\MSVC\14.44.35207\include\xtree

; 1624 :         return !_Bound->_Isnil && !_DEBUG_LT_PRED(_Getcomp(), _Keyval, _Traits::_Kfn(_Bound->_Myval));

  002a9	73 63		 jae	 SHORT $LN783@AddItToVie
$LN784@AddItToVie:

; 1648 :         if (max_size() == _Get_scary()->_Mysize) {

  002ab	81 78 04 aa aa
	aa 0a		 cmp	 DWORD PTR [eax+4], 178956970 ; 0aaaaaaaH
  002b2	0f 84 00 08 00
	00		 je	 $LN1050@AddItToVie
; File C:\Program Files\Microsoft Visual Studio\2022\Professional\VC\Tools\MSVC\14.44.35207\include\map

; 205  :         const auto _Inserted = _Tree_temp_node<_Alnode>(_Mybase::_Getal(), _Scary->_Myhead, piecewise_construct,

  002b8	8b 30		 mov	 esi, DWORD PTR [eax]
; File C:\Program Files\Microsoft Visual Studio\2022\Professional\VC\Tools\MSVC\14.44.35207\include\xmemory

; 1160 :     _CONSTEXPR20 explicit _Alloc_construct_ptr(_Alloc& _Al_) : _Al(_Al_), _Ptr(nullptr) {}

  002ba	89 45 a0	 mov	 DWORD PTR $T16[ebp], eax

; 136  :         return ::operator new(_Bytes);

  002bd	6a 18		 push	 24			; 00000018H
; File C:\Program Files\Microsoft Visual Studio\2022\Professional\VC\Tools\MSVC\14.44.35207\include\xtree

; 808  :     explicit _Tree_temp_node_alloc(_Alnode& _Al_) : _Alloc_construct_ptr<_Alnode>(_Al_) {

  002bf	c7 45 fc 01 00
	00 00		 mov	 DWORD PTR __$EHRec$[ebp+8], 1
; File C:\Program Files\Microsoft Visual Studio\2022\Professional\VC\Tools\MSVC\14.44.35207\include\xmemory

; 1167 :         _Ptr = nullptr; // if allocate throws, prevents double-free

  002c6	c7 45 a4 00 00
	00 00		 mov	 DWORD PTR $T16[ebp+4], 0

; 136  :         return ::operator new(_Bytes);

  002cd	e8 00 00 00 00	 call	 ??2@YAPAXI@Z		; operator new
; File C:\Program Files\Microsoft Visual Studio\2022\Professional\VC\Tools\MSVC\14.44.35207\include\utility

; 478  :         : first(_STD _Tuple_get<_Indices1>(_STD move(_Val1))...),

  002d2	8b 4d b8	 mov	 ecx, DWORD PTR _objid$1$[ebp]
; File C:\Program Files\Microsoft Visual Studio\2022\Professional\VC\Tools\MSVC\14.44.35207\include\xmemory

; 136  :         return ::operator new(_Bytes);

  002d5	83 c4 04	 add	 esp, 4
; File C:\Program Files\Microsoft Visual Studio\2022\Professional\VC\Tools\MSVC\14.44.35207\include\xtree

; 810  :     }

  002d8	c7 45 fc ff ff
	ff ff		 mov	 DWORD PTR __$EHRec$[ebp+8], -1
; File C:\Program Files\Microsoft Visual Studio\2022\Professional\VC\Tools\MSVC\14.44.35207\include\utility

; 774  :     _Val         = static_cast<_Other&&>(_New_val);

  002df	c7 45 a4 00 00
	00 00		 mov	 DWORD PTR $T16[ebp+4], 0

; 478  :         : first(_STD _Tuple_get<_Indices1>(_STD move(_Val1))...),

  002e6	89 48 10	 mov	 DWORD PTR [eax+16], ecx
; File C:\Program Files\Microsoft Visual Studio\2022\Professional\VC\Tools\MSVC\14.44.35207\include\map

; 211  :         return {_Scary->_Insert_node(_Loc._Location, _Inserted), true};

  002e9	8b 4d c4	 mov	 ecx, DWORD PTR _this$1$[ebp]
; File C:\Program Files\Microsoft Visual Studio\2022\Professional\VC\Tools\MSVC\14.44.35207\include\utility

; 479  :           second(_STD _Tuple_get<_Indices2>(_STD move(_Val2))...) {}

  002ec	c7 40 14 00 00
	00 00		 mov	 DWORD PTR [eax+20], 0
; File C:\Program Files\Microsoft Visual Studio\2022\Professional\VC\Tools\MSVC\14.44.35207\include\map

; 211  :         return {_Scary->_Insert_node(_Loc._Location, _Inserted), true};

  002f3	50		 push	 eax
; File C:\Program Files\Microsoft Visual Studio\2022\Professional\VC\Tools\MSVC\14.44.35207\include\xtree

; 831  :         _Construct_in_place(this->_Ptr->_Left, _Myhead);

  002f4	89 30		 mov	 DWORD PTR [eax], esi

; 832  :         _Construct_in_place(this->_Ptr->_Parent, _Myhead);

  002f6	89 70 04	 mov	 DWORD PTR [eax+4], esi
; File C:\Program Files\Microsoft Visual Studio\2022\Professional\VC\Tools\MSVC\14.44.35207\include\map

; 211  :         return {_Scary->_Insert_node(_Loc._Location, _Inserted), true};

  002f9	57		 push	 edi
; File C:\Program Files\Microsoft Visual Studio\2022\Professional\VC\Tools\MSVC\14.44.35207\include\xtree

; 833  :         _Construct_in_place(this->_Ptr->_Right, _Myhead);

  002fa	89 70 08	 mov	 DWORD PTR [eax+8], esi
; File C:\Program Files\Microsoft Visual Studio\2022\Professional\VC\Tools\MSVC\14.44.35207\include\map

; 211  :         return {_Scary->_Insert_node(_Loc._Location, _Inserted), true};

  002fd	53		 push	 ebx
; File C:\Program Files\Microsoft Visual Studio\2022\Professional\VC\Tools\MSVC\14.44.35207\include\xtree

; 834  :         this->_Ptr->_Color = _Red;

  002fe	66 c7 40 0c 00
	00		 mov	 WORD PTR [eax+12], 0
; File C:\Program Files\Microsoft Visual Studio\2022\Professional\VC\Tools\MSVC\14.44.35207\include\map

; 211  :         return {_Scary->_Insert_node(_Loc._Location, _Inserted), true};

  00304	e8 00 00 00 00	 call	 ?_Insert_node@?$_Tree_val@U?$_Tree_simple_types@U?$pair@$$CBKPAVCUser@@@std@@@std@@@std@@QAEPAU?$_Tree_node@U?$pair@$$CBKPAVCUser@@@std@@PAX@2@U?$_Tree_id@PAU?$_Tree_node@U?$pair@$$CBKPAVCUser@@@std@@PAX@std@@@2@QAU32@@Z ; std::_Tree_val<std::_Tree_simple_types<std::pair<unsigned long const ,CUser *> > >::_Insert_node
  00309	8b 75 d0	 mov	 esi, DWORD PTR _pUsertmp$1$[ebp]
  0030c	8b c8		 mov	 ecx, eax
$LN783@AddItToVie:
; File C:\IAGOS\server\v18\Source\Source\WorldServer\LinkMap.cpp

; 253  : 							pUser->AddAddObj( (CCtrl*)pUsertmp );

  0030e	8b 7d 08	 mov	 edi, DWORD PTR _pCtrl$[ebp]
; File C:\IAGOS\server\v18\Source\Source\_Common\Ctrl.h

; 116  : 	m_2pc[ objid ] = (CUser *)pCtrl;

  00311	89 71 14	 mov	 DWORD PTR [ecx+20], esi
; File C:\IAGOS\server\v18\Source\Source\WorldServer\LinkMap.cpp

; 253  : 							pUser->AddAddObj( (CCtrl*)pUsertmp );

  00314	8b cf		 mov	 ecx, edi
  00316	56		 push	 esi
  00317	e8 00 00 00 00	 call	 ?AddAddObj@CUser@@QAEXPAVCCtrl@@@Z ; CUser::AddAddObj
$LN43@AddItToVie:

; 254  : 						}
; 255  : 						pUsertmp	= (CUser*)pUsertmp->GetNextNode();

  0031c	8b b6 80 01 00
	00		 mov	 esi, DWORD PTR [esi+384]
  00322	89 75 d0	 mov	 DWORD PTR _pUsertmp$1$[ebp], esi
  00325	85 f6		 test	 esi, esi
  00327	0f 85 53 fe ff
	ff		 jne	 $LL11@AddItToVie

; 246  : 					while( pUsertmp )

  0032d	8b 4d c0	 mov	 ecx, DWORD PTR _k$1$[ebp]
  00330	8b 5d b4	 mov	 ebx, DWORD PTR _apObj$1$[ebp]
  00333	8b 55 f0	 mov	 edx, DWORD PTR _nUBoundX$1$[ebp]
$LN1144@AddItToVie:

; 242  : 				for( k = nLinkX - nVisibilityRange; k <= nUBoundX; k++ )

  00336	8b 75 dc	 mov	 esi, DWORD PTR _nMaxWidth$1$[ebp]
  00339	8b 45 cc	 mov	 eax, DWORD PTR tv6007[ebp]
$LN8@AddItToVie:
  0033c	41		 inc	 ecx
  0033d	89 4d c0	 mov	 DWORD PTR _k$1$[ebp], ecx
  00340	3b ca		 cmp	 ecx, edx
  00342	0f 8e 10 fe ff
	ff		 jle	 $LL10@AddItToVie
  00348	8b 55 bc	 mov	 edx, DWORD PTR _j$1$[ebp]
$LN1147@AddItToVie:

; 239  : 			for( j = nLinkZ - nVisibilityRange; j <= nUBoundZ; j++ )

  0034b	8b 4d e0	 mov	 ecx, DWORD PTR _nMaxHeight$1$[ebp]
$LN5@AddItToVie:
  0034e	42		 inc	 edx
  0034f	03 c6		 add	 eax, esi
  00351	89 55 bc	 mov	 DWORD PTR _j$1$[ebp], edx
  00354	89 45 cc	 mov	 DWORD PTR tv6007[ebp], eax
  00357	3b 55 d4	 cmp	 edx, DWORD PTR _nUBoundZ$1$[ebp]
  0035a	0f 8e d0 fd ff
	ff		 jle	 $LL7@AddItToVie
  00360	8b 45 e8	 mov	 eax, DWORD PTR _i$1$[ebp]
  00363	8b 55 e4	 mov	 edx, DWORD PTR _this$1$[ebp]
  00366	8b 5c 82 5c	 mov	 ebx, DWORD PTR [edx+eax*4+92]
  0036a	8b 55 d8	 mov	 edx, DWORD PTR _j$5$[ebp]
  0036d	2b 55 ec	 sub	 edx, DWORD PTR _nVisibilityRange$1$[ebp]
; File C:\IAGOS\server\v18\Source\Source\WorldServer\LinkMap.h

; 78   : 	return m_infos[dwLinkType].apObj[dwLinkLevel]; 

  00370	8b c2		 mov	 eax, edx
; File C:\IAGOS\server\v18\Source\Source\WorldServer\LinkMap.cpp

; 239  : 			for( j = nLinkZ - nVisibilityRange; j <= nUBoundZ; j++ )

  00372	89 5d b8	 mov	 DWORD PTR _apObj$2$[ebp], ebx
; File C:\IAGOS\server\v18\Source\Source\WorldServer\LinkMap.h

; 78   : 	return m_infos[dwLinkType].apObj[dwLinkLevel]; 

  00375	0f af c6	 imul	 eax, esi
; File C:\IAGOS\server\v18\Source\Source\WorldServer\LinkMap.cpp

; 239  : 			for( j = nLinkZ - nVisibilityRange; j <= nUBoundZ; j++ )

  00378	89 55 c4	 mov	 DWORD PTR _j$3$[ebp], edx
; File C:\IAGOS\server\v18\Source\Source\WorldServer\LinkMap.h

; 78   : 	return m_infos[dwLinkType].apObj[dwLinkLevel]; 

  0037b	89 45 d0	 mov	 DWORD PTR tv6002[ebp], eax
  0037e	66 90		 npad	 2
$LL15@AddItToVie:
; File C:\IAGOS\server\v18\Source\Source\WorldServer\LinkMap.cpp

; 264  : 				if( j < 0 || j >= nMaxHeight )	continue;

  00380	85 d2		 test	 edx, edx
  00382	0f 88 eb 01 00
	00		 js	 $LN13@AddItToVie
  00388	3b d1		 cmp	 edx, ecx
  0038a	0f 8d e3 01 00
	00		 jge	 $LN13@AddItToVie

; 265  : 				for( k = nLinkX - nVisibilityRange; k <= nUBoundX; k++ )

  00390	8b 4d c8	 mov	 ecx, DWORD PTR _nLinkX$1$[ebp]
  00393	2b 4d ec	 sub	 ecx, DWORD PTR _nVisibilityRange$1$[ebp]
  00396	89 4d c0	 mov	 DWORD PTR _k$2$[ebp], ecx
  00399	3b 4d f0	 cmp	 ecx, DWORD PTR _nUBoundX$1$[ebp]
  0039c	0f 8f d1 01 00
	00		 jg	 $LN13@AddItToVie
  003a2	8b 55 f0	 mov	 edx, DWORD PTR _nUBoundX$1$[ebp]
$LL18@AddItToVie:

; 266  : 				{
; 267  : 					if( k < 0 || k >= nMaxWidth )	continue;

  003a5	85 c9		 test	 ecx, ecx
  003a7	0f 88 b7 01 00
	00		 js	 $LN16@AddItToVie
  003ad	3b ce		 cmp	 ecx, esi
  003af	0f 8d af 01 00
	00		 jge	 $LN16@AddItToVie

; 268  : 					pCtrltmp	= (CCtrl*)apObj[j * nMaxWidth + k];

  003b5	03 c1		 add	 eax, ecx
  003b7	8b 34 83	 mov	 esi, DWORD PTR [ebx+eax*4]
  003ba	89 75 cc	 mov	 DWORD PTR _pCtrltmp$1$[ebp], esi

; 269  : 					while( pCtrltmp )

  003bd	85 f6		 test	 esi, esi
  003bf	0f 84 99 01 00
	00		 je	 $LN1143@AddItToVie
$LL19@AddItToVie:
; File C:\IAGOS\server\v18\Source\Source\_Common\Obj.h

; 180  : 	BOOL			IsDelete()	{ return (m_dwFlags & OBJ_FLAG_DELETE);  }

  003c5	f6 46 04 01	 test	 BYTE PTR [esi+4], 1
; File C:\IAGOS\server\v18\Source\Source\WorldServer\LinkMap.cpp

; 271  : 						if( !pCtrltmp->IsDelete() )

  003c9	0f 85 75 01 00
	00		 jne	 $LN48@AddItToVie
; File C:\Program Files\Microsoft Visual Studio\2022\Professional\VC\Tools\MSVC\14.44.35207\include\xtree

; 1630 :         _Tree_find_result<_Nodeptr> _Result{{_Scary->_Myhead->_Parent, _Tree_child::_Right}, _Scary->_Myhead};

  003cf	8b 8e 0c 02 00
	00		 mov	 ecx, DWORD PTR [esi+524]
; File C:\IAGOS\server\v18\Source\Source\_Common\Ctrl.h

; 116  : 	m_2pc[ objid ] = (CUser *)pCtrl;

  003d5	8d 86 0c 02 00
	00		 lea	 eax, DWORD PTR [esi+524]
; File C:\IAGOS\server\v18\Source\Source\WorldServer\LinkMap.cpp

; 273  : 							pCtrltmp->PCSetAt( pUser->GetId(), (CCtrl*)pUser );

  003db	8b 97 bc 01 00
	00		 mov	 edx, DWORD PTR [edi+444]
; File C:\Program Files\Microsoft Visual Studio\2022\Professional\VC\Tools\MSVC\14.44.35207\include\xtree

; 1630 :         _Tree_find_result<_Nodeptr> _Result{{_Scary->_Myhead->_Parent, _Tree_child::_Right}, _Scary->_Myhead};

  003e1	33 ff		 xor	 edi, edi
; File C:\IAGOS\server\v18\Source\Source\WorldServer\LinkMap.cpp

; 273  : 							pCtrltmp->PCSetAt( pUser->GetId(), (CCtrl*)pUser );

  003e3	89 55 b4	 mov	 DWORD PTR _objid$1$[ebp], edx
; File C:\IAGOS\server\v18\Source\Source\_Common\Ctrl.h

; 116  : 	m_2pc[ objid ] = (CUser *)pCtrl;

  003e6	89 45 bc	 mov	 DWORD PTR _this$1$[ebp], eax
; File C:\Program Files\Microsoft Visual Studio\2022\Professional\VC\Tools\MSVC\14.44.35207\include\xtree

; 1630 :         _Tree_find_result<_Nodeptr> _Result{{_Scary->_Myhead->_Parent, _Tree_child::_Right}, _Scary->_Myhead};

  003e9	8b 59 04	 mov	 ebx, DWORD PTR [ecx+4]

; 1632 :         while (!_Trynode->_Isnil) {

  003ec	80 7b 0d 00	 cmp	 BYTE PTR [ebx+13], 0
  003f0	75 22		 jne	 SHORT $LN311@AddItToVie
; File C:\IAGOS\server\v18\Source\Source\WorldServer\LinkMap.cpp

; 262  : 			for( j = nLinkZ - nVisibilityRange; j <= nUBoundZ; j++ )

  003f2	8b c3		 mov	 eax, ebx
$LL310@AddItToVie:
; File C:\Program Files\Microsoft Visual Studio\2022\Professional\VC\Tools\MSVC\14.44.35207\include\xtree

; 1633 :             _Result._Location._Parent = _Trynode;

  003f4	8b d8		 mov	 ebx, eax
; File C:\Program Files\Microsoft Visual Studio\2022\Professional\VC\Tools\MSVC\14.44.35207\include\type_traits

; 2380 :         return _Left < _Right;

  003f6	39 50 10	 cmp	 DWORD PTR [eax+16], edx
; File C:\Program Files\Microsoft Visual Studio\2022\Professional\VC\Tools\MSVC\14.44.35207\include\xtree

; 1634 :             if (_DEBUG_LT_PRED(_Getcomp(), _Traits::_Kfn(_Trynode->_Myval), _Keyval)) {

  003f9	73 07		 jae	 SHORT $LN312@AddItToVie

; 1635 :                 _Result._Location._Child = _Tree_child::_Right;
; 1636 :                 _Trynode                 = _Trynode->_Right;

  003fb	8b 40 08	 mov	 eax, DWORD PTR [eax+8]
  003fe	33 ff		 xor	 edi, edi

; 1637 :             } else {

  00400	eb 09		 jmp	 SHORT $LN313@AddItToVie
$LN312@AddItToVie:

; 1638 :                 _Result._Location._Child = _Tree_child::_Left;
; 1639 :                 _Result._Bound           = _Trynode;

  00402	8b c8		 mov	 ecx, eax
  00404	bf 01 00 00 00	 mov	 edi, 1

; 1640 :                 _Trynode                 = _Trynode->_Left;

  00409	8b 00		 mov	 eax, DWORD PTR [eax]
$LN313@AddItToVie:

; 1632 :         while (!_Trynode->_Isnil) {

  0040b	80 78 0d 00	 cmp	 BYTE PTR [eax+13], 0
  0040f	74 e3		 je	 SHORT $LL310@AddItToVie
  00411	8b 45 bc	 mov	 eax, DWORD PTR _this$1$[ebp]
$LN311@AddItToVie:

; 1624 :         return !_Bound->_Isnil && !_DEBUG_LT_PRED(_Getcomp(), _Keyval, _Traits::_Kfn(_Bound->_Myval));

  00414	80 79 0d 00	 cmp	 BYTE PTR [ecx+13], 0
  00418	75 05		 jne	 SHORT $LN306@AddItToVie
; File C:\Program Files\Microsoft Visual Studio\2022\Professional\VC\Tools\MSVC\14.44.35207\include\type_traits

; 2380 :         return _Left < _Right;

  0041a	3b 51 10	 cmp	 edx, DWORD PTR [ecx+16]
; File C:\Program Files\Microsoft Visual Studio\2022\Professional\VC\Tools\MSVC\14.44.35207\include\xtree

; 1624 :         return !_Bound->_Isnil && !_DEBUG_LT_PRED(_Getcomp(), _Keyval, _Traits::_Kfn(_Bound->_Myval));

  0041d	73 63		 jae	 SHORT $LN305@AddItToVie
$LN306@AddItToVie:

; 1648 :         if (max_size() == _Get_scary()->_Mysize) {

  0041f	81 78 04 aa aa
	aa 0a		 cmp	 DWORD PTR [eax+4], 178956970 ; 0aaaaaaaH
  00426	0f 84 8c 06 00
	00		 je	 $LN1050@AddItToVie
; File C:\Program Files\Microsoft Visual Studio\2022\Professional\VC\Tools\MSVC\14.44.35207\include\map

; 205  :         const auto _Inserted = _Tree_temp_node<_Alnode>(_Mybase::_Getal(), _Scary->_Myhead, piecewise_construct,

  0042c	8b 30		 mov	 esi, DWORD PTR [eax]
; File C:\Program Files\Microsoft Visual Studio\2022\Professional\VC\Tools\MSVC\14.44.35207\include\xmemory

; 1160 :     _CONSTEXPR20 explicit _Alloc_construct_ptr(_Alloc& _Al_) : _Al(_Al_), _Ptr(nullptr) {}

  0042e	89 45 98	 mov	 DWORD PTR $T15[ebp], eax

; 136  :         return ::operator new(_Bytes);

  00431	6a 18		 push	 24			; 00000018H
; File C:\Program Files\Microsoft Visual Studio\2022\Professional\VC\Tools\MSVC\14.44.35207\include\xtree

; 808  :     explicit _Tree_temp_node_alloc(_Alnode& _Al_) : _Alloc_construct_ptr<_Alnode>(_Al_) {

  00433	c7 45 fc 02 00
	00 00		 mov	 DWORD PTR __$EHRec$[ebp+8], 2
; File C:\Program Files\Microsoft Visual Studio\2022\Professional\VC\Tools\MSVC\14.44.35207\include\xmemory

; 1167 :         _Ptr = nullptr; // if allocate throws, prevents double-free

  0043a	c7 45 9c 00 00
	00 00		 mov	 DWORD PTR $T15[ebp+4], 0

; 136  :         return ::operator new(_Bytes);

  00441	e8 00 00 00 00	 call	 ??2@YAPAXI@Z		; operator new
; File C:\Program Files\Microsoft Visual Studio\2022\Professional\VC\Tools\MSVC\14.44.35207\include\utility

; 478  :         : first(_STD _Tuple_get<_Indices1>(_STD move(_Val1))...),

  00446	8b 4d b4	 mov	 ecx, DWORD PTR _objid$1$[ebp]
; File C:\Program Files\Microsoft Visual Studio\2022\Professional\VC\Tools\MSVC\14.44.35207\include\xmemory

; 136  :         return ::operator new(_Bytes);

  00449	83 c4 04	 add	 esp, 4
; File C:\Program Files\Microsoft Visual Studio\2022\Professional\VC\Tools\MSVC\14.44.35207\include\xtree

; 810  :     }

  0044c	c7 45 fc ff ff
	ff ff		 mov	 DWORD PTR __$EHRec$[ebp+8], -1
; File C:\Program Files\Microsoft Visual Studio\2022\Professional\VC\Tools\MSVC\14.44.35207\include\utility

; 774  :     _Val         = static_cast<_Other&&>(_New_val);

  00453	c7 45 9c 00 00
	00 00		 mov	 DWORD PTR $T15[ebp+4], 0

; 478  :         : first(_STD _Tuple_get<_Indices1>(_STD move(_Val1))...),

  0045a	89 48 10	 mov	 DWORD PTR [eax+16], ecx
; File C:\Program Files\Microsoft Visual Studio\2022\Professional\VC\Tools\MSVC\14.44.35207\include\map

; 211  :         return {_Scary->_Insert_node(_Loc._Location, _Inserted), true};

  0045d	8b 4d bc	 mov	 ecx, DWORD PTR _this$1$[ebp]
; File C:\Program Files\Microsoft Visual Studio\2022\Professional\VC\Tools\MSVC\14.44.35207\include\utility

; 479  :           second(_STD _Tuple_get<_Indices2>(_STD move(_Val2))...) {}

  00460	c7 40 14 00 00
	00 00		 mov	 DWORD PTR [eax+20], 0
; File C:\Program Files\Microsoft Visual Studio\2022\Professional\VC\Tools\MSVC\14.44.35207\include\map

; 211  :         return {_Scary->_Insert_node(_Loc._Location, _Inserted), true};

  00467	50		 push	 eax
; File C:\Program Files\Microsoft Visual Studio\2022\Professional\VC\Tools\MSVC\14.44.35207\include\xtree

; 831  :         _Construct_in_place(this->_Ptr->_Left, _Myhead);

  00468	89 30		 mov	 DWORD PTR [eax], esi

; 832  :         _Construct_in_place(this->_Ptr->_Parent, _Myhead);

  0046a	89 70 04	 mov	 DWORD PTR [eax+4], esi
; File C:\Program Files\Microsoft Visual Studio\2022\Professional\VC\Tools\MSVC\14.44.35207\include\map

; 211  :         return {_Scary->_Insert_node(_Loc._Location, _Inserted), true};

  0046d	57		 push	 edi
; File C:\Program Files\Microsoft Visual Studio\2022\Professional\VC\Tools\MSVC\14.44.35207\include\xtree

; 833  :         _Construct_in_place(this->_Ptr->_Right, _Myhead);

  0046e	89 70 08	 mov	 DWORD PTR [eax+8], esi
; File C:\Program Files\Microsoft Visual Studio\2022\Professional\VC\Tools\MSVC\14.44.35207\include\map

; 211  :         return {_Scary->_Insert_node(_Loc._Location, _Inserted), true};

  00471	53		 push	 ebx
; File C:\Program Files\Microsoft Visual Studio\2022\Professional\VC\Tools\MSVC\14.44.35207\include\xtree

; 834  :         this->_Ptr->_Color = _Red;

  00472	66 c7 40 0c 00
	00		 mov	 WORD PTR [eax+12], 0
; File C:\Program Files\Microsoft Visual Studio\2022\Professional\VC\Tools\MSVC\14.44.35207\include\map

; 211  :         return {_Scary->_Insert_node(_Loc._Location, _Inserted), true};

  00478	e8 00 00 00 00	 call	 ?_Insert_node@?$_Tree_val@U?$_Tree_simple_types@U?$pair@$$CBKPAVCUser@@@std@@@std@@@std@@QAEPAU?$_Tree_node@U?$pair@$$CBKPAVCUser@@@std@@PAX@2@U?$_Tree_id@PAU?$_Tree_node@U?$pair@$$CBKPAVCUser@@@std@@PAX@std@@@2@QAU32@@Z ; std::_Tree_val<std::_Tree_simple_types<std::pair<unsigned long const ,CUser *> > >::_Insert_node
  0047d	8b 75 cc	 mov	 esi, DWORD PTR _pCtrltmp$1$[ebp]
  00480	8b c8		 mov	 ecx, eax
$LN305@AddItToVie:
; File C:\IAGOS\server\v18\Source\Source\_Common\Ctrl.h

; 116  : 	m_2pc[ objid ] = (CUser *)pCtrl;

  00482	8b 45 08	 mov	 eax, DWORD PTR _pCtrl$[ebp]
; File C:\Program Files\Microsoft Visual Studio\2022\Professional\VC\Tools\MSVC\14.44.35207\include\xtree

; 1630 :         _Tree_find_result<_Nodeptr> _Result{{_Scary->_Myhead->_Parent, _Tree_child::_Right}, _Scary->_Myhead};

  00485	33 ff		 xor	 edi, edi
; File C:\IAGOS\server\v18\Source\Source\_Common\Ctrl.h

; 116  : 	m_2pc[ objid ] = (CUser *)pCtrl;

  00487	89 41 14	 mov	 DWORD PTR [ecx+20], eax
; File C:\IAGOS\server\v18\Source\Source\WorldServer\user.h

; 207  : 	void			NPCSetAt( OBJID objid, CCtrl* pCtrl )	{	m_2npc[objid] = pCtrl;	}

  0048a	05 68 55 00 00	 add	 eax, 21864		; 00005568H
; File C:\IAGOS\server\v18\Source\Source\WorldServer\LinkMap.cpp

; 274  : 							pUser->NPCSetAt( pCtrltmp->GetId(), pCtrltmp );

  0048f	8b 96 bc 01 00
	00		 mov	 edx, DWORD PTR [esi+444]
  00495	89 55 b4	 mov	 DWORD PTR _objid$1$[ebp], edx
; File C:\IAGOS\server\v18\Source\Source\WorldServer\user.h

; 207  : 	void			NPCSetAt( OBJID objid, CCtrl* pCtrl )	{	m_2npc[objid] = pCtrl;	}

  00498	89 45 bc	 mov	 DWORD PTR _this$1$[ebp], eax
; File C:\Program Files\Microsoft Visual Studio\2022\Professional\VC\Tools\MSVC\14.44.35207\include\xtree

; 1630 :         _Tree_find_result<_Nodeptr> _Result{{_Scary->_Myhead->_Parent, _Tree_child::_Right}, _Scary->_Myhead};

  0049b	8b 08		 mov	 ecx, DWORD PTR [eax]
  0049d	8b 59 04	 mov	 ebx, DWORD PTR [ecx+4]

; 1632 :         while (!_Trynode->_Isnil) {

  004a0	80 7b 0d 00	 cmp	 BYTE PTR [ebx+13], 0
  004a4	75 22		 jne	 SHORT $LN428@AddItToVie
; File C:\IAGOS\server\v18\Source\Source\WorldServer\LinkMap.cpp

; 262  : 			for( j = nLinkZ - nVisibilityRange; j <= nUBoundZ; j++ )

  004a6	8b c3		 mov	 eax, ebx
$LL427@AddItToVie:
; File C:\Program Files\Microsoft Visual Studio\2022\Professional\VC\Tools\MSVC\14.44.35207\include\xtree

; 1633 :             _Result._Location._Parent = _Trynode;

  004a8	8b d8		 mov	 ebx, eax
; File C:\Program Files\Microsoft Visual Studio\2022\Professional\VC\Tools\MSVC\14.44.35207\include\type_traits

; 2380 :         return _Left < _Right;

  004aa	39 50 10	 cmp	 DWORD PTR [eax+16], edx
; File C:\Program Files\Microsoft Visual Studio\2022\Professional\VC\Tools\MSVC\14.44.35207\include\xtree

; 1634 :             if (_DEBUG_LT_PRED(_Getcomp(), _Traits::_Kfn(_Trynode->_Myval), _Keyval)) {

  004ad	73 07		 jae	 SHORT $LN429@AddItToVie

; 1635 :                 _Result._Location._Child = _Tree_child::_Right;
; 1636 :                 _Trynode                 = _Trynode->_Right;

  004af	8b 40 08	 mov	 eax, DWORD PTR [eax+8]
  004b2	33 ff		 xor	 edi, edi

; 1637 :             } else {

  004b4	eb 09		 jmp	 SHORT $LN430@AddItToVie
$LN429@AddItToVie:

; 1638 :                 _Result._Location._Child = _Tree_child::_Left;
; 1639 :                 _Result._Bound           = _Trynode;

  004b6	8b c8		 mov	 ecx, eax
  004b8	bf 01 00 00 00	 mov	 edi, 1

; 1640 :                 _Trynode                 = _Trynode->_Left;

  004bd	8b 00		 mov	 eax, DWORD PTR [eax]
$LN430@AddItToVie:

; 1632 :         while (!_Trynode->_Isnil) {

  004bf	80 78 0d 00	 cmp	 BYTE PTR [eax+13], 0
  004c3	74 e3		 je	 SHORT $LL427@AddItToVie
  004c5	8b 45 bc	 mov	 eax, DWORD PTR _this$1$[ebp]
$LN428@AddItToVie:

; 1624 :         return !_Bound->_Isnil && !_DEBUG_LT_PRED(_Getcomp(), _Keyval, _Traits::_Kfn(_Bound->_Myval));

  004c8	80 79 0d 00	 cmp	 BYTE PTR [ecx+13], 0
  004cc	75 05		 jne	 SHORT $LN423@AddItToVie
; File C:\Program Files\Microsoft Visual Studio\2022\Professional\VC\Tools\MSVC\14.44.35207\include\type_traits

; 2380 :         return _Left < _Right;

  004ce	3b 51 10	 cmp	 edx, DWORD PTR [ecx+16]
; File C:\Program Files\Microsoft Visual Studio\2022\Professional\VC\Tools\MSVC\14.44.35207\include\xtree

; 1624 :         return !_Bound->_Isnil && !_DEBUG_LT_PRED(_Getcomp(), _Keyval, _Traits::_Kfn(_Bound->_Myval));

  004d1	73 63		 jae	 SHORT $LN422@AddItToVie
$LN423@AddItToVie:

; 1648 :         if (max_size() == _Get_scary()->_Mysize) {

  004d3	81 78 04 aa aa
	aa 0a		 cmp	 DWORD PTR [eax+4], 178956970 ; 0aaaaaaaH
  004da	0f 84 d8 05 00
	00		 je	 $LN1050@AddItToVie
; File C:\Program Files\Microsoft Visual Studio\2022\Professional\VC\Tools\MSVC\14.44.35207\include\map

; 205  :         const auto _Inserted = _Tree_temp_node<_Alnode>(_Mybase::_Getal(), _Scary->_Myhead, piecewise_construct,

  004e0	8b 30		 mov	 esi, DWORD PTR [eax]
; File C:\Program Files\Microsoft Visual Studio\2022\Professional\VC\Tools\MSVC\14.44.35207\include\xmemory

; 1160 :     _CONSTEXPR20 explicit _Alloc_construct_ptr(_Alloc& _Al_) : _Al(_Al_), _Ptr(nullptr) {}

  004e2	89 45 90	 mov	 DWORD PTR $T14[ebp], eax

; 136  :         return ::operator new(_Bytes);

  004e5	6a 18		 push	 24			; 00000018H
; File C:\Program Files\Microsoft Visual Studio\2022\Professional\VC\Tools\MSVC\14.44.35207\include\xtree

; 808  :     explicit _Tree_temp_node_alloc(_Alnode& _Al_) : _Alloc_construct_ptr<_Alnode>(_Al_) {

  004e7	c7 45 fc 03 00
	00 00		 mov	 DWORD PTR __$EHRec$[ebp+8], 3
; File C:\Program Files\Microsoft Visual Studio\2022\Professional\VC\Tools\MSVC\14.44.35207\include\xmemory

; 1167 :         _Ptr = nullptr; // if allocate throws, prevents double-free

  004ee	c7 45 94 00 00
	00 00		 mov	 DWORD PTR $T14[ebp+4], 0

; 136  :         return ::operator new(_Bytes);

  004f5	e8 00 00 00 00	 call	 ??2@YAPAXI@Z		; operator new
; File C:\Program Files\Microsoft Visual Studio\2022\Professional\VC\Tools\MSVC\14.44.35207\include\utility

; 478  :         : first(_STD _Tuple_get<_Indices1>(_STD move(_Val1))...),

  004fa	8b 4d b4	 mov	 ecx, DWORD PTR _objid$1$[ebp]
; File C:\Program Files\Microsoft Visual Studio\2022\Professional\VC\Tools\MSVC\14.44.35207\include\xmemory

; 136  :         return ::operator new(_Bytes);

  004fd	83 c4 04	 add	 esp, 4
; File C:\Program Files\Microsoft Visual Studio\2022\Professional\VC\Tools\MSVC\14.44.35207\include\xtree

; 810  :     }

  00500	c7 45 fc ff ff
	ff ff		 mov	 DWORD PTR __$EHRec$[ebp+8], -1
; File C:\Program Files\Microsoft Visual Studio\2022\Professional\VC\Tools\MSVC\14.44.35207\include\utility

; 774  :     _Val         = static_cast<_Other&&>(_New_val);

  00507	c7 45 94 00 00
	00 00		 mov	 DWORD PTR $T14[ebp+4], 0

; 478  :         : first(_STD _Tuple_get<_Indices1>(_STD move(_Val1))...),

  0050e	89 48 10	 mov	 DWORD PTR [eax+16], ecx
; File C:\Program Files\Microsoft Visual Studio\2022\Professional\VC\Tools\MSVC\14.44.35207\include\map

; 211  :         return {_Scary->_Insert_node(_Loc._Location, _Inserted), true};

  00511	8b 4d bc	 mov	 ecx, DWORD PTR _this$1$[ebp]
; File C:\Program Files\Microsoft Visual Studio\2022\Professional\VC\Tools\MSVC\14.44.35207\include\utility

; 479  :           second(_STD _Tuple_get<_Indices2>(_STD move(_Val2))...) {}

  00514	c7 40 14 00 00
	00 00		 mov	 DWORD PTR [eax+20], 0
; File C:\Program Files\Microsoft Visual Studio\2022\Professional\VC\Tools\MSVC\14.44.35207\include\map

; 211  :         return {_Scary->_Insert_node(_Loc._Location, _Inserted), true};

  0051b	50		 push	 eax
; File C:\Program Files\Microsoft Visual Studio\2022\Professional\VC\Tools\MSVC\14.44.35207\include\xtree

; 831  :         _Construct_in_place(this->_Ptr->_Left, _Myhead);

  0051c	89 30		 mov	 DWORD PTR [eax], esi

; 832  :         _Construct_in_place(this->_Ptr->_Parent, _Myhead);

  0051e	89 70 04	 mov	 DWORD PTR [eax+4], esi
; File C:\Program Files\Microsoft Visual Studio\2022\Professional\VC\Tools\MSVC\14.44.35207\include\map

; 211  :         return {_Scary->_Insert_node(_Loc._Location, _Inserted), true};

  00521	57		 push	 edi
; File C:\Program Files\Microsoft Visual Studio\2022\Professional\VC\Tools\MSVC\14.44.35207\include\xtree

; 833  :         _Construct_in_place(this->_Ptr->_Right, _Myhead);

  00522	89 70 08	 mov	 DWORD PTR [eax+8], esi
; File C:\Program Files\Microsoft Visual Studio\2022\Professional\VC\Tools\MSVC\14.44.35207\include\map

; 211  :         return {_Scary->_Insert_node(_Loc._Location, _Inserted), true};

  00525	53		 push	 ebx
; File C:\Program Files\Microsoft Visual Studio\2022\Professional\VC\Tools\MSVC\14.44.35207\include\xtree

; 834  :         this->_Ptr->_Color = _Red;

  00526	66 c7 40 0c 00
	00		 mov	 WORD PTR [eax+12], 0
; File C:\Program Files\Microsoft Visual Studio\2022\Professional\VC\Tools\MSVC\14.44.35207\include\map

; 211  :         return {_Scary->_Insert_node(_Loc._Location, _Inserted), true};

  0052c	e8 00 00 00 00	 call	 ?_Insert_node@?$_Tree_val@U?$_Tree_simple_types@U?$pair@$$CBKPAVCCtrl@@@std@@@std@@@std@@QAEPAU?$_Tree_node@U?$pair@$$CBKPAVCCtrl@@@std@@PAX@2@U?$_Tree_id@PAU?$_Tree_node@U?$pair@$$CBKPAVCCtrl@@@std@@PAX@std@@@2@QAU32@@Z ; std::_Tree_val<std::_Tree_simple_types<std::pair<unsigned long const ,CCtrl *> > >::_Insert_node
  00531	8b 75 cc	 mov	 esi, DWORD PTR _pCtrltmp$1$[ebp]
  00534	8b c8		 mov	 ecx, eax
$LN422@AddItToVie:
; File C:\IAGOS\server\v18\Source\Source\WorldServer\LinkMap.cpp

; 275  : 							pUser->AddAddObj( pCtrltmp );

  00536	8b 7d 08	 mov	 edi, DWORD PTR _pCtrl$[ebp]
; File C:\IAGOS\server\v18\Source\Source\WorldServer\user.h

; 207  : 	void			NPCSetAt( OBJID objid, CCtrl* pCtrl )	{	m_2npc[objid] = pCtrl;	}

  00539	89 71 14	 mov	 DWORD PTR [ecx+20], esi
; File C:\IAGOS\server\v18\Source\Source\WorldServer\LinkMap.cpp

; 275  : 							pUser->AddAddObj( pCtrltmp );

  0053c	8b cf		 mov	 ecx, edi
  0053e	56		 push	 esi
  0053f	e8 00 00 00 00	 call	 ?AddAddObj@CUser@@QAEXPAVCCtrl@@@Z ; CUser::AddAddObj
$LN48@AddItToVie:

; 276  : 						}
; 277  : 						pCtrltmp	= (CCtrl*)pCtrltmp->GetNextNode();

  00544	8b b6 80 01 00
	00		 mov	 esi, DWORD PTR [esi+384]
  0054a	89 75 cc	 mov	 DWORD PTR _pCtrltmp$1$[ebp], esi
  0054d	85 f6		 test	 esi, esi
  0054f	0f 85 70 fe ff
	ff		 jne	 $LL19@AddItToVie

; 269  : 					while( pCtrltmp )

  00555	8b 4d c0	 mov	 ecx, DWORD PTR _k$2$[ebp]
  00558	8b 5d b8	 mov	 ebx, DWORD PTR _apObj$2$[ebp]
  0055b	8b 55 f0	 mov	 edx, DWORD PTR _nUBoundX$1$[ebp]
$LN1143@AddItToVie:

; 265  : 				for( k = nLinkX - nVisibilityRange; k <= nUBoundX; k++ )

  0055e	8b 75 dc	 mov	 esi, DWORD PTR _nMaxWidth$1$[ebp]
  00561	8b 45 d0	 mov	 eax, DWORD PTR tv6002[ebp]
$LN16@AddItToVie:
  00564	41		 inc	 ecx
  00565	89 4d c0	 mov	 DWORD PTR _k$2$[ebp], ecx
  00568	3b ca		 cmp	 ecx, edx
  0056a	0f 8e 35 fe ff
	ff		 jle	 $LL18@AddItToVie
  00570	8b 55 c4	 mov	 edx, DWORD PTR _j$3$[ebp]
$LN13@AddItToVie:

; 262  : 			for( j = nLinkZ - nVisibilityRange; j <= nUBoundZ; j++ )

  00573	8b 4d e0	 mov	 ecx, DWORD PTR _nMaxHeight$1$[ebp]
  00576	42		 inc	 edx
  00577	03 c6		 add	 eax, esi
  00579	89 55 c4	 mov	 DWORD PTR _j$3$[ebp], edx
  0057c	89 45 d0	 mov	 DWORD PTR tv6002[ebp], eax
  0057f	3b 55 d4	 cmp	 edx, DWORD PTR _nUBoundZ$1$[ebp]
  00582	0f 8e f8 fd ff
	ff		 jle	 $LL15@AddItToVie
  00588	8b 45 e8	 mov	 eax, DWORD PTR _i$1$[ebp]
  0058b	8b 4d e4	 mov	 ecx, DWORD PTR _this$1$[ebp]
  0058e	8b 5d ec	 mov	 ebx, DWORD PTR _nVisibilityRange$1$[ebp]
  00591	8b 94 81 d4 00
	00 00		 mov	 edx, DWORD PTR [ecx+eax*4+212]
  00598	8b 4d d8	 mov	 ecx, DWORD PTR _j$5$[ebp]
  0059b	2b cb		 sub	 ecx, ebx
  0059d	89 55 c4	 mov	 DWORD PTR _apObj$3$[ebp], edx
; File C:\IAGOS\server\v18\Source\Source\WorldServer\LinkMap.h

; 78   : 	return m_infos[dwLinkType].apObj[dwLinkLevel]; 

  005a0	8b c1		 mov	 eax, ecx
; File C:\IAGOS\server\v18\Source\Source\WorldServer\LinkMap.cpp

; 262  : 			for( j = nLinkZ - nVisibilityRange; j <= nUBoundZ; j++ )

  005a2	89 4d d8	 mov	 DWORD PTR _j$5$[ebp], ecx
; File C:\IAGOS\server\v18\Source\Source\WorldServer\LinkMap.h

; 78   : 	return m_infos[dwLinkType].apObj[dwLinkLevel]; 

  005a5	0f af c6	 imul	 eax, esi
  005a8	89 45 d0	 mov	 DWORD PTR tv6000[ebp], eax
  005ab	0f 1f 44 00 00	 npad	 5
$LL23@AddItToVie:
; File C:\IAGOS\server\v18\Source\Source\WorldServer\LinkMap.cpp

; 286  : 				if( j < 0 || j >= nMaxHeight )	continue;

  005b0	85 c9		 test	 ecx, ecx
  005b2	0f 88 f6 01 00
	00		 js	 $LN21@AddItToVie
  005b8	3b 4d e0	 cmp	 ecx, DWORD PTR _nMaxHeight$1$[ebp]
  005bb	0f 8d ed 01 00
	00		 jge	 $LN21@AddItToVie

; 287  : 				for( k = nLinkX - nVisibilityRange; k <= nUBoundX; k++ )

  005c1	8b 4d c8	 mov	 ecx, DWORD PTR _nLinkX$1$[ebp]
  005c4	2b cb		 sub	 ecx, ebx
  005c6	8b 5d f0	 mov	 ebx, DWORD PTR _nUBoundX$1$[ebp]
  005c9	89 4d c0	 mov	 DWORD PTR _k$3$[ebp], ecx
  005cc	3b cb		 cmp	 ecx, ebx
  005ce	0f 8f d4 01 00
	00		 jg	 $LN1146@AddItToVie
$LL26@AddItToVie:

; 288  : 				{
; 289  : 					if( k < 0 || k >= nMaxWidth )	continue;

  005d4	85 c9		 test	 ecx, ecx
  005d6	0f 88 c0 01 00
	00		 js	 $LN24@AddItToVie
  005dc	3b ce		 cmp	 ecx, esi
  005de	0f 8d b8 01 00
	00		 jge	 $LN24@AddItToVie

; 290  : 					pCtrltmp	= (CCtrl*)apObj[j * nMaxWidth + k];

  005e4	03 c1		 add	 eax, ecx
  005e6	8b 34 82	 mov	 esi, DWORD PTR [edx+eax*4]
  005e9	89 75 cc	 mov	 DWORD PTR _pCtrltmp$2$[ebp], esi

; 291  : 					while( pCtrltmp )

  005ec	85 f6		 test	 esi, esi
  005ee	0f 84 a2 01 00
	00		 je	 $LN1142@AddItToVie
$LL27@AddItToVie:
; File C:\IAGOS\server\v18\Source\Source\_Common\Obj.h

; 180  : 	BOOL			IsDelete()	{ return (m_dwFlags & OBJ_FLAG_DELETE);  }

  005f4	f6 46 04 01	 test	 BYTE PTR [esi+4], 1
; File C:\IAGOS\server\v18\Source\Source\WorldServer\LinkMap.cpp

; 293  : 						if( !pCtrltmp->IsDelete() )

  005f8	0f 85 7e 01 00
	00		 jne	 $LN53@AddItToVie
; File C:\Program Files\Microsoft Visual Studio\2022\Professional\VC\Tools\MSVC\14.44.35207\include\xtree

; 1630 :         _Tree_find_result<_Nodeptr> _Result{{_Scary->_Myhead->_Parent, _Tree_child::_Right}, _Scary->_Myhead};

  005fe	8b 8e 0c 02 00
	00		 mov	 ecx, DWORD PTR [esi+524]
; File C:\IAGOS\server\v18\Source\Source\_Common\Ctrl.h

; 116  : 	m_2pc[ objid ] = (CUser *)pCtrl;

  00604	8d 86 0c 02 00
	00		 lea	 eax, DWORD PTR [esi+524]
; File C:\IAGOS\server\v18\Source\Source\WorldServer\LinkMap.cpp

; 295  : 							pCtrltmp->PCSetAt( pUser->GetId(), (CCtrl*)pUser );

  0060a	8b 97 bc 01 00
	00		 mov	 edx, DWORD PTR [edi+444]
; File C:\Program Files\Microsoft Visual Studio\2022\Professional\VC\Tools\MSVC\14.44.35207\include\xtree

; 1630 :         _Tree_find_result<_Nodeptr> _Result{{_Scary->_Myhead->_Parent, _Tree_child::_Right}, _Scary->_Myhead};

  00610	33 ff		 xor	 edi, edi
; File C:\IAGOS\server\v18\Source\Source\WorldServer\LinkMap.cpp

; 295  : 							pCtrltmp->PCSetAt( pUser->GetId(), (CCtrl*)pUser );

  00612	89 55 b4	 mov	 DWORD PTR _objid$1$[ebp], edx
; File C:\IAGOS\server\v18\Source\Source\_Common\Ctrl.h

; 116  : 	m_2pc[ objid ] = (CUser *)pCtrl;

  00615	89 45 b8	 mov	 DWORD PTR _this$1$[ebp], eax
; File C:\Program Files\Microsoft Visual Studio\2022\Professional\VC\Tools\MSVC\14.44.35207\include\xtree

; 1630 :         _Tree_find_result<_Nodeptr> _Result{{_Scary->_Myhead->_Parent, _Tree_child::_Right}, _Scary->_Myhead};

  00618	8b 59 04	 mov	 ebx, DWORD PTR [ecx+4]

; 1632 :         while (!_Trynode->_Isnil) {

  0061b	80 7b 0d 00	 cmp	 BYTE PTR [ebx+13], 0
  0061f	75 25		 jne	 SHORT $LN192@AddItToVie
; File C:\IAGOS\server\v18\Source\Source\WorldServer\LinkMap.cpp

; 284  : 			for( j = nLinkZ - nVisibilityRange; j <= nUBoundZ; j++ )

  00621	8b c3		 mov	 eax, ebx
$LL191@AddItToVie:
; File C:\Program Files\Microsoft Visual Studio\2022\Professional\VC\Tools\MSVC\14.44.35207\include\xtree

; 1633 :             _Result._Location._Parent = _Trynode;

  00623	8b d8		 mov	 ebx, eax
; File C:\Program Files\Microsoft Visual Studio\2022\Professional\VC\Tools\MSVC\14.44.35207\include\type_traits

; 2380 :         return _Left < _Right;

  00625	39 50 10	 cmp	 DWORD PTR [eax+16], edx
; File C:\Program Files\Microsoft Visual Studio\2022\Professional\VC\Tools\MSVC\14.44.35207\include\xtree

; 1634 :             if (_DEBUG_LT_PRED(_Getcomp(), _Traits::_Kfn(_Trynode->_Myval), _Keyval)) {

  00628	73 07		 jae	 SHORT $LN193@AddItToVie

; 1635 :                 _Result._Location._Child = _Tree_child::_Right;
; 1636 :                 _Trynode                 = _Trynode->_Right;

  0062a	8b 40 08	 mov	 eax, DWORD PTR [eax+8]
  0062d	33 ff		 xor	 edi, edi

; 1637 :             } else {

  0062f	eb 09		 jmp	 SHORT $LN194@AddItToVie
$LN193@AddItToVie:

; 1638 :                 _Result._Location._Child = _Tree_child::_Left;
; 1639 :                 _Result._Bound           = _Trynode;

  00631	8b c8		 mov	 ecx, eax
  00633	bf 01 00 00 00	 mov	 edi, 1

; 1640 :                 _Trynode                 = _Trynode->_Left;

  00638	8b 00		 mov	 eax, DWORD PTR [eax]
$LN194@AddItToVie:

; 1632 :         while (!_Trynode->_Isnil) {

  0063a	80 78 0d 00	 cmp	 BYTE PTR [eax+13], 0
  0063e	74 e3		 je	 SHORT $LL191@AddItToVie
  00640	8d 86 0c 02 00
	00		 lea	 eax, DWORD PTR [esi+524]
$LN192@AddItToVie:

; 1624 :         return !_Bound->_Isnil && !_DEBUG_LT_PRED(_Getcomp(), _Keyval, _Traits::_Kfn(_Bound->_Myval));

  00646	80 79 0d 00	 cmp	 BYTE PTR [ecx+13], 0
  0064a	75 05		 jne	 SHORT $LN187@AddItToVie
; File C:\Program Files\Microsoft Visual Studio\2022\Professional\VC\Tools\MSVC\14.44.35207\include\type_traits

; 2380 :         return _Left < _Right;

  0064c	3b 51 10	 cmp	 edx, DWORD PTR [ecx+16]
; File C:\Program Files\Microsoft Visual Studio\2022\Professional\VC\Tools\MSVC\14.44.35207\include\xtree

; 1624 :         return !_Bound->_Isnil && !_DEBUG_LT_PRED(_Getcomp(), _Keyval, _Traits::_Kfn(_Bound->_Myval));

  0064f	73 63		 jae	 SHORT $LN186@AddItToVie
$LN187@AddItToVie:

; 1648 :         if (max_size() == _Get_scary()->_Mysize) {

  00651	81 78 04 aa aa
	aa 0a		 cmp	 DWORD PTR [eax+4], 178956970 ; 0aaaaaaaH
  00658	0f 84 5a 04 00
	00		 je	 $LN1050@AddItToVie
; File C:\Program Files\Microsoft Visual Studio\2022\Professional\VC\Tools\MSVC\14.44.35207\include\map

; 205  :         const auto _Inserted = _Tree_temp_node<_Alnode>(_Mybase::_Getal(), _Scary->_Myhead, piecewise_construct,

  0065e	8b 30		 mov	 esi, DWORD PTR [eax]
; File C:\Program Files\Microsoft Visual Studio\2022\Professional\VC\Tools\MSVC\14.44.35207\include\xmemory

; 1160 :     _CONSTEXPR20 explicit _Alloc_construct_ptr(_Alloc& _Al_) : _Al(_Al_), _Ptr(nullptr) {}

  00660	89 45 88	 mov	 DWORD PTR $T13[ebp], eax

; 136  :         return ::operator new(_Bytes);

  00663	6a 18		 push	 24			; 00000018H
; File C:\Program Files\Microsoft Visual Studio\2022\Professional\VC\Tools\MSVC\14.44.35207\include\xtree

; 808  :     explicit _Tree_temp_node_alloc(_Alnode& _Al_) : _Alloc_construct_ptr<_Alnode>(_Al_) {

  00665	c7 45 fc 04 00
	00 00		 mov	 DWORD PTR __$EHRec$[ebp+8], 4
; File C:\Program Files\Microsoft Visual Studio\2022\Professional\VC\Tools\MSVC\14.44.35207\include\xmemory

; 1167 :         _Ptr = nullptr; // if allocate throws, prevents double-free

  0066c	c7 45 8c 00 00
	00 00		 mov	 DWORD PTR $T13[ebp+4], 0

; 136  :         return ::operator new(_Bytes);

  00673	e8 00 00 00 00	 call	 ??2@YAPAXI@Z		; operator new
; File C:\Program Files\Microsoft Visual Studio\2022\Professional\VC\Tools\MSVC\14.44.35207\include\utility

; 478  :         : first(_STD _Tuple_get<_Indices1>(_STD move(_Val1))...),

  00678	8b 4d b4	 mov	 ecx, DWORD PTR _objid$1$[ebp]
; File C:\Program Files\Microsoft Visual Studio\2022\Professional\VC\Tools\MSVC\14.44.35207\include\xmemory

; 136  :         return ::operator new(_Bytes);

  0067b	83 c4 04	 add	 esp, 4
; File C:\Program Files\Microsoft Visual Studio\2022\Professional\VC\Tools\MSVC\14.44.35207\include\xtree

; 810  :     }

  0067e	c7 45 fc ff ff
	ff ff		 mov	 DWORD PTR __$EHRec$[ebp+8], -1
; File C:\Program Files\Microsoft Visual Studio\2022\Professional\VC\Tools\MSVC\14.44.35207\include\utility

; 774  :     _Val         = static_cast<_Other&&>(_New_val);

  00685	c7 45 8c 00 00
	00 00		 mov	 DWORD PTR $T13[ebp+4], 0

; 478  :         : first(_STD _Tuple_get<_Indices1>(_STD move(_Val1))...),

  0068c	89 48 10	 mov	 DWORD PTR [eax+16], ecx
; File C:\Program Files\Microsoft Visual Studio\2022\Professional\VC\Tools\MSVC\14.44.35207\include\map

; 211  :         return {_Scary->_Insert_node(_Loc._Location, _Inserted), true};

  0068f	8b 4d b8	 mov	 ecx, DWORD PTR _this$1$[ebp]
; File C:\Program Files\Microsoft Visual Studio\2022\Professional\VC\Tools\MSVC\14.44.35207\include\utility

; 479  :           second(_STD _Tuple_get<_Indices2>(_STD move(_Val2))...) {}

  00692	c7 40 14 00 00
	00 00		 mov	 DWORD PTR [eax+20], 0
; File C:\Program Files\Microsoft Visual Studio\2022\Professional\VC\Tools\MSVC\14.44.35207\include\map

; 211  :         return {_Scary->_Insert_node(_Loc._Location, _Inserted), true};

  00699	50		 push	 eax
; File C:\Program Files\Microsoft Visual Studio\2022\Professional\VC\Tools\MSVC\14.44.35207\include\xtree

; 831  :         _Construct_in_place(this->_Ptr->_Left, _Myhead);

  0069a	89 30		 mov	 DWORD PTR [eax], esi

; 832  :         _Construct_in_place(this->_Ptr->_Parent, _Myhead);

  0069c	89 70 04	 mov	 DWORD PTR [eax+4], esi
; File C:\Program Files\Microsoft Visual Studio\2022\Professional\VC\Tools\MSVC\14.44.35207\include\map

; 211  :         return {_Scary->_Insert_node(_Loc._Location, _Inserted), true};

  0069f	57		 push	 edi
; File C:\Program Files\Microsoft Visual Studio\2022\Professional\VC\Tools\MSVC\14.44.35207\include\xtree

; 833  :         _Construct_in_place(this->_Ptr->_Right, _Myhead);

  006a0	89 70 08	 mov	 DWORD PTR [eax+8], esi
; File C:\Program Files\Microsoft Visual Studio\2022\Professional\VC\Tools\MSVC\14.44.35207\include\map

; 211  :         return {_Scary->_Insert_node(_Loc._Location, _Inserted), true};

  006a3	53		 push	 ebx
; File C:\Program Files\Microsoft Visual Studio\2022\Professional\VC\Tools\MSVC\14.44.35207\include\xtree

; 834  :         this->_Ptr->_Color = _Red;

  006a4	66 c7 40 0c 00
	00		 mov	 WORD PTR [eax+12], 0
; File C:\Program Files\Microsoft Visual Studio\2022\Professional\VC\Tools\MSVC\14.44.35207\include\map

; 211  :         return {_Scary->_Insert_node(_Loc._Location, _Inserted), true};

  006aa	e8 00 00 00 00	 call	 ?_Insert_node@?$_Tree_val@U?$_Tree_simple_types@U?$pair@$$CBKPAVCUser@@@std@@@std@@@std@@QAEPAU?$_Tree_node@U?$pair@$$CBKPAVCUser@@@std@@PAX@2@U?$_Tree_id@PAU?$_Tree_node@U?$pair@$$CBKPAVCUser@@@std@@PAX@std@@@2@QAU32@@Z ; std::_Tree_val<std::_Tree_simple_types<std::pair<unsigned long const ,CUser *> > >::_Insert_node
  006af	8b 75 cc	 mov	 esi, DWORD PTR _pCtrltmp$2$[ebp]
  006b2	8b c8		 mov	 ecx, eax
$LN186@AddItToVie:
; File C:\IAGOS\server\v18\Source\Source\_Common\Ctrl.h

; 116  : 	m_2pc[ objid ] = (CUser *)pCtrl;

  006b4	8b 45 08	 mov	 eax, DWORD PTR _pCtrl$[ebp]
; File C:\Program Files\Microsoft Visual Studio\2022\Professional\VC\Tools\MSVC\14.44.35207\include\xtree

; 1630 :         _Tree_find_result<_Nodeptr> _Result{{_Scary->_Myhead->_Parent, _Tree_child::_Right}, _Scary->_Myhead};

  006b7	33 ff		 xor	 edi, edi
; File C:\IAGOS\server\v18\Source\Source\_Common\Ctrl.h

; 116  : 	m_2pc[ objid ] = (CUser *)pCtrl;

  006b9	89 41 14	 mov	 DWORD PTR [ecx+20], eax
; File C:\IAGOS\server\v18\Source\Source\WorldServer\user.h

; 207  : 	void			NPCSetAt( OBJID objid, CCtrl* pCtrl )	{	m_2npc[objid] = pCtrl;	}

  006bc	05 68 55 00 00	 add	 eax, 21864		; 00005568H
; File C:\IAGOS\server\v18\Source\Source\WorldServer\LinkMap.cpp

; 296  : 							pUser->NPCSetAt( pCtrltmp->GetId(), pCtrltmp );

  006c1	8b 96 bc 01 00
	00		 mov	 edx, DWORD PTR [esi+444]
  006c7	89 55 b4	 mov	 DWORD PTR _objid$1$[ebp], edx
; File C:\IAGOS\server\v18\Source\Source\WorldServer\user.h

; 207  : 	void			NPCSetAt( OBJID objid, CCtrl* pCtrl )	{	m_2npc[objid] = pCtrl;	}

  006ca	89 45 bc	 mov	 DWORD PTR _this$1$[ebp], eax
; File C:\Program Files\Microsoft Visual Studio\2022\Professional\VC\Tools\MSVC\14.44.35207\include\xtree

; 1630 :         _Tree_find_result<_Nodeptr> _Result{{_Scary->_Myhead->_Parent, _Tree_child::_Right}, _Scary->_Myhead};

  006cd	8b 08		 mov	 ecx, DWORD PTR [eax]
  006cf	8b 59 04	 mov	 ebx, DWORD PTR [ecx+4]

; 1632 :         while (!_Trynode->_Isnil) {

  006d2	80 7b 0d 00	 cmp	 BYTE PTR [ebx+13], 0
  006d6	75 28		 jne	 SHORT $LN74@AddItToVie
; File C:\IAGOS\server\v18\Source\Source\WorldServer\LinkMap.cpp

; 284  : 			for( j = nLinkZ - nVisibilityRange; j <= nUBoundZ; j++ )

  006d8	8b c3		 mov	 eax, ebx
  006da	66 0f 1f 44 00
	00		 npad	 6
$LL73@AddItToVie:
; File C:\Program Files\Microsoft Visual Studio\2022\Professional\VC\Tools\MSVC\14.44.35207\include\xtree

; 1633 :             _Result._Location._Parent = _Trynode;

  006e0	8b d8		 mov	 ebx, eax
; File C:\Program Files\Microsoft Visual Studio\2022\Professional\VC\Tools\MSVC\14.44.35207\include\type_traits

; 2380 :         return _Left < _Right;

  006e2	39 50 10	 cmp	 DWORD PTR [eax+16], edx
; File C:\Program Files\Microsoft Visual Studio\2022\Professional\VC\Tools\MSVC\14.44.35207\include\xtree

; 1634 :             if (_DEBUG_LT_PRED(_Getcomp(), _Traits::_Kfn(_Trynode->_Myval), _Keyval)) {

  006e5	73 07		 jae	 SHORT $LN75@AddItToVie

; 1635 :                 _Result._Location._Child = _Tree_child::_Right;
; 1636 :                 _Trynode                 = _Trynode->_Right;

  006e7	8b 40 08	 mov	 eax, DWORD PTR [eax+8]
  006ea	33 ff		 xor	 edi, edi

; 1637 :             } else {

  006ec	eb 09		 jmp	 SHORT $LN76@AddItToVie
$LN75@AddItToVie:

; 1638 :                 _Result._Location._Child = _Tree_child::_Left;
; 1639 :                 _Result._Bound           = _Trynode;

  006ee	8b c8		 mov	 ecx, eax
  006f0	bf 01 00 00 00	 mov	 edi, 1

; 1640 :                 _Trynode                 = _Trynode->_Left;

  006f5	8b 00		 mov	 eax, DWORD PTR [eax]
$LN76@AddItToVie:

; 1632 :         while (!_Trynode->_Isnil) {

  006f7	80 78 0d 00	 cmp	 BYTE PTR [eax+13], 0
  006fb	74 e3		 je	 SHORT $LL73@AddItToVie
  006fd	8b 45 bc	 mov	 eax, DWORD PTR _this$1$[ebp]
$LN74@AddItToVie:

; 1624 :         return !_Bound->_Isnil && !_DEBUG_LT_PRED(_Getcomp(), _Keyval, _Traits::_Kfn(_Bound->_Myval));

  00700	80 79 0d 00	 cmp	 BYTE PTR [ecx+13], 0
  00704	75 05		 jne	 SHORT $LN69@AddItToVie
; File C:\Program Files\Microsoft Visual Studio\2022\Professional\VC\Tools\MSVC\14.44.35207\include\type_traits

; 2380 :         return _Left < _Right;

  00706	3b 51 10	 cmp	 edx, DWORD PTR [ecx+16]
; File C:\Program Files\Microsoft Visual Studio\2022\Professional\VC\Tools\MSVC\14.44.35207\include\xtree

; 1624 :         return !_Bound->_Isnil && !_DEBUG_LT_PRED(_Getcomp(), _Keyval, _Traits::_Kfn(_Bound->_Myval));

  00709	73 63		 jae	 SHORT $LN68@AddItToVie
$LN69@AddItToVie:

; 1648 :         if (max_size() == _Get_scary()->_Mysize) {

  0070b	81 78 04 aa aa
	aa 0a		 cmp	 DWORD PTR [eax+4], 178956970 ; 0aaaaaaaH
  00712	0f 84 a0 03 00
	00		 je	 $LN1050@AddItToVie
; File C:\Program Files\Microsoft Visual Studio\2022\Professional\VC\Tools\MSVC\14.44.35207\include\map

; 205  :         const auto _Inserted = _Tree_temp_node<_Alnode>(_Mybase::_Getal(), _Scary->_Myhead, piecewise_construct,

  00718	8b 30		 mov	 esi, DWORD PTR [eax]
; File C:\Program Files\Microsoft Visual Studio\2022\Professional\VC\Tools\MSVC\14.44.35207\include\xmemory

; 1160 :     _CONSTEXPR20 explicit _Alloc_construct_ptr(_Alloc& _Al_) : _Al(_Al_), _Ptr(nullptr) {}

  0071a	89 45 80	 mov	 DWORD PTR $T10[ebp], eax

; 136  :         return ::operator new(_Bytes);

  0071d	6a 18		 push	 24			; 00000018H
; File C:\Program Files\Microsoft Visual Studio\2022\Professional\VC\Tools\MSVC\14.44.35207\include\xtree

; 808  :     explicit _Tree_temp_node_alloc(_Alnode& _Al_) : _Alloc_construct_ptr<_Alnode>(_Al_) {

  0071f	c7 45 fc 05 00
	00 00		 mov	 DWORD PTR __$EHRec$[ebp+8], 5
; File C:\Program Files\Microsoft Visual Studio\2022\Professional\VC\Tools\MSVC\14.44.35207\include\xmemory

; 1167 :         _Ptr = nullptr; // if allocate throws, prevents double-free

  00726	c7 45 84 00 00
	00 00		 mov	 DWORD PTR $T10[ebp+4], 0

; 136  :         return ::operator new(_Bytes);

  0072d	e8 00 00 00 00	 call	 ??2@YAPAXI@Z		; operator new
; File C:\Program Files\Microsoft Visual Studio\2022\Professional\VC\Tools\MSVC\14.44.35207\include\utility

; 478  :         : first(_STD _Tuple_get<_Indices1>(_STD move(_Val1))...),

  00732	8b 4d b4	 mov	 ecx, DWORD PTR _objid$1$[ebp]
; File C:\Program Files\Microsoft Visual Studio\2022\Professional\VC\Tools\MSVC\14.44.35207\include\xmemory

; 136  :         return ::operator new(_Bytes);

  00735	83 c4 04	 add	 esp, 4
; File C:\Program Files\Microsoft Visual Studio\2022\Professional\VC\Tools\MSVC\14.44.35207\include\xtree

; 810  :     }

  00738	c7 45 fc ff ff
	ff ff		 mov	 DWORD PTR __$EHRec$[ebp+8], -1
; File C:\Program Files\Microsoft Visual Studio\2022\Professional\VC\Tools\MSVC\14.44.35207\include\utility

; 774  :     _Val         = static_cast<_Other&&>(_New_val);

  0073f	c7 45 84 00 00
	00 00		 mov	 DWORD PTR $T10[ebp+4], 0

; 478  :         : first(_STD _Tuple_get<_Indices1>(_STD move(_Val1))...),

  00746	89 48 10	 mov	 DWORD PTR [eax+16], ecx
; File C:\Program Files\Microsoft Visual Studio\2022\Professional\VC\Tools\MSVC\14.44.35207\include\map

; 211  :         return {_Scary->_Insert_node(_Loc._Location, _Inserted), true};

  00749	8b 4d bc	 mov	 ecx, DWORD PTR _this$1$[ebp]
; File C:\Program Files\Microsoft Visual Studio\2022\Professional\VC\Tools\MSVC\14.44.35207\include\utility

; 479  :           second(_STD _Tuple_get<_Indices2>(_STD move(_Val2))...) {}

  0074c	c7 40 14 00 00
	00 00		 mov	 DWORD PTR [eax+20], 0
; File C:\Program Files\Microsoft Visual Studio\2022\Professional\VC\Tools\MSVC\14.44.35207\include\map

; 211  :         return {_Scary->_Insert_node(_Loc._Location, _Inserted), true};

  00753	50		 push	 eax
; File C:\Program Files\Microsoft Visual Studio\2022\Professional\VC\Tools\MSVC\14.44.35207\include\xtree

; 831  :         _Construct_in_place(this->_Ptr->_Left, _Myhead);

  00754	89 30		 mov	 DWORD PTR [eax], esi

; 832  :         _Construct_in_place(this->_Ptr->_Parent, _Myhead);

  00756	89 70 04	 mov	 DWORD PTR [eax+4], esi
; File C:\Program Files\Microsoft Visual Studio\2022\Professional\VC\Tools\MSVC\14.44.35207\include\map

; 211  :         return {_Scary->_Insert_node(_Loc._Location, _Inserted), true};

  00759	57		 push	 edi
; File C:\Program Files\Microsoft Visual Studio\2022\Professional\VC\Tools\MSVC\14.44.35207\include\xtree

; 833  :         _Construct_in_place(this->_Ptr->_Right, _Myhead);

  0075a	89 70 08	 mov	 DWORD PTR [eax+8], esi
; File C:\Program Files\Microsoft Visual Studio\2022\Professional\VC\Tools\MSVC\14.44.35207\include\map

; 211  :         return {_Scary->_Insert_node(_Loc._Location, _Inserted), true};

  0075d	53		 push	 ebx
; File C:\Program Files\Microsoft Visual Studio\2022\Professional\VC\Tools\MSVC\14.44.35207\include\xtree

; 834  :         this->_Ptr->_Color = _Red;

  0075e	66 c7 40 0c 00
	00		 mov	 WORD PTR [eax+12], 0
; File C:\Program Files\Microsoft Visual Studio\2022\Professional\VC\Tools\MSVC\14.44.35207\include\map

; 211  :         return {_Scary->_Insert_node(_Loc._Location, _Inserted), true};

  00764	e8 00 00 00 00	 call	 ?_Insert_node@?$_Tree_val@U?$_Tree_simple_types@U?$pair@$$CBKPAVCCtrl@@@std@@@std@@@std@@QAEPAU?$_Tree_node@U?$pair@$$CBKPAVCCtrl@@@std@@PAX@2@U?$_Tree_id@PAU?$_Tree_node@U?$pair@$$CBKPAVCCtrl@@@std@@PAX@std@@@2@QAU32@@Z ; std::_Tree_val<std::_Tree_simple_types<std::pair<unsigned long const ,CCtrl *> > >::_Insert_node
  00769	8b 75 cc	 mov	 esi, DWORD PTR _pCtrltmp$2$[ebp]
  0076c	8b c8		 mov	 ecx, eax
$LN68@AddItToVie:
; File C:\IAGOS\server\v18\Source\Source\WorldServer\LinkMap.cpp

; 297  : 							pUser->AddAddObj( pCtrltmp );

  0076e	8b 7d 08	 mov	 edi, DWORD PTR _pCtrl$[ebp]
; File C:\IAGOS\server\v18\Source\Source\WorldServer\user.h

; 207  : 	void			NPCSetAt( OBJID objid, CCtrl* pCtrl )	{	m_2npc[objid] = pCtrl;	}

  00771	89 71 14	 mov	 DWORD PTR [ecx+20], esi
; File C:\IAGOS\server\v18\Source\Source\WorldServer\LinkMap.cpp

; 297  : 							pUser->AddAddObj( pCtrltmp );

  00774	8b cf		 mov	 ecx, edi
  00776	56		 push	 esi
  00777	e8 00 00 00 00	 call	 ?AddAddObj@CUser@@QAEXPAVCCtrl@@@Z ; CUser::AddAddObj
$LN53@AddItToVie:

; 298  : 						}
; 299  : 						pCtrltmp	= (CCtrl*)pCtrltmp->GetNextNode();

  0077c	8b b6 80 01 00
	00		 mov	 esi, DWORD PTR [esi+384]
  00782	89 75 cc	 mov	 DWORD PTR _pCtrltmp$2$[ebp], esi
  00785	85 f6		 test	 esi, esi
  00787	0f 85 67 fe ff
	ff		 jne	 $LL27@AddItToVie

; 291  : 					while( pCtrltmp )

  0078d	8b 4d c0	 mov	 ecx, DWORD PTR _k$3$[ebp]
  00790	8b 55 c4	 mov	 edx, DWORD PTR _apObj$3$[ebp]
  00793	8b 5d f0	 mov	 ebx, DWORD PTR _nUBoundX$1$[ebp]
$LN1142@AddItToVie:

; 287  : 				for( k = nLinkX - nVisibilityRange; k <= nUBoundX; k++ )

  00796	8b 75 dc	 mov	 esi, DWORD PTR _nMaxWidth$1$[ebp]
  00799	8b 45 d0	 mov	 eax, DWORD PTR tv6000[ebp]
$LN24@AddItToVie:
  0079c	41		 inc	 ecx
  0079d	89 4d c0	 mov	 DWORD PTR _k$3$[ebp], ecx
  007a0	3b cb		 cmp	 ecx, ebx
  007a2	0f 8e 2c fe ff
	ff		 jle	 $LL26@AddItToVie
$LN1146@AddItToVie:

; 284  : 			for( j = nLinkZ - nVisibilityRange; j <= nUBoundZ; j++ )

  007a8	8b 5d ec	 mov	 ebx, DWORD PTR _nVisibilityRange$1$[ebp]
  007ab	8b 4d d8	 mov	 ecx, DWORD PTR _j$5$[ebp]
$LN21@AddItToVie:
  007ae	41		 inc	 ecx
  007af	03 c6		 add	 eax, esi
  007b1	89 4d d8	 mov	 DWORD PTR _j$5$[ebp], ecx
  007b4	89 45 d0	 mov	 DWORD PTR tv6000[ebp], eax
  007b7	3b 4d d4	 cmp	 ecx, DWORD PTR _nUBoundZ$1$[ebp]
  007ba	0f 8e f0 fd ff
	ff		 jle	 $LL23@AddItToVie
  007c0	8b 45 e8	 mov	 eax, DWORD PTR _i$1$[ebp]
$LN2@AddItToVie:

; 222  : 	{
; 223  : 		pUser	= (CUser*)pCtrl;
; 224  : 		for( i = 0; i < MAX_LINKLEVEL; i++ )

  007c3	40		 inc	 eax
  007c4	89 45 e8	 mov	 DWORD PTR _i$1$[ebp], eax
  007c7	83 f8 07	 cmp	 eax, 7
  007ca	0f 8d d4 02 00
	00		 jge	 $LN1078@AddItToVie
  007d0	8b 5d e4	 mov	 ebx, DWORD PTR _this$1$[ebp]
  007d3	e9 98 f8 ff ff	 jmp	 $LL4@AddItToVie
$LN37@AddItToVie:

; 300  : 					}
; 301  : 				}
; 302  : 			}
; 303  : 		}
; 304  : 	}
; 305  : 	else	// is not player
; 306  : 	{
; 307  : //		for( i = 0; i < MAX_LINKLEVEL; i++ )
; 308  : 		i	= 0;		//
; 309  : //		{
; 310  : 		
; 311  : 			nMaxWidth	= GetLinkWidth( CObj::linkDynamic, i ) * m_nLandWidth;  // CObj::linkDynamic -> CObj::linkPlayer
; 312  : 			nMaxHeight	= GetLinkWidth( CObj::linkDynamic, i ) * m_nLandHeight;

  007d8	8b 7d e4	 mov	 edi, DWORD PTR _this$1$[ebp]
  007db	8b 4b 40	 mov	 ecx, DWORD PTR [ebx+64]
  007de	8b 83 f0 00 00
	00		 mov	 eax, DWORD PTR [ebx+240]
  007e4	8b d8		 mov	 ebx, eax
  007e6	0f af d9	 imul	 ebx, ecx
  007e9	8b 97 f4 00 00
	00		 mov	 edx, DWORD PTR [edi+244]
  007ef	0f af d1	 imul	 edx, ecx

; 313  : 
; 314  : 			nUnit	= (MAP_SIZE * m_nLandWidth) / nMaxWidth;

  007f2	c1 e0 07	 shl	 eax, 7
  007f5	66 0f 6e 97 30
	01 00 00	 movd	 xmm2, DWORD PTR [edi+304]

; 315  : 			nLinkX	= (int)( ( vPos.x / m_iMPU ) / nUnit );

  007fd	f3 0f 10 85 74
	ff ff ff	 movss	 xmm0, DWORD PTR _vPos$[ebp]
  00805	0f 5b d2	 cvtdq2ps xmm2, xmm2
  00808	89 55 b4	 mov	 DWORD PTR _nMaxHeight$2$[ebp], edx
  0080b	99		 cdq

; 316  : 			nLinkZ	= (int) ( ( vPos.z / m_iMPU ) / nUnit );
; 317  : 			nVisibilityRange	= m_nVisibilityRange[i];

  0080c	8b 8f 14 01 00
	00		 mov	 ecx, DWORD PTR [edi+276]
  00812	89 5d e0	 mov	 DWORD PTR _nMaxWidth$2$[ebp], ebx
  00815	f7 fb		 idiv	 ebx
  00817	89 4d b8	 mov	 DWORD PTR _nVisibilityRange$2$[ebp], ecx
  0081a	f3 0f 5e c2	 divss	 xmm0, xmm2
  0081e	66 0f 6e c8	 movd	 xmm1, eax
  00822	0f 5b c9	 cvtdq2ps xmm1, xmm1
  00825	f3 0f 5e c1	 divss	 xmm0, xmm1
  00829	f3 0f 2c c0	 cvttss2si eax, xmm0
  0082d	f3 0f 10 85 7c
	ff ff ff	 movss	 xmm0, DWORD PTR _vPos$[ebp+8]
  00835	89 45 bc	 mov	 DWORD PTR _nLinkX$2$[ebp], eax
  00838	f3 0f 5e c2	 divss	 xmm0, xmm2

; 318  : 			nUBoundX	= nLinkX + nVisibilityRange;

  0083c	8d 3c 01	 lea	 edi, DWORD PTR [ecx+eax]
  0083f	89 7d e8	 mov	 DWORD PTR _nUBoundX$2$[ebp], edi
  00842	f3 0f 5e c1	 divss	 xmm0, xmm1
  00846	f3 0f 2c d0	 cvttss2si edx, xmm0

; 319  : 			nUBoundZ	= nLinkZ + nVisibilityRange;

  0084a	8d 04 11	 lea	 eax, DWORD PTR [ecx+edx]
  0084d	89 45 d4	 mov	 DWORD PTR _nUBoundZ$2$[ebp], eax

; 320  : 			if( pCtrl->GetType() == OT_SHIP || pCtrl->GetType() == OT_MOVER )

  00850	83 fe 07	 cmp	 esi, 7
  00853	74 05		 je	 SHORT $LN55@AddItToVie
  00855	83 fe 05	 cmp	 esi, 5
  00858	75 14		 jne	 SHORT $LN54@AddItToVie
$LN55@AddItToVie:

; 321  : 				pCtrl->m_nOldCenter[i]	= nLinkZ * nMaxWidth + nLinkX;

  0085a	8b 75 08	 mov	 esi, DWORD PTR _pCtrl$[ebp]
  0085d	8b c2		 mov	 eax, edx
  0085f	0f af c3	 imul	 eax, ebx
  00862	03 45 bc	 add	 eax, DWORD PTR _nLinkX$2$[ebp]
  00865	89 86 14 02 00
	00		 mov	 DWORD PTR [esi+532], eax
  0086b	8b 45 d4	 mov	 eax, DWORD PTR _nUBoundZ$2$[ebp]
$LN54@AddItToVie:

; 322  : 
; 323  : 			apObj	= GetObj( CObj::linkPlayer, i );

  0086e	8b 75 e4	 mov	 esi, DWORD PTR _this$1$[ebp]

; 324  : 
; 325  : 			for( j = nLinkZ - nVisibilityRange; j <= nUBoundZ; j++ )

  00871	2b d1		 sub	 edx, ecx
  00873	89 55 d8	 mov	 DWORD PTR _j$6$[ebp], edx
  00876	8b b6 98 00 00
	00		 mov	 esi, DWORD PTR [esi+152]
  0087c	89 75 c4	 mov	 DWORD PTR _apObj$4$[ebp], esi
  0087f	3b d0		 cmp	 edx, eax
  00881	0f 8f 1d 02 00
	00		 jg	 $LN1078@AddItToVie
  00887	8b 4d d4	 mov	 ecx, DWORD PTR _nUBoundZ$2$[ebp]
; File C:\IAGOS\server\v18\Source\Source\WorldServer\LinkMap.h

; 78   : 	return m_infos[dwLinkType].apObj[dwLinkLevel]; 

  0088a	8b c2		 mov	 eax, edx
  0088c	0f af c3	 imul	 eax, ebx
  0088f	89 45 cc	 mov	 DWORD PTR tv5998[ebp], eax
$LL31@AddItToVie:
; File C:\IAGOS\server\v18\Source\Source\WorldServer\LinkMap.cpp

; 327  : 				if( j < 0 || j >= nMaxHeight )	continue;

  00892	85 d2		 test	 edx, edx
  00894	0f 88 f9 01 00
	00		 js	 $LN29@AddItToVie
  0089a	3b 55 b4	 cmp	 edx, DWORD PTR _nMaxHeight$2$[ebp]
  0089d	0f 8d f0 01 00
	00		 jge	 $LN29@AddItToVie

; 328  : 				for( k = nLinkX - nVisibilityRange; k <= nUBoundX; k++ )

  008a3	8b 4d bc	 mov	 ecx, DWORD PTR _nLinkX$2$[ebp]
  008a6	2b 4d b8	 sub	 ecx, DWORD PTR _nVisibilityRange$2$[ebp]
  008a9	89 4d d0	 mov	 DWORD PTR _k$4$[ebp], ecx
  008ac	3b cf		 cmp	 ecx, edi
  008ae	0f 8f dc 01 00
	00		 jg	 $LN1141@AddItToVie
$LL34@AddItToVie:

; 329  : 				{
; 330  : 					if( k < 0 || k >= nMaxWidth )	continue;

  008b4	85 c9		 test	 ecx, ecx
  008b6	0f 88 c5 01 00
	00		 js	 $LN32@AddItToVie
  008bc	3b cb		 cmp	 ecx, ebx
  008be	0f 8d bd 01 00
	00		 jge	 $LN32@AddItToVie

; 331  : 					pUsertmp	= (CUser*)apObj[j * nMaxWidth + k];

  008c4	03 c1		 add	 eax, ecx
  008c6	8b 34 86	 mov	 esi, DWORD PTR [esi+eax*4]
  008c9	89 75 c8	 mov	 DWORD PTR _pUsertmp$2$[ebp], esi

; 332  : 					while( pUsertmp )

  008cc	85 f6		 test	 esi, esi
  008ce	0f 84 a7 01 00
	00		 je	 $LN1140@AddItToVie
$LL35@AddItToVie:
; File C:\IAGOS\server\v18\Source\Source\_Common\Obj.h

; 180  : 	BOOL			IsDelete()	{ return (m_dwFlags & OBJ_FLAG_DELETE);  }

  008d4	f6 46 04 01	 test	 BYTE PTR [esi+4], 1
; File C:\IAGOS\server\v18\Source\Source\WorldServer\LinkMap.cpp

; 334  : 						if( !pUsertmp->IsDelete() )

  008d8	0f 85 83 01 00
	00		 jne	 $LN778@AddItToVie

; 336  : 							pUsertmp->NPCSetAt( pCtrl->GetId(), pCtrl );

  008de	8b 45 08	 mov	 eax, DWORD PTR _pCtrl$[ebp]
; File C:\Program Files\Microsoft Visual Studio\2022\Professional\VC\Tools\MSVC\14.44.35207\include\xtree

; 1630 :         _Tree_find_result<_Nodeptr> _Result{{_Scary->_Myhead->_Parent, _Tree_child::_Right}, _Scary->_Myhead};

  008e1	33 ff		 xor	 edi, edi
  008e3	8b 8e 68 55 00
	00		 mov	 ecx, DWORD PTR [esi+21864]
; File C:\IAGOS\server\v18\Source\Source\WorldServer\LinkMap.cpp

; 336  : 							pUsertmp->NPCSetAt( pCtrl->GetId(), pCtrl );

  008e9	8b 90 bc 01 00
	00		 mov	 edx, DWORD PTR [eax+444]
; File C:\IAGOS\server\v18\Source\Source\WorldServer\user.h

; 207  : 	void			NPCSetAt( OBJID objid, CCtrl* pCtrl )	{	m_2npc[objid] = pCtrl;	}

  008ef	8d 86 68 55 00
	00		 lea	 eax, DWORD PTR [esi+21864]
; File C:\Program Files\Microsoft Visual Studio\2022\Professional\VC\Tools\MSVC\14.44.35207\include\xtree

; 1630 :         _Tree_find_result<_Nodeptr> _Result{{_Scary->_Myhead->_Parent, _Tree_child::_Right}, _Scary->_Myhead};

  008f5	8b 59 04	 mov	 ebx, DWORD PTR [ecx+4]
; File C:\IAGOS\server\v18\Source\Source\WorldServer\LinkMap.cpp

; 336  : 							pUsertmp->NPCSetAt( pCtrl->GetId(), pCtrl );

  008f8	89 55 c0	 mov	 DWORD PTR _objid$1$[ebp], edx
; File C:\IAGOS\server\v18\Source\Source\WorldServer\user.h

; 207  : 	void			NPCSetAt( OBJID objid, CCtrl* pCtrl )	{	m_2npc[objid] = pCtrl;	}

  008fb	89 45 dc	 mov	 DWORD PTR _this$1$[ebp], eax
; File C:\Program Files\Microsoft Visual Studio\2022\Professional\VC\Tools\MSVC\14.44.35207\include\xtree

; 1632 :         while (!_Trynode->_Isnil) {

  008fe	80 7b 0d 00	 cmp	 BYTE PTR [ebx+13], 0
  00902	75 25		 jne	 SHORT $LN553@AddItToVie
; File C:\IAGOS\server\v18\Source\Source\WorldServer\LinkMap.cpp

; 284  : 			for( j = nLinkZ - nVisibilityRange; j <= nUBoundZ; j++ )

  00904	8b c3		 mov	 eax, ebx
$LL552@AddItToVie:
; File C:\Program Files\Microsoft Visual Studio\2022\Professional\VC\Tools\MSVC\14.44.35207\include\xtree

; 1633 :             _Result._Location._Parent = _Trynode;

  00906	8b d8		 mov	 ebx, eax
; File C:\Program Files\Microsoft Visual Studio\2022\Professional\VC\Tools\MSVC\14.44.35207\include\type_traits

; 2380 :         return _Left < _Right;

  00908	39 50 10	 cmp	 DWORD PTR [eax+16], edx
; File C:\Program Files\Microsoft Visual Studio\2022\Professional\VC\Tools\MSVC\14.44.35207\include\xtree

; 1634 :             if (_DEBUG_LT_PRED(_Getcomp(), _Traits::_Kfn(_Trynode->_Myval), _Keyval)) {

  0090b	73 07		 jae	 SHORT $LN554@AddItToVie

; 1635 :                 _Result._Location._Child = _Tree_child::_Right;
; 1636 :                 _Trynode                 = _Trynode->_Right;

  0090d	8b 40 08	 mov	 eax, DWORD PTR [eax+8]
  00910	33 ff		 xor	 edi, edi

; 1637 :             } else {

  00912	eb 09		 jmp	 SHORT $LN555@AddItToVie
$LN554@AddItToVie:

; 1638 :                 _Result._Location._Child = _Tree_child::_Left;
; 1639 :                 _Result._Bound           = _Trynode;

  00914	8b c8		 mov	 ecx, eax
  00916	bf 01 00 00 00	 mov	 edi, 1

; 1640 :                 _Trynode                 = _Trynode->_Left;

  0091b	8b 00		 mov	 eax, DWORD PTR [eax]
$LN555@AddItToVie:

; 1632 :         while (!_Trynode->_Isnil) {

  0091d	80 78 0d 00	 cmp	 BYTE PTR [eax+13], 0
  00921	74 e3		 je	 SHORT $LL552@AddItToVie
  00923	8d 86 68 55 00
	00		 lea	 eax, DWORD PTR [esi+21864]
$LN553@AddItToVie:

; 1624 :         return !_Bound->_Isnil && !_DEBUG_LT_PRED(_Getcomp(), _Keyval, _Traits::_Kfn(_Bound->_Myval));

  00929	80 79 0d 00	 cmp	 BYTE PTR [ecx+13], 0
  0092d	75 05		 jne	 SHORT $LN548@AddItToVie
; File C:\Program Files\Microsoft Visual Studio\2022\Professional\VC\Tools\MSVC\14.44.35207\include\type_traits

; 2380 :         return _Left < _Right;

  0092f	3b 51 10	 cmp	 edx, DWORD PTR [ecx+16]
; File C:\Program Files\Microsoft Visual Studio\2022\Professional\VC\Tools\MSVC\14.44.35207\include\xtree

; 1624 :         return !_Bound->_Isnil && !_DEBUG_LT_PRED(_Getcomp(), _Keyval, _Traits::_Kfn(_Bound->_Myval));

  00932	73 63		 jae	 SHORT $LN547@AddItToVie
$LN548@AddItToVie:

; 1648 :         if (max_size() == _Get_scary()->_Mysize) {

  00934	81 78 04 aa aa
	aa 0a		 cmp	 DWORD PTR [eax+4], 178956970 ; 0aaaaaaaH
  0093b	0f 84 77 01 00
	00		 je	 $LN1050@AddItToVie
; File C:\Program Files\Microsoft Visual Studio\2022\Professional\VC\Tools\MSVC\14.44.35207\include\map

; 205  :         const auto _Inserted = _Tree_temp_node<_Alnode>(_Mybase::_Getal(), _Scary->_Myhead, piecewise_construct,

  00941	8b 30		 mov	 esi, DWORD PTR [eax]
; File C:\Program Files\Microsoft Visual Studio\2022\Professional\VC\Tools\MSVC\14.44.35207\include\xmemory

; 1160 :     _CONSTEXPR20 explicit _Alloc_construct_ptr(_Alloc& _Al_) : _Al(_Al_), _Ptr(nullptr) {}

  00943	89 45 80	 mov	 DWORD PTR $T11[ebp], eax

; 136  :         return ::operator new(_Bytes);

  00946	6a 18		 push	 24			; 00000018H
; File C:\Program Files\Microsoft Visual Studio\2022\Professional\VC\Tools\MSVC\14.44.35207\include\xtree

; 808  :     explicit _Tree_temp_node_alloc(_Alnode& _Al_) : _Alloc_construct_ptr<_Alnode>(_Al_) {

  00948	c7 45 fc 06 00
	00 00		 mov	 DWORD PTR __$EHRec$[ebp+8], 6
; File C:\Program Files\Microsoft Visual Studio\2022\Professional\VC\Tools\MSVC\14.44.35207\include\xmemory

; 1167 :         _Ptr = nullptr; // if allocate throws, prevents double-free

  0094f	c7 45 84 00 00
	00 00		 mov	 DWORD PTR $T11[ebp+4], 0

; 136  :         return ::operator new(_Bytes);

  00956	e8 00 00 00 00	 call	 ??2@YAPAXI@Z		; operator new
; File C:\Program Files\Microsoft Visual Studio\2022\Professional\VC\Tools\MSVC\14.44.35207\include\utility

; 478  :         : first(_STD _Tuple_get<_Indices1>(_STD move(_Val1))...),

  0095b	8b 4d c0	 mov	 ecx, DWORD PTR _objid$1$[ebp]
; File C:\Program Files\Microsoft Visual Studio\2022\Professional\VC\Tools\MSVC\14.44.35207\include\xmemory

; 136  :         return ::operator new(_Bytes);

  0095e	83 c4 04	 add	 esp, 4
; File C:\Program Files\Microsoft Visual Studio\2022\Professional\VC\Tools\MSVC\14.44.35207\include\xtree

; 810  :     }

  00961	c7 45 fc ff ff
	ff ff		 mov	 DWORD PTR __$EHRec$[ebp+8], -1
; File C:\Program Files\Microsoft Visual Studio\2022\Professional\VC\Tools\MSVC\14.44.35207\include\utility

; 774  :     _Val         = static_cast<_Other&&>(_New_val);

  00968	c7 45 84 00 00
	00 00		 mov	 DWORD PTR $T11[ebp+4], 0

; 478  :         : first(_STD _Tuple_get<_Indices1>(_STD move(_Val1))...),

  0096f	89 48 10	 mov	 DWORD PTR [eax+16], ecx
; File C:\Program Files\Microsoft Visual Studio\2022\Professional\VC\Tools\MSVC\14.44.35207\include\map

; 211  :         return {_Scary->_Insert_node(_Loc._Location, _Inserted), true};

  00972	8b 4d dc	 mov	 ecx, DWORD PTR _this$1$[ebp]
; File C:\Program Files\Microsoft Visual Studio\2022\Professional\VC\Tools\MSVC\14.44.35207\include\utility

; 479  :           second(_STD _Tuple_get<_Indices2>(_STD move(_Val2))...) {}

  00975	c7 40 14 00 00
	00 00		 mov	 DWORD PTR [eax+20], 0
; File C:\Program Files\Microsoft Visual Studio\2022\Professional\VC\Tools\MSVC\14.44.35207\include\map

; 211  :         return {_Scary->_Insert_node(_Loc._Location, _Inserted), true};

  0097c	50		 push	 eax
; File C:\Program Files\Microsoft Visual Studio\2022\Professional\VC\Tools\MSVC\14.44.35207\include\xtree

; 831  :         _Construct_in_place(this->_Ptr->_Left, _Myhead);

  0097d	89 30		 mov	 DWORD PTR [eax], esi

; 832  :         _Construct_in_place(this->_Ptr->_Parent, _Myhead);

  0097f	89 70 04	 mov	 DWORD PTR [eax+4], esi
; File C:\Program Files\Microsoft Visual Studio\2022\Professional\VC\Tools\MSVC\14.44.35207\include\map

; 211  :         return {_Scary->_Insert_node(_Loc._Location, _Inserted), true};

  00982	57		 push	 edi
; File C:\Program Files\Microsoft Visual Studio\2022\Professional\VC\Tools\MSVC\14.44.35207\include\xtree

; 833  :         _Construct_in_place(this->_Ptr->_Right, _Myhead);

  00983	89 70 08	 mov	 DWORD PTR [eax+8], esi
; File C:\Program Files\Microsoft Visual Studio\2022\Professional\VC\Tools\MSVC\14.44.35207\include\map

; 211  :         return {_Scary->_Insert_node(_Loc._Location, _Inserted), true};

  00986	53		 push	 ebx
; File C:\Program Files\Microsoft Visual Studio\2022\Professional\VC\Tools\MSVC\14.44.35207\include\xtree

; 834  :         this->_Ptr->_Color = _Red;

  00987	66 c7 40 0c 00
	00		 mov	 WORD PTR [eax+12], 0
; File C:\Program Files\Microsoft Visual Studio\2022\Professional\VC\Tools\MSVC\14.44.35207\include\map

; 211  :         return {_Scary->_Insert_node(_Loc._Location, _Inserted), true};

  0098d	e8 00 00 00 00	 call	 ?_Insert_node@?$_Tree_val@U?$_Tree_simple_types@U?$pair@$$CBKPAVCCtrl@@@std@@@std@@@std@@QAEPAU?$_Tree_node@U?$pair@$$CBKPAVCCtrl@@@std@@PAX@2@U?$_Tree_id@PAU?$_Tree_node@U?$pair@$$CBKPAVCCtrl@@@std@@PAX@std@@@2@QAU32@@Z ; std::_Tree_val<std::_Tree_simple_types<std::pair<unsigned long const ,CCtrl *> > >::_Insert_node
  00992	8b 75 c8	 mov	 esi, DWORD PTR _pUsertmp$2$[ebp]
  00995	8b c8		 mov	 ecx, eax
$LN547@AddItToVie:
; File C:\IAGOS\server\v18\Source\Source\WorldServer\user.h

; 207  : 	void			NPCSetAt( OBJID objid, CCtrl* pCtrl )	{	m_2npc[objid] = pCtrl;	}

  00997	8b 5d 08	 mov	 ebx, DWORD PTR _pCtrl$[ebp]
  0099a	89 59 14	 mov	 DWORD PTR [ecx+20], ebx
; File C:\IAGOS\server\v18\Source\Source\WorldServer\LinkMap.cpp

; 337  : 							pUsertmp->AddAddObj( pCtrl );

  0099d	8b ce		 mov	 ecx, esi
  0099f	53		 push	 ebx
  009a0	e8 00 00 00 00	 call	 ?AddAddObj@CUser@@QAEXPAVCCtrl@@@Z ; CUser::AddAddObj
; File C:\Program Files\Microsoft Visual Studio\2022\Professional\VC\Tools\MSVC\14.44.35207\include\xtree

; 1630 :         _Tree_find_result<_Nodeptr> _Result{{_Scary->_Myhead->_Parent, _Tree_child::_Right}, _Scary->_Myhead};

  009a5	8b 8b 0c 02 00
	00		 mov	 ecx, DWORD PTR [ebx+524]
; File C:\IAGOS\server\v18\Source\Source\_Common\Ctrl.h

; 116  : 	m_2pc[ objid ] = (CUser *)pCtrl;

  009ab	8d 83 0c 02 00
	00		 lea	 eax, DWORD PTR [ebx+524]
; File C:\IAGOS\server\v18\Source\Source\WorldServer\LinkMap.cpp

; 338  : 							pCtrl->PCSetAt( pUsertmp->GetId(), (CCtrl*)pUsertmp );

  009b1	8b 96 bc 01 00
	00		 mov	 edx, DWORD PTR [esi+444]
; File C:\Program Files\Microsoft Visual Studio\2022\Professional\VC\Tools\MSVC\14.44.35207\include\xtree

; 1630 :         _Tree_find_result<_Nodeptr> _Result{{_Scary->_Myhead->_Parent, _Tree_child::_Right}, _Scary->_Myhead};

  009b7	33 ff		 xor	 edi, edi
; File C:\IAGOS\server\v18\Source\Source\WorldServer\LinkMap.cpp

; 338  : 							pCtrl->PCSetAt( pUsertmp->GetId(), (CCtrl*)pUsertmp );

  009b9	89 55 dc	 mov	 DWORD PTR _objid$1$[ebp], edx
; File C:\IAGOS\server\v18\Source\Source\_Common\Ctrl.h

; 116  : 	m_2pc[ objid ] = (CUser *)pCtrl;

  009bc	89 45 c0	 mov	 DWORD PTR _this$1$[ebp], eax
; File C:\Program Files\Microsoft Visual Studio\2022\Professional\VC\Tools\MSVC\14.44.35207\include\xtree

; 1630 :         _Tree_find_result<_Nodeptr> _Result{{_Scary->_Myhead->_Parent, _Tree_child::_Right}, _Scary->_Myhead};

  009bf	8b 59 04	 mov	 ebx, DWORD PTR [ecx+4]

; 1632 :         while (!_Trynode->_Isnil) {

  009c2	80 7b 0d 00	 cmp	 BYTE PTR [ebx+13], 0
  009c6	75 28		 jne	 SHORT $LN672@AddItToVie
; File C:\IAGOS\server\v18\Source\Source\WorldServer\LinkMap.cpp

; 284  : 			for( j = nLinkZ - nVisibilityRange; j <= nUBoundZ; j++ )

  009c8	8b c3		 mov	 eax, ebx
  009ca	66 0f 1f 44 00
	00		 npad	 6
$LL671@AddItToVie:
; File C:\Program Files\Microsoft Visual Studio\2022\Professional\VC\Tools\MSVC\14.44.35207\include\xtree

; 1633 :             _Result._Location._Parent = _Trynode;

  009d0	8b d8		 mov	 ebx, eax
; File C:\Program Files\Microsoft Visual Studio\2022\Professional\VC\Tools\MSVC\14.44.35207\include\type_traits

; 2380 :         return _Left < _Right;

  009d2	39 50 10	 cmp	 DWORD PTR [eax+16], edx
; File C:\Program Files\Microsoft Visual Studio\2022\Professional\VC\Tools\MSVC\14.44.35207\include\xtree

; 1634 :             if (_DEBUG_LT_PRED(_Getcomp(), _Traits::_Kfn(_Trynode->_Myval), _Keyval)) {

  009d5	73 07		 jae	 SHORT $LN673@AddItToVie

; 1635 :                 _Result._Location._Child = _Tree_child::_Right;
; 1636 :                 _Trynode                 = _Trynode->_Right;

  009d7	8b 40 08	 mov	 eax, DWORD PTR [eax+8]
  009da	33 ff		 xor	 edi, edi

; 1637 :             } else {

  009dc	eb 09		 jmp	 SHORT $LN674@AddItToVie
$LN673@AddItToVie:

; 1638 :                 _Result._Location._Child = _Tree_child::_Left;
; 1639 :                 _Result._Bound           = _Trynode;

  009de	8b c8		 mov	 ecx, eax
  009e0	bf 01 00 00 00	 mov	 edi, 1

; 1640 :                 _Trynode                 = _Trynode->_Left;

  009e5	8b 00		 mov	 eax, DWORD PTR [eax]
$LN674@AddItToVie:

; 1632 :         while (!_Trynode->_Isnil) {

  009e7	80 78 0d 00	 cmp	 BYTE PTR [eax+13], 0
  009eb	74 e3		 je	 SHORT $LL671@AddItToVie
  009ed	8b 45 c0	 mov	 eax, DWORD PTR _this$1$[ebp]
$LN672@AddItToVie:

; 1624 :         return !_Bound->_Isnil && !_DEBUG_LT_PRED(_Getcomp(), _Keyval, _Traits::_Kfn(_Bound->_Myval));

  009f0	80 79 0d 00	 cmp	 BYTE PTR [ecx+13], 0
  009f4	75 05		 jne	 SHORT $LN667@AddItToVie
; File C:\Program Files\Microsoft Visual Studio\2022\Professional\VC\Tools\MSVC\14.44.35207\include\type_traits

; 2380 :         return _Left < _Right;

  009f6	3b 51 10	 cmp	 edx, DWORD PTR [ecx+16]
; File C:\Program Files\Microsoft Visual Studio\2022\Professional\VC\Tools\MSVC\14.44.35207\include\xtree

; 1624 :         return !_Bound->_Isnil && !_DEBUG_LT_PRED(_Getcomp(), _Keyval, _Traits::_Kfn(_Bound->_Myval));

  009f9	73 63		 jae	 SHORT $LN666@AddItToVie
$LN667@AddItToVie:

; 1648 :         if (max_size() == _Get_scary()->_Mysize) {

  009fb	81 78 04 aa aa
	aa 0a		 cmp	 DWORD PTR [eax+4], 178956970 ; 0aaaaaaaH
  00a02	0f 84 b0 00 00
	00		 je	 $LN1050@AddItToVie
; File C:\Program Files\Microsoft Visual Studio\2022\Professional\VC\Tools\MSVC\14.44.35207\include\map

; 205  :         const auto _Inserted = _Tree_temp_node<_Alnode>(_Mybase::_Getal(), _Scary->_Myhead, piecewise_construct,

  00a08	8b 30		 mov	 esi, DWORD PTR [eax]
; File C:\Program Files\Microsoft Visual Studio\2022\Professional\VC\Tools\MSVC\14.44.35207\include\xmemory

; 1160 :     _CONSTEXPR20 explicit _Alloc_construct_ptr(_Alloc& _Al_) : _Al(_Al_), _Ptr(nullptr) {}

  00a0a	89 45 88	 mov	 DWORD PTR $T12[ebp], eax

; 136  :         return ::operator new(_Bytes);

  00a0d	6a 18		 push	 24			; 00000018H
; File C:\Program Files\Microsoft Visual Studio\2022\Professional\VC\Tools\MSVC\14.44.35207\include\xtree

; 808  :     explicit _Tree_temp_node_alloc(_Alnode& _Al_) : _Alloc_construct_ptr<_Alnode>(_Al_) {

  00a0f	c7 45 fc 07 00
	00 00		 mov	 DWORD PTR __$EHRec$[ebp+8], 7
; File C:\Program Files\Microsoft Visual Studio\2022\Professional\VC\Tools\MSVC\14.44.35207\include\xmemory

; 1167 :         _Ptr = nullptr; // if allocate throws, prevents double-free

  00a16	c7 45 8c 00 00
	00 00		 mov	 DWORD PTR $T12[ebp+4], 0

; 136  :         return ::operator new(_Bytes);

  00a1d	e8 00 00 00 00	 call	 ??2@YAPAXI@Z		; operator new
; File C:\Program Files\Microsoft Visual Studio\2022\Professional\VC\Tools\MSVC\14.44.35207\include\utility

; 478  :         : first(_STD _Tuple_get<_Indices1>(_STD move(_Val1))...),

  00a22	8b 4d dc	 mov	 ecx, DWORD PTR _objid$1$[ebp]
; File C:\Program Files\Microsoft Visual Studio\2022\Professional\VC\Tools\MSVC\14.44.35207\include\xmemory

; 136  :         return ::operator new(_Bytes);

  00a25	83 c4 04	 add	 esp, 4
; File C:\Program Files\Microsoft Visual Studio\2022\Professional\VC\Tools\MSVC\14.44.35207\include\xtree

; 810  :     }

  00a28	c7 45 fc ff ff
	ff ff		 mov	 DWORD PTR __$EHRec$[ebp+8], -1
; File C:\Program Files\Microsoft Visual Studio\2022\Professional\VC\Tools\MSVC\14.44.35207\include\utility

; 774  :     _Val         = static_cast<_Other&&>(_New_val);

  00a2f	c7 45 8c 00 00
	00 00		 mov	 DWORD PTR $T12[ebp+4], 0

; 478  :         : first(_STD _Tuple_get<_Indices1>(_STD move(_Val1))...),

  00a36	89 48 10	 mov	 DWORD PTR [eax+16], ecx
; File C:\Program Files\Microsoft Visual Studio\2022\Professional\VC\Tools\MSVC\14.44.35207\include\map

; 211  :         return {_Scary->_Insert_node(_Loc._Location, _Inserted), true};

  00a39	8b 4d c0	 mov	 ecx, DWORD PTR _this$1$[ebp]
; File C:\Program Files\Microsoft Visual Studio\2022\Professional\VC\Tools\MSVC\14.44.35207\include\utility

; 479  :           second(_STD _Tuple_get<_Indices2>(_STD move(_Val2))...) {}

  00a3c	c7 40 14 00 00
	00 00		 mov	 DWORD PTR [eax+20], 0
; File C:\Program Files\Microsoft Visual Studio\2022\Professional\VC\Tools\MSVC\14.44.35207\include\map

; 211  :         return {_Scary->_Insert_node(_Loc._Location, _Inserted), true};

  00a43	50		 push	 eax
; File C:\Program Files\Microsoft Visual Studio\2022\Professional\VC\Tools\MSVC\14.44.35207\include\xtree

; 831  :         _Construct_in_place(this->_Ptr->_Left, _Myhead);

  00a44	89 30		 mov	 DWORD PTR [eax], esi

; 832  :         _Construct_in_place(this->_Ptr->_Parent, _Myhead);

  00a46	89 70 04	 mov	 DWORD PTR [eax+4], esi
; File C:\Program Files\Microsoft Visual Studio\2022\Professional\VC\Tools\MSVC\14.44.35207\include\map

; 211  :         return {_Scary->_Insert_node(_Loc._Location, _Inserted), true};

  00a49	57		 push	 edi
; File C:\Program Files\Microsoft Visual Studio\2022\Professional\VC\Tools\MSVC\14.44.35207\include\xtree

; 833  :         _Construct_in_place(this->_Ptr->_Right, _Myhead);

  00a4a	89 70 08	 mov	 DWORD PTR [eax+8], esi
; File C:\Program Files\Microsoft Visual Studio\2022\Professional\VC\Tools\MSVC\14.44.35207\include\map

; 211  :         return {_Scary->_Insert_node(_Loc._Location, _Inserted), true};

  00a4d	53		 push	 ebx
; File C:\Program Files\Microsoft Visual Studio\2022\Professional\VC\Tools\MSVC\14.44.35207\include\xtree

; 834  :         this->_Ptr->_Color = _Red;

  00a4e	66 c7 40 0c 00
	00		 mov	 WORD PTR [eax+12], 0
; File C:\Program Files\Microsoft Visual Studio\2022\Professional\VC\Tools\MSVC\14.44.35207\include\map

; 211  :         return {_Scary->_Insert_node(_Loc._Location, _Inserted), true};

  00a54	e8 00 00 00 00	 call	 ?_Insert_node@?$_Tree_val@U?$_Tree_simple_types@U?$pair@$$CBKPAVCUser@@@std@@@std@@@std@@QAEPAU?$_Tree_node@U?$pair@$$CBKPAVCUser@@@std@@PAX@2@U?$_Tree_id@PAU?$_Tree_node@U?$pair@$$CBKPAVCUser@@@std@@PAX@std@@@2@QAU32@@Z ; std::_Tree_val<std::_Tree_simple_types<std::pair<unsigned long const ,CUser *> > >::_Insert_node
  00a59	8b 75 c8	 mov	 esi, DWORD PTR _pUsertmp$2$[ebp]
  00a5c	8b c8		 mov	 ecx, eax
$LN666@AddItToVie:
; File C:\IAGOS\server\v18\Source\Source\_Common\Ctrl.h

; 116  : 	m_2pc[ objid ] = (CUser *)pCtrl;

  00a5e	89 71 14	 mov	 DWORD PTR [ecx+20], esi
$LN778@AddItToVie:
; File C:\IAGOS\server\v18\Source\Source\WorldServer\LinkMap.cpp

; 340  : 						pUsertmp	= (CUser*)pUsertmp->GetNextNode();

  00a61	8b b6 80 01 00
	00		 mov	 esi, DWORD PTR [esi+384]
  00a67	89 75 c8	 mov	 DWORD PTR _pUsertmp$2$[ebp], esi
  00a6a	85 f6		 test	 esi, esi
  00a6c	0f 85 62 fe ff
	ff		 jne	 $LL35@AddItToVie

; 332  : 					while( pUsertmp )

  00a72	8b 4d d0	 mov	 ecx, DWORD PTR _k$4$[ebp]
  00a75	8b 5d e0	 mov	 ebx, DWORD PTR _nMaxWidth$2$[ebp]
  00a78	8b 7d e8	 mov	 edi, DWORD PTR _nUBoundX$2$[ebp]
$LN1140@AddItToVie:

; 328  : 				for( k = nLinkX - nVisibilityRange; k <= nUBoundX; k++ )

  00a7b	8b 75 c4	 mov	 esi, DWORD PTR _apObj$4$[ebp]
  00a7e	8b 45 cc	 mov	 eax, DWORD PTR tv5998[ebp]
$LN32@AddItToVie:
  00a81	41		 inc	 ecx
  00a82	89 4d d0	 mov	 DWORD PTR _k$4$[ebp], ecx
  00a85	3b cf		 cmp	 ecx, edi
  00a87	0f 8e 27 fe ff
	ff		 jle	 $LL34@AddItToVie
  00a8d	8b 55 d8	 mov	 edx, DWORD PTR _j$6$[ebp]
$LN1141@AddItToVie:

; 324  : 
; 325  : 			for( j = nLinkZ - nVisibilityRange; j <= nUBoundZ; j++ )

  00a90	8b 4d d4	 mov	 ecx, DWORD PTR _nUBoundZ$2$[ebp]
$LN29@AddItToVie:
  00a93	42		 inc	 edx
  00a94	03 c3		 add	 eax, ebx
  00a96	89 55 d8	 mov	 DWORD PTR _j$6$[ebp], edx
  00a99	89 45 cc	 mov	 DWORD PTR tv5998[ebp], eax
  00a9c	3b d1		 cmp	 edx, ecx
  00a9e	0f 8e ee fd ff
	ff		 jle	 $LL31@AddItToVie
$LN1078@AddItToVie:

; 341  : 					}
; 342  : 				}
; 343  : 			}
; 344  : //		}
; 345  : 	}
; 346  : }

  00aa4	8b 4d f4	 mov	 ecx, DWORD PTR __$EHRec$[ebp]
  00aa7	64 89 0d 00 00
	00 00		 mov	 DWORD PTR fs:0, ecx
  00aae	59		 pop	 ecx
  00aaf	5f		 pop	 edi
  00ab0	5e		 pop	 esi
  00ab1	5b		 pop	 ebx
  00ab2	8b e5		 mov	 esp, ebp
  00ab4	5d		 pop	 ebp
  00ab5	c2 04 00	 ret	 4
$LN1050@AddItToVie:
  00ab8	e8 00 00 00 00	 call	 ?_Throw_tree_length_error@std@@YAXXZ ; std::_Throw_tree_length_error
$LN1150@AddItToVie:
  00abd	cc		 int	 3
_TEXT	ENDS
;	COMDAT text$x
text$x	SEGMENT
__unwindfunclet$?AddItToView@CLinkMap@@QAEXPAVCCtrl@@@Z$37:
  00000	8d 4d a8	 lea	 ecx, DWORD PTR $T17[ebp]
  00003	e9 00 00 00 00	 jmp	 ??1?$_Alloc_construct_ptr@V?$allocator@U?$_Tree_node@U?$pair@$$CBKPAVCUser@@@std@@PAX@std@@@std@@@std@@QAE@XZ ; std::_Alloc_construct_ptr<std::allocator<std::_Tree_node<std::pair<unsigned long const ,CUser *>,void *> > >::~_Alloc_construct_ptr<std::allocator<std::_Tree_node<std::pair<unsigned long const ,CUser *>,void *> > >
__unwindfunclet$?AddItToView@CLinkMap@@QAEXPAVCCtrl@@@Z$32:
  00008	8d 4d a0	 lea	 ecx, DWORD PTR $T16[ebp]
  0000b	e9 00 00 00 00	 jmp	 ??1?$_Alloc_construct_ptr@V?$allocator@U?$_Tree_node@U?$pair@$$CBKPAVCUser@@@std@@PAX@std@@@std@@@std@@QAE@XZ ; std::_Alloc_construct_ptr<std::allocator<std::_Tree_node<std::pair<unsigned long const ,CUser *>,void *> > >::~_Alloc_construct_ptr<std::allocator<std::_Tree_node<std::pair<unsigned long const ,CUser *>,void *> > >
__unwindfunclet$?AddItToView@CLinkMap@@QAEXPAVCCtrl@@@Z$12:
  00010	8d 4d 98	 lea	 ecx, DWORD PTR $T15[ebp]
  00013	e9 00 00 00 00	 jmp	 ??1?$_Alloc_construct_ptr@V?$allocator@U?$_Tree_node@U?$pair@$$CBKPAVCUser@@@std@@PAX@std@@@std@@@std@@QAE@XZ ; std::_Alloc_construct_ptr<std::allocator<std::_Tree_node<std::pair<unsigned long const ,CUser *>,void *> > >::~_Alloc_construct_ptr<std::allocator<std::_Tree_node<std::pair<unsigned long const ,CUser *>,void *> > >
__unwindfunclet$?AddItToView@CLinkMap@@QAEXPAVCCtrl@@@Z$17:
  00018	8d 4d 90	 lea	 ecx, DWORD PTR $T14[ebp]
  0001b	e9 00 00 00 00	 jmp	 ??1?$_Alloc_construct_ptr@V?$allocator@U?$_Tree_node@U?$pair@$$CBKPAVCCtrl@@@std@@PAX@std@@@std@@@std@@QAE@XZ ; std::_Alloc_construct_ptr<std::allocator<std::_Tree_node<std::pair<unsigned long const ,CCtrl *>,void *> > >::~_Alloc_construct_ptr<std::allocator<std::_Tree_node<std::pair<unsigned long const ,CCtrl *>,void *> > >
__unwindfunclet$?AddItToView@CLinkMap@@QAEXPAVCCtrl@@@Z$7:
  00020	8d 4d 88	 lea	 ecx, DWORD PTR $T13[ebp]
  00023	e9 00 00 00 00	 jmp	 ??1?$_Alloc_construct_ptr@V?$allocator@U?$_Tree_node@U?$pair@$$CBKPAVCUser@@@std@@PAX@std@@@std@@@std@@QAE@XZ ; std::_Alloc_construct_ptr<std::allocator<std::_Tree_node<std::pair<unsigned long const ,CUser *>,void *> > >::~_Alloc_construct_ptr<std::allocator<std::_Tree_node<std::pair<unsigned long const ,CUser *>,void *> > >
__unwindfunclet$?AddItToView@CLinkMap@@QAEXPAVCCtrl@@@Z$2:
  00028	8d 4d 80	 lea	 ecx, DWORD PTR $T10[ebp]
  0002b	e9 00 00 00 00	 jmp	 ??1?$_Alloc_construct_ptr@V?$allocator@U?$_Tree_node@U?$pair@$$CBKPAVCCtrl@@@std@@PAX@std@@@std@@@std@@QAE@XZ ; std::_Alloc_construct_ptr<std::allocator<std::_Tree_node<std::pair<unsigned long const ,CCtrl *>,void *> > >::~_Alloc_construct_ptr<std::allocator<std::_Tree_node<std::pair<unsigned long const ,CCtrl *>,void *> > >
__unwindfunclet$?AddItToView@CLinkMap@@QAEXPAVCCtrl@@@Z$22:
  00030	8d 4d 80	 lea	 ecx, DWORD PTR $T11[ebp]
  00033	e9 00 00 00 00	 jmp	 ??1?$_Alloc_construct_ptr@V?$allocator@U?$_Tree_node@U?$pair@$$CBKPAVCCtrl@@@std@@PAX@std@@@std@@@std@@QAE@XZ ; std::_Alloc_construct_ptr<std::allocator<std::_Tree_node<std::pair<unsigned long const ,CCtrl *>,void *> > >::~_Alloc_construct_ptr<std::allocator<std::_Tree_node<std::pair<unsigned long const ,CCtrl *>,void *> > >
__unwindfunclet$?AddItToView@CLinkMap@@QAEXPAVCCtrl@@@Z$27:
  00038	8d 4d 88	 lea	 ecx, DWORD PTR $T12[ebp]
  0003b	e9 00 00 00 00	 jmp	 ??1?$_Alloc_construct_ptr@V?$allocator@U?$_Tree_node@U?$pair@$$CBKPAVCUser@@@std@@PAX@std@@@std@@@std@@QAE@XZ ; std::_Alloc_construct_ptr<std::allocator<std::_Tree_node<std::pair<unsigned long const ,CUser *>,void *> > >::~_Alloc_construct_ptr<std::allocator<std::_Tree_node<std::pair<unsigned long const ,CUser *>,void *> > >
  00040	cc		 int	 3
  00041	cc		 int	 3
  00042	cc		 int	 3
  00043	cc		 int	 3
  00044	cc		 int	 3
__ehhandler$?AddItToView@CLinkMap@@QAEXPAVCCtrl@@@Z:
  00045	90		 npad	 1
  00046	90		 npad	 1
  00047	8b 54 24 08	 mov	 edx, DWORD PTR [esp+8]
  0004b	8d 42 0c	 lea	 eax, DWORD PTR [edx+12]
  0004e	8b 8a 70 ff ff
	ff		 mov	 ecx, DWORD PTR [edx-144]
  00054	33 c8		 xor	 ecx, eax
  00056	e8 00 00 00 00	 call	 @__security_check_cookie@4
  0005b	b8 00 00 00 00	 mov	 eax, OFFSET __ehfuncinfo$?AddItToView@CLinkMap@@QAEXPAVCCtrl@@@Z
  00060	e9 00 00 00 00	 jmp	 ___CxxFrameHandler3
text$x	ENDS
?AddItToView@CLinkMap@@QAEXPAVCCtrl@@@Z ENDP		; CLinkMap::AddItToView
; Function compile flags: /Ogtp
; File C:\IAGOS\server\v18\Source\Source\WorldServer\LinkMap.cpp
;	COMDAT ?SetObjInLinkMap@CLinkMap@@QAEHABUD3DXVECTOR3@@KHPAVCObj@@@Z
_TEXT	SEGMENT
_vPos$ = 8						; size = 4
_dwLinkType$ = 12					; size = 4
_nLinkLevel$ = 16					; size = 4
_pObj$ = 20						; size = 4
?SetObjInLinkMap@CLinkMap@@QAEHABUD3DXVECTOR3@@KHPAVCObj@@@Z PROC ; CLinkMap::SetObjInLinkMap, COMDAT
; _this$ = ecx

; 194  : {

  00000	55		 push	 ebp
  00001	8b ec		 mov	 ebp, esp

; 195  : 	CObj** ppObj = GetObjPtr( vPos, dwLinkType, nLinkLevel );

  00003	ff 75 10	 push	 DWORD PTR _nLinkLevel$[ebp]
  00006	ff 75 0c	 push	 DWORD PTR _dwLinkType$[ebp]
  00009	ff 75 08	 push	 DWORD PTR _vPos$[ebp]
  0000c	e8 00 00 00 00	 call	 ?GetObjPtr@CLinkMap@@AAEPAPAVCObj@@ABUD3DXVECTOR3@@KH@Z ; CLinkMap::GetObjPtr

; 196  : 	if( ppObj )

  00011	85 c0		 test	 eax, eax
  00013	74 0e		 je	 SHORT $LN2@SetObjInLi

; 197  : 	{
; 198  : 		*ppObj = pObj;

  00015	8b 4d 14	 mov	 ecx, DWORD PTR _pObj$[ebp]
  00018	89 08		 mov	 DWORD PTR [eax], ecx

; 199  : 		return TRUE;

  0001a	b8 01 00 00 00	 mov	 eax, 1

; 203  : }

  0001f	5d		 pop	 ebp
  00020	c2 10 00	 ret	 16			; 00000010H
$LN2@SetObjInLi:

; 200  : 	}
; 201  : 	else
; 202  : 		return FALSE;

  00023	33 c0		 xor	 eax, eax

; 203  : }

  00025	5d		 pop	 ebp
  00026	c2 10 00	 ret	 16			; 00000010H
?SetObjInLinkMap@CLinkMap@@QAEHABUD3DXVECTOR3@@KHPAVCObj@@@Z ENDP ; CLinkMap::SetObjInLinkMap
_TEXT	ENDS
; Function compile flags: /Ogtp
; File C:\IAGOS\server\v18\Source\Source\WorldServer\LinkMap.cpp
;	COMDAT ?GetObjInLinkMap@CLinkMap@@QAEPAVCObj@@ABUD3DXVECTOR3@@KH@Z
_TEXT	SEGMENT
_vPos$ = 8						; size = 4
_dwLinkType$ = 12					; size = 4
_nLinkLevel$ = 16					; size = 4
?GetObjInLinkMap@CLinkMap@@QAEPAVCObj@@ABUD3DXVECTOR3@@KH@Z PROC ; CLinkMap::GetObjInLinkMap, COMDAT
; _this$ = ecx

; 185  : {

  00000	55		 push	 ebp
  00001	8b ec		 mov	 ebp, esp

; 186  : 	CObj** ppObj = GetObjPtr( vPos, dwLinkType, nLinkLevel );

  00003	ff 75 10	 push	 DWORD PTR _nLinkLevel$[ebp]
  00006	ff 75 0c	 push	 DWORD PTR _dwLinkType$[ebp]
  00009	ff 75 08	 push	 DWORD PTR _vPos$[ebp]
  0000c	e8 00 00 00 00	 call	 ?GetObjPtr@CLinkMap@@AAEPAPAVCObj@@ABUD3DXVECTOR3@@KH@Z ; CLinkMap::GetObjPtr

; 187  : 	if( ppObj )

  00011	85 c0		 test	 eax, eax
  00013	74 06		 je	 SHORT $LN2@GetObjInLi

; 188  : 		return *ppObj;

  00015	8b 00		 mov	 eax, DWORD PTR [eax]

; 191  : }

  00017	5d		 pop	 ebp
  00018	c2 0c 00	 ret	 12			; 0000000cH
$LN2@GetObjInLi:

; 189  : 	else
; 190  : 		return NULL;

  0001b	33 c0		 xor	 eax, eax

; 191  : }

  0001d	5d		 pop	 ebp
  0001e	c2 0c 00	 ret	 12			; 0000000cH
?GetObjInLinkMap@CLinkMap@@QAEPAVCObj@@ABUD3DXVECTOR3@@KH@Z ENDP ; CLinkMap::GetObjInLinkMap
_TEXT	ENDS
; Function compile flags: /Ogtp
; File C:\IAGOS\server\v18\Source\Source\WorldServer\LinkMap.cpp
; File C:\IAGOS\server\v18\Source\Source\_Common\Obj.h
; File C:\IAGOS\server\v18\Source\Source\WorldServer\LinkMap.cpp
; File C:\IAGOS\server\v18\Source\Source\_Common\Obj.h
; File C:\IAGOS\server\v18\Source\Source\WorldServer\LinkMap.cpp
; File C:\IAGOS\server\v18\Source\Source\_Common\Obj.h
; File C:\IAGOS\server\v18\Source\Source\WorldServer\LinkMap.cpp
; File C:\IAGOS\server\v18\Source\Source\_Common\Obj.h
; File C:\IAGOS\server\v18\Source\Source\WorldServer\LinkMap.cpp
; File C:\IAGOS\server\v18\Source\Source\_Common\Obj.h
; File C:\IAGOS\server\v18\Source\Source\WorldServer\LinkMap.cpp
; File C:\IAGOS\server\v18\Source\Source\_Common\Obj.h
; File C:\IAGOS\server\v18\Source\Source\WorldServer\LinkMap.cpp
;	COMDAT ?RemoveObjLink@CLinkMap@@QAEHPAVCObj@@@Z
_TEXT	SEGMENT
$T1 = -48						; size = 12
$T2 = -36						; size = 12
$T3 = -24						; size = 12
$T4 = -12						; size = 12
_vPos$ = -12						; size = 12
_pObj$ = 8						; size = 4
?RemoveObjLink@CLinkMap@@QAEHPAVCObj@@@Z PROC		; CLinkMap::RemoveObjLink, COMDAT
; _this$ = ecx

; 160  : {

  00000	55		 push	 ebp
  00001	8b ec		 mov	 ebp, esp
  00003	83 ec 30	 sub	 esp, 48			; 00000030H
  00006	56		 push	 esi

; 161  : 	if( pObj->GetType() == OT_MOVER && ( (CMover*)pObj )->IsPlayer() && pObj->GetLinkLevel() != 0 )

  00007	8b 75 08	 mov	 esi, DWORD PTR _pObj$[ebp]
  0000a	57		 push	 edi
  0000b	8b f9		 mov	 edi, ecx
  0000d	83 be 70 01 00
	00 05		 cmp	 DWORD PTR [esi+368], 5
  00014	75 2e		 jne	 SHORT $LN2@RemoveObjL
  00016	83 be 30 02 00
	00 00		 cmp	 DWORD PTR [esi+560], 0
  0001d	74 25		 je	 SHORT $LN2@RemoveObjL
  0001f	8b 46 08	 mov	 eax, DWORD PTR [esi+8]
  00022	85 c0		 test	 eax, eax
  00024	74 1e		 je	 SHORT $LN2@RemoveObjL

; 162  : 		WriteError( "ROL//%s//%d//%d", ( (CMover*)pObj )->GetName(), ( (CMover*)pObj )->m_idPlayer, pObj->GetLinkLevel() );

  00026	50		 push	 eax
  00027	ff b6 34 02 00
	00		 push	 DWORD PTR [esi+564]
  0002d	8b ce		 mov	 ecx, esi
  0002f	6a 00		 push	 0
  00031	e8 00 00 00 00	 call	 ?GetName@CMover@@QAEPBDH@Z ; CMover::GetName
  00036	50		 push	 eax
  00037	68 00 00 00 00	 push	 OFFSET ??_C@_0BA@EKLFALDM@ROL?1?1?$CFs?1?1?$CFd?1?1?$CFd@
  0003c	e8 00 00 00 00	 call	 ?WriteError@@YAXPBDZZ	; WriteError
  00041	83 c4 10	 add	 esp, 16			; 00000010H
$LN2@RemoveObjL:
; File C:\IAGOS\server\v18\Source\Source\_Common\Obj.h

; 238  : 	D3DXVECTOR3		GetLinkPos()							{	return m_vLink;	}

  00044	f3 0f 7e 86 ac
	01 00 00	 movq	 xmm0, QWORD PTR [esi+428]
; File C:\IAGOS\server\v18\Source\Source\WorldServer\LinkMap.cpp

; 164  : 	CObj** ppObj = GetObjPtr( pObj->GetLinkPos(), pObj->GetLinkType(), pObj->GetLinkLevel() );

  0004c	8b ce		 mov	 ecx, esi
; File C:\IAGOS\server\v18\Source\Source\_Common\Obj.h

; 238  : 	D3DXVECTOR3		GetLinkPos()							{	return m_vLink;	}

  0004e	8b 86 b4 01 00
	00		 mov	 eax, DWORD PTR [esi+436]
; File C:\IAGOS\server\v18\Source\Source\WorldServer\LinkMap.cpp

; 164  : 	CObj** ppObj = GetObjPtr( pObj->GetLinkPos(), pObj->GetLinkType(), pObj->GetLinkLevel() );

  00054	ff 76 08	 push	 DWORD PTR [esi+8]
; File C:\IAGOS\server\v18\Source\Source\_Common\Obj.h

; 238  : 	D3DXVECTOR3		GetLinkPos()							{	return m_vLink;	}

  00057	66 0f d6 45 f4	 movq	 QWORD PTR $T4[ebp], xmm0
  0005c	89 45 fc	 mov	 DWORD PTR $T4[ebp+8], eax
; File C:\IAGOS\server\v18\Source\Source\WorldServer\LinkMap.cpp

; 164  : 	CObj** ppObj = GetObjPtr( pObj->GetLinkPos(), pObj->GetLinkType(), pObj->GetLinkLevel() );

  0005f	e8 00 00 00 00	 call	 ?GetLinkType@CObj@@QAEKXZ ; CObj::GetLinkType
  00064	50		 push	 eax
  00065	8d 45 f4	 lea	 eax, DWORD PTR $T4[ebp]
  00068	8b cf		 mov	 ecx, edi
  0006a	50		 push	 eax
  0006b	e8 00 00 00 00	 call	 ?GetObjPtr@CLinkMap@@AAEPAPAVCObj@@ABUD3DXVECTOR3@@KH@Z ; CLinkMap::GetObjPtr
  00070	8b c8		 mov	 ecx, eax

; 165  : 	if( ppObj )

  00072	85 c9		 test	 ecx, ecx
  00074	74 3f		 je	 SHORT $LN3@RemoveObjL

; 166  : 	{
; 167  : 		if( !pObj->m_pPrev && *ppObj != pObj )

  00076	83 be 7c 01 00
	00 00		 cmp	 DWORD PTR [esi+380], 0
  0007d	8b 01		 mov	 eax, DWORD PTR [ecx]
  0007f	75 14		 jne	 SHORT $LN18@RemoveObjL
  00081	3b c6		 cmp	 eax, esi
  00083	74 14		 je	 SHORT $LN19@RemoveObjL

; 168  : 			return RemoveObjLink2( pObj );

  00085	56		 push	 esi
  00086	8b cf		 mov	 ecx, edi
  00088	e8 00 00 00 00	 call	 ?RemoveObjLink2@CLinkMap@@QAEHPAVCObj@@@Z ; CLinkMap::RemoveObjLink2
  0008d	5f		 pop	 edi

; 182  : }

  0008e	5e		 pop	 esi
  0008f	8b e5		 mov	 esp, ebp
  00091	5d		 pop	 ebp
  00092	c2 04 00	 ret	 4
$LN18@RemoveObjL:

; 169  : 
; 170  : 		if( *ppObj == pObj )

  00095	3b c6		 cmp	 eax, esi
  00097	75 08		 jne	 SHORT $LN5@RemoveObjL
$LN19@RemoveObjL:

; 171  : 			*ppObj = pObj->GetNextNode();

  00099	8b 86 80 01 00
	00		 mov	 eax, DWORD PTR [esi+384]
  0009f	89 01		 mov	 DWORD PTR [ecx], eax
$LN5@RemoveObjL:

; 172  : 		pObj->DelNode();

  000a1	8b ce		 mov	 ecx, esi
  000a3	e8 00 00 00 00	 call	 ?DelNode@CObj@@QAEXXZ	; CObj::DelNode
  000a8	5f		 pop	 edi

; 173  : 		return TRUE;

  000a9	b8 01 00 00 00	 mov	 eax, 1

; 182  : }

  000ae	5e		 pop	 esi
  000af	8b e5		 mov	 esp, ebp
  000b1	5d		 pop	 ebp
  000b2	c2 04 00	 ret	 4
$LN3@RemoveObjL:
; File C:\IAGOS\server\v18\Source\Source\_Common\Obj.h

; 238  : 	D3DXVECTOR3		GetLinkPos()							{	return m_vLink;	}

  000b5	f3 0f 7e 86 ac
	01 00 00	 movq	 xmm0, QWORD PTR [esi+428]
; File C:\IAGOS\server\v18\Source\Source\WorldServer\LinkMap.cpp

; 177  : 	WriteError( "ROL//POS OVERFLOW//%d, %d, %f, %f, %f, %f, %f, %f", 

  000bd	83 ec 30	 sub	 esp, 48			; 00000030H
; File C:\IAGOS\server\v18\Source\Source\_Common\Obj.h

; 238  : 	D3DXVECTOR3		GetLinkPos()							{	return m_vLink;	}

  000c0	8b 86 b4 01 00
	00		 mov	 eax, DWORD PTR [esi+436]
  000c6	66 0f d6 45 f4	 movq	 QWORD PTR _vPos$[ebp], xmm0

; 215  : 	D3DXVECTOR3		GetPos()	{ return m_vPos; }

  000cb	f3 0f 7e 86 60
	01 00 00	 movq	 xmm0, QWORD PTR [esi+352]
  000d3	66 0f d6 45 e8	 movq	 QWORD PTR $T3[ebp], xmm0
  000d8	f3 0f 7e c0	 movq	 xmm0, xmm0
  000dc	66 0f d6 45 dc	 movq	 QWORD PTR $T2[ebp], xmm0
  000e1	f3 0f 7e 86 60
	01 00 00	 movq	 xmm0, QWORD PTR [esi+352]
  000e9	66 0f d6 45 d0	 movq	 QWORD PTR $T1[ebp], xmm0

; 238  : 	D3DXVECTOR3		GetLinkPos()							{	return m_vLink;	}

  000ee	89 45 fc	 mov	 DWORD PTR _vPos$[ebp+8], eax
  000f1	f3 0f 10 45 fc	 movss	 xmm0, DWORD PTR _vPos$[ebp+8]
; File C:\IAGOS\server\v18\Source\Source\WorldServer\LinkMap.cpp

; 177  : 	WriteError( "ROL//POS OVERFLOW//%d, %d, %f, %f, %f, %f, %f, %f", 

  000f6	0f 5a c0	 cvtps2pd xmm0, xmm0
; File C:\IAGOS\server\v18\Source\Source\_Common\Obj.h

; 215  : 	D3DXVECTOR3		GetPos()	{ return m_vPos; }

  000f9	8b 86 68 01 00
	00		 mov	 eax, DWORD PTR [esi+360]
  000ff	89 45 f0	 mov	 DWORD PTR $T3[ebp+8], eax
; File C:\IAGOS\server\v18\Source\Source\WorldServer\LinkMap.cpp

; 177  : 	WriteError( "ROL//POS OVERFLOW//%d, %d, %f, %f, %f, %f, %f, %f", 

  00102	f2 0f 11 44 24
	28		 movsd	 QWORD PTR [esp+40], xmm0
  00108	f3 0f 10 45 f8	 movss	 xmm0, DWORD PTR _vPos$[ebp+4]
  0010d	0f 5a c0	 cvtps2pd xmm0, xmm0
  00110	f2 0f 11 44 24
	20		 movsd	 QWORD PTR [esp+32], xmm0
  00116	f3 0f 10 45 f4	 movss	 xmm0, DWORD PTR _vPos$[ebp]
  0011b	0f 5a c0	 cvtps2pd xmm0, xmm0
  0011e	f2 0f 11 44 24
	18		 movsd	 QWORD PTR [esp+24], xmm0
  00124	f3 0f 10 45 f0	 movss	 xmm0, DWORD PTR $T3[ebp+8]
  00129	0f 5a c0	 cvtps2pd xmm0, xmm0
  0012c	f2 0f 11 44 24
	10		 movsd	 QWORD PTR [esp+16], xmm0
  00132	f3 0f 10 45 e0	 movss	 xmm0, DWORD PTR $T2[ebp+4]
  00137	0f 5a c0	 cvtps2pd xmm0, xmm0
  0013a	f2 0f 11 44 24
	08		 movsd	 QWORD PTR [esp+8], xmm0
  00140	f3 0f 10 45 d0	 movss	 xmm0, DWORD PTR $T1[ebp]
  00145	0f 5a c0	 cvtps2pd xmm0, xmm0
  00148	f2 0f 11 04 24	 movsd	 QWORD PTR [esp], xmm0
  0014d	ff b6 74 01 00
	00		 push	 DWORD PTR [esi+372]
  00153	ff b6 70 01 00
	00		 push	 DWORD PTR [esi+368]
  00159	68 00 00 00 00	 push	 OFFSET ??_C@_0DC@MFJJAAPI@ROL?1?1POS?5OVERFLOW?1?1?$CFd?0?5?$CFd?0?5?$CFf?0?5@
  0015e	e8 00 00 00 00	 call	 ?WriteError@@YAXPBDZZ	; WriteError
  00163	83 c4 3c	 add	 esp, 60			; 0000003cH

; 178  : 			pObj->GetType(), pObj->GetIndex(), pObj->GetPos().x, pObj->GetPos().y, pObj->GetPos().z, vPos.x, vPos.y, vPos.z );
; 179  : 	if( RemoveObjLink2( pObj ) == FALSE )

  00166	8b cf		 mov	 ecx, edi
  00168	56		 push	 esi
  00169	e8 00 00 00 00	 call	 ?RemoveObjLink2@CLinkMap@@QAEHPAVCObj@@@Z ; CLinkMap::RemoveObjLink2
  0016e	85 c0		 test	 eax, eax
  00170	75 07		 jne	 SHORT $LN6@RemoveObjL

; 180  : 		pObj->DelNode();

  00172	8b ce		 mov	 ecx, esi
  00174	e8 00 00 00 00	 call	 ?DelNode@CObj@@QAEXXZ	; CObj::DelNode
$LN6@RemoveObjL:

; 181  : 	return FALSE;

  00179	5f		 pop	 edi
  0017a	33 c0		 xor	 eax, eax

; 182  : }

  0017c	5e		 pop	 esi
  0017d	8b e5		 mov	 esp, ebp
  0017f	5d		 pop	 ebp
  00180	c2 04 00	 ret	 4
?RemoveObjLink@CLinkMap@@QAEHPAVCObj@@@Z ENDP		; CLinkMap::RemoveObjLink
_TEXT	ENDS
; Function compile flags: /Ogtp
; File C:\IAGOS\server\v18\Source\Source\WorldServer\LinkMap.cpp
; File C:\IAGOS\server\v18\Source\Source\WorldServer\LinkMap.h
; File C:\IAGOS\server\v18\Source\Source\WorldServer\LinkMap.cpp
;	COMDAT ?RemoveObjLink2@CLinkMap@@QAEHPAVCObj@@@Z
_TEXT	SEGMENT
_pObj$ = 8						; size = 4
?RemoveObjLink2@CLinkMap@@QAEHPAVCObj@@@Z PROC		; CLinkMap::RemoveObjLink2, COMDAT
; _this$ = ecx

; 136  : {

  00000	55		 push	 ebp
  00001	8b ec		 mov	 ebp, esp
  00003	53		 push	 ebx
  00004	56		 push	 esi
  00005	57		 push	 edi

; 137  : 	WriteError( "ROL//CALLED" );

  00006	68 00 00 00 00	 push	 OFFSET ??_C@_0M@PHCAOLEG@ROL?1?1CALLED@
  0000b	8b f9		 mov	 edi, ecx
  0000d	e8 00 00 00 00	 call	 ?WriteError@@YAXPBDZZ	; WriteError

; 138  : 
; 139  : 	int nLinkLevel	= pObj->GetLinkLevel();

  00012	8b 5d 08	 mov	 ebx, DWORD PTR _pObj$[ebp]
  00015	83 c4 04	 add	 esp, 4

; 140  : 	int nLinkType	= pObj->GetLinkType();

  00018	8b cb		 mov	 ecx, ebx
  0001a	8b 73 08	 mov	 esi, DWORD PTR [ebx+8]
  0001d	e8 00 00 00 00	 call	 ?GetLinkType@CObj@@QAEKXZ ; CObj::GetLinkType
; File C:\IAGOS\server\v18\Source\Source\WorldServer\LinkMap.h

; 78   : 	return m_infos[dwLinkType].apObj[dwLinkLevel]; 

  00022	8b c8		 mov	 ecx, eax
  00024	c1 e1 04	 shl	 ecx, 4
  00027	2b c8		 sub	 ecx, eax
  00029	8d 04 31	 lea	 eax, DWORD PTR [ecx+esi]
; File C:\IAGOS\server\v18\Source\Source\WorldServer\LinkMap.cpp

; 142  : 	int nMaxWidth	= GetLinkWidth( nLinkType, nLinkLevel ) * m_nLandWidth;

  0002c	8b 54 87 04	 mov	 edx, DWORD PTR [edi+eax*4+4]
  00030	0f af 97 f0 00
	00 00		 imul	 edx, DWORD PTR [edi+240]
  00037	8b 74 87 20	 mov	 esi, DWORD PTR [edi+eax*4+32]

; 143  : 	int nMaxPos		= nMaxWidth * nMaxWidth;
; 144  : 
; 145  : 	for( int nPos = 0; nPos < nMaxPos; nPos++ )

  0003b	33 c0		 xor	 eax, eax
  0003d	0f af d2	 imul	 edx, edx
  00040	85 d2		 test	 edx, edx
  00042	7e 0d		 jle	 SHORT $LN3@RemoveObjL
$LL4@RemoveObjL:

; 146  : 	{
; 147  : 		if( aObjLinkMap[nPos] == pObj )

  00044	39 1c 86	 cmp	 DWORD PTR [esi+eax*4], ebx
  00047	8d 0c 86	 lea	 ecx, DWORD PTR [esi+eax*4]
  0004a	74 27		 je	 SHORT $LN16@RemoveObjL

; 143  : 	int nMaxPos		= nMaxWidth * nMaxWidth;
; 144  : 
; 145  : 	for( int nPos = 0; nPos < nMaxPos; nPos++ )

  0004c	40		 inc	 eax
  0004d	3b c2		 cmp	 eax, edx
  0004f	7c f3		 jl	 SHORT $LL4@RemoveObjL
$LN3@RemoveObjL:

; 153  : 		}
; 154  : 	}
; 155  : 	WriteError( "ROL//NOT FIXED//%d, %d", pObj->GetType(), pObj->GetIndex() );

  00051	ff b3 74 01 00
	00		 push	 DWORD PTR [ebx+372]
  00057	ff b3 70 01 00
	00		 push	 DWORD PTR [ebx+368]
  0005d	68 00 00 00 00	 push	 OFFSET ??_C@_0BH@HPEOJKDN@ROL?1?1NOT?5FIXED?1?1?$CFd?0?5?$CFd@
  00062	e8 00 00 00 00	 call	 ?WriteError@@YAXPBDZZ	; WriteError
  00067	83 c4 0c	 add	 esp, 12			; 0000000cH

; 156  : 	return FALSE;

  0006a	33 c0		 xor	 eax, eax
  0006c	5f		 pop	 edi

; 157  : }

  0006d	5e		 pop	 esi
  0006e	5b		 pop	 ebx
  0006f	5d		 pop	 ebp
  00070	c2 04 00	 ret	 4
$LN16@RemoveObjL:

; 148  : 		{
; 149  : 			aObjLinkMap[nPos]	= pObj->GetNextNode();

  00073	8b 83 80 01 00
	00		 mov	 eax, DWORD PTR [ebx+384]
  00079	89 01		 mov	 DWORD PTR [ecx], eax

; 150  : 			pObj->DelNode();

  0007b	8b cb		 mov	 ecx, ebx
  0007d	e8 00 00 00 00	 call	 ?DelNode@CObj@@QAEXXZ	; CObj::DelNode

; 151  : 			WriteError( "ROL//FIXED//%d, %d", pObj->GetType(), pObj->GetIndex() );

  00082	ff b3 74 01 00
	00		 push	 DWORD PTR [ebx+372]
  00088	ff b3 70 01 00
	00		 push	 DWORD PTR [ebx+368]
  0008e	68 00 00 00 00	 push	 OFFSET ??_C@_0BD@KPINOHEH@ROL?1?1FIXED?1?1?$CFd?0?5?$CFd@
  00093	e8 00 00 00 00	 call	 ?WriteError@@YAXPBDZZ	; WriteError
  00098	83 c4 0c	 add	 esp, 12			; 0000000cH

; 152  : 			return TRUE;

  0009b	b8 01 00 00 00	 mov	 eax, 1
  000a0	5f		 pop	 edi

; 157  : }

  000a1	5e		 pop	 esi
  000a2	5b		 pop	 ebx
  000a3	5d		 pop	 ebp
  000a4	c2 04 00	 ret	 4
?RemoveObjLink2@CLinkMap@@QAEHPAVCObj@@@Z ENDP		; CLinkMap::RemoveObjLink2
_TEXT	ENDS
; Function compile flags: /Ogtp
; File C:\IAGOS\server\v18\Source\Source\WorldServer\LinkMap.cpp
; File C:\IAGOS\server\v18\Source\Source\_Common\Obj.h
; File C:\IAGOS\server\v18\Source\Source\WorldServer\LinkMap.cpp
; File C:\IAGOS\server\v18\Source\Source\_Common\Obj.h
; File C:\IAGOS\server\v18\Source\Source\WorldServer\LinkMap.cpp
; File C:\IAGOS\server\v18\Source\Source\_Common\Obj.h
; File C:\IAGOS\server\v18\Source\Source\WorldServer\LinkMap.cpp
;	COMDAT ?InsertObjLink@CLinkMap@@QAEHPAVCObj@@@Z
_TEXT	SEGMENT
$T1 = -12						; size = 12
_pObj$ = 8						; size = 4
?InsertObjLink@CLinkMap@@QAEHPAVCObj@@@Z PROC		; CLinkMap::InsertObjLink, COMDAT
; _this$ = ecx

; 102  : {

  00000	55		 push	 ebp
  00001	8b ec		 mov	 ebp, esp
  00003	83 ec 0c	 sub	 esp, 12			; 0000000cH
  00006	56		 push	 esi

; 103  : 	if( pObj->GetType() == OT_MOVER && ( (CMover*)pObj )->IsPlayer() && pObj->GetLinkLevel() != 0 )

  00007	8b 75 08	 mov	 esi, DWORD PTR _pObj$[ebp]
  0000a	57		 push	 edi
  0000b	8b f9		 mov	 edi, ecx
  0000d	83 be 70 01 00
	00 05		 cmp	 DWORD PTR [esi+368], 5
  00014	75 2e		 jne	 SHORT $LN2@InsertObjL
  00016	83 be 30 02 00
	00 00		 cmp	 DWORD PTR [esi+560], 0
  0001d	74 25		 je	 SHORT $LN2@InsertObjL
  0001f	8b 46 08	 mov	 eax, DWORD PTR [esi+8]
  00022	85 c0		 test	 eax, eax
  00024	74 1e		 je	 SHORT $LN2@InsertObjL

; 104  : 		WriteError( "ML//%s//%d//%d", ( (CMover*)pObj )->GetName(), ( (CMover*)pObj )->m_idPlayer, pObj->GetLinkLevel() );

  00026	50		 push	 eax
  00027	ff b6 34 02 00
	00		 push	 DWORD PTR [esi+564]
  0002d	8b ce		 mov	 ecx, esi
  0002f	6a 00		 push	 0
  00031	e8 00 00 00 00	 call	 ?GetName@CMover@@QAEPBDH@Z ; CMover::GetName
  00036	50		 push	 eax
  00037	68 00 00 00 00	 push	 OFFSET ??_C@_0P@JGKCBPBI@ML?1?1?$CFs?1?1?$CFd?1?1?$CFd@
  0003c	e8 00 00 00 00	 call	 ?WriteError@@YAXPBDZZ	; WriteError
  00041	83 c4 10	 add	 esp, 16			; 00000010H
$LN2@InsertObjL:
; File C:\IAGOS\server\v18\Source\Source\_Common\Obj.h

; 238  : 	D3DXVECTOR3		GetLinkPos()							{	return m_vLink;	}

  00044	f3 0f 7e 86 ac
	01 00 00	 movq	 xmm0, QWORD PTR [esi+428]
; File C:\IAGOS\server\v18\Source\Source\WorldServer\LinkMap.cpp

; 106  : 	CObj** ppObj = GetObjPtr( pObj->GetLinkPos(), pObj->GetLinkType(), pObj->GetLinkLevel() );

  0004c	8b ce		 mov	 ecx, esi
; File C:\IAGOS\server\v18\Source\Source\_Common\Obj.h

; 238  : 	D3DXVECTOR3		GetLinkPos()							{	return m_vLink;	}

  0004e	8b 86 b4 01 00
	00		 mov	 eax, DWORD PTR [esi+436]
; File C:\IAGOS\server\v18\Source\Source\WorldServer\LinkMap.cpp

; 106  : 	CObj** ppObj = GetObjPtr( pObj->GetLinkPos(), pObj->GetLinkType(), pObj->GetLinkLevel() );

  00054	ff 76 08	 push	 DWORD PTR [esi+8]
; File C:\IAGOS\server\v18\Source\Source\_Common\Obj.h

; 238  : 	D3DXVECTOR3		GetLinkPos()							{	return m_vLink;	}

  00057	66 0f d6 45 f4	 movq	 QWORD PTR $T1[ebp], xmm0
  0005c	89 45 fc	 mov	 DWORD PTR $T1[ebp+8], eax
; File C:\IAGOS\server\v18\Source\Source\WorldServer\LinkMap.cpp

; 106  : 	CObj** ppObj = GetObjPtr( pObj->GetLinkPos(), pObj->GetLinkType(), pObj->GetLinkLevel() );

  0005f	e8 00 00 00 00	 call	 ?GetLinkType@CObj@@QAEKXZ ; CObj::GetLinkType
  00064	50		 push	 eax
  00065	8d 45 f4	 lea	 eax, DWORD PTR $T1[ebp]
  00068	8b cf		 mov	 ecx, edi
  0006a	50		 push	 eax
  0006b	e8 00 00 00 00	 call	 ?GetObjPtr@CLinkMap@@AAEPAPAVCObj@@ABUD3DXVECTOR3@@KH@Z ; CLinkMap::GetObjPtr

; 107  : 	if( ppObj )

  00070	85 c0		 test	 eax, eax
  00072	74 74		 je	 SHORT $LN3@InsertObjL

; 108  : 	{
; 109  : 		CObj* pBegObj = *ppObj;

  00074	8b 38		 mov	 edi, DWORD PTR [eax]

; 110  : 		if( pBegObj )

  00076	85 ff		 test	 edi, edi
  00078	74 3a		 je	 SHORT $LN5@InsertObjL

; 111  : 		{
; 112  : 			if( pObj->m_pNext || pObj->m_pPrev )

  0007a	83 be 80 01 00
	00 00		 cmp	 DWORD PTR [esi+384], 0
  00081	75 09		 jne	 SHORT $LN8@InsertObjL
  00083	83 be 7c 01 00
	00 00		 cmp	 DWORD PTR [esi+380], 0
  0008a	74 13		 je	 SHORT $LN7@InsertObjL
$LN8@InsertObjL:

; 113  : 			{
; 114  : 				Error("Çä InsertObjWorld »ő·Î Ăß°ˇµČ żŔşęÁ§Ć®°ˇ NextżÍ Prevżˇ °ŞŔĚ ŔÖł×?? Type = %d \n", pObj->GetType());

  0008c	ff b6 70 01 00
	00		 push	 DWORD PTR [esi+368]
  00092	68 00 00 00 00	 push	 OFFSET ??_C@_0EP@IJCIDOMO@?G?d?5InsertObjWorld?5?$LL?u?$LH?N?5?C?$NP?$LA?$KB?$LF?H?5?$LP@
  00097	e8 00 00 00 00	 call	 ?Error@@YAPBDPBDZZ	; Error
  0009c	83 c4 08	 add	 esp, 8
$LN7@InsertObjL:

; 115  : 			}
; 116  : 			pBegObj->InsNextNode(pObj);

  0009f	56		 push	 esi
  000a0	8b cf		 mov	 ecx, edi
  000a2	e8 00 00 00 00	 call	 ?InsNextNode@CObj@@QAEXPAV1@@Z ; CObj::InsNextNode
  000a7	5f		 pop	 edi

; 131  : 	}
; 132  : 	return TRUE;

  000a8	b8 01 00 00 00	 mov	 eax, 1

; 133  : }

  000ad	5e		 pop	 esi
  000ae	8b e5		 mov	 esp, ebp
  000b0	5d		 pop	 ebp
  000b1	c2 04 00	 ret	 4
$LN5@InsertObjL:

; 117  : 		}
; 118  : 		else 
; 119  : 		{
; 120  : 			*ppObj = pObj;

  000b4	89 30		 mov	 DWORD PTR [eax], esi

; 121  : 			if( pObj->m_pNext || pObj->m_pPrev )

  000b6	83 be 80 01 00
	00 00		 cmp	 DWORD PTR [esi+384], 0
  000bd	75 09		 jne	 SHORT $LN10@InsertObjL
  000bf	83 be 7c 01 00
	00 00		 cmp	 DWORD PTR [esi+380], 0
  000c6	74 13		 je	 SHORT $LN9@InsertObjL
$LN10@InsertObjL:

; 122  : 			{
; 123  : 				Error("Çä InsertObjWorld »ő·Î Ăß°ˇµČ żŔşęÁ§Ć®°ˇ NextżÍ Prevżˇ °ŞŔĚ ŔÖł×?? Type = %d \n", pObj->GetType());

  000c8	ff b6 70 01 00
	00		 push	 DWORD PTR [esi+368]
  000ce	68 00 00 00 00	 push	 OFFSET ??_C@_0EP@IJCIDOMO@?G?d?5InsertObjWorld?5?$LL?u?$LH?N?5?C?$NP?$LA?$KB?$LF?H?5?$LP@
  000d3	e8 00 00 00 00	 call	 ?Error@@YAPBDPBDZZ	; Error
  000d8	83 c4 08	 add	 esp, 8
$LN9@InsertObjL:

; 131  : 	}
; 132  : 	return TRUE;

  000db	5f		 pop	 edi
  000dc	b8 01 00 00 00	 mov	 eax, 1

; 133  : }

  000e1	5e		 pop	 esi
  000e2	8b e5		 mov	 esp, ebp
  000e4	5d		 pop	 ebp
  000e5	c2 04 00	 ret	 4
$LN3@InsertObjL:

; 124  : 			}
; 125  : 		}
; 126  : 	}
; 127  : 	else
; 128  : 	{
; 129  : 		Error("Çä InsObjInFldżˇĽ­ ąüŔ§¸¦ ąţľîł­°Ô Ăß°ˇµÇ·Á°í ÇĎł×?\n");

  000e8	68 00 00 00 00	 push	 OFFSET ??_C@_0DF@BDOLIMDD@?G?d?5InsObjInFld?$LP?$KB?$LM?$KN?5?$LJ?$PM?$MA?$KH?$LI?$KG?5?$LJ?$PO?$LO?n?$LD@
  000ed	e8 00 00 00 00	 call	 ?Error@@YAPBDPBDZZ	; Error
  000f2	83 c4 04	 add	 esp, 4

; 130  : 		return FALSE;

  000f5	33 c0		 xor	 eax, eax
  000f7	5f		 pop	 edi

; 133  : }

  000f8	5e		 pop	 esi
  000f9	8b e5		 mov	 esp, ebp
  000fb	5d		 pop	 ebp
  000fc	c2 04 00	 ret	 4
?InsertObjLink@CLinkMap@@QAEHPAVCObj@@@Z ENDP		; CLinkMap::InsertObjLink
_TEXT	ENDS
; Function compile flags: /Ogtp
; File C:\IAGOS\server\v18\Source\Source\WorldServer\LinkMap.cpp
;	COMDAT ?SetMaxLinkLevel@CLinkMap@@QAEXKH@Z
_TEXT	SEGMENT
_dwLinkType$ = 8					; size = 4
_nLevel$ = 12						; size = 4
?SetMaxLinkLevel@CLinkMap@@QAEXKH@Z PROC		; CLinkMap::SetMaxLinkLevel, COMDAT
; _this$ = ecx

; 676  : {

  00000	55		 push	 ebp
  00001	8b ec		 mov	 ebp, esp

; 677  : 	m_infos[dwLinkType].nMaxLevel = nLevel;

  00003	8b 55 08	 mov	 edx, DWORD PTR _dwLinkType$[ebp]
  00006	8b 45 0c	 mov	 eax, DWORD PTR _nLevel$[ebp]
  00009	c1 e2 04	 shl	 edx, 4
  0000c	2b 55 08	 sub	 edx, DWORD PTR _dwLinkType$[ebp]
  0000f	89 04 91	 mov	 DWORD PTR [ecx+edx*4], eax

; 678  : }

  00012	5d		 pop	 ebp
  00013	c2 08 00	 ret	 8
?SetMaxLinkLevel@CLinkMap@@QAEXKH@Z ENDP		; CLinkMap::SetMaxLinkLevel
_TEXT	ENDS
; Function compile flags: /Ogtp
; File C:\IAGOS\server\v18\Source\Source\WorldServer\LinkMap.cpp
; File C:\IAGOS\server\v18\Source\Source\WorldServer\LinkMap.h
; File C:\IAGOS\server\v18\Source\Source\WorldServer\LinkMap.cpp
;	COMDAT ?CalcLinkLevel@CLinkMap@@QAEKPAVCObj@@M@Z
_TEXT	SEGMENT
_pObj$ = 8						; size = 4
_fObjWidth$ = 12					; size = 4
?CalcLinkLevel@CLinkMap@@QAEKPAVCObj@@M@Z PROC		; CLinkMap::CalcLinkLevel, COMDAT
; _this$ = ecx

; 682  : {

  00000	55		 push	 ebp
  00001	8b ec		 mov	 ebp, esp
  00003	56		 push	 esi
  00004	57		 push	 edi
  00005	8b f9		 mov	 edi, ecx

; 683  : 	float* fGrid = NULL;
; 684  : 	DWORD dwLinkType = pObj->GetLinkType();

  00007	8b 4d 08	 mov	 ecx, DWORD PTR _pObj$[ebp]
  0000a	e8 00 00 00 00	 call	 ?GetLinkType@CObj@@QAEKXZ ; CObj::GetLinkType
  0000f	66 0f 6e 8f 30
	01 00 00	 movd	 xmm1, DWORD PTR [edi+304]

; 685  : 
; 686  : 	if( dwLinkType == CObj::linkStatic )
; 687  : 		fGrid = fStaticGrid;
; 688  : 	else
; 689  : 		fGrid = fDynamicGrid;
; 690  : 
; 691  : 	float fMulGrid = 0.25f * (float)m_iMPU;			//gmpbigsun!!

  00017	85 c0		 test	 eax, eax

; 692  : 	
; 693  : 	int nLevel = NULL;

  00019	f3 0f 10 55 0c	 movss	 xmm2, DWORD PTR _fObjWidth$[ebp]
  0001e	b9 00 00 00 00	 mov	 ecx, OFFSET ?fStaticGrid@@3PAMA
  00023	0f 5b c9	 cvtdq2ps xmm1, xmm1
  00026	ba 00 00 00 00	 mov	 edx, OFFSET ?fDynamicGrid@@3PAMA
  0002b	0f 44 d1	 cmove	 edx, ecx
  0002e	33 c9		 xor	 ecx, ecx
  00030	f3 0f 59 0d 00
	00 00 00	 mulss	 xmm1, DWORD PTR __real@3e800000
  00038	0f 1f 84 00 00
	00 00 00	 npad	 8
$LL4@CalcLinkLe:

; 695  : 	{
; 696  : 		if( fObjWidth < ( fGrid[nLevel] * fMulGrid ) )

  00040	0f 28 c1	 movaps	 xmm0, xmm1
  00043	f3 0f 59 04 8a	 mulss	 xmm0, DWORD PTR [edx+ecx*4]
  00048	0f 2f c2	 comiss	 xmm0, xmm2
  0004b	77 06		 ja	 SHORT $LN14@CalcLinkLe

; 694  : 	for( ; nLevel < MAX_LINKLEVEL; ++nLevel )

  0004d	41		 inc	 ecx
  0004e	83 f9 07	 cmp	 ecx, 7
  00051	7c ed		 jl	 SHORT $LL4@CalcLinkLe
$LN14@CalcLinkLe:

; 697  : 			break;
; 698  : 	}
; 699  : 
; 700  : 	if( nLevel == MAX_LINKLEVEL )
; 701  : 	{
; 702  : 		//ASSERT( 0 );
; 703  : 		TRACE("pObj->m_dwIndex:%d fObjWidth: %f linkType:%d\n", pObj->m_dwIndex, fObjWidth, dwLinkType ); 
; 704  : 	}
; 705  : 	
; 706  : 	nLevel = min( nLevel, (MAX_LINKLEVEL - 1));

  00053	be 06 00 00 00	 mov	 esi, 6
  00058	3b ce		 cmp	 ecx, esi
  0005a	0f 42 f1	 cmovb	 esi, ecx
; File C:\IAGOS\server\v18\Source\Source\WorldServer\LinkMap.h

; 68   : 	return m_infos[dwLinkType].nMaxLevel;

  0005d	8b c8		 mov	 ecx, eax
  0005f	c1 e1 04	 shl	 ecx, 4
  00062	2b c8		 sub	 ecx, eax
; File C:\IAGOS\server\v18\Source\Source\WorldServer\LinkMap.cpp

; 708  : 	if( (nLevel+1) > GetMaxLinkLevel(dwLinkType) )

  00064	8d 56 01	 lea	 edx, DWORD PTR [esi+1]
  00067	3b 14 8f	 cmp	 edx, DWORD PTR [edi+ecx*4]
  0006a	7e 09		 jle	 SHORT $LN18@CalcLinkLe

; 709  : 		SetMaxLinkLevel( dwLinkType, nLevel+1 );

  0006c	52		 push	 edx
  0006d	50		 push	 eax
  0006e	8b cf		 mov	 ecx, edi
  00070	e8 00 00 00 00	 call	 ?SetMaxLinkLevel@CLinkMap@@QAEXKH@Z ; CLinkMap::SetMaxLinkLevel
$LN18@CalcLinkLe:

; 710  : 	return nLevel;
; 711  : }

  00075	5f		 pop	 edi
  00076	8b c6		 mov	 eax, esi
  00078	5e		 pop	 esi
  00079	5d		 pop	 ebp
  0007a	c2 08 00	 ret	 8
?CalcLinkLevel@CLinkMap@@QAEKPAVCObj@@M@Z ENDP		; CLinkMap::CalcLinkLevel
_TEXT	ENDS
; Function compile flags: /Ogtp
; File C:\IAGOS\server\v18\Source\Source\WorldServer\LinkMap.cpp
;	COMDAT ?Release@CLinkMap@@QAEXXZ
_TEXT	SEGMENT
tv402 = -4						; size = 4
?Release@CLinkMap@@QAEXXZ PROC				; CLinkMap::Release, COMDAT
; _this$ = ecx

; 76   : {

  00000	55		 push	 ebp
  00001	8b ec		 mov	 ebp, esp
  00003	51		 push	 ecx
  00004	53		 push	 ebx
  00005	8b d9		 mov	 ebx, ecx
  00007	56		 push	 esi
  00008	57		 push	 edi

; 77   : 	int nLevel, nType;
; 78   : 	for( nLevel = 0; nLevel < MAX_LINKLEVEL; nLevel++ )

  00009	bf 07 00 00 00	 mov	 edi, 7
  0000e	8d b3 f8 00 00
	00		 lea	 esi, DWORD PTR [ebx+248]
$LL4@Release:

; 79   : 	{
; 80   : 		SAFE_DELETE_ARRAY( m_apfMask[nLevel] );

  00014	8b 06		 mov	 eax, DWORD PTR [esi]
  00016	85 c0		 test	 eax, eax
  00018	74 0f		 je	 SHORT $LN2@Release
  0001a	50		 push	 eax
  0001b	e8 00 00 00 00	 call	 ??_V@YAXPAX@Z		; operator delete[]
  00020	83 c4 04	 add	 esp, 4
  00023	c7 06 00 00 00
	00		 mov	 DWORD PTR [esi], 0
$LN2@Release:

; 77   : 	int nLevel, nType;
; 78   : 	for( nLevel = 0; nLevel < MAX_LINKLEVEL; nLevel++ )

  00029	83 c6 04	 add	 esi, 4
  0002c	83 ef 01	 sub	 edi, 1
  0002f	75 e3		 jne	 SHORT $LL4@Release

; 81   : 	}
; 82   : 
; 83   : 	for( nType = 0; nType < MAX_LINKTYPE; nType++ )

  00031	83 c3 20	 add	 ebx, 32			; 00000020H
  00034	c7 45 fc 04 00
	00 00		 mov	 DWORD PTR tv402[ebp], 4
  0003b	0f 1f 44 00 00	 npad	 5
$LL7@Release:

; 84   : 		for( nLevel = 0; nLevel < MAX_LINKLEVEL; nLevel++ )

  00040	8b f3		 mov	 esi, ebx
  00042	bf 07 00 00 00	 mov	 edi, 7
$LL10@Release:

; 85   : 			SAFE_DELETE_ARRAY( m_infos[nType].apObj[nLevel] );

  00047	8b 06		 mov	 eax, DWORD PTR [esi]
  00049	85 c0		 test	 eax, eax
  0004b	74 0f		 je	 SHORT $LN8@Release
  0004d	50		 push	 eax
  0004e	e8 00 00 00 00	 call	 ??_V@YAXPAX@Z		; operator delete[]
  00053	83 c4 04	 add	 esp, 4
  00056	c7 06 00 00 00
	00		 mov	 DWORD PTR [esi], 0
$LN8@Release:

; 84   : 		for( nLevel = 0; nLevel < MAX_LINKLEVEL; nLevel++ )

  0005c	83 c6 04	 add	 esi, 4
  0005f	83 ef 01	 sub	 edi, 1
  00062	75 e3		 jne	 SHORT $LL10@Release

; 81   : 	}
; 82   : 
; 83   : 	for( nType = 0; nType < MAX_LINKTYPE; nType++ )

  00064	83 c3 3c	 add	 ebx, 60			; 0000003cH
  00067	83 6d fc 01	 sub	 DWORD PTR tv402[ebp], 1
  0006b	75 d3		 jne	 SHORT $LL7@Release
  0006d	5f		 pop	 edi
  0006e	5e		 pop	 esi
  0006f	5b		 pop	 ebx

; 86   : }

  00070	8b e5		 mov	 esp, ebp
  00072	5d		 pop	 ebp
  00073	c3		 ret	 0
?Release@CLinkMap@@QAEXXZ ENDP				; CLinkMap::Release
_TEXT	ENDS
; Function compile flags: /Ogtp
; File C:\IAGOS\server\v18\Source\Source\WorldServer\LinkMap.cpp
;	COMDAT ?Init@CLinkMap@@QAEXHHHH@Z
_TEXT	SEGMENT
_this$1$ = -16						; size = 4
_nCX$1$ = -12						; size = 4
_fMulGrid$1$ = -8					; size = 4
tv510 = -4						; size = 4
_nLandWidth$ = 8					; size = 4
tv511 = 8						; size = 4
_nLandHeight$ = 12					; size = 4
_nType$1$ = 12						; size = 4
_nView$ = 16						; size = 4
_nMPU$ = 20						; size = 4
tv509 = 20						; size = 4
?Init@CLinkMap@@QAEXHHHH@Z PROC				; CLinkMap::Init, COMDAT
; _this$ = ecx

; 30   : {

  00000	55		 push	 ebp
  00001	8b ec		 mov	 ebp, esp
  00003	83 ec 10	 sub	 esp, 16			; 00000010H

; 31   : 	m_nLandWidth = nLandWidth;
; 32   : 	m_nLandHeight = nLandHeight;

  00006	8b 45 0c	 mov	 eax, DWORD PTR _nLandHeight$[ebp]
  00009	8b 55 08	 mov	 edx, DWORD PTR _nLandWidth$[ebp]
  0000c	89 81 f4 00 00
	00		 mov	 DWORD PTR [ecx+244], eax

; 33   : 
; 34   : 	//gmpbigsun:  now static grid is min 1 to max 4
; 35   : 	m_iMPU = nMPU;

  00012	8b 45 14	 mov	 eax, DWORD PTR _nMPU$[ebp]
  00015	89 81 30 01 00
	00		 mov	 DWORD PTR [ecx+304], eax
  0001b	53		 push	 ebx
  0001c	56		 push	 esi
  0001d	66 0f 6e c0	 movd	 xmm0, eax

; 36   : 	float fMulGrid = 0.25f * (float)m_iMPU;
; 37   : 	assert( m_iMPU > 0 && m_iMPU < 5 );
; 38   : 	
; 39   : 	int nLevel, nType;
; 40   : 	int nLandscape = MAP_SIZE * m_iMPU;	

  00021	c1 e0 07	 shl	 eax, 7
  00024	0f 5b c0	 cvtdq2ps xmm0, xmm0
  00027	89 45 14	 mov	 DWORD PTR _nMPU$[ebp], eax
  0002a	57		 push	 edi
  0002b	89 91 f0 00 00
	00		 mov	 DWORD PTR [ecx+240], edx
  00031	89 4d f0	 mov	 DWORD PTR _this$1$[ebp], ecx

; 41   : 
; 42   : 	int nCX = nLandscape * nLandWidth;  // ¸ĘŔÇ ÇŃşŻŔÇ ±ćŔĚ (ąĚĹÍ ´ÜŔ§) = ·Łµĺ˝şÄÉŔĚÇÁ ±ćŔĚ * ¸ĘŔÇ ÇŃşŻ ·Łµĺ˝şÄÉŔĚÇÁ °ąĽö 

  00034	0f af c2	 imul	 eax, edx
  00037	33 ff		 xor	 edi, edi
  00039	f3 0f 59 05 00
	00 00 00	 mulss	 xmm0, DWORD PTR __real@3e800000
  00041	ba 00 00 00 00	 mov	 edx, OFFSET ?fStaticGrid@@3PAMA
  00046	89 7d 0c	 mov	 DWORD PTR _nType$1$[ebp], edi
  00049	89 45 f4	 mov	 DWORD PTR _nCX$1$[ebp], eax
  0004c	8d 41 20	 lea	 eax, DWORD PTR [ecx+32]
  0004f	f3 0f 11 45 f8	 movss	 DWORD PTR _fMulGrid$1$[ebp], xmm0
  00054	89 45 fc	 mov	 DWORD PTR tv510[ebp], eax
  00057	66 0f 1f 84 00
	00 00 00 00	 npad	 9
$LL4@Init:

; 46   : 	{
; 47   : 		LINKMAP_INFO* pInfo = &m_infos[nType];
; 48   : 		if( nType == CObj::linkStatic )
; 49   : 			fDivisor = fStaticGrid;
; 50   : 		else
; 51   : 			fDivisor = g_table;
; 52   : 
; 53   : 		for( nLevel = 0; nLevel < MAX_LINKLEVEL; nLevel++ )

  00060	85 ff		 test	 edi, edi
  00062	89 45 08	 mov	 DWORD PTR tv511[ebp], eax
  00065	bb 00 00 00 00	 mov	 ebx, OFFSET ?g_table@@3PAMA
  0006a	8b f0		 mov	 esi, eax
  0006c	0f 44 da	 cmove	 ebx, edx
  0006f	33 ff		 xor	 edi, edi
$LL7@Init:

; 54   : 		{
; 55   : 			int reviseGrid = (int)(fDivisor[ nLevel ] * fMulGrid);

  00071	f3 0f 59 04 bb	 mulss	 xmm0, DWORD PTR [ebx+edi*4]

; 56   : 			assert( reviseGrid > 0 );
; 57   : 			//pInfo->nWidth[nLevel]  = nLandscape / (int)fDivisor[nLevel];  // ·Łµĺ˝şÄÉŔĚÇÁŔÇ Ĺ©±â¸¦ ±×¸®µĺŔÇ Ĺ©±â·Î łŞ´©¸é 
; 58   : 			pInfo->nWidth[nLevel]  = nLandscape / reviseGrid;  // ·Łµĺ˝şÄÉŔĚÇÁŔÇ Ĺ©±â¸¦ ±×¸®µĺŔÇ Ĺ©±â·Î łŞ´©¸é 

  00076	8b 45 14	 mov	 eax, DWORD PTR _nMPU$[ebp]
  00079	99		 cdq
  0007a	f3 0f 2c c8	 cvttss2si ecx, xmm0
  0007e	f7 f9		 idiv	 ecx
  00080	89 46 e4	 mov	 DWORD PTR [esi-28], eax

; 59   : 
; 60   : 			int nCount = ( nCX / reviseGrid  ) * ( nCX / reviseGrid );

  00083	8b 45 f4	 mov	 eax, DWORD PTR _nCX$1$[ebp]
  00086	99		 cdq
  00087	f7 f9		 idiv	 ecx

; 61   : 			pInfo->apObj[nLevel] = new CObj*[ nCount ];

  00089	b9 04 00 00 00	 mov	 ecx, 4
  0008e	8b f0		 mov	 esi, eax
  00090	0f af f6	 imul	 esi, esi
  00093	8b c6		 mov	 eax, esi
  00095	f7 e1		 mul	 ecx
  00097	b9 ff ff ff ff	 mov	 ecx, -1
  0009c	0f 42 c1	 cmovb	 eax, ecx
  0009f	50		 push	 eax
  000a0	e8 00 00 00 00	 call	 ??_U@YAPAXI@Z		; operator new[]
  000a5	8b 4d 08	 mov	 ecx, DWORD PTR tv511[ebp]
  000a8	89 01		 mov	 DWORD PTR [ecx], eax

; 62   : 			memset( pInfo->apObj[nLevel], 0x00, sizeof(CObj*) * nCount );

  000aa	8d 0c b5 00 00
	00 00		 lea	 ecx, DWORD PTR [esi*4]
  000b1	51		 push	 ecx
  000b2	6a 00		 push	 0
  000b4	50		 push	 eax
  000b5	e8 00 00 00 00	 call	 _memset
  000ba	8b 75 08	 mov	 esi, DWORD PTR tv511[ebp]
  000bd	47		 inc	 edi
  000be	f3 0f 10 45 f8	 movss	 xmm0, DWORD PTR _fMulGrid$1$[ebp]
  000c3	83 c6 04	 add	 esi, 4
  000c6	83 c4 10	 add	 esp, 16			; 00000010H
  000c9	89 75 08	 mov	 DWORD PTR tv511[ebp], esi
  000cc	83 ff 07	 cmp	 edi, 7
  000cf	7c a0		 jl	 SHORT $LL7@Init

; 43   : 	float* fDivisor;
; 44   : 
; 45   : 	for( nType = 0; nType < MAX_LINKTYPE; nType++  )

  000d1	8b 7d 0c	 mov	 edi, DWORD PTR _nType$1$[ebp]
  000d4	ba 00 00 00 00	 mov	 edx, OFFSET ?fStaticGrid@@3PAMA
  000d9	8b 45 fc	 mov	 eax, DWORD PTR tv510[ebp]
  000dc	47		 inc	 edi
  000dd	83 c0 3c	 add	 eax, 60			; 0000003cH
  000e0	89 7d 0c	 mov	 DWORD PTR _nType$1$[ebp], edi
  000e3	89 45 fc	 mov	 DWORD PTR tv510[ebp], eax
  000e6	83 ff 04	 cmp	 edi, 4
  000e9	0f 8c 71 ff ff
	ff		 jl	 $LL4@Init

; 63   : 		}
; 64   : 	}
; 65   : 	
; 66   : 	for( int i=0; i < MAX_LINKLEVEL; i++ )

  000ef	8b 45 10	 mov	 eax, DWORD PTR _nView$[ebp]
  000f2	33 db		 xor	 ebx, ebx
  000f4	8b 7d f0	 mov	 edi, DWORD PTR _this$1$[ebp]
  000f7	81 c7 f8 00 00
	00		 add	 edi, 248		; 000000f8H
  000fd	89 7d 14	 mov	 DWORD PTR tv509[ebp], edi
  00100	8d 34 00	 lea	 esi, DWORD PTR [eax+eax]
  00103	0f 1f 40 00 66
	0f 1f 84 00 00
	00 00 00	 npad	 13
$LL10@Init:

; 67   : 	{
; 68   : 		m_nVisibilityRange[i]	= (int)( 2 * nView / pow( 2, i ) );		

  00110	f2 0f 10 05 00
	00 00 00	 movsd	 xmm0, QWORD PTR __real@4000000000000000
  00118	66 0f 6e cb	 movd	 xmm1, ebx
  0011c	f3 0f e6 c9	 cvtdq2pd xmm1, xmm1
  00120	e8 00 00 00 00	 call	 __libm_sse2_pow_precise
  00125	66 0f 6e ce	 movd	 xmm1, esi

; 69   : 		int nSizeOfMask	= ( 2 * m_nVisibilityRange[i] + 1 ) * ( 2 * m_nVisibilityRange[i] + 1 );
; 70   : 		m_apfMask[i]	= new BOOL[nSizeOfMask];

  00129	b9 04 00 00 00	 mov	 ecx, 4
  0012e	f3 0f e6 c9	 cvtdq2pd xmm1, xmm1
  00132	f2 0f 5e c8	 divsd	 xmm1, xmm0
  00136	f2 0f 2c c1	 cvttsd2si eax, xmm1
  0013a	89 47 1c	 mov	 DWORD PTR [edi+28], eax
  0013d	8d 3c 45 01 00
	00 00		 lea	 edi, DWORD PTR [eax*2+1]
  00144	0f af ff	 imul	 edi, edi
  00147	8b c7		 mov	 eax, edi
  00149	f7 e1		 mul	 ecx
  0014b	b9 ff ff ff ff	 mov	 ecx, -1
  00150	0f 42 c1	 cmovb	 eax, ecx
  00153	50		 push	 eax
  00154	e8 00 00 00 00	 call	 ??_U@YAPAXI@Z		; operator new[]
  00159	8b 4d 14	 mov	 ecx, DWORD PTR tv509[ebp]
  0015c	89 01		 mov	 DWORD PTR [ecx], eax

; 71   : 		memset( m_apfMask[i], 0, sizeof(BOOL) * nSizeOfMask );

  0015e	8d 0c bd 00 00
	00 00		 lea	 ecx, DWORD PTR [edi*4]
  00165	51		 push	 ecx
  00166	6a 00		 push	 0
  00168	50		 push	 eax
  00169	e8 00 00 00 00	 call	 _memset
  0016e	8b 7d 14	 mov	 edi, DWORD PTR tv509[ebp]
  00171	43		 inc	 ebx
  00172	83 c7 04	 add	 edi, 4
  00175	83 c4 10	 add	 esp, 16			; 00000010H
  00178	89 7d 14	 mov	 DWORD PTR tv509[ebp], edi
  0017b	83 fb 07	 cmp	 ebx, 7
  0017e	7c 90		 jl	 SHORT $LL10@Init

; 63   : 		}
; 64   : 	}
; 65   : 	
; 66   : 	for( int i=0; i < MAX_LINKLEVEL; i++ )

  00180	5f		 pop	 edi
  00181	5e		 pop	 esi
  00182	5b		 pop	 ebx

; 72   : 	}
; 73   : }

  00183	8b e5		 mov	 esp, ebp
  00185	5d		 pop	 ebp
  00186	c2 10 00	 ret	 16			; 00000010H
?Init@CLinkMap@@QAEXHHHH@Z ENDP				; CLinkMap::Init
_TEXT	ENDS
; Function compile flags: /Ogtp
; File C:\IAGOS\server\v18\Source\Source\WorldServer\LinkMap.cpp
;	COMDAT ??0CLinkMap@@QAE@XZ
_TEXT	SEGMENT
??0CLinkMap@@QAE@XZ PROC				; CLinkMap::CLinkMap, COMDAT
; _this$ = ecx

; 25   : {

  00000	56		 push	 esi
  00001	8b f1		 mov	 esi, ecx

; 26   : 	memset( m_infos, 0x00, sizeof(m_infos) );

  00003	68 f0 00 00 00	 push	 240			; 000000f0H
  00008	6a 00		 push	 0
  0000a	56		 push	 esi
  0000b	c7 86 f0 00 00
	00 00 00 00 00	 mov	 DWORD PTR [esi+240], 0
  00015	c7 86 f4 00 00
	00 00 00 00 00	 mov	 DWORD PTR [esi+244], 0
  0001f	c7 86 34 01 00
	00 00 00 00 00	 mov	 DWORD PTR [esi+308], 0
  00029	e8 00 00 00 00	 call	 _memset
  0002e	83 c4 0c	 add	 esp, 12			; 0000000cH

; 27   : }

  00031	8b c6		 mov	 eax, esi
  00033	5e		 pop	 esi
  00034	c3		 ret	 0
??0CLinkMap@@QAE@XZ ENDP				; CLinkMap::CLinkMap
_TEXT	ENDS
; Function compile flags: /Ogtp
; File C:\Program Files\Microsoft Visual Studio\2022\Professional\VC\Tools\MSVC\14.44.35207\include\xmemory
;	COMDAT ??$_Allocate_manually_vector_aligned@U_Default_allocate_traits@std@@@std@@YAPAXI@Z
_TEXT	SEGMENT
__Bytes$ = 8						; size = 4
??$_Allocate_manually_vector_aligned@U_Default_allocate_traits@std@@@std@@YAPAXI@Z PROC ; std::_Allocate_manually_vector_aligned<std::_Default_allocate_traits>, COMDAT

; 182  : __declspec(allocator) void* _Allocate_manually_vector_aligned(const size_t _Bytes) {

  00000	55		 push	 ebp
  00001	8b ec		 mov	 ebp, esp

; 183  :     // allocate _Bytes manually aligned to at least _Big_allocation_alignment
; 184  :     const size_t _Block_size = _Non_user_size + _Bytes;

  00003	8b 45 08	 mov	 eax, DWORD PTR __Bytes$[ebp]
  00006	8d 48 23	 lea	 ecx, DWORD PTR [eax+35]

; 185  :     if (_Block_size <= _Bytes) {

  00009	3b c8		 cmp	 ecx, eax
  0000b	0f 86 00 00 00
	00		 jbe	 ?_Throw_bad_array_new_length@std@@YAXXZ ; std::_Throw_bad_array_new_length

; 136  :         return ::operator new(_Bytes);

  00011	51		 push	 ecx
  00012	e8 00 00 00 00	 call	 ??2@YAPAXI@Z		; operator new

; 186  :         _Throw_bad_array_new_length(); // add overflow
; 187  :     }
; 188  : 
; 189  :     const uintptr_t _Ptr_container = reinterpret_cast<uintptr_t>(_Traits::_Allocate(_Block_size));

  00017	8b c8		 mov	 ecx, eax

; 136  :         return ::operator new(_Bytes);

  00019	83 c4 04	 add	 esp, 4

; 190  :     _STL_VERIFY(_Ptr_container != 0, "invalid argument"); // validate even in release since we're doing p[-1]

  0001c	85 c9		 test	 ecx, ecx
  0001e	74 0b		 je	 SHORT $LN9@Allocate_m

; 191  :     void* const _Ptr = reinterpret_cast<void*>((_Ptr_container + _Non_user_size) & ~(_Big_allocation_alignment - 1));

  00020	8d 41 23	 lea	 eax, DWORD PTR [ecx+35]
  00023	83 e0 e0	 and	 eax, -32		; ffffffe0H

; 192  :     static_cast<uintptr_t*>(_Ptr)[-1] = _Ptr_container;

  00026	89 48 fc	 mov	 DWORD PTR [eax-4], ecx

; 193  : 
; 194  : #ifdef _DEBUG
; 195  :     static_cast<uintptr_t*>(_Ptr)[-2] = _Big_allocation_sentinel;
; 196  : #endif // defined(_DEBUG)
; 197  :     return _Ptr;
; 198  : }

  00029	5d		 pop	 ebp
  0002a	c3		 ret	 0
$LN9@Allocate_m:

; 190  :     _STL_VERIFY(_Ptr_container != 0, "invalid argument"); // validate even in release since we're doing p[-1]

  0002b	6a 00		 push	 0
  0002d	6a 00		 push	 0
  0002f	6a 00		 push	 0
  00031	6a 00		 push	 0
  00033	6a 00		 push	 0
  00035	e8 00 00 00 00	 call	 __invoke_watson
$LN7@Allocate_m:
  0003a	cc		 int	 3
??$_Allocate_manually_vector_aligned@U_Default_allocate_traits@std@@@std@@YAPAXI@Z ENDP ; std::_Allocate_manually_vector_aligned<std::_Default_allocate_traits>
_TEXT	ENDS
; Function compile flags: /Ogtp
; File C:\Program Files\Microsoft Visual Studio\2022\Professional\VC\Tools\MSVC\14.44.35207\include\xtree
; File C:\Program Files\Microsoft Visual Studio\2022\Professional\VC\Tools\MSVC\14.44.35207\include\utility
; File C:\Program Files\Microsoft Visual Studio\2022\Professional\VC\Tools\MSVC\14.44.35207\include\xmemory
; File C:\Program Files\Microsoft Visual Studio\2022\Professional\VC\Tools\MSVC\14.44.35207\include\xtree
;	COMDAT ??$_Erase_tree@V?$allocator@U?$_Tree_node@U?$pair@$$CBKPAVCUser@@@std@@PAX@std@@@std@@@?$_Tree_val@U?$_Tree_simple_types@U?$pair@$$CBKPAVCUser@@@std@@@std@@@std@@QAEXAAV?$allocator@U?$_Tree_node@U?$pair@$$CBKPAVCUser@@@std@@PAX@std@@@1@PAU?$_Tree_node@U?$pair@$$CBKPAVCUser@@@std@@PAX@1@@Z
_TEXT	SEGMENT
__Al$ = 8						; size = 4
__Rootnode$ = 12					; size = 4
??$_Erase_tree@V?$allocator@U?$_Tree_node@U?$pair@$$CBKPAVCUser@@@std@@PAX@std@@@std@@@?$_Tree_val@U?$_Tree_simple_types@U?$pair@$$CBKPAVCUser@@@std@@@std@@@std@@QAEXAAV?$allocator@U?$_Tree_node@U?$pair@$$CBKPAVCUser@@@std@@PAX@std@@@1@PAU?$_Tree_node@U?$pair@$$CBKPAVCUser@@@std@@PAX@1@@Z PROC ; std::_Tree_val<std::_Tree_simple_types<std::pair<unsigned long const ,CUser *> > >::_Erase_tree<std::allocator<std::_Tree_node<std::pair<unsigned long const ,CUser *>,void *> > >, COMDAT
; _this$ = ecx

; 767  :     void _Erase_tree(_Alnode& _Al, _Nodeptr _Rootnode) noexcept {

  00000	55		 push	 ebp
  00001	8b ec		 mov	 ebp, esp
  00003	53		 push	 ebx
  00004	56		 push	 esi

; 768  :         while (!_Rootnode->_Isnil) { // free subtrees, then node

  00005	8b 75 0c	 mov	 esi, DWORD PTR __Rootnode$[ebp]
  00008	8b d9		 mov	 ebx, ecx
  0000a	80 7e 0d 00	 cmp	 BYTE PTR [esi+13], 0
  0000e	75 25		 jne	 SHORT $LN34@Erase_tree
  00010	57		 push	 edi
  00011	8b 7d 08	 mov	 edi, DWORD PTR __Al$[ebp]
$LL2@Erase_tree:

; 769  :             _Erase_tree(_Al, _Rootnode->_Right);

  00014	ff 76 08	 push	 DWORD PTR [esi+8]
  00017	8b cb		 mov	 ecx, ebx
  00019	57		 push	 edi
  0001a	e8 00 00 00 00	 call	 ??$_Erase_tree@V?$allocator@U?$_Tree_node@U?$pair@$$CBKPAVCUser@@@std@@PAX@std@@@std@@@?$_Tree_val@U?$_Tree_simple_types@U?$pair@$$CBKPAVCUser@@@std@@@std@@@std@@QAEXAAV?$allocator@U?$_Tree_node@U?$pair@$$CBKPAVCUser@@@std@@PAX@std@@@1@PAU?$_Tree_node@U?$pair@$$CBKPAVCUser@@@std@@PAX@1@@Z ; std::_Tree_val<std::_Tree_simple_types<std::pair<unsigned long const ,CUser *> > >::_Erase_tree<std::allocator<std::_Tree_node<std::pair<unsigned long const ,CUser *>,void *> > >
; File C:\Program Files\Microsoft Visual Studio\2022\Professional\VC\Tools\MSVC\14.44.35207\include\utility

; 773  :     _Ty _Old_val = static_cast<_Ty&&>(_Val);

  0001f	8b c6		 mov	 eax, esi

; 774  :     _Val         = static_cast<_Other&&>(_New_val);

  00021	8b 36		 mov	 esi, DWORD PTR [esi]
; File C:\Program Files\Microsoft Visual Studio\2022\Professional\VC\Tools\MSVC\14.44.35207\include\xmemory

; 289  :         ::operator delete(_Ptr, _Bytes);

  00023	6a 18		 push	 24			; 00000018H
  00025	50		 push	 eax
  00026	e8 00 00 00 00	 call	 ??3@YAXPAXI@Z		; operator delete
  0002b	83 c4 08	 add	 esp, 8
; File C:\Program Files\Microsoft Visual Studio\2022\Professional\VC\Tools\MSVC\14.44.35207\include\xtree

; 768  :         while (!_Rootnode->_Isnil) { // free subtrees, then node

  0002e	80 7e 0d 00	 cmp	 BYTE PTR [esi+13], 0
  00032	74 e0		 je	 SHORT $LL2@Erase_tree
  00034	5f		 pop	 edi
$LN34@Erase_tree:
  00035	5e		 pop	 esi

; 770  :             _Alnode::value_type::_Freenode(_Al, _STD exchange(_Rootnode, _Rootnode->_Left));
; 771  :         }
; 772  :     }

  00036	5b		 pop	 ebx
  00037	5d		 pop	 ebp
  00038	c2 08 00	 ret	 8
??$_Erase_tree@V?$allocator@U?$_Tree_node@U?$pair@$$CBKPAVCUser@@@std@@PAX@std@@@std@@@?$_Tree_val@U?$_Tree_simple_types@U?$pair@$$CBKPAVCUser@@@std@@@std@@@std@@QAEXAAV?$allocator@U?$_Tree_node@U?$pair@$$CBKPAVCUser@@@std@@PAX@std@@@1@PAU?$_Tree_node@U?$pair@$$CBKPAVCUser@@@std@@PAX@1@@Z ENDP ; std::_Tree_val<std::_Tree_simple_types<std::pair<unsigned long const ,CUser *> > >::_Erase_tree<std::allocator<std::_Tree_node<std::pair<unsigned long const ,CUser *>,void *> > >
_TEXT	ENDS
; Function compile flags: /Ogtp
; File C:\Program Files\Microsoft Visual Studio\2022\Professional\VC\Tools\MSVC\14.44.35207\include\xtree
; File C:\Program Files\Microsoft Visual Studio\2022\Professional\VC\Tools\MSVC\14.44.35207\include\utility
; File C:\Program Files\Microsoft Visual Studio\2022\Professional\VC\Tools\MSVC\14.44.35207\include\xmemory
; File C:\Program Files\Microsoft Visual Studio\2022\Professional\VC\Tools\MSVC\14.44.35207\include\xtree
;	COMDAT ??$_Erase_tree@V?$allocator@U?$_Tree_node@U?$pair@$$CBKPAVCCtrl@@@std@@PAX@std@@@std@@@?$_Tree_val@U?$_Tree_simple_types@U?$pair@$$CBKPAVCCtrl@@@std@@@std@@@std@@QAEXAAV?$allocator@U?$_Tree_node@U?$pair@$$CBKPAVCCtrl@@@std@@PAX@std@@@1@PAU?$_Tree_node@U?$pair@$$CBKPAVCCtrl@@@std@@PAX@1@@Z
_TEXT	SEGMENT
__Al$ = 8						; size = 4
__Rootnode$ = 12					; size = 4
??$_Erase_tree@V?$allocator@U?$_Tree_node@U?$pair@$$CBKPAVCCtrl@@@std@@PAX@std@@@std@@@?$_Tree_val@U?$_Tree_simple_types@U?$pair@$$CBKPAVCCtrl@@@std@@@std@@@std@@QAEXAAV?$allocator@U?$_Tree_node@U?$pair@$$CBKPAVCCtrl@@@std@@PAX@std@@@1@PAU?$_Tree_node@U?$pair@$$CBKPAVCCtrl@@@std@@PAX@1@@Z PROC ; std::_Tree_val<std::_Tree_simple_types<std::pair<unsigned long const ,CCtrl *> > >::_Erase_tree<std::allocator<std::_Tree_node<std::pair<unsigned long const ,CCtrl *>,void *> > >, COMDAT
; _this$ = ecx

; 767  :     void _Erase_tree(_Alnode& _Al, _Nodeptr _Rootnode) noexcept {

  00000	55		 push	 ebp
  00001	8b ec		 mov	 ebp, esp
  00003	53		 push	 ebx
  00004	56		 push	 esi

; 768  :         while (!_Rootnode->_Isnil) { // free subtrees, then node

  00005	8b 75 0c	 mov	 esi, DWORD PTR __Rootnode$[ebp]
  00008	8b d9		 mov	 ebx, ecx
  0000a	80 7e 0d 00	 cmp	 BYTE PTR [esi+13], 0
  0000e	75 25		 jne	 SHORT $LN34@Erase_tree
  00010	57		 push	 edi
  00011	8b 7d 08	 mov	 edi, DWORD PTR __Al$[ebp]
$LL2@Erase_tree:

; 769  :             _Erase_tree(_Al, _Rootnode->_Right);

  00014	ff 76 08	 push	 DWORD PTR [esi+8]
  00017	8b cb		 mov	 ecx, ebx
  00019	57		 push	 edi
  0001a	e8 00 00 00 00	 call	 ??$_Erase_tree@V?$allocator@U?$_Tree_node@U?$pair@$$CBKPAVCCtrl@@@std@@PAX@std@@@std@@@?$_Tree_val@U?$_Tree_simple_types@U?$pair@$$CBKPAVCCtrl@@@std@@@std@@@std@@QAEXAAV?$allocator@U?$_Tree_node@U?$pair@$$CBKPAVCCtrl@@@std@@PAX@std@@@1@PAU?$_Tree_node@U?$pair@$$CBKPAVCCtrl@@@std@@PAX@1@@Z ; std::_Tree_val<std::_Tree_simple_types<std::pair<unsigned long const ,CCtrl *> > >::_Erase_tree<std::allocator<std::_Tree_node<std::pair<unsigned long const ,CCtrl *>,void *> > >
; File C:\Program Files\Microsoft Visual Studio\2022\Professional\VC\Tools\MSVC\14.44.35207\include\utility

; 773  :     _Ty _Old_val = static_cast<_Ty&&>(_Val);

  0001f	8b c6		 mov	 eax, esi

; 774  :     _Val         = static_cast<_Other&&>(_New_val);

  00021	8b 36		 mov	 esi, DWORD PTR [esi]
; File C:\Program Files\Microsoft Visual Studio\2022\Professional\VC\Tools\MSVC\14.44.35207\include\xmemory

; 289  :         ::operator delete(_Ptr, _Bytes);

  00023	6a 18		 push	 24			; 00000018H
  00025	50		 push	 eax
  00026	e8 00 00 00 00	 call	 ??3@YAXPAXI@Z		; operator delete
  0002b	83 c4 08	 add	 esp, 8
; File C:\Program Files\Microsoft Visual Studio\2022\Professional\VC\Tools\MSVC\14.44.35207\include\xtree

; 768  :         while (!_Rootnode->_Isnil) { // free subtrees, then node

  0002e	80 7e 0d 00	 cmp	 BYTE PTR [esi+13], 0
  00032	74 e0		 je	 SHORT $LL2@Erase_tree
  00034	5f		 pop	 edi
$LN34@Erase_tree:
  00035	5e		 pop	 esi

; 770  :             _Alnode::value_type::_Freenode(_Al, _STD exchange(_Rootnode, _Rootnode->_Left));
; 771  :         }
; 772  :     }

  00036	5b		 pop	 ebx
  00037	5d		 pop	 ebp
  00038	c2 08 00	 ret	 8
??$_Erase_tree@V?$allocator@U?$_Tree_node@U?$pair@$$CBKPAVCCtrl@@@std@@PAX@std@@@std@@@?$_Tree_val@U?$_Tree_simple_types@U?$pair@$$CBKPAVCCtrl@@@std@@@std@@@std@@QAEXAAV?$allocator@U?$_Tree_node@U?$pair@$$CBKPAVCCtrl@@@std@@PAX@std@@@1@PAU?$_Tree_node@U?$pair@$$CBKPAVCCtrl@@@std@@PAX@1@@Z ENDP ; std::_Tree_val<std::_Tree_simple_types<std::pair<unsigned long const ,CCtrl *> > >::_Erase_tree<std::allocator<std::_Tree_node<std::pair<unsigned long const ,CCtrl *>,void *> > >
_TEXT	ENDS
; Function compile flags: /Ogtp
; File C:\Program Files\Microsoft Visual Studio\2022\Professional\VC\Tools\MSVC\14.44.35207\include\xmemory
;	COMDAT ??1?$_Alloc_construct_ptr@V?$allocator@U?$_Tree_node@U?$pair@$$CBKPAVCCtrl@@@std@@PAX@std@@@std@@@std@@QAE@XZ
_TEXT	SEGMENT
??1?$_Alloc_construct_ptr@V?$allocator@U?$_Tree_node@U?$pair@$$CBKPAVCCtrl@@@std@@PAX@std@@@std@@@std@@QAE@XZ PROC ; std::_Alloc_construct_ptr<std::allocator<std::_Tree_node<std::pair<unsigned long const ,CCtrl *>,void *> > >::~_Alloc_construct_ptr<std::allocator<std::_Tree_node<std::pair<unsigned long const ,CCtrl *>,void *> > >, COMDAT
; _this$ = ecx

; 1172 :         if (_Ptr) {

  00000	8b 41 04	 mov	 eax, DWORD PTR [ecx+4]
  00003	85 c0		 test	 eax, eax
  00005	74 0b		 je	 SHORT $LN10@Alloc_cons

; 289  :         ::operator delete(_Ptr, _Bytes);

  00007	6a 18		 push	 24			; 00000018H
  00009	50		 push	 eax
  0000a	e8 00 00 00 00	 call	 ??3@YAXPAXI@Z		; operator delete
  0000f	83 c4 08	 add	 esp, 8
$LN10@Alloc_cons:

; 1173 :             _Al.deallocate(_Ptr, 1);
; 1174 :         }
; 1175 :     }

  00012	c3		 ret	 0
??1?$_Alloc_construct_ptr@V?$allocator@U?$_Tree_node@U?$pair@$$CBKPAVCCtrl@@@std@@PAX@std@@@std@@@std@@QAE@XZ ENDP ; std::_Alloc_construct_ptr<std::allocator<std::_Tree_node<std::pair<unsigned long const ,CCtrl *>,void *> > >::~_Alloc_construct_ptr<std::allocator<std::_Tree_node<std::pair<unsigned long const ,CCtrl *>,void *> > >
_TEXT	ENDS
; Function compile flags: /Ogtp
; File C:\Program Files\Microsoft Visual Studio\2022\Professional\VC\Tools\MSVC\14.44.35207\include\xmemory
;	COMDAT ??1?$_Alloc_construct_ptr@V?$allocator@U?$_Tree_node@U?$pair@$$CBKPAVCUser@@@std@@PAX@std@@@std@@@std@@QAE@XZ
_TEXT	SEGMENT
??1?$_Alloc_construct_ptr@V?$allocator@U?$_Tree_node@U?$pair@$$CBKPAVCUser@@@std@@PAX@std@@@std@@@std@@QAE@XZ PROC ; std::_Alloc_construct_ptr<std::allocator<std::_Tree_node<std::pair<unsigned long const ,CUser *>,void *> > >::~_Alloc_construct_ptr<std::allocator<std::_Tree_node<std::pair<unsigned long const ,CUser *>,void *> > >, COMDAT
; _this$ = ecx

; 1172 :         if (_Ptr) {

  00000	8b 41 04	 mov	 eax, DWORD PTR [ecx+4]
  00003	85 c0		 test	 eax, eax
  00005	74 0b		 je	 SHORT $LN10@Alloc_cons

; 289  :         ::operator delete(_Ptr, _Bytes);

  00007	6a 18		 push	 24			; 00000018H
  00009	50		 push	 eax
  0000a	e8 00 00 00 00	 call	 ??3@YAXPAXI@Z		; operator delete
  0000f	83 c4 08	 add	 esp, 8
$LN10@Alloc_cons:

; 1173 :             _Al.deallocate(_Ptr, 1);
; 1174 :         }
; 1175 :     }

  00012	c3		 ret	 0
??1?$_Alloc_construct_ptr@V?$allocator@U?$_Tree_node@U?$pair@$$CBKPAVCUser@@@std@@PAX@std@@@std@@@std@@QAE@XZ ENDP ; std::_Alloc_construct_ptr<std::allocator<std::_Tree_node<std::pair<unsigned long const ,CUser *>,void *> > >::~_Alloc_construct_ptr<std::allocator<std::_Tree_node<std::pair<unsigned long const ,CUser *>,void *> > >
_TEXT	ENDS
; Function compile flags: /Ogtp
; File C:\Program Files\Microsoft Visual Studio\2022\Professional\VC\Tools\MSVC\14.44.35207\include\xtree
;	COMDAT ??E?$_Tree_unchecked_const_iterator@V?$_Tree_val@U?$_Tree_simple_types@U?$pair@$$CBKPAVCCtrl@@@std@@@std@@@std@@U_Iterator_base0@2@@std@@QAEAAV01@XZ
_TEXT	SEGMENT
??E?$_Tree_unchecked_const_iterator@V?$_Tree_val@U?$_Tree_simple_types@U?$pair@$$CBKPAVCCtrl@@@std@@@std@@@std@@U_Iterator_base0@2@@std@@QAEAAV01@XZ PROC ; std::_Tree_unchecked_const_iterator<std::_Tree_val<std::_Tree_simple_types<std::pair<unsigned long const ,CCtrl *> > >,std::_Iterator_base0>::operator++, COMDAT
; _this$ = ecx

; 49   :     _Tree_unchecked_const_iterator& operator++() noexcept {

  00000	56		 push	 esi
  00001	8b f1		 mov	 esi, ecx
  00003	57		 push	 edi

; 50   :         if (_Ptr->_Right->_Isnil) { // climb looking for right subtree

  00004	8b 16		 mov	 edx, DWORD PTR [esi]
  00006	8b 7a 08	 mov	 edi, DWORD PTR [edx+8]
  00009	80 7f 0d 00	 cmp	 BYTE PTR [edi+13], 0
  0000d	74 22		 je	 SHORT $LN4@operator

; 51   :             _Nodeptr _Pnode;
; 52   :             while (!(_Pnode = _Ptr->_Parent)->_Isnil && _Ptr == _Pnode->_Right) {

  0000f	8b 42 04	 mov	 eax, DWORD PTR [edx+4]
  00012	80 78 0d 00	 cmp	 BYTE PTR [eax+13], 0
  00016	75 12		 jne	 SHORT $LN21@operator
$LL2@operator:
  00018	3b 50 08	 cmp	 edx, DWORD PTR [eax+8]
  0001b	75 0d		 jne	 SHORT $LN21@operator

; 53   :                 _Ptr = _Pnode; // ==> parent while right subtree

  0001d	89 06		 mov	 DWORD PTR [esi], eax
  0001f	8b d0		 mov	 edx, eax
  00021	8b 40 04	 mov	 eax, DWORD PTR [eax+4]
  00024	80 78 0d 00	 cmp	 BYTE PTR [eax+13], 0
  00028	74 ee		 je	 SHORT $LL2@operator
$LN21@operator:

; 54   :             }
; 55   : 
; 56   :             _Ptr = _Pnode; // ==> parent (head if end())
; 57   :         } else {
; 58   :             _Ptr = _Mytree::_Min(_Ptr->_Right); // ==> smallest of right subtree
; 59   :         }
; 60   : 
; 61   :         return *this;

  0002a	89 06		 mov	 DWORD PTR [esi], eax

; 62   :     }

  0002c	8b c6		 mov	 eax, esi
  0002e	5f		 pop	 edi
  0002f	5e		 pop	 esi
  00030	c3		 ret	 0
$LN4@operator:

; 476  :         while (!_Pnode->_Left->_Isnil) {

  00031	8b 0f		 mov	 ecx, DWORD PTR [edi]
  00033	80 79 0d 00	 cmp	 BYTE PTR [ecx+13], 0
  00037	75 13		 jne	 SHORT $LN10@operator
  00039	0f 1f 80 00 00
	00 00		 npad	 7
$LL9@operator:
  00040	8b 01		 mov	 eax, DWORD PTR [ecx]

; 477  :             _Pnode = _Pnode->_Left;

  00042	8b f9		 mov	 edi, ecx
  00044	8b c8		 mov	 ecx, eax
  00046	80 78 0d 00	 cmp	 BYTE PTR [eax+13], 0
  0004a	74 f4		 je	 SHORT $LL9@operator
$LN10@operator:

; 54   :             }
; 55   : 
; 56   :             _Ptr = _Pnode; // ==> parent (head if end())
; 57   :         } else {
; 58   :             _Ptr = _Mytree::_Min(_Ptr->_Right); // ==> smallest of right subtree
; 59   :         }
; 60   : 
; 61   :         return *this;

  0004c	89 3e		 mov	 DWORD PTR [esi], edi

; 62   :     }

  0004e	8b c6		 mov	 eax, esi
  00050	5f		 pop	 edi
  00051	5e		 pop	 esi
  00052	c3		 ret	 0
??E?$_Tree_unchecked_const_iterator@V?$_Tree_val@U?$_Tree_simple_types@U?$pair@$$CBKPAVCCtrl@@@std@@@std@@@std@@U_Iterator_base0@2@@std@@QAEAAV01@XZ ENDP ; std::_Tree_unchecked_const_iterator<std::_Tree_val<std::_Tree_simple_types<std::pair<unsigned long const ,CCtrl *> > >,std::_Iterator_base0>::operator++
_TEXT	ENDS
; Function compile flags: /Ogtp
; File C:\Program Files\Microsoft Visual Studio\2022\Professional\VC\Tools\MSVC\14.44.35207\include\xtree
;	COMDAT ?_Insert_node@?$_Tree_val@U?$_Tree_simple_types@U?$pair@$$CBKPAVCCtrl@@@std@@@std@@@std@@QAEPAU?$_Tree_node@U?$pair@$$CBKPAVCCtrl@@@std@@PAX@2@U?$_Tree_id@PAU?$_Tree_node@U?$pair@$$CBKPAVCCtrl@@@std@@PAX@std@@@2@QAU32@@Z
_TEXT	SEGMENT
__Head$1$ = -4						; size = 4
__Loc$ = 8						; size = 8
__Newnode$ = 16						; size = 4
?_Insert_node@?$_Tree_val@U?$_Tree_simple_types@U?$pair@$$CBKPAVCCtrl@@@std@@@std@@@std@@QAEPAU?$_Tree_node@U?$pair@$$CBKPAVCCtrl@@@std@@PAX@2@U?$_Tree_id@PAU?$_Tree_node@U?$pair@$$CBKPAVCCtrl@@@std@@PAX@std@@@2@QAU32@@Z PROC ; std::_Tree_val<std::_Tree_simple_types<std::pair<unsigned long const ,CCtrl *> > >::_Insert_node, COMDAT
; _this$ = ecx

; 669  :     _Nodeptr _Insert_node(const _Tree_id<_Nodeptr> _Loc, const _Nodeptr _Newnode) noexcept {

  00000	55		 push	 ebp
  00001	8b ec		 mov	 ebp, esp
  00003	51		 push	 ecx

; 670  :         ++_Mysize;
; 671  :         const auto _Head  = _Myhead;
; 672  :         _Newnode->_Parent = _Loc._Parent;

  00004	8b 55 08	 mov	 edx, DWORD PTR __Loc$[ebp]
  00007	53		 push	 ebx
  00008	8b d9		 mov	 ebx, ecx
  0000a	57		 push	 edi
  0000b	8b 7d 10	 mov	 edi, DWORD PTR __Newnode$[ebp]
  0000e	8b 03		 mov	 eax, DWORD PTR [ebx]
  00010	ff 43 04	 inc	 DWORD PTR [ebx+4]
  00013	89 45 fc	 mov	 DWORD PTR __Head$1$[ebp], eax
  00016	89 57 04	 mov	 DWORD PTR [edi+4], edx

; 673  :         if (_Loc._Parent == _Head) { // first node in tree, just set head values

  00019	3b d0		 cmp	 edx, eax
  0001b	75 16		 jne	 SHORT $LN5@Insert_nod

; 674  :             _Head->_Left     = _Newnode;

  0001d	89 38		 mov	 DWORD PTR [eax], edi

; 675  :             _Head->_Parent   = _Newnode;

  0001f	89 78 04	 mov	 DWORD PTR [eax+4], edi

; 676  :             _Head->_Right    = _Newnode;

  00022	89 78 08	 mov	 DWORD PTR [eax+8], edi

; 735  :         return _Newnode;
; 736  :     }

  00025	8b c7		 mov	 eax, edi
  00027	c6 47 0c 01	 mov	 BYTE PTR [edi+12], 1
  0002b	5f		 pop	 edi
  0002c	5b		 pop	 ebx
  0002d	8b e5		 mov	 esp, ebp
  0002f	5d		 pop	 ebp
  00030	c2 0c 00	 ret	 12			; 0000000cH
$LN5@Insert_nod:

; 677  :             _Newnode->_Color = _Black; // the root is black
; 678  :             return _Newnode;
; 679  :         }
; 680  : 
; 681  :         _STL_INTERNAL_CHECK(_Loc._Child != _Tree_child::_Unused);
; 682  :         if (_Loc._Child == _Tree_child::_Right) { // add to right of _Loc._Parent

  00033	83 7d 0c 00	 cmp	 DWORD PTR __Loc$[ebp+4], 0
  00037	75 0d		 jne	 SHORT $LN6@Insert_nod

; 683  :             _STL_INTERNAL_CHECK(_Loc._Parent->_Right->_Isnil);
; 684  :             _Loc._Parent->_Right = _Newnode;

  00039	89 7a 08	 mov	 DWORD PTR [edx+8], edi

; 685  :             if (_Loc._Parent == _Head->_Right) { // remember rightmost node

  0003c	3b 50 08	 cmp	 edx, DWORD PTR [eax+8]
  0003f	75 0d		 jne	 SHORT $LN9@Insert_nod

; 686  :                 _Head->_Right = _Newnode;

  00041	89 78 08	 mov	 DWORD PTR [eax+8], edi

; 687  :             }
; 688  :         } else { // add to left of _Loc._Parent

  00044	eb 08		 jmp	 SHORT $LN9@Insert_nod
$LN6@Insert_nod:

; 689  :             _STL_INTERNAL_CHECK(_Loc._Parent->_Left->_Isnil);
; 690  :             _Loc._Parent->_Left = _Newnode;

  00046	89 3a		 mov	 DWORD PTR [edx], edi

; 691  :             if (_Loc._Parent == _Head->_Left) { // remember leftmost node

  00048	3b 10		 cmp	 edx, DWORD PTR [eax]
  0004a	75 02		 jne	 SHORT $LN9@Insert_nod

; 692  :                 _Head->_Left = _Newnode;

  0004c	89 38		 mov	 DWORD PTR [eax], edi
$LN9@Insert_nod:

; 693  :             }
; 694  :         }
; 695  : 
; 696  :         for (_Nodeptr _Pnode = _Newnode; _Pnode->_Parent->_Color == _Red;) {

  0004e	8b 4f 04	 mov	 ecx, DWORD PTR [edi+4]
  00051	8b c7		 mov	 eax, edi
  00053	80 79 0c 00	 cmp	 BYTE PTR [ecx+12], 0
  00057	0f 85 7d 01 00
	00		 jne	 $LN3@Insert_nod
  0005d	56		 push	 esi
  0005e	66 90		 npad	 2
$LL4@Insert_nod:

; 697  :             if (_Pnode->_Parent == _Pnode->_Parent->_Parent->_Left) { // fixup red-red in left subtree

  00060	8b 50 04	 mov	 edx, DWORD PTR [eax+4]
  00063	8b 72 04	 mov	 esi, DWORD PTR [edx+4]
  00066	8b 0e		 mov	 ecx, DWORD PTR [esi]
  00068	3b d1		 cmp	 edx, ecx
  0006a	0f 85 aa 00 00
	00		 jne	 $LN10@Insert_nod

; 698  :                 const auto _Parent_sibling = _Pnode->_Parent->_Parent->_Right;

  00070	8b 4e 08	 mov	 ecx, DWORD PTR [esi+8]

; 699  :                 if (_Parent_sibling->_Color == _Red) { // parent's sibling has two red children, blacken both

  00073	80 79 0c 00	 cmp	 BYTE PTR [ecx+12], 0
  00077	0f 84 a3 00 00
	00		 je	 $LN82@Insert_nod

; 700  :                     _Pnode->_Parent->_Color          = _Black;
; 701  :                     _Parent_sibling->_Color          = _Black;
; 702  :                     _Pnode->_Parent->_Parent->_Color = _Red;
; 703  :                     _Pnode                           = _Pnode->_Parent->_Parent;
; 704  :                 } else { // parent's sibling has red and black children
; 705  :                     if (_Pnode == _Pnode->_Parent->_Right) { // rotate right child to left

  0007d	8b 72 08	 mov	 esi, DWORD PTR [edx+8]
  00080	3b c6		 cmp	 eax, esi
  00082	75 37		 jne	 SHORT $LN57@Insert_nod

; 485  :         _Wherenode->_Right = _Pnode->_Left;

  00084	8b 0e		 mov	 ecx, DWORD PTR [esi]

; 706  :                         _Pnode = _Pnode->_Parent;

  00086	8b c2		 mov	 eax, edx

; 485  :         _Wherenode->_Right = _Pnode->_Left;

  00088	89 4a 08	 mov	 DWORD PTR [edx+8], ecx

; 486  : 
; 487  :         if (!_Pnode->_Left->_Isnil) {

  0008b	8b 0e		 mov	 ecx, DWORD PTR [esi]
  0008d	80 79 0d 00	 cmp	 BYTE PTR [ecx+13], 0
  00091	75 03		 jne	 SHORT $LN21@Insert_nod

; 488  :             _Pnode->_Left->_Parent = _Wherenode;

  00093	89 41 04	 mov	 DWORD PTR [ecx+4], eax
$LN21@Insert_nod:

; 489  :         }
; 490  : 
; 491  :         _Pnode->_Parent = _Wherenode->_Parent;

  00096	8b 4a 04	 mov	 ecx, DWORD PTR [edx+4]
  00099	89 4e 04	 mov	 DWORD PTR [esi+4], ecx

; 492  : 
; 493  :         if (_Wherenode == _Myhead->_Parent) {

  0009c	8b 0b		 mov	 ecx, DWORD PTR [ebx]
  0009e	3b 41 04	 cmp	 eax, DWORD PTR [ecx+4]
  000a1	75 05		 jne	 SHORT $LN22@Insert_nod

; 494  :             _Myhead->_Parent = _Pnode;

  000a3	89 71 04	 mov	 DWORD PTR [ecx+4], esi
  000a6	eb 0e		 jmp	 SHORT $LN25@Insert_nod
$LN22@Insert_nod:

; 495  :         } else if (_Wherenode == _Wherenode->_Parent->_Left) {

  000a8	8b 4a 04	 mov	 ecx, DWORD PTR [edx+4]
  000ab	3b 01		 cmp	 eax, DWORD PTR [ecx]
  000ad	75 04		 jne	 SHORT $LN24@Insert_nod

; 496  :             _Wherenode->_Parent->_Left = _Pnode;

  000af	89 31		 mov	 DWORD PTR [ecx], esi

; 497  :         } else {

  000b1	eb 03		 jmp	 SHORT $LN25@Insert_nod
$LN24@Insert_nod:

; 498  :             _Wherenode->_Parent->_Right = _Pnode;

  000b3	89 71 08	 mov	 DWORD PTR [ecx+8], esi
$LN25@Insert_nod:

; 499  :         }
; 500  : 
; 501  :         _Pnode->_Left       = _Wherenode;

  000b6	89 06		 mov	 DWORD PTR [esi], eax

; 502  :         _Wherenode->_Parent = _Pnode;

  000b8	89 70 04	 mov	 DWORD PTR [eax+4], esi
$LN57@Insert_nod:

; 707  :                         _Lrotate(_Pnode);
; 708  :                     }
; 709  : 
; 710  :                     _Pnode->_Parent->_Color          = _Black; // propagate red up

  000bb	8b 48 04	 mov	 ecx, DWORD PTR [eax+4]
  000be	c6 41 0c 01	 mov	 BYTE PTR [ecx+12], 1

; 711  :                     _Pnode->_Parent->_Parent->_Color = _Red;

  000c2	8b 48 04	 mov	 ecx, DWORD PTR [eax+4]
  000c5	8b 49 04	 mov	 ecx, DWORD PTR [ecx+4]
  000c8	c6 41 0c 00	 mov	 BYTE PTR [ecx+12], 0

; 712  :                     _Rrotate(_Pnode->_Parent->_Parent);

  000cc	8b 48 04	 mov	 ecx, DWORD PTR [eax+4]
  000cf	8b 51 04	 mov	 edx, DWORD PTR [ecx+4]

; 506  :         _Nodeptr _Pnode   = _Wherenode->_Left;

  000d2	8b 32		 mov	 esi, DWORD PTR [edx]

; 507  :         _Wherenode->_Left = _Pnode->_Right;

  000d4	8b 4e 08	 mov	 ecx, DWORD PTR [esi+8]
  000d7	89 0a		 mov	 DWORD PTR [edx], ecx

; 508  : 
; 509  :         if (!_Pnode->_Right->_Isnil) {

  000d9	8b 4e 08	 mov	 ecx, DWORD PTR [esi+8]
  000dc	80 79 0d 00	 cmp	 BYTE PTR [ecx+13], 0
  000e0	75 03		 jne	 SHORT $LN29@Insert_nod

; 510  :             _Pnode->_Right->_Parent = _Wherenode;

  000e2	89 51 04	 mov	 DWORD PTR [ecx+4], edx
$LN29@Insert_nod:

; 511  :         }
; 512  : 
; 513  :         _Pnode->_Parent = _Wherenode->_Parent;

  000e5	8b 4a 04	 mov	 ecx, DWORD PTR [edx+4]
  000e8	89 4e 04	 mov	 DWORD PTR [esi+4], ecx

; 514  : 
; 515  :         if (_Wherenode == _Myhead->_Parent) {

  000eb	8b 0b		 mov	 ecx, DWORD PTR [ebx]
  000ed	3b 51 04	 cmp	 edx, DWORD PTR [ecx+4]
  000f0	75 0b		 jne	 SHORT $LN30@Insert_nod

; 516  :             _Myhead->_Parent = _Pnode;

  000f2	89 71 04	 mov	 DWORD PTR [ecx+4], esi

; 521  :         }
; 522  : 
; 523  :         _Pnode->_Right      = _Wherenode;

  000f5	89 56 08	 mov	 DWORD PTR [esi+8], edx

; 713  :                 }
; 714  :             } else { // fixup red-red in right subtree

  000f8	e9 cc 00 00 00	 jmp	 $LN81@Insert_nod
$LN30@Insert_nod:

; 517  :         } else if (_Wherenode == _Wherenode->_Parent->_Right) {

  000fd	8b 4a 04	 mov	 ecx, DWORD PTR [edx+4]
  00100	3b 51 08	 cmp	 edx, DWORD PTR [ecx+8]
  00103	75 0b		 jne	 SHORT $LN32@Insert_nod

; 518  :             _Wherenode->_Parent->_Right = _Pnode;

  00105	89 71 08	 mov	 DWORD PTR [ecx+8], esi

; 521  :         }
; 522  : 
; 523  :         _Pnode->_Right      = _Wherenode;

  00108	89 56 08	 mov	 DWORD PTR [esi+8], edx

; 713  :                 }
; 714  :             } else { // fixup red-red in right subtree

  0010b	e9 b9 00 00 00	 jmp	 $LN81@Insert_nod
$LN32@Insert_nod:

; 520  :             _Wherenode->_Parent->_Left = _Pnode;

  00110	89 31		 mov	 DWORD PTR [ecx], esi

; 521  :         }
; 522  : 
; 523  :         _Pnode->_Right      = _Wherenode;

  00112	89 56 08	 mov	 DWORD PTR [esi+8], edx

; 713  :                 }
; 714  :             } else { // fixup red-red in right subtree

  00115	e9 af 00 00 00	 jmp	 $LN81@Insert_nod
$LN10@Insert_nod:

; 715  :                 const auto _Parent_sibling = _Pnode->_Parent->_Parent->_Left;
; 716  :                 if (_Parent_sibling->_Color == _Red) { // parent's sibling has two red children, blacken both

  0011a	80 79 0c 00	 cmp	 BYTE PTR [ecx+12], 0
  0011e	75 1d		 jne	 SHORT $LN15@Insert_nod
$LN82@Insert_nod:

; 693  :             }
; 694  :         }
; 695  : 
; 696  :         for (_Nodeptr _Pnode = _Newnode; _Pnode->_Parent->_Color == _Red;) {

  00120	c6 42 0c 01	 mov	 BYTE PTR [edx+12], 1
  00124	c6 41 0c 01	 mov	 BYTE PTR [ecx+12], 1
  00128	8b 48 04	 mov	 ecx, DWORD PTR [eax+4]
  0012b	8b 49 04	 mov	 ecx, DWORD PTR [ecx+4]
  0012e	c6 41 0c 00	 mov	 BYTE PTR [ecx+12], 0
  00132	8b 48 04	 mov	 ecx, DWORD PTR [eax+4]
  00135	8b 41 04	 mov	 eax, DWORD PTR [ecx+4]
  00138	e9 8f 00 00 00	 jmp	 $LN2@Insert_nod
$LN15@Insert_nod:

; 717  :                     _Pnode->_Parent->_Color          = _Black;
; 718  :                     _Parent_sibling->_Color          = _Black;
; 719  :                     _Pnode->_Parent->_Parent->_Color = _Red;
; 720  :                     _Pnode                           = _Pnode->_Parent->_Parent;
; 721  :                 } else { // parent's sibling has red and black children
; 722  :                     if (_Pnode == _Pnode->_Parent->_Left) { // rotate left child to right

  0013d	8b 32		 mov	 esi, DWORD PTR [edx]
  0013f	3b c6		 cmp	 eax, esi
  00141	75 3a		 jne	 SHORT $LN42@Insert_nod

; 507  :         _Wherenode->_Left = _Pnode->_Right;

  00143	8b 4e 08	 mov	 ecx, DWORD PTR [esi+8]

; 723  :                         _Pnode = _Pnode->_Parent;

  00146	8b c2		 mov	 eax, edx

; 507  :         _Wherenode->_Left = _Pnode->_Right;

  00148	89 08		 mov	 DWORD PTR [eax], ecx

; 508  : 
; 509  :         if (!_Pnode->_Right->_Isnil) {

  0014a	8b 4e 08	 mov	 ecx, DWORD PTR [esi+8]
  0014d	80 79 0d 00	 cmp	 BYTE PTR [ecx+13], 0
  00151	75 03		 jne	 SHORT $LN37@Insert_nod

; 510  :             _Pnode->_Right->_Parent = _Wherenode;

  00153	89 41 04	 mov	 DWORD PTR [ecx+4], eax
$LN37@Insert_nod:

; 511  :         }
; 512  : 
; 513  :         _Pnode->_Parent = _Wherenode->_Parent;

  00156	8b 4a 04	 mov	 ecx, DWORD PTR [edx+4]
  00159	89 4e 04	 mov	 DWORD PTR [esi+4], ecx

; 514  : 
; 515  :         if (_Wherenode == _Myhead->_Parent) {

  0015c	8b 0b		 mov	 ecx, DWORD PTR [ebx]
  0015e	3b 41 04	 cmp	 eax, DWORD PTR [ecx+4]
  00161	75 05		 jne	 SHORT $LN38@Insert_nod

; 516  :             _Myhead->_Parent = _Pnode;

  00163	89 71 04	 mov	 DWORD PTR [ecx+4], esi
  00166	eb 0f		 jmp	 SHORT $LN41@Insert_nod
$LN38@Insert_nod:

; 517  :         } else if (_Wherenode == _Wherenode->_Parent->_Right) {

  00168	8b 4a 04	 mov	 ecx, DWORD PTR [edx+4]
  0016b	3b 41 08	 cmp	 eax, DWORD PTR [ecx+8]
  0016e	75 05		 jne	 SHORT $LN40@Insert_nod

; 518  :             _Wherenode->_Parent->_Right = _Pnode;

  00170	89 71 08	 mov	 DWORD PTR [ecx+8], esi

; 519  :         } else {

  00173	eb 02		 jmp	 SHORT $LN41@Insert_nod
$LN40@Insert_nod:

; 520  :             _Wherenode->_Parent->_Left = _Pnode;

  00175	89 31		 mov	 DWORD PTR [ecx], esi
$LN41@Insert_nod:

; 521  :         }
; 522  : 
; 523  :         _Pnode->_Right      = _Wherenode;

  00177	89 46 08	 mov	 DWORD PTR [esi+8], eax

; 524  :         _Wherenode->_Parent = _Pnode;

  0017a	89 70 04	 mov	 DWORD PTR [eax+4], esi
$LN42@Insert_nod:

; 724  :                         _Rrotate(_Pnode);
; 725  :                     }
; 726  : 
; 727  :                     _Pnode->_Parent->_Color          = _Black; // propagate red up

  0017d	8b 48 04	 mov	 ecx, DWORD PTR [eax+4]
  00180	c6 41 0c 01	 mov	 BYTE PTR [ecx+12], 1

; 728  :                     _Pnode->_Parent->_Parent->_Color = _Red;

  00184	8b 48 04	 mov	 ecx, DWORD PTR [eax+4]
  00187	8b 49 04	 mov	 ecx, DWORD PTR [ecx+4]
  0018a	c6 41 0c 00	 mov	 BYTE PTR [ecx+12], 0

; 729  :                     _Lrotate(_Pnode->_Parent->_Parent);

  0018e	8b 48 04	 mov	 ecx, DWORD PTR [eax+4]
  00191	8b 51 04	 mov	 edx, DWORD PTR [ecx+4]

; 484  :         _Nodeptr _Pnode    = _Wherenode->_Right;

  00194	8b 72 08	 mov	 esi, DWORD PTR [edx+8]

; 485  :         _Wherenode->_Right = _Pnode->_Left;

  00197	8b 0e		 mov	 ecx, DWORD PTR [esi]
  00199	89 4a 08	 mov	 DWORD PTR [edx+8], ecx

; 486  : 
; 487  :         if (!_Pnode->_Left->_Isnil) {

  0019c	8b 0e		 mov	 ecx, DWORD PTR [esi]
  0019e	80 79 0d 00	 cmp	 BYTE PTR [ecx+13], 0
  001a2	75 03		 jne	 SHORT $LN45@Insert_nod

; 488  :             _Pnode->_Left->_Parent = _Wherenode;

  001a4	89 51 04	 mov	 DWORD PTR [ecx+4], edx
$LN45@Insert_nod:

; 489  :         }
; 490  : 
; 491  :         _Pnode->_Parent = _Wherenode->_Parent;

  001a7	8b 4a 04	 mov	 ecx, DWORD PTR [edx+4]
  001aa	89 4e 04	 mov	 DWORD PTR [esi+4], ecx

; 492  : 
; 493  :         if (_Wherenode == _Myhead->_Parent) {

  001ad	8b 0b		 mov	 ecx, DWORD PTR [ebx]
  001af	3b 51 04	 cmp	 edx, DWORD PTR [ecx+4]
  001b2	75 05		 jne	 SHORT $LN46@Insert_nod

; 494  :             _Myhead->_Parent = _Pnode;

  001b4	89 71 04	 mov	 DWORD PTR [ecx+4], esi
  001b7	eb 0e		 jmp	 SHORT $LN49@Insert_nod
$LN46@Insert_nod:

; 495  :         } else if (_Wherenode == _Wherenode->_Parent->_Left) {

  001b9	8b 4a 04	 mov	 ecx, DWORD PTR [edx+4]
  001bc	3b 11		 cmp	 edx, DWORD PTR [ecx]
  001be	75 04		 jne	 SHORT $LN48@Insert_nod

; 496  :             _Wherenode->_Parent->_Left = _Pnode;

  001c0	89 31		 mov	 DWORD PTR [ecx], esi

; 497  :         } else {

  001c2	eb 03		 jmp	 SHORT $LN49@Insert_nod
$LN48@Insert_nod:

; 498  :             _Wherenode->_Parent->_Right = _Pnode;

  001c4	89 71 08	 mov	 DWORD PTR [ecx+8], esi
$LN49@Insert_nod:

; 499  :         }
; 500  : 
; 501  :         _Pnode->_Left       = _Wherenode;

  001c7	89 16		 mov	 DWORD PTR [esi], edx
$LN81@Insert_nod:

; 693  :             }
; 694  :         }
; 695  : 
; 696  :         for (_Nodeptr _Pnode = _Newnode; _Pnode->_Parent->_Color == _Red;) {

  001c9	89 72 04	 mov	 DWORD PTR [edx+4], esi
$LN2@Insert_nod:
  001cc	8b 48 04	 mov	 ecx, DWORD PTR [eax+4]
  001cf	80 79 0c 00	 cmp	 BYTE PTR [ecx+12], 0
  001d3	0f 84 87 fe ff
	ff		 je	 $LL4@Insert_nod
  001d9	5e		 pop	 esi
$LN3@Insert_nod:

; 730  :                 }
; 731  :             }
; 732  :         }
; 733  : 
; 734  :         _Head->_Parent->_Color = _Black; // root is always black

  001da	8b 45 fc	 mov	 eax, DWORD PTR __Head$1$[ebp]
  001dd	8b 40 04	 mov	 eax, DWORD PTR [eax+4]
  001e0	c6 40 0c 01	 mov	 BYTE PTR [eax+12], 1

; 735  :         return _Newnode;
; 736  :     }

  001e4	8b c7		 mov	 eax, edi
  001e6	5f		 pop	 edi
  001e7	5b		 pop	 ebx
  001e8	8b e5		 mov	 esp, ebp
  001ea	5d		 pop	 ebp
  001eb	c2 0c 00	 ret	 12			; 0000000cH
?_Insert_node@?$_Tree_val@U?$_Tree_simple_types@U?$pair@$$CBKPAVCCtrl@@@std@@@std@@@std@@QAEPAU?$_Tree_node@U?$pair@$$CBKPAVCCtrl@@@std@@PAX@2@U?$_Tree_id@PAU?$_Tree_node@U?$pair@$$CBKPAVCCtrl@@@std@@PAX@std@@@2@QAU32@@Z ENDP ; std::_Tree_val<std::_Tree_simple_types<std::pair<unsigned long const ,CCtrl *> > >::_Insert_node
_TEXT	ENDS
; Function compile flags: /Ogtp
; File C:\Program Files\Microsoft Visual Studio\2022\Professional\VC\Tools\MSVC\14.44.35207\include\xtree
; File C:\Program Files\Microsoft Visual Studio\2022\Professional\VC\Tools\MSVC\14.44.35207\include\utility
; File C:\Program Files\Microsoft Visual Studio\2022\Professional\VC\Tools\MSVC\14.44.35207\include\xtree
;	COMDAT ?_Extract@?$_Tree_val@U?$_Tree_simple_types@U?$pair@$$CBKPAVCCtrl@@@std@@@std@@@std@@QAEPAU?$_Tree_node@U?$pair@$$CBKPAVCCtrl@@@std@@PAX@2@V?$_Tree_unchecked_const_iterator@V?$_Tree_val@U?$_Tree_simple_types@U?$pair@$$CBKPAVCCtrl@@@std@@@std@@@std@@U_Iterator_base0@2@@2@@Z
_TEXT	SEGMENT
tv1039 = -16						; size = 4
tv1073 = -12						; size = 4
tv1093 = -12						; size = 4
$T1 = -12						; size = 4
__Erasednode$1$ = -8					; size = 4
_this$1$ = -4						; size = 4
__Where$ = 8						; size = 4
?_Extract@?$_Tree_val@U?$_Tree_simple_types@U?$pair@$$CBKPAVCCtrl@@@std@@@std@@@std@@QAEPAU?$_Tree_node@U?$pair@$$CBKPAVCCtrl@@@std@@PAX@2@V?$_Tree_unchecked_const_iterator@V?$_Tree_val@U?$_Tree_simple_types@U?$pair@$$CBKPAVCCtrl@@@std@@@std@@@std@@U_Iterator_base0@2@@2@@Z PROC ; std::_Tree_val<std::_Tree_simple_types<std::pair<unsigned long const ,CCtrl *> > >::_Extract, COMDAT
; _this$ = ecx

; 527  :     _Nodeptr _Extract(_Unchecked_const_iterator _Where) noexcept {

  00000	55		 push	 ebp
  00001	8b ec		 mov	 ebp, esp
  00003	83 ec 10	 sub	 esp, 16			; 00000010H

; 528  :         _Nodeptr _Erasednode = _Where._Ptr; // node to erase

  00006	8b 45 08	 mov	 eax, DWORD PTR __Where$[ebp]
  00009	53		 push	 ebx
  0000a	56		 push	 esi
  0000b	8b d9		 mov	 ebx, ecx
  0000d	89 45 f8	 mov	 DWORD PTR __Erasednode$1$[ebp], eax
  00010	57		 push	 edi

; 529  :         ++_Where; // save successor iterator for return

  00011	8d 4d 08	 lea	 ecx, DWORD PTR __Where$[ebp]
  00014	89 5d fc	 mov	 DWORD PTR _this$1$[ebp], ebx
  00017	e8 00 00 00 00	 call	 ??E?$_Tree_unchecked_const_iterator@V?$_Tree_val@U?$_Tree_simple_types@U?$pair@$$CBKPAVCCtrl@@@std@@@std@@@std@@U_Iterator_base0@2@@std@@QAEAAV01@XZ ; std::_Tree_unchecked_const_iterator<std::_Tree_val<std::_Tree_simple_types<std::pair<unsigned long const ,CCtrl *> > >,std::_Iterator_base0>::operator++

; 530  : 
; 531  :         _Nodeptr _Fixnode; // the node to recolor as needed
; 532  :         _Nodeptr _Fixnodeparent; // parent of _Fixnode (which may be nil)
; 533  :         _Nodeptr _Pnode = _Erasednode;
; 534  : 
; 535  :         if (_Pnode->_Left->_Isnil) {

  0001c	8b 4d f8	 mov	 ecx, DWORD PTR __Erasednode$1$[ebp]
  0001f	8b 01		 mov	 eax, DWORD PTR [ecx]
  00021	8b 79 08	 mov	 edi, DWORD PTR [ecx+8]
  00024	80 78 0d 00	 cmp	 BYTE PTR [eax+13], 0
  00028	75 18		 jne	 SHORT $LN94@Extract

; 536  :             _Fixnode = _Pnode->_Right; // stitch up right subtree
; 537  :         } else if (_Pnode->_Right->_Isnil) {

  0002a	80 7f 0d 00	 cmp	 BYTE PTR [edi+13], 0
  0002e	74 04		 je	 SHORT $LN7@Extract

; 538  :             _Fixnode = _Pnode->_Left; // stitch up left subtree

  00030	8b f8		 mov	 edi, eax

; 539  :         } else { // two subtrees, must lift successor node to replace erased

  00032	eb 0e		 jmp	 SHORT $LN94@Extract
$LN7@Extract:

; 540  :             _Pnode   = _Where._Ptr; // _Pnode is successor node

  00034	8b 55 08	 mov	 edx, DWORD PTR __Where$[ebp]

; 541  :             _Fixnode = _Pnode->_Right; // _Fixnode is only subtree

  00037	8b 7a 08	 mov	 edi, DWORD PTR [edx+8]
  0003a	3b d1		 cmp	 edx, ecx

; 542  :         }
; 543  : 
; 544  :         if (_Pnode == _Erasednode) { // at most one subtree, relink it

  0003c	0f 85 91 00 00
	00		 jne	 $LN9@Extract
$LN94@Extract:

; 545  :             _Fixnodeparent = _Erasednode->_Parent;
; 546  :             if (!_Fixnode->_Isnil) {

  00042	80 7f 0d 00	 cmp	 BYTE PTR [edi+13], 0
  00046	8b 71 04	 mov	 esi, DWORD PTR [ecx+4]
  00049	75 03		 jne	 SHORT $LN11@Extract

; 547  :                 _Fixnode->_Parent = _Fixnodeparent; // link up

  0004b	89 77 04	 mov	 DWORD PTR [edi+4], esi
$LN11@Extract:

; 548  :             }
; 549  : 
; 550  :             if (_Myhead->_Parent == _Erasednode) {

  0004e	8b 03		 mov	 eax, DWORD PTR [ebx]
  00050	39 48 04	 cmp	 DWORD PTR [eax+4], ecx
  00053	75 05		 jne	 SHORT $LN12@Extract

; 551  :                 _Myhead->_Parent = _Fixnode; // link down from root

  00055	89 78 04	 mov	 DWORD PTR [eax+4], edi
  00058	eb 0b		 jmp	 SHORT $LN15@Extract
$LN12@Extract:

; 552  :             } else if (_Fixnodeparent->_Left == _Erasednode) {

  0005a	39 0e		 cmp	 DWORD PTR [esi], ecx
  0005c	75 04		 jne	 SHORT $LN14@Extract

; 553  :                 _Fixnodeparent->_Left = _Fixnode; // link down to left

  0005e	89 3e		 mov	 DWORD PTR [esi], edi

; 554  :             } else {

  00060	eb 03		 jmp	 SHORT $LN15@Extract
$LN14@Extract:

; 555  :                 _Fixnodeparent->_Right = _Fixnode; // link down to right

  00062	89 7e 08	 mov	 DWORD PTR [esi+8], edi
$LN15@Extract:

; 556  :             }
; 557  : 
; 558  :             if (_Myhead->_Left == _Erasednode) {

  00065	8b 03		 mov	 eax, DWORD PTR [ebx]
  00067	39 08		 cmp	 DWORD PTR [eax], ecx
  00069	75 28		 jne	 SHORT $LN16@Extract

; 559  :                 _Myhead->_Left = _Fixnode->_Isnil ? _Fixnodeparent // smallest is parent of erased node

  0006b	80 7f 0d 00	 cmp	 BYTE PTR [edi+13], 0
  0006f	74 04		 je	 SHORT $LN42@Extract
  00071	8b d6		 mov	 edx, esi
  00073	eb 1c		 jmp	 SHORT $LN43@Extract
$LN42@Extract:

; 476  :         while (!_Pnode->_Left->_Isnil) {

  00075	8b 0f		 mov	 ecx, DWORD PTR [edi]

; 559  :                 _Myhead->_Left = _Fixnode->_Isnil ? _Fixnodeparent // smallest is parent of erased node

  00077	8b d7		 mov	 edx, edi

; 476  :         while (!_Pnode->_Left->_Isnil) {

  00079	80 79 0d 00	 cmp	 BYTE PTR [ecx+13], 0
  0007d	75 0f		 jne	 SHORT $LN49@Extract
  0007f	90		 npad	 1
$LL48@Extract:
  00080	8b 01		 mov	 eax, DWORD PTR [ecx]

; 477  :             _Pnode = _Pnode->_Left;

  00082	8b d1		 mov	 edx, ecx
  00084	8b c8		 mov	 ecx, eax
  00086	80 78 0d 00	 cmp	 BYTE PTR [eax+13], 0
  0008a	74 f4		 je	 SHORT $LL48@Extract
  0008c	8b 03		 mov	 eax, DWORD PTR [ebx]
$LN49@Extract:
  0008e	8b 4d f8	 mov	 ecx, DWORD PTR __Erasednode$1$[ebp]
$LN43@Extract:

; 559  :                 _Myhead->_Left = _Fixnode->_Isnil ? _Fixnodeparent // smallest is parent of erased node

  00091	89 10		 mov	 DWORD PTR [eax], edx
$LN16@Extract:

; 560  :                                                   : _Min(_Fixnode); // smallest in relinked subtree
; 561  :             }
; 562  : 
; 563  :             if (_Myhead->_Right == _Erasednode) {

  00093	8b 13		 mov	 edx, DWORD PTR [ebx]
  00095	39 4a 08	 cmp	 DWORD PTR [edx+8], ecx
  00098	75 34		 jne	 SHORT $LN17@Extract

; 564  :                 _Myhead->_Right = _Fixnode->_Isnil ? _Fixnodeparent // largest is parent of erased node

  0009a	80 7f 0d 00	 cmp	 BYTE PTR [edi+13], 0
  0009e	74 0d		 je	 SHORT $LN44@Extract

; 565  :                                                    : _Max(_Fixnode); // largest in relinked subtree
; 566  :             }
; 567  :         } else { // erased has two subtrees, _Pnode is successor to erased

  000a0	8b 45 f8	 mov	 eax, DWORD PTR __Erasednode$1$[ebp]
  000a3	8b ce		 mov	 ecx, esi
  000a5	89 4a 08	 mov	 DWORD PTR [edx+8], ecx
  000a8	e9 94 00 00 00	 jmp	 $LN58@Extract
$LN44@Extract:

; 468  :         while (!_Pnode->_Right->_Isnil) {

  000ad	8b 47 08	 mov	 eax, DWORD PTR [edi+8]

; 564  :                 _Myhead->_Right = _Fixnode->_Isnil ? _Fixnodeparent // largest is parent of erased node

  000b0	8b cf		 mov	 ecx, edi

; 468  :         while (!_Pnode->_Right->_Isnil) {

  000b2	80 78 0d 00	 cmp	 BYTE PTR [eax+13], 0
  000b6	75 13		 jne	 SHORT $LN54@Extract
  000b8	0f 1f 84 00 00
	00 00 00	 npad	 8
$LL53@Extract:

; 469  :             _Pnode = _Pnode->_Right;

  000c0	8b c8		 mov	 ecx, eax
  000c2	8b 41 08	 mov	 eax, DWORD PTR [ecx+8]
  000c5	80 78 0d 00	 cmp	 BYTE PTR [eax+13], 0
  000c9	74 f5		 je	 SHORT $LL53@Extract
$LN54@Extract:

; 564  :                 _Myhead->_Right = _Fixnode->_Isnil ? _Fixnodeparent // largest is parent of erased node

  000cb	89 4a 08	 mov	 DWORD PTR [edx+8], ecx
$LN17@Extract:

; 565  :                                                    : _Max(_Fixnode); // largest in relinked subtree
; 566  :             }
; 567  :         } else { // erased has two subtrees, _Pnode is successor to erased

  000ce	8b 45 f8	 mov	 eax, DWORD PTR __Erasednode$1$[ebp]
  000d1	eb 6e		 jmp	 SHORT $LN58@Extract
$LN9@Extract:

; 568  :             _Erasednode->_Left->_Parent = _Pnode; // link left up

  000d3	89 50 04	 mov	 DWORD PTR [eax+4], edx

; 569  :             _Pnode->_Left               = _Erasednode->_Left; // link successor down

  000d6	8b 01		 mov	 eax, DWORD PTR [ecx]
  000d8	89 02		 mov	 DWORD PTR [edx], eax

; 570  : 
; 571  :             if (_Pnode == _Erasednode->_Right) {

  000da	8d 42 04	 lea	 eax, DWORD PTR [edx+4]
  000dd	89 45 f4	 mov	 DWORD PTR $T1[ebp], eax
  000e0	3b 51 08	 cmp	 edx, DWORD PTR [ecx+8]
  000e3	75 04		 jne	 SHORT $LN18@Extract

; 572  :                 _Fixnodeparent = _Pnode; // successor is next to erased

  000e5	8b f2		 mov	 esi, edx

; 573  :             } else { // successor further down, link in place of erased

  000e7	eb 1f		 jmp	 SHORT $LN19@Extract
$LN18@Extract:

; 574  :                 _Fixnodeparent = _Pnode->_Parent; // parent is successor's
; 575  :                 if (!_Fixnode->_Isnil) {

  000e9	80 7f 0d 00	 cmp	 BYTE PTR [edi+13], 0
  000ed	8b 30		 mov	 esi, DWORD PTR [eax]
  000ef	75 03		 jne	 SHORT $LN20@Extract

; 576  :                     _Fixnode->_Parent = _Fixnodeparent; // link fix up

  000f1	89 77 04	 mov	 DWORD PTR [edi+4], esi
$LN20@Extract:

; 577  :                 }
; 578  : 
; 579  :                 _Fixnodeparent->_Left        = _Fixnode; // link fix down

  000f4	89 3e		 mov	 DWORD PTR [esi], edi

; 580  :                 _Pnode->_Right               = _Erasednode->_Right; // link next down

  000f6	8b 41 08	 mov	 eax, DWORD PTR [ecx+8]
  000f9	89 42 08	 mov	 DWORD PTR [edx+8], eax

; 581  :                 _Erasednode->_Right->_Parent = _Pnode; // right up

  000fc	8b 41 08	 mov	 eax, DWORD PTR [ecx+8]
  000ff	89 50 04	 mov	 DWORD PTR [eax+4], edx
  00102	8d 42 04	 lea	 eax, DWORD PTR [edx+4]
  00105	89 45 f4	 mov	 DWORD PTR $T1[ebp], eax
$LN19@Extract:

; 582  :             }
; 583  : 
; 584  :             if (_Myhead->_Parent == _Erasednode) {

  00108	8b 03		 mov	 eax, DWORD PTR [ebx]
  0010a	39 48 04	 cmp	 DWORD PTR [eax+4], ecx
  0010d	75 05		 jne	 SHORT $LN21@Extract

; 585  :                 _Myhead->_Parent = _Pnode; // link down from root

  0010f	89 50 04	 mov	 DWORD PTR [eax+4], edx
  00112	eb 0e		 jmp	 SHORT $LN141@Extract
$LN21@Extract:

; 586  :             } else if (_Erasednode->_Parent->_Left == _Erasednode) {

  00114	8b 41 04	 mov	 eax, DWORD PTR [ecx+4]
  00117	39 08		 cmp	 DWORD PTR [eax], ecx
  00119	75 04		 jne	 SHORT $LN23@Extract

; 587  :                 _Erasednode->_Parent->_Left = _Pnode; // link down to left

  0011b	89 10		 mov	 DWORD PTR [eax], edx

; 588  :             } else {

  0011d	eb 03		 jmp	 SHORT $LN141@Extract
$LN23@Extract:

; 589  :                 _Erasednode->_Parent->_Right = _Pnode; // link down to right

  0011f	89 50 08	 mov	 DWORD PTR [eax+8], edx
$LN141@Extract:

; 590  :             }
; 591  : 
; 592  :             _Pnode->_Parent = _Erasednode->_Parent; // link successor up

  00122	b8 04 00 00 00	 mov	 eax, 4
  00127	8b 04 08	 mov	 eax, DWORD PTR [eax+ecx]
  0012a	8b 4d f4	 mov	 ecx, DWORD PTR $T1[ebp]
  0012d	89 01		 mov	 DWORD PTR [ecx], eax
; File C:\Program Files\Microsoft Visual Studio\2022\Professional\VC\Tools\MSVC\14.44.35207\include\utility

; 140  :     _Left    = _STD move(_Right);

  0012f	8b 45 f8	 mov	 eax, DWORD PTR __Erasednode$1$[ebp]
  00132	8a 4a 0c	 mov	 cl, BYTE PTR [edx+12]
  00135	8a 40 0c	 mov	 al, BYTE PTR [eax+12]
  00138	88 42 0c	 mov	 BYTE PTR [edx+12], al

; 141  :     _Right   = _STD move(_Tmp);

  0013b	8b 45 f8	 mov	 eax, DWORD PTR __Erasednode$1$[ebp]
  0013e	88 48 0c	 mov	 BYTE PTR [eax+12], cl
$LN58@Extract:
; File C:\Program Files\Microsoft Visual Studio\2022\Professional\VC\Tools\MSVC\14.44.35207\include\xtree

; 596  :         if (_Erasednode->_Color == _Black) { // erasing black link, must recolor/rebalance tree

  00141	80 78 0c 01	 cmp	 BYTE PTR [eax+12], 1
  00145	0f 85 ba 01 00
	00		 jne	 $LN25@Extract

; 597  :             for (; _Fixnode != _Myhead->_Parent && _Fixnode->_Color == _Black; _Fixnodeparent = _Fixnode->_Parent) {

  0014b	8b 03		 mov	 eax, DWORD PTR [ebx]
  0014d	3b 78 04	 cmp	 edi, DWORD PTR [eax+4]
  00150	0f 84 a8 01 00
	00		 je	 $LN3@Extract
  00156	80 7f 0c 01	 cmp	 BYTE PTR [edi+12], 1
  0015a	89 75 f4	 mov	 DWORD PTR tv1093[ebp], esi
  0015d	0f 85 9b 01 00
	00		 jne	 $LN3@Extract
$LL4@Extract:

; 598  :                 if (_Fixnode == _Fixnodeparent->_Left) { // fixup left subtree

  00163	8b 0e		 mov	 ecx, DWORD PTR [esi]
  00165	3b f9		 cmp	 edi, ecx
  00167	0f 85 be 00 00
	00		 jne	 $LN26@Extract

; 599  :                     _Pnode = _Fixnodeparent->_Right;

  0016d	8b 4e 08	 mov	 ecx, DWORD PTR [esi+8]

; 600  :                     if (_Pnode->_Color == _Red) { // rotate red up from right subtree

  00170	80 79 0c 00	 cmp	 BYTE PTR [ecx+12], 0
  00174	75 54		 jne	 SHORT $LN95@Extract

; 601  :                         _Pnode->_Color         = _Black;

  00176	c6 41 0c 01	 mov	 BYTE PTR [ecx+12], 1

; 484  :         _Nodeptr _Pnode    = _Wherenode->_Right;

  0017a	8b 4e 08	 mov	 ecx, DWORD PTR [esi+8]

; 602  :                         _Fixnodeparent->_Color = _Red;

  0017d	c6 46 0c 00	 mov	 BYTE PTR [esi+12], 0

; 485  :         _Wherenode->_Right = _Pnode->_Left;

  00181	8b 01		 mov	 eax, DWORD PTR [ecx]
  00183	89 46 08	 mov	 DWORD PTR [esi+8], eax

; 486  : 
; 487  :         if (!_Pnode->_Left->_Isnil) {

  00186	8b 01		 mov	 eax, DWORD PTR [ecx]
  00188	80 78 0d 00	 cmp	 BYTE PTR [eax+13], 0
  0018c	75 03		 jne	 SHORT $LN61@Extract

; 488  :             _Pnode->_Left->_Parent = _Wherenode;

  0018e	89 70 04	 mov	 DWORD PTR [eax+4], esi
$LN61@Extract:

; 489  :         }
; 490  : 
; 491  :         _Pnode->_Parent = _Wherenode->_Parent;

  00191	8b 46 04	 mov	 eax, DWORD PTR [esi+4]
  00194	8d 56 04	 lea	 edx, DWORD PTR [esi+4]
  00197	89 41 04	 mov	 DWORD PTR [ecx+4], eax

; 492  : 
; 493  :         if (_Wherenode == _Myhead->_Parent) {

  0019a	8b 03		 mov	 eax, DWORD PTR [ebx]
  0019c	3b 70 04	 cmp	 esi, DWORD PTR [eax+4]
  0019f	75 0c		 jne	 SHORT $LN62@Extract

; 494  :             _Myhead->_Parent = _Pnode;

  001a1	89 48 04	 mov	 DWORD PTR [eax+4], ecx

; 499  :         }
; 500  : 
; 501  :         _Pnode->_Left       = _Wherenode;

  001a4	89 31		 mov	 DWORD PTR [ecx], esi

; 502  :         _Wherenode->_Parent = _Pnode;

  001a6	89 0a		 mov	 DWORD PTR [edx], ecx

; 603  :                         _Lrotate(_Fixnodeparent);
; 604  :                         _Pnode = _Fixnodeparent->_Right;

  001a8	8b 4e 08	 mov	 ecx, DWORD PTR [esi+8]
  001ab	eb 20		 jmp	 SHORT $LN87@Extract
$LN62@Extract:

; 495  :         } else if (_Wherenode == _Wherenode->_Parent->_Left) {

  001ad	8b 02		 mov	 eax, DWORD PTR [edx]
  001af	3b 30		 cmp	 esi, DWORD PTR [eax]
  001b1	75 0b		 jne	 SHORT $LN64@Extract

; 496  :             _Wherenode->_Parent->_Left = _Pnode;

  001b3	89 08		 mov	 DWORD PTR [eax], ecx

; 499  :         }
; 500  : 
; 501  :         _Pnode->_Left       = _Wherenode;

  001b5	89 31		 mov	 DWORD PTR [ecx], esi

; 502  :         _Wherenode->_Parent = _Pnode;

  001b7	89 0a		 mov	 DWORD PTR [edx], ecx

; 603  :                         _Lrotate(_Fixnodeparent);
; 604  :                         _Pnode = _Fixnodeparent->_Right;

  001b9	8b 4e 08	 mov	 ecx, DWORD PTR [esi+8]
  001bc	eb 0f		 jmp	 SHORT $LN87@Extract
$LN64@Extract:

; 498  :             _Wherenode->_Parent->_Right = _Pnode;

  001be	89 48 08	 mov	 DWORD PTR [eax+8], ecx

; 499  :         }
; 500  : 
; 501  :         _Pnode->_Left       = _Wherenode;

  001c1	89 31		 mov	 DWORD PTR [ecx], esi

; 502  :         _Wherenode->_Parent = _Pnode;

  001c3	89 0a		 mov	 DWORD PTR [edx], ecx

; 603  :                         _Lrotate(_Fixnodeparent);
; 604  :                         _Pnode = _Fixnodeparent->_Right;

  001c5	8b 4e 08	 mov	 ecx, DWORD PTR [esi+8]
  001c8	eb 03		 jmp	 SHORT $LN87@Extract
$LN95@Extract:
  001ca	8d 56 04	 lea	 edx, DWORD PTR [esi+4]
$LN87@Extract:

; 605  :                     }
; 606  : 
; 607  :                     if (_Pnode->_Isnil) {

  001cd	80 79 0d 00	 cmp	 BYTE PTR [ecx+13], 0
  001d1	0f 85 d0 00 00
	00		 jne	 $LN2@Extract

; 608  :                         _Fixnode = _Fixnodeparent; // shouldn't happen
; 609  :                     } else if (_Pnode->_Left->_Color == _Black
; 610  :                                && _Pnode->_Right->_Color == _Black) { // redden right subtree with black children

  001d7	8b 01		 mov	 eax, DWORD PTR [ecx]
  001d9	80 78 0c 01	 cmp	 BYTE PTR [eax+12], 1
  001dd	75 0d		 jne	 SHORT $LN97@Extract
  001df	8b 41 08	 mov	 eax, DWORD PTR [ecx+8]
  001e2	80 78 0c 01	 cmp	 BYTE PTR [eax+12], 1
  001e6	0f 84 b4 00 00
	00		 je	 $LN142@Extract
$LN97@Extract:

; 611  :                         _Pnode->_Color = _Red;
; 612  :                         _Fixnode       = _Fixnodeparent;
; 613  :                     } else { // must rearrange right subtree
; 614  :                         if (_Pnode->_Right->_Color == _Black) { // rotate red up from left sub-subtree

  001ec	8b 41 08	 mov	 eax, DWORD PTR [ecx+8]
  001ef	8b 5d fc	 mov	 ebx, DWORD PTR _this$1$[ebp]
  001f2	80 78 0c 01	 cmp	 BYTE PTR [eax+12], 1
  001f6	75 15		 jne	 SHORT $LN33@Extract

; 615  :                             _Pnode->_Left->_Color = _Black;

  001f8	8b 01		 mov	 eax, DWORD PTR [ecx]

; 616  :                             _Pnode->_Color        = _Red;
; 617  :                             _Rrotate(_Pnode);

  001fa	51		 push	 ecx
  001fb	c6 40 0c 01	 mov	 BYTE PTR [eax+12], 1
  001ff	c6 41 0c 00	 mov	 BYTE PTR [ecx+12], 0
  00203	8b cb		 mov	 ecx, ebx
  00205	e8 00 00 00 00	 call	 ?_Rrotate@?$_Tree_val@U?$_Tree_simple_types@U?$pair@$$CBKPAVCCtrl@@@std@@@std@@@std@@QAEXPAU?$_Tree_node@U?$pair@$$CBKPAVCCtrl@@@std@@PAX@2@@Z ; std::_Tree_val<std::_Tree_simple_types<std::pair<unsigned long const ,CCtrl *> > >::_Rrotate

; 618  :                             _Pnode = _Fixnodeparent->_Right;

  0020a	8b 4e 08	 mov	 ecx, DWORD PTR [esi+8]
$LN33@Extract:

; 619  :                         }
; 620  : 
; 621  :                         _Pnode->_Color         = _Fixnodeparent->_Color;

  0020d	8a 46 0c	 mov	 al, BYTE PTR [esi+12]
  00210	88 41 0c	 mov	 BYTE PTR [ecx+12], al

; 622  :                         _Fixnodeparent->_Color = _Black;

  00213	c6 46 0c 01	 mov	 BYTE PTR [esi+12], 1

; 623  :                         _Pnode->_Right->_Color = _Black;

  00217	8b 41 08	 mov	 eax, DWORD PTR [ecx+8]

; 624  :                         _Lrotate(_Fixnodeparent);

  0021a	8b cb		 mov	 ecx, ebx
  0021c	56		 push	 esi
  0021d	c6 40 0c 01	 mov	 BYTE PTR [eax+12], 1
  00221	e8 00 00 00 00	 call	 ?_Lrotate@?$_Tree_val@U?$_Tree_simple_types@U?$pair@$$CBKPAVCCtrl@@@std@@@std@@@std@@QAEXPAU?$_Tree_node@U?$pair@$$CBKPAVCCtrl@@@std@@PAX@2@@Z ; std::_Tree_val<std::_Tree_simple_types<std::pair<unsigned long const ,CCtrl *> > >::_Lrotate

; 625  :                         break; // tree now recolored/rebalanced

  00226	e9 d3 00 00 00	 jmp	 $LN3@Extract
$LN26@Extract:

; 626  :                     }
; 627  :                 } else { // fixup right subtree
; 628  :                     _Pnode = _Fixnodeparent->_Left;
; 629  :                     if (_Pnode->_Color == _Red) { // rotate red up from left subtree

  0022b	80 79 0c 00	 cmp	 BYTE PTR [ecx+12], 0
  0022f	75 55		 jne	 SHORT $LN96@Extract

; 630  :                         _Pnode->_Color         = _Black;

  00231	c6 41 0c 01	 mov	 BYTE PTR [ecx+12], 1

; 506  :         _Nodeptr _Pnode   = _Wherenode->_Left;

  00235	8b 0e		 mov	 ecx, DWORD PTR [esi]

; 631  :                         _Fixnodeparent->_Color = _Red;

  00237	c6 46 0c 00	 mov	 BYTE PTR [esi+12], 0

; 507  :         _Wherenode->_Left = _Pnode->_Right;

  0023b	8b 41 08	 mov	 eax, DWORD PTR [ecx+8]
  0023e	89 06		 mov	 DWORD PTR [esi], eax

; 508  : 
; 509  :         if (!_Pnode->_Right->_Isnil) {

  00240	8b 41 08	 mov	 eax, DWORD PTR [ecx+8]
  00243	80 78 0d 00	 cmp	 BYTE PTR [eax+13], 0
  00247	75 03		 jne	 SHORT $LN69@Extract

; 510  :             _Pnode->_Right->_Parent = _Wherenode;

  00249	89 70 04	 mov	 DWORD PTR [eax+4], esi
$LN69@Extract:

; 511  :         }
; 512  : 
; 513  :         _Pnode->_Parent = _Wherenode->_Parent;

  0024c	8b 46 04	 mov	 eax, DWORD PTR [esi+4]
  0024f	8d 56 04	 lea	 edx, DWORD PTR [esi+4]
  00252	89 41 04	 mov	 DWORD PTR [ecx+4], eax

; 514  : 
; 515  :         if (_Wherenode == _Myhead->_Parent) {

  00255	8b 03		 mov	 eax, DWORD PTR [ebx]
  00257	3b 70 04	 cmp	 esi, DWORD PTR [eax+4]
  0025a	75 0c		 jne	 SHORT $LN70@Extract

; 516  :             _Myhead->_Parent = _Pnode;

  0025c	89 48 04	 mov	 DWORD PTR [eax+4], ecx

; 521  :         }
; 522  : 
; 523  :         _Pnode->_Right      = _Wherenode;

  0025f	89 71 08	 mov	 DWORD PTR [ecx+8], esi

; 524  :         _Wherenode->_Parent = _Pnode;

  00262	89 0a		 mov	 DWORD PTR [edx], ecx

; 632  :                         _Rrotate(_Fixnodeparent);
; 633  :                         _Pnode = _Fixnodeparent->_Left;

  00264	8b 0e		 mov	 ecx, DWORD PTR [esi]
  00266	eb 21		 jmp	 SHORT $LN86@Extract
$LN70@Extract:

; 517  :         } else if (_Wherenode == _Wherenode->_Parent->_Right) {

  00268	8b 02		 mov	 eax, DWORD PTR [edx]
  0026a	3b 70 08	 cmp	 esi, DWORD PTR [eax+8]
  0026d	75 0c		 jne	 SHORT $LN72@Extract

; 518  :             _Wherenode->_Parent->_Right = _Pnode;

  0026f	89 48 08	 mov	 DWORD PTR [eax+8], ecx

; 521  :         }
; 522  : 
; 523  :         _Pnode->_Right      = _Wherenode;

  00272	89 71 08	 mov	 DWORD PTR [ecx+8], esi

; 524  :         _Wherenode->_Parent = _Pnode;

  00275	89 0a		 mov	 DWORD PTR [edx], ecx

; 632  :                         _Rrotate(_Fixnodeparent);
; 633  :                         _Pnode = _Fixnodeparent->_Left;

  00277	8b 0e		 mov	 ecx, DWORD PTR [esi]
  00279	eb 0e		 jmp	 SHORT $LN86@Extract
$LN72@Extract:

; 520  :             _Wherenode->_Parent->_Left = _Pnode;

  0027b	89 08		 mov	 DWORD PTR [eax], ecx

; 521  :         }
; 522  : 
; 523  :         _Pnode->_Right      = _Wherenode;

  0027d	89 71 08	 mov	 DWORD PTR [ecx+8], esi

; 524  :         _Wherenode->_Parent = _Pnode;

  00280	89 0a		 mov	 DWORD PTR [edx], ecx

; 632  :                         _Rrotate(_Fixnodeparent);
; 633  :                         _Pnode = _Fixnodeparent->_Left;

  00282	8b 0e		 mov	 ecx, DWORD PTR [esi]
  00284	eb 03		 jmp	 SHORT $LN86@Extract
$LN96@Extract:
  00286	8d 56 04	 lea	 edx, DWORD PTR [esi+4]
$LN86@Extract:

; 634  :                     }
; 635  : 
; 636  :                     if (_Pnode->_Isnil) {

  00289	80 79 0d 00	 cmp	 BYTE PTR [ecx+13], 0
  0028d	75 18		 jne	 SHORT $LN2@Extract

; 637  :                         _Fixnode = _Fixnodeparent; // shouldn't happen
; 638  :                     } else if (_Pnode->_Right->_Color == _Black
; 639  :                                && _Pnode->_Left->_Color == _Black) { // redden left subtree with black children

  0028f	8b 59 08	 mov	 ebx, DWORD PTR [ecx+8]
  00292	80 7b 0c 01	 cmp	 BYTE PTR [ebx+12], 1
  00296	75 2c		 jne	 SHORT $LN98@Extract
  00298	8b 01		 mov	 eax, DWORD PTR [ecx]
  0029a	80 78 0c 01	 cmp	 BYTE PTR [eax+12], 1
  0029e	75 24		 jne	 SHORT $LN98@Extract
$LN142@Extract:

; 597  :             for (; _Fixnode != _Myhead->_Parent && _Fixnode->_Color == _Black; _Fixnodeparent = _Fixnode->_Parent) {

  002a0	8b 5d fc	 mov	 ebx, DWORD PTR _this$1$[ebp]
  002a3	c6 41 0c 00	 mov	 BYTE PTR [ecx+12], 0
$LN2@Extract:
  002a7	8b 03		 mov	 eax, DWORD PTR [ebx]
  002a9	8b 4d f4	 mov	 ecx, DWORD PTR tv1093[ebp]
  002ac	8b f9		 mov	 edi, ecx
  002ae	8b 32		 mov	 esi, DWORD PTR [edx]
  002b0	3b 48 04	 cmp	 ecx, DWORD PTR [eax+4]
  002b3	74 49		 je	 SHORT $LN3@Extract
  002b5	80 7f 0c 01	 cmp	 BYTE PTR [edi+12], 1
  002b9	89 75 f4	 mov	 DWORD PTR tv1093[ebp], esi
  002bc	0f 84 a1 fe ff
	ff		 je	 $LL4@Extract
  002c2	eb 3a		 jmp	 SHORT $LN3@Extract
$LN98@Extract:

; 640  :                         _Pnode->_Color = _Red;
; 641  :                         _Fixnode       = _Fixnodeparent;
; 642  :                     } else { // must rearrange left subtree
; 643  :                         if (_Pnode->_Left->_Color == _Black) { // rotate red up from right sub-subtree

  002c4	8b 01		 mov	 eax, DWORD PTR [ecx]
  002c6	80 78 0c 01	 cmp	 BYTE PTR [eax+12], 1
  002ca	75 17		 jne	 SHORT $LN101@Extract

; 644  :                             _Pnode->_Right->_Color = _Black;

  002cc	c6 43 0c 01	 mov	 BYTE PTR [ebx+12], 1

; 645  :                             _Pnode->_Color         = _Red;
; 646  :                             _Lrotate(_Pnode);

  002d0	8b 5d fc	 mov	 ebx, DWORD PTR _this$1$[ebp]
  002d3	c6 41 0c 00	 mov	 BYTE PTR [ecx+12], 0
  002d7	51		 push	 ecx
  002d8	8b cb		 mov	 ecx, ebx
  002da	e8 00 00 00 00	 call	 ?_Lrotate@?$_Tree_val@U?$_Tree_simple_types@U?$pair@$$CBKPAVCCtrl@@@std@@@std@@@std@@QAEXPAU?$_Tree_node@U?$pair@$$CBKPAVCCtrl@@@std@@PAX@2@@Z ; std::_Tree_val<std::_Tree_simple_types<std::pair<unsigned long const ,CCtrl *> > >::_Lrotate

; 647  :                             _Pnode = _Fixnodeparent->_Left;

  002df	8b 0e		 mov	 ecx, DWORD PTR [esi]
  002e1	eb 03		 jmp	 SHORT $LN39@Extract
$LN101@Extract:

; 640  :                         _Pnode->_Color = _Red;
; 641  :                         _Fixnode       = _Fixnodeparent;
; 642  :                     } else { // must rearrange left subtree
; 643  :                         if (_Pnode->_Left->_Color == _Black) { // rotate red up from right sub-subtree

  002e3	8b 5d fc	 mov	 ebx, DWORD PTR _this$1$[ebp]
$LN39@Extract:

; 648  :                         }
; 649  : 
; 650  :                         _Pnode->_Color         = _Fixnodeparent->_Color;

  002e6	8a 46 0c	 mov	 al, BYTE PTR [esi+12]
  002e9	88 41 0c	 mov	 BYTE PTR [ecx+12], al

; 651  :                         _Fixnodeparent->_Color = _Black;

  002ec	c6 46 0c 01	 mov	 BYTE PTR [esi+12], 1

; 652  :                         _Pnode->_Left->_Color  = _Black;

  002f0	8b 01		 mov	 eax, DWORD PTR [ecx]

; 653  :                         _Rrotate(_Fixnodeparent);

  002f2	8b cb		 mov	 ecx, ebx
  002f4	56		 push	 esi
  002f5	c6 40 0c 01	 mov	 BYTE PTR [eax+12], 1
  002f9	e8 00 00 00 00	 call	 ?_Rrotate@?$_Tree_val@U?$_Tree_simple_types@U?$pair@$$CBKPAVCCtrl@@@std@@@std@@@std@@QAEXPAU?$_Tree_node@U?$pair@$$CBKPAVCCtrl@@@std@@PAX@2@@Z ; std::_Tree_val<std::_Tree_simple_types<std::pair<unsigned long const ,CCtrl *> > >::_Rrotate
$LN3@Extract:

; 654  :                         break; // tree now recolored/rebalanced
; 655  :                     }
; 656  :                 }
; 657  :             }
; 658  : 
; 659  :             _Fixnode->_Color = _Black; // stopping node is black

  002fe	8b 45 f8	 mov	 eax, DWORD PTR __Erasednode$1$[ebp]
  00301	c6 47 0c 01	 mov	 BYTE PTR [edi+12], 1
$LN25@Extract:

; 660  :         }
; 661  : 
; 662  :         if (0 < _Mysize) {

  00305	8b 4b 04	 mov	 ecx, DWORD PTR [ebx+4]
  00308	85 c9		 test	 ecx, ecx
  0030a	74 04		 je	 SHORT $LN40@Extract

; 663  :             --_Mysize;

  0030c	49		 dec	 ecx
  0030d	89 4b 04	 mov	 DWORD PTR [ebx+4], ecx
$LN40@Extract:

; 664  :         }
; 665  : 
; 666  :         return _Erasednode;
; 667  :     }

  00310	5f		 pop	 edi
  00311	5e		 pop	 esi
  00312	5b		 pop	 ebx
  00313	8b e5		 mov	 esp, ebp
  00315	5d		 pop	 ebp
  00316	c2 04 00	 ret	 4
?_Extract@?$_Tree_val@U?$_Tree_simple_types@U?$pair@$$CBKPAVCCtrl@@@std@@@std@@@std@@QAEPAU?$_Tree_node@U?$pair@$$CBKPAVCCtrl@@@std@@PAX@2@V?$_Tree_unchecked_const_iterator@V?$_Tree_val@U?$_Tree_simple_types@U?$pair@$$CBKPAVCCtrl@@@std@@@std@@@std@@U_Iterator_base0@2@@2@@Z ENDP ; std::_Tree_val<std::_Tree_simple_types<std::pair<unsigned long const ,CCtrl *> > >::_Extract
_TEXT	ENDS
; Function compile flags: /Ogtp
; File C:\Program Files\Microsoft Visual Studio\2022\Professional\VC\Tools\MSVC\14.44.35207\include\xtree
;	COMDAT ?_Rrotate@?$_Tree_val@U?$_Tree_simple_types@U?$pair@$$CBKPAVCCtrl@@@std@@@std@@@std@@QAEXPAU?$_Tree_node@U?$pair@$$CBKPAVCCtrl@@@std@@PAX@2@@Z
_TEXT	SEGMENT
__Wherenode$ = 8					; size = 4
?_Rrotate@?$_Tree_val@U?$_Tree_simple_types@U?$pair@$$CBKPAVCCtrl@@@std@@@std@@@std@@QAEXPAU?$_Tree_node@U?$pair@$$CBKPAVCCtrl@@@std@@PAX@2@@Z PROC ; std::_Tree_val<std::_Tree_simple_types<std::pair<unsigned long const ,CCtrl *> > >::_Rrotate, COMDAT
; _this$ = ecx

; 505  :     void _Rrotate(_Nodeptr _Wherenode) noexcept { // promote left node to root of subtree

  00000	55		 push	 ebp
  00001	8b ec		 mov	 ebp, esp

; 506  :         _Nodeptr _Pnode   = _Wherenode->_Left;

  00003	8b 55 08	 mov	 edx, DWORD PTR __Wherenode$[ebp]
  00006	56		 push	 esi
  00007	8b 32		 mov	 esi, DWORD PTR [edx]

; 507  :         _Wherenode->_Left = _Pnode->_Right;

  00009	8b 46 08	 mov	 eax, DWORD PTR [esi+8]
  0000c	89 02		 mov	 DWORD PTR [edx], eax

; 508  : 
; 509  :         if (!_Pnode->_Right->_Isnil) {

  0000e	8b 46 08	 mov	 eax, DWORD PTR [esi+8]
  00011	80 78 0d 00	 cmp	 BYTE PTR [eax+13], 0
  00015	75 03		 jne	 SHORT $LN2@Rrotate

; 510  :             _Pnode->_Right->_Parent = _Wherenode;

  00017	89 50 04	 mov	 DWORD PTR [eax+4], edx
$LN2@Rrotate:

; 511  :         }
; 512  : 
; 513  :         _Pnode->_Parent = _Wherenode->_Parent;

  0001a	8b 42 04	 mov	 eax, DWORD PTR [edx+4]
  0001d	89 46 04	 mov	 DWORD PTR [esi+4], eax

; 514  : 
; 515  :         if (_Wherenode == _Myhead->_Parent) {

  00020	8b 01		 mov	 eax, DWORD PTR [ecx]
  00022	3b 50 04	 cmp	 edx, DWORD PTR [eax+4]
  00025	75 0e		 jne	 SHORT $LN3@Rrotate

; 516  :             _Myhead->_Parent = _Pnode;

  00027	89 70 04	 mov	 DWORD PTR [eax+4], esi

; 521  :         }
; 522  : 
; 523  :         _Pnode->_Right      = _Wherenode;
; 524  :         _Wherenode->_Parent = _Pnode;
; 525  :     }

  0002a	89 56 08	 mov	 DWORD PTR [esi+8], edx
  0002d	89 72 04	 mov	 DWORD PTR [edx+4], esi
  00030	5e		 pop	 esi
  00031	5d		 pop	 ebp
  00032	c2 04 00	 ret	 4
$LN3@Rrotate:

; 517  :         } else if (_Wherenode == _Wherenode->_Parent->_Right) {

  00035	8b 42 04	 mov	 eax, DWORD PTR [edx+4]
  00038	3b 50 08	 cmp	 edx, DWORD PTR [eax+8]
  0003b	75 0e		 jne	 SHORT $LN5@Rrotate

; 518  :             _Wherenode->_Parent->_Right = _Pnode;

  0003d	89 70 08	 mov	 DWORD PTR [eax+8], esi

; 521  :         }
; 522  : 
; 523  :         _Pnode->_Right      = _Wherenode;
; 524  :         _Wherenode->_Parent = _Pnode;
; 525  :     }

  00040	89 56 08	 mov	 DWORD PTR [esi+8], edx
  00043	89 72 04	 mov	 DWORD PTR [edx+4], esi
  00046	5e		 pop	 esi
  00047	5d		 pop	 ebp
  00048	c2 04 00	 ret	 4
$LN5@Rrotate:

; 519  :         } else {
; 520  :             _Wherenode->_Parent->_Left = _Pnode;

  0004b	89 30		 mov	 DWORD PTR [eax], esi

; 521  :         }
; 522  : 
; 523  :         _Pnode->_Right      = _Wherenode;
; 524  :         _Wherenode->_Parent = _Pnode;
; 525  :     }

  0004d	89 56 08	 mov	 DWORD PTR [esi+8], edx
  00050	89 72 04	 mov	 DWORD PTR [edx+4], esi
  00053	5e		 pop	 esi
  00054	5d		 pop	 ebp
  00055	c2 04 00	 ret	 4
?_Rrotate@?$_Tree_val@U?$_Tree_simple_types@U?$pair@$$CBKPAVCCtrl@@@std@@@std@@@std@@QAEXPAU?$_Tree_node@U?$pair@$$CBKPAVCCtrl@@@std@@PAX@2@@Z ENDP ; std::_Tree_val<std::_Tree_simple_types<std::pair<unsigned long const ,CCtrl *> > >::_Rrotate
_TEXT	ENDS
; Function compile flags: /Ogtp
; File C:\Program Files\Microsoft Visual Studio\2022\Professional\VC\Tools\MSVC\14.44.35207\include\xtree
;	COMDAT ?_Lrotate@?$_Tree_val@U?$_Tree_simple_types@U?$pair@$$CBKPAVCCtrl@@@std@@@std@@@std@@QAEXPAU?$_Tree_node@U?$pair@$$CBKPAVCCtrl@@@std@@PAX@2@@Z
_TEXT	SEGMENT
__Wherenode$ = 8					; size = 4
?_Lrotate@?$_Tree_val@U?$_Tree_simple_types@U?$pair@$$CBKPAVCCtrl@@@std@@@std@@@std@@QAEXPAU?$_Tree_node@U?$pair@$$CBKPAVCCtrl@@@std@@PAX@2@@Z PROC ; std::_Tree_val<std::_Tree_simple_types<std::pair<unsigned long const ,CCtrl *> > >::_Lrotate, COMDAT
; _this$ = ecx

; 483  :     void _Lrotate(_Nodeptr _Wherenode) noexcept { // promote right node to root of subtree

  00000	55		 push	 ebp
  00001	8b ec		 mov	 ebp, esp

; 484  :         _Nodeptr _Pnode    = _Wherenode->_Right;

  00003	8b 55 08	 mov	 edx, DWORD PTR __Wherenode$[ebp]
  00006	56		 push	 esi
  00007	8b 72 08	 mov	 esi, DWORD PTR [edx+8]

; 485  :         _Wherenode->_Right = _Pnode->_Left;

  0000a	8b 06		 mov	 eax, DWORD PTR [esi]
  0000c	89 42 08	 mov	 DWORD PTR [edx+8], eax

; 486  : 
; 487  :         if (!_Pnode->_Left->_Isnil) {

  0000f	8b 06		 mov	 eax, DWORD PTR [esi]
  00011	80 78 0d 00	 cmp	 BYTE PTR [eax+13], 0
  00015	75 03		 jne	 SHORT $LN2@Lrotate

; 488  :             _Pnode->_Left->_Parent = _Wherenode;

  00017	89 50 04	 mov	 DWORD PTR [eax+4], edx
$LN2@Lrotate:

; 489  :         }
; 490  : 
; 491  :         _Pnode->_Parent = _Wherenode->_Parent;

  0001a	8b 42 04	 mov	 eax, DWORD PTR [edx+4]
  0001d	89 46 04	 mov	 DWORD PTR [esi+4], eax

; 492  : 
; 493  :         if (_Wherenode == _Myhead->_Parent) {

  00020	8b 01		 mov	 eax, DWORD PTR [ecx]
  00022	3b 50 04	 cmp	 edx, DWORD PTR [eax+4]
  00025	75 0d		 jne	 SHORT $LN3@Lrotate

; 494  :             _Myhead->_Parent = _Pnode;

  00027	89 70 04	 mov	 DWORD PTR [eax+4], esi

; 499  :         }
; 500  : 
; 501  :         _Pnode->_Left       = _Wherenode;
; 502  :         _Wherenode->_Parent = _Pnode;
; 503  :     }

  0002a	89 16		 mov	 DWORD PTR [esi], edx
  0002c	89 72 04	 mov	 DWORD PTR [edx+4], esi
  0002f	5e		 pop	 esi
  00030	5d		 pop	 ebp
  00031	c2 04 00	 ret	 4
$LN3@Lrotate:

; 495  :         } else if (_Wherenode == _Wherenode->_Parent->_Left) {

  00034	8b 42 04	 mov	 eax, DWORD PTR [edx+4]
  00037	3b 10		 cmp	 edx, DWORD PTR [eax]
  00039	75 0c		 jne	 SHORT $LN5@Lrotate

; 496  :             _Wherenode->_Parent->_Left = _Pnode;

  0003b	89 30		 mov	 DWORD PTR [eax], esi

; 499  :         }
; 500  : 
; 501  :         _Pnode->_Left       = _Wherenode;
; 502  :         _Wherenode->_Parent = _Pnode;
; 503  :     }

  0003d	89 16		 mov	 DWORD PTR [esi], edx
  0003f	89 72 04	 mov	 DWORD PTR [edx+4], esi
  00042	5e		 pop	 esi
  00043	5d		 pop	 ebp
  00044	c2 04 00	 ret	 4
$LN5@Lrotate:

; 497  :         } else {
; 498  :             _Wherenode->_Parent->_Right = _Pnode;

  00047	89 70 08	 mov	 DWORD PTR [eax+8], esi

; 499  :         }
; 500  : 
; 501  :         _Pnode->_Left       = _Wherenode;
; 502  :         _Wherenode->_Parent = _Pnode;
; 503  :     }

  0004a	89 16		 mov	 DWORD PTR [esi], edx
  0004c	89 72 04	 mov	 DWORD PTR [edx+4], esi
  0004f	5e		 pop	 esi
  00050	5d		 pop	 ebp
  00051	c2 04 00	 ret	 4
?_Lrotate@?$_Tree_val@U?$_Tree_simple_types@U?$pair@$$CBKPAVCCtrl@@@std@@@std@@@std@@QAEXPAU?$_Tree_node@U?$pair@$$CBKPAVCCtrl@@@std@@PAX@2@@Z ENDP ; std::_Tree_val<std::_Tree_simple_types<std::pair<unsigned long const ,CCtrl *> > >::_Lrotate
_TEXT	ENDS
; Function compile flags: /Ogtp
; File C:\Program Files\Microsoft Visual Studio\2022\Professional\VC\Tools\MSVC\14.44.35207\include\xtree
; File C:\Program Files\Microsoft Visual Studio\2022\Professional\VC\Tools\MSVC\14.44.35207\include\type_traits
; File C:\Program Files\Microsoft Visual Studio\2022\Professional\VC\Tools\MSVC\14.44.35207\include\xtree
; File C:\Program Files\Microsoft Visual Studio\2022\Professional\VC\Tools\MSVC\14.44.35207\include\type_traits
; File C:\Program Files\Microsoft Visual Studio\2022\Professional\VC\Tools\MSVC\14.44.35207\include\xtree
; File C:\Program Files\Microsoft Visual Studio\2022\Professional\VC\Tools\MSVC\14.44.35207\include\type_traits
; File C:\Program Files\Microsoft Visual Studio\2022\Professional\VC\Tools\MSVC\14.44.35207\include\xtree
; File C:\Program Files\Microsoft Visual Studio\2022\Professional\VC\Tools\MSVC\14.44.35207\include\xutility
; File C:\Program Files\Microsoft Visual Studio\2022\Professional\VC\Tools\MSVC\14.44.35207\include\xtree
; File C:\Program Files\Microsoft Visual Studio\2022\Professional\VC\Tools\MSVC\14.44.35207\include\xutility
; File C:\Program Files\Microsoft Visual Studio\2022\Professional\VC\Tools\MSVC\14.44.35207\include\xtree
; File C:\Program Files\Microsoft Visual Studio\2022\Professional\VC\Tools\MSVC\14.44.35207\include\xutility
; File C:\Program Files\Microsoft Visual Studio\2022\Professional\VC\Tools\MSVC\14.44.35207\include\xtree
; File C:\Program Files\Microsoft Visual Studio\2022\Professional\VC\Tools\MSVC\14.44.35207\include\xutility
; File C:\Program Files\Microsoft Visual Studio\2022\Professional\VC\Tools\MSVC\14.44.35207\include\xtree
; File C:\Program Files\Microsoft Visual Studio\2022\Professional\VC\Tools\MSVC\14.44.35207\include\utility
; File C:\Program Files\Microsoft Visual Studio\2022\Professional\VC\Tools\MSVC\14.44.35207\include\xmemory
; File C:\Program Files\Microsoft Visual Studio\2022\Professional\VC\Tools\MSVC\14.44.35207\include\xtree
; File C:\Program Files\Microsoft Visual Studio\2022\Professional\VC\Tools\MSVC\14.44.35207\include\xmemory
; File C:\Program Files\Microsoft Visual Studio\2022\Professional\VC\Tools\MSVC\14.44.35207\include\xtree
; File C:\Program Files\Microsoft Visual Studio\2022\Professional\VC\Tools\MSVC\14.44.35207\include\xmemory
; File C:\Program Files\Microsoft Visual Studio\2022\Professional\VC\Tools\MSVC\14.44.35207\include\xtree
;	COMDAT ?erase@?$_Tree@V?$_Tmap_traits@KPAVCCtrl@@U?$less@K@std@@V?$allocator@U?$pair@$$CBKPAVCCtrl@@@std@@@3@$0A@@std@@@std@@QAEIABK@Z
_TEXT	SEGMENT
__First$ = -16						; size = 4
__Rootnode$1$ = -16					; size = 4
__Head$1$ = -12						; size = 4
_this$1$ = -8						; size = 4
tv820 = -1						; size = 1
__Keyval$ = 8						; size = 4
__Off$1$ = 8						; size = 4
?erase@?$_Tree@V?$_Tmap_traits@KPAVCCtrl@@U?$less@K@std@@V?$allocator@U?$pair@$$CBKPAVCCtrl@@@std@@@3@$0A@@std@@@std@@QAEIABK@Z PROC ; std::_Tree<std::_Tmap_traits<unsigned long,CCtrl *,std::less<unsigned long>,std::allocator<std::pair<unsigned long const ,CCtrl *> >,0> >::erase, COMDAT
; _this$ = ecx

; 1357 :     size_type erase(const key_type& _Keyval) noexcept(noexcept(_Eqrange(_Keyval))) /* strengthened */ {

  00000	55		 push	 ebp
  00001	8b ec		 mov	 ebp, esp
  00003	83 ec 10	 sub	 esp, 16			; 00000010H
  00006	8b c1		 mov	 eax, ecx
  00008	53		 push	 ebx
  00009	56		 push	 esi
  0000a	57		 push	 edi

; 1709 :         _Nodeptr _Pnode   = _Scary->_Myhead->_Parent;

  0000b	8b 38		 mov	 edi, DWORD PTR [eax]

; 1710 :         _Nodeptr _Lonode  = _Scary->_Myhead; // end() if search fails

  0000d	8b f7		 mov	 esi, edi

; 1357 :     size_type erase(const key_type& _Keyval) noexcept(noexcept(_Eqrange(_Keyval))) /* strengthened */ {

  0000f	89 45 f8	 mov	 DWORD PTR _this$1$[ebp], eax

; 1709 :         _Nodeptr _Pnode   = _Scary->_Myhead->_Parent;

  00012	89 7d f4	 mov	 DWORD PTR __Head$1$[ebp], edi
  00015	8b 5f 04	 mov	 ebx, DWORD PTR [edi+4]
  00018	8b c3		 mov	 eax, ebx
  0001a	89 5d f0	 mov	 DWORD PTR __Rootnode$1$[ebp], ebx

; 1711 :         _Nodeptr _Hinode  = _Scary->_Myhead; // end() if search fails
; 1712 : 
; 1713 :         while (!_Pnode->_Isnil) {

  0001d	8a 48 0d	 mov	 cl, BYTE PTR [eax+13]
  00020	88 4d ff	 mov	 BYTE PTR tv820[ebp], cl
  00023	84 c9		 test	 cl, cl
  00025	75 2a		 jne	 SHORT $LN6@erase
; File C:\Program Files\Microsoft Visual Studio\2022\Professional\VC\Tools\MSVC\14.44.35207\include\type_traits

; 2380 :         return _Left < _Right;

  00027	8b 55 08	 mov	 edx, DWORD PTR __Keyval$[ebp]
  0002a	8b 12		 mov	 edx, DWORD PTR [edx]
  0002c	0f 1f 40 00	 npad	 4
$LL5@erase:
  00030	8b 48 10	 mov	 ecx, DWORD PTR [eax+16]
  00033	3b ca		 cmp	 ecx, edx
; File C:\Program Files\Microsoft Visual Studio\2022\Professional\VC\Tools\MSVC\14.44.35207\include\xtree

; 1715 :             if (_DEBUG_LT_PRED(_Comp, _Nodekey, _Keyval)) {

  00035	73 05		 jae	 SHORT $LN9@erase

; 1716 :                 _Pnode = _Pnode->_Right; // descend right subtree

  00037	8b 40 08	 mov	 eax, DWORD PTR [eax+8]

; 1717 :             } else { // _Pnode not less than _Keyval, remember it

  0003a	eb 0f		 jmp	 SHORT $LN10@erase
$LN9@erase:

; 1718 :                 if (_Hinode->_Isnil && _DEBUG_LT_PRED(_Comp, _Keyval, _Nodekey)) {

  0003c	80 7f 0d 00	 cmp	 BYTE PTR [edi+13], 0
  00040	74 05		 je	 SHORT $LN11@erase
; File C:\Program Files\Microsoft Visual Studio\2022\Professional\VC\Tools\MSVC\14.44.35207\include\type_traits

; 2380 :         return _Left < _Right;

  00042	3b d1		 cmp	 edx, ecx
; File C:\Program Files\Microsoft Visual Studio\2022\Professional\VC\Tools\MSVC\14.44.35207\include\xtree

; 1718 :                 if (_Hinode->_Isnil && _DEBUG_LT_PRED(_Comp, _Keyval, _Nodekey)) {

  00044	0f 42 f8	 cmovb	 edi, eax
$LN11@erase:

; 1719 :                     _Hinode = _Pnode; // _Pnode greater, remember it
; 1720 :                 }
; 1721 : 
; 1722 :                 _Lonode = _Pnode;

  00047	8b f0		 mov	 esi, eax

; 1723 :                 _Pnode  = _Pnode->_Left; // descend left subtree

  00049	8b 00		 mov	 eax, DWORD PTR [eax]
$LN10@erase:

; 1711 :         _Nodeptr _Hinode  = _Scary->_Myhead; // end() if search fails
; 1712 : 
; 1713 :         while (!_Pnode->_Isnil) {

  0004b	80 78 0d 00	 cmp	 BYTE PTR [eax+13], 0
  0004f	74 df		 je	 SHORT $LL5@erase
$LN6@erase:

; 1724 :             }
; 1725 :         }
; 1726 : 
; 1727 :         _Pnode = _Hinode->_Isnil ? _Scary->_Myhead->_Parent : _Hinode->_Left; // continue scan for upper bound

  00051	80 7f 0d 00	 cmp	 BYTE PTR [edi+13], 0
  00055	8b c3		 mov	 eax, ebx
  00057	75 02		 jne	 SHORT $LN16@erase
  00059	8b 07		 mov	 eax, DWORD PTR [edi]
$LN16@erase:

; 1728 :         while (!_Pnode->_Isnil) {

  0005b	80 78 0d 00	 cmp	 BYTE PTR [eax+13], 0
  0005f	75 19		 jne	 SHORT $LN8@erase
; File C:\Program Files\Microsoft Visual Studio\2022\Professional\VC\Tools\MSVC\14.44.35207\include\type_traits

; 2380 :         return _Left < _Right;

  00061	8b 4d 08	 mov	 ecx, DWORD PTR __Keyval$[ebp]
  00064	8b 09		 mov	 ecx, DWORD PTR [ecx]
$LL7@erase:
  00066	3b 48 10	 cmp	 ecx, DWORD PTR [eax+16]
; File C:\Program Files\Microsoft Visual Studio\2022\Professional\VC\Tools\MSVC\14.44.35207\include\xtree

; 1729 :             if (_DEBUG_LT_PRED(_Getcomp(), _Keyval, _Traits::_Kfn(_Pnode->_Myval))) {

  00069	73 06		 jae	 SHORT $LN12@erase

; 1730 :                 // _Pnode greater than _Keyval, remember it
; 1731 :                 _Hinode = _Pnode;

  0006b	8b f8		 mov	 edi, eax

; 1732 :                 _Pnode  = _Pnode->_Left; // descend left subtree

  0006d	8b 00		 mov	 eax, DWORD PTR [eax]

; 1733 :             } else {

  0006f	eb 03		 jmp	 SHORT $LN13@erase
$LN12@erase:

; 1734 :                 _Pnode = _Pnode->_Right; // descend right subtree

  00071	8b 40 08	 mov	 eax, DWORD PTR [eax+8]
$LN13@erase:

; 1728 :         while (!_Pnode->_Isnil) {

  00074	80 78 0d 00	 cmp	 BYTE PTR [eax+13], 0
  00078	74 ec		 je	 SHORT $LL7@erase
$LN8@erase:
; File C:\Program Files\Microsoft Visual Studio\2022\Professional\VC\Tools\MSVC\14.44.35207\include\xutility

; 1667 :         _Iter_diff_t<_InIt> _Off = 0;

  0007a	33 c9		 xor	 ecx, ecx
  0007c	8b c6		 mov	 eax, esi
  0007e	89 4d 08	 mov	 DWORD PTR __Off$1$[ebp], ecx
; File C:\Program Files\Microsoft Visual Studio\2022\Professional\VC\Tools\MSVC\14.44.35207\include\xtree

; 101  :         return !(*this == _Right);

  00081	3b f7		 cmp	 esi, edi
; File C:\Program Files\Microsoft Visual Studio\2022\Professional\VC\Tools\MSVC\14.44.35207\include\xutility

; 1668 :         for (; _UFirst != _ULast; ++_UFirst) {

  00083	74 54		 je	 SHORT $LN41@erase
  00085	33 db		 xor	 ebx, ebx
$LL42@erase:
; File C:\Program Files\Microsoft Visual Studio\2022\Professional\VC\Tools\MSVC\14.44.35207\include\xtree

; 50   :         if (_Ptr->_Right->_Isnil) { // climb looking for right subtree

  00087	8b 48 08	 mov	 ecx, DWORD PTR [eax+8]
; File C:\Program Files\Microsoft Visual Studio\2022\Professional\VC\Tools\MSVC\14.44.35207\include\xutility

; 1669 :             ++_Off;

  0008a	43		 inc	 ebx
; File C:\Program Files\Microsoft Visual Studio\2022\Professional\VC\Tools\MSVC\14.44.35207\include\xtree

; 50   :         if (_Ptr->_Right->_Isnil) { // climb looking for right subtree

  0008b	80 79 0d 00	 cmp	 BYTE PTR [ecx+13], 0
  0008f	74 23		 je	 SHORT $LN47@erase

; 51   :             _Nodeptr _Pnode;
; 52   :             while (!(_Pnode = _Ptr->_Parent)->_Isnil && _Ptr == _Pnode->_Right) {

  00091	8b 48 04	 mov	 ecx, DWORD PTR [eax+4]
  00094	80 79 0d 00	 cmp	 BYTE PTR [ecx+13], 0
  00098	75 16		 jne	 SHORT $LN182@erase
  0009a	66 0f 1f 44 00
	00		 npad	 6
$LL45@erase:
  000a0	3b 41 08	 cmp	 eax, DWORD PTR [ecx+8]
  000a3	75 0b		 jne	 SHORT $LN182@erase

; 53   :                 _Ptr = _Pnode; // ==> parent while right subtree

  000a5	8b c1		 mov	 eax, ecx
  000a7	8b 49 04	 mov	 ecx, DWORD PTR [ecx+4]
  000aa	80 79 0d 00	 cmp	 BYTE PTR [ecx+13], 0
  000ae	74 f0		 je	 SHORT $LL45@erase
$LN182@erase:

; 54   :             }
; 55   : 
; 56   :             _Ptr = _Pnode; // ==> parent (head if end())

  000b0	8b c1		 mov	 eax, ecx

; 57   :         } else {

  000b2	eb 18		 jmp	 SHORT $LN53@erase
$LN47@erase:

; 58   :             _Ptr = _Mytree::_Min(_Ptr->_Right); // ==> smallest of right subtree

  000b4	8b c1		 mov	 eax, ecx

; 476  :         while (!_Pnode->_Left->_Isnil) {

  000b6	8b 10		 mov	 edx, DWORD PTR [eax]
  000b8	80 7a 0d 00	 cmp	 BYTE PTR [edx+13], 0
  000bc	75 0e		 jne	 SHORT $LN53@erase
  000be	66 90		 npad	 2
$LL52@erase:
  000c0	8b 0a		 mov	 ecx, DWORD PTR [edx]

; 477  :             _Pnode = _Pnode->_Left;

  000c2	8b c2		 mov	 eax, edx
  000c4	8b d1		 mov	 edx, ecx
  000c6	80 79 0d 00	 cmp	 BYTE PTR [ecx+13], 0
  000ca	74 f4		 je	 SHORT $LL52@erase
$LN53@erase:

; 101  :         return !(*this == _Right);

  000cc	3b c7		 cmp	 eax, edi
; File C:\Program Files\Microsoft Visual Studio\2022\Professional\VC\Tools\MSVC\14.44.35207\include\xutility

; 1668 :         for (; _UFirst != _ULast; ++_UFirst) {

  000ce	75 b7		 jne	 SHORT $LL42@erase
  000d0	89 5d 08	 mov	 DWORD PTR __Off$1$[ebp], ebx
  000d3	8b 5d f0	 mov	 ebx, DWORD PTR __Rootnode$1$[ebp]
  000d6	8b 4d 08	 mov	 ecx, DWORD PTR __Off$1$[ebp]
$LN41@erase:
; File C:\Program Files\Microsoft Visual Studio\2022\Professional\VC\Tools\MSVC\14.44.35207\include\xtree

; 96   :         return _Ptr == _Right._Ptr;

  000d9	8b 45 f4	 mov	 eax, DWORD PTR __Head$1$[ebp]

; 1329 :         _Erase_unchecked(_First, _Last);

  000dc	89 75 f0	 mov	 DWORD PTR __First$[ebp], esi

; 96   :         return _Ptr == _Right._Ptr;

  000df	3b 30		 cmp	 esi, DWORD PTR [eax]

; 1311 :         if (_First == _Begin && _Last._Ptr->_Isnil) {

  000e1	75 51		 jne	 SHORT $LN157@erase
  000e3	80 7f 0d 00	 cmp	 BYTE PTR [edi+13], 0
  000e7	74 4b		 je	 SHORT $LN157@erase

; 768  :         while (!_Rootnode->_Isnil) { // free subtrees, then node

  000e9	80 7d ff 00	 cmp	 BYTE PTR tv820[ebp], 0
  000ed	75 27		 jne	 SHORT $LN165@erase
  000ef	90		 npad	 1
$LL84@erase:

; 769  :             _Erase_tree(_Al, _Rootnode->_Right);

  000f0	ff 73 08	 push	 DWORD PTR [ebx+8]
  000f3	8b 45 f8	 mov	 eax, DWORD PTR _this$1$[ebp]
  000f6	8b c8		 mov	 ecx, eax
  000f8	50		 push	 eax
  000f9	e8 00 00 00 00	 call	 ??$_Erase_tree@V?$allocator@U?$_Tree_node@U?$pair@$$CBKPAVCCtrl@@@std@@PAX@std@@@std@@@?$_Tree_val@U?$_Tree_simple_types@U?$pair@$$CBKPAVCCtrl@@@std@@@std@@@std@@QAEXAAV?$allocator@U?$_Tree_node@U?$pair@$$CBKPAVCCtrl@@@std@@PAX@std@@@1@PAU?$_Tree_node@U?$pair@$$CBKPAVCCtrl@@@std@@PAX@1@@Z ; std::_Tree_val<std::_Tree_simple_types<std::pair<unsigned long const ,CCtrl *> > >::_Erase_tree<std::allocator<std::_Tree_node<std::pair<unsigned long const ,CCtrl *>,void *> > >
; File C:\Program Files\Microsoft Visual Studio\2022\Professional\VC\Tools\MSVC\14.44.35207\include\utility

; 773  :     _Ty _Old_val = static_cast<_Ty&&>(_Val);

  000fe	8b c3		 mov	 eax, ebx

; 774  :     _Val         = static_cast<_Other&&>(_New_val);

  00100	8b 1b		 mov	 ebx, DWORD PTR [ebx]
; File C:\Program Files\Microsoft Visual Studio\2022\Professional\VC\Tools\MSVC\14.44.35207\include\xmemory

; 289  :         ::operator delete(_Ptr, _Bytes);

  00102	6a 18		 push	 24			; 00000018H
  00104	50		 push	 eax
  00105	e8 00 00 00 00	 call	 ??3@YAXPAXI@Z		; operator delete
  0010a	83 c4 08	 add	 esp, 8
; File C:\Program Files\Microsoft Visual Studio\2022\Professional\VC\Tools\MSVC\14.44.35207\include\xtree

; 768  :         while (!_Rootnode->_Isnil) { // free subtrees, then node

  0010d	80 7b 0d 00	 cmp	 BYTE PTR [ebx+13], 0
  00111	74 dd		 je	 SHORT $LL84@erase
  00113	8b 45 f4	 mov	 eax, DWORD PTR __Head$1$[ebp]
$LN165@erase:

; 1378 :         _Scary->_Mysize = 0;

  00116	8b 5d f8	 mov	 ebx, DWORD PTR _this$1$[ebp]
  00119	5f		 pop	 edi

; 1360 : 
; 1361 : #if _HAS_CXX23
; 1362 :     template <class _Kx>
; 1363 :         requires _Is_transparent_v<key_compare> && (!is_convertible_v<_Kx, const_iterator>)
; 1364 :               && (!is_convertible_v<_Kx, iterator>)
; 1365 :     size_type erase(_Kx&& _Keyval) noexcept(noexcept(_Eqrange(_Keyval))) /* strengthened */ {
; 1366 :         return _Erase(_Eqrange(_Keyval));
; 1367 :     }
; 1368 : #endif // _HAS_CXX23
; 1369 : 
; 1370 :     void clear() noexcept {
; 1371 :         const auto _Scary = _Get_scary();
; 1372 :         _Scary->_Orphan_ptr(nullptr);
; 1373 :         auto _Head = _Scary->_Myhead;
; 1374 :         _Scary->_Erase_tree(_Getal(), _Head->_Parent);
; 1375 :         _Head->_Parent  = _Head;

  0011a	89 40 04	 mov	 DWORD PTR [eax+4], eax

; 1376 :         _Head->_Left    = _Head;

  0011d	89 00		 mov	 DWORD PTR [eax], eax

; 1377 :         _Head->_Right   = _Head;

  0011f	89 40 08	 mov	 DWORD PTR [eax+8], eax

; 1358 :         return _Erase(_Eqrange(_Keyval));

  00122	8b 45 08	 mov	 eax, DWORD PTR __Off$1$[ebp]

; 1359 :     }

  00125	5e		 pop	 esi

; 1378 :         _Scary->_Mysize = 0;

  00126	c7 43 04 00 00
	00 00		 mov	 DWORD PTR [ebx+4], 0

; 1359 :     }

  0012d	5b		 pop	 ebx
  0012e	8b e5		 mov	 esp, ebp
  00130	5d		 pop	 ebp
  00131	c2 04 00	 ret	 4
$LN157@erase:

; 101  :         return !(*this == _Right);

  00134	3b f7		 cmp	 esi, edi

; 1318 :         while (_First != _Last) {

  00136	74 36		 je	 SHORT $LN181@erase
  00138	8b 5d f8	 mov	 ebx, DWORD PTR _this$1$[ebp]
  0013b	0f 1f 44 00 00	 npad	 5
$LL63@erase:

; 66   :         ++*this;

  00140	8d 4d f0	 lea	 ecx, DWORD PTR __First$[ebp]
  00143	e8 00 00 00 00	 call	 ??E?$_Tree_unchecked_const_iterator@V?$_Tree_val@U?$_Tree_simple_types@U?$pair@$$CBKPAVCCtrl@@@std@@@std@@@std@@U_Iterator_base0@2@@std@@QAEAAV01@XZ ; std::_Tree_unchecked_const_iterator<std::_Tree_val<std::_Tree_simple_types<std::pair<unsigned long const ,CCtrl *> > >,std::_Iterator_base0>::operator++

; 1303 :         _Nodeptr _Erasednode = _Scary->_Extract(_Where); // node to erase

  00148	56		 push	 esi
  00149	8b cb		 mov	 ecx, ebx
  0014b	e8 00 00 00 00	 call	 ?_Extract@?$_Tree_val@U?$_Tree_simple_types@U?$pair@$$CBKPAVCCtrl@@@std@@@std@@@std@@QAEPAU?$_Tree_node@U?$pair@$$CBKPAVCCtrl@@@std@@PAX@2@V?$_Tree_unchecked_const_iterator@V?$_Tree_val@U?$_Tree_simple_types@U?$pair@$$CBKPAVCCtrl@@@std@@@std@@@std@@U_Iterator_base0@2@@2@@Z ; std::_Tree_val<std::_Tree_simple_types<std::pair<unsigned long const ,CCtrl *> > >::_Extract
; File C:\Program Files\Microsoft Visual Studio\2022\Professional\VC\Tools\MSVC\14.44.35207\include\xmemory

; 289  :         ::operator delete(_Ptr, _Bytes);

  00150	6a 18		 push	 24			; 00000018H
  00152	50		 push	 eax
  00153	e8 00 00 00 00	 call	 ??3@YAXPAXI@Z		; operator delete
; File C:\Program Files\Microsoft Visual Studio\2022\Professional\VC\Tools\MSVC\14.44.35207\include\xtree

; 101  :         return !(*this == _Right);

  00158	8b 75 f0	 mov	 esi, DWORD PTR __First$[ebp]
; File C:\Program Files\Microsoft Visual Studio\2022\Professional\VC\Tools\MSVC\14.44.35207\include\xmemory

; 289  :         ::operator delete(_Ptr, _Bytes);

  0015b	83 c4 08	 add	 esp, 8
; File C:\Program Files\Microsoft Visual Studio\2022\Professional\VC\Tools\MSVC\14.44.35207\include\xtree

; 101  :         return !(*this == _Right);

  0015e	3b f7		 cmp	 esi, edi

; 1318 :         while (_First != _Last) {

  00160	75 de		 jne	 SHORT $LL63@erase

; 1359 :     }

  00162	8b 45 08	 mov	 eax, DWORD PTR __Off$1$[ebp]
  00165	5f		 pop	 edi
  00166	5e		 pop	 esi
  00167	5b		 pop	 ebx
  00168	8b e5		 mov	 esp, ebp
  0016a	5d		 pop	 ebp
  0016b	c2 04 00	 ret	 4
$LN181@erase:
  0016e	5f		 pop	 edi
  0016f	5e		 pop	 esi
  00170	8b c1		 mov	 eax, ecx
  00172	5b		 pop	 ebx
  00173	8b e5		 mov	 esp, ebp
  00175	5d		 pop	 ebp
  00176	c2 04 00	 ret	 4
?erase@?$_Tree@V?$_Tmap_traits@KPAVCCtrl@@U?$less@K@std@@V?$allocator@U?$pair@$$CBKPAVCCtrl@@@std@@@3@$0A@@std@@@std@@QAEIABK@Z ENDP ; std::_Tree<std::_Tmap_traits<unsigned long,CCtrl *,std::less<unsigned long>,std::allocator<std::pair<unsigned long const ,CCtrl *> >,0> >::erase
_TEXT	ENDS
; Function compile flags: /Ogtp
; File C:\Program Files\Microsoft Visual Studio\2022\Professional\VC\Tools\MSVC\14.44.35207\include\xtree
;	COMDAT ??E?$_Tree_unchecked_const_iterator@V?$_Tree_val@U?$_Tree_simple_types@U?$pair@$$CBKPAVCUser@@@std@@@std@@@std@@U_Iterator_base0@2@@std@@QAEAAV01@XZ
_TEXT	SEGMENT
??E?$_Tree_unchecked_const_iterator@V?$_Tree_val@U?$_Tree_simple_types@U?$pair@$$CBKPAVCUser@@@std@@@std@@@std@@U_Iterator_base0@2@@std@@QAEAAV01@XZ PROC ; std::_Tree_unchecked_const_iterator<std::_Tree_val<std::_Tree_simple_types<std::pair<unsigned long const ,CUser *> > >,std::_Iterator_base0>::operator++, COMDAT
; _this$ = ecx

; 49   :     _Tree_unchecked_const_iterator& operator++() noexcept {

  00000	56		 push	 esi
  00001	8b f1		 mov	 esi, ecx
  00003	57		 push	 edi

; 50   :         if (_Ptr->_Right->_Isnil) { // climb looking for right subtree

  00004	8b 16		 mov	 edx, DWORD PTR [esi]
  00006	8b 7a 08	 mov	 edi, DWORD PTR [edx+8]
  00009	80 7f 0d 00	 cmp	 BYTE PTR [edi+13], 0
  0000d	74 22		 je	 SHORT $LN4@operator

; 51   :             _Nodeptr _Pnode;
; 52   :             while (!(_Pnode = _Ptr->_Parent)->_Isnil && _Ptr == _Pnode->_Right) {

  0000f	8b 42 04	 mov	 eax, DWORD PTR [edx+4]
  00012	80 78 0d 00	 cmp	 BYTE PTR [eax+13], 0
  00016	75 12		 jne	 SHORT $LN21@operator
$LL2@operator:
  00018	3b 50 08	 cmp	 edx, DWORD PTR [eax+8]
  0001b	75 0d		 jne	 SHORT $LN21@operator

; 53   :                 _Ptr = _Pnode; // ==> parent while right subtree

  0001d	89 06		 mov	 DWORD PTR [esi], eax
  0001f	8b d0		 mov	 edx, eax
  00021	8b 40 04	 mov	 eax, DWORD PTR [eax+4]
  00024	80 78 0d 00	 cmp	 BYTE PTR [eax+13], 0
  00028	74 ee		 je	 SHORT $LL2@operator
$LN21@operator:

; 54   :             }
; 55   : 
; 56   :             _Ptr = _Pnode; // ==> parent (head if end())
; 57   :         } else {
; 58   :             _Ptr = _Mytree::_Min(_Ptr->_Right); // ==> smallest of right subtree
; 59   :         }
; 60   : 
; 61   :         return *this;

  0002a	89 06		 mov	 DWORD PTR [esi], eax

; 62   :     }

  0002c	8b c6		 mov	 eax, esi
  0002e	5f		 pop	 edi
  0002f	5e		 pop	 esi
  00030	c3		 ret	 0
$LN4@operator:

; 476  :         while (!_Pnode->_Left->_Isnil) {

  00031	8b 0f		 mov	 ecx, DWORD PTR [edi]
  00033	80 79 0d 00	 cmp	 BYTE PTR [ecx+13], 0
  00037	75 13		 jne	 SHORT $LN10@operator
  00039	0f 1f 80 00 00
	00 00		 npad	 7
$LL9@operator:
  00040	8b 01		 mov	 eax, DWORD PTR [ecx]

; 477  :             _Pnode = _Pnode->_Left;

  00042	8b f9		 mov	 edi, ecx
  00044	8b c8		 mov	 ecx, eax
  00046	80 78 0d 00	 cmp	 BYTE PTR [eax+13], 0
  0004a	74 f4		 je	 SHORT $LL9@operator
$LN10@operator:

; 54   :             }
; 55   : 
; 56   :             _Ptr = _Pnode; // ==> parent (head if end())
; 57   :         } else {
; 58   :             _Ptr = _Mytree::_Min(_Ptr->_Right); // ==> smallest of right subtree
; 59   :         }
; 60   : 
; 61   :         return *this;

  0004c	89 3e		 mov	 DWORD PTR [esi], edi

; 62   :     }

  0004e	8b c6		 mov	 eax, esi
  00050	5f		 pop	 edi
  00051	5e		 pop	 esi
  00052	c3		 ret	 0
??E?$_Tree_unchecked_const_iterator@V?$_Tree_val@U?$_Tree_simple_types@U?$pair@$$CBKPAVCUser@@@std@@@std@@@std@@U_Iterator_base0@2@@std@@QAEAAV01@XZ ENDP ; std::_Tree_unchecked_const_iterator<std::_Tree_val<std::_Tree_simple_types<std::pair<unsigned long const ,CUser *> > >,std::_Iterator_base0>::operator++
_TEXT	ENDS
; Function compile flags: /Ogtp
; File C:\Program Files\Microsoft Visual Studio\2022\Professional\VC\Tools\MSVC\14.44.35207\include\xtree
;	COMDAT ?_Insert_node@?$_Tree_val@U?$_Tree_simple_types@U?$pair@$$CBKPAVCUser@@@std@@@std@@@std@@QAEPAU?$_Tree_node@U?$pair@$$CBKPAVCUser@@@std@@PAX@2@U?$_Tree_id@PAU?$_Tree_node@U?$pair@$$CBKPAVCUser@@@std@@PAX@std@@@2@QAU32@@Z
_TEXT	SEGMENT
__Head$1$ = -4						; size = 4
__Loc$ = 8						; size = 8
__Newnode$ = 16						; size = 4
?_Insert_node@?$_Tree_val@U?$_Tree_simple_types@U?$pair@$$CBKPAVCUser@@@std@@@std@@@std@@QAEPAU?$_Tree_node@U?$pair@$$CBKPAVCUser@@@std@@PAX@2@U?$_Tree_id@PAU?$_Tree_node@U?$pair@$$CBKPAVCUser@@@std@@PAX@std@@@2@QAU32@@Z PROC ; std::_Tree_val<std::_Tree_simple_types<std::pair<unsigned long const ,CUser *> > >::_Insert_node, COMDAT
; _this$ = ecx

; 669  :     _Nodeptr _Insert_node(const _Tree_id<_Nodeptr> _Loc, const _Nodeptr _Newnode) noexcept {

  00000	55		 push	 ebp
  00001	8b ec		 mov	 ebp, esp
  00003	51		 push	 ecx

; 670  :         ++_Mysize;
; 671  :         const auto _Head  = _Myhead;
; 672  :         _Newnode->_Parent = _Loc._Parent;

  00004	8b 55 08	 mov	 edx, DWORD PTR __Loc$[ebp]
  00007	53		 push	 ebx
  00008	8b d9		 mov	 ebx, ecx
  0000a	57		 push	 edi
  0000b	8b 7d 10	 mov	 edi, DWORD PTR __Newnode$[ebp]
  0000e	8b 03		 mov	 eax, DWORD PTR [ebx]
  00010	ff 43 04	 inc	 DWORD PTR [ebx+4]
  00013	89 45 fc	 mov	 DWORD PTR __Head$1$[ebp], eax
  00016	89 57 04	 mov	 DWORD PTR [edi+4], edx

; 673  :         if (_Loc._Parent == _Head) { // first node in tree, just set head values

  00019	3b d0		 cmp	 edx, eax
  0001b	75 16		 jne	 SHORT $LN5@Insert_nod

; 674  :             _Head->_Left     = _Newnode;

  0001d	89 38		 mov	 DWORD PTR [eax], edi

; 675  :             _Head->_Parent   = _Newnode;

  0001f	89 78 04	 mov	 DWORD PTR [eax+4], edi

; 676  :             _Head->_Right    = _Newnode;

  00022	89 78 08	 mov	 DWORD PTR [eax+8], edi

; 735  :         return _Newnode;
; 736  :     }

  00025	8b c7		 mov	 eax, edi
  00027	c6 47 0c 01	 mov	 BYTE PTR [edi+12], 1
  0002b	5f		 pop	 edi
  0002c	5b		 pop	 ebx
  0002d	8b e5		 mov	 esp, ebp
  0002f	5d		 pop	 ebp
  00030	c2 0c 00	 ret	 12			; 0000000cH
$LN5@Insert_nod:

; 677  :             _Newnode->_Color = _Black; // the root is black
; 678  :             return _Newnode;
; 679  :         }
; 680  : 
; 681  :         _STL_INTERNAL_CHECK(_Loc._Child != _Tree_child::_Unused);
; 682  :         if (_Loc._Child == _Tree_child::_Right) { // add to right of _Loc._Parent

  00033	83 7d 0c 00	 cmp	 DWORD PTR __Loc$[ebp+4], 0
  00037	75 0d		 jne	 SHORT $LN6@Insert_nod

; 683  :             _STL_INTERNAL_CHECK(_Loc._Parent->_Right->_Isnil);
; 684  :             _Loc._Parent->_Right = _Newnode;

  00039	89 7a 08	 mov	 DWORD PTR [edx+8], edi

; 685  :             if (_Loc._Parent == _Head->_Right) { // remember rightmost node

  0003c	3b 50 08	 cmp	 edx, DWORD PTR [eax+8]
  0003f	75 0d		 jne	 SHORT $LN9@Insert_nod

; 686  :                 _Head->_Right = _Newnode;

  00041	89 78 08	 mov	 DWORD PTR [eax+8], edi

; 687  :             }
; 688  :         } else { // add to left of _Loc._Parent

  00044	eb 08		 jmp	 SHORT $LN9@Insert_nod
$LN6@Insert_nod:

; 689  :             _STL_INTERNAL_CHECK(_Loc._Parent->_Left->_Isnil);
; 690  :             _Loc._Parent->_Left = _Newnode;

  00046	89 3a		 mov	 DWORD PTR [edx], edi

; 691  :             if (_Loc._Parent == _Head->_Left) { // remember leftmost node

  00048	3b 10		 cmp	 edx, DWORD PTR [eax]
  0004a	75 02		 jne	 SHORT $LN9@Insert_nod

; 692  :                 _Head->_Left = _Newnode;

  0004c	89 38		 mov	 DWORD PTR [eax], edi
$LN9@Insert_nod:

; 693  :             }
; 694  :         }
; 695  : 
; 696  :         for (_Nodeptr _Pnode = _Newnode; _Pnode->_Parent->_Color == _Red;) {

  0004e	8b 4f 04	 mov	 ecx, DWORD PTR [edi+4]
  00051	8b c7		 mov	 eax, edi
  00053	80 79 0c 00	 cmp	 BYTE PTR [ecx+12], 0
  00057	0f 85 7d 01 00
	00		 jne	 $LN3@Insert_nod
  0005d	56		 push	 esi
  0005e	66 90		 npad	 2
$LL4@Insert_nod:

; 697  :             if (_Pnode->_Parent == _Pnode->_Parent->_Parent->_Left) { // fixup red-red in left subtree

  00060	8b 50 04	 mov	 edx, DWORD PTR [eax+4]
  00063	8b 72 04	 mov	 esi, DWORD PTR [edx+4]
  00066	8b 0e		 mov	 ecx, DWORD PTR [esi]
  00068	3b d1		 cmp	 edx, ecx
  0006a	0f 85 aa 00 00
	00		 jne	 $LN10@Insert_nod

; 698  :                 const auto _Parent_sibling = _Pnode->_Parent->_Parent->_Right;

  00070	8b 4e 08	 mov	 ecx, DWORD PTR [esi+8]

; 699  :                 if (_Parent_sibling->_Color == _Red) { // parent's sibling has two red children, blacken both

  00073	80 79 0c 00	 cmp	 BYTE PTR [ecx+12], 0
  00077	0f 84 a3 00 00
	00		 je	 $LN82@Insert_nod

; 700  :                     _Pnode->_Parent->_Color          = _Black;
; 701  :                     _Parent_sibling->_Color          = _Black;
; 702  :                     _Pnode->_Parent->_Parent->_Color = _Red;
; 703  :                     _Pnode                           = _Pnode->_Parent->_Parent;
; 704  :                 } else { // parent's sibling has red and black children
; 705  :                     if (_Pnode == _Pnode->_Parent->_Right) { // rotate right child to left

  0007d	8b 72 08	 mov	 esi, DWORD PTR [edx+8]
  00080	3b c6		 cmp	 eax, esi
  00082	75 37		 jne	 SHORT $LN57@Insert_nod

; 485  :         _Wherenode->_Right = _Pnode->_Left;

  00084	8b 0e		 mov	 ecx, DWORD PTR [esi]

; 706  :                         _Pnode = _Pnode->_Parent;

  00086	8b c2		 mov	 eax, edx

; 485  :         _Wherenode->_Right = _Pnode->_Left;

  00088	89 4a 08	 mov	 DWORD PTR [edx+8], ecx

; 486  : 
; 487  :         if (!_Pnode->_Left->_Isnil) {

  0008b	8b 0e		 mov	 ecx, DWORD PTR [esi]
  0008d	80 79 0d 00	 cmp	 BYTE PTR [ecx+13], 0
  00091	75 03		 jne	 SHORT $LN21@Insert_nod

; 488  :             _Pnode->_Left->_Parent = _Wherenode;

  00093	89 41 04	 mov	 DWORD PTR [ecx+4], eax
$LN21@Insert_nod:

; 489  :         }
; 490  : 
; 491  :         _Pnode->_Parent = _Wherenode->_Parent;

  00096	8b 4a 04	 mov	 ecx, DWORD PTR [edx+4]
  00099	89 4e 04	 mov	 DWORD PTR [esi+4], ecx

; 492  : 
; 493  :         if (_Wherenode == _Myhead->_Parent) {

  0009c	8b 0b		 mov	 ecx, DWORD PTR [ebx]
  0009e	3b 41 04	 cmp	 eax, DWORD PTR [ecx+4]
  000a1	75 05		 jne	 SHORT $LN22@Insert_nod

; 494  :             _Myhead->_Parent = _Pnode;

  000a3	89 71 04	 mov	 DWORD PTR [ecx+4], esi
  000a6	eb 0e		 jmp	 SHORT $LN25@Insert_nod
$LN22@Insert_nod:

; 495  :         } else if (_Wherenode == _Wherenode->_Parent->_Left) {

  000a8	8b 4a 04	 mov	 ecx, DWORD PTR [edx+4]
  000ab	3b 01		 cmp	 eax, DWORD PTR [ecx]
  000ad	75 04		 jne	 SHORT $LN24@Insert_nod

; 496  :             _Wherenode->_Parent->_Left = _Pnode;

  000af	89 31		 mov	 DWORD PTR [ecx], esi

; 497  :         } else {

  000b1	eb 03		 jmp	 SHORT $LN25@Insert_nod
$LN24@Insert_nod:

; 498  :             _Wherenode->_Parent->_Right = _Pnode;

  000b3	89 71 08	 mov	 DWORD PTR [ecx+8], esi
$LN25@Insert_nod:

; 499  :         }
; 500  : 
; 501  :         _Pnode->_Left       = _Wherenode;

  000b6	89 06		 mov	 DWORD PTR [esi], eax

; 502  :         _Wherenode->_Parent = _Pnode;

  000b8	89 70 04	 mov	 DWORD PTR [eax+4], esi
$LN57@Insert_nod:

; 707  :                         _Lrotate(_Pnode);
; 708  :                     }
; 709  : 
; 710  :                     _Pnode->_Parent->_Color          = _Black; // propagate red up

  000bb	8b 48 04	 mov	 ecx, DWORD PTR [eax+4]
  000be	c6 41 0c 01	 mov	 BYTE PTR [ecx+12], 1

; 711  :                     _Pnode->_Parent->_Parent->_Color = _Red;

  000c2	8b 48 04	 mov	 ecx, DWORD PTR [eax+4]
  000c5	8b 49 04	 mov	 ecx, DWORD PTR [ecx+4]
  000c8	c6 41 0c 00	 mov	 BYTE PTR [ecx+12], 0

; 712  :                     _Rrotate(_Pnode->_Parent->_Parent);

  000cc	8b 48 04	 mov	 ecx, DWORD PTR [eax+4]
  000cf	8b 51 04	 mov	 edx, DWORD PTR [ecx+4]

; 506  :         _Nodeptr _Pnode   = _Wherenode->_Left;

  000d2	8b 32		 mov	 esi, DWORD PTR [edx]

; 507  :         _Wherenode->_Left = _Pnode->_Right;

  000d4	8b 4e 08	 mov	 ecx, DWORD PTR [esi+8]
  000d7	89 0a		 mov	 DWORD PTR [edx], ecx

; 508  : 
; 509  :         if (!_Pnode->_Right->_Isnil) {

  000d9	8b 4e 08	 mov	 ecx, DWORD PTR [esi+8]
  000dc	80 79 0d 00	 cmp	 BYTE PTR [ecx+13], 0
  000e0	75 03		 jne	 SHORT $LN29@Insert_nod

; 510  :             _Pnode->_Right->_Parent = _Wherenode;

  000e2	89 51 04	 mov	 DWORD PTR [ecx+4], edx
$LN29@Insert_nod:

; 511  :         }
; 512  : 
; 513  :         _Pnode->_Parent = _Wherenode->_Parent;

  000e5	8b 4a 04	 mov	 ecx, DWORD PTR [edx+4]
  000e8	89 4e 04	 mov	 DWORD PTR [esi+4], ecx

; 514  : 
; 515  :         if (_Wherenode == _Myhead->_Parent) {

  000eb	8b 0b		 mov	 ecx, DWORD PTR [ebx]
  000ed	3b 51 04	 cmp	 edx, DWORD PTR [ecx+4]
  000f0	75 0b		 jne	 SHORT $LN30@Insert_nod

; 516  :             _Myhead->_Parent = _Pnode;

  000f2	89 71 04	 mov	 DWORD PTR [ecx+4], esi

; 521  :         }
; 522  : 
; 523  :         _Pnode->_Right      = _Wherenode;

  000f5	89 56 08	 mov	 DWORD PTR [esi+8], edx

; 713  :                 }
; 714  :             } else { // fixup red-red in right subtree

  000f8	e9 cc 00 00 00	 jmp	 $LN81@Insert_nod
$LN30@Insert_nod:

; 517  :         } else if (_Wherenode == _Wherenode->_Parent->_Right) {

  000fd	8b 4a 04	 mov	 ecx, DWORD PTR [edx+4]
  00100	3b 51 08	 cmp	 edx, DWORD PTR [ecx+8]
  00103	75 0b		 jne	 SHORT $LN32@Insert_nod

; 518  :             _Wherenode->_Parent->_Right = _Pnode;

  00105	89 71 08	 mov	 DWORD PTR [ecx+8], esi

; 521  :         }
; 522  : 
; 523  :         _Pnode->_Right      = _Wherenode;

  00108	89 56 08	 mov	 DWORD PTR [esi+8], edx

; 713  :                 }
; 714  :             } else { // fixup red-red in right subtree

  0010b	e9 b9 00 00 00	 jmp	 $LN81@Insert_nod
$LN32@Insert_nod:

; 520  :             _Wherenode->_Parent->_Left = _Pnode;

  00110	89 31		 mov	 DWORD PTR [ecx], esi

; 521  :         }
; 522  : 
; 523  :         _Pnode->_Right      = _Wherenode;

  00112	89 56 08	 mov	 DWORD PTR [esi+8], edx

; 713  :                 }
; 714  :             } else { // fixup red-red in right subtree

  00115	e9 af 00 00 00	 jmp	 $LN81@Insert_nod
$LN10@Insert_nod:

; 715  :                 const auto _Parent_sibling = _Pnode->_Parent->_Parent->_Left;
; 716  :                 if (_Parent_sibling->_Color == _Red) { // parent's sibling has two red children, blacken both

  0011a	80 79 0c 00	 cmp	 BYTE PTR [ecx+12], 0
  0011e	75 1d		 jne	 SHORT $LN15@Insert_nod
$LN82@Insert_nod:

; 693  :             }
; 694  :         }
; 695  : 
; 696  :         for (_Nodeptr _Pnode = _Newnode; _Pnode->_Parent->_Color == _Red;) {

  00120	c6 42 0c 01	 mov	 BYTE PTR [edx+12], 1
  00124	c6 41 0c 01	 mov	 BYTE PTR [ecx+12], 1
  00128	8b 48 04	 mov	 ecx, DWORD PTR [eax+4]
  0012b	8b 49 04	 mov	 ecx, DWORD PTR [ecx+4]
  0012e	c6 41 0c 00	 mov	 BYTE PTR [ecx+12], 0
  00132	8b 48 04	 mov	 ecx, DWORD PTR [eax+4]
  00135	8b 41 04	 mov	 eax, DWORD PTR [ecx+4]
  00138	e9 8f 00 00 00	 jmp	 $LN2@Insert_nod
$LN15@Insert_nod:

; 717  :                     _Pnode->_Parent->_Color          = _Black;
; 718  :                     _Parent_sibling->_Color          = _Black;
; 719  :                     _Pnode->_Parent->_Parent->_Color = _Red;
; 720  :                     _Pnode                           = _Pnode->_Parent->_Parent;
; 721  :                 } else { // parent's sibling has red and black children
; 722  :                     if (_Pnode == _Pnode->_Parent->_Left) { // rotate left child to right

  0013d	8b 32		 mov	 esi, DWORD PTR [edx]
  0013f	3b c6		 cmp	 eax, esi
  00141	75 3a		 jne	 SHORT $LN42@Insert_nod

; 507  :         _Wherenode->_Left = _Pnode->_Right;

  00143	8b 4e 08	 mov	 ecx, DWORD PTR [esi+8]

; 723  :                         _Pnode = _Pnode->_Parent;

  00146	8b c2		 mov	 eax, edx

; 507  :         _Wherenode->_Left = _Pnode->_Right;

  00148	89 08		 mov	 DWORD PTR [eax], ecx

; 508  : 
; 509  :         if (!_Pnode->_Right->_Isnil) {

  0014a	8b 4e 08	 mov	 ecx, DWORD PTR [esi+8]
  0014d	80 79 0d 00	 cmp	 BYTE PTR [ecx+13], 0
  00151	75 03		 jne	 SHORT $LN37@Insert_nod

; 510  :             _Pnode->_Right->_Parent = _Wherenode;

  00153	89 41 04	 mov	 DWORD PTR [ecx+4], eax
$LN37@Insert_nod:

; 511  :         }
; 512  : 
; 513  :         _Pnode->_Parent = _Wherenode->_Parent;

  00156	8b 4a 04	 mov	 ecx, DWORD PTR [edx+4]
  00159	89 4e 04	 mov	 DWORD PTR [esi+4], ecx

; 514  : 
; 515  :         if (_Wherenode == _Myhead->_Parent) {

  0015c	8b 0b		 mov	 ecx, DWORD PTR [ebx]
  0015e	3b 41 04	 cmp	 eax, DWORD PTR [ecx+4]
  00161	75 05		 jne	 SHORT $LN38@Insert_nod

; 516  :             _Myhead->_Parent = _Pnode;

  00163	89 71 04	 mov	 DWORD PTR [ecx+4], esi
  00166	eb 0f		 jmp	 SHORT $LN41@Insert_nod
$LN38@Insert_nod:

; 517  :         } else if (_Wherenode == _Wherenode->_Parent->_Right) {

  00168	8b 4a 04	 mov	 ecx, DWORD PTR [edx+4]
  0016b	3b 41 08	 cmp	 eax, DWORD PTR [ecx+8]
  0016e	75 05		 jne	 SHORT $LN40@Insert_nod

; 518  :             _Wherenode->_Parent->_Right = _Pnode;

  00170	89 71 08	 mov	 DWORD PTR [ecx+8], esi

; 519  :         } else {

  00173	eb 02		 jmp	 SHORT $LN41@Insert_nod
$LN40@Insert_nod:

; 520  :             _Wherenode->_Parent->_Left = _Pnode;

  00175	89 31		 mov	 DWORD PTR [ecx], esi
$LN41@Insert_nod:

; 521  :         }
; 522  : 
; 523  :         _Pnode->_Right      = _Wherenode;

  00177	89 46 08	 mov	 DWORD PTR [esi+8], eax

; 524  :         _Wherenode->_Parent = _Pnode;

  0017a	89 70 04	 mov	 DWORD PTR [eax+4], esi
$LN42@Insert_nod:

; 724  :                         _Rrotate(_Pnode);
; 725  :                     }
; 726  : 
; 727  :                     _Pnode->_Parent->_Color          = _Black; // propagate red up

  0017d	8b 48 04	 mov	 ecx, DWORD PTR [eax+4]
  00180	c6 41 0c 01	 mov	 BYTE PTR [ecx+12], 1

; 728  :                     _Pnode->_Parent->_Parent->_Color = _Red;

  00184	8b 48 04	 mov	 ecx, DWORD PTR [eax+4]
  00187	8b 49 04	 mov	 ecx, DWORD PTR [ecx+4]
  0018a	c6 41 0c 00	 mov	 BYTE PTR [ecx+12], 0

; 729  :                     _Lrotate(_Pnode->_Parent->_Parent);

  0018e	8b 48 04	 mov	 ecx, DWORD PTR [eax+4]
  00191	8b 51 04	 mov	 edx, DWORD PTR [ecx+4]

; 484  :         _Nodeptr _Pnode    = _Wherenode->_Right;

  00194	8b 72 08	 mov	 esi, DWORD PTR [edx+8]

; 485  :         _Wherenode->_Right = _Pnode->_Left;

  00197	8b 0e		 mov	 ecx, DWORD PTR [esi]
  00199	89 4a 08	 mov	 DWORD PTR [edx+8], ecx

; 486  : 
; 487  :         if (!_Pnode->_Left->_Isnil) {

  0019c	8b 0e		 mov	 ecx, DWORD PTR [esi]
  0019e	80 79 0d 00	 cmp	 BYTE PTR [ecx+13], 0
  001a2	75 03		 jne	 SHORT $LN45@Insert_nod

; 488  :             _Pnode->_Left->_Parent = _Wherenode;

  001a4	89 51 04	 mov	 DWORD PTR [ecx+4], edx
$LN45@Insert_nod:

; 489  :         }
; 490  : 
; 491  :         _Pnode->_Parent = _Wherenode->_Parent;

  001a7	8b 4a 04	 mov	 ecx, DWORD PTR [edx+4]
  001aa	89 4e 04	 mov	 DWORD PTR [esi+4], ecx

; 492  : 
; 493  :         if (_Wherenode == _Myhead->_Parent) {

  001ad	8b 0b		 mov	 ecx, DWORD PTR [ebx]
  001af	3b 51 04	 cmp	 edx, DWORD PTR [ecx+4]
  001b2	75 05		 jne	 SHORT $LN46@Insert_nod

; 494  :             _Myhead->_Parent = _Pnode;

  001b4	89 71 04	 mov	 DWORD PTR [ecx+4], esi
  001b7	eb 0e		 jmp	 SHORT $LN49@Insert_nod
$LN46@Insert_nod:

; 495  :         } else if (_Wherenode == _Wherenode->_Parent->_Left) {

  001b9	8b 4a 04	 mov	 ecx, DWORD PTR [edx+4]
  001bc	3b 11		 cmp	 edx, DWORD PTR [ecx]
  001be	75 04		 jne	 SHORT $LN48@Insert_nod

; 496  :             _Wherenode->_Parent->_Left = _Pnode;

  001c0	89 31		 mov	 DWORD PTR [ecx], esi

; 497  :         } else {

  001c2	eb 03		 jmp	 SHORT $LN49@Insert_nod
$LN48@Insert_nod:

; 498  :             _Wherenode->_Parent->_Right = _Pnode;

  001c4	89 71 08	 mov	 DWORD PTR [ecx+8], esi
$LN49@Insert_nod:

; 499  :         }
; 500  : 
; 501  :         _Pnode->_Left       = _Wherenode;

  001c7	89 16		 mov	 DWORD PTR [esi], edx
$LN81@Insert_nod:

; 693  :             }
; 694  :         }
; 695  : 
; 696  :         for (_Nodeptr _Pnode = _Newnode; _Pnode->_Parent->_Color == _Red;) {

  001c9	89 72 04	 mov	 DWORD PTR [edx+4], esi
$LN2@Insert_nod:
  001cc	8b 48 04	 mov	 ecx, DWORD PTR [eax+4]
  001cf	80 79 0c 00	 cmp	 BYTE PTR [ecx+12], 0
  001d3	0f 84 87 fe ff
	ff		 je	 $LL4@Insert_nod
  001d9	5e		 pop	 esi
$LN3@Insert_nod:

; 730  :                 }
; 731  :             }
; 732  :         }
; 733  : 
; 734  :         _Head->_Parent->_Color = _Black; // root is always black

  001da	8b 45 fc	 mov	 eax, DWORD PTR __Head$1$[ebp]
  001dd	8b 40 04	 mov	 eax, DWORD PTR [eax+4]
  001e0	c6 40 0c 01	 mov	 BYTE PTR [eax+12], 1

; 735  :         return _Newnode;
; 736  :     }

  001e4	8b c7		 mov	 eax, edi
  001e6	5f		 pop	 edi
  001e7	5b		 pop	 ebx
  001e8	8b e5		 mov	 esp, ebp
  001ea	5d		 pop	 ebp
  001eb	c2 0c 00	 ret	 12			; 0000000cH
?_Insert_node@?$_Tree_val@U?$_Tree_simple_types@U?$pair@$$CBKPAVCUser@@@std@@@std@@@std@@QAEPAU?$_Tree_node@U?$pair@$$CBKPAVCUser@@@std@@PAX@2@U?$_Tree_id@PAU?$_Tree_node@U?$pair@$$CBKPAVCUser@@@std@@PAX@std@@@2@QAU32@@Z ENDP ; std::_Tree_val<std::_Tree_simple_types<std::pair<unsigned long const ,CUser *> > >::_Insert_node
_TEXT	ENDS
; Function compile flags: /Ogtp
; File C:\Program Files\Microsoft Visual Studio\2022\Professional\VC\Tools\MSVC\14.44.35207\include\xtree
; File C:\Program Files\Microsoft Visual Studio\2022\Professional\VC\Tools\MSVC\14.44.35207\include\utility
; File C:\Program Files\Microsoft Visual Studio\2022\Professional\VC\Tools\MSVC\14.44.35207\include\xtree
;	COMDAT ?_Extract@?$_Tree_val@U?$_Tree_simple_types@U?$pair@$$CBKPAVCUser@@@std@@@std@@@std@@QAEPAU?$_Tree_node@U?$pair@$$CBKPAVCUser@@@std@@PAX@2@V?$_Tree_unchecked_const_iterator@V?$_Tree_val@U?$_Tree_simple_types@U?$pair@$$CBKPAVCUser@@@std@@@std@@@std@@U_Iterator_base0@2@@2@@Z
_TEXT	SEGMENT
tv1039 = -16						; size = 4
tv1073 = -12						; size = 4
tv1093 = -12						; size = 4
$T1 = -12						; size = 4
__Erasednode$1$ = -8					; size = 4
_this$1$ = -4						; size = 4
__Where$ = 8						; size = 4
?_Extract@?$_Tree_val@U?$_Tree_simple_types@U?$pair@$$CBKPAVCUser@@@std@@@std@@@std@@QAEPAU?$_Tree_node@U?$pair@$$CBKPAVCUser@@@std@@PAX@2@V?$_Tree_unchecked_const_iterator@V?$_Tree_val@U?$_Tree_simple_types@U?$pair@$$CBKPAVCUser@@@std@@@std@@@std@@U_Iterator_base0@2@@2@@Z PROC ; std::_Tree_val<std::_Tree_simple_types<std::pair<unsigned long const ,CUser *> > >::_Extract, COMDAT
; _this$ = ecx

; 527  :     _Nodeptr _Extract(_Unchecked_const_iterator _Where) noexcept {

  00000	55		 push	 ebp
  00001	8b ec		 mov	 ebp, esp
  00003	83 ec 10	 sub	 esp, 16			; 00000010H

; 528  :         _Nodeptr _Erasednode = _Where._Ptr; // node to erase

  00006	8b 45 08	 mov	 eax, DWORD PTR __Where$[ebp]
  00009	53		 push	 ebx
  0000a	56		 push	 esi
  0000b	8b d9		 mov	 ebx, ecx
  0000d	89 45 f8	 mov	 DWORD PTR __Erasednode$1$[ebp], eax
  00010	57		 push	 edi

; 529  :         ++_Where; // save successor iterator for return

  00011	8d 4d 08	 lea	 ecx, DWORD PTR __Where$[ebp]
  00014	89 5d fc	 mov	 DWORD PTR _this$1$[ebp], ebx
  00017	e8 00 00 00 00	 call	 ??E?$_Tree_unchecked_const_iterator@V?$_Tree_val@U?$_Tree_simple_types@U?$pair@$$CBKPAVCUser@@@std@@@std@@@std@@U_Iterator_base0@2@@std@@QAEAAV01@XZ ; std::_Tree_unchecked_const_iterator<std::_Tree_val<std::_Tree_simple_types<std::pair<unsigned long const ,CUser *> > >,std::_Iterator_base0>::operator++

; 530  : 
; 531  :         _Nodeptr _Fixnode; // the node to recolor as needed
; 532  :         _Nodeptr _Fixnodeparent; // parent of _Fixnode (which may be nil)
; 533  :         _Nodeptr _Pnode = _Erasednode;
; 534  : 
; 535  :         if (_Pnode->_Left->_Isnil) {

  0001c	8b 4d f8	 mov	 ecx, DWORD PTR __Erasednode$1$[ebp]
  0001f	8b 01		 mov	 eax, DWORD PTR [ecx]
  00021	8b 79 08	 mov	 edi, DWORD PTR [ecx+8]
  00024	80 78 0d 00	 cmp	 BYTE PTR [eax+13], 0
  00028	75 18		 jne	 SHORT $LN94@Extract

; 536  :             _Fixnode = _Pnode->_Right; // stitch up right subtree
; 537  :         } else if (_Pnode->_Right->_Isnil) {

  0002a	80 7f 0d 00	 cmp	 BYTE PTR [edi+13], 0
  0002e	74 04		 je	 SHORT $LN7@Extract

; 538  :             _Fixnode = _Pnode->_Left; // stitch up left subtree

  00030	8b f8		 mov	 edi, eax

; 539  :         } else { // two subtrees, must lift successor node to replace erased

  00032	eb 0e		 jmp	 SHORT $LN94@Extract
$LN7@Extract:

; 540  :             _Pnode   = _Where._Ptr; // _Pnode is successor node

  00034	8b 55 08	 mov	 edx, DWORD PTR __Where$[ebp]

; 541  :             _Fixnode = _Pnode->_Right; // _Fixnode is only subtree

  00037	8b 7a 08	 mov	 edi, DWORD PTR [edx+8]
  0003a	3b d1		 cmp	 edx, ecx

; 542  :         }
; 543  : 
; 544  :         if (_Pnode == _Erasednode) { // at most one subtree, relink it

  0003c	0f 85 91 00 00
	00		 jne	 $LN9@Extract
$LN94@Extract:

; 545  :             _Fixnodeparent = _Erasednode->_Parent;
; 546  :             if (!_Fixnode->_Isnil) {

  00042	80 7f 0d 00	 cmp	 BYTE PTR [edi+13], 0
  00046	8b 71 04	 mov	 esi, DWORD PTR [ecx+4]
  00049	75 03		 jne	 SHORT $LN11@Extract

; 547  :                 _Fixnode->_Parent = _Fixnodeparent; // link up

  0004b	89 77 04	 mov	 DWORD PTR [edi+4], esi
$LN11@Extract:

; 548  :             }
; 549  : 
; 550  :             if (_Myhead->_Parent == _Erasednode) {

  0004e	8b 03		 mov	 eax, DWORD PTR [ebx]
  00050	39 48 04	 cmp	 DWORD PTR [eax+4], ecx
  00053	75 05		 jne	 SHORT $LN12@Extract

; 551  :                 _Myhead->_Parent = _Fixnode; // link down from root

  00055	89 78 04	 mov	 DWORD PTR [eax+4], edi
  00058	eb 0b		 jmp	 SHORT $LN15@Extract
$LN12@Extract:

; 552  :             } else if (_Fixnodeparent->_Left == _Erasednode) {

  0005a	39 0e		 cmp	 DWORD PTR [esi], ecx
  0005c	75 04		 jne	 SHORT $LN14@Extract

; 553  :                 _Fixnodeparent->_Left = _Fixnode; // link down to left

  0005e	89 3e		 mov	 DWORD PTR [esi], edi

; 554  :             } else {

  00060	eb 03		 jmp	 SHORT $LN15@Extract
$LN14@Extract:

; 555  :                 _Fixnodeparent->_Right = _Fixnode; // link down to right

  00062	89 7e 08	 mov	 DWORD PTR [esi+8], edi
$LN15@Extract:

; 556  :             }
; 557  : 
; 558  :             if (_Myhead->_Left == _Erasednode) {

  00065	8b 03		 mov	 eax, DWORD PTR [ebx]
  00067	39 08		 cmp	 DWORD PTR [eax], ecx
  00069	75 28		 jne	 SHORT $LN16@Extract

; 559  :                 _Myhead->_Left = _Fixnode->_Isnil ? _Fixnodeparent // smallest is parent of erased node

  0006b	80 7f 0d 00	 cmp	 BYTE PTR [edi+13], 0
  0006f	74 04		 je	 SHORT $LN42@Extract
  00071	8b d6		 mov	 edx, esi
  00073	eb 1c		 jmp	 SHORT $LN43@Extract
$LN42@Extract:

; 476  :         while (!_Pnode->_Left->_Isnil) {

  00075	8b 0f		 mov	 ecx, DWORD PTR [edi]

; 559  :                 _Myhead->_Left = _Fixnode->_Isnil ? _Fixnodeparent // smallest is parent of erased node

  00077	8b d7		 mov	 edx, edi

; 476  :         while (!_Pnode->_Left->_Isnil) {

  00079	80 79 0d 00	 cmp	 BYTE PTR [ecx+13], 0
  0007d	75 0f		 jne	 SHORT $LN49@Extract
  0007f	90		 npad	 1
$LL48@Extract:
  00080	8b 01		 mov	 eax, DWORD PTR [ecx]

; 477  :             _Pnode = _Pnode->_Left;

  00082	8b d1		 mov	 edx, ecx
  00084	8b c8		 mov	 ecx, eax
  00086	80 78 0d 00	 cmp	 BYTE PTR [eax+13], 0
  0008a	74 f4		 je	 SHORT $LL48@Extract
  0008c	8b 03		 mov	 eax, DWORD PTR [ebx]
$LN49@Extract:
  0008e	8b 4d f8	 mov	 ecx, DWORD PTR __Erasednode$1$[ebp]
$LN43@Extract:

; 559  :                 _Myhead->_Left = _Fixnode->_Isnil ? _Fixnodeparent // smallest is parent of erased node

  00091	89 10		 mov	 DWORD PTR [eax], edx
$LN16@Extract:

; 560  :                                                   : _Min(_Fixnode); // smallest in relinked subtree
; 561  :             }
; 562  : 
; 563  :             if (_Myhead->_Right == _Erasednode) {

  00093	8b 13		 mov	 edx, DWORD PTR [ebx]
  00095	39 4a 08	 cmp	 DWORD PTR [edx+8], ecx
  00098	75 34		 jne	 SHORT $LN17@Extract

; 564  :                 _Myhead->_Right = _Fixnode->_Isnil ? _Fixnodeparent // largest is parent of erased node

  0009a	80 7f 0d 00	 cmp	 BYTE PTR [edi+13], 0
  0009e	74 0d		 je	 SHORT $LN44@Extract

; 565  :                                                    : _Max(_Fixnode); // largest in relinked subtree
; 566  :             }
; 567  :         } else { // erased has two subtrees, _Pnode is successor to erased

  000a0	8b 45 f8	 mov	 eax, DWORD PTR __Erasednode$1$[ebp]
  000a3	8b ce		 mov	 ecx, esi
  000a5	89 4a 08	 mov	 DWORD PTR [edx+8], ecx
  000a8	e9 94 00 00 00	 jmp	 $LN58@Extract
$LN44@Extract:

; 468  :         while (!_Pnode->_Right->_Isnil) {

  000ad	8b 47 08	 mov	 eax, DWORD PTR [edi+8]

; 564  :                 _Myhead->_Right = _Fixnode->_Isnil ? _Fixnodeparent // largest is parent of erased node

  000b0	8b cf		 mov	 ecx, edi

; 468  :         while (!_Pnode->_Right->_Isnil) {

  000b2	80 78 0d 00	 cmp	 BYTE PTR [eax+13], 0
  000b6	75 13		 jne	 SHORT $LN54@Extract
  000b8	0f 1f 84 00 00
	00 00 00	 npad	 8
$LL53@Extract:

; 469  :             _Pnode = _Pnode->_Right;

  000c0	8b c8		 mov	 ecx, eax
  000c2	8b 41 08	 mov	 eax, DWORD PTR [ecx+8]
  000c5	80 78 0d 00	 cmp	 BYTE PTR [eax+13], 0
  000c9	74 f5		 je	 SHORT $LL53@Extract
$LN54@Extract:

; 564  :                 _Myhead->_Right = _Fixnode->_Isnil ? _Fixnodeparent // largest is parent of erased node

  000cb	89 4a 08	 mov	 DWORD PTR [edx+8], ecx
$LN17@Extract:

; 565  :                                                    : _Max(_Fixnode); // largest in relinked subtree
; 566  :             }
; 567  :         } else { // erased has two subtrees, _Pnode is successor to erased

  000ce	8b 45 f8	 mov	 eax, DWORD PTR __Erasednode$1$[ebp]
  000d1	eb 6e		 jmp	 SHORT $LN58@Extract
$LN9@Extract:

; 568  :             _Erasednode->_Left->_Parent = _Pnode; // link left up

  000d3	89 50 04	 mov	 DWORD PTR [eax+4], edx

; 569  :             _Pnode->_Left               = _Erasednode->_Left; // link successor down

  000d6	8b 01		 mov	 eax, DWORD PTR [ecx]
  000d8	89 02		 mov	 DWORD PTR [edx], eax

; 570  : 
; 571  :             if (_Pnode == _Erasednode->_Right) {

  000da	8d 42 04	 lea	 eax, DWORD PTR [edx+4]
  000dd	89 45 f4	 mov	 DWORD PTR $T1[ebp], eax
  000e0	3b 51 08	 cmp	 edx, DWORD PTR [ecx+8]
  000e3	75 04		 jne	 SHORT $LN18@Extract

; 572  :                 _Fixnodeparent = _Pnode; // successor is next to erased

  000e5	8b f2		 mov	 esi, edx

; 573  :             } else { // successor further down, link in place of erased

  000e7	eb 1f		 jmp	 SHORT $LN19@Extract
$LN18@Extract:

; 574  :                 _Fixnodeparent = _Pnode->_Parent; // parent is successor's
; 575  :                 if (!_Fixnode->_Isnil) {

  000e9	80 7f 0d 00	 cmp	 BYTE PTR [edi+13], 0
  000ed	8b 30		 mov	 esi, DWORD PTR [eax]
  000ef	75 03		 jne	 SHORT $LN20@Extract

; 576  :                     _Fixnode->_Parent = _Fixnodeparent; // link fix up

  000f1	89 77 04	 mov	 DWORD PTR [edi+4], esi
$LN20@Extract:

; 577  :                 }
; 578  : 
; 579  :                 _Fixnodeparent->_Left        = _Fixnode; // link fix down

  000f4	89 3e		 mov	 DWORD PTR [esi], edi

; 580  :                 _Pnode->_Right               = _Erasednode->_Right; // link next down

  000f6	8b 41 08	 mov	 eax, DWORD PTR [ecx+8]
  000f9	89 42 08	 mov	 DWORD PTR [edx+8], eax

; 581  :                 _Erasednode->_Right->_Parent = _Pnode; // right up

  000fc	8b 41 08	 mov	 eax, DWORD PTR [ecx+8]
  000ff	89 50 04	 mov	 DWORD PTR [eax+4], edx
  00102	8d 42 04	 lea	 eax, DWORD PTR [edx+4]
  00105	89 45 f4	 mov	 DWORD PTR $T1[ebp], eax
$LN19@Extract:

; 582  :             }
; 583  : 
; 584  :             if (_Myhead->_Parent == _Erasednode) {

  00108	8b 03		 mov	 eax, DWORD PTR [ebx]
  0010a	39 48 04	 cmp	 DWORD PTR [eax+4], ecx
  0010d	75 05		 jne	 SHORT $LN21@Extract

; 585  :                 _Myhead->_Parent = _Pnode; // link down from root

  0010f	89 50 04	 mov	 DWORD PTR [eax+4], edx
  00112	eb 0e		 jmp	 SHORT $LN141@Extract
$LN21@Extract:

; 586  :             } else if (_Erasednode->_Parent->_Left == _Erasednode) {

  00114	8b 41 04	 mov	 eax, DWORD PTR [ecx+4]
  00117	39 08		 cmp	 DWORD PTR [eax], ecx
  00119	75 04		 jne	 SHORT $LN23@Extract

; 587  :                 _Erasednode->_Parent->_Left = _Pnode; // link down to left

  0011b	89 10		 mov	 DWORD PTR [eax], edx

; 588  :             } else {

  0011d	eb 03		 jmp	 SHORT $LN141@Extract
$LN23@Extract:

; 589  :                 _Erasednode->_Parent->_Right = _Pnode; // link down to right

  0011f	89 50 08	 mov	 DWORD PTR [eax+8], edx
$LN141@Extract:

; 590  :             }
; 591  : 
; 592  :             _Pnode->_Parent = _Erasednode->_Parent; // link successor up

  00122	b8 04 00 00 00	 mov	 eax, 4
  00127	8b 04 08	 mov	 eax, DWORD PTR [eax+ecx]
  0012a	8b 4d f4	 mov	 ecx, DWORD PTR $T1[ebp]
  0012d	89 01		 mov	 DWORD PTR [ecx], eax
; File C:\Program Files\Microsoft Visual Studio\2022\Professional\VC\Tools\MSVC\14.44.35207\include\utility

; 140  :     _Left    = _STD move(_Right);

  0012f	8b 45 f8	 mov	 eax, DWORD PTR __Erasednode$1$[ebp]
  00132	8a 4a 0c	 mov	 cl, BYTE PTR [edx+12]
  00135	8a 40 0c	 mov	 al, BYTE PTR [eax+12]
  00138	88 42 0c	 mov	 BYTE PTR [edx+12], al

; 141  :     _Right   = _STD move(_Tmp);

  0013b	8b 45 f8	 mov	 eax, DWORD PTR __Erasednode$1$[ebp]
  0013e	88 48 0c	 mov	 BYTE PTR [eax+12], cl
$LN58@Extract:
; File C:\Program Files\Microsoft Visual Studio\2022\Professional\VC\Tools\MSVC\14.44.35207\include\xtree

; 596  :         if (_Erasednode->_Color == _Black) { // erasing black link, must recolor/rebalance tree

  00141	80 78 0c 01	 cmp	 BYTE PTR [eax+12], 1
  00145	0f 85 ba 01 00
	00		 jne	 $LN25@Extract

; 597  :             for (; _Fixnode != _Myhead->_Parent && _Fixnode->_Color == _Black; _Fixnodeparent = _Fixnode->_Parent) {

  0014b	8b 03		 mov	 eax, DWORD PTR [ebx]
  0014d	3b 78 04	 cmp	 edi, DWORD PTR [eax+4]
  00150	0f 84 a8 01 00
	00		 je	 $LN3@Extract
  00156	80 7f 0c 01	 cmp	 BYTE PTR [edi+12], 1
  0015a	89 75 f4	 mov	 DWORD PTR tv1093[ebp], esi
  0015d	0f 85 9b 01 00
	00		 jne	 $LN3@Extract
$LL4@Extract:

; 598  :                 if (_Fixnode == _Fixnodeparent->_Left) { // fixup left subtree

  00163	8b 0e		 mov	 ecx, DWORD PTR [esi]
  00165	3b f9		 cmp	 edi, ecx
  00167	0f 85 be 00 00
	00		 jne	 $LN26@Extract

; 599  :                     _Pnode = _Fixnodeparent->_Right;

  0016d	8b 4e 08	 mov	 ecx, DWORD PTR [esi+8]

; 600  :                     if (_Pnode->_Color == _Red) { // rotate red up from right subtree

  00170	80 79 0c 00	 cmp	 BYTE PTR [ecx+12], 0
  00174	75 54		 jne	 SHORT $LN95@Extract

; 601  :                         _Pnode->_Color         = _Black;

  00176	c6 41 0c 01	 mov	 BYTE PTR [ecx+12], 1

; 484  :         _Nodeptr _Pnode    = _Wherenode->_Right;

  0017a	8b 4e 08	 mov	 ecx, DWORD PTR [esi+8]

; 602  :                         _Fixnodeparent->_Color = _Red;

  0017d	c6 46 0c 00	 mov	 BYTE PTR [esi+12], 0

; 485  :         _Wherenode->_Right = _Pnode->_Left;

  00181	8b 01		 mov	 eax, DWORD PTR [ecx]
  00183	89 46 08	 mov	 DWORD PTR [esi+8], eax

; 486  : 
; 487  :         if (!_Pnode->_Left->_Isnil) {

  00186	8b 01		 mov	 eax, DWORD PTR [ecx]
  00188	80 78 0d 00	 cmp	 BYTE PTR [eax+13], 0
  0018c	75 03		 jne	 SHORT $LN61@Extract

; 488  :             _Pnode->_Left->_Parent = _Wherenode;

  0018e	89 70 04	 mov	 DWORD PTR [eax+4], esi
$LN61@Extract:

; 489  :         }
; 490  : 
; 491  :         _Pnode->_Parent = _Wherenode->_Parent;

  00191	8b 46 04	 mov	 eax, DWORD PTR [esi+4]
  00194	8d 56 04	 lea	 edx, DWORD PTR [esi+4]
  00197	89 41 04	 mov	 DWORD PTR [ecx+4], eax

; 492  : 
; 493  :         if (_Wherenode == _Myhead->_Parent) {

  0019a	8b 03		 mov	 eax, DWORD PTR [ebx]
  0019c	3b 70 04	 cmp	 esi, DWORD PTR [eax+4]
  0019f	75 0c		 jne	 SHORT $LN62@Extract

; 494  :             _Myhead->_Parent = _Pnode;

  001a1	89 48 04	 mov	 DWORD PTR [eax+4], ecx

; 499  :         }
; 500  : 
; 501  :         _Pnode->_Left       = _Wherenode;

  001a4	89 31		 mov	 DWORD PTR [ecx], esi

; 502  :         _Wherenode->_Parent = _Pnode;

  001a6	89 0a		 mov	 DWORD PTR [edx], ecx

; 603  :                         _Lrotate(_Fixnodeparent);
; 604  :                         _Pnode = _Fixnodeparent->_Right;

  001a8	8b 4e 08	 mov	 ecx, DWORD PTR [esi+8]
  001ab	eb 20		 jmp	 SHORT $LN87@Extract
$LN62@Extract:

; 495  :         } else if (_Wherenode == _Wherenode->_Parent->_Left) {

  001ad	8b 02		 mov	 eax, DWORD PTR [edx]
  001af	3b 30		 cmp	 esi, DWORD PTR [eax]
  001b1	75 0b		 jne	 SHORT $LN64@Extract

; 496  :             _Wherenode->_Parent->_Left = _Pnode;

  001b3	89 08		 mov	 DWORD PTR [eax], ecx

; 499  :         }
; 500  : 
; 501  :         _Pnode->_Left       = _Wherenode;

  001b5	89 31		 mov	 DWORD PTR [ecx], esi

; 502  :         _Wherenode->_Parent = _Pnode;

  001b7	89 0a		 mov	 DWORD PTR [edx], ecx

; 603  :                         _Lrotate(_Fixnodeparent);
; 604  :                         _Pnode = _Fixnodeparent->_Right;

  001b9	8b 4e 08	 mov	 ecx, DWORD PTR [esi+8]
  001bc	eb 0f		 jmp	 SHORT $LN87@Extract
$LN64@Extract:

; 498  :             _Wherenode->_Parent->_Right = _Pnode;

  001be	89 48 08	 mov	 DWORD PTR [eax+8], ecx

; 499  :         }
; 500  : 
; 501  :         _Pnode->_Left       = _Wherenode;

  001c1	89 31		 mov	 DWORD PTR [ecx], esi

; 502  :         _Wherenode->_Parent = _Pnode;

  001c3	89 0a		 mov	 DWORD PTR [edx], ecx

; 603  :                         _Lrotate(_Fixnodeparent);
; 604  :                         _Pnode = _Fixnodeparent->_Right;

  001c5	8b 4e 08	 mov	 ecx, DWORD PTR [esi+8]
  001c8	eb 03		 jmp	 SHORT $LN87@Extract
$LN95@Extract:
  001ca	8d 56 04	 lea	 edx, DWORD PTR [esi+4]
$LN87@Extract:

; 605  :                     }
; 606  : 
; 607  :                     if (_Pnode->_Isnil) {

  001cd	80 79 0d 00	 cmp	 BYTE PTR [ecx+13], 0
  001d1	0f 85 d0 00 00
	00		 jne	 $LN2@Extract

; 608  :                         _Fixnode = _Fixnodeparent; // shouldn't happen
; 609  :                     } else if (_Pnode->_Left->_Color == _Black
; 610  :                                && _Pnode->_Right->_Color == _Black) { // redden right subtree with black children

  001d7	8b 01		 mov	 eax, DWORD PTR [ecx]
  001d9	80 78 0c 01	 cmp	 BYTE PTR [eax+12], 1
  001dd	75 0d		 jne	 SHORT $LN97@Extract
  001df	8b 41 08	 mov	 eax, DWORD PTR [ecx+8]
  001e2	80 78 0c 01	 cmp	 BYTE PTR [eax+12], 1
  001e6	0f 84 b4 00 00
	00		 je	 $LN142@Extract
$LN97@Extract:

; 611  :                         _Pnode->_Color = _Red;
; 612  :                         _Fixnode       = _Fixnodeparent;
; 613  :                     } else { // must rearrange right subtree
; 614  :                         if (_Pnode->_Right->_Color == _Black) { // rotate red up from left sub-subtree

  001ec	8b 41 08	 mov	 eax, DWORD PTR [ecx+8]
  001ef	8b 5d fc	 mov	 ebx, DWORD PTR _this$1$[ebp]
  001f2	80 78 0c 01	 cmp	 BYTE PTR [eax+12], 1
  001f6	75 15		 jne	 SHORT $LN33@Extract

; 615  :                             _Pnode->_Left->_Color = _Black;

  001f8	8b 01		 mov	 eax, DWORD PTR [ecx]

; 616  :                             _Pnode->_Color        = _Red;
; 617  :                             _Rrotate(_Pnode);

  001fa	51		 push	 ecx
  001fb	c6 40 0c 01	 mov	 BYTE PTR [eax+12], 1
  001ff	c6 41 0c 00	 mov	 BYTE PTR [ecx+12], 0
  00203	8b cb		 mov	 ecx, ebx
  00205	e8 00 00 00 00	 call	 ?_Rrotate@?$_Tree_val@U?$_Tree_simple_types@U?$pair@$$CBKPAVCUser@@@std@@@std@@@std@@QAEXPAU?$_Tree_node@U?$pair@$$CBKPAVCUser@@@std@@PAX@2@@Z ; std::_Tree_val<std::_Tree_simple_types<std::pair<unsigned long const ,CUser *> > >::_Rrotate

; 618  :                             _Pnode = _Fixnodeparent->_Right;

  0020a	8b 4e 08	 mov	 ecx, DWORD PTR [esi+8]
$LN33@Extract:

; 619  :                         }
; 620  : 
; 621  :                         _Pnode->_Color         = _Fixnodeparent->_Color;

  0020d	8a 46 0c	 mov	 al, BYTE PTR [esi+12]
  00210	88 41 0c	 mov	 BYTE PTR [ecx+12], al

; 622  :                         _Fixnodeparent->_Color = _Black;

  00213	c6 46 0c 01	 mov	 BYTE PTR [esi+12], 1

; 623  :                         _Pnode->_Right->_Color = _Black;

  00217	8b 41 08	 mov	 eax, DWORD PTR [ecx+8]

; 624  :                         _Lrotate(_Fixnodeparent);

  0021a	8b cb		 mov	 ecx, ebx
  0021c	56		 push	 esi
  0021d	c6 40 0c 01	 mov	 BYTE PTR [eax+12], 1
  00221	e8 00 00 00 00	 call	 ?_Lrotate@?$_Tree_val@U?$_Tree_simple_types@U?$pair@$$CBKPAVCUser@@@std@@@std@@@std@@QAEXPAU?$_Tree_node@U?$pair@$$CBKPAVCUser@@@std@@PAX@2@@Z ; std::_Tree_val<std::_Tree_simple_types<std::pair<unsigned long const ,CUser *> > >::_Lrotate

; 625  :                         break; // tree now recolored/rebalanced

  00226	e9 d3 00 00 00	 jmp	 $LN3@Extract
$LN26@Extract:

; 626  :                     }
; 627  :                 } else { // fixup right subtree
; 628  :                     _Pnode = _Fixnodeparent->_Left;
; 629  :                     if (_Pnode->_Color == _Red) { // rotate red up from left subtree

  0022b	80 79 0c 00	 cmp	 BYTE PTR [ecx+12], 0
  0022f	75 55		 jne	 SHORT $LN96@Extract

; 630  :                         _Pnode->_Color         = _Black;

  00231	c6 41 0c 01	 mov	 BYTE PTR [ecx+12], 1

; 506  :         _Nodeptr _Pnode   = _Wherenode->_Left;

  00235	8b 0e		 mov	 ecx, DWORD PTR [esi]

; 631  :                         _Fixnodeparent->_Color = _Red;

  00237	c6 46 0c 00	 mov	 BYTE PTR [esi+12], 0

; 507  :         _Wherenode->_Left = _Pnode->_Right;

  0023b	8b 41 08	 mov	 eax, DWORD PTR [ecx+8]
  0023e	89 06		 mov	 DWORD PTR [esi], eax

; 508  : 
; 509  :         if (!_Pnode->_Right->_Isnil) {

  00240	8b 41 08	 mov	 eax, DWORD PTR [ecx+8]
  00243	80 78 0d 00	 cmp	 BYTE PTR [eax+13], 0
  00247	75 03		 jne	 SHORT $LN69@Extract

; 510  :             _Pnode->_Right->_Parent = _Wherenode;

  00249	89 70 04	 mov	 DWORD PTR [eax+4], esi
$LN69@Extract:

; 511  :         }
; 512  : 
; 513  :         _Pnode->_Parent = _Wherenode->_Parent;

  0024c	8b 46 04	 mov	 eax, DWORD PTR [esi+4]
  0024f	8d 56 04	 lea	 edx, DWORD PTR [esi+4]
  00252	89 41 04	 mov	 DWORD PTR [ecx+4], eax

; 514  : 
; 515  :         if (_Wherenode == _Myhead->_Parent) {

  00255	8b 03		 mov	 eax, DWORD PTR [ebx]
  00257	3b 70 04	 cmp	 esi, DWORD PTR [eax+4]
  0025a	75 0c		 jne	 SHORT $LN70@Extract

; 516  :             _Myhead->_Parent = _Pnode;

  0025c	89 48 04	 mov	 DWORD PTR [eax+4], ecx

; 521  :         }
; 522  : 
; 523  :         _Pnode->_Right      = _Wherenode;

  0025f	89 71 08	 mov	 DWORD PTR [ecx+8], esi

; 524  :         _Wherenode->_Parent = _Pnode;

  00262	89 0a		 mov	 DWORD PTR [edx], ecx

; 632  :                         _Rrotate(_Fixnodeparent);
; 633  :                         _Pnode = _Fixnodeparent->_Left;

  00264	8b 0e		 mov	 ecx, DWORD PTR [esi]
  00266	eb 21		 jmp	 SHORT $LN86@Extract
$LN70@Extract:

; 517  :         } else if (_Wherenode == _Wherenode->_Parent->_Right) {

  00268	8b 02		 mov	 eax, DWORD PTR [edx]
  0026a	3b 70 08	 cmp	 esi, DWORD PTR [eax+8]
  0026d	75 0c		 jne	 SHORT $LN72@Extract

; 518  :             _Wherenode->_Parent->_Right = _Pnode;

  0026f	89 48 08	 mov	 DWORD PTR [eax+8], ecx

; 521  :         }
; 522  : 
; 523  :         _Pnode->_Right      = _Wherenode;

  00272	89 71 08	 mov	 DWORD PTR [ecx+8], esi

; 524  :         _Wherenode->_Parent = _Pnode;

  00275	89 0a		 mov	 DWORD PTR [edx], ecx

; 632  :                         _Rrotate(_Fixnodeparent);
; 633  :                         _Pnode = _Fixnodeparent->_Left;

  00277	8b 0e		 mov	 ecx, DWORD PTR [esi]
  00279	eb 0e		 jmp	 SHORT $LN86@Extract
$LN72@Extract:

; 520  :             _Wherenode->_Parent->_Left = _Pnode;

  0027b	89 08		 mov	 DWORD PTR [eax], ecx

; 521  :         }
; 522  : 
; 523  :         _Pnode->_Right      = _Wherenode;

  0027d	89 71 08	 mov	 DWORD PTR [ecx+8], esi

; 524  :         _Wherenode->_Parent = _Pnode;

  00280	89 0a		 mov	 DWORD PTR [edx], ecx

; 632  :                         _Rrotate(_Fixnodeparent);
; 633  :                         _Pnode = _Fixnodeparent->_Left;

  00282	8b 0e		 mov	 ecx, DWORD PTR [esi]
  00284	eb 03		 jmp	 SHORT $LN86@Extract
$LN96@Extract:
  00286	8d 56 04	 lea	 edx, DWORD PTR [esi+4]
$LN86@Extract:

; 634  :                     }
; 635  : 
; 636  :                     if (_Pnode->_Isnil) {

  00289	80 79 0d 00	 cmp	 BYTE PTR [ecx+13], 0
  0028d	75 18		 jne	 SHORT $LN2@Extract

; 637  :                         _Fixnode = _Fixnodeparent; // shouldn't happen
; 638  :                     } else if (_Pnode->_Right->_Color == _Black
; 639  :                                && _Pnode->_Left->_Color == _Black) { // redden left subtree with black children

  0028f	8b 59 08	 mov	 ebx, DWORD PTR [ecx+8]
  00292	80 7b 0c 01	 cmp	 BYTE PTR [ebx+12], 1
  00296	75 2c		 jne	 SHORT $LN98@Extract
  00298	8b 01		 mov	 eax, DWORD PTR [ecx]
  0029a	80 78 0c 01	 cmp	 BYTE PTR [eax+12], 1
  0029e	75 24		 jne	 SHORT $LN98@Extract
$LN142@Extract:

; 597  :             for (; _Fixnode != _Myhead->_Parent && _Fixnode->_Color == _Black; _Fixnodeparent = _Fixnode->_Parent) {

  002a0	8b 5d fc	 mov	 ebx, DWORD PTR _this$1$[ebp]
  002a3	c6 41 0c 00	 mov	 BYTE PTR [ecx+12], 0
$LN2@Extract:
  002a7	8b 03		 mov	 eax, DWORD PTR [ebx]
  002a9	8b 4d f4	 mov	 ecx, DWORD PTR tv1093[ebp]
  002ac	8b f9		 mov	 edi, ecx
  002ae	8b 32		 mov	 esi, DWORD PTR [edx]
  002b0	3b 48 04	 cmp	 ecx, DWORD PTR [eax+4]
  002b3	74 49		 je	 SHORT $LN3@Extract
  002b5	80 7f 0c 01	 cmp	 BYTE PTR [edi+12], 1
  002b9	89 75 f4	 mov	 DWORD PTR tv1093[ebp], esi
  002bc	0f 84 a1 fe ff
	ff		 je	 $LL4@Extract
  002c2	eb 3a		 jmp	 SHORT $LN3@Extract
$LN98@Extract:

; 640  :                         _Pnode->_Color = _Red;
; 641  :                         _Fixnode       = _Fixnodeparent;
; 642  :                     } else { // must rearrange left subtree
; 643  :                         if (_Pnode->_Left->_Color == _Black) { // rotate red up from right sub-subtree

  002c4	8b 01		 mov	 eax, DWORD PTR [ecx]
  002c6	80 78 0c 01	 cmp	 BYTE PTR [eax+12], 1
  002ca	75 17		 jne	 SHORT $LN101@Extract

; 644  :                             _Pnode->_Right->_Color = _Black;

  002cc	c6 43 0c 01	 mov	 BYTE PTR [ebx+12], 1

; 645  :                             _Pnode->_Color         = _Red;
; 646  :                             _Lrotate(_Pnode);

  002d0	8b 5d fc	 mov	 ebx, DWORD PTR _this$1$[ebp]
  002d3	c6 41 0c 00	 mov	 BYTE PTR [ecx+12], 0
  002d7	51		 push	 ecx
  002d8	8b cb		 mov	 ecx, ebx
  002da	e8 00 00 00 00	 call	 ?_Lrotate@?$_Tree_val@U?$_Tree_simple_types@U?$pair@$$CBKPAVCUser@@@std@@@std@@@std@@QAEXPAU?$_Tree_node@U?$pair@$$CBKPAVCUser@@@std@@PAX@2@@Z ; std::_Tree_val<std::_Tree_simple_types<std::pair<unsigned long const ,CUser *> > >::_Lrotate

; 647  :                             _Pnode = _Fixnodeparent->_Left;

  002df	8b 0e		 mov	 ecx, DWORD PTR [esi]
  002e1	eb 03		 jmp	 SHORT $LN39@Extract
$LN101@Extract:

; 640  :                         _Pnode->_Color = _Red;
; 641  :                         _Fixnode       = _Fixnodeparent;
; 642  :                     } else { // must rearrange left subtree
; 643  :                         if (_Pnode->_Left->_Color == _Black) { // rotate red up from right sub-subtree

  002e3	8b 5d fc	 mov	 ebx, DWORD PTR _this$1$[ebp]
$LN39@Extract:

; 648  :                         }
; 649  : 
; 650  :                         _Pnode->_Color         = _Fixnodeparent->_Color;

  002e6	8a 46 0c	 mov	 al, BYTE PTR [esi+12]
  002e9	88 41 0c	 mov	 BYTE PTR [ecx+12], al

; 651  :                         _Fixnodeparent->_Color = _Black;

  002ec	c6 46 0c 01	 mov	 BYTE PTR [esi+12], 1

; 652  :                         _Pnode->_Left->_Color  = _Black;

  002f0	8b 01		 mov	 eax, DWORD PTR [ecx]

; 653  :                         _Rrotate(_Fixnodeparent);

  002f2	8b cb		 mov	 ecx, ebx
  002f4	56		 push	 esi
  002f5	c6 40 0c 01	 mov	 BYTE PTR [eax+12], 1
  002f9	e8 00 00 00 00	 call	 ?_Rrotate@?$_Tree_val@U?$_Tree_simple_types@U?$pair@$$CBKPAVCUser@@@std@@@std@@@std@@QAEXPAU?$_Tree_node@U?$pair@$$CBKPAVCUser@@@std@@PAX@2@@Z ; std::_Tree_val<std::_Tree_simple_types<std::pair<unsigned long const ,CUser *> > >::_Rrotate
$LN3@Extract:

; 654  :                         break; // tree now recolored/rebalanced
; 655  :                     }
; 656  :                 }
; 657  :             }
; 658  : 
; 659  :             _Fixnode->_Color = _Black; // stopping node is black

  002fe	8b 45 f8	 mov	 eax, DWORD PTR __Erasednode$1$[ebp]
  00301	c6 47 0c 01	 mov	 BYTE PTR [edi+12], 1
$LN25@Extract:

; 660  :         }
; 661  : 
; 662  :         if (0 < _Mysize) {

  00305	8b 4b 04	 mov	 ecx, DWORD PTR [ebx+4]
  00308	85 c9		 test	 ecx, ecx
  0030a	74 04		 je	 SHORT $LN40@Extract

; 663  :             --_Mysize;

  0030c	49		 dec	 ecx
  0030d	89 4b 04	 mov	 DWORD PTR [ebx+4], ecx
$LN40@Extract:

; 664  :         }
; 665  : 
; 666  :         return _Erasednode;
; 667  :     }

  00310	5f		 pop	 edi
  00311	5e		 pop	 esi
  00312	5b		 pop	 ebx
  00313	8b e5		 mov	 esp, ebp
  00315	5d		 pop	 ebp
  00316	c2 04 00	 ret	 4
?_Extract@?$_Tree_val@U?$_Tree_simple_types@U?$pair@$$CBKPAVCUser@@@std@@@std@@@std@@QAEPAU?$_Tree_node@U?$pair@$$CBKPAVCUser@@@std@@PAX@2@V?$_Tree_unchecked_const_iterator@V?$_Tree_val@U?$_Tree_simple_types@U?$pair@$$CBKPAVCUser@@@std@@@std@@@std@@U_Iterator_base0@2@@2@@Z ENDP ; std::_Tree_val<std::_Tree_simple_types<std::pair<unsigned long const ,CUser *> > >::_Extract
_TEXT	ENDS
; Function compile flags: /Ogtp
; File C:\Program Files\Microsoft Visual Studio\2022\Professional\VC\Tools\MSVC\14.44.35207\include\xtree
;	COMDAT ?_Rrotate@?$_Tree_val@U?$_Tree_simple_types@U?$pair@$$CBKPAVCUser@@@std@@@std@@@std@@QAEXPAU?$_Tree_node@U?$pair@$$CBKPAVCUser@@@std@@PAX@2@@Z
_TEXT	SEGMENT
__Wherenode$ = 8					; size = 4
?_Rrotate@?$_Tree_val@U?$_Tree_simple_types@U?$pair@$$CBKPAVCUser@@@std@@@std@@@std@@QAEXPAU?$_Tree_node@U?$pair@$$CBKPAVCUser@@@std@@PAX@2@@Z PROC ; std::_Tree_val<std::_Tree_simple_types<std::pair<unsigned long const ,CUser *> > >::_Rrotate, COMDAT
; _this$ = ecx

; 505  :     void _Rrotate(_Nodeptr _Wherenode) noexcept { // promote left node to root of subtree

  00000	55		 push	 ebp
  00001	8b ec		 mov	 ebp, esp

; 506  :         _Nodeptr _Pnode   = _Wherenode->_Left;

  00003	8b 55 08	 mov	 edx, DWORD PTR __Wherenode$[ebp]
  00006	56		 push	 esi
  00007	8b 32		 mov	 esi, DWORD PTR [edx]

; 507  :         _Wherenode->_Left = _Pnode->_Right;

  00009	8b 46 08	 mov	 eax, DWORD PTR [esi+8]
  0000c	89 02		 mov	 DWORD PTR [edx], eax

; 508  : 
; 509  :         if (!_Pnode->_Right->_Isnil) {

  0000e	8b 46 08	 mov	 eax, DWORD PTR [esi+8]
  00011	80 78 0d 00	 cmp	 BYTE PTR [eax+13], 0
  00015	75 03		 jne	 SHORT $LN2@Rrotate

; 510  :             _Pnode->_Right->_Parent = _Wherenode;

  00017	89 50 04	 mov	 DWORD PTR [eax+4], edx
$LN2@Rrotate:

; 511  :         }
; 512  : 
; 513  :         _Pnode->_Parent = _Wherenode->_Parent;

  0001a	8b 42 04	 mov	 eax, DWORD PTR [edx+4]
  0001d	89 46 04	 mov	 DWORD PTR [esi+4], eax

; 514  : 
; 515  :         if (_Wherenode == _Myhead->_Parent) {

  00020	8b 01		 mov	 eax, DWORD PTR [ecx]
  00022	3b 50 04	 cmp	 edx, DWORD PTR [eax+4]
  00025	75 0e		 jne	 SHORT $LN3@Rrotate

; 516  :             _Myhead->_Parent = _Pnode;

  00027	89 70 04	 mov	 DWORD PTR [eax+4], esi

; 521  :         }
; 522  : 
; 523  :         _Pnode->_Right      = _Wherenode;
; 524  :         _Wherenode->_Parent = _Pnode;
; 525  :     }

  0002a	89 56 08	 mov	 DWORD PTR [esi+8], edx
  0002d	89 72 04	 mov	 DWORD PTR [edx+4], esi
  00030	5e		 pop	 esi
  00031	5d		 pop	 ebp
  00032	c2 04 00	 ret	 4
$LN3@Rrotate:

; 517  :         } else if (_Wherenode == _Wherenode->_Parent->_Right) {

  00035	8b 42 04	 mov	 eax, DWORD PTR [edx+4]
  00038	3b 50 08	 cmp	 edx, DWORD PTR [eax+8]
  0003b	75 0e		 jne	 SHORT $LN5@Rrotate

; 518  :             _Wherenode->_Parent->_Right = _Pnode;

  0003d	89 70 08	 mov	 DWORD PTR [eax+8], esi

; 521  :         }
; 522  : 
; 523  :         _Pnode->_Right      = _Wherenode;
; 524  :         _Wherenode->_Parent = _Pnode;
; 525  :     }

  00040	89 56 08	 mov	 DWORD PTR [esi+8], edx
  00043	89 72 04	 mov	 DWORD PTR [edx+4], esi
  00046	5e		 pop	 esi
  00047	5d		 pop	 ebp
  00048	c2 04 00	 ret	 4
$LN5@Rrotate:

; 519  :         } else {
; 520  :             _Wherenode->_Parent->_Left = _Pnode;

  0004b	89 30		 mov	 DWORD PTR [eax], esi

; 521  :         }
; 522  : 
; 523  :         _Pnode->_Right      = _Wherenode;
; 524  :         _Wherenode->_Parent = _Pnode;
; 525  :     }

  0004d	89 56 08	 mov	 DWORD PTR [esi+8], edx
  00050	89 72 04	 mov	 DWORD PTR [edx+4], esi
  00053	5e		 pop	 esi
  00054	5d		 pop	 ebp
  00055	c2 04 00	 ret	 4
?_Rrotate@?$_Tree_val@U?$_Tree_simple_types@U?$pair@$$CBKPAVCUser@@@std@@@std@@@std@@QAEXPAU?$_Tree_node@U?$pair@$$CBKPAVCUser@@@std@@PAX@2@@Z ENDP ; std::_Tree_val<std::_Tree_simple_types<std::pair<unsigned long const ,CUser *> > >::_Rrotate
_TEXT	ENDS
; Function compile flags: /Ogtp
; File C:\Program Files\Microsoft Visual Studio\2022\Professional\VC\Tools\MSVC\14.44.35207\include\xtree
;	COMDAT ?_Lrotate@?$_Tree_val@U?$_Tree_simple_types@U?$pair@$$CBKPAVCUser@@@std@@@std@@@std@@QAEXPAU?$_Tree_node@U?$pair@$$CBKPAVCUser@@@std@@PAX@2@@Z
_TEXT	SEGMENT
__Wherenode$ = 8					; size = 4
?_Lrotate@?$_Tree_val@U?$_Tree_simple_types@U?$pair@$$CBKPAVCUser@@@std@@@std@@@std@@QAEXPAU?$_Tree_node@U?$pair@$$CBKPAVCUser@@@std@@PAX@2@@Z PROC ; std::_Tree_val<std::_Tree_simple_types<std::pair<unsigned long const ,CUser *> > >::_Lrotate, COMDAT
; _this$ = ecx

; 483  :     void _Lrotate(_Nodeptr _Wherenode) noexcept { // promote right node to root of subtree

  00000	55		 push	 ebp
  00001	8b ec		 mov	 ebp, esp

; 484  :         _Nodeptr _Pnode    = _Wherenode->_Right;

  00003	8b 55 08	 mov	 edx, DWORD PTR __Wherenode$[ebp]
  00006	56		 push	 esi
  00007	8b 72 08	 mov	 esi, DWORD PTR [edx+8]

; 485  :         _Wherenode->_Right = _Pnode->_Left;

  0000a	8b 06		 mov	 eax, DWORD PTR [esi]
  0000c	89 42 08	 mov	 DWORD PTR [edx+8], eax

; 486  : 
; 487  :         if (!_Pnode->_Left->_Isnil) {

  0000f	8b 06		 mov	 eax, DWORD PTR [esi]
  00011	80 78 0d 00	 cmp	 BYTE PTR [eax+13], 0
  00015	75 03		 jne	 SHORT $LN2@Lrotate

; 488  :             _Pnode->_Left->_Parent = _Wherenode;

  00017	89 50 04	 mov	 DWORD PTR [eax+4], edx
$LN2@Lrotate:

; 489  :         }
; 490  : 
; 491  :         _Pnode->_Parent = _Wherenode->_Parent;

  0001a	8b 42 04	 mov	 eax, DWORD PTR [edx+4]
  0001d	89 46 04	 mov	 DWORD PTR [esi+4], eax

; 492  : 
; 493  :         if (_Wherenode == _Myhead->_Parent) {

  00020	8b 01		 mov	 eax, DWORD PTR [ecx]
  00022	3b 50 04	 cmp	 edx, DWORD PTR [eax+4]
  00025	75 0d		 jne	 SHORT $LN3@Lrotate

; 494  :             _Myhead->_Parent = _Pnode;

  00027	89 70 04	 mov	 DWORD PTR [eax+4], esi

; 499  :         }
; 500  : 
; 501  :         _Pnode->_Left       = _Wherenode;
; 502  :         _Wherenode->_Parent = _Pnode;
; 503  :     }

  0002a	89 16		 mov	 DWORD PTR [esi], edx
  0002c	89 72 04	 mov	 DWORD PTR [edx+4], esi
  0002f	5e		 pop	 esi
  00030	5d		 pop	 ebp
  00031	c2 04 00	 ret	 4
$LN3@Lrotate:

; 495  :         } else if (_Wherenode == _Wherenode->_Parent->_Left) {

  00034	8b 42 04	 mov	 eax, DWORD PTR [edx+4]
  00037	3b 10		 cmp	 edx, DWORD PTR [eax]
  00039	75 0c		 jne	 SHORT $LN5@Lrotate

; 496  :             _Wherenode->_Parent->_Left = _Pnode;

  0003b	89 30		 mov	 DWORD PTR [eax], esi

; 499  :         }
; 500  : 
; 501  :         _Pnode->_Left       = _Wherenode;
; 502  :         _Wherenode->_Parent = _Pnode;
; 503  :     }

  0003d	89 16		 mov	 DWORD PTR [esi], edx
  0003f	89 72 04	 mov	 DWORD PTR [edx+4], esi
  00042	5e		 pop	 esi
  00043	5d		 pop	 ebp
  00044	c2 04 00	 ret	 4
$LN5@Lrotate:

; 497  :         } else {
; 498  :             _Wherenode->_Parent->_Right = _Pnode;

  00047	89 70 08	 mov	 DWORD PTR [eax+8], esi

; 499  :         }
; 500  : 
; 501  :         _Pnode->_Left       = _Wherenode;
; 502  :         _Wherenode->_Parent = _Pnode;
; 503  :     }

  0004a	89 16		 mov	 DWORD PTR [esi], edx
  0004c	89 72 04	 mov	 DWORD PTR [edx+4], esi
  0004f	5e		 pop	 esi
  00050	5d		 pop	 ebp
  00051	c2 04 00	 ret	 4
?_Lrotate@?$_Tree_val@U?$_Tree_simple_types@U?$pair@$$CBKPAVCUser@@@std@@@std@@@std@@QAEXPAU?$_Tree_node@U?$pair@$$CBKPAVCUser@@@std@@PAX@2@@Z ENDP ; std::_Tree_val<std::_Tree_simple_types<std::pair<unsigned long const ,CUser *> > >::_Lrotate
_TEXT	ENDS
; Function compile flags: /Ogtp
; File C:\Program Files\Microsoft Visual Studio\2022\Professional\VC\Tools\MSVC\14.44.35207\include\xtree
; File C:\Program Files\Microsoft Visual Studio\2022\Professional\VC\Tools\MSVC\14.44.35207\include\type_traits
; File C:\Program Files\Microsoft Visual Studio\2022\Professional\VC\Tools\MSVC\14.44.35207\include\xtree
; File C:\Program Files\Microsoft Visual Studio\2022\Professional\VC\Tools\MSVC\14.44.35207\include\type_traits
; File C:\Program Files\Microsoft Visual Studio\2022\Professional\VC\Tools\MSVC\14.44.35207\include\xtree
; File C:\Program Files\Microsoft Visual Studio\2022\Professional\VC\Tools\MSVC\14.44.35207\include\type_traits
; File C:\Program Files\Microsoft Visual Studio\2022\Professional\VC\Tools\MSVC\14.44.35207\include\xtree
; File C:\Program Files\Microsoft Visual Studio\2022\Professional\VC\Tools\MSVC\14.44.35207\include\xutility
; File C:\Program Files\Microsoft Visual Studio\2022\Professional\VC\Tools\MSVC\14.44.35207\include\xtree
; File C:\Program Files\Microsoft Visual Studio\2022\Professional\VC\Tools\MSVC\14.44.35207\include\xutility
; File C:\Program Files\Microsoft Visual Studio\2022\Professional\VC\Tools\MSVC\14.44.35207\include\xtree
; File C:\Program Files\Microsoft Visual Studio\2022\Professional\VC\Tools\MSVC\14.44.35207\include\xutility
; File C:\Program Files\Microsoft Visual Studio\2022\Professional\VC\Tools\MSVC\14.44.35207\include\xtree
; File C:\Program Files\Microsoft Visual Studio\2022\Professional\VC\Tools\MSVC\14.44.35207\include\xutility
; File C:\Program Files\Microsoft Visual Studio\2022\Professional\VC\Tools\MSVC\14.44.35207\include\xtree
; File C:\Program Files\Microsoft Visual Studio\2022\Professional\VC\Tools\MSVC\14.44.35207\include\utility
; File C:\Program Files\Microsoft Visual Studio\2022\Professional\VC\Tools\MSVC\14.44.35207\include\xmemory
; File C:\Program Files\Microsoft Visual Studio\2022\Professional\VC\Tools\MSVC\14.44.35207\include\xtree
; File C:\Program Files\Microsoft Visual Studio\2022\Professional\VC\Tools\MSVC\14.44.35207\include\xmemory
; File C:\Program Files\Microsoft Visual Studio\2022\Professional\VC\Tools\MSVC\14.44.35207\include\xtree
; File C:\Program Files\Microsoft Visual Studio\2022\Professional\VC\Tools\MSVC\14.44.35207\include\xmemory
; File C:\Program Files\Microsoft Visual Studio\2022\Professional\VC\Tools\MSVC\14.44.35207\include\xtree
;	COMDAT ?erase@?$_Tree@V?$_Tmap_traits@KPAVCUser@@U?$less@K@std@@V?$allocator@U?$pair@$$CBKPAVCUser@@@std@@@3@$0A@@std@@@std@@QAEIABK@Z
_TEXT	SEGMENT
__First$ = -16						; size = 4
__Rootnode$1$ = -16					; size = 4
__Head$1$ = -12						; size = 4
_this$1$ = -8						; size = 4
tv820 = -1						; size = 1
__Keyval$ = 8						; size = 4
__Off$1$ = 8						; size = 4
?erase@?$_Tree@V?$_Tmap_traits@KPAVCUser@@U?$less@K@std@@V?$allocator@U?$pair@$$CBKPAVCUser@@@std@@@3@$0A@@std@@@std@@QAEIABK@Z PROC ; std::_Tree<std::_Tmap_traits<unsigned long,CUser *,std::less<unsigned long>,std::allocator<std::pair<unsigned long const ,CUser *> >,0> >::erase, COMDAT
; _this$ = ecx

; 1357 :     size_type erase(const key_type& _Keyval) noexcept(noexcept(_Eqrange(_Keyval))) /* strengthened */ {

  00000	55		 push	 ebp
  00001	8b ec		 mov	 ebp, esp
  00003	83 ec 10	 sub	 esp, 16			; 00000010H
  00006	8b c1		 mov	 eax, ecx
  00008	53		 push	 ebx
  00009	56		 push	 esi
  0000a	57		 push	 edi

; 1709 :         _Nodeptr _Pnode   = _Scary->_Myhead->_Parent;

  0000b	8b 38		 mov	 edi, DWORD PTR [eax]

; 1710 :         _Nodeptr _Lonode  = _Scary->_Myhead; // end() if search fails

  0000d	8b f7		 mov	 esi, edi

; 1357 :     size_type erase(const key_type& _Keyval) noexcept(noexcept(_Eqrange(_Keyval))) /* strengthened */ {

  0000f	89 45 f8	 mov	 DWORD PTR _this$1$[ebp], eax

; 1709 :         _Nodeptr _Pnode   = _Scary->_Myhead->_Parent;

  00012	89 7d f4	 mov	 DWORD PTR __Head$1$[ebp], edi
  00015	8b 5f 04	 mov	 ebx, DWORD PTR [edi+4]
  00018	8b c3		 mov	 eax, ebx
  0001a	89 5d f0	 mov	 DWORD PTR __Rootnode$1$[ebp], ebx

; 1711 :         _Nodeptr _Hinode  = _Scary->_Myhead; // end() if search fails
; 1712 : 
; 1713 :         while (!_Pnode->_Isnil) {

  0001d	8a 48 0d	 mov	 cl, BYTE PTR [eax+13]
  00020	88 4d ff	 mov	 BYTE PTR tv820[ebp], cl
  00023	84 c9		 test	 cl, cl
  00025	75 2a		 jne	 SHORT $LN6@erase
; File C:\Program Files\Microsoft Visual Studio\2022\Professional\VC\Tools\MSVC\14.44.35207\include\type_traits

; 2380 :         return _Left < _Right;

  00027	8b 55 08	 mov	 edx, DWORD PTR __Keyval$[ebp]
  0002a	8b 12		 mov	 edx, DWORD PTR [edx]
  0002c	0f 1f 40 00	 npad	 4
$LL5@erase:
  00030	8b 48 10	 mov	 ecx, DWORD PTR [eax+16]
  00033	3b ca		 cmp	 ecx, edx
; File C:\Program Files\Microsoft Visual Studio\2022\Professional\VC\Tools\MSVC\14.44.35207\include\xtree

; 1715 :             if (_DEBUG_LT_PRED(_Comp, _Nodekey, _Keyval)) {

  00035	73 05		 jae	 SHORT $LN9@erase

; 1716 :                 _Pnode = _Pnode->_Right; // descend right subtree

  00037	8b 40 08	 mov	 eax, DWORD PTR [eax+8]

; 1717 :             } else { // _Pnode not less than _Keyval, remember it

  0003a	eb 0f		 jmp	 SHORT $LN10@erase
$LN9@erase:

; 1718 :                 if (_Hinode->_Isnil && _DEBUG_LT_PRED(_Comp, _Keyval, _Nodekey)) {

  0003c	80 7f 0d 00	 cmp	 BYTE PTR [edi+13], 0
  00040	74 05		 je	 SHORT $LN11@erase
; File C:\Program Files\Microsoft Visual Studio\2022\Professional\VC\Tools\MSVC\14.44.35207\include\type_traits

; 2380 :         return _Left < _Right;

  00042	3b d1		 cmp	 edx, ecx
; File C:\Program Files\Microsoft Visual Studio\2022\Professional\VC\Tools\MSVC\14.44.35207\include\xtree

; 1718 :                 if (_Hinode->_Isnil && _DEBUG_LT_PRED(_Comp, _Keyval, _Nodekey)) {

  00044	0f 42 f8	 cmovb	 edi, eax
$LN11@erase:

; 1719 :                     _Hinode = _Pnode; // _Pnode greater, remember it
; 1720 :                 }
; 1721 : 
; 1722 :                 _Lonode = _Pnode;

  00047	8b f0		 mov	 esi, eax

; 1723 :                 _Pnode  = _Pnode->_Left; // descend left subtree

  00049	8b 00		 mov	 eax, DWORD PTR [eax]
$LN10@erase:

; 1711 :         _Nodeptr _Hinode  = _Scary->_Myhead; // end() if search fails
; 1712 : 
; 1713 :         while (!_Pnode->_Isnil) {

  0004b	80 78 0d 00	 cmp	 BYTE PTR [eax+13], 0
  0004f	74 df		 je	 SHORT $LL5@erase
$LN6@erase:

; 1724 :             }
; 1725 :         }
; 1726 : 
; 1727 :         _Pnode = _Hinode->_Isnil ? _Scary->_Myhead->_Parent : _Hinode->_Left; // continue scan for upper bound

  00051	80 7f 0d 00	 cmp	 BYTE PTR [edi+13], 0
  00055	8b c3		 mov	 eax, ebx
  00057	75 02		 jne	 SHORT $LN16@erase
  00059	8b 07		 mov	 eax, DWORD PTR [edi]
$LN16@erase:

; 1728 :         while (!_Pnode->_Isnil) {

  0005b	80 78 0d 00	 cmp	 BYTE PTR [eax+13], 0
  0005f	75 19		 jne	 SHORT $LN8@erase
; File C:\Program Files\Microsoft Visual Studio\2022\Professional\VC\Tools\MSVC\14.44.35207\include\type_traits

; 2380 :         return _Left < _Right;

  00061	8b 4d 08	 mov	 ecx, DWORD PTR __Keyval$[ebp]
  00064	8b 09		 mov	 ecx, DWORD PTR [ecx]
$LL7@erase:
  00066	3b 48 10	 cmp	 ecx, DWORD PTR [eax+16]
; File C:\Program Files\Microsoft Visual Studio\2022\Professional\VC\Tools\MSVC\14.44.35207\include\xtree

; 1729 :             if (_DEBUG_LT_PRED(_Getcomp(), _Keyval, _Traits::_Kfn(_Pnode->_Myval))) {

  00069	73 06		 jae	 SHORT $LN12@erase

; 1730 :                 // _Pnode greater than _Keyval, remember it
; 1731 :                 _Hinode = _Pnode;

  0006b	8b f8		 mov	 edi, eax

; 1732 :                 _Pnode  = _Pnode->_Left; // descend left subtree

  0006d	8b 00		 mov	 eax, DWORD PTR [eax]

; 1733 :             } else {

  0006f	eb 03		 jmp	 SHORT $LN13@erase
$LN12@erase:

; 1734 :                 _Pnode = _Pnode->_Right; // descend right subtree

  00071	8b 40 08	 mov	 eax, DWORD PTR [eax+8]
$LN13@erase:

; 1728 :         while (!_Pnode->_Isnil) {

  00074	80 78 0d 00	 cmp	 BYTE PTR [eax+13], 0
  00078	74 ec		 je	 SHORT $LL7@erase
$LN8@erase:
; File C:\Program Files\Microsoft Visual Studio\2022\Professional\VC\Tools\MSVC\14.44.35207\include\xutility

; 1667 :         _Iter_diff_t<_InIt> _Off = 0;

  0007a	33 c9		 xor	 ecx, ecx
  0007c	8b c6		 mov	 eax, esi
  0007e	89 4d 08	 mov	 DWORD PTR __Off$1$[ebp], ecx
; File C:\Program Files\Microsoft Visual Studio\2022\Professional\VC\Tools\MSVC\14.44.35207\include\xtree

; 101  :         return !(*this == _Right);

  00081	3b f7		 cmp	 esi, edi
; File C:\Program Files\Microsoft Visual Studio\2022\Professional\VC\Tools\MSVC\14.44.35207\include\xutility

; 1668 :         for (; _UFirst != _ULast; ++_UFirst) {

  00083	74 54		 je	 SHORT $LN41@erase
  00085	33 db		 xor	 ebx, ebx
$LL42@erase:
; File C:\Program Files\Microsoft Visual Studio\2022\Professional\VC\Tools\MSVC\14.44.35207\include\xtree

; 50   :         if (_Ptr->_Right->_Isnil) { // climb looking for right subtree

  00087	8b 48 08	 mov	 ecx, DWORD PTR [eax+8]
; File C:\Program Files\Microsoft Visual Studio\2022\Professional\VC\Tools\MSVC\14.44.35207\include\xutility

; 1669 :             ++_Off;

  0008a	43		 inc	 ebx
; File C:\Program Files\Microsoft Visual Studio\2022\Professional\VC\Tools\MSVC\14.44.35207\include\xtree

; 50   :         if (_Ptr->_Right->_Isnil) { // climb looking for right subtree

  0008b	80 79 0d 00	 cmp	 BYTE PTR [ecx+13], 0
  0008f	74 23		 je	 SHORT $LN47@erase

; 51   :             _Nodeptr _Pnode;
; 52   :             while (!(_Pnode = _Ptr->_Parent)->_Isnil && _Ptr == _Pnode->_Right) {

  00091	8b 48 04	 mov	 ecx, DWORD PTR [eax+4]
  00094	80 79 0d 00	 cmp	 BYTE PTR [ecx+13], 0
  00098	75 16		 jne	 SHORT $LN182@erase
  0009a	66 0f 1f 44 00
	00		 npad	 6
$LL45@erase:
  000a0	3b 41 08	 cmp	 eax, DWORD PTR [ecx+8]
  000a3	75 0b		 jne	 SHORT $LN182@erase

; 53   :                 _Ptr = _Pnode; // ==> parent while right subtree

  000a5	8b c1		 mov	 eax, ecx
  000a7	8b 49 04	 mov	 ecx, DWORD PTR [ecx+4]
  000aa	80 79 0d 00	 cmp	 BYTE PTR [ecx+13], 0
  000ae	74 f0		 je	 SHORT $LL45@erase
$LN182@erase:

; 54   :             }
; 55   : 
; 56   :             _Ptr = _Pnode; // ==> parent (head if end())

  000b0	8b c1		 mov	 eax, ecx

; 57   :         } else {

  000b2	eb 18		 jmp	 SHORT $LN53@erase
$LN47@erase:

; 58   :             _Ptr = _Mytree::_Min(_Ptr->_Right); // ==> smallest of right subtree

  000b4	8b c1		 mov	 eax, ecx

; 476  :         while (!_Pnode->_Left->_Isnil) {

  000b6	8b 10		 mov	 edx, DWORD PTR [eax]
  000b8	80 7a 0d 00	 cmp	 BYTE PTR [edx+13], 0
  000bc	75 0e		 jne	 SHORT $LN53@erase
  000be	66 90		 npad	 2
$LL52@erase:
  000c0	8b 0a		 mov	 ecx, DWORD PTR [edx]

; 477  :             _Pnode = _Pnode->_Left;

  000c2	8b c2		 mov	 eax, edx
  000c4	8b d1		 mov	 edx, ecx
  000c6	80 79 0d 00	 cmp	 BYTE PTR [ecx+13], 0
  000ca	74 f4		 je	 SHORT $LL52@erase
$LN53@erase:

; 101  :         return !(*this == _Right);

  000cc	3b c7		 cmp	 eax, edi
; File C:\Program Files\Microsoft Visual Studio\2022\Professional\VC\Tools\MSVC\14.44.35207\include\xutility

; 1668 :         for (; _UFirst != _ULast; ++_UFirst) {

  000ce	75 b7		 jne	 SHORT $LL42@erase
  000d0	89 5d 08	 mov	 DWORD PTR __Off$1$[ebp], ebx
  000d3	8b 5d f0	 mov	 ebx, DWORD PTR __Rootnode$1$[ebp]
  000d6	8b 4d 08	 mov	 ecx, DWORD PTR __Off$1$[ebp]
$LN41@erase:
; File C:\Program Files\Microsoft Visual Studio\2022\Professional\VC\Tools\MSVC\14.44.35207\include\xtree

; 96   :         return _Ptr == _Right._Ptr;

  000d9	8b 45 f4	 mov	 eax, DWORD PTR __Head$1$[ebp]

; 1329 :         _Erase_unchecked(_First, _Last);

  000dc	89 75 f0	 mov	 DWORD PTR __First$[ebp], esi

; 96   :         return _Ptr == _Right._Ptr;

  000df	3b 30		 cmp	 esi, DWORD PTR [eax]

; 1311 :         if (_First == _Begin && _Last._Ptr->_Isnil) {

  000e1	75 51		 jne	 SHORT $LN157@erase
  000e3	80 7f 0d 00	 cmp	 BYTE PTR [edi+13], 0
  000e7	74 4b		 je	 SHORT $LN157@erase

; 768  :         while (!_Rootnode->_Isnil) { // free subtrees, then node

  000e9	80 7d ff 00	 cmp	 BYTE PTR tv820[ebp], 0
  000ed	75 27		 jne	 SHORT $LN165@erase
  000ef	90		 npad	 1
$LL84@erase:

; 769  :             _Erase_tree(_Al, _Rootnode->_Right);

  000f0	ff 73 08	 push	 DWORD PTR [ebx+8]
  000f3	8b 45 f8	 mov	 eax, DWORD PTR _this$1$[ebp]
  000f6	8b c8		 mov	 ecx, eax
  000f8	50		 push	 eax
  000f9	e8 00 00 00 00	 call	 ??$_Erase_tree@V?$allocator@U?$_Tree_node@U?$pair@$$CBKPAVCUser@@@std@@PAX@std@@@std@@@?$_Tree_val@U?$_Tree_simple_types@U?$pair@$$CBKPAVCUser@@@std@@@std@@@std@@QAEXAAV?$allocator@U?$_Tree_node@U?$pair@$$CBKPAVCUser@@@std@@PAX@std@@@1@PAU?$_Tree_node@U?$pair@$$CBKPAVCUser@@@std@@PAX@1@@Z ; std::_Tree_val<std::_Tree_simple_types<std::pair<unsigned long const ,CUser *> > >::_Erase_tree<std::allocator<std::_Tree_node<std::pair<unsigned long const ,CUser *>,void *> > >
; File C:\Program Files\Microsoft Visual Studio\2022\Professional\VC\Tools\MSVC\14.44.35207\include\utility

; 773  :     _Ty _Old_val = static_cast<_Ty&&>(_Val);

  000fe	8b c3		 mov	 eax, ebx

; 774  :     _Val         = static_cast<_Other&&>(_New_val);

  00100	8b 1b		 mov	 ebx, DWORD PTR [ebx]
; File C:\Program Files\Microsoft Visual Studio\2022\Professional\VC\Tools\MSVC\14.44.35207\include\xmemory

; 289  :         ::operator delete(_Ptr, _Bytes);

  00102	6a 18		 push	 24			; 00000018H
  00104	50		 push	 eax
  00105	e8 00 00 00 00	 call	 ??3@YAXPAXI@Z		; operator delete
  0010a	83 c4 08	 add	 esp, 8
; File C:\Program Files\Microsoft Visual Studio\2022\Professional\VC\Tools\MSVC\14.44.35207\include\xtree

; 768  :         while (!_Rootnode->_Isnil) { // free subtrees, then node

  0010d	80 7b 0d 00	 cmp	 BYTE PTR [ebx+13], 0
  00111	74 dd		 je	 SHORT $LL84@erase
  00113	8b 45 f4	 mov	 eax, DWORD PTR __Head$1$[ebp]
$LN165@erase:

; 1378 :         _Scary->_Mysize = 0;

  00116	8b 5d f8	 mov	 ebx, DWORD PTR _this$1$[ebp]
  00119	5f		 pop	 edi

; 1360 : 
; 1361 : #if _HAS_CXX23
; 1362 :     template <class _Kx>
; 1363 :         requires _Is_transparent_v<key_compare> && (!is_convertible_v<_Kx, const_iterator>)
; 1364 :               && (!is_convertible_v<_Kx, iterator>)
; 1365 :     size_type erase(_Kx&& _Keyval) noexcept(noexcept(_Eqrange(_Keyval))) /* strengthened */ {
; 1366 :         return _Erase(_Eqrange(_Keyval));
; 1367 :     }
; 1368 : #endif // _HAS_CXX23
; 1369 : 
; 1370 :     void clear() noexcept {
; 1371 :         const auto _Scary = _Get_scary();
; 1372 :         _Scary->_Orphan_ptr(nullptr);
; 1373 :         auto _Head = _Scary->_Myhead;
; 1374 :         _Scary->_Erase_tree(_Getal(), _Head->_Parent);
; 1375 :         _Head->_Parent  = _Head;

  0011a	89 40 04	 mov	 DWORD PTR [eax+4], eax

; 1376 :         _Head->_Left    = _Head;

  0011d	89 00		 mov	 DWORD PTR [eax], eax

; 1377 :         _Head->_Right   = _Head;

  0011f	89 40 08	 mov	 DWORD PTR [eax+8], eax

; 1358 :         return _Erase(_Eqrange(_Keyval));

  00122	8b 45 08	 mov	 eax, DWORD PTR __Off$1$[ebp]

; 1359 :     }

  00125	5e		 pop	 esi

; 1378 :         _Scary->_Mysize = 0;

  00126	c7 43 04 00 00
	00 00		 mov	 DWORD PTR [ebx+4], 0

; 1359 :     }

  0012d	5b		 pop	 ebx
  0012e	8b e5		 mov	 esp, ebp
  00130	5d		 pop	 ebp
  00131	c2 04 00	 ret	 4
$LN157@erase:

; 101  :         return !(*this == _Right);

  00134	3b f7		 cmp	 esi, edi

; 1318 :         while (_First != _Last) {

  00136	74 36		 je	 SHORT $LN181@erase
  00138	8b 5d f8	 mov	 ebx, DWORD PTR _this$1$[ebp]
  0013b	0f 1f 44 00 00	 npad	 5
$LL63@erase:

; 66   :         ++*this;

  00140	8d 4d f0	 lea	 ecx, DWORD PTR __First$[ebp]
  00143	e8 00 00 00 00	 call	 ??E?$_Tree_unchecked_const_iterator@V?$_Tree_val@U?$_Tree_simple_types@U?$pair@$$CBKPAVCUser@@@std@@@std@@@std@@U_Iterator_base0@2@@std@@QAEAAV01@XZ ; std::_Tree_unchecked_const_iterator<std::_Tree_val<std::_Tree_simple_types<std::pair<unsigned long const ,CUser *> > >,std::_Iterator_base0>::operator++

; 1303 :         _Nodeptr _Erasednode = _Scary->_Extract(_Where); // node to erase

  00148	56		 push	 esi
  00149	8b cb		 mov	 ecx, ebx
  0014b	e8 00 00 00 00	 call	 ?_Extract@?$_Tree_val@U?$_Tree_simple_types@U?$pair@$$CBKPAVCUser@@@std@@@std@@@std@@QAEPAU?$_Tree_node@U?$pair@$$CBKPAVCUser@@@std@@PAX@2@V?$_Tree_unchecked_const_iterator@V?$_Tree_val@U?$_Tree_simple_types@U?$pair@$$CBKPAVCUser@@@std@@@std@@@std@@U_Iterator_base0@2@@2@@Z ; std::_Tree_val<std::_Tree_simple_types<std::pair<unsigned long const ,CUser *> > >::_Extract
; File C:\Program Files\Microsoft Visual Studio\2022\Professional\VC\Tools\MSVC\14.44.35207\include\xmemory

; 289  :         ::operator delete(_Ptr, _Bytes);

  00150	6a 18		 push	 24			; 00000018H
  00152	50		 push	 eax
  00153	e8 00 00 00 00	 call	 ??3@YAXPAXI@Z		; operator delete
; File C:\Program Files\Microsoft Visual Studio\2022\Professional\VC\Tools\MSVC\14.44.35207\include\xtree

; 101  :         return !(*this == _Right);

  00158	8b 75 f0	 mov	 esi, DWORD PTR __First$[ebp]
; File C:\Program Files\Microsoft Visual Studio\2022\Professional\VC\Tools\MSVC\14.44.35207\include\xmemory

; 289  :         ::operator delete(_Ptr, _Bytes);

  0015b	83 c4 08	 add	 esp, 8
; File C:\Program Files\Microsoft Visual Studio\2022\Professional\VC\Tools\MSVC\14.44.35207\include\xtree

; 101  :         return !(*this == _Right);

  0015e	3b f7		 cmp	 esi, edi

; 1318 :         while (_First != _Last) {

  00160	75 de		 jne	 SHORT $LL63@erase

; 1359 :     }

  00162	8b 45 08	 mov	 eax, DWORD PTR __Off$1$[ebp]
  00165	5f		 pop	 edi
  00166	5e		 pop	 esi
  00167	5b		 pop	 ebx
  00168	8b e5		 mov	 esp, ebp
  0016a	5d		 pop	 ebp
  0016b	c2 04 00	 ret	 4
$LN181@erase:
  0016e	5f		 pop	 edi
  0016f	5e		 pop	 esi
  00170	8b c1		 mov	 eax, ecx
  00172	5b		 pop	 ebx
  00173	8b e5		 mov	 esp, ebp
  00175	5d		 pop	 ebp
  00176	c2 04 00	 ret	 4
?erase@?$_Tree@V?$_Tmap_traits@KPAVCUser@@U?$less@K@std@@V?$allocator@U?$pair@$$CBKPAVCUser@@@std@@@3@$0A@@std@@@std@@QAEIABK@Z ENDP ; std::_Tree<std::_Tmap_traits<unsigned long,CUser *,std::less<unsigned long>,std::allocator<std::pair<unsigned long const ,CUser *> >,0> >::erase
_TEXT	ENDS
; Function compile flags: /Ogtp
; File C:\Program Files\Microsoft Visual Studio\2022\Professional\VC\Tools\MSVC\14.44.35207\include\xtree
;	COMDAT ?_Throw_tree_length_error@std@@YAXXZ
_TEXT	SEGMENT
?_Throw_tree_length_error@std@@YAXXZ PROC		; std::_Throw_tree_length_error, COMDAT

; 417  :     _Xlength_error("map/set too long");

  00000	68 00 00 00 00	 push	 OFFSET ??_C@_0BB@GCADKGJO@map?1set?5too?5long@
  00005	e8 00 00 00 00	 call	 ?_Xlength_error@std@@YAXPBD@Z ; std::_Xlength_error
$LN3@Throw_tree:
  0000a	cc		 int	 3
?_Throw_tree_length_error@std@@YAXXZ ENDP		; std::_Throw_tree_length_error
_TEXT	ENDS
; Function compile flags: /Ogtp
; File C:\Program Files\Microsoft Visual Studio\2022\Professional\VC\Tools\MSVC\14.44.35207\include\xmemory
;	COMDAT ?_Throw_bad_array_new_length@std@@YAXXZ
_TEXT	SEGMENT
$T1 = -12						; size = 12
?_Throw_bad_array_new_length@std@@YAXXZ PROC		; std::_Throw_bad_array_new_length, COMDAT

; 107  : [[noreturn]] inline void _Throw_bad_array_new_length() {

  00000	55		 push	 ebp
  00001	8b ec		 mov	 ebp, esp
  00003	83 ec 0c	 sub	 esp, 12			; 0000000cH

; 108  :     _THROW(bad_array_new_length{});

  00006	8d 4d f4	 lea	 ecx, DWORD PTR $T1[ebp]
  00009	e8 00 00 00 00	 call	 ??0bad_array_new_length@std@@QAE@XZ ; std::bad_array_new_length::bad_array_new_length
  0000e	68 00 00 00 00	 push	 OFFSET __TI3?AVbad_array_new_length@std@@
  00013	8d 45 f4	 lea	 eax, DWORD PTR $T1[ebp]
  00016	50		 push	 eax
  00017	e8 00 00 00 00	 call	 __CxxThrowException@8
$LN3@Throw_bad_:
  0001c	cc		 int	 3
?_Throw_bad_array_new_length@std@@YAXXZ ENDP		; std::_Throw_bad_array_new_length
_TEXT	ENDS
; Function compile flags: /Ogtp
; File C:\Program Files\Microsoft Visual Studio\2022\Professional\VC\Tools\MSVC\14.44.35207\include\vcruntime_exception.h
;	COMDAT ??_Gbad_array_new_length@std@@UAEPAXI@Z
_TEXT	SEGMENT
___flags$ = 8						; size = 4
??_Gbad_array_new_length@std@@UAEPAXI@Z PROC		; std::bad_array_new_length::`scalar deleting destructor', COMDAT
; _this$ = ecx
  00000	55		 push	 ebp
  00001	8b ec		 mov	 ebp, esp

; 90   :     {

  00003	56		 push	 esi
  00004	8b f1		 mov	 esi, ecx

; 91   :         __std_exception_destroy(&_Data);

  00006	8d 46 04	 lea	 eax, DWORD PTR [esi+4]
  00009	c7 06 00 00 00
	00		 mov	 DWORD PTR [esi], OFFSET ??_7exception@std@@6B@
  0000f	50		 push	 eax
  00010	e8 00 00 00 00	 call	 ___std_exception_destroy
  00015	83 c4 04	 add	 esp, 4
  00018	f6 45 08 01	 test	 BYTE PTR ___flags$[ebp], 1
  0001c	74 0b		 je	 SHORT $LN18@scalar
  0001e	6a 0c		 push	 12			; 0000000cH
  00020	56		 push	 esi
  00021	e8 00 00 00 00	 call	 ??3@YAXPAXI@Z		; operator delete
  00026	83 c4 08	 add	 esp, 8
$LN18@scalar:
  00029	8b c6		 mov	 eax, esi
  0002b	5e		 pop	 esi
  0002c	5d		 pop	 ebp
  0002d	c2 04 00	 ret	 4
??_Gbad_array_new_length@std@@UAEPAXI@Z ENDP		; std::bad_array_new_length::`scalar deleting destructor'
_TEXT	ENDS
; Function compile flags: /Ogtp
; File C:\Program Files\Microsoft Visual Studio\2022\Professional\VC\Tools\MSVC\14.44.35207\include\vcruntime_exception.h
;	COMDAT ??0bad_array_new_length@std@@QAE@ABV01@@Z
_TEXT	SEGMENT
___that$ = 8						; size = 4
??0bad_array_new_length@std@@QAE@ABV01@@Z PROC		; std::bad_array_new_length::bad_array_new_length, COMDAT
; _this$ = ecx
  00000	55		 push	 ebp
  00001	8b ec		 mov	 ebp, esp

; 73   :     {

  00003	56		 push	 esi
  00004	8b f1		 mov	 esi, ecx
  00006	0f 57 c0	 xorps	 xmm0, xmm0

; 72   :         : _Data()

  00009	8d 46 04	 lea	 eax, DWORD PTR [esi+4]

; 74   :         __std_exception_copy(&_Other._Data, &_Data);

  0000c	50		 push	 eax
  0000d	c7 06 00 00 00
	00		 mov	 DWORD PTR [esi], OFFSET ??_7exception@std@@6B@
  00013	66 0f d6 00	 movq	 QWORD PTR [eax], xmm0
  00017	8b 45 08	 mov	 eax, DWORD PTR ___that$[ebp]
  0001a	83 c0 04	 add	 eax, 4
  0001d	50		 push	 eax
  0001e	e8 00 00 00 00	 call	 ___std_exception_copy
  00023	83 c4 08	 add	 esp, 8
  00026	c7 06 00 00 00
	00		 mov	 DWORD PTR [esi], OFFSET ??_7bad_array_new_length@std@@6B@
  0002c	8b c6		 mov	 eax, esi
  0002e	5e		 pop	 esi
  0002f	5d		 pop	 ebp
  00030	c2 04 00	 ret	 4
??0bad_array_new_length@std@@QAE@ABV01@@Z ENDP		; std::bad_array_new_length::bad_array_new_length
_TEXT	ENDS
; Function compile flags: /Ogtp
; File C:\Program Files\Microsoft Visual Studio\2022\Professional\VC\Tools\MSVC\14.44.35207\include\vcruntime_exception.h
;	COMDAT ??1bad_array_new_length@std@@UAE@XZ
_TEXT	SEGMENT
??1bad_array_new_length@std@@UAE@XZ PROC		; std::bad_array_new_length::~bad_array_new_length, COMDAT
; _this$ = ecx

; 91   :         __std_exception_destroy(&_Data);

  00000	8d 41 04	 lea	 eax, DWORD PTR [ecx+4]
  00003	c7 01 00 00 00
	00		 mov	 DWORD PTR [ecx], OFFSET ??_7exception@std@@6B@
  00009	50		 push	 eax
  0000a	e8 00 00 00 00	 call	 ___std_exception_destroy
  0000f	59		 pop	 ecx
  00010	c3		 ret	 0
??1bad_array_new_length@std@@UAE@XZ ENDP		; std::bad_array_new_length::~bad_array_new_length
_TEXT	ENDS
; Function compile flags: /Ogtp
; File C:\Program Files\Microsoft Visual Studio\2022\Professional\VC\Tools\MSVC\14.44.35207\include\vcruntime_exception.h
;	COMDAT ??0bad_array_new_length@std@@QAE@XZ
_TEXT	SEGMENT
??0bad_array_new_length@std@@QAE@XZ PROC		; std::bad_array_new_length::bad_array_new_length, COMDAT
; _this$ = ecx

; 144  :     {

  00000	0f 57 c0	 xorps	 xmm0, xmm0

; 145  :     }

  00003	8b c1		 mov	 eax, ecx

; 66   :         : _Data()

  00005	66 0f d6 41 04	 movq	 QWORD PTR [ecx+4], xmm0

; 67   :     {
; 68   :         _Data._What = _Message;

  0000a	c7 41 04 00 00
	00 00		 mov	 DWORD PTR [ecx+4], OFFSET ??_C@_0BF@KINCDENJ@bad?5array?5new?5length@

; 144  :     {

  00011	c7 01 00 00 00
	00		 mov	 DWORD PTR [ecx], OFFSET ??_7bad_array_new_length@std@@6B@

; 145  :     }

  00017	c3		 ret	 0
??0bad_array_new_length@std@@QAE@XZ ENDP		; std::bad_array_new_length::bad_array_new_length
_TEXT	ENDS
; Function compile flags: /Ogtp
; File C:\Program Files\Microsoft Visual Studio\2022\Professional\VC\Tools\MSVC\14.44.35207\include\vcruntime_exception.h
;	COMDAT ??_Gbad_alloc@std@@UAEPAXI@Z
_TEXT	SEGMENT
___flags$ = 8						; size = 4
??_Gbad_alloc@std@@UAEPAXI@Z PROC			; std::bad_alloc::`scalar deleting destructor', COMDAT
; _this$ = ecx
  00000	55		 push	 ebp
  00001	8b ec		 mov	 ebp, esp

; 90   :     {

  00003	56		 push	 esi
  00004	8b f1		 mov	 esi, ecx

; 91   :         __std_exception_destroy(&_Data);

  00006	8d 46 04	 lea	 eax, DWORD PTR [esi+4]
  00009	c7 06 00 00 00
	00		 mov	 DWORD PTR [esi], OFFSET ??_7exception@std@@6B@
  0000f	50		 push	 eax
  00010	e8 00 00 00 00	 call	 ___std_exception_destroy
  00015	83 c4 04	 add	 esp, 4
  00018	f6 45 08 01	 test	 BYTE PTR ___flags$[ebp], 1
  0001c	74 0b		 je	 SHORT $LN13@scalar
  0001e	6a 0c		 push	 12			; 0000000cH
  00020	56		 push	 esi
  00021	e8 00 00 00 00	 call	 ??3@YAXPAXI@Z		; operator delete
  00026	83 c4 08	 add	 esp, 8
$LN13@scalar:
  00029	8b c6		 mov	 eax, esi
  0002b	5e		 pop	 esi
  0002c	5d		 pop	 ebp
  0002d	c2 04 00	 ret	 4
??_Gbad_alloc@std@@UAEPAXI@Z ENDP			; std::bad_alloc::`scalar deleting destructor'
_TEXT	ENDS
; Function compile flags: /Ogtp
; File C:\Program Files\Microsoft Visual Studio\2022\Professional\VC\Tools\MSVC\14.44.35207\include\vcruntime_exception.h
;	COMDAT ??0bad_alloc@std@@QAE@ABV01@@Z
_TEXT	SEGMENT
___that$ = 8						; size = 4
??0bad_alloc@std@@QAE@ABV01@@Z PROC			; std::bad_alloc::bad_alloc, COMDAT
; _this$ = ecx
  00000	55		 push	 ebp
  00001	8b ec		 mov	 ebp, esp

; 73   :     {

  00003	56		 push	 esi
  00004	8b f1		 mov	 esi, ecx
  00006	0f 57 c0	 xorps	 xmm0, xmm0

; 72   :         : _Data()

  00009	8d 46 04	 lea	 eax, DWORD PTR [esi+4]

; 74   :         __std_exception_copy(&_Other._Data, &_Data);

  0000c	50		 push	 eax
  0000d	c7 06 00 00 00
	00		 mov	 DWORD PTR [esi], OFFSET ??_7exception@std@@6B@
  00013	66 0f d6 00	 movq	 QWORD PTR [eax], xmm0
  00017	8b 45 08	 mov	 eax, DWORD PTR ___that$[ebp]
  0001a	83 c0 04	 add	 eax, 4
  0001d	50		 push	 eax
  0001e	e8 00 00 00 00	 call	 ___std_exception_copy
  00023	83 c4 08	 add	 esp, 8
  00026	c7 06 00 00 00
	00		 mov	 DWORD PTR [esi], OFFSET ??_7bad_alloc@std@@6B@
  0002c	8b c6		 mov	 eax, esi
  0002e	5e		 pop	 esi
  0002f	5d		 pop	 ebp
  00030	c2 04 00	 ret	 4
??0bad_alloc@std@@QAE@ABV01@@Z ENDP			; std::bad_alloc::bad_alloc
_TEXT	ENDS
; Function compile flags: /Ogtp
; File C:\Program Files\Microsoft Visual Studio\2022\Professional\VC\Tools\MSVC\14.44.35207\include\vcruntime_exception.h
;	COMDAT ??_Gexception@std@@UAEPAXI@Z
_TEXT	SEGMENT
___flags$ = 8						; size = 4
??_Gexception@std@@UAEPAXI@Z PROC			; std::exception::`scalar deleting destructor', COMDAT
; _this$ = ecx
  00000	55		 push	 ebp
  00001	8b ec		 mov	 ebp, esp

; 90   :     {

  00003	56		 push	 esi
  00004	8b f1		 mov	 esi, ecx

; 91   :         __std_exception_destroy(&_Data);

  00006	8d 46 04	 lea	 eax, DWORD PTR [esi+4]
  00009	c7 06 00 00 00
	00		 mov	 DWORD PTR [esi], OFFSET ??_7exception@std@@6B@
  0000f	50		 push	 eax
  00010	e8 00 00 00 00	 call	 ___std_exception_destroy
  00015	83 c4 04	 add	 esp, 4
  00018	f6 45 08 01	 test	 BYTE PTR ___flags$[ebp], 1
  0001c	74 0b		 je	 SHORT $LN8@scalar
  0001e	6a 0c		 push	 12			; 0000000cH
  00020	56		 push	 esi
  00021	e8 00 00 00 00	 call	 ??3@YAXPAXI@Z		; operator delete
  00026	83 c4 08	 add	 esp, 8
$LN8@scalar:
  00029	8b c6		 mov	 eax, esi
  0002b	5e		 pop	 esi
  0002c	5d		 pop	 ebp
  0002d	c2 04 00	 ret	 4
??_Gexception@std@@UAEPAXI@Z ENDP			; std::exception::`scalar deleting destructor'
_TEXT	ENDS
; Function compile flags: /Ogtp
; File C:\Program Files\Microsoft Visual Studio\2022\Professional\VC\Tools\MSVC\14.44.35207\include\vcruntime_exception.h
;	COMDAT ?what@exception@std@@UBEPBDXZ
_TEXT	SEGMENT
?what@exception@std@@UBEPBDXZ PROC			; std::exception::what, COMDAT
; _this$ = ecx

; 96   :         return _Data._What ? _Data._What : "Unknown exception";

  00000	8b 49 04	 mov	 ecx, DWORD PTR [ecx+4]
  00003	b8 00 00 00 00	 mov	 eax, OFFSET ??_C@_0BC@EOODALEL@Unknown?5exception@
  00008	85 c9		 test	 ecx, ecx
  0000a	0f 45 c1	 cmovne	 eax, ecx

; 97   :     }

  0000d	c3		 ret	 0
?what@exception@std@@UBEPBDXZ ENDP			; std::exception::what
_TEXT	ENDS
; Function compile flags: /Ogtp
; File C:\Program Files\Microsoft Visual Studio\2022\Professional\VC\Tools\MSVC\14.44.35207\include\vcruntime_exception.h
;	COMDAT ??1exception@std@@UAE@XZ
_TEXT	SEGMENT
??1exception@std@@UAE@XZ PROC				; std::exception::~exception, COMDAT
; _this$ = ecx

; 91   :         __std_exception_destroy(&_Data);

  00000	8d 41 04	 lea	 eax, DWORD PTR [ecx+4]
  00003	c7 01 00 00 00
	00		 mov	 DWORD PTR [ecx], OFFSET ??_7exception@std@@6B@
  00009	50		 push	 eax
  0000a	e8 00 00 00 00	 call	 ___std_exception_destroy
  0000f	59		 pop	 ecx

; 92   :     }

  00010	c3		 ret	 0
??1exception@std@@UAE@XZ ENDP				; std::exception::~exception
_TEXT	ENDS
; Function compile flags: /Ogtp
; File C:\Program Files\Microsoft Visual Studio\2022\Professional\VC\Tools\MSVC\14.44.35207\include\vcruntime_exception.h
;	COMDAT ??0exception@std@@QAE@ABV01@@Z
_TEXT	SEGMENT
__Other$ = 8						; size = 4
??0exception@std@@QAE@ABV01@@Z PROC			; std::exception::exception, COMDAT
; _this$ = ecx

; 73   :     {

  00000	55		 push	 ebp
  00001	8b ec		 mov	 ebp, esp
  00003	56		 push	 esi
  00004	8b f1		 mov	 esi, ecx
  00006	0f 57 c0	 xorps	 xmm0, xmm0
  00009	8d 46 04	 lea	 eax, DWORD PTR [esi+4]

; 74   :         __std_exception_copy(&_Other._Data, &_Data);

  0000c	50		 push	 eax
  0000d	c7 06 00 00 00
	00		 mov	 DWORD PTR [esi], OFFSET ??_7exception@std@@6B@
  00013	66 0f d6 00	 movq	 QWORD PTR [eax], xmm0
  00017	8b 45 08	 mov	 eax, DWORD PTR __Other$[ebp]
  0001a	83 c0 04	 add	 eax, 4
  0001d	50		 push	 eax
  0001e	e8 00 00 00 00	 call	 ___std_exception_copy
  00023	83 c4 08	 add	 esp, 8

; 75   :     }

  00026	8b c6		 mov	 eax, esi
  00028	5e		 pop	 esi
  00029	5d		 pop	 ebp
  0002a	c2 04 00	 ret	 4
??0exception@std@@QAE@ABV01@@Z ENDP			; std::exception::exception
_TEXT	ENDS
; Function compile flags: /Ogtp
; File C:\IAGOS\server\v18\Source\Source\WorldServer\LinkMap.cpp
;	COMDAT ?__empty_global_delete@@YAXPAXI@Z
_TEXT	SEGMENT
___formal$ = 8						; size = 4
___formal$ = 12						; size = 4
?__empty_global_delete@@YAXPAXI@Z PROC			; __empty_global_delete, COMDAT

  00000	c2 00 00	 ret	 0
?__empty_global_delete@@YAXPAXI@Z ENDP			; __empty_global_delete
_TEXT	ENDS
; Function compile flags: /Ogtp
; File C:\IAGOS\server\v18\Source\Source\WorldServer\LinkMap.cpp
;	COMDAT ?__empty_global_delete@@YAXPAX@Z
_TEXT	SEGMENT
___formal$ = 8						; size = 4
?__empty_global_delete@@YAXPAX@Z PROC			; __empty_global_delete, COMDAT

  00000	c2 00 00	 ret	 0
?__empty_global_delete@@YAXPAX@Z ENDP			; __empty_global_delete
_TEXT	ENDS
END
