; Listing generated by Microsoft (R) Optimizing Compiler Version 19.44.35225.0 

	TITLE	C:\IAGOS\server\v18\Source\Output\WorldServer\Release\lordskillexecutable.obj
	.686P
	.XMM
	include listing.inc
	.model	flat

INCLUDELIB LIBCMT
INCLUDELIB OLDNAMES

CONST	SEGMENT
?piecewise_construct@std@@3Upiecewise_construct_t@1@B	ORG $+1 ; std::piecewise_construct
CONST	ENDS
PUBLIC	?__empty_global_delete@@YAXPAX@Z		; __empty_global_delete
PUBLIC	?__empty_global_delete@@YAXPAXI@Z		; __empty_global_delete
PUBLIC	?Execute@CLordSkillComponentItemBuf@@UAEXKKPAX@Z ; CLordSkillComponentItemBuf::Execute
PUBLIC	?Execute@CLordSkillComponentSummon@@UAEXKKPAX@Z	; CLordSkillComponentSummon::Execute
PUBLIC	?IsExecutable@CLordSkillComponentSummon@@UAEHPAVCUser@@PBDAAK@Z ; CLordSkillComponentSummon::IsExecutable
PUBLIC	?Execute@CLordSkillComponentTeleport@@UAEXKKPAX@Z ; CLordSkillComponentTeleport::Execute
PUBLIC	?IsExecutable@CLordSkillComponentTeleport@@UAEHPAVCUser@@PBDAAK@Z ; CLordSkillComponentTeleport::IsExecutable
PUBLIC	?UseRequirements@lordskill@@YAHPAVCUser@@PBDHAAK@Z ; lordskill::UseRequirements
PUBLIC	??_C@_0BM@HMFGHCP@?$CFs?5min?3?$CFd?0?5max?3?$CFd?0?5index?3?$CFd@ ; `string'
PUBLIC	??_C@_0BI@BEIFNGEL@GetItemProp?5range_error@	; `string'
PUBLIC	??_C@_02DKCKIIND@?$CFs@				; `string'
EXTRN	?Error@@YAPBDPBDZZ:PROC				; Error
EXTRN	?DoApplySkill@CCtrl@@QAEHPAV1@PAUItemProp@@PAUAddSkillProp@@_NHHH@Z:PROC ; CCtrl::DoApplySkill
EXTRN	?GetName@CMover@@QAEPBDH@Z:PROC			; CMover::GetName
EXTRN	?Replace@CMover@@QAEHKKAAUD3DXVECTOR3@@W4REPLACE_TYPE@@H@Z:PROC ; CMover::Replace
EXTRN	?IsExecutable@CLordSkillComponentExecutable@@UAEHPAVCUser@@PBDAAK@Z:PROC ; CLordSkillComponentExecutable::IsExecutable
EXTRN	?IsTeleportable@CLordSkillComponentExecutable@@QAEHPAVCUser@@0@Z:PROC ; CLordSkillComponentExecutable::IsTeleportable
EXTRN	?PutSkillLog@CLordSkillComponentExecutable@@QAEXPAVCUser@@@Z:PROC ; CLordSkillComponentExecutable::PutSkillLog
EXTRN	?GetSkill@CLordSkill@@QAEPAVCLordSkillComponentExecutable@@H@Z:PROC ; CLordSkill::GetSkill
EXTRN	?AddDefinedText@CUser@@QAAXHPBDZZ:PROC		; CUser::AddDefinedText
EXTRN	?AddDefinedText@CUser@@QAEXH@Z:PROC		; CUser::AddDefinedText
EXTRN	?GetUserByPlayerID@CUserMng@@QAEPAVCUser@@K@Z:PROC ; CUserMng::GetUserByPlayerID
EXTRN	?Instance@CSLord@@SAPAV1@XZ:PROC		; CSLord::Instance
EXTRN	@__security_check_cookie@4:PROC
EXTRN	?prj@@3VCProject@@A:BYTE			; prj
EXTRN	?g_uIdofMulti@@3KA:DWORD			; g_uIdofMulti
EXTRN	?g_UserMng@@3VCUserMng@@A:BYTE			; g_UserMng
EXTRN	___security_cookie:DWORD
;	COMDAT ??_C@_02DKCKIIND@?$CFs@
CONST	SEGMENT
??_C@_02DKCKIIND@?$CFs@ DB '%s', 00H			; `string'
CONST	ENDS
;	COMDAT ??_C@_0BI@BEIFNGEL@GetItemProp?5range_error@
CONST	SEGMENT
??_C@_0BI@BEIFNGEL@GetItemProp?5range_error@ DB 'GetItemProp range_error', 00H ; `string'
CONST	ENDS
;	COMDAT ??_C@_0BM@HMFGHCP@?$CFs?5min?3?$CFd?0?5max?3?$CFd?0?5index?3?$CFd@
CONST	SEGMENT
??_C@_0BM@HMFGHCP@?$CFs?5min?3?$CFd?0?5max?3?$CFd?0?5index?3?$CFd@ DB '%s'
	DB	' min:%d, max:%d, index:%d', 00H		; `string'
CONST	ENDS
; Function compile flags: /Ogtp
; File C:\IAGOS\server\v18\Source\Source\WorldServer\lordskillexecutable.cpp
;	COMDAT ?UseRequirements@lordskill@@YAHPAVCUser@@PBDHAAK@Z
_TEXT	SEGMENT
_pUser$ = 8						; size = 4
_szTarget$ = 12						; size = 4
_nSkill$ = 16						; size = 4
_idTarget$ = 20						; size = 4
?UseRequirements@lordskill@@YAHPAVCUser@@PBDHAAK@Z PROC	; lordskill::UseRequirements, COMDAT

; 82   : 	{

  00000	55		 push	 ebp
  00001	8b ec		 mov	 ebp, esp

; 83   : 		CLordSkill* pSkills		= CSLord::Instance()->GetSkills();

  00003	e8 00 00 00 00	 call	 ?Instance@CSLord@@SAPAV1@XZ ; CSLord::Instance

; 84   : 		CLordSkillComponentExecutable* pComponent	= pSkills->GetSkill( nSkill );

  00008	ff 75 10	 push	 DWORD PTR _nSkill$[ebp]
  0000b	8b 48 10	 mov	 ecx, DWORD PTR [eax+16]
  0000e	e8 00 00 00 00	 call	 ?GetSkill@CLordSkill@@QAEPAVCLordSkillComponentExecutable@@H@Z ; CLordSkill::GetSkill
  00013	8b c8		 mov	 ecx, eax

; 85   : 		if( !pComponent )

  00015	85 c9		 test	 ecx, ecx
  00017	75 07		 jne	 SHORT $LN2@UseRequire

; 86   : 			return TID_GAME_LORD_SKILL_USE_E002;

  00019	b8 c8 0e 00 00	 mov	 eax, 3784		; 00000ec8H

; 88   : 	}

  0001e	5d		 pop	 ebp
  0001f	c3		 ret	 0
$LN2@UseRequire:

; 87   : 		return pComponent->IsExecutable( pUser, szTarget, idTarget );

  00020	ff 75 14	 push	 DWORD PTR _idTarget$[ebp]
  00023	8b 01		 mov	 eax, DWORD PTR [ecx]
  00025	ff 75 0c	 push	 DWORD PTR _szTarget$[ebp]
  00028	ff 75 08	 push	 DWORD PTR _pUser$[ebp]
  0002b	ff 50 08	 call	 DWORD PTR [eax+8]

; 88   : 	}

  0002e	5d		 pop	 ebp
  0002f	c3		 ret	 0
?UseRequirements@lordskill@@YAHPAVCUser@@PBDHAAK@Z ENDP	; lordskill::UseRequirements
_TEXT	ENDS
; Function compile flags: /Ogtp
; File C:\IAGOS\server\v18\Source\Source\WorldServer\lordskillexecutable.cpp
;	COMDAT ?IsExecutable@CLordSkillComponentTeleport@@UAEHPAVCUser@@PBDAAK@Z
_TEXT	SEGMENT
_pUser$ = 8						; size = 4
_szTarget$ = 12						; size = 4
_idTarget$ = 16						; size = 4
?IsExecutable@CLordSkillComponentTeleport@@UAEHPAVCUser@@PBDAAK@Z PROC ; CLordSkillComponentTeleport::IsExecutable, COMDAT
; _this$ = ecx

; 74   : {

  00000	55		 push	 ebp
  00001	8b ec		 mov	 ebp, esp
  00003	56		 push	 esi
  00004	57		 push	 edi

; 75   : 	int nText	= CLordSkillComponentExecutable::IsExecutable( pUser, szTarget, idTarget );

  00005	8b 7d 10	 mov	 edi, DWORD PTR _idTarget$[ebp]
  00008	8b f1		 mov	 esi, ecx
  0000a	57		 push	 edi
  0000b	ff 75 0c	 push	 DWORD PTR _szTarget$[ebp]
  0000e	ff 75 08	 push	 DWORD PTR _pUser$[ebp]
  00011	e8 00 00 00 00	 call	 ?IsExecutable@CLordSkillComponentExecutable@@UAEHPAVCUser@@PBDAAK@Z ; CLordSkillComponentExecutable::IsExecutable

; 76   : 	return( nText > 0? nText: IsTeleportable( pUser, g_UserMng.GetUserByPlayerID( idTarget ) ) );	// 12-2 ˬ

  00016	85 c0		 test	 eax, eax
  00018	7f 17		 jg	 SHORT $LN4@IsExecutab
  0001a	ff 37		 push	 DWORD PTR [edi]
  0001c	b9 00 00 00 00	 mov	 ecx, OFFSET ?g_UserMng@@3VCUserMng@@A ; g_UserMng
  00021	e8 00 00 00 00	 call	 ?GetUserByPlayerID@CUserMng@@QAEPAVCUser@@K@Z ; CUserMng::GetUserByPlayerID
  00026	50		 push	 eax
  00027	ff 75 08	 push	 DWORD PTR _pUser$[ebp]
  0002a	8b ce		 mov	 ecx, esi
  0002c	e8 00 00 00 00	 call	 ?IsTeleportable@CLordSkillComponentExecutable@@QAEHPAVCUser@@0@Z ; CLordSkillComponentExecutable::IsTeleportable
$LN4@IsExecutab:

; 77   : }

  00031	5f		 pop	 edi
  00032	5e		 pop	 esi
  00033	5d		 pop	 ebp
  00034	c2 0c 00	 ret	 12			; 0000000cH
?IsExecutable@CLordSkillComponentTeleport@@UAEHPAVCUser@@PBDAAK@Z ENDP ; CLordSkillComponentTeleport::IsExecutable
_TEXT	ENDS
; Function compile flags: /Ogtp
; File C:\IAGOS\server\v18\Source\Source\WorldServer\lordskillexecutable.cpp
; File C:\IAGOS\server\v18\Source\Source\_Common\Obj.h
; File C:\IAGOS\server\v18\Source\Source\WorldServer\lordskillexecutable.cpp
; File C:\IAGOS\server\v18\Source\Source\_Common\Obj.h
; File C:\IAGOS\server\v18\Source\Source\WorldServer\lordskillexecutable.cpp
; File C:\IAGOS\server\v18\Source\Source\_Common\Obj.h
; File C:\IAGOS\server\v18\Source\Source\WorldServer\lordskillexecutable.cpp
; File C:\IAGOS\server\v18\Source\Source\_Common\Obj.h
; File C:\IAGOS\server\v18\Source\Source\WorldServer\lordskillexecutable.cpp
;	COMDAT ?Execute@CLordSkillComponentTeleport@@UAEXKKPAX@Z
_TEXT	SEGMENT
$T1 = -16						; size = 12
__$ArrayPad$ = -4					; size = 4
_idPlayer$ = 8						; size = 4
_idTarget$ = 12						; size = 4
_pParam$ = 16						; size = 4
?Execute@CLordSkillComponentTeleport@@UAEXKKPAX@Z PROC	; CLordSkillComponentTeleport::Execute, COMDAT
; _this$ = ecx

; 62   : {

  00000	55		 push	 ebp
  00001	8b ec		 mov	 ebp, esp
  00003	83 ec 10	 sub	 esp, 16			; 00000010H
  00006	a1 00 00 00 00	 mov	 eax, DWORD PTR ___security_cookie
  0000b	33 c5		 xor	 eax, ebp
  0000d	89 45 fc	 mov	 DWORD PTR __$ArrayPad$[ebp], eax
  00010	53		 push	 ebx
  00011	8b d9		 mov	 ebx, ecx
  00013	8b 4d 08	 mov	 ecx, DWORD PTR _idPlayer$[ebp]
  00016	56		 push	 esi
  00017	8b 75 0c	 mov	 esi, DWORD PTR _idTarget$[ebp]
  0001a	57		 push	 edi

; 63   : 	Use();

  0001b	8b 43 08	 mov	 eax, DWORD PTR [ebx+8]

; 64   : 	CUser* pUser	= g_UserMng.GetUserByPlayerID( idPlayer );

  0001e	51		 push	 ecx
  0001f	b9 00 00 00 00	 mov	 ecx, OFFSET ?g_UserMng@@3VCUserMng@@A ; g_UserMng
  00024	89 43 0c	 mov	 DWORD PTR [ebx+12], eax
  00027	e8 00 00 00 00	 call	 ?GetUserByPlayerID@CUserMng@@QAEPAVCUser@@K@Z ; CUserMng::GetUserByPlayerID

; 65   : 	CUser* pTarget	= g_UserMng.GetUserByPlayerID( idTarget );

  0002c	56		 push	 esi
  0002d	b9 00 00 00 00	 mov	 ecx, OFFSET ?g_UserMng@@3VCUserMng@@A ; g_UserMng
  00032	8b f8		 mov	 edi, eax
  00034	e8 00 00 00 00	 call	 ?GetUserByPlayerID@CUserMng@@QAEPAVCUser@@K@Z ; CUserMng::GetUserByPlayerID
  00039	8b f0		 mov	 esi, eax
; File C:\IAGOS\server\v18\Source\Source\_Common\Obj.h

; 327  : 	return pObj && ( pObj->IsDelete() == FALSE ); 

  0003b	85 ff		 test	 edi, edi
  0003d	74 53		 je	 SHORT $LN2@Execute

; 180  : 	BOOL			IsDelete()	{ return (m_dwFlags & OBJ_FLAG_DELETE);  }

  0003f	f6 47 04 01	 test	 BYTE PTR [edi+4], 1

; 327  : 	return pObj && ( pObj->IsDelete() == FALSE ); 

  00043	75 4d		 jne	 SHORT $LN2@Execute
  00045	85 f6		 test	 esi, esi
  00047	74 49		 je	 SHORT $LN2@Execute

; 180  : 	BOOL			IsDelete()	{ return (m_dwFlags & OBJ_FLAG_DELETE);  }

  00049	f6 46 04 01	 test	 BYTE PTR [esi+4], 1

; 327  : 	return pObj && ( pObj->IsDelete() == FALSE ); 

  0004d	75 43		 jne	 SHORT $LN2@Execute
; File C:\IAGOS\server\v18\Source\Source\WorldServer\lordskillexecutable.cpp

; 66   : 	if( IsValidObj( pUser ) && IsValidObj( pTarget ) && pTarget->GetWorld() )

  0004f	8b 96 6c 01 00
	00		 mov	 edx, DWORD PTR [esi+364]
  00055	85 d2		 test	 edx, edx
  00057	74 39		 je	 SHORT $LN2@Execute

; 68   : 		pUser->REPLACE( g_uIdofMulti, pTarget->GetWorld()->GetID(), pTarget->GetPos(), REPLACE_NORMAL, pTarget->GetLayer() );

  00059	ff b6 b8 01 00
	00		 push	 DWORD PTR [esi+440]
; File C:\IAGOS\server\v18\Source\Source\_Common\Obj.h

; 215  : 	D3DXVECTOR3		GetPos()	{ return m_vPos; }

  0005f	8b 86 68 01 00
	00		 mov	 eax, DWORD PTR [esi+360]
; File C:\IAGOS\server\v18\Source\Source\WorldServer\lordskillexecutable.cpp

; 68   : 		pUser->REPLACE( g_uIdofMulti, pTarget->GetWorld()->GetID(), pTarget->GetPos(), REPLACE_NORMAL, pTarget->GetLayer() );

  00065	8b cf		 mov	 ecx, edi
; File C:\IAGOS\server\v18\Source\Source\_Common\Obj.h

; 215  : 	D3DXVECTOR3		GetPos()	{ return m_vPos; }

  00067	f3 0f 7e 86 60
	01 00 00	 movq	 xmm0, QWORD PTR [esi+352]
  0006f	89 45 f8	 mov	 DWORD PTR $T1[ebp+8], eax
; File C:\IAGOS\server\v18\Source\Source\WorldServer\lordskillexecutable.cpp

; 68   : 		pUser->REPLACE( g_uIdofMulti, pTarget->GetWorld()->GetID(), pTarget->GetPos(), REPLACE_NORMAL, pTarget->GetLayer() );

  00072	8d 45 f0	 lea	 eax, DWORD PTR $T1[ebp]
  00075	6a 00		 push	 0
  00077	50		 push	 eax
; File C:\IAGOS\server\v18\Source\Source\_Common\Obj.h

; 215  : 	D3DXVECTOR3		GetPos()	{ return m_vPos; }

  00078	66 0f d6 45 f0	 movq	 QWORD PTR $T1[ebp], xmm0
; File C:\IAGOS\server\v18\Source\Source\WorldServer\lordskillexecutable.cpp

; 68   : 		pUser->REPLACE( g_uIdofMulti, pTarget->GetWorld()->GetID(), pTarget->GetPos(), REPLACE_NORMAL, pTarget->GetLayer() );

  0007d	ff 32		 push	 DWORD PTR [edx]
  0007f	ff 35 00 00 00
	00		 push	 DWORD PTR ?g_uIdofMulti@@3KA ; g_uIdofMulti
  00085	e8 00 00 00 00	 call	 ?Replace@CMover@@QAEHKKAAUD3DXVECTOR3@@W4REPLACE_TYPE@@H@Z ; CMover::Replace

; 69   : 		PutSkillLog( pTarget );

  0008a	56		 push	 esi
  0008b	8b cb		 mov	 ecx, ebx
  0008d	e8 00 00 00 00	 call	 ?PutSkillLog@CLordSkillComponentExecutable@@QAEXPAVCUser@@@Z ; CLordSkillComponentExecutable::PutSkillLog
$LN2@Execute:

; 70   : 	}
; 71   : }

  00092	8b 4d fc	 mov	 ecx, DWORD PTR __$ArrayPad$[ebp]
  00095	5f		 pop	 edi
  00096	5e		 pop	 esi
  00097	33 cd		 xor	 ecx, ebp
  00099	5b		 pop	 ebx
  0009a	e8 00 00 00 00	 call	 @__security_check_cookie@4
  0009f	8b e5		 mov	 esp, ebp
  000a1	5d		 pop	 ebp
  000a2	c2 0c 00	 ret	 12			; 0000000cH
?Execute@CLordSkillComponentTeleport@@UAEXKKPAX@Z ENDP	; CLordSkillComponentTeleport::Execute
_TEXT	ENDS
; Function compile flags: /Ogtp
; File C:\IAGOS\server\v18\Source\Source\WorldServer\lordskillexecutable.cpp
;	COMDAT ?IsExecutable@CLordSkillComponentSummon@@UAEHPAVCUser@@PBDAAK@Z
_TEXT	SEGMENT
_pUser$ = 8						; size = 4
_szTarget$ = 12						; size = 4
_idTarget$ = 16						; size = 4
?IsExecutable@CLordSkillComponentSummon@@UAEHPAVCUser@@PBDAAK@Z PROC ; CLordSkillComponentSummon::IsExecutable, COMDAT
; _this$ = ecx

; 56   : {

  00000	55		 push	 ebp
  00001	8b ec		 mov	 ebp, esp
  00003	56		 push	 esi
  00004	57		 push	 edi

; 57   : 	int nText	= CLordSkillComponentExecutable::IsExecutable( pUser, szTarget, idTarget );

  00005	8b 7d 10	 mov	 edi, DWORD PTR _idTarget$[ebp]
  00008	8b f1		 mov	 esi, ecx
  0000a	57		 push	 edi
  0000b	ff 75 0c	 push	 DWORD PTR _szTarget$[ebp]
  0000e	ff 75 08	 push	 DWORD PTR _pUser$[ebp]
  00011	e8 00 00 00 00	 call	 ?IsExecutable@CLordSkillComponentExecutable@@UAEHPAVCUser@@PBDAAK@Z ; CLordSkillComponentExecutable::IsExecutable

; 58   : 	return( nText > 0? nText: IsTeleportable( pUser, g_UserMng.GetUserByPlayerID( idTarget ) ) );

  00016	85 c0		 test	 eax, eax
  00018	7f 17		 jg	 SHORT $LN4@IsExecutab
  0001a	ff 37		 push	 DWORD PTR [edi]
  0001c	b9 00 00 00 00	 mov	 ecx, OFFSET ?g_UserMng@@3VCUserMng@@A ; g_UserMng
  00021	e8 00 00 00 00	 call	 ?GetUserByPlayerID@CUserMng@@QAEPAVCUser@@K@Z ; CUserMng::GetUserByPlayerID
  00026	50		 push	 eax
  00027	ff 75 08	 push	 DWORD PTR _pUser$[ebp]
  0002a	8b ce		 mov	 ecx, esi
  0002c	e8 00 00 00 00	 call	 ?IsTeleportable@CLordSkillComponentExecutable@@QAEHPAVCUser@@0@Z ; CLordSkillComponentExecutable::IsTeleportable
$LN4@IsExecutab:

; 59   : }

  00031	5f		 pop	 edi
  00032	5e		 pop	 esi
  00033	5d		 pop	 ebp
  00034	c2 0c 00	 ret	 12			; 0000000cH
?IsExecutable@CLordSkillComponentSummon@@UAEHPAVCUser@@PBDAAK@Z ENDP ; CLordSkillComponentSummon::IsExecutable
_TEXT	ENDS
; Function compile flags: /Ogtp
; File C:\IAGOS\server\v18\Source\Source\WorldServer\lordskillexecutable.cpp
; File C:\IAGOS\server\v18\Source\Source\_Common\Obj.h
; File C:\IAGOS\server\v18\Source\Source\WorldServer\lordskillexecutable.cpp
; File C:\IAGOS\server\v18\Source\Source\_Common\Obj.h
; File C:\IAGOS\server\v18\Source\Source\WorldServer\lordskillexecutable.cpp
; File C:\IAGOS\server\v18\Source\Source\_Common\Obj.h
; File C:\IAGOS\server\v18\Source\Source\WorldServer\lordskillexecutable.cpp
; File C:\IAGOS\server\v18\Source\Source\_Common\Obj.h
; File C:\IAGOS\server\v18\Source\Source\WorldServer\lordskillexecutable.cpp
;	COMDAT ?Execute@CLordSkillComponentSummon@@UAEXKKPAX@Z
_TEXT	SEGMENT
$T1 = -16						; size = 12
__$ArrayPad$ = -4					; size = 4
_idPlayer$ = 8						; size = 4
_idTarget$ = 12						; size = 4
_pParam$ = 16						; size = 4
?Execute@CLordSkillComponentSummon@@UAEXKKPAX@Z PROC	; CLordSkillComponentSummon::Execute, COMDAT
; _this$ = ecx

; 43   : {

  00000	55		 push	 ebp
  00001	8b ec		 mov	 ebp, esp
  00003	83 ec 10	 sub	 esp, 16			; 00000010H
  00006	a1 00 00 00 00	 mov	 eax, DWORD PTR ___security_cookie
  0000b	33 c5		 xor	 eax, ebp
  0000d	89 45 fc	 mov	 DWORD PTR __$ArrayPad$[ebp], eax
  00010	53		 push	 ebx
  00011	8b d9		 mov	 ebx, ecx
  00013	8b 4d 08	 mov	 ecx, DWORD PTR _idPlayer$[ebp]
  00016	56		 push	 esi
  00017	8b 75 0c	 mov	 esi, DWORD PTR _idTarget$[ebp]
  0001a	57		 push	 edi

; 44   : 	Use();

  0001b	8b 43 08	 mov	 eax, DWORD PTR [ebx+8]

; 45   : 	CUser* pUser	= g_UserMng.GetUserByPlayerID( idPlayer );

  0001e	51		 push	 ecx
  0001f	b9 00 00 00 00	 mov	 ecx, OFFSET ?g_UserMng@@3VCUserMng@@A ; g_UserMng
  00024	89 43 0c	 mov	 DWORD PTR [ebx+12], eax
  00027	e8 00 00 00 00	 call	 ?GetUserByPlayerID@CUserMng@@QAEPAVCUser@@K@Z ; CUserMng::GetUserByPlayerID

; 46   : 	CUser* pTarget	= g_UserMng.GetUserByPlayerID( idTarget );

  0002c	56		 push	 esi
  0002d	b9 00 00 00 00	 mov	 ecx, OFFSET ?g_UserMng@@3VCUserMng@@A ; g_UserMng
  00032	8b f8		 mov	 edi, eax
  00034	e8 00 00 00 00	 call	 ?GetUserByPlayerID@CUserMng@@QAEPAVCUser@@K@Z ; CUserMng::GetUserByPlayerID
  00039	8b f0		 mov	 esi, eax
; File C:\IAGOS\server\v18\Source\Source\_Common\Obj.h

; 327  : 	return pObj && ( pObj->IsDelete() == FALSE ); 

  0003b	85 f6		 test	 esi, esi
  0003d	74 64		 je	 SHORT $LN2@Execute

; 180  : 	BOOL			IsDelete()	{ return (m_dwFlags & OBJ_FLAG_DELETE);  }

  0003f	f6 46 04 01	 test	 BYTE PTR [esi+4], 1

; 327  : 	return pObj && ( pObj->IsDelete() == FALSE ); 

  00043	75 5e		 jne	 SHORT $LN2@Execute
  00045	85 ff		 test	 edi, edi
  00047	74 5a		 je	 SHORT $LN2@Execute

; 180  : 	BOOL			IsDelete()	{ return (m_dwFlags & OBJ_FLAG_DELETE);  }

  00049	f6 47 04 01	 test	 BYTE PTR [edi+4], 1

; 327  : 	return pObj && ( pObj->IsDelete() == FALSE ); 

  0004d	75 54		 jne	 SHORT $LN2@Execute
; File C:\IAGOS\server\v18\Source\Source\WorldServer\lordskillexecutable.cpp

; 47   : 	if( IsValidObj( pTarget ) && IsValidObj( pUser ) && pUser->GetWorld() )

  0004f	83 bf 6c 01 00
	00 00		 cmp	 DWORD PTR [edi+364], 0
  00056	74 4b		 je	 SHORT $LN2@Execute

; 48   : 	{
; 49   : 		pTarget->AddDefinedText( TID_GAME_LORD_SKILL_SUMMON_S001 );

  00058	68 cd 0e 00 00	 push	 3789			; 00000ecdH
  0005d	8b ce		 mov	 ecx, esi
  0005f	e8 00 00 00 00	 call	 ?AddDefinedText@CUser@@QAEXH@Z ; CUser::AddDefinedText

; 50   : 		pTarget->REPLACE( g_uIdofMulti, pUser->GetWorld()->GetID(), pUser->GetPos(), REPLACE_NORMAL, pUser->GetLayer() );

  00064	ff b7 b8 01 00
	00		 push	 DWORD PTR [edi+440]
; File C:\IAGOS\server\v18\Source\Source\_Common\Obj.h

; 215  : 	D3DXVECTOR3		GetPos()	{ return m_vPos; }

  0006a	8b 87 68 01 00
	00		 mov	 eax, DWORD PTR [edi+360]
; File C:\IAGOS\server\v18\Source\Source\WorldServer\lordskillexecutable.cpp

; 50   : 		pTarget->REPLACE( g_uIdofMulti, pUser->GetWorld()->GetID(), pUser->GetPos(), REPLACE_NORMAL, pUser->GetLayer() );

  00070	8b ce		 mov	 ecx, esi
; File C:\IAGOS\server\v18\Source\Source\_Common\Obj.h

; 215  : 	D3DXVECTOR3		GetPos()	{ return m_vPos; }

  00072	f3 0f 7e 87 60
	01 00 00	 movq	 xmm0, QWORD PTR [edi+352]
  0007a	89 45 f8	 mov	 DWORD PTR $T1[ebp+8], eax
; File C:\IAGOS\server\v18\Source\Source\WorldServer\lordskillexecutable.cpp

; 50   : 		pTarget->REPLACE( g_uIdofMulti, pUser->GetWorld()->GetID(), pUser->GetPos(), REPLACE_NORMAL, pUser->GetLayer() );

  0007d	8d 45 f0	 lea	 eax, DWORD PTR $T1[ebp]
  00080	6a 00		 push	 0
  00082	50		 push	 eax
  00083	8b 87 6c 01 00
	00		 mov	 eax, DWORD PTR [edi+364]
; File C:\IAGOS\server\v18\Source\Source\_Common\Obj.h

; 215  : 	D3DXVECTOR3		GetPos()	{ return m_vPos; }

  00089	66 0f d6 45 f0	 movq	 QWORD PTR $T1[ebp], xmm0
; File C:\IAGOS\server\v18\Source\Source\WorldServer\lordskillexecutable.cpp

; 50   : 		pTarget->REPLACE( g_uIdofMulti, pUser->GetWorld()->GetID(), pUser->GetPos(), REPLACE_NORMAL, pUser->GetLayer() );

  0008e	ff 30		 push	 DWORD PTR [eax]
  00090	ff 35 00 00 00
	00		 push	 DWORD PTR ?g_uIdofMulti@@3KA ; g_uIdofMulti
  00096	e8 00 00 00 00	 call	 ?Replace@CMover@@QAEHKKAAUD3DXVECTOR3@@W4REPLACE_TYPE@@H@Z ; CMover::Replace

; 51   : 		PutSkillLog( pTarget );

  0009b	56		 push	 esi
  0009c	8b cb		 mov	 ecx, ebx
  0009e	e8 00 00 00 00	 call	 ?PutSkillLog@CLordSkillComponentExecutable@@QAEXPAVCUser@@@Z ; CLordSkillComponentExecutable::PutSkillLog
$LN2@Execute:

; 52   : 	}
; 53   : }

  000a3	8b 4d fc	 mov	 ecx, DWORD PTR __$ArrayPad$[ebp]
  000a6	5f		 pop	 edi
  000a7	5e		 pop	 esi
  000a8	33 cd		 xor	 ecx, ebp
  000aa	5b		 pop	 ebx
  000ab	e8 00 00 00 00	 call	 @__security_check_cookie@4
  000b0	8b e5		 mov	 esp, ebp
  000b2	5d		 pop	 ebp
  000b3	c2 0c 00	 ret	 12			; 0000000cH
?Execute@CLordSkillComponentSummon@@UAEXKKPAX@Z ENDP	; CLordSkillComponentSummon::Execute
_TEXT	ENDS
; Function compile flags: /Ogtp
; File C:\IAGOS\server\v18\Source\Source\WorldServer\lordskillexecutable.cpp
; File C:\IAGOS\server\v18\Source\Source\_Common\Obj.h
; File C:\IAGOS\server\v18\Source\Source\WorldServer\lordskillexecutable.cpp
; File C:\IAGOS\server\v18\Source\Source\_Common\Obj.h
; File C:\IAGOS\server\v18\Source\Source\WorldServer\lordskillexecutable.cpp
; File C:\IAGOS\server\v18\Source\Source\_Common\Project.h
; File C:\IAGOS\server\v18\Source\Source\_Common\data.h
; File C:\IAGOS\server\v18\Source\Source\WorldServer\lordskillexecutable.cpp
; File C:\IAGOS\server\v18\Source\Source\_Common\Project.h
; File C:\IAGOS\server\v18\Source\Source\WorldServer\lordskillexecutable.cpp
;	COMDAT ?Execute@CLordSkillComponentItemBuf@@UAEXKKPAX@Z
_TEXT	SEGMENT
_idPlayer$ = 8						; size = 4
_idTarget$ = 12						; size = 4
_pParam$ = 16						; size = 4
?Execute@CLordSkillComponentItemBuf@@UAEXKKPAX@Z PROC	; CLordSkillComponentItemBuf::Execute, COMDAT
; _this$ = ecx

; 15   : {

  00000	55		 push	 ebp
  00001	8b ec		 mov	 ebp, esp
  00003	53		 push	 ebx
  00004	57		 push	 edi

; 16   : 	Use();
; 17   : 	CUser* pUser	= g_UserMng.GetUserByPlayerID( idPlayer );

  00005	ff 75 08	 push	 DWORD PTR _idPlayer$[ebp]
  00008	8b f9		 mov	 edi, ecx
  0000a	b9 00 00 00 00	 mov	 ecx, OFFSET ?g_UserMng@@3VCUserMng@@A ; g_UserMng
  0000f	8b 47 08	 mov	 eax, DWORD PTR [edi+8]
  00012	89 47 0c	 mov	 DWORD PTR [edi+12], eax
  00015	e8 00 00 00 00	 call	 ?GetUserByPlayerID@CUserMng@@QAEPAVCUser@@K@Z ; CUserMng::GetUserByPlayerID
  0001a	8b d8		 mov	 ebx, eax
; File C:\IAGOS\server\v18\Source\Source\_Common\Obj.h

; 327  : 	return pObj && ( pObj->IsDelete() == FALSE ); 

  0001c	85 db		 test	 ebx, ebx
  0001e	0f 84 db 00 00
	00		 je	 $LN5@Execute

; 180  : 	BOOL			IsDelete()	{ return (m_dwFlags & OBJ_FLAG_DELETE);  }

  00024	f6 43 04 01	 test	 BYTE PTR [ebx+4], 1

; 327  : 	return pObj && ( pObj->IsDelete() == FALSE ); 

  00028	0f 85 d1 00 00
	00		 jne	 $LN5@Execute
; File C:\IAGOS\server\v18\Source\Source\WorldServer\lordskillexecutable.cpp

; 20   : 		CUser* pTarget	= pUser;

  0002e	83 bf f8 00 00
	00 01		 cmp	 DWORD PTR [edi+248], 1
  00035	56		 push	 esi
  00036	8b f3		 mov	 esi, ebx

; 21   : 		if( GetTargetType() != LTT_SELF )

  00038	74 17		 je	 SHORT $LN34@Execute

; 22   : 			pTarget		= g_UserMng.GetUserByPlayerID( idTarget );

  0003a	ff 75 0c	 push	 DWORD PTR _idTarget$[ebp]
  0003d	b9 00 00 00 00	 mov	 ecx, OFFSET ?g_UserMng@@3VCUserMng@@A ; g_UserMng
  00042	e8 00 00 00 00	 call	 ?GetUserByPlayerID@CUserMng@@QAEPAVCUser@@K@Z ; CUserMng::GetUserByPlayerID
  00047	8b f0		 mov	 esi, eax
; File C:\IAGOS\server\v18\Source\Source\_Common\Obj.h

; 327  : 	return pObj && ( pObj->IsDelete() == FALSE ); 

  00049	85 f6		 test	 esi, esi
  0004b	0f 84 ad 00 00
	00		 je	 $LN46@Execute
$LN34@Execute:

; 180  : 	BOOL			IsDelete()	{ return (m_dwFlags & OBJ_FLAG_DELETE);  }

  00051	f6 46 04 01	 test	 BYTE PTR [esi+4], 1

; 327  : 	return pObj && ( pObj->IsDelete() == FALSE ); 

  00055	0f 85 a3 00 00
	00		 jne	 $LN46@Execute
; File C:\IAGOS\server\v18\Source\Source\WorldServer\lordskillexecutable.cpp

; 23   : 		if( IsValidObj( pTarget ) && pTarget->GetType() == OT_MOVER && pTarget->IsPlayer() )

  0005b	83 be 70 01 00
	00 05		 cmp	 DWORD PTR [esi+368], 5
  00062	0f 85 96 00 00
	00		 jne	 $LN46@Execute
  00068	83 be 30 02 00
	00 00		 cmp	 DWORD PTR [esi+560], 0
  0006f	0f 84 89 00 00
	00		 je	 $LN46@Execute

; 24   : 		{
; 25   : 			ItemProp* pItemProp		= prj.GetItemProp( GetItem() );

  00075	8b 4f 10	 mov	 ecx, DWORD PTR [edi+16]
; File C:\IAGOS\server\v18\Source\Source\_Common\Project.h

; 1389 : 	VERIFY_RANGE_ASSERT( nIndex, 0, m_aPropItem.GetSize(), "GetItemProp range_error", NULL );

  00078	a1 40 02 00 00	 mov	 eax, DWORD PTR ?prj@@3VCProject@@A+576
  0007d	85 c9		 test	 ecx, ecx
  0007f	78 67		 js	 SHORT $LN25@Execute
  00081	3b c8		 cmp	 ecx, eax
  00083	7d 63		 jge	 SHORT $LN25@Execute
; File C:\IAGOS\server\v18\Source\Source\_Common\data.h

; 270  : 	if( dwIndex >= (DWORD)m_nMaxIndex )

  00085	72 04		 jb	 SHORT $LN30@Execute

; 271  : 		return NULL;

  00087	33 c0		 xor	 eax, eax
  00089	eb 08		 jmp	 SHORT $LN29@Execute
$LN30@Execute:

; 272  : 	return (T*) m_apOffset[ dwIndex ];

  0008b	a1 30 02 00 00	 mov	 eax, DWORD PTR ?prj@@3VCProject@@A+560
  00090	8b 04 88	 mov	 eax, DWORD PTR [eax+ecx*4]
$LN29@Execute:
; File C:\IAGOS\server\v18\Source\Source\WorldServer\lordskillexecutable.cpp

; 26   : 			if( pItemProp )

  00093	85 c0		 test	 eax, eax
  00095	74 67		 je	 SHORT $LN46@Execute

; 27   : 			{
; 28   : 				// #motion
; 29   : 				pUser->DoApplySkill( pTarget, pItemProp, NULL );

  00097	6a 00		 push	 0
  00099	6a 00		 push	 0
  0009b	6a 00		 push	 0
  0009d	6a 00		 push	 0
  0009f	6a 00		 push	 0
  000a1	50		 push	 eax
  000a2	56		 push	 esi
  000a3	8b cb		 mov	 ecx, ebx
  000a5	e8 00 00 00 00	 call	 ?DoApplySkill@CCtrl@@QAEHPAV1@PAUItemProp@@PAUAddSkillProp@@_NHHH@Z ; CCtrl::DoApplySkill

; 30   : 				// #print
; 31   : 				if( GetId() == LI_RAGE )

  000aa	83 7f 04 04	 cmp	 DWORD PTR [edi+4], 4
  000ae	75 29		 jne	 SHORT $LN6@Execute

; 32   : 				{
; 33   : 					pUser->AddDefinedText( TID_GAME_LORD_SKILL_RAGE_S001, "%s", pTarget->GetName() );

  000b0	6a 00		 push	 0
  000b2	8b ce		 mov	 ecx, esi
  000b4	e8 00 00 00 00	 call	 ?GetName@CMover@@QAEPBDH@Z ; CMover::GetName
  000b9	50		 push	 eax
  000ba	68 00 00 00 00	 push	 OFFSET ??_C@_02DKCKIIND@?$CFs@
  000bf	68 d0 0e 00 00	 push	 3792			; 00000ed0H
  000c4	53		 push	 ebx
  000c5	e8 00 00 00 00	 call	 ?AddDefinedText@CUser@@QAAXHPBDZZ ; CUser::AddDefinedText
  000ca	83 c4 10	 add	 esp, 16			; 00000010H

; 34   : 					pTarget->AddDefinedText( TID_GAME_LORD_SKILL_RAGE_S002 );

  000cd	8b ce		 mov	 ecx, esi
  000cf	68 d1 0e 00 00	 push	 3793			; 00000ed1H
  000d4	e8 00 00 00 00	 call	 ?AddDefinedText@CUser@@QAEXH@Z ; CUser::AddDefinedText
$LN6@Execute:

; 35   : 				}
; 36   : 				PutSkillLog( pTarget );

  000d9	56		 push	 esi
  000da	8b cf		 mov	 ecx, edi
  000dc	e8 00 00 00 00	 call	 ?PutSkillLog@CLordSkillComponentExecutable@@QAEXPAVCUser@@@Z ; CLordSkillComponentExecutable::PutSkillLog
  000e1	5e		 pop	 esi
  000e2	5f		 pop	 edi

; 40   : }

  000e3	5b		 pop	 ebx
  000e4	5d		 pop	 ebp
  000e5	c2 0c 00	 ret	 12			; 0000000cH
$LN25@Execute:
; File C:\IAGOS\server\v18\Source\Source\_Common\Project.h

; 579  : 	LPCTSTR szErr = Error( _T( "%s min:%d, max:%d, index:%d" ), szMsg, nMin, nMax, nIndex ); 

  000e8	51		 push	 ecx
  000e9	50		 push	 eax
  000ea	6a 00		 push	 0
  000ec	68 00 00 00 00	 push	 OFFSET ??_C@_0BI@BEIFNGEL@GetItemProp?5range_error@
  000f1	68 00 00 00 00	 push	 OFFSET ??_C@_0BM@HMFGHCP@?$CFs?5min?3?$CFd?0?5max?3?$CFd?0?5index?3?$CFd@
  000f6	e8 00 00 00 00	 call	 ?Error@@YAPBDPBDZZ	; Error
  000fb	83 c4 14	 add	 esp, 20			; 00000014H
$LN46@Execute:
  000fe	5e		 pop	 esi
$LN5@Execute:
  000ff	5f		 pop	 edi
; File C:\IAGOS\server\v18\Source\Source\WorldServer\lordskillexecutable.cpp

; 40   : }

  00100	5b		 pop	 ebx
  00101	5d		 pop	 ebp
  00102	c2 0c 00	 ret	 12			; 0000000cH
?Execute@CLordSkillComponentItemBuf@@UAEXKKPAX@Z ENDP	; CLordSkillComponentItemBuf::Execute
_TEXT	ENDS
; Function compile flags: /Ogtp
; File C:\IAGOS\server\v18\Source\Source\WorldServer\lordskillexecutable.cpp
;	COMDAT ?__empty_global_delete@@YAXPAXI@Z
_TEXT	SEGMENT
___formal$ = 8						; size = 4
___formal$ = 12						; size = 4
?__empty_global_delete@@YAXPAXI@Z PROC			; __empty_global_delete, COMDAT

  00000	c2 00 00	 ret	 0
?__empty_global_delete@@YAXPAXI@Z ENDP			; __empty_global_delete
_TEXT	ENDS
; Function compile flags: /Ogtp
; File C:\IAGOS\server\v18\Source\Source\WorldServer\lordskillexecutable.cpp
;	COMDAT ?__empty_global_delete@@YAXPAX@Z
_TEXT	SEGMENT
___formal$ = 8						; size = 4
?__empty_global_delete@@YAXPAX@Z PROC			; __empty_global_delete, COMDAT

  00000	c2 00 00	 ret	 0
?__empty_global_delete@@YAXPAX@Z ENDP			; __empty_global_delete
_TEXT	ENDS
END
