; Listing generated by Microsoft (R) Optimizing Compiler Version 19.44.35225.0 

	TITLE	C:\IAGOS\server\v18\Source\Output\WorldServer\Release\LuaBase.obj
	.686P
	.XMM
	include listing.inc
	.model	flat

INCLUDELIB LIBCMT
INCLUDELIB OLDNAMES

PUBLIC	?__empty_global_delete@@YAXPAX@Z		; __empty_global_delete
PUBLIC	?__empty_global_delete@@YAXPAXI@Z		; __empty_global_delete
PUBLIC	??0CLuaBase@@QAE@XZ				; CLuaBase::CLuaBase
PUBLIC	??1CLuaBase@@UAE@XZ				; CLuaBase::~CLuaBase
PUBLIC	?_TRACE@CLuaBase@@SAHPAUlua_State@@@Z		; CLuaBase::_TRACE
PUBLIC	?_ERROR@CLuaBase@@SAHPAUlua_State@@@Z		; CLuaBase::_ERROR
PUBLIC	?RegisterFunction@CLuaBase@@QAEXPADP6AHPAUlua_State@@@Z@Z ; CLuaBase::RegisterFunction
PUBLIC	?RunScript@CLuaBase@@QAEHPBD@Z			; CLuaBase::RunScript
PUBLIC	?Pop@CLuaBase@@QAEXH@Z				; CLuaBase::Pop
PUBLIC	?ToString@CLuaBase@@QAEPBDH@Z			; CLuaBase::ToString
PUBLIC	?GetGlobalNumber@CLuaBase@@QAENPAD@Z		; CLuaBase::GetGlobalNumber
PUBLIC	?GetGlobalString@CLuaBase@@QAEPBDPAD@Z		; CLuaBase::GetGlobalString
PUBLIC	?GetGlobalBool@CLuaBase@@QAEHPAD@Z		; CLuaBase::GetGlobalBool
PUBLIC	?GetFieldToNumber@CLuaBase@@QAENHPAD@Z		; CLuaBase::GetFieldToNumber
PUBLIC	?GetFieldToString@CLuaBase@@QAEPBDHPAD@Z	; CLuaBase::GetFieldToString
PUBLIC	?GetFieldToBool@CLuaBase@@QAEHHPAD@Z		; CLuaBase::GetFieldToBool
PUBLIC	?GetLuaFunction@CLuaBase@@QAEHPAD@Z		; CLuaBase::GetLuaFunction
PUBLIC	?CallLuaFunction@CLuaBase@@QAEXHH@Z		; CLuaBase::CallLuaFunction
PUBLIC	??_GCLuaBase@@UAEPAXI@Z				; CLuaBase::`scalar deleting destructor'
PUBLIC	??_7CLuaBase@@6B@				; CLuaBase::`vftable'
PUBLIC	??_C@_05EHILDPJH@TRACE@				; `string'
PUBLIC	??_C@_05MBDEGLCK@ERROR@				; `string'
PUBLIC	??_C@_08HKLBHHKO@LUA?5?9?5?$CFs@		; `string'
PUBLIC	??_R4CLuaBase@@6B@				; CLuaBase::`RTTI Complete Object Locator'
PUBLIC	??_R0?AVCLuaBase@@@8				; CLuaBase `RTTI Type Descriptor'
PUBLIC	??_R3CLuaBase@@8				; CLuaBase::`RTTI Class Hierarchy Descriptor'
PUBLIC	??_R2CLuaBase@@8				; CLuaBase::`RTTI Base Class Array'
PUBLIC	??_R1A@?0A@EA@CLuaBase@@8			; CLuaBase::`RTTI Base Class Descriptor at (0,-1,0,64)'
EXTRN	??3@YAXPAXI@Z:PROC				; operator delete
EXTRN	_exit:PROC
EXTRN	?Error@@YAPBDPBDZZ:PROC				; Error
EXTRN	_lua_close:PROC
EXTRN	_lua_settop:PROC
EXTRN	_lua_isnumber:PROC
EXTRN	_lua_isstring:PROC
EXTRN	_lua_type:PROC
EXTRN	_lua_tonumberx:PROC
EXTRN	_lua_toboolean:PROC
EXTRN	_lua_tolstring:PROC
EXTRN	_lua_pushcclosure:PROC
EXTRN	_lua_getglobal:PROC
EXTRN	_lua_getfield:PROC
EXTRN	_lua_setglobal:PROC
EXTRN	_lua_pcallk:PROC
EXTRN	_luaL_openlibs:PROC
EXTRN	_luaL_loadfilex:PROC
EXTRN	_luaL_newstate:PROC
EXTRN	??_ECLuaBase@@UAEPAXI@Z:PROC			; CLuaBase::`vector deleting destructor'
EXTRN	??_7type_info@@6B@:QWORD			; type_info::`vftable'
EXTRN	__fltused:DWORD
;	COMDAT ??_R1A@?0A@EA@CLuaBase@@8
rdata$r	SEGMENT
??_R1A@?0A@EA@CLuaBase@@8 DD FLAT:??_R0?AVCLuaBase@@@8	; CLuaBase::`RTTI Base Class Descriptor at (0,-1,0,64)'
	DD	00H
	DD	00H
	DD	0ffffffffH
	DD	00H
	DD	040H
	DD	FLAT:??_R3CLuaBase@@8
rdata$r	ENDS
;	COMDAT ??_R2CLuaBase@@8
rdata$r	SEGMENT
??_R2CLuaBase@@8 DD FLAT:??_R1A@?0A@EA@CLuaBase@@8	; CLuaBase::`RTTI Base Class Array'
rdata$r	ENDS
;	COMDAT ??_R3CLuaBase@@8
rdata$r	SEGMENT
??_R3CLuaBase@@8 DD 00H					; CLuaBase::`RTTI Class Hierarchy Descriptor'
	DD	00H
	DD	01H
	DD	FLAT:??_R2CLuaBase@@8
rdata$r	ENDS
;	COMDAT ??_R0?AVCLuaBase@@@8
data$rs	SEGMENT
??_R0?AVCLuaBase@@@8 DD FLAT:??_7type_info@@6B@		; CLuaBase `RTTI Type Descriptor'
	DD	00H
	DB	'.?AVCLuaBase@@', 00H
data$rs	ENDS
;	COMDAT ??_R4CLuaBase@@6B@
rdata$r	SEGMENT
??_R4CLuaBase@@6B@ DD 00H				; CLuaBase::`RTTI Complete Object Locator'
	DD	00H
	DD	00H
	DD	FLAT:??_R0?AVCLuaBase@@@8
	DD	FLAT:??_R3CLuaBase@@8
rdata$r	ENDS
;	COMDAT ??_C@_08HKLBHHKO@LUA?5?9?5?$CFs@
CONST	SEGMENT
??_C@_08HKLBHHKO@LUA?5?9?5?$CFs@ DB 'LUA - %s', 00H	; `string'
CONST	ENDS
;	COMDAT ??_C@_05MBDEGLCK@ERROR@
CONST	SEGMENT
??_C@_05MBDEGLCK@ERROR@ DB 'ERROR', 00H			; `string'
CONST	ENDS
;	COMDAT ??_C@_05EHILDPJH@TRACE@
CONST	SEGMENT
??_C@_05EHILDPJH@TRACE@ DB 'TRACE', 00H			; `string'
CONST	ENDS
;	COMDAT ??_7CLuaBase@@6B@
CONST	SEGMENT
??_7CLuaBase@@6B@ DD FLAT:??_R4CLuaBase@@6B@		; CLuaBase::`vftable'
	DD	FLAT:??_ECLuaBase@@UAEPAXI@Z
CONST	ENDS
; Function compile flags: /Ogtp
;	COMDAT ??_GCLuaBase@@UAEPAXI@Z
_TEXT	SEGMENT
___flags$ = 8						; size = 4
??_GCLuaBase@@UAEPAXI@Z PROC				; CLuaBase::`scalar deleting destructor', COMDAT
; _this$ = ecx
  00000	55		 push	 ebp
  00001	8b ec		 mov	 ebp, esp
  00003	56		 push	 esi
  00004	8b f1		 mov	 esi, ecx
  00006	e8 00 00 00 00	 call	 ??1CLuaBase@@UAE@XZ	; CLuaBase::~CLuaBase
  0000b	f6 45 08 01	 test	 BYTE PTR ___flags$[ebp], 1
  0000f	74 0b		 je	 SHORT $LN5@scalar
  00011	6a 08		 push	 8
  00013	56		 push	 esi
  00014	e8 00 00 00 00	 call	 ??3@YAXPAXI@Z		; operator delete
  00019	83 c4 08	 add	 esp, 8
$LN5@scalar:
  0001c	8b c6		 mov	 eax, esi
  0001e	5e		 pop	 esi
  0001f	5d		 pop	 ebp
  00020	c2 04 00	 ret	 4
??_GCLuaBase@@UAEPAXI@Z ENDP				; CLuaBase::`scalar deleting destructor'
_TEXT	ENDS
; Function compile flags: /Ogtp
; File C:\IAGOS\server\v18\Source\Source\_Common\LuaBase.cpp
;	COMDAT ?CallLuaFunction@CLuaBase@@QAEXHH@Z
_TEXT	SEGMENT
_nElem$ = 8						; size = 4
_nReturn$ = 12						; size = 4
?CallLuaFunction@CLuaBase@@QAEXHH@Z PROC		; CLuaBase::CallLuaFunction, COMDAT
; _this$ = ecx

; 64   : {

  00000	55		 push	 ebp
  00001	8b ec		 mov	 ebp, esp
  00003	56		 push	 esi

; 65   : 	if( lua_pcall( m_pLuaState, nElem, nReturn, 0 ) != 0 )

  00004	6a 00		 push	 0
  00006	6a 00		 push	 0
  00008	6a 00		 push	 0
  0000a	ff 75 0c	 push	 DWORD PTR _nReturn$[ebp]
  0000d	8b f1		 mov	 esi, ecx
  0000f	ff 75 08	 push	 DWORD PTR _nElem$[ebp]
  00012	ff 76 04	 push	 DWORD PTR [esi+4]
  00015	e8 00 00 00 00	 call	 _lua_pcallk
  0001a	83 c4 18	 add	 esp, 24			; 00000018H
  0001d	85 c0		 test	 eax, eax
  0001f	75 05		 jne	 SHORT $LN7@CallLuaFun
  00021	5e		 pop	 esi

; 69   : 	}
; 70   : }

  00022	5d		 pop	 ebp
  00023	c2 08 00	 ret	 8
$LN7@CallLuaFun:

; 66   : 	{
; 67   : 		Error( ToString( -1 ) );

  00026	6a ff		 push	 -1
  00028	8b ce		 mov	 ecx, esi
  0002a	e8 00 00 00 00	 call	 ?ToString@CLuaBase@@QAEPBDH@Z ; CLuaBase::ToString
  0002f	50		 push	 eax
  00030	e8 00 00 00 00	 call	 ?Error@@YAPBDPBDZZ	; Error
  00035	83 c4 04	 add	 esp, 4

; 68   : 		exit( 0 );

  00038	6a 00		 push	 0
  0003a	e8 00 00 00 00	 call	 _exit
$LN5@CallLuaFun:
  0003f	cc		 int	 3
?CallLuaFunction@CLuaBase@@QAEXHH@Z ENDP		; CLuaBase::CallLuaFunction
_TEXT	ENDS
; Function compile flags: /Ogtp
; File C:\IAGOS\server\v18\Source\Source\_Common\LuaBase.cpp
;	COMDAT ?GetLuaFunction@CLuaBase@@QAEHPAD@Z
_TEXT	SEGMENT
_szFunc$ = 8						; size = 4
?GetLuaFunction@CLuaBase@@QAEHPAD@Z PROC		; CLuaBase::GetLuaFunction, COMDAT
; _this$ = ecx

; 55   : {

  00000	55		 push	 ebp
  00001	8b ec		 mov	 ebp, esp
  00003	56		 push	 esi

; 56   : 	lua_getglobal( m_pLuaState, szFunc );

  00004	ff 75 08	 push	 DWORD PTR _szFunc$[ebp]
  00007	8b f1		 mov	 esi, ecx
  00009	ff 76 04	 push	 DWORD PTR [esi+4]
  0000c	e8 00 00 00 00	 call	 _lua_getglobal

; 57   : 	if( lua_isfunction(m_pLuaState, -1) )

  00011	6a ff		 push	 -1
  00013	ff 76 04	 push	 DWORD PTR [esi+4]
  00016	e8 00 00 00 00	 call	 _lua_type
  0001b	33 c9		 xor	 ecx, ecx
  0001d	83 c4 10	 add	 esp, 16			; 00000010H
  00020	83 f8 06	 cmp	 eax, 6
  00023	0f 94 c1	 sete	 cl

; 58   : 		return true;

  00026	8b c1		 mov	 eax, ecx
  00028	5e		 pop	 esi

; 59   : 	else
; 60   : 		return false;
; 61   : }

  00029	5d		 pop	 ebp
  0002a	c2 04 00	 ret	 4
?GetLuaFunction@CLuaBase@@QAEHPAD@Z ENDP		; CLuaBase::GetLuaFunction
_TEXT	ENDS
; Function compile flags: /Ogtp
; File C:\IAGOS\server\v18\Source\Source\_Common\LuaBase.cpp
; File C:\IAGOS\server\v18\Source\Source\_Common\LuaBase.h
; File C:\IAGOS\server\v18\Source\Source\_Common\LuaBase.cpp
;	COMDAT ?GetFieldToBool@CLuaBase@@QAEHHPAD@Z
_TEXT	SEGMENT
_nStackPos$ = 8						; size = 4
_szName$ = 12						; size = 4
?GetFieldToBool@CLuaBase@@QAEHHPAD@Z PROC		; CLuaBase::GetFieldToBool, COMDAT
; _this$ = ecx

; 138  : {

  00000	55		 push	 ebp
  00001	8b ec		 mov	 ebp, esp
  00003	56		 push	 esi
  00004	57		 push	 edi

; 139  : 	int bValue = 0;
; 140  : 	lua_getfield( m_pLuaState, nStackPos, szName );

  00005	ff 75 0c	 push	 DWORD PTR _szName$[ebp]
  00008	8b f1		 mov	 esi, ecx
  0000a	33 ff		 xor	 edi, edi
  0000c	ff 75 08	 push	 DWORD PTR _nStackPos$[ebp]
  0000f	ff 76 04	 push	 DWORD PTR [esi+4]
  00012	e8 00 00 00 00	 call	 _lua_getfield

; 141  : 	if( lua_isboolean( m_pLuaState, -1 ) )

  00017	6a ff		 push	 -1
  00019	ff 76 04	 push	 DWORD PTR [esi+4]
  0001c	e8 00 00 00 00	 call	 _lua_type
  00021	83 c4 14	 add	 esp, 20			; 00000014H
  00024	83 f8 01	 cmp	 eax, 1
  00027	75 0f		 jne	 SHORT $LN2@GetFieldTo
; File C:\IAGOS\server\v18\Source\Source\_Common\LuaBase.h

; 45   : 	BOOL		ToBool( int nStackPos )						{  return static_cast<BOOL>( lua_toboolean( m_pLuaState, nStackPos ) );  }

  00029	6a ff		 push	 -1
  0002b	ff 76 04	 push	 DWORD PTR [esi+4]
  0002e	e8 00 00 00 00	 call	 _lua_toboolean
  00033	83 c4 08	 add	 esp, 8
; File C:\IAGOS\server\v18\Source\Source\_Common\LuaBase.cpp

; 142  : 		bValue = ToBool( -1 );

  00036	8b f8		 mov	 edi, eax
$LN2@GetFieldTo:

; 143  : 	Pop( 1 );

  00038	6a 01		 push	 1
  0003a	8b ce		 mov	 ecx, esi
  0003c	e8 00 00 00 00	 call	 ?Pop@CLuaBase@@QAEXH@Z	; CLuaBase::Pop

; 144  : 	
; 145  : 	return (bValue == 0 ? FALSE : TRUE );

  00041	33 c0		 xor	 eax, eax
  00043	85 ff		 test	 edi, edi
  00045	5f		 pop	 edi
  00046	0f 95 c0	 setne	 al
  00049	5e		 pop	 esi

; 146  : }

  0004a	5d		 pop	 ebp
  0004b	c2 08 00	 ret	 8
?GetFieldToBool@CLuaBase@@QAEHHPAD@Z ENDP		; CLuaBase::GetFieldToBool
_TEXT	ENDS
; Function compile flags: /Ogtp
; File C:\IAGOS\server\v18\Source\Source\_Common\LuaBase.cpp
; File C:\IAGOS\server\v18\Source\Source\_Common\LuaBase.h
; File C:\IAGOS\server\v18\Source\Source\_Common\LuaBase.cpp
;	COMDAT ?GetFieldToString@CLuaBase@@QAEPBDHPAD@Z
_TEXT	SEGMENT
_nStackPos$ = 8						; size = 4
_szName$ = 12						; size = 4
?GetFieldToString@CLuaBase@@QAEPBDHPAD@Z PROC		; CLuaBase::GetFieldToString, COMDAT
; _this$ = ecx

; 127  : {

  00000	55		 push	 ebp
  00001	8b ec		 mov	 ebp, esp
  00003	56		 push	 esi
  00004	57		 push	 edi

; 128  : 	char* szValue = NULL;
; 129  : 	lua_getfield( m_pLuaState, nStackPos, szName );

  00005	ff 75 0c	 push	 DWORD PTR _szName$[ebp]
  00008	8b f1		 mov	 esi, ecx
  0000a	33 ff		 xor	 edi, edi
  0000c	ff 75 08	 push	 DWORD PTR _nStackPos$[ebp]
  0000f	ff 76 04	 push	 DWORD PTR [esi+4]
  00012	e8 00 00 00 00	 call	 _lua_getfield

; 130  : 	if( lua_isstring( m_pLuaState, -1 ) )

  00017	6a ff		 push	 -1
  00019	ff 76 04	 push	 DWORD PTR [esi+4]
  0001c	e8 00 00 00 00	 call	 _lua_isstring
  00021	83 c4 14	 add	 esp, 20			; 00000014H
  00024	85 c0		 test	 eax, eax
  00026	74 10		 je	 SHORT $LN2@GetFieldTo
; File C:\IAGOS\server\v18\Source\Source\_Common\LuaBase.h

; 44   : 	const char*	ToString( int nStackPos )					{  return lua_tostring( m_pLuaState, nStackPos );  }

  00028	57		 push	 edi
  00029	6a ff		 push	 -1
  0002b	ff 76 04	 push	 DWORD PTR [esi+4]
  0002e	e8 00 00 00 00	 call	 _lua_tolstring
  00033	83 c4 0c	 add	 esp, 12			; 0000000cH
; File C:\IAGOS\server\v18\Source\Source\_Common\LuaBase.cpp

; 131  : 		szValue = (char*)ToString( -1 );

  00036	8b f8		 mov	 edi, eax
$LN2@GetFieldTo:

; 132  : 	Pop( 1 );

  00038	6a 01		 push	 1
  0003a	8b ce		 mov	 ecx, esi
  0003c	e8 00 00 00 00	 call	 ?Pop@CLuaBase@@QAEXH@Z	; CLuaBase::Pop

; 133  : 	
; 134  : 	return szValue;

  00041	8b c7		 mov	 eax, edi
  00043	5f		 pop	 edi
  00044	5e		 pop	 esi

; 135  : }

  00045	5d		 pop	 ebp
  00046	c2 08 00	 ret	 8
?GetFieldToString@CLuaBase@@QAEPBDHPAD@Z ENDP		; CLuaBase::GetFieldToString
_TEXT	ENDS
; Function compile flags: /Ogtp
; File C:\IAGOS\server\v18\Source\Source\_Common\LuaBase.cpp
; File C:\IAGOS\server\v18\Source\Source\_Common\LuaBase.h
; File C:\IAGOS\server\v18\Source\Source\_Common\LuaBase.cpp
;	COMDAT ?GetFieldToNumber@CLuaBase@@QAENHPAD@Z
_TEXT	SEGMENT
_fValue$ = -8						; size = 8
_fValue$1$ = -8						; size = 8
_nStackPos$ = 8						; size = 4
_szName$ = 12						; size = 4
?GetFieldToNumber@CLuaBase@@QAENHPAD@Z PROC		; CLuaBase::GetFieldToNumber, COMDAT
; _this$ = ecx

; 116  : {

  00000	55		 push	 ebp
  00001	8b ec		 mov	 ebp, esp
  00003	83 ec 08	 sub	 esp, 8
  00006	56		 push	 esi

; 117  : 	double fValue = 0;
; 118  : 	lua_getfield( m_pLuaState, nStackPos, szName );

  00007	ff 75 0c	 push	 DWORD PTR _szName$[ebp]
  0000a	8b f1		 mov	 esi, ecx
  0000c	0f 57 c0	 xorps	 xmm0, xmm0
  0000f	ff 75 08	 push	 DWORD PTR _nStackPos$[ebp]
  00012	f2 0f 11 45 f8	 movsd	 QWORD PTR _fValue$[ebp], xmm0
  00017	ff 76 04	 push	 DWORD PTR [esi+4]
  0001a	e8 00 00 00 00	 call	 _lua_getfield

; 119  : 	if( lua_isnumber( m_pLuaState, -1 ) )

  0001f	6a ff		 push	 -1
  00021	ff 76 04	 push	 DWORD PTR [esi+4]
  00024	e8 00 00 00 00	 call	 _lua_isnumber
  00029	83 c4 14	 add	 esp, 20			; 00000014H
  0002c	85 c0		 test	 eax, eax
  0002e	74 11		 je	 SHORT $LN6@GetFieldTo
; File C:\IAGOS\server\v18\Source\Source\_Common\LuaBase.h

; 43   : 	double		ToNumber( int nStackPos )					{  return lua_tonumber( m_pLuaState, nStackPos );  }

  00030	6a 00		 push	 0
  00032	6a ff		 push	 -1
  00034	ff 76 04	 push	 DWORD PTR [esi+4]
  00037	e8 00 00 00 00	 call	 _lua_tonumberx
  0003c	83 c4 0c	 add	 esp, 12			; 0000000cH
; File C:\IAGOS\server\v18\Source\Source\_Common\LuaBase.cpp

; 119  : 	if( lua_isnumber( m_pLuaState, -1 ) )

  0003f	eb 03		 jmp	 SHORT $LN8@GetFieldTo
$LN6@GetFieldTo:
  00041	dd 45 f8	 fld	 QWORD PTR _fValue$[ebp]
$LN8@GetFieldTo:

; 120  : 		fValue = ToNumber( -1 );
; 121  : 	Pop( 1 );

  00044	6a 01		 push	 1
  00046	8b ce		 mov	 ecx, esi
  00048	dd 5d f8	 fstp	 QWORD PTR _fValue$1$[ebp]
  0004b	e8 00 00 00 00	 call	 ?Pop@CLuaBase@@QAEXH@Z	; CLuaBase::Pop

; 122  : 
; 123  : 	return fValue;

  00050	dd 45 f8	 fld	 QWORD PTR _fValue$1$[ebp]
  00053	5e		 pop	 esi

; 124  : }

  00054	8b e5		 mov	 esp, ebp
  00056	5d		 pop	 ebp
  00057	c2 08 00	 ret	 8
?GetFieldToNumber@CLuaBase@@QAENHPAD@Z ENDP		; CLuaBase::GetFieldToNumber
_TEXT	ENDS
; Function compile flags: /Ogtp
; File C:\IAGOS\server\v18\Source\Source\_Common\LuaBase.cpp
; File C:\IAGOS\server\v18\Source\Source\_Common\LuaBase.h
; File C:\IAGOS\server\v18\Source\Source\_Common\LuaBase.cpp
;	COMDAT ?GetGlobalBool@CLuaBase@@QAEHPAD@Z
_TEXT	SEGMENT
_szName$ = 8						; size = 4
?GetGlobalBool@CLuaBase@@QAEHPAD@Z PROC			; CLuaBase::GetGlobalBool, COMDAT
; _this$ = ecx

; 96   : {

  00000	55		 push	 ebp
  00001	8b ec		 mov	 ebp, esp
  00003	56		 push	 esi
  00004	57		 push	 edi

; 97   : 	BOOL bValue = FALSE;
; 98   : 	lua_getglobal( m_pLuaState, szName );

  00005	ff 75 08	 push	 DWORD PTR _szName$[ebp]
  00008	8b f1		 mov	 esi, ecx
  0000a	33 ff		 xor	 edi, edi
  0000c	ff 76 04	 push	 DWORD PTR [esi+4]
  0000f	e8 00 00 00 00	 call	 _lua_getglobal

; 99   : 	if( lua_isboolean( m_pLuaState, -1 ) )

  00014	6a ff		 push	 -1
  00016	ff 76 04	 push	 DWORD PTR [esi+4]
  00019	e8 00 00 00 00	 call	 _lua_type
  0001e	83 c4 10	 add	 esp, 16			; 00000010H
  00021	83 f8 01	 cmp	 eax, 1
  00024	75 0f		 jne	 SHORT $LN2@GetGlobalB
; File C:\IAGOS\server\v18\Source\Source\_Common\LuaBase.h

; 45   : 	BOOL		ToBool( int nStackPos )						{  return static_cast<BOOL>( lua_toboolean( m_pLuaState, nStackPos ) );  }

  00026	6a ff		 push	 -1
  00028	ff 76 04	 push	 DWORD PTR [esi+4]
  0002b	e8 00 00 00 00	 call	 _lua_toboolean
  00030	83 c4 08	 add	 esp, 8
; File C:\IAGOS\server\v18\Source\Source\_Common\LuaBase.cpp

; 100  : 		bValue = ToBool( -1 );

  00033	8b f8		 mov	 edi, eax
$LN2@GetGlobalB:

; 101  : 
; 102  : 	Pop( 1 );

  00035	6a 01		 push	 1
  00037	8b ce		 mov	 ecx, esi
  00039	e8 00 00 00 00	 call	 ?Pop@CLuaBase@@QAEXH@Z	; CLuaBase::Pop

; 103  : 
; 104  : 	return bValue;

  0003e	8b c7		 mov	 eax, edi
  00040	5f		 pop	 edi
  00041	5e		 pop	 esi

; 105  : }

  00042	5d		 pop	 ebp
  00043	c2 04 00	 ret	 4
?GetGlobalBool@CLuaBase@@QAEHPAD@Z ENDP			; CLuaBase::GetGlobalBool
_TEXT	ENDS
; Function compile flags: /Ogtp
; File C:\IAGOS\server\v18\Source\Source\_Common\LuaBase.cpp
; File C:\IAGOS\server\v18\Source\Source\_Common\LuaBase.h
; File C:\IAGOS\server\v18\Source\Source\_Common\LuaBase.cpp
;	COMDAT ?GetGlobalString@CLuaBase@@QAEPBDPAD@Z
_TEXT	SEGMENT
_szName$ = 8						; size = 4
?GetGlobalString@CLuaBase@@QAEPBDPAD@Z PROC		; CLuaBase::GetGlobalString, COMDAT
; _this$ = ecx

; 84   : {

  00000	55		 push	 ebp
  00001	8b ec		 mov	 ebp, esp
  00003	56		 push	 esi
  00004	57		 push	 edi

; 85   : 	char* szValue = NULL;
; 86   : 	lua_getglobal( m_pLuaState, szName );

  00005	ff 75 08	 push	 DWORD PTR _szName$[ebp]
  00008	8b f1		 mov	 esi, ecx
  0000a	33 ff		 xor	 edi, edi
  0000c	ff 76 04	 push	 DWORD PTR [esi+4]
  0000f	e8 00 00 00 00	 call	 _lua_getglobal

; 87   : 	if( lua_isstring( m_pLuaState, -1 ) )

  00014	6a ff		 push	 -1
  00016	ff 76 04	 push	 DWORD PTR [esi+4]
  00019	e8 00 00 00 00	 call	 _lua_isstring
  0001e	83 c4 10	 add	 esp, 16			; 00000010H
  00021	85 c0		 test	 eax, eax
  00023	74 10		 je	 SHORT $LN2@GetGlobalS
; File C:\IAGOS\server\v18\Source\Source\_Common\LuaBase.h

; 44   : 	const char*	ToString( int nStackPos )					{  return lua_tostring( m_pLuaState, nStackPos );  }

  00025	57		 push	 edi
  00026	6a ff		 push	 -1
  00028	ff 76 04	 push	 DWORD PTR [esi+4]
  0002b	e8 00 00 00 00	 call	 _lua_tolstring
  00030	83 c4 0c	 add	 esp, 12			; 0000000cH
; File C:\IAGOS\server\v18\Source\Source\_Common\LuaBase.cpp

; 88   : 		szValue = (char*)ToString( -1 );

  00033	8b f8		 mov	 edi, eax
$LN2@GetGlobalS:

; 89   : 
; 90   : 	Pop( 1 );

  00035	6a 01		 push	 1
  00037	8b ce		 mov	 ecx, esi
  00039	e8 00 00 00 00	 call	 ?Pop@CLuaBase@@QAEXH@Z	; CLuaBase::Pop

; 91   : 
; 92   : 	return szValue;

  0003e	8b c7		 mov	 eax, edi
  00040	5f		 pop	 edi
  00041	5e		 pop	 esi

; 93   : }

  00042	5d		 pop	 ebp
  00043	c2 04 00	 ret	 4
?GetGlobalString@CLuaBase@@QAEPBDPAD@Z ENDP		; CLuaBase::GetGlobalString
_TEXT	ENDS
; Function compile flags: /Ogtp
; File C:\IAGOS\server\v18\Source\Source\_Common\LuaBase.cpp
; File C:\IAGOS\server\v18\Source\Source\_Common\LuaBase.h
; File C:\IAGOS\server\v18\Source\Source\_Common\LuaBase.cpp
;	COMDAT ?GetGlobalNumber@CLuaBase@@QAENPAD@Z
_TEXT	SEGMENT
_fValue$ = -8						; size = 8
_fValue$1$ = -8						; size = 8
_szName$ = 8						; size = 4
?GetGlobalNumber@CLuaBase@@QAENPAD@Z PROC		; CLuaBase::GetGlobalNumber, COMDAT
; _this$ = ecx

; 73   : {

  00000	55		 push	 ebp
  00001	8b ec		 mov	 ebp, esp
  00003	83 ec 08	 sub	 esp, 8
  00006	56		 push	 esi

; 74   : 	double fValue = 0;
; 75   : 	lua_getglobal( m_pLuaState, szName );

  00007	ff 75 08	 push	 DWORD PTR _szName$[ebp]
  0000a	8b f1		 mov	 esi, ecx
  0000c	0f 57 c0	 xorps	 xmm0, xmm0
  0000f	f2 0f 11 45 f8	 movsd	 QWORD PTR _fValue$[ebp], xmm0
  00014	ff 76 04	 push	 DWORD PTR [esi+4]
  00017	e8 00 00 00 00	 call	 _lua_getglobal

; 76   : 	if( lua_isnumber( m_pLuaState, -1 ) )

  0001c	6a ff		 push	 -1
  0001e	ff 76 04	 push	 DWORD PTR [esi+4]
  00021	e8 00 00 00 00	 call	 _lua_isnumber
  00026	83 c4 10	 add	 esp, 16			; 00000010H
  00029	85 c0		 test	 eax, eax
  0002b	74 11		 je	 SHORT $LN6@GetGlobalN
; File C:\IAGOS\server\v18\Source\Source\_Common\LuaBase.h

; 43   : 	double		ToNumber( int nStackPos )					{  return lua_tonumber( m_pLuaState, nStackPos );  }

  0002d	6a 00		 push	 0
  0002f	6a ff		 push	 -1
  00031	ff 76 04	 push	 DWORD PTR [esi+4]
  00034	e8 00 00 00 00	 call	 _lua_tonumberx
  00039	83 c4 0c	 add	 esp, 12			; 0000000cH
; File C:\IAGOS\server\v18\Source\Source\_Common\LuaBase.cpp

; 76   : 	if( lua_isnumber( m_pLuaState, -1 ) )

  0003c	eb 03		 jmp	 SHORT $LN8@GetGlobalN
$LN6@GetGlobalN:
  0003e	dd 45 f8	 fld	 QWORD PTR _fValue$[ebp]
$LN8@GetGlobalN:

; 77   : 		fValue = ToNumber( -1 );
; 78   : 	Pop(1);

  00041	6a 01		 push	 1
  00043	8b ce		 mov	 ecx, esi
  00045	dd 5d f8	 fstp	 QWORD PTR _fValue$1$[ebp]
  00048	e8 00 00 00 00	 call	 ?Pop@CLuaBase@@QAEXH@Z	; CLuaBase::Pop

; 79   : 
; 80   : 	return fValue;

  0004d	dd 45 f8	 fld	 QWORD PTR _fValue$1$[ebp]
  00050	5e		 pop	 esi

; 81   : }

  00051	8b e5		 mov	 esp, ebp
  00053	5d		 pop	 ebp
  00054	c2 04 00	 ret	 4
?GetGlobalNumber@CLuaBase@@QAENPAD@Z ENDP		; CLuaBase::GetGlobalNumber
_TEXT	ENDS
; Function compile flags: /Ogtp
; File C:\IAGOS\server\v18\Source\Source\_Common\LuaBase.h
;	COMDAT ?ToString@CLuaBase@@QAEPBDH@Z
_TEXT	SEGMENT
_nStackPos$ = 8						; size = 4
?ToString@CLuaBase@@QAEPBDH@Z PROC			; CLuaBase::ToString, COMDAT
; _this$ = ecx

; 44   : 	const char*	ToString( int nStackPos )					{  return lua_tostring( m_pLuaState, nStackPos );  }

  00000	55		 push	 ebp
  00001	8b ec		 mov	 ebp, esp
  00003	6a 00		 push	 0
  00005	ff 75 08	 push	 DWORD PTR _nStackPos$[ebp]
  00008	ff 71 04	 push	 DWORD PTR [ecx+4]
  0000b	e8 00 00 00 00	 call	 _lua_tolstring
  00010	83 c4 0c	 add	 esp, 12			; 0000000cH
  00013	5d		 pop	 ebp
  00014	c2 04 00	 ret	 4
?ToString@CLuaBase@@QAEPBDH@Z ENDP			; CLuaBase::ToString
_TEXT	ENDS
; Function compile flags: /Ogtp
; File C:\IAGOS\server\v18\Source\Source\_Common\LuaBase.cpp
;	COMDAT ?Pop@CLuaBase@@QAEXH@Z
_TEXT	SEGMENT
_nPop$ = 8						; size = 4
?Pop@CLuaBase@@QAEXH@Z PROC				; CLuaBase::Pop, COMDAT
; _this$ = ecx

; 108  : {  

  00000	55		 push	 ebp
  00001	8b ec		 mov	 ebp, esp
  00003	8b 55 08	 mov	 edx, DWORD PTR _nPop$[ebp]

; 109  : 	if( nPop == 0 )
; 110  : 		lua_settop( m_pLuaState, 0 );
; 111  : 	else
; 112  : 		lua_pop( m_pLuaState, nPop );
; 113  : }

  00006	8b c2		 mov	 eax, edx
  00008	f7 da		 neg	 edx
  0000a	f7 d0		 not	 eax
  0000c	1b d2		 sbb	 edx, edx
  0000e	23 d0		 and	 edx, eax
  00010	52		 push	 edx
  00011	ff 71 04	 push	 DWORD PTR [ecx+4]
  00014	e8 00 00 00 00	 call	 _lua_settop
  00019	83 c4 08	 add	 esp, 8
  0001c	5d		 pop	 ebp
  0001d	c2 04 00	 ret	 4
?Pop@CLuaBase@@QAEXH@Z ENDP				; CLuaBase::Pop
_TEXT	ENDS
; Function compile flags: /Ogtp
; File C:\IAGOS\server\v18\Source\Source\_Common\LuaBase.cpp
; File C:\IAGOS\server\v18\Source\Source\_Common\LuaBase.h
; File C:\IAGOS\server\v18\Source\Source\_Common\LuaBase.cpp
;	COMDAT ?RunScript@CLuaBase@@QAEHPBD@Z
_TEXT	SEGMENT
_szFileName$ = 8					; size = 4
?RunScript@CLuaBase@@QAEHPBD@Z PROC			; CLuaBase::RunScript, COMDAT
; _this$ = ecx

; 46   : {

  00000	55		 push	 ebp
  00001	8b ec		 mov	 ebp, esp
  00003	56		 push	 esi
  00004	8b f1		 mov	 esi, ecx

; 47   : 	int nReturn = luaL_dofile( m_pLuaState, szFileName );

  00006	6a 00		 push	 0
  00008	ff 75 08	 push	 DWORD PTR _szFileName$[ebp]
  0000b	ff 76 04	 push	 DWORD PTR [esi+4]
  0000e	e8 00 00 00 00	 call	 _luaL_loadfilex
  00013	83 c4 0c	 add	 esp, 12			; 0000000cH
  00016	85 c0		 test	 eax, eax
  00018	75 1a		 jne	 SHORT $LN4@RunScript
  0001a	50		 push	 eax
  0001b	50		 push	 eax
  0001c	50		 push	 eax
  0001d	6a ff		 push	 -1
  0001f	50		 push	 eax
  00020	ff 76 04	 push	 DWORD PTR [esi+4]
  00023	e8 00 00 00 00	 call	 _lua_pcallk
  00028	83 c4 18	 add	 esp, 24			; 00000018H
  0002b	85 c0		 test	 eax, eax
  0002d	75 05		 jne	 SHORT $LN4@RunScript
  0002f	5e		 pop	 esi

; 52   : }

  00030	5d		 pop	 ebp
  00031	c2 04 00	 ret	 4
$LN4@RunScript:
; File C:\IAGOS\server\v18\Source\Source\_Common\LuaBase.h

; 44   : 	const char*	ToString( int nStackPos )					{  return lua_tostring( m_pLuaState, nStackPos );  }

  00034	6a 00		 push	 0
  00036	6a ff		 push	 -1
  00038	ff 76 04	 push	 DWORD PTR [esi+4]
  0003b	e8 00 00 00 00	 call	 _lua_tolstring
; File C:\IAGOS\server\v18\Source\Source\_Common\LuaBase.cpp

; 49   : 		Error( ToString( -1 ) );

  00040	50		 push	 eax
  00041	e8 00 00 00 00	 call	 ?Error@@YAPBDPBDZZ	; Error
  00046	83 c4 10	 add	 esp, 16			; 00000010H

; 50   : 	
; 51   : 	return nReturn;

  00049	b8 01 00 00 00	 mov	 eax, 1
  0004e	5e		 pop	 esi

; 52   : }

  0004f	5d		 pop	 ebp
  00050	c2 04 00	 ret	 4
?RunScript@CLuaBase@@QAEHPBD@Z ENDP			; CLuaBase::RunScript
_TEXT	ENDS
; Function compile flags: /Ogtp
; File C:\IAGOS\server\v18\Source\Source\_Common\LuaBase.cpp
;	COMDAT ?RegisterFunction@CLuaBase@@QAEXPADP6AHPAUlua_State@@@Z@Z
_TEXT	SEGMENT
_szFromLuaFunc$ = 8					; size = 4
_ToCFunc$ = 12						; size = 4
?RegisterFunction@CLuaBase@@QAEXPADP6AHPAUlua_State@@@Z@Z PROC ; CLuaBase::RegisterFunction, COMDAT
; _this$ = ecx

; 41   : {

  00000	55		 push	 ebp
  00001	8b ec		 mov	 ebp, esp
  00003	56		 push	 esi
  00004	8b f1		 mov	 esi, ecx

; 42   : 	lua_register( m_pLuaState, szFromLuaFunc, ToCFunc );

  00006	6a 00		 push	 0
  00008	ff 75 0c	 push	 DWORD PTR _ToCFunc$[ebp]
  0000b	ff 76 04	 push	 DWORD PTR [esi+4]
  0000e	e8 00 00 00 00	 call	 _lua_pushcclosure
  00013	ff 75 08	 push	 DWORD PTR _szFromLuaFunc$[ebp]
  00016	ff 76 04	 push	 DWORD PTR [esi+4]
  00019	e8 00 00 00 00	 call	 _lua_setglobal
  0001e	83 c4 14	 add	 esp, 20			; 00000014H
  00021	5e		 pop	 esi

; 43   : }

  00022	5d		 pop	 ebp
  00023	c2 08 00	 ret	 8
?RegisterFunction@CLuaBase@@QAEXPADP6AHPAUlua_State@@@Z@Z ENDP ; CLuaBase::RegisterFunction
_TEXT	ENDS
; Function compile flags: /Ogtp
; File C:\IAGOS\server\v18\Source\Source\_Common\LuaBase.cpp
;	COMDAT ?_ERROR@CLuaBase@@SAHPAUlua_State@@@Z
_TEXT	SEGMENT
_pLuaState$ = 8						; size = 4
?_ERROR@CLuaBase@@SAHPAUlua_State@@@Z PROC		; CLuaBase::_ERROR, COMDAT

; 34   : {

  00000	55		 push	 ebp
  00001	8b ec		 mov	 ebp, esp

; 35   : 	Error( "LUA - %s", lua_tostring(pLuaState, -1) );

  00003	6a 00		 push	 0
  00005	6a ff		 push	 -1
  00007	ff 75 08	 push	 DWORD PTR _pLuaState$[ebp]
  0000a	e8 00 00 00 00	 call	 _lua_tolstring
  0000f	50		 push	 eax
  00010	68 00 00 00 00	 push	 OFFSET ??_C@_08HKLBHHKO@LUA?5?9?5?$CFs@
  00015	e8 00 00 00 00	 call	 ?Error@@YAPBDPBDZZ	; Error
  0001a	83 c4 14	 add	 esp, 20			; 00000014H

; 36   : 
; 37   : 	return 0;

  0001d	33 c0		 xor	 eax, eax

; 38   : }

  0001f	5d		 pop	 ebp
  00020	c3		 ret	 0
?_ERROR@CLuaBase@@SAHPAUlua_State@@@Z ENDP		; CLuaBase::_ERROR
_TEXT	ENDS
; Function compile flags: /Ogtp
; File C:\IAGOS\server\v18\Source\Source\_Common\LuaBase.cpp
;	COMDAT ?_TRACE@CLuaBase@@SAHPAUlua_State@@@Z
_TEXT	SEGMENT
_pLuaState$ = 8						; size = 4
?_TRACE@CLuaBase@@SAHPAUlua_State@@@Z PROC		; CLuaBase::_TRACE, COMDAT

; 28   : 	TRACE( "LUA - %s\n", lua_tostring(pLuaState, -1) );
; 29   : 
; 30   : 	return 0;

  00000	33 c0		 xor	 eax, eax

; 31   : }

  00002	c3		 ret	 0
?_TRACE@CLuaBase@@SAHPAUlua_State@@@Z ENDP		; CLuaBase::_TRACE
_TEXT	ENDS
; Function compile flags: /Ogtp
; File C:\IAGOS\server\v18\Source\Source\_Common\LuaBase.cpp
;	COMDAT ??1CLuaBase@@UAE@XZ
_TEXT	SEGMENT
??1CLuaBase@@UAE@XZ PROC				; CLuaBase::~CLuaBase, COMDAT
; _this$ = ecx

; 22   : 	if( m_pLuaState )

  00000	8b 41 04	 mov	 eax, DWORD PTR [ecx+4]
  00003	c7 01 00 00 00
	00		 mov	 DWORD PTR [ecx], OFFSET ??_7CLuaBase@@6B@
  00009	85 c0		 test	 eax, eax
  0000b	74 07		 je	 SHORT $LN2@CLuaBase

; 23   : 		lua_close( m_pLuaState );

  0000d	50		 push	 eax
  0000e	e8 00 00 00 00	 call	 _lua_close
  00013	59		 pop	 ecx
$LN2@CLuaBase:

; 24   : }

  00014	c3		 ret	 0
??1CLuaBase@@UAE@XZ ENDP				; CLuaBase::~CLuaBase
_TEXT	ENDS
; Function compile flags: /Ogtp
; File C:\IAGOS\server\v18\Source\Source\_Common\LuaBase.cpp
;	COMDAT ??0CLuaBase@@QAE@XZ
_TEXT	SEGMENT
??0CLuaBase@@QAE@XZ PROC				; CLuaBase::CLuaBase, COMDAT
; _this$ = ecx

; 13   : {

  00000	56		 push	 esi
  00001	8b f1		 mov	 esi, ecx
  00003	c7 06 00 00 00
	00		 mov	 DWORD PTR [esi], OFFSET ??_7CLuaBase@@6B@

; 14   : 	m_pLuaState = luaL_newstate();

  00009	e8 00 00 00 00	 call	 _luaL_newstate

; 15   : 	luaL_openlibs(m_pLuaState);

  0000e	50		 push	 eax
  0000f	89 46 04	 mov	 DWORD PTR [esi+4], eax
  00012	e8 00 00 00 00	 call	 _luaL_openlibs
  00017	83 c4 04	 add	 esp, 4

; 16   : 	RegisterFunction("TRACE", _TRACE);

  0001a	8b ce		 mov	 ecx, esi
  0001c	68 00 00 00 00	 push	 OFFSET ?_TRACE@CLuaBase@@SAHPAUlua_State@@@Z ; CLuaBase::_TRACE
  00021	68 00 00 00 00	 push	 OFFSET ??_C@_05EHILDPJH@TRACE@
  00026	e8 00 00 00 00	 call	 ?RegisterFunction@CLuaBase@@QAEXPADP6AHPAUlua_State@@@Z@Z ; CLuaBase::RegisterFunction

; 17   : 	RegisterFunction("ERROR", _ERROR);

  0002b	68 00 00 00 00	 push	 OFFSET ?_ERROR@CLuaBase@@SAHPAUlua_State@@@Z ; CLuaBase::_ERROR
  00030	68 00 00 00 00	 push	 OFFSET ??_C@_05MBDEGLCK@ERROR@
  00035	8b ce		 mov	 ecx, esi
  00037	e8 00 00 00 00	 call	 ?RegisterFunction@CLuaBase@@QAEXPADP6AHPAUlua_State@@@Z@Z ; CLuaBase::RegisterFunction

; 18   : }

  0003c	8b c6		 mov	 eax, esi
  0003e	5e		 pop	 esi
  0003f	c3		 ret	 0
??0CLuaBase@@QAE@XZ ENDP				; CLuaBase::CLuaBase
_TEXT	ENDS
; Function compile flags: /Ogtp
; File C:\IAGOS\server\v18\Source\Source\_Common\LuaBase.cpp
;	COMDAT ?__empty_global_delete@@YAXPAXI@Z
_TEXT	SEGMENT
___formal$ = 8						; size = 4
___formal$ = 12						; size = 4
?__empty_global_delete@@YAXPAXI@Z PROC			; __empty_global_delete, COMDAT

  00000	c2 00 00	 ret	 0
?__empty_global_delete@@YAXPAXI@Z ENDP			; __empty_global_delete
_TEXT	ENDS
; Function compile flags: /Ogtp
; File C:\IAGOS\server\v18\Source\Source\_Common\LuaBase.cpp
;	COMDAT ?__empty_global_delete@@YAXPAX@Z
_TEXT	SEGMENT
___formal$ = 8						; size = 4
?__empty_global_delete@@YAXPAX@Z PROC			; __empty_global_delete, COMDAT

  00000	c2 00 00	 ret	 0
?__empty_global_delete@@YAXPAX@Z ENDP			; __empty_global_delete
_TEXT	ENDS
END
