; Listing generated by Microsoft (R) Optimizing Compiler Version 19.44.35225.0 

	TITLE	C:\IAGOS\server\v18\Source\Output\WorldServer\Release\MiniGameBase.obj
	.686P
	.XMM
	include listing.inc
	.model	flat

INCLUDELIB LIBCMT
INCLUDELIB OLDNAMES

CONST	SEGMENT
?piecewise_construct@std@@3Upiecewise_construct_t@1@B	ORG $+1 ; std::piecewise_construct
CONST	ENDS
PUBLIC	?__empty_global_delete@@YAXPAX@Z		; __empty_global_delete
PUBLIC	?__empty_global_delete@@YAXPAXI@Z		; __empty_global_delete
PUBLIC	??0exception@std@@QAE@ABV01@@Z			; std::exception::exception
PUBLIC	??1exception@std@@UAE@XZ			; std::exception::~exception
PUBLIC	?what@exception@std@@UBEPBDXZ			; std::exception::what
PUBLIC	??_Gexception@std@@UAEPAXI@Z			; std::exception::`scalar deleting destructor'
PUBLIC	??0bad_alloc@std@@QAE@ABV01@@Z			; std::bad_alloc::bad_alloc
PUBLIC	??_Gbad_alloc@std@@UAEPAXI@Z			; std::bad_alloc::`scalar deleting destructor'
PUBLIC	??0bad_array_new_length@std@@QAE@XZ		; std::bad_array_new_length::bad_array_new_length
PUBLIC	??1bad_array_new_length@std@@UAE@XZ		; std::bad_array_new_length::~bad_array_new_length
PUBLIC	??0bad_array_new_length@std@@QAE@ABV01@@Z	; std::bad_array_new_length::bad_array_new_length
PUBLIC	??_Gbad_array_new_length@std@@UAEPAXI@Z		; std::bad_array_new_length::`scalar deleting destructor'
PUBLIC	?_Throw_bad_array_new_length@std@@YAXXZ		; std::_Throw_bad_array_new_length
PUBLIC	?_Xlen_string@std@@YAXXZ			; std::_Xlen_string
PUBLIC	??1?$basic_string@DU?$char_traits@D@std@@V?$allocator@D@2@@std@@QAE@XZ ; std::basic_string<char,std::char_traits<char>,std::allocator<char> >::~basic_string<char,std::char_traits<char>,std::allocator<char> >
PUBLIC	??$_Allocate_manually_vector_aligned@U_Default_allocate_traits@std@@@std@@YAPAXI@Z ; std::_Allocate_manually_vector_aligned<std::_Default_allocate_traits>
PUBLIC	?Serialize@__MINIGAME_PACKET@@UAEXAAVCAr@@@Z	; __MINIGAME_PACKET::Serialize
PUBLIC	??$?6G@CAr@@QAEAAV0@ABG@Z			; CAr::operator<<<unsigned short>
PUBLIC	??$?6H@CAr@@QAEAAV0@ABH@Z			; CAr::operator<<<int>
PUBLIC	??$?5G@CAr@@QAEAAV0@AAG@Z			; CAr::operator>><unsigned short>
PUBLIC	??$?5H@CAr@@QAEAAV0@AAH@Z			; CAr::operator>><int>
PUBLIC	?_Tidy@?$vector@V?$basic_string@DU?$char_traits@D@std@@V?$allocator@D@2@@std@@V?$allocator@V?$basic_string@DU?$char_traits@D@std@@V?$allocator@D@2@@std@@@2@@std@@AAEXXZ ; std::vector<std::basic_string<char,std::char_traits<char>,std::allocator<char> >,std::allocator<std::basic_string<char,std::char_traits<char>,std::allocator<char> > > >::_Tidy
PUBLIC	?_Xlength@?$vector@V?$basic_string@DU?$char_traits@D@std@@V?$allocator@D@2@@std@@V?$allocator@V?$basic_string@DU?$char_traits@D@std@@V?$allocator@D@2@@std@@@2@@std@@CAXXZ ; std::vector<std::basic_string<char,std::char_traits<char>,std::allocator<char> >,std::allocator<std::basic_string<char,std::char_traits<char>,std::allocator<char> > > >::_Xlength
PUBLIC	?Serialize@__MINIGAME_EXT_PACKET@@UAEXAAVCAr@@@Z ; __MINIGAME_EXT_PACKET::Serialize
PUBLIC	??1__MINIGAME_EXT_PACKET@@QAE@XZ		; __MINIGAME_EXT_PACKET::~__MINIGAME_EXT_PACKET
PUBLIC	??$?6I@CAr@@QAEAAV0@ABI@Z			; CAr::operator<<<unsigned int>
PUBLIC	??0CMiniGameBase@@QAE@XZ			; CMiniGameBase::CMiniGameBase
PUBLIC	??1CMiniGameBase@@UAE@XZ			; CMiniGameBase::~CMiniGameBase
PUBLIC	?SendPacket@CMiniGameBase@@QAEXPAVCUser@@U__MINIGAME_PACKET@@@Z ; CMiniGameBase::SendPacket
PUBLIC	?SendExtPacket@CMiniGameBase@@QAEXPAVCUser@@U__MINIGAME_EXT_PACKET@@@Z ; CMiniGameBase::SendExtPacket
PUBLIC	??_GCMiniGameBase@@UAEPAXI@Z			; CMiniGameBase::`scalar deleting destructor'
PUBLIC	??$_Construct_n@ABQAV?$basic_string@DU?$char_traits@D@std@@V?$allocator@D@2@@std@@ABQAV12@@?$vector@V?$basic_string@DU?$char_traits@D@std@@V?$allocator@D@2@@std@@V?$allocator@V?$basic_string@DU?$char_traits@D@std@@V?$allocator@D@2@@std@@@2@@std@@AAEXIABQAV?$basic_string@DU?$char_traits@D@std@@V?$allocator@D@2@@1@0@Z ; std::vector<std::basic_string<char,std::char_traits<char>,std::allocator<char> >,std::allocator<std::basic_string<char,std::char_traits<char>,std::allocator<char> > > >::_Construct_n<std::basic_string<char,std::char_traits<char>,std::allocator<char> > * const &,std::basic_string<char,std::char_traits<char>,std::allocator<char> > * const &>
PUBLIC	??$_Emplace_reallocate@V?$basic_string@DU?$char_traits@D@std@@V?$allocator@D@2@@std@@@?$vector@V?$basic_string@DU?$char_traits@D@std@@V?$allocator@D@2@@std@@V?$allocator@V?$basic_string@DU?$char_traits@D@std@@V?$allocator@D@2@@std@@@2@@std@@AAEPAV?$basic_string@DU?$char_traits@D@std@@V?$allocator@D@2@@1@QAV21@$$QAV21@@Z ; std::vector<std::basic_string<char,std::char_traits<char>,std::allocator<char> >,std::allocator<std::basic_string<char,std::char_traits<char>,std::allocator<char> > > >::_Emplace_reallocate<std::basic_string<char,std::char_traits<char>,std::allocator<char> > >
PUBLIC	??1?$_Tidy_guard@V?$vector@V?$basic_string@DU?$char_traits@D@std@@V?$allocator@D@2@@std@@V?$allocator@V?$basic_string@DU?$char_traits@D@std@@V?$allocator@D@2@@std@@@2@@std@@@std@@QAE@XZ ; std::_Tidy_guard<std::vector<std::basic_string<char,std::char_traits<char>,std::allocator<char> >,std::allocator<std::basic_string<char,std::char_traits<char>,std::allocator<char> > > > >::~_Tidy_guard<std::vector<std::basic_string<char,std::char_traits<char>,std::allocator<char> >,std::allocator<std::basic_string<char,std::char_traits<char>,std::allocator<char> > > > >
PUBLIC	??$_Uninitialized_move@PAV?$basic_string@DU?$char_traits@D@std@@V?$allocator@D@2@@std@@V?$allocator@V?$basic_string@DU?$char_traits@D@std@@V?$allocator@D@2@@std@@@2@@std@@YAPAV?$basic_string@DU?$char_traits@D@std@@V?$allocator@D@2@@0@QAV10@0PAV10@AAV?$allocator@V?$basic_string@DU?$char_traits@D@std@@V?$allocator@D@2@@std@@@0@@Z ; std::_Uninitialized_move<std::basic_string<char,std::char_traits<char>,std::allocator<char> > *,std::allocator<std::basic_string<char,std::char_traits<char>,std::allocator<char> > > >
PUBLIC	??1?$_Uninitialized_backout_al@V?$allocator@V?$basic_string@DU?$char_traits@D@std@@V?$allocator@D@2@@std@@@std@@@std@@QAE@XZ ; std::_Uninitialized_backout_al<std::allocator<std::basic_string<char,std::char_traits<char>,std::allocator<char> > > >::~_Uninitialized_backout_al<std::allocator<std::basic_string<char,std::char_traits<char>,std::allocator<char> > > >
PUBLIC	??_7exception@std@@6B@				; std::exception::`vftable'
PUBLIC	??_C@_0BC@EOODALEL@Unknown?5exception@		; `string'
PUBLIC	??_7bad_alloc@std@@6B@				; std::bad_alloc::`vftable'
PUBLIC	??_7bad_array_new_length@std@@6B@		; std::bad_array_new_length::`vftable'
PUBLIC	??_C@_0BF@KINCDENJ@bad?5array?5new?5length@	; `string'
PUBLIC	??_R0?AVexception@std@@@8			; std::exception `RTTI Type Descriptor'
PUBLIC	__CT??_R0?AVexception@std@@@8??0exception@std@@QAE@ABV01@@Z12
PUBLIC	__TI3?AVbad_array_new_length@std@@
PUBLIC	__CTA3?AVbad_array_new_length@std@@
PUBLIC	??_R0?AVbad_array_new_length@std@@@8		; std::bad_array_new_length `RTTI Type Descriptor'
PUBLIC	__CT??_R0?AVbad_array_new_length@std@@@8??0bad_array_new_length@std@@QAE@ABV01@@Z12
PUBLIC	??_R0?AVbad_alloc@std@@@8			; std::bad_alloc `RTTI Type Descriptor'
PUBLIC	__CT??_R0?AVbad_alloc@std@@@8??0bad_alloc@std@@QAE@ABV01@@Z12
PUBLIC	??_C@_0BA@JFNIOLAK@string?5too?5long@		; `string'
PUBLIC	??_C@_0BA@FOIKENOD@vector?5too?5long@		; `string'
PUBLIC	??_R4exception@std@@6B@				; std::exception::`RTTI Complete Object Locator'
PUBLIC	??_R3exception@std@@8				; std::exception::`RTTI Class Hierarchy Descriptor'
PUBLIC	??_R2exception@std@@8				; std::exception::`RTTI Base Class Array'
PUBLIC	??_R1A@?0A@EA@exception@std@@8			; std::exception::`RTTI Base Class Descriptor at (0,-1,0,64)'
PUBLIC	??_R4bad_array_new_length@std@@6B@		; std::bad_array_new_length::`RTTI Complete Object Locator'
PUBLIC	??_R3bad_array_new_length@std@@8		; std::bad_array_new_length::`RTTI Class Hierarchy Descriptor'
PUBLIC	??_R2bad_array_new_length@std@@8		; std::bad_array_new_length::`RTTI Base Class Array'
PUBLIC	??_R1A@?0A@EA@bad_array_new_length@std@@8	; std::bad_array_new_length::`RTTI Base Class Descriptor at (0,-1,0,64)'
PUBLIC	??_R1A@?0A@EA@bad_alloc@std@@8			; std::bad_alloc::`RTTI Base Class Descriptor at (0,-1,0,64)'
PUBLIC	??_R3bad_alloc@std@@8				; std::bad_alloc::`RTTI Class Hierarchy Descriptor'
PUBLIC	??_R2bad_alloc@std@@8				; std::bad_alloc::`RTTI Base Class Array'
PUBLIC	??_R4bad_alloc@std@@6B@				; std::bad_alloc::`RTTI Complete Object Locator'
PUBLIC	??_7__MINIGAME_PACKET@@6B@			; __MINIGAME_PACKET::`vftable'
PUBLIC	??_7__MINIGAME_EXT_PACKET@@6B@			; __MINIGAME_EXT_PACKET::`vftable'
PUBLIC	??_7CMiniGameBase@@6B@				; CMiniGameBase::`vftable'
PUBLIC	??_R4__MINIGAME_PACKET@@6B@			; __MINIGAME_PACKET::`RTTI Complete Object Locator'
PUBLIC	??_R0?AU__MINIGAME_PACKET@@@8			; __MINIGAME_PACKET `RTTI Type Descriptor'
PUBLIC	??_R3__MINIGAME_PACKET@@8			; __MINIGAME_PACKET::`RTTI Class Hierarchy Descriptor'
PUBLIC	??_R2__MINIGAME_PACKET@@8			; __MINIGAME_PACKET::`RTTI Base Class Array'
PUBLIC	??_R1A@?0A@EA@__MINIGAME_PACKET@@8		; __MINIGAME_PACKET::`RTTI Base Class Descriptor at (0,-1,0,64)'
PUBLIC	??_R4__MINIGAME_EXT_PACKET@@6B@			; __MINIGAME_EXT_PACKET::`RTTI Complete Object Locator'
PUBLIC	??_R0?AU__MINIGAME_EXT_PACKET@@@8		; __MINIGAME_EXT_PACKET `RTTI Type Descriptor'
PUBLIC	??_R3__MINIGAME_EXT_PACKET@@8			; __MINIGAME_EXT_PACKET::`RTTI Class Hierarchy Descriptor'
PUBLIC	??_R2__MINIGAME_EXT_PACKET@@8			; __MINIGAME_EXT_PACKET::`RTTI Base Class Array'
PUBLIC	??_R1A@?0A@EA@__MINIGAME_EXT_PACKET@@8		; __MINIGAME_EXT_PACKET::`RTTI Base Class Descriptor at (0,-1,0,64)'
PUBLIC	??_R4CMiniGameBase@@6B@				; CMiniGameBase::`RTTI Complete Object Locator'
PUBLIC	??_R0?AVCMiniGameBase@@@8			; CMiniGameBase `RTTI Type Descriptor'
PUBLIC	??_R3CMiniGameBase@@8				; CMiniGameBase::`RTTI Class Hierarchy Descriptor'
PUBLIC	??_R2CMiniGameBase@@8				; CMiniGameBase::`RTTI Base Class Array'
PUBLIC	??_R1A@?0A@EA@CMiniGameBase@@8			; CMiniGameBase::`RTTI Base Class Descriptor at (0,-1,0,64)'
EXTRN	__purecall:PROC
EXTRN	??2@YAPAXI@Z:PROC				; operator new
EXTRN	??3@YAXPAXI@Z:PROC				; operator delete
EXTRN	__invoke_watson:PROC
EXTRN	___std_exception_copy:PROC
EXTRN	___std_exception_destroy:PROC
EXTRN	??_Eexception@std@@UAEPAXI@Z:PROC		; std::exception::`vector deleting destructor'
EXTRN	??_Ebad_alloc@std@@UAEPAXI@Z:PROC		; std::bad_alloc::`vector deleting destructor'
EXTRN	??_Ebad_array_new_length@std@@UAEPAXI@Z:PROC	; std::bad_array_new_length::`vector deleting destructor'
EXTRN	?_Xlength_error@std@@YAXPBD@Z:PROC		; std::_Xlength_error
EXTRN	?CheckBuf@CAr@@QAEXI@Z:PROC			; CAr::CheckBuf
EXTRN	?WriteString@CAr@@QAEXPBD@Z:PROC		; CAr::WriteString
EXTRN	?ReadString@CAr@@QAEPADPADH@Z:PROC		; CAr::ReadString
EXTRN	??_ECMiniGameBase@@UAEPAXI@Z:PROC		; CMiniGameBase::`vector deleting destructor'
EXTRN	?AddMiniGameState@CUser@@QAEXU__MINIGAME_PACKET@@@Z:PROC ; CUser::AddMiniGameState
EXTRN	?AddMiniGameExtState@CUser@@QAEXU__MINIGAME_EXT_PACKET@@@Z:PROC ; CUser::AddMiniGameExtState
EXTRN	@__security_check_cookie@4:PROC
EXTRN	__CxxThrowException@8:PROC
EXTRN	___CxxFrameHandler3:PROC
EXTRN	_memcpy:PROC
EXTRN	_memset:PROC
EXTRN	??_7type_info@@6B@:QWORD			; type_info::`vftable'
EXTRN	___security_cookie:DWORD
;	COMDAT ??_R1A@?0A@EA@CMiniGameBase@@8
rdata$r	SEGMENT
??_R1A@?0A@EA@CMiniGameBase@@8 DD FLAT:??_R0?AVCMiniGameBase@@@8 ; CMiniGameBase::`RTTI Base Class Descriptor at (0,-1,0,64)'
	DD	00H
	DD	00H
	DD	0ffffffffH
	DD	00H
	DD	040H
	DD	FLAT:??_R3CMiniGameBase@@8
rdata$r	ENDS
;	COMDAT ??_R2CMiniGameBase@@8
rdata$r	SEGMENT
??_R2CMiniGameBase@@8 DD FLAT:??_R1A@?0A@EA@CMiniGameBase@@8 ; CMiniGameBase::`RTTI Base Class Array'
rdata$r	ENDS
;	COMDAT ??_R3CMiniGameBase@@8
rdata$r	SEGMENT
??_R3CMiniGameBase@@8 DD 00H				; CMiniGameBase::`RTTI Class Hierarchy Descriptor'
	DD	00H
	DD	01H
	DD	FLAT:??_R2CMiniGameBase@@8
rdata$r	ENDS
;	COMDAT ??_R0?AVCMiniGameBase@@@8
data$rs	SEGMENT
??_R0?AVCMiniGameBase@@@8 DD FLAT:??_7type_info@@6B@	; CMiniGameBase `RTTI Type Descriptor'
	DD	00H
	DB	'.?AVCMiniGameBase@@', 00H
data$rs	ENDS
;	COMDAT ??_R4CMiniGameBase@@6B@
rdata$r	SEGMENT
??_R4CMiniGameBase@@6B@ DD 00H				; CMiniGameBase::`RTTI Complete Object Locator'
	DD	00H
	DD	00H
	DD	FLAT:??_R0?AVCMiniGameBase@@@8
	DD	FLAT:??_R3CMiniGameBase@@8
rdata$r	ENDS
;	COMDAT ??_R1A@?0A@EA@__MINIGAME_EXT_PACKET@@8
rdata$r	SEGMENT
??_R1A@?0A@EA@__MINIGAME_EXT_PACKET@@8 DD FLAT:??_R0?AU__MINIGAME_EXT_PACKET@@@8 ; __MINIGAME_EXT_PACKET::`RTTI Base Class Descriptor at (0,-1,0,64)'
	DD	01H
	DD	00H
	DD	0ffffffffH
	DD	00H
	DD	040H
	DD	FLAT:??_R3__MINIGAME_EXT_PACKET@@8
rdata$r	ENDS
;	COMDAT ??_R2__MINIGAME_EXT_PACKET@@8
rdata$r	SEGMENT
??_R2__MINIGAME_EXT_PACKET@@8 DD FLAT:??_R1A@?0A@EA@__MINIGAME_EXT_PACKET@@8 ; __MINIGAME_EXT_PACKET::`RTTI Base Class Array'
	DD	FLAT:??_R1A@?0A@EA@__MINIGAME_PACKET@@8
rdata$r	ENDS
;	COMDAT ??_R3__MINIGAME_EXT_PACKET@@8
rdata$r	SEGMENT
??_R3__MINIGAME_EXT_PACKET@@8 DD 00H			; __MINIGAME_EXT_PACKET::`RTTI Class Hierarchy Descriptor'
	DD	00H
	DD	02H
	DD	FLAT:??_R2__MINIGAME_EXT_PACKET@@8
rdata$r	ENDS
;	COMDAT ??_R0?AU__MINIGAME_EXT_PACKET@@@8
data$rs	SEGMENT
??_R0?AU__MINIGAME_EXT_PACKET@@@8 DD FLAT:??_7type_info@@6B@ ; __MINIGAME_EXT_PACKET `RTTI Type Descriptor'
	DD	00H
	DB	'.?AU__MINIGAME_EXT_PACKET@@', 00H
data$rs	ENDS
;	COMDAT ??_R4__MINIGAME_EXT_PACKET@@6B@
rdata$r	SEGMENT
??_R4__MINIGAME_EXT_PACKET@@6B@ DD 00H			; __MINIGAME_EXT_PACKET::`RTTI Complete Object Locator'
	DD	00H
	DD	00H
	DD	FLAT:??_R0?AU__MINIGAME_EXT_PACKET@@@8
	DD	FLAT:??_R3__MINIGAME_EXT_PACKET@@8
rdata$r	ENDS
;	COMDAT ??_R1A@?0A@EA@__MINIGAME_PACKET@@8
rdata$r	SEGMENT
??_R1A@?0A@EA@__MINIGAME_PACKET@@8 DD FLAT:??_R0?AU__MINIGAME_PACKET@@@8 ; __MINIGAME_PACKET::`RTTI Base Class Descriptor at (0,-1,0,64)'
	DD	00H
	DD	00H
	DD	0ffffffffH
	DD	00H
	DD	040H
	DD	FLAT:??_R3__MINIGAME_PACKET@@8
rdata$r	ENDS
;	COMDAT ??_R2__MINIGAME_PACKET@@8
rdata$r	SEGMENT
??_R2__MINIGAME_PACKET@@8 DD FLAT:??_R1A@?0A@EA@__MINIGAME_PACKET@@8 ; __MINIGAME_PACKET::`RTTI Base Class Array'
rdata$r	ENDS
;	COMDAT ??_R3__MINIGAME_PACKET@@8
rdata$r	SEGMENT
??_R3__MINIGAME_PACKET@@8 DD 00H			; __MINIGAME_PACKET::`RTTI Class Hierarchy Descriptor'
	DD	00H
	DD	01H
	DD	FLAT:??_R2__MINIGAME_PACKET@@8
rdata$r	ENDS
;	COMDAT ??_R0?AU__MINIGAME_PACKET@@@8
data$rs	SEGMENT
??_R0?AU__MINIGAME_PACKET@@@8 DD FLAT:??_7type_info@@6B@ ; __MINIGAME_PACKET `RTTI Type Descriptor'
	DD	00H
	DB	'.?AU__MINIGAME_PACKET@@', 00H
data$rs	ENDS
;	COMDAT ??_R4__MINIGAME_PACKET@@6B@
rdata$r	SEGMENT
??_R4__MINIGAME_PACKET@@6B@ DD 00H			; __MINIGAME_PACKET::`RTTI Complete Object Locator'
	DD	00H
	DD	00H
	DD	FLAT:??_R0?AU__MINIGAME_PACKET@@@8
	DD	FLAT:??_R3__MINIGAME_PACKET@@8
rdata$r	ENDS
;	COMDAT ??_7CMiniGameBase@@6B@
CONST	SEGMENT
??_7CMiniGameBase@@6B@ DD FLAT:??_R4CMiniGameBase@@6B@	; CMiniGameBase::`vftable'
	DD	FLAT:??_ECMiniGameBase@@UAEPAXI@Z
	DD	FLAT:__purecall
CONST	ENDS
;	COMDAT ??_7__MINIGAME_EXT_PACKET@@6B@
CONST	SEGMENT
??_7__MINIGAME_EXT_PACKET@@6B@ DD FLAT:??_R4__MINIGAME_EXT_PACKET@@6B@ ; __MINIGAME_EXT_PACKET::`vftable'
	DD	FLAT:?Serialize@__MINIGAME_EXT_PACKET@@UAEXAAVCAr@@@Z
CONST	ENDS
;	COMDAT ??_7__MINIGAME_PACKET@@6B@
CONST	SEGMENT
??_7__MINIGAME_PACKET@@6B@ DD FLAT:??_R4__MINIGAME_PACKET@@6B@ ; __MINIGAME_PACKET::`vftable'
	DD	FLAT:?Serialize@__MINIGAME_PACKET@@UAEXAAVCAr@@@Z
CONST	ENDS
;	COMDAT ??_R4bad_alloc@std@@6B@
rdata$r	SEGMENT
??_R4bad_alloc@std@@6B@ DD 00H				; std::bad_alloc::`RTTI Complete Object Locator'
	DD	00H
	DD	00H
	DD	FLAT:??_R0?AVbad_alloc@std@@@8
	DD	FLAT:??_R3bad_alloc@std@@8
rdata$r	ENDS
;	COMDAT ??_R2bad_alloc@std@@8
rdata$r	SEGMENT
??_R2bad_alloc@std@@8 DD FLAT:??_R1A@?0A@EA@bad_alloc@std@@8 ; std::bad_alloc::`RTTI Base Class Array'
	DD	FLAT:??_R1A@?0A@EA@exception@std@@8
rdata$r	ENDS
;	COMDAT ??_R3bad_alloc@std@@8
rdata$r	SEGMENT
??_R3bad_alloc@std@@8 DD 00H				; std::bad_alloc::`RTTI Class Hierarchy Descriptor'
	DD	00H
	DD	02H
	DD	FLAT:??_R2bad_alloc@std@@8
rdata$r	ENDS
;	COMDAT ??_R1A@?0A@EA@bad_alloc@std@@8
rdata$r	SEGMENT
??_R1A@?0A@EA@bad_alloc@std@@8 DD FLAT:??_R0?AVbad_alloc@std@@@8 ; std::bad_alloc::`RTTI Base Class Descriptor at (0,-1,0,64)'
	DD	01H
	DD	00H
	DD	0ffffffffH
	DD	00H
	DD	040H
	DD	FLAT:??_R3bad_alloc@std@@8
rdata$r	ENDS
;	COMDAT ??_R1A@?0A@EA@bad_array_new_length@std@@8
rdata$r	SEGMENT
??_R1A@?0A@EA@bad_array_new_length@std@@8 DD FLAT:??_R0?AVbad_array_new_length@std@@@8 ; std::bad_array_new_length::`RTTI Base Class Descriptor at (0,-1,0,64)'
	DD	02H
	DD	00H
	DD	0ffffffffH
	DD	00H
	DD	040H
	DD	FLAT:??_R3bad_array_new_length@std@@8
rdata$r	ENDS
;	COMDAT ??_R2bad_array_new_length@std@@8
rdata$r	SEGMENT
??_R2bad_array_new_length@std@@8 DD FLAT:??_R1A@?0A@EA@bad_array_new_length@std@@8 ; std::bad_array_new_length::`RTTI Base Class Array'
	DD	FLAT:??_R1A@?0A@EA@bad_alloc@std@@8
	DD	FLAT:??_R1A@?0A@EA@exception@std@@8
rdata$r	ENDS
;	COMDAT ??_R3bad_array_new_length@std@@8
rdata$r	SEGMENT
??_R3bad_array_new_length@std@@8 DD 00H			; std::bad_array_new_length::`RTTI Class Hierarchy Descriptor'
	DD	00H
	DD	03H
	DD	FLAT:??_R2bad_array_new_length@std@@8
rdata$r	ENDS
;	COMDAT ??_R4bad_array_new_length@std@@6B@
rdata$r	SEGMENT
??_R4bad_array_new_length@std@@6B@ DD 00H		; std::bad_array_new_length::`RTTI Complete Object Locator'
	DD	00H
	DD	00H
	DD	FLAT:??_R0?AVbad_array_new_length@std@@@8
	DD	FLAT:??_R3bad_array_new_length@std@@8
rdata$r	ENDS
;	COMDAT ??_R1A@?0A@EA@exception@std@@8
rdata$r	SEGMENT
??_R1A@?0A@EA@exception@std@@8 DD FLAT:??_R0?AVexception@std@@@8 ; std::exception::`RTTI Base Class Descriptor at (0,-1,0,64)'
	DD	00H
	DD	00H
	DD	0ffffffffH
	DD	00H
	DD	040H
	DD	FLAT:??_R3exception@std@@8
rdata$r	ENDS
;	COMDAT ??_R2exception@std@@8
rdata$r	SEGMENT
??_R2exception@std@@8 DD FLAT:??_R1A@?0A@EA@exception@std@@8 ; std::exception::`RTTI Base Class Array'
rdata$r	ENDS
;	COMDAT ??_R3exception@std@@8
rdata$r	SEGMENT
??_R3exception@std@@8 DD 00H				; std::exception::`RTTI Class Hierarchy Descriptor'
	DD	00H
	DD	01H
	DD	FLAT:??_R2exception@std@@8
rdata$r	ENDS
;	COMDAT ??_R4exception@std@@6B@
rdata$r	SEGMENT
??_R4exception@std@@6B@ DD 00H				; std::exception::`RTTI Complete Object Locator'
	DD	00H
	DD	00H
	DD	FLAT:??_R0?AVexception@std@@@8
	DD	FLAT:??_R3exception@std@@8
rdata$r	ENDS
;	COMDAT ??_C@_0BA@FOIKENOD@vector?5too?5long@
CONST	SEGMENT
??_C@_0BA@FOIKENOD@vector?5too?5long@ DB 'vector too long', 00H ; `string'
CONST	ENDS
;	COMDAT ??_C@_0BA@JFNIOLAK@string?5too?5long@
CONST	SEGMENT
??_C@_0BA@JFNIOLAK@string?5too?5long@ DB 'string too long', 00H ; `string'
CONST	ENDS
;	COMDAT __CT??_R0?AVbad_alloc@std@@@8??0bad_alloc@std@@QAE@ABV01@@Z12
xdata$x	SEGMENT
__CT??_R0?AVbad_alloc@std@@@8??0bad_alloc@std@@QAE@ABV01@@Z12 DD 010H
	DD	FLAT:??_R0?AVbad_alloc@std@@@8
	DD	00H
	DD	0ffffffffH
	ORG $+4
	DD	0cH
	DD	FLAT:??0bad_alloc@std@@QAE@ABV01@@Z
xdata$x	ENDS
;	COMDAT ??_R0?AVbad_alloc@std@@@8
data$r	SEGMENT
??_R0?AVbad_alloc@std@@@8 DD FLAT:??_7type_info@@6B@	; std::bad_alloc `RTTI Type Descriptor'
	DD	00H
	DB	'.?AVbad_alloc@std@@', 00H
data$r	ENDS
;	COMDAT __CT??_R0?AVbad_array_new_length@std@@@8??0bad_array_new_length@std@@QAE@ABV01@@Z12
xdata$x	SEGMENT
__CT??_R0?AVbad_array_new_length@std@@@8??0bad_array_new_length@std@@QAE@ABV01@@Z12 DD 00H
	DD	FLAT:??_R0?AVbad_array_new_length@std@@@8
	DD	00H
	DD	0ffffffffH
	ORG $+4
	DD	0cH
	DD	FLAT:??0bad_array_new_length@std@@QAE@ABV01@@Z
xdata$x	ENDS
;	COMDAT ??_R0?AVbad_array_new_length@std@@@8
data$r	SEGMENT
??_R0?AVbad_array_new_length@std@@@8 DD FLAT:??_7type_info@@6B@ ; std::bad_array_new_length `RTTI Type Descriptor'
	DD	00H
	DB	'.?AVbad_array_new_length@std@@', 00H
data$r	ENDS
;	COMDAT __CTA3?AVbad_array_new_length@std@@
xdata$x	SEGMENT
__CTA3?AVbad_array_new_length@std@@ DD 03H
	DD	FLAT:__CT??_R0?AVbad_array_new_length@std@@@8??0bad_array_new_length@std@@QAE@ABV01@@Z12
	DD	FLAT:__CT??_R0?AVbad_alloc@std@@@8??0bad_alloc@std@@QAE@ABV01@@Z12
	DD	FLAT:__CT??_R0?AVexception@std@@@8??0exception@std@@QAE@ABV01@@Z12
xdata$x	ENDS
;	COMDAT __TI3?AVbad_array_new_length@std@@
xdata$x	SEGMENT
__TI3?AVbad_array_new_length@std@@ DD 00H
	DD	FLAT:??1bad_array_new_length@std@@UAE@XZ
	DD	00H
	DD	FLAT:__CTA3?AVbad_array_new_length@std@@
xdata$x	ENDS
;	COMDAT __CT??_R0?AVexception@std@@@8??0exception@std@@QAE@ABV01@@Z12
xdata$x	SEGMENT
__CT??_R0?AVexception@std@@@8??0exception@std@@QAE@ABV01@@Z12 DD 00H
	DD	FLAT:??_R0?AVexception@std@@@8
	DD	00H
	DD	0ffffffffH
	ORG $+4
	DD	0cH
	DD	FLAT:??0exception@std@@QAE@ABV01@@Z
xdata$x	ENDS
;	COMDAT ??_R0?AVexception@std@@@8
data$r	SEGMENT
??_R0?AVexception@std@@@8 DD FLAT:??_7type_info@@6B@	; std::exception `RTTI Type Descriptor'
	DD	00H
	DB	'.?AVexception@std@@', 00H
data$r	ENDS
;	COMDAT ??_C@_0BF@KINCDENJ@bad?5array?5new?5length@
CONST	SEGMENT
??_C@_0BF@KINCDENJ@bad?5array?5new?5length@ DB 'bad array new length', 00H ; `string'
CONST	ENDS
;	COMDAT ??_7bad_array_new_length@std@@6B@
CONST	SEGMENT
??_7bad_array_new_length@std@@6B@ DD FLAT:??_R4bad_array_new_length@std@@6B@ ; std::bad_array_new_length::`vftable'
	DD	FLAT:??_Ebad_array_new_length@std@@UAEPAXI@Z
	DD	FLAT:?what@exception@std@@UBEPBDXZ
CONST	ENDS
;	COMDAT ??_7bad_alloc@std@@6B@
CONST	SEGMENT
??_7bad_alloc@std@@6B@ DD FLAT:??_R4bad_alloc@std@@6B@	; std::bad_alloc::`vftable'
	DD	FLAT:??_Ebad_alloc@std@@UAEPAXI@Z
	DD	FLAT:?what@exception@std@@UBEPBDXZ
CONST	ENDS
;	COMDAT ??_C@_0BC@EOODALEL@Unknown?5exception@
CONST	SEGMENT
??_C@_0BC@EOODALEL@Unknown?5exception@ DB 'Unknown exception', 00H ; `string'
CONST	ENDS
;	COMDAT ??_7exception@std@@6B@
CONST	SEGMENT
??_7exception@std@@6B@ DD FLAT:??_R4exception@std@@6B@	; std::exception::`vftable'
	DD	FLAT:??_Eexception@std@@UAEPAXI@Z
	DD	FLAT:?what@exception@std@@UBEPBDXZ
CONST	ENDS
;	COMDAT xdata$x
xdata$x	SEGMENT
__unwindtable$??$_Uninitialized_copy@PAV?$basic_string@DU?$char_traits@D@std@@V?$allocator@D@2@@std@@PAV12@V?$allocator@V?$basic_string@DU?$char_traits@D@std@@V?$allocator@D@2@@std@@@2@@std@@YAPAV?$basic_string@DU?$char_traits@D@std@@V?$allocator@D@2@@0@PAV10@00AAV?$allocator@V?$basic_string@DU?$char_traits@D@std@@V?$allocator@D@2@@std@@@0@@Z DD 0ffffffffH
	DD	FLAT:__unwindfunclet$??$_Uninitialized_copy@PAV?$basic_string@DU?$char_traits@D@std@@V?$allocator@D@2@@std@@PAV12@V?$allocator@V?$basic_string@DU?$char_traits@D@std@@V?$allocator@D@2@@std@@@2@@std@@YAPAV?$basic_string@DU?$char_traits@D@std@@V?$allocator@D@2@@0@PAV10@00AAV?$allocator@V?$basic_string@DU?$char_traits@D@std@@V?$allocator@D@2@@std@@@0@@Z$0
__ehfuncinfo$??$_Uninitialized_copy@PAV?$basic_string@DU?$char_traits@D@std@@V?$allocator@D@2@@std@@PAV12@V?$allocator@V?$basic_string@DU?$char_traits@D@std@@V?$allocator@D@2@@std@@@2@@std@@YAPAV?$basic_string@DU?$char_traits@D@std@@V?$allocator@D@2@@0@PAV10@00AAV?$allocator@V?$basic_string@DU?$char_traits@D@std@@V?$allocator@D@2@@std@@@0@@Z DD 019930522H
	DD	01H
	DD	FLAT:__unwindtable$??$_Uninitialized_copy@PAV?$basic_string@DU?$char_traits@D@std@@V?$allocator@D@2@@std@@PAV12@V?$allocator@V?$basic_string@DU?$char_traits@D@std@@V?$allocator@D@2@@std@@@2@@std@@YAPAV?$basic_string@DU?$char_traits@D@std@@V?$allocator@D@2@@0@PAV10@00AAV?$allocator@V?$basic_string@DU?$char_traits@D@std@@V?$allocator@D@2@@std@@@0@@Z
	DD	2 DUP(00H)
	DD	2 DUP(00H)
	DD	00H
	DD	01H
xdata$x	ENDS
;	COMDAT xdata$x
xdata$x	SEGMENT
__unwindtable$??$_Construct_n@ABQAV?$basic_string@DU?$char_traits@D@std@@V?$allocator@D@2@@std@@ABQAV12@@?$vector@V?$basic_string@DU?$char_traits@D@std@@V?$allocator@D@2@@std@@V?$allocator@V?$basic_string@DU?$char_traits@D@std@@V?$allocator@D@2@@std@@@2@@std@@AAEXIABQAV?$basic_string@DU?$char_traits@D@std@@V?$allocator@D@2@@1@0@Z DD 0ffffffffH
	DD	FLAT:__unwindfunclet$??$_Construct_n@ABQAV?$basic_string@DU?$char_traits@D@std@@V?$allocator@D@2@@std@@ABQAV12@@?$vector@V?$basic_string@DU?$char_traits@D@std@@V?$allocator@D@2@@std@@V?$allocator@V?$basic_string@DU?$char_traits@D@std@@V?$allocator@D@2@@std@@@2@@std@@AAEXIABQAV?$basic_string@DU?$char_traits@D@std@@V?$allocator@D@2@@1@0@Z$0
	DD	00H
	DD	FLAT:__unwindfunclet$??$_Construct_n@ABQAV?$basic_string@DU?$char_traits@D@std@@V?$allocator@D@2@@std@@ABQAV12@@?$vector@V?$basic_string@DU?$char_traits@D@std@@V?$allocator@D@2@@std@@V?$allocator@V?$basic_string@DU?$char_traits@D@std@@V?$allocator@D@2@@std@@@2@@std@@AAEXIABQAV?$basic_string@DU?$char_traits@D@std@@V?$allocator@D@2@@1@0@Z$1
__ehfuncinfo$??$_Construct_n@ABQAV?$basic_string@DU?$char_traits@D@std@@V?$allocator@D@2@@std@@ABQAV12@@?$vector@V?$basic_string@DU?$char_traits@D@std@@V?$allocator@D@2@@std@@V?$allocator@V?$basic_string@DU?$char_traits@D@std@@V?$allocator@D@2@@std@@@2@@std@@AAEXIABQAV?$basic_string@DU?$char_traits@D@std@@V?$allocator@D@2@@1@0@Z DD 019930522H
	DD	02H
	DD	FLAT:__unwindtable$??$_Construct_n@ABQAV?$basic_string@DU?$char_traits@D@std@@V?$allocator@D@2@@std@@ABQAV12@@?$vector@V?$basic_string@DU?$char_traits@D@std@@V?$allocator@D@2@@std@@V?$allocator@V?$basic_string@DU?$char_traits@D@std@@V?$allocator@D@2@@std@@@2@@std@@AAEXIABQAV?$basic_string@DU?$char_traits@D@std@@V?$allocator@D@2@@1@0@Z
	DD	2 DUP(00H)
	DD	2 DUP(00H)
	DD	00H
	DD	01H
xdata$x	ENDS
;	COMDAT xdata$x
xdata$x	SEGMENT
__unwindtable$?SendExtPacket@CMiniGameBase@@QAEXPAVCUser@@U__MINIGAME_EXT_PACKET@@@Z DD 0ffffffffH
	DD	FLAT:__unwindfunclet$?SendExtPacket@CMiniGameBase@@QAEXPAVCUser@@U__MINIGAME_EXT_PACKET@@@Z$0
__ehfuncinfo$?SendExtPacket@CMiniGameBase@@QAEXPAVCUser@@U__MINIGAME_EXT_PACKET@@@Z DD 019930522H
	DD	01H
	DD	FLAT:__unwindtable$?SendExtPacket@CMiniGameBase@@QAEXPAVCUser@@U__MINIGAME_EXT_PACKET@@@Z
	DD	2 DUP(00H)
	DD	2 DUP(00H)
	DD	00H
	DD	01H
xdata$x	ENDS
;	COMDAT xdata$x
xdata$x	SEGMENT
__unwindtable$?Serialize@__MINIGAME_EXT_PACKET@@UAEXAAVCAr@@@Z DD 0ffffffffH
	DD	FLAT:__unwindfunclet$?Serialize@__MINIGAME_EXT_PACKET@@UAEXAAVCAr@@@Z$0
__ehfuncinfo$?Serialize@__MINIGAME_EXT_PACKET@@UAEXAAVCAr@@@Z DD 019930522H
	DD	01H
	DD	FLAT:__unwindtable$?Serialize@__MINIGAME_EXT_PACKET@@UAEXAAVCAr@@@Z
	DD	2 DUP(00H)
	DD	2 DUP(00H)
	DD	00H
	DD	01H
xdata$x	ENDS
; Function compile flags: /Ogtp
; File C:\Program Files\Microsoft Visual Studio\2022\Professional\VC\Tools\MSVC\14.44.35207\include\xmemory
;	COMDAT ??1?$_Uninitialized_backout_al@V?$allocator@V?$basic_string@DU?$char_traits@D@std@@V?$allocator@D@2@@std@@@std@@@std@@QAE@XZ
_TEXT	SEGMENT
??1?$_Uninitialized_backout_al@V?$allocator@V?$basic_string@DU?$char_traits@D@std@@V?$allocator@D@2@@std@@@std@@@std@@QAE@XZ PROC ; std::_Uninitialized_backout_al<std::allocator<std::basic_string<char,std::char_traits<char>,std::allocator<char> > > >::~_Uninitialized_backout_al<std::allocator<std::basic_string<char,std::char_traits<char>,std::allocator<char> > > >, COMDAT
; _this$ = ecx

; 1838 :     _CONSTEXPR20 ~_Uninitialized_backout_al() {

  00000	56		 push	 esi

; 1839 :         _STD _Destroy_range(_First, _Last, _Al);

  00001	8b 31		 mov	 esi, DWORD PTR [ecx]
  00003	57		 push	 edi
  00004	8b 79 04	 mov	 edi, DWORD PTR [ecx+4]

; 1102 :         for (; _First != _Last; ++_First) {

  00007	3b f7		 cmp	 esi, edi
  00009	74 13		 je	 SHORT $LN6@Uninitiali
  0000b	0f 1f 44 00 00	 npad	 5
$LL7@Uninitiali:
  00010	8b ce		 mov	 ecx, esi
  00012	e8 00 00 00 00	 call	 ??1?$basic_string@DU?$char_traits@D@std@@V?$allocator@D@2@@std@@QAE@XZ ; std::basic_string<char,std::char_traits<char>,std::allocator<char> >::~basic_string<char,std::char_traits<char>,std::allocator<char> >
  00017	83 c6 18	 add	 esi, 24			; 00000018H
  0001a	3b f7		 cmp	 esi, edi
  0001c	75 f2		 jne	 SHORT $LL7@Uninitiali
$LN6@Uninitiali:
  0001e	5f		 pop	 edi

; 1840 :     }

  0001f	5e		 pop	 esi
  00020	c3		 ret	 0
??1?$_Uninitialized_backout_al@V?$allocator@V?$basic_string@DU?$char_traits@D@std@@V?$allocator@D@2@@std@@@std@@@std@@QAE@XZ ENDP ; std::_Uninitialized_backout_al<std::allocator<std::basic_string<char,std::char_traits<char>,std::allocator<char> > > >::~_Uninitialized_backout_al<std::allocator<std::basic_string<char,std::char_traits<char>,std::allocator<char> > > >
_TEXT	ENDS
; Function compile flags: /Ogtp
; File C:\Program Files\Microsoft Visual Studio\2022\Professional\VC\Tools\MSVC\14.44.35207\include\xmemory
; File C:\Program Files\Microsoft Visual Studio\2022\Professional\VC\Tools\MSVC\14.44.35207\include\xstring
; File C:\Program Files\Microsoft Visual Studio\2022\Professional\VC\Tools\MSVC\14.44.35207\include\xmemory
; File C:\Program Files\Microsoft Visual Studio\2022\Professional\VC\Tools\MSVC\14.44.35207\include\xstring
; File C:\Program Files\Microsoft Visual Studio\2022\Professional\VC\Tools\MSVC\14.44.35207\include\xmemory
;	COMDAT ??$_Uninitialized_move@PAV?$basic_string@DU?$char_traits@D@std@@V?$allocator@D@2@@std@@V?$allocator@V?$basic_string@DU?$char_traits@D@std@@V?$allocator@D@2@@std@@@2@@std@@YAPAV?$basic_string@DU?$char_traits@D@std@@V?$allocator@D@2@@0@QAV10@0PAV10@AAV?$allocator@V?$basic_string@DU?$char_traits@D@std@@V?$allocator@D@2@@std@@@0@@Z
_TEXT	SEGMENT
__First$ = 8						; size = 4
__Last$ = 12						; size = 4
__Dest$ = 16						; size = 4
__Al$ = 20						; size = 4
??$_Uninitialized_move@PAV?$basic_string@DU?$char_traits@D@std@@V?$allocator@D@2@@std@@V?$allocator@V?$basic_string@DU?$char_traits@D@std@@V?$allocator@D@2@@std@@@2@@std@@YAPAV?$basic_string@DU?$char_traits@D@std@@V?$allocator@D@2@@0@QAV10@0PAV10@AAV?$allocator@V?$basic_string@DU?$char_traits@D@std@@V?$allocator@D@2@@std@@@0@@Z PROC ; std::_Uninitialized_move<std::basic_string<char,std::char_traits<char>,std::allocator<char> > *,std::allocator<std::basic_string<char,std::char_traits<char>,std::allocator<char> > > >, COMDAT

; 1977 :     const _InIt _First, const _InIt _Last, _Alloc_ptr_t<_Alloc> _Dest, _Alloc& _Al) {

  00000	55		 push	 ebp
  00001	8b ec		 mov	 ebp, esp

; 1978 :     // move [_First, _Last) to raw _Dest, using _Al
; 1979 :     // note: only called internally from elsewhere in the STL
; 1980 : #ifdef _ENABLE_STL_INTERNAL_CHECK
; 1981 :     _STD _Adl_verify_range(_First, _Last);
; 1982 : #endif // ^^^ defined(_ENABLE_STL_INTERNAL_CHECK) ^^^
; 1983 :     using _Ptrval     = typename _Alloc::value_type*;
; 1984 :     auto _UFirst      = _STD _Get_unwrapped(_First);
; 1985 :     const auto _ULast = _STD _Get_unwrapped(_Last);
; 1986 :     if constexpr (conjunction_v<bool_constant<_Iter_move_cat<decltype(_UFirst), _Ptrval>::_Bitcopy_constructible>,
; 1987 :                       _Uses_default_construct<_Alloc, _Ptrval, decltype(_STD move(*_UFirst))>>) {
; 1988 : #if _HAS_CXX20
; 1989 :         if (!_STD is_constant_evaluated())
; 1990 : #endif // _HAS_CXX20
; 1991 :         {
; 1992 :             _STD _Copy_memmove(_UFirst, _ULast, _STD _Unfancy(_Dest));
; 1993 :             return _Dest + (_ULast - _UFirst);
; 1994 :         }
; 1995 :     }
; 1996 : 
; 1997 :     _Uninitialized_backout_al<_Alloc> _Backout{_Dest, _Al};
; 1998 :     for (; _UFirst != _ULast; ++_UFirst) {

  00003	8b 4d 08	 mov	 ecx, DWORD PTR __First$[ebp]

; 1833 :     _CONSTEXPR20 _Uninitialized_backout_al(pointer _Dest, _Alloc& _Al_) : _First(_Dest), _Last(_Dest), _Al(_Al_) {}

  00006	8b 45 10	 mov	 eax, DWORD PTR __Dest$[ebp]

; 1977 :     const _InIt _First, const _InIt _Last, _Alloc_ptr_t<_Alloc> _Dest, _Alloc& _Al) {

  00009	56		 push	 esi

; 1978 :     // move [_First, _Last) to raw _Dest, using _Al
; 1979 :     // note: only called internally from elsewhere in the STL
; 1980 : #ifdef _ENABLE_STL_INTERNAL_CHECK
; 1981 :     _STD _Adl_verify_range(_First, _Last);
; 1982 : #endif // ^^^ defined(_ENABLE_STL_INTERNAL_CHECK) ^^^
; 1983 :     using _Ptrval     = typename _Alloc::value_type*;
; 1984 :     auto _UFirst      = _STD _Get_unwrapped(_First);
; 1985 :     const auto _ULast = _STD _Get_unwrapped(_Last);
; 1986 :     if constexpr (conjunction_v<bool_constant<_Iter_move_cat<decltype(_UFirst), _Ptrval>::_Bitcopy_constructible>,
; 1987 :                       _Uses_default_construct<_Alloc, _Ptrval, decltype(_STD move(*_UFirst))>>) {
; 1988 : #if _HAS_CXX20
; 1989 :         if (!_STD is_constant_evaluated())
; 1990 : #endif // _HAS_CXX20
; 1991 :         {
; 1992 :             _STD _Copy_memmove(_UFirst, _ULast, _STD _Unfancy(_Dest));
; 1993 :             return _Dest + (_ULast - _UFirst);
; 1994 :         }
; 1995 :     }
; 1996 : 
; 1997 :     _Uninitialized_backout_al<_Alloc> _Backout{_Dest, _Al};
; 1998 :     for (; _UFirst != _ULast; ++_UFirst) {

  0000a	8b 75 0c	 mov	 esi, DWORD PTR __Last$[ebp]
  0000d	3b ce		 cmp	 ecx, esi
  0000f	74 4f		 je	 SHORT $LN3@Uninitiali

; 1833 :     _CONSTEXPR20 _Uninitialized_backout_al(pointer _Dest, _Alloc& _Al_) : _First(_Dest), _Last(_Dest), _Al(_Al_) {}

  00011	8b d0		 mov	 edx, eax
  00013	2b d1		 sub	 edx, ecx
  00015	66 66 66 0f 1f
	84 00 00 00 00
	00		 npad	 11
$LL4@Uninitiali:
  00020	0f 57 c0	 xorps	 xmm0, xmm0
; File C:\Program Files\Microsoft Visual Studio\2022\Professional\VC\Tools\MSVC\14.44.35207\include\xstring

; 493  :         _CONSTEXPR20 _Bxty() noexcept : _Buf() {} // user-provided, for fancy pointers

  00023	0f 11 00	 movups	 XMMWORD PTR [eax], xmm0

; 517  :     size_type _Mysize = 0; // current length of string (size)

  00026	c7 40 10 00 00
	00 00		 mov	 DWORD PTR [eax+16], 0

; 518  :     size_type _Myres  = 0; // current storage reserved for string (capacity)

  0002d	c7 44 0a 14 00
	00 00 00	 mov	 DWORD PTR [edx+ecx+20], 0

; 1286 :                 _CSTD memcpy(_My_data_mem, _Right_data_mem, _Memcpy_val_size);

  00035	0f 10 01	 movups	 xmm0, XMMWORD PTR [ecx]
  00038	0f 11 00	 movups	 XMMWORD PTR [eax], xmm0
  0003b	f3 0f 7e 41 10	 movq	 xmm0, QWORD PTR [ecx+16]
  00040	66 0f d6 40 10	 movq	 QWORD PTR [eax+16], xmm0
; File C:\Program Files\Microsoft Visual Studio\2022\Professional\VC\Tools\MSVC\14.44.35207\include\xmemory

; 1845 :         ++_Last;

  00045	83 c0 18	 add	 eax, 24			; 00000018H
; File C:\Program Files\Microsoft Visual Studio\2022\Professional\VC\Tools\MSVC\14.44.35207\include\xstring

; 1288 :                 _Right_data._Mysize = 0;

  00048	c7 41 10 00 00
	00 00		 mov	 DWORD PTR [ecx+16], 0

; 1289 :                 _Right_data._Myres  = _Small_string_capacity;

  0004f	c7 41 14 0f 00
	00 00		 mov	 DWORD PTR [ecx+20], 15	; 0000000fH

; 1290 :                 _Right_data._Activate_SSO_buffer();
; 1291 :                 _Traits::assign(_Right_data._Bx._Buf[0], _Elem());

  00056	c6 01 00	 mov	 BYTE PTR [ecx], 0
; File C:\Program Files\Microsoft Visual Studio\2022\Professional\VC\Tools\MSVC\14.44.35207\include\xmemory

; 1845 :         ++_Last;

  00059	83 c1 18	 add	 ecx, 24			; 00000018H

; 1978 :     // move [_First, _Last) to raw _Dest, using _Al
; 1979 :     // note: only called internally from elsewhere in the STL
; 1980 : #ifdef _ENABLE_STL_INTERNAL_CHECK
; 1981 :     _STD _Adl_verify_range(_First, _Last);
; 1982 : #endif // ^^^ defined(_ENABLE_STL_INTERNAL_CHECK) ^^^
; 1983 :     using _Ptrval     = typename _Alloc::value_type*;
; 1984 :     auto _UFirst      = _STD _Get_unwrapped(_First);
; 1985 :     const auto _ULast = _STD _Get_unwrapped(_Last);
; 1986 :     if constexpr (conjunction_v<bool_constant<_Iter_move_cat<decltype(_UFirst), _Ptrval>::_Bitcopy_constructible>,
; 1987 :                       _Uses_default_construct<_Alloc, _Ptrval, decltype(_STD move(*_UFirst))>>) {
; 1988 : #if _HAS_CXX20
; 1989 :         if (!_STD is_constant_evaluated())
; 1990 : #endif // _HAS_CXX20
; 1991 :         {
; 1992 :             _STD _Copy_memmove(_UFirst, _ULast, _STD _Unfancy(_Dest));
; 1993 :             return _Dest + (_ULast - _UFirst);
; 1994 :         }
; 1995 :     }
; 1996 : 
; 1997 :     _Uninitialized_backout_al<_Alloc> _Backout{_Dest, _Al};
; 1998 :     for (; _UFirst != _ULast; ++_UFirst) {

  0005c	3b ce		 cmp	 ecx, esi
  0005e	75 c0		 jne	 SHORT $LL4@Uninitiali
$LN3@Uninitiali:
  00060	5e		 pop	 esi

; 1999 :         _Backout._Emplace_back(_STD move(*_UFirst));
; 2000 :     }
; 2001 : 
; 2002 :     return _Backout._Release();
; 2003 : }

  00061	5d		 pop	 ebp
  00062	c3		 ret	 0
??$_Uninitialized_move@PAV?$basic_string@DU?$char_traits@D@std@@V?$allocator@D@2@@std@@V?$allocator@V?$basic_string@DU?$char_traits@D@std@@V?$allocator@D@2@@std@@@2@@std@@YAPAV?$basic_string@DU?$char_traits@D@std@@V?$allocator@D@2@@0@QAV10@0PAV10@AAV?$allocator@V?$basic_string@DU?$char_traits@D@std@@V?$allocator@D@2@@std@@@0@@Z ENDP ; std::_Uninitialized_move<std::basic_string<char,std::char_traits<char>,std::allocator<char> > *,std::allocator<std::basic_string<char,std::char_traits<char>,std::allocator<char> > > >
_TEXT	ENDS
; Function compile flags: /Ogtp
; File C:\Program Files\Microsoft Visual Studio\2022\Professional\VC\Tools\MSVC\14.44.35207\include\xmemory
;	COMDAT ??1?$_Tidy_guard@V?$vector@V?$basic_string@DU?$char_traits@D@std@@V?$allocator@D@2@@std@@V?$allocator@V?$basic_string@DU?$char_traits@D@std@@V?$allocator@D@2@@std@@@2@@std@@@std@@QAE@XZ
_TEXT	SEGMENT
??1?$_Tidy_guard@V?$vector@V?$basic_string@DU?$char_traits@D@std@@V?$allocator@D@2@@std@@V?$allocator@V?$basic_string@DU?$char_traits@D@std@@V?$allocator@D@2@@std@@@2@@std@@@std@@QAE@XZ PROC ; std::_Tidy_guard<std::vector<std::basic_string<char,std::char_traits<char>,std::allocator<char> >,std::allocator<std::basic_string<char,std::char_traits<char>,std::allocator<char> > > > >::~_Tidy_guard<std::vector<std::basic_string<char,std::char_traits<char>,std::allocator<char> >,std::allocator<std::basic_string<char,std::char_traits<char>,std::allocator<char> > > > >, COMDAT
; _this$ = ecx

; 87   :         if (_Target) {

  00000	8b 09		 mov	 ecx, DWORD PTR [ecx]
  00002	85 c9		 test	 ecx, ecx
  00004	0f 85 00 00 00
	00		 jne	 ?_Tidy@?$vector@V?$basic_string@DU?$char_traits@D@std@@V?$allocator@D@2@@std@@V?$allocator@V?$basic_string@DU?$char_traits@D@std@@V?$allocator@D@2@@std@@@2@@std@@AAEXXZ ; std::vector<std::basic_string<char,std::char_traits<char>,std::allocator<char> >,std::allocator<std::basic_string<char,std::char_traits<char>,std::allocator<char> > > >::_Tidy

; 88   :             _Target->_Tidy();
; 89   :         }
; 90   :     }

  0000a	c3		 ret	 0
??1?$_Tidy_guard@V?$vector@V?$basic_string@DU?$char_traits@D@std@@V?$allocator@D@2@@std@@V?$allocator@V?$basic_string@DU?$char_traits@D@std@@V?$allocator@D@2@@std@@@2@@std@@@std@@QAE@XZ ENDP ; std::_Tidy_guard<std::vector<std::basic_string<char,std::char_traits<char>,std::allocator<char> >,std::allocator<std::basic_string<char,std::char_traits<char>,std::allocator<char> > > > >::~_Tidy_guard<std::vector<std::basic_string<char,std::char_traits<char>,std::allocator<char> >,std::allocator<std::basic_string<char,std::char_traits<char>,std::allocator<char> > > > >
_TEXT	ENDS
; Function compile flags: /Ogtp
; File C:\Program Files\Microsoft Visual Studio\2022\Professional\VC\Tools\MSVC\14.44.35207\include\vector
; File C:\Program Files\Microsoft Visual Studio\2022\Professional\VC\Tools\MSVC\14.44.35207\include\xmemory
; File C:\Program Files\Microsoft Visual Studio\2022\Professional\VC\Tools\MSVC\14.44.35207\include\vector
; File C:\Program Files\Microsoft Visual Studio\2022\Professional\VC\Tools\MSVC\14.44.35207\include\xmemory
; File C:\Program Files\Microsoft Visual Studio\2022\Professional\VC\Tools\MSVC\14.44.35207\include\vector
; File C:\Program Files\Microsoft Visual Studio\2022\Professional\VC\Tools\MSVC\14.44.35207\include\xstring
; File C:\Program Files\Microsoft Visual Studio\2022\Professional\VC\Tools\MSVC\14.44.35207\include\vector
; File C:\Program Files\Microsoft Visual Studio\2022\Professional\VC\Tools\MSVC\14.44.35207\include\xstring
; File C:\Program Files\Microsoft Visual Studio\2022\Professional\VC\Tools\MSVC\14.44.35207\include\vector
; File C:\Program Files\Microsoft Visual Studio\2022\Professional\VC\Tools\MSVC\14.44.35207\include\xstring
; File C:\Program Files\Microsoft Visual Studio\2022\Professional\VC\Tools\MSVC\14.44.35207\include\vector
; File C:\Program Files\Microsoft Visual Studio\2022\Professional\VC\Tools\MSVC\14.44.35207\include\xmemory
; File C:\Program Files\Microsoft Visual Studio\2022\Professional\VC\Tools\MSVC\14.44.35207\include\vector
; File C:\Program Files\Microsoft Visual Studio\2022\Professional\VC\Tools\MSVC\14.44.35207\include\xmemory
; File C:\Program Files\Microsoft Visual Studio\2022\Professional\VC\Tools\MSVC\14.44.35207\include\vector
; File C:\Program Files\Microsoft Visual Studio\2022\Professional\VC\Tools\MSVC\14.44.35207\include\xmemory
; File C:\Program Files\Microsoft Visual Studio\2022\Professional\VC\Tools\MSVC\14.44.35207\include\vector
; File C:\Program Files\Microsoft Visual Studio\2022\Professional\VC\Tools\MSVC\14.44.35207\include\xmemory
; File C:\Program Files\Microsoft Visual Studio\2022\Professional\VC\Tools\MSVC\14.44.35207\include\vector
;	COMDAT ??$_Emplace_reallocate@V?$basic_string@DU?$char_traits@D@std@@V?$allocator@D@2@@std@@@?$vector@V?$basic_string@DU?$char_traits@D@std@@V?$allocator@D@2@@std@@V?$allocator@V?$basic_string@DU?$char_traits@D@std@@V?$allocator@D@2@@std@@@2@@std@@AAEPAV?$basic_string@DU?$char_traits@D@std@@V?$allocator@D@2@@1@QAV21@$$QAV21@@Z
_TEXT	SEGMENT
__Newsize$1$ = -16					; size = 4
_this$1$ = -12						; size = 4
__Whereoff$1$ = -8					; size = 4
_this$1$ = -8						; size = 4
tv692 = -4						; size = 4
__Whereptr$ = 8						; size = 4
_<_Val_0>$ = 12						; size = 4
??$_Emplace_reallocate@V?$basic_string@DU?$char_traits@D@std@@V?$allocator@D@2@@std@@@?$vector@V?$basic_string@DU?$char_traits@D@std@@V?$allocator@D@2@@std@@V?$allocator@V?$basic_string@DU?$char_traits@D@std@@V?$allocator@D@2@@std@@@2@@std@@AAEPAV?$basic_string@DU?$char_traits@D@std@@V?$allocator@D@2@@1@QAV21@$$QAV21@@Z PROC ; std::vector<std::basic_string<char,std::char_traits<char>,std::allocator<char> >,std::allocator<std::basic_string<char,std::char_traits<char>,std::allocator<char> > > >::_Emplace_reallocate<std::basic_string<char,std::char_traits<char>,std::allocator<char> > >, COMDAT
; _this$ = ecx

; 875  :     _CONSTEXPR20 pointer _Emplace_reallocate(const pointer _Whereptr, _Valty&&... _Val) {

  00000	55		 push	 ebp
  00001	8b ec		 mov	 ebp, esp
  00003	83 ec 10	 sub	 esp, 16			; 00000010H

; 876  :         // reallocate and insert by perfectly forwarding _Val at _Whereptr
; 877  :         _Alty& _Al        = _Getal();
; 878  :         auto& _My_data    = _Mypair._Myval2;
; 879  :         pointer& _Myfirst = _My_data._Myfirst;
; 880  :         pointer& _Mylast  = _My_data._Mylast;
; 881  : 
; 882  :         _STL_INTERNAL_CHECK(_Mylast == _My_data._Myend); // check that we have no unused capacity
; 883  : 
; 884  :         const auto _Whereoff = static_cast<size_type>(_Whereptr - _Myfirst);

  00006	8b 55 08	 mov	 edx, DWORD PTR __Whereptr$[ebp]
  00009	b8 ab aa aa 2a	 mov	 eax, 715827883		; 2aaaaaabH
  0000e	53		 push	 ebx
  0000f	56		 push	 esi
  00010	57		 push	 edi
  00011	8b f9		 mov	 edi, ecx
  00013	89 7d f4	 mov	 DWORD PTR _this$1$[ebp], edi
  00016	8b 37		 mov	 esi, DWORD PTR [edi]
  00018	2b d6		 sub	 edx, esi

; 885  :         const auto _Oldsize  = static_cast<size_type>(_Mylast - _Myfirst);

  0001a	8b 4f 04	 mov	 ecx, DWORD PTR [edi+4]
  0001d	f7 ea		 imul	 edx
  0001f	2b ce		 sub	 ecx, esi
  00021	c1 fa 02	 sar	 edx, 2
  00024	8b c2		 mov	 eax, edx
  00026	c1 e8 1f	 shr	 eax, 31			; 0000001fH
  00029	03 c2		 add	 eax, edx
  0002b	89 45 f8	 mov	 DWORD PTR __Whereoff$1$[ebp], eax
  0002e	b8 ab aa aa 2a	 mov	 eax, 715827883		; 2aaaaaabH
  00033	f7 e9		 imul	 ecx
  00035	c1 fa 02	 sar	 edx, 2
  00038	8b c2		 mov	 eax, edx
  0003a	c1 e8 1f	 shr	 eax, 31			; 0000001fH
  0003d	03 c2		 add	 eax, edx

; 886  : 
; 887  :         if (_Oldsize == max_size()) {

  0003f	3d aa aa aa 0a	 cmp	 eax, 178956970		; 0aaaaaaaH
  00044	0f 84 8a 01 00
	00		 je	 $LN143@Emplace_re

; 1924 :         return static_cast<size_type>(_My_data._Myend - _My_data._Myfirst);

  0004a	8b 4f 08	 mov	 ecx, DWORD PTR [edi+8]

; 889  :         }
; 890  : 
; 891  :         const size_type _Newsize = _Oldsize + 1;

  0004d	8d 58 01	 lea	 ebx, DWORD PTR [eax+1]

; 1924 :         return static_cast<size_type>(_My_data._Myend - _My_data._Myfirst);

  00050	2b ce		 sub	 ecx, esi

; 889  :         }
; 890  : 
; 891  :         const size_type _Newsize = _Oldsize + 1;

  00052	89 5d f0	 mov	 DWORD PTR __Newsize$1$[ebp], ebx

; 1924 :         return static_cast<size_type>(_My_data._Myend - _My_data._Myfirst);

  00055	b8 ab aa aa 2a	 mov	 eax, 715827883		; 2aaaaaabH
  0005a	f7 e9		 imul	 ecx

; 2011 :         if (_Oldcapacity > _Max - _Oldcapacity / 2) {

  0005c	b8 aa aa aa 0a	 mov	 eax, 178956970		; 0aaaaaaaH

; 1924 :         return static_cast<size_type>(_My_data._Myend - _My_data._Myfirst);

  00061	c1 fa 02	 sar	 edx, 2
  00064	8b ca		 mov	 ecx, edx
  00066	c1 e9 1f	 shr	 ecx, 31			; 0000001fH
  00069	03 ca		 add	 ecx, edx

; 2011 :         if (_Oldcapacity > _Max - _Oldcapacity / 2) {

  0006b	8b d1		 mov	 edx, ecx
  0006d	d1 ea		 shr	 edx, 1
  0006f	2b c2		 sub	 eax, edx
  00071	3b c8		 cmp	 ecx, eax
  00073	76 14		 jbe	 SHORT $LN8@Emplace_re

; 2012 :             return _Max; // geometric growth would overflow

  00075	b8 f0 ff ff ff	 mov	 eax, -16		; fffffff0H
  0007a	c7 45 fc f0 ff
	ff ff		 mov	 DWORD PTR tv692[ebp], -16 ; fffffff0H
; File C:\Program Files\Microsoft Visual Studio\2022\Professional\VC\Tools\MSVC\14.44.35207\include\xmemory

; 253  :             return _Allocate_manually_vector_aligned<_Traits>(_Bytes);

  00081	50		 push	 eax
  00082	e8 00 00 00 00	 call	 ??$_Allocate_manually_vector_aligned@U_Default_allocate_traits@std@@@std@@YAPAXI@Z ; std::_Allocate_manually_vector_aligned<std::_Default_allocate_traits>
  00087	eb 3e		 jmp	 SHORT $LN141@Emplace_re
$LN8@Emplace_re:
; File C:\Program Files\Microsoft Visual Studio\2022\Professional\VC\Tools\MSVC\14.44.35207\include\vector

; 2015 :         const size_type _Geometric = _Oldcapacity + _Oldcapacity / 2;

  00089	8d 04 0a	 lea	 eax, DWORD PTR [edx+ecx]
; File C:\Program Files\Microsoft Visual Studio\2022\Professional\VC\Tools\MSVC\14.44.35207\include\xmemory

; 117  :         if (_Count > _Max_possible) {

  0008c	8b cb		 mov	 ecx, ebx
  0008e	3b c3		 cmp	 eax, ebx
  00090	0f 43 c8	 cmovae	 ecx, eax
  00093	81 f9 aa aa aa
	0a		 cmp	 ecx, 178956970		; 0aaaaaaaH
  00099	0f 87 3a 01 00
	00		 ja	 $LN144@Emplace_re

; 119  :         }
; 120  :     }
; 121  : 
; 122  :     return _Count * _Ty_size;

  0009f	8d 34 49	 lea	 esi, DWORD PTR [ecx+ecx*2]
  000a2	c1 e6 03	 shl	 esi, 3

; 990  :         return static_cast<_Ty*>(_STD _Allocate<_New_alignof<_Ty>>(_Get_size_of_n<sizeof(_Ty)>(_Count)));

  000a5	8b c6		 mov	 eax, esi

; 122  :     return _Count * _Ty_size;

  000a7	89 75 fc	 mov	 DWORD PTR tv692[ebp], esi

; 227  :     if (_Bytes == 0) {

  000aa	85 c0		 test	 eax, eax
  000ac	75 04		 jne	 SHORT $LN23@Emplace_re

; 228  :         return nullptr;

  000ae	33 db		 xor	 ebx, ebx
  000b0	eb 1a		 jmp	 SHORT $LN22@Emplace_re
$LN23@Emplace_re:

; 229  :     }
; 230  : 
; 231  : #if _HAS_CXX20 // TRANSITION, GH-1532
; 232  :     if (_STD is_constant_evaluated()) {
; 233  :         return _Traits::_Allocate(_Bytes);
; 234  :     }
; 235  : #endif // _HAS_CXX20
; 236  : 
; 237  : #ifdef __cpp_aligned_new
; 238  :     if constexpr (_Align > __STDCPP_DEFAULT_NEW_ALIGNMENT__) {
; 239  :         size_t _Passed_align = _Align;
; 240  : #if defined(_M_IX86) || defined(_M_X64)
; 241  :         if (_Bytes >= _Big_allocation_threshold) {
; 242  :             // boost the alignment of big allocations to help autovectorization
; 243  :             _Passed_align = (_STD max)(_Align, _Big_allocation_alignment);
; 244  :         }
; 245  : #endif // defined(_M_IX86) || defined(_M_X64)
; 246  :         return _Traits::_Allocate_aligned(_Bytes, _Passed_align);
; 247  :     } else
; 248  : #endif // defined(__cpp_aligned_new)
; 249  :     {
; 250  : #if defined(_M_IX86) || defined(_M_X64)
; 251  :         if (_Bytes >= _Big_allocation_threshold) {

  000b2	3d 00 10 00 00	 cmp	 eax, 4096		; 00001000H
  000b7	72 08		 jb	 SHORT $LN24@Emplace_re

; 253  :             return _Allocate_manually_vector_aligned<_Traits>(_Bytes);

  000b9	50		 push	 eax
  000ba	e8 00 00 00 00	 call	 ??$_Allocate_manually_vector_aligned@U_Default_allocate_traits@std@@@std@@YAPAXI@Z ; std::_Allocate_manually_vector_aligned<std::_Default_allocate_traits>
  000bf	eb 06		 jmp	 SHORT $LN141@Emplace_re
$LN24@Emplace_re:

; 136  :         return ::operator new(_Bytes);

  000c1	50		 push	 eax
  000c2	e8 00 00 00 00	 call	 ??2@YAPAXI@Z		; operator new
$LN141@Emplace_re:
; File C:\Program Files\Microsoft Visual Studio\2022\Professional\VC\Tools\MSVC\14.44.35207\include\vector

; 895  :         const pointer _Constructed_last = _Newvec + _Whereoff + 1;

  000c7	8b d8		 mov	 ebx, eax
  000c9	83 c4 04	 add	 esp, 4
$LN22@Emplace_re:
  000cc	8b 45 f8	 mov	 eax, DWORD PTR __Whereoff$1$[ebp]
  000cf	0f 57 c0	 xorps	 xmm0, xmm0

; 903  :         if (_Whereptr == _Mylast) { // at back, provide strong guarantee

  000d2	8b 55 08	 mov	 edx, DWORD PTR __Whereptr$[ebp]
  000d5	8d 04 40	 lea	 eax, DWORD PTR [eax+eax*2]
  000d8	8d 0c c3	 lea	 ecx, DWORD PTR [ebx+eax*8]
; File C:\Program Files\Microsoft Visual Studio\2022\Professional\VC\Tools\MSVC\14.44.35207\include\xstring

; 1286 :                 _CSTD memcpy(_My_data_mem, _Right_data_mem, _Memcpy_val_size);

  000db	8b 45 0c	 mov	 eax, DWORD PTR _<_Val_0>$[ebp]

; 493  :         _CONSTEXPR20 _Bxty() noexcept : _Buf() {} // user-provided, for fancy pointers

  000de	0f 11 01	 movups	 XMMWORD PTR [ecx], xmm0

; 517  :     size_type _Mysize = 0; // current length of string (size)

  000e1	c7 41 10 00 00
	00 00		 mov	 DWORD PTR [ecx+16], 0
; File C:\Program Files\Microsoft Visual Studio\2022\Professional\VC\Tools\MSVC\14.44.35207\include\vector

; 895  :         const pointer _Constructed_last = _Newvec + _Whereoff + 1;

  000e8	8d 71 18	 lea	 esi, DWORD PTR [ecx+24]
; File C:\Program Files\Microsoft Visual Studio\2022\Professional\VC\Tools\MSVC\14.44.35207\include\xstring

; 518  :     size_type _Myres  = 0; // current storage reserved for string (capacity)

  000eb	c7 41 14 00 00
	00 00		 mov	 DWORD PTR [ecx+20], 0

; 1286 :                 _CSTD memcpy(_My_data_mem, _Right_data_mem, _Memcpy_val_size);

  000f2	0f 10 00	 movups	 xmm0, XMMWORD PTR [eax]
; File C:\Program Files\Microsoft Visual Studio\2022\Professional\VC\Tools\MSVC\14.44.35207\include\vector

; 895  :         const pointer _Constructed_last = _Newvec + _Whereoff + 1;

  000f5	89 4d f8	 mov	 DWORD PTR _this$1$[ebp], ecx
; File C:\Program Files\Microsoft Visual Studio\2022\Professional\VC\Tools\MSVC\14.44.35207\include\xstring

; 1286 :                 _CSTD memcpy(_My_data_mem, _Right_data_mem, _Memcpy_val_size);

  000f8	0f 11 01	 movups	 XMMWORD PTR [ecx], xmm0
  000fb	f3 0f 7e 40 10	 movq	 xmm0, QWORD PTR [eax+16]
  00100	66 0f d6 41 10	 movq	 QWORD PTR [ecx+16], xmm0

; 1287 : 
; 1288 :                 _Right_data._Mysize = 0;

  00105	c7 40 10 00 00
	00 00		 mov	 DWORD PTR [eax+16], 0

; 1289 :                 _Right_data._Myres  = _Small_string_capacity;

  0010c	c7 40 14 0f 00
	00 00		 mov	 DWORD PTR [eax+20], 15	; 0000000fH

; 1290 :                 _Right_data._Activate_SSO_buffer();
; 1291 :                 _Traits::assign(_Right_data._Bx._Buf[0], _Elem());

  00113	c6 00 00	 mov	 BYTE PTR [eax], 0
; File C:\Program Files\Microsoft Visual Studio\2022\Professional\VC\Tools\MSVC\14.44.35207\include\vector

; 903  :         if (_Whereptr == _Mylast) { // at back, provide strong guarantee

  00116	8b 4f 04	 mov	 ecx, DWORD PTR [edi+4]
  00119	8b 07		 mov	 eax, DWORD PTR [edi]
  0011b	3b d1		 cmp	 edx, ecx
  0011d	75 04		 jne	 SHORT $LN3@Emplace_re

; 904  :             if constexpr (is_nothrow_move_constructible_v<_Ty> || !is_copy_constructible_v<_Ty>) {
; 905  :                 _STD _Uninitialized_move(_Myfirst, _Mylast, _Newvec, _Al);

  0011f	8b f3		 mov	 esi, ebx

; 906  :             } else {
; 907  :                 _STD _Uninitialized_copy(_Myfirst, _Mylast, _Newvec, _Al);
; 908  :             }
; 909  :         } else { // provide basic guarantee

  00121	eb 12		 jmp	 SHORT $LN4@Emplace_re
$LN3@Emplace_re:

; 910  :             _STD _Uninitialized_move(_Myfirst, _Whereptr, _Newvec, _Al);

  00123	57		 push	 edi
  00124	53		 push	 ebx
  00125	52		 push	 edx
  00126	50		 push	 eax
  00127	e8 00 00 00 00	 call	 ??$_Uninitialized_move@PAV?$basic_string@DU?$char_traits@D@std@@V?$allocator@D@2@@std@@V?$allocator@V?$basic_string@DU?$char_traits@D@std@@V?$allocator@D@2@@std@@@2@@std@@YAPAV?$basic_string@DU?$char_traits@D@std@@V?$allocator@D@2@@0@QAV10@0PAV10@AAV?$allocator@V?$basic_string@DU?$char_traits@D@std@@V?$allocator@D@2@@std@@@0@@Z ; std::_Uninitialized_move<std::basic_string<char,std::char_traits<char>,std::allocator<char> > *,std::allocator<std::basic_string<char,std::char_traits<char>,std::allocator<char> > > >

; 911  :             _Constructed_first = _Newvec;
; 912  :             _STD _Uninitialized_move(_Whereptr, _Mylast, _Newvec + _Whereoff + 1, _Al);

  0012c	8b 45 08	 mov	 eax, DWORD PTR __Whereptr$[ebp]
  0012f	83 c4 10	 add	 esp, 16			; 00000010H
  00132	8b 4f 04	 mov	 ecx, DWORD PTR [edi+4]
$LN4@Emplace_re:

; 913  :         }
; 914  : 
; 915  :         _Guard._New_begin = nullptr;

  00135	57		 push	 edi
  00136	56		 push	 esi
  00137	51		 push	 ecx
  00138	50		 push	 eax
  00139	e8 00 00 00 00	 call	 ??$_Uninitialized_move@PAV?$basic_string@DU?$char_traits@D@std@@V?$allocator@D@2@@std@@V?$allocator@V?$basic_string@DU?$char_traits@D@std@@V?$allocator@D@2@@std@@@2@@std@@YAPAV?$basic_string@DU?$char_traits@D@std@@V?$allocator@D@2@@0@QAV10@0PAV10@AAV?$allocator@V?$basic_string@DU?$char_traits@D@std@@V?$allocator@D@2@@std@@@0@@Z ; std::_Uninitialized_move<std::basic_string<char,std::char_traits<char>,std::allocator<char> > *,std::allocator<std::basic_string<char,std::char_traits<char>,std::allocator<char> > > >

; 2069 :         if (_Myfirst) { // destroy and deallocate old array

  0013e	8b 37		 mov	 esi, DWORD PTR [edi]

; 913  :         }
; 914  : 
; 915  :         _Guard._New_begin = nullptr;

  00140	83 c4 10	 add	 esp, 16			; 00000010H

; 2069 :         if (_Myfirst) { // destroy and deallocate old array

  00143	85 f6		 test	 esi, esi
  00145	74 5c		 je	 SHORT $LN82@Emplace_re

; 2070 :             _STD _Destroy_range(_Myfirst, _Mylast, _Al);

  00147	8b 47 04	 mov	 eax, DWORD PTR [edi+4]
; File C:\Program Files\Microsoft Visual Studio\2022\Professional\VC\Tools\MSVC\14.44.35207\include\xmemory

; 1102 :         for (; _First != _Last; ++_First) {

  0014a	3b f0		 cmp	 esi, eax
  0014c	74 13		 je	 SHORT $LN67@Emplace_re
  0014e	8b f8		 mov	 edi, eax
$LL68@Emplace_re:
  00150	8b ce		 mov	 ecx, esi
  00152	e8 00 00 00 00	 call	 ??1?$basic_string@DU?$char_traits@D@std@@V?$allocator@D@2@@std@@QAE@XZ ; std::basic_string<char,std::char_traits<char>,std::allocator<char> >::~basic_string<char,std::char_traits<char>,std::allocator<char> >
  00157	83 c6 18	 add	 esi, 24			; 00000018H
  0015a	3b f7		 cmp	 esi, edi
  0015c	75 f2		 jne	 SHORT $LL68@Emplace_re
  0015e	8b 7d f4	 mov	 edi, DWORD PTR _this$1$[ebp]
$LN67@Emplace_re:
; File C:\Program Files\Microsoft Visual Studio\2022\Professional\VC\Tools\MSVC\14.44.35207\include\vector

; 2072 :             _Al.deallocate(_Myfirst, static_cast<size_type>(_Myend - _Myfirst));

  00161	8b 4f 08	 mov	 ecx, DWORD PTR [edi+8]
  00164	b8 ab aa aa 2a	 mov	 eax, 715827883		; 2aaaaaabH
  00169	8b 37		 mov	 esi, DWORD PTR [edi]
  0016b	2b ce		 sub	 ecx, esi
  0016d	f7 e9		 imul	 ecx
  0016f	c1 fa 02	 sar	 edx, 2
  00172	8b c2		 mov	 eax, edx
  00174	c1 e8 1f	 shr	 eax, 31			; 0000001fH
  00177	03 c2		 add	 eax, edx
; File C:\Program Files\Microsoft Visual Studio\2022\Professional\VC\Tools\MSVC\14.44.35207\include\xmemory

; 985  :         _STD _Deallocate<_New_alignof<_Ty>>(_Ptr, sizeof(_Ty) * _Count);

  00179	8d 0c 40	 lea	 ecx, DWORD PTR [eax+eax*2]
  0017c	c1 e1 03	 shl	 ecx, 3

; 284  :         if (_Bytes >= _Big_allocation_threshold) {

  0017f	81 f9 00 10 00
	00		 cmp	 ecx, 4096		; 00001000H
  00185	72 12		 jb	 SHORT $LN87@Emplace_re

; 205  :     const uintptr_t _Ptr_container   = _Ptr_user[-1];

  00187	8b 56 fc	 mov	 edx, DWORD PTR [esi-4]
  0018a	83 c1 23	 add	 ecx, 35			; 00000023H

; 206  : 
; 207  :     // If the following asserts, it likely means that we are performing
; 208  :     // an aligned delete on memory coming from an unaligned allocation.
; 209  :     _STL_ASSERT(_Ptr_user[-2] == _Big_allocation_sentinel, "invalid argument");
; 210  : 
; 211  :     // Extra paranoia on aligned allocation/deallocation; ensure _Ptr_container is
; 212  :     // in range [_Min_back_shift, _Non_user_size]
; 213  : #ifdef _DEBUG
; 214  :     constexpr uintptr_t _Min_back_shift = 2 * sizeof(void*);
; 215  : #else // ^^^ defined(_DEBUG) / !defined(_DEBUG) vvv
; 216  :     constexpr uintptr_t _Min_back_shift = sizeof(void*);
; 217  : #endif // ^^^ !defined(_DEBUG) ^^^
; 218  :     const uintptr_t _Back_shift = reinterpret_cast<uintptr_t>(_Ptr) - _Ptr_container;

  0018d	2b f2		 sub	 esi, edx

; 219  :     _STL_VERIFY(_Back_shift >= _Min_back_shift && _Back_shift <= _Non_user_size, "invalid argument");

  0018f	8d 46 fc	 lea	 eax, DWORD PTR [esi-4]
  00192	83 f8 1f	 cmp	 eax, 31			; 0000001fH
  00195	77 2e		 ja	 SHORT $LN86@Emplace_re

; 220  :     _Ptr = reinterpret_cast<void*>(_Ptr_container);

  00197	8b f2		 mov	 esi, edx
$LN87@Emplace_re:

; 289  :         ::operator delete(_Ptr, _Bytes);

  00199	51		 push	 ecx
  0019a	56		 push	 esi
  0019b	e8 00 00 00 00	 call	 ??3@YAXPAXI@Z		; operator delete
  001a0	83 c4 08	 add	 esp, 8
$LN82@Emplace_re:
; File C:\Program Files\Microsoft Visual Studio\2022\Professional\VC\Tools\MSVC\14.44.35207\include\vector

; 2076 :         _Mylast  = _Newvec + _Newsize;

  001a3	8b 4d f0	 mov	 ecx, DWORD PTR __Newsize$1$[ebp]

; 916  :         _Change_array(_Newvec, _Newsize, _Newcapacity);
; 917  :         return _Newvec + _Whereoff;

  001a6	8b 45 f8	 mov	 eax, DWORD PTR _this$1$[ebp]

; 2075 :         _Myfirst = _Newvec;

  001a9	89 1f		 mov	 DWORD PTR [edi], ebx

; 2076 :         _Mylast  = _Newvec + _Newsize;

  001ab	8d 0c 49	 lea	 ecx, DWORD PTR [ecx+ecx*2]
  001ae	8d 0c cb	 lea	 ecx, DWORD PTR [ebx+ecx*8]
  001b1	89 4f 04	 mov	 DWORD PTR [edi+4], ecx

; 2077 :         _Myend   = _Newvec + _Newcapacity;

  001b4	8b 4d fc	 mov	 ecx, DWORD PTR tv692[ebp]
  001b7	03 cb		 add	 ecx, ebx
  001b9	89 4f 08	 mov	 DWORD PTR [edi+8], ecx

; 918  :     }

  001bc	5f		 pop	 edi
  001bd	5e		 pop	 esi
  001be	5b		 pop	 ebx
  001bf	8b e5		 mov	 esp, ebp
  001c1	5d		 pop	 ebp
  001c2	c2 08 00	 ret	 8
$LN86@Emplace_re:
; File C:\Program Files\Microsoft Visual Studio\2022\Professional\VC\Tools\MSVC\14.44.35207\include\xmemory

; 219  :     _STL_VERIFY(_Back_shift >= _Min_back_shift && _Back_shift <= _Non_user_size, "invalid argument");

  001c5	6a 00		 push	 0
  001c7	6a 00		 push	 0
  001c9	6a 00		 push	 0
  001cb	6a 00		 push	 0
  001cd	6a 00		 push	 0
  001cf	e8 00 00 00 00	 call	 __invoke_watson
$LN143@Emplace_re:
; File C:\Program Files\Microsoft Visual Studio\2022\Professional\VC\Tools\MSVC\14.44.35207\include\vector

; 888  :             _Xlength();

  001d4	e8 00 00 00 00	 call	 ?_Xlength@?$vector@V?$basic_string@DU?$char_traits@D@std@@V?$allocator@D@2@@std@@V?$allocator@V?$basic_string@DU?$char_traits@D@std@@V?$allocator@D@2@@std@@@2@@std@@CAXXZ ; std::vector<std::basic_string<char,std::char_traits<char>,std::allocator<char> >,std::allocator<std::basic_string<char,std::char_traits<char>,std::allocator<char> > > >::_Xlength
$LN144@Emplace_re:
; File C:\Program Files\Microsoft Visual Studio\2022\Professional\VC\Tools\MSVC\14.44.35207\include\xmemory

; 118  :             _Throw_bad_array_new_length(); // multiply overflow

  001d9	e8 00 00 00 00	 call	 ?_Throw_bad_array_new_length@std@@YAXXZ ; std::_Throw_bad_array_new_length
$LN140@Emplace_re:
  001de	cc		 int	 3
??$_Emplace_reallocate@V?$basic_string@DU?$char_traits@D@std@@V?$allocator@D@2@@std@@@?$vector@V?$basic_string@DU?$char_traits@D@std@@V?$allocator@D@2@@std@@V?$allocator@V?$basic_string@DU?$char_traits@D@std@@V?$allocator@D@2@@std@@@2@@std@@AAEPAV?$basic_string@DU?$char_traits@D@std@@V?$allocator@D@2@@1@QAV21@$$QAV21@@Z ENDP ; std::vector<std::basic_string<char,std::char_traits<char>,std::allocator<char> >,std::allocator<std::basic_string<char,std::char_traits<char>,std::allocator<char> > > >::_Emplace_reallocate<std::basic_string<char,std::char_traits<char>,std::allocator<char> > >
_TEXT	ENDS
; Function compile flags: /Ogtp
; File C:\Program Files\Microsoft Visual Studio\2022\Professional\VC\Tools\MSVC\14.44.35207\include\vector
; File C:\Program Files\Microsoft Visual Studio\2022\Professional\VC\Tools\MSVC\14.44.35207\include\xmemory
; File C:\Program Files\Microsoft Visual Studio\2022\Professional\VC\Tools\MSVC\14.44.35207\include\vector
; File C:\Program Files\Microsoft Visual Studio\2022\Professional\VC\Tools\MSVC\14.44.35207\include\xmemory
; File C:\Program Files\Microsoft Visual Studio\2022\Professional\VC\Tools\MSVC\14.44.35207\include\vector
; File C:\Program Files\Microsoft Visual Studio\2022\Professional\VC\Tools\MSVC\14.44.35207\include\xmemory
; File C:\Program Files\Microsoft Visual Studio\2022\Professional\VC\Tools\MSVC\14.44.35207\include\vector
; File C:\Program Files\Microsoft Visual Studio\2022\Professional\VC\Tools\MSVC\14.44.35207\include\xmemory
; File C:\Program Files\Microsoft Visual Studio\2022\Professional\VC\Tools\MSVC\14.44.35207\include\xstring
; File C:\Program Files\Microsoft Visual Studio\2022\Professional\VC\Tools\MSVC\14.44.35207\include\__msvc_string_view.hpp
; File C:\Program Files\Microsoft Visual Studio\2022\Professional\VC\Tools\MSVC\14.44.35207\include\xstring
; File C:\Program Files\Microsoft Visual Studio\2022\Professional\VC\Tools\MSVC\14.44.35207\include\xmemory
; File C:\Program Files\Microsoft Visual Studio\2022\Professional\VC\Tools\MSVC\14.44.35207\include\xstring
; File C:\Program Files\Microsoft Visual Studio\2022\Professional\VC\Tools\MSVC\14.44.35207\include\xmemory
; File C:\Program Files\Microsoft Visual Studio\2022\Professional\VC\Tools\MSVC\14.44.35207\include\xstring
; File C:\Program Files\Microsoft Visual Studio\2022\Professional\VC\Tools\MSVC\14.44.35207\include\__msvc_string_view.hpp
; File C:\Program Files\Microsoft Visual Studio\2022\Professional\VC\Tools\MSVC\14.44.35207\include\xstring
; File C:\Program Files\Microsoft Visual Studio\2022\Professional\VC\Tools\MSVC\14.44.35207\include\__msvc_string_view.hpp
; File C:\Program Files\Microsoft Visual Studio\2022\Professional\VC\Tools\MSVC\14.44.35207\include\xstring
; File C:\Program Files\Microsoft Visual Studio\2022\Professional\VC\Tools\MSVC\14.44.35207\include\__msvc_string_view.hpp
; File C:\Program Files\Microsoft Visual Studio\2022\Professional\VC\Tools\MSVC\14.44.35207\include\xmemory
; File C:\Program Files\Microsoft Visual Studio\2022\Professional\VC\Tools\MSVC\14.44.35207\include\xstring
; File C:\Program Files\Microsoft Visual Studio\2022\Professional\VC\Tools\MSVC\14.44.35207\include\vector
; File C:\Program Files\Microsoft Visual Studio\2022\Professional\VC\Tools\MSVC\14.44.35207\include\xstring
; File C:\Program Files\Microsoft Visual Studio\2022\Professional\VC\Tools\MSVC\14.44.35207\include\vector
;	COMDAT ??$_Construct_n@ABQAV?$basic_string@DU?$char_traits@D@std@@V?$allocator@D@2@@std@@ABQAV12@@?$vector@V?$basic_string@DU?$char_traits@D@std@@V?$allocator@D@2@@std@@V?$allocator@V?$basic_string@DU?$char_traits@D@std@@V?$allocator@D@2@@std@@@2@@std@@AAEXIABQAV?$basic_string@DU?$char_traits@D@std@@V?$allocator@D@2@@1@0@Z
_TEXT	SEGMENT
__Backout$2 = -36					; size = 12
__Guard$3 = -24						; size = 4
__Last$1$ = -20						; size = 4
_this$1$ = -16						; size = 4
__$EHRec$ = -12						; size = 12
__Count$ = 8						; size = 4
__Count$1$ = 8						; size = 4
_<_Val_0>$ = 12						; size = 4
__UFirst$1$ = 12					; size = 4
_<_Val_1>$ = 16						; size = 4
__Result$1$ = 16					; size = 4
??$_Construct_n@ABQAV?$basic_string@DU?$char_traits@D@std@@V?$allocator@D@2@@std@@ABQAV12@@?$vector@V?$basic_string@DU?$char_traits@D@std@@V?$allocator@D@2@@std@@V?$allocator@V?$basic_string@DU?$char_traits@D@std@@V?$allocator@D@2@@std@@@2@@std@@AAEXIABQAV?$basic_string@DU?$char_traits@D@std@@V?$allocator@D@2@@1@0@Z PROC ; std::vector<std::basic_string<char,std::char_traits<char>,std::allocator<char> >,std::allocator<std::basic_string<char,std::char_traits<char>,std::allocator<char> > > >::_Construct_n<std::basic_string<char,std::char_traits<char>,std::allocator<char> > * const &,std::basic_string<char,std::char_traits<char>,std::allocator<char> > * const &>, COMDAT
; _this$ = ecx

; 2102 :     _CONSTEXPR20 void _Construct_n(_CRT_GUARDOVERFLOW const size_type _Count, _Valty&&... _Val) {

  00000	55		 push	 ebp
  00001	8b ec		 mov	 ebp, esp
  00003	6a ff		 push	 -1
  00005	68 00 00 00 00	 push	 __ehhandler$??$_Construct_n@ABQAV?$basic_string@DU?$char_traits@D@std@@V?$allocator@D@2@@std@@ABQAV12@@?$vector@V?$basic_string@DU?$char_traits@D@std@@V?$allocator@D@2@@std@@V?$allocator@V?$basic_string@DU?$char_traits@D@std@@V?$allocator@D@2@@std@@@2@@std@@AAEXIABQAV?$basic_string@DU?$char_traits@D@std@@V?$allocator@D@2@@1@0@Z
  0000a	64 a1 00 00 00
	00		 mov	 eax, DWORD PTR fs:0
  00010	50		 push	 eax
  00011	83 ec 18	 sub	 esp, 24			; 00000018H
  00014	56		 push	 esi
  00015	57		 push	 edi
  00016	a1 00 00 00 00	 mov	 eax, DWORD PTR ___security_cookie
  0001b	33 c5		 xor	 eax, ebp
  0001d	50		 push	 eax
  0001e	8d 45 f4	 lea	 eax, DWORD PTR __$EHRec$[ebp]
  00021	64 a3 00 00 00
	00		 mov	 DWORD PTR fs:0, eax
  00027	8b d1		 mov	 edx, ecx
  00029	89 55 f0	 mov	 DWORD PTR _this$1$[ebp], edx

; 2103 :         // Dispatches between the three sized constructions.
; 2104 :         // 1-arg -> value-construction, e.g. vector(5)
; 2105 :         // 2-arg -> fill, e.g. vector(5, "meow")
; 2106 :         // 3-arg -> sized range construction, e.g. vector{"Hello", "Fluffy", "World"}
; 2107 :         auto& _Al       = _Getal();
; 2108 :         auto&& _Alproxy = _GET_PROXY_ALLOCATOR(_Alty, _Al);
; 2109 :         auto& _My_data  = _Mypair._Myval2;
; 2110 :         _Container_proxy_ptr<_Alty> _Proxy(_Alproxy, _My_data);
; 2111 :         if (_Count != 0) {

  0002c	8b 45 08	 mov	 eax, DWORD PTR __Count$[ebp]
  0002f	85 c0		 test	 eax, eax
  00031	0f 84 45 01 00
	00		 je	 $LN114@Construct_

; 2051 :         if (_Newcapacity > max_size()) {

  00037	3d aa aa aa 0a	 cmp	 eax, 178956970		; 0aaaaaaaH
  0003c	0f 87 52 01 00
	00		 ja	 $LN132@Construct_
; File C:\Program Files\Microsoft Visual Studio\2022\Professional\VC\Tools\MSVC\14.44.35207\include\xmemory

; 122  :     return _Count * _Ty_size;

  00042	8d 34 40	 lea	 esi, DWORD PTR [eax+eax*2]
  00045	c1 e6 03	 shl	 esi, 3

; 227  :     if (_Bytes == 0) {

  00048	85 f6		 test	 esi, esi
  0004a	75 04		 jne	 SHORT $LN19@Construct_

; 228  :         return nullptr;

  0004c	33 ff		 xor	 edi, edi
  0004e	eb 1d		 jmp	 SHORT $LN18@Construct_
$LN19@Construct_:

; 229  :     }
; 230  : 
; 231  : #if _HAS_CXX20 // TRANSITION, GH-1532
; 232  :     if (_STD is_constant_evaluated()) {
; 233  :         return _Traits::_Allocate(_Bytes);
; 234  :     }
; 235  : #endif // _HAS_CXX20
; 236  : 
; 237  : #ifdef __cpp_aligned_new
; 238  :     if constexpr (_Align > __STDCPP_DEFAULT_NEW_ALIGNMENT__) {
; 239  :         size_t _Passed_align = _Align;
; 240  : #if defined(_M_IX86) || defined(_M_X64)
; 241  :         if (_Bytes >= _Big_allocation_threshold) {
; 242  :             // boost the alignment of big allocations to help autovectorization
; 243  :             _Passed_align = (_STD max)(_Align, _Big_allocation_alignment);
; 244  :         }
; 245  : #endif // defined(_M_IX86) || defined(_M_X64)
; 246  :         return _Traits::_Allocate_aligned(_Bytes, _Passed_align);
; 247  :     } else
; 248  : #endif // defined(__cpp_aligned_new)
; 249  :     {
; 250  : #if defined(_M_IX86) || defined(_M_X64)
; 251  :         if (_Bytes >= _Big_allocation_threshold) {

  00050	56		 push	 esi
  00051	81 fe 00 10 00
	00		 cmp	 esi, 4096		; 00001000H
  00057	72 07		 jb	 SHORT $LN20@Construct_

; 253  :             return _Allocate_manually_vector_aligned<_Traits>(_Bytes);

  00059	e8 00 00 00 00	 call	 ??$_Allocate_manually_vector_aligned@U_Default_allocate_traits@std@@@std@@YAPAXI@Z ; std::_Allocate_manually_vector_aligned<std::_Default_allocate_traits>
  0005e	eb 05		 jmp	 SHORT $LN129@Construct_
$LN20@Construct_:

; 136  :         return ::operator new(_Bytes);

  00060	e8 00 00 00 00	 call	 ??2@YAPAXI@Z		; operator new
$LN129@Construct_:
; File C:\Program Files\Microsoft Visual Studio\2022\Professional\VC\Tools\MSVC\14.44.35207\include\vector

; 2035 :         _Myfirst              = _Newvec;

  00065	8b 55 f0	 mov	 edx, DWORD PTR _this$1$[ebp]
  00068	8b f8		 mov	 edi, eax
  0006a	83 c4 04	 add	 esp, 4
$LN18@Construct_:
  0006d	89 3a		 mov	 DWORD PTR [edx], edi

; 2036 :         _Mylast               = _Newvec;
; 2037 :         _Myend                = _Newvec + _Newcapacity;

  0006f	8d 04 3e	 lea	 eax, DWORD PTR [esi+edi]
  00072	89 7a 04	 mov	 DWORD PTR [edx+4], edi
  00075	89 42 08	 mov	 DWORD PTR [edx+8], eax

; 2112 :             _Buy_nonzero(_Count);
; 2113 :             _Tidy_guard<vector> _Guard{this};

  00078	89 55 e8	 mov	 DWORD PTR __Guard$3[ebp], edx

; 2120 :                 _My_data._Mylast = _STD _Uninitialized_copy(_STD forward<_Valty>(_Val)..., _My_data._Myfirst, _Al);

  0007b	8b 45 10	 mov	 eax, DWORD PTR _<_Val_1>$[ebp]
  0007e	c7 45 fc 00 00
	00 00		 mov	 DWORD PTR __$EHRec$[ebp+8], 0
; File C:\Program Files\Microsoft Visual Studio\2022\Professional\VC\Tools\MSVC\14.44.35207\include\xmemory

; 1833 :     _CONSTEXPR20 _Uninitialized_backout_al(pointer _Dest, _Alloc& _Al_) : _First(_Dest), _Last(_Dest), _Al(_Al_) {}

  00085	89 7d dc	 mov	 DWORD PTR __Backout$2[ebp], edi
  00088	89 7d e0	 mov	 DWORD PTR __Backout$2[ebp+4], edi
; File C:\Program Files\Microsoft Visual Studio\2022\Professional\VC\Tools\MSVC\14.44.35207\include\vector

; 2120 :                 _My_data._Mylast = _STD _Uninitialized_copy(_STD forward<_Valty>(_Val)..., _My_data._Myfirst, _Al);

  0008b	8b 08		 mov	 ecx, DWORD PTR [eax]
; File C:\Program Files\Microsoft Visual Studio\2022\Professional\VC\Tools\MSVC\14.44.35207\include\xmemory

; 1876 :     auto _UFirst = _STD _Get_unwrapped(_STD move(_First));

  0008d	8b 45 0c	 mov	 eax, DWORD PTR _<_Val_0>$[ebp]
; File C:\Program Files\Microsoft Visual Studio\2022\Professional\VC\Tools\MSVC\14.44.35207\include\vector

; 2120 :                 _My_data._Mylast = _STD _Uninitialized_copy(_STD forward<_Valty>(_Val)..., _My_data._Myfirst, _Al);

  00090	89 4d ec	 mov	 DWORD PTR __Last$1$[ebp], ecx
; File C:\Program Files\Microsoft Visual Studio\2022\Professional\VC\Tools\MSVC\14.44.35207\include\xmemory

; 1833 :     _CONSTEXPR20 _Uninitialized_backout_al(pointer _Dest, _Alloc& _Al_) : _First(_Dest), _Last(_Dest), _Al(_Al_) {}

  00093	89 55 e4	 mov	 DWORD PTR __Backout$2[ebp+8], edx

; 1876 :     auto _UFirst = _STD _Get_unwrapped(_STD move(_First));

  00096	8b 00		 mov	 eax, DWORD PTR [eax]
  00098	89 45 0c	 mov	 DWORD PTR __UFirst$1$[ebp], eax

; 1877 :     auto _ULast  = _STD _Get_unwrapped(_STD move(_Last));
; 1878 : #endif // ^^^ !_HAS_CXX20 ^^^
; 1879 : 
; 1880 :     constexpr bool _Can_memmove = _Sent_copy_cat<decltype(_UFirst), decltype(_ULast), _Ptrval>::_Bitcopy_constructible
; 1881 :                                && _Uses_default_construct<_Alloc, _Ptrval, decltype(*_UFirst)>::value;
; 1882 : 
; 1883 :     if constexpr (_Can_memmove) {
; 1884 : #if _HAS_CXX20
; 1885 :         if (!_STD is_constant_evaluated())
; 1886 : #endif // _HAS_CXX20
; 1887 :         {
; 1888 :             if constexpr (is_same_v<decltype(_UFirst), decltype(_ULast)>) {
; 1889 :                 _STD _Copy_memmove(_STD _To_address(_UFirst), _STD _To_address(_ULast), _STD _Unfancy(_Dest));
; 1890 :                 _Dest += _ULast - _UFirst;
; 1891 :             } else {
; 1892 :                 const auto _Count = static_cast<size_t>(_ULast - _UFirst);
; 1893 :                 _STD _Copy_memmove_n(_STD _To_address(_UFirst), _Count, _STD _Unfancy(_Dest));
; 1894 :                 _Dest += _Count;
; 1895 :             }
; 1896 :             return _Dest;
; 1897 :         }
; 1898 :     }
; 1899 : 
; 1900 :     _Uninitialized_backout_al<_Alloc> _Backout{_Dest, _Al};

  0009b	c6 45 fc 01	 mov	 BYTE PTR __$EHRec$[ebp+8], 1

; 1901 :     for (; _UFirst != _ULast; ++_UFirst) {

  0009f	3b c1		 cmp	 eax, ecx
  000a1	0f 84 d2 00 00
	00		 je	 $LN30@Construct_
$LL31@Construct_:
  000a7	0f 57 c0	 xorps	 xmm0, xmm0
; File C:\Program Files\Microsoft Visual Studio\2022\Professional\VC\Tools\MSVC\14.44.35207\include\xstring

; 444  :         const value_type* _Result = _Bx._Buf;

  000aa	89 45 10	 mov	 DWORD PTR __Result$1$[ebp], eax

; 493  :         _CONSTEXPR20 _Bxty() noexcept : _Buf() {} // user-provided, for fancy pointers

  000ad	0f 11 07	 movups	 XMMWORD PTR [edi], xmm0

; 517  :     size_type _Mysize = 0; // current length of string (size)

  000b0	c7 47 10 00 00
	00 00		 mov	 DWORD PTR [edi+16], 0

; 444  :         const value_type* _Result = _Bx._Buf;

  000b7	8b d0		 mov	 edx, eax

; 518  :     size_type _Myres  = 0; // current storage reserved for string (capacity)

  000b9	c7 47 14 00 00
	00 00		 mov	 DWORD PTR [edi+20], 0

; 453  :         return _Myres > _Small_string_capacity;

  000c0	83 78 14 0f	 cmp	 DWORD PTR [eax+20], 15	; 0000000fH

; 445  :         if (_Large_mode_engaged()) {

  000c4	76 05		 jbe	 SHORT $LN56@Construct_

; 446  :             _Result = _Unfancy(_Bx._Ptr);

  000c6	8b 10		 mov	 edx, DWORD PTR [eax]
  000c8	89 55 10	 mov	 DWORD PTR __Result$1$[ebp], edx
$LN56@Construct_:

; 718  :         _Construct<_Construct_strategy::_From_string>(_Right._Mypair._Myval2._Myptr(), _Right._Mypair._Myval2._Mysize);

  000cb	8b 48 10	 mov	 ecx, DWORD PTR [eax+16]
  000ce	89 4d 08	 mov	 DWORD PTR __Count$1$[ebp], ecx

; 881  :         if (_Count > max_size()) {

  000d1	81 f9 ff ff ff
	7f		 cmp	 ecx, 2147483647		; 7fffffffH
  000d7	0f 87 b2 00 00
	00		 ja	 $LN119@Construct_

; 883  :         }
; 884  : 
; 885  :         auto& _Al       = _Getal();
; 886  :         auto&& _Alproxy = _GET_PROXY_ALLOCATOR(_Alty, _Al);
; 887  :         _Container_proxy_ptr<_Alty> _Proxy(_Alproxy, _My_data);
; 888  : 
; 889  :         if (_Count <= _Small_string_capacity) {

  000dd	83 f9 0f	 cmp	 ecx, 15			; 0000000fH
  000e0	77 12		 ja	 SHORT $LN64@Construct_

; 890  :             _My_data._Mysize = _Count;

  000e2	89 4f 10	 mov	 DWORD PTR [edi+16], ecx

; 891  :             _My_data._Myres  = _Small_string_capacity;

  000e5	c7 47 14 0f 00
	00 00		 mov	 DWORD PTR [edi+20], 15	; 0000000fH
; File C:\Program Files\Microsoft Visual Studio\2022\Professional\VC\Tools\MSVC\14.44.35207\include\__msvc_string_view.hpp

; 121  :         _CSTD memcpy(_First1, _First2, _Count * sizeof(_Elem));

  000ec	0f 10 02	 movups	 xmm0, XMMWORD PTR [edx]
  000ef	0f 11 07	 movups	 XMMWORD PTR [edi], xmm0
; File C:\Program Files\Microsoft Visual Studio\2022\Professional\VC\Tools\MSVC\14.44.35207\include\xstring

; 908  :             return;

  000f2	eb 6d		 jmp	 SHORT $LN90@Construct_
$LN64@Construct_:

; 2978 :         const size_type _Masked = _Requested | _Alloc_mask;

  000f4	8b f1		 mov	 esi, ecx
  000f6	83 ce 0f	 or	 esi, 15			; 0000000fH
  000f9	81 fe ff ff ff
	7f		 cmp	 esi, 2147483647		; 7fffffffH

; 2979 :         if (_Masked > _Max) { // the mask overflows, settle for max_size()

  000ff	76 12		 jbe	 SHORT $LN70@Construct_

; 2980 :             return _Max;

  00101	b8 00 00 00 80	 mov	 eax, -2147483648	; 80000000H
  00106	be ff ff ff 7f	 mov	 esi, 2147483647		; 7fffffffH
; File C:\Program Files\Microsoft Visual Studio\2022\Professional\VC\Tools\MSVC\14.44.35207\include\xmemory

; 253  :             return _Allocate_manually_vector_aligned<_Traits>(_Bytes);

  0010b	50		 push	 eax
  0010c	e8 00 00 00 00	 call	 ??$_Allocate_manually_vector_aligned@U_Default_allocate_traits@std@@@std@@YAPAXI@Z ; std::_Allocate_manually_vector_aligned<std::_Default_allocate_traits>
  00111	eb 2b		 jmp	 SHORT $LN130@Construct_
$LN70@Construct_:
; File C:\Program Files\Microsoft Visual Studio\2022\Professional\VC\Tools\MSVC\14.44.35207\include\xstring

; 2987 :         return (_STD max)(_Masked, _Old + _Old / 2);

  00113	83 fe 16	 cmp	 esi, 22			; 00000016H
  00116	b8 16 00 00 00	 mov	 eax, 22			; 00000016H
  0011b	0f 42 f0	 cmovb	 esi, eax

; 825  :         ++_Capacity; // Take null terminator into consideration

  0011e	8d 46 01	 lea	 eax, DWORD PTR [esi+1]
; File C:\Program Files\Microsoft Visual Studio\2022\Professional\VC\Tools\MSVC\14.44.35207\include\xmemory

; 227  :     if (_Bytes == 0) {

  00121	85 c0		 test	 eax, eax
  00123	75 04		 jne	 SHORT $LN84@Construct_

; 228  :         return nullptr;

  00125	33 d2		 xor	 edx, edx
  00127	eb 1d		 jmp	 SHORT $LN83@Construct_
$LN84@Construct_:

; 229  :     }
; 230  : 
; 231  : #if _HAS_CXX20 // TRANSITION, GH-1532
; 232  :     if (_STD is_constant_evaluated()) {
; 233  :         return _Traits::_Allocate(_Bytes);
; 234  :     }
; 235  : #endif // _HAS_CXX20
; 236  : 
; 237  : #ifdef __cpp_aligned_new
; 238  :     if constexpr (_Align > __STDCPP_DEFAULT_NEW_ALIGNMENT__) {
; 239  :         size_t _Passed_align = _Align;
; 240  : #if defined(_M_IX86) || defined(_M_X64)
; 241  :         if (_Bytes >= _Big_allocation_threshold) {
; 242  :             // boost the alignment of big allocations to help autovectorization
; 243  :             _Passed_align = (_STD max)(_Align, _Big_allocation_alignment);
; 244  :         }
; 245  : #endif // defined(_M_IX86) || defined(_M_X64)
; 246  :         return _Traits::_Allocate_aligned(_Bytes, _Passed_align);
; 247  :     } else
; 248  : #endif // defined(__cpp_aligned_new)
; 249  :     {
; 250  : #if defined(_M_IX86) || defined(_M_X64)
; 251  :         if (_Bytes >= _Big_allocation_threshold) {

  00129	3d 00 10 00 00	 cmp	 eax, 4096		; 00001000H
  0012e	72 08		 jb	 SHORT $LN85@Construct_

; 253  :             return _Allocate_manually_vector_aligned<_Traits>(_Bytes);

  00130	50		 push	 eax
  00131	e8 00 00 00 00	 call	 ??$_Allocate_manually_vector_aligned@U_Default_allocate_traits@std@@@std@@YAPAXI@Z ; std::_Allocate_manually_vector_aligned<std::_Default_allocate_traits>
  00136	eb 06		 jmp	 SHORT $LN130@Construct_
$LN85@Construct_:

; 136  :         return ::operator new(_Bytes);

  00138	50		 push	 eax
  00139	e8 00 00 00 00	 call	 ??2@YAPAXI@Z		; operator new
$LN130@Construct_:
; File C:\Program Files\Microsoft Visual Studio\2022\Professional\VC\Tools\MSVC\14.44.35207\include\xstring

; 913  :         _Construct_in_place(_My_data._Bx._Ptr, _New_ptr);

  0013e	8b 4d 08	 mov	 ecx, DWORD PTR __Count$1$[ebp]
  00141	8b d0		 mov	 edx, eax
  00143	83 c4 04	 add	 esp, 4
$LN83@Construct_:

; 917  :         if constexpr (_Strat == _Construct_strategy::_From_char) {
; 918  :             _Traits::assign(_Unfancy(_New_ptr), _Count, _Arg);
; 919  :             _Traits::assign(_Unfancy(_New_ptr)[_Count], _Elem());
; 920  :         } else if constexpr (_Strat == _Construct_strategy::_From_ptr) {
; 921  :             _Traits::copy(_Unfancy(_New_ptr), _Arg, _Count);
; 922  :             _Traits::assign(_Unfancy(_New_ptr)[_Count], _Elem());
; 923  :         } else { // _Strat == _Construct_strategy::_From_string
; 924  :             _Traits::copy(_Unfancy(_New_ptr), _Arg, _Count + 1);

  00146	8d 41 01	 lea	 eax, DWORD PTR [ecx+1]
  00149	89 17		 mov	 DWORD PTR [edi], edx
; File C:\Program Files\Microsoft Visual Studio\2022\Professional\VC\Tools\MSVC\14.44.35207\include\__msvc_string_view.hpp

; 121  :         _CSTD memcpy(_First1, _First2, _Count * sizeof(_Elem));

  0014b	50		 push	 eax
  0014c	ff 75 10	 push	 DWORD PTR __Result$1$[ebp]
; File C:\Program Files\Microsoft Visual Studio\2022\Professional\VC\Tools\MSVC\14.44.35207\include\xstring

; 915  :         _My_data._Mysize = _Count;

  0014f	89 4f 10	 mov	 DWORD PTR [edi+16], ecx
; File C:\Program Files\Microsoft Visual Studio\2022\Professional\VC\Tools\MSVC\14.44.35207\include\__msvc_string_view.hpp

; 121  :         _CSTD memcpy(_First1, _First2, _Count * sizeof(_Elem));

  00152	52		 push	 edx
; File C:\Program Files\Microsoft Visual Studio\2022\Professional\VC\Tools\MSVC\14.44.35207\include\xstring

; 916  :         _My_data._Myres  = _New_capacity;

  00153	89 77 14	 mov	 DWORD PTR [edi+20], esi
; File C:\Program Files\Microsoft Visual Studio\2022\Professional\VC\Tools\MSVC\14.44.35207\include\__msvc_string_view.hpp

; 121  :         _CSTD memcpy(_First1, _First2, _Count * sizeof(_Elem));

  00156	e8 00 00 00 00	 call	 _memcpy
  0015b	8b 45 0c	 mov	 eax, DWORD PTR __UFirst$1$[ebp]
  0015e	83 c4 0c	 add	 esp, 12			; 0000000cH
$LN90@Construct_:
; File C:\Program Files\Microsoft Visual Studio\2022\Professional\VC\Tools\MSVC\14.44.35207\include\xmemory

; 1901 :     for (; _UFirst != _ULast; ++_UFirst) {

  00161	83 c0 18	 add	 eax, 24			; 00000018H

; 1845 :         ++_Last;

  00164	83 c7 18	 add	 edi, 24			; 00000018H
  00167	89 7d e0	 mov	 DWORD PTR __Backout$2[ebp+4], edi

; 1901 :     for (; _UFirst != _ULast; ++_UFirst) {

  0016a	89 45 0c	 mov	 DWORD PTR __UFirst$1$[ebp], eax
  0016d	3b 45 ec	 cmp	 eax, DWORD PTR __Last$1$[ebp]
  00170	0f 85 31 ff ff
	ff		 jne	 $LL31@Construct_
; File C:\Program Files\Microsoft Visual Studio\2022\Professional\VC\Tools\MSVC\14.44.35207\include\xstring

; 881  :         if (_Count > max_size()) {

  00176	8b 55 f0	 mov	 edx, DWORD PTR _this$1$[ebp]
$LN30@Construct_:
; File C:\Program Files\Microsoft Visual Studio\2022\Professional\VC\Tools\MSVC\14.44.35207\include\vector

; 2120 :                 _My_data._Mylast = _STD _Uninitialized_copy(_STD forward<_Valty>(_Val)..., _My_data._Myfirst, _Al);

  00179	89 7a 04	 mov	 DWORD PTR [edx+4], edi
$LN114@Construct_:

; 2121 :             } else {
; 2122 :                 _STL_INTERNAL_STATIC_ASSERT(false); // unexpected number of arguments
; 2123 :             }
; 2124 :             _ASAN_VECTOR_CREATE;
; 2125 :             _Guard._Target = nullptr;
; 2126 :         }
; 2127 : 
; 2128 :         _Proxy._Release();
; 2129 :     }

  0017c	8b 4d f4	 mov	 ecx, DWORD PTR __$EHRec$[ebp]
  0017f	64 89 0d 00 00
	00 00		 mov	 DWORD PTR fs:0, ecx
  00186	59		 pop	 ecx
  00187	5f		 pop	 edi
  00188	5e		 pop	 esi
  00189	8b e5		 mov	 esp, ebp
  0018b	5d		 pop	 ebp
  0018c	c2 0c 00	 ret	 12			; 0000000cH
$LN119@Construct_:
; File C:\Program Files\Microsoft Visual Studio\2022\Professional\VC\Tools\MSVC\14.44.35207\include\xstring

; 882  :             _Xlen_string(); // result too long

  0018f	e8 00 00 00 00	 call	 ?_Xlen_string@std@@YAXXZ ; std::_Xlen_string
$LN132@Construct_:
; File C:\Program Files\Microsoft Visual Studio\2022\Professional\VC\Tools\MSVC\14.44.35207\include\vector

; 2052 :             _Xlength();

  00194	e8 00 00 00 00	 call	 ?_Xlength@?$vector@V?$basic_string@DU?$char_traits@D@std@@V?$allocator@D@2@@std@@V?$allocator@V?$basic_string@DU?$char_traits@D@std@@V?$allocator@D@2@@std@@@2@@std@@CAXXZ ; std::vector<std::basic_string<char,std::char_traits<char>,std::allocator<char> >,std::allocator<std::basic_string<char,std::char_traits<char>,std::allocator<char> > > >::_Xlength
$LN128@Construct_:
  00199	cc		 int	 3
_TEXT	ENDS
;	COMDAT text$x
text$x	SEGMENT
__unwindfunclet$??$_Construct_n@ABQAV?$basic_string@DU?$char_traits@D@std@@V?$allocator@D@2@@std@@ABQAV12@@?$vector@V?$basic_string@DU?$char_traits@D@std@@V?$allocator@D@2@@std@@V?$allocator@V?$basic_string@DU?$char_traits@D@std@@V?$allocator@D@2@@std@@@2@@std@@AAEXIABQAV?$basic_string@DU?$char_traits@D@std@@V?$allocator@D@2@@1@0@Z$0:
  00000	8d 4d e8	 lea	 ecx, DWORD PTR __Guard$3[ebp]
  00003	e9 00 00 00 00	 jmp	 ??1?$_Tidy_guard@V?$vector@V?$basic_string@DU?$char_traits@D@std@@V?$allocator@D@2@@std@@V?$allocator@V?$basic_string@DU?$char_traits@D@std@@V?$allocator@D@2@@std@@@2@@std@@@std@@QAE@XZ ; std::_Tidy_guard<std::vector<std::basic_string<char,std::char_traits<char>,std::allocator<char> >,std::allocator<std::basic_string<char,std::char_traits<char>,std::allocator<char> > > > >::~_Tidy_guard<std::vector<std::basic_string<char,std::char_traits<char>,std::allocator<char> >,std::allocator<std::basic_string<char,std::char_traits<char>,std::allocator<char> > > > >
__unwindfunclet$??$_Construct_n@ABQAV?$basic_string@DU?$char_traits@D@std@@V?$allocator@D@2@@std@@ABQAV12@@?$vector@V?$basic_string@DU?$char_traits@D@std@@V?$allocator@D@2@@std@@V?$allocator@V?$basic_string@DU?$char_traits@D@std@@V?$allocator@D@2@@std@@@2@@std@@AAEXIABQAV?$basic_string@DU?$char_traits@D@std@@V?$allocator@D@2@@1@0@Z$1:
  00008	8d 4d dc	 lea	 ecx, DWORD PTR __Backout$2[ebp]
  0000b	e9 00 00 00 00	 jmp	 ??1?$_Uninitialized_backout_al@V?$allocator@V?$basic_string@DU?$char_traits@D@std@@V?$allocator@D@2@@std@@@std@@@std@@QAE@XZ ; std::_Uninitialized_backout_al<std::allocator<std::basic_string<char,std::char_traits<char>,std::allocator<char> > > >::~_Uninitialized_backout_al<std::allocator<std::basic_string<char,std::char_traits<char>,std::allocator<char> > > >
  00010	cc		 int	 3
  00011	cc		 int	 3
  00012	cc		 int	 3
  00013	cc		 int	 3
  00014	cc		 int	 3
__ehhandler$??$_Construct_n@ABQAV?$basic_string@DU?$char_traits@D@std@@V?$allocator@D@2@@std@@ABQAV12@@?$vector@V?$basic_string@DU?$char_traits@D@std@@V?$allocator@D@2@@std@@V?$allocator@V?$basic_string@DU?$char_traits@D@std@@V?$allocator@D@2@@std@@@2@@std@@AAEXIABQAV?$basic_string@DU?$char_traits@D@std@@V?$allocator@D@2@@1@0@Z:
  00015	90		 npad	 1
  00016	90		 npad	 1
  00017	8b 54 24 08	 mov	 edx, DWORD PTR [esp+8]
  0001b	8d 42 0c	 lea	 eax, DWORD PTR [edx+12]
  0001e	8b 4a dc	 mov	 ecx, DWORD PTR [edx-36]
  00021	33 c8		 xor	 ecx, eax
  00023	e8 00 00 00 00	 call	 @__security_check_cookie@4
  00028	b8 00 00 00 00	 mov	 eax, OFFSET __ehfuncinfo$??$_Construct_n@ABQAV?$basic_string@DU?$char_traits@D@std@@V?$allocator@D@2@@std@@ABQAV12@@?$vector@V?$basic_string@DU?$char_traits@D@std@@V?$allocator@D@2@@std@@V?$allocator@V?$basic_string@DU?$char_traits@D@std@@V?$allocator@D@2@@std@@@2@@std@@AAEXIABQAV?$basic_string@DU?$char_traits@D@std@@V?$allocator@D@2@@1@0@Z
  0002d	e9 00 00 00 00	 jmp	 ___CxxFrameHandler3
text$x	ENDS
??$_Construct_n@ABQAV?$basic_string@DU?$char_traits@D@std@@V?$allocator@D@2@@std@@ABQAV12@@?$vector@V?$basic_string@DU?$char_traits@D@std@@V?$allocator@D@2@@std@@V?$allocator@V?$basic_string@DU?$char_traits@D@std@@V?$allocator@D@2@@std@@@2@@std@@AAEXIABQAV?$basic_string@DU?$char_traits@D@std@@V?$allocator@D@2@@1@0@Z ENDP ; std::vector<std::basic_string<char,std::char_traits<char>,std::allocator<char> >,std::allocator<std::basic_string<char,std::char_traits<char>,std::allocator<char> > > >::_Construct_n<std::basic_string<char,std::char_traits<char>,std::allocator<char> > * const &,std::basic_string<char,std::char_traits<char>,std::allocator<char> > * const &>
; Function compile flags: /Ogtp
;	COMDAT ??_GCMiniGameBase@@UAEPAXI@Z
_TEXT	SEGMENT
___flags$ = 8						; size = 4
??_GCMiniGameBase@@UAEPAXI@Z PROC			; CMiniGameBase::`scalar deleting destructor', COMDAT
; _this$ = ecx
  00000	55		 push	 ebp
  00001	8b ec		 mov	 ebp, esp
  00003	56		 push	 esi
  00004	8b f1		 mov	 esi, ecx
  00006	e8 00 00 00 00	 call	 ??1CMiniGameBase@@UAE@XZ ; CMiniGameBase::~CMiniGameBase
  0000b	f6 45 08 01	 test	 BYTE PTR ___flags$[ebp], 1
  0000f	74 0b		 je	 SHORT $LN5@scalar
  00011	6a 04		 push	 4
  00013	56		 push	 esi
  00014	e8 00 00 00 00	 call	 ??3@YAXPAXI@Z		; operator delete
  00019	83 c4 08	 add	 esp, 8
$LN5@scalar:
  0001c	8b c6		 mov	 eax, esi
  0001e	5e		 pop	 esi
  0001f	5d		 pop	 ebp
  00020	c2 04 00	 ret	 4
??_GCMiniGameBase@@UAEPAXI@Z ENDP			; CMiniGameBase::`scalar deleting destructor'
_TEXT	ENDS
; Function compile flags: /Ogtp
; File C:\IAGOS\server\v18\Source\Source\_Common\MiniGameBase.cpp
; File C:\Program Files\Microsoft Visual Studio\2022\Professional\VC\Tools\MSVC\14.44.35207\include\vector
; File C:\IAGOS\server\v18\Source\Source\_Common\MiniGameBase.cpp
; File C:\Program Files\Microsoft Visual Studio\2022\Professional\VC\Tools\MSVC\14.44.35207\include\vector
; File C:\IAGOS\server\v18\Source\Source\_Common\MiniGameBase.cpp
;	COMDAT ?SendExtPacket@CMiniGameBase@@QAEXPAVCUser@@U__MINIGAME_EXT_PACKET@@@Z
_TEXT	SEGMENT
_this$ = -16						; size = 4
__$EHRec$ = -12						; size = 12
_pUser$ = 8						; size = 4
_MiniGameExtPacket$ = 12				; size = 32
?SendExtPacket@CMiniGameBase@@QAEXPAVCUser@@U__MINIGAME_EXT_PACKET@@@Z PROC ; CMiniGameBase::SendExtPacket, COMDAT
; _this$ = ecx

; 23   : {

  00000	55		 push	 ebp
  00001	8b ec		 mov	 ebp, esp
  00003	6a ff		 push	 -1
  00005	68 00 00 00 00	 push	 __ehhandler$?SendExtPacket@CMiniGameBase@@QAEXPAVCUser@@U__MINIGAME_EXT_PACKET@@@Z
  0000a	64 a1 00 00 00
	00		 mov	 eax, DWORD PTR fs:0
  00010	50		 push	 eax
  00011	51		 push	 ecx
  00012	a1 00 00 00 00	 mov	 eax, DWORD PTR ___security_cookie
  00017	33 c5		 xor	 eax, ebp
  00019	50		 push	 eax
  0001a	8d 45 f4	 lea	 eax, DWORD PTR __$EHRec$[ebp]
  0001d	64 a3 00 00 00
	00		 mov	 DWORD PTR fs:0, eax

; 24   : 	pUser->AddMiniGameExtState( MiniGameExtPacket );

  00023	83 ec 20	 sub	 esp, 32			; 00000020H
  00026	c7 45 fc 00 00
	00 00		 mov	 DWORD PTR __$EHRec$[ebp+8], 0
  0002d	8b cc		 mov	 ecx, esp
  0002f	89 4d f0	 mov	 DWORD PTR _this$[ebp], ecx
  00032	c7 01 00 00 00
	00		 mov	 DWORD PTR [ecx], OFFSET ??_7__MINIGAME_PACKET@@6B@
  00038	66 8b 45 10	 mov	 ax, WORD PTR _MiniGameExtPacket$[ebp+4]
  0003c	66 89 41 04	 mov	 WORD PTR [ecx+4], ax
  00040	8b 45 14	 mov	 eax, DWORD PTR _MiniGameExtPacket$[ebp+8]
  00043	89 41 08	 mov	 DWORD PTR [ecx+8], eax
  00046	8b 45 18	 mov	 eax, DWORD PTR _MiniGameExtPacket$[ebp+12]
  00049	89 41 0c	 mov	 DWORD PTR [ecx+12], eax
  0004c	8b 45 1c	 mov	 eax, DWORD PTR _MiniGameExtPacket$[ebp+16]
  0004f	89 41 10	 mov	 DWORD PTR [ecx+16], eax
; File C:\Program Files\Microsoft Visual Studio\2022\Professional\VC\Tools\MSVC\14.44.35207\include\vector

; 749  :         _Construct_n(_Count, _Right_data._Myfirst, _Right_data._Mylast);

  00052	8d 45 24	 lea	 eax, DWORD PTR _MiniGameExtPacket$[ebp+24]
  00055	c7 01 00 00 00
	00		 mov	 DWORD PTR [ecx], OFFSET ??_7__MINIGAME_EXT_PACKET@@6B@
  0005b	83 c1 14	 add	 ecx, 20			; 00000014H
  0005e	50		 push	 eax
  0005f	8d 45 20	 lea	 eax, DWORD PTR _MiniGameExtPacket$[ebp+20]
  00062	50		 push	 eax

; 400  :     _CONSTEXPR20 _Vector_val() noexcept : _Myfirst(), _Mylast(), _Myend() {}

  00063	c7 01 00 00 00
	00		 mov	 DWORD PTR [ecx], 0

; 748  :         const auto _Count       = static_cast<size_type>(_Right_data._Mylast - _Right_data._Myfirst);

  00069	b8 ab aa aa 2a	 mov	 eax, 715827883		; 2aaaaaabH

; 400  :     _CONSTEXPR20 _Vector_val() noexcept : _Myfirst(), _Mylast(), _Myend() {}

  0006e	c7 41 04 00 00
	00 00		 mov	 DWORD PTR [ecx+4], 0
  00075	c7 41 08 00 00
	00 00		 mov	 DWORD PTR [ecx+8], 0

; 748  :         const auto _Count       = static_cast<size_type>(_Right_data._Mylast - _Right_data._Myfirst);

  0007c	8b 55 24	 mov	 edx, DWORD PTR _MiniGameExtPacket$[ebp+24]
  0007f	2b 55 20	 sub	 edx, DWORD PTR _MiniGameExtPacket$[ebp+20]
  00082	f7 ea		 imul	 edx
  00084	c1 fa 02	 sar	 edx, 2
  00087	8b c2		 mov	 eax, edx
  00089	c1 e8 1f	 shr	 eax, 31			; 0000001fH
  0008c	03 c2		 add	 eax, edx

; 749  :         _Construct_n(_Count, _Right_data._Myfirst, _Right_data._Mylast);

  0008e	50		 push	 eax
  0008f	e8 00 00 00 00	 call	 ??$_Construct_n@ABQAV?$basic_string@DU?$char_traits@D@std@@V?$allocator@D@2@@std@@ABQAV12@@?$vector@V?$basic_string@DU?$char_traits@D@std@@V?$allocator@D@2@@std@@V?$allocator@V?$basic_string@DU?$char_traits@D@std@@V?$allocator@D@2@@std@@@2@@std@@AAEXIABQAV?$basic_string@DU?$char_traits@D@std@@V?$allocator@D@2@@1@0@Z ; std::vector<std::basic_string<char,std::char_traits<char>,std::allocator<char> >,std::allocator<std::basic_string<char,std::char_traits<char>,std::allocator<char> > > >::_Construct_n<std::basic_string<char,std::char_traits<char>,std::allocator<char> > * const &,std::basic_string<char,std::char_traits<char>,std::allocator<char> > * const &>
; File C:\IAGOS\server\v18\Source\Source\_Common\MiniGameBase.cpp

; 24   : 	pUser->AddMiniGameExtState( MiniGameExtPacket );

  00094	8b 4d 08	 mov	 ecx, DWORD PTR _pUser$[ebp]
  00097	e8 00 00 00 00	 call	 ?AddMiniGameExtState@CUser@@QAEXU__MINIGAME_EXT_PACKET@@@Z ; CUser::AddMiniGameExtState
; File C:\Program Files\Microsoft Visual Studio\2022\Professional\VC\Tools\MSVC\14.44.35207\include\vector

; 830  :         _Tidy();

  0009c	8d 4d 20	 lea	 ecx, DWORD PTR _MiniGameExtPacket$[ebp+20]
  0009f	e8 00 00 00 00	 call	 ?_Tidy@?$vector@V?$basic_string@DU?$char_traits@D@std@@V?$allocator@D@2@@std@@V?$allocator@V?$basic_string@DU?$char_traits@D@std@@V?$allocator@D@2@@std@@@2@@std@@AAEXXZ ; std::vector<std::basic_string<char,std::char_traits<char>,std::allocator<char> >,std::allocator<std::basic_string<char,std::char_traits<char>,std::allocator<char> > > >::_Tidy
; File C:\IAGOS\server\v18\Source\Source\_Common\MiniGameBase.cpp

; 25   : }

  000a4	8b 4d f4	 mov	 ecx, DWORD PTR __$EHRec$[ebp]
  000a7	64 89 0d 00 00
	00 00		 mov	 DWORD PTR fs:0, ecx
  000ae	59		 pop	 ecx
  000af	8b e5		 mov	 esp, ebp
  000b1	5d		 pop	 ebp
  000b2	c2 24 00	 ret	 36			; 00000024H
_TEXT	ENDS
;	COMDAT text$x
text$x	SEGMENT
__unwindfunclet$?SendExtPacket@CMiniGameBase@@QAEXPAVCUser@@U__MINIGAME_EXT_PACKET@@@Z$0:
  00000	8d 4d 0c	 lea	 ecx, DWORD PTR _MiniGameExtPacket$[ebp]
  00003	e9 00 00 00 00	 jmp	 ??1__MINIGAME_EXT_PACKET@@QAE@XZ
  00008	cc		 int	 3
  00009	cc		 int	 3
  0000a	cc		 int	 3
  0000b	cc		 int	 3
  0000c	cc		 int	 3
__ehhandler$?SendExtPacket@CMiniGameBase@@QAEXPAVCUser@@U__MINIGAME_EXT_PACKET@@@Z:
  0000d	90		 npad	 1
  0000e	90		 npad	 1
  0000f	8b 54 24 08	 mov	 edx, DWORD PTR [esp+8]
  00013	8d 42 0c	 lea	 eax, DWORD PTR [edx+12]
  00016	8b 4a f8	 mov	 ecx, DWORD PTR [edx-8]
  00019	33 c8		 xor	 ecx, eax
  0001b	e8 00 00 00 00	 call	 @__security_check_cookie@4
  00020	b8 00 00 00 00	 mov	 eax, OFFSET __ehfuncinfo$?SendExtPacket@CMiniGameBase@@QAEXPAVCUser@@U__MINIGAME_EXT_PACKET@@@Z
  00025	e9 00 00 00 00	 jmp	 ___CxxFrameHandler3
text$x	ENDS
?SendExtPacket@CMiniGameBase@@QAEXPAVCUser@@U__MINIGAME_EXT_PACKET@@@Z ENDP ; CMiniGameBase::SendExtPacket
; Function compile flags: /Ogtp
; File C:\IAGOS\server\v18\Source\Source\_Common\MiniGameBase.cpp
;	COMDAT ?SendPacket@CMiniGameBase@@QAEXPAVCUser@@U__MINIGAME_PACKET@@@Z
_TEXT	SEGMENT
_pUser$ = 8						; size = 4
_MiniGamePacket$ = 12					; size = 20
?SendPacket@CMiniGameBase@@QAEXPAVCUser@@U__MINIGAME_PACKET@@@Z PROC ; CMiniGameBase::SendPacket, COMDAT
; _this$ = ecx

; 18   : {

  00000	55		 push	 ebp
  00001	8b ec		 mov	 ebp, esp

; 19   : 	pUser->AddMiniGameState( MiniGamePacket );

  00003	83 ec 14	 sub	 esp, 20			; 00000014H
  00006	8b cc		 mov	 ecx, esp
  00008	c7 01 00 00 00
	00		 mov	 DWORD PTR [ecx], OFFSET ??_7__MINIGAME_PACKET@@6B@
  0000e	66 8b 45 10	 mov	 ax, WORD PTR _MiniGamePacket$[ebp+4]
  00012	66 89 41 04	 mov	 WORD PTR [ecx+4], ax
  00016	8b 45 14	 mov	 eax, DWORD PTR _MiniGamePacket$[ebp+8]
  00019	89 41 08	 mov	 DWORD PTR [ecx+8], eax
  0001c	8b 45 18	 mov	 eax, DWORD PTR _MiniGamePacket$[ebp+12]
  0001f	89 41 0c	 mov	 DWORD PTR [ecx+12], eax
  00022	8b 45 1c	 mov	 eax, DWORD PTR _MiniGamePacket$[ebp+16]
  00025	89 41 10	 mov	 DWORD PTR [ecx+16], eax
  00028	8b 4d 08	 mov	 ecx, DWORD PTR _pUser$[ebp]
  0002b	e8 00 00 00 00	 call	 ?AddMiniGameState@CUser@@QAEXU__MINIGAME_PACKET@@@Z ; CUser::AddMiniGameState

; 20   : }

  00030	5d		 pop	 ebp
  00031	c2 18 00	 ret	 24			; 00000018H
?SendPacket@CMiniGameBase@@QAEXPAVCUser@@U__MINIGAME_PACKET@@@Z ENDP ; CMiniGameBase::SendPacket
_TEXT	ENDS
; Function compile flags: /Ogtp
; File C:\IAGOS\server\v18\Source\Source\_Common\MiniGameBase.cpp
;	COMDAT ??1CMiniGameBase@@UAE@XZ
_TEXT	SEGMENT
??1CMiniGameBase@@UAE@XZ PROC				; CMiniGameBase::~CMiniGameBase, COMDAT
; _this$ = ecx

; 14   : {

  00000	c7 01 00 00 00
	00		 mov	 DWORD PTR [ecx], OFFSET ??_7CMiniGameBase@@6B@

; 15   : }

  00006	c3		 ret	 0
??1CMiniGameBase@@UAE@XZ ENDP				; CMiniGameBase::~CMiniGameBase
_TEXT	ENDS
; Function compile flags: /Ogtp
; File C:\IAGOS\server\v18\Source\Source\_Common\MiniGameBase.cpp
;	COMDAT ??0CMiniGameBase@@QAE@XZ
_TEXT	SEGMENT
??0CMiniGameBase@@QAE@XZ PROC				; CMiniGameBase::CMiniGameBase, COMDAT
; _this$ = ecx

; 10   : {

  00000	c7 01 00 00 00
	00		 mov	 DWORD PTR [ecx], OFFSET ??_7CMiniGameBase@@6B@

; 11   : }

  00006	8b c1		 mov	 eax, ecx
  00008	c3		 ret	 0
??0CMiniGameBase@@QAE@XZ ENDP				; CMiniGameBase::CMiniGameBase
_TEXT	ENDS
; Function compile flags: /Ogtp
; File C:\IAGOS\server\v18\Source\Source\_Network\Misc\Include\ar.h
;	COMDAT ??$?6I@CAr@@QAEAAV0@ABI@Z
_TEXT	SEGMENT
_t$ = 8							; size = 4
??$?6I@CAr@@QAEAAV0@ABI@Z PROC				; CAr::operator<<<unsigned int>, COMDAT
; _this$ = ecx

; 255  : {

  00000	55		 push	 ebp
  00001	8b ec		 mov	 ebp, esp
  00003	56		 push	 esi

; 256  : 	CheckBuf(sizeof(T));

  00004	6a 04		 push	 4
  00006	8b f1		 mov	 esi, ecx
  00008	e8 00 00 00 00	 call	 ?CheckBuf@CAr@@QAEXI@Z	; CAr::CheckBuf

; 257  : 	*(UNALIGNED T*)m_lpBufCur = t;

  0000d	8b 56 08	 mov	 edx, DWORD PTR [esi+8]
  00010	8b 45 08	 mov	 eax, DWORD PTR _t$[ebp]
  00013	8b 00		 mov	 eax, DWORD PTR [eax]
  00015	89 02		 mov	 DWORD PTR [edx], eax

; 258  : 	m_lpBufCur += sizeof(T);
; 259  : 	return *this;

  00017	8b c6		 mov	 eax, esi
  00019	83 46 08 04	 add	 DWORD PTR [esi+8], 4
  0001d	5e		 pop	 esi

; 260  : }

  0001e	5d		 pop	 ebp
  0001f	c2 04 00	 ret	 4
??$?6I@CAr@@QAEAAV0@ABI@Z ENDP				; CAr::operator<<<unsigned int>
_TEXT	ENDS
; Function compile flags: /Ogtp
; File C:\Program Files\Microsoft Visual Studio\2022\Professional\VC\Tools\MSVC\14.44.35207\include\vector
;	COMDAT ??1__MINIGAME_EXT_PACKET@@QAE@XZ
_TEXT	SEGMENT
??1__MINIGAME_EXT_PACKET@@QAE@XZ PROC			; __MINIGAME_EXT_PACKET::~__MINIGAME_EXT_PACKET, COMDAT
; _this$ = ecx
  00000	83 c1 14	 add	 ecx, 20			; 00000014H

; 830  :         _Tidy();

  00003	e9 00 00 00 00	 jmp	 ?_Tidy@?$vector@V?$basic_string@DU?$char_traits@D@std@@V?$allocator@D@2@@std@@V?$allocator@V?$basic_string@DU?$char_traits@D@std@@V?$allocator@D@2@@std@@@2@@std@@AAEXXZ ; std::vector<std::basic_string<char,std::char_traits<char>,std::allocator<char> >,std::allocator<std::basic_string<char,std::char_traits<char>,std::allocator<char> > > >::_Tidy
??1__MINIGAME_EXT_PACKET@@QAE@XZ ENDP			; __MINIGAME_EXT_PACKET::~__MINIGAME_EXT_PACKET
_TEXT	ENDS
; Function compile flags: /Ogtp
; File C:\IAGOS\server\v18\Source\Source\_Common\minigamebase.h
; File C:\IAGOS\server\v18\Source\Source\_Network\Misc\Include\ar.h
; File C:\IAGOS\server\v18\Source\Source\_Common\minigamebase.h
; File C:\IAGOS\server\v18\Source\Source\_Network\Misc\Include\ar.h
; File C:\IAGOS\server\v18\Source\Source\_Common\minigamebase.h
; File C:\IAGOS\server\v18\Source\Source\_Network\Misc\Include\ar.h
; File C:\IAGOS\server\v18\Source\Source\_Common\minigamebase.h
; File C:\Program Files\Microsoft Visual Studio\2022\Professional\VC\Tools\MSVC\14.44.35207\include\vector
; File C:\IAGOS\server\v18\Source\Source\_Common\minigamebase.h
; File C:\Program Files\Microsoft Visual Studio\2022\Professional\VC\Tools\MSVC\14.44.35207\include\vector
; File C:\IAGOS\server\v18\Source\Source\_Common\minigamebase.h
; File C:\Program Files\Microsoft Visual Studio\2022\Professional\VC\Tools\MSVC\14.44.35207\include\vector
; File C:\IAGOS\server\v18\Source\Source\_Common\minigamebase.h
; File C:\Program Files\Microsoft Visual Studio\2022\Professional\VC\Tools\MSVC\14.44.35207\include\vector
; File C:\IAGOS\server\v18\Source\Source\_Common\minigamebase.h
; File C:\Program Files\Microsoft Visual Studio\2022\Professional\VC\Tools\MSVC\14.44.35207\include\vector
; File C:\Program Files\Microsoft Visual Studio\2022\Professional\VC\Tools\MSVC\14.44.35207\include\xstring
; File C:\IAGOS\server\v18\Source\Source\_Common\minigamebase.h
; File C:\Program Files\Microsoft Visual Studio\2022\Professional\VC\Tools\MSVC\14.44.35207\include\vector
; File C:\IAGOS\server\v18\Source\Source\_Common\minigamebase.h
; File C:\Program Files\Microsoft Visual Studio\2022\Professional\VC\Tools\MSVC\14.44.35207\include\vector
; File C:\IAGOS\server\v18\Source\Source\_Common\minigamebase.h
; File C:\Program Files\Microsoft Visual Studio\2022\Professional\VC\Tools\MSVC\14.44.35207\include\vector
; File C:\IAGOS\server\v18\Source\Source\_Common\minigamebase.h
; File C:\Program Files\Microsoft Visual Studio\2022\Professional\VC\Tools\MSVC\14.44.35207\include\vector
; File C:\Program Files\Microsoft Visual Studio\2022\Professional\VC\Tools\MSVC\14.44.35207\include\xmemory
; File C:\Program Files\Microsoft Visual Studio\2022\Professional\VC\Tools\MSVC\14.44.35207\include\vector
; File C:\IAGOS\server\v18\Source\Source\_Common\minigamebase.h
; File C:\Program Files\Microsoft Visual Studio\2022\Professional\VC\Tools\MSVC\14.44.35207\include\xstring
; File C:\Program Files\Microsoft Visual Studio\2022\Professional\VC\Tools\MSVC\14.44.35207\include\__msvc_string_view.hpp
; File C:\Program Files\Microsoft Visual Studio\2022\Professional\VC\Tools\MSVC\14.44.35207\include\xstring
; File C:\Program Files\Microsoft Visual Studio\2022\Professional\VC\Tools\MSVC\14.44.35207\include\__msvc_string_view.hpp
; File C:\Program Files\Microsoft Visual Studio\2022\Professional\VC\Tools\MSVC\14.44.35207\include\xstring
; File C:\Program Files\Microsoft Visual Studio\2022\Professional\VC\Tools\MSVC\14.44.35207\include\__msvc_string_view.hpp
; File C:\Program Files\Microsoft Visual Studio\2022\Professional\VC\Tools\MSVC\14.44.35207\include\xstring
; File C:\Program Files\Microsoft Visual Studio\2022\Professional\VC\Tools\MSVC\14.44.35207\include\__msvc_string_view.hpp
; File C:\Program Files\Microsoft Visual Studio\2022\Professional\VC\Tools\MSVC\14.44.35207\include\xstring
; File C:\Program Files\Microsoft Visual Studio\2022\Professional\VC\Tools\MSVC\14.44.35207\include\__msvc_string_view.hpp
; File C:\Program Files\Microsoft Visual Studio\2022\Professional\VC\Tools\MSVC\14.44.35207\include\xstring
; File C:\Program Files\Microsoft Visual Studio\2022\Professional\VC\Tools\MSVC\14.44.35207\include\xmemory
; File C:\Program Files\Microsoft Visual Studio\2022\Professional\VC\Tools\MSVC\14.44.35207\include\xstring
; File C:\Program Files\Microsoft Visual Studio\2022\Professional\VC\Tools\MSVC\14.44.35207\include\xmemory
; File C:\Program Files\Microsoft Visual Studio\2022\Professional\VC\Tools\MSVC\14.44.35207\include\xstring
; File C:\Program Files\Microsoft Visual Studio\2022\Professional\VC\Tools\MSVC\14.44.35207\include\__msvc_string_view.hpp
; File C:\Program Files\Microsoft Visual Studio\2022\Professional\VC\Tools\MSVC\14.44.35207\include\xstring
; File C:\Program Files\Microsoft Visual Studio\2022\Professional\VC\Tools\MSVC\14.44.35207\include\__msvc_string_view.hpp
; File C:\Program Files\Microsoft Visual Studio\2022\Professional\VC\Tools\MSVC\14.44.35207\include\xstring
; File C:\Program Files\Microsoft Visual Studio\2022\Professional\VC\Tools\MSVC\14.44.35207\include\__msvc_string_view.hpp
; File C:\Program Files\Microsoft Visual Studio\2022\Professional\VC\Tools\MSVC\14.44.35207\include\xstring
; File C:\IAGOS\server\v18\Source\Source\_Common\minigamebase.h
; File C:\Program Files\Microsoft Visual Studio\2022\Professional\VC\Tools\MSVC\14.44.35207\include\vector
; File C:\IAGOS\server\v18\Source\Source\_Common\minigamebase.h
; File C:\Program Files\Microsoft Visual Studio\2022\Professional\VC\Tools\MSVC\14.44.35207\include\vector
; File C:\Program Files\Microsoft Visual Studio\2022\Professional\VC\Tools\MSVC\14.44.35207\include\xstring
; File C:\Program Files\Microsoft Visual Studio\2022\Professional\VC\Tools\MSVC\14.44.35207\include\vector
; File C:\IAGOS\server\v18\Source\Source\_Common\minigamebase.h
; File C:\Program Files\Microsoft Visual Studio\2022\Professional\VC\Tools\MSVC\14.44.35207\include\xstring
; File C:\Program Files\Microsoft Visual Studio\2022\Professional\VC\Tools\MSVC\14.44.35207\include\xmemory
; File C:\Program Files\Microsoft Visual Studio\2022\Professional\VC\Tools\MSVC\14.44.35207\include\xstring
; File C:\Program Files\Microsoft Visual Studio\2022\Professional\VC\Tools\MSVC\14.44.35207\include\xmemory
; File C:\IAGOS\server\v18\Source\Source\_Common\minigamebase.h
; File C:\Program Files\Microsoft Visual Studio\2022\Professional\VC\Tools\MSVC\14.44.35207\include\xstring
; File C:\Program Files\Microsoft Visual Studio\2022\Professional\VC\Tools\MSVC\14.44.35207\include\xmemory
; File C:\IAGOS\server\v18\Source\Source\_Common\minigamebase.h
;	COMDAT ?Serialize@__MINIGAME_EXT_PACKET@@UAEXAAVCAr@@@Z
_TEXT	SEGMENT
_this$1$ = -316						; size = 4
_ar$GSCopy$1$ = -312					; size = 4
_nSize$2 = -308						; size = 4
$T3 = -304						; size = 4
_i$1$ = -304						; size = 4
_i$1$ = -300						; size = 4
$T4 = -300						; size = 4
$T5 = -296						; size = 24
_szTemp$6 = -272					; size = 256
__$ArrayPad$ = -16					; size = 4
__$EHRec$ = -12						; size = 12
_ar$ = 8						; size = 4
?Serialize@__MINIGAME_EXT_PACKET@@UAEXAAVCAr@@@Z PROC	; __MINIGAME_EXT_PACKET::Serialize, COMDAT
; _this$ = ecx

; 30   : 	{

  00000	55		 push	 ebp
  00001	8b ec		 mov	 ebp, esp
  00003	6a ff		 push	 -1
  00005	68 00 00 00 00	 push	 __ehhandler$?Serialize@__MINIGAME_EXT_PACKET@@UAEXAAVCAr@@@Z
  0000a	64 a1 00 00 00
	00		 mov	 eax, DWORD PTR fs:0
  00010	50		 push	 eax
  00011	81 ec 30 01 00
	00		 sub	 esp, 304		; 00000130H
  00017	a1 00 00 00 00	 mov	 eax, DWORD PTR ___security_cookie
  0001c	33 c5		 xor	 eax, ebp
  0001e	89 45 f0	 mov	 DWORD PTR __$ArrayPad$[ebp], eax
  00021	56		 push	 esi
  00022	57		 push	 edi
  00023	50		 push	 eax
  00024	8d 45 f4	 lea	 eax, DWORD PTR __$EHRec$[ebp]
  00027	64 a3 00 00 00
	00		 mov	 DWORD PTR fs:0, eax
  0002d	8b f9		 mov	 edi, ecx
  0002f	8b 75 08	 mov	 esi, DWORD PTR _ar$[ebp]

; 17   : 		if( ar.IsStoring() )

  00032	8d 47 10	 lea	 eax, DWORD PTR [edi+16]
  00035	50		 push	 eax
; File C:\IAGOS\server\v18\Source\Source\_Network\Misc\Include\ar.h

; 146  : 	return (m_nMode & CAr::load) == 0;

  00036	8d 4f 0c	 lea	 ecx, DWORD PTR [edi+12]
; File C:\IAGOS\server\v18\Source\Source\_Common\minigamebase.h

; 30   : 	{

  00039	89 b5 c8 fe ff
	ff		 mov	 DWORD PTR _ar$GSCopy$1$[ebp], esi

; 17   : 		if( ar.IsStoring() )

  0003f	51		 push	 ecx
; File C:\IAGOS\server\v18\Source\Source\_Network\Misc\Include\ar.h

; 146  : 	return (m_nMode & CAr::load) == 0;

  00040	f6 06 01	 test	 BYTE PTR [esi], 1
  00043	8d 57 08	 lea	 edx, DWORD PTR [edi+8]
; File C:\IAGOS\server\v18\Source\Source\_Common\minigamebase.h

; 17   : 		if( ar.IsStoring() )

  00046	8d 47 04	 lea	 eax, DWORD PTR [edi+4]
  00049	8b ce		 mov	 ecx, esi
  0004b	52		 push	 edx
  0004c	50		 push	 eax
  0004d	75 1c		 jne	 SHORT $LN13@Serialize

; 18   : 			ar << wNowGame << nState << nParam1 << nParam2;

  0004f	e8 00 00 00 00	 call	 ??$?6G@CAr@@QAEAAV0@ABG@Z ; CAr::operator<<<unsigned short>
  00054	8b c8		 mov	 ecx, eax
  00056	e8 00 00 00 00	 call	 ??$?6H@CAr@@QAEAAV0@ABH@Z ; CAr::operator<<<int>
  0005b	8b c8		 mov	 ecx, eax
  0005d	e8 00 00 00 00	 call	 ??$?6H@CAr@@QAEAAV0@ABH@Z ; CAr::operator<<<int>
  00062	8b c8		 mov	 ecx, eax
  00064	e8 00 00 00 00	 call	 ??$?6H@CAr@@QAEAAV0@ABH@Z ; CAr::operator<<<int>
  00069	eb 1a		 jmp	 SHORT $LN14@Serialize
$LN13@Serialize:

; 19   : 		else
; 20   : 			ar >> wNowGame >> nState >> nParam1 >> nParam2;

  0006b	e8 00 00 00 00	 call	 ??$?5G@CAr@@QAEAAV0@AAG@Z ; CAr::operator>><unsigned short>
  00070	8b c8		 mov	 ecx, eax
  00072	e8 00 00 00 00	 call	 ??$?5H@CAr@@QAEAAV0@AAH@Z ; CAr::operator>><int>
  00077	8b c8		 mov	 ecx, eax
  00079	e8 00 00 00 00	 call	 ??$?5H@CAr@@QAEAAV0@AAH@Z ; CAr::operator>><int>
  0007e	8b c8		 mov	 ecx, eax
  00080	e8 00 00 00 00	 call	 ??$?5H@CAr@@QAEAAV0@AAH@Z ; CAr::operator>><int>
$LN14@Serialize:
; File C:\IAGOS\server\v18\Source\Source\_Network\Misc\Include\ar.h

; 146  : 	return (m_nMode & CAr::load) == 0;

  00085	83 c7 14	 add	 edi, 20			; 00000014H
  00088	f6 06 01	 test	 BYTE PTR [esi], 1
  0008b	89 bd c4 fe ff
	ff		 mov	 DWORD PTR _this$1$[ebp], edi
; File C:\IAGOS\server\v18\Source\Source\_Common\minigamebase.h

; 32   : 		if( ar.IsStoring() )

  00091	0f 85 a8 00 00
	00		 jne	 $LN8@Serialize
; File C:\Program Files\Microsoft Visual Studio\2022\Professional\VC\Tools\MSVC\14.44.35207\include\vector

; 1915 :         return static_cast<size_type>(_My_data._Mylast - _My_data._Myfirst);

  00097	8b 4f 04	 mov	 ecx, DWORD PTR [edi+4]
  0009a	b8 ab aa aa 2a	 mov	 eax, 715827883		; 2aaaaaabH
  0009f	2b 0f		 sub	 ecx, DWORD PTR [edi]
  000a1	f7 e9		 imul	 ecx
; File C:\IAGOS\server\v18\Source\Source\_Common\minigamebase.h

; 34   : 			ar << vecszData.size();

  000a3	8b ce		 mov	 ecx, esi
; File C:\Program Files\Microsoft Visual Studio\2022\Professional\VC\Tools\MSVC\14.44.35207\include\vector

; 1915 :         return static_cast<size_type>(_My_data._Mylast - _My_data._Myfirst);

  000a5	c1 fa 02	 sar	 edx, 2
  000a8	8b c2		 mov	 eax, edx
  000aa	c1 e8 1f	 shr	 eax, 31			; 0000001fH
  000ad	03 c2		 add	 eax, edx
; File C:\IAGOS\server\v18\Source\Source\_Common\minigamebase.h

; 34   : 			ar << vecszData.size();

  000af	89 85 d0 fe ff
	ff		 mov	 DWORD PTR $T3[ebp], eax
  000b5	8d 85 d0 fe ff
	ff		 lea	 eax, DWORD PTR $T3[ebp]
  000bb	50		 push	 eax
  000bc	e8 00 00 00 00	 call	 ??$?6I@CAr@@QAEAAV0@ABI@Z ; CAr::operator<<<unsigned int>

; 35   : 			for( DWORD i=0; i<vecszData.size(); i++ )

  000c1	33 c9		 xor	 ecx, ecx
; File C:\Program Files\Microsoft Visual Studio\2022\Professional\VC\Tools\MSVC\14.44.35207\include\vector

; 1915 :         return static_cast<size_type>(_My_data._Mylast - _My_data._Myfirst);

  000c3	b8 ab aa aa 2a	 mov	 eax, 715827883		; 2aaaaaabH
; File C:\IAGOS\server\v18\Source\Source\_Common\minigamebase.h

; 35   : 			for( DWORD i=0; i<vecszData.size(); i++ )

  000c8	89 8d d4 fe ff
	ff		 mov	 DWORD PTR _i$1$[ebp], ecx
; File C:\Program Files\Microsoft Visual Studio\2022\Professional\VC\Tools\MSVC\14.44.35207\include\vector

; 1915 :         return static_cast<size_type>(_My_data._Mylast - _My_data._Myfirst);

  000ce	8b 4f 04	 mov	 ecx, DWORD PTR [edi+4]
  000d1	2b 0f		 sub	 ecx, DWORD PTR [edi]
  000d3	f7 e9		 imul	 ecx
  000d5	c1 fa 02	 sar	 edx, 2
  000d8	8b c2		 mov	 eax, edx
  000da	c1 e8 1f	 shr	 eax, 31			; 0000001fH
  000dd	03 c2		 add	 eax, edx
; File C:\IAGOS\server\v18\Source\Source\_Common\minigamebase.h

; 35   : 			for( DWORD i=0; i<vecszData.size(); i++ )

  000df	74 41		 je	 SHORT $LN6@Serialize
; File C:\Program Files\Microsoft Visual Studio\2022\Professional\VC\Tools\MSVC\14.44.35207\include\vector

; 1914 :         auto& _My_data = _Mypair._Myval2;

  000e1	33 f6		 xor	 esi, esi
$LL4@Serialize:

; 1934 :         return _My_data._Myfirst[_Pos];

  000e3	8b 07		 mov	 eax, DWORD PTR [edi]
  000e5	03 c6		 add	 eax, esi
; File C:\Program Files\Microsoft Visual Studio\2022\Professional\VC\Tools\MSVC\14.44.35207\include\xstring

; 453  :         return _Myres > _Small_string_capacity;

  000e7	83 78 14 0f	 cmp	 DWORD PTR [eax+20], 15	; 0000000fH

; 445  :         if (_Large_mode_engaged()) {

  000eb	76 02		 jbe	 SHORT $LN33@Serialize

; 446  :             _Result = _Unfancy(_Bx._Ptr);

  000ed	8b 00		 mov	 eax, DWORD PTR [eax]
$LN33@Serialize:
; File C:\IAGOS\server\v18\Source\Source\_Common\minigamebase.h

; 36   : 				ar.WriteString( vecszData[i].c_str() );

  000ef	8b 8d c8 fe ff
	ff		 mov	 ecx, DWORD PTR _ar$GSCopy$1$[ebp]
  000f5	50		 push	 eax
  000f6	e8 00 00 00 00	 call	 ?WriteString@CAr@@QAEXPBD@Z ; CAr::WriteString
; File C:\Program Files\Microsoft Visual Studio\2022\Professional\VC\Tools\MSVC\14.44.35207\include\vector

; 1915 :         return static_cast<size_type>(_My_data._Mylast - _My_data._Myfirst);

  000fb	8b 4f 04	 mov	 ecx, DWORD PTR [edi+4]
  000fe	b8 ab aa aa 2a	 mov	 eax, 715827883		; 2aaaaaabH
  00103	2b 0f		 sub	 ecx, DWORD PTR [edi]
; File C:\IAGOS\server\v18\Source\Source\_Common\minigamebase.h

; 35   : 			for( DWORD i=0; i<vecszData.size(); i++ )

  00105	83 c6 18	 add	 esi, 24			; 00000018H
  00108	ff 85 d4 fe ff
	ff		 inc	 DWORD PTR _i$1$[ebp]
; File C:\Program Files\Microsoft Visual Studio\2022\Professional\VC\Tools\MSVC\14.44.35207\include\vector

; 1915 :         return static_cast<size_type>(_My_data._Mylast - _My_data._Myfirst);

  0010e	f7 e9		 imul	 ecx
  00110	c1 fa 02	 sar	 edx, 2
  00113	8b c2		 mov	 eax, edx
  00115	c1 e8 1f	 shr	 eax, 31			; 0000001fH
  00118	03 c2		 add	 eax, edx
; File C:\IAGOS\server\v18\Source\Source\_Common\minigamebase.h

; 35   : 			for( DWORD i=0; i<vecszData.size(); i++ )

  0011a	39 85 d4 fe ff
	ff		 cmp	 DWORD PTR _i$1$[ebp], eax
  00120	72 c1		 jb	 SHORT $LL4@Serialize
$LN6@Serialize:

; 49   : 	}

  00122	8b 4d f4	 mov	 ecx, DWORD PTR __$EHRec$[ebp]
  00125	64 89 0d 00 00
	00 00		 mov	 DWORD PTR fs:0, ecx
  0012c	59		 pop	 ecx
  0012d	5f		 pop	 edi
  0012e	5e		 pop	 esi
  0012f	8b 4d f0	 mov	 ecx, DWORD PTR __$ArrayPad$[ebp]
  00132	33 cd		 xor	 ecx, ebp
  00134	e8 00 00 00 00	 call	 @__security_check_cookie@4
  00139	8b e5		 mov	 esp, ebp
  0013b	5d		 pop	 ebp
  0013c	c2 04 00	 ret	 4
$LN8@Serialize:
; File C:\Program Files\Microsoft Visual Studio\2022\Professional\VC\Tools\MSVC\14.44.35207\include\vector

; 1812 :         if (_Myfirst == _Mylast) { // already empty, nothing to do

  0013f	8b 37		 mov	 esi, DWORD PTR [edi]
  00141	8b 47 04	 mov	 eax, DWORD PTR [edi+4]
; File C:\IAGOS\server\v18\Source\Source\_Common\minigamebase.h

; 40   : 			int nSize = 0; vecszData.clear();

  00144	c7 85 cc fe ff
	ff 00 00 00 00	 mov	 DWORD PTR _nSize$2[ebp], 0
; File C:\Program Files\Microsoft Visual Studio\2022\Professional\VC\Tools\MSVC\14.44.35207\include\vector

; 1812 :         if (_Myfirst == _Mylast) { // already empty, nothing to do

  0014e	3b f0		 cmp	 esi, eax
  00150	74 1b		 je	 SHORT $LN39@Serialize
  00152	8b f8		 mov	 edi, eax
$LL46@Serialize:
  00154	8b ce		 mov	 ecx, esi
  00156	e8 00 00 00 00	 call	 ??1?$basic_string@DU?$char_traits@D@std@@V?$allocator@D@2@@std@@QAE@XZ ; std::basic_string<char,std::char_traits<char>,std::allocator<char> >::~basic_string<char,std::char_traits<char>,std::allocator<char> >
; File C:\Program Files\Microsoft Visual Studio\2022\Professional\VC\Tools\MSVC\14.44.35207\include\xmemory

; 1102 :         for (; _First != _Last; ++_First) {

  0015b	83 c6 18	 add	 esi, 24			; 00000018H
  0015e	3b f7		 cmp	 esi, edi
  00160	75 f2		 jne	 SHORT $LL46@Serialize
; File C:\Program Files\Microsoft Visual Studio\2022\Professional\VC\Tools\MSVC\14.44.35207\include\vector

; 1822 :         _Mylast = _Myfirst;

  00162	8b bd c4 fe ff
	ff		 mov	 edi, DWORD PTR _this$1$[ebp]
  00168	8b 07		 mov	 eax, DWORD PTR [edi]
  0016a	89 47 04	 mov	 DWORD PTR [edi+4], eax
$LN39@Serialize:
; File C:\IAGOS\server\v18\Source\Source\_Common\minigamebase.h

; 41   : 			ar >> nSize;

  0016d	8b b5 c8 fe ff
	ff		 mov	 esi, DWORD PTR _ar$GSCopy$1$[ebp]
  00173	8d 85 cc fe ff
	ff		 lea	 eax, DWORD PTR _nSize$2[ebp]
  00179	50		 push	 eax
  0017a	8b ce		 mov	 ecx, esi
  0017c	e8 00 00 00 00	 call	 ??$?5H@CAr@@QAEAAV0@AAH@Z ; CAr::operator>><int>

; 42   : 			for( int i=0; i<nSize; i++ )

  00181	83 bd cc fe ff
	ff 00		 cmp	 DWORD PTR _nSize$2[ebp], 0
  00188	c7 85 d0 fe ff
	ff 00 00 00 00	 mov	 DWORD PTR _i$1$[ebp], 0
  00192	7e 8e		 jle	 SHORT $LN6@Serialize
  00194	0f 1f 40 00 0f
	1f 84 00 00 00
	00 00		 npad	 12
$LL7@Serialize:

; 43   : 			{
; 44   : 				char szTemp[256] = {0,};

  001a0	68 00 01 00 00	 push	 256			; 00000100H
  001a5	8d 85 f0 fe ff
	ff		 lea	 eax, DWORD PTR _szTemp$6[ebp]
  001ab	6a 00		 push	 0
  001ad	50		 push	 eax
  001ae	e8 00 00 00 00	 call	 _memset
  001b3	83 c4 0c	 add	 esp, 12			; 0000000cH

; 45   : 				ar.ReadString( szTemp, 256 );

  001b6	8d 85 f0 fe ff
	ff		 lea	 eax, DWORD PTR _szTemp$6[ebp]
  001bc	8b ce		 mov	 ecx, esi
  001be	68 00 01 00 00	 push	 256			; 00000100H
  001c3	50		 push	 eax
  001c4	e8 00 00 00 00	 call	 ?ReadString@CAr@@QAEPADPADH@Z ; CAr::ReadString
  001c9	0f 57 c0	 xorps	 xmm0, xmm0
; File C:\Program Files\Microsoft Visual Studio\2022\Professional\VC\Tools\MSVC\14.44.35207\include\xstring

; 517  :     size_type _Mysize = 0; // current length of string (size)

  001cc	c7 85 e8 fe ff
	ff 00 00 00 00	 mov	 DWORD PTR $T5[ebp+16], 0
; File C:\Program Files\Microsoft Visual Studio\2022\Professional\VC\Tools\MSVC\14.44.35207\include\__msvc_string_view.hpp

; 459  :         return _CSTD strlen(reinterpret_cast<const char*>(_First));

  001d6	8d b5 f0 fe ff
	ff		 lea	 esi, DWORD PTR _szTemp$6[ebp]
; File C:\Program Files\Microsoft Visual Studio\2022\Professional\VC\Tools\MSVC\14.44.35207\include\xstring

; 518  :     size_type _Myres  = 0; // current storage reserved for string (capacity)

  001dc	c7 85 ec fe ff
	ff 00 00 00 00	 mov	 DWORD PTR $T5[ebp+20], 0

; 493  :         _CONSTEXPR20 _Bxty() noexcept : _Buf() {} // user-provided, for fancy pointers

  001e6	0f 11 85 d8 fe
	ff ff		 movups	 XMMWORD PTR $T5[ebp], xmm0
; File C:\Program Files\Microsoft Visual Studio\2022\Professional\VC\Tools\MSVC\14.44.35207\include\__msvc_string_view.hpp

; 459  :         return _CSTD strlen(reinterpret_cast<const char*>(_First));

  001ed	8d 4e 01	 lea	 ecx, DWORD PTR [esi+1]
$LL191@Serialize:
  001f0	8a 06		 mov	 al, BYTE PTR [esi]
  001f2	46		 inc	 esi
  001f3	84 c0		 test	 al, al
  001f5	75 f9		 jne	 SHORT $LL191@Serialize
  001f7	2b f1		 sub	 esi, ecx
; File C:\Program Files\Microsoft Visual Studio\2022\Professional\VC\Tools\MSVC\14.44.35207\include\xstring

; 881  :         if (_Count > max_size()) {

  001f9	81 fe ff ff ff
	7f		 cmp	 esi, 2147483647		; 7fffffffH
  001ff	0f 87 5d 01 00
	00		 ja	 $LN178@Serialize

; 883  :         }
; 884  : 
; 885  :         auto& _Al       = _Getal();
; 886  :         auto&& _Alproxy = _GET_PROXY_ALLOCATOR(_Alty, _Al);
; 887  :         _Container_proxy_ptr<_Alty> _Proxy(_Alproxy, _My_data);
; 888  : 
; 889  :         if (_Count <= _Small_string_capacity) {

  00205	83 fe 0f	 cmp	 esi, 15			; 0000000fH
  00208	77 2e		 ja	 SHORT $LN75@Serialize
; File C:\Program Files\Microsoft Visual Studio\2022\Professional\VC\Tools\MSVC\14.44.35207\include\__msvc_string_view.hpp

; 121  :         _CSTD memcpy(_First1, _First2, _Count * sizeof(_Elem));

  0020a	56		 push	 esi
  0020b	8d 85 f0 fe ff
	ff		 lea	 eax, DWORD PTR _szTemp$6[ebp]
; File C:\Program Files\Microsoft Visual Studio\2022\Professional\VC\Tools\MSVC\14.44.35207\include\xstring

; 890  :             _My_data._Mysize = _Count;

  00211	89 b5 e8 fe ff
	ff		 mov	 DWORD PTR $T5[ebp+16], esi
; File C:\Program Files\Microsoft Visual Studio\2022\Professional\VC\Tools\MSVC\14.44.35207\include\__msvc_string_view.hpp

; 121  :         _CSTD memcpy(_First1, _First2, _Count * sizeof(_Elem));

  00217	50		 push	 eax
  00218	8d 85 d8 fe ff
	ff		 lea	 eax, DWORD PTR $T5[ebp]
; File C:\Program Files\Microsoft Visual Studio\2022\Professional\VC\Tools\MSVC\14.44.35207\include\xstring

; 891  :             _My_data._Myres  = _Small_string_capacity;

  0021e	c7 85 ec fe ff
	ff 0f 00 00 00	 mov	 DWORD PTR $T5[ebp+20], 15 ; 0000000fH
; File C:\Program Files\Microsoft Visual Studio\2022\Professional\VC\Tools\MSVC\14.44.35207\include\__msvc_string_view.hpp

; 121  :         _CSTD memcpy(_First1, _First2, _Count * sizeof(_Elem));

  00228	50		 push	 eax
  00229	e8 00 00 00 00	 call	 _memcpy
; File C:\Program Files\Microsoft Visual Studio\2022\Professional\VC\Tools\MSVC\14.44.35207\include\xstring

; 898  :                 _Traits::assign(_My_data._Bx._Buf[_Count], _Elem());

  0022e	c6 84 35 d8 fe
	ff ff 00	 mov	 BYTE PTR $T5[ebp+esi], 0

; 899  :             } else { // _Strat == _Construct_strategy::_From_string
; 900  : #ifdef _INSERT_STRING_ANNOTATION
; 901  :                 _Traits::copy(_My_data._Bx._Buf, _Arg, _Count + 1);
; 902  : #else // ^^^ _INSERT_STRING_ANNOTATION / !_INSERT_STRING_ANNOTATION vvv
; 903  :                 _Traits::copy(_My_data._Bx._Buf, _Arg, _BUF_SIZE);
; 904  : #endif // ^^^ !_INSERT_STRING_ANNOTATION ^^^
; 905  :             }
; 906  : 
; 907  :             _Proxy._Release();
; 908  :             return;

  00236	eb 7f		 jmp	 SHORT $LN194@Serialize
$LN75@Serialize:

; 2978 :         const size_type _Masked = _Requested | _Alloc_mask;

  00238	8b fe		 mov	 edi, esi
  0023a	83 cf 0f	 or	 edi, 15			; 0000000fH
  0023d	81 ff ff ff ff
	7f		 cmp	 edi, 2147483647		; 7fffffffH

; 2979 :         if (_Masked > _Max) { // the mask overflows, settle for max_size()

  00243	76 12		 jbe	 SHORT $LN81@Serialize

; 2980 :             return _Max;

  00245	b8 00 00 00 80	 mov	 eax, -2147483648	; 80000000H
  0024a	bf ff ff ff 7f	 mov	 edi, 2147483647		; 7fffffffH
; File C:\Program Files\Microsoft Visual Studio\2022\Professional\VC\Tools\MSVC\14.44.35207\include\xmemory

; 253  :             return _Allocate_manually_vector_aligned<_Traits>(_Bytes);

  0024f	50		 push	 eax
  00250	e8 00 00 00 00	 call	 ??$_Allocate_manually_vector_aligned@U_Default_allocate_traits@std@@@std@@YAPAXI@Z ; std::_Allocate_manually_vector_aligned<std::_Default_allocate_traits>
  00255	eb 27		 jmp	 SHORT $LN196@Serialize
$LN81@Serialize:
; File C:\Program Files\Microsoft Visual Studio\2022\Professional\VC\Tools\MSVC\14.44.35207\include\xstring

; 2987 :         return (_STD max)(_Masked, _Old + _Old / 2);

  00257	83 ff 16	 cmp	 edi, 22			; 00000016H
  0025a	b8 16 00 00 00	 mov	 eax, 22			; 00000016H
  0025f	0f 42 f8	 cmovb	 edi, eax

; 825  :         ++_Capacity; // Take null terminator into consideration

  00262	8d 47 01	 lea	 eax, DWORD PTR [edi+1]
; File C:\Program Files\Microsoft Visual Studio\2022\Professional\VC\Tools\MSVC\14.44.35207\include\xmemory

; 227  :     if (_Bytes == 0) {

  00265	85 c0		 test	 eax, eax
  00267	74 18		 je	 SHORT $LN195@Serialize
$LN95@Serialize:

; 228  :         return nullptr;
; 229  :     }
; 230  : 
; 231  : #if _HAS_CXX20 // TRANSITION, GH-1532
; 232  :     if (_STD is_constant_evaluated()) {
; 233  :         return _Traits::_Allocate(_Bytes);
; 234  :     }
; 235  : #endif // _HAS_CXX20
; 236  : 
; 237  : #ifdef __cpp_aligned_new
; 238  :     if constexpr (_Align > __STDCPP_DEFAULT_NEW_ALIGNMENT__) {
; 239  :         size_t _Passed_align = _Align;
; 240  : #if defined(_M_IX86) || defined(_M_X64)
; 241  :         if (_Bytes >= _Big_allocation_threshold) {
; 242  :             // boost the alignment of big allocations to help autovectorization
; 243  :             _Passed_align = (_STD max)(_Align, _Big_allocation_alignment);
; 244  :         }
; 245  : #endif // defined(_M_IX86) || defined(_M_X64)
; 246  :         return _Traits::_Allocate_aligned(_Bytes, _Passed_align);
; 247  :     } else
; 248  : #endif // defined(__cpp_aligned_new)
; 249  :     {
; 250  : #if defined(_M_IX86) || defined(_M_X64)
; 251  :         if (_Bytes >= _Big_allocation_threshold) {

  00269	3d 00 10 00 00	 cmp	 eax, 4096		; 00001000H
  0026e	72 08		 jb	 SHORT $LN96@Serialize

; 253  :             return _Allocate_manually_vector_aligned<_Traits>(_Bytes);

  00270	50		 push	 eax
  00271	e8 00 00 00 00	 call	 ??$_Allocate_manually_vector_aligned@U_Default_allocate_traits@std@@@std@@YAPAXI@Z ; std::_Allocate_manually_vector_aligned<std::_Default_allocate_traits>
  00276	eb 06		 jmp	 SHORT $LN196@Serialize
$LN96@Serialize:

; 136  :         return ::operator new(_Bytes);

  00278	50		 push	 eax
  00279	e8 00 00 00 00	 call	 ??2@YAPAXI@Z		; operator new
$LN196@Serialize:
; File C:\Program Files\Microsoft Visual Studio\2022\Professional\VC\Tools\MSVC\14.44.35207\include\xstring

; 913  :         _Construct_in_place(_My_data._Bx._Ptr, _New_ptr);

  0027e	83 c4 04	 add	 esp, 4
$LN195@Serialize:
; File C:\Program Files\Microsoft Visual Studio\2022\Professional\VC\Tools\MSVC\14.44.35207\include\__msvc_string_view.hpp

; 121  :         _CSTD memcpy(_First1, _First2, _Count * sizeof(_Elem));

  00281	56		 push	 esi
  00282	8d 8d f0 fe ff
	ff		 lea	 ecx, DWORD PTR _szTemp$6[ebp]
; File C:\Program Files\Microsoft Visual Studio\2022\Professional\VC\Tools\MSVC\14.44.35207\include\xstring

; 913  :         _Construct_in_place(_My_data._Bx._Ptr, _New_ptr);

  00288	89 85 d4 fe ff
	ff		 mov	 DWORD PTR $T4[ebp], eax
; File C:\Program Files\Microsoft Visual Studio\2022\Professional\VC\Tools\MSVC\14.44.35207\include\__msvc_string_view.hpp

; 121  :         _CSTD memcpy(_First1, _First2, _Count * sizeof(_Elem));

  0028e	51		 push	 ecx
  0028f	50		 push	 eax
; File C:\Program Files\Microsoft Visual Studio\2022\Professional\VC\Tools\MSVC\14.44.35207\include\xstring

; 913  :         _Construct_in_place(_My_data._Bx._Ptr, _New_ptr);

  00290	89 85 d8 fe ff
	ff		 mov	 DWORD PTR $T5[ebp], eax

; 914  : 
; 915  :         _My_data._Mysize = _Count;

  00296	89 b5 e8 fe ff
	ff		 mov	 DWORD PTR $T5[ebp+16], esi

; 916  :         _My_data._Myres  = _New_capacity;

  0029c	89 bd ec fe ff
	ff		 mov	 DWORD PTR $T5[ebp+20], edi
; File C:\Program Files\Microsoft Visual Studio\2022\Professional\VC\Tools\MSVC\14.44.35207\include\__msvc_string_view.hpp

; 121  :         _CSTD memcpy(_First1, _First2, _Count * sizeof(_Elem));

  002a2	e8 00 00 00 00	 call	 _memcpy
; File C:\Program Files\Microsoft Visual Studio\2022\Professional\VC\Tools\MSVC\14.44.35207\include\xstring

; 922  :             _Traits::assign(_Unfancy(_New_ptr)[_Count], _Elem());

  002a7	8b 85 d4 fe ff
	ff		 mov	 eax, DWORD PTR $T4[ebp]
  002ad	8b bd c4 fe ff
	ff		 mov	 edi, DWORD PTR _this$1$[ebp]
  002b3	c6 04 30 00	 mov	 BYTE PTR [eax+esi], 0
$LN194@Serialize:
; File C:\IAGOS\server\v18\Source\Source\_Common\minigamebase.h

; 46   : 				vecszData.push_back( szTemp );

  002b7	83 c4 0c	 add	 esp, 12			; 0000000cH
; File C:\Program Files\Microsoft Visual Studio\2022\Professional\VC\Tools\MSVC\14.44.35207\include\vector

; 844  :         if (_Mylast != _My_data._Myend) {

  002ba	8b 47 04	 mov	 eax, DWORD PTR [edi+4]
; File C:\IAGOS\server\v18\Source\Source\_Common\minigamebase.h

; 46   : 				vecszData.push_back( szTemp );

  002bd	c7 45 fc 00 00
	00 00		 mov	 DWORD PTR __$EHRec$[ebp+8], 0
; File C:\Program Files\Microsoft Visual Studio\2022\Professional\VC\Tools\MSVC\14.44.35207\include\vector

; 844  :         if (_Mylast != _My_data._Myend) {

  002c4	3b 47 08	 cmp	 eax, DWORD PTR [edi+8]
  002c7	74 29		 je	 SHORT $LN108@Serialize
; File C:\Program Files\Microsoft Visual Studio\2022\Professional\VC\Tools\MSVC\14.44.35207\include\xstring

; 1286 :                 _CSTD memcpy(_My_data_mem, _Right_data_mem, _Memcpy_val_size);

  002c9	0f 10 85 d8 fe
	ff ff		 movups	 xmm0, XMMWORD PTR $T5[ebp]

; 1287 : 
; 1288 :                 _Right_data._Mysize = 0;
; 1289 :                 _Right_data._Myres  = _Small_string_capacity;

  002d0	b9 0f 00 00 00	 mov	 ecx, 15			; 0000000fH

; 1290 :                 _Right_data._Activate_SSO_buffer();
; 1291 :                 _Traits::assign(_Right_data._Bx._Buf[0], _Elem());

  002d5	c6 85 d8 fe ff
	ff 00		 mov	 BYTE PTR $T5[ebp], 0
  002dc	0f 11 00	 movups	 XMMWORD PTR [eax], xmm0
  002df	f3 0f 7e 85 e8
	fe ff ff	 movq	 xmm0, QWORD PTR $T5[ebp+16]
  002e7	66 0f d6 40 10	 movq	 QWORD PTR [eax+16], xmm0
; File C:\Program Files\Microsoft Visual Studio\2022\Professional\VC\Tools\MSVC\14.44.35207\include\vector

; 869  :         ++_Mylast;

  002ec	83 47 04 18	 add	 DWORD PTR [edi+4], 24	; 00000018H

; 845  :             return _Emplace_back_with_unused_capacity(_STD forward<_Valty>(_Val)...);

  002f0	eb 15		 jmp	 SHORT $LN107@Serialize
$LN108@Serialize:

; 846  :         }
; 847  : 
; 848  :         return *_Emplace_reallocate(_Mylast, _STD forward<_Valty>(_Val)...);

  002f2	8d 8d d8 fe ff
	ff		 lea	 ecx, DWORD PTR $T5[ebp]
  002f8	51		 push	 ecx
  002f9	50		 push	 eax
  002fa	8b cf		 mov	 ecx, edi
  002fc	e8 00 00 00 00	 call	 ??$_Emplace_reallocate@V?$basic_string@DU?$char_traits@D@std@@V?$allocator@D@2@@std@@@?$vector@V?$basic_string@DU?$char_traits@D@std@@V?$allocator@D@2@@std@@V?$allocator@V?$basic_string@DU?$char_traits@D@std@@V?$allocator@D@2@@std@@@2@@std@@AAEPAV?$basic_string@DU?$char_traits@D@std@@V?$allocator@D@2@@1@QAV21@$$QAV21@@Z ; std::vector<std::basic_string<char,std::char_traits<char>,std::allocator<char> >,std::allocator<std::basic_string<char,std::char_traits<char>,std::allocator<char> > > >::_Emplace_reallocate<std::basic_string<char,std::char_traits<char>,std::allocator<char> > >
  00301	8b 8d ec fe ff
	ff		 mov	 ecx, DWORD PTR $T5[ebp+20]
$LN107@Serialize:
; File C:\IAGOS\server\v18\Source\Source\_Common\minigamebase.h

; 46   : 				vecszData.push_back( szTemp );

  00307	c7 45 fc ff ff
	ff ff		 mov	 DWORD PTR __$EHRec$[ebp+8], -1
; File C:\Program Files\Microsoft Visual Studio\2022\Professional\VC\Tools\MSVC\14.44.35207\include\xstring

; 453  :         return _Myres > _Small_string_capacity;

  0030e	83 f9 0f	 cmp	 ecx, 15			; 0000000fH

; 3083 :         if (_My_data._Large_mode_engaged()) {

  00311	76 2b		 jbe	 SHORT $LN164@Serialize
; File C:\Program Files\Microsoft Visual Studio\2022\Professional\VC\Tools\MSVC\14.44.35207\include\xmemory

; 985  :         _STD _Deallocate<_New_alignof<_Ty>>(_Ptr, sizeof(_Ty) * _Count);

  00313	8b 95 d8 fe ff
	ff		 mov	 edx, DWORD PTR $T5[ebp]
; File C:\Program Files\Microsoft Visual Studio\2022\Professional\VC\Tools\MSVC\14.44.35207\include\xstring

; 852  :         _Al.deallocate(_Old_ptr, _Capacity + 1); // +1 for null terminator

  00319	41		 inc	 ecx
; File C:\Program Files\Microsoft Visual Studio\2022\Professional\VC\Tools\MSVC\14.44.35207\include\xmemory

; 985  :         _STD _Deallocate<_New_alignof<_Ty>>(_Ptr, sizeof(_Ty) * _Count);

  0031a	8b c2		 mov	 eax, edx

; 284  :         if (_Bytes >= _Big_allocation_threshold) {

  0031c	81 f9 00 10 00
	00		 cmp	 ecx, 4096		; 00001000H
  00322	72 10		 jb	 SHORT $LN169@Serialize

; 205  :     const uintptr_t _Ptr_container   = _Ptr_user[-1];

  00324	8b 50 fc	 mov	 edx, DWORD PTR [eax-4]
  00327	83 c1 23	 add	 ecx, 35			; 00000023H
  0032a	2b c2		 sub	 eax, edx

; 219  :     _STL_VERIFY(_Back_shift >= _Min_back_shift && _Back_shift <= _Non_user_size, "invalid argument");

  0032c	83 c0 fc	 add	 eax, -4			; fffffffcH
  0032f	83 f8 1f	 cmp	 eax, 31			; 0000001fH
  00332	77 33		 ja	 SHORT $LN179@Serialize
$LN169@Serialize:

; 289  :         ::operator delete(_Ptr, _Bytes);

  00334	51		 push	 ecx
  00335	52		 push	 edx
  00336	e8 00 00 00 00	 call	 ??3@YAXPAXI@Z		; operator delete
  0033b	83 c4 08	 add	 esp, 8
$LN164@Serialize:
; File C:\IAGOS\server\v18\Source\Source\_Common\minigamebase.h

; 42   : 			for( int i=0; i<nSize; i++ )

  0033e	8b 85 d0 fe ff
	ff		 mov	 eax, DWORD PTR _i$1$[ebp]
  00344	40		 inc	 eax
  00345	89 85 d0 fe ff
	ff		 mov	 DWORD PTR _i$1$[ebp], eax
  0034b	3b 85 cc fe ff
	ff		 cmp	 eax, DWORD PTR _nSize$2[ebp]
  00351	0f 8d cb fd ff
	ff		 jge	 $LN6@Serialize
  00357	8b b5 c8 fe ff
	ff		 mov	 esi, DWORD PTR _ar$GSCopy$1$[ebp]
  0035d	e9 3e fe ff ff	 jmp	 $LL7@Serialize
$LN178@Serialize:
; File C:\Program Files\Microsoft Visual Studio\2022\Professional\VC\Tools\MSVC\14.44.35207\include\xstring

; 882  :             _Xlen_string(); // result too long

  00362	e8 00 00 00 00	 call	 ?_Xlen_string@std@@YAXXZ ; std::_Xlen_string
$LN179@Serialize:
; File C:\Program Files\Microsoft Visual Studio\2022\Professional\VC\Tools\MSVC\14.44.35207\include\xmemory

; 219  :     _STL_VERIFY(_Back_shift >= _Min_back_shift && _Back_shift <= _Non_user_size, "invalid argument");

  00367	6a 00		 push	 0
  00369	6a 00		 push	 0
  0036b	6a 00		 push	 0
  0036d	6a 00		 push	 0
  0036f	6a 00		 push	 0
  00371	e8 00 00 00 00	 call	 __invoke_watson
$LN193@Serialize:
  00376	cc		 int	 3
_TEXT	ENDS
;	COMDAT text$x
text$x	SEGMENT
__unwindfunclet$?Serialize@__MINIGAME_EXT_PACKET@@UAEXAAVCAr@@@Z$0:
  00000	8d 8d d8 fe ff
	ff		 lea	 ecx, DWORD PTR $T5[ebp]
  00006	e9 00 00 00 00	 jmp	 ??1?$basic_string@DU?$char_traits@D@std@@V?$allocator@D@2@@std@@QAE@XZ ; std::basic_string<char,std::char_traits<char>,std::allocator<char> >::~basic_string<char,std::char_traits<char>,std::allocator<char> >
  0000b	cc		 int	 3
  0000c	cc		 int	 3
  0000d	cc		 int	 3
  0000e	cc		 int	 3
  0000f	cc		 int	 3
__ehhandler$?Serialize@__MINIGAME_EXT_PACKET@@UAEXAAVCAr@@@Z:
  00010	90		 npad	 1
  00011	90		 npad	 1
  00012	8b 54 24 08	 mov	 edx, DWORD PTR [esp+8]
  00016	8d 42 0c	 lea	 eax, DWORD PTR [edx+12]
  00019	8b 8a c4 fe ff
	ff		 mov	 ecx, DWORD PTR [edx-316]
  0001f	33 c8		 xor	 ecx, eax
  00021	e8 00 00 00 00	 call	 @__security_check_cookie@4
  00026	8b 4a fc	 mov	 ecx, DWORD PTR [edx-4]
  00029	33 c8		 xor	 ecx, eax
  0002b	e8 00 00 00 00	 call	 @__security_check_cookie@4
  00030	b8 00 00 00 00	 mov	 eax, OFFSET __ehfuncinfo$?Serialize@__MINIGAME_EXT_PACKET@@UAEXAAVCAr@@@Z
  00035	e9 00 00 00 00	 jmp	 ___CxxFrameHandler3
text$x	ENDS
?Serialize@__MINIGAME_EXT_PACKET@@UAEXAAVCAr@@@Z ENDP	; __MINIGAME_EXT_PACKET::Serialize
; Function compile flags: /Ogtp
; File C:\Program Files\Microsoft Visual Studio\2022\Professional\VC\Tools\MSVC\14.44.35207\include\vector
;	COMDAT ?_Xlength@?$vector@V?$basic_string@DU?$char_traits@D@std@@V?$allocator@D@2@@std@@V?$allocator@V?$basic_string@DU?$char_traits@D@std@@V?$allocator@D@2@@std@@@2@@std@@CAXXZ
_TEXT	SEGMENT
?_Xlength@?$vector@V?$basic_string@DU?$char_traits@D@std@@V?$allocator@D@2@@std@@V?$allocator@V?$basic_string@DU?$char_traits@D@std@@V?$allocator@D@2@@std@@@2@@std@@CAXXZ PROC ; std::vector<std::basic_string<char,std::char_traits<char>,std::allocator<char> >,std::allocator<std::basic_string<char,std::char_traits<char>,std::allocator<char> > > >::_Xlength, COMDAT

; 2184 :         _Xlength_error("vector too long");

  00000	68 00 00 00 00	 push	 OFFSET ??_C@_0BA@FOIKENOD@vector?5too?5long@
  00005	e8 00 00 00 00	 call	 ?_Xlength_error@std@@YAXPBD@Z ; std::_Xlength_error
$LN3@Xlength:
  0000a	cc		 int	 3
?_Xlength@?$vector@V?$basic_string@DU?$char_traits@D@std@@V?$allocator@D@2@@std@@V?$allocator@V?$basic_string@DU?$char_traits@D@std@@V?$allocator@D@2@@std@@@2@@std@@CAXXZ ENDP ; std::vector<std::basic_string<char,std::char_traits<char>,std::allocator<char> >,std::allocator<std::basic_string<char,std::char_traits<char>,std::allocator<char> > > >::_Xlength
_TEXT	ENDS
; Function compile flags: /Ogtp
; File C:\Program Files\Microsoft Visual Studio\2022\Professional\VC\Tools\MSVC\14.44.35207\include\vector
; File C:\Program Files\Microsoft Visual Studio\2022\Professional\VC\Tools\MSVC\14.44.35207\include\xmemory
; File C:\Program Files\Microsoft Visual Studio\2022\Professional\VC\Tools\MSVC\14.44.35207\include\vector
; File C:\Program Files\Microsoft Visual Studio\2022\Professional\VC\Tools\MSVC\14.44.35207\include\xmemory
; File C:\Program Files\Microsoft Visual Studio\2022\Professional\VC\Tools\MSVC\14.44.35207\include\vector
; File C:\Program Files\Microsoft Visual Studio\2022\Professional\VC\Tools\MSVC\14.44.35207\include\xmemory
; File C:\Program Files\Microsoft Visual Studio\2022\Professional\VC\Tools\MSVC\14.44.35207\include\vector
; File C:\Program Files\Microsoft Visual Studio\2022\Professional\VC\Tools\MSVC\14.44.35207\include\xmemory
; File C:\Program Files\Microsoft Visual Studio\2022\Professional\VC\Tools\MSVC\14.44.35207\include\vector
; File C:\Program Files\Microsoft Visual Studio\2022\Professional\VC\Tools\MSVC\14.44.35207\include\xmemory
; File C:\Program Files\Microsoft Visual Studio\2022\Professional\VC\Tools\MSVC\14.44.35207\include\vector
;	COMDAT ?_Tidy@?$vector@V?$basic_string@DU?$char_traits@D@std@@V?$allocator@D@2@@std@@V?$allocator@V?$basic_string@DU?$char_traits@D@std@@V?$allocator@D@2@@std@@@2@@std@@AAEXXZ
_TEXT	SEGMENT
?_Tidy@?$vector@V?$basic_string@DU?$char_traits@D@std@@V?$allocator@D@2@@std@@V?$allocator@V?$basic_string@DU?$char_traits@D@std@@V?$allocator@D@2@@std@@@2@@std@@AAEXXZ PROC ; std::vector<std::basic_string<char,std::char_traits<char>,std::allocator<char> >,std::allocator<std::basic_string<char,std::char_traits<char>,std::allocator<char> > > >::_Tidy, COMDAT
; _this$ = ecx

; 2081 :     _CONSTEXPR20 void _Tidy() noexcept { // free all storage

  00000	56		 push	 esi
  00001	57		 push	 edi
  00002	8b f9		 mov	 edi, ecx

; 2082 :         auto& _Al         = _Getal();
; 2083 :         auto& _My_data    = _Mypair._Myval2;
; 2084 :         pointer& _Myfirst = _My_data._Myfirst;
; 2085 :         pointer& _Mylast  = _My_data._Mylast;
; 2086 :         pointer& _Myend   = _My_data._Myend;
; 2087 : 
; 2088 :         _My_data._Orphan_all();
; 2089 : 
; 2090 :         if (_Myfirst) { // destroy and deallocate old array

  00004	8b 37		 mov	 esi, DWORD PTR [edi]
  00006	85 f6		 test	 esi, esi
  00008	74 6d		 je	 SHORT $LN2@Tidy

; 2091 :             _STD _Destroy_range(_Myfirst, _Mylast, _Al);

  0000a	53		 push	 ebx
  0000b	8b 5f 04	 mov	 ebx, DWORD PTR [edi+4]
; File C:\Program Files\Microsoft Visual Studio\2022\Professional\VC\Tools\MSVC\14.44.35207\include\xmemory

; 1102 :         for (; _First != _Last; ++_First) {

  0000e	3b f3		 cmp	 esi, ebx
  00010	74 0e		 je	 SHORT $LN7@Tidy
$LL8@Tidy:
  00012	8b ce		 mov	 ecx, esi
  00014	e8 00 00 00 00	 call	 ??1?$basic_string@DU?$char_traits@D@std@@V?$allocator@D@2@@std@@QAE@XZ ; std::basic_string<char,std::char_traits<char>,std::allocator<char> >::~basic_string<char,std::char_traits<char>,std::allocator<char> >
  00019	83 c6 18	 add	 esi, 24			; 00000018H
  0001c	3b f3		 cmp	 esi, ebx
  0001e	75 f2		 jne	 SHORT $LL8@Tidy
$LN7@Tidy:
; File C:\Program Files\Microsoft Visual Studio\2022\Professional\VC\Tools\MSVC\14.44.35207\include\vector

; 2093 :             _Al.deallocate(_Myfirst, static_cast<size_type>(_Myend - _Myfirst));

  00020	8b 4f 08	 mov	 ecx, DWORD PTR [edi+8]
  00023	b8 ab aa aa 2a	 mov	 eax, 715827883		; 2aaaaaabH
  00028	8b 37		 mov	 esi, DWORD PTR [edi]
  0002a	2b ce		 sub	 ecx, esi
  0002c	f7 e9		 imul	 ecx
; File C:\Program Files\Microsoft Visual Studio\2022\Professional\VC\Tools\MSVC\14.44.35207\include\xmemory

; 985  :         _STD _Deallocate<_New_alignof<_Ty>>(_Ptr, sizeof(_Ty) * _Count);

  0002e	5b		 pop	 ebx
; File C:\Program Files\Microsoft Visual Studio\2022\Professional\VC\Tools\MSVC\14.44.35207\include\vector

; 2093 :             _Al.deallocate(_Myfirst, static_cast<size_type>(_Myend - _Myfirst));

  0002f	c1 fa 02	 sar	 edx, 2
  00032	8b c2		 mov	 eax, edx
  00034	c1 e8 1f	 shr	 eax, 31			; 0000001fH
  00037	03 c2		 add	 eax, edx
; File C:\Program Files\Microsoft Visual Studio\2022\Professional\VC\Tools\MSVC\14.44.35207\include\xmemory

; 985  :         _STD _Deallocate<_New_alignof<_Ty>>(_Ptr, sizeof(_Ty) * _Count);

  00039	8d 0c 40	 lea	 ecx, DWORD PTR [eax+eax*2]
  0003c	c1 e1 03	 shl	 ecx, 3

; 284  :         if (_Bytes >= _Big_allocation_threshold) {

  0003f	81 f9 00 10 00
	00		 cmp	 ecx, 4096		; 00001000H
  00045	72 12		 jb	 SHORT $LN27@Tidy

; 205  :     const uintptr_t _Ptr_container   = _Ptr_user[-1];

  00047	8b 56 fc	 mov	 edx, DWORD PTR [esi-4]
  0004a	83 c1 23	 add	 ecx, 35			; 00000023H

; 206  : 
; 207  :     // If the following asserts, it likely means that we are performing
; 208  :     // an aligned delete on memory coming from an unaligned allocation.
; 209  :     _STL_ASSERT(_Ptr_user[-2] == _Big_allocation_sentinel, "invalid argument");
; 210  : 
; 211  :     // Extra paranoia on aligned allocation/deallocation; ensure _Ptr_container is
; 212  :     // in range [_Min_back_shift, _Non_user_size]
; 213  : #ifdef _DEBUG
; 214  :     constexpr uintptr_t _Min_back_shift = 2 * sizeof(void*);
; 215  : #else // ^^^ defined(_DEBUG) / !defined(_DEBUG) vvv
; 216  :     constexpr uintptr_t _Min_back_shift = sizeof(void*);
; 217  : #endif // ^^^ !defined(_DEBUG) ^^^
; 218  :     const uintptr_t _Back_shift = reinterpret_cast<uintptr_t>(_Ptr) - _Ptr_container;

  0004d	2b f2		 sub	 esi, edx

; 219  :     _STL_VERIFY(_Back_shift >= _Min_back_shift && _Back_shift <= _Non_user_size, "invalid argument");

  0004f	8d 46 fc	 lea	 eax, DWORD PTR [esi-4]
  00052	83 f8 1f	 cmp	 eax, 31			; 0000001fH
  00055	77 23		 ja	 SHORT $LN26@Tidy

; 220  :     _Ptr = reinterpret_cast<void*>(_Ptr_container);

  00057	8b f2		 mov	 esi, edx
$LN27@Tidy:

; 289  :         ::operator delete(_Ptr, _Bytes);

  00059	51		 push	 ecx
  0005a	56		 push	 esi
  0005b	e8 00 00 00 00	 call	 ??3@YAXPAXI@Z		; operator delete
; File C:\Program Files\Microsoft Visual Studio\2022\Professional\VC\Tools\MSVC\14.44.35207\include\vector

; 2095 :             _Myfirst = nullptr;

  00060	c7 07 00 00 00
	00		 mov	 DWORD PTR [edi], 0
; File C:\Program Files\Microsoft Visual Studio\2022\Professional\VC\Tools\MSVC\14.44.35207\include\xmemory

; 289  :         ::operator delete(_Ptr, _Bytes);

  00066	83 c4 08	 add	 esp, 8
; File C:\Program Files\Microsoft Visual Studio\2022\Professional\VC\Tools\MSVC\14.44.35207\include\vector

; 2096 :             _Mylast  = nullptr;

  00069	c7 47 04 00 00
	00 00		 mov	 DWORD PTR [edi+4], 0

; 2097 :             _Myend   = nullptr;

  00070	c7 47 08 00 00
	00 00		 mov	 DWORD PTR [edi+8], 0
$LN2@Tidy:

; 2099 :     }

  00077	5f		 pop	 edi
  00078	5e		 pop	 esi
  00079	c3		 ret	 0
$LN26@Tidy:
; File C:\Program Files\Microsoft Visual Studio\2022\Professional\VC\Tools\MSVC\14.44.35207\include\xmemory

; 219  :     _STL_VERIFY(_Back_shift >= _Min_back_shift && _Back_shift <= _Non_user_size, "invalid argument");

  0007a	6a 00		 push	 0
  0007c	6a 00		 push	 0
  0007e	6a 00		 push	 0
  00080	6a 00		 push	 0
  00082	6a 00		 push	 0
  00084	e8 00 00 00 00	 call	 __invoke_watson
$LN39@Tidy:
  00089	cc		 int	 3
?_Tidy@?$vector@V?$basic_string@DU?$char_traits@D@std@@V?$allocator@D@2@@std@@V?$allocator@V?$basic_string@DU?$char_traits@D@std@@V?$allocator@D@2@@std@@@2@@std@@AAEXXZ ENDP ; std::vector<std::basic_string<char,std::char_traits<char>,std::allocator<char> >,std::allocator<std::basic_string<char,std::char_traits<char>,std::allocator<char> > > >::_Tidy
_TEXT	ENDS
; Function compile flags: /Ogtp
; File C:\IAGOS\server\v18\Source\Source\_Network\Misc\Include\ar.h
;	COMDAT ??$?5H@CAr@@QAEAAV0@AAH@Z
_TEXT	SEGMENT
_t$ = 8							; size = 4
??$?5H@CAr@@QAEAAV0@AAH@Z PROC				; CAr::operator>><int>, COMDAT
; _this$ = ecx

; 302  : {

  00000	55		 push	 ebp
  00001	8b ec		 mov	 ebp, esp
  00003	8b d1		 mov	 edx, ecx

; 303  : 	if (m_lpBufCur + sizeof(T) <= m_lpBufMax)

  00005	8b 4a 08	 mov	 ecx, DWORD PTR [edx+8]
  00008	8d 41 04	 lea	 eax, DWORD PTR [ecx+4]
  0000b	3b 42 0c	 cmp	 eax, DWORD PTR [edx+12]
  0000e	8b 45 08	 mov	 eax, DWORD PTR _t$[ebp]
  00011	77 0e		 ja	 SHORT $LN2@operator

; 304  : 	{
; 305  : 		t = *(UNALIGNED T*)m_lpBufCur;

  00013	8b 09		 mov	 ecx, DWORD PTR [ecx]
  00015	89 08		 mov	 DWORD PTR [eax], ecx

; 312  : 	}
; 313  : 	return *this;
; 314  : }

  00017	8b c2		 mov	 eax, edx
  00019	83 42 08 04	 add	 DWORD PTR [edx+8], 4
  0001d	5d		 pop	 ebp
  0001e	c2 04 00	 ret	 4
$LN2@operator:

; 306  : 		m_lpBufCur += sizeof(T);
; 307  : 	}
; 308  : 	else
; 309  : 	{
; 310  : 		t = T();

  00021	c7 00 00 00 00
	00		 mov	 DWORD PTR [eax], 0

; 311  : 		m_lpBufCur = m_lpBufMax;

  00027	8b 42 0c	 mov	 eax, DWORD PTR [edx+12]
  0002a	89 42 08	 mov	 DWORD PTR [edx+8], eax

; 312  : 	}
; 313  : 	return *this;
; 314  : }

  0002d	8b c2		 mov	 eax, edx
  0002f	5d		 pop	 ebp
  00030	c2 04 00	 ret	 4
??$?5H@CAr@@QAEAAV0@AAH@Z ENDP				; CAr::operator>><int>
_TEXT	ENDS
; Function compile flags: /Ogtp
; File C:\IAGOS\server\v18\Source\Source\_Network\Misc\Include\ar.h
;	COMDAT ??$?5G@CAr@@QAEAAV0@AAG@Z
_TEXT	SEGMENT
_t$ = 8							; size = 4
??$?5G@CAr@@QAEAAV0@AAG@Z PROC				; CAr::operator>><unsigned short>, COMDAT
; _this$ = ecx

; 302  : {

  00000	55		 push	 ebp
  00001	8b ec		 mov	 ebp, esp
  00003	8b d1		 mov	 edx, ecx

; 303  : 	if (m_lpBufCur + sizeof(T) <= m_lpBufMax)

  00005	8b 4a 08	 mov	 ecx, DWORD PTR [edx+8]
  00008	8d 41 02	 lea	 eax, DWORD PTR [ecx+2]
  0000b	3b 42 0c	 cmp	 eax, DWORD PTR [edx+12]
  0000e	8b 45 08	 mov	 eax, DWORD PTR _t$[ebp]
  00011	77 10		 ja	 SHORT $LN2@operator

; 304  : 	{
; 305  : 		t = *(UNALIGNED T*)m_lpBufCur;

  00013	66 8b 09	 mov	 cx, WORD PTR [ecx]
  00016	66 89 08	 mov	 WORD PTR [eax], cx

; 312  : 	}
; 313  : 	return *this;
; 314  : }

  00019	8b c2		 mov	 eax, edx
  0001b	83 42 08 02	 add	 DWORD PTR [edx+8], 2
  0001f	5d		 pop	 ebp
  00020	c2 04 00	 ret	 4
$LN2@operator:

; 306  : 		m_lpBufCur += sizeof(T);
; 307  : 	}
; 308  : 	else
; 309  : 	{
; 310  : 		t = T();

  00023	33 c9		 xor	 ecx, ecx
  00025	66 89 08	 mov	 WORD PTR [eax], cx

; 311  : 		m_lpBufCur = m_lpBufMax;

  00028	8b 42 0c	 mov	 eax, DWORD PTR [edx+12]
  0002b	89 42 08	 mov	 DWORD PTR [edx+8], eax

; 312  : 	}
; 313  : 	return *this;
; 314  : }

  0002e	8b c2		 mov	 eax, edx
  00030	5d		 pop	 ebp
  00031	c2 04 00	 ret	 4
??$?5G@CAr@@QAEAAV0@AAG@Z ENDP				; CAr::operator>><unsigned short>
_TEXT	ENDS
; Function compile flags: /Ogtp
; File C:\IAGOS\server\v18\Source\Source\_Network\Misc\Include\ar.h
;	COMDAT ??$?6H@CAr@@QAEAAV0@ABH@Z
_TEXT	SEGMENT
_t$ = 8							; size = 4
??$?6H@CAr@@QAEAAV0@ABH@Z PROC				; CAr::operator<<<int>, COMDAT
; _this$ = ecx

; 255  : {

  00000	55		 push	 ebp
  00001	8b ec		 mov	 ebp, esp
  00003	56		 push	 esi

; 256  : 	CheckBuf(sizeof(T));

  00004	6a 04		 push	 4
  00006	8b f1		 mov	 esi, ecx
  00008	e8 00 00 00 00	 call	 ?CheckBuf@CAr@@QAEXI@Z	; CAr::CheckBuf

; 257  : 	*(UNALIGNED T*)m_lpBufCur = t;

  0000d	8b 56 08	 mov	 edx, DWORD PTR [esi+8]
  00010	8b 45 08	 mov	 eax, DWORD PTR _t$[ebp]
  00013	8b 00		 mov	 eax, DWORD PTR [eax]
  00015	89 02		 mov	 DWORD PTR [edx], eax

; 258  : 	m_lpBufCur += sizeof(T);
; 259  : 	return *this;

  00017	8b c6		 mov	 eax, esi
  00019	83 46 08 04	 add	 DWORD PTR [esi+8], 4
  0001d	5e		 pop	 esi

; 260  : }

  0001e	5d		 pop	 ebp
  0001f	c2 04 00	 ret	 4
??$?6H@CAr@@QAEAAV0@ABH@Z ENDP				; CAr::operator<<<int>
_TEXT	ENDS
; Function compile flags: /Ogtp
; File C:\IAGOS\server\v18\Source\Source\_Network\Misc\Include\ar.h
;	COMDAT ??$?6G@CAr@@QAEAAV0@ABG@Z
_TEXT	SEGMENT
_t$ = 8							; size = 4
??$?6G@CAr@@QAEAAV0@ABG@Z PROC				; CAr::operator<<<unsigned short>, COMDAT
; _this$ = ecx

; 255  : {

  00000	55		 push	 ebp
  00001	8b ec		 mov	 ebp, esp
  00003	56		 push	 esi

; 256  : 	CheckBuf(sizeof(T));

  00004	6a 02		 push	 2
  00006	8b f1		 mov	 esi, ecx
  00008	e8 00 00 00 00	 call	 ?CheckBuf@CAr@@QAEXI@Z	; CAr::CheckBuf

; 257  : 	*(UNALIGNED T*)m_lpBufCur = t;

  0000d	8b 45 08	 mov	 eax, DWORD PTR _t$[ebp]
  00010	8b 56 08	 mov	 edx, DWORD PTR [esi+8]
  00013	66 8b 00	 mov	 ax, WORD PTR [eax]
  00016	66 89 02	 mov	 WORD PTR [edx], ax

; 258  : 	m_lpBufCur += sizeof(T);
; 259  : 	return *this;

  00019	8b c6		 mov	 eax, esi
  0001b	83 46 08 02	 add	 DWORD PTR [esi+8], 2
  0001f	5e		 pop	 esi

; 260  : }

  00020	5d		 pop	 ebp
  00021	c2 04 00	 ret	 4
??$?6G@CAr@@QAEAAV0@ABG@Z ENDP				; CAr::operator<<<unsigned short>
_TEXT	ENDS
; Function compile flags: /Ogtp
; File C:\IAGOS\server\v18\Source\Source\_Common\minigamebase.h
; File C:\IAGOS\server\v18\Source\Source\_Network\Misc\Include\ar.h
; File C:\IAGOS\server\v18\Source\Source\_Common\minigamebase.h
; File C:\IAGOS\server\v18\Source\Source\_Network\Misc\Include\ar.h
; File C:\IAGOS\server\v18\Source\Source\_Common\minigamebase.h
;	COMDAT ?Serialize@__MINIGAME_PACKET@@UAEXAAVCAr@@@Z
_TEXT	SEGMENT
_ar$ = 8						; size = 4
?Serialize@__MINIGAME_PACKET@@UAEXAAVCAr@@@Z PROC	; __MINIGAME_PACKET::Serialize, COMDAT
; _this$ = ecx

; 16   : 	{

  00000	55		 push	 ebp
  00001	8b ec		 mov	 ebp, esp
  00003	56		 push	 esi
  00004	57		 push	 edi
; File C:\IAGOS\server\v18\Source\Source\_Network\Misc\Include\ar.h

; 146  : 	return (m_nMode & CAr::load) == 0;

  00005	8d 41 10	 lea	 eax, DWORD PTR [ecx+16]
  00008	8d 51 0c	 lea	 edx, DWORD PTR [ecx+12]
  0000b	8d 71 08	 lea	 esi, DWORD PTR [ecx+8]
  0000e	8d 79 04	 lea	 edi, DWORD PTR [ecx+4]
  00011	8b 4d 08	 mov	 ecx, DWORD PTR _ar$[ebp]
; File C:\IAGOS\server\v18\Source\Source\_Common\minigamebase.h

; 17   : 		if( ar.IsStoring() )

  00014	50		 push	 eax
  00015	52		 push	 edx
  00016	56		 push	 esi
; File C:\IAGOS\server\v18\Source\Source\_Network\Misc\Include\ar.h

; 146  : 	return (m_nMode & CAr::load) == 0;

  00017	f6 01 01	 test	 BYTE PTR [ecx], 1
; File C:\IAGOS\server\v18\Source\Source\_Common\minigamebase.h

; 17   : 		if( ar.IsStoring() )

  0001a	57		 push	 edi
  0001b	75 20		 jne	 SHORT $LN2@Serialize

; 18   : 			ar << wNowGame << nState << nParam1 << nParam2;

  0001d	e8 00 00 00 00	 call	 ??$?6G@CAr@@QAEAAV0@ABG@Z ; CAr::operator<<<unsigned short>
  00022	8b c8		 mov	 ecx, eax
  00024	e8 00 00 00 00	 call	 ??$?6H@CAr@@QAEAAV0@ABH@Z ; CAr::operator<<<int>
  00029	8b c8		 mov	 ecx, eax
  0002b	e8 00 00 00 00	 call	 ??$?6H@CAr@@QAEAAV0@ABH@Z ; CAr::operator<<<int>
  00030	8b c8		 mov	 ecx, eax
  00032	e8 00 00 00 00	 call	 ??$?6H@CAr@@QAEAAV0@ABH@Z ; CAr::operator<<<int>
  00037	5f		 pop	 edi

; 21   : 	}

  00038	5e		 pop	 esi
  00039	5d		 pop	 ebp
  0003a	c2 04 00	 ret	 4
$LN2@Serialize:

; 19   : 		else
; 20   : 			ar >> wNowGame >> nState >> nParam1 >> nParam2;

  0003d	e8 00 00 00 00	 call	 ??$?5G@CAr@@QAEAAV0@AAG@Z ; CAr::operator>><unsigned short>
  00042	8b c8		 mov	 ecx, eax
  00044	e8 00 00 00 00	 call	 ??$?5H@CAr@@QAEAAV0@AAH@Z ; CAr::operator>><int>
  00049	8b c8		 mov	 ecx, eax
  0004b	e8 00 00 00 00	 call	 ??$?5H@CAr@@QAEAAV0@AAH@Z ; CAr::operator>><int>
  00050	8b c8		 mov	 ecx, eax
  00052	e8 00 00 00 00	 call	 ??$?5H@CAr@@QAEAAV0@AAH@Z ; CAr::operator>><int>
  00057	5f		 pop	 edi

; 21   : 	}

  00058	5e		 pop	 esi
  00059	5d		 pop	 ebp
  0005a	c2 04 00	 ret	 4
?Serialize@__MINIGAME_PACKET@@UAEXAAVCAr@@@Z ENDP	; __MINIGAME_PACKET::Serialize
_TEXT	ENDS
; Function compile flags: /Ogtp
; File C:\Program Files\Microsoft Visual Studio\2022\Professional\VC\Tools\MSVC\14.44.35207\include\xmemory
;	COMDAT ??$_Allocate_manually_vector_aligned@U_Default_allocate_traits@std@@@std@@YAPAXI@Z
_TEXT	SEGMENT
__Bytes$ = 8						; size = 4
??$_Allocate_manually_vector_aligned@U_Default_allocate_traits@std@@@std@@YAPAXI@Z PROC ; std::_Allocate_manually_vector_aligned<std::_Default_allocate_traits>, COMDAT

; 182  : __declspec(allocator) void* _Allocate_manually_vector_aligned(const size_t _Bytes) {

  00000	55		 push	 ebp
  00001	8b ec		 mov	 ebp, esp

; 183  :     // allocate _Bytes manually aligned to at least _Big_allocation_alignment
; 184  :     const size_t _Block_size = _Non_user_size + _Bytes;

  00003	8b 45 08	 mov	 eax, DWORD PTR __Bytes$[ebp]
  00006	8d 48 23	 lea	 ecx, DWORD PTR [eax+35]

; 185  :     if (_Block_size <= _Bytes) {

  00009	3b c8		 cmp	 ecx, eax
  0000b	0f 86 00 00 00
	00		 jbe	 ?_Throw_bad_array_new_length@std@@YAXXZ ; std::_Throw_bad_array_new_length

; 136  :         return ::operator new(_Bytes);

  00011	51		 push	 ecx
  00012	e8 00 00 00 00	 call	 ??2@YAPAXI@Z		; operator new

; 186  :         _Throw_bad_array_new_length(); // add overflow
; 187  :     }
; 188  : 
; 189  :     const uintptr_t _Ptr_container = reinterpret_cast<uintptr_t>(_Traits::_Allocate(_Block_size));

  00017	8b c8		 mov	 ecx, eax

; 136  :         return ::operator new(_Bytes);

  00019	83 c4 04	 add	 esp, 4

; 190  :     _STL_VERIFY(_Ptr_container != 0, "invalid argument"); // validate even in release since we're doing p[-1]

  0001c	85 c9		 test	 ecx, ecx
  0001e	74 0b		 je	 SHORT $LN9@Allocate_m

; 191  :     void* const _Ptr = reinterpret_cast<void*>((_Ptr_container + _Non_user_size) & ~(_Big_allocation_alignment - 1));

  00020	8d 41 23	 lea	 eax, DWORD PTR [ecx+35]
  00023	83 e0 e0	 and	 eax, -32		; ffffffe0H

; 192  :     static_cast<uintptr_t*>(_Ptr)[-1] = _Ptr_container;

  00026	89 48 fc	 mov	 DWORD PTR [eax-4], ecx

; 193  : 
; 194  : #ifdef _DEBUG
; 195  :     static_cast<uintptr_t*>(_Ptr)[-2] = _Big_allocation_sentinel;
; 196  : #endif // defined(_DEBUG)
; 197  :     return _Ptr;
; 198  : }

  00029	5d		 pop	 ebp
  0002a	c3		 ret	 0
$LN9@Allocate_m:

; 190  :     _STL_VERIFY(_Ptr_container != 0, "invalid argument"); // validate even in release since we're doing p[-1]

  0002b	6a 00		 push	 0
  0002d	6a 00		 push	 0
  0002f	6a 00		 push	 0
  00031	6a 00		 push	 0
  00033	6a 00		 push	 0
  00035	e8 00 00 00 00	 call	 __invoke_watson
$LN7@Allocate_m:
  0003a	cc		 int	 3
??$_Allocate_manually_vector_aligned@U_Default_allocate_traits@std@@@std@@YAPAXI@Z ENDP ; std::_Allocate_manually_vector_aligned<std::_Default_allocate_traits>
_TEXT	ENDS
; Function compile flags: /Ogtp
; File C:\Program Files\Microsoft Visual Studio\2022\Professional\VC\Tools\MSVC\14.44.35207\include\xstring
; File C:\Program Files\Microsoft Visual Studio\2022\Professional\VC\Tools\MSVC\14.44.35207\include\xmemory
; File C:\Program Files\Microsoft Visual Studio\2022\Professional\VC\Tools\MSVC\14.44.35207\include\xstring
; File C:\Program Files\Microsoft Visual Studio\2022\Professional\VC\Tools\MSVC\14.44.35207\include\xmemory
; File C:\Program Files\Microsoft Visual Studio\2022\Professional\VC\Tools\MSVC\14.44.35207\include\xstring
; File C:\Program Files\Microsoft Visual Studio\2022\Professional\VC\Tools\MSVC\14.44.35207\include\xmemory
; File C:\Program Files\Microsoft Visual Studio\2022\Professional\VC\Tools\MSVC\14.44.35207\include\xstring
;	COMDAT ??1?$basic_string@DU?$char_traits@D@std@@V?$allocator@D@2@@std@@QAE@XZ
_TEXT	SEGMENT
??1?$basic_string@DU?$char_traits@D@std@@V?$allocator@D@2@@std@@QAE@XZ PROC ; std::basic_string<char,std::char_traits<char>,std::allocator<char> >::~basic_string<char,std::char_traits<char>,std::allocator<char> >, COMDAT
; _this$ = ecx

; 1382 :     _CONSTEXPR20 ~basic_string() noexcept {

  00000	56		 push	 esi
  00001	8b f1		 mov	 esi, ecx

; 453  :         return _Myres > _Small_string_capacity;

  00003	8b 4e 14	 mov	 ecx, DWORD PTR [esi+20]
  00006	83 f9 0f	 cmp	 ecx, 15			; 0000000fH

; 3083 :         if (_My_data._Large_mode_engaged()) {

  00009	76 27		 jbe	 SHORT $LN19@basic_stri
; File C:\Program Files\Microsoft Visual Studio\2022\Professional\VC\Tools\MSVC\14.44.35207\include\xmemory

; 985  :         _STD _Deallocate<_New_alignof<_Ty>>(_Ptr, sizeof(_Ty) * _Count);

  0000b	8b 06		 mov	 eax, DWORD PTR [esi]
; File C:\Program Files\Microsoft Visual Studio\2022\Professional\VC\Tools\MSVC\14.44.35207\include\xstring

; 852  :         _Al.deallocate(_Old_ptr, _Capacity + 1); // +1 for null terminator

  0000d	41		 inc	 ecx
; File C:\Program Files\Microsoft Visual Studio\2022\Professional\VC\Tools\MSVC\14.44.35207\include\xmemory

; 284  :         if (_Bytes >= _Big_allocation_threshold) {

  0000e	81 f9 00 10 00
	00		 cmp	 ecx, 4096		; 00001000H
  00014	72 12		 jb	 SHORT $LN24@basic_stri

; 205  :     const uintptr_t _Ptr_container   = _Ptr_user[-1];

  00016	8b 50 fc	 mov	 edx, DWORD PTR [eax-4]
  00019	83 c1 23	 add	 ecx, 35			; 00000023H

; 206  : 
; 207  :     // If the following asserts, it likely means that we are performing
; 208  :     // an aligned delete on memory coming from an unaligned allocation.
; 209  :     _STL_ASSERT(_Ptr_user[-2] == _Big_allocation_sentinel, "invalid argument");
; 210  : 
; 211  :     // Extra paranoia on aligned allocation/deallocation; ensure _Ptr_container is
; 212  :     // in range [_Min_back_shift, _Non_user_size]
; 213  : #ifdef _DEBUG
; 214  :     constexpr uintptr_t _Min_back_shift = 2 * sizeof(void*);
; 215  : #else // ^^^ defined(_DEBUG) / !defined(_DEBUG) vvv
; 216  :     constexpr uintptr_t _Min_back_shift = sizeof(void*);
; 217  : #endif // ^^^ !defined(_DEBUG) ^^^
; 218  :     const uintptr_t _Back_shift = reinterpret_cast<uintptr_t>(_Ptr) - _Ptr_container;

  0001c	2b c2		 sub	 eax, edx

; 219  :     _STL_VERIFY(_Back_shift >= _Min_back_shift && _Back_shift <= _Non_user_size, "invalid argument");

  0001e	83 c0 fc	 add	 eax, -4			; fffffffcH
  00021	83 f8 1f	 cmp	 eax, 31			; 0000001fH
  00024	77 1f		 ja	 SHORT $LN23@basic_stri

; 220  :     _Ptr = reinterpret_cast<void*>(_Ptr_container);

  00026	8b c2		 mov	 eax, edx
$LN24@basic_stri:

; 289  :         ::operator delete(_Ptr, _Bytes);

  00028	51		 push	 ecx
  00029	50		 push	 eax
  0002a	e8 00 00 00 00	 call	 ??3@YAXPAXI@Z		; operator delete
  0002f	83 c4 08	 add	 esp, 8
$LN19@basic_stri:
; File C:\Program Files\Microsoft Visual Studio\2022\Professional\VC\Tools\MSVC\14.44.35207\include\xstring

; 3090 :         _My_data._Mysize = 0;

  00032	c7 46 10 00 00
	00 00		 mov	 DWORD PTR [esi+16], 0

; 3091 :         _My_data._Myres  = _Small_string_capacity;

  00039	c7 46 14 0f 00
	00 00		 mov	 DWORD PTR [esi+20], 15	; 0000000fH

; 3092 :         // the _Traits::assign is last so the codegen doesn't think the char write can alias this
; 3093 :         _Traits::assign(_My_data._Bx._Buf[0], _Elem());

  00040	c6 06 00	 mov	 BYTE PTR [esi], 0
  00043	5e		 pop	 esi

; 1390 :     }

  00044	c3		 ret	 0
$LN23@basic_stri:
; File C:\Program Files\Microsoft Visual Studio\2022\Professional\VC\Tools\MSVC\14.44.35207\include\xmemory

; 219  :     _STL_VERIFY(_Back_shift >= _Min_back_shift && _Back_shift <= _Non_user_size, "invalid argument");

  00045	6a 00		 push	 0
  00047	6a 00		 push	 0
  00049	6a 00		 push	 0
  0004b	6a 00		 push	 0
  0004d	6a 00		 push	 0
  0004f	e8 00 00 00 00	 call	 __invoke_watson
$LN33@basic_stri:
  00054	cc		 int	 3
??1?$basic_string@DU?$char_traits@D@std@@V?$allocator@D@2@@std@@QAE@XZ ENDP ; std::basic_string<char,std::char_traits<char>,std::allocator<char> >::~basic_string<char,std::char_traits<char>,std::allocator<char> >
_TEXT	ENDS
; Function compile flags: /Ogtp
; File C:\Program Files\Microsoft Visual Studio\2022\Professional\VC\Tools\MSVC\14.44.35207\include\xstring
;	COMDAT ?_Xlen_string@std@@YAXXZ
_TEXT	SEGMENT
?_Xlen_string@std@@YAXXZ PROC				; std::_Xlen_string, COMDAT

; 531  :     _Xlength_error("string too long");

  00000	68 00 00 00 00	 push	 OFFSET ??_C@_0BA@JFNIOLAK@string?5too?5long@
  00005	e8 00 00 00 00	 call	 ?_Xlength_error@std@@YAXPBD@Z ; std::_Xlength_error
$LN3@Xlen_strin:
  0000a	cc		 int	 3
?_Xlen_string@std@@YAXXZ ENDP				; std::_Xlen_string
_TEXT	ENDS
; Function compile flags: /Ogtp
; File C:\Program Files\Microsoft Visual Studio\2022\Professional\VC\Tools\MSVC\14.44.35207\include\xmemory
;	COMDAT ?_Throw_bad_array_new_length@std@@YAXXZ
_TEXT	SEGMENT
$T1 = -12						; size = 12
?_Throw_bad_array_new_length@std@@YAXXZ PROC		; std::_Throw_bad_array_new_length, COMDAT

; 107  : [[noreturn]] inline void _Throw_bad_array_new_length() {

  00000	55		 push	 ebp
  00001	8b ec		 mov	 ebp, esp
  00003	83 ec 0c	 sub	 esp, 12			; 0000000cH

; 108  :     _THROW(bad_array_new_length{});

  00006	8d 4d f4	 lea	 ecx, DWORD PTR $T1[ebp]
  00009	e8 00 00 00 00	 call	 ??0bad_array_new_length@std@@QAE@XZ ; std::bad_array_new_length::bad_array_new_length
  0000e	68 00 00 00 00	 push	 OFFSET __TI3?AVbad_array_new_length@std@@
  00013	8d 45 f4	 lea	 eax, DWORD PTR $T1[ebp]
  00016	50		 push	 eax
  00017	e8 00 00 00 00	 call	 __CxxThrowException@8
$LN3@Throw_bad_:
  0001c	cc		 int	 3
?_Throw_bad_array_new_length@std@@YAXXZ ENDP		; std::_Throw_bad_array_new_length
_TEXT	ENDS
; Function compile flags: /Ogtp
; File C:\Program Files\Microsoft Visual Studio\2022\Professional\VC\Tools\MSVC\14.44.35207\include\vcruntime_exception.h
;	COMDAT ??_Gbad_array_new_length@std@@UAEPAXI@Z
_TEXT	SEGMENT
___flags$ = 8						; size = 4
??_Gbad_array_new_length@std@@UAEPAXI@Z PROC		; std::bad_array_new_length::`scalar deleting destructor', COMDAT
; _this$ = ecx
  00000	55		 push	 ebp
  00001	8b ec		 mov	 ebp, esp

; 90   :     {

  00003	56		 push	 esi
  00004	8b f1		 mov	 esi, ecx

; 91   :         __std_exception_destroy(&_Data);

  00006	8d 46 04	 lea	 eax, DWORD PTR [esi+4]
  00009	c7 06 00 00 00
	00		 mov	 DWORD PTR [esi], OFFSET ??_7exception@std@@6B@
  0000f	50		 push	 eax
  00010	e8 00 00 00 00	 call	 ___std_exception_destroy
  00015	83 c4 04	 add	 esp, 4
  00018	f6 45 08 01	 test	 BYTE PTR ___flags$[ebp], 1
  0001c	74 0b		 je	 SHORT $LN18@scalar
  0001e	6a 0c		 push	 12			; 0000000cH
  00020	56		 push	 esi
  00021	e8 00 00 00 00	 call	 ??3@YAXPAXI@Z		; operator delete
  00026	83 c4 08	 add	 esp, 8
$LN18@scalar:
  00029	8b c6		 mov	 eax, esi
  0002b	5e		 pop	 esi
  0002c	5d		 pop	 ebp
  0002d	c2 04 00	 ret	 4
??_Gbad_array_new_length@std@@UAEPAXI@Z ENDP		; std::bad_array_new_length::`scalar deleting destructor'
_TEXT	ENDS
; Function compile flags: /Ogtp
; File C:\Program Files\Microsoft Visual Studio\2022\Professional\VC\Tools\MSVC\14.44.35207\include\vcruntime_exception.h
;	COMDAT ??0bad_array_new_length@std@@QAE@ABV01@@Z
_TEXT	SEGMENT
___that$ = 8						; size = 4
??0bad_array_new_length@std@@QAE@ABV01@@Z PROC		; std::bad_array_new_length::bad_array_new_length, COMDAT
; _this$ = ecx
  00000	55		 push	 ebp
  00001	8b ec		 mov	 ebp, esp

; 73   :     {

  00003	56		 push	 esi
  00004	8b f1		 mov	 esi, ecx
  00006	0f 57 c0	 xorps	 xmm0, xmm0

; 72   :         : _Data()

  00009	8d 46 04	 lea	 eax, DWORD PTR [esi+4]

; 74   :         __std_exception_copy(&_Other._Data, &_Data);

  0000c	50		 push	 eax
  0000d	c7 06 00 00 00
	00		 mov	 DWORD PTR [esi], OFFSET ??_7exception@std@@6B@
  00013	66 0f d6 00	 movq	 QWORD PTR [eax], xmm0
  00017	8b 45 08	 mov	 eax, DWORD PTR ___that$[ebp]
  0001a	83 c0 04	 add	 eax, 4
  0001d	50		 push	 eax
  0001e	e8 00 00 00 00	 call	 ___std_exception_copy
  00023	83 c4 08	 add	 esp, 8
  00026	c7 06 00 00 00
	00		 mov	 DWORD PTR [esi], OFFSET ??_7bad_array_new_length@std@@6B@
  0002c	8b c6		 mov	 eax, esi
  0002e	5e		 pop	 esi
  0002f	5d		 pop	 ebp
  00030	c2 04 00	 ret	 4
??0bad_array_new_length@std@@QAE@ABV01@@Z ENDP		; std::bad_array_new_length::bad_array_new_length
_TEXT	ENDS
; Function compile flags: /Ogtp
; File C:\Program Files\Microsoft Visual Studio\2022\Professional\VC\Tools\MSVC\14.44.35207\include\vcruntime_exception.h
;	COMDAT ??1bad_array_new_length@std@@UAE@XZ
_TEXT	SEGMENT
??1bad_array_new_length@std@@UAE@XZ PROC		; std::bad_array_new_length::~bad_array_new_length, COMDAT
; _this$ = ecx

; 91   :         __std_exception_destroy(&_Data);

  00000	8d 41 04	 lea	 eax, DWORD PTR [ecx+4]
  00003	c7 01 00 00 00
	00		 mov	 DWORD PTR [ecx], OFFSET ??_7exception@std@@6B@
  00009	50		 push	 eax
  0000a	e8 00 00 00 00	 call	 ___std_exception_destroy
  0000f	59		 pop	 ecx
  00010	c3		 ret	 0
??1bad_array_new_length@std@@UAE@XZ ENDP		; std::bad_array_new_length::~bad_array_new_length
_TEXT	ENDS
; Function compile flags: /Ogtp
; File C:\Program Files\Microsoft Visual Studio\2022\Professional\VC\Tools\MSVC\14.44.35207\include\vcruntime_exception.h
;	COMDAT ??0bad_array_new_length@std@@QAE@XZ
_TEXT	SEGMENT
??0bad_array_new_length@std@@QAE@XZ PROC		; std::bad_array_new_length::bad_array_new_length, COMDAT
; _this$ = ecx

; 144  :     {

  00000	0f 57 c0	 xorps	 xmm0, xmm0

; 145  :     }

  00003	8b c1		 mov	 eax, ecx

; 66   :         : _Data()

  00005	66 0f d6 41 04	 movq	 QWORD PTR [ecx+4], xmm0

; 67   :     {
; 68   :         _Data._What = _Message;

  0000a	c7 41 04 00 00
	00 00		 mov	 DWORD PTR [ecx+4], OFFSET ??_C@_0BF@KINCDENJ@bad?5array?5new?5length@

; 144  :     {

  00011	c7 01 00 00 00
	00		 mov	 DWORD PTR [ecx], OFFSET ??_7bad_array_new_length@std@@6B@

; 145  :     }

  00017	c3		 ret	 0
??0bad_array_new_length@std@@QAE@XZ ENDP		; std::bad_array_new_length::bad_array_new_length
_TEXT	ENDS
; Function compile flags: /Ogtp
; File C:\Program Files\Microsoft Visual Studio\2022\Professional\VC\Tools\MSVC\14.44.35207\include\vcruntime_exception.h
;	COMDAT ??_Gbad_alloc@std@@UAEPAXI@Z
_TEXT	SEGMENT
___flags$ = 8						; size = 4
??_Gbad_alloc@std@@UAEPAXI@Z PROC			; std::bad_alloc::`scalar deleting destructor', COMDAT
; _this$ = ecx
  00000	55		 push	 ebp
  00001	8b ec		 mov	 ebp, esp

; 90   :     {

  00003	56		 push	 esi
  00004	8b f1		 mov	 esi, ecx

; 91   :         __std_exception_destroy(&_Data);

  00006	8d 46 04	 lea	 eax, DWORD PTR [esi+4]
  00009	c7 06 00 00 00
	00		 mov	 DWORD PTR [esi], OFFSET ??_7exception@std@@6B@
  0000f	50		 push	 eax
  00010	e8 00 00 00 00	 call	 ___std_exception_destroy
  00015	83 c4 04	 add	 esp, 4
  00018	f6 45 08 01	 test	 BYTE PTR ___flags$[ebp], 1
  0001c	74 0b		 je	 SHORT $LN13@scalar
  0001e	6a 0c		 push	 12			; 0000000cH
  00020	56		 push	 esi
  00021	e8 00 00 00 00	 call	 ??3@YAXPAXI@Z		; operator delete
  00026	83 c4 08	 add	 esp, 8
$LN13@scalar:
  00029	8b c6		 mov	 eax, esi
  0002b	5e		 pop	 esi
  0002c	5d		 pop	 ebp
  0002d	c2 04 00	 ret	 4
??_Gbad_alloc@std@@UAEPAXI@Z ENDP			; std::bad_alloc::`scalar deleting destructor'
_TEXT	ENDS
; Function compile flags: /Ogtp
; File C:\Program Files\Microsoft Visual Studio\2022\Professional\VC\Tools\MSVC\14.44.35207\include\vcruntime_exception.h
;	COMDAT ??0bad_alloc@std@@QAE@ABV01@@Z
_TEXT	SEGMENT
___that$ = 8						; size = 4
??0bad_alloc@std@@QAE@ABV01@@Z PROC			; std::bad_alloc::bad_alloc, COMDAT
; _this$ = ecx
  00000	55		 push	 ebp
  00001	8b ec		 mov	 ebp, esp

; 73   :     {

  00003	56		 push	 esi
  00004	8b f1		 mov	 esi, ecx
  00006	0f 57 c0	 xorps	 xmm0, xmm0

; 72   :         : _Data()

  00009	8d 46 04	 lea	 eax, DWORD PTR [esi+4]

; 74   :         __std_exception_copy(&_Other._Data, &_Data);

  0000c	50		 push	 eax
  0000d	c7 06 00 00 00
	00		 mov	 DWORD PTR [esi], OFFSET ??_7exception@std@@6B@
  00013	66 0f d6 00	 movq	 QWORD PTR [eax], xmm0
  00017	8b 45 08	 mov	 eax, DWORD PTR ___that$[ebp]
  0001a	83 c0 04	 add	 eax, 4
  0001d	50		 push	 eax
  0001e	e8 00 00 00 00	 call	 ___std_exception_copy
  00023	83 c4 08	 add	 esp, 8
  00026	c7 06 00 00 00
	00		 mov	 DWORD PTR [esi], OFFSET ??_7bad_alloc@std@@6B@
  0002c	8b c6		 mov	 eax, esi
  0002e	5e		 pop	 esi
  0002f	5d		 pop	 ebp
  00030	c2 04 00	 ret	 4
??0bad_alloc@std@@QAE@ABV01@@Z ENDP			; std::bad_alloc::bad_alloc
_TEXT	ENDS
; Function compile flags: /Ogtp
; File C:\Program Files\Microsoft Visual Studio\2022\Professional\VC\Tools\MSVC\14.44.35207\include\vcruntime_exception.h
;	COMDAT ??_Gexception@std@@UAEPAXI@Z
_TEXT	SEGMENT
___flags$ = 8						; size = 4
??_Gexception@std@@UAEPAXI@Z PROC			; std::exception::`scalar deleting destructor', COMDAT
; _this$ = ecx
  00000	55		 push	 ebp
  00001	8b ec		 mov	 ebp, esp

; 90   :     {

  00003	56		 push	 esi
  00004	8b f1		 mov	 esi, ecx

; 91   :         __std_exception_destroy(&_Data);

  00006	8d 46 04	 lea	 eax, DWORD PTR [esi+4]
  00009	c7 06 00 00 00
	00		 mov	 DWORD PTR [esi], OFFSET ??_7exception@std@@6B@
  0000f	50		 push	 eax
  00010	e8 00 00 00 00	 call	 ___std_exception_destroy
  00015	83 c4 04	 add	 esp, 4
  00018	f6 45 08 01	 test	 BYTE PTR ___flags$[ebp], 1
  0001c	74 0b		 je	 SHORT $LN8@scalar
  0001e	6a 0c		 push	 12			; 0000000cH
  00020	56		 push	 esi
  00021	e8 00 00 00 00	 call	 ??3@YAXPAXI@Z		; operator delete
  00026	83 c4 08	 add	 esp, 8
$LN8@scalar:
  00029	8b c6		 mov	 eax, esi
  0002b	5e		 pop	 esi
  0002c	5d		 pop	 ebp
  0002d	c2 04 00	 ret	 4
??_Gexception@std@@UAEPAXI@Z ENDP			; std::exception::`scalar deleting destructor'
_TEXT	ENDS
; Function compile flags: /Ogtp
; File C:\Program Files\Microsoft Visual Studio\2022\Professional\VC\Tools\MSVC\14.44.35207\include\vcruntime_exception.h
;	COMDAT ?what@exception@std@@UBEPBDXZ
_TEXT	SEGMENT
?what@exception@std@@UBEPBDXZ PROC			; std::exception::what, COMDAT
; _this$ = ecx

; 96   :         return _Data._What ? _Data._What : "Unknown exception";

  00000	8b 49 04	 mov	 ecx, DWORD PTR [ecx+4]
  00003	b8 00 00 00 00	 mov	 eax, OFFSET ??_C@_0BC@EOODALEL@Unknown?5exception@
  00008	85 c9		 test	 ecx, ecx
  0000a	0f 45 c1	 cmovne	 eax, ecx

; 97   :     }

  0000d	c3		 ret	 0
?what@exception@std@@UBEPBDXZ ENDP			; std::exception::what
_TEXT	ENDS
; Function compile flags: /Ogtp
; File C:\Program Files\Microsoft Visual Studio\2022\Professional\VC\Tools\MSVC\14.44.35207\include\vcruntime_exception.h
;	COMDAT ??1exception@std@@UAE@XZ
_TEXT	SEGMENT
??1exception@std@@UAE@XZ PROC				; std::exception::~exception, COMDAT
; _this$ = ecx

; 91   :         __std_exception_destroy(&_Data);

  00000	8d 41 04	 lea	 eax, DWORD PTR [ecx+4]
  00003	c7 01 00 00 00
	00		 mov	 DWORD PTR [ecx], OFFSET ??_7exception@std@@6B@
  00009	50		 push	 eax
  0000a	e8 00 00 00 00	 call	 ___std_exception_destroy
  0000f	59		 pop	 ecx

; 92   :     }

  00010	c3		 ret	 0
??1exception@std@@UAE@XZ ENDP				; std::exception::~exception
_TEXT	ENDS
; Function compile flags: /Ogtp
; File C:\Program Files\Microsoft Visual Studio\2022\Professional\VC\Tools\MSVC\14.44.35207\include\vcruntime_exception.h
;	COMDAT ??0exception@std@@QAE@ABV01@@Z
_TEXT	SEGMENT
__Other$ = 8						; size = 4
??0exception@std@@QAE@ABV01@@Z PROC			; std::exception::exception, COMDAT
; _this$ = ecx

; 73   :     {

  00000	55		 push	 ebp
  00001	8b ec		 mov	 ebp, esp
  00003	56		 push	 esi
  00004	8b f1		 mov	 esi, ecx
  00006	0f 57 c0	 xorps	 xmm0, xmm0
  00009	8d 46 04	 lea	 eax, DWORD PTR [esi+4]

; 74   :         __std_exception_copy(&_Other._Data, &_Data);

  0000c	50		 push	 eax
  0000d	c7 06 00 00 00
	00		 mov	 DWORD PTR [esi], OFFSET ??_7exception@std@@6B@
  00013	66 0f d6 00	 movq	 QWORD PTR [eax], xmm0
  00017	8b 45 08	 mov	 eax, DWORD PTR __Other$[ebp]
  0001a	83 c0 04	 add	 eax, 4
  0001d	50		 push	 eax
  0001e	e8 00 00 00 00	 call	 ___std_exception_copy
  00023	83 c4 08	 add	 esp, 8

; 75   :     }

  00026	8b c6		 mov	 eax, esi
  00028	5e		 pop	 esi
  00029	5d		 pop	 ebp
  0002a	c2 04 00	 ret	 4
??0exception@std@@QAE@ABV01@@Z ENDP			; std::exception::exception
_TEXT	ENDS
; Function compile flags: /Ogtp
; File C:\IAGOS\server\v18\Source\Source\_Common\MiniGameBase.cpp
;	COMDAT ?__empty_global_delete@@YAXPAXI@Z
_TEXT	SEGMENT
___formal$ = 8						; size = 4
___formal$ = 12						; size = 4
?__empty_global_delete@@YAXPAXI@Z PROC			; __empty_global_delete, COMDAT

  00000	c2 00 00	 ret	 0
?__empty_global_delete@@YAXPAXI@Z ENDP			; __empty_global_delete
_TEXT	ENDS
; Function compile flags: /Ogtp
; File C:\IAGOS\server\v18\Source\Source\_Common\MiniGameBase.cpp
;	COMDAT ?__empty_global_delete@@YAXPAX@Z
_TEXT	SEGMENT
___formal$ = 8						; size = 4
?__empty_global_delete@@YAXPAX@Z PROC			; __empty_global_delete, COMDAT

  00000	c2 00 00	 ret	 0
?__empty_global_delete@@YAXPAX@Z ENDP			; __empty_global_delete
_TEXT	ENDS
END
