; Listing generated by Microsoft (R) Optimizing Compiler Version 19.44.35225.0 

	TITLE	C:\IAGOS\server\v18\Source\Output\WorldServer\Release\MiniGameDiceplay.obj
	.686P
	.XMM
	include listing.inc
	.model	flat

INCLUDELIB LIBCMT
INCLUDELIB OLDNAMES

PUBLIC	?__empty_global_delete@@YAXPAX@Z		; __empty_global_delete
PUBLIC	?__empty_global_delete@@YAXPAXI@Z		; __empty_global_delete
PUBLIC	?Serialize@__MINIGAME_PACKET@@UAEXAAVCAr@@@Z	; __MINIGAME_PACKET::Serialize
PUBLIC	??$?6G@CAr@@QAEAAV0@ABG@Z			; CAr::operator<<<unsigned short>
PUBLIC	??$?6H@CAr@@QAEAAV0@ABH@Z			; CAr::operator<<<int>
PUBLIC	??$?5G@CAr@@QAEAAV0@AAG@Z			; CAr::operator>><unsigned short>
PUBLIC	??$?5H@CAr@@QAEAAV0@AAH@Z			; CAr::operator>><int>
PUBLIC	??0CMiniGameDiceplay@@QAE@XZ			; CMiniGameDiceplay::CMiniGameDiceplay
PUBLIC	??0CMiniGameDiceplay@@QAE@PAVCMiniGameBase@@@Z	; CMiniGameDiceplay::CMiniGameDiceplay
PUBLIC	??1CMiniGameDiceplay@@UAE@XZ			; CMiniGameDiceplay::~CMiniGameDiceplay
PUBLIC	?Excute@CMiniGameDiceplay@@UAEHPAVCUser@@PAU__MINIGAME_PACKET@@@Z ; CMiniGameDiceplay::Excute
PUBLIC	??_GCMiniGameDiceplay@@UAEPAXI@Z		; CMiniGameDiceplay::`scalar deleting destructor'
PUBLIC	??_7__MINIGAME_PACKET@@6B@			; __MINIGAME_PACKET::`vftable'
PUBLIC	??_7CMiniGameDiceplay@@6B@			; CMiniGameDiceplay::`vftable'
PUBLIC	??_R4__MINIGAME_PACKET@@6B@			; __MINIGAME_PACKET::`RTTI Complete Object Locator'
PUBLIC	??_R0?AU__MINIGAME_PACKET@@@8			; __MINIGAME_PACKET `RTTI Type Descriptor'
PUBLIC	??_R3__MINIGAME_PACKET@@8			; __MINIGAME_PACKET::`RTTI Class Hierarchy Descriptor'
PUBLIC	??_R2__MINIGAME_PACKET@@8			; __MINIGAME_PACKET::`RTTI Base Class Array'
PUBLIC	??_R1A@?0A@EA@__MINIGAME_PACKET@@8		; __MINIGAME_PACKET::`RTTI Base Class Descriptor at (0,-1,0,64)'
PUBLIC	??_R4CMiniGameDiceplay@@6B@			; CMiniGameDiceplay::`RTTI Complete Object Locator'
PUBLIC	??_R0?AVCMiniGameDiceplay@@@8			; CMiniGameDiceplay `RTTI Type Descriptor'
PUBLIC	??_R3CMiniGameDiceplay@@8			; CMiniGameDiceplay::`RTTI Class Hierarchy Descriptor'
PUBLIC	??_R2CMiniGameDiceplay@@8			; CMiniGameDiceplay::`RTTI Base Class Array'
PUBLIC	??_R1A@?0A@EA@CMiniGameDiceplay@@8		; CMiniGameDiceplay::`RTTI Base Class Descriptor at (0,-1,0,64)'
PUBLIC	??_R1A@?0A@EA@CMiniGameBase@@8			; CMiniGameBase::`RTTI Base Class Descriptor at (0,-1,0,64)'
PUBLIC	??_R0?AVCMiniGameBase@@@8			; CMiniGameBase `RTTI Type Descriptor'
PUBLIC	??_R3CMiniGameBase@@8				; CMiniGameBase::`RTTI Class Hierarchy Descriptor'
PUBLIC	??_R2CMiniGameBase@@8				; CMiniGameBase::`RTTI Base Class Array'
EXTRN	??3@YAXPAXI@Z:PROC				; operator delete
EXTRN	?xRandom@@YAKKK@Z:PROC				; xRandom
EXTRN	?CheckBuf@CAr@@QAEXI@Z:PROC			; CAr::CheckBuf
EXTRN	??0CMiniGameBase@@QAE@XZ:PROC			; CMiniGameBase::CMiniGameBase
EXTRN	??1CMiniGameBase@@UAE@XZ:PROC			; CMiniGameBase::~CMiniGameBase
EXTRN	?SendPacket@CMiniGameBase@@QAEXPAVCUser@@U__MINIGAME_PACKET@@@Z:PROC ; CMiniGameBase::SendPacket
EXTRN	??_ECMiniGameDiceplay@@UAEPAXI@Z:PROC		; CMiniGameDiceplay::`vector deleting destructor'
EXTRN	@__security_check_cookie@4:PROC
EXTRN	___CxxFrameHandler3:PROC
EXTRN	??_7type_info@@6B@:QWORD			; type_info::`vftable'
EXTRN	?g_next@@3KA:DWORD				; g_next
EXTRN	___security_cookie:DWORD
;	COMDAT ??_R2CMiniGameBase@@8
rdata$r	SEGMENT
??_R2CMiniGameBase@@8 DD FLAT:??_R1A@?0A@EA@CMiniGameBase@@8 ; CMiniGameBase::`RTTI Base Class Array'
rdata$r	ENDS
;	COMDAT ??_R3CMiniGameBase@@8
rdata$r	SEGMENT
??_R3CMiniGameBase@@8 DD 00H				; CMiniGameBase::`RTTI Class Hierarchy Descriptor'
	DD	00H
	DD	01H
	DD	FLAT:??_R2CMiniGameBase@@8
rdata$r	ENDS
;	COMDAT ??_R0?AVCMiniGameBase@@@8
data$rs	SEGMENT
??_R0?AVCMiniGameBase@@@8 DD FLAT:??_7type_info@@6B@	; CMiniGameBase `RTTI Type Descriptor'
	DD	00H
	DB	'.?AVCMiniGameBase@@', 00H
data$rs	ENDS
;	COMDAT ??_R1A@?0A@EA@CMiniGameBase@@8
rdata$r	SEGMENT
??_R1A@?0A@EA@CMiniGameBase@@8 DD FLAT:??_R0?AVCMiniGameBase@@@8 ; CMiniGameBase::`RTTI Base Class Descriptor at (0,-1,0,64)'
	DD	00H
	DD	00H
	DD	0ffffffffH
	DD	00H
	DD	040H
	DD	FLAT:??_R3CMiniGameBase@@8
rdata$r	ENDS
;	COMDAT ??_R1A@?0A@EA@CMiniGameDiceplay@@8
rdata$r	SEGMENT
??_R1A@?0A@EA@CMiniGameDiceplay@@8 DD FLAT:??_R0?AVCMiniGameDiceplay@@@8 ; CMiniGameDiceplay::`RTTI Base Class Descriptor at (0,-1,0,64)'
	DD	01H
	DD	00H
	DD	0ffffffffH
	DD	00H
	DD	040H
	DD	FLAT:??_R3CMiniGameDiceplay@@8
rdata$r	ENDS
;	COMDAT ??_R2CMiniGameDiceplay@@8
rdata$r	SEGMENT
??_R2CMiniGameDiceplay@@8 DD FLAT:??_R1A@?0A@EA@CMiniGameDiceplay@@8 ; CMiniGameDiceplay::`RTTI Base Class Array'
	DD	FLAT:??_R1A@?0A@EA@CMiniGameBase@@8
rdata$r	ENDS
;	COMDAT ??_R3CMiniGameDiceplay@@8
rdata$r	SEGMENT
??_R3CMiniGameDiceplay@@8 DD 00H			; CMiniGameDiceplay::`RTTI Class Hierarchy Descriptor'
	DD	00H
	DD	02H
	DD	FLAT:??_R2CMiniGameDiceplay@@8
rdata$r	ENDS
;	COMDAT ??_R0?AVCMiniGameDiceplay@@@8
data$rs	SEGMENT
??_R0?AVCMiniGameDiceplay@@@8 DD FLAT:??_7type_info@@6B@ ; CMiniGameDiceplay `RTTI Type Descriptor'
	DD	00H
	DB	'.?AVCMiniGameDiceplay@@', 00H
data$rs	ENDS
;	COMDAT ??_R4CMiniGameDiceplay@@6B@
rdata$r	SEGMENT
??_R4CMiniGameDiceplay@@6B@ DD 00H			; CMiniGameDiceplay::`RTTI Complete Object Locator'
	DD	00H
	DD	00H
	DD	FLAT:??_R0?AVCMiniGameDiceplay@@@8
	DD	FLAT:??_R3CMiniGameDiceplay@@8
rdata$r	ENDS
;	COMDAT ??_R1A@?0A@EA@__MINIGAME_PACKET@@8
rdata$r	SEGMENT
??_R1A@?0A@EA@__MINIGAME_PACKET@@8 DD FLAT:??_R0?AU__MINIGAME_PACKET@@@8 ; __MINIGAME_PACKET::`RTTI Base Class Descriptor at (0,-1,0,64)'
	DD	00H
	DD	00H
	DD	0ffffffffH
	DD	00H
	DD	040H
	DD	FLAT:??_R3__MINIGAME_PACKET@@8
rdata$r	ENDS
;	COMDAT ??_R2__MINIGAME_PACKET@@8
rdata$r	SEGMENT
??_R2__MINIGAME_PACKET@@8 DD FLAT:??_R1A@?0A@EA@__MINIGAME_PACKET@@8 ; __MINIGAME_PACKET::`RTTI Base Class Array'
rdata$r	ENDS
;	COMDAT ??_R3__MINIGAME_PACKET@@8
rdata$r	SEGMENT
??_R3__MINIGAME_PACKET@@8 DD 00H			; __MINIGAME_PACKET::`RTTI Class Hierarchy Descriptor'
	DD	00H
	DD	01H
	DD	FLAT:??_R2__MINIGAME_PACKET@@8
rdata$r	ENDS
;	COMDAT ??_R0?AU__MINIGAME_PACKET@@@8
data$rs	SEGMENT
??_R0?AU__MINIGAME_PACKET@@@8 DD FLAT:??_7type_info@@6B@ ; __MINIGAME_PACKET `RTTI Type Descriptor'
	DD	00H
	DB	'.?AU__MINIGAME_PACKET@@', 00H
data$rs	ENDS
;	COMDAT ??_R4__MINIGAME_PACKET@@6B@
rdata$r	SEGMENT
??_R4__MINIGAME_PACKET@@6B@ DD 00H			; __MINIGAME_PACKET::`RTTI Complete Object Locator'
	DD	00H
	DD	00H
	DD	FLAT:??_R0?AU__MINIGAME_PACKET@@@8
	DD	FLAT:??_R3__MINIGAME_PACKET@@8
rdata$r	ENDS
;	COMDAT ??_7CMiniGameDiceplay@@6B@
CONST	SEGMENT
??_7CMiniGameDiceplay@@6B@ DD FLAT:??_R4CMiniGameDiceplay@@6B@ ; CMiniGameDiceplay::`vftable'
	DD	FLAT:??_ECMiniGameDiceplay@@UAEPAXI@Z
	DD	FLAT:?Excute@CMiniGameDiceplay@@UAEHPAVCUser@@PAU__MINIGAME_PACKET@@@Z
CONST	ENDS
;	COMDAT ??_7__MINIGAME_PACKET@@6B@
CONST	SEGMENT
??_7__MINIGAME_PACKET@@6B@ DD FLAT:??_R4__MINIGAME_PACKET@@6B@ ; __MINIGAME_PACKET::`vftable'
	DD	FLAT:?Serialize@__MINIGAME_PACKET@@UAEXAAVCAr@@@Z
CONST	ENDS
;	COMDAT xdata$x
xdata$x	SEGMENT
__unwindtable$??0CMiniGameDiceplay@@QAE@PAVCMiniGameBase@@@Z DD 0ffffffffH
	DD	FLAT:__unwindfunclet$??0CMiniGameDiceplay@@QAE@PAVCMiniGameBase@@@Z$0
__ehfuncinfo$??0CMiniGameDiceplay@@QAE@PAVCMiniGameBase@@@Z DD 019930522H
	DD	01H
	DD	FLAT:__unwindtable$??0CMiniGameDiceplay@@QAE@PAVCMiniGameBase@@@Z
	DD	2 DUP(00H)
	DD	2 DUP(00H)
	DD	00H
	DD	01H
xdata$x	ENDS
; Function compile flags: /Ogtp
;	COMDAT ??_GCMiniGameDiceplay@@UAEPAXI@Z
_TEXT	SEGMENT
___flags$ = 8						; size = 4
??_GCMiniGameDiceplay@@UAEPAXI@Z PROC			; CMiniGameDiceplay::`scalar deleting destructor', COMDAT
; _this$ = ecx
  00000	55		 push	 ebp
  00001	8b ec		 mov	 ebp, esp
  00003	56		 push	 esi
  00004	8b f1		 mov	 esi, ecx
  00006	e8 00 00 00 00	 call	 ??1CMiniGameDiceplay@@UAE@XZ ; CMiniGameDiceplay::~CMiniGameDiceplay
  0000b	f6 45 08 01	 test	 BYTE PTR ___flags$[ebp], 1
  0000f	74 0b		 je	 SHORT $LN5@scalar
  00011	6a 08		 push	 8
  00013	56		 push	 esi
  00014	e8 00 00 00 00	 call	 ??3@YAXPAXI@Z		; operator delete
  00019	83 c4 08	 add	 esp, 8
$LN5@scalar:
  0001c	8b c6		 mov	 eax, esi
  0001e	5e		 pop	 esi
  0001f	5d		 pop	 ebp
  00020	c2 04 00	 ret	 4
??_GCMiniGameDiceplay@@UAEPAXI@Z ENDP			; CMiniGameDiceplay::`scalar deleting destructor'
_TEXT	ENDS
; Function compile flags: /Ogtp
; File C:\IAGOS\server\v18\Source\Source\WorldServer\MiniGameDiceplay.cpp
; File C:\IAGOS\server\v18\Source\Source\_Common\minigamebase.h
; File C:\IAGOS\server\v18\Source\Source\WorldServer\MiniGameDiceplay.cpp
; File C:\IAGOS\server\v18\Source\Source\_Common\minigamebase.h
; File C:\IAGOS\server\v18\Source\Source\WorldServer\MiniGameDiceplay.cpp
; File C:\IAGOS\server\v18\Source\Source\_Common\xUtil.h
; File C:\IAGOS\server\v18\Source\Source\WorldServer\MiniGameDiceplay.cpp
; File C:\IAGOS\server\v18\Source\Source\_Common\xUtil.h
; File C:\IAGOS\server\v18\Source\Source\WorldServer\MiniGameDiceplay.cpp
; File C:\IAGOS\server\v18\Source\Source\_Common\xUtil.h
; File C:\IAGOS\server\v18\Source\Source\WorldServer\MiniGameDiceplay.cpp
;	COMDAT ?Excute@CMiniGameDiceplay@@UAEHPAVCUser@@PAU__MINIGAME_PACKET@@@Z
_TEXT	SEGMENT
_bReturn$1$ = -4					; size = 4
_pUser$ = 8						; size = 4
_pMiniGamePacket$ = 12					; size = 4
_MP$$sroa$199$2$ = 12					; size = 4
?Excute@CMiniGameDiceplay@@UAEHPAVCUser@@PAU__MINIGAME_PACKET@@@Z PROC ; CMiniGameDiceplay::Excute, COMDAT
; _this$ = ecx

; 23   : {

  00000	55		 push	 ebp
  00001	8b ec		 mov	 ebp, esp
  00003	83 ec 08	 sub	 esp, 8
; File C:\IAGOS\server\v18\Source\Source\_Common\minigamebase.h

; 14   : 	: wNowGame(wG), nState(nS), nParam1(nP1), nParam2(nP2) {}

  00006	8b 45 0c	 mov	 eax, DWORD PTR _pMiniGamePacket$[ebp]
; File C:\IAGOS\server\v18\Source\Source\WorldServer\MiniGameDiceplay.cpp

; 23   : {

  00009	53		 push	 ebx
  0000a	56		 push	 esi
  0000b	57		 push	 edi

; 25   : 	__MINIGAME_PACKET MP( pMiniGamePacket->wNowGame );
; 26   : 	if( pMiniGamePacket->nState == MP_OPENWND )

  0000c	83 78 08 01	 cmp	 DWORD PTR [eax+8], 1
  00010	8b f9		 mov	 edi, ecx
; File C:\IAGOS\server\v18\Source\Source\_Common\minigamebase.h

; 14   : 	: wNowGame(wG), nState(nS), nParam1(nP1), nParam2(nP2) {}

  00012	0f b7 58 04	 movzx	 ebx, WORD PTR [eax+4]
; File C:\IAGOS\server\v18\Source\Source\WorldServer\MiniGameDiceplay.cpp

; 24   : 	BOOL bReturn = FALSE;		// ÇöŔç ąĚ´Ď °ÔŔÓŔĚ żĎ·áµÇ´Â°ÇÁö...

  00016	c7 45 fc 00 00
	00 00		 mov	 DWORD PTR _bReturn$1$[ebp], 0

; 25   : 	__MINIGAME_PACKET MP( pMiniGamePacket->wNowGame );
; 26   : 	if( pMiniGamePacket->nState == MP_OPENWND )

  0001d	75 38		 jne	 SHORT $LN2@Excute

; 27   : 	{
; 28   : 		MP.nState = MP_OPENWND;
; 29   : 		MP.nParam1 = m_nTargetNum;

  0001f	8b 4f 04	 mov	 ecx, DWORD PTR [edi+4]

; 30   : 		SendPacket( pUser, MP );

  00022	83 ec 14	 sub	 esp, 20			; 00000014H
  00025	8b c4		 mov	 eax, esp
  00027	ff 75 08	 push	 DWORD PTR _pUser$[ebp]
  0002a	89 48 0c	 mov	 DWORD PTR [eax+12], ecx
  0002d	8b cf		 mov	 ecx, edi
  0002f	c7 00 00 00 00
	00		 mov	 DWORD PTR [eax], OFFSET ??_7__MINIGAME_PACKET@@6B@
  00035	66 89 58 04	 mov	 WORD PTR [eax+4], bx
  00039	c7 40 08 01 00
	00 00		 mov	 DWORD PTR [eax+8], 1
  00040	c7 40 10 00 00
	00 00		 mov	 DWORD PTR [eax+16], 0
  00047	e8 00 00 00 00	 call	 ?SendPacket@CMiniGameBase@@QAEXPAVCUser@@U__MINIGAME_PACKET@@@Z ; CMiniGameBase::SendPacket

; 31   : 		return bReturn;

  0004c	33 c0		 xor	 eax, eax

; 53   : }

  0004e	5f		 pop	 edi
  0004f	5e		 pop	 esi
  00050	5b		 pop	 ebx
  00051	8b e5		 mov	 esp, ebp
  00053	5d		 pop	 ebp
  00054	c2 08 00	 ret	 8
$LN2@Excute:
; File C:\IAGOS\server\v18\Source\Source\_Common\xUtil.h

; 16   : 	g_next = g_next * 1103515245 + 12345;// + nRandomSeed[ i++ ];

  00057	69 35 00 00 00
	00 6d 4e c6 41	 imul	 esi, DWORD PTR ?g_next@@3KA, 1103515245 ; g_next

; 22   : 	return  xRand() % num;

  00061	b8 ab aa aa aa	 mov	 eax, -1431655765	; aaaaaaabH

; 16   : 	g_next = g_next * 1103515245 + 12345;// + nRandomSeed[ i++ ];

  00066	81 c6 39 30 00
	00		 add	 esi, 12345		; 00003039H

; 22   : 	return  xRand() % num;

  0006c	f7 e6		 mul	 esi
  0006e	8b c6		 mov	 eax, esi
  00070	c1 ea 02	 shr	 edx, 2
  00073	8d 0c 52	 lea	 ecx, DWORD PTR [edx+edx*2]
  00076	03 c9		 add	 ecx, ecx
  00078	2b c1		 sub	 eax, ecx
; File C:\IAGOS\server\v18\Source\Source\WorldServer\MiniGameDiceplay.cpp

; 34   : 	MP.nParam1 = xRandom( 6 ) + 1;

  0007a	69 ce 6d 4e c6
	41		 imul	 ecx, esi, 1103515245
  00080	40		 inc	 eax
  00081	89 45 0c	 mov	 DWORD PTR _MP$$sroa$199$2$[ebp], eax
; File C:\IAGOS\server\v18\Source\Source\_Common\xUtil.h

; 22   : 	return  xRand() % num;

  00084	b8 ab aa aa aa	 mov	 eax, -1431655765	; aaaaaaabH

; 16   : 	g_next = g_next * 1103515245 + 12345;// + nRandomSeed[ i++ ];

  00089	81 c1 39 30 00
	00		 add	 ecx, 12345		; 00003039H

; 22   : 	return  xRand() % num;

  0008f	f7 e1		 mul	 ecx

; 16   : 	g_next = g_next * 1103515245 + 12345;// + nRandomSeed[ i++ ];

  00091	89 0d 00 00 00
	00		 mov	 DWORD PTR ?g_next@@3KA, ecx ; g_next

; 22   : 	return  xRand() % num;

  00097	c1 ea 02	 shr	 edx, 2
  0009a	8d 04 52	 lea	 eax, DWORD PTR [edx+edx*2]
; File C:\IAGOS\server\v18\Source\Source\WorldServer\MiniGameDiceplay.cpp

; 35   : 	MP.nParam2 = xRandom( 6 ) + 1;

  0009d	8b 55 0c	 mov	 edx, DWORD PTR _MP$$sroa$199$2$[ebp]
; File C:\IAGOS\server\v18\Source\Source\_Common\xUtil.h

; 22   : 	return  xRand() % num;

  000a0	03 c0		 add	 eax, eax
  000a2	2b c8		 sub	 ecx, eax
; File C:\IAGOS\server\v18\Source\Source\WorldServer\MiniGameDiceplay.cpp

; 35   : 	MP.nParam2 = xRandom( 6 ) + 1;

  000a4	41		 inc	 ecx
  000a5	8d 04 11	 lea	 eax, DWORD PTR [ecx+edx]

; 36   : 
; 37   : 	if( ( MP.nParam1 + MP.nParam2 ) == m_nTargetNum )

  000a8	3b 47 04	 cmp	 eax, DWORD PTR [edi+4]
  000ab	75 10		 jne	 SHORT $LN3@Excute

; 38   : 	{
; 39   : 		MP.nState = MP_FINISH;

  000ad	be 04 00 00 00	 mov	 esi, 4

; 40   : 		bReturn = TRUE;

  000b2	c7 45 fc 01 00
	00 00		 mov	 DWORD PTR _bReturn$1$[ebp], 1

; 41   : 	}

  000b9	8b c1		 mov	 eax, ecx
  000bb	eb 3b		 jmp	 SHORT $LN4@Excute
$LN3@Excute:

; 42   : 	else
; 43   : 	{
; 44   : 		MP.nState = MP_FAIL;
; 45   : 		SendPacket( pUser, MP );

  000bd	83 ec 14	 sub	 esp, 20			; 00000014H
  000c0	be 05 00 00 00	 mov	 esi, 5
  000c5	8b c4		 mov	 eax, esp
  000c7	ff 75 08	 push	 DWORD PTR _pUser$[ebp]
  000ca	89 48 10	 mov	 DWORD PTR [eax+16], ecx
  000cd	8b cf		 mov	 ecx, edi
  000cf	c7 00 00 00 00
	00		 mov	 DWORD PTR [eax], OFFSET ??_7__MINIGAME_PACKET@@6B@
  000d5	66 89 58 04	 mov	 WORD PTR [eax+4], bx
  000d9	89 70 08	 mov	 DWORD PTR [eax+8], esi
  000dc	89 50 0c	 mov	 DWORD PTR [eax+12], edx
  000df	e8 00 00 00 00	 call	 ?SendPacket@CMiniGameBase@@QAEXPAVCUser@@U__MINIGAME_PACKET@@@Z ; CMiniGameBase::SendPacket

; 46   : 		m_nTargetNum = xRandom( 2, 13 );

  000e4	6a 0d		 push	 13			; 0000000dH
  000e6	6a 02		 push	 2
  000e8	e8 00 00 00 00	 call	 ?xRandom@@YAKKK@Z	; xRandom
  000ed	8b d0		 mov	 edx, eax
  000ef	83 c4 08	 add	 esp, 8
  000f2	89 57 04	 mov	 DWORD PTR [edi+4], edx

; 47   : 		MP.nParam1 = m_nTargetNum;
; 48   : 		MP.nParam2 = -1;	// ˝ÇĆĐ˝Ă »ő·Î ąŮ˛ď ¸ńÇĄ°ŞŔĚ¶ó´Â °É ľË·ÁÁÜ..(-1)

  000f5	83 c8 ff	 or	 eax, -1
$LN4@Excute:

; 49   : 	}
; 50   : 
; 51   : 	SendPacket( pUser, MP );

  000f8	83 ec 14	 sub	 esp, 20			; 00000014H
  000fb	8b cc		 mov	 ecx, esp
  000fd	ff 75 08	 push	 DWORD PTR _pUser$[ebp]
  00100	c7 01 00 00 00
	00		 mov	 DWORD PTR [ecx], OFFSET ??_7__MINIGAME_PACKET@@6B@
  00106	66 89 59 04	 mov	 WORD PTR [ecx+4], bx
  0010a	89 71 08	 mov	 DWORD PTR [ecx+8], esi
  0010d	89 51 0c	 mov	 DWORD PTR [ecx+12], edx
  00110	89 41 10	 mov	 DWORD PTR [ecx+16], eax
  00113	8b cf		 mov	 ecx, edi
  00115	e8 00 00 00 00	 call	 ?SendPacket@CMiniGameBase@@QAEXPAVCUser@@U__MINIGAME_PACKET@@@Z ; CMiniGameBase::SendPacket

; 52   : 	return bReturn;

  0011a	8b 45 fc	 mov	 eax, DWORD PTR _bReturn$1$[ebp]

; 53   : }

  0011d	5f		 pop	 edi
  0011e	5e		 pop	 esi
  0011f	5b		 pop	 ebx
  00120	8b e5		 mov	 esp, ebp
  00122	5d		 pop	 ebp
  00123	c2 08 00	 ret	 8
?Excute@CMiniGameDiceplay@@UAEHPAVCUser@@PAU__MINIGAME_PACKET@@@Z ENDP ; CMiniGameDiceplay::Excute
_TEXT	ENDS
; Function compile flags: /Ogtp
; File C:\IAGOS\server\v18\Source\Source\WorldServer\MiniGameDiceplay.cpp
;	COMDAT ??1CMiniGameDiceplay@@UAE@XZ
_TEXT	SEGMENT
??1CMiniGameDiceplay@@UAE@XZ PROC			; CMiniGameDiceplay::~CMiniGameDiceplay, COMDAT
; _this$ = ecx

; 19   : {

  00000	c7 01 00 00 00
	00		 mov	 DWORD PTR [ecx], OFFSET ??_7CMiniGameDiceplay@@6B@

; 20   : }

  00006	e9 00 00 00 00	 jmp	 ??1CMiniGameBase@@UAE@XZ ; CMiniGameBase::~CMiniGameBase
??1CMiniGameDiceplay@@UAE@XZ ENDP			; CMiniGameDiceplay::~CMiniGameDiceplay
_TEXT	ENDS
; Function compile flags: /Ogtp
; File C:\IAGOS\server\v18\Source\Source\WorldServer\MiniGameDiceplay.cpp
;	COMDAT ??0CMiniGameDiceplay@@QAE@PAVCMiniGameBase@@@Z
_TEXT	SEGMENT
_this$ = -16						; size = 4
__$EHRec$ = -12						; size = 12
_pMiniGame$ = 8						; size = 4
??0CMiniGameDiceplay@@QAE@PAVCMiniGameBase@@@Z PROC	; CMiniGameDiceplay::CMiniGameDiceplay, COMDAT
; _this$ = ecx

; 12   : {

  00000	55		 push	 ebp
  00001	8b ec		 mov	 ebp, esp
  00003	6a ff		 push	 -1
  00005	68 00 00 00 00	 push	 __ehhandler$??0CMiniGameDiceplay@@QAE@PAVCMiniGameBase@@@Z
  0000a	64 a1 00 00 00
	00		 mov	 eax, DWORD PTR fs:0
  00010	50		 push	 eax
  00011	51		 push	 ecx
  00012	56		 push	 esi
  00013	a1 00 00 00 00	 mov	 eax, DWORD PTR ___security_cookie
  00018	33 c5		 xor	 eax, ebp
  0001a	50		 push	 eax
  0001b	8d 45 f4	 lea	 eax, DWORD PTR __$EHRec$[ebp]
  0001e	64 a3 00 00 00
	00		 mov	 DWORD PTR fs:0, eax
  00024	8b f1		 mov	 esi, ecx
  00026	89 75 f0	 mov	 DWORD PTR _this$[ebp], esi
  00029	e8 00 00 00 00	 call	 ??0CMiniGameBase@@QAE@XZ ; CMiniGameBase::CMiniGameBase

; 11   : : m_nTargetNum( xRandom( 2, 13 ) )

  0002e	6a 0d		 push	 13			; 0000000dH
  00030	6a 02		 push	 2
  00032	c7 45 fc 00 00
	00 00		 mov	 DWORD PTR __$EHRec$[ebp+8], 0
  00039	c7 06 00 00 00
	00		 mov	 DWORD PTR [esi], OFFSET ??_7CMiniGameDiceplay@@6B@
  0003f	e8 00 00 00 00	 call	 ?xRandom@@YAKKK@Z	; xRandom
  00044	89 46 04	 mov	 DWORD PTR [esi+4], eax
  00047	83 c4 08	 add	 esp, 8

; 13   : 	CMiniGameDiceplay* pMiniGameDiceplay = static_cast<CMiniGameDiceplay*>( pMiniGame );
; 14   : 
; 15   : 	
; 16   : }

  0004a	8b c6		 mov	 eax, esi
  0004c	8b 4d f4	 mov	 ecx, DWORD PTR __$EHRec$[ebp]
  0004f	64 89 0d 00 00
	00 00		 mov	 DWORD PTR fs:0, ecx
  00056	59		 pop	 ecx
  00057	5e		 pop	 esi
  00058	8b e5		 mov	 esp, ebp
  0005a	5d		 pop	 ebp
  0005b	c2 04 00	 ret	 4
_TEXT	ENDS
;	COMDAT text$x
text$x	SEGMENT
__unwindfunclet$??0CMiniGameDiceplay@@QAE@PAVCMiniGameBase@@@Z$0:
  00000	8b 4d f0	 mov	 ecx, DWORD PTR _this$[ebp]
  00003	e9 00 00 00 00	 jmp	 ??1CMiniGameBase@@UAE@XZ ; CMiniGameBase::~CMiniGameBase
  00008	cc		 int	 3
  00009	cc		 int	 3
  0000a	cc		 int	 3
  0000b	cc		 int	 3
  0000c	cc		 int	 3
__ehhandler$??0CMiniGameDiceplay@@QAE@PAVCMiniGameBase@@@Z:
  0000d	90		 npad	 1
  0000e	90		 npad	 1
  0000f	8b 54 24 08	 mov	 edx, DWORD PTR [esp+8]
  00013	8d 42 0c	 lea	 eax, DWORD PTR [edx+12]
  00016	8b 4a f4	 mov	 ecx, DWORD PTR [edx-12]
  00019	33 c8		 xor	 ecx, eax
  0001b	e8 00 00 00 00	 call	 @__security_check_cookie@4
  00020	b8 00 00 00 00	 mov	 eax, OFFSET __ehfuncinfo$??0CMiniGameDiceplay@@QAE@PAVCMiniGameBase@@@Z
  00025	e9 00 00 00 00	 jmp	 ___CxxFrameHandler3
text$x	ENDS
??0CMiniGameDiceplay@@QAE@PAVCMiniGameBase@@@Z ENDP	; CMiniGameDiceplay::CMiniGameDiceplay
; Function compile flags: /Ogtp
; File C:\IAGOS\server\v18\Source\Source\WorldServer\MiniGameDiceplay.cpp
;	COMDAT ??0CMiniGameDiceplay@@QAE@XZ
_TEXT	SEGMENT
_this$ = -4						; size = 4
??0CMiniGameDiceplay@@QAE@XZ PROC			; CMiniGameDiceplay::CMiniGameDiceplay, COMDAT
; _this$ = ecx

; 7    : {

  00000	55		 push	 ebp
  00001	8b ec		 mov	 ebp, esp
  00003	51		 push	 ecx
  00004	56		 push	 esi
  00005	8b f1		 mov	 esi, ecx
  00007	89 75 fc	 mov	 DWORD PTR _this$[ebp], esi
  0000a	e8 00 00 00 00	 call	 ??0CMiniGameBase@@QAE@XZ ; CMiniGameBase::CMiniGameBase
  0000f	c7 06 00 00 00
	00		 mov	 DWORD PTR [esi], OFFSET ??_7CMiniGameDiceplay@@6B@

; 8    : }

  00015	8b c6		 mov	 eax, esi
  00017	5e		 pop	 esi
  00018	8b e5		 mov	 esp, ebp
  0001a	5d		 pop	 ebp
  0001b	c3		 ret	 0
??0CMiniGameDiceplay@@QAE@XZ ENDP			; CMiniGameDiceplay::CMiniGameDiceplay
_TEXT	ENDS
; Function compile flags: /Ogtp
; File C:\IAGOS\server\v18\Source\Source\_Network\Misc\Include\ar.h
;	COMDAT ??$?5H@CAr@@QAEAAV0@AAH@Z
_TEXT	SEGMENT
_t$ = 8							; size = 4
??$?5H@CAr@@QAEAAV0@AAH@Z PROC				; CAr::operator>><int>, COMDAT
; _this$ = ecx

; 302  : {

  00000	55		 push	 ebp
  00001	8b ec		 mov	 ebp, esp
  00003	8b d1		 mov	 edx, ecx

; 303  : 	if (m_lpBufCur + sizeof(T) <= m_lpBufMax)

  00005	8b 4a 08	 mov	 ecx, DWORD PTR [edx+8]
  00008	8d 41 04	 lea	 eax, DWORD PTR [ecx+4]
  0000b	3b 42 0c	 cmp	 eax, DWORD PTR [edx+12]
  0000e	8b 45 08	 mov	 eax, DWORD PTR _t$[ebp]
  00011	77 0e		 ja	 SHORT $LN2@operator

; 304  : 	{
; 305  : 		t = *(UNALIGNED T*)m_lpBufCur;

  00013	8b 09		 mov	 ecx, DWORD PTR [ecx]
  00015	89 08		 mov	 DWORD PTR [eax], ecx

; 312  : 	}
; 313  : 	return *this;
; 314  : }

  00017	8b c2		 mov	 eax, edx
  00019	83 42 08 04	 add	 DWORD PTR [edx+8], 4
  0001d	5d		 pop	 ebp
  0001e	c2 04 00	 ret	 4
$LN2@operator:

; 306  : 		m_lpBufCur += sizeof(T);
; 307  : 	}
; 308  : 	else
; 309  : 	{
; 310  : 		t = T();

  00021	c7 00 00 00 00
	00		 mov	 DWORD PTR [eax], 0

; 311  : 		m_lpBufCur = m_lpBufMax;

  00027	8b 42 0c	 mov	 eax, DWORD PTR [edx+12]
  0002a	89 42 08	 mov	 DWORD PTR [edx+8], eax

; 312  : 	}
; 313  : 	return *this;
; 314  : }

  0002d	8b c2		 mov	 eax, edx
  0002f	5d		 pop	 ebp
  00030	c2 04 00	 ret	 4
??$?5H@CAr@@QAEAAV0@AAH@Z ENDP				; CAr::operator>><int>
_TEXT	ENDS
; Function compile flags: /Ogtp
; File C:\IAGOS\server\v18\Source\Source\_Network\Misc\Include\ar.h
;	COMDAT ??$?5G@CAr@@QAEAAV0@AAG@Z
_TEXT	SEGMENT
_t$ = 8							; size = 4
??$?5G@CAr@@QAEAAV0@AAG@Z PROC				; CAr::operator>><unsigned short>, COMDAT
; _this$ = ecx

; 302  : {

  00000	55		 push	 ebp
  00001	8b ec		 mov	 ebp, esp
  00003	8b d1		 mov	 edx, ecx

; 303  : 	if (m_lpBufCur + sizeof(T) <= m_lpBufMax)

  00005	8b 4a 08	 mov	 ecx, DWORD PTR [edx+8]
  00008	8d 41 02	 lea	 eax, DWORD PTR [ecx+2]
  0000b	3b 42 0c	 cmp	 eax, DWORD PTR [edx+12]
  0000e	8b 45 08	 mov	 eax, DWORD PTR _t$[ebp]
  00011	77 10		 ja	 SHORT $LN2@operator

; 304  : 	{
; 305  : 		t = *(UNALIGNED T*)m_lpBufCur;

  00013	66 8b 09	 mov	 cx, WORD PTR [ecx]
  00016	66 89 08	 mov	 WORD PTR [eax], cx

; 312  : 	}
; 313  : 	return *this;
; 314  : }

  00019	8b c2		 mov	 eax, edx
  0001b	83 42 08 02	 add	 DWORD PTR [edx+8], 2
  0001f	5d		 pop	 ebp
  00020	c2 04 00	 ret	 4
$LN2@operator:

; 306  : 		m_lpBufCur += sizeof(T);
; 307  : 	}
; 308  : 	else
; 309  : 	{
; 310  : 		t = T();

  00023	33 c9		 xor	 ecx, ecx
  00025	66 89 08	 mov	 WORD PTR [eax], cx

; 311  : 		m_lpBufCur = m_lpBufMax;

  00028	8b 42 0c	 mov	 eax, DWORD PTR [edx+12]
  0002b	89 42 08	 mov	 DWORD PTR [edx+8], eax

; 312  : 	}
; 313  : 	return *this;
; 314  : }

  0002e	8b c2		 mov	 eax, edx
  00030	5d		 pop	 ebp
  00031	c2 04 00	 ret	 4
??$?5G@CAr@@QAEAAV0@AAG@Z ENDP				; CAr::operator>><unsigned short>
_TEXT	ENDS
; Function compile flags: /Ogtp
; File C:\IAGOS\server\v18\Source\Source\_Network\Misc\Include\ar.h
;	COMDAT ??$?6H@CAr@@QAEAAV0@ABH@Z
_TEXT	SEGMENT
_t$ = 8							; size = 4
??$?6H@CAr@@QAEAAV0@ABH@Z PROC				; CAr::operator<<<int>, COMDAT
; _this$ = ecx

; 255  : {

  00000	55		 push	 ebp
  00001	8b ec		 mov	 ebp, esp
  00003	56		 push	 esi

; 256  : 	CheckBuf(sizeof(T));

  00004	6a 04		 push	 4
  00006	8b f1		 mov	 esi, ecx
  00008	e8 00 00 00 00	 call	 ?CheckBuf@CAr@@QAEXI@Z	; CAr::CheckBuf

; 257  : 	*(UNALIGNED T*)m_lpBufCur = t;

  0000d	8b 56 08	 mov	 edx, DWORD PTR [esi+8]
  00010	8b 45 08	 mov	 eax, DWORD PTR _t$[ebp]
  00013	8b 00		 mov	 eax, DWORD PTR [eax]
  00015	89 02		 mov	 DWORD PTR [edx], eax

; 258  : 	m_lpBufCur += sizeof(T);
; 259  : 	return *this;

  00017	8b c6		 mov	 eax, esi
  00019	83 46 08 04	 add	 DWORD PTR [esi+8], 4
  0001d	5e		 pop	 esi

; 260  : }

  0001e	5d		 pop	 ebp
  0001f	c2 04 00	 ret	 4
??$?6H@CAr@@QAEAAV0@ABH@Z ENDP				; CAr::operator<<<int>
_TEXT	ENDS
; Function compile flags: /Ogtp
; File C:\IAGOS\server\v18\Source\Source\_Network\Misc\Include\ar.h
;	COMDAT ??$?6G@CAr@@QAEAAV0@ABG@Z
_TEXT	SEGMENT
_t$ = 8							; size = 4
??$?6G@CAr@@QAEAAV0@ABG@Z PROC				; CAr::operator<<<unsigned short>, COMDAT
; _this$ = ecx

; 255  : {

  00000	55		 push	 ebp
  00001	8b ec		 mov	 ebp, esp
  00003	56		 push	 esi

; 256  : 	CheckBuf(sizeof(T));

  00004	6a 02		 push	 2
  00006	8b f1		 mov	 esi, ecx
  00008	e8 00 00 00 00	 call	 ?CheckBuf@CAr@@QAEXI@Z	; CAr::CheckBuf

; 257  : 	*(UNALIGNED T*)m_lpBufCur = t;

  0000d	8b 45 08	 mov	 eax, DWORD PTR _t$[ebp]
  00010	8b 56 08	 mov	 edx, DWORD PTR [esi+8]
  00013	66 8b 00	 mov	 ax, WORD PTR [eax]
  00016	66 89 02	 mov	 WORD PTR [edx], ax

; 258  : 	m_lpBufCur += sizeof(T);
; 259  : 	return *this;

  00019	8b c6		 mov	 eax, esi
  0001b	83 46 08 02	 add	 DWORD PTR [esi+8], 2
  0001f	5e		 pop	 esi

; 260  : }

  00020	5d		 pop	 ebp
  00021	c2 04 00	 ret	 4
??$?6G@CAr@@QAEAAV0@ABG@Z ENDP				; CAr::operator<<<unsigned short>
_TEXT	ENDS
; Function compile flags: /Ogtp
; File C:\IAGOS\server\v18\Source\Source\_Common\minigamebase.h
; File C:\IAGOS\server\v18\Source\Source\_Network\Misc\Include\ar.h
; File C:\IAGOS\server\v18\Source\Source\_Common\minigamebase.h
; File C:\IAGOS\server\v18\Source\Source\_Network\Misc\Include\ar.h
; File C:\IAGOS\server\v18\Source\Source\_Common\minigamebase.h
;	COMDAT ?Serialize@__MINIGAME_PACKET@@UAEXAAVCAr@@@Z
_TEXT	SEGMENT
_ar$ = 8						; size = 4
?Serialize@__MINIGAME_PACKET@@UAEXAAVCAr@@@Z PROC	; __MINIGAME_PACKET::Serialize, COMDAT
; _this$ = ecx

; 16   : 	{

  00000	55		 push	 ebp
  00001	8b ec		 mov	 ebp, esp
  00003	56		 push	 esi
  00004	57		 push	 edi
; File C:\IAGOS\server\v18\Source\Source\_Network\Misc\Include\ar.h

; 146  : 	return (m_nMode & CAr::load) == 0;

  00005	8d 41 10	 lea	 eax, DWORD PTR [ecx+16]
  00008	8d 51 0c	 lea	 edx, DWORD PTR [ecx+12]
  0000b	8d 71 08	 lea	 esi, DWORD PTR [ecx+8]
  0000e	8d 79 04	 lea	 edi, DWORD PTR [ecx+4]
  00011	8b 4d 08	 mov	 ecx, DWORD PTR _ar$[ebp]
; File C:\IAGOS\server\v18\Source\Source\_Common\minigamebase.h

; 17   : 		if( ar.IsStoring() )

  00014	50		 push	 eax
  00015	52		 push	 edx
  00016	56		 push	 esi
; File C:\IAGOS\server\v18\Source\Source\_Network\Misc\Include\ar.h

; 146  : 	return (m_nMode & CAr::load) == 0;

  00017	f6 01 01	 test	 BYTE PTR [ecx], 1
; File C:\IAGOS\server\v18\Source\Source\_Common\minigamebase.h

; 17   : 		if( ar.IsStoring() )

  0001a	57		 push	 edi
  0001b	75 20		 jne	 SHORT $LN2@Serialize

; 18   : 			ar << wNowGame << nState << nParam1 << nParam2;

  0001d	e8 00 00 00 00	 call	 ??$?6G@CAr@@QAEAAV0@ABG@Z ; CAr::operator<<<unsigned short>
  00022	8b c8		 mov	 ecx, eax
  00024	e8 00 00 00 00	 call	 ??$?6H@CAr@@QAEAAV0@ABH@Z ; CAr::operator<<<int>
  00029	8b c8		 mov	 ecx, eax
  0002b	e8 00 00 00 00	 call	 ??$?6H@CAr@@QAEAAV0@ABH@Z ; CAr::operator<<<int>
  00030	8b c8		 mov	 ecx, eax
  00032	e8 00 00 00 00	 call	 ??$?6H@CAr@@QAEAAV0@ABH@Z ; CAr::operator<<<int>
  00037	5f		 pop	 edi

; 21   : 	}

  00038	5e		 pop	 esi
  00039	5d		 pop	 ebp
  0003a	c2 04 00	 ret	 4
$LN2@Serialize:

; 19   : 		else
; 20   : 			ar >> wNowGame >> nState >> nParam1 >> nParam2;

  0003d	e8 00 00 00 00	 call	 ??$?5G@CAr@@QAEAAV0@AAG@Z ; CAr::operator>><unsigned short>
  00042	8b c8		 mov	 ecx, eax
  00044	e8 00 00 00 00	 call	 ??$?5H@CAr@@QAEAAV0@AAH@Z ; CAr::operator>><int>
  00049	8b c8		 mov	 ecx, eax
  0004b	e8 00 00 00 00	 call	 ??$?5H@CAr@@QAEAAV0@AAH@Z ; CAr::operator>><int>
  00050	8b c8		 mov	 ecx, eax
  00052	e8 00 00 00 00	 call	 ??$?5H@CAr@@QAEAAV0@AAH@Z ; CAr::operator>><int>
  00057	5f		 pop	 edi

; 21   : 	}

  00058	5e		 pop	 esi
  00059	5d		 pop	 ebp
  0005a	c2 04 00	 ret	 4
?Serialize@__MINIGAME_PACKET@@UAEXAAVCAr@@@Z ENDP	; __MINIGAME_PACKET::Serialize
_TEXT	ENDS
; Function compile flags: /Ogtp
; File C:\IAGOS\server\v18\Source\Source\WorldServer\MiniGameDiceplay.cpp
;	COMDAT ?__empty_global_delete@@YAXPAXI@Z
_TEXT	SEGMENT
___formal$ = 8						; size = 4
___formal$ = 12						; size = 4
?__empty_global_delete@@YAXPAXI@Z PROC			; __empty_global_delete, COMDAT

  00000	c2 00 00	 ret	 0
?__empty_global_delete@@YAXPAXI@Z ENDP			; __empty_global_delete
_TEXT	ENDS
; Function compile flags: /Ogtp
; File C:\IAGOS\server\v18\Source\Source\WorldServer\MiniGameDiceplay.cpp
;	COMDAT ?__empty_global_delete@@YAXPAX@Z
_TEXT	SEGMENT
___formal$ = 8						; size = 4
?__empty_global_delete@@YAXPAX@Z PROC			; __empty_global_delete, COMDAT

  00000	c2 00 00	 ret	 0
?__empty_global_delete@@YAXPAX@Z ENDP			; __empty_global_delete
_TEXT	ENDS
END
