; Listing generated by Microsoft (R) Optimizing Compiler Version 19.44.35225.0 

	TITLE	C:\IAGOS\server\v18\Source\Output\WorldServer\Release\MiniGame.obj
	.686P
	.XMM
	include listing.inc
	.model	flat

INCLUDELIB LIBCMT
INCLUDELIB OLDNAMES

CONST	SEGMENT
?piecewise_construct@std@@3Upiecewise_construct_t@1@B	ORG $+1 ; std::piecewise_construct
CONST	ENDS
PUBLIC	?__empty_global_delete@@YAXPAX@Z		; __empty_global_delete
PUBLIC	?__empty_global_delete@@YAXPAXI@Z		; __empty_global_delete
PUBLIC	___local_stdio_printf_options
PUBLIC	_sprintf
PUBLIC	?AtlThrowImpl@ATL@@YGXJ@Z			; ATL::AtlThrowImpl
PUBLIC	??1?$CSimpleStringT@D$0A@@ATL@@QAE@XZ		; ATL::CSimpleStringT<char,0>::~CSimpleStringT<char,0>
PUBLIC	?SetString@?$CSimpleStringT@D$0A@@ATL@@QAEXPBDH@Z ; ATL::CSimpleStringT<char,0>::SetString
PUBLIC	?ThrowMemoryException@?$CSimpleStringT@D$0A@@ATL@@KAXXZ ; ATL::CSimpleStringT<char,0>::ThrowMemoryException
PUBLIC	?Fork@?$CSimpleStringT@D$0A@@ATL@@AAEXH@Z	; ATL::CSimpleStringT<char,0>::Fork
PUBLIC	?PrepareWrite2@?$CSimpleStringT@D$0A@@ATL@@AAEXH@Z ; ATL::CSimpleStringT<char,0>::PrepareWrite2
PUBLIC	?Reallocate@?$CSimpleStringT@D$0A@@ATL@@AAEXH@Z	; ATL::CSimpleStringT<char,0>::Reallocate
PUBLIC	?CloneData@?$CSimpleStringT@D$0A@@ATL@@CAPAUCStringData@2@PAU32@@Z ; ATL::CSimpleStringT<char,0>::CloneData
PUBLIC	??1?$CStringT@DV?$StrTraitMFC@DV?$ChTraitsCRT@D@ATL@@@@@ATL@@QAE@XZ ; ATL::CStringT<char,StrTraitMFC<char,ATL::ChTraitsCRT<char> > >::~CStringT<char,StrTraitMFC<char,ATL::ChTraitsCRT<char> > >
PUBLIC	??4?$CStringT@DV?$StrTraitMFC@DV?$ChTraitsCRT@D@ATL@@@@@ATL@@QAEAAV01@ABV01@@Z ; ATL::CStringT<char,StrTraitMFC<char,ATL::ChTraitsCRT<char> > >::operator=
PUBLIC	?Right@?$CStringT@DV?$StrTraitMFC@DV?$ChTraitsCRT@D@ATL@@@@@ATL@@QBE?AV12@H@Z ; ATL::CStringT<char,StrTraitMFC<char,ATL::ChTraitsCRT<char> > >::Right
PUBLIC	?LoadStringA@?$CStringT@DV?$StrTraitMFC@DV?$ChTraitsCRT@D@ATL@@@@@ATL@@QAEHI@Z ; ATL::CStringT<char,StrTraitMFC<char,ATL::ChTraitsCRT<char> > >::LoadStringA
PUBLIC	??0exception@std@@QAE@ABV01@@Z			; std::exception::exception
PUBLIC	??1exception@std@@UAE@XZ			; std::exception::~exception
PUBLIC	?what@exception@std@@UBEPBDXZ			; std::exception::what
PUBLIC	??_Gexception@std@@UAEPAXI@Z			; std::exception::`scalar deleting destructor'
PUBLIC	??0bad_alloc@std@@QAE@ABV01@@Z			; std::bad_alloc::bad_alloc
PUBLIC	??_Gbad_alloc@std@@UAEPAXI@Z			; std::bad_alloc::`scalar deleting destructor'
PUBLIC	??0bad_array_new_length@std@@QAE@XZ		; std::bad_array_new_length::bad_array_new_length
PUBLIC	??1bad_array_new_length@std@@UAE@XZ		; std::bad_array_new_length::~bad_array_new_length
PUBLIC	??0bad_array_new_length@std@@QAE@ABV01@@Z	; std::bad_array_new_length::bad_array_new_length
PUBLIC	??_Gbad_array_new_length@std@@UAEPAXI@Z		; std::bad_array_new_length::`scalar deleting destructor'
PUBLIC	?_Throw_bad_array_new_length@std@@YAXXZ		; std::_Throw_bad_array_new_length
PUBLIC	?_Throw_tree_length_error@std@@YAXXZ		; std::_Throw_tree_length_error
PUBLIC	??0_LogItemInfo@@QAE@XZ				; _LogItemInfo::_LogItemInfo
PUBLIC	?deallocate@?$allocator@U__ITEMGAME@CMiniGame@@@std@@QAEXQAU__ITEMGAME@CMiniGame@@I@Z ; std::allocator<CMiniGame::__ITEMGAME>::deallocate
PUBLIC	??1?$vector@U__ITEMGAME@CMiniGame@@V?$allocator@U__ITEMGAME@CMiniGame@@@std@@@std@@QAE@XZ ; std::vector<CMiniGame::__ITEMGAME,std::allocator<CMiniGame::__ITEMGAME> >::~vector<CMiniGame::__ITEMGAME,std::allocator<CMiniGame::__ITEMGAME> >
PUBLIC	??4?$vector@U__ITEMGAME@CMiniGame@@V?$allocator@U__ITEMGAME@CMiniGame@@@std@@@std@@QAEAAV01@ABV01@@Z ; std::vector<CMiniGame::__ITEMGAME,std::allocator<CMiniGame::__ITEMGAME> >::operator=
PUBLIC	?_Buy_raw@?$vector@U__ITEMGAME@CMiniGame@@V?$allocator@U__ITEMGAME@CMiniGame@@@std@@@std@@AAEXI@Z ; std::vector<CMiniGame::__ITEMGAME,std::allocator<CMiniGame::__ITEMGAME> >::_Buy_raw
PUBLIC	?_Tidy@?$vector@U__ITEMGAME@CMiniGame@@V?$allocator@U__ITEMGAME@CMiniGame@@@std@@@std@@AAEXXZ ; std::vector<CMiniGame::__ITEMGAME,std::allocator<CMiniGame::__ITEMGAME> >::_Tidy
PUBLIC	?_Xlength@?$vector@U__ITEMGAME@CMiniGame@@V?$allocator@U__ITEMGAME@CMiniGame@@@std@@@std@@CAXXZ ; std::vector<CMiniGame::__ITEMGAME,std::allocator<CMiniGame::__ITEMGAME> >::_Xlength
PUBLIC	??0__ALPHABET@CMiniGame@@QAE@XZ			; CMiniGame::__ALPHABET::__ALPHABET
PUBLIC	??1__ALPHABET@CMiniGame@@QAE@XZ			; CMiniGame::__ALPHABET::~__ALPHABET
PUBLIC	??0__ALPHABET@CMiniGame@@QAE@ABU01@@Z		; CMiniGame::__ALPHABET::__ALPHABET
PUBLIC	??0CMiniGame@@QAE@XZ				; CMiniGame::CMiniGame
PUBLIC	??1CMiniGame@@UAE@XZ				; CMiniGame::~CMiniGame
PUBLIC	?Load_Alphabet@CMiniGame@@QAEHXZ		; CMiniGame::Load_Alphabet
PUBLIC	?Load_KawiBawiBo@CMiniGame@@QAEHXZ		; CMiniGame::Load_KawiBawiBo
PUBLIC	?Load_FiveSystem@CMiniGame@@QAEHXZ		; CMiniGame::Load_FiveSystem
PUBLIC	?Load_Reassemble@CMiniGame@@QAEHXZ		; CMiniGame::Load_Reassemble
PUBLIC	?GetCharacter@CMiniGame@@QAEDK@Z		; CMiniGame::GetCharacter
PUBLIC	?GetKawibawiboYou@CMiniGame@@QAEHHH@Z		; CMiniGame::GetKawibawiboYou
PUBLIC	?Result_Kawibawibo@CMiniGame@@QAEHPAVCUser@@@Z	; CMiniGame::Result_Kawibawibo
PUBLIC	?ResultItem_Kawibawibo@CMiniGame@@QAEHPAVCUser@@@Z ; CMiniGame::ResultItem_Kawibawibo
PUBLIC	?FindKawibawibo@CMiniGame@@QAE?AU__KAWIBAWIBO@1@H@Z ; CMiniGame::FindKawibawibo
PUBLIC	?Result_Reassemble@CMiniGame@@QAEHPAVCUser@@PAKH@Z ; CMiniGame::Result_Reassemble
PUBLIC	?ResultItem_Reassemble@CMiniGame@@QAEHPAVCUser@@@Z ; CMiniGame::ResultItem_Reassemble
PUBLIC	?GetReassembleRandomItem@CMiniGame@@QAE?AU__ITEMGAME@1@XZ ; CMiniGame::GetReassembleRandomItem
PUBLIC	?OpenWnd_Reassemble@CMiniGame@@QAEXPAVCUser@@@Z	; CMiniGame::OpenWnd_Reassemble
PUBLIC	?OpenWnd_Alphabet@CMiniGame@@QAEXPAVCUser@@@Z	; CMiniGame::OpenWnd_Alphabet
PUBLIC	?Result_Alphabet@CMiniGame@@QAEHPAVCUser@@PAKHH@Z ; CMiniGame::Result_Alphabet
PUBLIC	?ResultItem_Alphabet@CMiniGame@@QAEHPAVCUser@@H@Z ; CMiniGame::ResultItem_Alphabet
PUBLIC	?GetAlphabetRandomItem@CMiniGame@@QAE?AU__ITEMGAME@1@H@Z ; CMiniGame::GetAlphabetRandomItem
PUBLIC	?GetPublicCharacter@CMiniGame@@QAEDHH@Z		; CMiniGame::GetPublicCharacter
PUBLIC	?OpenWnd_FiveSystem@CMiniGame@@QAEXPAVCUser@@@Z	; CMiniGame::OpenWnd_FiveSystem
PUBLIC	?DestroyWnd_FiveSystem@CMiniGame@@QAEXPAVCUser@@@Z ; CMiniGame::DestroyWnd_FiveSystem
PUBLIC	?Bet_FiveSystem@CMiniGame@@QAEHPAVCUser@@HH@Z	; CMiniGame::Bet_FiveSystem
PUBLIC	?Result_FiveSystem@CMiniGame@@QAEHPAVCUser@@@Z	; CMiniGame::Result_FiveSystem
PUBLIC	?ResultPenya_FiveSystem@CMiniGame@@QAEHPAVCUser@@H@Z ; CMiniGame::ResultPenya_FiveSystem
PUBLIC	??1?$vector@U__ALPHABET@CMiniGame@@V?$allocator@U__ALPHABET@CMiniGame@@@std@@@std@@QAE@XZ ; std::vector<CMiniGame::__ALPHABET,std::allocator<CMiniGame::__ALPHABET> >::~vector<CMiniGame::__ALPHABET,std::allocator<CMiniGame::__ALPHABET> >
PUBLIC	?_Xlength@?$vector@U__ALPHABET@CMiniGame@@V?$allocator@U__ALPHABET@CMiniGame@@@std@@@std@@CAXXZ ; std::vector<CMiniGame::__ALPHABET,std::allocator<CMiniGame::__ALPHABET> >::_Xlength
PUBLIC	??1?$_Tree@V?$_Tmap_traits@HU__KAWIBAWIBO@CMiniGame@@U?$less@H@std@@V?$allocator@U?$pair@$$CBHU__KAWIBAWIBO@CMiniGame@@@std@@@4@$0A@@std@@@std@@QAE@XZ ; std::_Tree<std::_Tmap_traits<int,CMiniGame::__KAWIBAWIBO,std::less<int>,std::allocator<std::pair<int const ,CMiniGame::__KAWIBAWIBO> >,0> >::~_Tree<std::_Tmap_traits<int,CMiniGame::__KAWIBAWIBO,std::less<int>,std::allocator<std::pair<int const ,CMiniGame::__KAWIBAWIBO> >,0> >
PUBLIC	?_Insert_node@?$_Tree_val@U?$_Tree_simple_types@U?$pair@$$CBHU__KAWIBAWIBO@CMiniGame@@@std@@@std@@@std@@QAEPAU?$_Tree_node@U?$pair@$$CBHU__KAWIBAWIBO@CMiniGame@@@std@@PAX@2@U?$_Tree_id@PAU?$_Tree_node@U?$pair@$$CBHU__KAWIBAWIBO@CMiniGame@@@std@@PAX@std@@@2@QAU32@@Z ; std::_Tree_val<std::_Tree_simple_types<std::pair<int const ,CMiniGame::__KAWIBAWIBO> > >::_Insert_node
PUBLIC	??1?$map@HU__KAWIBAWIBO@CMiniGame@@U?$less@H@std@@V?$allocator@U?$pair@$$CBHU__KAWIBAWIBO@CMiniGame@@@std@@@4@@std@@QAE@XZ ; std::map<int,CMiniGame::__KAWIBAWIBO,std::less<int>,std::allocator<std::pair<int const ,CMiniGame::__KAWIBAWIBO> > >::~map<int,CMiniGame::__KAWIBAWIBO,std::less<int>,std::allocator<std::pair<int const ,CMiniGame::__KAWIBAWIBO> > >
PUBLIC	??1?$_Tree@V?$_Tmap_traits@HU__FIVESYSTEM@CMiniGame@@U?$less@H@std@@V?$allocator@U?$pair@$$CBHU__FIVESYSTEM@CMiniGame@@@std@@@4@$0A@@std@@@std@@QAE@XZ ; std::_Tree<std::_Tmap_traits<int,CMiniGame::__FIVESYSTEM,std::less<int>,std::allocator<std::pair<int const ,CMiniGame::__FIVESYSTEM> >,0> >::~_Tree<std::_Tmap_traits<int,CMiniGame::__FIVESYSTEM,std::less<int>,std::allocator<std::pair<int const ,CMiniGame::__FIVESYSTEM> >,0> >
PUBLIC	?_Insert_node@?$_Tree_val@U?$_Tree_simple_types@U?$pair@$$CBHU__FIVESYSTEM@CMiniGame@@@std@@@std@@@std@@QAEPAU?$_Tree_node@U?$pair@$$CBHU__FIVESYSTEM@CMiniGame@@@std@@PAX@2@U?$_Tree_id@PAU?$_Tree_node@U?$pair@$$CBHU__FIVESYSTEM@CMiniGame@@@std@@PAX@std@@@2@QAU32@@Z ; std::_Tree_val<std::_Tree_simple_types<std::pair<int const ,CMiniGame::__FIVESYSTEM> > >::_Insert_node
PUBLIC	??1?$map@HU__FIVESYSTEM@CMiniGame@@U?$less@H@std@@V?$allocator@U?$pair@$$CBHU__FIVESYSTEM@CMiniGame@@@std@@@4@@std@@QAE@XZ ; std::map<int,CMiniGame::__FIVESYSTEM,std::less<int>,std::allocator<std::pair<int const ,CMiniGame::__FIVESYSTEM> > >::~map<int,CMiniGame::__FIVESYSTEM,std::less<int>,std::allocator<std::pair<int const ,CMiniGame::__FIVESYSTEM> > >
PUBLIC	??1?$vector@KV?$allocator@K@std@@@std@@QAE@XZ	; std::vector<unsigned long,std::allocator<unsigned long> >::~vector<unsigned long,std::allocator<unsigned long> >
PUBLIC	?_Tidy@?$vector@KV?$allocator@K@std@@@std@@AAEXXZ ; std::vector<unsigned long,std::allocator<unsigned long> >::_Tidy
PUBLIC	?_Xlength@?$vector@KV?$allocator@K@std@@@std@@CAXXZ ; std::vector<unsigned long,std::allocator<unsigned long> >::_Xlength
PUBLIC	??1?$vector@U__KAWIBAWIBORESULT@CMiniGame@@V?$allocator@U__KAWIBAWIBORESULT@CMiniGame@@@std@@@std@@QAE@XZ ; std::vector<CMiniGame::__KAWIBAWIBORESULT,std::allocator<CMiniGame::__KAWIBAWIBORESULT> >::~vector<CMiniGame::__KAWIBAWIBORESULT,std::allocator<CMiniGame::__KAWIBAWIBORESULT> >
PUBLIC	?_Xlength@?$vector@U__KAWIBAWIBORESULT@CMiniGame@@V?$allocator@U__KAWIBAWIBORESULT@CMiniGame@@@std@@@std@@CAXXZ ; std::vector<CMiniGame::__KAWIBAWIBORESULT,std::allocator<CMiniGame::__KAWIBAWIBORESULT> >::_Xlength
PUBLIC	??_GCMiniGame@@UAEPAXI@Z			; CMiniGame::`scalar deleting destructor'
PUBLIC	??1?$_Tree@V?$_Tmap_traits@KHU?$less@K@std@@V?$allocator@U?$pair@$$CBKH@std@@@2@$0A@@std@@@std@@QAE@XZ ; std::_Tree<std::_Tmap_traits<unsigned long,int,std::less<unsigned long>,std::allocator<std::pair<unsigned long const ,int> >,0> >::~_Tree<std::_Tmap_traits<unsigned long,int,std::less<unsigned long>,std::allocator<std::pair<unsigned long const ,int> >,0> >
PUBLIC	?_Insert_node@?$_Tree_val@U?$_Tree_simple_types@U?$pair@$$CBKH@std@@@std@@@std@@QAEPAU?$_Tree_node@U?$pair@$$CBKH@std@@PAX@2@U?$_Tree_id@PAU?$_Tree_node@U?$pair@$$CBKH@std@@PAX@std@@@2@QAU32@@Z ; std::_Tree_val<std::_Tree_simple_types<std::pair<unsigned long const ,int> > >::_Insert_node
PUBLIC	??1?$map@KHU?$less@K@std@@V?$allocator@U?$pair@$$CBKH@std@@@2@@std@@QAE@XZ ; std::map<unsigned long,int,std::less<unsigned long>,std::allocator<std::pair<unsigned long const ,int> > >::~map<unsigned long,int,std::less<unsigned long>,std::allocator<std::pair<unsigned long const ,int> > >
PUBLIC	?GetText@CProject@@QAEPBDK@Z			; CProject::GetText
PUBLIC	?GetPropA@CItemElem@@QAEPAUItemProp@@XZ		; CItemElem::GetPropA
PUBLIC	?GetAtId@?$CItemContainer@VCItemElem@@@@QAEPAVCItemElem@@K@Z ; CItemContainer<CItemElem>::GetAtId
PUBLIC	?GetAtItemId@?$CItemContainer@VCItemElem@@@@QAEPAVCItemElem@@K@Z ; CItemContainer<CItemElem>::GetAtItemId
PUBLIC	??$_Erase_tree@V?$allocator@U?$_Tree_node@U?$pair@$$CBKH@std@@PAX@std@@@std@@@?$_Tree_val@U?$_Tree_simple_types@U?$pair@$$CBKH@std@@@std@@@std@@QAEXAAV?$allocator@U?$_Tree_node@U?$pair@$$CBKH@std@@PAX@std@@@1@PAU?$_Tree_node@U?$pair@$$CBKH@std@@PAX@1@@Z ; std::_Tree_val<std::_Tree_simple_types<std::pair<unsigned long const ,int> > >::_Erase_tree<std::allocator<std::_Tree_node<std::pair<unsigned long const ,int>,void *> > >
PUBLIC	??$_Allocate_manually_vector_aligned@U_Default_allocate_traits@std@@@std@@YAPAXI@Z ; std::_Allocate_manually_vector_aligned<std::_Default_allocate_traits>
PUBLIC	?_Insert_node@?$_Tree_val@U?$_Tree_simple_types@U?$pair@$$CBHV?$CStringT@DV?$StrTraitMFC@DV?$ChTraitsCRT@D@ATL@@@@@ATL@@@std@@@std@@@std@@QAEPAU?$_Tree_node@U?$pair@$$CBHV?$CStringT@DV?$StrTraitMFC@DV?$ChTraitsCRT@D@ATL@@@@@ATL@@@std@@PAX@2@U?$_Tree_id@PAU?$_Tree_node@U?$pair@$$CBHV?$CStringT@DV?$StrTraitMFC@DV?$ChTraitsCRT@D@ATL@@@@@ATL@@@std@@PAX@std@@@2@QAU32@@Z ; std::_Tree_val<std::_Tree_simple_types<std::pair<int const ,ATL::CStringT<char,StrTraitMFC<char,ATL::ChTraitsCRT<char> > > > > >::_Insert_node
PUBLIC	??1?$map@HV?$CStringT@DV?$StrTraitMFC@DV?$ChTraitsCRT@D@ATL@@@@@ATL@@U?$less@H@std@@V?$allocator@U?$pair@$$CBHV?$CStringT@DV?$StrTraitMFC@DV?$ChTraitsCRT@D@ATL@@@@@ATL@@@std@@@4@@std@@QAE@XZ ; std::map<int,ATL::CStringT<char,StrTraitMFC<char,ATL::ChTraitsCRT<char> > >,std::less<int>,std::allocator<std::pair<int const ,ATL::CStringT<char,StrTraitMFC<char,ATL::ChTraitsCRT<char> > > > > >::~map<int,ATL::CStringT<char,StrTraitMFC<char,ATL::ChTraitsCRT<char> > >,std::less<int>,std::allocator<std::pair<int const ,ATL::CStringT<char,StrTraitMFC<char,ATL::ChTraitsCRT<char> > > > > >
PUBLIC	??1?$pair@HV?$CStringT@DV?$StrTraitMFC@DV?$ChTraitsCRT@D@ATL@@@@@ATL@@@std@@QAE@XZ ; std::pair<int,ATL::CStringT<char,StrTraitMFC<char,ATL::ChTraitsCRT<char> > > >::~pair<int,ATL::CStringT<char,StrTraitMFC<char,ATL::ChTraitsCRT<char> > > >
PUBLIC	??$_Find_lower_bound@H@?$_Tree@V?$_Tmap_traits@HU__FIVESYSTEM@CMiniGame@@U?$less@H@std@@V?$allocator@U?$pair@$$CBHU__FIVESYSTEM@CMiniGame@@@std@@@4@$0A@@std@@@std@@IBE?AU?$_Tree_find_result@PAU?$_Tree_node@U?$pair@$$CBHU__FIVESYSTEM@CMiniGame@@@std@@PAX@std@@@1@ABH@Z ; std::_Tree<std::_Tmap_traits<int,CMiniGame::__FIVESYSTEM,std::less<int>,std::allocator<std::pair<int const ,CMiniGame::__FIVESYSTEM> >,0> >::_Find_lower_bound<int>
PUBLIC	??1?$_Alloc_construct_ptr@V?$allocator@U?$_Tree_node@U?$pair@$$CBHU__FIVESYSTEM@CMiniGame@@@std@@PAX@std@@@std@@@std@@QAE@XZ ; std::_Alloc_construct_ptr<std::allocator<std::_Tree_node<std::pair<int const ,CMiniGame::__FIVESYSTEM>,void *> > >::~_Alloc_construct_ptr<std::allocator<std::_Tree_node<std::pair<int const ,CMiniGame::__FIVESYSTEM>,void *> > >
PUBLIC	??$_Find_lower_bound@H@?$_Tree@V?$_Tmap_traits@HV?$CStringT@DV?$StrTraitMFC@DV?$ChTraitsCRT@D@ATL@@@@@ATL@@U?$less@H@std@@V?$allocator@U?$pair@$$CBHV?$CStringT@DV?$StrTraitMFC@DV?$ChTraitsCRT@D@ATL@@@@@ATL@@@std@@@4@$0A@@std@@@std@@IBE?AU?$_Tree_find_result@PAU?$_Tree_node@U?$pair@$$CBHV?$CStringT@DV?$StrTraitMFC@DV?$ChTraitsCRT@D@ATL@@@@@ATL@@@std@@PAX@std@@@1@ABH@Z ; std::_Tree<std::_Tmap_traits<int,ATL::CStringT<char,StrTraitMFC<char,ATL::ChTraitsCRT<char> > >,std::less<int>,std::allocator<std::pair<int const ,ATL::CStringT<char,StrTraitMFC<char,ATL::ChTraitsCRT<char> > > > >,0> >::_Find_lower_bound<int>
PUBLIC	??$_Erase_tree@V?$allocator@U?$_Tree_node@U?$pair@$$CBHV?$CStringT@DV?$StrTraitMFC@DV?$ChTraitsCRT@D@ATL@@@@@ATL@@@std@@PAX@std@@@std@@@?$_Tree_val@U?$_Tree_simple_types@U?$pair@$$CBHV?$CStringT@DV?$StrTraitMFC@DV?$ChTraitsCRT@D@ATL@@@@@ATL@@@std@@@std@@@std@@QAEXAAV?$allocator@U?$_Tree_node@U?$pair@$$CBHV?$CStringT@DV?$StrTraitMFC@DV?$ChTraitsCRT@D@ATL@@@@@ATL@@@std@@PAX@std@@@1@PAU?$_Tree_node@U?$pair@$$CBHV?$CStringT@DV?$StrTraitMFC@DV?$ChTraitsCRT@D@ATL@@@@@ATL@@@std@@PAX@1@@Z ; std::_Tree_val<std::_Tree_simple_types<std::pair<int const ,ATL::CStringT<char,StrTraitMFC<char,ATL::ChTraitsCRT<char> > > > > >::_Erase_tree<std::allocator<std::_Tree_node<std::pair<int const ,ATL::CStringT<char,StrTraitMFC<char,ATL::ChTraitsCRT<char> > > >,void *> > >
PUBLIC	??$_Find_lower_bound@K@?$_Tree@V?$_Tmap_traits@KHU?$less@K@std@@V?$allocator@U?$pair@$$CBKH@std@@@2@$0A@@std@@@std@@IBE?AU?$_Tree_find_result@PAU?$_Tree_node@U?$pair@$$CBKH@std@@PAX@std@@@1@ABK@Z ; std::_Tree<std::_Tmap_traits<unsigned long,int,std::less<unsigned long>,std::allocator<std::pair<unsigned long const ,int> >,0> >::_Find_lower_bound<unsigned long>
PUBLIC	??$_Emplace_reallocate@ABU__KAWIBAWIBORESULT@CMiniGame@@@?$vector@U__KAWIBAWIBORESULT@CMiniGame@@V?$allocator@U__KAWIBAWIBORESULT@CMiniGame@@@std@@@std@@AAEPAU__KAWIBAWIBORESULT@CMiniGame@@QAU23@ABU23@@Z ; std::vector<CMiniGame::__KAWIBAWIBORESULT,std::allocator<CMiniGame::__KAWIBAWIBORESULT> >::_Emplace_reallocate<CMiniGame::__KAWIBAWIBORESULT const &>
PUBLIC	??$_Emplace_reallocate@ABK@?$vector@KV?$allocator@K@std@@@std@@AAEPAKQAKABK@Z ; std::vector<unsigned long,std::allocator<unsigned long> >::_Emplace_reallocate<unsigned long const &>
PUBLIC	??$_Erase_tree@V?$allocator@U?$_Tree_node@U?$pair@$$CBHU__FIVESYSTEM@CMiniGame@@@std@@PAX@std@@@std@@@?$_Tree_val@U?$_Tree_simple_types@U?$pair@$$CBHU__FIVESYSTEM@CMiniGame@@@std@@@std@@@std@@QAEXAAV?$allocator@U?$_Tree_node@U?$pair@$$CBHU__FIVESYSTEM@CMiniGame@@@std@@PAX@std@@@1@PAU?$_Tree_node@U?$pair@$$CBHU__FIVESYSTEM@CMiniGame@@@std@@PAX@1@@Z ; std::_Tree_val<std::_Tree_simple_types<std::pair<int const ,CMiniGame::__FIVESYSTEM> > >::_Erase_tree<std::allocator<std::_Tree_node<std::pair<int const ,CMiniGame::__FIVESYSTEM>,void *> > >
PUBLIC	??$_Find_lower_bound@H@?$_Tree@V?$_Tmap_traits@HU__KAWIBAWIBO@CMiniGame@@U?$less@H@std@@V?$allocator@U?$pair@$$CBHU__KAWIBAWIBO@CMiniGame@@@std@@@4@$0A@@std@@@std@@IBE?AU?$_Tree_find_result@PAU?$_Tree_node@U?$pair@$$CBHU__KAWIBAWIBO@CMiniGame@@@std@@PAX@std@@@1@ABH@Z ; std::_Tree<std::_Tmap_traits<int,CMiniGame::__KAWIBAWIBO,std::less<int>,std::allocator<std::pair<int const ,CMiniGame::__KAWIBAWIBO> >,0> >::_Find_lower_bound<int>
PUBLIC	??$_Erase_tree@V?$allocator@U?$_Tree_node@U?$pair@$$CBHU__KAWIBAWIBO@CMiniGame@@@std@@PAX@std@@@std@@@?$_Tree_val@U?$_Tree_simple_types@U?$pair@$$CBHU__KAWIBAWIBO@CMiniGame@@@std@@@std@@@std@@QAEXAAV?$allocator@U?$_Tree_node@U?$pair@$$CBHU__KAWIBAWIBO@CMiniGame@@@std@@PAX@std@@@1@PAU?$_Tree_node@U?$pair@$$CBHU__KAWIBAWIBO@CMiniGame@@@std@@PAX@1@@Z ; std::_Tree_val<std::_Tree_simple_types<std::pair<int const ,CMiniGame::__KAWIBAWIBO> > >::_Erase_tree<std::allocator<std::_Tree_node<std::pair<int const ,CMiniGame::__KAWIBAWIBO>,void *> > >
PUBLIC	??$_Emplace_reallocate@ABU__ALPHABET@CMiniGame@@@?$vector@U__ALPHABET@CMiniGame@@V?$allocator@U__ALPHABET@CMiniGame@@@std@@@std@@AAEPAU__ALPHABET@CMiniGame@@QAU23@ABU23@@Z ; std::vector<CMiniGame::__ALPHABET,std::allocator<CMiniGame::__ALPHABET> >::_Emplace_reallocate<CMiniGame::__ALPHABET const &>
PUBLIC	??$_Copy_memmove_n@PAU__ITEMGAME@CMiniGame@@PAU12@@std@@YAPAU__ITEMGAME@CMiniGame@@PAU12@I0@Z ; std::_Copy_memmove_n<CMiniGame::__ITEMGAME *,CMiniGame::__ITEMGAME *>
PUBLIC	??$_Emplace_reallocate@ABU__ITEMGAME@CMiniGame@@@?$vector@U__ITEMGAME@CMiniGame@@V?$allocator@U__ITEMGAME@CMiniGame@@@std@@@std@@AAEPAU__ITEMGAME@CMiniGame@@QAU23@ABU23@@Z ; std::vector<CMiniGame::__ITEMGAME,std::allocator<CMiniGame::__ITEMGAME> >::_Emplace_reallocate<CMiniGame::__ITEMGAME const &>
PUBLIC	??$_Destroy_range@V?$allocator@U__ALPHABET@CMiniGame@@@std@@@std@@YAXPAU__ALPHABET@CMiniGame@@QAU12@AAV?$allocator@U__ALPHABET@CMiniGame@@@0@@Z ; std::_Destroy_range<std::allocator<CMiniGame::__ALPHABET> >
PUBLIC	??1?$_Alloc_construct_ptr@V?$allocator@U?$_Tree_node@U?$pair@$$CBKH@std@@PAX@std@@@std@@@std@@QAE@XZ ; std::_Alloc_construct_ptr<std::allocator<std::_Tree_node<std::pair<unsigned long const ,int>,void *> > >::~_Alloc_construct_ptr<std::allocator<std::_Tree_node<std::pair<unsigned long const ,int>,void *> > >
PUBLIC	??1?$_Alloc_construct_ptr@V?$allocator@U?$_Tree_node@U?$pair@$$CBHV?$CStringT@DV?$StrTraitMFC@DV?$ChTraitsCRT@D@ATL@@@@@ATL@@@std@@PAX@std@@@std@@@std@@QAE@XZ ; std::_Alloc_construct_ptr<std::allocator<std::_Tree_node<std::pair<int const ,ATL::CStringT<char,StrTraitMFC<char,ATL::ChTraitsCRT<char> > > >,void *> > >::~_Alloc_construct_ptr<std::allocator<std::_Tree_node<std::pair<int const ,ATL::CStringT<char,StrTraitMFC<char,ATL::ChTraitsCRT<char> > > >,void *> > >
PUBLIC	??1?$_Tree_temp_node_alloc@V?$allocator@U?$_Tree_node@U?$pair@$$CBHV?$CStringT@DV?$StrTraitMFC@DV?$ChTraitsCRT@D@ATL@@@@@ATL@@@std@@PAX@std@@@std@@@std@@QAE@XZ ; std::_Tree_temp_node_alloc<std::allocator<std::_Tree_node<std::pair<int const ,ATL::CStringT<char,StrTraitMFC<char,ATL::ChTraitsCRT<char> > > >,void *> > >::~_Tree_temp_node_alloc<std::allocator<std::_Tree_node<std::pair<int const ,ATL::CStringT<char,StrTraitMFC<char,ATL::ChTraitsCRT<char> > > >,void *> > >
PUBLIC	??1?$_Alloc_construct_ptr@V?$allocator@U?$_Tree_node@U?$pair@$$CBHU__KAWIBAWIBO@CMiniGame@@@std@@PAX@std@@@std@@@std@@QAE@XZ ; std::_Alloc_construct_ptr<std::allocator<std::_Tree_node<std::pair<int const ,CMiniGame::__KAWIBAWIBO>,void *> > >::~_Alloc_construct_ptr<std::allocator<std::_Tree_node<std::pair<int const ,CMiniGame::__KAWIBAWIBO>,void *> > >
PUBLIC	??$_Copy_memmove@PAKPAK@std@@YAPAKPAK00@Z	; std::_Copy_memmove<unsigned long *,unsigned long *>
PUBLIC	??1_Reallocation_guard@?$vector@U__ALPHABET@CMiniGame@@V?$allocator@U__ALPHABET@CMiniGame@@@std@@@std@@QAE@XZ ; std::vector<CMiniGame::__ALPHABET,std::allocator<CMiniGame::__ALPHABET> >::_Reallocation_guard::~_Reallocation_guard
PUBLIC	??$_Uninitialized_move@PAU__ALPHABET@CMiniGame@@V?$allocator@U__ALPHABET@CMiniGame@@@std@@@std@@YAPAU__ALPHABET@CMiniGame@@QAU12@0PAU12@AAV?$allocator@U__ALPHABET@CMiniGame@@@0@@Z ; std::_Uninitialized_move<CMiniGame::__ALPHABET *,std::allocator<CMiniGame::__ALPHABET> >
PUBLIC	??$_Copy_memmove_tail@PAU__ITEMGAME@CMiniGame@@@std@@YAPAU__ITEMGAME@CMiniGame@@QBDQAU12@II@Z ; std::_Copy_memmove_tail<CMiniGame::__ITEMGAME *>
PUBLIC	??$_Copy_memmove@PAU__ITEMGAME@CMiniGame@@PAU12@@std@@YAPAU__ITEMGAME@CMiniGame@@PAU12@00@Z ; std::_Copy_memmove<CMiniGame::__ITEMGAME *,CMiniGame::__ITEMGAME *>
PUBLIC	??$_Copy_memmove@PAU__KAWIBAWIBORESULT@CMiniGame@@PAU12@@std@@YAPAU__KAWIBAWIBORESULT@CMiniGame@@PAU12@00@Z ; std::_Copy_memmove<CMiniGame::__KAWIBAWIBORESULT *,CMiniGame::__KAWIBAWIBORESULT *>
PUBLIC	??$_Copy_memmove_tail@PAK@std@@YAPAKQBDQAKII@Z	; std::_Copy_memmove_tail<unsigned long *>
PUBLIC	??1?$_Uninitialized_backout_al@V?$allocator@U__ALPHABET@CMiniGame@@@std@@@std@@QAE@XZ ; std::_Uninitialized_backout_al<std::allocator<CMiniGame::__ALPHABET> >::~_Uninitialized_backout_al<std::allocator<CMiniGame::__ALPHABET> >
PUBLIC	??$_Copy_memmove_tail@PAU__KAWIBAWIBORESULT@CMiniGame@@@std@@YAPAU__KAWIBAWIBORESULT@CMiniGame@@QBDQAU12@II@Z ; std::_Copy_memmove_tail<CMiniGame::__KAWIBAWIBORESULT *>
PUBLIC	?_OptionsStorage@?1??__local_stdio_printf_options@@9@4_KA ; `__local_stdio_printf_options'::`2'::_OptionsStorage
PUBLIC	??_C@_02DPKJAMEF@?$CFd@				; `string'
PUBLIC	??_C@_00CNPNBAHC@@				; `string'
PUBLIC	??_7exception@std@@6B@				; std::exception::`vftable'
PUBLIC	??_C@_0BC@EOODALEL@Unknown?5exception@		; `string'
PUBLIC	??_7bad_alloc@std@@6B@				; std::bad_alloc::`vftable'
PUBLIC	??_7bad_array_new_length@std@@6B@		; std::bad_array_new_length::`vftable'
PUBLIC	??_C@_0BF@KINCDENJ@bad?5array?5new?5length@	; `string'
PUBLIC	??_R0?AVexception@std@@@8			; std::exception `RTTI Type Descriptor'
PUBLIC	__CT??_R0?AVexception@std@@@8??0exception@std@@QAE@ABV01@@Z12
PUBLIC	__TI3?AVbad_array_new_length@std@@
PUBLIC	__CTA3?AVbad_array_new_length@std@@
PUBLIC	??_R0?AVbad_array_new_length@std@@@8		; std::bad_array_new_length `RTTI Type Descriptor'
PUBLIC	__CT??_R0?AVbad_array_new_length@std@@@8??0bad_array_new_length@std@@QAE@ABV01@@Z12
PUBLIC	??_R0?AVbad_alloc@std@@@8			; std::bad_alloc `RTTI Type Descriptor'
PUBLIC	__CT??_R0?AVbad_alloc@std@@@8??0bad_alloc@std@@QAE@ABV01@@Z12
PUBLIC	??_C@_0BB@GCADKGJO@map?1set?5too?5long@		; `string'
PUBLIC	??_7CMiniGame@@6B@				; CMiniGame::`vftable'
PUBLIC	??_C@_0BM@HMFGHCP@?$CFs?5min?3?$CFd?0?5max?3?$CFd?0?5index?3?$CFd@ ; `string'
PUBLIC	??_C@_0BI@BEIFNGEL@GetItemProp?5range_error@	; `string'
PUBLIC	??_C@_0BE@OHDBLHOM@GetText?5range_error@	; `string'
PUBLIC	??_C@_05KKCIMGE@error@				; `string'
PUBLIC	??_C@_0BA@FOIKENOD@vector?5too?5long@		; `string'
PUBLIC	??_R4exception@std@@6B@				; std::exception::`RTTI Complete Object Locator'
PUBLIC	??_R3exception@std@@8				; std::exception::`RTTI Class Hierarchy Descriptor'
PUBLIC	??_R2exception@std@@8				; std::exception::`RTTI Base Class Array'
PUBLIC	??_R1A@?0A@EA@exception@std@@8			; std::exception::`RTTI Base Class Descriptor at (0,-1,0,64)'
PUBLIC	??_R4bad_array_new_length@std@@6B@		; std::bad_array_new_length::`RTTI Complete Object Locator'
PUBLIC	??_R3bad_array_new_length@std@@8		; std::bad_array_new_length::`RTTI Class Hierarchy Descriptor'
PUBLIC	??_R2bad_array_new_length@std@@8		; std::bad_array_new_length::`RTTI Base Class Array'
PUBLIC	??_R1A@?0A@EA@bad_array_new_length@std@@8	; std::bad_array_new_length::`RTTI Base Class Descriptor at (0,-1,0,64)'
PUBLIC	??_R1A@?0A@EA@bad_alloc@std@@8			; std::bad_alloc::`RTTI Base Class Descriptor at (0,-1,0,64)'
PUBLIC	??_R3bad_alloc@std@@8				; std::bad_alloc::`RTTI Class Hierarchy Descriptor'
PUBLIC	??_R2bad_alloc@std@@8				; std::bad_alloc::`RTTI Base Class Array'
PUBLIC	??_R4bad_alloc@std@@6B@				; std::bad_alloc::`RTTI Complete Object Locator'
PUBLIC	??_C@_01MIFGBAGJ@?$CL@				; `string'
PUBLIC	??_C@_0BE@HNMAKIIG@KAWIBAWIBO_USE_ITEM@		; `string'
PUBLIC	??_C@_0BA@EECCHLPD@KAWIBAWIBO_LOST@		; `string'
PUBLIC	??_C@_0BA@OCKOJLKN@KAWIBAWIBO_DRAW@		; `string'
PUBLIC	??_C@_0P@DGKJNFLB@KAWIBAWIBO_WIN@		; `string'
PUBLIC	??_C@_0BB@HAKADBLP@KAWIBAWIBO_PRIZE@		; `string'
PUBLIC	??_C@_0BG@JKNGBBKM@KAWIBAWIBO_PRIZE_POST@	; `string'
PUBLIC	??_C@_0P@EECHKOAF@REASSEMBLE_USE@		; `string'
PUBLIC	??_C@_0BB@IHEHCJBA@REASSEMBLE_PRIZE@		; `string'
PUBLIC	??_C@_0BG@KFMNHME@REASSEMBLE_PRIZE_POST@	; `string'
PUBLIC	??_C@_0BB@HLIKLMLJ@ItemNum?5?9?5?$CFd?0?5?$CFd@	; `string'
PUBLIC	??_C@_0BA@OAAODEPM@ALPHABET_USE_?$CFs@		; `string'
PUBLIC	??_C@_0O@LAKHECLG@ALPABET_PRIZE@		; `string'
PUBLIC	??_C@_04OEDFLLKD@?$CC?$CFs?$CC@			; `string'
PUBLIC	??_C@_0BD@CAPJLNGE@ALPABET_PRIZE_POST@		; `string'
PUBLIC	??_C@_0BH@IADBFAIN@FIVESYSTEM_CANCEL_POST@	; `string'
PUBLIC	??_C@_0BC@KPGKNKH@FIVESYSTEM_CANCEL@		; `string'
PUBLIC	??_C@_0P@BABCCKAN@FIVESYSTEM_USE@		; `string'
PUBLIC	??_C@_0BE@NEOONLJP@FIVESYSTEM_USE_POST@		; `string'
PUBLIC	??_C@_0BB@KFELLABE@FIVESYSTEM_PRIZE@		; `string'
PUBLIC	??_C@_0BG@JBDMGAGO@FIVESYSTEM_PRIZE_POST@	; `string'
PUBLIC	??_C@_0BK@MHCFMFAB@MiniGame_Alphabet?4txt?4txt@	; `string'
PUBLIC	??_C@_0BG@MAAKANAG@MiniGame_Alphabet?4txt@	; `string'
PUBLIC	??_C@_05CDGEMFOH@PENYA@				; `string'
PUBLIC	??_C@_04ILLECDIN@WORD@				; `string'
PUBLIC	??_C@_0BM@KCPBBLAB@?A?$LI?$MA?g?G?O?A?v?5?$LO?J?$LE?B?5?$LJ?$KO?A?$KG?5ID?5?9?$DO?5?$CFs@ ; `string'
PUBLIC	??_C@_0DG@EJJOBLJD@CMiniGame?3?3Load_Alphabet?$CI?$CJ?5?$LO?F?$MA?L@ ; `string'
PUBLIC	??_C@_0BI@MOMCLCL@MiniGame_KawiBawiBo?4txt@	; `string'
PUBLIC	??_C@_08JBKDMAJL@SENDITEM@			; `string'
PUBLIC	??_C@_0DI@EBFDDJPH@CMiniGame?3?3Load_KawiBawiBo?$CI?$CJ?5?$LO?F@ ; `string'
PUBLIC	??_C@_0BI@LNKGNKON@MiniGame_FiveSystem?4txt@	; `string'
PUBLIC	??_C@_08HJJEEDFI@MINPENYA@			; `string'
PUBLIC	??_C@_08KOHPPBBJ@MAXPENYA@			; `string'
PUBLIC	??_C@_07IPMEJCHO@PERCENT@			; `string'
PUBLIC	??_C@_08FFDJFNDB@MULTIPLE@			; `string'
PUBLIC	??_C@_0BI@GPAPNBDC@MiniGame_Reassemble?4txt@	; `string'
PUBLIC	??_C@_04POALGFPM@CARD@				; `string'
PUBLIC	??_C@_0DP@JBDCAANF@CMiniGame?3?3Load_Reassemble?$CI?$CJ?5?$CCC@ ; `string'
PUBLIC	??_C@_04BLNHNEEM@ITEM@				; `string'
PUBLIC	??_C@_0DP@MPOEDLKN@CMiniGame?3?3Load_Reassemble?$CI?$CJ?5?$CCI@ ; `string'
PUBLIC	??_R4CMiniGame@@6B@				; CMiniGame::`RTTI Complete Object Locator'
PUBLIC	??_R0?AVCMiniGame@@@8				; CMiniGame `RTTI Type Descriptor'
PUBLIC	??_R3CMiniGame@@8				; CMiniGame::`RTTI Class Hierarchy Descriptor'
PUBLIC	??_R2CMiniGame@@8				; CMiniGame::`RTTI Base Class Array'
PUBLIC	??_R1A@?0A@EA@CMiniGame@@8			; CMiniGame::`RTTI Base Class Descriptor at (0,-1,0,64)'
PUBLIC	__xmm@00000000000000000000006400000064
EXTRN	??2@YAPAXI@Z:PROC				; operator new
EXTRN	??3@YAXPAXI@Z:PROC				; operator delete
EXTRN	__invalid_parameter_noinfo:PROC
EXTRN	__invoke_watson:PROC
EXTRN	__errno:PROC
EXTRN	__imp__LoadResource@8:PROC
EXTRN	__imp__LockResource@4:PROC
EXTRN	__imp__SizeofResource@8:PROC
EXTRN	__imp__FindResourceW@12:PROC
EXTRN	__imp__WideCharToMultiByte@32:PROC
EXTRN	__mbscmp:PROC
EXTRN	__mbsupr_s:PROC
EXTRN	___stdio_common_vsprintf:PROC
EXTRN	_atoi:PROC
EXTRN	?AfxThrowMemoryException@@YGXXZ:PROC		; AfxThrowMemoryException
EXTRN	?AfxThrowInvalidArgException@@YGXXZ:PROC	; AfxThrowInvalidArgException
EXTRN	?AfxThrowOleException@@YGXJ@Z:PROC		; AfxThrowOleException
EXTRN	?AfxFindStringResourceHandle@@YGPAUHINSTANCE__@@I@Z:PROC ; AfxFindStringResourceHandle
EXTRN	?AfxGetStringManager@@YGPAUIAtlStringMgr@ATL@@XZ:PROC ; AfxGetStringManager
EXTRN	___std_exception_copy:PROC
EXTRN	___std_exception_destroy:PROC
EXTRN	??_Eexception@std@@UAEPAXI@Z:PROC		; std::exception::`vector deleting destructor'
EXTRN	??_Ebad_alloc@std@@UAEPAXI@Z:PROC		; std::bad_alloc::`vector deleting destructor'
EXTRN	??_Ebad_array_new_length@std@@UAEPAXI@Z:PROC	; std::bad_array_new_length::`vector deleting destructor'
EXTRN	?_Xlength_error@std@@YAXPBD@Z:PROC		; std::_Xlength_error
EXTRN	??0CScanner@@QAE@H@Z:PROC			; CScanner::CScanner
EXTRN	??1CScanner@@UAE@XZ:PROC			; CScanner::~CScanner
EXTRN	?GetToken@CScanner@@UAEHH@Z:PROC		; CScanner::GetToken
EXTRN	?GetLastFull@CScanner@@QAEXXZ:PROC		; CScanner::GetLastFull
EXTRN	?Free@CScanner@@QAEXXZ:PROC			; CScanner::Free
EXTRN	?Load@CScanner@@QAEHPBDH@Z:PROC			; CScanner::Load
EXTRN	?GetNumber@CScanner@@QAEHH@Z:PROC		; CScanner::GetNumber
EXTRN	?GetDefineNum@CScript@@SAHPBD@Z:PROC		; CScript::GetDefineNum
EXTRN	?Error@@YAPBDPBDZZ:PROC				; Error
EXTRN	??_ECMiniGame@@UAEPAXI@Z:PROC			; CMiniGame::`vector deleting destructor'
EXTRN	?SetSerialNumber@CItemBase@@QAEXXZ:PROC		; CItemBase::SetSerialNumber
EXTRN	??0CItemElem@@QAE@XZ:PROC			; CItemElem::CItemElem
EXTRN	??1CItemElem@@UAE@XZ:PROC			; CItemElem::~CItemElem
EXTRN	?IsUsableItem@@YAHPAVCItemBase@@@Z:PROC		; IsUsableItem
EXTRN	?GetName@CMover@@QAEPBDH@Z:PROC			; CMover::GetName
EXTRN	?AddGold@CMover@@QAEHHH@Z:PROC			; CMover::AddGold
EXTRN	?CreateItem@CMover@@QAEHPAVCItemBase@@PAEPAFE@Z:PROC ; CMover::CreateItem
EXTRN	?RemoveItem@CMover@@QAEXEF@Z:PROC		; CMover::RemoveItem
EXTRN	?AddDefinedText@CUser@@QAAXHPBDZZ:PROC		; CUser::AddDefinedText
EXTRN	?AddKawibawiboResult@CUser@@QAEXHHKHKH@Z:PROC	; CUser::AddKawibawiboResult
EXTRN	?AddReassembleResult@CUser@@QAEXKH@Z:PROC	; CUser::AddReassembleResult
EXTRN	?AddReassembleOpenWnd@CUser@@QAEXV?$vector@KV?$allocator@K@std@@@std@@@Z:PROC ; CUser::AddReassembleOpenWnd
EXTRN	?AddAlphabetOpenWnd@CUser@@QAEXHHDV?$CStringT@DV?$StrTraitMFC@DV?$ChTraitsCRT@D@ATL@@@@@ATL@@@Z:PROC ; CUser::AddAlphabetOpenWnd
EXTRN	?AddAlphabetResult@CUser@@QAEXHKH@Z:PROC	; CUser::AddAlphabetResult
EXTRN	?AddFiveSystemOpenWnd@CUser@@QAEXHHH@Z:PROC	; CUser::AddFiveSystemOpenWnd
EXTRN	?AddFiveSystemResult@CUser@@QAEXHHH@Z:PROC	; CUser::AddFiveSystemResult
EXTRN	?OnLogItem@CDPSrvr@@QAEXAAU_LogItemInfo@@PAVCItemElem@@H@Z:PROC ; CDPSrvr::OnLogItem
EXTRN	?SendQueryPostMail@CDPDatabaseClient@@QAEXKKAAVCItemElem@@HPAD1@Z:PROC ; CDPDatabaseClient::SendQueryPostMail
EXTRN	@__security_check_cookie@4:PROC
EXTRN	__CxxThrowException@8:PROC
EXTRN	___CxxFrameHandler3:PROC
EXTRN	_memcpy:PROC
EXTRN	_memmove:PROC
EXTRN	_memset:PROC
EXTRN	??_7type_info@@6B@:QWORD			; type_info::`vftable'
EXTRN	?g_next@@3KA:DWORD				; g_next
EXTRN	?prj@@3VCProject@@A:BYTE			; prj
EXTRN	?g_DPSrvr@@3VCDPSrvr@@A:BYTE			; g_DPSrvr
EXTRN	?g_dpDBClient@@3VCDPDatabaseClient@@A:BYTE	; g_dpDBClient
EXTRN	___security_cookie:DWORD
;	COMDAT ?_OptionsStorage@?1??__local_stdio_printf_options@@9@4_KA
_BSS	SEGMENT
?_OptionsStorage@?1??__local_stdio_printf_options@@9@4_KA DQ 01H DUP (?) ; `__local_stdio_printf_options'::`2'::_OptionsStorage
_BSS	ENDS
;	COMDAT __xmm@00000000000000000000006400000064
CONST	SEGMENT
__xmm@00000000000000000000006400000064 DB 'd', 00H, 00H, 00H, 'd', 00H, 00H
	DB	00H, 00H, 00H, 00H, 00H, 00H, 00H, 00H, 00H
CONST	ENDS
;	COMDAT ??_R1A@?0A@EA@CMiniGame@@8
rdata$r	SEGMENT
??_R1A@?0A@EA@CMiniGame@@8 DD FLAT:??_R0?AVCMiniGame@@@8 ; CMiniGame::`RTTI Base Class Descriptor at (0,-1,0,64)'
	DD	00H
	DD	00H
	DD	0ffffffffH
	DD	00H
	DD	040H
	DD	FLAT:??_R3CMiniGame@@8
rdata$r	ENDS
;	COMDAT ??_R2CMiniGame@@8
rdata$r	SEGMENT
??_R2CMiniGame@@8 DD FLAT:??_R1A@?0A@EA@CMiniGame@@8	; CMiniGame::`RTTI Base Class Array'
rdata$r	ENDS
;	COMDAT ??_R3CMiniGame@@8
rdata$r	SEGMENT
??_R3CMiniGame@@8 DD 00H				; CMiniGame::`RTTI Class Hierarchy Descriptor'
	DD	00H
	DD	01H
	DD	FLAT:??_R2CMiniGame@@8
rdata$r	ENDS
;	COMDAT ??_R0?AVCMiniGame@@@8
data$rs	SEGMENT
??_R0?AVCMiniGame@@@8 DD FLAT:??_7type_info@@6B@	; CMiniGame `RTTI Type Descriptor'
	DD	00H
	DB	'.?AVCMiniGame@@', 00H
data$rs	ENDS
;	COMDAT ??_R4CMiniGame@@6B@
rdata$r	SEGMENT
??_R4CMiniGame@@6B@ DD 00H				; CMiniGame::`RTTI Complete Object Locator'
	DD	00H
	DD	00H
	DD	FLAT:??_R0?AVCMiniGame@@@8
	DD	FLAT:??_R3CMiniGame@@8
rdata$r	ENDS
;	COMDAT ??_C@_0DP@MPOEDLKN@CMiniGame?3?3Load_Reassemble?$CI?$CJ?5?$CCI@
CONST	SEGMENT
??_C@_0DP@MPOEDLKN@CMiniGame?3?3Load_Reassemble?$CI?$CJ?5?$CCI@ DB 'CMini'
	DB	'Game::Load_Reassemble() "ITEM" ', 0beH, 0c6H, 0c0H, 0ccH, 0c5H
	DB	0dbH, 0c0H, 0ccH, ' ', 0beH, 0f8H, 0b4H, 0c2H, 0b0H, 0cdH, 0c0H
	DB	0bbH, ' ', 0bcH, 0b3H, 0c1H, 0a4H, 0c7H, 0dfH, 0c0H, 0bdH, 00H ; `string'
CONST	ENDS
;	COMDAT ??_C@_04BLNHNEEM@ITEM@
CONST	SEGMENT
??_C@_04BLNHNEEM@ITEM@ DB 'ITEM', 00H			; `string'
CONST	ENDS
;	COMDAT ??_C@_0DP@JBDCAANF@CMiniGame?3?3Load_Reassemble?$CI?$CJ?5?$CCC@
CONST	SEGMENT
??_C@_0DP@JBDCAANF@CMiniGame?3?3Load_Reassemble?$CI?$CJ?5?$CCC@ DB 'CMini'
	DB	'Game::Load_Reassemble() "CARD" ', 0beH, 0c6H, 0c0H, 0ccH, 0c5H
	DB	0dbH, 0c0H, 0ccH, ' ', 0beH, 0f8H, 0b4H, 0c2H, 0b0H, 0cdH, 0c0H
	DB	0bbH, ' ', 0bcH, 0b3H, 0c1H, 0a4H, 0c7H, 0dfH, 0c0H, 0bdH, 00H ; `string'
CONST	ENDS
;	COMDAT ??_C@_04POALGFPM@CARD@
CONST	SEGMENT
??_C@_04POALGFPM@CARD@ DB 'CARD', 00H			; `string'
CONST	ENDS
;	COMDAT ??_C@_0BI@GPAPNBDC@MiniGame_Reassemble?4txt@
CONST	SEGMENT
??_C@_0BI@GPAPNBDC@MiniGame_Reassemble?4txt@ DB 'MiniGame_Reassemble.txt', 00H ; `string'
CONST	ENDS
;	COMDAT ??_C@_08FFDJFNDB@MULTIPLE@
CONST	SEGMENT
??_C@_08FFDJFNDB@MULTIPLE@ DB 'MULTIPLE', 00H		; `string'
CONST	ENDS
;	COMDAT ??_C@_07IPMEJCHO@PERCENT@
CONST	SEGMENT
??_C@_07IPMEJCHO@PERCENT@ DB 'PERCENT', 00H		; `string'
CONST	ENDS
;	COMDAT ??_C@_08KOHPPBBJ@MAXPENYA@
CONST	SEGMENT
??_C@_08KOHPPBBJ@MAXPENYA@ DB 'MAXPENYA', 00H		; `string'
CONST	ENDS
;	COMDAT ??_C@_08HJJEEDFI@MINPENYA@
CONST	SEGMENT
??_C@_08HJJEEDFI@MINPENYA@ DB 'MINPENYA', 00H		; `string'
CONST	ENDS
;	COMDAT ??_C@_0BI@LNKGNKON@MiniGame_FiveSystem?4txt@
CONST	SEGMENT
??_C@_0BI@LNKGNKON@MiniGame_FiveSystem?4txt@ DB 'MiniGame_FiveSystem.txt', 00H ; `string'
CONST	ENDS
;	COMDAT ??_C@_0DI@EBFDDJPH@CMiniGame?3?3Load_KawiBawiBo?$CI?$CJ?5?$LO?F@
CONST	SEGMENT
??_C@_0DI@EBFDDJPH@CMiniGame?3?3Load_KawiBawiBo?$CI?$CJ?5?$LO?F@ DB 'CMin'
	DB	'iGame::Load_KawiBawiBo() ', 0beH, 0c6H, 0c0H, 0ccH, 0c5H, 0dbH
	DB	0c0H, 0ccH, ' ', 0beH, 0f8H, 0b4H, 0c2H, 0b0H, 0cdH, 0c0H, 0bbH
	DB	' ', 0bcH, 0b3H, 0c1H, 0a4H, 0c7H, 0dfH, 0c0H, 0bdH, 00H ; `string'
CONST	ENDS
;	COMDAT ??_C@_08JBKDMAJL@SENDITEM@
CONST	SEGMENT
??_C@_08JBKDMAJL@SENDITEM@ DB 'SENDITEM', 00H		; `string'
CONST	ENDS
;	COMDAT ??_C@_0BI@MOMCLCL@MiniGame_KawiBawiBo?4txt@
CONST	SEGMENT
??_C@_0BI@MOMCLCL@MiniGame_KawiBawiBo?4txt@ DB 'MiniGame_KawiBawiBo.txt', 00H ; `string'
CONST	ENDS
;	COMDAT ??_C@_0DG@EJJOBLJD@CMiniGame?3?3Load_Alphabet?$CI?$CJ?5?$LO?F?$MA?L@
CONST	SEGMENT
??_C@_0DG@EJJOBLJD@CMiniGame?3?3Load_Alphabet?$CI?$CJ?5?$LO?F?$MA?L@ DB 'C'
	DB	'MiniGame::Load_Alphabet() ', 0beH, 0c6H, 0c0H, 0ccH, 0c5H, 0dbH
	DB	0c0H, 0ccH, ' ', 0beH, 0f8H, 0b4H, 0c2H, 0b0H, 0cdH, 0c0H, 0bbH
	DB	' ', 0bcH, 0b3H, 0c1H, 0a4H, 0c7H, 0dfH, 0c0H, 0bdH, 00H ; `string'
CONST	ENDS
;	COMDAT ??_C@_0BM@KCPBBLAB@?A?$LI?$MA?g?G?O?A?v?5?$LO?J?$LE?B?5?$LJ?$KO?A?$KG?5ID?5?9?$DO?5?$CFs@
CONST	SEGMENT
??_C@_0BM@KCPBBLAB@?A?$LI?$MA?g?G?O?A?v?5?$LO?J?$LE?B?5?$LJ?$KO?A?$KG?5ID?5?9?$DO?5?$CFs@ DB 0c1H
	DB	0b8H, 0c0H, 0e7H, 0c7H, 0cfH, 0c1H, 0f6H, ' ', 0beH, 0caH, 0b4H
	DB	0c2H, ' ', 0b9H, 0aeH, 0c1H, 0a6H, ' ID -> %s', 00H ; `string'
CONST	ENDS
;	COMDAT ??_C@_04ILLECDIN@WORD@
CONST	SEGMENT
??_C@_04ILLECDIN@WORD@ DB 'WORD', 00H			; `string'
CONST	ENDS
;	COMDAT ??_C@_05CDGEMFOH@PENYA@
CONST	SEGMENT
??_C@_05CDGEMFOH@PENYA@ DB 'PENYA', 00H			; `string'
CONST	ENDS
;	COMDAT ??_C@_0BG@MAAKANAG@MiniGame_Alphabet?4txt@
CONST	SEGMENT
??_C@_0BG@MAAKANAG@MiniGame_Alphabet?4txt@ DB 'MiniGame_Alphabet.txt', 00H ; `string'
CONST	ENDS
;	COMDAT ??_C@_0BK@MHCFMFAB@MiniGame_Alphabet?4txt?4txt@
CONST	SEGMENT
??_C@_0BK@MHCFMFAB@MiniGame_Alphabet?4txt?4txt@ DB 'MiniGame_Alphabet.txt'
	DB	'.txt', 00H					; `string'
CONST	ENDS
;	COMDAT ??_C@_0BG@JBDMGAGO@FIVESYSTEM_PRIZE_POST@
CONST	SEGMENT
??_C@_0BG@JBDMGAGO@FIVESYSTEM_PRIZE_POST@ DB 'FIVESYSTEM_PRIZE_POST', 00H ; `string'
CONST	ENDS
;	COMDAT ??_C@_0BB@KFELLABE@FIVESYSTEM_PRIZE@
CONST	SEGMENT
??_C@_0BB@KFELLABE@FIVESYSTEM_PRIZE@ DB 'FIVESYSTEM_PRIZE', 00H ; `string'
CONST	ENDS
;	COMDAT ??_C@_0BE@NEOONLJP@FIVESYSTEM_USE_POST@
CONST	SEGMENT
??_C@_0BE@NEOONLJP@FIVESYSTEM_USE_POST@ DB 'FIVESYSTEM_USE_POST', 00H ; `string'
CONST	ENDS
;	COMDAT ??_C@_0P@BABCCKAN@FIVESYSTEM_USE@
CONST	SEGMENT
??_C@_0P@BABCCKAN@FIVESYSTEM_USE@ DB 'FIVESYSTEM_USE', 00H ; `string'
CONST	ENDS
;	COMDAT ??_C@_0BC@KPGKNKH@FIVESYSTEM_CANCEL@
CONST	SEGMENT
??_C@_0BC@KPGKNKH@FIVESYSTEM_CANCEL@ DB 'FIVESYSTEM_CANCEL', 00H ; `string'
CONST	ENDS
;	COMDAT ??_C@_0BH@IADBFAIN@FIVESYSTEM_CANCEL_POST@
CONST	SEGMENT
??_C@_0BH@IADBFAIN@FIVESYSTEM_CANCEL_POST@ DB 'FIVESYSTEM_CANCEL_POST', 00H ; `string'
CONST	ENDS
;	COMDAT ??_C@_0BD@CAPJLNGE@ALPABET_PRIZE_POST@
CONST	SEGMENT
??_C@_0BD@CAPJLNGE@ALPABET_PRIZE_POST@ DB 'ALPABET_PRIZE_POST', 00H ; `string'
CONST	ENDS
;	COMDAT ??_C@_04OEDFLLKD@?$CC?$CFs?$CC@
CONST	SEGMENT
??_C@_04OEDFLLKD@?$CC?$CFs?$CC@ DB '"%s"', 00H		; `string'
CONST	ENDS
;	COMDAT ??_C@_0O@LAKHECLG@ALPABET_PRIZE@
CONST	SEGMENT
??_C@_0O@LAKHECLG@ALPABET_PRIZE@ DB 'ALPABET_PRIZE', 00H ; `string'
CONST	ENDS
;	COMDAT ??_C@_0BA@OAAODEPM@ALPHABET_USE_?$CFs@
CONST	SEGMENT
??_C@_0BA@OAAODEPM@ALPHABET_USE_?$CFs@ DB 'ALPHABET_USE_%s', 00H ; `string'
CONST	ENDS
;	COMDAT ??_C@_0BB@HLIKLMLJ@ItemNum?5?9?5?$CFd?0?5?$CFd@
CONST	SEGMENT
??_C@_0BB@HLIKLMLJ@ItemNum?5?9?5?$CFd?0?5?$CFd@ DB 'ItemNum - %d, %d', 00H ; `string'
CONST	ENDS
;	COMDAT ??_C@_0BG@KFMNHME@REASSEMBLE_PRIZE_POST@
CONST	SEGMENT
??_C@_0BG@KFMNHME@REASSEMBLE_PRIZE_POST@ DB 'REASSEMBLE_PRIZE_POST', 00H ; `string'
CONST	ENDS
;	COMDAT ??_C@_0BB@IHEHCJBA@REASSEMBLE_PRIZE@
CONST	SEGMENT
??_C@_0BB@IHEHCJBA@REASSEMBLE_PRIZE@ DB 'REASSEMBLE_PRIZE', 00H ; `string'
CONST	ENDS
;	COMDAT ??_C@_0P@EECHKOAF@REASSEMBLE_USE@
CONST	SEGMENT
??_C@_0P@EECHKOAF@REASSEMBLE_USE@ DB 'REASSEMBLE_USE', 00H ; `string'
CONST	ENDS
;	COMDAT ??_C@_0BG@JKNGBBKM@KAWIBAWIBO_PRIZE_POST@
CONST	SEGMENT
??_C@_0BG@JKNGBBKM@KAWIBAWIBO_PRIZE_POST@ DB 'KAWIBAWIBO_PRIZE_POST', 00H ; `string'
CONST	ENDS
;	COMDAT ??_C@_0BB@HAKADBLP@KAWIBAWIBO_PRIZE@
CONST	SEGMENT
??_C@_0BB@HAKADBLP@KAWIBAWIBO_PRIZE@ DB 'KAWIBAWIBO_PRIZE', 00H ; `string'
CONST	ENDS
;	COMDAT ??_C@_0P@DGKJNFLB@KAWIBAWIBO_WIN@
CONST	SEGMENT
??_C@_0P@DGKJNFLB@KAWIBAWIBO_WIN@ DB 'KAWIBAWIBO_WIN', 00H ; `string'
CONST	ENDS
;	COMDAT ??_C@_0BA@OCKOJLKN@KAWIBAWIBO_DRAW@
CONST	SEGMENT
??_C@_0BA@OCKOJLKN@KAWIBAWIBO_DRAW@ DB 'KAWIBAWIBO_DRAW', 00H ; `string'
CONST	ENDS
;	COMDAT ??_C@_0BA@EECCHLPD@KAWIBAWIBO_LOST@
CONST	SEGMENT
??_C@_0BA@EECCHLPD@KAWIBAWIBO_LOST@ DB 'KAWIBAWIBO_LOST', 00H ; `string'
CONST	ENDS
;	COMDAT ??_C@_0BE@HNMAKIIG@KAWIBAWIBO_USE_ITEM@
CONST	SEGMENT
??_C@_0BE@HNMAKIIG@KAWIBAWIBO_USE_ITEM@ DB 'KAWIBAWIBO_USE_ITEM', 00H ; `string'
CONST	ENDS
;	COMDAT ??_C@_01MIFGBAGJ@?$CL@
CONST	SEGMENT
??_C@_01MIFGBAGJ@?$CL@ DB '+', 00H			; `string'
CONST	ENDS
;	COMDAT ??_R4bad_alloc@std@@6B@
rdata$r	SEGMENT
??_R4bad_alloc@std@@6B@ DD 00H				; std::bad_alloc::`RTTI Complete Object Locator'
	DD	00H
	DD	00H
	DD	FLAT:??_R0?AVbad_alloc@std@@@8
	DD	FLAT:??_R3bad_alloc@std@@8
rdata$r	ENDS
;	COMDAT ??_R2bad_alloc@std@@8
rdata$r	SEGMENT
??_R2bad_alloc@std@@8 DD FLAT:??_R1A@?0A@EA@bad_alloc@std@@8 ; std::bad_alloc::`RTTI Base Class Array'
	DD	FLAT:??_R1A@?0A@EA@exception@std@@8
rdata$r	ENDS
;	COMDAT ??_R3bad_alloc@std@@8
rdata$r	SEGMENT
??_R3bad_alloc@std@@8 DD 00H				; std::bad_alloc::`RTTI Class Hierarchy Descriptor'
	DD	00H
	DD	02H
	DD	FLAT:??_R2bad_alloc@std@@8
rdata$r	ENDS
;	COMDAT ??_R1A@?0A@EA@bad_alloc@std@@8
rdata$r	SEGMENT
??_R1A@?0A@EA@bad_alloc@std@@8 DD FLAT:??_R0?AVbad_alloc@std@@@8 ; std::bad_alloc::`RTTI Base Class Descriptor at (0,-1,0,64)'
	DD	01H
	DD	00H
	DD	0ffffffffH
	DD	00H
	DD	040H
	DD	FLAT:??_R3bad_alloc@std@@8
rdata$r	ENDS
;	COMDAT ??_R1A@?0A@EA@bad_array_new_length@std@@8
rdata$r	SEGMENT
??_R1A@?0A@EA@bad_array_new_length@std@@8 DD FLAT:??_R0?AVbad_array_new_length@std@@@8 ; std::bad_array_new_length::`RTTI Base Class Descriptor at (0,-1,0,64)'
	DD	02H
	DD	00H
	DD	0ffffffffH
	DD	00H
	DD	040H
	DD	FLAT:??_R3bad_array_new_length@std@@8
rdata$r	ENDS
;	COMDAT ??_R2bad_array_new_length@std@@8
rdata$r	SEGMENT
??_R2bad_array_new_length@std@@8 DD FLAT:??_R1A@?0A@EA@bad_array_new_length@std@@8 ; std::bad_array_new_length::`RTTI Base Class Array'
	DD	FLAT:??_R1A@?0A@EA@bad_alloc@std@@8
	DD	FLAT:??_R1A@?0A@EA@exception@std@@8
rdata$r	ENDS
;	COMDAT ??_R3bad_array_new_length@std@@8
rdata$r	SEGMENT
??_R3bad_array_new_length@std@@8 DD 00H			; std::bad_array_new_length::`RTTI Class Hierarchy Descriptor'
	DD	00H
	DD	03H
	DD	FLAT:??_R2bad_array_new_length@std@@8
rdata$r	ENDS
;	COMDAT ??_R4bad_array_new_length@std@@6B@
rdata$r	SEGMENT
??_R4bad_array_new_length@std@@6B@ DD 00H		; std::bad_array_new_length::`RTTI Complete Object Locator'
	DD	00H
	DD	00H
	DD	FLAT:??_R0?AVbad_array_new_length@std@@@8
	DD	FLAT:??_R3bad_array_new_length@std@@8
rdata$r	ENDS
;	COMDAT ??_R1A@?0A@EA@exception@std@@8
rdata$r	SEGMENT
??_R1A@?0A@EA@exception@std@@8 DD FLAT:??_R0?AVexception@std@@@8 ; std::exception::`RTTI Base Class Descriptor at (0,-1,0,64)'
	DD	00H
	DD	00H
	DD	0ffffffffH
	DD	00H
	DD	040H
	DD	FLAT:??_R3exception@std@@8
rdata$r	ENDS
;	COMDAT ??_R2exception@std@@8
rdata$r	SEGMENT
??_R2exception@std@@8 DD FLAT:??_R1A@?0A@EA@exception@std@@8 ; std::exception::`RTTI Base Class Array'
rdata$r	ENDS
;	COMDAT ??_R3exception@std@@8
rdata$r	SEGMENT
??_R3exception@std@@8 DD 00H				; std::exception::`RTTI Class Hierarchy Descriptor'
	DD	00H
	DD	01H
	DD	FLAT:??_R2exception@std@@8
rdata$r	ENDS
;	COMDAT ??_R4exception@std@@6B@
rdata$r	SEGMENT
??_R4exception@std@@6B@ DD 00H				; std::exception::`RTTI Complete Object Locator'
	DD	00H
	DD	00H
	DD	FLAT:??_R0?AVexception@std@@@8
	DD	FLAT:??_R3exception@std@@8
rdata$r	ENDS
;	COMDAT ??_C@_0BA@FOIKENOD@vector?5too?5long@
CONST	SEGMENT
??_C@_0BA@FOIKENOD@vector?5too?5long@ DB 'vector too long', 00H ; `string'
CONST	ENDS
;	COMDAT ??_C@_05KKCIMGE@error@
CONST	SEGMENT
??_C@_05KKCIMGE@error@ DB 'error', 00H			; `string'
CONST	ENDS
;	COMDAT ??_C@_0BE@OHDBLHOM@GetText?5range_error@
CONST	SEGMENT
??_C@_0BE@OHDBLHOM@GetText?5range_error@ DB 'GetText range_error', 00H ; `string'
CONST	ENDS
;	COMDAT ??_C@_0BI@BEIFNGEL@GetItemProp?5range_error@
CONST	SEGMENT
??_C@_0BI@BEIFNGEL@GetItemProp?5range_error@ DB 'GetItemProp range_error', 00H ; `string'
CONST	ENDS
;	COMDAT ??_C@_0BM@HMFGHCP@?$CFs?5min?3?$CFd?0?5max?3?$CFd?0?5index?3?$CFd@
CONST	SEGMENT
??_C@_0BM@HMFGHCP@?$CFs?5min?3?$CFd?0?5max?3?$CFd?0?5index?3?$CFd@ DB '%s'
	DB	' min:%d, max:%d, index:%d', 00H		; `string'
CONST	ENDS
;	COMDAT ??_7CMiniGame@@6B@
CONST	SEGMENT
??_7CMiniGame@@6B@ DD FLAT:??_R4CMiniGame@@6B@		; CMiniGame::`vftable'
	DD	FLAT:??_ECMiniGame@@UAEPAXI@Z
CONST	ENDS
;	COMDAT ??_C@_0BB@GCADKGJO@map?1set?5too?5long@
CONST	SEGMENT
??_C@_0BB@GCADKGJO@map?1set?5too?5long@ DB 'map/set too long', 00H ; `string'
CONST	ENDS
;	COMDAT __CT??_R0?AVbad_alloc@std@@@8??0bad_alloc@std@@QAE@ABV01@@Z12
xdata$x	SEGMENT
__CT??_R0?AVbad_alloc@std@@@8??0bad_alloc@std@@QAE@ABV01@@Z12 DD 010H
	DD	FLAT:??_R0?AVbad_alloc@std@@@8
	DD	00H
	DD	0ffffffffH
	ORG $+4
	DD	0cH
	DD	FLAT:??0bad_alloc@std@@QAE@ABV01@@Z
xdata$x	ENDS
;	COMDAT ??_R0?AVbad_alloc@std@@@8
data$r	SEGMENT
??_R0?AVbad_alloc@std@@@8 DD FLAT:??_7type_info@@6B@	; std::bad_alloc `RTTI Type Descriptor'
	DD	00H
	DB	'.?AVbad_alloc@std@@', 00H
data$r	ENDS
;	COMDAT __CT??_R0?AVbad_array_new_length@std@@@8??0bad_array_new_length@std@@QAE@ABV01@@Z12
xdata$x	SEGMENT
__CT??_R0?AVbad_array_new_length@std@@@8??0bad_array_new_length@std@@QAE@ABV01@@Z12 DD 00H
	DD	FLAT:??_R0?AVbad_array_new_length@std@@@8
	DD	00H
	DD	0ffffffffH
	ORG $+4
	DD	0cH
	DD	FLAT:??0bad_array_new_length@std@@QAE@ABV01@@Z
xdata$x	ENDS
;	COMDAT ??_R0?AVbad_array_new_length@std@@@8
data$r	SEGMENT
??_R0?AVbad_array_new_length@std@@@8 DD FLAT:??_7type_info@@6B@ ; std::bad_array_new_length `RTTI Type Descriptor'
	DD	00H
	DB	'.?AVbad_array_new_length@std@@', 00H
data$r	ENDS
;	COMDAT __CTA3?AVbad_array_new_length@std@@
xdata$x	SEGMENT
__CTA3?AVbad_array_new_length@std@@ DD 03H
	DD	FLAT:__CT??_R0?AVbad_array_new_length@std@@@8??0bad_array_new_length@std@@QAE@ABV01@@Z12
	DD	FLAT:__CT??_R0?AVbad_alloc@std@@@8??0bad_alloc@std@@QAE@ABV01@@Z12
	DD	FLAT:__CT??_R0?AVexception@std@@@8??0exception@std@@QAE@ABV01@@Z12
xdata$x	ENDS
;	COMDAT __TI3?AVbad_array_new_length@std@@
xdata$x	SEGMENT
__TI3?AVbad_array_new_length@std@@ DD 00H
	DD	FLAT:??1bad_array_new_length@std@@UAE@XZ
	DD	00H
	DD	FLAT:__CTA3?AVbad_array_new_length@std@@
xdata$x	ENDS
;	COMDAT __CT??_R0?AVexception@std@@@8??0exception@std@@QAE@ABV01@@Z12
xdata$x	SEGMENT
__CT??_R0?AVexception@std@@@8??0exception@std@@QAE@ABV01@@Z12 DD 00H
	DD	FLAT:??_R0?AVexception@std@@@8
	DD	00H
	DD	0ffffffffH
	ORG $+4
	DD	0cH
	DD	FLAT:??0exception@std@@QAE@ABV01@@Z
xdata$x	ENDS
;	COMDAT ??_R0?AVexception@std@@@8
data$r	SEGMENT
??_R0?AVexception@std@@@8 DD FLAT:??_7type_info@@6B@	; std::exception `RTTI Type Descriptor'
	DD	00H
	DB	'.?AVexception@std@@', 00H
data$r	ENDS
;	COMDAT ??_C@_0BF@KINCDENJ@bad?5array?5new?5length@
CONST	SEGMENT
??_C@_0BF@KINCDENJ@bad?5array?5new?5length@ DB 'bad array new length', 00H ; `string'
CONST	ENDS
;	COMDAT ??_7bad_array_new_length@std@@6B@
CONST	SEGMENT
??_7bad_array_new_length@std@@6B@ DD FLAT:??_R4bad_array_new_length@std@@6B@ ; std::bad_array_new_length::`vftable'
	DD	FLAT:??_Ebad_array_new_length@std@@UAEPAXI@Z
	DD	FLAT:?what@exception@std@@UBEPBDXZ
CONST	ENDS
;	COMDAT ??_7bad_alloc@std@@6B@
CONST	SEGMENT
??_7bad_alloc@std@@6B@ DD FLAT:??_R4bad_alloc@std@@6B@	; std::bad_alloc::`vftable'
	DD	FLAT:??_Ebad_alloc@std@@UAEPAXI@Z
	DD	FLAT:?what@exception@std@@UBEPBDXZ
CONST	ENDS
;	COMDAT ??_C@_0BC@EOODALEL@Unknown?5exception@
CONST	SEGMENT
??_C@_0BC@EOODALEL@Unknown?5exception@ DB 'Unknown exception', 00H ; `string'
CONST	ENDS
;	COMDAT ??_7exception@std@@6B@
CONST	SEGMENT
??_7exception@std@@6B@ DD FLAT:??_R4exception@std@@6B@	; std::exception::`vftable'
	DD	FLAT:??_Eexception@std@@UAEPAXI@Z
	DD	FLAT:?what@exception@std@@UBEPBDXZ
CONST	ENDS
;	COMDAT ??_C@_00CNPNBAHC@@
CONST	SEGMENT
??_C@_00CNPNBAHC@@ DB 00H				; `string'
CONST	ENDS
;	COMDAT ??_C@_02DPKJAMEF@?$CFd@
CONST	SEGMENT
??_C@_02DPKJAMEF@?$CFd@ DB '%d', 00H			; `string'
CONST	ENDS
;	COMDAT xdata$x
xdata$x	SEGMENT
__unwindtable$??$construct@U__ALPHABET@CMiniGame@@U12@@?$_Default_allocator_traits@V?$allocator@U__ALPHABET@CMiniGame@@@std@@@std@@SAXAAV?$allocator@U__ALPHABET@CMiniGame@@@1@QAU__ALPHABET@CMiniGame@@$$QAU34@@Z DD 0ffffffffH
	DD	FLAT:__unwindfunclet$??$construct@U__ALPHABET@CMiniGame@@U12@@?$_Default_allocator_traits@V?$allocator@U__ALPHABET@CMiniGame@@@std@@@std@@SAXAAV?$allocator@U__ALPHABET@CMiniGame@@@1@QAU__ALPHABET@CMiniGame@@$$QAU34@@Z$0
__ehfuncinfo$??$construct@U__ALPHABET@CMiniGame@@U12@@?$_Default_allocator_traits@V?$allocator@U__ALPHABET@CMiniGame@@@std@@@std@@SAXAAV?$allocator@U__ALPHABET@CMiniGame@@@1@QAU__ALPHABET@CMiniGame@@$$QAU34@@Z DD 019930522H
	DD	01H
	DD	FLAT:__unwindtable$??$construct@U__ALPHABET@CMiniGame@@U12@@?$_Default_allocator_traits@V?$allocator@U__ALPHABET@CMiniGame@@@std@@@std@@SAXAAV?$allocator@U__ALPHABET@CMiniGame@@@1@QAU__ALPHABET@CMiniGame@@$$QAU34@@Z
	DD	2 DUP(00H)
	DD	2 DUP(00H)
	DD	00H
	DD	01H
xdata$x	ENDS
;	COMDAT xdata$x
xdata$x	SEGMENT
__unwindtable$??$_Emplace_back@U__ALPHABET@CMiniGame@@@?$_Uninitialized_backout_al@V?$allocator@U__ALPHABET@CMiniGame@@@std@@@std@@QAEX$$QAU__ALPHABET@CMiniGame@@@Z DD 0ffffffffH
	DD	FLAT:__unwindfunclet$??$_Emplace_back@U__ALPHABET@CMiniGame@@@?$_Uninitialized_backout_al@V?$allocator@U__ALPHABET@CMiniGame@@@std@@@std@@QAEX$$QAU__ALPHABET@CMiniGame@@@Z$0
__ehfuncinfo$??$_Emplace_back@U__ALPHABET@CMiniGame@@@?$_Uninitialized_backout_al@V?$allocator@U__ALPHABET@CMiniGame@@@std@@@std@@QAEX$$QAU__ALPHABET@CMiniGame@@@Z DD 019930522H
	DD	01H
	DD	FLAT:__unwindtable$??$_Emplace_back@U__ALPHABET@CMiniGame@@@?$_Uninitialized_backout_al@V?$allocator@U__ALPHABET@CMiniGame@@@std@@@std@@QAEX$$QAU__ALPHABET@CMiniGame@@@Z
	DD	2 DUP(00H)
	DD	2 DUP(00H)
	DD	00H
	DD	01H
xdata$x	ENDS
;	COMDAT xdata$x
xdata$x	SEGMENT
__unwindtable$??$_Uninitialized_move@PAU__ALPHABET@CMiniGame@@V?$allocator@U__ALPHABET@CMiniGame@@@std@@@std@@YAPAU__ALPHABET@CMiniGame@@QAU12@0PAU12@AAV?$allocator@U__ALPHABET@CMiniGame@@@0@@Z DD 0ffffffffH
	DD	FLAT:__unwindfunclet$??$_Uninitialized_move@PAU__ALPHABET@CMiniGame@@V?$allocator@U__ALPHABET@CMiniGame@@@std@@@std@@YAPAU__ALPHABET@CMiniGame@@QAU12@0PAU12@AAV?$allocator@U__ALPHABET@CMiniGame@@@0@@Z$0
	DD	00H
	DD	FLAT:__unwindfunclet$??$_Uninitialized_move@PAU__ALPHABET@CMiniGame@@V?$allocator@U__ALPHABET@CMiniGame@@@std@@@std@@YAPAU__ALPHABET@CMiniGame@@QAU12@0PAU12@AAV?$allocator@U__ALPHABET@CMiniGame@@@0@@Z$1
__ehfuncinfo$??$_Uninitialized_move@PAU__ALPHABET@CMiniGame@@V?$allocator@U__ALPHABET@CMiniGame@@@std@@@std@@YAPAU__ALPHABET@CMiniGame@@QAU12@0PAU12@AAV?$allocator@U__ALPHABET@CMiniGame@@@0@@Z DD 019930522H
	DD	02H
	DD	FLAT:__unwindtable$??$_Uninitialized_move@PAU__ALPHABET@CMiniGame@@V?$allocator@U__ALPHABET@CMiniGame@@@std@@@std@@YAPAU__ALPHABET@CMiniGame@@QAU12@0PAU12@AAV?$allocator@U__ALPHABET@CMiniGame@@@0@@Z
	DD	2 DUP(00H)
	DD	2 DUP(00H)
	DD	00H
	DD	01H
xdata$x	ENDS
;	COMDAT xdata$x
xdata$x	SEGMENT
__unwindtable$??$_Uninitialized_copy@PAU__ALPHABET@CMiniGame@@PAU12@V?$allocator@U__ALPHABET@CMiniGame@@@std@@@std@@YAPAU__ALPHABET@CMiniGame@@PAU12@00AAV?$allocator@U__ALPHABET@CMiniGame@@@0@@Z DD 0ffffffffH
	DD	FLAT:__unwindfunclet$??$_Uninitialized_copy@PAU__ALPHABET@CMiniGame@@PAU12@V?$allocator@U__ALPHABET@CMiniGame@@@std@@@std@@YAPAU__ALPHABET@CMiniGame@@PAU12@00AAV?$allocator@U__ALPHABET@CMiniGame@@@0@@Z$0
__ehfuncinfo$??$_Uninitialized_copy@PAU__ALPHABET@CMiniGame@@PAU12@V?$allocator@U__ALPHABET@CMiniGame@@@std@@@std@@YAPAU__ALPHABET@CMiniGame@@PAU12@00AAV?$allocator@U__ALPHABET@CMiniGame@@@0@@Z DD 019930522H
	DD	01H
	DD	FLAT:__unwindtable$??$_Uninitialized_copy@PAU__ALPHABET@CMiniGame@@PAU12@V?$allocator@U__ALPHABET@CMiniGame@@@std@@@std@@YAPAU__ALPHABET@CMiniGame@@PAU12@00AAV?$allocator@U__ALPHABET@CMiniGame@@@0@@Z
	DD	2 DUP(00H)
	DD	2 DUP(00H)
	DD	00H
	DD	01H
xdata$x	ENDS
;	COMDAT xdata$x
xdata$x	SEGMENT
__ehfuncinfo$??$_Freenode@V?$allocator@U?$_Tree_node@U?$pair@$$CBHV?$CStringT@DV?$StrTraitMFC@DV?$ChTraitsCRT@D@ATL@@@@@ATL@@@std@@PAX@std@@@std@@@?$_Tree_node@U?$pair@$$CBHV?$CStringT@DV?$StrTraitMFC@DV?$ChTraitsCRT@D@ATL@@@@@ATL@@@std@@PAX@std@@SAXAAV?$allocator@U?$_Tree_node@U?$pair@$$CBHV?$CStringT@DV?$StrTraitMFC@DV?$ChTraitsCRT@D@ATL@@@@@ATL@@@std@@PAX@std@@@1@PAU01@@Z DD 019930522H
	DD	00H
	DD	00H
	DD	2 DUP(00H)
	DD	2 DUP(00H)
	DD	00H
	DD	05H
xdata$x	ENDS
;	COMDAT xdata$x
xdata$x	SEGMENT
__unwindtable$??$?0U?$pair@HU__KAWIBAWIBO@CMiniGame@@@std@@@?$_Tree_temp_node@V?$allocator@U?$_Tree_node@U?$pair@$$CBHU__KAWIBAWIBO@CMiniGame@@@std@@PAX@std@@@std@@@std@@QAE@AAV?$allocator@U?$_Tree_node@U?$pair@$$CBHU__KAWIBAWIBO@CMiniGame@@@std@@PAX@std@@@1@PAU?$_Tree_node@U?$pair@$$CBHU__KAWIBAWIBO@CMiniGame@@@std@@PAX@1@$$QAU?$pair@HU__KAWIBAWIBO@CMiniGame@@@1@@Z DD 0ffffffffH
	DD	FLAT:__unwindfunclet$??$?0U?$pair@HU__KAWIBAWIBO@CMiniGame@@@std@@@?$_Tree_temp_node@V?$allocator@U?$_Tree_node@U?$pair@$$CBHU__KAWIBAWIBO@CMiniGame@@@std@@PAX@std@@@std@@@std@@QAE@AAV?$allocator@U?$_Tree_node@U?$pair@$$CBHU__KAWIBAWIBO@CMiniGame@@@std@@PAX@std@@@1@PAU?$_Tree_node@U?$pair@$$CBHU__KAWIBAWIBO@CMiniGame@@@std@@PAX@1@$$QAU?$pair@HU__KAWIBAWIBO@CMiniGame@@@1@@Z$1
__ehfuncinfo$??$?0U?$pair@HU__KAWIBAWIBO@CMiniGame@@@std@@@?$_Tree_temp_node@V?$allocator@U?$_Tree_node@U?$pair@$$CBHU__KAWIBAWIBO@CMiniGame@@@std@@PAX@std@@@std@@@std@@QAE@AAV?$allocator@U?$_Tree_node@U?$pair@$$CBHU__KAWIBAWIBO@CMiniGame@@@std@@PAX@std@@@1@PAU?$_Tree_node@U?$pair@$$CBHU__KAWIBAWIBO@CMiniGame@@@std@@PAX@1@$$QAU?$pair@HU__KAWIBAWIBO@CMiniGame@@@1@@Z DD 019930522H
	DD	01H
	DD	FLAT:__unwindtable$??$?0U?$pair@HU__KAWIBAWIBO@CMiniGame@@@std@@@?$_Tree_temp_node@V?$allocator@U?$_Tree_node@U?$pair@$$CBHU__KAWIBAWIBO@CMiniGame@@@std@@PAX@std@@@std@@@std@@QAE@AAV?$allocator@U?$_Tree_node@U?$pair@$$CBHU__KAWIBAWIBO@CMiniGame@@@std@@PAX@std@@@1@PAU?$_Tree_node@U?$pair@$$CBHU__KAWIBAWIBO@CMiniGame@@@std@@PAX@1@$$QAU?$pair@HU__KAWIBAWIBO@CMiniGame@@@1@@Z
	DD	2 DUP(00H)
	DD	2 DUP(00H)
	DD	00H
	DD	01H
xdata$x	ENDS
;	COMDAT xdata$x
xdata$x	SEGMENT
__unwindtable$??0?$_Tree_temp_node_alloc@V?$allocator@U?$_Tree_node@U?$pair@$$CBHU__KAWIBAWIBO@CMiniGame@@@std@@PAX@std@@@std@@@std@@QAE@AAV?$allocator@U?$_Tree_node@U?$pair@$$CBHU__KAWIBAWIBO@CMiniGame@@@std@@PAX@std@@@1@@Z DD 0ffffffffH
	DD	FLAT:__unwindfunclet$??0?$_Tree_temp_node_alloc@V?$allocator@U?$_Tree_node@U?$pair@$$CBHU__KAWIBAWIBO@CMiniGame@@@std@@PAX@std@@@std@@@std@@QAE@AAV?$allocator@U?$_Tree_node@U?$pair@$$CBHU__KAWIBAWIBO@CMiniGame@@@std@@PAX@std@@@1@@Z$0
__ehfuncinfo$??0?$_Tree_temp_node_alloc@V?$allocator@U?$_Tree_node@U?$pair@$$CBHU__KAWIBAWIBO@CMiniGame@@@std@@PAX@std@@@std@@@std@@QAE@AAV?$allocator@U?$_Tree_node@U?$pair@$$CBHU__KAWIBAWIBO@CMiniGame@@@std@@PAX@std@@@1@@Z DD 019930522H
	DD	01H
	DD	FLAT:__unwindtable$??0?$_Tree_temp_node_alloc@V?$allocator@U?$_Tree_node@U?$pair@$$CBHU__KAWIBAWIBO@CMiniGame@@@std@@PAX@std@@@std@@@std@@QAE@AAV?$allocator@U?$_Tree_node@U?$pair@$$CBHU__KAWIBAWIBO@CMiniGame@@@std@@PAX@std@@@1@@Z
	DD	2 DUP(00H)
	DD	2 DUP(00H)
	DD	00H
	DD	01H
xdata$x	ENDS
;	COMDAT xdata$x
xdata$x	SEGMENT
__unwindtable$??$?0U?$pair@HV?$CStringT@DV?$StrTraitMFC@DV?$ChTraitsCRT@D@ATL@@@@@ATL@@@std@@@?$_Tree_temp_node@V?$allocator@U?$_Tree_node@U?$pair@$$CBHV?$CStringT@DV?$StrTraitMFC@DV?$ChTraitsCRT@D@ATL@@@@@ATL@@@std@@PAX@std@@@std@@@std@@QAE@AAV?$allocator@U?$_Tree_node@U?$pair@$$CBHV?$CStringT@DV?$StrTraitMFC@DV?$ChTraitsCRT@D@ATL@@@@@ATL@@@std@@PAX@std@@@1@PAU?$_Tree_node@U?$pair@$$CBHV?$CStringT@DV?$StrTraitMFC@DV?$ChTraitsCRT@D@ATL@@@@@ATL@@@std@@PAX@1@$$QAU?$pair@HV?$CStringT@DV?$StrTraitMFC@DV?$ChTraitsCRT@D@ATL@@@@@ATL@@@1@@Z DD 0ffffffffH
	DD	FLAT:__unwindfunclet$??$?0U?$pair@HV?$CStringT@DV?$StrTraitMFC@DV?$ChTraitsCRT@D@ATL@@@@@ATL@@@std@@@?$_Tree_temp_node@V?$allocator@U?$_Tree_node@U?$pair@$$CBHV?$CStringT@DV?$StrTraitMFC@DV?$ChTraitsCRT@D@ATL@@@@@ATL@@@std@@PAX@std@@@std@@@std@@QAE@AAV?$allocator@U?$_Tree_node@U?$pair@$$CBHV?$CStringT@DV?$StrTraitMFC@DV?$ChTraitsCRT@D@ATL@@@@@ATL@@@std@@PAX@std@@@1@PAU?$_Tree_node@U?$pair@$$CBHV?$CStringT@DV?$StrTraitMFC@DV?$ChTraitsCRT@D@ATL@@@@@ATL@@@std@@PAX@1@$$QAU?$pair@HV?$CStringT@DV?$StrTraitMFC@DV?$ChTraitsCRT@D@ATL@@@@@ATL@@@1@@Z$1
	DD	0ffffffffH
	DD	FLAT:__unwindfunclet$??$?0U?$pair@HV?$CStringT@DV?$StrTraitMFC@DV?$ChTraitsCRT@D@ATL@@@@@ATL@@@std@@@?$_Tree_temp_node@V?$allocator@U?$_Tree_node@U?$pair@$$CBHV?$CStringT@DV?$StrTraitMFC@DV?$ChTraitsCRT@D@ATL@@@@@ATL@@@std@@PAX@std@@@std@@@std@@QAE@AAV?$allocator@U?$_Tree_node@U?$pair@$$CBHV?$CStringT@DV?$StrTraitMFC@DV?$ChTraitsCRT@D@ATL@@@@@ATL@@@std@@PAX@std@@@1@PAU?$_Tree_node@U?$pair@$$CBHV?$CStringT@DV?$StrTraitMFC@DV?$ChTraitsCRT@D@ATL@@@@@ATL@@@std@@PAX@1@$$QAU?$pair@HV?$CStringT@DV?$StrTraitMFC@DV?$ChTraitsCRT@D@ATL@@@@@ATL@@@1@@Z$0
__ehfuncinfo$??$?0U?$pair@HV?$CStringT@DV?$StrTraitMFC@DV?$ChTraitsCRT@D@ATL@@@@@ATL@@@std@@@?$_Tree_temp_node@V?$allocator@U?$_Tree_node@U?$pair@$$CBHV?$CStringT@DV?$StrTraitMFC@DV?$ChTraitsCRT@D@ATL@@@@@ATL@@@std@@PAX@std@@@std@@@std@@QAE@AAV?$allocator@U?$_Tree_node@U?$pair@$$CBHV?$CStringT@DV?$StrTraitMFC@DV?$ChTraitsCRT@D@ATL@@@@@ATL@@@std@@PAX@std@@@1@PAU?$_Tree_node@U?$pair@$$CBHV?$CStringT@DV?$StrTraitMFC@DV?$ChTraitsCRT@D@ATL@@@@@ATL@@@std@@PAX@1@$$QAU?$pair@HV?$CStringT@DV?$StrTraitMFC@DV?$ChTraitsCRT@D@ATL@@@@@ATL@@@1@@Z DD 019930522H
	DD	02H
	DD	FLAT:__unwindtable$??$?0U?$pair@HV?$CStringT@DV?$StrTraitMFC@DV?$ChTraitsCRT@D@ATL@@@@@ATL@@@std@@@?$_Tree_temp_node@V?$allocator@U?$_Tree_node@U?$pair@$$CBHV?$CStringT@DV?$StrTraitMFC@DV?$ChTraitsCRT@D@ATL@@@@@ATL@@@std@@PAX@std@@@std@@@std@@QAE@AAV?$allocator@U?$_Tree_node@U?$pair@$$CBHV?$CStringT@DV?$StrTraitMFC@DV?$ChTraitsCRT@D@ATL@@@@@ATL@@@std@@PAX@std@@@1@PAU?$_Tree_node@U?$pair@$$CBHV?$CStringT@DV?$StrTraitMFC@DV?$ChTraitsCRT@D@ATL@@@@@ATL@@@std@@PAX@1@$$QAU?$pair@HV?$CStringT@DV?$StrTraitMFC@DV?$ChTraitsCRT@D@ATL@@@@@ATL@@@1@@Z
	DD	2 DUP(00H)
	DD	2 DUP(00H)
	DD	00H
	DD	01H
xdata$x	ENDS
;	COMDAT xdata$x
xdata$x	SEGMENT
__ehfuncinfo$??1?$_Tree_temp_node@V?$allocator@U?$_Tree_node@U?$pair@$$CBHV?$CStringT@DV?$StrTraitMFC@DV?$ChTraitsCRT@D@ATL@@@@@ATL@@@std@@PAX@std@@@std@@@std@@QAE@XZ DD 019930522H
	DD	00H
	DD	00H
	DD	2 DUP(00H)
	DD	2 DUP(00H)
	DD	00H
	DD	05H
xdata$x	ENDS
;	COMDAT xdata$x
xdata$x	SEGMENT
__unwindtable$??0?$_Tree_temp_node_alloc@V?$allocator@U?$_Tree_node@U?$pair@$$CBHV?$CStringT@DV?$StrTraitMFC@DV?$ChTraitsCRT@D@ATL@@@@@ATL@@@std@@PAX@std@@@std@@@std@@QAE@AAV?$allocator@U?$_Tree_node@U?$pair@$$CBHV?$CStringT@DV?$StrTraitMFC@DV?$ChTraitsCRT@D@ATL@@@@@ATL@@@std@@PAX@std@@@1@@Z DD 0ffffffffH
	DD	FLAT:__unwindfunclet$??0?$_Tree_temp_node_alloc@V?$allocator@U?$_Tree_node@U?$pair@$$CBHV?$CStringT@DV?$StrTraitMFC@DV?$ChTraitsCRT@D@ATL@@@@@ATL@@@std@@PAX@std@@@std@@@std@@QAE@AAV?$allocator@U?$_Tree_node@U?$pair@$$CBHV?$CStringT@DV?$StrTraitMFC@DV?$ChTraitsCRT@D@ATL@@@@@ATL@@@std@@PAX@std@@@1@@Z$0
__ehfuncinfo$??0?$_Tree_temp_node_alloc@V?$allocator@U?$_Tree_node@U?$pair@$$CBHV?$CStringT@DV?$StrTraitMFC@DV?$ChTraitsCRT@D@ATL@@@@@ATL@@@std@@PAX@std@@@std@@@std@@QAE@AAV?$allocator@U?$_Tree_node@U?$pair@$$CBHV?$CStringT@DV?$StrTraitMFC@DV?$ChTraitsCRT@D@ATL@@@@@ATL@@@std@@PAX@std@@@1@@Z DD 019930522H
	DD	01H
	DD	FLAT:__unwindtable$??0?$_Tree_temp_node_alloc@V?$allocator@U?$_Tree_node@U?$pair@$$CBHV?$CStringT@DV?$StrTraitMFC@DV?$ChTraitsCRT@D@ATL@@@@@ATL@@@std@@PAX@std@@@std@@@std@@QAE@AAV?$allocator@U?$_Tree_node@U?$pair@$$CBHV?$CStringT@DV?$StrTraitMFC@DV?$ChTraitsCRT@D@ATL@@@@@ATL@@@std@@PAX@std@@@1@@Z
	DD	2 DUP(00H)
	DD	2 DUP(00H)
	DD	00H
	DD	01H
xdata$x	ENDS
;	COMDAT xdata$x
xdata$x	SEGMENT
__unwindtable$??$?0U?$pair@KH@std@@@?$_Tree_temp_node@V?$allocator@U?$_Tree_node@U?$pair@$$CBKH@std@@PAX@std@@@std@@@std@@QAE@AAV?$allocator@U?$_Tree_node@U?$pair@$$CBKH@std@@PAX@std@@@1@PAU?$_Tree_node@U?$pair@$$CBKH@std@@PAX@1@$$QAU?$pair@KH@1@@Z DD 0ffffffffH
	DD	FLAT:__unwindfunclet$??$?0U?$pair@KH@std@@@?$_Tree_temp_node@V?$allocator@U?$_Tree_node@U?$pair@$$CBKH@std@@PAX@std@@@std@@@std@@QAE@AAV?$allocator@U?$_Tree_node@U?$pair@$$CBKH@std@@PAX@std@@@1@PAU?$_Tree_node@U?$pair@$$CBKH@std@@PAX@1@$$QAU?$pair@KH@1@@Z$1
__ehfuncinfo$??$?0U?$pair@KH@std@@@?$_Tree_temp_node@V?$allocator@U?$_Tree_node@U?$pair@$$CBKH@std@@PAX@std@@@std@@@std@@QAE@AAV?$allocator@U?$_Tree_node@U?$pair@$$CBKH@std@@PAX@std@@@1@PAU?$_Tree_node@U?$pair@$$CBKH@std@@PAX@1@$$QAU?$pair@KH@1@@Z DD 019930522H
	DD	01H
	DD	FLAT:__unwindtable$??$?0U?$pair@KH@std@@@?$_Tree_temp_node@V?$allocator@U?$_Tree_node@U?$pair@$$CBKH@std@@PAX@std@@@std@@@std@@QAE@AAV?$allocator@U?$_Tree_node@U?$pair@$$CBKH@std@@PAX@std@@@1@PAU?$_Tree_node@U?$pair@$$CBKH@std@@PAX@1@$$QAU?$pair@KH@1@@Z
	DD	2 DUP(00H)
	DD	2 DUP(00H)
	DD	00H
	DD	01H
xdata$x	ENDS
;	COMDAT xdata$x
xdata$x	SEGMENT
__unwindtable$??0?$_Tree_temp_node_alloc@V?$allocator@U?$_Tree_node@U?$pair@$$CBKH@std@@PAX@std@@@std@@@std@@QAE@AAV?$allocator@U?$_Tree_node@U?$pair@$$CBKH@std@@PAX@std@@@1@@Z DD 0ffffffffH
	DD	FLAT:__unwindfunclet$??0?$_Tree_temp_node_alloc@V?$allocator@U?$_Tree_node@U?$pair@$$CBKH@std@@PAX@std@@@std@@@std@@QAE@AAV?$allocator@U?$_Tree_node@U?$pair@$$CBKH@std@@PAX@std@@@1@@Z$0
__ehfuncinfo$??0?$_Tree_temp_node_alloc@V?$allocator@U?$_Tree_node@U?$pair@$$CBKH@std@@PAX@std@@@std@@@std@@QAE@AAV?$allocator@U?$_Tree_node@U?$pair@$$CBKH@std@@PAX@std@@@1@@Z DD 019930522H
	DD	01H
	DD	FLAT:__unwindtable$??0?$_Tree_temp_node_alloc@V?$allocator@U?$_Tree_node@U?$pair@$$CBKH@std@@PAX@std@@@std@@@std@@QAE@AAV?$allocator@U?$_Tree_node@U?$pair@$$CBKH@std@@PAX@std@@@1@@Z
	DD	2 DUP(00H)
	DD	2 DUP(00H)
	DD	00H
	DD	01H
xdata$x	ENDS
;	COMDAT xdata$x
xdata$x	SEGMENT
__ehfuncinfo$??$_Destroy_range@V?$allocator@U__ALPHABET@CMiniGame@@@std@@@std@@YAXPAU__ALPHABET@CMiniGame@@QAU12@AAV?$allocator@U__ALPHABET@CMiniGame@@@0@@Z DD 019930522H
	DD	00H
	DD	00H
	DD	2 DUP(00H)
	DD	2 DUP(00H)
	DD	00H
	DD	05H
xdata$x	ENDS
;	COMDAT xdata$x
xdata$x	SEGMENT
__unwindtable$??$_Emplace_reallocate@ABU__ALPHABET@CMiniGame@@@?$vector@U__ALPHABET@CMiniGame@@V?$allocator@U__ALPHABET@CMiniGame@@@std@@@std@@AAEPAU__ALPHABET@CMiniGame@@QAU23@ABU23@@Z DD 0ffffffffH
	DD	FLAT:__unwindfunclet$??$_Emplace_reallocate@ABU__ALPHABET@CMiniGame@@@?$vector@U__ALPHABET@CMiniGame@@V?$allocator@U__ALPHABET@CMiniGame@@@std@@@std@@AAEPAU__ALPHABET@CMiniGame@@QAU23@ABU23@@Z$0
	DD	00H
	DD	FLAT:__unwindfunclet$??$_Emplace_reallocate@ABU__ALPHABET@CMiniGame@@@?$vector@U__ALPHABET@CMiniGame@@V?$allocator@U__ALPHABET@CMiniGame@@@std@@@std@@AAEPAU__ALPHABET@CMiniGame@@QAU23@ABU23@@Z$1
__ehfuncinfo$??$_Emplace_reallocate@ABU__ALPHABET@CMiniGame@@@?$vector@U__ALPHABET@CMiniGame@@V?$allocator@U__ALPHABET@CMiniGame@@@std@@@std@@AAEPAU__ALPHABET@CMiniGame@@QAU23@ABU23@@Z DD 019930522H
	DD	02H
	DD	FLAT:__unwindtable$??$_Emplace_reallocate@ABU__ALPHABET@CMiniGame@@@?$vector@U__ALPHABET@CMiniGame@@V?$allocator@U__ALPHABET@CMiniGame@@@std@@@std@@AAEPAU__ALPHABET@CMiniGame@@QAU23@ABU23@@Z
	DD	2 DUP(00H)
	DD	2 DUP(00H)
	DD	00H
	DD	01H
xdata$x	ENDS
;	COMDAT xdata$x
xdata$x	SEGMENT
__ehfuncinfo$??$_Erase_tree@V?$allocator@U?$_Tree_node@U?$pair@$$CBHV?$CStringT@DV?$StrTraitMFC@DV?$ChTraitsCRT@D@ATL@@@@@ATL@@@std@@PAX@std@@@std@@@?$_Tree_val@U?$_Tree_simple_types@U?$pair@$$CBHV?$CStringT@DV?$StrTraitMFC@DV?$ChTraitsCRT@D@ATL@@@@@ATL@@@std@@@std@@@std@@QAEXAAV?$allocator@U?$_Tree_node@U?$pair@$$CBHV?$CStringT@DV?$StrTraitMFC@DV?$ChTraitsCRT@D@ATL@@@@@ATL@@@std@@PAX@std@@@1@PAU?$_Tree_node@U?$pair@$$CBHV?$CStringT@DV?$StrTraitMFC@DV?$ChTraitsCRT@D@ATL@@@@@ATL@@@std@@PAX@1@@Z DD 019930522H
	DD	00H
	DD	00H
	DD	2 DUP(00H)
	DD	2 DUP(00H)
	DD	00H
	DD	05H
xdata$x	ENDS
;	COMDAT xdata$x
xdata$x	SEGMENT
__unwindtable$??$?0U?$pair@$$CBHU__FIVESYSTEM@CMiniGame@@@std@@@?$_Tree_temp_node@V?$allocator@U?$_Tree_node@U?$pair@$$CBHU__FIVESYSTEM@CMiniGame@@@std@@PAX@std@@@std@@@std@@QAE@AAV?$allocator@U?$_Tree_node@U?$pair@$$CBHU__FIVESYSTEM@CMiniGame@@@std@@PAX@std@@@1@PAU?$_Tree_node@U?$pair@$$CBHU__FIVESYSTEM@CMiniGame@@@std@@PAX@1@$$QAU?$pair@$$CBHU__FIVESYSTEM@CMiniGame@@@1@@Z DD 0ffffffffH
	DD	FLAT:__unwindfunclet$??$?0U?$pair@$$CBHU__FIVESYSTEM@CMiniGame@@@std@@@?$_Tree_temp_node@V?$allocator@U?$_Tree_node@U?$pair@$$CBHU__FIVESYSTEM@CMiniGame@@@std@@PAX@std@@@std@@@std@@QAE@AAV?$allocator@U?$_Tree_node@U?$pair@$$CBHU__FIVESYSTEM@CMiniGame@@@std@@PAX@std@@@1@PAU?$_Tree_node@U?$pair@$$CBHU__FIVESYSTEM@CMiniGame@@@std@@PAX@1@$$QAU?$pair@$$CBHU__FIVESYSTEM@CMiniGame@@@1@@Z$1
__ehfuncinfo$??$?0U?$pair@$$CBHU__FIVESYSTEM@CMiniGame@@@std@@@?$_Tree_temp_node@V?$allocator@U?$_Tree_node@U?$pair@$$CBHU__FIVESYSTEM@CMiniGame@@@std@@PAX@std@@@std@@@std@@QAE@AAV?$allocator@U?$_Tree_node@U?$pair@$$CBHU__FIVESYSTEM@CMiniGame@@@std@@PAX@std@@@1@PAU?$_Tree_node@U?$pair@$$CBHU__FIVESYSTEM@CMiniGame@@@std@@PAX@1@$$QAU?$pair@$$CBHU__FIVESYSTEM@CMiniGame@@@1@@Z DD 019930522H
	DD	01H
	DD	FLAT:__unwindtable$??$?0U?$pair@$$CBHU__FIVESYSTEM@CMiniGame@@@std@@@?$_Tree_temp_node@V?$allocator@U?$_Tree_node@U?$pair@$$CBHU__FIVESYSTEM@CMiniGame@@@std@@PAX@std@@@std@@@std@@QAE@AAV?$allocator@U?$_Tree_node@U?$pair@$$CBHU__FIVESYSTEM@CMiniGame@@@std@@PAX@std@@@1@PAU?$_Tree_node@U?$pair@$$CBHU__FIVESYSTEM@CMiniGame@@@std@@PAX@1@$$QAU?$pair@$$CBHU__FIVESYSTEM@CMiniGame@@@1@@Z
	DD	2 DUP(00H)
	DD	2 DUP(00H)
	DD	00H
	DD	01H
xdata$x	ENDS
;	COMDAT xdata$x
xdata$x	SEGMENT
__unwindtable$??0?$_Tree_temp_node_alloc@V?$allocator@U?$_Tree_node@U?$pair@$$CBHU__FIVESYSTEM@CMiniGame@@@std@@PAX@std@@@std@@@std@@QAE@AAV?$allocator@U?$_Tree_node@U?$pair@$$CBHU__FIVESYSTEM@CMiniGame@@@std@@PAX@std@@@1@@Z DD 0ffffffffH
	DD	FLAT:__unwindfunclet$??0?$_Tree_temp_node_alloc@V?$allocator@U?$_Tree_node@U?$pair@$$CBHU__FIVESYSTEM@CMiniGame@@@std@@PAX@std@@@std@@@std@@QAE@AAV?$allocator@U?$_Tree_node@U?$pair@$$CBHU__FIVESYSTEM@CMiniGame@@@std@@PAX@std@@@1@@Z$0
__ehfuncinfo$??0?$_Tree_temp_node_alloc@V?$allocator@U?$_Tree_node@U?$pair@$$CBHU__FIVESYSTEM@CMiniGame@@@std@@PAX@std@@@std@@@std@@QAE@AAV?$allocator@U?$_Tree_node@U?$pair@$$CBHU__FIVESYSTEM@CMiniGame@@@std@@PAX@std@@@1@@Z DD 019930522H
	DD	01H
	DD	FLAT:__unwindtable$??0?$_Tree_temp_node_alloc@V?$allocator@U?$_Tree_node@U?$pair@$$CBHU__FIVESYSTEM@CMiniGame@@@std@@PAX@std@@@std@@@std@@QAE@AAV?$allocator@U?$_Tree_node@U?$pair@$$CBHU__FIVESYSTEM@CMiniGame@@@std@@PAX@std@@@1@@Z
	DD	2 DUP(00H)
	DD	2 DUP(00H)
	DD	00H
	DD	01H
xdata$x	ENDS
;	COMDAT xdata$x
xdata$x	SEGMENT
__unwindtable$??$_Emplace@U?$pair@HU__KAWIBAWIBO@CMiniGame@@@std@@@?$_Tree@V?$_Tmap_traits@HU__KAWIBAWIBO@CMiniGame@@U?$less@H@std@@V?$allocator@U?$pair@$$CBHU__KAWIBAWIBO@CMiniGame@@@std@@@4@$0A@@std@@@std@@IAE?AU?$pair@PAU?$_Tree_node@U?$pair@$$CBHU__KAWIBAWIBO@CMiniGame@@@std@@PAX@std@@_N@1@$$QAU?$pair@HU__KAWIBAWIBO@CMiniGame@@@1@@Z DD 0ffffffffH
	DD	FLAT:__unwindfunclet$??$_Emplace@U?$pair@HU__KAWIBAWIBO@CMiniGame@@@std@@@?$_Tree@V?$_Tmap_traits@HU__KAWIBAWIBO@CMiniGame@@U?$less@H@std@@V?$allocator@U?$pair@$$CBHU__KAWIBAWIBO@CMiniGame@@@std@@@4@$0A@@std@@@std@@IAE?AU?$pair@PAU?$_Tree_node@U?$pair@$$CBHU__KAWIBAWIBO@CMiniGame@@@std@@PAX@std@@_N@1@$$QAU?$pair@HU__KAWIBAWIBO@CMiniGame@@@1@@Z$2
__ehfuncinfo$??$_Emplace@U?$pair@HU__KAWIBAWIBO@CMiniGame@@@std@@@?$_Tree@V?$_Tmap_traits@HU__KAWIBAWIBO@CMiniGame@@U?$less@H@std@@V?$allocator@U?$pair@$$CBHU__KAWIBAWIBO@CMiniGame@@@std@@@4@$0A@@std@@@std@@IAE?AU?$pair@PAU?$_Tree_node@U?$pair@$$CBHU__KAWIBAWIBO@CMiniGame@@@std@@PAX@std@@_N@1@$$QAU?$pair@HU__KAWIBAWIBO@CMiniGame@@@1@@Z DD 019930522H
	DD	01H
	DD	FLAT:__unwindtable$??$_Emplace@U?$pair@HU__KAWIBAWIBO@CMiniGame@@@std@@@?$_Tree@V?$_Tmap_traits@HU__KAWIBAWIBO@CMiniGame@@U?$less@H@std@@V?$allocator@U?$pair@$$CBHU__KAWIBAWIBO@CMiniGame@@@std@@@4@$0A@@std@@@std@@IAE?AU?$pair@PAU?$_Tree_node@U?$pair@$$CBHU__KAWIBAWIBO@CMiniGame@@@std@@PAX@std@@_N@1@$$QAU?$pair@HU__KAWIBAWIBO@CMiniGame@@@1@@Z
	DD	2 DUP(00H)
	DD	2 DUP(00H)
	DD	00H
	DD	01H
xdata$x	ENDS
;	COMDAT xdata$x
xdata$x	SEGMENT
__unwindtable$??$_Emplace@U?$pair@HV?$CStringT@DV?$StrTraitMFC@DV?$ChTraitsCRT@D@ATL@@@@@ATL@@@std@@@?$_Tree@V?$_Tmap_traits@HV?$CStringT@DV?$StrTraitMFC@DV?$ChTraitsCRT@D@ATL@@@@@ATL@@U?$less@H@std@@V?$allocator@U?$pair@$$CBHV?$CStringT@DV?$StrTraitMFC@DV?$ChTraitsCRT@D@ATL@@@@@ATL@@@std@@@4@$0A@@std@@@std@@IAE?AU?$pair@PAU?$_Tree_node@U?$pair@$$CBHV?$CStringT@DV?$StrTraitMFC@DV?$ChTraitsCRT@D@ATL@@@@@ATL@@@std@@PAX@std@@_N@1@$$QAU?$pair@HV?$CStringT@DV?$StrTraitMFC@DV?$ChTraitsCRT@D@ATL@@@@@ATL@@@1@@Z DD 0ffffffffH
	DD	FLAT:__unwindfunclet$??$_Emplace@U?$pair@HV?$CStringT@DV?$StrTraitMFC@DV?$ChTraitsCRT@D@ATL@@@@@ATL@@@std@@@?$_Tree@V?$_Tmap_traits@HV?$CStringT@DV?$StrTraitMFC@DV?$ChTraitsCRT@D@ATL@@@@@ATL@@U?$less@H@std@@V?$allocator@U?$pair@$$CBHV?$CStringT@DV?$StrTraitMFC@DV?$ChTraitsCRT@D@ATL@@@@@ATL@@@std@@@4@$0A@@std@@@std@@IAE?AU?$pair@PAU?$_Tree_node@U?$pair@$$CBHV?$CStringT@DV?$StrTraitMFC@DV?$ChTraitsCRT@D@ATL@@@@@ATL@@@std@@PAX@std@@_N@1@$$QAU?$pair@HV?$CStringT@DV?$StrTraitMFC@DV?$ChTraitsCRT@D@ATL@@@@@ATL@@@1@@Z$2
	DD	0ffffffffH
	DD	FLAT:__unwindfunclet$??$_Emplace@U?$pair@HV?$CStringT@DV?$StrTraitMFC@DV?$ChTraitsCRT@D@ATL@@@@@ATL@@@std@@@?$_Tree@V?$_Tmap_traits@HV?$CStringT@DV?$StrTraitMFC@DV?$ChTraitsCRT@D@ATL@@@@@ATL@@U?$less@H@std@@V?$allocator@U?$pair@$$CBHV?$CStringT@DV?$StrTraitMFC@DV?$ChTraitsCRT@D@ATL@@@@@ATL@@@std@@@4@$0A@@std@@@std@@IAE?AU?$pair@PAU?$_Tree_node@U?$pair@$$CBHV?$CStringT@DV?$StrTraitMFC@DV?$ChTraitsCRT@D@ATL@@@@@ATL@@@std@@PAX@std@@_N@1@$$QAU?$pair@HV?$CStringT@DV?$StrTraitMFC@DV?$ChTraitsCRT@D@ATL@@@@@ATL@@@1@@Z$1
__ehfuncinfo$??$_Emplace@U?$pair@HV?$CStringT@DV?$StrTraitMFC@DV?$ChTraitsCRT@D@ATL@@@@@ATL@@@std@@@?$_Tree@V?$_Tmap_traits@HV?$CStringT@DV?$StrTraitMFC@DV?$ChTraitsCRT@D@ATL@@@@@ATL@@U?$less@H@std@@V?$allocator@U?$pair@$$CBHV?$CStringT@DV?$StrTraitMFC@DV?$ChTraitsCRT@D@ATL@@@@@ATL@@@std@@@4@$0A@@std@@@std@@IAE?AU?$pair@PAU?$_Tree_node@U?$pair@$$CBHV?$CStringT@DV?$StrTraitMFC@DV?$ChTraitsCRT@D@ATL@@@@@ATL@@@std@@PAX@std@@_N@1@$$QAU?$pair@HV?$CStringT@DV?$StrTraitMFC@DV?$ChTraitsCRT@D@ATL@@@@@ATL@@@1@@Z DD 019930522H
	DD	02H
	DD	FLAT:__unwindtable$??$_Emplace@U?$pair@HV?$CStringT@DV?$StrTraitMFC@DV?$ChTraitsCRT@D@ATL@@@@@ATL@@@std@@@?$_Tree@V?$_Tmap_traits@HV?$CStringT@DV?$StrTraitMFC@DV?$ChTraitsCRT@D@ATL@@@@@ATL@@U?$less@H@std@@V?$allocator@U?$pair@$$CBHV?$CStringT@DV?$StrTraitMFC@DV?$ChTraitsCRT@D@ATL@@@@@ATL@@@std@@@4@$0A@@std@@@std@@IAE?AU?$pair@PAU?$_Tree_node@U?$pair@$$CBHV?$CStringT@DV?$StrTraitMFC@DV?$ChTraitsCRT@D@ATL@@@@@ATL@@@std@@PAX@std@@_N@1@$$QAU?$pair@HV?$CStringT@DV?$StrTraitMFC@DV?$ChTraitsCRT@D@ATL@@@@@ATL@@@1@@Z
	DD	2 DUP(00H)
	DD	2 DUP(00H)
	DD	00H
	DD	01H
xdata$x	ENDS
;	COMDAT xdata$x
xdata$x	SEGMENT
__unwindtable$??$_Emplace@U?$pair@KH@std@@@?$_Tree@V?$_Tmap_traits@KHU?$less@K@std@@V?$allocator@U?$pair@$$CBKH@std@@@2@$0A@@std@@@std@@IAE?AU?$pair@PAU?$_Tree_node@U?$pair@$$CBKH@std@@PAX@std@@_N@1@$$QAU?$pair@KH@1@@Z DD 0ffffffffH
	DD	FLAT:__unwindfunclet$??$_Emplace@U?$pair@KH@std@@@?$_Tree@V?$_Tmap_traits@KHU?$less@K@std@@V?$allocator@U?$pair@$$CBKH@std@@@2@$0A@@std@@@std@@IAE?AU?$pair@PAU?$_Tree_node@U?$pair@$$CBKH@std@@PAX@std@@_N@1@$$QAU?$pair@KH@1@@Z$2
__ehfuncinfo$??$_Emplace@U?$pair@KH@std@@@?$_Tree@V?$_Tmap_traits@KHU?$less@K@std@@V?$allocator@U?$pair@$$CBKH@std@@@2@$0A@@std@@@std@@IAE?AU?$pair@PAU?$_Tree_node@U?$pair@$$CBKH@std@@PAX@std@@_N@1@$$QAU?$pair@KH@1@@Z DD 019930522H
	DD	01H
	DD	FLAT:__unwindtable$??$_Emplace@U?$pair@KH@std@@@?$_Tree@V?$_Tmap_traits@KHU?$less@K@std@@V?$allocator@U?$pair@$$CBKH@std@@@2@$0A@@std@@@std@@IAE?AU?$pair@PAU?$_Tree_node@U?$pair@$$CBKH@std@@PAX@std@@_N@1@$$QAU?$pair@KH@1@@Z
	DD	2 DUP(00H)
	DD	2 DUP(00H)
	DD	00H
	DD	01H
xdata$x	ENDS
;	COMDAT xdata$x
xdata$x	SEGMENT
__unwindtable$??$_Emplace@U?$pair@$$CBHU__FIVESYSTEM@CMiniGame@@@std@@@?$_Tree@V?$_Tmap_traits@HU__FIVESYSTEM@CMiniGame@@U?$less@H@std@@V?$allocator@U?$pair@$$CBHU__FIVESYSTEM@CMiniGame@@@std@@@4@$0A@@std@@@std@@IAE?AU?$pair@PAU?$_Tree_node@U?$pair@$$CBHU__FIVESYSTEM@CMiniGame@@@std@@PAX@std@@_N@1@$$QAU?$pair@$$CBHU__FIVESYSTEM@CMiniGame@@@1@@Z DD 0ffffffffH
	DD	FLAT:__unwindfunclet$??$_Emplace@U?$pair@$$CBHU__FIVESYSTEM@CMiniGame@@@std@@@?$_Tree@V?$_Tmap_traits@HU__FIVESYSTEM@CMiniGame@@U?$less@H@std@@V?$allocator@U?$pair@$$CBHU__FIVESYSTEM@CMiniGame@@@std@@@4@$0A@@std@@@std@@IAE?AU?$pair@PAU?$_Tree_node@U?$pair@$$CBHU__FIVESYSTEM@CMiniGame@@@std@@PAX@std@@_N@1@$$QAU?$pair@$$CBHU__FIVESYSTEM@CMiniGame@@@1@@Z$2
__ehfuncinfo$??$_Emplace@U?$pair@$$CBHU__FIVESYSTEM@CMiniGame@@@std@@@?$_Tree@V?$_Tmap_traits@HU__FIVESYSTEM@CMiniGame@@U?$less@H@std@@V?$allocator@U?$pair@$$CBHU__FIVESYSTEM@CMiniGame@@@std@@@4@$0A@@std@@@std@@IAE?AU?$pair@PAU?$_Tree_node@U?$pair@$$CBHU__FIVESYSTEM@CMiniGame@@@std@@PAX@std@@_N@1@$$QAU?$pair@$$CBHU__FIVESYSTEM@CMiniGame@@@1@@Z DD 019930522H
	DD	01H
	DD	FLAT:__unwindtable$??$_Emplace@U?$pair@$$CBHU__FIVESYSTEM@CMiniGame@@@std@@@?$_Tree@V?$_Tmap_traits@HU__FIVESYSTEM@CMiniGame@@U?$less@H@std@@V?$allocator@U?$pair@$$CBHU__FIVESYSTEM@CMiniGame@@@std@@@4@$0A@@std@@@std@@IAE?AU?$pair@PAU?$_Tree_node@U?$pair@$$CBHU__FIVESYSTEM@CMiniGame@@@std@@PAX@std@@_N@1@$$QAU?$pair@$$CBHU__FIVESYSTEM@CMiniGame@@@1@@Z
	DD	2 DUP(00H)
	DD	2 DUP(00H)
	DD	00H
	DD	01H
xdata$x	ENDS
;	COMDAT xdata$x
xdata$x	SEGMENT
__unwindtable$??$emplace@U?$pair@HU__KAWIBAWIBO@CMiniGame@@@std@@@?$_Tree@V?$_Tmap_traits@HU__KAWIBAWIBO@CMiniGame@@U?$less@H@std@@V?$allocator@U?$pair@$$CBHU__KAWIBAWIBO@CMiniGame@@@std@@@4@$0A@@std@@@std@@QAE?AU?$pair@V?$_Tree_iterator@V?$_Tree_val@U?$_Tree_simple_types@U?$pair@$$CBHU__KAWIBAWIBO@CMiniGame@@@std@@@std@@@std@@@std@@_N@1@$$QAU?$pair@HU__KAWIBAWIBO@CMiniGame@@@1@@Z DD 0ffffffffH
	DD	FLAT:__unwindfunclet$??$emplace@U?$pair@HU__KAWIBAWIBO@CMiniGame@@@std@@@?$_Tree@V?$_Tmap_traits@HU__KAWIBAWIBO@CMiniGame@@U?$less@H@std@@V?$allocator@U?$pair@$$CBHU__KAWIBAWIBO@CMiniGame@@@std@@@4@$0A@@std@@@std@@QAE?AU?$pair@V?$_Tree_iterator@V?$_Tree_val@U?$_Tree_simple_types@U?$pair@$$CBHU__KAWIBAWIBO@CMiniGame@@@std@@@std@@@std@@@std@@_N@1@$$QAU?$pair@HU__KAWIBAWIBO@CMiniGame@@@1@@Z$2
__ehfuncinfo$??$emplace@U?$pair@HU__KAWIBAWIBO@CMiniGame@@@std@@@?$_Tree@V?$_Tmap_traits@HU__KAWIBAWIBO@CMiniGame@@U?$less@H@std@@V?$allocator@U?$pair@$$CBHU__KAWIBAWIBO@CMiniGame@@@std@@@4@$0A@@std@@@std@@QAE?AU?$pair@V?$_Tree_iterator@V?$_Tree_val@U?$_Tree_simple_types@U?$pair@$$CBHU__KAWIBAWIBO@CMiniGame@@@std@@@std@@@std@@@std@@_N@1@$$QAU?$pair@HU__KAWIBAWIBO@CMiniGame@@@1@@Z DD 019930522H
	DD	01H
	DD	FLAT:__unwindtable$??$emplace@U?$pair@HU__KAWIBAWIBO@CMiniGame@@@std@@@?$_Tree@V?$_Tmap_traits@HU__KAWIBAWIBO@CMiniGame@@U?$less@H@std@@V?$allocator@U?$pair@$$CBHU__KAWIBAWIBO@CMiniGame@@@std@@@4@$0A@@std@@@std@@QAE?AU?$pair@V?$_Tree_iterator@V?$_Tree_val@U?$_Tree_simple_types@U?$pair@$$CBHU__KAWIBAWIBO@CMiniGame@@@std@@@std@@@std@@@std@@_N@1@$$QAU?$pair@HU__KAWIBAWIBO@CMiniGame@@@1@@Z
	DD	2 DUP(00H)
	DD	2 DUP(00H)
	DD	00H
	DD	01H
xdata$x	ENDS
;	COMDAT xdata$x
xdata$x	SEGMENT
__unwindtable$??$emplace@U?$pair@HV?$CStringT@DV?$StrTraitMFC@DV?$ChTraitsCRT@D@ATL@@@@@ATL@@@std@@@?$_Tree@V?$_Tmap_traits@HV?$CStringT@DV?$StrTraitMFC@DV?$ChTraitsCRT@D@ATL@@@@@ATL@@U?$less@H@std@@V?$allocator@U?$pair@$$CBHV?$CStringT@DV?$StrTraitMFC@DV?$ChTraitsCRT@D@ATL@@@@@ATL@@@std@@@4@$0A@@std@@@std@@QAE?AU?$pair@V?$_Tree_iterator@V?$_Tree_val@U?$_Tree_simple_types@U?$pair@$$CBHV?$CStringT@DV?$StrTraitMFC@DV?$ChTraitsCRT@D@ATL@@@@@ATL@@@std@@@std@@@std@@@std@@_N@1@$$QAU?$pair@HV?$CStringT@DV?$StrTraitMFC@DV?$ChTraitsCRT@D@ATL@@@@@ATL@@@1@@Z DD 0ffffffffH
	DD	FLAT:__unwindfunclet$??$emplace@U?$pair@HV?$CStringT@DV?$StrTraitMFC@DV?$ChTraitsCRT@D@ATL@@@@@ATL@@@std@@@?$_Tree@V?$_Tmap_traits@HV?$CStringT@DV?$StrTraitMFC@DV?$ChTraitsCRT@D@ATL@@@@@ATL@@U?$less@H@std@@V?$allocator@U?$pair@$$CBHV?$CStringT@DV?$StrTraitMFC@DV?$ChTraitsCRT@D@ATL@@@@@ATL@@@std@@@4@$0A@@std@@@std@@QAE?AU?$pair@V?$_Tree_iterator@V?$_Tree_val@U?$_Tree_simple_types@U?$pair@$$CBHV?$CStringT@DV?$StrTraitMFC@DV?$ChTraitsCRT@D@ATL@@@@@ATL@@@std@@@std@@@std@@@std@@_N@1@$$QAU?$pair@HV?$CStringT@DV?$StrTraitMFC@DV?$ChTraitsCRT@D@ATL@@@@@ATL@@@1@@Z$2
	DD	0ffffffffH
	DD	FLAT:__unwindfunclet$??$emplace@U?$pair@HV?$CStringT@DV?$StrTraitMFC@DV?$ChTraitsCRT@D@ATL@@@@@ATL@@@std@@@?$_Tree@V?$_Tmap_traits@HV?$CStringT@DV?$StrTraitMFC@DV?$ChTraitsCRT@D@ATL@@@@@ATL@@U?$less@H@std@@V?$allocator@U?$pair@$$CBHV?$CStringT@DV?$StrTraitMFC@DV?$ChTraitsCRT@D@ATL@@@@@ATL@@@std@@@4@$0A@@std@@@std@@QAE?AU?$pair@V?$_Tree_iterator@V?$_Tree_val@U?$_Tree_simple_types@U?$pair@$$CBHV?$CStringT@DV?$StrTraitMFC@DV?$ChTraitsCRT@D@ATL@@@@@ATL@@@std@@@std@@@std@@@std@@_N@1@$$QAU?$pair@HV?$CStringT@DV?$StrTraitMFC@DV?$ChTraitsCRT@D@ATL@@@@@ATL@@@1@@Z$1
__ehfuncinfo$??$emplace@U?$pair@HV?$CStringT@DV?$StrTraitMFC@DV?$ChTraitsCRT@D@ATL@@@@@ATL@@@std@@@?$_Tree@V?$_Tmap_traits@HV?$CStringT@DV?$StrTraitMFC@DV?$ChTraitsCRT@D@ATL@@@@@ATL@@U?$less@H@std@@V?$allocator@U?$pair@$$CBHV?$CStringT@DV?$StrTraitMFC@DV?$ChTraitsCRT@D@ATL@@@@@ATL@@@std@@@4@$0A@@std@@@std@@QAE?AU?$pair@V?$_Tree_iterator@V?$_Tree_val@U?$_Tree_simple_types@U?$pair@$$CBHV?$CStringT@DV?$StrTraitMFC@DV?$ChTraitsCRT@D@ATL@@@@@ATL@@@std@@@std@@@std@@@std@@_N@1@$$QAU?$pair@HV?$CStringT@DV?$StrTraitMFC@DV?$ChTraitsCRT@D@ATL@@@@@ATL@@@1@@Z DD 019930522H
	DD	02H
	DD	FLAT:__unwindtable$??$emplace@U?$pair@HV?$CStringT@DV?$StrTraitMFC@DV?$ChTraitsCRT@D@ATL@@@@@ATL@@@std@@@?$_Tree@V?$_Tmap_traits@HV?$CStringT@DV?$StrTraitMFC@DV?$ChTraitsCRT@D@ATL@@@@@ATL@@U?$less@H@std@@V?$allocator@U?$pair@$$CBHV?$CStringT@DV?$StrTraitMFC@DV?$ChTraitsCRT@D@ATL@@@@@ATL@@@std@@@4@$0A@@std@@@std@@QAE?AU?$pair@V?$_Tree_iterator@V?$_Tree_val@U?$_Tree_simple_types@U?$pair@$$CBHV?$CStringT@DV?$StrTraitMFC@DV?$ChTraitsCRT@D@ATL@@@@@ATL@@@std@@@std@@@std@@@std@@_N@1@$$QAU?$pair@HV?$CStringT@DV?$StrTraitMFC@DV?$ChTraitsCRT@D@ATL@@@@@ATL@@@1@@Z
	DD	2 DUP(00H)
	DD	2 DUP(00H)
	DD	00H
	DD	01H
xdata$x	ENDS
;	COMDAT xdata$x
xdata$x	SEGMENT
__unwindtable$??$emplace@U?$pair@KH@std@@@?$_Tree@V?$_Tmap_traits@KHU?$less@K@std@@V?$allocator@U?$pair@$$CBKH@std@@@2@$0A@@std@@@std@@QAE?AU?$pair@V?$_Tree_iterator@V?$_Tree_val@U?$_Tree_simple_types@U?$pair@$$CBKH@std@@@std@@@std@@@std@@_N@1@$$QAU?$pair@KH@1@@Z DD 0ffffffffH
	DD	FLAT:__unwindfunclet$??$emplace@U?$pair@KH@std@@@?$_Tree@V?$_Tmap_traits@KHU?$less@K@std@@V?$allocator@U?$pair@$$CBKH@std@@@2@$0A@@std@@@std@@QAE?AU?$pair@V?$_Tree_iterator@V?$_Tree_val@U?$_Tree_simple_types@U?$pair@$$CBKH@std@@@std@@@std@@@std@@_N@1@$$QAU?$pair@KH@1@@Z$2
__ehfuncinfo$??$emplace@U?$pair@KH@std@@@?$_Tree@V?$_Tmap_traits@KHU?$less@K@std@@V?$allocator@U?$pair@$$CBKH@std@@@2@$0A@@std@@@std@@QAE?AU?$pair@V?$_Tree_iterator@V?$_Tree_val@U?$_Tree_simple_types@U?$pair@$$CBKH@std@@@std@@@std@@@std@@_N@1@$$QAU?$pair@KH@1@@Z DD 019930522H
	DD	01H
	DD	FLAT:__unwindtable$??$emplace@U?$pair@KH@std@@@?$_Tree@V?$_Tmap_traits@KHU?$less@K@std@@V?$allocator@U?$pair@$$CBKH@std@@@2@$0A@@std@@@std@@QAE?AU?$pair@V?$_Tree_iterator@V?$_Tree_val@U?$_Tree_simple_types@U?$pair@$$CBKH@std@@@std@@@std@@@std@@_N@1@$$QAU?$pair@KH@1@@Z
	DD	2 DUP(00H)
	DD	2 DUP(00H)
	DD	00H
	DD	01H
xdata$x	ENDS
;	COMDAT xdata$x
xdata$x	SEGMENT
__unwindtable$??$insert@$0A@$0A@@?$_Tree@V?$_Tmap_traits@HU__FIVESYSTEM@CMiniGame@@U?$less@H@std@@V?$allocator@U?$pair@$$CBHU__FIVESYSTEM@CMiniGame@@@std@@@4@$0A@@std@@@std@@QAE?AU?$pair@V?$_Tree_iterator@V?$_Tree_val@U?$_Tree_simple_types@U?$pair@$$CBHU__FIVESYSTEM@CMiniGame@@@std@@@std@@@std@@@std@@_N@1@$$QAU?$pair@$$CBHU__FIVESYSTEM@CMiniGame@@@1@@Z DD 0ffffffffH
	DD	FLAT:__unwindfunclet$??$insert@$0A@$0A@@?$_Tree@V?$_Tmap_traits@HU__FIVESYSTEM@CMiniGame@@U?$less@H@std@@V?$allocator@U?$pair@$$CBHU__FIVESYSTEM@CMiniGame@@@std@@@4@$0A@@std@@@std@@QAE?AU?$pair@V?$_Tree_iterator@V?$_Tree_val@U?$_Tree_simple_types@U?$pair@$$CBHU__FIVESYSTEM@CMiniGame@@@std@@@std@@@std@@@std@@_N@1@$$QAU?$pair@$$CBHU__FIVESYSTEM@CMiniGame@@@1@@Z$2
__ehfuncinfo$??$insert@$0A@$0A@@?$_Tree@V?$_Tmap_traits@HU__FIVESYSTEM@CMiniGame@@U?$less@H@std@@V?$allocator@U?$pair@$$CBHU__FIVESYSTEM@CMiniGame@@@std@@@4@$0A@@std@@@std@@QAE?AU?$pair@V?$_Tree_iterator@V?$_Tree_val@U?$_Tree_simple_types@U?$pair@$$CBHU__FIVESYSTEM@CMiniGame@@@std@@@std@@@std@@@std@@_N@1@$$QAU?$pair@$$CBHU__FIVESYSTEM@CMiniGame@@@1@@Z DD 019930522H
	DD	01H
	DD	FLAT:__unwindtable$??$insert@$0A@$0A@@?$_Tree@V?$_Tmap_traits@HU__FIVESYSTEM@CMiniGame@@U?$less@H@std@@V?$allocator@U?$pair@$$CBHU__FIVESYSTEM@CMiniGame@@@std@@@4@$0A@@std@@@std@@QAE?AU?$pair@V?$_Tree_iterator@V?$_Tree_val@U?$_Tree_simple_types@U?$pair@$$CBHU__FIVESYSTEM@CMiniGame@@@std@@@std@@@std@@@std@@_N@1@$$QAU?$pair@$$CBHU__FIVESYSTEM@CMiniGame@@@1@@Z
	DD	2 DUP(00H)
	DD	2 DUP(00H)
	DD	00H
	DD	01H
xdata$x	ENDS
;	COMDAT xdata$x
xdata$x	SEGMENT
__unwindtable$??$insert@U?$pair@HU__KAWIBAWIBO@CMiniGame@@@std@@$0A@@?$map@HU__KAWIBAWIBO@CMiniGame@@U?$less@H@std@@V?$allocator@U?$pair@$$CBHU__KAWIBAWIBO@CMiniGame@@@std@@@4@@std@@QAE?AU?$pair@V?$_Tree_iterator@V?$_Tree_val@U?$_Tree_simple_types@U?$pair@$$CBHU__KAWIBAWIBO@CMiniGame@@@std@@@std@@@std@@@std@@_N@1@$$QAU?$pair@HU__KAWIBAWIBO@CMiniGame@@@1@@Z DD 0ffffffffH
	DD	FLAT:__unwindfunclet$??$insert@U?$pair@HU__KAWIBAWIBO@CMiniGame@@@std@@$0A@@?$map@HU__KAWIBAWIBO@CMiniGame@@U?$less@H@std@@V?$allocator@U?$pair@$$CBHU__KAWIBAWIBO@CMiniGame@@@std@@@4@@std@@QAE?AU?$pair@V?$_Tree_iterator@V?$_Tree_val@U?$_Tree_simple_types@U?$pair@$$CBHU__KAWIBAWIBO@CMiniGame@@@std@@@std@@@std@@@std@@_N@1@$$QAU?$pair@HU__KAWIBAWIBO@CMiniGame@@@1@@Z$2
__ehfuncinfo$??$insert@U?$pair@HU__KAWIBAWIBO@CMiniGame@@@std@@$0A@@?$map@HU__KAWIBAWIBO@CMiniGame@@U?$less@H@std@@V?$allocator@U?$pair@$$CBHU__KAWIBAWIBO@CMiniGame@@@std@@@4@@std@@QAE?AU?$pair@V?$_Tree_iterator@V?$_Tree_val@U?$_Tree_simple_types@U?$pair@$$CBHU__KAWIBAWIBO@CMiniGame@@@std@@@std@@@std@@@std@@_N@1@$$QAU?$pair@HU__KAWIBAWIBO@CMiniGame@@@1@@Z DD 019930522H
	DD	01H
	DD	FLAT:__unwindtable$??$insert@U?$pair@HU__KAWIBAWIBO@CMiniGame@@@std@@$0A@@?$map@HU__KAWIBAWIBO@CMiniGame@@U?$less@H@std@@V?$allocator@U?$pair@$$CBHU__KAWIBAWIBO@CMiniGame@@@std@@@4@@std@@QAE?AU?$pair@V?$_Tree_iterator@V?$_Tree_val@U?$_Tree_simple_types@U?$pair@$$CBHU__KAWIBAWIBO@CMiniGame@@@std@@@std@@@std@@@std@@_N@1@$$QAU?$pair@HU__KAWIBAWIBO@CMiniGame@@@1@@Z
	DD	2 DUP(00H)
	DD	2 DUP(00H)
	DD	00H
	DD	01H
xdata$x	ENDS
;	COMDAT xdata$x
xdata$x	SEGMENT
__unwindtable$??$insert@U?$pair@HV?$CStringT@DV?$StrTraitMFC@DV?$ChTraitsCRT@D@ATL@@@@@ATL@@@std@@$0A@@?$map@HV?$CStringT@DV?$StrTraitMFC@DV?$ChTraitsCRT@D@ATL@@@@@ATL@@U?$less@H@std@@V?$allocator@U?$pair@$$CBHV?$CStringT@DV?$StrTraitMFC@DV?$ChTraitsCRT@D@ATL@@@@@ATL@@@std@@@4@@std@@QAE?AU?$pair@V?$_Tree_iterator@V?$_Tree_val@U?$_Tree_simple_types@U?$pair@$$CBHV?$CStringT@DV?$StrTraitMFC@DV?$ChTraitsCRT@D@ATL@@@@@ATL@@@std@@@std@@@std@@@std@@_N@1@$$QAU?$pair@HV?$CStringT@DV?$StrTraitMFC@DV?$ChTraitsCRT@D@ATL@@@@@ATL@@@1@@Z DD 0ffffffffH
	DD	FLAT:__unwindfunclet$??$insert@U?$pair@HV?$CStringT@DV?$StrTraitMFC@DV?$ChTraitsCRT@D@ATL@@@@@ATL@@@std@@$0A@@?$map@HV?$CStringT@DV?$StrTraitMFC@DV?$ChTraitsCRT@D@ATL@@@@@ATL@@U?$less@H@std@@V?$allocator@U?$pair@$$CBHV?$CStringT@DV?$StrTraitMFC@DV?$ChTraitsCRT@D@ATL@@@@@ATL@@@std@@@4@@std@@QAE?AU?$pair@V?$_Tree_iterator@V?$_Tree_val@U?$_Tree_simple_types@U?$pair@$$CBHV?$CStringT@DV?$StrTraitMFC@DV?$ChTraitsCRT@D@ATL@@@@@ATL@@@std@@@std@@@std@@@std@@_N@1@$$QAU?$pair@HV?$CStringT@DV?$StrTraitMFC@DV?$ChTraitsCRT@D@ATL@@@@@ATL@@@1@@Z$2
	DD	0ffffffffH
	DD	FLAT:__unwindfunclet$??$insert@U?$pair@HV?$CStringT@DV?$StrTraitMFC@DV?$ChTraitsCRT@D@ATL@@@@@ATL@@@std@@$0A@@?$map@HV?$CStringT@DV?$StrTraitMFC@DV?$ChTraitsCRT@D@ATL@@@@@ATL@@U?$less@H@std@@V?$allocator@U?$pair@$$CBHV?$CStringT@DV?$StrTraitMFC@DV?$ChTraitsCRT@D@ATL@@@@@ATL@@@std@@@4@@std@@QAE?AU?$pair@V?$_Tree_iterator@V?$_Tree_val@U?$_Tree_simple_types@U?$pair@$$CBHV?$CStringT@DV?$StrTraitMFC@DV?$ChTraitsCRT@D@ATL@@@@@ATL@@@std@@@std@@@std@@@std@@_N@1@$$QAU?$pair@HV?$CStringT@DV?$StrTraitMFC@DV?$ChTraitsCRT@D@ATL@@@@@ATL@@@1@@Z$1
__ehfuncinfo$??$insert@U?$pair@HV?$CStringT@DV?$StrTraitMFC@DV?$ChTraitsCRT@D@ATL@@@@@ATL@@@std@@$0A@@?$map@HV?$CStringT@DV?$StrTraitMFC@DV?$ChTraitsCRT@D@ATL@@@@@ATL@@U?$less@H@std@@V?$allocator@U?$pair@$$CBHV?$CStringT@DV?$StrTraitMFC@DV?$ChTraitsCRT@D@ATL@@@@@ATL@@@std@@@4@@std@@QAE?AU?$pair@V?$_Tree_iterator@V?$_Tree_val@U?$_Tree_simple_types@U?$pair@$$CBHV?$CStringT@DV?$StrTraitMFC@DV?$ChTraitsCRT@D@ATL@@@@@ATL@@@std@@@std@@@std@@@std@@_N@1@$$QAU?$pair@HV?$CStringT@DV?$StrTraitMFC@DV?$ChTraitsCRT@D@ATL@@@@@ATL@@@1@@Z DD 019930522H
	DD	02H
	DD	FLAT:__unwindtable$??$insert@U?$pair@HV?$CStringT@DV?$StrTraitMFC@DV?$ChTraitsCRT@D@ATL@@@@@ATL@@@std@@$0A@@?$map@HV?$CStringT@DV?$StrTraitMFC@DV?$ChTraitsCRT@D@ATL@@@@@ATL@@U?$less@H@std@@V?$allocator@U?$pair@$$CBHV?$CStringT@DV?$StrTraitMFC@DV?$ChTraitsCRT@D@ATL@@@@@ATL@@@std@@@4@@std@@QAE?AU?$pair@V?$_Tree_iterator@V?$_Tree_val@U?$_Tree_simple_types@U?$pair@$$CBHV?$CStringT@DV?$StrTraitMFC@DV?$ChTraitsCRT@D@ATL@@@@@ATL@@@std@@@std@@@std@@@std@@_N@1@$$QAU?$pair@HV?$CStringT@DV?$StrTraitMFC@DV?$ChTraitsCRT@D@ATL@@@@@ATL@@@1@@Z
	DD	2 DUP(00H)
	DD	2 DUP(00H)
	DD	00H
	DD	01H
xdata$x	ENDS
;	COMDAT xdata$x
xdata$x	SEGMENT
__ehfuncinfo$??_G?$pair@$$CBHV?$CStringT@DV?$StrTraitMFC@DV?$ChTraitsCRT@D@ATL@@@@@ATL@@@std@@QAEPAXI@Z DD 019930522H
	DD	00H
	DD	00H
	DD	2 DUP(00H)
	DD	2 DUP(00H)
	DD	00H
	DD	05H
xdata$x	ENDS
;	COMDAT xdata$x
xdata$x	SEGMENT
__ehfuncinfo$??1?$pair@$$CBHV?$CStringT@DV?$StrTraitMFC@DV?$ChTraitsCRT@D@ATL@@@@@ATL@@@std@@QAE@XZ DD 019930522H
	DD	00H
	DD	00H
	DD	2 DUP(00H)
	DD	2 DUP(00H)
	DD	00H
	DD	05H
xdata$x	ENDS
;	COMDAT xdata$x
xdata$x	SEGMENT
__ehfuncinfo$??1?$pair@HV?$CStringT@DV?$StrTraitMFC@DV?$ChTraitsCRT@D@ATL@@@@@ATL@@@std@@QAE@XZ DD 019930522H
	DD	00H
	DD	00H
	DD	2 DUP(00H)
	DD	2 DUP(00H)
	DD	00H
	DD	05H
xdata$x	ENDS
;	COMDAT xdata$x
xdata$x	SEGMENT
__unwindtable$??$insert@U?$pair@KH@std@@$0A@@?$map@KHU?$less@K@std@@V?$allocator@U?$pair@$$CBKH@std@@@2@@std@@QAE?AU?$pair@V?$_Tree_iterator@V?$_Tree_val@U?$_Tree_simple_types@U?$pair@$$CBKH@std@@@std@@@std@@@std@@_N@1@$$QAU?$pair@KH@1@@Z DD 0ffffffffH
	DD	FLAT:__unwindfunclet$??$insert@U?$pair@KH@std@@$0A@@?$map@KHU?$less@K@std@@V?$allocator@U?$pair@$$CBKH@std@@@2@@std@@QAE?AU?$pair@V?$_Tree_iterator@V?$_Tree_val@U?$_Tree_simple_types@U?$pair@$$CBKH@std@@@std@@@std@@@std@@_N@1@$$QAU?$pair@KH@1@@Z$2
__ehfuncinfo$??$insert@U?$pair@KH@std@@$0A@@?$map@KHU?$less@K@std@@V?$allocator@U?$pair@$$CBKH@std@@@2@@std@@QAE?AU?$pair@V?$_Tree_iterator@V?$_Tree_val@U?$_Tree_simple_types@U?$pair@$$CBKH@std@@@std@@@std@@@std@@_N@1@$$QAU?$pair@KH@1@@Z DD 019930522H
	DD	01H
	DD	FLAT:__unwindtable$??$insert@U?$pair@KH@std@@$0A@@?$map@KHU?$less@K@std@@V?$allocator@U?$pair@$$CBKH@std@@@2@@std@@QAE?AU?$pair@V?$_Tree_iterator@V?$_Tree_val@U?$_Tree_simple_types@U?$pair@$$CBKH@std@@@std@@@std@@@std@@_N@1@$$QAU?$pair@KH@1@@Z
	DD	2 DUP(00H)
	DD	2 DUP(00H)
	DD	00H
	DD	01H
xdata$x	ENDS
;	COMDAT xdata$x
xdata$x	SEGMENT
__unwindtable$?ResultPenya_FiveSystem@CMiniGame@@QAEHPAVCUser@@H@Z DD 0ffffffffH
	DD	FLAT:__unwindfunclet$?ResultPenya_FiveSystem@CMiniGame@@QAEHPAVCUser@@H@Z$0
__ehfuncinfo$?ResultPenya_FiveSystem@CMiniGame@@QAEHPAVCUser@@H@Z DD 019930522H
	DD	01H
	DD	FLAT:__unwindtable$?ResultPenya_FiveSystem@CMiniGame@@QAEHPAVCUser@@H@Z
	DD	2 DUP(00H)
	DD	2 DUP(00H)
	DD	00H
	DD	01H
xdata$x	ENDS
;	COMDAT xdata$x
xdata$x	SEGMENT
__unwindtable$?Bet_FiveSystem@CMiniGame@@QAEHPAVCUser@@HH@Z DD 0ffffffffH
	DD	FLAT:__unwindfunclet$?Bet_FiveSystem@CMiniGame@@QAEHPAVCUser@@HH@Z$0
__ehfuncinfo$?Bet_FiveSystem@CMiniGame@@QAEHPAVCUser@@HH@Z DD 019930522H
	DD	01H
	DD	FLAT:__unwindtable$?Bet_FiveSystem@CMiniGame@@QAEHPAVCUser@@HH@Z
	DD	2 DUP(00H)
	DD	2 DUP(00H)
	DD	00H
	DD	01H
xdata$x	ENDS
;	COMDAT xdata$x
xdata$x	SEGMENT
__unwindtable$?DestroyWnd_FiveSystem@CMiniGame@@QAEXPAVCUser@@@Z DD 0ffffffffH
	DD	FLAT:__unwindfunclet$?DestroyWnd_FiveSystem@CMiniGame@@QAEXPAVCUser@@@Z$0
__ehfuncinfo$?DestroyWnd_FiveSystem@CMiniGame@@QAEXPAVCUser@@@Z DD 019930522H
	DD	01H
	DD	FLAT:__unwindtable$?DestroyWnd_FiveSystem@CMiniGame@@QAEXPAVCUser@@@Z
	DD	2 DUP(00H)
	DD	2 DUP(00H)
	DD	00H
	DD	01H
xdata$x	ENDS
;	COMDAT xdata$x
xdata$x	SEGMENT
__unwindtable$?GetAlphabetRandomItem@CMiniGame@@QAE?AU__ITEMGAME@1@H@Z DD 0ffffffffH
	DD	FLAT:__unwindfunclet$?GetAlphabetRandomItem@CMiniGame@@QAE?AU__ITEMGAME@1@H@Z$0
__ehfuncinfo$?GetAlphabetRandomItem@CMiniGame@@QAE?AU__ITEMGAME@1@H@Z DD 019930522H
	DD	01H
	DD	FLAT:__unwindtable$?GetAlphabetRandomItem@CMiniGame@@QAE?AU__ITEMGAME@1@H@Z
	DD	2 DUP(00H)
	DD	2 DUP(00H)
	DD	00H
	DD	01H
xdata$x	ENDS
;	COMDAT xdata$x
xdata$x	SEGMENT
__unwindtable$?ResultItem_Alphabet@CMiniGame@@QAEHPAVCUser@@H@Z DD 0ffffffffH
	DD	FLAT:__unwindfunclet$?ResultItem_Alphabet@CMiniGame@@QAEHPAVCUser@@H@Z$0
__ehfuncinfo$?ResultItem_Alphabet@CMiniGame@@QAEHPAVCUser@@H@Z DD 019930522H
	DD	01H
	DD	FLAT:__unwindtable$?ResultItem_Alphabet@CMiniGame@@QAEHPAVCUser@@H@Z
	DD	2 DUP(00H)
	DD	2 DUP(00H)
	DD	00H
	DD	01H
xdata$x	ENDS
;	COMDAT xdata$x
xdata$x	SEGMENT
__unwindtable$?Result_Alphabet@CMiniGame@@QAEHPAVCUser@@PAKHH@Z DD 0ffffffffH
	DD	FLAT:__unwindfunclet$?Result_Alphabet@CMiniGame@@QAEHPAVCUser@@PAKHH@Z$0
	DD	00H
	DD	FLAT:__unwindfunclet$?Result_Alphabet@CMiniGame@@QAEHPAVCUser@@PAKHH@Z$1
	DD	01H
	DD	FLAT:__unwindfunclet$?Result_Alphabet@CMiniGame@@QAEHPAVCUser@@PAKHH@Z$7
__ehfuncinfo$?Result_Alphabet@CMiniGame@@QAEHPAVCUser@@PAKHH@Z DD 019930522H
	DD	03H
	DD	FLAT:__unwindtable$?Result_Alphabet@CMiniGame@@QAEHPAVCUser@@PAKHH@Z
	DD	2 DUP(00H)
	DD	2 DUP(00H)
	DD	00H
	DD	01H
xdata$x	ENDS
;	COMDAT xdata$x
xdata$x	SEGMENT
__unwindtable$?OpenWnd_Alphabet@CMiniGame@@QAEXPAVCUser@@@Z DD 0ffffffffH
	DD	FLAT:__unwindfunclet$?OpenWnd_Alphabet@CMiniGame@@QAEXPAVCUser@@@Z$0
__ehfuncinfo$?OpenWnd_Alphabet@CMiniGame@@QAEXPAVCUser@@@Z DD 019930522H
	DD	01H
	DD	FLAT:__unwindtable$?OpenWnd_Alphabet@CMiniGame@@QAEXPAVCUser@@@Z
	DD	2 DUP(00H)
	DD	2 DUP(00H)
	DD	00H
	DD	01H
xdata$x	ENDS
;	COMDAT xdata$x
xdata$x	SEGMENT
__unwindtable$?ResultItem_Reassemble@CMiniGame@@QAEHPAVCUser@@@Z DD 0ffffffffH
	DD	FLAT:__unwindfunclet$?ResultItem_Reassemble@CMiniGame@@QAEHPAVCUser@@@Z$0
__ehfuncinfo$?ResultItem_Reassemble@CMiniGame@@QAEHPAVCUser@@@Z DD 019930522H
	DD	01H
	DD	FLAT:__unwindtable$?ResultItem_Reassemble@CMiniGame@@QAEHPAVCUser@@@Z
	DD	2 DUP(00H)
	DD	2 DUP(00H)
	DD	00H
	DD	01H
xdata$x	ENDS
;	COMDAT xdata$x
xdata$x	SEGMENT
__unwindtable$?ResultItem_Kawibawibo@CMiniGame@@QAEHPAVCUser@@@Z DD 0ffffffffH
	DD	FLAT:__unwindfunclet$?ResultItem_Kawibawibo@CMiniGame@@QAEHPAVCUser@@@Z$0
__ehfuncinfo$?ResultItem_Kawibawibo@CMiniGame@@QAEHPAVCUser@@@Z DD 019930522H
	DD	01H
	DD	FLAT:__unwindtable$?ResultItem_Kawibawibo@CMiniGame@@QAEHPAVCUser@@@Z
	DD	2 DUP(00H)
	DD	2 DUP(00H)
	DD	00H
	DD	01H
xdata$x	ENDS
;	COMDAT xdata$x
xdata$x	SEGMENT
__unwindtable$?Load_Reassemble@CMiniGame@@QAEHXZ DD 0ffffffffH
	DD	FLAT:__unwindfunclet$?Load_Reassemble@CMiniGame@@QAEHXZ$0
__ehfuncinfo$?Load_Reassemble@CMiniGame@@QAEHXZ DD 019930522H
	DD	01H
	DD	FLAT:__unwindtable$?Load_Reassemble@CMiniGame@@QAEHXZ
	DD	2 DUP(00H)
	DD	2 DUP(00H)
	DD	00H
	DD	01H
xdata$x	ENDS
;	COMDAT xdata$x
xdata$x	SEGMENT
__unwindtable$?Load_FiveSystem@CMiniGame@@QAEHXZ DD 0ffffffffH
	DD	FLAT:__unwindfunclet$?Load_FiveSystem@CMiniGame@@QAEHXZ$0
	DD	00H
	DD	FLAT:__unwindfunclet$?Load_FiveSystem@CMiniGame@@QAEHXZ$3
__ehfuncinfo$?Load_FiveSystem@CMiniGame@@QAEHXZ DD 019930522H
	DD	02H
	DD	FLAT:__unwindtable$?Load_FiveSystem@CMiniGame@@QAEHXZ
	DD	2 DUP(00H)
	DD	2 DUP(00H)
	DD	00H
	DD	01H
xdata$x	ENDS
;	COMDAT xdata$x
xdata$x	SEGMENT
__unwindtable$?Load_KawiBawiBo@CMiniGame@@QAEHXZ DD 0ffffffffH
	DD	FLAT:__unwindfunclet$?Load_KawiBawiBo@CMiniGame@@QAEHXZ$0
	DD	00H
	DD	FLAT:__unwindfunclet$?Load_KawiBawiBo@CMiniGame@@QAEHXZ$3
__ehfuncinfo$?Load_KawiBawiBo@CMiniGame@@QAEHXZ DD 019930522H
	DD	02H
	DD	FLAT:__unwindtable$?Load_KawiBawiBo@CMiniGame@@QAEHXZ
	DD	2 DUP(00H)
	DD	2 DUP(00H)
	DD	00H
	DD	01H
xdata$x	ENDS
;	COMDAT xdata$x
xdata$x	SEGMENT
__ehfuncinfo$?Load_Alphabet@CMiniGame@@QAEHXZ DD 019930522H
	DD	07H
	DD	FLAT:__unwindtable$?Load_Alphabet@CMiniGame@@QAEHXZ
	DD	2 DUP(00H)
	DD	2 DUP(00H)
	DD	00H
	DD	01H
__unwindtable$?Load_Alphabet@CMiniGame@@QAEHXZ DD 0ffffffffH
	DD	FLAT:__unwindfunclet$?Load_Alphabet@CMiniGame@@QAEHXZ$0
	DD	00H
	DD	FLAT:__unwindfunclet$?Load_Alphabet@CMiniGame@@QAEHXZ$1
	DD	01H
	DD	FLAT:__unwindfunclet$?Load_Alphabet@CMiniGame@@QAEHXZ$3
	DD	02H
	DD	FLAT:__unwindfunclet$?Load_Alphabet@CMiniGame@@QAEHXZ$4
	DD	03H
	DD	FLAT:__unwindfunclet$?Load_Alphabet@CMiniGame@@QAEHXZ$15
	DD	03H
	DD	FLAT:__unwindfunclet$?Load_Alphabet@CMiniGame@@QAEHXZ$14
	DD	01H
	DD	FLAT:__unwindfunclet$?Load_Alphabet@CMiniGame@@QAEHXZ$5
xdata$x	ENDS
;	COMDAT xdata$x
xdata$x	SEGMENT
__ehfuncinfo$??0CMiniGame@@QAE@XZ DD 019930522H
	DD	06H
	DD	FLAT:__unwindtable$??0CMiniGame@@QAE@XZ
	DD	2 DUP(00H)
	DD	2 DUP(00H)
	DD	00H
	DD	01H
__unwindtable$??0CMiniGame@@QAE@XZ DD 0ffffffffH
	DD	FLAT:__unwindfunclet$??0CMiniGame@@QAE@XZ$0
	DD	00H
	DD	FLAT:__unwindfunclet$??0CMiniGame@@QAE@XZ$1
	DD	01H
	DD	FLAT:__unwindfunclet$??0CMiniGame@@QAE@XZ$2
	DD	02H
	DD	FLAT:__unwindfunclet$??0CMiniGame@@QAE@XZ$3
	DD	03H
	DD	FLAT:__unwindfunclet$??0CMiniGame@@QAE@XZ$4
	DD	04H
	DD	FLAT:__unwindfunclet$??0CMiniGame@@QAE@XZ$5
xdata$x	ENDS
;	COMDAT xdata$x
xdata$x	SEGMENT
__ehfuncinfo$??_G__ALPHABET@CMiniGame@@QAEPAXI@Z DD 019930522H
	DD	00H
	DD	00H
	DD	2 DUP(00H)
	DD	2 DUP(00H)
	DD	00H
	DD	05H
xdata$x	ENDS
;	COMDAT xdata$x
xdata$x	SEGMENT
__unwindtable$??0__ALPHABET@CMiniGame@@QAE@$$QAU01@@Z DD 0ffffffffH
	DD	FLAT:__unwindfunclet$??0__ALPHABET@CMiniGame@@QAE@$$QAU01@@Z$0
__ehfuncinfo$??0__ALPHABET@CMiniGame@@QAE@$$QAU01@@Z DD 019930522H
	DD	01H
	DD	FLAT:__unwindtable$??0__ALPHABET@CMiniGame@@QAE@$$QAU01@@Z
	DD	2 DUP(00H)
	DD	2 DUP(00H)
	DD	00H
	DD	01H
xdata$x	ENDS
;	COMDAT xdata$x
xdata$x	SEGMENT
__unwindtable$??0__ALPHABET@CMiniGame@@QAE@ABU01@@Z DD 0ffffffffH
	DD	FLAT:__unwindfunclet$??0__ALPHABET@CMiniGame@@QAE@ABU01@@Z$0
	DD	00H
	DD	FLAT:__unwindfunclet$??0__ALPHABET@CMiniGame@@QAE@ABU01@@Z$1
__ehfuncinfo$??0__ALPHABET@CMiniGame@@QAE@ABU01@@Z DD 019930522H
	DD	02H
	DD	FLAT:__unwindtable$??0__ALPHABET@CMiniGame@@QAE@ABU01@@Z
	DD	2 DUP(00H)
	DD	2 DUP(00H)
	DD	00H
	DD	01H
xdata$x	ENDS
;	COMDAT xdata$x
xdata$x	SEGMENT
__ehfuncinfo$??1__ALPHABET@CMiniGame@@QAE@XZ DD 019930522H
	DD	00H
	DD	00H
	DD	2 DUP(00H)
	DD	2 DUP(00H)
	DD	00H
	DD	05H
xdata$x	ENDS
;	COMDAT xdata$x
xdata$x	SEGMENT
__unwindtable$??0__ALPHABET@CMiniGame@@QAE@XZ DD 0ffffffffH
	DD	FLAT:__unwindfunclet$??0__ALPHABET@CMiniGame@@QAE@XZ$3
	DD	0ffffffffH
	DD	FLAT:__unwindfunclet$??0__ALPHABET@CMiniGame@@QAE@XZ$0
	DD	01H
	DD	FLAT:__unwindfunclet$??0__ALPHABET@CMiniGame@@QAE@XZ$4
__ehfuncinfo$??0__ALPHABET@CMiniGame@@QAE@XZ DD 019930522H
	DD	03H
	DD	FLAT:__unwindtable$??0__ALPHABET@CMiniGame@@QAE@XZ
	DD	2 DUP(00H)
	DD	2 DUP(00H)
	DD	00H
	DD	01H
xdata$x	ENDS
;	COMDAT xdata$x
xdata$x	SEGMENT
__unwindtable$??0?$CStringT@DV?$StrTraitMFC@DV?$ChTraitsCRT@D@ATL@@@@@ATL@@QAE@PBD@Z DD 0ffffffffH
	DD	FLAT:__unwindfunclet$??0?$CStringT@DV?$StrTraitMFC@DV?$ChTraitsCRT@D@ATL@@@@@ATL@@QAE@PBD@Z$0
__ehfuncinfo$??0?$CStringT@DV?$StrTraitMFC@DV?$ChTraitsCRT@D@ATL@@@@@ATL@@QAE@PBD@Z DD 019930522H
	DD	01H
	DD	FLAT:__unwindtable$??0?$CStringT@DV?$StrTraitMFC@DV?$ChTraitsCRT@D@ATL@@@@@ATL@@QAE@PBD@Z
	DD	2 DUP(00H)
	DD	2 DUP(00H)
	DD	00H
	DD	01H
xdata$x	ENDS
; Function compile flags: /Ogtp
; File C:\Program Files\Microsoft Visual Studio\2022\Professional\VC\Tools\MSVC\14.44.35207\include\xutility
;	COMDAT ??$_Copy_memmove_tail@PAU__KAWIBAWIBORESULT@CMiniGame@@@std@@YAPAU__KAWIBAWIBORESULT@CMiniGame@@QBDQAU12@II@Z
_TEXT	SEGMENT
__First_ch$ = 8						; size = 4
__Dest$ = 12						; size = 4
__Byte_count$ = 16					; size = 4
__Object_count$ = 20					; size = 4
??$_Copy_memmove_tail@PAU__KAWIBAWIBORESULT@CMiniGame@@@std@@YAPAU__KAWIBAWIBORESULT@CMiniGame@@QBDQAU12@II@Z PROC ; std::_Copy_memmove_tail<CMiniGame::__KAWIBAWIBORESULT *>, COMDAT

; 4747 :     const char* const _First_ch, const _OutCtgIt _Dest, const size_t _Byte_count, const size_t _Object_count) {

  00000	55		 push	 ebp
  00001	8b ec		 mov	 ebp, esp
  00003	56		 push	 esi

; 4748 :     _STL_INTERNAL_CHECK(_Byte_count == _Object_count * sizeof(*_Dest));
; 4749 :     const auto _Dest_ptr = _STD _To_address(_Dest);
; 4750 :     const auto _Dest_ch  = const_cast<char*>(reinterpret_cast<const volatile char*>(_Dest_ptr));
; 4751 :     _CSTD memmove(_Dest_ch, _First_ch, _Byte_count);

  00004	8b 75 0c	 mov	 esi, DWORD PTR __Dest$[ebp]
  00007	57		 push	 edi
  00008	8b 7d 10	 mov	 edi, DWORD PTR __Byte_count$[ebp]
  0000b	57		 push	 edi
  0000c	ff 75 08	 push	 DWORD PTR __First_ch$[ebp]
  0000f	56		 push	 esi
  00010	e8 00 00 00 00	 call	 _memmove
  00015	83 c4 0c	 add	 esp, 12			; 0000000cH

; 4752 :     if constexpr (is_pointer_v<_OutCtgIt>) {
; 4753 :         (void) _Object_count;
; 4754 :         // CodeQL [SM02986] This cast is correct: we're bypassing pointer arithmetic for performance.
; 4755 :         return reinterpret_cast<_OutCtgIt>(_Dest_ch + _Byte_count);

  00018	8d 04 3e	 lea	 eax, DWORD PTR [esi+edi]
  0001b	5f		 pop	 edi
  0001c	5e		 pop	 esi

; 4756 :     } else {
; 4757 :         return _Dest + static_cast<_Iter_diff_t<_OutCtgIt>>(_Object_count);
; 4758 :     }
; 4759 : }

  0001d	5d		 pop	 ebp
  0001e	c3		 ret	 0
??$_Copy_memmove_tail@PAU__KAWIBAWIBORESULT@CMiniGame@@@std@@YAPAU__KAWIBAWIBORESULT@CMiniGame@@QBDQAU12@II@Z ENDP ; std::_Copy_memmove_tail<CMiniGame::__KAWIBAWIBORESULT *>
_TEXT	ENDS
; Function compile flags: /Ogtp
; File C:\Program Files\Microsoft Visual Studio\2022\Professional\VC\Tools\MSVC\14.44.35207\include\xmemory
;	COMDAT ??1?$_Uninitialized_backout_al@V?$allocator@U__ALPHABET@CMiniGame@@@std@@@std@@QAE@XZ
_TEXT	SEGMENT
??1?$_Uninitialized_backout_al@V?$allocator@U__ALPHABET@CMiniGame@@@std@@@std@@QAE@XZ PROC ; std::_Uninitialized_backout_al<std::allocator<CMiniGame::__ALPHABET> >::~_Uninitialized_backout_al<std::allocator<CMiniGame::__ALPHABET> >, COMDAT
; _this$ = ecx

; 1839 :         _STD _Destroy_range(_First, _Last, _Al);

  00000	ff 71 08	 push	 DWORD PTR [ecx+8]
  00003	ff 71 04	 push	 DWORD PTR [ecx+4]
  00006	ff 31		 push	 DWORD PTR [ecx]
  00008	e8 00 00 00 00	 call	 ??$_Destroy_range@V?$allocator@U__ALPHABET@CMiniGame@@@std@@@std@@YAXPAU__ALPHABET@CMiniGame@@QAU12@AAV?$allocator@U__ALPHABET@CMiniGame@@@0@@Z ; std::_Destroy_range<std::allocator<CMiniGame::__ALPHABET> >
  0000d	83 c4 0c	 add	 esp, 12			; 0000000cH

; 1840 :     }

  00010	c3		 ret	 0
??1?$_Uninitialized_backout_al@V?$allocator@U__ALPHABET@CMiniGame@@@std@@@std@@QAE@XZ ENDP ; std::_Uninitialized_backout_al<std::allocator<CMiniGame::__ALPHABET> >::~_Uninitialized_backout_al<std::allocator<CMiniGame::__ALPHABET> >
_TEXT	ENDS
; Function compile flags: /Ogtp
; File C:\Program Files\Microsoft Visual Studio\2022\Professional\VC\Tools\MSVC\14.44.35207\include\xutility
;	COMDAT ??$_Copy_memmove_tail@PAK@std@@YAPAKQBDQAKII@Z
_TEXT	SEGMENT
__First_ch$ = 8						; size = 4
__Dest$ = 12						; size = 4
__Byte_count$ = 16					; size = 4
__Object_count$ = 20					; size = 4
??$_Copy_memmove_tail@PAK@std@@YAPAKQBDQAKII@Z PROC	; std::_Copy_memmove_tail<unsigned long *>, COMDAT

; 4747 :     const char* const _First_ch, const _OutCtgIt _Dest, const size_t _Byte_count, const size_t _Object_count) {

  00000	55		 push	 ebp
  00001	8b ec		 mov	 ebp, esp
  00003	56		 push	 esi

; 4748 :     _STL_INTERNAL_CHECK(_Byte_count == _Object_count * sizeof(*_Dest));
; 4749 :     const auto _Dest_ptr = _STD _To_address(_Dest);
; 4750 :     const auto _Dest_ch  = const_cast<char*>(reinterpret_cast<const volatile char*>(_Dest_ptr));
; 4751 :     _CSTD memmove(_Dest_ch, _First_ch, _Byte_count);

  00004	8b 75 0c	 mov	 esi, DWORD PTR __Dest$[ebp]
  00007	57		 push	 edi
  00008	8b 7d 10	 mov	 edi, DWORD PTR __Byte_count$[ebp]
  0000b	57		 push	 edi
  0000c	ff 75 08	 push	 DWORD PTR __First_ch$[ebp]
  0000f	56		 push	 esi
  00010	e8 00 00 00 00	 call	 _memmove
  00015	83 c4 0c	 add	 esp, 12			; 0000000cH

; 4752 :     if constexpr (is_pointer_v<_OutCtgIt>) {
; 4753 :         (void) _Object_count;
; 4754 :         // CodeQL [SM02986] This cast is correct: we're bypassing pointer arithmetic for performance.
; 4755 :         return reinterpret_cast<_OutCtgIt>(_Dest_ch + _Byte_count);

  00018	8d 04 3e	 lea	 eax, DWORD PTR [esi+edi]
  0001b	5f		 pop	 edi
  0001c	5e		 pop	 esi

; 4756 :     } else {
; 4757 :         return _Dest + static_cast<_Iter_diff_t<_OutCtgIt>>(_Object_count);
; 4758 :     }
; 4759 : }

  0001d	5d		 pop	 ebp
  0001e	c3		 ret	 0
??$_Copy_memmove_tail@PAK@std@@YAPAKQBDQAKII@Z ENDP	; std::_Copy_memmove_tail<unsigned long *>
_TEXT	ENDS
; Function compile flags: /Ogtp
; File C:\Program Files\Microsoft Visual Studio\2022\Professional\VC\Tools\MSVC\14.44.35207\include\xutility
;	COMDAT ??$_Copy_memmove@PAU__KAWIBAWIBORESULT@CMiniGame@@PAU12@@std@@YAPAU__KAWIBAWIBORESULT@CMiniGame@@PAU12@00@Z
_TEXT	SEGMENT
__First$ = 8						; size = 4
__Last$ = 12						; size = 4
__Dest$ = 16						; size = 4
??$_Copy_memmove@PAU__KAWIBAWIBORESULT@CMiniGame@@PAU12@@std@@YAPAU__KAWIBAWIBORESULT@CMiniGame@@PAU12@00@Z PROC ; std::_Copy_memmove<CMiniGame::__KAWIBAWIBORESULT *,CMiniGame::__KAWIBAWIBORESULT *>, COMDAT

; 4762 : _OutCtgIt _Copy_memmove(_CtgIt _First, _CtgIt _Last, _OutCtgIt _Dest) {

  00000	55		 push	 ebp
  00001	8b ec		 mov	 ebp, esp

; 4763 :     _STL_INTERNAL_CHECK(_First <= _Last);
; 4764 :     const auto _First_ptr    = _STD _To_address(_First);
; 4765 :     const auto _Last_ptr     = _STD _To_address(_Last);
; 4766 :     const auto _Object_count = static_cast<size_t>(_Last_ptr - _First_ptr);

  00003	8b 4d 0c	 mov	 ecx, DWORD PTR __Last$[ebp]
  00006	b8 ab aa aa 2a	 mov	 eax, 715827883		; 2aaaaaabH
  0000b	2b 4d 08	 sub	 ecx, DWORD PTR __First$[ebp]
  0000e	f7 e9		 imul	 ecx
  00010	d1 fa		 sar	 edx, 1
  00012	8b c2		 mov	 eax, edx
  00014	c1 e8 1f	 shr	 eax, 31			; 0000001fH
  00017	03 c2		 add	 eax, edx

; 4767 :     const auto _First_ch     = const_cast<const char*>(reinterpret_cast<const volatile char*>(_First_ptr));
; 4768 :     const auto _Last_ch      = const_cast<const char*>(reinterpret_cast<const volatile char*>(_Last_ptr));
; 4769 :     const auto _Byte_count   = static_cast<size_t>(_Last_ch - _First_ch);
; 4770 :     return _STD _Copy_memmove_tail(_First_ch, _STD move(_Dest), _Byte_count, _Object_count);

  00019	50		 push	 eax
  0001a	51		 push	 ecx
  0001b	ff 75 10	 push	 DWORD PTR __Dest$[ebp]
  0001e	ff 75 08	 push	 DWORD PTR __First$[ebp]
  00021	e8 00 00 00 00	 call	 ??$_Copy_memmove_tail@PAU__KAWIBAWIBORESULT@CMiniGame@@@std@@YAPAU__KAWIBAWIBORESULT@CMiniGame@@QBDQAU12@II@Z ; std::_Copy_memmove_tail<CMiniGame::__KAWIBAWIBORESULT *>
  00026	83 c4 10	 add	 esp, 16			; 00000010H

; 4771 : }

  00029	5d		 pop	 ebp
  0002a	c3		 ret	 0
??$_Copy_memmove@PAU__KAWIBAWIBORESULT@CMiniGame@@PAU12@@std@@YAPAU__KAWIBAWIBORESULT@CMiniGame@@PAU12@00@Z ENDP ; std::_Copy_memmove<CMiniGame::__KAWIBAWIBORESULT *,CMiniGame::__KAWIBAWIBORESULT *>
_TEXT	ENDS
; Function compile flags: /Ogtp
; File C:\Program Files\Microsoft Visual Studio\2022\Professional\VC\Tools\MSVC\14.44.35207\include\xutility
;	COMDAT ??$_Copy_memmove@PAU__ITEMGAME@CMiniGame@@PAU12@@std@@YAPAU__ITEMGAME@CMiniGame@@PAU12@00@Z
_TEXT	SEGMENT
__First$ = 8						; size = 4
__Last$ = 12						; size = 4
__Dest$ = 16						; size = 4
??$_Copy_memmove@PAU__ITEMGAME@CMiniGame@@PAU12@@std@@YAPAU__ITEMGAME@CMiniGame@@PAU12@00@Z PROC ; std::_Copy_memmove<CMiniGame::__ITEMGAME *,CMiniGame::__ITEMGAME *>, COMDAT

; 4762 : _OutCtgIt _Copy_memmove(_CtgIt _First, _CtgIt _Last, _OutCtgIt _Dest) {

  00000	55		 push	 ebp
  00001	8b ec		 mov	 ebp, esp

; 4763 :     _STL_INTERNAL_CHECK(_First <= _Last);
; 4764 :     const auto _First_ptr    = _STD _To_address(_First);
; 4765 :     const auto _Last_ptr     = _STD _To_address(_Last);
; 4766 :     const auto _Object_count = static_cast<size_t>(_Last_ptr - _First_ptr);

  00003	8b 4d 0c	 mov	 ecx, DWORD PTR __Last$[ebp]
  00006	b8 ab aa aa 2a	 mov	 eax, 715827883		; 2aaaaaabH
  0000b	2b 4d 08	 sub	 ecx, DWORD PTR __First$[ebp]
  0000e	f7 e9		 imul	 ecx
  00010	d1 fa		 sar	 edx, 1
  00012	8b c2		 mov	 eax, edx
  00014	c1 e8 1f	 shr	 eax, 31			; 0000001fH
  00017	03 c2		 add	 eax, edx

; 4767 :     const auto _First_ch     = const_cast<const char*>(reinterpret_cast<const volatile char*>(_First_ptr));
; 4768 :     const auto _Last_ch      = const_cast<const char*>(reinterpret_cast<const volatile char*>(_Last_ptr));
; 4769 :     const auto _Byte_count   = static_cast<size_t>(_Last_ch - _First_ch);
; 4770 :     return _STD _Copy_memmove_tail(_First_ch, _STD move(_Dest), _Byte_count, _Object_count);

  00019	50		 push	 eax
  0001a	51		 push	 ecx
  0001b	ff 75 10	 push	 DWORD PTR __Dest$[ebp]
  0001e	ff 75 08	 push	 DWORD PTR __First$[ebp]
  00021	e8 00 00 00 00	 call	 ??$_Copy_memmove_tail@PAU__ITEMGAME@CMiniGame@@@std@@YAPAU__ITEMGAME@CMiniGame@@QBDQAU12@II@Z ; std::_Copy_memmove_tail<CMiniGame::__ITEMGAME *>
  00026	83 c4 10	 add	 esp, 16			; 00000010H

; 4771 : }

  00029	5d		 pop	 ebp
  0002a	c3		 ret	 0
??$_Copy_memmove@PAU__ITEMGAME@CMiniGame@@PAU12@@std@@YAPAU__ITEMGAME@CMiniGame@@PAU12@00@Z ENDP ; std::_Copy_memmove<CMiniGame::__ITEMGAME *,CMiniGame::__ITEMGAME *>
_TEXT	ENDS
; Function compile flags: /Ogtp
; File C:\Program Files\Microsoft Visual Studio\2022\Professional\VC\Tools\MSVC\14.44.35207\include\xutility
;	COMDAT ??$_Copy_memmove_tail@PAU__ITEMGAME@CMiniGame@@@std@@YAPAU__ITEMGAME@CMiniGame@@QBDQAU12@II@Z
_TEXT	SEGMENT
__First_ch$ = 8						; size = 4
__Dest$ = 12						; size = 4
__Byte_count$ = 16					; size = 4
__Object_count$ = 20					; size = 4
??$_Copy_memmove_tail@PAU__ITEMGAME@CMiniGame@@@std@@YAPAU__ITEMGAME@CMiniGame@@QBDQAU12@II@Z PROC ; std::_Copy_memmove_tail<CMiniGame::__ITEMGAME *>, COMDAT

; 4747 :     const char* const _First_ch, const _OutCtgIt _Dest, const size_t _Byte_count, const size_t _Object_count) {

  00000	55		 push	 ebp
  00001	8b ec		 mov	 ebp, esp
  00003	56		 push	 esi

; 4748 :     _STL_INTERNAL_CHECK(_Byte_count == _Object_count * sizeof(*_Dest));
; 4749 :     const auto _Dest_ptr = _STD _To_address(_Dest);
; 4750 :     const auto _Dest_ch  = const_cast<char*>(reinterpret_cast<const volatile char*>(_Dest_ptr));
; 4751 :     _CSTD memmove(_Dest_ch, _First_ch, _Byte_count);

  00004	8b 75 0c	 mov	 esi, DWORD PTR __Dest$[ebp]
  00007	57		 push	 edi
  00008	8b 7d 10	 mov	 edi, DWORD PTR __Byte_count$[ebp]
  0000b	57		 push	 edi
  0000c	ff 75 08	 push	 DWORD PTR __First_ch$[ebp]
  0000f	56		 push	 esi
  00010	e8 00 00 00 00	 call	 _memmove
  00015	83 c4 0c	 add	 esp, 12			; 0000000cH

; 4752 :     if constexpr (is_pointer_v<_OutCtgIt>) {
; 4753 :         (void) _Object_count;
; 4754 :         // CodeQL [SM02986] This cast is correct: we're bypassing pointer arithmetic for performance.
; 4755 :         return reinterpret_cast<_OutCtgIt>(_Dest_ch + _Byte_count);

  00018	8d 04 3e	 lea	 eax, DWORD PTR [esi+edi]
  0001b	5f		 pop	 edi
  0001c	5e		 pop	 esi

; 4756 :     } else {
; 4757 :         return _Dest + static_cast<_Iter_diff_t<_OutCtgIt>>(_Object_count);
; 4758 :     }
; 4759 : }

  0001d	5d		 pop	 ebp
  0001e	c3		 ret	 0
??$_Copy_memmove_tail@PAU__ITEMGAME@CMiniGame@@@std@@YAPAU__ITEMGAME@CMiniGame@@QBDQAU12@II@Z ENDP ; std::_Copy_memmove_tail<CMiniGame::__ITEMGAME *>
_TEXT	ENDS
; Function compile flags: /Ogtp
; File C:\Program Files\Microsoft Visual Studio\2022\Professional\VC\Tools\MSVC\14.44.35207\include\xmemory
; File C:\Program Files\Microsoft Visual Studio\2022\Professional\VC\Tools\MSVC\14.44.35207\atlmfc\include\atlsimpstr.h
; File C:\Program Files\Microsoft Visual Studio\2022\Professional\VC\Tools\MSVC\14.44.35207\include\xmemory
; File C:\Program Files\Microsoft Visual Studio\2022\Professional\VC\Tools\MSVC\14.44.35207\atlmfc\include\atlsimpstr.h
; File C:\Program Files\Microsoft Visual Studio\2022\Professional\VC\Tools\MSVC\14.44.35207\include\xmemory
; File C:\Program Files\Microsoft Visual Studio\2022\Professional\VC\Tools\MSVC\14.44.35207\include\utility
; File C:\Program Files\Microsoft Visual Studio\2022\Professional\VC\Tools\MSVC\14.44.35207\atlmfc\include\atlsimpstr.h
; File C:\Program Files\Microsoft Visual Studio\2022\Professional\VC\Tools\MSVC\14.44.35207\include\utility
; File C:\Program Files\Microsoft Visual Studio\2022\Professional\VC\Tools\MSVC\14.44.35207\include\vector
; File C:\Program Files\Microsoft Visual Studio\2022\Professional\VC\Tools\MSVC\14.44.35207\include\xmemory
; File C:\Program Files\Microsoft Visual Studio\2022\Professional\VC\Tools\MSVC\14.44.35207\include\vector
; File C:\Program Files\Microsoft Visual Studio\2022\Professional\VC\Tools\MSVC\14.44.35207\include\xmemory
;	COMDAT ??$_Uninitialized_move@PAU__ALPHABET@CMiniGame@@V?$allocator@U__ALPHABET@CMiniGame@@@std@@@std@@YAPAU__ALPHABET@CMiniGame@@QAU12@0PAU12@AAV?$allocator@U__ALPHABET@CMiniGame@@@0@@Z
_TEXT	SEGMENT
__Backout$ = -24					; size = 12
__$EHRec$ = -12						; size = 12
__First$ = 8						; size = 4
_this$ = 8						; size = 4
_this$ = 8						; size = 4
__Last$ = 12						; size = 4
__Dest$ = 16						; size = 4
$T2 = 16						; size = 4
__Al$ = 20						; size = 4
??$_Uninitialized_move@PAU__ALPHABET@CMiniGame@@V?$allocator@U__ALPHABET@CMiniGame@@@std@@@std@@YAPAU__ALPHABET@CMiniGame@@QAU12@0PAU12@AAV?$allocator@U__ALPHABET@CMiniGame@@@0@@Z PROC ; std::_Uninitialized_move<CMiniGame::__ALPHABET *,std::allocator<CMiniGame::__ALPHABET> >, COMDAT

; 1977 :     const _InIt _First, const _InIt _Last, _Alloc_ptr_t<_Alloc> _Dest, _Alloc& _Al) {

  00000	55		 push	 ebp
  00001	8b ec		 mov	 ebp, esp
  00003	6a ff		 push	 -1
  00005	68 00 00 00 00	 push	 __ehhandler$??$_Uninitialized_move@PAU__ALPHABET@CMiniGame@@V?$allocator@U__ALPHABET@CMiniGame@@@std@@@std@@YAPAU__ALPHABET@CMiniGame@@QAU12@0PAU12@AAV?$allocator@U__ALPHABET@CMiniGame@@@0@@Z
  0000a	64 a1 00 00 00
	00		 mov	 eax, DWORD PTR fs:0
  00010	50		 push	 eax
  00011	83 ec 0c	 sub	 esp, 12			; 0000000cH
  00014	53		 push	 ebx
  00015	56		 push	 esi
  00016	57		 push	 edi
  00017	a1 00 00 00 00	 mov	 eax, DWORD PTR ___security_cookie
  0001c	33 c5		 xor	 eax, ebp
  0001e	50		 push	 eax
  0001f	8d 45 f4	 lea	 eax, DWORD PTR __$EHRec$[ebp]
  00022	64 a3 00 00 00
	00		 mov	 DWORD PTR fs:0, eax

; 1833 :     _CONSTEXPR20 _Uninitialized_backout_al(pointer _Dest, _Alloc& _Al_) : _First(_Dest), _Last(_Dest), _Al(_Al_) {}

  00028	8b 5d 10	 mov	 ebx, DWORD PTR __Dest$[ebp]
  0002b	8b 45 14	 mov	 eax, DWORD PTR __Al$[ebp]
  0002e	89 5d e8	 mov	 DWORD PTR __Backout$[ebp], ebx
  00031	89 5d ec	 mov	 DWORD PTR __Backout$[ebp+4], ebx
  00034	89 45 f0	 mov	 DWORD PTR __Backout$[ebp+8], eax

; 1998 :     for (; _UFirst != _ULast; ++_UFirst) {

  00037	8b 75 08	 mov	 esi, DWORD PTR __First$[ebp]
  0003a	c7 45 fc 00 00
	00 00		 mov	 DWORD PTR __$EHRec$[ebp+8], 0
  00041	3b 75 0c	 cmp	 esi, DWORD PTR __Last$[ebp]
  00044	0f 84 82 00 00
	00		 je	 $LN3@Uninitiali

; 1833 :     _CONSTEXPR20 _Uninitialized_backout_al(pointer _Dest, _Alloc& _Al_) : _First(_Dest), _Last(_Dest), _Al(_Al_) {}

  0004a	83 c6 10	 add	 esi, 16			; 00000010H
  0004d	0f 1f 00	 npad	 3
$LL4@Uninitiali:
  00050	8b 46 f0	 mov	 eax, DWORD PTR [esi-16]
  00053	8d 7b 04	 lea	 edi, DWORD PTR [ebx+4]
  00056	89 03		 mov	 DWORD PTR [ebx], eax
; File C:\Program Files\Microsoft Visual Studio\2022\Professional\VC\Tools\MSVC\14.44.35207\atlmfc\include\atlsimpstr.h

; 804  : 		return( reinterpret_cast< CStringData* >( m_pszData )-1 );

  00058	8b 46 f4	 mov	 eax, DWORD PTR [esi-12]
  0005b	83 e8 10	 sub	 eax, 16			; 00000010H
; File C:\Program Files\Microsoft Visual Studio\2022\Professional\VC\Tools\MSVC\14.44.35207\include\xmemory

; 732  :         ::new (const_cast<void*>(static_cast<const volatile void*>(_Ptr))) _Objty(_STD forward<_Types>(_Args)...);

  0005e	89 5d 10	 mov	 DWORD PTR $T2[ebp], ebx
; File C:\Program Files\Microsoft Visual Studio\2022\Professional\VC\Tools\MSVC\14.44.35207\atlmfc\include\atlsimpstr.h

; 217  : 		CStringData* pNewData = CloneData( pSrcData );

  00061	50		 push	 eax
  00062	89 7d 08	 mov	 DWORD PTR _this$[ebp], edi
  00065	e8 00 00 00 00	 call	 ?CloneData@?$CSimpleStringT@D$0A@@ATL@@CAPAUCStringData@2@PAU32@@Z ; ATL::CSimpleStringT<char,0>::CloneData

; 218  : 		Attach( pNewData );

  0006a	83 c0 10	 add	 eax, 16			; 00000010H
  0006d	89 07		 mov	 DWORD PTR [edi], eax

; 804  : 		return( reinterpret_cast< CStringData* >( m_pszData )-1 );

  0006f	8b 46 f8	 mov	 eax, DWORD PTR [esi-8]
  00072	8d 7b 08	 lea	 edi, DWORD PTR [ebx+8]
  00075	83 e8 10	 sub	 eax, 16			; 00000010H
  00078	c6 45 fc 01	 mov	 BYTE PTR __$EHRec$[ebp+8], 1

; 217  : 		CStringData* pNewData = CloneData( pSrcData );

  0007c	50		 push	 eax
  0007d	89 7d 08	 mov	 DWORD PTR _this$[ebp], edi
  00080	e8 00 00 00 00	 call	 ?CloneData@?$CSimpleStringT@D$0A@@ATL@@CAPAUCStringData@2@PAU32@@Z ; ATL::CSimpleStringT<char,0>::CloneData

; 218  : 		Attach( pNewData );

  00085	83 c0 10	 add	 eax, 16			; 00000010H
  00088	c6 45 fc 00	 mov	 BYTE PTR __$EHRec$[ebp+8], 0
  0008c	89 07		 mov	 DWORD PTR [edi], eax
; File C:\Program Files\Microsoft Visual Studio\2022\Professional\VC\Tools\MSVC\14.44.35207\include\xmemory

; 1998 :     for (; _UFirst != _ULast; ++_UFirst) {

  0008e	8d 76 18	 lea	 esi, DWORD PTR [esi+24]
; File C:\Program Files\Microsoft Visual Studio\2022\Professional\VC\Tools\MSVC\14.44.35207\include\utility

; 773  :     _Ty _Old_val = static_cast<_Ty&&>(_Val);

  00091	8b 46 e4	 mov	 eax, DWORD PTR [esi-28]
; File C:\Program Files\Microsoft Visual Studio\2022\Professional\VC\Tools\MSVC\14.44.35207\atlmfc\include\atlsimpstr.h

; 217  : 		CStringData* pNewData = CloneData( pSrcData );

  00094	83 c4 08	 add	 esp, 8
; File C:\Program Files\Microsoft Visual Studio\2022\Professional\VC\Tools\MSVC\14.44.35207\include\utility

; 773  :     _Ty _Old_val = static_cast<_Ty&&>(_Val);

  00097	8b 56 ec	 mov	 edx, DWORD PTR [esi-20]
  0009a	8b 4e e8	 mov	 ecx, DWORD PTR [esi-24]

; 774  :     _Val         = static_cast<_Other&&>(_New_val);

  0009d	c7 46 ec 00 00
	00 00		 mov	 DWORD PTR [esi-20], 0
  000a4	c7 46 e8 00 00
	00 00		 mov	 DWORD PTR [esi-24], 0
  000ab	c7 46 e4 00 00
	00 00		 mov	 DWORD PTR [esi-28], 0
; File C:\Program Files\Microsoft Visual Studio\2022\Professional\VC\Tools\MSVC\14.44.35207\include\vector

; 403  :         : _Myfirst(_First), _Mylast(_Last), _Myend(_End) {}

  000b2	89 43 0c	 mov	 DWORD PTR [ebx+12], eax
; File C:\Program Files\Microsoft Visual Studio\2022\Professional\VC\Tools\MSVC\14.44.35207\include\xmemory

; 1998 :     for (; _UFirst != _ULast; ++_UFirst) {

  000b5	8d 46 f0	 lea	 eax, DWORD PTR [esi-16]
; File C:\Program Files\Microsoft Visual Studio\2022\Professional\VC\Tools\MSVC\14.44.35207\include\vector

; 403  :         : _Myfirst(_First), _Mylast(_Last), _Myend(_End) {}

  000b8	89 4b 10	 mov	 DWORD PTR [ebx+16], ecx
  000bb	89 53 14	 mov	 DWORD PTR [ebx+20], edx
; File C:\Program Files\Microsoft Visual Studio\2022\Professional\VC\Tools\MSVC\14.44.35207\include\xmemory

; 1845 :         ++_Last;

  000be	83 c3 18	 add	 ebx, 24			; 00000018H
  000c1	89 5d ec	 mov	 DWORD PTR __Backout$[ebp+4], ebx

; 1998 :     for (; _UFirst != _ULast; ++_UFirst) {

  000c4	3b 45 0c	 cmp	 eax, DWORD PTR __Last$[ebp]
  000c7	75 87		 jne	 SHORT $LL4@Uninitiali
  000c9	8b 45 14	 mov	 eax, DWORD PTR __Al$[ebp]
$LN3@Uninitiali:

; 1839 :         _STD _Destroy_range(_First, _Last, _Al);

  000cc	50		 push	 eax
  000cd	53		 push	 ebx
  000ce	53		 push	 ebx
  000cf	e8 00 00 00 00	 call	 ??$_Destroy_range@V?$allocator@U__ALPHABET@CMiniGame@@@std@@@std@@YAXPAU__ALPHABET@CMiniGame@@QAU12@AAV?$allocator@U__ALPHABET@CMiniGame@@@0@@Z ; std::_Destroy_range<std::allocator<CMiniGame::__ALPHABET> >
  000d4	83 c4 0c	 add	 esp, 12			; 0000000cH

; 1999 :         _Backout._Emplace_back(_STD move(*_UFirst));
; 2000 :     }
; 2001 : 
; 2002 :     return _Backout._Release();

  000d7	8b c3		 mov	 eax, ebx

; 2003 : }

  000d9	8b 4d f4	 mov	 ecx, DWORD PTR __$EHRec$[ebp]
  000dc	64 89 0d 00 00
	00 00		 mov	 DWORD PTR fs:0, ecx
  000e3	59		 pop	 ecx
  000e4	5f		 pop	 edi
  000e5	5e		 pop	 esi
  000e6	5b		 pop	 ebx
  000e7	8b e5		 mov	 esp, ebp
  000e9	5d		 pop	 ebp
  000ea	c3		 ret	 0
_TEXT	ENDS
;	COMDAT text$x
text$x	SEGMENT
__unwindfunclet$??$_Uninitialized_move@PAU__ALPHABET@CMiniGame@@V?$allocator@U__ALPHABET@CMiniGame@@@std@@@std@@YAPAU__ALPHABET@CMiniGame@@QAU12@0PAU12@AAV?$allocator@U__ALPHABET@CMiniGame@@@0@@Z$0:
  00000	8d 4d e8	 lea	 ecx, DWORD PTR __Backout$[ebp]
  00003	e9 00 00 00 00	 jmp	 ??1?$_Uninitialized_backout_al@V?$allocator@U__ALPHABET@CMiniGame@@@std@@@std@@QAE@XZ ; std::_Uninitialized_backout_al<std::allocator<CMiniGame::__ALPHABET> >::~_Uninitialized_backout_al<std::allocator<CMiniGame::__ALPHABET> >
__unwindfunclet$??$_Uninitialized_move@PAU__ALPHABET@CMiniGame@@V?$allocator@U__ALPHABET@CMiniGame@@@std@@@std@@YAPAU__ALPHABET@CMiniGame@@QAU12@0PAU12@AAV?$allocator@U__ALPHABET@CMiniGame@@@0@@Z$1:
  00008	8b 4d 10	 mov	 ecx, DWORD PTR $T2[ebp]
  0000b	83 c1 04	 add	 ecx, 4
  0000e	e9 00 00 00 00	 jmp	 ??1?$CStringT@DV?$StrTraitMFC@DV?$ChTraitsCRT@D@ATL@@@@@ATL@@QAE@XZ ; ATL::CStringT<char,StrTraitMFC<char,ATL::ChTraitsCRT<char> > >::~CStringT<char,StrTraitMFC<char,ATL::ChTraitsCRT<char> > >
  00013	cc		 int	 3
  00014	cc		 int	 3
  00015	cc		 int	 3
  00016	cc		 int	 3
  00017	cc		 int	 3
__ehhandler$??$_Uninitialized_move@PAU__ALPHABET@CMiniGame@@V?$allocator@U__ALPHABET@CMiniGame@@@std@@@std@@YAPAU__ALPHABET@CMiniGame@@QAU12@0PAU12@AAV?$allocator@U__ALPHABET@CMiniGame@@@0@@Z:
  00018	90		 npad	 1
  00019	90		 npad	 1
  0001a	8b 54 24 08	 mov	 edx, DWORD PTR [esp+8]
  0001e	8d 42 0c	 lea	 eax, DWORD PTR [edx+12]
  00021	8b 4a e4	 mov	 ecx, DWORD PTR [edx-28]
  00024	33 c8		 xor	 ecx, eax
  00026	e8 00 00 00 00	 call	 @__security_check_cookie@4
  0002b	b8 00 00 00 00	 mov	 eax, OFFSET __ehfuncinfo$??$_Uninitialized_move@PAU__ALPHABET@CMiniGame@@V?$allocator@U__ALPHABET@CMiniGame@@@std@@@std@@YAPAU__ALPHABET@CMiniGame@@QAU12@0PAU12@AAV?$allocator@U__ALPHABET@CMiniGame@@@0@@Z
  00030	e9 00 00 00 00	 jmp	 ___CxxFrameHandler3
text$x	ENDS
??$_Uninitialized_move@PAU__ALPHABET@CMiniGame@@V?$allocator@U__ALPHABET@CMiniGame@@@std@@@std@@YAPAU__ALPHABET@CMiniGame@@QAU12@0PAU12@AAV?$allocator@U__ALPHABET@CMiniGame@@@0@@Z ENDP ; std::_Uninitialized_move<CMiniGame::__ALPHABET *,std::allocator<CMiniGame::__ALPHABET> >
; Function compile flags: /Ogtp
; File C:\Program Files\Microsoft Visual Studio\2022\Professional\VC\Tools\MSVC\14.44.35207\include\vector
; File C:\Program Files\Microsoft Visual Studio\2022\Professional\VC\Tools\MSVC\14.44.35207\include\xmemory
; File C:\Program Files\Microsoft Visual Studio\2022\Professional\VC\Tools\MSVC\14.44.35207\include\vector
; File C:\Program Files\Microsoft Visual Studio\2022\Professional\VC\Tools\MSVC\14.44.35207\include\xmemory
; File C:\Program Files\Microsoft Visual Studio\2022\Professional\VC\Tools\MSVC\14.44.35207\include\vector
; File C:\Program Files\Microsoft Visual Studio\2022\Professional\VC\Tools\MSVC\14.44.35207\include\xmemory
; File C:\Program Files\Microsoft Visual Studio\2022\Professional\VC\Tools\MSVC\14.44.35207\include\vector
;	COMDAT ??1_Reallocation_guard@?$vector@U__ALPHABET@CMiniGame@@V?$allocator@U__ALPHABET@CMiniGame@@@std@@@std@@QAE@XZ
_TEXT	SEGMENT
??1_Reallocation_guard@?$vector@U__ALPHABET@CMiniGame@@V?$allocator@U__ALPHABET@CMiniGame@@@std@@@std@@QAE@XZ PROC ; std::vector<CMiniGame::__ALPHABET,std::allocator<CMiniGame::__ALPHABET> >::_Reallocation_guard::~_Reallocation_guard, COMDAT
; _this$ = ecx

; 620  :         _CONSTEXPR20 ~_Reallocation_guard() noexcept {

  00000	56		 push	 esi
  00001	8b f1		 mov	 esi, ecx

; 621  :             if (_New_begin != nullptr) {

  00003	83 7e 04 00	 cmp	 DWORD PTR [esi+4], 0
  00007	74 40		 je	 SHORT $LN10@Reallocati

; 622  :                 _STD _Destroy_range(_Constructed_first, _Constructed_last, _Al);

  00009	ff 36		 push	 DWORD PTR [esi]
  0000b	ff 76 10	 push	 DWORD PTR [esi+16]
  0000e	ff 76 0c	 push	 DWORD PTR [esi+12]
  00011	e8 00 00 00 00	 call	 ??$_Destroy_range@V?$allocator@U__ALPHABET@CMiniGame@@@std@@@std@@YAXPAU__ALPHABET@CMiniGame@@QAU12@AAV?$allocator@U__ALPHABET@CMiniGame@@@0@@Z ; std::_Destroy_range<std::allocator<CMiniGame::__ALPHABET> >
; File C:\Program Files\Microsoft Visual Studio\2022\Professional\VC\Tools\MSVC\14.44.35207\include\xmemory

; 985  :         _STD _Deallocate<_New_alignof<_Ty>>(_Ptr, sizeof(_Ty) * _Count);

  00016	8b 46 08	 mov	 eax, DWORD PTR [esi+8]
; File C:\Program Files\Microsoft Visual Studio\2022\Professional\VC\Tools\MSVC\14.44.35207\include\vector

; 622  :                 _STD _Destroy_range(_Constructed_first, _Constructed_last, _Al);

  00019	83 c4 0c	 add	 esp, 12			; 0000000cH
; File C:\Program Files\Microsoft Visual Studio\2022\Professional\VC\Tools\MSVC\14.44.35207\include\xmemory

; 985  :         _STD _Deallocate<_New_alignof<_Ty>>(_Ptr, sizeof(_Ty) * _Count);

  0001c	8d 0c 40	 lea	 ecx, DWORD PTR [eax+eax*2]
  0001f	8b 46 04	 mov	 eax, DWORD PTR [esi+4]
  00022	c1 e1 03	 shl	 ecx, 3

; 284  :         if (_Bytes >= _Big_allocation_threshold) {

  00025	81 f9 00 10 00
	00		 cmp	 ecx, 4096		; 00001000H
  0002b	72 12		 jb	 SHORT $LN15@Reallocati

; 205  :     const uintptr_t _Ptr_container   = _Ptr_user[-1];

  0002d	8b 50 fc	 mov	 edx, DWORD PTR [eax-4]
  00030	83 c1 23	 add	 ecx, 35			; 00000023H

; 206  : 
; 207  :     // If the following asserts, it likely means that we are performing
; 208  :     // an aligned delete on memory coming from an unaligned allocation.
; 209  :     _STL_ASSERT(_Ptr_user[-2] == _Big_allocation_sentinel, "invalid argument");
; 210  : 
; 211  :     // Extra paranoia on aligned allocation/deallocation; ensure _Ptr_container is
; 212  :     // in range [_Min_back_shift, _Non_user_size]
; 213  : #ifdef _DEBUG
; 214  :     constexpr uintptr_t _Min_back_shift = 2 * sizeof(void*);
; 215  : #else // ^^^ defined(_DEBUG) / !defined(_DEBUG) vvv
; 216  :     constexpr uintptr_t _Min_back_shift = sizeof(void*);
; 217  : #endif // ^^^ !defined(_DEBUG) ^^^
; 218  :     const uintptr_t _Back_shift = reinterpret_cast<uintptr_t>(_Ptr) - _Ptr_container;

  00033	2b c2		 sub	 eax, edx

; 219  :     _STL_VERIFY(_Back_shift >= _Min_back_shift && _Back_shift <= _Non_user_size, "invalid argument");

  00035	83 c0 fc	 add	 eax, -4			; fffffffcH
  00038	83 f8 1f	 cmp	 eax, 31			; 0000001fH
  0003b	77 0e		 ja	 SHORT $LN14@Reallocati

; 220  :     _Ptr = reinterpret_cast<void*>(_Ptr_container);

  0003d	8b c2		 mov	 eax, edx
$LN15@Reallocati:

; 289  :         ::operator delete(_Ptr, _Bytes);

  0003f	51		 push	 ecx
  00040	50		 push	 eax
  00041	e8 00 00 00 00	 call	 ??3@YAXPAXI@Z		; operator delete
  00046	83 c4 08	 add	 esp, 8
$LN10@Reallocati:
  00049	5e		 pop	 esi
; File C:\Program Files\Microsoft Visual Studio\2022\Professional\VC\Tools\MSVC\14.44.35207\include\vector

; 625  :         }

  0004a	c3		 ret	 0
$LN14@Reallocati:
; File C:\Program Files\Microsoft Visual Studio\2022\Professional\VC\Tools\MSVC\14.44.35207\include\xmemory

; 219  :     _STL_VERIFY(_Back_shift >= _Min_back_shift && _Back_shift <= _Non_user_size, "invalid argument");

  0004b	6a 00		 push	 0
  0004d	6a 00		 push	 0
  0004f	6a 00		 push	 0
  00051	6a 00		 push	 0
  00053	6a 00		 push	 0
  00055	e8 00 00 00 00	 call	 __invoke_watson
$LN22@Reallocati:
  0005a	cc		 int	 3
??1_Reallocation_guard@?$vector@U__ALPHABET@CMiniGame@@V?$allocator@U__ALPHABET@CMiniGame@@@std@@@std@@QAE@XZ ENDP ; std::vector<CMiniGame::__ALPHABET,std::allocator<CMiniGame::__ALPHABET> >::_Reallocation_guard::~_Reallocation_guard
_TEXT	ENDS
; Function compile flags: /Ogtp
; File C:\Program Files\Microsoft Visual Studio\2022\Professional\VC\Tools\MSVC\14.44.35207\include\xutility
;	COMDAT ??$_Copy_memmove@PAKPAK@std@@YAPAKPAK00@Z
_TEXT	SEGMENT
__First$ = 8						; size = 4
__Last$ = 12						; size = 4
__Dest$ = 16						; size = 4
??$_Copy_memmove@PAKPAK@std@@YAPAKPAK00@Z PROC		; std::_Copy_memmove<unsigned long *,unsigned long *>, COMDAT

; 4762 : _OutCtgIt _Copy_memmove(_CtgIt _First, _CtgIt _Last, _OutCtgIt _Dest) {

  00000	55		 push	 ebp
  00001	8b ec		 mov	 ebp, esp

; 4763 :     _STL_INTERNAL_CHECK(_First <= _Last);
; 4764 :     const auto _First_ptr    = _STD _To_address(_First);
; 4765 :     const auto _Last_ptr     = _STD _To_address(_Last);
; 4766 :     const auto _Object_count = static_cast<size_t>(_Last_ptr - _First_ptr);

  00003	8b 55 08	 mov	 edx, DWORD PTR __First$[ebp]
  00006	8b 4d 0c	 mov	 ecx, DWORD PTR __Last$[ebp]
  00009	2b ca		 sub	 ecx, edx
  0000b	8b c1		 mov	 eax, ecx
  0000d	c1 f8 02	 sar	 eax, 2

; 4767 :     const auto _First_ch     = const_cast<const char*>(reinterpret_cast<const volatile char*>(_First_ptr));
; 4768 :     const auto _Last_ch      = const_cast<const char*>(reinterpret_cast<const volatile char*>(_Last_ptr));
; 4769 :     const auto _Byte_count   = static_cast<size_t>(_Last_ch - _First_ch);
; 4770 :     return _STD _Copy_memmove_tail(_First_ch, _STD move(_Dest), _Byte_count, _Object_count);

  00010	50		 push	 eax
  00011	51		 push	 ecx
  00012	ff 75 10	 push	 DWORD PTR __Dest$[ebp]
  00015	52		 push	 edx
  00016	e8 00 00 00 00	 call	 ??$_Copy_memmove_tail@PAK@std@@YAPAKQBDQAKII@Z ; std::_Copy_memmove_tail<unsigned long *>
  0001b	83 c4 10	 add	 esp, 16			; 00000010H

; 4771 : }

  0001e	5d		 pop	 ebp
  0001f	c3		 ret	 0
??$_Copy_memmove@PAKPAK@std@@YAPAKPAK00@Z ENDP		; std::_Copy_memmove<unsigned long *,unsigned long *>
_TEXT	ENDS
; Function compile flags: /Ogtp
; File C:\Program Files\Microsoft Visual Studio\2022\Professional\VC\Tools\MSVC\14.44.35207\include\xmemory
;	COMDAT ??1?$_Alloc_construct_ptr@V?$allocator@U?$_Tree_node@U?$pair@$$CBHU__KAWIBAWIBO@CMiniGame@@@std@@PAX@std@@@std@@@std@@QAE@XZ
_TEXT	SEGMENT
??1?$_Alloc_construct_ptr@V?$allocator@U?$_Tree_node@U?$pair@$$CBHU__KAWIBAWIBO@CMiniGame@@@std@@PAX@std@@@std@@@std@@QAE@XZ PROC ; std::_Alloc_construct_ptr<std::allocator<std::_Tree_node<std::pair<int const ,CMiniGame::__KAWIBAWIBO>,void *> > >::~_Alloc_construct_ptr<std::allocator<std::_Tree_node<std::pair<int const ,CMiniGame::__KAWIBAWIBO>,void *> > >, COMDAT
; _this$ = ecx

; 1172 :         if (_Ptr) {

  00000	8b 41 04	 mov	 eax, DWORD PTR [ecx+4]
  00003	85 c0		 test	 eax, eax
  00005	74 0b		 je	 SHORT $LN10@Alloc_cons

; 289  :         ::operator delete(_Ptr, _Bytes);

  00007	6a 28		 push	 40			; 00000028H
  00009	50		 push	 eax
  0000a	e8 00 00 00 00	 call	 ??3@YAXPAXI@Z		; operator delete
  0000f	83 c4 08	 add	 esp, 8
$LN10@Alloc_cons:

; 1173 :             _Al.deallocate(_Ptr, 1);
; 1174 :         }
; 1175 :     }

  00012	c3		 ret	 0
??1?$_Alloc_construct_ptr@V?$allocator@U?$_Tree_node@U?$pair@$$CBHU__KAWIBAWIBO@CMiniGame@@@std@@PAX@std@@@std@@@std@@QAE@XZ ENDP ; std::_Alloc_construct_ptr<std::allocator<std::_Tree_node<std::pair<int const ,CMiniGame::__KAWIBAWIBO>,void *> > >::~_Alloc_construct_ptr<std::allocator<std::_Tree_node<std::pair<int const ,CMiniGame::__KAWIBAWIBO>,void *> > >
_TEXT	ENDS
; Function compile flags: /Ogtp
; File C:\Program Files\Microsoft Visual Studio\2022\Professional\VC\Tools\MSVC\14.44.35207\include\xmemory
;	COMDAT ??1?$_Tree_temp_node_alloc@V?$allocator@U?$_Tree_node@U?$pair@$$CBHV?$CStringT@DV?$StrTraitMFC@DV?$ChTraitsCRT@D@ATL@@@@@ATL@@@std@@PAX@std@@@std@@@std@@QAE@XZ
_TEXT	SEGMENT
??1?$_Tree_temp_node_alloc@V?$allocator@U?$_Tree_node@U?$pair@$$CBHV?$CStringT@DV?$StrTraitMFC@DV?$ChTraitsCRT@D@ATL@@@@@ATL@@@std@@PAX@std@@@std@@@std@@QAE@XZ PROC ; std::_Tree_temp_node_alloc<std::allocator<std::_Tree_node<std::pair<int const ,ATL::CStringT<char,StrTraitMFC<char,ATL::ChTraitsCRT<char> > > >,void *> > >::~_Tree_temp_node_alloc<std::allocator<std::_Tree_node<std::pair<int const ,ATL::CStringT<char,StrTraitMFC<char,ATL::ChTraitsCRT<char> > > >,void *> > >, COMDAT
; _this$ = ecx

; 1172 :         if (_Ptr) {

  00000	8b 41 04	 mov	 eax, DWORD PTR [ecx+4]
  00003	85 c0		 test	 eax, eax
  00005	74 0b		 je	 SHORT $LN13@Tree_temp_

; 289  :         ::operator delete(_Ptr, _Bytes);

  00007	6a 18		 push	 24			; 00000018H
  00009	50		 push	 eax
  0000a	e8 00 00 00 00	 call	 ??3@YAXPAXI@Z		; operator delete
  0000f	83 c4 08	 add	 esp, 8
$LN13@Tree_temp_:
  00012	c3		 ret	 0
??1?$_Tree_temp_node_alloc@V?$allocator@U?$_Tree_node@U?$pair@$$CBHV?$CStringT@DV?$StrTraitMFC@DV?$ChTraitsCRT@D@ATL@@@@@ATL@@@std@@PAX@std@@@std@@@std@@QAE@XZ ENDP ; std::_Tree_temp_node_alloc<std::allocator<std::_Tree_node<std::pair<int const ,ATL::CStringT<char,StrTraitMFC<char,ATL::ChTraitsCRT<char> > > >,void *> > >::~_Tree_temp_node_alloc<std::allocator<std::_Tree_node<std::pair<int const ,ATL::CStringT<char,StrTraitMFC<char,ATL::ChTraitsCRT<char> > > >,void *> > >
_TEXT	ENDS
; Function compile flags: /Ogtp
; File C:\Program Files\Microsoft Visual Studio\2022\Professional\VC\Tools\MSVC\14.44.35207\include\xmemory
;	COMDAT ??1?$_Alloc_construct_ptr@V?$allocator@U?$_Tree_node@U?$pair@$$CBHV?$CStringT@DV?$StrTraitMFC@DV?$ChTraitsCRT@D@ATL@@@@@ATL@@@std@@PAX@std@@@std@@@std@@QAE@XZ
_TEXT	SEGMENT
??1?$_Alloc_construct_ptr@V?$allocator@U?$_Tree_node@U?$pair@$$CBHV?$CStringT@DV?$StrTraitMFC@DV?$ChTraitsCRT@D@ATL@@@@@ATL@@@std@@PAX@std@@@std@@@std@@QAE@XZ PROC ; std::_Alloc_construct_ptr<std::allocator<std::_Tree_node<std::pair<int const ,ATL::CStringT<char,StrTraitMFC<char,ATL::ChTraitsCRT<char> > > >,void *> > >::~_Alloc_construct_ptr<std::allocator<std::_Tree_node<std::pair<int const ,ATL::CStringT<char,StrTraitMFC<char,ATL::ChTraitsCRT<char> > > >,void *> > >, COMDAT
; _this$ = ecx

; 1172 :         if (_Ptr) {

  00000	8b 41 04	 mov	 eax, DWORD PTR [ecx+4]
  00003	85 c0		 test	 eax, eax
  00005	74 0b		 je	 SHORT $LN10@Alloc_cons

; 289  :         ::operator delete(_Ptr, _Bytes);

  00007	6a 18		 push	 24			; 00000018H
  00009	50		 push	 eax
  0000a	e8 00 00 00 00	 call	 ??3@YAXPAXI@Z		; operator delete
  0000f	83 c4 08	 add	 esp, 8
$LN10@Alloc_cons:

; 1173 :             _Al.deallocate(_Ptr, 1);
; 1174 :         }
; 1175 :     }

  00012	c3		 ret	 0
??1?$_Alloc_construct_ptr@V?$allocator@U?$_Tree_node@U?$pair@$$CBHV?$CStringT@DV?$StrTraitMFC@DV?$ChTraitsCRT@D@ATL@@@@@ATL@@@std@@PAX@std@@@std@@@std@@QAE@XZ ENDP ; std::_Alloc_construct_ptr<std::allocator<std::_Tree_node<std::pair<int const ,ATL::CStringT<char,StrTraitMFC<char,ATL::ChTraitsCRT<char> > > >,void *> > >::~_Alloc_construct_ptr<std::allocator<std::_Tree_node<std::pair<int const ,ATL::CStringT<char,StrTraitMFC<char,ATL::ChTraitsCRT<char> > > >,void *> > >
_TEXT	ENDS
; Function compile flags: /Ogtp
; File C:\Program Files\Microsoft Visual Studio\2022\Professional\VC\Tools\MSVC\14.44.35207\include\xmemory
;	COMDAT ??1?$_Alloc_construct_ptr@V?$allocator@U?$_Tree_node@U?$pair@$$CBKH@std@@PAX@std@@@std@@@std@@QAE@XZ
_TEXT	SEGMENT
??1?$_Alloc_construct_ptr@V?$allocator@U?$_Tree_node@U?$pair@$$CBKH@std@@PAX@std@@@std@@@std@@QAE@XZ PROC ; std::_Alloc_construct_ptr<std::allocator<std::_Tree_node<std::pair<unsigned long const ,int>,void *> > >::~_Alloc_construct_ptr<std::allocator<std::_Tree_node<std::pair<unsigned long const ,int>,void *> > >, COMDAT
; _this$ = ecx

; 1172 :         if (_Ptr) {

  00000	8b 41 04	 mov	 eax, DWORD PTR [ecx+4]
  00003	85 c0		 test	 eax, eax
  00005	74 0b		 je	 SHORT $LN10@Alloc_cons

; 289  :         ::operator delete(_Ptr, _Bytes);

  00007	6a 18		 push	 24			; 00000018H
  00009	50		 push	 eax
  0000a	e8 00 00 00 00	 call	 ??3@YAXPAXI@Z		; operator delete
  0000f	83 c4 08	 add	 esp, 8
$LN10@Alloc_cons:

; 1173 :             _Al.deallocate(_Ptr, 1);
; 1174 :         }
; 1175 :     }

  00012	c3		 ret	 0
??1?$_Alloc_construct_ptr@V?$allocator@U?$_Tree_node@U?$pair@$$CBKH@std@@PAX@std@@@std@@@std@@QAE@XZ ENDP ; std::_Alloc_construct_ptr<std::allocator<std::_Tree_node<std::pair<unsigned long const ,int>,void *> > >::~_Alloc_construct_ptr<std::allocator<std::_Tree_node<std::pair<unsigned long const ,int>,void *> > >
_TEXT	ENDS
; Function compile flags: /Ogtp
; File C:\Program Files\Microsoft Visual Studio\2022\Professional\VC\Tools\MSVC\14.44.35207\include\xmemory
; File C:\Program Files\Microsoft Visual Studio\2022\Professional\VC\Tools\MSVC\14.44.35207\include\vector
; File C:\Program Files\Microsoft Visual Studio\2022\Professional\VC\Tools\MSVC\14.44.35207\atlmfc\include\atlsimpstr.h
; File C:\Program Files\Microsoft Visual Studio\2022\Professional\VC\Tools\MSVC\14.44.35207\include\xmemory
;	COMDAT ??$_Destroy_range@V?$allocator@U__ALPHABET@CMiniGame@@@std@@@std@@YAXPAU__ALPHABET@CMiniGame@@QAU12@AAV?$allocator@U__ALPHABET@CMiniGame@@@0@@Z
_TEXT	SEGMENT
__$EHRec$ = -12						; size = 12
__First$ = 8						; size = 4
__Last$ = 12						; size = 4
__Al$ = 16						; size = 4
??$_Destroy_range@V?$allocator@U__ALPHABET@CMiniGame@@@std@@@std@@YAXPAU__ALPHABET@CMiniGame@@QAU12@AAV?$allocator@U__ALPHABET@CMiniGame@@@0@@Z PROC ; std::_Destroy_range<std::allocator<CMiniGame::__ALPHABET> >, COMDAT

; 1098 : _CONSTEXPR20 void _Destroy_range(_Alloc_ptr_t<_Alloc> _First, const _Alloc_ptr_t<_Alloc> _Last, _Alloc& _Al) noexcept {

  00000	55		 push	 ebp
  00001	8b ec		 mov	 ebp, esp
  00003	6a ff		 push	 -1
  00005	68 00 00 00 00	 push	 __ehhandler$??$_Destroy_range@V?$allocator@U__ALPHABET@CMiniGame@@@std@@@std@@YAXPAU__ALPHABET@CMiniGame@@QAU12@AAV?$allocator@U__ALPHABET@CMiniGame@@@0@@Z
  0000a	64 a1 00 00 00
	00		 mov	 eax, DWORD PTR fs:0
  00010	50		 push	 eax
  00011	56		 push	 esi
  00012	57		 push	 edi
  00013	a1 00 00 00 00	 mov	 eax, DWORD PTR ___security_cookie
  00018	33 c5		 xor	 eax, ebp
  0001a	50		 push	 eax
  0001b	8d 45 f4	 lea	 eax, DWORD PTR __$EHRec$[ebp]
  0001e	64 a3 00 00 00
	00		 mov	 DWORD PTR fs:0, eax

; 1102 :         for (; _First != _Last; ++_First) {

  00024	8b 75 08	 mov	 esi, DWORD PTR __First$[ebp]
  00027	8b 7d 0c	 mov	 edi, DWORD PTR __Last$[ebp]
  0002a	3b f7		 cmp	 esi, edi
  0002c	74 4a		 je	 SHORT $LN3@Destroy_ra
  0002e	83 c6 08	 add	 esi, 8
$LL4@Destroy_ra:
; File C:\Program Files\Microsoft Visual Studio\2022\Professional\VC\Tools\MSVC\14.44.35207\include\vector

; 830  :         _Tidy();

  00031	8d 4e 04	 lea	 ecx, DWORD PTR [esi+4]
  00034	e8 00 00 00 00	 call	 ?_Tidy@?$vector@U__ITEMGAME@CMiniGame@@V?$allocator@U__ITEMGAME@CMiniGame@@@std@@@std@@AAEXXZ ; std::vector<CMiniGame::__ITEMGAME,std::allocator<CMiniGame::__ITEMGAME> >::_Tidy
; File C:\Program Files\Microsoft Visual Studio\2022\Professional\VC\Tools\MSVC\14.44.35207\atlmfc\include\atlsimpstr.h

; 804  : 		return( reinterpret_cast< CStringData* >( m_pszData )-1 );

  00039	8b 16		 mov	 edx, DWORD PTR [esi]

; 92   : 		if( _InterlockedDecrement( &nRefs ) <= 0 )

  0003b	83 c8 ff	 or	 eax, -1

; 804  : 		return( reinterpret_cast< CStringData* >( m_pszData )-1 );

  0003e	83 ea 10	 sub	 edx, 16			; 00000010H

; 92   : 		if( _InterlockedDecrement( &nRefs ) <= 0 )

  00041	f0 0f c1 42 0c	 lock	  xadd	 DWORD PTR [edx+12], eax
  00046	48		 dec	 eax
  00047	85 c0		 test	 eax, eax
  00049	7f 08		 jg	 SHORT $LN28@Destroy_ra

; 93   : 		{
; 94   : 			pStringMgr->Free( this );

  0004b	8b 0a		 mov	 ecx, DWORD PTR [edx]
  0004d	52		 push	 edx
  0004e	8b 01		 mov	 eax, DWORD PTR [ecx]
  00050	ff 50 04	 call	 DWORD PTR [eax+4]
$LN28@Destroy_ra:

; 804  : 		return( reinterpret_cast< CStringData* >( m_pszData )-1 );

  00053	8b 56 fc	 mov	 edx, DWORD PTR [esi-4]

; 92   : 		if( _InterlockedDecrement( &nRefs ) <= 0 )

  00056	83 c8 ff	 or	 eax, -1

; 804  : 		return( reinterpret_cast< CStringData* >( m_pszData )-1 );

  00059	83 ea 10	 sub	 edx, 16			; 00000010H

; 92   : 		if( _InterlockedDecrement( &nRefs ) <= 0 )

  0005c	f0 0f c1 42 0c	 lock	  xadd	 DWORD PTR [edx+12], eax
  00061	48		 dec	 eax
  00062	85 c0		 test	 eax, eax
  00064	7f 08		 jg	 SHORT $LN37@Destroy_ra

; 93   : 		{
; 94   : 			pStringMgr->Free( this );

  00066	8b 0a		 mov	 ecx, DWORD PTR [edx]
  00068	52		 push	 edx
  00069	8b 01		 mov	 eax, DWORD PTR [ecx]
  0006b	ff 50 04	 call	 DWORD PTR [eax+4]
$LN37@Destroy_ra:
; File C:\Program Files\Microsoft Visual Studio\2022\Professional\VC\Tools\MSVC\14.44.35207\include\xmemory

; 1102 :         for (; _First != _Last; ++_First) {

  0006e	83 c6 18	 add	 esi, 24			; 00000018H
  00071	8d 46 f8	 lea	 eax, DWORD PTR [esi-8]
  00074	3b c7		 cmp	 eax, edi
  00076	75 b9		 jne	 SHORT $LL4@Destroy_ra
$LN3@Destroy_ra:

; 1103 :             allocator_traits<_Alloc>::destroy(_Al, _STD _Unfancy(_First));
; 1104 :         }
; 1105 :     }
; 1106 : }

  00078	8b 4d f4	 mov	 ecx, DWORD PTR __$EHRec$[ebp]
  0007b	64 89 0d 00 00
	00 00		 mov	 DWORD PTR fs:0, ecx
  00082	59		 pop	 ecx
  00083	5f		 pop	 edi
  00084	5e		 pop	 esi
  00085	8b e5		 mov	 esp, ebp
  00087	5d		 pop	 ebp
  00088	c3		 ret	 0
  00089	cc		 int	 3
  0008a	cc		 int	 3
  0008b	cc		 int	 3
  0008c	cc		 int	 3
  0008d	cc		 int	 3
_TEXT	ENDS
;	COMDAT text$x
text$x	SEGMENT
__ehhandler$??$_Destroy_range@V?$allocator@U__ALPHABET@CMiniGame@@@std@@@std@@YAXPAU__ALPHABET@CMiniGame@@QAU12@AAV?$allocator@U__ALPHABET@CMiniGame@@@0@@Z:
  00000	90		 npad	 1
  00001	90		 npad	 1
  00002	8b 54 24 08	 mov	 edx, DWORD PTR [esp+8]
  00006	8d 42 0c	 lea	 eax, DWORD PTR [edx+12]
  00009	8b 4a f4	 mov	 ecx, DWORD PTR [edx-12]
  0000c	33 c8		 xor	 ecx, eax
  0000e	e8 00 00 00 00	 call	 @__security_check_cookie@4
  00013	b8 00 00 00 00	 mov	 eax, OFFSET __ehfuncinfo$??$_Destroy_range@V?$allocator@U__ALPHABET@CMiniGame@@@std@@@std@@YAXPAU__ALPHABET@CMiniGame@@QAU12@AAV?$allocator@U__ALPHABET@CMiniGame@@@0@@Z
  00018	e9 00 00 00 00	 jmp	 ___CxxFrameHandler3
text$x	ENDS
??$_Destroy_range@V?$allocator@U__ALPHABET@CMiniGame@@@std@@@std@@YAXPAU__ALPHABET@CMiniGame@@QAU12@AAV?$allocator@U__ALPHABET@CMiniGame@@@0@@Z ENDP ; std::_Destroy_range<std::allocator<CMiniGame::__ALPHABET> >
; Function compile flags: /Ogtp
; File C:\Program Files\Microsoft Visual Studio\2022\Professional\VC\Tools\MSVC\14.44.35207\include\vector
; File C:\Program Files\Microsoft Visual Studio\2022\Professional\VC\Tools\MSVC\14.44.35207\include\xmemory
; File C:\Program Files\Microsoft Visual Studio\2022\Professional\VC\Tools\MSVC\14.44.35207\include\vector
; File C:\Program Files\Microsoft Visual Studio\2022\Professional\VC\Tools\MSVC\14.44.35207\include\xmemory
; File C:\Program Files\Microsoft Visual Studio\2022\Professional\VC\Tools\MSVC\14.44.35207\include\vector
; File C:\Program Files\Microsoft Visual Studio\2022\Professional\VC\Tools\MSVC\14.44.35207\include\xmemory
; File C:\Program Files\Microsoft Visual Studio\2022\Professional\VC\Tools\MSVC\14.44.35207\include\vector
; File C:\Program Files\Microsoft Visual Studio\2022\Professional\VC\Tools\MSVC\14.44.35207\include\xmemory
; File C:\Program Files\Microsoft Visual Studio\2022\Professional\VC\Tools\MSVC\14.44.35207\include\vector
; File C:\Program Files\Microsoft Visual Studio\2022\Professional\VC\Tools\MSVC\14.44.35207\include\xmemory
; File C:\Program Files\Microsoft Visual Studio\2022\Professional\VC\Tools\MSVC\14.44.35207\include\vector
; File C:\Program Files\Microsoft Visual Studio\2022\Professional\VC\Tools\MSVC\14.44.35207\include\xmemory
; File C:\Program Files\Microsoft Visual Studio\2022\Professional\VC\Tools\MSVC\14.44.35207\include\vector
; File C:\Program Files\Microsoft Visual Studio\2022\Professional\VC\Tools\MSVC\14.44.35207\include\xmemory
; File C:\Program Files\Microsoft Visual Studio\2022\Professional\VC\Tools\MSVC\14.44.35207\include\vector
; File C:\Program Files\Microsoft Visual Studio\2022\Professional\VC\Tools\MSVC\14.44.35207\include\xmemory
; File C:\Program Files\Microsoft Visual Studio\2022\Professional\VC\Tools\MSVC\14.44.35207\include\vector
; File C:\Program Files\Microsoft Visual Studio\2022\Professional\VC\Tools\MSVC\14.44.35207\include\xmemory
; File C:\Program Files\Microsoft Visual Studio\2022\Professional\VC\Tools\MSVC\14.44.35207\include\vector
;	COMDAT ??$_Emplace_reallocate@ABU__ITEMGAME@CMiniGame@@@?$vector@U__ITEMGAME@CMiniGame@@V?$allocator@U__ITEMGAME@CMiniGame@@@std@@@std@@AAEPAU__ITEMGAME@CMiniGame@@QAU23@ABU23@@Z
_TEXT	SEGMENT
__Oldsize$1$ = -12					; size = 4
__Whereoff$1$ = -8					; size = 4
tv650 = -8						; size = 4
tv652 = -4						; size = 4
__Whereptr$ = 8						; size = 4
_<_Val_0>$ = 12						; size = 4
??$_Emplace_reallocate@ABU__ITEMGAME@CMiniGame@@@?$vector@U__ITEMGAME@CMiniGame@@V?$allocator@U__ITEMGAME@CMiniGame@@@std@@@std@@AAEPAU__ITEMGAME@CMiniGame@@QAU23@ABU23@@Z PROC ; std::vector<CMiniGame::__ITEMGAME,std::allocator<CMiniGame::__ITEMGAME> >::_Emplace_reallocate<CMiniGame::__ITEMGAME const &>, COMDAT
; _this$ = ecx

; 875  :     _CONSTEXPR20 pointer _Emplace_reallocate(const pointer _Whereptr, _Valty&&... _Val) {

  00000	55		 push	 ebp
  00001	8b ec		 mov	 ebp, esp
  00003	83 ec 0c	 sub	 esp, 12			; 0000000cH

; 876  :         // reallocate and insert by perfectly forwarding _Val at _Whereptr
; 877  :         _Alty& _Al        = _Getal();
; 878  :         auto& _My_data    = _Mypair._Myval2;
; 879  :         pointer& _Myfirst = _My_data._Myfirst;
; 880  :         pointer& _Mylast  = _My_data._Mylast;
; 881  : 
; 882  :         _STL_INTERNAL_CHECK(_Mylast == _My_data._Myend); // check that we have no unused capacity
; 883  : 
; 884  :         const auto _Whereoff = static_cast<size_type>(_Whereptr - _Myfirst);

  00006	8b 55 08	 mov	 edx, DWORD PTR __Whereptr$[ebp]
  00009	b8 ab aa aa 2a	 mov	 eax, 715827883		; 2aaaaaabH
  0000e	53		 push	 ebx
  0000f	8b d9		 mov	 ebx, ecx
  00011	57		 push	 edi
  00012	8b 3b		 mov	 edi, DWORD PTR [ebx]
  00014	2b d7		 sub	 edx, edi

; 885  :         const auto _Oldsize  = static_cast<size_type>(_Mylast - _Myfirst);

  00016	8b 4b 04	 mov	 ecx, DWORD PTR [ebx+4]
  00019	f7 ea		 imul	 edx
  0001b	2b cf		 sub	 ecx, edi
  0001d	d1 fa		 sar	 edx, 1
  0001f	8b c2		 mov	 eax, edx
  00021	c1 e8 1f	 shr	 eax, 31			; 0000001fH
  00024	03 c2		 add	 eax, edx
  00026	89 45 f8	 mov	 DWORD PTR __Whereoff$1$[ebp], eax
  00029	b8 ab aa aa 2a	 mov	 eax, 715827883		; 2aaaaaabH
  0002e	f7 e9		 imul	 ecx
  00030	d1 fa		 sar	 edx, 1
  00032	8b c2		 mov	 eax, edx
  00034	c1 e8 1f	 shr	 eax, 31			; 0000001fH
  00037	03 c2		 add	 eax, edx
  00039	89 45 f4	 mov	 DWORD PTR __Oldsize$1$[ebp], eax

; 886  : 
; 887  :         if (_Oldsize == max_size()) {

  0003c	3d 55 55 55 15	 cmp	 eax, 357913941		; 15555555H
  00041	0f 84 42 01 00
	00		 je	 $LN119@Emplace_re

; 1924 :         return static_cast<size_type>(_My_data._Myend - _My_data._Myfirst);

  00047	8b 4b 08	 mov	 ecx, DWORD PTR [ebx+8]
  0004a	2b cf		 sub	 ecx, edi
  0004c	56		 push	 esi

; 889  :         }
; 890  : 
; 891  :         const size_type _Newsize = _Oldsize + 1;

  0004d	8d 70 01	 lea	 esi, DWORD PTR [eax+1]

; 1924 :         return static_cast<size_type>(_My_data._Myend - _My_data._Myfirst);

  00050	b8 ab aa aa 2a	 mov	 eax, 715827883		; 2aaaaaabH
  00055	f7 e9		 imul	 ecx

; 2011 :         if (_Oldcapacity > _Max - _Oldcapacity / 2) {

  00057	b8 55 55 55 15	 mov	 eax, 357913941		; 15555555H

; 1924 :         return static_cast<size_type>(_My_data._Myend - _My_data._Myfirst);

  0005c	d1 fa		 sar	 edx, 1
  0005e	8b ca		 mov	 ecx, edx
  00060	c1 e9 1f	 shr	 ecx, 31			; 0000001fH
  00063	03 ca		 add	 ecx, edx

; 2011 :         if (_Oldcapacity > _Max - _Oldcapacity / 2) {

  00065	8b d1		 mov	 edx, ecx
  00067	d1 ea		 shr	 edx, 1
  00069	2b c2		 sub	 eax, edx
  0006b	3b c8		 cmp	 ecx, eax
  0006d	76 14		 jbe	 SHORT $LN8@Emplace_re

; 2012 :             return _Max; // geometric growth would overflow

  0006f	b8 fc ff ff ff	 mov	 eax, -4			; fffffffcH
  00074	c7 45 fc fc ff
	ff ff		 mov	 DWORD PTR tv652[ebp], -4 ; fffffffcH
; File C:\Program Files\Microsoft Visual Studio\2022\Professional\VC\Tools\MSVC\14.44.35207\include\xmemory

; 253  :             return _Allocate_manually_vector_aligned<_Traits>(_Bytes);

  0007b	50		 push	 eax
  0007c	e8 00 00 00 00	 call	 ??$_Allocate_manually_vector_aligned@U_Default_allocate_traits@std@@@std@@YAPAXI@Z ; std::_Allocate_manually_vector_aligned<std::_Default_allocate_traits>
  00081	eb 3e		 jmp	 SHORT $LN117@Emplace_re
$LN8@Emplace_re:
; File C:\Program Files\Microsoft Visual Studio\2022\Professional\VC\Tools\MSVC\14.44.35207\include\vector

; 2015 :         const size_type _Geometric = _Oldcapacity + _Oldcapacity / 2;

  00083	8d 04 0a	 lea	 eax, DWORD PTR [edx+ecx]
; File C:\Program Files\Microsoft Visual Studio\2022\Professional\VC\Tools\MSVC\14.44.35207\include\xmemory

; 117  :         if (_Count > _Max_possible) {

  00086	8b ce		 mov	 ecx, esi
  00088	3b c6		 cmp	 eax, esi
  0008a	0f 43 c8	 cmovae	 ecx, eax
  0008d	81 f9 55 55 55
	15		 cmp	 ecx, 357913941		; 15555555H
  00093	0f 87 f5 00 00
	00		 ja	 $LN120@Emplace_re

; 119  :         }
; 120  :     }
; 121  : 
; 122  :     return _Count * _Ty_size;

  00099	8d 34 49	 lea	 esi, DWORD PTR [ecx+ecx*2]
  0009c	c1 e6 02	 shl	 esi, 2

; 990  :         return static_cast<_Ty*>(_STD _Allocate<_New_alignof<_Ty>>(_Get_size_of_n<sizeof(_Ty)>(_Count)));

  0009f	8b c6		 mov	 eax, esi

; 122  :     return _Count * _Ty_size;

  000a1	89 75 fc	 mov	 DWORD PTR tv652[ebp], esi

; 227  :     if (_Bytes == 0) {

  000a4	85 c0		 test	 eax, eax
  000a6	75 04		 jne	 SHORT $LN23@Emplace_re

; 228  :         return nullptr;

  000a8	33 ff		 xor	 edi, edi
  000aa	eb 1a		 jmp	 SHORT $LN22@Emplace_re
$LN23@Emplace_re:

; 229  :     }
; 230  : 
; 231  : #if _HAS_CXX20 // TRANSITION, GH-1532
; 232  :     if (_STD is_constant_evaluated()) {
; 233  :         return _Traits::_Allocate(_Bytes);
; 234  :     }
; 235  : #endif // _HAS_CXX20
; 236  : 
; 237  : #ifdef __cpp_aligned_new
; 238  :     if constexpr (_Align > __STDCPP_DEFAULT_NEW_ALIGNMENT__) {
; 239  :         size_t _Passed_align = _Align;
; 240  : #if defined(_M_IX86) || defined(_M_X64)
; 241  :         if (_Bytes >= _Big_allocation_threshold) {
; 242  :             // boost the alignment of big allocations to help autovectorization
; 243  :             _Passed_align = (_STD max)(_Align, _Big_allocation_alignment);
; 244  :         }
; 245  : #endif // defined(_M_IX86) || defined(_M_X64)
; 246  :         return _Traits::_Allocate_aligned(_Bytes, _Passed_align);
; 247  :     } else
; 248  : #endif // defined(__cpp_aligned_new)
; 249  :     {
; 250  : #if defined(_M_IX86) || defined(_M_X64)
; 251  :         if (_Bytes >= _Big_allocation_threshold) {

  000ac	3d 00 10 00 00	 cmp	 eax, 4096		; 00001000H
  000b1	72 08		 jb	 SHORT $LN24@Emplace_re

; 253  :             return _Allocate_manually_vector_aligned<_Traits>(_Bytes);

  000b3	50		 push	 eax
  000b4	e8 00 00 00 00	 call	 ??$_Allocate_manually_vector_aligned@U_Default_allocate_traits@std@@@std@@YAPAXI@Z ; std::_Allocate_manually_vector_aligned<std::_Default_allocate_traits>
  000b9	eb 06		 jmp	 SHORT $LN117@Emplace_re
$LN24@Emplace_re:

; 136  :         return ::operator new(_Bytes);

  000bb	50		 push	 eax
  000bc	e8 00 00 00 00	 call	 ??2@YAPAXI@Z		; operator new
$LN117@Emplace_re:
; File C:\Program Files\Microsoft Visual Studio\2022\Professional\VC\Tools\MSVC\14.44.35207\include\vector

; 900  :         _Alty_traits::construct(_Al, _STD _Unfancy(_Newvec + _Whereoff), _STD forward<_Valty>(_Val)...);

  000c1	8b f8		 mov	 edi, eax
  000c3	83 c4 04	 add	 esp, 4
$LN22@Emplace_re:
  000c6	8b 45 f8	 mov	 eax, DWORD PTR __Whereoff$1$[ebp]

; 903  :         if (_Whereptr == _Mylast) { // at back, provide strong guarantee

  000c9	8b 55 08	 mov	 edx, DWORD PTR __Whereptr$[ebp]
  000cc	8d 04 40	 lea	 eax, DWORD PTR [eax+eax*2]
  000cf	8d 34 87	 lea	 esi, DWORD PTR [edi+eax*4]
; File C:\Program Files\Microsoft Visual Studio\2022\Professional\VC\Tools\MSVC\14.44.35207\include\xmemory

; 732  :         ::new (const_cast<void*>(static_cast<const volatile void*>(_Ptr))) _Objty(_STD forward<_Types>(_Args)...);

  000d2	8b 45 0c	 mov	 eax, DWORD PTR _<_Val_0>$[ebp]
; File C:\Program Files\Microsoft Visual Studio\2022\Professional\VC\Tools\MSVC\14.44.35207\include\vector

; 900  :         _Alty_traits::construct(_Al, _STD _Unfancy(_Newvec + _Whereoff), _STD forward<_Valty>(_Val)...);

  000d5	89 75 f8	 mov	 DWORD PTR tv650[ebp], esi
; File C:\Program Files\Microsoft Visual Studio\2022\Professional\VC\Tools\MSVC\14.44.35207\include\xmemory

; 732  :         ::new (const_cast<void*>(static_cast<const volatile void*>(_Ptr))) _Objty(_STD forward<_Types>(_Args)...);

  000d8	f3 0f 7e 00	 movq	 xmm0, QWORD PTR [eax]
  000dc	66 0f d6 06	 movq	 QWORD PTR [esi], xmm0
  000e0	8b 40 08	 mov	 eax, DWORD PTR [eax+8]
  000e3	89 46 08	 mov	 DWORD PTR [esi+8], eax
; File C:\Program Files\Microsoft Visual Studio\2022\Professional\VC\Tools\MSVC\14.44.35207\include\vector

; 903  :         if (_Whereptr == _Mylast) { // at back, provide strong guarantee

  000e6	8b 4b 04	 mov	 ecx, DWORD PTR [ebx+4]
  000e9	8b 03		 mov	 eax, DWORD PTR [ebx]
  000eb	3b d1		 cmp	 edx, ecx
  000ed	75 04		 jne	 SHORT $LN3@Emplace_re
; File C:\Program Files\Microsoft Visual Studio\2022\Professional\VC\Tools\MSVC\14.44.35207\include\xmemory

; 1992 :             _STD _Copy_memmove(_UFirst, _ULast, _STD _Unfancy(_Dest));

  000ef	8b f7		 mov	 esi, edi
; File C:\Program Files\Microsoft Visual Studio\2022\Professional\VC\Tools\MSVC\14.44.35207\include\vector

; 909  :         } else { // provide basic guarantee

  000f1	eb 14		 jmp	 SHORT $LN58@Emplace_re
$LN3@Emplace_re:
; File C:\Program Files\Microsoft Visual Studio\2022\Professional\VC\Tools\MSVC\14.44.35207\include\xmemory

; 1992 :             _STD _Copy_memmove(_UFirst, _ULast, _STD _Unfancy(_Dest));

  000f3	57		 push	 edi
  000f4	52		 push	 edx
  000f5	50		 push	 eax
  000f6	e8 00 00 00 00	 call	 ??$_Copy_memmove@PAU__ITEMGAME@CMiniGame@@PAU12@@std@@YAPAU__ITEMGAME@CMiniGame@@PAU12@00@Z ; std::_Copy_memmove<CMiniGame::__ITEMGAME *,CMiniGame::__ITEMGAME *>
  000fb	8b 45 08	 mov	 eax, DWORD PTR __Whereptr$[ebp]
  000fe	83 c4 0c	 add	 esp, 12			; 0000000cH
  00101	8b 4b 04	 mov	 ecx, DWORD PTR [ebx+4]
; File C:\Program Files\Microsoft Visual Studio\2022\Professional\VC\Tools\MSVC\14.44.35207\include\vector

; 912  :             _STD _Uninitialized_move(_Whereptr, _Mylast, _Newvec + _Whereoff + 1, _Al);

  00104	83 c6 0c	 add	 esi, 12			; 0000000cH
$LN58@Emplace_re:

; 913  :         }
; 914  : 
; 915  :         _Guard._New_begin = nullptr;

  00107	56		 push	 esi
  00108	51		 push	 ecx
  00109	50		 push	 eax
  0010a	e8 00 00 00 00	 call	 ??$_Copy_memmove@PAU__ITEMGAME@CMiniGame@@PAU12@@std@@YAPAU__ITEMGAME@CMiniGame@@PAU12@00@Z ; std::_Copy_memmove<CMiniGame::__ITEMGAME *,CMiniGame::__ITEMGAME *>

; 2069 :         if (_Myfirst) { // destroy and deallocate old array

  0010f	8b 33		 mov	 esi, DWORD PTR [ebx]

; 913  :         }
; 914  : 
; 915  :         _Guard._New_begin = nullptr;

  00111	83 c4 0c	 add	 esp, 12			; 0000000cH

; 2069 :         if (_Myfirst) { // destroy and deallocate old array

  00114	85 f6		 test	 esi, esi
  00116	74 3f		 je	 SHORT $LN80@Emplace_re

; 2070 :             _STD _Destroy_range(_Myfirst, _Mylast, _Al);
; 2071 :             _ASAN_VECTOR_REMOVE;
; 2072 :             _Al.deallocate(_Myfirst, static_cast<size_type>(_Myend - _Myfirst));

  00118	8b 4b 08	 mov	 ecx, DWORD PTR [ebx+8]
  0011b	b8 ab aa aa 2a	 mov	 eax, 715827883		; 2aaaaaabH
  00120	2b ce		 sub	 ecx, esi
  00122	f7 e9		 imul	 ecx
  00124	d1 fa		 sar	 edx, 1
  00126	8b c2		 mov	 eax, edx
  00128	c1 e8 1f	 shr	 eax, 31			; 0000001fH
  0012b	03 c2		 add	 eax, edx
; File C:\Program Files\Microsoft Visual Studio\2022\Professional\VC\Tools\MSVC\14.44.35207\include\xmemory

; 985  :         _STD _Deallocate<_New_alignof<_Ty>>(_Ptr, sizeof(_Ty) * _Count);

  0012d	8d 0c 40	 lea	 ecx, DWORD PTR [eax+eax*2]
  00130	c1 e1 02	 shl	 ecx, 2

; 284  :         if (_Bytes >= _Big_allocation_threshold) {

  00133	81 f9 00 10 00
	00		 cmp	 ecx, 4096		; 00001000H
  00139	72 12		 jb	 SHORT $LN85@Emplace_re

; 205  :     const uintptr_t _Ptr_container   = _Ptr_user[-1];

  0013b	8b 56 fc	 mov	 edx, DWORD PTR [esi-4]
  0013e	83 c1 23	 add	 ecx, 35			; 00000023H

; 206  : 
; 207  :     // If the following asserts, it likely means that we are performing
; 208  :     // an aligned delete on memory coming from an unaligned allocation.
; 209  :     _STL_ASSERT(_Ptr_user[-2] == _Big_allocation_sentinel, "invalid argument");
; 210  : 
; 211  :     // Extra paranoia on aligned allocation/deallocation; ensure _Ptr_container is
; 212  :     // in range [_Min_back_shift, _Non_user_size]
; 213  : #ifdef _DEBUG
; 214  :     constexpr uintptr_t _Min_back_shift = 2 * sizeof(void*);
; 215  : #else // ^^^ defined(_DEBUG) / !defined(_DEBUG) vvv
; 216  :     constexpr uintptr_t _Min_back_shift = sizeof(void*);
; 217  : #endif // ^^^ !defined(_DEBUG) ^^^
; 218  :     const uintptr_t _Back_shift = reinterpret_cast<uintptr_t>(_Ptr) - _Ptr_container;

  00141	2b f2		 sub	 esi, edx

; 219  :     _STL_VERIFY(_Back_shift >= _Min_back_shift && _Back_shift <= _Non_user_size, "invalid argument");

  00143	8d 46 fc	 lea	 eax, DWORD PTR [esi-4]
  00146	83 f8 1f	 cmp	 eax, 31			; 0000001fH
  00149	77 2f		 ja	 SHORT $LN84@Emplace_re

; 220  :     _Ptr = reinterpret_cast<void*>(_Ptr_container);

  0014b	8b f2		 mov	 esi, edx
$LN85@Emplace_re:

; 289  :         ::operator delete(_Ptr, _Bytes);

  0014d	51		 push	 ecx
  0014e	56		 push	 esi
  0014f	e8 00 00 00 00	 call	 ??3@YAXPAXI@Z		; operator delete
  00154	83 c4 08	 add	 esp, 8
$LN80@Emplace_re:
; File C:\Program Files\Microsoft Visual Studio\2022\Professional\VC\Tools\MSVC\14.44.35207\include\vector

; 2076 :         _Mylast  = _Newvec + _Newsize;

  00157	8b 45 f4	 mov	 eax, DWORD PTR __Oldsize$1$[ebp]
  0015a	40		 inc	 eax
  0015b	89 3b		 mov	 DWORD PTR [ebx], edi

; 916  :         _Change_array(_Newvec, _Newsize, _Newcapacity);
; 917  :         return _Newvec + _Whereoff;

  0015d	5e		 pop	 esi

; 2076 :         _Mylast  = _Newvec + _Newsize;

  0015e	8d 0c 40	 lea	 ecx, DWORD PTR [eax+eax*2]

; 916  :         _Change_array(_Newvec, _Newsize, _Newcapacity);
; 917  :         return _Newvec + _Whereoff;

  00161	8b 45 f8	 mov	 eax, DWORD PTR tv650[ebp]

; 2076 :         _Mylast  = _Newvec + _Newsize;

  00164	8d 0c 8f	 lea	 ecx, DWORD PTR [edi+ecx*4]
  00167	89 4b 04	 mov	 DWORD PTR [ebx+4], ecx

; 2077 :         _Myend   = _Newvec + _Newcapacity;

  0016a	8b 4d fc	 mov	 ecx, DWORD PTR tv652[ebp]
  0016d	03 cf		 add	 ecx, edi

; 918  :     }

  0016f	5f		 pop	 edi

; 2077 :         _Myend   = _Newvec + _Newcapacity;

  00170	89 4b 08	 mov	 DWORD PTR [ebx+8], ecx

; 918  :     }

  00173	5b		 pop	 ebx
  00174	8b e5		 mov	 esp, ebp
  00176	5d		 pop	 ebp
  00177	c2 08 00	 ret	 8
$LN84@Emplace_re:
; File C:\Program Files\Microsoft Visual Studio\2022\Professional\VC\Tools\MSVC\14.44.35207\include\xmemory

; 219  :     _STL_VERIFY(_Back_shift >= _Min_back_shift && _Back_shift <= _Non_user_size, "invalid argument");

  0017a	6a 00		 push	 0
  0017c	6a 00		 push	 0
  0017e	6a 00		 push	 0
  00180	6a 00		 push	 0
  00182	6a 00		 push	 0
  00184	e8 00 00 00 00	 call	 __invoke_watson
$LN119@Emplace_re:
; File C:\Program Files\Microsoft Visual Studio\2022\Professional\VC\Tools\MSVC\14.44.35207\include\vector

; 888  :             _Xlength();

  00189	e8 00 00 00 00	 call	 ?_Xlength@?$vector@U__ITEMGAME@CMiniGame@@V?$allocator@U__ITEMGAME@CMiniGame@@@std@@@std@@CAXXZ ; std::vector<CMiniGame::__ITEMGAME,std::allocator<CMiniGame::__ITEMGAME> >::_Xlength
$LN120@Emplace_re:
; File C:\Program Files\Microsoft Visual Studio\2022\Professional\VC\Tools\MSVC\14.44.35207\include\xmemory

; 118  :             _Throw_bad_array_new_length(); // multiply overflow

  0018e	e8 00 00 00 00	 call	 ?_Throw_bad_array_new_length@std@@YAXXZ ; std::_Throw_bad_array_new_length
$LN116@Emplace_re:
  00193	cc		 int	 3
??$_Emplace_reallocate@ABU__ITEMGAME@CMiniGame@@@?$vector@U__ITEMGAME@CMiniGame@@V?$allocator@U__ITEMGAME@CMiniGame@@@std@@@std@@AAEPAU__ITEMGAME@CMiniGame@@QAU23@ABU23@@Z ENDP ; std::vector<CMiniGame::__ITEMGAME,std::allocator<CMiniGame::__ITEMGAME> >::_Emplace_reallocate<CMiniGame::__ITEMGAME const &>
_TEXT	ENDS
; Function compile flags: /Ogtp
; File C:\Program Files\Microsoft Visual Studio\2022\Professional\VC\Tools\MSVC\14.44.35207\include\xutility
;	COMDAT ??$_Copy_memmove_n@PAU__ITEMGAME@CMiniGame@@PAU12@@std@@YAPAU__ITEMGAME@CMiniGame@@PAU12@I0@Z
_TEXT	SEGMENT
__First$ = 8						; size = 4
__Object_count$ = 12					; size = 4
__Dest$ = 16						; size = 4
??$_Copy_memmove_n@PAU__ITEMGAME@CMiniGame@@PAU12@@std@@YAPAU__ITEMGAME@CMiniGame@@PAU12@I0@Z PROC ; std::_Copy_memmove_n<CMiniGame::__ITEMGAME *,CMiniGame::__ITEMGAME *>, COMDAT

; 4774 : _OutCtgIt _Copy_memmove_n(_CtgIt _First, const size_t _Object_count, _OutCtgIt _Dest) {

  00000	55		 push	 ebp
  00001	8b ec		 mov	 ebp, esp

; 4775 :     const auto _First_ptr  = _STD _To_address(_First);
; 4776 :     const auto _First_ch   = const_cast<const char*>(reinterpret_cast<const volatile char*>(_First_ptr));
; 4777 :     const auto _Byte_count = _Object_count * sizeof(*_First_ptr);
; 4778 :     return _STD _Copy_memmove_tail(_First_ch, _STD move(_Dest), _Byte_count, _Object_count);

  00003	8b 45 0c	 mov	 eax, DWORD PTR __Object_count$[ebp]
  00006	50		 push	 eax
  00007	8d 04 40	 lea	 eax, DWORD PTR [eax+eax*2]
  0000a	c1 e0 02	 shl	 eax, 2
  0000d	50		 push	 eax
  0000e	ff 75 10	 push	 DWORD PTR __Dest$[ebp]
  00011	ff 75 08	 push	 DWORD PTR __First$[ebp]
  00014	e8 00 00 00 00	 call	 ??$_Copy_memmove_tail@PAU__ITEMGAME@CMiniGame@@@std@@YAPAU__ITEMGAME@CMiniGame@@QBDQAU12@II@Z ; std::_Copy_memmove_tail<CMiniGame::__ITEMGAME *>
  00019	83 c4 10	 add	 esp, 16			; 00000010H

; 4779 : }

  0001c	5d		 pop	 ebp
  0001d	c3		 ret	 0
??$_Copy_memmove_n@PAU__ITEMGAME@CMiniGame@@PAU12@@std@@YAPAU__ITEMGAME@CMiniGame@@PAU12@I0@Z ENDP ; std::_Copy_memmove_n<CMiniGame::__ITEMGAME *,CMiniGame::__ITEMGAME *>
_TEXT	ENDS
; Function compile flags: /Ogtp
; File C:\Program Files\Microsoft Visual Studio\2022\Professional\VC\Tools\MSVC\14.44.35207\include\vector
; File C:\Program Files\Microsoft Visual Studio\2022\Professional\VC\Tools\MSVC\14.44.35207\include\xmemory
; File C:\Program Files\Microsoft Visual Studio\2022\Professional\VC\Tools\MSVC\14.44.35207\include\vector
; File C:\Program Files\Microsoft Visual Studio\2022\Professional\VC\Tools\MSVC\14.44.35207\include\xmemory
; File C:\Program Files\Microsoft Visual Studio\2022\Professional\VC\Tools\MSVC\14.44.35207\include\vector
; File C:\Program Files\Microsoft Visual Studio\2022\Professional\VC\Tools\MSVC\14.44.35207\include\xmemory
; File C:\Program Files\Microsoft Visual Studio\2022\Professional\VC\Tools\MSVC\14.44.35207\include\vector
; File C:\Program Files\Microsoft Visual Studio\2022\Professional\VC\Tools\MSVC\14.44.35207\include\xmemory
; File C:\Program Files\Microsoft Visual Studio\2022\Professional\VC\Tools\MSVC\14.44.35207\include\vector
; File C:\Program Files\Microsoft Visual Studio\2022\Professional\VC\Tools\MSVC\14.44.35207\include\xmemory
; File C:\Program Files\Microsoft Visual Studio\2022\Professional\VC\Tools\MSVC\14.44.35207\include\vector
; File C:\Program Files\Microsoft Visual Studio\2022\Professional\VC\Tools\MSVC\14.44.35207\include\xmemory
; File C:\Program Files\Microsoft Visual Studio\2022\Professional\VC\Tools\MSVC\14.44.35207\include\vector
; File C:\Program Files\Microsoft Visual Studio\2022\Professional\VC\Tools\MSVC\14.44.35207\include\xmemory
; File C:\Program Files\Microsoft Visual Studio\2022\Professional\VC\Tools\MSVC\14.44.35207\include\vector
; File C:\Program Files\Microsoft Visual Studio\2022\Professional\VC\Tools\MSVC\14.44.35207\include\xmemory
; File C:\Program Files\Microsoft Visual Studio\2022\Professional\VC\Tools\MSVC\14.44.35207\include\vector
; File C:\Program Files\Microsoft Visual Studio\2022\Professional\VC\Tools\MSVC\14.44.35207\include\xmemory
; File C:\Program Files\Microsoft Visual Studio\2022\Professional\VC\Tools\MSVC\14.44.35207\include\vector
; File C:\Program Files\Microsoft Visual Studio\2022\Professional\VC\Tools\MSVC\14.44.35207\include\xmemory
; File C:\Program Files\Microsoft Visual Studio\2022\Professional\VC\Tools\MSVC\14.44.35207\include\vector
;	COMDAT ??$_Emplace_reallocate@ABU__ALPHABET@CMiniGame@@@?$vector@U__ALPHABET@CMiniGame@@V?$allocator@U__ALPHABET@CMiniGame@@@std@@@std@@AAEPAU__ALPHABET@CMiniGame@@QAU23@ABU23@@Z
_TEXT	SEGMENT
__Guard$ = -64						; size = 20
__Backout$2 = -44					; size = 12
__Newsize$1$ = -32					; size = 4
_this$1$ = -28						; size = 4
tv566 = -24						; size = 4
__Whereoff$1$ = -20					; size = 4
tv565 = -20						; size = 4
$T3 = -16						; size = 4
__$EHRec$ = -12						; size = 12
__Whereptr$ = 8						; size = 4
_<_Val_0>$ = 12						; size = 4
__ULast$1$ = 12						; size = 4
??$_Emplace_reallocate@ABU__ALPHABET@CMiniGame@@@?$vector@U__ALPHABET@CMiniGame@@V?$allocator@U__ALPHABET@CMiniGame@@@std@@@std@@AAEPAU__ALPHABET@CMiniGame@@QAU23@ABU23@@Z PROC ; std::vector<CMiniGame::__ALPHABET,std::allocator<CMiniGame::__ALPHABET> >::_Emplace_reallocate<CMiniGame::__ALPHABET const &>, COMDAT
; _this$ = ecx

; 875  :     _CONSTEXPR20 pointer _Emplace_reallocate(const pointer _Whereptr, _Valty&&... _Val) {

  00000	55		 push	 ebp
  00001	8b ec		 mov	 ebp, esp
  00003	6a ff		 push	 -1
  00005	68 00 00 00 00	 push	 __ehhandler$??$_Emplace_reallocate@ABU__ALPHABET@CMiniGame@@@?$vector@U__ALPHABET@CMiniGame@@V?$allocator@U__ALPHABET@CMiniGame@@@std@@@std@@AAEPAU__ALPHABET@CMiniGame@@QAU23@ABU23@@Z
  0000a	64 a1 00 00 00
	00		 mov	 eax, DWORD PTR fs:0
  00010	50		 push	 eax
  00011	83 ec 34	 sub	 esp, 52			; 00000034H
  00014	53		 push	 ebx
  00015	56		 push	 esi
  00016	57		 push	 edi
  00017	a1 00 00 00 00	 mov	 eax, DWORD PTR ___security_cookie
  0001c	33 c5		 xor	 eax, ebp
  0001e	50		 push	 eax
  0001f	8d 45 f4	 lea	 eax, DWORD PTR __$EHRec$[ebp]
  00022	64 a3 00 00 00
	00		 mov	 DWORD PTR fs:0, eax
  00028	8b d9		 mov	 ebx, ecx
  0002a	89 5d e4	 mov	 DWORD PTR _this$1$[ebp], ebx

; 876  :         // reallocate and insert by perfectly forwarding _Val at _Whereptr
; 877  :         _Alty& _Al        = _Getal();
; 878  :         auto& _My_data    = _Mypair._Myval2;
; 879  :         pointer& _Myfirst = _My_data._Myfirst;
; 880  :         pointer& _Mylast  = _My_data._Mylast;
; 881  : 
; 882  :         _STL_INTERNAL_CHECK(_Mylast == _My_data._Myend); // check that we have no unused capacity
; 883  : 
; 884  :         const auto _Whereoff = static_cast<size_type>(_Whereptr - _Myfirst);

  0002d	8b 3b		 mov	 edi, DWORD PTR [ebx]
  0002f	b8 ab aa aa 2a	 mov	 eax, 715827883		; 2aaaaaabH
  00034	8b 55 08	 mov	 edx, DWORD PTR __Whereptr$[ebp]

; 885  :         const auto _Oldsize  = static_cast<size_type>(_Mylast - _Myfirst);

  00037	8b 4b 04	 mov	 ecx, DWORD PTR [ebx+4]
  0003a	2b d7		 sub	 edx, edi
  0003c	f7 ea		 imul	 edx
  0003e	2b cf		 sub	 ecx, edi
  00040	c1 fa 02	 sar	 edx, 2
  00043	8b c2		 mov	 eax, edx
  00045	c1 e8 1f	 shr	 eax, 31			; 0000001fH
  00048	03 c2		 add	 eax, edx
  0004a	89 45 ec	 mov	 DWORD PTR __Whereoff$1$[ebp], eax
  0004d	b8 ab aa aa 2a	 mov	 eax, 715827883		; 2aaaaaabH
  00052	f7 e9		 imul	 ecx
  00054	c1 fa 02	 sar	 edx, 2
  00057	8b c2		 mov	 eax, edx
  00059	c1 e8 1f	 shr	 eax, 31			; 0000001fH
  0005c	03 c2		 add	 eax, edx

; 886  : 
; 887  :         if (_Oldsize == max_size()) {

  0005e	3d aa aa aa 0a	 cmp	 eax, 178956970		; 0aaaaaaaH
  00063	0f 84 c5 01 00
	00		 je	 $LN94@Emplace_re

; 1924 :         return static_cast<size_type>(_My_data._Myend - _My_data._Myfirst);

  00069	8b 4b 08	 mov	 ecx, DWORD PTR [ebx+8]

; 889  :         }
; 890  : 
; 891  :         const size_type _Newsize = _Oldsize + 1;

  0006c	8d 70 01	 lea	 esi, DWORD PTR [eax+1]

; 1924 :         return static_cast<size_type>(_My_data._Myend - _My_data._Myfirst);

  0006f	2b cf		 sub	 ecx, edi

; 889  :         }
; 890  : 
; 891  :         const size_type _Newsize = _Oldsize + 1;

  00071	89 75 e0	 mov	 DWORD PTR __Newsize$1$[ebp], esi

; 1924 :         return static_cast<size_type>(_My_data._Myend - _My_data._Myfirst);

  00074	b8 ab aa aa 2a	 mov	 eax, 715827883		; 2aaaaaabH
  00079	f7 e9		 imul	 ecx

; 2011 :         if (_Oldcapacity > _Max - _Oldcapacity / 2) {

  0007b	b8 aa aa aa 0a	 mov	 eax, 178956970		; 0aaaaaaaH

; 1924 :         return static_cast<size_type>(_My_data._Myend - _My_data._Myfirst);

  00080	c1 fa 02	 sar	 edx, 2
  00083	8b ca		 mov	 ecx, edx
  00085	c1 e9 1f	 shr	 ecx, 31			; 0000001fH
  00088	03 ca		 add	 ecx, edx

; 2011 :         if (_Oldcapacity > _Max - _Oldcapacity / 2) {

  0008a	8b d1		 mov	 edx, ecx
  0008c	d1 ea		 shr	 edx, 1
  0008e	2b c2		 sub	 eax, edx
  00090	3b c8		 cmp	 ecx, eax
  00092	76 1e		 jbe	 SHORT $LN8@Emplace_re

; 2012 :             return _Max; // geometric growth would overflow

  00094	b8 f0 ff ff ff	 mov	 eax, -16		; fffffff0H
  00099	c7 45 e8 f0 ff
	ff ff		 mov	 DWORD PTR tv566[ebp], -16 ; fffffff0H
; File C:\Program Files\Microsoft Visual Studio\2022\Professional\VC\Tools\MSVC\14.44.35207\include\xmemory

; 253  :             return _Allocate_manually_vector_aligned<_Traits>(_Bytes);

  000a0	50		 push	 eax
; File C:\Program Files\Microsoft Visual Studio\2022\Professional\VC\Tools\MSVC\14.44.35207\include\vector

; 2012 :             return _Max; // geometric growth would overflow

  000a1	bf aa aa aa 0a	 mov	 edi, 178956970		; 0aaaaaaaH
; File C:\Program Files\Microsoft Visual Studio\2022\Professional\VC\Tools\MSVC\14.44.35207\include\xmemory

; 253  :             return _Allocate_manually_vector_aligned<_Traits>(_Bytes);

  000a6	e8 00 00 00 00	 call	 ??$_Allocate_manually_vector_aligned@U_Default_allocate_traits@std@@@std@@YAPAXI@Z ; std::_Allocate_manually_vector_aligned<std::_Default_allocate_traits>
  000ab	8b f0		 mov	 esi, eax
  000ad	89 75 f0	 mov	 DWORD PTR $T3[ebp], esi
  000b0	eb 49		 jmp	 SHORT $LN92@Emplace_re
$LN8@Emplace_re:
; File C:\Program Files\Microsoft Visual Studio\2022\Professional\VC\Tools\MSVC\14.44.35207\include\vector

; 2015 :         const size_type _Geometric = _Oldcapacity + _Oldcapacity / 2;

  000b2	8d 04 0a	 lea	 eax, DWORD PTR [edx+ecx]
; File C:\Program Files\Microsoft Visual Studio\2022\Professional\VC\Tools\MSVC\14.44.35207\include\xmemory

; 117  :         if (_Count > _Max_possible) {

  000b5	8b fe		 mov	 edi, esi
  000b7	3b c6		 cmp	 eax, esi
  000b9	0f 43 f8	 cmovae	 edi, eax
  000bc	81 ff aa aa aa
	0a		 cmp	 edi, 178956970		; 0aaaaaaaH
  000c2	0f 87 6b 01 00
	00		 ja	 $LN95@Emplace_re

; 119  :         }
; 120  :     }
; 121  : 
; 122  :     return _Count * _Ty_size;

  000c8	8d 04 7f	 lea	 eax, DWORD PTR [edi+edi*2]
  000cb	c1 e0 03	 shl	 eax, 3
  000ce	89 45 e8	 mov	 DWORD PTR tv566[ebp], eax

; 227  :     if (_Bytes == 0) {

  000d1	85 c0		 test	 eax, eax
  000d3	75 07		 jne	 SHORT $LN23@Emplace_re

; 228  :         return nullptr;

  000d5	33 f6		 xor	 esi, esi
  000d7	89 75 f0	 mov	 DWORD PTR $T3[ebp], esi
  000da	eb 22		 jmp	 SHORT $LN22@Emplace_re
$LN23@Emplace_re:

; 229  :     }
; 230  : 
; 231  : #if _HAS_CXX20 // TRANSITION, GH-1532
; 232  :     if (_STD is_constant_evaluated()) {
; 233  :         return _Traits::_Allocate(_Bytes);
; 234  :     }
; 235  : #endif // _HAS_CXX20
; 236  : 
; 237  : #ifdef __cpp_aligned_new
; 238  :     if constexpr (_Align > __STDCPP_DEFAULT_NEW_ALIGNMENT__) {
; 239  :         size_t _Passed_align = _Align;
; 240  : #if defined(_M_IX86) || defined(_M_X64)
; 241  :         if (_Bytes >= _Big_allocation_threshold) {
; 242  :             // boost the alignment of big allocations to help autovectorization
; 243  :             _Passed_align = (_STD max)(_Align, _Big_allocation_alignment);
; 244  :         }
; 245  : #endif // defined(_M_IX86) || defined(_M_X64)
; 246  :         return _Traits::_Allocate_aligned(_Bytes, _Passed_align);
; 247  :     } else
; 248  : #endif // defined(__cpp_aligned_new)
; 249  :     {
; 250  : #if defined(_M_IX86) || defined(_M_X64)
; 251  :         if (_Bytes >= _Big_allocation_threshold) {

  000dc	3d 00 10 00 00	 cmp	 eax, 4096		; 00001000H
  000e1	72 0d		 jb	 SHORT $LN24@Emplace_re

; 253  :             return _Allocate_manually_vector_aligned<_Traits>(_Bytes);

  000e3	50		 push	 eax
  000e4	e8 00 00 00 00	 call	 ??$_Allocate_manually_vector_aligned@U_Default_allocate_traits@std@@@std@@YAPAXI@Z ; std::_Allocate_manually_vector_aligned<std::_Default_allocate_traits>
  000e9	8b f0		 mov	 esi, eax
  000eb	89 75 f0	 mov	 DWORD PTR $T3[ebp], esi
  000ee	eb 0b		 jmp	 SHORT $LN92@Emplace_re
$LN24@Emplace_re:

; 136  :         return ::operator new(_Bytes);

  000f0	50		 push	 eax
  000f1	e8 00 00 00 00	 call	 ??2@YAPAXI@Z		; operator new

; 256  :         return _Traits::_Allocate(_Bytes);

  000f6	8b f0		 mov	 esi, eax
  000f8	89 45 f0	 mov	 DWORD PTR $T3[ebp], eax
$LN92@Emplace_re:
; File C:\Program Files\Microsoft Visual Studio\2022\Professional\VC\Tools\MSVC\14.44.35207\include\vector

; 895  :         const pointer _Constructed_last = _Newvec + _Whereoff + 1;

  000fb	83 c4 04	 add	 esp, 4
$LN22@Emplace_re:
  000fe	8b 45 ec	 mov	 eax, DWORD PTR __Whereoff$1$[ebp]

; 897  :         _Reallocation_guard _Guard{_Al, _Newvec, _Newcapacity, _Constructed_last, _Constructed_last};

  00101	89 5d c0	 mov	 DWORD PTR __Guard$[ebp], ebx
  00104	89 75 c4	 mov	 DWORD PTR __Guard$[ebp+4], esi
  00107	89 7d c8	 mov	 DWORD PTR __Guard$[ebp+8], edi
  0010a	8d 04 40	 lea	 eax, DWORD PTR [eax+eax*2]
  0010d	8d 0c c6	 lea	 ecx, DWORD PTR [esi+eax*8]
  00110	8d 41 18	 lea	 eax, DWORD PTR [ecx+24]
  00113	89 4d ec	 mov	 DWORD PTR tv565[ebp], ecx
  00116	89 45 cc	 mov	 DWORD PTR __Guard$[ebp+12], eax
  00119	89 45 d0	 mov	 DWORD PTR __Guard$[ebp+16], eax
; File C:\Program Files\Microsoft Visual Studio\2022\Professional\VC\Tools\MSVC\14.44.35207\include\xmemory

; 732  :         ::new (const_cast<void*>(static_cast<const volatile void*>(_Ptr))) _Objty(_STD forward<_Types>(_Args)...);

  0011c	ff 75 0c	 push	 DWORD PTR _<_Val_0>$[ebp]
; File C:\Program Files\Microsoft Visual Studio\2022\Professional\VC\Tools\MSVC\14.44.35207\include\vector

; 897  :         _Reallocation_guard _Guard{_Al, _Newvec, _Newcapacity, _Constructed_last, _Constructed_last};

  0011f	c7 45 fc 00 00
	00 00		 mov	 DWORD PTR __$EHRec$[ebp+8], 0
; File C:\Program Files\Microsoft Visual Studio\2022\Professional\VC\Tools\MSVC\14.44.35207\include\xmemory

; 732  :         ::new (const_cast<void*>(static_cast<const volatile void*>(_Ptr))) _Objty(_STD forward<_Types>(_Args)...);

  00126	e8 00 00 00 00	 call	 ??0__ALPHABET@CMiniGame@@QAE@ABU01@@Z
; File C:\Program Files\Microsoft Visual Studio\2022\Professional\VC\Tools\MSVC\14.44.35207\include\vector

; 901  :         _Constructed_first = _Newvec + _Whereoff;

  0012b	8b 45 ec	 mov	 eax, DWORD PTR tv565[ebp]

; 902  : 
; 903  :         if (_Whereptr == _Mylast) { // at back, provide strong guarantee

  0012e	8b 4d 08	 mov	 ecx, DWORD PTR __Whereptr$[ebp]
  00131	8b 3b		 mov	 edi, DWORD PTR [ebx]
  00133	89 45 cc	 mov	 DWORD PTR __Guard$[ebp+12], eax
  00136	8b 43 04	 mov	 eax, DWORD PTR [ebx+4]
  00139	89 45 0c	 mov	 DWORD PTR __ULast$1$[ebp], eax
  0013c	3b c8		 cmp	 ecx, eax
  0013e	75 3b		 jne	 SHORT $LN3@Emplace_re
; File C:\Program Files\Microsoft Visual Studio\2022\Professional\VC\Tools\MSVC\14.44.35207\include\xmemory

; 1833 :     _CONSTEXPR20 _Uninitialized_backout_al(pointer _Dest, _Alloc& _Al_) : _First(_Dest), _Last(_Dest), _Al(_Al_) {}

  00140	89 75 d4	 mov	 DWORD PTR __Backout$2[ebp], esi
  00143	89 75 d8	 mov	 DWORD PTR __Backout$2[ebp+4], esi
  00146	89 5d dc	 mov	 DWORD PTR __Backout$2[ebp+8], ebx

; 1900 :     _Uninitialized_backout_al<_Alloc> _Backout{_Dest, _Al};

  00149	c6 45 fc 01	 mov	 BYTE PTR __$EHRec$[ebp+8], 1

; 1901 :     for (; _UFirst != _ULast; ++_UFirst) {

  0014d	3b f8		 cmp	 edi, eax
  0014f	74 1a		 je	 SHORT $LN34@Emplace_re
  00151	8b d8		 mov	 ebx, eax
$LL35@Emplace_re:

; 732  :         ::new (const_cast<void*>(static_cast<const volatile void*>(_Ptr))) _Objty(_STD forward<_Types>(_Args)...);

  00153	57		 push	 edi
  00154	8b ce		 mov	 ecx, esi
  00156	e8 00 00 00 00	 call	 ??0__ALPHABET@CMiniGame@@QAE@ABU01@@Z

; 1845 :         ++_Last;

  0015b	83 c6 18	 add	 esi, 24			; 00000018H

; 1901 :     for (; _UFirst != _ULast; ++_UFirst) {

  0015e	83 c7 18	 add	 edi, 24			; 00000018H

; 1845 :         ++_Last;

  00161	89 75 d8	 mov	 DWORD PTR __Backout$2[ebp+4], esi

; 1901 :     for (; _UFirst != _ULast; ++_UFirst) {

  00164	3b fb		 cmp	 edi, ebx
  00166	75 eb		 jne	 SHORT $LL35@Emplace_re
  00168	8b 5d e4	 mov	 ebx, DWORD PTR _this$1$[ebp]
$LN34@Emplace_re:

; 1839 :         _STD _Destroy_range(_First, _Last, _Al);

  0016b	53		 push	 ebx
  0016c	56		 push	 esi
  0016d	56		 push	 esi
  0016e	e8 00 00 00 00	 call	 ??$_Destroy_range@V?$allocator@U__ALPHABET@CMiniGame@@@std@@@std@@YAXPAU__ALPHABET@CMiniGame@@QAU12@AAV?$allocator@U__ALPHABET@CMiniGame@@@0@@Z ; std::_Destroy_range<std::allocator<CMiniGame::__ALPHABET> >
; File C:\Program Files\Microsoft Visual Studio\2022\Professional\VC\Tools\MSVC\14.44.35207\include\vector

; 909  :         } else { // provide basic guarantee

  00173	8b 75 f0	 mov	 esi, DWORD PTR $T3[ebp]
; File C:\Program Files\Microsoft Visual Studio\2022\Professional\VC\Tools\MSVC\14.44.35207\include\xmemory

; 1839 :         _STD _Destroy_range(_First, _Last, _Al);

  00176	83 c4 0c	 add	 esp, 12			; 0000000cH
; File C:\Program Files\Microsoft Visual Studio\2022\Professional\VC\Tools\MSVC\14.44.35207\include\vector

; 909  :         } else { // provide basic guarantee

  00179	eb 22		 jmp	 SHORT $LN4@Emplace_re
$LN3@Emplace_re:

; 910  :             _STD _Uninitialized_move(_Myfirst, _Whereptr, _Newvec, _Al);

  0017b	53		 push	 ebx
  0017c	56		 push	 esi
  0017d	51		 push	 ecx
  0017e	57		 push	 edi
  0017f	e8 00 00 00 00	 call	 ??$_Uninitialized_move@PAU__ALPHABET@CMiniGame@@V?$allocator@U__ALPHABET@CMiniGame@@@std@@@std@@YAPAU__ALPHABET@CMiniGame@@QAU12@0PAU12@AAV?$allocator@U__ALPHABET@CMiniGame@@@0@@Z ; std::_Uninitialized_move<CMiniGame::__ALPHABET *,std::allocator<CMiniGame::__ALPHABET> >

; 911  :             _Constructed_first = _Newvec;
; 912  :             _STD _Uninitialized_move(_Whereptr, _Mylast, _Newvec + _Whereoff + 1, _Al);

  00184	8b 45 ec	 mov	 eax, DWORD PTR tv565[ebp]
  00187	53		 push	 ebx
  00188	83 c0 18	 add	 eax, 24			; 00000018H
  0018b	89 75 cc	 mov	 DWORD PTR __Guard$[ebp+12], esi
  0018e	50		 push	 eax
  0018f	ff 73 04	 push	 DWORD PTR [ebx+4]
  00192	ff 75 08	 push	 DWORD PTR __Whereptr$[ebp]
  00195	e8 00 00 00 00	 call	 ??$_Uninitialized_move@PAU__ALPHABET@CMiniGame@@V?$allocator@U__ALPHABET@CMiniGame@@@std@@@std@@YAPAU__ALPHABET@CMiniGame@@QAU12@0PAU12@AAV?$allocator@U__ALPHABET@CMiniGame@@@0@@Z ; std::_Uninitialized_move<CMiniGame::__ALPHABET *,std::allocator<CMiniGame::__ALPHABET> >
  0019a	83 c4 20	 add	 esp, 32			; 00000020H
$LN4@Emplace_re:

; 2069 :         if (_Myfirst) { // destroy and deallocate old array

  0019d	8b 0b		 mov	 ecx, DWORD PTR [ebx]
  0019f	85 c9		 test	 ecx, ecx
  001a1	74 4f		 je	 SHORT $LN58@Emplace_re

; 2070 :             _STD _Destroy_range(_Myfirst, _Mylast, _Al);

  001a3	53		 push	 ebx
  001a4	ff 73 04	 push	 DWORD PTR [ebx+4]
  001a7	51		 push	 ecx
  001a8	e8 00 00 00 00	 call	 ??$_Destroy_range@V?$allocator@U__ALPHABET@CMiniGame@@@std@@@std@@YAXPAU__ALPHABET@CMiniGame@@QAU12@AAV?$allocator@U__ALPHABET@CMiniGame@@@0@@Z ; std::_Destroy_range<std::allocator<CMiniGame::__ALPHABET> >

; 2071 :             _ASAN_VECTOR_REMOVE;
; 2072 :             _Al.deallocate(_Myfirst, static_cast<size_type>(_Myend - _Myfirst));

  001ad	8b 4b 08	 mov	 ecx, DWORD PTR [ebx+8]
  001b0	b8 ab aa aa 2a	 mov	 eax, 715827883		; 2aaaaaabH
  001b5	8b 3b		 mov	 edi, DWORD PTR [ebx]
  001b7	83 c4 0c	 add	 esp, 12			; 0000000cH
  001ba	2b cf		 sub	 ecx, edi
  001bc	f7 e9		 imul	 ecx
  001be	c1 fa 02	 sar	 edx, 2
  001c1	8b c2		 mov	 eax, edx
  001c3	c1 e8 1f	 shr	 eax, 31			; 0000001fH
  001c6	03 c2		 add	 eax, edx
; File C:\Program Files\Microsoft Visual Studio\2022\Professional\VC\Tools\MSVC\14.44.35207\include\xmemory

; 985  :         _STD _Deallocate<_New_alignof<_Ty>>(_Ptr, sizeof(_Ty) * _Count);

  001c8	8d 0c 40	 lea	 ecx, DWORD PTR [eax+eax*2]
  001cb	c1 e1 03	 shl	 ecx, 3

; 284  :         if (_Bytes >= _Big_allocation_threshold) {

  001ce	81 f9 00 10 00
	00		 cmp	 ecx, 4096		; 00001000H
  001d4	72 12		 jb	 SHORT $LN63@Emplace_re

; 205  :     const uintptr_t _Ptr_container   = _Ptr_user[-1];

  001d6	8b 57 fc	 mov	 edx, DWORD PTR [edi-4]
  001d9	83 c1 23	 add	 ecx, 35			; 00000023H

; 206  : 
; 207  :     // If the following asserts, it likely means that we are performing
; 208  :     // an aligned delete on memory coming from an unaligned allocation.
; 209  :     _STL_ASSERT(_Ptr_user[-2] == _Big_allocation_sentinel, "invalid argument");
; 210  : 
; 211  :     // Extra paranoia on aligned allocation/deallocation; ensure _Ptr_container is
; 212  :     // in range [_Min_back_shift, _Non_user_size]
; 213  : #ifdef _DEBUG
; 214  :     constexpr uintptr_t _Min_back_shift = 2 * sizeof(void*);
; 215  : #else // ^^^ defined(_DEBUG) / !defined(_DEBUG) vvv
; 216  :     constexpr uintptr_t _Min_back_shift = sizeof(void*);
; 217  : #endif // ^^^ !defined(_DEBUG) ^^^
; 218  :     const uintptr_t _Back_shift = reinterpret_cast<uintptr_t>(_Ptr) - _Ptr_container;

  001dc	2b fa		 sub	 edi, edx

; 219  :     _STL_VERIFY(_Back_shift >= _Min_back_shift && _Back_shift <= _Non_user_size, "invalid argument");

  001de	8d 47 fc	 lea	 eax, DWORD PTR [edi-4]
  001e1	83 f8 1f	 cmp	 eax, 31			; 0000001fH
  001e4	77 39		 ja	 SHORT $LN62@Emplace_re

; 220  :     _Ptr = reinterpret_cast<void*>(_Ptr_container);

  001e6	8b fa		 mov	 edi, edx
$LN63@Emplace_re:

; 289  :         ::operator delete(_Ptr, _Bytes);

  001e8	51		 push	 ecx
  001e9	57		 push	 edi
  001ea	e8 00 00 00 00	 call	 ??3@YAXPAXI@Z		; operator delete
  001ef	83 c4 08	 add	 esp, 8
$LN58@Emplace_re:
; File C:\Program Files\Microsoft Visual Studio\2022\Professional\VC\Tools\MSVC\14.44.35207\include\vector

; 2076 :         _Mylast  = _Newvec + _Newsize;

  001f2	8b 45 e0	 mov	 eax, DWORD PTR __Newsize$1$[ebp]
  001f5	89 33		 mov	 DWORD PTR [ebx], esi
  001f7	8d 0c 40	 lea	 ecx, DWORD PTR [eax+eax*2]

; 913  :         }
; 914  : 
; 915  :         _Guard._New_begin = nullptr;
; 916  :         _Change_array(_Newvec, _Newsize, _Newcapacity);
; 917  :         return _Newvec + _Whereoff;

  001fa	8b 45 ec	 mov	 eax, DWORD PTR tv565[ebp]

; 2076 :         _Mylast  = _Newvec + _Newsize;

  001fd	8d 0c ce	 lea	 ecx, DWORD PTR [esi+ecx*8]
  00200	89 4b 04	 mov	 DWORD PTR [ebx+4], ecx

; 2077 :         _Myend   = _Newvec + _Newcapacity;

  00203	8b 4d e8	 mov	 ecx, DWORD PTR tv566[ebp]
  00206	03 ce		 add	 ecx, esi
  00208	89 4b 08	 mov	 DWORD PTR [ebx+8], ecx

; 918  :     }

  0020b	8b 4d f4	 mov	 ecx, DWORD PTR __$EHRec$[ebp]
  0020e	64 89 0d 00 00
	00 00		 mov	 DWORD PTR fs:0, ecx
  00215	59		 pop	 ecx
  00216	5f		 pop	 edi
  00217	5e		 pop	 esi
  00218	5b		 pop	 ebx
  00219	8b e5		 mov	 esp, ebp
  0021b	5d		 pop	 ebp
  0021c	c2 08 00	 ret	 8
$LN62@Emplace_re:
; File C:\Program Files\Microsoft Visual Studio\2022\Professional\VC\Tools\MSVC\14.44.35207\include\xmemory

; 219  :     _STL_VERIFY(_Back_shift >= _Min_back_shift && _Back_shift <= _Non_user_size, "invalid argument");

  0021f	6a 00		 push	 0
  00221	6a 00		 push	 0
  00223	6a 00		 push	 0
  00225	6a 00		 push	 0
  00227	6a 00		 push	 0
  00229	e8 00 00 00 00	 call	 __invoke_watson
$LN94@Emplace_re:
; File C:\Program Files\Microsoft Visual Studio\2022\Professional\VC\Tools\MSVC\14.44.35207\include\vector

; 888  :             _Xlength();

  0022e	e8 00 00 00 00	 call	 ?_Xlength@?$vector@U__ALPHABET@CMiniGame@@V?$allocator@U__ALPHABET@CMiniGame@@@std@@@std@@CAXXZ ; std::vector<CMiniGame::__ALPHABET,std::allocator<CMiniGame::__ALPHABET> >::_Xlength
$LN95@Emplace_re:
; File C:\Program Files\Microsoft Visual Studio\2022\Professional\VC\Tools\MSVC\14.44.35207\include\xmemory

; 118  :             _Throw_bad_array_new_length(); // multiply overflow

  00233	e8 00 00 00 00	 call	 ?_Throw_bad_array_new_length@std@@YAXXZ ; std::_Throw_bad_array_new_length
$LN91@Emplace_re:
  00238	cc		 int	 3
_TEXT	ENDS
;	COMDAT text$x
text$x	SEGMENT
__unwindfunclet$??$_Emplace_reallocate@ABU__ALPHABET@CMiniGame@@@?$vector@U__ALPHABET@CMiniGame@@V?$allocator@U__ALPHABET@CMiniGame@@@std@@@std@@AAEPAU__ALPHABET@CMiniGame@@QAU23@ABU23@@Z$0:
  00000	8d 4d c0	 lea	 ecx, DWORD PTR __Guard$[ebp]
  00003	e9 00 00 00 00	 jmp	 ??1_Reallocation_guard@?$vector@U__ALPHABET@CMiniGame@@V?$allocator@U__ALPHABET@CMiniGame@@@std@@@std@@QAE@XZ ; std::vector<CMiniGame::__ALPHABET,std::allocator<CMiniGame::__ALPHABET> >::_Reallocation_guard::~_Reallocation_guard
__unwindfunclet$??$_Emplace_reallocate@ABU__ALPHABET@CMiniGame@@@?$vector@U__ALPHABET@CMiniGame@@V?$allocator@U__ALPHABET@CMiniGame@@@std@@@std@@AAEPAU__ALPHABET@CMiniGame@@QAU23@ABU23@@Z$1:
  00008	8d 4d d4	 lea	 ecx, DWORD PTR __Backout$2[ebp]
  0000b	e9 00 00 00 00	 jmp	 ??1?$_Uninitialized_backout_al@V?$allocator@U__ALPHABET@CMiniGame@@@std@@@std@@QAE@XZ ; std::_Uninitialized_backout_al<std::allocator<CMiniGame::__ALPHABET> >::~_Uninitialized_backout_al<std::allocator<CMiniGame::__ALPHABET> >
  00010	cc		 int	 3
  00011	cc		 int	 3
  00012	cc		 int	 3
  00013	cc		 int	 3
  00014	cc		 int	 3
__ehhandler$??$_Emplace_reallocate@ABU__ALPHABET@CMiniGame@@@?$vector@U__ALPHABET@CMiniGame@@V?$allocator@U__ALPHABET@CMiniGame@@@std@@@std@@AAEPAU__ALPHABET@CMiniGame@@QAU23@ABU23@@Z:
  00015	90		 npad	 1
  00016	90		 npad	 1
  00017	8b 54 24 08	 mov	 edx, DWORD PTR [esp+8]
  0001b	8d 42 0c	 lea	 eax, DWORD PTR [edx+12]
  0001e	8b 4a bc	 mov	 ecx, DWORD PTR [edx-68]
  00021	33 c8		 xor	 ecx, eax
  00023	e8 00 00 00 00	 call	 @__security_check_cookie@4
  00028	b8 00 00 00 00	 mov	 eax, OFFSET __ehfuncinfo$??$_Emplace_reallocate@ABU__ALPHABET@CMiniGame@@@?$vector@U__ALPHABET@CMiniGame@@V?$allocator@U__ALPHABET@CMiniGame@@@std@@@std@@AAEPAU__ALPHABET@CMiniGame@@QAU23@ABU23@@Z
  0002d	e9 00 00 00 00	 jmp	 ___CxxFrameHandler3
text$x	ENDS
??$_Emplace_reallocate@ABU__ALPHABET@CMiniGame@@@?$vector@U__ALPHABET@CMiniGame@@V?$allocator@U__ALPHABET@CMiniGame@@@std@@@std@@AAEPAU__ALPHABET@CMiniGame@@QAU23@ABU23@@Z ENDP ; std::vector<CMiniGame::__ALPHABET,std::allocator<CMiniGame::__ALPHABET> >::_Emplace_reallocate<CMiniGame::__ALPHABET const &>
; Function compile flags: /Ogtp
; File C:\Program Files\Microsoft Visual Studio\2022\Professional\VC\Tools\MSVC\14.44.35207\include\xtree
; File C:\Program Files\Microsoft Visual Studio\2022\Professional\VC\Tools\MSVC\14.44.35207\include\utility
; File C:\Program Files\Microsoft Visual Studio\2022\Professional\VC\Tools\MSVC\14.44.35207\include\xmemory
; File C:\Program Files\Microsoft Visual Studio\2022\Professional\VC\Tools\MSVC\14.44.35207\include\xtree
;	COMDAT ??$_Erase_tree@V?$allocator@U?$_Tree_node@U?$pair@$$CBHU__KAWIBAWIBO@CMiniGame@@@std@@PAX@std@@@std@@@?$_Tree_val@U?$_Tree_simple_types@U?$pair@$$CBHU__KAWIBAWIBO@CMiniGame@@@std@@@std@@@std@@QAEXAAV?$allocator@U?$_Tree_node@U?$pair@$$CBHU__KAWIBAWIBO@CMiniGame@@@std@@PAX@std@@@1@PAU?$_Tree_node@U?$pair@$$CBHU__KAWIBAWIBO@CMiniGame@@@std@@PAX@1@@Z
_TEXT	SEGMENT
__Al$ = 8						; size = 4
__Rootnode$ = 12					; size = 4
??$_Erase_tree@V?$allocator@U?$_Tree_node@U?$pair@$$CBHU__KAWIBAWIBO@CMiniGame@@@std@@PAX@std@@@std@@@?$_Tree_val@U?$_Tree_simple_types@U?$pair@$$CBHU__KAWIBAWIBO@CMiniGame@@@std@@@std@@@std@@QAEXAAV?$allocator@U?$_Tree_node@U?$pair@$$CBHU__KAWIBAWIBO@CMiniGame@@@std@@PAX@std@@@1@PAU?$_Tree_node@U?$pair@$$CBHU__KAWIBAWIBO@CMiniGame@@@std@@PAX@1@@Z PROC ; std::_Tree_val<std::_Tree_simple_types<std::pair<int const ,CMiniGame::__KAWIBAWIBO> > >::_Erase_tree<std::allocator<std::_Tree_node<std::pair<int const ,CMiniGame::__KAWIBAWIBO>,void *> > >, COMDAT
; _this$ = ecx

; 767  :     void _Erase_tree(_Alnode& _Al, _Nodeptr _Rootnode) noexcept {

  00000	55		 push	 ebp
  00001	8b ec		 mov	 ebp, esp
  00003	53		 push	 ebx
  00004	56		 push	 esi

; 768  :         while (!_Rootnode->_Isnil) { // free subtrees, then node

  00005	8b 75 0c	 mov	 esi, DWORD PTR __Rootnode$[ebp]
  00008	8b d9		 mov	 ebx, ecx
  0000a	80 7e 0d 00	 cmp	 BYTE PTR [esi+13], 0
  0000e	75 25		 jne	 SHORT $LN34@Erase_tree
  00010	57		 push	 edi
  00011	8b 7d 08	 mov	 edi, DWORD PTR __Al$[ebp]
$LL2@Erase_tree:

; 769  :             _Erase_tree(_Al, _Rootnode->_Right);

  00014	ff 76 08	 push	 DWORD PTR [esi+8]
  00017	8b cb		 mov	 ecx, ebx
  00019	57		 push	 edi
  0001a	e8 00 00 00 00	 call	 ??$_Erase_tree@V?$allocator@U?$_Tree_node@U?$pair@$$CBHU__KAWIBAWIBO@CMiniGame@@@std@@PAX@std@@@std@@@?$_Tree_val@U?$_Tree_simple_types@U?$pair@$$CBHU__KAWIBAWIBO@CMiniGame@@@std@@@std@@@std@@QAEXAAV?$allocator@U?$_Tree_node@U?$pair@$$CBHU__KAWIBAWIBO@CMiniGame@@@std@@PAX@std@@@1@PAU?$_Tree_node@U?$pair@$$CBHU__KAWIBAWIBO@CMiniGame@@@std@@PAX@1@@Z ; std::_Tree_val<std::_Tree_simple_types<std::pair<int const ,CMiniGame::__KAWIBAWIBO> > >::_Erase_tree<std::allocator<std::_Tree_node<std::pair<int const ,CMiniGame::__KAWIBAWIBO>,void *> > >
; File C:\Program Files\Microsoft Visual Studio\2022\Professional\VC\Tools\MSVC\14.44.35207\include\utility

; 773  :     _Ty _Old_val = static_cast<_Ty&&>(_Val);

  0001f	8b c6		 mov	 eax, esi

; 774  :     _Val         = static_cast<_Other&&>(_New_val);

  00021	8b 36		 mov	 esi, DWORD PTR [esi]
; File C:\Program Files\Microsoft Visual Studio\2022\Professional\VC\Tools\MSVC\14.44.35207\include\xmemory

; 289  :         ::operator delete(_Ptr, _Bytes);

  00023	6a 28		 push	 40			; 00000028H
  00025	50		 push	 eax
  00026	e8 00 00 00 00	 call	 ??3@YAXPAXI@Z		; operator delete
  0002b	83 c4 08	 add	 esp, 8
; File C:\Program Files\Microsoft Visual Studio\2022\Professional\VC\Tools\MSVC\14.44.35207\include\xtree

; 768  :         while (!_Rootnode->_Isnil) { // free subtrees, then node

  0002e	80 7e 0d 00	 cmp	 BYTE PTR [esi+13], 0
  00032	74 e0		 je	 SHORT $LL2@Erase_tree
  00034	5f		 pop	 edi
$LN34@Erase_tree:
  00035	5e		 pop	 esi

; 770  :             _Alnode::value_type::_Freenode(_Al, _STD exchange(_Rootnode, _Rootnode->_Left));
; 771  :         }
; 772  :     }

  00036	5b		 pop	 ebx
  00037	5d		 pop	 ebp
  00038	c2 08 00	 ret	 8
??$_Erase_tree@V?$allocator@U?$_Tree_node@U?$pair@$$CBHU__KAWIBAWIBO@CMiniGame@@@std@@PAX@std@@@std@@@?$_Tree_val@U?$_Tree_simple_types@U?$pair@$$CBHU__KAWIBAWIBO@CMiniGame@@@std@@@std@@@std@@QAEXAAV?$allocator@U?$_Tree_node@U?$pair@$$CBHU__KAWIBAWIBO@CMiniGame@@@std@@PAX@std@@@1@PAU?$_Tree_node@U?$pair@$$CBHU__KAWIBAWIBO@CMiniGame@@@std@@PAX@1@@Z ENDP ; std::_Tree_val<std::_Tree_simple_types<std::pair<int const ,CMiniGame::__KAWIBAWIBO> > >::_Erase_tree<std::allocator<std::_Tree_node<std::pair<int const ,CMiniGame::__KAWIBAWIBO>,void *> > >
_TEXT	ENDS
; Function compile flags: /Ogtp
; File C:\Program Files\Microsoft Visual Studio\2022\Professional\VC\Tools\MSVC\14.44.35207\include\xtree
; File C:\Program Files\Microsoft Visual Studio\2022\Professional\VC\Tools\MSVC\14.44.35207\include\type_traits
; File C:\Program Files\Microsoft Visual Studio\2022\Professional\VC\Tools\MSVC\14.44.35207\include\xtree
; File C:\Program Files\Microsoft Visual Studio\2022\Professional\VC\Tools\MSVC\14.44.35207\include\type_traits
; File C:\Program Files\Microsoft Visual Studio\2022\Professional\VC\Tools\MSVC\14.44.35207\include\xtree
;	COMDAT ??$_Find_lower_bound@H@?$_Tree@V?$_Tmap_traits@HU__KAWIBAWIBO@CMiniGame@@U?$less@H@std@@V?$allocator@U?$pair@$$CBHU__KAWIBAWIBO@CMiniGame@@@std@@@4@$0A@@std@@@std@@IBE?AU?$_Tree_find_result@PAU?$_Tree_node@U?$pair@$$CBHU__KAWIBAWIBO@CMiniGame@@@std@@PAX@std@@@1@ABH@Z
_TEXT	SEGMENT
___$ReturnUdt$ = 8					; size = 4
__Keyval$ = 12						; size = 4
??$_Find_lower_bound@H@?$_Tree@V?$_Tmap_traits@HU__KAWIBAWIBO@CMiniGame@@U?$less@H@std@@V?$allocator@U?$pair@$$CBHU__KAWIBAWIBO@CMiniGame@@@std@@@4@$0A@@std@@@std@@IBE?AU?$_Tree_find_result@PAU?$_Tree_node@U?$pair@$$CBHU__KAWIBAWIBO@CMiniGame@@@std@@PAX@std@@@1@ABH@Z PROC ; std::_Tree<std::_Tmap_traits<int,CMiniGame::__KAWIBAWIBO,std::less<int>,std::allocator<std::pair<int const ,CMiniGame::__KAWIBAWIBO> >,0> >::_Find_lower_bound<int>, COMDAT
; _this$ = ecx

; 1628 :     _Tree_find_result<_Nodeptr> _Find_lower_bound(const _Keyty& _Keyval) const {

  00000	55		 push	 ebp
  00001	8b ec		 mov	 ebp, esp

; 1629 :         const auto _Scary = _Get_scary();
; 1630 :         _Tree_find_result<_Nodeptr> _Result{{_Scary->_Myhead->_Parent, _Tree_child::_Right}, _Scary->_Myhead};

  00003	8b 09		 mov	 ecx, DWORD PTR [ecx]
  00005	8b 55 08	 mov	 edx, DWORD PTR ___$ReturnUdt$[ebp]
  00008	8b 41 04	 mov	 eax, DWORD PTR [ecx+4]
  0000b	89 02		 mov	 DWORD PTR [edx], eax
  0000d	c7 42 04 00 00
	00 00		 mov	 DWORD PTR [edx+4], 0
  00014	89 4a 08	 mov	 DWORD PTR [edx+8], ecx

; 1631 :         _Nodeptr _Trynode = _Result._Location._Parent;
; 1632 :         while (!_Trynode->_Isnil) {

  00017	80 78 0d 00	 cmp	 BYTE PTR [eax+13], 0
  0001b	75 28		 jne	 SHORT $LN13@Find_lower
; File C:\Program Files\Microsoft Visual Studio\2022\Professional\VC\Tools\MSVC\14.44.35207\include\type_traits

; 2380 :         return _Left < _Right;

  0001d	8b 4d 0c	 mov	 ecx, DWORD PTR __Keyval$[ebp]
  00020	56		 push	 esi
  00021	8b 31		 mov	 esi, DWORD PTR [ecx]
$LL2@Find_lower:
; File C:\Program Files\Microsoft Visual Studio\2022\Professional\VC\Tools\MSVC\14.44.35207\include\xtree

; 1633 :             _Result._Location._Parent = _Trynode;

  00023	89 02		 mov	 DWORD PTR [edx], eax
; File C:\Program Files\Microsoft Visual Studio\2022\Professional\VC\Tools\MSVC\14.44.35207\include\type_traits

; 2380 :         return _Left < _Right;

  00025	39 70 10	 cmp	 DWORD PTR [eax+16], esi
; File C:\Program Files\Microsoft Visual Studio\2022\Professional\VC\Tools\MSVC\14.44.35207\include\xtree

; 1634 :             if (_DEBUG_LT_PRED(_Getcomp(), _Traits::_Kfn(_Trynode->_Myval), _Keyval)) {

  00028	7d 07		 jge	 SHORT $LN4@Find_lower

; 1635 :                 _Result._Location._Child = _Tree_child::_Right;
; 1636 :                 _Trynode                 = _Trynode->_Right;

  0002a	8b 40 08	 mov	 eax, DWORD PTR [eax+8]
  0002d	33 c9		 xor	 ecx, ecx

; 1637 :             } else {

  0002f	eb 0a		 jmp	 SHORT $LN5@Find_lower
$LN4@Find_lower:

; 1638 :                 _Result._Location._Child = _Tree_child::_Left;
; 1639 :                 _Result._Bound           = _Trynode;

  00031	89 42 08	 mov	 DWORD PTR [edx+8], eax

; 1640 :                 _Trynode                 = _Trynode->_Left;

  00034	b9 01 00 00 00	 mov	 ecx, 1
  00039	8b 00		 mov	 eax, DWORD PTR [eax]
$LN5@Find_lower:

; 1631 :         _Nodeptr _Trynode = _Result._Location._Parent;
; 1632 :         while (!_Trynode->_Isnil) {

  0003b	89 4a 04	 mov	 DWORD PTR [edx+4], ecx
  0003e	80 78 0d 00	 cmp	 BYTE PTR [eax+13], 0
  00042	74 df		 je	 SHORT $LL2@Find_lower
  00044	5e		 pop	 esi
$LN13@Find_lower:

; 1641 :             }
; 1642 :         }
; 1643 : 
; 1644 :         return _Result;
; 1645 :     }

  00045	8b c2		 mov	 eax, edx
  00047	5d		 pop	 ebp
  00048	c2 08 00	 ret	 8
??$_Find_lower_bound@H@?$_Tree@V?$_Tmap_traits@HU__KAWIBAWIBO@CMiniGame@@U?$less@H@std@@V?$allocator@U?$pair@$$CBHU__KAWIBAWIBO@CMiniGame@@@std@@@4@$0A@@std@@@std@@IBE?AU?$_Tree_find_result@PAU?$_Tree_node@U?$pair@$$CBHU__KAWIBAWIBO@CMiniGame@@@std@@PAX@std@@@1@ABH@Z ENDP ; std::_Tree<std::_Tmap_traits<int,CMiniGame::__KAWIBAWIBO,std::less<int>,std::allocator<std::pair<int const ,CMiniGame::__KAWIBAWIBO> >,0> >::_Find_lower_bound<int>
_TEXT	ENDS
; Function compile flags: /Ogtp
; File C:\Program Files\Microsoft Visual Studio\2022\Professional\VC\Tools\MSVC\14.44.35207\include\xtree
; File C:\Program Files\Microsoft Visual Studio\2022\Professional\VC\Tools\MSVC\14.44.35207\include\utility
; File C:\Program Files\Microsoft Visual Studio\2022\Professional\VC\Tools\MSVC\14.44.35207\include\xmemory
; File C:\Program Files\Microsoft Visual Studio\2022\Professional\VC\Tools\MSVC\14.44.35207\include\xtree
;	COMDAT ??$_Erase_tree@V?$allocator@U?$_Tree_node@U?$pair@$$CBHU__FIVESYSTEM@CMiniGame@@@std@@PAX@std@@@std@@@?$_Tree_val@U?$_Tree_simple_types@U?$pair@$$CBHU__FIVESYSTEM@CMiniGame@@@std@@@std@@@std@@QAEXAAV?$allocator@U?$_Tree_node@U?$pair@$$CBHU__FIVESYSTEM@CMiniGame@@@std@@PAX@std@@@1@PAU?$_Tree_node@U?$pair@$$CBHU__FIVESYSTEM@CMiniGame@@@std@@PAX@1@@Z
_TEXT	SEGMENT
__Al$ = 8						; size = 4
__Rootnode$ = 12					; size = 4
??$_Erase_tree@V?$allocator@U?$_Tree_node@U?$pair@$$CBHU__FIVESYSTEM@CMiniGame@@@std@@PAX@std@@@std@@@?$_Tree_val@U?$_Tree_simple_types@U?$pair@$$CBHU__FIVESYSTEM@CMiniGame@@@std@@@std@@@std@@QAEXAAV?$allocator@U?$_Tree_node@U?$pair@$$CBHU__FIVESYSTEM@CMiniGame@@@std@@PAX@std@@@1@PAU?$_Tree_node@U?$pair@$$CBHU__FIVESYSTEM@CMiniGame@@@std@@PAX@1@@Z PROC ; std::_Tree_val<std::_Tree_simple_types<std::pair<int const ,CMiniGame::__FIVESYSTEM> > >::_Erase_tree<std::allocator<std::_Tree_node<std::pair<int const ,CMiniGame::__FIVESYSTEM>,void *> > >, COMDAT
; _this$ = ecx

; 767  :     void _Erase_tree(_Alnode& _Al, _Nodeptr _Rootnode) noexcept {

  00000	55		 push	 ebp
  00001	8b ec		 mov	 ebp, esp
  00003	53		 push	 ebx
  00004	56		 push	 esi

; 768  :         while (!_Rootnode->_Isnil) { // free subtrees, then node

  00005	8b 75 0c	 mov	 esi, DWORD PTR __Rootnode$[ebp]
  00008	8b d9		 mov	 ebx, ecx
  0000a	80 7e 0d 00	 cmp	 BYTE PTR [esi+13], 0
  0000e	75 25		 jne	 SHORT $LN34@Erase_tree
  00010	57		 push	 edi
  00011	8b 7d 08	 mov	 edi, DWORD PTR __Al$[ebp]
$LL2@Erase_tree:

; 769  :             _Erase_tree(_Al, _Rootnode->_Right);

  00014	ff 76 08	 push	 DWORD PTR [esi+8]
  00017	8b cb		 mov	 ecx, ebx
  00019	57		 push	 edi
  0001a	e8 00 00 00 00	 call	 ??$_Erase_tree@V?$allocator@U?$_Tree_node@U?$pair@$$CBHU__FIVESYSTEM@CMiniGame@@@std@@PAX@std@@@std@@@?$_Tree_val@U?$_Tree_simple_types@U?$pair@$$CBHU__FIVESYSTEM@CMiniGame@@@std@@@std@@@std@@QAEXAAV?$allocator@U?$_Tree_node@U?$pair@$$CBHU__FIVESYSTEM@CMiniGame@@@std@@PAX@std@@@1@PAU?$_Tree_node@U?$pair@$$CBHU__FIVESYSTEM@CMiniGame@@@std@@PAX@1@@Z ; std::_Tree_val<std::_Tree_simple_types<std::pair<int const ,CMiniGame::__FIVESYSTEM> > >::_Erase_tree<std::allocator<std::_Tree_node<std::pair<int const ,CMiniGame::__FIVESYSTEM>,void *> > >
; File C:\Program Files\Microsoft Visual Studio\2022\Professional\VC\Tools\MSVC\14.44.35207\include\utility

; 773  :     _Ty _Old_val = static_cast<_Ty&&>(_Val);

  0001f	8b c6		 mov	 eax, esi

; 774  :     _Val         = static_cast<_Other&&>(_New_val);

  00021	8b 36		 mov	 esi, DWORD PTR [esi]
; File C:\Program Files\Microsoft Visual Studio\2022\Professional\VC\Tools\MSVC\14.44.35207\include\xmemory

; 289  :         ::operator delete(_Ptr, _Bytes);

  00023	6a 1c		 push	 28			; 0000001cH
  00025	50		 push	 eax
  00026	e8 00 00 00 00	 call	 ??3@YAXPAXI@Z		; operator delete
  0002b	83 c4 08	 add	 esp, 8
; File C:\Program Files\Microsoft Visual Studio\2022\Professional\VC\Tools\MSVC\14.44.35207\include\xtree

; 768  :         while (!_Rootnode->_Isnil) { // free subtrees, then node

  0002e	80 7e 0d 00	 cmp	 BYTE PTR [esi+13], 0
  00032	74 e0		 je	 SHORT $LL2@Erase_tree
  00034	5f		 pop	 edi
$LN34@Erase_tree:
  00035	5e		 pop	 esi

; 770  :             _Alnode::value_type::_Freenode(_Al, _STD exchange(_Rootnode, _Rootnode->_Left));
; 771  :         }
; 772  :     }

  00036	5b		 pop	 ebx
  00037	5d		 pop	 ebp
  00038	c2 08 00	 ret	 8
??$_Erase_tree@V?$allocator@U?$_Tree_node@U?$pair@$$CBHU__FIVESYSTEM@CMiniGame@@@std@@PAX@std@@@std@@@?$_Tree_val@U?$_Tree_simple_types@U?$pair@$$CBHU__FIVESYSTEM@CMiniGame@@@std@@@std@@@std@@QAEXAAV?$allocator@U?$_Tree_node@U?$pair@$$CBHU__FIVESYSTEM@CMiniGame@@@std@@PAX@std@@@1@PAU?$_Tree_node@U?$pair@$$CBHU__FIVESYSTEM@CMiniGame@@@std@@PAX@1@@Z ENDP ; std::_Tree_val<std::_Tree_simple_types<std::pair<int const ,CMiniGame::__FIVESYSTEM> > >::_Erase_tree<std::allocator<std::_Tree_node<std::pair<int const ,CMiniGame::__FIVESYSTEM>,void *> > >
_TEXT	ENDS
; Function compile flags: /Ogtp
; File C:\Program Files\Microsoft Visual Studio\2022\Professional\VC\Tools\MSVC\14.44.35207\include\vector
; File C:\Program Files\Microsoft Visual Studio\2022\Professional\VC\Tools\MSVC\14.44.35207\include\xmemory
; File C:\Program Files\Microsoft Visual Studio\2022\Professional\VC\Tools\MSVC\14.44.35207\include\vector
; File C:\Program Files\Microsoft Visual Studio\2022\Professional\VC\Tools\MSVC\14.44.35207\include\xmemory
; File C:\Program Files\Microsoft Visual Studio\2022\Professional\VC\Tools\MSVC\14.44.35207\include\vector
; File C:\Program Files\Microsoft Visual Studio\2022\Professional\VC\Tools\MSVC\14.44.35207\include\xmemory
; File C:\Program Files\Microsoft Visual Studio\2022\Professional\VC\Tools\MSVC\14.44.35207\include\vector
; File C:\Program Files\Microsoft Visual Studio\2022\Professional\VC\Tools\MSVC\14.44.35207\include\xmemory
; File C:\Program Files\Microsoft Visual Studio\2022\Professional\VC\Tools\MSVC\14.44.35207\include\vector
; File C:\Program Files\Microsoft Visual Studio\2022\Professional\VC\Tools\MSVC\14.44.35207\include\xmemory
; File C:\Program Files\Microsoft Visual Studio\2022\Professional\VC\Tools\MSVC\14.44.35207\include\vector
; File C:\Program Files\Microsoft Visual Studio\2022\Professional\VC\Tools\MSVC\14.44.35207\include\xmemory
; File C:\Program Files\Microsoft Visual Studio\2022\Professional\VC\Tools\MSVC\14.44.35207\include\vector
; File C:\Program Files\Microsoft Visual Studio\2022\Professional\VC\Tools\MSVC\14.44.35207\include\xmemory
; File C:\Program Files\Microsoft Visual Studio\2022\Professional\VC\Tools\MSVC\14.44.35207\include\vector
; File C:\Program Files\Microsoft Visual Studio\2022\Professional\VC\Tools\MSVC\14.44.35207\include\xmemory
; File C:\Program Files\Microsoft Visual Studio\2022\Professional\VC\Tools\MSVC\14.44.35207\include\vector
;	COMDAT ??$_Emplace_reallocate@ABK@?$vector@KV?$allocator@K@std@@@std@@AAEPAKQAKABK@Z
_TEXT	SEGMENT
__Newsize$1$ = -12					; size = 4
tv652 = -8						; size = 4
tv650 = -4						; size = 4
__Whereptr$ = 8						; size = 4
_<_Val_0>$ = 12						; size = 4
??$_Emplace_reallocate@ABK@?$vector@KV?$allocator@K@std@@@std@@AAEPAKQAKABK@Z PROC ; std::vector<unsigned long,std::allocator<unsigned long> >::_Emplace_reallocate<unsigned long const &>, COMDAT
; _this$ = ecx

; 875  :     _CONSTEXPR20 pointer _Emplace_reallocate(const pointer _Whereptr, _Valty&&... _Val) {

  00000	55		 push	 ebp
  00001	8b ec		 mov	 ebp, esp
  00003	83 ec 0c	 sub	 esp, 12			; 0000000cH
  00006	53		 push	 ebx

; 876  :         // reallocate and insert by perfectly forwarding _Val at _Whereptr
; 877  :         _Alty& _Al        = _Getal();
; 878  :         auto& _My_data    = _Mypair._Myval2;
; 879  :         pointer& _Myfirst = _My_data._Myfirst;
; 880  :         pointer& _Mylast  = _My_data._Mylast;
; 881  : 
; 882  :         _STL_INTERNAL_CHECK(_Mylast == _My_data._Myend); // check that we have no unused capacity
; 883  : 
; 884  :         const auto _Whereoff = static_cast<size_type>(_Whereptr - _Myfirst);

  00007	8b 5d 08	 mov	 ebx, DWORD PTR __Whereptr$[ebp]
  0000a	56		 push	 esi
  0000b	8b f1		 mov	 esi, ecx
  0000d	57		 push	 edi
  0000e	8b 0e		 mov	 ecx, DWORD PTR [esi]
  00010	2b d9		 sub	 ebx, ecx

; 885  :         const auto _Oldsize  = static_cast<size_type>(_Mylast - _Myfirst);

  00012	8b 46 04	 mov	 eax, DWORD PTR [esi+4]
  00015	2b c1		 sub	 eax, ecx
  00017	c1 fb 02	 sar	 ebx, 2
  0001a	c1 f8 02	 sar	 eax, 2

; 886  : 
; 887  :         if (_Oldsize == max_size()) {

  0001d	3d ff ff ff 3f	 cmp	 eax, 1073741823		; 3fffffffH
  00022	0f 84 13 01 00
	00		 je	 $LN111@Emplace_re

; 1924 :         return static_cast<size_type>(_My_data._Myend - _My_data._Myfirst);

  00028	8b 56 08	 mov	 edx, DWORD PTR [esi+8]

; 889  :         }
; 890  : 
; 891  :         const size_type _Newsize = _Oldsize + 1;

  0002b	8d 78 01	 lea	 edi, DWORD PTR [eax+1]

; 1924 :         return static_cast<size_type>(_My_data._Myend - _My_data._Myfirst);

  0002e	2b d1		 sub	 edx, ecx

; 889  :         }
; 890  : 
; 891  :         const size_type _Newsize = _Oldsize + 1;

  00030	89 7d f4	 mov	 DWORD PTR __Newsize$1$[ebp], edi

; 1924 :         return static_cast<size_type>(_My_data._Myend - _My_data._Myfirst);

  00033	c1 fa 02	 sar	 edx, 2

; 2011 :         if (_Oldcapacity > _Max - _Oldcapacity / 2) {

  00036	b8 ff ff ff 3f	 mov	 eax, 1073741823		; 3fffffffH
  0003b	8b ca		 mov	 ecx, edx
  0003d	d1 e9		 shr	 ecx, 1
  0003f	2b c1		 sub	 eax, ecx
  00041	3b d0		 cmp	 edx, eax
  00043	76 14		 jbe	 SHORT $LN8@Emplace_re

; 2012 :             return _Max; // geometric growth would overflow

  00045	b8 fc ff ff ff	 mov	 eax, -4			; fffffffcH
  0004a	c7 45 f8 fc ff
	ff ff		 mov	 DWORD PTR tv652[ebp], -4 ; fffffffcH
; File C:\Program Files\Microsoft Visual Studio\2022\Professional\VC\Tools\MSVC\14.44.35207\include\xmemory

; 253  :             return _Allocate_manually_vector_aligned<_Traits>(_Bytes);

  00051	50		 push	 eax
  00052	e8 00 00 00 00	 call	 ??$_Allocate_manually_vector_aligned@U_Default_allocate_traits@std@@@std@@YAPAXI@Z ; std::_Allocate_manually_vector_aligned<std::_Default_allocate_traits>
  00057	eb 3d		 jmp	 SHORT $LN109@Emplace_re
$LN8@Emplace_re:
; File C:\Program Files\Microsoft Visual Studio\2022\Professional\VC\Tools\MSVC\14.44.35207\include\vector

; 2015 :         const size_type _Geometric = _Oldcapacity + _Oldcapacity / 2;

  00059	8d 04 11	 lea	 eax, DWORD PTR [ecx+edx]
; File C:\Program Files\Microsoft Visual Studio\2022\Professional\VC\Tools\MSVC\14.44.35207\include\xmemory

; 117  :         if (_Count > _Max_possible) {

  0005c	8b cf		 mov	 ecx, edi
  0005e	3b c7		 cmp	 eax, edi
  00060	0f 43 c8	 cmovae	 ecx, eax
  00063	81 f9 ff ff ff
	3f		 cmp	 ecx, 1073741823		; 3fffffffH
  00069	0f 87 d1 00 00
	00		 ja	 $LN112@Emplace_re

; 119  :         }
; 120  :     }
; 121  : 
; 122  :     return _Count * _Ty_size;

  0006f	8d 04 8d 00 00
	00 00		 lea	 eax, DWORD PTR [ecx*4]
  00076	89 45 f8	 mov	 DWORD PTR tv652[ebp], eax

; 227  :     if (_Bytes == 0) {

  00079	85 c0		 test	 eax, eax
  0007b	75 04		 jne	 SHORT $LN23@Emplace_re

; 228  :         return nullptr;

  0007d	33 ff		 xor	 edi, edi
  0007f	eb 1a		 jmp	 SHORT $LN22@Emplace_re
$LN23@Emplace_re:

; 229  :     }
; 230  : 
; 231  : #if _HAS_CXX20 // TRANSITION, GH-1532
; 232  :     if (_STD is_constant_evaluated()) {
; 233  :         return _Traits::_Allocate(_Bytes);
; 234  :     }
; 235  : #endif // _HAS_CXX20
; 236  : 
; 237  : #ifdef __cpp_aligned_new
; 238  :     if constexpr (_Align > __STDCPP_DEFAULT_NEW_ALIGNMENT__) {
; 239  :         size_t _Passed_align = _Align;
; 240  : #if defined(_M_IX86) || defined(_M_X64)
; 241  :         if (_Bytes >= _Big_allocation_threshold) {
; 242  :             // boost the alignment of big allocations to help autovectorization
; 243  :             _Passed_align = (_STD max)(_Align, _Big_allocation_alignment);
; 244  :         }
; 245  : #endif // defined(_M_IX86) || defined(_M_X64)
; 246  :         return _Traits::_Allocate_aligned(_Bytes, _Passed_align);
; 247  :     } else
; 248  : #endif // defined(__cpp_aligned_new)
; 249  :     {
; 250  : #if defined(_M_IX86) || defined(_M_X64)
; 251  :         if (_Bytes >= _Big_allocation_threshold) {

  00081	3d 00 10 00 00	 cmp	 eax, 4096		; 00001000H
  00086	72 08		 jb	 SHORT $LN24@Emplace_re

; 253  :             return _Allocate_manually_vector_aligned<_Traits>(_Bytes);

  00088	50		 push	 eax
  00089	e8 00 00 00 00	 call	 ??$_Allocate_manually_vector_aligned@U_Default_allocate_traits@std@@@std@@YAPAXI@Z ; std::_Allocate_manually_vector_aligned<std::_Default_allocate_traits>
  0008e	eb 06		 jmp	 SHORT $LN109@Emplace_re
$LN24@Emplace_re:

; 136  :         return ::operator new(_Bytes);

  00090	50		 push	 eax
  00091	e8 00 00 00 00	 call	 ??2@YAPAXI@Z		; operator new
$LN109@Emplace_re:
; File C:\Program Files\Microsoft Visual Studio\2022\Professional\VC\Tools\MSVC\14.44.35207\include\vector

; 900  :         _Alty_traits::construct(_Al, _STD _Unfancy(_Newvec + _Whereoff), _STD forward<_Valty>(_Val)...);

  00096	8b f8		 mov	 edi, eax
  00098	83 c4 04	 add	 esp, 4
$LN22@Emplace_re:
  0009b	8b 45 0c	 mov	 eax, DWORD PTR _<_Val_0>$[ebp]
  0009e	8d 0c 9f	 lea	 ecx, DWORD PTR [edi+ebx*4]

; 901  :         _Constructed_first = _Newvec + _Whereoff;
; 902  : 
; 903  :         if (_Whereptr == _Mylast) { // at back, provide strong guarantee

  000a1	8b 5d 08	 mov	 ebx, DWORD PTR __Whereptr$[ebp]
  000a4	89 4d fc	 mov	 DWORD PTR tv650[ebp], ecx
  000a7	8b 00		 mov	 eax, DWORD PTR [eax]
  000a9	89 01		 mov	 DWORD PTR [ecx], eax
  000ab	8b 46 04	 mov	 eax, DWORD PTR [esi+4]
  000ae	8b 0e		 mov	 ecx, DWORD PTR [esi]
  000b0	3b d8		 cmp	 ebx, eax
  000b2	75 07		 jne	 SHORT $LN3@Emplace_re

; 909  :         } else { // provide basic guarantee

  000b4	8b 5d fc	 mov	 ebx, DWORD PTR tv650[ebp]
; File C:\Program Files\Microsoft Visual Studio\2022\Professional\VC\Tools\MSVC\14.44.35207\include\xmemory

; 1992 :             _STD _Copy_memmove(_UFirst, _ULast, _STD _Unfancy(_Dest));

  000b7	8b d7		 mov	 edx, edi
; File C:\Program Files\Microsoft Visual Studio\2022\Professional\VC\Tools\MSVC\14.44.35207\include\vector

; 909  :         } else { // provide basic guarantee

  000b9	eb 16		 jmp	 SHORT $LN52@Emplace_re
$LN3@Emplace_re:
; File C:\Program Files\Microsoft Visual Studio\2022\Professional\VC\Tools\MSVC\14.44.35207\include\xmemory

; 1992 :             _STD _Copy_memmove(_UFirst, _ULast, _STD _Unfancy(_Dest));

  000bb	57		 push	 edi
  000bc	53		 push	 ebx
  000bd	51		 push	 ecx
  000be	e8 00 00 00 00	 call	 ??$_Copy_memmove@PAKPAK@std@@YAPAKPAK00@Z ; std::_Copy_memmove<unsigned long *,unsigned long *>
  000c3	8b 46 04	 mov	 eax, DWORD PTR [esi+4]
  000c6	8b cb		 mov	 ecx, ebx
; File C:\Program Files\Microsoft Visual Studio\2022\Professional\VC\Tools\MSVC\14.44.35207\include\vector

; 912  :             _STD _Uninitialized_move(_Whereptr, _Mylast, _Newvec + _Whereoff + 1, _Al);

  000c8	8b 5d fc	 mov	 ebx, DWORD PTR tv650[ebp]
; File C:\Program Files\Microsoft Visual Studio\2022\Professional\VC\Tools\MSVC\14.44.35207\include\xmemory

; 1992 :             _STD _Copy_memmove(_UFirst, _ULast, _STD _Unfancy(_Dest));

  000cb	83 c4 0c	 add	 esp, 12			; 0000000cH
; File C:\Program Files\Microsoft Visual Studio\2022\Professional\VC\Tools\MSVC\14.44.35207\include\vector

; 912  :             _STD _Uninitialized_move(_Whereptr, _Mylast, _Newvec + _Whereoff + 1, _Al);

  000ce	8d 53 04	 lea	 edx, DWORD PTR [ebx+4]
$LN52@Emplace_re:

; 913  :         }
; 914  : 
; 915  :         _Guard._New_begin = nullptr;

  000d1	52		 push	 edx
  000d2	50		 push	 eax
  000d3	51		 push	 ecx
  000d4	e8 00 00 00 00	 call	 ??$_Copy_memmove@PAKPAK@std@@YAPAKPAK00@Z ; std::_Copy_memmove<unsigned long *,unsigned long *>

; 2069 :         if (_Myfirst) { // destroy and deallocate old array

  000d9	8b 06		 mov	 eax, DWORD PTR [esi]

; 913  :         }
; 914  : 
; 915  :         _Guard._New_begin = nullptr;

  000db	83 c4 0c	 add	 esp, 12			; 0000000cH

; 2069 :         if (_Myfirst) { // destroy and deallocate old array

  000de	85 c0		 test	 eax, eax
  000e0	74 2c		 je	 SHORT $LN72@Emplace_re

; 2070 :             _STD _Destroy_range(_Myfirst, _Mylast, _Al);
; 2071 :             _ASAN_VECTOR_REMOVE;
; 2072 :             _Al.deallocate(_Myfirst, static_cast<size_type>(_Myend - _Myfirst));

  000e2	8b 4e 08	 mov	 ecx, DWORD PTR [esi+8]
  000e5	2b c8		 sub	 ecx, eax
; File C:\Program Files\Microsoft Visual Studio\2022\Professional\VC\Tools\MSVC\14.44.35207\include\xmemory

; 985  :         _STD _Deallocate<_New_alignof<_Ty>>(_Ptr, sizeof(_Ty) * _Count);

  000e7	83 e1 fc	 and	 ecx, -4			; fffffffcH

; 284  :         if (_Bytes >= _Big_allocation_threshold) {

  000ea	81 f9 00 10 00
	00		 cmp	 ecx, 4096		; 00001000H
  000f0	72 12		 jb	 SHORT $LN77@Emplace_re

; 205  :     const uintptr_t _Ptr_container   = _Ptr_user[-1];

  000f2	8b 50 fc	 mov	 edx, DWORD PTR [eax-4]
  000f5	83 c1 23	 add	 ecx, 35			; 00000023H

; 206  : 
; 207  :     // If the following asserts, it likely means that we are performing
; 208  :     // an aligned delete on memory coming from an unaligned allocation.
; 209  :     _STL_ASSERT(_Ptr_user[-2] == _Big_allocation_sentinel, "invalid argument");
; 210  : 
; 211  :     // Extra paranoia on aligned allocation/deallocation; ensure _Ptr_container is
; 212  :     // in range [_Min_back_shift, _Non_user_size]
; 213  : #ifdef _DEBUG
; 214  :     constexpr uintptr_t _Min_back_shift = 2 * sizeof(void*);
; 215  : #else // ^^^ defined(_DEBUG) / !defined(_DEBUG) vvv
; 216  :     constexpr uintptr_t _Min_back_shift = sizeof(void*);
; 217  : #endif // ^^^ !defined(_DEBUG) ^^^
; 218  :     const uintptr_t _Back_shift = reinterpret_cast<uintptr_t>(_Ptr) - _Ptr_container;

  000f8	2b c2		 sub	 eax, edx

; 219  :     _STL_VERIFY(_Back_shift >= _Min_back_shift && _Back_shift <= _Non_user_size, "invalid argument");

  000fa	83 c0 fc	 add	 eax, -4			; fffffffcH
  000fd	83 f8 1f	 cmp	 eax, 31			; 0000001fH
  00100	77 2a		 ja	 SHORT $LN76@Emplace_re

; 220  :     _Ptr = reinterpret_cast<void*>(_Ptr_container);

  00102	8b c2		 mov	 eax, edx
$LN77@Emplace_re:

; 289  :         ::operator delete(_Ptr, _Bytes);

  00104	51		 push	 ecx
  00105	50		 push	 eax
  00106	e8 00 00 00 00	 call	 ??3@YAXPAXI@Z		; operator delete
  0010b	83 c4 08	 add	 esp, 8
$LN72@Emplace_re:
; File C:\Program Files\Microsoft Visual Studio\2022\Professional\VC\Tools\MSVC\14.44.35207\include\vector

; 2076 :         _Mylast  = _Newvec + _Newsize;

  0010e	8b 45 f4	 mov	 eax, DWORD PTR __Newsize$1$[ebp]
  00111	89 3e		 mov	 DWORD PTR [esi], edi
  00113	8d 0c 87	 lea	 ecx, DWORD PTR [edi+eax*4]

; 916  :         _Change_array(_Newvec, _Newsize, _Newcapacity);
; 917  :         return _Newvec + _Whereoff;

  00116	8b c3		 mov	 eax, ebx

; 2076 :         _Mylast  = _Newvec + _Newsize;

  00118	89 4e 04	 mov	 DWORD PTR [esi+4], ecx

; 2077 :         _Myend   = _Newvec + _Newcapacity;

  0011b	8b 4d f8	 mov	 ecx, DWORD PTR tv652[ebp]
  0011e	03 cf		 add	 ecx, edi

; 918  :     }

  00120	5f		 pop	 edi

; 2077 :         _Myend   = _Newvec + _Newcapacity;

  00121	89 4e 08	 mov	 DWORD PTR [esi+8], ecx

; 918  :     }

  00124	5e		 pop	 esi
  00125	5b		 pop	 ebx
  00126	8b e5		 mov	 esp, ebp
  00128	5d		 pop	 ebp
  00129	c2 08 00	 ret	 8
$LN76@Emplace_re:
; File C:\Program Files\Microsoft Visual Studio\2022\Professional\VC\Tools\MSVC\14.44.35207\include\xmemory

; 219  :     _STL_VERIFY(_Back_shift >= _Min_back_shift && _Back_shift <= _Non_user_size, "invalid argument");

  0012c	6a 00		 push	 0
  0012e	6a 00		 push	 0
  00130	6a 00		 push	 0
  00132	6a 00		 push	 0
  00134	6a 00		 push	 0
  00136	e8 00 00 00 00	 call	 __invoke_watson
$LN111@Emplace_re:
; File C:\Program Files\Microsoft Visual Studio\2022\Professional\VC\Tools\MSVC\14.44.35207\include\vector

; 888  :             _Xlength();

  0013b	e8 00 00 00 00	 call	 ?_Xlength@?$vector@KV?$allocator@K@std@@@std@@CAXXZ ; std::vector<unsigned long,std::allocator<unsigned long> >::_Xlength
$LN112@Emplace_re:
; File C:\Program Files\Microsoft Visual Studio\2022\Professional\VC\Tools\MSVC\14.44.35207\include\xmemory

; 118  :             _Throw_bad_array_new_length(); // multiply overflow

  00140	e8 00 00 00 00	 call	 ?_Throw_bad_array_new_length@std@@YAXXZ ; std::_Throw_bad_array_new_length
$LN108@Emplace_re:
  00145	cc		 int	 3
??$_Emplace_reallocate@ABK@?$vector@KV?$allocator@K@std@@@std@@AAEPAKQAKABK@Z ENDP ; std::vector<unsigned long,std::allocator<unsigned long> >::_Emplace_reallocate<unsigned long const &>
_TEXT	ENDS
; Function compile flags: /Ogtp
; File C:\Program Files\Microsoft Visual Studio\2022\Professional\VC\Tools\MSVC\14.44.35207\include\vector
; File C:\Program Files\Microsoft Visual Studio\2022\Professional\VC\Tools\MSVC\14.44.35207\include\xmemory
; File C:\Program Files\Microsoft Visual Studio\2022\Professional\VC\Tools\MSVC\14.44.35207\include\vector
; File C:\Program Files\Microsoft Visual Studio\2022\Professional\VC\Tools\MSVC\14.44.35207\include\xmemory
; File C:\Program Files\Microsoft Visual Studio\2022\Professional\VC\Tools\MSVC\14.44.35207\include\vector
; File C:\Program Files\Microsoft Visual Studio\2022\Professional\VC\Tools\MSVC\14.44.35207\include\xmemory
; File C:\Program Files\Microsoft Visual Studio\2022\Professional\VC\Tools\MSVC\14.44.35207\include\vector
; File C:\Program Files\Microsoft Visual Studio\2022\Professional\VC\Tools\MSVC\14.44.35207\include\xmemory
; File C:\Program Files\Microsoft Visual Studio\2022\Professional\VC\Tools\MSVC\14.44.35207\include\vector
; File C:\Program Files\Microsoft Visual Studio\2022\Professional\VC\Tools\MSVC\14.44.35207\include\xmemory
; File C:\Program Files\Microsoft Visual Studio\2022\Professional\VC\Tools\MSVC\14.44.35207\include\vector
; File C:\Program Files\Microsoft Visual Studio\2022\Professional\VC\Tools\MSVC\14.44.35207\include\xmemory
; File C:\Program Files\Microsoft Visual Studio\2022\Professional\VC\Tools\MSVC\14.44.35207\include\vector
; File C:\Program Files\Microsoft Visual Studio\2022\Professional\VC\Tools\MSVC\14.44.35207\include\xmemory
; File C:\Program Files\Microsoft Visual Studio\2022\Professional\VC\Tools\MSVC\14.44.35207\include\vector
; File C:\Program Files\Microsoft Visual Studio\2022\Professional\VC\Tools\MSVC\14.44.35207\include\xmemory
; File C:\Program Files\Microsoft Visual Studio\2022\Professional\VC\Tools\MSVC\14.44.35207\include\vector
; File C:\Program Files\Microsoft Visual Studio\2022\Professional\VC\Tools\MSVC\14.44.35207\include\xmemory
; File C:\Program Files\Microsoft Visual Studio\2022\Professional\VC\Tools\MSVC\14.44.35207\include\vector
;	COMDAT ??$_Emplace_reallocate@ABU__KAWIBAWIBORESULT@CMiniGame@@@?$vector@U__KAWIBAWIBORESULT@CMiniGame@@V?$allocator@U__KAWIBAWIBORESULT@CMiniGame@@@std@@@std@@AAEPAU__KAWIBAWIBORESULT@CMiniGame@@QAU23@ABU23@@Z
_TEXT	SEGMENT
__Oldsize$1$ = -12					; size = 4
__Whereoff$1$ = -8					; size = 4
tv650 = -8						; size = 4
tv652 = -4						; size = 4
__Whereptr$ = 8						; size = 4
_<_Val_0>$ = 12						; size = 4
??$_Emplace_reallocate@ABU__KAWIBAWIBORESULT@CMiniGame@@@?$vector@U__KAWIBAWIBORESULT@CMiniGame@@V?$allocator@U__KAWIBAWIBORESULT@CMiniGame@@@std@@@std@@AAEPAU__KAWIBAWIBORESULT@CMiniGame@@QAU23@ABU23@@Z PROC ; std::vector<CMiniGame::__KAWIBAWIBORESULT,std::allocator<CMiniGame::__KAWIBAWIBORESULT> >::_Emplace_reallocate<CMiniGame::__KAWIBAWIBORESULT const &>, COMDAT
; _this$ = ecx

; 875  :     _CONSTEXPR20 pointer _Emplace_reallocate(const pointer _Whereptr, _Valty&&... _Val) {

  00000	55		 push	 ebp
  00001	8b ec		 mov	 ebp, esp
  00003	83 ec 0c	 sub	 esp, 12			; 0000000cH

; 876  :         // reallocate and insert by perfectly forwarding _Val at _Whereptr
; 877  :         _Alty& _Al        = _Getal();
; 878  :         auto& _My_data    = _Mypair._Myval2;
; 879  :         pointer& _Myfirst = _My_data._Myfirst;
; 880  :         pointer& _Mylast  = _My_data._Mylast;
; 881  : 
; 882  :         _STL_INTERNAL_CHECK(_Mylast == _My_data._Myend); // check that we have no unused capacity
; 883  : 
; 884  :         const auto _Whereoff = static_cast<size_type>(_Whereptr - _Myfirst);

  00006	8b 55 08	 mov	 edx, DWORD PTR __Whereptr$[ebp]
  00009	b8 ab aa aa 2a	 mov	 eax, 715827883		; 2aaaaaabH
  0000e	53		 push	 ebx
  0000f	8b d9		 mov	 ebx, ecx
  00011	57		 push	 edi
  00012	8b 3b		 mov	 edi, DWORD PTR [ebx]
  00014	2b d7		 sub	 edx, edi

; 885  :         const auto _Oldsize  = static_cast<size_type>(_Mylast - _Myfirst);

  00016	8b 4b 04	 mov	 ecx, DWORD PTR [ebx+4]
  00019	f7 ea		 imul	 edx
  0001b	2b cf		 sub	 ecx, edi
  0001d	d1 fa		 sar	 edx, 1
  0001f	8b c2		 mov	 eax, edx
  00021	c1 e8 1f	 shr	 eax, 31			; 0000001fH
  00024	03 c2		 add	 eax, edx
  00026	89 45 f8	 mov	 DWORD PTR __Whereoff$1$[ebp], eax
  00029	b8 ab aa aa 2a	 mov	 eax, 715827883		; 2aaaaaabH
  0002e	f7 e9		 imul	 ecx
  00030	d1 fa		 sar	 edx, 1
  00032	8b c2		 mov	 eax, edx
  00034	c1 e8 1f	 shr	 eax, 31			; 0000001fH
  00037	03 c2		 add	 eax, edx
  00039	89 45 f4	 mov	 DWORD PTR __Oldsize$1$[ebp], eax

; 886  : 
; 887  :         if (_Oldsize == max_size()) {

  0003c	3d 55 55 55 15	 cmp	 eax, 357913941		; 15555555H
  00041	0f 84 42 01 00
	00		 je	 $LN119@Emplace_re

; 1924 :         return static_cast<size_type>(_My_data._Myend - _My_data._Myfirst);

  00047	8b 4b 08	 mov	 ecx, DWORD PTR [ebx+8]
  0004a	2b cf		 sub	 ecx, edi
  0004c	56		 push	 esi

; 889  :         }
; 890  : 
; 891  :         const size_type _Newsize = _Oldsize + 1;

  0004d	8d 70 01	 lea	 esi, DWORD PTR [eax+1]

; 1924 :         return static_cast<size_type>(_My_data._Myend - _My_data._Myfirst);

  00050	b8 ab aa aa 2a	 mov	 eax, 715827883		; 2aaaaaabH
  00055	f7 e9		 imul	 ecx

; 2011 :         if (_Oldcapacity > _Max - _Oldcapacity / 2) {

  00057	b8 55 55 55 15	 mov	 eax, 357913941		; 15555555H

; 1924 :         return static_cast<size_type>(_My_data._Myend - _My_data._Myfirst);

  0005c	d1 fa		 sar	 edx, 1
  0005e	8b ca		 mov	 ecx, edx
  00060	c1 e9 1f	 shr	 ecx, 31			; 0000001fH
  00063	03 ca		 add	 ecx, edx

; 2011 :         if (_Oldcapacity > _Max - _Oldcapacity / 2) {

  00065	8b d1		 mov	 edx, ecx
  00067	d1 ea		 shr	 edx, 1
  00069	2b c2		 sub	 eax, edx
  0006b	3b c8		 cmp	 ecx, eax
  0006d	76 14		 jbe	 SHORT $LN8@Emplace_re

; 2012 :             return _Max; // geometric growth would overflow

  0006f	b8 fc ff ff ff	 mov	 eax, -4			; fffffffcH
  00074	c7 45 fc fc ff
	ff ff		 mov	 DWORD PTR tv652[ebp], -4 ; fffffffcH
; File C:\Program Files\Microsoft Visual Studio\2022\Professional\VC\Tools\MSVC\14.44.35207\include\xmemory

; 253  :             return _Allocate_manually_vector_aligned<_Traits>(_Bytes);

  0007b	50		 push	 eax
  0007c	e8 00 00 00 00	 call	 ??$_Allocate_manually_vector_aligned@U_Default_allocate_traits@std@@@std@@YAPAXI@Z ; std::_Allocate_manually_vector_aligned<std::_Default_allocate_traits>
  00081	eb 3e		 jmp	 SHORT $LN117@Emplace_re
$LN8@Emplace_re:
; File C:\Program Files\Microsoft Visual Studio\2022\Professional\VC\Tools\MSVC\14.44.35207\include\vector

; 2015 :         const size_type _Geometric = _Oldcapacity + _Oldcapacity / 2;

  00083	8d 04 0a	 lea	 eax, DWORD PTR [edx+ecx]
; File C:\Program Files\Microsoft Visual Studio\2022\Professional\VC\Tools\MSVC\14.44.35207\include\xmemory

; 117  :         if (_Count > _Max_possible) {

  00086	8b ce		 mov	 ecx, esi
  00088	3b c6		 cmp	 eax, esi
  0008a	0f 43 c8	 cmovae	 ecx, eax
  0008d	81 f9 55 55 55
	15		 cmp	 ecx, 357913941		; 15555555H
  00093	0f 87 f5 00 00
	00		 ja	 $LN120@Emplace_re

; 119  :         }
; 120  :     }
; 121  : 
; 122  :     return _Count * _Ty_size;

  00099	8d 34 49	 lea	 esi, DWORD PTR [ecx+ecx*2]
  0009c	c1 e6 02	 shl	 esi, 2

; 990  :         return static_cast<_Ty*>(_STD _Allocate<_New_alignof<_Ty>>(_Get_size_of_n<sizeof(_Ty)>(_Count)));

  0009f	8b c6		 mov	 eax, esi

; 122  :     return _Count * _Ty_size;

  000a1	89 75 fc	 mov	 DWORD PTR tv652[ebp], esi

; 227  :     if (_Bytes == 0) {

  000a4	85 c0		 test	 eax, eax
  000a6	75 04		 jne	 SHORT $LN23@Emplace_re

; 228  :         return nullptr;

  000a8	33 ff		 xor	 edi, edi
  000aa	eb 1a		 jmp	 SHORT $LN22@Emplace_re
$LN23@Emplace_re:

; 229  :     }
; 230  : 
; 231  : #if _HAS_CXX20 // TRANSITION, GH-1532
; 232  :     if (_STD is_constant_evaluated()) {
; 233  :         return _Traits::_Allocate(_Bytes);
; 234  :     }
; 235  : #endif // _HAS_CXX20
; 236  : 
; 237  : #ifdef __cpp_aligned_new
; 238  :     if constexpr (_Align > __STDCPP_DEFAULT_NEW_ALIGNMENT__) {
; 239  :         size_t _Passed_align = _Align;
; 240  : #if defined(_M_IX86) || defined(_M_X64)
; 241  :         if (_Bytes >= _Big_allocation_threshold) {
; 242  :             // boost the alignment of big allocations to help autovectorization
; 243  :             _Passed_align = (_STD max)(_Align, _Big_allocation_alignment);
; 244  :         }
; 245  : #endif // defined(_M_IX86) || defined(_M_X64)
; 246  :         return _Traits::_Allocate_aligned(_Bytes, _Passed_align);
; 247  :     } else
; 248  : #endif // defined(__cpp_aligned_new)
; 249  :     {
; 250  : #if defined(_M_IX86) || defined(_M_X64)
; 251  :         if (_Bytes >= _Big_allocation_threshold) {

  000ac	3d 00 10 00 00	 cmp	 eax, 4096		; 00001000H
  000b1	72 08		 jb	 SHORT $LN24@Emplace_re

; 253  :             return _Allocate_manually_vector_aligned<_Traits>(_Bytes);

  000b3	50		 push	 eax
  000b4	e8 00 00 00 00	 call	 ??$_Allocate_manually_vector_aligned@U_Default_allocate_traits@std@@@std@@YAPAXI@Z ; std::_Allocate_manually_vector_aligned<std::_Default_allocate_traits>
  000b9	eb 06		 jmp	 SHORT $LN117@Emplace_re
$LN24@Emplace_re:

; 136  :         return ::operator new(_Bytes);

  000bb	50		 push	 eax
  000bc	e8 00 00 00 00	 call	 ??2@YAPAXI@Z		; operator new
$LN117@Emplace_re:
; File C:\Program Files\Microsoft Visual Studio\2022\Professional\VC\Tools\MSVC\14.44.35207\include\vector

; 900  :         _Alty_traits::construct(_Al, _STD _Unfancy(_Newvec + _Whereoff), _STD forward<_Valty>(_Val)...);

  000c1	8b f8		 mov	 edi, eax
  000c3	83 c4 04	 add	 esp, 4
$LN22@Emplace_re:
  000c6	8b 45 f8	 mov	 eax, DWORD PTR __Whereoff$1$[ebp]

; 903  :         if (_Whereptr == _Mylast) { // at back, provide strong guarantee

  000c9	8b 55 08	 mov	 edx, DWORD PTR __Whereptr$[ebp]
  000cc	8d 04 40	 lea	 eax, DWORD PTR [eax+eax*2]
  000cf	8d 34 87	 lea	 esi, DWORD PTR [edi+eax*4]
; File C:\Program Files\Microsoft Visual Studio\2022\Professional\VC\Tools\MSVC\14.44.35207\include\xmemory

; 732  :         ::new (const_cast<void*>(static_cast<const volatile void*>(_Ptr))) _Objty(_STD forward<_Types>(_Args)...);

  000d2	8b 45 0c	 mov	 eax, DWORD PTR _<_Val_0>$[ebp]
; File C:\Program Files\Microsoft Visual Studio\2022\Professional\VC\Tools\MSVC\14.44.35207\include\vector

; 900  :         _Alty_traits::construct(_Al, _STD _Unfancy(_Newvec + _Whereoff), _STD forward<_Valty>(_Val)...);

  000d5	89 75 f8	 mov	 DWORD PTR tv650[ebp], esi
; File C:\Program Files\Microsoft Visual Studio\2022\Professional\VC\Tools\MSVC\14.44.35207\include\xmemory

; 732  :         ::new (const_cast<void*>(static_cast<const volatile void*>(_Ptr))) _Objty(_STD forward<_Types>(_Args)...);

  000d8	f3 0f 7e 00	 movq	 xmm0, QWORD PTR [eax]
  000dc	66 0f d6 06	 movq	 QWORD PTR [esi], xmm0
  000e0	8b 40 08	 mov	 eax, DWORD PTR [eax+8]
  000e3	89 46 08	 mov	 DWORD PTR [esi+8], eax
; File C:\Program Files\Microsoft Visual Studio\2022\Professional\VC\Tools\MSVC\14.44.35207\include\vector

; 903  :         if (_Whereptr == _Mylast) { // at back, provide strong guarantee

  000e6	8b 4b 04	 mov	 ecx, DWORD PTR [ebx+4]
  000e9	8b 03		 mov	 eax, DWORD PTR [ebx]
  000eb	3b d1		 cmp	 edx, ecx
  000ed	75 04		 jne	 SHORT $LN3@Emplace_re
; File C:\Program Files\Microsoft Visual Studio\2022\Professional\VC\Tools\MSVC\14.44.35207\include\xmemory

; 1992 :             _STD _Copy_memmove(_UFirst, _ULast, _STD _Unfancy(_Dest));

  000ef	8b f7		 mov	 esi, edi
; File C:\Program Files\Microsoft Visual Studio\2022\Professional\VC\Tools\MSVC\14.44.35207\include\vector

; 909  :         } else { // provide basic guarantee

  000f1	eb 14		 jmp	 SHORT $LN58@Emplace_re
$LN3@Emplace_re:
; File C:\Program Files\Microsoft Visual Studio\2022\Professional\VC\Tools\MSVC\14.44.35207\include\xmemory

; 1992 :             _STD _Copy_memmove(_UFirst, _ULast, _STD _Unfancy(_Dest));

  000f3	57		 push	 edi
  000f4	52		 push	 edx
  000f5	50		 push	 eax
  000f6	e8 00 00 00 00	 call	 ??$_Copy_memmove@PAU__KAWIBAWIBORESULT@CMiniGame@@PAU12@@std@@YAPAU__KAWIBAWIBORESULT@CMiniGame@@PAU12@00@Z ; std::_Copy_memmove<CMiniGame::__KAWIBAWIBORESULT *,CMiniGame::__KAWIBAWIBORESULT *>
  000fb	8b 45 08	 mov	 eax, DWORD PTR __Whereptr$[ebp]
  000fe	83 c4 0c	 add	 esp, 12			; 0000000cH
  00101	8b 4b 04	 mov	 ecx, DWORD PTR [ebx+4]
; File C:\Program Files\Microsoft Visual Studio\2022\Professional\VC\Tools\MSVC\14.44.35207\include\vector

; 912  :             _STD _Uninitialized_move(_Whereptr, _Mylast, _Newvec + _Whereoff + 1, _Al);

  00104	83 c6 0c	 add	 esi, 12			; 0000000cH
$LN58@Emplace_re:

; 913  :         }
; 914  : 
; 915  :         _Guard._New_begin = nullptr;

  00107	56		 push	 esi
  00108	51		 push	 ecx
  00109	50		 push	 eax
  0010a	e8 00 00 00 00	 call	 ??$_Copy_memmove@PAU__KAWIBAWIBORESULT@CMiniGame@@PAU12@@std@@YAPAU__KAWIBAWIBORESULT@CMiniGame@@PAU12@00@Z ; std::_Copy_memmove<CMiniGame::__KAWIBAWIBORESULT *,CMiniGame::__KAWIBAWIBORESULT *>

; 2069 :         if (_Myfirst) { // destroy and deallocate old array

  0010f	8b 33		 mov	 esi, DWORD PTR [ebx]

; 913  :         }
; 914  : 
; 915  :         _Guard._New_begin = nullptr;

  00111	83 c4 0c	 add	 esp, 12			; 0000000cH

; 2069 :         if (_Myfirst) { // destroy and deallocate old array

  00114	85 f6		 test	 esi, esi
  00116	74 3f		 je	 SHORT $LN80@Emplace_re

; 2070 :             _STD _Destroy_range(_Myfirst, _Mylast, _Al);
; 2071 :             _ASAN_VECTOR_REMOVE;
; 2072 :             _Al.deallocate(_Myfirst, static_cast<size_type>(_Myend - _Myfirst));

  00118	8b 4b 08	 mov	 ecx, DWORD PTR [ebx+8]
  0011b	b8 ab aa aa 2a	 mov	 eax, 715827883		; 2aaaaaabH
  00120	2b ce		 sub	 ecx, esi
  00122	f7 e9		 imul	 ecx
  00124	d1 fa		 sar	 edx, 1
  00126	8b c2		 mov	 eax, edx
  00128	c1 e8 1f	 shr	 eax, 31			; 0000001fH
  0012b	03 c2		 add	 eax, edx
; File C:\Program Files\Microsoft Visual Studio\2022\Professional\VC\Tools\MSVC\14.44.35207\include\xmemory

; 985  :         _STD _Deallocate<_New_alignof<_Ty>>(_Ptr, sizeof(_Ty) * _Count);

  0012d	8d 0c 40	 lea	 ecx, DWORD PTR [eax+eax*2]
  00130	c1 e1 02	 shl	 ecx, 2

; 284  :         if (_Bytes >= _Big_allocation_threshold) {

  00133	81 f9 00 10 00
	00		 cmp	 ecx, 4096		; 00001000H
  00139	72 12		 jb	 SHORT $LN85@Emplace_re

; 205  :     const uintptr_t _Ptr_container   = _Ptr_user[-1];

  0013b	8b 56 fc	 mov	 edx, DWORD PTR [esi-4]
  0013e	83 c1 23	 add	 ecx, 35			; 00000023H

; 206  : 
; 207  :     // If the following asserts, it likely means that we are performing
; 208  :     // an aligned delete on memory coming from an unaligned allocation.
; 209  :     _STL_ASSERT(_Ptr_user[-2] == _Big_allocation_sentinel, "invalid argument");
; 210  : 
; 211  :     // Extra paranoia on aligned allocation/deallocation; ensure _Ptr_container is
; 212  :     // in range [_Min_back_shift, _Non_user_size]
; 213  : #ifdef _DEBUG
; 214  :     constexpr uintptr_t _Min_back_shift = 2 * sizeof(void*);
; 215  : #else // ^^^ defined(_DEBUG) / !defined(_DEBUG) vvv
; 216  :     constexpr uintptr_t _Min_back_shift = sizeof(void*);
; 217  : #endif // ^^^ !defined(_DEBUG) ^^^
; 218  :     const uintptr_t _Back_shift = reinterpret_cast<uintptr_t>(_Ptr) - _Ptr_container;

  00141	2b f2		 sub	 esi, edx

; 219  :     _STL_VERIFY(_Back_shift >= _Min_back_shift && _Back_shift <= _Non_user_size, "invalid argument");

  00143	8d 46 fc	 lea	 eax, DWORD PTR [esi-4]
  00146	83 f8 1f	 cmp	 eax, 31			; 0000001fH
  00149	77 2f		 ja	 SHORT $LN84@Emplace_re

; 220  :     _Ptr = reinterpret_cast<void*>(_Ptr_container);

  0014b	8b f2		 mov	 esi, edx
$LN85@Emplace_re:

; 289  :         ::operator delete(_Ptr, _Bytes);

  0014d	51		 push	 ecx
  0014e	56		 push	 esi
  0014f	e8 00 00 00 00	 call	 ??3@YAXPAXI@Z		; operator delete
  00154	83 c4 08	 add	 esp, 8
$LN80@Emplace_re:
; File C:\Program Files\Microsoft Visual Studio\2022\Professional\VC\Tools\MSVC\14.44.35207\include\vector

; 2076 :         _Mylast  = _Newvec + _Newsize;

  00157	8b 45 f4	 mov	 eax, DWORD PTR __Oldsize$1$[ebp]
  0015a	40		 inc	 eax
  0015b	89 3b		 mov	 DWORD PTR [ebx], edi

; 916  :         _Change_array(_Newvec, _Newsize, _Newcapacity);
; 917  :         return _Newvec + _Whereoff;

  0015d	5e		 pop	 esi

; 2076 :         _Mylast  = _Newvec + _Newsize;

  0015e	8d 0c 40	 lea	 ecx, DWORD PTR [eax+eax*2]

; 916  :         _Change_array(_Newvec, _Newsize, _Newcapacity);
; 917  :         return _Newvec + _Whereoff;

  00161	8b 45 f8	 mov	 eax, DWORD PTR tv650[ebp]

; 2076 :         _Mylast  = _Newvec + _Newsize;

  00164	8d 0c 8f	 lea	 ecx, DWORD PTR [edi+ecx*4]
  00167	89 4b 04	 mov	 DWORD PTR [ebx+4], ecx

; 2077 :         _Myend   = _Newvec + _Newcapacity;

  0016a	8b 4d fc	 mov	 ecx, DWORD PTR tv652[ebp]
  0016d	03 cf		 add	 ecx, edi

; 918  :     }

  0016f	5f		 pop	 edi

; 2077 :         _Myend   = _Newvec + _Newcapacity;

  00170	89 4b 08	 mov	 DWORD PTR [ebx+8], ecx

; 918  :     }

  00173	5b		 pop	 ebx
  00174	8b e5		 mov	 esp, ebp
  00176	5d		 pop	 ebp
  00177	c2 08 00	 ret	 8
$LN84@Emplace_re:
; File C:\Program Files\Microsoft Visual Studio\2022\Professional\VC\Tools\MSVC\14.44.35207\include\xmemory

; 219  :     _STL_VERIFY(_Back_shift >= _Min_back_shift && _Back_shift <= _Non_user_size, "invalid argument");

  0017a	6a 00		 push	 0
  0017c	6a 00		 push	 0
  0017e	6a 00		 push	 0
  00180	6a 00		 push	 0
  00182	6a 00		 push	 0
  00184	e8 00 00 00 00	 call	 __invoke_watson
$LN119@Emplace_re:
; File C:\Program Files\Microsoft Visual Studio\2022\Professional\VC\Tools\MSVC\14.44.35207\include\vector

; 888  :             _Xlength();

  00189	e8 00 00 00 00	 call	 ?_Xlength@?$vector@U__KAWIBAWIBORESULT@CMiniGame@@V?$allocator@U__KAWIBAWIBORESULT@CMiniGame@@@std@@@std@@CAXXZ ; std::vector<CMiniGame::__KAWIBAWIBORESULT,std::allocator<CMiniGame::__KAWIBAWIBORESULT> >::_Xlength
$LN120@Emplace_re:
; File C:\Program Files\Microsoft Visual Studio\2022\Professional\VC\Tools\MSVC\14.44.35207\include\xmemory

; 118  :             _Throw_bad_array_new_length(); // multiply overflow

  0018e	e8 00 00 00 00	 call	 ?_Throw_bad_array_new_length@std@@YAXXZ ; std::_Throw_bad_array_new_length
$LN116@Emplace_re:
  00193	cc		 int	 3
??$_Emplace_reallocate@ABU__KAWIBAWIBORESULT@CMiniGame@@@?$vector@U__KAWIBAWIBORESULT@CMiniGame@@V?$allocator@U__KAWIBAWIBORESULT@CMiniGame@@@std@@@std@@AAEPAU__KAWIBAWIBORESULT@CMiniGame@@QAU23@ABU23@@Z ENDP ; std::vector<CMiniGame::__KAWIBAWIBORESULT,std::allocator<CMiniGame::__KAWIBAWIBORESULT> >::_Emplace_reallocate<CMiniGame::__KAWIBAWIBORESULT const &>
_TEXT	ENDS
; Function compile flags: /Ogtp
; File C:\Program Files\Microsoft Visual Studio\2022\Professional\VC\Tools\MSVC\14.44.35207\include\xtree
; File C:\Program Files\Microsoft Visual Studio\2022\Professional\VC\Tools\MSVC\14.44.35207\include\type_traits
; File C:\Program Files\Microsoft Visual Studio\2022\Professional\VC\Tools\MSVC\14.44.35207\include\xtree
; File C:\Program Files\Microsoft Visual Studio\2022\Professional\VC\Tools\MSVC\14.44.35207\include\type_traits
; File C:\Program Files\Microsoft Visual Studio\2022\Professional\VC\Tools\MSVC\14.44.35207\include\xtree
;	COMDAT ??$_Find_lower_bound@K@?$_Tree@V?$_Tmap_traits@KHU?$less@K@std@@V?$allocator@U?$pair@$$CBKH@std@@@2@$0A@@std@@@std@@IBE?AU?$_Tree_find_result@PAU?$_Tree_node@U?$pair@$$CBKH@std@@PAX@std@@@1@ABK@Z
_TEXT	SEGMENT
___$ReturnUdt$ = 8					; size = 4
__Keyval$ = 12						; size = 4
??$_Find_lower_bound@K@?$_Tree@V?$_Tmap_traits@KHU?$less@K@std@@V?$allocator@U?$pair@$$CBKH@std@@@2@$0A@@std@@@std@@IBE?AU?$_Tree_find_result@PAU?$_Tree_node@U?$pair@$$CBKH@std@@PAX@std@@@1@ABK@Z PROC ; std::_Tree<std::_Tmap_traits<unsigned long,int,std::less<unsigned long>,std::allocator<std::pair<unsigned long const ,int> >,0> >::_Find_lower_bound<unsigned long>, COMDAT
; _this$ = ecx

; 1628 :     _Tree_find_result<_Nodeptr> _Find_lower_bound(const _Keyty& _Keyval) const {

  00000	55		 push	 ebp
  00001	8b ec		 mov	 ebp, esp

; 1629 :         const auto _Scary = _Get_scary();
; 1630 :         _Tree_find_result<_Nodeptr> _Result{{_Scary->_Myhead->_Parent, _Tree_child::_Right}, _Scary->_Myhead};

  00003	8b 09		 mov	 ecx, DWORD PTR [ecx]
  00005	8b 55 08	 mov	 edx, DWORD PTR ___$ReturnUdt$[ebp]
  00008	8b 41 04	 mov	 eax, DWORD PTR [ecx+4]
  0000b	89 02		 mov	 DWORD PTR [edx], eax
  0000d	c7 42 04 00 00
	00 00		 mov	 DWORD PTR [edx+4], 0
  00014	89 4a 08	 mov	 DWORD PTR [edx+8], ecx

; 1631 :         _Nodeptr _Trynode = _Result._Location._Parent;
; 1632 :         while (!_Trynode->_Isnil) {

  00017	80 78 0d 00	 cmp	 BYTE PTR [eax+13], 0
  0001b	75 28		 jne	 SHORT $LN13@Find_lower
; File C:\Program Files\Microsoft Visual Studio\2022\Professional\VC\Tools\MSVC\14.44.35207\include\type_traits

; 2380 :         return _Left < _Right;

  0001d	8b 4d 0c	 mov	 ecx, DWORD PTR __Keyval$[ebp]
  00020	56		 push	 esi
  00021	8b 31		 mov	 esi, DWORD PTR [ecx]
$LL2@Find_lower:
; File C:\Program Files\Microsoft Visual Studio\2022\Professional\VC\Tools\MSVC\14.44.35207\include\xtree

; 1633 :             _Result._Location._Parent = _Trynode;

  00023	89 02		 mov	 DWORD PTR [edx], eax
; File C:\Program Files\Microsoft Visual Studio\2022\Professional\VC\Tools\MSVC\14.44.35207\include\type_traits

; 2380 :         return _Left < _Right;

  00025	39 70 10	 cmp	 DWORD PTR [eax+16], esi
; File C:\Program Files\Microsoft Visual Studio\2022\Professional\VC\Tools\MSVC\14.44.35207\include\xtree

; 1634 :             if (_DEBUG_LT_PRED(_Getcomp(), _Traits::_Kfn(_Trynode->_Myval), _Keyval)) {

  00028	73 07		 jae	 SHORT $LN4@Find_lower

; 1635 :                 _Result._Location._Child = _Tree_child::_Right;
; 1636 :                 _Trynode                 = _Trynode->_Right;

  0002a	8b 40 08	 mov	 eax, DWORD PTR [eax+8]
  0002d	33 c9		 xor	 ecx, ecx

; 1637 :             } else {

  0002f	eb 0a		 jmp	 SHORT $LN5@Find_lower
$LN4@Find_lower:

; 1638 :                 _Result._Location._Child = _Tree_child::_Left;
; 1639 :                 _Result._Bound           = _Trynode;

  00031	89 42 08	 mov	 DWORD PTR [edx+8], eax

; 1640 :                 _Trynode                 = _Trynode->_Left;

  00034	b9 01 00 00 00	 mov	 ecx, 1
  00039	8b 00		 mov	 eax, DWORD PTR [eax]
$LN5@Find_lower:

; 1631 :         _Nodeptr _Trynode = _Result._Location._Parent;
; 1632 :         while (!_Trynode->_Isnil) {

  0003b	89 4a 04	 mov	 DWORD PTR [edx+4], ecx
  0003e	80 78 0d 00	 cmp	 BYTE PTR [eax+13], 0
  00042	74 df		 je	 SHORT $LL2@Find_lower
  00044	5e		 pop	 esi
$LN13@Find_lower:

; 1641 :             }
; 1642 :         }
; 1643 : 
; 1644 :         return _Result;
; 1645 :     }

  00045	8b c2		 mov	 eax, edx
  00047	5d		 pop	 ebp
  00048	c2 08 00	 ret	 8
??$_Find_lower_bound@K@?$_Tree@V?$_Tmap_traits@KHU?$less@K@std@@V?$allocator@U?$pair@$$CBKH@std@@@2@$0A@@std@@@std@@IBE?AU?$_Tree_find_result@PAU?$_Tree_node@U?$pair@$$CBKH@std@@PAX@std@@@1@ABK@Z ENDP ; std::_Tree<std::_Tmap_traits<unsigned long,int,std::less<unsigned long>,std::allocator<std::pair<unsigned long const ,int> >,0> >::_Find_lower_bound<unsigned long>
_TEXT	ENDS
; Function compile flags: /Ogtp
; File C:\Program Files\Microsoft Visual Studio\2022\Professional\VC\Tools\MSVC\14.44.35207\include\xtree
; File C:\Program Files\Microsoft Visual Studio\2022\Professional\VC\Tools\MSVC\14.44.35207\include\utility
; File C:\Program Files\Microsoft Visual Studio\2022\Professional\VC\Tools\MSVC\14.44.35207\atlmfc\include\atlsimpstr.h
; File C:\Program Files\Microsoft Visual Studio\2022\Professional\VC\Tools\MSVC\14.44.35207\include\utility
; File C:\Program Files\Microsoft Visual Studio\2022\Professional\VC\Tools\MSVC\14.44.35207\atlmfc\include\atlsimpstr.h
; File C:\Program Files\Microsoft Visual Studio\2022\Professional\VC\Tools\MSVC\14.44.35207\include\xmemory
; File C:\Program Files\Microsoft Visual Studio\2022\Professional\VC\Tools\MSVC\14.44.35207\include\xtree
;	COMDAT ??$_Erase_tree@V?$allocator@U?$_Tree_node@U?$pair@$$CBHV?$CStringT@DV?$StrTraitMFC@DV?$ChTraitsCRT@D@ATL@@@@@ATL@@@std@@PAX@std@@@std@@@?$_Tree_val@U?$_Tree_simple_types@U?$pair@$$CBHV?$CStringT@DV?$StrTraitMFC@DV?$ChTraitsCRT@D@ATL@@@@@ATL@@@std@@@std@@@std@@QAEXAAV?$allocator@U?$_Tree_node@U?$pair@$$CBHV?$CStringT@DV?$StrTraitMFC@DV?$ChTraitsCRT@D@ATL@@@@@ATL@@@std@@PAX@std@@@1@PAU?$_Tree_node@U?$pair@$$CBHV?$CStringT@DV?$StrTraitMFC@DV?$ChTraitsCRT@D@ATL@@@@@ATL@@@std@@PAX@1@@Z
_TEXT	SEGMENT
__$EHRec$ = -12						; size = 12
__Al$ = 8						; size = 4
__Rootnode$ = 12					; size = 4
??$_Erase_tree@V?$allocator@U?$_Tree_node@U?$pair@$$CBHV?$CStringT@DV?$StrTraitMFC@DV?$ChTraitsCRT@D@ATL@@@@@ATL@@@std@@PAX@std@@@std@@@?$_Tree_val@U?$_Tree_simple_types@U?$pair@$$CBHV?$CStringT@DV?$StrTraitMFC@DV?$ChTraitsCRT@D@ATL@@@@@ATL@@@std@@@std@@@std@@QAEXAAV?$allocator@U?$_Tree_node@U?$pair@$$CBHV?$CStringT@DV?$StrTraitMFC@DV?$ChTraitsCRT@D@ATL@@@@@ATL@@@std@@PAX@std@@@1@PAU?$_Tree_node@U?$pair@$$CBHV?$CStringT@DV?$StrTraitMFC@DV?$ChTraitsCRT@D@ATL@@@@@ATL@@@std@@PAX@1@@Z PROC ; std::_Tree_val<std::_Tree_simple_types<std::pair<int const ,ATL::CStringT<char,StrTraitMFC<char,ATL::ChTraitsCRT<char> > > > > >::_Erase_tree<std::allocator<std::_Tree_node<std::pair<int const ,ATL::CStringT<char,StrTraitMFC<char,ATL::ChTraitsCRT<char> > > >,void *> > >, COMDAT
; _this$ = ecx

; 767  :     void _Erase_tree(_Alnode& _Al, _Nodeptr _Rootnode) noexcept {

  00000	55		 push	 ebp
  00001	8b ec		 mov	 ebp, esp
  00003	6a ff		 push	 -1
  00005	68 00 00 00 00	 push	 __ehhandler$??$_Erase_tree@V?$allocator@U?$_Tree_node@U?$pair@$$CBHV?$CStringT@DV?$StrTraitMFC@DV?$ChTraitsCRT@D@ATL@@@@@ATL@@@std@@PAX@std@@@std@@@?$_Tree_val@U?$_Tree_simple_types@U?$pair@$$CBHV?$CStringT@DV?$StrTraitMFC@DV?$ChTraitsCRT@D@ATL@@@@@ATL@@@std@@@std@@@std@@QAEXAAV?$allocator@U?$_Tree_node@U?$pair@$$CBHV?$CStringT@DV?$StrTraitMFC@DV?$ChTraitsCRT@D@ATL@@@@@ATL@@@std@@PAX@std@@@1@PAU?$_Tree_node@U?$pair@$$CBHV?$CStringT@DV?$StrTraitMFC@DV?$ChTraitsCRT@D@ATL@@@@@ATL@@@std@@PAX@1@@Z
  0000a	64 a1 00 00 00
	00		 mov	 eax, DWORD PTR fs:0
  00010	50		 push	 eax
  00011	53		 push	 ebx
  00012	56		 push	 esi
  00013	57		 push	 edi
  00014	a1 00 00 00 00	 mov	 eax, DWORD PTR ___security_cookie
  00019	33 c5		 xor	 eax, ebp
  0001b	50		 push	 eax
  0001c	8d 45 f4	 lea	 eax, DWORD PTR __$EHRec$[ebp]
  0001f	64 a3 00 00 00
	00		 mov	 DWORD PTR fs:0, eax
  00025	8b d9		 mov	 ebx, ecx

; 768  :         while (!_Rootnode->_Isnil) { // free subtrees, then node

  00027	8b 75 0c	 mov	 esi, DWORD PTR __Rootnode$[ebp]
  0002a	80 7e 0d 00	 cmp	 BYTE PTR [esi+13], 0
  0002e	75 3d		 jne	 SHORT $LN56@Erase_tree
$LL2@Erase_tree:

; 769  :             _Erase_tree(_Al, _Rootnode->_Right);

  00030	ff 76 08	 push	 DWORD PTR [esi+8]
  00033	8b cb		 mov	 ecx, ebx
  00035	ff 75 08	 push	 DWORD PTR __Al$[ebp]
  00038	e8 00 00 00 00	 call	 ??$_Erase_tree@V?$allocator@U?$_Tree_node@U?$pair@$$CBHV?$CStringT@DV?$StrTraitMFC@DV?$ChTraitsCRT@D@ATL@@@@@ATL@@@std@@PAX@std@@@std@@@?$_Tree_val@U?$_Tree_simple_types@U?$pair@$$CBHV?$CStringT@DV?$StrTraitMFC@DV?$ChTraitsCRT@D@ATL@@@@@ATL@@@std@@@std@@@std@@QAEXAAV?$allocator@U?$_Tree_node@U?$pair@$$CBHV?$CStringT@DV?$StrTraitMFC@DV?$ChTraitsCRT@D@ATL@@@@@ATL@@@std@@PAX@std@@@1@PAU?$_Tree_node@U?$pair@$$CBHV?$CStringT@DV?$StrTraitMFC@DV?$ChTraitsCRT@D@ATL@@@@@ATL@@@std@@PAX@1@@Z ; std::_Tree_val<std::_Tree_simple_types<std::pair<int const ,ATL::CStringT<char,StrTraitMFC<char,ATL::ChTraitsCRT<char> > > > > >::_Erase_tree<std::allocator<std::_Tree_node<std::pair<int const ,ATL::CStringT<char,StrTraitMFC<char,ATL::ChTraitsCRT<char> > > >,void *> > >
; File C:\Program Files\Microsoft Visual Studio\2022\Professional\VC\Tools\MSVC\14.44.35207\include\utility

; 773  :     _Ty _Old_val = static_cast<_Ty&&>(_Val);

  0003d	8b fe		 mov	 edi, esi
; File C:\Program Files\Microsoft Visual Studio\2022\Professional\VC\Tools\MSVC\14.44.35207\atlmfc\include\atlsimpstr.h

; 92   : 		if( _InterlockedDecrement( &nRefs ) <= 0 )

  0003f	83 c8 ff	 or	 eax, -1
; File C:\Program Files\Microsoft Visual Studio\2022\Professional\VC\Tools\MSVC\14.44.35207\include\utility

; 774  :     _Val         = static_cast<_Other&&>(_New_val);

  00042	8b 36		 mov	 esi, DWORD PTR [esi]
; File C:\Program Files\Microsoft Visual Studio\2022\Professional\VC\Tools\MSVC\14.44.35207\atlmfc\include\atlsimpstr.h

; 804  : 		return( reinterpret_cast< CStringData* >( m_pszData )-1 );

  00044	8b 57 14	 mov	 edx, DWORD PTR [edi+20]
  00047	83 ea 10	 sub	 edx, 16			; 00000010H

; 92   : 		if( _InterlockedDecrement( &nRefs ) <= 0 )

  0004a	f0 0f c1 42 0c	 lock	  xadd	 DWORD PTR [edx+12], eax
  0004f	48		 dec	 eax
  00050	85 c0		 test	 eax, eax
  00052	7f 08		 jg	 SHORT $LN32@Erase_tree

; 93   : 		{
; 94   : 			pStringMgr->Free( this );

  00054	8b 0a		 mov	 ecx, DWORD PTR [edx]
  00056	52		 push	 edx
  00057	8b 01		 mov	 eax, DWORD PTR [ecx]
  00059	ff 50 04	 call	 DWORD PTR [eax+4]
$LN32@Erase_tree:
; File C:\Program Files\Microsoft Visual Studio\2022\Professional\VC\Tools\MSVC\14.44.35207\include\xmemory

; 289  :         ::operator delete(_Ptr, _Bytes);

  0005c	6a 18		 push	 24			; 00000018H
  0005e	57		 push	 edi
  0005f	e8 00 00 00 00	 call	 ??3@YAXPAXI@Z		; operator delete
  00064	83 c4 08	 add	 esp, 8
; File C:\Program Files\Microsoft Visual Studio\2022\Professional\VC\Tools\MSVC\14.44.35207\include\xtree

; 768  :         while (!_Rootnode->_Isnil) { // free subtrees, then node

  00067	80 7e 0d 00	 cmp	 BYTE PTR [esi+13], 0
  0006b	74 c3		 je	 SHORT $LL2@Erase_tree
$LN56@Erase_tree:

; 770  :             _Alnode::value_type::_Freenode(_Al, _STD exchange(_Rootnode, _Rootnode->_Left));
; 771  :         }
; 772  :     }

  0006d	8b 4d f4	 mov	 ecx, DWORD PTR __$EHRec$[ebp]
  00070	64 89 0d 00 00
	00 00		 mov	 DWORD PTR fs:0, ecx
  00077	59		 pop	 ecx
  00078	5f		 pop	 edi
  00079	5e		 pop	 esi
  0007a	5b		 pop	 ebx
  0007b	8b e5		 mov	 esp, ebp
  0007d	5d		 pop	 ebp
  0007e	c2 08 00	 ret	 8
  00081	cc		 int	 3
  00082	cc		 int	 3
  00083	cc		 int	 3
  00084	cc		 int	 3
  00085	cc		 int	 3
_TEXT	ENDS
;	COMDAT text$x
text$x	SEGMENT
__ehhandler$??$_Erase_tree@V?$allocator@U?$_Tree_node@U?$pair@$$CBHV?$CStringT@DV?$StrTraitMFC@DV?$ChTraitsCRT@D@ATL@@@@@ATL@@@std@@PAX@std@@@std@@@?$_Tree_val@U?$_Tree_simple_types@U?$pair@$$CBHV?$CStringT@DV?$StrTraitMFC@DV?$ChTraitsCRT@D@ATL@@@@@ATL@@@std@@@std@@@std@@QAEXAAV?$allocator@U?$_Tree_node@U?$pair@$$CBHV?$CStringT@DV?$StrTraitMFC@DV?$ChTraitsCRT@D@ATL@@@@@ATL@@@std@@PAX@std@@@1@PAU?$_Tree_node@U?$pair@$$CBHV?$CStringT@DV?$StrTraitMFC@DV?$ChTraitsCRT@D@ATL@@@@@ATL@@@std@@PAX@1@@Z:
  00000	90		 npad	 1
  00001	90		 npad	 1
  00002	8b 54 24 08	 mov	 edx, DWORD PTR [esp+8]
  00006	8d 42 0c	 lea	 eax, DWORD PTR [edx+12]
  00009	8b 4a f0	 mov	 ecx, DWORD PTR [edx-16]
  0000c	33 c8		 xor	 ecx, eax
  0000e	e8 00 00 00 00	 call	 @__security_check_cookie@4
  00013	b8 00 00 00 00	 mov	 eax, OFFSET __ehfuncinfo$??$_Erase_tree@V?$allocator@U?$_Tree_node@U?$pair@$$CBHV?$CStringT@DV?$StrTraitMFC@DV?$ChTraitsCRT@D@ATL@@@@@ATL@@@std@@PAX@std@@@std@@@?$_Tree_val@U?$_Tree_simple_types@U?$pair@$$CBHV?$CStringT@DV?$StrTraitMFC@DV?$ChTraitsCRT@D@ATL@@@@@ATL@@@std@@@std@@@std@@QAEXAAV?$allocator@U?$_Tree_node@U?$pair@$$CBHV?$CStringT@DV?$StrTraitMFC@DV?$ChTraitsCRT@D@ATL@@@@@ATL@@@std@@PAX@std@@@1@PAU?$_Tree_node@U?$pair@$$CBHV?$CStringT@DV?$StrTraitMFC@DV?$ChTraitsCRT@D@ATL@@@@@ATL@@@std@@PAX@1@@Z
  00018	e9 00 00 00 00	 jmp	 ___CxxFrameHandler3
text$x	ENDS
??$_Erase_tree@V?$allocator@U?$_Tree_node@U?$pair@$$CBHV?$CStringT@DV?$StrTraitMFC@DV?$ChTraitsCRT@D@ATL@@@@@ATL@@@std@@PAX@std@@@std@@@?$_Tree_val@U?$_Tree_simple_types@U?$pair@$$CBHV?$CStringT@DV?$StrTraitMFC@DV?$ChTraitsCRT@D@ATL@@@@@ATL@@@std@@@std@@@std@@QAEXAAV?$allocator@U?$_Tree_node@U?$pair@$$CBHV?$CStringT@DV?$StrTraitMFC@DV?$ChTraitsCRT@D@ATL@@@@@ATL@@@std@@PAX@std@@@1@PAU?$_Tree_node@U?$pair@$$CBHV?$CStringT@DV?$StrTraitMFC@DV?$ChTraitsCRT@D@ATL@@@@@ATL@@@std@@PAX@1@@Z ENDP ; std::_Tree_val<std::_Tree_simple_types<std::pair<int const ,ATL::CStringT<char,StrTraitMFC<char,ATL::ChTraitsCRT<char> > > > > >::_Erase_tree<std::allocator<std::_Tree_node<std::pair<int const ,ATL::CStringT<char,StrTraitMFC<char,ATL::ChTraitsCRT<char> > > >,void *> > >
; Function compile flags: /Ogtp
; File C:\Program Files\Microsoft Visual Studio\2022\Professional\VC\Tools\MSVC\14.44.35207\include\xtree
; File C:\Program Files\Microsoft Visual Studio\2022\Professional\VC\Tools\MSVC\14.44.35207\include\type_traits
; File C:\Program Files\Microsoft Visual Studio\2022\Professional\VC\Tools\MSVC\14.44.35207\include\xtree
; File C:\Program Files\Microsoft Visual Studio\2022\Professional\VC\Tools\MSVC\14.44.35207\include\type_traits
; File C:\Program Files\Microsoft Visual Studio\2022\Professional\VC\Tools\MSVC\14.44.35207\include\xtree
;	COMDAT ??$_Find_lower_bound@H@?$_Tree@V?$_Tmap_traits@HV?$CStringT@DV?$StrTraitMFC@DV?$ChTraitsCRT@D@ATL@@@@@ATL@@U?$less@H@std@@V?$allocator@U?$pair@$$CBHV?$CStringT@DV?$StrTraitMFC@DV?$ChTraitsCRT@D@ATL@@@@@ATL@@@std@@@4@$0A@@std@@@std@@IBE?AU?$_Tree_find_result@PAU?$_Tree_node@U?$pair@$$CBHV?$CStringT@DV?$StrTraitMFC@DV?$ChTraitsCRT@D@ATL@@@@@ATL@@@std@@PAX@std@@@1@ABH@Z
_TEXT	SEGMENT
___$ReturnUdt$ = 8					; size = 4
__Keyval$ = 12						; size = 4
??$_Find_lower_bound@H@?$_Tree@V?$_Tmap_traits@HV?$CStringT@DV?$StrTraitMFC@DV?$ChTraitsCRT@D@ATL@@@@@ATL@@U?$less@H@std@@V?$allocator@U?$pair@$$CBHV?$CStringT@DV?$StrTraitMFC@DV?$ChTraitsCRT@D@ATL@@@@@ATL@@@std@@@4@$0A@@std@@@std@@IBE?AU?$_Tree_find_result@PAU?$_Tree_node@U?$pair@$$CBHV?$CStringT@DV?$StrTraitMFC@DV?$ChTraitsCRT@D@ATL@@@@@ATL@@@std@@PAX@std@@@1@ABH@Z PROC ; std::_Tree<std::_Tmap_traits<int,ATL::CStringT<char,StrTraitMFC<char,ATL::ChTraitsCRT<char> > >,std::less<int>,std::allocator<std::pair<int const ,ATL::CStringT<char,StrTraitMFC<char,ATL::ChTraitsCRT<char> > > > >,0> >::_Find_lower_bound<int>, COMDAT
; _this$ = ecx

; 1628 :     _Tree_find_result<_Nodeptr> _Find_lower_bound(const _Keyty& _Keyval) const {

  00000	55		 push	 ebp
  00001	8b ec		 mov	 ebp, esp

; 1629 :         const auto _Scary = _Get_scary();
; 1630 :         _Tree_find_result<_Nodeptr> _Result{{_Scary->_Myhead->_Parent, _Tree_child::_Right}, _Scary->_Myhead};

  00003	8b 09		 mov	 ecx, DWORD PTR [ecx]
  00005	8b 55 08	 mov	 edx, DWORD PTR ___$ReturnUdt$[ebp]
  00008	8b 41 04	 mov	 eax, DWORD PTR [ecx+4]
  0000b	89 02		 mov	 DWORD PTR [edx], eax
  0000d	c7 42 04 00 00
	00 00		 mov	 DWORD PTR [edx+4], 0
  00014	89 4a 08	 mov	 DWORD PTR [edx+8], ecx

; 1631 :         _Nodeptr _Trynode = _Result._Location._Parent;
; 1632 :         while (!_Trynode->_Isnil) {

  00017	80 78 0d 00	 cmp	 BYTE PTR [eax+13], 0
  0001b	75 28		 jne	 SHORT $LN13@Find_lower
; File C:\Program Files\Microsoft Visual Studio\2022\Professional\VC\Tools\MSVC\14.44.35207\include\type_traits

; 2380 :         return _Left < _Right;

  0001d	8b 4d 0c	 mov	 ecx, DWORD PTR __Keyval$[ebp]
  00020	56		 push	 esi
  00021	8b 31		 mov	 esi, DWORD PTR [ecx]
$LL2@Find_lower:
; File C:\Program Files\Microsoft Visual Studio\2022\Professional\VC\Tools\MSVC\14.44.35207\include\xtree

; 1633 :             _Result._Location._Parent = _Trynode;

  00023	89 02		 mov	 DWORD PTR [edx], eax
; File C:\Program Files\Microsoft Visual Studio\2022\Professional\VC\Tools\MSVC\14.44.35207\include\type_traits

; 2380 :         return _Left < _Right;

  00025	39 70 10	 cmp	 DWORD PTR [eax+16], esi
; File C:\Program Files\Microsoft Visual Studio\2022\Professional\VC\Tools\MSVC\14.44.35207\include\xtree

; 1634 :             if (_DEBUG_LT_PRED(_Getcomp(), _Traits::_Kfn(_Trynode->_Myval), _Keyval)) {

  00028	7d 07		 jge	 SHORT $LN4@Find_lower

; 1635 :                 _Result._Location._Child = _Tree_child::_Right;
; 1636 :                 _Trynode                 = _Trynode->_Right;

  0002a	8b 40 08	 mov	 eax, DWORD PTR [eax+8]
  0002d	33 c9		 xor	 ecx, ecx

; 1637 :             } else {

  0002f	eb 0a		 jmp	 SHORT $LN5@Find_lower
$LN4@Find_lower:

; 1638 :                 _Result._Location._Child = _Tree_child::_Left;
; 1639 :                 _Result._Bound           = _Trynode;

  00031	89 42 08	 mov	 DWORD PTR [edx+8], eax

; 1640 :                 _Trynode                 = _Trynode->_Left;

  00034	b9 01 00 00 00	 mov	 ecx, 1
  00039	8b 00		 mov	 eax, DWORD PTR [eax]
$LN5@Find_lower:

; 1631 :         _Nodeptr _Trynode = _Result._Location._Parent;
; 1632 :         while (!_Trynode->_Isnil) {

  0003b	89 4a 04	 mov	 DWORD PTR [edx+4], ecx
  0003e	80 78 0d 00	 cmp	 BYTE PTR [eax+13], 0
  00042	74 df		 je	 SHORT $LL2@Find_lower
  00044	5e		 pop	 esi
$LN13@Find_lower:

; 1641 :             }
; 1642 :         }
; 1643 : 
; 1644 :         return _Result;
; 1645 :     }

  00045	8b c2		 mov	 eax, edx
  00047	5d		 pop	 ebp
  00048	c2 08 00	 ret	 8
??$_Find_lower_bound@H@?$_Tree@V?$_Tmap_traits@HV?$CStringT@DV?$StrTraitMFC@DV?$ChTraitsCRT@D@ATL@@@@@ATL@@U?$less@H@std@@V?$allocator@U?$pair@$$CBHV?$CStringT@DV?$StrTraitMFC@DV?$ChTraitsCRT@D@ATL@@@@@ATL@@@std@@@4@$0A@@std@@@std@@IBE?AU?$_Tree_find_result@PAU?$_Tree_node@U?$pair@$$CBHV?$CStringT@DV?$StrTraitMFC@DV?$ChTraitsCRT@D@ATL@@@@@ATL@@@std@@PAX@std@@@1@ABH@Z ENDP ; std::_Tree<std::_Tmap_traits<int,ATL::CStringT<char,StrTraitMFC<char,ATL::ChTraitsCRT<char> > >,std::less<int>,std::allocator<std::pair<int const ,ATL::CStringT<char,StrTraitMFC<char,ATL::ChTraitsCRT<char> > > > >,0> >::_Find_lower_bound<int>
_TEXT	ENDS
; Function compile flags: /Ogtp
; File C:\Program Files\Microsoft Visual Studio\2022\Professional\VC\Tools\MSVC\14.44.35207\include\xmemory
;	COMDAT ??1?$_Alloc_construct_ptr@V?$allocator@U?$_Tree_node@U?$pair@$$CBHU__FIVESYSTEM@CMiniGame@@@std@@PAX@std@@@std@@@std@@QAE@XZ
_TEXT	SEGMENT
??1?$_Alloc_construct_ptr@V?$allocator@U?$_Tree_node@U?$pair@$$CBHU__FIVESYSTEM@CMiniGame@@@std@@PAX@std@@@std@@@std@@QAE@XZ PROC ; std::_Alloc_construct_ptr<std::allocator<std::_Tree_node<std::pair<int const ,CMiniGame::__FIVESYSTEM>,void *> > >::~_Alloc_construct_ptr<std::allocator<std::_Tree_node<std::pair<int const ,CMiniGame::__FIVESYSTEM>,void *> > >, COMDAT
; _this$ = ecx

; 1172 :         if (_Ptr) {

  00000	8b 41 04	 mov	 eax, DWORD PTR [ecx+4]
  00003	85 c0		 test	 eax, eax
  00005	74 0b		 je	 SHORT $LN10@Alloc_cons

; 289  :         ::operator delete(_Ptr, _Bytes);

  00007	6a 1c		 push	 28			; 0000001cH
  00009	50		 push	 eax
  0000a	e8 00 00 00 00	 call	 ??3@YAXPAXI@Z		; operator delete
  0000f	83 c4 08	 add	 esp, 8
$LN10@Alloc_cons:

; 1173 :             _Al.deallocate(_Ptr, 1);
; 1174 :         }
; 1175 :     }

  00012	c3		 ret	 0
??1?$_Alloc_construct_ptr@V?$allocator@U?$_Tree_node@U?$pair@$$CBHU__FIVESYSTEM@CMiniGame@@@std@@PAX@std@@@std@@@std@@QAE@XZ ENDP ; std::_Alloc_construct_ptr<std::allocator<std::_Tree_node<std::pair<int const ,CMiniGame::__FIVESYSTEM>,void *> > >::~_Alloc_construct_ptr<std::allocator<std::_Tree_node<std::pair<int const ,CMiniGame::__FIVESYSTEM>,void *> > >
_TEXT	ENDS
; Function compile flags: /Ogtp
; File C:\Program Files\Microsoft Visual Studio\2022\Professional\VC\Tools\MSVC\14.44.35207\include\xtree
; File C:\Program Files\Microsoft Visual Studio\2022\Professional\VC\Tools\MSVC\14.44.35207\include\type_traits
; File C:\Program Files\Microsoft Visual Studio\2022\Professional\VC\Tools\MSVC\14.44.35207\include\xtree
; File C:\Program Files\Microsoft Visual Studio\2022\Professional\VC\Tools\MSVC\14.44.35207\include\type_traits
; File C:\Program Files\Microsoft Visual Studio\2022\Professional\VC\Tools\MSVC\14.44.35207\include\xtree
;	COMDAT ??$_Find_lower_bound@H@?$_Tree@V?$_Tmap_traits@HU__FIVESYSTEM@CMiniGame@@U?$less@H@std@@V?$allocator@U?$pair@$$CBHU__FIVESYSTEM@CMiniGame@@@std@@@4@$0A@@std@@@std@@IBE?AU?$_Tree_find_result@PAU?$_Tree_node@U?$pair@$$CBHU__FIVESYSTEM@CMiniGame@@@std@@PAX@std@@@1@ABH@Z
_TEXT	SEGMENT
___$ReturnUdt$ = 8					; size = 4
__Keyval$ = 12						; size = 4
??$_Find_lower_bound@H@?$_Tree@V?$_Tmap_traits@HU__FIVESYSTEM@CMiniGame@@U?$less@H@std@@V?$allocator@U?$pair@$$CBHU__FIVESYSTEM@CMiniGame@@@std@@@4@$0A@@std@@@std@@IBE?AU?$_Tree_find_result@PAU?$_Tree_node@U?$pair@$$CBHU__FIVESYSTEM@CMiniGame@@@std@@PAX@std@@@1@ABH@Z PROC ; std::_Tree<std::_Tmap_traits<int,CMiniGame::__FIVESYSTEM,std::less<int>,std::allocator<std::pair<int const ,CMiniGame::__FIVESYSTEM> >,0> >::_Find_lower_bound<int>, COMDAT
; _this$ = ecx

; 1628 :     _Tree_find_result<_Nodeptr> _Find_lower_bound(const _Keyty& _Keyval) const {

  00000	55		 push	 ebp
  00001	8b ec		 mov	 ebp, esp

; 1629 :         const auto _Scary = _Get_scary();
; 1630 :         _Tree_find_result<_Nodeptr> _Result{{_Scary->_Myhead->_Parent, _Tree_child::_Right}, _Scary->_Myhead};

  00003	8b 09		 mov	 ecx, DWORD PTR [ecx]
  00005	8b 55 08	 mov	 edx, DWORD PTR ___$ReturnUdt$[ebp]
  00008	8b 41 04	 mov	 eax, DWORD PTR [ecx+4]
  0000b	89 02		 mov	 DWORD PTR [edx], eax
  0000d	c7 42 04 00 00
	00 00		 mov	 DWORD PTR [edx+4], 0
  00014	89 4a 08	 mov	 DWORD PTR [edx+8], ecx

; 1631 :         _Nodeptr _Trynode = _Result._Location._Parent;
; 1632 :         while (!_Trynode->_Isnil) {

  00017	80 78 0d 00	 cmp	 BYTE PTR [eax+13], 0
  0001b	75 28		 jne	 SHORT $LN13@Find_lower
; File C:\Program Files\Microsoft Visual Studio\2022\Professional\VC\Tools\MSVC\14.44.35207\include\type_traits

; 2380 :         return _Left < _Right;

  0001d	8b 4d 0c	 mov	 ecx, DWORD PTR __Keyval$[ebp]
  00020	56		 push	 esi
  00021	8b 31		 mov	 esi, DWORD PTR [ecx]
$LL2@Find_lower:
; File C:\Program Files\Microsoft Visual Studio\2022\Professional\VC\Tools\MSVC\14.44.35207\include\xtree

; 1633 :             _Result._Location._Parent = _Trynode;

  00023	89 02		 mov	 DWORD PTR [edx], eax
; File C:\Program Files\Microsoft Visual Studio\2022\Professional\VC\Tools\MSVC\14.44.35207\include\type_traits

; 2380 :         return _Left < _Right;

  00025	39 70 10	 cmp	 DWORD PTR [eax+16], esi
; File C:\Program Files\Microsoft Visual Studio\2022\Professional\VC\Tools\MSVC\14.44.35207\include\xtree

; 1634 :             if (_DEBUG_LT_PRED(_Getcomp(), _Traits::_Kfn(_Trynode->_Myval), _Keyval)) {

  00028	7d 07		 jge	 SHORT $LN4@Find_lower

; 1635 :                 _Result._Location._Child = _Tree_child::_Right;
; 1636 :                 _Trynode                 = _Trynode->_Right;

  0002a	8b 40 08	 mov	 eax, DWORD PTR [eax+8]
  0002d	33 c9		 xor	 ecx, ecx

; 1637 :             } else {

  0002f	eb 0a		 jmp	 SHORT $LN5@Find_lower
$LN4@Find_lower:

; 1638 :                 _Result._Location._Child = _Tree_child::_Left;
; 1639 :                 _Result._Bound           = _Trynode;

  00031	89 42 08	 mov	 DWORD PTR [edx+8], eax

; 1640 :                 _Trynode                 = _Trynode->_Left;

  00034	b9 01 00 00 00	 mov	 ecx, 1
  00039	8b 00		 mov	 eax, DWORD PTR [eax]
$LN5@Find_lower:

; 1631 :         _Nodeptr _Trynode = _Result._Location._Parent;
; 1632 :         while (!_Trynode->_Isnil) {

  0003b	89 4a 04	 mov	 DWORD PTR [edx+4], ecx
  0003e	80 78 0d 00	 cmp	 BYTE PTR [eax+13], 0
  00042	74 df		 je	 SHORT $LL2@Find_lower
  00044	5e		 pop	 esi
$LN13@Find_lower:

; 1641 :             }
; 1642 :         }
; 1643 : 
; 1644 :         return _Result;
; 1645 :     }

  00045	8b c2		 mov	 eax, edx
  00047	5d		 pop	 ebp
  00048	c2 08 00	 ret	 8
??$_Find_lower_bound@H@?$_Tree@V?$_Tmap_traits@HU__FIVESYSTEM@CMiniGame@@U?$less@H@std@@V?$allocator@U?$pair@$$CBHU__FIVESYSTEM@CMiniGame@@@std@@@4@$0A@@std@@@std@@IBE?AU?$_Tree_find_result@PAU?$_Tree_node@U?$pair@$$CBHU__FIVESYSTEM@CMiniGame@@@std@@PAX@std@@@1@ABH@Z ENDP ; std::_Tree<std::_Tmap_traits<int,CMiniGame::__FIVESYSTEM,std::less<int>,std::allocator<std::pair<int const ,CMiniGame::__FIVESYSTEM> >,0> >::_Find_lower_bound<int>
_TEXT	ENDS
; Function compile flags: /Ogtp
; File C:\Program Files\Microsoft Visual Studio\2022\Professional\VC\Tools\MSVC\14.44.35207\atlmfc\include\atlsimpstr.h
;	COMDAT ??1?$pair@HV?$CStringT@DV?$StrTraitMFC@DV?$ChTraitsCRT@D@ATL@@@@@ATL@@@std@@QAE@XZ
_TEXT	SEGMENT
__$EHRec$ = -12						; size = 12
??1?$pair@HV?$CStringT@DV?$StrTraitMFC@DV?$ChTraitsCRT@D@ATL@@@@@ATL@@@std@@QAE@XZ PROC ; std::pair<int,ATL::CStringT<char,StrTraitMFC<char,ATL::ChTraitsCRT<char> > > >::~pair<int,ATL::CStringT<char,StrTraitMFC<char,ATL::ChTraitsCRT<char> > > >, COMDAT
; _this$ = ecx
  00000	55		 push	 ebp
  00001	8b ec		 mov	 ebp, esp
  00003	6a ff		 push	 -1
  00005	68 00 00 00 00	 push	 __ehhandler$??1?$pair@HV?$CStringT@DV?$StrTraitMFC@DV?$ChTraitsCRT@D@ATL@@@@@ATL@@@std@@QAE@XZ
  0000a	64 a1 00 00 00
	00		 mov	 eax, DWORD PTR fs:0
  00010	50		 push	 eax
  00011	a1 00 00 00 00	 mov	 eax, DWORD PTR ___security_cookie
  00016	33 c5		 xor	 eax, ebp
  00018	50		 push	 eax
  00019	8d 45 f4	 lea	 eax, DWORD PTR __$EHRec$[ebp]
  0001c	64 a3 00 00 00
	00		 mov	 DWORD PTR fs:0, eax

; 804  : 		return( reinterpret_cast< CStringData* >( m_pszData )-1 );

  00022	8b 51 04	 mov	 edx, DWORD PTR [ecx+4]

; 92   : 		if( _InterlockedDecrement( &nRefs ) <= 0 )

  00025	83 c8 ff	 or	 eax, -1

; 804  : 		return( reinterpret_cast< CStringData* >( m_pszData )-1 );

  00028	83 ea 10	 sub	 edx, 16			; 00000010H

; 92   : 		if( _InterlockedDecrement( &nRefs ) <= 0 )

  0002b	f0 0f c1 42 0c	 lock	  xadd	 DWORD PTR [edx+12], eax
  00030	48		 dec	 eax
  00031	85 c0		 test	 eax, eax
  00033	7f 08		 jg	 SHORT $LN11@pair

; 93   : 		{
; 94   : 			pStringMgr->Free( this );

  00035	8b 0a		 mov	 ecx, DWORD PTR [edx]
  00037	52		 push	 edx
  00038	8b 01		 mov	 eax, DWORD PTR [ecx]
  0003a	ff 50 04	 call	 DWORD PTR [eax+4]
$LN11@pair:
  0003d	8b 4d f4	 mov	 ecx, DWORD PTR __$EHRec$[ebp]
  00040	64 89 0d 00 00
	00 00		 mov	 DWORD PTR fs:0, ecx
  00047	59		 pop	 ecx
  00048	8b e5		 mov	 esp, ebp
  0004a	5d		 pop	 ebp
  0004b	c3		 ret	 0
  0004c	cc		 int	 3
  0004d	cc		 int	 3
  0004e	cc		 int	 3
  0004f	cc		 int	 3
  00050	cc		 int	 3
_TEXT	ENDS
;	COMDAT text$x
text$x	SEGMENT
__ehhandler$??1?$pair@HV?$CStringT@DV?$StrTraitMFC@DV?$ChTraitsCRT@D@ATL@@@@@ATL@@@std@@QAE@XZ:
  00000	90		 npad	 1
  00001	90		 npad	 1
  00002	8b 54 24 08	 mov	 edx, DWORD PTR [esp+8]
  00006	8d 42 0c	 lea	 eax, DWORD PTR [edx+12]
  00009	8b 4a fc	 mov	 ecx, DWORD PTR [edx-4]
  0000c	33 c8		 xor	 ecx, eax
  0000e	e8 00 00 00 00	 call	 @__security_check_cookie@4
  00013	b8 00 00 00 00	 mov	 eax, OFFSET __ehfuncinfo$??1?$pair@HV?$CStringT@DV?$StrTraitMFC@DV?$ChTraitsCRT@D@ATL@@@@@ATL@@@std@@QAE@XZ
  00018	e9 00 00 00 00	 jmp	 ___CxxFrameHandler3
text$x	ENDS
??1?$pair@HV?$CStringT@DV?$StrTraitMFC@DV?$ChTraitsCRT@D@ATL@@@@@ATL@@@std@@QAE@XZ ENDP ; std::pair<int,ATL::CStringT<char,StrTraitMFC<char,ATL::ChTraitsCRT<char> > > >::~pair<int,ATL::CStringT<char,StrTraitMFC<char,ATL::ChTraitsCRT<char> > > >
; Function compile flags: /Ogtp
; File C:\Program Files\Microsoft Visual Studio\2022\Professional\VC\Tools\MSVC\14.44.35207\include\xtree
; File C:\Program Files\Microsoft Visual Studio\2022\Professional\VC\Tools\MSVC\14.44.35207\include\xmemory
;	COMDAT ??1?$map@HV?$CStringT@DV?$StrTraitMFC@DV?$ChTraitsCRT@D@ATL@@@@@ATL@@U?$less@H@std@@V?$allocator@U?$pair@$$CBHV?$CStringT@DV?$StrTraitMFC@DV?$ChTraitsCRT@D@ATL@@@@@ATL@@@std@@@4@@std@@QAE@XZ
_TEXT	SEGMENT
??1?$map@HV?$CStringT@DV?$StrTraitMFC@DV?$ChTraitsCRT@D@ATL@@@@@ATL@@U?$less@H@std@@V?$allocator@U?$pair@$$CBHV?$CStringT@DV?$StrTraitMFC@DV?$ChTraitsCRT@D@ATL@@@@@ATL@@@std@@@4@@std@@QAE@XZ PROC ; std::map<int,ATL::CStringT<char,StrTraitMFC<char,ATL::ChTraitsCRT<char> > >,std::less<int>,std::allocator<std::pair<int const ,ATL::CStringT<char,StrTraitMFC<char,ATL::ChTraitsCRT<char> > > > > >::~map<int,ATL::CStringT<char,StrTraitMFC<char,ATL::ChTraitsCRT<char> > >,std::less<int>,std::allocator<std::pair<int const ,ATL::CStringT<char,StrTraitMFC<char,ATL::ChTraitsCRT<char> > > > > >, COMDAT
; _this$ = ecx
; File C:\Program Files\Microsoft Visual Studio\2022\Professional\VC\Tools\MSVC\14.44.35207\include\xtree

; 777  :         _Erase_tree(_Al, _Myhead->_Parent);

  00000	56		 push	 esi
  00001	8b f1		 mov	 esi, ecx
  00003	8b 06		 mov	 eax, DWORD PTR [esi]
  00005	ff 70 04	 push	 DWORD PTR [eax+4]
  00008	56		 push	 esi
  00009	e8 00 00 00 00	 call	 ??$_Erase_tree@V?$allocator@U?$_Tree_node@U?$pair@$$CBHV?$CStringT@DV?$StrTraitMFC@DV?$ChTraitsCRT@D@ATL@@@@@ATL@@@std@@PAX@std@@@std@@@?$_Tree_val@U?$_Tree_simple_types@U?$pair@$$CBHV?$CStringT@DV?$StrTraitMFC@DV?$ChTraitsCRT@D@ATL@@@@@ATL@@@std@@@std@@@std@@QAEXAAV?$allocator@U?$_Tree_node@U?$pair@$$CBHV?$CStringT@DV?$StrTraitMFC@DV?$ChTraitsCRT@D@ATL@@@@@ATL@@@std@@PAX@std@@@1@PAU?$_Tree_node@U?$pair@$$CBHV?$CStringT@DV?$StrTraitMFC@DV?$ChTraitsCRT@D@ATL@@@@@ATL@@@std@@PAX@1@@Z ; std::_Tree_val<std::_Tree_simple_types<std::pair<int const ,ATL::CStringT<char,StrTraitMFC<char,ATL::ChTraitsCRT<char> > > > > >::_Erase_tree<std::allocator<std::_Tree_node<std::pair<int const ,ATL::CStringT<char,StrTraitMFC<char,ATL::ChTraitsCRT<char> > > >,void *> > >
; File C:\Program Files\Microsoft Visual Studio\2022\Professional\VC\Tools\MSVC\14.44.35207\include\xmemory

; 289  :         ::operator delete(_Ptr, _Bytes);

  0000e	6a 18		 push	 24			; 00000018H
  00010	ff 36		 push	 DWORD PTR [esi]
  00012	e8 00 00 00 00	 call	 ??3@YAXPAXI@Z		; operator delete
  00017	83 c4 08	 add	 esp, 8
  0001a	5e		 pop	 esi
  0001b	c3		 ret	 0
??1?$map@HV?$CStringT@DV?$StrTraitMFC@DV?$ChTraitsCRT@D@ATL@@@@@ATL@@U?$less@H@std@@V?$allocator@U?$pair@$$CBHV?$CStringT@DV?$StrTraitMFC@DV?$ChTraitsCRT@D@ATL@@@@@ATL@@@std@@@4@@std@@QAE@XZ ENDP ; std::map<int,ATL::CStringT<char,StrTraitMFC<char,ATL::ChTraitsCRT<char> > >,std::less<int>,std::allocator<std::pair<int const ,ATL::CStringT<char,StrTraitMFC<char,ATL::ChTraitsCRT<char> > > > > >::~map<int,ATL::CStringT<char,StrTraitMFC<char,ATL::ChTraitsCRT<char> > >,std::less<int>,std::allocator<std::pair<int const ,ATL::CStringT<char,StrTraitMFC<char,ATL::ChTraitsCRT<char> > > > > >
_TEXT	ENDS
; Function compile flags: /Ogtp
; File C:\Program Files\Microsoft Visual Studio\2022\Professional\VC\Tools\MSVC\14.44.35207\include\xtree
;	COMDAT ?_Insert_node@?$_Tree_val@U?$_Tree_simple_types@U?$pair@$$CBHV?$CStringT@DV?$StrTraitMFC@DV?$ChTraitsCRT@D@ATL@@@@@ATL@@@std@@@std@@@std@@QAEPAU?$_Tree_node@U?$pair@$$CBHV?$CStringT@DV?$StrTraitMFC@DV?$ChTraitsCRT@D@ATL@@@@@ATL@@@std@@PAX@2@U?$_Tree_id@PAU?$_Tree_node@U?$pair@$$CBHV?$CStringT@DV?$StrTraitMFC@DV?$ChTraitsCRT@D@ATL@@@@@ATL@@@std@@PAX@std@@@2@QAU32@@Z
_TEXT	SEGMENT
__Head$1$ = -4						; size = 4
__Loc$ = 8						; size = 8
__Newnode$ = 16						; size = 4
?_Insert_node@?$_Tree_val@U?$_Tree_simple_types@U?$pair@$$CBHV?$CStringT@DV?$StrTraitMFC@DV?$ChTraitsCRT@D@ATL@@@@@ATL@@@std@@@std@@@std@@QAEPAU?$_Tree_node@U?$pair@$$CBHV?$CStringT@DV?$StrTraitMFC@DV?$ChTraitsCRT@D@ATL@@@@@ATL@@@std@@PAX@2@U?$_Tree_id@PAU?$_Tree_node@U?$pair@$$CBHV?$CStringT@DV?$StrTraitMFC@DV?$ChTraitsCRT@D@ATL@@@@@ATL@@@std@@PAX@std@@@2@QAU32@@Z PROC ; std::_Tree_val<std::_Tree_simple_types<std::pair<int const ,ATL::CStringT<char,StrTraitMFC<char,ATL::ChTraitsCRT<char> > > > > >::_Insert_node, COMDAT
; _this$ = ecx

; 669  :     _Nodeptr _Insert_node(const _Tree_id<_Nodeptr> _Loc, const _Nodeptr _Newnode) noexcept {

  00000	55		 push	 ebp
  00001	8b ec		 mov	 ebp, esp
  00003	51		 push	 ecx

; 670  :         ++_Mysize;
; 671  :         const auto _Head  = _Myhead;
; 672  :         _Newnode->_Parent = _Loc._Parent;

  00004	8b 55 08	 mov	 edx, DWORD PTR __Loc$[ebp]
  00007	53		 push	 ebx
  00008	8b d9		 mov	 ebx, ecx
  0000a	57		 push	 edi
  0000b	8b 7d 10	 mov	 edi, DWORD PTR __Newnode$[ebp]
  0000e	8b 03		 mov	 eax, DWORD PTR [ebx]
  00010	ff 43 04	 inc	 DWORD PTR [ebx+4]
  00013	89 45 fc	 mov	 DWORD PTR __Head$1$[ebp], eax
  00016	89 57 04	 mov	 DWORD PTR [edi+4], edx

; 673  :         if (_Loc._Parent == _Head) { // first node in tree, just set head values

  00019	3b d0		 cmp	 edx, eax
  0001b	75 16		 jne	 SHORT $LN5@Insert_nod

; 674  :             _Head->_Left     = _Newnode;

  0001d	89 38		 mov	 DWORD PTR [eax], edi

; 675  :             _Head->_Parent   = _Newnode;

  0001f	89 78 04	 mov	 DWORD PTR [eax+4], edi

; 676  :             _Head->_Right    = _Newnode;

  00022	89 78 08	 mov	 DWORD PTR [eax+8], edi

; 735  :         return _Newnode;
; 736  :     }

  00025	8b c7		 mov	 eax, edi
  00027	c6 47 0c 01	 mov	 BYTE PTR [edi+12], 1
  0002b	5f		 pop	 edi
  0002c	5b		 pop	 ebx
  0002d	8b e5		 mov	 esp, ebp
  0002f	5d		 pop	 ebp
  00030	c2 0c 00	 ret	 12			; 0000000cH
$LN5@Insert_nod:

; 677  :             _Newnode->_Color = _Black; // the root is black
; 678  :             return _Newnode;
; 679  :         }
; 680  : 
; 681  :         _STL_INTERNAL_CHECK(_Loc._Child != _Tree_child::_Unused);
; 682  :         if (_Loc._Child == _Tree_child::_Right) { // add to right of _Loc._Parent

  00033	83 7d 0c 00	 cmp	 DWORD PTR __Loc$[ebp+4], 0
  00037	75 0d		 jne	 SHORT $LN6@Insert_nod

; 683  :             _STL_INTERNAL_CHECK(_Loc._Parent->_Right->_Isnil);
; 684  :             _Loc._Parent->_Right = _Newnode;

  00039	89 7a 08	 mov	 DWORD PTR [edx+8], edi

; 685  :             if (_Loc._Parent == _Head->_Right) { // remember rightmost node

  0003c	3b 50 08	 cmp	 edx, DWORD PTR [eax+8]
  0003f	75 0d		 jne	 SHORT $LN9@Insert_nod

; 686  :                 _Head->_Right = _Newnode;

  00041	89 78 08	 mov	 DWORD PTR [eax+8], edi

; 687  :             }
; 688  :         } else { // add to left of _Loc._Parent

  00044	eb 08		 jmp	 SHORT $LN9@Insert_nod
$LN6@Insert_nod:

; 689  :             _STL_INTERNAL_CHECK(_Loc._Parent->_Left->_Isnil);
; 690  :             _Loc._Parent->_Left = _Newnode;

  00046	89 3a		 mov	 DWORD PTR [edx], edi

; 691  :             if (_Loc._Parent == _Head->_Left) { // remember leftmost node

  00048	3b 10		 cmp	 edx, DWORD PTR [eax]
  0004a	75 02		 jne	 SHORT $LN9@Insert_nod

; 692  :                 _Head->_Left = _Newnode;

  0004c	89 38		 mov	 DWORD PTR [eax], edi
$LN9@Insert_nod:

; 693  :             }
; 694  :         }
; 695  : 
; 696  :         for (_Nodeptr _Pnode = _Newnode; _Pnode->_Parent->_Color == _Red;) {

  0004e	8b 4f 04	 mov	 ecx, DWORD PTR [edi+4]
  00051	8b c7		 mov	 eax, edi
  00053	80 79 0c 00	 cmp	 BYTE PTR [ecx+12], 0
  00057	0f 85 7d 01 00
	00		 jne	 $LN3@Insert_nod
  0005d	56		 push	 esi
  0005e	66 90		 npad	 2
$LL4@Insert_nod:

; 697  :             if (_Pnode->_Parent == _Pnode->_Parent->_Parent->_Left) { // fixup red-red in left subtree

  00060	8b 50 04	 mov	 edx, DWORD PTR [eax+4]
  00063	8b 72 04	 mov	 esi, DWORD PTR [edx+4]
  00066	8b 0e		 mov	 ecx, DWORD PTR [esi]
  00068	3b d1		 cmp	 edx, ecx
  0006a	0f 85 aa 00 00
	00		 jne	 $LN10@Insert_nod

; 698  :                 const auto _Parent_sibling = _Pnode->_Parent->_Parent->_Right;

  00070	8b 4e 08	 mov	 ecx, DWORD PTR [esi+8]

; 699  :                 if (_Parent_sibling->_Color == _Red) { // parent's sibling has two red children, blacken both

  00073	80 79 0c 00	 cmp	 BYTE PTR [ecx+12], 0
  00077	0f 84 a3 00 00
	00		 je	 $LN82@Insert_nod

; 700  :                     _Pnode->_Parent->_Color          = _Black;
; 701  :                     _Parent_sibling->_Color          = _Black;
; 702  :                     _Pnode->_Parent->_Parent->_Color = _Red;
; 703  :                     _Pnode                           = _Pnode->_Parent->_Parent;
; 704  :                 } else { // parent's sibling has red and black children
; 705  :                     if (_Pnode == _Pnode->_Parent->_Right) { // rotate right child to left

  0007d	8b 72 08	 mov	 esi, DWORD PTR [edx+8]
  00080	3b c6		 cmp	 eax, esi
  00082	75 37		 jne	 SHORT $LN57@Insert_nod

; 485  :         _Wherenode->_Right = _Pnode->_Left;

  00084	8b 0e		 mov	 ecx, DWORD PTR [esi]

; 706  :                         _Pnode = _Pnode->_Parent;

  00086	8b c2		 mov	 eax, edx

; 485  :         _Wherenode->_Right = _Pnode->_Left;

  00088	89 4a 08	 mov	 DWORD PTR [edx+8], ecx

; 486  : 
; 487  :         if (!_Pnode->_Left->_Isnil) {

  0008b	8b 0e		 mov	 ecx, DWORD PTR [esi]
  0008d	80 79 0d 00	 cmp	 BYTE PTR [ecx+13], 0
  00091	75 03		 jne	 SHORT $LN21@Insert_nod

; 488  :             _Pnode->_Left->_Parent = _Wherenode;

  00093	89 41 04	 mov	 DWORD PTR [ecx+4], eax
$LN21@Insert_nod:

; 489  :         }
; 490  : 
; 491  :         _Pnode->_Parent = _Wherenode->_Parent;

  00096	8b 4a 04	 mov	 ecx, DWORD PTR [edx+4]
  00099	89 4e 04	 mov	 DWORD PTR [esi+4], ecx

; 492  : 
; 493  :         if (_Wherenode == _Myhead->_Parent) {

  0009c	8b 0b		 mov	 ecx, DWORD PTR [ebx]
  0009e	3b 41 04	 cmp	 eax, DWORD PTR [ecx+4]
  000a1	75 05		 jne	 SHORT $LN22@Insert_nod

; 494  :             _Myhead->_Parent = _Pnode;

  000a3	89 71 04	 mov	 DWORD PTR [ecx+4], esi
  000a6	eb 0e		 jmp	 SHORT $LN25@Insert_nod
$LN22@Insert_nod:

; 495  :         } else if (_Wherenode == _Wherenode->_Parent->_Left) {

  000a8	8b 4a 04	 mov	 ecx, DWORD PTR [edx+4]
  000ab	3b 01		 cmp	 eax, DWORD PTR [ecx]
  000ad	75 04		 jne	 SHORT $LN24@Insert_nod

; 496  :             _Wherenode->_Parent->_Left = _Pnode;

  000af	89 31		 mov	 DWORD PTR [ecx], esi

; 497  :         } else {

  000b1	eb 03		 jmp	 SHORT $LN25@Insert_nod
$LN24@Insert_nod:

; 498  :             _Wherenode->_Parent->_Right = _Pnode;

  000b3	89 71 08	 mov	 DWORD PTR [ecx+8], esi
$LN25@Insert_nod:

; 499  :         }
; 500  : 
; 501  :         _Pnode->_Left       = _Wherenode;

  000b6	89 06		 mov	 DWORD PTR [esi], eax

; 502  :         _Wherenode->_Parent = _Pnode;

  000b8	89 70 04	 mov	 DWORD PTR [eax+4], esi
$LN57@Insert_nod:

; 707  :                         _Lrotate(_Pnode);
; 708  :                     }
; 709  : 
; 710  :                     _Pnode->_Parent->_Color          = _Black; // propagate red up

  000bb	8b 48 04	 mov	 ecx, DWORD PTR [eax+4]
  000be	c6 41 0c 01	 mov	 BYTE PTR [ecx+12], 1

; 711  :                     _Pnode->_Parent->_Parent->_Color = _Red;

  000c2	8b 48 04	 mov	 ecx, DWORD PTR [eax+4]
  000c5	8b 49 04	 mov	 ecx, DWORD PTR [ecx+4]
  000c8	c6 41 0c 00	 mov	 BYTE PTR [ecx+12], 0

; 712  :                     _Rrotate(_Pnode->_Parent->_Parent);

  000cc	8b 48 04	 mov	 ecx, DWORD PTR [eax+4]
  000cf	8b 51 04	 mov	 edx, DWORD PTR [ecx+4]

; 506  :         _Nodeptr _Pnode   = _Wherenode->_Left;

  000d2	8b 32		 mov	 esi, DWORD PTR [edx]

; 507  :         _Wherenode->_Left = _Pnode->_Right;

  000d4	8b 4e 08	 mov	 ecx, DWORD PTR [esi+8]
  000d7	89 0a		 mov	 DWORD PTR [edx], ecx

; 508  : 
; 509  :         if (!_Pnode->_Right->_Isnil) {

  000d9	8b 4e 08	 mov	 ecx, DWORD PTR [esi+8]
  000dc	80 79 0d 00	 cmp	 BYTE PTR [ecx+13], 0
  000e0	75 03		 jne	 SHORT $LN29@Insert_nod

; 510  :             _Pnode->_Right->_Parent = _Wherenode;

  000e2	89 51 04	 mov	 DWORD PTR [ecx+4], edx
$LN29@Insert_nod:

; 511  :         }
; 512  : 
; 513  :         _Pnode->_Parent = _Wherenode->_Parent;

  000e5	8b 4a 04	 mov	 ecx, DWORD PTR [edx+4]
  000e8	89 4e 04	 mov	 DWORD PTR [esi+4], ecx

; 514  : 
; 515  :         if (_Wherenode == _Myhead->_Parent) {

  000eb	8b 0b		 mov	 ecx, DWORD PTR [ebx]
  000ed	3b 51 04	 cmp	 edx, DWORD PTR [ecx+4]
  000f0	75 0b		 jne	 SHORT $LN30@Insert_nod

; 516  :             _Myhead->_Parent = _Pnode;

  000f2	89 71 04	 mov	 DWORD PTR [ecx+4], esi

; 521  :         }
; 522  : 
; 523  :         _Pnode->_Right      = _Wherenode;

  000f5	89 56 08	 mov	 DWORD PTR [esi+8], edx

; 713  :                 }
; 714  :             } else { // fixup red-red in right subtree

  000f8	e9 cc 00 00 00	 jmp	 $LN81@Insert_nod
$LN30@Insert_nod:

; 517  :         } else if (_Wherenode == _Wherenode->_Parent->_Right) {

  000fd	8b 4a 04	 mov	 ecx, DWORD PTR [edx+4]
  00100	3b 51 08	 cmp	 edx, DWORD PTR [ecx+8]
  00103	75 0b		 jne	 SHORT $LN32@Insert_nod

; 518  :             _Wherenode->_Parent->_Right = _Pnode;

  00105	89 71 08	 mov	 DWORD PTR [ecx+8], esi

; 521  :         }
; 522  : 
; 523  :         _Pnode->_Right      = _Wherenode;

  00108	89 56 08	 mov	 DWORD PTR [esi+8], edx

; 713  :                 }
; 714  :             } else { // fixup red-red in right subtree

  0010b	e9 b9 00 00 00	 jmp	 $LN81@Insert_nod
$LN32@Insert_nod:

; 520  :             _Wherenode->_Parent->_Left = _Pnode;

  00110	89 31		 mov	 DWORD PTR [ecx], esi

; 521  :         }
; 522  : 
; 523  :         _Pnode->_Right      = _Wherenode;

  00112	89 56 08	 mov	 DWORD PTR [esi+8], edx

; 713  :                 }
; 714  :             } else { // fixup red-red in right subtree

  00115	e9 af 00 00 00	 jmp	 $LN81@Insert_nod
$LN10@Insert_nod:

; 715  :                 const auto _Parent_sibling = _Pnode->_Parent->_Parent->_Left;
; 716  :                 if (_Parent_sibling->_Color == _Red) { // parent's sibling has two red children, blacken both

  0011a	80 79 0c 00	 cmp	 BYTE PTR [ecx+12], 0
  0011e	75 1d		 jne	 SHORT $LN15@Insert_nod
$LN82@Insert_nod:

; 693  :             }
; 694  :         }
; 695  : 
; 696  :         for (_Nodeptr _Pnode = _Newnode; _Pnode->_Parent->_Color == _Red;) {

  00120	c6 42 0c 01	 mov	 BYTE PTR [edx+12], 1
  00124	c6 41 0c 01	 mov	 BYTE PTR [ecx+12], 1
  00128	8b 48 04	 mov	 ecx, DWORD PTR [eax+4]
  0012b	8b 49 04	 mov	 ecx, DWORD PTR [ecx+4]
  0012e	c6 41 0c 00	 mov	 BYTE PTR [ecx+12], 0
  00132	8b 48 04	 mov	 ecx, DWORD PTR [eax+4]
  00135	8b 41 04	 mov	 eax, DWORD PTR [ecx+4]
  00138	e9 8f 00 00 00	 jmp	 $LN2@Insert_nod
$LN15@Insert_nod:

; 717  :                     _Pnode->_Parent->_Color          = _Black;
; 718  :                     _Parent_sibling->_Color          = _Black;
; 719  :                     _Pnode->_Parent->_Parent->_Color = _Red;
; 720  :                     _Pnode                           = _Pnode->_Parent->_Parent;
; 721  :                 } else { // parent's sibling has red and black children
; 722  :                     if (_Pnode == _Pnode->_Parent->_Left) { // rotate left child to right

  0013d	8b 32		 mov	 esi, DWORD PTR [edx]
  0013f	3b c6		 cmp	 eax, esi
  00141	75 3a		 jne	 SHORT $LN42@Insert_nod

; 507  :         _Wherenode->_Left = _Pnode->_Right;

  00143	8b 4e 08	 mov	 ecx, DWORD PTR [esi+8]

; 723  :                         _Pnode = _Pnode->_Parent;

  00146	8b c2		 mov	 eax, edx

; 507  :         _Wherenode->_Left = _Pnode->_Right;

  00148	89 08		 mov	 DWORD PTR [eax], ecx

; 508  : 
; 509  :         if (!_Pnode->_Right->_Isnil) {

  0014a	8b 4e 08	 mov	 ecx, DWORD PTR [esi+8]
  0014d	80 79 0d 00	 cmp	 BYTE PTR [ecx+13], 0
  00151	75 03		 jne	 SHORT $LN37@Insert_nod

; 510  :             _Pnode->_Right->_Parent = _Wherenode;

  00153	89 41 04	 mov	 DWORD PTR [ecx+4], eax
$LN37@Insert_nod:

; 511  :         }
; 512  : 
; 513  :         _Pnode->_Parent = _Wherenode->_Parent;

  00156	8b 4a 04	 mov	 ecx, DWORD PTR [edx+4]
  00159	89 4e 04	 mov	 DWORD PTR [esi+4], ecx

; 514  : 
; 515  :         if (_Wherenode == _Myhead->_Parent) {

  0015c	8b 0b		 mov	 ecx, DWORD PTR [ebx]
  0015e	3b 41 04	 cmp	 eax, DWORD PTR [ecx+4]
  00161	75 05		 jne	 SHORT $LN38@Insert_nod

; 516  :             _Myhead->_Parent = _Pnode;

  00163	89 71 04	 mov	 DWORD PTR [ecx+4], esi
  00166	eb 0f		 jmp	 SHORT $LN41@Insert_nod
$LN38@Insert_nod:

; 517  :         } else if (_Wherenode == _Wherenode->_Parent->_Right) {

  00168	8b 4a 04	 mov	 ecx, DWORD PTR [edx+4]
  0016b	3b 41 08	 cmp	 eax, DWORD PTR [ecx+8]
  0016e	75 05		 jne	 SHORT $LN40@Insert_nod

; 518  :             _Wherenode->_Parent->_Right = _Pnode;

  00170	89 71 08	 mov	 DWORD PTR [ecx+8], esi

; 519  :         } else {

  00173	eb 02		 jmp	 SHORT $LN41@Insert_nod
$LN40@Insert_nod:

; 520  :             _Wherenode->_Parent->_Left = _Pnode;

  00175	89 31		 mov	 DWORD PTR [ecx], esi
$LN41@Insert_nod:

; 521  :         }
; 522  : 
; 523  :         _Pnode->_Right      = _Wherenode;

  00177	89 46 08	 mov	 DWORD PTR [esi+8], eax

; 524  :         _Wherenode->_Parent = _Pnode;

  0017a	89 70 04	 mov	 DWORD PTR [eax+4], esi
$LN42@Insert_nod:

; 724  :                         _Rrotate(_Pnode);
; 725  :                     }
; 726  : 
; 727  :                     _Pnode->_Parent->_Color          = _Black; // propagate red up

  0017d	8b 48 04	 mov	 ecx, DWORD PTR [eax+4]
  00180	c6 41 0c 01	 mov	 BYTE PTR [ecx+12], 1

; 728  :                     _Pnode->_Parent->_Parent->_Color = _Red;

  00184	8b 48 04	 mov	 ecx, DWORD PTR [eax+4]
  00187	8b 49 04	 mov	 ecx, DWORD PTR [ecx+4]
  0018a	c6 41 0c 00	 mov	 BYTE PTR [ecx+12], 0

; 729  :                     _Lrotate(_Pnode->_Parent->_Parent);

  0018e	8b 48 04	 mov	 ecx, DWORD PTR [eax+4]
  00191	8b 51 04	 mov	 edx, DWORD PTR [ecx+4]

; 484  :         _Nodeptr _Pnode    = _Wherenode->_Right;

  00194	8b 72 08	 mov	 esi, DWORD PTR [edx+8]

; 485  :         _Wherenode->_Right = _Pnode->_Left;

  00197	8b 0e		 mov	 ecx, DWORD PTR [esi]
  00199	89 4a 08	 mov	 DWORD PTR [edx+8], ecx

; 486  : 
; 487  :         if (!_Pnode->_Left->_Isnil) {

  0019c	8b 0e		 mov	 ecx, DWORD PTR [esi]
  0019e	80 79 0d 00	 cmp	 BYTE PTR [ecx+13], 0
  001a2	75 03		 jne	 SHORT $LN45@Insert_nod

; 488  :             _Pnode->_Left->_Parent = _Wherenode;

  001a4	89 51 04	 mov	 DWORD PTR [ecx+4], edx
$LN45@Insert_nod:

; 489  :         }
; 490  : 
; 491  :         _Pnode->_Parent = _Wherenode->_Parent;

  001a7	8b 4a 04	 mov	 ecx, DWORD PTR [edx+4]
  001aa	89 4e 04	 mov	 DWORD PTR [esi+4], ecx

; 492  : 
; 493  :         if (_Wherenode == _Myhead->_Parent) {

  001ad	8b 0b		 mov	 ecx, DWORD PTR [ebx]
  001af	3b 51 04	 cmp	 edx, DWORD PTR [ecx+4]
  001b2	75 05		 jne	 SHORT $LN46@Insert_nod

; 494  :             _Myhead->_Parent = _Pnode;

  001b4	89 71 04	 mov	 DWORD PTR [ecx+4], esi
  001b7	eb 0e		 jmp	 SHORT $LN49@Insert_nod
$LN46@Insert_nod:

; 495  :         } else if (_Wherenode == _Wherenode->_Parent->_Left) {

  001b9	8b 4a 04	 mov	 ecx, DWORD PTR [edx+4]
  001bc	3b 11		 cmp	 edx, DWORD PTR [ecx]
  001be	75 04		 jne	 SHORT $LN48@Insert_nod

; 496  :             _Wherenode->_Parent->_Left = _Pnode;

  001c0	89 31		 mov	 DWORD PTR [ecx], esi

; 497  :         } else {

  001c2	eb 03		 jmp	 SHORT $LN49@Insert_nod
$LN48@Insert_nod:

; 498  :             _Wherenode->_Parent->_Right = _Pnode;

  001c4	89 71 08	 mov	 DWORD PTR [ecx+8], esi
$LN49@Insert_nod:

; 499  :         }
; 500  : 
; 501  :         _Pnode->_Left       = _Wherenode;

  001c7	89 16		 mov	 DWORD PTR [esi], edx
$LN81@Insert_nod:

; 693  :             }
; 694  :         }
; 695  : 
; 696  :         for (_Nodeptr _Pnode = _Newnode; _Pnode->_Parent->_Color == _Red;) {

  001c9	89 72 04	 mov	 DWORD PTR [edx+4], esi
$LN2@Insert_nod:
  001cc	8b 48 04	 mov	 ecx, DWORD PTR [eax+4]
  001cf	80 79 0c 00	 cmp	 BYTE PTR [ecx+12], 0
  001d3	0f 84 87 fe ff
	ff		 je	 $LL4@Insert_nod
  001d9	5e		 pop	 esi
$LN3@Insert_nod:

; 730  :                 }
; 731  :             }
; 732  :         }
; 733  : 
; 734  :         _Head->_Parent->_Color = _Black; // root is always black

  001da	8b 45 fc	 mov	 eax, DWORD PTR __Head$1$[ebp]
  001dd	8b 40 04	 mov	 eax, DWORD PTR [eax+4]
  001e0	c6 40 0c 01	 mov	 BYTE PTR [eax+12], 1

; 735  :         return _Newnode;
; 736  :     }

  001e4	8b c7		 mov	 eax, edi
  001e6	5f		 pop	 edi
  001e7	5b		 pop	 ebx
  001e8	8b e5		 mov	 esp, ebp
  001ea	5d		 pop	 ebp
  001eb	c2 0c 00	 ret	 12			; 0000000cH
?_Insert_node@?$_Tree_val@U?$_Tree_simple_types@U?$pair@$$CBHV?$CStringT@DV?$StrTraitMFC@DV?$ChTraitsCRT@D@ATL@@@@@ATL@@@std@@@std@@@std@@QAEPAU?$_Tree_node@U?$pair@$$CBHV?$CStringT@DV?$StrTraitMFC@DV?$ChTraitsCRT@D@ATL@@@@@ATL@@@std@@PAX@2@U?$_Tree_id@PAU?$_Tree_node@U?$pair@$$CBHV?$CStringT@DV?$StrTraitMFC@DV?$ChTraitsCRT@D@ATL@@@@@ATL@@@std@@PAX@std@@@2@QAU32@@Z ENDP ; std::_Tree_val<std::_Tree_simple_types<std::pair<int const ,ATL::CStringT<char,StrTraitMFC<char,ATL::ChTraitsCRT<char> > > > > >::_Insert_node
_TEXT	ENDS
; Function compile flags: /Ogtp
; File C:\Program Files\Microsoft Visual Studio\2022\Professional\VC\Tools\MSVC\14.44.35207\include\xmemory
;	COMDAT ??$_Allocate_manually_vector_aligned@U_Default_allocate_traits@std@@@std@@YAPAXI@Z
_TEXT	SEGMENT
__Bytes$ = 8						; size = 4
??$_Allocate_manually_vector_aligned@U_Default_allocate_traits@std@@@std@@YAPAXI@Z PROC ; std::_Allocate_manually_vector_aligned<std::_Default_allocate_traits>, COMDAT

; 182  : __declspec(allocator) void* _Allocate_manually_vector_aligned(const size_t _Bytes) {

  00000	55		 push	 ebp
  00001	8b ec		 mov	 ebp, esp

; 183  :     // allocate _Bytes manually aligned to at least _Big_allocation_alignment
; 184  :     const size_t _Block_size = _Non_user_size + _Bytes;

  00003	8b 45 08	 mov	 eax, DWORD PTR __Bytes$[ebp]
  00006	8d 48 23	 lea	 ecx, DWORD PTR [eax+35]

; 185  :     if (_Block_size <= _Bytes) {

  00009	3b c8		 cmp	 ecx, eax
  0000b	0f 86 00 00 00
	00		 jbe	 ?_Throw_bad_array_new_length@std@@YAXXZ ; std::_Throw_bad_array_new_length

; 136  :         return ::operator new(_Bytes);

  00011	51		 push	 ecx
  00012	e8 00 00 00 00	 call	 ??2@YAPAXI@Z		; operator new

; 186  :         _Throw_bad_array_new_length(); // add overflow
; 187  :     }
; 188  : 
; 189  :     const uintptr_t _Ptr_container = reinterpret_cast<uintptr_t>(_Traits::_Allocate(_Block_size));

  00017	8b c8		 mov	 ecx, eax

; 136  :         return ::operator new(_Bytes);

  00019	83 c4 04	 add	 esp, 4

; 190  :     _STL_VERIFY(_Ptr_container != 0, "invalid argument"); // validate even in release since we're doing p[-1]

  0001c	85 c9		 test	 ecx, ecx
  0001e	74 0b		 je	 SHORT $LN9@Allocate_m

; 191  :     void* const _Ptr = reinterpret_cast<void*>((_Ptr_container + _Non_user_size) & ~(_Big_allocation_alignment - 1));

  00020	8d 41 23	 lea	 eax, DWORD PTR [ecx+35]
  00023	83 e0 e0	 and	 eax, -32		; ffffffe0H

; 192  :     static_cast<uintptr_t*>(_Ptr)[-1] = _Ptr_container;

  00026	89 48 fc	 mov	 DWORD PTR [eax-4], ecx

; 193  : 
; 194  : #ifdef _DEBUG
; 195  :     static_cast<uintptr_t*>(_Ptr)[-2] = _Big_allocation_sentinel;
; 196  : #endif // defined(_DEBUG)
; 197  :     return _Ptr;
; 198  : }

  00029	5d		 pop	 ebp
  0002a	c3		 ret	 0
$LN9@Allocate_m:

; 190  :     _STL_VERIFY(_Ptr_container != 0, "invalid argument"); // validate even in release since we're doing p[-1]

  0002b	6a 00		 push	 0
  0002d	6a 00		 push	 0
  0002f	6a 00		 push	 0
  00031	6a 00		 push	 0
  00033	6a 00		 push	 0
  00035	e8 00 00 00 00	 call	 __invoke_watson
$LN7@Allocate_m:
  0003a	cc		 int	 3
??$_Allocate_manually_vector_aligned@U_Default_allocate_traits@std@@@std@@YAPAXI@Z ENDP ; std::_Allocate_manually_vector_aligned<std::_Default_allocate_traits>
_TEXT	ENDS
; Function compile flags: /Ogtp
; File C:\Program Files\Microsoft Visual Studio\2022\Professional\VC\Tools\MSVC\14.44.35207\include\xtree
; File C:\Program Files\Microsoft Visual Studio\2022\Professional\VC\Tools\MSVC\14.44.35207\include\utility
; File C:\Program Files\Microsoft Visual Studio\2022\Professional\VC\Tools\MSVC\14.44.35207\include\xmemory
; File C:\Program Files\Microsoft Visual Studio\2022\Professional\VC\Tools\MSVC\14.44.35207\include\xtree
;	COMDAT ??$_Erase_tree@V?$allocator@U?$_Tree_node@U?$pair@$$CBKH@std@@PAX@std@@@std@@@?$_Tree_val@U?$_Tree_simple_types@U?$pair@$$CBKH@std@@@std@@@std@@QAEXAAV?$allocator@U?$_Tree_node@U?$pair@$$CBKH@std@@PAX@std@@@1@PAU?$_Tree_node@U?$pair@$$CBKH@std@@PAX@1@@Z
_TEXT	SEGMENT
__Al$ = 8						; size = 4
__Rootnode$ = 12					; size = 4
??$_Erase_tree@V?$allocator@U?$_Tree_node@U?$pair@$$CBKH@std@@PAX@std@@@std@@@?$_Tree_val@U?$_Tree_simple_types@U?$pair@$$CBKH@std@@@std@@@std@@QAEXAAV?$allocator@U?$_Tree_node@U?$pair@$$CBKH@std@@PAX@std@@@1@PAU?$_Tree_node@U?$pair@$$CBKH@std@@PAX@1@@Z PROC ; std::_Tree_val<std::_Tree_simple_types<std::pair<unsigned long const ,int> > >::_Erase_tree<std::allocator<std::_Tree_node<std::pair<unsigned long const ,int>,void *> > >, COMDAT
; _this$ = ecx

; 767  :     void _Erase_tree(_Alnode& _Al, _Nodeptr _Rootnode) noexcept {

  00000	55		 push	 ebp
  00001	8b ec		 mov	 ebp, esp
  00003	53		 push	 ebx
  00004	56		 push	 esi

; 768  :         while (!_Rootnode->_Isnil) { // free subtrees, then node

  00005	8b 75 0c	 mov	 esi, DWORD PTR __Rootnode$[ebp]
  00008	8b d9		 mov	 ebx, ecx
  0000a	80 7e 0d 00	 cmp	 BYTE PTR [esi+13], 0
  0000e	75 25		 jne	 SHORT $LN34@Erase_tree
  00010	57		 push	 edi
  00011	8b 7d 08	 mov	 edi, DWORD PTR __Al$[ebp]
$LL2@Erase_tree:

; 769  :             _Erase_tree(_Al, _Rootnode->_Right);

  00014	ff 76 08	 push	 DWORD PTR [esi+8]
  00017	8b cb		 mov	 ecx, ebx
  00019	57		 push	 edi
  0001a	e8 00 00 00 00	 call	 ??$_Erase_tree@V?$allocator@U?$_Tree_node@U?$pair@$$CBKH@std@@PAX@std@@@std@@@?$_Tree_val@U?$_Tree_simple_types@U?$pair@$$CBKH@std@@@std@@@std@@QAEXAAV?$allocator@U?$_Tree_node@U?$pair@$$CBKH@std@@PAX@std@@@1@PAU?$_Tree_node@U?$pair@$$CBKH@std@@PAX@1@@Z ; std::_Tree_val<std::_Tree_simple_types<std::pair<unsigned long const ,int> > >::_Erase_tree<std::allocator<std::_Tree_node<std::pair<unsigned long const ,int>,void *> > >
; File C:\Program Files\Microsoft Visual Studio\2022\Professional\VC\Tools\MSVC\14.44.35207\include\utility

; 773  :     _Ty _Old_val = static_cast<_Ty&&>(_Val);

  0001f	8b c6		 mov	 eax, esi

; 774  :     _Val         = static_cast<_Other&&>(_New_val);

  00021	8b 36		 mov	 esi, DWORD PTR [esi]
; File C:\Program Files\Microsoft Visual Studio\2022\Professional\VC\Tools\MSVC\14.44.35207\include\xmemory

; 289  :         ::operator delete(_Ptr, _Bytes);

  00023	6a 18		 push	 24			; 00000018H
  00025	50		 push	 eax
  00026	e8 00 00 00 00	 call	 ??3@YAXPAXI@Z		; operator delete
  0002b	83 c4 08	 add	 esp, 8
; File C:\Program Files\Microsoft Visual Studio\2022\Professional\VC\Tools\MSVC\14.44.35207\include\xtree

; 768  :         while (!_Rootnode->_Isnil) { // free subtrees, then node

  0002e	80 7e 0d 00	 cmp	 BYTE PTR [esi+13], 0
  00032	74 e0		 je	 SHORT $LL2@Erase_tree
  00034	5f		 pop	 edi
$LN34@Erase_tree:
  00035	5e		 pop	 esi

; 770  :             _Alnode::value_type::_Freenode(_Al, _STD exchange(_Rootnode, _Rootnode->_Left));
; 771  :         }
; 772  :     }

  00036	5b		 pop	 ebx
  00037	5d		 pop	 ebp
  00038	c2 08 00	 ret	 8
??$_Erase_tree@V?$allocator@U?$_Tree_node@U?$pair@$$CBKH@std@@PAX@std@@@std@@@?$_Tree_val@U?$_Tree_simple_types@U?$pair@$$CBKH@std@@@std@@@std@@QAEXAAV?$allocator@U?$_Tree_node@U?$pair@$$CBKH@std@@PAX@std@@@1@PAU?$_Tree_node@U?$pair@$$CBKH@std@@PAX@1@@Z ENDP ; std::_Tree_val<std::_Tree_simple_types<std::pair<unsigned long const ,int> > >::_Erase_tree<std::allocator<std::_Tree_node<std::pair<unsigned long const ,int>,void *> > >
_TEXT	ENDS
; Function compile flags: /Ogtp
; File C:\IAGOS\server\v18\Source\Source\_Common\Item.h
;	COMDAT ?GetAtItemId@?$CItemContainer@VCItemElem@@@@QAEPAVCItemElem@@K@Z
_TEXT	SEGMENT
_dwItemId$ = 8						; size = 4
?GetAtItemId@?$CItemContainer@VCItemElem@@@@QAEPAVCItemElem@@K@Z PROC ; CItemContainer<CItemElem>::GetAtItemId, COMDAT
; _this$ = ecx

; 527  : {

  00000	55		 push	 ebp
  00001	8b ec		 mov	 ebp, esp
  00003	56		 push	 esi

; 528  : 	for( DWORD i = 0; i < m_dwItemMax; i++ )

  00004	8b 71 0c	 mov	 esi, DWORD PTR [ecx+12]
  00007	33 d2		 xor	 edx, edx
  00009	85 f6		 test	 esi, esi
  0000b	74 15		 je	 SHORT $LN3@GetAtItemI

; 529  : 	{
; 530  : 		if( m_apItem[i].m_dwItemId == dwItemId )

  0000d	8b 41 10	 mov	 eax, DWORD PTR [ecx+16]
  00010	8b 4d 08	 mov	 ecx, DWORD PTR _dwItemId$[ebp]
$LL4@GetAtItemI:
  00013	39 48 0c	 cmp	 DWORD PTR [eax+12], ecx
  00016	74 0c		 je	 SHORT $LN1@GetAtItemI

; 528  : 	for( DWORD i = 0; i < m_dwItemMax; i++ )

  00018	42		 inc	 edx
  00019	05 b0 00 00 00	 add	 eax, 176		; 000000b0H
  0001e	3b d6		 cmp	 edx, esi
  00020	72 f1		 jb	 SHORT $LL4@GetAtItemI
$LN3@GetAtItemI:

; 531  : 			return &m_apItem[i];
; 532  : 	}
; 533  : 	return NULL;

  00022	33 c0		 xor	 eax, eax
$LN1@GetAtItemI:
  00024	5e		 pop	 esi

; 534  : }

  00025	5d		 pop	 ebp
  00026	c2 04 00	 ret	 4
?GetAtItemId@?$CItemContainer@VCItemElem@@@@QAEPAVCItemElem@@K@Z ENDP ; CItemContainer<CItemElem>::GetAtItemId
_TEXT	ENDS
; Function compile flags: /Ogtp
; File C:\IAGOS\server\v18\Source\Source\_Common\Item.h
;	COMDAT ?GetAtId@?$CItemContainer@VCItemElem@@@@QAEPAVCItemElem@@K@Z
_TEXT	SEGMENT
_dwId$ = 8						; size = 4
?GetAtId@?$CItemContainer@VCItemElem@@@@QAEPAVCItemElem@@K@Z PROC ; CItemContainer<CItemElem>::GetAtId, COMDAT
; _this$ = ecx

; 518  : {

  00000	55		 push	 ebp
  00001	8b ec		 mov	 ebp, esp

; 519  : 	if( dwId >= (DWORD)( GetMax() ) ) return NULL;

  00003	8b 45 08	 mov	 eax, DWORD PTR _dwId$[ebp]
  00006	3b 41 0c	 cmp	 eax, DWORD PTR [ecx+12]
  00009	73 15		 jae	 SHORT $LN7@GetAtId

; 520  : 	T* pItemElem = &m_apItem[ dwId ];

  0000b	69 c0 b0 00 00
	00		 imul	 eax, eax, 176
  00011	03 41 10	 add	 eax, DWORD PTR [ecx+16]

; 50   : 	BOOL			IsEmpty() { return m_dwItemId ? FALSE : TRUE; }

  00014	33 c9		 xor	 ecx, ecx
  00016	39 48 0c	 cmp	 DWORD PTR [eax+12], ecx
  00019	0f 44 c1	 cmove	 eax, ecx

; 523  : 	return pItemElem;
; 524  : }

  0001c	5d		 pop	 ebp
  0001d	c2 04 00	 ret	 4
$LN7@GetAtId:

; 521  : 	if( pItemElem->IsEmpty() ) 
; 522  : 		return NULL;

  00020	33 c0		 xor	 eax, eax

; 523  : 	return pItemElem;
; 524  : }

  00022	5d		 pop	 ebp
  00023	c2 04 00	 ret	 4
?GetAtId@?$CItemContainer@VCItemElem@@@@QAEPAVCItemElem@@K@Z ENDP ; CItemContainer<CItemElem>::GetAtId
_TEXT	ENDS
; Function compile flags: /Ogtp
; File C:\IAGOS\server\v18\Source\Source\_Common\Item.h
; File C:\IAGOS\server\v18\Source\Source\_Common\Project.h
; File C:\IAGOS\server\v18\Source\Source\_Common\data.h
; File C:\IAGOS\server\v18\Source\Source\_Common\Item.h
; File C:\IAGOS\server\v18\Source\Source\_Common\Project.h
; File C:\IAGOS\server\v18\Source\Source\_Common\Item.h
;	COMDAT ?GetPropA@CItemElem@@QAEPAUItemProp@@XZ
_TEXT	SEGMENT
?GetPropA@CItemElem@@QAEPAUItemProp@@XZ PROC		; CItemElem::GetPropA, COMDAT
; _this$ = ecx

; 230  : 	ItemProp*	GetProp()	{	return prj.GetItemProp( m_dwItemId );	}

  00000	8b 49 0c	 mov	 ecx, DWORD PTR [ecx+12]
; File C:\IAGOS\server\v18\Source\Source\_Common\Project.h

; 1389 : 	VERIFY_RANGE_ASSERT( nIndex, 0, m_aPropItem.GetSize(), "GetItemProp range_error", NULL );

  00003	a1 40 02 00 00	 mov	 eax, DWORD PTR ?prj@@3VCProject@@A+576
  00008	85 c9		 test	 ecx, ecx
  0000a	78 0f		 js	 SHORT $LN8@GetPropA
  0000c	3b c8		 cmp	 ecx, eax
  0000e	7d 0b		 jge	 SHORT $LN8@GetPropA
; File C:\IAGOS\server\v18\Source\Source\_Common\data.h

; 270  : 	if( dwIndex >= (DWORD)m_nMaxIndex )

  00010	73 1f		 jae	 SHORT $LN15@GetPropA

; 271  : 		return NULL;
; 272  : 	return (T*) m_apOffset[ dwIndex ];

  00012	a1 30 02 00 00	 mov	 eax, DWORD PTR ?prj@@3VCProject@@A+560
  00017	8b 04 88	 mov	 eax, DWORD PTR [eax+ecx*4]
; File C:\IAGOS\server\v18\Source\Source\_Common\Item.h

; 230  : 	ItemProp*	GetProp()	{	return prj.GetItemProp( m_dwItemId );	}

  0001a	c3		 ret	 0
$LN8@GetPropA:
; File C:\IAGOS\server\v18\Source\Source\_Common\Project.h

; 579  : 	LPCTSTR szErr = Error( _T( "%s min:%d, max:%d, index:%d" ), szMsg, nMin, nMax, nIndex ); 

  0001b	51		 push	 ecx
  0001c	50		 push	 eax
  0001d	6a 00		 push	 0
  0001f	68 00 00 00 00	 push	 OFFSET ??_C@_0BI@BEIFNGEL@GetItemProp?5range_error@
  00024	68 00 00 00 00	 push	 OFFSET ??_C@_0BM@HMFGHCP@?$CFs?5min?3?$CFd?0?5max?3?$CFd?0?5index?3?$CFd@
  00029	e8 00 00 00 00	 call	 ?Error@@YAPBDPBDZZ	; Error
  0002e	83 c4 14	 add	 esp, 20			; 00000014H
$LN15@GetPropA:
; File C:\IAGOS\server\v18\Source\Source\_Common\Item.h

; 230  : 	ItemProp*	GetProp()	{	return prj.GetItemProp( m_dwItemId );	}

  00031	33 c0		 xor	 eax, eax
  00033	c3		 ret	 0
?GetPropA@CItemElem@@QAEPAUItemProp@@XZ ENDP		; CItemElem::GetPropA
_TEXT	ENDS
; Function compile flags: /Ogtp
; File C:\IAGOS\server\v18\Source\Source\_Common\Project.h
; File C:\IAGOS\server\v18\Source\Source\_Common\data.h
; File C:\IAGOS\server\v18\Source\Source\_Common\Project.h
;	COMDAT ?GetText@CProject@@QAEPBDK@Z
_TEXT	SEGMENT
_dwIndex$ = 8						; size = 4
?GetText@CProject@@QAEPBDK@Z PROC			; CProject::GetText, COMDAT
; _this$ = ecx

; 1426 : { 

  00000	55		 push	 ebp
  00001	8b ec		 mov	 ebp, esp

; 1427 : 	VERIFY_RANGE( (int)( dwIndex ), 0, m_colorText.GetSize(), "GetText range_error", "error" );

  00003	8b 55 08	 mov	 edx, DWORD PTR _dwIndex$[ebp]
  00006	56		 push	 esi
  00007	85 d2		 test	 edx, edx
  00009	78 29		 js	 SHORT $LN19@GetText
  0000b	3b 91 ac 02 00
	00		 cmp	 edx, DWORD PTR [ecx+684]
  00011	7d 21		 jge	 SHORT $LN19@GetText
; File C:\IAGOS\server\v18\Source\Source\_Common\data.h

; 270  : 	if( dwIndex >= (DWORD)m_nMaxIndex )

  00013	73 15		 jae	 SHORT $LN18@GetText

; 271  : 		return NULL;
; 272  : 	return (T*) m_apOffset[ dwIndex ];

  00015	8b 81 9c 02 00
	00		 mov	 eax, DWORD PTR [ecx+668]
  0001b	8b 04 90	 mov	 eax, DWORD PTR [eax+edx*4]
; File C:\IAGOS\server\v18\Source\Source\_Common\Project.h

; 1428 : 	if( m_colorText.GetAt( dwIndex ) == NULL )

  0001e	85 c0		 test	 eax, eax
  00020	74 08		 je	 SHORT $LN18@GetText

; 1430 : 	return m_colorText.GetAt( dwIndex )->lpszData; 

  00022	8b 40 04	 mov	 eax, DWORD PTR [eax+4]
  00025	5e		 pop	 esi

; 1431 : }

  00026	5d		 pop	 ebp
  00027	c2 04 00	 ret	 4
$LN18@GetText:

; 1429 : 		return "";

  0002a	b8 00 00 00 00	 mov	 eax, OFFSET ??_C@_00CNPNBAHC@@
  0002f	5e		 pop	 esi

; 1431 : }

  00030	5d		 pop	 ebp
  00031	c2 04 00	 ret	 4
$LN19@GetText:

; 579  : 	LPCTSTR szErr = Error( _T( "%s min:%d, max:%d, index:%d" ), szMsg, nMin, nMax, nIndex ); 

  00034	52		 push	 edx
  00035	ff b1 ac 02 00
	00		 push	 DWORD PTR [ecx+684]
  0003b	6a 00		 push	 0
  0003d	68 00 00 00 00	 push	 OFFSET ??_C@_0BE@OHDBLHOM@GetText?5range_error@
  00042	68 00 00 00 00	 push	 OFFSET ??_C@_0BM@HMFGHCP@?$CFs?5min?3?$CFd?0?5max?3?$CFd?0?5index?3?$CFd@
  00047	e8 00 00 00 00	 call	 ?Error@@YAPBDPBDZZ	; Error
  0004c	83 c4 14	 add	 esp, 20			; 00000014H

; 1427 : 	VERIFY_RANGE( (int)( dwIndex ), 0, m_colorText.GetSize(), "GetText range_error", "error" );

  0004f	b8 00 00 00 00	 mov	 eax, OFFSET ??_C@_05KKCIMGE@error@
  00054	5e		 pop	 esi

; 1431 : }

  00055	5d		 pop	 ebp
  00056	c2 04 00	 ret	 4
?GetText@CProject@@QAEPBDK@Z ENDP			; CProject::GetText
_TEXT	ENDS
; Function compile flags: /Ogtp
;	COMDAT ??1?$map@KHU?$less@K@std@@V?$allocator@U?$pair@$$CBKH@std@@@2@@std@@QAE@XZ
_TEXT	SEGMENT
??1?$map@KHU?$less@K@std@@V?$allocator@U?$pair@$$CBKH@std@@@2@@std@@QAE@XZ PROC ; std::map<unsigned long,int,std::less<unsigned long>,std::allocator<std::pair<unsigned long const ,int> > >::~map<unsigned long,int,std::less<unsigned long>,std::allocator<std::pair<unsigned long const ,int> > >, COMDAT
; _this$ = ecx
  00000	e9 00 00 00 00	 jmp	 ??1?$_Tree@V?$_Tmap_traits@KHU?$less@K@std@@V?$allocator@U?$pair@$$CBKH@std@@@2@$0A@@std@@@std@@QAE@XZ ; std::_Tree<std::_Tmap_traits<unsigned long,int,std::less<unsigned long>,std::allocator<std::pair<unsigned long const ,int> >,0> >::~_Tree<std::_Tmap_traits<unsigned long,int,std::less<unsigned long>,std::allocator<std::pair<unsigned long const ,int> >,0> >
??1?$map@KHU?$less@K@std@@V?$allocator@U?$pair@$$CBKH@std@@@2@@std@@QAE@XZ ENDP ; std::map<unsigned long,int,std::less<unsigned long>,std::allocator<std::pair<unsigned long const ,int> > >::~map<unsigned long,int,std::less<unsigned long>,std::allocator<std::pair<unsigned long const ,int> > >
_TEXT	ENDS
; Function compile flags: /Ogtp
; File C:\Program Files\Microsoft Visual Studio\2022\Professional\VC\Tools\MSVC\14.44.35207\include\xtree
;	COMDAT ?_Insert_node@?$_Tree_val@U?$_Tree_simple_types@U?$pair@$$CBKH@std@@@std@@@std@@QAEPAU?$_Tree_node@U?$pair@$$CBKH@std@@PAX@2@U?$_Tree_id@PAU?$_Tree_node@U?$pair@$$CBKH@std@@PAX@std@@@2@QAU32@@Z
_TEXT	SEGMENT
__Head$1$ = -4						; size = 4
__Loc$ = 8						; size = 8
__Newnode$ = 16						; size = 4
?_Insert_node@?$_Tree_val@U?$_Tree_simple_types@U?$pair@$$CBKH@std@@@std@@@std@@QAEPAU?$_Tree_node@U?$pair@$$CBKH@std@@PAX@2@U?$_Tree_id@PAU?$_Tree_node@U?$pair@$$CBKH@std@@PAX@std@@@2@QAU32@@Z PROC ; std::_Tree_val<std::_Tree_simple_types<std::pair<unsigned long const ,int> > >::_Insert_node, COMDAT
; _this$ = ecx

; 669  :     _Nodeptr _Insert_node(const _Tree_id<_Nodeptr> _Loc, const _Nodeptr _Newnode) noexcept {

  00000	55		 push	 ebp
  00001	8b ec		 mov	 ebp, esp
  00003	51		 push	 ecx

; 670  :         ++_Mysize;
; 671  :         const auto _Head  = _Myhead;
; 672  :         _Newnode->_Parent = _Loc._Parent;

  00004	8b 55 08	 mov	 edx, DWORD PTR __Loc$[ebp]
  00007	53		 push	 ebx
  00008	8b d9		 mov	 ebx, ecx
  0000a	57		 push	 edi
  0000b	8b 7d 10	 mov	 edi, DWORD PTR __Newnode$[ebp]
  0000e	8b 03		 mov	 eax, DWORD PTR [ebx]
  00010	ff 43 04	 inc	 DWORD PTR [ebx+4]
  00013	89 45 fc	 mov	 DWORD PTR __Head$1$[ebp], eax
  00016	89 57 04	 mov	 DWORD PTR [edi+4], edx

; 673  :         if (_Loc._Parent == _Head) { // first node in tree, just set head values

  00019	3b d0		 cmp	 edx, eax
  0001b	75 16		 jne	 SHORT $LN5@Insert_nod

; 674  :             _Head->_Left     = _Newnode;

  0001d	89 38		 mov	 DWORD PTR [eax], edi

; 675  :             _Head->_Parent   = _Newnode;

  0001f	89 78 04	 mov	 DWORD PTR [eax+4], edi

; 676  :             _Head->_Right    = _Newnode;

  00022	89 78 08	 mov	 DWORD PTR [eax+8], edi

; 735  :         return _Newnode;
; 736  :     }

  00025	8b c7		 mov	 eax, edi
  00027	c6 47 0c 01	 mov	 BYTE PTR [edi+12], 1
  0002b	5f		 pop	 edi
  0002c	5b		 pop	 ebx
  0002d	8b e5		 mov	 esp, ebp
  0002f	5d		 pop	 ebp
  00030	c2 0c 00	 ret	 12			; 0000000cH
$LN5@Insert_nod:

; 677  :             _Newnode->_Color = _Black; // the root is black
; 678  :             return _Newnode;
; 679  :         }
; 680  : 
; 681  :         _STL_INTERNAL_CHECK(_Loc._Child != _Tree_child::_Unused);
; 682  :         if (_Loc._Child == _Tree_child::_Right) { // add to right of _Loc._Parent

  00033	83 7d 0c 00	 cmp	 DWORD PTR __Loc$[ebp+4], 0
  00037	75 0d		 jne	 SHORT $LN6@Insert_nod

; 683  :             _STL_INTERNAL_CHECK(_Loc._Parent->_Right->_Isnil);
; 684  :             _Loc._Parent->_Right = _Newnode;

  00039	89 7a 08	 mov	 DWORD PTR [edx+8], edi

; 685  :             if (_Loc._Parent == _Head->_Right) { // remember rightmost node

  0003c	3b 50 08	 cmp	 edx, DWORD PTR [eax+8]
  0003f	75 0d		 jne	 SHORT $LN9@Insert_nod

; 686  :                 _Head->_Right = _Newnode;

  00041	89 78 08	 mov	 DWORD PTR [eax+8], edi

; 687  :             }
; 688  :         } else { // add to left of _Loc._Parent

  00044	eb 08		 jmp	 SHORT $LN9@Insert_nod
$LN6@Insert_nod:

; 689  :             _STL_INTERNAL_CHECK(_Loc._Parent->_Left->_Isnil);
; 690  :             _Loc._Parent->_Left = _Newnode;

  00046	89 3a		 mov	 DWORD PTR [edx], edi

; 691  :             if (_Loc._Parent == _Head->_Left) { // remember leftmost node

  00048	3b 10		 cmp	 edx, DWORD PTR [eax]
  0004a	75 02		 jne	 SHORT $LN9@Insert_nod

; 692  :                 _Head->_Left = _Newnode;

  0004c	89 38		 mov	 DWORD PTR [eax], edi
$LN9@Insert_nod:

; 693  :             }
; 694  :         }
; 695  : 
; 696  :         for (_Nodeptr _Pnode = _Newnode; _Pnode->_Parent->_Color == _Red;) {

  0004e	8b 4f 04	 mov	 ecx, DWORD PTR [edi+4]
  00051	8b c7		 mov	 eax, edi
  00053	80 79 0c 00	 cmp	 BYTE PTR [ecx+12], 0
  00057	0f 85 7d 01 00
	00		 jne	 $LN3@Insert_nod
  0005d	56		 push	 esi
  0005e	66 90		 npad	 2
$LL4@Insert_nod:

; 697  :             if (_Pnode->_Parent == _Pnode->_Parent->_Parent->_Left) { // fixup red-red in left subtree

  00060	8b 50 04	 mov	 edx, DWORD PTR [eax+4]
  00063	8b 72 04	 mov	 esi, DWORD PTR [edx+4]
  00066	8b 0e		 mov	 ecx, DWORD PTR [esi]
  00068	3b d1		 cmp	 edx, ecx
  0006a	0f 85 aa 00 00
	00		 jne	 $LN10@Insert_nod

; 698  :                 const auto _Parent_sibling = _Pnode->_Parent->_Parent->_Right;

  00070	8b 4e 08	 mov	 ecx, DWORD PTR [esi+8]

; 699  :                 if (_Parent_sibling->_Color == _Red) { // parent's sibling has two red children, blacken both

  00073	80 79 0c 00	 cmp	 BYTE PTR [ecx+12], 0
  00077	0f 84 a3 00 00
	00		 je	 $LN82@Insert_nod

; 700  :                     _Pnode->_Parent->_Color          = _Black;
; 701  :                     _Parent_sibling->_Color          = _Black;
; 702  :                     _Pnode->_Parent->_Parent->_Color = _Red;
; 703  :                     _Pnode                           = _Pnode->_Parent->_Parent;
; 704  :                 } else { // parent's sibling has red and black children
; 705  :                     if (_Pnode == _Pnode->_Parent->_Right) { // rotate right child to left

  0007d	8b 72 08	 mov	 esi, DWORD PTR [edx+8]
  00080	3b c6		 cmp	 eax, esi
  00082	75 37		 jne	 SHORT $LN57@Insert_nod

; 485  :         _Wherenode->_Right = _Pnode->_Left;

  00084	8b 0e		 mov	 ecx, DWORD PTR [esi]

; 706  :                         _Pnode = _Pnode->_Parent;

  00086	8b c2		 mov	 eax, edx

; 485  :         _Wherenode->_Right = _Pnode->_Left;

  00088	89 4a 08	 mov	 DWORD PTR [edx+8], ecx

; 486  : 
; 487  :         if (!_Pnode->_Left->_Isnil) {

  0008b	8b 0e		 mov	 ecx, DWORD PTR [esi]
  0008d	80 79 0d 00	 cmp	 BYTE PTR [ecx+13], 0
  00091	75 03		 jne	 SHORT $LN21@Insert_nod

; 488  :             _Pnode->_Left->_Parent = _Wherenode;

  00093	89 41 04	 mov	 DWORD PTR [ecx+4], eax
$LN21@Insert_nod:

; 489  :         }
; 490  : 
; 491  :         _Pnode->_Parent = _Wherenode->_Parent;

  00096	8b 4a 04	 mov	 ecx, DWORD PTR [edx+4]
  00099	89 4e 04	 mov	 DWORD PTR [esi+4], ecx

; 492  : 
; 493  :         if (_Wherenode == _Myhead->_Parent) {

  0009c	8b 0b		 mov	 ecx, DWORD PTR [ebx]
  0009e	3b 41 04	 cmp	 eax, DWORD PTR [ecx+4]
  000a1	75 05		 jne	 SHORT $LN22@Insert_nod

; 494  :             _Myhead->_Parent = _Pnode;

  000a3	89 71 04	 mov	 DWORD PTR [ecx+4], esi
  000a6	eb 0e		 jmp	 SHORT $LN25@Insert_nod
$LN22@Insert_nod:

; 495  :         } else if (_Wherenode == _Wherenode->_Parent->_Left) {

  000a8	8b 4a 04	 mov	 ecx, DWORD PTR [edx+4]
  000ab	3b 01		 cmp	 eax, DWORD PTR [ecx]
  000ad	75 04		 jne	 SHORT $LN24@Insert_nod

; 496  :             _Wherenode->_Parent->_Left = _Pnode;

  000af	89 31		 mov	 DWORD PTR [ecx], esi

; 497  :         } else {

  000b1	eb 03		 jmp	 SHORT $LN25@Insert_nod
$LN24@Insert_nod:

; 498  :             _Wherenode->_Parent->_Right = _Pnode;

  000b3	89 71 08	 mov	 DWORD PTR [ecx+8], esi
$LN25@Insert_nod:

; 499  :         }
; 500  : 
; 501  :         _Pnode->_Left       = _Wherenode;

  000b6	89 06		 mov	 DWORD PTR [esi], eax

; 502  :         _Wherenode->_Parent = _Pnode;

  000b8	89 70 04	 mov	 DWORD PTR [eax+4], esi
$LN57@Insert_nod:

; 707  :                         _Lrotate(_Pnode);
; 708  :                     }
; 709  : 
; 710  :                     _Pnode->_Parent->_Color          = _Black; // propagate red up

  000bb	8b 48 04	 mov	 ecx, DWORD PTR [eax+4]
  000be	c6 41 0c 01	 mov	 BYTE PTR [ecx+12], 1

; 711  :                     _Pnode->_Parent->_Parent->_Color = _Red;

  000c2	8b 48 04	 mov	 ecx, DWORD PTR [eax+4]
  000c5	8b 49 04	 mov	 ecx, DWORD PTR [ecx+4]
  000c8	c6 41 0c 00	 mov	 BYTE PTR [ecx+12], 0

; 712  :                     _Rrotate(_Pnode->_Parent->_Parent);

  000cc	8b 48 04	 mov	 ecx, DWORD PTR [eax+4]
  000cf	8b 51 04	 mov	 edx, DWORD PTR [ecx+4]

; 506  :         _Nodeptr _Pnode   = _Wherenode->_Left;

  000d2	8b 32		 mov	 esi, DWORD PTR [edx]

; 507  :         _Wherenode->_Left = _Pnode->_Right;

  000d4	8b 4e 08	 mov	 ecx, DWORD PTR [esi+8]
  000d7	89 0a		 mov	 DWORD PTR [edx], ecx

; 508  : 
; 509  :         if (!_Pnode->_Right->_Isnil) {

  000d9	8b 4e 08	 mov	 ecx, DWORD PTR [esi+8]
  000dc	80 79 0d 00	 cmp	 BYTE PTR [ecx+13], 0
  000e0	75 03		 jne	 SHORT $LN29@Insert_nod

; 510  :             _Pnode->_Right->_Parent = _Wherenode;

  000e2	89 51 04	 mov	 DWORD PTR [ecx+4], edx
$LN29@Insert_nod:

; 511  :         }
; 512  : 
; 513  :         _Pnode->_Parent = _Wherenode->_Parent;

  000e5	8b 4a 04	 mov	 ecx, DWORD PTR [edx+4]
  000e8	89 4e 04	 mov	 DWORD PTR [esi+4], ecx

; 514  : 
; 515  :         if (_Wherenode == _Myhead->_Parent) {

  000eb	8b 0b		 mov	 ecx, DWORD PTR [ebx]
  000ed	3b 51 04	 cmp	 edx, DWORD PTR [ecx+4]
  000f0	75 0b		 jne	 SHORT $LN30@Insert_nod

; 516  :             _Myhead->_Parent = _Pnode;

  000f2	89 71 04	 mov	 DWORD PTR [ecx+4], esi

; 521  :         }
; 522  : 
; 523  :         _Pnode->_Right      = _Wherenode;

  000f5	89 56 08	 mov	 DWORD PTR [esi+8], edx

; 713  :                 }
; 714  :             } else { // fixup red-red in right subtree

  000f8	e9 cc 00 00 00	 jmp	 $LN81@Insert_nod
$LN30@Insert_nod:

; 517  :         } else if (_Wherenode == _Wherenode->_Parent->_Right) {

  000fd	8b 4a 04	 mov	 ecx, DWORD PTR [edx+4]
  00100	3b 51 08	 cmp	 edx, DWORD PTR [ecx+8]
  00103	75 0b		 jne	 SHORT $LN32@Insert_nod

; 518  :             _Wherenode->_Parent->_Right = _Pnode;

  00105	89 71 08	 mov	 DWORD PTR [ecx+8], esi

; 521  :         }
; 522  : 
; 523  :         _Pnode->_Right      = _Wherenode;

  00108	89 56 08	 mov	 DWORD PTR [esi+8], edx

; 713  :                 }
; 714  :             } else { // fixup red-red in right subtree

  0010b	e9 b9 00 00 00	 jmp	 $LN81@Insert_nod
$LN32@Insert_nod:

; 520  :             _Wherenode->_Parent->_Left = _Pnode;

  00110	89 31		 mov	 DWORD PTR [ecx], esi

; 521  :         }
; 522  : 
; 523  :         _Pnode->_Right      = _Wherenode;

  00112	89 56 08	 mov	 DWORD PTR [esi+8], edx

; 713  :                 }
; 714  :             } else { // fixup red-red in right subtree

  00115	e9 af 00 00 00	 jmp	 $LN81@Insert_nod
$LN10@Insert_nod:

; 715  :                 const auto _Parent_sibling = _Pnode->_Parent->_Parent->_Left;
; 716  :                 if (_Parent_sibling->_Color == _Red) { // parent's sibling has two red children, blacken both

  0011a	80 79 0c 00	 cmp	 BYTE PTR [ecx+12], 0
  0011e	75 1d		 jne	 SHORT $LN15@Insert_nod
$LN82@Insert_nod:

; 693  :             }
; 694  :         }
; 695  : 
; 696  :         for (_Nodeptr _Pnode = _Newnode; _Pnode->_Parent->_Color == _Red;) {

  00120	c6 42 0c 01	 mov	 BYTE PTR [edx+12], 1
  00124	c6 41 0c 01	 mov	 BYTE PTR [ecx+12], 1
  00128	8b 48 04	 mov	 ecx, DWORD PTR [eax+4]
  0012b	8b 49 04	 mov	 ecx, DWORD PTR [ecx+4]
  0012e	c6 41 0c 00	 mov	 BYTE PTR [ecx+12], 0
  00132	8b 48 04	 mov	 ecx, DWORD PTR [eax+4]
  00135	8b 41 04	 mov	 eax, DWORD PTR [ecx+4]
  00138	e9 8f 00 00 00	 jmp	 $LN2@Insert_nod
$LN15@Insert_nod:

; 717  :                     _Pnode->_Parent->_Color          = _Black;
; 718  :                     _Parent_sibling->_Color          = _Black;
; 719  :                     _Pnode->_Parent->_Parent->_Color = _Red;
; 720  :                     _Pnode                           = _Pnode->_Parent->_Parent;
; 721  :                 } else { // parent's sibling has red and black children
; 722  :                     if (_Pnode == _Pnode->_Parent->_Left) { // rotate left child to right

  0013d	8b 32		 mov	 esi, DWORD PTR [edx]
  0013f	3b c6		 cmp	 eax, esi
  00141	75 3a		 jne	 SHORT $LN42@Insert_nod

; 507  :         _Wherenode->_Left = _Pnode->_Right;

  00143	8b 4e 08	 mov	 ecx, DWORD PTR [esi+8]

; 723  :                         _Pnode = _Pnode->_Parent;

  00146	8b c2		 mov	 eax, edx

; 507  :         _Wherenode->_Left = _Pnode->_Right;

  00148	89 08		 mov	 DWORD PTR [eax], ecx

; 508  : 
; 509  :         if (!_Pnode->_Right->_Isnil) {

  0014a	8b 4e 08	 mov	 ecx, DWORD PTR [esi+8]
  0014d	80 79 0d 00	 cmp	 BYTE PTR [ecx+13], 0
  00151	75 03		 jne	 SHORT $LN37@Insert_nod

; 510  :             _Pnode->_Right->_Parent = _Wherenode;

  00153	89 41 04	 mov	 DWORD PTR [ecx+4], eax
$LN37@Insert_nod:

; 511  :         }
; 512  : 
; 513  :         _Pnode->_Parent = _Wherenode->_Parent;

  00156	8b 4a 04	 mov	 ecx, DWORD PTR [edx+4]
  00159	89 4e 04	 mov	 DWORD PTR [esi+4], ecx

; 514  : 
; 515  :         if (_Wherenode == _Myhead->_Parent) {

  0015c	8b 0b		 mov	 ecx, DWORD PTR [ebx]
  0015e	3b 41 04	 cmp	 eax, DWORD PTR [ecx+4]
  00161	75 05		 jne	 SHORT $LN38@Insert_nod

; 516  :             _Myhead->_Parent = _Pnode;

  00163	89 71 04	 mov	 DWORD PTR [ecx+4], esi
  00166	eb 0f		 jmp	 SHORT $LN41@Insert_nod
$LN38@Insert_nod:

; 517  :         } else if (_Wherenode == _Wherenode->_Parent->_Right) {

  00168	8b 4a 04	 mov	 ecx, DWORD PTR [edx+4]
  0016b	3b 41 08	 cmp	 eax, DWORD PTR [ecx+8]
  0016e	75 05		 jne	 SHORT $LN40@Insert_nod

; 518  :             _Wherenode->_Parent->_Right = _Pnode;

  00170	89 71 08	 mov	 DWORD PTR [ecx+8], esi

; 519  :         } else {

  00173	eb 02		 jmp	 SHORT $LN41@Insert_nod
$LN40@Insert_nod:

; 520  :             _Wherenode->_Parent->_Left = _Pnode;

  00175	89 31		 mov	 DWORD PTR [ecx], esi
$LN41@Insert_nod:

; 521  :         }
; 522  : 
; 523  :         _Pnode->_Right      = _Wherenode;

  00177	89 46 08	 mov	 DWORD PTR [esi+8], eax

; 524  :         _Wherenode->_Parent = _Pnode;

  0017a	89 70 04	 mov	 DWORD PTR [eax+4], esi
$LN42@Insert_nod:

; 724  :                         _Rrotate(_Pnode);
; 725  :                     }
; 726  : 
; 727  :                     _Pnode->_Parent->_Color          = _Black; // propagate red up

  0017d	8b 48 04	 mov	 ecx, DWORD PTR [eax+4]
  00180	c6 41 0c 01	 mov	 BYTE PTR [ecx+12], 1

; 728  :                     _Pnode->_Parent->_Parent->_Color = _Red;

  00184	8b 48 04	 mov	 ecx, DWORD PTR [eax+4]
  00187	8b 49 04	 mov	 ecx, DWORD PTR [ecx+4]
  0018a	c6 41 0c 00	 mov	 BYTE PTR [ecx+12], 0

; 729  :                     _Lrotate(_Pnode->_Parent->_Parent);

  0018e	8b 48 04	 mov	 ecx, DWORD PTR [eax+4]
  00191	8b 51 04	 mov	 edx, DWORD PTR [ecx+4]

; 484  :         _Nodeptr _Pnode    = _Wherenode->_Right;

  00194	8b 72 08	 mov	 esi, DWORD PTR [edx+8]

; 485  :         _Wherenode->_Right = _Pnode->_Left;

  00197	8b 0e		 mov	 ecx, DWORD PTR [esi]
  00199	89 4a 08	 mov	 DWORD PTR [edx+8], ecx

; 486  : 
; 487  :         if (!_Pnode->_Left->_Isnil) {

  0019c	8b 0e		 mov	 ecx, DWORD PTR [esi]
  0019e	80 79 0d 00	 cmp	 BYTE PTR [ecx+13], 0
  001a2	75 03		 jne	 SHORT $LN45@Insert_nod

; 488  :             _Pnode->_Left->_Parent = _Wherenode;

  001a4	89 51 04	 mov	 DWORD PTR [ecx+4], edx
$LN45@Insert_nod:

; 489  :         }
; 490  : 
; 491  :         _Pnode->_Parent = _Wherenode->_Parent;

  001a7	8b 4a 04	 mov	 ecx, DWORD PTR [edx+4]
  001aa	89 4e 04	 mov	 DWORD PTR [esi+4], ecx

; 492  : 
; 493  :         if (_Wherenode == _Myhead->_Parent) {

  001ad	8b 0b		 mov	 ecx, DWORD PTR [ebx]
  001af	3b 51 04	 cmp	 edx, DWORD PTR [ecx+4]
  001b2	75 05		 jne	 SHORT $LN46@Insert_nod

; 494  :             _Myhead->_Parent = _Pnode;

  001b4	89 71 04	 mov	 DWORD PTR [ecx+4], esi
  001b7	eb 0e		 jmp	 SHORT $LN49@Insert_nod
$LN46@Insert_nod:

; 495  :         } else if (_Wherenode == _Wherenode->_Parent->_Left) {

  001b9	8b 4a 04	 mov	 ecx, DWORD PTR [edx+4]
  001bc	3b 11		 cmp	 edx, DWORD PTR [ecx]
  001be	75 04		 jne	 SHORT $LN48@Insert_nod

; 496  :             _Wherenode->_Parent->_Left = _Pnode;

  001c0	89 31		 mov	 DWORD PTR [ecx], esi

; 497  :         } else {

  001c2	eb 03		 jmp	 SHORT $LN49@Insert_nod
$LN48@Insert_nod:

; 498  :             _Wherenode->_Parent->_Right = _Pnode;

  001c4	89 71 08	 mov	 DWORD PTR [ecx+8], esi
$LN49@Insert_nod:

; 499  :         }
; 500  : 
; 501  :         _Pnode->_Left       = _Wherenode;

  001c7	89 16		 mov	 DWORD PTR [esi], edx
$LN81@Insert_nod:

; 693  :             }
; 694  :         }
; 695  : 
; 696  :         for (_Nodeptr _Pnode = _Newnode; _Pnode->_Parent->_Color == _Red;) {

  001c9	89 72 04	 mov	 DWORD PTR [edx+4], esi
$LN2@Insert_nod:
  001cc	8b 48 04	 mov	 ecx, DWORD PTR [eax+4]
  001cf	80 79 0c 00	 cmp	 BYTE PTR [ecx+12], 0
  001d3	0f 84 87 fe ff
	ff		 je	 $LL4@Insert_nod
  001d9	5e		 pop	 esi
$LN3@Insert_nod:

; 730  :                 }
; 731  :             }
; 732  :         }
; 733  : 
; 734  :         _Head->_Parent->_Color = _Black; // root is always black

  001da	8b 45 fc	 mov	 eax, DWORD PTR __Head$1$[ebp]
  001dd	8b 40 04	 mov	 eax, DWORD PTR [eax+4]
  001e0	c6 40 0c 01	 mov	 BYTE PTR [eax+12], 1

; 735  :         return _Newnode;
; 736  :     }

  001e4	8b c7		 mov	 eax, edi
  001e6	5f		 pop	 edi
  001e7	5b		 pop	 ebx
  001e8	8b e5		 mov	 esp, ebp
  001ea	5d		 pop	 ebp
  001eb	c2 0c 00	 ret	 12			; 0000000cH
?_Insert_node@?$_Tree_val@U?$_Tree_simple_types@U?$pair@$$CBKH@std@@@std@@@std@@QAEPAU?$_Tree_node@U?$pair@$$CBKH@std@@PAX@2@U?$_Tree_id@PAU?$_Tree_node@U?$pair@$$CBKH@std@@PAX@std@@@2@QAU32@@Z ENDP ; std::_Tree_val<std::_Tree_simple_types<std::pair<unsigned long const ,int> > >::_Insert_node
_TEXT	ENDS
; Function compile flags: /Ogtp
; File C:\Program Files\Microsoft Visual Studio\2022\Professional\VC\Tools\MSVC\14.44.35207\include\xtree
; File C:\Program Files\Microsoft Visual Studio\2022\Professional\VC\Tools\MSVC\14.44.35207\include\utility
; File C:\Program Files\Microsoft Visual Studio\2022\Professional\VC\Tools\MSVC\14.44.35207\include\xmemory
; File C:\Program Files\Microsoft Visual Studio\2022\Professional\VC\Tools\MSVC\14.44.35207\include\xtree
; File C:\Program Files\Microsoft Visual Studio\2022\Professional\VC\Tools\MSVC\14.44.35207\include\xmemory
; File C:\Program Files\Microsoft Visual Studio\2022\Professional\VC\Tools\MSVC\14.44.35207\include\xtree
;	COMDAT ??1?$_Tree@V?$_Tmap_traits@KHU?$less@K@std@@V?$allocator@U?$pair@$$CBKH@std@@@2@$0A@@std@@@std@@QAE@XZ
_TEXT	SEGMENT
??1?$_Tree@V?$_Tmap_traits@KHU?$less@K@std@@V?$allocator@U?$pair@$$CBKH@std@@@2@$0A@@std@@@std@@QAE@XZ PROC ; std::_Tree<std::_Tmap_traits<unsigned long,int,std::less<unsigned long>,std::allocator<std::pair<unsigned long const ,int> >,0> >::~_Tree<std::_Tmap_traits<unsigned long,int,std::less<unsigned long>,std::allocator<std::pair<unsigned long const ,int> >,0> >, COMDAT
; _this$ = ecx

; 1095 :     ~_Tree() noexcept {

  00000	56		 push	 esi
  00001	57		 push	 edi
  00002	8b f9		 mov	 edi, ecx

; 777  :         _Erase_tree(_Al, _Myhead->_Parent);

  00004	8b 37		 mov	 esi, DWORD PTR [edi]
  00006	8b 76 04	 mov	 esi, DWORD PTR [esi+4]

; 768  :         while (!_Rootnode->_Isnil) { // free subtrees, then node

  00009	80 7e 0d 00	 cmp	 BYTE PTR [esi+13], 0
  0000d	75 21		 jne	 SHORT $LN61@Tree
  0000f	90		 npad	 1
$LL8@Tree:

; 769  :             _Erase_tree(_Al, _Rootnode->_Right);

  00010	ff 76 08	 push	 DWORD PTR [esi+8]
  00013	8b cf		 mov	 ecx, edi
  00015	57		 push	 edi
  00016	e8 00 00 00 00	 call	 ??$_Erase_tree@V?$allocator@U?$_Tree_node@U?$pair@$$CBKH@std@@PAX@std@@@std@@@?$_Tree_val@U?$_Tree_simple_types@U?$pair@$$CBKH@std@@@std@@@std@@QAEXAAV?$allocator@U?$_Tree_node@U?$pair@$$CBKH@std@@PAX@std@@@1@PAU?$_Tree_node@U?$pair@$$CBKH@std@@PAX@1@@Z ; std::_Tree_val<std::_Tree_simple_types<std::pair<unsigned long const ,int> > >::_Erase_tree<std::allocator<std::_Tree_node<std::pair<unsigned long const ,int>,void *> > >
; File C:\Program Files\Microsoft Visual Studio\2022\Professional\VC\Tools\MSVC\14.44.35207\include\utility

; 773  :     _Ty _Old_val = static_cast<_Ty&&>(_Val);

  0001b	8b c6		 mov	 eax, esi

; 774  :     _Val         = static_cast<_Other&&>(_New_val);

  0001d	8b 36		 mov	 esi, DWORD PTR [esi]
; File C:\Program Files\Microsoft Visual Studio\2022\Professional\VC\Tools\MSVC\14.44.35207\include\xmemory

; 289  :         ::operator delete(_Ptr, _Bytes);

  0001f	6a 18		 push	 24			; 00000018H
  00021	50		 push	 eax
  00022	e8 00 00 00 00	 call	 ??3@YAXPAXI@Z		; operator delete
  00027	83 c4 08	 add	 esp, 8
; File C:\Program Files\Microsoft Visual Studio\2022\Professional\VC\Tools\MSVC\14.44.35207\include\xtree

; 768  :         while (!_Rootnode->_Isnil) { // free subtrees, then node

  0002a	80 7e 0d 00	 cmp	 BYTE PTR [esi+13], 0
  0002e	74 e0		 je	 SHORT $LL8@Tree
$LN61@Tree:
; File C:\Program Files\Microsoft Visual Studio\2022\Professional\VC\Tools\MSVC\14.44.35207\include\xmemory

; 289  :         ::operator delete(_Ptr, _Bytes);

  00030	6a 18		 push	 24			; 00000018H
  00032	ff 37		 push	 DWORD PTR [edi]
  00034	e8 00 00 00 00	 call	 ??3@YAXPAXI@Z		; operator delete
  00039	83 c4 08	 add	 esp, 8
  0003c	5f		 pop	 edi
  0003d	5e		 pop	 esi
; File C:\Program Files\Microsoft Visual Studio\2022\Professional\VC\Tools\MSVC\14.44.35207\include\xtree

; 1102 :     }

  0003e	c3		 ret	 0
??1?$_Tree@V?$_Tmap_traits@KHU?$less@K@std@@V?$allocator@U?$pair@$$CBKH@std@@@2@$0A@@std@@@std@@QAE@XZ ENDP ; std::_Tree<std::_Tmap_traits<unsigned long,int,std::less<unsigned long>,std::allocator<std::pair<unsigned long const ,int> >,0> >::~_Tree<std::_Tmap_traits<unsigned long,int,std::less<unsigned long>,std::allocator<std::pair<unsigned long const ,int> >,0> >
_TEXT	ENDS
; Function compile flags: /Ogtp
;	COMDAT ??_GCMiniGame@@UAEPAXI@Z
_TEXT	SEGMENT
___flags$ = 8						; size = 4
??_GCMiniGame@@UAEPAXI@Z PROC				; CMiniGame::`scalar deleting destructor', COMDAT
; _this$ = ecx
  00000	55		 push	 ebp
  00001	8b ec		 mov	 ebp, esp
  00003	56		 push	 esi
  00004	8b f1		 mov	 esi, ecx
  00006	e8 00 00 00 00	 call	 ??1CMiniGame@@UAE@XZ	; CMiniGame::~CMiniGame
  0000b	f6 45 08 01	 test	 BYTE PTR ___flags$[ebp], 1
  0000f	74 0b		 je	 SHORT $LN5@scalar
  00011	6a 58		 push	 88			; 00000058H
  00013	56		 push	 esi
  00014	e8 00 00 00 00	 call	 ??3@YAXPAXI@Z		; operator delete
  00019	83 c4 08	 add	 esp, 8
$LN5@scalar:
  0001c	8b c6		 mov	 eax, esi
  0001e	5e		 pop	 esi
  0001f	5d		 pop	 ebp
  00020	c2 04 00	 ret	 4
??_GCMiniGame@@UAEPAXI@Z ENDP				; CMiniGame::`scalar deleting destructor'
_TEXT	ENDS
; Function compile flags: /Ogtp
; File C:\Program Files\Microsoft Visual Studio\2022\Professional\VC\Tools\MSVC\14.44.35207\include\vector
;	COMDAT ?_Xlength@?$vector@U__KAWIBAWIBORESULT@CMiniGame@@V?$allocator@U__KAWIBAWIBORESULT@CMiniGame@@@std@@@std@@CAXXZ
_TEXT	SEGMENT
?_Xlength@?$vector@U__KAWIBAWIBORESULT@CMiniGame@@V?$allocator@U__KAWIBAWIBORESULT@CMiniGame@@@std@@@std@@CAXXZ PROC ; std::vector<CMiniGame::__KAWIBAWIBORESULT,std::allocator<CMiniGame::__KAWIBAWIBORESULT> >::_Xlength, COMDAT

; 2184 :         _Xlength_error("vector too long");

  00000	68 00 00 00 00	 push	 OFFSET ??_C@_0BA@FOIKENOD@vector?5too?5long@
  00005	e8 00 00 00 00	 call	 ?_Xlength_error@std@@YAXPBD@Z ; std::_Xlength_error
$LN3@Xlength:
  0000a	cc		 int	 3
?_Xlength@?$vector@U__KAWIBAWIBORESULT@CMiniGame@@V?$allocator@U__KAWIBAWIBORESULT@CMiniGame@@@std@@@std@@CAXXZ ENDP ; std::vector<CMiniGame::__KAWIBAWIBORESULT,std::allocator<CMiniGame::__KAWIBAWIBORESULT> >::_Xlength
_TEXT	ENDS
; Function compile flags: /Ogtp
; File C:\Program Files\Microsoft Visual Studio\2022\Professional\VC\Tools\MSVC\14.44.35207\include\vector
; File C:\Program Files\Microsoft Visual Studio\2022\Professional\VC\Tools\MSVC\14.44.35207\include\xmemory
; File C:\Program Files\Microsoft Visual Studio\2022\Professional\VC\Tools\MSVC\14.44.35207\include\vector
; File C:\Program Files\Microsoft Visual Studio\2022\Professional\VC\Tools\MSVC\14.44.35207\include\xmemory
; File C:\Program Files\Microsoft Visual Studio\2022\Professional\VC\Tools\MSVC\14.44.35207\include\vector
; File C:\Program Files\Microsoft Visual Studio\2022\Professional\VC\Tools\MSVC\14.44.35207\include\xmemory
; File C:\Program Files\Microsoft Visual Studio\2022\Professional\VC\Tools\MSVC\14.44.35207\include\vector
;	COMDAT ??1?$vector@U__KAWIBAWIBORESULT@CMiniGame@@V?$allocator@U__KAWIBAWIBORESULT@CMiniGame@@@std@@@std@@QAE@XZ
_TEXT	SEGMENT
??1?$vector@U__KAWIBAWIBORESULT@CMiniGame@@V?$allocator@U__KAWIBAWIBORESULT@CMiniGame@@@std@@@std@@QAE@XZ PROC ; std::vector<CMiniGame::__KAWIBAWIBORESULT,std::allocator<CMiniGame::__KAWIBAWIBORESULT> >::~vector<CMiniGame::__KAWIBAWIBORESULT,std::allocator<CMiniGame::__KAWIBAWIBORESULT> >, COMDAT
; _this$ = ecx

; 829  :     _CONSTEXPR20 ~vector() noexcept {

  00000	56		 push	 esi
  00001	57		 push	 edi
  00002	8b f9		 mov	 edi, ecx

; 2090 :         if (_Myfirst) { // destroy and deallocate old array

  00004	8b 37		 mov	 esi, DWORD PTR [edi]
  00006	85 f6		 test	 esi, esi
  00008	74 53		 je	 SHORT $LN5@vector

; 2091 :             _STD _Destroy_range(_Myfirst, _Mylast, _Al);
; 2092 :             _ASAN_VECTOR_REMOVE;
; 2093 :             _Al.deallocate(_Myfirst, static_cast<size_type>(_Myend - _Myfirst));

  0000a	8b 4f 08	 mov	 ecx, DWORD PTR [edi+8]
  0000d	b8 ab aa aa 2a	 mov	 eax, 715827883		; 2aaaaaabH
  00012	2b ce		 sub	 ecx, esi
  00014	f7 e9		 imul	 ecx
  00016	d1 fa		 sar	 edx, 1
  00018	8b c2		 mov	 eax, edx
  0001a	c1 e8 1f	 shr	 eax, 31			; 0000001fH
  0001d	03 c2		 add	 eax, edx
; File C:\Program Files\Microsoft Visual Studio\2022\Professional\VC\Tools\MSVC\14.44.35207\include\xmemory

; 985  :         _STD _Deallocate<_New_alignof<_Ty>>(_Ptr, sizeof(_Ty) * _Count);

  0001f	8d 0c 40	 lea	 ecx, DWORD PTR [eax+eax*2]
  00022	c1 e1 02	 shl	 ecx, 2

; 284  :         if (_Bytes >= _Big_allocation_threshold) {

  00025	81 f9 00 10 00
	00		 cmp	 ecx, 4096		; 00001000H
  0002b	72 12		 jb	 SHORT $LN18@vector

; 205  :     const uintptr_t _Ptr_container   = _Ptr_user[-1];

  0002d	8b 56 fc	 mov	 edx, DWORD PTR [esi-4]
  00030	83 c1 23	 add	 ecx, 35			; 00000023H

; 206  : 
; 207  :     // If the following asserts, it likely means that we are performing
; 208  :     // an aligned delete on memory coming from an unaligned allocation.
; 209  :     _STL_ASSERT(_Ptr_user[-2] == _Big_allocation_sentinel, "invalid argument");
; 210  : 
; 211  :     // Extra paranoia on aligned allocation/deallocation; ensure _Ptr_container is
; 212  :     // in range [_Min_back_shift, _Non_user_size]
; 213  : #ifdef _DEBUG
; 214  :     constexpr uintptr_t _Min_back_shift = 2 * sizeof(void*);
; 215  : #else // ^^^ defined(_DEBUG) / !defined(_DEBUG) vvv
; 216  :     constexpr uintptr_t _Min_back_shift = sizeof(void*);
; 217  : #endif // ^^^ !defined(_DEBUG) ^^^
; 218  :     const uintptr_t _Back_shift = reinterpret_cast<uintptr_t>(_Ptr) - _Ptr_container;

  00033	2b f2		 sub	 esi, edx

; 219  :     _STL_VERIFY(_Back_shift >= _Min_back_shift && _Back_shift <= _Non_user_size, "invalid argument");

  00035	8d 46 fc	 lea	 eax, DWORD PTR [esi-4]
  00038	83 f8 1f	 cmp	 eax, 31			; 0000001fH
  0003b	77 23		 ja	 SHORT $LN17@vector

; 220  :     _Ptr = reinterpret_cast<void*>(_Ptr_container);

  0003d	8b f2		 mov	 esi, edx
$LN18@vector:

; 289  :         ::operator delete(_Ptr, _Bytes);

  0003f	51		 push	 ecx
  00040	56		 push	 esi
  00041	e8 00 00 00 00	 call	 ??3@YAXPAXI@Z		; operator delete
; File C:\Program Files\Microsoft Visual Studio\2022\Professional\VC\Tools\MSVC\14.44.35207\include\vector

; 2095 :             _Myfirst = nullptr;

  00046	c7 07 00 00 00
	00		 mov	 DWORD PTR [edi], 0
; File C:\Program Files\Microsoft Visual Studio\2022\Professional\VC\Tools\MSVC\14.44.35207\include\xmemory

; 289  :         ::operator delete(_Ptr, _Bytes);

  0004c	83 c4 08	 add	 esp, 8
; File C:\Program Files\Microsoft Visual Studio\2022\Professional\VC\Tools\MSVC\14.44.35207\include\vector

; 2096 :             _Mylast  = nullptr;

  0004f	c7 47 04 00 00
	00 00		 mov	 DWORD PTR [edi+4], 0

; 2097 :             _Myend   = nullptr;

  00056	c7 47 08 00 00
	00 00		 mov	 DWORD PTR [edi+8], 0
$LN5@vector:
  0005d	5f		 pop	 edi

; 835  :     }

  0005e	5e		 pop	 esi
  0005f	c3		 ret	 0
$LN17@vector:
; File C:\Program Files\Microsoft Visual Studio\2022\Professional\VC\Tools\MSVC\14.44.35207\include\xmemory

; 219  :     _STL_VERIFY(_Back_shift >= _Min_back_shift && _Back_shift <= _Non_user_size, "invalid argument");

  00060	6a 00		 push	 0
  00062	6a 00		 push	 0
  00064	6a 00		 push	 0
  00066	6a 00		 push	 0
  00068	6a 00		 push	 0
  0006a	e8 00 00 00 00	 call	 __invoke_watson
$LN26@vector:
  0006f	cc		 int	 3
??1?$vector@U__KAWIBAWIBORESULT@CMiniGame@@V?$allocator@U__KAWIBAWIBORESULT@CMiniGame@@@std@@@std@@QAE@XZ ENDP ; std::vector<CMiniGame::__KAWIBAWIBORESULT,std::allocator<CMiniGame::__KAWIBAWIBORESULT> >::~vector<CMiniGame::__KAWIBAWIBORESULT,std::allocator<CMiniGame::__KAWIBAWIBORESULT> >
_TEXT	ENDS
; Function compile flags: /Ogtp
; File C:\Program Files\Microsoft Visual Studio\2022\Professional\VC\Tools\MSVC\14.44.35207\include\vector
;	COMDAT ?_Xlength@?$vector@KV?$allocator@K@std@@@std@@CAXXZ
_TEXT	SEGMENT
?_Xlength@?$vector@KV?$allocator@K@std@@@std@@CAXXZ PROC ; std::vector<unsigned long,std::allocator<unsigned long> >::_Xlength, COMDAT

; 2184 :         _Xlength_error("vector too long");

  00000	68 00 00 00 00	 push	 OFFSET ??_C@_0BA@FOIKENOD@vector?5too?5long@
  00005	e8 00 00 00 00	 call	 ?_Xlength_error@std@@YAXPBD@Z ; std::_Xlength_error
$LN3@Xlength:
  0000a	cc		 int	 3
?_Xlength@?$vector@KV?$allocator@K@std@@@std@@CAXXZ ENDP ; std::vector<unsigned long,std::allocator<unsigned long> >::_Xlength
_TEXT	ENDS
; Function compile flags: /Ogtp
; File C:\Program Files\Microsoft Visual Studio\2022\Professional\VC\Tools\MSVC\14.44.35207\include\vector
; File C:\Program Files\Microsoft Visual Studio\2022\Professional\VC\Tools\MSVC\14.44.35207\include\xmemory
; File C:\Program Files\Microsoft Visual Studio\2022\Professional\VC\Tools\MSVC\14.44.35207\include\vector
; File C:\Program Files\Microsoft Visual Studio\2022\Professional\VC\Tools\MSVC\14.44.35207\include\xmemory
; File C:\Program Files\Microsoft Visual Studio\2022\Professional\VC\Tools\MSVC\14.44.35207\include\vector
; File C:\Program Files\Microsoft Visual Studio\2022\Professional\VC\Tools\MSVC\14.44.35207\include\xmemory
; File C:\Program Files\Microsoft Visual Studio\2022\Professional\VC\Tools\MSVC\14.44.35207\include\vector
;	COMDAT ?_Tidy@?$vector@KV?$allocator@K@std@@@std@@AAEXXZ
_TEXT	SEGMENT
?_Tidy@?$vector@KV?$allocator@K@std@@@std@@AAEXXZ PROC	; std::vector<unsigned long,std::allocator<unsigned long> >::_Tidy, COMDAT
; _this$ = ecx

; 2081 :     _CONSTEXPR20 void _Tidy() noexcept { // free all storage

  00000	56		 push	 esi
  00001	8b f1		 mov	 esi, ecx

; 2082 :         auto& _Al         = _Getal();
; 2083 :         auto& _My_data    = _Mypair._Myval2;
; 2084 :         pointer& _Myfirst = _My_data._Myfirst;
; 2085 :         pointer& _Mylast  = _My_data._Mylast;
; 2086 :         pointer& _Myend   = _My_data._Myend;
; 2087 : 
; 2088 :         _My_data._Orphan_all();
; 2089 : 
; 2090 :         if (_Myfirst) { // destroy and deallocate old array

  00003	8b 06		 mov	 eax, DWORD PTR [esi]
  00005	85 c0		 test	 eax, eax
  00007	74 40		 je	 SHORT $LN2@Tidy

; 2091 :             _STD _Destroy_range(_Myfirst, _Mylast, _Al);
; 2092 :             _ASAN_VECTOR_REMOVE;
; 2093 :             _Al.deallocate(_Myfirst, static_cast<size_type>(_Myend - _Myfirst));

  00009	8b 4e 08	 mov	 ecx, DWORD PTR [esi+8]
  0000c	2b c8		 sub	 ecx, eax
; File C:\Program Files\Microsoft Visual Studio\2022\Professional\VC\Tools\MSVC\14.44.35207\include\xmemory

; 985  :         _STD _Deallocate<_New_alignof<_Ty>>(_Ptr, sizeof(_Ty) * _Count);

  0000e	83 e1 fc	 and	 ecx, -4			; fffffffcH

; 284  :         if (_Bytes >= _Big_allocation_threshold) {

  00011	81 f9 00 10 00
	00		 cmp	 ecx, 4096		; 00001000H
  00017	72 12		 jb	 SHORT $LN15@Tidy

; 205  :     const uintptr_t _Ptr_container   = _Ptr_user[-1];

  00019	8b 50 fc	 mov	 edx, DWORD PTR [eax-4]
  0001c	83 c1 23	 add	 ecx, 35			; 00000023H

; 206  : 
; 207  :     // If the following asserts, it likely means that we are performing
; 208  :     // an aligned delete on memory coming from an unaligned allocation.
; 209  :     _STL_ASSERT(_Ptr_user[-2] == _Big_allocation_sentinel, "invalid argument");
; 210  : 
; 211  :     // Extra paranoia on aligned allocation/deallocation; ensure _Ptr_container is
; 212  :     // in range [_Min_back_shift, _Non_user_size]
; 213  : #ifdef _DEBUG
; 214  :     constexpr uintptr_t _Min_back_shift = 2 * sizeof(void*);
; 215  : #else // ^^^ defined(_DEBUG) / !defined(_DEBUG) vvv
; 216  :     constexpr uintptr_t _Min_back_shift = sizeof(void*);
; 217  : #endif // ^^^ !defined(_DEBUG) ^^^
; 218  :     const uintptr_t _Back_shift = reinterpret_cast<uintptr_t>(_Ptr) - _Ptr_container;

  0001f	2b c2		 sub	 eax, edx

; 219  :     _STL_VERIFY(_Back_shift >= _Min_back_shift && _Back_shift <= _Non_user_size, "invalid argument");

  00021	83 c0 fc	 add	 eax, -4			; fffffffcH
  00024	83 f8 1f	 cmp	 eax, 31			; 0000001fH
  00027	77 22		 ja	 SHORT $LN14@Tidy

; 220  :     _Ptr = reinterpret_cast<void*>(_Ptr_container);

  00029	8b c2		 mov	 eax, edx
$LN15@Tidy:

; 289  :         ::operator delete(_Ptr, _Bytes);

  0002b	51		 push	 ecx
  0002c	50		 push	 eax
  0002d	e8 00 00 00 00	 call	 ??3@YAXPAXI@Z		; operator delete
; File C:\Program Files\Microsoft Visual Studio\2022\Professional\VC\Tools\MSVC\14.44.35207\include\vector

; 2095 :             _Myfirst = nullptr;

  00032	c7 06 00 00 00
	00		 mov	 DWORD PTR [esi], 0
; File C:\Program Files\Microsoft Visual Studio\2022\Professional\VC\Tools\MSVC\14.44.35207\include\xmemory

; 289  :         ::operator delete(_Ptr, _Bytes);

  00038	83 c4 08	 add	 esp, 8
; File C:\Program Files\Microsoft Visual Studio\2022\Professional\VC\Tools\MSVC\14.44.35207\include\vector

; 2096 :             _Mylast  = nullptr;

  0003b	c7 46 04 00 00
	00 00		 mov	 DWORD PTR [esi+4], 0

; 2097 :             _Myend   = nullptr;

  00042	c7 46 08 00 00
	00 00		 mov	 DWORD PTR [esi+8], 0
$LN2@Tidy:

; 2099 :     }

  00049	5e		 pop	 esi
  0004a	c3		 ret	 0
$LN14@Tidy:
; File C:\Program Files\Microsoft Visual Studio\2022\Professional\VC\Tools\MSVC\14.44.35207\include\xmemory

; 219  :     _STL_VERIFY(_Back_shift >= _Min_back_shift && _Back_shift <= _Non_user_size, "invalid argument");

  0004b	6a 00		 push	 0
  0004d	6a 00		 push	 0
  0004f	6a 00		 push	 0
  00051	6a 00		 push	 0
  00053	6a 00		 push	 0
  00055	e8 00 00 00 00	 call	 __invoke_watson
$LN22@Tidy:
  0005a	cc		 int	 3
?_Tidy@?$vector@KV?$allocator@K@std@@@std@@AAEXXZ ENDP	; std::vector<unsigned long,std::allocator<unsigned long> >::_Tidy
_TEXT	ENDS
; Function compile flags: /Ogtp
; File C:\Program Files\Microsoft Visual Studio\2022\Professional\VC\Tools\MSVC\14.44.35207\include\vector
;	COMDAT ??1?$vector@KV?$allocator@K@std@@@std@@QAE@XZ
_TEXT	SEGMENT
??1?$vector@KV?$allocator@K@std@@@std@@QAE@XZ PROC	; std::vector<unsigned long,std::allocator<unsigned long> >::~vector<unsigned long,std::allocator<unsigned long> >, COMDAT
; _this$ = ecx

; 830  :         _Tidy();

  00000	e9 00 00 00 00	 jmp	 ?_Tidy@?$vector@KV?$allocator@K@std@@@std@@AAEXXZ ; std::vector<unsigned long,std::allocator<unsigned long> >::_Tidy
??1?$vector@KV?$allocator@K@std@@@std@@QAE@XZ ENDP	; std::vector<unsigned long,std::allocator<unsigned long> >::~vector<unsigned long,std::allocator<unsigned long> >
_TEXT	ENDS
; Function compile flags: /Ogtp
;	COMDAT ??1?$map@HU__FIVESYSTEM@CMiniGame@@U?$less@H@std@@V?$allocator@U?$pair@$$CBHU__FIVESYSTEM@CMiniGame@@@std@@@4@@std@@QAE@XZ
_TEXT	SEGMENT
??1?$map@HU__FIVESYSTEM@CMiniGame@@U?$less@H@std@@V?$allocator@U?$pair@$$CBHU__FIVESYSTEM@CMiniGame@@@std@@@4@@std@@QAE@XZ PROC ; std::map<int,CMiniGame::__FIVESYSTEM,std::less<int>,std::allocator<std::pair<int const ,CMiniGame::__FIVESYSTEM> > >::~map<int,CMiniGame::__FIVESYSTEM,std::less<int>,std::allocator<std::pair<int const ,CMiniGame::__FIVESYSTEM> > >, COMDAT
; _this$ = ecx
  00000	e9 00 00 00 00	 jmp	 ??1?$_Tree@V?$_Tmap_traits@HU__FIVESYSTEM@CMiniGame@@U?$less@H@std@@V?$allocator@U?$pair@$$CBHU__FIVESYSTEM@CMiniGame@@@std@@@4@$0A@@std@@@std@@QAE@XZ ; std::_Tree<std::_Tmap_traits<int,CMiniGame::__FIVESYSTEM,std::less<int>,std::allocator<std::pair<int const ,CMiniGame::__FIVESYSTEM> >,0> >::~_Tree<std::_Tmap_traits<int,CMiniGame::__FIVESYSTEM,std::less<int>,std::allocator<std::pair<int const ,CMiniGame::__FIVESYSTEM> >,0> >
??1?$map@HU__FIVESYSTEM@CMiniGame@@U?$less@H@std@@V?$allocator@U?$pair@$$CBHU__FIVESYSTEM@CMiniGame@@@std@@@4@@std@@QAE@XZ ENDP ; std::map<int,CMiniGame::__FIVESYSTEM,std::less<int>,std::allocator<std::pair<int const ,CMiniGame::__FIVESYSTEM> > >::~map<int,CMiniGame::__FIVESYSTEM,std::less<int>,std::allocator<std::pair<int const ,CMiniGame::__FIVESYSTEM> > >
_TEXT	ENDS
; Function compile flags: /Ogtp
; File C:\Program Files\Microsoft Visual Studio\2022\Professional\VC\Tools\MSVC\14.44.35207\include\xtree
;	COMDAT ?_Insert_node@?$_Tree_val@U?$_Tree_simple_types@U?$pair@$$CBHU__FIVESYSTEM@CMiniGame@@@std@@@std@@@std@@QAEPAU?$_Tree_node@U?$pair@$$CBHU__FIVESYSTEM@CMiniGame@@@std@@PAX@2@U?$_Tree_id@PAU?$_Tree_node@U?$pair@$$CBHU__FIVESYSTEM@CMiniGame@@@std@@PAX@std@@@2@QAU32@@Z
_TEXT	SEGMENT
__Head$1$ = -4						; size = 4
__Loc$ = 8						; size = 8
__Newnode$ = 16						; size = 4
?_Insert_node@?$_Tree_val@U?$_Tree_simple_types@U?$pair@$$CBHU__FIVESYSTEM@CMiniGame@@@std@@@std@@@std@@QAEPAU?$_Tree_node@U?$pair@$$CBHU__FIVESYSTEM@CMiniGame@@@std@@PAX@2@U?$_Tree_id@PAU?$_Tree_node@U?$pair@$$CBHU__FIVESYSTEM@CMiniGame@@@std@@PAX@std@@@2@QAU32@@Z PROC ; std::_Tree_val<std::_Tree_simple_types<std::pair<int const ,CMiniGame::__FIVESYSTEM> > >::_Insert_node, COMDAT
; _this$ = ecx

; 669  :     _Nodeptr _Insert_node(const _Tree_id<_Nodeptr> _Loc, const _Nodeptr _Newnode) noexcept {

  00000	55		 push	 ebp
  00001	8b ec		 mov	 ebp, esp
  00003	51		 push	 ecx

; 670  :         ++_Mysize;
; 671  :         const auto _Head  = _Myhead;
; 672  :         _Newnode->_Parent = _Loc._Parent;

  00004	8b 55 08	 mov	 edx, DWORD PTR __Loc$[ebp]
  00007	53		 push	 ebx
  00008	8b d9		 mov	 ebx, ecx
  0000a	57		 push	 edi
  0000b	8b 7d 10	 mov	 edi, DWORD PTR __Newnode$[ebp]
  0000e	8b 03		 mov	 eax, DWORD PTR [ebx]
  00010	ff 43 04	 inc	 DWORD PTR [ebx+4]
  00013	89 45 fc	 mov	 DWORD PTR __Head$1$[ebp], eax
  00016	89 57 04	 mov	 DWORD PTR [edi+4], edx

; 673  :         if (_Loc._Parent == _Head) { // first node in tree, just set head values

  00019	3b d0		 cmp	 edx, eax
  0001b	75 16		 jne	 SHORT $LN5@Insert_nod

; 674  :             _Head->_Left     = _Newnode;

  0001d	89 38		 mov	 DWORD PTR [eax], edi

; 675  :             _Head->_Parent   = _Newnode;

  0001f	89 78 04	 mov	 DWORD PTR [eax+4], edi

; 676  :             _Head->_Right    = _Newnode;

  00022	89 78 08	 mov	 DWORD PTR [eax+8], edi

; 735  :         return _Newnode;
; 736  :     }

  00025	8b c7		 mov	 eax, edi
  00027	c6 47 0c 01	 mov	 BYTE PTR [edi+12], 1
  0002b	5f		 pop	 edi
  0002c	5b		 pop	 ebx
  0002d	8b e5		 mov	 esp, ebp
  0002f	5d		 pop	 ebp
  00030	c2 0c 00	 ret	 12			; 0000000cH
$LN5@Insert_nod:

; 677  :             _Newnode->_Color = _Black; // the root is black
; 678  :             return _Newnode;
; 679  :         }
; 680  : 
; 681  :         _STL_INTERNAL_CHECK(_Loc._Child != _Tree_child::_Unused);
; 682  :         if (_Loc._Child == _Tree_child::_Right) { // add to right of _Loc._Parent

  00033	83 7d 0c 00	 cmp	 DWORD PTR __Loc$[ebp+4], 0
  00037	75 0d		 jne	 SHORT $LN6@Insert_nod

; 683  :             _STL_INTERNAL_CHECK(_Loc._Parent->_Right->_Isnil);
; 684  :             _Loc._Parent->_Right = _Newnode;

  00039	89 7a 08	 mov	 DWORD PTR [edx+8], edi

; 685  :             if (_Loc._Parent == _Head->_Right) { // remember rightmost node

  0003c	3b 50 08	 cmp	 edx, DWORD PTR [eax+8]
  0003f	75 0d		 jne	 SHORT $LN9@Insert_nod

; 686  :                 _Head->_Right = _Newnode;

  00041	89 78 08	 mov	 DWORD PTR [eax+8], edi

; 687  :             }
; 688  :         } else { // add to left of _Loc._Parent

  00044	eb 08		 jmp	 SHORT $LN9@Insert_nod
$LN6@Insert_nod:

; 689  :             _STL_INTERNAL_CHECK(_Loc._Parent->_Left->_Isnil);
; 690  :             _Loc._Parent->_Left = _Newnode;

  00046	89 3a		 mov	 DWORD PTR [edx], edi

; 691  :             if (_Loc._Parent == _Head->_Left) { // remember leftmost node

  00048	3b 10		 cmp	 edx, DWORD PTR [eax]
  0004a	75 02		 jne	 SHORT $LN9@Insert_nod

; 692  :                 _Head->_Left = _Newnode;

  0004c	89 38		 mov	 DWORD PTR [eax], edi
$LN9@Insert_nod:

; 693  :             }
; 694  :         }
; 695  : 
; 696  :         for (_Nodeptr _Pnode = _Newnode; _Pnode->_Parent->_Color == _Red;) {

  0004e	8b 4f 04	 mov	 ecx, DWORD PTR [edi+4]
  00051	8b c7		 mov	 eax, edi
  00053	80 79 0c 00	 cmp	 BYTE PTR [ecx+12], 0
  00057	0f 85 7d 01 00
	00		 jne	 $LN3@Insert_nod
  0005d	56		 push	 esi
  0005e	66 90		 npad	 2
$LL4@Insert_nod:

; 697  :             if (_Pnode->_Parent == _Pnode->_Parent->_Parent->_Left) { // fixup red-red in left subtree

  00060	8b 50 04	 mov	 edx, DWORD PTR [eax+4]
  00063	8b 72 04	 mov	 esi, DWORD PTR [edx+4]
  00066	8b 0e		 mov	 ecx, DWORD PTR [esi]
  00068	3b d1		 cmp	 edx, ecx
  0006a	0f 85 aa 00 00
	00		 jne	 $LN10@Insert_nod

; 698  :                 const auto _Parent_sibling = _Pnode->_Parent->_Parent->_Right;

  00070	8b 4e 08	 mov	 ecx, DWORD PTR [esi+8]

; 699  :                 if (_Parent_sibling->_Color == _Red) { // parent's sibling has two red children, blacken both

  00073	80 79 0c 00	 cmp	 BYTE PTR [ecx+12], 0
  00077	0f 84 a3 00 00
	00		 je	 $LN82@Insert_nod

; 700  :                     _Pnode->_Parent->_Color          = _Black;
; 701  :                     _Parent_sibling->_Color          = _Black;
; 702  :                     _Pnode->_Parent->_Parent->_Color = _Red;
; 703  :                     _Pnode                           = _Pnode->_Parent->_Parent;
; 704  :                 } else { // parent's sibling has red and black children
; 705  :                     if (_Pnode == _Pnode->_Parent->_Right) { // rotate right child to left

  0007d	8b 72 08	 mov	 esi, DWORD PTR [edx+8]
  00080	3b c6		 cmp	 eax, esi
  00082	75 37		 jne	 SHORT $LN57@Insert_nod

; 485  :         _Wherenode->_Right = _Pnode->_Left;

  00084	8b 0e		 mov	 ecx, DWORD PTR [esi]

; 706  :                         _Pnode = _Pnode->_Parent;

  00086	8b c2		 mov	 eax, edx

; 485  :         _Wherenode->_Right = _Pnode->_Left;

  00088	89 4a 08	 mov	 DWORD PTR [edx+8], ecx

; 486  : 
; 487  :         if (!_Pnode->_Left->_Isnil) {

  0008b	8b 0e		 mov	 ecx, DWORD PTR [esi]
  0008d	80 79 0d 00	 cmp	 BYTE PTR [ecx+13], 0
  00091	75 03		 jne	 SHORT $LN21@Insert_nod

; 488  :             _Pnode->_Left->_Parent = _Wherenode;

  00093	89 41 04	 mov	 DWORD PTR [ecx+4], eax
$LN21@Insert_nod:

; 489  :         }
; 490  : 
; 491  :         _Pnode->_Parent = _Wherenode->_Parent;

  00096	8b 4a 04	 mov	 ecx, DWORD PTR [edx+4]
  00099	89 4e 04	 mov	 DWORD PTR [esi+4], ecx

; 492  : 
; 493  :         if (_Wherenode == _Myhead->_Parent) {

  0009c	8b 0b		 mov	 ecx, DWORD PTR [ebx]
  0009e	3b 41 04	 cmp	 eax, DWORD PTR [ecx+4]
  000a1	75 05		 jne	 SHORT $LN22@Insert_nod

; 494  :             _Myhead->_Parent = _Pnode;

  000a3	89 71 04	 mov	 DWORD PTR [ecx+4], esi
  000a6	eb 0e		 jmp	 SHORT $LN25@Insert_nod
$LN22@Insert_nod:

; 495  :         } else if (_Wherenode == _Wherenode->_Parent->_Left) {

  000a8	8b 4a 04	 mov	 ecx, DWORD PTR [edx+4]
  000ab	3b 01		 cmp	 eax, DWORD PTR [ecx]
  000ad	75 04		 jne	 SHORT $LN24@Insert_nod

; 496  :             _Wherenode->_Parent->_Left = _Pnode;

  000af	89 31		 mov	 DWORD PTR [ecx], esi

; 497  :         } else {

  000b1	eb 03		 jmp	 SHORT $LN25@Insert_nod
$LN24@Insert_nod:

; 498  :             _Wherenode->_Parent->_Right = _Pnode;

  000b3	89 71 08	 mov	 DWORD PTR [ecx+8], esi
$LN25@Insert_nod:

; 499  :         }
; 500  : 
; 501  :         _Pnode->_Left       = _Wherenode;

  000b6	89 06		 mov	 DWORD PTR [esi], eax

; 502  :         _Wherenode->_Parent = _Pnode;

  000b8	89 70 04	 mov	 DWORD PTR [eax+4], esi
$LN57@Insert_nod:

; 707  :                         _Lrotate(_Pnode);
; 708  :                     }
; 709  : 
; 710  :                     _Pnode->_Parent->_Color          = _Black; // propagate red up

  000bb	8b 48 04	 mov	 ecx, DWORD PTR [eax+4]
  000be	c6 41 0c 01	 mov	 BYTE PTR [ecx+12], 1

; 711  :                     _Pnode->_Parent->_Parent->_Color = _Red;

  000c2	8b 48 04	 mov	 ecx, DWORD PTR [eax+4]
  000c5	8b 49 04	 mov	 ecx, DWORD PTR [ecx+4]
  000c8	c6 41 0c 00	 mov	 BYTE PTR [ecx+12], 0

; 712  :                     _Rrotate(_Pnode->_Parent->_Parent);

  000cc	8b 48 04	 mov	 ecx, DWORD PTR [eax+4]
  000cf	8b 51 04	 mov	 edx, DWORD PTR [ecx+4]

; 506  :         _Nodeptr _Pnode   = _Wherenode->_Left;

  000d2	8b 32		 mov	 esi, DWORD PTR [edx]

; 507  :         _Wherenode->_Left = _Pnode->_Right;

  000d4	8b 4e 08	 mov	 ecx, DWORD PTR [esi+8]
  000d7	89 0a		 mov	 DWORD PTR [edx], ecx

; 508  : 
; 509  :         if (!_Pnode->_Right->_Isnil) {

  000d9	8b 4e 08	 mov	 ecx, DWORD PTR [esi+8]
  000dc	80 79 0d 00	 cmp	 BYTE PTR [ecx+13], 0
  000e0	75 03		 jne	 SHORT $LN29@Insert_nod

; 510  :             _Pnode->_Right->_Parent = _Wherenode;

  000e2	89 51 04	 mov	 DWORD PTR [ecx+4], edx
$LN29@Insert_nod:

; 511  :         }
; 512  : 
; 513  :         _Pnode->_Parent = _Wherenode->_Parent;

  000e5	8b 4a 04	 mov	 ecx, DWORD PTR [edx+4]
  000e8	89 4e 04	 mov	 DWORD PTR [esi+4], ecx

; 514  : 
; 515  :         if (_Wherenode == _Myhead->_Parent) {

  000eb	8b 0b		 mov	 ecx, DWORD PTR [ebx]
  000ed	3b 51 04	 cmp	 edx, DWORD PTR [ecx+4]
  000f0	75 0b		 jne	 SHORT $LN30@Insert_nod

; 516  :             _Myhead->_Parent = _Pnode;

  000f2	89 71 04	 mov	 DWORD PTR [ecx+4], esi

; 521  :         }
; 522  : 
; 523  :         _Pnode->_Right      = _Wherenode;

  000f5	89 56 08	 mov	 DWORD PTR [esi+8], edx

; 713  :                 }
; 714  :             } else { // fixup red-red in right subtree

  000f8	e9 cc 00 00 00	 jmp	 $LN81@Insert_nod
$LN30@Insert_nod:

; 517  :         } else if (_Wherenode == _Wherenode->_Parent->_Right) {

  000fd	8b 4a 04	 mov	 ecx, DWORD PTR [edx+4]
  00100	3b 51 08	 cmp	 edx, DWORD PTR [ecx+8]
  00103	75 0b		 jne	 SHORT $LN32@Insert_nod

; 518  :             _Wherenode->_Parent->_Right = _Pnode;

  00105	89 71 08	 mov	 DWORD PTR [ecx+8], esi

; 521  :         }
; 522  : 
; 523  :         _Pnode->_Right      = _Wherenode;

  00108	89 56 08	 mov	 DWORD PTR [esi+8], edx

; 713  :                 }
; 714  :             } else { // fixup red-red in right subtree

  0010b	e9 b9 00 00 00	 jmp	 $LN81@Insert_nod
$LN32@Insert_nod:

; 520  :             _Wherenode->_Parent->_Left = _Pnode;

  00110	89 31		 mov	 DWORD PTR [ecx], esi

; 521  :         }
; 522  : 
; 523  :         _Pnode->_Right      = _Wherenode;

  00112	89 56 08	 mov	 DWORD PTR [esi+8], edx

; 713  :                 }
; 714  :             } else { // fixup red-red in right subtree

  00115	e9 af 00 00 00	 jmp	 $LN81@Insert_nod
$LN10@Insert_nod:

; 715  :                 const auto _Parent_sibling = _Pnode->_Parent->_Parent->_Left;
; 716  :                 if (_Parent_sibling->_Color == _Red) { // parent's sibling has two red children, blacken both

  0011a	80 79 0c 00	 cmp	 BYTE PTR [ecx+12], 0
  0011e	75 1d		 jne	 SHORT $LN15@Insert_nod
$LN82@Insert_nod:

; 693  :             }
; 694  :         }
; 695  : 
; 696  :         for (_Nodeptr _Pnode = _Newnode; _Pnode->_Parent->_Color == _Red;) {

  00120	c6 42 0c 01	 mov	 BYTE PTR [edx+12], 1
  00124	c6 41 0c 01	 mov	 BYTE PTR [ecx+12], 1
  00128	8b 48 04	 mov	 ecx, DWORD PTR [eax+4]
  0012b	8b 49 04	 mov	 ecx, DWORD PTR [ecx+4]
  0012e	c6 41 0c 00	 mov	 BYTE PTR [ecx+12], 0
  00132	8b 48 04	 mov	 ecx, DWORD PTR [eax+4]
  00135	8b 41 04	 mov	 eax, DWORD PTR [ecx+4]
  00138	e9 8f 00 00 00	 jmp	 $LN2@Insert_nod
$LN15@Insert_nod:

; 717  :                     _Pnode->_Parent->_Color          = _Black;
; 718  :                     _Parent_sibling->_Color          = _Black;
; 719  :                     _Pnode->_Parent->_Parent->_Color = _Red;
; 720  :                     _Pnode                           = _Pnode->_Parent->_Parent;
; 721  :                 } else { // parent's sibling has red and black children
; 722  :                     if (_Pnode == _Pnode->_Parent->_Left) { // rotate left child to right

  0013d	8b 32		 mov	 esi, DWORD PTR [edx]
  0013f	3b c6		 cmp	 eax, esi
  00141	75 3a		 jne	 SHORT $LN42@Insert_nod

; 507  :         _Wherenode->_Left = _Pnode->_Right;

  00143	8b 4e 08	 mov	 ecx, DWORD PTR [esi+8]

; 723  :                         _Pnode = _Pnode->_Parent;

  00146	8b c2		 mov	 eax, edx

; 507  :         _Wherenode->_Left = _Pnode->_Right;

  00148	89 08		 mov	 DWORD PTR [eax], ecx

; 508  : 
; 509  :         if (!_Pnode->_Right->_Isnil) {

  0014a	8b 4e 08	 mov	 ecx, DWORD PTR [esi+8]
  0014d	80 79 0d 00	 cmp	 BYTE PTR [ecx+13], 0
  00151	75 03		 jne	 SHORT $LN37@Insert_nod

; 510  :             _Pnode->_Right->_Parent = _Wherenode;

  00153	89 41 04	 mov	 DWORD PTR [ecx+4], eax
$LN37@Insert_nod:

; 511  :         }
; 512  : 
; 513  :         _Pnode->_Parent = _Wherenode->_Parent;

  00156	8b 4a 04	 mov	 ecx, DWORD PTR [edx+4]
  00159	89 4e 04	 mov	 DWORD PTR [esi+4], ecx

; 514  : 
; 515  :         if (_Wherenode == _Myhead->_Parent) {

  0015c	8b 0b		 mov	 ecx, DWORD PTR [ebx]
  0015e	3b 41 04	 cmp	 eax, DWORD PTR [ecx+4]
  00161	75 05		 jne	 SHORT $LN38@Insert_nod

; 516  :             _Myhead->_Parent = _Pnode;

  00163	89 71 04	 mov	 DWORD PTR [ecx+4], esi
  00166	eb 0f		 jmp	 SHORT $LN41@Insert_nod
$LN38@Insert_nod:

; 517  :         } else if (_Wherenode == _Wherenode->_Parent->_Right) {

  00168	8b 4a 04	 mov	 ecx, DWORD PTR [edx+4]
  0016b	3b 41 08	 cmp	 eax, DWORD PTR [ecx+8]
  0016e	75 05		 jne	 SHORT $LN40@Insert_nod

; 518  :             _Wherenode->_Parent->_Right = _Pnode;

  00170	89 71 08	 mov	 DWORD PTR [ecx+8], esi

; 519  :         } else {

  00173	eb 02		 jmp	 SHORT $LN41@Insert_nod
$LN40@Insert_nod:

; 520  :             _Wherenode->_Parent->_Left = _Pnode;

  00175	89 31		 mov	 DWORD PTR [ecx], esi
$LN41@Insert_nod:

; 521  :         }
; 522  : 
; 523  :         _Pnode->_Right      = _Wherenode;

  00177	89 46 08	 mov	 DWORD PTR [esi+8], eax

; 524  :         _Wherenode->_Parent = _Pnode;

  0017a	89 70 04	 mov	 DWORD PTR [eax+4], esi
$LN42@Insert_nod:

; 724  :                         _Rrotate(_Pnode);
; 725  :                     }
; 726  : 
; 727  :                     _Pnode->_Parent->_Color          = _Black; // propagate red up

  0017d	8b 48 04	 mov	 ecx, DWORD PTR [eax+4]
  00180	c6 41 0c 01	 mov	 BYTE PTR [ecx+12], 1

; 728  :                     _Pnode->_Parent->_Parent->_Color = _Red;

  00184	8b 48 04	 mov	 ecx, DWORD PTR [eax+4]
  00187	8b 49 04	 mov	 ecx, DWORD PTR [ecx+4]
  0018a	c6 41 0c 00	 mov	 BYTE PTR [ecx+12], 0

; 729  :                     _Lrotate(_Pnode->_Parent->_Parent);

  0018e	8b 48 04	 mov	 ecx, DWORD PTR [eax+4]
  00191	8b 51 04	 mov	 edx, DWORD PTR [ecx+4]

; 484  :         _Nodeptr _Pnode    = _Wherenode->_Right;

  00194	8b 72 08	 mov	 esi, DWORD PTR [edx+8]

; 485  :         _Wherenode->_Right = _Pnode->_Left;

  00197	8b 0e		 mov	 ecx, DWORD PTR [esi]
  00199	89 4a 08	 mov	 DWORD PTR [edx+8], ecx

; 486  : 
; 487  :         if (!_Pnode->_Left->_Isnil) {

  0019c	8b 0e		 mov	 ecx, DWORD PTR [esi]
  0019e	80 79 0d 00	 cmp	 BYTE PTR [ecx+13], 0
  001a2	75 03		 jne	 SHORT $LN45@Insert_nod

; 488  :             _Pnode->_Left->_Parent = _Wherenode;

  001a4	89 51 04	 mov	 DWORD PTR [ecx+4], edx
$LN45@Insert_nod:

; 489  :         }
; 490  : 
; 491  :         _Pnode->_Parent = _Wherenode->_Parent;

  001a7	8b 4a 04	 mov	 ecx, DWORD PTR [edx+4]
  001aa	89 4e 04	 mov	 DWORD PTR [esi+4], ecx

; 492  : 
; 493  :         if (_Wherenode == _Myhead->_Parent) {

  001ad	8b 0b		 mov	 ecx, DWORD PTR [ebx]
  001af	3b 51 04	 cmp	 edx, DWORD PTR [ecx+4]
  001b2	75 05		 jne	 SHORT $LN46@Insert_nod

; 494  :             _Myhead->_Parent = _Pnode;

  001b4	89 71 04	 mov	 DWORD PTR [ecx+4], esi
  001b7	eb 0e		 jmp	 SHORT $LN49@Insert_nod
$LN46@Insert_nod:

; 495  :         } else if (_Wherenode == _Wherenode->_Parent->_Left) {

  001b9	8b 4a 04	 mov	 ecx, DWORD PTR [edx+4]
  001bc	3b 11		 cmp	 edx, DWORD PTR [ecx]
  001be	75 04		 jne	 SHORT $LN48@Insert_nod

; 496  :             _Wherenode->_Parent->_Left = _Pnode;

  001c0	89 31		 mov	 DWORD PTR [ecx], esi

; 497  :         } else {

  001c2	eb 03		 jmp	 SHORT $LN49@Insert_nod
$LN48@Insert_nod:

; 498  :             _Wherenode->_Parent->_Right = _Pnode;

  001c4	89 71 08	 mov	 DWORD PTR [ecx+8], esi
$LN49@Insert_nod:

; 499  :         }
; 500  : 
; 501  :         _Pnode->_Left       = _Wherenode;

  001c7	89 16		 mov	 DWORD PTR [esi], edx
$LN81@Insert_nod:

; 693  :             }
; 694  :         }
; 695  : 
; 696  :         for (_Nodeptr _Pnode = _Newnode; _Pnode->_Parent->_Color == _Red;) {

  001c9	89 72 04	 mov	 DWORD PTR [edx+4], esi
$LN2@Insert_nod:
  001cc	8b 48 04	 mov	 ecx, DWORD PTR [eax+4]
  001cf	80 79 0c 00	 cmp	 BYTE PTR [ecx+12], 0
  001d3	0f 84 87 fe ff
	ff		 je	 $LL4@Insert_nod
  001d9	5e		 pop	 esi
$LN3@Insert_nod:

; 730  :                 }
; 731  :             }
; 732  :         }
; 733  : 
; 734  :         _Head->_Parent->_Color = _Black; // root is always black

  001da	8b 45 fc	 mov	 eax, DWORD PTR __Head$1$[ebp]
  001dd	8b 40 04	 mov	 eax, DWORD PTR [eax+4]
  001e0	c6 40 0c 01	 mov	 BYTE PTR [eax+12], 1

; 735  :         return _Newnode;
; 736  :     }

  001e4	8b c7		 mov	 eax, edi
  001e6	5f		 pop	 edi
  001e7	5b		 pop	 ebx
  001e8	8b e5		 mov	 esp, ebp
  001ea	5d		 pop	 ebp
  001eb	c2 0c 00	 ret	 12			; 0000000cH
?_Insert_node@?$_Tree_val@U?$_Tree_simple_types@U?$pair@$$CBHU__FIVESYSTEM@CMiniGame@@@std@@@std@@@std@@QAEPAU?$_Tree_node@U?$pair@$$CBHU__FIVESYSTEM@CMiniGame@@@std@@PAX@2@U?$_Tree_id@PAU?$_Tree_node@U?$pair@$$CBHU__FIVESYSTEM@CMiniGame@@@std@@PAX@std@@@2@QAU32@@Z ENDP ; std::_Tree_val<std::_Tree_simple_types<std::pair<int const ,CMiniGame::__FIVESYSTEM> > >::_Insert_node
_TEXT	ENDS
; Function compile flags: /Ogtp
; File C:\Program Files\Microsoft Visual Studio\2022\Professional\VC\Tools\MSVC\14.44.35207\include\xtree
; File C:\Program Files\Microsoft Visual Studio\2022\Professional\VC\Tools\MSVC\14.44.35207\include\utility
; File C:\Program Files\Microsoft Visual Studio\2022\Professional\VC\Tools\MSVC\14.44.35207\include\xmemory
; File C:\Program Files\Microsoft Visual Studio\2022\Professional\VC\Tools\MSVC\14.44.35207\include\xtree
; File C:\Program Files\Microsoft Visual Studio\2022\Professional\VC\Tools\MSVC\14.44.35207\include\xmemory
; File C:\Program Files\Microsoft Visual Studio\2022\Professional\VC\Tools\MSVC\14.44.35207\include\xtree
;	COMDAT ??1?$_Tree@V?$_Tmap_traits@HU__FIVESYSTEM@CMiniGame@@U?$less@H@std@@V?$allocator@U?$pair@$$CBHU__FIVESYSTEM@CMiniGame@@@std@@@4@$0A@@std@@@std@@QAE@XZ
_TEXT	SEGMENT
??1?$_Tree@V?$_Tmap_traits@HU__FIVESYSTEM@CMiniGame@@U?$less@H@std@@V?$allocator@U?$pair@$$CBHU__FIVESYSTEM@CMiniGame@@@std@@@4@$0A@@std@@@std@@QAE@XZ PROC ; std::_Tree<std::_Tmap_traits<int,CMiniGame::__FIVESYSTEM,std::less<int>,std::allocator<std::pair<int const ,CMiniGame::__FIVESYSTEM> >,0> >::~_Tree<std::_Tmap_traits<int,CMiniGame::__FIVESYSTEM,std::less<int>,std::allocator<std::pair<int const ,CMiniGame::__FIVESYSTEM> >,0> >, COMDAT
; _this$ = ecx

; 1095 :     ~_Tree() noexcept {

  00000	56		 push	 esi
  00001	57		 push	 edi
  00002	8b f9		 mov	 edi, ecx

; 777  :         _Erase_tree(_Al, _Myhead->_Parent);

  00004	8b 37		 mov	 esi, DWORD PTR [edi]
  00006	8b 76 04	 mov	 esi, DWORD PTR [esi+4]

; 768  :         while (!_Rootnode->_Isnil) { // free subtrees, then node

  00009	80 7e 0d 00	 cmp	 BYTE PTR [esi+13], 0
  0000d	75 21		 jne	 SHORT $LN61@Tree
  0000f	90		 npad	 1
$LL8@Tree:

; 769  :             _Erase_tree(_Al, _Rootnode->_Right);

  00010	ff 76 08	 push	 DWORD PTR [esi+8]
  00013	8b cf		 mov	 ecx, edi
  00015	57		 push	 edi
  00016	e8 00 00 00 00	 call	 ??$_Erase_tree@V?$allocator@U?$_Tree_node@U?$pair@$$CBHU__FIVESYSTEM@CMiniGame@@@std@@PAX@std@@@std@@@?$_Tree_val@U?$_Tree_simple_types@U?$pair@$$CBHU__FIVESYSTEM@CMiniGame@@@std@@@std@@@std@@QAEXAAV?$allocator@U?$_Tree_node@U?$pair@$$CBHU__FIVESYSTEM@CMiniGame@@@std@@PAX@std@@@1@PAU?$_Tree_node@U?$pair@$$CBHU__FIVESYSTEM@CMiniGame@@@std@@PAX@1@@Z ; std::_Tree_val<std::_Tree_simple_types<std::pair<int const ,CMiniGame::__FIVESYSTEM> > >::_Erase_tree<std::allocator<std::_Tree_node<std::pair<int const ,CMiniGame::__FIVESYSTEM>,void *> > >
; File C:\Program Files\Microsoft Visual Studio\2022\Professional\VC\Tools\MSVC\14.44.35207\include\utility

; 773  :     _Ty _Old_val = static_cast<_Ty&&>(_Val);

  0001b	8b c6		 mov	 eax, esi

; 774  :     _Val         = static_cast<_Other&&>(_New_val);

  0001d	8b 36		 mov	 esi, DWORD PTR [esi]
; File C:\Program Files\Microsoft Visual Studio\2022\Professional\VC\Tools\MSVC\14.44.35207\include\xmemory

; 289  :         ::operator delete(_Ptr, _Bytes);

  0001f	6a 1c		 push	 28			; 0000001cH
  00021	50		 push	 eax
  00022	e8 00 00 00 00	 call	 ??3@YAXPAXI@Z		; operator delete
  00027	83 c4 08	 add	 esp, 8
; File C:\Program Files\Microsoft Visual Studio\2022\Professional\VC\Tools\MSVC\14.44.35207\include\xtree

; 768  :         while (!_Rootnode->_Isnil) { // free subtrees, then node

  0002a	80 7e 0d 00	 cmp	 BYTE PTR [esi+13], 0
  0002e	74 e0		 je	 SHORT $LL8@Tree
$LN61@Tree:
; File C:\Program Files\Microsoft Visual Studio\2022\Professional\VC\Tools\MSVC\14.44.35207\include\xmemory

; 289  :         ::operator delete(_Ptr, _Bytes);

  00030	6a 1c		 push	 28			; 0000001cH
  00032	ff 37		 push	 DWORD PTR [edi]
  00034	e8 00 00 00 00	 call	 ??3@YAXPAXI@Z		; operator delete
  00039	83 c4 08	 add	 esp, 8
  0003c	5f		 pop	 edi
  0003d	5e		 pop	 esi
; File C:\Program Files\Microsoft Visual Studio\2022\Professional\VC\Tools\MSVC\14.44.35207\include\xtree

; 1102 :     }

  0003e	c3		 ret	 0
??1?$_Tree@V?$_Tmap_traits@HU__FIVESYSTEM@CMiniGame@@U?$less@H@std@@V?$allocator@U?$pair@$$CBHU__FIVESYSTEM@CMiniGame@@@std@@@4@$0A@@std@@@std@@QAE@XZ ENDP ; std::_Tree<std::_Tmap_traits<int,CMiniGame::__FIVESYSTEM,std::less<int>,std::allocator<std::pair<int const ,CMiniGame::__FIVESYSTEM> >,0> >::~_Tree<std::_Tmap_traits<int,CMiniGame::__FIVESYSTEM,std::less<int>,std::allocator<std::pair<int const ,CMiniGame::__FIVESYSTEM> >,0> >
_TEXT	ENDS
; Function compile flags: /Ogtp
;	COMDAT ??1?$map@HU__KAWIBAWIBO@CMiniGame@@U?$less@H@std@@V?$allocator@U?$pair@$$CBHU__KAWIBAWIBO@CMiniGame@@@std@@@4@@std@@QAE@XZ
_TEXT	SEGMENT
??1?$map@HU__KAWIBAWIBO@CMiniGame@@U?$less@H@std@@V?$allocator@U?$pair@$$CBHU__KAWIBAWIBO@CMiniGame@@@std@@@4@@std@@QAE@XZ PROC ; std::map<int,CMiniGame::__KAWIBAWIBO,std::less<int>,std::allocator<std::pair<int const ,CMiniGame::__KAWIBAWIBO> > >::~map<int,CMiniGame::__KAWIBAWIBO,std::less<int>,std::allocator<std::pair<int const ,CMiniGame::__KAWIBAWIBO> > >, COMDAT
; _this$ = ecx
  00000	e9 00 00 00 00	 jmp	 ??1?$_Tree@V?$_Tmap_traits@HU__KAWIBAWIBO@CMiniGame@@U?$less@H@std@@V?$allocator@U?$pair@$$CBHU__KAWIBAWIBO@CMiniGame@@@std@@@4@$0A@@std@@@std@@QAE@XZ ; std::_Tree<std::_Tmap_traits<int,CMiniGame::__KAWIBAWIBO,std::less<int>,std::allocator<std::pair<int const ,CMiniGame::__KAWIBAWIBO> >,0> >::~_Tree<std::_Tmap_traits<int,CMiniGame::__KAWIBAWIBO,std::less<int>,std::allocator<std::pair<int const ,CMiniGame::__KAWIBAWIBO> >,0> >
??1?$map@HU__KAWIBAWIBO@CMiniGame@@U?$less@H@std@@V?$allocator@U?$pair@$$CBHU__KAWIBAWIBO@CMiniGame@@@std@@@4@@std@@QAE@XZ ENDP ; std::map<int,CMiniGame::__KAWIBAWIBO,std::less<int>,std::allocator<std::pair<int const ,CMiniGame::__KAWIBAWIBO> > >::~map<int,CMiniGame::__KAWIBAWIBO,std::less<int>,std::allocator<std::pair<int const ,CMiniGame::__KAWIBAWIBO> > >
_TEXT	ENDS
; Function compile flags: /Ogtp
; File C:\Program Files\Microsoft Visual Studio\2022\Professional\VC\Tools\MSVC\14.44.35207\include\xtree
;	COMDAT ?_Insert_node@?$_Tree_val@U?$_Tree_simple_types@U?$pair@$$CBHU__KAWIBAWIBO@CMiniGame@@@std@@@std@@@std@@QAEPAU?$_Tree_node@U?$pair@$$CBHU__KAWIBAWIBO@CMiniGame@@@std@@PAX@2@U?$_Tree_id@PAU?$_Tree_node@U?$pair@$$CBHU__KAWIBAWIBO@CMiniGame@@@std@@PAX@std@@@2@QAU32@@Z
_TEXT	SEGMENT
__Head$1$ = -4						; size = 4
__Loc$ = 8						; size = 8
__Newnode$ = 16						; size = 4
?_Insert_node@?$_Tree_val@U?$_Tree_simple_types@U?$pair@$$CBHU__KAWIBAWIBO@CMiniGame@@@std@@@std@@@std@@QAEPAU?$_Tree_node@U?$pair@$$CBHU__KAWIBAWIBO@CMiniGame@@@std@@PAX@2@U?$_Tree_id@PAU?$_Tree_node@U?$pair@$$CBHU__KAWIBAWIBO@CMiniGame@@@std@@PAX@std@@@2@QAU32@@Z PROC ; std::_Tree_val<std::_Tree_simple_types<std::pair<int const ,CMiniGame::__KAWIBAWIBO> > >::_Insert_node, COMDAT
; _this$ = ecx

; 669  :     _Nodeptr _Insert_node(const _Tree_id<_Nodeptr> _Loc, const _Nodeptr _Newnode) noexcept {

  00000	55		 push	 ebp
  00001	8b ec		 mov	 ebp, esp
  00003	51		 push	 ecx

; 670  :         ++_Mysize;
; 671  :         const auto _Head  = _Myhead;
; 672  :         _Newnode->_Parent = _Loc._Parent;

  00004	8b 55 08	 mov	 edx, DWORD PTR __Loc$[ebp]
  00007	53		 push	 ebx
  00008	8b d9		 mov	 ebx, ecx
  0000a	57		 push	 edi
  0000b	8b 7d 10	 mov	 edi, DWORD PTR __Newnode$[ebp]
  0000e	8b 03		 mov	 eax, DWORD PTR [ebx]
  00010	ff 43 04	 inc	 DWORD PTR [ebx+4]
  00013	89 45 fc	 mov	 DWORD PTR __Head$1$[ebp], eax
  00016	89 57 04	 mov	 DWORD PTR [edi+4], edx

; 673  :         if (_Loc._Parent == _Head) { // first node in tree, just set head values

  00019	3b d0		 cmp	 edx, eax
  0001b	75 16		 jne	 SHORT $LN5@Insert_nod

; 674  :             _Head->_Left     = _Newnode;

  0001d	89 38		 mov	 DWORD PTR [eax], edi

; 675  :             _Head->_Parent   = _Newnode;

  0001f	89 78 04	 mov	 DWORD PTR [eax+4], edi

; 676  :             _Head->_Right    = _Newnode;

  00022	89 78 08	 mov	 DWORD PTR [eax+8], edi

; 735  :         return _Newnode;
; 736  :     }

  00025	8b c7		 mov	 eax, edi
  00027	c6 47 0c 01	 mov	 BYTE PTR [edi+12], 1
  0002b	5f		 pop	 edi
  0002c	5b		 pop	 ebx
  0002d	8b e5		 mov	 esp, ebp
  0002f	5d		 pop	 ebp
  00030	c2 0c 00	 ret	 12			; 0000000cH
$LN5@Insert_nod:

; 677  :             _Newnode->_Color = _Black; // the root is black
; 678  :             return _Newnode;
; 679  :         }
; 680  : 
; 681  :         _STL_INTERNAL_CHECK(_Loc._Child != _Tree_child::_Unused);
; 682  :         if (_Loc._Child == _Tree_child::_Right) { // add to right of _Loc._Parent

  00033	83 7d 0c 00	 cmp	 DWORD PTR __Loc$[ebp+4], 0
  00037	75 0d		 jne	 SHORT $LN6@Insert_nod

; 683  :             _STL_INTERNAL_CHECK(_Loc._Parent->_Right->_Isnil);
; 684  :             _Loc._Parent->_Right = _Newnode;

  00039	89 7a 08	 mov	 DWORD PTR [edx+8], edi

; 685  :             if (_Loc._Parent == _Head->_Right) { // remember rightmost node

  0003c	3b 50 08	 cmp	 edx, DWORD PTR [eax+8]
  0003f	75 0d		 jne	 SHORT $LN9@Insert_nod

; 686  :                 _Head->_Right = _Newnode;

  00041	89 78 08	 mov	 DWORD PTR [eax+8], edi

; 687  :             }
; 688  :         } else { // add to left of _Loc._Parent

  00044	eb 08		 jmp	 SHORT $LN9@Insert_nod
$LN6@Insert_nod:

; 689  :             _STL_INTERNAL_CHECK(_Loc._Parent->_Left->_Isnil);
; 690  :             _Loc._Parent->_Left = _Newnode;

  00046	89 3a		 mov	 DWORD PTR [edx], edi

; 691  :             if (_Loc._Parent == _Head->_Left) { // remember leftmost node

  00048	3b 10		 cmp	 edx, DWORD PTR [eax]
  0004a	75 02		 jne	 SHORT $LN9@Insert_nod

; 692  :                 _Head->_Left = _Newnode;

  0004c	89 38		 mov	 DWORD PTR [eax], edi
$LN9@Insert_nod:

; 693  :             }
; 694  :         }
; 695  : 
; 696  :         for (_Nodeptr _Pnode = _Newnode; _Pnode->_Parent->_Color == _Red;) {

  0004e	8b 4f 04	 mov	 ecx, DWORD PTR [edi+4]
  00051	8b c7		 mov	 eax, edi
  00053	80 79 0c 00	 cmp	 BYTE PTR [ecx+12], 0
  00057	0f 85 7d 01 00
	00		 jne	 $LN3@Insert_nod
  0005d	56		 push	 esi
  0005e	66 90		 npad	 2
$LL4@Insert_nod:

; 697  :             if (_Pnode->_Parent == _Pnode->_Parent->_Parent->_Left) { // fixup red-red in left subtree

  00060	8b 50 04	 mov	 edx, DWORD PTR [eax+4]
  00063	8b 72 04	 mov	 esi, DWORD PTR [edx+4]
  00066	8b 0e		 mov	 ecx, DWORD PTR [esi]
  00068	3b d1		 cmp	 edx, ecx
  0006a	0f 85 aa 00 00
	00		 jne	 $LN10@Insert_nod

; 698  :                 const auto _Parent_sibling = _Pnode->_Parent->_Parent->_Right;

  00070	8b 4e 08	 mov	 ecx, DWORD PTR [esi+8]

; 699  :                 if (_Parent_sibling->_Color == _Red) { // parent's sibling has two red children, blacken both

  00073	80 79 0c 00	 cmp	 BYTE PTR [ecx+12], 0
  00077	0f 84 a3 00 00
	00		 je	 $LN82@Insert_nod

; 700  :                     _Pnode->_Parent->_Color          = _Black;
; 701  :                     _Parent_sibling->_Color          = _Black;
; 702  :                     _Pnode->_Parent->_Parent->_Color = _Red;
; 703  :                     _Pnode                           = _Pnode->_Parent->_Parent;
; 704  :                 } else { // parent's sibling has red and black children
; 705  :                     if (_Pnode == _Pnode->_Parent->_Right) { // rotate right child to left

  0007d	8b 72 08	 mov	 esi, DWORD PTR [edx+8]
  00080	3b c6		 cmp	 eax, esi
  00082	75 37		 jne	 SHORT $LN57@Insert_nod

; 485  :         _Wherenode->_Right = _Pnode->_Left;

  00084	8b 0e		 mov	 ecx, DWORD PTR [esi]

; 706  :                         _Pnode = _Pnode->_Parent;

  00086	8b c2		 mov	 eax, edx

; 485  :         _Wherenode->_Right = _Pnode->_Left;

  00088	89 4a 08	 mov	 DWORD PTR [edx+8], ecx

; 486  : 
; 487  :         if (!_Pnode->_Left->_Isnil) {

  0008b	8b 0e		 mov	 ecx, DWORD PTR [esi]
  0008d	80 79 0d 00	 cmp	 BYTE PTR [ecx+13], 0
  00091	75 03		 jne	 SHORT $LN21@Insert_nod

; 488  :             _Pnode->_Left->_Parent = _Wherenode;

  00093	89 41 04	 mov	 DWORD PTR [ecx+4], eax
$LN21@Insert_nod:

; 489  :         }
; 490  : 
; 491  :         _Pnode->_Parent = _Wherenode->_Parent;

  00096	8b 4a 04	 mov	 ecx, DWORD PTR [edx+4]
  00099	89 4e 04	 mov	 DWORD PTR [esi+4], ecx

; 492  : 
; 493  :         if (_Wherenode == _Myhead->_Parent) {

  0009c	8b 0b		 mov	 ecx, DWORD PTR [ebx]
  0009e	3b 41 04	 cmp	 eax, DWORD PTR [ecx+4]
  000a1	75 05		 jne	 SHORT $LN22@Insert_nod

; 494  :             _Myhead->_Parent = _Pnode;

  000a3	89 71 04	 mov	 DWORD PTR [ecx+4], esi
  000a6	eb 0e		 jmp	 SHORT $LN25@Insert_nod
$LN22@Insert_nod:

; 495  :         } else if (_Wherenode == _Wherenode->_Parent->_Left) {

  000a8	8b 4a 04	 mov	 ecx, DWORD PTR [edx+4]
  000ab	3b 01		 cmp	 eax, DWORD PTR [ecx]
  000ad	75 04		 jne	 SHORT $LN24@Insert_nod

; 496  :             _Wherenode->_Parent->_Left = _Pnode;

  000af	89 31		 mov	 DWORD PTR [ecx], esi

; 497  :         } else {

  000b1	eb 03		 jmp	 SHORT $LN25@Insert_nod
$LN24@Insert_nod:

; 498  :             _Wherenode->_Parent->_Right = _Pnode;

  000b3	89 71 08	 mov	 DWORD PTR [ecx+8], esi
$LN25@Insert_nod:

; 499  :         }
; 500  : 
; 501  :         _Pnode->_Left       = _Wherenode;

  000b6	89 06		 mov	 DWORD PTR [esi], eax

; 502  :         _Wherenode->_Parent = _Pnode;

  000b8	89 70 04	 mov	 DWORD PTR [eax+4], esi
$LN57@Insert_nod:

; 707  :                         _Lrotate(_Pnode);
; 708  :                     }
; 709  : 
; 710  :                     _Pnode->_Parent->_Color          = _Black; // propagate red up

  000bb	8b 48 04	 mov	 ecx, DWORD PTR [eax+4]
  000be	c6 41 0c 01	 mov	 BYTE PTR [ecx+12], 1

; 711  :                     _Pnode->_Parent->_Parent->_Color = _Red;

  000c2	8b 48 04	 mov	 ecx, DWORD PTR [eax+4]
  000c5	8b 49 04	 mov	 ecx, DWORD PTR [ecx+4]
  000c8	c6 41 0c 00	 mov	 BYTE PTR [ecx+12], 0

; 712  :                     _Rrotate(_Pnode->_Parent->_Parent);

  000cc	8b 48 04	 mov	 ecx, DWORD PTR [eax+4]
  000cf	8b 51 04	 mov	 edx, DWORD PTR [ecx+4]

; 506  :         _Nodeptr _Pnode   = _Wherenode->_Left;

  000d2	8b 32		 mov	 esi, DWORD PTR [edx]

; 507  :         _Wherenode->_Left = _Pnode->_Right;

  000d4	8b 4e 08	 mov	 ecx, DWORD PTR [esi+8]
  000d7	89 0a		 mov	 DWORD PTR [edx], ecx

; 508  : 
; 509  :         if (!_Pnode->_Right->_Isnil) {

  000d9	8b 4e 08	 mov	 ecx, DWORD PTR [esi+8]
  000dc	80 79 0d 00	 cmp	 BYTE PTR [ecx+13], 0
  000e0	75 03		 jne	 SHORT $LN29@Insert_nod

; 510  :             _Pnode->_Right->_Parent = _Wherenode;

  000e2	89 51 04	 mov	 DWORD PTR [ecx+4], edx
$LN29@Insert_nod:

; 511  :         }
; 512  : 
; 513  :         _Pnode->_Parent = _Wherenode->_Parent;

  000e5	8b 4a 04	 mov	 ecx, DWORD PTR [edx+4]
  000e8	89 4e 04	 mov	 DWORD PTR [esi+4], ecx

; 514  : 
; 515  :         if (_Wherenode == _Myhead->_Parent) {

  000eb	8b 0b		 mov	 ecx, DWORD PTR [ebx]
  000ed	3b 51 04	 cmp	 edx, DWORD PTR [ecx+4]
  000f0	75 0b		 jne	 SHORT $LN30@Insert_nod

; 516  :             _Myhead->_Parent = _Pnode;

  000f2	89 71 04	 mov	 DWORD PTR [ecx+4], esi

; 521  :         }
; 522  : 
; 523  :         _Pnode->_Right      = _Wherenode;

  000f5	89 56 08	 mov	 DWORD PTR [esi+8], edx

; 713  :                 }
; 714  :             } else { // fixup red-red in right subtree

  000f8	e9 cc 00 00 00	 jmp	 $LN81@Insert_nod
$LN30@Insert_nod:

; 517  :         } else if (_Wherenode == _Wherenode->_Parent->_Right) {

  000fd	8b 4a 04	 mov	 ecx, DWORD PTR [edx+4]
  00100	3b 51 08	 cmp	 edx, DWORD PTR [ecx+8]
  00103	75 0b		 jne	 SHORT $LN32@Insert_nod

; 518  :             _Wherenode->_Parent->_Right = _Pnode;

  00105	89 71 08	 mov	 DWORD PTR [ecx+8], esi

; 521  :         }
; 522  : 
; 523  :         _Pnode->_Right      = _Wherenode;

  00108	89 56 08	 mov	 DWORD PTR [esi+8], edx

; 713  :                 }
; 714  :             } else { // fixup red-red in right subtree

  0010b	e9 b9 00 00 00	 jmp	 $LN81@Insert_nod
$LN32@Insert_nod:

; 520  :             _Wherenode->_Parent->_Left = _Pnode;

  00110	89 31		 mov	 DWORD PTR [ecx], esi

; 521  :         }
; 522  : 
; 523  :         _Pnode->_Right      = _Wherenode;

  00112	89 56 08	 mov	 DWORD PTR [esi+8], edx

; 713  :                 }
; 714  :             } else { // fixup red-red in right subtree

  00115	e9 af 00 00 00	 jmp	 $LN81@Insert_nod
$LN10@Insert_nod:

; 715  :                 const auto _Parent_sibling = _Pnode->_Parent->_Parent->_Left;
; 716  :                 if (_Parent_sibling->_Color == _Red) { // parent's sibling has two red children, blacken both

  0011a	80 79 0c 00	 cmp	 BYTE PTR [ecx+12], 0
  0011e	75 1d		 jne	 SHORT $LN15@Insert_nod
$LN82@Insert_nod:

; 693  :             }
; 694  :         }
; 695  : 
; 696  :         for (_Nodeptr _Pnode = _Newnode; _Pnode->_Parent->_Color == _Red;) {

  00120	c6 42 0c 01	 mov	 BYTE PTR [edx+12], 1
  00124	c6 41 0c 01	 mov	 BYTE PTR [ecx+12], 1
  00128	8b 48 04	 mov	 ecx, DWORD PTR [eax+4]
  0012b	8b 49 04	 mov	 ecx, DWORD PTR [ecx+4]
  0012e	c6 41 0c 00	 mov	 BYTE PTR [ecx+12], 0
  00132	8b 48 04	 mov	 ecx, DWORD PTR [eax+4]
  00135	8b 41 04	 mov	 eax, DWORD PTR [ecx+4]
  00138	e9 8f 00 00 00	 jmp	 $LN2@Insert_nod
$LN15@Insert_nod:

; 717  :                     _Pnode->_Parent->_Color          = _Black;
; 718  :                     _Parent_sibling->_Color          = _Black;
; 719  :                     _Pnode->_Parent->_Parent->_Color = _Red;
; 720  :                     _Pnode                           = _Pnode->_Parent->_Parent;
; 721  :                 } else { // parent's sibling has red and black children
; 722  :                     if (_Pnode == _Pnode->_Parent->_Left) { // rotate left child to right

  0013d	8b 32		 mov	 esi, DWORD PTR [edx]
  0013f	3b c6		 cmp	 eax, esi
  00141	75 3a		 jne	 SHORT $LN42@Insert_nod

; 507  :         _Wherenode->_Left = _Pnode->_Right;

  00143	8b 4e 08	 mov	 ecx, DWORD PTR [esi+8]

; 723  :                         _Pnode = _Pnode->_Parent;

  00146	8b c2		 mov	 eax, edx

; 507  :         _Wherenode->_Left = _Pnode->_Right;

  00148	89 08		 mov	 DWORD PTR [eax], ecx

; 508  : 
; 509  :         if (!_Pnode->_Right->_Isnil) {

  0014a	8b 4e 08	 mov	 ecx, DWORD PTR [esi+8]
  0014d	80 79 0d 00	 cmp	 BYTE PTR [ecx+13], 0
  00151	75 03		 jne	 SHORT $LN37@Insert_nod

; 510  :             _Pnode->_Right->_Parent = _Wherenode;

  00153	89 41 04	 mov	 DWORD PTR [ecx+4], eax
$LN37@Insert_nod:

; 511  :         }
; 512  : 
; 513  :         _Pnode->_Parent = _Wherenode->_Parent;

  00156	8b 4a 04	 mov	 ecx, DWORD PTR [edx+4]
  00159	89 4e 04	 mov	 DWORD PTR [esi+4], ecx

; 514  : 
; 515  :         if (_Wherenode == _Myhead->_Parent) {

  0015c	8b 0b		 mov	 ecx, DWORD PTR [ebx]
  0015e	3b 41 04	 cmp	 eax, DWORD PTR [ecx+4]
  00161	75 05		 jne	 SHORT $LN38@Insert_nod

; 516  :             _Myhead->_Parent = _Pnode;

  00163	89 71 04	 mov	 DWORD PTR [ecx+4], esi
  00166	eb 0f		 jmp	 SHORT $LN41@Insert_nod
$LN38@Insert_nod:

; 517  :         } else if (_Wherenode == _Wherenode->_Parent->_Right) {

  00168	8b 4a 04	 mov	 ecx, DWORD PTR [edx+4]
  0016b	3b 41 08	 cmp	 eax, DWORD PTR [ecx+8]
  0016e	75 05		 jne	 SHORT $LN40@Insert_nod

; 518  :             _Wherenode->_Parent->_Right = _Pnode;

  00170	89 71 08	 mov	 DWORD PTR [ecx+8], esi

; 519  :         } else {

  00173	eb 02		 jmp	 SHORT $LN41@Insert_nod
$LN40@Insert_nod:

; 520  :             _Wherenode->_Parent->_Left = _Pnode;

  00175	89 31		 mov	 DWORD PTR [ecx], esi
$LN41@Insert_nod:

; 521  :         }
; 522  : 
; 523  :         _Pnode->_Right      = _Wherenode;

  00177	89 46 08	 mov	 DWORD PTR [esi+8], eax

; 524  :         _Wherenode->_Parent = _Pnode;

  0017a	89 70 04	 mov	 DWORD PTR [eax+4], esi
$LN42@Insert_nod:

; 724  :                         _Rrotate(_Pnode);
; 725  :                     }
; 726  : 
; 727  :                     _Pnode->_Parent->_Color          = _Black; // propagate red up

  0017d	8b 48 04	 mov	 ecx, DWORD PTR [eax+4]
  00180	c6 41 0c 01	 mov	 BYTE PTR [ecx+12], 1

; 728  :                     _Pnode->_Parent->_Parent->_Color = _Red;

  00184	8b 48 04	 mov	 ecx, DWORD PTR [eax+4]
  00187	8b 49 04	 mov	 ecx, DWORD PTR [ecx+4]
  0018a	c6 41 0c 00	 mov	 BYTE PTR [ecx+12], 0

; 729  :                     _Lrotate(_Pnode->_Parent->_Parent);

  0018e	8b 48 04	 mov	 ecx, DWORD PTR [eax+4]
  00191	8b 51 04	 mov	 edx, DWORD PTR [ecx+4]

; 484  :         _Nodeptr _Pnode    = _Wherenode->_Right;

  00194	8b 72 08	 mov	 esi, DWORD PTR [edx+8]

; 485  :         _Wherenode->_Right = _Pnode->_Left;

  00197	8b 0e		 mov	 ecx, DWORD PTR [esi]
  00199	89 4a 08	 mov	 DWORD PTR [edx+8], ecx

; 486  : 
; 487  :         if (!_Pnode->_Left->_Isnil) {

  0019c	8b 0e		 mov	 ecx, DWORD PTR [esi]
  0019e	80 79 0d 00	 cmp	 BYTE PTR [ecx+13], 0
  001a2	75 03		 jne	 SHORT $LN45@Insert_nod

; 488  :             _Pnode->_Left->_Parent = _Wherenode;

  001a4	89 51 04	 mov	 DWORD PTR [ecx+4], edx
$LN45@Insert_nod:

; 489  :         }
; 490  : 
; 491  :         _Pnode->_Parent = _Wherenode->_Parent;

  001a7	8b 4a 04	 mov	 ecx, DWORD PTR [edx+4]
  001aa	89 4e 04	 mov	 DWORD PTR [esi+4], ecx

; 492  : 
; 493  :         if (_Wherenode == _Myhead->_Parent) {

  001ad	8b 0b		 mov	 ecx, DWORD PTR [ebx]
  001af	3b 51 04	 cmp	 edx, DWORD PTR [ecx+4]
  001b2	75 05		 jne	 SHORT $LN46@Insert_nod

; 494  :             _Myhead->_Parent = _Pnode;

  001b4	89 71 04	 mov	 DWORD PTR [ecx+4], esi
  001b7	eb 0e		 jmp	 SHORT $LN49@Insert_nod
$LN46@Insert_nod:

; 495  :         } else if (_Wherenode == _Wherenode->_Parent->_Left) {

  001b9	8b 4a 04	 mov	 ecx, DWORD PTR [edx+4]
  001bc	3b 11		 cmp	 edx, DWORD PTR [ecx]
  001be	75 04		 jne	 SHORT $LN48@Insert_nod

; 496  :             _Wherenode->_Parent->_Left = _Pnode;

  001c0	89 31		 mov	 DWORD PTR [ecx], esi

; 497  :         } else {

  001c2	eb 03		 jmp	 SHORT $LN49@Insert_nod
$LN48@Insert_nod:

; 498  :             _Wherenode->_Parent->_Right = _Pnode;

  001c4	89 71 08	 mov	 DWORD PTR [ecx+8], esi
$LN49@Insert_nod:

; 499  :         }
; 500  : 
; 501  :         _Pnode->_Left       = _Wherenode;

  001c7	89 16		 mov	 DWORD PTR [esi], edx
$LN81@Insert_nod:

; 693  :             }
; 694  :         }
; 695  : 
; 696  :         for (_Nodeptr _Pnode = _Newnode; _Pnode->_Parent->_Color == _Red;) {

  001c9	89 72 04	 mov	 DWORD PTR [edx+4], esi
$LN2@Insert_nod:
  001cc	8b 48 04	 mov	 ecx, DWORD PTR [eax+4]
  001cf	80 79 0c 00	 cmp	 BYTE PTR [ecx+12], 0
  001d3	0f 84 87 fe ff
	ff		 je	 $LL4@Insert_nod
  001d9	5e		 pop	 esi
$LN3@Insert_nod:

; 730  :                 }
; 731  :             }
; 732  :         }
; 733  : 
; 734  :         _Head->_Parent->_Color = _Black; // root is always black

  001da	8b 45 fc	 mov	 eax, DWORD PTR __Head$1$[ebp]
  001dd	8b 40 04	 mov	 eax, DWORD PTR [eax+4]
  001e0	c6 40 0c 01	 mov	 BYTE PTR [eax+12], 1

; 735  :         return _Newnode;
; 736  :     }

  001e4	8b c7		 mov	 eax, edi
  001e6	5f		 pop	 edi
  001e7	5b		 pop	 ebx
  001e8	8b e5		 mov	 esp, ebp
  001ea	5d		 pop	 ebp
  001eb	c2 0c 00	 ret	 12			; 0000000cH
?_Insert_node@?$_Tree_val@U?$_Tree_simple_types@U?$pair@$$CBHU__KAWIBAWIBO@CMiniGame@@@std@@@std@@@std@@QAEPAU?$_Tree_node@U?$pair@$$CBHU__KAWIBAWIBO@CMiniGame@@@std@@PAX@2@U?$_Tree_id@PAU?$_Tree_node@U?$pair@$$CBHU__KAWIBAWIBO@CMiniGame@@@std@@PAX@std@@@2@QAU32@@Z ENDP ; std::_Tree_val<std::_Tree_simple_types<std::pair<int const ,CMiniGame::__KAWIBAWIBO> > >::_Insert_node
_TEXT	ENDS
; Function compile flags: /Ogtp
; File C:\Program Files\Microsoft Visual Studio\2022\Professional\VC\Tools\MSVC\14.44.35207\include\xtree
; File C:\Program Files\Microsoft Visual Studio\2022\Professional\VC\Tools\MSVC\14.44.35207\include\utility
; File C:\Program Files\Microsoft Visual Studio\2022\Professional\VC\Tools\MSVC\14.44.35207\include\xmemory
; File C:\Program Files\Microsoft Visual Studio\2022\Professional\VC\Tools\MSVC\14.44.35207\include\xtree
; File C:\Program Files\Microsoft Visual Studio\2022\Professional\VC\Tools\MSVC\14.44.35207\include\xmemory
; File C:\Program Files\Microsoft Visual Studio\2022\Professional\VC\Tools\MSVC\14.44.35207\include\xtree
;	COMDAT ??1?$_Tree@V?$_Tmap_traits@HU__KAWIBAWIBO@CMiniGame@@U?$less@H@std@@V?$allocator@U?$pair@$$CBHU__KAWIBAWIBO@CMiniGame@@@std@@@4@$0A@@std@@@std@@QAE@XZ
_TEXT	SEGMENT
??1?$_Tree@V?$_Tmap_traits@HU__KAWIBAWIBO@CMiniGame@@U?$less@H@std@@V?$allocator@U?$pair@$$CBHU__KAWIBAWIBO@CMiniGame@@@std@@@4@$0A@@std@@@std@@QAE@XZ PROC ; std::_Tree<std::_Tmap_traits<int,CMiniGame::__KAWIBAWIBO,std::less<int>,std::allocator<std::pair<int const ,CMiniGame::__KAWIBAWIBO> >,0> >::~_Tree<std::_Tmap_traits<int,CMiniGame::__KAWIBAWIBO,std::less<int>,std::allocator<std::pair<int const ,CMiniGame::__KAWIBAWIBO> >,0> >, COMDAT
; _this$ = ecx

; 1095 :     ~_Tree() noexcept {

  00000	56		 push	 esi
  00001	57		 push	 edi
  00002	8b f9		 mov	 edi, ecx

; 777  :         _Erase_tree(_Al, _Myhead->_Parent);

  00004	8b 37		 mov	 esi, DWORD PTR [edi]
  00006	8b 76 04	 mov	 esi, DWORD PTR [esi+4]

; 768  :         while (!_Rootnode->_Isnil) { // free subtrees, then node

  00009	80 7e 0d 00	 cmp	 BYTE PTR [esi+13], 0
  0000d	75 21		 jne	 SHORT $LN61@Tree
  0000f	90		 npad	 1
$LL8@Tree:

; 769  :             _Erase_tree(_Al, _Rootnode->_Right);

  00010	ff 76 08	 push	 DWORD PTR [esi+8]
  00013	8b cf		 mov	 ecx, edi
  00015	57		 push	 edi
  00016	e8 00 00 00 00	 call	 ??$_Erase_tree@V?$allocator@U?$_Tree_node@U?$pair@$$CBHU__KAWIBAWIBO@CMiniGame@@@std@@PAX@std@@@std@@@?$_Tree_val@U?$_Tree_simple_types@U?$pair@$$CBHU__KAWIBAWIBO@CMiniGame@@@std@@@std@@@std@@QAEXAAV?$allocator@U?$_Tree_node@U?$pair@$$CBHU__KAWIBAWIBO@CMiniGame@@@std@@PAX@std@@@1@PAU?$_Tree_node@U?$pair@$$CBHU__KAWIBAWIBO@CMiniGame@@@std@@PAX@1@@Z ; std::_Tree_val<std::_Tree_simple_types<std::pair<int const ,CMiniGame::__KAWIBAWIBO> > >::_Erase_tree<std::allocator<std::_Tree_node<std::pair<int const ,CMiniGame::__KAWIBAWIBO>,void *> > >
; File C:\Program Files\Microsoft Visual Studio\2022\Professional\VC\Tools\MSVC\14.44.35207\include\utility

; 773  :     _Ty _Old_val = static_cast<_Ty&&>(_Val);

  0001b	8b c6		 mov	 eax, esi

; 774  :     _Val         = static_cast<_Other&&>(_New_val);

  0001d	8b 36		 mov	 esi, DWORD PTR [esi]
; File C:\Program Files\Microsoft Visual Studio\2022\Professional\VC\Tools\MSVC\14.44.35207\include\xmemory

; 289  :         ::operator delete(_Ptr, _Bytes);

  0001f	6a 28		 push	 40			; 00000028H
  00021	50		 push	 eax
  00022	e8 00 00 00 00	 call	 ??3@YAXPAXI@Z		; operator delete
  00027	83 c4 08	 add	 esp, 8
; File C:\Program Files\Microsoft Visual Studio\2022\Professional\VC\Tools\MSVC\14.44.35207\include\xtree

; 768  :         while (!_Rootnode->_Isnil) { // free subtrees, then node

  0002a	80 7e 0d 00	 cmp	 BYTE PTR [esi+13], 0
  0002e	74 e0		 je	 SHORT $LL8@Tree
$LN61@Tree:
; File C:\Program Files\Microsoft Visual Studio\2022\Professional\VC\Tools\MSVC\14.44.35207\include\xmemory

; 289  :         ::operator delete(_Ptr, _Bytes);

  00030	6a 28		 push	 40			; 00000028H
  00032	ff 37		 push	 DWORD PTR [edi]
  00034	e8 00 00 00 00	 call	 ??3@YAXPAXI@Z		; operator delete
  00039	83 c4 08	 add	 esp, 8
  0003c	5f		 pop	 edi
  0003d	5e		 pop	 esi
; File C:\Program Files\Microsoft Visual Studio\2022\Professional\VC\Tools\MSVC\14.44.35207\include\xtree

; 1102 :     }

  0003e	c3		 ret	 0
??1?$_Tree@V?$_Tmap_traits@HU__KAWIBAWIBO@CMiniGame@@U?$less@H@std@@V?$allocator@U?$pair@$$CBHU__KAWIBAWIBO@CMiniGame@@@std@@@4@$0A@@std@@@std@@QAE@XZ ENDP ; std::_Tree<std::_Tmap_traits<int,CMiniGame::__KAWIBAWIBO,std::less<int>,std::allocator<std::pair<int const ,CMiniGame::__KAWIBAWIBO> >,0> >::~_Tree<std::_Tmap_traits<int,CMiniGame::__KAWIBAWIBO,std::less<int>,std::allocator<std::pair<int const ,CMiniGame::__KAWIBAWIBO> >,0> >
_TEXT	ENDS
; Function compile flags: /Ogtp
; File C:\Program Files\Microsoft Visual Studio\2022\Professional\VC\Tools\MSVC\14.44.35207\include\vector
;	COMDAT ?_Xlength@?$vector@U__ALPHABET@CMiniGame@@V?$allocator@U__ALPHABET@CMiniGame@@@std@@@std@@CAXXZ
_TEXT	SEGMENT
?_Xlength@?$vector@U__ALPHABET@CMiniGame@@V?$allocator@U__ALPHABET@CMiniGame@@@std@@@std@@CAXXZ PROC ; std::vector<CMiniGame::__ALPHABET,std::allocator<CMiniGame::__ALPHABET> >::_Xlength, COMDAT

; 2184 :         _Xlength_error("vector too long");

  00000	68 00 00 00 00	 push	 OFFSET ??_C@_0BA@FOIKENOD@vector?5too?5long@
  00005	e8 00 00 00 00	 call	 ?_Xlength_error@std@@YAXPBD@Z ; std::_Xlength_error
$LN3@Xlength:
  0000a	cc		 int	 3
?_Xlength@?$vector@U__ALPHABET@CMiniGame@@V?$allocator@U__ALPHABET@CMiniGame@@@std@@@std@@CAXXZ ENDP ; std::vector<CMiniGame::__ALPHABET,std::allocator<CMiniGame::__ALPHABET> >::_Xlength
_TEXT	ENDS
; Function compile flags: /Ogtp
; File C:\Program Files\Microsoft Visual Studio\2022\Professional\VC\Tools\MSVC\14.44.35207\include\vector
; File C:\Program Files\Microsoft Visual Studio\2022\Professional\VC\Tools\MSVC\14.44.35207\include\xmemory
; File C:\Program Files\Microsoft Visual Studio\2022\Professional\VC\Tools\MSVC\14.44.35207\include\vector
; File C:\Program Files\Microsoft Visual Studio\2022\Professional\VC\Tools\MSVC\14.44.35207\include\xmemory
; File C:\Program Files\Microsoft Visual Studio\2022\Professional\VC\Tools\MSVC\14.44.35207\include\vector
;	COMDAT ??1?$vector@U__ALPHABET@CMiniGame@@V?$allocator@U__ALPHABET@CMiniGame@@@std@@@std@@QAE@XZ
_TEXT	SEGMENT
??1?$vector@U__ALPHABET@CMiniGame@@V?$allocator@U__ALPHABET@CMiniGame@@@std@@@std@@QAE@XZ PROC ; std::vector<CMiniGame::__ALPHABET,std::allocator<CMiniGame::__ALPHABET> >::~vector<CMiniGame::__ALPHABET,std::allocator<CMiniGame::__ALPHABET> >, COMDAT
; _this$ = ecx

; 829  :     _CONSTEXPR20 ~vector() noexcept {

  00000	56		 push	 esi
  00001	8b f1		 mov	 esi, ecx

; 2090 :         if (_Myfirst) { // destroy and deallocate old array

  00003	8b 06		 mov	 eax, DWORD PTR [esi]
  00005	85 c0		 test	 eax, eax
  00007	74 65		 je	 SHORT $LN5@vector
  00009	57		 push	 edi

; 2091 :             _STD _Destroy_range(_Myfirst, _Mylast, _Al);

  0000a	56		 push	 esi
  0000b	ff 76 04	 push	 DWORD PTR [esi+4]
  0000e	50		 push	 eax
  0000f	e8 00 00 00 00	 call	 ??$_Destroy_range@V?$allocator@U__ALPHABET@CMiniGame@@@std@@@std@@YAXPAU__ALPHABET@CMiniGame@@QAU12@AAV?$allocator@U__ALPHABET@CMiniGame@@@0@@Z ; std::_Destroy_range<std::allocator<CMiniGame::__ALPHABET> >

; 2092 :             _ASAN_VECTOR_REMOVE;
; 2093 :             _Al.deallocate(_Myfirst, static_cast<size_type>(_Myend - _Myfirst));

  00014	8b 4e 08	 mov	 ecx, DWORD PTR [esi+8]
  00017	b8 ab aa aa 2a	 mov	 eax, 715827883		; 2aaaaaabH
  0001c	8b 3e		 mov	 edi, DWORD PTR [esi]
  0001e	83 c4 0c	 add	 esp, 12			; 0000000cH
  00021	2b cf		 sub	 ecx, edi
  00023	f7 e9		 imul	 ecx
  00025	c1 fa 02	 sar	 edx, 2
  00028	8b c2		 mov	 eax, edx
  0002a	c1 e8 1f	 shr	 eax, 31			; 0000001fH
  0002d	03 c2		 add	 eax, edx
; File C:\Program Files\Microsoft Visual Studio\2022\Professional\VC\Tools\MSVC\14.44.35207\include\xmemory

; 985  :         _STD _Deallocate<_New_alignof<_Ty>>(_Ptr, sizeof(_Ty) * _Count);

  0002f	8d 0c 40	 lea	 ecx, DWORD PTR [eax+eax*2]
  00032	c1 e1 03	 shl	 ecx, 3

; 284  :         if (_Bytes >= _Big_allocation_threshold) {

  00035	81 f9 00 10 00
	00		 cmp	 ecx, 4096		; 00001000H
  0003b	72 12		 jb	 SHORT $LN18@vector

; 205  :     const uintptr_t _Ptr_container   = _Ptr_user[-1];

  0003d	8b 57 fc	 mov	 edx, DWORD PTR [edi-4]
  00040	83 c1 23	 add	 ecx, 35			; 00000023H

; 206  : 
; 207  :     // If the following asserts, it likely means that we are performing
; 208  :     // an aligned delete on memory coming from an unaligned allocation.
; 209  :     _STL_ASSERT(_Ptr_user[-2] == _Big_allocation_sentinel, "invalid argument");
; 210  : 
; 211  :     // Extra paranoia on aligned allocation/deallocation; ensure _Ptr_container is
; 212  :     // in range [_Min_back_shift, _Non_user_size]
; 213  : #ifdef _DEBUG
; 214  :     constexpr uintptr_t _Min_back_shift = 2 * sizeof(void*);
; 215  : #else // ^^^ defined(_DEBUG) / !defined(_DEBUG) vvv
; 216  :     constexpr uintptr_t _Min_back_shift = sizeof(void*);
; 217  : #endif // ^^^ !defined(_DEBUG) ^^^
; 218  :     const uintptr_t _Back_shift = reinterpret_cast<uintptr_t>(_Ptr) - _Ptr_container;

  00043	2b fa		 sub	 edi, edx

; 219  :     _STL_VERIFY(_Back_shift >= _Min_back_shift && _Back_shift <= _Non_user_size, "invalid argument");

  00045	8d 47 fc	 lea	 eax, DWORD PTR [edi-4]
  00048	83 f8 1f	 cmp	 eax, 31			; 0000001fH
  0004b	77 23		 ja	 SHORT $LN17@vector

; 220  :     _Ptr = reinterpret_cast<void*>(_Ptr_container);

  0004d	8b fa		 mov	 edi, edx
$LN18@vector:

; 289  :         ::operator delete(_Ptr, _Bytes);

  0004f	51		 push	 ecx
  00050	57		 push	 edi
  00051	e8 00 00 00 00	 call	 ??3@YAXPAXI@Z		; operator delete
  00056	83 c4 08	 add	 esp, 8
; File C:\Program Files\Microsoft Visual Studio\2022\Professional\VC\Tools\MSVC\14.44.35207\include\vector

; 2095 :             _Myfirst = nullptr;

  00059	c7 06 00 00 00
	00		 mov	 DWORD PTR [esi], 0

; 2096 :             _Mylast  = nullptr;

  0005f	c7 46 04 00 00
	00 00		 mov	 DWORD PTR [esi+4], 0

; 2097 :             _Myend   = nullptr;

  00066	c7 46 08 00 00
	00 00		 mov	 DWORD PTR [esi+8], 0
  0006d	5f		 pop	 edi
$LN5@vector:
  0006e	5e		 pop	 esi

; 835  :     }

  0006f	c3		 ret	 0
$LN17@vector:
; File C:\Program Files\Microsoft Visual Studio\2022\Professional\VC\Tools\MSVC\14.44.35207\include\xmemory

; 219  :     _STL_VERIFY(_Back_shift >= _Min_back_shift && _Back_shift <= _Non_user_size, "invalid argument");

  00070	6a 00		 push	 0
  00072	6a 00		 push	 0
  00074	6a 00		 push	 0
  00076	6a 00		 push	 0
  00078	6a 00		 push	 0
  0007a	e8 00 00 00 00	 call	 __invoke_watson
$LN26@vector:
  0007f	cc		 int	 3
??1?$vector@U__ALPHABET@CMiniGame@@V?$allocator@U__ALPHABET@CMiniGame@@@std@@@std@@QAE@XZ ENDP ; std::vector<CMiniGame::__ALPHABET,std::allocator<CMiniGame::__ALPHABET> >::~vector<CMiniGame::__ALPHABET,std::allocator<CMiniGame::__ALPHABET> >
_TEXT	ENDS
; Function compile flags: /Ogtp
; File C:\IAGOS\server\v18\Source\Source\_Common\MiniGame.cpp
; File C:\IAGOS\server\v18\Source\Source\_Common\Project.h
; File C:\IAGOS\server\v18\Source\Source\_Common\MiniGame.cpp
; File C:\IAGOS\server\v18\Source\Source\_Common\Project.h
; File C:\IAGOS\server\v18\Source\Source\_Common\data.h
; File C:\IAGOS\server\v18\Source\Source\_Common\Project.h
; File C:\IAGOS\server\v18\Source\Source\_Common\data.h
; File C:\IAGOS\server\v18\Source\Source\_Common\Project.h
; File C:\IAGOS\server\v18\Source\Source\_Common\MiniGame.cpp
;	COMDAT ?ResultPenya_FiveSystem@CMiniGame@@QAEHPAVCUser@@H@Z
_TEXT	SEGMENT
_nResult$GSCopy$1$ = -396				; size = 4
_aLogItem$ = -392					; size = 200
_ItemElem$2 = -192					; size = 176
__$ArrayPad$ = -16					; size = 4
__$EHRec$ = -12						; size = 12
_pUser$ = 8						; size = 4
_nResult$ = 12						; size = 4
?ResultPenya_FiveSystem@CMiniGame@@QAEHPAVCUser@@H@Z PROC ; CMiniGame::ResultPenya_FiveSystem, COMDAT
; _this$ = ecx

; 579  : {

  00000	55		 push	 ebp
  00001	8b ec		 mov	 ebp, esp
  00003	6a ff		 push	 -1
  00005	68 00 00 00 00	 push	 __ehhandler$?ResultPenya_FiveSystem@CMiniGame@@QAEHPAVCUser@@H@Z
  0000a	64 a1 00 00 00
	00		 mov	 eax, DWORD PTR fs:0
  00010	50		 push	 eax
  00011	81 ec 84 01 00
	00		 sub	 esp, 388		; 00000184H
  00017	a1 00 00 00 00	 mov	 eax, DWORD PTR ___security_cookie
  0001c	33 c5		 xor	 eax, ebp
  0001e	89 45 f0	 mov	 DWORD PTR __$ArrayPad$[ebp], eax
  00021	53		 push	 ebx
  00022	56		 push	 esi
  00023	57		 push	 edi
  00024	50		 push	 eax
  00025	8d 45 f4	 lea	 eax, DWORD PTR __$EHRec$[ebp]
  00028	64 a3 00 00 00
	00		 mov	 DWORD PTR fs:0, eax
  0002e	8b 75 08	 mov	 esi, DWORD PTR _pUser$[ebp]
  00031	8b 45 0c	 mov	 eax, DWORD PTR _nResult$[ebp]
  00034	89 85 74 fe ff
	ff		 mov	 DWORD PTR _nResult$GSCopy$1$[ebp], eax

; 580  : 	int SetPenya = pUser->m_nBetFiveSystem[nResult] * m_nMultiple;

  0003a	8b bc 86 fc 8e
	00 00		 mov	 edi, DWORD PTR [esi+eax*4+36604]
  00041	0f af 79 0c	 imul	 edi, DWORD PTR [ecx+12]

; 581  : 	
; 582  : 	// ŔÔÂű±Ý ĂĘ±âČ­
; 583  : 	for( int i=0; i<6; ++i )
; 584  : 		pUser->m_nBetFiveSystem[i] = 0;
; 585  : 
; 586  : 	LogItemInfo aLogItem;

  00045	8d 8d 78 fe ff
	ff		 lea	 ecx, DWORD PTR _aLogItem$[ebp]
  0004b	c7 86 fc 8e 00
	00 00 00 00 00	 mov	 DWORD PTR [esi+36604], 0
  00055	c7 86 00 8f 00
	00 00 00 00 00	 mov	 DWORD PTR [esi+36608], 0
  0005f	c7 86 04 8f 00
	00 00 00 00 00	 mov	 DWORD PTR [esi+36612], 0
  00069	c7 86 08 8f 00
	00 00 00 00 00	 mov	 DWORD PTR [esi+36616], 0
  00073	c7 86 0c 8f 00
	00 00 00 00 00	 mov	 DWORD PTR [esi+36620], 0
  0007d	c7 86 10 8f 00
	00 00 00 00 00	 mov	 DWORD PTR [esi+36624], 0
  00087	e8 00 00 00 00	 call	 ??0_LogItemInfo@@QAE@XZ	; _LogItemInfo::_LogItemInfo

; 587  : 	aLogItem.RecvName = "FIVESYSTEM_PRIZE";
; 588  : 
; 589  : 	int nTotal = pUser->GetGold() + SetPenya;

  0008c	8b 86 e0 14 00
	00		 mov	 eax, DWORD PTR [esi+5344]
  00092	03 c7		 add	 eax, edi
  00094	c7 85 80 fe ff
	ff 00 00 00 00	 mov	 DWORD PTR _aLogItem$[ebp+8], OFFSET ??_C@_0BB@KFELLABE@FIVESYSTEM_PRIZE@

; 590  : 	if( nTotal < 0 )		// overflow?

  0009e	0f 89 f1 00 00
	00		 jns	 $LN5@ResultPeny

; 592  : 		CItemElem ItemElem;

  000a4	8d 8d 40 ff ff
	ff		 lea	 ecx, DWORD PTR _ItemElem$2[ebp]
  000aa	e8 00 00 00 00	 call	 ??0CItemElem@@QAE@XZ	; CItemElem::CItemElem
; File C:\IAGOS\server\v18\Source\Source\_Common\Project.h

; 1427 : 	VERIFY_RANGE( (int)( dwIndex ), 0, m_colorText.GetSize(), "GetText range_error", "error" );

  000af	a1 ac 02 00 00	 mov	 eax, DWORD PTR ?prj@@3VCProject@@A+684
; File C:\IAGOS\server\v18\Source\Source\_Common\MiniGame.cpp

; 592  : 		CItemElem ItemElem;

  000b4	c7 45 fc 00 00
	00 00		 mov	 DWORD PTR __$EHRec$[ebp+8], 0
; File C:\IAGOS\server\v18\Source\Source\_Common\Project.h

; 1427 : 	VERIFY_RANGE( (int)( dwIndex ), 0, m_colorText.GetSize(), "GetText range_error", "error" );

  000bb	3d 86 1b 00 00	 cmp	 eax, 7046		; 00001b86H
  000c0	7f 2c		 jg	 SHORT $LN10@ResultPeny

; 579  : 	LPCTSTR szErr = Error( _T( "%s min:%d, max:%d, index:%d" ), szMsg, nMin, nMax, nIndex ); 

  000c2	68 86 1b 00 00	 push	 7046			; 00001b86H
  000c7	50		 push	 eax
  000c8	6a 00		 push	 0
  000ca	68 00 00 00 00	 push	 OFFSET ??_C@_0BE@OHDBLHOM@GetText?5range_error@
  000cf	68 00 00 00 00	 push	 OFFSET ??_C@_0BM@HMFGHCP@?$CFs?5min?3?$CFd?0?5max?3?$CFd?0?5index?3?$CFd@
  000d4	e8 00 00 00 00	 call	 ?Error@@YAPBDPBDZZ	; Error

; 1427 : 	VERIFY_RANGE( (int)( dwIndex ), 0, m_colorText.GetSize(), "GetText range_error", "error" );

  000d9	a1 ac 02 00 00	 mov	 eax, DWORD PTR ?prj@@3VCProject@@A+684

; 579  : 	LPCTSTR szErr = Error( _T( "%s min:%d, max:%d, index:%d" ), szMsg, nMin, nMax, nIndex ); 

  000de	83 c4 14	 add	 esp, 20			; 00000014H

; 1427 : 	VERIFY_RANGE( (int)( dwIndex ), 0, m_colorText.GetSize(), "GetText range_error", "error" );

  000e1	8b 0d 9c 02 00
	00		 mov	 ecx, DWORD PTR ?prj@@3VCProject@@A+668
  000e7	bb 00 00 00 00	 mov	 ebx, OFFSET ??_C@_05KKCIMGE@error@
  000ec	eb 1c		 jmp	 SHORT $LN28@ResultPeny
$LN10@ResultPeny:
; File C:\IAGOS\server\v18\Source\Source\_Common\data.h

; 270  : 	if( dwIndex >= (DWORD)m_nMaxIndex )

  000ee	8b 0d 9c 02 00
	00		 mov	 ecx, DWORD PTR ?prj@@3VCProject@@A+668
  000f4	76 0f		 jbe	 SHORT $LN51@ResultPeny

; 271  : 		return NULL;
; 272  : 	return (T*) m_apOffset[ dwIndex ];

  000f6	8b 99 18 6e 00
	00		 mov	 ebx, DWORD PTR [ecx+28184]
; File C:\IAGOS\server\v18\Source\Source\_Common\Project.h

; 1428 : 	if( m_colorText.GetAt( dwIndex ) == NULL )

  000fc	85 db		 test	 ebx, ebx
  000fe	74 05		 je	 SHORT $LN51@ResultPeny

; 1430 : 	return m_colorText.GetAt( dwIndex )->lpszData; 

  00100	8b 5b 04	 mov	 ebx, DWORD PTR [ebx+4]
  00103	eb 05		 jmp	 SHORT $LN28@ResultPeny
$LN51@ResultPeny:

; 1429 : 		return "";

  00105	bb 00 00 00 00	 mov	 ebx, OFFSET ??_C@_00CNPNBAHC@@
$LN28@ResultPeny:

; 1427 : 	VERIFY_RANGE( (int)( dwIndex ), 0, m_colorText.GetSize(), "GetText range_error", "error" );

  0010a	3d 22 0c 00 00	 cmp	 eax, 3106		; 00000c22H
  0010f	7f 21		 jg	 SHORT $LN26@ResultPeny

; 579  : 	LPCTSTR szErr = Error( _T( "%s min:%d, max:%d, index:%d" ), szMsg, nMin, nMax, nIndex ); 

  00111	68 22 0c 00 00	 push	 3106			; 00000c22H
  00116	50		 push	 eax
  00117	6a 00		 push	 0
  00119	68 00 00 00 00	 push	 OFFSET ??_C@_0BE@OHDBLHOM@GetText?5range_error@
  0011e	68 00 00 00 00	 push	 OFFSET ??_C@_0BM@HMFGHCP@?$CFs?5min?3?$CFd?0?5max?3?$CFd?0?5index?3?$CFd@
  00123	e8 00 00 00 00	 call	 ?Error@@YAPBDPBDZZ	; Error
  00128	83 c4 14	 add	 esp, 20			; 00000014H

; 1427 : 	VERIFY_RANGE( (int)( dwIndex ), 0, m_colorText.GetSize(), "GetText range_error", "error" );

  0012b	b8 00 00 00 00	 mov	 eax, OFFSET ??_C@_05KKCIMGE@error@
  00130	eb 16		 jmp	 SHORT $LN25@ResultPeny
$LN26@ResultPeny:
; File C:\IAGOS\server\v18\Source\Source\_Common\data.h

; 270  : 	if( dwIndex >= (DWORD)m_nMaxIndex )

  00132	76 0f		 jbe	 SHORT $LN52@ResultPeny

; 271  : 		return NULL;
; 272  : 	return (T*) m_apOffset[ dwIndex ];

  00134	8b 81 88 30 00
	00		 mov	 eax, DWORD PTR [ecx+12424]
; File C:\IAGOS\server\v18\Source\Source\_Common\Project.h

; 1428 : 	if( m_colorText.GetAt( dwIndex ) == NULL )

  0013a	85 c0		 test	 eax, eax
  0013c	74 05		 je	 SHORT $LN52@ResultPeny

; 1430 : 	return m_colorText.GetAt( dwIndex )->lpszData; 

  0013e	8b 40 04	 mov	 eax, DWORD PTR [eax+4]
  00141	eb 05		 jmp	 SHORT $LN25@ResultPeny
$LN52@ResultPeny:

; 1429 : 		return "";

  00143	b8 00 00 00 00	 mov	 eax, OFFSET ??_C@_00CNPNBAHC@@
$LN25@ResultPeny:
; File C:\IAGOS\server\v18\Source\Source\_Common\MiniGame.cpp

; 593  : 		g_dpDBClient.SendQueryPostMail( pUser->m_idPlayer, 0, ItemElem, SetPenya, (char*)GETTEXT( TID_GAME_SELLING_COST_0 ), (char*)GETTEXT( TID_MMI_FIVESYSTEM ) );

  00148	53		 push	 ebx
  00149	50		 push	 eax
  0014a	57		 push	 edi
  0014b	8d 85 40 ff ff
	ff		 lea	 eax, DWORD PTR _ItemElem$2[ebp]
  00151	b9 00 00 00 00	 mov	 ecx, OFFSET ?g_dpDBClient@@3VCDPDatabaseClient@@A ; g_dpDBClient
  00156	50		 push	 eax
  00157	6a 00		 push	 0
  00159	ff b6 34 02 00
	00		 push	 DWORD PTR [esi+564]
  0015f	e8 00 00 00 00	 call	 ?SendQueryPostMail@CDPDatabaseClient@@QAEXKKAAVCItemElem@@HPAD1@Z ; CDPDatabaseClient::SendQueryPostMail

; 594  : 		pUser->AddDefinedText( TID_GAME_MINIGAME_PENYA_POST, "" );

  00164	68 00 00 00 00	 push	 OFFSET ??_C@_00CNPNBAHC@@
  00169	68 6c 0c 00 00	 push	 3180			; 00000c6cH
  0016e	56		 push	 esi
  0016f	e8 00 00 00 00	 call	 ?AddDefinedText@CUser@@QAAXHPBDZZ ; CUser::AddDefinedText
  00174	83 c4 0c	 add	 esp, 12			; 0000000cH

; 595  : 		aLogItem.RecvName = "FIVESYSTEM_PRIZE_POST";

  00177	c7 85 80 fe ff
	ff 00 00 00 00	 mov	 DWORD PTR _aLogItem$[ebp+8], OFFSET ??_C@_0BG@JBDMGAGO@FIVESYSTEM_PRIZE_POST@

; 596  : 	}

  00181	8d 8d 40 ff ff
	ff		 lea	 ecx, DWORD PTR _ItemElem$2[ebp]
  00187	c7 45 fc ff ff
	ff ff		 mov	 DWORD PTR __$EHRec$[ebp+8], -1
  0018e	e8 00 00 00 00	 call	 ??1CItemElem@@UAE@XZ	; CItemElem::~CItemElem
  00193	eb 0a		 jmp	 SHORT $LN6@ResultPeny
$LN5@ResultPeny:

; 597  : 	else
; 598  : 		pUser->AddGold( SetPenya );

  00195	6a 01		 push	 1
  00197	57		 push	 edi
  00198	8b ce		 mov	 ecx, esi
  0019a	e8 00 00 00 00	 call	 ?AddGold@CMover@@QAEHHH@Z ; CMover::AddGold
$LN6@ResultPeny:

; 599  : 
; 600  : 	aLogItem.Action = "+";
; 601  : 	aLogItem.SendName = pUser->GetName();

  0019f	6a 00		 push	 0
  001a1	8b ce		 mov	 ecx, esi
  001a3	c7 85 78 fe ff
	ff 00 00 00 00	 mov	 DWORD PTR _aLogItem$[ebp], OFFSET ??_C@_01MIFGBAGJ@?$CL@
  001ad	e8 00 00 00 00	 call	 ?GetName@CMover@@QAEPBDH@Z ; CMover::GetName

; 602  : 	aLogItem.WorldId = pUser->GetWorld()->GetID();
; 603  : 	aLogItem.Gold = pUser->GetGold() - SetPenya;

  001b2	8b 8e e0 14 00
	00		 mov	 ecx, DWORD PTR [esi+5344]
  001b8	89 85 7c fe ff
	ff		 mov	 DWORD PTR _aLogItem$[ebp+4], eax
  001be	8b 86 6c 01 00
	00		 mov	 eax, DWORD PTR [esi+364]

; 604  : 	aLogItem.Gold2 = pUser->GetGold();
; 605  : 	//aLogItem.ItemName = "SEED";
; 606  : 	_stprintf( aLogItem.szItemName, "%d", II_GOLD_SEED1 );

  001c4	6a 0c		 push	 12			; 0000000cH
  001c6	68 00 00 00 00	 push	 OFFSET ??_C@_02DPKJAMEF@?$CFd@
  001cb	8b 00		 mov	 eax, DWORD PTR [eax]
  001cd	89 85 84 fe ff
	ff		 mov	 DWORD PTR _aLogItem$[ebp+12], eax
  001d3	8b c1		 mov	 eax, ecx
  001d5	2b c7		 sub	 eax, edi
  001d7	89 8d 8c fe ff
	ff		 mov	 DWORD PTR _aLogItem$[ebp+20], ecx
  001dd	89 85 88 fe ff
	ff		 mov	 DWORD PTR _aLogItem$[ebp+16], eax
  001e3	8d 85 9c fe ff
	ff		 lea	 eax, DWORD PTR _aLogItem$[ebp+36]
  001e9	50		 push	 eax
  001ea	e8 00 00 00 00	 call	 _sprintf
  001ef	83 c4 0c	 add	 esp, 12			; 0000000cH

; 607  : 	aLogItem.itemNumber = SetPenya;

  001f2	89 bd bc fe ff
	ff		 mov	 DWORD PTR _aLogItem$[ebp+68], edi

; 608  : 	g_DPSrvr.OnLogItem( aLogItem );

  001f8	8d 85 78 fe ff
	ff		 lea	 eax, DWORD PTR _aLogItem$[ebp]
  001fe	b9 00 00 00 00	 mov	 ecx, OFFSET ?g_DPSrvr@@3VCDPSrvr@@A ; g_DPSrvr
  00203	6a 00		 push	 0
  00205	6a 00		 push	 0
  00207	50		 push	 eax
  00208	e8 00 00 00 00	 call	 ?OnLogItem@CDPSrvr@@QAEXAAU_LogItemInfo@@PAVCItemElem@@H@Z ; CDPSrvr::OnLogItem

; 609  : 	
; 610  : 	pUser->AddFiveSystemResult( nResult, SetPenya );

  0020d	6a 00		 push	 0
  0020f	57		 push	 edi
  00210	ff b5 74 fe ff
	ff		 push	 DWORD PTR _nResult$GSCopy$1$[ebp]
  00216	8b ce		 mov	 ecx, esi
  00218	e8 00 00 00 00	 call	 ?AddFiveSystemResult@CUser@@QAEXHHH@Z ; CUser::AddFiveSystemResult

; 611  : 	
; 612  : 	return TRUE;

  0021d	b8 01 00 00 00	 mov	 eax, 1

; 613  : }

  00222	8b 4d f4	 mov	 ecx, DWORD PTR __$EHRec$[ebp]
  00225	64 89 0d 00 00
	00 00		 mov	 DWORD PTR fs:0, ecx
  0022c	59		 pop	 ecx
  0022d	5f		 pop	 edi
  0022e	5e		 pop	 esi
  0022f	5b		 pop	 ebx
  00230	8b 4d f0	 mov	 ecx, DWORD PTR __$ArrayPad$[ebp]
  00233	33 cd		 xor	 ecx, ebp
  00235	e8 00 00 00 00	 call	 @__security_check_cookie@4
  0023a	8b e5		 mov	 esp, ebp
  0023c	5d		 pop	 ebp
  0023d	c2 08 00	 ret	 8
_TEXT	ENDS
;	COMDAT text$x
text$x	SEGMENT
__unwindfunclet$?ResultPenya_FiveSystem@CMiniGame@@QAEHPAVCUser@@H@Z$0:
  00000	8d 8d 40 ff ff
	ff		 lea	 ecx, DWORD PTR _ItemElem$2[ebp]
  00006	e9 00 00 00 00	 jmp	 ??1CItemElem@@UAE@XZ	; CItemElem::~CItemElem
  0000b	cc		 int	 3
  0000c	cc		 int	 3
  0000d	cc		 int	 3
  0000e	cc		 int	 3
  0000f	cc		 int	 3
__ehhandler$?ResultPenya_FiveSystem@CMiniGame@@QAEHPAVCUser@@H@Z:
  00010	90		 npad	 1
  00011	90		 npad	 1
  00012	8b 54 24 08	 mov	 edx, DWORD PTR [esp+8]
  00016	8d 42 0c	 lea	 eax, DWORD PTR [edx+12]
  00019	8b 8a 6c fe ff
	ff		 mov	 ecx, DWORD PTR [edx-404]
  0001f	33 c8		 xor	 ecx, eax
  00021	e8 00 00 00 00	 call	 @__security_check_cookie@4
  00026	8b 4a fc	 mov	 ecx, DWORD PTR [edx-4]
  00029	33 c8		 xor	 ecx, eax
  0002b	e8 00 00 00 00	 call	 @__security_check_cookie@4
  00030	b8 00 00 00 00	 mov	 eax, OFFSET __ehfuncinfo$?ResultPenya_FiveSystem@CMiniGame@@QAEHPAVCUser@@H@Z
  00035	e9 00 00 00 00	 jmp	 ___CxxFrameHandler3
text$x	ENDS
?ResultPenya_FiveSystem@CMiniGame@@QAEHPAVCUser@@H@Z ENDP ; CMiniGame::ResultPenya_FiveSystem
; Function compile flags: /Ogtp
; File C:\IAGOS\server\v18\Source\Source\_Common\MiniGame.cpp
; File C:\Program Files\Microsoft Visual Studio\2022\Professional\VC\Tools\MSVC\14.44.35207\include\xtree
; File C:\IAGOS\server\v18\Source\Source\_Common\MiniGame.cpp
; File C:\Program Files\Microsoft Visual Studio\2022\Professional\VC\Tools\MSVC\14.44.35207\include\xtree
; File C:\Program Files\Microsoft Visual Studio\2022\Professional\VC\Tools\MSVC\14.44.35207\include\type_traits
; File C:\Program Files\Microsoft Visual Studio\2022\Professional\VC\Tools\MSVC\14.44.35207\include\xtree
; File C:\IAGOS\server\v18\Source\Source\_Common\MiniGame.cpp
; File C:\IAGOS\server\v18\Source\Source\_Common\xUtil.h
; File C:\IAGOS\server\v18\Source\Source\_Common\MiniGame.cpp
; File C:\IAGOS\server\v18\Source\Source\_Common\xUtil.h
; File C:\IAGOS\server\v18\Source\Source\_Common\MiniGame.cpp
; File C:\IAGOS\server\v18\Source\Source\_Common\xUtil.h
; File C:\IAGOS\server\v18\Source\Source\_Common\MiniGame.cpp
;	COMDAT ?Result_FiveSystem@CMiniGame@@QAEHPAVCUser@@@Z
_TEXT	SEGMENT
__Loc$1 = -16						; size = 12
_this$1$ = -4						; size = 4
_prob$2$ = -4						; size = 4
_pUser$ = 8						; size = 4
_nMaxCount$ = 8						; size = 4
_prob$1$ = 8						; size = 4
?Result_FiveSystem@CMiniGame@@QAEHPAVCUser@@@Z PROC	; CMiniGame::Result_FiveSystem, COMDAT
; _this$ = ecx

; 538  : {

  00000	55		 push	 ebp
  00001	8b ec		 mov	 ebp, esp
  00003	83 ec 10	 sub	 esp, 16			; 00000010H

; 539  : 	// ĂÖ°í ŔÔÂű±Ý ą× °ąĽö
; 540  : 	int nMaxBet = 0;
; 541  : 	int nMaxCount = 0;
; 542  : 
; 543  : 	for( int i=0; i<6; ++i )
; 544  : 	{
; 545  : 		if( pUser->m_nBetFiveSystem[i] > nMaxBet )

  00006	8b 45 08	 mov	 eax, DWORD PTR _pUser$[ebp]
  00009	53		 push	 ebx
  0000a	56		 push	 esi
  0000b	8d 98 fc 8e 00
	00		 lea	 ebx, DWORD PTR [eax+36604]
  00011	89 4d fc	 mov	 DWORD PTR _this$1$[ebp], ecx
  00014	8b 0b		 mov	 ecx, DWORD PTR [ebx]
  00016	33 f6		 xor	 esi, esi
  00018	57		 push	 edi
  00019	33 ff		 xor	 edi, edi
  0001b	85 c9		 test	 ecx, ecx
  0001d	7e 04		 jle	 SHORT $LN8@Result_Fiv

; 546  : 		{
; 547  : 			nMaxBet = pUser->m_nBetFiveSystem[i];

  0001f	8b f9		 mov	 edi, ecx

; 549  : 		}

  00021	eb 06		 jmp	 SHORT $LN112@Result_Fiv
$LN8@Result_Fiv:

; 550  : 		else if( pUser->m_nBetFiveSystem[i] == nMaxBet )

  00023	33 d2		 xor	 edx, edx
  00025	85 c9		 test	 ecx, ecx
  00027	75 07		 jne	 SHORT $LN2@Result_Fiv
$LN112@Result_Fiv:

; 539  : 	// ĂÖ°í ŔÔÂű±Ý ą× °ąĽö
; 540  : 	int nMaxBet = 0;
; 541  : 	int nMaxCount = 0;
; 542  : 
; 543  : 	for( int i=0; i<6; ++i )
; 544  : 	{
; 545  : 		if( pUser->m_nBetFiveSystem[i] > nMaxBet )

  00029	be 01 00 00 00	 mov	 esi, 1
  0002e	8b d6		 mov	 edx, esi
$LN2@Result_Fiv:
  00030	8b 88 00 8f 00
	00		 mov	 ecx, DWORD PTR [eax+36608]
  00036	3b cf		 cmp	 ecx, edi
  00038	7e 09		 jle	 SHORT $LN78@Result_Fiv

; 546  : 		{
; 547  : 			nMaxBet = pUser->m_nBetFiveSystem[i];

  0003a	8b f9		 mov	 edi, ecx

; 548  : 			nMaxCount = 1;

  0003c	be 01 00 00 00	 mov	 esi, 1

; 549  : 		}

  00041	eb 05		 jmp	 SHORT $LN79@Result_Fiv
$LN78@Result_Fiv:

; 550  : 		else if( pUser->m_nBetFiveSystem[i] == nMaxBet )

  00043	75 03		 jne	 SHORT $LN79@Result_Fiv

; 551  : 			++nMaxCount;

  00045	8d 72 01	 lea	 esi, DWORD PTR [edx+1]
$LN79@Result_Fiv:

; 539  : 	// ĂÖ°í ŔÔÂű±Ý ą× °ąĽö
; 540  : 	int nMaxBet = 0;
; 541  : 	int nMaxCount = 0;
; 542  : 
; 543  : 	for( int i=0; i<6; ++i )
; 544  : 	{
; 545  : 		if( pUser->m_nBetFiveSystem[i] > nMaxBet )

  00048	8b 88 04 8f 00
	00		 mov	 ecx, DWORD PTR [eax+36612]
  0004e	3b cf		 cmp	 ecx, edi
  00050	7e 09		 jle	 SHORT $LN81@Result_Fiv

; 546  : 		{
; 547  : 			nMaxBet = pUser->m_nBetFiveSystem[i];

  00052	8b f9		 mov	 edi, ecx

; 548  : 			nMaxCount = 1;

  00054	be 01 00 00 00	 mov	 esi, 1

; 549  : 		}

  00059	eb 03		 jmp	 SHORT $LN82@Result_Fiv
$LN81@Result_Fiv:

; 550  : 		else if( pUser->m_nBetFiveSystem[i] == nMaxBet )

  0005b	75 01		 jne	 SHORT $LN82@Result_Fiv

; 551  : 			++nMaxCount;

  0005d	46		 inc	 esi
$LN82@Result_Fiv:

; 539  : 	// ĂÖ°í ŔÔÂű±Ý ą× °ąĽö
; 540  : 	int nMaxBet = 0;
; 541  : 	int nMaxCount = 0;
; 542  : 
; 543  : 	for( int i=0; i<6; ++i )
; 544  : 	{
; 545  : 		if( pUser->m_nBetFiveSystem[i] > nMaxBet )

  0005e	8b 88 08 8f 00
	00		 mov	 ecx, DWORD PTR [eax+36616]
  00064	3b cf		 cmp	 ecx, edi
  00066	7e 09		 jle	 SHORT $LN84@Result_Fiv

; 546  : 		{
; 547  : 			nMaxBet = pUser->m_nBetFiveSystem[i];

  00068	8b f9		 mov	 edi, ecx

; 548  : 			nMaxCount = 1;

  0006a	be 01 00 00 00	 mov	 esi, 1

; 549  : 		}

  0006f	eb 03		 jmp	 SHORT $LN85@Result_Fiv
$LN84@Result_Fiv:

; 550  : 		else if( pUser->m_nBetFiveSystem[i] == nMaxBet )

  00071	75 01		 jne	 SHORT $LN85@Result_Fiv

; 551  : 			++nMaxCount;

  00073	46		 inc	 esi
$LN85@Result_Fiv:

; 539  : 	// ĂÖ°í ŔÔÂű±Ý ą× °ąĽö
; 540  : 	int nMaxBet = 0;
; 541  : 	int nMaxCount = 0;
; 542  : 
; 543  : 	for( int i=0; i<6; ++i )
; 544  : 	{
; 545  : 		if( pUser->m_nBetFiveSystem[i] > nMaxBet )

  00074	8b 88 0c 8f 00
	00		 mov	 ecx, DWORD PTR [eax+36620]
  0007a	3b cf		 cmp	 ecx, edi
  0007c	7e 09		 jle	 SHORT $LN87@Result_Fiv

; 546  : 		{
; 547  : 			nMaxBet = pUser->m_nBetFiveSystem[i];

  0007e	8b f9		 mov	 edi, ecx

; 548  : 			nMaxCount = 1;

  00080	be 01 00 00 00	 mov	 esi, 1

; 549  : 		}

  00085	eb 03		 jmp	 SHORT $LN88@Result_Fiv
$LN87@Result_Fiv:

; 550  : 		else if( pUser->m_nBetFiveSystem[i] == nMaxBet )

  00087	75 01		 jne	 SHORT $LN88@Result_Fiv

; 551  : 			++nMaxCount;

  00089	46		 inc	 esi
$LN88@Result_Fiv:

; 539  : 	// ĂÖ°í ŔÔÂű±Ý ą× °ąĽö
; 540  : 	int nMaxBet = 0;
; 541  : 	int nMaxCount = 0;
; 542  : 
; 543  : 	for( int i=0; i<6; ++i )
; 544  : 	{
; 545  : 		if( pUser->m_nBetFiveSystem[i] > nMaxBet )

  0008a	8b 80 10 8f 00
	00		 mov	 eax, DWORD PTR [eax+36624]
  00090	3b c7		 cmp	 eax, edi
  00092	7e 09		 jle	 SHORT $LN90@Result_Fiv

; 546  : 		{
; 547  : 			nMaxBet = pUser->m_nBetFiveSystem[i];

  00094	8b f8		 mov	 edi, eax

; 548  : 			nMaxCount = 1;

  00096	be 01 00 00 00	 mov	 esi, 1

; 549  : 		}

  0009b	eb 0b		 jmp	 SHORT $LN113@Result_Fiv
$LN90@Result_Fiv:

; 550  : 		else if( pUser->m_nBetFiveSystem[i] == nMaxBet )

  0009d	75 01		 jne	 SHORT $LN91@Result_Fiv

; 551  : 			++nMaxCount;

  0009f	46		 inc	 esi
$LN91@Result_Fiv:

; 552  : 	}
; 553  : 		
; 554  : 	if( nMaxCount == 6 )	nMaxCount = 0;

  000a0	33 c0		 xor	 eax, eax
  000a2	83 fe 06	 cmp	 esi, 6
  000a5	0f 44 f0	 cmove	 esi, eax
$LN113@Result_Fiv:

; 556  : 	map<int, __FIVESYSTEM>::iterator it = m_mapFiveSystem.find( nMaxCount );

  000a8	8b 45 fc	 mov	 eax, DWORD PTR _this$1$[ebp]
; File C:\Program Files\Microsoft Visual Studio\2022\Professional\VC\Tools\MSVC\14.44.35207\include\xtree

; 1384 :         const _Tree_find_result<_Nodeptr> _Loc = _Find_lower_bound(_Keyval);

  000ab	8d 4d 08	 lea	 ecx, DWORD PTR _nMaxCount$[ebp]
  000ae	51		 push	 ecx
  000af	8d 4d f0	 lea	 ecx, DWORD PTR __Loc$1[ebp]
; File C:\IAGOS\server\v18\Source\Source\_Common\MiniGame.cpp

; 556  : 	map<int, __FIVESYSTEM>::iterator it = m_mapFiveSystem.find( nMaxCount );

  000b2	89 75 08	 mov	 DWORD PTR _nMaxCount$[ebp], esi
; File C:\Program Files\Microsoft Visual Studio\2022\Professional\VC\Tools\MSVC\14.44.35207\include\xtree

; 1384 :         const _Tree_find_result<_Nodeptr> _Loc = _Find_lower_bound(_Keyval);

  000b5	51		 push	 ecx
  000b6	8d 48 2c	 lea	 ecx, DWORD PTR [eax+44]
  000b9	e8 00 00 00 00	 call	 ??$_Find_lower_bound@H@?$_Tree@V?$_Tmap_traits@HU__FIVESYSTEM@CMiniGame@@U?$less@H@std@@V?$allocator@U?$pair@$$CBHU__FIVESYSTEM@CMiniGame@@@std@@@4@$0A@@std@@@std@@IBE?AU?$_Tree_find_result@PAU?$_Tree_node@U?$pair@$$CBHU__FIVESYSTEM@CMiniGame@@@std@@PAX@std@@@1@ABH@Z ; std::_Tree<std::_Tmap_traits<int,CMiniGame::__FIVESYSTEM,std::less<int>,std::allocator<std::pair<int const ,CMiniGame::__FIVESYSTEM> >,0> >::_Find_lower_bound<int>

; 1624 :         return !_Bound->_Isnil && !_DEBUG_LT_PRED(_Getcomp(), _Keyval, _Traits::_Kfn(_Bound->_Myval));

  000be	8b 45 f8	 mov	 eax, DWORD PTR __Loc$1[ebp+8]
  000c1	80 78 0d 00	 cmp	 BYTE PTR [eax+13], 0
  000c5	75 61		 jne	 SHORT $LN6@Result_Fiv
; File C:\Program Files\Microsoft Visual Studio\2022\Professional\VC\Tools\MSVC\14.44.35207\include\type_traits

; 2380 :         return _Left < _Right;

  000c7	3b 70 10	 cmp	 esi, DWORD PTR [eax+16]
; File C:\Program Files\Microsoft Visual Studio\2022\Professional\VC\Tools\MSVC\14.44.35207\include\xtree

; 1624 :         return !_Bound->_Isnil && !_DEBUG_LT_PRED(_Getcomp(), _Keyval, _Traits::_Kfn(_Bound->_Myval));

  000ca	7c 5c		 jl	 SHORT $LN6@Result_Fiv

; 37   :     _Tree_unchecked_const_iterator(_Nodeptr _Pnode, const _Mytree* _Plist) noexcept : _Ptr(_Pnode) {

  000cc	8b 4d fc	 mov	 ecx, DWORD PTR _this$1$[ebp]
  000cf	3b 41 2c	 cmp	 eax, DWORD PTR [ecx+44]
; File C:\IAGOS\server\v18\Source\Source\_Common\MiniGame.cpp

; 557  : 	if( it == m_mapFiveSystem.end() )	return 0;

  000d2	74 54		 je	 SHORT $LN6@Result_Fiv

; 559  : 	__FIVESYSTEM prob = it->second;

  000d4	8b 48 14	 mov	 ecx, DWORD PTR [eax+20]
; File C:\IAGOS\server\v18\Source\Source\_Common\xUtil.h

; 16   : 	g_next = g_next * 1103515245 + 12345;// + nRandomSeed[ i++ ];

  000d7	69 35 00 00 00
	00 6d 4e c6 41	 imul	 esi, DWORD PTR ?g_next@@3KA, 1103515245 ; g_next
; File C:\IAGOS\server\v18\Source\Source\_Common\MiniGame.cpp

; 559  : 	__FIVESYSTEM prob = it->second;

  000e1	8b 40 18	 mov	 eax, DWORD PTR [eax+24]
  000e4	89 45 fc	 mov	 DWORD PTR _prob$2$[ebp], eax
; File C:\IAGOS\server\v18\Source\Source\_Common\xUtil.h

; 22   : 	return  xRand() % num;

  000e7	b8 83 de 1b 43	 mov	 eax, 1125899907		; 431bde83H
; File C:\IAGOS\server\v18\Source\Source\_Common\MiniGame.cpp

; 559  : 	__FIVESYSTEM prob = it->second;

  000ec	89 4d 08	 mov	 DWORD PTR _prob$1$[ebp], ecx
; File C:\IAGOS\server\v18\Source\Source\_Common\xUtil.h

; 16   : 	g_next = g_next * 1103515245 + 12345;// + nRandomSeed[ i++ ];

  000ef	81 c6 39 30 00
	00		 add	 esi, 12345		; 00003039H

; 22   : 	return  xRand() % num;

  000f5	f7 e6		 mul	 esi

; 16   : 	g_next = g_next * 1103515245 + 12345;// + nRandomSeed[ i++ ];

  000f7	89 35 00 00 00
	00		 mov	 DWORD PTR ?g_next@@3KA, esi ; g_next

; 22   : 	return  xRand() % num;

  000fd	c1 ea 12	 shr	 edx, 18			; 00000012H
  00100	69 c2 40 42 0f
	00		 imul	 eax, edx, 1000000
  00106	8b 55 08	 mov	 edx, DWORD PTR _prob$1$[ebp]
  00109	2b f0		 sub	 esi, eax
; File C:\IAGOS\server\v18\Source\Source\_Common\MiniGame.cpp

; 562  : 	int nSum = 0;

  0010b	33 c0		 xor	 eax, eax

; 563  : 
; 564  : 	for( int i=0; i<6; ++i )

  0010d	33 c9		 xor	 ecx, ecx
  0010f	90		 npad	 1
$LL7@Result_Fiv:

; 565  : 	{
; 566  : 		if( pUser->m_nBetFiveSystem[i] == nMaxBet )

  00110	39 3b		 cmp	 DWORD PTR [ebx], edi
  00112	75 04		 jne	 SHORT $LN13@Result_Fiv

; 567  : 			nSum += prob.dwMin;

  00114	03 c2		 add	 eax, edx
  00116	eb 03		 jmp	 SHORT $LN14@Result_Fiv
$LN13@Result_Fiv:

; 568  : 		else
; 569  : 			nSum += prob.dwMax;

  00118	03 45 fc	 add	 eax, DWORD PTR _prob$2$[ebp]
$LN14@Result_Fiv:

; 570  : 
; 571  : 		if( nSum > nRandom )

  0011b	3b c6		 cmp	 eax, esi
  0011d	7f 14		 jg	 SHORT $LN68@Result_Fiv

; 563  : 
; 564  : 	for( int i=0; i<6; ++i )

  0011f	41		 inc	 ecx
  00120	83 c3 04	 add	 ebx, 4
  00123	83 f9 06	 cmp	 ecx, 6
  00126	7c e8		 jl	 SHORT $LL7@Result_Fiv
$LN6@Result_Fiv:
  00128	5f		 pop	 edi

; 572  : 			return i;
; 573  : 	}
; 574  : 
; 575  : 	return 0;
; 576  : }

  00129	5e		 pop	 esi
  0012a	33 c0		 xor	 eax, eax
  0012c	5b		 pop	 ebx
  0012d	8b e5		 mov	 esp, ebp
  0012f	5d		 pop	 ebp
  00130	c2 04 00	 ret	 4
$LN68@Result_Fiv:
  00133	5f		 pop	 edi
  00134	5e		 pop	 esi
  00135	8b c1		 mov	 eax, ecx
  00137	5b		 pop	 ebx
  00138	8b e5		 mov	 esp, ebp
  0013a	5d		 pop	 ebp
  0013b	c2 04 00	 ret	 4
?Result_FiveSystem@CMiniGame@@QAEHPAVCUser@@@Z ENDP	; CMiniGame::Result_FiveSystem
_TEXT	ENDS
; Function compile flags: /Ogtp
; File C:\IAGOS\server\v18\Source\Source\_Common\MiniGame.cpp
;	COMDAT ?Bet_FiveSystem@CMiniGame@@QAEHPAVCUser@@HH@Z
_TEXT	SEGMENT
_pUser$GSCopy$1$ = -408					; size = 4
tv355 = -404						; size = 4
tv340 = -400						; size = 4
_nBetNum$GSCopy$1$ = -396				; size = 4
_aLogItem$ = -392					; size = 200
_ItemElem$2 = -192					; size = 176
__$ArrayPad$ = -16					; size = 4
__$EHRec$ = -12						; size = 12
_pUser$ = 8						; size = 4
_nBetNum$ = 12						; size = 4
_nBetPenya$ = 16					; size = 4
?Bet_FiveSystem@CMiniGame@@QAEHPAVCUser@@HH@Z PROC	; CMiniGame::Bet_FiveSystem, COMDAT
; _this$ = ecx

; 483  : {

  00000	55		 push	 ebp
  00001	8b ec		 mov	 ebp, esp
  00003	6a ff		 push	 -1
  00005	68 00 00 00 00	 push	 __ehhandler$?Bet_FiveSystem@CMiniGame@@QAEHPAVCUser@@HH@Z
  0000a	64 a1 00 00 00
	00		 mov	 eax, DWORD PTR fs:0
  00010	50		 push	 eax
  00011	81 ec 8c 01 00
	00		 sub	 esp, 396		; 0000018cH
  00017	a1 00 00 00 00	 mov	 eax, DWORD PTR ___security_cookie
  0001c	33 c5		 xor	 eax, ebp
  0001e	89 45 f0	 mov	 DWORD PTR __$ArrayPad$[ebp], eax
  00021	53		 push	 ebx
  00022	56		 push	 esi
  00023	57		 push	 edi
  00024	50		 push	 eax
  00025	8d 45 f4	 lea	 eax, DWORD PTR __$EHRec$[ebp]
  00028	64 a3 00 00 00
	00		 mov	 DWORD PTR fs:0, eax
  0002e	8b 45 0c	 mov	 eax, DWORD PTR _nBetNum$[ebp]
  00031	8b 7d 08	 mov	 edi, DWORD PTR _pUser$[ebp]

; 484  : 	// ŔÔÂű ąřČŁżˇ ŔĚŔü °ŞŔĚ 0ŔĚ°í ÇöŔç ŔÔÂű±ÝŔĚ 0ŔĎ¶§ ľĆą«ŔĎµµ ľČÇÔ(·Î±× X)
; 485  : 	if( pUser->m_nBetFiveSystem[nBetNum] == 0 && nBetPenya == 0 )

  00034	8b 5d 10	 mov	 ebx, DWORD PTR _nBetPenya$[ebp]
  00037	89 85 74 fe ff
	ff		 mov	 DWORD PTR _nBetNum$GSCopy$1$[ebp], eax
  0003d	8d 90 bf 23 00
	00		 lea	 edx, DWORD PTR [eax+9151]
  00043	89 bd 68 fe ff
	ff		 mov	 DWORD PTR _pUser$GSCopy$1$[ebp], edi
  00049	8b 34 97	 mov	 esi, DWORD PTR [edi+edx*4]
  0004c	8d 14 97	 lea	 edx, DWORD PTR [edi+edx*4]
  0004f	89 95 6c fe ff
	ff		 mov	 DWORD PTR tv355[ebp], edx
  00055	85 f6		 test	 esi, esi
  00057	75 08		 jne	 SHORT $LN15@Bet_FiveSy
  00059	85 db		 test	 ebx, ebx
  0005b	0f 84 a6 01 00
	00		 je	 $LN22@Bet_FiveSy
$LN15@Bet_FiveSy:

; 486  : 		return TRUE;
; 487  : 	// Ŕß¸řµČ ŔÔÂű ąřČŁ°ˇ µéľî żÔŔ» ¶§
; 488  : 	if( nBetNum < 0 || 5 < nBetNum )

  00061	83 f8 05	 cmp	 eax, 5
  00064	0f 87 ab 01 00
	00		 ja	 $LN4@Bet_FiveSy

; 490  : 	// ŔÔÂű±ÝŔş 0ş¸´Ů ŔŰŔ» Ľö ľř´Ů.
; 491  : 	if(nBetPenya < 0)

  0006a	85 db		 test	 ebx, ebx
  0006c	0f 88 a3 01 00
	00		 js	 $LN4@Bet_FiveSy

; 492  : 		return FIVESYSTEM_FAILED;
; 493  : 
; 494  : 	// ĂÖĽŇ ŔÔÂű±Ý°ú ĂÖ´ë ŔÔÂű±ÝŔÇ ąüŔ§¸¦ ąţľîłµŔ» °ćżě ( Client żˇĽ­ ŔĚąĚ °Ë»ç.. )
; 495  : 	if( ( nBetPenya < m_nBetMinPenya || nBetPenya > m_nBetMaxPenya ) && nBetPenya != 0 )

  00072	3b 59 04	 cmp	 ebx, DWORD PTR [ecx+4]
  00075	7c 05		 jl	 SHORT $LN7@Bet_FiveSy
  00077	3b 59 08	 cmp	 ebx, DWORD PTR [ecx+8]
  0007a	7e 08		 jle	 SHORT $LN16@Bet_FiveSy
$LN7@Bet_FiveSy:
  0007c	85 db		 test	 ebx, ebx
  0007e	0f 85 8a 01 00
	00		 jne	 $LN18@Bet_FiveSy
$LN16@Bet_FiveSy:

; 496  : 		return FIVESYSTEM_NOTENOUGH;
; 497  : 	
; 498  : 	// ŔÔÂű ¶Ç´Â ŔçŔÔÂű ±Ýľ×ŔĚ şÎÁ·ÇŃÁö °Ë»ç
; 499  : 	DWORD nGold = pUser->GetGold() + pUser->m_nBetFiveSystem[nBetNum];

  00084	8b 87 e0 14 00
	00		 mov	 eax, DWORD PTR [edi+5344]
  0008a	03 c6		 add	 eax, esi
  0008c	89 85 70 fe ff
	ff		 mov	 DWORD PTR tv340[ebp], eax

; 500  : 	if( (int)( nGold ) < nBetPenya )

  00092	3b c3		 cmp	 eax, ebx
  00094	0f 8c 74 01 00
	00		 jl	 $LN18@Bet_FiveSy

; 502  : 
; 503  : 	LogItemInfo aLogItem;

  0009a	8d 8d 78 fe ff
	ff		 lea	 ecx, DWORD PTR _aLogItem$[ebp]
  000a0	e8 00 00 00 00	 call	 ??0_LogItemInfo@@QAE@XZ	; _LogItemInfo::_LogItemInfo

; 504  : 	aLogItem.RecvName = "FIVESYSTEM_USE";
; 505  : 	BOOL bAddGold = TRUE;
; 506  : 	if( 0 < pUser->m_nBetFiveSystem[nBetNum] - nBetPenya )		// ±âÁ¸żˇ °ÉŔş°Íş¸´Ů Ŕű°Ô °ÉľĆĽ­ ş¸»ó±Ýľ×

  000a5	2b f3		 sub	 esi, ebx
  000a7	c7 85 80 fe ff
	ff 00 00 00 00	 mov	 DWORD PTR _aLogItem$[ebp+8], OFFSET ??_C@_0P@BABCCKAN@FIVESYSTEM_USE@
  000b1	85 f6		 test	 esi, esi
  000b3	0f 8e a2 00 00
	00		 jle	 $LN17@Bet_FiveSy

; 507  : 	{
; 508  : 		int nTotal = pUser->GetGold() + pUser->m_nBetFiveSystem[nBetNum] - nBetPenya;

  000b9	8b 85 70 fe ff
	ff		 mov	 eax, DWORD PTR tv340[ebp]
  000bf	2b c3		 sub	 eax, ebx

; 509  : 		if( nTotal < 0 )		// overflow?

  000c1	0f 89 94 00 00
	00		 jns	 $LN17@Bet_FiveSy

; 510  : 		{
; 511  : 			CItemElem ItemElem;

  000c7	8d 8d 40 ff ff
	ff		 lea	 ecx, DWORD PTR _ItemElem$2[ebp]
  000cd	e8 00 00 00 00	 call	 ??0CItemElem@@QAE@XZ	; CItemElem::CItemElem

; 512  : 			g_dpDBClient.SendQueryPostMail( pUser->m_idPlayer, 0, ItemElem, pUser->m_nBetFiveSystem[nBetNum] - nBetPenya, (char*)GETTEXT( TID_GAME_SELLING_COST_0 ), (char*)GETTEXT( TID_MMI_FIVESYSTEM ) );

  000d2	8b b5 6c fe ff
	ff		 mov	 esi, DWORD PTR tv355[ebp]
  000d8	b9 00 00 00 00	 mov	 ecx, OFFSET ?prj@@3VCProject@@A ; prj
  000dd	8b bf 34 02 00
	00		 mov	 edi, DWORD PTR [edi+564]
  000e3	68 86 1b 00 00	 push	 7046			; 00001b86H
  000e8	c7 45 fc 00 00
	00 00		 mov	 DWORD PTR __$EHRec$[ebp+8], 0
  000ef	8b 36		 mov	 esi, DWORD PTR [esi]
  000f1	2b f3		 sub	 esi, ebx
  000f3	e8 00 00 00 00	 call	 ?GetText@CProject@@QAEPBDK@Z ; CProject::GetText
  000f8	50		 push	 eax
  000f9	68 22 0c 00 00	 push	 3106			; 00000c22H
  000fe	b9 00 00 00 00	 mov	 ecx, OFFSET ?prj@@3VCProject@@A ; prj
  00103	e8 00 00 00 00	 call	 ?GetText@CProject@@QAEPBDK@Z ; CProject::GetText
  00108	50		 push	 eax
  00109	56		 push	 esi
  0010a	8d 85 40 ff ff
	ff		 lea	 eax, DWORD PTR _ItemElem$2[ebp]
  00110	b9 00 00 00 00	 mov	 ecx, OFFSET ?g_dpDBClient@@3VCDPDatabaseClient@@A ; g_dpDBClient
  00115	50		 push	 eax
  00116	6a 00		 push	 0
  00118	57		 push	 edi
  00119	e8 00 00 00 00	 call	 ?SendQueryPostMail@CDPDatabaseClient@@QAEXKKAAVCItemElem@@HPAD1@Z ; CDPDatabaseClient::SendQueryPostMail

; 513  : 			pUser->AddDefinedText( TID_GAME_MINIGAME_PENYA_POST, "" );

  0011e	8b bd 68 fe ff
	ff		 mov	 edi, DWORD PTR _pUser$GSCopy$1$[ebp]
  00124	68 00 00 00 00	 push	 OFFSET ??_C@_00CNPNBAHC@@
  00129	68 6c 0c 00 00	 push	 3180			; 00000c6cH
  0012e	57		 push	 edi
  0012f	e8 00 00 00 00	 call	 ?AddDefinedText@CUser@@QAAXHPBDZZ ; CUser::AddDefinedText
  00134	83 c4 0c	 add	 esp, 12			; 0000000cH

; 514  : 			aLogItem.RecvName = "FIVESYSTEM_USE_POST";

  00137	c7 85 80 fe ff
	ff 00 00 00 00	 mov	 DWORD PTR _aLogItem$[ebp+8], OFFSET ??_C@_0BE@NEOONLJP@FIVESYSTEM_USE_POST@

; 515  : 			bAddGold = FALSE;
; 516  : 		}

  00141	8d 8d 40 ff ff
	ff		 lea	 ecx, DWORD PTR _ItemElem$2[ebp]
  00147	c7 45 fc ff ff
	ff ff		 mov	 DWORD PTR __$EHRec$[ebp+8], -1
  0014e	e8 00 00 00 00	 call	 ??1CItemElem@@UAE@XZ	; CItemElem::~CItemElem
  00153	8b b5 74 fe ff
	ff		 mov	 esi, DWORD PTR _nBetNum$GSCopy$1$[ebp]
  00159	eb 19		 jmp	 SHORT $LN11@Bet_FiveSy
$LN17@Bet_FiveSy:

; 517  : 	}
; 518  : 	
; 519  : 	if( bAddGold )
; 520  : 		pUser->AddGold( pUser->m_nBetFiveSystem[nBetNum] - nBetPenya );

  0015b	8b b5 74 fe ff
	ff		 mov	 esi, DWORD PTR _nBetNum$GSCopy$1$[ebp]
  00161	8b cf		 mov	 ecx, edi
  00163	6a 01		 push	 1
  00165	8b 84 b7 fc 8e
	00 00		 mov	 eax, DWORD PTR [edi+esi*4+36604]
  0016c	2b c3		 sub	 eax, ebx
  0016e	50		 push	 eax
  0016f	e8 00 00 00 00	 call	 ?AddGold@CMover@@QAEHHH@Z ; CMover::AddGold
$LN11@Bet_FiveSy:

; 521  : 
; 522  : 	aLogItem.Action = "+";
; 523  : 	aLogItem.SendName = pUser->GetName();

  00174	6a 00		 push	 0
  00176	8b cf		 mov	 ecx, edi
  00178	c7 85 78 fe ff
	ff 00 00 00 00	 mov	 DWORD PTR _aLogItem$[ebp], OFFSET ??_C@_01MIFGBAGJ@?$CL@
  00182	e8 00 00 00 00	 call	 ?GetName@CMover@@QAEPBDH@Z ; CMover::GetName

; 524  : 	aLogItem.WorldId = pUser->GetWorld()->GetID();
; 525  : 	aLogItem.Gold = pUser->GetGold() - ( pUser->m_nBetFiveSystem[nBetNum] - nBetPenya );

  00187	8b 8f e0 14 00
	00		 mov	 ecx, DWORD PTR [edi+5344]
  0018d	89 85 7c fe ff
	ff		 mov	 DWORD PTR _aLogItem$[ebp+4], eax
  00193	8b 87 6c 01 00
	00		 mov	 eax, DWORD PTR [edi+364]

; 526  : 	aLogItem.Gold2 = pUser->GetGold();
; 527  : 	//aLogItem.ItemName = "SEED";
; 528  : 	_stprintf( aLogItem.szItemName, "%d", II_GOLD_SEED1 );

  00199	6a 0c		 push	 12			; 0000000cH
  0019b	68 00 00 00 00	 push	 OFFSET ??_C@_02DPKJAMEF@?$CFd@
  001a0	8b 00		 mov	 eax, DWORD PTR [eax]
  001a2	89 85 84 fe ff
	ff		 mov	 DWORD PTR _aLogItem$[ebp+12], eax
  001a8	8b c1		 mov	 eax, ecx
  001aa	2b 84 b7 fc 8e
	00 00		 sub	 eax, DWORD PTR [edi+esi*4+36604]
  001b1	03 c3		 add	 eax, ebx
  001b3	89 8d 8c fe ff
	ff		 mov	 DWORD PTR _aLogItem$[ebp+20], ecx
  001b9	89 85 88 fe ff
	ff		 mov	 DWORD PTR _aLogItem$[ebp+16], eax
  001bf	8d 85 9c fe ff
	ff		 lea	 eax, DWORD PTR _aLogItem$[ebp+36]
  001c5	50		 push	 eax
  001c6	e8 00 00 00 00	 call	 _sprintf

; 529  : 	aLogItem.itemNumber = pUser->m_nBetFiveSystem[nBetNum] - nBetPenya;

  001cb	8b 84 b7 fc 8e
	00 00		 mov	 eax, DWORD PTR [edi+esi*4+36604]
  001d2	83 c4 0c	 add	 esp, 12			; 0000000cH
  001d5	2b c3		 sub	 eax, ebx

; 530  : 	g_DPSrvr.OnLogItem( aLogItem );

  001d7	b9 00 00 00 00	 mov	 ecx, OFFSET ?g_DPSrvr@@3VCDPSrvr@@A ; g_DPSrvr
  001dc	89 85 bc fe ff
	ff		 mov	 DWORD PTR _aLogItem$[ebp+68], eax
  001e2	8d 85 78 fe ff
	ff		 lea	 eax, DWORD PTR _aLogItem$[ebp]
  001e8	6a 00		 push	 0
  001ea	6a 00		 push	 0
  001ec	50		 push	 eax
  001ed	e8 00 00 00 00	 call	 ?OnLogItem@CDPSrvr@@QAEXAAU_LogItemInfo@@PAVCItemElem@@H@Z ; CDPSrvr::OnLogItem

; 531  : 
; 532  : 	pUser->m_nBetFiveSystem[nBetNum] = nBetPenya;
; 533  : 	pUser->AddFiveSystemResult( FIVESYSTEM_BETOK, nBetPenya, nBetNum );

  001f2	56		 push	 esi
  001f3	53		 push	 ebx
  001f4	68 e4 03 00 00	 push	 996			; 000003e4H
  001f9	8b cf		 mov	 ecx, edi
  001fb	89 9c b7 fc 8e
	00 00		 mov	 DWORD PTR [edi+esi*4+36604], ebx
  00202	e8 00 00 00 00	 call	 ?AddFiveSystemResult@CUser@@QAEXHHH@Z ; CUser::AddFiveSystemResult
$LN22@Bet_FiveSy:

; 534  : 
; 535  : 	return TRUE;
; 536  : }

  00207	b8 01 00 00 00	 mov	 eax, 1
  0020c	eb 0c		 jmp	 SHORT $LN1@Bet_FiveSy
$LN18@Bet_FiveSy:

; 501  : 		return FIVESYSTEM_NOTENOUGH;

  0020e	b8 e7 03 00 00	 mov	 eax, 999		; 000003e7H
  00213	eb 05		 jmp	 SHORT $LN1@Bet_FiveSy
$LN4@Bet_FiveSy:

; 489  : 		return FIVESYSTEM_FAILED;

  00215	b8 e5 03 00 00	 mov	 eax, 997		; 000003e5H
$LN1@Bet_FiveSy:

; 534  : 
; 535  : 	return TRUE;
; 536  : }

  0021a	8b 4d f4	 mov	 ecx, DWORD PTR __$EHRec$[ebp]
  0021d	64 89 0d 00 00
	00 00		 mov	 DWORD PTR fs:0, ecx
  00224	59		 pop	 ecx
  00225	5f		 pop	 edi
  00226	5e		 pop	 esi
  00227	5b		 pop	 ebx
  00228	8b 4d f0	 mov	 ecx, DWORD PTR __$ArrayPad$[ebp]
  0022b	33 cd		 xor	 ecx, ebp
  0022d	e8 00 00 00 00	 call	 @__security_check_cookie@4
  00232	8b e5		 mov	 esp, ebp
  00234	5d		 pop	 ebp
  00235	c2 0c 00	 ret	 12			; 0000000cH
_TEXT	ENDS
;	COMDAT text$x
text$x	SEGMENT
__unwindfunclet$?Bet_FiveSystem@CMiniGame@@QAEHPAVCUser@@HH@Z$0:
  00000	8d 8d 40 ff ff
	ff		 lea	 ecx, DWORD PTR _ItemElem$2[ebp]
  00006	e9 00 00 00 00	 jmp	 ??1CItemElem@@UAE@XZ	; CItemElem::~CItemElem
  0000b	cc		 int	 3
  0000c	cc		 int	 3
  0000d	cc		 int	 3
  0000e	cc		 int	 3
  0000f	cc		 int	 3
__ehhandler$?Bet_FiveSystem@CMiniGame@@QAEHPAVCUser@@HH@Z:
  00010	90		 npad	 1
  00011	90		 npad	 1
  00012	8b 54 24 08	 mov	 edx, DWORD PTR [esp+8]
  00016	8d 42 0c	 lea	 eax, DWORD PTR [edx+12]
  00019	8b 8a 64 fe ff
	ff		 mov	 ecx, DWORD PTR [edx-412]
  0001f	33 c8		 xor	 ecx, eax
  00021	e8 00 00 00 00	 call	 @__security_check_cookie@4
  00026	8b 4a fc	 mov	 ecx, DWORD PTR [edx-4]
  00029	33 c8		 xor	 ecx, eax
  0002b	e8 00 00 00 00	 call	 @__security_check_cookie@4
  00030	b8 00 00 00 00	 mov	 eax, OFFSET __ehfuncinfo$?Bet_FiveSystem@CMiniGame@@QAEHPAVCUser@@HH@Z
  00035	e9 00 00 00 00	 jmp	 ___CxxFrameHandler3
text$x	ENDS
?Bet_FiveSystem@CMiniGame@@QAEHPAVCUser@@HH@Z ENDP	; CMiniGame::Bet_FiveSystem
; Function compile flags: /Ogtp
; File C:\IAGOS\server\v18\Source\Source\_Common\MiniGame.cpp
; File C:\IAGOS\server\v18\Source\Source\_Common\Project.h
; File C:\IAGOS\server\v18\Source\Source\_Common\MiniGame.cpp
; File C:\IAGOS\server\v18\Source\Source\_Common\Project.h
; File C:\IAGOS\server\v18\Source\Source\_Common\data.h
; File C:\IAGOS\server\v18\Source\Source\_Common\Project.h
; File C:\IAGOS\server\v18\Source\Source\_Common\data.h
; File C:\IAGOS\server\v18\Source\Source\_Common\Project.h
; File C:\IAGOS\server\v18\Source\Source\_Common\MiniGame.cpp
;	COMDAT ?DestroyWnd_FiveSystem@CMiniGame@@QAEXPAVCUser@@@Z
_TEXT	SEGMENT
_aLogItem$ = -392					; size = 200
_ItemElem$2 = -192					; size = 176
__$ArrayPad$ = -16					; size = 4
__$EHRec$ = -12						; size = 12
_pUser$ = 8						; size = 4
?DestroyWnd_FiveSystem@CMiniGame@@QAEXPAVCUser@@@Z PROC	; CMiniGame::DestroyWnd_FiveSystem, COMDAT
; _this$ = ecx

; 443  : {

  00000	55		 push	 ebp
  00001	8b ec		 mov	 ebp, esp
  00003	6a ff		 push	 -1
  00005	68 00 00 00 00	 push	 __ehhandler$?DestroyWnd_FiveSystem@CMiniGame@@QAEXPAVCUser@@@Z
  0000a	64 a1 00 00 00
	00		 mov	 eax, DWORD PTR fs:0
  00010	50		 push	 eax
  00011	81 ec 80 01 00
	00		 sub	 esp, 384		; 00000180H
  00017	a1 00 00 00 00	 mov	 eax, DWORD PTR ___security_cookie
  0001c	33 c5		 xor	 eax, ebp
  0001e	89 45 f0	 mov	 DWORD PTR __$ArrayPad$[ebp], eax
  00021	53		 push	 ebx
  00022	56		 push	 esi
  00023	57		 push	 edi
  00024	50		 push	 eax
  00025	8d 45 f4	 lea	 eax, DWORD PTR __$EHRec$[ebp]
  00028	64 a3 00 00 00
	00		 mov	 DWORD PTR fs:0, eax
  0002e	8b 75 08	 mov	 esi, DWORD PTR _pUser$[ebp]

; 444  : 	int nPenya = 0;
; 445  : 	LogItemInfo aLogItem;

  00031	8d 8d 78 fe ff
	ff		 lea	 ecx, DWORD PTR _aLogItem$[ebp]
  00037	e8 00 00 00 00	 call	 ??0_LogItemInfo@@QAE@XZ	; _LogItemInfo::_LogItemInfo

; 446  : 
; 447  : 	for(int i=0; i<6; ++i )
; 448  : 	{
; 449  : 		nPenya += pUser->m_nBetFiveSystem[i];

  0003c	8b be fc 8e 00
	00		 mov	 edi, DWORD PTR [esi+36604]
  00042	03 be 00 8f 00
	00		 add	 edi, DWORD PTR [esi+36608]
  00048	03 be 04 8f 00
	00		 add	 edi, DWORD PTR [esi+36612]
  0004e	03 be 08 8f 00
	00		 add	 edi, DWORD PTR [esi+36616]
  00054	03 be 0c 8f 00
	00		 add	 edi, DWORD PTR [esi+36620]
  0005a	03 be 10 8f 00
	00		 add	 edi, DWORD PTR [esi+36624]

; 450  : 		pUser->m_nBetFiveSystem[i] = 0;

  00060	c7 86 fc 8e 00
	00 00 00 00 00	 mov	 DWORD PTR [esi+36604], 0
  0006a	c7 86 00 8f 00
	00 00 00 00 00	 mov	 DWORD PTR [esi+36608], 0
  00074	c7 86 04 8f 00
	00 00 00 00 00	 mov	 DWORD PTR [esi+36612], 0
  0007e	c7 86 08 8f 00
	00 00 00 00 00	 mov	 DWORD PTR [esi+36616], 0
  00088	c7 86 0c 8f 00
	00 00 00 00 00	 mov	 DWORD PTR [esi+36620], 0
  00092	c7 86 10 8f 00
	00 00 00 00 00	 mov	 DWORD PTR [esi+36624], 0

; 451  : 	}
; 452  : 	
; 453  : 	// ŔÔÂűµČ ±Ýľ× ľřŔĚ Áľ·áÇŇ ¶§(·Î±× X)
; 454  : 	if( nPenya <= 0 )

  0009c	85 ff		 test	 edi, edi
  0009e	0f 8e 81 01 00
	00		 jle	 $LN1@DestroyWnd

; 455  : 		return;
; 456  : 	
; 457  : 	int nTotal = pUser->GetGold() + nPenya;

  000a4	8b 86 e0 14 00
	00		 mov	 eax, DWORD PTR [esi+5344]
  000aa	03 c7		 add	 eax, edi

; 458  : 	if( nTotal < 0 )		// overflow?

  000ac	0f 89 f1 00 00
	00		 jns	 $LN6@DestroyWnd

; 461  : 		CItemElem ItemElem;

  000b2	8d 8d 40 ff ff
	ff		 lea	 ecx, DWORD PTR _ItemElem$2[ebp]
  000b8	c7 85 80 fe ff
	ff 00 00 00 00	 mov	 DWORD PTR _aLogItem$[ebp+8], OFFSET ??_C@_0BH@IADBFAIN@FIVESYSTEM_CANCEL_POST@
  000c2	e8 00 00 00 00	 call	 ??0CItemElem@@QAE@XZ	; CItemElem::CItemElem
; File C:\IAGOS\server\v18\Source\Source\_Common\Project.h

; 1427 : 	VERIFY_RANGE( (int)( dwIndex ), 0, m_colorText.GetSize(), "GetText range_error", "error" );

  000c7	a1 ac 02 00 00	 mov	 eax, DWORD PTR ?prj@@3VCProject@@A+684
; File C:\IAGOS\server\v18\Source\Source\_Common\MiniGame.cpp

; 461  : 		CItemElem ItemElem;

  000cc	c7 45 fc 00 00
	00 00		 mov	 DWORD PTR __$EHRec$[ebp+8], 0
; File C:\IAGOS\server\v18\Source\Source\_Common\Project.h

; 1427 : 	VERIFY_RANGE( (int)( dwIndex ), 0, m_colorText.GetSize(), "GetText range_error", "error" );

  000d3	3d 86 1b 00 00	 cmp	 eax, 7046		; 00001b86H
  000d8	7f 2c		 jg	 SHORT $LN11@DestroyWnd

; 579  : 	LPCTSTR szErr = Error( _T( "%s min:%d, max:%d, index:%d" ), szMsg, nMin, nMax, nIndex ); 

  000da	68 86 1b 00 00	 push	 7046			; 00001b86H
  000df	50		 push	 eax
  000e0	6a 00		 push	 0
  000e2	68 00 00 00 00	 push	 OFFSET ??_C@_0BE@OHDBLHOM@GetText?5range_error@
  000e7	68 00 00 00 00	 push	 OFFSET ??_C@_0BM@HMFGHCP@?$CFs?5min?3?$CFd?0?5max?3?$CFd?0?5index?3?$CFd@
  000ec	e8 00 00 00 00	 call	 ?Error@@YAPBDPBDZZ	; Error

; 1427 : 	VERIFY_RANGE( (int)( dwIndex ), 0, m_colorText.GetSize(), "GetText range_error", "error" );

  000f1	a1 ac 02 00 00	 mov	 eax, DWORD PTR ?prj@@3VCProject@@A+684

; 579  : 	LPCTSTR szErr = Error( _T( "%s min:%d, max:%d, index:%d" ), szMsg, nMin, nMax, nIndex ); 

  000f6	83 c4 14	 add	 esp, 20			; 00000014H

; 1427 : 	VERIFY_RANGE( (int)( dwIndex ), 0, m_colorText.GetSize(), "GetText range_error", "error" );

  000f9	8b 0d 9c 02 00
	00		 mov	 ecx, DWORD PTR ?prj@@3VCProject@@A+668
  000ff	bb 00 00 00 00	 mov	 ebx, OFFSET ??_C@_05KKCIMGE@error@
  00104	eb 1c		 jmp	 SHORT $LN29@DestroyWnd
$LN11@DestroyWnd:
; File C:\IAGOS\server\v18\Source\Source\_Common\data.h

; 270  : 	if( dwIndex >= (DWORD)m_nMaxIndex )

  00106	8b 0d 9c 02 00
	00		 mov	 ecx, DWORD PTR ?prj@@3VCProject@@A+668
  0010c	76 0f		 jbe	 SHORT $LN52@DestroyWnd

; 271  : 		return NULL;
; 272  : 	return (T*) m_apOffset[ dwIndex ];

  0010e	8b 99 18 6e 00
	00		 mov	 ebx, DWORD PTR [ecx+28184]
; File C:\IAGOS\server\v18\Source\Source\_Common\Project.h

; 1428 : 	if( m_colorText.GetAt( dwIndex ) == NULL )

  00114	85 db		 test	 ebx, ebx
  00116	74 05		 je	 SHORT $LN52@DestroyWnd

; 1430 : 	return m_colorText.GetAt( dwIndex )->lpszData; 

  00118	8b 5b 04	 mov	 ebx, DWORD PTR [ebx+4]
  0011b	eb 05		 jmp	 SHORT $LN29@DestroyWnd
$LN52@DestroyWnd:

; 1429 : 		return "";

  0011d	bb 00 00 00 00	 mov	 ebx, OFFSET ??_C@_00CNPNBAHC@@
$LN29@DestroyWnd:

; 1427 : 	VERIFY_RANGE( (int)( dwIndex ), 0, m_colorText.GetSize(), "GetText range_error", "error" );

  00122	3d 22 0c 00 00	 cmp	 eax, 3106		; 00000c22H
  00127	7f 21		 jg	 SHORT $LN27@DestroyWnd

; 579  : 	LPCTSTR szErr = Error( _T( "%s min:%d, max:%d, index:%d" ), szMsg, nMin, nMax, nIndex ); 

  00129	68 22 0c 00 00	 push	 3106			; 00000c22H
  0012e	50		 push	 eax
  0012f	6a 00		 push	 0
  00131	68 00 00 00 00	 push	 OFFSET ??_C@_0BE@OHDBLHOM@GetText?5range_error@
  00136	68 00 00 00 00	 push	 OFFSET ??_C@_0BM@HMFGHCP@?$CFs?5min?3?$CFd?0?5max?3?$CFd?0?5index?3?$CFd@
  0013b	e8 00 00 00 00	 call	 ?Error@@YAPBDPBDZZ	; Error
  00140	83 c4 14	 add	 esp, 20			; 00000014H

; 1427 : 	VERIFY_RANGE( (int)( dwIndex ), 0, m_colorText.GetSize(), "GetText range_error", "error" );

  00143	b8 00 00 00 00	 mov	 eax, OFFSET ??_C@_05KKCIMGE@error@
  00148	eb 16		 jmp	 SHORT $LN26@DestroyWnd
$LN27@DestroyWnd:
; File C:\IAGOS\server\v18\Source\Source\_Common\data.h

; 270  : 	if( dwIndex >= (DWORD)m_nMaxIndex )

  0014a	76 0f		 jbe	 SHORT $LN53@DestroyWnd

; 271  : 		return NULL;
; 272  : 	return (T*) m_apOffset[ dwIndex ];

  0014c	8b 81 88 30 00
	00		 mov	 eax, DWORD PTR [ecx+12424]
; File C:\IAGOS\server\v18\Source\Source\_Common\Project.h

; 1428 : 	if( m_colorText.GetAt( dwIndex ) == NULL )

  00152	85 c0		 test	 eax, eax
  00154	74 05		 je	 SHORT $LN53@DestroyWnd

; 1430 : 	return m_colorText.GetAt( dwIndex )->lpszData; 

  00156	8b 40 04	 mov	 eax, DWORD PTR [eax+4]
  00159	eb 05		 jmp	 SHORT $LN26@DestroyWnd
$LN53@DestroyWnd:

; 1429 : 		return "";

  0015b	b8 00 00 00 00	 mov	 eax, OFFSET ??_C@_00CNPNBAHC@@
$LN26@DestroyWnd:
; File C:\IAGOS\server\v18\Source\Source\_Common\MiniGame.cpp

; 462  : 		g_dpDBClient.SendQueryPostMail( pUser->m_idPlayer, 0, ItemElem, nPenya, (char*)GETTEXT( TID_GAME_SELLING_COST_0 ), (char*)GETTEXT( TID_MMI_FIVESYSTEM ) );

  00160	53		 push	 ebx
  00161	50		 push	 eax
  00162	57		 push	 edi
  00163	8d 85 40 ff ff
	ff		 lea	 eax, DWORD PTR _ItemElem$2[ebp]
  00169	b9 00 00 00 00	 mov	 ecx, OFFSET ?g_dpDBClient@@3VCDPDatabaseClient@@A ; g_dpDBClient
  0016e	50		 push	 eax
  0016f	6a 00		 push	 0
  00171	ff b6 34 02 00
	00		 push	 DWORD PTR [esi+564]
  00177	e8 00 00 00 00	 call	 ?SendQueryPostMail@CDPDatabaseClient@@QAEXKKAAVCItemElem@@HPAD1@Z ; CDPDatabaseClient::SendQueryPostMail

; 463  : 		pUser->AddDefinedText( TID_GAME_MINIGAME_PENYA_POST, "" );

  0017c	68 00 00 00 00	 push	 OFFSET ??_C@_00CNPNBAHC@@
  00181	68 6c 0c 00 00	 push	 3180			; 00000c6cH
  00186	56		 push	 esi
  00187	e8 00 00 00 00	 call	 ?AddDefinedText@CUser@@QAAXHPBDZZ ; CUser::AddDefinedText
  0018c	83 c4 0c	 add	 esp, 12			; 0000000cH

; 464  : 	}

  0018f	c7 45 fc ff ff
	ff ff		 mov	 DWORD PTR __$EHRec$[ebp+8], -1
  00196	8d 8d 40 ff ff
	ff		 lea	 ecx, DWORD PTR _ItemElem$2[ebp]
  0019c	e8 00 00 00 00	 call	 ??1CItemElem@@UAE@XZ	; CItemElem::~CItemElem
  001a1	eb 14		 jmp	 SHORT $LN7@DestroyWnd
$LN6@DestroyWnd:

; 465  : 	else
; 466  : 	{
; 467  : 		aLogItem.RecvName = "FIVESYSTEM_CANCEL";
; 468  : 		pUser->AddGold( nPenya );

  001a3	6a 01		 push	 1
  001a5	57		 push	 edi
  001a6	8b ce		 mov	 ecx, esi
  001a8	c7 85 80 fe ff
	ff 00 00 00 00	 mov	 DWORD PTR _aLogItem$[ebp+8], OFFSET ??_C@_0BC@KPGKNKH@FIVESYSTEM_CANCEL@
  001b2	e8 00 00 00 00	 call	 ?AddGold@CMover@@QAEHHH@Z ; CMover::AddGold
$LN7@DestroyWnd:

; 469  : 	}
; 470  : 
; 471  : 	aLogItem.Action = "+";
; 472  : 	aLogItem.SendName = pUser->GetName();

  001b7	6a 00		 push	 0
  001b9	8b ce		 mov	 ecx, esi
  001bb	c7 85 78 fe ff
	ff 00 00 00 00	 mov	 DWORD PTR _aLogItem$[ebp], OFFSET ??_C@_01MIFGBAGJ@?$CL@
  001c5	e8 00 00 00 00	 call	 ?GetName@CMover@@QAEPBDH@Z ; CMover::GetName

; 473  : 	aLogItem.WorldId = pUser->GetWorld()->GetID();
; 474  : 	aLogItem.Gold = pUser->GetGold() - nPenya;

  001ca	8b 8e e0 14 00
	00		 mov	 ecx, DWORD PTR [esi+5344]
  001d0	89 85 7c fe ff
	ff		 mov	 DWORD PTR _aLogItem$[ebp+4], eax
  001d6	8b 86 6c 01 00
	00		 mov	 eax, DWORD PTR [esi+364]

; 475  : 	aLogItem.Gold2 = pUser->GetGold();
; 476  : 	//aLogItem.ItemName = "SEED";
; 477  : 	_stprintf( aLogItem.szItemName, "%d", II_GOLD_SEED1 );

  001dc	6a 0c		 push	 12			; 0000000cH
  001de	68 00 00 00 00	 push	 OFFSET ??_C@_02DPKJAMEF@?$CFd@
  001e3	8b 00		 mov	 eax, DWORD PTR [eax]
  001e5	89 85 84 fe ff
	ff		 mov	 DWORD PTR _aLogItem$[ebp+12], eax
  001eb	8b c1		 mov	 eax, ecx
  001ed	2b c7		 sub	 eax, edi
  001ef	89 8d 8c fe ff
	ff		 mov	 DWORD PTR _aLogItem$[ebp+20], ecx
  001f5	89 85 88 fe ff
	ff		 mov	 DWORD PTR _aLogItem$[ebp+16], eax
  001fb	8d 85 9c fe ff
	ff		 lea	 eax, DWORD PTR _aLogItem$[ebp+36]
  00201	50		 push	 eax
  00202	e8 00 00 00 00	 call	 _sprintf
  00207	83 c4 0c	 add	 esp, 12			; 0000000cH

; 478  : 	aLogItem.itemNumber = nPenya;

  0020a	89 bd bc fe ff
	ff		 mov	 DWORD PTR _aLogItem$[ebp+68], edi

; 479  : 	g_DPSrvr.OnLogItem( aLogItem );	

  00210	8d 85 78 fe ff
	ff		 lea	 eax, DWORD PTR _aLogItem$[ebp]
  00216	b9 00 00 00 00	 mov	 ecx, OFFSET ?g_DPSrvr@@3VCDPSrvr@@A ; g_DPSrvr
  0021b	6a 00		 push	 0
  0021d	6a 00		 push	 0
  0021f	50		 push	 eax
  00220	e8 00 00 00 00	 call	 ?OnLogItem@CDPSrvr@@QAEXAAU_LogItemInfo@@PAVCItemElem@@H@Z ; CDPSrvr::OnLogItem
$LN1@DestroyWnd:

; 480  : }

  00225	8b 4d f4	 mov	 ecx, DWORD PTR __$EHRec$[ebp]
  00228	64 89 0d 00 00
	00 00		 mov	 DWORD PTR fs:0, ecx
  0022f	59		 pop	 ecx
  00230	5f		 pop	 edi
  00231	5e		 pop	 esi
  00232	5b		 pop	 ebx
  00233	8b 4d f0	 mov	 ecx, DWORD PTR __$ArrayPad$[ebp]
  00236	33 cd		 xor	 ecx, ebp
  00238	e8 00 00 00 00	 call	 @__security_check_cookie@4
  0023d	8b e5		 mov	 esp, ebp
  0023f	5d		 pop	 ebp
  00240	c2 04 00	 ret	 4
_TEXT	ENDS
;	COMDAT text$x
text$x	SEGMENT
__unwindfunclet$?DestroyWnd_FiveSystem@CMiniGame@@QAEXPAVCUser@@@Z$0:
  00000	8d 8d 40 ff ff
	ff		 lea	 ecx, DWORD PTR _ItemElem$2[ebp]
  00006	e9 00 00 00 00	 jmp	 ??1CItemElem@@UAE@XZ	; CItemElem::~CItemElem
  0000b	cc		 int	 3
  0000c	cc		 int	 3
  0000d	cc		 int	 3
  0000e	cc		 int	 3
  0000f	cc		 int	 3
__ehhandler$?DestroyWnd_FiveSystem@CMiniGame@@QAEXPAVCUser@@@Z:
  00010	90		 npad	 1
  00011	90		 npad	 1
  00012	8b 54 24 08	 mov	 edx, DWORD PTR [esp+8]
  00016	8d 42 0c	 lea	 eax, DWORD PTR [edx+12]
  00019	8b 8a 70 fe ff
	ff		 mov	 ecx, DWORD PTR [edx-400]
  0001f	33 c8		 xor	 ecx, eax
  00021	e8 00 00 00 00	 call	 @__security_check_cookie@4
  00026	8b 4a fc	 mov	 ecx, DWORD PTR [edx-4]
  00029	33 c8		 xor	 ecx, eax
  0002b	e8 00 00 00 00	 call	 @__security_check_cookie@4
  00030	b8 00 00 00 00	 mov	 eax, OFFSET __ehfuncinfo$?DestroyWnd_FiveSystem@CMiniGame@@QAEXPAVCUser@@@Z
  00035	e9 00 00 00 00	 jmp	 ___CxxFrameHandler3
text$x	ENDS
?DestroyWnd_FiveSystem@CMiniGame@@QAEXPAVCUser@@@Z ENDP	; CMiniGame::DestroyWnd_FiveSystem
; Function compile flags: /Ogtp
; File C:\IAGOS\server\v18\Source\Source\_Common\MiniGame.cpp
;	COMDAT ?OpenWnd_FiveSystem@CMiniGame@@QAEXPAVCUser@@@Z
_TEXT	SEGMENT
_pUser$ = 8						; size = 4
?OpenWnd_FiveSystem@CMiniGame@@QAEXPAVCUser@@@Z PROC	; CMiniGame::OpenWnd_FiveSystem, COMDAT
; _this$ = ecx

; 434  : {

  00000	55		 push	 ebp
  00001	8b ec		 mov	 ebp, esp

; 435  : 	// pUser->m_nBetFiveSystem[]¸¦ ĂĘ±âČ­ ÇŇ ÇĘżä°ˇ ŔÖŔ˝.
; 436  : 	for(int i=0; i<6; ++i )
; 437  : 		pUser->m_nBetFiveSystem[i] = 0;

  00003	8b 45 08	 mov	 eax, DWORD PTR _pUser$[ebp]
  00006	c7 80 fc 8e 00
	00 00 00 00 00	 mov	 DWORD PTR [eax+36604], 0
  00010	c7 80 00 8f 00
	00 00 00 00 00	 mov	 DWORD PTR [eax+36608], 0
  0001a	c7 80 04 8f 00
	00 00 00 00 00	 mov	 DWORD PTR [eax+36612], 0
  00024	c7 80 08 8f 00
	00 00 00 00 00	 mov	 DWORD PTR [eax+36616], 0
  0002e	c7 80 0c 8f 00
	00 00 00 00 00	 mov	 DWORD PTR [eax+36620], 0
  00038	c7 80 10 8f 00
	00 00 00 00 00	 mov	 DWORD PTR [eax+36624], 0

; 438  : 	
; 439  : 	pUser->AddFiveSystemOpenWnd( m_nBetMinPenya, m_nBetMaxPenya, m_nMultiple );

  00042	ff 71 0c	 push	 DWORD PTR [ecx+12]
  00045	ff 71 08	 push	 DWORD PTR [ecx+8]
  00048	ff 71 04	 push	 DWORD PTR [ecx+4]
  0004b	8b c8		 mov	 ecx, eax
  0004d	e8 00 00 00 00	 call	 ?AddFiveSystemOpenWnd@CUser@@QAEXHHH@Z ; CUser::AddFiveSystemOpenWnd

; 440  : }

  00052	5d		 pop	 ebp
  00053	c2 04 00	 ret	 4
?OpenWnd_FiveSystem@CMiniGame@@QAEXPAVCUser@@@Z ENDP	; CMiniGame::OpenWnd_FiveSystem
_TEXT	ENDS
; Function compile flags: /Ogtp
; File C:\IAGOS\server\v18\Source\Source\_Common\MiniGame.cpp
; File C:\Program Files\Microsoft Visual Studio\2022\Professional\VC\Tools\MSVC\14.44.35207\atlmfc\include\atlsimpstr.h
; File C:\Program Files\Microsoft Visual Studio\2022\Professional\VC\Tools\MSVC\14.44.35207\include\vector
; File C:\Program Files\Microsoft Visual Studio\2022\Professional\VC\Tools\MSVC\14.44.35207\atlmfc\include\atlsimpstr.h
; File C:\Program Files\Microsoft Visual Studio\2022\Professional\VC\Tools\MSVC\14.44.35207\include\vector
; File C:\Program Files\Microsoft Visual Studio\2022\Professional\VC\Tools\MSVC\14.44.35207\atlmfc\include\atlsimpstr.h
; File C:\IAGOS\server\v18\Source\Source\_Common\MiniGame.cpp
; File C:\Program Files\Microsoft Visual Studio\2022\Professional\VC\Tools\MSVC\14.44.35207\atlmfc\include\atlsimpstr.h
; File C:\IAGOS\server\v18\Source\Source\_Common\MiniGame.cpp
;	COMDAT ?GetPublicCharacter@CMiniGame@@QAEDHH@Z
_TEXT	SEGMENT
_nQuestionNum$ = 8					; size = 4
_nPublicAlphabet$ = 12					; size = 4
?GetPublicCharacter@CMiniGame@@QAEDHH@Z PROC		; CMiniGame::GetPublicCharacter, COMDAT
; _this$ = ecx

; 363  : {

  00000	55		 push	 ebp
  00001	8b ec		 mov	 ebp, esp

; 364  : 	return m_vecAlphabet[nQuestionNum].strWord[nPublicAlphabet-1];

  00003	8b 45 0c	 mov	 eax, DWORD PTR _nPublicAlphabet$[ebp]
  00006	83 c0 ff	 add	 eax, -1
; File C:\Program Files\Microsoft Visual Studio\2022\Professional\VC\Tools\MSVC\14.44.35207\atlmfc\include\atlsimpstr.h

; 373  : 		if( (iChar < 0) || (iChar > GetLength()) )

  00009	78 19		 js	 SHORT $LN8@GetPublicC
; File C:\Program Files\Microsoft Visual Studio\2022\Professional\VC\Tools\MSVC\14.44.35207\include\vector

; 1934 :         return _My_data._Myfirst[_Pos];

  0000b	8b 55 08	 mov	 edx, DWORD PTR _nQuestionNum$[ebp]
; File C:\Program Files\Microsoft Visual Studio\2022\Professional\VC\Tools\MSVC\14.44.35207\atlmfc\include\atlsimpstr.h

; 523  : 		return( GetData()->nDataLength );

  0000e	8b 49 18	 mov	 ecx, DWORD PTR [ecx+24]
; File C:\Program Files\Microsoft Visual Studio\2022\Professional\VC\Tools\MSVC\14.44.35207\include\vector

; 1934 :         return _My_data._Myfirst[_Pos];

  00011	8d 14 52	 lea	 edx, DWORD PTR [edx+edx*2]
; File C:\Program Files\Microsoft Visual Studio\2022\Professional\VC\Tools\MSVC\14.44.35207\atlmfc\include\atlsimpstr.h

; 523  : 		return( GetData()->nDataLength );

  00014	8b 4c d1 04	 mov	 ecx, DWORD PTR [ecx+edx*8+4]

; 373  : 		if( (iChar < 0) || (iChar > GetLength()) )

  00018	3b 41 f4	 cmp	 eax, DWORD PTR [ecx-12]
  0001b	7f 07		 jg	 SHORT $LN8@GetPublicC
; File C:\IAGOS\server\v18\Source\Source\_Common\MiniGame.cpp

; 364  : 	return m_vecAlphabet[nQuestionNum].strWord[nPublicAlphabet-1];

  0001d	8a 04 01	 mov	 al, BYTE PTR [ecx+eax]

; 365  : }

  00020	5d		 pop	 ebp
  00021	c2 08 00	 ret	 8
$LN8@GetPublicC:
; File C:\Program Files\Microsoft Visual Studio\2022\Professional\VC\Tools\MSVC\14.44.35207\atlmfc\include\atlsimpstr.h

; 374  : 			AtlThrow(E_INVALIDARG);

  00024	68 57 00 07 80	 push	 -2147024809		; 80070057H
  00029	e8 00 00 00 00	 call	 ?AtlThrowImpl@ATL@@YGXJ@Z ; ATL::AtlThrowImpl
$LN15@GetPublicC:
  0002e	cc		 int	 3
?GetPublicCharacter@CMiniGame@@QAEDHH@Z ENDP		; CMiniGame::GetPublicCharacter
_TEXT	ENDS
; Function compile flags: /Ogtp
; File C:\IAGOS\server\v18\Source\Source\_Common\MiniGame.cpp
; File C:\IAGOS\server\v18\Source\Source\_Common\xUtil.h
; File C:\IAGOS\server\v18\Source\Source\_Common\MiniGame.cpp
; File C:\IAGOS\server\v18\Source\Source\_Common\xUtil.h
; File C:\IAGOS\server\v18\Source\Source\_Common\MiniGame.cpp
; File C:\IAGOS\server\v18\Source\Source\_Common\xUtil.h
; File C:\IAGOS\server\v18\Source\Source\_Common\MiniGame.cpp
; File C:\Program Files\Microsoft Visual Studio\2022\Professional\VC\Tools\MSVC\14.44.35207\include\vector
; File C:\IAGOS\server\v18\Source\Source\_Common\MiniGame.cpp
; File C:\Program Files\Microsoft Visual Studio\2022\Professional\VC\Tools\MSVC\14.44.35207\include\vector
; File C:\IAGOS\server\v18\Source\Source\_Common\MiniGame.cpp
; File C:\Program Files\Microsoft Visual Studio\2022\Professional\VC\Tools\MSVC\14.44.35207\include\vector
; File C:\IAGOS\server\v18\Source\Source\_Common\MiniGame.cpp
; File C:\Program Files\Microsoft Visual Studio\2022\Professional\VC\Tools\MSVC\14.44.35207\include\vector
; File C:\IAGOS\server\v18\Source\Source\_Common\MiniGame.cpp
;	COMDAT ?GetAlphabetRandomItem@CMiniGame@@QAE?AU__ITEMGAME@1@H@Z
_TEXT	SEGMENT
_alphabet$ = -48					; size = 24
_temp$2 = -24						; size = 12
__$EHRec$ = -12						; size = 12
___$ReturnUdt$ = 8					; size = 4
_nNum$ = 12						; size = 4
?GetAlphabetRandomItem@CMiniGame@@QAE?AU__ITEMGAME@1@H@Z PROC ; CMiniGame::GetAlphabetRandomItem, COMDAT
; _this$ = ecx

; 368  : {

  00000	55		 push	 ebp
  00001	8b ec		 mov	 ebp, esp
  00003	6a ff		 push	 -1
  00005	68 00 00 00 00	 push	 __ehhandler$?GetAlphabetRandomItem@CMiniGame@@QAE?AU__ITEMGAME@1@H@Z
  0000a	64 a1 00 00 00
	00		 mov	 eax, DWORD PTR fs:0
  00010	50		 push	 eax
  00011	83 ec 24	 sub	 esp, 36			; 00000024H
  00014	53		 push	 ebx
  00015	56		 push	 esi
  00016	57		 push	 edi
  00017	a1 00 00 00 00	 mov	 eax, DWORD PTR ___security_cookie
  0001c	33 c5		 xor	 eax, ebp
  0001e	50		 push	 eax
  0001f	8d 45 f4	 lea	 eax, DWORD PTR __$EHRec$[ebp]
  00022	64 a3 00 00 00
	00		 mov	 DWORD PTR fs:0, eax
  00028	8b f1		 mov	 esi, ecx
; File C:\IAGOS\server\v18\Source\Source\_Common\xUtil.h

; 16   : 	g_next = g_next * 1103515245 + 12345;// + nRandomSeed[ i++ ];

  0002a	69 1d 00 00 00
	00 6d 4e c6 41	 imul	 ebx, DWORD PTR ?g_next@@3KA, 1103515245 ; g_next
; File C:\IAGOS\server\v18\Source\Source\_Common\MiniGame.cpp

; 371  : 	__ALPHABET alphabet;

  00034	8d 4d d0	 lea	 ecx, DWORD PTR _alphabet$[ebp]
; File C:\IAGOS\server\v18\Source\Source\_Common\xUtil.h

; 22   : 	return  xRand() % num;

  00037	b8 83 de 1b 43	 mov	 eax, 1125899907		; 431bde83H
; File C:\IAGOS\server\v18\Source\Source\_Common\MiniGame.cpp

; 370  : 	int nSum = 0;

  0003c	33 ff		 xor	 edi, edi
; File C:\IAGOS\server\v18\Source\Source\_Common\xUtil.h

; 16   : 	g_next = g_next * 1103515245 + 12345;// + nRandomSeed[ i++ ];

  0003e	81 c3 39 30 00
	00		 add	 ebx, 12345		; 00003039H

; 22   : 	return  xRand() % num;

  00044	f7 e3		 mul	 ebx

; 16   : 	g_next = g_next * 1103515245 + 12345;// + nRandomSeed[ i++ ];

  00046	89 1d 00 00 00
	00		 mov	 DWORD PTR ?g_next@@3KA, ebx ; g_next

; 22   : 	return  xRand() % num;

  0004c	c1 ea 12	 shr	 edx, 18			; 00000012H
  0004f	69 c2 40 42 0f
	00		 imul	 eax, edx, 1000000
  00055	2b d8		 sub	 ebx, eax
; File C:\IAGOS\server\v18\Source\Source\_Common\MiniGame.cpp

; 371  : 	__ALPHABET alphabet;

  00057	e8 00 00 00 00	 call	 ??0__ALPHABET@CMiniGame@@QAE@XZ ; CMiniGame::__ALPHABET::__ALPHABET
; File C:\Program Files\Microsoft Visual Studio\2022\Professional\VC\Tools\MSVC\14.44.35207\include\vector

; 1915 :         return static_cast<size_type>(_My_data._Mylast - _My_data._Myfirst);

  0005c	8b 4e 1c	 mov	 ecx, DWORD PTR [esi+28]
  0005f	b8 ab aa aa 2a	 mov	 eax, 715827883		; 2aaaaaabH
  00064	2b 4e 18	 sub	 ecx, DWORD PTR [esi+24]
  00067	f7 e9		 imul	 ecx
; File C:\IAGOS\server\v18\Source\Source\_Common\MiniGame.cpp

; 373  : 	if( (int)( m_vecAlphabet.size() ) > nNum && nNum >= 0 )

  00069	8b 4d 0c	 mov	 ecx, DWORD PTR _nNum$[ebp]
; File C:\Program Files\Microsoft Visual Studio\2022\Professional\VC\Tools\MSVC\14.44.35207\include\vector

; 1915 :         return static_cast<size_type>(_My_data._Mylast - _My_data._Myfirst);

  0006c	c1 fa 02	 sar	 edx, 2
  0006f	8b c2		 mov	 eax, edx
; File C:\IAGOS\server\v18\Source\Source\_Common\MiniGame.cpp

; 371  : 	__ALPHABET alphabet;

  00071	89 7d fc	 mov	 DWORD PTR __$EHRec$[ebp+8], edi
; File C:\Program Files\Microsoft Visual Studio\2022\Professional\VC\Tools\MSVC\14.44.35207\include\vector

; 1915 :         return static_cast<size_type>(_My_data._Mylast - _My_data._Myfirst);

  00074	c1 e8 1f	 shr	 eax, 31			; 0000001fH
  00077	03 c2		 add	 eax, edx
; File C:\IAGOS\server\v18\Source\Source\_Common\MiniGame.cpp

; 373  : 	if( (int)( m_vecAlphabet.size() ) > nNum && nNum >= 0 )

  00079	3b c1		 cmp	 eax, ecx
  0007b	7e 68		 jle	 SHORT $LN91@GetAlphabe
  0007d	85 c9		 test	 ecx, ecx
  0007f	78 64		 js	 SHORT $LN91@GetAlphabe
; File C:\Program Files\Microsoft Visual Studio\2022\Professional\VC\Tools\MSVC\14.44.35207\include\vector

; 1934 :         return _My_data._Myfirst[_Pos];

  00081	8d 04 49	 lea	 eax, DWORD PTR [ecx+ecx*2]
  00084	8b 4e 18	 mov	 ecx, DWORD PTR [esi+24]
  00087	8d 34 c1	 lea	 esi, DWORD PTR [ecx+eax*8]
  0008a	8b 06		 mov	 eax, DWORD PTR [esi]
  0008c	8d 4d d4	 lea	 ecx, DWORD PTR _alphabet$[ebp+4]
  0008f	89 45 d0	 mov	 DWORD PTR _alphabet$[ebp], eax
  00092	8d 46 04	 lea	 eax, DWORD PTR [esi+4]
  00095	50		 push	 eax
  00096	e8 00 00 00 00	 call	 ??4?$CStringT@DV?$StrTraitMFC@DV?$ChTraitsCRT@D@ATL@@@@@ATL@@QAEAAV01@ABV01@@Z ; ATL::CStringT<char,StrTraitMFC<char,ATL::ChTraitsCRT<char> > >::operator=
  0009b	8d 46 08	 lea	 eax, DWORD PTR [esi+8]
  0009e	50		 push	 eax
  0009f	8d 4d d8	 lea	 ecx, DWORD PTR _alphabet$[ebp+8]
  000a2	e8 00 00 00 00	 call	 ??4?$CStringT@DV?$StrTraitMFC@DV?$ChTraitsCRT@D@ATL@@@@@ATL@@QAEAAV01@ABV01@@Z ; ATL::CStringT<char,StrTraitMFC<char,ATL::ChTraitsCRT<char> > >::operator=
  000a7	8d 4e 0c	 lea	 ecx, DWORD PTR [esi+12]
  000aa	51		 push	 ecx
  000ab	8d 4d dc	 lea	 ecx, DWORD PTR _alphabet$[ebp+12]
  000ae	e8 00 00 00 00	 call	 ??4?$vector@U__ITEMGAME@CMiniGame@@V?$allocator@U__ITEMGAME@CMiniGame@@@std@@@std@@QAEAAV01@ABV01@@Z ; std::vector<CMiniGame::__ITEMGAME,std::allocator<CMiniGame::__ITEMGAME> >::operator=

; 1915 :         return static_cast<size_type>(_My_data._Mylast - _My_data._Myfirst);

  000b3	8b 4d e0	 mov	 ecx, DWORD PTR _alphabet$[ebp+16]
  000b6	b8 ab aa aa 2a	 mov	 eax, 715827883		; 2aaaaaabH
  000bb	8b 75 dc	 mov	 esi, DWORD PTR _alphabet$[ebp+12]
  000be	2b ce		 sub	 ecx, esi
  000c0	f7 e9		 imul	 ecx
  000c2	d1 fa		 sar	 edx, 1
  000c4	8b c2		 mov	 eax, edx
  000c6	c1 e8 1f	 shr	 eax, 31			; 0000001fH
  000c9	03 c2		 add	 eax, edx
; File C:\IAGOS\server\v18\Source\Source\_Common\MiniGame.cpp

; 377  : 		for( int i=0; alphabet.vecItem.size(); ++i )

  000cb	74 1b		 je	 SHORT $LN3@GetAlphabe
  000cd	0f 1f 00	 npad	 3
$LL4@GetAlphabe:

; 378  : 		{
; 379  : 			temp = alphabet.vecItem[i];
; 380  : 			nSum += temp.dwPer;

  000d0	03 7e 08	 add	 edi, DWORD PTR [esi+8]
  000d3	f3 0f 7e 06	 movq	 xmm0, QWORD PTR [esi]
  000d7	66 0f d6 45 e8	 movq	 QWORD PTR _temp$2[ebp], xmm0

; 381  : 			if( nRandom < nSum )

  000dc	3b df		 cmp	 ebx, edi
  000de	7c 08		 jl	 SHORT $LN3@GetAlphabe

; 377  : 		for( int i=0; alphabet.vecItem.size(); ++i )

  000e0	83 c6 0c	 add	 esi, 12			; 0000000cH
  000e3	eb eb		 jmp	 SHORT $LL4@GetAlphabe
$LN91@GetAlphabe:

; 373  : 	if( (int)( m_vecAlphabet.size() ) > nNum && nNum >= 0 )

  000e5	8b 75 dc	 mov	 esi, DWORD PTR _alphabet$[ebp+12]
$LN3@GetAlphabe:

; 382  : 				return temp;
; 383  : 		}
; 384  : 	}		
; 385  : 	return alphabet.vecItem[0];
; 386  : }

  000e8	8b 7d 08	 mov	 edi, DWORD PTR ___$ReturnUdt$[ebp]
  000eb	8d 4d dc	 lea	 ecx, DWORD PTR _alphabet$[ebp+12]
  000ee	f3 0f 7e 06	 movq	 xmm0, QWORD PTR [esi]
  000f2	8b 46 08	 mov	 eax, DWORD PTR [esi+8]
  000f5	c7 45 fc ff ff
	ff ff		 mov	 DWORD PTR __$EHRec$[ebp+8], -1
  000fc	66 0f d6 07	 movq	 QWORD PTR [edi], xmm0
  00100	89 47 08	 mov	 DWORD PTR [edi+8], eax
  00103	e8 00 00 00 00	 call	 ?_Tidy@?$vector@U__ITEMGAME@CMiniGame@@V?$allocator@U__ITEMGAME@CMiniGame@@@std@@@std@@AAEXXZ ; std::vector<CMiniGame::__ITEMGAME,std::allocator<CMiniGame::__ITEMGAME> >::_Tidy
  00108	8b 55 d8	 mov	 edx, DWORD PTR _alphabet$[ebp+8]
  0010b	83 ce ff	 or	 esi, -1
  0010e	8b c6		 mov	 eax, esi
  00110	83 c2 f0	 add	 edx, -16		; fffffff0H
  00113	f0 0f c1 42 0c	 lock	  xadd	 DWORD PTR [edx+12], eax
  00118	48		 dec	 eax
  00119	85 c0		 test	 eax, eax
  0011b	7f 08		 jg	 SHORT $LN73@GetAlphabe
  0011d	8b 0a		 mov	 ecx, DWORD PTR [edx]
  0011f	52		 push	 edx
  00120	8b 01		 mov	 eax, DWORD PTR [ecx]
  00122	ff 50 04	 call	 DWORD PTR [eax+4]
$LN73@GetAlphabe:
  00125	8b 45 d4	 mov	 eax, DWORD PTR _alphabet$[ebp+4]
  00128	83 c0 f0	 add	 eax, -16		; fffffff0H
  0012b	f0 0f c1 70 0c	 lock	  xadd	 DWORD PTR [eax+12], esi
  00130	4e		 dec	 esi
  00131	85 f6		 test	 esi, esi
  00133	7f 08		 jg	 SHORT $LN89@GetAlphabe
  00135	8b 08		 mov	 ecx, DWORD PTR [eax]
  00137	50		 push	 eax
  00138	8b 11		 mov	 edx, DWORD PTR [ecx]
  0013a	ff 52 04	 call	 DWORD PTR [edx+4]
$LN89@GetAlphabe:
  0013d	8b c7		 mov	 eax, edi
  0013f	8b 4d f4	 mov	 ecx, DWORD PTR __$EHRec$[ebp]
  00142	64 89 0d 00 00
	00 00		 mov	 DWORD PTR fs:0, ecx
  00149	59		 pop	 ecx
  0014a	5f		 pop	 edi
  0014b	5e		 pop	 esi
  0014c	5b		 pop	 ebx
  0014d	8b e5		 mov	 esp, ebp
  0014f	5d		 pop	 ebp
  00150	c2 08 00	 ret	 8
_TEXT	ENDS
;	COMDAT text$x
text$x	SEGMENT
__unwindfunclet$?GetAlphabetRandomItem@CMiniGame@@QAE?AU__ITEMGAME@1@H@Z$0:
  00000	8d 4d d0	 lea	 ecx, DWORD PTR _alphabet$[ebp]
  00003	e9 00 00 00 00	 jmp	 ??1__ALPHABET@CMiniGame@@QAE@XZ
  00008	cc		 int	 3
  00009	cc		 int	 3
  0000a	cc		 int	 3
  0000b	cc		 int	 3
  0000c	cc		 int	 3
__ehhandler$?GetAlphabetRandomItem@CMiniGame@@QAE?AU__ITEMGAME@1@H@Z:
  0000d	90		 npad	 1
  0000e	90		 npad	 1
  0000f	8b 54 24 08	 mov	 edx, DWORD PTR [esp+8]
  00013	8d 42 0c	 lea	 eax, DWORD PTR [edx+12]
  00016	8b 4a cc	 mov	 ecx, DWORD PTR [edx-52]
  00019	33 c8		 xor	 ecx, eax
  0001b	e8 00 00 00 00	 call	 @__security_check_cookie@4
  00020	b8 00 00 00 00	 mov	 eax, OFFSET __ehfuncinfo$?GetAlphabetRandomItem@CMiniGame@@QAE?AU__ITEMGAME@1@H@Z
  00025	e9 00 00 00 00	 jmp	 ___CxxFrameHandler3
text$x	ENDS
?GetAlphabetRandomItem@CMiniGame@@QAE?AU__ITEMGAME@1@H@Z ENDP ; CMiniGame::GetAlphabetRandomItem
; Function compile flags: /Ogtp
; File C:\IAGOS\server\v18\Source\Source\_Common\MiniGame.cpp
; File C:\IAGOS\server\v18\Source\Source\_Common\Project.h
; File C:\IAGOS\server\v18\Source\Source\_Common\data.h
; File C:\IAGOS\server\v18\Source\Source\_Common\MiniGame.cpp
; File C:\IAGOS\server\v18\Source\Source\_Common\Project.h
; File C:\IAGOS\server\v18\Source\Source\_Common\MiniGame.cpp
; File C:\IAGOS\server\v18\Source\Source\_Common\Project.h
; File C:\IAGOS\server\v18\Source\Source\_Common\MiniGame.cpp
; File C:\IAGOS\server\v18\Source\Source\_Common\Project.h
; File C:\IAGOS\server\v18\Source\Source\_Common\data.h
; File C:\IAGOS\server\v18\Source\Source\_Common\Project.h
; File C:\IAGOS\server\v18\Source\Source\_Common\data.h
; File C:\IAGOS\server\v18\Source\Source\_Common\Project.h
; File C:\IAGOS\server\v18\Source\Source\_Common\MiniGame.cpp
;	COMDAT ?ResultItem_Alphabet@CMiniGame@@QAEHPAVCUser@@H@Z
_TEXT	SEGMENT
_ItemGame$ = -404					; size = 12
_aLogItem$ = -392					; size = 200
_itemElem$ = -192					; size = 176
__$ArrayPad$ = -16					; size = 4
__$EHRec$ = -12						; size = 12
_pUser$ = 8						; size = 4
_nNum$ = 12						; size = 4
?ResultItem_Alphabet@CMiniGame@@QAEHPAVCUser@@H@Z PROC	; CMiniGame::ResultItem_Alphabet, COMDAT
; _this$ = ecx

; 397  : {

  00000	55		 push	 ebp
  00001	8b ec		 mov	 ebp, esp
  00003	6a ff		 push	 -1
  00005	68 00 00 00 00	 push	 __ehhandler$?ResultItem_Alphabet@CMiniGame@@QAEHPAVCUser@@H@Z
  0000a	64 a1 00 00 00
	00		 mov	 eax, DWORD PTR fs:0
  00010	50		 push	 eax
  00011	81 ec 88 01 00
	00		 sub	 esp, 392		; 00000188H
  00017	a1 00 00 00 00	 mov	 eax, DWORD PTR ___security_cookie
  0001c	33 c5		 xor	 eax, ebp
  0001e	89 45 f0	 mov	 DWORD PTR __$ArrayPad$[ebp], eax
  00021	56		 push	 esi
  00022	57		 push	 edi
  00023	50		 push	 eax
  00024	8d 45 f4	 lea	 eax, DWORD PTR __$EHRec$[ebp]
  00027	64 a3 00 00 00
	00		 mov	 DWORD PTR fs:0, eax

; 398  : 	// ľĆŔĚĹŰ Áö±Ţ Č®·üżˇ µű¶ó ľĆŔĚĹŰŔ» ľňľîżÂ´Ů.
; 399  : 	__ITEMGAME ItemGame = GetAlphabetRandomItem( nNum );

  0002d	ff 75 0c	 push	 DWORD PTR _nNum$[ebp]
  00030	8b 7d 08	 mov	 edi, DWORD PTR _pUser$[ebp]
  00033	8d 85 6c fe ff
	ff		 lea	 eax, DWORD PTR _ItemGame$[ebp]
  00039	50		 push	 eax
  0003a	e8 00 00 00 00	 call	 ?GetAlphabetRandomItem@CMiniGame@@QAE?AU__ITEMGAME@1@H@Z ; CMiniGame::GetAlphabetRandomItem

; 400  : 	
; 401  : 	CItemElem itemElem;

  0003f	8d 8d 40 ff ff
	ff		 lea	 ecx, DWORD PTR _itemElem$[ebp]
  00045	e8 00 00 00 00	 call	 ??0CItemElem@@QAE@XZ	; CItemElem::CItemElem

; 402  : 	itemElem.m_dwItemId = ItemGame.dwItemId;

  0004a	8b 85 6c fe ff
	ff		 mov	 eax, DWORD PTR _ItemGame$[ebp]

; 403  : 	itemElem.m_nItemNum	= ItemGame.nItemCount;
; 404  : 	itemElem.SetSerialNumber();

  00050	8d 8d 40 ff ff
	ff		 lea	 ecx, DWORD PTR _itemElem$[ebp]
  00056	89 85 4c ff ff
	ff		 mov	 DWORD PTR _itemElem$[ebp+12], eax
  0005c	8b 85 70 fe ff
	ff		 mov	 eax, DWORD PTR _ItemGame$[ebp+4]
  00062	c7 45 fc 00 00
	00 00		 mov	 DWORD PTR __$EHRec$[ebp+8], 0
  00069	66 89 45 b4	 mov	 WORD PTR _itemElem$[ebp+116], ax
  0006d	e8 00 00 00 00	 call	 ?SetSerialNumber@CItemBase@@QAEXXZ ; CItemBase::SetSerialNumber
; File C:\IAGOS\server\v18\Source\Source\_Common\Project.h

; 1389 : 	VERIFY_RANGE_ASSERT( nIndex, 0, m_aPropItem.GetSize(), "GetItemProp range_error", NULL );

  00072	8b 8d 4c ff ff
	ff		 mov	 ecx, DWORD PTR _itemElem$[ebp+12]
  00078	a1 40 02 00 00	 mov	 eax, DWORD PTR ?prj@@3VCProject@@A+576
  0007d	85 c9		 test	 ecx, ecx
  0007f	78 21		 js	 SHORT $LN15@ResultItem
  00081	3b c8		 cmp	 ecx, eax
  00083	7d 1d		 jge	 SHORT $LN15@ResultItem
; File C:\IAGOS\server\v18\Source\Source\_Common\data.h

; 270  : 	if( dwIndex >= (DWORD)m_nMaxIndex )

  00085	72 04		 jb	 SHORT $LN20@ResultItem

; 271  : 		return NULL;

  00087	33 f6		 xor	 esi, esi
  00089	eb 08		 jmp	 SHORT $LN19@ResultItem
$LN20@ResultItem:

; 272  : 	return (T*) m_apOffset[ dwIndex ];

  0008b	a1 30 02 00 00	 mov	 eax, DWORD PTR ?prj@@3VCProject@@A+560
  00090	8b 34 88	 mov	 esi, DWORD PTR [eax+ecx*4]
$LN19@ResultItem:
; File C:\IAGOS\server\v18\Source\Source\_Common\MiniGame.cpp

; 406  : 	if( pItemProp )

  00093	85 f6		 test	 esi, esi
  00095	74 23		 je	 SHORT $LN2@ResultItem

; 407  : 		itemElem.m_nHitPoint	= pItemProp->dwEndurance;

  00097	8b 86 90 00 00
	00		 mov	 eax, DWORD PTR [esi+144]
  0009d	89 45 b0	 mov	 DWORD PTR _itemElem$[ebp+112], eax
  000a0	eb 1f		 jmp	 SHORT $LN3@ResultItem
$LN15@ResultItem:
; File C:\IAGOS\server\v18\Source\Source\_Common\Project.h

; 579  : 	LPCTSTR szErr = Error( _T( "%s min:%d, max:%d, index:%d" ), szMsg, nMin, nMax, nIndex ); 

  000a2	51		 push	 ecx
  000a3	50		 push	 eax
  000a4	6a 00		 push	 0
  000a6	68 00 00 00 00	 push	 OFFSET ??_C@_0BI@BEIFNGEL@GetItemProp?5range_error@
  000ab	68 00 00 00 00	 push	 OFFSET ??_C@_0BM@HMFGHCP@?$CFs?5min?3?$CFd?0?5max?3?$CFd?0?5index?3?$CFd@
  000b0	e8 00 00 00 00	 call	 ?Error@@YAPBDPBDZZ	; Error
  000b5	83 c4 14	 add	 esp, 20			; 00000014H

; 1389 : 	VERIFY_RANGE_ASSERT( nIndex, 0, m_aPropItem.GetSize(), "GetItemProp range_error", NULL );

  000b8	33 f6		 xor	 esi, esi
$LN2@ResultItem:
; File C:\IAGOS\server\v18\Source\Source\_Common\MiniGame.cpp

; 409  : 		itemElem.m_nHitPoint	= 0;

  000ba	c7 45 b0 00 00
	00 00		 mov	 DWORD PTR _itemElem$[ebp+112], 0
$LN3@ResultItem:

; 410  : 	itemElem.m_bCharged = pItemProp->bCharged;

  000c1	8b 86 ec 00 00
	00		 mov	 eax, DWORD PTR [esi+236]

; 411  : 	
; 412  : 	LogItemInfo aLogItem;

  000c7	8d 8d 78 fe ff
	ff		 lea	 ecx, DWORD PTR _aLogItem$[ebp]
  000cd	89 45 e4	 mov	 DWORD PTR _itemElem$[ebp+164], eax
  000d0	e8 00 00 00 00	 call	 ??0_LogItemInfo@@QAE@XZ	; _LogItemInfo::_LogItemInfo

; 413  : 	if( pUser->CreateItem( &itemElem ) )

  000d5	6a 00		 push	 0
  000d7	6a 00		 push	 0
  000d9	6a 00		 push	 0
  000db	8d 85 40 ff ff
	ff		 lea	 eax, DWORD PTR _itemElem$[ebp]
  000e1	8b cf		 mov	 ecx, edi
  000e3	50		 push	 eax
  000e4	e8 00 00 00 00	 call	 ?CreateItem@CMover@@QAEHPAVCItemBase@@PAEPAFE@Z ; CMover::CreateItem
  000e9	85 c0		 test	 eax, eax
  000eb	74 3c		 je	 SHORT $LN4@ResultItem

; 414  : 	{
; 415  : 		aLogItem.RecvName = "ALPABET_PRIZE";
; 416  : 		pUser->AddDefinedText( TID_GAME_REAPITEM, "\"%s\"", pItemProp->szName );

  000ed	8d 46 04	 lea	 eax, DWORD PTR [esi+4]
  000f0	c7 85 80 fe ff
	ff 00 00 00 00	 mov	 DWORD PTR _aLogItem$[ebp+8], OFFSET ??_C@_0O@LAKHECLG@ALPABET_PRIZE@
  000fa	50		 push	 eax
  000fb	68 00 00 00 00	 push	 OFFSET ??_C@_04OEDFLLKD@?$CC?$CFs?$CC@
  00100	68 74 02 00 00	 push	 628			; 00000274H
  00105	57		 push	 edi
  00106	e8 00 00 00 00	 call	 ?AddDefinedText@CUser@@QAAXHPBDZZ ; CUser::AddDefinedText
  0010b	83 c4 10	 add	 esp, 16			; 00000010H

; 417  : 		pUser->AddAlphabetResult( nNum, ItemGame.dwItemId, ItemGame.nItemCount );

  0010e	8b cf		 mov	 ecx, edi
  00110	ff b5 70 fe ff
	ff		 push	 DWORD PTR _ItemGame$[ebp+4]
  00116	ff b5 6c fe ff
	ff		 push	 DWORD PTR _ItemGame$[ebp]
  0011c	ff 75 0c	 push	 DWORD PTR _nNum$[ebp]
  0011f	e8 00 00 00 00	 call	 ?AddAlphabetResult@CUser@@QAEXHKH@Z ; CUser::AddAlphabetResult

; 418  : 	}

  00124	e9 bc 00 00 00	 jmp	 $LN5@ResultItem
$LN4@ResultItem:
; File C:\IAGOS\server\v18\Source\Source\_Common\Project.h

; 1427 : 	VERIFY_RANGE( (int)( dwIndex ), 0, m_colorText.GetSize(), "GetText range_error", "error" );

  00129	a1 ac 02 00 00	 mov	 eax, DWORD PTR ?prj@@3VCProject@@A+684
; File C:\IAGOS\server\v18\Source\Source\_Common\MiniGame.cpp

; 421  : 		aLogItem.RecvName = "ALPABET_PRIZE_POST";

  0012e	c7 85 80 fe ff
	ff 00 00 00 00	 mov	 DWORD PTR _aLogItem$[ebp+8], OFFSET ??_C@_0BD@CAPJLNGE@ALPABET_PRIZE_POST@
; File C:\IAGOS\server\v18\Source\Source\_Common\Project.h

; 1427 : 	VERIFY_RANGE( (int)( dwIndex ), 0, m_colorText.GetSize(), "GetText range_error", "error" );

  00138	3d 85 1b 00 00	 cmp	 eax, 7045		; 00001b85H
  0013d	7f 21		 jg	 SHORT $LN23@ResultItem

; 579  : 	LPCTSTR szErr = Error( _T( "%s min:%d, max:%d, index:%d" ), szMsg, nMin, nMax, nIndex ); 

  0013f	68 85 1b 00 00	 push	 7045			; 00001b85H
  00144	50		 push	 eax
  00145	6a 00		 push	 0
  00147	68 00 00 00 00	 push	 OFFSET ??_C@_0BE@OHDBLHOM@GetText?5range_error@
  0014c	68 00 00 00 00	 push	 OFFSET ??_C@_0BM@HMFGHCP@?$CFs?5min?3?$CFd?0?5max?3?$CFd?0?5index?3?$CFd@
  00151	e8 00 00 00 00	 call	 ?Error@@YAPBDPBDZZ	; Error
  00156	83 c4 14	 add	 esp, 20			; 00000014H

; 1427 : 	VERIFY_RANGE( (int)( dwIndex ), 0, m_colorText.GetSize(), "GetText range_error", "error" );

  00159	be 00 00 00 00	 mov	 esi, OFFSET ??_C@_05KKCIMGE@error@
  0015e	eb 1b		 jmp	 SHORT $LN22@ResultItem
$LN23@ResultItem:
; File C:\IAGOS\server\v18\Source\Source\_Common\data.h

; 270  : 	if( dwIndex >= (DWORD)m_nMaxIndex )

  00160	76 14		 jbe	 SHORT $LN52@ResultItem

; 272  : 	return (T*) m_apOffset[ dwIndex ];

  00162	a1 9c 02 00 00	 mov	 eax, DWORD PTR ?prj@@3VCProject@@A+668
  00167	8b b0 14 6e 00
	00		 mov	 esi, DWORD PTR [eax+28180]
; File C:\IAGOS\server\v18\Source\Source\_Common\Project.h

; 1428 : 	if( m_colorText.GetAt( dwIndex ) == NULL )

  0016d	85 f6		 test	 esi, esi
  0016f	74 05		 je	 SHORT $LN52@ResultItem

; 1430 : 	return m_colorText.GetAt( dwIndex )->lpszData; 

  00171	8b 76 04	 mov	 esi, DWORD PTR [esi+4]
  00174	eb 05		 jmp	 SHORT $LN22@ResultItem
$LN52@ResultItem:

; 1429 : 		return "";

  00176	be 00 00 00 00	 mov	 esi, OFFSET ??_C@_00CNPNBAHC@@
$LN22@ResultItem:

; 1389 : 	VERIFY_RANGE_ASSERT( nIndex, 0, m_aPropItem.GetSize(), "GetItemProp range_error", NULL );

  0017b	8b 8d 4c ff ff
	ff		 mov	 ecx, DWORD PTR _itemElem$[ebp+12]
  00181	a1 40 02 00 00	 mov	 eax, DWORD PTR ?prj@@3VCProject@@A+576
  00186	85 c9		 test	 ecx, ecx
  00188	78 10		 js	 SHORT $LN45@ResultItem
  0018a	3b c8		 cmp	 ecx, eax
  0018c	7d 0c		 jge	 SHORT $LN45@ResultItem
; File C:\IAGOS\server\v18\Source\Source\_Common\data.h

; 270  : 	if( dwIndex >= (DWORD)m_nMaxIndex )

  0018e	73 20		 jae	 SHORT $LN54@ResultItem

; 272  : 	return (T*) m_apOffset[ dwIndex ];

  00190	a1 30 02 00 00	 mov	 eax, DWORD PTR ?prj@@3VCProject@@A+560
  00195	8b 04 88	 mov	 eax, DWORD PTR [eax+ecx*4]
; File C:\IAGOS\server\v18\Source\Source\_Common\Project.h

; 1390 : 	return m_aPropItem.GetAt( nIndex ); 

  00198	eb 18		 jmp	 SHORT $LN40@ResultItem
$LN45@ResultItem:

; 579  : 	LPCTSTR szErr = Error( _T( "%s min:%d, max:%d, index:%d" ), szMsg, nMin, nMax, nIndex ); 

  0019a	51		 push	 ecx
  0019b	50		 push	 eax
  0019c	6a 00		 push	 0
  0019e	68 00 00 00 00	 push	 OFFSET ??_C@_0BI@BEIFNGEL@GetItemProp?5range_error@
  001a3	68 00 00 00 00	 push	 OFFSET ??_C@_0BM@HMFGHCP@?$CFs?5min?3?$CFd?0?5max?3?$CFd?0?5index?3?$CFd@
  001a8	e8 00 00 00 00	 call	 ?Error@@YAPBDPBDZZ	; Error
  001ad	83 c4 14	 add	 esp, 20			; 00000014H
$LN54@ResultItem:
; File C:\IAGOS\server\v18\Source\Source\_Common\MiniGame.cpp

; 422  : 		g_dpDBClient.SendQueryPostMail( pUser->m_idPlayer, 0, itemElem, 0, itemElem.GetProp()->szName, (char*)GETTEXT( TID_MMI_FINDWORD ) );

  001b0	33 c0		 xor	 eax, eax
$LN40@ResultItem:
  001b2	56		 push	 esi
  001b3	83 c0 04	 add	 eax, 4
  001b6	b9 00 00 00 00	 mov	 ecx, OFFSET ?g_dpDBClient@@3VCDPDatabaseClient@@A ; g_dpDBClient
  001bb	50		 push	 eax
  001bc	6a 00		 push	 0
  001be	8d 85 40 ff ff
	ff		 lea	 eax, DWORD PTR _itemElem$[ebp]
  001c4	50		 push	 eax
  001c5	6a 00		 push	 0
  001c7	ff b7 34 02 00
	00		 push	 DWORD PTR [edi+564]
  001cd	e8 00 00 00 00	 call	 ?SendQueryPostMail@CDPDatabaseClient@@QAEXKKAAVCItemElem@@HPAD1@Z ; CDPDatabaseClient::SendQueryPostMail

; 423  : 		pUser->AddDefinedText( TID_GAME_MINIGAME_ITEM_POST, "" );

  001d2	68 00 00 00 00	 push	 OFFSET ??_C@_00CNPNBAHC@@
  001d7	68 6b 0c 00 00	 push	 3179			; 00000c6bH
  001dc	57		 push	 edi
  001dd	e8 00 00 00 00	 call	 ?AddDefinedText@CUser@@QAAXHPBDZZ ; CUser::AddDefinedText
  001e2	83 c4 0c	 add	 esp, 12			; 0000000cH
$LN5@ResultItem:

; 424  : 	}
; 425  : 	aLogItem.Action = "+";
; 426  : 	aLogItem.SendName = pUser->GetName();

  001e5	6a 00		 push	 0
  001e7	8b cf		 mov	 ecx, edi
  001e9	c7 85 78 fe ff
	ff 00 00 00 00	 mov	 DWORD PTR _aLogItem$[ebp], OFFSET ??_C@_01MIFGBAGJ@?$CL@
  001f3	e8 00 00 00 00	 call	 ?GetName@CMover@@QAEPBDH@Z ; CMover::GetName

; 427  : 	aLogItem.WorldId = pUser->GetWorld()->GetID();
; 428  : 	g_DPSrvr.OnLogItem( aLogItem, &itemElem, ItemGame.nItemCount );

  001f8	ff b5 70 fe ff
	ff		 push	 DWORD PTR _ItemGame$[ebp+4]
  001fe	89 85 7c fe ff
	ff		 mov	 DWORD PTR _aLogItem$[ebp+4], eax
  00204	b9 00 00 00 00	 mov	 ecx, OFFSET ?g_DPSrvr@@3VCDPSrvr@@A ; g_DPSrvr
  00209	8b 87 6c 01 00
	00		 mov	 eax, DWORD PTR [edi+364]
  0020f	8b 00		 mov	 eax, DWORD PTR [eax]
  00211	89 85 84 fe ff
	ff		 mov	 DWORD PTR _aLogItem$[ebp+12], eax
  00217	8d 85 40 ff ff
	ff		 lea	 eax, DWORD PTR _itemElem$[ebp]
  0021d	50		 push	 eax
  0021e	8d 85 78 fe ff
	ff		 lea	 eax, DWORD PTR _aLogItem$[ebp]
  00224	50		 push	 eax
  00225	e8 00 00 00 00	 call	 ?OnLogItem@CDPSrvr@@QAEXAAU_LogItemInfo@@PAVCItemElem@@H@Z ; CDPSrvr::OnLogItem

; 429  : 	
; 430  : 	return TRUE;

  0022a	8d 8d 40 ff ff
	ff		 lea	 ecx, DWORD PTR _itemElem$[ebp]
  00230	e8 00 00 00 00	 call	 ??1CItemElem@@UAE@XZ	; CItemElem::~CItemElem
  00235	b8 01 00 00 00	 mov	 eax, 1

; 431  : }

  0023a	8b 4d f4	 mov	 ecx, DWORD PTR __$EHRec$[ebp]
  0023d	64 89 0d 00 00
	00 00		 mov	 DWORD PTR fs:0, ecx
  00244	59		 pop	 ecx
  00245	5f		 pop	 edi
  00246	5e		 pop	 esi
  00247	8b 4d f0	 mov	 ecx, DWORD PTR __$ArrayPad$[ebp]
  0024a	33 cd		 xor	 ecx, ebp
  0024c	e8 00 00 00 00	 call	 @__security_check_cookie@4
  00251	8b e5		 mov	 esp, ebp
  00253	5d		 pop	 ebp
  00254	c2 08 00	 ret	 8
_TEXT	ENDS
;	COMDAT text$x
text$x	SEGMENT
__unwindfunclet$?ResultItem_Alphabet@CMiniGame@@QAEHPAVCUser@@H@Z$0:
  00000	8d 8d 40 ff ff
	ff		 lea	 ecx, DWORD PTR _itemElem$[ebp]
  00006	e9 00 00 00 00	 jmp	 ??1CItemElem@@UAE@XZ	; CItemElem::~CItemElem
  0000b	cc		 int	 3
  0000c	cc		 int	 3
  0000d	cc		 int	 3
  0000e	cc		 int	 3
  0000f	cc		 int	 3
__ehhandler$?ResultItem_Alphabet@CMiniGame@@QAEHPAVCUser@@H@Z:
  00010	90		 npad	 1
  00011	90		 npad	 1
  00012	8b 54 24 08	 mov	 edx, DWORD PTR [esp+8]
  00016	8d 42 0c	 lea	 eax, DWORD PTR [edx+12]
  00019	8b 8a 6c fe ff
	ff		 mov	 ecx, DWORD PTR [edx-404]
  0001f	33 c8		 xor	 ecx, eax
  00021	e8 00 00 00 00	 call	 @__security_check_cookie@4
  00026	8b 4a fc	 mov	 ecx, DWORD PTR [edx-4]
  00029	33 c8		 xor	 ecx, eax
  0002b	e8 00 00 00 00	 call	 @__security_check_cookie@4
  00030	b8 00 00 00 00	 mov	 eax, OFFSET __ehfuncinfo$?ResultItem_Alphabet@CMiniGame@@QAEHPAVCUser@@H@Z
  00035	e9 00 00 00 00	 jmp	 ___CxxFrameHandler3
text$x	ENDS
?ResultItem_Alphabet@CMiniGame@@QAEHPAVCUser@@H@Z ENDP	; CMiniGame::ResultItem_Alphabet
; Function compile flags: /Ogtp
; File C:\IAGOS\server\v18\Source\Source\_Common\MiniGame.cpp
; File C:\Program Files\Microsoft Visual Studio\2022\Professional\VC\Tools\MSVC\14.44.35207\include\vector
; File C:\IAGOS\server\v18\Source\Source\_Common\MiniGame.cpp
; File C:\Program Files\Microsoft Visual Studio\2022\Professional\VC\Tools\MSVC\14.44.35207\atlmfc\include\afxstr.h
; File C:\Program Files\Microsoft Visual Studio\2022\Professional\VC\Tools\MSVC\14.44.35207\atlmfc\include\atlsimpstr.h
; File C:\Program Files\Microsoft Visual Studio\2022\Professional\VC\Tools\MSVC\14.44.35207\include\xmemory
; File C:\IAGOS\server\v18\Source\Source\_Common\MiniGame.cpp
; File C:\Program Files\Microsoft Visual Studio\2022\Professional\VC\Tools\MSVC\14.44.35207\include\xtree
; File C:\Program Files\Microsoft Visual Studio\2022\Professional\VC\Tools\MSVC\14.44.35207\include\xmemory
; File C:\Program Files\Microsoft Visual Studio\2022\Professional\VC\Tools\MSVC\14.44.35207\include\xtree
; File C:\IAGOS\server\v18\Source\Source\_Common\MiniGame.cpp
; File C:\Program Files\Microsoft Visual Studio\2022\Professional\VC\Tools\MSVC\14.44.35207\atlmfc\include\atlsimpstr.h
; File C:\IAGOS\server\v18\Source\Source\_Common\MiniGame.cpp
; File C:\Program Files\Microsoft Visual Studio\2022\Professional\VC\Tools\MSVC\14.44.35207\include\xtree
; File C:\Program Files\Microsoft Visual Studio\2022\Professional\VC\Tools\MSVC\14.44.35207\include\type_traits
; File C:\Program Files\Microsoft Visual Studio\2022\Professional\VC\Tools\MSVC\14.44.35207\include\xtree
; File C:\IAGOS\server\v18\Source\Source\_Common\MiniGame.cpp
; File C:\Program Files\Microsoft Visual Studio\2022\Professional\VC\Tools\MSVC\14.44.35207\include\utility
; File C:\Program Files\Microsoft Visual Studio\2022\Professional\VC\Tools\MSVC\14.44.35207\include\xtree
; File C:\Program Files\Microsoft Visual Studio\2022\Professional\VC\Tools\MSVC\14.44.35207\include\utility
; File C:\Program Files\Microsoft Visual Studio\2022\Professional\VC\Tools\MSVC\14.44.35207\include\xtree
; File C:\Program Files\Microsoft Visual Studio\2022\Professional\VC\Tools\MSVC\14.44.35207\include\utility
; File C:\Program Files\Microsoft Visual Studio\2022\Professional\VC\Tools\MSVC\14.44.35207\include\xtree
; File C:\Program Files\Microsoft Visual Studio\2022\Professional\VC\Tools\MSVC\14.44.35207\include\type_traits
; File C:\Program Files\Microsoft Visual Studio\2022\Professional\VC\Tools\MSVC\14.44.35207\include\xtree
; File C:\Program Files\Microsoft Visual Studio\2022\Professional\VC\Tools\MSVC\14.44.35207\include\xmemory
; File C:\Program Files\Microsoft Visual Studio\2022\Professional\VC\Tools\MSVC\14.44.35207\include\xtree
; File C:\Program Files\Microsoft Visual Studio\2022\Professional\VC\Tools\MSVC\14.44.35207\include\xmemory
; File C:\Program Files\Microsoft Visual Studio\2022\Professional\VC\Tools\MSVC\14.44.35207\include\utility
; File C:\Program Files\Microsoft Visual Studio\2022\Professional\VC\Tools\MSVC\14.44.35207\include\xmemory
; File C:\Program Files\Microsoft Visual Studio\2022\Professional\VC\Tools\MSVC\14.44.35207\include\xtree
; File C:\Program Files\Microsoft Visual Studio\2022\Professional\VC\Tools\MSVC\14.44.35207\include\utility
; File C:\Program Files\Microsoft Visual Studio\2022\Professional\VC\Tools\MSVC\14.44.35207\include\xtree
; File C:\Program Files\Microsoft Visual Studio\2022\Professional\VC\Tools\MSVC\14.44.35207\include\utility
; File C:\Program Files\Microsoft Visual Studio\2022\Professional\VC\Tools\MSVC\14.44.35207\include\xtree
; File C:\IAGOS\server\v18\Source\Source\_Common\MiniGame.cpp
; File C:\IAGOS\server\v18\Source\Source\_Common\Item.h
; File C:\IAGOS\server\v18\Source\Source\_Common\Project.h
; File C:\IAGOS\server\v18\Source\Source\_Common\data.h
; File C:\IAGOS\server\v18\Source\Source\_Common\Project.h
; File C:\IAGOS\server\v18\Source\Source\_Common\MiniGame.cpp
; File C:\Program Files\Microsoft Visual Studio\2022\Professional\VC\Tools\MSVC\14.44.35207\atlmfc\include\atlsimpstr.h
; File C:\IAGOS\server\v18\Source\Source\_Common\MiniGame.cpp
; File C:\Program Files\Microsoft Visual Studio\2022\Professional\VC\Tools\MSVC\14.44.35207\atlmfc\include\atlsimpstr.h
; File C:\IAGOS\server\v18\Source\Source\_Common\MiniGame.cpp
; File C:\Program Files\Microsoft Visual Studio\2022\Professional\VC\Tools\MSVC\14.44.35207\atlmfc\include\atlsimpstr.h
; File C:\IAGOS\server\v18\Source\Source\_Common\MiniGame.cpp
; File C:\Program Files\Microsoft Visual Studio\2022\Professional\VC\Tools\MSVC\14.44.35207\include\vector
; File C:\IAGOS\server\v18\Source\Source\_Common\MiniGame.cpp
; File C:\Program Files\Microsoft Visual Studio\2022\Professional\VC\Tools\MSVC\14.44.35207\atlmfc\include\cstringt.h
; File C:\Program Files\Microsoft Visual Studio\2022\Professional\VC\Tools\MSVC\14.44.35207\include\vector
; File C:\Program Files\Microsoft Visual Studio\2022\Professional\VC\Tools\MSVC\14.44.35207\atlmfc\include\atlsimpstr.h
; File C:\IAGOS\server\v18\Source\Source\_Common\MiniGame.cpp
; File C:\Program Files\Microsoft Visual Studio\2022\Professional\VC\Tools\MSVC\14.44.35207\atlmfc\include\atlsimpstr.h
; File C:\IAGOS\server\v18\Source\Source\_Common\MiniGame.cpp
; File C:\Program Files\Microsoft Visual Studio\2022\Professional\VC\Tools\MSVC\14.44.35207\atlmfc\include\atlsimpstr.h
; File C:\Program Files\Microsoft Visual Studio\2022\Professional\VC\Tools\MSVC\14.44.35207\include\xtree
; File C:\Program Files\Microsoft Visual Studio\2022\Professional\VC\Tools\MSVC\14.44.35207\atlmfc\include\atlsimpstr.h
; File C:\Program Files\Microsoft Visual Studio\2022\Professional\VC\Tools\MSVC\14.44.35207\atlmfc\include\cstringt.h
; File C:\IAGOS\server\v18\Source\Source\_Common\MiniGame.cpp
;	COMDAT ?Result_Alphabet@CMiniGame@@QAEHPAVCUser@@PAKHH@Z
_TEXT	SEGMENT
$T3 = -376						; size = 12
__Loc$4 = -364						; size = 12
_temp$ = -352						; size = 24
__Loc$5 = -328						; size = 12
$T6 = -316						; size = 8
$T7 = -308						; size = 8
$T8 = -300						; size = 4
tv1662 = -296						; size = 4
_objItemId$GSCopy$1$ = -292				; size = 4
_pUser$GSCopy$1$ = -288					; size = 4
_i$1$ = -284						; size = 4
$T9 = -280						; size = 4
_pItemElem$1$ = -276					; size = 4
_nOldLength$1$ = -276					; size = 4
_strWord$ = -272					; size = 4
_map_Item$ = -268					; size = 8
_this$GSCopy$1$ = -260					; size = 4
tv1649 = -256						; size = 4
_chAlphabet$1$ = -249					; size = 1
_aLogItem$ = -248					; size = 200
_szTemp$ = -48						; size = 32
__$ArrayPad$ = -16					; size = 4
__$EHRec$ = -12						; size = 12
_pUser$ = 8						; size = 4
_objItemId$ = 12					; size = 4
_nCount$ = 16						; size = 4
_nQuestionID$ = 20					; size = 4
?Result_Alphabet@CMiniGame@@QAEHPAVCUser@@PAKHH@Z PROC	; CMiniGame::Result_Alphabet, COMDAT
; _this$ = ecx

; 288  : {

  00000	55		 push	 ebp
  00001	8b ec		 mov	 ebp, esp
  00003	6a ff		 push	 -1
  00005	68 00 00 00 00	 push	 __ehhandler$?Result_Alphabet@CMiniGame@@QAEHPAVCUser@@PAKHH@Z
  0000a	64 a1 00 00 00
	00		 mov	 eax, DWORD PTR fs:0
  00010	50		 push	 eax
  00011	81 ec 6c 01 00
	00		 sub	 esp, 364		; 0000016cH
  00017	a1 00 00 00 00	 mov	 eax, DWORD PTR ___security_cookie
  0001c	33 c5		 xor	 eax, ebp
  0001e	89 45 f0	 mov	 DWORD PTR __$ArrayPad$[ebp], eax
  00021	56		 push	 esi
  00022	57		 push	 edi
  00023	50		 push	 eax
  00024	8d 45 f4	 lea	 eax, DWORD PTR __$EHRec$[ebp]
  00027	64 a3 00 00 00
	00		 mov	 DWORD PTR fs:0, eax
  0002d	8b d1		 mov	 edx, ecx
  0002f	89 95 fc fe ff
	ff		 mov	 DWORD PTR _this$GSCopy$1$[ebp], edx
  00035	8b 7d 08	 mov	 edi, DWORD PTR _pUser$[ebp]
  00038	8b 45 0c	 mov	 eax, DWORD PTR _objItemId$[ebp]
  0003b	8b 75 14	 mov	 esi, DWORD PTR _nQuestionID$[ebp]
  0003e	89 85 dc fe ff
	ff		 mov	 DWORD PTR _objItemId$GSCopy$1$[ebp], eax

; 289  : 	// ĆäłÄ °Ë»ç..
; 290  : 	if( pUser->GetGold() < m_nPayPenya )

  00044	8b 87 e0 14 00
	00		 mov	 eax, DWORD PTR [edi+5344]
  0004a	89 b5 d4 fe ff
	ff		 mov	 DWORD PTR $T8[ebp], esi
  00050	89 bd e0 fe ff
	ff		 mov	 DWORD PTR _pUser$GSCopy$1$[ebp], edi
  00056	3b 42 10	 cmp	 eax, DWORD PTR [edx+16]
  00059	7d 0a		 jge	 SHORT $LN8@Result_Alp

; 291  : 		return ALPHABET_NOTENOUGH_MONEY;

  0005b	b8 e6 03 00 00	 mov	 eax, 998		; 000003e6H
  00060	e9 68 04 00 00	 jmp	 $LN1@Result_Alp
$LN8@Result_Alp:

; 294  : 	if( nQuestionID < 0 || nQuestionID >= (int)( m_vecAlphabet.size() ) )

  00065	85 f6		 test	 esi, esi
  00067	0f 88 5b 04 00
	00		 js	 $LN10@Result_Alp
; File C:\Program Files\Microsoft Visual Studio\2022\Professional\VC\Tools\MSVC\14.44.35207\include\vector

; 1915 :         return static_cast<size_type>(_My_data._Mylast - _My_data._Myfirst);

  0006d	8b 4a 1c	 mov	 ecx, DWORD PTR [edx+28]
  00070	b8 ab aa aa 2a	 mov	 eax, 715827883		; 2aaaaaabH
  00075	2b 4a 18	 sub	 ecx, DWORD PTR [edx+24]
  00078	f7 e9		 imul	 ecx
  0007a	c1 fa 02	 sar	 edx, 2
  0007d	8b c2		 mov	 eax, edx
  0007f	c1 e8 1f	 shr	 eax, 31			; 0000001fH
  00082	03 c2		 add	 eax, edx
; File C:\IAGOS\server\v18\Source\Source\_Common\MiniGame.cpp

; 294  : 	if( nQuestionID < 0 || nQuestionID >= (int)( m_vecAlphabet.size() ) )

  00084	3b f0		 cmp	 esi, eax
  00086	0f 8d 3c 04 00
	00		 jge	 $LN10@Result_Alp
; File C:\Program Files\Microsoft Visual Studio\2022\Professional\VC\Tools\MSVC\14.44.35207\atlmfc\include\afxstr.h

; 56   : 		return( AfxGetStringManager() );

  0008c	e8 00 00 00 00	 call	 ?AfxGetStringManager@@YGPAUIAtlStringMgr@ATL@@XZ ; AfxGetStringManager
  00091	8b c8		 mov	 ecx, eax
; File C:\Program Files\Microsoft Visual Studio\2022\Professional\VC\Tools\MSVC\14.44.35207\atlmfc\include\atlsimpstr.h

; 209  : 		ATLENSURE( pStringMgr != NULL );

  00093	85 c9		 test	 ecx, ecx
  00095	0f 84 4f 04 00
	00		 je	 $LN396@Result_Alp

; 210  : 		CStringData* pData = pStringMgr->GetNilString();

  0009b	8b 01		 mov	 eax, DWORD PTR [ecx]
  0009d	8b 40 0c	 mov	 eax, DWORD PTR [eax+12]
  000a0	ff d0		 call	 eax

; 211  : 		Attach( pData );

  000a2	8d 70 10	 lea	 esi, DWORD PTR [eax+16]
  000a5	89 b5 f0 fe ff
	ff		 mov	 DWORD PTR _strWord$[ebp], esi
; File C:\Program Files\Microsoft Visual Studio\2022\Professional\VC\Tools\MSVC\14.44.35207\include\xmemory

; 136  :         return ::operator new(_Bytes);

  000ab	6a 18		 push	 24			; 00000018H
; File C:\IAGOS\server\v18\Source\Source\_Common\MiniGame.cpp

; 297  : 	CString strWord;

  000ad	c7 45 fc 00 00
	00 00		 mov	 DWORD PTR __$EHRec$[ebp+8], 0
; File C:\Program Files\Microsoft Visual Studio\2022\Professional\VC\Tools\MSVC\14.44.35207\include\xtree

; 450  :     _Tree_val() noexcept : _Myhead(), _Mysize(0) {}

  000b4	c7 85 f4 fe ff
	ff 00 00 00 00	 mov	 DWORD PTR _map_Item$[ebp], 0
  000be	c7 85 f8 fe ff
	ff 00 00 00 00	 mov	 DWORD PTR _map_Item$[ebp+4], 0
; File C:\Program Files\Microsoft Visual Studio\2022\Professional\VC\Tools\MSVC\14.44.35207\include\xmemory

; 136  :         return ::operator new(_Bytes);

  000c8	e8 00 00 00 00	 call	 ??2@YAPAXI@Z		; operator new
  000cd	83 c4 04	 add	 esp, 4
; File C:\Program Files\Microsoft Visual Studio\2022\Professional\VC\Tools\MSVC\14.44.35207\include\xtree

; 346  :         _Construct_in_place(_Pnode->_Left, _Pnode);

  000d0	89 00		 mov	 DWORD PTR [eax], eax

; 347  :         _Construct_in_place(_Pnode->_Parent, _Pnode);

  000d2	89 40 04	 mov	 DWORD PTR [eax+4], eax

; 348  :         _Construct_in_place(_Pnode->_Right, _Pnode);

  000d5	89 40 08	 mov	 DWORD PTR [eax+8], eax

; 349  :         _Pnode->_Color = _Black;

  000d8	66 c7 40 0c 01
	01		 mov	 WORD PTR [eax+12], 257	; 00000101H

; 1957 :         _Scary->_Myhead = _Node::_Buyheadnode(_Getal());

  000de	89 85 f4 fe ff
	ff		 mov	 DWORD PTR _map_Item$[ebp], eax
; File C:\IAGOS\server\v18\Source\Source\_Common\MiniGame.cpp

; 300  : 	for( int i=0; i<nCount; ++i )

  000e4	83 7d 10 00	 cmp	 DWORD PTR _nCount$[ebp], 0
  000e8	c6 45 fc 01	 mov	 BYTE PTR __$EHRec$[ebp+8], 1
  000ec	c7 85 e4 fe ff
	ff 00 00 00 00	 mov	 DWORD PTR _i$1$[ebp], 0
  000f6	0f 8e 3f 02 00
	00		 jle	 $LN3@Result_Alp
  000fc	8d 87 fc 0a 00
	00		 lea	 eax, DWORD PTR [edi+2812]
; File C:\Program Files\Microsoft Visual Studio\2022\Professional\VC\Tools\MSVC\14.44.35207\atlmfc\include\atlsimpstr.h

; 210  : 		CStringData* pData = pStringMgr->GetNilString();

  00102	8b bd dc fe ff
	ff		 mov	 edi, DWORD PTR _objItemId$GSCopy$1$[ebp]
  00108	89 85 d8 fe ff
	ff		 mov	 DWORD PTR tv1662[ebp], eax
  0010e	89 bd 00 ff ff
	ff		 mov	 DWORD PTR tv1649[ebp], edi
$LL4@Result_Alp:
; File C:\IAGOS\server\v18\Source\Source\_Common\MiniGame.cpp

; 302  : 		pItemElem	= (CItemElem*)pUser->m_Inventory.GetAtId( objItemId[i] );

  00114	ff 37		 push	 DWORD PTR [edi]
  00116	8b c8		 mov	 ecx, eax
  00118	e8 00 00 00 00	 call	 ?GetAtId@?$CItemContainer@VCItemElem@@@@QAEPAVCItemElem@@K@Z ; CItemContainer<CItemElem>::GetAtId

; 303  : 		if( !IsUsableItem( pItemElem ) )

  0011d	50		 push	 eax
  0011e	89 85 ec fe ff
	ff		 mov	 DWORD PTR _pItemElem$1$[ebp], eax
  00124	e8 00 00 00 00	 call	 ?IsUsableItem@@YAHPAVCItemBase@@@Z ; IsUsableItem
  00129	83 c4 04	 add	 esp, 4
  0012c	85 c0		 test	 eax, eax
  0012e	0f 84 f7 01 00
	00		 je	 $LN373@Result_Alp
; File C:\Program Files\Microsoft Visual Studio\2022\Professional\VC\Tools\MSVC\14.44.35207\include\xtree

; 1384 :         const _Tree_find_result<_Nodeptr> _Loc = _Find_lower_bound(_Keyval);

  00134	57		 push	 edi
  00135	8d 85 94 fe ff
	ff		 lea	 eax, DWORD PTR __Loc$4[ebp]
  0013b	50		 push	 eax
  0013c	8d 8d f4 fe ff
	ff		 lea	 ecx, DWORD PTR _map_Item$[ebp]
  00142	e8 00 00 00 00	 call	 ??$_Find_lower_bound@K@?$_Tree@V?$_Tmap_traits@KHU?$less@K@std@@V?$allocator@U?$pair@$$CBKH@std@@@2@$0A@@std@@@std@@IBE?AU?$_Tree_find_result@PAU?$_Tree_node@U?$pair@$$CBKH@std@@PAX@std@@@1@ABK@Z ; std::_Tree<std::_Tmap_traits<unsigned long,int,std::less<unsigned long>,std::allocator<std::pair<unsigned long const ,int> >,0> >::_Find_lower_bound<unsigned long>

; 1624 :         return !_Bound->_Isnil && !_DEBUG_LT_PRED(_Getcomp(), _Keyval, _Traits::_Kfn(_Bound->_Myval));

  00147	8b 85 9c fe ff
	ff		 mov	 eax, DWORD PTR __Loc$4[ebp+8]
  0014d	8b bd f4 fe ff
	ff		 mov	 edi, DWORD PTR _map_Item$[ebp]
  00153	8b 95 00 ff ff
	ff		 mov	 edx, DWORD PTR tv1649[ebp]
  00159	80 78 0d 00	 cmp	 BYTE PTR [eax+13], 0
  0015d	75 07		 jne	 SHORT $LN86@Result_Alp
; File C:\Program Files\Microsoft Visual Studio\2022\Professional\VC\Tools\MSVC\14.44.35207\include\type_traits

; 2380 :         return _Left < _Right;

  0015f	8b 0a		 mov	 ecx, DWORD PTR [edx]
  00161	3b 48 10	 cmp	 ecx, DWORD PTR [eax+16]
; File C:\Program Files\Microsoft Visual Studio\2022\Professional\VC\Tools\MSVC\14.44.35207\include\xtree

; 1624 :         return !_Bound->_Isnil && !_DEBUG_LT_PRED(_Getcomp(), _Keyval, _Traits::_Kfn(_Bound->_Myval));

  00164	73 02		 jae	 SHORT $LN85@Result_Alp
$LN86@Result_Alp:

; 1389 :         return _Get_scary()->_Myhead;

  00166	8b c7		 mov	 eax, edi
$LN85@Result_Alp:

; 37   :     _Tree_unchecked_const_iterator(_Nodeptr _Pnode, const _Mytree* _Plist) noexcept : _Ptr(_Pnode) {

  00168	3b c7		 cmp	 eax, edi
; File C:\IAGOS\server\v18\Source\Source\_Common\MiniGame.cpp

; 307  : 		if( it == map_Item.end() )

  0016a	0f 85 cb 00 00
	00		 jne	 $LN12@Result_Alp
; File C:\Program Files\Microsoft Visual Studio\2022\Professional\VC\Tools\MSVC\14.44.35207\include\utility

; 274  :         : first(_STD forward<_Other1>(_Val1)), second(_STD forward<_Other2>(_Val2)) {

  00170	8b 02		 mov	 eax, DWORD PTR [edx]
; File C:\Program Files\Microsoft Visual Studio\2022\Professional\VC\Tools\MSVC\14.44.35207\include\xtree

; 1017 :             _Loc                = _Find_lower_bound(_Keyval);

  00172	8d 8d f4 fe ff
	ff		 lea	 ecx, DWORD PTR _map_Item$[ebp]
; File C:\Program Files\Microsoft Visual Studio\2022\Professional\VC\Tools\MSVC\14.44.35207\include\utility

; 274  :         : first(_STD forward<_Other1>(_Val1)), second(_STD forward<_Other2>(_Val2)) {

  00178	89 85 e8 fe ff
	ff		 mov	 DWORD PTR $T9[ebp], eax
  0017e	89 85 cc fe ff
	ff		 mov	 DWORD PTR $T7[ebp], eax
; File C:\Program Files\Microsoft Visual Studio\2022\Professional\VC\Tools\MSVC\14.44.35207\include\xtree

; 1017 :             _Loc                = _Find_lower_bound(_Keyval);

  00184	8d 85 cc fe ff
	ff		 lea	 eax, DWORD PTR $T7[ebp]
  0018a	50		 push	 eax
  0018b	8d 85 88 fe ff
	ff		 lea	 eax, DWORD PTR $T3[ebp]
; File C:\Program Files\Microsoft Visual Studio\2022\Professional\VC\Tools\MSVC\14.44.35207\include\utility

; 274  :         : first(_STD forward<_Other1>(_Val1)), second(_STD forward<_Other2>(_Val2)) {

  00191	c7 85 d0 fe ff
	ff 01 00 00 00	 mov	 DWORD PTR $T7[ebp+4], 1
; File C:\Program Files\Microsoft Visual Studio\2022\Professional\VC\Tools\MSVC\14.44.35207\include\xtree

; 1017 :             _Loc                = _Find_lower_bound(_Keyval);

  0019b	50		 push	 eax
  0019c	e8 00 00 00 00	 call	 ??$_Find_lower_bound@K@?$_Tree@V?$_Tmap_traits@KHU?$less@K@std@@V?$allocator@U?$pair@$$CBKH@std@@@2@$0A@@std@@@std@@IBE?AU?$_Tree_find_result@PAU?$_Tree_node@U?$pair@$$CBKH@std@@PAX@std@@@1@ABK@Z ; std::_Tree<std::_Tmap_traits<unsigned long,int,std::less<unsigned long>,std::allocator<std::pair<unsigned long const ,int> >,0> >::_Find_lower_bound<unsigned long>
  001a1	f3 0f 7e 00	 movq	 xmm0, QWORD PTR [eax]
  001a5	8b 40 08	 mov	 eax, DWORD PTR [eax+8]
  001a8	66 0f d6 85 b8
	fe ff ff	 movq	 QWORD PTR __Loc$5[ebp], xmm0

; 1624 :         return !_Bound->_Isnil && !_DEBUG_LT_PRED(_Getcomp(), _Keyval, _Traits::_Kfn(_Bound->_Myval));

  001b0	80 78 0d 00	 cmp	 BYTE PTR [eax+13], 0
  001b4	75 0b		 jne	 SHORT $LN142@Result_Alp
; File C:\Program Files\Microsoft Visual Studio\2022\Professional\VC\Tools\MSVC\14.44.35207\include\type_traits

; 2380 :         return _Left < _Right;

  001b6	8b 8d e8 fe ff
	ff		 mov	 ecx, DWORD PTR $T9[ebp]
  001bc	3b 48 10	 cmp	 ecx, DWORD PTR [eax+16]
; File C:\Program Files\Microsoft Visual Studio\2022\Professional\VC\Tools\MSVC\14.44.35207\include\xtree

; 1624 :         return !_Bound->_Isnil && !_DEBUG_LT_PRED(_Getcomp(), _Keyval, _Traits::_Kfn(_Bound->_Myval));

  001bf	73 7d		 jae	 SHORT $LN13@Result_Alp
$LN142@Result_Alp:

; 1648 :         if (max_size() == _Get_scary()->_Mysize) {

  001c1	81 bd f8 fe ff
	ff aa aa aa 0a	 cmp	 DWORD PTR _map_Item$[ebp+4], 178956970 ; 0aaaaaaaH
  001cb	0f 84 23 03 00
	00		 je	 $LN374@Result_Alp
; File C:\Program Files\Microsoft Visual Studio\2022\Professional\VC\Tools\MSVC\14.44.35207\include\xmemory

; 1160 :     _CONSTEXPR20 explicit _Alloc_construct_ptr(_Alloc& _Al_) : _Al(_Al_), _Ptr(nullptr) {}

  001d1	8d 85 f4 fe ff
	ff		 lea	 eax, DWORD PTR _map_Item$[ebp]
  001d7	89 85 c4 fe ff
	ff		 mov	 DWORD PTR $T6[ebp], eax

; 136  :         return ::operator new(_Bytes);

  001dd	6a 18		 push	 24			; 00000018H
; File C:\Program Files\Microsoft Visual Studio\2022\Professional\VC\Tools\MSVC\14.44.35207\include\xtree

; 808  :     explicit _Tree_temp_node_alloc(_Alnode& _Al_) : _Alloc_construct_ptr<_Alnode>(_Al_) {

  001df	c6 45 fc 02	 mov	 BYTE PTR __$EHRec$[ebp+8], 2
; File C:\Program Files\Microsoft Visual Studio\2022\Professional\VC\Tools\MSVC\14.44.35207\include\xmemory

; 1167 :         _Ptr = nullptr; // if allocate throws, prevents double-free

  001e3	c7 85 c8 fe ff
	ff 00 00 00 00	 mov	 DWORD PTR $T6[ebp+4], 0

; 136  :         return ::operator new(_Bytes);

  001ed	e8 00 00 00 00	 call	 ??2@YAPAXI@Z		; operator new
; File C:\Program Files\Microsoft Visual Studio\2022\Professional\VC\Tools\MSVC\14.44.35207\include\utility

; 303  :         : first(_STD forward<_Other1>(_Right.first)), second(_STD forward<_Other2>(_Right.second)) {}

  001f2	8b 8d e8 fe ff
	ff		 mov	 ecx, DWORD PTR $T9[ebp]
; File C:\Program Files\Microsoft Visual Studio\2022\Professional\VC\Tools\MSVC\14.44.35207\include\xmemory

; 136  :         return ::operator new(_Bytes);

  001f8	83 c4 04	 add	 esp, 4
; File C:\Program Files\Microsoft Visual Studio\2022\Professional\VC\Tools\MSVC\14.44.35207\include\xtree

; 810  :     }

  001fb	c6 45 fc 01	 mov	 BYTE PTR __$EHRec$[ebp+8], 1
; File C:\Program Files\Microsoft Visual Studio\2022\Professional\VC\Tools\MSVC\14.44.35207\include\utility

; 774  :     _Val         = static_cast<_Other&&>(_New_val);

  001ff	c7 85 c8 fe ff
	ff 00 00 00 00	 mov	 DWORD PTR $T6[ebp+4], 0

; 303  :         : first(_STD forward<_Other1>(_Right.first)), second(_STD forward<_Other2>(_Right.second)) {}

  00209	89 48 10	 mov	 DWORD PTR [eax+16], ecx
; File C:\Program Files\Microsoft Visual Studio\2022\Professional\VC\Tools\MSVC\14.44.35207\include\xtree

; 1042 :         return {_Scary->_Insert_node(_Loc._Location, _Inserted), true};

  0020c	8d 8d f4 fe ff
	ff		 lea	 ecx, DWORD PTR _map_Item$[ebp]
  00212	50		 push	 eax
  00213	ff b5 bc fe ff
	ff		 push	 DWORD PTR __Loc$5[ebp+4]
; File C:\Program Files\Microsoft Visual Studio\2022\Professional\VC\Tools\MSVC\14.44.35207\include\utility

; 303  :         : first(_STD forward<_Other1>(_Right.first)), second(_STD forward<_Other2>(_Right.second)) {}

  00219	c7 40 14 01 00
	00 00		 mov	 DWORD PTR [eax+20], 1
; File C:\Program Files\Microsoft Visual Studio\2022\Professional\VC\Tools\MSVC\14.44.35207\include\xtree

; 1042 :         return {_Scary->_Insert_node(_Loc._Location, _Inserted), true};

  00220	ff b5 b8 fe ff
	ff		 push	 DWORD PTR __Loc$5[ebp]

; 831  :         _Construct_in_place(this->_Ptr->_Left, _Myhead);

  00226	89 38		 mov	 DWORD PTR [eax], edi

; 832  :         _Construct_in_place(this->_Ptr->_Parent, _Myhead);

  00228	89 78 04	 mov	 DWORD PTR [eax+4], edi

; 833  :         _Construct_in_place(this->_Ptr->_Right, _Myhead);

  0022b	89 78 08	 mov	 DWORD PTR [eax+8], edi

; 834  :         this->_Ptr->_Color = _Red;

  0022e	66 c7 40 0c 00
	00		 mov	 WORD PTR [eax+12], 0

; 1042 :         return {_Scary->_Insert_node(_Loc._Location, _Inserted), true};

  00234	e8 00 00 00 00	 call	 ?_Insert_node@?$_Tree_val@U?$_Tree_simple_types@U?$pair@$$CBKH@std@@@std@@@std@@QAEPAU?$_Tree_node@U?$pair@$$CBKH@std@@PAX@2@U?$_Tree_id@PAU?$_Tree_node@U?$pair@$$CBKH@std@@PAX@std@@@2@QAU32@@Z ; std::_Tree_val<std::_Tree_simple_types<std::pair<unsigned long const ,int> > >::_Insert_node
; File C:\IAGOS\server\v18\Source\Source\_Common\MiniGame.cpp

; 308  : 			it = map_Item.insert( make_pair( objItemId[i], 1 ) ).first;

  00239	eb 03		 jmp	 SHORT $LN13@Result_Alp
$LN12@Result_Alp:

; 309  : 		else
; 310  : 			it->second++;

  0023b	ff 40 14	 inc	 DWORD PTR [eax+20]
$LN13@Result_Alp:

; 311  : 
; 312  : 		if( pItemElem->m_nItemNum < it->second )

  0023e	8b 95 ec fe ff
	ff		 mov	 edx, DWORD PTR _pItemElem$1$[ebp]
  00244	8b 40 14	 mov	 eax, DWORD PTR [eax+20]
  00247	0f bf 4a 74	 movsx	 ecx, WORD PTR [edx+116]
  0024b	3b c8		 cmp	 ecx, eax
  0024d	0f 8c c9 00 00
	00		 jl	 $LN376@Result_Alp
; File C:\IAGOS\server\v18\Source\Source\_Common\Item.h

; 230  : 	ItemProp*	GetProp()	{	return prj.GetItemProp( m_dwItemId );	}

  00253	8b 4a 0c	 mov	 ecx, DWORD PTR [edx+12]
; File C:\IAGOS\server\v18\Source\Source\_Common\Project.h

; 1389 : 	VERIFY_RANGE_ASSERT( nIndex, 0, m_aPropItem.GetSize(), "GetItemProp range_error", NULL );

  00256	a1 40 02 00 00	 mov	 eax, DWORD PTR ?prj@@3VCProject@@A+576
  0025b	85 c9		 test	 ecx, ecx
  0025d	78 10		 js	 SHORT $LN268@Result_Alp
  0025f	3b c8		 cmp	 ecx, eax
  00261	7d 0c		 jge	 SHORT $LN268@Result_Alp
; File C:\IAGOS\server\v18\Source\Source\_Common\data.h

; 270  : 	if( dwIndex >= (DWORD)m_nMaxIndex )

  00263	73 20		 jae	 SHORT $LN394@Result_Alp

; 271  : 		return NULL;
; 272  : 	return (T*) m_apOffset[ dwIndex ];

  00265	a1 30 02 00 00	 mov	 eax, DWORD PTR ?prj@@3VCProject@@A+560
  0026a	8b 04 88	 mov	 eax, DWORD PTR [eax+ecx*4]
; File C:\IAGOS\server\v18\Source\Source\_Common\Project.h

; 1390 : 	return m_aPropItem.GetAt( nIndex ); 

  0026d	eb 18		 jmp	 SHORT $LN263@Result_Alp
$LN268@Result_Alp:

; 579  : 	LPCTSTR szErr = Error( _T( "%s min:%d, max:%d, index:%d" ), szMsg, nMin, nMax, nIndex ); 

  0026f	51		 push	 ecx
  00270	50		 push	 eax
  00271	6a 00		 push	 0
  00273	68 00 00 00 00	 push	 OFFSET ??_C@_0BI@BEIFNGEL@GetItemProp?5range_error@
  00278	68 00 00 00 00	 push	 OFFSET ??_C@_0BM@HMFGHCP@?$CFs?5min?3?$CFd?0?5max?3?$CFd?0?5index?3?$CFd@
  0027d	e8 00 00 00 00	 call	 ?Error@@YAPBDPBDZZ	; Error
  00282	83 c4 14	 add	 esp, 20			; 00000014H
$LN394@Result_Alp:
; File C:\IAGOS\server\v18\Source\Source\_Common\MiniGame.cpp

; 318  : 		char chAlphabet = GetCharacter( pItemElem->GetProp()->dwID );

  00285	33 c0		 xor	 eax, eax
$LN263@Result_Alp:
  00287	ff 30		 push	 DWORD PTR [eax]
  00289	8b 8d fc fe ff
	ff		 mov	 ecx, DWORD PTR _this$GSCopy$1$[ebp]
  0028f	e8 00 00 00 00	 call	 ?GetCharacter@CMiniGame@@QAEDK@Z ; CMiniGame::GetCharacter
  00294	88 85 07 ff ff
	ff		 mov	 BYTE PTR _chAlphabet$1$[ebp], al
; File C:\Program Files\Microsoft Visual Studio\2022\Professional\VC\Tools\MSVC\14.44.35207\atlmfc\include\atlsimpstr.h

; 424  : 		UINT nOldLength = GetLength();

  0029a	8b 46 f4	 mov	 eax, DWORD PTR [esi-12]
  0029d	89 85 ec fe ff
	ff		 mov	 DWORD PTR _nOldLength$1$[ebp], eax

; 425  : 		int nNewLength = nOldLength+1;

  002a3	8d 78 01	 lea	 edi, DWORD PTR [eax+1]

; 808  : 		if (nLength < 0)

  002a6	85 ff		 test	 edi, edi
  002a8	0f 88 4b 02 00
	00		 js	 $LN377@Result_Alp

; 810  : 
; 811  : 		CStringData* pOldData = GetData();
; 812  : 		int nShared = 1-pOldData->nRefs;  // nShared < 0 means true, >= 0 means false
; 813  : 		int nTooShort = pOldData->nAllocLength-nLength;  // nTooShort < 0 means true, >= 0 means false

  002ae	8b 46 f8	 mov	 eax, DWORD PTR [esi-8]
  002b1	b9 01 00 00 00	 mov	 ecx, 1
  002b6	2b 4e fc	 sub	 ecx, DWORD PTR [esi-4]
  002b9	2b c7		 sub	 eax, edi

; 814  : 		if( (nShared|nTooShort) < 0 )  // If either sign bit is set (i.e. either is less than zero), we need to copy data

  002bb	0b c1		 or	 eax, ecx
  002bd	7d 12		 jge	 SHORT $LN289@Result_Alp

; 815  : 		{
; 816  : 			PrepareWrite2( nLength );

  002bf	57		 push	 edi
  002c0	8d 8d f0 fe ff
	ff		 lea	 ecx, DWORD PTR _strWord$[ebp]
  002c6	e8 00 00 00 00	 call	 ?PrepareWrite2@?$CSimpleStringT@D$0A@@ATL@@AAEXH@Z ; ATL::CSimpleStringT<char,0>::PrepareWrite2
  002cb	8b b5 f0 fe ff
	ff		 mov	 esi, DWORD PTR _strWord$[ebp]
$LN289@Result_Alp:

; 427  : 		pszBuffer[nOldLength] = ch;

  002d1	8b 85 ec fe ff
	ff		 mov	 eax, DWORD PTR _nOldLength$1$[ebp]
  002d7	8a 8d 07 ff ff
	ff		 mov	 cl, BYTE PTR _chAlphabet$1$[ebp]
  002dd	88 0c 30	 mov	 BYTE PTR [eax+esi], cl

; 875  : 		if( nLength < 0 || nLength > GetData()->nAllocLength)

  002e0	3b 7e f8	 cmp	 edi, DWORD PTR [esi-8]
  002e3	0f 8f 10 02 00
	00		 jg	 $LN377@Result_Alp
; File C:\IAGOS\server\v18\Source\Source\_Common\MiniGame.cpp

; 300  : 	for( int i=0; i<nCount; ++i )

  002e9	8b 85 e4 fe ff
	ff		 mov	 eax, DWORD PTR _i$1$[ebp]
; File C:\Program Files\Microsoft Visual Studio\2022\Professional\VC\Tools\MSVC\14.44.35207\atlmfc\include\atlsimpstr.h

; 878  : 		GetData()->nDataLength = nLength;

  002ef	89 7e f4	 mov	 DWORD PTR [esi-12], edi
; File C:\IAGOS\server\v18\Source\Source\_Common\MiniGame.cpp

; 300  : 	for( int i=0; i<nCount; ++i )

  002f2	40		 inc	 eax
; File C:\Program Files\Microsoft Visual Studio\2022\Professional\VC\Tools\MSVC\14.44.35207\atlmfc\include\atlsimpstr.h

; 879  : 		m_pszData[nLength] = 0;

  002f3	c6 04 37 00	 mov	 BYTE PTR [edi+esi], 0
; File C:\IAGOS\server\v18\Source\Source\_Common\MiniGame.cpp

; 300  : 	for( int i=0; i<nCount; ++i )

  002f7	8b bd 00 ff ff
	ff		 mov	 edi, DWORD PTR tv1649[ebp]
  002fd	83 c7 04	 add	 edi, 4
  00300	89 85 e4 fe ff
	ff		 mov	 DWORD PTR _i$1$[ebp], eax
  00306	89 bd 00 ff ff
	ff		 mov	 DWORD PTR tv1649[ebp], edi
  0030c	3b 45 10	 cmp	 eax, DWORD PTR _nCount$[ebp]
  0030f	7d 24		 jge	 SHORT $LN391@Result_Alp
  00311	8b 85 d8 fe ff
	ff		 mov	 eax, DWORD PTR tv1662[ebp]
  00317	e9 f8 fd ff ff	 jmp	 $LL4@Result_Alp
$LN376@Result_Alp:

; 313  : 		{
; 314  : 			Error( "ItemNum - %d, %d", pItemElem->m_nItemNum, it->second );

  0031c	50		 push	 eax
  0031d	51		 push	 ecx
  0031e	68 00 00 00 00	 push	 OFFSET ??_C@_0BB@HLIKLMLJ@ItemNum?5?9?5?$CFd?0?5?$CFd@
  00323	e8 00 00 00 00	 call	 ?Error@@YAPBDPBDZZ	; Error
  00328	83 c4 0c	 add	 esp, 12			; 0000000cH
$LN373@Result_Alp:
  0032b	bf e7 03 00 00	 mov	 edi, 999		; 000003e7H
  00330	e9 65 01 00 00	 jmp	 $LN81@Result_Alp
$LN391@Result_Alp:

; 300  : 	for( int i=0; i<nCount; ++i )

  00335	8b bd e0 fe ff
	ff		 mov	 edi, DWORD PTR _pUser$GSCopy$1$[ebp]
$LN3@Result_Alp:

; 319  : 		strWord += chAlphabet;
; 320  : 	}
; 321  : 
; 322  : 	pUser->AddGold( -m_nPayPenya );	// ĆäłÄ ÁöşŇ

  0033b	8b 85 fc fe ff
	ff		 mov	 eax, DWORD PTR _this$GSCopy$1$[ebp]
  00341	8b cf		 mov	 ecx, edi
  00343	6a 01		 push	 1
  00345	8b 40 10	 mov	 eax, DWORD PTR [eax+16]
  00348	f7 d8		 neg	 eax
  0034a	50		 push	 eax
  0034b	e8 00 00 00 00	 call	 ?AddGold@CMover@@QAEHHH@Z ; CMover::AddGold

; 323  : 	//g_DPSrvr.PutPenyaLog( pUser, "+", "ALPHABET_USE", m_nPayPenya );
; 324  : 	// »çżëµČ ľËĆÄşŞ ľĆŔĚĹŰ »čÁ¦
; 325  : 	LogItemInfo aLogItem;

  00350	8d 8d 08 ff ff
	ff		 lea	 ecx, DWORD PTR _aLogItem$[ebp]
  00356	e8 00 00 00 00	 call	 ??0_LogItemInfo@@QAE@XZ	; _LogItemInfo::_LogItemInfo

; 326  : 	aLogItem.Action = "+";
; 327  : 	aLogItem.SendName = pUser->GetName();

  0035b	6a 00		 push	 0
  0035d	8b cf		 mov	 ecx, edi
  0035f	c7 85 08 ff ff
	ff 00 00 00 00	 mov	 DWORD PTR _aLogItem$[ebp], OFFSET ??_C@_01MIFGBAGJ@?$CL@
  00369	e8 00 00 00 00	 call	 ?GetName@CMover@@QAEPBDH@Z ; CMover::GetName

; 328  : 	char szTemp[32] = {0,};
; 329  : 	sprintf( szTemp, "ALPHABET_USE_%s", strWord );

  0036e	56		 push	 esi
  0036f	89 85 0c ff ff
	ff		 mov	 DWORD PTR _aLogItem$[ebp+4], eax
  00375	0f 57 c0	 xorps	 xmm0, xmm0
  00378	8d 45 d0	 lea	 eax, DWORD PTR _szTemp$[ebp]
  0037b	68 00 00 00 00	 push	 OFFSET ??_C@_0BA@OAAODEPM@ALPHABET_USE_?$CFs@
  00380	50		 push	 eax
  00381	0f 11 45 d0	 movups	 XMMWORD PTR _szTemp$[ebp], xmm0
  00385	0f 11 45 e0	 movups	 XMMWORD PTR _szTemp$[ebp+16], xmm0
  00389	e8 00 00 00 00	 call	 _sprintf

; 330  : 	aLogItem.RecvName = szTemp;
; 331  : 	aLogItem.WorldId = pUser->GetWorld()->GetID();
; 332  : 	aLogItem.Gold = pUser->GetGold() + m_nPayPenya;

  0038e	8b 8f e0 14 00
	00		 mov	 ecx, DWORD PTR [edi+5344]
  00394	8d 45 d0	 lea	 eax, DWORD PTR _szTemp$[ebp]
  00397	89 85 10 ff ff
	ff		 mov	 DWORD PTR _aLogItem$[ebp+8], eax
  0039d	83 c4 0c	 add	 esp, 12			; 0000000cH
  003a0	8b 87 6c 01 00
	00		 mov	 eax, DWORD PTR [edi+364]

; 333  : 	aLogItem.Gold2 = pUser->GetGold();
; 334  : 	aLogItem.Gold_1 = -m_nPayPenya;
; 335  : 	g_DPSrvr.OnLogItem( aLogItem );

  003a6	6a 00		 push	 0
  003a8	8b 00		 mov	 eax, DWORD PTR [eax]
  003aa	89 85 14 ff ff
	ff		 mov	 DWORD PTR _aLogItem$[ebp+12], eax
  003b0	8b 85 fc fe ff
	ff		 mov	 eax, DWORD PTR _this$GSCopy$1$[ebp]
  003b6	6a 00		 push	 0
  003b8	89 8d 1c ff ff
	ff		 mov	 DWORD PTR _aLogItem$[ebp+20], ecx
  003be	8b 50 10	 mov	 edx, DWORD PTR [eax+16]
  003c1	8d 04 0a	 lea	 eax, DWORD PTR [edx+ecx]
  003c4	f7 da		 neg	 edx
  003c6	89 85 18 ff ff
	ff		 mov	 DWORD PTR _aLogItem$[ebp+16], eax
  003cc	b9 00 00 00 00	 mov	 ecx, OFFSET ?g_DPSrvr@@3VCDPSrvr@@A ; g_DPSrvr
  003d1	8d 85 08 ff ff
	ff		 lea	 eax, DWORD PTR _aLogItem$[ebp]
  003d7	89 95 54 ff ff
	ff		 mov	 DWORD PTR _aLogItem$[ebp+76], edx
  003dd	50		 push	 eax
  003de	e8 00 00 00 00	 call	 ?OnLogItem@CDPSrvr@@QAEXAAU_LogItemInfo@@PAVCItemElem@@H@Z ; CDPSrvr::OnLogItem
  003e3	33 ff		 xor	 edi, edi

; 336  : 	
; 337  : 	for( int i=0; i<nCount; ++i )

  003e5	39 7d 10	 cmp	 DWORD PTR _nCount$[ebp], edi
  003e8	7e 26		 jle	 SHORT $LN6@Result_Alp
  003ea	8b b5 e0 fe ff
	ff		 mov	 esi, DWORD PTR _pUser$GSCopy$1$[ebp]
$LL7@Result_Alp:

; 338  : 	{
; 339  : 		/*
; 340  : 		LogItemInfo aLogItem;
; 341  : 		aLogItem.Action = "+";
; 342  : 		aLogItem.SendName = pUser->GetName();
; 343  : 		aLogItem.RecvName = "ALPHABET_USE";
; 344  : 		aLogItem.WorldId = pUser->GetWorld()->GetID();
; 345  : 		aLogItem.Gold = pUser->GetGold() + m_nPayPenya;
; 346  : 		aLogItem.Gold2 = pUser->GetGold();
; 347  : 		aLogItem.Gold_1 = -m_nPayPenya;
; 348  : 		g_DPSrvr.OnLogItem( aLogItem, pItemElem[i], 1 );
; 349  : 		*/
; 350  : 		
; 351  : 		pUser->RemoveItem( (BYTE)( objItemId[i] ), (short)1 );

  003f0	8b 85 dc fe ff
	ff		 mov	 eax, DWORD PTR _objItemId$GSCopy$1$[ebp]
  003f6	8b ce		 mov	 ecx, esi
  003f8	6a 01		 push	 1
  003fa	0f b6 04 b8	 movzx	 eax, BYTE PTR [eax+edi*4]
  003fe	50		 push	 eax
  003ff	e8 00 00 00 00	 call	 ?RemoveItem@CMover@@QAEXEF@Z ; CMover::RemoveItem
  00404	47		 inc	 edi
  00405	3b 7d 10	 cmp	 edi, DWORD PTR _nCount$[ebp]
  00408	7c e6		 jl	 SHORT $LL7@Result_Alp
  0040a	8b b5 f0 fe ff
	ff		 mov	 esi, DWORD PTR _strWord$[ebp]
$LN6@Result_Alp:
; File C:\Program Files\Microsoft Visual Studio\2022\Professional\VC\Tools\MSVC\14.44.35207\include\vector

; 1934 :         return _My_data._Myfirst[_Pos];

  00410	8b 85 fc fe ff
	ff		 mov	 eax, DWORD PTR _this$GSCopy$1$[ebp]
  00416	8b bd d4 fe ff
	ff		 mov	 edi, DWORD PTR $T8[ebp]
  0041c	8b 40 18	 mov	 eax, DWORD PTR [eax+24]
  0041f	8d 0c 7f	 lea	 ecx, DWORD PTR [edi+edi*2]
  00422	8d 04 c8	 lea	 eax, DWORD PTR [eax+ecx*8]
; File C:\IAGOS\server\v18\Source\Source\_Common\MiniGame.cpp

; 355  : 	__ALPHABET temp = m_vecAlphabet[nQuestionID];

  00425	50		 push	 eax
  00426	8d 8d a0 fe ff
	ff		 lea	 ecx, DWORD PTR _temp$[ebp]
  0042c	e8 00 00 00 00	 call	 ??0__ALPHABET@CMiniGame@@QAE@ABU01@@Z
; File C:\Program Files\Microsoft Visual Studio\2022\Professional\VC\Tools\MSVC\14.44.35207\atlmfc\include\cstringt.h

; 1452 : 		ATLENSURE( AtlIsValidString( psz ) );

  00431	8b 85 a4 fe ff
	ff		 mov	 eax, DWORD PTR _temp$[ebp+4]
  00437	85 c0		 test	 eax, eax
  00439	0f 84 c4 00 00
	00		 je	 $LN397@Result_Alp

; 184  : 		return _mbscmp( reinterpret_cast< const unsigned char* >( pszA ), reinterpret_cast< const unsigned char* >( pszB ) );

  0043f	50		 push	 eax
  00440	56		 push	 esi
  00441	e8 00 00 00 00	 call	 __mbscmp
  00446	83 c4 08	 add	 esp, 8
; File C:\Program Files\Microsoft Visual Studio\2022\Professional\VC\Tools\MSVC\14.44.35207\include\vector

; 830  :         _Tidy();

  00449	b9 e7 03 00 00	 mov	 ecx, 999		; 000003e7H
  0044e	85 c0		 test	 eax, eax
  00450	0f 45 f9	 cmovne	 edi, ecx
  00453	8d 8d ac fe ff
	ff		 lea	 ecx, DWORD PTR _temp$[ebp+12]
  00459	e8 00 00 00 00	 call	 ?_Tidy@?$vector@U__ITEMGAME@CMiniGame@@V?$allocator@U__ITEMGAME@CMiniGame@@@std@@@std@@AAEXXZ ; std::vector<CMiniGame::__ITEMGAME,std::allocator<CMiniGame::__ITEMGAME> >::_Tidy
; File C:\Program Files\Microsoft Visual Studio\2022\Professional\VC\Tools\MSVC\14.44.35207\atlmfc\include\atlsimpstr.h

; 804  : 		return( reinterpret_cast< CStringData* >( m_pszData )-1 );

  0045e	8b 95 a8 fe ff
	ff		 mov	 edx, DWORD PTR _temp$[ebp+8]

; 92   : 		if( _InterlockedDecrement( &nRefs ) <= 0 )

  00464	83 c8 ff	 or	 eax, -1

; 804  : 		return( reinterpret_cast< CStringData* >( m_pszData )-1 );

  00467	83 c2 f0	 add	 edx, -16		; fffffff0H

; 92   : 		if( _InterlockedDecrement( &nRefs ) <= 0 )

  0046a	f0 0f c1 42 0c	 lock	  xadd	 DWORD PTR [edx+12], eax
  0046f	48		 dec	 eax
  00470	85 c0		 test	 eax, eax
  00472	7f 08		 jg	 SHORT $LN72@Result_Alp

; 93   : 		{
; 94   : 			pStringMgr->Free( this );

  00474	8b 0a		 mov	 ecx, DWORD PTR [edx]
  00476	52		 push	 edx
  00477	8b 01		 mov	 eax, DWORD PTR [ecx]
  00479	ff 50 04	 call	 DWORD PTR [eax+4]
$LN72@Result_Alp:

; 804  : 		return( reinterpret_cast< CStringData* >( m_pszData )-1 );

  0047c	8b 95 a4 fe ff
	ff		 mov	 edx, DWORD PTR _temp$[ebp+4]

; 92   : 		if( _InterlockedDecrement( &nRefs ) <= 0 )

  00482	83 c8 ff	 or	 eax, -1

; 804  : 		return( reinterpret_cast< CStringData* >( m_pszData )-1 );

  00485	83 c2 f0	 add	 edx, -16		; fffffff0H

; 92   : 		if( _InterlockedDecrement( &nRefs ) <= 0 )

  00488	f0 0f c1 42 0c	 lock	  xadd	 DWORD PTR [edx+12], eax
  0048d	48		 dec	 eax
  0048e	85 c0		 test	 eax, eax
  00490	7f 08		 jg	 SHORT $LN81@Result_Alp

; 93   : 		{
; 94   : 			pStringMgr->Free( this );

  00492	8b 0a		 mov	 ecx, DWORD PTR [edx]
  00494	52		 push	 edx
  00495	8b 01		 mov	 eax, DWORD PTR [ecx]
  00497	ff 50 04	 call	 DWORD PTR [eax+4]
$LN81@Result_Alp:
  0049a	8d 8d f4 fe ff
	ff		 lea	 ecx, DWORD PTR _map_Item$[ebp]
  004a0	e8 00 00 00 00	 call	 ??1?$_Tree@V?$_Tmap_traits@KHU?$less@K@std@@V?$allocator@U?$pair@$$CBKH@std@@@2@$0A@@std@@@std@@QAE@XZ ; std::_Tree<std::_Tmap_traits<unsigned long,int,std::less<unsigned long>,std::allocator<std::pair<unsigned long const ,int> >,0> >::~_Tree<std::_Tmap_traits<unsigned long,int,std::less<unsigned long>,std::allocator<std::pair<unsigned long const ,int> >,0> >
; File C:\IAGOS\server\v18\Source\Source\_Common\MiniGame.cpp

; 359  : 	return ALPHABET_FAILED;

  004a5	c7 45 fc ff ff
	ff ff		 mov	 DWORD PTR __$EHRec$[ebp+8], -1
; File C:\Program Files\Microsoft Visual Studio\2022\Professional\VC\Tools\MSVC\14.44.35207\atlmfc\include\atlsimpstr.h

; 804  : 		return( reinterpret_cast< CStringData* >( m_pszData )-1 );

  004ac	83 c6 f0	 add	 esi, -16		; fffffff0H

; 92   : 		if( _InterlockedDecrement( &nRefs ) <= 0 )

  004af	83 c8 ff	 or	 eax, -1
  004b2	f0 0f c1 46 0c	 lock	  xadd	 DWORD PTR [esi+12], eax
  004b7	48		 dec	 eax
  004b8	85 c0		 test	 eax, eax
  004ba	7f 08		 jg	 SHORT $LN35@Result_Alp

; 93   : 		{
; 94   : 			pStringMgr->Free( this );

  004bc	8b 0e		 mov	 ecx, DWORD PTR [esi]
  004be	56		 push	 esi
  004bf	8b 11		 mov	 edx, DWORD PTR [ecx]
  004c1	ff 52 04	 call	 DWORD PTR [edx+4]
$LN35@Result_Alp:
; File C:\IAGOS\server\v18\Source\Source\_Common\MiniGame.cpp

; 359  : 	return ALPHABET_FAILED;

  004c4	8b c7		 mov	 eax, edi
  004c6	eb 05		 jmp	 SHORT $LN1@Result_Alp
$LN10@Result_Alp:

; 295  : 		return ALPHABET_FAILED;

  004c8	b8 e7 03 00 00	 mov	 eax, 999		; 000003e7H
$LN1@Result_Alp:

; 360  : }

  004cd	8b 4d f4	 mov	 ecx, DWORD PTR __$EHRec$[ebp]
  004d0	64 89 0d 00 00
	00 00		 mov	 DWORD PTR fs:0, ecx
  004d7	59		 pop	 ecx
  004d8	5f		 pop	 edi
  004d9	5e		 pop	 esi
  004da	8b 4d f0	 mov	 ecx, DWORD PTR __$ArrayPad$[ebp]
  004dd	33 cd		 xor	 ecx, ebp
  004df	e8 00 00 00 00	 call	 @__security_check_cookie@4
  004e4	8b e5		 mov	 esp, ebp
  004e6	5d		 pop	 ebp
  004e7	c2 10 00	 ret	 16			; 00000010H
$LN396@Result_Alp:
; File C:\Program Files\Microsoft Visual Studio\2022\Professional\VC\Tools\MSVC\14.44.35207\atlmfc\include\atlsimpstr.h

; 209  : 		ATLENSURE( pStringMgr != NULL );

  004ea	68 05 40 00 80	 push	 -2147467259		; 80004005H
  004ef	e8 00 00 00 00	 call	 ?AtlThrowImpl@ATL@@YGXJ@Z ; ATL::AtlThrowImpl
$LN374@Result_Alp:
; File C:\Program Files\Microsoft Visual Studio\2022\Professional\VC\Tools\MSVC\14.44.35207\include\xtree

; 1649 :             _Throw_tree_length_error();

  004f4	e8 00 00 00 00	 call	 ?_Throw_tree_length_error@std@@YAXXZ ; std::_Throw_tree_length_error
$LN377@Result_Alp:
; File C:\Program Files\Microsoft Visual Studio\2022\Professional\VC\Tools\MSVC\14.44.35207\atlmfc\include\atlsimpstr.h

; 809  : 			AtlThrow(E_INVALIDARG);

  004f9	68 57 00 07 80	 push	 -2147024809		; 80070057H
  004fe	e8 00 00 00 00	 call	 ?AtlThrowImpl@ATL@@YGXJ@Z ; ATL::AtlThrowImpl
$LN397@Result_Alp:
; File C:\Program Files\Microsoft Visual Studio\2022\Professional\VC\Tools\MSVC\14.44.35207\atlmfc\include\cstringt.h

; 1452 : 		ATLENSURE( AtlIsValidString( psz ) );

  00503	68 05 40 00 80	 push	 -2147467259		; 80004005H
  00508	e8 00 00 00 00	 call	 ?AtlThrowImpl@ATL@@YGXJ@Z ; ATL::AtlThrowImpl
$LN393@Result_Alp:
  0050d	cc		 int	 3
_TEXT	ENDS
;	COMDAT text$x
text$x	SEGMENT
__unwindfunclet$?Result_Alphabet@CMiniGame@@QAEHPAVCUser@@PAKHH@Z$0:
  00000	8d 8d f0 fe ff
	ff		 lea	 ecx, DWORD PTR _strWord$[ebp]
  00006	e9 00 00 00 00	 jmp	 ??1?$CStringT@DV?$StrTraitMFC@DV?$ChTraitsCRT@D@ATL@@@@@ATL@@QAE@XZ ; ATL::CStringT<char,StrTraitMFC<char,ATL::ChTraitsCRT<char> > >::~CStringT<char,StrTraitMFC<char,ATL::ChTraitsCRT<char> > >
__unwindfunclet$?Result_Alphabet@CMiniGame@@QAEHPAVCUser@@PAKHH@Z$1:
  0000b	8d 8d f4 fe ff
	ff		 lea	 ecx, DWORD PTR _map_Item$[ebp]
  00011	e9 00 00 00 00	 jmp	 ??1?$map@KHU?$less@K@std@@V?$allocator@U?$pair@$$CBKH@std@@@2@@std@@QAE@XZ
__unwindfunclet$?Result_Alphabet@CMiniGame@@QAEHPAVCUser@@PAKHH@Z$7:
  00016	8d 8d c4 fe ff
	ff		 lea	 ecx, DWORD PTR $T6[ebp]
  0001c	e9 00 00 00 00	 jmp	 ??1?$_Alloc_construct_ptr@V?$allocator@U?$_Tree_node@U?$pair@$$CBKH@std@@PAX@std@@@std@@@std@@QAE@XZ ; std::_Alloc_construct_ptr<std::allocator<std::_Tree_node<std::pair<unsigned long const ,int>,void *> > >::~_Alloc_construct_ptr<std::allocator<std::_Tree_node<std::pair<unsigned long const ,int>,void *> > >
  00021	cc		 int	 3
  00022	cc		 int	 3
  00023	cc		 int	 3
  00024	cc		 int	 3
  00025	cc		 int	 3
__ehhandler$?Result_Alphabet@CMiniGame@@QAEHPAVCUser@@PAKHH@Z:
  00026	90		 npad	 1
  00027	90		 npad	 1
  00028	8b 54 24 08	 mov	 edx, DWORD PTR [esp+8]
  0002c	8d 42 0c	 lea	 eax, DWORD PTR [edx+12]
  0002f	8b 8a 88 fe ff
	ff		 mov	 ecx, DWORD PTR [edx-376]
  00035	33 c8		 xor	 ecx, eax
  00037	e8 00 00 00 00	 call	 @__security_check_cookie@4
  0003c	8b 4a fc	 mov	 ecx, DWORD PTR [edx-4]
  0003f	33 c8		 xor	 ecx, eax
  00041	e8 00 00 00 00	 call	 @__security_check_cookie@4
  00046	b8 00 00 00 00	 mov	 eax, OFFSET __ehfuncinfo$?Result_Alphabet@CMiniGame@@QAEHPAVCUser@@PAKHH@Z
  0004b	e9 00 00 00 00	 jmp	 ___CxxFrameHandler3
text$x	ENDS
?Result_Alphabet@CMiniGame@@QAEHPAVCUser@@PAKHH@Z ENDP	; CMiniGame::Result_Alphabet
; Function compile flags: /Ogtp
; File C:\IAGOS\server\v18\Source\Source\_Common\MiniGame.cpp
; File C:\Program Files\Microsoft Visual Studio\2022\Professional\VC\Tools\MSVC\14.44.35207\include\vector
; File C:\IAGOS\server\v18\Source\Source\_Common\xUtil.h
; File C:\Program Files\Microsoft Visual Studio\2022\Professional\VC\Tools\MSVC\14.44.35207\include\vector
; File C:\IAGOS\server\v18\Source\Source\_Common\xUtil.h
; File C:\IAGOS\server\v18\Source\Source\_Common\MiniGame.cpp
; File C:\Program Files\Microsoft Visual Studio\2022\Professional\VC\Tools\MSVC\14.44.35207\include\vector
; File C:\IAGOS\server\v18\Source\Source\_Common\MiniGame.cpp
; File C:\Program Files\Microsoft Visual Studio\2022\Professional\VC\Tools\MSVC\14.44.35207\atlmfc\include\atlsimpstr.h
; File C:\IAGOS\server\v18\Source\Source\_Common\MiniGame.cpp
; File C:\Program Files\Microsoft Visual Studio\2022\Professional\VC\Tools\MSVC\14.44.35207\atlmfc\include\atlsimpstr.h
; File C:\IAGOS\server\v18\Source\Source\_Common\MiniGame.cpp
; File C:\Program Files\Microsoft Visual Studio\2022\Professional\VC\Tools\MSVC\14.44.35207\atlmfc\include\atlsimpstr.h
; File C:\IAGOS\server\v18\Source\Source\_Common\MiniGame.cpp
; File C:\Program Files\Microsoft Visual Studio\2022\Professional\VC\Tools\MSVC\14.44.35207\atlmfc\include\atlsimpstr.h
; File C:\IAGOS\server\v18\Source\Source\_Common\MiniGame.cpp
;	COMDAT ?OpenWnd_Alphabet@CMiniGame@@QAEXPAVCUser@@@Z
_TEXT	SEGMENT
_this$ = -24						; size = 4
$T2 = -20						; size = 4
_this$1$ = -16						; size = 4
__$EHRec$ = -12						; size = 12
_pUser$ = 8						; size = 4
?OpenWnd_Alphabet@CMiniGame@@QAEXPAVCUser@@@Z PROC	; CMiniGame::OpenWnd_Alphabet, COMDAT
; _this$ = ecx

; 389  : {

  00000	55		 push	 ebp
  00001	8b ec		 mov	 ebp, esp
  00003	6a ff		 push	 -1
  00005	68 00 00 00 00	 push	 __ehhandler$?OpenWnd_Alphabet@CMiniGame@@QAEXPAVCUser@@@Z
  0000a	64 a1 00 00 00
	00		 mov	 eax, DWORD PTR fs:0
  00010	50		 push	 eax
  00011	83 ec 0c	 sub	 esp, 12			; 0000000cH
  00014	53		 push	 ebx
  00015	56		 push	 esi
  00016	57		 push	 edi
  00017	a1 00 00 00 00	 mov	 eax, DWORD PTR ___security_cookie
  0001c	33 c5		 xor	 eax, ebp
  0001e	50		 push	 eax
  0001f	8d 45 f4	 lea	 eax, DWORD PTR __$EHRec$[ebp]
  00022	64 a3 00 00 00
	00		 mov	 DWORD PTR fs:0, eax
  00028	8b f1		 mov	 esi, ecx
  0002a	89 75 f0	 mov	 DWORD PTR _this$1$[ebp], esi
; File C:\Program Files\Microsoft Visual Studio\2022\Professional\VC\Tools\MSVC\14.44.35207\include\vector

; 1915 :         return static_cast<size_type>(_My_data._Mylast - _My_data._Myfirst);

  0002d	8b 56 1c	 mov	 edx, DWORD PTR [esi+28]
  00030	b8 ab aa aa 2a	 mov	 eax, 715827883		; 2aaaaaabH
  00035	2b 56 18	 sub	 edx, DWORD PTR [esi+24]
  00038	f7 ea		 imul	 edx
; File C:\IAGOS\server\v18\Source\Source\_Common\xUtil.h

; 16   : 	g_next = g_next * 1103515245 + 12345;// + nRandomSeed[ i++ ];

  0003a	69 05 00 00 00
	00 6d 4e c6 41	 imul	 eax, DWORD PTR ?g_next@@3KA, 1103515245 ; g_next
; File C:\Program Files\Microsoft Visual Studio\2022\Professional\VC\Tools\MSVC\14.44.35207\include\vector

; 1915 :         return static_cast<size_type>(_My_data._Mylast - _My_data._Myfirst);

  00044	c1 fa 02	 sar	 edx, 2
  00047	8b ca		 mov	 ecx, edx
  00049	c1 e9 1f	 shr	 ecx, 31			; 0000001fH
  0004c	03 ca		 add	 ecx, edx
; File C:\IAGOS\server\v18\Source\Source\_Common\xUtil.h

; 16   : 	g_next = g_next * 1103515245 + 12345;// + nRandomSeed[ i++ ];

  0004e	33 d2		 xor	 edx, edx
  00050	05 39 30 00 00	 add	 eax, 12345		; 00003039H
  00055	a3 00 00 00 00	 mov	 DWORD PTR ?g_next@@3KA, eax ; g_next
  0005a	f7 f1		 div	 ecx
; File C:\IAGOS\server\v18\Source\Source\_Common\MiniGame.cpp

; 391  : 	int nPublicAlphabet = m_vecAlphabet[nRandom].nPublic;

  0005c	8b 46 18	 mov	 eax, DWORD PTR [esi+24]
  0005f	8b da		 mov	 ebx, edx
; File C:\Program Files\Microsoft Visual Studio\2022\Professional\VC\Tools\MSVC\14.44.35207\include\vector

; 1934 :         return _My_data._Myfirst[_Pos];

  00061	8d 0c 5b	 lea	 ecx, DWORD PTR [ebx+ebx*2]
; File C:\IAGOS\server\v18\Source\Source\_Common\MiniGame.cpp

; 391  : 	int nPublicAlphabet = m_vecAlphabet[nRandom].nPublic;

  00064	8b 3c c8	 mov	 edi, DWORD PTR [eax+ecx*8]
; File C:\Program Files\Microsoft Visual Studio\2022\Professional\VC\Tools\MSVC\14.44.35207\atlmfc\include\atlsimpstr.h

; 804  : 		return( reinterpret_cast< CStringData* >( m_pszData )-1 );

  00067	8b 44 c8 08	 mov	 eax, DWORD PTR [eax+ecx*8+8]
; File C:\IAGOS\server\v18\Source\Source\_Common\MiniGame.cpp

; 392  : 	pUser->AddAlphabetOpenWnd( nRandom, nPublicAlphabet-1, GetPublicCharacter( nRandom, nPublicAlphabet ), 

  0006b	51		 push	 ecx
; File C:\Program Files\Microsoft Visual Studio\2022\Professional\VC\Tools\MSVC\14.44.35207\atlmfc\include\atlsimpstr.h

; 804  : 		return( reinterpret_cast< CStringData* >( m_pszData )-1 );

  0006c	83 e8 10	 sub	 eax, 16			; 00000010H
; File C:\IAGOS\server\v18\Source\Source\_Common\MiniGame.cpp

; 392  : 	pUser->AddAlphabetOpenWnd( nRandom, nPublicAlphabet-1, GetPublicCharacter( nRandom, nPublicAlphabet ), 

  0006f	89 65 ec	 mov	 DWORD PTR $T2[ebp], esp
  00072	8b f4		 mov	 esi, esp
; File C:\Program Files\Microsoft Visual Studio\2022\Professional\VC\Tools\MSVC\14.44.35207\atlmfc\include\atlsimpstr.h

; 217  : 		CStringData* pNewData = CloneData( pSrcData );

  00074	50		 push	 eax
; File C:\IAGOS\server\v18\Source\Source\_Common\MiniGame.cpp

; 392  : 	pUser->AddAlphabetOpenWnd( nRandom, nPublicAlphabet-1, GetPublicCharacter( nRandom, nPublicAlphabet ), 

  00075	89 75 e8	 mov	 DWORD PTR _this$[ebp], esi
; File C:\Program Files\Microsoft Visual Studio\2022\Professional\VC\Tools\MSVC\14.44.35207\atlmfc\include\atlsimpstr.h

; 217  : 		CStringData* pNewData = CloneData( pSrcData );

  00078	e8 00 00 00 00	 call	 ?CloneData@?$CSimpleStringT@D$0A@@ATL@@CAPAUCStringData@2@PAU32@@Z ; ATL::CSimpleStringT<char,0>::CloneData

; 218  : 		Attach( pNewData );

  0007d	83 c0 10	 add	 eax, 16			; 00000010H
  00080	83 c4 04	 add	 esp, 4
  00083	89 06		 mov	 DWORD PTR [esi], eax
; File C:\IAGOS\server\v18\Source\Source\_Common\MiniGame.cpp

; 392  : 	pUser->AddAlphabetOpenWnd( nRandom, nPublicAlphabet-1, GetPublicCharacter( nRandom, nPublicAlphabet ), 

  00085	8b 4d f0	 mov	 ecx, DWORD PTR _this$1$[ebp]
  00088	8d 77 ff	 lea	 esi, DWORD PTR [edi-1]
  0008b	57		 push	 edi
  0008c	53		 push	 ebx
  0008d	c7 45 fc 00 00
	00 00		 mov	 DWORD PTR __$EHRec$[ebp+8], 0
  00094	e8 00 00 00 00	 call	 ?GetPublicCharacter@CMiniGame@@QAEDHH@Z ; CMiniGame::GetPublicCharacter
  00099	8b 4d 08	 mov	 ecx, DWORD PTR _pUser$[ebp]
  0009c	0f b6 c0	 movzx	 eax, al
  0009f	50		 push	 eax
  000a0	56		 push	 esi
  000a1	53		 push	 ebx
  000a2	c7 45 fc ff ff
	ff ff		 mov	 DWORD PTR __$EHRec$[ebp+8], -1
  000a9	e8 00 00 00 00	 call	 ?AddAlphabetOpenWnd@CUser@@QAEXHHDV?$CStringT@DV?$StrTraitMFC@DV?$ChTraitsCRT@D@ATL@@@@@ATL@@@Z ; CUser::AddAlphabetOpenWnd

; 393  : 								m_vecAlphabet[nRandom].strQuestion );
; 394  : }

  000ae	8b 4d f4	 mov	 ecx, DWORD PTR __$EHRec$[ebp]
  000b1	64 89 0d 00 00
	00 00		 mov	 DWORD PTR fs:0, ecx
  000b8	59		 pop	 ecx
  000b9	5f		 pop	 edi
  000ba	5e		 pop	 esi
  000bb	5b		 pop	 ebx
  000bc	8b e5		 mov	 esp, ebp
  000be	5d		 pop	 ebp
  000bf	c2 04 00	 ret	 4
_TEXT	ENDS
;	COMDAT text$x
text$x	SEGMENT
__unwindfunclet$?OpenWnd_Alphabet@CMiniGame@@QAEXPAVCUser@@@Z$0:
  00000	8b 4d ec	 mov	 ecx, DWORD PTR $T2[ebp]
  00003	e9 00 00 00 00	 jmp	 ??1?$CStringT@DV?$StrTraitMFC@DV?$ChTraitsCRT@D@ATL@@@@@ATL@@QAE@XZ ; ATL::CStringT<char,StrTraitMFC<char,ATL::ChTraitsCRT<char> > >::~CStringT<char,StrTraitMFC<char,ATL::ChTraitsCRT<char> > >
  00008	cc		 int	 3
  00009	cc		 int	 3
  0000a	cc		 int	 3
  0000b	cc		 int	 3
  0000c	cc		 int	 3
__ehhandler$?OpenWnd_Alphabet@CMiniGame@@QAEXPAVCUser@@@Z:
  0000d	90		 npad	 1
  0000e	90		 npad	 1
  0000f	8b 54 24 08	 mov	 edx, DWORD PTR [esp+8]
  00013	8d 42 0c	 lea	 eax, DWORD PTR [edx+12]
  00016	8b 4a e4	 mov	 ecx, DWORD PTR [edx-28]
  00019	33 c8		 xor	 ecx, eax
  0001b	e8 00 00 00 00	 call	 @__security_check_cookie@4
  00020	b8 00 00 00 00	 mov	 eax, OFFSET __ehfuncinfo$?OpenWnd_Alphabet@CMiniGame@@QAEXPAVCUser@@@Z
  00025	e9 00 00 00 00	 jmp	 ___CxxFrameHandler3
text$x	ENDS
?OpenWnd_Alphabet@CMiniGame@@QAEXPAVCUser@@@Z ENDP	; CMiniGame::OpenWnd_Alphabet
; Function compile flags: /Ogtp
; File C:\IAGOS\server\v18\Source\Source\_Common\MiniGame.cpp
; File C:\Program Files\Microsoft Visual Studio\2022\Professional\VC\Tools\MSVC\14.44.35207\include\vector
; File C:\Program Files\Microsoft Visual Studio\2022\Professional\VC\Tools\MSVC\14.44.35207\include\xmemory
; File C:\Program Files\Microsoft Visual Studio\2022\Professional\VC\Tools\MSVC\14.44.35207\include\vector
; File C:\Program Files\Microsoft Visual Studio\2022\Professional\VC\Tools\MSVC\14.44.35207\include\xmemory
; File C:\Program Files\Microsoft Visual Studio\2022\Professional\VC\Tools\MSVC\14.44.35207\include\vector
; File C:\Program Files\Microsoft Visual Studio\2022\Professional\VC\Tools\MSVC\14.44.35207\include\xmemory
; File C:\Program Files\Microsoft Visual Studio\2022\Professional\VC\Tools\MSVC\14.44.35207\include\vector
; File C:\IAGOS\server\v18\Source\Source\_Common\MiniGame.cpp
; File C:\Program Files\Microsoft Visual Studio\2022\Professional\VC\Tools\MSVC\14.44.35207\include\vector
; File C:\IAGOS\server\v18\Source\Source\_Common\MiniGame.cpp
;	COMDAT ?OpenWnd_Reassemble@CMiniGame@@QAEXPAVCUser@@@Z
_TEXT	SEGMENT
_this$1$ = -8						; size = 4
_this$1$ = -4						; size = 4
_pUser$ = 8						; size = 4
?OpenWnd_Reassemble@CMiniGame@@QAEXPAVCUser@@@Z PROC	; CMiniGame::OpenWnd_Reassemble, COMDAT
; _this$ = ecx

; 202  : {

  00000	55		 push	 ebp
  00001	8b ec		 mov	 ebp, esp
  00003	83 ec 08	 sub	 esp, 8
  00006	53		 push	 ebx
  00007	56		 push	 esi
  00008	57		 push	 edi

; 203  : 	pUser->AddReassembleOpenWnd( m_vecReassembleCard );

  00009	83 ec 0c	 sub	 esp, 12			; 0000000cH
  0000c	89 4d fc	 mov	 DWORD PTR _this$1$[ebp], ecx
  0000f	8b fc		 mov	 edi, esp
  00011	89 7d f8	 mov	 DWORD PTR _this$1$[ebp], edi
; File C:\Program Files\Microsoft Visual Studio\2022\Professional\VC\Tools\MSVC\14.44.35207\include\vector

; 400  :     _CONSTEXPR20 _Vector_val() noexcept : _Myfirst(), _Mylast(), _Myend() {}

  00014	c7 07 00 00 00
	00		 mov	 DWORD PTR [edi], 0
  0001a	c7 47 04 00 00
	00 00		 mov	 DWORD PTR [edi+4], 0
  00021	c7 47 08 00 00
	00 00		 mov	 DWORD PTR [edi+8], 0

; 748  :         const auto _Count       = static_cast<size_type>(_Right_data._Mylast - _Right_data._Myfirst);

  00028	8b 41 44	 mov	 eax, DWORD PTR [ecx+68]
  0002b	2b 41 40	 sub	 eax, DWORD PTR [ecx+64]
  0002e	c1 f8 02	 sar	 eax, 2

; 2111 :         if (_Count != 0) {

  00031	85 c0		 test	 eax, eax
  00033	74 5d		 je	 SHORT $LN51@OpenWnd_Re

; 2051 :         if (_Newcapacity > max_size()) {

  00035	3d ff ff ff 3f	 cmp	 eax, 1073741823		; 3fffffffH
  0003a	77 67		 ja	 SHORT $LN59@OpenWnd_Re
; File C:\Program Files\Microsoft Visual Studio\2022\Professional\VC\Tools\MSVC\14.44.35207\include\xmemory

; 122  :     return _Count * _Ty_size;

  0003c	8d 34 85 00 00
	00 00		 lea	 esi, DWORD PTR [eax*4]

; 227  :     if (_Bytes == 0) {

  00043	85 f6		 test	 esi, esi
  00045	75 04		 jne	 SHORT $LN30@OpenWnd_Re

; 228  :         return nullptr;

  00047	33 db		 xor	 ebx, ebx
  00049	eb 1d		 jmp	 SHORT $LN29@OpenWnd_Re
$LN30@OpenWnd_Re:

; 229  :     }
; 230  : 
; 231  : #if _HAS_CXX20 // TRANSITION, GH-1532
; 232  :     if (_STD is_constant_evaluated()) {
; 233  :         return _Traits::_Allocate(_Bytes);
; 234  :     }
; 235  : #endif // _HAS_CXX20
; 236  : 
; 237  : #ifdef __cpp_aligned_new
; 238  :     if constexpr (_Align > __STDCPP_DEFAULT_NEW_ALIGNMENT__) {
; 239  :         size_t _Passed_align = _Align;
; 240  : #if defined(_M_IX86) || defined(_M_X64)
; 241  :         if (_Bytes >= _Big_allocation_threshold) {
; 242  :             // boost the alignment of big allocations to help autovectorization
; 243  :             _Passed_align = (_STD max)(_Align, _Big_allocation_alignment);
; 244  :         }
; 245  : #endif // defined(_M_IX86) || defined(_M_X64)
; 246  :         return _Traits::_Allocate_aligned(_Bytes, _Passed_align);
; 247  :     } else
; 248  : #endif // defined(__cpp_aligned_new)
; 249  :     {
; 250  : #if defined(_M_IX86) || defined(_M_X64)
; 251  :         if (_Bytes >= _Big_allocation_threshold) {

  0004b	56		 push	 esi
  0004c	81 fe 00 10 00
	00		 cmp	 esi, 4096		; 00001000H
  00052	72 07		 jb	 SHORT $LN31@OpenWnd_Re

; 252  :             // boost the alignment of big allocations to help autovectorization
; 253  :             return _Allocate_manually_vector_aligned<_Traits>(_Bytes);

  00054	e8 00 00 00 00	 call	 ??$_Allocate_manually_vector_aligned@U_Default_allocate_traits@std@@@std@@YAPAXI@Z ; std::_Allocate_manually_vector_aligned<std::_Default_allocate_traits>
  00059	eb 05		 jmp	 SHORT $LN57@OpenWnd_Re
$LN31@OpenWnd_Re:

; 136  :         return ::operator new(_Bytes);

  0005b	e8 00 00 00 00	 call	 ??2@YAPAXI@Z		; operator new
$LN57@OpenWnd_Re:
; File C:\Program Files\Microsoft Visual Studio\2022\Professional\VC\Tools\MSVC\14.44.35207\include\vector

; 2035 :         _Myfirst              = _Newvec;

  00060	8b 4d fc	 mov	 ecx, DWORD PTR _this$1$[ebp]
  00063	8b d8		 mov	 ebx, eax
  00065	83 c4 04	 add	 esp, 4
$LN29@OpenWnd_Re:
  00068	89 1f		 mov	 DWORD PTR [edi], ebx

; 2036 :         _Mylast               = _Newvec;
; 2037 :         _Myend                = _Newvec + _Newcapacity;

  0006a	8d 04 1e	 lea	 eax, DWORD PTR [esi+ebx]
  0006d	89 5f 04	 mov	 DWORD PTR [edi+4], ebx
  00070	89 47 08	 mov	 DWORD PTR [edi+8], eax
; File C:\Program Files\Microsoft Visual Studio\2022\Professional\VC\Tools\MSVC\14.44.35207\include\xmemory

; 1877 :     auto _ULast  = _STD _Get_unwrapped(_STD move(_Last));

  00073	8b 79 44	 mov	 edi, DWORD PTR [ecx+68]
  00076	8b 71 40	 mov	 esi, DWORD PTR [ecx+64]

; 1878 : #endif // ^^^ !_HAS_CXX20 ^^^
; 1879 : 
; 1880 :     constexpr bool _Can_memmove = _Sent_copy_cat<decltype(_UFirst), decltype(_ULast), _Ptrval>::_Bitcopy_constructible
; 1881 :                                && _Uses_default_construct<_Alloc, _Ptrval, decltype(*_UFirst)>::value;
; 1882 : 
; 1883 :     if constexpr (_Can_memmove) {
; 1884 : #if _HAS_CXX20
; 1885 :         if (!_STD is_constant_evaluated())
; 1886 : #endif // _HAS_CXX20
; 1887 :         {
; 1888 :             if constexpr (is_same_v<decltype(_UFirst), decltype(_ULast)>) {
; 1889 :                 _STD _Copy_memmove(_STD _To_address(_UFirst), _STD _To_address(_ULast), _STD _Unfancy(_Dest));

  00079	53		 push	 ebx
  0007a	57		 push	 edi
  0007b	56		 push	 esi
  0007c	e8 00 00 00 00	 call	 ??$_Copy_memmove@PAKPAK@std@@YAPAKPAK00@Z ; std::_Copy_memmove<unsigned long *,unsigned long *>
; File C:\Program Files\Microsoft Visual Studio\2022\Professional\VC\Tools\MSVC\14.44.35207\include\vector

; 2120 :                 _My_data._Mylast = _STD _Uninitialized_copy(_STD forward<_Valty>(_Val)..., _My_data._Myfirst, _Al);

  00081	8b 4d f8	 mov	 ecx, DWORD PTR _this$1$[ebp]
; File C:\Program Files\Microsoft Visual Studio\2022\Professional\VC\Tools\MSVC\14.44.35207\include\xmemory

; 1890 :                 _Dest += _ULast - _UFirst;

  00084	2b fe		 sub	 edi, esi
  00086	83 c4 0c	 add	 esp, 12			; 0000000cH
  00089	c1 ff 02	 sar	 edi, 2
  0008c	8d 04 bb	 lea	 eax, DWORD PTR [ebx+edi*4]
; File C:\Program Files\Microsoft Visual Studio\2022\Professional\VC\Tools\MSVC\14.44.35207\include\vector

; 2120 :                 _My_data._Mylast = _STD _Uninitialized_copy(_STD forward<_Valty>(_Val)..., _My_data._Myfirst, _Al);

  0008f	89 41 04	 mov	 DWORD PTR [ecx+4], eax
$LN51@OpenWnd_Re:
; File C:\IAGOS\server\v18\Source\Source\_Common\MiniGame.cpp

; 203  : 	pUser->AddReassembleOpenWnd( m_vecReassembleCard );

  00092	8b 4d 08	 mov	 ecx, DWORD PTR _pUser$[ebp]
  00095	e8 00 00 00 00	 call	 ?AddReassembleOpenWnd@CUser@@QAEXV?$vector@KV?$allocator@K@std@@@std@@@Z ; CUser::AddReassembleOpenWnd

; 204  : }

  0009a	5f		 pop	 edi
  0009b	5e		 pop	 esi
  0009c	5b		 pop	 ebx
  0009d	8b e5		 mov	 esp, ebp
  0009f	5d		 pop	 ebp
  000a0	c2 04 00	 ret	 4
$LN59@OpenWnd_Re:
; File C:\Program Files\Microsoft Visual Studio\2022\Professional\VC\Tools\MSVC\14.44.35207\include\vector

; 2052 :             _Xlength();

  000a3	e8 00 00 00 00	 call	 ?_Xlength@?$vector@KV?$allocator@K@std@@@std@@CAXXZ ; std::vector<unsigned long,std::allocator<unsigned long> >::_Xlength
$LN56@OpenWnd_Re:
  000a8	cc		 int	 3
?OpenWnd_Reassemble@CMiniGame@@QAEXPAVCUser@@@Z ENDP	; CMiniGame::OpenWnd_Reassemble
_TEXT	ENDS
; Function compile flags: /Ogtp
; File C:\IAGOS\server\v18\Source\Source\_Common\MiniGame.cpp
; File C:\IAGOS\server\v18\Source\Source\_Common\xUtil.h
; File C:\IAGOS\server\v18\Source\Source\_Common\MiniGame.cpp
; File C:\IAGOS\server\v18\Source\Source\_Common\xUtil.h
; File C:\IAGOS\server\v18\Source\Source\_Common\MiniGame.cpp
; File C:\IAGOS\server\v18\Source\Source\_Common\xUtil.h
; File C:\Program Files\Microsoft Visual Studio\2022\Professional\VC\Tools\MSVC\14.44.35207\include\vector
; File C:\IAGOS\server\v18\Source\Source\_Common\xUtil.h
; File C:\Program Files\Microsoft Visual Studio\2022\Professional\VC\Tools\MSVC\14.44.35207\include\vector
; File C:\IAGOS\server\v18\Source\Source\_Common\xUtil.h
; File C:\Program Files\Microsoft Visual Studio\2022\Professional\VC\Tools\MSVC\14.44.35207\include\vector
; File C:\IAGOS\server\v18\Source\Source\_Common\MiniGame.cpp
;	COMDAT ?GetReassembleRandomItem@CMiniGame@@QAE?AU__ITEMGAME@1@XZ
_TEXT	SEGMENT
_temp$ = -12						; size = 12
___$ReturnUdt$ = 8					; size = 4
?GetReassembleRandomItem@CMiniGame@@QAE?AU__ITEMGAME@1@XZ PROC ; CMiniGame::GetReassembleRandomItem, COMDAT
; _this$ = ecx

; 271  : {

  00000	55		 push	 ebp
  00001	8b ec		 mov	 ebp, esp
  00003	83 ec 0c	 sub	 esp, 12			; 0000000cH
; File C:\IAGOS\server\v18\Source\Source\_Common\xUtil.h

; 22   : 	return  xRand() % num;

  00006	b8 83 de 1b 43	 mov	 eax, 1125899907		; 431bde83H
; File C:\IAGOS\server\v18\Source\Source\_Common\MiniGame.cpp

; 271  : {

  0000b	53		 push	 ebx
; File C:\IAGOS\server\v18\Source\Source\_Common\xUtil.h

; 16   : 	g_next = g_next * 1103515245 + 12345;// + nRandomSeed[ i++ ];

  0000c	69 1d 00 00 00
	00 6d 4e c6 41	 imul	 ebx, DWORD PTR ?g_next@@3KA, 1103515245 ; g_next
; File C:\IAGOS\server\v18\Source\Source\_Common\MiniGame.cpp

; 271  : {

  00016	56		 push	 esi
  00017	8b f1		 mov	 esi, ecx
  00019	57		 push	 edi

; 272  : 	int nRandom = xRandom( 1000000 );
; 273  : 	int nSum = 0;

  0001a	33 ff		 xor	 edi, edi
; File C:\IAGOS\server\v18\Source\Source\_Common\xUtil.h

; 16   : 	g_next = g_next * 1103515245 + 12345;// + nRandomSeed[ i++ ];

  0001c	81 c3 39 30 00
	00		 add	 ebx, 12345		; 00003039H

; 22   : 	return  xRand() % num;

  00022	f7 e3		 mul	 ebx

; 16   : 	g_next = g_next * 1103515245 + 12345;// + nRandomSeed[ i++ ];

  00024	89 1d 00 00 00
	00		 mov	 DWORD PTR ?g_next@@3KA, ebx ; g_next
; File C:\Program Files\Microsoft Visual Studio\2022\Professional\VC\Tools\MSVC\14.44.35207\include\vector

; 1915 :         return static_cast<size_type>(_My_data._Mylast - _My_data._Myfirst);

  0002a	8b 4e 34	 mov	 ecx, DWORD PTR [esi+52]
; File C:\IAGOS\server\v18\Source\Source\_Common\xUtil.h

; 22   : 	return  xRand() % num;

  0002d	c1 ea 12	 shr	 edx, 18			; 00000012H
  00030	69 c2 40 42 0f
	00		 imul	 eax, edx, 1000000
; File C:\Program Files\Microsoft Visual Studio\2022\Professional\VC\Tools\MSVC\14.44.35207\include\vector

; 1915 :         return static_cast<size_type>(_My_data._Mylast - _My_data._Myfirst);

  00036	8b 56 38	 mov	 edx, DWORD PTR [esi+56]
  00039	2b d1		 sub	 edx, ecx
; File C:\IAGOS\server\v18\Source\Source\_Common\xUtil.h

; 22   : 	return  xRand() % num;

  0003b	2b d8		 sub	 ebx, eax
; File C:\Program Files\Microsoft Visual Studio\2022\Professional\VC\Tools\MSVC\14.44.35207\include\vector

; 1915 :         return static_cast<size_type>(_My_data._Mylast - _My_data._Myfirst);

  0003d	b8 ab aa aa 2a	 mov	 eax, 715827883		; 2aaaaaabH
  00042	f7 ea		 imul	 edx
  00044	d1 fa		 sar	 edx, 1
  00046	8b c2		 mov	 eax, edx
  00048	c1 e8 1f	 shr	 eax, 31			; 0000001fH
  0004b	03 c2		 add	 eax, edx
; File C:\IAGOS\server\v18\Source\Source\_Common\MiniGame.cpp

; 276  : 	for(int i=0; m_vecReassembleItem.size(); ++i )

  0004d	74 16		 je	 SHORT $LN3@GetReassem
  0004f	90		 npad	 1
$LL4@GetReassem:

; 277  : 	{
; 278  : 		temp = m_vecReassembleItem[i];
; 279  : 		nSum += temp.dwPer;

  00050	03 79 08	 add	 edi, DWORD PTR [ecx+8]
  00053	f3 0f 7e 01	 movq	 xmm0, QWORD PTR [ecx]
  00057	66 0f d6 45 f4	 movq	 QWORD PTR _temp$[ebp], xmm0

; 280  : 		if( nRandom < nSum )

  0005c	3b df		 cmp	 ebx, edi
  0005e	7c 05		 jl	 SHORT $LN3@GetReassem

; 276  : 	for(int i=0; m_vecReassembleItem.size(); ++i )

  00060	83 c1 0c	 add	 ecx, 12			; 0000000cH
  00063	eb eb		 jmp	 SHORT $LL4@GetReassem
$LN3@GetReassem:

; 281  : 			return temp;
; 282  : 	}
; 283  : 
; 284  : 	return m_vecReassembleItem[0];
; 285  : }

  00065	8b 45 08	 mov	 eax, DWORD PTR ___$ReturnUdt$[ebp]
  00068	f3 0f 7e 01	 movq	 xmm0, QWORD PTR [ecx]
  0006c	8b 49 08	 mov	 ecx, DWORD PTR [ecx+8]
  0006f	5f		 pop	 edi
  00070	5e		 pop	 esi
  00071	66 0f d6 00	 movq	 QWORD PTR [eax], xmm0
  00075	89 48 08	 mov	 DWORD PTR [eax+8], ecx
  00078	5b		 pop	 ebx
  00079	8b e5		 mov	 esp, ebp
  0007b	5d		 pop	 ebp
  0007c	c2 04 00	 ret	 4
?GetReassembleRandomItem@CMiniGame@@QAE?AU__ITEMGAME@1@XZ ENDP ; CMiniGame::GetReassembleRandomItem
_TEXT	ENDS
; Function compile flags: /Ogtp
; File C:\IAGOS\server\v18\Source\Source\_Common\MiniGame.cpp
; File C:\IAGOS\server\v18\Source\Source\_Common\Project.h
; File C:\IAGOS\server\v18\Source\Source\_Common\data.h
; File C:\IAGOS\server\v18\Source\Source\_Common\MiniGame.cpp
; File C:\IAGOS\server\v18\Source\Source\_Common\Project.h
; File C:\IAGOS\server\v18\Source\Source\_Common\MiniGame.cpp
; File C:\IAGOS\server\v18\Source\Source\_Common\Project.h
; File C:\IAGOS\server\v18\Source\Source\_Common\MiniGame.cpp
; File C:\IAGOS\server\v18\Source\Source\_Common\Project.h
; File C:\IAGOS\server\v18\Source\Source\_Common\data.h
; File C:\IAGOS\server\v18\Source\Source\_Common\Project.h
; File C:\IAGOS\server\v18\Source\Source\_Common\data.h
; File C:\IAGOS\server\v18\Source\Source\_Common\Project.h
; File C:\IAGOS\server\v18\Source\Source\_Common\MiniGame.cpp
;	COMDAT ?ResultItem_Reassemble@CMiniGame@@QAEHPAVCUser@@@Z
_TEXT	SEGMENT
_ItemGame$ = -404					; size = 12
_aLogItem$ = -392					; size = 200
_itemElem$ = -192					; size = 176
__$ArrayPad$ = -16					; size = 4
__$EHRec$ = -12						; size = 12
_pUser$ = 8						; size = 4
?ResultItem_Reassemble@CMiniGame@@QAEHPAVCUser@@@Z PROC	; CMiniGame::ResultItem_Reassemble, COMDAT
; _this$ = ecx

; 235  : {

  00000	55		 push	 ebp
  00001	8b ec		 mov	 ebp, esp
  00003	6a ff		 push	 -1
  00005	68 00 00 00 00	 push	 __ehhandler$?ResultItem_Reassemble@CMiniGame@@QAEHPAVCUser@@@Z
  0000a	64 a1 00 00 00
	00		 mov	 eax, DWORD PTR fs:0
  00010	50		 push	 eax
  00011	81 ec 88 01 00
	00		 sub	 esp, 392		; 00000188H
  00017	a1 00 00 00 00	 mov	 eax, DWORD PTR ___security_cookie
  0001c	33 c5		 xor	 eax, ebp
  0001e	89 45 f0	 mov	 DWORD PTR __$ArrayPad$[ebp], eax
  00021	53		 push	 ebx
  00022	56		 push	 esi
  00023	57		 push	 edi
  00024	50		 push	 eax
  00025	8d 45 f4	 lea	 eax, DWORD PTR __$EHRec$[ebp]
  00028	64 a3 00 00 00
	00		 mov	 DWORD PTR fs:0, eax
  0002e	8b 7d 08	 mov	 edi, DWORD PTR _pUser$[ebp]

; 236  : 	// ľĆŔĚĹŰ Áö±Ţ Č®·üżˇ µű¶ó ľĆŔĚĹŰŔ» ľňľîżÂ´Ů.
; 237  : 	__ITEMGAME ItemGame = GetReassembleRandomItem();

  00031	8d 85 6c fe ff
	ff		 lea	 eax, DWORD PTR _ItemGame$[ebp]
  00037	50		 push	 eax
  00038	e8 00 00 00 00	 call	 ?GetReassembleRandomItem@CMiniGame@@QAE?AU__ITEMGAME@1@XZ ; CMiniGame::GetReassembleRandomItem

; 238  : 	
; 239  : 	CItemElem itemElem;

  0003d	8d 8d 40 ff ff
	ff		 lea	 ecx, DWORD PTR _itemElem$[ebp]
  00043	e8 00 00 00 00	 call	 ??0CItemElem@@QAE@XZ	; CItemElem::CItemElem

; 240  : 	itemElem.m_dwItemId = ItemGame.dwItemId;

  00048	8b b5 6c fe ff
	ff		 mov	 esi, DWORD PTR _ItemGame$[ebp]

; 241  : 	itemElem.m_nItemNum	= ItemGame.nItemCount;
; 242  : 	itemElem.SetSerialNumber();

  0004e	8d 8d 40 ff ff
	ff		 lea	 ecx, DWORD PTR _itemElem$[ebp]
  00054	8b 9d 70 fe ff
	ff		 mov	 ebx, DWORD PTR _ItemGame$[ebp+4]
  0005a	c7 45 fc 00 00
	00 00		 mov	 DWORD PTR __$EHRec$[ebp+8], 0
  00061	89 b5 4c ff ff
	ff		 mov	 DWORD PTR _itemElem$[ebp+12], esi
  00067	66 89 5d b4	 mov	 WORD PTR _itemElem$[ebp+116], bx
  0006b	e8 00 00 00 00	 call	 ?SetSerialNumber@CItemBase@@QAEXXZ ; CItemBase::SetSerialNumber
; File C:\IAGOS\server\v18\Source\Source\_Common\Project.h

; 1389 : 	VERIFY_RANGE_ASSERT( nIndex, 0, m_aPropItem.GetSize(), "GetItemProp range_error", NULL );

  00070	8b 8d 4c ff ff
	ff		 mov	 ecx, DWORD PTR _itemElem$[ebp+12]
  00076	a1 40 02 00 00	 mov	 eax, DWORD PTR ?prj@@3VCProject@@A+576
  0007b	85 c9		 test	 ecx, ecx
  0007d	78 21		 js	 SHORT $LN15@ResultItem
  0007f	3b c8		 cmp	 ecx, eax
  00081	7d 1d		 jge	 SHORT $LN15@ResultItem
; File C:\IAGOS\server\v18\Source\Source\_Common\data.h

; 270  : 	if( dwIndex >= (DWORD)m_nMaxIndex )

  00083	72 04		 jb	 SHORT $LN20@ResultItem

; 271  : 		return NULL;

  00085	33 c9		 xor	 ecx, ecx
  00087	eb 08		 jmp	 SHORT $LN19@ResultItem
$LN20@ResultItem:

; 272  : 	return (T*) m_apOffset[ dwIndex ];

  00089	a1 30 02 00 00	 mov	 eax, DWORD PTR ?prj@@3VCProject@@A+560
  0008e	8b 0c 88	 mov	 ecx, DWORD PTR [eax+ecx*4]
$LN19@ResultItem:
; File C:\IAGOS\server\v18\Source\Source\_Common\MiniGame.cpp

; 244  : 	if( pItemProp )

  00091	85 c9		 test	 ecx, ecx
  00093	74 23		 je	 SHORT $LN2@ResultItem

; 245  : 		itemElem.m_nHitPoint	= pItemProp->dwEndurance;

  00095	8b 81 90 00 00
	00		 mov	 eax, DWORD PTR [ecx+144]
  0009b	89 45 b0	 mov	 DWORD PTR _itemElem$[ebp+112], eax
  0009e	eb 1f		 jmp	 SHORT $LN3@ResultItem
$LN15@ResultItem:
; File C:\IAGOS\server\v18\Source\Source\_Common\Project.h

; 579  : 	LPCTSTR szErr = Error( _T( "%s min:%d, max:%d, index:%d" ), szMsg, nMin, nMax, nIndex ); 

  000a0	51		 push	 ecx
  000a1	50		 push	 eax
  000a2	6a 00		 push	 0
  000a4	68 00 00 00 00	 push	 OFFSET ??_C@_0BI@BEIFNGEL@GetItemProp?5range_error@
  000a9	68 00 00 00 00	 push	 OFFSET ??_C@_0BM@HMFGHCP@?$CFs?5min?3?$CFd?0?5max?3?$CFd?0?5index?3?$CFd@
  000ae	e8 00 00 00 00	 call	 ?Error@@YAPBDPBDZZ	; Error
  000b3	83 c4 14	 add	 esp, 20			; 00000014H

; 1389 : 	VERIFY_RANGE_ASSERT( nIndex, 0, m_aPropItem.GetSize(), "GetItemProp range_error", NULL );

  000b6	33 c9		 xor	 ecx, ecx
$LN2@ResultItem:
; File C:\IAGOS\server\v18\Source\Source\_Common\MiniGame.cpp

; 247  : 		itemElem.m_nHitPoint	= 0;

  000b8	c7 45 b0 00 00
	00 00		 mov	 DWORD PTR _itemElem$[ebp+112], 0
$LN3@ResultItem:

; 248  : 	itemElem.m_bCharged = pItemProp->bCharged;

  000bf	8b 81 ec 00 00
	00		 mov	 eax, DWORD PTR [ecx+236]

; 249  : 
; 250  : 	LogItemInfo aLogItem;

  000c5	8d 8d 78 fe ff
	ff		 lea	 ecx, DWORD PTR _aLogItem$[ebp]
  000cb	89 45 e4	 mov	 DWORD PTR _itemElem$[ebp+164], eax
  000ce	e8 00 00 00 00	 call	 ??0_LogItemInfo@@QAE@XZ	; _LogItemInfo::_LogItemInfo

; 251  : 	if( pUser->CreateItem( &itemElem ) )

  000d3	6a 00		 push	 0
  000d5	6a 00		 push	 0
  000d7	6a 00		 push	 0
  000d9	8d 85 40 ff ff
	ff		 lea	 eax, DWORD PTR _itemElem$[ebp]
  000df	8b cf		 mov	 ecx, edi
  000e1	50		 push	 eax
  000e2	e8 00 00 00 00	 call	 ?CreateItem@CMover@@QAEHPAVCItemBase@@PAEPAFE@Z ; CMover::CreateItem
  000e7	85 c0		 test	 eax, eax
  000e9	74 18		 je	 SHORT $LN4@ResultItem

; 252  : 	{
; 253  : 		aLogItem.RecvName = "REASSEMBLE_PRIZE";
; 254  : 		pUser->AddReassembleResult( ItemGame.dwItemId, ItemGame.nItemCount );

  000eb	53		 push	 ebx
  000ec	56		 push	 esi
  000ed	8b cf		 mov	 ecx, edi
  000ef	c7 85 80 fe ff
	ff 00 00 00 00	 mov	 DWORD PTR _aLogItem$[ebp+8], OFFSET ??_C@_0BB@IHEHCJBA@REASSEMBLE_PRIZE@
  000f9	e8 00 00 00 00	 call	 ?AddReassembleResult@CUser@@QAEXKH@Z ; CUser::AddReassembleResult

; 255  : 	}

  000fe	e9 bc 00 00 00	 jmp	 $LN5@ResultItem
$LN4@ResultItem:
; File C:\IAGOS\server\v18\Source\Source\_Common\Project.h

; 1427 : 	VERIFY_RANGE( (int)( dwIndex ), 0, m_colorText.GetSize(), "GetText range_error", "error" );

  00103	a1 ac 02 00 00	 mov	 eax, DWORD PTR ?prj@@3VCProject@@A+684
; File C:\IAGOS\server\v18\Source\Source\_Common\MiniGame.cpp

; 258  : 		aLogItem.RecvName = "REASSEMBLE_PRIZE_POST";

  00108	c7 85 80 fe ff
	ff 00 00 00 00	 mov	 DWORD PTR _aLogItem$[ebp+8], OFFSET ??_C@_0BG@KFMNHME@REASSEMBLE_PRIZE_POST@
; File C:\IAGOS\server\v18\Source\Source\_Common\Project.h

; 1427 : 	VERIFY_RANGE( (int)( dwIndex ), 0, m_colorText.GetSize(), "GetText range_error", "error" );

  00112	3d 87 1b 00 00	 cmp	 eax, 7047		; 00001b87H
  00117	7f 21		 jg	 SHORT $LN23@ResultItem

; 579  : 	LPCTSTR szErr = Error( _T( "%s min:%d, max:%d, index:%d" ), szMsg, nMin, nMax, nIndex ); 

  00119	68 87 1b 00 00	 push	 7047			; 00001b87H
  0011e	50		 push	 eax
  0011f	6a 00		 push	 0
  00121	68 00 00 00 00	 push	 OFFSET ??_C@_0BE@OHDBLHOM@GetText?5range_error@
  00126	68 00 00 00 00	 push	 OFFSET ??_C@_0BM@HMFGHCP@?$CFs?5min?3?$CFd?0?5max?3?$CFd?0?5index?3?$CFd@
  0012b	e8 00 00 00 00	 call	 ?Error@@YAPBDPBDZZ	; Error
  00130	83 c4 14	 add	 esp, 20			; 00000014H

; 1427 : 	VERIFY_RANGE( (int)( dwIndex ), 0, m_colorText.GetSize(), "GetText range_error", "error" );

  00133	be 00 00 00 00	 mov	 esi, OFFSET ??_C@_05KKCIMGE@error@
  00138	eb 1b		 jmp	 SHORT $LN22@ResultItem
$LN23@ResultItem:
; File C:\IAGOS\server\v18\Source\Source\_Common\data.h

; 270  : 	if( dwIndex >= (DWORD)m_nMaxIndex )

  0013a	76 14		 jbe	 SHORT $LN52@ResultItem

; 272  : 	return (T*) m_apOffset[ dwIndex ];

  0013c	a1 9c 02 00 00	 mov	 eax, DWORD PTR ?prj@@3VCProject@@A+668
  00141	8b b0 1c 6e 00
	00		 mov	 esi, DWORD PTR [eax+28188]
; File C:\IAGOS\server\v18\Source\Source\_Common\Project.h

; 1428 : 	if( m_colorText.GetAt( dwIndex ) == NULL )

  00147	85 f6		 test	 esi, esi
  00149	74 05		 je	 SHORT $LN52@ResultItem

; 1430 : 	return m_colorText.GetAt( dwIndex )->lpszData; 

  0014b	8b 76 04	 mov	 esi, DWORD PTR [esi+4]
  0014e	eb 05		 jmp	 SHORT $LN22@ResultItem
$LN52@ResultItem:

; 1429 : 		return "";

  00150	be 00 00 00 00	 mov	 esi, OFFSET ??_C@_00CNPNBAHC@@
$LN22@ResultItem:

; 1389 : 	VERIFY_RANGE_ASSERT( nIndex, 0, m_aPropItem.GetSize(), "GetItemProp range_error", NULL );

  00155	8b 8d 4c ff ff
	ff		 mov	 ecx, DWORD PTR _itemElem$[ebp+12]
  0015b	a1 40 02 00 00	 mov	 eax, DWORD PTR ?prj@@3VCProject@@A+576
  00160	85 c9		 test	 ecx, ecx
  00162	78 10		 js	 SHORT $LN45@ResultItem
  00164	3b c8		 cmp	 ecx, eax
  00166	7d 0c		 jge	 SHORT $LN45@ResultItem
; File C:\IAGOS\server\v18\Source\Source\_Common\data.h

; 270  : 	if( dwIndex >= (DWORD)m_nMaxIndex )

  00168	73 20		 jae	 SHORT $LN54@ResultItem

; 272  : 	return (T*) m_apOffset[ dwIndex ];

  0016a	a1 30 02 00 00	 mov	 eax, DWORD PTR ?prj@@3VCProject@@A+560
  0016f	8b 04 88	 mov	 eax, DWORD PTR [eax+ecx*4]
; File C:\IAGOS\server\v18\Source\Source\_Common\Project.h

; 1390 : 	return m_aPropItem.GetAt( nIndex ); 

  00172	eb 18		 jmp	 SHORT $LN40@ResultItem
$LN45@ResultItem:

; 579  : 	LPCTSTR szErr = Error( _T( "%s min:%d, max:%d, index:%d" ), szMsg, nMin, nMax, nIndex ); 

  00174	51		 push	 ecx
  00175	50		 push	 eax
  00176	6a 00		 push	 0
  00178	68 00 00 00 00	 push	 OFFSET ??_C@_0BI@BEIFNGEL@GetItemProp?5range_error@
  0017d	68 00 00 00 00	 push	 OFFSET ??_C@_0BM@HMFGHCP@?$CFs?5min?3?$CFd?0?5max?3?$CFd?0?5index?3?$CFd@
  00182	e8 00 00 00 00	 call	 ?Error@@YAPBDPBDZZ	; Error
  00187	83 c4 14	 add	 esp, 20			; 00000014H
$LN54@ResultItem:
; File C:\IAGOS\server\v18\Source\Source\_Common\MiniGame.cpp

; 259  : 		g_dpDBClient.SendQueryPostMail( pUser->m_idPlayer, 0, itemElem, 0, itemElem.GetProp()->szName, (char*)GETTEXT( TID_MMI_REASSEMBLE ) );

  0018a	33 c0		 xor	 eax, eax
$LN40@ResultItem:
  0018c	56		 push	 esi
  0018d	83 c0 04	 add	 eax, 4
  00190	b9 00 00 00 00	 mov	 ecx, OFFSET ?g_dpDBClient@@3VCDPDatabaseClient@@A ; g_dpDBClient
  00195	50		 push	 eax
  00196	6a 00		 push	 0
  00198	8d 85 40 ff ff
	ff		 lea	 eax, DWORD PTR _itemElem$[ebp]
  0019e	50		 push	 eax
  0019f	6a 00		 push	 0
  001a1	ff b7 34 02 00
	00		 push	 DWORD PTR [edi+564]
  001a7	e8 00 00 00 00	 call	 ?SendQueryPostMail@CDPDatabaseClient@@QAEXKKAAVCItemElem@@HPAD1@Z ; CDPDatabaseClient::SendQueryPostMail

; 260  : 		pUser->AddDefinedText( TID_GAME_MINIGAME_ITEM_POST, "" );

  001ac	68 00 00 00 00	 push	 OFFSET ??_C@_00CNPNBAHC@@
  001b1	68 6b 0c 00 00	 push	 3179			; 00000c6bH
  001b6	57		 push	 edi
  001b7	e8 00 00 00 00	 call	 ?AddDefinedText@CUser@@QAAXHPBDZZ ; CUser::AddDefinedText
  001bc	83 c4 0c	 add	 esp, 12			; 0000000cH
$LN5@ResultItem:

; 261  : 	}
; 262  : 	aLogItem.Action = "+";
; 263  : 	aLogItem.SendName = pUser->GetName();

  001bf	6a 00		 push	 0
  001c1	8b cf		 mov	 ecx, edi
  001c3	c7 85 78 fe ff
	ff 00 00 00 00	 mov	 DWORD PTR _aLogItem$[ebp], OFFSET ??_C@_01MIFGBAGJ@?$CL@
  001cd	e8 00 00 00 00	 call	 ?GetName@CMover@@QAEPBDH@Z ; CMover::GetName
  001d2	89 85 7c fe ff
	ff		 mov	 DWORD PTR _aLogItem$[ebp+4], eax

; 264  : 	aLogItem.WorldId = pUser->GetWorld()->GetID();
; 265  : 	g_DPSrvr.OnLogItem( aLogItem, &itemElem, ItemGame.nItemCount );

  001d8	b9 00 00 00 00	 mov	 ecx, OFFSET ?g_DPSrvr@@3VCDPSrvr@@A ; g_DPSrvr
  001dd	8b 87 6c 01 00
	00		 mov	 eax, DWORD PTR [edi+364]
  001e3	53		 push	 ebx
  001e4	8b 00		 mov	 eax, DWORD PTR [eax]
  001e6	89 85 84 fe ff
	ff		 mov	 DWORD PTR _aLogItem$[ebp+12], eax
  001ec	8d 85 40 ff ff
	ff		 lea	 eax, DWORD PTR _itemElem$[ebp]
  001f2	50		 push	 eax
  001f3	8d 85 78 fe ff
	ff		 lea	 eax, DWORD PTR _aLogItem$[ebp]
  001f9	50		 push	 eax
  001fa	e8 00 00 00 00	 call	 ?OnLogItem@CDPSrvr@@QAEXAAU_LogItemInfo@@PAVCItemElem@@H@Z ; CDPSrvr::OnLogItem

; 266  : 
; 267  : 	return TRUE;

  001ff	8d 8d 40 ff ff
	ff		 lea	 ecx, DWORD PTR _itemElem$[ebp]
  00205	e8 00 00 00 00	 call	 ??1CItemElem@@UAE@XZ	; CItemElem::~CItemElem
  0020a	b8 01 00 00 00	 mov	 eax, 1

; 268  : }

  0020f	8b 4d f4	 mov	 ecx, DWORD PTR __$EHRec$[ebp]
  00212	64 89 0d 00 00
	00 00		 mov	 DWORD PTR fs:0, ecx
  00219	59		 pop	 ecx
  0021a	5f		 pop	 edi
  0021b	5e		 pop	 esi
  0021c	5b		 pop	 ebx
  0021d	8b 4d f0	 mov	 ecx, DWORD PTR __$ArrayPad$[ebp]
  00220	33 cd		 xor	 ecx, ebp
  00222	e8 00 00 00 00	 call	 @__security_check_cookie@4
  00227	8b e5		 mov	 esp, ebp
  00229	5d		 pop	 ebp
  0022a	c2 04 00	 ret	 4
_TEXT	ENDS
;	COMDAT text$x
text$x	SEGMENT
__unwindfunclet$?ResultItem_Reassemble@CMiniGame@@QAEHPAVCUser@@@Z$0:
  00000	8d 8d 40 ff ff
	ff		 lea	 ecx, DWORD PTR _itemElem$[ebp]
  00006	e9 00 00 00 00	 jmp	 ??1CItemElem@@UAE@XZ	; CItemElem::~CItemElem
  0000b	cc		 int	 3
  0000c	cc		 int	 3
  0000d	cc		 int	 3
  0000e	cc		 int	 3
  0000f	cc		 int	 3
__ehhandler$?ResultItem_Reassemble@CMiniGame@@QAEHPAVCUser@@@Z:
  00010	90		 npad	 1
  00011	90		 npad	 1
  00012	8b 54 24 08	 mov	 edx, DWORD PTR [esp+8]
  00016	8d 42 0c	 lea	 eax, DWORD PTR [edx+12]
  00019	8b 8a 68 fe ff
	ff		 mov	 ecx, DWORD PTR [edx-408]
  0001f	33 c8		 xor	 ecx, eax
  00021	e8 00 00 00 00	 call	 @__security_check_cookie@4
  00026	8b 4a fc	 mov	 ecx, DWORD PTR [edx-4]
  00029	33 c8		 xor	 ecx, eax
  0002b	e8 00 00 00 00	 call	 @__security_check_cookie@4
  00030	b8 00 00 00 00	 mov	 eax, OFFSET __ehfuncinfo$?ResultItem_Reassemble@CMiniGame@@QAEHPAVCUser@@@Z
  00035	e9 00 00 00 00	 jmp	 ___CxxFrameHandler3
text$x	ENDS
?ResultItem_Reassemble@CMiniGame@@QAEHPAVCUser@@@Z ENDP	; CMiniGame::ResultItem_Reassemble
; Function compile flags: /Ogtp
; File C:\IAGOS\server\v18\Source\Source\_Common\MiniGame.cpp
; File C:\Program Files\Microsoft Visual Studio\2022\Professional\VC\Tools\MSVC\14.44.35207\include\vector
; File C:\IAGOS\server\v18\Source\Source\_Common\MiniGame.cpp
; File C:\Program Files\Microsoft Visual Studio\2022\Professional\VC\Tools\MSVC\14.44.35207\include\vector
; File C:\IAGOS\server\v18\Source\Source\_Common\MiniGame.cpp
; File C:\IAGOS\server\v18\Source\Source\_Common\Item.h
; File C:\IAGOS\server\v18\Source\Source\_Common\Project.h
; File C:\IAGOS\server\v18\Source\Source\_Common\Item.h
; File C:\IAGOS\server\v18\Source\Source\_Common\Project.h
; File C:\IAGOS\server\v18\Source\Source\_Common\data.h
; File C:\IAGOS\server\v18\Source\Source\_Common\Project.h
; File C:\Program Files\Microsoft Visual Studio\2022\Professional\VC\Tools\MSVC\14.44.35207\include\vector
; File C:\IAGOS\server\v18\Source\Source\_Common\MiniGame.cpp
; File C:\Program Files\Microsoft Visual Studio\2022\Professional\VC\Tools\MSVC\14.44.35207\include\vector
; File C:\IAGOS\server\v18\Source\Source\_Common\MiniGame.cpp
; File C:\Program Files\Microsoft Visual Studio\2022\Professional\VC\Tools\MSVC\14.44.35207\include\vector
; File C:\IAGOS\server\v18\Source\Source\_Common\MiniGame.cpp
; File C:\Program Files\Microsoft Visual Studio\2022\Professional\VC\Tools\MSVC\14.44.35207\include\vector
; File C:\IAGOS\server\v18\Source\Source\_Common\MiniGame.cpp
; File C:\Program Files\Microsoft Visual Studio\2022\Professional\VC\Tools\MSVC\14.44.35207\include\vector
; File C:\IAGOS\server\v18\Source\Source\_Common\MiniGame.cpp
; File C:\IAGOS\server\v18\Source\Source\_network\CmnHdr.h
; File C:\IAGOS\server\v18\Source\Source\_Common\MiniGame.cpp
; File C:\IAGOS\server\v18\Source\Source\_network\CmnHdr.h
; File C:\IAGOS\server\v18\Source\Source\_Common\MiniGame.cpp
;	COMDAT ?Result_Reassemble@CMiniGame@@QAEHPAVCUser@@PAKH@Z
_TEXT	SEGMENT
tv533 = -264						; size = 4
tv541 = -260						; size = 4
_this$1$ = -256						; size = 4
tv540 = -252						; size = 4
_pUser$GSCopy$1$ = -248					; size = 4
_objItemId$GSCopy$1$ = -244				; size = 4
_aLogItem$1 = -240					; size = 200
_pItemElem$ = -40					; size = 36
__$ArrayPad$ = -4					; size = 4
_pUser$ = 8						; size = 4
_objItemId$ = 12					; size = 4
_nCount$ = 16						; size = 4
?Result_Reassemble@CMiniGame@@QAEHPAVCUser@@PAKH@Z PROC	; CMiniGame::Result_Reassemble, COMDAT
; _this$ = ecx

; 207  : {

  00000	55		 push	 ebp
  00001	8b ec		 mov	 ebp, esp
  00003	81 ec 08 01 00
	00		 sub	 esp, 264		; 00000108H
  00009	a1 00 00 00 00	 mov	 eax, DWORD PTR ___security_cookie
  0000e	33 c5		 xor	 eax, ebp
  00010	89 45 fc	 mov	 DWORD PTR __$ArrayPad$[ebp], eax
; File C:\Program Files\Microsoft Visual Studio\2022\Professional\VC\Tools\MSVC\14.44.35207\include\vector

; 1915 :         return static_cast<size_type>(_My_data._Mylast - _My_data._Myfirst);

  00013	8b 41 44	 mov	 eax, DWORD PTR [ecx+68]
  00016	2b 41 40	 sub	 eax, DWORD PTR [ecx+64]
; File C:\IAGOS\server\v18\Source\Source\_Common\MiniGame.cpp

; 207  : {

  00019	8b 55 0c	 mov	 edx, DWORD PTR _objItemId$[ebp]
  0001c	56		 push	 esi
  0001d	8b 75 08	 mov	 esi, DWORD PTR _pUser$[ebp]
  00020	57		 push	 edi
; File C:\Program Files\Microsoft Visual Studio\2022\Professional\VC\Tools\MSVC\14.44.35207\include\vector

; 1915 :         return static_cast<size_type>(_My_data._Mylast - _My_data._Myfirst);

  00021	c1 f8 02	 sar	 eax, 2
; File C:\IAGOS\server\v18\Source\Source\_Common\MiniGame.cpp

; 210  : 	for( DWORD i=0; i<m_vecReassembleCard.size(); ++i )

  00024	33 ff		 xor	 edi, edi
  00026	89 8d 00 ff ff
	ff		 mov	 DWORD PTR _this$1$[ebp], ecx
  0002c	89 b5 08 ff ff
	ff		 mov	 DWORD PTR _pUser$GSCopy$1$[ebp], esi
  00032	89 95 0c ff ff
	ff		 mov	 DWORD PTR _objItemId$GSCopy$1$[ebp], edx
  00038	85 c0		 test	 eax, eax
  0003a	0f 84 ba 00 00
	00		 je	 $LN3@Result_Rea

; 207  : {

  00040	8b c2		 mov	 eax, edx
  00042	8d 8e fc 0a 00
	00		 lea	 ecx, DWORD PTR [esi+2812]
  00048	8d 55 d8	 lea	 edx, DWORD PTR _pItemElem$[ebp]
  0004b	89 8d f8 fe ff
	ff		 mov	 DWORD PTR tv533[ebp], ecx
  00051	2b c2		 sub	 eax, edx
  00053	89 85 fc fe ff
	ff		 mov	 DWORD PTR tv541[ebp], eax
  00059	0f 1f 80 00 00
	00 00		 npad	 7
$LL4@Result_Rea:

; 211  : 	{
; 212  : 		pItemElem[i]	= (CItemElem*)pUser->m_Inventory.GetAtId( objItemId[i] );

  00060	8d 75 d8	 lea	 esi, DWORD PTR _pItemElem$[ebp]
  00063	8d 34 be	 lea	 esi, DWORD PTR [esi+edi*4]
  00066	ff 34 06	 push	 DWORD PTR [esi+eax]
  00069	e8 00 00 00 00	 call	 ?GetAtId@?$CItemContainer@VCItemElem@@@@QAEPAVCItemElem@@K@Z ; CItemContainer<CItemElem>::GetAtId

; 213  : 		if( IsUsableItem( pItemElem[i] ) == FALSE )

  0006e	50		 push	 eax
  0006f	89 85 04 ff ff
	ff		 mov	 DWORD PTR tv540[ebp], eax
  00075	89 06		 mov	 DWORD PTR [esi], eax
  00077	e8 00 00 00 00	 call	 ?IsUsableItem@@YAHPAVCItemBase@@@Z ; IsUsableItem
  0007c	83 c4 04	 add	 esp, 4
  0007f	85 c0		 test	 eax, eax
  00081	0f 84 05 02 00
	00		 je	 $LN35@Result_Rea
; File C:\IAGOS\server\v18\Source\Source\_Common\Item.h

; 230  : 	ItemProp*	GetProp()	{	return prj.GetItemProp( m_dwItemId );	}

  00087	8b 85 04 ff ff
	ff		 mov	 eax, DWORD PTR tv540[ebp]
; File C:\IAGOS\server\v18\Source\Source\_Common\Project.h

; 1389 : 	VERIFY_RANGE_ASSERT( nIndex, 0, m_aPropItem.GetSize(), "GetItemProp range_error", NULL );

  0008d	8b 0d 40 02 00
	00		 mov	 ecx, DWORD PTR ?prj@@3VCProject@@A+576
; File C:\IAGOS\server\v18\Source\Source\_Common\Item.h

; 230  : 	ItemProp*	GetProp()	{	return prj.GetItemProp( m_dwItemId );	}

  00093	8b 40 0c	 mov	 eax, DWORD PTR [eax+12]
; File C:\IAGOS\server\v18\Source\Source\_Common\Project.h

; 1389 : 	VERIFY_RANGE_ASSERT( nIndex, 0, m_aPropItem.GetSize(), "GetItemProp range_error", NULL );

  00096	85 c0		 test	 eax, eax
  00098	78 11		 js	 SHORT $LN21@Result_Rea
  0009a	3b c1		 cmp	 eax, ecx
  0009c	7d 0d		 jge	 SHORT $LN21@Result_Rea
; File C:\IAGOS\server\v18\Source\Source\_Common\data.h

; 270  : 	if( dwIndex >= (DWORD)m_nMaxIndex )

  0009e	73 21		 jae	 SHORT $LN51@Result_Rea

; 271  : 		return NULL;
; 272  : 	return (T*) m_apOffset[ dwIndex ];

  000a0	8b 0d 30 02 00
	00		 mov	 ecx, DWORD PTR ?prj@@3VCProject@@A+560
  000a6	8b 04 81	 mov	 eax, DWORD PTR [ecx+eax*4]
; File C:\IAGOS\server\v18\Source\Source\_Common\Project.h

; 1390 : 	return m_aPropItem.GetAt( nIndex ); 

  000a9	eb 18		 jmp	 SHORT $LN16@Result_Rea
$LN21@Result_Rea:

; 579  : 	LPCTSTR szErr = Error( _T( "%s min:%d, max:%d, index:%d" ), szMsg, nMin, nMax, nIndex ); 

  000ab	50		 push	 eax
  000ac	51		 push	 ecx
  000ad	6a 00		 push	 0
  000af	68 00 00 00 00	 push	 OFFSET ??_C@_0BI@BEIFNGEL@GetItemProp?5range_error@
  000b4	68 00 00 00 00	 push	 OFFSET ??_C@_0BM@HMFGHCP@?$CFs?5min?3?$CFd?0?5max?3?$CFd?0?5index?3?$CFd@
  000b9	e8 00 00 00 00	 call	 ?Error@@YAPBDPBDZZ	; Error
  000be	83 c4 14	 add	 esp, 20			; 00000014H
$LN51@Result_Rea:
; File C:\Program Files\Microsoft Visual Studio\2022\Professional\VC\Tools\MSVC\14.44.35207\include\vector

; 1934 :         return _My_data._Myfirst[_Pos];

  000c1	33 c0		 xor	 eax, eax
$LN16@Result_Rea:
  000c3	8b 95 00 ff ff
	ff		 mov	 edx, DWORD PTR _this$1$[ebp]
; File C:\IAGOS\server\v18\Source\Source\_Common\MiniGame.cpp

; 216  : 		if( pItemElem[i]->GetProp()->dwID != m_vecReassembleCard[i] )

  000c9	8b 00		 mov	 eax, DWORD PTR [eax]
; File C:\Program Files\Microsoft Visual Studio\2022\Professional\VC\Tools\MSVC\14.44.35207\include\vector

; 1934 :         return _My_data._Myfirst[_Pos];

  000cb	8b 4a 40	 mov	 ecx, DWORD PTR [edx+64]
; File C:\IAGOS\server\v18\Source\Source\_Common\MiniGame.cpp

; 216  : 		if( pItemElem[i]->GetProp()->dwID != m_vecReassembleCard[i] )

  000ce	3b 04 b9	 cmp	 eax, DWORD PTR [ecx+edi*4]
  000d1	0f 85 b5 01 00
	00		 jne	 $LN35@Result_Rea
; File C:\Program Files\Microsoft Visual Studio\2022\Professional\VC\Tools\MSVC\14.44.35207\include\vector

; 1915 :         return static_cast<size_type>(_My_data._Mylast - _My_data._Myfirst);

  000d7	8b 42 44	 mov	 eax, DWORD PTR [edx+68]
; File C:\IAGOS\server\v18\Source\Source\_Common\MiniGame.cpp

; 210  : 	for( DWORD i=0; i<m_vecReassembleCard.size(); ++i )

  000da	47		 inc	 edi
; File C:\Program Files\Microsoft Visual Studio\2022\Professional\VC\Tools\MSVC\14.44.35207\include\vector

; 1915 :         return static_cast<size_type>(_My_data._Mylast - _My_data._Myfirst);

  000db	2b c1		 sub	 eax, ecx
; File C:\IAGOS\server\v18\Source\Source\_Common\MiniGame.cpp

; 210  : 	for( DWORD i=0; i<m_vecReassembleCard.size(); ++i )

  000dd	8b 8d f8 fe ff
	ff		 mov	 ecx, DWORD PTR tv533[ebp]
; File C:\Program Files\Microsoft Visual Studio\2022\Professional\VC\Tools\MSVC\14.44.35207\include\vector

; 1915 :         return static_cast<size_type>(_My_data._Mylast - _My_data._Myfirst);

  000e3	c1 f8 02	 sar	 eax, 2
; File C:\IAGOS\server\v18\Source\Source\_Common\MiniGame.cpp

; 210  : 	for( DWORD i=0; i<m_vecReassembleCard.size(); ++i )

  000e6	3b f8		 cmp	 edi, eax
  000e8	8b 85 fc fe ff
	ff		 mov	 eax, DWORD PTR tv541[ebp]
  000ee	0f 82 6c ff ff
	ff		 jb	 $LL4@Result_Rea

; 216  : 		if( pItemElem[i]->GetProp()->dwID != m_vecReassembleCard[i] )

  000f4	8b 95 0c ff ff
	ff		 mov	 edx, DWORD PTR _objItemId$GSCopy$1$[ebp]
$LN3@Result_Rea:

; 217  : 			return FALSE;
; 218  : 	}
; 219  : 
; 220  : 	// ¸đµÎ ŔĎÄˇÇĎ¸é Ä«µĺ ľĆŔĚĹŰ »čÁ¦
; 221  : 	for( int i=0; i<nCount ; ++i )

  000fa	8b 75 10	 mov	 esi, DWORD PTR _nCount$[ebp]
  000fd	85 f6		 test	 esi, esi
  000ff	0f 8e 70 01 00
	00		 jle	 $LN6@Result_Rea

; 222  : 	{

  00105	0f 10 0d 00 00
	00 00		 movups	 xmm1, XMMWORD PTR __xmm@00000000000000000000006400000064
  0010c	8d 7d d8	 lea	 edi, DWORD PTR _pItemElem$[ebp]
  0010f	2b fa		 sub	 edi, edx
$LL7@Result_Rea:

; 225  : 		aLogItem.SendName = pUser->GetName();

  00111	8b 8d 08 ff ff
	ff		 mov	 ecx, DWORD PTR _pUser$GSCopy$1$[ebp]
  00117	0f 57 c0	 xorps	 xmm0, xmm0
; File C:\IAGOS\server\v18\Source\Source\_network\CmnHdr.h

; 683  : 		wPetEnergy = 0;

  0011a	33 c0		 xor	 eax, eax
  0011c	c7 85 14 ff ff
	ff 00 00 00 00	 mov	 DWORD PTR _aLogItem$1[ebp+4], OFFSET ??_C@_00CNPNBAHC@@
; File C:\IAGOS\server\v18\Source\Source\_Common\MiniGame.cpp

; 225  : 		aLogItem.SendName = pUser->GetName();

  00126	50		 push	 eax
; File C:\IAGOS\server\v18\Source\Source\_network\CmnHdr.h

; 639  : 		RecvName = _T("");

  00127	c7 85 18 ff ff
	ff 00 00 00 00	 mov	 DWORD PTR _aLogItem$1[ebp+8], OFFSET ??_C@_00CNPNBAHC@@

; 640  : 		WorldId = Gold = Gold2 = 0;

  00131	c7 85 24 ff ff
	ff 00 00 00 00	 mov	 DWORD PTR _aLogItem$1[ebp+20], 0
  0013b	c7 85 20 ff ff
	ff 00 00 00 00	 mov	 DWORD PTR _aLogItem$1[ebp+16], 0
  00145	c7 85 1c ff ff
	ff 00 00 00 00	 mov	 DWORD PTR _aLogItem$1[ebp+12], 0

; 641  : 		Negudo = 0;

  0014f	c7 85 2c ff ff
	ff 00 00 00 00	 mov	 DWORD PTR _aLogItem$1[ebp+28], 0

; 642  : 		MaxNegudo = 0;

  00159	c7 85 30 ff ff
	ff 00 00 00 00	 mov	 DWORD PTR _aLogItem$1[ebp+32], 0

; 643  : 		ItemNo = 0;

  00163	c7 85 28 ff ff
	ff 00 00 00 00	 mov	 DWORD PTR _aLogItem$1[ebp+24], 0

; 644  : 		//ItemName = _T("");
; 645  : 		::memset( szItemName, 0, sizeof(szItemName) );

  0016d	0f 11 85 34 ff
	ff ff		 movups	 XMMWORD PTR _aLogItem$1[ebp+36], xmm0

; 646  : 		itemNumber = 0;

  00174	c7 85 54 ff ff
	ff 00 00 00 00	 mov	 DWORD PTR _aLogItem$1[ebp+68], 0
  0017e	0f 11 85 44 ff
	ff ff		 movups	 XMMWORD PTR _aLogItem$1[ebp+52], xmm0

; 647  : 		nAbilityOption = 0;

  00185	c7 85 58 ff ff
	ff 00 00 00 00	 mov	 DWORD PTR _aLogItem$1[ebp+72], 0

; 648  : 		Gold_1 = 0;

  0018f	c7 85 5c ff ff
	ff 00 00 00 00	 mov	 DWORD PTR _aLogItem$1[ebp+76], 0

; 649  : 		nSlot = 100;

  00199	0f 11 8d 60 ff
	ff ff		 movups	 XMMWORD PTR _aLogItem$1[ebp+80], xmm1

; 650  : 		nSlot1 = 100;
; 651  : 		nItemResist = 0;
; 652  : 		nResistAbilityOption = 0;
; 653  : 		m_bCharged = FALSE;

  001a0	c7 85 70 ff ff
	ff 00 00 00 00	 mov	 DWORD PTR _aLogItem$1[ebp+96], 0

; 654  : 		m_dwKeepTime = 0;

  001aa	c7 85 74 ff ff
	ff 00 00 00 00	 mov	 DWORD PTR _aLogItem$1[ebp+100], 0

; 655  : #if __VER >= 11 // __SYS_IDENTIFY
; 656  : 		m_iRandomOptItemId = 0;

  001b4	66 0f 13 85 78
	ff ff ff	 movlpd	 QWORD PTR _aLogItem$1[ebp+104], xmm0

; 657  : #else	//__SYS_IDENTIFY
; 658  : 		m_nRandomOptItemId = 0;
; 659  : #endif	// __SYS_IDENTIFY
; 660  : #if __VER >= 12 // __EXT_PIERCING
; 661  : 		nPiercedSize = 0;

  001bc	c7 45 80 00 00
	00 00		 mov	 DWORD PTR _aLogItem$1[ebp+112], 0

; 662  : //		for( int i=0; i<MAX_PIERCING_WEAPON; i++ )
; 663  : //			adwItemId[i] = 0;
; 664  : 		memset( adwItemId, 0, sizeof(adwItemId) );

  001c3	0f 11 45 84	 movups	 XMMWORD PTR _aLogItem$1[ebp+116], xmm0

; 665  : 		nUMPiercedSize = 0;

  001c7	c7 45 ac 00 00
	00 00		 mov	 DWORD PTR _aLogItem$1[ebp+156], 0
  001ce	0f 11 45 94	 movups	 XMMWORD PTR _aLogItem$1[ebp+132], xmm0

; 666  : //		for( i=0; i<MAX_PIERCING_ULTIMATE; i++ )
; 667  : //	adwUMItemId[i] = 0;
; 668  : 		memset( adwUMItemId, 0, sizeof(adwUMItemId) );

  001d2	c7 45 c0 00 00
	00 00		 mov	 DWORD PTR _aLogItem$1[ebp+176], 0
  001d9	66 0f d6 45 a4	 movq	 QWORD PTR _aLogItem$1[ebp+148], xmm0
  001de	0f 11 45 b0	 movups	 XMMWORD PTR _aLogItem$1[ebp+160], xmm0

; 669  : #else // __EXT_PIERCING
; 670  : 		nPiercedSize = 0;
; 671  : 		adwItemId0 = 0;
; 672  : 		adwItemId1 = 0;
; 673  : 		adwItemId2 = 0;
; 674  : 		adwItemId3 = 0;
; 675  : #if __VER >= 9 // __ULTIMATE
; 676  : 		adwItemId4 = 0;
; 677  : #endif // __ULTIMATE
; 678  : #endif // __EXT_PIERCING
; 679  : #if __VER >= 9 // __PET_0410
; 680  : 		nPetKind = 0;

  001e2	66 c7 45 c4 00
	00		 mov	 WORD PTR _aLogItem$1[ebp+180], 0

; 681  : 		nPetLevel = 0;
; 682  : 		dwPetExp = 0;

  001e8	c7 45 c8 00 00
	00 00		 mov	 DWORD PTR _aLogItem$1[ebp+184], 0

; 683  : 		wPetEnergy = 0;

  001ef	89 45 cc	 mov	 DWORD PTR _aLogItem$1[ebp+188], eax

; 684  : 		wPetLife = 0;
; 685  : 		nPetAL_D = 0;

  001f2	89 45 d0	 mov	 DWORD PTR _aLogItem$1[ebp+192], eax

; 686  : 		nPetAL_C = 0;
; 687  : 		nPetAL_B = 0;
; 688  : 		nPetAL_A = 0;
; 689  : 		nPetAL_S = 0;

  001f5	88 45 d4	 mov	 BYTE PTR _aLogItem$1[ebp+196], al
; File C:\IAGOS\server\v18\Source\Source\_Common\MiniGame.cpp

; 224  : 		aLogItem.Action = "+";

  001f8	c7 85 10 ff ff
	ff 00 00 00 00	 mov	 DWORD PTR _aLogItem$1[ebp], OFFSET ??_C@_01MIFGBAGJ@?$CL@

; 225  : 		aLogItem.SendName = pUser->GetName();

  00202	e8 00 00 00 00	 call	 ?GetName@CMover@@QAEPBDH@Z ; CMover::GetName
  00207	89 85 14 ff ff
	ff		 mov	 DWORD PTR _aLogItem$1[ebp+4], eax

; 226  : 		aLogItem.RecvName = "REASSEMBLE_USE";
; 227  : 		aLogItem.WorldId = pUser->GetWorld()->GetID();
; 228  : 		g_DPSrvr.OnLogItem( aLogItem, pItemElem[i], 1 );

  0020d	b9 00 00 00 00	 mov	 ecx, OFFSET ?g_DPSrvr@@3VCDPSrvr@@A ; g_DPSrvr
  00212	8b 85 08 ff ff
	ff		 mov	 eax, DWORD PTR _pUser$GSCopy$1$[ebp]
  00218	c7 85 18 ff ff
	ff 00 00 00 00	 mov	 DWORD PTR _aLogItem$1[ebp+8], OFFSET ??_C@_0P@EECHKOAF@REASSEMBLE_USE@
  00222	6a 01		 push	 1
  00224	8b 80 6c 01 00
	00		 mov	 eax, DWORD PTR [eax+364]
  0022a	8b 00		 mov	 eax, DWORD PTR [eax]
  0022c	89 85 1c ff ff
	ff		 mov	 DWORD PTR _aLogItem$1[ebp+12], eax
  00232	8b 85 0c ff ff
	ff		 mov	 eax, DWORD PTR _objItemId$GSCopy$1$[ebp]
  00238	ff 34 38	 push	 DWORD PTR [eax+edi]
  0023b	8d 85 10 ff ff
	ff		 lea	 eax, DWORD PTR _aLogItem$1[ebp]
  00241	50		 push	 eax
  00242	e8 00 00 00 00	 call	 ?OnLogItem@CDPSrvr@@QAEXAAU_LogItemInfo@@PAVCItemElem@@H@Z ; CDPSrvr::OnLogItem

; 229  : 
; 230  : 		pUser->RemoveItem( (BYTE)( objItemId[i] ), (short)1 );

  00247	8b 85 0c ff ff
	ff		 mov	 eax, DWORD PTR _objItemId$GSCopy$1$[ebp]
  0024d	8b 8d 08 ff ff
	ff		 mov	 ecx, DWORD PTR _pUser$GSCopy$1$[ebp]
  00253	6a 01		 push	 1
  00255	0f b6 00	 movzx	 eax, BYTE PTR [eax]
  00258	50		 push	 eax
  00259	e8 00 00 00 00	 call	 ?RemoveItem@CMover@@QAEXEF@Z ; CMover::RemoveItem
  0025e	83 85 0c ff ff
	ff 04		 add	 DWORD PTR _objItemId$GSCopy$1$[ebp], 4
  00265	0f 10 0d 00 00
	00 00		 movups	 xmm1, XMMWORD PTR __xmm@00000000000000000000006400000064
  0026c	83 ee 01	 sub	 esi, 1
  0026f	0f 85 9c fe ff
	ff		 jne	 $LL7@Result_Rea
$LN6@Result_Rea:
  00275	5f		 pop	 edi

; 231  : 	}
; 232  : 	return TRUE;

  00276	b8 01 00 00 00	 mov	 eax, 1

; 233  : }

  0027b	5e		 pop	 esi
  0027c	8b 4d fc	 mov	 ecx, DWORD PTR __$ArrayPad$[ebp]
  0027f	33 cd		 xor	 ecx, ebp
  00281	e8 00 00 00 00	 call	 @__security_check_cookie@4
  00286	8b e5		 mov	 esp, ebp
  00288	5d		 pop	 ebp
  00289	c2 0c 00	 ret	 12			; 0000000cH
$LN35@Result_Rea:
  0028c	8b 4d fc	 mov	 ecx, DWORD PTR __$ArrayPad$[ebp]
  0028f	33 c0		 xor	 eax, eax
  00291	5f		 pop	 edi
  00292	33 cd		 xor	 ecx, ebp
  00294	5e		 pop	 esi
  00295	e8 00 00 00 00	 call	 @__security_check_cookie@4
  0029a	8b e5		 mov	 esp, ebp
  0029c	5d		 pop	 ebp
  0029d	c2 0c 00	 ret	 12			; 0000000cH
?Result_Reassemble@CMiniGame@@QAEHPAVCUser@@PAKH@Z ENDP	; CMiniGame::Result_Reassemble
_TEXT	ENDS
; Function compile flags: /Ogtp
; File C:\IAGOS\server\v18\Source\Source\_Common\MiniGame.cpp
; File C:\IAGOS\server\v18\Source\Source\_Common\MiniGame.h
; File C:\IAGOS\server\v18\Source\Source\_Common\MiniGame.cpp
; File C:\IAGOS\server\v18\Source\Source\_Common\MiniGame.h
; File C:\IAGOS\server\v18\Source\Source\_Common\MiniGame.cpp
; File C:\Program Files\Microsoft Visual Studio\2022\Professional\VC\Tools\MSVC\14.44.35207\include\xtree
; File C:\IAGOS\server\v18\Source\Source\_Common\MiniGame.cpp
; File C:\Program Files\Microsoft Visual Studio\2022\Professional\VC\Tools\MSVC\14.44.35207\include\xtree
; File C:\Program Files\Microsoft Visual Studio\2022\Professional\VC\Tools\MSVC\14.44.35207\include\type_traits
; File C:\Program Files\Microsoft Visual Studio\2022\Professional\VC\Tools\MSVC\14.44.35207\include\xtree
; File C:\IAGOS\server\v18\Source\Source\_Common\MiniGame.cpp
; File C:\Program Files\Microsoft Visual Studio\2022\Professional\VC\Tools\MSVC\14.44.35207\include\xtree
; File C:\IAGOS\server\v18\Source\Source\_Common\MiniGame.cpp
;	COMDAT ?FindKawibawibo@CMiniGame@@QAE?AU__KAWIBAWIBO@1@H@Z
_TEXT	SEGMENT
__Loc$1 = -12						; size = 12
___$ReturnUdt$ = 8					; size = 4
_nUserWin$ = 8						; size = 4
_nWinCount$ = 12					; size = 4
?FindKawibawibo@CMiniGame@@QAE?AU__KAWIBAWIBO@1@H@Z PROC ; CMiniGame::FindKawibawibo, COMDAT
; _this$ = ecx

; 617  : {

  00000	55		 push	 ebp
  00001	8b ec		 mov	 ebp, esp
  00003	83 ec 0c	 sub	 esp, 12			; 0000000cH
  00006	56		 push	 esi
; File C:\IAGOS\server\v18\Source\Source\_Common\MiniGame.h

; 61   : 			dwDraw = 0;		

  00007	8b 75 08	 mov	 esi, DWORD PTR ___$ReturnUdt$[ebp]
; File C:\IAGOS\server\v18\Source\Source\_Common\MiniGame.cpp

; 617  : {

  0000a	57		 push	 edi

; 619  : 	int nUserWin = nWinCount;

  0000b	8b 7d 0c	 mov	 edi, DWORD PTR _nWinCount$[ebp]
  0000e	89 7d 08	 mov	 DWORD PTR _nUserWin$[ebp], edi
; File C:\IAGOS\server\v18\Source\Source\_Common\MiniGame.h

; 61   : 			dwDraw = 0;		

  00011	c7 06 00 00 00
	00		 mov	 DWORD PTR [esi], 0

; 62   : 			dwLost = 0;	

  00017	c7 46 04 00 00
	00 00		 mov	 DWORD PTR [esi+4], 0

; 63   : 			dwWin = 0;	

  0001e	c7 46 08 00 00
	00 00		 mov	 DWORD PTR [esi+8], 0

; 64   : 			dwItemId = 0;

  00025	c7 46 0c 00 00
	00 00		 mov	 DWORD PTR [esi+12], 0

; 65   : 			nItemCount = 0;

  0002c	c7 46 10 00 00
	00 00		 mov	 DWORD PTR [esi+16], 0
; File C:\IAGOS\server\v18\Source\Source\_Common\MiniGame.cpp

; 619  : 	int nUserWin = nWinCount;

  00033	85 ff		 test	 edi, edi

; 620  : 	if( 0 <= nUserWin )

  00035	78 54		 js	 SHORT $LN58@FindKawiba

; 621  : 	{
; 622  : 		if( nKawiBawiBo_MaxWin < nUserWin )

  00037	8b 41 14	 mov	 eax, DWORD PTR [ecx+20]
  0003a	3b c7		 cmp	 eax, edi
  0003c	7d 05		 jge	 SHORT $LN3@FindKawiba

; 623  : 			nUserWin = nKawiBawiBo_MaxWin;

  0003e	89 45 08	 mov	 DWORD PTR _nUserWin$[ebp], eax
  00041	8b f8		 mov	 edi, eax
$LN3@FindKawiba:
  00043	53		 push	 ebx
; File C:\Program Files\Microsoft Visual Studio\2022\Professional\VC\Tools\MSVC\14.44.35207\include\xtree

; 1384 :         const _Tree_find_result<_Nodeptr> _Loc = _Find_lower_bound(_Keyval);

  00044	8d 45 08	 lea	 eax, DWORD PTR _nUserWin$[ebp]
  00047	50		 push	 eax
; File C:\IAGOS\server\v18\Source\Source\_Common\MiniGame.cpp

; 625  : 		map<int, __KAWIBAWIBO>::iterator it = m_mapKawiBawiBo.find( nUserWin );

  00048	8d 59 24	 lea	 ebx, DWORD PTR [ecx+36]
; File C:\Program Files\Microsoft Visual Studio\2022\Professional\VC\Tools\MSVC\14.44.35207\include\xtree

; 1384 :         const _Tree_find_result<_Nodeptr> _Loc = _Find_lower_bound(_Keyval);

  0004b	8d 45 f4	 lea	 eax, DWORD PTR __Loc$1[ebp]
  0004e	8b cb		 mov	 ecx, ebx
  00050	50		 push	 eax
  00051	e8 00 00 00 00	 call	 ??$_Find_lower_bound@H@?$_Tree@V?$_Tmap_traits@HU__KAWIBAWIBO@CMiniGame@@U?$less@H@std@@V?$allocator@U?$pair@$$CBHU__KAWIBAWIBO@CMiniGame@@@std@@@4@$0A@@std@@@std@@IBE?AU?$_Tree_find_result@PAU?$_Tree_node@U?$pair@$$CBHU__KAWIBAWIBO@CMiniGame@@@std@@PAX@std@@@1@ABH@Z ; std::_Tree<std::_Tmap_traits<int,CMiniGame::__KAWIBAWIBO,std::less<int>,std::allocator<std::pair<int const ,CMiniGame::__KAWIBAWIBO> >,0> >::_Find_lower_bound<int>

; 1624 :         return !_Bound->_Isnil && !_DEBUG_LT_PRED(_Getcomp(), _Keyval, _Traits::_Kfn(_Bound->_Myval));

  00056	8b 4d fc	 mov	 ecx, DWORD PTR __Loc$1[ebp+8]
  00059	80 79 0d 00	 cmp	 BYTE PTR [ecx+13], 0
  0005d	75 21		 jne	 SHORT $LN60@FindKawiba
; File C:\Program Files\Microsoft Visual Studio\2022\Professional\VC\Tools\MSVC\14.44.35207\include\type_traits

; 2380 :         return _Left < _Right;

  0005f	3b 79 10	 cmp	 edi, DWORD PTR [ecx+16]
; File C:\Program Files\Microsoft Visual Studio\2022\Professional\VC\Tools\MSVC\14.44.35207\include\xtree

; 1624 :         return !_Bound->_Isnil && !_DEBUG_LT_PRED(_Getcomp(), _Keyval, _Traits::_Kfn(_Bound->_Myval));

  00062	7c 1c		 jl	 SHORT $LN60@FindKawiba
; File C:\IAGOS\server\v18\Source\Source\_Common\MiniGame.cpp

; 626  : 		if( it != m_mapKawiBawiBo.end() )

  00064	8b c6		 mov	 eax, esi
; File C:\Program Files\Microsoft Visual Studio\2022\Professional\VC\Tools\MSVC\14.44.35207\include\xtree

; 37   :     _Tree_unchecked_const_iterator(_Nodeptr _Pnode, const _Mytree* _Plist) noexcept : _Ptr(_Pnode) {

  00066	3b 0b		 cmp	 ecx, DWORD PTR [ebx]
; File C:\IAGOS\server\v18\Source\Source\_Common\MiniGame.cpp

; 626  : 		if( it != m_mapKawiBawiBo.end() )

  00068	74 0d		 je	 SHORT $LN66@FindKawiba

; 627  : 			Kawibawibo = it->second;

  0006a	0f 10 41 14	 movups	 xmm0, XMMWORD PTR [ecx+20]
  0006e	8b 49 24	 mov	 ecx, DWORD PTR [ecx+36]
  00071	0f 11 06	 movups	 XMMWORD PTR [esi], xmm0
  00074	89 4e 10	 mov	 DWORD PTR [esi+16], ecx
$LN66@FindKawiba:

; 631  : }

  00077	5b		 pop	 ebx
  00078	5f		 pop	 edi
  00079	5e		 pop	 esi
  0007a	8b e5		 mov	 esp, ebp
  0007c	5d		 pop	 ebp
  0007d	c2 08 00	 ret	 8
$LN60@FindKawiba:
  00080	5b		 pop	 ebx
  00081	5f		 pop	 edi

; 628  : 	}
; 629  : 	
; 630  : 	return Kawibawibo;	

  00082	8b c6		 mov	 eax, esi

; 631  : }

  00084	5e		 pop	 esi
  00085	8b e5		 mov	 esp, ebp
  00087	5d		 pop	 ebp
  00088	c2 08 00	 ret	 8
$LN58@FindKawiba:
  0008b	5f		 pop	 edi

; 628  : 	}
; 629  : 	
; 630  : 	return Kawibawibo;	

  0008c	8b c6		 mov	 eax, esi

; 631  : }

  0008e	5e		 pop	 esi
  0008f	8b e5		 mov	 esp, ebp
  00091	5d		 pop	 ebp
  00092	c2 08 00	 ret	 8
?FindKawibawibo@CMiniGame@@QAE?AU__KAWIBAWIBO@1@H@Z ENDP ; CMiniGame::FindKawibawibo
_TEXT	ENDS
; Function compile flags: /Ogtp
; File C:\IAGOS\server\v18\Source\Source\_Common\MiniGame.cpp
; File C:\IAGOS\server\v18\Source\Source\_Common\Project.h
; File C:\IAGOS\server\v18\Source\Source\_Common\data.h
; File C:\IAGOS\server\v18\Source\Source\_Common\MiniGame.cpp
; File C:\IAGOS\server\v18\Source\Source\_Common\Project.h
; File C:\IAGOS\server\v18\Source\Source\_Common\MiniGame.cpp
; File C:\IAGOS\server\v18\Source\Source\_Common\Project.h
; File C:\IAGOS\server\v18\Source\Source\_Common\MiniGame.cpp
; File C:\IAGOS\server\v18\Source\Source\_Common\Project.h
; File C:\IAGOS\server\v18\Source\Source\_Common\data.h
; File C:\IAGOS\server\v18\Source\Source\_Common\Project.h
; File C:\IAGOS\server\v18\Source\Source\_Common\MiniGame.cpp
;	COMDAT ?ResultItem_Kawibawibo@CMiniGame@@QAEHPAVCUser@@@Z
_TEXT	SEGMENT
_Kawibawibo$ = -412					; size = 20
_aLogItem$2 = -392					; size = 200
_itemElem$3 = -192					; size = 176
__$ArrayPad$ = -16					; size = 4
__$EHRec$ = -12						; size = 12
_pUser$ = 8						; size = 4
?ResultItem_Kawibawibo@CMiniGame@@QAEHPAVCUser@@@Z PROC	; CMiniGame::ResultItem_Kawibawibo, COMDAT
; _this$ = ecx

; 157  : {

  00000	55		 push	 ebp
  00001	8b ec		 mov	 ebp, esp
  00003	6a ff		 push	 -1
  00005	68 00 00 00 00	 push	 __ehhandler$?ResultItem_Kawibawibo@CMiniGame@@QAEHPAVCUser@@@Z
  0000a	64 a1 00 00 00
	00		 mov	 eax, DWORD PTR fs:0
  00010	50		 push	 eax
  00011	81 ec 90 01 00
	00		 sub	 esp, 400		; 00000190H
  00017	a1 00 00 00 00	 mov	 eax, DWORD PTR ___security_cookie
  0001c	33 c5		 xor	 eax, ebp
  0001e	89 45 f0	 mov	 DWORD PTR __$ArrayPad$[ebp], eax
  00021	53		 push	 ebx
  00022	56		 push	 esi
  00023	57		 push	 edi
  00024	50		 push	 eax
  00025	8d 45 f4	 lea	 eax, DWORD PTR __$EHRec$[ebp]
  00028	64 a3 00 00 00
	00		 mov	 DWORD PTR fs:0, eax
  0002e	8b 75 08	 mov	 esi, DWORD PTR _pUser$[ebp]

; 158  : 	if( 0 >= pUser->m_nKawibawiboWin )

  00031	8b be f4 8e 00
	00		 mov	 edi, DWORD PTR [esi+36596]
  00037	85 ff		 test	 edi, edi
  00039	7f 07		 jg	 SHORT $LN2@ResultItem

; 159  : 		return FALSE;

  0003b	33 c0		 xor	 eax, eax
  0003d	e9 f3 01 00 00	 jmp	 $LN1@ResultItem
$LN2@ResultItem:

; 160  : 	
; 161  : 	__KAWIBAWIBO Kawibawibo = FindKawibawibo( pUser->m_nKawibawiboWin );

  00042	57		 push	 edi
  00043	8d 85 64 fe ff
	ff		 lea	 eax, DWORD PTR _Kawibawibo$[ebp]
  00049	50		 push	 eax
  0004a	e8 00 00 00 00	 call	 ?FindKawibawibo@CMiniGame@@QAE?AU__KAWIBAWIBO@1@H@Z ; CMiniGame::FindKawibawibo

; 162  : 	if( Kawibawibo.nItemCount != 0 )	// ľĆŔĚĹŰ °ąĽö´Â 0ŔĎĽö ľřŔ˝

  0004f	8b 9d 74 fe ff
	ff		 mov	 ebx, DWORD PTR _Kawibawibo$[ebp+16]
  00055	85 db		 test	 ebx, ebx
  00057	0f 84 d3 01 00
	00		 je	 $LN3@ResultItem

; 163  : 	{
; 164  : 		LogItemInfo aLogItem;

  0005d	8d 8d 78 fe ff
	ff		 lea	 ecx, DWORD PTR _aLogItem$2[ebp]
  00063	e8 00 00 00 00	 call	 ??0_LogItemInfo@@QAE@XZ	; _LogItemInfo::_LogItemInfo

; 165  : 		aLogItem.Gold_1 = pUser->m_nKawibawiboWin;
; 166  : 
; 167  : 		pUser->m_nKawibawiboWin = 0;
; 168  : 		pUser->m_nKawibawiboState = KAWIBAWIBO_GETITEM;
; 169  : 
; 170  : 		CItemElem itemElem;

  00068	8d 8d 40 ff ff
	ff		 lea	 ecx, DWORD PTR _itemElem$3[ebp]
  0006e	89 bd c4 fe ff
	ff		 mov	 DWORD PTR _aLogItem$2[ebp+76], edi
  00074	c7 86 f4 8e 00
	00 00 00 00 00	 mov	 DWORD PTR [esi+36596], 0
  0007e	c7 86 f8 8e 00
	00 04 00 00 00	 mov	 DWORD PTR [esi+36600], 4
  00088	e8 00 00 00 00	 call	 ??0CItemElem@@QAE@XZ	; CItemElem::CItemElem

; 171  : 		itemElem.m_dwItemId = Kawibawibo.dwItemId;

  0008d	8b bd 70 fe ff
	ff		 mov	 edi, DWORD PTR _Kawibawibo$[ebp+12]

; 172  : 		itemElem.m_nItemNum		= Kawibawibo.nItemCount;
; 173  : 		itemElem.SetSerialNumber();

  00093	8d 8d 40 ff ff
	ff		 lea	 ecx, DWORD PTR _itemElem$3[ebp]
  00099	c7 45 fc 00 00
	00 00		 mov	 DWORD PTR __$EHRec$[ebp+8], 0
  000a0	89 bd 4c ff ff
	ff		 mov	 DWORD PTR _itemElem$3[ebp+12], edi
  000a6	66 89 5d b4	 mov	 WORD PTR _itemElem$3[ebp+116], bx
  000aa	e8 00 00 00 00	 call	 ?SetSerialNumber@CItemBase@@QAEXXZ ; CItemBase::SetSerialNumber
; File C:\IAGOS\server\v18\Source\Source\_Common\Project.h

; 1389 : 	VERIFY_RANGE_ASSERT( nIndex, 0, m_aPropItem.GetSize(), "GetItemProp range_error", NULL );

  000af	8b 8d 4c ff ff
	ff		 mov	 ecx, DWORD PTR _itemElem$3[ebp+12]
  000b5	a1 40 02 00 00	 mov	 eax, DWORD PTR ?prj@@3VCProject@@A+576
  000ba	85 c9		 test	 ecx, ecx
  000bc	78 21		 js	 SHORT $LN17@ResultItem
  000be	3b c8		 cmp	 ecx, eax
  000c0	7d 1d		 jge	 SHORT $LN17@ResultItem
; File C:\IAGOS\server\v18\Source\Source\_Common\data.h

; 270  : 	if( dwIndex >= (DWORD)m_nMaxIndex )

  000c2	72 04		 jb	 SHORT $LN22@ResultItem

; 271  : 		return NULL;

  000c4	33 c9		 xor	 ecx, ecx
  000c6	eb 08		 jmp	 SHORT $LN21@ResultItem
$LN22@ResultItem:

; 272  : 	return (T*) m_apOffset[ dwIndex ];

  000c8	a1 30 02 00 00	 mov	 eax, DWORD PTR ?prj@@3VCProject@@A+560
  000cd	8b 0c 88	 mov	 ecx, DWORD PTR [eax+ecx*4]
$LN21@ResultItem:
; File C:\IAGOS\server\v18\Source\Source\_Common\MiniGame.cpp

; 175  : 		if( pItemProp )

  000d0	85 c9		 test	 ecx, ecx
  000d2	74 23		 je	 SHORT $LN4@ResultItem

; 176  : 			itemElem.m_nHitPoint	= pItemProp->dwEndurance;

  000d4	8b 81 90 00 00
	00		 mov	 eax, DWORD PTR [ecx+144]
  000da	89 45 b0	 mov	 DWORD PTR _itemElem$3[ebp+112], eax
  000dd	eb 1f		 jmp	 SHORT $LN5@ResultItem
$LN17@ResultItem:
; File C:\IAGOS\server\v18\Source\Source\_Common\Project.h

; 579  : 	LPCTSTR szErr = Error( _T( "%s min:%d, max:%d, index:%d" ), szMsg, nMin, nMax, nIndex ); 

  000df	51		 push	 ecx
  000e0	50		 push	 eax
  000e1	6a 00		 push	 0
  000e3	68 00 00 00 00	 push	 OFFSET ??_C@_0BI@BEIFNGEL@GetItemProp?5range_error@
  000e8	68 00 00 00 00	 push	 OFFSET ??_C@_0BM@HMFGHCP@?$CFs?5min?3?$CFd?0?5max?3?$CFd?0?5index?3?$CFd@
  000ed	e8 00 00 00 00	 call	 ?Error@@YAPBDPBDZZ	; Error
  000f2	83 c4 14	 add	 esp, 20			; 00000014H

; 1389 : 	VERIFY_RANGE_ASSERT( nIndex, 0, m_aPropItem.GetSize(), "GetItemProp range_error", NULL );

  000f5	33 c9		 xor	 ecx, ecx
$LN4@ResultItem:
; File C:\IAGOS\server\v18\Source\Source\_Common\MiniGame.cpp

; 178  : 			itemElem.m_nHitPoint	= 0;

  000f7	c7 45 b0 00 00
	00 00		 mov	 DWORD PTR _itemElem$3[ebp+112], 0
$LN5@ResultItem:

; 179  : 		itemElem.m_bCharged = pItemProp->bCharged;

  000fe	8b 81 ec 00 00
	00		 mov	 eax, DWORD PTR [ecx+236]

; 180  : 
; 181  : 		if( pUser->CreateItem( &itemElem ) )

  00104	8b ce		 mov	 ecx, esi
  00106	6a 00		 push	 0
  00108	6a 00		 push	 0
  0010a	89 45 e4	 mov	 DWORD PTR _itemElem$3[ebp+164], eax
  0010d	8d 85 40 ff ff
	ff		 lea	 eax, DWORD PTR _itemElem$3[ebp]
  00113	6a 00		 push	 0
  00115	50		 push	 eax
  00116	e8 00 00 00 00	 call	 ?CreateItem@CMover@@QAEHPAVCItemBase@@PAEPAFE@Z ; CMover::CreateItem
  0011b	85 c0		 test	 eax, eax
  0011d	74 24		 je	 SHORT $LN6@ResultItem

; 182  : 		{
; 183  : 			aLogItem.RecvName = "KAWIBAWIBO_PRIZE";
; 184  : 			pUser->AddKawibawiboResult( KAWIBAWIBO_GETITEM, aLogItem.Gold_1, Kawibawibo.dwItemId, Kawibawibo.nItemCount );		

  0011f	6a 00		 push	 0
  00121	6a 00		 push	 0
  00123	53		 push	 ebx
  00124	57		 push	 edi
  00125	ff b5 c4 fe ff
	ff		 push	 DWORD PTR _aLogItem$2[ebp+76]
  0012b	8b ce		 mov	 ecx, esi
  0012d	c7 85 80 fe ff
	ff 00 00 00 00	 mov	 DWORD PTR _aLogItem$2[ebp+8], OFFSET ??_C@_0BB@HAKADBLP@KAWIBAWIBO_PRIZE@
  00137	6a 04		 push	 4
  00139	e8 00 00 00 00	 call	 ?AddKawibawiboResult@CUser@@QAEXHHKHKH@Z ; CUser::AddKawibawiboResult

; 185  : 		}

  0013e	e9 90 00 00 00	 jmp	 $LN7@ResultItem
$LN6@ResultItem:
; File C:\IAGOS\server\v18\Source\Source\_Common\Project.h

; 1427 : 	VERIFY_RANGE( (int)( dwIndex ), 0, m_colorText.GetSize(), "GetText range_error", "error" );

  00143	a1 ac 02 00 00	 mov	 eax, DWORD PTR ?prj@@3VCProject@@A+684
; File C:\IAGOS\server\v18\Source\Source\_Common\MiniGame.cpp

; 188  : 			aLogItem.RecvName = "KAWIBAWIBO_PRIZE_POST";

  00148	c7 85 80 fe ff
	ff 00 00 00 00	 mov	 DWORD PTR _aLogItem$2[ebp+8], OFFSET ??_C@_0BG@JKNGBBKM@KAWIBAWIBO_PRIZE_POST@
; File C:\IAGOS\server\v18\Source\Source\_Common\Project.h

; 1427 : 	VERIFY_RANGE( (int)( dwIndex ), 0, m_colorText.GetSize(), "GetText range_error", "error" );

  00152	3d 84 1b 00 00	 cmp	 eax, 7044		; 00001b84H
  00157	7f 21		 jg	 SHORT $LN25@ResultItem

; 579  : 	LPCTSTR szErr = Error( _T( "%s min:%d, max:%d, index:%d" ), szMsg, nMin, nMax, nIndex ); 

  00159	68 84 1b 00 00	 push	 7044			; 00001b84H
  0015e	50		 push	 eax
  0015f	6a 00		 push	 0
  00161	68 00 00 00 00	 push	 OFFSET ??_C@_0BE@OHDBLHOM@GetText?5range_error@
  00166	68 00 00 00 00	 push	 OFFSET ??_C@_0BM@HMFGHCP@?$CFs?5min?3?$CFd?0?5max?3?$CFd?0?5index?3?$CFd@
  0016b	e8 00 00 00 00	 call	 ?Error@@YAPBDPBDZZ	; Error
  00170	83 c4 14	 add	 esp, 20			; 00000014H

; 1427 : 	VERIFY_RANGE( (int)( dwIndex ), 0, m_colorText.GetSize(), "GetText range_error", "error" );

  00173	bf 00 00 00 00	 mov	 edi, OFFSET ??_C@_05KKCIMGE@error@
  00178	eb 1b		 jmp	 SHORT $LN24@ResultItem
$LN25@ResultItem:
; File C:\IAGOS\server\v18\Source\Source\_Common\data.h

; 270  : 	if( dwIndex >= (DWORD)m_nMaxIndex )

  0017a	76 14		 jbe	 SHORT $LN40@ResultItem

; 272  : 	return (T*) m_apOffset[ dwIndex ];

  0017c	a1 9c 02 00 00	 mov	 eax, DWORD PTR ?prj@@3VCProject@@A+668
  00181	8b b8 10 6e 00
	00		 mov	 edi, DWORD PTR [eax+28176]
; File C:\IAGOS\server\v18\Source\Source\_Common\Project.h

; 1428 : 	if( m_colorText.GetAt( dwIndex ) == NULL )

  00187	85 ff		 test	 edi, edi
  00189	74 05		 je	 SHORT $LN40@ResultItem

; 1430 : 	return m_colorText.GetAt( dwIndex )->lpszData; 

  0018b	8b 7f 04	 mov	 edi, DWORD PTR [edi+4]
  0018e	eb 05		 jmp	 SHORT $LN24@ResultItem
$LN40@ResultItem:

; 1429 : 		return "";

  00190	bf 00 00 00 00	 mov	 edi, OFFSET ??_C@_00CNPNBAHC@@
$LN24@ResultItem:
; File C:\IAGOS\server\v18\Source\Source\_Common\MiniGame.cpp

; 189  : 			g_dpDBClient.SendQueryPostMail( pUser->m_idPlayer, 0, itemElem, 0, itemElem.GetProp()->szName, (char*)GETTEXT( TID_MMI_KAWIBAWIBO ) );

  00195	8d 8d 40 ff ff
	ff		 lea	 ecx, DWORD PTR _itemElem$3[ebp]
  0019b	e8 00 00 00 00	 call	 ?GetPropA@CItemElem@@QAEPAUItemProp@@XZ ; CItemElem::GetPropA
  001a0	57		 push	 edi
  001a1	83 c0 04	 add	 eax, 4
  001a4	b9 00 00 00 00	 mov	 ecx, OFFSET ?g_dpDBClient@@3VCDPDatabaseClient@@A ; g_dpDBClient
  001a9	50		 push	 eax
  001aa	6a 00		 push	 0
  001ac	8d 85 40 ff ff
	ff		 lea	 eax, DWORD PTR _itemElem$3[ebp]
  001b2	50		 push	 eax
  001b3	6a 00		 push	 0
  001b5	ff b6 34 02 00
	00		 push	 DWORD PTR [esi+564]
  001bb	e8 00 00 00 00	 call	 ?SendQueryPostMail@CDPDatabaseClient@@QAEXKKAAVCItemElem@@HPAD1@Z ; CDPDatabaseClient::SendQueryPostMail

; 190  : 			pUser->AddDefinedText( TID_GAME_MINIGAME_ITEM_POST, "" );

  001c0	68 00 00 00 00	 push	 OFFSET ??_C@_00CNPNBAHC@@
  001c5	68 6b 0c 00 00	 push	 3179			; 00000c6bH
  001ca	56		 push	 esi
  001cb	e8 00 00 00 00	 call	 ?AddDefinedText@CUser@@QAAXHPBDZZ ; CUser::AddDefinedText
  001d0	83 c4 0c	 add	 esp, 12			; 0000000cH
$LN7@ResultItem:

; 191  : 		}
; 192  : 		aLogItem.Action = "+";
; 193  : 		aLogItem.SendName = pUser->GetName();

  001d3	6a 00		 push	 0
  001d5	8b ce		 mov	 ecx, esi
  001d7	c7 85 78 fe ff
	ff 00 00 00 00	 mov	 DWORD PTR _aLogItem$2[ebp], OFFSET ??_C@_01MIFGBAGJ@?$CL@
  001e1	e8 00 00 00 00	 call	 ?GetName@CMover@@QAEPBDH@Z ; CMover::GetName
  001e6	89 85 7c fe ff
	ff		 mov	 DWORD PTR _aLogItem$2[ebp+4], eax

; 194  : 		aLogItem.Gold = aLogItem.Gold2 = pUser->GetGold();
; 195  : 		aLogItem.WorldId = pUser->GetWorld()->GetID();
; 196  : 		g_DPSrvr.OnLogItem( aLogItem, &itemElem, Kawibawibo.nItemCount );

  001ec	b9 00 00 00 00	 mov	 ecx, OFFSET ?g_DPSrvr@@3VCDPSrvr@@A ; g_DPSrvr
  001f1	8b 86 e0 14 00
	00		 mov	 eax, DWORD PTR [esi+5344]
  001f7	89 85 8c fe ff
	ff		 mov	 DWORD PTR _aLogItem$2[ebp+20], eax
  001fd	89 85 88 fe ff
	ff		 mov	 DWORD PTR _aLogItem$2[ebp+16], eax
  00203	8b 86 6c 01 00
	00		 mov	 eax, DWORD PTR [esi+364]
  00209	53		 push	 ebx
  0020a	8b 00		 mov	 eax, DWORD PTR [eax]
  0020c	89 85 84 fe ff
	ff		 mov	 DWORD PTR _aLogItem$2[ebp+12], eax
  00212	8d 85 40 ff ff
	ff		 lea	 eax, DWORD PTR _itemElem$3[ebp]
  00218	50		 push	 eax
  00219	8d 85 78 fe ff
	ff		 lea	 eax, DWORD PTR _aLogItem$2[ebp]
  0021f	50		 push	 eax
  00220	e8 00 00 00 00	 call	 ?OnLogItem@CDPSrvr@@QAEXAAU_LogItemInfo@@PAVCItemElem@@H@Z ; CDPSrvr::OnLogItem

; 197  : 	}

  00225	8d 8d 40 ff ff
	ff		 lea	 ecx, DWORD PTR _itemElem$3[ebp]
  0022b	e8 00 00 00 00	 call	 ??1CItemElem@@UAE@XZ	; CItemElem::~CItemElem
$LN3@ResultItem:

; 198  : 	return TRUE;

  00230	b8 01 00 00 00	 mov	 eax, 1
$LN1@ResultItem:

; 199  : }

  00235	8b 4d f4	 mov	 ecx, DWORD PTR __$EHRec$[ebp]
  00238	64 89 0d 00 00
	00 00		 mov	 DWORD PTR fs:0, ecx
  0023f	59		 pop	 ecx
  00240	5f		 pop	 edi
  00241	5e		 pop	 esi
  00242	5b		 pop	 ebx
  00243	8b 4d f0	 mov	 ecx, DWORD PTR __$ArrayPad$[ebp]
  00246	33 cd		 xor	 ecx, ebp
  00248	e8 00 00 00 00	 call	 @__security_check_cookie@4
  0024d	8b e5		 mov	 esp, ebp
  0024f	5d		 pop	 ebp
  00250	c2 04 00	 ret	 4
_TEXT	ENDS
;	COMDAT text$x
text$x	SEGMENT
__unwindfunclet$?ResultItem_Kawibawibo@CMiniGame@@QAEHPAVCUser@@@Z$0:
  00000	8d 8d 40 ff ff
	ff		 lea	 ecx, DWORD PTR _itemElem$3[ebp]
  00006	e9 00 00 00 00	 jmp	 ??1CItemElem@@UAE@XZ	; CItemElem::~CItemElem
  0000b	cc		 int	 3
  0000c	cc		 int	 3
  0000d	cc		 int	 3
  0000e	cc		 int	 3
  0000f	cc		 int	 3
__ehhandler$?ResultItem_Kawibawibo@CMiniGame@@QAEHPAVCUser@@@Z:
  00010	90		 npad	 1
  00011	90		 npad	 1
  00012	8b 54 24 08	 mov	 edx, DWORD PTR [esp+8]
  00016	8d 42 0c	 lea	 eax, DWORD PTR [edx+12]
  00019	8b 8a 60 fe ff
	ff		 mov	 ecx, DWORD PTR [edx-416]
  0001f	33 c8		 xor	 ecx, eax
  00021	e8 00 00 00 00	 call	 @__security_check_cookie@4
  00026	8b 4a fc	 mov	 ecx, DWORD PTR [edx-4]
  00029	33 c8		 xor	 ecx, eax
  0002b	e8 00 00 00 00	 call	 @__security_check_cookie@4
  00030	b8 00 00 00 00	 mov	 eax, OFFSET __ehfuncinfo$?ResultItem_Kawibawibo@CMiniGame@@QAEHPAVCUser@@@Z
  00035	e9 00 00 00 00	 jmp	 ___CxxFrameHandler3
text$x	ENDS
?ResultItem_Kawibawibo@CMiniGame@@QAEHPAVCUser@@@Z ENDP	; CMiniGame::ResultItem_Kawibawibo
; Function compile flags: /Ogtp
; File C:\IAGOS\server\v18\Source\Source\_Common\MiniGame.cpp
; File C:\IAGOS\server\v18\Source\Source\_Common\xUtil.h
; File C:\IAGOS\server\v18\Source\Source\_Common\MiniGame.cpp
; File C:\IAGOS\server\v18\Source\Source\_Common\xUtil.h
; File C:\IAGOS\server\v18\Source\Source\_Common\MiniGame.cpp
;	COMDAT ?Result_Kawibawibo@CMiniGame@@QAEHPAVCUser@@@Z
_TEXT	SEGMENT
_Kawibawibo$ = -428					; size = 20
_pItemElem$ = -408					; size = 4
_aLogItem$1 = -404					; size = 200
_aLogItem$2 = -204					; size = 200
_aLogItem$3 = -204					; size = 200
_aLogItem$4 = -204					; size = 200
__$ArrayPad$ = -4					; size = 4
_pUser$ = 8						; size = 4
?Result_Kawibawibo@CMiniGame@@QAEHPAVCUser@@@Z PROC	; CMiniGame::Result_Kawibawibo, COMDAT
; _this$ = ecx

; 75   : {

  00000	55		 push	 ebp
  00001	8b ec		 mov	 ebp, esp
  00003	81 ec ac 01 00
	00		 sub	 esp, 428		; 000001acH
  00009	a1 00 00 00 00	 mov	 eax, DWORD PTR ___security_cookie
  0000e	33 c5		 xor	 eax, ebp
  00010	89 45 fc	 mov	 DWORD PTR __$ArrayPad$[ebp], eax
  00013	53		 push	 ebx
  00014	56		 push	 esi
  00015	8b 75 08	 mov	 esi, DWORD PTR _pUser$[ebp]
  00018	8b d9		 mov	 ebx, ecx
  0001a	57		 push	 edi

; 76   : 	CItemElem* pItemElem;
; 77   : 	if( pUser->m_nKawibawiboState != KAWIBAWIBO_DRAW && pUser->m_nKawibawiboState != KAWIBAWIBO_WIN )

  0001b	8b 86 f8 8e 00
	00		 mov	 eax, DWORD PTR [esi+36600]
  00021	83 f8 02	 cmp	 eax, 2
  00024	74 3b		 je	 SHORT $LN16@Result_Kaw
  00026	85 c0		 test	 eax, eax
  00028	74 37		 je	 SHORT $LN16@Result_Kaw

; 78   : 	{
; 79   : 		pItemElem	= (CItemElem*)pUser->m_Inventory.GetAtItemId( II_SYS_SYS_EVE_KAWIBAWIBO );

  0002a	68 3e 67 00 00	 push	 26430			; 0000673eH
  0002f	8d 8e fc 0a 00
	00		 lea	 ecx, DWORD PTR [esi+2812]
  00035	e8 00 00 00 00	 call	 ?GetAtItemId@?$CItemContainer@VCItemElem@@@@QAEPAVCItemElem@@K@Z ; CItemContainer<CItemElem>::GetAtItemId
  0003a	8b f8		 mov	 edi, eax

; 80   : 		if( IsUsableItem( pItemElem ) == FALSE )

  0003c	57		 push	 edi
  0003d	e8 00 00 00 00	 call	 ?IsUsableItem@@YAHPAVCItemBase@@@Z ; IsUsableItem
  00042	83 c4 04	 add	 esp, 4
  00045	85 c0		 test	 eax, eax
  00047	75 1e		 jne	 SHORT $LN3@Result_Kaw
$LN4@Result_Kaw:
  00049	5f		 pop	 edi

; 151  : 		return KAWIBAWIBO_WIN;
; 152  : 	}
; 153  : 	return KAWIBAWIBO_FAILED;
; 154  : }

  0004a	5e		 pop	 esi
  0004b	b8 03 00 00 00	 mov	 eax, 3
  00050	5b		 pop	 ebx
  00051	8b 4d fc	 mov	 ecx, DWORD PTR __$ArrayPad$[ebp]
  00054	33 cd		 xor	 ecx, ebp
  00056	e8 00 00 00 00	 call	 @__security_check_cookie@4
  0005b	8b e5		 mov	 esp, ebp
  0005d	5d		 pop	 ebp
  0005e	c2 04 00	 ret	 4
$LN16@Result_Kaw:

; 76   : 	CItemElem* pItemElem;
; 77   : 	if( pUser->m_nKawibawiboState != KAWIBAWIBO_DRAW && pUser->m_nKawibawiboState != KAWIBAWIBO_WIN )

  00061	8b bd 68 fe ff
	ff		 mov	 edi, DWORD PTR _pItemElem$[ebp]
$LN3@Result_Kaw:

; 81   : 			return KAWIBAWIBO_FAILED;
; 82   : 	}
; 83   : 
; 84   : 	__KAWIBAWIBO Kawibawibo = FindKawibawibo( pUser->m_nKawibawiboWin );

  00067	ff b6 f4 8e 00
	00		 push	 DWORD PTR [esi+36596]
  0006d	8d 85 54 fe ff
	ff		 lea	 eax, DWORD PTR _Kawibawibo$[ebp]
  00073	8b cb		 mov	 ecx, ebx
  00075	50		 push	 eax
  00076	e8 00 00 00 00	 call	 ?FindKawibawibo@CMiniGame@@QAE?AU__KAWIBAWIBO@1@H@Z ; CMiniGame::FindKawibawibo

; 85   : 
; 86   : 	if( Kawibawibo.nItemCount != 0 )	// ľĆŔĚĹŰ °ąĽö´Â 0ŔĎĽö ľřŔ˝

  0007b	83 bd 64 fe ff
	ff 00		 cmp	 DWORD PTR _Kawibawibo$[ebp+16], 0
  00082	74 c5		 je	 SHORT $LN4@Result_Kaw

; 87   : 	{
; 88   : 		if( pUser->m_nKawibawiboState != KAWIBAWIBO_DRAW && pUser->m_nKawibawiboState != KAWIBAWIBO_WIN )

  00084	8b 86 f8 8e 00
	00		 mov	 eax, DWORD PTR [esi+36600]
  0008a	83 f8 02	 cmp	 eax, 2
  0008d	74 74		 je	 SHORT $LN5@Result_Kaw
  0008f	85 c0		 test	 eax, eax
  00091	74 70		 je	 SHORT $LN5@Result_Kaw

; 89   : 		{
; 90   : 			LogItemInfo aLogItem;

  00093	8d 8d 34 ff ff
	ff		 lea	 ecx, DWORD PTR _aLogItem$2[ebp]
  00099	e8 00 00 00 00	 call	 ??0_LogItemInfo@@QAE@XZ	; _LogItemInfo::_LogItemInfo

; 91   : 			aLogItem.Action = "+";
; 92   : 			aLogItem.SendName = pUser->GetName();

  0009e	6a 00		 push	 0
  000a0	8b ce		 mov	 ecx, esi
  000a2	c7 85 34 ff ff
	ff 00 00 00 00	 mov	 DWORD PTR _aLogItem$2[ebp], OFFSET ??_C@_01MIFGBAGJ@?$CL@
  000ac	e8 00 00 00 00	 call	 ?GetName@CMover@@QAEPBDH@Z ; CMover::GetName
  000b1	89 85 38 ff ff
	ff		 mov	 DWORD PTR _aLogItem$2[ebp+4], eax

; 93   : 			aLogItem.WorldId = pUser->GetWorld()->GetID();
; 94   : 			aLogItem.Gold = aLogItem.Gold2 = pUser->GetGold();
; 95   : 			aLogItem.RecvName = "KAWIBAWIBO_USE_ITEM";
; 96   : 			g_DPSrvr.OnLogItem( aLogItem, pItemElem, 1 );

  000b7	b9 00 00 00 00	 mov	 ecx, OFFSET ?g_DPSrvr@@3VCDPSrvr@@A ; g_DPSrvr
  000bc	8b 86 6c 01 00
	00		 mov	 eax, DWORD PTR [esi+364]
  000c2	6a 01		 push	 1
  000c4	57		 push	 edi
  000c5	8b 00		 mov	 eax, DWORD PTR [eax]
  000c7	89 85 40 ff ff
	ff		 mov	 DWORD PTR _aLogItem$2[ebp+12], eax
  000cd	8b 86 e0 14 00
	00		 mov	 eax, DWORD PTR [esi+5344]
  000d3	89 85 48 ff ff
	ff		 mov	 DWORD PTR _aLogItem$2[ebp+20], eax
  000d9	89 85 44 ff ff
	ff		 mov	 DWORD PTR _aLogItem$2[ebp+16], eax
  000df	8d 85 34 ff ff
	ff		 lea	 eax, DWORD PTR _aLogItem$2[ebp]
  000e5	50		 push	 eax
  000e6	c7 85 3c ff ff
	ff 00 00 00 00	 mov	 DWORD PTR _aLogItem$2[ebp+8], OFFSET ??_C@_0BE@HNMAKIIG@KAWIBAWIBO_USE_ITEM@
  000f0	e8 00 00 00 00	 call	 ?OnLogItem@CDPSrvr@@QAEXAAU_LogItemInfo@@PAVCItemElem@@H@Z ; CDPSrvr::OnLogItem

; 97   : 
; 98   : 			pUser->RemoveItem( (BYTE)( pItemElem->m_dwObjId ), (short)1 );		// °ˇŔ§ąŮŔ§ş¸ ÄíĆů ľĆŔĚĹŰ »čÁ¦

  000f5	0f b6 47 04	 movzx	 eax, BYTE PTR [edi+4]
  000f9	8b ce		 mov	 ecx, esi
  000fb	6a 01		 push	 1
  000fd	50		 push	 eax
  000fe	e8 00 00 00 00	 call	 ?RemoveItem@CMover@@QAEXEF@Z ; CMover::RemoveItem
$LN5@Result_Kaw:

; 99   : 		}
; 100  : 
; 101  : 		// ż¬˝Â ĂÖ´ëÄˇ¸¦ łŃľúŔ» ¶§ ĆĐ Ăł¸®
; 102  : 		if( pUser->m_nKawibawiboWin >= nKawiBawiBo_MaxWin )

  00103	8b 86 f4 8e 00
	00		 mov	 eax, DWORD PTR [esi+36596]
  00109	3b 43 14	 cmp	 eax, DWORD PTR [ebx+20]
  0010c	0f 8c 85 00 00
	00		 jl	 $LN6@Result_Kaw
$LN25@Result_Kaw:

; 151  : 		return KAWIBAWIBO_WIN;
; 152  : 	}
; 153  : 	return KAWIBAWIBO_FAILED;
; 154  : }

  00112	8d 8d 34 ff ff
	ff		 lea	 ecx, DWORD PTR _aLogItem$3[ebp]
  00118	c7 86 f4 8e 00
	00 00 00 00 00	 mov	 DWORD PTR [esi+36596], 0
  00122	e8 00 00 00 00	 call	 ??0_LogItemInfo@@QAE@XZ	; _LogItemInfo::_LogItemInfo
  00127	6a 00		 push	 0
  00129	8b ce		 mov	 ecx, esi
  0012b	c7 85 34 ff ff
	ff 00 00 00 00	 mov	 DWORD PTR _aLogItem$3[ebp], OFFSET ??_C@_01MIFGBAGJ@?$CL@
  00135	e8 00 00 00 00	 call	 ?GetName@CMover@@QAEPBDH@Z ; CMover::GetName
  0013a	89 85 38 ff ff
	ff		 mov	 DWORD PTR _aLogItem$3[ebp+4], eax
  00140	b9 00 00 00 00	 mov	 ecx, OFFSET ?g_DPSrvr@@3VCDPSrvr@@A ; g_DPSrvr
  00145	8b 86 6c 01 00
	00		 mov	 eax, DWORD PTR [esi+364]
  0014b	6a 00		 push	 0
  0014d	6a 00		 push	 0
  0014f	8b 00		 mov	 eax, DWORD PTR [eax]
  00151	89 85 40 ff ff
	ff		 mov	 DWORD PTR _aLogItem$3[ebp+12], eax
  00157	8b 86 e0 14 00
	00		 mov	 eax, DWORD PTR [esi+5344]
  0015d	89 85 48 ff ff
	ff		 mov	 DWORD PTR _aLogItem$3[ebp+20], eax
  00163	89 85 44 ff ff
	ff		 mov	 DWORD PTR _aLogItem$3[ebp+16], eax
  00169	8d 85 34 ff ff
	ff		 lea	 eax, DWORD PTR _aLogItem$3[ebp]
  0016f	50		 push	 eax
  00170	c7 85 3c ff ff
	ff 00 00 00 00	 mov	 DWORD PTR _aLogItem$3[ebp+8], OFFSET ??_C@_0BA@EECCHLPD@KAWIBAWIBO_LOST@
  0017a	e8 00 00 00 00	 call	 ?OnLogItem@CDPSrvr@@QAEXAAU_LogItemInfo@@PAVCItemElem@@H@Z ; CDPSrvr::OnLogItem
  0017f	5f		 pop	 edi
  00180	5e		 pop	 esi
  00181	b8 01 00 00 00	 mov	 eax, 1
  00186	5b		 pop	 ebx
  00187	8b 4d fc	 mov	 ecx, DWORD PTR __$ArrayPad$[ebp]
  0018a	33 cd		 xor	 ecx, ebp
  0018c	e8 00 00 00 00	 call	 @__security_check_cookie@4
  00191	8b e5		 mov	 esp, ebp
  00193	5d		 pop	 ebp
  00194	c2 04 00	 ret	 4
$LN6@Result_Kaw:
; File C:\IAGOS\server\v18\Source\Source\_Common\xUtil.h

; 16   : 	g_next = g_next * 1103515245 + 12345;// + nRandomSeed[ i++ ];

  00197	69 0d 00 00 00
	00 6d 4e c6 41	 imul	 ecx, DWORD PTR ?g_next@@3KA, 1103515245 ; g_next

; 22   : 	return  xRand() % num;

  001a1	b8 83 de 1b 43	 mov	 eax, 1125899907		; 431bde83H

; 16   : 	g_next = g_next * 1103515245 + 12345;// + nRandomSeed[ i++ ];

  001a6	81 c1 39 30 00
	00		 add	 ecx, 12345		; 00003039H

; 22   : 	return  xRand() % num;

  001ac	f7 e1		 mul	 ecx

; 16   : 	g_next = g_next * 1103515245 + 12345;// + nRandomSeed[ i++ ];

  001ae	89 0d 00 00 00
	00		 mov	 DWORD PTR ?g_next@@3KA, ecx ; g_next

; 22   : 	return  xRand() % num;

  001b4	c1 ea 12	 shr	 edx, 18			; 00000012H
  001b7	69 c2 40 42 0f
	00		 imul	 eax, edx, 1000000
; File C:\IAGOS\server\v18\Source\Source\_Common\MiniGame.cpp

; 117  : 		if( (DWORD)( nRandom ) < Kawibawibo.dwDraw )	// Draw

  001bd	8b 95 54 fe ff
	ff		 mov	 edx, DWORD PTR _Kawibawibo$[ebp]
; File C:\IAGOS\server\v18\Source\Source\_Common\xUtil.h

; 22   : 	return  xRand() % num;

  001c3	2b c8		 sub	 ecx, eax
; File C:\IAGOS\server\v18\Source\Source\_Common\MiniGame.cpp

; 117  : 		if( (DWORD)( nRandom ) < Kawibawibo.dwDraw )	// Draw

  001c5	3b ca		 cmp	 ecx, edx
  001c7	73 7b		 jae	 SHORT $LN7@Result_Kaw

; 118  : 		{
; 119  : 			LogItemInfo aLogItem;

  001c9	8d 8d 34 ff ff
	ff		 lea	 ecx, DWORD PTR _aLogItem$4[ebp]
  001cf	e8 00 00 00 00	 call	 ??0_LogItemInfo@@QAE@XZ	; _LogItemInfo::_LogItemInfo

; 120  : 			aLogItem.Action = "+";
; 121  : 			aLogItem.SendName = pUser->GetName();

  001d4	6a 00		 push	 0
  001d6	8b ce		 mov	 ecx, esi
  001d8	c7 85 34 ff ff
	ff 00 00 00 00	 mov	 DWORD PTR _aLogItem$4[ebp], OFFSET ??_C@_01MIFGBAGJ@?$CL@
  001e2	e8 00 00 00 00	 call	 ?GetName@CMover@@QAEPBDH@Z ; CMover::GetName
  001e7	89 85 38 ff ff
	ff		 mov	 DWORD PTR _aLogItem$4[ebp+4], eax

; 122  : 			aLogItem.WorldId = pUser->GetWorld()->GetID();
; 123  : 			aLogItem.Gold = aLogItem.Gold2 = pUser->GetGold();
; 124  : 			aLogItem.RecvName = "KAWIBAWIBO_DRAW";
; 125  : 			g_DPSrvr.OnLogItem( aLogItem );

  001ed	b9 00 00 00 00	 mov	 ecx, OFFSET ?g_DPSrvr@@3VCDPSrvr@@A ; g_DPSrvr
  001f2	8b 86 6c 01 00
	00		 mov	 eax, DWORD PTR [esi+364]
  001f8	6a 00		 push	 0
  001fa	6a 00		 push	 0
  001fc	8b 00		 mov	 eax, DWORD PTR [eax]
  001fe	89 85 40 ff ff
	ff		 mov	 DWORD PTR _aLogItem$4[ebp+12], eax
  00204	8b 86 e0 14 00
	00		 mov	 eax, DWORD PTR [esi+5344]
  0020a	89 85 48 ff ff
	ff		 mov	 DWORD PTR _aLogItem$4[ebp+20], eax
  00210	89 85 44 ff ff
	ff		 mov	 DWORD PTR _aLogItem$4[ebp+16], eax
  00216	8d 85 34 ff ff
	ff		 lea	 eax, DWORD PTR _aLogItem$4[ebp]
  0021c	50		 push	 eax
  0021d	c7 85 3c ff ff
	ff 00 00 00 00	 mov	 DWORD PTR _aLogItem$4[ebp+8], OFFSET ??_C@_0BA@OCKOJLKN@KAWIBAWIBO_DRAW@
  00227	e8 00 00 00 00	 call	 ?OnLogItem@CDPSrvr@@QAEXAAU_LogItemInfo@@PAVCItemElem@@H@Z ; CDPSrvr::OnLogItem
  0022c	5f		 pop	 edi

; 151  : 		return KAWIBAWIBO_WIN;
; 152  : 	}
; 153  : 	return KAWIBAWIBO_FAILED;
; 154  : }

  0022d	5e		 pop	 esi
  0022e	b8 02 00 00 00	 mov	 eax, 2
  00233	5b		 pop	 ebx
  00234	8b 4d fc	 mov	 ecx, DWORD PTR __$ArrayPad$[ebp]
  00237	33 cd		 xor	 ecx, ebp
  00239	e8 00 00 00 00	 call	 @__security_check_cookie@4
  0023e	8b e5		 mov	 esp, ebp
  00240	5d		 pop	 ebp
  00241	c2 04 00	 ret	 4
$LN7@Result_Kaw:

; 126  : 			return KAWIBAWIBO_DRAW;
; 127  : 		}
; 128  : 		// ÁłŔ» ¶§
; 129  : 		else if( (DWORD)( nRandom ) < Kawibawibo.dwDraw + Kawibawibo.dwLost ) // Lost

  00244	8b 85 58 fe ff
	ff		 mov	 eax, DWORD PTR _Kawibawibo$[ebp+4]
  0024a	03 c2		 add	 eax, edx
  0024c	3b c8		 cmp	 ecx, eax
  0024e	0f 82 be fe ff
	ff		 jb	 $LN25@Result_Kaw

; 130  : 		{
; 131  : 			pUser->m_nKawibawiboWin = 0;
; 132  : 			LogItemInfo aLogItem;
; 133  : 			aLogItem.Action = "+";
; 134  : 			aLogItem.SendName = pUser->GetName();
; 135  : 			aLogItem.WorldId = pUser->GetWorld()->GetID();
; 136  : 			aLogItem.Gold = aLogItem.Gold2 = pUser->GetGold();
; 137  : 			aLogItem.RecvName = "KAWIBAWIBO_LOST";
; 138  : 			g_DPSrvr.OnLogItem( aLogItem );
; 139  : 			return KAWIBAWIBO_LOST;
; 140  : 		}
; 141  : 		// ŔĚ°ĺŔ» ¶§
; 142  : 		++pUser->m_nKawibawiboWin;

  00254	ff 86 f4 8e 00
	00		 inc	 DWORD PTR [esi+36596]

; 143  : 		LogItemInfo aLogItem;

  0025a	8d 8d 6c fe ff
	ff		 lea	 ecx, DWORD PTR _aLogItem$1[ebp]
  00260	e8 00 00 00 00	 call	 ??0_LogItemInfo@@QAE@XZ	; _LogItemInfo::_LogItemInfo

; 144  : 		aLogItem.Action = "+";
; 145  : 		aLogItem.SendName = pUser->GetName();

  00265	6a 00		 push	 0
  00267	8b ce		 mov	 ecx, esi
  00269	c7 85 6c fe ff
	ff 00 00 00 00	 mov	 DWORD PTR _aLogItem$1[ebp], OFFSET ??_C@_01MIFGBAGJ@?$CL@
  00273	e8 00 00 00 00	 call	 ?GetName@CMover@@QAEPBDH@Z ; CMover::GetName
  00278	89 85 70 fe ff
	ff		 mov	 DWORD PTR _aLogItem$1[ebp+4], eax

; 146  : 		aLogItem.WorldId = pUser->GetWorld()->GetID();
; 147  : 		aLogItem.Gold = aLogItem.Gold2 = pUser->GetGold();
; 148  : 		aLogItem.RecvName = "KAWIBAWIBO_WIN";
; 149  : 		aLogItem.Gold_1 = pUser->m_nKawibawiboWin;
; 150  : 		g_DPSrvr.OnLogItem( aLogItem );

  0027e	b9 00 00 00 00	 mov	 ecx, OFFSET ?g_DPSrvr@@3VCDPSrvr@@A ; g_DPSrvr
  00283	8b 86 6c 01 00
	00		 mov	 eax, DWORD PTR [esi+364]
  00289	6a 00		 push	 0
  0028b	6a 00		 push	 0
  0028d	8b 00		 mov	 eax, DWORD PTR [eax]
  0028f	89 85 78 fe ff
	ff		 mov	 DWORD PTR _aLogItem$1[ebp+12], eax
  00295	8b 86 e0 14 00
	00		 mov	 eax, DWORD PTR [esi+5344]
  0029b	89 85 80 fe ff
	ff		 mov	 DWORD PTR _aLogItem$1[ebp+20], eax
  002a1	89 85 7c fe ff
	ff		 mov	 DWORD PTR _aLogItem$1[ebp+16], eax
  002a7	8b 86 f4 8e 00
	00		 mov	 eax, DWORD PTR [esi+36596]
  002ad	89 85 b8 fe ff
	ff		 mov	 DWORD PTR _aLogItem$1[ebp+76], eax
  002b3	8d 85 6c fe ff
	ff		 lea	 eax, DWORD PTR _aLogItem$1[ebp]
  002b9	50		 push	 eax
  002ba	c7 85 74 fe ff
	ff 00 00 00 00	 mov	 DWORD PTR _aLogItem$1[ebp+8], OFFSET ??_C@_0P@DGKJNFLB@KAWIBAWIBO_WIN@
  002c4	e8 00 00 00 00	 call	 ?OnLogItem@CDPSrvr@@QAEXAAU_LogItemInfo@@PAVCItemElem@@H@Z ; CDPSrvr::OnLogItem

; 151  : 		return KAWIBAWIBO_WIN;
; 152  : 	}
; 153  : 	return KAWIBAWIBO_FAILED;
; 154  : }

  002c9	8b 4d fc	 mov	 ecx, DWORD PTR __$ArrayPad$[ebp]
  002cc	33 c0		 xor	 eax, eax
  002ce	5f		 pop	 edi
  002cf	5e		 pop	 esi
  002d0	33 cd		 xor	 ecx, ebp
  002d2	5b		 pop	 ebx
  002d3	e8 00 00 00 00	 call	 @__security_check_cookie@4
  002d8	8b e5		 mov	 esp, ebp
  002da	5d		 pop	 ebp
  002db	c2 04 00	 ret	 4
?Result_Kawibawibo@CMiniGame@@QAEHPAVCUser@@@Z ENDP	; CMiniGame::Result_Kawibawibo
_TEXT	ENDS
; Function compile flags: /Ogtp
; File C:\IAGOS\server\v18\Source\Source\_Common\MiniGame.cpp
; File C:\Program Files\Microsoft Visual Studio\2022\Professional\VC\Tools\MSVC\14.44.35207\include\vector
; File C:\IAGOS\server\v18\Source\Source\_Common\MiniGame.cpp
; File C:\Program Files\Microsoft Visual Studio\2022\Professional\VC\Tools\MSVC\14.44.35207\include\vector
; File C:\IAGOS\server\v18\Source\Source\_Common\MiniGame.cpp
; File C:\Program Files\Microsoft Visual Studio\2022\Professional\VC\Tools\MSVC\14.44.35207\include\vector
; File C:\IAGOS\server\v18\Source\Source\_Common\MiniGame.cpp
; File C:\Program Files\Microsoft Visual Studio\2022\Professional\VC\Tools\MSVC\14.44.35207\include\vector
; File C:\IAGOS\server\v18\Source\Source\_Common\MiniGame.cpp
; File C:\Program Files\Microsoft Visual Studio\2022\Professional\VC\Tools\MSVC\14.44.35207\include\vector
; File C:\IAGOS\server\v18\Source\Source\_Common\MiniGame.cpp
;	COMDAT ?GetKawibawiboYou@CMiniGame@@QAEHHH@Z
_TEXT	SEGMENT
_nMy$ = 8						; size = 4
_nResult$ = 12						; size = 4
?GetKawibawiboYou@CMiniGame@@QAEHHH@Z PROC		; CMiniGame::GetKawibawiboYou, COMDAT
; _this$ = ecx

; 635  : {

  00000	55		 push	 ebp
  00001	8b ec		 mov	 ebp, esp
  00003	53		 push	 ebx
  00004	8b d9		 mov	 ebx, ecx
; File C:\Program Files\Microsoft Visual Studio\2022\Professional\VC\Tools\MSVC\14.44.35207\include\vector

; 1915 :         return static_cast<size_type>(_My_data._Mylast - _My_data._Myfirst);

  00006	b8 ab aa aa 2a	 mov	 eax, 715827883		; 2aaaaaabH
; File C:\IAGOS\server\v18\Source\Source\_Common\MiniGame.cpp

; 635  : {

  0000b	56		 push	 esi
  0000c	57		 push	 edi

; 636  : 	for( DWORD i = 0 ; i < m_vecKawibawiboResult.size() ; ++i )

  0000d	33 ff		 xor	 edi, edi
; File C:\Program Files\Microsoft Visual Studio\2022\Professional\VC\Tools\MSVC\14.44.35207\include\vector

; 1915 :         return static_cast<size_type>(_My_data._Mylast - _My_data._Myfirst);

  0000f	8b 53 50	 mov	 edx, DWORD PTR [ebx+80]
  00012	8b 73 4c	 mov	 esi, DWORD PTR [ebx+76]
  00015	2b d6		 sub	 edx, esi
  00017	f7 ea		 imul	 edx
; File C:\IAGOS\server\v18\Source\Source\_Common\MiniGame.cpp

; 636  : 	for( DWORD i = 0 ; i < m_vecKawibawiboResult.size() ; ++i )

  00019	8b 45 08	 mov	 eax, DWORD PTR _nMy$[ebp]
; File C:\Program Files\Microsoft Visual Studio\2022\Professional\VC\Tools\MSVC\14.44.35207\include\vector

; 1915 :         return static_cast<size_type>(_My_data._Mylast - _My_data._Myfirst);

  0001c	d1 fa		 sar	 edx, 1
  0001e	8b ca		 mov	 ecx, edx
  00020	c1 e9 1f	 shr	 ecx, 31			; 0000001fH
  00023	03 ca		 add	 ecx, edx
; File C:\IAGOS\server\v18\Source\Source\_Common\MiniGame.cpp

; 636  : 	for( DWORD i = 0 ; i < m_vecKawibawiboResult.size() ; ++i )

  00025	74 2b		 je	 SHORT $LN1@GetKawibaw
; File C:\Program Files\Microsoft Visual Studio\2022\Professional\VC\Tools\MSVC\14.44.35207\include\vector

; 1934 :         return _My_data._Myfirst[_Pos];

  00027	8b 55 0c	 mov	 edx, DWORD PTR _nResult$[ebp]
  0002a	66 0f 1f 44 00
	00		 npad	 6
$LL4@GetKawibaw:
; File C:\IAGOS\server\v18\Source\Source\_Common\MiniGame.cpp

; 638  : 		if( nMy == m_vecKawibawiboResult[i].nMy && nResult == m_vecKawibawiboResult[i].nResult )

  00030	3b 06		 cmp	 eax, DWORD PTR [esi]
  00032	75 05		 jne	 SHORT $LN2@GetKawibaw
  00034	3b 56 08	 cmp	 edx, DWORD PTR [esi+8]
  00037	74 0f		 je	 SHORT $LN20@GetKawibaw
$LN2@GetKawibaw:

; 636  : 	for( DWORD i = 0 ; i < m_vecKawibawiboResult.size() ; ++i )

  00039	47		 inc	 edi
  0003a	83 c6 0c	 add	 esi, 12			; 0000000cH
  0003d	3b f9		 cmp	 edi, ecx
  0003f	72 ef		 jb	 SHORT $LL4@GetKawibaw

; 640  : 	}
; 641  : 
; 642  : 	return nMy;
; 643  : }

  00041	5f		 pop	 edi
  00042	5e		 pop	 esi
  00043	5b		 pop	 ebx
  00044	5d		 pop	 ebp
  00045	c2 08 00	 ret	 8
$LN20@GetKawibaw:

; 639  : 			return m_vecKawibawiboResult[i].nYou;

  00048	8b 43 4c	 mov	 eax, DWORD PTR [ebx+76]
; File C:\Program Files\Microsoft Visual Studio\2022\Professional\VC\Tools\MSVC\14.44.35207\include\vector

; 1934 :         return _My_data._Myfirst[_Pos];

  0004b	8d 0c 7f	 lea	 ecx, DWORD PTR [edi+edi*2]
; File C:\IAGOS\server\v18\Source\Source\_Common\MiniGame.cpp

; 639  : 			return m_vecKawibawiboResult[i].nYou;

  0004e	8b 44 88 04	 mov	 eax, DWORD PTR [eax+ecx*4+4]
$LN1@GetKawibaw:

; 640  : 	}
; 641  : 
; 642  : 	return nMy;
; 643  : }

  00052	5f		 pop	 edi
  00053	5e		 pop	 esi
  00054	5b		 pop	 ebx
  00055	5d		 pop	 ebp
  00056	c2 08 00	 ret	 8
?GetKawibawiboYou@CMiniGame@@QAEHHH@Z ENDP		; CMiniGame::GetKawibawiboYou
_TEXT	ENDS
; Function compile flags: /Ogtp
; File C:\IAGOS\server\v18\Source\Source\_Common\MiniGame.cpp
;	COMDAT ?GetCharacter@CMiniGame@@QAEDK@Z
_TEXT	SEGMENT
_ItemId$ = 8						; size = 4
?GetCharacter@CMiniGame@@QAEDK@Z PROC			; CMiniGame::GetCharacter, COMDAT
; _this$ = ecx

; 65   : {

  00000	55		 push	 ebp
  00001	8b ec		 mov	 ebp, esp

; 66   : 	int nchar = 0;
; 67   : 	if( II_SYS_SYS_EVE_A_CARD <= ItemId && ItemId <= II_SYS_SYS_EVE_Z_CARD )

  00003	8b 45 08	 mov	 eax, DWORD PTR _ItemId$[ebp]

; 68   : 		nchar = ItemId - II_SYS_SYS_EVE_A_CARD;
; 69   : 
; 70   : 	return ('A' + nchar);

  00006	33 d2		 xor	 edx, edx
  00008	8d 88 1e e7 ff
	ff		 lea	 ecx, DWORD PTR [eax-6370]
  0000e	04 1e		 add	 al, 30			; 0000001eH
  00010	83 f9 19	 cmp	 ecx, 25			; 00000019H
  00013	0f b6 c0	 movzx	 eax, al
  00016	0f 47 c2	 cmova	 eax, edx
  00019	04 41		 add	 al, 65			; 00000041H

; 71   : }

  0001b	5d		 pop	 ebp
  0001c	c2 04 00	 ret	 4
?GetCharacter@CMiniGame@@QAEDK@Z ENDP			; CMiniGame::GetCharacter
_TEXT	ENDS
; Function compile flags: /Ogtp
; File C:\IAGOS\server\v18\Source\Source\_Common\MiniGame.cpp
; File C:\Program Files\Microsoft Visual Studio\2022\Professional\VC\Tools\MSVC\14.44.35207\atlmfc\include\cstringt.h
; File C:\IAGOS\server\v18\Source\Source\_Common\MiniGame.cpp
; File C:\Program Files\Microsoft Visual Studio\2022\Professional\VC\Tools\MSVC\14.44.35207\include\vector
; File C:\IAGOS\server\v18\Source\Source\_Common\MiniGame.cpp
; File C:\Program Files\Microsoft Visual Studio\2022\Professional\VC\Tools\MSVC\14.44.35207\include\vector
; File C:\IAGOS\server\v18\Source\Source\_Common\MiniGame.cpp
; File C:\Program Files\Microsoft Visual Studio\2022\Professional\VC\Tools\MSVC\14.44.35207\atlmfc\include\cstringt.h
; File C:\IAGOS\server\v18\Source\Source\_Common\MiniGame.cpp
; File C:\Program Files\Microsoft Visual Studio\2022\Professional\VC\Tools\MSVC\14.44.35207\include\vector
; File C:\IAGOS\server\v18\Source\Source\_Common\MiniGame.cpp
; File C:\Program Files\Microsoft Visual Studio\2022\Professional\VC\Tools\MSVC\14.44.35207\include\vector
; File C:\Program Files\Microsoft Visual Studio\2022\Professional\VC\Tools\MSVC\14.44.35207\include\xutility
; File C:\Program Files\Microsoft Visual Studio\2022\Professional\VC\Tools\MSVC\14.44.35207\include\vector
; File C:\IAGOS\server\v18\Source\Source\_Common\MiniGame.cpp
;	COMDAT ?Load_Reassemble@CMiniGame@@QAEHXZ
_TEXT	SEGMENT
_ItemGame$2 = -2168					; size = 12
_dwCard$3 = -2156					; size = 4
_s$ = -2152						; size = 2136
__$ArrayPad$ = -16					; size = 4
__$EHRec$ = -12						; size = 12
?Load_Reassemble@CMiniGame@@QAEHXZ PROC			; CMiniGame::Load_Reassemble, COMDAT
; _this$ = ecx

; 802  : {

  00000	55		 push	 ebp
  00001	8b ec		 mov	 ebp, esp
  00003	6a ff		 push	 -1
  00005	68 00 00 00 00	 push	 __ehhandler$?Load_Reassemble@CMiniGame@@QAEHXZ
  0000a	64 a1 00 00 00
	00		 mov	 eax, DWORD PTR fs:0
  00010	50		 push	 eax
  00011	81 ec 6c 08 00
	00		 sub	 esp, 2156		; 0000086cH
  00017	a1 00 00 00 00	 mov	 eax, DWORD PTR ___security_cookie
  0001c	33 c5		 xor	 eax, ebp
  0001e	89 45 f0	 mov	 DWORD PTR __$ArrayPad$[ebp], eax
  00021	53		 push	 ebx
  00022	56		 push	 esi
  00023	57		 push	 edi
  00024	50		 push	 eax
  00025	8d 45 f4	 lea	 eax, DWORD PTR __$EHRec$[ebp]
  00028	64 a3 00 00 00
	00		 mov	 DWORD PTR fs:0, eax
  0002e	8b d9		 mov	 ebx, ecx

; 803  : 	CScanner s;

  00030	6a 00		 push	 0
  00032	8d 8d 98 f7 ff
	ff		 lea	 ecx, DWORD PTR _s$[ebp]
  00038	e8 00 00 00 00	 call	 ??0CScanner@@QAE@H@Z	; CScanner::CScanner

; 804  : 	
; 805  : 	if( !s.Load( "MiniGame_Reassemble.txt", 0 ) )

  0003d	6a 00		 push	 0
  0003f	68 00 00 00 00	 push	 OFFSET ??_C@_0BI@GPAPNBDC@MiniGame_Reassemble?4txt@
  00044	8d 8d 98 f7 ff
	ff		 lea	 ecx, DWORD PTR _s$[ebp]
  0004a	c7 45 fc 00 00
	00 00		 mov	 DWORD PTR __$EHRec$[ebp+8], 0
  00051	e8 00 00 00 00	 call	 ?Load@CScanner@@QAEHPBDH@Z ; CScanner::Load
  00056	85 c0		 test	 eax, eax
  00058	0f 84 c6 01 00
	00		 je	 $LN18@Load_Reass

; 806  : 		return FALSE;
; 807  : 
; 808  : 	s.GetToken();

  0005e	6a 00		 push	 0
  00060	8d 8d 98 f7 ff
	ff		 lea	 ecx, DWORD PTR _s$[ebp]
  00066	e8 00 00 00 00	 call	 ?GetToken@CScanner@@UAEHH@Z ; CScanner::GetToken

; 809  : 	
; 810  : 	
; 811  : 	while( s.tok != FINISHED )

  0006b	83 7d dc 15	 cmp	 DWORD PTR _s$[ebp+2116], 21 ; 00000015H
  0006f	0f 84 9b 01 00
	00		 je	 $LN85@Load_Reass
  00075	66 66 66 0f 1f
	84 00 00 00 00
	00		 npad	 11
$LL2@Load_Reass:
; File C:\Program Files\Microsoft Visual Studio\2022\Professional\VC\Tools\MSVC\14.44.35207\atlmfc\include\cstringt.h

; 184  : 		return _mbscmp( reinterpret_cast< const unsigned char* >( pszA ), reinterpret_cast< const unsigned char* >( pszB ) );

  00080	68 00 00 00 00	 push	 OFFSET ??_C@_04POALGFPM@CARD@
  00085	ff b5 b8 f7 ff
	ff		 push	 DWORD PTR _s$[ebp+32]
  0008b	e8 00 00 00 00	 call	 __mbscmp
  00090	83 c4 08	 add	 esp, 8

; 2490 : 		return(str1.Compare(psz2) == 0);

  00093	85 c0		 test	 eax, eax
; File C:\IAGOS\server\v18\Source\Source\_Common\MiniGame.cpp

; 813  : 		if( s.Token == _T( "CARD" ) )

  00095	0f 85 90 00 00
	00		 jne	 $LN52@Load_Reass

; 814  : 		{
; 815  : 			s.GetToken();	// {

  0009b	50		 push	 eax
  0009c	8d 8d 98 f7 ff
	ff		 lea	 ecx, DWORD PTR _s$[ebp]
  000a2	e8 00 00 00 00	 call	 ?GetToken@CScanner@@UAEHH@Z ; CScanner::GetToken

; 816  : 			s.GetToken();

  000a7	6a 00		 push	 0
  000a9	8d 8d 98 f7 ff
	ff		 lea	 ecx, DWORD PTR _s$[ebp]
  000af	e8 00 00 00 00	 call	 ?GetToken@CScanner@@UAEHH@Z ; CScanner::GetToken

; 817  : 			while( *s.token != '}' )

  000b4	8b 85 d4 f7 ff
	ff		 mov	 eax, DWORD PTR _s$[ebp+60]
  000ba	80 38 7d	 cmp	 BYTE PTR [eax], 125	; 0000007dH
  000bd	0f 84 36 01 00
	00		 je	 $LN7@Load_Reass
$LL4@Load_Reass:

; 818  : 			{
; 819  : 				DWORD dwCard = CScript::GetDefineNum( s.Token );

  000c3	ff b5 b8 f7 ff
	ff		 push	 DWORD PTR _s$[ebp+32]
  000c9	e8 00 00 00 00	 call	 ?GetDefineNum@CScript@@SAHPBD@Z ; CScript::GetDefineNum
  000ce	8b f0		 mov	 esi, eax
  000d0	83 c4 04	 add	 esp, 4
  000d3	89 b5 94 f7 ff
	ff		 mov	 DWORD PTR _dwCard$3[ebp], esi
  000d9	83 fe ff	 cmp	 esi, -1

; 820  : 				if( dwCard == -1 )

  000dc	0f 84 35 01 00
	00		 je	 $LN78@Load_Reass
; File C:\Program Files\Microsoft Visual Studio\2022\Professional\VC\Tools\MSVC\14.44.35207\include\vector

; 1915 :         return static_cast<size_type>(_My_data._Mylast - _My_data._Myfirst);

  000e2	8b 53 44	 mov	 edx, DWORD PTR [ebx+68]
  000e5	8d 4b 40	 lea	 ecx, DWORD PTR [ebx+64]
  000e8	8b c2		 mov	 eax, edx
  000ea	2b 01		 sub	 eax, DWORD PTR [ecx]
  000ec	c1 f8 02	 sar	 eax, 2
; File C:\IAGOS\server\v18\Source\Source\_Common\MiniGame.cpp

; 826  : 				if( m_vecReassembleCard.size() <= 9 )

  000ef	83 f8 09	 cmp	 eax, 9
  000f2	77 1a		 ja	 SHORT $LN42@Load_Reass
; File C:\Program Files\Microsoft Visual Studio\2022\Professional\VC\Tools\MSVC\14.44.35207\include\vector

; 844  :         if (_Mylast != _My_data._Myend) {

  000f4	3b 51 08	 cmp	 edx, DWORD PTR [ecx+8]
  000f7	74 08		 je	 SHORT $LN43@Load_Reass

; 860  :             _STD _Construct_in_place(*_Mylast, _STD forward<_Valty>(_Val)...);

  000f9	89 32		 mov	 DWORD PTR [edx], esi

; 869  :         ++_Mylast;

  000fb	83 41 04 04	 add	 DWORD PTR [ecx+4], 4

; 845  :             return _Emplace_back_with_unused_capacity(_STD forward<_Valty>(_Val)...);

  000ff	eb 0d		 jmp	 SHORT $LN42@Load_Reass
$LN43@Load_Reass:

; 846  :         }
; 847  : 
; 848  :         return *_Emplace_reallocate(_Mylast, _STD forward<_Valty>(_Val)...);

  00101	8d 85 94 f7 ff
	ff		 lea	 eax, DWORD PTR _dwCard$3[ebp]
  00107	50		 push	 eax
  00108	52		 push	 edx
  00109	e8 00 00 00 00	 call	 ??$_Emplace_reallocate@ABK@?$vector@KV?$allocator@K@std@@@std@@AAEPAKQAKABK@Z ; std::vector<unsigned long,std::allocator<unsigned long> >::_Emplace_reallocate<unsigned long const &>
$LN42@Load_Reass:
; File C:\IAGOS\server\v18\Source\Source\_Common\MiniGame.cpp

; 829  : 				s.GetToken();

  0010e	6a 00		 push	 0
  00110	8d 8d 98 f7 ff
	ff		 lea	 ecx, DWORD PTR _s$[ebp]
  00116	e8 00 00 00 00	 call	 ?GetToken@CScanner@@UAEHH@Z ; CScanner::GetToken
  0011b	8b 85 d4 f7 ff
	ff		 mov	 eax, DWORD PTR _s$[ebp+60]
  00121	80 38 7d	 cmp	 BYTE PTR [eax], 125	; 0000007dH
  00124	75 9d		 jne	 SHORT $LL4@Load_Reass

; 830  : 			}
; 831  : 		}

  00126	e9 ce 00 00 00	 jmp	 $LN7@Load_Reass
$LN52@Load_Reass:
; File C:\Program Files\Microsoft Visual Studio\2022\Professional\VC\Tools\MSVC\14.44.35207\atlmfc\include\cstringt.h

; 184  : 		return _mbscmp( reinterpret_cast< const unsigned char* >( pszA ), reinterpret_cast< const unsigned char* >( pszB ) );

  0012b	68 00 00 00 00	 push	 OFFSET ??_C@_04BLNHNEEM@ITEM@
  00130	ff b5 b8 f7 ff
	ff		 push	 DWORD PTR _s$[ebp+32]
  00136	e8 00 00 00 00	 call	 __mbscmp
  0013b	83 c4 08	 add	 esp, 8

; 2490 : 		return(str1.Compare(psz2) == 0);

  0013e	85 c0		 test	 eax, eax
; File C:\IAGOS\server\v18\Source\Source\_Common\MiniGame.cpp

; 832  : 		else if( s.Token == _T( "ITEM" ) )

  00140	0f 85 b3 00 00
	00		 jne	 $LN7@Load_Reass

; 833  : 		{
; 834  : 			s.GetToken();	// {

  00146	50		 push	 eax
  00147	8d 8d 98 f7 ff
	ff		 lea	 ecx, DWORD PTR _s$[ebp]
  0014d	e8 00 00 00 00	 call	 ?GetToken@CScanner@@UAEHH@Z ; CScanner::GetToken

; 835  : 			s.GetToken();	// {

  00152	6a 00		 push	 0
  00154	8d 8d 98 f7 ff
	ff		 lea	 ecx, DWORD PTR _s$[ebp]
  0015a	e8 00 00 00 00	 call	 ?GetToken@CScanner@@UAEHH@Z ; CScanner::GetToken

; 836  : 			while( *s.token != '}' )

  0015f	8b 85 d4 f7 ff
	ff		 mov	 eax, DWORD PTR _s$[ebp+60]
  00165	80 38 7d	 cmp	 BYTE PTR [eax], 125	; 0000007dH
  00168	0f 84 8b 00 00
	00		 je	 $LN7@Load_Reass
  0016e	66 90		 npad	 2
$LL6@Load_Reass:

; 837  : 			{
; 838  : 				__ITEMGAME	ItemGame;
; 839  : 				ItemGame.dwItemId = CScript::GetDefineNum( s.Token );

  00170	ff b5 b8 f7 ff
	ff		 push	 DWORD PTR _s$[ebp+32]
  00176	e8 00 00 00 00	 call	 ?GetDefineNum@CScript@@SAHPBD@Z ; CScript::GetDefineNum
  0017b	8b f0		 mov	 esi, eax
  0017d	83 c4 04	 add	 esp, 4
  00180	89 b5 88 f7 ff
	ff		 mov	 DWORD PTR _ItemGame$2[ebp], esi
  00186	83 fe ff	 cmp	 esi, -1

; 840  : 				if( ItemGame.dwItemId == -1 )

  00189	0f 84 c0 00 00
	00		 je	 $LN79@Load_Reass

; 843  : 					return FALSE;
; 844  : 				}
; 845  : 				ItemGame.nItemCount = s.GetNumber();

  0018f	6a 00		 push	 0
  00191	8d 8d 98 f7 ff
	ff		 lea	 ecx, DWORD PTR _s$[ebp]
  00197	e8 00 00 00 00	 call	 ?GetNumber@CScanner@@QAEHH@Z ; CScanner::GetNumber
  0019c	8b f8		 mov	 edi, eax

; 846  : 				ItemGame.dwPer = s.GetNumber();

  0019e	8d 8d 98 f7 ff
	ff		 lea	 ecx, DWORD PTR _s$[ebp]
  001a4	6a 00		 push	 0
  001a6	89 bd 8c f7 ff
	ff		 mov	 DWORD PTR _ItemGame$2[ebp+4], edi
  001ac	e8 00 00 00 00	 call	 ?GetNumber@CScanner@@QAEHH@Z ; CScanner::GetNumber
; File C:\Program Files\Microsoft Visual Studio\2022\Professional\VC\Tools\MSVC\14.44.35207\include\vector

; 844  :         if (_Mylast != _My_data._Myend) {

  001b1	8b 4b 38	 mov	 ecx, DWORD PTR [ebx+56]
; File C:\IAGOS\server\v18\Source\Source\_Common\MiniGame.cpp

; 846  : 				ItemGame.dwPer = s.GetNumber();

  001b4	89 85 90 f7 ff
	ff		 mov	 DWORD PTR _ItemGame$2[ebp+8], eax
; File C:\Program Files\Microsoft Visual Studio\2022\Professional\VC\Tools\MSVC\14.44.35207\include\vector

; 844  :         if (_Mylast != _My_data._Myend) {

  001ba	3b 4b 3c	 cmp	 ecx, DWORD PTR [ebx+60]
  001bd	74 0e		 je	 SHORT $LN68@Load_Reass
; File C:\Program Files\Microsoft Visual Studio\2022\Professional\VC\Tools\MSVC\14.44.35207\include\xutility

; 476  :         ::new (static_cast<void*>(_STD addressof(_Obj))) _Ty(_STD forward<_Types>(_Args)...);

  001bf	89 31		 mov	 DWORD PTR [ecx], esi
  001c1	89 79 04	 mov	 DWORD PTR [ecx+4], edi
  001c4	89 41 08	 mov	 DWORD PTR [ecx+8], eax
; File C:\Program Files\Microsoft Visual Studio\2022\Professional\VC\Tools\MSVC\14.44.35207\include\vector

; 869  :         ++_Mylast;

  001c7	83 43 38 0c	 add	 DWORD PTR [ebx+56], 12	; 0000000cH

; 845  :             return _Emplace_back_with_unused_capacity(_STD forward<_Valty>(_Val)...);

  001cb	eb 10		 jmp	 SHORT $LN67@Load_Reass
$LN68@Load_Reass:

; 846  :         }
; 847  : 
; 848  :         return *_Emplace_reallocate(_Mylast, _STD forward<_Valty>(_Val)...);

  001cd	8d 85 88 f7 ff
	ff		 lea	 eax, DWORD PTR _ItemGame$2[ebp]
  001d3	50		 push	 eax
  001d4	51		 push	 ecx
  001d5	8d 4b 34	 lea	 ecx, DWORD PTR [ebx+52]
  001d8	e8 00 00 00 00	 call	 ??$_Emplace_reallocate@ABU__ITEMGAME@CMiniGame@@@?$vector@U__ITEMGAME@CMiniGame@@V?$allocator@U__ITEMGAME@CMiniGame@@@std@@@std@@AAEPAU__ITEMGAME@CMiniGame@@QAU23@ABU23@@Z ; std::vector<CMiniGame::__ITEMGAME,std::allocator<CMiniGame::__ITEMGAME> >::_Emplace_reallocate<CMiniGame::__ITEMGAME const &>
$LN67@Load_Reass:
; File C:\IAGOS\server\v18\Source\Source\_Common\MiniGame.cpp

; 848  : 				s.GetToken();

  001dd	6a 00		 push	 0
  001df	8d 8d 98 f7 ff
	ff		 lea	 ecx, DWORD PTR _s$[ebp]
  001e5	e8 00 00 00 00	 call	 ?GetToken@CScanner@@UAEHH@Z ; CScanner::GetToken
  001ea	8b 85 d4 f7 ff
	ff		 mov	 eax, DWORD PTR _s$[ebp+60]
  001f0	80 38 7d	 cmp	 BYTE PTR [eax], 125	; 0000007dH
  001f3	0f 85 77 ff ff
	ff		 jne	 $LL6@Load_Reass
$LN7@Load_Reass:

; 849  : 			}
; 850  : 		}
; 851  : 		s.GetToken();

  001f9	6a 00		 push	 0
  001fb	8d 8d 98 f7 ff
	ff		 lea	 ecx, DWORD PTR _s$[ebp]
  00201	e8 00 00 00 00	 call	 ?GetToken@CScanner@@UAEHH@Z ; CScanner::GetToken
  00206	83 7d dc 15	 cmp	 DWORD PTR _s$[ebp+2116], 21 ; 00000015H
  0020a	0f 85 70 fe ff
	ff		 jne	 $LL2@Load_Reass
$LN85@Load_Reass:

; 852  : 	}	
; 853  : 	return TRUE;

  00210	be 01 00 00 00	 mov	 esi, 1
  00215	eb 0f		 jmp	 SHORT $LN19@Load_Reass
$LN78@Load_Reass:

; 821  : 				{
; 822  : 					Error( "CMiniGame::Load_Reassemble() \"CARD\" ľĆŔĚĹŰŔĚ ľř´Â°ÍŔ» ĽłÁ¤ÇßŔ˝" );

  00217	68 00 00 00 00	 push	 OFFSET ??_C@_0DP@JBDCAANF@CMiniGame?3?3Load_Reassemble?$CI?$CJ?5?$CCC@
$LN93@Load_Reass:

; 841  : 				{
; 842  : 					Error( "CMiniGame::Load_Reassemble() \"ITEM\" ľĆŔĚĹŰŔĚ ľř´Â°ÍŔ» ĽłÁ¤ÇßŔ˝" );

  0021c	e8 00 00 00 00	 call	 ?Error@@YAPBDPBDZZ	; Error
  00221	83 c4 04	 add	 esp, 4
$LN18@Load_Reass:
  00224	33 f6		 xor	 esi, esi
$LN19@Load_Reass:

; 852  : 	}	
; 853  : 	return TRUE;

  00226	8d 8d 98 f7 ff
	ff		 lea	 ecx, DWORD PTR _s$[ebp]
  0022c	e8 00 00 00 00	 call	 ??1CScanner@@UAE@XZ	; CScanner::~CScanner
  00231	8b c6		 mov	 eax, esi

; 854  : }

  00233	8b 4d f4	 mov	 ecx, DWORD PTR __$EHRec$[ebp]
  00236	64 89 0d 00 00
	00 00		 mov	 DWORD PTR fs:0, ecx
  0023d	59		 pop	 ecx
  0023e	5f		 pop	 edi
  0023f	5e		 pop	 esi
  00240	5b		 pop	 ebx
  00241	8b 4d f0	 mov	 ecx, DWORD PTR __$ArrayPad$[ebp]
  00244	33 cd		 xor	 ecx, ebp
  00246	e8 00 00 00 00	 call	 @__security_check_cookie@4
  0024b	8b e5		 mov	 esp, ebp
  0024d	5d		 pop	 ebp
  0024e	c3		 ret	 0
$LN79@Load_Reass:

; 841  : 				{
; 842  : 					Error( "CMiniGame::Load_Reassemble() \"ITEM\" ľĆŔĚĹŰŔĚ ľř´Â°ÍŔ» ĽłÁ¤ÇßŔ˝" );

  0024f	68 00 00 00 00	 push	 OFFSET ??_C@_0DP@MPOEDLKN@CMiniGame?3?3Load_Reassemble?$CI?$CJ?5?$CCI@
  00254	eb c6		 jmp	 SHORT $LN93@Load_Reass
_TEXT	ENDS
;	COMDAT text$x
text$x	SEGMENT
__unwindfunclet$?Load_Reassemble@CMiniGame@@QAEHXZ$0:
  00000	8d 8d 98 f7 ff
	ff		 lea	 ecx, DWORD PTR _s$[ebp]
  00006	e9 00 00 00 00	 jmp	 ??1CScanner@@UAE@XZ	; CScanner::~CScanner
  0000b	cc		 int	 3
  0000c	cc		 int	 3
  0000d	cc		 int	 3
  0000e	cc		 int	 3
  0000f	cc		 int	 3
__ehhandler$?Load_Reassemble@CMiniGame@@QAEHXZ:
  00010	90		 npad	 1
  00011	90		 npad	 1
  00012	8b 54 24 08	 mov	 edx, DWORD PTR [esp+8]
  00016	8d 42 0c	 lea	 eax, DWORD PTR [edx+12]
  00019	8b 8a 84 f7 ff
	ff		 mov	 ecx, DWORD PTR [edx-2172]
  0001f	33 c8		 xor	 ecx, eax
  00021	e8 00 00 00 00	 call	 @__security_check_cookie@4
  00026	8b 4a fc	 mov	 ecx, DWORD PTR [edx-4]
  00029	33 c8		 xor	 ecx, eax
  0002b	e8 00 00 00 00	 call	 @__security_check_cookie@4
  00030	b8 00 00 00 00	 mov	 eax, OFFSET __ehfuncinfo$?Load_Reassemble@CMiniGame@@QAEHXZ
  00035	e9 00 00 00 00	 jmp	 ___CxxFrameHandler3
text$x	ENDS
?Load_Reassemble@CMiniGame@@QAEHXZ ENDP			; CMiniGame::Load_Reassemble
; Function compile flags: /Ogtp
; File C:\IAGOS\server\v18\Source\Source\_Common\MiniGame.cpp
; File C:\Program Files\Microsoft Visual Studio\2022\Professional\VC\Tools\MSVC\14.44.35207\atlmfc\include\cstringt.h
; File C:\IAGOS\server\v18\Source\Source\_Common\MiniGame.cpp
; File C:\Program Files\Microsoft Visual Studio\2022\Professional\VC\Tools\MSVC\14.44.35207\atlmfc\include\cstringt.h
; File C:\IAGOS\server\v18\Source\Source\_Common\MiniGame.cpp
; File C:\Program Files\Microsoft Visual Studio\2022\Professional\VC\Tools\MSVC\14.44.35207\atlmfc\include\cstringt.h
; File C:\IAGOS\server\v18\Source\Source\_Common\MiniGame.cpp
; File C:\Program Files\Microsoft Visual Studio\2022\Professional\VC\Tools\MSVC\14.44.35207\include\utility
; File C:\Program Files\Microsoft Visual Studio\2022\Professional\VC\Tools\MSVC\14.44.35207\include\xtree
; File C:\Program Files\Microsoft Visual Studio\2022\Professional\VC\Tools\MSVC\14.44.35207\include\utility
; File C:\Program Files\Microsoft Visual Studio\2022\Professional\VC\Tools\MSVC\14.44.35207\include\xtree
; File C:\IAGOS\server\v18\Source\Source\_Common\MiniGame.cpp
; File C:\Program Files\Microsoft Visual Studio\2022\Professional\VC\Tools\MSVC\14.44.35207\include\utility
; File C:\Program Files\Microsoft Visual Studio\2022\Professional\VC\Tools\MSVC\14.44.35207\include\xtree
; File C:\Program Files\Microsoft Visual Studio\2022\Professional\VC\Tools\MSVC\14.44.35207\include\type_traits
; File C:\Program Files\Microsoft Visual Studio\2022\Professional\VC\Tools\MSVC\14.44.35207\include\xtree
; File C:\Program Files\Microsoft Visual Studio\2022\Professional\VC\Tools\MSVC\14.44.35207\include\xmemory
; File C:\Program Files\Microsoft Visual Studio\2022\Professional\VC\Tools\MSVC\14.44.35207\include\xtree
; File C:\Program Files\Microsoft Visual Studio\2022\Professional\VC\Tools\MSVC\14.44.35207\include\xmemory
; File C:\Program Files\Microsoft Visual Studio\2022\Professional\VC\Tools\MSVC\14.44.35207\include\xtree
; File C:\Program Files\Microsoft Visual Studio\2022\Professional\VC\Tools\MSVC\14.44.35207\include\xmemory
; File C:\Program Files\Microsoft Visual Studio\2022\Professional\VC\Tools\MSVC\14.44.35207\include\xtree
; File C:\Program Files\Microsoft Visual Studio\2022\Professional\VC\Tools\MSVC\14.44.35207\include\utility
; File C:\Program Files\Microsoft Visual Studio\2022\Professional\VC\Tools\MSVC\14.44.35207\include\xtree
; File C:\IAGOS\server\v18\Source\Source\_Common\MiniGame.cpp
; File C:\Program Files\Microsoft Visual Studio\2022\Professional\VC\Tools\MSVC\14.44.35207\atlmfc\include\cstringt.h
; File C:\IAGOS\server\v18\Source\Source\_Common\MiniGame.cpp
; File C:\Program Files\Microsoft Visual Studio\2022\Professional\VC\Tools\MSVC\14.44.35207\include\xtree
; File C:\IAGOS\server\v18\Source\Source\_Common\MiniGame.cpp
;	COMDAT ?Load_FiveSystem@CMiniGame@@QAEHXZ
_TEXT	SEGMENT
$T2 = -2208						; size = 12
__Loc$3 = -2196						; size = 12
$T4 = -2184						; size = 12
$T5 = -2172						; size = 8
_FiveSystem$2$ = -2164					; size = 4
_FiveSystem$1$ = -2160					; size = 4
$T6 = -2156						; size = 4
_s$ = -2152						; size = 2136
__$ArrayPad$ = -16					; size = 4
__$EHRec$ = -12						; size = 12
?Load_FiveSystem@CMiniGame@@QAEHXZ PROC			; CMiniGame::Load_FiveSystem, COMDAT
; _this$ = ecx

; 760  : {

  00000	55		 push	 ebp
  00001	8b ec		 mov	 ebp, esp
  00003	6a ff		 push	 -1
  00005	68 00 00 00 00	 push	 __ehhandler$?Load_FiveSystem@CMiniGame@@QAEHXZ
  0000a	64 a1 00 00 00
	00		 mov	 eax, DWORD PTR fs:0
  00010	50		 push	 eax
  00011	81 ec 94 08 00
	00		 sub	 esp, 2196		; 00000894H
  00017	a1 00 00 00 00	 mov	 eax, DWORD PTR ___security_cookie
  0001c	33 c5		 xor	 eax, ebp
  0001e	89 45 f0	 mov	 DWORD PTR __$ArrayPad$[ebp], eax
  00021	53		 push	 ebx
  00022	56		 push	 esi
  00023	57		 push	 edi
  00024	50		 push	 eax
  00025	8d 45 f4	 lea	 eax, DWORD PTR __$EHRec$[ebp]
  00028	64 a3 00 00 00
	00		 mov	 DWORD PTR fs:0, eax
  0002e	8b f9		 mov	 edi, ecx

; 761  : 	CScanner s;

  00030	6a 00		 push	 0
  00032	8d 8d 98 f7 ff
	ff		 lea	 ecx, DWORD PTR _s$[ebp]
  00038	e8 00 00 00 00	 call	 ??0CScanner@@QAE@H@Z	; CScanner::CScanner

; 762  : 	
; 763  : 	if( !s.Load( "MiniGame_FiveSystem.txt", 0 ) )

  0003d	6a 00		 push	 0
  0003f	68 00 00 00 00	 push	 OFFSET ??_C@_0BI@LNKGNKON@MiniGame_FiveSystem?4txt@
  00044	8d 8d 98 f7 ff
	ff		 lea	 ecx, DWORD PTR _s$[ebp]
  0004a	c7 45 fc 00 00
	00 00		 mov	 DWORD PTR __$EHRec$[ebp+8], 0
  00051	e8 00 00 00 00	 call	 ?Load@CScanner@@QAEHPBDH@Z ; CScanner::Load
  00056	85 c0		 test	 eax, eax
  00058	75 07		 jne	 SHORT $LN4@Load_FiveS
  0005a	33 f6		 xor	 esi, esi
  0005c	e9 d0 01 00 00	 jmp	 $LN14@Load_FiveS
$LN4@Load_FiveS:

; 764  : 		return FALSE;
; 765  : 
; 766  : 	s.GetToken();

  00061	6a 00		 push	 0
  00063	8d 8d 98 f7 ff
	ff		 lea	 ecx, DWORD PTR _s$[ebp]
  00069	e8 00 00 00 00	 call	 ?GetToken@CScanner@@UAEHH@Z ; CScanner::GetToken

; 767  : 	
; 768  : 	while( s.tok != FINISHED )

  0006e	83 7d dc 15	 cmp	 DWORD PTR _s$[ebp+2116], 21 ; 00000015H
  00072	0f 84 b4 01 00
	00		 je	 $LN193@Load_FiveS
  00078	0f 1f 84 00 00
	00 00 00	 npad	 8
$LL2@Load_FiveS:
; File C:\Program Files\Microsoft Visual Studio\2022\Professional\VC\Tools\MSVC\14.44.35207\atlmfc\include\cstringt.h

; 184  : 		return _mbscmp( reinterpret_cast< const unsigned char* >( pszA ), reinterpret_cast< const unsigned char* >( pszB ) );

  00080	68 00 00 00 00	 push	 OFFSET ??_C@_08HJJEEDFI@MINPENYA@
  00085	ff b5 b8 f7 ff
	ff		 push	 DWORD PTR _s$[ebp+32]
  0008b	e8 00 00 00 00	 call	 __mbscmp
  00090	83 c4 08	 add	 esp, 8

; 2490 : 		return(str1.Compare(psz2) == 0);

  00093	85 c0		 test	 eax, eax
; File C:\IAGOS\server\v18\Source\Source\_Common\MiniGame.cpp

; 770  : 		if( s.Token == _T( "MINPENYA" ) )

  00095	75 14		 jne	 SHORT $LN37@Load_FiveS

; 771  : 		{
; 772  : 			m_nBetMinPenya = s.GetNumber();

  00097	50		 push	 eax
  00098	8d 8d 98 f7 ff
	ff		 lea	 ecx, DWORD PTR _s$[ebp]
  0009e	e8 00 00 00 00	 call	 ?GetNumber@CScanner@@QAEHH@Z ; CScanner::GetNumber
  000a3	89 47 04	 mov	 DWORD PTR [edi+4], eax

; 773  : 		}

  000a6	e9 6a 01 00 00	 jmp	 $LN11@Load_FiveS
$LN37@Load_FiveS:
; File C:\Program Files\Microsoft Visual Studio\2022\Professional\VC\Tools\MSVC\14.44.35207\atlmfc\include\cstringt.h

; 184  : 		return _mbscmp( reinterpret_cast< const unsigned char* >( pszA ), reinterpret_cast< const unsigned char* >( pszB ) );

  000ab	68 00 00 00 00	 push	 OFFSET ??_C@_08KOHPPBBJ@MAXPENYA@
  000b0	ff b5 b8 f7 ff
	ff		 push	 DWORD PTR _s$[ebp+32]
  000b6	e8 00 00 00 00	 call	 __mbscmp
  000bb	83 c4 08	 add	 esp, 8

; 2490 : 		return(str1.Compare(psz2) == 0);

  000be	85 c0		 test	 eax, eax
; File C:\IAGOS\server\v18\Source\Source\_Common\MiniGame.cpp

; 775  : 		else if( s.Token == _T( "MAXPENYA" ) )

  000c0	75 14		 jne	 SHORT $LN53@Load_FiveS

; 776  : 		{
; 777  : 			m_nBetMaxPenya = s.GetNumber();

  000c2	50		 push	 eax
  000c3	8d 8d 98 f7 ff
	ff		 lea	 ecx, DWORD PTR _s$[ebp]
  000c9	e8 00 00 00 00	 call	 ?GetNumber@CScanner@@QAEHH@Z ; CScanner::GetNumber
  000ce	89 47 08	 mov	 DWORD PTR [edi+8], eax

; 778  : 		}

  000d1	e9 3f 01 00 00	 jmp	 $LN11@Load_FiveS
$LN53@Load_FiveS:
; File C:\Program Files\Microsoft Visual Studio\2022\Professional\VC\Tools\MSVC\14.44.35207\atlmfc\include\cstringt.h

; 184  : 		return _mbscmp( reinterpret_cast< const unsigned char* >( pszA ), reinterpret_cast< const unsigned char* >( pszB ) );

  000d6	68 00 00 00 00	 push	 OFFSET ??_C@_07IPMEJCHO@PERCENT@
  000db	ff b5 b8 f7 ff
	ff		 push	 DWORD PTR _s$[ebp+32]
  000e1	e8 00 00 00 00	 call	 __mbscmp
  000e6	83 c4 08	 add	 esp, 8

; 2490 : 		return(str1.Compare(psz2) == 0);

  000e9	85 c0		 test	 eax, eax
; File C:\IAGOS\server\v18\Source\Source\_Common\MiniGame.cpp

; 779  : 		else if( s.Token == _T( "PERCENT" ) )

  000eb	0f 85 fe 00 00
	00		 jne	 $LN174@Load_FiveS

; 780  : 		{
; 781  : 			__FIVESYSTEM	FiveSystem;
; 782  : 
; 783  : 			int nCount = s.GetNumber();

  000f1	50		 push	 eax
  000f2	8d 8d 98 f7 ff
	ff		 lea	 ecx, DWORD PTR _s$[ebp]
  000f8	e8 00 00 00 00	 call	 ?GetNumber@CScanner@@QAEHH@Z ; CScanner::GetNumber
  000fd	8b f0		 mov	 esi, eax

; 784  : 			FiveSystem.dwMin = s.GetNumber();

  000ff	8d 8d 98 f7 ff
	ff		 lea	 ecx, DWORD PTR _s$[ebp]
  00105	6a 00		 push	 0
  00107	89 b5 94 f7 ff
	ff		 mov	 DWORD PTR $T6[ebp], esi
  0010d	e8 00 00 00 00	 call	 ?GetNumber@CScanner@@QAEHH@Z ; CScanner::GetNumber
  00112	8b d8		 mov	 ebx, eax

; 785  : 			FiveSystem.dwMax = s.GetNumber();

  00114	8d 8d 98 f7 ff
	ff		 lea	 ecx, DWORD PTR _s$[ebp]
  0011a	6a 00		 push	 0
  0011c	89 9d 90 f7 ff
	ff		 mov	 DWORD PTR _FiveSystem$1$[ebp], ebx
  00122	e8 00 00 00 00	 call	 ?GetNumber@CScanner@@QAEHH@Z ; CScanner::GetNumber
  00127	89 85 8c f7 ff
	ff		 mov	 DWORD PTR _FiveSystem$2$[ebp], eax
; File C:\Program Files\Microsoft Visual Studio\2022\Professional\VC\Tools\MSVC\14.44.35207\include\utility

; 274  :         : first(_STD forward<_Other1>(_Val1)), second(_STD forward<_Other2>(_Val2)) {

  0012d	89 85 80 f7 ff
	ff		 mov	 DWORD PTR $T4[ebp+8], eax
; File C:\Program Files\Microsoft Visual Studio\2022\Professional\VC\Tools\MSVC\14.44.35207\include\xtree

; 1017 :             _Loc                = _Find_lower_bound(_Keyval);

  00133	8d 85 78 f7 ff
	ff		 lea	 eax, DWORD PTR $T4[ebp]
  00139	50		 push	 eax
; File C:\Program Files\Microsoft Visual Studio\2022\Professional\VC\Tools\MSVC\14.44.35207\include\utility

; 274  :         : first(_STD forward<_Other1>(_Val1)), second(_STD forward<_Other2>(_Val2)) {

  0013a	89 9d 7c f7 ff
	ff		 mov	 DWORD PTR $T4[ebp+4], ebx
; File C:\Program Files\Microsoft Visual Studio\2022\Professional\VC\Tools\MSVC\14.44.35207\include\xtree

; 1017 :             _Loc                = _Find_lower_bound(_Keyval);

  00140	8d 85 60 f7 ff
	ff		 lea	 eax, DWORD PTR $T2[ebp]
; File C:\IAGOS\server\v18\Source\Source\_Common\MiniGame.cpp

; 787  : 			m_mapFiveSystem.insert( map<int, __FIVESYSTEM>::value_type( nCount, FiveSystem ) );

  00146	8d 5f 2c	 lea	 ebx, DWORD PTR [edi+44]
; File C:\Program Files\Microsoft Visual Studio\2022\Professional\VC\Tools\MSVC\14.44.35207\include\utility

; 274  :         : first(_STD forward<_Other1>(_Val1)), second(_STD forward<_Other2>(_Val2)) {

  00149	89 b5 78 f7 ff
	ff		 mov	 DWORD PTR $T4[ebp], esi
; File C:\Program Files\Microsoft Visual Studio\2022\Professional\VC\Tools\MSVC\14.44.35207\include\xtree

; 1017 :             _Loc                = _Find_lower_bound(_Keyval);

  0014f	50		 push	 eax
  00150	8b cb		 mov	 ecx, ebx
  00152	e8 00 00 00 00	 call	 ??$_Find_lower_bound@H@?$_Tree@V?$_Tmap_traits@HU__FIVESYSTEM@CMiniGame@@U?$less@H@std@@V?$allocator@U?$pair@$$CBHU__FIVESYSTEM@CMiniGame@@@std@@@4@$0A@@std@@@std@@IBE?AU?$_Tree_find_result@PAU?$_Tree_node@U?$pair@$$CBHU__FIVESYSTEM@CMiniGame@@@std@@PAX@std@@@1@ABH@Z ; std::_Tree<std::_Tmap_traits<int,CMiniGame::__FIVESYSTEM,std::less<int>,std::allocator<std::pair<int const ,CMiniGame::__FIVESYSTEM> >,0> >::_Find_lower_bound<int>
  00157	f3 0f 7e 00	 movq	 xmm0, QWORD PTR [eax]
  0015b	8b 40 08	 mov	 eax, DWORD PTR [eax+8]
  0015e	66 0f d6 85 6c
	f7 ff ff	 movq	 QWORD PTR __Loc$3[ebp], xmm0

; 1624 :         return !_Bound->_Isnil && !_DEBUG_LT_PRED(_Getcomp(), _Keyval, _Traits::_Kfn(_Bound->_Myval));

  00166	80 78 0d 00	 cmp	 BYTE PTR [eax+13], 0
  0016a	75 09		 jne	 SHORT $LN196@Load_FiveS
; File C:\Program Files\Microsoft Visual Studio\2022\Professional\VC\Tools\MSVC\14.44.35207\include\type_traits

; 2380 :         return _Left < _Right;

  0016c	3b 70 10	 cmp	 esi, DWORD PTR [eax+16]
; File C:\Program Files\Microsoft Visual Studio\2022\Professional\VC\Tools\MSVC\14.44.35207\include\xtree

; 1624 :         return !_Bound->_Isnil && !_DEBUG_LT_PRED(_Getcomp(), _Keyval, _Traits::_Kfn(_Bound->_Myval));

  0016f	0f 8d a0 00 00
	00		 jge	 $LN11@Load_FiveS
$LN196@Load_FiveS:

; 1648 :         if (max_size() == _Get_scary()->_Mysize) {

  00175	81 7b 04 49 92
	24 09		 cmp	 DWORD PTR [ebx+4], 153391689 ; 09249249H
  0017c	0f 84 d8 00 00
	00		 je	 $LN189@Load_FiveS

; 1023 :             _Inserted = _Tree_temp_node<_Alnode>(_Getal(), _Scary->_Myhead, _STD forward<_Valtys>(_Vals)...)._Release();

  00182	8b 33		 mov	 esi, DWORD PTR [ebx]
; File C:\Program Files\Microsoft Visual Studio\2022\Professional\VC\Tools\MSVC\14.44.35207\include\xmemory

; 1160 :     _CONSTEXPR20 explicit _Alloc_construct_ptr(_Alloc& _Al_) : _Al(_Al_), _Ptr(nullptr) {}

  00184	89 9d 84 f7 ff
	ff		 mov	 DWORD PTR $T5[ebp], ebx

; 136  :         return ::operator new(_Bytes);

  0018a	6a 1c		 push	 28			; 0000001cH
; File C:\Program Files\Microsoft Visual Studio\2022\Professional\VC\Tools\MSVC\14.44.35207\include\xtree

; 808  :     explicit _Tree_temp_node_alloc(_Alnode& _Al_) : _Alloc_construct_ptr<_Alnode>(_Al_) {

  0018c	c6 45 fc 01	 mov	 BYTE PTR __$EHRec$[ebp+8], 1
; File C:\Program Files\Microsoft Visual Studio\2022\Professional\VC\Tools\MSVC\14.44.35207\include\xmemory

; 1167 :         _Ptr = nullptr; // if allocate throws, prevents double-free

  00190	c7 85 88 f7 ff
	ff 00 00 00 00	 mov	 DWORD PTR $T5[ebp+4], 0

; 136  :         return ::operator new(_Bytes);

  0019a	e8 00 00 00 00	 call	 ??2@YAPAXI@Z		; operator new

; 732  :         ::new (const_cast<void*>(static_cast<const volatile void*>(_Ptr))) _Objty(_STD forward<_Types>(_Args)...);

  0019f	8b 8d 94 f7 ff
	ff		 mov	 ecx, DWORD PTR $T6[ebp]

; 136  :         return ::operator new(_Bytes);

  001a5	83 c4 04	 add	 esp, 4
; File C:\Program Files\Microsoft Visual Studio\2022\Professional\VC\Tools\MSVC\14.44.35207\include\xtree

; 810  :     }

  001a8	c6 45 fc 00	 mov	 BYTE PTR __$EHRec$[ebp+8], 0
; File C:\Program Files\Microsoft Visual Studio\2022\Professional\VC\Tools\MSVC\14.44.35207\include\xmemory

; 732  :         ::new (const_cast<void*>(static_cast<const volatile void*>(_Ptr))) _Objty(_STD forward<_Types>(_Args)...);

  001ac	89 48 10	 mov	 DWORD PTR [eax+16], ecx
  001af	8b 8d 90 f7 ff
	ff		 mov	 ecx, DWORD PTR _FiveSystem$1$[ebp]
  001b5	89 48 14	 mov	 DWORD PTR [eax+20], ecx
  001b8	8b 8d 8c f7 ff
	ff		 mov	 ecx, DWORD PTR _FiveSystem$2$[ebp]
  001be	89 48 18	 mov	 DWORD PTR [eax+24], ecx
; File C:\Program Files\Microsoft Visual Studio\2022\Professional\VC\Tools\MSVC\14.44.35207\include\xtree

; 1042 :         return {_Scary->_Insert_node(_Loc._Location, _Inserted), true};

  001c1	8b cb		 mov	 ecx, ebx
  001c3	50		 push	 eax
  001c4	ff b5 70 f7 ff
	ff		 push	 DWORD PTR __Loc$3[ebp+4]

; 831  :         _Construct_in_place(this->_Ptr->_Left, _Myhead);

  001ca	89 30		 mov	 DWORD PTR [eax], esi

; 1042 :         return {_Scary->_Insert_node(_Loc._Location, _Inserted), true};

  001cc	ff b5 6c f7 ff
	ff		 push	 DWORD PTR __Loc$3[ebp]

; 832  :         _Construct_in_place(this->_Ptr->_Parent, _Myhead);

  001d2	89 70 04	 mov	 DWORD PTR [eax+4], esi

; 833  :         _Construct_in_place(this->_Ptr->_Right, _Myhead);

  001d5	89 70 08	 mov	 DWORD PTR [eax+8], esi

; 834  :         this->_Ptr->_Color = _Red;

  001d8	66 c7 40 0c 00
	00		 mov	 WORD PTR [eax+12], 0
; File C:\Program Files\Microsoft Visual Studio\2022\Professional\VC\Tools\MSVC\14.44.35207\include\utility

; 774  :     _Val         = static_cast<_Other&&>(_New_val);

  001de	c7 85 88 f7 ff
	ff 00 00 00 00	 mov	 DWORD PTR $T5[ebp+4], 0
; File C:\Program Files\Microsoft Visual Studio\2022\Professional\VC\Tools\MSVC\14.44.35207\include\xtree

; 1042 :         return {_Scary->_Insert_node(_Loc._Location, _Inserted), true};

  001e8	e8 00 00 00 00	 call	 ?_Insert_node@?$_Tree_val@U?$_Tree_simple_types@U?$pair@$$CBHU__FIVESYSTEM@CMiniGame@@@std@@@std@@@std@@QAEPAU?$_Tree_node@U?$pair@$$CBHU__FIVESYSTEM@CMiniGame@@@std@@PAX@2@U?$_Tree_id@PAU?$_Tree_node@U?$pair@$$CBHU__FIVESYSTEM@CMiniGame@@@std@@PAX@std@@@2@QAU32@@Z ; std::_Tree_val<std::_Tree_simple_types<std::pair<int const ,CMiniGame::__FIVESYSTEM> > >::_Insert_node
; File C:\IAGOS\server\v18\Source\Source\_Common\MiniGame.cpp

; 788  : 		}

  001ed	eb 26		 jmp	 SHORT $LN11@Load_FiveS
$LN174@Load_FiveS:
; File C:\Program Files\Microsoft Visual Studio\2022\Professional\VC\Tools\MSVC\14.44.35207\atlmfc\include\cstringt.h

; 184  : 		return _mbscmp( reinterpret_cast< const unsigned char* >( pszA ), reinterpret_cast< const unsigned char* >( pszB ) );

  001ef	68 00 00 00 00	 push	 OFFSET ??_C@_08FFDJFNDB@MULTIPLE@
  001f4	ff b5 b8 f7 ff
	ff		 push	 DWORD PTR _s$[ebp+32]
  001fa	e8 00 00 00 00	 call	 __mbscmp
  001ff	83 c4 08	 add	 esp, 8

; 2490 : 		return(str1.Compare(psz2) == 0);

  00202	85 c0		 test	 eax, eax
; File C:\IAGOS\server\v18\Source\Source\_Common\MiniGame.cpp

; 789  : 		else if( s.Token == _T( "MULTIPLE" ) )

  00204	75 0f		 jne	 SHORT $LN11@Load_FiveS

; 790  : 		{
; 791  : 			m_nMultiple = s.GetNumber();

  00206	50		 push	 eax
  00207	8d 8d 98 f7 ff
	ff		 lea	 ecx, DWORD PTR _s$[ebp]
  0020d	e8 00 00 00 00	 call	 ?GetNumber@CScanner@@QAEHH@Z ; CScanner::GetNumber
  00212	89 47 0c	 mov	 DWORD PTR [edi+12], eax
$LN11@Load_FiveS:

; 792  : 		}
; 793  : 
; 794  : 		s.GetToken();

  00215	6a 00		 push	 0
  00217	8d 8d 98 f7 ff
	ff		 lea	 ecx, DWORD PTR _s$[ebp]
  0021d	e8 00 00 00 00	 call	 ?GetToken@CScanner@@UAEHH@Z ; CScanner::GetToken
  00222	83 7d dc 15	 cmp	 DWORD PTR _s$[ebp+2116], 21 ; 00000015H
  00226	0f 85 54 fe ff
	ff		 jne	 $LL2@Load_FiveS
$LN193@Load_FiveS:

; 795  : 	}	
; 796  : 	return TRUE;

  0022c	be 01 00 00 00	 mov	 esi, 1
$LN14@Load_FiveS:
  00231	8d 8d 98 f7 ff
	ff		 lea	 ecx, DWORD PTR _s$[ebp]
  00237	e8 00 00 00 00	 call	 ??1CScanner@@UAE@XZ	; CScanner::~CScanner
  0023c	8b c6		 mov	 eax, esi

; 798  : }

  0023e	8b 4d f4	 mov	 ecx, DWORD PTR __$EHRec$[ebp]
  00241	64 89 0d 00 00
	00 00		 mov	 DWORD PTR fs:0, ecx
  00248	59		 pop	 ecx
  00249	5f		 pop	 edi
  0024a	5e		 pop	 esi
  0024b	5b		 pop	 ebx
  0024c	8b 4d f0	 mov	 ecx, DWORD PTR __$ArrayPad$[ebp]
  0024f	33 cd		 xor	 ecx, ebp
  00251	e8 00 00 00 00	 call	 @__security_check_cookie@4
  00256	8b e5		 mov	 esp, ebp
  00258	5d		 pop	 ebp
  00259	c3		 ret	 0
$LN189@Load_FiveS:
; File C:\Program Files\Microsoft Visual Studio\2022\Professional\VC\Tools\MSVC\14.44.35207\include\xtree

; 1649 :             _Throw_tree_length_error();

  0025a	e8 00 00 00 00	 call	 ?_Throw_tree_length_error@std@@YAXXZ ; std::_Throw_tree_length_error
$LN199@Load_FiveS:
  0025f	cc		 int	 3
_TEXT	ENDS
;	COMDAT text$x
text$x	SEGMENT
__unwindfunclet$?Load_FiveSystem@CMiniGame@@QAEHXZ$0:
  00000	8d 8d 98 f7 ff
	ff		 lea	 ecx, DWORD PTR _s$[ebp]
  00006	e9 00 00 00 00	 jmp	 ??1CScanner@@UAE@XZ	; CScanner::~CScanner
__unwindfunclet$?Load_FiveSystem@CMiniGame@@QAEHXZ$3:
  0000b	8d 8d 84 f7 ff
	ff		 lea	 ecx, DWORD PTR $T5[ebp]
  00011	e9 00 00 00 00	 jmp	 ??1?$_Alloc_construct_ptr@V?$allocator@U?$_Tree_node@U?$pair@$$CBHU__FIVESYSTEM@CMiniGame@@@std@@PAX@std@@@std@@@std@@QAE@XZ ; std::_Alloc_construct_ptr<std::allocator<std::_Tree_node<std::pair<int const ,CMiniGame::__FIVESYSTEM>,void *> > >::~_Alloc_construct_ptr<std::allocator<std::_Tree_node<std::pair<int const ,CMiniGame::__FIVESYSTEM>,void *> > >
  00016	cc		 int	 3
  00017	cc		 int	 3
  00018	cc		 int	 3
  00019	cc		 int	 3
  0001a	cc		 int	 3
__ehhandler$?Load_FiveSystem@CMiniGame@@QAEHXZ:
  0001b	90		 npad	 1
  0001c	90		 npad	 1
  0001d	8b 54 24 08	 mov	 edx, DWORD PTR [esp+8]
  00021	8d 42 0c	 lea	 eax, DWORD PTR [edx+12]
  00024	8b 8a 5c f7 ff
	ff		 mov	 ecx, DWORD PTR [edx-2212]
  0002a	33 c8		 xor	 ecx, eax
  0002c	e8 00 00 00 00	 call	 @__security_check_cookie@4
  00031	8b 4a fc	 mov	 ecx, DWORD PTR [edx-4]
  00034	33 c8		 xor	 ecx, eax
  00036	e8 00 00 00 00	 call	 @__security_check_cookie@4
  0003b	b8 00 00 00 00	 mov	 eax, OFFSET __ehfuncinfo$?Load_FiveSystem@CMiniGame@@QAEHXZ
  00040	e9 00 00 00 00	 jmp	 ___CxxFrameHandler3
text$x	ENDS
?Load_FiveSystem@CMiniGame@@QAEHXZ ENDP			; CMiniGame::Load_FiveSystem
; Function compile flags: /Ogtp
; File C:\IAGOS\server\v18\Source\Source\_Common\MiniGame.cpp
; File C:\Program Files\Microsoft Visual Studio\2022\Professional\VC\Tools\MSVC\14.44.35207\atlmfc\include\cstringt.h
; File C:\IAGOS\server\v18\Source\Source\_Common\MiniGame.cpp
; File C:\Program Files\Microsoft Visual Studio\2022\Professional\VC\Tools\MSVC\14.44.35207\include\utility
; File C:\IAGOS\server\v18\Source\Source\_Common\MiniGame.cpp
; File C:\Program Files\Microsoft Visual Studio\2022\Professional\VC\Tools\MSVC\14.44.35207\include\utility
; File C:\IAGOS\server\v18\Source\Source\_Common\MiniGame.cpp
; File C:\Program Files\Microsoft Visual Studio\2022\Professional\VC\Tools\MSVC\14.44.35207\include\utility
; File C:\Program Files\Microsoft Visual Studio\2022\Professional\VC\Tools\MSVC\14.44.35207\include\xtree
; File C:\IAGOS\server\v18\Source\Source\_Common\MiniGame.cpp
; File C:\Program Files\Microsoft Visual Studio\2022\Professional\VC\Tools\MSVC\14.44.35207\include\xtree
; File C:\Program Files\Microsoft Visual Studio\2022\Professional\VC\Tools\MSVC\14.44.35207\include\type_traits
; File C:\Program Files\Microsoft Visual Studio\2022\Professional\VC\Tools\MSVC\14.44.35207\include\xtree
; File C:\Program Files\Microsoft Visual Studio\2022\Professional\VC\Tools\MSVC\14.44.35207\include\xmemory
; File C:\Program Files\Microsoft Visual Studio\2022\Professional\VC\Tools\MSVC\14.44.35207\include\xtree
; File C:\Program Files\Microsoft Visual Studio\2022\Professional\VC\Tools\MSVC\14.44.35207\include\xmemory
; File C:\Program Files\Microsoft Visual Studio\2022\Professional\VC\Tools\MSVC\14.44.35207\include\utility
; File C:\Program Files\Microsoft Visual Studio\2022\Professional\VC\Tools\MSVC\14.44.35207\include\xmemory
; File C:\Program Files\Microsoft Visual Studio\2022\Professional\VC\Tools\MSVC\14.44.35207\include\xtree
; File C:\Program Files\Microsoft Visual Studio\2022\Professional\VC\Tools\MSVC\14.44.35207\include\utility
; File C:\Program Files\Microsoft Visual Studio\2022\Professional\VC\Tools\MSVC\14.44.35207\include\xtree
; File C:\Program Files\Microsoft Visual Studio\2022\Professional\VC\Tools\MSVC\14.44.35207\include\utility
; File C:\Program Files\Microsoft Visual Studio\2022\Professional\VC\Tools\MSVC\14.44.35207\include\xtree
; File C:\IAGOS\server\v18\Source\Source\_Common\MiniGame.cpp
; File C:\Program Files\Microsoft Visual Studio\2022\Professional\VC\Tools\MSVC\14.44.35207\include\xtree
; File C:\IAGOS\server\v18\Source\Source\_Common\MiniGame.cpp
;	COMDAT ?Load_KawiBawiBo@CMiniGame@@QAEHXZ
_TEXT	SEGMENT
$T2 = -2228						; size = 12
__Loc$3 = -2216						; size = 12
$T4 = -2204						; size = 24
$T5 = -2180						; size = 8
tv723 = -2172						; size = 4
tv724 = -2168						; size = 4
tv725 = -2164						; size = 4
_nWinCount$1$ = -2160					; size = 4
_this$GSCopy$1$ = -2156					; size = 4
_s$ = -2152						; size = 2136
__$ArrayPad$ = -16					; size = 4
__$EHRec$ = -12						; size = 12
?Load_KawiBawiBo@CMiniGame@@QAEHXZ PROC			; CMiniGame::Load_KawiBawiBo, COMDAT
; _this$ = ecx

; 717  : {

  00000	55		 push	 ebp
  00001	8b ec		 mov	 ebp, esp
  00003	6a ff		 push	 -1
  00005	68 00 00 00 00	 push	 __ehhandler$?Load_KawiBawiBo@CMiniGame@@QAEHXZ
  0000a	64 a1 00 00 00
	00		 mov	 eax, DWORD PTR fs:0
  00010	50		 push	 eax
  00011	81 ec a8 08 00
	00		 sub	 esp, 2216		; 000008a8H
  00017	a1 00 00 00 00	 mov	 eax, DWORD PTR ___security_cookie
  0001c	33 c5		 xor	 eax, ebp
  0001e	89 45 f0	 mov	 DWORD PTR __$ArrayPad$[ebp], eax
  00021	56		 push	 esi
  00022	57		 push	 edi
  00023	50		 push	 eax
  00024	8d 45 f4	 lea	 eax, DWORD PTR __$EHRec$[ebp]
  00027	64 a3 00 00 00
	00		 mov	 DWORD PTR fs:0, eax
  0002d	8b f9		 mov	 edi, ecx
  0002f	89 bd 94 f7 ff
	ff		 mov	 DWORD PTR _this$GSCopy$1$[ebp], edi

; 718  : 	CScanner s;

  00035	6a 00		 push	 0
  00037	8d 8d 98 f7 ff
	ff		 lea	 ecx, DWORD PTR _s$[ebp]
  0003d	e8 00 00 00 00	 call	 ??0CScanner@@QAE@H@Z	; CScanner::CScanner

; 719  : 	
; 720  : 	if( !s.Load( "MiniGame_KawiBawiBo.txt", 0 ) )

  00042	6a 00		 push	 0
  00044	68 00 00 00 00	 push	 OFFSET ??_C@_0BI@MOMCLCL@MiniGame_KawiBawiBo?4txt@
  00049	8d 8d 98 f7 ff
	ff		 lea	 ecx, DWORD PTR _s$[ebp]
  0004f	c7 45 fc 00 00
	00 00		 mov	 DWORD PTR __$EHRec$[ebp+8], 0
  00056	e8 00 00 00 00	 call	 ?Load@CScanner@@QAEHPBDH@Z ; CScanner::Load
  0005b	85 c0		 test	 eax, eax
  0005d	0f 84 ef 01 00
	00		 je	 $LN10@Load_KawiB

; 721  : 		return FALSE;
; 722  : 	
; 723  : 	s.GetToken();

  00063	6a 00		 push	 0
  00065	8d 8d 98 f7 ff
	ff		 lea	 ecx, DWORD PTR _s$[ebp]
  0006b	e8 00 00 00 00	 call	 ?GetToken@CScanner@@UAEHH@Z ; CScanner::GetToken

; 724  : 	
; 725  : 	int nMaxWin = 0;

  00070	33 f6		 xor	 esi, esi

; 726  : 	while( s.tok != FINISHED )

  00072	83 7d dc 15	 cmp	 DWORD PTR _s$[ebp+2116], 21 ; 00000015H
  00076	0f 84 bf 01 00
	00		 je	 $LN151@Load_KawiB
  0007c	0f 1f 40 00	 npad	 4
$LL2@Load_KawiB:
; File C:\Program Files\Microsoft Visual Studio\2022\Professional\VC\Tools\MSVC\14.44.35207\atlmfc\include\cstringt.h

; 184  : 		return _mbscmp( reinterpret_cast< const unsigned char* >( pszA ), reinterpret_cast< const unsigned char* >( pszB ) );

  00080	68 00 00 00 00	 push	 OFFSET ??_C@_08JBKDMAJL@SENDITEM@
  00085	ff b5 b8 f7 ff
	ff		 push	 DWORD PTR _s$[ebp+32]
  0008b	e8 00 00 00 00	 call	 __mbscmp
  00090	83 c4 08	 add	 esp, 8

; 2490 : 		return(str1.Compare(psz2) == 0);

  00093	85 c0		 test	 eax, eax
; File C:\IAGOS\server\v18\Source\Source\_Common\MiniGame.cpp

; 728  : 		if( s.Token == _T( "SENDITEM" ))

  00095	0f 85 83 01 00
	00		 jne	 $LN7@Load_KawiB

; 729  : 		{
; 730  : 			__KAWIBAWIBO	KawiBawiBo;
; 731  : 		
; 732  : 			int nWinCount = s.GetNumber();

  0009b	50		 push	 eax
  0009c	8d 8d 98 f7 ff
	ff		 lea	 ecx, DWORD PTR _s$[ebp]
  000a2	e8 00 00 00 00	 call	 ?GetNumber@CScanner@@QAEHH@Z ; CScanner::GetNumber
  000a7	8b f8		 mov	 edi, eax

; 733  : 			KawiBawiBo.dwDraw	= s.GetNumber();

  000a9	8d 8d 98 f7 ff
	ff		 lea	 ecx, DWORD PTR _s$[ebp]
  000af	6a 00		 push	 0
  000b1	89 bd 90 f7 ff
	ff		 mov	 DWORD PTR _nWinCount$1$[ebp], edi
  000b7	e8 00 00 00 00	 call	 ?GetNumber@CScanner@@QAEHH@Z ; CScanner::GetNumber

; 734  : 			KawiBawiBo.dwLost	= s.GetNumber();

  000bc	6a 00		 push	 0
  000be	8d 8d 98 f7 ff
	ff		 lea	 ecx, DWORD PTR _s$[ebp]
  000c4	89 85 8c f7 ff
	ff		 mov	 DWORD PTR tv725[ebp], eax
  000ca	e8 00 00 00 00	 call	 ?GetNumber@CScanner@@QAEHH@Z ; CScanner::GetNumber

; 735  : 			KawiBawiBo.dwWin	= s.GetNumber();

  000cf	6a 00		 push	 0
  000d1	8d 8d 98 f7 ff
	ff		 lea	 ecx, DWORD PTR _s$[ebp]
  000d7	89 85 88 f7 ff
	ff		 mov	 DWORD PTR tv724[ebp], eax
  000dd	e8 00 00 00 00	 call	 ?GetNumber@CScanner@@QAEHH@Z ; CScanner::GetNumber

; 736  : 			s.GetToken();

  000e2	6a 00		 push	 0
  000e4	8d 8d 98 f7 ff
	ff		 lea	 ecx, DWORD PTR _s$[ebp]
  000ea	89 85 84 f7 ff
	ff		 mov	 DWORD PTR tv723[ebp], eax
  000f0	e8 00 00 00 00	 call	 ?GetToken@CScanner@@UAEHH@Z ; CScanner::GetToken

; 737  : 			KawiBawiBo.dwItemId = CScript::GetDefineNum( s.Token );

  000f5	ff b5 b8 f7 ff
	ff		 push	 DWORD PTR _s$[ebp+32]
  000fb	e8 00 00 00 00	 call	 ?GetDefineNum@CScript@@SAHPBD@Z ; CScript::GetDefineNum
  00100	83 c4 04	 add	 esp, 4
  00103	83 f8 ff	 cmp	 eax, -1

; 738  : 			if( KawiBawiBo.dwItemId == -1 )

  00106	0f 84 39 01 00
	00		 je	 $LN147@Load_KawiB
; File C:\Program Files\Microsoft Visual Studio\2022\Professional\VC\Tools\MSVC\14.44.35207\include\utility

; 274  :         : first(_STD forward<_Other1>(_Val1)), second(_STD forward<_Other2>(_Val2)) {

  0010c	8b 8d 8c f7 ff
	ff		 mov	 ecx, DWORD PTR tv725[ebp]
  00112	89 8d 68 f7 ff
	ff		 mov	 DWORD PTR $T4[ebp+4], ecx
  00118	8b 8d 88 f7 ff
	ff		 mov	 ecx, DWORD PTR tv724[ebp]
  0011e	89 8d 6c f7 ff
	ff		 mov	 DWORD PTR $T4[ebp+8], ecx
  00124	8b 8d 84 f7 ff
	ff		 mov	 ecx, DWORD PTR tv723[ebp]
  0012a	89 8d 70 f7 ff
	ff		 mov	 DWORD PTR $T4[ebp+12], ecx
; File C:\IAGOS\server\v18\Source\Source\_Common\MiniGame.cpp

; 744  : 			KawiBawiBo.nItemCount = s.GetNumber();

  00130	8d 8d 98 f7 ff
	ff		 lea	 ecx, DWORD PTR _s$[ebp]
  00136	6a 00		 push	 0
; File C:\Program Files\Microsoft Visual Studio\2022\Professional\VC\Tools\MSVC\14.44.35207\include\utility

; 274  :         : first(_STD forward<_Other1>(_Val1)), second(_STD forward<_Other2>(_Val2)) {

  00138	89 bd 64 f7 ff
	ff		 mov	 DWORD PTR $T4[ebp], edi
  0013e	89 85 74 f7 ff
	ff		 mov	 DWORD PTR $T4[ebp+16], eax
; File C:\IAGOS\server\v18\Source\Source\_Common\MiniGame.cpp

; 744  : 			KawiBawiBo.nItemCount = s.GetNumber();

  00144	e8 00 00 00 00	 call	 ?GetNumber@CScanner@@QAEHH@Z ; CScanner::GetNumber

; 746  : 			m_mapKawiBawiBo.insert( make_pair( nWinCount, KawiBawiBo) );

  00149	8b 8d 94 f7 ff
	ff		 mov	 ecx, DWORD PTR _this$GSCopy$1$[ebp]
; File C:\Program Files\Microsoft Visual Studio\2022\Professional\VC\Tools\MSVC\14.44.35207\include\utility

; 274  :         : first(_STD forward<_Other1>(_Val1)), second(_STD forward<_Other2>(_Val2)) {

  0014f	89 85 78 f7 ff
	ff		 mov	 DWORD PTR $T4[ebp+20], eax
; File C:\Program Files\Microsoft Visual Studio\2022\Professional\VC\Tools\MSVC\14.44.35207\include\xtree

; 1017 :             _Loc                = _Find_lower_bound(_Keyval);

  00155	8d 85 64 f7 ff
	ff		 lea	 eax, DWORD PTR $T4[ebp]
  0015b	50		 push	 eax
  0015c	8d 85 4c f7 ff
	ff		 lea	 eax, DWORD PTR $T2[ebp]
; File C:\IAGOS\server\v18\Source\Source\_Common\MiniGame.cpp

; 746  : 			m_mapKawiBawiBo.insert( make_pair( nWinCount, KawiBawiBo) );

  00162	8d 49 24	 lea	 ecx, DWORD PTR [ecx+36]
; File C:\Program Files\Microsoft Visual Studio\2022\Professional\VC\Tools\MSVC\14.44.35207\include\xtree

; 1017 :             _Loc                = _Find_lower_bound(_Keyval);

  00165	50		 push	 eax
  00166	e8 00 00 00 00	 call	 ??$_Find_lower_bound@H@?$_Tree@V?$_Tmap_traits@HU__KAWIBAWIBO@CMiniGame@@U?$less@H@std@@V?$allocator@U?$pair@$$CBHU__KAWIBAWIBO@CMiniGame@@@std@@@4@$0A@@std@@@std@@IBE?AU?$_Tree_find_result@PAU?$_Tree_node@U?$pair@$$CBHU__KAWIBAWIBO@CMiniGame@@@std@@PAX@std@@@1@ABH@Z ; std::_Tree<std::_Tmap_traits<int,CMiniGame::__KAWIBAWIBO,std::less<int>,std::allocator<std::pair<int const ,CMiniGame::__KAWIBAWIBO> >,0> >::_Find_lower_bound<int>
  0016b	f3 0f 7e 00	 movq	 xmm0, QWORD PTR [eax]
  0016f	8b 40 08	 mov	 eax, DWORD PTR [eax+8]
  00172	66 0f d6 85 58
	f7 ff ff	 movq	 QWORD PTR __Loc$3[ebp], xmm0

; 1624 :         return !_Bound->_Isnil && !_DEBUG_LT_PRED(_Getcomp(), _Keyval, _Traits::_Kfn(_Bound->_Myval));

  0017a	80 78 0d 00	 cmp	 BYTE PTR [eax+13], 0
  0017e	75 09		 jne	 SHORT $LN153@Load_KawiB
; File C:\Program Files\Microsoft Visual Studio\2022\Professional\VC\Tools\MSVC\14.44.35207\include\type_traits

; 2380 :         return _Left < _Right;

  00180	3b 78 10	 cmp	 edi, DWORD PTR [eax+16]
; File C:\Program Files\Microsoft Visual Studio\2022\Professional\VC\Tools\MSVC\14.44.35207\include\xtree

; 1624 :         return !_Bound->_Isnil && !_DEBUG_LT_PRED(_Getcomp(), _Keyval, _Traits::_Kfn(_Bound->_Myval));

  00183	0f 8d 90 00 00
	00		 jge	 $LN129@Load_KawiB
$LN153@Load_KawiB:

; 1648 :         if (max_size() == _Get_scary()->_Mysize) {

  00189	8b 85 94 f7 ff
	ff		 mov	 eax, DWORD PTR _this$GSCopy$1$[ebp]
  0018f	83 c0 24	 add	 eax, 36			; 00000024H
  00192	81 78 04 66 66
	66 06		 cmp	 DWORD PTR [eax+4], 107374182 ; 06666666H
  00199	0f 84 dd 00 00
	00		 je	 $LN148@Load_KawiB

; 1023 :             _Inserted = _Tree_temp_node<_Alnode>(_Getal(), _Scary->_Myhead, _STD forward<_Valtys>(_Vals)...)._Release();

  0019f	8b 38		 mov	 edi, DWORD PTR [eax]
; File C:\Program Files\Microsoft Visual Studio\2022\Professional\VC\Tools\MSVC\14.44.35207\include\xmemory

; 1160 :     _CONSTEXPR20 explicit _Alloc_construct_ptr(_Alloc& _Al_) : _Al(_Al_), _Ptr(nullptr) {}

  001a1	89 85 7c f7 ff
	ff		 mov	 DWORD PTR $T5[ebp], eax

; 136  :         return ::operator new(_Bytes);

  001a7	6a 28		 push	 40			; 00000028H
; File C:\Program Files\Microsoft Visual Studio\2022\Professional\VC\Tools\MSVC\14.44.35207\include\xtree

; 808  :     explicit _Tree_temp_node_alloc(_Alnode& _Al_) : _Alloc_construct_ptr<_Alnode>(_Al_) {

  001a9	c6 45 fc 01	 mov	 BYTE PTR __$EHRec$[ebp+8], 1
; File C:\Program Files\Microsoft Visual Studio\2022\Professional\VC\Tools\MSVC\14.44.35207\include\xmemory

; 1167 :         _Ptr = nullptr; // if allocate throws, prevents double-free

  001ad	c7 85 80 f7 ff
	ff 00 00 00 00	 mov	 DWORD PTR $T5[ebp+4], 0

; 136  :         return ::operator new(_Bytes);

  001b7	e8 00 00 00 00	 call	 ??2@YAPAXI@Z		; operator new
; File C:\Program Files\Microsoft Visual Studio\2022\Professional\VC\Tools\MSVC\14.44.35207\include\utility

; 303  :         : first(_STD forward<_Other1>(_Right.first)), second(_STD forward<_Other2>(_Right.second)) {}

  001bc	0f 10 85 68 f7
	ff ff		 movups	 xmm0, XMMWORD PTR $T4[ebp+4]
  001c3	8b 8d 90 f7 ff
	ff		 mov	 ecx, DWORD PTR _nWinCount$1$[ebp]
; File C:\Program Files\Microsoft Visual Studio\2022\Professional\VC\Tools\MSVC\14.44.35207\include\xmemory

; 136  :         return ::operator new(_Bytes);

  001c9	83 c4 04	 add	 esp, 4
; File C:\Program Files\Microsoft Visual Studio\2022\Professional\VC\Tools\MSVC\14.44.35207\include\xtree

; 810  :     }

  001cc	c6 45 fc 00	 mov	 BYTE PTR __$EHRec$[ebp+8], 0
; File C:\Program Files\Microsoft Visual Studio\2022\Professional\VC\Tools\MSVC\14.44.35207\include\utility

; 303  :         : first(_STD forward<_Other1>(_Right.first)), second(_STD forward<_Other2>(_Right.second)) {}

  001d0	89 48 10	 mov	 DWORD PTR [eax+16], ecx
  001d3	8b 8d 78 f7 ff
	ff		 mov	 ecx, DWORD PTR $T4[ebp+20]
  001d9	0f 11 40 14	 movups	 XMMWORD PTR [eax+20], xmm0
  001dd	89 48 24	 mov	 DWORD PTR [eax+36], ecx
; File C:\Program Files\Microsoft Visual Studio\2022\Professional\VC\Tools\MSVC\14.44.35207\include\xtree

; 1042 :         return {_Scary->_Insert_node(_Loc._Location, _Inserted), true};

  001e0	8b 8d 94 f7 ff
	ff		 mov	 ecx, DWORD PTR _this$GSCopy$1$[ebp]
  001e6	50		 push	 eax
  001e7	ff b5 5c f7 ff
	ff		 push	 DWORD PTR __Loc$3[ebp+4]

; 831  :         _Construct_in_place(this->_Ptr->_Left, _Myhead);

  001ed	89 38		 mov	 DWORD PTR [eax], edi

; 1042 :         return {_Scary->_Insert_node(_Loc._Location, _Inserted), true};

  001ef	ff b5 58 f7 ff
	ff		 push	 DWORD PTR __Loc$3[ebp]

; 832  :         _Construct_in_place(this->_Ptr->_Parent, _Myhead);

  001f5	89 78 04	 mov	 DWORD PTR [eax+4], edi

; 1042 :         return {_Scary->_Insert_node(_Loc._Location, _Inserted), true};

  001f8	8d 49 24	 lea	 ecx, DWORD PTR [ecx+36]

; 833  :         _Construct_in_place(this->_Ptr->_Right, _Myhead);

  001fb	89 78 08	 mov	 DWORD PTR [eax+8], edi

; 834  :         this->_Ptr->_Color = _Red;

  001fe	66 c7 40 0c 00
	00		 mov	 WORD PTR [eax+12], 0
; File C:\Program Files\Microsoft Visual Studio\2022\Professional\VC\Tools\MSVC\14.44.35207\include\utility

; 774  :     _Val         = static_cast<_Other&&>(_New_val);

  00204	c7 85 80 f7 ff
	ff 00 00 00 00	 mov	 DWORD PTR $T5[ebp+4], 0
; File C:\Program Files\Microsoft Visual Studio\2022\Professional\VC\Tools\MSVC\14.44.35207\include\xtree

; 1042 :         return {_Scary->_Insert_node(_Loc._Location, _Inserted), true};

  0020e	e8 00 00 00 00	 call	 ?_Insert_node@?$_Tree_val@U?$_Tree_simple_types@U?$pair@$$CBHU__KAWIBAWIBO@CMiniGame@@@std@@@std@@@std@@QAEPAU?$_Tree_node@U?$pair@$$CBHU__KAWIBAWIBO@CMiniGame@@@std@@PAX@2@U?$_Tree_id@PAU?$_Tree_node@U?$pair@$$CBHU__KAWIBAWIBO@CMiniGame@@@std@@PAX@std@@@2@QAU32@@Z ; std::_Tree_val<std::_Tree_simple_types<std::pair<int const ,CMiniGame::__KAWIBAWIBO> > >::_Insert_node
  00213	8b bd 90 f7 ff
	ff		 mov	 edi, DWORD PTR _nWinCount$1$[ebp]
$LN129@Load_KawiB:
; File C:\IAGOS\server\v18\Source\Source\_Common\MiniGame.cpp

; 749  : 			if( nMaxWin < nWinCount )

  00219	3b f7		 cmp	 esi, edi
  0021b	0f 4c f7	 cmovl	 esi, edi
$LN7@Load_KawiB:

; 750  : 				nMaxWin = nWinCount;
; 751  : 		}
; 752  : 		s.GetToken();

  0021e	6a 00		 push	 0
  00220	8d 8d 98 f7 ff
	ff		 lea	 ecx, DWORD PTR _s$[ebp]
  00226	e8 00 00 00 00	 call	 ?GetToken@CScanner@@UAEHH@Z ; CScanner::GetToken
  0022b	83 7d dc 15	 cmp	 DWORD PTR _s$[ebp+2116], 21 ; 00000015H
  0022f	0f 85 4b fe ff
	ff		 jne	 $LL2@Load_KawiB

; 726  : 	while( s.tok != FINISHED )

  00235	8b bd 94 f7 ff
	ff		 mov	 edi, DWORD PTR _this$GSCopy$1$[ebp]
$LN151@Load_KawiB:

; 753  : 	}	
; 754  : 
; 755  : 	nKawiBawiBo_MaxWin = nMaxWin;

  0023b	89 77 14	 mov	 DWORD PTR [edi+20], esi

; 756  : 	return TRUE;

  0023e	be 01 00 00 00	 mov	 esi, 1
  00243	eb 0f		 jmp	 SHORT $LN11@Load_KawiB
$LN147@Load_KawiB:

; 739  : 			{
; 740  : 				Error( "CMiniGame::Load_KawiBawiBo() ľĆŔĚĹŰŔĚ ľř´Â°ÍŔ» ĽłÁ¤ÇßŔ˝" );

  00245	68 00 00 00 00	 push	 OFFSET ??_C@_0DI@EBFDDJPH@CMiniGame?3?3Load_KawiBawiBo?$CI?$CJ?5?$LO?F@
  0024a	e8 00 00 00 00	 call	 ?Error@@YAPBDPBDZZ	; Error
  0024f	83 c4 04	 add	 esp, 4
$LN10@Load_KawiB:
  00252	33 f6		 xor	 esi, esi
$LN11@Load_KawiB:

; 756  : 	return TRUE;

  00254	8d 8d 98 f7 ff
	ff		 lea	 ecx, DWORD PTR _s$[ebp]
  0025a	e8 00 00 00 00	 call	 ??1CScanner@@UAE@XZ	; CScanner::~CScanner
  0025f	8b c6		 mov	 eax, esi

; 757  : }

  00261	8b 4d f4	 mov	 ecx, DWORD PTR __$EHRec$[ebp]
  00264	64 89 0d 00 00
	00 00		 mov	 DWORD PTR fs:0, ecx
  0026b	59		 pop	 ecx
  0026c	5f		 pop	 edi
  0026d	5e		 pop	 esi
  0026e	8b 4d f0	 mov	 ecx, DWORD PTR __$ArrayPad$[ebp]
  00271	33 cd		 xor	 ecx, ebp
  00273	e8 00 00 00 00	 call	 @__security_check_cookie@4
  00278	8b e5		 mov	 esp, ebp
  0027a	5d		 pop	 ebp
  0027b	c3		 ret	 0
$LN148@Load_KawiB:
; File C:\Program Files\Microsoft Visual Studio\2022\Professional\VC\Tools\MSVC\14.44.35207\include\xtree

; 1649 :             _Throw_tree_length_error();

  0027c	e8 00 00 00 00	 call	 ?_Throw_tree_length_error@std@@YAXXZ ; std::_Throw_tree_length_error
$LN158@Load_KawiB:
  00281	cc		 int	 3
_TEXT	ENDS
;	COMDAT text$x
text$x	SEGMENT
__unwindfunclet$?Load_KawiBawiBo@CMiniGame@@QAEHXZ$0:
  00000	8d 8d 98 f7 ff
	ff		 lea	 ecx, DWORD PTR _s$[ebp]
  00006	e9 00 00 00 00	 jmp	 ??1CScanner@@UAE@XZ	; CScanner::~CScanner
__unwindfunclet$?Load_KawiBawiBo@CMiniGame@@QAEHXZ$3:
  0000b	8d 8d 7c f7 ff
	ff		 lea	 ecx, DWORD PTR $T5[ebp]
  00011	e9 00 00 00 00	 jmp	 ??1?$_Alloc_construct_ptr@V?$allocator@U?$_Tree_node@U?$pair@$$CBHU__KAWIBAWIBO@CMiniGame@@@std@@PAX@std@@@std@@@std@@QAE@XZ ; std::_Alloc_construct_ptr<std::allocator<std::_Tree_node<std::pair<int const ,CMiniGame::__KAWIBAWIBO>,void *> > >::~_Alloc_construct_ptr<std::allocator<std::_Tree_node<std::pair<int const ,CMiniGame::__KAWIBAWIBO>,void *> > >
  00016	cc		 int	 3
  00017	cc		 int	 3
  00018	cc		 int	 3
  00019	cc		 int	 3
  0001a	cc		 int	 3
__ehhandler$?Load_KawiBawiBo@CMiniGame@@QAEHXZ:
  0001b	90		 npad	 1
  0001c	90		 npad	 1
  0001d	8b 54 24 08	 mov	 edx, DWORD PTR [esp+8]
  00021	8d 42 0c	 lea	 eax, DWORD PTR [edx+12]
  00024	8b 8a 4c f7 ff
	ff		 mov	 ecx, DWORD PTR [edx-2228]
  0002a	33 c8		 xor	 ecx, eax
  0002c	e8 00 00 00 00	 call	 @__security_check_cookie@4
  00031	8b 4a fc	 mov	 ecx, DWORD PTR [edx-4]
  00034	33 c8		 xor	 ecx, eax
  00036	e8 00 00 00 00	 call	 @__security_check_cookie@4
  0003b	b8 00 00 00 00	 mov	 eax, OFFSET __ehfuncinfo$?Load_KawiBawiBo@CMiniGame@@QAEHXZ
  00040	e9 00 00 00 00	 jmp	 ___CxxFrameHandler3
text$x	ENDS
?Load_KawiBawiBo@CMiniGame@@QAEHXZ ENDP			; CMiniGame::Load_KawiBawiBo
; Function compile flags: /Ogtp
; File C:\IAGOS\server\v18\Source\Source\_Common\MiniGame.cpp
; File C:\Program Files\Microsoft Visual Studio\2022\Professional\VC\Tools\MSVC\14.44.35207\include\xmemory
; File C:\Program Files\Microsoft Visual Studio\2022\Professional\VC\Tools\MSVC\14.44.35207\include\xtree
; File C:\Program Files\Microsoft Visual Studio\2022\Professional\VC\Tools\MSVC\14.44.35207\include\xmemory
; File C:\Program Files\Microsoft Visual Studio\2022\Professional\VC\Tools\MSVC\14.44.35207\include\xtree
; File C:\IAGOS\server\v18\Source\Source\_Common\MiniGame.cpp
; File C:\Program Files\Microsoft Visual Studio\2022\Professional\VC\Tools\MSVC\14.44.35207\atlmfc\include\cstringt.h
; File C:\Program Files\Microsoft Visual Studio\2022\Professional\VC\Tools\MSVC\14.44.35207\atlmfc\include\atlsimpstr.h
; File C:\Program Files\Microsoft Visual Studio\2022\Professional\VC\Tools\MSVC\14.44.35207\atlmfc\include\cstringt.h
; File C:\Program Files\Microsoft Visual Studio\2022\Professional\VC\Tools\MSVC\14.44.35207\atlmfc\include\atlsimpstr.h
; File C:\Program Files\Microsoft Visual Studio\2022\Professional\VC\Tools\MSVC\14.44.35207\atlmfc\include\cstringt.h
; File C:\Program Files\Microsoft Visual Studio\2022\Professional\VC\Tools\MSVC\14.44.35207\atlmfc\include\afxstr.h
; File C:\Program Files\Microsoft Visual Studio\2022\Professional\VC\Tools\MSVC\14.44.35207\atlmfc\include\cstringt.h
; File C:\Program Files\Microsoft Visual Studio\2022\Professional\VC\Tools\MSVC\14.44.35207\atlmfc\include\atlsimpstr.h
; File C:\Program Files (x86)\Windows Kits\10\Include\10.0.26100.0\ucrt\corecrt_memcpy_s.h
; File C:\IAGOS\server\v18\Source\Source\_Common\MiniGame.cpp
; File C:\Program Files\Microsoft Visual Studio\2022\Professional\VC\Tools\MSVC\14.44.35207\atlmfc\include\atlsimpstr.h
; File C:\IAGOS\server\v18\Source\Source\_Common\MiniGame.cpp
; File C:\Program Files\Microsoft Visual Studio\2022\Professional\VC\Tools\MSVC\14.44.35207\atlmfc\include\afxstr.h
; File C:\Program Files\Microsoft Visual Studio\2022\Professional\VC\Tools\MSVC\14.44.35207\atlmfc\include\atlsimpstr.h
; File C:\IAGOS\server\v18\Source\Source\_Common\MiniGame.cpp
; File C:\Program Files\Microsoft Visual Studio\2022\Professional\VC\Tools\MSVC\14.44.35207\atlmfc\include\atlsimpstr.h
; File C:\Program Files\Microsoft Visual Studio\2022\Professional\VC\Tools\MSVC\14.44.35207\include\utility
; File C:\Program Files\Microsoft Visual Studio\2022\Professional\VC\Tools\MSVC\14.44.35207\atlmfc\include\atlsimpstr.h
; File C:\Program Files\Microsoft Visual Studio\2022\Professional\VC\Tools\MSVC\14.44.35207\include\utility
; File C:\Program Files\Microsoft Visual Studio\2022\Professional\VC\Tools\MSVC\14.44.35207\atlmfc\include\atlsimpstr.h
; File C:\Program Files\Microsoft Visual Studio\2022\Professional\VC\Tools\MSVC\14.44.35207\include\xtree
; File C:\IAGOS\server\v18\Source\Source\_Common\MiniGame.cpp
; File C:\Program Files\Microsoft Visual Studio\2022\Professional\VC\Tools\MSVC\14.44.35207\include\xtree
; File C:\Program Files\Microsoft Visual Studio\2022\Professional\VC\Tools\MSVC\14.44.35207\include\type_traits
; File C:\Program Files\Microsoft Visual Studio\2022\Professional\VC\Tools\MSVC\14.44.35207\include\xtree
; File C:\Program Files\Microsoft Visual Studio\2022\Professional\VC\Tools\MSVC\14.44.35207\include\xmemory
; File C:\Program Files\Microsoft Visual Studio\2022\Professional\VC\Tools\MSVC\14.44.35207\include\xtree
; File C:\Program Files\Microsoft Visual Studio\2022\Professional\VC\Tools\MSVC\14.44.35207\include\xmemory
; File C:\Program Files\Microsoft Visual Studio\2022\Professional\VC\Tools\MSVC\14.44.35207\include\utility
; File C:\Program Files\Microsoft Visual Studio\2022\Professional\VC\Tools\MSVC\14.44.35207\atlmfc\include\atlsimpstr.h
; File C:\Program Files\Microsoft Visual Studio\2022\Professional\VC\Tools\MSVC\14.44.35207\include\xtree
; File C:\Program Files\Microsoft Visual Studio\2022\Professional\VC\Tools\MSVC\14.44.35207\include\utility
; File C:\Program Files\Microsoft Visual Studio\2022\Professional\VC\Tools\MSVC\14.44.35207\atlmfc\include\atlsimpstr.h
; File C:\Program Files\Microsoft Visual Studio\2022\Professional\VC\Tools\MSVC\14.44.35207\include\utility
; File C:\Program Files\Microsoft Visual Studio\2022\Professional\VC\Tools\MSVC\14.44.35207\atlmfc\include\atlsimpstr.h
; File C:\Program Files\Microsoft Visual Studio\2022\Professional\VC\Tools\MSVC\14.44.35207\include\xtree
; File C:\Program Files\Microsoft Visual Studio\2022\Professional\VC\Tools\MSVC\14.44.35207\atlmfc\include\atlsimpstr.h
; File C:\Program Files\Microsoft Visual Studio\2022\Professional\VC\Tools\MSVC\14.44.35207\include\xtree
; File C:\IAGOS\server\v18\Source\Source\_Common\MiniGame.cpp
; File C:\Program Files\Microsoft Visual Studio\2022\Professional\VC\Tools\MSVC\14.44.35207\atlmfc\include\atlsimpstr.h
; File C:\IAGOS\server\v18\Source\Source\_Common\MiniGame.cpp
; File C:\Program Files\Microsoft Visual Studio\2022\Professional\VC\Tools\MSVC\14.44.35207\atlmfc\include\atlsimpstr.h
; File C:\IAGOS\server\v18\Source\Source\_Common\MiniGame.cpp
; File C:\Program Files\Microsoft Visual Studio\2022\Professional\VC\Tools\MSVC\14.44.35207\atlmfc\include\atlsimpstr.h
; File C:\IAGOS\server\v18\Source\Source\_Common\MiniGame.cpp
; File C:\Program Files\Microsoft Visual Studio\2022\Professional\VC\Tools\MSVC\14.44.35207\atlmfc\include\cstringt.h
; File C:\IAGOS\server\v18\Source\Source\_Common\MiniGame.cpp
; File C:\Program Files\Microsoft Visual Studio\2022\Professional\VC\Tools\MSVC\14.44.35207\atlmfc\include\cstringt.h
; File C:\IAGOS\server\v18\Source\Source\_Common\MiniGame.cpp
; File C:\Program Files\Microsoft Visual Studio\2022\Professional\VC\Tools\MSVC\14.44.35207\atlmfc\include\cstringt.h
; File C:\Program Files\Microsoft Visual Studio\2022\Professional\VC\Tools\MSVC\14.44.35207\atlmfc\include\atlsimpstr.h
; File C:\Program Files\Microsoft Visual Studio\2022\Professional\VC\Tools\MSVC\14.44.35207\atlmfc\include\cstringt.h
; File C:\Program Files\Microsoft Visual Studio\2022\Professional\VC\Tools\MSVC\14.44.35207\atlmfc\include\atlchecked.h
; File C:\Program Files\Microsoft Visual Studio\2022\Professional\VC\Tools\MSVC\14.44.35207\atlmfc\include\afx.h
; File C:\Program Files\Microsoft Visual Studio\2022\Professional\VC\Tools\MSVC\14.44.35207\atlmfc\include\atlsimpstr.h
; File C:\IAGOS\server\v18\Source\Source\_Common\MiniGame.cpp
; File C:\Program Files\Microsoft Visual Studio\2022\Professional\VC\Tools\MSVC\14.44.35207\atlmfc\include\atlsimpstr.h
; File C:\IAGOS\server\v18\Source\Source\_Common\MiniGame.cpp
; File C:\Program Files\Microsoft Visual Studio\2022\Professional\VC\Tools\MSVC\14.44.35207\atlmfc\include\atlsimpstr.h
; File C:\IAGOS\server\v18\Source\Source\_Common\MiniGame.cpp
; File C:\Program Files\Microsoft Visual Studio\2022\Professional\VC\Tools\MSVC\14.44.35207\include\xtree
; File C:\IAGOS\server\v18\Source\Source\_Common\MiniGame.cpp
; File C:\Program Files\Microsoft Visual Studio\2022\Professional\VC\Tools\MSVC\14.44.35207\include\xtree
; File C:\IAGOS\server\v18\Source\Source\_Common\MiniGame.cpp
; File C:\Program Files\Microsoft Visual Studio\2022\Professional\VC\Tools\MSVC\14.44.35207\include\xtree
; File C:\Program Files\Microsoft Visual Studio\2022\Professional\VC\Tools\MSVC\14.44.35207\include\type_traits
; File C:\Program Files\Microsoft Visual Studio\2022\Professional\VC\Tools\MSVC\14.44.35207\include\xtree
; File C:\Program Files\Microsoft Visual Studio\2022\Professional\VC\Tools\MSVC\14.44.35207\atlmfc\include\atlsimpstr.h
; File C:\Program Files\Microsoft Visual Studio\2022\Professional\VC\Tools\MSVC\14.44.35207\include\xtree
; File C:\IAGOS\server\v18\Source\Source\_Common\MiniGame.cpp
; File C:\Program Files\Microsoft Visual Studio\2022\Professional\VC\Tools\MSVC\14.44.35207\include\vector
; File C:\IAGOS\server\v18\Source\Source\_Common\MiniGame.cpp
; File C:\Program Files\Microsoft Visual Studio\2022\Professional\VC\Tools\MSVC\14.44.35207\include\vector
; File C:\Program Files\Microsoft Visual Studio\2022\Professional\VC\Tools\MSVC\14.44.35207\include\xutility
; File C:\Program Files\Microsoft Visual Studio\2022\Professional\VC\Tools\MSVC\14.44.35207\include\vector
; File C:\IAGOS\server\v18\Source\Source\_Common\MiniGame.cpp
; File C:\Program Files\Microsoft Visual Studio\2022\Professional\VC\Tools\MSVC\14.44.35207\include\vector
; File C:\Program Files\Microsoft Visual Studio\2022\Professional\VC\Tools\MSVC\14.44.35207\include\xmemory
; File C:\Program Files\Microsoft Visual Studio\2022\Professional\VC\Tools\MSVC\14.44.35207\include\vector
; File C:\IAGOS\server\v18\Source\Source\_Common\MiniGame.cpp
; File C:\Program Files\Microsoft Visual Studio\2022\Professional\VC\Tools\MSVC\14.44.35207\include\vector
; File C:\Program Files\Microsoft Visual Studio\2022\Professional\VC\Tools\MSVC\14.44.35207\atlmfc\include\atlsimpstr.h
; File C:\IAGOS\server\v18\Source\Source\_Common\MiniGame.cpp
; File C:\Program Files\Microsoft Visual Studio\2022\Professional\VC\Tools\MSVC\14.44.35207\include\vector
; File C:\Program Files\Microsoft Visual Studio\2022\Professional\VC\Tools\MSVC\14.44.35207\atlmfc\include\atlsimpstr.h
; File C:\Program Files\Microsoft Visual Studio\2022\Professional\VC\Tools\MSVC\14.44.35207\include\xtree
; File C:\IAGOS\server\v18\Source\Source\_Common\MiniGame.cpp
; File C:\Program Files\Microsoft Visual Studio\2022\Professional\VC\Tools\MSVC\14.44.35207\include\xtree
; File C:\Program Files\Microsoft Visual Studio\2022\Professional\VC\Tools\MSVC\14.44.35207\include\xmemory
; File C:\IAGOS\server\v18\Source\Source\_Common\MiniGame.cpp
; File C:\Program Files\Microsoft Visual Studio\2022\Professional\VC\Tools\MSVC\14.44.35207\include\xtree
; File C:\Program Files\Microsoft Visual Studio\2022\Professional\VC\Tools\MSVC\14.44.35207\atlmfc\include\atlsimpstr.h
; File C:\IAGOS\server\v18\Source\Source\_Common\MiniGame.cpp
; File C:\Program Files\Microsoft Visual Studio\2022\Professional\VC\Tools\MSVC\14.44.35207\atlmfc\include\atlsimpstr.h
; File C:\Program Files\Microsoft Visual Studio\2022\Professional\VC\Tools\MSVC\14.44.35207\atlmfc\include\afx.h
; File C:\IAGOS\server\v18\Source\Source\_Common\MiniGame.cpp
;	COMDAT ?Load_Alphabet@CMiniGame@@QAEHXZ
_TEXT	SEGMENT
__Loc$2 = -2236						; size = 12
__Loc$3 = -2236						; size = 12
$T4 = -2224						; size = 8
_ItemGame$5 = -2216					; size = 12
$T6 = -2212						; size = 8
_Alpabet$7 = -2204					; size = 24
$T8 = -2192						; size = 12
_this$ = -2180						; size = 4
_nID$1$ = -2180						; size = 4
_this$GSCopy$1$ = -2176					; size = 4
_strQuestion$9 = -2172					; size = 4
$T10 = -2168						; size = 4
_pData$1$ = -2168					; size = 4
$T11 = -2164						; size = 4
_pData$1$ = -2164					; size = 4
_pNewData$1$ = -2164					; size = 4
_mapQuestion$ = -2160					; size = 8
_s$ = -2152						; size = 2136
__$ArrayPad$ = -16					; size = 4
__$EHRec$ = -12						; size = 12
?Load_Alphabet@CMiniGame@@QAEHXZ PROC			; CMiniGame::Load_Alphabet, COMDAT
; _this$ = ecx

; 646  : {

  00000	55		 push	 ebp
  00001	8b ec		 mov	 ebp, esp
  00003	6a ff		 push	 -1
  00005	68 00 00 00 00	 push	 __ehhandler$?Load_Alphabet@CMiniGame@@QAEHXZ
  0000a	64 a1 00 00 00
	00		 mov	 eax, DWORD PTR fs:0
  00010	50		 push	 eax
  00011	81 ec b0 08 00
	00		 sub	 esp, 2224		; 000008b0H
  00017	a1 00 00 00 00	 mov	 eax, DWORD PTR ___security_cookie
  0001c	33 c5		 xor	 eax, ebp
  0001e	89 45 f0	 mov	 DWORD PTR __$ArrayPad$[ebp], eax
  00021	53		 push	 ebx
  00022	56		 push	 esi
  00023	57		 push	 edi
  00024	50		 push	 eax
  00025	8d 45 f4	 lea	 eax, DWORD PTR __$EHRec$[ebp]
  00028	64 a3 00 00 00
	00		 mov	 DWORD PTR fs:0, eax
  0002e	8b f1		 mov	 esi, ecx
  00030	89 b5 80 f7 ff
	ff		 mov	 DWORD PTR _this$GSCopy$1$[ebp], esi

; 647  : 	CScanner s;

  00036	6a 00		 push	 0
  00038	8d 8d 98 f7 ff
	ff		 lea	 ecx, DWORD PTR _s$[ebp]
  0003e	e8 00 00 00 00	 call	 ??0CScanner@@QAE@H@Z	; CScanner::CScanner

; 648  : 	if( !s.Load( "MiniGame_Alphabet.txt.txt" ) )

  00043	6a 01		 push	 1
  00045	68 00 00 00 00	 push	 OFFSET ??_C@_0BK@MHCFMFAB@MiniGame_Alphabet?4txt?4txt@
  0004a	8d 8d 98 f7 ff
	ff		 lea	 ecx, DWORD PTR _s$[ebp]
  00050	c7 45 fc 00 00
	00 00		 mov	 DWORD PTR __$EHRec$[ebp+8], 0
  00057	e8 00 00 00 00	 call	 ?Load@CScanner@@QAEHPBDH@Z ; CScanner::Load
  0005c	85 c0		 test	 eax, eax
  0005e	75 07		 jne	 SHORT $LN8@Load_Alpha
  00060	33 f6		 xor	 esi, esi
  00062	e9 c4 06 00 00	 jmp	 $LN366@Load_Alpha
$LN8@Load_Alpha:
; File C:\Program Files\Microsoft Visual Studio\2022\Professional\VC\Tools\MSVC\14.44.35207\include\xmemory

; 136  :         return ::operator new(_Bytes);

  00067	6a 18		 push	 24			; 00000018H
; File C:\Program Files\Microsoft Visual Studio\2022\Professional\VC\Tools\MSVC\14.44.35207\include\xtree

; 450  :     _Tree_val() noexcept : _Myhead(), _Mysize(0) {}

  00069	c7 85 90 f7 ff
	ff 00 00 00 00	 mov	 DWORD PTR _mapQuestion$[ebp], 0
  00073	c7 85 94 f7 ff
	ff 00 00 00 00	 mov	 DWORD PTR _mapQuestion$[ebp+4], 0
; File C:\Program Files\Microsoft Visual Studio\2022\Professional\VC\Tools\MSVC\14.44.35207\include\xmemory

; 136  :         return ::operator new(_Bytes);

  0007d	e8 00 00 00 00	 call	 ??2@YAPAXI@Z		; operator new
  00082	83 c4 04	 add	 esp, 4
; File C:\Program Files\Microsoft Visual Studio\2022\Professional\VC\Tools\MSVC\14.44.35207\include\xtree

; 346  :         _Construct_in_place(_Pnode->_Left, _Pnode);

  00085	89 00		 mov	 DWORD PTR [eax], eax

; 347  :         _Construct_in_place(_Pnode->_Parent, _Pnode);

  00087	89 40 04	 mov	 DWORD PTR [eax+4], eax

; 348  :         _Construct_in_place(_Pnode->_Right, _Pnode);

  0008a	89 40 08	 mov	 DWORD PTR [eax+8], eax

; 349  :         _Pnode->_Color = _Black;

  0008d	66 c7 40 0c 01
	01		 mov	 WORD PTR [eax+12], 257	; 00000101H

; 1957 :         _Scary->_Myhead = _Node::_Buyheadnode(_Getal());

  00093	89 85 90 f7 ff
	ff		 mov	 DWORD PTR _mapQuestion$[ebp], eax
; File C:\IAGOS\server\v18\Source\Source\_Common\MiniGame.cpp

; 652  : 	s.GetToken();

  00099	6a 00		 push	 0
  0009b	8d 8d 98 f7 ff
	ff		 lea	 ecx, DWORD PTR _s$[ebp]
  000a1	c6 45 fc 01	 mov	 BYTE PTR __$EHRec$[ebp+8], 1
  000a5	e8 00 00 00 00	 call	 ?GetToken@CScanner@@UAEHH@Z ; CScanner::GetToken

; 653  : 	while( s.tok != FINISHED )

  000aa	83 cb ff	 or	 ebx, -1
  000ad	83 7d dc 15	 cmp	 DWORD PTR _s$[ebp+2116], 21 ; 00000015H
  000b1	0f 84 b8 02 00
	00		 je	 $LN3@Load_Alpha
  000b7	66 0f 1f 84 00
	00 00 00 00	 npad	 9
$LL2@Load_Alpha:
; File C:\Program Files\Microsoft Visual Studio\2022\Professional\VC\Tools\MSVC\14.44.35207\atlmfc\include\cstringt.h

; 2144 : 		int nLength = this->GetLength();

  000c0	8b 85 b8 f7 ff
	ff		 mov	 eax, DWORD PTR _s$[ebp+32]
  000c6	8b 70 f4	 mov	 esi, DWORD PTR [eax-12]

; 2145 : 		if( nCount >= nLength )

  000c9	83 fe 04	 cmp	 esi, 4
  000cc	7f 11		 jg	 SHORT $LN41@Load_Alpha
; File C:\Program Files\Microsoft Visual Studio\2022\Professional\VC\Tools\MSVC\14.44.35207\atlmfc\include\atlsimpstr.h

; 804  : 		return( reinterpret_cast< CStringData* >( m_pszData )-1 );

  000ce	83 c0 f0	 add	 eax, -16		; fffffff0H

; 217  : 		CStringData* pNewData = CloneData( pSrcData );

  000d1	50		 push	 eax
  000d2	e8 00 00 00 00	 call	 ?CloneData@?$CSimpleStringT@D$0A@@ATL@@CAPAUCStringData@2@PAU32@@Z ; ATL::CSimpleStringT<char,0>::CloneData
  000d7	83 c4 04	 add	 esp, 4

; 218  : 		Attach( pNewData );

  000da	8d 70 10	 lea	 esi, DWORD PTR [eax+16]
; File C:\Program Files\Microsoft Visual Studio\2022\Professional\VC\Tools\MSVC\14.44.35207\atlmfc\include\cstringt.h

; 2147 : 			return( *this );

  000dd	eb 78		 jmp	 SHORT $LN95@Load_Alpha
$LN41@Load_Alpha:
; File C:\Program Files\Microsoft Visual Studio\2022\Professional\VC\Tools\MSVC\14.44.35207\atlmfc\include\atlsimpstr.h

; 527  : 		IAtlStringMgr* pStringMgr = GetData()->pStringMgr;

  000df	8b 48 f0	 mov	 ecx, DWORD PTR [eax-16]

; 528  : 		return pStringMgr ? pStringMgr->Clone() : NULL;

  000e2	85 c9		 test	 ecx, ecx
  000e4	74 1a		 je	 SHORT $LN57@Load_Alpha
  000e6	8b 01		 mov	 eax, DWORD PTR [ecx]
  000e8	ff 50 10	 call	 DWORD PTR [eax+16]
  000eb	8b c8		 mov	 ecx, eax
; File C:\Program Files\Microsoft Visual Studio\2022\Professional\VC\Tools\MSVC\14.44.35207\atlmfc\include\cstringt.h

; 1442 : 		if(pStringMgr) { return pStringMgr; }

  000ed	85 c9		 test	 ecx, ecx
  000ef	74 0f		 je	 SHORT $LN57@Load_Alpha
  000f1	8b bd b8 f7 ff
	ff		 mov	 edi, DWORD PTR _s$[ebp+32]
  000f7	83 c7 fc	 add	 edi, -4			; fffffffcH
  000fa	03 fe		 add	 edi, esi
  000fc	8b c7		 mov	 eax, edi
  000fe	eb 23		 jmp	 SHORT $LN602@Load_Alpha
$LN57@Load_Alpha:
; File C:\Program Files\Microsoft Visual Studio\2022\Professional\VC\Tools\MSVC\14.44.35207\atlmfc\include\afxstr.h

; 56   : 		return( AfxGetStringManager() );

  00100	e8 00 00 00 00	 call	 ?AfxGetStringManager@@YGPAUIAtlStringMgr@ATL@@XZ ; AfxGetStringManager
; File C:\Program Files\Microsoft Visual Studio\2022\Professional\VC\Tools\MSVC\14.44.35207\atlmfc\include\cstringt.h

; 1445 : 		return pStringMgr->Clone();

  00105	8b c8		 mov	 ecx, eax
  00107	8b 10		 mov	 edx, DWORD PTR [eax]
  00109	ff 52 10	 call	 DWORD PTR [edx+16]

; 2150 : 		return( CStringT( this->GetString()+nLength-nCount, nCount, GetManager() ) );

  0010c	8b bd b8 f7 ff
	ff		 mov	 edi, DWORD PTR _s$[ebp+32]

; 1445 : 		return pStringMgr->Clone();

  00112	8b c8		 mov	 ecx, eax

; 2150 : 		return( CStringT( this->GetString()+nLength-nCount, nCount, GetManager() ) );

  00114	83 c7 fc	 add	 edi, -4			; fffffffcH
  00117	03 fe		 add	 edi, esi
  00119	8b c7		 mov	 eax, edi
; File C:\Program Files\Microsoft Visual Studio\2022\Professional\VC\Tools\MSVC\14.44.35207\atlmfc\include\atlsimpstr.h

; 249  : 		ATLENSURE( pStringMgr != NULL );

  0011b	85 c9		 test	 ecx, ecx
  0011d	0f 84 45 06 00
	00		 je	 $LN576@Load_Alpha
$LN602@Load_Alpha:

; 250  : 
; 251  : 		if(pchSrc == NULL && nLength != 0)

  00123	85 c0		 test	 eax, eax
  00125	0f 84 33 06 00
	00		 je	 $LN579@Load_Alpha

; 252  : 			AtlThrow(E_INVALIDARG);
; 253  : 
; 254  : 		CStringData* pData = pStringMgr->Allocate( nLength, sizeof( XCHAR ) );

  0012b	8b 01		 mov	 eax, DWORD PTR [ecx]
  0012d	6a 01		 push	 1
  0012f	6a 04		 push	 4
  00131	ff 10		 call	 DWORD PTR [eax]

; 255  : 		if( pData == NULL )

  00133	85 c0		 test	 eax, eax
  00135	0f 84 1e 06 00
	00		 je	 $LN578@Load_Alpha

; 875  : 		if( nLength < 0 || nLength > GetData()->nAllocLength)

  0013b	83 78 08 04	 cmp	 DWORD PTR [eax+8], 4

; 259  : 		Attach( pData );

  0013f	8d 70 10	 lea	 esi, DWORD PTR [eax+16]

; 875  : 		if( nLength < 0 || nLength > GetData()->nAllocLength)

  00142	0f 8c 16 06 00
	00		 jl	 $LN579@Load_Alpha

; 876  : 			AtlThrow(E_INVALIDARG);
; 877  : 
; 878  : 		GetData()->nDataLength = nLength;

  00148	c7 46 f4 04 00
	00 00		 mov	 DWORD PTR [esi-12], 4

; 879  : 		m_pszData[nLength] = 0;

  0014f	c6 46 04 00	 mov	 BYTE PTR [esi+4], 0
; File C:\Program Files (x86)\Windows Kits\10\Include\10.0.26100.0\ucrt\corecrt_memcpy_s.h

; 63   :         memcpy(_Destination, _Source, _SourceSize);

  00153	8b 07		 mov	 eax, DWORD PTR [edi]
  00155	89 06		 mov	 DWORD PTR [esi], eax
$LN95@Load_Alpha:
; File C:\IAGOS\server\v18\Source\Source\_Common\MiniGame.cpp

; 655  : 		int nID = atoi( s.Token.Right(4) );

  00157	56		 push	 esi
  00158	e8 00 00 00 00	 call	 _atoi
  0015d	89 85 7c f7 ff
	ff		 mov	 DWORD PTR _nID$1$[ebp], eax
  00163	83 c4 04	 add	 esp, 4
; File C:\Program Files\Microsoft Visual Studio\2022\Professional\VC\Tools\MSVC\14.44.35207\atlmfc\include\atlsimpstr.h

; 804  : 		return( reinterpret_cast< CStringData* >( m_pszData )-1 );

  00166	83 c6 f0	 add	 esi, -16		; fffffff0H

; 92   : 		if( _InterlockedDecrement( &nRefs ) <= 0 )

  00169	8b c3		 mov	 eax, ebx
  0016b	f0 0f c1 46 0c	 lock	  xadd	 DWORD PTR [esi+12], eax
  00170	48		 dec	 eax
  00171	85 c0		 test	 eax, eax
  00173	7f 08		 jg	 SHORT $LN108@Load_Alpha

; 93   : 		{
; 94   : 			pStringMgr->Free( this );

  00175	8b 0e		 mov	 ecx, DWORD PTR [esi]
  00177	56		 push	 esi
  00178	8b 01		 mov	 eax, DWORD PTR [ecx]
  0017a	ff 50 04	 call	 DWORD PTR [eax+4]
$LN108@Load_Alpha:
; File C:\IAGOS\server\v18\Source\Source\_Common\MiniGame.cpp

; 656  : 		s.GetLastFull();

  0017d	8d 8d 98 f7 ff
	ff		 lea	 ecx, DWORD PTR _s$[ebp]
  00183	e8 00 00 00 00	 call	 ?GetLastFull@CScanner@@QAEXXZ ; CScanner::GetLastFull
; File C:\Program Files\Microsoft Visual Studio\2022\Professional\VC\Tools\MSVC\14.44.35207\atlmfc\include\afxstr.h

; 56   : 		return( AfxGetStringManager() );

  00188	e8 00 00 00 00	 call	 ?AfxGetStringManager@@YGPAUIAtlStringMgr@ATL@@XZ ; AfxGetStringManager
  0018d	8b c8		 mov	 ecx, eax
; File C:\Program Files\Microsoft Visual Studio\2022\Professional\VC\Tools\MSVC\14.44.35207\atlmfc\include\atlsimpstr.h

; 209  : 		ATLENSURE( pStringMgr != NULL );

  0018f	85 c9		 test	 ecx, ecx
  00191	0f 84 d1 05 00
	00		 je	 $LN576@Load_Alpha

; 210  : 		CStringData* pData = pStringMgr->GetNilString();

  00197	8b 01		 mov	 eax, DWORD PTR [ecx]
  00199	ff 50 0c	 call	 DWORD PTR [eax+12]

; 211  : 		Attach( pData );

  0019c	83 c0 10	 add	 eax, 16			; 00000010H
  0019f	89 85 84 f7 ff
	ff		 mov	 DWORD PTR _strQuestion$9[ebp], eax

; 804  : 		return( reinterpret_cast< CStringData* >( m_pszData )-1 );

  001a5	8b 8d b8 f7 ff
	ff		 mov	 ecx, DWORD PTR _s$[ebp+32]

; 276  : 		CStringData* pSrcData = strSrc.GetData();

  001ab	8d 70 f0	 lea	 esi, DWORD PTR [eax-16]
; File C:\IAGOS\server\v18\Source\Source\_Common\MiniGame.cpp

; 657  : 		CString strQuestion;

  001ae	c6 45 fc 02	 mov	 BYTE PTR __$EHRec$[ebp+8], 2
; File C:\Program Files\Microsoft Visual Studio\2022\Professional\VC\Tools\MSVC\14.44.35207\atlmfc\include\atlsimpstr.h

; 804  : 		return( reinterpret_cast< CStringData* >( m_pszData )-1 );

  001b2	8d 51 f0	 lea	 edx, DWORD PTR [ecx-16]

; 278  : 		if( pSrcData != pOldData)

  001b5	3b d6		 cmp	 edx, esi
  001b7	74 57		 je	 SHORT $LN129@Load_Alpha

; 73   : 		return nRefs < 0;

  001b9	83 7e 0c 00	 cmp	 DWORD PTR [esi+12], 0
  001bd	8d 7e 0c	 lea	 edi, DWORD PTR [esi+12]

; 280  : 			if( pOldData->IsLocked() || pSrcData->pStringMgr != pOldData->pStringMgr )

  001c0	7c 39		 jl	 SHORT $LN130@Load_Alpha
  001c2	8b 02		 mov	 eax, DWORD PTR [edx]
  001c4	3b 06		 cmp	 eax, DWORD PTR [esi]
  001c6	75 33		 jne	 SHORT $LN130@Load_Alpha

; 283  : 			}
; 284  : 			else
; 285  : 			{
; 286  : 				CStringData* pNewData = CloneData( pSrcData );

  001c8	52		 push	 edx
  001c9	e8 00 00 00 00	 call	 ?CloneData@?$CSimpleStringT@D$0A@@ATL@@CAPAUCStringData@2@PAU32@@Z ; ATL::CSimpleStringT<char,0>::CloneData
  001ce	89 85 8c f7 ff
	ff		 mov	 DWORD PTR _pNewData$1$[ebp], eax
  001d4	83 c4 04	 add	 esp, 4

; 92   : 		if( _InterlockedDecrement( &nRefs ) <= 0 )

  001d7	8b c3		 mov	 eax, ebx
  001d9	f0 0f c1 07	 lock	  xadd	 DWORD PTR [edi], eax
  001dd	48		 dec	 eax
  001de	85 c0		 test	 eax, eax
  001e0	7f 08		 jg	 SHORT $LN143@Load_Alpha

; 93   : 		{
; 94   : 			pStringMgr->Free( this );

  001e2	8b 0e		 mov	 ecx, DWORD PTR [esi]
  001e4	56		 push	 esi
  001e5	8b 01		 mov	 eax, DWORD PTR [ecx]
  001e7	ff 50 04	 call	 DWORD PTR [eax+4]
$LN143@Load_Alpha:

; 288  : 				Attach( pNewData );

  001ea	8b 85 8c f7 ff
	ff		 mov	 eax, DWORD PTR _pNewData$1$[ebp]
  001f0	83 c0 10	 add	 eax, 16			; 00000010H
  001f3	89 85 84 f7 ff
	ff		 mov	 DWORD PTR _strQuestion$9[ebp], eax
  001f9	eb 15		 jmp	 SHORT $LN129@Load_Alpha
$LN130@Load_Alpha:

; 281  : 			{
; 282  : 				SetString( strSrc.GetString(), strSrc.GetLength() );

  001fb	ff 71 f4	 push	 DWORD PTR [ecx-12]
  001fe	51		 push	 ecx
  001ff	8d 8d 84 f7 ff
	ff		 lea	 ecx, DWORD PTR _strQuestion$9[ebp]
  00205	e8 00 00 00 00	 call	 ?SetString@?$CSimpleStringT@D$0A@@ATL@@QAEXPBDH@Z ; ATL::CSimpleStringT<char,0>::SetString
  0020a	8b 85 84 f7 ff
	ff		 mov	 eax, DWORD PTR _strQuestion$9[ebp]
$LN129@Load_Alpha:
; File C:\Program Files\Microsoft Visual Studio\2022\Professional\VC\Tools\MSVC\14.44.35207\include\utility

; 274  :         : first(_STD forward<_Other1>(_Val1)), second(_STD forward<_Other2>(_Val2)) {

  00210	8b bd 7c f7 ff
	ff		 mov	 edi, DWORD PTR _nID$1$[ebp]
; File C:\Program Files\Microsoft Visual Studio\2022\Professional\VC\Tools\MSVC\14.44.35207\atlmfc\include\atlsimpstr.h

; 804  : 		return( reinterpret_cast< CStringData* >( m_pszData )-1 );

  00216	8d 70 f0	 lea	 esi, DWORD PTR [eax-16]

; 217  : 		CStringData* pNewData = CloneData( pSrcData );

  00219	56		 push	 esi
; File C:\Program Files\Microsoft Visual Studio\2022\Professional\VC\Tools\MSVC\14.44.35207\include\utility

; 274  :         : first(_STD forward<_Other1>(_Val1)), second(_STD forward<_Other2>(_Val2)) {

  0021a	89 bd 50 f7 ff
	ff		 mov	 DWORD PTR $T4[ebp], edi
; File C:\Program Files\Microsoft Visual Studio\2022\Professional\VC\Tools\MSVC\14.44.35207\atlmfc\include\atlsimpstr.h

; 804  : 		return( reinterpret_cast< CStringData* >( m_pszData )-1 );

  00220	89 b5 88 f7 ff
	ff		 mov	 DWORD PTR _pData$1$[ebp], esi

; 217  : 		CStringData* pNewData = CloneData( pSrcData );

  00226	e8 00 00 00 00	 call	 ?CloneData@?$CSimpleStringT@D$0A@@ATL@@CAPAUCStringData@2@PAU32@@Z ; ATL::CSimpleStringT<char,0>::CloneData
  0022b	8b d8		 mov	 ebx, eax
  0022d	83 c4 04	 add	 esp, 4
  00230	89 9d 8c f7 ff
	ff		 mov	 DWORD PTR _pData$1$[ebp], ebx

; 218  : 		Attach( pNewData );

  00236	8d 43 10	 lea	 eax, DWORD PTR [ebx+16]
  00239	89 85 54 f7 ff
	ff		 mov	 DWORD PTR $T4[ebp+4], eax
; File C:\Program Files\Microsoft Visual Studio\2022\Professional\VC\Tools\MSVC\14.44.35207\include\xtree

; 1017 :             _Loc                = _Find_lower_bound(_Keyval);

  0023f	8d 85 50 f7 ff
	ff		 lea	 eax, DWORD PTR $T4[ebp]
; File C:\IAGOS\server\v18\Source\Source\_Common\MiniGame.cpp

; 660  : 		mapQuestion.insert( make_pair( nID, strQuestion ) );

  00245	c6 45 fc 03	 mov	 BYTE PTR __$EHRec$[ebp+8], 3
; File C:\Program Files\Microsoft Visual Studio\2022\Professional\VC\Tools\MSVC\14.44.35207\include\xtree

; 1017 :             _Loc                = _Find_lower_bound(_Keyval);

  00249	50		 push	 eax
  0024a	8d 85 70 f7 ff
	ff		 lea	 eax, DWORD PTR $T8[ebp]
  00250	50		 push	 eax
  00251	8d 8d 90 f7 ff
	ff		 lea	 ecx, DWORD PTR _mapQuestion$[ebp]
  00257	e8 00 00 00 00	 call	 ??$_Find_lower_bound@H@?$_Tree@V?$_Tmap_traits@HV?$CStringT@DV?$StrTraitMFC@DV?$ChTraitsCRT@D@ATL@@@@@ATL@@U?$less@H@std@@V?$allocator@U?$pair@$$CBHV?$CStringT@DV?$StrTraitMFC@DV?$ChTraitsCRT@D@ATL@@@@@ATL@@@std@@@4@$0A@@std@@@std@@IBE?AU?$_Tree_find_result@PAU?$_Tree_node@U?$pair@$$CBHV?$CStringT@DV?$StrTraitMFC@DV?$ChTraitsCRT@D@ATL@@@@@ATL@@@std@@PAX@std@@@1@ABH@Z ; std::_Tree<std::_Tmap_traits<int,ATL::CStringT<char,StrTraitMFC<char,ATL::ChTraitsCRT<char> > >,std::less<int>,std::allocator<std::pair<int const ,ATL::CStringT<char,StrTraitMFC<char,ATL::ChTraitsCRT<char> > > > >,0> >::_Find_lower_bound<int>
  0025c	f3 0f 7e 00	 movq	 xmm0, QWORD PTR [eax]
  00260	8b 40 08	 mov	 eax, DWORD PTR [eax+8]
  00263	66 0f d6 85 44
	f7 ff ff	 movq	 QWORD PTR __Loc$2[ebp], xmm0

; 1624 :         return !_Bound->_Isnil && !_DEBUG_LT_PRED(_Getcomp(), _Keyval, _Traits::_Kfn(_Bound->_Myval));

  0026b	80 78 0d 00	 cmp	 BYTE PTR [eax+13], 0
  0026f	75 09		 jne	 SHORT $LN169@Load_Alpha
; File C:\Program Files\Microsoft Visual Studio\2022\Professional\VC\Tools\MSVC\14.44.35207\include\type_traits

; 2380 :         return _Left < _Right;

  00271	3b 78 10	 cmp	 edi, DWORD PTR [eax+16]
; File C:\Program Files\Microsoft Visual Studio\2022\Professional\VC\Tools\MSVC\14.44.35207\include\xtree

; 1624 :         return !_Bound->_Isnil && !_DEBUG_LT_PRED(_Getcomp(), _Keyval, _Traits::_Kfn(_Bound->_Myval));

  00274	0f 8d a4 00 00
	00		 jge	 $LN276@Load_Alpha
$LN169@Load_Alpha:

; 1648 :         if (max_size() == _Get_scary()->_Mysize) {

  0027a	81 bd 94 f7 ff
	ff aa aa aa 0a	 cmp	 DWORD PTR _mapQuestion$[ebp+4], 178956970 ; 0aaaaaaaH
  00284	0f 84 ca 04 00
	00		 je	 $LN581@Load_Alpha

; 1023 :             _Inserted = _Tree_temp_node<_Alnode>(_Getal(), _Scary->_Myhead, _STD forward<_Valtys>(_Vals)...)._Release();

  0028a	8b 9d 90 f7 ff
	ff		 mov	 ebx, DWORD PTR _mapQuestion$[ebp]
; File C:\Program Files\Microsoft Visual Studio\2022\Professional\VC\Tools\MSVC\14.44.35207\include\xmemory

; 1160 :     _CONSTEXPR20 explicit _Alloc_construct_ptr(_Alloc& _Al_) : _Al(_Al_), _Ptr(nullptr) {}

  00290	8d 85 90 f7 ff
	ff		 lea	 eax, DWORD PTR _mapQuestion$[ebp]
  00296	89 85 5c f7 ff
	ff		 mov	 DWORD PTR $T6[ebp], eax

; 136  :         return ::operator new(_Bytes);

  0029c	6a 18		 push	 24			; 00000018H
; File C:\Program Files\Microsoft Visual Studio\2022\Professional\VC\Tools\MSVC\14.44.35207\include\xtree

; 808  :     explicit _Tree_temp_node_alloc(_Alnode& _Al_) : _Alloc_construct_ptr<_Alnode>(_Al_) {

  0029e	c6 45 fc 04	 mov	 BYTE PTR __$EHRec$[ebp+8], 4
; File C:\Program Files\Microsoft Visual Studio\2022\Professional\VC\Tools\MSVC\14.44.35207\include\xmemory

; 1167 :         _Ptr = nullptr; // if allocate throws, prevents double-free

  002a2	c7 85 60 f7 ff
	ff 00 00 00 00	 mov	 DWORD PTR $T6[ebp+4], 0

; 136  :         return ::operator new(_Bytes);

  002ac	e8 00 00 00 00	 call	 ??2@YAPAXI@Z		; operator new

; 256  :         return _Traits::_Allocate(_Bytes);

  002b1	8b f8		 mov	 edi, eax

; 1168 :         _Ptr = _Al.allocate(1);

  002b3	89 bd 60 f7 ff
	ff		 mov	 DWORD PTR $T6[ebp+4], edi
; File C:\Program Files\Microsoft Visual Studio\2022\Professional\VC\Tools\MSVC\14.44.35207\include\utility

; 303  :         : first(_STD forward<_Other1>(_Right.first)), second(_STD forward<_Other2>(_Right.second)) {}

  002b9	8b 85 7c f7 ff
	ff		 mov	 eax, DWORD PTR _nID$1$[ebp]
  002bf	8d 77 14	 lea	 esi, DWORD PTR [edi+20]
; File C:\Program Files\Microsoft Visual Studio\2022\Professional\VC\Tools\MSVC\14.44.35207\atlmfc\include\atlsimpstr.h

; 217  : 		CStringData* pNewData = CloneData( pSrcData );

  002c2	ff b5 8c f7 ff
	ff		 push	 DWORD PTR _pData$1$[ebp]
; File C:\Program Files\Microsoft Visual Studio\2022\Professional\VC\Tools\MSVC\14.44.35207\include\xtree

; 829  :         : _Tree_temp_node_alloc<_Alnode>(_Al_) {

  002c8	c6 45 fc 05	 mov	 BYTE PTR __$EHRec$[ebp+8], 5
; File C:\Program Files\Microsoft Visual Studio\2022\Professional\VC\Tools\MSVC\14.44.35207\include\utility

; 303  :         : first(_STD forward<_Other1>(_Right.first)), second(_STD forward<_Other2>(_Right.second)) {}

  002cc	89 47 10	 mov	 DWORD PTR [edi+16], eax
  002cf	89 b5 7c f7 ff
	ff		 mov	 DWORD PTR _this$[ebp], esi
; File C:\Program Files\Microsoft Visual Studio\2022\Professional\VC\Tools\MSVC\14.44.35207\atlmfc\include\atlsimpstr.h

; 217  : 		CStringData* pNewData = CloneData( pSrcData );

  002d5	e8 00 00 00 00	 call	 ?CloneData@?$CSimpleStringT@D$0A@@ATL@@CAPAUCStringData@2@PAU32@@Z ; ATL::CSimpleStringT<char,0>::CloneData
  002da	83 c4 08	 add	 esp, 8
; File C:\Program Files\Microsoft Visual Studio\2022\Professional\VC\Tools\MSVC\14.44.35207\include\utility

; 774  :     _Val         = static_cast<_Other&&>(_New_val);

  002dd	c7 85 60 f7 ff
	ff 00 00 00 00	 mov	 DWORD PTR $T6[ebp+4], 0
; File C:\Program Files\Microsoft Visual Studio\2022\Professional\VC\Tools\MSVC\14.44.35207\atlmfc\include\atlsimpstr.h

; 218  : 		Attach( pNewData );

  002e7	83 c0 10	 add	 eax, 16			; 00000010H
; File C:\Program Files\Microsoft Visual Studio\2022\Professional\VC\Tools\MSVC\14.44.35207\include\xtree

; 1042 :         return {_Scary->_Insert_node(_Loc._Location, _Inserted), true};

  002ea	8d 8d 90 f7 ff
	ff		 lea	 ecx, DWORD PTR _mapQuestion$[ebp]
; File C:\Program Files\Microsoft Visual Studio\2022\Professional\VC\Tools\MSVC\14.44.35207\atlmfc\include\atlsimpstr.h

; 218  : 		Attach( pNewData );

  002f0	89 06		 mov	 DWORD PTR [esi], eax
; File C:\Program Files\Microsoft Visual Studio\2022\Professional\VC\Tools\MSVC\14.44.35207\include\xtree

; 831  :         _Construct_in_place(this->_Ptr->_Left, _Myhead);

  002f2	89 1f		 mov	 DWORD PTR [edi], ebx

; 1042 :         return {_Scary->_Insert_node(_Loc._Location, _Inserted), true};

  002f4	57		 push	 edi
  002f5	ff b5 48 f7 ff
	ff		 push	 DWORD PTR __Loc$2[ebp+4]

; 832  :         _Construct_in_place(this->_Ptr->_Parent, _Myhead);

  002fb	89 5f 04	 mov	 DWORD PTR [edi+4], ebx

; 1042 :         return {_Scary->_Insert_node(_Loc._Location, _Inserted), true};

  002fe	ff b5 44 f7 ff
	ff		 push	 DWORD PTR __Loc$2[ebp]

; 833  :         _Construct_in_place(this->_Ptr->_Right, _Myhead);

  00304	89 5f 08	 mov	 DWORD PTR [edi+8], ebx

; 834  :         this->_Ptr->_Color = _Red;

  00307	66 c7 47 0c 00
	00		 mov	 WORD PTR [edi+12], 0

; 1042 :         return {_Scary->_Insert_node(_Loc._Location, _Inserted), true};

  0030d	e8 00 00 00 00	 call	 ?_Insert_node@?$_Tree_val@U?$_Tree_simple_types@U?$pair@$$CBHV?$CStringT@DV?$StrTraitMFC@DV?$ChTraitsCRT@D@ATL@@@@@ATL@@@std@@@std@@@std@@QAEPAU?$_Tree_node@U?$pair@$$CBHV?$CStringT@DV?$StrTraitMFC@DV?$ChTraitsCRT@D@ATL@@@@@ATL@@@std@@PAX@2@U?$_Tree_id@PAU?$_Tree_node@U?$pair@$$CBHV?$CStringT@DV?$StrTraitMFC@DV?$ChTraitsCRT@D@ATL@@@@@ATL@@@std@@PAX@std@@@2@QAU32@@Z ; std::_Tree_val<std::_Tree_simple_types<std::pair<int const ,ATL::CStringT<char,StrTraitMFC<char,ATL::ChTraitsCRT<char> > > > > >::_Insert_node
  00312	8b 9d 8c f7 ff
	ff		 mov	 ebx, DWORD PTR _pData$1$[ebp]
  00318	8b b5 88 f7 ff
	ff		 mov	 esi, DWORD PTR _pData$1$[ebp]
$LN276@Load_Alpha:
; File C:\IAGOS\server\v18\Source\Source\_Common\MiniGame.cpp

; 660  : 		mapQuestion.insert( make_pair( nID, strQuestion ) );

  0031e	c6 45 fc 02	 mov	 BYTE PTR __$EHRec$[ebp+8], 2
; File C:\Program Files\Microsoft Visual Studio\2022\Professional\VC\Tools\MSVC\14.44.35207\atlmfc\include\atlsimpstr.h

; 92   : 		if( _InterlockedDecrement( &nRefs ) <= 0 )

  00322	83 c8 ff	 or	 eax, -1
  00325	f0 0f c1 43 0c	 lock	  xadd	 DWORD PTR [ebx+12], eax
  0032a	48		 dec	 eax
  0032b	85 c0		 test	 eax, eax
  0032d	7f 08		 jg	 SHORT $LN304@Load_Alpha

; 93   : 		{
; 94   : 			pStringMgr->Free( this );

  0032f	8b 0b		 mov	 ecx, DWORD PTR [ebx]
  00331	53		 push	 ebx
  00332	8b 01		 mov	 eax, DWORD PTR [ecx]
  00334	ff 50 04	 call	 DWORD PTR [eax+4]
$LN304@Load_Alpha:
; File C:\IAGOS\server\v18\Source\Source\_Common\MiniGame.cpp

; 661  : 		s.GetToken();

  00337	6a 00		 push	 0
  00339	8d 8d 98 f7 ff
	ff		 lea	 ecx, DWORD PTR _s$[ebp]
  0033f	e8 00 00 00 00	 call	 ?GetToken@CScanner@@UAEHH@Z ; CScanner::GetToken
; File C:\Program Files\Microsoft Visual Studio\2022\Professional\VC\Tools\MSVC\14.44.35207\atlmfc\include\atlsimpstr.h

; 92   : 		if( _InterlockedDecrement( &nRefs ) <= 0 )

  00344	83 cb ff	 or	 ebx, -1
; File C:\IAGOS\server\v18\Source\Source\_Common\MiniGame.cpp

; 662  : 	}

  00347	c6 45 fc 01	 mov	 BYTE PTR __$EHRec$[ebp+8], 1
; File C:\Program Files\Microsoft Visual Studio\2022\Professional\VC\Tools\MSVC\14.44.35207\atlmfc\include\atlsimpstr.h

; 92   : 		if( _InterlockedDecrement( &nRefs ) <= 0 )

  0034b	8b c3		 mov	 eax, ebx
  0034d	f0 0f c1 46 0c	 lock	  xadd	 DWORD PTR [esi+12], eax
  00352	48		 dec	 eax
  00353	85 c0		 test	 eax, eax
  00355	7f 08		 jg	 SHORT $LN313@Load_Alpha

; 93   : 		{
; 94   : 			pStringMgr->Free( this );

  00357	8b 0e		 mov	 ecx, DWORD PTR [esi]
  00359	56		 push	 esi
  0035a	8b 01		 mov	 eax, DWORD PTR [ecx]
  0035c	ff 50 04	 call	 DWORD PTR [eax+4]
$LN313@Load_Alpha:
; File C:\IAGOS\server\v18\Source\Source\_Common\MiniGame.cpp

; 653  : 	while( s.tok != FINISHED )

  0035f	83 7d dc 15	 cmp	 DWORD PTR _s$[ebp+2116], 21 ; 00000015H
  00363	0f 85 57 fd ff
	ff		 jne	 $LL2@Load_Alpha
  00369	8b b5 80 f7 ff
	ff		 mov	 esi, DWORD PTR _this$GSCopy$1$[ebp]
$LN3@Load_Alpha:

; 663  : 
; 664  : 	s.Free();

  0036f	8d 8d 98 f7 ff
	ff		 lea	 ecx, DWORD PTR _s$[ebp]
  00375	e8 00 00 00 00	 call	 ?Free@CScanner@@QAEXXZ	; CScanner::Free

; 665  : 	
; 666  : 	if( !s.Load( "MiniGame_Alphabet.txt", 0 ) )

  0037a	6a 00		 push	 0
  0037c	68 00 00 00 00	 push	 OFFSET ??_C@_0BG@MAAKANAG@MiniGame_Alphabet?4txt@
  00381	8d 8d 98 f7 ff
	ff		 lea	 ecx, DWORD PTR _s$[ebp]
  00387	e8 00 00 00 00	 call	 ?Load@CScanner@@QAEHPBDH@Z ; CScanner::Load
  0038c	85 c0		 test	 eax, eax
  0038e	0f 84 67 03 00
	00		 je	 $LN536@Load_Alpha

; 667  : 		return FALSE;
; 668  : 
; 669  : 	s.GetToken();

  00394	6a 00		 push	 0
  00396	8d 8d 98 f7 ff
	ff		 lea	 ecx, DWORD PTR _s$[ebp]
  0039c	e8 00 00 00 00	 call	 ?GetToken@CScanner@@UAEHH@Z ; CScanner::GetToken

; 670  : 
; 671  : 	while( s.tok != FINISHED )

  003a1	83 7d dc 15	 cmp	 DWORD PTR _s$[ebp+2116], 21 ; 00000015H
  003a5	0f 84 54 03 00
	00		 je	 $LN591@Load_Alpha
  003ab	0f 1f 44 00 00	 npad	 5
$LL4@Load_Alpha:
; File C:\Program Files\Microsoft Visual Studio\2022\Professional\VC\Tools\MSVC\14.44.35207\atlmfc\include\cstringt.h

; 184  : 		return _mbscmp( reinterpret_cast< const unsigned char* >( pszA ), reinterpret_cast< const unsigned char* >( pszB ) );

  003b0	68 00 00 00 00	 push	 OFFSET ??_C@_05CDGEMFOH@PENYA@
  003b5	ff b5 b8 f7 ff
	ff		 push	 DWORD PTR _s$[ebp+32]
  003bb	e8 00 00 00 00	 call	 __mbscmp
  003c0	83 c4 08	 add	 esp, 8

; 2490 : 		return(str1.Compare(psz2) == 0);

  003c3	85 c0		 test	 eax, eax
; File C:\IAGOS\server\v18\Source\Source\_Common\MiniGame.cpp

; 673  : 		if( s.Token == _T( "PENYA" ) )

  003c5	75 14		 jne	 SHORT $LN336@Load_Alpha

; 674  : 		{
; 675  : 			m_nPayPenya  = s.GetNumber();

  003c7	50		 push	 eax
  003c8	8d 8d 98 f7 ff
	ff		 lea	 ecx, DWORD PTR _s$[ebp]
  003ce	e8 00 00 00 00	 call	 ?GetNumber@CScanner@@QAEHH@Z ; CScanner::GetNumber
  003d3	89 46 10	 mov	 DWORD PTR [esi+16], eax

; 676  : 		}

  003d6	e9 ae 02 00 00	 jmp	 $LN571@Load_Alpha
$LN336@Load_Alpha:
; File C:\Program Files\Microsoft Visual Studio\2022\Professional\VC\Tools\MSVC\14.44.35207\atlmfc\include\cstringt.h

; 184  : 		return _mbscmp( reinterpret_cast< const unsigned char* >( pszA ), reinterpret_cast< const unsigned char* >( pszB ) );

  003db	68 00 00 00 00	 push	 OFFSET ??_C@_04ILLECDIN@WORD@
  003e0	ff b5 b8 f7 ff
	ff		 push	 DWORD PTR _s$[ebp+32]
  003e6	e8 00 00 00 00	 call	 __mbscmp
  003eb	83 c4 08	 add	 esp, 8

; 2490 : 		return(str1.Compare(psz2) == 0);

  003ee	85 c0		 test	 eax, eax
; File C:\IAGOS\server\v18\Source\Source\_Common\MiniGame.cpp

; 677  : 		else if( s.Token == _T( "WORD" ) )

  003f0	0f 85 93 02 00
	00		 jne	 $LN571@Load_Alpha

; 678  : 		{
; 679  : 			s.GetToken();

  003f6	50		 push	 eax
  003f7	8d 8d 98 f7 ff
	ff		 lea	 ecx, DWORD PTR _s$[ebp]
  003fd	e8 00 00 00 00	 call	 ?GetToken@CScanner@@UAEHH@Z ; CScanner::GetToken

; 680  : 
; 681  : 			__ALPHABET	Alpabet;

  00402	8d 8d 64 f7 ff
	ff		 lea	 ecx, DWORD PTR _Alpabet$7[ebp]
  00408	e8 00 00 00 00	 call	 ??0__ALPHABET@CMiniGame@@QAE@XZ ; CMiniGame::__ALPHABET::__ALPHABET

; 682  : 			Alpabet.strWord = s.Token;

  0040d	8d 85 b8 f7 ff
	ff		 lea	 eax, DWORD PTR _s$[ebp+32]
  00413	c6 45 fc 06	 mov	 BYTE PTR __$EHRec$[ebp+8], 6
  00417	50		 push	 eax
  00418	8d 8d 68 f7 ff
	ff		 lea	 ecx, DWORD PTR _Alpabet$7[ebp+4]
  0041e	e8 00 00 00 00	 call	 ??4?$CStringT@DV?$StrTraitMFC@DV?$ChTraitsCRT@D@ATL@@@@@ATL@@QAEAAV01@ABV01@@Z ; ATL::CStringT<char,StrTraitMFC<char,ATL::ChTraitsCRT<char> > >::operator=
; File C:\Program Files\Microsoft Visual Studio\2022\Professional\VC\Tools\MSVC\14.44.35207\atlmfc\include\cstringt.h

; 1830 : 		int nLength = this->GetLength();

  00423	8b 95 68 f7 ff
	ff		 mov	 edx, DWORD PTR _Alpabet$7[ebp+4]
  00429	8b 72 f4	 mov	 esi, DWORD PTR [edx-12]
; File C:\Program Files\Microsoft Visual Studio\2022\Professional\VC\Tools\MSVC\14.44.35207\atlmfc\include\atlsimpstr.h

; 808  : 		if (nLength < 0)

  0042c	85 f6		 test	 esi, esi
  0042e	0f 88 2a 03 00
	00		 js	 $LN579@Load_Alpha

; 809  : 			AtlThrow(E_INVALIDARG);
; 810  : 
; 811  : 		CStringData* pOldData = GetData();
; 812  : 		int nShared = 1-pOldData->nRefs;  // nShared < 0 means true, >= 0 means false
; 813  : 		int nTooShort = pOldData->nAllocLength-nLength;  // nTooShort < 0 means true, >= 0 means false

  00434	8b 42 f8	 mov	 eax, DWORD PTR [edx-8]
  00437	b9 01 00 00 00	 mov	 ecx, 1
  0043c	2b 4a fc	 sub	 ecx, DWORD PTR [edx-4]
  0043f	2b c6		 sub	 eax, esi

; 814  : 		if( (nShared|nTooShort) < 0 )  // If either sign bit is set (i.e. either is less than zero), we need to copy data

  00441	0b c1		 or	 eax, ecx
  00443	7d 12		 jge	 SHORT $LN388@Load_Alpha

; 815  : 		{
; 816  : 			PrepareWrite2( nLength );

  00445	56		 push	 esi
  00446	8d 8d 68 f7 ff
	ff		 lea	 ecx, DWORD PTR _Alpabet$7[ebp+4]
  0044c	e8 00 00 00 00	 call	 ?PrepareWrite2@?$CSimpleStringT@D$0A@@ATL@@AAEXH@Z ; ATL::CSimpleStringT<char,0>::PrepareWrite2
  00451	8b 95 68 f7 ff
	ff		 mov	 edx, DWORD PTR _Alpabet$7[ebp+4]
$LN388@Load_Alpha:
; File C:\Program Files\Microsoft Visual Studio\2022\Professional\VC\Tools\MSVC\14.44.35207\atlmfc\include\cstringt.h

; 1832 : 		StringTraits::StringUppercase( pszBuffer, nLength+1 );

  00457	8d 46 01	 lea	 eax, DWORD PTR [esi+1]
; File C:\Program Files\Microsoft Visual Studio\2022\Professional\VC\Tools\MSVC\14.44.35207\atlmfc\include\atlchecked.h

; 218  : 	ATLMFC_CRT_ERRORCHECK(::_mbsupr_s(_Str, _SizeInChars));

  0045a	50		 push	 eax
  0045b	52		 push	 edx
  0045c	e8 00 00 00 00	 call	 __mbsupr_s
  00461	83 c4 08	 add	 esp, 8
; File C:\Program Files\Microsoft Visual Studio\2022\Professional\VC\Tools\MSVC\14.44.35207\atlmfc\include\afx.h

; 511  : 	switch(error)

  00464	83 f8 50	 cmp	 eax, 80			; 00000050H
  00467	0f 87 0a 03 00
	00		 ja	 $LN406@Load_Alpha
  0046d	0f b6 80 00 00
	00 00		 movzx	 eax, BYTE PTR $LN603@Load_Alpha[eax]
  00474	ff 24 85 00 00
	00 00		 jmp	 DWORD PTR $LN604@Load_Alpha[eax*4]
$LN404@Load_Alpha:
; File C:\Program Files\Microsoft Visual Studio\2022\Professional\VC\Tools\MSVC\14.44.35207\atlmfc\include\atlsimpstr.h

; 875  : 		if( nLength < 0 || nLength > GetData()->nAllocLength)

  0047b	8b 85 68 f7 ff
	ff		 mov	 eax, DWORD PTR _Alpabet$7[ebp+4]
  00481	3b 70 f8	 cmp	 esi, DWORD PTR [eax-8]
  00484	0f 8f d4 02 00
	00		 jg	 $LN579@Load_Alpha

; 876  : 			AtlThrow(E_INVALIDARG);
; 877  : 
; 878  : 		GetData()->nDataLength = nLength;

  0048a	89 70 f4	 mov	 DWORD PTR [eax-12], esi
; File C:\IAGOS\server\v18\Source\Source\_Common\MiniGame.cpp

; 684  : 			Alpabet.nPublic = s.GetNumber();

  0048d	8d 8d 98 f7 ff
	ff		 lea	 ecx, DWORD PTR _s$[ebp]
; File C:\Program Files\Microsoft Visual Studio\2022\Professional\VC\Tools\MSVC\14.44.35207\atlmfc\include\atlsimpstr.h

; 879  : 		m_pszData[nLength] = 0;

  00493	8b 85 68 f7 ff
	ff		 mov	 eax, DWORD PTR _Alpabet$7[ebp+4]
; File C:\IAGOS\server\v18\Source\Source\_Common\MiniGame.cpp

; 684  : 			Alpabet.nPublic = s.GetNumber();

  00499	6a 00		 push	 0
; File C:\Program Files\Microsoft Visual Studio\2022\Professional\VC\Tools\MSVC\14.44.35207\atlmfc\include\atlsimpstr.h

; 879  : 		m_pszData[nLength] = 0;

  0049b	c6 04 30 00	 mov	 BYTE PTR [eax+esi], 0
; File C:\IAGOS\server\v18\Source\Source\_Common\MiniGame.cpp

; 684  : 			Alpabet.nPublic = s.GetNumber();

  0049f	e8 00 00 00 00	 call	 ?GetNumber@CScanner@@QAEHH@Z ; CScanner::GetNumber

; 685  : 			s.GetLastFull();

  004a4	8d 8d 98 f7 ff
	ff		 lea	 ecx, DWORD PTR _s$[ebp]
  004aa	89 85 64 f7 ff
	ff		 mov	 DWORD PTR _Alpabet$7[ebp], eax
  004b0	e8 00 00 00 00	 call	 ?GetLastFull@CScanner@@QAEXXZ ; CScanner::GetLastFull

; 686  : 			map< int, CString >::iterator it = mapQuestion.find( atoi( s.Token.Right(4) ) );

  004b5	6a 04		 push	 4
  004b7	8d 85 8c f7 ff
	ff		 lea	 eax, DWORD PTR $T11[ebp]
  004bd	50		 push	 eax
  004be	8d 8d b8 f7 ff
	ff		 lea	 ecx, DWORD PTR _s$[ebp+32]
  004c4	e8 00 00 00 00	 call	 ?Right@?$CStringT@DV?$StrTraitMFC@DV?$ChTraitsCRT@D@ATL@@@@@ATL@@QBE?AV12@H@Z ; ATL::CStringT<char,StrTraitMFC<char,ATL::ChTraitsCRT<char> > >::Right
  004c9	ff 30		 push	 DWORD PTR [eax]
  004cb	e8 00 00 00 00	 call	 _atoi
  004d0	83 c4 04	 add	 esp, 4
; File C:\Program Files\Microsoft Visual Studio\2022\Professional\VC\Tools\MSVC\14.44.35207\include\xtree

; 1384 :         const _Tree_find_result<_Nodeptr> _Loc = _Find_lower_bound(_Keyval);

  004d3	8d 8d 90 f7 ff
	ff		 lea	 ecx, DWORD PTR _mapQuestion$[ebp]
; File C:\IAGOS\server\v18\Source\Source\_Common\MiniGame.cpp

; 686  : 			map< int, CString >::iterator it = mapQuestion.find( atoi( s.Token.Right(4) ) );

  004d9	8b f8		 mov	 edi, eax
; File C:\Program Files\Microsoft Visual Studio\2022\Professional\VC\Tools\MSVC\14.44.35207\include\xtree

; 1384 :         const _Tree_find_result<_Nodeptr> _Loc = _Find_lower_bound(_Keyval);

  004db	8d 85 88 f7 ff
	ff		 lea	 eax, DWORD PTR $T10[ebp]
; File C:\IAGOS\server\v18\Source\Source\_Common\MiniGame.cpp

; 686  : 			map< int, CString >::iterator it = mapQuestion.find( atoi( s.Token.Right(4) ) );

  004e1	89 bd 88 f7 ff
	ff		 mov	 DWORD PTR $T10[ebp], edi
; File C:\Program Files\Microsoft Visual Studio\2022\Professional\VC\Tools\MSVC\14.44.35207\include\xtree

; 1384 :         const _Tree_find_result<_Nodeptr> _Loc = _Find_lower_bound(_Keyval);

  004e7	50		 push	 eax
  004e8	8d 85 44 f7 ff
	ff		 lea	 eax, DWORD PTR __Loc$3[ebp]
  004ee	50		 push	 eax
  004ef	e8 00 00 00 00	 call	 ??$_Find_lower_bound@H@?$_Tree@V?$_Tmap_traits@HV?$CStringT@DV?$StrTraitMFC@DV?$ChTraitsCRT@D@ATL@@@@@ATL@@U?$less@H@std@@V?$allocator@U?$pair@$$CBHV?$CStringT@DV?$StrTraitMFC@DV?$ChTraitsCRT@D@ATL@@@@@ATL@@@std@@@4@$0A@@std@@@std@@IBE?AU?$_Tree_find_result@PAU?$_Tree_node@U?$pair@$$CBHV?$CStringT@DV?$StrTraitMFC@DV?$ChTraitsCRT@D@ATL@@@@@ATL@@@std@@PAX@std@@@1@ABH@Z ; std::_Tree<std::_Tmap_traits<int,ATL::CStringT<char,StrTraitMFC<char,ATL::ChTraitsCRT<char> > >,std::less<int>,std::allocator<std::pair<int const ,ATL::CStringT<char,StrTraitMFC<char,ATL::ChTraitsCRT<char> > > > >,0> >::_Find_lower_bound<int>

; 1624 :         return !_Bound->_Isnil && !_DEBUG_LT_PRED(_Getcomp(), _Keyval, _Traits::_Kfn(_Bound->_Myval));

  004f4	8b b5 4c f7 ff
	ff		 mov	 esi, DWORD PTR __Loc$3[ebp+8]
  004fa	80 7e 0d 00	 cmp	 BYTE PTR [esi+13], 0
  004fe	75 05		 jne	 SHORT $LN424@Load_Alpha
; File C:\Program Files\Microsoft Visual Studio\2022\Professional\VC\Tools\MSVC\14.44.35207\include\type_traits

; 2380 :         return _Left < _Right;

  00500	3b 7e 10	 cmp	 edi, DWORD PTR [esi+16]
; File C:\Program Files\Microsoft Visual Studio\2022\Professional\VC\Tools\MSVC\14.44.35207\include\xtree

; 1624 :         return !_Bound->_Isnil && !_DEBUG_LT_PRED(_Getcomp(), _Keyval, _Traits::_Kfn(_Bound->_Myval));

  00503	7d 06		 jge	 SHORT $LN423@Load_Alpha
$LN424@Load_Alpha:

; 1389 :         return _Get_scary()->_Myhead;

  00505	8b b5 90 f7 ff
	ff		 mov	 esi, DWORD PTR _mapQuestion$[ebp]
$LN423@Load_Alpha:
; File C:\Program Files\Microsoft Visual Studio\2022\Professional\VC\Tools\MSVC\14.44.35207\atlmfc\include\atlsimpstr.h

; 804  : 		return( reinterpret_cast< CStringData* >( m_pszData )-1 );

  0050b	8b 95 8c f7 ff
	ff		 mov	 edx, DWORD PTR $T11[ebp]

; 92   : 		if( _InterlockedDecrement( &nRefs ) <= 0 )

  00511	8b c3		 mov	 eax, ebx

; 804  : 		return( reinterpret_cast< CStringData* >( m_pszData )-1 );

  00513	83 c2 f0	 add	 edx, -16		; fffffff0H

; 92   : 		if( _InterlockedDecrement( &nRefs ) <= 0 )

  00516	f0 0f c1 42 0c	 lock	  xadd	 DWORD PTR [edx+12], eax
  0051b	48		 dec	 eax
  0051c	85 c0		 test	 eax, eax
  0051e	7f 08		 jg	 SHORT $LN449@Load_Alpha

; 93   : 		{
; 94   : 			pStringMgr->Free( this );

  00520	8b 0a		 mov	 ecx, DWORD PTR [edx]
  00522	52		 push	 edx
  00523	8b 01		 mov	 eax, DWORD PTR [ecx]
  00525	ff 50 04	 call	 DWORD PTR [eax+4]
$LN449@Load_Alpha:
; File C:\Program Files\Microsoft Visual Studio\2022\Professional\VC\Tools\MSVC\14.44.35207\include\xtree

; 37   :     _Tree_unchecked_const_iterator(_Nodeptr _Pnode, const _Mytree* _Plist) noexcept : _Ptr(_Pnode) {

  00528	3b b5 90 f7 ff
	ff		 cmp	 esi, DWORD PTR _mapQuestion$[ebp]
; File C:\IAGOS\server\v18\Source\Source\_Common\MiniGame.cpp

; 687  : 			if( it != mapQuestion.end() )

  0052e	74 11		 je	 SHORT $LN13@Load_Alpha

; 688  : 				Alpabet.strQuestion = it->second;

  00530	8d 46 14	 lea	 eax, DWORD PTR [esi+20]
  00533	50		 push	 eax
  00534	8d 8d 6c f7 ff
	ff		 lea	 ecx, DWORD PTR _Alpabet$7[ebp+8]
  0053a	e8 00 00 00 00	 call	 ??4?$CStringT@DV?$StrTraitMFC@DV?$ChTraitsCRT@D@ATL@@@@@ATL@@QAEAAV01@ABV01@@Z ; ATL::CStringT<char,StrTraitMFC<char,ATL::ChTraitsCRT<char> > >::operator=
  0053f	eb 13		 jmp	 SHORT $LN14@Load_Alpha
$LN13@Load_Alpha:

; 689  : 			else
; 690  : 				Error( "Á¸ŔçÇĎÁö ľĘ´Â ą®Á¦ ID -> %s", s.Token );

  00541	ff b5 b8 f7 ff
	ff		 push	 DWORD PTR _s$[ebp+32]
  00547	68 00 00 00 00	 push	 OFFSET ??_C@_0BM@KCPBBLAB@?A?$LI?$MA?g?G?O?A?v?5?$LO?J?$LE?B?5?$LJ?$KO?A?$KG?5ID?5?9?$DO?5?$CFs@
  0054c	e8 00 00 00 00	 call	 ?Error@@YAPBDPBDZZ	; Error
  00551	83 c4 08	 add	 esp, 8
$LN14@Load_Alpha:

; 691  : 			
; 692  : 			s.GetToken();	// {

  00554	6a 00		 push	 0
  00556	8d 8d 98 f7 ff
	ff		 lea	 ecx, DWORD PTR _s$[ebp]
  0055c	e8 00 00 00 00	 call	 ?GetToken@CScanner@@UAEHH@Z ; CScanner::GetToken

; 693  : 			s.GetToken();

  00561	6a 00		 push	 0
  00563	8d 8d 98 f7 ff
	ff		 lea	 ecx, DWORD PTR _s$[ebp]
  00569	e8 00 00 00 00	 call	 ?GetToken@CScanner@@UAEHH@Z ; CScanner::GetToken

; 694  : 			while( *s.token != '}' )

  0056e	8b 85 d4 f7 ff
	ff		 mov	 eax, DWORD PTR _s$[ebp+60]
  00574	80 38 7d	 cmp	 BYTE PTR [eax], 125	; 0000007dH
  00577	0f 84 98 00 00
	00		 je	 $LN7@Load_Alpha
  0057d	0f 1f 00	 npad	 3
$LL6@Load_Alpha:

; 695  : 			{
; 696  : 				__ITEMGAME	ItemGame;
; 697  : 				ItemGame.dwItemId = CScript::GetDefineNum( s.Token );

  00580	ff b5 b8 f7 ff
	ff		 push	 DWORD PTR _s$[ebp+32]
  00586	e8 00 00 00 00	 call	 ?GetDefineNum@CScript@@SAHPBD@Z ; CScript::GetDefineNum
  0058b	8b f0		 mov	 esi, eax
  0058d	83 c4 04	 add	 esp, 4
  00590	89 b5 58 f7 ff
	ff		 mov	 DWORD PTR _ItemGame$5[ebp], esi
  00596	83 fe ff	 cmp	 esi, -1

; 698  : 				if( ItemGame.dwItemId == -1 )

  00599	0f 84 08 01 00
	00		 je	 $LN583@Load_Alpha

; 702  : 				}
; 703  : 				ItemGame.nItemCount = s.GetNumber();

  0059f	6a 00		 push	 0
  005a1	8d 8d 98 f7 ff
	ff		 lea	 ecx, DWORD PTR _s$[ebp]
  005a7	e8 00 00 00 00	 call	 ?GetNumber@CScanner@@QAEHH@Z ; CScanner::GetNumber
  005ac	8b f8		 mov	 edi, eax

; 704  : 				ItemGame.dwPer = s.GetNumber();

  005ae	8d 8d 98 f7 ff
	ff		 lea	 ecx, DWORD PTR _s$[ebp]
  005b4	6a 00		 push	 0
  005b6	89 bd 5c f7 ff
	ff		 mov	 DWORD PTR _ItemGame$5[ebp+4], edi
  005bc	e8 00 00 00 00	 call	 ?GetNumber@CScanner@@QAEHH@Z ; CScanner::GetNumber
; File C:\Program Files\Microsoft Visual Studio\2022\Professional\VC\Tools\MSVC\14.44.35207\include\vector

; 844  :         if (_Mylast != _My_data._Myend) {

  005c1	8b 8d 74 f7 ff
	ff		 mov	 ecx, DWORD PTR _Alpabet$7[ebp+16]
; File C:\IAGOS\server\v18\Source\Source\_Common\MiniGame.cpp

; 704  : 				ItemGame.dwPer = s.GetNumber();

  005c7	89 85 60 f7 ff
	ff		 mov	 DWORD PTR _ItemGame$5[ebp+8], eax
; File C:\Program Files\Microsoft Visual Studio\2022\Professional\VC\Tools\MSVC\14.44.35207\include\vector

; 844  :         if (_Mylast != _My_data._Myend) {

  005cd	3b 8d 78 f7 ff
	ff		 cmp	 ecx, DWORD PTR _Alpabet$7[ebp+20]
  005d3	74 11		 je	 SHORT $LN32@Load_Alpha
; File C:\Program Files\Microsoft Visual Studio\2022\Professional\VC\Tools\MSVC\14.44.35207\include\xutility

; 476  :         ::new (static_cast<void*>(_STD addressof(_Obj))) _Ty(_STD forward<_Types>(_Args)...);

  005d5	89 31		 mov	 DWORD PTR [ecx], esi
  005d7	89 79 04	 mov	 DWORD PTR [ecx+4], edi
  005da	89 41 08	 mov	 DWORD PTR [ecx+8], eax
; File C:\Program Files\Microsoft Visual Studio\2022\Professional\VC\Tools\MSVC\14.44.35207\include\vector

; 869  :         ++_Mylast;

  005dd	83 85 74 f7 ff
	ff 0c		 add	 DWORD PTR _Alpabet$7[ebp+16], 12 ; 0000000cH

; 845  :             return _Emplace_back_with_unused_capacity(_STD forward<_Valty>(_Val)...);

  005e4	eb 13		 jmp	 SHORT $LN31@Load_Alpha
$LN32@Load_Alpha:

; 846  :         }
; 847  : 
; 848  :         return *_Emplace_reallocate(_Mylast, _STD forward<_Valty>(_Val)...);

  005e6	8d 85 58 f7 ff
	ff		 lea	 eax, DWORD PTR _ItemGame$5[ebp]
  005ec	50		 push	 eax
  005ed	51		 push	 ecx
  005ee	8d 8d 70 f7 ff
	ff		 lea	 ecx, DWORD PTR _Alpabet$7[ebp+12]
  005f4	e8 00 00 00 00	 call	 ??$_Emplace_reallocate@ABU__ITEMGAME@CMiniGame@@@?$vector@U__ITEMGAME@CMiniGame@@V?$allocator@U__ITEMGAME@CMiniGame@@@std@@@std@@AAEPAU__ITEMGAME@CMiniGame@@QAU23@ABU23@@Z ; std::vector<CMiniGame::__ITEMGAME,std::allocator<CMiniGame::__ITEMGAME> >::_Emplace_reallocate<CMiniGame::__ITEMGAME const &>
$LN31@Load_Alpha:
; File C:\IAGOS\server\v18\Source\Source\_Common\MiniGame.cpp

; 706  : 				s.GetToken();

  005f9	6a 00		 push	 0
  005fb	8d 8d 98 f7 ff
	ff		 lea	 ecx, DWORD PTR _s$[ebp]
  00601	e8 00 00 00 00	 call	 ?GetToken@CScanner@@UAEHH@Z ; CScanner::GetToken
  00606	8b 85 d4 f7 ff
	ff		 mov	 eax, DWORD PTR _s$[ebp+60]
  0060c	80 38 7d	 cmp	 BYTE PTR [eax], 125	; 0000007dH
  0060f	0f 85 6b ff ff
	ff		 jne	 $LL6@Load_Alpha
$LN7@Load_Alpha:

; 707  : 			}
; 708  : 			m_vecAlphabet.push_back( Alpabet );

  00615	8b b5 80 f7 ff
	ff		 mov	 esi, DWORD PTR _this$GSCopy$1$[ebp]
; File C:\Program Files\Microsoft Visual Studio\2022\Professional\VC\Tools\MSVC\14.44.35207\include\vector

; 844  :         if (_Mylast != _My_data._Myend) {

  0061b	8d 8d 64 f7 ff
	ff		 lea	 ecx, DWORD PTR _Alpabet$7[ebp]
  00621	51		 push	 ecx
  00622	8b 46 1c	 mov	 eax, DWORD PTR [esi+28]
  00625	3b 46 20	 cmp	 eax, DWORD PTR [esi+32]
  00628	74 0d		 je	 SHORT $LN541@Load_Alpha
; File C:\Program Files\Microsoft Visual Studio\2022\Professional\VC\Tools\MSVC\14.44.35207\include\xmemory

; 732  :         ::new (const_cast<void*>(static_cast<const volatile void*>(_Ptr))) _Objty(_STD forward<_Types>(_Args)...);

  0062a	8b c8		 mov	 ecx, eax
  0062c	e8 00 00 00 00	 call	 ??0__ALPHABET@CMiniGame@@QAE@ABU01@@Z
; File C:\Program Files\Microsoft Visual Studio\2022\Professional\VC\Tools\MSVC\14.44.35207\include\vector

; 869  :         ++_Mylast;

  00631	83 46 1c 18	 add	 DWORD PTR [esi+28], 24	; 00000018H

; 845  :             return _Emplace_back_with_unused_capacity(_STD forward<_Valty>(_Val)...);

  00635	eb 09		 jmp	 SHORT $LN540@Load_Alpha
$LN541@Load_Alpha:

; 846  :         }
; 847  : 
; 848  :         return *_Emplace_reallocate(_Mylast, _STD forward<_Valty>(_Val)...);

  00637	50		 push	 eax
  00638	8d 4e 18	 lea	 ecx, DWORD PTR [esi+24]
  0063b	e8 00 00 00 00	 call	 ??$_Emplace_reallocate@ABU__ALPHABET@CMiniGame@@@?$vector@U__ALPHABET@CMiniGame@@V?$allocator@U__ALPHABET@CMiniGame@@@std@@@std@@AAEPAU__ALPHABET@CMiniGame@@QAU23@ABU23@@Z ; std::vector<CMiniGame::__ALPHABET,std::allocator<CMiniGame::__ALPHABET> >::_Emplace_reallocate<CMiniGame::__ALPHABET const &>
$LN540@Load_Alpha:

; 830  :         _Tidy();

  00640	8d 8d 70 f7 ff
	ff		 lea	 ecx, DWORD PTR _Alpabet$7[ebp+12]
; File C:\IAGOS\server\v18\Source\Source\_Common\MiniGame.cpp

; 709  : 		}

  00646	c6 45 fc 01	 mov	 BYTE PTR __$EHRec$[ebp+8], 1
; File C:\Program Files\Microsoft Visual Studio\2022\Professional\VC\Tools\MSVC\14.44.35207\include\vector

; 830  :         _Tidy();

  0064a	e8 00 00 00 00	 call	 ?_Tidy@?$vector@U__ITEMGAME@CMiniGame@@V?$allocator@U__ITEMGAME@CMiniGame@@@std@@@std@@AAEXXZ ; std::vector<CMiniGame::__ITEMGAME,std::allocator<CMiniGame::__ITEMGAME> >::_Tidy
; File C:\Program Files\Microsoft Visual Studio\2022\Professional\VC\Tools\MSVC\14.44.35207\atlmfc\include\atlsimpstr.h

; 804  : 		return( reinterpret_cast< CStringData* >( m_pszData )-1 );

  0064f	8b 95 6c f7 ff
	ff		 mov	 edx, DWORD PTR _Alpabet$7[ebp+8]

; 92   : 		if( _InterlockedDecrement( &nRefs ) <= 0 )

  00655	8b c3		 mov	 eax, ebx

; 804  : 		return( reinterpret_cast< CStringData* >( m_pszData )-1 );

  00657	83 c2 f0	 add	 edx, -16		; fffffff0H

; 92   : 		if( _InterlockedDecrement( &nRefs ) <= 0 )

  0065a	f0 0f c1 42 0c	 lock	  xadd	 DWORD PTR [edx+12], eax
  0065f	48		 dec	 eax
  00660	85 c0		 test	 eax, eax
  00662	7f 08		 jg	 SHORT $LN562@Load_Alpha

; 93   : 		{
; 94   : 			pStringMgr->Free( this );

  00664	8b 0a		 mov	 ecx, DWORD PTR [edx]
  00666	52		 push	 edx
  00667	8b 01		 mov	 eax, DWORD PTR [ecx]
  00669	ff 50 04	 call	 DWORD PTR [eax+4]
$LN562@Load_Alpha:

; 804  : 		return( reinterpret_cast< CStringData* >( m_pszData )-1 );

  0066c	8b 95 68 f7 ff
	ff		 mov	 edx, DWORD PTR _Alpabet$7[ebp+4]

; 92   : 		if( _InterlockedDecrement( &nRefs ) <= 0 )

  00672	8b c3		 mov	 eax, ebx

; 804  : 		return( reinterpret_cast< CStringData* >( m_pszData )-1 );

  00674	83 c2 f0	 add	 edx, -16		; fffffff0H

; 92   : 		if( _InterlockedDecrement( &nRefs ) <= 0 )

  00677	f0 0f c1 42 0c	 lock	  xadd	 DWORD PTR [edx+12], eax
  0067c	48		 dec	 eax
  0067d	85 c0		 test	 eax, eax
  0067f	7f 08		 jg	 SHORT $LN571@Load_Alpha

; 93   : 		{
; 94   : 			pStringMgr->Free( this );

  00681	8b 0a		 mov	 ecx, DWORD PTR [edx]
  00683	52		 push	 edx
  00684	8b 01		 mov	 eax, DWORD PTR [ecx]
  00686	ff 50 04	 call	 DWORD PTR [eax+4]
$LN571@Load_Alpha:
; File C:\IAGOS\server\v18\Source\Source\_Common\MiniGame.cpp

; 710  : 		s.GetToken();

  00689	6a 00		 push	 0
  0068b	8d 8d 98 f7 ff
	ff		 lea	 ecx, DWORD PTR _s$[ebp]
  00691	e8 00 00 00 00	 call	 ?GetToken@CScanner@@UAEHH@Z ; CScanner::GetToken
  00696	83 7d dc 15	 cmp	 DWORD PTR _s$[ebp+2116], 21 ; 00000015H
  0069a	74 63		 je	 SHORT $LN591@Load_Alpha

; 670  : 
; 671  : 	while( s.tok != FINISHED )

  0069c	8b b5 80 f7 ff
	ff		 mov	 esi, DWORD PTR _this$GSCopy$1$[ebp]
  006a2	e9 09 fd ff ff	 jmp	 $LL4@Load_Alpha
$LN583@Load_Alpha:

; 699  : 				{
; 700  : 					Error( "CMiniGame::Load_Alphabet() ľĆŔĚĹŰŔĚ ľř´Â°ÍŔ» ĽłÁ¤ÇßŔ˝" );

  006a7	68 00 00 00 00	 push	 OFFSET ??_C@_0DG@EJJOBLJD@CMiniGame?3?3Load_Alphabet?$CI?$CJ?5?$LO?F?$MA?L@
  006ac	e8 00 00 00 00	 call	 ?Error@@YAPBDPBDZZ	; Error
  006b1	83 c4 04	 add	 esp, 4

; 701  : 					return FALSE;

  006b4	c6 45 fc 01	 mov	 BYTE PTR __$EHRec$[ebp+8], 1
; File C:\Program Files\Microsoft Visual Studio\2022\Professional\VC\Tools\MSVC\14.44.35207\include\vector

; 830  :         _Tidy();

  006b8	8d 8d 70 f7 ff
	ff		 lea	 ecx, DWORD PTR _Alpabet$7[ebp+12]
  006be	e8 00 00 00 00	 call	 ?_Tidy@?$vector@U__ITEMGAME@CMiniGame@@V?$allocator@U__ITEMGAME@CMiniGame@@@std@@@std@@AAEXXZ ; std::vector<CMiniGame::__ITEMGAME,std::allocator<CMiniGame::__ITEMGAME> >::_Tidy
; File C:\Program Files\Microsoft Visual Studio\2022\Professional\VC\Tools\MSVC\14.44.35207\atlmfc\include\atlsimpstr.h

; 804  : 		return( reinterpret_cast< CStringData* >( m_pszData )-1 );

  006c3	8b 95 6c f7 ff
	ff		 mov	 edx, DWORD PTR _Alpabet$7[ebp+8]

; 92   : 		if( _InterlockedDecrement( &nRefs ) <= 0 )

  006c9	8b c3		 mov	 eax, ebx

; 804  : 		return( reinterpret_cast< CStringData* >( m_pszData )-1 );

  006cb	83 c2 f0	 add	 edx, -16		; fffffff0H

; 92   : 		if( _InterlockedDecrement( &nRefs ) <= 0 )

  006ce	f0 0f c1 42 0c	 lock	  xadd	 DWORD PTR [edx+12], eax
  006d3	48		 dec	 eax
  006d4	85 c0		 test	 eax, eax
  006d6	7f 08		 jg	 SHORT $LN527@Load_Alpha

; 93   : 		{
; 94   : 			pStringMgr->Free( this );

  006d8	8b 0a		 mov	 ecx, DWORD PTR [edx]
  006da	52		 push	 edx
  006db	8b 01		 mov	 eax, DWORD PTR [ecx]
  006dd	ff 50 04	 call	 DWORD PTR [eax+4]
$LN527@Load_Alpha:

; 804  : 		return( reinterpret_cast< CStringData* >( m_pszData )-1 );

  006e0	8b 95 68 f7 ff
	ff		 mov	 edx, DWORD PTR _Alpabet$7[ebp+4]
  006e6	83 c2 f0	 add	 edx, -16		; fffffff0H

; 92   : 		if( _InterlockedDecrement( &nRefs ) <= 0 )

  006e9	f0 0f c1 5a 0c	 lock	  xadd	 DWORD PTR [edx+12], ebx
  006ee	4b		 dec	 ebx
  006ef	85 db		 test	 ebx, ebx
  006f1	7f 08		 jg	 SHORT $LN536@Load_Alpha

; 93   : 		{
; 94   : 			pStringMgr->Free( this );

  006f3	8b 0a		 mov	 ecx, DWORD PTR [edx]
  006f5	52		 push	 edx
  006f6	8b 01		 mov	 eax, DWORD PTR [ecx]
  006f8	ff 50 04	 call	 DWORD PTR [eax+4]
$LN536@Load_Alpha:
; File C:\Program Files\Microsoft Visual Studio\2022\Professional\VC\Tools\MSVC\14.44.35207\include\xtree

; 777  :         _Erase_tree(_Al, _Myhead->_Parent);

  006fb	33 f6		 xor	 esi, esi
  006fd	eb 05		 jmp	 SHORT $LN26@Load_Alpha
$LN591@Load_Alpha:
; File C:\IAGOS\server\v18\Source\Source\_Common\MiniGame.cpp

; 712  : 	return TRUE;

  006ff	be 01 00 00 00	 mov	 esi, 1
$LN26@Load_Alpha:
; File C:\Program Files\Microsoft Visual Studio\2022\Professional\VC\Tools\MSVC\14.44.35207\include\xtree

; 777  :         _Erase_tree(_Al, _Myhead->_Parent);

  00704	8b 85 90 f7 ff
	ff		 mov	 eax, DWORD PTR _mapQuestion$[ebp]
  0070a	ff 70 04	 push	 DWORD PTR [eax+4]
  0070d	8d 85 90 f7 ff
	ff		 lea	 eax, DWORD PTR _mapQuestion$[ebp]
  00713	50		 push	 eax
  00714	8b c8		 mov	 ecx, eax
  00716	e8 00 00 00 00	 call	 ??$_Erase_tree@V?$allocator@U?$_Tree_node@U?$pair@$$CBHV?$CStringT@DV?$StrTraitMFC@DV?$ChTraitsCRT@D@ATL@@@@@ATL@@@std@@PAX@std@@@std@@@?$_Tree_val@U?$_Tree_simple_types@U?$pair@$$CBHV?$CStringT@DV?$StrTraitMFC@DV?$ChTraitsCRT@D@ATL@@@@@ATL@@@std@@@std@@@std@@QAEXAAV?$allocator@U?$_Tree_node@U?$pair@$$CBHV?$CStringT@DV?$StrTraitMFC@DV?$ChTraitsCRT@D@ATL@@@@@ATL@@@std@@PAX@std@@@1@PAU?$_Tree_node@U?$pair@$$CBHV?$CStringT@DV?$StrTraitMFC@DV?$ChTraitsCRT@D@ATL@@@@@ATL@@@std@@PAX@1@@Z ; std::_Tree_val<std::_Tree_simple_types<std::pair<int const ,ATL::CStringT<char,StrTraitMFC<char,ATL::ChTraitsCRT<char> > > > > >::_Erase_tree<std::allocator<std::_Tree_node<std::pair<int const ,ATL::CStringT<char,StrTraitMFC<char,ATL::ChTraitsCRT<char> > > >,void *> > >
; File C:\Program Files\Microsoft Visual Studio\2022\Professional\VC\Tools\MSVC\14.44.35207\include\xmemory

; 289  :         ::operator delete(_Ptr, _Bytes);

  0071b	6a 18		 push	 24			; 00000018H
  0071d	ff b5 90 f7 ff
	ff		 push	 DWORD PTR _mapQuestion$[ebp]
  00723	e8 00 00 00 00	 call	 ??3@YAXPAXI@Z		; operator delete
  00728	83 c4 08	 add	 esp, 8
$LN366@Load_Alpha:
; File C:\IAGOS\server\v18\Source\Source\_Common\MiniGame.cpp

; 712  : 	return TRUE;

  0072b	8d 8d 98 f7 ff
	ff		 lea	 ecx, DWORD PTR _s$[ebp]
  00731	e8 00 00 00 00	 call	 ??1CScanner@@UAE@XZ	; CScanner::~CScanner
  00736	8b c6		 mov	 eax, esi

; 713  : }

  00738	8b 4d f4	 mov	 ecx, DWORD PTR __$EHRec$[ebp]
  0073b	64 89 0d 00 00
	00 00		 mov	 DWORD PTR fs:0, ecx
  00742	59		 pop	 ecx
  00743	5f		 pop	 edi
  00744	5e		 pop	 esi
  00745	5b		 pop	 ebx
  00746	8b 4d f0	 mov	 ecx, DWORD PTR __$ArrayPad$[ebp]
  00749	33 cd		 xor	 ecx, ebp
  0074b	e8 00 00 00 00	 call	 @__security_check_cookie@4
  00750	8b e5		 mov	 esp, ebp
  00752	5d		 pop	 ebp
  00753	c3		 ret	 0
$LN581@Load_Alpha:
; File C:\Program Files\Microsoft Visual Studio\2022\Professional\VC\Tools\MSVC\14.44.35207\include\xtree

; 1649 :             _Throw_tree_length_error();

  00754	e8 00 00 00 00	 call	 ?_Throw_tree_length_error@std@@YAXXZ ; std::_Throw_tree_length_error
$LN578@Load_Alpha:
; File C:\Program Files\Microsoft Visual Studio\2022\Professional\VC\Tools\MSVC\14.44.35207\atlmfc\include\atlsimpstr.h

; 257  : 			ThrowMemoryException();

  00759	e8 00 00 00 00	 call	 ?ThrowMemoryException@?$CSimpleStringT@D$0A@@ATL@@KAXXZ ; ATL::CSimpleStringT<char,0>::ThrowMemoryException
$LN579@Load_Alpha:
; File C:\IAGOS\server\v18\Source\Source\_Common\MiniGame.cpp

; 713  : }

  0075e	68 57 00 07 80	 push	 -2147024809		; 80070057H
  00763	e8 00 00 00 00	 call	 ?AtlThrowImpl@ATL@@YGXJ@Z ; ATL::AtlThrowImpl
$LN576@Load_Alpha:
; File C:\Program Files\Microsoft Visual Studio\2022\Professional\VC\Tools\MSVC\14.44.35207\atlmfc\include\atlsimpstr.h

; 249  : 		ATLENSURE( pStringMgr != NULL );

  00768	68 05 40 00 80	 push	 -2147467259		; 80004005H
  0076d	e8 00 00 00 00	 call	 ?AtlThrowImpl@ATL@@YGXJ@Z ; ATL::AtlThrowImpl
$LN401@Load_Alpha:
; File C:\Program Files\Microsoft Visual Studio\2022\Professional\VC\Tools\MSVC\14.44.35207\atlmfc\include\afx.h

; 514  : 		AfxThrowMemoryException();

  00772	e8 00 00 00 00	 call	 ?AfxThrowMemoryException@@YGXXZ ; AfxThrowMemoryException
$LN406@Load_Alpha:

; 515  : 		break;
; 516  : 	case EINVAL:
; 517  : 	case ERANGE:
; 518  : 		AfxThrowInvalidArgException();
; 519  : 		break;
; 520  : 	case STRUNCATE:
; 521  : 	case 0:
; 522  : 		break;
; 523  : 	default:
; 524  : 		AfxThrowInvalidArgException();

  00777	e8 00 00 00 00	 call	 ?AfxThrowInvalidArgException@@YGXXZ ; AfxThrowInvalidArgException
$LN607@Load_Alpha:
$LN604@Load_Alpha:
; File C:\IAGOS\server\v18\Source\Source\_Common\MiniGame.cpp

; 713  : }

  0077c	00 00 00 00	 DD	 $LN404@Load_Alpha
  00780	00 00 00 00	 DD	 $LN401@Load_Alpha
  00784	00 00 00 00	 DD	 $LN406@Load_Alpha
  00788	00 00 00 00	 DD	 $LN406@Load_Alpha
$LN603@Load_Alpha:
  0078c	00		 DB	 0
  0078d	03		 DB	 3
  0078e	03		 DB	 3
  0078f	03		 DB	 3
  00790	03		 DB	 3
  00791	03		 DB	 3
  00792	03		 DB	 3
  00793	03		 DB	 3
  00794	03		 DB	 3
  00795	03		 DB	 3
  00796	03		 DB	 3
  00797	03		 DB	 3
  00798	01		 DB	 1
  00799	03		 DB	 3
  0079a	03		 DB	 3
  0079b	03		 DB	 3
  0079c	03		 DB	 3
  0079d	03		 DB	 3
  0079e	03		 DB	 3
  0079f	03		 DB	 3
  007a0	03		 DB	 3
  007a1	03		 DB	 3
  007a2	02		 DB	 2
  007a3	03		 DB	 3
  007a4	03		 DB	 3
  007a5	03		 DB	 3
  007a6	03		 DB	 3
  007a7	03		 DB	 3
  007a8	03		 DB	 3
  007a9	03		 DB	 3
  007aa	03		 DB	 3
  007ab	03		 DB	 3
  007ac	03		 DB	 3
  007ad	03		 DB	 3
  007ae	02		 DB	 2
  007af	03		 DB	 3
  007b0	03		 DB	 3
  007b1	03		 DB	 3
  007b2	03		 DB	 3
  007b3	03		 DB	 3
  007b4	03		 DB	 3
  007b5	03		 DB	 3
  007b6	03		 DB	 3
  007b7	03		 DB	 3
  007b8	03		 DB	 3
  007b9	03		 DB	 3
  007ba	03		 DB	 3
  007bb	03		 DB	 3
  007bc	03		 DB	 3
  007bd	03		 DB	 3
  007be	03		 DB	 3
  007bf	03		 DB	 3
  007c0	03		 DB	 3
  007c1	03		 DB	 3
  007c2	03		 DB	 3
  007c3	03		 DB	 3
  007c4	03		 DB	 3
  007c5	03		 DB	 3
  007c6	03		 DB	 3
  007c7	03		 DB	 3
  007c8	03		 DB	 3
  007c9	03		 DB	 3
  007ca	03		 DB	 3
  007cb	03		 DB	 3
  007cc	03		 DB	 3
  007cd	03		 DB	 3
  007ce	03		 DB	 3
  007cf	03		 DB	 3
  007d0	03		 DB	 3
  007d1	03		 DB	 3
  007d2	03		 DB	 3
  007d3	03		 DB	 3
  007d4	03		 DB	 3
  007d5	03		 DB	 3
  007d6	03		 DB	 3
  007d7	03		 DB	 3
  007d8	03		 DB	 3
  007d9	03		 DB	 3
  007da	03		 DB	 3
  007db	03		 DB	 3
  007dc	00		 DB	 0
_TEXT	ENDS
;	COMDAT text$x
text$x	SEGMENT
__unwindfunclet$?Load_Alphabet@CMiniGame@@QAEHXZ$0:
  00000	8d 8d 98 f7 ff
	ff		 lea	 ecx, DWORD PTR _s$[ebp]
  00006	e9 00 00 00 00	 jmp	 ??1CScanner@@UAE@XZ	; CScanner::~CScanner
__unwindfunclet$?Load_Alphabet@CMiniGame@@QAEHXZ$1:
  0000b	8d 8d 90 f7 ff
	ff		 lea	 ecx, DWORD PTR _mapQuestion$[ebp]
  00011	e9 00 00 00 00	 jmp	 ??1?$map@HV?$CStringT@DV?$StrTraitMFC@DV?$ChTraitsCRT@D@ATL@@@@@ATL@@U?$less@H@std@@V?$allocator@U?$pair@$$CBHV?$CStringT@DV?$StrTraitMFC@DV?$ChTraitsCRT@D@ATL@@@@@ATL@@@std@@@4@@std@@QAE@XZ
__unwindfunclet$?Load_Alphabet@CMiniGame@@QAEHXZ$3:
  00016	8d 8d 84 f7 ff
	ff		 lea	 ecx, DWORD PTR _strQuestion$9[ebp]
  0001c	e9 00 00 00 00	 jmp	 ??1?$CStringT@DV?$StrTraitMFC@DV?$ChTraitsCRT@D@ATL@@@@@ATL@@QAE@XZ ; ATL::CStringT<char,StrTraitMFC<char,ATL::ChTraitsCRT<char> > >::~CStringT<char,StrTraitMFC<char,ATL::ChTraitsCRT<char> > >
__unwindfunclet$?Load_Alphabet@CMiniGame@@QAEHXZ$4:
  00021	8d 8d 50 f7 ff
	ff		 lea	 ecx, DWORD PTR $T4[ebp]
  00027	e9 00 00 00 00	 jmp	 ??1?$pair@HV?$CStringT@DV?$StrTraitMFC@DV?$ChTraitsCRT@D@ATL@@@@@ATL@@@std@@QAE@XZ
__unwindfunclet$?Load_Alphabet@CMiniGame@@QAEHXZ$15:
  0002c	8d 8d 5c f7 ff
	ff		 lea	 ecx, DWORD PTR $T6[ebp]
  00032	e9 00 00 00 00	 jmp	 ??1?$_Alloc_construct_ptr@V?$allocator@U?$_Tree_node@U?$pair@$$CBHV?$CStringT@DV?$StrTraitMFC@DV?$ChTraitsCRT@D@ATL@@@@@ATL@@@std@@PAX@std@@@std@@@std@@QAE@XZ ; std::_Alloc_construct_ptr<std::allocator<std::_Tree_node<std::pair<int const ,ATL::CStringT<char,StrTraitMFC<char,ATL::ChTraitsCRT<char> > > >,void *> > >::~_Alloc_construct_ptr<std::allocator<std::_Tree_node<std::pair<int const ,ATL::CStringT<char,StrTraitMFC<char,ATL::ChTraitsCRT<char> > > >,void *> > >
__unwindfunclet$?Load_Alphabet@CMiniGame@@QAEHXZ$14:
  00037	8d 8d 5c f7 ff
	ff		 lea	 ecx, DWORD PTR $T6[ebp]
  0003d	e9 00 00 00 00	 jmp	 ??1?$_Tree_temp_node_alloc@V?$allocator@U?$_Tree_node@U?$pair@$$CBHV?$CStringT@DV?$StrTraitMFC@DV?$ChTraitsCRT@D@ATL@@@@@ATL@@@std@@PAX@std@@@std@@@std@@QAE@XZ
__unwindfunclet$?Load_Alphabet@CMiniGame@@QAEHXZ$5:
  00042	8d 8d 64 f7 ff
	ff		 lea	 ecx, DWORD PTR _Alpabet$7[ebp]
  00048	e9 00 00 00 00	 jmp	 ??1__ALPHABET@CMiniGame@@QAE@XZ
  0004d	cc		 int	 3
  0004e	cc		 int	 3
  0004f	cc		 int	 3
  00050	cc		 int	 3
  00051	cc		 int	 3
__ehhandler$?Load_Alphabet@CMiniGame@@QAEHXZ:
  00052	90		 npad	 1
  00053	90		 npad	 1
  00054	8b 54 24 08	 mov	 edx, DWORD PTR [esp+8]
  00058	8d 42 0c	 lea	 eax, DWORD PTR [edx+12]
  0005b	8b 8a 40 f7 ff
	ff		 mov	 ecx, DWORD PTR [edx-2240]
  00061	33 c8		 xor	 ecx, eax
  00063	e8 00 00 00 00	 call	 @__security_check_cookie@4
  00068	8b 4a fc	 mov	 ecx, DWORD PTR [edx-4]
  0006b	33 c8		 xor	 ecx, eax
  0006d	e8 00 00 00 00	 call	 @__security_check_cookie@4
  00072	b8 00 00 00 00	 mov	 eax, OFFSET __ehfuncinfo$?Load_Alphabet@CMiniGame@@QAEHXZ
  00077	e9 00 00 00 00	 jmp	 ___CxxFrameHandler3
text$x	ENDS
?Load_Alphabet@CMiniGame@@QAEHXZ ENDP			; CMiniGame::Load_Alphabet
; Function compile flags: /Ogtp
; File C:\IAGOS\server\v18\Source\Source\_Common\MiniGame.cpp
; File C:\Program Files\Microsoft Visual Studio\2022\Professional\VC\Tools\MSVC\14.44.35207\include\vector
; File C:\IAGOS\server\v18\Source\Source\_Common\MiniGame.cpp
; File C:\Program Files\Microsoft Visual Studio\2022\Professional\VC\Tools\MSVC\14.44.35207\include\vector
; File C:\IAGOS\server\v18\Source\Source\_Common\MiniGame.cpp
;	COMDAT ??1CMiniGame@@UAE@XZ
_TEXT	SEGMENT
??1CMiniGame@@UAE@XZ PROC				; CMiniGame::~CMiniGame, COMDAT
; _this$ = ecx

; 59   : {

  00000	56		 push	 esi
  00001	8b f1		 mov	 esi, ecx

; 61   : }

  00003	8d 4e 4c	 lea	 ecx, DWORD PTR [esi+76]
  00006	c7 06 00 00 00
	00		 mov	 DWORD PTR [esi], OFFSET ??_7CMiniGame@@6B@
  0000c	e8 00 00 00 00	 call	 ??1?$vector@U__KAWIBAWIBORESULT@CMiniGame@@V?$allocator@U__KAWIBAWIBORESULT@CMiniGame@@@std@@@std@@QAE@XZ ; std::vector<CMiniGame::__KAWIBAWIBORESULT,std::allocator<CMiniGame::__KAWIBAWIBORESULT> >::~vector<CMiniGame::__KAWIBAWIBORESULT,std::allocator<CMiniGame::__KAWIBAWIBORESULT> >
  00011	8d 4e 40	 lea	 ecx, DWORD PTR [esi+64]
; File C:\Program Files\Microsoft Visual Studio\2022\Professional\VC\Tools\MSVC\14.44.35207\include\vector

; 830  :         _Tidy();

  00014	e8 00 00 00 00	 call	 ?_Tidy@?$vector@KV?$allocator@K@std@@@std@@AAEXXZ ; std::vector<unsigned long,std::allocator<unsigned long> >::_Tidy
; File C:\IAGOS\server\v18\Source\Source\_Common\MiniGame.cpp

; 61   : }

  00019	8d 4e 34	 lea	 ecx, DWORD PTR [esi+52]
; File C:\Program Files\Microsoft Visual Studio\2022\Professional\VC\Tools\MSVC\14.44.35207\include\vector

; 830  :         _Tidy();

  0001c	e8 00 00 00 00	 call	 ?_Tidy@?$vector@U__ITEMGAME@CMiniGame@@V?$allocator@U__ITEMGAME@CMiniGame@@@std@@@std@@AAEXXZ ; std::vector<CMiniGame::__ITEMGAME,std::allocator<CMiniGame::__ITEMGAME> >::_Tidy
; File C:\IAGOS\server\v18\Source\Source\_Common\MiniGame.cpp

; 61   : }

  00021	8d 4e 2c	 lea	 ecx, DWORD PTR [esi+44]
  00024	e8 00 00 00 00	 call	 ??1?$_Tree@V?$_Tmap_traits@HU__FIVESYSTEM@CMiniGame@@U?$less@H@std@@V?$allocator@U?$pair@$$CBHU__FIVESYSTEM@CMiniGame@@@std@@@4@$0A@@std@@@std@@QAE@XZ ; std::_Tree<std::_Tmap_traits<int,CMiniGame::__FIVESYSTEM,std::less<int>,std::allocator<std::pair<int const ,CMiniGame::__FIVESYSTEM> >,0> >::~_Tree<std::_Tmap_traits<int,CMiniGame::__FIVESYSTEM,std::less<int>,std::allocator<std::pair<int const ,CMiniGame::__FIVESYSTEM> >,0> >
  00029	8d 4e 24	 lea	 ecx, DWORD PTR [esi+36]
  0002c	e8 00 00 00 00	 call	 ??1?$_Tree@V?$_Tmap_traits@HU__KAWIBAWIBO@CMiniGame@@U?$less@H@std@@V?$allocator@U?$pair@$$CBHU__KAWIBAWIBO@CMiniGame@@@std@@@4@$0A@@std@@@std@@QAE@XZ ; std::_Tree<std::_Tmap_traits<int,CMiniGame::__KAWIBAWIBO,std::less<int>,std::allocator<std::pair<int const ,CMiniGame::__KAWIBAWIBO> >,0> >::~_Tree<std::_Tmap_traits<int,CMiniGame::__KAWIBAWIBO,std::less<int>,std::allocator<std::pair<int const ,CMiniGame::__KAWIBAWIBO> >,0> >
  00031	8d 4e 18	 lea	 ecx, DWORD PTR [esi+24]
  00034	5e		 pop	 esi
  00035	e9 00 00 00 00	 jmp	 ??1?$vector@U__ALPHABET@CMiniGame@@V?$allocator@U__ALPHABET@CMiniGame@@@std@@@std@@QAE@XZ ; std::vector<CMiniGame::__ALPHABET,std::allocator<CMiniGame::__ALPHABET> >::~vector<CMiniGame::__ALPHABET,std::allocator<CMiniGame::__ALPHABET> >
??1CMiniGame@@UAE@XZ ENDP				; CMiniGame::~CMiniGame
_TEXT	ENDS
; Function compile flags: /Ogtp
; File C:\IAGOS\server\v18\Source\Source\_Common\MiniGame.cpp
; File C:\Program Files\Microsoft Visual Studio\2022\Professional\VC\Tools\MSVC\14.44.35207\include\vector
; File C:\IAGOS\server\v18\Source\Source\_Common\MiniGame.cpp
; File C:\Program Files\Microsoft Visual Studio\2022\Professional\VC\Tools\MSVC\14.44.35207\include\xmemory
; File C:\IAGOS\server\v18\Source\Source\_Common\MiniGame.cpp
; File C:\Program Files\Microsoft Visual Studio\2022\Professional\VC\Tools\MSVC\14.44.35207\include\xtree
; File C:\Program Files\Microsoft Visual Studio\2022\Professional\VC\Tools\MSVC\14.44.35207\include\xmemory
; File C:\Program Files\Microsoft Visual Studio\2022\Professional\VC\Tools\MSVC\14.44.35207\include\xtree
; File C:\IAGOS\server\v18\Source\Source\_Common\MiniGame.cpp
; File C:\Program Files\Microsoft Visual Studio\2022\Professional\VC\Tools\MSVC\14.44.35207\include\xmemory
; File C:\IAGOS\server\v18\Source\Source\_Common\MiniGame.cpp
; File C:\Program Files\Microsoft Visual Studio\2022\Professional\VC\Tools\MSVC\14.44.35207\include\xtree
; File C:\Program Files\Microsoft Visual Studio\2022\Professional\VC\Tools\MSVC\14.44.35207\include\xmemory
; File C:\Program Files\Microsoft Visual Studio\2022\Professional\VC\Tools\MSVC\14.44.35207\include\xtree
; File C:\Program Files\Microsoft Visual Studio\2022\Professional\VC\Tools\MSVC\14.44.35207\include\vector
; File C:\IAGOS\server\v18\Source\Source\_Common\MiniGame.cpp
; File C:\Program Files\Microsoft Visual Studio\2022\Professional\VC\Tools\MSVC\14.44.35207\include\vector
; File C:\IAGOS\server\v18\Source\Source\_Common\MiniGame.cpp
; File C:\Program Files\Microsoft Visual Studio\2022\Professional\VC\Tools\MSVC\14.44.35207\include\vector
; File C:\IAGOS\server\v18\Source\Source\_Common\MiniGame.cpp
; File C:\Program Files\Microsoft Visual Studio\2022\Professional\VC\Tools\MSVC\14.44.35207\include\vector
; File C:\Program Files\Microsoft Visual Studio\2022\Professional\VC\Tools\MSVC\14.44.35207\include\xutility
; File C:\Program Files\Microsoft Visual Studio\2022\Professional\VC\Tools\MSVC\14.44.35207\include\vector
; File C:\IAGOS\server\v18\Source\Source\_Common\MiniGame.cpp
; File C:\Program Files\Microsoft Visual Studio\2022\Professional\VC\Tools\MSVC\14.44.35207\include\vector
; File C:\Program Files\Microsoft Visual Studio\2022\Professional\VC\Tools\MSVC\14.44.35207\include\xutility
; File C:\Program Files\Microsoft Visual Studio\2022\Professional\VC\Tools\MSVC\14.44.35207\include\vector
; File C:\IAGOS\server\v18\Source\Source\_Common\MiniGame.cpp
; File C:\Program Files\Microsoft Visual Studio\2022\Professional\VC\Tools\MSVC\14.44.35207\include\vector
; File C:\Program Files\Microsoft Visual Studio\2022\Professional\VC\Tools\MSVC\14.44.35207\include\xutility
; File C:\Program Files\Microsoft Visual Studio\2022\Professional\VC\Tools\MSVC\14.44.35207\include\vector
; File C:\IAGOS\server\v18\Source\Source\_Common\MiniGame.cpp
; File C:\Program Files\Microsoft Visual Studio\2022\Professional\VC\Tools\MSVC\14.44.35207\include\vector
; File C:\Program Files\Microsoft Visual Studio\2022\Professional\VC\Tools\MSVC\14.44.35207\include\xutility
; File C:\Program Files\Microsoft Visual Studio\2022\Professional\VC\Tools\MSVC\14.44.35207\include\vector
; File C:\IAGOS\server\v18\Source\Source\_Common\MiniGame.cpp
; File C:\Program Files\Microsoft Visual Studio\2022\Professional\VC\Tools\MSVC\14.44.35207\include\vector
; File C:\Program Files\Microsoft Visual Studio\2022\Professional\VC\Tools\MSVC\14.44.35207\include\xutility
; File C:\Program Files\Microsoft Visual Studio\2022\Professional\VC\Tools\MSVC\14.44.35207\include\vector
; File C:\IAGOS\server\v18\Source\Source\_Common\MiniGame.cpp
;	COMDAT ??0CMiniGame@@QAE@XZ
_TEXT	SEGMENT
_KawibawiboResult$ = -32				; size = 12
_this$ = -20						; size = 4
_this$ = -20						; size = 4
_this$ = -16						; size = 4
__$EHRec$ = -12						; size = 12
??0CMiniGame@@QAE@XZ PROC				; CMiniGame::CMiniGame, COMDAT
; _this$ = ecx

; 24   : {

  00000	55		 push	 ebp
  00001	8b ec		 mov	 ebp, esp
  00003	6a ff		 push	 -1
  00005	68 00 00 00 00	 push	 __ehhandler$??0CMiniGame@@QAE@XZ
  0000a	64 a1 00 00 00
	00		 mov	 eax, DWORD PTR fs:0
  00010	50		 push	 eax
  00011	83 ec 14	 sub	 esp, 20			; 00000014H
  00014	56		 push	 esi
  00015	57		 push	 edi
  00016	a1 00 00 00 00	 mov	 eax, DWORD PTR ___security_cookie
  0001b	33 c5		 xor	 eax, ebp
  0001d	50		 push	 eax
  0001e	8d 45 f4	 lea	 eax, DWORD PTR __$EHRec$[ebp]
  00021	64 a3 00 00 00
	00		 mov	 DWORD PTR fs:0, eax
  00027	8b f9		 mov	 edi, ecx
  00029	89 7d f0	 mov	 DWORD PTR _this$[ebp], edi
  0002c	c7 07 00 00 00
	00		 mov	 DWORD PTR [edi], OFFSET ??_7CMiniGame@@6B@
; File C:\Program Files\Microsoft Visual Studio\2022\Professional\VC\Tools\MSVC\14.44.35207\include\vector

; 400  :     _CONSTEXPR20 _Vector_val() noexcept : _Myfirst(), _Mylast(), _Myend() {}

  00032	c7 47 18 00 00
	00 00		 mov	 DWORD PTR [edi+24], 0
  00039	c7 47 1c 00 00
	00 00		 mov	 DWORD PTR [edi+28], 0
  00040	c7 47 20 00 00
	00 00		 mov	 DWORD PTR [edi+32], 0
; File C:\IAGOS\server\v18\Source\Source\_Common\MiniGame.cpp

; 24   : {

  00047	8d 77 24	 lea	 esi, DWORD PTR [edi+36]
  0004a	c7 45 fc 00 00
	00 00		 mov	 DWORD PTR __$EHRec$[ebp+8], 0
; File C:\Program Files\Microsoft Visual Studio\2022\Professional\VC\Tools\MSVC\14.44.35207\include\xmemory

; 136  :         return ::operator new(_Bytes);

  00051	6a 28		 push	 40			; 00000028H
; File C:\IAGOS\server\v18\Source\Source\_Common\MiniGame.cpp

; 24   : {

  00053	89 75 ec	 mov	 DWORD PTR _this$[ebp], esi
; File C:\Program Files\Microsoft Visual Studio\2022\Professional\VC\Tools\MSVC\14.44.35207\include\xtree

; 450  :     _Tree_val() noexcept : _Myhead(), _Mysize(0) {}

  00056	c7 06 00 00 00
	00		 mov	 DWORD PTR [esi], 0
  0005c	c7 46 04 00 00
	00 00		 mov	 DWORD PTR [esi+4], 0
; File C:\Program Files\Microsoft Visual Studio\2022\Professional\VC\Tools\MSVC\14.44.35207\include\xmemory

; 136  :         return ::operator new(_Bytes);

  00063	e8 00 00 00 00	 call	 ??2@YAPAXI@Z		; operator new
; File C:\Program Files\Microsoft Visual Studio\2022\Professional\VC\Tools\MSVC\14.44.35207\include\xtree

; 346  :         _Construct_in_place(_Pnode->_Left, _Pnode);

  00068	89 00		 mov	 DWORD PTR [eax], eax

; 347  :         _Construct_in_place(_Pnode->_Parent, _Pnode);

  0006a	89 40 04	 mov	 DWORD PTR [eax+4], eax

; 348  :         _Construct_in_place(_Pnode->_Right, _Pnode);

  0006d	89 40 08	 mov	 DWORD PTR [eax+8], eax

; 349  :         _Pnode->_Color = _Black;

  00070	66 c7 40 0c 01
	01		 mov	 WORD PTR [eax+12], 257	; 00000101H

; 1957 :         _Scary->_Myhead = _Node::_Buyheadnode(_Getal());

  00076	89 06		 mov	 DWORD PTR [esi], eax
; File C:\IAGOS\server\v18\Source\Source\_Common\MiniGame.cpp

; 24   : {

  00078	8d 77 2c	 lea	 esi, DWORD PTR [edi+44]
  0007b	c6 45 fc 01	 mov	 BYTE PTR __$EHRec$[ebp+8], 1
; File C:\Program Files\Microsoft Visual Studio\2022\Professional\VC\Tools\MSVC\14.44.35207\include\xmemory

; 136  :         return ::operator new(_Bytes);

  0007f	6a 1c		 push	 28			; 0000001cH
; File C:\IAGOS\server\v18\Source\Source\_Common\MiniGame.cpp

; 24   : {

  00081	89 75 ec	 mov	 DWORD PTR _this$[ebp], esi
; File C:\Program Files\Microsoft Visual Studio\2022\Professional\VC\Tools\MSVC\14.44.35207\include\xtree

; 450  :     _Tree_val() noexcept : _Myhead(), _Mysize(0) {}

  00084	c7 06 00 00 00
	00		 mov	 DWORD PTR [esi], 0
  0008a	c7 46 04 00 00
	00 00		 mov	 DWORD PTR [esi+4], 0
; File C:\Program Files\Microsoft Visual Studio\2022\Professional\VC\Tools\MSVC\14.44.35207\include\xmemory

; 136  :         return ::operator new(_Bytes);

  00091	e8 00 00 00 00	 call	 ??2@YAPAXI@Z		; operator new
  00096	83 c4 08	 add	 esp, 8
; File C:\Program Files\Microsoft Visual Studio\2022\Professional\VC\Tools\MSVC\14.44.35207\include\xtree

; 346  :         _Construct_in_place(_Pnode->_Left, _Pnode);

  00099	89 00		 mov	 DWORD PTR [eax], eax

; 347  :         _Construct_in_place(_Pnode->_Parent, _Pnode);

  0009b	89 40 04	 mov	 DWORD PTR [eax+4], eax

; 348  :         _Construct_in_place(_Pnode->_Right, _Pnode);

  0009e	89 40 08	 mov	 DWORD PTR [eax+8], eax

; 349  :         _Pnode->_Color = _Black;

  000a1	66 c7 40 0c 01
	01		 mov	 WORD PTR [eax+12], 257	; 00000101H

; 1957 :         _Scary->_Myhead = _Node::_Buyheadnode(_Getal());

  000a7	89 06		 mov	 DWORD PTR [esi], eax
; File C:\Program Files\Microsoft Visual Studio\2022\Professional\VC\Tools\MSVC\14.44.35207\include\vector

; 400  :     _CONSTEXPR20 _Vector_val() noexcept : _Myfirst(), _Mylast(), _Myend() {}

  000a9	c7 47 34 00 00
	00 00		 mov	 DWORD PTR [edi+52], 0
  000b0	c7 47 38 00 00
	00 00		 mov	 DWORD PTR [edi+56], 0
  000b7	c7 47 3c 00 00
	00 00		 mov	 DWORD PTR [edi+60], 0
  000be	c7 47 40 00 00
	00 00		 mov	 DWORD PTR [edi+64], 0
  000c5	c7 47 44 00 00
	00 00		 mov	 DWORD PTR [edi+68], 0
  000cc	c7 47 48 00 00
	00 00		 mov	 DWORD PTR [edi+72], 0
  000d3	c7 47 4c 00 00
	00 00		 mov	 DWORD PTR [edi+76], 0
  000da	c7 47 50 00 00
	00 00		 mov	 DWORD PTR [edi+80], 0
  000e1	c7 47 54 00 00
	00 00		 mov	 DWORD PTR [edi+84], 0

; 848  :         return *_Emplace_reallocate(_Mylast, _STD forward<_Valty>(_Val)...);

  000e8	8d 45 e0	 lea	 eax, DWORD PTR _KawibawiboResult$[ebp]
; File C:\IAGOS\server\v18\Source\Source\_Common\MiniGame.cpp

; 24   : {

  000eb	c6 45 fc 05	 mov	 BYTE PTR __$EHRec$[ebp+8], 5
; File C:\Program Files\Microsoft Visual Studio\2022\Professional\VC\Tools\MSVC\14.44.35207\include\vector

; 848  :         return *_Emplace_reallocate(_Mylast, _STD forward<_Valty>(_Val)...);

  000ef	50		 push	 eax
  000f0	6a 00		 push	 0
  000f2	8d 4f 4c	 lea	 ecx, DWORD PTR [edi+76]
; File C:\IAGOS\server\v18\Source\Source\_Common\MiniGame.cpp

; 27   : 	KawibawiboResult.nMy = KAWI;

  000f5	c7 45 e0 00 00
	00 00		 mov	 DWORD PTR _KawibawiboResult$[ebp], 0

; 28   : 	KawibawiboResult.nYou	= BAWI;

  000fc	c7 45 e4 01 00
	00 00		 mov	 DWORD PTR _KawibawiboResult$[ebp+4], 1

; 29   : 	KawibawiboResult.nResult = KAWIBAWIBO_LOST;

  00103	c7 45 e8 01 00
	00 00		 mov	 DWORD PTR _KawibawiboResult$[ebp+8], 1
; File C:\Program Files\Microsoft Visual Studio\2022\Professional\VC\Tools\MSVC\14.44.35207\include\vector

; 848  :         return *_Emplace_reallocate(_Mylast, _STD forward<_Valty>(_Val)...);

  0010a	e8 00 00 00 00	 call	 ??$_Emplace_reallocate@ABU__KAWIBAWIBORESULT@CMiniGame@@@?$vector@U__KAWIBAWIBORESULT@CMiniGame@@V?$allocator@U__KAWIBAWIBORESULT@CMiniGame@@@std@@@std@@AAEPAU__KAWIBAWIBORESULT@CMiniGame@@QAU23@ABU23@@Z ; std::vector<CMiniGame::__KAWIBAWIBORESULT,std::allocator<CMiniGame::__KAWIBAWIBORESULT> >::_Emplace_reallocate<CMiniGame::__KAWIBAWIBORESULT const &>

; 844  :         if (_Mylast != _My_data._Myend) {

  0010f	8b 47 50	 mov	 eax, DWORD PTR [edi+80]
; File C:\IAGOS\server\v18\Source\Source\_Common\MiniGame.cpp

; 32   : 	KawibawiboResult.nResult = KAWIBAWIBO_WIN;

  00112	33 c9		 xor	 ecx, ecx
  00114	c7 45 e4 02 00
	00 00		 mov	 DWORD PTR _KawibawiboResult$[ebp+4], 2
  0011b	89 4d e8	 mov	 DWORD PTR _KawibawiboResult$[ebp+8], ecx
; File C:\Program Files\Microsoft Visual Studio\2022\Professional\VC\Tools\MSVC\14.44.35207\include\vector

; 844  :         if (_Mylast != _My_data._Myend) {

  0011e	3b 47 54	 cmp	 eax, DWORD PTR [edi+84]
  00121	74 12		 je	 SHORT $LN127@CMiniGame
; File C:\Program Files\Microsoft Visual Studio\2022\Professional\VC\Tools\MSVC\14.44.35207\include\xutility

; 476  :         ::new (static_cast<void*>(_STD addressof(_Obj))) _Ty(_STD forward<_Types>(_Args)...);

  00123	f3 0f 7e 45 e0	 movq	 xmm0, QWORD PTR _KawibawiboResult$[ebp]
  00128	66 0f d6 00	 movq	 QWORD PTR [eax], xmm0
  0012c	89 48 08	 mov	 DWORD PTR [eax+8], ecx
; File C:\Program Files\Microsoft Visual Studio\2022\Professional\VC\Tools\MSVC\14.44.35207\include\vector

; 869  :         ++_Mylast;

  0012f	83 47 50 0c	 add	 DWORD PTR [edi+80], 12	; 0000000cH

; 845  :             return _Emplace_back_with_unused_capacity(_STD forward<_Valty>(_Val)...);

  00133	eb 0d		 jmp	 SHORT $LN126@CMiniGame
$LN127@CMiniGame:

; 848  :         return *_Emplace_reallocate(_Mylast, _STD forward<_Valty>(_Val)...);

  00135	8d 4d e0	 lea	 ecx, DWORD PTR _KawibawiboResult$[ebp]
  00138	51		 push	 ecx
  00139	50		 push	 eax
  0013a	8d 4f 4c	 lea	 ecx, DWORD PTR [edi+76]
  0013d	e8 00 00 00 00	 call	 ??$_Emplace_reallocate@ABU__KAWIBAWIBORESULT@CMiniGame@@@?$vector@U__KAWIBAWIBORESULT@CMiniGame@@V?$allocator@U__KAWIBAWIBORESULT@CMiniGame@@@std@@@std@@AAEPAU__KAWIBAWIBORESULT@CMiniGame@@QAU23@ABU23@@Z ; std::vector<CMiniGame::__KAWIBAWIBORESULT,std::allocator<CMiniGame::__KAWIBAWIBORESULT> >::_Emplace_reallocate<CMiniGame::__KAWIBAWIBORESULT const &>
$LN126@CMiniGame:

; 844  :         if (_Mylast != _My_data._Myend) {

  00142	8b 47 50	 mov	 eax, DWORD PTR [edi+80]
; File C:\IAGOS\server\v18\Source\Source\_Common\MiniGame.cpp

; 36   : 	KawibawiboResult.nMy = BAWI;

  00145	c7 45 e0 01 00
	00 00		 mov	 DWORD PTR _KawibawiboResult$[ebp], 1

; 37   : 	KawibawiboResult.nYou	= KAWI;

  0014c	c7 45 e4 00 00
	00 00		 mov	 DWORD PTR _KawibawiboResult$[ebp+4], 0
; File C:\Program Files\Microsoft Visual Studio\2022\Professional\VC\Tools\MSVC\14.44.35207\include\vector

; 844  :         if (_Mylast != _My_data._Myend) {

  00153	3b 47 54	 cmp	 eax, DWORD PTR [edi+84]
  00156	74 1a		 je	 SHORT $LN137@CMiniGame
; File C:\Program Files\Microsoft Visual Studio\2022\Professional\VC\Tools\MSVC\14.44.35207\include\xutility

; 476  :         ::new (static_cast<void*>(_STD addressof(_Obj))) _Ty(_STD forward<_Types>(_Args)...);

  00158	c7 00 01 00 00
	00		 mov	 DWORD PTR [eax], 1
  0015e	c7 40 04 00 00
	00 00		 mov	 DWORD PTR [eax+4], 0
  00165	c7 40 08 00 00
	00 00		 mov	 DWORD PTR [eax+8], 0
; File C:\Program Files\Microsoft Visual Studio\2022\Professional\VC\Tools\MSVC\14.44.35207\include\vector

; 869  :         ++_Mylast;

  0016c	83 47 50 0c	 add	 DWORD PTR [edi+80], 12	; 0000000cH

; 845  :             return _Emplace_back_with_unused_capacity(_STD forward<_Valty>(_Val)...);

  00170	eb 0d		 jmp	 SHORT $LN136@CMiniGame
$LN137@CMiniGame:

; 848  :         return *_Emplace_reallocate(_Mylast, _STD forward<_Valty>(_Val)...);

  00172	8d 4d e0	 lea	 ecx, DWORD PTR _KawibawiboResult$[ebp]
  00175	51		 push	 ecx
  00176	50		 push	 eax
  00177	8d 4f 4c	 lea	 ecx, DWORD PTR [edi+76]
  0017a	e8 00 00 00 00	 call	 ??$_Emplace_reallocate@ABU__KAWIBAWIBORESULT@CMiniGame@@@?$vector@U__KAWIBAWIBORESULT@CMiniGame@@V?$allocator@U__KAWIBAWIBORESULT@CMiniGame@@@std@@@std@@AAEPAU__KAWIBAWIBORESULT@CMiniGame@@QAU23@ABU23@@Z ; std::vector<CMiniGame::__KAWIBAWIBORESULT,std::allocator<CMiniGame::__KAWIBAWIBORESULT> >::_Emplace_reallocate<CMiniGame::__KAWIBAWIBORESULT const &>
$LN136@CMiniGame:

; 844  :         if (_Mylast != _My_data._Myend) {

  0017f	8b 47 50	 mov	 eax, DWORD PTR [edi+80]
; File C:\IAGOS\server\v18\Source\Source\_Common\MiniGame.cpp

; 40   : 	KawibawiboResult.nYou	= BO;

  00182	c7 45 e4 02 00
	00 00		 mov	 DWORD PTR _KawibawiboResult$[ebp+4], 2

; 41   : 	KawibawiboResult.nResult = KAWIBAWIBO_LOST;

  00189	c7 45 e8 01 00
	00 00		 mov	 DWORD PTR _KawibawiboResult$[ebp+8], 1
; File C:\Program Files\Microsoft Visual Studio\2022\Professional\VC\Tools\MSVC\14.44.35207\include\vector

; 844  :         if (_Mylast != _My_data._Myend) {

  00190	3b 47 54	 cmp	 eax, DWORD PTR [edi+84]
  00193	74 16		 je	 SHORT $LN147@CMiniGame
; File C:\Program Files\Microsoft Visual Studio\2022\Professional\VC\Tools\MSVC\14.44.35207\include\xutility

; 476  :         ::new (static_cast<void*>(_STD addressof(_Obj))) _Ty(_STD forward<_Types>(_Args)...);

  00195	f3 0f 7e 45 e0	 movq	 xmm0, QWORD PTR _KawibawiboResult$[ebp]
  0019a	66 0f d6 00	 movq	 QWORD PTR [eax], xmm0
  0019e	c7 40 08 01 00
	00 00		 mov	 DWORD PTR [eax+8], 1
; File C:\Program Files\Microsoft Visual Studio\2022\Professional\VC\Tools\MSVC\14.44.35207\include\vector

; 869  :         ++_Mylast;

  001a5	83 47 50 0c	 add	 DWORD PTR [edi+80], 12	; 0000000cH

; 845  :             return _Emplace_back_with_unused_capacity(_STD forward<_Valty>(_Val)...);

  001a9	eb 0d		 jmp	 SHORT $LN146@CMiniGame
$LN147@CMiniGame:

; 848  :         return *_Emplace_reallocate(_Mylast, _STD forward<_Valty>(_Val)...);

  001ab	8d 4d e0	 lea	 ecx, DWORD PTR _KawibawiboResult$[ebp]
  001ae	51		 push	 ecx
  001af	50		 push	 eax
  001b0	8d 4f 4c	 lea	 ecx, DWORD PTR [edi+76]
  001b3	e8 00 00 00 00	 call	 ??$_Emplace_reallocate@ABU__KAWIBAWIBORESULT@CMiniGame@@@?$vector@U__KAWIBAWIBORESULT@CMiniGame@@V?$allocator@U__KAWIBAWIBORESULT@CMiniGame@@@std@@@std@@AAEPAU__KAWIBAWIBORESULT@CMiniGame@@QAU23@ABU23@@Z ; std::vector<CMiniGame::__KAWIBAWIBORESULT,std::allocator<CMiniGame::__KAWIBAWIBORESULT> >::_Emplace_reallocate<CMiniGame::__KAWIBAWIBORESULT const &>
$LN146@CMiniGame:

; 844  :         if (_Mylast != _My_data._Myend) {

  001b8	8b 47 50	 mov	 eax, DWORD PTR [edi+80]
; File C:\IAGOS\server\v18\Source\Source\_Common\MiniGame.cpp

; 45   : 	KawibawiboResult.nMy = BO;

  001bb	c7 45 e0 02 00
	00 00		 mov	 DWORD PTR _KawibawiboResult$[ebp], 2

; 46   : 	KawibawiboResult.nYou	= KAWI;

  001c2	c7 45 e4 00 00
	00 00		 mov	 DWORD PTR _KawibawiboResult$[ebp+4], 0
; File C:\Program Files\Microsoft Visual Studio\2022\Professional\VC\Tools\MSVC\14.44.35207\include\vector

; 844  :         if (_Mylast != _My_data._Myend) {

  001c9	3b 47 54	 cmp	 eax, DWORD PTR [edi+84]
  001cc	74 1a		 je	 SHORT $LN157@CMiniGame
; File C:\Program Files\Microsoft Visual Studio\2022\Professional\VC\Tools\MSVC\14.44.35207\include\xutility

; 476  :         ::new (static_cast<void*>(_STD addressof(_Obj))) _Ty(_STD forward<_Types>(_Args)...);

  001ce	c7 00 02 00 00
	00		 mov	 DWORD PTR [eax], 2
  001d4	c7 40 04 00 00
	00 00		 mov	 DWORD PTR [eax+4], 0
  001db	c7 40 08 01 00
	00 00		 mov	 DWORD PTR [eax+8], 1
; File C:\Program Files\Microsoft Visual Studio\2022\Professional\VC\Tools\MSVC\14.44.35207\include\vector

; 869  :         ++_Mylast;

  001e2	83 47 50 0c	 add	 DWORD PTR [edi+80], 12	; 0000000cH

; 845  :             return _Emplace_back_with_unused_capacity(_STD forward<_Valty>(_Val)...);

  001e6	eb 0d		 jmp	 SHORT $LN156@CMiniGame
$LN157@CMiniGame:

; 848  :         return *_Emplace_reallocate(_Mylast, _STD forward<_Valty>(_Val)...);

  001e8	8d 4d e0	 lea	 ecx, DWORD PTR _KawibawiboResult$[ebp]
  001eb	51		 push	 ecx
  001ec	50		 push	 eax
  001ed	8d 4f 4c	 lea	 ecx, DWORD PTR [edi+76]
  001f0	e8 00 00 00 00	 call	 ??$_Emplace_reallocate@ABU__KAWIBAWIBORESULT@CMiniGame@@@?$vector@U__KAWIBAWIBORESULT@CMiniGame@@V?$allocator@U__KAWIBAWIBORESULT@CMiniGame@@@std@@@std@@AAEPAU__KAWIBAWIBORESULT@CMiniGame@@QAU23@ABU23@@Z ; std::vector<CMiniGame::__KAWIBAWIBORESULT,std::allocator<CMiniGame::__KAWIBAWIBORESULT> >::_Emplace_reallocate<CMiniGame::__KAWIBAWIBORESULT const &>
$LN156@CMiniGame:

; 844  :         if (_Mylast != _My_data._Myend) {

  001f5	8b 47 50	 mov	 eax, DWORD PTR [edi+80]
; File C:\IAGOS\server\v18\Source\Source\_Common\MiniGame.cpp

; 51   : 	m_vecKawibawiboResult.push_back( KawibawiboResult );

  001f8	8d 4f 4c	 lea	 ecx, DWORD PTR [edi+76]
  001fb	33 d2		 xor	 edx, edx
  001fd	c7 45 e4 01 00
	00 00		 mov	 DWORD PTR _KawibawiboResult$[ebp+4], 1
  00204	89 55 e8	 mov	 DWORD PTR _KawibawiboResult$[ebp+8], edx
; File C:\Program Files\Microsoft Visual Studio\2022\Professional\VC\Tools\MSVC\14.44.35207\include\vector

; 844  :         if (_Mylast != _My_data._Myend) {

  00207	3b 41 08	 cmp	 eax, DWORD PTR [ecx+8]
  0020a	74 12		 je	 SHORT $LN167@CMiniGame
; File C:\Program Files\Microsoft Visual Studio\2022\Professional\VC\Tools\MSVC\14.44.35207\include\xutility

; 476  :         ::new (static_cast<void*>(_STD addressof(_Obj))) _Ty(_STD forward<_Types>(_Args)...);

  0020c	f3 0f 7e 45 e0	 movq	 xmm0, QWORD PTR _KawibawiboResult$[ebp]
  00211	66 0f d6 00	 movq	 QWORD PTR [eax], xmm0
  00215	89 50 08	 mov	 DWORD PTR [eax+8], edx
; File C:\Program Files\Microsoft Visual Studio\2022\Professional\VC\Tools\MSVC\14.44.35207\include\vector

; 869  :         ++_Mylast;

  00218	83 41 04 0c	 add	 DWORD PTR [ecx+4], 12	; 0000000cH

; 845  :             return _Emplace_back_with_unused_capacity(_STD forward<_Valty>(_Val)...);

  0021c	eb 0a		 jmp	 SHORT $LN166@CMiniGame
$LN167@CMiniGame:

; 848  :         return *_Emplace_reallocate(_Mylast, _STD forward<_Valty>(_Val)...);

  0021e	8d 55 e0	 lea	 edx, DWORD PTR _KawibawiboResult$[ebp]
  00221	52		 push	 edx
  00222	50		 push	 eax
  00223	e8 00 00 00 00	 call	 ??$_Emplace_reallocate@ABU__KAWIBAWIBORESULT@CMiniGame@@@?$vector@U__KAWIBAWIBORESULT@CMiniGame@@V?$allocator@U__KAWIBAWIBORESULT@CMiniGame@@@std@@@std@@AAEPAU__KAWIBAWIBORESULT@CMiniGame@@QAU23@ABU23@@Z ; std::vector<CMiniGame::__KAWIBAWIBORESULT,std::allocator<CMiniGame::__KAWIBAWIBORESULT> >::_Emplace_reallocate<CMiniGame::__KAWIBAWIBORESULT const &>
$LN166@CMiniGame:
; File C:\IAGOS\server\v18\Source\Source\_Common\MiniGame.cpp

; 53   : 	m_nBetMinPenya = 1000000;

  00228	c7 47 04 40 42
	0f 00		 mov	 DWORD PTR [edi+4], 1000000 ; 000f4240H

; 54   : 	m_nBetMaxPenya = 100000000;
; 55   : 	m_nMultiple = 5;
; 56   : }

  0022f	8b c7		 mov	 eax, edi
  00231	c7 47 08 00 e1
	f5 05		 mov	 DWORD PTR [edi+8], 100000000 ; 05f5e100H
  00238	c7 47 0c 05 00
	00 00		 mov	 DWORD PTR [edi+12], 5
  0023f	8b 4d f4	 mov	 ecx, DWORD PTR __$EHRec$[ebp]
  00242	64 89 0d 00 00
	00 00		 mov	 DWORD PTR fs:0, ecx
  00249	59		 pop	 ecx
  0024a	5f		 pop	 edi
  0024b	5e		 pop	 esi
  0024c	8b e5		 mov	 esp, ebp
  0024e	5d		 pop	 ebp
  0024f	c3		 ret	 0
_TEXT	ENDS
;	COMDAT text$x
text$x	SEGMENT
__unwindfunclet$??0CMiniGame@@QAE@XZ$0:
  00000	8b 4d f0	 mov	 ecx, DWORD PTR _this$[ebp]
  00003	83 c1 18	 add	 ecx, 24			; 00000018H
  00006	e9 00 00 00 00	 jmp	 ??1?$vector@U__ALPHABET@CMiniGame@@V?$allocator@U__ALPHABET@CMiniGame@@@std@@@std@@QAE@XZ ; std::vector<CMiniGame::__ALPHABET,std::allocator<CMiniGame::__ALPHABET> >::~vector<CMiniGame::__ALPHABET,std::allocator<CMiniGame::__ALPHABET> >
__unwindfunclet$??0CMiniGame@@QAE@XZ$1:
  0000b	8b 4d f0	 mov	 ecx, DWORD PTR _this$[ebp]
  0000e	83 c1 24	 add	 ecx, 36			; 00000024H
  00011	e9 00 00 00 00	 jmp	 ??1?$map@HU__KAWIBAWIBO@CMiniGame@@U?$less@H@std@@V?$allocator@U?$pair@$$CBHU__KAWIBAWIBO@CMiniGame@@@std@@@4@@std@@QAE@XZ
__unwindfunclet$??0CMiniGame@@QAE@XZ$2:
  00016	8b 4d f0	 mov	 ecx, DWORD PTR _this$[ebp]
  00019	83 c1 2c	 add	 ecx, 44			; 0000002cH
  0001c	e9 00 00 00 00	 jmp	 ??1?$map@HU__FIVESYSTEM@CMiniGame@@U?$less@H@std@@V?$allocator@U?$pair@$$CBHU__FIVESYSTEM@CMiniGame@@@std@@@4@@std@@QAE@XZ
__unwindfunclet$??0CMiniGame@@QAE@XZ$3:
  00021	8b 4d f0	 mov	 ecx, DWORD PTR _this$[ebp]
  00024	83 c1 34	 add	 ecx, 52			; 00000034H
  00027	e9 00 00 00 00	 jmp	 ??1?$vector@U__ITEMGAME@CMiniGame@@V?$allocator@U__ITEMGAME@CMiniGame@@@std@@@std@@QAE@XZ ; std::vector<CMiniGame::__ITEMGAME,std::allocator<CMiniGame::__ITEMGAME> >::~vector<CMiniGame::__ITEMGAME,std::allocator<CMiniGame::__ITEMGAME> >
__unwindfunclet$??0CMiniGame@@QAE@XZ$4:
  0002c	8b 4d f0	 mov	 ecx, DWORD PTR _this$[ebp]
  0002f	83 c1 40	 add	 ecx, 64			; 00000040H
  00032	e9 00 00 00 00	 jmp	 ??1?$vector@KV?$allocator@K@std@@@std@@QAE@XZ ; std::vector<unsigned long,std::allocator<unsigned long> >::~vector<unsigned long,std::allocator<unsigned long> >
__unwindfunclet$??0CMiniGame@@QAE@XZ$5:
  00037	8b 4d f0	 mov	 ecx, DWORD PTR _this$[ebp]
  0003a	83 c1 4c	 add	 ecx, 76			; 0000004cH
  0003d	e9 00 00 00 00	 jmp	 ??1?$vector@U__KAWIBAWIBORESULT@CMiniGame@@V?$allocator@U__KAWIBAWIBORESULT@CMiniGame@@@std@@@std@@QAE@XZ ; std::vector<CMiniGame::__KAWIBAWIBORESULT,std::allocator<CMiniGame::__KAWIBAWIBORESULT> >::~vector<CMiniGame::__KAWIBAWIBORESULT,std::allocator<CMiniGame::__KAWIBAWIBORESULT> >
  00042	cc		 int	 3
  00043	cc		 int	 3
  00044	cc		 int	 3
  00045	cc		 int	 3
  00046	cc		 int	 3
__ehhandler$??0CMiniGame@@QAE@XZ:
  00047	90		 npad	 1
  00048	90		 npad	 1
  00049	8b 54 24 08	 mov	 edx, DWORD PTR [esp+8]
  0004d	8d 42 0c	 lea	 eax, DWORD PTR [edx+12]
  00050	8b 4a e0	 mov	 ecx, DWORD PTR [edx-32]
  00053	33 c8		 xor	 ecx, eax
  00055	e8 00 00 00 00	 call	 @__security_check_cookie@4
  0005a	b8 00 00 00 00	 mov	 eax, OFFSET __ehfuncinfo$??0CMiniGame@@QAE@XZ
  0005f	e9 00 00 00 00	 jmp	 ___CxxFrameHandler3
text$x	ENDS
??0CMiniGame@@QAE@XZ ENDP				; CMiniGame::CMiniGame
; Function compile flags: /Ogtp
; File C:\Program Files\Microsoft Visual Studio\2022\Professional\VC\Tools\MSVC\14.44.35207\atlmfc\include\atlsimpstr.h
; File C:\Program Files\Microsoft Visual Studio\2022\Professional\VC\Tools\MSVC\14.44.35207\include\vector
; File C:\Program Files\Microsoft Visual Studio\2022\Professional\VC\Tools\MSVC\14.44.35207\include\xmemory
; File C:\Program Files\Microsoft Visual Studio\2022\Professional\VC\Tools\MSVC\14.44.35207\include\vector
; File C:\Program Files\Microsoft Visual Studio\2022\Professional\VC\Tools\MSVC\14.44.35207\include\xmemory
; File C:\Program Files\Microsoft Visual Studio\2022\Professional\VC\Tools\MSVC\14.44.35207\include\vector
;	COMDAT ??0__ALPHABET@CMiniGame@@QAE@ABU01@@Z
_TEXT	SEGMENT
_this$ = -16						; size = 4
__$EHRec$ = -12						; size = 12
___that$ = 8						; size = 4
_this$ = 8						; size = 4
_this$ = 8						; size = 4
??0__ALPHABET@CMiniGame@@QAE@ABU01@@Z PROC		; CMiniGame::__ALPHABET::__ALPHABET, COMDAT
; _this$ = ecx
  00000	55		 push	 ebp
  00001	8b ec		 mov	 ebp, esp
  00003	6a ff		 push	 -1
  00005	68 00 00 00 00	 push	 __ehhandler$??0__ALPHABET@CMiniGame@@QAE@ABU01@@Z
  0000a	64 a1 00 00 00
	00		 mov	 eax, DWORD PTR fs:0
  00010	50		 push	 eax
  00011	51		 push	 ecx
  00012	53		 push	 ebx
  00013	56		 push	 esi
  00014	57		 push	 edi
  00015	a1 00 00 00 00	 mov	 eax, DWORD PTR ___security_cookie
  0001a	33 c5		 xor	 eax, ebp
  0001c	50		 push	 eax
  0001d	8d 45 f4	 lea	 eax, DWORD PTR __$EHRec$[ebp]
  00020	64 a3 00 00 00
	00		 mov	 DWORD PTR fs:0, eax
  00026	8b d9		 mov	 ebx, ecx
  00028	89 5d f0	 mov	 DWORD PTR _this$[ebp], ebx
; File C:\Program Files\Microsoft Visual Studio\2022\Professional\VC\Tools\MSVC\14.44.35207\atlmfc\include\atlsimpstr.h

; 804  : 		return( reinterpret_cast< CStringData* >( m_pszData )-1 );

  0002b	8b 7d 08	 mov	 edi, DWORD PTR ___that$[ebp]
  0002e	8d 73 04	 lea	 esi, DWORD PTR [ebx+4]
  00031	89 75 08	 mov	 DWORD PTR _this$[ebp], esi
  00034	8b 07		 mov	 eax, DWORD PTR [edi]
  00036	89 03		 mov	 DWORD PTR [ebx], eax
  00038	8b 47 04	 mov	 eax, DWORD PTR [edi+4]
  0003b	83 e8 10	 sub	 eax, 16			; 00000010H

; 217  : 		CStringData* pNewData = CloneData( pSrcData );

  0003e	50		 push	 eax
  0003f	e8 00 00 00 00	 call	 ?CloneData@?$CSimpleStringT@D$0A@@ATL@@CAPAUCStringData@2@PAU32@@Z ; ATL::CSimpleStringT<char,0>::CloneData

; 218  : 		Attach( pNewData );

  00044	83 c0 10	 add	 eax, 16			; 00000010H
  00047	89 06		 mov	 DWORD PTR [esi], eax

; 804  : 		return( reinterpret_cast< CStringData* >( m_pszData )-1 );

  00049	8b 47 08	 mov	 eax, DWORD PTR [edi+8]
  0004c	8d 73 08	 lea	 esi, DWORD PTR [ebx+8]
  0004f	83 e8 10	 sub	 eax, 16			; 00000010H
  00052	c7 45 fc 00 00
	00 00		 mov	 DWORD PTR __$EHRec$[ebp+8], 0

; 217  : 		CStringData* pNewData = CloneData( pSrcData );

  00059	50		 push	 eax
  0005a	89 75 08	 mov	 DWORD PTR _this$[ebp], esi
  0005d	e8 00 00 00 00	 call	 ?CloneData@?$CSimpleStringT@D$0A@@ATL@@CAPAUCStringData@2@PAU32@@Z ; ATL::CSimpleStringT<char,0>::CloneData

; 218  : 		Attach( pNewData );

  00062	83 c0 10	 add	 eax, 16			; 00000010H
  00065	83 c4 08	 add	 esp, 8
  00068	89 06		 mov	 DWORD PTR [esi], eax
; File C:\Program Files\Microsoft Visual Studio\2022\Professional\VC\Tools\MSVC\14.44.35207\include\vector

; 400  :     _CONSTEXPR20 _Vector_val() noexcept : _Myfirst(), _Mylast(), _Myend() {}

  0006a	c7 43 0c 00 00
	00 00		 mov	 DWORD PTR [ebx+12], 0

; 748  :         const auto _Count       = static_cast<size_type>(_Right_data._Mylast - _Right_data._Myfirst);

  00071	b8 ab aa aa 2a	 mov	 eax, 715827883		; 2aaaaaabH

; 400  :     _CONSTEXPR20 _Vector_val() noexcept : _Myfirst(), _Mylast(), _Myend() {}

  00076	c7 43 10 00 00
	00 00		 mov	 DWORD PTR [ebx+16], 0
  0007d	c7 43 14 00 00
	00 00		 mov	 DWORD PTR [ebx+20], 0

; 748  :         const auto _Count       = static_cast<size_type>(_Right_data._Mylast - _Right_data._Myfirst);

  00084	8b 4f 10	 mov	 ecx, DWORD PTR [edi+16]
  00087	2b 4f 0c	 sub	 ecx, DWORD PTR [edi+12]
  0008a	f7 e9		 imul	 ecx
  0008c	c6 45 fc 01	 mov	 BYTE PTR __$EHRec$[ebp+8], 1
  00090	d1 fa		 sar	 edx, 1
  00092	8b c2		 mov	 eax, edx
  00094	c1 e8 1f	 shr	 eax, 31			; 0000001fH
  00097	03 c2		 add	 eax, edx

; 2111 :         if (_Count != 0) {

  00099	74 44		 je	 SHORT $LN55@ALPHABET

; 2051 :         if (_Newcapacity > max_size()) {

  0009b	3d 55 55 55 15	 cmp	 eax, 357913941		; 15555555H
  000a0	77 56		 ja	 SHORT $LN59@ALPHABET

; 2053 :         }
; 2054 : 
; 2055 :         _Buy_raw(_Newcapacity);

  000a2	50		 push	 eax
  000a3	8d 4b 0c	 lea	 ecx, DWORD PTR [ebx+12]
  000a6	e8 00 00 00 00	 call	 ?_Buy_raw@?$vector@U__ITEMGAME@CMiniGame@@V?$allocator@U__ITEMGAME@CMiniGame@@@std@@@std@@AAEXI@Z ; std::vector<CMiniGame::__ITEMGAME,std::allocator<CMiniGame::__ITEMGAME> >::_Buy_raw

; 2120 :                 _My_data._Mylast = _STD _Uninitialized_copy(_STD forward<_Valty>(_Val)..., _My_data._Myfirst, _Al);

  000ab	8b 5b 0c	 mov	 ebx, DWORD PTR [ebx+12]
; File C:\Program Files\Microsoft Visual Studio\2022\Professional\VC\Tools\MSVC\14.44.35207\include\xmemory

; 1876 :     auto _UFirst = _STD _Get_unwrapped(_STD move(_First));

  000ae	8b 77 0c	 mov	 esi, DWORD PTR [edi+12]

; 1877 :     auto _ULast  = _STD _Get_unwrapped(_STD move(_Last));

  000b1	8b 7f 10	 mov	 edi, DWORD PTR [edi+16]

; 1878 : #endif // ^^^ !_HAS_CXX20 ^^^
; 1879 : 
; 1880 :     constexpr bool _Can_memmove = _Sent_copy_cat<decltype(_UFirst), decltype(_ULast), _Ptrval>::_Bitcopy_constructible
; 1881 :                                && _Uses_default_construct<_Alloc, _Ptrval, decltype(*_UFirst)>::value;
; 1882 : 
; 1883 :     if constexpr (_Can_memmove) {
; 1884 : #if _HAS_CXX20
; 1885 :         if (!_STD is_constant_evaluated())
; 1886 : #endif // _HAS_CXX20
; 1887 :         {
; 1888 :             if constexpr (is_same_v<decltype(_UFirst), decltype(_ULast)>) {
; 1889 :                 _STD _Copy_memmove(_STD _To_address(_UFirst), _STD _To_address(_ULast), _STD _Unfancy(_Dest));

  000b4	53		 push	 ebx
  000b5	57		 push	 edi
  000b6	56		 push	 esi
  000b7	e8 00 00 00 00	 call	 ??$_Copy_memmove@PAU__ITEMGAME@CMiniGame@@PAU12@@std@@YAPAU__ITEMGAME@CMiniGame@@PAU12@00@Z ; std::_Copy_memmove<CMiniGame::__ITEMGAME *,CMiniGame::__ITEMGAME *>
; File C:\Program Files\Microsoft Visual Studio\2022\Professional\VC\Tools\MSVC\14.44.35207\include\vector

; 2120 :                 _My_data._Mylast = _STD _Uninitialized_copy(_STD forward<_Valty>(_Val)..., _My_data._Myfirst, _Al);

  000bc	8b 4d f0	 mov	 ecx, DWORD PTR _this$[ebp]
; File C:\Program Files\Microsoft Visual Studio\2022\Professional\VC\Tools\MSVC\14.44.35207\include\xmemory

; 1890 :                 _Dest += _ULast - _UFirst;

  000bf	2b fe		 sub	 edi, esi
  000c1	b8 ab aa aa 2a	 mov	 eax, 715827883		; 2aaaaaabH
  000c6	83 c4 0c	 add	 esp, 12			; 0000000cH
  000c9	f7 ef		 imul	 edi
  000cb	d1 fa		 sar	 edx, 1
  000cd	8b c2		 mov	 eax, edx
  000cf	c1 e8 1f	 shr	 eax, 31			; 0000001fH
  000d2	03 c2		 add	 eax, edx
  000d4	8d 04 40	 lea	 eax, DWORD PTR [eax+eax*2]
  000d7	8d 04 83	 lea	 eax, DWORD PTR [ebx+eax*4]
; File C:\Program Files\Microsoft Visual Studio\2022\Professional\VC\Tools\MSVC\14.44.35207\include\vector

; 2120 :                 _My_data._Mylast = _STD _Uninitialized_copy(_STD forward<_Valty>(_Val)..., _My_data._Myfirst, _Al);

  000da	89 41 10	 mov	 DWORD PTR [ecx+16], eax
  000dd	eb 03		 jmp	 SHORT $LN50@ALPHABET
$LN55@ALPHABET:

; 2056 :     }
; 2057 : 
; 2058 :     _CONSTEXPR20 void _Change_array(
; 2059 :         const pointer _Newvec, const size_type _Newsize, const size_type _Newcapacity) noexcept {
; 2060 :         // orphan all iterators, discard old array, acquire new array
; 2061 :         auto& _Al         = _Getal();
; 2062 :         auto& _My_data    = _Mypair._Myval2;
; 2063 :         pointer& _Myfirst = _My_data._Myfirst;
; 2064 :         pointer& _Mylast  = _My_data._Mylast;
; 2065 :         pointer& _Myend   = _My_data._Myend;
; 2066 : 
; 2067 :         _My_data._Orphan_all();
; 2068 : 
; 2069 :         if (_Myfirst) { // destroy and deallocate old array
; 2070 :             _STD _Destroy_range(_Myfirst, _Mylast, _Al);
; 2071 :             _ASAN_VECTOR_REMOVE;
; 2072 :             _Al.deallocate(_Myfirst, static_cast<size_type>(_Myend - _Myfirst));
; 2073 :         }
; 2074 : 
; 2075 :         _Myfirst = _Newvec;
; 2076 :         _Mylast  = _Newvec + _Newsize;
; 2077 :         _Myend   = _Newvec + _Newcapacity;
; 2078 :         _ASAN_VECTOR_CREATE;
; 2079 :     }
; 2080 : 
; 2081 :     _CONSTEXPR20 void _Tidy() noexcept { // free all storage
; 2082 :         auto& _Al         = _Getal();
; 2083 :         auto& _My_data    = _Mypair._Myval2;
; 2084 :         pointer& _Myfirst = _My_data._Myfirst;
; 2085 :         pointer& _Mylast  = _My_data._Mylast;
; 2086 :         pointer& _Myend   = _My_data._Myend;
; 2087 : 
; 2088 :         _My_data._Orphan_all();
; 2089 : 
; 2090 :         if (_Myfirst) { // destroy and deallocate old array
; 2091 :             _STD _Destroy_range(_Myfirst, _Mylast, _Al);
; 2092 :             _ASAN_VECTOR_REMOVE;
; 2093 :             _Al.deallocate(_Myfirst, static_cast<size_type>(_Myend - _Myfirst));
; 2094 : 
; 2095 :             _Myfirst = nullptr;
; 2096 :             _Mylast  = nullptr;
; 2097 :             _Myend   = nullptr;
; 2098 :         }
; 2099 :     }
; 2100 : 
; 2101 :     template <class... _Valty>
; 2102 :     _CONSTEXPR20 void _Construct_n(_CRT_GUARDOVERFLOW const size_type _Count, _Valty&&... _Val) {
; 2103 :         // Dispatches between the three sized constructions.
; 2104 :         // 1-arg -> value-construction, e.g. vector(5)
; 2105 :         // 2-arg -> fill, e.g. vector(5, "meow")
; 2106 :         // 3-arg -> sized range construction, e.g. vector{"Hello", "Fluffy", "World"}
; 2107 :         auto& _Al       = _Getal();
; 2108 :         auto&& _Alproxy = _GET_PROXY_ALLOCATOR(_Alty, _Al);
; 2109 :         auto& _My_data  = _Mypair._Myval2;
; 2110 :         _Container_proxy_ptr<_Alty> _Proxy(_Alproxy, _My_data);
; 2111 :         if (_Count != 0) {

  000df	8b 4d f0	 mov	 ecx, DWORD PTR _this$[ebp]
$LN50@ALPHABET:
  000e2	8b c1		 mov	 eax, ecx
  000e4	8b 4d f4	 mov	 ecx, DWORD PTR __$EHRec$[ebp]
  000e7	64 89 0d 00 00
	00 00		 mov	 DWORD PTR fs:0, ecx
  000ee	59		 pop	 ecx
  000ef	5f		 pop	 edi
  000f0	5e		 pop	 esi
  000f1	5b		 pop	 ebx
  000f2	8b e5		 mov	 esp, ebp
  000f4	5d		 pop	 ebp
  000f5	c2 04 00	 ret	 4
$LN59@ALPHABET:

; 2052 :             _Xlength();

  000f8	e8 00 00 00 00	 call	 ?_Xlength@?$vector@U__ITEMGAME@CMiniGame@@V?$allocator@U__ITEMGAME@CMiniGame@@@std@@@std@@CAXXZ ; std::vector<CMiniGame::__ITEMGAME,std::allocator<CMiniGame::__ITEMGAME> >::_Xlength
$LN57@ALPHABET:
  000fd	cc		 int	 3
_TEXT	ENDS
;	COMDAT text$x
text$x	SEGMENT
__unwindfunclet$??0__ALPHABET@CMiniGame@@QAE@ABU01@@Z$0:
  00000	8b 4d f0	 mov	 ecx, DWORD PTR _this$[ebp]
  00003	83 c1 04	 add	 ecx, 4
  00006	e9 00 00 00 00	 jmp	 ??1?$CStringT@DV?$StrTraitMFC@DV?$ChTraitsCRT@D@ATL@@@@@ATL@@QAE@XZ ; ATL::CStringT<char,StrTraitMFC<char,ATL::ChTraitsCRT<char> > >::~CStringT<char,StrTraitMFC<char,ATL::ChTraitsCRT<char> > >
__unwindfunclet$??0__ALPHABET@CMiniGame@@QAE@ABU01@@Z$1:
  0000b	8b 4d f0	 mov	 ecx, DWORD PTR _this$[ebp]
  0000e	83 c1 08	 add	 ecx, 8
  00011	e9 00 00 00 00	 jmp	 ??1?$CStringT@DV?$StrTraitMFC@DV?$ChTraitsCRT@D@ATL@@@@@ATL@@QAE@XZ ; ATL::CStringT<char,StrTraitMFC<char,ATL::ChTraitsCRT<char> > >::~CStringT<char,StrTraitMFC<char,ATL::ChTraitsCRT<char> > >
  00016	cc		 int	 3
  00017	cc		 int	 3
  00018	cc		 int	 3
  00019	cc		 int	 3
  0001a	cc		 int	 3
__ehhandler$??0__ALPHABET@CMiniGame@@QAE@ABU01@@Z:
  0001b	90		 npad	 1
  0001c	90		 npad	 1
  0001d	8b 54 24 08	 mov	 edx, DWORD PTR [esp+8]
  00021	8d 42 0c	 lea	 eax, DWORD PTR [edx+12]
  00024	8b 4a ec	 mov	 ecx, DWORD PTR [edx-20]
  00027	33 c8		 xor	 ecx, eax
  00029	e8 00 00 00 00	 call	 @__security_check_cookie@4
  0002e	b8 00 00 00 00	 mov	 eax, OFFSET __ehfuncinfo$??0__ALPHABET@CMiniGame@@QAE@ABU01@@Z
  00033	e9 00 00 00 00	 jmp	 ___CxxFrameHandler3
text$x	ENDS
??0__ALPHABET@CMiniGame@@QAE@ABU01@@Z ENDP		; CMiniGame::__ALPHABET::__ALPHABET
; Function compile flags: /Ogtp
; File C:\Program Files\Microsoft Visual Studio\2022\Professional\VC\Tools\MSVC\14.44.35207\include\vector
; File C:\Program Files\Microsoft Visual Studio\2022\Professional\VC\Tools\MSVC\14.44.35207\atlmfc\include\atlsimpstr.h
;	COMDAT ??1__ALPHABET@CMiniGame@@QAE@XZ
_TEXT	SEGMENT
__$EHRec$ = -12						; size = 12
??1__ALPHABET@CMiniGame@@QAE@XZ PROC			; CMiniGame::__ALPHABET::~__ALPHABET, COMDAT
; _this$ = ecx
  00000	55		 push	 ebp
  00001	8b ec		 mov	 ebp, esp
  00003	6a ff		 push	 -1
  00005	68 00 00 00 00	 push	 __ehhandler$??1__ALPHABET@CMiniGame@@QAE@XZ
  0000a	64 a1 00 00 00
	00		 mov	 eax, DWORD PTR fs:0
  00010	50		 push	 eax
  00011	56		 push	 esi
  00012	57		 push	 edi
  00013	a1 00 00 00 00	 mov	 eax, DWORD PTR ___security_cookie
  00018	33 c5		 xor	 eax, ebp
  0001a	50		 push	 eax
  0001b	8d 45 f4	 lea	 eax, DWORD PTR __$EHRec$[ebp]
  0001e	64 a3 00 00 00
	00		 mov	 DWORD PTR fs:0, eax
  00024	8b f9		 mov	 edi, ecx
  00026	8d 4f 0c	 lea	 ecx, DWORD PTR [edi+12]
; File C:\Program Files\Microsoft Visual Studio\2022\Professional\VC\Tools\MSVC\14.44.35207\include\vector

; 830  :         _Tidy();

  00029	e8 00 00 00 00	 call	 ?_Tidy@?$vector@U__ITEMGAME@CMiniGame@@V?$allocator@U__ITEMGAME@CMiniGame@@@std@@@std@@AAEXXZ ; std::vector<CMiniGame::__ITEMGAME,std::allocator<CMiniGame::__ITEMGAME> >::_Tidy
; File C:\Program Files\Microsoft Visual Studio\2022\Professional\VC\Tools\MSVC\14.44.35207\atlmfc\include\atlsimpstr.h

; 804  : 		return( reinterpret_cast< CStringData* >( m_pszData )-1 );

  0002e	8b 57 08	 mov	 edx, DWORD PTR [edi+8]

; 92   : 		if( _InterlockedDecrement( &nRefs ) <= 0 )

  00031	83 ce ff	 or	 esi, -1

; 804  : 		return( reinterpret_cast< CStringData* >( m_pszData )-1 );

  00034	83 ea 10	 sub	 edx, 16			; 00000010H

; 92   : 		if( _InterlockedDecrement( &nRefs ) <= 0 )

  00037	8b c6		 mov	 eax, esi
  00039	f0 0f c1 42 0c	 lock	  xadd	 DWORD PTR [edx+12], eax
  0003e	48		 dec	 eax
  0003f	85 c0		 test	 eax, eax
  00041	7f 08		 jg	 SHORT $LN14@ALPHABET

; 93   : 		{
; 94   : 			pStringMgr->Free( this );

  00043	8b 0a		 mov	 ecx, DWORD PTR [edx]
  00045	52		 push	 edx
  00046	8b 01		 mov	 eax, DWORD PTR [ecx]
  00048	ff 50 04	 call	 DWORD PTR [eax+4]
$LN14@ALPHABET:

; 804  : 		return( reinterpret_cast< CStringData* >( m_pszData )-1 );

  0004b	8b 57 04	 mov	 edx, DWORD PTR [edi+4]
  0004e	83 ea 10	 sub	 edx, 16			; 00000010H

; 92   : 		if( _InterlockedDecrement( &nRefs ) <= 0 )

  00051	f0 0f c1 72 0c	 lock	  xadd	 DWORD PTR [edx+12], esi
  00056	4e		 dec	 esi
  00057	85 f6		 test	 esi, esi
  00059	7f 08		 jg	 SHORT $LN23@ALPHABET

; 93   : 		{
; 94   : 			pStringMgr->Free( this );

  0005b	8b 0a		 mov	 ecx, DWORD PTR [edx]
  0005d	52		 push	 edx
  0005e	8b 01		 mov	 eax, DWORD PTR [ecx]
  00060	ff 50 04	 call	 DWORD PTR [eax+4]
$LN23@ALPHABET:
  00063	8b 4d f4	 mov	 ecx, DWORD PTR __$EHRec$[ebp]
  00066	64 89 0d 00 00
	00 00		 mov	 DWORD PTR fs:0, ecx
  0006d	59		 pop	 ecx
  0006e	5f		 pop	 edi
  0006f	5e		 pop	 esi
  00070	8b e5		 mov	 esp, ebp
  00072	5d		 pop	 ebp
  00073	c3		 ret	 0
  00074	cc		 int	 3
  00075	cc		 int	 3
  00076	cc		 int	 3
  00077	cc		 int	 3
  00078	cc		 int	 3
_TEXT	ENDS
;	COMDAT text$x
text$x	SEGMENT
__ehhandler$??1__ALPHABET@CMiniGame@@QAE@XZ:
  00000	90		 npad	 1
  00001	90		 npad	 1
  00002	8b 54 24 08	 mov	 edx, DWORD PTR [esp+8]
  00006	8d 42 0c	 lea	 eax, DWORD PTR [edx+12]
  00009	8b 4a f4	 mov	 ecx, DWORD PTR [edx-12]
  0000c	33 c8		 xor	 ecx, eax
  0000e	e8 00 00 00 00	 call	 @__security_check_cookie@4
  00013	b8 00 00 00 00	 mov	 eax, OFFSET __ehfuncinfo$??1__ALPHABET@CMiniGame@@QAE@XZ
  00018	e9 00 00 00 00	 jmp	 ___CxxFrameHandler3
text$x	ENDS
??1__ALPHABET@CMiniGame@@QAE@XZ ENDP			; CMiniGame::__ALPHABET::~__ALPHABET
; Function compile flags: /Ogtp
; File C:\IAGOS\server\v18\Source\Source\_Common\MiniGame.h
; File C:\Program Files\Microsoft Visual Studio\2022\Professional\VC\Tools\MSVC\14.44.35207\atlmfc\include\afxstr.h
; File C:\Program Files\Microsoft Visual Studio\2022\Professional\VC\Tools\MSVC\14.44.35207\atlmfc\include\atlsimpstr.h
; File C:\Program Files\Microsoft Visual Studio\2022\Professional\VC\Tools\MSVC\14.44.35207\atlmfc\include\cstringt.h
; File C:\Program Files\Microsoft Visual Studio\2022\Professional\VC\Tools\MSVC\14.44.35207\atlmfc\include\atlsimpstr.h
; File C:\IAGOS\server\v18\Source\Source\_Common\MiniGame.h
; File C:\Program Files\Microsoft Visual Studio\2022\Professional\VC\Tools\MSVC\14.44.35207\atlmfc\include\afxstr.h
; File C:\Program Files\Microsoft Visual Studio\2022\Professional\VC\Tools\MSVC\14.44.35207\atlmfc\include\atlsimpstr.h
; File C:\Program Files\Microsoft Visual Studio\2022\Professional\VC\Tools\MSVC\14.44.35207\atlmfc\include\cstringt.h
; File C:\Program Files\Microsoft Visual Studio\2022\Professional\VC\Tools\MSVC\14.44.35207\atlmfc\include\atlsimpstr.h
; File C:\Program Files\Microsoft Visual Studio\2022\Professional\VC\Tools\MSVC\14.44.35207\include\vector
; File C:\IAGOS\server\v18\Source\Source\_Common\MiniGame.h
; File C:\Program Files\Microsoft Visual Studio\2022\Professional\VC\Tools\MSVC\14.44.35207\include\vector
; File C:\IAGOS\server\v18\Source\Source\_Common\MiniGame.h
; File C:\Program Files\Microsoft Visual Studio\2022\Professional\VC\Tools\MSVC\14.44.35207\atlmfc\include\atlsimpstr.h
; File C:\IAGOS\server\v18\Source\Source\_Common\MiniGame.h
;	COMDAT ??0__ALPHABET@CMiniGame@@QAE@XZ
_TEXT	SEGMENT
_this$ = -24						; size = 4
_this$ = -24						; size = 4
_this$ = -20						; size = 4
tv327 = -16						; size = 4
__$EHRec$ = -12						; size = 12
??0__ALPHABET@CMiniGame@@QAE@XZ PROC			; CMiniGame::__ALPHABET::__ALPHABET, COMDAT
; _this$ = ecx

; 42   : 		__ALPHABET():nPublic(1),strWord(_T("")), strQuestion(_T("")) {}

  00000	55		 push	 ebp
  00001	8b ec		 mov	 ebp, esp
  00003	6a ff		 push	 -1
  00005	68 00 00 00 00	 push	 __ehhandler$??0__ALPHABET@CMiniGame@@QAE@XZ
  0000a	64 a1 00 00 00
	00		 mov	 eax, DWORD PTR fs:0
  00010	50		 push	 eax
  00011	83 ec 0c	 sub	 esp, 12			; 0000000cH
  00014	53		 push	 ebx
  00015	56		 push	 esi
  00016	57		 push	 edi
  00017	a1 00 00 00 00	 mov	 eax, DWORD PTR ___security_cookie
  0001c	33 c5		 xor	 eax, ebp
  0001e	50		 push	 eax
  0001f	8d 45 f4	 lea	 eax, DWORD PTR __$EHRec$[ebp]
  00022	64 a3 00 00 00
	00		 mov	 DWORD PTR fs:0, eax
  00028	8b f1		 mov	 esi, ecx
  0002a	89 75 ec	 mov	 DWORD PTR _this$[ebp], esi
  0002d	8d 7e 04	 lea	 edi, DWORD PTR [esi+4]
  00030	c7 06 01 00 00
	00		 mov	 DWORD PTR [esi], 1
  00036	89 7d e8	 mov	 DWORD PTR _this$[ebp], edi
; File C:\Program Files\Microsoft Visual Studio\2022\Professional\VC\Tools\MSVC\14.44.35207\atlmfc\include\afxstr.h

; 56   : 		return( AfxGetStringManager() );

  00039	e8 00 00 00 00	 call	 ?AfxGetStringManager@@YGPAUIAtlStringMgr@ATL@@XZ ; AfxGetStringManager
  0003e	8b c8		 mov	 ecx, eax
; File C:\Program Files\Microsoft Visual Studio\2022\Professional\VC\Tools\MSVC\14.44.35207\atlmfc\include\atlsimpstr.h

; 209  : 		ATLENSURE( pStringMgr != NULL );

  00040	85 c9		 test	 ecx, ecx
  00042	0f 84 b1 00 00
	00		 je	 $LN79@ALPHABET

; 210  : 		CStringData* pData = pStringMgr->GetNilString();

  00048	8b 01		 mov	 eax, DWORD PTR [ecx]
  0004a	ff 50 0c	 call	 DWORD PTR [eax+12]

; 211  : 		Attach( pData );

  0004d	83 c0 10	 add	 eax, 16			; 00000010H
  00050	89 07		 mov	 DWORD PTR [edi], eax
; File C:\Program Files\Microsoft Visual Studio\2022\Professional\VC\Tools\MSVC\14.44.35207\atlmfc\include\cstringt.h

; 2712 : 		if( (pv != NULL) && IS_INTRESOURCE( pv ) )

  00052	b8 00 00 00 00	 mov	 eax, OFFSET ??_C@_00CNPNBAHC@@

; 1052 : 		CThisSimpleString( StringTraits::GetDefaultManager() )

  00057	c7 45 fc 00 00
	00 00		 mov	 DWORD PTR __$EHRec$[ebp+8], 0

; 2712 : 		if( (pv != NULL) && IS_INTRESOURCE( pv ) )

  0005e	c1 e8 10	 shr	 eax, 16			; 00000010H
  00061	8b cf		 mov	 ecx, edi
  00063	89 45 f0	 mov	 DWORD PTR tv327[ebp], eax
  00066	85 c0		 test	 eax, eax
  00068	75 10		 jne	 SHORT $LN74@ALPHABET

; 2713 : 		{
; 2714 : 			UINT nID = LOWORD( reinterpret_cast< DWORD_PTR >( pv ) );

  0006a	b8 00 00 00 00	 mov	 eax, OFFSET ??_C@_00CNPNBAHC@@
  0006f	0f b7 d8	 movzx	 ebx, ax

; 2715 : 			(nID);
; 2716 : #ifdef _ATL_USE_WINAPI_FAMILY_DESKTOP_APP
; 2717 : 			if( !LoadString( nID ) )

  00072	53		 push	 ebx
  00073	e8 00 00 00 00	 call	 ?LoadStringA@?$CStringT@DV?$StrTraitMFC@DV?$ChTraitsCRT@D@ATL@@@@@ATL@@QAEHI@Z ; ATL::CStringT<char,StrTraitMFC<char,ATL::ChTraitsCRT<char> > >::LoadStringA

; 1054 : 		if( !CheckImplicitLoad( pszSrc ) )

  00078	eb 14		 jmp	 SHORT $LN7@ALPHABET
$LN74@ALPHABET:
; File C:\Program Files\Microsoft Visual Studio\2022\Professional\VC\Tools\MSVC\14.44.35207\atlmfc\include\atlsimpstr.h

; 606  : 		SetString( pszSrc, StringLength( pszSrc ) );

  0007a	6a 00		 push	 0
  0007c	68 00 00 00 00	 push	 OFFSET ??_C@_00CNPNBAHC@@
  00081	e8 00 00 00 00	 call	 ?SetString@?$CSimpleStringT@D$0A@@ATL@@QAEXPBDH@Z ; ATL::CSimpleStringT<char,0>::SetString
  00086	b8 00 00 00 00	 mov	 eax, OFFSET ??_C@_00CNPNBAHC@@
  0008b	0f b7 d8	 movzx	 ebx, ax
$LN7@ALPHABET:
; File C:\IAGOS\server\v18\Source\Source\_Common\MiniGame.h

; 42   : 		__ALPHABET():nPublic(1),strWord(_T("")), strQuestion(_T("")) {}

  0008e	8d 7e 08	 lea	 edi, DWORD PTR [esi+8]
  00091	c7 45 fc 01 00
	00 00		 mov	 DWORD PTR __$EHRec$[ebp+8], 1
  00098	89 7d e8	 mov	 DWORD PTR _this$[ebp], edi
; File C:\Program Files\Microsoft Visual Studio\2022\Professional\VC\Tools\MSVC\14.44.35207\atlmfc\include\afxstr.h

; 56   : 		return( AfxGetStringManager() );

  0009b	e8 00 00 00 00	 call	 ?AfxGetStringManager@@YGPAUIAtlStringMgr@ATL@@XZ ; AfxGetStringManager
  000a0	8b c8		 mov	 ecx, eax
; File C:\Program Files\Microsoft Visual Studio\2022\Professional\VC\Tools\MSVC\14.44.35207\atlmfc\include\atlsimpstr.h

; 209  : 		ATLENSURE( pStringMgr != NULL );

  000a2	85 c9		 test	 ecx, ecx
  000a4	74 5d		 je	 SHORT $LN80@ALPHABET

; 210  : 		CStringData* pData = pStringMgr->GetNilString();

  000a6	8b 01		 mov	 eax, DWORD PTR [ecx]
  000a8	ff 50 0c	 call	 DWORD PTR [eax+12]

; 211  : 		Attach( pData );

  000ab	83 c0 10	 add	 eax, 16			; 00000010H
  000ae	89 07		 mov	 DWORD PTR [edi], eax
; File C:\Program Files\Microsoft Visual Studio\2022\Professional\VC\Tools\MSVC\14.44.35207\atlmfc\include\cstringt.h

; 2712 : 		if( (pv != NULL) && IS_INTRESOURCE( pv ) )

  000b0	83 7d f0 00	 cmp	 DWORD PTR tv327[ebp], 0
  000b4	8b cf		 mov	 ecx, edi

; 1052 : 		CThisSimpleString( StringTraits::GetDefaultManager() )

  000b6	c6 45 fc 02	 mov	 BYTE PTR __$EHRec$[ebp+8], 2

; 2712 : 		if( (pv != NULL) && IS_INTRESOURCE( pv ) )

  000ba	75 08		 jne	 SHORT $LN75@ALPHABET

; 2715 : 			(nID);
; 2716 : #ifdef _ATL_USE_WINAPI_FAMILY_DESKTOP_APP
; 2717 : 			if( !LoadString( nID ) )

  000bc	53		 push	 ebx
  000bd	e8 00 00 00 00	 call	 ?LoadStringA@?$CStringT@DV?$StrTraitMFC@DV?$ChTraitsCRT@D@ATL@@@@@ATL@@QAEHI@Z ; ATL::CStringT<char,StrTraitMFC<char,ATL::ChTraitsCRT<char> > >::LoadStringA

; 1054 : 		if( !CheckImplicitLoad( pszSrc ) )

  000c2	eb 0c		 jmp	 SHORT $LN37@ALPHABET
$LN75@ALPHABET:
; File C:\Program Files\Microsoft Visual Studio\2022\Professional\VC\Tools\MSVC\14.44.35207\atlmfc\include\atlsimpstr.h

; 606  : 		SetString( pszSrc, StringLength( pszSrc ) );

  000c4	6a 00		 push	 0
  000c6	68 00 00 00 00	 push	 OFFSET ??_C@_00CNPNBAHC@@
  000cb	e8 00 00 00 00	 call	 ?SetString@?$CSimpleStringT@D$0A@@ATL@@QAEXPBDH@Z ; ATL::CSimpleStringT<char,0>::SetString
$LN37@ALPHABET:
; File C:\Program Files\Microsoft Visual Studio\2022\Professional\VC\Tools\MSVC\14.44.35207\include\vector

; 400  :     _CONSTEXPR20 _Vector_val() noexcept : _Myfirst(), _Mylast(), _Myend() {}

  000d0	c7 46 0c 00 00
	00 00		 mov	 DWORD PTR [esi+12], 0
; File C:\IAGOS\server\v18\Source\Source\_Common\MiniGame.h

; 42   : 		__ALPHABET():nPublic(1),strWord(_T("")), strQuestion(_T("")) {}

  000d7	8b c6		 mov	 eax, esi
; File C:\Program Files\Microsoft Visual Studio\2022\Professional\VC\Tools\MSVC\14.44.35207\include\vector

; 400  :     _CONSTEXPR20 _Vector_val() noexcept : _Myfirst(), _Mylast(), _Myend() {}

  000d9	c7 46 10 00 00
	00 00		 mov	 DWORD PTR [esi+16], 0
  000e0	c7 46 14 00 00
	00 00		 mov	 DWORD PTR [esi+20], 0
; File C:\IAGOS\server\v18\Source\Source\_Common\MiniGame.h

; 42   : 		__ALPHABET():nPublic(1),strWord(_T("")), strQuestion(_T("")) {}

  000e7	8b 4d f4	 mov	 ecx, DWORD PTR __$EHRec$[ebp]
  000ea	64 89 0d 00 00
	00 00		 mov	 DWORD PTR fs:0, ecx
  000f1	59		 pop	 ecx
  000f2	5f		 pop	 edi
  000f3	5e		 pop	 esi
  000f4	5b		 pop	 ebx
  000f5	8b e5		 mov	 esp, ebp
  000f7	5d		 pop	 ebp
  000f8	c3		 ret	 0
$LN79@ALPHABET:
; File C:\Program Files\Microsoft Visual Studio\2022\Professional\VC\Tools\MSVC\14.44.35207\atlmfc\include\atlsimpstr.h

; 209  : 		ATLENSURE( pStringMgr != NULL );

  000f9	68 05 40 00 80	 push	 -2147467259		; 80004005H
  000fe	e8 00 00 00 00	 call	 ?AtlThrowImpl@ATL@@YGXJ@Z ; ATL::AtlThrowImpl
$LN80@ALPHABET:
  00103	68 05 40 00 80	 push	 -2147467259		; 80004005H
  00108	e8 00 00 00 00	 call	 ?AtlThrowImpl@ATL@@YGXJ@Z ; ATL::AtlThrowImpl
$LN77@ALPHABET:
  0010d	cc		 int	 3
_TEXT	ENDS
;	COMDAT text$x
text$x	SEGMENT
__unwindfunclet$??0__ALPHABET@CMiniGame@@QAE@XZ$3:
  00000	8b 4d e8	 mov	 ecx, DWORD PTR _this$[ebp]
  00003	e9 00 00 00 00	 jmp	 ??1?$CSimpleStringT@D$0A@@ATL@@QAE@XZ ; ATL::CSimpleStringT<char,0>::~CSimpleStringT<char,0>
__unwindfunclet$??0__ALPHABET@CMiniGame@@QAE@XZ$0:
  00008	8b 4d ec	 mov	 ecx, DWORD PTR _this$[ebp]
  0000b	83 c1 04	 add	 ecx, 4
  0000e	e9 00 00 00 00	 jmp	 ??1?$CStringT@DV?$StrTraitMFC@DV?$ChTraitsCRT@D@ATL@@@@@ATL@@QAE@XZ ; ATL::CStringT<char,StrTraitMFC<char,ATL::ChTraitsCRT<char> > >::~CStringT<char,StrTraitMFC<char,ATL::ChTraitsCRT<char> > >
__unwindfunclet$??0__ALPHABET@CMiniGame@@QAE@XZ$4:
  00013	8b 4d e8	 mov	 ecx, DWORD PTR _this$[ebp]
  00016	e9 00 00 00 00	 jmp	 ??1?$CSimpleStringT@D$0A@@ATL@@QAE@XZ ; ATL::CSimpleStringT<char,0>::~CSimpleStringT<char,0>
  0001b	cc		 int	 3
  0001c	cc		 int	 3
  0001d	cc		 int	 3
  0001e	cc		 int	 3
  0001f	cc		 int	 3
__ehhandler$??0__ALPHABET@CMiniGame@@QAE@XZ:
  00020	90		 npad	 1
  00021	90		 npad	 1
  00022	8b 54 24 08	 mov	 edx, DWORD PTR [esp+8]
  00026	8d 42 0c	 lea	 eax, DWORD PTR [edx+12]
  00029	8b 4a e4	 mov	 ecx, DWORD PTR [edx-28]
  0002c	33 c8		 xor	 ecx, eax
  0002e	e8 00 00 00 00	 call	 @__security_check_cookie@4
  00033	b8 00 00 00 00	 mov	 eax, OFFSET __ehfuncinfo$??0__ALPHABET@CMiniGame@@QAE@XZ
  00038	e9 00 00 00 00	 jmp	 ___CxxFrameHandler3
text$x	ENDS
??0__ALPHABET@CMiniGame@@QAE@XZ ENDP			; CMiniGame::__ALPHABET::__ALPHABET
; Function compile flags: /Ogtp
; File C:\Program Files\Microsoft Visual Studio\2022\Professional\VC\Tools\MSVC\14.44.35207\include\vector
;	COMDAT ?_Xlength@?$vector@U__ITEMGAME@CMiniGame@@V?$allocator@U__ITEMGAME@CMiniGame@@@std@@@std@@CAXXZ
_TEXT	SEGMENT
?_Xlength@?$vector@U__ITEMGAME@CMiniGame@@V?$allocator@U__ITEMGAME@CMiniGame@@@std@@@std@@CAXXZ PROC ; std::vector<CMiniGame::__ITEMGAME,std::allocator<CMiniGame::__ITEMGAME> >::_Xlength, COMDAT

; 2184 :         _Xlength_error("vector too long");

  00000	68 00 00 00 00	 push	 OFFSET ??_C@_0BA@FOIKENOD@vector?5too?5long@
  00005	e8 00 00 00 00	 call	 ?_Xlength_error@std@@YAXPBD@Z ; std::_Xlength_error
$LN3@Xlength:
  0000a	cc		 int	 3
?_Xlength@?$vector@U__ITEMGAME@CMiniGame@@V?$allocator@U__ITEMGAME@CMiniGame@@@std@@@std@@CAXXZ ENDP ; std::vector<CMiniGame::__ITEMGAME,std::allocator<CMiniGame::__ITEMGAME> >::_Xlength
_TEXT	ENDS
; Function compile flags: /Ogtp
; File C:\Program Files\Microsoft Visual Studio\2022\Professional\VC\Tools\MSVC\14.44.35207\include\vector
; File C:\Program Files\Microsoft Visual Studio\2022\Professional\VC\Tools\MSVC\14.44.35207\include\xmemory
; File C:\Program Files\Microsoft Visual Studio\2022\Professional\VC\Tools\MSVC\14.44.35207\include\vector
; File C:\Program Files\Microsoft Visual Studio\2022\Professional\VC\Tools\MSVC\14.44.35207\include\xmemory
; File C:\Program Files\Microsoft Visual Studio\2022\Professional\VC\Tools\MSVC\14.44.35207\include\vector
; File C:\Program Files\Microsoft Visual Studio\2022\Professional\VC\Tools\MSVC\14.44.35207\include\xmemory
; File C:\Program Files\Microsoft Visual Studio\2022\Professional\VC\Tools\MSVC\14.44.35207\include\vector
;	COMDAT ?_Tidy@?$vector@U__ITEMGAME@CMiniGame@@V?$allocator@U__ITEMGAME@CMiniGame@@@std@@@std@@AAEXXZ
_TEXT	SEGMENT
?_Tidy@?$vector@U__ITEMGAME@CMiniGame@@V?$allocator@U__ITEMGAME@CMiniGame@@@std@@@std@@AAEXXZ PROC ; std::vector<CMiniGame::__ITEMGAME,std::allocator<CMiniGame::__ITEMGAME> >::_Tidy, COMDAT
; _this$ = ecx

; 2081 :     _CONSTEXPR20 void _Tidy() noexcept { // free all storage

  00000	56		 push	 esi
  00001	57		 push	 edi
  00002	8b f9		 mov	 edi, ecx

; 2082 :         auto& _Al         = _Getal();
; 2083 :         auto& _My_data    = _Mypair._Myval2;
; 2084 :         pointer& _Myfirst = _My_data._Myfirst;
; 2085 :         pointer& _Mylast  = _My_data._Mylast;
; 2086 :         pointer& _Myend   = _My_data._Myend;
; 2087 : 
; 2088 :         _My_data._Orphan_all();
; 2089 : 
; 2090 :         if (_Myfirst) { // destroy and deallocate old array

  00004	8b 37		 mov	 esi, DWORD PTR [edi]
  00006	85 f6		 test	 esi, esi
  00008	74 53		 je	 SHORT $LN2@Tidy

; 2091 :             _STD _Destroy_range(_Myfirst, _Mylast, _Al);
; 2092 :             _ASAN_VECTOR_REMOVE;
; 2093 :             _Al.deallocate(_Myfirst, static_cast<size_type>(_Myend - _Myfirst));

  0000a	8b 4f 08	 mov	 ecx, DWORD PTR [edi+8]
  0000d	b8 ab aa aa 2a	 mov	 eax, 715827883		; 2aaaaaabH
  00012	2b ce		 sub	 ecx, esi
  00014	f7 e9		 imul	 ecx
  00016	d1 fa		 sar	 edx, 1
  00018	8b c2		 mov	 eax, edx
  0001a	c1 e8 1f	 shr	 eax, 31			; 0000001fH
  0001d	03 c2		 add	 eax, edx
; File C:\Program Files\Microsoft Visual Studio\2022\Professional\VC\Tools\MSVC\14.44.35207\include\xmemory

; 985  :         _STD _Deallocate<_New_alignof<_Ty>>(_Ptr, sizeof(_Ty) * _Count);

  0001f	8d 0c 40	 lea	 ecx, DWORD PTR [eax+eax*2]
  00022	c1 e1 02	 shl	 ecx, 2

; 284  :         if (_Bytes >= _Big_allocation_threshold) {

  00025	81 f9 00 10 00
	00		 cmp	 ecx, 4096		; 00001000H
  0002b	72 12		 jb	 SHORT $LN15@Tidy

; 205  :     const uintptr_t _Ptr_container   = _Ptr_user[-1];

  0002d	8b 56 fc	 mov	 edx, DWORD PTR [esi-4]
  00030	83 c1 23	 add	 ecx, 35			; 00000023H

; 206  : 
; 207  :     // If the following asserts, it likely means that we are performing
; 208  :     // an aligned delete on memory coming from an unaligned allocation.
; 209  :     _STL_ASSERT(_Ptr_user[-2] == _Big_allocation_sentinel, "invalid argument");
; 210  : 
; 211  :     // Extra paranoia on aligned allocation/deallocation; ensure _Ptr_container is
; 212  :     // in range [_Min_back_shift, _Non_user_size]
; 213  : #ifdef _DEBUG
; 214  :     constexpr uintptr_t _Min_back_shift = 2 * sizeof(void*);
; 215  : #else // ^^^ defined(_DEBUG) / !defined(_DEBUG) vvv
; 216  :     constexpr uintptr_t _Min_back_shift = sizeof(void*);
; 217  : #endif // ^^^ !defined(_DEBUG) ^^^
; 218  :     const uintptr_t _Back_shift = reinterpret_cast<uintptr_t>(_Ptr) - _Ptr_container;

  00033	2b f2		 sub	 esi, edx

; 219  :     _STL_VERIFY(_Back_shift >= _Min_back_shift && _Back_shift <= _Non_user_size, "invalid argument");

  00035	8d 46 fc	 lea	 eax, DWORD PTR [esi-4]
  00038	83 f8 1f	 cmp	 eax, 31			; 0000001fH
  0003b	77 23		 ja	 SHORT $LN14@Tidy

; 220  :     _Ptr = reinterpret_cast<void*>(_Ptr_container);

  0003d	8b f2		 mov	 esi, edx
$LN15@Tidy:

; 289  :         ::operator delete(_Ptr, _Bytes);

  0003f	51		 push	 ecx
  00040	56		 push	 esi
  00041	e8 00 00 00 00	 call	 ??3@YAXPAXI@Z		; operator delete
; File C:\Program Files\Microsoft Visual Studio\2022\Professional\VC\Tools\MSVC\14.44.35207\include\vector

; 2095 :             _Myfirst = nullptr;

  00046	c7 07 00 00 00
	00		 mov	 DWORD PTR [edi], 0
; File C:\Program Files\Microsoft Visual Studio\2022\Professional\VC\Tools\MSVC\14.44.35207\include\xmemory

; 289  :         ::operator delete(_Ptr, _Bytes);

  0004c	83 c4 08	 add	 esp, 8
; File C:\Program Files\Microsoft Visual Studio\2022\Professional\VC\Tools\MSVC\14.44.35207\include\vector

; 2096 :             _Mylast  = nullptr;

  0004f	c7 47 04 00 00
	00 00		 mov	 DWORD PTR [edi+4], 0

; 2097 :             _Myend   = nullptr;

  00056	c7 47 08 00 00
	00 00		 mov	 DWORD PTR [edi+8], 0
$LN2@Tidy:

; 2099 :     }

  0005d	5f		 pop	 edi
  0005e	5e		 pop	 esi
  0005f	c3		 ret	 0
$LN14@Tidy:
; File C:\Program Files\Microsoft Visual Studio\2022\Professional\VC\Tools\MSVC\14.44.35207\include\xmemory

; 219  :     _STL_VERIFY(_Back_shift >= _Min_back_shift && _Back_shift <= _Non_user_size, "invalid argument");

  00060	6a 00		 push	 0
  00062	6a 00		 push	 0
  00064	6a 00		 push	 0
  00066	6a 00		 push	 0
  00068	6a 00		 push	 0
  0006a	e8 00 00 00 00	 call	 __invoke_watson
$LN22@Tidy:
  0006f	cc		 int	 3
?_Tidy@?$vector@U__ITEMGAME@CMiniGame@@V?$allocator@U__ITEMGAME@CMiniGame@@@std@@@std@@AAEXXZ ENDP ; std::vector<CMiniGame::__ITEMGAME,std::allocator<CMiniGame::__ITEMGAME> >::_Tidy
_TEXT	ENDS
; Function compile flags: /Ogtp
; File C:\Program Files\Microsoft Visual Studio\2022\Professional\VC\Tools\MSVC\14.44.35207\include\vector
; File C:\Program Files\Microsoft Visual Studio\2022\Professional\VC\Tools\MSVC\14.44.35207\include\xmemory
; File C:\Program Files\Microsoft Visual Studio\2022\Professional\VC\Tools\MSVC\14.44.35207\include\vector
; File C:\Program Files\Microsoft Visual Studio\2022\Professional\VC\Tools\MSVC\14.44.35207\include\xmemory
; File C:\Program Files\Microsoft Visual Studio\2022\Professional\VC\Tools\MSVC\14.44.35207\include\vector
; File C:\Program Files\Microsoft Visual Studio\2022\Professional\VC\Tools\MSVC\14.44.35207\include\xmemory
; File C:\Program Files\Microsoft Visual Studio\2022\Professional\VC\Tools\MSVC\14.44.35207\include\vector
; File C:\Program Files\Microsoft Visual Studio\2022\Professional\VC\Tools\MSVC\14.44.35207\include\xmemory
; File C:\Program Files\Microsoft Visual Studio\2022\Professional\VC\Tools\MSVC\14.44.35207\include\vector
; File C:\Program Files\Microsoft Visual Studio\2022\Professional\VC\Tools\MSVC\14.44.35207\include\xmemory
; File C:\Program Files\Microsoft Visual Studio\2022\Professional\VC\Tools\MSVC\14.44.35207\include\vector
;	COMDAT ?_Buy_raw@?$vector@U__ITEMGAME@CMiniGame@@V?$allocator@U__ITEMGAME@CMiniGame@@@std@@@std@@AAEXI@Z
_TEXT	SEGMENT
__Newcapacity$ = 8					; size = 4
?_Buy_raw@?$vector@U__ITEMGAME@CMiniGame@@V?$allocator@U__ITEMGAME@CMiniGame@@@std@@@std@@AAEXI@Z PROC ; std::vector<CMiniGame::__ITEMGAME,std::allocator<CMiniGame::__ITEMGAME> >::_Buy_raw, COMDAT
; _this$ = ecx

; 2024 :     _CONSTEXPR20 void _Buy_raw(size_type _Newcapacity) {

  00000	55		 push	 ebp
  00001	8b ec		 mov	 ebp, esp
; File C:\Program Files\Microsoft Visual Studio\2022\Professional\VC\Tools\MSVC\14.44.35207\include\xmemory

; 117  :         if (_Count > _Max_possible) {

  00003	8b 45 08	 mov	 eax, DWORD PTR __Newcapacity$[ebp]
; File C:\Program Files\Microsoft Visual Studio\2022\Professional\VC\Tools\MSVC\14.44.35207\include\vector

; 2024 :     _CONSTEXPR20 void _Buy_raw(size_type _Newcapacity) {

  00006	57		 push	 edi
  00007	8b f9		 mov	 edi, ecx
; File C:\Program Files\Microsoft Visual Studio\2022\Professional\VC\Tools\MSVC\14.44.35207\include\xmemory

; 117  :         if (_Count > _Max_possible) {

  00009	3d 55 55 55 15	 cmp	 eax, 357913941		; 15555555H
  0000e	77 56		 ja	 SHORT $LN25@Buy_raw
  00010	56		 push	 esi

; 119  :         }
; 120  :     }
; 121  : 
; 122  :     return _Count * _Ty_size;

  00011	8d 34 40	 lea	 esi, DWORD PTR [eax+eax*2]
  00014	c1 e6 02	 shl	 esi, 2

; 227  :     if (_Bytes == 0) {

  00017	85 f6		 test	 esi, esi
  00019	75 12		 jne	 SHORT $LN12@Buy_raw

; 228  :         return nullptr;

  0001b	33 c0		 xor	 eax, eax
; File C:\Program Files\Microsoft Visual Studio\2022\Professional\VC\Tools\MSVC\14.44.35207\include\vector

; 2035 :         _Myfirst              = _Newvec;

  0001d	89 07		 mov	 DWORD PTR [edi], eax

; 2036 :         _Mylast               = _Newvec;

  0001f	89 47 04	 mov	 DWORD PTR [edi+4], eax

; 2037 :         _Myend                = _Newvec + _Newcapacity;

  00022	8b c6		 mov	 eax, esi
  00024	89 47 08	 mov	 DWORD PTR [edi+8], eax
  00027	5e		 pop	 esi

; 2038 :     }

  00028	5f		 pop	 edi
  00029	5d		 pop	 ebp
  0002a	c2 04 00	 ret	 4
$LN12@Buy_raw:
; File C:\Program Files\Microsoft Visual Studio\2022\Professional\VC\Tools\MSVC\14.44.35207\include\xmemory

; 251  :         if (_Bytes >= _Big_allocation_threshold) {

  0002d	56		 push	 esi
  0002e	81 fe 00 10 00
	00		 cmp	 esi, 4096		; 00001000H
  00034	72 18		 jb	 SHORT $LN13@Buy_raw

; 252  :             // boost the alignment of big allocations to help autovectorization
; 253  :             return _Allocate_manually_vector_aligned<_Traits>(_Bytes);

  00036	e8 00 00 00 00	 call	 ??$_Allocate_manually_vector_aligned@U_Default_allocate_traits@std@@@std@@YAPAXI@Z ; std::_Allocate_manually_vector_aligned<std::_Default_allocate_traits>
; File C:\Program Files\Microsoft Visual Studio\2022\Professional\VC\Tools\MSVC\14.44.35207\include\vector

; 2035 :         _Myfirst              = _Newvec;

  0003b	83 c4 04	 add	 esp, 4
  0003e	89 07		 mov	 DWORD PTR [edi], eax

; 2036 :         _Mylast               = _Newvec;

  00040	89 47 04	 mov	 DWORD PTR [edi+4], eax

; 2037 :         _Myend                = _Newvec + _Newcapacity;

  00043	03 c6		 add	 eax, esi
  00045	89 47 08	 mov	 DWORD PTR [edi+8], eax
  00048	5e		 pop	 esi

; 2038 :     }

  00049	5f		 pop	 edi
  0004a	5d		 pop	 ebp
  0004b	c2 04 00	 ret	 4
$LN13@Buy_raw:
; File C:\Program Files\Microsoft Visual Studio\2022\Professional\VC\Tools\MSVC\14.44.35207\include\xmemory

; 136  :         return ::operator new(_Bytes);

  0004e	e8 00 00 00 00	 call	 ??2@YAPAXI@Z		; operator new
; File C:\Program Files\Microsoft Visual Studio\2022\Professional\VC\Tools\MSVC\14.44.35207\include\vector

; 2035 :         _Myfirst              = _Newvec;

  00053	83 c4 04	 add	 esp, 4
  00056	89 07		 mov	 DWORD PTR [edi], eax

; 2036 :         _Mylast               = _Newvec;

  00058	89 47 04	 mov	 DWORD PTR [edi+4], eax

; 2037 :         _Myend                = _Newvec + _Newcapacity;

  0005b	03 c6		 add	 eax, esi
  0005d	89 47 08	 mov	 DWORD PTR [edi+8], eax
  00060	5e		 pop	 esi

; 2038 :     }

  00061	5f		 pop	 edi
  00062	5d		 pop	 ebp
  00063	c2 04 00	 ret	 4
$LN25@Buy_raw:
; File C:\Program Files\Microsoft Visual Studio\2022\Professional\VC\Tools\MSVC\14.44.35207\include\xmemory

; 118  :             _Throw_bad_array_new_length(); // multiply overflow

  00066	e8 00 00 00 00	 call	 ?_Throw_bad_array_new_length@std@@YAXXZ ; std::_Throw_bad_array_new_length
$LN22@Buy_raw:
  0006b	cc		 int	 3
?_Buy_raw@?$vector@U__ITEMGAME@CMiniGame@@V?$allocator@U__ITEMGAME@CMiniGame@@@std@@@std@@AAEXI@Z ENDP ; std::vector<CMiniGame::__ITEMGAME,std::allocator<CMiniGame::__ITEMGAME> >::_Buy_raw
_TEXT	ENDS
; Function compile flags: /Ogtp
; File C:\Program Files\Microsoft Visual Studio\2022\Professional\VC\Tools\MSVC\14.44.35207\include\vector
; File C:\Program Files\Microsoft Visual Studio\2022\Professional\VC\Tools\MSVC\14.44.35207\include\xmemory
; File C:\Program Files\Microsoft Visual Studio\2022\Professional\VC\Tools\MSVC\14.44.35207\include\vector
; File C:\Program Files\Microsoft Visual Studio\2022\Professional\VC\Tools\MSVC\14.44.35207\include\xmemory
; File C:\Program Files\Microsoft Visual Studio\2022\Professional\VC\Tools\MSVC\14.44.35207\include\vector
; File C:\Program Files\Microsoft Visual Studio\2022\Professional\VC\Tools\MSVC\14.44.35207\include\xmemory
; File C:\Program Files\Microsoft Visual Studio\2022\Professional\VC\Tools\MSVC\14.44.35207\include\vector
; File C:\Program Files\Microsoft Visual Studio\2022\Professional\VC\Tools\MSVC\14.44.35207\include\xutility
; File C:\Program Files\Microsoft Visual Studio\2022\Professional\VC\Tools\MSVC\14.44.35207\include\vector
;	COMDAT ??4?$vector@U__ITEMGAME@CMiniGame@@V?$allocator@U__ITEMGAME@CMiniGame@@@std@@@std@@QAEAAV01@ABV01@@Z
_TEXT	SEGMENT
__Oldsize$1$ = -8					; size = 4
tv464 = -4						; size = 4
$T1 = -4						; size = 4
__Right$ = 8						; size = 4
__First$2$ = 8						; size = 4
??4?$vector@U__ITEMGAME@CMiniGame@@V?$allocator@U__ITEMGAME@CMiniGame@@@std@@@std@@QAEAAV01@ABV01@@Z PROC ; std::vector<CMiniGame::__ITEMGAME,std::allocator<CMiniGame::__ITEMGAME> >::operator=, COMDAT
; _this$ = ecx

; 1523 :     _CONSTEXPR20 vector& operator=(const vector& _Right) {

  00000	55		 push	 ebp
  00001	8b ec		 mov	 ebp, esp

; 1524 :         if (this == _STD addressof(_Right)) {

  00003	8b 55 08	 mov	 edx, DWORD PTR __Right$[ebp]
  00006	83 ec 08	 sub	 esp, 8
  00009	57		 push	 edi
  0000a	8b f9		 mov	 edi, ecx
  0000c	3b fa		 cmp	 edi, edx
  0000e	0f 84 0f 01 00
	00		 je	 $LN10@operator

; 1525 :             return *this;
; 1526 :         }
; 1527 : 
; 1528 :         auto& _Al       = _Getal();
; 1529 :         auto& _Right_al = _Right._Getal();
; 1530 :         if constexpr (_Choose_pocca_v<_Alty>) {
; 1531 :             if (_Al != _Right_al) {
; 1532 :                 _Tidy();
; 1533 :                 _Mypair._Myval2._Reload_proxy(_GET_PROXY_ALLOCATOR(_Alty, _Al), _GET_PROXY_ALLOCATOR(_Alty, _Right_al));
; 1534 :             }
; 1535 :         }
; 1536 : 
; 1537 :         _Pocca(_Al, _Right_al);
; 1538 :         auto& _Right_data = _Right._Mypair._Myval2;
; 1539 :         _Assign_counted_range(_Right_data._Myfirst, static_cast<size_type>(_Right_data._Mylast - _Right_data._Myfirst));

  00014	8b 02		 mov	 eax, DWORD PTR [edx]
  00016	8b 52 04	 mov	 edx, DWORD PTR [edx+4]

; 1432 :         const auto _Oldcapacity = static_cast<size_type>(_Myend - _Myfirst);

  00019	8b 4f 08	 mov	 ecx, DWORD PTR [edi+8]

; 1525 :             return *this;
; 1526 :         }
; 1527 : 
; 1528 :         auto& _Al       = _Getal();
; 1529 :         auto& _Right_al = _Right._Getal();
; 1530 :         if constexpr (_Choose_pocca_v<_Alty>) {
; 1531 :             if (_Al != _Right_al) {
; 1532 :                 _Tidy();
; 1533 :                 _Mypair._Myval2._Reload_proxy(_GET_PROXY_ALLOCATOR(_Alty, _Al), _GET_PROXY_ALLOCATOR(_Alty, _Right_al));
; 1534 :             }
; 1535 :         }
; 1536 : 
; 1537 :         _Pocca(_Al, _Right_al);
; 1538 :         auto& _Right_data = _Right._Mypair._Myval2;
; 1539 :         _Assign_counted_range(_Right_data._Myfirst, static_cast<size_type>(_Right_data._Mylast - _Right_data._Myfirst));

  0001c	2b d0		 sub	 edx, eax
  0001e	89 45 08	 mov	 DWORD PTR __First$2$[ebp], eax
  00021	b8 ab aa aa 2a	 mov	 eax, 715827883		; 2aaaaaabH
  00026	f7 ea		 imul	 edx
  00028	53		 push	 ebx
  00029	d1 fa		 sar	 edx, 1

; 1432 :         const auto _Oldcapacity = static_cast<size_type>(_Myend - _Myfirst);

  0002b	b8 ab aa aa 2a	 mov	 eax, 715827883		; 2aaaaaabH

; 1525 :             return *this;
; 1526 :         }
; 1527 : 
; 1528 :         auto& _Al       = _Getal();
; 1529 :         auto& _Right_al = _Right._Getal();
; 1530 :         if constexpr (_Choose_pocca_v<_Alty>) {
; 1531 :             if (_Al != _Right_al) {
; 1532 :                 _Tidy();
; 1533 :                 _Mypair._Myval2._Reload_proxy(_GET_PROXY_ALLOCATOR(_Alty, _Al), _GET_PROXY_ALLOCATOR(_Alty, _Right_al));
; 1534 :             }
; 1535 :         }
; 1536 : 
; 1537 :         _Pocca(_Al, _Right_al);
; 1538 :         auto& _Right_data = _Right._Mypair._Myval2;
; 1539 :         _Assign_counted_range(_Right_data._Myfirst, static_cast<size_type>(_Right_data._Mylast - _Right_data._Myfirst));

  00030	8b da		 mov	 ebx, edx
  00032	56		 push	 esi

; 1432 :         const auto _Oldcapacity = static_cast<size_type>(_Myend - _Myfirst);

  00033	8b 37		 mov	 esi, DWORD PTR [edi]
  00035	2b ce		 sub	 ecx, esi

; 1525 :             return *this;
; 1526 :         }
; 1527 : 
; 1528 :         auto& _Al       = _Getal();
; 1529 :         auto& _Right_al = _Right._Getal();
; 1530 :         if constexpr (_Choose_pocca_v<_Alty>) {
; 1531 :             if (_Al != _Right_al) {
; 1532 :                 _Tidy();
; 1533 :                 _Mypair._Myval2._Reload_proxy(_GET_PROXY_ALLOCATOR(_Alty, _Al), _GET_PROXY_ALLOCATOR(_Alty, _Right_al));
; 1534 :             }
; 1535 :         }
; 1536 : 
; 1537 :         _Pocca(_Al, _Right_al);
; 1538 :         auto& _Right_data = _Right._Mypair._Myval2;
; 1539 :         _Assign_counted_range(_Right_data._Myfirst, static_cast<size_type>(_Right_data._Mylast - _Right_data._Myfirst));

  00037	c1 eb 1f	 shr	 ebx, 31			; 0000001fH
  0003a	03 da		 add	 ebx, edx

; 1432 :         const auto _Oldcapacity = static_cast<size_type>(_Myend - _Myfirst);

  0003c	89 75 fc	 mov	 DWORD PTR tv464[ebp], esi
  0003f	f7 e9		 imul	 ecx
  00041	d1 fa		 sar	 edx, 1
  00043	8b ca		 mov	 ecx, edx
  00045	c1 e9 1f	 shr	 ecx, 31			; 0000001fH
  00048	03 ca		 add	 ecx, edx

; 1433 :         if (_Newsize > _Oldcapacity) {

  0004a	3b d9		 cmp	 ebx, ecx
  0004c	76 64		 jbe	 SHORT $LN8@operator

; 1703 :         if (_Newsize > max_size()) {

  0004e	81 fb 55 55 55
	15		 cmp	 ebx, 357913941		; 15555555H
  00054	0f 87 d2 00 00
	00		 ja	 $LN74@operator

; 2011 :         if (_Oldcapacity > _Max - _Oldcapacity / 2) {

  0005a	8b d1		 mov	 edx, ecx
  0005c	b8 55 55 55 15	 mov	 eax, 357913941		; 15555555H
  00061	d1 ea		 shr	 edx, 1
  00063	2b c2		 sub	 eax, edx
  00065	3b c8		 cmp	 ecx, eax
  00067	76 09		 jbe	 SHORT $LN18@operator

; 2012 :             return _Max; // geometric growth would overflow

  00069	c7 45 fc 55 55
	55 15		 mov	 DWORD PTR $T1[ebp], 357913941 ; 15555555H
  00070	eb 0b		 jmp	 SHORT $LN19@operator
$LN18@operator:

; 2013 :         }
; 2014 : 
; 2015 :         const size_type _Geometric = _Oldcapacity + _Oldcapacity / 2;

  00072	8d 04 0a	 lea	 eax, DWORD PTR [edx+ecx]

; 2016 : 
; 2017 :         if (_Geometric < _Newsize) {

  00075	3b c3		 cmp	 eax, ebx
  00077	0f 42 c3	 cmovb	 eax, ebx
  0007a	89 45 fc	 mov	 DWORD PTR $T1[ebp], eax
$LN19@operator:

; 1709 :         if (_Myfirst) { // destroy and deallocate old array

  0007d	85 f6		 test	 esi, esi
  0007f	74 1d		 je	 SHORT $LN15@operator

; 1710 :             _Destroy_range(_Myfirst, _Mylast, _Al);
; 1711 :             _ASAN_VECTOR_REMOVE;
; 1712 :             _Al.deallocate(_Myfirst, static_cast<size_type>(_Myend - _Myfirst));

  00081	51		 push	 ecx
  00082	56		 push	 esi
  00083	8b cf		 mov	 ecx, edi
  00085	e8 00 00 00 00	 call	 ?deallocate@?$allocator@U__ITEMGAME@CMiniGame@@@std@@QAEXQAU__ITEMGAME@CMiniGame@@I@Z ; std::allocator<CMiniGame::__ITEMGAME>::deallocate

; 1713 : 
; 1714 :             _Myfirst = nullptr;

  0008a	c7 07 00 00 00
	00		 mov	 DWORD PTR [edi], 0

; 1715 :             _Mylast  = nullptr;

  00090	c7 47 04 00 00
	00 00		 mov	 DWORD PTR [edi+4], 0

; 1716 :             _Myend   = nullptr;

  00097	c7 47 08 00 00
	00 00		 mov	 DWORD PTR [edi+8], 0
$LN15@operator:

; 1717 :         }
; 1718 : 
; 1719 :         _Buy_raw(_Newcapacity);

  0009e	ff 75 fc	 push	 DWORD PTR $T1[ebp]
  000a1	8b cf		 mov	 ecx, edi
  000a3	e8 00 00 00 00	 call	 ?_Buy_raw@?$vector@U__ITEMGAME@CMiniGame@@V?$allocator@U__ITEMGAME@CMiniGame@@@std@@@std@@AAEXI@Z ; std::vector<CMiniGame::__ITEMGAME,std::allocator<CMiniGame::__ITEMGAME> >::_Buy_raw

; 1436 :                 _Mylast = _STD _Uninitialized_copy_n(_STD move(_First), _Newsize, _Myfirst, _Al);

  000a8	8b 37		 mov	 esi, DWORD PTR [edi]
; File C:\Program Files\Microsoft Visual Studio\2022\Professional\VC\Tools\MSVC\14.44.35207\include\xmemory

; 1930 :             _STD _Copy_memmove_n(_UFirst, _Count, _STD _Unfancy(_Dest));

  000aa	8b 4d 08	 mov	 ecx, DWORD PTR __First$2$[ebp]
  000ad	56		 push	 esi
  000ae	53		 push	 ebx
  000af	51		 push	 ecx
; File C:\Program Files\Microsoft Visual Studio\2022\Professional\VC\Tools\MSVC\14.44.35207\include\vector

; 1442 :             return;

  000b0	eb 5e		 jmp	 SHORT $LN71@operator
$LN8@operator:

; 1443 :         }
; 1444 : 
; 1445 :         const auto _Oldsize = static_cast<size_type>(_Mylast - _Myfirst);

  000b2	8b 4f 04	 mov	 ecx, DWORD PTR [edi+4]
  000b5	b8 ab aa aa 2a	 mov	 eax, 715827883		; 2aaaaaabH
  000ba	2b ce		 sub	 ecx, esi
  000bc	f7 e9		 imul	 ecx
  000be	d1 fa		 sar	 edx, 1
  000c0	8b f2		 mov	 esi, edx
  000c2	c1 ee 1f	 shr	 esi, 31			; 0000001fH
  000c5	03 f2		 add	 esi, edx
  000c7	89 75 f8	 mov	 DWORD PTR __Oldsize$1$[ebp], esi

; 1446 :         if (_Newsize > _Oldsize) {

  000ca	3b de		 cmp	 ebx, esi
  000cc	76 3a		 jbe	 SHORT $LN9@operator

; 1447 :             bool _Copied = false;
; 1448 :             if constexpr (_Iter_copy_cat<_Iter, pointer>::_Bitcopy_assignable) {
; 1449 : #if _HAS_CXX20
; 1450 :                 if (!_STD is_constant_evaluated())
; 1451 : #endif // _HAS_CXX20
; 1452 :                 {
; 1453 :                     _Copy_memmove_n(_First, static_cast<size_t>(_Oldsize), _Myfirst);

  000ce	ff 75 fc	 push	 DWORD PTR tv464[ebp]
  000d1	56		 push	 esi
  000d2	ff 75 08	 push	 DWORD PTR __First$2$[ebp]
  000d5	e8 00 00 00 00	 call	 ??$_Copy_memmove_n@PAU__ITEMGAME@CMiniGame@@PAU12@@std@@YAPAU__ITEMGAME@CMiniGame@@PAU12@I0@Z ; std::_Copy_memmove_n<CMiniGame::__ITEMGAME *,CMiniGame::__ITEMGAME *>

; 1454 :                     _First += _Oldsize;

  000da	8b 4d 08	 mov	 ecx, DWORD PTR __First$2$[ebp]
  000dd	8d 04 76	 lea	 eax, DWORD PTR [esi+esi*2]

; 1455 :                     _Copied = true;
; 1456 :                 }
; 1457 :             }
; 1458 : 
; 1459 :             if (!_Copied) {
; 1460 :                 for (auto _Mid = _Myfirst; _Mid != _Mylast; ++_Mid, (void) ++_First) {
; 1461 :                     *_Mid = *_First;
; 1462 :                 }
; 1463 :             }
; 1464 : 
; 1465 :             if constexpr (_Nothrow_construct) {
; 1466 :                 _ASAN_VECTOR_MODIFY(static_cast<difference_type>(_Newsize - _Oldsize));
; 1467 :                 _Mylast = _STD _Uninitialized_copy_n(_STD move(_First), _Newsize - _Oldsize, _Mylast, _Al);

  000e0	8b 77 04	 mov	 esi, DWORD PTR [edi+4]
  000e3	2b 5d f8	 sub	 ebx, DWORD PTR __Oldsize$1$[ebp]
; File C:\Program Files\Microsoft Visual Studio\2022\Professional\VC\Tools\MSVC\14.44.35207\include\xmemory

; 1930 :             _STD _Copy_memmove_n(_UFirst, _Count, _STD _Unfancy(_Dest));

  000e6	56		 push	 esi
; File C:\Program Files\Microsoft Visual Studio\2022\Professional\VC\Tools\MSVC\14.44.35207\include\vector

; 1454 :                     _First += _Oldsize;

  000e7	8d 04 81	 lea	 eax, DWORD PTR [ecx+eax*4]
; File C:\Program Files\Microsoft Visual Studio\2022\Professional\VC\Tools\MSVC\14.44.35207\include\xmemory

; 1930 :             _STD _Copy_memmove_n(_UFirst, _Count, _STD _Unfancy(_Dest));

  000ea	53		 push	 ebx
  000eb	50		 push	 eax
  000ec	e8 00 00 00 00	 call	 ??$_Copy_memmove_n@PAU__ITEMGAME@CMiniGame@@PAU12@@std@@YAPAU__ITEMGAME@CMiniGame@@PAU12@I0@Z ; std::_Copy_memmove_n<CMiniGame::__ITEMGAME *,CMiniGame::__ITEMGAME *>
  000f1	83 c4 18	 add	 esp, 24			; 00000018H
; File C:\Program Files\Microsoft Visual Studio\2022\Professional\VC\Tools\MSVC\14.44.35207\include\vector

; 1474 :             const pointer _Newlast = _Myfirst + _Newsize;

  000f4	8d 04 5b	 lea	 eax, DWORD PTR [ebx+ebx*2]
  000f7	8d 04 86	 lea	 eax, DWORD PTR [esi+eax*4]

; 1475 :             _STD _Copy_n_unchecked4(_STD move(_First), _Newsize, _Myfirst);
; 1476 :             _STD _Destroy_range(_Newlast, _Mylast, _Al);
; 1477 :             _ASAN_VECTOR_MODIFY(static_cast<difference_type>(_Newsize - _Oldsize));
; 1478 :             _Mylast = _Newlast;

  000fa	89 47 04	 mov	 DWORD PTR [edi+4], eax

; 1540 : 
; 1541 :         return *this;

  000fd	8b c7		 mov	 eax, edi
  000ff	5e		 pop	 esi
  00100	5b		 pop	 ebx

; 1542 :     }

  00101	5f		 pop	 edi
  00102	8b e5		 mov	 esp, ebp
  00104	5d		 pop	 ebp
  00105	c2 04 00	 ret	 4
$LN9@operator:
; File C:\Program Files\Microsoft Visual Studio\2022\Professional\VC\Tools\MSVC\14.44.35207\include\xutility

; 4808 :             return _Copy_memmove_n(_First, static_cast<size_t>(_Count), _Dest);

  00108	8b 75 fc	 mov	 esi, DWORD PTR tv464[ebp]
  0010b	56		 push	 esi
  0010c	53		 push	 ebx
  0010d	ff 75 08	 push	 DWORD PTR __First$2$[ebp]
$LN71@operator:
  00110	e8 00 00 00 00	 call	 ??$_Copy_memmove_n@PAU__ITEMGAME@CMiniGame@@PAU12@@std@@YAPAU__ITEMGAME@CMiniGame@@PAU12@I0@Z ; std::_Copy_memmove_n<CMiniGame::__ITEMGAME *,CMiniGame::__ITEMGAME *>
  00115	83 c4 0c	 add	 esp, 12			; 0000000cH
; File C:\Program Files\Microsoft Visual Studio\2022\Professional\VC\Tools\MSVC\14.44.35207\include\vector

; 1474 :             const pointer _Newlast = _Myfirst + _Newsize;

  00118	8d 04 5b	 lea	 eax, DWORD PTR [ebx+ebx*2]
  0011b	8d 04 86	 lea	 eax, DWORD PTR [esi+eax*4]

; 1475 :             _STD _Copy_n_unchecked4(_STD move(_First), _Newsize, _Myfirst);
; 1476 :             _STD _Destroy_range(_Newlast, _Mylast, _Al);
; 1477 :             _ASAN_VECTOR_MODIFY(static_cast<difference_type>(_Newsize - _Oldsize));
; 1478 :             _Mylast = _Newlast;

  0011e	89 47 04	 mov	 DWORD PTR [edi+4], eax
  00121	5e		 pop	 esi
  00122	5b		 pop	 ebx
$LN10@operator:

; 1540 : 
; 1541 :         return *this;

  00123	8b c7		 mov	 eax, edi

; 1542 :     }

  00125	5f		 pop	 edi
  00126	8b e5		 mov	 esp, ebp
  00128	5d		 pop	 ebp
  00129	c2 04 00	 ret	 4
$LN74@operator:

; 1704 :             _Xlength();

  0012c	e8 00 00 00 00	 call	 ?_Xlength@?$vector@U__ITEMGAME@CMiniGame@@V?$allocator@U__ITEMGAME@CMiniGame@@@std@@@std@@CAXXZ ; std::vector<CMiniGame::__ITEMGAME,std::allocator<CMiniGame::__ITEMGAME> >::_Xlength
$LN70@operator:
  00131	cc		 int	 3
??4?$vector@U__ITEMGAME@CMiniGame@@V?$allocator@U__ITEMGAME@CMiniGame@@@std@@@std@@QAEAAV01@ABV01@@Z ENDP ; std::vector<CMiniGame::__ITEMGAME,std::allocator<CMiniGame::__ITEMGAME> >::operator=
_TEXT	ENDS
; Function compile flags: /Ogtp
; File C:\Program Files\Microsoft Visual Studio\2022\Professional\VC\Tools\MSVC\14.44.35207\include\vector
;	COMDAT ??1?$vector@U__ITEMGAME@CMiniGame@@V?$allocator@U__ITEMGAME@CMiniGame@@@std@@@std@@QAE@XZ
_TEXT	SEGMENT
??1?$vector@U__ITEMGAME@CMiniGame@@V?$allocator@U__ITEMGAME@CMiniGame@@@std@@@std@@QAE@XZ PROC ; std::vector<CMiniGame::__ITEMGAME,std::allocator<CMiniGame::__ITEMGAME> >::~vector<CMiniGame::__ITEMGAME,std::allocator<CMiniGame::__ITEMGAME> >, COMDAT
; _this$ = ecx

; 830  :         _Tidy();

  00000	e9 00 00 00 00	 jmp	 ?_Tidy@?$vector@U__ITEMGAME@CMiniGame@@V?$allocator@U__ITEMGAME@CMiniGame@@@std@@@std@@AAEXXZ ; std::vector<CMiniGame::__ITEMGAME,std::allocator<CMiniGame::__ITEMGAME> >::_Tidy
??1?$vector@U__ITEMGAME@CMiniGame@@V?$allocator@U__ITEMGAME@CMiniGame@@@std@@@std@@QAE@XZ ENDP ; std::vector<CMiniGame::__ITEMGAME,std::allocator<CMiniGame::__ITEMGAME> >::~vector<CMiniGame::__ITEMGAME,std::allocator<CMiniGame::__ITEMGAME> >
_TEXT	ENDS
; Function compile flags: /Ogtp
; File C:\Program Files\Microsoft Visual Studio\2022\Professional\VC\Tools\MSVC\14.44.35207\include\xmemory
;	COMDAT ?deallocate@?$allocator@U__ITEMGAME@CMiniGame@@@std@@QAEXQAU__ITEMGAME@CMiniGame@@I@Z
_TEXT	SEGMENT
__Ptr$ = 8						; size = 4
__Count$ = 12						; size = 4
?deallocate@?$allocator@U__ITEMGAME@CMiniGame@@@std@@QAEXQAU__ITEMGAME@CMiniGame@@I@Z PROC ; std::allocator<CMiniGame::__ITEMGAME>::deallocate, COMDAT
; _this$ = ecx

; 982  :     _CONSTEXPR20 void deallocate(_Ty* const _Ptr, const size_t _Count) noexcept /* strengthened */ {

  00000	55		 push	 ebp
  00001	8b ec		 mov	 ebp, esp

; 983  :         _STL_ASSERT(_Ptr != nullptr || _Count == 0, "null pointer cannot point to a block of non-zero size");
; 984  :         // no overflow check on the following multiply; we assume _Allocate did that check
; 985  :         _STD _Deallocate<_New_alignof<_Ty>>(_Ptr, sizeof(_Ty) * _Count);

  00003	8b 45 0c	 mov	 eax, DWORD PTR __Count$[ebp]
  00006	8d 0c 40	 lea	 ecx, DWORD PTR [eax+eax*2]
  00009	8b 45 08	 mov	 eax, DWORD PTR __Ptr$[ebp]
  0000c	c1 e1 02	 shl	 ecx, 2

; 284  :         if (_Bytes >= _Big_allocation_threshold) {

  0000f	81 f9 00 10 00
	00		 cmp	 ecx, 4096		; 00001000H
  00015	72 12		 jb	 SHORT $LN11@deallocate

; 205  :     const uintptr_t _Ptr_container   = _Ptr_user[-1];

  00017	8b 50 fc	 mov	 edx, DWORD PTR [eax-4]
  0001a	83 c1 23	 add	 ecx, 35			; 00000023H

; 206  : 
; 207  :     // If the following asserts, it likely means that we are performing
; 208  :     // an aligned delete on memory coming from an unaligned allocation.
; 209  :     _STL_ASSERT(_Ptr_user[-2] == _Big_allocation_sentinel, "invalid argument");
; 210  : 
; 211  :     // Extra paranoia on aligned allocation/deallocation; ensure _Ptr_container is
; 212  :     // in range [_Min_back_shift, _Non_user_size]
; 213  : #ifdef _DEBUG
; 214  :     constexpr uintptr_t _Min_back_shift = 2 * sizeof(void*);
; 215  : #else // ^^^ defined(_DEBUG) / !defined(_DEBUG) vvv
; 216  :     constexpr uintptr_t _Min_back_shift = sizeof(void*);
; 217  : #endif // ^^^ !defined(_DEBUG) ^^^
; 218  :     const uintptr_t _Back_shift = reinterpret_cast<uintptr_t>(_Ptr) - _Ptr_container;

  0001d	2b c2		 sub	 eax, edx

; 219  :     _STL_VERIFY(_Back_shift >= _Min_back_shift && _Back_shift <= _Non_user_size, "invalid argument");

  0001f	83 c0 fc	 add	 eax, -4			; fffffffcH
  00022	83 f8 1f	 cmp	 eax, 31			; 0000001fH
  00025	77 10		 ja	 SHORT $LN10@deallocate

; 220  :     _Ptr = reinterpret_cast<void*>(_Ptr_container);

  00027	8b c2		 mov	 eax, edx
$LN11@deallocate:

; 289  :         ::operator delete(_Ptr, _Bytes);

  00029	51		 push	 ecx
  0002a	50		 push	 eax
  0002b	e8 00 00 00 00	 call	 ??3@YAXPAXI@Z		; operator delete
  00030	83 c4 08	 add	 esp, 8

; 986  :     }

  00033	5d		 pop	 ebp
  00034	c2 08 00	 ret	 8
$LN10@deallocate:

; 219  :     _STL_VERIFY(_Back_shift >= _Min_back_shift && _Back_shift <= _Non_user_size, "invalid argument");

  00037	6a 00		 push	 0
  00039	6a 00		 push	 0
  0003b	6a 00		 push	 0
  0003d	6a 00		 push	 0
  0003f	6a 00		 push	 0
  00041	e8 00 00 00 00	 call	 __invoke_watson
$LN14@deallocate:
  00046	cc		 int	 3
?deallocate@?$allocator@U__ITEMGAME@CMiniGame@@@std@@QAEXQAU__ITEMGAME@CMiniGame@@I@Z ENDP ; std::allocator<CMiniGame::__ITEMGAME>::deallocate
_TEXT	ENDS
; Function compile flags: /Ogtp
; File C:\IAGOS\server\v18\Source\Source\_network\CmnHdr.h
;	COMDAT ??0_LogItemInfo@@QAE@XZ
_TEXT	SEGMENT
??0_LogItemInfo@@QAE@XZ PROC				; _LogItemInfo::_LogItemInfo, COMDAT
; _this$ = ecx

; 636  : 	{
; 637  : 		Action = _T("");

  00000	c7 01 00 00 00
	00		 mov	 DWORD PTR [ecx], OFFSET ??_C@_00CNPNBAHC@@
  00006	0f 57 c0	 xorps	 xmm0, xmm0

; 638  : 		SendName = _T("");

  00009	c7 41 04 00 00
	00 00		 mov	 DWORD PTR [ecx+4], OFFSET ??_C@_00CNPNBAHC@@

; 639  : 		RecvName = _T("");
; 640  : 		WorldId = Gold = Gold2 = 0;
; 641  : 		Negudo = 0;
; 642  : 		MaxNegudo = 0;
; 643  : 		ItemNo = 0;
; 644  : 		//ItemName = _T("");
; 645  : 		::memset( szItemName, 0, sizeof(szItemName) );
; 646  : 		itemNumber = 0;
; 647  : 		nAbilityOption = 0;
; 648  : 		Gold_1 = 0;
; 649  : 		nSlot = 100;
; 650  : 		nSlot1 = 100;
; 651  : 		nItemResist = 0;
; 652  : 		nResistAbilityOption = 0;
; 653  : 		m_bCharged = FALSE;
; 654  : 		m_dwKeepTime = 0;
; 655  : #if __VER >= 11 // __SYS_IDENTIFY
; 656  : 		m_iRandomOptItemId = 0;
; 657  : #else	//__SYS_IDENTIFY
; 658  : 		m_nRandomOptItemId = 0;
; 659  : #endif	// __SYS_IDENTIFY
; 660  : #if __VER >= 12 // __EXT_PIERCING
; 661  : 		nPiercedSize = 0;
; 662  : //		for( int i=0; i<MAX_PIERCING_WEAPON; i++ )
; 663  : //			adwItemId[i] = 0;
; 664  : 		memset( adwItemId, 0, sizeof(adwItemId) );
; 665  : 		nUMPiercedSize = 0;
; 666  : //		for( i=0; i<MAX_PIERCING_ULTIMATE; i++ )
; 667  : //	adwUMItemId[i] = 0;
; 668  : 		memset( adwUMItemId, 0, sizeof(adwUMItemId) );
; 669  : #else // __EXT_PIERCING
; 670  : 		nPiercedSize = 0;
; 671  : 		adwItemId0 = 0;
; 672  : 		adwItemId1 = 0;
; 673  : 		adwItemId2 = 0;
; 674  : 		adwItemId3 = 0;
; 675  : #if __VER >= 9 // __ULTIMATE
; 676  : 		adwItemId4 = 0;
; 677  : #endif // __ULTIMATE
; 678  : #endif // __EXT_PIERCING
; 679  : #if __VER >= 9 // __PET_0410
; 680  : 		nPetKind = 0;
; 681  : 		nPetLevel = 0;
; 682  : 		dwPetExp = 0;
; 683  : 		wPetEnergy = 0;

  00010	33 c0		 xor	 eax, eax
  00012	c7 41 08 00 00
	00 00		 mov	 DWORD PTR [ecx+8], OFFSET ??_C@_00CNPNBAHC@@
  00019	c7 41 14 00 00
	00 00		 mov	 DWORD PTR [ecx+20], 0
  00020	c7 41 10 00 00
	00 00		 mov	 DWORD PTR [ecx+16], 0
  00027	c7 41 0c 00 00
	00 00		 mov	 DWORD PTR [ecx+12], 0
  0002e	c7 41 1c 00 00
	00 00		 mov	 DWORD PTR [ecx+28], 0
  00035	c7 41 20 00 00
	00 00		 mov	 DWORD PTR [ecx+32], 0
  0003c	c7 41 18 00 00
	00 00		 mov	 DWORD PTR [ecx+24], 0
  00043	0f 11 41 24	 movups	 XMMWORD PTR [ecx+36], xmm0
  00047	0f 11 41 34	 movups	 XMMWORD PTR [ecx+52], xmm0
  0004b	c7 41 44 00 00
	00 00		 mov	 DWORD PTR [ecx+68], 0
  00052	c7 41 48 00 00
	00 00		 mov	 DWORD PTR [ecx+72], 0
  00059	c7 41 4c 00 00
	00 00		 mov	 DWORD PTR [ecx+76], 0
  00060	c7 41 50 64 00
	00 00		 mov	 DWORD PTR [ecx+80], 100	; 00000064H
  00067	c7 41 54 64 00
	00 00		 mov	 DWORD PTR [ecx+84], 100	; 00000064H
  0006e	c7 41 58 00 00
	00 00		 mov	 DWORD PTR [ecx+88], 0
  00075	c7 41 5c 00 00
	00 00		 mov	 DWORD PTR [ecx+92], 0
  0007c	c7 41 60 00 00
	00 00		 mov	 DWORD PTR [ecx+96], 0
  00083	c7 41 64 00 00
	00 00		 mov	 DWORD PTR [ecx+100], 0
  0008a	c7 41 68 00 00
	00 00		 mov	 DWORD PTR [ecx+104], 0
  00091	c7 41 6c 00 00
	00 00		 mov	 DWORD PTR [ecx+108], 0
  00098	c7 41 70 00 00
	00 00		 mov	 DWORD PTR [ecx+112], 0
  0009f	0f 11 41 74	 movups	 XMMWORD PTR [ecx+116], xmm0
  000a3	0f 11 81 84 00
	00 00		 movups	 XMMWORD PTR [ecx+132], xmm0
  000aa	66 0f d6 81 94
	00 00 00	 movq	 QWORD PTR [ecx+148], xmm0
  000b2	c7 81 9c 00 00
	00 00 00 00 00	 mov	 DWORD PTR [ecx+156], 0
  000bc	0f 11 81 a0 00
	00 00		 movups	 XMMWORD PTR [ecx+160], xmm0
  000c3	c7 81 b0 00 00
	00 00 00 00 00	 mov	 DWORD PTR [ecx+176], 0
  000cd	89 81 bc 00 00
	00		 mov	 DWORD PTR [ecx+188], eax

; 684  : 		wPetLife = 0;
; 685  : 		nPetAL_D = 0;

  000d3	89 81 c0 00 00
	00		 mov	 DWORD PTR [ecx+192], eax

; 686  : 		nPetAL_C = 0;
; 687  : 		nPetAL_B = 0;
; 688  : 		nPetAL_A = 0;
; 689  : 		nPetAL_S = 0;

  000d9	88 81 c4 00 00
	00		 mov	 BYTE PTR [ecx+196], al

; 690  : #endif // __PET_0410
; 691  : 	}

  000df	8b c1		 mov	 eax, ecx
  000e1	66 c7 81 b4 00
	00 00 00 00	 mov	 WORD PTR [ecx+180], 0
  000ea	c7 81 b8 00 00
	00 00 00 00 00	 mov	 DWORD PTR [ecx+184], 0
  000f4	c3		 ret	 0
??0_LogItemInfo@@QAE@XZ ENDP				; _LogItemInfo::_LogItemInfo
_TEXT	ENDS
; Function compile flags: /Ogtp
; File C:\Program Files\Microsoft Visual Studio\2022\Professional\VC\Tools\MSVC\14.44.35207\include\xtree
;	COMDAT ?_Throw_tree_length_error@std@@YAXXZ
_TEXT	SEGMENT
?_Throw_tree_length_error@std@@YAXXZ PROC		; std::_Throw_tree_length_error, COMDAT

; 417  :     _Xlength_error("map/set too long");

  00000	68 00 00 00 00	 push	 OFFSET ??_C@_0BB@GCADKGJO@map?1set?5too?5long@
  00005	e8 00 00 00 00	 call	 ?_Xlength_error@std@@YAXPBD@Z ; std::_Xlength_error
$LN3@Throw_tree:
  0000a	cc		 int	 3
?_Throw_tree_length_error@std@@YAXXZ ENDP		; std::_Throw_tree_length_error
_TEXT	ENDS
; Function compile flags: /Ogtp
; File C:\Program Files\Microsoft Visual Studio\2022\Professional\VC\Tools\MSVC\14.44.35207\include\xmemory
;	COMDAT ?_Throw_bad_array_new_length@std@@YAXXZ
_TEXT	SEGMENT
$T1 = -12						; size = 12
?_Throw_bad_array_new_length@std@@YAXXZ PROC		; std::_Throw_bad_array_new_length, COMDAT

; 107  : [[noreturn]] inline void _Throw_bad_array_new_length() {

  00000	55		 push	 ebp
  00001	8b ec		 mov	 ebp, esp
  00003	83 ec 0c	 sub	 esp, 12			; 0000000cH

; 108  :     _THROW(bad_array_new_length{});

  00006	8d 4d f4	 lea	 ecx, DWORD PTR $T1[ebp]
  00009	e8 00 00 00 00	 call	 ??0bad_array_new_length@std@@QAE@XZ ; std::bad_array_new_length::bad_array_new_length
  0000e	68 00 00 00 00	 push	 OFFSET __TI3?AVbad_array_new_length@std@@
  00013	8d 45 f4	 lea	 eax, DWORD PTR $T1[ebp]
  00016	50		 push	 eax
  00017	e8 00 00 00 00	 call	 __CxxThrowException@8
$LN3@Throw_bad_:
  0001c	cc		 int	 3
?_Throw_bad_array_new_length@std@@YAXXZ ENDP		; std::_Throw_bad_array_new_length
_TEXT	ENDS
; Function compile flags: /Ogtp
; File C:\Program Files\Microsoft Visual Studio\2022\Professional\VC\Tools\MSVC\14.44.35207\include\vcruntime_exception.h
;	COMDAT ??_Gbad_array_new_length@std@@UAEPAXI@Z
_TEXT	SEGMENT
___flags$ = 8						; size = 4
??_Gbad_array_new_length@std@@UAEPAXI@Z PROC		; std::bad_array_new_length::`scalar deleting destructor', COMDAT
; _this$ = ecx
  00000	55		 push	 ebp
  00001	8b ec		 mov	 ebp, esp

; 90   :     {

  00003	56		 push	 esi
  00004	8b f1		 mov	 esi, ecx

; 91   :         __std_exception_destroy(&_Data);

  00006	8d 46 04	 lea	 eax, DWORD PTR [esi+4]
  00009	c7 06 00 00 00
	00		 mov	 DWORD PTR [esi], OFFSET ??_7exception@std@@6B@
  0000f	50		 push	 eax
  00010	e8 00 00 00 00	 call	 ___std_exception_destroy
  00015	83 c4 04	 add	 esp, 4
  00018	f6 45 08 01	 test	 BYTE PTR ___flags$[ebp], 1
  0001c	74 0b		 je	 SHORT $LN18@scalar
  0001e	6a 0c		 push	 12			; 0000000cH
  00020	56		 push	 esi
  00021	e8 00 00 00 00	 call	 ??3@YAXPAXI@Z		; operator delete
  00026	83 c4 08	 add	 esp, 8
$LN18@scalar:
  00029	8b c6		 mov	 eax, esi
  0002b	5e		 pop	 esi
  0002c	5d		 pop	 ebp
  0002d	c2 04 00	 ret	 4
??_Gbad_array_new_length@std@@UAEPAXI@Z ENDP		; std::bad_array_new_length::`scalar deleting destructor'
_TEXT	ENDS
; Function compile flags: /Ogtp
; File C:\Program Files\Microsoft Visual Studio\2022\Professional\VC\Tools\MSVC\14.44.35207\include\vcruntime_exception.h
;	COMDAT ??0bad_array_new_length@std@@QAE@ABV01@@Z
_TEXT	SEGMENT
___that$ = 8						; size = 4
??0bad_array_new_length@std@@QAE@ABV01@@Z PROC		; std::bad_array_new_length::bad_array_new_length, COMDAT
; _this$ = ecx
  00000	55		 push	 ebp
  00001	8b ec		 mov	 ebp, esp

; 73   :     {

  00003	56		 push	 esi
  00004	8b f1		 mov	 esi, ecx
  00006	0f 57 c0	 xorps	 xmm0, xmm0

; 72   :         : _Data()

  00009	8d 46 04	 lea	 eax, DWORD PTR [esi+4]

; 74   :         __std_exception_copy(&_Other._Data, &_Data);

  0000c	50		 push	 eax
  0000d	c7 06 00 00 00
	00		 mov	 DWORD PTR [esi], OFFSET ??_7exception@std@@6B@
  00013	66 0f d6 00	 movq	 QWORD PTR [eax], xmm0
  00017	8b 45 08	 mov	 eax, DWORD PTR ___that$[ebp]
  0001a	83 c0 04	 add	 eax, 4
  0001d	50		 push	 eax
  0001e	e8 00 00 00 00	 call	 ___std_exception_copy
  00023	83 c4 08	 add	 esp, 8
  00026	c7 06 00 00 00
	00		 mov	 DWORD PTR [esi], OFFSET ??_7bad_array_new_length@std@@6B@
  0002c	8b c6		 mov	 eax, esi
  0002e	5e		 pop	 esi
  0002f	5d		 pop	 ebp
  00030	c2 04 00	 ret	 4
??0bad_array_new_length@std@@QAE@ABV01@@Z ENDP		; std::bad_array_new_length::bad_array_new_length
_TEXT	ENDS
; Function compile flags: /Ogtp
; File C:\Program Files\Microsoft Visual Studio\2022\Professional\VC\Tools\MSVC\14.44.35207\include\vcruntime_exception.h
;	COMDAT ??1bad_array_new_length@std@@UAE@XZ
_TEXT	SEGMENT
??1bad_array_new_length@std@@UAE@XZ PROC		; std::bad_array_new_length::~bad_array_new_length, COMDAT
; _this$ = ecx

; 91   :         __std_exception_destroy(&_Data);

  00000	8d 41 04	 lea	 eax, DWORD PTR [ecx+4]
  00003	c7 01 00 00 00
	00		 mov	 DWORD PTR [ecx], OFFSET ??_7exception@std@@6B@
  00009	50		 push	 eax
  0000a	e8 00 00 00 00	 call	 ___std_exception_destroy
  0000f	59		 pop	 ecx
  00010	c3		 ret	 0
??1bad_array_new_length@std@@UAE@XZ ENDP		; std::bad_array_new_length::~bad_array_new_length
_TEXT	ENDS
; Function compile flags: /Ogtp
; File C:\Program Files\Microsoft Visual Studio\2022\Professional\VC\Tools\MSVC\14.44.35207\include\vcruntime_exception.h
;	COMDAT ??0bad_array_new_length@std@@QAE@XZ
_TEXT	SEGMENT
??0bad_array_new_length@std@@QAE@XZ PROC		; std::bad_array_new_length::bad_array_new_length, COMDAT
; _this$ = ecx

; 144  :     {

  00000	0f 57 c0	 xorps	 xmm0, xmm0

; 145  :     }

  00003	8b c1		 mov	 eax, ecx

; 66   :         : _Data()

  00005	66 0f d6 41 04	 movq	 QWORD PTR [ecx+4], xmm0

; 67   :     {
; 68   :         _Data._What = _Message;

  0000a	c7 41 04 00 00
	00 00		 mov	 DWORD PTR [ecx+4], OFFSET ??_C@_0BF@KINCDENJ@bad?5array?5new?5length@

; 144  :     {

  00011	c7 01 00 00 00
	00		 mov	 DWORD PTR [ecx], OFFSET ??_7bad_array_new_length@std@@6B@

; 145  :     }

  00017	c3		 ret	 0
??0bad_array_new_length@std@@QAE@XZ ENDP		; std::bad_array_new_length::bad_array_new_length
_TEXT	ENDS
; Function compile flags: /Ogtp
; File C:\Program Files\Microsoft Visual Studio\2022\Professional\VC\Tools\MSVC\14.44.35207\include\vcruntime_exception.h
;	COMDAT ??_Gbad_alloc@std@@UAEPAXI@Z
_TEXT	SEGMENT
___flags$ = 8						; size = 4
??_Gbad_alloc@std@@UAEPAXI@Z PROC			; std::bad_alloc::`scalar deleting destructor', COMDAT
; _this$ = ecx
  00000	55		 push	 ebp
  00001	8b ec		 mov	 ebp, esp

; 90   :     {

  00003	56		 push	 esi
  00004	8b f1		 mov	 esi, ecx

; 91   :         __std_exception_destroy(&_Data);

  00006	8d 46 04	 lea	 eax, DWORD PTR [esi+4]
  00009	c7 06 00 00 00
	00		 mov	 DWORD PTR [esi], OFFSET ??_7exception@std@@6B@
  0000f	50		 push	 eax
  00010	e8 00 00 00 00	 call	 ___std_exception_destroy
  00015	83 c4 04	 add	 esp, 4
  00018	f6 45 08 01	 test	 BYTE PTR ___flags$[ebp], 1
  0001c	74 0b		 je	 SHORT $LN13@scalar
  0001e	6a 0c		 push	 12			; 0000000cH
  00020	56		 push	 esi
  00021	e8 00 00 00 00	 call	 ??3@YAXPAXI@Z		; operator delete
  00026	83 c4 08	 add	 esp, 8
$LN13@scalar:
  00029	8b c6		 mov	 eax, esi
  0002b	5e		 pop	 esi
  0002c	5d		 pop	 ebp
  0002d	c2 04 00	 ret	 4
??_Gbad_alloc@std@@UAEPAXI@Z ENDP			; std::bad_alloc::`scalar deleting destructor'
_TEXT	ENDS
; Function compile flags: /Ogtp
; File C:\Program Files\Microsoft Visual Studio\2022\Professional\VC\Tools\MSVC\14.44.35207\include\vcruntime_exception.h
;	COMDAT ??0bad_alloc@std@@QAE@ABV01@@Z
_TEXT	SEGMENT
___that$ = 8						; size = 4
??0bad_alloc@std@@QAE@ABV01@@Z PROC			; std::bad_alloc::bad_alloc, COMDAT
; _this$ = ecx
  00000	55		 push	 ebp
  00001	8b ec		 mov	 ebp, esp

; 73   :     {

  00003	56		 push	 esi
  00004	8b f1		 mov	 esi, ecx
  00006	0f 57 c0	 xorps	 xmm0, xmm0

; 72   :         : _Data()

  00009	8d 46 04	 lea	 eax, DWORD PTR [esi+4]

; 74   :         __std_exception_copy(&_Other._Data, &_Data);

  0000c	50		 push	 eax
  0000d	c7 06 00 00 00
	00		 mov	 DWORD PTR [esi], OFFSET ??_7exception@std@@6B@
  00013	66 0f d6 00	 movq	 QWORD PTR [eax], xmm0
  00017	8b 45 08	 mov	 eax, DWORD PTR ___that$[ebp]
  0001a	83 c0 04	 add	 eax, 4
  0001d	50		 push	 eax
  0001e	e8 00 00 00 00	 call	 ___std_exception_copy
  00023	83 c4 08	 add	 esp, 8
  00026	c7 06 00 00 00
	00		 mov	 DWORD PTR [esi], OFFSET ??_7bad_alloc@std@@6B@
  0002c	8b c6		 mov	 eax, esi
  0002e	5e		 pop	 esi
  0002f	5d		 pop	 ebp
  00030	c2 04 00	 ret	 4
??0bad_alloc@std@@QAE@ABV01@@Z ENDP			; std::bad_alloc::bad_alloc
_TEXT	ENDS
; Function compile flags: /Ogtp
; File C:\Program Files\Microsoft Visual Studio\2022\Professional\VC\Tools\MSVC\14.44.35207\include\vcruntime_exception.h
;	COMDAT ??_Gexception@std@@UAEPAXI@Z
_TEXT	SEGMENT
___flags$ = 8						; size = 4
??_Gexception@std@@UAEPAXI@Z PROC			; std::exception::`scalar deleting destructor', COMDAT
; _this$ = ecx
  00000	55		 push	 ebp
  00001	8b ec		 mov	 ebp, esp

; 90   :     {

  00003	56		 push	 esi
  00004	8b f1		 mov	 esi, ecx

; 91   :         __std_exception_destroy(&_Data);

  00006	8d 46 04	 lea	 eax, DWORD PTR [esi+4]
  00009	c7 06 00 00 00
	00		 mov	 DWORD PTR [esi], OFFSET ??_7exception@std@@6B@
  0000f	50		 push	 eax
  00010	e8 00 00 00 00	 call	 ___std_exception_destroy
  00015	83 c4 04	 add	 esp, 4
  00018	f6 45 08 01	 test	 BYTE PTR ___flags$[ebp], 1
  0001c	74 0b		 je	 SHORT $LN8@scalar
  0001e	6a 0c		 push	 12			; 0000000cH
  00020	56		 push	 esi
  00021	e8 00 00 00 00	 call	 ??3@YAXPAXI@Z		; operator delete
  00026	83 c4 08	 add	 esp, 8
$LN8@scalar:
  00029	8b c6		 mov	 eax, esi
  0002b	5e		 pop	 esi
  0002c	5d		 pop	 ebp
  0002d	c2 04 00	 ret	 4
??_Gexception@std@@UAEPAXI@Z ENDP			; std::exception::`scalar deleting destructor'
_TEXT	ENDS
; Function compile flags: /Ogtp
; File C:\Program Files\Microsoft Visual Studio\2022\Professional\VC\Tools\MSVC\14.44.35207\include\vcruntime_exception.h
;	COMDAT ?what@exception@std@@UBEPBDXZ
_TEXT	SEGMENT
?what@exception@std@@UBEPBDXZ PROC			; std::exception::what, COMDAT
; _this$ = ecx

; 96   :         return _Data._What ? _Data._What : "Unknown exception";

  00000	8b 49 04	 mov	 ecx, DWORD PTR [ecx+4]
  00003	b8 00 00 00 00	 mov	 eax, OFFSET ??_C@_0BC@EOODALEL@Unknown?5exception@
  00008	85 c9		 test	 ecx, ecx
  0000a	0f 45 c1	 cmovne	 eax, ecx

; 97   :     }

  0000d	c3		 ret	 0
?what@exception@std@@UBEPBDXZ ENDP			; std::exception::what
_TEXT	ENDS
; Function compile flags: /Ogtp
; File C:\Program Files\Microsoft Visual Studio\2022\Professional\VC\Tools\MSVC\14.44.35207\include\vcruntime_exception.h
;	COMDAT ??1exception@std@@UAE@XZ
_TEXT	SEGMENT
??1exception@std@@UAE@XZ PROC				; std::exception::~exception, COMDAT
; _this$ = ecx

; 91   :         __std_exception_destroy(&_Data);

  00000	8d 41 04	 lea	 eax, DWORD PTR [ecx+4]
  00003	c7 01 00 00 00
	00		 mov	 DWORD PTR [ecx], OFFSET ??_7exception@std@@6B@
  00009	50		 push	 eax
  0000a	e8 00 00 00 00	 call	 ___std_exception_destroy
  0000f	59		 pop	 ecx

; 92   :     }

  00010	c3		 ret	 0
??1exception@std@@UAE@XZ ENDP				; std::exception::~exception
_TEXT	ENDS
; Function compile flags: /Ogtp
; File C:\Program Files\Microsoft Visual Studio\2022\Professional\VC\Tools\MSVC\14.44.35207\include\vcruntime_exception.h
;	COMDAT ??0exception@std@@QAE@ABV01@@Z
_TEXT	SEGMENT
__Other$ = 8						; size = 4
??0exception@std@@QAE@ABV01@@Z PROC			; std::exception::exception, COMDAT
; _this$ = ecx

; 73   :     {

  00000	55		 push	 ebp
  00001	8b ec		 mov	 ebp, esp
  00003	56		 push	 esi
  00004	8b f1		 mov	 esi, ecx
  00006	0f 57 c0	 xorps	 xmm0, xmm0
  00009	8d 46 04	 lea	 eax, DWORD PTR [esi+4]

; 74   :         __std_exception_copy(&_Other._Data, &_Data);

  0000c	50		 push	 eax
  0000d	c7 06 00 00 00
	00		 mov	 DWORD PTR [esi], OFFSET ??_7exception@std@@6B@
  00013	66 0f d6 00	 movq	 QWORD PTR [eax], xmm0
  00017	8b 45 08	 mov	 eax, DWORD PTR __Other$[ebp]
  0001a	83 c0 04	 add	 eax, 4
  0001d	50		 push	 eax
  0001e	e8 00 00 00 00	 call	 ___std_exception_copy
  00023	83 c4 08	 add	 esp, 8

; 75   :     }

  00026	8b c6		 mov	 eax, esi
  00028	5e		 pop	 esi
  00029	5d		 pop	 ebp
  0002a	c2 04 00	 ret	 4
??0exception@std@@QAE@ABV01@@Z ENDP			; std::exception::exception
_TEXT	ENDS
; Function compile flags: /Ogtp
; File C:\Program Files\Microsoft Visual Studio\2022\Professional\VC\Tools\MSVC\14.44.35207\atlmfc\include\cstringt.h
; File C:\Program Files\Microsoft Visual Studio\2022\Professional\VC\Tools\MSVC\14.44.35207\atlmfc\include\afxstr.h
; File C:\Program Files\Microsoft Visual Studio\2022\Professional\VC\Tools\MSVC\14.44.35207\atlmfc\include\cstringt.h
; File C:\Program Files\Microsoft Visual Studio\2022\Professional\VC\Tools\MSVC\14.44.35207\atlmfc\include\afxstr.h
; File C:\Program Files\Microsoft Visual Studio\2022\Professional\VC\Tools\MSVC\14.44.35207\atlmfc\include\cstringt.h
; File C:\Program Files\Microsoft Visual Studio\2022\Professional\VC\Tools\MSVC\14.44.35207\atlmfc\include\atlcore.h
; File C:\Program Files\Microsoft Visual Studio\2022\Professional\VC\Tools\MSVC\14.44.35207\atlmfc\include\cstringt.h
; File C:\Program Files\Microsoft Visual Studio\2022\Professional\VC\Tools\MSVC\14.44.35207\atlmfc\include\atlsimpstr.h
; File C:\Program Files\Microsoft Visual Studio\2022\Professional\VC\Tools\MSVC\14.44.35207\atlmfc\include\cstringt.h
; File C:\Program Files\Microsoft Visual Studio\2022\Professional\VC\Tools\MSVC\14.44.35207\atlmfc\include\atlsimpstr.h
; File C:\Program Files\Microsoft Visual Studio\2022\Professional\VC\Tools\MSVC\14.44.35207\atlmfc\include\cstringt.h
; File C:\Program Files\Microsoft Visual Studio\2022\Professional\VC\Tools\MSVC\14.44.35207\atlmfc\include\atlsimpstr.h
; File C:\Program Files\Microsoft Visual Studio\2022\Professional\VC\Tools\MSVC\14.44.35207\atlmfc\include\cstringt.h
; File C:\Program Files\Microsoft Visual Studio\2022\Professional\VC\Tools\MSVC\14.44.35207\atlmfc\include\atlsimpstr.h
; File C:\Program Files\Microsoft Visual Studio\2022\Professional\VC\Tools\MSVC\14.44.35207\atlmfc\include\cstringt.h
;	COMDAT ?LoadStringA@?$CStringT@DV?$StrTraitMFC@DV?$ChTraitsCRT@D@ATL@@@@@ATL@@QAEHI@Z
_TEXT	SEGMENT
_this$1$ = -4						; size = 4
_nID$ = 8						; size = 4
_hResource$1$ = 8					; size = 4
?LoadStringA@?$CStringT@DV?$StrTraitMFC@DV?$ChTraitsCRT@D@ATL@@@@@ATL@@QAEHI@Z PROC ; ATL::CStringT<char,StrTraitMFC<char,ATL::ChTraitsCRT<char> > >::LoadStringA, COMDAT
; _this$ = ecx

; 2340 : 	{

  00000	55		 push	 ebp
  00001	8b ec		 mov	 ebp, esp
  00003	51		 push	 ecx
  00004	53		 push	 ebx
  00005	57		 push	 edi
; File C:\Program Files\Microsoft Visual Studio\2022\Professional\VC\Tools\MSVC\14.44.35207\atlmfc\include\afxstr.h

; 51   : 		return( AfxFindStringResourceHandle( nID ) );

  00006	8b 7d 08	 mov	 edi, DWORD PTR _nID$[ebp]
  00009	57		 push	 edi
; File C:\Program Files\Microsoft Visual Studio\2022\Professional\VC\Tools\MSVC\14.44.35207\atlmfc\include\cstringt.h

; 2340 : 	{

  0000a	89 4d fc	 mov	 DWORD PTR _this$1$[ebp], ecx
; File C:\Program Files\Microsoft Visual Studio\2022\Professional\VC\Tools\MSVC\14.44.35207\atlmfc\include\afxstr.h

; 51   : 		return( AfxFindStringResourceHandle( nID ) );

  0000d	e8 00 00 00 00	 call	 ?AfxFindStringResourceHandle@@YGPAUHINSTANCE__@@I@Z ; AfxFindStringResourceHandle
; File C:\Program Files\Microsoft Visual Studio\2022\Professional\VC\Tools\MSVC\14.44.35207\atlmfc\include\cstringt.h

; 2341 : 		HINSTANCE hInstance = StringTraits::FindStringResourceInstance( nID );

  00012	8b d8		 mov	 ebx, eax

; 2342 : 		if( hInstance == NULL )

  00014	85 db		 test	 ebx, ebx
  00016	75 08		 jne	 SHORT $LN2@LoadString

; 2348 : 	}

  00018	5f		 pop	 edi
  00019	5b		 pop	 ebx
  0001a	8b e5		 mov	 esp, ebp
  0001c	5d		 pop	 ebp
  0001d	c2 04 00	 ret	 4
$LN2@LoadString:
; File C:\Program Files\Microsoft Visual Studio\2022\Professional\VC\Tools\MSVC\14.44.35207\atlmfc\include\atlcore.h

; 380  : 	hResource = ::FindResourceW(hInstance, MAKEINTRESOURCEW( (((id>>4)+1) & static_cast<WORD>(~0)) ), (LPWSTR) RT_STRING);

  00020	8b c7		 mov	 eax, edi
  00022	c1 e8 04	 shr	 eax, 4
  00025	56		 push	 esi
  00026	40		 inc	 eax
  00027	6a 06		 push	 6
  00029	0f b7 c0	 movzx	 eax, ax
  0002c	50		 push	 eax
  0002d	53		 push	 ebx
  0002e	ff 15 00 00 00
	00		 call	 DWORD PTR __imp__FindResourceW@12
  00034	89 45 08	 mov	 DWORD PTR _hResource$1$[ebp], eax

; 381  : 	if( hResource == NULL )

  00037	85 c0		 test	 eax, eax
  00039	0f 84 cc 00 00
	00		 je	 $LN51@LoadString

; 338  : 	hGlobal = ::LoadResource( hInstance, hResource );

  0003f	50		 push	 eax
  00040	53		 push	 ebx
  00041	ff 15 00 00 00
	00		 call	 DWORD PTR __imp__LoadResource@8

; 339  : 	if( hGlobal == NULL )

  00047	85 c0		 test	 eax, eax
  00049	75 04		 jne	 SHORT $LN15@LoadString

; 340  : 	{
; 341  : 		return( NULL );

  0004b	33 f6		 xor	 esi, esi
  0004d	eb 43		 jmp	 SHORT $LN18@LoadString
$LN15@LoadString:

; 342  : 	}
; 343  : 
; 344  : 	pImage = (const ATLSTRINGRESOURCEIMAGE*)::LockResource( hGlobal );

  0004f	50		 push	 eax
  00050	ff 15 00 00 00
	00		 call	 DWORD PTR __imp__LockResource@4
  00056	8b f0		 mov	 esi, eax

; 345  : 	if( pImage == NULL )

  00058	85 f6		 test	 esi, esi
  0005a	74 36		 je	 SHORT $LN18@LoadString
$LN16@LoadString:

; 346  : 	{
; 347  : 		return( NULL );
; 348  : 	}
; 349  : 
; 350  : 	nResourceSize = ::SizeofResource( hInstance, hResource );

  0005c	ff 75 08	 push	 DWORD PTR _hResource$1$[ebp]
  0005f	53		 push	 ebx
  00060	ff 15 00 00 00
	00		 call	 DWORD PTR __imp__SizeofResource@8

; 351  : 	pImageEnd = (const ATLSTRINGRESOURCEIMAGE*)(LPBYTE( pImage )+nResourceSize);

  00066	8d 0c 06	 lea	 ecx, DWORD PTR [esi+eax]

; 352  : 	iIndex = id&0x000f;

  00069	83 e7 0f	 and	 edi, 15			; 0000000fH

; 353  : 
; 354  : 	while( (iIndex > 0) && (pImage < pImageEnd) )

  0006c	76 14		 jbe	 SHORT $LN14@LoadString
  0006e	66 90		 npad	 2
$LL13@LoadString:
  00070	3b f1		 cmp	 esi, ecx
  00072	73 12		 jae	 SHORT $LN50@LoadString

; 355  : 	{
; 356  : 		pImage = (const ATLSTRINGRESOURCEIMAGE*)(LPBYTE( pImage )+(sizeof( ATLSTRINGRESOURCEIMAGE )+(pImage->nLength*sizeof( WCHAR ))));

  00074	0f b7 06	 movzx	 eax, WORD PTR [esi]
  00077	8d 34 46	 lea	 esi, DWORD PTR [esi+eax*2]
  0007a	83 c6 02	 add	 esi, 2

; 357  : 		iIndex--;

  0007d	83 ef 01	 sub	 edi, 1
  00080	75 ee		 jne	 SHORT $LL13@LoadString
$LN14@LoadString:

; 358  : 	}
; 359  : 	if( pImage >= pImageEnd )

  00082	3b f1		 cmp	 esi, ecx
  00084	72 04		 jb	 SHORT $LN17@LoadString
$LN50@LoadString:

; 360  : 	{
; 361  : 		return( NULL );

  00086	33 f6		 xor	 esi, esi
  00088	eb 08		 jmp	 SHORT $LN18@LoadString
$LN17@LoadString:

; 362  : 	}
; 363  : 	if( pImage->nLength == 0 )

  0008a	33 c0		 xor	 eax, eax
  0008c	66 39 06	 cmp	 WORD PTR [esi], ax
  0008f	0f 44 f0	 cmove	 esi, eax
$LN18@LoadString:
; File C:\Program Files\Microsoft Visual Studio\2022\Professional\VC\Tools\MSVC\14.44.35207\atlmfc\include\cstringt.h

; 2356 : 		if( pImage == NULL )

  00092	85 f6		 test	 esi, esi
  00094	74 75		 je	 SHORT $LN51@LoadString

; 2359 : 		}
; 2360 : 
; 2361 : 		int nLength = StringTraits::GetBaseTypeLength( pImage->achString, pImage->nLength );

  00096	0f b7 06	 movzx	 eax, WORD PTR [esi]
  00099	8d 4e 02	 lea	 ecx, DWORD PTR [esi+2]

; 350  : 		return ::WideCharToMultiByte( _AtlGetConversionACP(), 0, pszSource, nLength, NULL, 0, NULL, NULL );

  0009c	6a 00		 push	 0
  0009e	6a 00		 push	 0
  000a0	6a 00		 push	 0
  000a2	6a 00		 push	 0
  000a4	50		 push	 eax
  000a5	51		 push	 ecx
  000a6	6a 00		 push	 0
  000a8	6a 03		 push	 3
  000aa	ff 15 00 00 00
	00		 call	 DWORD PTR __imp__WideCharToMultiByte@32

; 2361 : 		int nLength = StringTraits::GetBaseTypeLength( pImage->achString, pImage->nLength );

  000b0	8b f8		 mov	 edi, eax
; File C:\Program Files\Microsoft Visual Studio\2022\Professional\VC\Tools\MSVC\14.44.35207\atlmfc\include\atlsimpstr.h

; 808  : 		if (nLength < 0)

  000b2	85 ff		 test	 edi, edi
  000b4	78 60		 js	 SHORT $LN38@LoadString

; 804  : 		return( reinterpret_cast< CStringData* >( m_pszData )-1 );

  000b6	8b 5d fc	 mov	 ebx, DWORD PTR _this$1$[ebp]

; 812  : 		int nShared = 1-pOldData->nRefs;  // nShared < 0 means true, >= 0 means false

  000b9	ba 01 00 00 00	 mov	 edx, 1

; 804  : 		return( reinterpret_cast< CStringData* >( m_pszData )-1 );

  000be	8b 0b		 mov	 ecx, DWORD PTR [ebx]

; 812  : 		int nShared = 1-pOldData->nRefs;  // nShared < 0 means true, >= 0 means false

  000c0	2b 51 fc	 sub	 edx, DWORD PTR [ecx-4]

; 813  : 		int nTooShort = pOldData->nAllocLength-nLength;  // nTooShort < 0 means true, >= 0 means false

  000c3	8b 49 f8	 mov	 ecx, DWORD PTR [ecx-8]
  000c6	2b cf		 sub	 ecx, edi

; 814  : 		if( (nShared|nTooShort) < 0 )  // If either sign bit is set (i.e. either is less than zero), we need to copy data

  000c8	0b d1		 or	 edx, ecx
  000ca	7d 08		 jge	 SHORT $LN26@LoadString

; 815  : 		{
; 816  : 			PrepareWrite2( nLength );

  000cc	57		 push	 edi
  000cd	8b cb		 mov	 ecx, ebx
  000cf	e8 00 00 00 00	 call	 ?PrepareWrite2@?$CSimpleStringT@D$0A@@ATL@@AAEXH@Z ; ATL::CSimpleStringT<char,0>::PrepareWrite2
$LN26@LoadString:
; File C:\Program Files\Microsoft Visual Studio\2022\Professional\VC\Tools\MSVC\14.44.35207\atlmfc\include\cstringt.h

; 2363 : 		StringTraits::ConvertToBaseType( pszBuffer, nLength, pImage->achString, pImage->nLength );

  000d4	0f b7 06	 movzx	 eax, WORD PTR [esi]

; 372  : 		::WideCharToMultiByte( _AtlGetConversionACP(), 0, pszSrc, nSrcLength, pszDest, nDestLength, NULL, NULL );

  000d7	6a 00		 push	 0
  000d9	6a 00		 push	 0
  000db	57		 push	 edi
  000dc	ff 33		 push	 DWORD PTR [ebx]
  000de	50		 push	 eax
  000df	8d 46 02	 lea	 eax, DWORD PTR [esi+2]
  000e2	50		 push	 eax
  000e3	6a 00		 push	 0
  000e5	6a 03		 push	 3
  000e7	ff 15 00 00 00
	00		 call	 DWORD PTR __imp__WideCharToMultiByte@32
; File C:\Program Files\Microsoft Visual Studio\2022\Professional\VC\Tools\MSVC\14.44.35207\atlmfc\include\atlsimpstr.h

; 875  : 		if( nLength < 0 || nLength > GetData()->nAllocLength)

  000ed	8b 03		 mov	 eax, DWORD PTR [ebx]
  000ef	3b 78 f8	 cmp	 edi, DWORD PTR [eax-8]
  000f2	7f 22		 jg	 SHORT $LN38@LoadString

; 877  : 
; 878  : 		GetData()->nDataLength = nLength;

  000f4	89 78 f4	 mov	 DWORD PTR [eax-12], edi

; 879  : 		m_pszData[nLength] = 0;

  000f7	8b 03		 mov	 eax, DWORD PTR [ebx]
; File C:\Program Files\Microsoft Visual Studio\2022\Professional\VC\Tools\MSVC\14.44.35207\atlmfc\include\cstringt.h

; 2347 : 		return( LoadString( hInstance, nID ) );

  000f9	5e		 pop	 esi
; File C:\Program Files\Microsoft Visual Studio\2022\Professional\VC\Tools\MSVC\14.44.35207\atlmfc\include\atlsimpstr.h

; 879  : 		m_pszData[nLength] = 0;

  000fa	c6 04 07 00	 mov	 BYTE PTR [edi+eax], 0
; File C:\Program Files\Microsoft Visual Studio\2022\Professional\VC\Tools\MSVC\14.44.35207\atlmfc\include\cstringt.h

; 2366 : 		return( TRUE );

  000fe	b8 01 00 00 00	 mov	 eax, 1
  00103	5f		 pop	 edi

; 2348 : 	}

  00104	5b		 pop	 ebx
  00105	8b e5		 mov	 esp, ebp
  00107	5d		 pop	 ebp
  00108	c2 04 00	 ret	 4
$LN51@LoadString:

; 2347 : 		return( LoadString( hInstance, nID ) );

  0010b	5e		 pop	 esi
  0010c	5f		 pop	 edi

; 2358 : 			return( FALSE );

  0010d	33 c0		 xor	 eax, eax

; 2348 : 	}

  0010f	5b		 pop	 ebx
  00110	8b e5		 mov	 esp, ebp
  00112	5d		 pop	 ebp
  00113	c2 04 00	 ret	 4
$LN38@LoadString:
; File C:\Program Files\Microsoft Visual Studio\2022\Professional\VC\Tools\MSVC\14.44.35207\atlmfc\include\atlsimpstr.h

; 876  : 			AtlThrow(E_INVALIDARG);

  00116	68 57 00 07 80	 push	 -2147024809		; 80070057H
  0011b	e8 00 00 00 00	 call	 ?AtlThrowImpl@ATL@@YGXJ@Z ; ATL::AtlThrowImpl
$LN63@LoadString:
  00120	cc		 int	 3
?LoadStringA@?$CStringT@DV?$StrTraitMFC@DV?$ChTraitsCRT@D@ATL@@@@@ATL@@QAEHI@Z ENDP ; ATL::CStringT<char,StrTraitMFC<char,ATL::ChTraitsCRT<char> > >::LoadStringA
_TEXT	ENDS
; Function compile flags: /Ogtp
; File C:\Program Files\Microsoft Visual Studio\2022\Professional\VC\Tools\MSVC\14.44.35207\atlmfc\include\cstringt.h
; File C:\Program Files\Microsoft Visual Studio\2022\Professional\VC\Tools\MSVC\14.44.35207\atlmfc\include\atlsimpstr.h
; File C:\Program Files\Microsoft Visual Studio\2022\Professional\VC\Tools\MSVC\14.44.35207\atlmfc\include\cstringt.h
; File C:\Program Files\Microsoft Visual Studio\2022\Professional\VC\Tools\MSVC\14.44.35207\atlmfc\include\atlsimpstr.h
; File C:\Program Files\Microsoft Visual Studio\2022\Professional\VC\Tools\MSVC\14.44.35207\atlmfc\include\cstringt.h
; File C:\Program Files\Microsoft Visual Studio\2022\Professional\VC\Tools\MSVC\14.44.35207\atlmfc\include\atlsimpstr.h
; File C:\Program Files\Microsoft Visual Studio\2022\Professional\VC\Tools\MSVC\14.44.35207\atlmfc\include\cstringt.h
; File C:\Program Files\Microsoft Visual Studio\2022\Professional\VC\Tools\MSVC\14.44.35207\atlmfc\include\atlsimpstr.h
; File C:\Program Files\Microsoft Visual Studio\2022\Professional\VC\Tools\MSVC\14.44.35207\atlmfc\include\cstringt.h
; File C:\Program Files\Microsoft Visual Studio\2022\Professional\VC\Tools\MSVC\14.44.35207\atlmfc\include\atlsimpstr.h
; File C:\Program Files\Microsoft Visual Studio\2022\Professional\VC\Tools\MSVC\14.44.35207\atlmfc\include\cstringt.h
; File C:\Program Files\Microsoft Visual Studio\2022\Professional\VC\Tools\MSVC\14.44.35207\atlmfc\include\atlsimpstr.h
; File C:\Program Files\Microsoft Visual Studio\2022\Professional\VC\Tools\MSVC\14.44.35207\atlmfc\include\cstringt.h
; File C:\Program Files\Microsoft Visual Studio\2022\Professional\VC\Tools\MSVC\14.44.35207\atlmfc\include\atlsimpstr.h
; File C:\Program Files\Microsoft Visual Studio\2022\Professional\VC\Tools\MSVC\14.44.35207\atlmfc\include\afxstr.h
; File C:\Program Files\Microsoft Visual Studio\2022\Professional\VC\Tools\MSVC\14.44.35207\atlmfc\include\cstringt.h
; File C:\Program Files\Microsoft Visual Studio\2022\Professional\VC\Tools\MSVC\14.44.35207\atlmfc\include\atlsimpstr.h
; File C:\Program Files (x86)\Windows Kits\10\Include\10.0.26100.0\ucrt\corecrt_memcpy_s.h
; File C:\Program Files\Microsoft Visual Studio\2022\Professional\VC\Tools\MSVC\14.44.35207\atlmfc\include\cstringt.h
; File C:\Program Files (x86)\Windows Kits\10\Include\10.0.26100.0\ucrt\corecrt_memcpy_s.h
; File C:\Program Files\Microsoft Visual Studio\2022\Professional\VC\Tools\MSVC\14.44.35207\atlmfc\include\cstringt.h
; File C:\Program Files\Microsoft Visual Studio\2022\Professional\VC\Tools\MSVC\14.44.35207\atlmfc\include\atlsimpstr.h
; File C:\Program Files\Microsoft Visual Studio\2022\Professional\VC\Tools\MSVC\14.44.35207\atlmfc\include\cstringt.h
;	COMDAT ?Right@?$CStringT@DV?$StrTraitMFC@DV?$ChTraitsCRT@D@ATL@@@@@ATL@@QBE?AV12@H@Z
_TEXT	SEGMENT
___$ReturnUdt$ = 8					; size = 4
_nCount$ = 12						; size = 4
?Right@?$CStringT@DV?$StrTraitMFC@DV?$ChTraitsCRT@D@ATL@@@@@ATL@@QBE?AV12@H@Z PROC ; ATL::CStringT<char,StrTraitMFC<char,ATL::ChTraitsCRT<char> > >::Right, COMDAT
; _this$ = ecx

; 2139 : 	{

  00000	55		 push	 ebp
  00001	8b ec		 mov	 ebp, esp
  00003	51		 push	 ecx
; File C:\Program Files\Microsoft Visual Studio\2022\Professional\VC\Tools\MSVC\14.44.35207\atlmfc\include\atlsimpstr.h

; 523  : 		return( GetData()->nDataLength );

  00004	8b 45 0c	 mov	 eax, DWORD PTR _nCount$[ebp]
; File C:\Program Files\Microsoft Visual Studio\2022\Professional\VC\Tools\MSVC\14.44.35207\atlmfc\include\cstringt.h

; 2139 : 	{

  00007	53		 push	 ebx
  00008	56		 push	 esi
; File C:\Program Files\Microsoft Visual Studio\2022\Professional\VC\Tools\MSVC\14.44.35207\atlmfc\include\atlsimpstr.h

; 523  : 		return( GetData()->nDataLength );

  00009	33 f6		 xor	 esi, esi
  0000b	85 c0		 test	 eax, eax
; File C:\Program Files\Microsoft Visual Studio\2022\Professional\VC\Tools\MSVC\14.44.35207\atlmfc\include\cstringt.h

; 2139 : 	{

  0000d	57		 push	 edi
  0000e	8b f9		 mov	 edi, ecx
; File C:\Program Files\Microsoft Visual Studio\2022\Professional\VC\Tools\MSVC\14.44.35207\atlmfc\include\atlsimpstr.h

; 523  : 		return( GetData()->nDataLength );

  00010	0f 49 f0	 cmovns	 esi, eax
  00013	8b 07		 mov	 eax, DWORD PTR [edi]
; File C:\Program Files\Microsoft Visual Studio\2022\Professional\VC\Tools\MSVC\14.44.35207\atlmfc\include\cstringt.h

; 2144 : 		int nLength = this->GetLength();

  00015	8b 58 f4	 mov	 ebx, DWORD PTR [eax-12]
  00018	8d 48 f0	 lea	 ecx, DWORD PTR [eax-16]

; 2145 : 		if( nCount >= nLength )

  0001b	3b f3		 cmp	 esi, ebx
  0001d	7c 1a		 jl	 SHORT $LN3@Right
; File C:\Program Files\Microsoft Visual Studio\2022\Professional\VC\Tools\MSVC\14.44.35207\atlmfc\include\atlsimpstr.h

; 217  : 		CStringData* pNewData = CloneData( pSrcData );

  0001f	51		 push	 ecx
  00020	e8 00 00 00 00	 call	 ?CloneData@?$CSimpleStringT@D$0A@@ATL@@CAPAUCStringData@2@PAU32@@Z ; ATL::CSimpleStringT<char,0>::CloneData
  00025	83 c4 04	 add	 esp, 4

; 218  : 		Attach( pNewData );

  00028	8d 48 10	 lea	 ecx, DWORD PTR [eax+16]
  0002b	8b 45 08	 mov	 eax, DWORD PTR ___$ReturnUdt$[ebp]
  0002e	5f		 pop	 edi
; File C:\Program Files\Microsoft Visual Studio\2022\Professional\VC\Tools\MSVC\14.44.35207\atlmfc\include\cstringt.h

; 2151 : 	}

  0002f	5e		 pop	 esi
  00030	5b		 pop	 ebx
; File C:\Program Files\Microsoft Visual Studio\2022\Professional\VC\Tools\MSVC\14.44.35207\atlmfc\include\atlsimpstr.h

; 218  : 		Attach( pNewData );

  00031	89 08		 mov	 DWORD PTR [eax], ecx
; File C:\Program Files\Microsoft Visual Studio\2022\Professional\VC\Tools\MSVC\14.44.35207\atlmfc\include\cstringt.h

; 2151 : 	}

  00033	8b e5		 mov	 esp, ebp
  00035	5d		 pop	 ebp
  00036	c2 08 00	 ret	 8
$LN3@Right:
; File C:\Program Files\Microsoft Visual Studio\2022\Professional\VC\Tools\MSVC\14.44.35207\atlmfc\include\atlsimpstr.h

; 527  : 		IAtlStringMgr* pStringMgr = GetData()->pStringMgr;

  00039	8b 09		 mov	 ecx, DWORD PTR [ecx]

; 528  : 		return pStringMgr ? pStringMgr->Clone() : NULL;

  0003b	85 c9		 test	 ecx, ecx
  0003d	74 2e		 je	 SHORT $LN19@Right
  0003f	8b 01		 mov	 eax, DWORD PTR [ecx]
  00041	ff 50 10	 call	 DWORD PTR [eax+16]
  00044	8b c8		 mov	 ecx, eax
; File C:\Program Files\Microsoft Visual Studio\2022\Professional\VC\Tools\MSVC\14.44.35207\atlmfc\include\cstringt.h

; 1442 : 		if(pStringMgr) { return pStringMgr; }

  00046	85 c9		 test	 ecx, ecx
  00048	74 23		 je	 SHORT $LN19@Right
  0004a	8b 3f		 mov	 edi, DWORD PTR [edi]
  0004c	2b fe		 sub	 edi, esi
  0004e	03 fb		 add	 edi, ebx
$LN33@Right:
; File C:\Program Files\Microsoft Visual Studio\2022\Professional\VC\Tools\MSVC\14.44.35207\atlmfc\include\atlsimpstr.h

; 251  : 		if(pchSrc == NULL && nLength != 0)

  00050	85 ff		 test	 edi, edi
  00052	75 08		 jne	 SHORT $LN40@Right
  00054	85 f6		 test	 esi, esi
  00056	0f 85 8b 00 00
	00		 jne	 $LN45@Right
$LN40@Right:

; 252  : 			AtlThrow(E_INVALIDARG);
; 253  : 
; 254  : 		CStringData* pData = pStringMgr->Allocate( nLength, sizeof( XCHAR ) );

  0005c	8b 01		 mov	 eax, DWORD PTR [ecx]
  0005e	6a 01		 push	 1
  00060	56		 push	 esi
  00061	ff 10		 call	 DWORD PTR [eax]

; 255  : 		if( pData == NULL )

  00063	85 c0		 test	 eax, eax
  00065	0f 84 86 00 00
	00		 je	 $LN77@Right
  0006b	eb 1a		 jmp	 SHORT $LN41@Right
$LN19@Right:
; File C:\Program Files\Microsoft Visual Studio\2022\Professional\VC\Tools\MSVC\14.44.35207\atlmfc\include\afxstr.h

; 56   : 		return( AfxGetStringManager() );

  0006d	e8 00 00 00 00	 call	 ?AfxGetStringManager@@YGPAUIAtlStringMgr@ATL@@XZ ; AfxGetStringManager
; File C:\Program Files\Microsoft Visual Studio\2022\Professional\VC\Tools\MSVC\14.44.35207\atlmfc\include\cstringt.h

; 1445 : 		return pStringMgr->Clone();

  00072	8b c8		 mov	 ecx, eax
  00074	8b 10		 mov	 edx, DWORD PTR [eax]
  00076	ff 52 10	 call	 DWORD PTR [edx+16]

; 2150 : 		return( CStringT( this->GetString()+nLength-nCount, nCount, GetManager() ) );

  00079	8b 3f		 mov	 edi, DWORD PTR [edi]

; 1445 : 		return pStringMgr->Clone();

  0007b	8b c8		 mov	 ecx, eax

; 2150 : 		return( CStringT( this->GetString()+nLength-nCount, nCount, GetManager() ) );

  0007d	2b fe		 sub	 edi, esi
  0007f	03 fb		 add	 edi, ebx
; File C:\Program Files\Microsoft Visual Studio\2022\Professional\VC\Tools\MSVC\14.44.35207\atlmfc\include\atlsimpstr.h

; 249  : 		ATLENSURE( pStringMgr != NULL );

  00081	85 c9		 test	 ecx, ecx
  00083	74 71		 je	 SHORT $LN78@Right
  00085	eb c9		 jmp	 SHORT $LN33@Right
$LN41@Right:

; 258  : 		}
; 259  : 		Attach( pData );

  00087	8b 5d 08	 mov	 ebx, DWORD PTR ___$ReturnUdt$[ebp]
  0008a	83 c0 10	 add	 eax, 16			; 00000010H
  0008d	89 03		 mov	 DWORD PTR [ebx], eax

; 875  : 		if( nLength < 0 || nLength > GetData()->nAllocLength)

  0008f	85 f6		 test	 esi, esi
  00091	78 54		 js	 SHORT $LN45@Right
  00093	3b 70 f8	 cmp	 esi, DWORD PTR [eax-8]
  00096	7f 4f		 jg	 SHORT $LN45@Right

; 877  : 
; 878  : 		GetData()->nDataLength = nLength;

  00098	89 70 f4	 mov	 DWORD PTR [eax-12], esi

; 879  : 		m_pszData[nLength] = 0;

  0009b	c6 04 06 00	 mov	 BYTE PTR [esi+eax], 0
; File C:\Program Files (x86)\Windows Kits\10\Include\10.0.26100.0\ucrt\corecrt_memcpy_s.h

; 47   :         if (_SourceSize == 0)

  0009f	85 f6		 test	 esi, esi
  000a1	74 39		 je	 SHORT $LN57@Right

; 48   :         {
; 49   :             return 0;
; 50   :         }
; 51   : 
; 52   :         _CRT_MEMCPY_S_VALIDATE_RETURN_ERRCODE(_Destination != NULL, EINVAL);

  000a3	85 c0		 test	 eax, eax
  000a5	74 25		 je	 SHORT $LN75@Right

; 53   :         if (_Source == NULL || _DestinationSize < _SourceSize)

  000a7	56		 push	 esi
  000a8	85 ff		 test	 edi, edi
  000aa	74 15		 je	 SHORT $LN56@Right

; 56   : 
; 57   :             _CRT_MEMCPY_S_VALIDATE_RETURN_ERRCODE(_Source != NULL,                 EINVAL);
; 58   :             _CRT_MEMCPY_S_VALIDATE_RETURN_ERRCODE(_DestinationSize >= _SourceSize, ERANGE);
; 59   : 
; 60   :             // Unreachable, but required to suppress /analyze warnings:
; 61   :             return EINVAL;
; 62   :         }
; 63   :         memcpy(_Destination, _Source, _SourceSize);

  000ac	57		 push	 edi
  000ad	50		 push	 eax
  000ae	e8 00 00 00 00	 call	 _memcpy
  000b3	83 c4 0c	 add	 esp, 12			; 0000000cH
; File C:\Program Files\Microsoft Visual Studio\2022\Professional\VC\Tools\MSVC\14.44.35207\atlmfc\include\cstringt.h

; 2150 : 		return( CStringT( this->GetString()+nLength-nCount, nCount, GetManager() ) );

  000b6	8b c3		 mov	 eax, ebx
  000b8	5f		 pop	 edi

; 2151 : 	}

  000b9	5e		 pop	 esi
  000ba	5b		 pop	 ebx
  000bb	8b e5		 mov	 esp, ebp
  000bd	5d		 pop	 ebp
  000be	c2 08 00	 ret	 8
$LN56@Right:
; File C:\Program Files (x86)\Windows Kits\10\Include\10.0.26100.0\ucrt\corecrt_memcpy_s.h

; 55   :             memset(_Destination, 0, _DestinationSize);

  000c1	6a 00		 push	 0
  000c3	50		 push	 eax
  000c4	e8 00 00 00 00	 call	 _memset
  000c9	83 c4 0c	 add	 esp, 12			; 0000000cH
$LN75@Right:
; File C:\Program Files\Microsoft Visual Studio\2022\Professional\VC\Tools\MSVC\14.44.35207\atlmfc\include\cstringt.h

; 2150 : 		return( CStringT( this->GetString()+nLength-nCount, nCount, GetManager() ) );

  000cc	e8 00 00 00 00	 call	 __errno
  000d1	c7 00 16 00 00
	00		 mov	 DWORD PTR [eax], 22	; 00000016H
  000d7	e8 00 00 00 00	 call	 __invalid_parameter_noinfo
$LN57@Right:

; 2151 : 	}

  000dc	5f		 pop	 edi
  000dd	5e		 pop	 esi
  000de	8b c3		 mov	 eax, ebx
  000e0	5b		 pop	 ebx
  000e1	8b e5		 mov	 esp, ebp
  000e3	5d		 pop	 ebp
  000e4	c2 08 00	 ret	 8
$LN45@Right:
; File C:\Program Files\Microsoft Visual Studio\2022\Professional\VC\Tools\MSVC\14.44.35207\atlmfc\include\atlsimpstr.h

; 876  : 			AtlThrow(E_INVALIDARG);

  000e7	68 57 00 07 80	 push	 -2147024809		; 80070057H
  000ec	e8 00 00 00 00	 call	 ?AtlThrowImpl@ATL@@YGXJ@Z ; ATL::AtlThrowImpl
$LN77@Right:

; 257  : 			ThrowMemoryException();

  000f1	e8 00 00 00 00	 call	 ?ThrowMemoryException@?$CSimpleStringT@D$0A@@ATL@@KAXXZ ; ATL::CSimpleStringT<char,0>::ThrowMemoryException
$LN78@Right:

; 249  : 		ATLENSURE( pStringMgr != NULL );

  000f6	68 05 40 00 80	 push	 -2147467259		; 80004005H
  000fb	e8 00 00 00 00	 call	 ?AtlThrowImpl@ATL@@YGXJ@Z ; ATL::AtlThrowImpl
$LN74@Right:
  00100	cc		 int	 3
?Right@?$CStringT@DV?$StrTraitMFC@DV?$ChTraitsCRT@D@ATL@@@@@ATL@@QBE?AV12@H@Z ENDP ; ATL::CStringT<char,StrTraitMFC<char,ATL::ChTraitsCRT<char> > >::Right
_TEXT	ENDS
; Function compile flags: /Ogtp
; File C:\Program Files\Microsoft Visual Studio\2022\Professional\VC\Tools\MSVC\14.44.35207\atlmfc\include\cstringt.h
; File C:\Program Files\Microsoft Visual Studio\2022\Professional\VC\Tools\MSVC\14.44.35207\atlmfc\include\atlsimpstr.h
; File C:\Program Files\Microsoft Visual Studio\2022\Professional\VC\Tools\MSVC\14.44.35207\atlmfc\include\cstringt.h
; File C:\Program Files\Microsoft Visual Studio\2022\Professional\VC\Tools\MSVC\14.44.35207\atlmfc\include\atlsimpstr.h
; File C:\Program Files\Microsoft Visual Studio\2022\Professional\VC\Tools\MSVC\14.44.35207\atlmfc\include\cstringt.h
; File C:\Program Files\Microsoft Visual Studio\2022\Professional\VC\Tools\MSVC\14.44.35207\atlmfc\include\atlsimpstr.h
; File C:\Program Files\Microsoft Visual Studio\2022\Professional\VC\Tools\MSVC\14.44.35207\atlmfc\include\cstringt.h
;	COMDAT ??4?$CStringT@DV?$StrTraitMFC@DV?$ChTraitsCRT@D@ATL@@@@@ATL@@QAEAAV01@ABV01@@Z
_TEXT	SEGMENT
_strSrc$ = 8						; size = 4
_pNewData$1$ = 8					; size = 4
??4?$CStringT@DV?$StrTraitMFC@DV?$ChTraitsCRT@D@ATL@@@@@ATL@@QAEAAV01@ABV01@@Z PROC ; ATL::CStringT<char,StrTraitMFC<char,ATL::ChTraitsCRT<char> > >::operator=, COMDAT
; _this$ = ecx

; 1307 : 	{

  00000	55		 push	 ebp
  00001	8b ec		 mov	 ebp, esp
; File C:\Program Files\Microsoft Visual Studio\2022\Professional\VC\Tools\MSVC\14.44.35207\atlmfc\include\atlsimpstr.h

; 804  : 		return( reinterpret_cast< CStringData* >( m_pszData )-1 );

  00003	8b 45 08	 mov	 eax, DWORD PTR _strSrc$[ebp]
; File C:\Program Files\Microsoft Visual Studio\2022\Professional\VC\Tools\MSVC\14.44.35207\atlmfc\include\cstringt.h

; 1307 : 	{

  00006	56		 push	 esi
  00007	8b f1		 mov	 esi, ecx
  00009	57		 push	 edi
; File C:\Program Files\Microsoft Visual Studio\2022\Professional\VC\Tools\MSVC\14.44.35207\atlmfc\include\atlsimpstr.h

; 804  : 		return( reinterpret_cast< CStringData* >( m_pszData )-1 );

  0000a	8b 08		 mov	 ecx, DWORD PTR [eax]
  0000c	8b 3e		 mov	 edi, DWORD PTR [esi]
  0000e	83 ef 10	 sub	 edi, 16			; 00000010H
  00011	8d 51 f0	 lea	 edx, DWORD PTR [ecx-16]

; 278  : 		if( pSrcData != pOldData)

  00014	3b d7		 cmp	 edx, edi
  00016	74 4d		 je	 SHORT $LN22@operator

; 73   : 		return nRefs < 0;

  00018	83 7f 0c 00	 cmp	 DWORD PTR [edi+12], 0
  0001c	53		 push	 ebx
  0001d	8d 5f 0c	 lea	 ebx, DWORD PTR [edi+12]

; 280  : 			if( pOldData->IsLocked() || pSrcData->pStringMgr != pOldData->pStringMgr )

  00020	7c 37		 jl	 SHORT $LN7@operator
  00022	8b 02		 mov	 eax, DWORD PTR [edx]
  00024	3b 07		 cmp	 eax, DWORD PTR [edi]
  00026	75 31		 jne	 SHORT $LN7@operator

; 283  : 			}
; 284  : 			else
; 285  : 			{
; 286  : 				CStringData* pNewData = CloneData( pSrcData );

  00028	52		 push	 edx
  00029	e8 00 00 00 00	 call	 ?CloneData@?$CSimpleStringT@D$0A@@ATL@@CAPAUCStringData@2@PAU32@@Z ; ATL::CSimpleStringT<char,0>::CloneData
  0002e	83 c4 04	 add	 esp, 4
  00031	89 45 08	 mov	 DWORD PTR _pNewData$1$[ebp], eax

; 92   : 		if( _InterlockedDecrement( &nRefs ) <= 0 )

  00034	83 c9 ff	 or	 ecx, -1
  00037	f0 0f c1 0b	 lock	  xadd	 DWORD PTR [ebx], ecx
  0003b	49		 dec	 ecx
  0003c	85 c9		 test	 ecx, ecx
  0003e	7f 0b		 jg	 SHORT $LN20@operator

; 93   : 		{
; 94   : 			pStringMgr->Free( this );

  00040	8b 0f		 mov	 ecx, DWORD PTR [edi]
  00042	57		 push	 edi
  00043	8b 11		 mov	 edx, DWORD PTR [ecx]
  00045	ff 52 04	 call	 DWORD PTR [edx+4]
  00048	8b 45 08	 mov	 eax, DWORD PTR _pNewData$1$[ebp]
$LN20@operator:

; 288  : 				Attach( pNewData );

  0004b	83 c0 10	 add	 eax, 16			; 00000010H
  0004e	5b		 pop	 ebx
  0004f	89 06		 mov	 DWORD PTR [esi], eax
; File C:\Program Files\Microsoft Visual Studio\2022\Professional\VC\Tools\MSVC\14.44.35207\atlmfc\include\cstringt.h

; 1311 : 	}

  00051	8b c6		 mov	 eax, esi
  00053	5f		 pop	 edi
  00054	5e		 pop	 esi
  00055	5d		 pop	 ebp
  00056	c2 04 00	 ret	 4
$LN7@operator:
; File C:\Program Files\Microsoft Visual Studio\2022\Professional\VC\Tools\MSVC\14.44.35207\atlmfc\include\atlsimpstr.h

; 282  : 				SetString( strSrc.GetString(), strSrc.GetLength() );

  00059	ff 71 f4	 push	 DWORD PTR [ecx-12]
  0005c	51		 push	 ecx
  0005d	8b ce		 mov	 ecx, esi
  0005f	e8 00 00 00 00	 call	 ?SetString@?$CSimpleStringT@D$0A@@ATL@@QAEXPBDH@Z ; ATL::CSimpleStringT<char,0>::SetString
  00064	5b		 pop	 ebx
$LN22@operator:
  00065	5f		 pop	 edi
; File C:\Program Files\Microsoft Visual Studio\2022\Professional\VC\Tools\MSVC\14.44.35207\atlmfc\include\cstringt.h

; 1311 : 	}

  00066	8b c6		 mov	 eax, esi
  00068	5e		 pop	 esi
  00069	5d		 pop	 ebp
  0006a	c2 04 00	 ret	 4
??4?$CStringT@DV?$StrTraitMFC@DV?$ChTraitsCRT@D@ATL@@@@@ATL@@QAEAAV01@ABV01@@Z ENDP ; ATL::CStringT<char,StrTraitMFC<char,ATL::ChTraitsCRT<char> > >::operator=
_TEXT	ENDS
; Function compile flags: /Ogtp
; File C:\Program Files\Microsoft Visual Studio\2022\Professional\VC\Tools\MSVC\14.44.35207\atlmfc\include\cstringt.h
; File C:\Program Files\Microsoft Visual Studio\2022\Professional\VC\Tools\MSVC\14.44.35207\atlmfc\include\atlsimpstr.h
; File C:\Program Files\Microsoft Visual Studio\2022\Professional\VC\Tools\MSVC\14.44.35207\atlmfc\include\cstringt.h
;	COMDAT ??1?$CStringT@DV?$StrTraitMFC@DV?$ChTraitsCRT@D@ATL@@@@@ATL@@QAE@XZ
_TEXT	SEGMENT
??1?$CStringT@DV?$StrTraitMFC@DV?$ChTraitsCRT@D@ATL@@@@@ATL@@QAE@XZ PROC ; ATL::CStringT<char,StrTraitMFC<char,ATL::ChTraitsCRT<char> > >::~CStringT<char,StrTraitMFC<char,ATL::ChTraitsCRT<char> > >, COMDAT
; _this$ = ecx
; File C:\Program Files\Microsoft Visual Studio\2022\Professional\VC\Tools\MSVC\14.44.35207\atlmfc\include\atlsimpstr.h

; 804  : 		return( reinterpret_cast< CStringData* >( m_pszData )-1 );

  00000	8b 11		 mov	 edx, DWORD PTR [ecx]

; 92   : 		if( _InterlockedDecrement( &nRefs ) <= 0 )

  00002	83 c8 ff	 or	 eax, -1

; 804  : 		return( reinterpret_cast< CStringData* >( m_pszData )-1 );

  00005	83 ea 10	 sub	 edx, 16			; 00000010H

; 92   : 		if( _InterlockedDecrement( &nRefs ) <= 0 )

  00008	f0 0f c1 42 0c	 lock	  xadd	 DWORD PTR [edx+12], eax
  0000d	48		 dec	 eax
  0000e	85 c0		 test	 eax, eax
  00010	7f 08		 jg	 SHORT $LN8@CStringT

; 93   : 		{
; 94   : 			pStringMgr->Free( this );

  00012	8b 0a		 mov	 ecx, DWORD PTR [edx]
  00014	52		 push	 edx
  00015	8b 01		 mov	 eax, DWORD PTR [ecx]
  00017	ff 50 04	 call	 DWORD PTR [eax+4]
$LN8@CStringT:
; File C:\Program Files\Microsoft Visual Studio\2022\Professional\VC\Tools\MSVC\14.44.35207\atlmfc\include\cstringt.h

; 1303 : 	}

  0001a	c3		 ret	 0
??1?$CStringT@DV?$StrTraitMFC@DV?$ChTraitsCRT@D@ATL@@@@@ATL@@QAE@XZ ENDP ; ATL::CStringT<char,StrTraitMFC<char,ATL::ChTraitsCRT<char> > >::~CStringT<char,StrTraitMFC<char,ATL::ChTraitsCRT<char> > >
_TEXT	ENDS
; Function compile flags: /Ogtp
; File C:\Program Files\Microsoft Visual Studio\2022\Professional\VC\Tools\MSVC\14.44.35207\atlmfc\include\atlsimpstr.h
; File C:\Program Files (x86)\Windows Kits\10\Include\10.0.26100.0\ucrt\corecrt_memcpy_s.h
; File C:\Program Files\Microsoft Visual Studio\2022\Professional\VC\Tools\MSVC\14.44.35207\atlmfc\include\atlsimpstr.h
; File C:\Program Files (x86)\Windows Kits\10\Include\10.0.26100.0\ucrt\corecrt_memcpy_s.h
; File C:\Program Files\Microsoft Visual Studio\2022\Professional\VC\Tools\MSVC\14.44.35207\atlmfc\include\atlsimpstr.h
; File C:\Program Files (x86)\Windows Kits\10\Include\10.0.26100.0\ucrt\corecrt_memcpy_s.h
; File C:\Program Files\Microsoft Visual Studio\2022\Professional\VC\Tools\MSVC\14.44.35207\atlmfc\include\atlsimpstr.h
;	COMDAT ?CloneData@?$CSimpleStringT@D$0A@@ATL@@CAPAUCStringData@2@PAU32@@Z
_TEXT	SEGMENT
_pData$ = 8						; size = 4
__Source$1$ = 8						; size = 4
?CloneData@?$CSimpleStringT@D$0A@@ATL@@CAPAUCStringData@2@PAU32@@Z PROC ; ATL::CSimpleStringT<char,0>::CloneData, COMDAT

; 883  : 	{

  00000	55		 push	 ebp
  00001	8b ec		 mov	 ebp, esp
  00003	53		 push	 ebx
  00004	56		 push	 esi

; 884  : 		CStringData* pNewData = NULL;
; 885  : 
; 886  : 		IAtlStringMgr* pNewStringMgr = pData->pStringMgr->Clone();

  00005	8b 75 08	 mov	 esi, DWORD PTR _pData$[ebp]
  00008	8b 0e		 mov	 ecx, DWORD PTR [esi]
  0000a	8b 01		 mov	 eax, DWORD PTR [ecx]
  0000c	ff 50 10	 call	 DWORD PTR [eax+16]

; 73   : 		return nRefs < 0;

  0000f	83 7e 0c 00	 cmp	 DWORD PTR [esi+12], 0

; 884  : 		CStringData* pNewData = NULL;
; 885  : 
; 886  : 		IAtlStringMgr* pNewStringMgr = pData->pStringMgr->Clone();

  00013	8b c8		 mov	 ecx, eax

; 73   : 		return nRefs < 0;

  00015	8d 46 0c	 lea	 eax, DWORD PTR [esi+12]

; 887  : 		if( !pData->IsLocked() && (pNewStringMgr == pData->pStringMgr) )

  00018	7c 0f		 jl	 SHORT $LN2@CloneData
  0001a	3b 0e		 cmp	 ecx, DWORD PTR [esi]
  0001c	75 0b		 jne	 SHORT $LN2@CloneData

; 888  : 		{
; 889  : 			pNewData = pData;

  0001e	8b de		 mov	 ebx, esi

; 69   : 		_InterlockedIncrement(&nRefs);

  00020	f0 ff 00	 lock	  inc	 DWORD PTR [eax]

; 904  : 		return( pNewData );

  00023	8b c3		 mov	 eax, ebx

; 905  : 	}

  00025	5e		 pop	 esi
  00026	5b		 pop	 ebx
  00027	5d		 pop	 ebp
  00028	c3		 ret	 0
$LN2@CloneData:

; 890  : 			pNewData->AddRef();
; 891  : 		}
; 892  : 		else
; 893  : 		{
; 894  : 			pNewData = pNewStringMgr->Allocate( pData->nDataLength, sizeof( XCHAR ) );

  00029	8b 01		 mov	 eax, DWORD PTR [ecx]
  0002b	6a 01		 push	 1
  0002d	ff 76 04	 push	 DWORD PTR [esi+4]
  00030	ff 10		 call	 DWORD PTR [eax]
  00032	8b d8		 mov	 ebx, eax

; 895  : 			if( pNewData == NULL )

  00034	85 db		 test	 ebx, ebx
  00036	74 7d		 je	 SHORT $LN32@CloneData

; 898  : 			}
; 899  : 			pNewData->nDataLength = pData->nDataLength;

  00038	8b 46 04	 mov	 eax, DWORD PTR [esi+4]

; 900  : 			memcpy_s( PXSTR( pNewData->data() ), (pNewData->nDataLength+1) * sizeof( XCHAR ),

  0003b	8d 4e 10	 lea	 ecx, DWORD PTR [esi+16]
  0003e	57		 push	 edi
  0003f	89 43 04	 mov	 DWORD PTR [ebx+4], eax
  00042	8b 7e 04	 mov	 edi, DWORD PTR [esi+4]
  00045	89 4d 08	 mov	 DWORD PTR __Source$1$[ebp], ecx
  00048	8d 70 01	 lea	 esi, DWORD PTR [eax+1]
  0004b	8d 43 10	 lea	 eax, DWORD PTR [ebx+16]
  0004e	83 c7 01	 add	 edi, 1
; File C:\Program Files (x86)\Windows Kits\10\Include\10.0.26100.0\ucrt\corecrt_memcpy_s.h

; 47   :         if (_SourceSize == 0)

  00051	74 5b		 je	 SHORT $LN27@CloneData

; 48   :         {
; 49   :             return 0;
; 50   :         }
; 51   : 
; 52   :         _CRT_MEMCPY_S_VALIDATE_RETURN_ERRCODE(_Destination != NULL, EINVAL);

  00053	85 c0		 test	 eax, eax
  00055	75 17		 jne	 SHORT $LN12@CloneData
$LN30@CloneData:

; 58   :             _CRT_MEMCPY_S_VALIDATE_RETURN_ERRCODE(_DestinationSize >= _SourceSize, ERANGE);

  00057	e8 00 00 00 00	 call	 __errno
  0005c	c7 00 16 00 00
	00		 mov	 DWORD PTR [eax], 22	; 00000016H
  00062	e8 00 00 00 00	 call	 __invalid_parameter_noinfo
  00067	5f		 pop	 edi
; File C:\Program Files\Microsoft Visual Studio\2022\Professional\VC\Tools\MSVC\14.44.35207\atlmfc\include\atlsimpstr.h

; 904  : 		return( pNewData );

  00068	8b c3		 mov	 eax, ebx

; 905  : 	}

  0006a	5e		 pop	 esi
  0006b	5b		 pop	 ebx
  0006c	5d		 pop	 ebp
  0006d	c3		 ret	 0
$LN12@CloneData:
; File C:\Program Files (x86)\Windows Kits\10\Include\10.0.26100.0\ucrt\corecrt_memcpy_s.h

; 53   :         if (_Source == NULL || _DestinationSize < _SourceSize)

  0006e	85 c9		 test	 ecx, ecx
  00070	74 16		 je	 SHORT $LN14@CloneData
  00072	3b f7		 cmp	 esi, edi
  00074	72 12		 jb	 SHORT $LN14@CloneData

; 59   : 
; 60   :             // Unreachable, but required to suppress /analyze warnings:
; 61   :             return EINVAL;
; 62   :         }
; 63   :         memcpy(_Destination, _Source, _SourceSize);

  00076	57		 push	 edi
  00077	51		 push	 ecx
  00078	50		 push	 eax
  00079	e8 00 00 00 00	 call	 _memcpy
  0007e	83 c4 0c	 add	 esp, 12			; 0000000cH
; File C:\Program Files\Microsoft Visual Studio\2022\Professional\VC\Tools\MSVC\14.44.35207\atlmfc\include\atlsimpstr.h

; 904  : 		return( pNewData );

  00081	8b c3		 mov	 eax, ebx
  00083	5f		 pop	 edi

; 905  : 	}

  00084	5e		 pop	 esi
  00085	5b		 pop	 ebx
  00086	5d		 pop	 ebp
  00087	c3		 ret	 0
$LN14@CloneData:
; File C:\Program Files (x86)\Windows Kits\10\Include\10.0.26100.0\ucrt\corecrt_memcpy_s.h

; 55   :             memset(_Destination, 0, _DestinationSize);

  00088	56		 push	 esi
  00089	6a 00		 push	 0
  0008b	50		 push	 eax
  0008c	e8 00 00 00 00	 call	 _memset
  00091	83 c4 0c	 add	 esp, 12			; 0000000cH

; 56   : 
; 57   :             _CRT_MEMCPY_S_VALIDATE_RETURN_ERRCODE(_Source != NULL,                 EINVAL);

  00094	83 7d 08 00	 cmp	 DWORD PTR __Source$1$[ebp], 0
  00098	74 bd		 je	 SHORT $LN30@CloneData

; 58   :             _CRT_MEMCPY_S_VALIDATE_RETURN_ERRCODE(_DestinationSize >= _SourceSize, ERANGE);

  0009a	3b f7		 cmp	 esi, edi
  0009c	73 10		 jae	 SHORT $LN27@CloneData
  0009e	e8 00 00 00 00	 call	 __errno
  000a3	c7 00 22 00 00
	00		 mov	 DWORD PTR [eax], 34	; 00000022H
  000a9	e8 00 00 00 00	 call	 __invalid_parameter_noinfo
$LN27@CloneData:
  000ae	5f		 pop	 edi
; File C:\Program Files\Microsoft Visual Studio\2022\Professional\VC\Tools\MSVC\14.44.35207\atlmfc\include\atlsimpstr.h

; 905  : 	}

  000af	5e		 pop	 esi
  000b0	8b c3		 mov	 eax, ebx
  000b2	5b		 pop	 ebx
  000b3	5d		 pop	 ebp
  000b4	c3		 ret	 0
$LN32@CloneData:

; 896  : 			{
; 897  : 				ThrowMemoryException();

  000b5	e8 00 00 00 00	 call	 ?ThrowMemoryException@?$CSimpleStringT@D$0A@@ATL@@KAXXZ ; ATL::CSimpleStringT<char,0>::ThrowMemoryException
$LN28@CloneData:
  000ba	cc		 int	 3
?CloneData@?$CSimpleStringT@D$0A@@ATL@@CAPAUCStringData@2@PAU32@@Z ENDP ; ATL::CSimpleStringT<char,0>::CloneData
_TEXT	ENDS
; Function compile flags: /Ogtp
; File C:\Program Files\Microsoft Visual Studio\2022\Professional\VC\Tools\MSVC\14.44.35207\atlmfc\include\atlsimpstr.h
;	COMDAT ?Reallocate@?$CSimpleStringT@D$0A@@ATL@@AAEXH@Z
_TEXT	SEGMENT
_nLength$ = 8						; size = 4
?Reallocate@?$CSimpleStringT@D$0A@@ATL@@AAEXH@Z PROC	; ATL::CSimpleStringT<char,0>::Reallocate, COMDAT
; _this$ = ecx

; 853  : 	{

  00000	55		 push	 ebp
  00001	8b ec		 mov	 ebp, esp
  00003	56		 push	 esi

; 854  : 		CStringData* pOldData = GetData();
; 855  : 		ATLASSERT( pOldData->nAllocLength < nLength );
; 856  : 		IAtlStringMgr* pStringMgr = pOldData->pStringMgr;
; 857  : 		if ( pOldData->nAllocLength >= nLength || nLength <= 0)

  00004	8b 75 08	 mov	 esi, DWORD PTR _nLength$[ebp]
  00007	57		 push	 edi
  00008	8b f9		 mov	 edi, ecx

; 804  : 		return( reinterpret_cast< CStringData* >( m_pszData )-1 );

  0000a	8b 17		 mov	 edx, DWORD PTR [edi]
  0000c	83 ea 10	 sub	 edx, 16			; 00000010H

; 854  : 		CStringData* pOldData = GetData();
; 855  : 		ATLASSERT( pOldData->nAllocLength < nLength );
; 856  : 		IAtlStringMgr* pStringMgr = pOldData->pStringMgr;
; 857  : 		if ( pOldData->nAllocLength >= nLength || nLength <= 0)

  0000f	39 72 08	 cmp	 DWORD PTR [edx+8], esi
  00012	7d 1e		 jge	 SHORT $LN3@Reallocate
  00014	85 f6		 test	 esi, esi
  00016	7e 1a		 jle	 SHORT $LN3@Reallocate

; 860  : 			return;
; 861  : 		}
; 862  : 		CStringData* pNewData = pStringMgr->Reallocate( pOldData, nLength, sizeof( XCHAR ) );

  00018	8b 0a		 mov	 ecx, DWORD PTR [edx]
  0001a	6a 01		 push	 1
  0001c	56		 push	 esi
  0001d	52		 push	 edx
  0001e	8b 01		 mov	 eax, DWORD PTR [ecx]
  00020	ff 50 08	 call	 DWORD PTR [eax+8]

; 863  : 		if( pNewData == NULL )

  00023	85 c0		 test	 eax, eax
  00025	74 0b		 je	 SHORT $LN3@Reallocate

; 864  : 		{
; 865  : 			ThrowMemoryException();
; 866  : 		}
; 867  : 		Attach( pNewData );

  00027	83 c0 10	 add	 eax, 16			; 00000010H
  0002a	89 07		 mov	 DWORD PTR [edi], eax
  0002c	5f		 pop	 edi
  0002d	5e		 pop	 esi

; 868  : 	}

  0002e	5d		 pop	 ebp
  0002f	c2 04 00	 ret	 4
$LN3@Reallocate:

; 858  : 		{
; 859  : 			ThrowMemoryException();

  00032	e8 00 00 00 00	 call	 ?ThrowMemoryException@?$CSimpleStringT@D$0A@@ATL@@KAXXZ ; ATL::CSimpleStringT<char,0>::ThrowMemoryException
$LN12@Reallocate:
  00037	cc		 int	 3
?Reallocate@?$CSimpleStringT@D$0A@@ATL@@AAEXH@Z ENDP	; ATL::CSimpleStringT<char,0>::Reallocate
_TEXT	ENDS
; Function compile flags: /Ogtp
; File C:\Program Files\Microsoft Visual Studio\2022\Professional\VC\Tools\MSVC\14.44.35207\atlmfc\include\atlsimpstr.h
;	COMDAT ?PrepareWrite2@?$CSimpleStringT@D$0A@@ATL@@AAEXH@Z
_TEXT	SEGMENT
_nLength$ = 8						; size = 4
?PrepareWrite2@?$CSimpleStringT@D$0A@@ATL@@AAEXH@Z PROC	; ATL::CSimpleStringT<char,0>::PrepareWrite2, COMDAT
; _this$ = ecx

; 822  : 	{

  00000	55		 push	 ebp
  00001	8b ec		 mov	 ebp, esp
  00003	56		 push	 esi

; 823  : 		CStringData* pOldData = GetData();
; 824  : 		if( pOldData->nDataLength > nLength )

  00004	8b 75 08	 mov	 esi, DWORD PTR _nLength$[ebp]
  00007	57		 push	 edi
  00008	8b f9		 mov	 edi, ecx

; 804  : 		return( reinterpret_cast< CStringData* >( m_pszData )-1 );

  0000a	8b 0f		 mov	 ecx, DWORD PTR [edi]

; 823  : 		CStringData* pOldData = GetData();
; 824  : 		if( pOldData->nDataLength > nLength )

  0000c	39 71 f4	 cmp	 DWORD PTR [ecx-12], esi
  0000f	0f 4f 71 f4	 cmovg	 esi, DWORD PTR [ecx-12]

; 77   : 		return( nRefs > 1 );

  00013	83 79 fc 01	 cmp	 DWORD PTR [ecx-4], 1

; 825  : 		{
; 826  : 			nLength = pOldData->nDataLength;
; 827  : 		}
; 828  : 		if( pOldData->IsShared() )

  00017	7e 0e		 jle	 SHORT $LN3@PrepareWri

; 829  : 		{
; 830  : 			Fork( nLength );

  00019	56		 push	 esi
  0001a	8b cf		 mov	 ecx, edi
  0001c	e8 00 00 00 00	 call	 ?Fork@?$CSimpleStringT@D$0A@@ATL@@AAEXH@Z ; ATL::CSimpleStringT<char,0>::Fork
  00021	5f		 pop	 edi

; 850  : 		}
; 851  : 	}

  00022	5e		 pop	 esi
  00023	5d		 pop	 ebp
  00024	c2 04 00	 ret	 4
$LN3@PrepareWri:

; 831  : 		}
; 832  : 		else if( pOldData->nAllocLength < nLength )

  00027	8b 49 f8	 mov	 ecx, DWORD PTR [ecx-8]
  0002a	3b ce		 cmp	 ecx, esi
  0002c	7d 25		 jge	 SHORT $LN5@PrepareWri

; 833  : 		{
; 834  : 			// Grow exponentially, until we hit 1G, then by 1M thereafter.
; 835  : 			int nNewLength = pOldData->nAllocLength;
; 836  : 			if( nNewLength > 1024 * 1024 * 1024 )

  0002e	81 f9 00 00 00
	40		 cmp	 ecx, 1073741824		; 40000000H
  00034	7e 07		 jle	 SHORT $LN6@PrepareWri

; 837  : 			{
; 838  : 				nNewLength += 1024 * 1024;

  00036	b8 00 00 10 00	 mov	 eax, 1048576		; 00100000H

; 839  : 			}

  0003b	eb 07		 jmp	 SHORT $LN7@PrepareWri
$LN6@PrepareWri:

; 840  : 			else
; 841  : 			{
; 842  : 				// Exponential growth factor is 1.5.
; 843  : 				nNewLength = nNewLength + nNewLength / 2;

  0003d	8b c1		 mov	 eax, ecx
  0003f	99		 cdq
  00040	2b c2		 sub	 eax, edx
  00042	d1 f8		 sar	 eax, 1
$LN7@PrepareWri:

; 844  : 			}
; 845  : 			if( nNewLength < nLength )

  00044	03 c1		 add	 eax, ecx

; 846  : 			{
; 847  : 				nNewLength = nLength;
; 848  : 			}
; 849  : 			Reallocate( nNewLength );

  00046	8b cf		 mov	 ecx, edi
  00048	3b c6		 cmp	 eax, esi
  0004a	0f 4d f0	 cmovge	 esi, eax
  0004d	56		 push	 esi
  0004e	e8 00 00 00 00	 call	 ?Reallocate@?$CSimpleStringT@D$0A@@ATL@@AAEXH@Z ; ATL::CSimpleStringT<char,0>::Reallocate
$LN5@PrepareWri:

; 850  : 		}
; 851  : 	}

  00053	5f		 pop	 edi
  00054	5e		 pop	 esi
  00055	5d		 pop	 ebp
  00056	c2 04 00	 ret	 4
?PrepareWrite2@?$CSimpleStringT@D$0A@@ATL@@AAEXH@Z ENDP	; ATL::CSimpleStringT<char,0>::PrepareWrite2
_TEXT	ENDS
; Function compile flags: /Ogtp
; File C:\Program Files\Microsoft Visual Studio\2022\Professional\VC\Tools\MSVC\14.44.35207\atlmfc\include\atlsimpstr.h
; File C:\Program Files (x86)\Windows Kits\10\Include\10.0.26100.0\ucrt\corecrt_memcpy_s.h
; File C:\Program Files\Microsoft Visual Studio\2022\Professional\VC\Tools\MSVC\14.44.35207\atlmfc\include\atlsimpstr.h
;	COMDAT ?Fork@?$CSimpleStringT@D$0A@@ATL@@AAEXH@Z
_TEXT	SEGMENT
_this$1$ = -12						; size = 4
_nOldLength$1$ = -8					; size = 4
__Source$1$ = -4					; size = 4
_nLength$ = 8						; size = 4
_pNewData$1$ = 8					; size = 4
?Fork@?$CSimpleStringT@D$0A@@ATL@@AAEXH@Z PROC		; ATL::CSimpleStringT<char,0>::Fork, COMDAT
; _this$ = ecx

; 787  : 	{

  00000	55		 push	 ebp
  00001	8b ec		 mov	 ebp, esp
  00003	83 ec 0c	 sub	 esp, 12			; 0000000cH
  00006	8b c1		 mov	 eax, ecx
  00008	89 45 f4	 mov	 DWORD PTR _this$1$[ebp], eax
  0000b	53		 push	 ebx
  0000c	56		 push	 esi

; 804  : 		return( reinterpret_cast< CStringData* >( m_pszData )-1 );

  0000d	8b 00		 mov	 eax, DWORD PTR [eax]

; 790  : 		CStringData* pNewData = pOldData->pStringMgr->Clone()->Allocate( nLength, sizeof( XCHAR ) );

  0000f	8b 48 f0	 mov	 ecx, DWORD PTR [eax-16]

; 804  : 		return( reinterpret_cast< CStringData* >( m_pszData )-1 );

  00012	8d 58 f0	 lea	 ebx, DWORD PTR [eax-16]
  00015	89 45 fc	 mov	 DWORD PTR __Source$1$[ebp], eax

; 787  : 	{

  00018	57		 push	 edi

; 788  : 		CStringData* pOldData = GetData();
; 789  : 		int nOldLength = pOldData->nDataLength;

  00019	8b 7b 04	 mov	 edi, DWORD PTR [ebx+4]

; 790  : 		CStringData* pNewData = pOldData->pStringMgr->Clone()->Allocate( nLength, sizeof( XCHAR ) );

  0001c	8b 01		 mov	 eax, DWORD PTR [ecx]
  0001e	89 7d f8	 mov	 DWORD PTR _nOldLength$1$[ebp], edi
  00021	ff 50 10	 call	 DWORD PTR [eax+16]
  00024	8b 75 08	 mov	 esi, DWORD PTR _nLength$[ebp]
  00027	8b c8		 mov	 ecx, eax
  00029	6a 01		 push	 1
  0002b	56		 push	 esi
  0002c	8b 10		 mov	 edx, DWORD PTR [eax]
  0002e	ff 12		 call	 DWORD PTR [edx]
  00030	89 45 08	 mov	 DWORD PTR _pNewData$1$[ebp], eax

; 791  : 		if( pNewData == NULL )

  00033	85 c0		 test	 eax, eax
  00035	74 6c		 je	 SHORT $LN25@Fork

; 794  : 		}
; 795  : 		int nCharsToCopy = ((nOldLength < nLength) ? nOldLength : nLength)+1;  // Copy '\0'

  00037	3b fe		 cmp	 edi, esi
  00039	0f 4c f7	 cmovl	 esi, edi

; 796  : 		memcpy_s( PXSTR( pNewData->data() ), nCharsToCopy * sizeof( XCHAR ),

  0003c	8d 78 10	 lea	 edi, DWORD PTR [eax+16]
  0003f	83 c6 01	 add	 esi, 1
; File C:\Program Files (x86)\Windows Kits\10\Include\10.0.26100.0\ucrt\corecrt_memcpy_s.h

; 47   :         if (_SourceSize == 0)

  00042	74 33		 je	 SHORT $LN11@Fork

; 48   :         {
; 49   :             return 0;
; 50   :         }
; 51   : 
; 52   :         _CRT_MEMCPY_S_VALIDATE_RETURN_ERRCODE(_Destination != NULL, EINVAL);

  00044	85 ff		 test	 edi, edi
  00046	74 1f		 je	 SHORT $LN23@Fork

; 53   :         if (_Source == NULL || _DestinationSize < _SourceSize)

  00048	8b 45 fc	 mov	 eax, DWORD PTR __Source$1$[ebp]
  0004b	56		 push	 esi
  0004c	85 c0		 test	 eax, eax
  0004e	74 0c		 je	 SHORT $LN10@Fork

; 56   : 
; 57   :             _CRT_MEMCPY_S_VALIDATE_RETURN_ERRCODE(_Source != NULL,                 EINVAL);
; 58   :             _CRT_MEMCPY_S_VALIDATE_RETURN_ERRCODE(_DestinationSize >= _SourceSize, ERANGE);
; 59   : 
; 60   :             // Unreachable, but required to suppress /analyze warnings:
; 61   :             return EINVAL;
; 62   :         }
; 63   :         memcpy(_Destination, _Source, _SourceSize);

  00050	50		 push	 eax
  00051	57		 push	 edi
  00052	e8 00 00 00 00	 call	 _memcpy
  00057	83 c4 0c	 add	 esp, 12			; 0000000cH
  0005a	eb 1b		 jmp	 SHORT $LN11@Fork
$LN10@Fork:

; 54   :         {
; 55   :             memset(_Destination, 0, _DestinationSize);

  0005c	6a 00		 push	 0
  0005e	57		 push	 edi
  0005f	e8 00 00 00 00	 call	 _memset
  00064	83 c4 0c	 add	 esp, 12			; 0000000cH
$LN23@Fork:
; File C:\Program Files\Microsoft Visual Studio\2022\Professional\VC\Tools\MSVC\14.44.35207\atlmfc\include\atlsimpstr.h

; 798  : 		pNewData->nDataLength = nOldLength;

  00067	e8 00 00 00 00	 call	 __errno
  0006c	c7 00 16 00 00
	00		 mov	 DWORD PTR [eax], 22	; 00000016H
  00072	e8 00 00 00 00	 call	 __invalid_parameter_noinfo
$LN11@Fork:
  00077	8b 4d 08	 mov	 ecx, DWORD PTR _pNewData$1$[ebp]
  0007a	8b 45 f8	 mov	 eax, DWORD PTR _nOldLength$1$[ebp]
  0007d	89 41 04	 mov	 DWORD PTR [ecx+4], eax

; 92   : 		if( _InterlockedDecrement( &nRefs ) <= 0 )

  00080	83 c8 ff	 or	 eax, -1
  00083	f0 0f c1 43 0c	 lock	  xadd	 DWORD PTR [ebx+12], eax
  00088	48		 dec	 eax
  00089	85 c0		 test	 eax, eax
  0008b	7f 08		 jg	 SHORT $LN15@Fork

; 93   : 		{
; 94   : 			pStringMgr->Free( this );

  0008d	8b 0b		 mov	 ecx, DWORD PTR [ebx]
  0008f	53		 push	 ebx
  00090	8b 01		 mov	 eax, DWORD PTR [ecx]
  00092	ff 50 04	 call	 DWORD PTR [eax+4]
$LN15@Fork:

; 799  : 		pOldData->Release();
; 800  : 		Attach( pNewData );

  00095	8b 45 f4	 mov	 eax, DWORD PTR _this$1$[ebp]
  00098	89 38		 mov	 DWORD PTR [eax], edi

; 801  : 	}

  0009a	5f		 pop	 edi
  0009b	5e		 pop	 esi
  0009c	5b		 pop	 ebx
  0009d	8b e5		 mov	 esp, ebp
  0009f	5d		 pop	 ebp
  000a0	c2 04 00	 ret	 4
$LN25@Fork:

; 792  : 		{
; 793  : 			ThrowMemoryException();

  000a3	e8 00 00 00 00	 call	 ?ThrowMemoryException@?$CSimpleStringT@D$0A@@ATL@@KAXXZ ; ATL::CSimpleStringT<char,0>::ThrowMemoryException
$LN22@Fork:
  000a8	cc		 int	 3
?Fork@?$CSimpleStringT@D$0A@@ATL@@AAEXH@Z ENDP		; ATL::CSimpleStringT<char,0>::Fork
_TEXT	ENDS
; Function compile flags: /Ogtp
; File C:\Program Files\Microsoft Visual Studio\2022\Professional\VC\Tools\MSVC\14.44.35207\atlmfc\include\atlsimpstr.h
;	COMDAT ?ThrowMemoryException@?$CSimpleStringT@D$0A@@ATL@@KAXXZ
_TEXT	SEGMENT
?ThrowMemoryException@?$CSimpleStringT@D$0A@@ATL@@KAXXZ PROC ; ATL::CSimpleStringT<char,0>::ThrowMemoryException, COMDAT

; 777  : 		AtlThrow( E_OUTOFMEMORY );

  00000	68 0e 00 07 80	 push	 -2147024882		; 8007000eH
  00005	e8 00 00 00 00	 call	 ?AtlThrowImpl@ATL@@YGXJ@Z ; ATL::AtlThrowImpl
$LN3@ThrowMemor:
  0000a	cc		 int	 3
?ThrowMemoryException@?$CSimpleStringT@D$0A@@ATL@@KAXXZ ENDP ; ATL::CSimpleStringT<char,0>::ThrowMemoryException
_TEXT	ENDS
; Function compile flags: /Ogtp
; File C:\Program Files\Microsoft Visual Studio\2022\Professional\VC\Tools\MSVC\14.44.35207\atlmfc\include\atlsimpstr.h
; File C:\Program Files (x86)\Windows Kits\10\Include\10.0.26100.0\ucrt\corecrt_memcpy_s.h
; File C:\Program Files\Microsoft Visual Studio\2022\Professional\VC\Tools\MSVC\14.44.35207\atlmfc\include\atlsimpstr.h
; File C:\Program Files (x86)\Windows Kits\10\Include\10.0.26100.0\ucrt\corecrt_memcpy_s.h
; File C:\Program Files\Microsoft Visual Studio\2022\Professional\VC\Tools\MSVC\14.44.35207\atlmfc\include\atlsimpstr.h
;	COMDAT ?SetString@?$CSimpleStringT@D$0A@@ATL@@QAEXPBDH@Z
_TEXT	SEGMENT
_pszSrc$ = 8						; size = 4
_nOldLength$1$ = 8					; size = 4
_nLength$ = 12						; size = 4
_nOffset$1$ = 12					; size = 4
?SetString@?$CSimpleStringT@D$0A@@ATL@@QAEXPBDH@Z PROC	; ATL::CSimpleStringT<char,0>::SetString, COMDAT
; _this$ = ecx

; 611  : 	{

  00000	55		 push	 ebp
  00001	8b ec		 mov	 ebp, esp
  00003	56		 push	 esi

; 612  : 		if( nLength == 0 )

  00004	8b 75 0c	 mov	 esi, DWORD PTR _nLength$[ebp]
  00007	57		 push	 edi
  00008	8b f9		 mov	 edi, ecx
  0000a	85 f6		 test	 esi, esi
  0000c	75 58		 jne	 SHORT $LN2@SetString

; 804  : 		return( reinterpret_cast< CStringData* >( m_pszData )-1 );

  0000e	8b 07		 mov	 eax, DWORD PTR [edi]

; 443  : 		if( pOldData->nDataLength == 0 )

  00010	83 78 f4 00	 cmp	 DWORD PTR [eax-12], 0

; 804  : 		return( reinterpret_cast< CStringData* >( m_pszData )-1 );

  00014	8d 50 f0	 lea	 edx, DWORD PTR [eax-16]

; 442  : 		IAtlStringMgr* pStringMgr = pOldData->pStringMgr;

  00017	8b 32		 mov	 esi, DWORD PTR [edx]

; 443  : 		if( pOldData->nDataLength == 0 )

  00019	74 1f		 je	 SHORT $LN72@SetString

; 73   : 		return nRefs < 0;

  0001b	83 7a 0c 00	 cmp	 DWORD PTR [edx+12], 0
  0001f	8d 4a 0c	 lea	 ecx, DWORD PTR [edx+12]

; 448  : 		if( pOldData->IsLocked() )

  00022	7d 1c		 jge	 SHORT $LN10@SetString

; 875  : 		if( nLength < 0 || nLength > GetData()->nAllocLength)

  00024	83 78 f8 00	 cmp	 DWORD PTR [eax-8], 0
  00028	0f 8c 0b 01 00
	00		 jl	 $LN71@SetString

; 877  : 
; 878  : 		GetData()->nDataLength = nLength;

  0002e	c7 40 f4 00 00
	00 00		 mov	 DWORD PTR [eax-12], 0

; 879  : 		m_pszData[nLength] = 0;

  00035	8b 07		 mov	 eax, DWORD PTR [edi]
  00037	c6 00 00	 mov	 BYTE PTR [eax], 0
$LN72@SetString:
  0003a	5f		 pop	 edi

; 638  : 			else
; 639  : 			{
; 640  : 				memcpy_s( pszBuffer, GetAllocLength() * sizeof( XCHAR ), pszSrc, nLength * sizeof( XCHAR ));
; 641  : 			}
; 642  : 			ReleaseBufferSetLength( nLength );
; 643  : 		}
; 644  : 	}

  0003b	5e		 pop	 esi
  0003c	5d		 pop	 ebp
  0003d	c2 08 00	 ret	 8
$LN10@SetString:

; 92   : 		if( _InterlockedDecrement( &nRefs ) <= 0 )

  00040	83 c8 ff	 or	 eax, -1
  00043	f0 0f c1 01	 lock	  xadd	 DWORD PTR [ecx], eax
  00047	48		 dec	 eax
  00048	85 c0		 test	 eax, eax
  0004a	7f 08		 jg	 SHORT $LN27@SetString

; 93   : 		{
; 94   : 			pStringMgr->Free( this );

  0004c	8b 0a		 mov	 ecx, DWORD PTR [edx]
  0004e	52		 push	 edx
  0004f	8b 01		 mov	 eax, DWORD PTR [ecx]
  00051	ff 50 04	 call	 DWORD PTR [eax+4]
$LN27@SetString:

; 456  : 			CStringData* pNewData = pStringMgr->GetNilString();

  00054	8b 06		 mov	 eax, DWORD PTR [esi]
  00056	8b ce		 mov	 ecx, esi
  00058	ff 50 0c	 call	 DWORD PTR [eax+12]

; 457  : 			Attach( pNewData );

  0005b	83 c0 10	 add	 eax, 16			; 00000010H
  0005e	89 07		 mov	 DWORD PTR [edi], eax
  00060	5f		 pop	 edi

; 638  : 			else
; 639  : 			{
; 640  : 				memcpy_s( pszBuffer, GetAllocLength() * sizeof( XCHAR ), pszSrc, nLength * sizeof( XCHAR ));
; 641  : 			}
; 642  : 			ReleaseBufferSetLength( nLength );
; 643  : 		}
; 644  : 	}

  00061	5e		 pop	 esi
  00062	5d		 pop	 ebp
  00063	c2 08 00	 ret	 8
$LN2@SetString:
  00066	53		 push	 ebx

; 613  : 		{
; 614  : 			Empty();
; 615  : 		}
; 616  : 		else
; 617  : 		{
; 618  : 			// It is possible that pszSrc points to a location inside of our
; 619  : 			// buffer.  GetBuffer() might change m_pszData if (1) the buffer
; 620  : 			// is shared or (2) the buffer is too small to hold the new
; 621  : 			// string.  We detect this aliasing, and modify pszSrc to point
; 622  : 			// into the newly allocated buffer instead.
; 623  : 
; 624  : 			if(pszSrc == NULL)

  00067	8b 5d 08	 mov	 ebx, DWORD PTR _pszSrc$[ebp]
  0006a	85 db		 test	 ebx, ebx
  0006c	0f 84 c7 00 00
	00		 je	 $LN71@SetString

; 523  : 		return( GetData()->nDataLength );

  00072	8b 07		 mov	 eax, DWORD PTR [edi]

; 625  : 				AtlThrow(E_INVALIDARG);
; 626  : 
; 627  : 			UINT nOldLength = GetLength();
; 628  : 			UINT_PTR nOffset = pszSrc-GetString();

  00074	8b d3		 mov	 edx, ebx
  00076	2b d0		 sub	 edx, eax
  00078	89 55 0c	 mov	 DWORD PTR _nOffset$1$[ebp], edx
  0007b	8b 48 f4	 mov	 ecx, DWORD PTR [eax-12]
  0007e	89 4d 08	 mov	 DWORD PTR _nOldLength$1$[ebp], ecx

; 808  : 		if (nLength < 0)

  00081	85 f6		 test	 esi, esi
  00083	0f 88 b0 00 00
	00		 js	 $LN71@SetString

; 809  : 			AtlThrow(E_INVALIDARG);
; 810  : 
; 811  : 		CStringData* pOldData = GetData();
; 812  : 		int nShared = 1-pOldData->nRefs;  // nShared < 0 means true, >= 0 means false

  00089	b9 01 00 00 00	 mov	 ecx, 1
  0008e	2b 48 fc	 sub	 ecx, DWORD PTR [eax-4]

; 813  : 		int nTooShort = pOldData->nAllocLength-nLength;  // nTooShort < 0 means true, >= 0 means false

  00091	8b 40 f8	 mov	 eax, DWORD PTR [eax-8]
  00094	2b c6		 sub	 eax, esi

; 814  : 		if( (nShared|nTooShort) < 0 )  // If either sign bit is set (i.e. either is less than zero), we need to copy data

  00096	0b c8		 or	 ecx, eax
  00098	7d 0b		 jge	 SHORT $LN38@SetString

; 815  : 		{
; 816  : 			PrepareWrite2( nLength );

  0009a	56		 push	 esi
  0009b	8b cf		 mov	 ecx, edi
  0009d	e8 00 00 00 00	 call	 ?PrepareWrite2@?$CSimpleStringT@D$0A@@ATL@@AAEXH@Z ; ATL::CSimpleStringT<char,0>::PrepareWrite2
  000a2	8b 55 0c	 mov	 edx, DWORD PTR _nOffset$1$[ebp]
$LN38@SetString:

; 629  : 			// If 0 <= nOffset <= nOldLength, then pszSrc points into our
; 630  : 			// buffer
; 631  : 
; 632  : 			PXSTR pszBuffer = GetBuffer( nLength );

  000a5	8b 07		 mov	 eax, DWORD PTR [edi]
  000a7	8b 48 f8	 mov	 ecx, DWORD PTR [eax-8]

; 633  : 			if( nOffset <= nOldLength )

  000aa	3b 55 08	 cmp	 edx, DWORD PTR _nOldLength$1$[ebp]
  000ad	77 35		 ja	 SHORT $LN5@SetString

; 634  : 			{
; 635  : 				CopyCharsOverlapped( pszBuffer, GetAllocLength(),

  000af	03 d0		 add	 edx, eax
; File C:\Program Files (x86)\Windows Kits\10\Include\10.0.26100.0\ucrt\corecrt_memcpy_s.h

; 81   :         _CRT_MEMCPY_S_VALIDATE_RETURN_ERRCODE(_Destination != NULL,            EINVAL);

  000b1	85 c0		 test	 eax, eax
  000b3	75 0d		 jne	 SHORT $LN51@SetString
  000b5	e8 00 00 00 00	 call	 __errno
  000ba	c7 00 16 00 00
	00		 mov	 DWORD PTR [eax], 22	; 00000016H
  000c0	eb 5b		 jmp	 SHORT $LN97@SetString
$LN51@SetString:

; 82   :         _CRT_MEMCPY_S_VALIDATE_RETURN_ERRCODE(_Source != NULL,                 EINVAL);

  000c2	85 d2		 test	 edx, edx
  000c4	75 0d		 jne	 SHORT $LN52@SetString
  000c6	e8 00 00 00 00	 call	 __errno
  000cb	c7 00 16 00 00
	00		 mov	 DWORD PTR [eax], 22	; 00000016H
  000d1	eb 4a		 jmp	 SHORT $LN97@SetString
$LN52@SetString:

; 83   :         _CRT_MEMCPY_S_VALIDATE_RETURN_ERRCODE(_DestinationSize >= _SourceSize, ERANGE);

  000d3	3b ce		 cmp	 ecx, esi
  000d5	72 3b		 jb	 SHORT $LN98@SetString

; 84   : 
; 85   :         memmove(_Destination, _Source, _SourceSize);

  000d7	56		 push	 esi
  000d8	52		 push	 edx
  000d9	50		 push	 eax
  000da	e8 00 00 00 00	 call	 _memmove
  000df	83 c4 0c	 add	 esp, 12			; 0000000cH
; File C:\Program Files\Microsoft Visual Studio\2022\Professional\VC\Tools\MSVC\14.44.35207\atlmfc\include\atlsimpstr.h

; 637  : 			}

  000e2	eb 3e		 jmp	 SHORT $LN65@SetString
$LN5@SetString:
; File C:\Program Files (x86)\Windows Kits\10\Include\10.0.26100.0\ucrt\corecrt_memcpy_s.h

; 52   :         _CRT_MEMCPY_S_VALIDATE_RETURN_ERRCODE(_Destination != NULL, EINVAL);

  000e4	85 c0		 test	 eax, eax
  000e6	75 0d		 jne	 SHORT $LN61@SetString
  000e8	e8 00 00 00 00	 call	 __errno
  000ed	c7 00 16 00 00
	00		 mov	 DWORD PTR [eax], 22	; 00000016H
  000f3	eb 28		 jmp	 SHORT $LN97@SetString
$LN61@SetString:

; 53   :         if (_Source == NULL || _DestinationSize < _SourceSize)

  000f5	3b ce		 cmp	 ecx, esi
  000f7	72 0d		 jb	 SHORT $LN63@SetString

; 56   : 
; 57   :             _CRT_MEMCPY_S_VALIDATE_RETURN_ERRCODE(_Source != NULL,                 EINVAL);
; 58   :             _CRT_MEMCPY_S_VALIDATE_RETURN_ERRCODE(_DestinationSize >= _SourceSize, ERANGE);
; 59   : 
; 60   :             // Unreachable, but required to suppress /analyze warnings:
; 61   :             return EINVAL;
; 62   :         }
; 63   :         memcpy(_Destination, _Source, _SourceSize);

  000f9	56		 push	 esi
  000fa	53		 push	 ebx
  000fb	50		 push	 eax
  000fc	e8 00 00 00 00	 call	 _memcpy
  00101	83 c4 0c	 add	 esp, 12			; 0000000cH
  00104	eb 1c		 jmp	 SHORT $LN65@SetString
$LN63@SetString:

; 54   :         {
; 55   :             memset(_Destination, 0, _DestinationSize);

  00106	51		 push	 ecx
  00107	6a 00		 push	 0
  00109	50		 push	 eax
  0010a	e8 00 00 00 00	 call	 _memset
  0010f	83 c4 0c	 add	 esp, 12			; 0000000cH
$LN98@SetString:
; File C:\Program Files\Microsoft Visual Studio\2022\Professional\VC\Tools\MSVC\14.44.35207\atlmfc\include\atlsimpstr.h

; 875  : 		if( nLength < 0 || nLength > GetData()->nAllocLength)

  00112	e8 00 00 00 00	 call	 __errno
  00117	c7 00 22 00 00
	00		 mov	 DWORD PTR [eax], 34	; 00000022H
$LN97@SetString:
  0011d	e8 00 00 00 00	 call	 __invalid_parameter_noinfo
$LN65@SetString:
  00122	8b 07		 mov	 eax, DWORD PTR [edi]
  00124	5b		 pop	 ebx
  00125	3b 70 f8	 cmp	 esi, DWORD PTR [eax-8]
  00128	7f 0f		 jg	 SHORT $LN71@SetString

; 877  : 
; 878  : 		GetData()->nDataLength = nLength;

  0012a	89 70 f4	 mov	 DWORD PTR [eax-12], esi

; 879  : 		m_pszData[nLength] = 0;

  0012d	8b 07		 mov	 eax, DWORD PTR [edi]
  0012f	5f		 pop	 edi
  00130	c6 04 06 00	 mov	 BYTE PTR [esi+eax], 0

; 638  : 			else
; 639  : 			{
; 640  : 				memcpy_s( pszBuffer, GetAllocLength() * sizeof( XCHAR ), pszSrc, nLength * sizeof( XCHAR ));
; 641  : 			}
; 642  : 			ReleaseBufferSetLength( nLength );
; 643  : 		}
; 644  : 	}

  00134	5e		 pop	 esi
  00135	5d		 pop	 ebp
  00136	c2 08 00	 ret	 8
$LN71@SetString:

; 876  : 			AtlThrow(E_INVALIDARG);

  00139	68 57 00 07 80	 push	 -2147024809		; 80070057H
  0013e	e8 00 00 00 00	 call	 ?AtlThrowImpl@ATL@@YGXJ@Z ; ATL::AtlThrowImpl
$LN96@SetString:
  00143	cc		 int	 3
?SetString@?$CSimpleStringT@D$0A@@ATL@@QAEXPBDH@Z ENDP	; ATL::CSimpleStringT<char,0>::SetString
_TEXT	ENDS
; Function compile flags: /Ogtp
; File C:\Program Files\Microsoft Visual Studio\2022\Professional\VC\Tools\MSVC\14.44.35207\atlmfc\include\atlsimpstr.h
;	COMDAT ??1?$CSimpleStringT@D$0A@@ATL@@QAE@XZ
_TEXT	SEGMENT
??1?$CSimpleStringT@D$0A@@ATL@@QAE@XZ PROC		; ATL::CSimpleStringT<char,0>::~CSimpleStringT<char,0>, COMDAT
; _this$ = ecx

; 804  : 		return( reinterpret_cast< CStringData* >( m_pszData )-1 );

  00000	8b 11		 mov	 edx, DWORD PTR [ecx]

; 92   : 		if( _InterlockedDecrement( &nRefs ) <= 0 )

  00002	83 c8 ff	 or	 eax, -1

; 804  : 		return( reinterpret_cast< CStringData* >( m_pszData )-1 );

  00005	83 ea 10	 sub	 edx, 16			; 00000010H

; 92   : 		if( _InterlockedDecrement( &nRefs ) <= 0 )

  00008	f0 0f c1 42 0c	 lock	  xadd	 DWORD PTR [edx+12], eax
  0000d	48		 dec	 eax
  0000e	85 c0		 test	 eax, eax
  00010	7f 08		 jg	 SHORT $LN6@CSimpleStr

; 93   : 		{
; 94   : 			pStringMgr->Free( this );

  00012	8b 0a		 mov	 ecx, DWORD PTR [edx]
  00014	52		 push	 edx
  00015	8b 01		 mov	 eax, DWORD PTR [ecx]
  00017	ff 50 04	 call	 DWORD PTR [eax+4]
$LN6@CSimpleStr:

; 265  : 		CStringData* pData = GetData();
; 266  : 		pData->Release();
; 267  : 	}

  0001a	c3		 ret	 0
??1?$CSimpleStringT@D$0A@@ATL@@QAE@XZ ENDP		; ATL::CSimpleStringT<char,0>::~CSimpleStringT<char,0>
_TEXT	ENDS
; Function compile flags: /Ogtp
; File C:\Program Files\Microsoft Visual Studio\2022\Professional\VC\Tools\MSVC\14.44.35207\atlmfc\include\atlexcept.h
;	COMDAT ?AtlThrowImpl@ATL@@YGXJ@Z
_TEXT	SEGMENT
_hr$ = 8						; size = 4
?AtlThrowImpl@ATL@@YGXJ@Z PROC				; ATL::AtlThrowImpl, COMDAT

; 69   : {

  00000	55		 push	 ebp
  00001	8b ec		 mov	 ebp, esp

; 70   : 	ATLTRACE(atlTraceException, 0, _T("AtlThrow: hr = 0x%x\n"), hr );
; 71   : #ifdef _AFX
; 72   : 	if( hr == E_OUTOFMEMORY )

  00003	8b 45 08	 mov	 eax, DWORD PTR _hr$[ebp]
  00006	3d 0e 00 07 80	 cmp	 eax, -2147024882	; 8007000eH
  0000b	75 05		 jne	 SHORT $LN2@AtlThrowIm

; 73   : 	{
; 74   : 		AfxThrowMemoryException();

  0000d	e8 00 00 00 00	 call	 ?AfxThrowMemoryException@@YGXXZ ; AfxThrowMemoryException
$LN2@AtlThrowIm:

; 75   : 	}
; 76   : 	else
; 77   : 	{
; 78   : 		AfxThrowOleException( hr );

  00012	50		 push	 eax
  00013	e8 00 00 00 00	 call	 ?AfxThrowOleException@@YGXJ@Z ; AfxThrowOleException
$LN5@AtlThrowIm:
  00018	cc		 int	 3
?AtlThrowImpl@ATL@@YGXJ@Z ENDP				; ATL::AtlThrowImpl
_TEXT	ENDS
; Function compile flags: /Ogtp
; File C:\Program Files (x86)\Windows Kits\10\Include\10.0.26100.0\ucrt\stdio.h
;	COMDAT _sprintf
_TEXT	SEGMENT
__Buffer$ = 8						; size = 4
__Format$ = 12						; size = 4
_sprintf PROC						; COMDAT

; 1771 :     {

  00000	55		 push	 ebp
  00001	8b ec		 mov	 ebp, esp

; 1392 :         int const _Result = __stdio_common_vsprintf(

  00003	8d 45 10	 lea	 eax, DWORD PTR __Format$[ebp+4]
  00006	50		 push	 eax
  00007	6a 00		 push	 0
  00009	ff 75 0c	 push	 DWORD PTR __Format$[ebp]
  0000c	6a ff		 push	 -1
  0000e	ff 75 08	 push	 DWORD PTR __Buffer$[ebp]
  00011	e8 00 00 00 00	 call	 ___local_stdio_printf_options
  00016	8b 08		 mov	 ecx, DWORD PTR [eax]
  00018	ff 70 04	 push	 DWORD PTR [eax+4]
  0001b	83 c9 01	 or	 ecx, 1
  0001e	51		 push	 ecx
  0001f	e8 00 00 00 00	 call	 ___stdio_common_vsprintf

; 1393 :             _CRT_INTERNAL_LOCAL_PRINTF_OPTIONS | _CRT_INTERNAL_PRINTF_LEGACY_VSPRINTF_NULL_TERMINATION,
; 1394 :             _Buffer, _BufferCount, _Format, _Locale, _ArgList);
; 1395 : 
; 1396 :         return _Result < 0 ? -1 : _Result;

  00024	83 c9 ff	 or	 ecx, -1
  00027	83 c4 1c	 add	 esp, 28			; 0000001cH
  0002a	85 c0		 test	 eax, eax
  0002c	0f 48 c1	 cmovs	 eax, ecx

; 1772 :         int _Result;
; 1773 :         va_list _ArgList;
; 1774 :         __crt_va_start(_ArgList, _Format);
; 1775 : 
; 1776 :         _Result = _vsprintf_l(_Buffer, _Format, NULL, _ArgList);
; 1777 : 
; 1778 :         __crt_va_end(_ArgList);
; 1779 :         return _Result;
; 1780 :     }

  0002f	5d		 pop	 ebp
  00030	c3		 ret	 0
_sprintf ENDP
_TEXT	ENDS
; Function compile flags: /Ogtp
; File C:\Program Files (x86)\Windows Kits\10\Include\10.0.26100.0\ucrt\corecrt_stdio_config.h
;	COMDAT ___local_stdio_printf_options
_TEXT	SEGMENT
___local_stdio_printf_options PROC			; COMDAT

; 91   :         static unsigned __int64 _OptionsStorage;
; 92   :         return &_OptionsStorage;

  00000	b8 00 00 00 00	 mov	 eax, OFFSET ?_OptionsStorage@?1??__local_stdio_printf_options@@9@4_KA ; `__local_stdio_printf_options'::`2'::_OptionsStorage

; 93   :     }

  00005	c3		 ret	 0
___local_stdio_printf_options ENDP
_TEXT	ENDS
; Function compile flags: /Ogtp
; File C:\IAGOS\server\v18\Source\Source\_Common\MiniGame.cpp
;	COMDAT ?__empty_global_delete@@YAXPAXI@Z
_TEXT	SEGMENT
___formal$ = 8						; size = 4
___formal$ = 12						; size = 4
?__empty_global_delete@@YAXPAXI@Z PROC			; __empty_global_delete, COMDAT

  00000	c2 00 00	 ret	 0
?__empty_global_delete@@YAXPAXI@Z ENDP			; __empty_global_delete
_TEXT	ENDS
; Function compile flags: /Ogtp
; File C:\IAGOS\server\v18\Source\Source\_Common\MiniGame.cpp
;	COMDAT ?__empty_global_delete@@YAXPAX@Z
_TEXT	SEGMENT
___formal$ = 8						; size = 4
?__empty_global_delete@@YAXPAX@Z PROC			; __empty_global_delete, COMDAT

  00000	c2 00 00	 ret	 0
?__empty_global_delete@@YAXPAX@Z ENDP			; __empty_global_delete
_TEXT	ENDS
END
