; Listing generated by Microsoft (R) Optimizing Compiler Version 19.44.35225.0 

	TITLE	C:\IAGOS\server\v18\Source\Output\WorldServer\Release\MiniGameTyping.obj
	.686P
	.XMM
	include listing.inc
	.model	flat

INCLUDELIB LIBCMT
INCLUDELIB OLDNAMES

PUBLIC	?__empty_global_delete@@YAXPAX@Z		; __empty_global_delete
PUBLIC	?__empty_global_delete@@YAXPAXI@Z		; __empty_global_delete
PUBLIC	??0exception@std@@QAE@ABV01@@Z			; std::exception::exception
PUBLIC	??1exception@std@@UAE@XZ			; std::exception::~exception
PUBLIC	?what@exception@std@@UBEPBDXZ			; std::exception::what
PUBLIC	??_Gexception@std@@UAEPAXI@Z			; std::exception::`scalar deleting destructor'
PUBLIC	??0bad_alloc@std@@QAE@ABV01@@Z			; std::bad_alloc::bad_alloc
PUBLIC	??_Gbad_alloc@std@@UAEPAXI@Z			; std::bad_alloc::`scalar deleting destructor'
PUBLIC	??0bad_array_new_length@std@@QAE@XZ		; std::bad_array_new_length::bad_array_new_length
PUBLIC	??1bad_array_new_length@std@@UAE@XZ		; std::bad_array_new_length::~bad_array_new_length
PUBLIC	??0bad_array_new_length@std@@QAE@ABV01@@Z	; std::bad_array_new_length::bad_array_new_length
PUBLIC	??_Gbad_array_new_length@std@@UAEPAXI@Z		; std::bad_array_new_length::`scalar deleting destructor'
PUBLIC	?_Throw_bad_array_new_length@std@@YAXXZ		; std::_Throw_bad_array_new_length
PUBLIC	?_Xlen_string@std@@YAXXZ			; std::_Xlen_string
PUBLIC	??0?$basic_string@DU?$char_traits@D@std@@V?$allocator@D@2@@std@@QAE@ABV01@@Z ; std::basic_string<char,std::char_traits<char>,std::allocator<char> >::basic_string<char,std::char_traits<char>,std::allocator<char> >
PUBLIC	??1?$basic_string@DU?$char_traits@D@std@@V?$allocator@D@2@@std@@QAE@XZ ; std::basic_string<char,std::char_traits<char>,std::allocator<char> >::~basic_string<char,std::char_traits<char>,std::allocator<char> >
PUBLIC	??4?$basic_string@DU?$char_traits@D@std@@V?$allocator@D@2@@std@@QAEAAV01@ABV01@@Z ; std::basic_string<char,std::char_traits<char>,std::allocator<char> >::operator=
PUBLIC	?deallocate@?$allocator@V?$basic_string@DU?$char_traits@D@std@@V?$allocator@D@2@@std@@@std@@QAEXQAV?$basic_string@DU?$char_traits@D@std@@V?$allocator@D@2@@2@I@Z ; std::allocator<std::basic_string<char,std::char_traits<char>,std::allocator<char> > >::deallocate
PUBLIC	??$_Allocate_manually_vector_aligned@U_Default_allocate_traits@std@@@std@@YAPAXI@Z ; std::_Allocate_manually_vector_aligned<std::_Default_allocate_traits>
PUBLIC	?Serialize@__MINIGAME_PACKET@@UAEXAAVCAr@@@Z	; __MINIGAME_PACKET::Serialize
PUBLIC	??$?6G@CAr@@QAEAAV0@ABG@Z			; CAr::operator<<<unsigned short>
PUBLIC	??$?6H@CAr@@QAEAAV0@ABH@Z			; CAr::operator<<<int>
PUBLIC	??$?5G@CAr@@QAEAAV0@AAG@Z			; CAr::operator>><unsigned short>
PUBLIC	??$?5H@CAr@@QAEAAV0@AAH@Z			; CAr::operator>><int>
PUBLIC	?_Buy_raw@?$vector@V?$basic_string@DU?$char_traits@D@std@@V?$allocator@D@2@@std@@V?$allocator@V?$basic_string@DU?$char_traits@D@std@@V?$allocator@D@2@@std@@@2@@std@@AAEXI@Z ; std::vector<std::basic_string<char,std::char_traits<char>,std::allocator<char> >,std::allocator<std::basic_string<char,std::char_traits<char>,std::allocator<char> > > >::_Buy_raw
PUBLIC	?_Change_array@?$vector@V?$basic_string@DU?$char_traits@D@std@@V?$allocator@D@2@@std@@V?$allocator@V?$basic_string@DU?$char_traits@D@std@@V?$allocator@D@2@@std@@@2@@std@@AAEXQAV?$basic_string@DU?$char_traits@D@std@@V?$allocator@D@2@@2@II@Z ; std::vector<std::basic_string<char,std::char_traits<char>,std::allocator<char> >,std::allocator<std::basic_string<char,std::char_traits<char>,std::allocator<char> > > >::_Change_array
PUBLIC	?_Tidy@?$vector@V?$basic_string@DU?$char_traits@D@std@@V?$allocator@D@2@@std@@V?$allocator@V?$basic_string@DU?$char_traits@D@std@@V?$allocator@D@2@@std@@@2@@std@@AAEXXZ ; std::vector<std::basic_string<char,std::char_traits<char>,std::allocator<char> >,std::allocator<std::basic_string<char,std::char_traits<char>,std::allocator<char> > > >::_Tidy
PUBLIC	?_Xlength@?$vector@V?$basic_string@DU?$char_traits@D@std@@V?$allocator@D@2@@std@@V?$allocator@V?$basic_string@DU?$char_traits@D@std@@V?$allocator@D@2@@std@@@2@@std@@CAXXZ ; std::vector<std::basic_string<char,std::char_traits<char>,std::allocator<char> >,std::allocator<std::basic_string<char,std::char_traits<char>,std::allocator<char> > > >::_Xlength
PUBLIC	?Serialize@__MINIGAME_EXT_PACKET@@UAEXAAVCAr@@@Z ; __MINIGAME_EXT_PACKET::Serialize
PUBLIC	??1__MINIGAME_EXT_PACKET@@QAE@XZ		; __MINIGAME_EXT_PACKET::~__MINIGAME_EXT_PACKET
PUBLIC	??0__MINIGAME_EXT_PACKET@@QAE@ABU0@@Z		; __MINIGAME_EXT_PACKET::__MINIGAME_EXT_PACKET
PUBLIC	??$?6I@CAr@@QAEAAV0@ABI@Z			; CAr::operator<<<unsigned int>
PUBLIC	??0CMiniGameTyping@@QAE@XZ			; CMiniGameTyping::CMiniGameTyping
PUBLIC	??0CMiniGameTyping@@QAE@PAVCMiniGameBase@@@Z	; CMiniGameTyping::CMiniGameTyping
PUBLIC	??1CMiniGameTyping@@UAE@XZ			; CMiniGameTyping::~CMiniGameTyping
PUBLIC	?Excute@CMiniGameTyping@@UAEHPAVCUser@@PAU__MINIGAME_PACKET@@@Z ; CMiniGameTyping::Excute
PUBLIC	?MakeQuestion@CMiniGameTyping@@AAEXXZ		; CMiniGameTyping::MakeQuestion
PUBLIC	??_GCMiniGameTyping@@UAEPAXI@Z			; CMiniGameTyping::`scalar deleting destructor'
PUBLIC	??$?9DU?$char_traits@D@std@@V?$allocator@D@1@@std@@YA_NABV?$basic_string@DU?$char_traits@D@std@@V?$allocator@D@2@@0@0@Z ; std::operator!=<char,std::char_traits<char>,std::allocator<char> >
PUBLIC	??$_Assign_counted_range@PAV?$basic_string@DU?$char_traits@D@std@@V?$allocator@D@2@@std@@@?$vector@V?$basic_string@DU?$char_traits@D@std@@V?$allocator@D@2@@std@@V?$allocator@V?$basic_string@DU?$char_traits@D@std@@V?$allocator@D@2@@std@@@2@@std@@AAEXPAV?$basic_string@DU?$char_traits@D@std@@V?$allocator@D@2@@1@I@Z ; std::vector<std::basic_string<char,std::char_traits<char>,std::allocator<char> >,std::allocator<std::basic_string<char,std::char_traits<char>,std::allocator<char> > > >::_Assign_counted_range<std::basic_string<char,std::char_traits<char>,std::allocator<char> > *>
PUBLIC	??$_Uninitialized_copy_n@PAV?$basic_string@DU?$char_traits@D@std@@V?$allocator@D@2@@std@@V?$allocator@V?$basic_string@DU?$char_traits@D@std@@V?$allocator@D@2@@std@@@2@@std@@YAPAV?$basic_string@DU?$char_traits@D@std@@V?$allocator@D@2@@0@PAV10@I0AAV?$allocator@V?$basic_string@DU?$char_traits@D@std@@V?$allocator@D@2@@std@@@0@@Z ; std::_Uninitialized_copy_n<std::basic_string<char,std::char_traits<char>,std::allocator<char> > *,std::allocator<std::basic_string<char,std::char_traits<char>,std::allocator<char> > > >
PUBLIC	??$_Copy_n_unchecked4@PAV?$basic_string@DU?$char_traits@D@std@@V?$allocator@D@2@@std@@IPAV12@@std@@YAPAV?$basic_string@DU?$char_traits@D@std@@V?$allocator@D@2@@0@PAV10@I0@Z ; std::_Copy_n_unchecked4<std::basic_string<char,std::char_traits<char>,std::allocator<char> > *,unsigned int,std::basic_string<char,std::char_traits<char>,std::allocator<char> > *>
PUBLIC	??$_Emplace_reallocate@V?$basic_string@DU?$char_traits@D@std@@V?$allocator@D@2@@std@@@?$vector@V?$basic_string@DU?$char_traits@D@std@@V?$allocator@D@2@@std@@V?$allocator@V?$basic_string@DU?$char_traits@D@std@@V?$allocator@D@2@@std@@@2@@std@@AAEPAV?$basic_string@DU?$char_traits@D@std@@V?$allocator@D@2@@1@QAV21@$$QAV21@@Z ; std::vector<std::basic_string<char,std::char_traits<char>,std::allocator<char> >,std::allocator<std::basic_string<char,std::char_traits<char>,std::allocator<char> > > >::_Emplace_reallocate<std::basic_string<char,std::char_traits<char>,std::allocator<char> > >
PUBLIC	??$_Emplace_reallocate@ABV?$basic_string@DU?$char_traits@D@std@@V?$allocator@D@2@@std@@@?$vector@V?$basic_string@DU?$char_traits@D@std@@V?$allocator@D@2@@std@@V?$allocator@V?$basic_string@DU?$char_traits@D@std@@V?$allocator@D@2@@std@@@2@@std@@AAEPAV?$basic_string@DU?$char_traits@D@std@@V?$allocator@D@2@@1@QAV21@ABV21@@Z ; std::vector<std::basic_string<char,std::char_traits<char>,std::allocator<char> >,std::allocator<std::basic_string<char,std::char_traits<char>,std::allocator<char> > > >::_Emplace_reallocate<std::basic_string<char,std::char_traits<char>,std::allocator<char> > const &>
PUBLIC	??1?$_Tidy_guard@V?$vector@V?$basic_string@DU?$char_traits@D@std@@V?$allocator@D@2@@std@@V?$allocator@V?$basic_string@DU?$char_traits@D@std@@V?$allocator@D@2@@std@@@2@@std@@@std@@QAE@XZ ; std::_Tidy_guard<std::vector<std::basic_string<char,std::char_traits<char>,std::allocator<char> >,std::allocator<std::basic_string<char,std::char_traits<char>,std::allocator<char> > > > >::~_Tidy_guard<std::vector<std::basic_string<char,std::char_traits<char>,std::allocator<char> >,std::allocator<std::basic_string<char,std::char_traits<char>,std::allocator<char> > > > >
PUBLIC	??1?$_Uninitialized_backout_al@V?$allocator@V?$basic_string@DU?$char_traits@D@std@@V?$allocator@D@2@@std@@@std@@@std@@QAE@XZ ; std::_Uninitialized_backout_al<std::allocator<std::basic_string<char,std::char_traits<char>,std::allocator<char> > > >::~_Uninitialized_backout_al<std::allocator<std::basic_string<char,std::char_traits<char>,std::allocator<char> > > >
PUBLIC	??1_Reallocation_guard@?$vector@V?$basic_string@DU?$char_traits@D@std@@V?$allocator@D@2@@std@@V?$allocator@V?$basic_string@DU?$char_traits@D@std@@V?$allocator@D@2@@std@@@2@@std@@QAE@XZ ; std::vector<std::basic_string<char,std::char_traits<char>,std::allocator<char> >,std::allocator<std::basic_string<char,std::char_traits<char>,std::allocator<char> > > >::_Reallocation_guard::~_Reallocation_guard
PUBLIC	??$_Uninitialized_move@PAV?$basic_string@DU?$char_traits@D@std@@V?$allocator@D@2@@std@@V?$allocator@V?$basic_string@DU?$char_traits@D@std@@V?$allocator@D@2@@std@@@2@@std@@YAPAV?$basic_string@DU?$char_traits@D@std@@V?$allocator@D@2@@0@QAV10@0PAV10@AAV?$allocator@V?$basic_string@DU?$char_traits@D@std@@V?$allocator@D@2@@std@@@0@@Z ; std::_Uninitialized_move<std::basic_string<char,std::char_traits<char>,std::allocator<char> > *,std::allocator<std::basic_string<char,std::char_traits<char>,std::allocator<char> > > >
PUBLIC	??_7exception@std@@6B@				; std::exception::`vftable'
PUBLIC	??_C@_0BC@EOODALEL@Unknown?5exception@		; `string'
PUBLIC	??_7bad_alloc@std@@6B@				; std::bad_alloc::`vftable'
PUBLIC	??_7bad_array_new_length@std@@6B@		; std::bad_array_new_length::`vftable'
PUBLIC	??_C@_0BF@KINCDENJ@bad?5array?5new?5length@	; `string'
PUBLIC	??_R0?AVexception@std@@@8			; std::exception `RTTI Type Descriptor'
PUBLIC	__CT??_R0?AVexception@std@@@8??0exception@std@@QAE@ABV01@@Z12
PUBLIC	__TI3?AVbad_array_new_length@std@@
PUBLIC	__CTA3?AVbad_array_new_length@std@@
PUBLIC	??_R0?AVbad_array_new_length@std@@@8		; std::bad_array_new_length `RTTI Type Descriptor'
PUBLIC	__CT??_R0?AVbad_array_new_length@std@@@8??0bad_array_new_length@std@@QAE@ABV01@@Z12
PUBLIC	??_R0?AVbad_alloc@std@@@8			; std::bad_alloc `RTTI Type Descriptor'
PUBLIC	__CT??_R0?AVbad_alloc@std@@@8??0bad_alloc@std@@QAE@ABV01@@Z12
PUBLIC	??_C@_0BA@JFNIOLAK@string?5too?5long@		; `string'
PUBLIC	??_C@_0BA@FOIKENOD@vector?5too?5long@		; `string'
PUBLIC	??_R4exception@std@@6B@				; std::exception::`RTTI Complete Object Locator'
PUBLIC	??_R3exception@std@@8				; std::exception::`RTTI Class Hierarchy Descriptor'
PUBLIC	??_R2exception@std@@8				; std::exception::`RTTI Base Class Array'
PUBLIC	??_R1A@?0A@EA@exception@std@@8			; std::exception::`RTTI Base Class Descriptor at (0,-1,0,64)'
PUBLIC	??_R4bad_array_new_length@std@@6B@		; std::bad_array_new_length::`RTTI Complete Object Locator'
PUBLIC	??_R3bad_array_new_length@std@@8		; std::bad_array_new_length::`RTTI Class Hierarchy Descriptor'
PUBLIC	??_R2bad_array_new_length@std@@8		; std::bad_array_new_length::`RTTI Base Class Array'
PUBLIC	??_R1A@?0A@EA@bad_array_new_length@std@@8	; std::bad_array_new_length::`RTTI Base Class Descriptor at (0,-1,0,64)'
PUBLIC	??_R1A@?0A@EA@bad_alloc@std@@8			; std::bad_alloc::`RTTI Base Class Descriptor at (0,-1,0,64)'
PUBLIC	??_R3bad_alloc@std@@8				; std::bad_alloc::`RTTI Class Hierarchy Descriptor'
PUBLIC	??_R2bad_alloc@std@@8				; std::bad_alloc::`RTTI Base Class Array'
PUBLIC	??_R4bad_alloc@std@@6B@				; std::bad_alloc::`RTTI Complete Object Locator'
PUBLIC	??_7__MINIGAME_PACKET@@6B@			; __MINIGAME_PACKET::`vftable'
PUBLIC	??_7__MINIGAME_EXT_PACKET@@6B@			; __MINIGAME_EXT_PACKET::`vftable'
PUBLIC	??_7CMiniGameTyping@@6B@			; CMiniGameTyping::`vftable'
PUBLIC	??_R4__MINIGAME_PACKET@@6B@			; __MINIGAME_PACKET::`RTTI Complete Object Locator'
PUBLIC	??_R0?AU__MINIGAME_PACKET@@@8			; __MINIGAME_PACKET `RTTI Type Descriptor'
PUBLIC	??_R3__MINIGAME_PACKET@@8			; __MINIGAME_PACKET::`RTTI Class Hierarchy Descriptor'
PUBLIC	??_R2__MINIGAME_PACKET@@8			; __MINIGAME_PACKET::`RTTI Base Class Array'
PUBLIC	??_R1A@?0A@EA@__MINIGAME_PACKET@@8		; __MINIGAME_PACKET::`RTTI Base Class Descriptor at (0,-1,0,64)'
PUBLIC	??_R4__MINIGAME_EXT_PACKET@@6B@			; __MINIGAME_EXT_PACKET::`RTTI Complete Object Locator'
PUBLIC	??_R0?AU__MINIGAME_EXT_PACKET@@@8		; __MINIGAME_EXT_PACKET `RTTI Type Descriptor'
PUBLIC	??_R3__MINIGAME_EXT_PACKET@@8			; __MINIGAME_EXT_PACKET::`RTTI Class Hierarchy Descriptor'
PUBLIC	??_R2__MINIGAME_EXT_PACKET@@8			; __MINIGAME_EXT_PACKET::`RTTI Base Class Array'
PUBLIC	??_R1A@?0A@EA@__MINIGAME_EXT_PACKET@@8		; __MINIGAME_EXT_PACKET::`RTTI Base Class Descriptor at (0,-1,0,64)'
PUBLIC	??_R4CMiniGameTyping@@6B@			; CMiniGameTyping::`RTTI Complete Object Locator'
PUBLIC	??_R0?AVCMiniGameTyping@@@8			; CMiniGameTyping `RTTI Type Descriptor'
PUBLIC	??_R3CMiniGameTyping@@8				; CMiniGameTyping::`RTTI Class Hierarchy Descriptor'
PUBLIC	??_R2CMiniGameTyping@@8				; CMiniGameTyping::`RTTI Base Class Array'
PUBLIC	??_R1A@?0A@EA@CMiniGameTyping@@8		; CMiniGameTyping::`RTTI Base Class Descriptor at (0,-1,0,64)'
PUBLIC	??_R1A@?0A@EA@CMiniGameBase@@8			; CMiniGameBase::`RTTI Base Class Descriptor at (0,-1,0,64)'
PUBLIC	??_R0?AVCMiniGameBase@@@8			; CMiniGameBase `RTTI Type Descriptor'
PUBLIC	??_R3CMiniGameBase@@8				; CMiniGameBase::`RTTI Class Hierarchy Descriptor'
PUBLIC	??_R2CMiniGameBase@@8				; CMiniGameBase::`RTTI Base Class Array'
EXTRN	??2@YAPAXI@Z:PROC				; operator new
EXTRN	??3@YAXPAXI@Z:PROC				; operator delete
EXTRN	__invoke_watson:PROC
EXTRN	___std_exception_copy:PROC
EXTRN	___std_exception_destroy:PROC
EXTRN	??_Eexception@std@@UAEPAXI@Z:PROC		; std::exception::`vector deleting destructor'
EXTRN	??_Ebad_alloc@std@@UAEPAXI@Z:PROC		; std::bad_alloc::`vector deleting destructor'
EXTRN	??_Ebad_array_new_length@std@@UAEPAXI@Z:PROC	; std::bad_array_new_length::`vector deleting destructor'
EXTRN	?_Xlength_error@std@@YAXPBD@Z:PROC		; std::_Xlength_error
EXTRN	?xRandom@@YAKKK@Z:PROC				; xRandom
EXTRN	?CheckBuf@CAr@@QAEXI@Z:PROC			; CAr::CheckBuf
EXTRN	?WriteString@CAr@@QAEXPBD@Z:PROC		; CAr::WriteString
EXTRN	?ReadString@CAr@@QAEPADPADH@Z:PROC		; CAr::ReadString
EXTRN	??0CMiniGameBase@@QAE@XZ:PROC			; CMiniGameBase::CMiniGameBase
EXTRN	??1CMiniGameBase@@UAE@XZ:PROC			; CMiniGameBase::~CMiniGameBase
EXTRN	?SendExtPacket@CMiniGameBase@@QAEXPAVCUser@@U__MINIGAME_EXT_PACKET@@@Z:PROC ; CMiniGameBase::SendExtPacket
EXTRN	??_ECMiniGameTyping@@UAEPAXI@Z:PROC		; CMiniGameTyping::`vector deleting destructor'
EXTRN	@__security_check_cookie@4:PROC
EXTRN	__CxxThrowException@8:PROC
EXTRN	___CxxFrameHandler3:PROC
EXTRN	_memcpy:PROC
EXTRN	_memmove:PROC
EXTRN	_memset:PROC
EXTRN	??_7type_info@@6B@:QWORD			; type_info::`vftable'
EXTRN	?g_next@@3KA:DWORD				; g_next
EXTRN	___security_cookie:DWORD
;	COMDAT ??_R2CMiniGameBase@@8
rdata$r	SEGMENT
??_R2CMiniGameBase@@8 DD FLAT:??_R1A@?0A@EA@CMiniGameBase@@8 ; CMiniGameBase::`RTTI Base Class Array'
rdata$r	ENDS
;	COMDAT ??_R3CMiniGameBase@@8
rdata$r	SEGMENT
??_R3CMiniGameBase@@8 DD 00H				; CMiniGameBase::`RTTI Class Hierarchy Descriptor'
	DD	00H
	DD	01H
	DD	FLAT:??_R2CMiniGameBase@@8
rdata$r	ENDS
;	COMDAT ??_R0?AVCMiniGameBase@@@8
data$rs	SEGMENT
??_R0?AVCMiniGameBase@@@8 DD FLAT:??_7type_info@@6B@	; CMiniGameBase `RTTI Type Descriptor'
	DD	00H
	DB	'.?AVCMiniGameBase@@', 00H
data$rs	ENDS
;	COMDAT ??_R1A@?0A@EA@CMiniGameBase@@8
rdata$r	SEGMENT
??_R1A@?0A@EA@CMiniGameBase@@8 DD FLAT:??_R0?AVCMiniGameBase@@@8 ; CMiniGameBase::`RTTI Base Class Descriptor at (0,-1,0,64)'
	DD	00H
	DD	00H
	DD	0ffffffffH
	DD	00H
	DD	040H
	DD	FLAT:??_R3CMiniGameBase@@8
rdata$r	ENDS
;	COMDAT ??_R1A@?0A@EA@CMiniGameTyping@@8
rdata$r	SEGMENT
??_R1A@?0A@EA@CMiniGameTyping@@8 DD FLAT:??_R0?AVCMiniGameTyping@@@8 ; CMiniGameTyping::`RTTI Base Class Descriptor at (0,-1,0,64)'
	DD	01H
	DD	00H
	DD	0ffffffffH
	DD	00H
	DD	040H
	DD	FLAT:??_R3CMiniGameTyping@@8
rdata$r	ENDS
;	COMDAT ??_R2CMiniGameTyping@@8
rdata$r	SEGMENT
??_R2CMiniGameTyping@@8 DD FLAT:??_R1A@?0A@EA@CMiniGameTyping@@8 ; CMiniGameTyping::`RTTI Base Class Array'
	DD	FLAT:??_R1A@?0A@EA@CMiniGameBase@@8
rdata$r	ENDS
;	COMDAT ??_R3CMiniGameTyping@@8
rdata$r	SEGMENT
??_R3CMiniGameTyping@@8 DD 00H				; CMiniGameTyping::`RTTI Class Hierarchy Descriptor'
	DD	00H
	DD	02H
	DD	FLAT:??_R2CMiniGameTyping@@8
rdata$r	ENDS
;	COMDAT ??_R0?AVCMiniGameTyping@@@8
data$rs	SEGMENT
??_R0?AVCMiniGameTyping@@@8 DD FLAT:??_7type_info@@6B@	; CMiniGameTyping `RTTI Type Descriptor'
	DD	00H
	DB	'.?AVCMiniGameTyping@@', 00H
data$rs	ENDS
;	COMDAT ??_R4CMiniGameTyping@@6B@
rdata$r	SEGMENT
??_R4CMiniGameTyping@@6B@ DD 00H			; CMiniGameTyping::`RTTI Complete Object Locator'
	DD	00H
	DD	00H
	DD	FLAT:??_R0?AVCMiniGameTyping@@@8
	DD	FLAT:??_R3CMiniGameTyping@@8
rdata$r	ENDS
;	COMDAT ??_R1A@?0A@EA@__MINIGAME_EXT_PACKET@@8
rdata$r	SEGMENT
??_R1A@?0A@EA@__MINIGAME_EXT_PACKET@@8 DD FLAT:??_R0?AU__MINIGAME_EXT_PACKET@@@8 ; __MINIGAME_EXT_PACKET::`RTTI Base Class Descriptor at (0,-1,0,64)'
	DD	01H
	DD	00H
	DD	0ffffffffH
	DD	00H
	DD	040H
	DD	FLAT:??_R3__MINIGAME_EXT_PACKET@@8
rdata$r	ENDS
;	COMDAT ??_R2__MINIGAME_EXT_PACKET@@8
rdata$r	SEGMENT
??_R2__MINIGAME_EXT_PACKET@@8 DD FLAT:??_R1A@?0A@EA@__MINIGAME_EXT_PACKET@@8 ; __MINIGAME_EXT_PACKET::`RTTI Base Class Array'
	DD	FLAT:??_R1A@?0A@EA@__MINIGAME_PACKET@@8
rdata$r	ENDS
;	COMDAT ??_R3__MINIGAME_EXT_PACKET@@8
rdata$r	SEGMENT
??_R3__MINIGAME_EXT_PACKET@@8 DD 00H			; __MINIGAME_EXT_PACKET::`RTTI Class Hierarchy Descriptor'
	DD	00H
	DD	02H
	DD	FLAT:??_R2__MINIGAME_EXT_PACKET@@8
rdata$r	ENDS
;	COMDAT ??_R0?AU__MINIGAME_EXT_PACKET@@@8
data$rs	SEGMENT
??_R0?AU__MINIGAME_EXT_PACKET@@@8 DD FLAT:??_7type_info@@6B@ ; __MINIGAME_EXT_PACKET `RTTI Type Descriptor'
	DD	00H
	DB	'.?AU__MINIGAME_EXT_PACKET@@', 00H
data$rs	ENDS
;	COMDAT ??_R4__MINIGAME_EXT_PACKET@@6B@
rdata$r	SEGMENT
??_R4__MINIGAME_EXT_PACKET@@6B@ DD 00H			; __MINIGAME_EXT_PACKET::`RTTI Complete Object Locator'
	DD	00H
	DD	00H
	DD	FLAT:??_R0?AU__MINIGAME_EXT_PACKET@@@8
	DD	FLAT:??_R3__MINIGAME_EXT_PACKET@@8
rdata$r	ENDS
;	COMDAT ??_R1A@?0A@EA@__MINIGAME_PACKET@@8
rdata$r	SEGMENT
??_R1A@?0A@EA@__MINIGAME_PACKET@@8 DD FLAT:??_R0?AU__MINIGAME_PACKET@@@8 ; __MINIGAME_PACKET::`RTTI Base Class Descriptor at (0,-1,0,64)'
	DD	00H
	DD	00H
	DD	0ffffffffH
	DD	00H
	DD	040H
	DD	FLAT:??_R3__MINIGAME_PACKET@@8
rdata$r	ENDS
;	COMDAT ??_R2__MINIGAME_PACKET@@8
rdata$r	SEGMENT
??_R2__MINIGAME_PACKET@@8 DD FLAT:??_R1A@?0A@EA@__MINIGAME_PACKET@@8 ; __MINIGAME_PACKET::`RTTI Base Class Array'
rdata$r	ENDS
;	COMDAT ??_R3__MINIGAME_PACKET@@8
rdata$r	SEGMENT
??_R3__MINIGAME_PACKET@@8 DD 00H			; __MINIGAME_PACKET::`RTTI Class Hierarchy Descriptor'
	DD	00H
	DD	01H
	DD	FLAT:??_R2__MINIGAME_PACKET@@8
rdata$r	ENDS
;	COMDAT ??_R0?AU__MINIGAME_PACKET@@@8
data$rs	SEGMENT
??_R0?AU__MINIGAME_PACKET@@@8 DD FLAT:??_7type_info@@6B@ ; __MINIGAME_PACKET `RTTI Type Descriptor'
	DD	00H
	DB	'.?AU__MINIGAME_PACKET@@', 00H
data$rs	ENDS
;	COMDAT ??_R4__MINIGAME_PACKET@@6B@
rdata$r	SEGMENT
??_R4__MINIGAME_PACKET@@6B@ DD 00H			; __MINIGAME_PACKET::`RTTI Complete Object Locator'
	DD	00H
	DD	00H
	DD	FLAT:??_R0?AU__MINIGAME_PACKET@@@8
	DD	FLAT:??_R3__MINIGAME_PACKET@@8
rdata$r	ENDS
;	COMDAT ??_7CMiniGameTyping@@6B@
CONST	SEGMENT
??_7CMiniGameTyping@@6B@ DD FLAT:??_R4CMiniGameTyping@@6B@ ; CMiniGameTyping::`vftable'
	DD	FLAT:??_ECMiniGameTyping@@UAEPAXI@Z
	DD	FLAT:?Excute@CMiniGameTyping@@UAEHPAVCUser@@PAU__MINIGAME_PACKET@@@Z
CONST	ENDS
;	COMDAT ??_7__MINIGAME_EXT_PACKET@@6B@
CONST	SEGMENT
??_7__MINIGAME_EXT_PACKET@@6B@ DD FLAT:??_R4__MINIGAME_EXT_PACKET@@6B@ ; __MINIGAME_EXT_PACKET::`vftable'
	DD	FLAT:?Serialize@__MINIGAME_EXT_PACKET@@UAEXAAVCAr@@@Z
CONST	ENDS
;	COMDAT ??_7__MINIGAME_PACKET@@6B@
CONST	SEGMENT
??_7__MINIGAME_PACKET@@6B@ DD FLAT:??_R4__MINIGAME_PACKET@@6B@ ; __MINIGAME_PACKET::`vftable'
	DD	FLAT:?Serialize@__MINIGAME_PACKET@@UAEXAAVCAr@@@Z
CONST	ENDS
;	COMDAT ??_R4bad_alloc@std@@6B@
rdata$r	SEGMENT
??_R4bad_alloc@std@@6B@ DD 00H				; std::bad_alloc::`RTTI Complete Object Locator'
	DD	00H
	DD	00H
	DD	FLAT:??_R0?AVbad_alloc@std@@@8
	DD	FLAT:??_R3bad_alloc@std@@8
rdata$r	ENDS
;	COMDAT ??_R2bad_alloc@std@@8
rdata$r	SEGMENT
??_R2bad_alloc@std@@8 DD FLAT:??_R1A@?0A@EA@bad_alloc@std@@8 ; std::bad_alloc::`RTTI Base Class Array'
	DD	FLAT:??_R1A@?0A@EA@exception@std@@8
rdata$r	ENDS
;	COMDAT ??_R3bad_alloc@std@@8
rdata$r	SEGMENT
??_R3bad_alloc@std@@8 DD 00H				; std::bad_alloc::`RTTI Class Hierarchy Descriptor'
	DD	00H
	DD	02H
	DD	FLAT:??_R2bad_alloc@std@@8
rdata$r	ENDS
;	COMDAT ??_R1A@?0A@EA@bad_alloc@std@@8
rdata$r	SEGMENT
??_R1A@?0A@EA@bad_alloc@std@@8 DD FLAT:??_R0?AVbad_alloc@std@@@8 ; std::bad_alloc::`RTTI Base Class Descriptor at (0,-1,0,64)'
	DD	01H
	DD	00H
	DD	0ffffffffH
	DD	00H
	DD	040H
	DD	FLAT:??_R3bad_alloc@std@@8
rdata$r	ENDS
;	COMDAT ??_R1A@?0A@EA@bad_array_new_length@std@@8
rdata$r	SEGMENT
??_R1A@?0A@EA@bad_array_new_length@std@@8 DD FLAT:??_R0?AVbad_array_new_length@std@@@8 ; std::bad_array_new_length::`RTTI Base Class Descriptor at (0,-1,0,64)'
	DD	02H
	DD	00H
	DD	0ffffffffH
	DD	00H
	DD	040H
	DD	FLAT:??_R3bad_array_new_length@std@@8
rdata$r	ENDS
;	COMDAT ??_R2bad_array_new_length@std@@8
rdata$r	SEGMENT
??_R2bad_array_new_length@std@@8 DD FLAT:??_R1A@?0A@EA@bad_array_new_length@std@@8 ; std::bad_array_new_length::`RTTI Base Class Array'
	DD	FLAT:??_R1A@?0A@EA@bad_alloc@std@@8
	DD	FLAT:??_R1A@?0A@EA@exception@std@@8
rdata$r	ENDS
;	COMDAT ??_R3bad_array_new_length@std@@8
rdata$r	SEGMENT
??_R3bad_array_new_length@std@@8 DD 00H			; std::bad_array_new_length::`RTTI Class Hierarchy Descriptor'
	DD	00H
	DD	03H
	DD	FLAT:??_R2bad_array_new_length@std@@8
rdata$r	ENDS
;	COMDAT ??_R4bad_array_new_length@std@@6B@
rdata$r	SEGMENT
??_R4bad_array_new_length@std@@6B@ DD 00H		; std::bad_array_new_length::`RTTI Complete Object Locator'
	DD	00H
	DD	00H
	DD	FLAT:??_R0?AVbad_array_new_length@std@@@8
	DD	FLAT:??_R3bad_array_new_length@std@@8
rdata$r	ENDS
;	COMDAT ??_R1A@?0A@EA@exception@std@@8
rdata$r	SEGMENT
??_R1A@?0A@EA@exception@std@@8 DD FLAT:??_R0?AVexception@std@@@8 ; std::exception::`RTTI Base Class Descriptor at (0,-1,0,64)'
	DD	00H
	DD	00H
	DD	0ffffffffH
	DD	00H
	DD	040H
	DD	FLAT:??_R3exception@std@@8
rdata$r	ENDS
;	COMDAT ??_R2exception@std@@8
rdata$r	SEGMENT
??_R2exception@std@@8 DD FLAT:??_R1A@?0A@EA@exception@std@@8 ; std::exception::`RTTI Base Class Array'
rdata$r	ENDS
;	COMDAT ??_R3exception@std@@8
rdata$r	SEGMENT
??_R3exception@std@@8 DD 00H				; std::exception::`RTTI Class Hierarchy Descriptor'
	DD	00H
	DD	01H
	DD	FLAT:??_R2exception@std@@8
rdata$r	ENDS
;	COMDAT ??_R4exception@std@@6B@
rdata$r	SEGMENT
??_R4exception@std@@6B@ DD 00H				; std::exception::`RTTI Complete Object Locator'
	DD	00H
	DD	00H
	DD	FLAT:??_R0?AVexception@std@@@8
	DD	FLAT:??_R3exception@std@@8
rdata$r	ENDS
;	COMDAT ??_C@_0BA@FOIKENOD@vector?5too?5long@
CONST	SEGMENT
??_C@_0BA@FOIKENOD@vector?5too?5long@ DB 'vector too long', 00H ; `string'
CONST	ENDS
;	COMDAT ??_C@_0BA@JFNIOLAK@string?5too?5long@
CONST	SEGMENT
??_C@_0BA@JFNIOLAK@string?5too?5long@ DB 'string too long', 00H ; `string'
CONST	ENDS
;	COMDAT __CT??_R0?AVbad_alloc@std@@@8??0bad_alloc@std@@QAE@ABV01@@Z12
xdata$x	SEGMENT
__CT??_R0?AVbad_alloc@std@@@8??0bad_alloc@std@@QAE@ABV01@@Z12 DD 010H
	DD	FLAT:??_R0?AVbad_alloc@std@@@8
	DD	00H
	DD	0ffffffffH
	ORG $+4
	DD	0cH
	DD	FLAT:??0bad_alloc@std@@QAE@ABV01@@Z
xdata$x	ENDS
;	COMDAT ??_R0?AVbad_alloc@std@@@8
data$r	SEGMENT
??_R0?AVbad_alloc@std@@@8 DD FLAT:??_7type_info@@6B@	; std::bad_alloc `RTTI Type Descriptor'
	DD	00H
	DB	'.?AVbad_alloc@std@@', 00H
data$r	ENDS
;	COMDAT __CT??_R0?AVbad_array_new_length@std@@@8??0bad_array_new_length@std@@QAE@ABV01@@Z12
xdata$x	SEGMENT
__CT??_R0?AVbad_array_new_length@std@@@8??0bad_array_new_length@std@@QAE@ABV01@@Z12 DD 00H
	DD	FLAT:??_R0?AVbad_array_new_length@std@@@8
	DD	00H
	DD	0ffffffffH
	ORG $+4
	DD	0cH
	DD	FLAT:??0bad_array_new_length@std@@QAE@ABV01@@Z
xdata$x	ENDS
;	COMDAT ??_R0?AVbad_array_new_length@std@@@8
data$r	SEGMENT
??_R0?AVbad_array_new_length@std@@@8 DD FLAT:??_7type_info@@6B@ ; std::bad_array_new_length `RTTI Type Descriptor'
	DD	00H
	DB	'.?AVbad_array_new_length@std@@', 00H
data$r	ENDS
;	COMDAT __CTA3?AVbad_array_new_length@std@@
xdata$x	SEGMENT
__CTA3?AVbad_array_new_length@std@@ DD 03H
	DD	FLAT:__CT??_R0?AVbad_array_new_length@std@@@8??0bad_array_new_length@std@@QAE@ABV01@@Z12
	DD	FLAT:__CT??_R0?AVbad_alloc@std@@@8??0bad_alloc@std@@QAE@ABV01@@Z12
	DD	FLAT:__CT??_R0?AVexception@std@@@8??0exception@std@@QAE@ABV01@@Z12
xdata$x	ENDS
;	COMDAT __TI3?AVbad_array_new_length@std@@
xdata$x	SEGMENT
__TI3?AVbad_array_new_length@std@@ DD 00H
	DD	FLAT:??1bad_array_new_length@std@@UAE@XZ
	DD	00H
	DD	FLAT:__CTA3?AVbad_array_new_length@std@@
xdata$x	ENDS
;	COMDAT __CT??_R0?AVexception@std@@@8??0exception@std@@QAE@ABV01@@Z12
xdata$x	SEGMENT
__CT??_R0?AVexception@std@@@8??0exception@std@@QAE@ABV01@@Z12 DD 00H
	DD	FLAT:??_R0?AVexception@std@@@8
	DD	00H
	DD	0ffffffffH
	ORG $+4
	DD	0cH
	DD	FLAT:??0exception@std@@QAE@ABV01@@Z
xdata$x	ENDS
;	COMDAT ??_R0?AVexception@std@@@8
data$r	SEGMENT
??_R0?AVexception@std@@@8 DD FLAT:??_7type_info@@6B@	; std::exception `RTTI Type Descriptor'
	DD	00H
	DB	'.?AVexception@std@@', 00H
data$r	ENDS
;	COMDAT ??_C@_0BF@KINCDENJ@bad?5array?5new?5length@
CONST	SEGMENT
??_C@_0BF@KINCDENJ@bad?5array?5new?5length@ DB 'bad array new length', 00H ; `string'
CONST	ENDS
;	COMDAT ??_7bad_array_new_length@std@@6B@
CONST	SEGMENT
??_7bad_array_new_length@std@@6B@ DD FLAT:??_R4bad_array_new_length@std@@6B@ ; std::bad_array_new_length::`vftable'
	DD	FLAT:??_Ebad_array_new_length@std@@UAEPAXI@Z
	DD	FLAT:?what@exception@std@@UBEPBDXZ
CONST	ENDS
;	COMDAT ??_7bad_alloc@std@@6B@
CONST	SEGMENT
??_7bad_alloc@std@@6B@ DD FLAT:??_R4bad_alloc@std@@6B@	; std::bad_alloc::`vftable'
	DD	FLAT:??_Ebad_alloc@std@@UAEPAXI@Z
	DD	FLAT:?what@exception@std@@UBEPBDXZ
CONST	ENDS
;	COMDAT ??_C@_0BC@EOODALEL@Unknown?5exception@
CONST	SEGMENT
??_C@_0BC@EOODALEL@Unknown?5exception@ DB 'Unknown exception', 00H ; `string'
CONST	ENDS
;	COMDAT ??_7exception@std@@6B@
CONST	SEGMENT
??_7exception@std@@6B@ DD FLAT:??_R4exception@std@@6B@	; std::exception::`vftable'
	DD	FLAT:??_Eexception@std@@UAEPAXI@Z
	DD	FLAT:?what@exception@std@@UBEPBDXZ
CONST	ENDS
;	COMDAT xdata$x
xdata$x	SEGMENT
__unwindtable$??$_Uninitialized_copy@PAV?$basic_string@DU?$char_traits@D@std@@V?$allocator@D@2@@std@@PAV12@V?$allocator@V?$basic_string@DU?$char_traits@D@std@@V?$allocator@D@2@@std@@@2@@std@@YAPAV?$basic_string@DU?$char_traits@D@std@@V?$allocator@D@2@@0@PAV10@00AAV?$allocator@V?$basic_string@DU?$char_traits@D@std@@V?$allocator@D@2@@std@@@0@@Z DD 0ffffffffH
	DD	FLAT:__unwindfunclet$??$_Uninitialized_copy@PAV?$basic_string@DU?$char_traits@D@std@@V?$allocator@D@2@@std@@PAV12@V?$allocator@V?$basic_string@DU?$char_traits@D@std@@V?$allocator@D@2@@std@@@2@@std@@YAPAV?$basic_string@DU?$char_traits@D@std@@V?$allocator@D@2@@0@PAV10@00AAV?$allocator@V?$basic_string@DU?$char_traits@D@std@@V?$allocator@D@2@@std@@@0@@Z$0
__ehfuncinfo$??$_Uninitialized_copy@PAV?$basic_string@DU?$char_traits@D@std@@V?$allocator@D@2@@std@@PAV12@V?$allocator@V?$basic_string@DU?$char_traits@D@std@@V?$allocator@D@2@@std@@@2@@std@@YAPAV?$basic_string@DU?$char_traits@D@std@@V?$allocator@D@2@@0@PAV10@00AAV?$allocator@V?$basic_string@DU?$char_traits@D@std@@V?$allocator@D@2@@std@@@0@@Z DD 019930522H
	DD	01H
	DD	FLAT:__unwindtable$??$_Uninitialized_copy@PAV?$basic_string@DU?$char_traits@D@std@@V?$allocator@D@2@@std@@PAV12@V?$allocator@V?$basic_string@DU?$char_traits@D@std@@V?$allocator@D@2@@std@@@2@@std@@YAPAV?$basic_string@DU?$char_traits@D@std@@V?$allocator@D@2@@0@PAV10@00AAV?$allocator@V?$basic_string@DU?$char_traits@D@std@@V?$allocator@D@2@@std@@@0@@Z
	DD	2 DUP(00H)
	DD	2 DUP(00H)
	DD	00H
	DD	01H
xdata$x	ENDS
;	COMDAT xdata$x
xdata$x	SEGMENT
__unwindtable$??$_Emplace_reallocate@ABV?$basic_string@DU?$char_traits@D@std@@V?$allocator@D@2@@std@@@?$vector@V?$basic_string@DU?$char_traits@D@std@@V?$allocator@D@2@@std@@V?$allocator@V?$basic_string@DU?$char_traits@D@std@@V?$allocator@D@2@@std@@@2@@std@@AAEPAV?$basic_string@DU?$char_traits@D@std@@V?$allocator@D@2@@1@QAV21@ABV21@@Z DD 0ffffffffH
	DD	FLAT:__unwindfunclet$??$_Emplace_reallocate@ABV?$basic_string@DU?$char_traits@D@std@@V?$allocator@D@2@@std@@@?$vector@V?$basic_string@DU?$char_traits@D@std@@V?$allocator@D@2@@std@@V?$allocator@V?$basic_string@DU?$char_traits@D@std@@V?$allocator@D@2@@std@@@2@@std@@AAEPAV?$basic_string@DU?$char_traits@D@std@@V?$allocator@D@2@@1@QAV21@ABV21@@Z$0
__ehfuncinfo$??$_Emplace_reallocate@ABV?$basic_string@DU?$char_traits@D@std@@V?$allocator@D@2@@std@@@?$vector@V?$basic_string@DU?$char_traits@D@std@@V?$allocator@D@2@@std@@V?$allocator@V?$basic_string@DU?$char_traits@D@std@@V?$allocator@D@2@@std@@@2@@std@@AAEPAV?$basic_string@DU?$char_traits@D@std@@V?$allocator@D@2@@1@QAV21@ABV21@@Z DD 019930522H
	DD	01H
	DD	FLAT:__unwindtable$??$_Emplace_reallocate@ABV?$basic_string@DU?$char_traits@D@std@@V?$allocator@D@2@@std@@@?$vector@V?$basic_string@DU?$char_traits@D@std@@V?$allocator@D@2@@std@@V?$allocator@V?$basic_string@DU?$char_traits@D@std@@V?$allocator@D@2@@std@@@2@@std@@AAEPAV?$basic_string@DU?$char_traits@D@std@@V?$allocator@D@2@@1@QAV21@ABV21@@Z
	DD	2 DUP(00H)
	DD	2 DUP(00H)
	DD	00H
	DD	01H
xdata$x	ENDS
;	COMDAT xdata$x
xdata$x	SEGMENT
__unwindtable$??$_Uninitialized_copy_n@PAV?$basic_string@DU?$char_traits@D@std@@V?$allocator@D@2@@std@@V?$allocator@V?$basic_string@DU?$char_traits@D@std@@V?$allocator@D@2@@std@@@2@@std@@YAPAV?$basic_string@DU?$char_traits@D@std@@V?$allocator@D@2@@0@PAV10@I0AAV?$allocator@V?$basic_string@DU?$char_traits@D@std@@V?$allocator@D@2@@std@@@0@@Z DD 0ffffffffH
	DD	FLAT:__unwindfunclet$??$_Uninitialized_copy_n@PAV?$basic_string@DU?$char_traits@D@std@@V?$allocator@D@2@@std@@V?$allocator@V?$basic_string@DU?$char_traits@D@std@@V?$allocator@D@2@@std@@@2@@std@@YAPAV?$basic_string@DU?$char_traits@D@std@@V?$allocator@D@2@@0@PAV10@I0AAV?$allocator@V?$basic_string@DU?$char_traits@D@std@@V?$allocator@D@2@@std@@@0@@Z$0
__ehfuncinfo$??$_Uninitialized_copy_n@PAV?$basic_string@DU?$char_traits@D@std@@V?$allocator@D@2@@std@@V?$allocator@V?$basic_string@DU?$char_traits@D@std@@V?$allocator@D@2@@std@@@2@@std@@YAPAV?$basic_string@DU?$char_traits@D@std@@V?$allocator@D@2@@0@PAV10@I0AAV?$allocator@V?$basic_string@DU?$char_traits@D@std@@V?$allocator@D@2@@std@@@0@@Z DD 019930522H
	DD	01H
	DD	FLAT:__unwindtable$??$_Uninitialized_copy_n@PAV?$basic_string@DU?$char_traits@D@std@@V?$allocator@D@2@@std@@V?$allocator@V?$basic_string@DU?$char_traits@D@std@@V?$allocator@D@2@@std@@@2@@std@@YAPAV?$basic_string@DU?$char_traits@D@std@@V?$allocator@D@2@@0@PAV10@I0AAV?$allocator@V?$basic_string@DU?$char_traits@D@std@@V?$allocator@D@2@@std@@@0@@Z
	DD	2 DUP(00H)
	DD	2 DUP(00H)
	DD	00H
	DD	01H
xdata$x	ENDS
;	COMDAT xdata$x
xdata$x	SEGMENT
__unwindtable$??$_Construct_n@ABQAV?$basic_string@DU?$char_traits@D@std@@V?$allocator@D@2@@std@@ABQAV12@@?$vector@V?$basic_string@DU?$char_traits@D@std@@V?$allocator@D@2@@std@@V?$allocator@V?$basic_string@DU?$char_traits@D@std@@V?$allocator@D@2@@std@@@2@@std@@AAEXIABQAV?$basic_string@DU?$char_traits@D@std@@V?$allocator@D@2@@1@0@Z DD 0ffffffffH
	DD	FLAT:__unwindfunclet$??$_Construct_n@ABQAV?$basic_string@DU?$char_traits@D@std@@V?$allocator@D@2@@std@@ABQAV12@@?$vector@V?$basic_string@DU?$char_traits@D@std@@V?$allocator@D@2@@std@@V?$allocator@V?$basic_string@DU?$char_traits@D@std@@V?$allocator@D@2@@std@@@2@@std@@AAEXIABQAV?$basic_string@DU?$char_traits@D@std@@V?$allocator@D@2@@1@0@Z$0
	DD	00H
	DD	FLAT:__unwindfunclet$??$_Construct_n@ABQAV?$basic_string@DU?$char_traits@D@std@@V?$allocator@D@2@@std@@ABQAV12@@?$vector@V?$basic_string@DU?$char_traits@D@std@@V?$allocator@D@2@@std@@V?$allocator@V?$basic_string@DU?$char_traits@D@std@@V?$allocator@D@2@@std@@@2@@std@@AAEXIABQAV?$basic_string@DU?$char_traits@D@std@@V?$allocator@D@2@@1@0@Z$1
__ehfuncinfo$??$_Construct_n@ABQAV?$basic_string@DU?$char_traits@D@std@@V?$allocator@D@2@@std@@ABQAV12@@?$vector@V?$basic_string@DU?$char_traits@D@std@@V?$allocator@D@2@@std@@V?$allocator@V?$basic_string@DU?$char_traits@D@std@@V?$allocator@D@2@@std@@@2@@std@@AAEXIABQAV?$basic_string@DU?$char_traits@D@std@@V?$allocator@D@2@@1@0@Z DD 019930522H
	DD	02H
	DD	FLAT:__unwindtable$??$_Construct_n@ABQAV?$basic_string@DU?$char_traits@D@std@@V?$allocator@D@2@@std@@ABQAV12@@?$vector@V?$basic_string@DU?$char_traits@D@std@@V?$allocator@D@2@@std@@V?$allocator@V?$basic_string@DU?$char_traits@D@std@@V?$allocator@D@2@@std@@@2@@std@@AAEXIABQAV?$basic_string@DU?$char_traits@D@std@@V?$allocator@D@2@@1@0@Z
	DD	2 DUP(00H)
	DD	2 DUP(00H)
	DD	00H
	DD	01H
xdata$x	ENDS
;	COMDAT xdata$x
xdata$x	SEGMENT
__unwindtable$??$_Assign_counted_range@PAV?$basic_string@DU?$char_traits@D@std@@V?$allocator@D@2@@std@@@?$vector@V?$basic_string@DU?$char_traits@D@std@@V?$allocator@D@2@@std@@V?$allocator@V?$basic_string@DU?$char_traits@D@std@@V?$allocator@D@2@@std@@@2@@std@@AAEXPAV?$basic_string@DU?$char_traits@D@std@@V?$allocator@D@2@@1@I@Z DD 0ffffffffH
	DD	FLAT:__unwindfunclet$??$_Assign_counted_range@PAV?$basic_string@DU?$char_traits@D@std@@V?$allocator@D@2@@std@@@?$vector@V?$basic_string@DU?$char_traits@D@std@@V?$allocator@D@2@@std@@V?$allocator@V?$basic_string@DU?$char_traits@D@std@@V?$allocator@D@2@@std@@@2@@std@@AAEXPAV?$basic_string@DU?$char_traits@D@std@@V?$allocator@D@2@@1@I@Z$0
__ehfuncinfo$??$_Assign_counted_range@PAV?$basic_string@DU?$char_traits@D@std@@V?$allocator@D@2@@std@@@?$vector@V?$basic_string@DU?$char_traits@D@std@@V?$allocator@D@2@@std@@V?$allocator@V?$basic_string@DU?$char_traits@D@std@@V?$allocator@D@2@@std@@@2@@std@@AAEXPAV?$basic_string@DU?$char_traits@D@std@@V?$allocator@D@2@@1@I@Z DD 019930522H
	DD	01H
	DD	FLAT:__unwindtable$??$_Assign_counted_range@PAV?$basic_string@DU?$char_traits@D@std@@V?$allocator@D@2@@std@@@?$vector@V?$basic_string@DU?$char_traits@D@std@@V?$allocator@D@2@@std@@V?$allocator@V?$basic_string@DU?$char_traits@D@std@@V?$allocator@D@2@@std@@@2@@std@@AAEXPAV?$basic_string@DU?$char_traits@D@std@@V?$allocator@D@2@@1@I@Z
	DD	2 DUP(00H)
	DD	2 DUP(00H)
	DD	00H
	DD	01H
xdata$x	ENDS
;	COMDAT xdata$x
xdata$x	SEGMENT
__unwindtable$?MakeQuestion@CMiniGameTyping@@AAEXXZ DD 0ffffffffH
	DD	FLAT:__unwindfunclet$?MakeQuestion@CMiniGameTyping@@AAEXXZ$0
__ehfuncinfo$?MakeQuestion@CMiniGameTyping@@AAEXXZ DD 019930522H
	DD	01H
	DD	FLAT:__unwindtable$?MakeQuestion@CMiniGameTyping@@AAEXXZ
	DD	2 DUP(00H)
	DD	2 DUP(00H)
	DD	00H
	DD	01H
xdata$x	ENDS
;	COMDAT xdata$x
xdata$x	SEGMENT
__unwindtable$?Excute@CMiniGameTyping@@UAEHPAVCUser@@PAU__MINIGAME_PACKET@@@Z DD 0ffffffffH
	DD	FLAT:__unwindfunclet$?Excute@CMiniGameTyping@@UAEHPAVCUser@@PAU__MINIGAME_PACKET@@@Z$0
__ehfuncinfo$?Excute@CMiniGameTyping@@UAEHPAVCUser@@PAU__MINIGAME_PACKET@@@Z DD 019930522H
	DD	01H
	DD	FLAT:__unwindtable$?Excute@CMiniGameTyping@@UAEHPAVCUser@@PAU__MINIGAME_PACKET@@@Z
	DD	2 DUP(00H)
	DD	2 DUP(00H)
	DD	00H
	DD	01H
xdata$x	ENDS
;	COMDAT xdata$x
xdata$x	SEGMENT
__unwindtable$??0__MINIGAME_EXT_PACKET@@QAE@ABU0@@Z DD 0ffffffffH
	DD	FLAT:__unwindfunclet$??0__MINIGAME_EXT_PACKET@@QAE@ABU0@@Z$1
	DD	00H
	DD	FLAT:__unwindfunclet$??0__MINIGAME_EXT_PACKET@@QAE@ABU0@@Z$2
__ehfuncinfo$??0__MINIGAME_EXT_PACKET@@QAE@ABU0@@Z DD 019930522H
	DD	02H
	DD	FLAT:__unwindtable$??0__MINIGAME_EXT_PACKET@@QAE@ABU0@@Z
	DD	2 DUP(00H)
	DD	2 DUP(00H)
	DD	00H
	DD	01H
xdata$x	ENDS
;	COMDAT xdata$x
xdata$x	SEGMENT
__unwindtable$?Serialize@__MINIGAME_EXT_PACKET@@UAEXAAVCAr@@@Z DD 0ffffffffH
	DD	FLAT:__unwindfunclet$?Serialize@__MINIGAME_EXT_PACKET@@UAEXAAVCAr@@@Z$0
__ehfuncinfo$?Serialize@__MINIGAME_EXT_PACKET@@UAEXAAVCAr@@@Z DD 019930522H
	DD	01H
	DD	FLAT:__unwindtable$?Serialize@__MINIGAME_EXT_PACKET@@UAEXAAVCAr@@@Z
	DD	2 DUP(00H)
	DD	2 DUP(00H)
	DD	00H
	DD	01H
xdata$x	ENDS
;	COMDAT xdata$x
xdata$x	SEGMENT
__unwindtable$??0?$vector@V?$basic_string@DU?$char_traits@D@std@@V?$allocator@D@2@@std@@V?$allocator@V?$basic_string@DU?$char_traits@D@std@@V?$allocator@D@2@@std@@@2@@std@@QAE@ABV01@@Z DD 0ffffffffH
	DD	FLAT:__unwindfunclet$??0?$vector@V?$basic_string@DU?$char_traits@D@std@@V?$allocator@D@2@@std@@V?$allocator@V?$basic_string@DU?$char_traits@D@std@@V?$allocator@D@2@@std@@@2@@std@@QAE@ABV01@@Z$0
	DD	00H
	DD	FLAT:__unwindfunclet$??0?$vector@V?$basic_string@DU?$char_traits@D@std@@V?$allocator@D@2@@std@@V?$allocator@V?$basic_string@DU?$char_traits@D@std@@V?$allocator@D@2@@std@@@2@@std@@QAE@ABV01@@Z$1
__ehfuncinfo$??0?$vector@V?$basic_string@DU?$char_traits@D@std@@V?$allocator@D@2@@std@@V?$allocator@V?$basic_string@DU?$char_traits@D@std@@V?$allocator@D@2@@std@@@2@@std@@QAE@ABV01@@Z DD 019930522H
	DD	02H
	DD	FLAT:__unwindtable$??0?$vector@V?$basic_string@DU?$char_traits@D@std@@V?$allocator@D@2@@std@@V?$allocator@V?$basic_string@DU?$char_traits@D@std@@V?$allocator@D@2@@std@@@2@@std@@QAE@ABV01@@Z
	DD	2 DUP(00H)
	DD	2 DUP(00H)
	DD	00H
	DD	01H
xdata$x	ENDS
; Function compile flags: /Ogtp
; File C:\Program Files\Microsoft Visual Studio\2022\Professional\VC\Tools\MSVC\14.44.35207\include\xmemory
; File C:\Program Files\Microsoft Visual Studio\2022\Professional\VC\Tools\MSVC\14.44.35207\include\xstring
; File C:\Program Files\Microsoft Visual Studio\2022\Professional\VC\Tools\MSVC\14.44.35207\include\xmemory
; File C:\Program Files\Microsoft Visual Studio\2022\Professional\VC\Tools\MSVC\14.44.35207\include\xstring
; File C:\Program Files\Microsoft Visual Studio\2022\Professional\VC\Tools\MSVC\14.44.35207\include\xmemory
;	COMDAT ??$_Uninitialized_move@PAV?$basic_string@DU?$char_traits@D@std@@V?$allocator@D@2@@std@@V?$allocator@V?$basic_string@DU?$char_traits@D@std@@V?$allocator@D@2@@std@@@2@@std@@YAPAV?$basic_string@DU?$char_traits@D@std@@V?$allocator@D@2@@0@QAV10@0PAV10@AAV?$allocator@V?$basic_string@DU?$char_traits@D@std@@V?$allocator@D@2@@std@@@0@@Z
_TEXT	SEGMENT
__First$ = 8						; size = 4
__Last$ = 12						; size = 4
__Dest$ = 16						; size = 4
__Al$ = 20						; size = 4
??$_Uninitialized_move@PAV?$basic_string@DU?$char_traits@D@std@@V?$allocator@D@2@@std@@V?$allocator@V?$basic_string@DU?$char_traits@D@std@@V?$allocator@D@2@@std@@@2@@std@@YAPAV?$basic_string@DU?$char_traits@D@std@@V?$allocator@D@2@@0@QAV10@0PAV10@AAV?$allocator@V?$basic_string@DU?$char_traits@D@std@@V?$allocator@D@2@@std@@@0@@Z PROC ; std::_Uninitialized_move<std::basic_string<char,std::char_traits<char>,std::allocator<char> > *,std::allocator<std::basic_string<char,std::char_traits<char>,std::allocator<char> > > >, COMDAT

; 1977 :     const _InIt _First, const _InIt _Last, _Alloc_ptr_t<_Alloc> _Dest, _Alloc& _Al) {

  00000	55		 push	 ebp
  00001	8b ec		 mov	 ebp, esp

; 1978 :     // move [_First, _Last) to raw _Dest, using _Al
; 1979 :     // note: only called internally from elsewhere in the STL
; 1980 : #ifdef _ENABLE_STL_INTERNAL_CHECK
; 1981 :     _STD _Adl_verify_range(_First, _Last);
; 1982 : #endif // ^^^ defined(_ENABLE_STL_INTERNAL_CHECK) ^^^
; 1983 :     using _Ptrval     = typename _Alloc::value_type*;
; 1984 :     auto _UFirst      = _STD _Get_unwrapped(_First);
; 1985 :     const auto _ULast = _STD _Get_unwrapped(_Last);
; 1986 :     if constexpr (conjunction_v<bool_constant<_Iter_move_cat<decltype(_UFirst), _Ptrval>::_Bitcopy_constructible>,
; 1987 :                       _Uses_default_construct<_Alloc, _Ptrval, decltype(_STD move(*_UFirst))>>) {
; 1988 : #if _HAS_CXX20
; 1989 :         if (!_STD is_constant_evaluated())
; 1990 : #endif // _HAS_CXX20
; 1991 :         {
; 1992 :             _STD _Copy_memmove(_UFirst, _ULast, _STD _Unfancy(_Dest));
; 1993 :             return _Dest + (_ULast - _UFirst);
; 1994 :         }
; 1995 :     }
; 1996 : 
; 1997 :     _Uninitialized_backout_al<_Alloc> _Backout{_Dest, _Al};
; 1998 :     for (; _UFirst != _ULast; ++_UFirst) {

  00003	8b 4d 08	 mov	 ecx, DWORD PTR __First$[ebp]

; 1833 :     _CONSTEXPR20 _Uninitialized_backout_al(pointer _Dest, _Alloc& _Al_) : _First(_Dest), _Last(_Dest), _Al(_Al_) {}

  00006	8b 45 10	 mov	 eax, DWORD PTR __Dest$[ebp]

; 1977 :     const _InIt _First, const _InIt _Last, _Alloc_ptr_t<_Alloc> _Dest, _Alloc& _Al) {

  00009	56		 push	 esi

; 1978 :     // move [_First, _Last) to raw _Dest, using _Al
; 1979 :     // note: only called internally from elsewhere in the STL
; 1980 : #ifdef _ENABLE_STL_INTERNAL_CHECK
; 1981 :     _STD _Adl_verify_range(_First, _Last);
; 1982 : #endif // ^^^ defined(_ENABLE_STL_INTERNAL_CHECK) ^^^
; 1983 :     using _Ptrval     = typename _Alloc::value_type*;
; 1984 :     auto _UFirst      = _STD _Get_unwrapped(_First);
; 1985 :     const auto _ULast = _STD _Get_unwrapped(_Last);
; 1986 :     if constexpr (conjunction_v<bool_constant<_Iter_move_cat<decltype(_UFirst), _Ptrval>::_Bitcopy_constructible>,
; 1987 :                       _Uses_default_construct<_Alloc, _Ptrval, decltype(_STD move(*_UFirst))>>) {
; 1988 : #if _HAS_CXX20
; 1989 :         if (!_STD is_constant_evaluated())
; 1990 : #endif // _HAS_CXX20
; 1991 :         {
; 1992 :             _STD _Copy_memmove(_UFirst, _ULast, _STD _Unfancy(_Dest));
; 1993 :             return _Dest + (_ULast - _UFirst);
; 1994 :         }
; 1995 :     }
; 1996 : 
; 1997 :     _Uninitialized_backout_al<_Alloc> _Backout{_Dest, _Al};
; 1998 :     for (; _UFirst != _ULast; ++_UFirst) {

  0000a	8b 75 0c	 mov	 esi, DWORD PTR __Last$[ebp]
  0000d	3b ce		 cmp	 ecx, esi
  0000f	74 4f		 je	 SHORT $LN3@Uninitiali

; 1833 :     _CONSTEXPR20 _Uninitialized_backout_al(pointer _Dest, _Alloc& _Al_) : _First(_Dest), _Last(_Dest), _Al(_Al_) {}

  00011	8b d0		 mov	 edx, eax
  00013	2b d1		 sub	 edx, ecx
  00015	66 66 66 0f 1f
	84 00 00 00 00
	00		 npad	 11
$LL4@Uninitiali:
  00020	0f 57 c0	 xorps	 xmm0, xmm0
; File C:\Program Files\Microsoft Visual Studio\2022\Professional\VC\Tools\MSVC\14.44.35207\include\xstring

; 493  :         _CONSTEXPR20 _Bxty() noexcept : _Buf() {} // user-provided, for fancy pointers

  00023	0f 11 00	 movups	 XMMWORD PTR [eax], xmm0

; 517  :     size_type _Mysize = 0; // current length of string (size)

  00026	c7 40 10 00 00
	00 00		 mov	 DWORD PTR [eax+16], 0

; 518  :     size_type _Myres  = 0; // current storage reserved for string (capacity)

  0002d	c7 44 0a 14 00
	00 00 00	 mov	 DWORD PTR [edx+ecx+20], 0

; 1286 :                 _CSTD memcpy(_My_data_mem, _Right_data_mem, _Memcpy_val_size);

  00035	0f 10 01	 movups	 xmm0, XMMWORD PTR [ecx]
  00038	0f 11 00	 movups	 XMMWORD PTR [eax], xmm0
  0003b	f3 0f 7e 41 10	 movq	 xmm0, QWORD PTR [ecx+16]
  00040	66 0f d6 40 10	 movq	 QWORD PTR [eax+16], xmm0
; File C:\Program Files\Microsoft Visual Studio\2022\Professional\VC\Tools\MSVC\14.44.35207\include\xmemory

; 1845 :         ++_Last;

  00045	83 c0 18	 add	 eax, 24			; 00000018H
; File C:\Program Files\Microsoft Visual Studio\2022\Professional\VC\Tools\MSVC\14.44.35207\include\xstring

; 1288 :                 _Right_data._Mysize = 0;

  00048	c7 41 10 00 00
	00 00		 mov	 DWORD PTR [ecx+16], 0

; 1289 :                 _Right_data._Myres  = _Small_string_capacity;

  0004f	c7 41 14 0f 00
	00 00		 mov	 DWORD PTR [ecx+20], 15	; 0000000fH

; 1290 :                 _Right_data._Activate_SSO_buffer();
; 1291 :                 _Traits::assign(_Right_data._Bx._Buf[0], _Elem());

  00056	c6 01 00	 mov	 BYTE PTR [ecx], 0
; File C:\Program Files\Microsoft Visual Studio\2022\Professional\VC\Tools\MSVC\14.44.35207\include\xmemory

; 1845 :         ++_Last;

  00059	83 c1 18	 add	 ecx, 24			; 00000018H

; 1978 :     // move [_First, _Last) to raw _Dest, using _Al
; 1979 :     // note: only called internally from elsewhere in the STL
; 1980 : #ifdef _ENABLE_STL_INTERNAL_CHECK
; 1981 :     _STD _Adl_verify_range(_First, _Last);
; 1982 : #endif // ^^^ defined(_ENABLE_STL_INTERNAL_CHECK) ^^^
; 1983 :     using _Ptrval     = typename _Alloc::value_type*;
; 1984 :     auto _UFirst      = _STD _Get_unwrapped(_First);
; 1985 :     const auto _ULast = _STD _Get_unwrapped(_Last);
; 1986 :     if constexpr (conjunction_v<bool_constant<_Iter_move_cat<decltype(_UFirst), _Ptrval>::_Bitcopy_constructible>,
; 1987 :                       _Uses_default_construct<_Alloc, _Ptrval, decltype(_STD move(*_UFirst))>>) {
; 1988 : #if _HAS_CXX20
; 1989 :         if (!_STD is_constant_evaluated())
; 1990 : #endif // _HAS_CXX20
; 1991 :         {
; 1992 :             _STD _Copy_memmove(_UFirst, _ULast, _STD _Unfancy(_Dest));
; 1993 :             return _Dest + (_ULast - _UFirst);
; 1994 :         }
; 1995 :     }
; 1996 : 
; 1997 :     _Uninitialized_backout_al<_Alloc> _Backout{_Dest, _Al};
; 1998 :     for (; _UFirst != _ULast; ++_UFirst) {

  0005c	3b ce		 cmp	 ecx, esi
  0005e	75 c0		 jne	 SHORT $LL4@Uninitiali
$LN3@Uninitiali:
  00060	5e		 pop	 esi

; 1999 :         _Backout._Emplace_back(_STD move(*_UFirst));
; 2000 :     }
; 2001 : 
; 2002 :     return _Backout._Release();
; 2003 : }

  00061	5d		 pop	 ebp
  00062	c3		 ret	 0
??$_Uninitialized_move@PAV?$basic_string@DU?$char_traits@D@std@@V?$allocator@D@2@@std@@V?$allocator@V?$basic_string@DU?$char_traits@D@std@@V?$allocator@D@2@@std@@@2@@std@@YAPAV?$basic_string@DU?$char_traits@D@std@@V?$allocator@D@2@@0@QAV10@0PAV10@AAV?$allocator@V?$basic_string@DU?$char_traits@D@std@@V?$allocator@D@2@@std@@@0@@Z ENDP ; std::_Uninitialized_move<std::basic_string<char,std::char_traits<char>,std::allocator<char> > *,std::allocator<std::basic_string<char,std::char_traits<char>,std::allocator<char> > > >
_TEXT	ENDS
; Function compile flags: /Ogtp
; File C:\Program Files\Microsoft Visual Studio\2022\Professional\VC\Tools\MSVC\14.44.35207\include\vector
; File C:\Program Files\Microsoft Visual Studio\2022\Professional\VC\Tools\MSVC\14.44.35207\include\xmemory
; File C:\Program Files\Microsoft Visual Studio\2022\Professional\VC\Tools\MSVC\14.44.35207\include\vector
; File C:\Program Files\Microsoft Visual Studio\2022\Professional\VC\Tools\MSVC\14.44.35207\include\xmemory
; File C:\Program Files\Microsoft Visual Studio\2022\Professional\VC\Tools\MSVC\14.44.35207\include\vector
;	COMDAT ??1_Reallocation_guard@?$vector@V?$basic_string@DU?$char_traits@D@std@@V?$allocator@D@2@@std@@V?$allocator@V?$basic_string@DU?$char_traits@D@std@@V?$allocator@D@2@@std@@@2@@std@@QAE@XZ
_TEXT	SEGMENT
??1_Reallocation_guard@?$vector@V?$basic_string@DU?$char_traits@D@std@@V?$allocator@D@2@@std@@V?$allocator@V?$basic_string@DU?$char_traits@D@std@@V?$allocator@D@2@@std@@@2@@std@@QAE@XZ PROC ; std::vector<std::basic_string<char,std::char_traits<char>,std::allocator<char> >,std::allocator<std::basic_string<char,std::char_traits<char>,std::allocator<char> > > >::_Reallocation_guard::~_Reallocation_guard, COMDAT
; _this$ = ecx

; 620  :         _CONSTEXPR20 ~_Reallocation_guard() noexcept {

  00000	53		 push	 ebx
  00001	8b d9		 mov	 ebx, ecx

; 621  :             if (_New_begin != nullptr) {

  00003	83 7b 04 00	 cmp	 DWORD PTR [ebx+4], 0
  00007	74 4c		 je	 SHORT $LN22@Reallocati

; 622  :                 _STD _Destroy_range(_Constructed_first, _Constructed_last, _Al);

  00009	56		 push	 esi
  0000a	8b 73 0c	 mov	 esi, DWORD PTR [ebx+12]
  0000d	57		 push	 edi
  0000e	8b 7b 10	 mov	 edi, DWORD PTR [ebx+16]
; File C:\Program Files\Microsoft Visual Studio\2022\Professional\VC\Tools\MSVC\14.44.35207\include\xmemory

; 1102 :         for (; _First != _Last; ++_First) {

  00011	3b f7		 cmp	 esi, edi
  00013	74 0e		 je	 SHORT $LN7@Reallocati
$LL8@Reallocati:
  00015	8b ce		 mov	 ecx, esi
  00017	e8 00 00 00 00	 call	 ??1?$basic_string@DU?$char_traits@D@std@@V?$allocator@D@2@@std@@QAE@XZ ; std::basic_string<char,std::char_traits<char>,std::allocator<char> >::~basic_string<char,std::char_traits<char>,std::allocator<char> >
  0001c	83 c6 18	 add	 esi, 24			; 00000018H
  0001f	3b f7		 cmp	 esi, edi
  00021	75 f2		 jne	 SHORT $LL8@Reallocati
$LN7@Reallocati:

; 985  :         _STD _Deallocate<_New_alignof<_Ty>>(_Ptr, sizeof(_Ty) * _Count);

  00023	8b 43 08	 mov	 eax, DWORD PTR [ebx+8]
  00026	5f		 pop	 edi
  00027	5e		 pop	 esi
  00028	8d 0c 40	 lea	 ecx, DWORD PTR [eax+eax*2]
  0002b	8b 43 04	 mov	 eax, DWORD PTR [ebx+4]
  0002e	c1 e1 03	 shl	 ecx, 3

; 284  :         if (_Bytes >= _Big_allocation_threshold) {

  00031	81 f9 00 10 00
	00		 cmp	 ecx, 4096		; 00001000H
  00037	72 12		 jb	 SHORT $LN27@Reallocati

; 205  :     const uintptr_t _Ptr_container   = _Ptr_user[-1];

  00039	8b 50 fc	 mov	 edx, DWORD PTR [eax-4]
  0003c	83 c1 23	 add	 ecx, 35			; 00000023H

; 206  : 
; 207  :     // If the following asserts, it likely means that we are performing
; 208  :     // an aligned delete on memory coming from an unaligned allocation.
; 209  :     _STL_ASSERT(_Ptr_user[-2] == _Big_allocation_sentinel, "invalid argument");
; 210  : 
; 211  :     // Extra paranoia on aligned allocation/deallocation; ensure _Ptr_container is
; 212  :     // in range [_Min_back_shift, _Non_user_size]
; 213  : #ifdef _DEBUG
; 214  :     constexpr uintptr_t _Min_back_shift = 2 * sizeof(void*);
; 215  : #else // ^^^ defined(_DEBUG) / !defined(_DEBUG) vvv
; 216  :     constexpr uintptr_t _Min_back_shift = sizeof(void*);
; 217  : #endif // ^^^ !defined(_DEBUG) ^^^
; 218  :     const uintptr_t _Back_shift = reinterpret_cast<uintptr_t>(_Ptr) - _Ptr_container;

  0003f	2b c2		 sub	 eax, edx

; 219  :     _STL_VERIFY(_Back_shift >= _Min_back_shift && _Back_shift <= _Non_user_size, "invalid argument");

  00041	83 c0 fc	 add	 eax, -4			; fffffffcH
  00044	83 f8 1f	 cmp	 eax, 31			; 0000001fH
  00047	77 0e		 ja	 SHORT $LN26@Reallocati

; 220  :     _Ptr = reinterpret_cast<void*>(_Ptr_container);

  00049	8b c2		 mov	 eax, edx
$LN27@Reallocati:

; 289  :         ::operator delete(_Ptr, _Bytes);

  0004b	51		 push	 ecx
  0004c	50		 push	 eax
  0004d	e8 00 00 00 00	 call	 ??3@YAXPAXI@Z		; operator delete
  00052	83 c4 08	 add	 esp, 8
$LN22@Reallocati:
  00055	5b		 pop	 ebx
; File C:\Program Files\Microsoft Visual Studio\2022\Professional\VC\Tools\MSVC\14.44.35207\include\vector

; 625  :         }

  00056	c3		 ret	 0
$LN26@Reallocati:
; File C:\Program Files\Microsoft Visual Studio\2022\Professional\VC\Tools\MSVC\14.44.35207\include\xmemory

; 219  :     _STL_VERIFY(_Back_shift >= _Min_back_shift && _Back_shift <= _Non_user_size, "invalid argument");

  00057	6a 00		 push	 0
  00059	6a 00		 push	 0
  0005b	6a 00		 push	 0
  0005d	6a 00		 push	 0
  0005f	6a 00		 push	 0
  00061	e8 00 00 00 00	 call	 __invoke_watson
$LN39@Reallocati:
  00066	cc		 int	 3
??1_Reallocation_guard@?$vector@V?$basic_string@DU?$char_traits@D@std@@V?$allocator@D@2@@std@@V?$allocator@V?$basic_string@DU?$char_traits@D@std@@V?$allocator@D@2@@std@@@2@@std@@QAE@XZ ENDP ; std::vector<std::basic_string<char,std::char_traits<char>,std::allocator<char> >,std::allocator<std::basic_string<char,std::char_traits<char>,std::allocator<char> > > >::_Reallocation_guard::~_Reallocation_guard
_TEXT	ENDS
; Function compile flags: /Ogtp
; File C:\Program Files\Microsoft Visual Studio\2022\Professional\VC\Tools\MSVC\14.44.35207\include\xmemory
;	COMDAT ??1?$_Uninitialized_backout_al@V?$allocator@V?$basic_string@DU?$char_traits@D@std@@V?$allocator@D@2@@std@@@std@@@std@@QAE@XZ
_TEXT	SEGMENT
??1?$_Uninitialized_backout_al@V?$allocator@V?$basic_string@DU?$char_traits@D@std@@V?$allocator@D@2@@std@@@std@@@std@@QAE@XZ PROC ; std::_Uninitialized_backout_al<std::allocator<std::basic_string<char,std::char_traits<char>,std::allocator<char> > > >::~_Uninitialized_backout_al<std::allocator<std::basic_string<char,std::char_traits<char>,std::allocator<char> > > >, COMDAT
; _this$ = ecx

; 1838 :     _CONSTEXPR20 ~_Uninitialized_backout_al() {

  00000	56		 push	 esi

; 1839 :         _STD _Destroy_range(_First, _Last, _Al);

  00001	8b 31		 mov	 esi, DWORD PTR [ecx]
  00003	57		 push	 edi
  00004	8b 79 04	 mov	 edi, DWORD PTR [ecx+4]

; 1102 :         for (; _First != _Last; ++_First) {

  00007	3b f7		 cmp	 esi, edi
  00009	74 13		 je	 SHORT $LN6@Uninitiali
  0000b	0f 1f 44 00 00	 npad	 5
$LL7@Uninitiali:
  00010	8b ce		 mov	 ecx, esi
  00012	e8 00 00 00 00	 call	 ??1?$basic_string@DU?$char_traits@D@std@@V?$allocator@D@2@@std@@QAE@XZ ; std::basic_string<char,std::char_traits<char>,std::allocator<char> >::~basic_string<char,std::char_traits<char>,std::allocator<char> >
  00017	83 c6 18	 add	 esi, 24			; 00000018H
  0001a	3b f7		 cmp	 esi, edi
  0001c	75 f2		 jne	 SHORT $LL7@Uninitiali
$LN6@Uninitiali:
  0001e	5f		 pop	 edi

; 1840 :     }

  0001f	5e		 pop	 esi
  00020	c3		 ret	 0
??1?$_Uninitialized_backout_al@V?$allocator@V?$basic_string@DU?$char_traits@D@std@@V?$allocator@D@2@@std@@@std@@@std@@QAE@XZ ENDP ; std::_Uninitialized_backout_al<std::allocator<std::basic_string<char,std::char_traits<char>,std::allocator<char> > > >::~_Uninitialized_backout_al<std::allocator<std::basic_string<char,std::char_traits<char>,std::allocator<char> > > >
_TEXT	ENDS
; Function compile flags: /Ogtp
; File C:\Program Files\Microsoft Visual Studio\2022\Professional\VC\Tools\MSVC\14.44.35207\include\xmemory
;	COMDAT ??1?$_Tidy_guard@V?$vector@V?$basic_string@DU?$char_traits@D@std@@V?$allocator@D@2@@std@@V?$allocator@V?$basic_string@DU?$char_traits@D@std@@V?$allocator@D@2@@std@@@2@@std@@@std@@QAE@XZ
_TEXT	SEGMENT
??1?$_Tidy_guard@V?$vector@V?$basic_string@DU?$char_traits@D@std@@V?$allocator@D@2@@std@@V?$allocator@V?$basic_string@DU?$char_traits@D@std@@V?$allocator@D@2@@std@@@2@@std@@@std@@QAE@XZ PROC ; std::_Tidy_guard<std::vector<std::basic_string<char,std::char_traits<char>,std::allocator<char> >,std::allocator<std::basic_string<char,std::char_traits<char>,std::allocator<char> > > > >::~_Tidy_guard<std::vector<std::basic_string<char,std::char_traits<char>,std::allocator<char> >,std::allocator<std::basic_string<char,std::char_traits<char>,std::allocator<char> > > > >, COMDAT
; _this$ = ecx

; 87   :         if (_Target) {

  00000	8b 09		 mov	 ecx, DWORD PTR [ecx]
  00002	85 c9		 test	 ecx, ecx
  00004	0f 85 00 00 00
	00		 jne	 ?_Tidy@?$vector@V?$basic_string@DU?$char_traits@D@std@@V?$allocator@D@2@@std@@V?$allocator@V?$basic_string@DU?$char_traits@D@std@@V?$allocator@D@2@@std@@@2@@std@@AAEXXZ ; std::vector<std::basic_string<char,std::char_traits<char>,std::allocator<char> >,std::allocator<std::basic_string<char,std::char_traits<char>,std::allocator<char> > > >::_Tidy

; 88   :             _Target->_Tidy();
; 89   :         }
; 90   :     }

  0000a	c3		 ret	 0
??1?$_Tidy_guard@V?$vector@V?$basic_string@DU?$char_traits@D@std@@V?$allocator@D@2@@std@@V?$allocator@V?$basic_string@DU?$char_traits@D@std@@V?$allocator@D@2@@std@@@2@@std@@@std@@QAE@XZ ENDP ; std::_Tidy_guard<std::vector<std::basic_string<char,std::char_traits<char>,std::allocator<char> >,std::allocator<std::basic_string<char,std::char_traits<char>,std::allocator<char> > > > >::~_Tidy_guard<std::vector<std::basic_string<char,std::char_traits<char>,std::allocator<char> >,std::allocator<std::basic_string<char,std::char_traits<char>,std::allocator<char> > > > >
_TEXT	ENDS
; Function compile flags: /Ogtp
; File C:\Program Files\Microsoft Visual Studio\2022\Professional\VC\Tools\MSVC\14.44.35207\include\vector
; File C:\Program Files\Microsoft Visual Studio\2022\Professional\VC\Tools\MSVC\14.44.35207\include\xmemory
; File C:\Program Files\Microsoft Visual Studio\2022\Professional\VC\Tools\MSVC\14.44.35207\include\vector
; File C:\Program Files\Microsoft Visual Studio\2022\Professional\VC\Tools\MSVC\14.44.35207\include\xmemory
; File C:\Program Files\Microsoft Visual Studio\2022\Professional\VC\Tools\MSVC\14.44.35207\include\vector
; File C:\Program Files\Microsoft Visual Studio\2022\Professional\VC\Tools\MSVC\14.44.35207\include\xmemory
; File C:\Program Files\Microsoft Visual Studio\2022\Professional\VC\Tools\MSVC\14.44.35207\include\vector
; File C:\Program Files\Microsoft Visual Studio\2022\Professional\VC\Tools\MSVC\14.44.35207\include\xmemory
; File C:\Program Files\Microsoft Visual Studio\2022\Professional\VC\Tools\MSVC\14.44.35207\include\vector
; File C:\Program Files\Microsoft Visual Studio\2022\Professional\VC\Tools\MSVC\14.44.35207\include\xmemory
; File C:\Program Files\Microsoft Visual Studio\2022\Professional\VC\Tools\MSVC\14.44.35207\include\vector
;	COMDAT ??$_Emplace_reallocate@ABV?$basic_string@DU?$char_traits@D@std@@V?$allocator@D@2@@std@@@?$vector@V?$basic_string@DU?$char_traits@D@std@@V?$allocator@D@2@@std@@V?$allocator@V?$basic_string@DU?$char_traits@D@std@@V?$allocator@D@2@@std@@@2@@std@@AAEPAV?$basic_string@DU?$char_traits@D@std@@V?$allocator@D@2@@1@QAV21@ABV21@@Z
_TEXT	SEGMENT
__Guard$ = -44						; size = 20
__Oldsize$1$ = -24					; size = 4
$T2 = -20						; size = 4
__Whereoff$1$ = -16					; size = 4
tv351 = -16						; size = 4
__$EHRec$ = -12						; size = 12
__Whereptr$ = 8						; size = 4
_<_Val_0>$ = 12						; size = 4
??$_Emplace_reallocate@ABV?$basic_string@DU?$char_traits@D@std@@V?$allocator@D@2@@std@@@?$vector@V?$basic_string@DU?$char_traits@D@std@@V?$allocator@D@2@@std@@V?$allocator@V?$basic_string@DU?$char_traits@D@std@@V?$allocator@D@2@@std@@@2@@std@@AAEPAV?$basic_string@DU?$char_traits@D@std@@V?$allocator@D@2@@1@QAV21@ABV21@@Z PROC ; std::vector<std::basic_string<char,std::char_traits<char>,std::allocator<char> >,std::allocator<std::basic_string<char,std::char_traits<char>,std::allocator<char> > > >::_Emplace_reallocate<std::basic_string<char,std::char_traits<char>,std::allocator<char> > const &>, COMDAT
; _this$ = ecx

; 875  :     _CONSTEXPR20 pointer _Emplace_reallocate(const pointer _Whereptr, _Valty&&... _Val) {

  00000	55		 push	 ebp
  00001	8b ec		 mov	 ebp, esp
  00003	6a ff		 push	 -1
  00005	68 00 00 00 00	 push	 __ehhandler$??$_Emplace_reallocate@ABV?$basic_string@DU?$char_traits@D@std@@V?$allocator@D@2@@std@@@?$vector@V?$basic_string@DU?$char_traits@D@std@@V?$allocator@D@2@@std@@V?$allocator@V?$basic_string@DU?$char_traits@D@std@@V?$allocator@D@2@@std@@@2@@std@@AAEPAV?$basic_string@DU?$char_traits@D@std@@V?$allocator@D@2@@1@QAV21@ABV21@@Z
  0000a	64 a1 00 00 00
	00		 mov	 eax, DWORD PTR fs:0
  00010	50		 push	 eax
  00011	83 ec 20	 sub	 esp, 32			; 00000020H
  00014	53		 push	 ebx
  00015	56		 push	 esi
  00016	57		 push	 edi
  00017	a1 00 00 00 00	 mov	 eax, DWORD PTR ___security_cookie
  0001c	33 c5		 xor	 eax, ebp
  0001e	50		 push	 eax
  0001f	8d 45 f4	 lea	 eax, DWORD PTR __$EHRec$[ebp]
  00022	64 a3 00 00 00
	00		 mov	 DWORD PTR fs:0, eax
  00028	8b d9		 mov	 ebx, ecx

; 876  :         // reallocate and insert by perfectly forwarding _Val at _Whereptr
; 877  :         _Alty& _Al        = _Getal();
; 878  :         auto& _My_data    = _Mypair._Myval2;
; 879  :         pointer& _Myfirst = _My_data._Myfirst;
; 880  :         pointer& _Mylast  = _My_data._Mylast;
; 881  : 
; 882  :         _STL_INTERNAL_CHECK(_Mylast == _My_data._Myend); // check that we have no unused capacity
; 883  : 
; 884  :         const auto _Whereoff = static_cast<size_type>(_Whereptr - _Myfirst);

  0002a	8b 33		 mov	 esi, DWORD PTR [ebx]
  0002c	b8 ab aa aa 2a	 mov	 eax, 715827883		; 2aaaaaabH
  00031	8b 55 08	 mov	 edx, DWORD PTR __Whereptr$[ebp]

; 885  :         const auto _Oldsize  = static_cast<size_type>(_Mylast - _Myfirst);

  00034	8b 4b 04	 mov	 ecx, DWORD PTR [ebx+4]
  00037	2b d6		 sub	 edx, esi
  00039	f7 ea		 imul	 edx
  0003b	2b ce		 sub	 ecx, esi
  0003d	c1 fa 02	 sar	 edx, 2
  00040	8b c2		 mov	 eax, edx
  00042	c1 e8 1f	 shr	 eax, 31			; 0000001fH
  00045	03 c2		 add	 eax, edx
  00047	89 45 f0	 mov	 DWORD PTR __Whereoff$1$[ebp], eax
  0004a	b8 ab aa aa 2a	 mov	 eax, 715827883		; 2aaaaaabH
  0004f	f7 e9		 imul	 ecx
  00051	c1 fa 02	 sar	 edx, 2
  00054	8b c2		 mov	 eax, edx
  00056	c1 e8 1f	 shr	 eax, 31			; 0000001fH
  00059	03 c2		 add	 eax, edx
  0005b	89 45 e8	 mov	 DWORD PTR __Oldsize$1$[ebp], eax

; 886  : 
; 887  :         if (_Oldsize == max_size()) {

  0005e	3d aa aa aa 0a	 cmp	 eax, 178956970		; 0aaaaaaaH
  00063	0f 84 16 01 00
	00		 je	 $LN37@Emplace_re

; 1924 :         return static_cast<size_type>(_My_data._Myend - _My_data._Myfirst);

  00069	8b 4b 08	 mov	 ecx, DWORD PTR [ebx+8]

; 889  :         }
; 890  : 
; 891  :         const size_type _Newsize = _Oldsize + 1;

  0006c	8d 78 01	 lea	 edi, DWORD PTR [eax+1]

; 1924 :         return static_cast<size_type>(_My_data._Myend - _My_data._Myfirst);

  0006f	2b ce		 sub	 ecx, esi
  00071	b8 ab aa aa 2a	 mov	 eax, 715827883		; 2aaaaaabH
  00076	f7 e9		 imul	 ecx

; 2011 :         if (_Oldcapacity > _Max - _Oldcapacity / 2) {

  00078	b8 aa aa aa 0a	 mov	 eax, 178956970		; 0aaaaaaaH

; 1924 :         return static_cast<size_type>(_My_data._Myend - _My_data._Myfirst);

  0007d	c1 fa 02	 sar	 edx, 2
  00080	8b ca		 mov	 ecx, edx
  00082	c1 e9 1f	 shr	 ecx, 31			; 0000001fH
  00085	03 ca		 add	 ecx, edx

; 2011 :         if (_Oldcapacity > _Max - _Oldcapacity / 2) {

  00087	8b d1		 mov	 edx, ecx
  00089	d1 ea		 shr	 edx, 1
  0008b	2b c2		 sub	 eax, edx
  0008d	3b c8		 cmp	 ecx, eax
  0008f	76 12		 jbe	 SHORT $LN8@Emplace_re

; 2012 :             return _Max; // geometric growth would overflow

  00091	b8 f0 ff ff ff	 mov	 eax, -16		; fffffff0H
  00096	be aa aa aa 0a	 mov	 esi, 178956970		; 0aaaaaaaH
; File C:\Program Files\Microsoft Visual Studio\2022\Professional\VC\Tools\MSVC\14.44.35207\include\xmemory

; 253  :             return _Allocate_manually_vector_aligned<_Traits>(_Bytes);

  0009b	50		 push	 eax
  0009c	e8 00 00 00 00	 call	 ??$_Allocate_manually_vector_aligned@U_Default_allocate_traits@std@@@std@@YAPAXI@Z ; std::_Allocate_manually_vector_aligned<std::_Default_allocate_traits>
  000a1	eb 39		 jmp	 SHORT $LN35@Emplace_re
$LN8@Emplace_re:
; File C:\Program Files\Microsoft Visual Studio\2022\Professional\VC\Tools\MSVC\14.44.35207\include\vector

; 2015 :         const size_type _Geometric = _Oldcapacity + _Oldcapacity / 2;

  000a3	8d 04 0a	 lea	 eax, DWORD PTR [edx+ecx]
; File C:\Program Files\Microsoft Visual Studio\2022\Professional\VC\Tools\MSVC\14.44.35207\include\xmemory

; 117  :         if (_Count > _Max_possible) {

  000a6	8b f7		 mov	 esi, edi
  000a8	3b c7		 cmp	 eax, edi
  000aa	0f 43 f0	 cmovae	 esi, eax
  000ad	81 fe aa aa aa
	0a		 cmp	 esi, 178956970		; 0aaaaaaaH
  000b3	0f 87 cb 00 00
	00		 ja	 $LN38@Emplace_re

; 119  :         }
; 120  :     }
; 121  : 
; 122  :     return _Count * _Ty_size;

  000b9	8d 04 76	 lea	 eax, DWORD PTR [esi+esi*2]
  000bc	c1 e0 03	 shl	 eax, 3

; 227  :     if (_Bytes == 0) {

  000bf	85 c0		 test	 eax, eax
  000c1	75 04		 jne	 SHORT $LN23@Emplace_re

; 228  :         return nullptr;

  000c3	33 ff		 xor	 edi, edi
  000c5	eb 1a		 jmp	 SHORT $LN22@Emplace_re
$LN23@Emplace_re:

; 229  :     }
; 230  : 
; 231  : #if _HAS_CXX20 // TRANSITION, GH-1532
; 232  :     if (_STD is_constant_evaluated()) {
; 233  :         return _Traits::_Allocate(_Bytes);
; 234  :     }
; 235  : #endif // _HAS_CXX20
; 236  : 
; 237  : #ifdef __cpp_aligned_new
; 238  :     if constexpr (_Align > __STDCPP_DEFAULT_NEW_ALIGNMENT__) {
; 239  :         size_t _Passed_align = _Align;
; 240  : #if defined(_M_IX86) || defined(_M_X64)
; 241  :         if (_Bytes >= _Big_allocation_threshold) {
; 242  :             // boost the alignment of big allocations to help autovectorization
; 243  :             _Passed_align = (_STD max)(_Align, _Big_allocation_alignment);
; 244  :         }
; 245  : #endif // defined(_M_IX86) || defined(_M_X64)
; 246  :         return _Traits::_Allocate_aligned(_Bytes, _Passed_align);
; 247  :     } else
; 248  : #endif // defined(__cpp_aligned_new)
; 249  :     {
; 250  : #if defined(_M_IX86) || defined(_M_X64)
; 251  :         if (_Bytes >= _Big_allocation_threshold) {

  000c7	3d 00 10 00 00	 cmp	 eax, 4096		; 00001000H
  000cc	72 08		 jb	 SHORT $LN24@Emplace_re

; 253  :             return _Allocate_manually_vector_aligned<_Traits>(_Bytes);

  000ce	50		 push	 eax
  000cf	e8 00 00 00 00	 call	 ??$_Allocate_manually_vector_aligned@U_Default_allocate_traits@std@@@std@@YAPAXI@Z ; std::_Allocate_manually_vector_aligned<std::_Default_allocate_traits>
  000d4	eb 06		 jmp	 SHORT $LN35@Emplace_re
$LN24@Emplace_re:

; 136  :         return ::operator new(_Bytes);

  000d6	50		 push	 eax
  000d7	e8 00 00 00 00	 call	 ??2@YAPAXI@Z		; operator new
$LN35@Emplace_re:
; File C:\Program Files\Microsoft Visual Studio\2022\Professional\VC\Tools\MSVC\14.44.35207\include\vector

; 895  :         const pointer _Constructed_last = _Newvec + _Whereoff + 1;

  000dc	8b f8		 mov	 edi, eax
  000de	83 c4 04	 add	 esp, 4
$LN22@Emplace_re:
  000e1	8b 45 f0	 mov	 eax, DWORD PTR __Whereoff$1$[ebp]

; 897  :         _Reallocation_guard _Guard{_Al, _Newvec, _Newcapacity, _Constructed_last, _Constructed_last};

  000e4	89 5d d4	 mov	 DWORD PTR __Guard$[ebp], ebx
  000e7	89 7d d8	 mov	 DWORD PTR __Guard$[ebp+4], edi
  000ea	89 75 dc	 mov	 DWORD PTR __Guard$[ebp+8], esi
  000ed	8d 04 40	 lea	 eax, DWORD PTR [eax+eax*2]
  000f0	8d 0c c7	 lea	 ecx, DWORD PTR [edi+eax*8]
  000f3	8d 41 18	 lea	 eax, DWORD PTR [ecx+24]
  000f6	89 4d f0	 mov	 DWORD PTR tv351[ebp], ecx
  000f9	89 45 ec	 mov	 DWORD PTR $T2[ebp], eax
  000fc	89 45 e0	 mov	 DWORD PTR __Guard$[ebp+12], eax
  000ff	89 45 e4	 mov	 DWORD PTR __Guard$[ebp+16], eax
; File C:\Program Files\Microsoft Visual Studio\2022\Professional\VC\Tools\MSVC\14.44.35207\include\xmemory

; 732  :         ::new (const_cast<void*>(static_cast<const volatile void*>(_Ptr))) _Objty(_STD forward<_Types>(_Args)...);

  00102	ff 75 0c	 push	 DWORD PTR _<_Val_0>$[ebp]
; File C:\Program Files\Microsoft Visual Studio\2022\Professional\VC\Tools\MSVC\14.44.35207\include\vector

; 897  :         _Reallocation_guard _Guard{_Al, _Newvec, _Newcapacity, _Constructed_last, _Constructed_last};

  00105	c7 45 fc 00 00
	00 00		 mov	 DWORD PTR __$EHRec$[ebp+8], 0
; File C:\Program Files\Microsoft Visual Studio\2022\Professional\VC\Tools\MSVC\14.44.35207\include\xmemory

; 732  :         ::new (const_cast<void*>(static_cast<const volatile void*>(_Ptr))) _Objty(_STD forward<_Types>(_Args)...);

  0010c	e8 00 00 00 00	 call	 ??0?$basic_string@DU?$char_traits@D@std@@V?$allocator@D@2@@std@@QAE@ABV01@@Z ; std::basic_string<char,std::char_traits<char>,std::allocator<char> >::basic_string<char,std::char_traits<char>,std::allocator<char> >
; File C:\Program Files\Microsoft Visual Studio\2022\Professional\VC\Tools\MSVC\14.44.35207\include\vector

; 901  :         _Constructed_first = _Newvec + _Whereoff;

  00111	8b 45 f0	 mov	 eax, DWORD PTR tv351[ebp]

; 902  : 
; 903  :         if (_Whereptr == _Mylast) { // at back, provide strong guarantee

  00114	8b 53 04	 mov	 edx, DWORD PTR [ebx+4]
  00117	8b 0b		 mov	 ecx, DWORD PTR [ebx]
  00119	89 45 e0	 mov	 DWORD PTR __Guard$[ebp+12], eax
  0011c	8b 45 08	 mov	 eax, DWORD PTR __Whereptr$[ebp]
  0011f	3b c2		 cmp	 eax, edx
  00121	75 04		 jne	 SHORT $LN3@Emplace_re

; 904  :             if constexpr (is_nothrow_move_constructible_v<_Ty> || !is_copy_constructible_v<_Ty>) {
; 905  :                 _STD _Uninitialized_move(_Myfirst, _Mylast, _Newvec, _Al);

  00123	8b c7		 mov	 eax, edi

; 906  :             } else {
; 907  :                 _STD _Uninitialized_copy(_Myfirst, _Mylast, _Newvec, _Al);
; 908  :             }
; 909  :         } else { // provide basic guarantee

  00125	eb 18		 jmp	 SHORT $LN4@Emplace_re
$LN3@Emplace_re:

; 910  :             _STD _Uninitialized_move(_Myfirst, _Whereptr, _Newvec, _Al);

  00127	53		 push	 ebx
  00128	57		 push	 edi
  00129	50		 push	 eax
  0012a	51		 push	 ecx
  0012b	e8 00 00 00 00	 call	 ??$_Uninitialized_move@PAV?$basic_string@DU?$char_traits@D@std@@V?$allocator@D@2@@std@@V?$allocator@V?$basic_string@DU?$char_traits@D@std@@V?$allocator@D@2@@std@@@2@@std@@YAPAV?$basic_string@DU?$char_traits@D@std@@V?$allocator@D@2@@0@QAV10@0PAV10@AAV?$allocator@V?$basic_string@DU?$char_traits@D@std@@V?$allocator@D@2@@std@@@0@@Z ; std::_Uninitialized_move<std::basic_string<char,std::char_traits<char>,std::allocator<char> > *,std::allocator<std::basic_string<char,std::char_traits<char>,std::allocator<char> > > >

; 911  :             _Constructed_first = _Newvec;
; 912  :             _STD _Uninitialized_move(_Whereptr, _Mylast, _Newvec + _Whereoff + 1, _Al);

  00130	8b 4d 08	 mov	 ecx, DWORD PTR __Whereptr$[ebp]
  00133	83 c4 10	 add	 esp, 16			; 00000010H
  00136	8b 53 04	 mov	 edx, DWORD PTR [ebx+4]
  00139	8b 45 ec	 mov	 eax, DWORD PTR $T2[ebp]
  0013c	89 7d e0	 mov	 DWORD PTR __Guard$[ebp+12], edi
$LN4@Emplace_re:

; 913  :         }
; 914  : 
; 915  :         _Guard._New_begin = nullptr;

  0013f	53		 push	 ebx
  00140	50		 push	 eax
  00141	52		 push	 edx
  00142	51		 push	 ecx
  00143	e8 00 00 00 00	 call	 ??$_Uninitialized_move@PAV?$basic_string@DU?$char_traits@D@std@@V?$allocator@D@2@@std@@V?$allocator@V?$basic_string@DU?$char_traits@D@std@@V?$allocator@D@2@@std@@@2@@std@@YAPAV?$basic_string@DU?$char_traits@D@std@@V?$allocator@D@2@@0@QAV10@0PAV10@AAV?$allocator@V?$basic_string@DU?$char_traits@D@std@@V?$allocator@D@2@@std@@@0@@Z ; std::_Uninitialized_move<std::basic_string<char,std::char_traits<char>,std::allocator<char> > *,std::allocator<std::basic_string<char,std::char_traits<char>,std::allocator<char> > > >

; 916  :         _Change_array(_Newvec, _Newsize, _Newcapacity);

  00148	8b 45 e8	 mov	 eax, DWORD PTR __Oldsize$1$[ebp]
  0014b	83 c4 10	 add	 esp, 16			; 00000010H
  0014e	40		 inc	 eax
  0014f	c7 45 d8 00 00
	00 00		 mov	 DWORD PTR __Guard$[ebp+4], 0
  00156	8b cb		 mov	 ecx, ebx
  00158	56		 push	 esi
  00159	50		 push	 eax
  0015a	57		 push	 edi
  0015b	e8 00 00 00 00	 call	 ?_Change_array@?$vector@V?$basic_string@DU?$char_traits@D@std@@V?$allocator@D@2@@std@@V?$allocator@V?$basic_string@DU?$char_traits@D@std@@V?$allocator@D@2@@std@@@2@@std@@AAEXQAV?$basic_string@DU?$char_traits@D@std@@V?$allocator@D@2@@2@II@Z ; std::vector<std::basic_string<char,std::char_traits<char>,std::allocator<char> >,std::allocator<std::basic_string<char,std::char_traits<char>,std::allocator<char> > > >::_Change_array

; 917  :         return _Newvec + _Whereoff;

  00160	8d 4d d4	 lea	 ecx, DWORD PTR __Guard$[ebp]
  00163	e8 00 00 00 00	 call	 ??1_Reallocation_guard@?$vector@V?$basic_string@DU?$char_traits@D@std@@V?$allocator@D@2@@std@@V?$allocator@V?$basic_string@DU?$char_traits@D@std@@V?$allocator@D@2@@std@@@2@@std@@QAE@XZ ; std::vector<std::basic_string<char,std::char_traits<char>,std::allocator<char> >,std::allocator<std::basic_string<char,std::char_traits<char>,std::allocator<char> > > >::_Reallocation_guard::~_Reallocation_guard
  00168	8b 45 f0	 mov	 eax, DWORD PTR tv351[ebp]

; 918  :     }

  0016b	8b 4d f4	 mov	 ecx, DWORD PTR __$EHRec$[ebp]
  0016e	64 89 0d 00 00
	00 00		 mov	 DWORD PTR fs:0, ecx
  00175	59		 pop	 ecx
  00176	5f		 pop	 edi
  00177	5e		 pop	 esi
  00178	5b		 pop	 ebx
  00179	8b e5		 mov	 esp, ebp
  0017b	5d		 pop	 ebp
  0017c	c2 08 00	 ret	 8
$LN37@Emplace_re:

; 888  :             _Xlength();

  0017f	e8 00 00 00 00	 call	 ?_Xlength@?$vector@V?$basic_string@DU?$char_traits@D@std@@V?$allocator@D@2@@std@@V?$allocator@V?$basic_string@DU?$char_traits@D@std@@V?$allocator@D@2@@std@@@2@@std@@CAXXZ ; std::vector<std::basic_string<char,std::char_traits<char>,std::allocator<char> >,std::allocator<std::basic_string<char,std::char_traits<char>,std::allocator<char> > > >::_Xlength
$LN38@Emplace_re:
; File C:\Program Files\Microsoft Visual Studio\2022\Professional\VC\Tools\MSVC\14.44.35207\include\xmemory

; 118  :             _Throw_bad_array_new_length(); // multiply overflow

  00184	e8 00 00 00 00	 call	 ?_Throw_bad_array_new_length@std@@YAXXZ ; std::_Throw_bad_array_new_length
$LN34@Emplace_re:
  00189	cc		 int	 3
_TEXT	ENDS
;	COMDAT text$x
text$x	SEGMENT
__unwindfunclet$??$_Emplace_reallocate@ABV?$basic_string@DU?$char_traits@D@std@@V?$allocator@D@2@@std@@@?$vector@V?$basic_string@DU?$char_traits@D@std@@V?$allocator@D@2@@std@@V?$allocator@V?$basic_string@DU?$char_traits@D@std@@V?$allocator@D@2@@std@@@2@@std@@AAEPAV?$basic_string@DU?$char_traits@D@std@@V?$allocator@D@2@@1@QAV21@ABV21@@Z$0:
  00000	8d 4d d4	 lea	 ecx, DWORD PTR __Guard$[ebp]
  00003	e9 00 00 00 00	 jmp	 ??1_Reallocation_guard@?$vector@V?$basic_string@DU?$char_traits@D@std@@V?$allocator@D@2@@std@@V?$allocator@V?$basic_string@DU?$char_traits@D@std@@V?$allocator@D@2@@std@@@2@@std@@QAE@XZ ; std::vector<std::basic_string<char,std::char_traits<char>,std::allocator<char> >,std::allocator<std::basic_string<char,std::char_traits<char>,std::allocator<char> > > >::_Reallocation_guard::~_Reallocation_guard
  00008	cc		 int	 3
  00009	cc		 int	 3
  0000a	cc		 int	 3
  0000b	cc		 int	 3
  0000c	cc		 int	 3
__ehhandler$??$_Emplace_reallocate@ABV?$basic_string@DU?$char_traits@D@std@@V?$allocator@D@2@@std@@@?$vector@V?$basic_string@DU?$char_traits@D@std@@V?$allocator@D@2@@std@@V?$allocator@V?$basic_string@DU?$char_traits@D@std@@V?$allocator@D@2@@std@@@2@@std@@AAEPAV?$basic_string@DU?$char_traits@D@std@@V?$allocator@D@2@@1@QAV21@ABV21@@Z:
  0000d	90		 npad	 1
  0000e	90		 npad	 1
  0000f	8b 54 24 08	 mov	 edx, DWORD PTR [esp+8]
  00013	8d 42 0c	 lea	 eax, DWORD PTR [edx+12]
  00016	8b 4a d0	 mov	 ecx, DWORD PTR [edx-48]
  00019	33 c8		 xor	 ecx, eax
  0001b	e8 00 00 00 00	 call	 @__security_check_cookie@4
  00020	b8 00 00 00 00	 mov	 eax, OFFSET __ehfuncinfo$??$_Emplace_reallocate@ABV?$basic_string@DU?$char_traits@D@std@@V?$allocator@D@2@@std@@@?$vector@V?$basic_string@DU?$char_traits@D@std@@V?$allocator@D@2@@std@@V?$allocator@V?$basic_string@DU?$char_traits@D@std@@V?$allocator@D@2@@std@@@2@@std@@AAEPAV?$basic_string@DU?$char_traits@D@std@@V?$allocator@D@2@@1@QAV21@ABV21@@Z
  00025	e9 00 00 00 00	 jmp	 ___CxxFrameHandler3
text$x	ENDS
??$_Emplace_reallocate@ABV?$basic_string@DU?$char_traits@D@std@@V?$allocator@D@2@@std@@@?$vector@V?$basic_string@DU?$char_traits@D@std@@V?$allocator@D@2@@std@@V?$allocator@V?$basic_string@DU?$char_traits@D@std@@V?$allocator@D@2@@std@@@2@@std@@AAEPAV?$basic_string@DU?$char_traits@D@std@@V?$allocator@D@2@@1@QAV21@ABV21@@Z ENDP ; std::vector<std::basic_string<char,std::char_traits<char>,std::allocator<char> >,std::allocator<std::basic_string<char,std::char_traits<char>,std::allocator<char> > > >::_Emplace_reallocate<std::basic_string<char,std::char_traits<char>,std::allocator<char> > const &>
; Function compile flags: /Ogtp
; File C:\Program Files\Microsoft Visual Studio\2022\Professional\VC\Tools\MSVC\14.44.35207\include\vector
; File C:\Program Files\Microsoft Visual Studio\2022\Professional\VC\Tools\MSVC\14.44.35207\include\xmemory
; File C:\Program Files\Microsoft Visual Studio\2022\Professional\VC\Tools\MSVC\14.44.35207\include\vector
; File C:\Program Files\Microsoft Visual Studio\2022\Professional\VC\Tools\MSVC\14.44.35207\include\xmemory
; File C:\Program Files\Microsoft Visual Studio\2022\Professional\VC\Tools\MSVC\14.44.35207\include\vector
; File C:\Program Files\Microsoft Visual Studio\2022\Professional\VC\Tools\MSVC\14.44.35207\include\xstring
; File C:\Program Files\Microsoft Visual Studio\2022\Professional\VC\Tools\MSVC\14.44.35207\include\vector
; File C:\Program Files\Microsoft Visual Studio\2022\Professional\VC\Tools\MSVC\14.44.35207\include\xstring
; File C:\Program Files\Microsoft Visual Studio\2022\Professional\VC\Tools\MSVC\14.44.35207\include\vector
; File C:\Program Files\Microsoft Visual Studio\2022\Professional\VC\Tools\MSVC\14.44.35207\include\xstring
; File C:\Program Files\Microsoft Visual Studio\2022\Professional\VC\Tools\MSVC\14.44.35207\include\vector
; File C:\Program Files\Microsoft Visual Studio\2022\Professional\VC\Tools\MSVC\14.44.35207\include\xstring
; File C:\Program Files\Microsoft Visual Studio\2022\Professional\VC\Tools\MSVC\14.44.35207\include\vector
; File C:\Program Files\Microsoft Visual Studio\2022\Professional\VC\Tools\MSVC\14.44.35207\include\xstring
; File C:\Program Files\Microsoft Visual Studio\2022\Professional\VC\Tools\MSVC\14.44.35207\include\vector
; File C:\Program Files\Microsoft Visual Studio\2022\Professional\VC\Tools\MSVC\14.44.35207\include\xmemory
; File C:\Program Files\Microsoft Visual Studio\2022\Professional\VC\Tools\MSVC\14.44.35207\include\vector
;	COMDAT ??$_Emplace_reallocate@V?$basic_string@DU?$char_traits@D@std@@V?$allocator@D@2@@std@@@?$vector@V?$basic_string@DU?$char_traits@D@std@@V?$allocator@D@2@@std@@V?$allocator@V?$basic_string@DU?$char_traits@D@std@@V?$allocator@D@2@@std@@@2@@std@@AAEPAV?$basic_string@DU?$char_traits@D@std@@V?$allocator@D@2@@1@QAV21@$$QAV21@@Z
_TEXT	SEGMENT
__Guard$ = -32						; size = 20
_this$1$ = -12						; size = 4
__Oldsize$1$ = -8					; size = 4
__Whereoff$1$ = -4					; size = 4
$T1 = -4						; size = 4
__Whereptr$ = 8						; size = 4
_<_Val_0>$ = 12						; size = 4
??$_Emplace_reallocate@V?$basic_string@DU?$char_traits@D@std@@V?$allocator@D@2@@std@@@?$vector@V?$basic_string@DU?$char_traits@D@std@@V?$allocator@D@2@@std@@V?$allocator@V?$basic_string@DU?$char_traits@D@std@@V?$allocator@D@2@@std@@@2@@std@@AAEPAV?$basic_string@DU?$char_traits@D@std@@V?$allocator@D@2@@1@QAV21@$$QAV21@@Z PROC ; std::vector<std::basic_string<char,std::char_traits<char>,std::allocator<char> >,std::allocator<std::basic_string<char,std::char_traits<char>,std::allocator<char> > > >::_Emplace_reallocate<std::basic_string<char,std::char_traits<char>,std::allocator<char> > >, COMDAT
; _this$ = ecx

; 875  :     _CONSTEXPR20 pointer _Emplace_reallocate(const pointer _Whereptr, _Valty&&... _Val) {

  00000	55		 push	 ebp
  00001	8b ec		 mov	 ebp, esp
  00003	83 ec 20	 sub	 esp, 32			; 00000020H

; 876  :         // reallocate and insert by perfectly forwarding _Val at _Whereptr
; 877  :         _Alty& _Al        = _Getal();
; 878  :         auto& _My_data    = _Mypair._Myval2;
; 879  :         pointer& _Myfirst = _My_data._Myfirst;
; 880  :         pointer& _Mylast  = _My_data._Mylast;
; 881  : 
; 882  :         _STL_INTERNAL_CHECK(_Mylast == _My_data._Myend); // check that we have no unused capacity
; 883  : 
; 884  :         const auto _Whereoff = static_cast<size_type>(_Whereptr - _Myfirst);

  00006	8b 55 08	 mov	 edx, DWORD PTR __Whereptr$[ebp]
  00009	b8 ab aa aa 2a	 mov	 eax, 715827883		; 2aaaaaabH
  0000e	53		 push	 ebx
  0000f	8b d9		 mov	 ebx, ecx
  00011	56		 push	 esi
  00012	57		 push	 edi
  00013	8b 33		 mov	 esi, DWORD PTR [ebx]
  00015	2b d6		 sub	 edx, esi

; 885  :         const auto _Oldsize  = static_cast<size_type>(_Mylast - _Myfirst);

  00017	8b 4b 04	 mov	 ecx, DWORD PTR [ebx+4]
  0001a	f7 ea		 imul	 edx
  0001c	2b ce		 sub	 ecx, esi
  0001e	c1 fa 02	 sar	 edx, 2
  00021	8b c2		 mov	 eax, edx
  00023	c1 e8 1f	 shr	 eax, 31			; 0000001fH
  00026	03 c2		 add	 eax, edx
  00028	89 45 fc	 mov	 DWORD PTR __Whereoff$1$[ebp], eax
  0002b	b8 ab aa aa 2a	 mov	 eax, 715827883		; 2aaaaaabH
  00030	f7 e9		 imul	 ecx
  00032	c1 fa 02	 sar	 edx, 2
  00035	8b c2		 mov	 eax, edx
  00037	c1 e8 1f	 shr	 eax, 31			; 0000001fH
  0003a	03 c2		 add	 eax, edx
  0003c	89 45 f8	 mov	 DWORD PTR __Oldsize$1$[ebp], eax

; 886  : 
; 887  :         if (_Oldsize == max_size()) {

  0003f	3d aa aa aa 0a	 cmp	 eax, 178956970		; 0aaaaaaaH
  00044	0f 84 2b 01 00
	00		 je	 $LN70@Emplace_re

; 1924 :         return static_cast<size_type>(_My_data._Myend - _My_data._Myfirst);

  0004a	8b 4b 08	 mov	 ecx, DWORD PTR [ebx+8]

; 889  :         }
; 890  : 
; 891  :         const size_type _Newsize = _Oldsize + 1;

  0004d	8d 78 01	 lea	 edi, DWORD PTR [eax+1]

; 1924 :         return static_cast<size_type>(_My_data._Myend - _My_data._Myfirst);

  00050	2b ce		 sub	 ecx, esi
  00052	b8 ab aa aa 2a	 mov	 eax, 715827883		; 2aaaaaabH
  00057	f7 e9		 imul	 ecx

; 2011 :         if (_Oldcapacity > _Max - _Oldcapacity / 2) {

  00059	b8 aa aa aa 0a	 mov	 eax, 178956970		; 0aaaaaaaH

; 1924 :         return static_cast<size_type>(_My_data._Myend - _My_data._Myfirst);

  0005e	c1 fa 02	 sar	 edx, 2
  00061	8b ca		 mov	 ecx, edx
  00063	c1 e9 1f	 shr	 ecx, 31			; 0000001fH
  00066	03 ca		 add	 ecx, edx

; 2011 :         if (_Oldcapacity > _Max - _Oldcapacity / 2) {

  00068	8b d1		 mov	 edx, ecx
  0006a	d1 ea		 shr	 edx, 1
  0006c	2b c2		 sub	 eax, edx
  0006e	3b c8		 cmp	 ecx, eax
  00070	76 12		 jbe	 SHORT $LN8@Emplace_re

; 2012 :             return _Max; // geometric growth would overflow

  00072	b8 f0 ff ff ff	 mov	 eax, -16		; fffffff0H
  00077	be aa aa aa 0a	 mov	 esi, 178956970		; 0aaaaaaaH
; File C:\Program Files\Microsoft Visual Studio\2022\Professional\VC\Tools\MSVC\14.44.35207\include\xmemory

; 253  :             return _Allocate_manually_vector_aligned<_Traits>(_Bytes);

  0007c	50		 push	 eax
  0007d	e8 00 00 00 00	 call	 ??$_Allocate_manually_vector_aligned@U_Default_allocate_traits@std@@@std@@YAPAXI@Z ; std::_Allocate_manually_vector_aligned<std::_Default_allocate_traits>
  00082	eb 39		 jmp	 SHORT $LN68@Emplace_re
$LN8@Emplace_re:
; File C:\Program Files\Microsoft Visual Studio\2022\Professional\VC\Tools\MSVC\14.44.35207\include\vector

; 2015 :         const size_type _Geometric = _Oldcapacity + _Oldcapacity / 2;

  00084	8d 04 0a	 lea	 eax, DWORD PTR [edx+ecx]
; File C:\Program Files\Microsoft Visual Studio\2022\Professional\VC\Tools\MSVC\14.44.35207\include\xmemory

; 117  :         if (_Count > _Max_possible) {

  00087	8b f7		 mov	 esi, edi
  00089	3b c7		 cmp	 eax, edi
  0008b	0f 43 f0	 cmovae	 esi, eax
  0008e	81 fe aa aa aa
	0a		 cmp	 esi, 178956970		; 0aaaaaaaH
  00094	0f 87 e0 00 00
	00		 ja	 $LN71@Emplace_re

; 119  :         }
; 120  :     }
; 121  : 
; 122  :     return _Count * _Ty_size;

  0009a	8d 04 76	 lea	 eax, DWORD PTR [esi+esi*2]
  0009d	c1 e0 03	 shl	 eax, 3

; 227  :     if (_Bytes == 0) {

  000a0	85 c0		 test	 eax, eax
  000a2	75 04		 jne	 SHORT $LN23@Emplace_re

; 228  :         return nullptr;

  000a4	33 ff		 xor	 edi, edi
  000a6	eb 1a		 jmp	 SHORT $LN22@Emplace_re
$LN23@Emplace_re:

; 229  :     }
; 230  : 
; 231  : #if _HAS_CXX20 // TRANSITION, GH-1532
; 232  :     if (_STD is_constant_evaluated()) {
; 233  :         return _Traits::_Allocate(_Bytes);
; 234  :     }
; 235  : #endif // _HAS_CXX20
; 236  : 
; 237  : #ifdef __cpp_aligned_new
; 238  :     if constexpr (_Align > __STDCPP_DEFAULT_NEW_ALIGNMENT__) {
; 239  :         size_t _Passed_align = _Align;
; 240  : #if defined(_M_IX86) || defined(_M_X64)
; 241  :         if (_Bytes >= _Big_allocation_threshold) {
; 242  :             // boost the alignment of big allocations to help autovectorization
; 243  :             _Passed_align = (_STD max)(_Align, _Big_allocation_alignment);
; 244  :         }
; 245  : #endif // defined(_M_IX86) || defined(_M_X64)
; 246  :         return _Traits::_Allocate_aligned(_Bytes, _Passed_align);
; 247  :     } else
; 248  : #endif // defined(__cpp_aligned_new)
; 249  :     {
; 250  : #if defined(_M_IX86) || defined(_M_X64)
; 251  :         if (_Bytes >= _Big_allocation_threshold) {

  000a8	3d 00 10 00 00	 cmp	 eax, 4096		; 00001000H
  000ad	72 08		 jb	 SHORT $LN24@Emplace_re

; 253  :             return _Allocate_manually_vector_aligned<_Traits>(_Bytes);

  000af	50		 push	 eax
  000b0	e8 00 00 00 00	 call	 ??$_Allocate_manually_vector_aligned@U_Default_allocate_traits@std@@@std@@YAPAXI@Z ; std::_Allocate_manually_vector_aligned<std::_Default_allocate_traits>
  000b5	eb 06		 jmp	 SHORT $LN68@Emplace_re
$LN24@Emplace_re:

; 136  :         return ::operator new(_Bytes);

  000b7	50		 push	 eax
  000b8	e8 00 00 00 00	 call	 ??2@YAPAXI@Z		; operator new
$LN68@Emplace_re:
; File C:\Program Files\Microsoft Visual Studio\2022\Professional\VC\Tools\MSVC\14.44.35207\include\vector

; 895  :         const pointer _Constructed_last = _Newvec + _Whereoff + 1;

  000bd	8b f8		 mov	 edi, eax
  000bf	83 c4 04	 add	 esp, 4
$LN22@Emplace_re:
  000c2	8b 45 fc	 mov	 eax, DWORD PTR __Whereoff$1$[ebp]
  000c5	0f 57 c0	 xorps	 xmm0, xmm0

; 896  : 
; 897  :         _Reallocation_guard _Guard{_Al, _Newvec, _Newcapacity, _Constructed_last, _Constructed_last};

  000c8	89 5d e0	 mov	 DWORD PTR __Guard$[ebp], ebx
  000cb	89 75 e8	 mov	 DWORD PTR __Guard$[ebp+8], esi
  000ce	8d 04 40	 lea	 eax, DWORD PTR [eax+eax*2]
  000d1	8d 0c c7	 lea	 ecx, DWORD PTR [edi+eax*8]
; File C:\Program Files\Microsoft Visual Studio\2022\Professional\VC\Tools\MSVC\14.44.35207\include\xstring

; 493  :         _CONSTEXPR20 _Bxty() noexcept : _Buf() {} // user-provided, for fancy pointers

  000d4	0f 11 01	 movups	 XMMWORD PTR [ecx], xmm0
; File C:\Program Files\Microsoft Visual Studio\2022\Professional\VC\Tools\MSVC\14.44.35207\include\vector

; 895  :         const pointer _Constructed_last = _Newvec + _Whereoff + 1;

  000d7	8d 41 18	 lea	 eax, DWORD PTR [ecx+24]
; File C:\Program Files\Microsoft Visual Studio\2022\Professional\VC\Tools\MSVC\14.44.35207\include\xstring

; 517  :     size_type _Mysize = 0; // current length of string (size)

  000da	c7 41 10 00 00
	00 00		 mov	 DWORD PTR [ecx+16], 0

; 518  :     size_type _Myres  = 0; // current storage reserved for string (capacity)

  000e1	c7 41 14 00 00
	00 00		 mov	 DWORD PTR [ecx+20], 0
; File C:\Program Files\Microsoft Visual Studio\2022\Professional\VC\Tools\MSVC\14.44.35207\include\vector

; 895  :         const pointer _Constructed_last = _Newvec + _Whereoff + 1;

  000e8	89 45 fc	 mov	 DWORD PTR $T1[ebp], eax

; 896  : 
; 897  :         _Reallocation_guard _Guard{_Al, _Newvec, _Newcapacity, _Constructed_last, _Constructed_last};

  000eb	89 45 f0	 mov	 DWORD PTR __Guard$[ebp+16], eax
; File C:\Program Files\Microsoft Visual Studio\2022\Professional\VC\Tools\MSVC\14.44.35207\include\xstring

; 1286 :                 _CSTD memcpy(_My_data_mem, _Right_data_mem, _Memcpy_val_size);

  000ee	8b 45 0c	 mov	 eax, DWORD PTR _<_Val_0>$[ebp]
; File C:\Program Files\Microsoft Visual Studio\2022\Professional\VC\Tools\MSVC\14.44.35207\include\vector

; 895  :         const pointer _Constructed_last = _Newvec + _Whereoff + 1;

  000f1	89 4d f4	 mov	 DWORD PTR _this$1$[ebp], ecx

; 898  :         auto& _Constructed_first = _Guard._Constructed_first;
; 899  : 
; 900  :         _Alty_traits::construct(_Al, _STD _Unfancy(_Newvec + _Whereoff), _STD forward<_Valty>(_Val)...);
; 901  :         _Constructed_first = _Newvec + _Whereoff;

  000f4	89 4d ec	 mov	 DWORD PTR __Guard$[ebp+12], ecx
; File C:\Program Files\Microsoft Visual Studio\2022\Professional\VC\Tools\MSVC\14.44.35207\include\xstring

; 1286 :                 _CSTD memcpy(_My_data_mem, _Right_data_mem, _Memcpy_val_size);

  000f7	0f 10 00	 movups	 xmm0, XMMWORD PTR [eax]
  000fa	0f 11 01	 movups	 XMMWORD PTR [ecx], xmm0
  000fd	f3 0f 7e 40 10	 movq	 xmm0, QWORD PTR [eax+16]
  00102	66 0f d6 41 10	 movq	 QWORD PTR [ecx+16], xmm0
; File C:\Program Files\Microsoft Visual Studio\2022\Professional\VC\Tools\MSVC\14.44.35207\include\vector

; 903  :         if (_Whereptr == _Mylast) { // at back, provide strong guarantee

  00107	8b 4d 08	 mov	 ecx, DWORD PTR __Whereptr$[ebp]
; File C:\Program Files\Microsoft Visual Studio\2022\Professional\VC\Tools\MSVC\14.44.35207\include\xstring

; 1288 :                 _Right_data._Mysize = 0;

  0010a	c7 40 10 00 00
	00 00		 mov	 DWORD PTR [eax+16], 0

; 1289 :                 _Right_data._Myres  = _Small_string_capacity;

  00111	c7 40 14 0f 00
	00 00		 mov	 DWORD PTR [eax+20], 15	; 0000000fH

; 1290 :                 _Right_data._Activate_SSO_buffer();
; 1291 :                 _Traits::assign(_Right_data._Bx._Buf[0], _Elem());

  00118	c6 00 00	 mov	 BYTE PTR [eax], 0
; File C:\Program Files\Microsoft Visual Studio\2022\Professional\VC\Tools\MSVC\14.44.35207\include\vector

; 903  :         if (_Whereptr == _Mylast) { // at back, provide strong guarantee

  0011b	8b 53 04	 mov	 edx, DWORD PTR [ebx+4]
  0011e	8b 03		 mov	 eax, DWORD PTR [ebx]
  00120	3b ca		 cmp	 ecx, edx
  00122	75 04		 jne	 SHORT $LN3@Emplace_re

; 904  :             if constexpr (is_nothrow_move_constructible_v<_Ty> || !is_copy_constructible_v<_Ty>) {
; 905  :                 _STD _Uninitialized_move(_Myfirst, _Mylast, _Newvec, _Al);

  00124	8b cf		 mov	 ecx, edi

; 906  :             } else {
; 907  :                 _STD _Uninitialized_copy(_Myfirst, _Mylast, _Newvec, _Al);
; 908  :             }
; 909  :         } else { // provide basic guarantee

  00126	eb 18		 jmp	 SHORT $LN4@Emplace_re
$LN3@Emplace_re:

; 910  :             _STD _Uninitialized_move(_Myfirst, _Whereptr, _Newvec, _Al);

  00128	53		 push	 ebx
  00129	57		 push	 edi
  0012a	51		 push	 ecx
  0012b	50		 push	 eax
  0012c	e8 00 00 00 00	 call	 ??$_Uninitialized_move@PAV?$basic_string@DU?$char_traits@D@std@@V?$allocator@D@2@@std@@V?$allocator@V?$basic_string@DU?$char_traits@D@std@@V?$allocator@D@2@@std@@@2@@std@@YAPAV?$basic_string@DU?$char_traits@D@std@@V?$allocator@D@2@@0@QAV10@0PAV10@AAV?$allocator@V?$basic_string@DU?$char_traits@D@std@@V?$allocator@D@2@@std@@@0@@Z ; std::_Uninitialized_move<std::basic_string<char,std::char_traits<char>,std::allocator<char> > *,std::allocator<std::basic_string<char,std::char_traits<char>,std::allocator<char> > > >

; 911  :             _Constructed_first = _Newvec;
; 912  :             _STD _Uninitialized_move(_Whereptr, _Mylast, _Newvec + _Whereoff + 1, _Al);

  00131	8b 45 08	 mov	 eax, DWORD PTR __Whereptr$[ebp]
  00134	83 c4 10	 add	 esp, 16			; 00000010H
  00137	8b 53 04	 mov	 edx, DWORD PTR [ebx+4]
  0013a	8b 4d fc	 mov	 ecx, DWORD PTR $T1[ebp]
  0013d	89 7d ec	 mov	 DWORD PTR __Guard$[ebp+12], edi
$LN4@Emplace_re:

; 913  :         }
; 914  : 
; 915  :         _Guard._New_begin = nullptr;

  00140	53		 push	 ebx
  00141	51		 push	 ecx
  00142	52		 push	 edx
  00143	50		 push	 eax
  00144	e8 00 00 00 00	 call	 ??$_Uninitialized_move@PAV?$basic_string@DU?$char_traits@D@std@@V?$allocator@D@2@@std@@V?$allocator@V?$basic_string@DU?$char_traits@D@std@@V?$allocator@D@2@@std@@@2@@std@@YAPAV?$basic_string@DU?$char_traits@D@std@@V?$allocator@D@2@@0@QAV10@0PAV10@AAV?$allocator@V?$basic_string@DU?$char_traits@D@std@@V?$allocator@D@2@@std@@@0@@Z ; std::_Uninitialized_move<std::basic_string<char,std::char_traits<char>,std::allocator<char> > *,std::allocator<std::basic_string<char,std::char_traits<char>,std::allocator<char> > > >

; 916  :         _Change_array(_Newvec, _Newsize, _Newcapacity);

  00149	8b 45 f8	 mov	 eax, DWORD PTR __Oldsize$1$[ebp]
  0014c	83 c4 10	 add	 esp, 16			; 00000010H
  0014f	40		 inc	 eax
  00150	c7 45 e4 00 00
	00 00		 mov	 DWORD PTR __Guard$[ebp+4], 0
  00157	8b cb		 mov	 ecx, ebx
  00159	56		 push	 esi
  0015a	50		 push	 eax
  0015b	57		 push	 edi
  0015c	e8 00 00 00 00	 call	 ?_Change_array@?$vector@V?$basic_string@DU?$char_traits@D@std@@V?$allocator@D@2@@std@@V?$allocator@V?$basic_string@DU?$char_traits@D@std@@V?$allocator@D@2@@std@@@2@@std@@AAEXQAV?$basic_string@DU?$char_traits@D@std@@V?$allocator@D@2@@2@II@Z ; std::vector<std::basic_string<char,std::char_traits<char>,std::allocator<char> >,std::allocator<std::basic_string<char,std::char_traits<char>,std::allocator<char> > > >::_Change_array

; 917  :         return _Newvec + _Whereoff;

  00161	8d 4d e0	 lea	 ecx, DWORD PTR __Guard$[ebp]
  00164	e8 00 00 00 00	 call	 ??1_Reallocation_guard@?$vector@V?$basic_string@DU?$char_traits@D@std@@V?$allocator@D@2@@std@@V?$allocator@V?$basic_string@DU?$char_traits@D@std@@V?$allocator@D@2@@std@@@2@@std@@QAE@XZ ; std::vector<std::basic_string<char,std::char_traits<char>,std::allocator<char> >,std::allocator<std::basic_string<char,std::char_traits<char>,std::allocator<char> > > >::_Reallocation_guard::~_Reallocation_guard
  00169	8b 45 f4	 mov	 eax, DWORD PTR _this$1$[ebp]

; 918  :     }

  0016c	5f		 pop	 edi
  0016d	5e		 pop	 esi
  0016e	5b		 pop	 ebx
  0016f	8b e5		 mov	 esp, ebp
  00171	5d		 pop	 ebp
  00172	c2 08 00	 ret	 8
$LN70@Emplace_re:

; 888  :             _Xlength();

  00175	e8 00 00 00 00	 call	 ?_Xlength@?$vector@V?$basic_string@DU?$char_traits@D@std@@V?$allocator@D@2@@std@@V?$allocator@V?$basic_string@DU?$char_traits@D@std@@V?$allocator@D@2@@std@@@2@@std@@CAXXZ ; std::vector<std::basic_string<char,std::char_traits<char>,std::allocator<char> >,std::allocator<std::basic_string<char,std::char_traits<char>,std::allocator<char> > > >::_Xlength
$LN71@Emplace_re:
; File C:\Program Files\Microsoft Visual Studio\2022\Professional\VC\Tools\MSVC\14.44.35207\include\xmemory

; 118  :             _Throw_bad_array_new_length(); // multiply overflow

  0017a	e8 00 00 00 00	 call	 ?_Throw_bad_array_new_length@std@@YAXXZ ; std::_Throw_bad_array_new_length
$LN67@Emplace_re:
  0017f	cc		 int	 3
??$_Emplace_reallocate@V?$basic_string@DU?$char_traits@D@std@@V?$allocator@D@2@@std@@@?$vector@V?$basic_string@DU?$char_traits@D@std@@V?$allocator@D@2@@std@@V?$allocator@V?$basic_string@DU?$char_traits@D@std@@V?$allocator@D@2@@std@@@2@@std@@AAEPAV?$basic_string@DU?$char_traits@D@std@@V?$allocator@D@2@@1@QAV21@$$QAV21@@Z ENDP ; std::vector<std::basic_string<char,std::char_traits<char>,std::allocator<char> >,std::allocator<std::basic_string<char,std::char_traits<char>,std::allocator<char> > > >::_Emplace_reallocate<std::basic_string<char,std::char_traits<char>,std::allocator<char> > >
_TEXT	ENDS
; Function compile flags: /Ogtp
; File C:\Program Files\Microsoft Visual Studio\2022\Professional\VC\Tools\MSVC\14.44.35207\include\xutility
; File C:\Program Files\Microsoft Visual Studio\2022\Professional\VC\Tools\MSVC\14.44.35207\include\xstring
; File C:\Program Files\Microsoft Visual Studio\2022\Professional\VC\Tools\MSVC\14.44.35207\include\__msvc_string_view.hpp
; File C:\Program Files\Microsoft Visual Studio\2022\Professional\VC\Tools\MSVC\14.44.35207\include\xstring
; File C:\Program Files\Microsoft Visual Studio\2022\Professional\VC\Tools\MSVC\14.44.35207\include\__msvc_string_view.hpp
; File C:\Program Files\Microsoft Visual Studio\2022\Professional\VC\Tools\MSVC\14.44.35207\include\xstring
; File C:\Program Files\Microsoft Visual Studio\2022\Professional\VC\Tools\MSVC\14.44.35207\include\__msvc_string_view.hpp
; File C:\Program Files\Microsoft Visual Studio\2022\Professional\VC\Tools\MSVC\14.44.35207\include\xstring
; File C:\Program Files\Microsoft Visual Studio\2022\Professional\VC\Tools\MSVC\14.44.35207\include\xmemory
; File C:\Program Files\Microsoft Visual Studio\2022\Professional\VC\Tools\MSVC\14.44.35207\include\xstring
; File C:\Program Files\Microsoft Visual Studio\2022\Professional\VC\Tools\MSVC\14.44.35207\include\xmemory
; File C:\Program Files\Microsoft Visual Studio\2022\Professional\VC\Tools\MSVC\14.44.35207\include\xstring
; File C:\Program Files\Microsoft Visual Studio\2022\Professional\VC\Tools\MSVC\14.44.35207\include\xmemory
; File C:\Program Files\Microsoft Visual Studio\2022\Professional\VC\Tools\MSVC\14.44.35207\include\xstring
; File C:\Program Files\Microsoft Visual Studio\2022\Professional\VC\Tools\MSVC\14.44.35207\include\__msvc_string_view.hpp
; File C:\Program Files\Microsoft Visual Studio\2022\Professional\VC\Tools\MSVC\14.44.35207\include\xstring
; File C:\Program Files\Microsoft Visual Studio\2022\Professional\VC\Tools\MSVC\14.44.35207\include\__msvc_string_view.hpp
; File C:\Program Files\Microsoft Visual Studio\2022\Professional\VC\Tools\MSVC\14.44.35207\include\xstring
; File C:\Program Files\Microsoft Visual Studio\2022\Professional\VC\Tools\MSVC\14.44.35207\include\__msvc_string_view.hpp
; File C:\Program Files\Microsoft Visual Studio\2022\Professional\VC\Tools\MSVC\14.44.35207\include\xstring
; File C:\Program Files\Microsoft Visual Studio\2022\Professional\VC\Tools\MSVC\14.44.35207\include\__msvc_string_view.hpp
; File C:\Program Files\Microsoft Visual Studio\2022\Professional\VC\Tools\MSVC\14.44.35207\include\xstring
; File C:\Program Files\Microsoft Visual Studio\2022\Professional\VC\Tools\MSVC\14.44.35207\include\xmemory
; File C:\Program Files\Microsoft Visual Studio\2022\Professional\VC\Tools\MSVC\14.44.35207\include\xutility
; File C:\Program Files\Microsoft Visual Studio\2022\Professional\VC\Tools\MSVC\14.44.35207\include\xstring
; File C:\Program Files\Microsoft Visual Studio\2022\Professional\VC\Tools\MSVC\14.44.35207\include\xmemory
; File C:\Program Files\Microsoft Visual Studio\2022\Professional\VC\Tools\MSVC\14.44.35207\include\xutility
;	COMDAT ??$_Copy_n_unchecked4@PAV?$basic_string@DU?$char_traits@D@std@@V?$allocator@D@2@@std@@IPAV12@@std@@YAPAV?$basic_string@DU?$char_traits@D@std@@V?$allocator@D@2@@0@PAV10@I0@Z
_TEXT	SEGMENT
__Old$1$ = -12						; size = 4
__Result$1$ = -8					; size = 4
__Result$1$ = -4					; size = 4
$T1 = -4						; size = 4
__First$ = 8						; size = 4
__Count$ = 12						; size = 4
__Dest$ = 16						; size = 4
??$_Copy_n_unchecked4@PAV?$basic_string@DU?$char_traits@D@std@@V?$allocator@D@2@@std@@IPAV12@@std@@YAPAV?$basic_string@DU?$char_traits@D@std@@V?$allocator@D@2@@0@PAV10@I0@Z PROC ; std::_Copy_n_unchecked4<std::basic_string<char,std::char_traits<char>,std::allocator<char> > *,unsigned int,std::basic_string<char,std::char_traits<char>,std::allocator<char> > *>, COMDAT

; 4797 : _CONSTEXPR20 _OutIt _Copy_n_unchecked4(_InIt _First, _SizeTy _Count, _OutIt _Dest) {

  00000	55		 push	 ebp
  00001	8b ec		 mov	 ebp, esp
  00003	83 ec 0c	 sub	 esp, 12			; 0000000cH

; 4812 :     for (; _Count != 0; ++_Dest, (void) ++_First, --_Count) {

  00006	83 7d 0c 00	 cmp	 DWORD PTR __Count$[ebp], 0
  0000a	53		 push	 ebx
  0000b	56		 push	 esi
  0000c	8b 75 10	 mov	 esi, DWORD PTR __Dest$[ebp]
  0000f	57		 push	 edi
  00010	0f 84 35 01 00
	00		 je	 $LN87@Copy_n_unc
  00016	8b 5d 08	 mov	 ebx, DWORD PTR __First$[ebp]
  00019	8b 45 0c	 mov	 eax, DWORD PTR __Count$[ebp]
  0001c	0f 1f 40 00	 npad	 4
$LL4@Copy_n_unc:
; File C:\Program Files\Microsoft Visual Studio\2022\Professional\VC\Tools\MSVC\14.44.35207\include\xstring

; 1395 :         if (this == _STD addressof(_Right)) {

  00020	3b f3		 cmp	 esi, ebx
  00022	0f 84 0e 01 00
	00		 je	 $LN2@Copy_n_unc

; 453  :         return _Myres > _Small_string_capacity;

  00028	83 7b 14 0f	 cmp	 DWORD PTR [ebx+20], 15	; 0000000fH

; 444  :         const value_type* _Result = _Bx._Buf;

  0002c	8b d3		 mov	 edx, ebx
  0002e	89 5d f8	 mov	 DWORD PTR __Result$1$[ebp], ebx

; 445  :         if (_Large_mode_engaged()) {

  00031	76 05		 jbe	 SHORT $LN10@Copy_n_unc

; 446  :             _Result = _Unfancy(_Bx._Ptr);

  00033	8b 13		 mov	 edx, DWORD PTR [ebx]
  00035	89 55 f8	 mov	 DWORD PTR __Result$1$[ebp], edx
$LN10@Copy_n_unc:

; 1618 :         if (_Count <= _Mypair._Myval2._Myres) {

  00038	8b 4e 14	 mov	 ecx, DWORD PTR [esi+20]

; 1434 :         assign(_Right._Mypair._Myval2._Myptr(), _Right._Mypair._Myval2._Mysize);

  0003b	8b 7b 10	 mov	 edi, DWORD PTR [ebx+16]

; 1618 :         if (_Count <= _Mypair._Myval2._Myres) {

  0003e	89 4d f4	 mov	 DWORD PTR __Old$1$[ebp], ecx
  00041	3b f9		 cmp	 edi, ecx
  00043	77 29		 ja	 SHORT $LN17@Copy_n_unc

; 435  :         value_type* _Result = _Bx._Buf;

  00045	89 75 fc	 mov	 DWORD PTR __Result$1$[ebp], esi
  00048	8b c6		 mov	 eax, esi

; 453  :         return _Myres > _Small_string_capacity;

  0004a	83 f9 0f	 cmp	 ecx, 15			; 0000000fH

; 436  :         if (_Large_mode_engaged()) {

  0004d	76 05		 jbe	 SHORT $LN20@Copy_n_unc

; 437  :             _Result = _Unfancy(_Bx._Ptr);

  0004f	8b 06		 mov	 eax, DWORD PTR [esi]
  00051	89 45 fc	 mov	 DWORD PTR __Result$1$[ebp], eax
$LN20@Copy_n_unc:
; File C:\Program Files\Microsoft Visual Studio\2022\Professional\VC\Tools\MSVC\14.44.35207\include\__msvc_string_view.hpp

; 174  :         _CSTD memmove(_First1, _First2, _Count * sizeof(_Elem));

  00054	57		 push	 edi
  00055	52		 push	 edx
  00056	50		 push	 eax
; File C:\Program Files\Microsoft Visual Studio\2022\Professional\VC\Tools\MSVC\14.44.35207\include\xstring

; 1621 :             _Mypair._Myval2._Mysize = _Count;

  00057	89 7e 10	 mov	 DWORD PTR [esi+16], edi
; File C:\Program Files\Microsoft Visual Studio\2022\Professional\VC\Tools\MSVC\14.44.35207\include\__msvc_string_view.hpp

; 174  :         _CSTD memmove(_First1, _First2, _Count * sizeof(_Elem));

  0005a	e8 00 00 00 00	 call	 _memmove
; File C:\Program Files\Microsoft Visual Studio\2022\Professional\VC\Tools\MSVC\14.44.35207\include\xstring

; 1623 :             _Traits::assign(_Old_ptr[_Count], _Elem());

  0005f	8b 45 fc	 mov	 eax, DWORD PTR __Result$1$[ebp]
; File C:\Program Files\Microsoft Visual Studio\2022\Professional\VC\Tools\MSVC\14.44.35207\include\__msvc_string_view.hpp

; 174  :         _CSTD memmove(_First1, _First2, _Count * sizeof(_Elem));

  00062	83 c4 0c	 add	 esp, 12			; 0000000cH
; File C:\Program Files\Microsoft Visual Studio\2022\Professional\VC\Tools\MSVC\14.44.35207\include\xstring

; 1623 :             _Traits::assign(_Old_ptr[_Count], _Elem());

  00065	c6 04 38 00	 mov	 BYTE PTR [eax+edi], 0

; 1624 :             _ASAN_STRING_CREATE(*this);
; 1625 :             return *this;

  00069	e9 c5 00 00 00	 jmp	 $LN105@Copy_n_unc
$LN17@Copy_n_unc:

; 2998 :         if (_New_size > max_size()) {

  0006e	81 ff ff ff ff
	7f		 cmp	 edi, 2147483647		; 7fffffffH
  00074	0f 87 da 00 00
	00		 ja	 $LN84@Copy_n_unc

; 2978 :         const size_type _Masked = _Requested | _Alloc_mask;

  0007a	8b df		 mov	 ebx, edi
  0007c	83 cb 0f	 or	 ebx, 15			; 0000000fH
  0007f	81 fb ff ff ff
	7f		 cmp	 ebx, 2147483647		; 7fffffffH

; 2979 :         if (_Masked > _Max) { // the mask overflows, settle for max_size()

  00085	76 12		 jbe	 SHORT $LN38@Copy_n_unc

; 2980 :             return _Max;

  00087	b8 00 00 00 80	 mov	 eax, -2147483648	; 80000000H
  0008c	bb ff ff ff 7f	 mov	 ebx, 2147483647		; 7fffffffH
; File C:\Program Files\Microsoft Visual Studio\2022\Professional\VC\Tools\MSVC\14.44.35207\include\xmemory

; 253  :             return _Allocate_manually_vector_aligned<_Traits>(_Bytes);

  00091	50		 push	 eax
  00092	e8 00 00 00 00	 call	 ??$_Allocate_manually_vector_aligned@U_Default_allocate_traits@std@@@std@@YAPAXI@Z ; std::_Allocate_manually_vector_aligned<std::_Default_allocate_traits>
  00097	eb 45		 jmp	 SHORT $LN107@Copy_n_unc
$LN38@Copy_n_unc:
; File C:\Program Files\Microsoft Visual Studio\2022\Professional\VC\Tools\MSVC\14.44.35207\include\xstring

; 2983 :         if (_Old > _Max - _Old / 2) { // similarly, geometric overflows

  00099	8b d1		 mov	 edx, ecx
  0009b	b8 ff ff ff 7f	 mov	 eax, 2147483647		; 7fffffffH
  000a0	d1 ea		 shr	 edx, 1
  000a2	2b c2		 sub	 eax, edx
  000a4	3b c8		 cmp	 ecx, eax
  000a6	76 12		 jbe	 SHORT $LN39@Copy_n_unc

; 2984 :             return _Max;

  000a8	b8 00 00 00 80	 mov	 eax, -2147483648	; 80000000H
  000ad	bb ff ff ff 7f	 mov	 ebx, 2147483647		; 7fffffffH
; File C:\Program Files\Microsoft Visual Studio\2022\Professional\VC\Tools\MSVC\14.44.35207\include\xmemory

; 253  :             return _Allocate_manually_vector_aligned<_Traits>(_Bytes);

  000b2	50		 push	 eax
  000b3	e8 00 00 00 00	 call	 ??$_Allocate_manually_vector_aligned@U_Default_allocate_traits@std@@@std@@YAPAXI@Z ; std::_Allocate_manually_vector_aligned<std::_Default_allocate_traits>
  000b8	eb 24		 jmp	 SHORT $LN107@Copy_n_unc
$LN39@Copy_n_unc:
; File C:\Program Files\Microsoft Visual Studio\2022\Professional\VC\Tools\MSVC\14.44.35207\include\xstring

; 2987 :         return (_STD max)(_Masked, _Old + _Old / 2);

  000ba	8d 04 0a	 lea	 eax, DWORD PTR [edx+ecx]
  000bd	3b d8		 cmp	 ebx, eax
  000bf	0f 42 d8	 cmovb	 ebx, eax

; 825  :         ++_Capacity; // Take null terminator into consideration

  000c2	8d 43 01	 lea	 eax, DWORD PTR [ebx+1]
; File C:\Program Files\Microsoft Visual Studio\2022\Professional\VC\Tools\MSVC\14.44.35207\include\xmemory

; 227  :     if (_Bytes == 0) {

  000c5	85 c0		 test	 eax, eax
  000c7	74 18		 je	 SHORT $LN106@Copy_n_unc
$LN52@Copy_n_unc:

; 228  :         return nullptr;
; 229  :     }
; 230  : 
; 231  : #if _HAS_CXX20 // TRANSITION, GH-1532
; 232  :     if (_STD is_constant_evaluated()) {
; 233  :         return _Traits::_Allocate(_Bytes);
; 234  :     }
; 235  : #endif // _HAS_CXX20
; 236  : 
; 237  : #ifdef __cpp_aligned_new
; 238  :     if constexpr (_Align > __STDCPP_DEFAULT_NEW_ALIGNMENT__) {
; 239  :         size_t _Passed_align = _Align;
; 240  : #if defined(_M_IX86) || defined(_M_X64)
; 241  :         if (_Bytes >= _Big_allocation_threshold) {
; 242  :             // boost the alignment of big allocations to help autovectorization
; 243  :             _Passed_align = (_STD max)(_Align, _Big_allocation_alignment);
; 244  :         }
; 245  : #endif // defined(_M_IX86) || defined(_M_X64)
; 246  :         return _Traits::_Allocate_aligned(_Bytes, _Passed_align);
; 247  :     } else
; 248  : #endif // defined(__cpp_aligned_new)
; 249  :     {
; 250  : #if defined(_M_IX86) || defined(_M_X64)
; 251  :         if (_Bytes >= _Big_allocation_threshold) {

  000c9	3d 00 10 00 00	 cmp	 eax, 4096		; 00001000H
  000ce	72 08		 jb	 SHORT $LN53@Copy_n_unc

; 253  :             return _Allocate_manually_vector_aligned<_Traits>(_Bytes);

  000d0	50		 push	 eax
  000d1	e8 00 00 00 00	 call	 ??$_Allocate_manually_vector_aligned@U_Default_allocate_traits@std@@@std@@YAPAXI@Z ; std::_Allocate_manually_vector_aligned<std::_Default_allocate_traits>
  000d6	eb 06		 jmp	 SHORT $LN107@Copy_n_unc
$LN53@Copy_n_unc:

; 136  :         return ::operator new(_Bytes);

  000d8	50		 push	 eax
  000d9	e8 00 00 00 00	 call	 ??2@YAPAXI@Z		; operator new
$LN107@Copy_n_unc:
; File C:\Program Files\Microsoft Visual Studio\2022\Professional\VC\Tools\MSVC\14.44.35207\include\xstring

; 3009 :         _Mypair._Myval2._Mysize = _New_size;

  000de	83 c4 04	 add	 esp, 4
$LN106@Copy_n_unc:
; File C:\Program Files\Microsoft Visual Studio\2022\Professional\VC\Tools\MSVC\14.44.35207\include\__msvc_string_view.hpp

; 121  :         _CSTD memcpy(_First1, _First2, _Count * sizeof(_Elem));

  000e1	57		 push	 edi
  000e2	ff 75 f8	 push	 DWORD PTR __Result$1$[ebp]
; File C:\Program Files\Microsoft Visual Studio\2022\Professional\VC\Tools\MSVC\14.44.35207\include\xstring

; 3010 :         _Mypair._Myval2._Myres  = _New_capacity;

  000e5	89 5e 14	 mov	 DWORD PTR [esi+20], ebx
; File C:\Program Files\Microsoft Visual Studio\2022\Professional\VC\Tools\MSVC\14.44.35207\include\__msvc_string_view.hpp

; 121  :         _CSTD memcpy(_First1, _First2, _Count * sizeof(_Elem));

  000e8	8b d8		 mov	 ebx, eax
  000ea	53		 push	 ebx
; File C:\Program Files\Microsoft Visual Studio\2022\Professional\VC\Tools\MSVC\14.44.35207\include\xstring

; 3009 :         _Mypair._Myval2._Mysize = _New_size;

  000eb	89 45 fc	 mov	 DWORD PTR $T1[ebp], eax
  000ee	89 7e 10	 mov	 DWORD PTR [esi+16], edi
; File C:\Program Files\Microsoft Visual Studio\2022\Professional\VC\Tools\MSVC\14.44.35207\include\__msvc_string_view.hpp

; 121  :         _CSTD memcpy(_First1, _First2, _Count * sizeof(_Elem));

  000f1	e8 00 00 00 00	 call	 _memcpy
; File C:\Program Files\Microsoft Visual Studio\2022\Professional\VC\Tools\MSVC\14.44.35207\include\xstring

; 3012 :         if (_Old_capacity > _Small_string_capacity) {

  000f6	8b 45 f4	 mov	 eax, DWORD PTR __Old$1$[ebp]
; File C:\Program Files\Microsoft Visual Studio\2022\Professional\VC\Tools\MSVC\14.44.35207\include\__msvc_string_view.hpp

; 121  :         _CSTD memcpy(_First1, _First2, _Count * sizeof(_Elem));

  000f9	83 c4 0c	 add	 esp, 12			; 0000000cH
; File C:\Program Files\Microsoft Visual Studio\2022\Professional\VC\Tools\MSVC\14.44.35207\include\xstring

; 1632 :                 _Traits::assign(_New_ptr[_Count], _Elem());

  000fc	c6 04 3b 00	 mov	 BYTE PTR [ebx+edi], 0

; 3012 :         if (_Old_capacity > _Small_string_capacity) {

  00100	83 f8 0f	 cmp	 eax, 15			; 0000000fH
  00103	76 29		 jbe	 SHORT $LN31@Copy_n_unc

; 852  :         _Al.deallocate(_Old_ptr, _Capacity + 1); // +1 for null terminator

  00105	8d 48 01	 lea	 ecx, DWORD PTR [eax+1]
; File C:\Program Files\Microsoft Visual Studio\2022\Professional\VC\Tools\MSVC\14.44.35207\include\xmemory

; 985  :         _STD _Deallocate<_New_alignof<_Ty>>(_Ptr, sizeof(_Ty) * _Count);

  00108	8b 06		 mov	 eax, DWORD PTR [esi]

; 284  :         if (_Bytes >= _Big_allocation_threshold) {

  0010a	81 f9 00 10 00
	00		 cmp	 ecx, 4096		; 00001000H
  00110	72 12		 jb	 SHORT $LN75@Copy_n_unc

; 205  :     const uintptr_t _Ptr_container   = _Ptr_user[-1];

  00112	8b 50 fc	 mov	 edx, DWORD PTR [eax-4]
  00115	83 c1 23	 add	 ecx, 35			; 00000023H

; 206  : 
; 207  :     // If the following asserts, it likely means that we are performing
; 208  :     // an aligned delete on memory coming from an unaligned allocation.
; 209  :     _STL_ASSERT(_Ptr_user[-2] == _Big_allocation_sentinel, "invalid argument");
; 210  : 
; 211  :     // Extra paranoia on aligned allocation/deallocation; ensure _Ptr_container is
; 212  :     // in range [_Min_back_shift, _Non_user_size]
; 213  : #ifdef _DEBUG
; 214  :     constexpr uintptr_t _Min_back_shift = 2 * sizeof(void*);
; 215  : #else // ^^^ defined(_DEBUG) / !defined(_DEBUG) vvv
; 216  :     constexpr uintptr_t _Min_back_shift = sizeof(void*);
; 217  : #endif // ^^^ !defined(_DEBUG) ^^^
; 218  :     const uintptr_t _Back_shift = reinterpret_cast<uintptr_t>(_Ptr) - _Ptr_container;

  00118	2b c2		 sub	 eax, edx

; 219  :     _STL_VERIFY(_Back_shift >= _Min_back_shift && _Back_shift <= _Non_user_size, "invalid argument");

  0011a	83 c0 fc	 add	 eax, -4			; fffffffcH
  0011d	83 f8 1f	 cmp	 eax, 31			; 0000001fH
  00120	77 37		 ja	 SHORT $LN85@Copy_n_unc

; 220  :     _Ptr = reinterpret_cast<void*>(_Ptr_container);

  00122	8b c2		 mov	 eax, edx
$LN75@Copy_n_unc:

; 289  :         ::operator delete(_Ptr, _Bytes);

  00124	51		 push	 ecx
  00125	50		 push	 eax
  00126	e8 00 00 00 00	 call	 ??3@YAXPAXI@Z		; operator delete
  0012b	83 c4 08	 add	 esp, 8
$LN31@Copy_n_unc:
; File C:\Program Files\Microsoft Visual Studio\2022\Professional\VC\Tools\MSVC\14.44.35207\include\xutility

; 4812 :     for (; _Count != 0; ++_Dest, (void) ++_First, --_Count) {

  0012e	89 1e		 mov	 DWORD PTR [esi], ebx
  00130	8b 5d 08	 mov	 ebx, DWORD PTR __First$[ebp]
$LN105@Copy_n_unc:
  00133	8b 45 0c	 mov	 eax, DWORD PTR __Count$[ebp]
$LN2@Copy_n_unc:
  00136	83 c3 18	 add	 ebx, 24			; 00000018H
  00139	83 c6 18	 add	 esi, 24			; 00000018H
  0013c	83 e8 01	 sub	 eax, 1
  0013f	89 5d 08	 mov	 DWORD PTR __First$[ebp], ebx
  00142	89 45 0c	 mov	 DWORD PTR __Count$[ebp], eax
  00145	0f 85 d5 fe ff
	ff		 jne	 $LL4@Copy_n_unc
$LN87@Copy_n_unc:

; 4813 :         *_Dest = *_First;
; 4814 :     }
; 4815 : 
; 4816 :     return _Dest;

  0014b	5f		 pop	 edi
  0014c	8b c6		 mov	 eax, esi
  0014e	5e		 pop	 esi
  0014f	5b		 pop	 ebx

; 4817 : }

  00150	8b e5		 mov	 esp, ebp
  00152	5d		 pop	 ebp
  00153	c3		 ret	 0
$LN84@Copy_n_unc:
; File C:\Program Files\Microsoft Visual Studio\2022\Professional\VC\Tools\MSVC\14.44.35207\include\xstring

; 2999 :             _Xlen_string(); // result too long

  00154	e8 00 00 00 00	 call	 ?_Xlen_string@std@@YAXXZ ; std::_Xlen_string
$LN85@Copy_n_unc:
; File C:\Program Files\Microsoft Visual Studio\2022\Professional\VC\Tools\MSVC\14.44.35207\include\xmemory

; 219  :     _STL_VERIFY(_Back_shift >= _Min_back_shift && _Back_shift <= _Non_user_size, "invalid argument");

  00159	6a 00		 push	 0
  0015b	6a 00		 push	 0
  0015d	6a 00		 push	 0
  0015f	6a 00		 push	 0
  00161	6a 00		 push	 0
  00163	e8 00 00 00 00	 call	 __invoke_watson
$LN104@Copy_n_unc:
  00168	cc		 int	 3
??$_Copy_n_unchecked4@PAV?$basic_string@DU?$char_traits@D@std@@V?$allocator@D@2@@std@@IPAV12@@std@@YAPAV?$basic_string@DU?$char_traits@D@std@@V?$allocator@D@2@@0@PAV10@I0@Z ENDP ; std::_Copy_n_unchecked4<std::basic_string<char,std::char_traits<char>,std::allocator<char> > *,unsigned int,std::basic_string<char,std::char_traits<char>,std::allocator<char> > *>
_TEXT	ENDS
; Function compile flags: /Ogtp
; File C:\Program Files\Microsoft Visual Studio\2022\Professional\VC\Tools\MSVC\14.44.35207\include\xmemory
;	COMDAT ??$_Uninitialized_copy_n@PAV?$basic_string@DU?$char_traits@D@std@@V?$allocator@D@2@@std@@V?$allocator@V?$basic_string@DU?$char_traits@D@std@@V?$allocator@D@2@@std@@@2@@std@@YAPAV?$basic_string@DU?$char_traits@D@std@@V?$allocator@D@2@@0@PAV10@I0AAV?$allocator@V?$basic_string@DU?$char_traits@D@std@@V?$allocator@D@2@@std@@@0@@Z
_TEXT	SEGMENT
__Backout$ = -24					; size = 12
__$EHRec$ = -12						; size = 12
__First$ = 8						; size = 4
__Count$ = 12						; size = 4
__Dest$ = 16						; size = 4
__Al$ = 20						; size = 4
??$_Uninitialized_copy_n@PAV?$basic_string@DU?$char_traits@D@std@@V?$allocator@D@2@@std@@V?$allocator@V?$basic_string@DU?$char_traits@D@std@@V?$allocator@D@2@@std@@@2@@std@@YAPAV?$basic_string@DU?$char_traits@D@std@@V?$allocator@D@2@@0@PAV10@I0AAV?$allocator@V?$basic_string@DU?$char_traits@D@std@@V?$allocator@D@2@@std@@@0@@Z PROC ; std::_Uninitialized_copy_n<std::basic_string<char,std::char_traits<char>,std::allocator<char> > *,std::allocator<std::basic_string<char,std::char_traits<char>,std::allocator<char> > > >, COMDAT

; 1910 :     _InIt _First, size_t _Count, _Alloc_ptr_t<_Alloc> _Dest, _Alloc& _Al) {

  00000	55		 push	 ebp
  00001	8b ec		 mov	 ebp, esp
  00003	6a ff		 push	 -1
  00005	68 00 00 00 00	 push	 __ehhandler$??$_Uninitialized_copy_n@PAV?$basic_string@DU?$char_traits@D@std@@V?$allocator@D@2@@std@@V?$allocator@V?$basic_string@DU?$char_traits@D@std@@V?$allocator@D@2@@std@@@2@@std@@YAPAV?$basic_string@DU?$char_traits@D@std@@V?$allocator@D@2@@0@PAV10@I0AAV?$allocator@V?$basic_string@DU?$char_traits@D@std@@V?$allocator@D@2@@std@@@0@@Z
  0000a	64 a1 00 00 00
	00		 mov	 eax, DWORD PTR fs:0
  00010	50		 push	 eax
  00011	83 ec 0c	 sub	 esp, 12			; 0000000cH
  00014	53		 push	 ebx
  00015	56		 push	 esi
  00016	57		 push	 edi
  00017	a1 00 00 00 00	 mov	 eax, DWORD PTR ___security_cookie
  0001c	33 c5		 xor	 eax, ebp
  0001e	50		 push	 eax
  0001f	8d 45 f4	 lea	 eax, DWORD PTR __$EHRec$[ebp]
  00022	64 a3 00 00 00
	00		 mov	 DWORD PTR fs:0, eax

; 1833 :     _CONSTEXPR20 _Uninitialized_backout_al(pointer _Dest, _Alloc& _Al_) : _First(_Dest), _Last(_Dest), _Al(_Al_) {}

  00028	8b 75 10	 mov	 esi, DWORD PTR __Dest$[ebp]
  0002b	8b 45 14	 mov	 eax, DWORD PTR __Al$[ebp]

; 1911 :     // copy _First + [0, _Count) to raw _Dest, using _Al
; 1912 :     // note: only called internally from elsewhere in the STL
; 1913 :     using _Ptrval = typename _Alloc::value_type*;
; 1914 : 
; 1915 : #ifdef _ENABLE_STL_INTERNAL_CHECK
; 1916 :     auto _UFirst = _STD _Get_unwrapped_n(_STD move(_First), _Count);
; 1917 : #else // ^^^ Checking / No checking vvv
; 1918 :     auto _UFirst = _STD _Get_unwrapped(_STD move(_First));

  0002e	8b 7d 08	 mov	 edi, DWORD PTR __First$[ebp]

; 1833 :     _CONSTEXPR20 _Uninitialized_backout_al(pointer _Dest, _Alloc& _Al_) : _First(_Dest), _Last(_Dest), _Al(_Al_) {}

  00031	89 75 e8	 mov	 DWORD PTR __Backout$[ebp], esi
  00034	89 75 ec	 mov	 DWORD PTR __Backout$[ebp+4], esi
  00037	89 45 f0	 mov	 DWORD PTR __Backout$[ebp+8], eax

; 1919 : #endif // ^^^ No checking ^^^
; 1920 : 
; 1921 :     constexpr bool _Can_memmove =
; 1922 :         conjunction_v<bool_constant<_Iter_copy_cat<decltype(_UFirst), _Ptrval>::_Bitcopy_constructible>,
; 1923 :             _Uses_default_construct<_Alloc, _Ptrval, decltype(*_UFirst)>>;
; 1924 : 
; 1925 :     if constexpr (_Can_memmove) {
; 1926 : #if _HAS_CXX20
; 1927 :         if (!_STD is_constant_evaluated())
; 1928 : #endif // _HAS_CXX20
; 1929 :         {
; 1930 :             _STD _Copy_memmove_n(_UFirst, _Count, _STD _Unfancy(_Dest));
; 1931 :             _Dest += _Count;
; 1932 :             return _Dest;
; 1933 :         }
; 1934 :     }
; 1935 : 
; 1936 :     _Uninitialized_backout_al<_Alloc> _Backout{_Dest, _Al};
; 1937 :     for (; _Count != 0; ++_UFirst, (void) --_Count) {

  0003a	8b 5d 0c	 mov	 ebx, DWORD PTR __Count$[ebp]
  0003d	c7 45 fc 00 00
	00 00		 mov	 DWORD PTR __$EHRec$[ebp+8], 0
  00044	85 db		 test	 ebx, ebx
  00046	74 16		 je	 SHORT $LN38@Uninitiali
$LL4@Uninitiali:

; 732  :         ::new (const_cast<void*>(static_cast<const volatile void*>(_Ptr))) _Objty(_STD forward<_Types>(_Args)...);

  00048	57		 push	 edi
  00049	8b ce		 mov	 ecx, esi
  0004b	e8 00 00 00 00	 call	 ??0?$basic_string@DU?$char_traits@D@std@@V?$allocator@D@2@@std@@QAE@ABV01@@Z ; std::basic_string<char,std::char_traits<char>,std::allocator<char> >::basic_string<char,std::char_traits<char>,std::allocator<char> >

; 1845 :         ++_Last;

  00050	83 c6 18	 add	 esi, 24			; 00000018H

; 1919 : #endif // ^^^ No checking ^^^
; 1920 : 
; 1921 :     constexpr bool _Can_memmove =
; 1922 :         conjunction_v<bool_constant<_Iter_copy_cat<decltype(_UFirst), _Ptrval>::_Bitcopy_constructible>,
; 1923 :             _Uses_default_construct<_Alloc, _Ptrval, decltype(*_UFirst)>>;
; 1924 : 
; 1925 :     if constexpr (_Can_memmove) {
; 1926 : #if _HAS_CXX20
; 1927 :         if (!_STD is_constant_evaluated())
; 1928 : #endif // _HAS_CXX20
; 1929 :         {
; 1930 :             _STD _Copy_memmove_n(_UFirst, _Count, _STD _Unfancy(_Dest));
; 1931 :             _Dest += _Count;
; 1932 :             return _Dest;
; 1933 :         }
; 1934 :     }
; 1935 : 
; 1936 :     _Uninitialized_backout_al<_Alloc> _Backout{_Dest, _Al};
; 1937 :     for (; _Count != 0; ++_UFirst, (void) --_Count) {

  00053	83 c7 18	 add	 edi, 24			; 00000018H

; 1845 :         ++_Last;

  00056	89 75 ec	 mov	 DWORD PTR __Backout$[ebp+4], esi

; 1919 : #endif // ^^^ No checking ^^^
; 1920 : 
; 1921 :     constexpr bool _Can_memmove =
; 1922 :         conjunction_v<bool_constant<_Iter_copy_cat<decltype(_UFirst), _Ptrval>::_Bitcopy_constructible>,
; 1923 :             _Uses_default_construct<_Alloc, _Ptrval, decltype(*_UFirst)>>;
; 1924 : 
; 1925 :     if constexpr (_Can_memmove) {
; 1926 : #if _HAS_CXX20
; 1927 :         if (!_STD is_constant_evaluated())
; 1928 : #endif // _HAS_CXX20
; 1929 :         {
; 1930 :             _STD _Copy_memmove_n(_UFirst, _Count, _STD _Unfancy(_Dest));
; 1931 :             _Dest += _Count;
; 1932 :             return _Dest;
; 1933 :         }
; 1934 :     }
; 1935 : 
; 1936 :     _Uninitialized_backout_al<_Alloc> _Backout{_Dest, _Al};
; 1937 :     for (; _Count != 0; ++_UFirst, (void) --_Count) {

  00059	83 eb 01	 sub	 ebx, 1
  0005c	75 ea		 jne	 SHORT $LL4@Uninitiali
$LN38@Uninitiali:

; 1938 :         _Backout._Emplace_back(*_UFirst);
; 1939 :     }
; 1940 : 
; 1941 :     return _Backout._Release();
; 1942 : }

  0005e	8b c6		 mov	 eax, esi
  00060	8b 4d f4	 mov	 ecx, DWORD PTR __$EHRec$[ebp]
  00063	64 89 0d 00 00
	00 00		 mov	 DWORD PTR fs:0, ecx
  0006a	59		 pop	 ecx
  0006b	5f		 pop	 edi
  0006c	5e		 pop	 esi
  0006d	5b		 pop	 ebx
  0006e	8b e5		 mov	 esp, ebp
  00070	5d		 pop	 ebp
  00071	c3		 ret	 0
_TEXT	ENDS
;	COMDAT text$x
text$x	SEGMENT
__unwindfunclet$??$_Uninitialized_copy_n@PAV?$basic_string@DU?$char_traits@D@std@@V?$allocator@D@2@@std@@V?$allocator@V?$basic_string@DU?$char_traits@D@std@@V?$allocator@D@2@@std@@@2@@std@@YAPAV?$basic_string@DU?$char_traits@D@std@@V?$allocator@D@2@@0@PAV10@I0AAV?$allocator@V?$basic_string@DU?$char_traits@D@std@@V?$allocator@D@2@@std@@@0@@Z$0:
  00000	8d 4d e8	 lea	 ecx, DWORD PTR __Backout$[ebp]
  00003	e9 00 00 00 00	 jmp	 ??1?$_Uninitialized_backout_al@V?$allocator@V?$basic_string@DU?$char_traits@D@std@@V?$allocator@D@2@@std@@@std@@@std@@QAE@XZ ; std::_Uninitialized_backout_al<std::allocator<std::basic_string<char,std::char_traits<char>,std::allocator<char> > > >::~_Uninitialized_backout_al<std::allocator<std::basic_string<char,std::char_traits<char>,std::allocator<char> > > >
  00008	cc		 int	 3
  00009	cc		 int	 3
  0000a	cc		 int	 3
  0000b	cc		 int	 3
  0000c	cc		 int	 3
__ehhandler$??$_Uninitialized_copy_n@PAV?$basic_string@DU?$char_traits@D@std@@V?$allocator@D@2@@std@@V?$allocator@V?$basic_string@DU?$char_traits@D@std@@V?$allocator@D@2@@std@@@2@@std@@YAPAV?$basic_string@DU?$char_traits@D@std@@V?$allocator@D@2@@0@PAV10@I0AAV?$allocator@V?$basic_string@DU?$char_traits@D@std@@V?$allocator@D@2@@std@@@0@@Z:
  0000d	90		 npad	 1
  0000e	90		 npad	 1
  0000f	8b 54 24 08	 mov	 edx, DWORD PTR [esp+8]
  00013	8d 42 0c	 lea	 eax, DWORD PTR [edx+12]
  00016	8b 4a e4	 mov	 ecx, DWORD PTR [edx-28]
  00019	33 c8		 xor	 ecx, eax
  0001b	e8 00 00 00 00	 call	 @__security_check_cookie@4
  00020	b8 00 00 00 00	 mov	 eax, OFFSET __ehfuncinfo$??$_Uninitialized_copy_n@PAV?$basic_string@DU?$char_traits@D@std@@V?$allocator@D@2@@std@@V?$allocator@V?$basic_string@DU?$char_traits@D@std@@V?$allocator@D@2@@std@@@2@@std@@YAPAV?$basic_string@DU?$char_traits@D@std@@V?$allocator@D@2@@0@PAV10@I0AAV?$allocator@V?$basic_string@DU?$char_traits@D@std@@V?$allocator@D@2@@std@@@0@@Z
  00025	e9 00 00 00 00	 jmp	 ___CxxFrameHandler3
text$x	ENDS
??$_Uninitialized_copy_n@PAV?$basic_string@DU?$char_traits@D@std@@V?$allocator@D@2@@std@@V?$allocator@V?$basic_string@DU?$char_traits@D@std@@V?$allocator@D@2@@std@@@2@@std@@YAPAV?$basic_string@DU?$char_traits@D@std@@V?$allocator@D@2@@0@PAV10@I0AAV?$allocator@V?$basic_string@DU?$char_traits@D@std@@V?$allocator@D@2@@std@@@0@@Z ENDP ; std::_Uninitialized_copy_n<std::basic_string<char,std::char_traits<char>,std::allocator<char> > *,std::allocator<std::basic_string<char,std::char_traits<char>,std::allocator<char> > > >
; Function compile flags: /Ogtp
; File C:\Program Files\Microsoft Visual Studio\2022\Professional\VC\Tools\MSVC\14.44.35207\include\vector
; File C:\Program Files\Microsoft Visual Studio\2022\Professional\VC\Tools\MSVC\14.44.35207\include\xmemory
; File C:\Program Files\Microsoft Visual Studio\2022\Professional\VC\Tools\MSVC\14.44.35207\include\vector
; File C:\Program Files\Microsoft Visual Studio\2022\Professional\VC\Tools\MSVC\14.44.35207\include\xmemory
; File C:\Program Files\Microsoft Visual Studio\2022\Professional\VC\Tools\MSVC\14.44.35207\include\vector
; File C:\Program Files\Microsoft Visual Studio\2022\Professional\VC\Tools\MSVC\14.44.35207\include\xmemory
; File C:\Program Files\Microsoft Visual Studio\2022\Professional\VC\Tools\MSVC\14.44.35207\include\vector
;	COMDAT ??$_Assign_counted_range@PAV?$basic_string@DU?$char_traits@D@std@@V?$allocator@D@2@@std@@@?$vector@V?$basic_string@DU?$char_traits@D@std@@V?$allocator@D@2@@std@@V?$allocator@V?$basic_string@DU?$char_traits@D@std@@V?$allocator@D@2@@std@@@2@@std@@AAEXPAV?$basic_string@DU?$char_traits@D@std@@V?$allocator@D@2@@1@I@Z
_TEXT	SEGMENT
__Backout$2 = -32					; size = 12
__Oldsize$1$ = -20					; size = 4
__Oldcapacity$1$ = -20					; size = 4
_this$1$ = -16						; size = 4
$T3 = -16						; size = 4
__$EHRec$ = -12						; size = 12
__First$ = 8						; size = 4
__Newsize$ = 12						; size = 4
__Newlast$1$ = 12					; size = 4
??$_Assign_counted_range@PAV?$basic_string@DU?$char_traits@D@std@@V?$allocator@D@2@@std@@@?$vector@V?$basic_string@DU?$char_traits@D@std@@V?$allocator@D@2@@std@@V?$allocator@V?$basic_string@DU?$char_traits@D@std@@V?$allocator@D@2@@std@@@2@@std@@AAEXPAV?$basic_string@DU?$char_traits@D@std@@V?$allocator@D@2@@1@I@Z PROC ; std::vector<std::basic_string<char,std::char_traits<char>,std::allocator<char> >,std::allocator<std::basic_string<char,std::char_traits<char>,std::allocator<char> > > >::_Assign_counted_range<std::basic_string<char,std::char_traits<char>,std::allocator<char> > *>, COMDAT
; _this$ = ecx

; 1420 :     _CONSTEXPR20 void _Assign_counted_range(_Iter _First, const size_type _Newsize) {

  00000	55		 push	 ebp
  00001	8b ec		 mov	 ebp, esp
  00003	6a ff		 push	 -1
  00005	68 00 00 00 00	 push	 __ehhandler$??$_Assign_counted_range@PAV?$basic_string@DU?$char_traits@D@std@@V?$allocator@D@2@@std@@@?$vector@V?$basic_string@DU?$char_traits@D@std@@V?$allocator@D@2@@std@@V?$allocator@V?$basic_string@DU?$char_traits@D@std@@V?$allocator@D@2@@std@@@2@@std@@AAEXPAV?$basic_string@DU?$char_traits@D@std@@V?$allocator@D@2@@1@I@Z
  0000a	64 a1 00 00 00
	00		 mov	 eax, DWORD PTR fs:0
  00010	50		 push	 eax
  00011	83 ec 14	 sub	 esp, 20			; 00000014H
  00014	53		 push	 ebx
  00015	56		 push	 esi
  00016	57		 push	 edi
  00017	a1 00 00 00 00	 mov	 eax, DWORD PTR ___security_cookie
  0001c	33 c5		 xor	 eax, ebp
  0001e	50		 push	 eax
  0001f	8d 45 f4	 lea	 eax, DWORD PTR __$EHRec$[ebp]
  00022	64 a3 00 00 00
	00		 mov	 DWORD PTR fs:0, eax
  00028	8b f9		 mov	 edi, ecx
  0002a	89 7d f0	 mov	 DWORD PTR _this$1$[ebp], edi

; 1421 :         // assign elements from counted range _First + [0, _Newsize)
; 1422 :         auto& _Al         = _Getal();
; 1423 :         auto& _My_data    = _Mypair._Myval2;
; 1424 :         pointer& _Myfirst = _My_data._Myfirst;
; 1425 :         pointer& _Mylast  = _My_data._Mylast;
; 1426 :         pointer& _Myend   = _My_data._Myend;
; 1427 : 
; 1428 :         constexpr bool _Nothrow_construct = conjunction_v<is_nothrow_constructible<_Ty, _Iter_ref_t<_Iter>>,
; 1429 :             _Uses_default_construct<_Alloc, _Ty*, _Iter_ref_t<_Iter>>>;
; 1430 : 
; 1431 :         _My_data._Orphan_all();
; 1432 :         const auto _Oldcapacity = static_cast<size_type>(_Myend - _Myfirst);

  0002d	8b 57 08	 mov	 edx, DWORD PTR [edi+8]
  00030	b8 ab aa aa 2a	 mov	 eax, 715827883		; 2aaaaaabH
  00035	8b 37		 mov	 esi, DWORD PTR [edi]
  00037	2b d6		 sub	 edx, esi

; 1433 :         if (_Newsize > _Oldcapacity) {

  00039	8b 5d 0c	 mov	 ebx, DWORD PTR __Newsize$[ebp]
  0003c	f7 ea		 imul	 edx
  0003e	c1 fa 02	 sar	 edx, 2
  00041	8b c2		 mov	 eax, edx
  00043	c1 e8 1f	 shr	 eax, 31			; 0000001fH
  00046	03 c2		 add	 eax, edx
  00048	89 45 ec	 mov	 DWORD PTR __Oldcapacity$1$[ebp], eax
  0004b	3b d8		 cmp	 ebx, eax
  0004d	0f 86 b5 00 00
	00		 jbe	 $LN5@Assign_cou

; 1703 :         if (_Newsize > max_size()) {

  00053	81 fb aa aa aa
	0a		 cmp	 ebx, 178956970		; 0aaaaaaaH
  00059	0f 87 89 01 00
	00		 ja	 $LN137@Assign_cou

; 2011 :         if (_Oldcapacity > _Max - _Oldcapacity / 2) {

  0005f	8b 55 ec	 mov	 edx, DWORD PTR __Oldcapacity$1$[ebp]
  00062	8b c8		 mov	 ecx, eax
  00064	d1 e9		 shr	 ecx, 1
  00066	b8 aa aa aa 0a	 mov	 eax, 178956970		; 0aaaaaaaH
  0006b	2b c1		 sub	 eax, ecx
  0006d	3b d0		 cmp	 edx, eax
  0006f	76 09		 jbe	 SHORT $LN15@Assign_cou

; 2012 :             return _Max; // geometric growth would overflow

  00071	c7 45 f0 aa aa
	aa 0a		 mov	 DWORD PTR $T3[ebp], 178956970 ; 0aaaaaaaH
  00078	eb 0b		 jmp	 SHORT $LN16@Assign_cou
$LN15@Assign_cou:

; 2013 :         }
; 2014 : 
; 2015 :         const size_type _Geometric = _Oldcapacity + _Oldcapacity / 2;

  0007a	8d 04 11	 lea	 eax, DWORD PTR [ecx+edx]

; 2016 : 
; 2017 :         if (_Geometric < _Newsize) {

  0007d	3b c3		 cmp	 eax, ebx
  0007f	0f 42 c3	 cmovb	 eax, ebx
  00082	89 45 f0	 mov	 DWORD PTR $T3[ebp], eax
$LN16@Assign_cou:

; 1709 :         if (_Myfirst) { // destroy and deallocate old array

  00085	85 f6		 test	 esi, esi
  00087	74 4f		 je	 SHORT $LN12@Assign_cou

; 1710 :             _Destroy_range(_Myfirst, _Mylast, _Al);

  00089	8b 47 04	 mov	 eax, DWORD PTR [edi+4]
; File C:\Program Files\Microsoft Visual Studio\2022\Professional\VC\Tools\MSVC\14.44.35207\include\xmemory

; 1102 :         for (; _First != _Last; ++_First) {

  0008c	3b f0		 cmp	 esi, eax
  0008e	74 13		 je	 SHORT $LN23@Assign_cou
  00090	8b d8		 mov	 ebx, eax
$LL24@Assign_cou:
  00092	8b ce		 mov	 ecx, esi
  00094	e8 00 00 00 00	 call	 ??1?$basic_string@DU?$char_traits@D@std@@V?$allocator@D@2@@std@@QAE@XZ ; std::basic_string<char,std::char_traits<char>,std::allocator<char> >::~basic_string<char,std::char_traits<char>,std::allocator<char> >
  00099	83 c6 18	 add	 esi, 24			; 00000018H
  0009c	3b f3		 cmp	 esi, ebx
  0009e	75 f2		 jne	 SHORT $LL24@Assign_cou
  000a0	8b 5d 0c	 mov	 ebx, DWORD PTR __Newsize$[ebp]
$LN23@Assign_cou:
; File C:\Program Files\Microsoft Visual Studio\2022\Professional\VC\Tools\MSVC\14.44.35207\include\vector

; 1712 :             _Al.deallocate(_Myfirst, static_cast<size_type>(_Myend - _Myfirst));

  000a3	8b 37		 mov	 esi, DWORD PTR [edi]
  000a5	b8 ab aa aa 2a	 mov	 eax, 715827883		; 2aaaaaabH
  000aa	8b 4f 08	 mov	 ecx, DWORD PTR [edi+8]
  000ad	2b ce		 sub	 ecx, esi
  000af	f7 e9		 imul	 ecx
  000b1	8b cf		 mov	 ecx, edi
  000b3	c1 fa 02	 sar	 edx, 2
  000b6	8b c2		 mov	 eax, edx
  000b8	c1 e8 1f	 shr	 eax, 31			; 0000001fH
  000bb	03 c2		 add	 eax, edx
  000bd	50		 push	 eax
  000be	56		 push	 esi
  000bf	e8 00 00 00 00	 call	 ?deallocate@?$allocator@V?$basic_string@DU?$char_traits@D@std@@V?$allocator@D@2@@std@@@std@@QAEXQAV?$basic_string@DU?$char_traits@D@std@@V?$allocator@D@2@@2@I@Z ; std::allocator<std::basic_string<char,std::char_traits<char>,std::allocator<char> > >::deallocate

; 1713 : 
; 1714 :             _Myfirst = nullptr;

  000c4	c7 07 00 00 00
	00		 mov	 DWORD PTR [edi], 0

; 1715 :             _Mylast  = nullptr;

  000ca	c7 47 04 00 00
	00 00		 mov	 DWORD PTR [edi+4], 0

; 1716 :             _Myend   = nullptr;

  000d1	c7 47 08 00 00
	00 00		 mov	 DWORD PTR [edi+8], 0
$LN12@Assign_cou:

; 1717 :         }
; 1718 : 
; 1719 :         _Buy_raw(_Newcapacity);

  000d8	ff 75 f0	 push	 DWORD PTR $T3[ebp]
  000db	8b cf		 mov	 ecx, edi
  000dd	e8 00 00 00 00	 call	 ?_Buy_raw@?$vector@V?$basic_string@DU?$char_traits@D@std@@V?$allocator@D@2@@std@@V?$allocator@V?$basic_string@DU?$char_traits@D@std@@V?$allocator@D@2@@std@@@2@@std@@AAEXI@Z ; std::vector<std::basic_string<char,std::char_traits<char>,std::allocator<char> >,std::allocator<std::basic_string<char,std::char_traits<char>,std::allocator<char> > > >::_Buy_raw

; 1434 :             _Clear_and_reserve_geometric(_Newsize);
; 1435 :             if constexpr (_Nothrow_construct) {
; 1436 :                 _Mylast = _STD _Uninitialized_copy_n(_STD move(_First), _Newsize, _Myfirst, _Al);
; 1437 :                 _ASAN_VECTOR_CREATE;
; 1438 :             } else {
; 1439 :                 _ASAN_VECTOR_CREATE_GUARD;
; 1440 :                 _Mylast = _STD _Uninitialized_copy_n(_STD move(_First), _Newsize, _Myfirst, _Al);

  000e2	57		 push	 edi
  000e3	ff 37		 push	 DWORD PTR [edi]
  000e5	53		 push	 ebx
  000e6	ff 75 08	 push	 DWORD PTR __First$[ebp]
  000e9	e8 00 00 00 00	 call	 ??$_Uninitialized_copy_n@PAV?$basic_string@DU?$char_traits@D@std@@V?$allocator@D@2@@std@@V?$allocator@V?$basic_string@DU?$char_traits@D@std@@V?$allocator@D@2@@std@@@2@@std@@YAPAV?$basic_string@DU?$char_traits@D@std@@V?$allocator@D@2@@0@PAV10@I0AAV?$allocator@V?$basic_string@DU?$char_traits@D@std@@V?$allocator@D@2@@std@@@0@@Z ; std::_Uninitialized_copy_n<std::basic_string<char,std::char_traits<char>,std::allocator<char> > *,std::allocator<std::basic_string<char,std::char_traits<char>,std::allocator<char> > > >
  000ee	83 c4 10	 add	 esp, 16			; 00000010H
  000f1	89 47 04	 mov	 DWORD PTR [edi+4], eax

; 1479 :         }
; 1480 :     }

  000f4	8b 4d f4	 mov	 ecx, DWORD PTR __$EHRec$[ebp]
  000f7	64 89 0d 00 00
	00 00		 mov	 DWORD PTR fs:0, ecx
  000fe	59		 pop	 ecx
  000ff	5f		 pop	 edi
  00100	5e		 pop	 esi
  00101	5b		 pop	 ebx
  00102	8b e5		 mov	 esp, ebp
  00104	5d		 pop	 ebp
  00105	c2 08 00	 ret	 8
$LN5@Assign_cou:

; 1441 :             }
; 1442 :             return;
; 1443 :         }
; 1444 : 
; 1445 :         const auto _Oldsize = static_cast<size_type>(_Mylast - _Myfirst);

  00108	8b 7f 04	 mov	 edi, DWORD PTR [edi+4]
  0010b	b8 ab aa aa 2a	 mov	 eax, 715827883		; 2aaaaaabH
  00110	8b cf		 mov	 ecx, edi
  00112	2b ce		 sub	 ecx, esi
  00114	f7 e9		 imul	 ecx
  00116	c1 fa 02	 sar	 edx, 2
  00119	8b c2		 mov	 eax, edx
  0011b	c1 e8 1f	 shr	 eax, 31			; 0000001fH
  0011e	03 c2		 add	 eax, edx
  00120	89 45 ec	 mov	 DWORD PTR __Oldsize$1$[ebp], eax

; 1446 :         if (_Newsize > _Oldsize) {

  00123	3b d8		 cmp	 ebx, eax
  00125	76 6e		 jbe	 SHORT $LN6@Assign_cou

; 1447 :             bool _Copied = false;
; 1448 :             if constexpr (_Iter_copy_cat<_Iter, pointer>::_Bitcopy_assignable) {
; 1449 : #if _HAS_CXX20
; 1450 :                 if (!_STD is_constant_evaluated())
; 1451 : #endif // _HAS_CXX20
; 1452 :                 {
; 1453 :                     _Copy_memmove_n(_First, static_cast<size_t>(_Oldsize), _Myfirst);
; 1454 :                     _First += _Oldsize;
; 1455 :                     _Copied = true;
; 1456 :                 }
; 1457 :             }
; 1458 : 
; 1459 :             if (!_Copied) {
; 1460 :                 for (auto _Mid = _Myfirst; _Mid != _Mylast; ++_Mid, (void) ++_First) {

  00127	8b 5d 08	 mov	 ebx, DWORD PTR __First$[ebp]
  0012a	3b f7		 cmp	 esi, edi
  0012c	74 1c		 je	 SHORT $LN133@Assign_cou
  0012e	66 90		 npad	 2
$LL4@Assign_cou:

; 1461 :                     *_Mid = *_First;

  00130	53		 push	 ebx
  00131	8b ce		 mov	 ecx, esi
  00133	e8 00 00 00 00	 call	 ??4?$basic_string@DU?$char_traits@D@std@@V?$allocator@D@2@@std@@QAEAAV01@ABV01@@Z ; std::basic_string<char,std::char_traits<char>,std::allocator<char> >::operator=
  00138	8b 45 f0	 mov	 eax, DWORD PTR _this$1$[ebp]
  0013b	83 c6 18	 add	 esi, 24			; 00000018H
  0013e	83 c3 18	 add	 ebx, 24			; 00000018H
  00141	8b 78 04	 mov	 edi, DWORD PTR [eax+4]
  00144	3b f7		 cmp	 esi, edi
  00146	75 e8		 jne	 SHORT $LL4@Assign_cou

; 1447 :             bool _Copied = false;
; 1448 :             if constexpr (_Iter_copy_cat<_Iter, pointer>::_Bitcopy_assignable) {
; 1449 : #if _HAS_CXX20
; 1450 :                 if (!_STD is_constant_evaluated())
; 1451 : #endif // _HAS_CXX20
; 1452 :                 {
; 1453 :                     _Copy_memmove_n(_First, static_cast<size_t>(_Oldsize), _Myfirst);
; 1454 :                     _First += _Oldsize;
; 1455 :                     _Copied = true;
; 1456 :                 }
; 1457 :             }
; 1458 : 
; 1459 :             if (!_Copied) {
; 1460 :                 for (auto _Mid = _Myfirst; _Mid != _Mylast; ++_Mid, (void) ++_First) {

  00148	eb 03		 jmp	 SHORT $LN3@Assign_cou
$LN133@Assign_cou:
  0014a	8b 45 f0	 mov	 eax, DWORD PTR _this$1$[ebp]
$LN3@Assign_cou:

; 1470 :                 _Mylast = _STD _Uninitialized_copy_n(_STD move(_First), _Newsize - _Oldsize, _Mylast, _Al);

  0014d	8b 75 0c	 mov	 esi, DWORD PTR __Newsize$[ebp]
  00150	2b 75 ec	 sub	 esi, DWORD PTR __Oldsize$1$[ebp]
; File C:\Program Files\Microsoft Visual Studio\2022\Professional\VC\Tools\MSVC\14.44.35207\include\xmemory

; 1833 :     _CONSTEXPR20 _Uninitialized_backout_al(pointer _Dest, _Alloc& _Al_) : _First(_Dest), _Last(_Dest), _Al(_Al_) {}

  00153	89 7d e0	 mov	 DWORD PTR __Backout$2[ebp], edi
  00156	89 7d e4	 mov	 DWORD PTR __Backout$2[ebp+4], edi
  00159	89 45 e8	 mov	 DWORD PTR __Backout$2[ebp+8], eax

; 1936 :     _Uninitialized_backout_al<_Alloc> _Backout{_Dest, _Al};

  0015c	c7 45 fc 00 00
	00 00		 mov	 DWORD PTR __$EHRec$[ebp+8], 0

; 1937 :     for (; _Count != 0; ++_UFirst, (void) --_Count) {

  00163	74 19		 je	 SHORT $LN36@Assign_cou
$LL37@Assign_cou:

; 732  :         ::new (const_cast<void*>(static_cast<const volatile void*>(_Ptr))) _Objty(_STD forward<_Types>(_Args)...);

  00165	53		 push	 ebx
  00166	8b cf		 mov	 ecx, edi
  00168	e8 00 00 00 00	 call	 ??0?$basic_string@DU?$char_traits@D@std@@V?$allocator@D@2@@std@@QAE@ABV01@@Z ; std::basic_string<char,std::char_traits<char>,std::allocator<char> >::basic_string<char,std::char_traits<char>,std::allocator<char> >

; 1845 :         ++_Last;

  0016d	83 c7 18	 add	 edi, 24			; 00000018H

; 1937 :     for (; _Count != 0; ++_UFirst, (void) --_Count) {

  00170	83 c3 18	 add	 ebx, 24			; 00000018H

; 1845 :         ++_Last;

  00173	89 7d e4	 mov	 DWORD PTR __Backout$2[ebp+4], edi

; 1937 :     for (; _Count != 0; ++_UFirst, (void) --_Count) {

  00176	83 ee 01	 sub	 esi, 1
  00179	75 ea		 jne	 SHORT $LL37@Assign_cou
  0017b	8b 45 f0	 mov	 eax, DWORD PTR _this$1$[ebp]
$LN36@Assign_cou:
; File C:\Program Files\Microsoft Visual Studio\2022\Professional\VC\Tools\MSVC\14.44.35207\include\vector

; 1470 :                 _Mylast = _STD _Uninitialized_copy_n(_STD move(_First), _Newsize - _Oldsize, _Mylast, _Al);

  0017e	89 78 04	 mov	 DWORD PTR [eax+4], edi

; 1479 :         }
; 1480 :     }

  00181	8b 4d f4	 mov	 ecx, DWORD PTR __$EHRec$[ebp]
  00184	64 89 0d 00 00
	00 00		 mov	 DWORD PTR fs:0, ecx
  0018b	59		 pop	 ecx
  0018c	5f		 pop	 edi
  0018d	5e		 pop	 esi
  0018e	5b		 pop	 ebx
  0018f	8b e5		 mov	 esp, ebp
  00191	5d		 pop	 ebp
  00192	c2 08 00	 ret	 8
$LN6@Assign_cou:

; 1471 :                 _ASAN_VECTOR_RELEASE_GUARD;
; 1472 :             }
; 1473 :         } else {
; 1474 :             const pointer _Newlast = _Myfirst + _Newsize;
; 1475 :             _STD _Copy_n_unchecked4(_STD move(_First), _Newsize, _Myfirst);

  00195	56		 push	 esi
  00196	8d 04 5b	 lea	 eax, DWORD PTR [ebx+ebx*2]
  00199	53		 push	 ebx
  0019a	ff 75 08	 push	 DWORD PTR __First$[ebp]
  0019d	8d 04 c6	 lea	 eax, DWORD PTR [esi+eax*8]
  001a0	89 45 0c	 mov	 DWORD PTR __Newlast$1$[ebp], eax
  001a3	e8 00 00 00 00	 call	 ??$_Copy_n_unchecked4@PAV?$basic_string@DU?$char_traits@D@std@@V?$allocator@D@2@@std@@IPAV12@@std@@YAPAV?$basic_string@DU?$char_traits@D@std@@V?$allocator@D@2@@0@PAV10@I0@Z ; std::_Copy_n_unchecked4<std::basic_string<char,std::char_traits<char>,std::allocator<char> > *,unsigned int,std::basic_string<char,std::char_traits<char>,std::allocator<char> > *>

; 1476 :             _STD _Destroy_range(_Newlast, _Mylast, _Al);

  001a8	8b 5d f0	 mov	 ebx, DWORD PTR _this$1$[ebp]
  001ab	83 c4 0c	 add	 esp, 12			; 0000000cH
  001ae	8b 45 0c	 mov	 eax, DWORD PTR __Newlast$1$[ebp]
  001b1	8b f0		 mov	 esi, eax
  001b3	8b 7b 04	 mov	 edi, DWORD PTR [ebx+4]
; File C:\Program Files\Microsoft Visual Studio\2022\Professional\VC\Tools\MSVC\14.44.35207\include\xmemory

; 1102 :         for (; _First != _Last; ++_First) {

  001b6	3b c7		 cmp	 eax, edi
  001b8	74 17		 je	 SHORT $LN101@Assign_cou
  001ba	66 0f 1f 44 00
	00		 npad	 6
$LL102@Assign_cou:
  001c0	8b ce		 mov	 ecx, esi
  001c2	e8 00 00 00 00	 call	 ??1?$basic_string@DU?$char_traits@D@std@@V?$allocator@D@2@@std@@QAE@XZ ; std::basic_string<char,std::char_traits<char>,std::allocator<char> >::~basic_string<char,std::char_traits<char>,std::allocator<char> >
  001c7	83 c6 18	 add	 esi, 24			; 00000018H
  001ca	3b f7		 cmp	 esi, edi
  001cc	75 f2		 jne	 SHORT $LL102@Assign_cou
  001ce	8b 45 0c	 mov	 eax, DWORD PTR __Newlast$1$[ebp]
$LN101@Assign_cou:
; File C:\Program Files\Microsoft Visual Studio\2022\Professional\VC\Tools\MSVC\14.44.35207\include\vector

; 1478 :             _Mylast = _Newlast;

  001d1	89 43 04	 mov	 DWORD PTR [ebx+4], eax

; 1479 :         }
; 1480 :     }

  001d4	8b 4d f4	 mov	 ecx, DWORD PTR __$EHRec$[ebp]
  001d7	64 89 0d 00 00
	00 00		 mov	 DWORD PTR fs:0, ecx
  001de	59		 pop	 ecx
  001df	5f		 pop	 edi
  001e0	5e		 pop	 esi
  001e1	5b		 pop	 ebx
  001e2	8b e5		 mov	 esp, ebp
  001e4	5d		 pop	 ebp
  001e5	c2 08 00	 ret	 8
$LN137@Assign_cou:

; 1704 :             _Xlength();

  001e8	e8 00 00 00 00	 call	 ?_Xlength@?$vector@V?$basic_string@DU?$char_traits@D@std@@V?$allocator@D@2@@std@@V?$allocator@V?$basic_string@DU?$char_traits@D@std@@V?$allocator@D@2@@std@@@2@@std@@CAXXZ ; std::vector<std::basic_string<char,std::char_traits<char>,std::allocator<char> >,std::allocator<std::basic_string<char,std::char_traits<char>,std::allocator<char> > > >::_Xlength
$LN135@Assign_cou:
  001ed	cc		 int	 3
_TEXT	ENDS
;	COMDAT text$x
text$x	SEGMENT
__unwindfunclet$??$_Assign_counted_range@PAV?$basic_string@DU?$char_traits@D@std@@V?$allocator@D@2@@std@@@?$vector@V?$basic_string@DU?$char_traits@D@std@@V?$allocator@D@2@@std@@V?$allocator@V?$basic_string@DU?$char_traits@D@std@@V?$allocator@D@2@@std@@@2@@std@@AAEXPAV?$basic_string@DU?$char_traits@D@std@@V?$allocator@D@2@@1@I@Z$0:
  00000	8d 4d e0	 lea	 ecx, DWORD PTR __Backout$2[ebp]
  00003	e9 00 00 00 00	 jmp	 ??1?$_Uninitialized_backout_al@V?$allocator@V?$basic_string@DU?$char_traits@D@std@@V?$allocator@D@2@@std@@@std@@@std@@QAE@XZ ; std::_Uninitialized_backout_al<std::allocator<std::basic_string<char,std::char_traits<char>,std::allocator<char> > > >::~_Uninitialized_backout_al<std::allocator<std::basic_string<char,std::char_traits<char>,std::allocator<char> > > >
  00008	cc		 int	 3
  00009	cc		 int	 3
  0000a	cc		 int	 3
  0000b	cc		 int	 3
  0000c	cc		 int	 3
__ehhandler$??$_Assign_counted_range@PAV?$basic_string@DU?$char_traits@D@std@@V?$allocator@D@2@@std@@@?$vector@V?$basic_string@DU?$char_traits@D@std@@V?$allocator@D@2@@std@@V?$allocator@V?$basic_string@DU?$char_traits@D@std@@V?$allocator@D@2@@std@@@2@@std@@AAEXPAV?$basic_string@DU?$char_traits@D@std@@V?$allocator@D@2@@1@I@Z:
  0000d	90		 npad	 1
  0000e	90		 npad	 1
  0000f	8b 54 24 08	 mov	 edx, DWORD PTR [esp+8]
  00013	8d 42 0c	 lea	 eax, DWORD PTR [edx+12]
  00016	8b 4a dc	 mov	 ecx, DWORD PTR [edx-36]
  00019	33 c8		 xor	 ecx, eax
  0001b	e8 00 00 00 00	 call	 @__security_check_cookie@4
  00020	b8 00 00 00 00	 mov	 eax, OFFSET __ehfuncinfo$??$_Assign_counted_range@PAV?$basic_string@DU?$char_traits@D@std@@V?$allocator@D@2@@std@@@?$vector@V?$basic_string@DU?$char_traits@D@std@@V?$allocator@D@2@@std@@V?$allocator@V?$basic_string@DU?$char_traits@D@std@@V?$allocator@D@2@@std@@@2@@std@@AAEXPAV?$basic_string@DU?$char_traits@D@std@@V?$allocator@D@2@@1@I@Z
  00025	e9 00 00 00 00	 jmp	 ___CxxFrameHandler3
text$x	ENDS
??$_Assign_counted_range@PAV?$basic_string@DU?$char_traits@D@std@@V?$allocator@D@2@@std@@@?$vector@V?$basic_string@DU?$char_traits@D@std@@V?$allocator@D@2@@std@@V?$allocator@V?$basic_string@DU?$char_traits@D@std@@V?$allocator@D@2@@std@@@2@@std@@AAEXPAV?$basic_string@DU?$char_traits@D@std@@V?$allocator@D@2@@1@I@Z ENDP ; std::vector<std::basic_string<char,std::char_traits<char>,std::allocator<char> >,std::allocator<std::basic_string<char,std::char_traits<char>,std::allocator<char> > > >::_Assign_counted_range<std::basic_string<char,std::char_traits<char>,std::allocator<char> > *>
; Function compile flags: /Ogtp
; File C:\Program Files\Microsoft Visual Studio\2022\Professional\VC\Tools\MSVC\14.44.35207\include\xstring
; File C:\Program Files\Microsoft Visual Studio\2022\Professional\VC\Tools\MSVC\14.44.35207\include\__msvc_string_view.hpp
; File C:\Program Files\Microsoft Visual Studio\2022\Professional\VC\Tools\MSVC\14.44.35207\include\xstring
; File C:\Program Files\Microsoft Visual Studio\2022\Professional\VC\Tools\MSVC\14.44.35207\include\__msvc_string_view.hpp
; File C:\Program Files\Microsoft Visual Studio\2022\Professional\VC\Tools\MSVC\14.44.35207\include\xstring
; File C:\Program Files\Microsoft Visual Studio\2022\Professional\VC\Tools\MSVC\14.44.35207\include\__msvc_string_view.hpp
; File C:\Program Files\Microsoft Visual Studio\2022\Professional\VC\Tools\MSVC\14.44.35207\include\xstring
; File C:\Program Files\Microsoft Visual Studio\2022\Professional\VC\Tools\MSVC\14.44.35207\include\__msvc_string_view.hpp
; File C:\Program Files\Microsoft Visual Studio\2022\Professional\VC\Tools\MSVC\14.44.35207\include\xstring
; File C:\Program Files\Microsoft Visual Studio\2022\Professional\VC\Tools\MSVC\14.44.35207\include\__msvc_string_view.hpp
; File C:\Program Files\Microsoft Visual Studio\2022\Professional\VC\Tools\MSVC\14.44.35207\include\xstring
; File C:\Program Files\Microsoft Visual Studio\2022\Professional\VC\Tools\MSVC\14.44.35207\include\__msvc_string_view.hpp
; File C:\Program Files\Microsoft Visual Studio\2022\Professional\VC\Tools\MSVC\14.44.35207\include\xstring
;	COMDAT ??$?9DU?$char_traits@D@std@@V?$allocator@D@1@@std@@YA_NABV?$basic_string@DU?$char_traits@D@std@@V?$allocator@D@2@@0@0@Z
_TEXT	SEGMENT
__Left$ = 8						; size = 4
__Right$ = 12						; size = 4
??$?9DU?$char_traits@D@std@@V?$allocator@D@1@@std@@YA_NABV?$basic_string@DU?$char_traits@D@std@@V?$allocator@D@2@@0@0@Z PROC ; std::operator!=<char,std::char_traits<char>,std::allocator<char> >, COMDAT

; 3289 :     const basic_string<_Elem, _Traits, _Alloc>& _Left, const basic_string<_Elem, _Traits, _Alloc>& _Right) noexcept {

  00000	55		 push	 ebp
  00001	8b ec		 mov	 ebp, esp

; 444  :         const value_type* _Result = _Bx._Buf;

  00003	8b 45 0c	 mov	 eax, DWORD PTR __Right$[ebp]
  00006	8b d0		 mov	 edx, eax

; 453  :         return _Myres > _Small_string_capacity;

  00008	83 78 14 0f	 cmp	 DWORD PTR [eax+20], 15	; 0000000fH

; 445  :         if (_Large_mode_engaged()) {

  0000c	76 02		 jbe	 SHORT $LN11@operator

; 446  :             _Result = _Unfancy(_Bx._Ptr);

  0000e	8b 10		 mov	 edx, DWORD PTR [eax]
$LN11@operator:

; 444  :         const value_type* _Result = _Bx._Buf;

  00010	8b 4d 08	 mov	 ecx, DWORD PTR __Left$[ebp]
  00013	56		 push	 esi
  00014	8b f1		 mov	 esi, ecx

; 453  :         return _Myres > _Small_string_capacity;

  00016	83 79 14 0f	 cmp	 DWORD PTR [ecx+20], 15	; 0000000fH

; 445  :         if (_Large_mode_engaged()) {

  0001a	76 02		 jbe	 SHORT $LN18@operator

; 446  :             _Result = _Unfancy(_Bx._Ptr);

  0001c	8b 31		 mov	 esi, DWORD PTR [ecx]
$LN18@operator:

; 2848 :         return _Traits_equal<_Traits>(_Mypair._Myval2._Myptr(), _Mypair._Myval2._Mysize,

  0001e	8b 49 10	 mov	 ecx, DWORD PTR [ecx+16]
; File C:\Program Files\Microsoft Visual Studio\2022\Professional\VC\Tools\MSVC\14.44.35207\include\__msvc_string_view.hpp

; 604  :     if (_Left_size != _Right_size) {

  00021	3b 48 10	 cmp	 ecx, DWORD PTR [eax+16]
  00024	74 07		 je	 SHORT $LN25@operator

; 605  :         return false;

  00026	32 c0		 xor	 al, al
; File C:\Program Files\Microsoft Visual Studio\2022\Professional\VC\Tools\MSVC\14.44.35207\include\xstring

; 3290 :     return !(_Left == _Right);

  00028	34 01		 xor	 al, 1
  0002a	5e		 pop	 esi

; 3291 : }

  0002b	5d		 pop	 ebp
  0002c	c3		 ret	 0
$LN25@operator:
; File C:\Program Files\Microsoft Visual Studio\2022\Professional\VC\Tools\MSVC\14.44.35207\include\__msvc_string_view.hpp

; 608  :     if (_Left_size == 0u) {

  0002d	85 c9		 test	 ecx, ecx
  0002f	75 07		 jne	 SHORT $LN26@operator

; 609  :         return true;

  00031	b0 01		 mov	 al, 1
; File C:\Program Files\Microsoft Visual Studio\2022\Professional\VC\Tools\MSVC\14.44.35207\include\xstring

; 3290 :     return !(_Left == _Right);

  00033	32 c0		 xor	 al, al
  00035	5e		 pop	 esi

; 3291 : }

  00036	5d		 pop	 ebp
  00037	c3		 ret	 0
$LN26@operator:
; File C:\Program Files\Microsoft Visual Studio\2022\Professional\VC\Tools\MSVC\14.44.35207\include\__msvc_string_view.hpp

; 439  :         return _CSTD memcmp(_First1, _First2, _Count);

  00038	83 e9 04	 sub	 ecx, 4
  0003b	72 14		 jb	 SHORT $LN34@operator
  0003d	0f 1f 00	 npad	 3
$LL35@operator:
  00040	8b 06		 mov	 eax, DWORD PTR [esi]
  00042	3b 02		 cmp	 eax, DWORD PTR [edx]
  00044	75 10		 jne	 SHORT $LN33@operator
  00046	83 c6 04	 add	 esi, 4
  00049	83 c2 04	 add	 edx, 4
  0004c	83 e9 04	 sub	 ecx, 4
  0004f	73 ef		 jae	 SHORT $LL35@operator
$LN34@operator:
  00051	83 f9 fc	 cmp	 ecx, -4			; fffffffcH
  00054	74 3c		 je	 SHORT $LN32@operator
$LN33@operator:
  00056	8a 06		 mov	 al, BYTE PTR [esi]
  00058	3a 02		 cmp	 al, BYTE PTR [edx]
  0005a	75 27		 jne	 SHORT $LN36@operator
  0005c	83 f9 fd	 cmp	 ecx, -3			; fffffffdH
  0005f	74 31		 je	 SHORT $LN32@operator
  00061	8a 46 01	 mov	 al, BYTE PTR [esi+1]
  00064	3a 42 01	 cmp	 al, BYTE PTR [edx+1]
  00067	75 1a		 jne	 SHORT $LN36@operator
  00069	83 f9 fe	 cmp	 ecx, -2			; fffffffeH
  0006c	74 24		 je	 SHORT $LN32@operator
  0006e	8a 46 02	 mov	 al, BYTE PTR [esi+2]
  00071	3a 42 02	 cmp	 al, BYTE PTR [edx+2]
  00074	75 0d		 jne	 SHORT $LN36@operator
  00076	83 f9 ff	 cmp	 ecx, -1
  00079	74 17		 je	 SHORT $LN32@operator
  0007b	8a 46 03	 mov	 al, BYTE PTR [esi+3]
  0007e	3a 42 03	 cmp	 al, BYTE PTR [edx+3]
  00081	74 0f		 je	 SHORT $LN32@operator
$LN36@operator:
  00083	1b c0		 sbb	 eax, eax
  00085	83 c8 01	 or	 eax, 1

; 612  :     return _Traits::compare(_Left, _Right, _Left_size) == 0;

  00088	85 c0		 test	 eax, eax
; File C:\Program Files\Microsoft Visual Studio\2022\Professional\VC\Tools\MSVC\14.44.35207\include\xstring

; 3290 :     return !(_Left == _Right);

  0008a	5e		 pop	 esi
; File C:\Program Files\Microsoft Visual Studio\2022\Professional\VC\Tools\MSVC\14.44.35207\include\__msvc_string_view.hpp

; 612  :     return _Traits::compare(_Left, _Right, _Left_size) == 0;

  0008b	0f 94 c0	 sete	 al
; File C:\Program Files\Microsoft Visual Studio\2022\Professional\VC\Tools\MSVC\14.44.35207\include\xstring

; 3290 :     return !(_Left == _Right);

  0008e	34 01		 xor	 al, 1

; 3291 : }

  00090	5d		 pop	 ebp
  00091	c3		 ret	 0
$LN32@operator:
; File C:\Program Files\Microsoft Visual Studio\2022\Professional\VC\Tools\MSVC\14.44.35207\include\__msvc_string_view.hpp

; 439  :         return _CSTD memcmp(_First1, _First2, _Count);

  00092	33 c0		 xor	 eax, eax

; 612  :     return _Traits::compare(_Left, _Right, _Left_size) == 0;

  00094	85 c0		 test	 eax, eax
; File C:\Program Files\Microsoft Visual Studio\2022\Professional\VC\Tools\MSVC\14.44.35207\include\xstring

; 3290 :     return !(_Left == _Right);

  00096	5e		 pop	 esi
; File C:\Program Files\Microsoft Visual Studio\2022\Professional\VC\Tools\MSVC\14.44.35207\include\__msvc_string_view.hpp

; 612  :     return _Traits::compare(_Left, _Right, _Left_size) == 0;

  00097	0f 94 c0	 sete	 al
; File C:\Program Files\Microsoft Visual Studio\2022\Professional\VC\Tools\MSVC\14.44.35207\include\xstring

; 3290 :     return !(_Left == _Right);

  0009a	34 01		 xor	 al, 1

; 3291 : }

  0009c	5d		 pop	 ebp
  0009d	c3		 ret	 0
??$?9DU?$char_traits@D@std@@V?$allocator@D@1@@std@@YA_NABV?$basic_string@DU?$char_traits@D@std@@V?$allocator@D@2@@0@0@Z ENDP ; std::operator!=<char,std::char_traits<char>,std::allocator<char> >
_TEXT	ENDS
; Function compile flags: /Ogtp
;	COMDAT ??_GCMiniGameTyping@@UAEPAXI@Z
_TEXT	SEGMENT
___flags$ = 8						; size = 4
??_GCMiniGameTyping@@UAEPAXI@Z PROC			; CMiniGameTyping::`scalar deleting destructor', COMDAT
; _this$ = ecx
  00000	55		 push	 ebp
  00001	8b ec		 mov	 ebp, esp
  00003	56		 push	 esi
  00004	8b f1		 mov	 esi, ecx
  00006	e8 00 00 00 00	 call	 ??1CMiniGameTyping@@UAE@XZ ; CMiniGameTyping::~CMiniGameTyping
  0000b	f6 45 08 01	 test	 BYTE PTR ___flags$[ebp], 1
  0000f	74 0b		 je	 SHORT $LN5@scalar
  00011	6a 10		 push	 16			; 00000010H
  00013	56		 push	 esi
  00014	e8 00 00 00 00	 call	 ??3@YAXPAXI@Z		; operator delete
  00019	83 c4 08	 add	 esp, 8
$LN5@scalar:
  0001c	8b c6		 mov	 eax, esi
  0001e	5e		 pop	 esi
  0001f	5d		 pop	 ebp
  00020	c2 04 00	 ret	 4
??_GCMiniGameTyping@@UAEPAXI@Z ENDP			; CMiniGameTyping::`scalar deleting destructor'
_TEXT	ENDS
; Function compile flags: /Ogtp
; File C:\IAGOS\server\v18\Source\Source\WorldServer\MiniGameTyping.cpp
; File C:\Program Files\Microsoft Visual Studio\2022\Professional\VC\Tools\MSVC\14.44.35207\include\vector
; File C:\Program Files\Microsoft Visual Studio\2022\Professional\VC\Tools\MSVC\14.44.35207\include\xmemory
; File C:\Program Files\Microsoft Visual Studio\2022\Professional\VC\Tools\MSVC\14.44.35207\include\vector
; File C:\IAGOS\server\v18\Source\Source\WorldServer\MiniGameTyping.cpp
; File C:\Program Files\Microsoft Visual Studio\2022\Professional\VC\Tools\MSVC\14.44.35207\include\xstring
; File C:\IAGOS\server\v18\Source\Source\WorldServer\MiniGameTyping.cpp
; File C:\IAGOS\server\v18\Source\Source\_Common\xUtil.h
; File C:\IAGOS\server\v18\Source\Source\WorldServer\MiniGameTyping.cpp
; File C:\Program Files\Microsoft Visual Studio\2022\Professional\VC\Tools\MSVC\14.44.35207\include\xstring
; File C:\IAGOS\server\v18\Source\Source\WorldServer\MiniGameTyping.cpp
; File C:\Program Files\Microsoft Visual Studio\2022\Professional\VC\Tools\MSVC\14.44.35207\include\xstring
; File C:\Program Files\Microsoft Visual Studio\2022\Professional\VC\Tools\MSVC\14.44.35207\include\xmemory
; File C:\Program Files\Microsoft Visual Studio\2022\Professional\VC\Tools\MSVC\14.44.35207\include\xstring
; File C:\Program Files\Microsoft Visual Studio\2022\Professional\VC\Tools\MSVC\14.44.35207\include\xmemory
; File C:\Program Files\Microsoft Visual Studio\2022\Professional\VC\Tools\MSVC\14.44.35207\include\xstring
; File C:\Program Files\Microsoft Visual Studio\2022\Professional\VC\Tools\MSVC\14.44.35207\include\xmemory
; File C:\Program Files\Microsoft Visual Studio\2022\Professional\VC\Tools\MSVC\14.44.35207\include\xstring
; File C:\Program Files\Microsoft Visual Studio\2022\Professional\VC\Tools\MSVC\14.44.35207\include\__msvc_string_view.hpp
; File C:\Program Files\Microsoft Visual Studio\2022\Professional\VC\Tools\MSVC\14.44.35207\include\xstring
; File C:\Program Files\Microsoft Visual Studio\2022\Professional\VC\Tools\MSVC\14.44.35207\include\__msvc_string_view.hpp
; File C:\Program Files\Microsoft Visual Studio\2022\Professional\VC\Tools\MSVC\14.44.35207\include\xstring
; File C:\Program Files\Microsoft Visual Studio\2022\Professional\VC\Tools\MSVC\14.44.35207\include\xmemory
; File C:\Program Files\Microsoft Visual Studio\2022\Professional\VC\Tools\MSVC\14.44.35207\include\xstring
; File C:\Program Files\Microsoft Visual Studio\2022\Professional\VC\Tools\MSVC\14.44.35207\include\xmemory
; File C:\Program Files\Microsoft Visual Studio\2022\Professional\VC\Tools\MSVC\14.44.35207\include\xstring
; File C:\Program Files\Microsoft Visual Studio\2022\Professional\VC\Tools\MSVC\14.44.35207\include\__msvc_string_view.hpp
; File C:\Program Files\Microsoft Visual Studio\2022\Professional\VC\Tools\MSVC\14.44.35207\include\xstring
; File C:\IAGOS\server\v18\Source\Source\WorldServer\MiniGameTyping.cpp
; File C:\Program Files\Microsoft Visual Studio\2022\Professional\VC\Tools\MSVC\14.44.35207\include\xstring
; File C:\IAGOS\server\v18\Source\Source\WorldServer\MiniGameTyping.cpp
; File C:\Program Files\Microsoft Visual Studio\2022\Professional\VC\Tools\MSVC\14.44.35207\include\xstring
; File C:\Program Files\Microsoft Visual Studio\2022\Professional\VC\Tools\MSVC\14.44.35207\include\xmemory
; File C:\Program Files\Microsoft Visual Studio\2022\Professional\VC\Tools\MSVC\14.44.35207\include\xstring
; File C:\Program Files\Microsoft Visual Studio\2022\Professional\VC\Tools\MSVC\14.44.35207\include\xmemory
; File C:\Program Files\Microsoft Visual Studio\2022\Professional\VC\Tools\MSVC\14.44.35207\include\xstring
; File C:\Program Files\Microsoft Visual Studio\2022\Professional\VC\Tools\MSVC\14.44.35207\include\xmemory
; File C:\Program Files\Microsoft Visual Studio\2022\Professional\VC\Tools\MSVC\14.44.35207\include\xstring
; File C:\Program Files\Microsoft Visual Studio\2022\Professional\VC\Tools\MSVC\14.44.35207\include\__msvc_string_view.hpp
; File C:\Program Files\Microsoft Visual Studio\2022\Professional\VC\Tools\MSVC\14.44.35207\include\xstring
; File C:\Program Files\Microsoft Visual Studio\2022\Professional\VC\Tools\MSVC\14.44.35207\include\__msvc_string_view.hpp
; File C:\Program Files\Microsoft Visual Studio\2022\Professional\VC\Tools\MSVC\14.44.35207\include\xstring
; File C:\Program Files\Microsoft Visual Studio\2022\Professional\VC\Tools\MSVC\14.44.35207\include\xmemory
; File C:\Program Files\Microsoft Visual Studio\2022\Professional\VC\Tools\MSVC\14.44.35207\include\xstring
; File C:\Program Files\Microsoft Visual Studio\2022\Professional\VC\Tools\MSVC\14.44.35207\include\xmemory
; File C:\Program Files\Microsoft Visual Studio\2022\Professional\VC\Tools\MSVC\14.44.35207\include\xstring
; File C:\Program Files\Microsoft Visual Studio\2022\Professional\VC\Tools\MSVC\14.44.35207\include\__msvc_string_view.hpp
; File C:\Program Files\Microsoft Visual Studio\2022\Professional\VC\Tools\MSVC\14.44.35207\include\xstring
; File C:\IAGOS\server\v18\Source\Source\WorldServer\MiniGameTyping.cpp
; File C:\Program Files\Microsoft Visual Studio\2022\Professional\VC\Tools\MSVC\14.44.35207\include\xstring
; File C:\IAGOS\server\v18\Source\Source\WorldServer\MiniGameTyping.cpp
; File C:\Program Files\Microsoft Visual Studio\2022\Professional\VC\Tools\MSVC\14.44.35207\include\xstring
; File C:\IAGOS\server\v18\Source\Source\WorldServer\MiniGameTyping.cpp
; File C:\Program Files\Microsoft Visual Studio\2022\Professional\VC\Tools\MSVC\14.44.35207\include\xstring
; File C:\Program Files\Microsoft Visual Studio\2022\Professional\VC\Tools\MSVC\14.44.35207\include\xmemory
; File C:\Program Files\Microsoft Visual Studio\2022\Professional\VC\Tools\MSVC\14.44.35207\include\xstring
; File C:\Program Files\Microsoft Visual Studio\2022\Professional\VC\Tools\MSVC\14.44.35207\include\xmemory
; File C:\Program Files\Microsoft Visual Studio\2022\Professional\VC\Tools\MSVC\14.44.35207\include\xstring
; File C:\Program Files\Microsoft Visual Studio\2022\Professional\VC\Tools\MSVC\14.44.35207\include\xmemory
; File C:\Program Files\Microsoft Visual Studio\2022\Professional\VC\Tools\MSVC\14.44.35207\include\xstring
; File C:\Program Files\Microsoft Visual Studio\2022\Professional\VC\Tools\MSVC\14.44.35207\include\__msvc_string_view.hpp
; File C:\Program Files\Microsoft Visual Studio\2022\Professional\VC\Tools\MSVC\14.44.35207\include\xstring
; File C:\Program Files\Microsoft Visual Studio\2022\Professional\VC\Tools\MSVC\14.44.35207\include\__msvc_string_view.hpp
; File C:\Program Files\Microsoft Visual Studio\2022\Professional\VC\Tools\MSVC\14.44.35207\include\xstring
; File C:\Program Files\Microsoft Visual Studio\2022\Professional\VC\Tools\MSVC\14.44.35207\include\xmemory
; File C:\Program Files\Microsoft Visual Studio\2022\Professional\VC\Tools\MSVC\14.44.35207\include\xstring
; File C:\Program Files\Microsoft Visual Studio\2022\Professional\VC\Tools\MSVC\14.44.35207\include\xmemory
; File C:\Program Files\Microsoft Visual Studio\2022\Professional\VC\Tools\MSVC\14.44.35207\include\xstring
; File C:\Program Files\Microsoft Visual Studio\2022\Professional\VC\Tools\MSVC\14.44.35207\include\__msvc_string_view.hpp
; File C:\Program Files\Microsoft Visual Studio\2022\Professional\VC\Tools\MSVC\14.44.35207\include\xstring
; File C:\IAGOS\server\v18\Source\Source\WorldServer\MiniGameTyping.cpp
; File C:\Program Files\Microsoft Visual Studio\2022\Professional\VC\Tools\MSVC\14.44.35207\include\vector
; File C:\Program Files\Microsoft Visual Studio\2022\Professional\VC\Tools\MSVC\14.44.35207\include\xmemory
; File C:\Program Files\Microsoft Visual Studio\2022\Professional\VC\Tools\MSVC\14.44.35207\include\vector
; File C:\Program Files\Microsoft Visual Studio\2022\Professional\VC\Tools\MSVC\14.44.35207\include\xstring
; File C:\IAGOS\server\v18\Source\Source\WorldServer\MiniGameTyping.cpp
; File C:\Program Files\Microsoft Visual Studio\2022\Professional\VC\Tools\MSVC\14.44.35207\include\xstring
; File C:\Program Files\Microsoft Visual Studio\2022\Professional\VC\Tools\MSVC\14.44.35207\include\xmemory
; File C:\Program Files\Microsoft Visual Studio\2022\Professional\VC\Tools\MSVC\14.44.35207\include\xstring
; File C:\Program Files\Microsoft Visual Studio\2022\Professional\VC\Tools\MSVC\14.44.35207\include\xmemory
; File C:\IAGOS\server\v18\Source\Source\WorldServer\MiniGameTyping.cpp
; File C:\Program Files\Microsoft Visual Studio\2022\Professional\VC\Tools\MSVC\14.44.35207\include\xstring
; File C:\Program Files\Microsoft Visual Studio\2022\Professional\VC\Tools\MSVC\14.44.35207\include\xmemory
; File C:\IAGOS\server\v18\Source\Source\WorldServer\MiniGameTyping.cpp
;	COMDAT ?MakeQuestion@CMiniGameTyping@@AAEXXZ
_TEXT	SEGMENT
_i$1$ = -72						; size = 4
_this$1$ = -68						; size = 4
_j$1$ = -64						; size = 4
__Old_size$1$ = -60					; size = 4
__Old_capacity$1$ = -56					; size = 4
__Old_capacity$1$ = -56					; size = 4
$T2 = -56						; size = 4
$T3 = -52						; size = 4
$T4 = -52						; size = 4
__Old_capacity$1$ = -52					; size = 4
tv1485 = -48						; size = 4
tv1489 = -48						; size = 4
tv1492 = -48						; size = 4
tv1503 = -48						; size = 4
tv1527 = -48						; size = 4
tv1531 = -48						; size = 4
__Ch$1$ = -41						; size = 1
__Ch$1$ = -41						; size = 1
__Ch$1$ = -41						; size = 1
_strTemp$5 = -40					; size = 24
__$ArrayPad$ = -16					; size = 4
__$EHRec$ = -12						; size = 12
?MakeQuestion@CMiniGameTyping@@AAEXXZ PROC		; CMiniGameTyping::MakeQuestion, COMDAT
; _this$ = ecx

; 52   : {

  00000	55		 push	 ebp
  00001	8b ec		 mov	 ebp, esp
  00003	6a ff		 push	 -1
  00005	68 00 00 00 00	 push	 __ehhandler$?MakeQuestion@CMiniGameTyping@@AAEXXZ
  0000a	64 a1 00 00 00
	00		 mov	 eax, DWORD PTR fs:0
  00010	50		 push	 eax
  00011	83 ec 3c	 sub	 esp, 60			; 0000003cH
  00014	a1 00 00 00 00	 mov	 eax, DWORD PTR ___security_cookie
  00019	33 c5		 xor	 eax, ebp
  0001b	89 45 f0	 mov	 DWORD PTR __$ArrayPad$[ebp], eax
  0001e	56		 push	 esi
  0001f	57		 push	 edi
  00020	50		 push	 eax
  00021	8d 45 f4	 lea	 eax, DWORD PTR __$EHRec$[ebp]
  00024	64 a3 00 00 00
	00		 mov	 DWORD PTR fs:0, eax
; File C:\Program Files\Microsoft Visual Studio\2022\Professional\VC\Tools\MSVC\14.44.35207\include\vector

; 1812 :         if (_Myfirst == _Mylast) { // already empty, nothing to do

  0002a	8b 71 04	 mov	 esi, DWORD PTR [ecx+4]
  0002d	8d 41 04	 lea	 eax, DWORD PTR [ecx+4]
  00030	8b 78 04	 mov	 edi, DWORD PTR [eax+4]
  00033	89 45 bc	 mov	 DWORD PTR _this$1$[ebp], eax
  00036	3b f7		 cmp	 esi, edi
  00038	74 1c		 je	 SHORT $LN15@MakeQuesti
  0003a	66 0f 1f 44 00
	00		 npad	 6
$LL22@MakeQuesti:
  00040	8b ce		 mov	 ecx, esi
  00042	e8 00 00 00 00	 call	 ??1?$basic_string@DU?$char_traits@D@std@@V?$allocator@D@2@@std@@QAE@XZ ; std::basic_string<char,std::char_traits<char>,std::allocator<char> >::~basic_string<char,std::char_traits<char>,std::allocator<char> >
; File C:\Program Files\Microsoft Visual Studio\2022\Professional\VC\Tools\MSVC\14.44.35207\include\xmemory

; 1102 :         for (; _First != _Last; ++_First) {

  00047	83 c6 18	 add	 esi, 24			; 00000018H
  0004a	3b f7		 cmp	 esi, edi
  0004c	75 f2		 jne	 SHORT $LL22@MakeQuesti
; File C:\Program Files\Microsoft Visual Studio\2022\Professional\VC\Tools\MSVC\14.44.35207\include\vector

; 1822 :         _Mylast = _Myfirst;

  0004e	8b 4d bc	 mov	 ecx, DWORD PTR _this$1$[ebp]
  00051	8b 01		 mov	 eax, DWORD PTR [ecx]
  00053	89 41 04	 mov	 DWORD PTR [ecx+4], eax
$LN15@MakeQuesti:
; File C:\IAGOS\server\v18\Source\Source\WorldServer\MiniGameTyping.cpp

; 54   : 	for( int i=0; i<3; i++ )

  00056	c7 45 b8 00 00
	00 00		 mov	 DWORD PTR _i$1$[ebp], 0
  0005d	0f 1f 00	 npad	 3
$LL4@MakeQuesti:
; File C:\Program Files\Microsoft Visual Studio\2022\Professional\VC\Tools\MSVC\14.44.35207\include\xstring

; 860  :         _My_data._Mysize = 0;

  00060	33 c9		 xor	 ecx, ecx
  00062	0f 57 c0	 xorps	 xmm0, xmm0

; 861  :         _My_data._Myres  = _Small_string_capacity;

  00065	bf 0f 00 00 00	 mov	 edi, 15			; 0000000fH
  0006a	89 4d c4	 mov	 DWORD PTR __Old_size$1$[ebp], ecx

; 493  :         _CONSTEXPR20 _Bxty() noexcept : _Buf() {} // user-provided, for fancy pointers

  0006d	0f 11 45 d8	 movups	 XMMWORD PTR _strTemp$5[ebp], xmm0

; 860  :         _My_data._Mysize = 0;

  00071	89 4d e8	 mov	 DWORD PTR _strTemp$5[ebp+16], ecx

; 861  :         _My_data._Myres  = _Small_string_capacity;

  00074	89 7d ec	 mov	 DWORD PTR _strTemp$5[ebp+20], edi

; 862  :         _My_data._Activate_SSO_buffer();
; 863  : 
; 864  :         // the _Traits::assign is last so the codegen doesn't think the char write can alias this
; 865  :         _Traits::assign(_My_data._Bx._Buf[0], _Elem());

  00077	88 4d d8	 mov	 BYTE PTR _strTemp$5[ebp], cl
; File C:\IAGOS\server\v18\Source\Source\WorldServer\MiniGameTyping.cpp

; 57   : 		for( int j=0; j<20; j++ )

  0007a	8b 75 d8	 mov	 esi, DWORD PTR _strTemp$5[ebp]
  0007d	89 4d fc	 mov	 DWORD PTR __$EHRec$[ebp+8], ecx
  00080	89 4d c0	 mov	 DWORD PTR _j$1$[ebp], ecx
  00083	0f 1f 40 00 66
	0f 1f 84 00 00
	00 00 00	 npad	 13
$LL7@MakeQuesti:
; File C:\IAGOS\server\v18\Source\Source\_Common\xUtil.h

; 16   : 	g_next = g_next * 1103515245 + 12345;// + nRandomSeed[ i++ ];

  00090	69 0d 00 00 00
	00 6d 4e c6 41	 imul	 ecx, DWORD PTR ?g_next@@3KA, 1103515245 ; g_next

; 22   : 	return  xRand() % num;

  0009a	b8 ab aa aa aa	 mov	 eax, -1431655765	; aaaaaaabH

; 16   : 	g_next = g_next * 1103515245 + 12345;// + nRandomSeed[ i++ ];

  0009f	81 c1 39 30 00
	00		 add	 ecx, 12345		; 00003039H

; 22   : 	return  xRand() % num;

  000a5	f7 e1		 mul	 ecx

; 16   : 	g_next = g_next * 1103515245 + 12345;// + nRandomSeed[ i++ ];

  000a7	89 0d 00 00 00
	00		 mov	 DWORD PTR ?g_next@@3KA, ecx ; g_next

; 22   : 	return  xRand() % num;

  000ad	d1 ea		 shr	 edx, 1
  000af	8d 04 52	 lea	 eax, DWORD PTR [edx+edx*2]
  000b2	2b c8		 sub	 ecx, eax
; File C:\IAGOS\server\v18\Source\Source\WorldServer\MiniGameTyping.cpp

; 59   : 			switch( xRandom( 3 ) )

  000b4	83 e9 00	 sub	 ecx, 0
  000b7	0f 84 59 02 00
	00		 je	 $LN10@MakeQuesti
  000bd	83 e9 01	 sub	 ecx, 1
  000c0	0f 84 2e 01 00
	00		 je	 $LN11@MakeQuesti
  000c6	83 e9 01	 sub	 ecx, 1
  000c9	0f 85 97 03 00
	00		 jne	 $LN5@MakeQuesti

; 63   : 				case 2:	strTemp += static_cast<char>( xRandom( 110, 123 ) );	break;	// żµą® ĽŇą® n ~ z

  000cf	6a 7b		 push	 123			; 0000007bH
  000d1	6a 6e		 push	 110			; 0000006eH
  000d3	e8 00 00 00 00	 call	 ?xRandom@@YAKKK@Z	; xRandom
; File C:\Program Files\Microsoft Visual Studio\2022\Professional\VC\Tools\MSVC\14.44.35207\include\xstring

; 1478 :         push_back(_Ch);

  000d8	8a d0		 mov	 dl, al
; File C:\IAGOS\server\v18\Source\Source\WorldServer\MiniGameTyping.cpp

; 63   : 				case 2:	strTemp += static_cast<char>( xRandom( 110, 123 ) );	break;	// żµą® ĽŇą® n ~ z

  000da	83 c4 08	 add	 esp, 8
; File C:\Program Files\Microsoft Visual Studio\2022\Professional\VC\Tools\MSVC\14.44.35207\include\xstring

; 2292 :         const size_type _Old_size = _Mypair._Myval2._Mysize;

  000dd	8b 45 c4	 mov	 eax, DWORD PTR __Old_size$1$[ebp]

; 1478 :         push_back(_Ch);

  000e0	88 55 d7	 mov	 BYTE PTR __Ch$1$[ebp], dl

; 2292 :         const size_type _Old_size = _Mypair._Myval2._Mysize;

  000e3	3b c7		 cmp	 eax, edi

; 2293 :         if (_Old_size < _Mypair._Myval2._Myres) {

  000e5	0f 82 43 02 00
	00		 jb	 $LN341@MakeQuesti

; 2302 :         _Reallocate_grow_by(

  000eb	8b d0		 mov	 edx, eax

; 3028 :         const size_type _Old_size = _My_data._Mysize;

  000ed	b8 ff ff ff 7f	 mov	 eax, 2147483647		; 7fffffffH
  000f2	2b c2		 sub	 eax, edx

; 2302 :         _Reallocate_grow_by(

  000f4	89 55 d0	 mov	 DWORD PTR tv1527[ebp], edx

; 3029 :         if (max_size() - _Old_size < _Size_increase) {

  000f7	83 f8 01	 cmp	 eax, 1
  000fa	0f 82 fc 03 00
	00		 jb	 $LN313@MakeQuesti

; 3031 :         }
; 3032 : 
; 3033 :         const size_type _New_size     = _Old_size + _Size_increase;

  00100	8d 42 01	 lea	 eax, DWORD PTR [edx+1]

; 3034 :         const size_type _Old_capacity = _My_data._Myres;

  00103	8b cf		 mov	 ecx, edi

; 2978 :         const size_type _Masked = _Requested | _Alloc_mask;

  00105	8b f8		 mov	 edi, eax

; 3033 :         const size_type _New_size     = _Old_size + _Size_increase;

  00107	89 45 c4	 mov	 DWORD PTR __Old_size$1$[ebp], eax

; 2978 :         const size_type _Masked = _Requested | _Alloc_mask;

  0010a	83 cf 0f	 or	 edi, 15			; 0000000fH

; 3034 :         const size_type _Old_capacity = _My_data._Myres;

  0010d	89 4d cc	 mov	 DWORD PTR __Old_capacity$1$[ebp], ecx

; 2978 :         const size_type _Masked = _Requested | _Alloc_mask;

  00110	81 ff ff ff ff
	7f		 cmp	 edi, 2147483647		; 7fffffffH

; 2979 :         if (_Masked > _Max) { // the mask overflows, settle for max_size()

  00116	76 12		 jbe	 SHORT $LN217@MakeQuesti

; 2980 :             return _Max;

  00118	b8 00 00 00 80	 mov	 eax, -2147483648	; 80000000H
  0011d	bf ff ff ff 7f	 mov	 edi, 2147483647		; 7fffffffH
; File C:\Program Files\Microsoft Visual Studio\2022\Professional\VC\Tools\MSVC\14.44.35207\include\xmemory

; 253  :             return _Allocate_manually_vector_aligned<_Traits>(_Bytes);

  00122	50		 push	 eax
  00123	e8 00 00 00 00	 call	 ??$_Allocate_manually_vector_aligned@U_Default_allocate_traits@std@@@std@@YAPAXI@Z ; std::_Allocate_manually_vector_aligned<std::_Default_allocate_traits>
  00128	eb 4a		 jmp	 SHORT $LN333@MakeQuesti
$LN217@MakeQuesti:
; File C:\Program Files\Microsoft Visual Studio\2022\Professional\VC\Tools\MSVC\14.44.35207\include\xstring

; 2983 :         if (_Old > _Max - _Old / 2) { // similarly, geometric overflows

  0012a	d1 e9		 shr	 ecx, 1
  0012c	b8 ff ff ff 7f	 mov	 eax, 2147483647		; 7fffffffH
  00131	2b c1		 sub	 eax, ecx
  00133	39 45 cc	 cmp	 DWORD PTR __Old_capacity$1$[ebp], eax
  00136	76 12		 jbe	 SHORT $LN218@MakeQuesti

; 2984 :             return _Max;

  00138	b8 00 00 00 80	 mov	 eax, -2147483648	; 80000000H
  0013d	bf ff ff ff 7f	 mov	 edi, 2147483647		; 7fffffffH
; File C:\Program Files\Microsoft Visual Studio\2022\Professional\VC\Tools\MSVC\14.44.35207\include\xmemory

; 253  :             return _Allocate_manually_vector_aligned<_Traits>(_Bytes);

  00142	50		 push	 eax
  00143	e8 00 00 00 00	 call	 ??$_Allocate_manually_vector_aligned@U_Default_allocate_traits@std@@@std@@YAPAXI@Z ; std::_Allocate_manually_vector_aligned<std::_Default_allocate_traits>
  00148	eb 2a		 jmp	 SHORT $LN333@MakeQuesti
$LN218@MakeQuesti:
; File C:\Program Files\Microsoft Visual Studio\2022\Professional\VC\Tools\MSVC\14.44.35207\include\xstring

; 2987 :         return (_STD max)(_Masked, _Old + _Old / 2);

  0014a	8b 45 cc	 mov	 eax, DWORD PTR __Old_capacity$1$[ebp]
  0014d	03 c1		 add	 eax, ecx
  0014f	3b f8		 cmp	 edi, eax
  00151	0f 42 f8	 cmovb	 edi, eax

; 825  :         ++_Capacity; // Take null terminator into consideration

  00154	8d 47 01	 lea	 eax, DWORD PTR [edi+1]
; File C:\Program Files\Microsoft Visual Studio\2022\Professional\VC\Tools\MSVC\14.44.35207\include\xmemory

; 227  :     if (_Bytes == 0) {

  00157	85 c0		 test	 eax, eax
  00159	75 04		 jne	 SHORT $LN231@MakeQuesti

; 228  :         return nullptr;

  0015b	33 c9		 xor	 ecx, ecx
  0015d	eb 1d		 jmp	 SHORT $LN332@MakeQuesti
$LN231@MakeQuesti:

; 229  :     }
; 230  : 
; 231  : #if _HAS_CXX20 // TRANSITION, GH-1532
; 232  :     if (_STD is_constant_evaluated()) {
; 233  :         return _Traits::_Allocate(_Bytes);
; 234  :     }
; 235  : #endif // _HAS_CXX20
; 236  : 
; 237  : #ifdef __cpp_aligned_new
; 238  :     if constexpr (_Align > __STDCPP_DEFAULT_NEW_ALIGNMENT__) {
; 239  :         size_t _Passed_align = _Align;
; 240  : #if defined(_M_IX86) || defined(_M_X64)
; 241  :         if (_Bytes >= _Big_allocation_threshold) {
; 242  :             // boost the alignment of big allocations to help autovectorization
; 243  :             _Passed_align = (_STD max)(_Align, _Big_allocation_alignment);
; 244  :         }
; 245  : #endif // defined(_M_IX86) || defined(_M_X64)
; 246  :         return _Traits::_Allocate_aligned(_Bytes, _Passed_align);
; 247  :     } else
; 248  : #endif // defined(__cpp_aligned_new)
; 249  :     {
; 250  : #if defined(_M_IX86) || defined(_M_X64)
; 251  :         if (_Bytes >= _Big_allocation_threshold) {

  0015f	3d 00 10 00 00	 cmp	 eax, 4096		; 00001000H
  00164	72 08		 jb	 SHORT $LN232@MakeQuesti

; 253  :             return _Allocate_manually_vector_aligned<_Traits>(_Bytes);

  00166	50		 push	 eax
  00167	e8 00 00 00 00	 call	 ??$_Allocate_manually_vector_aligned@U_Default_allocate_traits@std@@@std@@YAPAXI@Z ; std::_Allocate_manually_vector_aligned<std::_Default_allocate_traits>
  0016c	eb 06		 jmp	 SHORT $LN333@MakeQuesti
$LN232@MakeQuesti:

; 136  :         return ::operator new(_Bytes);

  0016e	50		 push	 eax
  0016f	e8 00 00 00 00	 call	 ??2@YAPAXI@Z		; operator new
$LN333@MakeQuesti:
; File C:\Program Files\Microsoft Visual Studio\2022\Professional\VC\Tools\MSVC\14.44.35207\include\xstring

; 3041 :         _My_data._Mysize      = _New_size;

  00174	8b 55 d0	 mov	 edx, DWORD PTR tv1527[ebp]
  00177	8b c8		 mov	 ecx, eax
  00179	83 c4 04	 add	 esp, 4
$LN332@MakeQuesti:

; 3042 :         _My_data._Myres       = _New_capacity;
; 3043 :         _Elem* const _Raw_new = _Unfancy(_New_ptr);
; 3044 :         if (_Old_capacity > _Small_string_capacity) {

  0017c	83 7d cc 0f	 cmp	 DWORD PTR __Old_capacity$1$[ebp], 15 ; 0000000fH
  00180	8b 45 c4	 mov	 eax, DWORD PTR __Old_size$1$[ebp]
  00183	89 45 e8	 mov	 DWORD PTR _strTemp$5[ebp+16], eax
  00186	8d 04 11	 lea	 eax, DWORD PTR [ecx+edx]
  00189	89 4d c8	 mov	 DWORD PTR $T2[ebp], ecx
  0018c	89 7d ec	 mov	 DWORD PTR _strTemp$5[ebp+20], edi
  0018f	89 45 d0	 mov	 DWORD PTR tv1492[ebp], eax
  00192	52		 push	 edx
  00193	76 4a		 jbe	 SHORT $LN210@MakeQuesti
; File C:\Program Files\Microsoft Visual Studio\2022\Professional\VC\Tools\MSVC\14.44.35207\include\__msvc_string_view.hpp

; 121  :         _CSTD memcpy(_First1, _First2, _Count * sizeof(_Elem));

  00195	56		 push	 esi
  00196	51		 push	 ecx
  00197	e8 00 00 00 00	 call	 _memcpy
; File C:\Program Files\Microsoft Visual Studio\2022\Professional\VC\Tools\MSVC\14.44.35207\include\xstring

; 2307 :                     _Traits::assign(_New_ptr[_Old_size], _Ch);

  0019c	8b 45 d0	 mov	 eax, DWORD PTR tv1492[ebp]
; File C:\Program Files\Microsoft Visual Studio\2022\Professional\VC\Tools\MSVC\14.44.35207\include\__msvc_string_view.hpp

; 121  :         _CSTD memcpy(_First1, _First2, _Count * sizeof(_Elem));

  0019f	83 c4 0c	 add	 esp, 12			; 0000000cH
; File C:\Program Files\Microsoft Visual Studio\2022\Professional\VC\Tools\MSVC\14.44.35207\include\xstring

; 2307 :                     _Traits::assign(_New_ptr[_Old_size], _Ch);

  001a2	8a 4d d7	 mov	 cl, BYTE PTR __Ch$1$[ebp]
  001a5	88 08		 mov	 BYTE PTR [eax], cl

; 852  :         _Al.deallocate(_Old_ptr, _Capacity + 1); // +1 for null terminator

  001a7	8b 4d cc	 mov	 ecx, DWORD PTR __Old_capacity$1$[ebp]
  001aa	41		 inc	 ecx

; 2308 :                     _Traits::assign(_New_ptr[_Old_size + 1], _Elem());

  001ab	c6 40 01 00	 mov	 BYTE PTR [eax+1], 0
; File C:\Program Files\Microsoft Visual Studio\2022\Professional\VC\Tools\MSVC\14.44.35207\include\xmemory

; 985  :         _STD _Deallocate<_New_alignof<_Ty>>(_Ptr, sizeof(_Ty) * _Count);

  001af	8b c6		 mov	 eax, esi

; 284  :         if (_Bytes >= _Big_allocation_threshold) {

  001b1	81 f9 00 10 00
	00		 cmp	 ecx, 4096		; 00001000H
  001b7	72 14		 jb	 SHORT $LN254@MakeQuesti

; 205  :     const uintptr_t _Ptr_container   = _Ptr_user[-1];

  001b9	8b 70 fc	 mov	 esi, DWORD PTR [eax-4]
  001bc	83 c1 23	 add	 ecx, 35			; 00000023H
  001bf	2b c6		 sub	 eax, esi

; 219  :     _STL_VERIFY(_Back_shift >= _Min_back_shift && _Back_shift <= _Non_user_size, "invalid argument");

  001c1	83 c0 fc	 add	 eax, -4			; fffffffcH
  001c4	83 f8 1f	 cmp	 eax, 31			; 0000001fH
  001c7	0f 87 34 03 00
	00		 ja	 $LN315@MakeQuesti
$LN254@MakeQuesti:

; 289  :         ::operator delete(_Ptr, _Bytes);

  001cd	51		 push	 ecx
  001ce	56		 push	 esi
  001cf	e8 00 00 00 00	 call	 ??3@YAXPAXI@Z		; operator delete
; File C:\Program Files\Microsoft Visual Studio\2022\Professional\VC\Tools\MSVC\14.44.35207\include\xstring

; 3048 :             _My_data._Bx._Ptr = _New_ptr;

  001d4	8b 75 c8	 mov	 esi, DWORD PTR $T2[ebp]
; File C:\Program Files\Microsoft Visual Studio\2022\Professional\VC\Tools\MSVC\14.44.35207\include\xmemory

; 289  :         ::operator delete(_Ptr, _Bytes);

  001d7	83 c4 08	 add	 esp, 8
; File C:\Program Files\Microsoft Visual Studio\2022\Professional\VC\Tools\MSVC\14.44.35207\include\xstring

; 3049 :         } else {

  001da	e9 84 02 00 00	 jmp	 $LN334@MakeQuesti
$LN210@MakeQuesti:
; File C:\Program Files\Microsoft Visual Studio\2022\Professional\VC\Tools\MSVC\14.44.35207\include\__msvc_string_view.hpp

; 121  :         _CSTD memcpy(_First1, _First2, _Count * sizeof(_Elem));

  001df	8d 45 d8	 lea	 eax, DWORD PTR _strTemp$5[ebp]
  001e2	50		 push	 eax
  001e3	51		 push	 ecx
  001e4	e8 00 00 00 00	 call	 _memcpy
; File C:\Program Files\Microsoft Visual Studio\2022\Professional\VC\Tools\MSVC\14.44.35207\include\xstring

; 2307 :                     _Traits::assign(_New_ptr[_Old_size], _Ch);

  001e9	8b 45 d0	 mov	 eax, DWORD PTR tv1492[ebp]

; 3051 :             _Construct_in_place(_My_data._Bx._Ptr, _New_ptr);

  001ec	8b 75 c8	 mov	 esi, DWORD PTR $T2[ebp]
  001ef	e9 63 02 00 00	 jmp	 $LN335@MakeQuesti
$LN11@MakeQuesti:
; File C:\IAGOS\server\v18\Source\Source\WorldServer\MiniGameTyping.cpp

; 62   : 				case 1:	strTemp += static_cast<char>( xRandom( 97, 110 ) );	break;	// żµą® ĽŇą® a ~ m

  001f4	6a 6e		 push	 110			; 0000006eH
  001f6	6a 61		 push	 97			; 00000061H
  001f8	e8 00 00 00 00	 call	 ?xRandom@@YAKKK@Z	; xRandom
; File C:\Program Files\Microsoft Visual Studio\2022\Professional\VC\Tools\MSVC\14.44.35207\include\xstring

; 1478 :         push_back(_Ch);

  001fd	8a d0		 mov	 dl, al
; File C:\IAGOS\server\v18\Source\Source\WorldServer\MiniGameTyping.cpp

; 62   : 				case 1:	strTemp += static_cast<char>( xRandom( 97, 110 ) );	break;	// żµą® ĽŇą® a ~ m

  001ff	83 c4 08	 add	 esp, 8
; File C:\Program Files\Microsoft Visual Studio\2022\Professional\VC\Tools\MSVC\14.44.35207\include\xstring

; 2292 :         const size_type _Old_size = _Mypair._Myval2._Mysize;

  00202	8b 45 c4	 mov	 eax, DWORD PTR __Old_size$1$[ebp]

; 1478 :         push_back(_Ch);

  00205	88 55 d7	 mov	 BYTE PTR __Ch$1$[ebp], dl

; 2292 :         const size_type _Old_size = _Mypair._Myval2._Mysize;

  00208	3b c7		 cmp	 eax, edi

; 2293 :         if (_Old_size < _Mypair._Myval2._Myres) {

  0020a	0f 82 1e 01 00
	00		 jb	 $LN341@MakeQuesti

; 2302 :         _Reallocate_grow_by(

  00210	8b d0		 mov	 edx, eax

; 3028 :         const size_type _Old_size = _My_data._Mysize;

  00212	b8 ff ff ff 7f	 mov	 eax, 2147483647		; 7fffffffH
  00217	2b c2		 sub	 eax, edx

; 2302 :         _Reallocate_grow_by(

  00219	89 55 d0	 mov	 DWORD PTR tv1503[ebp], edx

; 3029 :         if (max_size() - _Old_size < _Size_increase) {

  0021c	83 f8 01	 cmp	 eax, 1
  0021f	0f 82 d7 02 00
	00		 jb	 $LN313@MakeQuesti

; 3031 :         }
; 3032 : 
; 3033 :         const size_type _New_size     = _Old_size + _Size_increase;

  00225	8d 42 01	 lea	 eax, DWORD PTR [edx+1]

; 3034 :         const size_type _Old_capacity = _My_data._Myres;

  00228	8b cf		 mov	 ecx, edi

; 2978 :         const size_type _Masked = _Requested | _Alloc_mask;

  0022a	8b f8		 mov	 edi, eax

; 3033 :         const size_type _New_size     = _Old_size + _Size_increase;

  0022c	89 45 c4	 mov	 DWORD PTR __Old_size$1$[ebp], eax

; 2978 :         const size_type _Masked = _Requested | _Alloc_mask;

  0022f	83 cf 0f	 or	 edi, 15			; 0000000fH

; 3034 :         const size_type _Old_capacity = _My_data._Myres;

  00232	89 4d c8	 mov	 DWORD PTR __Old_capacity$1$[ebp], ecx

; 2978 :         const size_type _Masked = _Requested | _Alloc_mask;

  00235	81 ff ff ff ff
	7f		 cmp	 edi, 2147483647		; 7fffffffH

; 2979 :         if (_Masked > _Max) { // the mask overflows, settle for max_size()

  0023b	76 12		 jbe	 SHORT $LN147@MakeQuesti

; 2980 :             return _Max;

  0023d	b8 00 00 00 80	 mov	 eax, -2147483648	; 80000000H
  00242	bf ff ff ff 7f	 mov	 edi, 2147483647		; 7fffffffH
; File C:\Program Files\Microsoft Visual Studio\2022\Professional\VC\Tools\MSVC\14.44.35207\include\xmemory

; 253  :             return _Allocate_manually_vector_aligned<_Traits>(_Bytes);

  00247	50		 push	 eax
  00248	e8 00 00 00 00	 call	 ??$_Allocate_manually_vector_aligned@U_Default_allocate_traits@std@@@std@@YAPAXI@Z ; std::_Allocate_manually_vector_aligned<std::_Default_allocate_traits>
  0024d	eb 4a		 jmp	 SHORT $LN337@MakeQuesti
$LN147@MakeQuesti:
; File C:\Program Files\Microsoft Visual Studio\2022\Professional\VC\Tools\MSVC\14.44.35207\include\xstring

; 2983 :         if (_Old > _Max - _Old / 2) { // similarly, geometric overflows

  0024f	d1 e9		 shr	 ecx, 1
  00251	b8 ff ff ff 7f	 mov	 eax, 2147483647		; 7fffffffH
  00256	2b c1		 sub	 eax, ecx
  00258	39 45 c8	 cmp	 DWORD PTR __Old_capacity$1$[ebp], eax
  0025b	76 12		 jbe	 SHORT $LN148@MakeQuesti

; 2984 :             return _Max;

  0025d	b8 00 00 00 80	 mov	 eax, -2147483648	; 80000000H
  00262	bf ff ff ff 7f	 mov	 edi, 2147483647		; 7fffffffH
; File C:\Program Files\Microsoft Visual Studio\2022\Professional\VC\Tools\MSVC\14.44.35207\include\xmemory

; 253  :             return _Allocate_manually_vector_aligned<_Traits>(_Bytes);

  00267	50		 push	 eax
  00268	e8 00 00 00 00	 call	 ??$_Allocate_manually_vector_aligned@U_Default_allocate_traits@std@@@std@@YAPAXI@Z ; std::_Allocate_manually_vector_aligned<std::_Default_allocate_traits>
  0026d	eb 2a		 jmp	 SHORT $LN337@MakeQuesti
$LN148@MakeQuesti:
; File C:\Program Files\Microsoft Visual Studio\2022\Professional\VC\Tools\MSVC\14.44.35207\include\xstring

; 2987 :         return (_STD max)(_Masked, _Old + _Old / 2);

  0026f	8b 45 c8	 mov	 eax, DWORD PTR __Old_capacity$1$[ebp]
  00272	03 c1		 add	 eax, ecx
  00274	3b f8		 cmp	 edi, eax
  00276	0f 42 f8	 cmovb	 edi, eax

; 825  :         ++_Capacity; // Take null terminator into consideration

  00279	8d 47 01	 lea	 eax, DWORD PTR [edi+1]
; File C:\Program Files\Microsoft Visual Studio\2022\Professional\VC\Tools\MSVC\14.44.35207\include\xmemory

; 227  :     if (_Bytes == 0) {

  0027c	85 c0		 test	 eax, eax
  0027e	75 04		 jne	 SHORT $LN161@MakeQuesti

; 228  :         return nullptr;

  00280	33 c9		 xor	 ecx, ecx
  00282	eb 1d		 jmp	 SHORT $LN336@MakeQuesti
$LN161@MakeQuesti:

; 229  :     }
; 230  : 
; 231  : #if _HAS_CXX20 // TRANSITION, GH-1532
; 232  :     if (_STD is_constant_evaluated()) {
; 233  :         return _Traits::_Allocate(_Bytes);
; 234  :     }
; 235  : #endif // _HAS_CXX20
; 236  : 
; 237  : #ifdef __cpp_aligned_new
; 238  :     if constexpr (_Align > __STDCPP_DEFAULT_NEW_ALIGNMENT__) {
; 239  :         size_t _Passed_align = _Align;
; 240  : #if defined(_M_IX86) || defined(_M_X64)
; 241  :         if (_Bytes >= _Big_allocation_threshold) {
; 242  :             // boost the alignment of big allocations to help autovectorization
; 243  :             _Passed_align = (_STD max)(_Align, _Big_allocation_alignment);
; 244  :         }
; 245  : #endif // defined(_M_IX86) || defined(_M_X64)
; 246  :         return _Traits::_Allocate_aligned(_Bytes, _Passed_align);
; 247  :     } else
; 248  : #endif // defined(__cpp_aligned_new)
; 249  :     {
; 250  : #if defined(_M_IX86) || defined(_M_X64)
; 251  :         if (_Bytes >= _Big_allocation_threshold) {

  00284	3d 00 10 00 00	 cmp	 eax, 4096		; 00001000H
  00289	72 08		 jb	 SHORT $LN162@MakeQuesti

; 253  :             return _Allocate_manually_vector_aligned<_Traits>(_Bytes);

  0028b	50		 push	 eax
  0028c	e8 00 00 00 00	 call	 ??$_Allocate_manually_vector_aligned@U_Default_allocate_traits@std@@@std@@YAPAXI@Z ; std::_Allocate_manually_vector_aligned<std::_Default_allocate_traits>
  00291	eb 06		 jmp	 SHORT $LN337@MakeQuesti
$LN162@MakeQuesti:

; 136  :         return ::operator new(_Bytes);

  00293	50		 push	 eax
  00294	e8 00 00 00 00	 call	 ??2@YAPAXI@Z		; operator new
$LN337@MakeQuesti:
; File C:\Program Files\Microsoft Visual Studio\2022\Professional\VC\Tools\MSVC\14.44.35207\include\xstring

; 3041 :         _My_data._Mysize      = _New_size;

  00299	8b 55 d0	 mov	 edx, DWORD PTR tv1503[ebp]
  0029c	8b c8		 mov	 ecx, eax
  0029e	83 c4 04	 add	 esp, 4
$LN336@MakeQuesti:

; 3042 :         _My_data._Myres       = _New_capacity;
; 3043 :         _Elem* const _Raw_new = _Unfancy(_New_ptr);
; 3044 :         if (_Old_capacity > _Small_string_capacity) {

  002a1	83 7d c8 0f	 cmp	 DWORD PTR __Old_capacity$1$[ebp], 15 ; 0000000fH
  002a5	8b 45 c4	 mov	 eax, DWORD PTR __Old_size$1$[ebp]
  002a8	89 45 e8	 mov	 DWORD PTR _strTemp$5[ebp+16], eax
  002ab	8d 04 0a	 lea	 eax, DWORD PTR [edx+ecx]
  002ae	89 4d cc	 mov	 DWORD PTR $T4[ebp], ecx
  002b1	89 7d ec	 mov	 DWORD PTR _strTemp$5[ebp+20], edi
  002b4	89 45 d0	 mov	 DWORD PTR tv1489[ebp], eax
  002b7	52		 push	 edx
  002b8	76 4a		 jbe	 SHORT $LN140@MakeQuesti
; File C:\Program Files\Microsoft Visual Studio\2022\Professional\VC\Tools\MSVC\14.44.35207\include\__msvc_string_view.hpp

; 121  :         _CSTD memcpy(_First1, _First2, _Count * sizeof(_Elem));

  002ba	56		 push	 esi
  002bb	51		 push	 ecx
  002bc	e8 00 00 00 00	 call	 _memcpy
; File C:\Program Files\Microsoft Visual Studio\2022\Professional\VC\Tools\MSVC\14.44.35207\include\xstring

; 2307 :                     _Traits::assign(_New_ptr[_Old_size], _Ch);

  002c1	8b 45 d0	 mov	 eax, DWORD PTR tv1489[ebp]
; File C:\Program Files\Microsoft Visual Studio\2022\Professional\VC\Tools\MSVC\14.44.35207\include\__msvc_string_view.hpp

; 121  :         _CSTD memcpy(_First1, _First2, _Count * sizeof(_Elem));

  002c4	83 c4 0c	 add	 esp, 12			; 0000000cH
; File C:\Program Files\Microsoft Visual Studio\2022\Professional\VC\Tools\MSVC\14.44.35207\include\xstring

; 2307 :                     _Traits::assign(_New_ptr[_Old_size], _Ch);

  002c7	8a 4d d7	 mov	 cl, BYTE PTR __Ch$1$[ebp]
  002ca	88 08		 mov	 BYTE PTR [eax], cl

; 852  :         _Al.deallocate(_Old_ptr, _Capacity + 1); // +1 for null terminator

  002cc	8b 4d c8	 mov	 ecx, DWORD PTR __Old_capacity$1$[ebp]
  002cf	41		 inc	 ecx

; 2308 :                     _Traits::assign(_New_ptr[_Old_size + 1], _Elem());

  002d0	c6 40 01 00	 mov	 BYTE PTR [eax+1], 0
; File C:\Program Files\Microsoft Visual Studio\2022\Professional\VC\Tools\MSVC\14.44.35207\include\xmemory

; 985  :         _STD _Deallocate<_New_alignof<_Ty>>(_Ptr, sizeof(_Ty) * _Count);

  002d4	8b c6		 mov	 eax, esi

; 284  :         if (_Bytes >= _Big_allocation_threshold) {

  002d6	81 f9 00 10 00
	00		 cmp	 ecx, 4096		; 00001000H
  002dc	72 14		 jb	 SHORT $LN184@MakeQuesti

; 205  :     const uintptr_t _Ptr_container   = _Ptr_user[-1];

  002de	8b 70 fc	 mov	 esi, DWORD PTR [eax-4]
  002e1	83 c1 23	 add	 ecx, 35			; 00000023H
  002e4	2b c6		 sub	 eax, esi

; 219  :     _STL_VERIFY(_Back_shift >= _Min_back_shift && _Back_shift <= _Non_user_size, "invalid argument");

  002e6	83 c0 fc	 add	 eax, -4			; fffffffcH
  002e9	83 f8 1f	 cmp	 eax, 31			; 0000001fH
  002ec	0f 87 0f 02 00
	00		 ja	 $LN315@MakeQuesti
$LN184@MakeQuesti:

; 289  :         ::operator delete(_Ptr, _Bytes);

  002f2	51		 push	 ecx
  002f3	56		 push	 esi
  002f4	e8 00 00 00 00	 call	 ??3@YAXPAXI@Z		; operator delete
; File C:\Program Files\Microsoft Visual Studio\2022\Professional\VC\Tools\MSVC\14.44.35207\include\xstring

; 3048 :             _My_data._Bx._Ptr = _New_ptr;

  002f9	8b 75 cc	 mov	 esi, DWORD PTR $T4[ebp]
; File C:\Program Files\Microsoft Visual Studio\2022\Professional\VC\Tools\MSVC\14.44.35207\include\xmemory

; 289  :         ::operator delete(_Ptr, _Bytes);

  002fc	83 c4 08	 add	 esp, 8
; File C:\Program Files\Microsoft Visual Studio\2022\Professional\VC\Tools\MSVC\14.44.35207\include\xstring

; 3049 :         } else {

  002ff	e9 5f 01 00 00	 jmp	 $LN334@MakeQuesti
$LN140@MakeQuesti:
; File C:\Program Files\Microsoft Visual Studio\2022\Professional\VC\Tools\MSVC\14.44.35207\include\__msvc_string_view.hpp

; 121  :         _CSTD memcpy(_First1, _First2, _Count * sizeof(_Elem));

  00304	8d 45 d8	 lea	 eax, DWORD PTR _strTemp$5[ebp]
  00307	50		 push	 eax
  00308	51		 push	 ecx
  00309	e8 00 00 00 00	 call	 _memcpy
; File C:\Program Files\Microsoft Visual Studio\2022\Professional\VC\Tools\MSVC\14.44.35207\include\xstring

; 2307 :                     _Traits::assign(_New_ptr[_Old_size], _Ch);

  0030e	8b 45 d0	 mov	 eax, DWORD PTR tv1489[ebp]
; File C:\IAGOS\server\v18\Source\Source\WorldServer\MiniGameTyping.cpp

; 62   : 				case 1:	strTemp += static_cast<char>( xRandom( 97, 110 ) );	break;	// żµą® ĽŇą® a ~ m

  00311	e9 3e 01 00 00	 jmp	 $LN338@MakeQuesti
$LN10@MakeQuesti:

; 61   : 				case 0:	strTemp += static_cast<char>( xRandom( 48, 58 ) );	break;	// ĽýŔÚ 0 ~ 9

  00316	6a 3a		 push	 58			; 0000003aH
  00318	6a 30		 push	 48			; 00000030H
  0031a	e8 00 00 00 00	 call	 ?xRandom@@YAKKK@Z	; xRandom
; File C:\Program Files\Microsoft Visual Studio\2022\Professional\VC\Tools\MSVC\14.44.35207\include\xstring

; 1478 :         push_back(_Ch);

  0031f	8a d0		 mov	 dl, al
; File C:\IAGOS\server\v18\Source\Source\WorldServer\MiniGameTyping.cpp

; 61   : 				case 0:	strTemp += static_cast<char>( xRandom( 48, 58 ) );	break;	// ĽýŔÚ 0 ~ 9

  00321	83 c4 08	 add	 esp, 8
; File C:\Program Files\Microsoft Visual Studio\2022\Professional\VC\Tools\MSVC\14.44.35207\include\xstring

; 2292 :         const size_type _Old_size = _Mypair._Myval2._Mysize;

  00324	8b 45 c4	 mov	 eax, DWORD PTR __Old_size$1$[ebp]

; 1478 :         push_back(_Ch);

  00327	88 55 d7	 mov	 BYTE PTR __Ch$1$[ebp], dl

; 2292 :         const size_type _Old_size = _Mypair._Myval2._Mysize;

  0032a	3b c7		 cmp	 eax, edi

; 2293 :         if (_Old_size < _Mypair._Myval2._Myres) {

  0032c	73 28		 jae	 SHORT $LN58@MakeQuesti
$LN341@MakeQuesti:
; File C:\IAGOS\server\v18\Source\Source\WorldServer\MiniGameTyping.cpp

; 57   : 		for( int j=0; j<20; j++ )

  0032e	8d 48 01	 lea	 ecx, DWORD PTR [eax+1]
  00331	83 ff 0f	 cmp	 edi, 15			; 0000000fH
  00334	89 4d e8	 mov	 DWORD PTR _strTemp$5[ebp+16], ecx
  00337	8d 4d d8	 lea	 ecx, DWORD PTR _strTemp$5[ebp]
  0033a	0f 47 ce	 cmova	 ecx, esi
  0033d	88 14 08	 mov	 BYTE PTR [eax+ecx], dl
  00340	c6 44 08 01 00	 mov	 BYTE PTR [eax+ecx+1], 0
  00345	8b 45 e8	 mov	 eax, DWORD PTR _strTemp$5[ebp+16]
  00348	8b 7d ec	 mov	 edi, DWORD PTR _strTemp$5[ebp+20]
  0034b	8b 75 d8	 mov	 esi, DWORD PTR _strTemp$5[ebp]
  0034e	89 45 c4	 mov	 DWORD PTR __Old_size$1$[ebp], eax
  00351	e9 10 01 00 00	 jmp	 $LN5@MakeQuesti
$LN58@MakeQuesti:
; File C:\Program Files\Microsoft Visual Studio\2022\Professional\VC\Tools\MSVC\14.44.35207\include\xstring

; 2302 :         _Reallocate_grow_by(

  00356	8b d0		 mov	 edx, eax

; 3028 :         const size_type _Old_size = _My_data._Mysize;

  00358	b8 ff ff ff 7f	 mov	 eax, 2147483647		; 7fffffffH
  0035d	2b c2		 sub	 eax, edx

; 2302 :         _Reallocate_grow_by(

  0035f	89 55 d0	 mov	 DWORD PTR tv1531[ebp], edx

; 3029 :         if (max_size() - _Old_size < _Size_increase) {

  00362	83 f8 01	 cmp	 eax, 1
  00365	0f 82 91 01 00
	00		 jb	 $LN313@MakeQuesti

; 3031 :         }
; 3032 : 
; 3033 :         const size_type _New_size     = _Old_size + _Size_increase;

  0036b	8d 42 01	 lea	 eax, DWORD PTR [edx+1]

; 3034 :         const size_type _Old_capacity = _My_data._Myres;

  0036e	8b cf		 mov	 ecx, edi

; 2978 :         const size_type _Masked = _Requested | _Alloc_mask;

  00370	8b f8		 mov	 edi, eax

; 3033 :         const size_type _New_size     = _Old_size + _Size_increase;

  00372	89 45 c4	 mov	 DWORD PTR __Old_size$1$[ebp], eax

; 2978 :         const size_type _Masked = _Requested | _Alloc_mask;

  00375	83 cf 0f	 or	 edi, 15			; 0000000fH

; 3034 :         const size_type _Old_capacity = _My_data._Myres;

  00378	89 4d c8	 mov	 DWORD PTR __Old_capacity$1$[ebp], ecx

; 2978 :         const size_type _Masked = _Requested | _Alloc_mask;

  0037b	81 ff ff ff ff
	7f		 cmp	 edi, 2147483647		; 7fffffffH

; 2979 :         if (_Masked > _Max) { // the mask overflows, settle for max_size()

  00381	76 12		 jbe	 SHORT $LN76@MakeQuesti

; 2980 :             return _Max;

  00383	b8 00 00 00 80	 mov	 eax, -2147483648	; 80000000H
  00388	bf ff ff ff 7f	 mov	 edi, 2147483647		; 7fffffffH
; File C:\Program Files\Microsoft Visual Studio\2022\Professional\VC\Tools\MSVC\14.44.35207\include\xmemory

; 253  :             return _Allocate_manually_vector_aligned<_Traits>(_Bytes);

  0038d	50		 push	 eax
  0038e	e8 00 00 00 00	 call	 ??$_Allocate_manually_vector_aligned@U_Default_allocate_traits@std@@@std@@YAPAXI@Z ; std::_Allocate_manually_vector_aligned<std::_Default_allocate_traits>
  00393	eb 4a		 jmp	 SHORT $LN340@MakeQuesti
$LN76@MakeQuesti:
; File C:\Program Files\Microsoft Visual Studio\2022\Professional\VC\Tools\MSVC\14.44.35207\include\xstring

; 2983 :         if (_Old > _Max - _Old / 2) { // similarly, geometric overflows

  00395	d1 e9		 shr	 ecx, 1
  00397	b8 ff ff ff 7f	 mov	 eax, 2147483647		; 7fffffffH
  0039c	2b c1		 sub	 eax, ecx
  0039e	39 45 c8	 cmp	 DWORD PTR __Old_capacity$1$[ebp], eax
  003a1	76 12		 jbe	 SHORT $LN77@MakeQuesti

; 2984 :             return _Max;

  003a3	b8 00 00 00 80	 mov	 eax, -2147483648	; 80000000H
  003a8	bf ff ff ff 7f	 mov	 edi, 2147483647		; 7fffffffH
; File C:\Program Files\Microsoft Visual Studio\2022\Professional\VC\Tools\MSVC\14.44.35207\include\xmemory

; 253  :             return _Allocate_manually_vector_aligned<_Traits>(_Bytes);

  003ad	50		 push	 eax
  003ae	e8 00 00 00 00	 call	 ??$_Allocate_manually_vector_aligned@U_Default_allocate_traits@std@@@std@@YAPAXI@Z ; std::_Allocate_manually_vector_aligned<std::_Default_allocate_traits>
  003b3	eb 2a		 jmp	 SHORT $LN340@MakeQuesti
$LN77@MakeQuesti:
; File C:\Program Files\Microsoft Visual Studio\2022\Professional\VC\Tools\MSVC\14.44.35207\include\xstring

; 2987 :         return (_STD max)(_Masked, _Old + _Old / 2);

  003b5	8b 45 c8	 mov	 eax, DWORD PTR __Old_capacity$1$[ebp]
  003b8	03 c1		 add	 eax, ecx
  003ba	3b f8		 cmp	 edi, eax
  003bc	0f 42 f8	 cmovb	 edi, eax

; 825  :         ++_Capacity; // Take null terminator into consideration

  003bf	8d 47 01	 lea	 eax, DWORD PTR [edi+1]
; File C:\Program Files\Microsoft Visual Studio\2022\Professional\VC\Tools\MSVC\14.44.35207\include\xmemory

; 227  :     if (_Bytes == 0) {

  003c2	85 c0		 test	 eax, eax
  003c4	75 04		 jne	 SHORT $LN90@MakeQuesti

; 228  :         return nullptr;

  003c6	33 c9		 xor	 ecx, ecx
  003c8	eb 1d		 jmp	 SHORT $LN339@MakeQuesti
$LN90@MakeQuesti:

; 229  :     }
; 230  : 
; 231  : #if _HAS_CXX20 // TRANSITION, GH-1532
; 232  :     if (_STD is_constant_evaluated()) {
; 233  :         return _Traits::_Allocate(_Bytes);
; 234  :     }
; 235  : #endif // _HAS_CXX20
; 236  : 
; 237  : #ifdef __cpp_aligned_new
; 238  :     if constexpr (_Align > __STDCPP_DEFAULT_NEW_ALIGNMENT__) {
; 239  :         size_t _Passed_align = _Align;
; 240  : #if defined(_M_IX86) || defined(_M_X64)
; 241  :         if (_Bytes >= _Big_allocation_threshold) {
; 242  :             // boost the alignment of big allocations to help autovectorization
; 243  :             _Passed_align = (_STD max)(_Align, _Big_allocation_alignment);
; 244  :         }
; 245  : #endif // defined(_M_IX86) || defined(_M_X64)
; 246  :         return _Traits::_Allocate_aligned(_Bytes, _Passed_align);
; 247  :     } else
; 248  : #endif // defined(__cpp_aligned_new)
; 249  :     {
; 250  : #if defined(_M_IX86) || defined(_M_X64)
; 251  :         if (_Bytes >= _Big_allocation_threshold) {

  003ca	3d 00 10 00 00	 cmp	 eax, 4096		; 00001000H
  003cf	72 08		 jb	 SHORT $LN91@MakeQuesti

; 253  :             return _Allocate_manually_vector_aligned<_Traits>(_Bytes);

  003d1	50		 push	 eax
  003d2	e8 00 00 00 00	 call	 ??$_Allocate_manually_vector_aligned@U_Default_allocate_traits@std@@@std@@YAPAXI@Z ; std::_Allocate_manually_vector_aligned<std::_Default_allocate_traits>
  003d7	eb 06		 jmp	 SHORT $LN340@MakeQuesti
$LN91@MakeQuesti:

; 136  :         return ::operator new(_Bytes);

  003d9	50		 push	 eax
  003da	e8 00 00 00 00	 call	 ??2@YAPAXI@Z		; operator new
$LN340@MakeQuesti:
; File C:\Program Files\Microsoft Visual Studio\2022\Professional\VC\Tools\MSVC\14.44.35207\include\xstring

; 3041 :         _My_data._Mysize      = _New_size;

  003df	8b 55 d0	 mov	 edx, DWORD PTR tv1531[ebp]
  003e2	8b c8		 mov	 ecx, eax
  003e4	83 c4 04	 add	 esp, 4
$LN339@MakeQuesti:

; 3042 :         _My_data._Myres       = _New_capacity;
; 3043 :         _Elem* const _Raw_new = _Unfancy(_New_ptr);
; 3044 :         if (_Old_capacity > _Small_string_capacity) {

  003e7	83 7d c8 0f	 cmp	 DWORD PTR __Old_capacity$1$[ebp], 15 ; 0000000fH
  003eb	8b 45 c4	 mov	 eax, DWORD PTR __Old_size$1$[ebp]
  003ee	89 45 e8	 mov	 DWORD PTR _strTemp$5[ebp+16], eax
  003f1	8d 04 0a	 lea	 eax, DWORD PTR [edx+ecx]
  003f4	89 4d cc	 mov	 DWORD PTR $T3[ebp], ecx
  003f7	89 7d ec	 mov	 DWORD PTR _strTemp$5[ebp+20], edi
  003fa	89 45 d0	 mov	 DWORD PTR tv1485[ebp], eax
  003fd	52		 push	 edx
  003fe	76 47		 jbe	 SHORT $LN69@MakeQuesti
; File C:\Program Files\Microsoft Visual Studio\2022\Professional\VC\Tools\MSVC\14.44.35207\include\__msvc_string_view.hpp

; 121  :         _CSTD memcpy(_First1, _First2, _Count * sizeof(_Elem));

  00400	56		 push	 esi
  00401	51		 push	 ecx
  00402	e8 00 00 00 00	 call	 _memcpy
; File C:\Program Files\Microsoft Visual Studio\2022\Professional\VC\Tools\MSVC\14.44.35207\include\xstring

; 2307 :                     _Traits::assign(_New_ptr[_Old_size], _Ch);

  00407	8b 45 d0	 mov	 eax, DWORD PTR tv1485[ebp]
; File C:\Program Files\Microsoft Visual Studio\2022\Professional\VC\Tools\MSVC\14.44.35207\include\__msvc_string_view.hpp

; 121  :         _CSTD memcpy(_First1, _First2, _Count * sizeof(_Elem));

  0040a	83 c4 0c	 add	 esp, 12			; 0000000cH
; File C:\Program Files\Microsoft Visual Studio\2022\Professional\VC\Tools\MSVC\14.44.35207\include\xstring

; 2307 :                     _Traits::assign(_New_ptr[_Old_size], _Ch);

  0040d	8a 4d d7	 mov	 cl, BYTE PTR __Ch$1$[ebp]
  00410	88 08		 mov	 BYTE PTR [eax], cl

; 852  :         _Al.deallocate(_Old_ptr, _Capacity + 1); // +1 for null terminator

  00412	8b 4d c8	 mov	 ecx, DWORD PTR __Old_capacity$1$[ebp]
  00415	41		 inc	 ecx

; 2308 :                     _Traits::assign(_New_ptr[_Old_size + 1], _Elem());

  00416	c6 40 01 00	 mov	 BYTE PTR [eax+1], 0
; File C:\Program Files\Microsoft Visual Studio\2022\Professional\VC\Tools\MSVC\14.44.35207\include\xmemory

; 985  :         _STD _Deallocate<_New_alignof<_Ty>>(_Ptr, sizeof(_Ty) * _Count);

  0041a	8b c6		 mov	 eax, esi

; 284  :         if (_Bytes >= _Big_allocation_threshold) {

  0041c	81 f9 00 10 00
	00		 cmp	 ecx, 4096		; 00001000H
  00422	72 14		 jb	 SHORT $LN113@MakeQuesti

; 205  :     const uintptr_t _Ptr_container   = _Ptr_user[-1];

  00424	8b 70 fc	 mov	 esi, DWORD PTR [eax-4]
  00427	83 c1 23	 add	 ecx, 35			; 00000023H
  0042a	2b c6		 sub	 eax, esi

; 219  :     _STL_VERIFY(_Back_shift >= _Min_back_shift && _Back_shift <= _Non_user_size, "invalid argument");

  0042c	83 c0 fc	 add	 eax, -4			; fffffffcH
  0042f	83 f8 1f	 cmp	 eax, 31			; 0000001fH
  00432	0f 87 c9 00 00
	00		 ja	 $LN315@MakeQuesti
$LN113@MakeQuesti:

; 289  :         ::operator delete(_Ptr, _Bytes);

  00438	51		 push	 ecx
  00439	56		 push	 esi
  0043a	e8 00 00 00 00	 call	 ??3@YAXPAXI@Z		; operator delete
; File C:\Program Files\Microsoft Visual Studio\2022\Professional\VC\Tools\MSVC\14.44.35207\include\xstring

; 3048 :             _My_data._Bx._Ptr = _New_ptr;

  0043f	8b 75 cc	 mov	 esi, DWORD PTR $T3[ebp]
; File C:\Program Files\Microsoft Visual Studio\2022\Professional\VC\Tools\MSVC\14.44.35207\include\xmemory

; 289  :         ::operator delete(_Ptr, _Bytes);

  00442	83 c4 08	 add	 esp, 8
; File C:\Program Files\Microsoft Visual Studio\2022\Professional\VC\Tools\MSVC\14.44.35207\include\xstring

; 3049 :         } else {

  00445	eb 1c		 jmp	 SHORT $LN334@MakeQuesti
$LN69@MakeQuesti:
; File C:\Program Files\Microsoft Visual Studio\2022\Professional\VC\Tools\MSVC\14.44.35207\include\__msvc_string_view.hpp

; 121  :         _CSTD memcpy(_First1, _First2, _Count * sizeof(_Elem));

  00447	8d 45 d8	 lea	 eax, DWORD PTR _strTemp$5[ebp]
  0044a	50		 push	 eax
  0044b	51		 push	 ecx
  0044c	e8 00 00 00 00	 call	 _memcpy
; File C:\Program Files\Microsoft Visual Studio\2022\Professional\VC\Tools\MSVC\14.44.35207\include\xstring

; 2307 :                     _Traits::assign(_New_ptr[_Old_size], _Ch);

  00451	8b 45 d0	 mov	 eax, DWORD PTR tv1485[ebp]
$LN338@MakeQuesti:
; File C:\IAGOS\server\v18\Source\Source\WorldServer\MiniGameTyping.cpp

; 57   : 		for( int j=0; j<20; j++ )

  00454	8b 75 cc	 mov	 esi, DWORD PTR $T3[ebp]
$LN335@MakeQuesti:
  00457	8a 4d d7	 mov	 cl, BYTE PTR __Ch$1$[ebp]
  0045a	83 c4 0c	 add	 esp, 12			; 0000000cH
  0045d	c6 40 01 00	 mov	 BYTE PTR [eax+1], 0
  00461	88 08		 mov	 BYTE PTR [eax], cl
$LN334@MakeQuesti:
  00463	89 75 d8	 mov	 DWORD PTR _strTemp$5[ebp], esi
$LN5@MakeQuesti:
  00466	8b 45 c0	 mov	 eax, DWORD PTR _j$1$[ebp]
  00469	40		 inc	 eax
  0046a	89 45 c0	 mov	 DWORD PTR _j$1$[ebp], eax
  0046d	83 f8 14	 cmp	 eax, 20			; 00000014H
  00470	0f 8c 1a fc ff
	ff		 jl	 $LL7@MakeQuesti
; File C:\Program Files\Microsoft Visual Studio\2022\Professional\VC\Tools\MSVC\14.44.35207\include\vector

; 844  :         if (_Mylast != _My_data._Myend) {

  00476	8b 75 bc	 mov	 esi, DWORD PTR _this$1$[ebp]
  00479	8d 4d d8	 lea	 ecx, DWORD PTR _strTemp$5[ebp]
  0047c	51		 push	 ecx
  0047d	8b 46 04	 mov	 eax, DWORD PTR [esi+4]
  00480	3b 46 08	 cmp	 eax, DWORD PTR [esi+8]
  00483	74 0d		 je	 SHORT $LN269@MakeQuesti
; File C:\Program Files\Microsoft Visual Studio\2022\Professional\VC\Tools\MSVC\14.44.35207\include\xmemory

; 732  :         ::new (const_cast<void*>(static_cast<const volatile void*>(_Ptr))) _Objty(_STD forward<_Types>(_Args)...);

  00485	8b c8		 mov	 ecx, eax
  00487	e8 00 00 00 00	 call	 ??0?$basic_string@DU?$char_traits@D@std@@V?$allocator@D@2@@std@@QAE@ABV01@@Z ; std::basic_string<char,std::char_traits<char>,std::allocator<char> >::basic_string<char,std::char_traits<char>,std::allocator<char> >
; File C:\Program Files\Microsoft Visual Studio\2022\Professional\VC\Tools\MSVC\14.44.35207\include\vector

; 869  :         ++_Mylast;

  0048c	83 46 04 18	 add	 DWORD PTR [esi+4], 24	; 00000018H

; 845  :             return _Emplace_back_with_unused_capacity(_STD forward<_Valty>(_Val)...);

  00490	eb 08		 jmp	 SHORT $LN268@MakeQuesti
$LN269@MakeQuesti:

; 846  :         }
; 847  : 
; 848  :         return *_Emplace_reallocate(_Mylast, _STD forward<_Valty>(_Val)...);

  00492	50		 push	 eax
  00493	8b ce		 mov	 ecx, esi
  00495	e8 00 00 00 00	 call	 ??$_Emplace_reallocate@ABV?$basic_string@DU?$char_traits@D@std@@V?$allocator@D@2@@std@@@?$vector@V?$basic_string@DU?$char_traits@D@std@@V?$allocator@D@2@@std@@V?$allocator@V?$basic_string@DU?$char_traits@D@std@@V?$allocator@D@2@@std@@@2@@std@@AAEPAV?$basic_string@DU?$char_traits@D@std@@V?$allocator@D@2@@1@QAV21@ABV21@@Z ; std::vector<std::basic_string<char,std::char_traits<char>,std::allocator<char> >,std::allocator<std::basic_string<char,std::char_traits<char>,std::allocator<char> > > >::_Emplace_reallocate<std::basic_string<char,std::char_traits<char>,std::allocator<char> > const &>
$LN268@MakeQuesti:
; File C:\Program Files\Microsoft Visual Studio\2022\Professional\VC\Tools\MSVC\14.44.35207\include\xstring

; 453  :         return _Myres > _Small_string_capacity;

  0049a	8b 4d ec	 mov	 ecx, DWORD PTR _strTemp$5[ebp+20]
; File C:\IAGOS\server\v18\Source\Source\WorldServer\MiniGameTyping.cpp

; 68   : 	}

  0049d	c7 45 fc ff ff
	ff ff		 mov	 DWORD PTR __$EHRec$[ebp+8], -1
; File C:\Program Files\Microsoft Visual Studio\2022\Professional\VC\Tools\MSVC\14.44.35207\include\xstring

; 453  :         return _Myres > _Small_string_capacity;

  004a4	83 f9 0f	 cmp	 ecx, 15			; 0000000fH

; 3083 :         if (_My_data._Large_mode_engaged()) {

  004a7	76 28		 jbe	 SHORT $LN295@MakeQuesti
; File C:\Program Files\Microsoft Visual Studio\2022\Professional\VC\Tools\MSVC\14.44.35207\include\xmemory

; 985  :         _STD _Deallocate<_New_alignof<_Ty>>(_Ptr, sizeof(_Ty) * _Count);

  004a9	8b 55 d8	 mov	 edx, DWORD PTR _strTemp$5[ebp]
; File C:\Program Files\Microsoft Visual Studio\2022\Professional\VC\Tools\MSVC\14.44.35207\include\xstring

; 852  :         _Al.deallocate(_Old_ptr, _Capacity + 1); // +1 for null terminator

  004ac	41		 inc	 ecx
; File C:\Program Files\Microsoft Visual Studio\2022\Professional\VC\Tools\MSVC\14.44.35207\include\xmemory

; 985  :         _STD _Deallocate<_New_alignof<_Ty>>(_Ptr, sizeof(_Ty) * _Count);

  004ad	8b c2		 mov	 eax, edx

; 284  :         if (_Bytes >= _Big_allocation_threshold) {

  004af	81 f9 00 10 00
	00		 cmp	 ecx, 4096		; 00001000H
  004b5	72 10		 jb	 SHORT $LN300@MakeQuesti

; 205  :     const uintptr_t _Ptr_container   = _Ptr_user[-1];

  004b7	8b 50 fc	 mov	 edx, DWORD PTR [eax-4]
  004ba	83 c1 23	 add	 ecx, 35			; 00000023H
  004bd	2b c2		 sub	 eax, edx

; 219  :     _STL_VERIFY(_Back_shift >= _Min_back_shift && _Back_shift <= _Non_user_size, "invalid argument");

  004bf	83 c0 fc	 add	 eax, -4			; fffffffcH
  004c2	83 f8 1f	 cmp	 eax, 31			; 0000001fH
  004c5	77 3a		 ja	 SHORT $LN315@MakeQuesti
$LN300@MakeQuesti:

; 289  :         ::operator delete(_Ptr, _Bytes);

  004c7	51		 push	 ecx
  004c8	52		 push	 edx
  004c9	e8 00 00 00 00	 call	 ??3@YAXPAXI@Z		; operator delete
  004ce	83 c4 08	 add	 esp, 8
$LN295@MakeQuesti:
; File C:\IAGOS\server\v18\Source\Source\WorldServer\MiniGameTyping.cpp

; 54   : 	for( int i=0; i<3; i++ )

  004d1	8b 45 b8	 mov	 eax, DWORD PTR _i$1$[ebp]
  004d4	40		 inc	 eax
  004d5	89 45 b8	 mov	 DWORD PTR _i$1$[ebp], eax
  004d8	83 f8 03	 cmp	 eax, 3
  004db	0f 8c 7f fb ff
	ff		 jl	 $LL4@MakeQuesti

; 69   : }

  004e1	8b 4d f4	 mov	 ecx, DWORD PTR __$EHRec$[ebp]
  004e4	64 89 0d 00 00
	00 00		 mov	 DWORD PTR fs:0, ecx
  004eb	59		 pop	 ecx
  004ec	5f		 pop	 edi
  004ed	5e		 pop	 esi
  004ee	8b 4d f0	 mov	 ecx, DWORD PTR __$ArrayPad$[ebp]
  004f1	33 cd		 xor	 ecx, ebp
  004f3	e8 00 00 00 00	 call	 @__security_check_cookie@4
  004f8	8b e5		 mov	 esp, ebp
  004fa	5d		 pop	 ebp
  004fb	c3		 ret	 0
$LN313@MakeQuesti:
; File C:\Program Files\Microsoft Visual Studio\2022\Professional\VC\Tools\MSVC\14.44.35207\include\xstring

; 3030 :             _Xlen_string(); // result too long

  004fc	e8 00 00 00 00	 call	 ?_Xlen_string@std@@YAXXZ ; std::_Xlen_string
$LN315@MakeQuesti:
; File C:\Program Files\Microsoft Visual Studio\2022\Professional\VC\Tools\MSVC\14.44.35207\include\xmemory

; 219  :     _STL_VERIFY(_Back_shift >= _Min_back_shift && _Back_shift <= _Non_user_size, "invalid argument");

  00501	6a 00		 push	 0
  00503	6a 00		 push	 0
  00505	6a 00		 push	 0
  00507	6a 00		 push	 0
  00509	6a 00		 push	 0
  0050b	e8 00 00 00 00	 call	 __invoke_watson
$LN331@MakeQuesti:
  00510	cc		 int	 3
_TEXT	ENDS
;	COMDAT text$x
text$x	SEGMENT
__unwindfunclet$?MakeQuestion@CMiniGameTyping@@AAEXXZ$0:
  00000	8d 4d d8	 lea	 ecx, DWORD PTR _strTemp$5[ebp]
  00003	e9 00 00 00 00	 jmp	 ??1?$basic_string@DU?$char_traits@D@std@@V?$allocator@D@2@@std@@QAE@XZ ; std::basic_string<char,std::char_traits<char>,std::allocator<char> >::~basic_string<char,std::char_traits<char>,std::allocator<char> >
  00008	cc		 int	 3
  00009	cc		 int	 3
  0000a	cc		 int	 3
  0000b	cc		 int	 3
  0000c	cc		 int	 3
__ehhandler$?MakeQuestion@CMiniGameTyping@@AAEXXZ:
  0000d	90		 npad	 1
  0000e	90		 npad	 1
  0000f	8b 54 24 08	 mov	 edx, DWORD PTR [esp+8]
  00013	8d 42 0c	 lea	 eax, DWORD PTR [edx+12]
  00016	8b 4a b8	 mov	 ecx, DWORD PTR [edx-72]
  00019	33 c8		 xor	 ecx, eax
  0001b	e8 00 00 00 00	 call	 @__security_check_cookie@4
  00020	8b 4a fc	 mov	 ecx, DWORD PTR [edx-4]
  00023	33 c8		 xor	 ecx, eax
  00025	e8 00 00 00 00	 call	 @__security_check_cookie@4
  0002a	b8 00 00 00 00	 mov	 eax, OFFSET __ehfuncinfo$?MakeQuestion@CMiniGameTyping@@AAEXXZ
  0002f	e9 00 00 00 00	 jmp	 ___CxxFrameHandler3
text$x	ENDS
?MakeQuestion@CMiniGameTyping@@AAEXXZ ENDP		; CMiniGameTyping::MakeQuestion
; Function compile flags: /Ogtp
; File C:\IAGOS\server\v18\Source\Source\WorldServer\MiniGameTyping.cpp
; File C:\IAGOS\server\v18\Source\Source\_Common\minigamebase.h
; File C:\Program Files\Microsoft Visual Studio\2022\Professional\VC\Tools\MSVC\14.44.35207\include\vector
; File C:\IAGOS\server\v18\Source\Source\WorldServer\MiniGameTyping.cpp
; File C:\Program Files\Microsoft Visual Studio\2022\Professional\VC\Tools\MSVC\14.44.35207\include\vector
; File C:\IAGOS\server\v18\Source\Source\_Common\minigamebase.h
; File C:\IAGOS\server\v18\Source\Source\WorldServer\MiniGameTyping.cpp
; File C:\Program Files\Microsoft Visual Studio\2022\Professional\VC\Tools\MSVC\14.44.35207\include\vector
; File C:\Program Files\Microsoft Visual Studio\2022\Professional\VC\Tools\MSVC\14.44.35207\include\xutility
; File C:\Program Files\Microsoft Visual Studio\2022\Professional\VC\Tools\MSVC\14.44.35207\include\vector
; File C:\Program Files\Microsoft Visual Studio\2022\Professional\VC\Tools\MSVC\14.44.35207\include\xutility
; File C:\Program Files\Microsoft Visual Studio\2022\Professional\VC\Tools\MSVC\14.44.35207\include\vector
; File C:\Program Files\Microsoft Visual Studio\2022\Professional\VC\Tools\MSVC\14.44.35207\include\xutility
; File C:\Program Files\Microsoft Visual Studio\2022\Professional\VC\Tools\MSVC\14.44.35207\include\vector
; File C:\IAGOS\server\v18\Source\Source\WorldServer\MiniGameTyping.cpp
; File C:\Program Files\Microsoft Visual Studio\2022\Professional\VC\Tools\MSVC\14.44.35207\include\vector
; File C:\IAGOS\server\v18\Source\Source\WorldServer\MiniGameTyping.cpp
; File C:\Program Files\Microsoft Visual Studio\2022\Professional\VC\Tools\MSVC\14.44.35207\include\vector
; File C:\IAGOS\server\v18\Source\Source\WorldServer\MiniGameTyping.cpp
; File C:\Program Files\Microsoft Visual Studio\2022\Professional\VC\Tools\MSVC\14.44.35207\include\vector
; File C:\IAGOS\server\v18\Source\Source\WorldServer\MiniGameTyping.cpp
; File C:\Program Files\Microsoft Visual Studio\2022\Professional\VC\Tools\MSVC\14.44.35207\include\vector
; File C:\IAGOS\server\v18\Source\Source\WorldServer\MiniGameTyping.cpp
; File C:\Program Files\Microsoft Visual Studio\2022\Professional\VC\Tools\MSVC\14.44.35207\include\vector
; File C:\Program Files\Microsoft Visual Studio\2022\Professional\VC\Tools\MSVC\14.44.35207\include\xmemory
; File C:\Program Files\Microsoft Visual Studio\2022\Professional\VC\Tools\MSVC\14.44.35207\include\xstring
; File C:\Program Files\Microsoft Visual Studio\2022\Professional\VC\Tools\MSVC\14.44.35207\include\xmemory
; File C:\Program Files\Microsoft Visual Studio\2022\Professional\VC\Tools\MSVC\14.44.35207\include\xstring
; File C:\Program Files\Microsoft Visual Studio\2022\Professional\VC\Tools\MSVC\14.44.35207\include\xmemory
; File C:\Program Files\Microsoft Visual Studio\2022\Professional\VC\Tools\MSVC\14.44.35207\include\xstring
; File C:\Program Files\Microsoft Visual Studio\2022\Professional\VC\Tools\MSVC\14.44.35207\include\xmemory
; File C:\Program Files\Microsoft Visual Studio\2022\Professional\VC\Tools\MSVC\14.44.35207\include\vector
; File C:\Program Files\Microsoft Visual Studio\2022\Professional\VC\Tools\MSVC\14.44.35207\include\xmemory
; File C:\IAGOS\server\v18\Source\Source\WorldServer\MiniGameTyping.cpp
; File C:\Program Files\Microsoft Visual Studio\2022\Professional\VC\Tools\MSVC\14.44.35207\include\xmemory
; File C:\IAGOS\server\v18\Source\Source\WorldServer\MiniGameTyping.cpp
; File C:\Program Files\Microsoft Visual Studio\2022\Professional\VC\Tools\MSVC\14.44.35207\include\xmemory
; File C:\IAGOS\server\v18\Source\Source\WorldServer\MiniGameTyping.cpp
;	COMDAT ?Excute@CMiniGameTyping@@UAEHPAVCUser@@PAU__MINIGAME_PACKET@@@Z
_TEXT	SEGMENT
_MP$ = -48						; size = 32
_this$1$ = -16						; size = 4
__$EHRec$ = -12						; size = 12
_pUser$ = 8						; size = 4
_pMiniGamePacket$ = 12					; size = 4
tv902 = 12						; size = 4
?Excute@CMiniGameTyping@@UAEHPAVCUser@@PAU__MINIGAME_PACKET@@@Z PROC ; CMiniGameTyping::Excute, COMDAT
; _this$ = ecx

; 20   : {

  00000	55		 push	 ebp
  00001	8b ec		 mov	 ebp, esp
  00003	6a ff		 push	 -1
  00005	68 00 00 00 00	 push	 __ehhandler$?Excute@CMiniGameTyping@@UAEHPAVCUser@@PAU__MINIGAME_PACKET@@@Z
  0000a	64 a1 00 00 00
	00		 mov	 eax, DWORD PTR fs:0
  00010	50		 push	 eax
  00011	83 ec 24	 sub	 esp, 36			; 00000024H
  00014	53		 push	 ebx
  00015	56		 push	 esi
  00016	57		 push	 edi
  00017	a1 00 00 00 00	 mov	 eax, DWORD PTR ___security_cookie
  0001c	33 c5		 xor	 eax, ebp
  0001e	50		 push	 eax
  0001f	8d 45 f4	 lea	 eax, DWORD PTR __$EHRec$[ebp]
  00022	64 a3 00 00 00
	00		 mov	 DWORD PTR fs:0, eax
  00028	8b d9		 mov	 ebx, ecx
  0002a	89 5d f0	 mov	 DWORD PTR _this$1$[ebp], ebx

; 23   : 	__MINIGAME_EXT_PACKET MP( pMiniGamePacket->wNowGame );	

  0002d	8b 4d 0c	 mov	 ecx, DWORD PTR _pMiniGamePacket$[ebp]
; File C:\IAGOS\server\v18\Source\Source\_Common\minigamebase.h

; 28   : 	{ wNowGame=wG; nState=nS; nParam1=nP1; nParam2=nP2; vecszData.clear(); }

  00030	c7 45 d0 00 00
	00 00		 mov	 DWORD PTR _MP$[ebp], OFFSET ??_7__MINIGAME_EXT_PACKET@@6B@
; File C:\Program Files\Microsoft Visual Studio\2022\Professional\VC\Tools\MSVC\14.44.35207\include\vector

; 400  :     _CONSTEXPR20 _Vector_val() noexcept : _Myfirst(), _Mylast(), _Myend() {}

  00037	c7 45 e4 00 00
	00 00		 mov	 DWORD PTR _MP$[ebp+20], 0
  0003e	c7 45 e8 00 00
	00 00		 mov	 DWORD PTR _MP$[ebp+24], 0
; File C:\IAGOS\server\v18\Source\Source\WorldServer\MiniGameTyping.cpp

; 23   : 	__MINIGAME_EXT_PACKET MP( pMiniGamePacket->wNowGame );	

  00045	0f b7 41 04	 movzx	 eax, WORD PTR [ecx+4]
; File C:\Program Files\Microsoft Visual Studio\2022\Professional\VC\Tools\MSVC\14.44.35207\include\vector

; 400  :     _CONSTEXPR20 _Vector_val() noexcept : _Myfirst(), _Mylast(), _Myend() {}

  00049	c7 45 ec 00 00
	00 00		 mov	 DWORD PTR _MP$[ebp+28], 0
; File C:\IAGOS\server\v18\Source\Source\_Common\minigamebase.h

; 28   : 	{ wNowGame=wG; nState=nS; nParam1=nP1; nParam2=nP2; vecszData.clear(); }

  00050	66 89 45 d4	 mov	 WORD PTR _MP$[ebp+4], ax
  00054	c7 45 dc 00 00
	00 00		 mov	 DWORD PTR _MP$[ebp+12], 0
  0005b	c7 45 e0 00 00
	00 00		 mov	 DWORD PTR _MP$[ebp+16], 0
; File C:\IAGOS\server\v18\Source\Source\WorldServer\MiniGameTyping.cpp

; 24   : 	if( pMiniGamePacket->nState == MP_OPENWND )

  00062	83 79 08 01	 cmp	 DWORD PTR [ecx+8], 1
  00066	c7 45 fc 00 00
	00 00		 mov	 DWORD PTR __$EHRec$[ebp+8], 0
  0006d	75 4d		 jne	 SHORT $LN5@Excute

; 25   : 	{
; 26   : 		MP.nState = MP_OPENWND;
; 27   : 		MakeQuestion();

  0006f	8b cb		 mov	 ecx, ebx
  00071	c7 45 d8 01 00
	00 00		 mov	 DWORD PTR _MP$[ebp+8], 1
  00078	e8 00 00 00 00	 call	 ?MakeQuestion@CMiniGameTyping@@AAEXXZ ; CMiniGameTyping::MakeQuestion
; File C:\Program Files\Microsoft Visual Studio\2022\Professional\VC\Tools\MSVC\14.44.35207\include\vector

; 46   :     _CONSTEXPR20 _Vector_const_iterator(_Tptr _Parg, const _Container_base* _Pvector) noexcept : _Ptr(_Parg) {

  0007d	8b 73 04	 mov	 esi, DWORD PTR [ebx+4]
; File C:\Program Files\Microsoft Visual Studio\2022\Professional\VC\Tools\MSVC\14.44.35207\include\xutility

; 1662 :         return _Last - _First; // assume the iterator will do debug checking

  00080	b8 ab aa aa 2a	 mov	 eax, 715827883		; 2aaaaaabH
; File C:\Program Files\Microsoft Visual Studio\2022\Professional\VC\Tools\MSVC\14.44.35207\include\vector

; 1486 :         auto _UFirst = _STD _Get_unwrapped(_First);

  00085	8b 4b 08	 mov	 ecx, DWORD PTR [ebx+8]
  00088	2b ce		 sub	 ecx, esi
; File C:\Program Files\Microsoft Visual Studio\2022\Professional\VC\Tools\MSVC\14.44.35207\include\xutility

; 1662 :         return _Last - _First; // assume the iterator will do debug checking

  0008a	f7 e9		 imul	 ecx
; File C:\Program Files\Microsoft Visual Studio\2022\Professional\VC\Tools\MSVC\14.44.35207\include\vector

; 1491 :             _Assign_counted_range(_UFirst, _Count);

  0008c	8d 4d e4	 lea	 ecx, DWORD PTR _MP$[ebp+20]
; File C:\Program Files\Microsoft Visual Studio\2022\Professional\VC\Tools\MSVC\14.44.35207\include\xutility

; 1662 :         return _Last - _First; // assume the iterator will do debug checking

  0008f	c1 fa 02	 sar	 edx, 2
  00092	8b c2		 mov	 eax, edx
  00094	c1 e8 1f	 shr	 eax, 31			; 0000001fH
  00097	03 c2		 add	 eax, edx
; File C:\Program Files\Microsoft Visual Studio\2022\Professional\VC\Tools\MSVC\14.44.35207\include\vector

; 1491 :             _Assign_counted_range(_UFirst, _Count);

  00099	50		 push	 eax
  0009a	56		 push	 esi
  0009b	e8 00 00 00 00	 call	 ??$_Assign_counted_range@PAV?$basic_string@DU?$char_traits@D@std@@V?$allocator@D@2@@std@@@?$vector@V?$basic_string@DU?$char_traits@D@std@@V?$allocator@D@2@@std@@V?$allocator@V?$basic_string@DU?$char_traits@D@std@@V?$allocator@D@2@@std@@@2@@std@@AAEXPAV?$basic_string@DU?$char_traits@D@std@@V?$allocator@D@2@@1@I@Z ; std::vector<std::basic_string<char,std::char_traits<char>,std::allocator<char> >,std::allocator<std::basic_string<char,std::char_traits<char>,std::allocator<char> > > >::_Assign_counted_range<std::basic_string<char,std::char_traits<char>,std::allocator<char> > *>
; File C:\IAGOS\server\v18\Source\Source\WorldServer\MiniGameTyping.cpp

; 29   : 		SendExtPacket( pUser, MP );

  000a0	83 ec 20	 sub	 esp, 32			; 00000020H
  000a3	8d 45 d0	 lea	 eax, DWORD PTR _MP$[ebp]
  000a6	8b cc		 mov	 ecx, esp
  000a8	50		 push	 eax
  000a9	e8 00 00 00 00	 call	 ??0__MINIGAME_EXT_PACKET@@QAE@ABU0@@Z
  000ae	ff 75 08	 push	 DWORD PTR _pUser$[ebp]
  000b1	8b cb		 mov	 ecx, ebx
  000b3	e8 00 00 00 00	 call	 ?SendExtPacket@CMiniGameBase@@QAEXPAVCUser@@U__MINIGAME_EXT_PACKET@@@Z ; CMiniGameBase::SendExtPacket
  000b8	33 db		 xor	 ebx, ebx
  000ba	eb 71		 jmp	 SHORT $LN11@Excute
$LN5@Excute:
; File C:\Program Files\Microsoft Visual Studio\2022\Professional\VC\Tools\MSVC\14.44.35207\include\vector

; 1915 :         return static_cast<size_type>(_My_data._Mylast - _My_data._Myfirst);

  000bc	8b 4b 08	 mov	 ecx, DWORD PTR [ebx+8]
  000bf	b8 ab aa aa 2a	 mov	 eax, 715827883		; 2aaaaaabH
  000c4	8b 73 04	 mov	 esi, DWORD PTR [ebx+4]
; File C:\IAGOS\server\v18\Source\Source\WorldServer\MiniGameTyping.cpp

; 37   : 	for( int i=0; i<(int)( m_vecTyping.size() ); i++ )

  000c7	33 ff		 xor	 edi, edi
; File C:\Program Files\Microsoft Visual Studio\2022\Professional\VC\Tools\MSVC\14.44.35207\include\vector

; 1915 :         return static_cast<size_type>(_My_data._Mylast - _My_data._Myfirst);

  000c9	2b ce		 sub	 ecx, esi
; File C:\IAGOS\server\v18\Source\Source\WorldServer\MiniGameTyping.cpp

; 35   : 	MP.nState = MP_FINISH;

  000cb	c7 45 d8 04 00
	00 00		 mov	 DWORD PTR _MP$[ebp+8], 4
; File C:\Program Files\Microsoft Visual Studio\2022\Professional\VC\Tools\MSVC\14.44.35207\include\vector

; 1915 :         return static_cast<size_type>(_My_data._Mylast - _My_data._Myfirst);

  000d2	f7 e9		 imul	 ecx
  000d4	c1 fa 02	 sar	 edx, 2
  000d7	8b da		 mov	 ebx, edx
  000d9	c1 eb 1f	 shr	 ebx, 31			; 0000001fH
  000dc	03 da		 add	 ebx, edx
; File C:\IAGOS\server\v18\Source\Source\WorldServer\MiniGameTyping.cpp

; 37   : 	for( int i=0; i<(int)( m_vecTyping.size() ); i++ )

  000de	85 db		 test	 ebx, ebx
  000e0	7e 2d		 jle	 SHORT $LN224@Excute
; File C:\Program Files\Microsoft Visual Studio\2022\Professional\VC\Tools\MSVC\14.44.35207\include\vector

; 1934 :         return _My_data._Myfirst[_Pos];

  000e2	8b 45 0c	 mov	 eax, DWORD PTR _pMiniGamePacket$[ebp]
  000e5	8b 40 14	 mov	 eax, DWORD PTR [eax+20]
  000e8	2b c6		 sub	 eax, esi
  000ea	89 45 0c	 mov	 DWORD PTR tv902[ebp], eax
  000ed	0f 1f 00	 npad	 3
$LL4@Excute:
; File C:\IAGOS\server\v18\Source\Source\WorldServer\MiniGameTyping.cpp

; 39   : 		if( m_vecTyping[i] != pPacket->vecszData[i] )

  000f0	03 c6		 add	 eax, esi
  000f2	50		 push	 eax
  000f3	56		 push	 esi
  000f4	e8 00 00 00 00	 call	 ??$?9DU?$char_traits@D@std@@V?$allocator@D@1@@std@@YA_NABV?$basic_string@DU?$char_traits@D@std@@V?$allocator@D@2@@0@0@Z ; std::operator!=<char,std::char_traits<char>,std::allocator<char> >
  000f9	83 c4 08	 add	 esp, 8
  000fc	84 c0		 test	 al, al
  000fe	0f 85 c2 00 00
	00		 jne	 $LN211@Excute

; 37   : 	for( int i=0; i<(int)( m_vecTyping.size() ); i++ )

  00104	8b 45 0c	 mov	 eax, DWORD PTR tv902[ebp]
  00107	47		 inc	 edi
  00108	83 c6 18	 add	 esi, 24			; 00000018H
  0010b	3b fb		 cmp	 edi, ebx
  0010d	7c e1		 jl	 SHORT $LL4@Excute
$LN224@Excute:

; 43   : 			break;
; 44   : 		}
; 45   : 	}
; 46   : 
; 47   : 	SendExtPacket( pUser, MP );

  0010f	bb 01 00 00 00	 mov	 ebx, 1
$LN3@Excute:
  00114	83 ec 20	 sub	 esp, 32			; 00000020H
  00117	8d 45 d0	 lea	 eax, DWORD PTR _MP$[ebp]
  0011a	8b cc		 mov	 ecx, esp
  0011c	50		 push	 eax
  0011d	e8 00 00 00 00	 call	 ??0__MINIGAME_EXT_PACKET@@QAE@ABU0@@Z
  00122	ff 75 08	 push	 DWORD PTR _pUser$[ebp]
  00125	8b 4d f0	 mov	 ecx, DWORD PTR _this$1$[ebp]
  00128	e8 00 00 00 00	 call	 ?SendExtPacket@CMiniGameBase@@QAEXPAVCUser@@U__MINIGAME_EXT_PACKET@@@Z ; CMiniGameBase::SendExtPacket
$LN11@Excute:
; File C:\Program Files\Microsoft Visual Studio\2022\Professional\VC\Tools\MSVC\14.44.35207\include\vector

; 2090 :         if (_Myfirst) { // destroy and deallocate old array

  0012d	8b 75 e4	 mov	 esi, DWORD PTR _MP$[ebp+20]
  00130	85 f6		 test	 esi, esi
  00132	0f 84 a6 00 00
	00		 je	 $LN142@Excute

; 2091 :             _STD _Destroy_range(_Myfirst, _Mylast, _Al);

  00138	8b 7d e8	 mov	 edi, DWORD PTR _MP$[ebp+24]
  0013b	3b f7		 cmp	 esi, edi
; File C:\Program Files\Microsoft Visual Studio\2022\Professional\VC\Tools\MSVC\14.44.35207\include\xmemory

; 1102 :         for (; _First != _Last; ++_First) {

  0013d	74 4f		 je	 SHORT $LN217@Excute
  0013f	90		 npad	 1
$LL148@Excute:
; File C:\Program Files\Microsoft Visual Studio\2022\Professional\VC\Tools\MSVC\14.44.35207\include\xstring

; 453  :         return _Myres > _Small_string_capacity;

  00140	8b 4e 14	 mov	 ecx, DWORD PTR [esi+20]
  00143	83 f9 0f	 cmp	 ecx, 15			; 0000000fH

; 3083 :         if (_My_data._Large_mode_engaged()) {

  00146	76 2b		 jbe	 SHORT $LN177@Excute
; File C:\Program Files\Microsoft Visual Studio\2022\Professional\VC\Tools\MSVC\14.44.35207\include\xmemory

; 985  :         _STD _Deallocate<_New_alignof<_Ty>>(_Ptr, sizeof(_Ty) * _Count);

  00148	8b 06		 mov	 eax, DWORD PTR [esi]
; File C:\Program Files\Microsoft Visual Studio\2022\Professional\VC\Tools\MSVC\14.44.35207\include\xstring

; 852  :         _Al.deallocate(_Old_ptr, _Capacity + 1); // +1 for null terminator

  0014a	41		 inc	 ecx
; File C:\Program Files\Microsoft Visual Studio\2022\Professional\VC\Tools\MSVC\14.44.35207\include\xmemory

; 284  :         if (_Bytes >= _Big_allocation_threshold) {

  0014b	81 f9 00 10 00
	00		 cmp	 ecx, 4096		; 00001000H
  00151	72 16		 jb	 SHORT $LN182@Excute

; 205  :     const uintptr_t _Ptr_container   = _Ptr_user[-1];

  00153	8b 50 fc	 mov	 edx, DWORD PTR [eax-4]
  00156	83 c1 23	 add	 ecx, 35			; 00000023H

; 206  : 
; 207  :     // If the following asserts, it likely means that we are performing
; 208  :     // an aligned delete on memory coming from an unaligned allocation.
; 209  :     _STL_ASSERT(_Ptr_user[-2] == _Big_allocation_sentinel, "invalid argument");
; 210  : 
; 211  :     // Extra paranoia on aligned allocation/deallocation; ensure _Ptr_container is
; 212  :     // in range [_Min_back_shift, _Non_user_size]
; 213  : #ifdef _DEBUG
; 214  :     constexpr uintptr_t _Min_back_shift = 2 * sizeof(void*);
; 215  : #else // ^^^ defined(_DEBUG) / !defined(_DEBUG) vvv
; 216  :     constexpr uintptr_t _Min_back_shift = sizeof(void*);
; 217  : #endif // ^^^ !defined(_DEBUG) ^^^
; 218  :     const uintptr_t _Back_shift = reinterpret_cast<uintptr_t>(_Ptr) - _Ptr_container;

  00159	2b c2		 sub	 eax, edx

; 219  :     _STL_VERIFY(_Back_shift >= _Min_back_shift && _Back_shift <= _Non_user_size, "invalid argument");

  0015b	83 c0 fc	 add	 eax, -4			; fffffffcH
  0015e	83 f8 1f	 cmp	 eax, 31			; 0000001fH
  00161	0f 87 8d 00 00
	00		 ja	 $LN201@Excute

; 220  :     _Ptr = reinterpret_cast<void*>(_Ptr_container);

  00167	8b c2		 mov	 eax, edx
$LN182@Excute:

; 289  :         ::operator delete(_Ptr, _Bytes);

  00169	51		 push	 ecx
  0016a	50		 push	 eax
  0016b	e8 00 00 00 00	 call	 ??3@YAXPAXI@Z		; operator delete
  00170	83 c4 08	 add	 esp, 8
$LN177@Excute:
; File C:\Program Files\Microsoft Visual Studio\2022\Professional\VC\Tools\MSVC\14.44.35207\include\xstring

; 3090 :         _My_data._Mysize = 0;

  00173	c7 46 10 00 00
	00 00		 mov	 DWORD PTR [esi+16], 0

; 3091 :         _My_data._Myres  = _Small_string_capacity;

  0017a	c7 46 14 0f 00
	00 00		 mov	 DWORD PTR [esi+20], 15	; 0000000fH

; 3092 :         // the _Traits::assign is last so the codegen doesn't think the char write can alias this
; 3093 :         _Traits::assign(_My_data._Bx._Buf[0], _Elem());

  00181	c6 06 00	 mov	 BYTE PTR [esi], 0
; File C:\Program Files\Microsoft Visual Studio\2022\Professional\VC\Tools\MSVC\14.44.35207\include\xmemory

; 1102 :         for (; _First != _Last; ++_First) {

  00184	83 c6 18	 add	 esi, 24			; 00000018H
  00187	3b f7		 cmp	 esi, edi
  00189	75 b5		 jne	 SHORT $LL148@Excute
  0018b	8b 75 e4	 mov	 esi, DWORD PTR _MP$[ebp+20]
$LN217@Excute:
; File C:\Program Files\Microsoft Visual Studio\2022\Professional\VC\Tools\MSVC\14.44.35207\include\vector

; 2093 :             _Al.deallocate(_Myfirst, static_cast<size_type>(_Myend - _Myfirst));

  0018e	8b 4d ec	 mov	 ecx, DWORD PTR _MP$[ebp+28]
  00191	b8 ab aa aa 2a	 mov	 eax, 715827883		; 2aaaaaabH
  00196	2b ce		 sub	 ecx, esi
  00198	f7 e9		 imul	 ecx
  0019a	c1 fa 02	 sar	 edx, 2
  0019d	8b c2		 mov	 eax, edx
  0019f	c1 e8 1f	 shr	 eax, 31			; 0000001fH
  001a2	03 c2		 add	 eax, edx
; File C:\Program Files\Microsoft Visual Studio\2022\Professional\VC\Tools\MSVC\14.44.35207\include\xmemory

; 985  :         _STD _Deallocate<_New_alignof<_Ty>>(_Ptr, sizeof(_Ty) * _Count);

  001a4	8d 0c 40	 lea	 ecx, DWORD PTR [eax+eax*2]
  001a7	8b c6		 mov	 eax, esi
  001a9	c1 e1 03	 shl	 ecx, 3

; 284  :         if (_Bytes >= _Big_allocation_threshold) {

  001ac	81 f9 00 10 00
	00		 cmp	 ecx, 4096		; 00001000H
  001b2	72 20		 jb	 SHORT $LN202@Excute

; 205  :     const uintptr_t _Ptr_container   = _Ptr_user[-1];

  001b4	8b 70 fc	 mov	 esi, DWORD PTR [eax-4]
  001b7	83 c1 23	 add	 ecx, 35			; 00000023H
  001ba	2b c6		 sub	 eax, esi

; 219  :     _STL_VERIFY(_Back_shift >= _Min_back_shift && _Back_shift <= _Non_user_size, "invalid argument");

  001bc	83 c0 fc	 add	 eax, -4			; fffffffcH
  001bf	83 f8 1f	 cmp	 eax, 31			; 0000001fH
  001c2	77 30		 ja	 SHORT $LN201@Excute
  001c4	eb 0e		 jmp	 SHORT $LN202@Excute
$LN211@Excute:
; File C:\IAGOS\server\v18\Source\Source\WorldServer\MiniGameTyping.cpp

; 41   : 			MP.nState = MP_FAIL;

  001c6	c7 45 d8 05 00
	00 00		 mov	 DWORD PTR _MP$[ebp+8], 5

; 42   : 			bReturn = FALSE;

  001cd	33 db		 xor	 ebx, ebx
  001cf	e9 40 ff ff ff	 jmp	 $LN3@Excute
$LN202@Excute:
; File C:\Program Files\Microsoft Visual Studio\2022\Professional\VC\Tools\MSVC\14.44.35207\include\xmemory

; 289  :         ::operator delete(_Ptr, _Bytes);

  001d4	51		 push	 ecx
  001d5	56		 push	 esi
  001d6	e8 00 00 00 00	 call	 ??3@YAXPAXI@Z		; operator delete
  001db	83 c4 08	 add	 esp, 8
$LN142@Excute:
; File C:\IAGOS\server\v18\Source\Source\WorldServer\MiniGameTyping.cpp

; 48   : 	return bReturn;

  001de	8b c3		 mov	 eax, ebx

; 49   : }

  001e0	8b 4d f4	 mov	 ecx, DWORD PTR __$EHRec$[ebp]
  001e3	64 89 0d 00 00
	00 00		 mov	 DWORD PTR fs:0, ecx
  001ea	59		 pop	 ecx
  001eb	5f		 pop	 edi
  001ec	5e		 pop	 esi
  001ed	5b		 pop	 ebx
  001ee	8b e5		 mov	 esp, ebp
  001f0	5d		 pop	 ebp
  001f1	c2 08 00	 ret	 8
$LN201@Excute:
; File C:\Program Files\Microsoft Visual Studio\2022\Professional\VC\Tools\MSVC\14.44.35207\include\xmemory

; 219  :     _STL_VERIFY(_Back_shift >= _Min_back_shift && _Back_shift <= _Non_user_size, "invalid argument");

  001f4	6a 00		 push	 0
  001f6	6a 00		 push	 0
  001f8	6a 00		 push	 0
  001fa	6a 00		 push	 0
  001fc	6a 00		 push	 0
  001fe	e8 00 00 00 00	 call	 __invoke_watson
$LN226@Excute:
  00203	cc		 int	 3
_TEXT	ENDS
;	COMDAT text$x
text$x	SEGMENT
__unwindfunclet$?Excute@CMiniGameTyping@@UAEHPAVCUser@@PAU__MINIGAME_PACKET@@@Z$0:
  00000	8d 4d d0	 lea	 ecx, DWORD PTR _MP$[ebp]
  00003	e9 00 00 00 00	 jmp	 ??1__MINIGAME_EXT_PACKET@@QAE@XZ
  00008	cc		 int	 3
  00009	cc		 int	 3
  0000a	cc		 int	 3
  0000b	cc		 int	 3
  0000c	cc		 int	 3
__ehhandler$?Excute@CMiniGameTyping@@UAEHPAVCUser@@PAU__MINIGAME_PACKET@@@Z:
  0000d	90		 npad	 1
  0000e	90		 npad	 1
  0000f	8b 54 24 08	 mov	 edx, DWORD PTR [esp+8]
  00013	8d 42 0c	 lea	 eax, DWORD PTR [edx+12]
  00016	8b 4a cc	 mov	 ecx, DWORD PTR [edx-52]
  00019	33 c8		 xor	 ecx, eax
  0001b	e8 00 00 00 00	 call	 @__security_check_cookie@4
  00020	b8 00 00 00 00	 mov	 eax, OFFSET __ehfuncinfo$?Excute@CMiniGameTyping@@UAEHPAVCUser@@PAU__MINIGAME_PACKET@@@Z
  00025	e9 00 00 00 00	 jmp	 ___CxxFrameHandler3
text$x	ENDS
?Excute@CMiniGameTyping@@UAEHPAVCUser@@PAU__MINIGAME_PACKET@@@Z ENDP ; CMiniGameTyping::Excute
; Function compile flags: /Ogtp
; File C:\IAGOS\server\v18\Source\Source\WorldServer\MiniGameTyping.cpp
; File C:\Program Files\Microsoft Visual Studio\2022\Professional\VC\Tools\MSVC\14.44.35207\include\vector
; File C:\IAGOS\server\v18\Source\Source\WorldServer\MiniGameTyping.cpp
;	COMDAT ??1CMiniGameTyping@@UAE@XZ
_TEXT	SEGMENT
??1CMiniGameTyping@@UAE@XZ PROC				; CMiniGameTyping::~CMiniGameTyping, COMDAT
; _this$ = ecx

; 16   : {

  00000	56		 push	 esi
  00001	8b f1		 mov	 esi, ecx

; 17   : }

  00003	8d 4e 04	 lea	 ecx, DWORD PTR [esi+4]
  00006	c7 06 00 00 00
	00		 mov	 DWORD PTR [esi], OFFSET ??_7CMiniGameTyping@@6B@
; File C:\Program Files\Microsoft Visual Studio\2022\Professional\VC\Tools\MSVC\14.44.35207\include\vector

; 830  :         _Tidy();

  0000c	e8 00 00 00 00	 call	 ?_Tidy@?$vector@V?$basic_string@DU?$char_traits@D@std@@V?$allocator@D@2@@std@@V?$allocator@V?$basic_string@DU?$char_traits@D@std@@V?$allocator@D@2@@std@@@2@@std@@AAEXXZ ; std::vector<std::basic_string<char,std::char_traits<char>,std::allocator<char> >,std::allocator<std::basic_string<char,std::char_traits<char>,std::allocator<char> > > >::_Tidy
; File C:\IAGOS\server\v18\Source\Source\WorldServer\MiniGameTyping.cpp

; 17   : }

  00011	8b ce		 mov	 ecx, esi
  00013	5e		 pop	 esi
  00014	e9 00 00 00 00	 jmp	 ??1CMiniGameBase@@UAE@XZ ; CMiniGameBase::~CMiniGameBase
??1CMiniGameTyping@@UAE@XZ ENDP				; CMiniGameTyping::~CMiniGameTyping
_TEXT	ENDS
; Function compile flags: /Ogtp
; File C:\IAGOS\server\v18\Source\Source\WorldServer\MiniGameTyping.cpp
; File C:\Program Files\Microsoft Visual Studio\2022\Professional\VC\Tools\MSVC\14.44.35207\include\vector
; File C:\IAGOS\server\v18\Source\Source\WorldServer\MiniGameTyping.cpp
;	COMDAT ??0CMiniGameTyping@@QAE@PAVCMiniGameBase@@@Z
_TEXT	SEGMENT
_this$ = -4						; size = 4
_pMiniGame$ = 8						; size = 4
??0CMiniGameTyping@@QAE@PAVCMiniGameBase@@@Z PROC	; CMiniGameTyping::CMiniGameTyping, COMDAT
; _this$ = ecx

; 11   : {

  00000	55		 push	 ebp
  00001	8b ec		 mov	 ebp, esp
  00003	51		 push	 ecx
  00004	56		 push	 esi
  00005	8b f1		 mov	 esi, ecx
  00007	89 75 fc	 mov	 DWORD PTR _this$[ebp], esi
  0000a	e8 00 00 00 00	 call	 ??0CMiniGameBase@@QAE@XZ ; CMiniGameBase::CMiniGameBase
  0000f	c7 06 00 00 00
	00		 mov	 DWORD PTR [esi], OFFSET ??_7CMiniGameTyping@@6B@

; 13   : }

  00015	8b c6		 mov	 eax, esi
; File C:\Program Files\Microsoft Visual Studio\2022\Professional\VC\Tools\MSVC\14.44.35207\include\vector

; 400  :     _CONSTEXPR20 _Vector_val() noexcept : _Myfirst(), _Mylast(), _Myend() {}

  00017	c7 46 04 00 00
	00 00		 mov	 DWORD PTR [esi+4], 0
  0001e	c7 46 08 00 00
	00 00		 mov	 DWORD PTR [esi+8], 0
  00025	c7 46 0c 00 00
	00 00		 mov	 DWORD PTR [esi+12], 0
; File C:\IAGOS\server\v18\Source\Source\WorldServer\MiniGameTyping.cpp

; 13   : }

  0002c	5e		 pop	 esi
  0002d	8b e5		 mov	 esp, ebp
  0002f	5d		 pop	 ebp
  00030	c2 04 00	 ret	 4
??0CMiniGameTyping@@QAE@PAVCMiniGameBase@@@Z ENDP	; CMiniGameTyping::CMiniGameTyping
_TEXT	ENDS
; Function compile flags: /Ogtp
; File C:\IAGOS\server\v18\Source\Source\WorldServer\MiniGameTyping.cpp
; File C:\Program Files\Microsoft Visual Studio\2022\Professional\VC\Tools\MSVC\14.44.35207\include\vector
; File C:\IAGOS\server\v18\Source\Source\WorldServer\MiniGameTyping.cpp
;	COMDAT ??0CMiniGameTyping@@QAE@XZ
_TEXT	SEGMENT
_this$ = -4						; size = 4
??0CMiniGameTyping@@QAE@XZ PROC				; CMiniGameTyping::CMiniGameTyping, COMDAT
; _this$ = ecx

; 7    : {

  00000	55		 push	 ebp
  00001	8b ec		 mov	 ebp, esp
  00003	51		 push	 ecx
  00004	56		 push	 esi
  00005	8b f1		 mov	 esi, ecx
  00007	89 75 fc	 mov	 DWORD PTR _this$[ebp], esi
  0000a	e8 00 00 00 00	 call	 ??0CMiniGameBase@@QAE@XZ ; CMiniGameBase::CMiniGameBase
  0000f	c7 06 00 00 00
	00		 mov	 DWORD PTR [esi], OFFSET ??_7CMiniGameTyping@@6B@

; 8    : }

  00015	8b c6		 mov	 eax, esi
; File C:\Program Files\Microsoft Visual Studio\2022\Professional\VC\Tools\MSVC\14.44.35207\include\vector

; 400  :     _CONSTEXPR20 _Vector_val() noexcept : _Myfirst(), _Mylast(), _Myend() {}

  00017	c7 46 04 00 00
	00 00		 mov	 DWORD PTR [esi+4], 0
  0001e	c7 46 08 00 00
	00 00		 mov	 DWORD PTR [esi+8], 0
  00025	c7 46 0c 00 00
	00 00		 mov	 DWORD PTR [esi+12], 0
; File C:\IAGOS\server\v18\Source\Source\WorldServer\MiniGameTyping.cpp

; 8    : }

  0002c	5e		 pop	 esi
  0002d	8b e5		 mov	 esp, ebp
  0002f	5d		 pop	 ebp
  00030	c3		 ret	 0
??0CMiniGameTyping@@QAE@XZ ENDP				; CMiniGameTyping::CMiniGameTyping
_TEXT	ENDS
; Function compile flags: /Ogtp
; File C:\IAGOS\server\v18\Source\Source\_Network\Misc\Include\ar.h
;	COMDAT ??$?6I@CAr@@QAEAAV0@ABI@Z
_TEXT	SEGMENT
_t$ = 8							; size = 4
??$?6I@CAr@@QAEAAV0@ABI@Z PROC				; CAr::operator<<<unsigned int>, COMDAT
; _this$ = ecx

; 255  : {

  00000	55		 push	 ebp
  00001	8b ec		 mov	 ebp, esp
  00003	56		 push	 esi

; 256  : 	CheckBuf(sizeof(T));

  00004	6a 04		 push	 4
  00006	8b f1		 mov	 esi, ecx
  00008	e8 00 00 00 00	 call	 ?CheckBuf@CAr@@QAEXI@Z	; CAr::CheckBuf

; 257  : 	*(UNALIGNED T*)m_lpBufCur = t;

  0000d	8b 56 08	 mov	 edx, DWORD PTR [esi+8]
  00010	8b 45 08	 mov	 eax, DWORD PTR _t$[ebp]
  00013	8b 00		 mov	 eax, DWORD PTR [eax]
  00015	89 02		 mov	 DWORD PTR [edx], eax

; 258  : 	m_lpBufCur += sizeof(T);
; 259  : 	return *this;

  00017	8b c6		 mov	 eax, esi
  00019	83 46 08 04	 add	 DWORD PTR [esi+8], 4
  0001d	5e		 pop	 esi

; 260  : }

  0001e	5d		 pop	 ebp
  0001f	c2 04 00	 ret	 4
??$?6I@CAr@@QAEAAV0@ABI@Z ENDP				; CAr::operator<<<unsigned int>
_TEXT	ENDS
; Function compile flags: /Ogtp
; File C:\Program Files\Microsoft Visual Studio\2022\Professional\VC\Tools\MSVC\14.44.35207\include\vector
; File C:\Program Files\Microsoft Visual Studio\2022\Professional\VC\Tools\MSVC\14.44.35207\include\xmemory
; File C:\Program Files\Microsoft Visual Studio\2022\Professional\VC\Tools\MSVC\14.44.35207\include\vector
; File C:\Program Files\Microsoft Visual Studio\2022\Professional\VC\Tools\MSVC\14.44.35207\include\xmemory
; File C:\Program Files\Microsoft Visual Studio\2022\Professional\VC\Tools\MSVC\14.44.35207\include\vector
;	COMDAT ??0__MINIGAME_EXT_PACKET@@QAE@ABU0@@Z
_TEXT	SEGMENT
__Backout$2 = -32					; size = 12
__Guard$3 = -20						; size = 4
_this$ = -16						; size = 4
__$EHRec$ = -12						; size = 12
___that$ = 8						; size = 4
_this$1$ = 8						; size = 4
??0__MINIGAME_EXT_PACKET@@QAE@ABU0@@Z PROC		; __MINIGAME_EXT_PACKET::__MINIGAME_EXT_PACKET, COMDAT
; _this$ = ecx
  00000	55		 push	 ebp
  00001	8b ec		 mov	 ebp, esp
  00003	6a ff		 push	 -1
  00005	68 00 00 00 00	 push	 __ehhandler$??0__MINIGAME_EXT_PACKET@@QAE@ABU0@@Z
  0000a	64 a1 00 00 00
	00		 mov	 eax, DWORD PTR fs:0
  00010	50		 push	 eax
  00011	83 ec 14	 sub	 esp, 20			; 00000014H
  00014	53		 push	 ebx
  00015	56		 push	 esi
  00016	57		 push	 edi
  00017	a1 00 00 00 00	 mov	 eax, DWORD PTR ___security_cookie
  0001c	33 c5		 xor	 eax, ebp
  0001e	50		 push	 eax
  0001f	8d 45 f4	 lea	 eax, DWORD PTR __$EHRec$[ebp]
  00022	64 a3 00 00 00
	00		 mov	 DWORD PTR fs:0, eax
  00028	89 4d f0	 mov	 DWORD PTR _this$[ebp], ecx

; 400  :     _CONSTEXPR20 _Vector_val() noexcept : _Myfirst(), _Mylast(), _Myend() {}

  0002b	8b 75 08	 mov	 esi, DWORD PTR ___that$[ebp]
  0002e	8d 59 14	 lea	 ebx, DWORD PTR [ecx+20]
  00031	c7 01 00 00 00
	00		 mov	 DWORD PTR [ecx], OFFSET ??_7__MINIGAME_PACKET@@6B@
  00037	89 5d 08	 mov	 DWORD PTR _this$1$[ebp], ebx
  0003a	66 8b 46 04	 mov	 ax, WORD PTR [esi+4]
  0003e	66 89 41 04	 mov	 WORD PTR [ecx+4], ax
  00042	8b 46 08	 mov	 eax, DWORD PTR [esi+8]
  00045	89 41 08	 mov	 DWORD PTR [ecx+8], eax
  00048	8b 46 0c	 mov	 eax, DWORD PTR [esi+12]
  0004b	89 41 0c	 mov	 DWORD PTR [ecx+12], eax
  0004e	8b 46 10	 mov	 eax, DWORD PTR [esi+16]
  00051	89 41 10	 mov	 DWORD PTR [ecx+16], eax

; 748  :         const auto _Count       = static_cast<size_type>(_Right_data._Mylast - _Right_data._Myfirst);

  00054	b8 ab aa aa 2a	 mov	 eax, 715827883		; 2aaaaaabH
  00059	c7 01 00 00 00
	00		 mov	 DWORD PTR [ecx], OFFSET ??_7__MINIGAME_EXT_PACKET@@6B@

; 400  :     _CONSTEXPR20 _Vector_val() noexcept : _Myfirst(), _Mylast(), _Myend() {}

  0005f	c7 03 00 00 00
	00		 mov	 DWORD PTR [ebx], 0
  00065	c7 43 04 00 00
	00 00		 mov	 DWORD PTR [ebx+4], 0
  0006c	c7 43 08 00 00
	00 00		 mov	 DWORD PTR [ebx+8], 0

; 748  :         const auto _Count       = static_cast<size_type>(_Right_data._Mylast - _Right_data._Myfirst);

  00073	8b 4e 18	 mov	 ecx, DWORD PTR [esi+24]
  00076	2b 4e 14	 sub	 ecx, DWORD PTR [esi+20]
  00079	f7 e9		 imul	 ecx
  0007b	c1 fa 02	 sar	 edx, 2
  0007e	8b c2		 mov	 eax, edx
  00080	c1 e8 1f	 shr	 eax, 31			; 0000001fH
  00083	03 c2		 add	 eax, edx

; 2111 :         if (_Count != 0) {

  00085	74 54		 je	 SHORT $LN89@MINIGAME_E

; 2051 :         if (_Newcapacity > max_size()) {

  00087	3d aa aa aa 0a	 cmp	 eax, 178956970		; 0aaaaaaaH
  0008c	77 64		 ja	 SHORT $LN107@MINIGAME_E

; 2053 :         }
; 2054 : 
; 2055 :         _Buy_raw(_Newcapacity);

  0008e	50		 push	 eax
  0008f	8b cb		 mov	 ecx, ebx
  00091	e8 00 00 00 00	 call	 ?_Buy_raw@?$vector@V?$basic_string@DU?$char_traits@D@std@@V?$allocator@D@2@@std@@V?$allocator@V?$basic_string@DU?$char_traits@D@std@@V?$allocator@D@2@@std@@@2@@std@@AAEXI@Z ; std::vector<std::basic_string<char,std::char_traits<char>,std::allocator<char> >,std::allocator<std::basic_string<char,std::char_traits<char>,std::allocator<char> > > >::_Buy_raw

; 2113 :             _Tidy_guard<vector> _Guard{this};

  00096	89 5d ec	 mov	 DWORD PTR __Guard$3[ebp], ebx

; 2120 :                 _My_data._Mylast = _STD _Uninitialized_copy(_STD forward<_Valty>(_Val)..., _My_data._Myfirst, _Al);

  00099	8b 3b		 mov	 edi, DWORD PTR [ebx]
  0009b	8b 5e 18	 mov	 ebx, DWORD PTR [esi+24]
; File C:\Program Files\Microsoft Visual Studio\2022\Professional\VC\Tools\MSVC\14.44.35207\include\xmemory

; 1833 :     _CONSTEXPR20 _Uninitialized_backout_al(pointer _Dest, _Alloc& _Al_) : _First(_Dest), _Last(_Dest), _Al(_Al_) {}

  0009e	8b 45 08	 mov	 eax, DWORD PTR _this$1$[ebp]
; File C:\Program Files\Microsoft Visual Studio\2022\Professional\VC\Tools\MSVC\14.44.35207\include\vector

; 2120 :                 _My_data._Mylast = _STD _Uninitialized_copy(_STD forward<_Valty>(_Val)..., _My_data._Myfirst, _Al);

  000a1	8b 76 14	 mov	 esi, DWORD PTR [esi+20]
  000a4	c7 45 fc 00 00
	00 00		 mov	 DWORD PTR __$EHRec$[ebp+8], 0
; File C:\Program Files\Microsoft Visual Studio\2022\Professional\VC\Tools\MSVC\14.44.35207\include\xmemory

; 1833 :     _CONSTEXPR20 _Uninitialized_backout_al(pointer _Dest, _Alloc& _Al_) : _First(_Dest), _Last(_Dest), _Al(_Al_) {}

  000ab	89 7d e0	 mov	 DWORD PTR __Backout$2[ebp], edi
  000ae	89 7d e4	 mov	 DWORD PTR __Backout$2[ebp+4], edi
  000b1	89 45 e8	 mov	 DWORD PTR __Backout$2[ebp+8], eax

; 1900 :     _Uninitialized_backout_al<_Alloc> _Backout{_Dest, _Al};

  000b4	c6 45 fc 01	 mov	 BYTE PTR __$EHRec$[ebp+8], 1

; 1901 :     for (; _UFirst != _ULast; ++_UFirst) {

  000b8	3b f3		 cmp	 esi, ebx
  000ba	74 1c		 je	 SHORT $LN25@MINIGAME_E
  000bc	0f 1f 40 00	 npad	 4
$LL26@MINIGAME_E:

; 732  :         ::new (const_cast<void*>(static_cast<const volatile void*>(_Ptr))) _Objty(_STD forward<_Types>(_Args)...);

  000c0	56		 push	 esi
  000c1	8b cf		 mov	 ecx, edi
  000c3	e8 00 00 00 00	 call	 ??0?$basic_string@DU?$char_traits@D@std@@V?$allocator@D@2@@std@@QAE@ABV01@@Z ; std::basic_string<char,std::char_traits<char>,std::allocator<char> >::basic_string<char,std::char_traits<char>,std::allocator<char> >

; 1845 :         ++_Last;

  000c8	83 c7 18	 add	 edi, 24			; 00000018H

; 1901 :     for (; _UFirst != _ULast; ++_UFirst) {

  000cb	83 c6 18	 add	 esi, 24			; 00000018H

; 1845 :         ++_Last;

  000ce	89 7d e4	 mov	 DWORD PTR __Backout$2[ebp+4], edi

; 1901 :     for (; _UFirst != _ULast; ++_UFirst) {

  000d1	3b f3		 cmp	 esi, ebx
  000d3	75 eb		 jne	 SHORT $LL26@MINIGAME_E
  000d5	8b 45 08	 mov	 eax, DWORD PTR _this$1$[ebp]
$LN25@MINIGAME_E:
; File C:\Program Files\Microsoft Visual Studio\2022\Professional\VC\Tools\MSVC\14.44.35207\include\vector

; 2120 :                 _My_data._Mylast = _STD _Uninitialized_copy(_STD forward<_Valty>(_Val)..., _My_data._Myfirst, _Al);

  000d8	89 78 04	 mov	 DWORD PTR [eax+4], edi
$LN89@MINIGAME_E:
  000db	8b 45 f0	 mov	 eax, DWORD PTR _this$[ebp]
  000de	8b 4d f4	 mov	 ecx, DWORD PTR __$EHRec$[ebp]
  000e1	64 89 0d 00 00
	00 00		 mov	 DWORD PTR fs:0, ecx
  000e8	59		 pop	 ecx
  000e9	5f		 pop	 edi
  000ea	5e		 pop	 esi
  000eb	5b		 pop	 ebx
  000ec	8b e5		 mov	 esp, ebp
  000ee	5d		 pop	 ebp
  000ef	c2 04 00	 ret	 4
$LN107@MINIGAME_E:

; 2052 :             _Xlength();

  000f2	e8 00 00 00 00	 call	 ?_Xlength@?$vector@V?$basic_string@DU?$char_traits@D@std@@V?$allocator@D@2@@std@@V?$allocator@V?$basic_string@DU?$char_traits@D@std@@V?$allocator@D@2@@std@@@2@@std@@CAXXZ ; std::vector<std::basic_string<char,std::char_traits<char>,std::allocator<char> >,std::allocator<std::basic_string<char,std::char_traits<char>,std::allocator<char> > > >::_Xlength
$LN105@MINIGAME_E:
  000f7	cc		 int	 3
_TEXT	ENDS
;	COMDAT text$x
text$x	SEGMENT
__unwindfunclet$??0__MINIGAME_EXT_PACKET@@QAE@ABU0@@Z$1:
  00000	8d 4d ec	 lea	 ecx, DWORD PTR __Guard$3[ebp]
  00003	e9 00 00 00 00	 jmp	 ??1?$_Tidy_guard@V?$vector@V?$basic_string@DU?$char_traits@D@std@@V?$allocator@D@2@@std@@V?$allocator@V?$basic_string@DU?$char_traits@D@std@@V?$allocator@D@2@@std@@@2@@std@@@std@@QAE@XZ ; std::_Tidy_guard<std::vector<std::basic_string<char,std::char_traits<char>,std::allocator<char> >,std::allocator<std::basic_string<char,std::char_traits<char>,std::allocator<char> > > > >::~_Tidy_guard<std::vector<std::basic_string<char,std::char_traits<char>,std::allocator<char> >,std::allocator<std::basic_string<char,std::char_traits<char>,std::allocator<char> > > > >
__unwindfunclet$??0__MINIGAME_EXT_PACKET@@QAE@ABU0@@Z$2:
  00008	8d 4d e0	 lea	 ecx, DWORD PTR __Backout$2[ebp]
  0000b	e9 00 00 00 00	 jmp	 ??1?$_Uninitialized_backout_al@V?$allocator@V?$basic_string@DU?$char_traits@D@std@@V?$allocator@D@2@@std@@@std@@@std@@QAE@XZ ; std::_Uninitialized_backout_al<std::allocator<std::basic_string<char,std::char_traits<char>,std::allocator<char> > > >::~_Uninitialized_backout_al<std::allocator<std::basic_string<char,std::char_traits<char>,std::allocator<char> > > >
  00010	cc		 int	 3
  00011	cc		 int	 3
  00012	cc		 int	 3
  00013	cc		 int	 3
  00014	cc		 int	 3
__ehhandler$??0__MINIGAME_EXT_PACKET@@QAE@ABU0@@Z:
  00015	90		 npad	 1
  00016	90		 npad	 1
  00017	8b 54 24 08	 mov	 edx, DWORD PTR [esp+8]
  0001b	8d 42 0c	 lea	 eax, DWORD PTR [edx+12]
  0001e	8b 4a dc	 mov	 ecx, DWORD PTR [edx-36]
  00021	33 c8		 xor	 ecx, eax
  00023	e8 00 00 00 00	 call	 @__security_check_cookie@4
  00028	b8 00 00 00 00	 mov	 eax, OFFSET __ehfuncinfo$??0__MINIGAME_EXT_PACKET@@QAE@ABU0@@Z
  0002d	e9 00 00 00 00	 jmp	 ___CxxFrameHandler3
text$x	ENDS
??0__MINIGAME_EXT_PACKET@@QAE@ABU0@@Z ENDP		; __MINIGAME_EXT_PACKET::__MINIGAME_EXT_PACKET
; Function compile flags: /Ogtp
; File C:\Program Files\Microsoft Visual Studio\2022\Professional\VC\Tools\MSVC\14.44.35207\include\vector
;	COMDAT ??1__MINIGAME_EXT_PACKET@@QAE@XZ
_TEXT	SEGMENT
??1__MINIGAME_EXT_PACKET@@QAE@XZ PROC			; __MINIGAME_EXT_PACKET::~__MINIGAME_EXT_PACKET, COMDAT
; _this$ = ecx
  00000	83 c1 14	 add	 ecx, 20			; 00000014H

; 830  :         _Tidy();

  00003	e9 00 00 00 00	 jmp	 ?_Tidy@?$vector@V?$basic_string@DU?$char_traits@D@std@@V?$allocator@D@2@@std@@V?$allocator@V?$basic_string@DU?$char_traits@D@std@@V?$allocator@D@2@@std@@@2@@std@@AAEXXZ ; std::vector<std::basic_string<char,std::char_traits<char>,std::allocator<char> >,std::allocator<std::basic_string<char,std::char_traits<char>,std::allocator<char> > > >::_Tidy
??1__MINIGAME_EXT_PACKET@@QAE@XZ ENDP			; __MINIGAME_EXT_PACKET::~__MINIGAME_EXT_PACKET
_TEXT	ENDS
; Function compile flags: /Ogtp
; File C:\IAGOS\server\v18\Source\Source\_Common\minigamebase.h
; File C:\IAGOS\server\v18\Source\Source\_Network\Misc\Include\ar.h
; File C:\IAGOS\server\v18\Source\Source\_Common\minigamebase.h
; File C:\IAGOS\server\v18\Source\Source\_Network\Misc\Include\ar.h
; File C:\IAGOS\server\v18\Source\Source\_Common\minigamebase.h
; File C:\IAGOS\server\v18\Source\Source\_Network\Misc\Include\ar.h
; File C:\IAGOS\server\v18\Source\Source\_Common\minigamebase.h
; File C:\Program Files\Microsoft Visual Studio\2022\Professional\VC\Tools\MSVC\14.44.35207\include\vector
; File C:\IAGOS\server\v18\Source\Source\_Common\minigamebase.h
; File C:\Program Files\Microsoft Visual Studio\2022\Professional\VC\Tools\MSVC\14.44.35207\include\vector
; File C:\IAGOS\server\v18\Source\Source\_Common\minigamebase.h
; File C:\Program Files\Microsoft Visual Studio\2022\Professional\VC\Tools\MSVC\14.44.35207\include\vector
; File C:\IAGOS\server\v18\Source\Source\_Common\minigamebase.h
; File C:\Program Files\Microsoft Visual Studio\2022\Professional\VC\Tools\MSVC\14.44.35207\include\vector
; File C:\IAGOS\server\v18\Source\Source\_Common\minigamebase.h
; File C:\Program Files\Microsoft Visual Studio\2022\Professional\VC\Tools\MSVC\14.44.35207\include\vector
; File C:\Program Files\Microsoft Visual Studio\2022\Professional\VC\Tools\MSVC\14.44.35207\include\xstring
; File C:\IAGOS\server\v18\Source\Source\_Common\minigamebase.h
; File C:\Program Files\Microsoft Visual Studio\2022\Professional\VC\Tools\MSVC\14.44.35207\include\vector
; File C:\IAGOS\server\v18\Source\Source\_Common\minigamebase.h
; File C:\Program Files\Microsoft Visual Studio\2022\Professional\VC\Tools\MSVC\14.44.35207\include\vector
; File C:\IAGOS\server\v18\Source\Source\_Common\minigamebase.h
; File C:\Program Files\Microsoft Visual Studio\2022\Professional\VC\Tools\MSVC\14.44.35207\include\vector
; File C:\IAGOS\server\v18\Source\Source\_Common\minigamebase.h
; File C:\Program Files\Microsoft Visual Studio\2022\Professional\VC\Tools\MSVC\14.44.35207\include\vector
; File C:\Program Files\Microsoft Visual Studio\2022\Professional\VC\Tools\MSVC\14.44.35207\include\xmemory
; File C:\Program Files\Microsoft Visual Studio\2022\Professional\VC\Tools\MSVC\14.44.35207\include\vector
; File C:\IAGOS\server\v18\Source\Source\_Common\minigamebase.h
; File C:\Program Files\Microsoft Visual Studio\2022\Professional\VC\Tools\MSVC\14.44.35207\include\xstring
; File C:\Program Files\Microsoft Visual Studio\2022\Professional\VC\Tools\MSVC\14.44.35207\include\__msvc_string_view.hpp
; File C:\Program Files\Microsoft Visual Studio\2022\Professional\VC\Tools\MSVC\14.44.35207\include\xstring
; File C:\Program Files\Microsoft Visual Studio\2022\Professional\VC\Tools\MSVC\14.44.35207\include\__msvc_string_view.hpp
; File C:\Program Files\Microsoft Visual Studio\2022\Professional\VC\Tools\MSVC\14.44.35207\include\xstring
; File C:\Program Files\Microsoft Visual Studio\2022\Professional\VC\Tools\MSVC\14.44.35207\include\__msvc_string_view.hpp
; File C:\Program Files\Microsoft Visual Studio\2022\Professional\VC\Tools\MSVC\14.44.35207\include\xstring
; File C:\Program Files\Microsoft Visual Studio\2022\Professional\VC\Tools\MSVC\14.44.35207\include\__msvc_string_view.hpp
; File C:\Program Files\Microsoft Visual Studio\2022\Professional\VC\Tools\MSVC\14.44.35207\include\xstring
; File C:\Program Files\Microsoft Visual Studio\2022\Professional\VC\Tools\MSVC\14.44.35207\include\__msvc_string_view.hpp
; File C:\Program Files\Microsoft Visual Studio\2022\Professional\VC\Tools\MSVC\14.44.35207\include\xstring
; File C:\Program Files\Microsoft Visual Studio\2022\Professional\VC\Tools\MSVC\14.44.35207\include\xmemory
; File C:\Program Files\Microsoft Visual Studio\2022\Professional\VC\Tools\MSVC\14.44.35207\include\xstring
; File C:\Program Files\Microsoft Visual Studio\2022\Professional\VC\Tools\MSVC\14.44.35207\include\xmemory
; File C:\Program Files\Microsoft Visual Studio\2022\Professional\VC\Tools\MSVC\14.44.35207\include\xstring
; File C:\Program Files\Microsoft Visual Studio\2022\Professional\VC\Tools\MSVC\14.44.35207\include\__msvc_string_view.hpp
; File C:\Program Files\Microsoft Visual Studio\2022\Professional\VC\Tools\MSVC\14.44.35207\include\xstring
; File C:\Program Files\Microsoft Visual Studio\2022\Professional\VC\Tools\MSVC\14.44.35207\include\__msvc_string_view.hpp
; File C:\Program Files\Microsoft Visual Studio\2022\Professional\VC\Tools\MSVC\14.44.35207\include\xstring
; File C:\Program Files\Microsoft Visual Studio\2022\Professional\VC\Tools\MSVC\14.44.35207\include\__msvc_string_view.hpp
; File C:\Program Files\Microsoft Visual Studio\2022\Professional\VC\Tools\MSVC\14.44.35207\include\xstring
; File C:\IAGOS\server\v18\Source\Source\_Common\minigamebase.h
; File C:\Program Files\Microsoft Visual Studio\2022\Professional\VC\Tools\MSVC\14.44.35207\include\vector
; File C:\IAGOS\server\v18\Source\Source\_Common\minigamebase.h
; File C:\Program Files\Microsoft Visual Studio\2022\Professional\VC\Tools\MSVC\14.44.35207\include\vector
; File C:\Program Files\Microsoft Visual Studio\2022\Professional\VC\Tools\MSVC\14.44.35207\include\xstring
; File C:\Program Files\Microsoft Visual Studio\2022\Professional\VC\Tools\MSVC\14.44.35207\include\vector
; File C:\IAGOS\server\v18\Source\Source\_Common\minigamebase.h
; File C:\Program Files\Microsoft Visual Studio\2022\Professional\VC\Tools\MSVC\14.44.35207\include\xstring
; File C:\Program Files\Microsoft Visual Studio\2022\Professional\VC\Tools\MSVC\14.44.35207\include\xmemory
; File C:\Program Files\Microsoft Visual Studio\2022\Professional\VC\Tools\MSVC\14.44.35207\include\xstring
; File C:\Program Files\Microsoft Visual Studio\2022\Professional\VC\Tools\MSVC\14.44.35207\include\xmemory
; File C:\IAGOS\server\v18\Source\Source\_Common\minigamebase.h
; File C:\Program Files\Microsoft Visual Studio\2022\Professional\VC\Tools\MSVC\14.44.35207\include\xstring
; File C:\Program Files\Microsoft Visual Studio\2022\Professional\VC\Tools\MSVC\14.44.35207\include\xmemory
; File C:\IAGOS\server\v18\Source\Source\_Common\minigamebase.h
;	COMDAT ?Serialize@__MINIGAME_EXT_PACKET@@UAEXAAVCAr@@@Z
_TEXT	SEGMENT
_this$1$ = -316						; size = 4
_ar$GSCopy$1$ = -312					; size = 4
_nSize$2 = -308						; size = 4
$T3 = -304						; size = 4
_i$1$ = -304						; size = 4
_i$1$ = -300						; size = 4
$T4 = -300						; size = 4
$T5 = -296						; size = 24
_szTemp$6 = -272					; size = 256
__$ArrayPad$ = -16					; size = 4
__$EHRec$ = -12						; size = 12
_ar$ = 8						; size = 4
?Serialize@__MINIGAME_EXT_PACKET@@UAEXAAVCAr@@@Z PROC	; __MINIGAME_EXT_PACKET::Serialize, COMDAT
; _this$ = ecx

; 30   : 	{

  00000	55		 push	 ebp
  00001	8b ec		 mov	 ebp, esp
  00003	6a ff		 push	 -1
  00005	68 00 00 00 00	 push	 __ehhandler$?Serialize@__MINIGAME_EXT_PACKET@@UAEXAAVCAr@@@Z
  0000a	64 a1 00 00 00
	00		 mov	 eax, DWORD PTR fs:0
  00010	50		 push	 eax
  00011	81 ec 30 01 00
	00		 sub	 esp, 304		; 00000130H
  00017	a1 00 00 00 00	 mov	 eax, DWORD PTR ___security_cookie
  0001c	33 c5		 xor	 eax, ebp
  0001e	89 45 f0	 mov	 DWORD PTR __$ArrayPad$[ebp], eax
  00021	56		 push	 esi
  00022	57		 push	 edi
  00023	50		 push	 eax
  00024	8d 45 f4	 lea	 eax, DWORD PTR __$EHRec$[ebp]
  00027	64 a3 00 00 00
	00		 mov	 DWORD PTR fs:0, eax
  0002d	8b f9		 mov	 edi, ecx
  0002f	8b 75 08	 mov	 esi, DWORD PTR _ar$[ebp]

; 17   : 		if( ar.IsStoring() )

  00032	8d 47 10	 lea	 eax, DWORD PTR [edi+16]
  00035	50		 push	 eax
; File C:\IAGOS\server\v18\Source\Source\_Network\Misc\Include\ar.h

; 146  : 	return (m_nMode & CAr::load) == 0;

  00036	8d 4f 0c	 lea	 ecx, DWORD PTR [edi+12]
; File C:\IAGOS\server\v18\Source\Source\_Common\minigamebase.h

; 30   : 	{

  00039	89 b5 c8 fe ff
	ff		 mov	 DWORD PTR _ar$GSCopy$1$[ebp], esi

; 17   : 		if( ar.IsStoring() )

  0003f	51		 push	 ecx
; File C:\IAGOS\server\v18\Source\Source\_Network\Misc\Include\ar.h

; 146  : 	return (m_nMode & CAr::load) == 0;

  00040	f6 06 01	 test	 BYTE PTR [esi], 1
  00043	8d 57 08	 lea	 edx, DWORD PTR [edi+8]
; File C:\IAGOS\server\v18\Source\Source\_Common\minigamebase.h

; 17   : 		if( ar.IsStoring() )

  00046	8d 47 04	 lea	 eax, DWORD PTR [edi+4]
  00049	8b ce		 mov	 ecx, esi
  0004b	52		 push	 edx
  0004c	50		 push	 eax
  0004d	75 1c		 jne	 SHORT $LN13@Serialize

; 18   : 			ar << wNowGame << nState << nParam1 << nParam2;

  0004f	e8 00 00 00 00	 call	 ??$?6G@CAr@@QAEAAV0@ABG@Z ; CAr::operator<<<unsigned short>
  00054	8b c8		 mov	 ecx, eax
  00056	e8 00 00 00 00	 call	 ??$?6H@CAr@@QAEAAV0@ABH@Z ; CAr::operator<<<int>
  0005b	8b c8		 mov	 ecx, eax
  0005d	e8 00 00 00 00	 call	 ??$?6H@CAr@@QAEAAV0@ABH@Z ; CAr::operator<<<int>
  00062	8b c8		 mov	 ecx, eax
  00064	e8 00 00 00 00	 call	 ??$?6H@CAr@@QAEAAV0@ABH@Z ; CAr::operator<<<int>
  00069	eb 1a		 jmp	 SHORT $LN14@Serialize
$LN13@Serialize:

; 19   : 		else
; 20   : 			ar >> wNowGame >> nState >> nParam1 >> nParam2;

  0006b	e8 00 00 00 00	 call	 ??$?5G@CAr@@QAEAAV0@AAG@Z ; CAr::operator>><unsigned short>
  00070	8b c8		 mov	 ecx, eax
  00072	e8 00 00 00 00	 call	 ??$?5H@CAr@@QAEAAV0@AAH@Z ; CAr::operator>><int>
  00077	8b c8		 mov	 ecx, eax
  00079	e8 00 00 00 00	 call	 ??$?5H@CAr@@QAEAAV0@AAH@Z ; CAr::operator>><int>
  0007e	8b c8		 mov	 ecx, eax
  00080	e8 00 00 00 00	 call	 ??$?5H@CAr@@QAEAAV0@AAH@Z ; CAr::operator>><int>
$LN14@Serialize:
; File C:\IAGOS\server\v18\Source\Source\_Network\Misc\Include\ar.h

; 146  : 	return (m_nMode & CAr::load) == 0;

  00085	83 c7 14	 add	 edi, 20			; 00000014H
  00088	f6 06 01	 test	 BYTE PTR [esi], 1
  0008b	89 bd c4 fe ff
	ff		 mov	 DWORD PTR _this$1$[ebp], edi
; File C:\IAGOS\server\v18\Source\Source\_Common\minigamebase.h

; 32   : 		if( ar.IsStoring() )

  00091	0f 85 a8 00 00
	00		 jne	 $LN8@Serialize
; File C:\Program Files\Microsoft Visual Studio\2022\Professional\VC\Tools\MSVC\14.44.35207\include\vector

; 1915 :         return static_cast<size_type>(_My_data._Mylast - _My_data._Myfirst);

  00097	8b 4f 04	 mov	 ecx, DWORD PTR [edi+4]
  0009a	b8 ab aa aa 2a	 mov	 eax, 715827883		; 2aaaaaabH
  0009f	2b 0f		 sub	 ecx, DWORD PTR [edi]
  000a1	f7 e9		 imul	 ecx
; File C:\IAGOS\server\v18\Source\Source\_Common\minigamebase.h

; 34   : 			ar << vecszData.size();

  000a3	8b ce		 mov	 ecx, esi
; File C:\Program Files\Microsoft Visual Studio\2022\Professional\VC\Tools\MSVC\14.44.35207\include\vector

; 1915 :         return static_cast<size_type>(_My_data._Mylast - _My_data._Myfirst);

  000a5	c1 fa 02	 sar	 edx, 2
  000a8	8b c2		 mov	 eax, edx
  000aa	c1 e8 1f	 shr	 eax, 31			; 0000001fH
  000ad	03 c2		 add	 eax, edx
; File C:\IAGOS\server\v18\Source\Source\_Common\minigamebase.h

; 34   : 			ar << vecszData.size();

  000af	89 85 d0 fe ff
	ff		 mov	 DWORD PTR $T3[ebp], eax
  000b5	8d 85 d0 fe ff
	ff		 lea	 eax, DWORD PTR $T3[ebp]
  000bb	50		 push	 eax
  000bc	e8 00 00 00 00	 call	 ??$?6I@CAr@@QAEAAV0@ABI@Z ; CAr::operator<<<unsigned int>

; 35   : 			for( DWORD i=0; i<vecszData.size(); i++ )

  000c1	33 c9		 xor	 ecx, ecx
; File C:\Program Files\Microsoft Visual Studio\2022\Professional\VC\Tools\MSVC\14.44.35207\include\vector

; 1915 :         return static_cast<size_type>(_My_data._Mylast - _My_data._Myfirst);

  000c3	b8 ab aa aa 2a	 mov	 eax, 715827883		; 2aaaaaabH
; File C:\IAGOS\server\v18\Source\Source\_Common\minigamebase.h

; 35   : 			for( DWORD i=0; i<vecszData.size(); i++ )

  000c8	89 8d d4 fe ff
	ff		 mov	 DWORD PTR _i$1$[ebp], ecx
; File C:\Program Files\Microsoft Visual Studio\2022\Professional\VC\Tools\MSVC\14.44.35207\include\vector

; 1915 :         return static_cast<size_type>(_My_data._Mylast - _My_data._Myfirst);

  000ce	8b 4f 04	 mov	 ecx, DWORD PTR [edi+4]
  000d1	2b 0f		 sub	 ecx, DWORD PTR [edi]
  000d3	f7 e9		 imul	 ecx
  000d5	c1 fa 02	 sar	 edx, 2
  000d8	8b c2		 mov	 eax, edx
  000da	c1 e8 1f	 shr	 eax, 31			; 0000001fH
  000dd	03 c2		 add	 eax, edx
; File C:\IAGOS\server\v18\Source\Source\_Common\minigamebase.h

; 35   : 			for( DWORD i=0; i<vecszData.size(); i++ )

  000df	74 41		 je	 SHORT $LN6@Serialize
; File C:\Program Files\Microsoft Visual Studio\2022\Professional\VC\Tools\MSVC\14.44.35207\include\vector

; 1914 :         auto& _My_data = _Mypair._Myval2;

  000e1	33 f6		 xor	 esi, esi
$LL4@Serialize:

; 1934 :         return _My_data._Myfirst[_Pos];

  000e3	8b 07		 mov	 eax, DWORD PTR [edi]
  000e5	03 c6		 add	 eax, esi
; File C:\Program Files\Microsoft Visual Studio\2022\Professional\VC\Tools\MSVC\14.44.35207\include\xstring

; 453  :         return _Myres > _Small_string_capacity;

  000e7	83 78 14 0f	 cmp	 DWORD PTR [eax+20], 15	; 0000000fH

; 445  :         if (_Large_mode_engaged()) {

  000eb	76 02		 jbe	 SHORT $LN33@Serialize

; 446  :             _Result = _Unfancy(_Bx._Ptr);

  000ed	8b 00		 mov	 eax, DWORD PTR [eax]
$LN33@Serialize:
; File C:\IAGOS\server\v18\Source\Source\_Common\minigamebase.h

; 36   : 				ar.WriteString( vecszData[i].c_str() );

  000ef	8b 8d c8 fe ff
	ff		 mov	 ecx, DWORD PTR _ar$GSCopy$1$[ebp]
  000f5	50		 push	 eax
  000f6	e8 00 00 00 00	 call	 ?WriteString@CAr@@QAEXPBD@Z ; CAr::WriteString
; File C:\Program Files\Microsoft Visual Studio\2022\Professional\VC\Tools\MSVC\14.44.35207\include\vector

; 1915 :         return static_cast<size_type>(_My_data._Mylast - _My_data._Myfirst);

  000fb	8b 4f 04	 mov	 ecx, DWORD PTR [edi+4]
  000fe	b8 ab aa aa 2a	 mov	 eax, 715827883		; 2aaaaaabH
  00103	2b 0f		 sub	 ecx, DWORD PTR [edi]
; File C:\IAGOS\server\v18\Source\Source\_Common\minigamebase.h

; 35   : 			for( DWORD i=0; i<vecszData.size(); i++ )

  00105	83 c6 18	 add	 esi, 24			; 00000018H
  00108	ff 85 d4 fe ff
	ff		 inc	 DWORD PTR _i$1$[ebp]
; File C:\Program Files\Microsoft Visual Studio\2022\Professional\VC\Tools\MSVC\14.44.35207\include\vector

; 1915 :         return static_cast<size_type>(_My_data._Mylast - _My_data._Myfirst);

  0010e	f7 e9		 imul	 ecx
  00110	c1 fa 02	 sar	 edx, 2
  00113	8b c2		 mov	 eax, edx
  00115	c1 e8 1f	 shr	 eax, 31			; 0000001fH
  00118	03 c2		 add	 eax, edx
; File C:\IAGOS\server\v18\Source\Source\_Common\minigamebase.h

; 35   : 			for( DWORD i=0; i<vecszData.size(); i++ )

  0011a	39 85 d4 fe ff
	ff		 cmp	 DWORD PTR _i$1$[ebp], eax
  00120	72 c1		 jb	 SHORT $LL4@Serialize
$LN6@Serialize:

; 49   : 	}

  00122	8b 4d f4	 mov	 ecx, DWORD PTR __$EHRec$[ebp]
  00125	64 89 0d 00 00
	00 00		 mov	 DWORD PTR fs:0, ecx
  0012c	59		 pop	 ecx
  0012d	5f		 pop	 edi
  0012e	5e		 pop	 esi
  0012f	8b 4d f0	 mov	 ecx, DWORD PTR __$ArrayPad$[ebp]
  00132	33 cd		 xor	 ecx, ebp
  00134	e8 00 00 00 00	 call	 @__security_check_cookie@4
  00139	8b e5		 mov	 esp, ebp
  0013b	5d		 pop	 ebp
  0013c	c2 04 00	 ret	 4
$LN8@Serialize:
; File C:\Program Files\Microsoft Visual Studio\2022\Professional\VC\Tools\MSVC\14.44.35207\include\vector

; 1812 :         if (_Myfirst == _Mylast) { // already empty, nothing to do

  0013f	8b 37		 mov	 esi, DWORD PTR [edi]
  00141	8b 47 04	 mov	 eax, DWORD PTR [edi+4]
; File C:\IAGOS\server\v18\Source\Source\_Common\minigamebase.h

; 40   : 			int nSize = 0; vecszData.clear();

  00144	c7 85 cc fe ff
	ff 00 00 00 00	 mov	 DWORD PTR _nSize$2[ebp], 0
; File C:\Program Files\Microsoft Visual Studio\2022\Professional\VC\Tools\MSVC\14.44.35207\include\vector

; 1812 :         if (_Myfirst == _Mylast) { // already empty, nothing to do

  0014e	3b f0		 cmp	 esi, eax
  00150	74 1b		 je	 SHORT $LN39@Serialize
  00152	8b f8		 mov	 edi, eax
$LL46@Serialize:
  00154	8b ce		 mov	 ecx, esi
  00156	e8 00 00 00 00	 call	 ??1?$basic_string@DU?$char_traits@D@std@@V?$allocator@D@2@@std@@QAE@XZ ; std::basic_string<char,std::char_traits<char>,std::allocator<char> >::~basic_string<char,std::char_traits<char>,std::allocator<char> >
; File C:\Program Files\Microsoft Visual Studio\2022\Professional\VC\Tools\MSVC\14.44.35207\include\xmemory

; 1102 :         for (; _First != _Last; ++_First) {

  0015b	83 c6 18	 add	 esi, 24			; 00000018H
  0015e	3b f7		 cmp	 esi, edi
  00160	75 f2		 jne	 SHORT $LL46@Serialize
; File C:\Program Files\Microsoft Visual Studio\2022\Professional\VC\Tools\MSVC\14.44.35207\include\vector

; 1822 :         _Mylast = _Myfirst;

  00162	8b bd c4 fe ff
	ff		 mov	 edi, DWORD PTR _this$1$[ebp]
  00168	8b 07		 mov	 eax, DWORD PTR [edi]
  0016a	89 47 04	 mov	 DWORD PTR [edi+4], eax
$LN39@Serialize:
; File C:\IAGOS\server\v18\Source\Source\_Common\minigamebase.h

; 41   : 			ar >> nSize;

  0016d	8b b5 c8 fe ff
	ff		 mov	 esi, DWORD PTR _ar$GSCopy$1$[ebp]
  00173	8d 85 cc fe ff
	ff		 lea	 eax, DWORD PTR _nSize$2[ebp]
  00179	50		 push	 eax
  0017a	8b ce		 mov	 ecx, esi
  0017c	e8 00 00 00 00	 call	 ??$?5H@CAr@@QAEAAV0@AAH@Z ; CAr::operator>><int>

; 42   : 			for( int i=0; i<nSize; i++ )

  00181	83 bd cc fe ff
	ff 00		 cmp	 DWORD PTR _nSize$2[ebp], 0
  00188	c7 85 d0 fe ff
	ff 00 00 00 00	 mov	 DWORD PTR _i$1$[ebp], 0
  00192	7e 8e		 jle	 SHORT $LN6@Serialize
  00194	0f 1f 40 00 0f
	1f 84 00 00 00
	00 00		 npad	 12
$LL7@Serialize:

; 43   : 			{
; 44   : 				char szTemp[256] = {0,};

  001a0	68 00 01 00 00	 push	 256			; 00000100H
  001a5	8d 85 f0 fe ff
	ff		 lea	 eax, DWORD PTR _szTemp$6[ebp]
  001ab	6a 00		 push	 0
  001ad	50		 push	 eax
  001ae	e8 00 00 00 00	 call	 _memset
  001b3	83 c4 0c	 add	 esp, 12			; 0000000cH

; 45   : 				ar.ReadString( szTemp, 256 );

  001b6	8d 85 f0 fe ff
	ff		 lea	 eax, DWORD PTR _szTemp$6[ebp]
  001bc	8b ce		 mov	 ecx, esi
  001be	68 00 01 00 00	 push	 256			; 00000100H
  001c3	50		 push	 eax
  001c4	e8 00 00 00 00	 call	 ?ReadString@CAr@@QAEPADPADH@Z ; CAr::ReadString
  001c9	0f 57 c0	 xorps	 xmm0, xmm0
; File C:\Program Files\Microsoft Visual Studio\2022\Professional\VC\Tools\MSVC\14.44.35207\include\xstring

; 517  :     size_type _Mysize = 0; // current length of string (size)

  001cc	c7 85 e8 fe ff
	ff 00 00 00 00	 mov	 DWORD PTR $T5[ebp+16], 0
; File C:\Program Files\Microsoft Visual Studio\2022\Professional\VC\Tools\MSVC\14.44.35207\include\__msvc_string_view.hpp

; 459  :         return _CSTD strlen(reinterpret_cast<const char*>(_First));

  001d6	8d b5 f0 fe ff
	ff		 lea	 esi, DWORD PTR _szTemp$6[ebp]
; File C:\Program Files\Microsoft Visual Studio\2022\Professional\VC\Tools\MSVC\14.44.35207\include\xstring

; 518  :     size_type _Myres  = 0; // current storage reserved for string (capacity)

  001dc	c7 85 ec fe ff
	ff 00 00 00 00	 mov	 DWORD PTR $T5[ebp+20], 0

; 493  :         _CONSTEXPR20 _Bxty() noexcept : _Buf() {} // user-provided, for fancy pointers

  001e6	0f 11 85 d8 fe
	ff ff		 movups	 XMMWORD PTR $T5[ebp], xmm0
; File C:\Program Files\Microsoft Visual Studio\2022\Professional\VC\Tools\MSVC\14.44.35207\include\__msvc_string_view.hpp

; 459  :         return _CSTD strlen(reinterpret_cast<const char*>(_First));

  001ed	8d 4e 01	 lea	 ecx, DWORD PTR [esi+1]
$LL191@Serialize:
  001f0	8a 06		 mov	 al, BYTE PTR [esi]
  001f2	46		 inc	 esi
  001f3	84 c0		 test	 al, al
  001f5	75 f9		 jne	 SHORT $LL191@Serialize
  001f7	2b f1		 sub	 esi, ecx
; File C:\Program Files\Microsoft Visual Studio\2022\Professional\VC\Tools\MSVC\14.44.35207\include\xstring

; 881  :         if (_Count > max_size()) {

  001f9	81 fe ff ff ff
	7f		 cmp	 esi, 2147483647		; 7fffffffH
  001ff	0f 87 5d 01 00
	00		 ja	 $LN178@Serialize

; 883  :         }
; 884  : 
; 885  :         auto& _Al       = _Getal();
; 886  :         auto&& _Alproxy = _GET_PROXY_ALLOCATOR(_Alty, _Al);
; 887  :         _Container_proxy_ptr<_Alty> _Proxy(_Alproxy, _My_data);
; 888  : 
; 889  :         if (_Count <= _Small_string_capacity) {

  00205	83 fe 0f	 cmp	 esi, 15			; 0000000fH
  00208	77 2e		 ja	 SHORT $LN75@Serialize
; File C:\Program Files\Microsoft Visual Studio\2022\Professional\VC\Tools\MSVC\14.44.35207\include\__msvc_string_view.hpp

; 121  :         _CSTD memcpy(_First1, _First2, _Count * sizeof(_Elem));

  0020a	56		 push	 esi
  0020b	8d 85 f0 fe ff
	ff		 lea	 eax, DWORD PTR _szTemp$6[ebp]
; File C:\Program Files\Microsoft Visual Studio\2022\Professional\VC\Tools\MSVC\14.44.35207\include\xstring

; 890  :             _My_data._Mysize = _Count;

  00211	89 b5 e8 fe ff
	ff		 mov	 DWORD PTR $T5[ebp+16], esi
; File C:\Program Files\Microsoft Visual Studio\2022\Professional\VC\Tools\MSVC\14.44.35207\include\__msvc_string_view.hpp

; 121  :         _CSTD memcpy(_First1, _First2, _Count * sizeof(_Elem));

  00217	50		 push	 eax
  00218	8d 85 d8 fe ff
	ff		 lea	 eax, DWORD PTR $T5[ebp]
; File C:\Program Files\Microsoft Visual Studio\2022\Professional\VC\Tools\MSVC\14.44.35207\include\xstring

; 891  :             _My_data._Myres  = _Small_string_capacity;

  0021e	c7 85 ec fe ff
	ff 0f 00 00 00	 mov	 DWORD PTR $T5[ebp+20], 15 ; 0000000fH
; File C:\Program Files\Microsoft Visual Studio\2022\Professional\VC\Tools\MSVC\14.44.35207\include\__msvc_string_view.hpp

; 121  :         _CSTD memcpy(_First1, _First2, _Count * sizeof(_Elem));

  00228	50		 push	 eax
  00229	e8 00 00 00 00	 call	 _memcpy
; File C:\Program Files\Microsoft Visual Studio\2022\Professional\VC\Tools\MSVC\14.44.35207\include\xstring

; 898  :                 _Traits::assign(_My_data._Bx._Buf[_Count], _Elem());

  0022e	c6 84 35 d8 fe
	ff ff 00	 mov	 BYTE PTR $T5[ebp+esi], 0

; 899  :             } else { // _Strat == _Construct_strategy::_From_string
; 900  : #ifdef _INSERT_STRING_ANNOTATION
; 901  :                 _Traits::copy(_My_data._Bx._Buf, _Arg, _Count + 1);
; 902  : #else // ^^^ _INSERT_STRING_ANNOTATION / !_INSERT_STRING_ANNOTATION vvv
; 903  :                 _Traits::copy(_My_data._Bx._Buf, _Arg, _BUF_SIZE);
; 904  : #endif // ^^^ !_INSERT_STRING_ANNOTATION ^^^
; 905  :             }
; 906  : 
; 907  :             _Proxy._Release();
; 908  :             return;

  00236	eb 7f		 jmp	 SHORT $LN194@Serialize
$LN75@Serialize:

; 2978 :         const size_type _Masked = _Requested | _Alloc_mask;

  00238	8b fe		 mov	 edi, esi
  0023a	83 cf 0f	 or	 edi, 15			; 0000000fH
  0023d	81 ff ff ff ff
	7f		 cmp	 edi, 2147483647		; 7fffffffH

; 2979 :         if (_Masked > _Max) { // the mask overflows, settle for max_size()

  00243	76 12		 jbe	 SHORT $LN81@Serialize

; 2980 :             return _Max;

  00245	b8 00 00 00 80	 mov	 eax, -2147483648	; 80000000H
  0024a	bf ff ff ff 7f	 mov	 edi, 2147483647		; 7fffffffH
; File C:\Program Files\Microsoft Visual Studio\2022\Professional\VC\Tools\MSVC\14.44.35207\include\xmemory

; 253  :             return _Allocate_manually_vector_aligned<_Traits>(_Bytes);

  0024f	50		 push	 eax
  00250	e8 00 00 00 00	 call	 ??$_Allocate_manually_vector_aligned@U_Default_allocate_traits@std@@@std@@YAPAXI@Z ; std::_Allocate_manually_vector_aligned<std::_Default_allocate_traits>
  00255	eb 27		 jmp	 SHORT $LN196@Serialize
$LN81@Serialize:
; File C:\Program Files\Microsoft Visual Studio\2022\Professional\VC\Tools\MSVC\14.44.35207\include\xstring

; 2987 :         return (_STD max)(_Masked, _Old + _Old / 2);

  00257	83 ff 16	 cmp	 edi, 22			; 00000016H
  0025a	b8 16 00 00 00	 mov	 eax, 22			; 00000016H
  0025f	0f 42 f8	 cmovb	 edi, eax

; 825  :         ++_Capacity; // Take null terminator into consideration

  00262	8d 47 01	 lea	 eax, DWORD PTR [edi+1]
; File C:\Program Files\Microsoft Visual Studio\2022\Professional\VC\Tools\MSVC\14.44.35207\include\xmemory

; 227  :     if (_Bytes == 0) {

  00265	85 c0		 test	 eax, eax
  00267	74 18		 je	 SHORT $LN195@Serialize
$LN95@Serialize:

; 228  :         return nullptr;
; 229  :     }
; 230  : 
; 231  : #if _HAS_CXX20 // TRANSITION, GH-1532
; 232  :     if (_STD is_constant_evaluated()) {
; 233  :         return _Traits::_Allocate(_Bytes);
; 234  :     }
; 235  : #endif // _HAS_CXX20
; 236  : 
; 237  : #ifdef __cpp_aligned_new
; 238  :     if constexpr (_Align > __STDCPP_DEFAULT_NEW_ALIGNMENT__) {
; 239  :         size_t _Passed_align = _Align;
; 240  : #if defined(_M_IX86) || defined(_M_X64)
; 241  :         if (_Bytes >= _Big_allocation_threshold) {
; 242  :             // boost the alignment of big allocations to help autovectorization
; 243  :             _Passed_align = (_STD max)(_Align, _Big_allocation_alignment);
; 244  :         }
; 245  : #endif // defined(_M_IX86) || defined(_M_X64)
; 246  :         return _Traits::_Allocate_aligned(_Bytes, _Passed_align);
; 247  :     } else
; 248  : #endif // defined(__cpp_aligned_new)
; 249  :     {
; 250  : #if defined(_M_IX86) || defined(_M_X64)
; 251  :         if (_Bytes >= _Big_allocation_threshold) {

  00269	3d 00 10 00 00	 cmp	 eax, 4096		; 00001000H
  0026e	72 08		 jb	 SHORT $LN96@Serialize

; 253  :             return _Allocate_manually_vector_aligned<_Traits>(_Bytes);

  00270	50		 push	 eax
  00271	e8 00 00 00 00	 call	 ??$_Allocate_manually_vector_aligned@U_Default_allocate_traits@std@@@std@@YAPAXI@Z ; std::_Allocate_manually_vector_aligned<std::_Default_allocate_traits>
  00276	eb 06		 jmp	 SHORT $LN196@Serialize
$LN96@Serialize:

; 136  :         return ::operator new(_Bytes);

  00278	50		 push	 eax
  00279	e8 00 00 00 00	 call	 ??2@YAPAXI@Z		; operator new
$LN196@Serialize:
; File C:\Program Files\Microsoft Visual Studio\2022\Professional\VC\Tools\MSVC\14.44.35207\include\xstring

; 913  :         _Construct_in_place(_My_data._Bx._Ptr, _New_ptr);

  0027e	83 c4 04	 add	 esp, 4
$LN195@Serialize:
; File C:\Program Files\Microsoft Visual Studio\2022\Professional\VC\Tools\MSVC\14.44.35207\include\__msvc_string_view.hpp

; 121  :         _CSTD memcpy(_First1, _First2, _Count * sizeof(_Elem));

  00281	56		 push	 esi
  00282	8d 8d f0 fe ff
	ff		 lea	 ecx, DWORD PTR _szTemp$6[ebp]
; File C:\Program Files\Microsoft Visual Studio\2022\Professional\VC\Tools\MSVC\14.44.35207\include\xstring

; 913  :         _Construct_in_place(_My_data._Bx._Ptr, _New_ptr);

  00288	89 85 d4 fe ff
	ff		 mov	 DWORD PTR $T4[ebp], eax
; File C:\Program Files\Microsoft Visual Studio\2022\Professional\VC\Tools\MSVC\14.44.35207\include\__msvc_string_view.hpp

; 121  :         _CSTD memcpy(_First1, _First2, _Count * sizeof(_Elem));

  0028e	51		 push	 ecx
  0028f	50		 push	 eax
; File C:\Program Files\Microsoft Visual Studio\2022\Professional\VC\Tools\MSVC\14.44.35207\include\xstring

; 913  :         _Construct_in_place(_My_data._Bx._Ptr, _New_ptr);

  00290	89 85 d8 fe ff
	ff		 mov	 DWORD PTR $T5[ebp], eax

; 914  : 
; 915  :         _My_data._Mysize = _Count;

  00296	89 b5 e8 fe ff
	ff		 mov	 DWORD PTR $T5[ebp+16], esi

; 916  :         _My_data._Myres  = _New_capacity;

  0029c	89 bd ec fe ff
	ff		 mov	 DWORD PTR $T5[ebp+20], edi
; File C:\Program Files\Microsoft Visual Studio\2022\Professional\VC\Tools\MSVC\14.44.35207\include\__msvc_string_view.hpp

; 121  :         _CSTD memcpy(_First1, _First2, _Count * sizeof(_Elem));

  002a2	e8 00 00 00 00	 call	 _memcpy
; File C:\Program Files\Microsoft Visual Studio\2022\Professional\VC\Tools\MSVC\14.44.35207\include\xstring

; 922  :             _Traits::assign(_Unfancy(_New_ptr)[_Count], _Elem());

  002a7	8b 85 d4 fe ff
	ff		 mov	 eax, DWORD PTR $T4[ebp]
  002ad	8b bd c4 fe ff
	ff		 mov	 edi, DWORD PTR _this$1$[ebp]
  002b3	c6 04 30 00	 mov	 BYTE PTR [eax+esi], 0
$LN194@Serialize:
; File C:\IAGOS\server\v18\Source\Source\_Common\minigamebase.h

; 46   : 				vecszData.push_back( szTemp );

  002b7	83 c4 0c	 add	 esp, 12			; 0000000cH
; File C:\Program Files\Microsoft Visual Studio\2022\Professional\VC\Tools\MSVC\14.44.35207\include\vector

; 844  :         if (_Mylast != _My_data._Myend) {

  002ba	8b 47 04	 mov	 eax, DWORD PTR [edi+4]
; File C:\IAGOS\server\v18\Source\Source\_Common\minigamebase.h

; 46   : 				vecszData.push_back( szTemp );

  002bd	c7 45 fc 00 00
	00 00		 mov	 DWORD PTR __$EHRec$[ebp+8], 0
; File C:\Program Files\Microsoft Visual Studio\2022\Professional\VC\Tools\MSVC\14.44.35207\include\vector

; 844  :         if (_Mylast != _My_data._Myend) {

  002c4	3b 47 08	 cmp	 eax, DWORD PTR [edi+8]
  002c7	74 29		 je	 SHORT $LN108@Serialize
; File C:\Program Files\Microsoft Visual Studio\2022\Professional\VC\Tools\MSVC\14.44.35207\include\xstring

; 1286 :                 _CSTD memcpy(_My_data_mem, _Right_data_mem, _Memcpy_val_size);

  002c9	0f 10 85 d8 fe
	ff ff		 movups	 xmm0, XMMWORD PTR $T5[ebp]

; 1287 : 
; 1288 :                 _Right_data._Mysize = 0;
; 1289 :                 _Right_data._Myres  = _Small_string_capacity;

  002d0	b9 0f 00 00 00	 mov	 ecx, 15			; 0000000fH

; 1290 :                 _Right_data._Activate_SSO_buffer();
; 1291 :                 _Traits::assign(_Right_data._Bx._Buf[0], _Elem());

  002d5	c6 85 d8 fe ff
	ff 00		 mov	 BYTE PTR $T5[ebp], 0
  002dc	0f 11 00	 movups	 XMMWORD PTR [eax], xmm0
  002df	f3 0f 7e 85 e8
	fe ff ff	 movq	 xmm0, QWORD PTR $T5[ebp+16]
  002e7	66 0f d6 40 10	 movq	 QWORD PTR [eax+16], xmm0
; File C:\Program Files\Microsoft Visual Studio\2022\Professional\VC\Tools\MSVC\14.44.35207\include\vector

; 869  :         ++_Mylast;

  002ec	83 47 04 18	 add	 DWORD PTR [edi+4], 24	; 00000018H

; 845  :             return _Emplace_back_with_unused_capacity(_STD forward<_Valty>(_Val)...);

  002f0	eb 15		 jmp	 SHORT $LN107@Serialize
$LN108@Serialize:

; 846  :         }
; 847  : 
; 848  :         return *_Emplace_reallocate(_Mylast, _STD forward<_Valty>(_Val)...);

  002f2	8d 8d d8 fe ff
	ff		 lea	 ecx, DWORD PTR $T5[ebp]
  002f8	51		 push	 ecx
  002f9	50		 push	 eax
  002fa	8b cf		 mov	 ecx, edi
  002fc	e8 00 00 00 00	 call	 ??$_Emplace_reallocate@V?$basic_string@DU?$char_traits@D@std@@V?$allocator@D@2@@std@@@?$vector@V?$basic_string@DU?$char_traits@D@std@@V?$allocator@D@2@@std@@V?$allocator@V?$basic_string@DU?$char_traits@D@std@@V?$allocator@D@2@@std@@@2@@std@@AAEPAV?$basic_string@DU?$char_traits@D@std@@V?$allocator@D@2@@1@QAV21@$$QAV21@@Z ; std::vector<std::basic_string<char,std::char_traits<char>,std::allocator<char> >,std::allocator<std::basic_string<char,std::char_traits<char>,std::allocator<char> > > >::_Emplace_reallocate<std::basic_string<char,std::char_traits<char>,std::allocator<char> > >
  00301	8b 8d ec fe ff
	ff		 mov	 ecx, DWORD PTR $T5[ebp+20]
$LN107@Serialize:
; File C:\IAGOS\server\v18\Source\Source\_Common\minigamebase.h

; 46   : 				vecszData.push_back( szTemp );

  00307	c7 45 fc ff ff
	ff ff		 mov	 DWORD PTR __$EHRec$[ebp+8], -1
; File C:\Program Files\Microsoft Visual Studio\2022\Professional\VC\Tools\MSVC\14.44.35207\include\xstring

; 453  :         return _Myres > _Small_string_capacity;

  0030e	83 f9 0f	 cmp	 ecx, 15			; 0000000fH

; 3083 :         if (_My_data._Large_mode_engaged()) {

  00311	76 2b		 jbe	 SHORT $LN164@Serialize
; File C:\Program Files\Microsoft Visual Studio\2022\Professional\VC\Tools\MSVC\14.44.35207\include\xmemory

; 985  :         _STD _Deallocate<_New_alignof<_Ty>>(_Ptr, sizeof(_Ty) * _Count);

  00313	8b 95 d8 fe ff
	ff		 mov	 edx, DWORD PTR $T5[ebp]
; File C:\Program Files\Microsoft Visual Studio\2022\Professional\VC\Tools\MSVC\14.44.35207\include\xstring

; 852  :         _Al.deallocate(_Old_ptr, _Capacity + 1); // +1 for null terminator

  00319	41		 inc	 ecx
; File C:\Program Files\Microsoft Visual Studio\2022\Professional\VC\Tools\MSVC\14.44.35207\include\xmemory

; 985  :         _STD _Deallocate<_New_alignof<_Ty>>(_Ptr, sizeof(_Ty) * _Count);

  0031a	8b c2		 mov	 eax, edx

; 284  :         if (_Bytes >= _Big_allocation_threshold) {

  0031c	81 f9 00 10 00
	00		 cmp	 ecx, 4096		; 00001000H
  00322	72 10		 jb	 SHORT $LN169@Serialize

; 205  :     const uintptr_t _Ptr_container   = _Ptr_user[-1];

  00324	8b 50 fc	 mov	 edx, DWORD PTR [eax-4]
  00327	83 c1 23	 add	 ecx, 35			; 00000023H
  0032a	2b c2		 sub	 eax, edx

; 219  :     _STL_VERIFY(_Back_shift >= _Min_back_shift && _Back_shift <= _Non_user_size, "invalid argument");

  0032c	83 c0 fc	 add	 eax, -4			; fffffffcH
  0032f	83 f8 1f	 cmp	 eax, 31			; 0000001fH
  00332	77 33		 ja	 SHORT $LN179@Serialize
$LN169@Serialize:

; 289  :         ::operator delete(_Ptr, _Bytes);

  00334	51		 push	 ecx
  00335	52		 push	 edx
  00336	e8 00 00 00 00	 call	 ??3@YAXPAXI@Z		; operator delete
  0033b	83 c4 08	 add	 esp, 8
$LN164@Serialize:
; File C:\IAGOS\server\v18\Source\Source\_Common\minigamebase.h

; 42   : 			for( int i=0; i<nSize; i++ )

  0033e	8b 85 d0 fe ff
	ff		 mov	 eax, DWORD PTR _i$1$[ebp]
  00344	40		 inc	 eax
  00345	89 85 d0 fe ff
	ff		 mov	 DWORD PTR _i$1$[ebp], eax
  0034b	3b 85 cc fe ff
	ff		 cmp	 eax, DWORD PTR _nSize$2[ebp]
  00351	0f 8d cb fd ff
	ff		 jge	 $LN6@Serialize
  00357	8b b5 c8 fe ff
	ff		 mov	 esi, DWORD PTR _ar$GSCopy$1$[ebp]
  0035d	e9 3e fe ff ff	 jmp	 $LL7@Serialize
$LN178@Serialize:
; File C:\Program Files\Microsoft Visual Studio\2022\Professional\VC\Tools\MSVC\14.44.35207\include\xstring

; 882  :             _Xlen_string(); // result too long

  00362	e8 00 00 00 00	 call	 ?_Xlen_string@std@@YAXXZ ; std::_Xlen_string
$LN179@Serialize:
; File C:\Program Files\Microsoft Visual Studio\2022\Professional\VC\Tools\MSVC\14.44.35207\include\xmemory

; 219  :     _STL_VERIFY(_Back_shift >= _Min_back_shift && _Back_shift <= _Non_user_size, "invalid argument");

  00367	6a 00		 push	 0
  00369	6a 00		 push	 0
  0036b	6a 00		 push	 0
  0036d	6a 00		 push	 0
  0036f	6a 00		 push	 0
  00371	e8 00 00 00 00	 call	 __invoke_watson
$LN193@Serialize:
  00376	cc		 int	 3
_TEXT	ENDS
;	COMDAT text$x
text$x	SEGMENT
__unwindfunclet$?Serialize@__MINIGAME_EXT_PACKET@@UAEXAAVCAr@@@Z$0:
  00000	8d 8d d8 fe ff
	ff		 lea	 ecx, DWORD PTR $T5[ebp]
  00006	e9 00 00 00 00	 jmp	 ??1?$basic_string@DU?$char_traits@D@std@@V?$allocator@D@2@@std@@QAE@XZ ; std::basic_string<char,std::char_traits<char>,std::allocator<char> >::~basic_string<char,std::char_traits<char>,std::allocator<char> >
  0000b	cc		 int	 3
  0000c	cc		 int	 3
  0000d	cc		 int	 3
  0000e	cc		 int	 3
  0000f	cc		 int	 3
__ehhandler$?Serialize@__MINIGAME_EXT_PACKET@@UAEXAAVCAr@@@Z:
  00010	90		 npad	 1
  00011	90		 npad	 1
  00012	8b 54 24 08	 mov	 edx, DWORD PTR [esp+8]
  00016	8d 42 0c	 lea	 eax, DWORD PTR [edx+12]
  00019	8b 8a c4 fe ff
	ff		 mov	 ecx, DWORD PTR [edx-316]
  0001f	33 c8		 xor	 ecx, eax
  00021	e8 00 00 00 00	 call	 @__security_check_cookie@4
  00026	8b 4a fc	 mov	 ecx, DWORD PTR [edx-4]
  00029	33 c8		 xor	 ecx, eax
  0002b	e8 00 00 00 00	 call	 @__security_check_cookie@4
  00030	b8 00 00 00 00	 mov	 eax, OFFSET __ehfuncinfo$?Serialize@__MINIGAME_EXT_PACKET@@UAEXAAVCAr@@@Z
  00035	e9 00 00 00 00	 jmp	 ___CxxFrameHandler3
text$x	ENDS
?Serialize@__MINIGAME_EXT_PACKET@@UAEXAAVCAr@@@Z ENDP	; __MINIGAME_EXT_PACKET::Serialize
; Function compile flags: /Ogtp
; File C:\Program Files\Microsoft Visual Studio\2022\Professional\VC\Tools\MSVC\14.44.35207\include\vector
;	COMDAT ?_Xlength@?$vector@V?$basic_string@DU?$char_traits@D@std@@V?$allocator@D@2@@std@@V?$allocator@V?$basic_string@DU?$char_traits@D@std@@V?$allocator@D@2@@std@@@2@@std@@CAXXZ
_TEXT	SEGMENT
?_Xlength@?$vector@V?$basic_string@DU?$char_traits@D@std@@V?$allocator@D@2@@std@@V?$allocator@V?$basic_string@DU?$char_traits@D@std@@V?$allocator@D@2@@std@@@2@@std@@CAXXZ PROC ; std::vector<std::basic_string<char,std::char_traits<char>,std::allocator<char> >,std::allocator<std::basic_string<char,std::char_traits<char>,std::allocator<char> > > >::_Xlength, COMDAT

; 2184 :         _Xlength_error("vector too long");

  00000	68 00 00 00 00	 push	 OFFSET ??_C@_0BA@FOIKENOD@vector?5too?5long@
  00005	e8 00 00 00 00	 call	 ?_Xlength_error@std@@YAXPBD@Z ; std::_Xlength_error
$LN3@Xlength:
  0000a	cc		 int	 3
?_Xlength@?$vector@V?$basic_string@DU?$char_traits@D@std@@V?$allocator@D@2@@std@@V?$allocator@V?$basic_string@DU?$char_traits@D@std@@V?$allocator@D@2@@std@@@2@@std@@CAXXZ ENDP ; std::vector<std::basic_string<char,std::char_traits<char>,std::allocator<char> >,std::allocator<std::basic_string<char,std::char_traits<char>,std::allocator<char> > > >::_Xlength
_TEXT	ENDS
; Function compile flags: /Ogtp
; File C:\Program Files\Microsoft Visual Studio\2022\Professional\VC\Tools\MSVC\14.44.35207\include\vector
; File C:\Program Files\Microsoft Visual Studio\2022\Professional\VC\Tools\MSVC\14.44.35207\include\xmemory
; File C:\Program Files\Microsoft Visual Studio\2022\Professional\VC\Tools\MSVC\14.44.35207\include\vector
; File C:\Program Files\Microsoft Visual Studio\2022\Professional\VC\Tools\MSVC\14.44.35207\include\xmemory
; File C:\Program Files\Microsoft Visual Studio\2022\Professional\VC\Tools\MSVC\14.44.35207\include\vector
; File C:\Program Files\Microsoft Visual Studio\2022\Professional\VC\Tools\MSVC\14.44.35207\include\xmemory
; File C:\Program Files\Microsoft Visual Studio\2022\Professional\VC\Tools\MSVC\14.44.35207\include\vector
; File C:\Program Files\Microsoft Visual Studio\2022\Professional\VC\Tools\MSVC\14.44.35207\include\xmemory
; File C:\Program Files\Microsoft Visual Studio\2022\Professional\VC\Tools\MSVC\14.44.35207\include\vector
; File C:\Program Files\Microsoft Visual Studio\2022\Professional\VC\Tools\MSVC\14.44.35207\include\xmemory
; File C:\Program Files\Microsoft Visual Studio\2022\Professional\VC\Tools\MSVC\14.44.35207\include\vector
;	COMDAT ?_Tidy@?$vector@V?$basic_string@DU?$char_traits@D@std@@V?$allocator@D@2@@std@@V?$allocator@V?$basic_string@DU?$char_traits@D@std@@V?$allocator@D@2@@std@@@2@@std@@AAEXXZ
_TEXT	SEGMENT
?_Tidy@?$vector@V?$basic_string@DU?$char_traits@D@std@@V?$allocator@D@2@@std@@V?$allocator@V?$basic_string@DU?$char_traits@D@std@@V?$allocator@D@2@@std@@@2@@std@@AAEXXZ PROC ; std::vector<std::basic_string<char,std::char_traits<char>,std::allocator<char> >,std::allocator<std::basic_string<char,std::char_traits<char>,std::allocator<char> > > >::_Tidy, COMDAT
; _this$ = ecx

; 2081 :     _CONSTEXPR20 void _Tidy() noexcept { // free all storage

  00000	56		 push	 esi
  00001	57		 push	 edi
  00002	8b f9		 mov	 edi, ecx

; 2082 :         auto& _Al         = _Getal();
; 2083 :         auto& _My_data    = _Mypair._Myval2;
; 2084 :         pointer& _Myfirst = _My_data._Myfirst;
; 2085 :         pointer& _Mylast  = _My_data._Mylast;
; 2086 :         pointer& _Myend   = _My_data._Myend;
; 2087 : 
; 2088 :         _My_data._Orphan_all();
; 2089 : 
; 2090 :         if (_Myfirst) { // destroy and deallocate old array

  00004	8b 37		 mov	 esi, DWORD PTR [edi]
  00006	85 f6		 test	 esi, esi
  00008	74 6d		 je	 SHORT $LN2@Tidy

; 2091 :             _STD _Destroy_range(_Myfirst, _Mylast, _Al);

  0000a	53		 push	 ebx
  0000b	8b 5f 04	 mov	 ebx, DWORD PTR [edi+4]
; File C:\Program Files\Microsoft Visual Studio\2022\Professional\VC\Tools\MSVC\14.44.35207\include\xmemory

; 1102 :         for (; _First != _Last; ++_First) {

  0000e	3b f3		 cmp	 esi, ebx
  00010	74 0e		 je	 SHORT $LN7@Tidy
$LL8@Tidy:
  00012	8b ce		 mov	 ecx, esi
  00014	e8 00 00 00 00	 call	 ??1?$basic_string@DU?$char_traits@D@std@@V?$allocator@D@2@@std@@QAE@XZ ; std::basic_string<char,std::char_traits<char>,std::allocator<char> >::~basic_string<char,std::char_traits<char>,std::allocator<char> >
  00019	83 c6 18	 add	 esi, 24			; 00000018H
  0001c	3b f3		 cmp	 esi, ebx
  0001e	75 f2		 jne	 SHORT $LL8@Tidy
$LN7@Tidy:
; File C:\Program Files\Microsoft Visual Studio\2022\Professional\VC\Tools\MSVC\14.44.35207\include\vector

; 2093 :             _Al.deallocate(_Myfirst, static_cast<size_type>(_Myend - _Myfirst));

  00020	8b 4f 08	 mov	 ecx, DWORD PTR [edi+8]
  00023	b8 ab aa aa 2a	 mov	 eax, 715827883		; 2aaaaaabH
  00028	8b 37		 mov	 esi, DWORD PTR [edi]
  0002a	2b ce		 sub	 ecx, esi
  0002c	f7 e9		 imul	 ecx
; File C:\Program Files\Microsoft Visual Studio\2022\Professional\VC\Tools\MSVC\14.44.35207\include\xmemory

; 985  :         _STD _Deallocate<_New_alignof<_Ty>>(_Ptr, sizeof(_Ty) * _Count);

  0002e	5b		 pop	 ebx
; File C:\Program Files\Microsoft Visual Studio\2022\Professional\VC\Tools\MSVC\14.44.35207\include\vector

; 2093 :             _Al.deallocate(_Myfirst, static_cast<size_type>(_Myend - _Myfirst));

  0002f	c1 fa 02	 sar	 edx, 2
  00032	8b c2		 mov	 eax, edx
  00034	c1 e8 1f	 shr	 eax, 31			; 0000001fH
  00037	03 c2		 add	 eax, edx
; File C:\Program Files\Microsoft Visual Studio\2022\Professional\VC\Tools\MSVC\14.44.35207\include\xmemory

; 985  :         _STD _Deallocate<_New_alignof<_Ty>>(_Ptr, sizeof(_Ty) * _Count);

  00039	8d 0c 40	 lea	 ecx, DWORD PTR [eax+eax*2]
  0003c	c1 e1 03	 shl	 ecx, 3

; 284  :         if (_Bytes >= _Big_allocation_threshold) {

  0003f	81 f9 00 10 00
	00		 cmp	 ecx, 4096		; 00001000H
  00045	72 12		 jb	 SHORT $LN27@Tidy

; 205  :     const uintptr_t _Ptr_container   = _Ptr_user[-1];

  00047	8b 56 fc	 mov	 edx, DWORD PTR [esi-4]
  0004a	83 c1 23	 add	 ecx, 35			; 00000023H

; 206  : 
; 207  :     // If the following asserts, it likely means that we are performing
; 208  :     // an aligned delete on memory coming from an unaligned allocation.
; 209  :     _STL_ASSERT(_Ptr_user[-2] == _Big_allocation_sentinel, "invalid argument");
; 210  : 
; 211  :     // Extra paranoia on aligned allocation/deallocation; ensure _Ptr_container is
; 212  :     // in range [_Min_back_shift, _Non_user_size]
; 213  : #ifdef _DEBUG
; 214  :     constexpr uintptr_t _Min_back_shift = 2 * sizeof(void*);
; 215  : #else // ^^^ defined(_DEBUG) / !defined(_DEBUG) vvv
; 216  :     constexpr uintptr_t _Min_back_shift = sizeof(void*);
; 217  : #endif // ^^^ !defined(_DEBUG) ^^^
; 218  :     const uintptr_t _Back_shift = reinterpret_cast<uintptr_t>(_Ptr) - _Ptr_container;

  0004d	2b f2		 sub	 esi, edx

; 219  :     _STL_VERIFY(_Back_shift >= _Min_back_shift && _Back_shift <= _Non_user_size, "invalid argument");

  0004f	8d 46 fc	 lea	 eax, DWORD PTR [esi-4]
  00052	83 f8 1f	 cmp	 eax, 31			; 0000001fH
  00055	77 23		 ja	 SHORT $LN26@Tidy

; 220  :     _Ptr = reinterpret_cast<void*>(_Ptr_container);

  00057	8b f2		 mov	 esi, edx
$LN27@Tidy:

; 289  :         ::operator delete(_Ptr, _Bytes);

  00059	51		 push	 ecx
  0005a	56		 push	 esi
  0005b	e8 00 00 00 00	 call	 ??3@YAXPAXI@Z		; operator delete
; File C:\Program Files\Microsoft Visual Studio\2022\Professional\VC\Tools\MSVC\14.44.35207\include\vector

; 2095 :             _Myfirst = nullptr;

  00060	c7 07 00 00 00
	00		 mov	 DWORD PTR [edi], 0
; File C:\Program Files\Microsoft Visual Studio\2022\Professional\VC\Tools\MSVC\14.44.35207\include\xmemory

; 289  :         ::operator delete(_Ptr, _Bytes);

  00066	83 c4 08	 add	 esp, 8
; File C:\Program Files\Microsoft Visual Studio\2022\Professional\VC\Tools\MSVC\14.44.35207\include\vector

; 2096 :             _Mylast  = nullptr;

  00069	c7 47 04 00 00
	00 00		 mov	 DWORD PTR [edi+4], 0

; 2097 :             _Myend   = nullptr;

  00070	c7 47 08 00 00
	00 00		 mov	 DWORD PTR [edi+8], 0
$LN2@Tidy:

; 2099 :     }

  00077	5f		 pop	 edi
  00078	5e		 pop	 esi
  00079	c3		 ret	 0
$LN26@Tidy:
; File C:\Program Files\Microsoft Visual Studio\2022\Professional\VC\Tools\MSVC\14.44.35207\include\xmemory

; 219  :     _STL_VERIFY(_Back_shift >= _Min_back_shift && _Back_shift <= _Non_user_size, "invalid argument");

  0007a	6a 00		 push	 0
  0007c	6a 00		 push	 0
  0007e	6a 00		 push	 0
  00080	6a 00		 push	 0
  00082	6a 00		 push	 0
  00084	e8 00 00 00 00	 call	 __invoke_watson
$LN39@Tidy:
  00089	cc		 int	 3
?_Tidy@?$vector@V?$basic_string@DU?$char_traits@D@std@@V?$allocator@D@2@@std@@V?$allocator@V?$basic_string@DU?$char_traits@D@std@@V?$allocator@D@2@@std@@@2@@std@@AAEXXZ ENDP ; std::vector<std::basic_string<char,std::char_traits<char>,std::allocator<char> >,std::allocator<std::basic_string<char,std::char_traits<char>,std::allocator<char> > > >::_Tidy
_TEXT	ENDS
; Function compile flags: /Ogtp
; File C:\Program Files\Microsoft Visual Studio\2022\Professional\VC\Tools\MSVC\14.44.35207\include\vector
; File C:\Program Files\Microsoft Visual Studio\2022\Professional\VC\Tools\MSVC\14.44.35207\include\xmemory
; File C:\Program Files\Microsoft Visual Studio\2022\Professional\VC\Tools\MSVC\14.44.35207\include\vector
; File C:\Program Files\Microsoft Visual Studio\2022\Professional\VC\Tools\MSVC\14.44.35207\include\xmemory
; File C:\Program Files\Microsoft Visual Studio\2022\Professional\VC\Tools\MSVC\14.44.35207\include\vector
; File C:\Program Files\Microsoft Visual Studio\2022\Professional\VC\Tools\MSVC\14.44.35207\include\xmemory
; File C:\Program Files\Microsoft Visual Studio\2022\Professional\VC\Tools\MSVC\14.44.35207\include\vector
; File C:\Program Files\Microsoft Visual Studio\2022\Professional\VC\Tools\MSVC\14.44.35207\include\xmemory
; File C:\Program Files\Microsoft Visual Studio\2022\Professional\VC\Tools\MSVC\14.44.35207\include\vector
;	COMDAT ?_Change_array@?$vector@V?$basic_string@DU?$char_traits@D@std@@V?$allocator@D@2@@std@@V?$allocator@V?$basic_string@DU?$char_traits@D@std@@V?$allocator@D@2@@std@@@2@@std@@AAEXQAV?$basic_string@DU?$char_traits@D@std@@V?$allocator@D@2@@2@II@Z
_TEXT	SEGMENT
__Newvec$ = 8						; size = 4
__Newsize$ = 12						; size = 4
__Newcapacity$ = 16					; size = 4
?_Change_array@?$vector@V?$basic_string@DU?$char_traits@D@std@@V?$allocator@D@2@@std@@V?$allocator@V?$basic_string@DU?$char_traits@D@std@@V?$allocator@D@2@@std@@@2@@std@@AAEXQAV?$basic_string@DU?$char_traits@D@std@@V?$allocator@D@2@@2@II@Z PROC ; std::vector<std::basic_string<char,std::char_traits<char>,std::allocator<char> >,std::allocator<std::basic_string<char,std::char_traits<char>,std::allocator<char> > > >::_Change_array, COMDAT
; _this$ = ecx

; 2059 :         const pointer _Newvec, const size_type _Newsize, const size_type _Newcapacity) noexcept {

  00000	55		 push	 ebp
  00001	8b ec		 mov	 ebp, esp
  00003	53		 push	 ebx
  00004	8b d9		 mov	 ebx, ecx
  00006	56		 push	 esi

; 2060 :         // orphan all iterators, discard old array, acquire new array
; 2061 :         auto& _Al         = _Getal();
; 2062 :         auto& _My_data    = _Mypair._Myval2;
; 2063 :         pointer& _Myfirst = _My_data._Myfirst;
; 2064 :         pointer& _Mylast  = _My_data._Mylast;
; 2065 :         pointer& _Myend   = _My_data._Myend;
; 2066 : 
; 2067 :         _My_data._Orphan_all();
; 2068 : 
; 2069 :         if (_Myfirst) { // destroy and deallocate old array

  00007	8b 33		 mov	 esi, DWORD PTR [ebx]
  00009	85 f6		 test	 esi, esi
  0000b	74 59		 je	 SHORT $LN22@Change_arr

; 2070 :             _STD _Destroy_range(_Myfirst, _Mylast, _Al);

  0000d	57		 push	 edi
  0000e	8b 7b 04	 mov	 edi, DWORD PTR [ebx+4]
; File C:\Program Files\Microsoft Visual Studio\2022\Professional\VC\Tools\MSVC\14.44.35207\include\xmemory

; 1102 :         for (; _First != _Last; ++_First) {

  00011	3b f7		 cmp	 esi, edi
  00013	74 0e		 je	 SHORT $LN7@Change_arr
$LL8@Change_arr:
  00015	8b ce		 mov	 ecx, esi
  00017	e8 00 00 00 00	 call	 ??1?$basic_string@DU?$char_traits@D@std@@V?$allocator@D@2@@std@@QAE@XZ ; std::basic_string<char,std::char_traits<char>,std::allocator<char> >::~basic_string<char,std::char_traits<char>,std::allocator<char> >
  0001c	83 c6 18	 add	 esi, 24			; 00000018H
  0001f	3b f7		 cmp	 esi, edi
  00021	75 f2		 jne	 SHORT $LL8@Change_arr
$LN7@Change_arr:
; File C:\Program Files\Microsoft Visual Studio\2022\Professional\VC\Tools\MSVC\14.44.35207\include\vector

; 2072 :             _Al.deallocate(_Myfirst, static_cast<size_type>(_Myend - _Myfirst));

  00023	8b 4b 08	 mov	 ecx, DWORD PTR [ebx+8]
  00026	b8 ab aa aa 2a	 mov	 eax, 715827883		; 2aaaaaabH
  0002b	8b 33		 mov	 esi, DWORD PTR [ebx]
  0002d	2b ce		 sub	 ecx, esi
  0002f	f7 e9		 imul	 ecx
; File C:\Program Files\Microsoft Visual Studio\2022\Professional\VC\Tools\MSVC\14.44.35207\include\xmemory

; 985  :         _STD _Deallocate<_New_alignof<_Ty>>(_Ptr, sizeof(_Ty) * _Count);

  00031	5f		 pop	 edi
; File C:\Program Files\Microsoft Visual Studio\2022\Professional\VC\Tools\MSVC\14.44.35207\include\vector

; 2072 :             _Al.deallocate(_Myfirst, static_cast<size_type>(_Myend - _Myfirst));

  00032	c1 fa 02	 sar	 edx, 2
  00035	8b c2		 mov	 eax, edx
  00037	c1 e8 1f	 shr	 eax, 31			; 0000001fH
  0003a	03 c2		 add	 eax, edx
; File C:\Program Files\Microsoft Visual Studio\2022\Professional\VC\Tools\MSVC\14.44.35207\include\xmemory

; 985  :         _STD _Deallocate<_New_alignof<_Ty>>(_Ptr, sizeof(_Ty) * _Count);

  0003c	8d 0c 40	 lea	 ecx, DWORD PTR [eax+eax*2]
  0003f	c1 e1 03	 shl	 ecx, 3

; 284  :         if (_Bytes >= _Big_allocation_threshold) {

  00042	81 f9 00 10 00
	00		 cmp	 ecx, 4096		; 00001000H
  00048	72 12		 jb	 SHORT $LN27@Change_arr

; 205  :     const uintptr_t _Ptr_container   = _Ptr_user[-1];

  0004a	8b 56 fc	 mov	 edx, DWORD PTR [esi-4]
  0004d	83 c1 23	 add	 ecx, 35			; 00000023H

; 206  : 
; 207  :     // If the following asserts, it likely means that we are performing
; 208  :     // an aligned delete on memory coming from an unaligned allocation.
; 209  :     _STL_ASSERT(_Ptr_user[-2] == _Big_allocation_sentinel, "invalid argument");
; 210  : 
; 211  :     // Extra paranoia on aligned allocation/deallocation; ensure _Ptr_container is
; 212  :     // in range [_Min_back_shift, _Non_user_size]
; 213  : #ifdef _DEBUG
; 214  :     constexpr uintptr_t _Min_back_shift = 2 * sizeof(void*);
; 215  : #else // ^^^ defined(_DEBUG) / !defined(_DEBUG) vvv
; 216  :     constexpr uintptr_t _Min_back_shift = sizeof(void*);
; 217  : #endif // ^^^ !defined(_DEBUG) ^^^
; 218  :     const uintptr_t _Back_shift = reinterpret_cast<uintptr_t>(_Ptr) - _Ptr_container;

  00050	2b f2		 sub	 esi, edx

; 219  :     _STL_VERIFY(_Back_shift >= _Min_back_shift && _Back_shift <= _Non_user_size, "invalid argument");

  00052	8d 46 fc	 lea	 eax, DWORD PTR [esi-4]
  00055	83 f8 1f	 cmp	 eax, 31			; 0000001fH
  00058	77 2f		 ja	 SHORT $LN26@Change_arr

; 220  :     _Ptr = reinterpret_cast<void*>(_Ptr_container);

  0005a	8b f2		 mov	 esi, edx
$LN27@Change_arr:

; 289  :         ::operator delete(_Ptr, _Bytes);

  0005c	51		 push	 ecx
  0005d	56		 push	 esi
  0005e	e8 00 00 00 00	 call	 ??3@YAXPAXI@Z		; operator delete
  00063	83 c4 08	 add	 esp, 8
$LN22@Change_arr:
; File C:\Program Files\Microsoft Visual Studio\2022\Professional\VC\Tools\MSVC\14.44.35207\include\vector

; 2075 :         _Myfirst = _Newvec;

  00066	8b 4d 08	 mov	 ecx, DWORD PTR __Newvec$[ebp]

; 2076 :         _Mylast  = _Newvec + _Newsize;

  00069	8b 45 0c	 mov	 eax, DWORD PTR __Newsize$[ebp]
  0006c	89 0b		 mov	 DWORD PTR [ebx], ecx

; 2077 :         _Myend   = _Newvec + _Newcapacity;

  0006e	5e		 pop	 esi
  0006f	8d 04 40	 lea	 eax, DWORD PTR [eax+eax*2]
  00072	8d 04 c1	 lea	 eax, DWORD PTR [ecx+eax*8]
  00075	89 43 04	 mov	 DWORD PTR [ebx+4], eax
  00078	8b 45 10	 mov	 eax, DWORD PTR __Newcapacity$[ebp]
  0007b	8d 04 40	 lea	 eax, DWORD PTR [eax+eax*2]
  0007e	8d 04 c1	 lea	 eax, DWORD PTR [ecx+eax*8]
  00081	89 43 08	 mov	 DWORD PTR [ebx+8], eax
  00084	5b		 pop	 ebx

; 2079 :     }

  00085	5d		 pop	 ebp
  00086	c2 0c 00	 ret	 12			; 0000000cH
$LN26@Change_arr:
; File C:\Program Files\Microsoft Visual Studio\2022\Professional\VC\Tools\MSVC\14.44.35207\include\xmemory

; 219  :     _STL_VERIFY(_Back_shift >= _Min_back_shift && _Back_shift <= _Non_user_size, "invalid argument");

  00089	6a 00		 push	 0
  0008b	6a 00		 push	 0
  0008d	6a 00		 push	 0
  0008f	6a 00		 push	 0
  00091	6a 00		 push	 0
  00093	e8 00 00 00 00	 call	 __invoke_watson
$LN39@Change_arr:
  00098	cc		 int	 3
?_Change_array@?$vector@V?$basic_string@DU?$char_traits@D@std@@V?$allocator@D@2@@std@@V?$allocator@V?$basic_string@DU?$char_traits@D@std@@V?$allocator@D@2@@std@@@2@@std@@AAEXQAV?$basic_string@DU?$char_traits@D@std@@V?$allocator@D@2@@2@II@Z ENDP ; std::vector<std::basic_string<char,std::char_traits<char>,std::allocator<char> >,std::allocator<std::basic_string<char,std::char_traits<char>,std::allocator<char> > > >::_Change_array
_TEXT	ENDS
; Function compile flags: /Ogtp
; File C:\Program Files\Microsoft Visual Studio\2022\Professional\VC\Tools\MSVC\14.44.35207\include\vector
; File C:\Program Files\Microsoft Visual Studio\2022\Professional\VC\Tools\MSVC\14.44.35207\include\xmemory
; File C:\Program Files\Microsoft Visual Studio\2022\Professional\VC\Tools\MSVC\14.44.35207\include\vector
; File C:\Program Files\Microsoft Visual Studio\2022\Professional\VC\Tools\MSVC\14.44.35207\include\xmemory
; File C:\Program Files\Microsoft Visual Studio\2022\Professional\VC\Tools\MSVC\14.44.35207\include\vector
; File C:\Program Files\Microsoft Visual Studio\2022\Professional\VC\Tools\MSVC\14.44.35207\include\xmemory
; File C:\Program Files\Microsoft Visual Studio\2022\Professional\VC\Tools\MSVC\14.44.35207\include\vector
; File C:\Program Files\Microsoft Visual Studio\2022\Professional\VC\Tools\MSVC\14.44.35207\include\xmemory
; File C:\Program Files\Microsoft Visual Studio\2022\Professional\VC\Tools\MSVC\14.44.35207\include\vector
; File C:\Program Files\Microsoft Visual Studio\2022\Professional\VC\Tools\MSVC\14.44.35207\include\xmemory
; File C:\Program Files\Microsoft Visual Studio\2022\Professional\VC\Tools\MSVC\14.44.35207\include\vector
;	COMDAT ?_Buy_raw@?$vector@V?$basic_string@DU?$char_traits@D@std@@V?$allocator@D@2@@std@@V?$allocator@V?$basic_string@DU?$char_traits@D@std@@V?$allocator@D@2@@std@@@2@@std@@AAEXI@Z
_TEXT	SEGMENT
__Newcapacity$ = 8					; size = 4
?_Buy_raw@?$vector@V?$basic_string@DU?$char_traits@D@std@@V?$allocator@D@2@@std@@V?$allocator@V?$basic_string@DU?$char_traits@D@std@@V?$allocator@D@2@@std@@@2@@std@@AAEXI@Z PROC ; std::vector<std::basic_string<char,std::char_traits<char>,std::allocator<char> >,std::allocator<std::basic_string<char,std::char_traits<char>,std::allocator<char> > > >::_Buy_raw, COMDAT
; _this$ = ecx

; 2024 :     _CONSTEXPR20 void _Buy_raw(size_type _Newcapacity) {

  00000	55		 push	 ebp
  00001	8b ec		 mov	 ebp, esp
; File C:\Program Files\Microsoft Visual Studio\2022\Professional\VC\Tools\MSVC\14.44.35207\include\xmemory

; 117  :         if (_Count > _Max_possible) {

  00003	8b 45 08	 mov	 eax, DWORD PTR __Newcapacity$[ebp]
; File C:\Program Files\Microsoft Visual Studio\2022\Professional\VC\Tools\MSVC\14.44.35207\include\vector

; 2024 :     _CONSTEXPR20 void _Buy_raw(size_type _Newcapacity) {

  00006	57		 push	 edi
  00007	8b f9		 mov	 edi, ecx
; File C:\Program Files\Microsoft Visual Studio\2022\Professional\VC\Tools\MSVC\14.44.35207\include\xmemory

; 117  :         if (_Count > _Max_possible) {

  00009	3d aa aa aa 0a	 cmp	 eax, 178956970		; 0aaaaaaaH
  0000e	77 56		 ja	 SHORT $LN25@Buy_raw
  00010	56		 push	 esi

; 119  :         }
; 120  :     }
; 121  : 
; 122  :     return _Count * _Ty_size;

  00011	8d 34 40	 lea	 esi, DWORD PTR [eax+eax*2]
  00014	c1 e6 03	 shl	 esi, 3

; 227  :     if (_Bytes == 0) {

  00017	85 f6		 test	 esi, esi
  00019	75 12		 jne	 SHORT $LN12@Buy_raw

; 228  :         return nullptr;

  0001b	33 c0		 xor	 eax, eax
; File C:\Program Files\Microsoft Visual Studio\2022\Professional\VC\Tools\MSVC\14.44.35207\include\vector

; 2035 :         _Myfirst              = _Newvec;

  0001d	89 07		 mov	 DWORD PTR [edi], eax

; 2036 :         _Mylast               = _Newvec;

  0001f	89 47 04	 mov	 DWORD PTR [edi+4], eax

; 2037 :         _Myend                = _Newvec + _Newcapacity;

  00022	8b c6		 mov	 eax, esi
  00024	89 47 08	 mov	 DWORD PTR [edi+8], eax
  00027	5e		 pop	 esi

; 2038 :     }

  00028	5f		 pop	 edi
  00029	5d		 pop	 ebp
  0002a	c2 04 00	 ret	 4
$LN12@Buy_raw:
; File C:\Program Files\Microsoft Visual Studio\2022\Professional\VC\Tools\MSVC\14.44.35207\include\xmemory

; 251  :         if (_Bytes >= _Big_allocation_threshold) {

  0002d	56		 push	 esi
  0002e	81 fe 00 10 00
	00		 cmp	 esi, 4096		; 00001000H
  00034	72 18		 jb	 SHORT $LN13@Buy_raw

; 252  :             // boost the alignment of big allocations to help autovectorization
; 253  :             return _Allocate_manually_vector_aligned<_Traits>(_Bytes);

  00036	e8 00 00 00 00	 call	 ??$_Allocate_manually_vector_aligned@U_Default_allocate_traits@std@@@std@@YAPAXI@Z ; std::_Allocate_manually_vector_aligned<std::_Default_allocate_traits>
; File C:\Program Files\Microsoft Visual Studio\2022\Professional\VC\Tools\MSVC\14.44.35207\include\vector

; 2035 :         _Myfirst              = _Newvec;

  0003b	83 c4 04	 add	 esp, 4
  0003e	89 07		 mov	 DWORD PTR [edi], eax

; 2036 :         _Mylast               = _Newvec;

  00040	89 47 04	 mov	 DWORD PTR [edi+4], eax

; 2037 :         _Myend                = _Newvec + _Newcapacity;

  00043	03 c6		 add	 eax, esi
  00045	89 47 08	 mov	 DWORD PTR [edi+8], eax
  00048	5e		 pop	 esi

; 2038 :     }

  00049	5f		 pop	 edi
  0004a	5d		 pop	 ebp
  0004b	c2 04 00	 ret	 4
$LN13@Buy_raw:
; File C:\Program Files\Microsoft Visual Studio\2022\Professional\VC\Tools\MSVC\14.44.35207\include\xmemory

; 136  :         return ::operator new(_Bytes);

  0004e	e8 00 00 00 00	 call	 ??2@YAPAXI@Z		; operator new
; File C:\Program Files\Microsoft Visual Studio\2022\Professional\VC\Tools\MSVC\14.44.35207\include\vector

; 2035 :         _Myfirst              = _Newvec;

  00053	83 c4 04	 add	 esp, 4
  00056	89 07		 mov	 DWORD PTR [edi], eax

; 2036 :         _Mylast               = _Newvec;

  00058	89 47 04	 mov	 DWORD PTR [edi+4], eax

; 2037 :         _Myend                = _Newvec + _Newcapacity;

  0005b	03 c6		 add	 eax, esi
  0005d	89 47 08	 mov	 DWORD PTR [edi+8], eax
  00060	5e		 pop	 esi

; 2038 :     }

  00061	5f		 pop	 edi
  00062	5d		 pop	 ebp
  00063	c2 04 00	 ret	 4
$LN25@Buy_raw:
; File C:\Program Files\Microsoft Visual Studio\2022\Professional\VC\Tools\MSVC\14.44.35207\include\xmemory

; 118  :             _Throw_bad_array_new_length(); // multiply overflow

  00066	e8 00 00 00 00	 call	 ?_Throw_bad_array_new_length@std@@YAXXZ ; std::_Throw_bad_array_new_length
$LN22@Buy_raw:
  0006b	cc		 int	 3
?_Buy_raw@?$vector@V?$basic_string@DU?$char_traits@D@std@@V?$allocator@D@2@@std@@V?$allocator@V?$basic_string@DU?$char_traits@D@std@@V?$allocator@D@2@@std@@@2@@std@@AAEXI@Z ENDP ; std::vector<std::basic_string<char,std::char_traits<char>,std::allocator<char> >,std::allocator<std::basic_string<char,std::char_traits<char>,std::allocator<char> > > >::_Buy_raw
_TEXT	ENDS
; Function compile flags: /Ogtp
; File C:\IAGOS\server\v18\Source\Source\_Network\Misc\Include\ar.h
;	COMDAT ??$?5H@CAr@@QAEAAV0@AAH@Z
_TEXT	SEGMENT
_t$ = 8							; size = 4
??$?5H@CAr@@QAEAAV0@AAH@Z PROC				; CAr::operator>><int>, COMDAT
; _this$ = ecx

; 302  : {

  00000	55		 push	 ebp
  00001	8b ec		 mov	 ebp, esp
  00003	8b d1		 mov	 edx, ecx

; 303  : 	if (m_lpBufCur + sizeof(T) <= m_lpBufMax)

  00005	8b 4a 08	 mov	 ecx, DWORD PTR [edx+8]
  00008	8d 41 04	 lea	 eax, DWORD PTR [ecx+4]
  0000b	3b 42 0c	 cmp	 eax, DWORD PTR [edx+12]
  0000e	8b 45 08	 mov	 eax, DWORD PTR _t$[ebp]
  00011	77 0e		 ja	 SHORT $LN2@operator

; 304  : 	{
; 305  : 		t = *(UNALIGNED T*)m_lpBufCur;

  00013	8b 09		 mov	 ecx, DWORD PTR [ecx]
  00015	89 08		 mov	 DWORD PTR [eax], ecx

; 312  : 	}
; 313  : 	return *this;
; 314  : }

  00017	8b c2		 mov	 eax, edx
  00019	83 42 08 04	 add	 DWORD PTR [edx+8], 4
  0001d	5d		 pop	 ebp
  0001e	c2 04 00	 ret	 4
$LN2@operator:

; 306  : 		m_lpBufCur += sizeof(T);
; 307  : 	}
; 308  : 	else
; 309  : 	{
; 310  : 		t = T();

  00021	c7 00 00 00 00
	00		 mov	 DWORD PTR [eax], 0

; 311  : 		m_lpBufCur = m_lpBufMax;

  00027	8b 42 0c	 mov	 eax, DWORD PTR [edx+12]
  0002a	89 42 08	 mov	 DWORD PTR [edx+8], eax

; 312  : 	}
; 313  : 	return *this;
; 314  : }

  0002d	8b c2		 mov	 eax, edx
  0002f	5d		 pop	 ebp
  00030	c2 04 00	 ret	 4
??$?5H@CAr@@QAEAAV0@AAH@Z ENDP				; CAr::operator>><int>
_TEXT	ENDS
; Function compile flags: /Ogtp
; File C:\IAGOS\server\v18\Source\Source\_Network\Misc\Include\ar.h
;	COMDAT ??$?5G@CAr@@QAEAAV0@AAG@Z
_TEXT	SEGMENT
_t$ = 8							; size = 4
??$?5G@CAr@@QAEAAV0@AAG@Z PROC				; CAr::operator>><unsigned short>, COMDAT
; _this$ = ecx

; 302  : {

  00000	55		 push	 ebp
  00001	8b ec		 mov	 ebp, esp
  00003	8b d1		 mov	 edx, ecx

; 303  : 	if (m_lpBufCur + sizeof(T) <= m_lpBufMax)

  00005	8b 4a 08	 mov	 ecx, DWORD PTR [edx+8]
  00008	8d 41 02	 lea	 eax, DWORD PTR [ecx+2]
  0000b	3b 42 0c	 cmp	 eax, DWORD PTR [edx+12]
  0000e	8b 45 08	 mov	 eax, DWORD PTR _t$[ebp]
  00011	77 10		 ja	 SHORT $LN2@operator

; 304  : 	{
; 305  : 		t = *(UNALIGNED T*)m_lpBufCur;

  00013	66 8b 09	 mov	 cx, WORD PTR [ecx]
  00016	66 89 08	 mov	 WORD PTR [eax], cx

; 312  : 	}
; 313  : 	return *this;
; 314  : }

  00019	8b c2		 mov	 eax, edx
  0001b	83 42 08 02	 add	 DWORD PTR [edx+8], 2
  0001f	5d		 pop	 ebp
  00020	c2 04 00	 ret	 4
$LN2@operator:

; 306  : 		m_lpBufCur += sizeof(T);
; 307  : 	}
; 308  : 	else
; 309  : 	{
; 310  : 		t = T();

  00023	33 c9		 xor	 ecx, ecx
  00025	66 89 08	 mov	 WORD PTR [eax], cx

; 311  : 		m_lpBufCur = m_lpBufMax;

  00028	8b 42 0c	 mov	 eax, DWORD PTR [edx+12]
  0002b	89 42 08	 mov	 DWORD PTR [edx+8], eax

; 312  : 	}
; 313  : 	return *this;
; 314  : }

  0002e	8b c2		 mov	 eax, edx
  00030	5d		 pop	 ebp
  00031	c2 04 00	 ret	 4
??$?5G@CAr@@QAEAAV0@AAG@Z ENDP				; CAr::operator>><unsigned short>
_TEXT	ENDS
; Function compile flags: /Ogtp
; File C:\IAGOS\server\v18\Source\Source\_Network\Misc\Include\ar.h
;	COMDAT ??$?6H@CAr@@QAEAAV0@ABH@Z
_TEXT	SEGMENT
_t$ = 8							; size = 4
??$?6H@CAr@@QAEAAV0@ABH@Z PROC				; CAr::operator<<<int>, COMDAT
; _this$ = ecx

; 255  : {

  00000	55		 push	 ebp
  00001	8b ec		 mov	 ebp, esp
  00003	56		 push	 esi

; 256  : 	CheckBuf(sizeof(T));

  00004	6a 04		 push	 4
  00006	8b f1		 mov	 esi, ecx
  00008	e8 00 00 00 00	 call	 ?CheckBuf@CAr@@QAEXI@Z	; CAr::CheckBuf

; 257  : 	*(UNALIGNED T*)m_lpBufCur = t;

  0000d	8b 56 08	 mov	 edx, DWORD PTR [esi+8]
  00010	8b 45 08	 mov	 eax, DWORD PTR _t$[ebp]
  00013	8b 00		 mov	 eax, DWORD PTR [eax]
  00015	89 02		 mov	 DWORD PTR [edx], eax

; 258  : 	m_lpBufCur += sizeof(T);
; 259  : 	return *this;

  00017	8b c6		 mov	 eax, esi
  00019	83 46 08 04	 add	 DWORD PTR [esi+8], 4
  0001d	5e		 pop	 esi

; 260  : }

  0001e	5d		 pop	 ebp
  0001f	c2 04 00	 ret	 4
??$?6H@CAr@@QAEAAV0@ABH@Z ENDP				; CAr::operator<<<int>
_TEXT	ENDS
; Function compile flags: /Ogtp
; File C:\IAGOS\server\v18\Source\Source\_Network\Misc\Include\ar.h
;	COMDAT ??$?6G@CAr@@QAEAAV0@ABG@Z
_TEXT	SEGMENT
_t$ = 8							; size = 4
??$?6G@CAr@@QAEAAV0@ABG@Z PROC				; CAr::operator<<<unsigned short>, COMDAT
; _this$ = ecx

; 255  : {

  00000	55		 push	 ebp
  00001	8b ec		 mov	 ebp, esp
  00003	56		 push	 esi

; 256  : 	CheckBuf(sizeof(T));

  00004	6a 02		 push	 2
  00006	8b f1		 mov	 esi, ecx
  00008	e8 00 00 00 00	 call	 ?CheckBuf@CAr@@QAEXI@Z	; CAr::CheckBuf

; 257  : 	*(UNALIGNED T*)m_lpBufCur = t;

  0000d	8b 45 08	 mov	 eax, DWORD PTR _t$[ebp]
  00010	8b 56 08	 mov	 edx, DWORD PTR [esi+8]
  00013	66 8b 00	 mov	 ax, WORD PTR [eax]
  00016	66 89 02	 mov	 WORD PTR [edx], ax

; 258  : 	m_lpBufCur += sizeof(T);
; 259  : 	return *this;

  00019	8b c6		 mov	 eax, esi
  0001b	83 46 08 02	 add	 DWORD PTR [esi+8], 2
  0001f	5e		 pop	 esi

; 260  : }

  00020	5d		 pop	 ebp
  00021	c2 04 00	 ret	 4
??$?6G@CAr@@QAEAAV0@ABG@Z ENDP				; CAr::operator<<<unsigned short>
_TEXT	ENDS
; Function compile flags: /Ogtp
; File C:\IAGOS\server\v18\Source\Source\_Common\minigamebase.h
; File C:\IAGOS\server\v18\Source\Source\_Network\Misc\Include\ar.h
; File C:\IAGOS\server\v18\Source\Source\_Common\minigamebase.h
; File C:\IAGOS\server\v18\Source\Source\_Network\Misc\Include\ar.h
; File C:\IAGOS\server\v18\Source\Source\_Common\minigamebase.h
;	COMDAT ?Serialize@__MINIGAME_PACKET@@UAEXAAVCAr@@@Z
_TEXT	SEGMENT
_ar$ = 8						; size = 4
?Serialize@__MINIGAME_PACKET@@UAEXAAVCAr@@@Z PROC	; __MINIGAME_PACKET::Serialize, COMDAT
; _this$ = ecx

; 16   : 	{

  00000	55		 push	 ebp
  00001	8b ec		 mov	 ebp, esp
  00003	56		 push	 esi
  00004	57		 push	 edi
; File C:\IAGOS\server\v18\Source\Source\_Network\Misc\Include\ar.h

; 146  : 	return (m_nMode & CAr::load) == 0;

  00005	8d 41 10	 lea	 eax, DWORD PTR [ecx+16]
  00008	8d 51 0c	 lea	 edx, DWORD PTR [ecx+12]
  0000b	8d 71 08	 lea	 esi, DWORD PTR [ecx+8]
  0000e	8d 79 04	 lea	 edi, DWORD PTR [ecx+4]
  00011	8b 4d 08	 mov	 ecx, DWORD PTR _ar$[ebp]
; File C:\IAGOS\server\v18\Source\Source\_Common\minigamebase.h

; 17   : 		if( ar.IsStoring() )

  00014	50		 push	 eax
  00015	52		 push	 edx
  00016	56		 push	 esi
; File C:\IAGOS\server\v18\Source\Source\_Network\Misc\Include\ar.h

; 146  : 	return (m_nMode & CAr::load) == 0;

  00017	f6 01 01	 test	 BYTE PTR [ecx], 1
; File C:\IAGOS\server\v18\Source\Source\_Common\minigamebase.h

; 17   : 		if( ar.IsStoring() )

  0001a	57		 push	 edi
  0001b	75 20		 jne	 SHORT $LN2@Serialize

; 18   : 			ar << wNowGame << nState << nParam1 << nParam2;

  0001d	e8 00 00 00 00	 call	 ??$?6G@CAr@@QAEAAV0@ABG@Z ; CAr::operator<<<unsigned short>
  00022	8b c8		 mov	 ecx, eax
  00024	e8 00 00 00 00	 call	 ??$?6H@CAr@@QAEAAV0@ABH@Z ; CAr::operator<<<int>
  00029	8b c8		 mov	 ecx, eax
  0002b	e8 00 00 00 00	 call	 ??$?6H@CAr@@QAEAAV0@ABH@Z ; CAr::operator<<<int>
  00030	8b c8		 mov	 ecx, eax
  00032	e8 00 00 00 00	 call	 ??$?6H@CAr@@QAEAAV0@ABH@Z ; CAr::operator<<<int>
  00037	5f		 pop	 edi

; 21   : 	}

  00038	5e		 pop	 esi
  00039	5d		 pop	 ebp
  0003a	c2 04 00	 ret	 4
$LN2@Serialize:

; 19   : 		else
; 20   : 			ar >> wNowGame >> nState >> nParam1 >> nParam2;

  0003d	e8 00 00 00 00	 call	 ??$?5G@CAr@@QAEAAV0@AAG@Z ; CAr::operator>><unsigned short>
  00042	8b c8		 mov	 ecx, eax
  00044	e8 00 00 00 00	 call	 ??$?5H@CAr@@QAEAAV0@AAH@Z ; CAr::operator>><int>
  00049	8b c8		 mov	 ecx, eax
  0004b	e8 00 00 00 00	 call	 ??$?5H@CAr@@QAEAAV0@AAH@Z ; CAr::operator>><int>
  00050	8b c8		 mov	 ecx, eax
  00052	e8 00 00 00 00	 call	 ??$?5H@CAr@@QAEAAV0@AAH@Z ; CAr::operator>><int>
  00057	5f		 pop	 edi

; 21   : 	}

  00058	5e		 pop	 esi
  00059	5d		 pop	 ebp
  0005a	c2 04 00	 ret	 4
?Serialize@__MINIGAME_PACKET@@UAEXAAVCAr@@@Z ENDP	; __MINIGAME_PACKET::Serialize
_TEXT	ENDS
; Function compile flags: /Ogtp
; File C:\Program Files\Microsoft Visual Studio\2022\Professional\VC\Tools\MSVC\14.44.35207\include\xmemory
;	COMDAT ??$_Allocate_manually_vector_aligned@U_Default_allocate_traits@std@@@std@@YAPAXI@Z
_TEXT	SEGMENT
__Bytes$ = 8						; size = 4
??$_Allocate_manually_vector_aligned@U_Default_allocate_traits@std@@@std@@YAPAXI@Z PROC ; std::_Allocate_manually_vector_aligned<std::_Default_allocate_traits>, COMDAT

; 182  : __declspec(allocator) void* _Allocate_manually_vector_aligned(const size_t _Bytes) {

  00000	55		 push	 ebp
  00001	8b ec		 mov	 ebp, esp

; 183  :     // allocate _Bytes manually aligned to at least _Big_allocation_alignment
; 184  :     const size_t _Block_size = _Non_user_size + _Bytes;

  00003	8b 45 08	 mov	 eax, DWORD PTR __Bytes$[ebp]
  00006	8d 48 23	 lea	 ecx, DWORD PTR [eax+35]

; 185  :     if (_Block_size <= _Bytes) {

  00009	3b c8		 cmp	 ecx, eax
  0000b	0f 86 00 00 00
	00		 jbe	 ?_Throw_bad_array_new_length@std@@YAXXZ ; std::_Throw_bad_array_new_length

; 136  :         return ::operator new(_Bytes);

  00011	51		 push	 ecx
  00012	e8 00 00 00 00	 call	 ??2@YAPAXI@Z		; operator new

; 186  :         _Throw_bad_array_new_length(); // add overflow
; 187  :     }
; 188  : 
; 189  :     const uintptr_t _Ptr_container = reinterpret_cast<uintptr_t>(_Traits::_Allocate(_Block_size));

  00017	8b c8		 mov	 ecx, eax

; 136  :         return ::operator new(_Bytes);

  00019	83 c4 04	 add	 esp, 4

; 190  :     _STL_VERIFY(_Ptr_container != 0, "invalid argument"); // validate even in release since we're doing p[-1]

  0001c	85 c9		 test	 ecx, ecx
  0001e	74 0b		 je	 SHORT $LN9@Allocate_m

; 191  :     void* const _Ptr = reinterpret_cast<void*>((_Ptr_container + _Non_user_size) & ~(_Big_allocation_alignment - 1));

  00020	8d 41 23	 lea	 eax, DWORD PTR [ecx+35]
  00023	83 e0 e0	 and	 eax, -32		; ffffffe0H

; 192  :     static_cast<uintptr_t*>(_Ptr)[-1] = _Ptr_container;

  00026	89 48 fc	 mov	 DWORD PTR [eax-4], ecx

; 193  : 
; 194  : #ifdef _DEBUG
; 195  :     static_cast<uintptr_t*>(_Ptr)[-2] = _Big_allocation_sentinel;
; 196  : #endif // defined(_DEBUG)
; 197  :     return _Ptr;
; 198  : }

  00029	5d		 pop	 ebp
  0002a	c3		 ret	 0
$LN9@Allocate_m:

; 190  :     _STL_VERIFY(_Ptr_container != 0, "invalid argument"); // validate even in release since we're doing p[-1]

  0002b	6a 00		 push	 0
  0002d	6a 00		 push	 0
  0002f	6a 00		 push	 0
  00031	6a 00		 push	 0
  00033	6a 00		 push	 0
  00035	e8 00 00 00 00	 call	 __invoke_watson
$LN7@Allocate_m:
  0003a	cc		 int	 3
??$_Allocate_manually_vector_aligned@U_Default_allocate_traits@std@@@std@@YAPAXI@Z ENDP ; std::_Allocate_manually_vector_aligned<std::_Default_allocate_traits>
_TEXT	ENDS
; Function compile flags: /Ogtp
; File C:\Program Files\Microsoft Visual Studio\2022\Professional\VC\Tools\MSVC\14.44.35207\include\xmemory
;	COMDAT ?deallocate@?$allocator@V?$basic_string@DU?$char_traits@D@std@@V?$allocator@D@2@@std@@@std@@QAEXQAV?$basic_string@DU?$char_traits@D@std@@V?$allocator@D@2@@2@I@Z
_TEXT	SEGMENT
__Ptr$ = 8						; size = 4
__Count$ = 12						; size = 4
?deallocate@?$allocator@V?$basic_string@DU?$char_traits@D@std@@V?$allocator@D@2@@std@@@std@@QAEXQAV?$basic_string@DU?$char_traits@D@std@@V?$allocator@D@2@@2@I@Z PROC ; std::allocator<std::basic_string<char,std::char_traits<char>,std::allocator<char> > >::deallocate, COMDAT
; _this$ = ecx

; 982  :     _CONSTEXPR20 void deallocate(_Ty* const _Ptr, const size_t _Count) noexcept /* strengthened */ {

  00000	55		 push	 ebp
  00001	8b ec		 mov	 ebp, esp

; 983  :         _STL_ASSERT(_Ptr != nullptr || _Count == 0, "null pointer cannot point to a block of non-zero size");
; 984  :         // no overflow check on the following multiply; we assume _Allocate did that check
; 985  :         _STD _Deallocate<_New_alignof<_Ty>>(_Ptr, sizeof(_Ty) * _Count);

  00003	8b 45 0c	 mov	 eax, DWORD PTR __Count$[ebp]
  00006	8d 0c 40	 lea	 ecx, DWORD PTR [eax+eax*2]
  00009	8b 45 08	 mov	 eax, DWORD PTR __Ptr$[ebp]
  0000c	c1 e1 03	 shl	 ecx, 3

; 284  :         if (_Bytes >= _Big_allocation_threshold) {

  0000f	81 f9 00 10 00
	00		 cmp	 ecx, 4096		; 00001000H
  00015	72 12		 jb	 SHORT $LN11@deallocate

; 205  :     const uintptr_t _Ptr_container   = _Ptr_user[-1];

  00017	8b 50 fc	 mov	 edx, DWORD PTR [eax-4]
  0001a	83 c1 23	 add	 ecx, 35			; 00000023H

; 206  : 
; 207  :     // If the following asserts, it likely means that we are performing
; 208  :     // an aligned delete on memory coming from an unaligned allocation.
; 209  :     _STL_ASSERT(_Ptr_user[-2] == _Big_allocation_sentinel, "invalid argument");
; 210  : 
; 211  :     // Extra paranoia on aligned allocation/deallocation; ensure _Ptr_container is
; 212  :     // in range [_Min_back_shift, _Non_user_size]
; 213  : #ifdef _DEBUG
; 214  :     constexpr uintptr_t _Min_back_shift = 2 * sizeof(void*);
; 215  : #else // ^^^ defined(_DEBUG) / !defined(_DEBUG) vvv
; 216  :     constexpr uintptr_t _Min_back_shift = sizeof(void*);
; 217  : #endif // ^^^ !defined(_DEBUG) ^^^
; 218  :     const uintptr_t _Back_shift = reinterpret_cast<uintptr_t>(_Ptr) - _Ptr_container;

  0001d	2b c2		 sub	 eax, edx

; 219  :     _STL_VERIFY(_Back_shift >= _Min_back_shift && _Back_shift <= _Non_user_size, "invalid argument");

  0001f	83 c0 fc	 add	 eax, -4			; fffffffcH
  00022	83 f8 1f	 cmp	 eax, 31			; 0000001fH
  00025	77 10		 ja	 SHORT $LN10@deallocate

; 220  :     _Ptr = reinterpret_cast<void*>(_Ptr_container);

  00027	8b c2		 mov	 eax, edx
$LN11@deallocate:

; 289  :         ::operator delete(_Ptr, _Bytes);

  00029	51		 push	 ecx
  0002a	50		 push	 eax
  0002b	e8 00 00 00 00	 call	 ??3@YAXPAXI@Z		; operator delete
  00030	83 c4 08	 add	 esp, 8

; 986  :     }

  00033	5d		 pop	 ebp
  00034	c2 08 00	 ret	 8
$LN10@deallocate:

; 219  :     _STL_VERIFY(_Back_shift >= _Min_back_shift && _Back_shift <= _Non_user_size, "invalid argument");

  00037	6a 00		 push	 0
  00039	6a 00		 push	 0
  0003b	6a 00		 push	 0
  0003d	6a 00		 push	 0
  0003f	6a 00		 push	 0
  00041	e8 00 00 00 00	 call	 __invoke_watson
$LN14@deallocate:
  00046	cc		 int	 3
?deallocate@?$allocator@V?$basic_string@DU?$char_traits@D@std@@V?$allocator@D@2@@std@@@std@@QAEXQAV?$basic_string@DU?$char_traits@D@std@@V?$allocator@D@2@@2@I@Z ENDP ; std::allocator<std::basic_string<char,std::char_traits<char>,std::allocator<char> > >::deallocate
_TEXT	ENDS
; Function compile flags: /Ogtp
; File C:\Program Files\Microsoft Visual Studio\2022\Professional\VC\Tools\MSVC\14.44.35207\include\xstring
; File C:\Program Files\Microsoft Visual Studio\2022\Professional\VC\Tools\MSVC\14.44.35207\include\__msvc_string_view.hpp
; File C:\Program Files\Microsoft Visual Studio\2022\Professional\VC\Tools\MSVC\14.44.35207\include\xstring
; File C:\Program Files\Microsoft Visual Studio\2022\Professional\VC\Tools\MSVC\14.44.35207\include\__msvc_string_view.hpp
; File C:\Program Files\Microsoft Visual Studio\2022\Professional\VC\Tools\MSVC\14.44.35207\include\xstring
; File C:\Program Files\Microsoft Visual Studio\2022\Professional\VC\Tools\MSVC\14.44.35207\include\xmemory
; File C:\Program Files\Microsoft Visual Studio\2022\Professional\VC\Tools\MSVC\14.44.35207\include\xstring
; File C:\Program Files\Microsoft Visual Studio\2022\Professional\VC\Tools\MSVC\14.44.35207\include\xmemory
; File C:\Program Files\Microsoft Visual Studio\2022\Professional\VC\Tools\MSVC\14.44.35207\include\xstring
; File C:\Program Files\Microsoft Visual Studio\2022\Professional\VC\Tools\MSVC\14.44.35207\include\xmemory
; File C:\Program Files\Microsoft Visual Studio\2022\Professional\VC\Tools\MSVC\14.44.35207\include\xstring
; File C:\Program Files\Microsoft Visual Studio\2022\Professional\VC\Tools\MSVC\14.44.35207\include\__msvc_string_view.hpp
; File C:\Program Files\Microsoft Visual Studio\2022\Professional\VC\Tools\MSVC\14.44.35207\include\xstring
; File C:\Program Files\Microsoft Visual Studio\2022\Professional\VC\Tools\MSVC\14.44.35207\include\__msvc_string_view.hpp
; File C:\Program Files\Microsoft Visual Studio\2022\Professional\VC\Tools\MSVC\14.44.35207\include\xstring
; File C:\Program Files\Microsoft Visual Studio\2022\Professional\VC\Tools\MSVC\14.44.35207\include\__msvc_string_view.hpp
; File C:\Program Files\Microsoft Visual Studio\2022\Professional\VC\Tools\MSVC\14.44.35207\include\xstring
; File C:\Program Files\Microsoft Visual Studio\2022\Professional\VC\Tools\MSVC\14.44.35207\include\__msvc_string_view.hpp
; File C:\Program Files\Microsoft Visual Studio\2022\Professional\VC\Tools\MSVC\14.44.35207\include\xstring
; File C:\Program Files\Microsoft Visual Studio\2022\Professional\VC\Tools\MSVC\14.44.35207\include\xmemory
; File C:\Program Files\Microsoft Visual Studio\2022\Professional\VC\Tools\MSVC\14.44.35207\include\xstring
; File C:\Program Files\Microsoft Visual Studio\2022\Professional\VC\Tools\MSVC\14.44.35207\include\xmemory
; File C:\Program Files\Microsoft Visual Studio\2022\Professional\VC\Tools\MSVC\14.44.35207\include\xstring
;	COMDAT ??4?$basic_string@DU?$char_traits@D@std@@V?$allocator@D@2@@std@@QAEAAV01@ABV01@@Z
_TEXT	SEGMENT
__Old$1$ = -8						; size = 4
__Result$1$ = -4					; size = 4
__Right$ = 8						; size = 4
$T1 = 8							; size = 4
??4?$basic_string@DU?$char_traits@D@std@@V?$allocator@D@2@@std@@QAEAAV01@ABV01@@Z PROC ; std::basic_string<char,std::char_traits<char>,std::allocator<char> >::operator=, COMDAT
; _this$ = ecx

; 1394 :     _CONSTEXPR20 basic_string& operator=(const basic_string& _Right) {

  00000	55		 push	 ebp
  00001	8b ec		 mov	 ebp, esp
  00003	83 ec 08	 sub	 esp, 8
  00006	56		 push	 esi
  00007	57		 push	 edi

; 1395 :         if (this == _STD addressof(_Right)) {

  00008	8b 7d 08	 mov	 edi, DWORD PTR __Right$[ebp]
  0000b	8b f1		 mov	 esi, ecx
  0000d	3b f7		 cmp	 esi, edi
  0000f	0f 84 07 01 00
	00		 je	 $LN27@operator

; 453  :         return _Myres > _Small_string_capacity;

  00015	83 7f 14 0f	 cmp	 DWORD PTR [edi+20], 15	; 0000000fH

; 444  :         const value_type* _Result = _Bx._Buf;

  00019	8b c7		 mov	 eax, edi
  0001b	89 7d fc	 mov	 DWORD PTR __Result$1$[ebp], edi

; 445  :         if (_Large_mode_engaged()) {

  0001e	76 05		 jbe	 SHORT $LN5@operator

; 446  :             _Result = _Unfancy(_Bx._Ptr);

  00020	8b 07		 mov	 eax, DWORD PTR [edi]
  00022	89 45 fc	 mov	 DWORD PTR __Result$1$[ebp], eax
$LN5@operator:

; 1618 :         if (_Count <= _Mypair._Myval2._Myres) {

  00025	8b 4e 14	 mov	 ecx, DWORD PTR [esi+20]

; 1396 :             return *this;
; 1397 :         }
; 1398 : 
; 1399 :         auto& _Al             = _Getal();
; 1400 :         const auto& _Right_al = _Right._Getal();
; 1401 :         if constexpr (_Choose_pocca_v<_Alty>) {
; 1402 :             if (_Al != _Right_al) {
; 1403 :                 auto&& _Alproxy       = _GET_PROXY_ALLOCATOR(_Alty, _Al);
; 1404 :                 auto&& _Right_alproxy = _GET_PROXY_ALLOCATOR(_Alty, _Right_al);
; 1405 :                 _Container_proxy_ptr<_Alty> _New_proxy(_Right_alproxy, _Leave_proxy_unbound{}); // throws
; 1406 : 
; 1407 :                 const size_type _Right_size   = _Right._Mypair._Myval2._Mysize;
; 1408 :                 const _Elem* const _Right_ptr = _Right._Mypair._Myval2._Myptr();
; 1409 :                 if (_Right_size > _Small_string_capacity) {
; 1410 :                     size_type _New_capacity = _Calculate_growth(_Right_size, _Small_string_capacity, _Right.max_size());
; 1411 :                     auto _Right_al_non_const = _Right_al;
; 1412 :                     const pointer _New_ptr   = _Allocate_for_capacity(_Right_al_non_const, _New_capacity); // throws
; 1413 :                     _Traits::copy(_Unfancy(_New_ptr), _Right_ptr, _Right_size + 1);
; 1414 : 
; 1415 :                     _Tidy_deallocate();
; 1416 :                     _Construct_in_place(_Mypair._Myval2._Bx._Ptr, _New_ptr);
; 1417 :                     _Mypair._Myval2._Mysize = _Right_size;
; 1418 :                     _Mypair._Myval2._Myres  = _New_capacity;
; 1419 :                     _ASAN_STRING_CREATE(*this);
; 1420 :                 } else {
; 1421 :                     _Tidy_deallocate();
; 1422 :                     _Traits::copy(_Mypair._Myval2._Bx._Buf, _Right_ptr, _Right_size + 1);
; 1423 :                     _Mypair._Myval2._Mysize = _Right_size;
; 1424 :                     _Mypair._Myval2._Myres  = _Small_string_capacity;
; 1425 :                 }
; 1426 : 
; 1427 :                 _Pocca(_Al, _Right_al);
; 1428 :                 _New_proxy._Bind(_Alproxy, _STD addressof(_Mypair._Myval2));
; 1429 :                 return *this;
; 1430 :             }
; 1431 :         }
; 1432 : 
; 1433 :         _Pocca(_Al, _Right_al);
; 1434 :         assign(_Right._Mypair._Myval2._Myptr(), _Right._Mypair._Myval2._Mysize);

  00028	8b 7f 10	 mov	 edi, DWORD PTR [edi+16]

; 1618 :         if (_Count <= _Mypair._Myval2._Myres) {

  0002b	89 4d f8	 mov	 DWORD PTR __Old$1$[ebp], ecx
  0002e	53		 push	 ebx
  0002f	3b f9		 cmp	 edi, ecx
  00031	77 26		 ja	 SHORT $LN12@operator

; 435  :         value_type* _Result = _Bx._Buf;

  00033	8b de		 mov	 ebx, esi

; 453  :         return _Myres > _Small_string_capacity;

  00035	83 f9 0f	 cmp	 ecx, 15			; 0000000fH

; 436  :         if (_Large_mode_engaged()) {

  00038	76 02		 jbe	 SHORT $LN15@operator

; 437  :             _Result = _Unfancy(_Bx._Ptr);

  0003a	8b 1e		 mov	 ebx, DWORD PTR [esi]
$LN15@operator:
; File C:\Program Files\Microsoft Visual Studio\2022\Professional\VC\Tools\MSVC\14.44.35207\include\__msvc_string_view.hpp

; 174  :         _CSTD memmove(_First1, _First2, _Count * sizeof(_Elem));

  0003c	57		 push	 edi
  0003d	50		 push	 eax
  0003e	53		 push	 ebx
; File C:\Program Files\Microsoft Visual Studio\2022\Professional\VC\Tools\MSVC\14.44.35207\include\xstring

; 1621 :             _Mypair._Myval2._Mysize = _Count;

  0003f	89 7e 10	 mov	 DWORD PTR [esi+16], edi
; File C:\Program Files\Microsoft Visual Studio\2022\Professional\VC\Tools\MSVC\14.44.35207\include\__msvc_string_view.hpp

; 174  :         _CSTD memmove(_First1, _First2, _Count * sizeof(_Elem));

  00042	e8 00 00 00 00	 call	 _memmove
  00047	83 c4 0c	 add	 esp, 12			; 0000000cH
; File C:\Program Files\Microsoft Visual Studio\2022\Professional\VC\Tools\MSVC\14.44.35207\include\xstring

; 1623 :             _Traits::assign(_Old_ptr[_Count], _Elem());

  0004a	c6 04 3b 00	 mov	 BYTE PTR [ebx+edi], 0

; 1435 :         return *this;

  0004e	8b c6		 mov	 eax, esi
  00050	5b		 pop	 ebx

; 1436 :     }

  00051	5f		 pop	 edi
  00052	5e		 pop	 esi
  00053	8b e5		 mov	 esp, ebp
  00055	5d		 pop	 ebp
  00056	c2 04 00	 ret	 4
$LN12@operator:

; 2998 :         if (_New_size > max_size()) {

  00059	81 ff ff ff ff
	7f		 cmp	 edi, 2147483647		; 7fffffffH
  0005f	0f 87 d0 00 00
	00		 ja	 $LN95@operator

; 2978 :         const size_type _Masked = _Requested | _Alloc_mask;

  00065	8b df		 mov	 ebx, edi
  00067	83 cb 0f	 or	 ebx, 15			; 0000000fH
  0006a	81 fb ff ff ff
	7f		 cmp	 ebx, 2147483647		; 7fffffffH

; 2979 :         if (_Masked > _Max) { // the mask overflows, settle for max_size()

  00070	76 12		 jbe	 SHORT $LN33@operator

; 2980 :             return _Max;

  00072	b8 00 00 00 80	 mov	 eax, -2147483648	; 80000000H
  00077	bb ff ff ff 7f	 mov	 ebx, 2147483647		; 7fffffffH
; File C:\Program Files\Microsoft Visual Studio\2022\Professional\VC\Tools\MSVC\14.44.35207\include\xmemory

; 253  :             return _Allocate_manually_vector_aligned<_Traits>(_Bytes);

  0007c	50		 push	 eax
  0007d	e8 00 00 00 00	 call	 ??$_Allocate_manually_vector_aligned@U_Default_allocate_traits@std@@@std@@YAPAXI@Z ; std::_Allocate_manually_vector_aligned<std::_Default_allocate_traits>
  00082	eb 45		 jmp	 SHORT $LN93@operator
$LN33@operator:
; File C:\Program Files\Microsoft Visual Studio\2022\Professional\VC\Tools\MSVC\14.44.35207\include\xstring

; 2983 :         if (_Old > _Max - _Old / 2) { // similarly, geometric overflows

  00084	8b d1		 mov	 edx, ecx
  00086	b8 ff ff ff 7f	 mov	 eax, 2147483647		; 7fffffffH
  0008b	d1 ea		 shr	 edx, 1
  0008d	2b c2		 sub	 eax, edx
  0008f	3b c8		 cmp	 ecx, eax
  00091	76 12		 jbe	 SHORT $LN34@operator

; 2984 :             return _Max;

  00093	b8 00 00 00 80	 mov	 eax, -2147483648	; 80000000H
  00098	bb ff ff ff 7f	 mov	 ebx, 2147483647		; 7fffffffH
; File C:\Program Files\Microsoft Visual Studio\2022\Professional\VC\Tools\MSVC\14.44.35207\include\xmemory

; 253  :             return _Allocate_manually_vector_aligned<_Traits>(_Bytes);

  0009d	50		 push	 eax
  0009e	e8 00 00 00 00	 call	 ??$_Allocate_manually_vector_aligned@U_Default_allocate_traits@std@@@std@@YAPAXI@Z ; std::_Allocate_manually_vector_aligned<std::_Default_allocate_traits>
  000a3	eb 24		 jmp	 SHORT $LN93@operator
$LN34@operator:
; File C:\Program Files\Microsoft Visual Studio\2022\Professional\VC\Tools\MSVC\14.44.35207\include\xstring

; 2987 :         return (_STD max)(_Masked, _Old + _Old / 2);

  000a5	8d 04 0a	 lea	 eax, DWORD PTR [edx+ecx]
  000a8	3b d8		 cmp	 ebx, eax
  000aa	0f 42 d8	 cmovb	 ebx, eax

; 825  :         ++_Capacity; // Take null terminator into consideration

  000ad	8d 43 01	 lea	 eax, DWORD PTR [ebx+1]
; File C:\Program Files\Microsoft Visual Studio\2022\Professional\VC\Tools\MSVC\14.44.35207\include\xmemory

; 227  :     if (_Bytes == 0) {

  000b0	85 c0		 test	 eax, eax
  000b2	74 18		 je	 SHORT $LN92@operator
$LN47@operator:

; 228  :         return nullptr;
; 229  :     }
; 230  : 
; 231  : #if _HAS_CXX20 // TRANSITION, GH-1532
; 232  :     if (_STD is_constant_evaluated()) {
; 233  :         return _Traits::_Allocate(_Bytes);
; 234  :     }
; 235  : #endif // _HAS_CXX20
; 236  : 
; 237  : #ifdef __cpp_aligned_new
; 238  :     if constexpr (_Align > __STDCPP_DEFAULT_NEW_ALIGNMENT__) {
; 239  :         size_t _Passed_align = _Align;
; 240  : #if defined(_M_IX86) || defined(_M_X64)
; 241  :         if (_Bytes >= _Big_allocation_threshold) {
; 242  :             // boost the alignment of big allocations to help autovectorization
; 243  :             _Passed_align = (_STD max)(_Align, _Big_allocation_alignment);
; 244  :         }
; 245  : #endif // defined(_M_IX86) || defined(_M_X64)
; 246  :         return _Traits::_Allocate_aligned(_Bytes, _Passed_align);
; 247  :     } else
; 248  : #endif // defined(__cpp_aligned_new)
; 249  :     {
; 250  : #if defined(_M_IX86) || defined(_M_X64)
; 251  :         if (_Bytes >= _Big_allocation_threshold) {

  000b4	3d 00 10 00 00	 cmp	 eax, 4096		; 00001000H
  000b9	72 08		 jb	 SHORT $LN48@operator

; 253  :             return _Allocate_manually_vector_aligned<_Traits>(_Bytes);

  000bb	50		 push	 eax
  000bc	e8 00 00 00 00	 call	 ??$_Allocate_manually_vector_aligned@U_Default_allocate_traits@std@@@std@@YAPAXI@Z ; std::_Allocate_manually_vector_aligned<std::_Default_allocate_traits>
  000c1	eb 06		 jmp	 SHORT $LN93@operator
$LN48@operator:

; 136  :         return ::operator new(_Bytes);

  000c3	50		 push	 eax
  000c4	e8 00 00 00 00	 call	 ??2@YAPAXI@Z		; operator new
$LN93@operator:
; File C:\Program Files\Microsoft Visual Studio\2022\Professional\VC\Tools\MSVC\14.44.35207\include\xstring

; 3009 :         _Mypair._Myval2._Mysize = _New_size;

  000c9	83 c4 04	 add	 esp, 4
$LN92@operator:
; File C:\Program Files\Microsoft Visual Studio\2022\Professional\VC\Tools\MSVC\14.44.35207\include\__msvc_string_view.hpp

; 121  :         _CSTD memcpy(_First1, _First2, _Count * sizeof(_Elem));

  000cc	57		 push	 edi
  000cd	ff 75 fc	 push	 DWORD PTR __Result$1$[ebp]
; File C:\Program Files\Microsoft Visual Studio\2022\Professional\VC\Tools\MSVC\14.44.35207\include\xstring

; 3010 :         _Mypair._Myval2._Myres  = _New_capacity;

  000d0	89 5e 14	 mov	 DWORD PTR [esi+20], ebx
; File C:\Program Files\Microsoft Visual Studio\2022\Professional\VC\Tools\MSVC\14.44.35207\include\__msvc_string_view.hpp

; 121  :         _CSTD memcpy(_First1, _First2, _Count * sizeof(_Elem));

  000d3	8b d8		 mov	 ebx, eax
  000d5	53		 push	 ebx
; File C:\Program Files\Microsoft Visual Studio\2022\Professional\VC\Tools\MSVC\14.44.35207\include\xstring

; 3009 :         _Mypair._Myval2._Mysize = _New_size;

  000d6	89 45 08	 mov	 DWORD PTR $T1[ebp], eax
  000d9	89 7e 10	 mov	 DWORD PTR [esi+16], edi
; File C:\Program Files\Microsoft Visual Studio\2022\Professional\VC\Tools\MSVC\14.44.35207\include\__msvc_string_view.hpp

; 121  :         _CSTD memcpy(_First1, _First2, _Count * sizeof(_Elem));

  000dc	e8 00 00 00 00	 call	 _memcpy
; File C:\Program Files\Microsoft Visual Studio\2022\Professional\VC\Tools\MSVC\14.44.35207\include\xstring

; 3012 :         if (_Old_capacity > _Small_string_capacity) {

  000e1	8b 45 f8	 mov	 eax, DWORD PTR __Old$1$[ebp]
; File C:\Program Files\Microsoft Visual Studio\2022\Professional\VC\Tools\MSVC\14.44.35207\include\__msvc_string_view.hpp

; 121  :         _CSTD memcpy(_First1, _First2, _Count * sizeof(_Elem));

  000e4	83 c4 0c	 add	 esp, 12			; 0000000cH
; File C:\Program Files\Microsoft Visual Studio\2022\Professional\VC\Tools\MSVC\14.44.35207\include\xstring

; 1632 :                 _Traits::assign(_New_ptr[_Count], _Elem());

  000e7	c6 04 3b 00	 mov	 BYTE PTR [ebx+edi], 0

; 3012 :         if (_Old_capacity > _Small_string_capacity) {

  000eb	83 f8 0f	 cmp	 eax, 15			; 0000000fH
  000ee	76 29		 jbe	 SHORT $LN26@operator

; 852  :         _Al.deallocate(_Old_ptr, _Capacity + 1); // +1 for null terminator

  000f0	8d 48 01	 lea	 ecx, DWORD PTR [eax+1]
; File C:\Program Files\Microsoft Visual Studio\2022\Professional\VC\Tools\MSVC\14.44.35207\include\xmemory

; 985  :         _STD _Deallocate<_New_alignof<_Ty>>(_Ptr, sizeof(_Ty) * _Count);

  000f3	8b 06		 mov	 eax, DWORD PTR [esi]

; 284  :         if (_Bytes >= _Big_allocation_threshold) {

  000f5	81 f9 00 10 00
	00		 cmp	 ecx, 4096		; 00001000H
  000fb	72 12		 jb	 SHORT $LN70@operator

; 205  :     const uintptr_t _Ptr_container   = _Ptr_user[-1];

  000fd	8b 50 fc	 mov	 edx, DWORD PTR [eax-4]
  00100	83 c1 23	 add	 ecx, 35			; 00000023H

; 206  : 
; 207  :     // If the following asserts, it likely means that we are performing
; 208  :     // an aligned delete on memory coming from an unaligned allocation.
; 209  :     _STL_ASSERT(_Ptr_user[-2] == _Big_allocation_sentinel, "invalid argument");
; 210  : 
; 211  :     // Extra paranoia on aligned allocation/deallocation; ensure _Ptr_container is
; 212  :     // in range [_Min_back_shift, _Non_user_size]
; 213  : #ifdef _DEBUG
; 214  :     constexpr uintptr_t _Min_back_shift = 2 * sizeof(void*);
; 215  : #else // ^^^ defined(_DEBUG) / !defined(_DEBUG) vvv
; 216  :     constexpr uintptr_t _Min_back_shift = sizeof(void*);
; 217  : #endif // ^^^ !defined(_DEBUG) ^^^
; 218  :     const uintptr_t _Back_shift = reinterpret_cast<uintptr_t>(_Ptr) - _Ptr_container;

  00103	2b c2		 sub	 eax, edx

; 219  :     _STL_VERIFY(_Back_shift >= _Min_back_shift && _Back_shift <= _Non_user_size, "invalid argument");

  00105	83 c0 fc	 add	 eax, -4			; fffffffcH
  00108	83 f8 1f	 cmp	 eax, 31			; 0000001fH
  0010b	77 19		 ja	 SHORT $LN69@operator

; 220  :     _Ptr = reinterpret_cast<void*>(_Ptr_container);

  0010d	8b c2		 mov	 eax, edx
$LN70@operator:

; 289  :         ::operator delete(_Ptr, _Bytes);

  0010f	51		 push	 ecx
  00110	50		 push	 eax
  00111	e8 00 00 00 00	 call	 ??3@YAXPAXI@Z		; operator delete
  00116	83 c4 08	 add	 esp, 8
$LN26@operator:
; File C:\Program Files\Microsoft Visual Studio\2022\Professional\VC\Tools\MSVC\14.44.35207\include\xstring

; 3016 :             _Construct_in_place(_Mypair._Myval2._Bx._Ptr, _New_ptr);

  00119	89 1e		 mov	 DWORD PTR [esi], ebx
  0011b	5b		 pop	 ebx
$LN27@operator:

; 1436 :     }

  0011c	5f		 pop	 edi
  0011d	8b c6		 mov	 eax, esi
  0011f	5e		 pop	 esi
  00120	8b e5		 mov	 esp, ebp
  00122	5d		 pop	 ebp
  00123	c2 04 00	 ret	 4
$LN69@operator:
; File C:\Program Files\Microsoft Visual Studio\2022\Professional\VC\Tools\MSVC\14.44.35207\include\xmemory

; 219  :     _STL_VERIFY(_Back_shift >= _Min_back_shift && _Back_shift <= _Non_user_size, "invalid argument");

  00126	6a 00		 push	 0
  00128	6a 00		 push	 0
  0012a	6a 00		 push	 0
  0012c	6a 00		 push	 0
  0012e	6a 00		 push	 0
  00130	e8 00 00 00 00	 call	 __invoke_watson
$LN95@operator:
; File C:\Program Files\Microsoft Visual Studio\2022\Professional\VC\Tools\MSVC\14.44.35207\include\xstring

; 2999 :             _Xlen_string(); // result too long

  00135	e8 00 00 00 00	 call	 ?_Xlen_string@std@@YAXXZ ; std::_Xlen_string
$LN91@operator:
  0013a	cc		 int	 3
??4?$basic_string@DU?$char_traits@D@std@@V?$allocator@D@2@@std@@QAEAAV01@ABV01@@Z ENDP ; std::basic_string<char,std::char_traits<char>,std::allocator<char> >::operator=
_TEXT	ENDS
; Function compile flags: /Ogtp
; File C:\Program Files\Microsoft Visual Studio\2022\Professional\VC\Tools\MSVC\14.44.35207\include\xstring
; File C:\Program Files\Microsoft Visual Studio\2022\Professional\VC\Tools\MSVC\14.44.35207\include\xmemory
; File C:\Program Files\Microsoft Visual Studio\2022\Professional\VC\Tools\MSVC\14.44.35207\include\xstring
; File C:\Program Files\Microsoft Visual Studio\2022\Professional\VC\Tools\MSVC\14.44.35207\include\xmemory
; File C:\Program Files\Microsoft Visual Studio\2022\Professional\VC\Tools\MSVC\14.44.35207\include\xstring
; File C:\Program Files\Microsoft Visual Studio\2022\Professional\VC\Tools\MSVC\14.44.35207\include\xmemory
; File C:\Program Files\Microsoft Visual Studio\2022\Professional\VC\Tools\MSVC\14.44.35207\include\xstring
;	COMDAT ??1?$basic_string@DU?$char_traits@D@std@@V?$allocator@D@2@@std@@QAE@XZ
_TEXT	SEGMENT
??1?$basic_string@DU?$char_traits@D@std@@V?$allocator@D@2@@std@@QAE@XZ PROC ; std::basic_string<char,std::char_traits<char>,std::allocator<char> >::~basic_string<char,std::char_traits<char>,std::allocator<char> >, COMDAT
; _this$ = ecx

; 1382 :     _CONSTEXPR20 ~basic_string() noexcept {

  00000	56		 push	 esi
  00001	8b f1		 mov	 esi, ecx

; 453  :         return _Myres > _Small_string_capacity;

  00003	8b 4e 14	 mov	 ecx, DWORD PTR [esi+20]
  00006	83 f9 0f	 cmp	 ecx, 15			; 0000000fH

; 3083 :         if (_My_data._Large_mode_engaged()) {

  00009	76 27		 jbe	 SHORT $LN19@basic_stri
; File C:\Program Files\Microsoft Visual Studio\2022\Professional\VC\Tools\MSVC\14.44.35207\include\xmemory

; 985  :         _STD _Deallocate<_New_alignof<_Ty>>(_Ptr, sizeof(_Ty) * _Count);

  0000b	8b 06		 mov	 eax, DWORD PTR [esi]
; File C:\Program Files\Microsoft Visual Studio\2022\Professional\VC\Tools\MSVC\14.44.35207\include\xstring

; 852  :         _Al.deallocate(_Old_ptr, _Capacity + 1); // +1 for null terminator

  0000d	41		 inc	 ecx
; File C:\Program Files\Microsoft Visual Studio\2022\Professional\VC\Tools\MSVC\14.44.35207\include\xmemory

; 284  :         if (_Bytes >= _Big_allocation_threshold) {

  0000e	81 f9 00 10 00
	00		 cmp	 ecx, 4096		; 00001000H
  00014	72 12		 jb	 SHORT $LN24@basic_stri

; 205  :     const uintptr_t _Ptr_container   = _Ptr_user[-1];

  00016	8b 50 fc	 mov	 edx, DWORD PTR [eax-4]
  00019	83 c1 23	 add	 ecx, 35			; 00000023H

; 206  : 
; 207  :     // If the following asserts, it likely means that we are performing
; 208  :     // an aligned delete on memory coming from an unaligned allocation.
; 209  :     _STL_ASSERT(_Ptr_user[-2] == _Big_allocation_sentinel, "invalid argument");
; 210  : 
; 211  :     // Extra paranoia on aligned allocation/deallocation; ensure _Ptr_container is
; 212  :     // in range [_Min_back_shift, _Non_user_size]
; 213  : #ifdef _DEBUG
; 214  :     constexpr uintptr_t _Min_back_shift = 2 * sizeof(void*);
; 215  : #else // ^^^ defined(_DEBUG) / !defined(_DEBUG) vvv
; 216  :     constexpr uintptr_t _Min_back_shift = sizeof(void*);
; 217  : #endif // ^^^ !defined(_DEBUG) ^^^
; 218  :     const uintptr_t _Back_shift = reinterpret_cast<uintptr_t>(_Ptr) - _Ptr_container;

  0001c	2b c2		 sub	 eax, edx

; 219  :     _STL_VERIFY(_Back_shift >= _Min_back_shift && _Back_shift <= _Non_user_size, "invalid argument");

  0001e	83 c0 fc	 add	 eax, -4			; fffffffcH
  00021	83 f8 1f	 cmp	 eax, 31			; 0000001fH
  00024	77 1f		 ja	 SHORT $LN23@basic_stri

; 220  :     _Ptr = reinterpret_cast<void*>(_Ptr_container);

  00026	8b c2		 mov	 eax, edx
$LN24@basic_stri:

; 289  :         ::operator delete(_Ptr, _Bytes);

  00028	51		 push	 ecx
  00029	50		 push	 eax
  0002a	e8 00 00 00 00	 call	 ??3@YAXPAXI@Z		; operator delete
  0002f	83 c4 08	 add	 esp, 8
$LN19@basic_stri:
; File C:\Program Files\Microsoft Visual Studio\2022\Professional\VC\Tools\MSVC\14.44.35207\include\xstring

; 3090 :         _My_data._Mysize = 0;

  00032	c7 46 10 00 00
	00 00		 mov	 DWORD PTR [esi+16], 0

; 3091 :         _My_data._Myres  = _Small_string_capacity;

  00039	c7 46 14 0f 00
	00 00		 mov	 DWORD PTR [esi+20], 15	; 0000000fH

; 3092 :         // the _Traits::assign is last so the codegen doesn't think the char write can alias this
; 3093 :         _Traits::assign(_My_data._Bx._Buf[0], _Elem());

  00040	c6 06 00	 mov	 BYTE PTR [esi], 0
  00043	5e		 pop	 esi

; 1390 :     }

  00044	c3		 ret	 0
$LN23@basic_stri:
; File C:\Program Files\Microsoft Visual Studio\2022\Professional\VC\Tools\MSVC\14.44.35207\include\xmemory

; 219  :     _STL_VERIFY(_Back_shift >= _Min_back_shift && _Back_shift <= _Non_user_size, "invalid argument");

  00045	6a 00		 push	 0
  00047	6a 00		 push	 0
  00049	6a 00		 push	 0
  0004b	6a 00		 push	 0
  0004d	6a 00		 push	 0
  0004f	e8 00 00 00 00	 call	 __invoke_watson
$LN33@basic_stri:
  00054	cc		 int	 3
??1?$basic_string@DU?$char_traits@D@std@@V?$allocator@D@2@@std@@QAE@XZ ENDP ; std::basic_string<char,std::char_traits<char>,std::allocator<char> >::~basic_string<char,std::char_traits<char>,std::allocator<char> >
_TEXT	ENDS
; Function compile flags: /Ogtp
; File C:\Program Files\Microsoft Visual Studio\2022\Professional\VC\Tools\MSVC\14.44.35207\include\xstring
; File C:\Program Files\Microsoft Visual Studio\2022\Professional\VC\Tools\MSVC\14.44.35207\include\__msvc_string_view.hpp
; File C:\Program Files\Microsoft Visual Studio\2022\Professional\VC\Tools\MSVC\14.44.35207\include\xstring
; File C:\Program Files\Microsoft Visual Studio\2022\Professional\VC\Tools\MSVC\14.44.35207\include\__msvc_string_view.hpp
; File C:\Program Files\Microsoft Visual Studio\2022\Professional\VC\Tools\MSVC\14.44.35207\include\xstring
; File C:\Program Files\Microsoft Visual Studio\2022\Professional\VC\Tools\MSVC\14.44.35207\include\xmemory
; File C:\Program Files\Microsoft Visual Studio\2022\Professional\VC\Tools\MSVC\14.44.35207\include\xstring
; File C:\Program Files\Microsoft Visual Studio\2022\Professional\VC\Tools\MSVC\14.44.35207\include\xmemory
; File C:\Program Files\Microsoft Visual Studio\2022\Professional\VC\Tools\MSVC\14.44.35207\include\xstring
; File C:\Program Files\Microsoft Visual Studio\2022\Professional\VC\Tools\MSVC\14.44.35207\include\__msvc_string_view.hpp
; File C:\Program Files\Microsoft Visual Studio\2022\Professional\VC\Tools\MSVC\14.44.35207\include\xstring
; File C:\Program Files\Microsoft Visual Studio\2022\Professional\VC\Tools\MSVC\14.44.35207\include\__msvc_string_view.hpp
; File C:\Program Files\Microsoft Visual Studio\2022\Professional\VC\Tools\MSVC\14.44.35207\include\xstring
; File C:\Program Files\Microsoft Visual Studio\2022\Professional\VC\Tools\MSVC\14.44.35207\include\__msvc_string_view.hpp
; File C:\Program Files\Microsoft Visual Studio\2022\Professional\VC\Tools\MSVC\14.44.35207\include\xstring
; File C:\Program Files\Microsoft Visual Studio\2022\Professional\VC\Tools\MSVC\14.44.35207\include\__msvc_string_view.hpp
; File C:\Program Files\Microsoft Visual Studio\2022\Professional\VC\Tools\MSVC\14.44.35207\include\xstring
;	COMDAT ??0?$basic_string@DU?$char_traits@D@std@@V?$allocator@D@2@@std@@QAE@ABV01@@Z
_TEXT	SEGMENT
__Right$ = 8						; size = 4
__Result$1$ = 8						; size = 4
??0?$basic_string@DU?$char_traits@D@std@@V?$allocator@D@2@@std@@QAE@ABV01@@Z PROC ; std::basic_string<char,std::char_traits<char>,std::allocator<char> >::basic_string<char,std::char_traits<char>,std::allocator<char> >, COMDAT
; _this$ = ecx

; 717  :         : _Mypair(_One_then_variadic_args_t{}, _Alty_traits::select_on_container_copy_construction(_Right._Getal())) {

  00000	55		 push	 ebp
  00001	8b ec		 mov	 ebp, esp
  00003	53		 push	 ebx

; 444  :         const value_type* _Result = _Bx._Buf;

  00004	8b 5d 08	 mov	 ebx, DWORD PTR __Right$[ebp]
  00007	0f 57 c0	 xorps	 xmm0, xmm0

; 717  :         : _Mypair(_One_then_variadic_args_t{}, _Alty_traits::select_on_container_copy_construction(_Right._Getal())) {

  0000a	57		 push	 edi
  0000b	8b f9		 mov	 edi, ecx

; 444  :         const value_type* _Result = _Bx._Buf;

  0000d	89 5d 08	 mov	 DWORD PTR __Result$1$[ebp], ebx
  00010	8b c3		 mov	 eax, ebx

; 493  :         _CONSTEXPR20 _Bxty() noexcept : _Buf() {} // user-provided, for fancy pointers

  00012	0f 11 07	 movups	 XMMWORD PTR [edi], xmm0

; 517  :     size_type _Mysize = 0; // current length of string (size)

  00015	c7 47 10 00 00
	00 00		 mov	 DWORD PTR [edi+16], 0

; 518  :     size_type _Myres  = 0; // current storage reserved for string (capacity)

  0001c	c7 47 14 00 00
	00 00		 mov	 DWORD PTR [edi+20], 0

; 453  :         return _Myres > _Small_string_capacity;

  00023	83 7b 14 0f	 cmp	 DWORD PTR [ebx+20], 15	; 0000000fH

; 445  :         if (_Large_mode_engaged()) {

  00027	76 05		 jbe	 SHORT $LN17@basic_stri

; 446  :             _Result = _Unfancy(_Bx._Ptr);

  00029	8b 03		 mov	 eax, DWORD PTR [ebx]
  0002b	89 45 08	 mov	 DWORD PTR __Result$1$[ebp], eax
$LN17@basic_stri:

; 718  :         _Construct<_Construct_strategy::_From_string>(_Right._Mypair._Myval2._Myptr(), _Right._Mypair._Myval2._Mysize);

  0002e	8b 5b 10	 mov	 ebx, DWORD PTR [ebx+16]

; 881  :         if (_Count > max_size()) {

  00031	81 fb ff ff ff
	7f		 cmp	 ebx, 2147483647		; 7fffffffH
  00037	0f 87 8d 00 00
	00		 ja	 $LN63@basic_stri

; 883  :         }
; 884  : 
; 885  :         auto& _Al       = _Getal();
; 886  :         auto&& _Alproxy = _GET_PROXY_ALLOCATOR(_Alty, _Al);
; 887  :         _Container_proxy_ptr<_Alty> _Proxy(_Alproxy, _My_data);
; 888  : 
; 889  :         if (_Count <= _Small_string_capacity) {

  0003d	83 fb 0f	 cmp	 ebx, 15			; 0000000fH
  00040	77 18		 ja	 SHORT $LN25@basic_stri

; 890  :             _My_data._Mysize = _Count;

  00042	89 5f 10	 mov	 DWORD PTR [edi+16], ebx

; 891  :             _My_data._Myres  = _Small_string_capacity;

  00045	c7 47 14 0f 00
	00 00		 mov	 DWORD PTR [edi+20], 15	; 0000000fH
; File C:\Program Files\Microsoft Visual Studio\2022\Professional\VC\Tools\MSVC\14.44.35207\include\__msvc_string_view.hpp

; 121  :         _CSTD memcpy(_First1, _First2, _Count * sizeof(_Elem));

  0004c	0f 10 00	 movups	 xmm0, XMMWORD PTR [eax]
; File C:\Program Files\Microsoft Visual Studio\2022\Professional\VC\Tools\MSVC\14.44.35207\include\xstring

; 719  :     }

  0004f	8b c7		 mov	 eax, edi
; File C:\Program Files\Microsoft Visual Studio\2022\Professional\VC\Tools\MSVC\14.44.35207\include\__msvc_string_view.hpp

; 121  :         _CSTD memcpy(_First1, _First2, _Count * sizeof(_Elem));

  00051	0f 11 07	 movups	 XMMWORD PTR [edi], xmm0
; File C:\Program Files\Microsoft Visual Studio\2022\Professional\VC\Tools\MSVC\14.44.35207\include\xstring

; 719  :     }

  00054	5f		 pop	 edi
  00055	5b		 pop	 ebx
  00056	5d		 pop	 ebp
  00057	c2 04 00	 ret	 4
$LN25@basic_stri:
  0005a	56		 push	 esi

; 2978 :         const size_type _Masked = _Requested | _Alloc_mask;

  0005b	8b f3		 mov	 esi, ebx
  0005d	83 ce 0f	 or	 esi, 15			; 0000000fH
  00060	81 fe ff ff ff
	7f		 cmp	 esi, 2147483647		; 7fffffffH

; 2979 :         if (_Masked > _Max) { // the mask overflows, settle for max_size()

  00066	76 12		 jbe	 SHORT $LN31@basic_stri

; 2980 :             return _Max;

  00068	b8 00 00 00 80	 mov	 eax, -2147483648	; 80000000H
  0006d	be ff ff ff 7f	 mov	 esi, 2147483647		; 7fffffffH
; File C:\Program Files\Microsoft Visual Studio\2022\Professional\VC\Tools\MSVC\14.44.35207\include\xmemory

; 253  :             return _Allocate_manually_vector_aligned<_Traits>(_Bytes);

  00072	50		 push	 eax
  00073	e8 00 00 00 00	 call	 ??$_Allocate_manually_vector_aligned@U_Default_allocate_traits@std@@@std@@YAPAXI@Z ; std::_Allocate_manually_vector_aligned<std::_Default_allocate_traits>
  00078	eb 2a		 jmp	 SHORT $LN61@basic_stri
$LN31@basic_stri:
; File C:\Program Files\Microsoft Visual Studio\2022\Professional\VC\Tools\MSVC\14.44.35207\include\xstring

; 2987 :         return (_STD max)(_Masked, _Old + _Old / 2);

  0007a	b8 16 00 00 00	 mov	 eax, 22			; 00000016H
  0007f	3b f0		 cmp	 esi, eax
  00081	0f 42 f0	 cmovb	 esi, eax

; 825  :         ++_Capacity; // Take null terminator into consideration

  00084	8d 46 01	 lea	 eax, DWORD PTR [esi+1]
; File C:\Program Files\Microsoft Visual Studio\2022\Professional\VC\Tools\MSVC\14.44.35207\include\xmemory

; 227  :     if (_Bytes == 0) {

  00087	85 c0		 test	 eax, eax
  00089	75 04		 jne	 SHORT $LN45@basic_stri

; 228  :         return nullptr;

  0008b	33 c9		 xor	 ecx, ecx
  0008d	eb 1a		 jmp	 SHORT $LN44@basic_stri
$LN45@basic_stri:

; 229  :     }
; 230  : 
; 231  : #if _HAS_CXX20 // TRANSITION, GH-1532
; 232  :     if (_STD is_constant_evaluated()) {
; 233  :         return _Traits::_Allocate(_Bytes);
; 234  :     }
; 235  : #endif // _HAS_CXX20
; 236  : 
; 237  : #ifdef __cpp_aligned_new
; 238  :     if constexpr (_Align > __STDCPP_DEFAULT_NEW_ALIGNMENT__) {
; 239  :         size_t _Passed_align = _Align;
; 240  : #if defined(_M_IX86) || defined(_M_X64)
; 241  :         if (_Bytes >= _Big_allocation_threshold) {
; 242  :             // boost the alignment of big allocations to help autovectorization
; 243  :             _Passed_align = (_STD max)(_Align, _Big_allocation_alignment);
; 244  :         }
; 245  : #endif // defined(_M_IX86) || defined(_M_X64)
; 246  :         return _Traits::_Allocate_aligned(_Bytes, _Passed_align);
; 247  :     } else
; 248  : #endif // defined(__cpp_aligned_new)
; 249  :     {
; 250  : #if defined(_M_IX86) || defined(_M_X64)
; 251  :         if (_Bytes >= _Big_allocation_threshold) {

  0008f	3d 00 10 00 00	 cmp	 eax, 4096		; 00001000H
  00094	72 08		 jb	 SHORT $LN46@basic_stri

; 253  :             return _Allocate_manually_vector_aligned<_Traits>(_Bytes);

  00096	50		 push	 eax
  00097	e8 00 00 00 00	 call	 ??$_Allocate_manually_vector_aligned@U_Default_allocate_traits@std@@@std@@YAPAXI@Z ; std::_Allocate_manually_vector_aligned<std::_Default_allocate_traits>
  0009c	eb 06		 jmp	 SHORT $LN61@basic_stri
$LN46@basic_stri:

; 136  :         return ::operator new(_Bytes);

  0009e	50		 push	 eax
  0009f	e8 00 00 00 00	 call	 ??2@YAPAXI@Z		; operator new
$LN61@basic_stri:
; File C:\Program Files\Microsoft Visual Studio\2022\Professional\VC\Tools\MSVC\14.44.35207\include\xstring

; 913  :         _Construct_in_place(_My_data._Bx._Ptr, _New_ptr);

  000a4	8b c8		 mov	 ecx, eax
  000a6	83 c4 04	 add	 esp, 4
$LN44@basic_stri:

; 917  :         if constexpr (_Strat == _Construct_strategy::_From_char) {
; 918  :             _Traits::assign(_Unfancy(_New_ptr), _Count, _Arg);
; 919  :             _Traits::assign(_Unfancy(_New_ptr)[_Count], _Elem());
; 920  :         } else if constexpr (_Strat == _Construct_strategy::_From_ptr) {
; 921  :             _Traits::copy(_Unfancy(_New_ptr), _Arg, _Count);
; 922  :             _Traits::assign(_Unfancy(_New_ptr)[_Count], _Elem());
; 923  :         } else { // _Strat == _Construct_strategy::_From_string
; 924  :             _Traits::copy(_Unfancy(_New_ptr), _Arg, _Count + 1);

  000a9	8d 43 01	 lea	 eax, DWORD PTR [ebx+1]
  000ac	89 0f		 mov	 DWORD PTR [edi], ecx
; File C:\Program Files\Microsoft Visual Studio\2022\Professional\VC\Tools\MSVC\14.44.35207\include\__msvc_string_view.hpp

; 121  :         _CSTD memcpy(_First1, _First2, _Count * sizeof(_Elem));

  000ae	50		 push	 eax
  000af	ff 75 08	 push	 DWORD PTR __Result$1$[ebp]
; File C:\Program Files\Microsoft Visual Studio\2022\Professional\VC\Tools\MSVC\14.44.35207\include\xstring

; 915  :         _My_data._Mysize = _Count;

  000b2	89 5f 10	 mov	 DWORD PTR [edi+16], ebx
; File C:\Program Files\Microsoft Visual Studio\2022\Professional\VC\Tools\MSVC\14.44.35207\include\__msvc_string_view.hpp

; 121  :         _CSTD memcpy(_First1, _First2, _Count * sizeof(_Elem));

  000b5	51		 push	 ecx
; File C:\Program Files\Microsoft Visual Studio\2022\Professional\VC\Tools\MSVC\14.44.35207\include\xstring

; 916  :         _My_data._Myres  = _New_capacity;

  000b6	89 77 14	 mov	 DWORD PTR [edi+20], esi
; File C:\Program Files\Microsoft Visual Studio\2022\Professional\VC\Tools\MSVC\14.44.35207\include\__msvc_string_view.hpp

; 121  :         _CSTD memcpy(_First1, _First2, _Count * sizeof(_Elem));

  000b9	e8 00 00 00 00	 call	 _memcpy
  000be	83 c4 0c	 add	 esp, 12			; 0000000cH
; File C:\Program Files\Microsoft Visual Studio\2022\Professional\VC\Tools\MSVC\14.44.35207\include\xstring

; 719  :     }

  000c1	8b c7		 mov	 eax, edi
; File C:\Program Files\Microsoft Visual Studio\2022\Professional\VC\Tools\MSVC\14.44.35207\include\__msvc_string_view.hpp

; 121  :         _CSTD memcpy(_First1, _First2, _Count * sizeof(_Elem));

  000c3	5e		 pop	 esi
; File C:\Program Files\Microsoft Visual Studio\2022\Professional\VC\Tools\MSVC\14.44.35207\include\xstring

; 719  :     }

  000c4	5f		 pop	 edi
  000c5	5b		 pop	 ebx
  000c6	5d		 pop	 ebp
  000c7	c2 04 00	 ret	 4
$LN63@basic_stri:

; 882  :             _Xlen_string(); // result too long

  000ca	e8 00 00 00 00	 call	 ?_Xlen_string@std@@YAXXZ ; std::_Xlen_string
$LN60@basic_stri:
  000cf	cc		 int	 3
??0?$basic_string@DU?$char_traits@D@std@@V?$allocator@D@2@@std@@QAE@ABV01@@Z ENDP ; std::basic_string<char,std::char_traits<char>,std::allocator<char> >::basic_string<char,std::char_traits<char>,std::allocator<char> >
_TEXT	ENDS
; Function compile flags: /Ogtp
; File C:\Program Files\Microsoft Visual Studio\2022\Professional\VC\Tools\MSVC\14.44.35207\include\xstring
;	COMDAT ?_Xlen_string@std@@YAXXZ
_TEXT	SEGMENT
?_Xlen_string@std@@YAXXZ PROC				; std::_Xlen_string, COMDAT

; 531  :     _Xlength_error("string too long");

  00000	68 00 00 00 00	 push	 OFFSET ??_C@_0BA@JFNIOLAK@string?5too?5long@
  00005	e8 00 00 00 00	 call	 ?_Xlength_error@std@@YAXPBD@Z ; std::_Xlength_error
$LN3@Xlen_strin:
  0000a	cc		 int	 3
?_Xlen_string@std@@YAXXZ ENDP				; std::_Xlen_string
_TEXT	ENDS
; Function compile flags: /Ogtp
; File C:\Program Files\Microsoft Visual Studio\2022\Professional\VC\Tools\MSVC\14.44.35207\include\xmemory
;	COMDAT ?_Throw_bad_array_new_length@std@@YAXXZ
_TEXT	SEGMENT
$T1 = -12						; size = 12
?_Throw_bad_array_new_length@std@@YAXXZ PROC		; std::_Throw_bad_array_new_length, COMDAT

; 107  : [[noreturn]] inline void _Throw_bad_array_new_length() {

  00000	55		 push	 ebp
  00001	8b ec		 mov	 ebp, esp
  00003	83 ec 0c	 sub	 esp, 12			; 0000000cH

; 108  :     _THROW(bad_array_new_length{});

  00006	8d 4d f4	 lea	 ecx, DWORD PTR $T1[ebp]
  00009	e8 00 00 00 00	 call	 ??0bad_array_new_length@std@@QAE@XZ ; std::bad_array_new_length::bad_array_new_length
  0000e	68 00 00 00 00	 push	 OFFSET __TI3?AVbad_array_new_length@std@@
  00013	8d 45 f4	 lea	 eax, DWORD PTR $T1[ebp]
  00016	50		 push	 eax
  00017	e8 00 00 00 00	 call	 __CxxThrowException@8
$LN3@Throw_bad_:
  0001c	cc		 int	 3
?_Throw_bad_array_new_length@std@@YAXXZ ENDP		; std::_Throw_bad_array_new_length
_TEXT	ENDS
; Function compile flags: /Ogtp
; File C:\Program Files\Microsoft Visual Studio\2022\Professional\VC\Tools\MSVC\14.44.35207\include\vcruntime_exception.h
;	COMDAT ??_Gbad_array_new_length@std@@UAEPAXI@Z
_TEXT	SEGMENT
___flags$ = 8						; size = 4
??_Gbad_array_new_length@std@@UAEPAXI@Z PROC		; std::bad_array_new_length::`scalar deleting destructor', COMDAT
; _this$ = ecx
  00000	55		 push	 ebp
  00001	8b ec		 mov	 ebp, esp

; 90   :     {

  00003	56		 push	 esi
  00004	8b f1		 mov	 esi, ecx

; 91   :         __std_exception_destroy(&_Data);

  00006	8d 46 04	 lea	 eax, DWORD PTR [esi+4]
  00009	c7 06 00 00 00
	00		 mov	 DWORD PTR [esi], OFFSET ??_7exception@std@@6B@
  0000f	50		 push	 eax
  00010	e8 00 00 00 00	 call	 ___std_exception_destroy
  00015	83 c4 04	 add	 esp, 4
  00018	f6 45 08 01	 test	 BYTE PTR ___flags$[ebp], 1
  0001c	74 0b		 je	 SHORT $LN18@scalar
  0001e	6a 0c		 push	 12			; 0000000cH
  00020	56		 push	 esi
  00021	e8 00 00 00 00	 call	 ??3@YAXPAXI@Z		; operator delete
  00026	83 c4 08	 add	 esp, 8
$LN18@scalar:
  00029	8b c6		 mov	 eax, esi
  0002b	5e		 pop	 esi
  0002c	5d		 pop	 ebp
  0002d	c2 04 00	 ret	 4
??_Gbad_array_new_length@std@@UAEPAXI@Z ENDP		; std::bad_array_new_length::`scalar deleting destructor'
_TEXT	ENDS
; Function compile flags: /Ogtp
; File C:\Program Files\Microsoft Visual Studio\2022\Professional\VC\Tools\MSVC\14.44.35207\include\vcruntime_exception.h
;	COMDAT ??0bad_array_new_length@std@@QAE@ABV01@@Z
_TEXT	SEGMENT
___that$ = 8						; size = 4
??0bad_array_new_length@std@@QAE@ABV01@@Z PROC		; std::bad_array_new_length::bad_array_new_length, COMDAT
; _this$ = ecx
  00000	55		 push	 ebp
  00001	8b ec		 mov	 ebp, esp

; 73   :     {

  00003	56		 push	 esi
  00004	8b f1		 mov	 esi, ecx
  00006	0f 57 c0	 xorps	 xmm0, xmm0

; 72   :         : _Data()

  00009	8d 46 04	 lea	 eax, DWORD PTR [esi+4]

; 74   :         __std_exception_copy(&_Other._Data, &_Data);

  0000c	50		 push	 eax
  0000d	c7 06 00 00 00
	00		 mov	 DWORD PTR [esi], OFFSET ??_7exception@std@@6B@
  00013	66 0f d6 00	 movq	 QWORD PTR [eax], xmm0
  00017	8b 45 08	 mov	 eax, DWORD PTR ___that$[ebp]
  0001a	83 c0 04	 add	 eax, 4
  0001d	50		 push	 eax
  0001e	e8 00 00 00 00	 call	 ___std_exception_copy
  00023	83 c4 08	 add	 esp, 8
  00026	c7 06 00 00 00
	00		 mov	 DWORD PTR [esi], OFFSET ??_7bad_array_new_length@std@@6B@
  0002c	8b c6		 mov	 eax, esi
  0002e	5e		 pop	 esi
  0002f	5d		 pop	 ebp
  00030	c2 04 00	 ret	 4
??0bad_array_new_length@std@@QAE@ABV01@@Z ENDP		; std::bad_array_new_length::bad_array_new_length
_TEXT	ENDS
; Function compile flags: /Ogtp
; File C:\Program Files\Microsoft Visual Studio\2022\Professional\VC\Tools\MSVC\14.44.35207\include\vcruntime_exception.h
;	COMDAT ??1bad_array_new_length@std@@UAE@XZ
_TEXT	SEGMENT
??1bad_array_new_length@std@@UAE@XZ PROC		; std::bad_array_new_length::~bad_array_new_length, COMDAT
; _this$ = ecx

; 91   :         __std_exception_destroy(&_Data);

  00000	8d 41 04	 lea	 eax, DWORD PTR [ecx+4]
  00003	c7 01 00 00 00
	00		 mov	 DWORD PTR [ecx], OFFSET ??_7exception@std@@6B@
  00009	50		 push	 eax
  0000a	e8 00 00 00 00	 call	 ___std_exception_destroy
  0000f	59		 pop	 ecx
  00010	c3		 ret	 0
??1bad_array_new_length@std@@UAE@XZ ENDP		; std::bad_array_new_length::~bad_array_new_length
_TEXT	ENDS
; Function compile flags: /Ogtp
; File C:\Program Files\Microsoft Visual Studio\2022\Professional\VC\Tools\MSVC\14.44.35207\include\vcruntime_exception.h
;	COMDAT ??0bad_array_new_length@std@@QAE@XZ
_TEXT	SEGMENT
??0bad_array_new_length@std@@QAE@XZ PROC		; std::bad_array_new_length::bad_array_new_length, COMDAT
; _this$ = ecx

; 144  :     {

  00000	0f 57 c0	 xorps	 xmm0, xmm0

; 145  :     }

  00003	8b c1		 mov	 eax, ecx

; 66   :         : _Data()

  00005	66 0f d6 41 04	 movq	 QWORD PTR [ecx+4], xmm0

; 67   :     {
; 68   :         _Data._What = _Message;

  0000a	c7 41 04 00 00
	00 00		 mov	 DWORD PTR [ecx+4], OFFSET ??_C@_0BF@KINCDENJ@bad?5array?5new?5length@

; 144  :     {

  00011	c7 01 00 00 00
	00		 mov	 DWORD PTR [ecx], OFFSET ??_7bad_array_new_length@std@@6B@

; 145  :     }

  00017	c3		 ret	 0
??0bad_array_new_length@std@@QAE@XZ ENDP		; std::bad_array_new_length::bad_array_new_length
_TEXT	ENDS
; Function compile flags: /Ogtp
; File C:\Program Files\Microsoft Visual Studio\2022\Professional\VC\Tools\MSVC\14.44.35207\include\vcruntime_exception.h
;	COMDAT ??_Gbad_alloc@std@@UAEPAXI@Z
_TEXT	SEGMENT
___flags$ = 8						; size = 4
??_Gbad_alloc@std@@UAEPAXI@Z PROC			; std::bad_alloc::`scalar deleting destructor', COMDAT
; _this$ = ecx
  00000	55		 push	 ebp
  00001	8b ec		 mov	 ebp, esp

; 90   :     {

  00003	56		 push	 esi
  00004	8b f1		 mov	 esi, ecx

; 91   :         __std_exception_destroy(&_Data);

  00006	8d 46 04	 lea	 eax, DWORD PTR [esi+4]
  00009	c7 06 00 00 00
	00		 mov	 DWORD PTR [esi], OFFSET ??_7exception@std@@6B@
  0000f	50		 push	 eax
  00010	e8 00 00 00 00	 call	 ___std_exception_destroy
  00015	83 c4 04	 add	 esp, 4
  00018	f6 45 08 01	 test	 BYTE PTR ___flags$[ebp], 1
  0001c	74 0b		 je	 SHORT $LN13@scalar
  0001e	6a 0c		 push	 12			; 0000000cH
  00020	56		 push	 esi
  00021	e8 00 00 00 00	 call	 ??3@YAXPAXI@Z		; operator delete
  00026	83 c4 08	 add	 esp, 8
$LN13@scalar:
  00029	8b c6		 mov	 eax, esi
  0002b	5e		 pop	 esi
  0002c	5d		 pop	 ebp
  0002d	c2 04 00	 ret	 4
??_Gbad_alloc@std@@UAEPAXI@Z ENDP			; std::bad_alloc::`scalar deleting destructor'
_TEXT	ENDS
; Function compile flags: /Ogtp
; File C:\Program Files\Microsoft Visual Studio\2022\Professional\VC\Tools\MSVC\14.44.35207\include\vcruntime_exception.h
;	COMDAT ??0bad_alloc@std@@QAE@ABV01@@Z
_TEXT	SEGMENT
___that$ = 8						; size = 4
??0bad_alloc@std@@QAE@ABV01@@Z PROC			; std::bad_alloc::bad_alloc, COMDAT
; _this$ = ecx
  00000	55		 push	 ebp
  00001	8b ec		 mov	 ebp, esp

; 73   :     {

  00003	56		 push	 esi
  00004	8b f1		 mov	 esi, ecx
  00006	0f 57 c0	 xorps	 xmm0, xmm0

; 72   :         : _Data()

  00009	8d 46 04	 lea	 eax, DWORD PTR [esi+4]

; 74   :         __std_exception_copy(&_Other._Data, &_Data);

  0000c	50		 push	 eax
  0000d	c7 06 00 00 00
	00		 mov	 DWORD PTR [esi], OFFSET ??_7exception@std@@6B@
  00013	66 0f d6 00	 movq	 QWORD PTR [eax], xmm0
  00017	8b 45 08	 mov	 eax, DWORD PTR ___that$[ebp]
  0001a	83 c0 04	 add	 eax, 4
  0001d	50		 push	 eax
  0001e	e8 00 00 00 00	 call	 ___std_exception_copy
  00023	83 c4 08	 add	 esp, 8
  00026	c7 06 00 00 00
	00		 mov	 DWORD PTR [esi], OFFSET ??_7bad_alloc@std@@6B@
  0002c	8b c6		 mov	 eax, esi
  0002e	5e		 pop	 esi
  0002f	5d		 pop	 ebp
  00030	c2 04 00	 ret	 4
??0bad_alloc@std@@QAE@ABV01@@Z ENDP			; std::bad_alloc::bad_alloc
_TEXT	ENDS
; Function compile flags: /Ogtp
; File C:\Program Files\Microsoft Visual Studio\2022\Professional\VC\Tools\MSVC\14.44.35207\include\vcruntime_exception.h
;	COMDAT ??_Gexception@std@@UAEPAXI@Z
_TEXT	SEGMENT
___flags$ = 8						; size = 4
??_Gexception@std@@UAEPAXI@Z PROC			; std::exception::`scalar deleting destructor', COMDAT
; _this$ = ecx
  00000	55		 push	 ebp
  00001	8b ec		 mov	 ebp, esp

; 90   :     {

  00003	56		 push	 esi
  00004	8b f1		 mov	 esi, ecx

; 91   :         __std_exception_destroy(&_Data);

  00006	8d 46 04	 lea	 eax, DWORD PTR [esi+4]
  00009	c7 06 00 00 00
	00		 mov	 DWORD PTR [esi], OFFSET ??_7exception@std@@6B@
  0000f	50		 push	 eax
  00010	e8 00 00 00 00	 call	 ___std_exception_destroy
  00015	83 c4 04	 add	 esp, 4
  00018	f6 45 08 01	 test	 BYTE PTR ___flags$[ebp], 1
  0001c	74 0b		 je	 SHORT $LN8@scalar
  0001e	6a 0c		 push	 12			; 0000000cH
  00020	56		 push	 esi
  00021	e8 00 00 00 00	 call	 ??3@YAXPAXI@Z		; operator delete
  00026	83 c4 08	 add	 esp, 8
$LN8@scalar:
  00029	8b c6		 mov	 eax, esi
  0002b	5e		 pop	 esi
  0002c	5d		 pop	 ebp
  0002d	c2 04 00	 ret	 4
??_Gexception@std@@UAEPAXI@Z ENDP			; std::exception::`scalar deleting destructor'
_TEXT	ENDS
; Function compile flags: /Ogtp
; File C:\Program Files\Microsoft Visual Studio\2022\Professional\VC\Tools\MSVC\14.44.35207\include\vcruntime_exception.h
;	COMDAT ?what@exception@std@@UBEPBDXZ
_TEXT	SEGMENT
?what@exception@std@@UBEPBDXZ PROC			; std::exception::what, COMDAT
; _this$ = ecx

; 96   :         return _Data._What ? _Data._What : "Unknown exception";

  00000	8b 49 04	 mov	 ecx, DWORD PTR [ecx+4]
  00003	b8 00 00 00 00	 mov	 eax, OFFSET ??_C@_0BC@EOODALEL@Unknown?5exception@
  00008	85 c9		 test	 ecx, ecx
  0000a	0f 45 c1	 cmovne	 eax, ecx

; 97   :     }

  0000d	c3		 ret	 0
?what@exception@std@@UBEPBDXZ ENDP			; std::exception::what
_TEXT	ENDS
; Function compile flags: /Ogtp
; File C:\Program Files\Microsoft Visual Studio\2022\Professional\VC\Tools\MSVC\14.44.35207\include\vcruntime_exception.h
;	COMDAT ??1exception@std@@UAE@XZ
_TEXT	SEGMENT
??1exception@std@@UAE@XZ PROC				; std::exception::~exception, COMDAT
; _this$ = ecx

; 91   :         __std_exception_destroy(&_Data);

  00000	8d 41 04	 lea	 eax, DWORD PTR [ecx+4]
  00003	c7 01 00 00 00
	00		 mov	 DWORD PTR [ecx], OFFSET ??_7exception@std@@6B@
  00009	50		 push	 eax
  0000a	e8 00 00 00 00	 call	 ___std_exception_destroy
  0000f	59		 pop	 ecx

; 92   :     }

  00010	c3		 ret	 0
??1exception@std@@UAE@XZ ENDP				; std::exception::~exception
_TEXT	ENDS
; Function compile flags: /Ogtp
; File C:\Program Files\Microsoft Visual Studio\2022\Professional\VC\Tools\MSVC\14.44.35207\include\vcruntime_exception.h
;	COMDAT ??0exception@std@@QAE@ABV01@@Z
_TEXT	SEGMENT
__Other$ = 8						; size = 4
??0exception@std@@QAE@ABV01@@Z PROC			; std::exception::exception, COMDAT
; _this$ = ecx

; 73   :     {

  00000	55		 push	 ebp
  00001	8b ec		 mov	 ebp, esp
  00003	56		 push	 esi
  00004	8b f1		 mov	 esi, ecx
  00006	0f 57 c0	 xorps	 xmm0, xmm0
  00009	8d 46 04	 lea	 eax, DWORD PTR [esi+4]

; 74   :         __std_exception_copy(&_Other._Data, &_Data);

  0000c	50		 push	 eax
  0000d	c7 06 00 00 00
	00		 mov	 DWORD PTR [esi], OFFSET ??_7exception@std@@6B@
  00013	66 0f d6 00	 movq	 QWORD PTR [eax], xmm0
  00017	8b 45 08	 mov	 eax, DWORD PTR __Other$[ebp]
  0001a	83 c0 04	 add	 eax, 4
  0001d	50		 push	 eax
  0001e	e8 00 00 00 00	 call	 ___std_exception_copy
  00023	83 c4 08	 add	 esp, 8

; 75   :     }

  00026	8b c6		 mov	 eax, esi
  00028	5e		 pop	 esi
  00029	5d		 pop	 ebp
  0002a	c2 04 00	 ret	 4
??0exception@std@@QAE@ABV01@@Z ENDP			; std::exception::exception
_TEXT	ENDS
; Function compile flags: /Ogtp
; File C:\IAGOS\server\v18\Source\Source\WorldServer\MiniGameTyping.cpp
;	COMDAT ?__empty_global_delete@@YAXPAXI@Z
_TEXT	SEGMENT
___formal$ = 8						; size = 4
___formal$ = 12						; size = 4
?__empty_global_delete@@YAXPAXI@Z PROC			; __empty_global_delete, COMDAT

  00000	c2 00 00	 ret	 0
?__empty_global_delete@@YAXPAXI@Z ENDP			; __empty_global_delete
_TEXT	ENDS
; Function compile flags: /Ogtp
; File C:\IAGOS\server\v18\Source\Source\WorldServer\MiniGameTyping.cpp
;	COMDAT ?__empty_global_delete@@YAXPAX@Z
_TEXT	SEGMENT
___formal$ = 8						; size = 4
?__empty_global_delete@@YAXPAX@Z PROC			; __empty_global_delete, COMDAT

  00000	c2 00 00	 ret	 0
?__empty_global_delete@@YAXPAX@Z ENDP			; __empty_global_delete
_TEXT	ENDS
END
