; Listing generated by Microsoft (R) Optimizing Compiler Version 19.44.35225.0 

	TITLE	C:\IAGOS\server\v18\Source\Output\WorldServer\Release\MiniGameLadder.obj
	.686P
	.XMM
	include listing.inc
	.model	flat

INCLUDELIB LIBCMT
INCLUDELIB OLDNAMES

PUBLIC	?__empty_global_delete@@YAXPAX@Z		; __empty_global_delete
PUBLIC	?__empty_global_delete@@YAXPAXI@Z		; __empty_global_delete
PUBLIC	?Serialize@__MINIGAME_PACKET@@UAEXAAVCAr@@@Z	; __MINIGAME_PACKET::Serialize
PUBLIC	??$?6G@CAr@@QAEAAV0@ABG@Z			; CAr::operator<<<unsigned short>
PUBLIC	??$?6H@CAr@@QAEAAV0@ABH@Z			; CAr::operator<<<int>
PUBLIC	??$?5G@CAr@@QAEAAV0@AAG@Z			; CAr::operator>><unsigned short>
PUBLIC	??$?5H@CAr@@QAEAAV0@AAH@Z			; CAr::operator>><int>
PUBLIC	??0CMiniGameLadder@@QAE@XZ			; CMiniGameLadder::CMiniGameLadder
PUBLIC	??0CMiniGameLadder@@QAE@PAVCMiniGameBase@@@Z	; CMiniGameLadder::CMiniGameLadder
PUBLIC	??1CMiniGameLadder@@UAE@XZ			; CMiniGameLadder::~CMiniGameLadder
PUBLIC	?Excute@CMiniGameLadder@@UAEHPAVCUser@@PAU__MINIGAME_PACKET@@@Z ; CMiniGameLadder::Excute
PUBLIC	??_GCMiniGameLadder@@UAEPAXI@Z			; CMiniGameLadder::`scalar deleting destructor'
PUBLIC	??_7__MINIGAME_PACKET@@6B@			; __MINIGAME_PACKET::`vftable'
PUBLIC	??_7CMiniGameLadder@@6B@			; CMiniGameLadder::`vftable'
PUBLIC	??_R4__MINIGAME_PACKET@@6B@			; __MINIGAME_PACKET::`RTTI Complete Object Locator'
PUBLIC	??_R0?AU__MINIGAME_PACKET@@@8			; __MINIGAME_PACKET `RTTI Type Descriptor'
PUBLIC	??_R3__MINIGAME_PACKET@@8			; __MINIGAME_PACKET::`RTTI Class Hierarchy Descriptor'
PUBLIC	??_R2__MINIGAME_PACKET@@8			; __MINIGAME_PACKET::`RTTI Base Class Array'
PUBLIC	??_R1A@?0A@EA@__MINIGAME_PACKET@@8		; __MINIGAME_PACKET::`RTTI Base Class Descriptor at (0,-1,0,64)'
PUBLIC	??_R4CMiniGameLadder@@6B@			; CMiniGameLadder::`RTTI Complete Object Locator'
PUBLIC	??_R0?AVCMiniGameLadder@@@8			; CMiniGameLadder `RTTI Type Descriptor'
PUBLIC	??_R3CMiniGameLadder@@8				; CMiniGameLadder::`RTTI Class Hierarchy Descriptor'
PUBLIC	??_R2CMiniGameLadder@@8				; CMiniGameLadder::`RTTI Base Class Array'
PUBLIC	??_R1A@?0A@EA@CMiniGameLadder@@8		; CMiniGameLadder::`RTTI Base Class Descriptor at (0,-1,0,64)'
PUBLIC	??_R1A@?0A@EA@CMiniGameBase@@8			; CMiniGameBase::`RTTI Base Class Descriptor at (0,-1,0,64)'
PUBLIC	??_R0?AVCMiniGameBase@@@8			; CMiniGameBase `RTTI Type Descriptor'
PUBLIC	??_R3CMiniGameBase@@8				; CMiniGameBase::`RTTI Class Hierarchy Descriptor'
PUBLIC	??_R2CMiniGameBase@@8				; CMiniGameBase::`RTTI Base Class Array'
EXTRN	??3@YAXPAXI@Z:PROC				; operator delete
EXTRN	?CheckBuf@CAr@@QAEXI@Z:PROC			; CAr::CheckBuf
EXTRN	??0CMiniGameBase@@QAE@XZ:PROC			; CMiniGameBase::CMiniGameBase
EXTRN	??1CMiniGameBase@@UAE@XZ:PROC			; CMiniGameBase::~CMiniGameBase
EXTRN	?SendPacket@CMiniGameBase@@QAEXPAVCUser@@U__MINIGAME_PACKET@@@Z:PROC ; CMiniGameBase::SendPacket
EXTRN	??_ECMiniGameLadder@@UAEPAXI@Z:PROC		; CMiniGameLadder::`vector deleting destructor'
EXTRN	??_7type_info@@6B@:QWORD			; type_info::`vftable'
EXTRN	?g_next@@3KA:DWORD				; g_next
;	COMDAT ??_R2CMiniGameBase@@8
rdata$r	SEGMENT
??_R2CMiniGameBase@@8 DD FLAT:??_R1A@?0A@EA@CMiniGameBase@@8 ; CMiniGameBase::`RTTI Base Class Array'
rdata$r	ENDS
;	COMDAT ??_R3CMiniGameBase@@8
rdata$r	SEGMENT
??_R3CMiniGameBase@@8 DD 00H				; CMiniGameBase::`RTTI Class Hierarchy Descriptor'
	DD	00H
	DD	01H
	DD	FLAT:??_R2CMiniGameBase@@8
rdata$r	ENDS
;	COMDAT ??_R0?AVCMiniGameBase@@@8
data$rs	SEGMENT
??_R0?AVCMiniGameBase@@@8 DD FLAT:??_7type_info@@6B@	; CMiniGameBase `RTTI Type Descriptor'
	DD	00H
	DB	'.?AVCMiniGameBase@@', 00H
data$rs	ENDS
;	COMDAT ??_R1A@?0A@EA@CMiniGameBase@@8
rdata$r	SEGMENT
??_R1A@?0A@EA@CMiniGameBase@@8 DD FLAT:??_R0?AVCMiniGameBase@@@8 ; CMiniGameBase::`RTTI Base Class Descriptor at (0,-1,0,64)'
	DD	00H
	DD	00H
	DD	0ffffffffH
	DD	00H
	DD	040H
	DD	FLAT:??_R3CMiniGameBase@@8
rdata$r	ENDS
;	COMDAT ??_R1A@?0A@EA@CMiniGameLadder@@8
rdata$r	SEGMENT
??_R1A@?0A@EA@CMiniGameLadder@@8 DD FLAT:??_R0?AVCMiniGameLadder@@@8 ; CMiniGameLadder::`RTTI Base Class Descriptor at (0,-1,0,64)'
	DD	01H
	DD	00H
	DD	0ffffffffH
	DD	00H
	DD	040H
	DD	FLAT:??_R3CMiniGameLadder@@8
rdata$r	ENDS
;	COMDAT ??_R2CMiniGameLadder@@8
rdata$r	SEGMENT
??_R2CMiniGameLadder@@8 DD FLAT:??_R1A@?0A@EA@CMiniGameLadder@@8 ; CMiniGameLadder::`RTTI Base Class Array'
	DD	FLAT:??_R1A@?0A@EA@CMiniGameBase@@8
rdata$r	ENDS
;	COMDAT ??_R3CMiniGameLadder@@8
rdata$r	SEGMENT
??_R3CMiniGameLadder@@8 DD 00H				; CMiniGameLadder::`RTTI Class Hierarchy Descriptor'
	DD	00H
	DD	02H
	DD	FLAT:??_R2CMiniGameLadder@@8
rdata$r	ENDS
;	COMDAT ??_R0?AVCMiniGameLadder@@@8
data$rs	SEGMENT
??_R0?AVCMiniGameLadder@@@8 DD FLAT:??_7type_info@@6B@	; CMiniGameLadder `RTTI Type Descriptor'
	DD	00H
	DB	'.?AVCMiniGameLadder@@', 00H
data$rs	ENDS
;	COMDAT ??_R4CMiniGameLadder@@6B@
rdata$r	SEGMENT
??_R4CMiniGameLadder@@6B@ DD 00H			; CMiniGameLadder::`RTTI Complete Object Locator'
	DD	00H
	DD	00H
	DD	FLAT:??_R0?AVCMiniGameLadder@@@8
	DD	FLAT:??_R3CMiniGameLadder@@8
rdata$r	ENDS
;	COMDAT ??_R1A@?0A@EA@__MINIGAME_PACKET@@8
rdata$r	SEGMENT
??_R1A@?0A@EA@__MINIGAME_PACKET@@8 DD FLAT:??_R0?AU__MINIGAME_PACKET@@@8 ; __MINIGAME_PACKET::`RTTI Base Class Descriptor at (0,-1,0,64)'
	DD	00H
	DD	00H
	DD	0ffffffffH
	DD	00H
	DD	040H
	DD	FLAT:??_R3__MINIGAME_PACKET@@8
rdata$r	ENDS
;	COMDAT ??_R2__MINIGAME_PACKET@@8
rdata$r	SEGMENT
??_R2__MINIGAME_PACKET@@8 DD FLAT:??_R1A@?0A@EA@__MINIGAME_PACKET@@8 ; __MINIGAME_PACKET::`RTTI Base Class Array'
rdata$r	ENDS
;	COMDAT ??_R3__MINIGAME_PACKET@@8
rdata$r	SEGMENT
??_R3__MINIGAME_PACKET@@8 DD 00H			; __MINIGAME_PACKET::`RTTI Class Hierarchy Descriptor'
	DD	00H
	DD	01H
	DD	FLAT:??_R2__MINIGAME_PACKET@@8
rdata$r	ENDS
;	COMDAT ??_R0?AU__MINIGAME_PACKET@@@8
data$rs	SEGMENT
??_R0?AU__MINIGAME_PACKET@@@8 DD FLAT:??_7type_info@@6B@ ; __MINIGAME_PACKET `RTTI Type Descriptor'
	DD	00H
	DB	'.?AU__MINIGAME_PACKET@@', 00H
data$rs	ENDS
;	COMDAT ??_R4__MINIGAME_PACKET@@6B@
rdata$r	SEGMENT
??_R4__MINIGAME_PACKET@@6B@ DD 00H			; __MINIGAME_PACKET::`RTTI Complete Object Locator'
	DD	00H
	DD	00H
	DD	FLAT:??_R0?AU__MINIGAME_PACKET@@@8
	DD	FLAT:??_R3__MINIGAME_PACKET@@8
rdata$r	ENDS
;	COMDAT ??_7CMiniGameLadder@@6B@
CONST	SEGMENT
??_7CMiniGameLadder@@6B@ DD FLAT:??_R4CMiniGameLadder@@6B@ ; CMiniGameLadder::`vftable'
	DD	FLAT:??_ECMiniGameLadder@@UAEPAXI@Z
	DD	FLAT:?Excute@CMiniGameLadder@@UAEHPAVCUser@@PAU__MINIGAME_PACKET@@@Z
CONST	ENDS
;	COMDAT ??_7__MINIGAME_PACKET@@6B@
CONST	SEGMENT
??_7__MINIGAME_PACKET@@6B@ DD FLAT:??_R4__MINIGAME_PACKET@@6B@ ; __MINIGAME_PACKET::`vftable'
	DD	FLAT:?Serialize@__MINIGAME_PACKET@@UAEXAAVCAr@@@Z
CONST	ENDS
; Function compile flags: /Ogtp
;	COMDAT ??_GCMiniGameLadder@@UAEPAXI@Z
_TEXT	SEGMENT
___flags$ = 8						; size = 4
??_GCMiniGameLadder@@UAEPAXI@Z PROC			; CMiniGameLadder::`scalar deleting destructor', COMDAT
; _this$ = ecx
  00000	55		 push	 ebp
  00001	8b ec		 mov	 ebp, esp
  00003	56		 push	 esi
  00004	8b f1		 mov	 esi, ecx
  00006	e8 00 00 00 00	 call	 ??1CMiniGameLadder@@UAE@XZ ; CMiniGameLadder::~CMiniGameLadder
  0000b	f6 45 08 01	 test	 BYTE PTR ___flags$[ebp], 1
  0000f	74 0b		 je	 SHORT $LN5@scalar
  00011	6a 04		 push	 4
  00013	56		 push	 esi
  00014	e8 00 00 00 00	 call	 ??3@YAXPAXI@Z		; operator delete
  00019	83 c4 08	 add	 esp, 8
$LN5@scalar:
  0001c	8b c6		 mov	 eax, esi
  0001e	5e		 pop	 esi
  0001f	5d		 pop	 ebp
  00020	c2 04 00	 ret	 4
??_GCMiniGameLadder@@UAEPAXI@Z ENDP			; CMiniGameLadder::`scalar deleting destructor'
_TEXT	ENDS
; Function compile flags: /Ogtp
; File C:\IAGOS\server\v18\Source\Source\WorldServer\MiniGameLadder.cpp
; File C:\IAGOS\server\v18\Source\Source\_Common\minigamebase.h
; File C:\IAGOS\server\v18\Source\Source\WorldServer\MiniGameLadder.cpp
; File C:\IAGOS\server\v18\Source\Source\_Common\minigamebase.h
; File C:\IAGOS\server\v18\Source\Source\WorldServer\MiniGameLadder.cpp
; File C:\IAGOS\server\v18\Source\Source\_Common\xUtil.h
; File C:\IAGOS\server\v18\Source\Source\WorldServer\MiniGameLadder.cpp
; File C:\IAGOS\server\v18\Source\Source\_Common\xUtil.h
; File C:\IAGOS\server\v18\Source\Source\WorldServer\MiniGameLadder.cpp
;	COMDAT ?Excute@CMiniGameLadder@@UAEHPAVCUser@@PAU__MINIGAME_PACKET@@@Z
_TEXT	SEGMENT
_pUser$ = 8						; size = 4
_pMiniGamePacket$ = 12					; size = 4
?Excute@CMiniGameLadder@@UAEHPAVCUser@@PAU__MINIGAME_PACKET@@@Z PROC ; CMiniGameLadder::Excute, COMDAT
; _this$ = ecx

; 21   : {

  00000	55		 push	 ebp
  00001	8b ec		 mov	 ebp, esp
; File C:\IAGOS\server\v18\Source\Source\_Common\minigamebase.h

; 14   : 	: wNowGame(wG), nState(nS), nParam1(nP1), nParam2(nP2) {}

  00003	8b 45 0c	 mov	 eax, DWORD PTR _pMiniGamePacket$[ebp]
; File C:\IAGOS\server\v18\Source\Source\WorldServer\MiniGameLadder.cpp

; 21   : {

  00006	53		 push	 ebx
  00007	56		 push	 esi
  00008	57		 push	 edi

; 25   : 	if( pMiniGamePacket->nState == MP_OPENWND )

  00009	83 78 08 01	 cmp	 DWORD PTR [eax+8], 1
  0000d	8b f1		 mov	 esi, ecx
; File C:\IAGOS\server\v18\Source\Source\_Common\minigamebase.h

; 14   : 	: wNowGame(wG), nState(nS), nParam1(nP1), nParam2(nP2) {}

  0000f	0f b7 78 04	 movzx	 edi, WORD PTR [eax+4]
; File C:\IAGOS\server\v18\Source\Source\WorldServer\MiniGameLadder.cpp

; 25   : 	if( pMiniGamePacket->nState == MP_OPENWND )

  00013	75 35		 jne	 SHORT $LN2@Excute

; 26   : 	{
; 27   : 		MP.nState = MP_OPENWND;
; 28   : 		SendPacket( pUser, MP );

  00015	83 ec 14	 sub	 esp, 20			; 00000014H
  00018	8b c4		 mov	 eax, esp
  0001a	ff 75 08	 push	 DWORD PTR _pUser$[ebp]
  0001d	c7 00 00 00 00
	00		 mov	 DWORD PTR [eax], OFFSET ??_7__MINIGAME_PACKET@@6B@
  00023	66 89 78 04	 mov	 WORD PTR [eax+4], di
  00027	c7 40 08 01 00
	00 00		 mov	 DWORD PTR [eax+8], 1
  0002e	c7 40 0c 00 00
	00 00		 mov	 DWORD PTR [eax+12], 0
  00035	c7 40 10 00 00
	00 00		 mov	 DWORD PTR [eax+16], 0
  0003c	e8 00 00 00 00	 call	 ?SendPacket@CMiniGameBase@@QAEXPAVCUser@@U__MINIGAME_PACKET@@@Z ; CMiniGameBase::SendPacket

; 29   : 		return bReturn;

  00041	33 c0		 xor	 eax, eax

; 42   : 	return bReturn;
; 43   : }

  00043	5f		 pop	 edi
  00044	5e		 pop	 esi
  00045	5b		 pop	 ebx
  00046	5d		 pop	 ebp
  00047	c2 08 00	 ret	 8
$LN2@Excute:
; File C:\IAGOS\server\v18\Source\Source\_Common\xUtil.h

; 16   : 	g_next = g_next * 1103515245 + 12345;// + nRandomSeed[ i++ ];

  0004a	69 0d 00 00 00
	00 6d 4e c6 41	 imul	 ecx, DWORD PTR ?g_next@@3KA, 1103515245 ; g_next

; 22   : 	return  xRand() % num;

  00054	b8 cd cc cc cc	 mov	 eax, -858993459		; cccccccdH
; File C:\IAGOS\server\v18\Source\Source\WorldServer\MiniGameLadder.cpp

; 41   : 	SendPacket( pUser, MP );

  00059	33 db		 xor	 ebx, ebx
; File C:\IAGOS\server\v18\Source\Source\_Common\xUtil.h

; 16   : 	g_next = g_next * 1103515245 + 12345;// + nRandomSeed[ i++ ];

  0005b	81 c1 39 30 00
	00		 add	 ecx, 12345		; 00003039H

; 22   : 	return  xRand() % num;

  00061	f7 e1		 mul	 ecx

; 16   : 	g_next = g_next * 1103515245 + 12345;// + nRandomSeed[ i++ ];

  00063	89 0d 00 00 00
	00		 mov	 DWORD PTR ?g_next@@3KA, ecx ; g_next

; 22   : 	return  xRand() % num;

  00069	c1 ea 03	 shr	 edx, 3
  0006c	8d 04 92	 lea	 eax, DWORD PTR [edx+edx*4]
  0006f	03 c0		 add	 eax, eax
; File C:\IAGOS\server\v18\Source\Source\WorldServer\MiniGameLadder.cpp

; 41   : 	SendPacket( pUser, MP );

  00071	3b c8		 cmp	 ecx, eax
  00073	0f 94 c3	 sete	 bl
  00076	33 d2		 xor	 edx, edx
  00078	3b c8		 cmp	 ecx, eax
  0007a	0f 95 c2	 setne	 dl
  0007d	83 ec 14	 sub	 esp, 20			; 00000014H
  00080	8b cc		 mov	 ecx, esp
  00082	83 c2 04	 add	 edx, 4
  00085	ff 75 08	 push	 DWORD PTR _pUser$[ebp]
  00088	c7 01 00 00 00
	00		 mov	 DWORD PTR [ecx], OFFSET ??_7__MINIGAME_PACKET@@6B@
  0008e	66 89 79 04	 mov	 WORD PTR [ecx+4], di
  00092	89 51 08	 mov	 DWORD PTR [ecx+8], edx
  00095	c7 41 0c 00 00
	00 00		 mov	 DWORD PTR [ecx+12], 0
  0009c	c7 41 10 00 00
	00 00		 mov	 DWORD PTR [ecx+16], 0
  000a3	8b ce		 mov	 ecx, esi
  000a5	e8 00 00 00 00	 call	 ?SendPacket@CMiniGameBase@@QAEXPAVCUser@@U__MINIGAME_PACKET@@@Z ; CMiniGameBase::SendPacket

; 42   : 	return bReturn;
; 43   : }

  000aa	5f		 pop	 edi
  000ab	5e		 pop	 esi
  000ac	8b c3		 mov	 eax, ebx
  000ae	5b		 pop	 ebx
  000af	5d		 pop	 ebp
  000b0	c2 08 00	 ret	 8
?Excute@CMiniGameLadder@@UAEHPAVCUser@@PAU__MINIGAME_PACKET@@@Z ENDP ; CMiniGameLadder::Excute
_TEXT	ENDS
; Function compile flags: /Ogtp
; File C:\IAGOS\server\v18\Source\Source\WorldServer\MiniGameLadder.cpp
;	COMDAT ??1CMiniGameLadder@@UAE@XZ
_TEXT	SEGMENT
??1CMiniGameLadder@@UAE@XZ PROC				; CMiniGameLadder::~CMiniGameLadder, COMDAT
; _this$ = ecx

; 17   : {

  00000	c7 01 00 00 00
	00		 mov	 DWORD PTR [ecx], OFFSET ??_7CMiniGameLadder@@6B@

; 18   : }

  00006	e9 00 00 00 00	 jmp	 ??1CMiniGameBase@@UAE@XZ ; CMiniGameBase::~CMiniGameBase
??1CMiniGameLadder@@UAE@XZ ENDP				; CMiniGameLadder::~CMiniGameLadder
_TEXT	ENDS
; Function compile flags: /Ogtp
; File C:\IAGOS\server\v18\Source\Source\WorldServer\MiniGameLadder.cpp
;	COMDAT ??0CMiniGameLadder@@QAE@PAVCMiniGameBase@@@Z
_TEXT	SEGMENT
_this$ = -4						; size = 4
_pMiniGame$ = 8						; size = 4
??0CMiniGameLadder@@QAE@PAVCMiniGameBase@@@Z PROC	; CMiniGameLadder::CMiniGameLadder, COMDAT
; _this$ = ecx

; 11   : {

  00000	55		 push	 ebp
  00001	8b ec		 mov	 ebp, esp
  00003	51		 push	 ecx
  00004	56		 push	 esi
  00005	8b f1		 mov	 esi, ecx
  00007	89 75 fc	 mov	 DWORD PTR _this$[ebp], esi
  0000a	e8 00 00 00 00	 call	 ??0CMiniGameBase@@QAE@XZ ; CMiniGameBase::CMiniGameBase
  0000f	c7 06 00 00 00
	00		 mov	 DWORD PTR [esi], OFFSET ??_7CMiniGameLadder@@6B@

; 12   : 	CMiniGameLadder* pMiniGameLadder = static_cast<CMiniGameLadder*>( pMiniGame );
; 13   : 
; 14   : }

  00015	8b c6		 mov	 eax, esi
  00017	5e		 pop	 esi
  00018	8b e5		 mov	 esp, ebp
  0001a	5d		 pop	 ebp
  0001b	c2 04 00	 ret	 4
??0CMiniGameLadder@@QAE@PAVCMiniGameBase@@@Z ENDP	; CMiniGameLadder::CMiniGameLadder
_TEXT	ENDS
; Function compile flags: /Ogtp
; File C:\IAGOS\server\v18\Source\Source\WorldServer\MiniGameLadder.cpp
;	COMDAT ??0CMiniGameLadder@@QAE@XZ
_TEXT	SEGMENT
_this$ = -4						; size = 4
??0CMiniGameLadder@@QAE@XZ PROC				; CMiniGameLadder::CMiniGameLadder, COMDAT
; _this$ = ecx

; 7    : {

  00000	55		 push	 ebp
  00001	8b ec		 mov	 ebp, esp
  00003	51		 push	 ecx
  00004	56		 push	 esi
  00005	8b f1		 mov	 esi, ecx
  00007	89 75 fc	 mov	 DWORD PTR _this$[ebp], esi
  0000a	e8 00 00 00 00	 call	 ??0CMiniGameBase@@QAE@XZ ; CMiniGameBase::CMiniGameBase
  0000f	c7 06 00 00 00
	00		 mov	 DWORD PTR [esi], OFFSET ??_7CMiniGameLadder@@6B@

; 8    : }

  00015	8b c6		 mov	 eax, esi
  00017	5e		 pop	 esi
  00018	8b e5		 mov	 esp, ebp
  0001a	5d		 pop	 ebp
  0001b	c3		 ret	 0
??0CMiniGameLadder@@QAE@XZ ENDP				; CMiniGameLadder::CMiniGameLadder
_TEXT	ENDS
; Function compile flags: /Ogtp
; File C:\IAGOS\server\v18\Source\Source\_Network\Misc\Include\ar.h
;	COMDAT ??$?5H@CAr@@QAEAAV0@AAH@Z
_TEXT	SEGMENT
_t$ = 8							; size = 4
??$?5H@CAr@@QAEAAV0@AAH@Z PROC				; CAr::operator>><int>, COMDAT
; _this$ = ecx

; 302  : {

  00000	55		 push	 ebp
  00001	8b ec		 mov	 ebp, esp
  00003	8b d1		 mov	 edx, ecx

; 303  : 	if (m_lpBufCur + sizeof(T) <= m_lpBufMax)

  00005	8b 4a 08	 mov	 ecx, DWORD PTR [edx+8]
  00008	8d 41 04	 lea	 eax, DWORD PTR [ecx+4]
  0000b	3b 42 0c	 cmp	 eax, DWORD PTR [edx+12]
  0000e	8b 45 08	 mov	 eax, DWORD PTR _t$[ebp]
  00011	77 0e		 ja	 SHORT $LN2@operator

; 304  : 	{
; 305  : 		t = *(UNALIGNED T*)m_lpBufCur;

  00013	8b 09		 mov	 ecx, DWORD PTR [ecx]
  00015	89 08		 mov	 DWORD PTR [eax], ecx

; 312  : 	}
; 313  : 	return *this;
; 314  : }

  00017	8b c2		 mov	 eax, edx
  00019	83 42 08 04	 add	 DWORD PTR [edx+8], 4
  0001d	5d		 pop	 ebp
  0001e	c2 04 00	 ret	 4
$LN2@operator:

; 306  : 		m_lpBufCur += sizeof(T);
; 307  : 	}
; 308  : 	else
; 309  : 	{
; 310  : 		t = T();

  00021	c7 00 00 00 00
	00		 mov	 DWORD PTR [eax], 0

; 311  : 		m_lpBufCur = m_lpBufMax;

  00027	8b 42 0c	 mov	 eax, DWORD PTR [edx+12]
  0002a	89 42 08	 mov	 DWORD PTR [edx+8], eax

; 312  : 	}
; 313  : 	return *this;
; 314  : }

  0002d	8b c2		 mov	 eax, edx
  0002f	5d		 pop	 ebp
  00030	c2 04 00	 ret	 4
??$?5H@CAr@@QAEAAV0@AAH@Z ENDP				; CAr::operator>><int>
_TEXT	ENDS
; Function compile flags: /Ogtp
; File C:\IAGOS\server\v18\Source\Source\_Network\Misc\Include\ar.h
;	COMDAT ??$?5G@CAr@@QAEAAV0@AAG@Z
_TEXT	SEGMENT
_t$ = 8							; size = 4
??$?5G@CAr@@QAEAAV0@AAG@Z PROC				; CAr::operator>><unsigned short>, COMDAT
; _this$ = ecx

; 302  : {

  00000	55		 push	 ebp
  00001	8b ec		 mov	 ebp, esp
  00003	8b d1		 mov	 edx, ecx

; 303  : 	if (m_lpBufCur + sizeof(T) <= m_lpBufMax)

  00005	8b 4a 08	 mov	 ecx, DWORD PTR [edx+8]
  00008	8d 41 02	 lea	 eax, DWORD PTR [ecx+2]
  0000b	3b 42 0c	 cmp	 eax, DWORD PTR [edx+12]
  0000e	8b 45 08	 mov	 eax, DWORD PTR _t$[ebp]
  00011	77 10		 ja	 SHORT $LN2@operator

; 304  : 	{
; 305  : 		t = *(UNALIGNED T*)m_lpBufCur;

  00013	66 8b 09	 mov	 cx, WORD PTR [ecx]
  00016	66 89 08	 mov	 WORD PTR [eax], cx

; 312  : 	}
; 313  : 	return *this;
; 314  : }

  00019	8b c2		 mov	 eax, edx
  0001b	83 42 08 02	 add	 DWORD PTR [edx+8], 2
  0001f	5d		 pop	 ebp
  00020	c2 04 00	 ret	 4
$LN2@operator:

; 306  : 		m_lpBufCur += sizeof(T);
; 307  : 	}
; 308  : 	else
; 309  : 	{
; 310  : 		t = T();

  00023	33 c9		 xor	 ecx, ecx
  00025	66 89 08	 mov	 WORD PTR [eax], cx

; 311  : 		m_lpBufCur = m_lpBufMax;

  00028	8b 42 0c	 mov	 eax, DWORD PTR [edx+12]
  0002b	89 42 08	 mov	 DWORD PTR [edx+8], eax

; 312  : 	}
; 313  : 	return *this;
; 314  : }

  0002e	8b c2		 mov	 eax, edx
  00030	5d		 pop	 ebp
  00031	c2 04 00	 ret	 4
??$?5G@CAr@@QAEAAV0@AAG@Z ENDP				; CAr::operator>><unsigned short>
_TEXT	ENDS
; Function compile flags: /Ogtp
; File C:\IAGOS\server\v18\Source\Source\_Network\Misc\Include\ar.h
;	COMDAT ??$?6H@CAr@@QAEAAV0@ABH@Z
_TEXT	SEGMENT
_t$ = 8							; size = 4
??$?6H@CAr@@QAEAAV0@ABH@Z PROC				; CAr::operator<<<int>, COMDAT
; _this$ = ecx

; 255  : {

  00000	55		 push	 ebp
  00001	8b ec		 mov	 ebp, esp
  00003	56		 push	 esi

; 256  : 	CheckBuf(sizeof(T));

  00004	6a 04		 push	 4
  00006	8b f1		 mov	 esi, ecx
  00008	e8 00 00 00 00	 call	 ?CheckBuf@CAr@@QAEXI@Z	; CAr::CheckBuf

; 257  : 	*(UNALIGNED T*)m_lpBufCur = t;

  0000d	8b 56 08	 mov	 edx, DWORD PTR [esi+8]
  00010	8b 45 08	 mov	 eax, DWORD PTR _t$[ebp]
  00013	8b 00		 mov	 eax, DWORD PTR [eax]
  00015	89 02		 mov	 DWORD PTR [edx], eax

; 258  : 	m_lpBufCur += sizeof(T);
; 259  : 	return *this;

  00017	8b c6		 mov	 eax, esi
  00019	83 46 08 04	 add	 DWORD PTR [esi+8], 4
  0001d	5e		 pop	 esi

; 260  : }

  0001e	5d		 pop	 ebp
  0001f	c2 04 00	 ret	 4
??$?6H@CAr@@QAEAAV0@ABH@Z ENDP				; CAr::operator<<<int>
_TEXT	ENDS
; Function compile flags: /Ogtp
; File C:\IAGOS\server\v18\Source\Source\_Network\Misc\Include\ar.h
;	COMDAT ??$?6G@CAr@@QAEAAV0@ABG@Z
_TEXT	SEGMENT
_t$ = 8							; size = 4
??$?6G@CAr@@QAEAAV0@ABG@Z PROC				; CAr::operator<<<unsigned short>, COMDAT
; _this$ = ecx

; 255  : {

  00000	55		 push	 ebp
  00001	8b ec		 mov	 ebp, esp
  00003	56		 push	 esi

; 256  : 	CheckBuf(sizeof(T));

  00004	6a 02		 push	 2
  00006	8b f1		 mov	 esi, ecx
  00008	e8 00 00 00 00	 call	 ?CheckBuf@CAr@@QAEXI@Z	; CAr::CheckBuf

; 257  : 	*(UNALIGNED T*)m_lpBufCur = t;

  0000d	8b 45 08	 mov	 eax, DWORD PTR _t$[ebp]
  00010	8b 56 08	 mov	 edx, DWORD PTR [esi+8]
  00013	66 8b 00	 mov	 ax, WORD PTR [eax]
  00016	66 89 02	 mov	 WORD PTR [edx], ax

; 258  : 	m_lpBufCur += sizeof(T);
; 259  : 	return *this;

  00019	8b c6		 mov	 eax, esi
  0001b	83 46 08 02	 add	 DWORD PTR [esi+8], 2
  0001f	5e		 pop	 esi

; 260  : }

  00020	5d		 pop	 ebp
  00021	c2 04 00	 ret	 4
??$?6G@CAr@@QAEAAV0@ABG@Z ENDP				; CAr::operator<<<unsigned short>
_TEXT	ENDS
; Function compile flags: /Ogtp
; File C:\IAGOS\server\v18\Source\Source\_Common\minigamebase.h
; File C:\IAGOS\server\v18\Source\Source\_Network\Misc\Include\ar.h
; File C:\IAGOS\server\v18\Source\Source\_Common\minigamebase.h
; File C:\IAGOS\server\v18\Source\Source\_Network\Misc\Include\ar.h
; File C:\IAGOS\server\v18\Source\Source\_Common\minigamebase.h
;	COMDAT ?Serialize@__MINIGAME_PACKET@@UAEXAAVCAr@@@Z
_TEXT	SEGMENT
_ar$ = 8						; size = 4
?Serialize@__MINIGAME_PACKET@@UAEXAAVCAr@@@Z PROC	; __MINIGAME_PACKET::Serialize, COMDAT
; _this$ = ecx

; 16   : 	{

  00000	55		 push	 ebp
  00001	8b ec		 mov	 ebp, esp
  00003	56		 push	 esi
  00004	57		 push	 edi
; File C:\IAGOS\server\v18\Source\Source\_Network\Misc\Include\ar.h

; 146  : 	return (m_nMode & CAr::load) == 0;

  00005	8d 41 10	 lea	 eax, DWORD PTR [ecx+16]
  00008	8d 51 0c	 lea	 edx, DWORD PTR [ecx+12]
  0000b	8d 71 08	 lea	 esi, DWORD PTR [ecx+8]
  0000e	8d 79 04	 lea	 edi, DWORD PTR [ecx+4]
  00011	8b 4d 08	 mov	 ecx, DWORD PTR _ar$[ebp]
; File C:\IAGOS\server\v18\Source\Source\_Common\minigamebase.h

; 17   : 		if( ar.IsStoring() )

  00014	50		 push	 eax
  00015	52		 push	 edx
  00016	56		 push	 esi
; File C:\IAGOS\server\v18\Source\Source\_Network\Misc\Include\ar.h

; 146  : 	return (m_nMode & CAr::load) == 0;

  00017	f6 01 01	 test	 BYTE PTR [ecx], 1
; File C:\IAGOS\server\v18\Source\Source\_Common\minigamebase.h

; 17   : 		if( ar.IsStoring() )

  0001a	57		 push	 edi
  0001b	75 20		 jne	 SHORT $LN2@Serialize

; 18   : 			ar << wNowGame << nState << nParam1 << nParam2;

  0001d	e8 00 00 00 00	 call	 ??$?6G@CAr@@QAEAAV0@ABG@Z ; CAr::operator<<<unsigned short>
  00022	8b c8		 mov	 ecx, eax
  00024	e8 00 00 00 00	 call	 ??$?6H@CAr@@QAEAAV0@ABH@Z ; CAr::operator<<<int>
  00029	8b c8		 mov	 ecx, eax
  0002b	e8 00 00 00 00	 call	 ??$?6H@CAr@@QAEAAV0@ABH@Z ; CAr::operator<<<int>
  00030	8b c8		 mov	 ecx, eax
  00032	e8 00 00 00 00	 call	 ??$?6H@CAr@@QAEAAV0@ABH@Z ; CAr::operator<<<int>
  00037	5f		 pop	 edi

; 21   : 	}

  00038	5e		 pop	 esi
  00039	5d		 pop	 ebp
  0003a	c2 04 00	 ret	 4
$LN2@Serialize:

; 19   : 		else
; 20   : 			ar >> wNowGame >> nState >> nParam1 >> nParam2;

  0003d	e8 00 00 00 00	 call	 ??$?5G@CAr@@QAEAAV0@AAG@Z ; CAr::operator>><unsigned short>
  00042	8b c8		 mov	 ecx, eax
  00044	e8 00 00 00 00	 call	 ??$?5H@CAr@@QAEAAV0@AAH@Z ; CAr::operator>><int>
  00049	8b c8		 mov	 ecx, eax
  0004b	e8 00 00 00 00	 call	 ??$?5H@CAr@@QAEAAV0@AAH@Z ; CAr::operator>><int>
  00050	8b c8		 mov	 ecx, eax
  00052	e8 00 00 00 00	 call	 ??$?5H@CAr@@QAEAAV0@AAH@Z ; CAr::operator>><int>
  00057	5f		 pop	 edi

; 21   : 	}

  00058	5e		 pop	 esi
  00059	5d		 pop	 ebp
  0005a	c2 04 00	 ret	 4
?Serialize@__MINIGAME_PACKET@@UAEXAAVCAr@@@Z ENDP	; __MINIGAME_PACKET::Serialize
_TEXT	ENDS
; Function compile flags: /Ogtp
; File C:\IAGOS\server\v18\Source\Source\WorldServer\MiniGameLadder.cpp
;	COMDAT ?__empty_global_delete@@YAXPAXI@Z
_TEXT	SEGMENT
___formal$ = 8						; size = 4
___formal$ = 12						; size = 4
?__empty_global_delete@@YAXPAXI@Z PROC			; __empty_global_delete, COMDAT

  00000	c2 00 00	 ret	 0
?__empty_global_delete@@YAXPAXI@Z ENDP			; __empty_global_delete
_TEXT	ENDS
; Function compile flags: /Ogtp
; File C:\IAGOS\server\v18\Source\Source\WorldServer\MiniGameLadder.cpp
;	COMDAT ?__empty_global_delete@@YAXPAX@Z
_TEXT	SEGMENT
___formal$ = 8						; size = 4
?__empty_global_delete@@YAXPAX@Z PROC			; __empty_global_delete, COMDAT

  00000	c2 00 00	 ret	 0
?__empty_global_delete@@YAXPAX@Z ENDP			; __empty_global_delete
_TEXT	ENDS
END
