; Listing generated by Microsoft (R) Optimizing Compiler Version 19.44.35225.0 

	TITLE	C:\IAGOS\server\v18\Source\Output\WorldServer\Release\MiniGameArithmetic.obj
	.686P
	.XMM
	include listing.inc
	.model	flat

INCLUDELIB LIBCMT
INCLUDELIB OLDNAMES

PUBLIC	?__empty_global_delete@@YAXPAX@Z		; __empty_global_delete
PUBLIC	?__empty_global_delete@@YAXPAXI@Z		; __empty_global_delete
PUBLIC	___local_stdio_printf_options
PUBLIC	_sprintf
PUBLIC	??0exception@std@@QAE@ABV01@@Z			; std::exception::exception
PUBLIC	??1exception@std@@UAE@XZ			; std::exception::~exception
PUBLIC	?what@exception@std@@UBEPBDXZ			; std::exception::what
PUBLIC	??_Gexception@std@@UAEPAXI@Z			; std::exception::`scalar deleting destructor'
PUBLIC	??0bad_alloc@std@@QAE@ABV01@@Z			; std::bad_alloc::bad_alloc
PUBLIC	??_Gbad_alloc@std@@UAEPAXI@Z			; std::bad_alloc::`scalar deleting destructor'
PUBLIC	??0bad_array_new_length@std@@QAE@XZ		; std::bad_array_new_length::bad_array_new_length
PUBLIC	??1bad_array_new_length@std@@UAE@XZ		; std::bad_array_new_length::~bad_array_new_length
PUBLIC	??0bad_array_new_length@std@@QAE@ABV01@@Z	; std::bad_array_new_length::bad_array_new_length
PUBLIC	??_Gbad_array_new_length@std@@UAEPAXI@Z		; std::bad_array_new_length::`scalar deleting destructor'
PUBLIC	?_Throw_bad_array_new_length@std@@YAXXZ		; std::_Throw_bad_array_new_length
PUBLIC	?_Xlen_string@std@@YAXXZ			; std::_Xlen_string
PUBLIC	??0?$basic_string@DU?$char_traits@D@std@@V?$allocator@D@2@@std@@QAE@QBD@Z ; std::basic_string<char,std::char_traits<char>,std::allocator<char> >::basic_string<char,std::char_traits<char>,std::allocator<char> >
PUBLIC	??1?$basic_string@DU?$char_traits@D@std@@V?$allocator@D@2@@std@@QAE@XZ ; std::basic_string<char,std::char_traits<char>,std::allocator<char> >::~basic_string<char,std::char_traits<char>,std::allocator<char> >
PUBLIC	?deallocate@?$allocator@H@std@@QAEXQAHI@Z	; std::allocator<int>::deallocate
PUBLIC	??1?$vector@HV?$allocator@H@std@@@std@@QAE@XZ	; std::vector<int,std::allocator<int> >::~vector<int,std::allocator<int> >
PUBLIC	?_Change_array@?$vector@HV?$allocator@H@std@@@std@@AAEXQAHII@Z ; std::vector<int,std::allocator<int> >::_Change_array
PUBLIC	?_Xlength@?$vector@HV?$allocator@H@std@@@std@@CAXXZ ; std::vector<int,std::allocator<int> >::_Xlength
PUBLIC	??$_Allocate_manually_vector_aligned@U_Default_allocate_traits@std@@@std@@YAPAXI@Z ; std::_Allocate_manually_vector_aligned<std::_Default_allocate_traits>
PUBLIC	?Serialize@__MINIGAME_PACKET@@UAEXAAVCAr@@@Z	; __MINIGAME_PACKET::Serialize
PUBLIC	??$?6G@CAr@@QAEAAV0@ABG@Z			; CAr::operator<<<unsigned short>
PUBLIC	??$?6H@CAr@@QAEAAV0@ABH@Z			; CAr::operator<<<int>
PUBLIC	??$?5G@CAr@@QAEAAV0@AAG@Z			; CAr::operator>><unsigned short>
PUBLIC	??$?5H@CAr@@QAEAAV0@AAH@Z			; CAr::operator>><int>
PUBLIC	?_Tidy@?$vector@V?$basic_string@DU?$char_traits@D@std@@V?$allocator@D@2@@std@@V?$allocator@V?$basic_string@DU?$char_traits@D@std@@V?$allocator@D@2@@std@@@2@@std@@AAEXXZ ; std::vector<std::basic_string<char,std::char_traits<char>,std::allocator<char> >,std::allocator<std::basic_string<char,std::char_traits<char>,std::allocator<char> > > >::_Tidy
PUBLIC	?_Xlength@?$vector@V?$basic_string@DU?$char_traits@D@std@@V?$allocator@D@2@@std@@V?$allocator@V?$basic_string@DU?$char_traits@D@std@@V?$allocator@D@2@@std@@@2@@std@@CAXXZ ; std::vector<std::basic_string<char,std::char_traits<char>,std::allocator<char> >,std::allocator<std::basic_string<char,std::char_traits<char>,std::allocator<char> > > >::_Xlength
PUBLIC	?Serialize@__MINIGAME_EXT_PACKET@@UAEXAAVCAr@@@Z ; __MINIGAME_EXT_PACKET::Serialize
PUBLIC	??1__MINIGAME_EXT_PACKET@@QAE@XZ		; __MINIGAME_EXT_PACKET::~__MINIGAME_EXT_PACKET
PUBLIC	??0__MINIGAME_EXT_PACKET@@QAE@ABU0@@Z		; __MINIGAME_EXT_PACKET::__MINIGAME_EXT_PACKET
PUBLIC	??$?6I@CAr@@QAEAAV0@ABI@Z			; CAr::operator<<<unsigned int>
PUBLIC	??0CMiniGameArithmetic@@QAE@XZ			; CMiniGameArithmetic::CMiniGameArithmetic
PUBLIC	??0CMiniGameArithmetic@@QAE@PAVCMiniGameBase@@@Z ; CMiniGameArithmetic::CMiniGameArithmetic
PUBLIC	??1CMiniGameArithmetic@@UAE@XZ			; CMiniGameArithmetic::~CMiniGameArithmetic
PUBLIC	?Excute@CMiniGameArithmetic@@UAEHPAVCUser@@PAU__MINIGAME_PACKET@@@Z ; CMiniGameArithmetic::Excute
PUBLIC	?InitPrimeNumber@CMiniGameArithmetic@@AAEXXZ	; CMiniGameArithmetic::InitPrimeNumber
PUBLIC	?GetDivisor@CMiniGameArithmetic@@AAEHH@Z	; CMiniGameArithmetic::GetDivisor
PUBLIC	?MakeQuestion@CMiniGameArithmetic@@AAE?AV?$basic_string@DU?$char_traits@D@std@@V?$allocator@D@2@@std@@XZ ; CMiniGameArithmetic::MakeQuestion
PUBLIC	?Calculate@CMiniGameArithmetic@@AAEHHAAHH@Z	; CMiniGameArithmetic::Calculate
PUBLIC	?GetOperatorCh@CMiniGameArithmetic@@AAEDH@Z	; CMiniGameArithmetic::GetOperatorCh
PUBLIC	??_GCMiniGameArithmetic@@UAEPAXI@Z		; CMiniGameArithmetic::`scalar deleting destructor'
PUBLIC	??$assign@V?$_Vector_iterator@V?$_Vector_val@U?$_Simple_types@H@std@@@std@@@std@@$0A@@?$vector@HV?$allocator@H@std@@@std@@QAEXV?$_Vector_iterator@V?$_Vector_val@U?$_Simple_types@H@std@@@std@@@1@0@Z ; std::vector<int,std::allocator<int> >::assign<std::_Vector_iterator<std::_Vector_val<std::_Simple_types<int> > >,0>
PUBLIC	??$_Construct_n@ABQAV?$basic_string@DU?$char_traits@D@std@@V?$allocator@D@2@@std@@ABQAV12@@?$vector@V?$basic_string@DU?$char_traits@D@std@@V?$allocator@D@2@@std@@V?$allocator@V?$basic_string@DU?$char_traits@D@std@@V?$allocator@D@2@@std@@@2@@std@@AAEXIABQAV?$basic_string@DU?$char_traits@D@std@@V?$allocator@D@2@@1@0@Z ; std::vector<std::basic_string<char,std::char_traits<char>,std::allocator<char> >,std::allocator<std::basic_string<char,std::char_traits<char>,std::allocator<char> > > >::_Construct_n<std::basic_string<char,std::char_traits<char>,std::allocator<char> > * const &,std::basic_string<char,std::char_traits<char>,std::allocator<char> > * const &>
PUBLIC	??$_Copy_memmove_n@PAHPAH@std@@YAPAHPAHI0@Z	; std::_Copy_memmove_n<int *,int *>
PUBLIC	??$_Emplace_reallocate@V?$basic_string@DU?$char_traits@D@std@@V?$allocator@D@2@@std@@@?$vector@V?$basic_string@DU?$char_traits@D@std@@V?$allocator@D@2@@std@@V?$allocator@V?$basic_string@DU?$char_traits@D@std@@V?$allocator@D@2@@std@@@2@@std@@AAEPAV?$basic_string@DU?$char_traits@D@std@@V?$allocator@D@2@@1@QAV21@$$QAV21@@Z ; std::vector<std::basic_string<char,std::char_traits<char>,std::allocator<char> >,std::allocator<std::basic_string<char,std::char_traits<char>,std::allocator<char> > > >::_Emplace_reallocate<std::basic_string<char,std::char_traits<char>,std::allocator<char> > >
PUBLIC	??1?$_Tidy_guard@V?$vector@V?$basic_string@DU?$char_traits@D@std@@V?$allocator@D@2@@std@@V?$allocator@V?$basic_string@DU?$char_traits@D@std@@V?$allocator@D@2@@std@@@2@@std@@@std@@QAE@XZ ; std::_Tidy_guard<std::vector<std::basic_string<char,std::char_traits<char>,std::allocator<char> >,std::allocator<std::basic_string<char,std::char_traits<char>,std::allocator<char> > > > >::~_Tidy_guard<std::vector<std::basic_string<char,std::char_traits<char>,std::allocator<char> >,std::allocator<std::basic_string<char,std::char_traits<char>,std::allocator<char> > > > >
PUBLIC	??$_Copy_memmove@PAHPAH@std@@YAPAHPAH00@Z	; std::_Copy_memmove<int *,int *>
PUBLIC	??$_Copy_memmove_tail@PAH@std@@YAPAHQBDQAHII@Z	; std::_Copy_memmove_tail<int *>
PUBLIC	??$_Uninitialized_move@PAV?$basic_string@DU?$char_traits@D@std@@V?$allocator@D@2@@std@@V?$allocator@V?$basic_string@DU?$char_traits@D@std@@V?$allocator@D@2@@std@@@2@@std@@YAPAV?$basic_string@DU?$char_traits@D@std@@V?$allocator@D@2@@0@QAV10@0PAV10@AAV?$allocator@V?$basic_string@DU?$char_traits@D@std@@V?$allocator@D@2@@std@@@0@@Z ; std::_Uninitialized_move<std::basic_string<char,std::char_traits<char>,std::allocator<char> > *,std::allocator<std::basic_string<char,std::char_traits<char>,std::allocator<char> > > >
PUBLIC	??1?$_Uninitialized_backout_al@V?$allocator@V?$basic_string@DU?$char_traits@D@std@@V?$allocator@D@2@@std@@@std@@@std@@QAE@XZ ; std::_Uninitialized_backout_al<std::allocator<std::basic_string<char,std::char_traits<char>,std::allocator<char> > > >::~_Uninitialized_backout_al<std::allocator<std::basic_string<char,std::char_traits<char>,std::allocator<char> > > >
PUBLIC	?_OptionsStorage@?1??__local_stdio_printf_options@@9@4_KA ; `__local_stdio_printf_options'::`2'::_OptionsStorage
PUBLIC	??_7exception@std@@6B@				; std::exception::`vftable'
PUBLIC	??_C@_0BC@EOODALEL@Unknown?5exception@		; `string'
PUBLIC	??_7bad_alloc@std@@6B@				; std::bad_alloc::`vftable'
PUBLIC	??_7bad_array_new_length@std@@6B@		; std::bad_array_new_length::`vftable'
PUBLIC	??_C@_0BF@KINCDENJ@bad?5array?5new?5length@	; `string'
PUBLIC	??_R0?AVexception@std@@@8			; std::exception `RTTI Type Descriptor'
PUBLIC	__CT??_R0?AVexception@std@@@8??0exception@std@@QAE@ABV01@@Z12
PUBLIC	__TI3?AVbad_array_new_length@std@@
PUBLIC	__CTA3?AVbad_array_new_length@std@@
PUBLIC	??_R0?AVbad_array_new_length@std@@@8		; std::bad_array_new_length `RTTI Type Descriptor'
PUBLIC	__CT??_R0?AVbad_array_new_length@std@@@8??0bad_array_new_length@std@@QAE@ABV01@@Z12
PUBLIC	??_R0?AVbad_alloc@std@@@8			; std::bad_alloc `RTTI Type Descriptor'
PUBLIC	__CT??_R0?AVbad_alloc@std@@@8??0bad_alloc@std@@QAE@ABV01@@Z12
PUBLIC	??_C@_0BA@JFNIOLAK@string?5too?5long@		; `string'
PUBLIC	??_C@_0BA@FOIKENOD@vector?5too?5long@		; `string'
PUBLIC	??_R4exception@std@@6B@				; std::exception::`RTTI Complete Object Locator'
PUBLIC	??_R3exception@std@@8				; std::exception::`RTTI Class Hierarchy Descriptor'
PUBLIC	??_R2exception@std@@8				; std::exception::`RTTI Base Class Array'
PUBLIC	??_R1A@?0A@EA@exception@std@@8			; std::exception::`RTTI Base Class Descriptor at (0,-1,0,64)'
PUBLIC	??_R4bad_array_new_length@std@@6B@		; std::bad_array_new_length::`RTTI Complete Object Locator'
PUBLIC	??_R3bad_array_new_length@std@@8		; std::bad_array_new_length::`RTTI Class Hierarchy Descriptor'
PUBLIC	??_R2bad_array_new_length@std@@8		; std::bad_array_new_length::`RTTI Base Class Array'
PUBLIC	??_R1A@?0A@EA@bad_array_new_length@std@@8	; std::bad_array_new_length::`RTTI Base Class Descriptor at (0,-1,0,64)'
PUBLIC	??_R1A@?0A@EA@bad_alloc@std@@8			; std::bad_alloc::`RTTI Base Class Descriptor at (0,-1,0,64)'
PUBLIC	??_R3bad_alloc@std@@8				; std::bad_alloc::`RTTI Class Hierarchy Descriptor'
PUBLIC	??_R2bad_alloc@std@@8				; std::bad_alloc::`RTTI Base Class Array'
PUBLIC	??_R4bad_alloc@std@@6B@				; std::bad_alloc::`RTTI Complete Object Locator'
PUBLIC	??_7__MINIGAME_PACKET@@6B@			; __MINIGAME_PACKET::`vftable'
PUBLIC	??_7__MINIGAME_EXT_PACKET@@6B@			; __MINIGAME_EXT_PACKET::`vftable'
PUBLIC	??_7CMiniGameArithmetic@@6B@			; CMiniGameArithmetic::`vftable'
PUBLIC	??_C@_0P@PGDECEHE@?$CFd?5?$CFc?5?$CFd?5?$CFc?5?$CFd@ ; `string'
PUBLIC	??_C@_08FMFKKHOO@?$CFd?5?$CFc?5?$CFd@		; `string'
PUBLIC	??_R4__MINIGAME_PACKET@@6B@			; __MINIGAME_PACKET::`RTTI Complete Object Locator'
PUBLIC	??_R0?AU__MINIGAME_PACKET@@@8			; __MINIGAME_PACKET `RTTI Type Descriptor'
PUBLIC	??_R3__MINIGAME_PACKET@@8			; __MINIGAME_PACKET::`RTTI Class Hierarchy Descriptor'
PUBLIC	??_R2__MINIGAME_PACKET@@8			; __MINIGAME_PACKET::`RTTI Base Class Array'
PUBLIC	??_R1A@?0A@EA@__MINIGAME_PACKET@@8		; __MINIGAME_PACKET::`RTTI Base Class Descriptor at (0,-1,0,64)'
PUBLIC	??_R4__MINIGAME_EXT_PACKET@@6B@			; __MINIGAME_EXT_PACKET::`RTTI Complete Object Locator'
PUBLIC	??_R0?AU__MINIGAME_EXT_PACKET@@@8		; __MINIGAME_EXT_PACKET `RTTI Type Descriptor'
PUBLIC	??_R3__MINIGAME_EXT_PACKET@@8			; __MINIGAME_EXT_PACKET::`RTTI Class Hierarchy Descriptor'
PUBLIC	??_R2__MINIGAME_EXT_PACKET@@8			; __MINIGAME_EXT_PACKET::`RTTI Base Class Array'
PUBLIC	??_R1A@?0A@EA@__MINIGAME_EXT_PACKET@@8		; __MINIGAME_EXT_PACKET::`RTTI Base Class Descriptor at (0,-1,0,64)'
PUBLIC	??_R4CMiniGameArithmetic@@6B@			; CMiniGameArithmetic::`RTTI Complete Object Locator'
PUBLIC	??_R0?AVCMiniGameArithmetic@@@8			; CMiniGameArithmetic `RTTI Type Descriptor'
PUBLIC	??_R3CMiniGameArithmetic@@8			; CMiniGameArithmetic::`RTTI Class Hierarchy Descriptor'
PUBLIC	??_R2CMiniGameArithmetic@@8			; CMiniGameArithmetic::`RTTI Base Class Array'
PUBLIC	??_R1A@?0A@EA@CMiniGameArithmetic@@8		; CMiniGameArithmetic::`RTTI Base Class Descriptor at (0,-1,0,64)'
PUBLIC	??_R1A@?0A@EA@CMiniGameBase@@8			; CMiniGameBase::`RTTI Base Class Descriptor at (0,-1,0,64)'
PUBLIC	??_R0?AVCMiniGameBase@@@8			; CMiniGameBase `RTTI Type Descriptor'
PUBLIC	??_R3CMiniGameBase@@8				; CMiniGameBase::`RTTI Class Hierarchy Descriptor'
PUBLIC	??_R2CMiniGameBase@@8				; CMiniGameBase::`RTTI Base Class Array'
EXTRN	??2@YAPAXI@Z:PROC				; operator new
EXTRN	??3@YAXPAXI@Z:PROC				; operator delete
EXTRN	__invoke_watson:PROC
EXTRN	___stdio_common_vsprintf:PROC
EXTRN	___std_exception_copy:PROC
EXTRN	___std_exception_destroy:PROC
EXTRN	??_Eexception@std@@UAEPAXI@Z:PROC		; std::exception::`vector deleting destructor'
EXTRN	??_Ebad_alloc@std@@UAEPAXI@Z:PROC		; std::bad_alloc::`vector deleting destructor'
EXTRN	??_Ebad_array_new_length@std@@UAEPAXI@Z:PROC	; std::bad_array_new_length::`vector deleting destructor'
EXTRN	?_Xlength_error@std@@YAXPBD@Z:PROC		; std::_Xlength_error
EXTRN	?xRandom@@YAKKK@Z:PROC				; xRandom
EXTRN	?CheckBuf@CAr@@QAEXI@Z:PROC			; CAr::CheckBuf
EXTRN	?WriteString@CAr@@QAEXPBD@Z:PROC		; CAr::WriteString
EXTRN	?ReadString@CAr@@QAEPADPADH@Z:PROC		; CAr::ReadString
EXTRN	??0CMiniGameBase@@QAE@XZ:PROC			; CMiniGameBase::CMiniGameBase
EXTRN	??1CMiniGameBase@@UAE@XZ:PROC			; CMiniGameBase::~CMiniGameBase
EXTRN	?SendExtPacket@CMiniGameBase@@QAEXPAVCUser@@U__MINIGAME_EXT_PACKET@@@Z:PROC ; CMiniGameBase::SendExtPacket
EXTRN	??_ECMiniGameArithmetic@@UAEPAXI@Z:PROC		; CMiniGameArithmetic::`vector deleting destructor'
EXTRN	@__security_check_cookie@4:PROC
EXTRN	__CxxThrowException@8:PROC
EXTRN	___CxxFrameHandler3:PROC
EXTRN	_memcpy:PROC
EXTRN	_memmove:PROC
EXTRN	_memset:PROC
EXTRN	??_7type_info@@6B@:QWORD			; type_info::`vftable'
EXTRN	?g_next@@3KA:DWORD				; g_next
EXTRN	___security_cookie:DWORD
EXTRN	__fltused:DWORD
;	COMDAT ?_OptionsStorage@?1??__local_stdio_printf_options@@9@4_KA
_BSS	SEGMENT
?_OptionsStorage@?1??__local_stdio_printf_options@@9@4_KA DQ 01H DUP (?) ; `__local_stdio_printf_options'::`2'::_OptionsStorage
_BSS	ENDS
;	COMDAT ??_R2CMiniGameBase@@8
rdata$r	SEGMENT
??_R2CMiniGameBase@@8 DD FLAT:??_R1A@?0A@EA@CMiniGameBase@@8 ; CMiniGameBase::`RTTI Base Class Array'
rdata$r	ENDS
;	COMDAT ??_R3CMiniGameBase@@8
rdata$r	SEGMENT
??_R3CMiniGameBase@@8 DD 00H				; CMiniGameBase::`RTTI Class Hierarchy Descriptor'
	DD	00H
	DD	01H
	DD	FLAT:??_R2CMiniGameBase@@8
rdata$r	ENDS
;	COMDAT ??_R0?AVCMiniGameBase@@@8
data$rs	SEGMENT
??_R0?AVCMiniGameBase@@@8 DD FLAT:??_7type_info@@6B@	; CMiniGameBase `RTTI Type Descriptor'
	DD	00H
	DB	'.?AVCMiniGameBase@@', 00H
data$rs	ENDS
;	COMDAT ??_R1A@?0A@EA@CMiniGameBase@@8
rdata$r	SEGMENT
??_R1A@?0A@EA@CMiniGameBase@@8 DD FLAT:??_R0?AVCMiniGameBase@@@8 ; CMiniGameBase::`RTTI Base Class Descriptor at (0,-1,0,64)'
	DD	00H
	DD	00H
	DD	0ffffffffH
	DD	00H
	DD	040H
	DD	FLAT:??_R3CMiniGameBase@@8
rdata$r	ENDS
;	COMDAT ??_R1A@?0A@EA@CMiniGameArithmetic@@8
rdata$r	SEGMENT
??_R1A@?0A@EA@CMiniGameArithmetic@@8 DD FLAT:??_R0?AVCMiniGameArithmetic@@@8 ; CMiniGameArithmetic::`RTTI Base Class Descriptor at (0,-1,0,64)'
	DD	01H
	DD	00H
	DD	0ffffffffH
	DD	00H
	DD	040H
	DD	FLAT:??_R3CMiniGameArithmetic@@8
rdata$r	ENDS
;	COMDAT ??_R2CMiniGameArithmetic@@8
rdata$r	SEGMENT
??_R2CMiniGameArithmetic@@8 DD FLAT:??_R1A@?0A@EA@CMiniGameArithmetic@@8 ; CMiniGameArithmetic::`RTTI Base Class Array'
	DD	FLAT:??_R1A@?0A@EA@CMiniGameBase@@8
rdata$r	ENDS
;	COMDAT ??_R3CMiniGameArithmetic@@8
rdata$r	SEGMENT
??_R3CMiniGameArithmetic@@8 DD 00H			; CMiniGameArithmetic::`RTTI Class Hierarchy Descriptor'
	DD	00H
	DD	02H
	DD	FLAT:??_R2CMiniGameArithmetic@@8
rdata$r	ENDS
;	COMDAT ??_R0?AVCMiniGameArithmetic@@@8
data$rs	SEGMENT
??_R0?AVCMiniGameArithmetic@@@8 DD FLAT:??_7type_info@@6B@ ; CMiniGameArithmetic `RTTI Type Descriptor'
	DD	00H
	DB	'.?AVCMiniGameArithmetic@@', 00H
data$rs	ENDS
;	COMDAT ??_R4CMiniGameArithmetic@@6B@
rdata$r	SEGMENT
??_R4CMiniGameArithmetic@@6B@ DD 00H			; CMiniGameArithmetic::`RTTI Complete Object Locator'
	DD	00H
	DD	00H
	DD	FLAT:??_R0?AVCMiniGameArithmetic@@@8
	DD	FLAT:??_R3CMiniGameArithmetic@@8
rdata$r	ENDS
;	COMDAT ??_R1A@?0A@EA@__MINIGAME_EXT_PACKET@@8
rdata$r	SEGMENT
??_R1A@?0A@EA@__MINIGAME_EXT_PACKET@@8 DD FLAT:??_R0?AU__MINIGAME_EXT_PACKET@@@8 ; __MINIGAME_EXT_PACKET::`RTTI Base Class Descriptor at (0,-1,0,64)'
	DD	01H
	DD	00H
	DD	0ffffffffH
	DD	00H
	DD	040H
	DD	FLAT:??_R3__MINIGAME_EXT_PACKET@@8
rdata$r	ENDS
;	COMDAT ??_R2__MINIGAME_EXT_PACKET@@8
rdata$r	SEGMENT
??_R2__MINIGAME_EXT_PACKET@@8 DD FLAT:??_R1A@?0A@EA@__MINIGAME_EXT_PACKET@@8 ; __MINIGAME_EXT_PACKET::`RTTI Base Class Array'
	DD	FLAT:??_R1A@?0A@EA@__MINIGAME_PACKET@@8
rdata$r	ENDS
;	COMDAT ??_R3__MINIGAME_EXT_PACKET@@8
rdata$r	SEGMENT
??_R3__MINIGAME_EXT_PACKET@@8 DD 00H			; __MINIGAME_EXT_PACKET::`RTTI Class Hierarchy Descriptor'
	DD	00H
	DD	02H
	DD	FLAT:??_R2__MINIGAME_EXT_PACKET@@8
rdata$r	ENDS
;	COMDAT ??_R0?AU__MINIGAME_EXT_PACKET@@@8
data$rs	SEGMENT
??_R0?AU__MINIGAME_EXT_PACKET@@@8 DD FLAT:??_7type_info@@6B@ ; __MINIGAME_EXT_PACKET `RTTI Type Descriptor'
	DD	00H
	DB	'.?AU__MINIGAME_EXT_PACKET@@', 00H
data$rs	ENDS
;	COMDAT ??_R4__MINIGAME_EXT_PACKET@@6B@
rdata$r	SEGMENT
??_R4__MINIGAME_EXT_PACKET@@6B@ DD 00H			; __MINIGAME_EXT_PACKET::`RTTI Complete Object Locator'
	DD	00H
	DD	00H
	DD	FLAT:??_R0?AU__MINIGAME_EXT_PACKET@@@8
	DD	FLAT:??_R3__MINIGAME_EXT_PACKET@@8
rdata$r	ENDS
;	COMDAT ??_R1A@?0A@EA@__MINIGAME_PACKET@@8
rdata$r	SEGMENT
??_R1A@?0A@EA@__MINIGAME_PACKET@@8 DD FLAT:??_R0?AU__MINIGAME_PACKET@@@8 ; __MINIGAME_PACKET::`RTTI Base Class Descriptor at (0,-1,0,64)'
	DD	00H
	DD	00H
	DD	0ffffffffH
	DD	00H
	DD	040H
	DD	FLAT:??_R3__MINIGAME_PACKET@@8
rdata$r	ENDS
;	COMDAT ??_R2__MINIGAME_PACKET@@8
rdata$r	SEGMENT
??_R2__MINIGAME_PACKET@@8 DD FLAT:??_R1A@?0A@EA@__MINIGAME_PACKET@@8 ; __MINIGAME_PACKET::`RTTI Base Class Array'
rdata$r	ENDS
;	COMDAT ??_R3__MINIGAME_PACKET@@8
rdata$r	SEGMENT
??_R3__MINIGAME_PACKET@@8 DD 00H			; __MINIGAME_PACKET::`RTTI Class Hierarchy Descriptor'
	DD	00H
	DD	01H
	DD	FLAT:??_R2__MINIGAME_PACKET@@8
rdata$r	ENDS
;	COMDAT ??_R0?AU__MINIGAME_PACKET@@@8
data$rs	SEGMENT
??_R0?AU__MINIGAME_PACKET@@@8 DD FLAT:??_7type_info@@6B@ ; __MINIGAME_PACKET `RTTI Type Descriptor'
	DD	00H
	DB	'.?AU__MINIGAME_PACKET@@', 00H
data$rs	ENDS
;	COMDAT ??_R4__MINIGAME_PACKET@@6B@
rdata$r	SEGMENT
??_R4__MINIGAME_PACKET@@6B@ DD 00H			; __MINIGAME_PACKET::`RTTI Complete Object Locator'
	DD	00H
	DD	00H
	DD	FLAT:??_R0?AU__MINIGAME_PACKET@@@8
	DD	FLAT:??_R3__MINIGAME_PACKET@@8
rdata$r	ENDS
;	COMDAT ??_C@_08FMFKKHOO@?$CFd?5?$CFc?5?$CFd@
CONST	SEGMENT
??_C@_08FMFKKHOO@?$CFd?5?$CFc?5?$CFd@ DB '%d %c %d', 00H ; `string'
CONST	ENDS
;	COMDAT ??_C@_0P@PGDECEHE@?$CFd?5?$CFc?5?$CFd?5?$CFc?5?$CFd@
CONST	SEGMENT
??_C@_0P@PGDECEHE@?$CFd?5?$CFc?5?$CFd?5?$CFc?5?$CFd@ DB '%d %c %d %c %d', 00H ; `string'
CONST	ENDS
;	COMDAT ??_7CMiniGameArithmetic@@6B@
CONST	SEGMENT
??_7CMiniGameArithmetic@@6B@ DD FLAT:??_R4CMiniGameArithmetic@@6B@ ; CMiniGameArithmetic::`vftable'
	DD	FLAT:??_ECMiniGameArithmetic@@UAEPAXI@Z
	DD	FLAT:?Excute@CMiniGameArithmetic@@UAEHPAVCUser@@PAU__MINIGAME_PACKET@@@Z
CONST	ENDS
;	COMDAT ??_7__MINIGAME_EXT_PACKET@@6B@
CONST	SEGMENT
??_7__MINIGAME_EXT_PACKET@@6B@ DD FLAT:??_R4__MINIGAME_EXT_PACKET@@6B@ ; __MINIGAME_EXT_PACKET::`vftable'
	DD	FLAT:?Serialize@__MINIGAME_EXT_PACKET@@UAEXAAVCAr@@@Z
CONST	ENDS
;	COMDAT ??_7__MINIGAME_PACKET@@6B@
CONST	SEGMENT
??_7__MINIGAME_PACKET@@6B@ DD FLAT:??_R4__MINIGAME_PACKET@@6B@ ; __MINIGAME_PACKET::`vftable'
	DD	FLAT:?Serialize@__MINIGAME_PACKET@@UAEXAAVCAr@@@Z
CONST	ENDS
;	COMDAT ??_R4bad_alloc@std@@6B@
rdata$r	SEGMENT
??_R4bad_alloc@std@@6B@ DD 00H				; std::bad_alloc::`RTTI Complete Object Locator'
	DD	00H
	DD	00H
	DD	FLAT:??_R0?AVbad_alloc@std@@@8
	DD	FLAT:??_R3bad_alloc@std@@8
rdata$r	ENDS
;	COMDAT ??_R2bad_alloc@std@@8
rdata$r	SEGMENT
??_R2bad_alloc@std@@8 DD FLAT:??_R1A@?0A@EA@bad_alloc@std@@8 ; std::bad_alloc::`RTTI Base Class Array'
	DD	FLAT:??_R1A@?0A@EA@exception@std@@8
rdata$r	ENDS
;	COMDAT ??_R3bad_alloc@std@@8
rdata$r	SEGMENT
??_R3bad_alloc@std@@8 DD 00H				; std::bad_alloc::`RTTI Class Hierarchy Descriptor'
	DD	00H
	DD	02H
	DD	FLAT:??_R2bad_alloc@std@@8
rdata$r	ENDS
;	COMDAT ??_R1A@?0A@EA@bad_alloc@std@@8
rdata$r	SEGMENT
??_R1A@?0A@EA@bad_alloc@std@@8 DD FLAT:??_R0?AVbad_alloc@std@@@8 ; std::bad_alloc::`RTTI Base Class Descriptor at (0,-1,0,64)'
	DD	01H
	DD	00H
	DD	0ffffffffH
	DD	00H
	DD	040H
	DD	FLAT:??_R3bad_alloc@std@@8
rdata$r	ENDS
;	COMDAT ??_R1A@?0A@EA@bad_array_new_length@std@@8
rdata$r	SEGMENT
??_R1A@?0A@EA@bad_array_new_length@std@@8 DD FLAT:??_R0?AVbad_array_new_length@std@@@8 ; std::bad_array_new_length::`RTTI Base Class Descriptor at (0,-1,0,64)'
	DD	02H
	DD	00H
	DD	0ffffffffH
	DD	00H
	DD	040H
	DD	FLAT:??_R3bad_array_new_length@std@@8
rdata$r	ENDS
;	COMDAT ??_R2bad_array_new_length@std@@8
rdata$r	SEGMENT
??_R2bad_array_new_length@std@@8 DD FLAT:??_R1A@?0A@EA@bad_array_new_length@std@@8 ; std::bad_array_new_length::`RTTI Base Class Array'
	DD	FLAT:??_R1A@?0A@EA@bad_alloc@std@@8
	DD	FLAT:??_R1A@?0A@EA@exception@std@@8
rdata$r	ENDS
;	COMDAT ??_R3bad_array_new_length@std@@8
rdata$r	SEGMENT
??_R3bad_array_new_length@std@@8 DD 00H			; std::bad_array_new_length::`RTTI Class Hierarchy Descriptor'
	DD	00H
	DD	03H
	DD	FLAT:??_R2bad_array_new_length@std@@8
rdata$r	ENDS
;	COMDAT ??_R4bad_array_new_length@std@@6B@
rdata$r	SEGMENT
??_R4bad_array_new_length@std@@6B@ DD 00H		; std::bad_array_new_length::`RTTI Complete Object Locator'
	DD	00H
	DD	00H
	DD	FLAT:??_R0?AVbad_array_new_length@std@@@8
	DD	FLAT:??_R3bad_array_new_length@std@@8
rdata$r	ENDS
;	COMDAT ??_R1A@?0A@EA@exception@std@@8
rdata$r	SEGMENT
??_R1A@?0A@EA@exception@std@@8 DD FLAT:??_R0?AVexception@std@@@8 ; std::exception::`RTTI Base Class Descriptor at (0,-1,0,64)'
	DD	00H
	DD	00H
	DD	0ffffffffH
	DD	00H
	DD	040H
	DD	FLAT:??_R3exception@std@@8
rdata$r	ENDS
;	COMDAT ??_R2exception@std@@8
rdata$r	SEGMENT
??_R2exception@std@@8 DD FLAT:??_R1A@?0A@EA@exception@std@@8 ; std::exception::`RTTI Base Class Array'
rdata$r	ENDS
;	COMDAT ??_R3exception@std@@8
rdata$r	SEGMENT
??_R3exception@std@@8 DD 00H				; std::exception::`RTTI Class Hierarchy Descriptor'
	DD	00H
	DD	01H
	DD	FLAT:??_R2exception@std@@8
rdata$r	ENDS
;	COMDAT ??_R4exception@std@@6B@
rdata$r	SEGMENT
??_R4exception@std@@6B@ DD 00H				; std::exception::`RTTI Complete Object Locator'
	DD	00H
	DD	00H
	DD	FLAT:??_R0?AVexception@std@@@8
	DD	FLAT:??_R3exception@std@@8
rdata$r	ENDS
;	COMDAT ??_C@_0BA@FOIKENOD@vector?5too?5long@
CONST	SEGMENT
??_C@_0BA@FOIKENOD@vector?5too?5long@ DB 'vector too long', 00H ; `string'
CONST	ENDS
;	COMDAT ??_C@_0BA@JFNIOLAK@string?5too?5long@
CONST	SEGMENT
??_C@_0BA@JFNIOLAK@string?5too?5long@ DB 'string too long', 00H ; `string'
CONST	ENDS
;	COMDAT __CT??_R0?AVbad_alloc@std@@@8??0bad_alloc@std@@QAE@ABV01@@Z12
xdata$x	SEGMENT
__CT??_R0?AVbad_alloc@std@@@8??0bad_alloc@std@@QAE@ABV01@@Z12 DD 010H
	DD	FLAT:??_R0?AVbad_alloc@std@@@8
	DD	00H
	DD	0ffffffffH
	ORG $+4
	DD	0cH
	DD	FLAT:??0bad_alloc@std@@QAE@ABV01@@Z
xdata$x	ENDS
;	COMDAT ??_R0?AVbad_alloc@std@@@8
data$r	SEGMENT
??_R0?AVbad_alloc@std@@@8 DD FLAT:??_7type_info@@6B@	; std::bad_alloc `RTTI Type Descriptor'
	DD	00H
	DB	'.?AVbad_alloc@std@@', 00H
data$r	ENDS
;	COMDAT __CT??_R0?AVbad_array_new_length@std@@@8??0bad_array_new_length@std@@QAE@ABV01@@Z12
xdata$x	SEGMENT
__CT??_R0?AVbad_array_new_length@std@@@8??0bad_array_new_length@std@@QAE@ABV01@@Z12 DD 00H
	DD	FLAT:??_R0?AVbad_array_new_length@std@@@8
	DD	00H
	DD	0ffffffffH
	ORG $+4
	DD	0cH
	DD	FLAT:??0bad_array_new_length@std@@QAE@ABV01@@Z
xdata$x	ENDS
;	COMDAT ??_R0?AVbad_array_new_length@std@@@8
data$r	SEGMENT
??_R0?AVbad_array_new_length@std@@@8 DD FLAT:??_7type_info@@6B@ ; std::bad_array_new_length `RTTI Type Descriptor'
	DD	00H
	DB	'.?AVbad_array_new_length@std@@', 00H
data$r	ENDS
;	COMDAT __CTA3?AVbad_array_new_length@std@@
xdata$x	SEGMENT
__CTA3?AVbad_array_new_length@std@@ DD 03H
	DD	FLAT:__CT??_R0?AVbad_array_new_length@std@@@8??0bad_array_new_length@std@@QAE@ABV01@@Z12
	DD	FLAT:__CT??_R0?AVbad_alloc@std@@@8??0bad_alloc@std@@QAE@ABV01@@Z12
	DD	FLAT:__CT??_R0?AVexception@std@@@8??0exception@std@@QAE@ABV01@@Z12
xdata$x	ENDS
;	COMDAT __TI3?AVbad_array_new_length@std@@
xdata$x	SEGMENT
__TI3?AVbad_array_new_length@std@@ DD 00H
	DD	FLAT:??1bad_array_new_length@std@@UAE@XZ
	DD	00H
	DD	FLAT:__CTA3?AVbad_array_new_length@std@@
xdata$x	ENDS
;	COMDAT __CT??_R0?AVexception@std@@@8??0exception@std@@QAE@ABV01@@Z12
xdata$x	SEGMENT
__CT??_R0?AVexception@std@@@8??0exception@std@@QAE@ABV01@@Z12 DD 00H
	DD	FLAT:??_R0?AVexception@std@@@8
	DD	00H
	DD	0ffffffffH
	ORG $+4
	DD	0cH
	DD	FLAT:??0exception@std@@QAE@ABV01@@Z
xdata$x	ENDS
;	COMDAT ??_R0?AVexception@std@@@8
data$r	SEGMENT
??_R0?AVexception@std@@@8 DD FLAT:??_7type_info@@6B@	; std::exception `RTTI Type Descriptor'
	DD	00H
	DB	'.?AVexception@std@@', 00H
data$r	ENDS
;	COMDAT ??_C@_0BF@KINCDENJ@bad?5array?5new?5length@
CONST	SEGMENT
??_C@_0BF@KINCDENJ@bad?5array?5new?5length@ DB 'bad array new length', 00H ; `string'
CONST	ENDS
;	COMDAT ??_7bad_array_new_length@std@@6B@
CONST	SEGMENT
??_7bad_array_new_length@std@@6B@ DD FLAT:??_R4bad_array_new_length@std@@6B@ ; std::bad_array_new_length::`vftable'
	DD	FLAT:??_Ebad_array_new_length@std@@UAEPAXI@Z
	DD	FLAT:?what@exception@std@@UBEPBDXZ
CONST	ENDS
;	COMDAT ??_7bad_alloc@std@@6B@
CONST	SEGMENT
??_7bad_alloc@std@@6B@ DD FLAT:??_R4bad_alloc@std@@6B@	; std::bad_alloc::`vftable'
	DD	FLAT:??_Ebad_alloc@std@@UAEPAXI@Z
	DD	FLAT:?what@exception@std@@UBEPBDXZ
CONST	ENDS
;	COMDAT ??_C@_0BC@EOODALEL@Unknown?5exception@
CONST	SEGMENT
??_C@_0BC@EOODALEL@Unknown?5exception@ DB 'Unknown exception', 00H ; `string'
CONST	ENDS
;	COMDAT ??_7exception@std@@6B@
CONST	SEGMENT
??_7exception@std@@6B@ DD FLAT:??_R4exception@std@@6B@	; std::exception::`vftable'
	DD	FLAT:??_Eexception@std@@UAEPAXI@Z
	DD	FLAT:?what@exception@std@@UBEPBDXZ
CONST	ENDS
;	COMDAT xdata$x
xdata$x	SEGMENT
__unwindtable$??$_Uninitialized_copy@PAV?$basic_string@DU?$char_traits@D@std@@V?$allocator@D@2@@std@@PAV12@V?$allocator@V?$basic_string@DU?$char_traits@D@std@@V?$allocator@D@2@@std@@@2@@std@@YAPAV?$basic_string@DU?$char_traits@D@std@@V?$allocator@D@2@@0@PAV10@00AAV?$allocator@V?$basic_string@DU?$char_traits@D@std@@V?$allocator@D@2@@std@@@0@@Z DD 0ffffffffH
	DD	FLAT:__unwindfunclet$??$_Uninitialized_copy@PAV?$basic_string@DU?$char_traits@D@std@@V?$allocator@D@2@@std@@PAV12@V?$allocator@V?$basic_string@DU?$char_traits@D@std@@V?$allocator@D@2@@std@@@2@@std@@YAPAV?$basic_string@DU?$char_traits@D@std@@V?$allocator@D@2@@0@PAV10@00AAV?$allocator@V?$basic_string@DU?$char_traits@D@std@@V?$allocator@D@2@@std@@@0@@Z$0
__ehfuncinfo$??$_Uninitialized_copy@PAV?$basic_string@DU?$char_traits@D@std@@V?$allocator@D@2@@std@@PAV12@V?$allocator@V?$basic_string@DU?$char_traits@D@std@@V?$allocator@D@2@@std@@@2@@std@@YAPAV?$basic_string@DU?$char_traits@D@std@@V?$allocator@D@2@@0@PAV10@00AAV?$allocator@V?$basic_string@DU?$char_traits@D@std@@V?$allocator@D@2@@std@@@0@@Z DD 019930522H
	DD	01H
	DD	FLAT:__unwindtable$??$_Uninitialized_copy@PAV?$basic_string@DU?$char_traits@D@std@@V?$allocator@D@2@@std@@PAV12@V?$allocator@V?$basic_string@DU?$char_traits@D@std@@V?$allocator@D@2@@std@@@2@@std@@YAPAV?$basic_string@DU?$char_traits@D@std@@V?$allocator@D@2@@0@PAV10@00AAV?$allocator@V?$basic_string@DU?$char_traits@D@std@@V?$allocator@D@2@@std@@@0@@Z
	DD	2 DUP(00H)
	DD	2 DUP(00H)
	DD	00H
	DD	01H
xdata$x	ENDS
;	COMDAT xdata$x
xdata$x	SEGMENT
__unwindtable$??$_Construct_n@ABQAV?$basic_string@DU?$char_traits@D@std@@V?$allocator@D@2@@std@@ABQAV12@@?$vector@V?$basic_string@DU?$char_traits@D@std@@V?$allocator@D@2@@std@@V?$allocator@V?$basic_string@DU?$char_traits@D@std@@V?$allocator@D@2@@std@@@2@@std@@AAEXIABQAV?$basic_string@DU?$char_traits@D@std@@V?$allocator@D@2@@1@0@Z DD 0ffffffffH
	DD	FLAT:__unwindfunclet$??$_Construct_n@ABQAV?$basic_string@DU?$char_traits@D@std@@V?$allocator@D@2@@std@@ABQAV12@@?$vector@V?$basic_string@DU?$char_traits@D@std@@V?$allocator@D@2@@std@@V?$allocator@V?$basic_string@DU?$char_traits@D@std@@V?$allocator@D@2@@std@@@2@@std@@AAEXIABQAV?$basic_string@DU?$char_traits@D@std@@V?$allocator@D@2@@1@0@Z$0
	DD	00H
	DD	FLAT:__unwindfunclet$??$_Construct_n@ABQAV?$basic_string@DU?$char_traits@D@std@@V?$allocator@D@2@@std@@ABQAV12@@?$vector@V?$basic_string@DU?$char_traits@D@std@@V?$allocator@D@2@@std@@V?$allocator@V?$basic_string@DU?$char_traits@D@std@@V?$allocator@D@2@@std@@@2@@std@@AAEXIABQAV?$basic_string@DU?$char_traits@D@std@@V?$allocator@D@2@@1@0@Z$1
__ehfuncinfo$??$_Construct_n@ABQAV?$basic_string@DU?$char_traits@D@std@@V?$allocator@D@2@@std@@ABQAV12@@?$vector@V?$basic_string@DU?$char_traits@D@std@@V?$allocator@D@2@@std@@V?$allocator@V?$basic_string@DU?$char_traits@D@std@@V?$allocator@D@2@@std@@@2@@std@@AAEXIABQAV?$basic_string@DU?$char_traits@D@std@@V?$allocator@D@2@@1@0@Z DD 019930522H
	DD	02H
	DD	FLAT:__unwindtable$??$_Construct_n@ABQAV?$basic_string@DU?$char_traits@D@std@@V?$allocator@D@2@@std@@ABQAV12@@?$vector@V?$basic_string@DU?$char_traits@D@std@@V?$allocator@D@2@@std@@V?$allocator@V?$basic_string@DU?$char_traits@D@std@@V?$allocator@D@2@@std@@@2@@std@@AAEXIABQAV?$basic_string@DU?$char_traits@D@std@@V?$allocator@D@2@@1@0@Z
	DD	2 DUP(00H)
	DD	2 DUP(00H)
	DD	00H
	DD	01H
xdata$x	ENDS
;	COMDAT xdata$x
xdata$x	SEGMENT
__unwindtable$?GetDivisor@CMiniGameArithmetic@@AAEHH@Z DD 0ffffffffH
	DD	FLAT:__unwindfunclet$?GetDivisor@CMiniGameArithmetic@@AAEHH@Z$0
__ehfuncinfo$?GetDivisor@CMiniGameArithmetic@@AAEHH@Z DD 019930522H
	DD	01H
	DD	FLAT:__unwindtable$?GetDivisor@CMiniGameArithmetic@@AAEHH@Z
	DD	2 DUP(00H)
	DD	2 DUP(00H)
	DD	00H
	DD	01H
xdata$x	ENDS
;	COMDAT xdata$x
xdata$x	SEGMENT
__unwindtable$?Excute@CMiniGameArithmetic@@UAEHPAVCUser@@PAU__MINIGAME_PACKET@@@Z DD 0ffffffffH
	DD	FLAT:__unwindfunclet$?Excute@CMiniGameArithmetic@@UAEHPAVCUser@@PAU__MINIGAME_PACKET@@@Z$0
	DD	00H
	DD	FLAT:__unwindfunclet$?Excute@CMiniGameArithmetic@@UAEHPAVCUser@@PAU__MINIGAME_PACKET@@@Z$1
	DD	00H
	DD	FLAT:__unwindfunclet$?Excute@CMiniGameArithmetic@@UAEHPAVCUser@@PAU__MINIGAME_PACKET@@@Z$3
	DD	00H
	DD	FLAT:__unwindfunclet$?Excute@CMiniGameArithmetic@@UAEHPAVCUser@@PAU__MINIGAME_PACKET@@@Z$4
__ehfuncinfo$?Excute@CMiniGameArithmetic@@UAEHPAVCUser@@PAU__MINIGAME_PACKET@@@Z DD 019930522H
	DD	04H
	DD	FLAT:__unwindtable$?Excute@CMiniGameArithmetic@@UAEHPAVCUser@@PAU__MINIGAME_PACKET@@@Z
	DD	2 DUP(00H)
	DD	2 DUP(00H)
	DD	00H
	DD	01H
xdata$x	ENDS
;	COMDAT xdata$x
xdata$x	SEGMENT
__unwindtable$??0CMiniGameArithmetic@@QAE@PAVCMiniGameBase@@@Z DD 0ffffffffH
	DD	FLAT:__unwindfunclet$??0CMiniGameArithmetic@@QAE@PAVCMiniGameBase@@@Z$0
	DD	00H
	DD	FLAT:__unwindfunclet$??0CMiniGameArithmetic@@QAE@PAVCMiniGameBase@@@Z$1
__ehfuncinfo$??0CMiniGameArithmetic@@QAE@PAVCMiniGameBase@@@Z DD 019930522H
	DD	02H
	DD	FLAT:__unwindtable$??0CMiniGameArithmetic@@QAE@PAVCMiniGameBase@@@Z
	DD	2 DUP(00H)
	DD	2 DUP(00H)
	DD	00H
	DD	01H
xdata$x	ENDS
;	COMDAT xdata$x
xdata$x	SEGMENT
__unwindtable$??0CMiniGameArithmetic@@QAE@XZ DD 0ffffffffH
	DD	FLAT:__unwindfunclet$??0CMiniGameArithmetic@@QAE@XZ$0
	DD	00H
	DD	FLAT:__unwindfunclet$??0CMiniGameArithmetic@@QAE@XZ$1
__ehfuncinfo$??0CMiniGameArithmetic@@QAE@XZ DD 019930522H
	DD	02H
	DD	FLAT:__unwindtable$??0CMiniGameArithmetic@@QAE@XZ
	DD	2 DUP(00H)
	DD	2 DUP(00H)
	DD	00H
	DD	01H
xdata$x	ENDS
;	COMDAT xdata$x
xdata$x	SEGMENT
__unwindtable$?Serialize@__MINIGAME_EXT_PACKET@@UAEXAAVCAr@@@Z DD 0ffffffffH
	DD	FLAT:__unwindfunclet$?Serialize@__MINIGAME_EXT_PACKET@@UAEXAAVCAr@@@Z$0
__ehfuncinfo$?Serialize@__MINIGAME_EXT_PACKET@@UAEXAAVCAr@@@Z DD 019930522H
	DD	01H
	DD	FLAT:__unwindtable$?Serialize@__MINIGAME_EXT_PACKET@@UAEXAAVCAr@@@Z
	DD	2 DUP(00H)
	DD	2 DUP(00H)
	DD	00H
	DD	01H
xdata$x	ENDS
; Function compile flags: /Ogtp
; File C:\Program Files\Microsoft Visual Studio\2022\Professional\VC\Tools\MSVC\14.44.35207\include\xmemory
;	COMDAT ??1?$_Uninitialized_backout_al@V?$allocator@V?$basic_string@DU?$char_traits@D@std@@V?$allocator@D@2@@std@@@std@@@std@@QAE@XZ
_TEXT	SEGMENT
??1?$_Uninitialized_backout_al@V?$allocator@V?$basic_string@DU?$char_traits@D@std@@V?$allocator@D@2@@std@@@std@@@std@@QAE@XZ PROC ; std::_Uninitialized_backout_al<std::allocator<std::basic_string<char,std::char_traits<char>,std::allocator<char> > > >::~_Uninitialized_backout_al<std::allocator<std::basic_string<char,std::char_traits<char>,std::allocator<char> > > >, COMDAT
; _this$ = ecx

; 1838 :     _CONSTEXPR20 ~_Uninitialized_backout_al() {

  00000	56		 push	 esi

; 1839 :         _STD _Destroy_range(_First, _Last, _Al);

  00001	8b 31		 mov	 esi, DWORD PTR [ecx]
  00003	57		 push	 edi
  00004	8b 79 04	 mov	 edi, DWORD PTR [ecx+4]

; 1102 :         for (; _First != _Last; ++_First) {

  00007	3b f7		 cmp	 esi, edi
  00009	74 13		 je	 SHORT $LN6@Uninitiali
  0000b	0f 1f 44 00 00	 npad	 5
$LL7@Uninitiali:
  00010	8b ce		 mov	 ecx, esi
  00012	e8 00 00 00 00	 call	 ??1?$basic_string@DU?$char_traits@D@std@@V?$allocator@D@2@@std@@QAE@XZ ; std::basic_string<char,std::char_traits<char>,std::allocator<char> >::~basic_string<char,std::char_traits<char>,std::allocator<char> >
  00017	83 c6 18	 add	 esi, 24			; 00000018H
  0001a	3b f7		 cmp	 esi, edi
  0001c	75 f2		 jne	 SHORT $LL7@Uninitiali
$LN6@Uninitiali:
  0001e	5f		 pop	 edi

; 1840 :     }

  0001f	5e		 pop	 esi
  00020	c3		 ret	 0
??1?$_Uninitialized_backout_al@V?$allocator@V?$basic_string@DU?$char_traits@D@std@@V?$allocator@D@2@@std@@@std@@@std@@QAE@XZ ENDP ; std::_Uninitialized_backout_al<std::allocator<std::basic_string<char,std::char_traits<char>,std::allocator<char> > > >::~_Uninitialized_backout_al<std::allocator<std::basic_string<char,std::char_traits<char>,std::allocator<char> > > >
_TEXT	ENDS
; Function compile flags: /Ogtp
; File C:\Program Files\Microsoft Visual Studio\2022\Professional\VC\Tools\MSVC\14.44.35207\include\xmemory
; File C:\Program Files\Microsoft Visual Studio\2022\Professional\VC\Tools\MSVC\14.44.35207\include\xstring
; File C:\Program Files\Microsoft Visual Studio\2022\Professional\VC\Tools\MSVC\14.44.35207\include\xmemory
; File C:\Program Files\Microsoft Visual Studio\2022\Professional\VC\Tools\MSVC\14.44.35207\include\xstring
; File C:\Program Files\Microsoft Visual Studio\2022\Professional\VC\Tools\MSVC\14.44.35207\include\xmemory
;	COMDAT ??$_Uninitialized_move@PAV?$basic_string@DU?$char_traits@D@std@@V?$allocator@D@2@@std@@V?$allocator@V?$basic_string@DU?$char_traits@D@std@@V?$allocator@D@2@@std@@@2@@std@@YAPAV?$basic_string@DU?$char_traits@D@std@@V?$allocator@D@2@@0@QAV10@0PAV10@AAV?$allocator@V?$basic_string@DU?$char_traits@D@std@@V?$allocator@D@2@@std@@@0@@Z
_TEXT	SEGMENT
__First$ = 8						; size = 4
__Last$ = 12						; size = 4
__Dest$ = 16						; size = 4
__Al$ = 20						; size = 4
??$_Uninitialized_move@PAV?$basic_string@DU?$char_traits@D@std@@V?$allocator@D@2@@std@@V?$allocator@V?$basic_string@DU?$char_traits@D@std@@V?$allocator@D@2@@std@@@2@@std@@YAPAV?$basic_string@DU?$char_traits@D@std@@V?$allocator@D@2@@0@QAV10@0PAV10@AAV?$allocator@V?$basic_string@DU?$char_traits@D@std@@V?$allocator@D@2@@std@@@0@@Z PROC ; std::_Uninitialized_move<std::basic_string<char,std::char_traits<char>,std::allocator<char> > *,std::allocator<std::basic_string<char,std::char_traits<char>,std::allocator<char> > > >, COMDAT

; 1977 :     const _InIt _First, const _InIt _Last, _Alloc_ptr_t<_Alloc> _Dest, _Alloc& _Al) {

  00000	55		 push	 ebp
  00001	8b ec		 mov	 ebp, esp

; 1978 :     // move [_First, _Last) to raw _Dest, using _Al
; 1979 :     // note: only called internally from elsewhere in the STL
; 1980 : #ifdef _ENABLE_STL_INTERNAL_CHECK
; 1981 :     _STD _Adl_verify_range(_First, _Last);
; 1982 : #endif // ^^^ defined(_ENABLE_STL_INTERNAL_CHECK) ^^^
; 1983 :     using _Ptrval     = typename _Alloc::value_type*;
; 1984 :     auto _UFirst      = _STD _Get_unwrapped(_First);
; 1985 :     const auto _ULast = _STD _Get_unwrapped(_Last);
; 1986 :     if constexpr (conjunction_v<bool_constant<_Iter_move_cat<decltype(_UFirst), _Ptrval>::_Bitcopy_constructible>,
; 1987 :                       _Uses_default_construct<_Alloc, _Ptrval, decltype(_STD move(*_UFirst))>>) {
; 1988 : #if _HAS_CXX20
; 1989 :         if (!_STD is_constant_evaluated())
; 1990 : #endif // _HAS_CXX20
; 1991 :         {
; 1992 :             _STD _Copy_memmove(_UFirst, _ULast, _STD _Unfancy(_Dest));
; 1993 :             return _Dest + (_ULast - _UFirst);
; 1994 :         }
; 1995 :     }
; 1996 : 
; 1997 :     _Uninitialized_backout_al<_Alloc> _Backout{_Dest, _Al};
; 1998 :     for (; _UFirst != _ULast; ++_UFirst) {

  00003	8b 4d 08	 mov	 ecx, DWORD PTR __First$[ebp]

; 1833 :     _CONSTEXPR20 _Uninitialized_backout_al(pointer _Dest, _Alloc& _Al_) : _First(_Dest), _Last(_Dest), _Al(_Al_) {}

  00006	8b 45 10	 mov	 eax, DWORD PTR __Dest$[ebp]

; 1977 :     const _InIt _First, const _InIt _Last, _Alloc_ptr_t<_Alloc> _Dest, _Alloc& _Al) {

  00009	56		 push	 esi

; 1978 :     // move [_First, _Last) to raw _Dest, using _Al
; 1979 :     // note: only called internally from elsewhere in the STL
; 1980 : #ifdef _ENABLE_STL_INTERNAL_CHECK
; 1981 :     _STD _Adl_verify_range(_First, _Last);
; 1982 : #endif // ^^^ defined(_ENABLE_STL_INTERNAL_CHECK) ^^^
; 1983 :     using _Ptrval     = typename _Alloc::value_type*;
; 1984 :     auto _UFirst      = _STD _Get_unwrapped(_First);
; 1985 :     const auto _ULast = _STD _Get_unwrapped(_Last);
; 1986 :     if constexpr (conjunction_v<bool_constant<_Iter_move_cat<decltype(_UFirst), _Ptrval>::_Bitcopy_constructible>,
; 1987 :                       _Uses_default_construct<_Alloc, _Ptrval, decltype(_STD move(*_UFirst))>>) {
; 1988 : #if _HAS_CXX20
; 1989 :         if (!_STD is_constant_evaluated())
; 1990 : #endif // _HAS_CXX20
; 1991 :         {
; 1992 :             _STD _Copy_memmove(_UFirst, _ULast, _STD _Unfancy(_Dest));
; 1993 :             return _Dest + (_ULast - _UFirst);
; 1994 :         }
; 1995 :     }
; 1996 : 
; 1997 :     _Uninitialized_backout_al<_Alloc> _Backout{_Dest, _Al};
; 1998 :     for (; _UFirst != _ULast; ++_UFirst) {

  0000a	8b 75 0c	 mov	 esi, DWORD PTR __Last$[ebp]
  0000d	3b ce		 cmp	 ecx, esi
  0000f	74 4f		 je	 SHORT $LN3@Uninitiali

; 1833 :     _CONSTEXPR20 _Uninitialized_backout_al(pointer _Dest, _Alloc& _Al_) : _First(_Dest), _Last(_Dest), _Al(_Al_) {}

  00011	8b d0		 mov	 edx, eax
  00013	2b d1		 sub	 edx, ecx
  00015	66 66 66 0f 1f
	84 00 00 00 00
	00		 npad	 11
$LL4@Uninitiali:
  00020	0f 57 c0	 xorps	 xmm0, xmm0
; File C:\Program Files\Microsoft Visual Studio\2022\Professional\VC\Tools\MSVC\14.44.35207\include\xstring

; 493  :         _CONSTEXPR20 _Bxty() noexcept : _Buf() {} // user-provided, for fancy pointers

  00023	0f 11 00	 movups	 XMMWORD PTR [eax], xmm0

; 517  :     size_type _Mysize = 0; // current length of string (size)

  00026	c7 40 10 00 00
	00 00		 mov	 DWORD PTR [eax+16], 0

; 518  :     size_type _Myres  = 0; // current storage reserved for string (capacity)

  0002d	c7 44 0a 14 00
	00 00 00	 mov	 DWORD PTR [edx+ecx+20], 0

; 1286 :                 _CSTD memcpy(_My_data_mem, _Right_data_mem, _Memcpy_val_size);

  00035	0f 10 01	 movups	 xmm0, XMMWORD PTR [ecx]
  00038	0f 11 00	 movups	 XMMWORD PTR [eax], xmm0
  0003b	f3 0f 7e 41 10	 movq	 xmm0, QWORD PTR [ecx+16]
  00040	66 0f d6 40 10	 movq	 QWORD PTR [eax+16], xmm0
; File C:\Program Files\Microsoft Visual Studio\2022\Professional\VC\Tools\MSVC\14.44.35207\include\xmemory

; 1845 :         ++_Last;

  00045	83 c0 18	 add	 eax, 24			; 00000018H
; File C:\Program Files\Microsoft Visual Studio\2022\Professional\VC\Tools\MSVC\14.44.35207\include\xstring

; 1288 :                 _Right_data._Mysize = 0;

  00048	c7 41 10 00 00
	00 00		 mov	 DWORD PTR [ecx+16], 0

; 1289 :                 _Right_data._Myres  = _Small_string_capacity;

  0004f	c7 41 14 0f 00
	00 00		 mov	 DWORD PTR [ecx+20], 15	; 0000000fH

; 1290 :                 _Right_data._Activate_SSO_buffer();
; 1291 :                 _Traits::assign(_Right_data._Bx._Buf[0], _Elem());

  00056	c6 01 00	 mov	 BYTE PTR [ecx], 0
; File C:\Program Files\Microsoft Visual Studio\2022\Professional\VC\Tools\MSVC\14.44.35207\include\xmemory

; 1845 :         ++_Last;

  00059	83 c1 18	 add	 ecx, 24			; 00000018H

; 1978 :     // move [_First, _Last) to raw _Dest, using _Al
; 1979 :     // note: only called internally from elsewhere in the STL
; 1980 : #ifdef _ENABLE_STL_INTERNAL_CHECK
; 1981 :     _STD _Adl_verify_range(_First, _Last);
; 1982 : #endif // ^^^ defined(_ENABLE_STL_INTERNAL_CHECK) ^^^
; 1983 :     using _Ptrval     = typename _Alloc::value_type*;
; 1984 :     auto _UFirst      = _STD _Get_unwrapped(_First);
; 1985 :     const auto _ULast = _STD _Get_unwrapped(_Last);
; 1986 :     if constexpr (conjunction_v<bool_constant<_Iter_move_cat<decltype(_UFirst), _Ptrval>::_Bitcopy_constructible>,
; 1987 :                       _Uses_default_construct<_Alloc, _Ptrval, decltype(_STD move(*_UFirst))>>) {
; 1988 : #if _HAS_CXX20
; 1989 :         if (!_STD is_constant_evaluated())
; 1990 : #endif // _HAS_CXX20
; 1991 :         {
; 1992 :             _STD _Copy_memmove(_UFirst, _ULast, _STD _Unfancy(_Dest));
; 1993 :             return _Dest + (_ULast - _UFirst);
; 1994 :         }
; 1995 :     }
; 1996 : 
; 1997 :     _Uninitialized_backout_al<_Alloc> _Backout{_Dest, _Al};
; 1998 :     for (; _UFirst != _ULast; ++_UFirst) {

  0005c	3b ce		 cmp	 ecx, esi
  0005e	75 c0		 jne	 SHORT $LL4@Uninitiali
$LN3@Uninitiali:
  00060	5e		 pop	 esi

; 1999 :         _Backout._Emplace_back(_STD move(*_UFirst));
; 2000 :     }
; 2001 : 
; 2002 :     return _Backout._Release();
; 2003 : }

  00061	5d		 pop	 ebp
  00062	c3		 ret	 0
??$_Uninitialized_move@PAV?$basic_string@DU?$char_traits@D@std@@V?$allocator@D@2@@std@@V?$allocator@V?$basic_string@DU?$char_traits@D@std@@V?$allocator@D@2@@std@@@2@@std@@YAPAV?$basic_string@DU?$char_traits@D@std@@V?$allocator@D@2@@0@QAV10@0PAV10@AAV?$allocator@V?$basic_string@DU?$char_traits@D@std@@V?$allocator@D@2@@std@@@0@@Z ENDP ; std::_Uninitialized_move<std::basic_string<char,std::char_traits<char>,std::allocator<char> > *,std::allocator<std::basic_string<char,std::char_traits<char>,std::allocator<char> > > >
_TEXT	ENDS
; Function compile flags: /Ogtp
; File C:\Program Files\Microsoft Visual Studio\2022\Professional\VC\Tools\MSVC\14.44.35207\include\xutility
;	COMDAT ??$_Copy_memmove_tail@PAH@std@@YAPAHQBDQAHII@Z
_TEXT	SEGMENT
__First_ch$ = 8						; size = 4
__Dest$ = 12						; size = 4
__Byte_count$ = 16					; size = 4
__Object_count$ = 20					; size = 4
??$_Copy_memmove_tail@PAH@std@@YAPAHQBDQAHII@Z PROC	; std::_Copy_memmove_tail<int *>, COMDAT

; 4747 :     const char* const _First_ch, const _OutCtgIt _Dest, const size_t _Byte_count, const size_t _Object_count) {

  00000	55		 push	 ebp
  00001	8b ec		 mov	 ebp, esp
  00003	56		 push	 esi

; 4748 :     _STL_INTERNAL_CHECK(_Byte_count == _Object_count * sizeof(*_Dest));
; 4749 :     const auto _Dest_ptr = _STD _To_address(_Dest);
; 4750 :     const auto _Dest_ch  = const_cast<char*>(reinterpret_cast<const volatile char*>(_Dest_ptr));
; 4751 :     _CSTD memmove(_Dest_ch, _First_ch, _Byte_count);

  00004	8b 75 0c	 mov	 esi, DWORD PTR __Dest$[ebp]
  00007	57		 push	 edi
  00008	8b 7d 10	 mov	 edi, DWORD PTR __Byte_count$[ebp]
  0000b	57		 push	 edi
  0000c	ff 75 08	 push	 DWORD PTR __First_ch$[ebp]
  0000f	56		 push	 esi
  00010	e8 00 00 00 00	 call	 _memmove
  00015	83 c4 0c	 add	 esp, 12			; 0000000cH

; 4752 :     if constexpr (is_pointer_v<_OutCtgIt>) {
; 4753 :         (void) _Object_count;
; 4754 :         // CodeQL [SM02986] This cast is correct: we're bypassing pointer arithmetic for performance.
; 4755 :         return reinterpret_cast<_OutCtgIt>(_Dest_ch + _Byte_count);

  00018	8d 04 3e	 lea	 eax, DWORD PTR [esi+edi]
  0001b	5f		 pop	 edi
  0001c	5e		 pop	 esi

; 4756 :     } else {
; 4757 :         return _Dest + static_cast<_Iter_diff_t<_OutCtgIt>>(_Object_count);
; 4758 :     }
; 4759 : }

  0001d	5d		 pop	 ebp
  0001e	c3		 ret	 0
??$_Copy_memmove_tail@PAH@std@@YAPAHQBDQAHII@Z ENDP	; std::_Copy_memmove_tail<int *>
_TEXT	ENDS
; Function compile flags: /Ogtp
; File C:\Program Files\Microsoft Visual Studio\2022\Professional\VC\Tools\MSVC\14.44.35207\include\xutility
;	COMDAT ??$_Copy_memmove@PAHPAH@std@@YAPAHPAH00@Z
_TEXT	SEGMENT
__First$ = 8						; size = 4
__Last$ = 12						; size = 4
__Dest$ = 16						; size = 4
??$_Copy_memmove@PAHPAH@std@@YAPAHPAH00@Z PROC		; std::_Copy_memmove<int *,int *>, COMDAT

; 4762 : _OutCtgIt _Copy_memmove(_CtgIt _First, _CtgIt _Last, _OutCtgIt _Dest) {

  00000	55		 push	 ebp
  00001	8b ec		 mov	 ebp, esp

; 4763 :     _STL_INTERNAL_CHECK(_First <= _Last);
; 4764 :     const auto _First_ptr    = _STD _To_address(_First);
; 4765 :     const auto _Last_ptr     = _STD _To_address(_Last);
; 4766 :     const auto _Object_count = static_cast<size_t>(_Last_ptr - _First_ptr);

  00003	8b 55 08	 mov	 edx, DWORD PTR __First$[ebp]
  00006	8b 4d 0c	 mov	 ecx, DWORD PTR __Last$[ebp]
  00009	2b ca		 sub	 ecx, edx
  0000b	8b c1		 mov	 eax, ecx
  0000d	c1 f8 02	 sar	 eax, 2

; 4767 :     const auto _First_ch     = const_cast<const char*>(reinterpret_cast<const volatile char*>(_First_ptr));
; 4768 :     const auto _Last_ch      = const_cast<const char*>(reinterpret_cast<const volatile char*>(_Last_ptr));
; 4769 :     const auto _Byte_count   = static_cast<size_t>(_Last_ch - _First_ch);
; 4770 :     return _STD _Copy_memmove_tail(_First_ch, _STD move(_Dest), _Byte_count, _Object_count);

  00010	50		 push	 eax
  00011	51		 push	 ecx
  00012	ff 75 10	 push	 DWORD PTR __Dest$[ebp]
  00015	52		 push	 edx
  00016	e8 00 00 00 00	 call	 ??$_Copy_memmove_tail@PAH@std@@YAPAHQBDQAHII@Z ; std::_Copy_memmove_tail<int *>
  0001b	83 c4 10	 add	 esp, 16			; 00000010H

; 4771 : }

  0001e	5d		 pop	 ebp
  0001f	c3		 ret	 0
??$_Copy_memmove@PAHPAH@std@@YAPAHPAH00@Z ENDP		; std::_Copy_memmove<int *,int *>
_TEXT	ENDS
; Function compile flags: /Ogtp
; File C:\Program Files\Microsoft Visual Studio\2022\Professional\VC\Tools\MSVC\14.44.35207\include\xmemory
;	COMDAT ??1?$_Tidy_guard@V?$vector@V?$basic_string@DU?$char_traits@D@std@@V?$allocator@D@2@@std@@V?$allocator@V?$basic_string@DU?$char_traits@D@std@@V?$allocator@D@2@@std@@@2@@std@@@std@@QAE@XZ
_TEXT	SEGMENT
??1?$_Tidy_guard@V?$vector@V?$basic_string@DU?$char_traits@D@std@@V?$allocator@D@2@@std@@V?$allocator@V?$basic_string@DU?$char_traits@D@std@@V?$allocator@D@2@@std@@@2@@std@@@std@@QAE@XZ PROC ; std::_Tidy_guard<std::vector<std::basic_string<char,std::char_traits<char>,std::allocator<char> >,std::allocator<std::basic_string<char,std::char_traits<char>,std::allocator<char> > > > >::~_Tidy_guard<std::vector<std::basic_string<char,std::char_traits<char>,std::allocator<char> >,std::allocator<std::basic_string<char,std::char_traits<char>,std::allocator<char> > > > >, COMDAT
; _this$ = ecx

; 87   :         if (_Target) {

  00000	8b 09		 mov	 ecx, DWORD PTR [ecx]
  00002	85 c9		 test	 ecx, ecx
  00004	0f 85 00 00 00
	00		 jne	 ?_Tidy@?$vector@V?$basic_string@DU?$char_traits@D@std@@V?$allocator@D@2@@std@@V?$allocator@V?$basic_string@DU?$char_traits@D@std@@V?$allocator@D@2@@std@@@2@@std@@AAEXXZ ; std::vector<std::basic_string<char,std::char_traits<char>,std::allocator<char> >,std::allocator<std::basic_string<char,std::char_traits<char>,std::allocator<char> > > >::_Tidy

; 88   :             _Target->_Tidy();
; 89   :         }
; 90   :     }

  0000a	c3		 ret	 0
??1?$_Tidy_guard@V?$vector@V?$basic_string@DU?$char_traits@D@std@@V?$allocator@D@2@@std@@V?$allocator@V?$basic_string@DU?$char_traits@D@std@@V?$allocator@D@2@@std@@@2@@std@@@std@@QAE@XZ ENDP ; std::_Tidy_guard<std::vector<std::basic_string<char,std::char_traits<char>,std::allocator<char> >,std::allocator<std::basic_string<char,std::char_traits<char>,std::allocator<char> > > > >::~_Tidy_guard<std::vector<std::basic_string<char,std::char_traits<char>,std::allocator<char> >,std::allocator<std::basic_string<char,std::char_traits<char>,std::allocator<char> > > > >
_TEXT	ENDS
; Function compile flags: /Ogtp
; File C:\Program Files\Microsoft Visual Studio\2022\Professional\VC\Tools\MSVC\14.44.35207\include\vector
; File C:\Program Files\Microsoft Visual Studio\2022\Professional\VC\Tools\MSVC\14.44.35207\include\xmemory
; File C:\Program Files\Microsoft Visual Studio\2022\Professional\VC\Tools\MSVC\14.44.35207\include\vector
; File C:\Program Files\Microsoft Visual Studio\2022\Professional\VC\Tools\MSVC\14.44.35207\include\xmemory
; File C:\Program Files\Microsoft Visual Studio\2022\Professional\VC\Tools\MSVC\14.44.35207\include\vector
; File C:\Program Files\Microsoft Visual Studio\2022\Professional\VC\Tools\MSVC\14.44.35207\include\xstring
; File C:\Program Files\Microsoft Visual Studio\2022\Professional\VC\Tools\MSVC\14.44.35207\include\vector
; File C:\Program Files\Microsoft Visual Studio\2022\Professional\VC\Tools\MSVC\14.44.35207\include\xstring
; File C:\Program Files\Microsoft Visual Studio\2022\Professional\VC\Tools\MSVC\14.44.35207\include\vector
; File C:\Program Files\Microsoft Visual Studio\2022\Professional\VC\Tools\MSVC\14.44.35207\include\xstring
; File C:\Program Files\Microsoft Visual Studio\2022\Professional\VC\Tools\MSVC\14.44.35207\include\vector
; File C:\Program Files\Microsoft Visual Studio\2022\Professional\VC\Tools\MSVC\14.44.35207\include\xmemory
; File C:\Program Files\Microsoft Visual Studio\2022\Professional\VC\Tools\MSVC\14.44.35207\include\vector
; File C:\Program Files\Microsoft Visual Studio\2022\Professional\VC\Tools\MSVC\14.44.35207\include\xmemory
; File C:\Program Files\Microsoft Visual Studio\2022\Professional\VC\Tools\MSVC\14.44.35207\include\vector
; File C:\Program Files\Microsoft Visual Studio\2022\Professional\VC\Tools\MSVC\14.44.35207\include\xmemory
; File C:\Program Files\Microsoft Visual Studio\2022\Professional\VC\Tools\MSVC\14.44.35207\include\vector
; File C:\Program Files\Microsoft Visual Studio\2022\Professional\VC\Tools\MSVC\14.44.35207\include\xmemory
; File C:\Program Files\Microsoft Visual Studio\2022\Professional\VC\Tools\MSVC\14.44.35207\include\vector
;	COMDAT ??$_Emplace_reallocate@V?$basic_string@DU?$char_traits@D@std@@V?$allocator@D@2@@std@@@?$vector@V?$basic_string@DU?$char_traits@D@std@@V?$allocator@D@2@@std@@V?$allocator@V?$basic_string@DU?$char_traits@D@std@@V?$allocator@D@2@@std@@@2@@std@@AAEPAV?$basic_string@DU?$char_traits@D@std@@V?$allocator@D@2@@1@QAV21@$$QAV21@@Z
_TEXT	SEGMENT
__Newsize$1$ = -16					; size = 4
_this$1$ = -12						; size = 4
__Whereoff$1$ = -8					; size = 4
_this$1$ = -8						; size = 4
tv692 = -4						; size = 4
__Whereptr$ = 8						; size = 4
_<_Val_0>$ = 12						; size = 4
??$_Emplace_reallocate@V?$basic_string@DU?$char_traits@D@std@@V?$allocator@D@2@@std@@@?$vector@V?$basic_string@DU?$char_traits@D@std@@V?$allocator@D@2@@std@@V?$allocator@V?$basic_string@DU?$char_traits@D@std@@V?$allocator@D@2@@std@@@2@@std@@AAEPAV?$basic_string@DU?$char_traits@D@std@@V?$allocator@D@2@@1@QAV21@$$QAV21@@Z PROC ; std::vector<std::basic_string<char,std::char_traits<char>,std::allocator<char> >,std::allocator<std::basic_string<char,std::char_traits<char>,std::allocator<char> > > >::_Emplace_reallocate<std::basic_string<char,std::char_traits<char>,std::allocator<char> > >, COMDAT
; _this$ = ecx

; 875  :     _CONSTEXPR20 pointer _Emplace_reallocate(const pointer _Whereptr, _Valty&&... _Val) {

  00000	55		 push	 ebp
  00001	8b ec		 mov	 ebp, esp
  00003	83 ec 10	 sub	 esp, 16			; 00000010H

; 876  :         // reallocate and insert by perfectly forwarding _Val at _Whereptr
; 877  :         _Alty& _Al        = _Getal();
; 878  :         auto& _My_data    = _Mypair._Myval2;
; 879  :         pointer& _Myfirst = _My_data._Myfirst;
; 880  :         pointer& _Mylast  = _My_data._Mylast;
; 881  : 
; 882  :         _STL_INTERNAL_CHECK(_Mylast == _My_data._Myend); // check that we have no unused capacity
; 883  : 
; 884  :         const auto _Whereoff = static_cast<size_type>(_Whereptr - _Myfirst);

  00006	8b 55 08	 mov	 edx, DWORD PTR __Whereptr$[ebp]
  00009	b8 ab aa aa 2a	 mov	 eax, 715827883		; 2aaaaaabH
  0000e	53		 push	 ebx
  0000f	56		 push	 esi
  00010	57		 push	 edi
  00011	8b f9		 mov	 edi, ecx
  00013	89 7d f4	 mov	 DWORD PTR _this$1$[ebp], edi
  00016	8b 37		 mov	 esi, DWORD PTR [edi]
  00018	2b d6		 sub	 edx, esi

; 885  :         const auto _Oldsize  = static_cast<size_type>(_Mylast - _Myfirst);

  0001a	8b 4f 04	 mov	 ecx, DWORD PTR [edi+4]
  0001d	f7 ea		 imul	 edx
  0001f	2b ce		 sub	 ecx, esi
  00021	c1 fa 02	 sar	 edx, 2
  00024	8b c2		 mov	 eax, edx
  00026	c1 e8 1f	 shr	 eax, 31			; 0000001fH
  00029	03 c2		 add	 eax, edx
  0002b	89 45 f8	 mov	 DWORD PTR __Whereoff$1$[ebp], eax
  0002e	b8 ab aa aa 2a	 mov	 eax, 715827883		; 2aaaaaabH
  00033	f7 e9		 imul	 ecx
  00035	c1 fa 02	 sar	 edx, 2
  00038	8b c2		 mov	 eax, edx
  0003a	c1 e8 1f	 shr	 eax, 31			; 0000001fH
  0003d	03 c2		 add	 eax, edx

; 886  : 
; 887  :         if (_Oldsize == max_size()) {

  0003f	3d aa aa aa 0a	 cmp	 eax, 178956970		; 0aaaaaaaH
  00044	0f 84 8a 01 00
	00		 je	 $LN143@Emplace_re

; 1924 :         return static_cast<size_type>(_My_data._Myend - _My_data._Myfirst);

  0004a	8b 4f 08	 mov	 ecx, DWORD PTR [edi+8]

; 889  :         }
; 890  : 
; 891  :         const size_type _Newsize = _Oldsize + 1;

  0004d	8d 58 01	 lea	 ebx, DWORD PTR [eax+1]

; 1924 :         return static_cast<size_type>(_My_data._Myend - _My_data._Myfirst);

  00050	2b ce		 sub	 ecx, esi

; 889  :         }
; 890  : 
; 891  :         const size_type _Newsize = _Oldsize + 1;

  00052	89 5d f0	 mov	 DWORD PTR __Newsize$1$[ebp], ebx

; 1924 :         return static_cast<size_type>(_My_data._Myend - _My_data._Myfirst);

  00055	b8 ab aa aa 2a	 mov	 eax, 715827883		; 2aaaaaabH
  0005a	f7 e9		 imul	 ecx

; 2011 :         if (_Oldcapacity > _Max - _Oldcapacity / 2) {

  0005c	b8 aa aa aa 0a	 mov	 eax, 178956970		; 0aaaaaaaH

; 1924 :         return static_cast<size_type>(_My_data._Myend - _My_data._Myfirst);

  00061	c1 fa 02	 sar	 edx, 2
  00064	8b ca		 mov	 ecx, edx
  00066	c1 e9 1f	 shr	 ecx, 31			; 0000001fH
  00069	03 ca		 add	 ecx, edx

; 2011 :         if (_Oldcapacity > _Max - _Oldcapacity / 2) {

  0006b	8b d1		 mov	 edx, ecx
  0006d	d1 ea		 shr	 edx, 1
  0006f	2b c2		 sub	 eax, edx
  00071	3b c8		 cmp	 ecx, eax
  00073	76 14		 jbe	 SHORT $LN8@Emplace_re

; 2012 :             return _Max; // geometric growth would overflow

  00075	b8 f0 ff ff ff	 mov	 eax, -16		; fffffff0H
  0007a	c7 45 fc f0 ff
	ff ff		 mov	 DWORD PTR tv692[ebp], -16 ; fffffff0H
; File C:\Program Files\Microsoft Visual Studio\2022\Professional\VC\Tools\MSVC\14.44.35207\include\xmemory

; 253  :             return _Allocate_manually_vector_aligned<_Traits>(_Bytes);

  00081	50		 push	 eax
  00082	e8 00 00 00 00	 call	 ??$_Allocate_manually_vector_aligned@U_Default_allocate_traits@std@@@std@@YAPAXI@Z ; std::_Allocate_manually_vector_aligned<std::_Default_allocate_traits>
  00087	eb 3e		 jmp	 SHORT $LN141@Emplace_re
$LN8@Emplace_re:
; File C:\Program Files\Microsoft Visual Studio\2022\Professional\VC\Tools\MSVC\14.44.35207\include\vector

; 2015 :         const size_type _Geometric = _Oldcapacity + _Oldcapacity / 2;

  00089	8d 04 0a	 lea	 eax, DWORD PTR [edx+ecx]
; File C:\Program Files\Microsoft Visual Studio\2022\Professional\VC\Tools\MSVC\14.44.35207\include\xmemory

; 117  :         if (_Count > _Max_possible) {

  0008c	8b cb		 mov	 ecx, ebx
  0008e	3b c3		 cmp	 eax, ebx
  00090	0f 43 c8	 cmovae	 ecx, eax
  00093	81 f9 aa aa aa
	0a		 cmp	 ecx, 178956970		; 0aaaaaaaH
  00099	0f 87 3a 01 00
	00		 ja	 $LN144@Emplace_re

; 119  :         }
; 120  :     }
; 121  : 
; 122  :     return _Count * _Ty_size;

  0009f	8d 34 49	 lea	 esi, DWORD PTR [ecx+ecx*2]
  000a2	c1 e6 03	 shl	 esi, 3

; 990  :         return static_cast<_Ty*>(_STD _Allocate<_New_alignof<_Ty>>(_Get_size_of_n<sizeof(_Ty)>(_Count)));

  000a5	8b c6		 mov	 eax, esi

; 122  :     return _Count * _Ty_size;

  000a7	89 75 fc	 mov	 DWORD PTR tv692[ebp], esi

; 227  :     if (_Bytes == 0) {

  000aa	85 c0		 test	 eax, eax
  000ac	75 04		 jne	 SHORT $LN23@Emplace_re

; 228  :         return nullptr;

  000ae	33 db		 xor	 ebx, ebx
  000b0	eb 1a		 jmp	 SHORT $LN22@Emplace_re
$LN23@Emplace_re:

; 229  :     }
; 230  : 
; 231  : #if _HAS_CXX20 // TRANSITION, GH-1532
; 232  :     if (_STD is_constant_evaluated()) {
; 233  :         return _Traits::_Allocate(_Bytes);
; 234  :     }
; 235  : #endif // _HAS_CXX20
; 236  : 
; 237  : #ifdef __cpp_aligned_new
; 238  :     if constexpr (_Align > __STDCPP_DEFAULT_NEW_ALIGNMENT__) {
; 239  :         size_t _Passed_align = _Align;
; 240  : #if defined(_M_IX86) || defined(_M_X64)
; 241  :         if (_Bytes >= _Big_allocation_threshold) {
; 242  :             // boost the alignment of big allocations to help autovectorization
; 243  :             _Passed_align = (_STD max)(_Align, _Big_allocation_alignment);
; 244  :         }
; 245  : #endif // defined(_M_IX86) || defined(_M_X64)
; 246  :         return _Traits::_Allocate_aligned(_Bytes, _Passed_align);
; 247  :     } else
; 248  : #endif // defined(__cpp_aligned_new)
; 249  :     {
; 250  : #if defined(_M_IX86) || defined(_M_X64)
; 251  :         if (_Bytes >= _Big_allocation_threshold) {

  000b2	3d 00 10 00 00	 cmp	 eax, 4096		; 00001000H
  000b7	72 08		 jb	 SHORT $LN24@Emplace_re

; 253  :             return _Allocate_manually_vector_aligned<_Traits>(_Bytes);

  000b9	50		 push	 eax
  000ba	e8 00 00 00 00	 call	 ??$_Allocate_manually_vector_aligned@U_Default_allocate_traits@std@@@std@@YAPAXI@Z ; std::_Allocate_manually_vector_aligned<std::_Default_allocate_traits>
  000bf	eb 06		 jmp	 SHORT $LN141@Emplace_re
$LN24@Emplace_re:

; 136  :         return ::operator new(_Bytes);

  000c1	50		 push	 eax
  000c2	e8 00 00 00 00	 call	 ??2@YAPAXI@Z		; operator new
$LN141@Emplace_re:
; File C:\Program Files\Microsoft Visual Studio\2022\Professional\VC\Tools\MSVC\14.44.35207\include\vector

; 895  :         const pointer _Constructed_last = _Newvec + _Whereoff + 1;

  000c7	8b d8		 mov	 ebx, eax
  000c9	83 c4 04	 add	 esp, 4
$LN22@Emplace_re:
  000cc	8b 45 f8	 mov	 eax, DWORD PTR __Whereoff$1$[ebp]
  000cf	0f 57 c0	 xorps	 xmm0, xmm0

; 903  :         if (_Whereptr == _Mylast) { // at back, provide strong guarantee

  000d2	8b 55 08	 mov	 edx, DWORD PTR __Whereptr$[ebp]
  000d5	8d 04 40	 lea	 eax, DWORD PTR [eax+eax*2]
  000d8	8d 0c c3	 lea	 ecx, DWORD PTR [ebx+eax*8]
; File C:\Program Files\Microsoft Visual Studio\2022\Professional\VC\Tools\MSVC\14.44.35207\include\xstring

; 1286 :                 _CSTD memcpy(_My_data_mem, _Right_data_mem, _Memcpy_val_size);

  000db	8b 45 0c	 mov	 eax, DWORD PTR _<_Val_0>$[ebp]

; 493  :         _CONSTEXPR20 _Bxty() noexcept : _Buf() {} // user-provided, for fancy pointers

  000de	0f 11 01	 movups	 XMMWORD PTR [ecx], xmm0

; 517  :     size_type _Mysize = 0; // current length of string (size)

  000e1	c7 41 10 00 00
	00 00		 mov	 DWORD PTR [ecx+16], 0
; File C:\Program Files\Microsoft Visual Studio\2022\Professional\VC\Tools\MSVC\14.44.35207\include\vector

; 895  :         const pointer _Constructed_last = _Newvec + _Whereoff + 1;

  000e8	8d 71 18	 lea	 esi, DWORD PTR [ecx+24]
; File C:\Program Files\Microsoft Visual Studio\2022\Professional\VC\Tools\MSVC\14.44.35207\include\xstring

; 518  :     size_type _Myres  = 0; // current storage reserved for string (capacity)

  000eb	c7 41 14 00 00
	00 00		 mov	 DWORD PTR [ecx+20], 0

; 1286 :                 _CSTD memcpy(_My_data_mem, _Right_data_mem, _Memcpy_val_size);

  000f2	0f 10 00	 movups	 xmm0, XMMWORD PTR [eax]
; File C:\Program Files\Microsoft Visual Studio\2022\Professional\VC\Tools\MSVC\14.44.35207\include\vector

; 895  :         const pointer _Constructed_last = _Newvec + _Whereoff + 1;

  000f5	89 4d f8	 mov	 DWORD PTR _this$1$[ebp], ecx
; File C:\Program Files\Microsoft Visual Studio\2022\Professional\VC\Tools\MSVC\14.44.35207\include\xstring

; 1286 :                 _CSTD memcpy(_My_data_mem, _Right_data_mem, _Memcpy_val_size);

  000f8	0f 11 01	 movups	 XMMWORD PTR [ecx], xmm0
  000fb	f3 0f 7e 40 10	 movq	 xmm0, QWORD PTR [eax+16]
  00100	66 0f d6 41 10	 movq	 QWORD PTR [ecx+16], xmm0

; 1287 : 
; 1288 :                 _Right_data._Mysize = 0;

  00105	c7 40 10 00 00
	00 00		 mov	 DWORD PTR [eax+16], 0

; 1289 :                 _Right_data._Myres  = _Small_string_capacity;

  0010c	c7 40 14 0f 00
	00 00		 mov	 DWORD PTR [eax+20], 15	; 0000000fH

; 1290 :                 _Right_data._Activate_SSO_buffer();
; 1291 :                 _Traits::assign(_Right_data._Bx._Buf[0], _Elem());

  00113	c6 00 00	 mov	 BYTE PTR [eax], 0
; File C:\Program Files\Microsoft Visual Studio\2022\Professional\VC\Tools\MSVC\14.44.35207\include\vector

; 903  :         if (_Whereptr == _Mylast) { // at back, provide strong guarantee

  00116	8b 4f 04	 mov	 ecx, DWORD PTR [edi+4]
  00119	8b 07		 mov	 eax, DWORD PTR [edi]
  0011b	3b d1		 cmp	 edx, ecx
  0011d	75 04		 jne	 SHORT $LN3@Emplace_re

; 904  :             if constexpr (is_nothrow_move_constructible_v<_Ty> || !is_copy_constructible_v<_Ty>) {
; 905  :                 _STD _Uninitialized_move(_Myfirst, _Mylast, _Newvec, _Al);

  0011f	8b f3		 mov	 esi, ebx

; 906  :             } else {
; 907  :                 _STD _Uninitialized_copy(_Myfirst, _Mylast, _Newvec, _Al);
; 908  :             }
; 909  :         } else { // provide basic guarantee

  00121	eb 12		 jmp	 SHORT $LN4@Emplace_re
$LN3@Emplace_re:

; 910  :             _STD _Uninitialized_move(_Myfirst, _Whereptr, _Newvec, _Al);

  00123	57		 push	 edi
  00124	53		 push	 ebx
  00125	52		 push	 edx
  00126	50		 push	 eax
  00127	e8 00 00 00 00	 call	 ??$_Uninitialized_move@PAV?$basic_string@DU?$char_traits@D@std@@V?$allocator@D@2@@std@@V?$allocator@V?$basic_string@DU?$char_traits@D@std@@V?$allocator@D@2@@std@@@2@@std@@YAPAV?$basic_string@DU?$char_traits@D@std@@V?$allocator@D@2@@0@QAV10@0PAV10@AAV?$allocator@V?$basic_string@DU?$char_traits@D@std@@V?$allocator@D@2@@std@@@0@@Z ; std::_Uninitialized_move<std::basic_string<char,std::char_traits<char>,std::allocator<char> > *,std::allocator<std::basic_string<char,std::char_traits<char>,std::allocator<char> > > >

; 911  :             _Constructed_first = _Newvec;
; 912  :             _STD _Uninitialized_move(_Whereptr, _Mylast, _Newvec + _Whereoff + 1, _Al);

  0012c	8b 45 08	 mov	 eax, DWORD PTR __Whereptr$[ebp]
  0012f	83 c4 10	 add	 esp, 16			; 00000010H
  00132	8b 4f 04	 mov	 ecx, DWORD PTR [edi+4]
$LN4@Emplace_re:

; 913  :         }
; 914  : 
; 915  :         _Guard._New_begin = nullptr;

  00135	57		 push	 edi
  00136	56		 push	 esi
  00137	51		 push	 ecx
  00138	50		 push	 eax
  00139	e8 00 00 00 00	 call	 ??$_Uninitialized_move@PAV?$basic_string@DU?$char_traits@D@std@@V?$allocator@D@2@@std@@V?$allocator@V?$basic_string@DU?$char_traits@D@std@@V?$allocator@D@2@@std@@@2@@std@@YAPAV?$basic_string@DU?$char_traits@D@std@@V?$allocator@D@2@@0@QAV10@0PAV10@AAV?$allocator@V?$basic_string@DU?$char_traits@D@std@@V?$allocator@D@2@@std@@@0@@Z ; std::_Uninitialized_move<std::basic_string<char,std::char_traits<char>,std::allocator<char> > *,std::allocator<std::basic_string<char,std::char_traits<char>,std::allocator<char> > > >

; 2069 :         if (_Myfirst) { // destroy and deallocate old array

  0013e	8b 37		 mov	 esi, DWORD PTR [edi]

; 913  :         }
; 914  : 
; 915  :         _Guard._New_begin = nullptr;

  00140	83 c4 10	 add	 esp, 16			; 00000010H

; 2069 :         if (_Myfirst) { // destroy and deallocate old array

  00143	85 f6		 test	 esi, esi
  00145	74 5c		 je	 SHORT $LN82@Emplace_re

; 2070 :             _STD _Destroy_range(_Myfirst, _Mylast, _Al);

  00147	8b 47 04	 mov	 eax, DWORD PTR [edi+4]
; File C:\Program Files\Microsoft Visual Studio\2022\Professional\VC\Tools\MSVC\14.44.35207\include\xmemory

; 1102 :         for (; _First != _Last; ++_First) {

  0014a	3b f0		 cmp	 esi, eax
  0014c	74 13		 je	 SHORT $LN67@Emplace_re
  0014e	8b f8		 mov	 edi, eax
$LL68@Emplace_re:
  00150	8b ce		 mov	 ecx, esi
  00152	e8 00 00 00 00	 call	 ??1?$basic_string@DU?$char_traits@D@std@@V?$allocator@D@2@@std@@QAE@XZ ; std::basic_string<char,std::char_traits<char>,std::allocator<char> >::~basic_string<char,std::char_traits<char>,std::allocator<char> >
  00157	83 c6 18	 add	 esi, 24			; 00000018H
  0015a	3b f7		 cmp	 esi, edi
  0015c	75 f2		 jne	 SHORT $LL68@Emplace_re
  0015e	8b 7d f4	 mov	 edi, DWORD PTR _this$1$[ebp]
$LN67@Emplace_re:
; File C:\Program Files\Microsoft Visual Studio\2022\Professional\VC\Tools\MSVC\14.44.35207\include\vector

; 2072 :             _Al.deallocate(_Myfirst, static_cast<size_type>(_Myend - _Myfirst));

  00161	8b 4f 08	 mov	 ecx, DWORD PTR [edi+8]
  00164	b8 ab aa aa 2a	 mov	 eax, 715827883		; 2aaaaaabH
  00169	8b 37		 mov	 esi, DWORD PTR [edi]
  0016b	2b ce		 sub	 ecx, esi
  0016d	f7 e9		 imul	 ecx
  0016f	c1 fa 02	 sar	 edx, 2
  00172	8b c2		 mov	 eax, edx
  00174	c1 e8 1f	 shr	 eax, 31			; 0000001fH
  00177	03 c2		 add	 eax, edx
; File C:\Program Files\Microsoft Visual Studio\2022\Professional\VC\Tools\MSVC\14.44.35207\include\xmemory

; 985  :         _STD _Deallocate<_New_alignof<_Ty>>(_Ptr, sizeof(_Ty) * _Count);

  00179	8d 0c 40	 lea	 ecx, DWORD PTR [eax+eax*2]
  0017c	c1 e1 03	 shl	 ecx, 3

; 284  :         if (_Bytes >= _Big_allocation_threshold) {

  0017f	81 f9 00 10 00
	00		 cmp	 ecx, 4096		; 00001000H
  00185	72 12		 jb	 SHORT $LN87@Emplace_re

; 205  :     const uintptr_t _Ptr_container   = _Ptr_user[-1];

  00187	8b 56 fc	 mov	 edx, DWORD PTR [esi-4]
  0018a	83 c1 23	 add	 ecx, 35			; 00000023H

; 206  : 
; 207  :     // If the following asserts, it likely means that we are performing
; 208  :     // an aligned delete on memory coming from an unaligned allocation.
; 209  :     _STL_ASSERT(_Ptr_user[-2] == _Big_allocation_sentinel, "invalid argument");
; 210  : 
; 211  :     // Extra paranoia on aligned allocation/deallocation; ensure _Ptr_container is
; 212  :     // in range [_Min_back_shift, _Non_user_size]
; 213  : #ifdef _DEBUG
; 214  :     constexpr uintptr_t _Min_back_shift = 2 * sizeof(void*);
; 215  : #else // ^^^ defined(_DEBUG) / !defined(_DEBUG) vvv
; 216  :     constexpr uintptr_t _Min_back_shift = sizeof(void*);
; 217  : #endif // ^^^ !defined(_DEBUG) ^^^
; 218  :     const uintptr_t _Back_shift = reinterpret_cast<uintptr_t>(_Ptr) - _Ptr_container;

  0018d	2b f2		 sub	 esi, edx

; 219  :     _STL_VERIFY(_Back_shift >= _Min_back_shift && _Back_shift <= _Non_user_size, "invalid argument");

  0018f	8d 46 fc	 lea	 eax, DWORD PTR [esi-4]
  00192	83 f8 1f	 cmp	 eax, 31			; 0000001fH
  00195	77 2e		 ja	 SHORT $LN86@Emplace_re

; 220  :     _Ptr = reinterpret_cast<void*>(_Ptr_container);

  00197	8b f2		 mov	 esi, edx
$LN87@Emplace_re:

; 289  :         ::operator delete(_Ptr, _Bytes);

  00199	51		 push	 ecx
  0019a	56		 push	 esi
  0019b	e8 00 00 00 00	 call	 ??3@YAXPAXI@Z		; operator delete
  001a0	83 c4 08	 add	 esp, 8
$LN82@Emplace_re:
; File C:\Program Files\Microsoft Visual Studio\2022\Professional\VC\Tools\MSVC\14.44.35207\include\vector

; 2076 :         _Mylast  = _Newvec + _Newsize;

  001a3	8b 4d f0	 mov	 ecx, DWORD PTR __Newsize$1$[ebp]

; 916  :         _Change_array(_Newvec, _Newsize, _Newcapacity);
; 917  :         return _Newvec + _Whereoff;

  001a6	8b 45 f8	 mov	 eax, DWORD PTR _this$1$[ebp]

; 2075 :         _Myfirst = _Newvec;

  001a9	89 1f		 mov	 DWORD PTR [edi], ebx

; 2076 :         _Mylast  = _Newvec + _Newsize;

  001ab	8d 0c 49	 lea	 ecx, DWORD PTR [ecx+ecx*2]
  001ae	8d 0c cb	 lea	 ecx, DWORD PTR [ebx+ecx*8]
  001b1	89 4f 04	 mov	 DWORD PTR [edi+4], ecx

; 2077 :         _Myend   = _Newvec + _Newcapacity;

  001b4	8b 4d fc	 mov	 ecx, DWORD PTR tv692[ebp]
  001b7	03 cb		 add	 ecx, ebx
  001b9	89 4f 08	 mov	 DWORD PTR [edi+8], ecx

; 918  :     }

  001bc	5f		 pop	 edi
  001bd	5e		 pop	 esi
  001be	5b		 pop	 ebx
  001bf	8b e5		 mov	 esp, ebp
  001c1	5d		 pop	 ebp
  001c2	c2 08 00	 ret	 8
$LN86@Emplace_re:
; File C:\Program Files\Microsoft Visual Studio\2022\Professional\VC\Tools\MSVC\14.44.35207\include\xmemory

; 219  :     _STL_VERIFY(_Back_shift >= _Min_back_shift && _Back_shift <= _Non_user_size, "invalid argument");

  001c5	6a 00		 push	 0
  001c7	6a 00		 push	 0
  001c9	6a 00		 push	 0
  001cb	6a 00		 push	 0
  001cd	6a 00		 push	 0
  001cf	e8 00 00 00 00	 call	 __invoke_watson
$LN143@Emplace_re:
; File C:\Program Files\Microsoft Visual Studio\2022\Professional\VC\Tools\MSVC\14.44.35207\include\vector

; 888  :             _Xlength();

  001d4	e8 00 00 00 00	 call	 ?_Xlength@?$vector@V?$basic_string@DU?$char_traits@D@std@@V?$allocator@D@2@@std@@V?$allocator@V?$basic_string@DU?$char_traits@D@std@@V?$allocator@D@2@@std@@@2@@std@@CAXXZ ; std::vector<std::basic_string<char,std::char_traits<char>,std::allocator<char> >,std::allocator<std::basic_string<char,std::char_traits<char>,std::allocator<char> > > >::_Xlength
$LN144@Emplace_re:
; File C:\Program Files\Microsoft Visual Studio\2022\Professional\VC\Tools\MSVC\14.44.35207\include\xmemory

; 118  :             _Throw_bad_array_new_length(); // multiply overflow

  001d9	e8 00 00 00 00	 call	 ?_Throw_bad_array_new_length@std@@YAXXZ ; std::_Throw_bad_array_new_length
$LN140@Emplace_re:
  001de	cc		 int	 3
??$_Emplace_reallocate@V?$basic_string@DU?$char_traits@D@std@@V?$allocator@D@2@@std@@@?$vector@V?$basic_string@DU?$char_traits@D@std@@V?$allocator@D@2@@std@@V?$allocator@V?$basic_string@DU?$char_traits@D@std@@V?$allocator@D@2@@std@@@2@@std@@AAEPAV?$basic_string@DU?$char_traits@D@std@@V?$allocator@D@2@@1@QAV21@$$QAV21@@Z ENDP ; std::vector<std::basic_string<char,std::char_traits<char>,std::allocator<char> >,std::allocator<std::basic_string<char,std::char_traits<char>,std::allocator<char> > > >::_Emplace_reallocate<std::basic_string<char,std::char_traits<char>,std::allocator<char> > >
_TEXT	ENDS
; Function compile flags: /Ogtp
; File C:\Program Files\Microsoft Visual Studio\2022\Professional\VC\Tools\MSVC\14.44.35207\include\xutility
;	COMDAT ??$_Copy_memmove_n@PAHPAH@std@@YAPAHPAHI0@Z
_TEXT	SEGMENT
__First$ = 8						; size = 4
__Object_count$ = 12					; size = 4
__Dest$ = 16						; size = 4
??$_Copy_memmove_n@PAHPAH@std@@YAPAHPAHI0@Z PROC	; std::_Copy_memmove_n<int *,int *>, COMDAT

; 4774 : _OutCtgIt _Copy_memmove_n(_CtgIt _First, const size_t _Object_count, _OutCtgIt _Dest) {

  00000	55		 push	 ebp
  00001	8b ec		 mov	 ebp, esp

; 4775 :     const auto _First_ptr  = _STD _To_address(_First);
; 4776 :     const auto _First_ch   = const_cast<const char*>(reinterpret_cast<const volatile char*>(_First_ptr));
; 4777 :     const auto _Byte_count = _Object_count * sizeof(*_First_ptr);
; 4778 :     return _STD _Copy_memmove_tail(_First_ch, _STD move(_Dest), _Byte_count, _Object_count);

  00003	8b 45 0c	 mov	 eax, DWORD PTR __Object_count$[ebp]
  00006	50		 push	 eax
  00007	c1 e0 02	 shl	 eax, 2
  0000a	50		 push	 eax
  0000b	ff 75 10	 push	 DWORD PTR __Dest$[ebp]
  0000e	ff 75 08	 push	 DWORD PTR __First$[ebp]
  00011	e8 00 00 00 00	 call	 ??$_Copy_memmove_tail@PAH@std@@YAPAHQBDQAHII@Z ; std::_Copy_memmove_tail<int *>
  00016	83 c4 10	 add	 esp, 16			; 00000010H

; 4779 : }

  00019	5d		 pop	 ebp
  0001a	c3		 ret	 0
??$_Copy_memmove_n@PAHPAH@std@@YAPAHPAHI0@Z ENDP	; std::_Copy_memmove_n<int *,int *>
_TEXT	ENDS
; Function compile flags: /Ogtp
; File C:\Program Files\Microsoft Visual Studio\2022\Professional\VC\Tools\MSVC\14.44.35207\include\vector
; File C:\Program Files\Microsoft Visual Studio\2022\Professional\VC\Tools\MSVC\14.44.35207\include\xmemory
; File C:\Program Files\Microsoft Visual Studio\2022\Professional\VC\Tools\MSVC\14.44.35207\include\vector
; File C:\Program Files\Microsoft Visual Studio\2022\Professional\VC\Tools\MSVC\14.44.35207\include\xmemory
; File C:\Program Files\Microsoft Visual Studio\2022\Professional\VC\Tools\MSVC\14.44.35207\include\vector
; File C:\Program Files\Microsoft Visual Studio\2022\Professional\VC\Tools\MSVC\14.44.35207\include\xmemory
; File C:\Program Files\Microsoft Visual Studio\2022\Professional\VC\Tools\MSVC\14.44.35207\include\vector
; File C:\Program Files\Microsoft Visual Studio\2022\Professional\VC\Tools\MSVC\14.44.35207\include\xmemory
; File C:\Program Files\Microsoft Visual Studio\2022\Professional\VC\Tools\MSVC\14.44.35207\include\xstring
; File C:\Program Files\Microsoft Visual Studio\2022\Professional\VC\Tools\MSVC\14.44.35207\include\__msvc_string_view.hpp
; File C:\Program Files\Microsoft Visual Studio\2022\Professional\VC\Tools\MSVC\14.44.35207\include\xstring
; File C:\Program Files\Microsoft Visual Studio\2022\Professional\VC\Tools\MSVC\14.44.35207\include\xmemory
; File C:\Program Files\Microsoft Visual Studio\2022\Professional\VC\Tools\MSVC\14.44.35207\include\xstring
; File C:\Program Files\Microsoft Visual Studio\2022\Professional\VC\Tools\MSVC\14.44.35207\include\xmemory
; File C:\Program Files\Microsoft Visual Studio\2022\Professional\VC\Tools\MSVC\14.44.35207\include\xstring
; File C:\Program Files\Microsoft Visual Studio\2022\Professional\VC\Tools\MSVC\14.44.35207\include\__msvc_string_view.hpp
; File C:\Program Files\Microsoft Visual Studio\2022\Professional\VC\Tools\MSVC\14.44.35207\include\xstring
; File C:\Program Files\Microsoft Visual Studio\2022\Professional\VC\Tools\MSVC\14.44.35207\include\__msvc_string_view.hpp
; File C:\Program Files\Microsoft Visual Studio\2022\Professional\VC\Tools\MSVC\14.44.35207\include\xstring
; File C:\Program Files\Microsoft Visual Studio\2022\Professional\VC\Tools\MSVC\14.44.35207\include\__msvc_string_view.hpp
; File C:\Program Files\Microsoft Visual Studio\2022\Professional\VC\Tools\MSVC\14.44.35207\include\xmemory
; File C:\Program Files\Microsoft Visual Studio\2022\Professional\VC\Tools\MSVC\14.44.35207\include\xstring
; File C:\Program Files\Microsoft Visual Studio\2022\Professional\VC\Tools\MSVC\14.44.35207\include\vector
; File C:\Program Files\Microsoft Visual Studio\2022\Professional\VC\Tools\MSVC\14.44.35207\include\xstring
; File C:\Program Files\Microsoft Visual Studio\2022\Professional\VC\Tools\MSVC\14.44.35207\include\vector
;	COMDAT ??$_Construct_n@ABQAV?$basic_string@DU?$char_traits@D@std@@V?$allocator@D@2@@std@@ABQAV12@@?$vector@V?$basic_string@DU?$char_traits@D@std@@V?$allocator@D@2@@std@@V?$allocator@V?$basic_string@DU?$char_traits@D@std@@V?$allocator@D@2@@std@@@2@@std@@AAEXIABQAV?$basic_string@DU?$char_traits@D@std@@V?$allocator@D@2@@1@0@Z
_TEXT	SEGMENT
__Backout$2 = -36					; size = 12
__Guard$3 = -24						; size = 4
__Last$1$ = -20						; size = 4
_this$1$ = -16						; size = 4
__$EHRec$ = -12						; size = 12
__Count$ = 8						; size = 4
__Count$1$ = 8						; size = 4
_<_Val_0>$ = 12						; size = 4
__UFirst$1$ = 12					; size = 4
_<_Val_1>$ = 16						; size = 4
__Result$1$ = 16					; size = 4
??$_Construct_n@ABQAV?$basic_string@DU?$char_traits@D@std@@V?$allocator@D@2@@std@@ABQAV12@@?$vector@V?$basic_string@DU?$char_traits@D@std@@V?$allocator@D@2@@std@@V?$allocator@V?$basic_string@DU?$char_traits@D@std@@V?$allocator@D@2@@std@@@2@@std@@AAEXIABQAV?$basic_string@DU?$char_traits@D@std@@V?$allocator@D@2@@1@0@Z PROC ; std::vector<std::basic_string<char,std::char_traits<char>,std::allocator<char> >,std::allocator<std::basic_string<char,std::char_traits<char>,std::allocator<char> > > >::_Construct_n<std::basic_string<char,std::char_traits<char>,std::allocator<char> > * const &,std::basic_string<char,std::char_traits<char>,std::allocator<char> > * const &>, COMDAT
; _this$ = ecx

; 2102 :     _CONSTEXPR20 void _Construct_n(_CRT_GUARDOVERFLOW const size_type _Count, _Valty&&... _Val) {

  00000	55		 push	 ebp
  00001	8b ec		 mov	 ebp, esp
  00003	6a ff		 push	 -1
  00005	68 00 00 00 00	 push	 __ehhandler$??$_Construct_n@ABQAV?$basic_string@DU?$char_traits@D@std@@V?$allocator@D@2@@std@@ABQAV12@@?$vector@V?$basic_string@DU?$char_traits@D@std@@V?$allocator@D@2@@std@@V?$allocator@V?$basic_string@DU?$char_traits@D@std@@V?$allocator@D@2@@std@@@2@@std@@AAEXIABQAV?$basic_string@DU?$char_traits@D@std@@V?$allocator@D@2@@1@0@Z
  0000a	64 a1 00 00 00
	00		 mov	 eax, DWORD PTR fs:0
  00010	50		 push	 eax
  00011	83 ec 18	 sub	 esp, 24			; 00000018H
  00014	56		 push	 esi
  00015	57		 push	 edi
  00016	a1 00 00 00 00	 mov	 eax, DWORD PTR ___security_cookie
  0001b	33 c5		 xor	 eax, ebp
  0001d	50		 push	 eax
  0001e	8d 45 f4	 lea	 eax, DWORD PTR __$EHRec$[ebp]
  00021	64 a3 00 00 00
	00		 mov	 DWORD PTR fs:0, eax
  00027	8b d1		 mov	 edx, ecx
  00029	89 55 f0	 mov	 DWORD PTR _this$1$[ebp], edx

; 2103 :         // Dispatches between the three sized constructions.
; 2104 :         // 1-arg -> value-construction, e.g. vector(5)
; 2105 :         // 2-arg -> fill, e.g. vector(5, "meow")
; 2106 :         // 3-arg -> sized range construction, e.g. vector{"Hello", "Fluffy", "World"}
; 2107 :         auto& _Al       = _Getal();
; 2108 :         auto&& _Alproxy = _GET_PROXY_ALLOCATOR(_Alty, _Al);
; 2109 :         auto& _My_data  = _Mypair._Myval2;
; 2110 :         _Container_proxy_ptr<_Alty> _Proxy(_Alproxy, _My_data);
; 2111 :         if (_Count != 0) {

  0002c	8b 45 08	 mov	 eax, DWORD PTR __Count$[ebp]
  0002f	85 c0		 test	 eax, eax
  00031	0f 84 45 01 00
	00		 je	 $LN114@Construct_

; 2051 :         if (_Newcapacity > max_size()) {

  00037	3d aa aa aa 0a	 cmp	 eax, 178956970		; 0aaaaaaaH
  0003c	0f 87 52 01 00
	00		 ja	 $LN132@Construct_
; File C:\Program Files\Microsoft Visual Studio\2022\Professional\VC\Tools\MSVC\14.44.35207\include\xmemory

; 122  :     return _Count * _Ty_size;

  00042	8d 34 40	 lea	 esi, DWORD PTR [eax+eax*2]
  00045	c1 e6 03	 shl	 esi, 3

; 227  :     if (_Bytes == 0) {

  00048	85 f6		 test	 esi, esi
  0004a	75 04		 jne	 SHORT $LN19@Construct_

; 228  :         return nullptr;

  0004c	33 ff		 xor	 edi, edi
  0004e	eb 1d		 jmp	 SHORT $LN18@Construct_
$LN19@Construct_:

; 229  :     }
; 230  : 
; 231  : #if _HAS_CXX20 // TRANSITION, GH-1532
; 232  :     if (_STD is_constant_evaluated()) {
; 233  :         return _Traits::_Allocate(_Bytes);
; 234  :     }
; 235  : #endif // _HAS_CXX20
; 236  : 
; 237  : #ifdef __cpp_aligned_new
; 238  :     if constexpr (_Align > __STDCPP_DEFAULT_NEW_ALIGNMENT__) {
; 239  :         size_t _Passed_align = _Align;
; 240  : #if defined(_M_IX86) || defined(_M_X64)
; 241  :         if (_Bytes >= _Big_allocation_threshold) {
; 242  :             // boost the alignment of big allocations to help autovectorization
; 243  :             _Passed_align = (_STD max)(_Align, _Big_allocation_alignment);
; 244  :         }
; 245  : #endif // defined(_M_IX86) || defined(_M_X64)
; 246  :         return _Traits::_Allocate_aligned(_Bytes, _Passed_align);
; 247  :     } else
; 248  : #endif // defined(__cpp_aligned_new)
; 249  :     {
; 250  : #if defined(_M_IX86) || defined(_M_X64)
; 251  :         if (_Bytes >= _Big_allocation_threshold) {

  00050	56		 push	 esi
  00051	81 fe 00 10 00
	00		 cmp	 esi, 4096		; 00001000H
  00057	72 07		 jb	 SHORT $LN20@Construct_

; 253  :             return _Allocate_manually_vector_aligned<_Traits>(_Bytes);

  00059	e8 00 00 00 00	 call	 ??$_Allocate_manually_vector_aligned@U_Default_allocate_traits@std@@@std@@YAPAXI@Z ; std::_Allocate_manually_vector_aligned<std::_Default_allocate_traits>
  0005e	eb 05		 jmp	 SHORT $LN129@Construct_
$LN20@Construct_:

; 136  :         return ::operator new(_Bytes);

  00060	e8 00 00 00 00	 call	 ??2@YAPAXI@Z		; operator new
$LN129@Construct_:
; File C:\Program Files\Microsoft Visual Studio\2022\Professional\VC\Tools\MSVC\14.44.35207\include\vector

; 2035 :         _Myfirst              = _Newvec;

  00065	8b 55 f0	 mov	 edx, DWORD PTR _this$1$[ebp]
  00068	8b f8		 mov	 edi, eax
  0006a	83 c4 04	 add	 esp, 4
$LN18@Construct_:
  0006d	89 3a		 mov	 DWORD PTR [edx], edi

; 2036 :         _Mylast               = _Newvec;
; 2037 :         _Myend                = _Newvec + _Newcapacity;

  0006f	8d 04 3e	 lea	 eax, DWORD PTR [esi+edi]
  00072	89 7a 04	 mov	 DWORD PTR [edx+4], edi
  00075	89 42 08	 mov	 DWORD PTR [edx+8], eax

; 2112 :             _Buy_nonzero(_Count);
; 2113 :             _Tidy_guard<vector> _Guard{this};

  00078	89 55 e8	 mov	 DWORD PTR __Guard$3[ebp], edx

; 2120 :                 _My_data._Mylast = _STD _Uninitialized_copy(_STD forward<_Valty>(_Val)..., _My_data._Myfirst, _Al);

  0007b	8b 45 10	 mov	 eax, DWORD PTR _<_Val_1>$[ebp]
  0007e	c7 45 fc 00 00
	00 00		 mov	 DWORD PTR __$EHRec$[ebp+8], 0
; File C:\Program Files\Microsoft Visual Studio\2022\Professional\VC\Tools\MSVC\14.44.35207\include\xmemory

; 1833 :     _CONSTEXPR20 _Uninitialized_backout_al(pointer _Dest, _Alloc& _Al_) : _First(_Dest), _Last(_Dest), _Al(_Al_) {}

  00085	89 7d dc	 mov	 DWORD PTR __Backout$2[ebp], edi
  00088	89 7d e0	 mov	 DWORD PTR __Backout$2[ebp+4], edi
; File C:\Program Files\Microsoft Visual Studio\2022\Professional\VC\Tools\MSVC\14.44.35207\include\vector

; 2120 :                 _My_data._Mylast = _STD _Uninitialized_copy(_STD forward<_Valty>(_Val)..., _My_data._Myfirst, _Al);

  0008b	8b 08		 mov	 ecx, DWORD PTR [eax]
; File C:\Program Files\Microsoft Visual Studio\2022\Professional\VC\Tools\MSVC\14.44.35207\include\xmemory

; 1876 :     auto _UFirst = _STD _Get_unwrapped(_STD move(_First));

  0008d	8b 45 0c	 mov	 eax, DWORD PTR _<_Val_0>$[ebp]
; File C:\Program Files\Microsoft Visual Studio\2022\Professional\VC\Tools\MSVC\14.44.35207\include\vector

; 2120 :                 _My_data._Mylast = _STD _Uninitialized_copy(_STD forward<_Valty>(_Val)..., _My_data._Myfirst, _Al);

  00090	89 4d ec	 mov	 DWORD PTR __Last$1$[ebp], ecx
; File C:\Program Files\Microsoft Visual Studio\2022\Professional\VC\Tools\MSVC\14.44.35207\include\xmemory

; 1833 :     _CONSTEXPR20 _Uninitialized_backout_al(pointer _Dest, _Alloc& _Al_) : _First(_Dest), _Last(_Dest), _Al(_Al_) {}

  00093	89 55 e4	 mov	 DWORD PTR __Backout$2[ebp+8], edx

; 1876 :     auto _UFirst = _STD _Get_unwrapped(_STD move(_First));

  00096	8b 00		 mov	 eax, DWORD PTR [eax]
  00098	89 45 0c	 mov	 DWORD PTR __UFirst$1$[ebp], eax

; 1877 :     auto _ULast  = _STD _Get_unwrapped(_STD move(_Last));
; 1878 : #endif // ^^^ !_HAS_CXX20 ^^^
; 1879 : 
; 1880 :     constexpr bool _Can_memmove = _Sent_copy_cat<decltype(_UFirst), decltype(_ULast), _Ptrval>::_Bitcopy_constructible
; 1881 :                                && _Uses_default_construct<_Alloc, _Ptrval, decltype(*_UFirst)>::value;
; 1882 : 
; 1883 :     if constexpr (_Can_memmove) {
; 1884 : #if _HAS_CXX20
; 1885 :         if (!_STD is_constant_evaluated())
; 1886 : #endif // _HAS_CXX20
; 1887 :         {
; 1888 :             if constexpr (is_same_v<decltype(_UFirst), decltype(_ULast)>) {
; 1889 :                 _STD _Copy_memmove(_STD _To_address(_UFirst), _STD _To_address(_ULast), _STD _Unfancy(_Dest));
; 1890 :                 _Dest += _ULast - _UFirst;
; 1891 :             } else {
; 1892 :                 const auto _Count = static_cast<size_t>(_ULast - _UFirst);
; 1893 :                 _STD _Copy_memmove_n(_STD _To_address(_UFirst), _Count, _STD _Unfancy(_Dest));
; 1894 :                 _Dest += _Count;
; 1895 :             }
; 1896 :             return _Dest;
; 1897 :         }
; 1898 :     }
; 1899 : 
; 1900 :     _Uninitialized_backout_al<_Alloc> _Backout{_Dest, _Al};

  0009b	c6 45 fc 01	 mov	 BYTE PTR __$EHRec$[ebp+8], 1

; 1901 :     for (; _UFirst != _ULast; ++_UFirst) {

  0009f	3b c1		 cmp	 eax, ecx
  000a1	0f 84 d2 00 00
	00		 je	 $LN30@Construct_
$LL31@Construct_:
  000a7	0f 57 c0	 xorps	 xmm0, xmm0
; File C:\Program Files\Microsoft Visual Studio\2022\Professional\VC\Tools\MSVC\14.44.35207\include\xstring

; 444  :         const value_type* _Result = _Bx._Buf;

  000aa	89 45 10	 mov	 DWORD PTR __Result$1$[ebp], eax

; 493  :         _CONSTEXPR20 _Bxty() noexcept : _Buf() {} // user-provided, for fancy pointers

  000ad	0f 11 07	 movups	 XMMWORD PTR [edi], xmm0

; 517  :     size_type _Mysize = 0; // current length of string (size)

  000b0	c7 47 10 00 00
	00 00		 mov	 DWORD PTR [edi+16], 0

; 444  :         const value_type* _Result = _Bx._Buf;

  000b7	8b d0		 mov	 edx, eax

; 518  :     size_type _Myres  = 0; // current storage reserved for string (capacity)

  000b9	c7 47 14 00 00
	00 00		 mov	 DWORD PTR [edi+20], 0

; 453  :         return _Myres > _Small_string_capacity;

  000c0	83 78 14 0f	 cmp	 DWORD PTR [eax+20], 15	; 0000000fH

; 445  :         if (_Large_mode_engaged()) {

  000c4	76 05		 jbe	 SHORT $LN56@Construct_

; 446  :             _Result = _Unfancy(_Bx._Ptr);

  000c6	8b 10		 mov	 edx, DWORD PTR [eax]
  000c8	89 55 10	 mov	 DWORD PTR __Result$1$[ebp], edx
$LN56@Construct_:

; 718  :         _Construct<_Construct_strategy::_From_string>(_Right._Mypair._Myval2._Myptr(), _Right._Mypair._Myval2._Mysize);

  000cb	8b 48 10	 mov	 ecx, DWORD PTR [eax+16]
  000ce	89 4d 08	 mov	 DWORD PTR __Count$1$[ebp], ecx

; 881  :         if (_Count > max_size()) {

  000d1	81 f9 ff ff ff
	7f		 cmp	 ecx, 2147483647		; 7fffffffH
  000d7	0f 87 b2 00 00
	00		 ja	 $LN119@Construct_

; 883  :         }
; 884  : 
; 885  :         auto& _Al       = _Getal();
; 886  :         auto&& _Alproxy = _GET_PROXY_ALLOCATOR(_Alty, _Al);
; 887  :         _Container_proxy_ptr<_Alty> _Proxy(_Alproxy, _My_data);
; 888  : 
; 889  :         if (_Count <= _Small_string_capacity) {

  000dd	83 f9 0f	 cmp	 ecx, 15			; 0000000fH
  000e0	77 12		 ja	 SHORT $LN64@Construct_

; 890  :             _My_data._Mysize = _Count;

  000e2	89 4f 10	 mov	 DWORD PTR [edi+16], ecx

; 891  :             _My_data._Myres  = _Small_string_capacity;

  000e5	c7 47 14 0f 00
	00 00		 mov	 DWORD PTR [edi+20], 15	; 0000000fH
; File C:\Program Files\Microsoft Visual Studio\2022\Professional\VC\Tools\MSVC\14.44.35207\include\__msvc_string_view.hpp

; 121  :         _CSTD memcpy(_First1, _First2, _Count * sizeof(_Elem));

  000ec	0f 10 02	 movups	 xmm0, XMMWORD PTR [edx]
  000ef	0f 11 07	 movups	 XMMWORD PTR [edi], xmm0
; File C:\Program Files\Microsoft Visual Studio\2022\Professional\VC\Tools\MSVC\14.44.35207\include\xstring

; 908  :             return;

  000f2	eb 6d		 jmp	 SHORT $LN90@Construct_
$LN64@Construct_:

; 2978 :         const size_type _Masked = _Requested | _Alloc_mask;

  000f4	8b f1		 mov	 esi, ecx
  000f6	83 ce 0f	 or	 esi, 15			; 0000000fH
  000f9	81 fe ff ff ff
	7f		 cmp	 esi, 2147483647		; 7fffffffH

; 2979 :         if (_Masked > _Max) { // the mask overflows, settle for max_size()

  000ff	76 12		 jbe	 SHORT $LN70@Construct_

; 2980 :             return _Max;

  00101	b8 00 00 00 80	 mov	 eax, -2147483648	; 80000000H
  00106	be ff ff ff 7f	 mov	 esi, 2147483647		; 7fffffffH
; File C:\Program Files\Microsoft Visual Studio\2022\Professional\VC\Tools\MSVC\14.44.35207\include\xmemory

; 253  :             return _Allocate_manually_vector_aligned<_Traits>(_Bytes);

  0010b	50		 push	 eax
  0010c	e8 00 00 00 00	 call	 ??$_Allocate_manually_vector_aligned@U_Default_allocate_traits@std@@@std@@YAPAXI@Z ; std::_Allocate_manually_vector_aligned<std::_Default_allocate_traits>
  00111	eb 2b		 jmp	 SHORT $LN130@Construct_
$LN70@Construct_:
; File C:\Program Files\Microsoft Visual Studio\2022\Professional\VC\Tools\MSVC\14.44.35207\include\xstring

; 2987 :         return (_STD max)(_Masked, _Old + _Old / 2);

  00113	83 fe 16	 cmp	 esi, 22			; 00000016H
  00116	b8 16 00 00 00	 mov	 eax, 22			; 00000016H
  0011b	0f 42 f0	 cmovb	 esi, eax

; 825  :         ++_Capacity; // Take null terminator into consideration

  0011e	8d 46 01	 lea	 eax, DWORD PTR [esi+1]
; File C:\Program Files\Microsoft Visual Studio\2022\Professional\VC\Tools\MSVC\14.44.35207\include\xmemory

; 227  :     if (_Bytes == 0) {

  00121	85 c0		 test	 eax, eax
  00123	75 04		 jne	 SHORT $LN84@Construct_

; 228  :         return nullptr;

  00125	33 d2		 xor	 edx, edx
  00127	eb 1d		 jmp	 SHORT $LN83@Construct_
$LN84@Construct_:

; 229  :     }
; 230  : 
; 231  : #if _HAS_CXX20 // TRANSITION, GH-1532
; 232  :     if (_STD is_constant_evaluated()) {
; 233  :         return _Traits::_Allocate(_Bytes);
; 234  :     }
; 235  : #endif // _HAS_CXX20
; 236  : 
; 237  : #ifdef __cpp_aligned_new
; 238  :     if constexpr (_Align > __STDCPP_DEFAULT_NEW_ALIGNMENT__) {
; 239  :         size_t _Passed_align = _Align;
; 240  : #if defined(_M_IX86) || defined(_M_X64)
; 241  :         if (_Bytes >= _Big_allocation_threshold) {
; 242  :             // boost the alignment of big allocations to help autovectorization
; 243  :             _Passed_align = (_STD max)(_Align, _Big_allocation_alignment);
; 244  :         }
; 245  : #endif // defined(_M_IX86) || defined(_M_X64)
; 246  :         return _Traits::_Allocate_aligned(_Bytes, _Passed_align);
; 247  :     } else
; 248  : #endif // defined(__cpp_aligned_new)
; 249  :     {
; 250  : #if defined(_M_IX86) || defined(_M_X64)
; 251  :         if (_Bytes >= _Big_allocation_threshold) {

  00129	3d 00 10 00 00	 cmp	 eax, 4096		; 00001000H
  0012e	72 08		 jb	 SHORT $LN85@Construct_

; 253  :             return _Allocate_manually_vector_aligned<_Traits>(_Bytes);

  00130	50		 push	 eax
  00131	e8 00 00 00 00	 call	 ??$_Allocate_manually_vector_aligned@U_Default_allocate_traits@std@@@std@@YAPAXI@Z ; std::_Allocate_manually_vector_aligned<std::_Default_allocate_traits>
  00136	eb 06		 jmp	 SHORT $LN130@Construct_
$LN85@Construct_:

; 136  :         return ::operator new(_Bytes);

  00138	50		 push	 eax
  00139	e8 00 00 00 00	 call	 ??2@YAPAXI@Z		; operator new
$LN130@Construct_:
; File C:\Program Files\Microsoft Visual Studio\2022\Professional\VC\Tools\MSVC\14.44.35207\include\xstring

; 913  :         _Construct_in_place(_My_data._Bx._Ptr, _New_ptr);

  0013e	8b 4d 08	 mov	 ecx, DWORD PTR __Count$1$[ebp]
  00141	8b d0		 mov	 edx, eax
  00143	83 c4 04	 add	 esp, 4
$LN83@Construct_:

; 917  :         if constexpr (_Strat == _Construct_strategy::_From_char) {
; 918  :             _Traits::assign(_Unfancy(_New_ptr), _Count, _Arg);
; 919  :             _Traits::assign(_Unfancy(_New_ptr)[_Count], _Elem());
; 920  :         } else if constexpr (_Strat == _Construct_strategy::_From_ptr) {
; 921  :             _Traits::copy(_Unfancy(_New_ptr), _Arg, _Count);
; 922  :             _Traits::assign(_Unfancy(_New_ptr)[_Count], _Elem());
; 923  :         } else { // _Strat == _Construct_strategy::_From_string
; 924  :             _Traits::copy(_Unfancy(_New_ptr), _Arg, _Count + 1);

  00146	8d 41 01	 lea	 eax, DWORD PTR [ecx+1]
  00149	89 17		 mov	 DWORD PTR [edi], edx
; File C:\Program Files\Microsoft Visual Studio\2022\Professional\VC\Tools\MSVC\14.44.35207\include\__msvc_string_view.hpp

; 121  :         _CSTD memcpy(_First1, _First2, _Count * sizeof(_Elem));

  0014b	50		 push	 eax
  0014c	ff 75 10	 push	 DWORD PTR __Result$1$[ebp]
; File C:\Program Files\Microsoft Visual Studio\2022\Professional\VC\Tools\MSVC\14.44.35207\include\xstring

; 915  :         _My_data._Mysize = _Count;

  0014f	89 4f 10	 mov	 DWORD PTR [edi+16], ecx
; File C:\Program Files\Microsoft Visual Studio\2022\Professional\VC\Tools\MSVC\14.44.35207\include\__msvc_string_view.hpp

; 121  :         _CSTD memcpy(_First1, _First2, _Count * sizeof(_Elem));

  00152	52		 push	 edx
; File C:\Program Files\Microsoft Visual Studio\2022\Professional\VC\Tools\MSVC\14.44.35207\include\xstring

; 916  :         _My_data._Myres  = _New_capacity;

  00153	89 77 14	 mov	 DWORD PTR [edi+20], esi
; File C:\Program Files\Microsoft Visual Studio\2022\Professional\VC\Tools\MSVC\14.44.35207\include\__msvc_string_view.hpp

; 121  :         _CSTD memcpy(_First1, _First2, _Count * sizeof(_Elem));

  00156	e8 00 00 00 00	 call	 _memcpy
  0015b	8b 45 0c	 mov	 eax, DWORD PTR __UFirst$1$[ebp]
  0015e	83 c4 0c	 add	 esp, 12			; 0000000cH
$LN90@Construct_:
; File C:\Program Files\Microsoft Visual Studio\2022\Professional\VC\Tools\MSVC\14.44.35207\include\xmemory

; 1901 :     for (; _UFirst != _ULast; ++_UFirst) {

  00161	83 c0 18	 add	 eax, 24			; 00000018H

; 1845 :         ++_Last;

  00164	83 c7 18	 add	 edi, 24			; 00000018H
  00167	89 7d e0	 mov	 DWORD PTR __Backout$2[ebp+4], edi

; 1901 :     for (; _UFirst != _ULast; ++_UFirst) {

  0016a	89 45 0c	 mov	 DWORD PTR __UFirst$1$[ebp], eax
  0016d	3b 45 ec	 cmp	 eax, DWORD PTR __Last$1$[ebp]
  00170	0f 85 31 ff ff
	ff		 jne	 $LL31@Construct_
; File C:\Program Files\Microsoft Visual Studio\2022\Professional\VC\Tools\MSVC\14.44.35207\include\xstring

; 881  :         if (_Count > max_size()) {

  00176	8b 55 f0	 mov	 edx, DWORD PTR _this$1$[ebp]
$LN30@Construct_:
; File C:\Program Files\Microsoft Visual Studio\2022\Professional\VC\Tools\MSVC\14.44.35207\include\vector

; 2120 :                 _My_data._Mylast = _STD _Uninitialized_copy(_STD forward<_Valty>(_Val)..., _My_data._Myfirst, _Al);

  00179	89 7a 04	 mov	 DWORD PTR [edx+4], edi
$LN114@Construct_:

; 2121 :             } else {
; 2122 :                 _STL_INTERNAL_STATIC_ASSERT(false); // unexpected number of arguments
; 2123 :             }
; 2124 :             _ASAN_VECTOR_CREATE;
; 2125 :             _Guard._Target = nullptr;
; 2126 :         }
; 2127 : 
; 2128 :         _Proxy._Release();
; 2129 :     }

  0017c	8b 4d f4	 mov	 ecx, DWORD PTR __$EHRec$[ebp]
  0017f	64 89 0d 00 00
	00 00		 mov	 DWORD PTR fs:0, ecx
  00186	59		 pop	 ecx
  00187	5f		 pop	 edi
  00188	5e		 pop	 esi
  00189	8b e5		 mov	 esp, ebp
  0018b	5d		 pop	 ebp
  0018c	c2 0c 00	 ret	 12			; 0000000cH
$LN119@Construct_:
; File C:\Program Files\Microsoft Visual Studio\2022\Professional\VC\Tools\MSVC\14.44.35207\include\xstring

; 882  :             _Xlen_string(); // result too long

  0018f	e8 00 00 00 00	 call	 ?_Xlen_string@std@@YAXXZ ; std::_Xlen_string
$LN132@Construct_:
; File C:\Program Files\Microsoft Visual Studio\2022\Professional\VC\Tools\MSVC\14.44.35207\include\vector

; 2052 :             _Xlength();

  00194	e8 00 00 00 00	 call	 ?_Xlength@?$vector@V?$basic_string@DU?$char_traits@D@std@@V?$allocator@D@2@@std@@V?$allocator@V?$basic_string@DU?$char_traits@D@std@@V?$allocator@D@2@@std@@@2@@std@@CAXXZ ; std::vector<std::basic_string<char,std::char_traits<char>,std::allocator<char> >,std::allocator<std::basic_string<char,std::char_traits<char>,std::allocator<char> > > >::_Xlength
$LN128@Construct_:
  00199	cc		 int	 3
_TEXT	ENDS
;	COMDAT text$x
text$x	SEGMENT
__unwindfunclet$??$_Construct_n@ABQAV?$basic_string@DU?$char_traits@D@std@@V?$allocator@D@2@@std@@ABQAV12@@?$vector@V?$basic_string@DU?$char_traits@D@std@@V?$allocator@D@2@@std@@V?$allocator@V?$basic_string@DU?$char_traits@D@std@@V?$allocator@D@2@@std@@@2@@std@@AAEXIABQAV?$basic_string@DU?$char_traits@D@std@@V?$allocator@D@2@@1@0@Z$0:
  00000	8d 4d e8	 lea	 ecx, DWORD PTR __Guard$3[ebp]
  00003	e9 00 00 00 00	 jmp	 ??1?$_Tidy_guard@V?$vector@V?$basic_string@DU?$char_traits@D@std@@V?$allocator@D@2@@std@@V?$allocator@V?$basic_string@DU?$char_traits@D@std@@V?$allocator@D@2@@std@@@2@@std@@@std@@QAE@XZ ; std::_Tidy_guard<std::vector<std::basic_string<char,std::char_traits<char>,std::allocator<char> >,std::allocator<std::basic_string<char,std::char_traits<char>,std::allocator<char> > > > >::~_Tidy_guard<std::vector<std::basic_string<char,std::char_traits<char>,std::allocator<char> >,std::allocator<std::basic_string<char,std::char_traits<char>,std::allocator<char> > > > >
__unwindfunclet$??$_Construct_n@ABQAV?$basic_string@DU?$char_traits@D@std@@V?$allocator@D@2@@std@@ABQAV12@@?$vector@V?$basic_string@DU?$char_traits@D@std@@V?$allocator@D@2@@std@@V?$allocator@V?$basic_string@DU?$char_traits@D@std@@V?$allocator@D@2@@std@@@2@@std@@AAEXIABQAV?$basic_string@DU?$char_traits@D@std@@V?$allocator@D@2@@1@0@Z$1:
  00008	8d 4d dc	 lea	 ecx, DWORD PTR __Backout$2[ebp]
  0000b	e9 00 00 00 00	 jmp	 ??1?$_Uninitialized_backout_al@V?$allocator@V?$basic_string@DU?$char_traits@D@std@@V?$allocator@D@2@@std@@@std@@@std@@QAE@XZ ; std::_Uninitialized_backout_al<std::allocator<std::basic_string<char,std::char_traits<char>,std::allocator<char> > > >::~_Uninitialized_backout_al<std::allocator<std::basic_string<char,std::char_traits<char>,std::allocator<char> > > >
  00010	cc		 int	 3
  00011	cc		 int	 3
  00012	cc		 int	 3
  00013	cc		 int	 3
  00014	cc		 int	 3
__ehhandler$??$_Construct_n@ABQAV?$basic_string@DU?$char_traits@D@std@@V?$allocator@D@2@@std@@ABQAV12@@?$vector@V?$basic_string@DU?$char_traits@D@std@@V?$allocator@D@2@@std@@V?$allocator@V?$basic_string@DU?$char_traits@D@std@@V?$allocator@D@2@@std@@@2@@std@@AAEXIABQAV?$basic_string@DU?$char_traits@D@std@@V?$allocator@D@2@@1@0@Z:
  00015	90		 npad	 1
  00016	90		 npad	 1
  00017	8b 54 24 08	 mov	 edx, DWORD PTR [esp+8]
  0001b	8d 42 0c	 lea	 eax, DWORD PTR [edx+12]
  0001e	8b 4a dc	 mov	 ecx, DWORD PTR [edx-36]
  00021	33 c8		 xor	 ecx, eax
  00023	e8 00 00 00 00	 call	 @__security_check_cookie@4
  00028	b8 00 00 00 00	 mov	 eax, OFFSET __ehfuncinfo$??$_Construct_n@ABQAV?$basic_string@DU?$char_traits@D@std@@V?$allocator@D@2@@std@@ABQAV12@@?$vector@V?$basic_string@DU?$char_traits@D@std@@V?$allocator@D@2@@std@@V?$allocator@V?$basic_string@DU?$char_traits@D@std@@V?$allocator@D@2@@std@@@2@@std@@AAEXIABQAV?$basic_string@DU?$char_traits@D@std@@V?$allocator@D@2@@1@0@Z
  0002d	e9 00 00 00 00	 jmp	 ___CxxFrameHandler3
text$x	ENDS
??$_Construct_n@ABQAV?$basic_string@DU?$char_traits@D@std@@V?$allocator@D@2@@std@@ABQAV12@@?$vector@V?$basic_string@DU?$char_traits@D@std@@V?$allocator@D@2@@std@@V?$allocator@V?$basic_string@DU?$char_traits@D@std@@V?$allocator@D@2@@std@@@2@@std@@AAEXIABQAV?$basic_string@DU?$char_traits@D@std@@V?$allocator@D@2@@1@0@Z ENDP ; std::vector<std::basic_string<char,std::char_traits<char>,std::allocator<char> >,std::allocator<std::basic_string<char,std::char_traits<char>,std::allocator<char> > > >::_Construct_n<std::basic_string<char,std::char_traits<char>,std::allocator<char> > * const &,std::basic_string<char,std::char_traits<char>,std::allocator<char> > * const &>
; Function compile flags: /Ogtp
; File C:\Program Files\Microsoft Visual Studio\2022\Professional\VC\Tools\MSVC\14.44.35207\include\vector
; File C:\Program Files\Microsoft Visual Studio\2022\Professional\VC\Tools\MSVC\14.44.35207\include\xutility
; File C:\Program Files\Microsoft Visual Studio\2022\Professional\VC\Tools\MSVC\14.44.35207\include\vector
; File C:\Program Files\Microsoft Visual Studio\2022\Professional\VC\Tools\MSVC\14.44.35207\include\xutility
; File C:\Program Files\Microsoft Visual Studio\2022\Professional\VC\Tools\MSVC\14.44.35207\include\vector
; File C:\Program Files\Microsoft Visual Studio\2022\Professional\VC\Tools\MSVC\14.44.35207\include\xutility
; File C:\Program Files\Microsoft Visual Studio\2022\Professional\VC\Tools\MSVC\14.44.35207\include\vector
; File C:\Program Files\Microsoft Visual Studio\2022\Professional\VC\Tools\MSVC\14.44.35207\include\xutility
; File C:\Program Files\Microsoft Visual Studio\2022\Professional\VC\Tools\MSVC\14.44.35207\include\vector
; File C:\Program Files\Microsoft Visual Studio\2022\Professional\VC\Tools\MSVC\14.44.35207\include\xutility
; File C:\Program Files\Microsoft Visual Studio\2022\Professional\VC\Tools\MSVC\14.44.35207\include\vector
; File C:\Program Files\Microsoft Visual Studio\2022\Professional\VC\Tools\MSVC\14.44.35207\include\xmemory
; File C:\Program Files\Microsoft Visual Studio\2022\Professional\VC\Tools\MSVC\14.44.35207\include\vector
; File C:\Program Files\Microsoft Visual Studio\2022\Professional\VC\Tools\MSVC\14.44.35207\include\xmemory
; File C:\Program Files\Microsoft Visual Studio\2022\Professional\VC\Tools\MSVC\14.44.35207\include\vector
; File C:\Program Files\Microsoft Visual Studio\2022\Professional\VC\Tools\MSVC\14.44.35207\include\xmemory
; File C:\Program Files\Microsoft Visual Studio\2022\Professional\VC\Tools\MSVC\14.44.35207\include\vector
; File C:\Program Files\Microsoft Visual Studio\2022\Professional\VC\Tools\MSVC\14.44.35207\include\xmemory
; File C:\Program Files\Microsoft Visual Studio\2022\Professional\VC\Tools\MSVC\14.44.35207\include\vector
; File C:\Program Files\Microsoft Visual Studio\2022\Professional\VC\Tools\MSVC\14.44.35207\include\xmemory
; File C:\Program Files\Microsoft Visual Studio\2022\Professional\VC\Tools\MSVC\14.44.35207\include\vector
; File C:\Program Files\Microsoft Visual Studio\2022\Professional\VC\Tools\MSVC\14.44.35207\include\xutility
; File C:\Program Files\Microsoft Visual Studio\2022\Professional\VC\Tools\MSVC\14.44.35207\include\vector
; File C:\Program Files\Microsoft Visual Studio\2022\Professional\VC\Tools\MSVC\14.44.35207\include\xmemory
; File C:\Program Files\Microsoft Visual Studio\2022\Professional\VC\Tools\MSVC\14.44.35207\include\vector
;	COMDAT ??$assign@V?$_Vector_iterator@V?$_Vector_val@U?$_Simple_types@H@std@@@std@@@std@@$0A@@?$vector@HV?$allocator@H@std@@@std@@QAEXV?$_Vector_iterator@V?$_Vector_val@U?$_Simple_types@H@std@@@std@@@1@0@Z
_TEXT	SEGMENT
tv582 = -12						; size = 4
__First$1$ = -8						; size = 4
__Oldsize$1$ = -4					; size = 4
$T1 = -4						; size = 4
__First$ = 8						; size = 4
__Last$ = 12						; size = 4
??$assign@V?$_Vector_iterator@V?$_Vector_val@U?$_Simple_types@H@std@@@std@@@std@@$0A@@?$vector@HV?$allocator@H@std@@@std@@QAEXV?$_Vector_iterator@V?$_Vector_val@U?$_Simple_types@H@std@@@std@@@1@0@Z PROC ; std::vector<int,std::allocator<int> >::assign<std::_Vector_iterator<std::_Vector_val<std::_Simple_types<int> > >,0>, COMDAT
; _this$ = ecx

; 1484 :     _CONSTEXPR20 void assign(_Iter _First, _Iter _Last) {

  00000	55		 push	 ebp
  00001	8b ec		 mov	 ebp, esp
  00003	83 ec 0c	 sub	 esp, 12			; 0000000cH
; File C:\Program Files\Microsoft Visual Studio\2022\Professional\VC\Tools\MSVC\14.44.35207\include\xutility

; 1662 :         return _Last - _First; // assume the iterator will do debug checking

  00006	8b 45 08	 mov	 eax, DWORD PTR __First$[ebp]
; File C:\Program Files\Microsoft Visual Studio\2022\Professional\VC\Tools\MSVC\14.44.35207\include\vector

; 1484 :     _CONSTEXPR20 void assign(_Iter _First, _Iter _Last) {

  00009	53		 push	 ebx
  0000a	8b d9		 mov	 ebx, ecx
; File C:\Program Files\Microsoft Visual Studio\2022\Professional\VC\Tools\MSVC\14.44.35207\include\xutility

; 1662 :         return _Last - _First; // assume the iterator will do debug checking

  0000c	89 45 f8	 mov	 DWORD PTR __First$1$[ebp], eax
; File C:\Program Files\Microsoft Visual Studio\2022\Professional\VC\Tools\MSVC\14.44.35207\include\vector

; 1484 :     _CONSTEXPR20 void assign(_Iter _First, _Iter _Last) {

  0000f	56		 push	 esi
  00010	57		 push	 edi
; File C:\Program Files\Microsoft Visual Studio\2022\Professional\VC\Tools\MSVC\14.44.35207\include\xutility

; 1662 :         return _Last - _First; // assume the iterator will do debug checking

  00011	8b 7d 0c	 mov	 edi, DWORD PTR __Last$[ebp]
; File C:\Program Files\Microsoft Visual Studio\2022\Professional\VC\Tools\MSVC\14.44.35207\include\vector

; 1432 :         const auto _Oldcapacity = static_cast<size_type>(_Myend - _Myfirst);

  00014	8b 0b		 mov	 ecx, DWORD PTR [ebx]
; File C:\Program Files\Microsoft Visual Studio\2022\Professional\VC\Tools\MSVC\14.44.35207\include\xutility

; 1662 :         return _Last - _First; // assume the iterator will do debug checking

  00016	2b f8		 sub	 edi, eax
; File C:\Program Files\Microsoft Visual Studio\2022\Professional\VC\Tools\MSVC\14.44.35207\include\vector

; 1432 :         const auto _Oldcapacity = static_cast<size_type>(_Myend - _Myfirst);

  00018	8b 53 08	 mov	 edx, DWORD PTR [ebx+8]
  0001b	2b d1		 sub	 edx, ecx
; File C:\Program Files\Microsoft Visual Studio\2022\Professional\VC\Tools\MSVC\14.44.35207\include\xutility

; 1662 :         return _Last - _First; // assume the iterator will do debug checking

  0001d	c1 ff 02	 sar	 edi, 2
; File C:\Program Files\Microsoft Visual Studio\2022\Professional\VC\Tools\MSVC\14.44.35207\include\vector

; 1432 :         const auto _Oldcapacity = static_cast<size_type>(_Myend - _Myfirst);

  00020	c1 fa 02	 sar	 edx, 2
  00023	89 4d f4	 mov	 DWORD PTR tv582[ebp], ecx

; 1433 :         if (_Newsize > _Oldcapacity) {

  00026	3b fa		 cmp	 edi, edx
  00028	0f 86 a5 00 00
	00		 jbe	 $LN9@assign

; 1703 :         if (_Newsize > max_size()) {

  0002e	81 ff ff ff ff
	3f		 cmp	 edi, 1073741823		; 3fffffffH
  00034	0f 87 f2 00 00
	00		 ja	 $LN91@assign

; 2011 :         if (_Oldcapacity > _Max - _Oldcapacity / 2) {

  0003a	8b f2		 mov	 esi, edx
  0003c	b8 ff ff ff 3f	 mov	 eax, 1073741823		; 3fffffffH
  00041	d1 ee		 shr	 esi, 1
  00043	2b c6		 sub	 eax, esi
  00045	3b d0		 cmp	 edx, eax
  00047	76 07		 jbe	 SHORT $LN19@assign

; 2012 :             return _Max; // geometric growth would overflow

  00049	be ff ff ff 3f	 mov	 esi, 1073741823		; 3fffffffH
  0004e	eb 07		 jmp	 SHORT $LN86@assign
$LN19@assign:

; 2013 :         }
; 2014 : 
; 2015 :         const size_type _Geometric = _Oldcapacity + _Oldcapacity / 2;

  00050	03 f2		 add	 esi, edx

; 2016 : 
; 2017 :         if (_Geometric < _Newsize) {

  00052	3b f7		 cmp	 esi, edi
  00054	0f 42 f7	 cmovb	 esi, edi
$LN86@assign:

; 1709 :         if (_Myfirst) { // destroy and deallocate old array

  00057	89 75 fc	 mov	 DWORD PTR $T1[ebp], esi
  0005a	85 c9		 test	 ecx, ecx
  0005c	74 1d		 je	 SHORT $LN16@assign

; 1710 :             _Destroy_range(_Myfirst, _Mylast, _Al);
; 1711 :             _ASAN_VECTOR_REMOVE;
; 1712 :             _Al.deallocate(_Myfirst, static_cast<size_type>(_Myend - _Myfirst));

  0005e	52		 push	 edx
  0005f	51		 push	 ecx
  00060	8b cb		 mov	 ecx, ebx
  00062	e8 00 00 00 00	 call	 ?deallocate@?$allocator@H@std@@QAEXQAHI@Z ; std::allocator<int>::deallocate

; 1713 : 
; 1714 :             _Myfirst = nullptr;

  00067	c7 03 00 00 00
	00		 mov	 DWORD PTR [ebx], 0

; 1715 :             _Mylast  = nullptr;

  0006d	c7 43 04 00 00
	00 00		 mov	 DWORD PTR [ebx+4], 0

; 1716 :             _Myend   = nullptr;

  00074	c7 43 08 00 00
	00 00		 mov	 DWORD PTR [ebx+8], 0
$LN16@assign:
; File C:\Program Files\Microsoft Visual Studio\2022\Professional\VC\Tools\MSVC\14.44.35207\include\xmemory

; 117  :         if (_Count > _Max_possible) {

  0007b	81 fe ff ff ff
	3f		 cmp	 esi, 1073741823		; 3fffffffH
  00081	0f 87 aa 00 00
	00		 ja	 $LN92@assign

; 119  :         }
; 120  :     }
; 121  : 
; 122  :     return _Count * _Ty_size;

  00087	c1 e6 02	 shl	 esi, 2

; 227  :     if (_Bytes == 0) {

  0008a	85 f6		 test	 esi, esi
  0008c	74 1a		 je	 SHORT $LN35@assign
$LN36@assign:

; 228  :         return nullptr;
; 229  :     }
; 230  : 
; 231  : #if _HAS_CXX20 // TRANSITION, GH-1532
; 232  :     if (_STD is_constant_evaluated()) {
; 233  :         return _Traits::_Allocate(_Bytes);
; 234  :     }
; 235  : #endif // _HAS_CXX20
; 236  : 
; 237  : #ifdef __cpp_aligned_new
; 238  :     if constexpr (_Align > __STDCPP_DEFAULT_NEW_ALIGNMENT__) {
; 239  :         size_t _Passed_align = _Align;
; 240  : #if defined(_M_IX86) || defined(_M_X64)
; 241  :         if (_Bytes >= _Big_allocation_threshold) {
; 242  :             // boost the alignment of big allocations to help autovectorization
; 243  :             _Passed_align = (_STD max)(_Align, _Big_allocation_alignment);
; 244  :         }
; 245  : #endif // defined(_M_IX86) || defined(_M_X64)
; 246  :         return _Traits::_Allocate_aligned(_Bytes, _Passed_align);
; 247  :     } else
; 248  : #endif // defined(__cpp_aligned_new)
; 249  :     {
; 250  : #if defined(_M_IX86) || defined(_M_X64)
; 251  :         if (_Bytes >= _Big_allocation_threshold) {

  0008e	56		 push	 esi
  0008f	81 fe 00 10 00
	00		 cmp	 esi, 4096		; 00001000H
  00095	72 07		 jb	 SHORT $LN37@assign

; 252  :             // boost the alignment of big allocations to help autovectorization
; 253  :             return _Allocate_manually_vector_aligned<_Traits>(_Bytes);

  00097	e8 00 00 00 00	 call	 ??$_Allocate_manually_vector_aligned@U_Default_allocate_traits@std@@@std@@YAPAXI@Z ; std::_Allocate_manually_vector_aligned<std::_Default_allocate_traits>
  0009c	eb 05		 jmp	 SHORT $LN87@assign
$LN37@assign:

; 136  :         return ::operator new(_Bytes);

  0009e	e8 00 00 00 00	 call	 ??2@YAPAXI@Z		; operator new
$LN87@assign:
; File C:\Program Files\Microsoft Visual Studio\2022\Professional\VC\Tools\MSVC\14.44.35207\include\vector

; 2035 :         _Myfirst              = _Newvec;

  000a3	8b f0		 mov	 esi, eax
  000a5	83 c4 04	 add	 esp, 4
$LN35@assign:

; 2037 :         _Myend                = _Newvec + _Newcapacity;

  000a8	8b 45 fc	 mov	 eax, DWORD PTR $T1[ebp]
  000ab	89 33		 mov	 DWORD PTR [ebx], esi
; File C:\Program Files\Microsoft Visual Studio\2022\Professional\VC\Tools\MSVC\14.44.35207\include\xmemory

; 1930 :             _STD _Copy_memmove_n(_UFirst, _Count, _STD _Unfancy(_Dest));

  000ad	56		 push	 esi
; File C:\Program Files\Microsoft Visual Studio\2022\Professional\VC\Tools\MSVC\14.44.35207\include\vector

; 2036 :         _Mylast               = _Newvec;

  000ae	89 73 04	 mov	 DWORD PTR [ebx+4], esi

; 2037 :         _Myend                = _Newvec + _Newcapacity;

  000b1	8d 04 86	 lea	 eax, DWORD PTR [esi+eax*4]
  000b4	89 43 08	 mov	 DWORD PTR [ebx+8], eax
; File C:\Program Files\Microsoft Visual Studio\2022\Professional\VC\Tools\MSVC\14.44.35207\include\xmemory

; 1930 :             _STD _Copy_memmove_n(_UFirst, _Count, _STD _Unfancy(_Dest));

  000b7	8b 45 f8	 mov	 eax, DWORD PTR __First$1$[ebp]
  000ba	57		 push	 edi
  000bb	50		 push	 eax
  000bc	e8 00 00 00 00	 call	 ??$_Copy_memmove_n@PAHPAH@std@@YAPAHPAHI0@Z ; std::_Copy_memmove_n<int *,int *>
; File C:\Program Files\Microsoft Visual Studio\2022\Professional\VC\Tools\MSVC\14.44.35207\include\vector

; 1501 :     }

  000c1	83 c4 0c	 add	 esp, 12			; 0000000cH
; File C:\Program Files\Microsoft Visual Studio\2022\Professional\VC\Tools\MSVC\14.44.35207\include\xmemory

; 1931 :             _Dest += _Count;

  000c4	8d 04 be	 lea	 eax, DWORD PTR [esi+edi*4]
; File C:\Program Files\Microsoft Visual Studio\2022\Professional\VC\Tools\MSVC\14.44.35207\include\vector

; 1501 :     }

  000c7	89 43 04	 mov	 DWORD PTR [ebx+4], eax
  000ca	5f		 pop	 edi
  000cb	5e		 pop	 esi
  000cc	5b		 pop	 ebx
  000cd	8b e5		 mov	 esp, ebp
  000cf	5d		 pop	 ebp
  000d0	c2 08 00	 ret	 8
$LN9@assign:

; 1445 :         const auto _Oldsize = static_cast<size_type>(_Mylast - _Myfirst);

  000d3	8b 73 04	 mov	 esi, DWORD PTR [ebx+4]
  000d6	2b f1		 sub	 esi, ecx
  000d8	c1 fe 02	 sar	 esi, 2
  000db	89 75 fc	 mov	 DWORD PTR __Oldsize$1$[ebp], esi

; 1446 :         if (_Newsize > _Oldsize) {

  000de	51		 push	 ecx
  000df	3b fe		 cmp	 edi, esi
  000e1	76 2d		 jbe	 SHORT $LN10@assign

; 1447 :             bool _Copied = false;
; 1448 :             if constexpr (_Iter_copy_cat<_Iter, pointer>::_Bitcopy_assignable) {
; 1449 : #if _HAS_CXX20
; 1450 :                 if (!_STD is_constant_evaluated())
; 1451 : #endif // _HAS_CXX20
; 1452 :                 {
; 1453 :                     _Copy_memmove_n(_First, static_cast<size_t>(_Oldsize), _Myfirst);

  000e3	56		 push	 esi
  000e4	50		 push	 eax
  000e5	e8 00 00 00 00	 call	 ??$_Copy_memmove_n@PAHPAH@std@@YAPAHPAHI0@Z ; std::_Copy_memmove_n<int *,int *>

; 1454 :                     _First += _Oldsize;

  000ea	8b 45 f8	 mov	 eax, DWORD PTR __First$1$[ebp]

; 1455 :                     _Copied = true;
; 1456 :                 }
; 1457 :             }
; 1458 : 
; 1459 :             if (!_Copied) {
; 1460 :                 for (auto _Mid = _Myfirst; _Mid != _Mylast; ++_Mid, (void) ++_First) {
; 1461 :                     *_Mid = *_First;
; 1462 :                 }
; 1463 :             }
; 1464 : 
; 1465 :             if constexpr (_Nothrow_construct) {
; 1466 :                 _ASAN_VECTOR_MODIFY(static_cast<difference_type>(_Newsize - _Oldsize));
; 1467 :                 _Mylast = _STD _Uninitialized_copy_n(_STD move(_First), _Newsize - _Oldsize, _Mylast, _Al);

  000ed	2b 7d fc	 sub	 edi, DWORD PTR __Oldsize$1$[ebp]
  000f0	8d 04 b0	 lea	 eax, DWORD PTR [eax+esi*4]
  000f3	8b 73 04	 mov	 esi, DWORD PTR [ebx+4]
; File C:\Program Files\Microsoft Visual Studio\2022\Professional\VC\Tools\MSVC\14.44.35207\include\xmemory

; 1930 :             _STD _Copy_memmove_n(_UFirst, _Count, _STD _Unfancy(_Dest));

  000f6	56		 push	 esi
  000f7	57		 push	 edi
  000f8	50		 push	 eax
  000f9	e8 00 00 00 00	 call	 ??$_Copy_memmove_n@PAHPAH@std@@YAPAHPAHI0@Z ; std::_Copy_memmove_n<int *,int *>
  000fe	83 c4 18	 add	 esp, 24			; 00000018H

; 1931 :             _Dest += _Count;

  00101	8d 04 be	 lea	 eax, DWORD PTR [esi+edi*4]
; File C:\Program Files\Microsoft Visual Studio\2022\Professional\VC\Tools\MSVC\14.44.35207\include\vector

; 1501 :     }

  00104	89 43 04	 mov	 DWORD PTR [ebx+4], eax
  00107	5f		 pop	 edi
  00108	5e		 pop	 esi
  00109	5b		 pop	 ebx
  0010a	8b e5		 mov	 esp, ebp
  0010c	5d		 pop	 ebp
  0010d	c2 08 00	 ret	 8
$LN10@assign:
; File C:\Program Files\Microsoft Visual Studio\2022\Professional\VC\Tools\MSVC\14.44.35207\include\xutility

; 4808 :             return _Copy_memmove_n(_First, static_cast<size_t>(_Count), _Dest);

  00110	57		 push	 edi
  00111	50		 push	 eax
  00112	e8 00 00 00 00	 call	 ??$_Copy_memmove_n@PAHPAH@std@@YAPAHPAHI0@Z ; std::_Copy_memmove_n<int *,int *>
; File C:\Program Files\Microsoft Visual Studio\2022\Professional\VC\Tools\MSVC\14.44.35207\include\vector

; 1474 :             const pointer _Newlast = _Myfirst + _Newsize;

  00117	8b 45 f4	 mov	 eax, DWORD PTR tv582[ebp]

; 1501 :     }

  0011a	83 c4 0c	 add	 esp, 12			; 0000000cH

; 1474 :             const pointer _Newlast = _Myfirst + _Newsize;

  0011d	8d 04 b8	 lea	 eax, DWORD PTR [eax+edi*4]
  00120	5f		 pop	 edi

; 1501 :     }

  00121	5e		 pop	 esi
  00122	89 43 04	 mov	 DWORD PTR [ebx+4], eax
  00125	5b		 pop	 ebx
  00126	8b e5		 mov	 esp, ebp
  00128	5d		 pop	 ebp
  00129	c2 08 00	 ret	 8
$LN91@assign:

; 1704 :             _Xlength();

  0012c	e8 00 00 00 00	 call	 ?_Xlength@?$vector@HV?$allocator@H@std@@@std@@CAXXZ ; std::vector<int,std::allocator<int> >::_Xlength
$LN92@assign:
; File C:\Program Files\Microsoft Visual Studio\2022\Professional\VC\Tools\MSVC\14.44.35207\include\xmemory

; 118  :             _Throw_bad_array_new_length(); // multiply overflow

  00131	e8 00 00 00 00	 call	 ?_Throw_bad_array_new_length@std@@YAXXZ ; std::_Throw_bad_array_new_length
$LN85@assign:
  00136	cc		 int	 3
??$assign@V?$_Vector_iterator@V?$_Vector_val@U?$_Simple_types@H@std@@@std@@@std@@$0A@@?$vector@HV?$allocator@H@std@@@std@@QAEXV?$_Vector_iterator@V?$_Vector_val@U?$_Simple_types@H@std@@@std@@@1@0@Z ENDP ; std::vector<int,std::allocator<int> >::assign<std::_Vector_iterator<std::_Vector_val<std::_Simple_types<int> > >,0>
_TEXT	ENDS
; Function compile flags: /Ogtp
;	COMDAT ??_GCMiniGameArithmetic@@UAEPAXI@Z
_TEXT	SEGMENT
___flags$ = 8						; size = 4
??_GCMiniGameArithmetic@@UAEPAXI@Z PROC			; CMiniGameArithmetic::`scalar deleting destructor', COMDAT
; _this$ = ecx
  00000	55		 push	 ebp
  00001	8b ec		 mov	 ebp, esp
  00003	56		 push	 esi
  00004	8b f1		 mov	 esi, ecx
  00006	e8 00 00 00 00	 call	 ??1CMiniGameArithmetic@@UAE@XZ ; CMiniGameArithmetic::~CMiniGameArithmetic
  0000b	f6 45 08 01	 test	 BYTE PTR ___flags$[ebp], 1
  0000f	74 0b		 je	 SHORT $LN5@scalar
  00011	6a 18		 push	 24			; 00000018H
  00013	56		 push	 esi
  00014	e8 00 00 00 00	 call	 ??3@YAXPAXI@Z		; operator delete
  00019	83 c4 08	 add	 esp, 8
$LN5@scalar:
  0001c	8b c6		 mov	 eax, esi
  0001e	5e		 pop	 esi
  0001f	5d		 pop	 ebp
  00020	c2 04 00	 ret	 4
??_GCMiniGameArithmetic@@UAEPAXI@Z ENDP			; CMiniGameArithmetic::`scalar deleting destructor'
_TEXT	ENDS
; Function compile flags: /Ogtp
; File C:\IAGOS\server\v18\Source\Source\WorldServer\MiniGameArithmetic.cpp
;	COMDAT ?GetOperatorCh@CMiniGameArithmetic@@AAEDH@Z
_TEXT	SEGMENT
_nOper$ = 8						; size = 4
?GetOperatorCh@CMiniGameArithmetic@@AAEDH@Z PROC	; CMiniGameArithmetic::GetOperatorCh, COMDAT
; _this$ = ecx

; 176  : {

  00000	55		 push	 ebp
  00001	8b ec		 mov	 ebp, esp

; 177  : 	switch( nOper )

  00003	8b 45 08	 mov	 eax, DWORD PTR _nOper$[ebp]
  00006	83 f8 03	 cmp	 eax, 3
  00009	77 19		 ja	 SHORT $LN2@GetOperato
  0000b	ff 24 85 00 00
	00 00		 jmp	 DWORD PTR $LN9@GetOperato[eax*4]
$LN5@GetOperato:

; 178  : 	{
; 179  : 		case 0: return '+';
; 180  : 		case 1: return '-';

  00012	b0 2d		 mov	 al, 45			; 0000002dH

; 186  : }

  00014	5d		 pop	 ebp
  00015	c2 04 00	 ret	 4
$LN6@GetOperato:

; 181  : 		case 2: return '*';

  00018	b0 2a		 mov	 al, 42			; 0000002aH

; 186  : }

  0001a	5d		 pop	 ebp
  0001b	c2 04 00	 ret	 4
$LN7@GetOperato:

; 182  : 		case 3: return '/';

  0001e	b0 2f		 mov	 al, 47			; 0000002fH

; 186  : }

  00020	5d		 pop	 ebp
  00021	c2 04 00	 ret	 4
$LN2@GetOperato:

; 183  : 	}
; 184  : 
; 185  : 	return '+';

  00024	b0 2b		 mov	 al, 43			; 0000002bH

; 186  : }

  00026	5d		 pop	 ebp
  00027	c2 04 00	 ret	 4
  0002a	66 90		 npad	 2
$LN9@GetOperato:
  0002c	00 00 00 00	 DD	 $LN2@GetOperato
  00030	00 00 00 00	 DD	 $LN5@GetOperato
  00034	00 00 00 00	 DD	 $LN6@GetOperato
  00038	00 00 00 00	 DD	 $LN7@GetOperato
?GetOperatorCh@CMiniGameArithmetic@@AAEDH@Z ENDP	; CMiniGameArithmetic::GetOperatorCh
_TEXT	ENDS
; Function compile flags: /Ogtp
; File C:\IAGOS\server\v18\Source\Source\WorldServer\MiniGameArithmetic.cpp
;	COMDAT ?Calculate@CMiniGameArithmetic@@AAEHHAAHH@Z
_TEXT	SEGMENT
_n1$ = 8						; size = 4
_n2$ = 12						; size = 4
_nOper$ = 16						; size = 4
?Calculate@CMiniGameArithmetic@@AAEHHAAHH@Z PROC	; CMiniGameArithmetic::Calculate, COMDAT
; _this$ = ecx

; 162  : {

  00000	55		 push	 ebp
  00001	8b ec		 mov	 ebp, esp

; 163  : 	switch( nOper )

  00003	8b 45 10	 mov	 eax, DWORD PTR _nOper$[ebp]
  00006	83 f8 03	 cmp	 eax, 3
  00009	77 47		 ja	 SHORT $LN2@Calculate
  0000b	ff 24 85 00 00
	00 00		 jmp	 DWORD PTR $LN9@Calculate[eax*4]
$LN4@Calculate:

; 164  : 	{
; 165  : 		case 0:	return n1 + n2;

  00012	8b 45 0c	 mov	 eax, DWORD PTR _n2$[ebp]
  00015	8b 00		 mov	 eax, DWORD PTR [eax]
  00017	03 45 08	 add	 eax, DWORD PTR _n1$[ebp]

; 173  : }

  0001a	5d		 pop	 ebp
  0001b	c2 0c 00	 ret	 12			; 0000000cH
$LN5@Calculate:

; 166  : 		case 1:	return n1 - n2;

  0001e	8b 4d 0c	 mov	 ecx, DWORD PTR _n2$[ebp]
  00021	8b 45 08	 mov	 eax, DWORD PTR _n1$[ebp]
  00024	2b 01		 sub	 eax, DWORD PTR [ecx]

; 173  : }

  00026	5d		 pop	 ebp
  00027	c2 0c 00	 ret	 12			; 0000000cH
$LN6@Calculate:

; 167  : 		case 2:	return n1 * n2;

  0002a	8b 45 0c	 mov	 eax, DWORD PTR _n2$[ebp]
  0002d	8b 00		 mov	 eax, DWORD PTR [eax]
  0002f	0f af 45 08	 imul	 eax, DWORD PTR _n1$[ebp]

; 173  : }

  00033	5d		 pop	 ebp
  00034	c2 0c 00	 ret	 12			; 0000000cH
$LN7@Calculate:
  00037	56		 push	 esi

; 168  : 		case 3:	n2 = GetDivisor( n1 );

  00038	ff 75 08	 push	 DWORD PTR _n1$[ebp]
  0003b	e8 00 00 00 00	 call	 ?GetDivisor@CMiniGameArithmetic@@AAEHH@Z ; CMiniGameArithmetic::GetDivisor
  00040	8b 4d 0c	 mov	 ecx, DWORD PTR _n2$[ebp]
  00043	8b f0		 mov	 esi, eax

; 169  : 				return n1 / n2;

  00045	8b 45 08	 mov	 eax, DWORD PTR _n1$[ebp]
  00048	99		 cdq
  00049	f7 fe		 idiv	 esi
  0004b	89 31		 mov	 DWORD PTR [ecx], esi
  0004d	5e		 pop	 esi

; 173  : }

  0004e	5d		 pop	 ebp
  0004f	c2 0c 00	 ret	 12			; 0000000cH
$LN2@Calculate:

; 170  : 	}
; 171  : 
; 172  : 	return -1;

  00052	83 c8 ff	 or	 eax, -1

; 173  : }

  00055	5d		 pop	 ebp
  00056	c2 0c 00	 ret	 12			; 0000000cH
  00059	0f 1f 00	 npad	 3
$LN9@Calculate:
  0005c	00 00 00 00	 DD	 $LN4@Calculate
  00060	00 00 00 00	 DD	 $LN5@Calculate
  00064	00 00 00 00	 DD	 $LN6@Calculate
  00068	00 00 00 00	 DD	 $LN7@Calculate
?Calculate@CMiniGameArithmetic@@AAEHHAAHH@Z ENDP	; CMiniGameArithmetic::Calculate
_TEXT	ENDS
; Function compile flags: /Ogtp
; File C:\IAGOS\server\v18\Source\Source\WorldServer\MiniGameArithmetic.cpp
; File C:\IAGOS\server\v18\Source\Source\_Common\xUtil.h
; File C:\IAGOS\server\v18\Source\Source\WorldServer\MiniGameArithmetic.cpp
;	COMDAT ?MakeQuestion@CMiniGameArithmetic@@AAE?AV?$basic_string@DU?$char_traits@D@std@@V?$allocator@D@2@@std@@XZ
_TEXT	SEGMENT
___$ReturnUdt$GSCopy$1$ = -56				; size = 4
_nOper$ = -52						; size = 12
_nNum$ = -40						; size = 12
_nResult$ = -28						; size = 4
___$ReturnUdt$GSCopy$ = -28				; size = 4
_nResult$2$ = -28					; size = 4
_szQuestion$ = -24					; size = 20
__$ArrayPad$ = -4					; size = 4
___$ReturnUdt$ = 8					; size = 4
?MakeQuestion@CMiniGameArithmetic@@AAE?AV?$basic_string@DU?$char_traits@D@std@@V?$allocator@D@2@@std@@XZ PROC ; CMiniGameArithmetic::MakeQuestion, COMDAT
; _this$ = ecx

; 124  : {

  00000	55		 push	 ebp
  00001	8b ec		 mov	 ebp, esp
  00003	83 ec 3c	 sub	 esp, 60			; 0000003cH
  00006	a1 00 00 00 00	 mov	 eax, DWORD PTR ___security_cookie
  0000b	33 c5		 xor	 eax, ebp
  0000d	89 45 fc	 mov	 DWORD PTR __$ArrayPad$[ebp], eax
  00010	53		 push	 ebx
  00011	8b 5d 08	 mov	 ebx, DWORD PTR ___$ReturnUdt$[ebp]
  00014	0f 57 c0	 xorps	 xmm0, xmm0
  00017	89 5d e4	 mov	 DWORD PTR ___$ReturnUdt$GSCopy$[ebp], ebx
  0001a	56		 push	 esi
  0001b	57		 push	 edi
  0001c	8b f9		 mov	 edi, ecx
  0001e	89 5d c8	 mov	 DWORD PTR ___$ReturnUdt$GSCopy$1$[ebp], ebx

; 125  : 	int nNum[3] = {0,};

  00021	66 0f d6 45 d8	 movq	 QWORD PTR _nNum$[ebp], xmm0
  00026	33 f6		 xor	 esi, esi
  00028	c7 45 e0 00 00
	00 00		 mov	 DWORD PTR _nNum$[ebp+8], 0

; 126  : 	int nOper[3] = {0,};

  0002f	66 0f d6 45 cc	 movq	 QWORD PTR _nOper$[ebp], xmm0
  00034	c7 45 d4 00 00
	00 00		 mov	 DWORD PTR _nOper$[ebp+8], 0

; 127  : 	char szQuestion[20] = {0,};

  0003b	0f 11 45 e8	 movups	 XMMWORD PTR _szQuestion$[ebp], xmm0
  0003f	c7 45 f8 00 00
	00 00		 mov	 DWORD PTR _szQuestion$[ebp+16], 0
  00046	66 66 0f 1f 84
	00 00 00 00 00	 npad	 10
$LL4@MakeQuesti:

; 128  : 
; 129  : 	for( int i=0; i<3; i++ )
; 130  : 	{
; 131  : 		nNum[i] = xRandom( 1, 1000 );

  00050	68 e8 03 00 00	 push	 1000			; 000003e8H
  00055	6a 01		 push	 1
  00057	e8 00 00 00 00	 call	 ?xRandom@@YAKKK@Z	; xRandom
  0005c	89 44 35 d8	 mov	 DWORD PTR _nNum$[ebp+esi], eax
  00060	83 c4 08	 add	 esp, 8
; File C:\IAGOS\server\v18\Source\Source\_Common\xUtil.h

; 16   : 	g_next = g_next * 1103515245 + 12345;// + nRandomSeed[ i++ ];

  00063	69 05 00 00 00
	00 6d 4e c6 41	 imul	 eax, DWORD PTR ?g_next@@3KA, 1103515245 ; g_next
  0006d	05 39 30 00 00	 add	 eax, 12345		; 00003039H
  00072	a3 00 00 00 00	 mov	 DWORD PTR ?g_next@@3KA, eax ; g_next
  00077	83 e0 03	 and	 eax, 3
; File C:\IAGOS\server\v18\Source\Source\WorldServer\MiniGameArithmetic.cpp

; 132  : 		nOper[i] = xRandom( 4 );

  0007a	89 44 35 cc	 mov	 DWORD PTR _nOper$[ebp+esi], eax
  0007e	83 c6 04	 add	 esi, 4
  00081	83 fe 0c	 cmp	 esi, 12			; 0000000cH
  00084	7c ca		 jl	 SHORT $LL4@MakeQuesti

; 133  : 	}
; 134  : 
; 135  : 	int nResult = 0;
; 136  : 	if( nOper[2] > 1 )		// ĽýŔÚ°ˇ 3°łŔÎ °ćżě´Ů. 

  00086	83 7d d4 01	 cmp	 DWORD PTR _nOper$[ebp+8], 1
  0008a	0f 8e 82 00 00
	00		 jle	 $LN5@MakeQuesti

; 137  : 	{
; 138  : 		if( (nOper[0] < 2) && (nOper[1] > 1) ) // µÚÂĘ ż¬»ęŔÚ°ˇ żěĽ±ŔÎ °ćżě( *, / )

  00090	8b 5d cc	 mov	 ebx, DWORD PTR _nOper$[ebp]
  00093	8b 75 d0	 mov	 esi, DWORD PTR _nOper$[ebp+4]
  00096	83 fb 02	 cmp	 ebx, 2
  00099	7d 21		 jge	 SHORT $LN7@MakeQuesti
  0009b	83 fe 01	 cmp	 esi, 1
  0009e	7e 1c		 jle	 SHORT $LN7@MakeQuesti

; 139  : 		{
; 140  : 			nResult = Calculate( nNum[1], nNum[2], nOper[1] );

  000a0	56		 push	 esi
  000a1	8d 45 e0	 lea	 eax, DWORD PTR _nNum$[ebp+8]
  000a4	8b cf		 mov	 ecx, edi
  000a6	50		 push	 eax
  000a7	ff 75 dc	 push	 DWORD PTR _nNum$[ebp+4]
  000aa	e8 00 00 00 00	 call	 ?Calculate@CMiniGameArithmetic@@AAEHHAAHH@Z ; CMiniGameArithmetic::Calculate
  000af	89 45 e4	 mov	 DWORD PTR _nResult$[ebp], eax

; 141  : 			nResult = Calculate( nNum[0], nResult, nOper[0] );

  000b2	8d 45 e4	 lea	 eax, DWORD PTR _nResult$[ebp]
  000b5	53		 push	 ebx
  000b6	50		 push	 eax
  000b7	ff 75 d8	 push	 DWORD PTR _nNum$[ebp]

; 142  : 		}

  000ba	eb 15		 jmp	 SHORT $LN24@MakeQuesti
$LN7@MakeQuesti:

; 143  : 		else
; 144  : 		{
; 145  : 			nResult = Calculate( nNum[0], nNum[1], nOper[0] );

  000bc	53		 push	 ebx
  000bd	8d 45 dc	 lea	 eax, DWORD PTR _nNum$[ebp+4]
  000c0	8b cf		 mov	 ecx, edi
  000c2	50		 push	 eax
  000c3	ff 75 d8	 push	 DWORD PTR _nNum$[ebp]
  000c6	e8 00 00 00 00	 call	 ?Calculate@CMiniGameArithmetic@@AAEHHAAHH@Z ; CMiniGameArithmetic::Calculate

; 146  : 			nResult = Calculate( nResult, nNum[2], nOper[1] );

  000cb	56		 push	 esi
  000cc	8d 4d e0	 lea	 ecx, DWORD PTR _nNum$[ebp+8]
  000cf	51		 push	 ecx
  000d0	50		 push	 eax
$LN24@MakeQuesti:

; 147  : 		}
; 148  : 		sprintf( szQuestion, "%d %c %d %c %d", nNum[0], GetOperatorCh( nOper[0] ), nNum[1],

  000d1	8b cf		 mov	 ecx, edi
  000d3	e8 00 00 00 00	 call	 ?Calculate@CMiniGameArithmetic@@AAEHHAAHH@Z ; CMiniGameArithmetic::Calculate
  000d8	ff 75 e0	 push	 DWORD PTR _nNum$[ebp+8]
  000db	8b cf		 mov	 ecx, edi
  000dd	89 45 e4	 mov	 DWORD PTR _nResult$2$[ebp], eax
  000e0	56		 push	 esi
  000e1	e8 00 00 00 00	 call	 ?GetOperatorCh@CMiniGameArithmetic@@AAEDH@Z ; CMiniGameArithmetic::GetOperatorCh
  000e6	0f be c0	 movsx	 eax, al
  000e9	8b cf		 mov	 ecx, edi
  000eb	50		 push	 eax
  000ec	ff 75 dc	 push	 DWORD PTR _nNum$[ebp+4]
  000ef	53		 push	 ebx
  000f0	e8 00 00 00 00	 call	 ?GetOperatorCh@CMiniGameArithmetic@@AAEDH@Z ; CMiniGameArithmetic::GetOperatorCh
  000f5	0f be c0	 movsx	 eax, al
  000f8	50		 push	 eax
  000f9	ff 75 d8	 push	 DWORD PTR _nNum$[ebp]
  000fc	8d 45 e8	 lea	 eax, DWORD PTR _szQuestion$[ebp]
  000ff	68 00 00 00 00	 push	 OFFSET ??_C@_0P@PGDECEHE@?$CFd?5?$CFc?5?$CFd?5?$CFc?5?$CFd@
  00104	50		 push	 eax
  00105	e8 00 00 00 00	 call	 _sprintf

; 149  : 														GetOperatorCh( nOper[1] ), nNum[2] );
; 150  : 	}

  0010a	8b 5d c8	 mov	 ebx, DWORD PTR ___$ReturnUdt$GSCopy$1$[ebp]
  0010d	83 c4 1c	 add	 esp, 28			; 0000001cH
  00110	eb 38		 jmp	 SHORT $LN6@MakeQuesti
$LN5@MakeQuesti:

; 151  : 	else
; 152  : 	{
; 153  : 		nResult = Calculate( nNum[0], nNum[1], nOper[0] );

  00112	8b 75 cc	 mov	 esi, DWORD PTR _nOper$[ebp]
  00115	8d 45 dc	 lea	 eax, DWORD PTR _nNum$[ebp+4]
  00118	56		 push	 esi
  00119	50		 push	 eax
  0011a	ff 75 d8	 push	 DWORD PTR _nNum$[ebp]
  0011d	8b cf		 mov	 ecx, edi
  0011f	e8 00 00 00 00	 call	 ?Calculate@CMiniGameArithmetic@@AAEHHAAHH@Z ; CMiniGameArithmetic::Calculate

; 154  : 		sprintf( szQuestion, "%d %c %d", nNum[0], GetOperatorCh( nOper[0] ), nNum[1] );

  00124	ff 75 dc	 push	 DWORD PTR _nNum$[ebp+4]
  00127	8b cf		 mov	 ecx, edi
  00129	89 45 e4	 mov	 DWORD PTR _nResult$2$[ebp], eax
  0012c	56		 push	 esi
  0012d	e8 00 00 00 00	 call	 ?GetOperatorCh@CMiniGameArithmetic@@AAEDH@Z ; CMiniGameArithmetic::GetOperatorCh
  00132	0f be c0	 movsx	 eax, al
  00135	50		 push	 eax
  00136	ff 75 d8	 push	 DWORD PTR _nNum$[ebp]
  00139	8d 45 e8	 lea	 eax, DWORD PTR _szQuestion$[ebp]
  0013c	68 00 00 00 00	 push	 OFFSET ??_C@_08FMFKKHOO@?$CFd?5?$CFc?5?$CFd@
  00141	50		 push	 eax
  00142	e8 00 00 00 00	 call	 _sprintf
  00147	83 c4 14	 add	 esp, 20			; 00000014H
$LN6@MakeQuesti:

; 155  : 	}
; 156  : 
; 157  : 	m_nResult = nResult;

  0014a	8b 45 e4	 mov	 eax, DWORD PTR _nResult$2$[ebp]

; 158  : 	return szQuestion;

  0014d	8b cb		 mov	 ecx, ebx
  0014f	89 47 04	 mov	 DWORD PTR [edi+4], eax
  00152	8d 45 e8	 lea	 eax, DWORD PTR _szQuestion$[ebp]
  00155	50		 push	 eax
  00156	e8 00 00 00 00	 call	 ??0?$basic_string@DU?$char_traits@D@std@@V?$allocator@D@2@@std@@QAE@QBD@Z ; std::basic_string<char,std::char_traits<char>,std::allocator<char> >::basic_string<char,std::char_traits<char>,std::allocator<char> >

; 159  : }

  0015b	8b 4d fc	 mov	 ecx, DWORD PTR __$ArrayPad$[ebp]
  0015e	8b c3		 mov	 eax, ebx
  00160	5f		 pop	 edi
  00161	5e		 pop	 esi
  00162	33 cd		 xor	 ecx, ebp
  00164	5b		 pop	 ebx
  00165	e8 00 00 00 00	 call	 @__security_check_cookie@4
  0016a	8b e5		 mov	 esp, ebp
  0016c	5d		 pop	 ebp
  0016d	c2 04 00	 ret	 4
?MakeQuestion@CMiniGameArithmetic@@AAE?AV?$basic_string@DU?$char_traits@D@std@@V?$allocator@D@2@@std@@XZ ENDP ; CMiniGameArithmetic::MakeQuestion
_TEXT	ENDS
; Function compile flags: /Ogtp
; File C:\IAGOS\server\v18\Source\Source\WorldServer\MiniGameArithmetic.cpp
; File C:\Program Files\Microsoft Visual Studio\2022\Professional\VC\Tools\MSVC\14.44.35207\include\vector
; File C:\Program Files\Microsoft Visual Studio\2022\Professional\VC\Tools\MSVC\14.44.35207\include\xmemory
; File C:\IAGOS\server\v18\Source\Source\WorldServer\MiniGameArithmetic.cpp
; File C:\Program Files\Microsoft Visual Studio\2022\Professional\VC\Tools\MSVC\14.44.35207\include\xmemory
; File C:\Program Files\Microsoft Visual Studio\2022\Professional\VC\Tools\MSVC\14.44.35207\include\vector
; File C:\Program Files\Microsoft Visual Studio\2022\Professional\VC\Tools\MSVC\14.44.35207\include\xmemory
; File C:\Program Files\Microsoft Visual Studio\2022\Professional\VC\Tools\MSVC\14.44.35207\include\vector
; File C:\Program Files\Microsoft Visual Studio\2022\Professional\VC\Tools\MSVC\14.44.35207\include\xmemory
; File C:\Program Files\Microsoft Visual Studio\2022\Professional\VC\Tools\MSVC\14.44.35207\include\vector
; File C:\Program Files\Microsoft Visual Studio\2022\Professional\VC\Tools\MSVC\14.44.35207\include\xmemory
; File C:\Program Files\Microsoft Visual Studio\2022\Professional\VC\Tools\MSVC\14.44.35207\include\vector
; File C:\Program Files\Microsoft Visual Studio\2022\Professional\VC\Tools\MSVC\14.44.35207\include\xmemory
; File C:\Program Files\Microsoft Visual Studio\2022\Professional\VC\Tools\MSVC\14.44.35207\include\vector
; File C:\IAGOS\server\v18\Source\Source\WorldServer\MiniGameArithmetic.cpp
; File C:\Program Files\Microsoft Visual Studio\2022\Professional\VC\Tools\MSVC\14.44.35207\include\vector
; File C:\IAGOS\server\v18\Source\Source\WorldServer\MiniGameArithmetic.cpp
; File C:\Program Files\Microsoft Visual Studio\2022\Professional\VC\Tools\MSVC\14.44.35207\include\vector
; File C:\IAGOS\server\v18\Source\Source\WorldServer\MiniGameArithmetic.cpp
; File C:\Program Files\Microsoft Visual Studio\2022\Professional\VC\Tools\MSVC\14.44.35207\include\xmemory
; File C:\Program Files\Microsoft Visual Studio\2022\Professional\VC\Tools\MSVC\14.44.35207\include\vector
; File C:\Program Files\Microsoft Visual Studio\2022\Professional\VC\Tools\MSVC\14.44.35207\include\xmemory
; File C:\Program Files\Microsoft Visual Studio\2022\Professional\VC\Tools\MSVC\14.44.35207\include\vector
; File C:\Program Files\Microsoft Visual Studio\2022\Professional\VC\Tools\MSVC\14.44.35207\include\xmemory
; File C:\Program Files\Microsoft Visual Studio\2022\Professional\VC\Tools\MSVC\14.44.35207\include\vector
; File C:\Program Files\Microsoft Visual Studio\2022\Professional\VC\Tools\MSVC\14.44.35207\include\xmemory
; File C:\Program Files\Microsoft Visual Studio\2022\Professional\VC\Tools\MSVC\14.44.35207\include\vector
; File C:\Program Files\Microsoft Visual Studio\2022\Professional\VC\Tools\MSVC\14.44.35207\include\xmemory
; File C:\Program Files\Microsoft Visual Studio\2022\Professional\VC\Tools\MSVC\14.44.35207\include\vector
; File C:\Program Files\Microsoft Visual Studio\2022\Professional\VC\Tools\MSVC\14.44.35207\include\xmemory
; File C:\Program Files\Microsoft Visual Studio\2022\Professional\VC\Tools\MSVC\14.44.35207\include\vector
; File C:\IAGOS\server\v18\Source\Source\WorldServer\MiniGameArithmetic.cpp
; File C:\IAGOS\server\v18\Source\Source\_Common\xUtil.h
; File C:\Program Files\Microsoft Visual Studio\2022\Professional\VC\Tools\MSVC\14.44.35207\include\vector
; File C:\IAGOS\server\v18\Source\Source\WorldServer\MiniGameArithmetic.cpp
; File C:\Program Files\Microsoft Visual Studio\2022\Professional\VC\Tools\MSVC\14.44.35207\include\vector
; File C:\IAGOS\server\v18\Source\Source\_Common\xUtil.h
; File C:\Program Files\Microsoft Visual Studio\2022\Professional\VC\Tools\MSVC\14.44.35207\include\vector
; File C:\IAGOS\server\v18\Source\Source\_Common\xUtil.h
; File C:\Program Files\Microsoft Visual Studio\2022\Professional\VC\Tools\MSVC\14.44.35207\include\vector
; File C:\IAGOS\server\v18\Source\Source\WorldServer\MiniGameArithmetic.cpp
; File C:\IAGOS\server\v18\Source\Source\_Common\xUtil.h
; File C:\IAGOS\server\v18\Source\Source\WorldServer\MiniGameArithmetic.cpp
; File C:\Program Files\Microsoft Visual Studio\2022\Professional\VC\Tools\MSVC\14.44.35207\include\vector
; File C:\IAGOS\server\v18\Source\Source\_Common\xUtil.h
; File C:\Program Files\Microsoft Visual Studio\2022\Professional\VC\Tools\MSVC\14.44.35207\include\vector
; File C:\IAGOS\server\v18\Source\Source\_Common\xUtil.h
; File C:\Program Files\Microsoft Visual Studio\2022\Professional\VC\Tools\MSVC\14.44.35207\include\vector
; File C:\IAGOS\server\v18\Source\Source\WorldServer\MiniGameArithmetic.cpp
; File C:\Program Files\Microsoft Visual Studio\2022\Professional\VC\Tools\MSVC\14.44.35207\include\vector
; File C:\Program Files\Microsoft Visual Studio\2022\Professional\VC\Tools\MSVC\14.44.35207\include\xutility
; File C:\IAGOS\server\v18\Source\Source\WorldServer\MiniGameArithmetic.cpp
; File C:\Program Files\Microsoft Visual Studio\2022\Professional\VC\Tools\MSVC\14.44.35207\include\vector
; File C:\Program Files\Microsoft Visual Studio\2022\Professional\VC\Tools\MSVC\14.44.35207\include\xutility
; File C:\Program Files\Microsoft Visual Studio\2022\Professional\VC\Tools\MSVC\14.44.35207\include\vector
; File C:\Program Files\Microsoft Visual Studio\2022\Professional\VC\Tools\MSVC\14.44.35207\include\xutility
; File C:\IAGOS\server\v18\Source\Source\WorldServer\MiniGameArithmetic.cpp
; File C:\Program Files\Microsoft Visual Studio\2022\Professional\VC\Tools\MSVC\14.44.35207\include\vector
; File C:\IAGOS\server\v18\Source\Source\WorldServer\MiniGameArithmetic.cpp
; File C:\Program Files\Microsoft Visual Studio\2022\Professional\VC\Tools\MSVC\14.44.35207\include\xmemory
; File C:\Program Files\Microsoft Visual Studio\2022\Professional\VC\Tools\MSVC\14.44.35207\include\vector
; File C:\IAGOS\server\v18\Source\Source\WorldServer\MiniGameArithmetic.cpp
;	COMDAT ?GetDivisor@CMiniGameArithmetic@@AAEHH@Z
_TEXT	SEGMENT
_vDivisors$ = -44					; size = 12
_n$1$ = -32						; size = 4
__Newsize$1$ = -32					; size = 4
__Oldcapacity$1$ = -32					; size = 4
tv1590 = -28						; size = 4
$T3 = -24						; size = 4
$T4 = -20						; size = 4
_vDivisors$2$ = -20					; size = 4
_this$1$ = -16						; size = 4
__$EHRec$ = -12						; size = 12
_nDivided$ = 8						; size = 4
_nDivisor$1$ = 8					; size = 4
?GetDivisor@CMiniGameArithmetic@@AAEHH@Z PROC		; CMiniGameArithmetic::GetDivisor, COMDAT
; _this$ = ecx

; 84   : {

  00000	55		 push	 ebp
  00001	8b ec		 mov	 ebp, esp
  00003	6a ff		 push	 -1
  00005	68 00 00 00 00	 push	 __ehhandler$?GetDivisor@CMiniGameArithmetic@@AAEHH@Z
  0000a	64 a1 00 00 00
	00		 mov	 eax, DWORD PTR fs:0
  00010	50		 push	 eax
  00011	83 ec 20	 sub	 esp, 32			; 00000020H
  00014	53		 push	 ebx
  00015	56		 push	 esi
  00016	57		 push	 edi
  00017	a1 00 00 00 00	 mov	 eax, DWORD PTR ___security_cookie
  0001c	33 c5		 xor	 eax, ebp
  0001e	50		 push	 eax
  0001f	8d 45 f4	 lea	 eax, DWORD PTR __$EHRec$[ebp]
  00022	64 a3 00 00 00
	00		 mov	 DWORD PTR fs:0, eax
  00028	8b f9		 mov	 edi, ecx
  0002a	89 7d f0	 mov	 DWORD PTR _this$1$[ebp], edi
; File C:\Program Files\Microsoft Visual Studio\2022\Professional\VC\Tools\MSVC\14.44.35207\include\vector

; 400  :     _CONSTEXPR20 _Vector_val() noexcept : _Myfirst(), _Mylast(), _Myend() {}

  0002d	c7 45 d4 00 00
	00 00		 mov	 DWORD PTR _vDivisors$[ebp], 0
  00034	c7 45 d8 00 00
	00 00		 mov	 DWORD PTR _vDivisors$[ebp+4], 0
  0003b	c7 45 dc 00 00
	00 00		 mov	 DWORD PTR _vDivisors$[ebp+8], 0
; File C:\Program Files\Microsoft Visual Studio\2022\Professional\VC\Tools\MSVC\14.44.35207\include\xmemory

; 136  :         return ::operator new(_Bytes);

  00042	6a 04		 push	 4
; File C:\IAGOS\server\v18\Source\Source\WorldServer\MiniGameArithmetic.cpp

; 85   : 	vector<int> vDivisors;

  00044	c7 45 fc 00 00
	00 00		 mov	 DWORD PTR __$EHRec$[ebp+8], 0
; File C:\Program Files\Microsoft Visual Studio\2022\Professional\VC\Tools\MSVC\14.44.35207\include\xmemory

; 136  :         return ::operator new(_Bytes);

  0004b	e8 00 00 00 00	 call	 ??2@YAPAXI@Z		; operator new

; 256  :         return _Traits::_Allocate(_Bytes);

  00050	8b d8		 mov	 ebx, eax

; 136  :         return ::operator new(_Bytes);

  00052	83 c4 04	 add	 esp, 4

; 256  :         return _Traits::_Allocate(_Bytes);

  00055	89 5d ec	 mov	 DWORD PTR _vDivisors$2$[ebp], ebx
; File C:\Program Files\Microsoft Visual Studio\2022\Professional\VC\Tools\MSVC\14.44.35207\include\vector

; 900  :         _Alty_traits::construct(_Al, _STD _Unfancy(_Newvec + _Whereoff), _STD forward<_Valty>(_Val)...);

  00058	c7 03 01 00 00
	00		 mov	 DWORD PTR [ebx], 1
  0005e	8d 73 04	 lea	 esi, DWORD PTR [ebx+4]

; 901  :         _Constructed_first = _Newvec + _Whereoff;
; 902  : 
; 903  :         if (_Whereptr == _Mylast) { // at back, provide strong guarantee

  00061	8b 45 d8	 mov	 eax, DWORD PTR _vDivisors$[ebp+4]
  00064	85 c0		 test	 eax, eax
  00066	75 07		 jne	 SHORT $LN185@GetDivisor
; File C:\Program Files\Microsoft Visual Studio\2022\Professional\VC\Tools\MSVC\14.44.35207\include\xmemory

; 1992 :             _STD _Copy_memmove(_UFirst, _ULast, _STD _Unfancy(_Dest));

  00068	8b 4d d4	 mov	 ecx, DWORD PTR _vDivisors$[ebp]
  0006b	8b d3		 mov	 edx, ebx
; File C:\Program Files\Microsoft Visual Studio\2022\Professional\VC\Tools\MSVC\14.44.35207\include\vector

; 909  :         } else { // provide basic guarantee

  0006d	eb 15		 jmp	 SHORT $LN234@GetDivisor
$LN185@GetDivisor:
; File C:\Program Files\Microsoft Visual Studio\2022\Professional\VC\Tools\MSVC\14.44.35207\include\xmemory

; 1992 :             _STD _Copy_memmove(_UFirst, _ULast, _STD _Unfancy(_Dest));

  0006f	53		 push	 ebx
  00070	6a 00		 push	 0
  00072	ff 75 d4	 push	 DWORD PTR _vDivisors$[ebp]
  00075	e8 00 00 00 00	 call	 ??$_Copy_memmove@PAHPAH@std@@YAPAHPAH00@Z ; std::_Copy_memmove<int *,int *>
  0007a	8b 45 d8	 mov	 eax, DWORD PTR _vDivisors$[ebp+4]
  0007d	83 c4 0c	 add	 esp, 12			; 0000000cH
  00080	33 c9		 xor	 ecx, ecx
  00082	8b d6		 mov	 edx, esi
$LN234@GetDivisor:
; File C:\Program Files\Microsoft Visual Studio\2022\Professional\VC\Tools\MSVC\14.44.35207\include\vector

; 915  :         _Guard._New_begin = nullptr;

  00084	52		 push	 edx
  00085	50		 push	 eax
  00086	51		 push	 ecx
  00087	e8 00 00 00 00	 call	 ??$_Copy_memmove@PAHPAH@std@@YAPAHPAH00@Z ; std::_Copy_memmove<int *,int *>

; 2069 :         if (_Myfirst) { // destroy and deallocate old array

  0008c	8b 55 d4	 mov	 edx, DWORD PTR _vDivisors$[ebp]

; 915  :         _Guard._New_begin = nullptr;

  0008f	83 c4 0c	 add	 esp, 12			; 0000000cH

; 2069 :         if (_Myfirst) { // destroy and deallocate old array

  00092	85 d2		 test	 edx, edx
  00094	74 30		 je	 SHORT $LN254@GetDivisor

; 2072 :             _Al.deallocate(_Myfirst, static_cast<size_type>(_Myend - _Myfirst));

  00096	8b 4d dc	 mov	 ecx, DWORD PTR _vDivisors$[ebp+8]
; File C:\Program Files\Microsoft Visual Studio\2022\Professional\VC\Tools\MSVC\14.44.35207\include\xmemory

; 985  :         _STD _Deallocate<_New_alignof<_Ty>>(_Ptr, sizeof(_Ty) * _Count);

  00099	8b c2		 mov	 eax, edx
; File C:\Program Files\Microsoft Visual Studio\2022\Professional\VC\Tools\MSVC\14.44.35207\include\vector

; 2072 :             _Al.deallocate(_Myfirst, static_cast<size_type>(_Myend - _Myfirst));

  0009b	2b ca		 sub	 ecx, edx
; File C:\Program Files\Microsoft Visual Studio\2022\Professional\VC\Tools\MSVC\14.44.35207\include\xmemory

; 985  :         _STD _Deallocate<_New_alignof<_Ty>>(_Ptr, sizeof(_Ty) * _Count);

  0009d	83 e1 fc	 and	 ecx, -4			; fffffffcH

; 284  :         if (_Bytes >= _Big_allocation_threshold) {

  000a0	81 f9 00 10 00
	00		 cmp	 ecx, 4096		; 00001000H
  000a6	72 14		 jb	 SHORT $LN259@GetDivisor

; 205  :     const uintptr_t _Ptr_container   = _Ptr_user[-1];

  000a8	8b 50 fc	 mov	 edx, DWORD PTR [eax-4]
  000ab	83 c1 23	 add	 ecx, 35			; 00000023H
  000ae	2b c2		 sub	 eax, edx

; 219  :     _STL_VERIFY(_Back_shift >= _Min_back_shift && _Back_shift <= _Non_user_size, "invalid argument");

  000b0	83 c0 fc	 add	 eax, -4			; fffffffcH
  000b3	83 f8 1f	 cmp	 eax, 31			; 0000001fH
  000b6	0f 87 4a 02 00
	00		 ja	 $LN314@GetDivisor
$LN259@GetDivisor:

; 289  :         ::operator delete(_Ptr, _Bytes);

  000bc	51		 push	 ecx
  000bd	52		 push	 edx
  000be	e8 00 00 00 00	 call	 ??3@YAXPAXI@Z		; operator delete
  000c3	83 c4 08	 add	 esp, 8
$LN254@GetDivisor:
  000c6	8b 55 08	 mov	 edx, DWORD PTR _nDivided$[ebp]
; File C:\Program Files\Microsoft Visual Studio\2022\Professional\VC\Tools\MSVC\14.44.35207\include\vector

; 2077 :         _Myend   = _Newvec + _Newcapacity;

  000c9	8b c6		 mov	 eax, esi
  000cb	89 5d d4	 mov	 DWORD PTR _vDivisors$[ebp], ebx
  000ce	89 75 d8	 mov	 DWORD PTR _vDivisors$[ebp+4], esi
  000d1	89 45 e0	 mov	 DWORD PTR __Oldcapacity$1$[ebp], eax
  000d4	89 45 dc	 mov	 DWORD PTR _vDivisors$[ebp+8], eax
; File C:\IAGOS\server\v18\Source\Source\WorldServer\MiniGameArithmetic.cpp

; 91   : 		for( int i = 0; i < (int)( m_vecnPrimeNumber.size() ); ++i )

  000d7	eb 0a		 jmp	 SHORT $LN2@GetDivisor
  000d9	0f 1f 80 00 00
	00 00		 npad	 7
$LL309@GetDivisor:
  000e0	8b 7d f0	 mov	 edi, DWORD PTR _this$1$[ebp]
$LN2@GetDivisor:
; File C:\Program Files\Microsoft Visual Studio\2022\Professional\VC\Tools\MSVC\14.44.35207\include\vector

; 1915 :         return static_cast<size_type>(_My_data._Mylast - _My_data._Myfirst);

  000e3	8b 5f 0c	 mov	 ebx, DWORD PTR [edi+12]
; File C:\IAGOS\server\v18\Source\Source\WorldServer\MiniGameArithmetic.cpp

; 91   : 		for( int i = 0; i < (int)( m_vecnPrimeNumber.size() ); ++i )

  000e6	33 c9		 xor	 ecx, ecx
; File C:\Program Files\Microsoft Visual Studio\2022\Professional\VC\Tools\MSVC\14.44.35207\include\vector

; 1915 :         return static_cast<size_type>(_My_data._Mylast - _My_data._Myfirst);

  000e8	8b 7f 10	 mov	 edi, DWORD PTR [edi+16]
  000eb	2b fb		 sub	 edi, ebx
  000ed	89 5d e8	 mov	 DWORD PTR $T3[ebp], ebx
  000f0	c1 ff 02	 sar	 edi, 2
; File C:\IAGOS\server\v18\Source\Source\WorldServer\MiniGameArithmetic.cpp

; 91   : 		for( int i = 0; i < (int)( m_vecnPrimeNumber.size() ); ++i )

  000f3	85 ff		 test	 edi, edi
  000f5	7e e9		 jle	 SHORT $LL309@GetDivisor
  000f7	66 0f 1f 84 00
	00 00 00 00	 npad	 9
$LL6@GetDivisor:

; 92   : 		{
; 93   : 			if( m_vecnPrimeNumber[i] > nDivided )

  00100	8d 04 8d 00 00
	00 00		 lea	 eax, DWORD PTR [ecx*4]
  00107	8b 1c 18	 mov	 ebx, DWORD PTR [eax+ebx]
  0010a	89 45 e4	 mov	 DWORD PTR tv1590[ebp], eax
  0010d	3b da		 cmp	 ebx, edx
  0010f	0f 8f 47 01 00
	00		 jg	 $LN294@GetDivisor

; 94   : 			{
; 95   : 				bLoop = FALSE;
; 96   : 				break;
; 97   : 			}
; 98   : 
; 99   : 			if( (float)nDivided / (float)m_vecnPrimeNumber[i] == nDivided / m_vecnPrimeNumber[i] )

  00115	66 0f 6e ca	 movd	 xmm1, edx
  00119	8b c2		 mov	 eax, edx
  0011b	99		 cdq
  0011c	f7 fb		 idiv	 ebx
  0011e	66 0f 6e c3	 movd	 xmm0, ebx
  00122	0f 5b c0	 cvtdq2ps xmm0, xmm0
  00125	0f 5b c9	 cvtdq2ps xmm1, xmm1
  00128	f3 0f 5e c8	 divss	 xmm1, xmm0
  0012c	66 0f 6e c0	 movd	 xmm0, eax
  00130	0f 5b c0	 cvtdq2ps xmm0, xmm0
  00133	0f 2e c8	 ucomiss xmm1, xmm0
  00136	9f		 lahf
  00137	f6 c4 44	 test	 ah, 68			; 00000044H
  0013a	7b 0d		 jnp	 SHORT $LN287@GetDivisor

; 91   : 		for( int i = 0; i < (int)( m_vecnPrimeNumber.size() ); ++i )

  0013c	8b 55 08	 mov	 edx, DWORD PTR _nDivided$[ebp]
  0013f	41		 inc	 ecx
  00140	8b 5d e8	 mov	 ebx, DWORD PTR $T3[ebp]
  00143	3b cf		 cmp	 ecx, edi
  00145	7c b9		 jl	 SHORT $LL6@GetDivisor
; File C:\Program Files\Microsoft Visual Studio\2022\Professional\VC\Tools\MSVC\14.44.35207\include\xmemory

; 219  :     _STL_VERIFY(_Back_shift >= _Min_back_shift && _Back_shift <= _Non_user_size, "invalid argument");

  00147	eb 97		 jmp	 SHORT $LL309@GetDivisor
$LN287@GetDivisor:
; File C:\Program Files\Microsoft Visual Studio\2022\Professional\VC\Tools\MSVC\14.44.35207\include\vector

; 844  :         if (_Mylast != _My_data._Myend) {

  00149	8b 4d e0	 mov	 ecx, DWORD PTR __Oldcapacity$1$[ebp]
  0014c	3b f1		 cmp	 esi, ecx
  0014e	74 10		 je	 SHORT $LN70@GetDivisor

; 860  :             _STD _Construct_in_place(*_Mylast, _STD forward<_Valty>(_Val)...);

  00150	89 1e		 mov	 DWORD PTR [esi], ebx

; 861  :         } else {
; 862  :             _ASAN_VECTOR_EXTEND_GUARD(static_cast<size_type>(_Mylast - _My_data._Myfirst) + 1);
; 863  :             _Alty_traits::construct(_Getal(), _Unfancy(_Mylast), _STD forward<_Valty>(_Val)...);
; 864  :             _ASAN_VECTOR_RELEASE_GUARD;
; 865  :         }
; 866  : 
; 867  :         _Orphan_range(_Mylast, _Mylast);
; 868  :         _Ty& _Result = *_Mylast;
; 869  :         ++_Mylast;

  00152	8b 75 d8	 mov	 esi, DWORD PTR _vDivisors$[ebp+4]
  00155	83 c6 04	 add	 esi, 4
  00158	89 75 d8	 mov	 DWORD PTR _vDivisors$[ebp+4], esi

; 845  :             return _Emplace_back_with_unused_capacity(_STD forward<_Valty>(_Val)...);

  0015b	e9 d6 00 00 00	 jmp	 $LN145@GetDivisor
$LN70@GetDivisor:

; 875  :     _CONSTEXPR20 pointer _Emplace_reallocate(const pointer _Whereptr, _Valty&&... _Val) {

  00160	8b 45 ec	 mov	 eax, DWORD PTR _vDivisors$2$[ebp]
  00163	8b de		 mov	 ebx, esi
  00165	2b d8		 sub	 ebx, eax

; 876  :         // reallocate and insert by perfectly forwarding _Val at _Whereptr
; 877  :         _Alty& _Al        = _Getal();
; 878  :         auto& _My_data    = _Mypair._Myval2;
; 879  :         pointer& _Myfirst = _My_data._Myfirst;
; 880  :         pointer& _Mylast  = _My_data._Mylast;
; 881  : 
; 882  :         _STL_INTERNAL_CHECK(_Mylast == _My_data._Myend); // check that we have no unused capacity
; 883  : 
; 884  :         const auto _Whereoff = static_cast<size_type>(_Whereptr - _Myfirst);

  00167	c1 fb 02	 sar	 ebx, 2

; 885  :         const auto _Oldsize  = static_cast<size_type>(_Mylast - _Myfirst);
; 886  : 
; 887  :         if (_Oldsize == max_size()) {

  0016a	81 fb ff ff ff
	3f		 cmp	 ebx, 1073741823		; 3fffffffH
  00170	0f 84 a4 01 00
	00		 je	 $LN288@GetDivisor

; 889  :         }
; 890  : 
; 891  :         const size_type _Newsize = _Oldsize + 1;

  00176	2b c8		 sub	 ecx, eax
  00178	8d 7b 01	 lea	 edi, DWORD PTR [ebx+1]

; 1924 :         return static_cast<size_type>(_My_data._Myend - _My_data._Myfirst);

  0017b	c1 f9 02	 sar	 ecx, 2

; 2011 :         if (_Oldcapacity > _Max - _Oldcapacity / 2) {

  0017e	b8 ff ff ff 3f	 mov	 eax, 1073741823		; 3fffffffH
  00183	8b d1		 mov	 edx, ecx

; 891  :         const size_type _Newsize = _Oldsize + 1;

  00185	89 7d e0	 mov	 DWORD PTR __Newsize$1$[ebp], edi

; 2011 :         if (_Oldcapacity > _Max - _Oldcapacity / 2) {

  00188	d1 ea		 shr	 edx, 1
  0018a	2b c2		 sub	 eax, edx
  0018c	3b c8		 cmp	 ecx, eax
  0018e	76 14		 jbe	 SHORT $LN81@GetDivisor

; 2012 :             return _Max; // geometric growth would overflow

  00190	b8 fc ff ff ff	 mov	 eax, -4			; fffffffcH
  00195	c7 45 ec ff ff
	ff 3f		 mov	 DWORD PTR $T4[ebp], 1073741823 ; 3fffffffH
; File C:\Program Files\Microsoft Visual Studio\2022\Professional\VC\Tools\MSVC\14.44.35207\include\xmemory

; 253  :             return _Allocate_manually_vector_aligned<_Traits>(_Bytes);

  0019c	50		 push	 eax
  0019d	e8 00 00 00 00	 call	 ??$_Allocate_manually_vector_aligned@U_Default_allocate_traits@std@@@std@@YAPAXI@Z ; std::_Allocate_manually_vector_aligned<std::_Default_allocate_traits>
  001a2	eb 40		 jmp	 SHORT $LN312@GetDivisor
$LN81@GetDivisor:
; File C:\Program Files\Microsoft Visual Studio\2022\Professional\VC\Tools\MSVC\14.44.35207\include\vector

; 2015 :         const size_type _Geometric = _Oldcapacity + _Oldcapacity / 2;

  001a4	8d 04 11	 lea	 eax, DWORD PTR [ecx+edx]
; File C:\Program Files\Microsoft Visual Studio\2022\Professional\VC\Tools\MSVC\14.44.35207\include\xmemory

; 117  :         if (_Count > _Max_possible) {

  001a7	8b cf		 mov	 ecx, edi
  001a9	3b c7		 cmp	 eax, edi
  001ab	0f 43 c8	 cmovae	 ecx, eax
  001ae	89 4d ec	 mov	 DWORD PTR $T4[ebp], ecx
  001b1	81 f9 ff ff ff
	3f		 cmp	 ecx, 1073741823		; 3fffffffH
  001b7	0f 87 58 01 00
	00		 ja	 $LN289@GetDivisor

; 119  :         }
; 120  :     }
; 121  : 
; 122  :     return _Count * _Ty_size;

  001bd	8d 04 8d 00 00
	00 00		 lea	 eax, DWORD PTR [ecx*4]

; 227  :     if (_Bytes == 0) {

  001c4	85 c0		 test	 eax, eax
  001c6	75 07		 jne	 SHORT $LN96@GetDivisor

; 228  :         return nullptr;

  001c8	33 ff		 xor	 edi, edi
  001ca	89 4d ec	 mov	 DWORD PTR $T4[ebp], ecx
  001cd	eb 1a		 jmp	 SHORT $LN95@GetDivisor
$LN96@GetDivisor:

; 229  :     }
; 230  : 
; 231  : #if _HAS_CXX20 // TRANSITION, GH-1532
; 232  :     if (_STD is_constant_evaluated()) {
; 233  :         return _Traits::_Allocate(_Bytes);
; 234  :     }
; 235  : #endif // _HAS_CXX20
; 236  : 
; 237  : #ifdef __cpp_aligned_new
; 238  :     if constexpr (_Align > __STDCPP_DEFAULT_NEW_ALIGNMENT__) {
; 239  :         size_t _Passed_align = _Align;
; 240  : #if defined(_M_IX86) || defined(_M_X64)
; 241  :         if (_Bytes >= _Big_allocation_threshold) {
; 242  :             // boost the alignment of big allocations to help autovectorization
; 243  :             _Passed_align = (_STD max)(_Align, _Big_allocation_alignment);
; 244  :         }
; 245  : #endif // defined(_M_IX86) || defined(_M_X64)
; 246  :         return _Traits::_Allocate_aligned(_Bytes, _Passed_align);
; 247  :     } else
; 248  : #endif // defined(__cpp_aligned_new)
; 249  :     {
; 250  : #if defined(_M_IX86) || defined(_M_X64)
; 251  :         if (_Bytes >= _Big_allocation_threshold) {

  001cf	3d 00 10 00 00	 cmp	 eax, 4096		; 00001000H
  001d4	72 08		 jb	 SHORT $LN97@GetDivisor

; 253  :             return _Allocate_manually_vector_aligned<_Traits>(_Bytes);

  001d6	50		 push	 eax
  001d7	e8 00 00 00 00	 call	 ??$_Allocate_manually_vector_aligned@U_Default_allocate_traits@std@@@std@@YAPAXI@Z ; std::_Allocate_manually_vector_aligned<std::_Default_allocate_traits>
  001dc	eb 06		 jmp	 SHORT $LN312@GetDivisor
$LN97@GetDivisor:

; 136  :         return ::operator new(_Bytes);

  001de	50		 push	 eax
  001df	e8 00 00 00 00	 call	 ??2@YAPAXI@Z		; operator new
$LN312@GetDivisor:
; File C:\Program Files\Microsoft Visual Studio\2022\Professional\VC\Tools\MSVC\14.44.35207\include\vector

; 900  :         _Alty_traits::construct(_Al, _STD _Unfancy(_Newvec + _Whereoff), _STD forward<_Valty>(_Val)...);

  001e4	8b f8		 mov	 edi, eax
  001e6	83 c4 04	 add	 esp, 4
$LN95@GetDivisor:
  001e9	8b 45 e4	 mov	 eax, DWORD PTR tv1590[ebp]
  001ec	8b 4d e8	 mov	 ecx, DWORD PTR $T3[ebp]
  001ef	8b 04 08	 mov	 eax, DWORD PTR [eax+ecx]
  001f2	89 04 9f	 mov	 DWORD PTR [edi+ebx*4], eax

; 901  :         _Constructed_first = _Newvec + _Whereoff;
; 902  : 
; 903  :         if (_Whereptr == _Mylast) { // at back, provide strong guarantee

  001f5	8b 45 d8	 mov	 eax, DWORD PTR _vDivisors$[ebp+4]
  001f8	3b f0		 cmp	 esi, eax
  001fa	75 07		 jne	 SHORT $LN76@GetDivisor
; File C:\Program Files\Microsoft Visual Studio\2022\Professional\VC\Tools\MSVC\14.44.35207\include\xmemory

; 1992 :             _STD _Copy_memmove(_UFirst, _ULast, _STD _Unfancy(_Dest));

  001fc	8b 75 d4	 mov	 esi, DWORD PTR _vDivisors$[ebp]
  001ff	8b cf		 mov	 ecx, edi
; File C:\Program Files\Microsoft Visual Studio\2022\Professional\VC\Tools\MSVC\14.44.35207\include\vector

; 909  :         } else { // provide basic guarantee

  00201	eb 16		 jmp	 SHORT $LN125@GetDivisor
$LN76@GetDivisor:
; File C:\Program Files\Microsoft Visual Studio\2022\Professional\VC\Tools\MSVC\14.44.35207\include\xmemory

; 1992 :             _STD _Copy_memmove(_UFirst, _ULast, _STD _Unfancy(_Dest));

  00203	57		 push	 edi
  00204	56		 push	 esi
  00205	ff 75 d4	 push	 DWORD PTR _vDivisors$[ebp]
  00208	e8 00 00 00 00	 call	 ??$_Copy_memmove@PAHPAH@std@@YAPAHPAH00@Z ; std::_Copy_memmove<int *,int *>
  0020d	8b 45 d8	 mov	 eax, DWORD PTR _vDivisors$[ebp+4]
; File C:\Program Files\Microsoft Visual Studio\2022\Professional\VC\Tools\MSVC\14.44.35207\include\vector

; 912  :             _STD _Uninitialized_move(_Whereptr, _Mylast, _Newvec + _Whereoff + 1, _Al);

  00210	8d 4b 01	 lea	 ecx, DWORD PTR [ebx+1]
; File C:\Program Files\Microsoft Visual Studio\2022\Professional\VC\Tools\MSVC\14.44.35207\include\xmemory

; 1992 :             _STD _Copy_memmove(_UFirst, _ULast, _STD _Unfancy(_Dest));

  00213	83 c4 0c	 add	 esp, 12			; 0000000cH
; File C:\Program Files\Microsoft Visual Studio\2022\Professional\VC\Tools\MSVC\14.44.35207\include\vector

; 912  :             _STD _Uninitialized_move(_Whereptr, _Mylast, _Newvec + _Whereoff + 1, _Al);

  00216	8d 0c 8f	 lea	 ecx, DWORD PTR [edi+ecx*4]
$LN125@GetDivisor:

; 915  :         _Guard._New_begin = nullptr;

  00219	51		 push	 ecx
  0021a	50		 push	 eax
  0021b	56		 push	 esi
  0021c	e8 00 00 00 00	 call	 ??$_Copy_memmove@PAHPAH@std@@YAPAHPAH00@Z ; std::_Copy_memmove<int *,int *>
  00221	83 c4 0c	 add	 esp, 12			; 0000000cH

; 916  :         _Change_array(_Newvec, _Newsize, _Newcapacity);

  00224	8d 4d d4	 lea	 ecx, DWORD PTR _vDivisors$[ebp]
  00227	ff 75 ec	 push	 DWORD PTR $T4[ebp]
  0022a	ff 75 e0	 push	 DWORD PTR __Newsize$1$[ebp]
  0022d	57		 push	 edi
  0022e	e8 00 00 00 00	 call	 ?_Change_array@?$vector@HV?$allocator@H@std@@@std@@AAEXQAHII@Z ; std::vector<int,std::allocator<int> >::_Change_array
  00233	8b 75 d8	 mov	 esi, DWORD PTR _vDivisors$[ebp+4]
$LN145@GetDivisor:
; File C:\IAGOS\server\v18\Source\Source\WorldServer\MiniGameArithmetic.cpp

; 102  : 				nDivided	/= m_vecnPrimeNumber[i];

  00236	8b 4d f0	 mov	 ecx, DWORD PTR _this$1$[ebp]
  00239	8b 45 08	 mov	 eax, DWORD PTR _nDivided$[ebp]
  0023c	8b 7d e4	 mov	 edi, DWORD PTR tv1590[ebp]
  0023f	99		 cdq
  00240	8b 49 0c	 mov	 ecx, DWORD PTR [ecx+12]
  00243	f7 3c 39	 idiv	 DWORD PTR [ecx+edi]
  00246	8b d0		 mov	 edx, eax
  00248	8b 45 dc	 mov	 eax, DWORD PTR _vDivisors$[ebp+8]
  0024b	89 45 e0	 mov	 DWORD PTR __Oldcapacity$1$[ebp], eax
  0024e	8b 45 d4	 mov	 eax, DWORD PTR _vDivisors$[ebp]
  00251	89 55 08	 mov	 DWORD PTR _nDivided$[ebp], edx
  00254	89 45 ec	 mov	 DWORD PTR _vDivisors$2$[ebp], eax
  00257	e9 84 fe ff ff	 jmp	 $LL309@GetDivisor
$LN294@GetDivisor:
; File C:\IAGOS\server\v18\Source\Source\_Common\xUtil.h

; 16   : 	g_next = g_next * 1103515245 + 12345;// + nRandomSeed[ i++ ];

  0025c	69 3d 00 00 00
	00 6d 4e c6 41	 imul	 edi, DWORD PTR ?g_next@@3KA, 1103515245 ; g_next
; File C:\Program Files\Microsoft Visual Studio\2022\Professional\VC\Tools\MSVC\14.44.35207\include\vector

; 1915 :         return static_cast<size_type>(_My_data._Mylast - _My_data._Myfirst);

  00266	8b ce		 mov	 ecx, esi
  00268	8b 5d ec	 mov	 ebx, DWORD PTR _vDivisors$2$[ebp]
  0026b	33 d2		 xor	 edx, edx
  0026d	2b cb		 sub	 ecx, ebx
; File C:\IAGOS\server\v18\Source\Source\WorldServer\MiniGameArithmetic.cpp

; 111  : 	int nDivisor	=1;

  0026f	c7 45 08 01 00
	00 00		 mov	 DWORD PTR _nDivisor$1$[ebp], 1
; File C:\Program Files\Microsoft Visual Studio\2022\Professional\VC\Tools\MSVC\14.44.35207\include\vector

; 1915 :         return static_cast<size_type>(_My_data._Mylast - _My_data._Myfirst);

  00276	c1 f9 02	 sar	 ecx, 2
; File C:\IAGOS\server\v18\Source\Source\_Common\xUtil.h

; 16   : 	g_next = g_next * 1103515245 + 12345;// + nRandomSeed[ i++ ];

  00279	81 c7 39 30 00
	00		 add	 edi, 12345		; 00003039H
; File C:\Program Files\Microsoft Visual Studio\2022\Professional\VC\Tools\MSVC\14.44.35207\include\vector

; 1915 :         return static_cast<size_type>(_My_data._Mylast - _My_data._Myfirst);

  0027f	8b c7		 mov	 eax, edi
; File C:\IAGOS\server\v18\Source\Source\_Common\xUtil.h

; 16   : 	g_next = g_next * 1103515245 + 12345;// + nRandomSeed[ i++ ];

  00281	89 3d 00 00 00
	00		 mov	 DWORD PTR ?g_next@@3KA, edi ; g_next
; File C:\Program Files\Microsoft Visual Studio\2022\Professional\VC\Tools\MSVC\14.44.35207\include\vector

; 1915 :         return static_cast<size_type>(_My_data._Mylast - _My_data._Myfirst);

  00287	f7 f1		 div	 ecx
; File C:\IAGOS\server\v18\Source\Source\WorldServer\MiniGameArithmetic.cpp

; 110  : 	int n	= xRandom( vDivisors.size() ) + 1;

  00289	8d 42 01	 lea	 eax, DWORD PTR [edx+1]

; 112  : 	while( n-- > 0 )

  0028c	85 c0		 test	 eax, eax
  0028e	7e 57		 jle	 SHORT $LN308@GetDivisor
  00290	8b ce		 mov	 ecx, esi
$LL7@GetDivisor:
  00292	48		 dec	 eax
; File C:\IAGOS\server\v18\Source\Source\_Common\xUtil.h

; 16   : 	g_next = g_next * 1103515245 + 12345;// + nRandomSeed[ i++ ];

  00293	2b cb		 sub	 ecx, ebx
; File C:\IAGOS\server\v18\Source\Source\WorldServer\MiniGameArithmetic.cpp

; 112  : 	while( n-- > 0 )

  00295	89 45 e0	 mov	 DWORD PTR _n$1$[ebp], eax
; File C:\Program Files\Microsoft Visual Studio\2022\Professional\VC\Tools\MSVC\14.44.35207\include\vector

; 1915 :         return static_cast<size_type>(_My_data._Mylast - _My_data._Myfirst);

  00298	33 d2		 xor	 edx, edx
; File C:\IAGOS\server\v18\Source\Source\_Common\xUtil.h

; 16   : 	g_next = g_next * 1103515245 + 12345;// + nRandomSeed[ i++ ];

  0029a	69 c7 6d 4e c6
	41		 imul	 eax, edi, 1103515245
; File C:\Program Files\Microsoft Visual Studio\2022\Professional\VC\Tools\MSVC\14.44.35207\include\vector

; 1915 :         return static_cast<size_type>(_My_data._Mylast - _My_data._Myfirst);

  002a0	c1 f9 02	 sar	 ecx, 2
; File C:\IAGOS\server\v18\Source\Source\_Common\xUtil.h

; 16   : 	g_next = g_next * 1103515245 + 12345;// + nRandomSeed[ i++ ];

  002a3	05 39 30 00 00	 add	 eax, 12345		; 00003039H
  002a8	a3 00 00 00 00	 mov	 DWORD PTR ?g_next@@3KA, eax ; g_next
; File C:\Program Files\Microsoft Visual Studio\2022\Professional\VC\Tools\MSVC\14.44.35207\include\vector

; 1915 :         return static_cast<size_type>(_My_data._Mylast - _My_data._Myfirst);

  002ad	f7 f1		 div	 ecx
; File C:\IAGOS\server\v18\Source\Source\WorldServer\MiniGameArithmetic.cpp

; 115  : 		nDivisor	*= vDivisors[iIndex];

  002af	8b 04 93	 mov	 eax, DWORD PTR [ebx+edx*4]
  002b2	0f af 45 08	 imul	 eax, DWORD PTR _nDivisor$1$[ebp]
; File C:\Program Files\Microsoft Visual Studio\2022\Professional\VC\Tools\MSVC\14.44.35207\include\vector

; 1934 :         return _My_data._Myfirst[_Pos];

  002b6	8d 0c 93	 lea	 ecx, DWORD PTR [ebx+edx*4]
; File C:\Program Files\Microsoft Visual Studio\2022\Professional\VC\Tools\MSVC\14.44.35207\include\xutility

; 5147 :                 return _STD _Copy_memmove(_First, _Last, _Dest);

  002b9	51		 push	 ecx
; File C:\IAGOS\server\v18\Source\Source\WorldServer\MiniGameArithmetic.cpp

; 115  : 		nDivisor	*= vDivisors[iIndex];

  002ba	89 45 08	 mov	 DWORD PTR _nDivisor$1$[ebp], eax
; File C:\Program Files\Microsoft Visual Studio\2022\Professional\VC\Tools\MSVC\14.44.35207\include\vector

; 1775 :         _STD _Move_unchecked(_Whereptr + 1, _Mylast, _Whereptr);

  002bd	8d 41 04	 lea	 eax, DWORD PTR [ecx+4]
; File C:\Program Files\Microsoft Visual Studio\2022\Professional\VC\Tools\MSVC\14.44.35207\include\xutility

; 5147 :                 return _STD _Copy_memmove(_First, _Last, _Dest);

  002c0	56		 push	 esi
  002c1	50		 push	 eax
  002c2	e8 00 00 00 00	 call	 ??$_Copy_memmove@PAHPAH@std@@YAPAHPAH00@Z ; std::_Copy_memmove<int *,int *>
; File C:\Program Files\Microsoft Visual Studio\2022\Professional\VC\Tools\MSVC\14.44.35207\include\vector

; 1778 :         --_Mylast;

  002c7	8b 75 d8	 mov	 esi, DWORD PTR _vDivisors$[ebp+4]
; File C:\Program Files\Microsoft Visual Studio\2022\Professional\VC\Tools\MSVC\14.44.35207\include\xutility

; 5147 :                 return _STD _Copy_memmove(_First, _Last, _Dest);

  002ca	83 c4 0c	 add	 esp, 12			; 0000000cH
; File C:\IAGOS\server\v18\Source\Source\WorldServer\MiniGameArithmetic.cpp

; 112  : 	while( n-- > 0 )

  002cd	8b 45 e0	 mov	 eax, DWORD PTR _n$1$[ebp]
; File C:\Program Files\Microsoft Visual Studio\2022\Professional\VC\Tools\MSVC\14.44.35207\include\vector

; 1778 :         --_Mylast;

  002d0	83 ee 04	 sub	 esi, 4
  002d3	89 75 d8	 mov	 DWORD PTR _vDivisors$[ebp+4], esi
  002d6	8b ce		 mov	 ecx, esi
; File C:\IAGOS\server\v18\Source\Source\WorldServer\MiniGameArithmetic.cpp

; 112  : 	while( n-- > 0 )

  002d8	85 c0		 test	 eax, eax
  002da	7e 0b		 jle	 SHORT $LN308@GetDivisor
  002dc	8b 5d d4	 mov	 ebx, DWORD PTR _vDivisors$[ebp]
  002df	8b 3d 00 00 00
	00		 mov	 edi, DWORD PTR ?g_next@@3KA ; g_next
  002e5	eb ab		 jmp	 SHORT $LL7@GetDivisor
$LN308@GetDivisor:

; 116  : 		vector<int>::iterator it = vDivisors.begin();
; 117  : 		it += iIndex;
; 118  : 		vDivisors.erase( it );
; 119  : 	}
; 120  : 	return nDivisor;

  002e7	8d 4d d4	 lea	 ecx, DWORD PTR _vDivisors$[ebp]
  002ea	e8 00 00 00 00	 call	 ??1?$vector@HV?$allocator@H@std@@@std@@QAE@XZ ; std::vector<int,std::allocator<int> >::~vector<int,std::allocator<int> >
  002ef	8b 45 08	 mov	 eax, DWORD PTR _nDivisor$1$[ebp]

; 121  : }

  002f2	8b 4d f4	 mov	 ecx, DWORD PTR __$EHRec$[ebp]
  002f5	64 89 0d 00 00
	00 00		 mov	 DWORD PTR fs:0, ecx
  002fc	59		 pop	 ecx
  002fd	5f		 pop	 edi
  002fe	5e		 pop	 esi
  002ff	5b		 pop	 ebx
  00300	8b e5		 mov	 esp, ebp
  00302	5d		 pop	 ebp
  00303	c2 04 00	 ret	 4
$LN314@GetDivisor:
; File C:\Program Files\Microsoft Visual Studio\2022\Professional\VC\Tools\MSVC\14.44.35207\include\xmemory

; 219  :     _STL_VERIFY(_Back_shift >= _Min_back_shift && _Back_shift <= _Non_user_size, "invalid argument");

  00306	6a 00		 push	 0
  00308	6a 00		 push	 0
  0030a	6a 00		 push	 0
  0030c	6a 00		 push	 0
  0030e	6a 00		 push	 0
  00310	e8 00 00 00 00	 call	 __invoke_watson
$LN289@GetDivisor:

; 118  :             _Throw_bad_array_new_length(); // multiply overflow

  00315	e8 00 00 00 00	 call	 ?_Throw_bad_array_new_length@std@@YAXXZ ; std::_Throw_bad_array_new_length
$LN288@GetDivisor:
; File C:\Program Files\Microsoft Visual Studio\2022\Professional\VC\Tools\MSVC\14.44.35207\include\vector

; 888  :             _Xlength();

  0031a	e8 00 00 00 00	 call	 ?_Xlength@?$vector@HV?$allocator@H@std@@@std@@CAXXZ ; std::vector<int,std::allocator<int> >::_Xlength
$LN311@GetDivisor:
  0031f	cc		 int	 3
_TEXT	ENDS
;	COMDAT text$x
text$x	SEGMENT
__unwindfunclet$?GetDivisor@CMiniGameArithmetic@@AAEHH@Z$0:
  00000	8d 4d d4	 lea	 ecx, DWORD PTR _vDivisors$[ebp]
  00003	e9 00 00 00 00	 jmp	 ??1?$vector@HV?$allocator@H@std@@@std@@QAE@XZ ; std::vector<int,std::allocator<int> >::~vector<int,std::allocator<int> >
  00008	cc		 int	 3
  00009	cc		 int	 3
  0000a	cc		 int	 3
  0000b	cc		 int	 3
  0000c	cc		 int	 3
__ehhandler$?GetDivisor@CMiniGameArithmetic@@AAEHH@Z:
  0000d	90		 npad	 1
  0000e	90		 npad	 1
  0000f	8b 54 24 08	 mov	 edx, DWORD PTR [esp+8]
  00013	8d 42 0c	 lea	 eax, DWORD PTR [edx+12]
  00016	8b 4a d0	 mov	 ecx, DWORD PTR [edx-48]
  00019	33 c8		 xor	 ecx, eax
  0001b	e8 00 00 00 00	 call	 @__security_check_cookie@4
  00020	b8 00 00 00 00	 mov	 eax, OFFSET __ehfuncinfo$?GetDivisor@CMiniGameArithmetic@@AAEHH@Z
  00025	e9 00 00 00 00	 jmp	 ___CxxFrameHandler3
text$x	ENDS
?GetDivisor@CMiniGameArithmetic@@AAEHH@Z ENDP		; CMiniGameArithmetic::GetDivisor
; Function compile flags: /Ogtp
; File C:\IAGOS\server\v18\Source\Source\WorldServer\MiniGameArithmetic.cpp
; File C:\Program Files\Microsoft Visual Studio\2022\Professional\VC\Tools\MSVC\14.44.35207\include\vector
; File C:\Program Files\Microsoft Visual Studio\2022\Professional\VC\Tools\MSVC\14.44.35207\include\xmemory
; File C:\Program Files\Microsoft Visual Studio\2022\Professional\VC\Tools\MSVC\14.44.35207\include\vector
; File C:\Program Files\Microsoft Visual Studio\2022\Professional\VC\Tools\MSVC\14.44.35207\include\xmemory
; File C:\Program Files\Microsoft Visual Studio\2022\Professional\VC\Tools\MSVC\14.44.35207\include\vector
; File C:\Program Files\Microsoft Visual Studio\2022\Professional\VC\Tools\MSVC\14.44.35207\include\xmemory
; File C:\Program Files\Microsoft Visual Studio\2022\Professional\VC\Tools\MSVC\14.44.35207\include\vector
; File C:\Program Files\Microsoft Visual Studio\2022\Professional\VC\Tools\MSVC\14.44.35207\include\xmemory
; File C:\Program Files\Microsoft Visual Studio\2022\Professional\VC\Tools\MSVC\14.44.35207\include\vector
; File C:\Program Files\Microsoft Visual Studio\2022\Professional\VC\Tools\MSVC\14.44.35207\include\xmemory
; File C:\Program Files\Microsoft Visual Studio\2022\Professional\VC\Tools\MSVC\14.44.35207\include\vector
; File C:\Program Files\Microsoft Visual Studio\2022\Professional\VC\Tools\MSVC\14.44.35207\include\xmemory
; File C:\Program Files\Microsoft Visual Studio\2022\Professional\VC\Tools\MSVC\14.44.35207\include\vector
; File C:\IAGOS\server\v18\Source\Source\WorldServer\MiniGameArithmetic.cpp
; File C:\Program Files\Microsoft Visual Studio\2022\Professional\VC\Tools\MSVC\14.44.35207\include\vector
; File C:\Program Files\Microsoft Visual Studio\2022\Professional\VC\Tools\MSVC\14.44.35207\include\xmemory
; File C:\IAGOS\server\v18\Source\Source\WorldServer\MiniGameArithmetic.cpp
;	COMDAT ?InitPrimeNumber@CMiniGameArithmetic@@AAEXXZ
_TEXT	SEGMENT
__Newsize$1$ = -20					; size = 4
_this$1$ = -16						; size = 4
__Oldsize$1$ = -12					; size = 4
__Whereptr$1$ = -8					; size = 4
tv1031 = -4						; size = 4
$T1 = -4						; size = 4
?InitPrimeNumber@CMiniGameArithmetic@@AAEXXZ PROC	; CMiniGameArithmetic::InitPrimeNumber, COMDAT
; _this$ = ecx

; 67   : {

  00000	55		 push	 ebp
  00001	8b ec		 mov	 ebp, esp
  00003	83 ec 14	 sub	 esp, 20			; 00000014H
  00006	53		 push	 ebx
  00007	56		 push	 esi
  00008	57		 push	 edi
  00009	89 4d f0	 mov	 DWORD PTR _this$1$[ebp], ecx

; 68   : 	for( int i=0; i<1000; i++ )

  0000c	33 db		 xor	 ebx, ebx
  0000e	66 90		 npad	 2
$LL4@InitPrimeN:

; 69   : 	{
; 70   : 		int nCount	= 0;
; 71   : 		for( int j = 2; j <= i; j++ )

  00010	bf 02 00 00 00	 mov	 edi, 2
  00015	33 f6		 xor	 esi, esi
  00017	3b df		 cmp	 ebx, edi
  00019	0f 8c e9 02 00
	00		 jl	 $LN2@InitPrimeN
  0001f	8d 43 ff	 lea	 eax, DWORD PTR [ebx-1]
  00022	66 0f 6e d3	 movd	 xmm2, ebx
  00026	0f 5b d2	 cvtdq2ps xmm2, xmm2
  00029	83 f8 08	 cmp	 eax, 8
  0002c	0f 8c aa 01 00
	00		 jl	 $LN134@InitPrimeN
  00032	b9 04 00 00 00	 mov	 ecx, 4
  00037	89 4d fc	 mov	 DWORD PTR tv1031[ebp], ecx
  0003a	66 0f 1f 44 00
	00		 npad	 6
$LL129@InitPrimeN:

; 72   : 		{
; 73   : 			if( (float)i / (float)j == i / j )

  00040	8b c3		 mov	 eax, ebx
  00042	66 0f 6e c7	 movd	 xmm0, edi
  00046	99		 cdq
  00047	0f 28 ca	 movaps	 xmm1, xmm2
  0004a	f7 ff		 idiv	 edi
  0004c	0f 5b c0	 cvtdq2ps xmm0, xmm0
  0004f	f3 0f 5e c8	 divss	 xmm1, xmm0
  00053	66 0f 6e c0	 movd	 xmm0, eax
  00057	0f 5b c0	 cvtdq2ps xmm0, xmm0
  0005a	0f 2e c8	 ucomiss xmm1, xmm0
  0005d	9f		 lahf
  0005e	f6 c4 44	 test	 ah, 68			; 00000044H
  00061	7a 0a		 jp	 SHORT $LN137@InitPrimeN

; 74   : 				nCount++;

  00063	46		 inc	 esi

; 75   : 			if( nCount > 1 )

  00064	83 fe 01	 cmp	 esi, 1
  00067	0f 8f 9b 02 00
	00		 jg	 $LN2@InitPrimeN
$LN137@InitPrimeN:

; 72   : 		{
; 73   : 			if( (float)i / (float)j == i / j )

  0006d	49		 dec	 ecx
  0006e	8b c3		 mov	 eax, ebx
  00070	99		 cdq
  00071	0f 28 ca	 movaps	 xmm1, xmm2
  00074	f7 f9		 idiv	 ecx
  00076	66 0f 6e c1	 movd	 xmm0, ecx
  0007a	0f 5b c0	 cvtdq2ps xmm0, xmm0
  0007d	f3 0f 5e c8	 divss	 xmm1, xmm0
  00081	66 0f 6e c0	 movd	 xmm0, eax
  00085	0f 5b c0	 cvtdq2ps xmm0, xmm0
  00088	0f 2e c8	 ucomiss xmm1, xmm0
  0008b	9f		 lahf
  0008c	f6 c4 44	 test	 ah, 68			; 00000044H
  0008f	7a 01		 jp	 SHORT $LN115@InitPrimeN

; 74   : 				nCount++;

  00091	46		 inc	 esi
$LN115@InitPrimeN:

; 75   : 			if( nCount > 1 )

  00092	83 fe 01	 cmp	 esi, 1
  00095	0f 8f 6d 02 00
	00		 jg	 $LN2@InitPrimeN

; 72   : 		{
; 73   : 			if( (float)i / (float)j == i / j )

  0009b	8b 4d fc	 mov	 ecx, DWORD PTR tv1031[ebp]
  0009e	8b c3		 mov	 eax, ebx
  000a0	99		 cdq
  000a1	0f 28 ca	 movaps	 xmm1, xmm2
  000a4	f7 f9		 idiv	 ecx
  000a6	66 0f 6e c1	 movd	 xmm0, ecx
  000aa	0f 5b c0	 cvtdq2ps xmm0, xmm0
  000ad	f3 0f 5e c8	 divss	 xmm1, xmm0
  000b1	66 0f 6e c0	 movd	 xmm0, eax
  000b5	0f 5b c0	 cvtdq2ps xmm0, xmm0
  000b8	0f 2e c8	 ucomiss xmm1, xmm0
  000bb	9f		 lahf
  000bc	f6 c4 44	 test	 ah, 68			; 00000044H
  000bf	7a 01		 jp	 SHORT $LN117@InitPrimeN

; 74   : 				nCount++;

  000c1	46		 inc	 esi
$LN117@InitPrimeN:

; 75   : 			if( nCount > 1 )

  000c2	83 fe 01	 cmp	 esi, 1
  000c5	0f 8f 3d 02 00
	00		 jg	 $LN2@InitPrimeN

; 72   : 		{
; 73   : 			if( (float)i / (float)j == i / j )

  000cb	41		 inc	 ecx
  000cc	8b c3		 mov	 eax, ebx
  000ce	99		 cdq
  000cf	0f 28 ca	 movaps	 xmm1, xmm2
  000d2	f7 f9		 idiv	 ecx
  000d4	66 0f 6e c1	 movd	 xmm0, ecx
  000d8	0f 5b c0	 cvtdq2ps xmm0, xmm0
  000db	f3 0f 5e c8	 divss	 xmm1, xmm0
  000df	66 0f 6e c0	 movd	 xmm0, eax
  000e3	0f 5b c0	 cvtdq2ps xmm0, xmm0
  000e6	0f 2e c8	 ucomiss xmm1, xmm0
  000e9	9f		 lahf
  000ea	f6 c4 44	 test	 ah, 68			; 00000044H
  000ed	7a 01		 jp	 SHORT $LN119@InitPrimeN

; 74   : 				nCount++;

  000ef	46		 inc	 esi
$LN119@InitPrimeN:

; 75   : 			if( nCount > 1 )

  000f0	83 fe 01	 cmp	 esi, 1
  000f3	0f 8f 0f 02 00
	00		 jg	 $LN2@InitPrimeN

; 72   : 		{
; 73   : 			if( (float)i / (float)j == i / j )

  000f9	8b 4d fc	 mov	 ecx, DWORD PTR tv1031[ebp]
  000fc	8b c3		 mov	 eax, ebx
  000fe	83 c1 02	 add	 ecx, 2
  00101	99		 cdq
  00102	f7 f9		 idiv	 ecx
  00104	66 0f 6e c1	 movd	 xmm0, ecx
  00108	0f 28 ca	 movaps	 xmm1, xmm2
  0010b	0f 5b c0	 cvtdq2ps xmm0, xmm0
  0010e	f3 0f 5e c8	 divss	 xmm1, xmm0
  00112	66 0f 6e c0	 movd	 xmm0, eax
  00116	0f 5b c0	 cvtdq2ps xmm0, xmm0
  00119	0f 2e c8	 ucomiss xmm1, xmm0
  0011c	9f		 lahf
  0011d	f6 c4 44	 test	 ah, 68			; 00000044H
  00120	7a 01		 jp	 SHORT $LN121@InitPrimeN

; 74   : 				nCount++;

  00122	46		 inc	 esi
$LN121@InitPrimeN:

; 75   : 			if( nCount > 1 )

  00123	83 fe 01	 cmp	 esi, 1
  00126	0f 8f dc 01 00
	00		 jg	 $LN2@InitPrimeN

; 72   : 		{
; 73   : 			if( (float)i / (float)j == i / j )

  0012c	8b 4d fc	 mov	 ecx, DWORD PTR tv1031[ebp]
  0012f	8b c3		 mov	 eax, ebx
  00131	83 c1 03	 add	 ecx, 3
  00134	99		 cdq
  00135	f7 f9		 idiv	 ecx
  00137	66 0f 6e c1	 movd	 xmm0, ecx
  0013b	0f 28 ca	 movaps	 xmm1, xmm2
  0013e	0f 5b c0	 cvtdq2ps xmm0, xmm0
  00141	f3 0f 5e c8	 divss	 xmm1, xmm0
  00145	66 0f 6e c0	 movd	 xmm0, eax
  00149	0f 5b c0	 cvtdq2ps xmm0, xmm0
  0014c	0f 2e c8	 ucomiss xmm1, xmm0
  0014f	9f		 lahf
  00150	f6 c4 44	 test	 ah, 68			; 00000044H
  00153	7a 0a		 jp	 SHORT $LN140@InitPrimeN

; 74   : 				nCount++;

  00155	46		 inc	 esi

; 75   : 			if( nCount > 1 )

  00156	83 fe 01	 cmp	 esi, 1
  00159	0f 8f a9 01 00
	00		 jg	 $LN2@InitPrimeN
$LN140@InitPrimeN:

; 72   : 		{
; 73   : 			if( (float)i / (float)j == i / j )

  0015f	8b 4d fc	 mov	 ecx, DWORD PTR tv1031[ebp]
  00162	8b c3		 mov	 eax, ebx
  00164	83 c1 04	 add	 ecx, 4
  00167	99		 cdq
  00168	f7 f9		 idiv	 ecx
  0016a	66 0f 6e c1	 movd	 xmm0, ecx
  0016e	0f 28 ca	 movaps	 xmm1, xmm2
  00171	0f 5b c0	 cvtdq2ps xmm0, xmm0
  00174	f3 0f 5e c8	 divss	 xmm1, xmm0
  00178	66 0f 6e c0	 movd	 xmm0, eax
  0017c	0f 5b c0	 cvtdq2ps xmm0, xmm0
  0017f	0f 2e c8	 ucomiss xmm1, xmm0
  00182	9f		 lahf
  00183	f6 c4 44	 test	 ah, 68			; 00000044H
  00186	7a 0a		 jp	 SHORT $LN139@InitPrimeN

; 74   : 				nCount++;

  00188	46		 inc	 esi

; 75   : 			if( nCount > 1 )

  00189	83 fe 01	 cmp	 esi, 1
  0018c	0f 8f 76 01 00
	00		 jg	 $LN2@InitPrimeN
$LN139@InitPrimeN:

; 72   : 		{
; 73   : 			if( (float)i / (float)j == i / j )

  00192	8b 4d fc	 mov	 ecx, DWORD PTR tv1031[ebp]
  00195	8b c3		 mov	 eax, ebx
  00197	83 c1 05	 add	 ecx, 5
  0019a	99		 cdq
  0019b	f7 f9		 idiv	 ecx
  0019d	66 0f 6e c1	 movd	 xmm0, ecx
  001a1	0f 28 ca	 movaps	 xmm1, xmm2
  001a4	0f 5b c0	 cvtdq2ps xmm0, xmm0
  001a7	f3 0f 5e c8	 divss	 xmm1, xmm0
  001ab	66 0f 6e c0	 movd	 xmm0, eax
  001af	0f 5b c0	 cvtdq2ps xmm0, xmm0
  001b2	0f 2e c8	 ucomiss xmm1, xmm0
  001b5	9f		 lahf
  001b6	f6 c4 44	 test	 ah, 68			; 00000044H
  001b9	7a 0a		 jp	 SHORT $LN136@InitPrimeN

; 74   : 				nCount++;

  001bb	46		 inc	 esi

; 75   : 			if( nCount > 1 )

  001bc	83 fe 01	 cmp	 esi, 1
  001bf	0f 8f 43 01 00
	00		 jg	 $LN2@InitPrimeN
$LN136@InitPrimeN:
  001c5	8b 4d fc	 mov	 ecx, DWORD PTR tv1031[ebp]
  001c8	8d 43 f9	 lea	 eax, DWORD PTR [ebx-7]
  001cb	83 c7 08	 add	 edi, 8
  001ce	83 c1 08	 add	 ecx, 8
  001d1	89 4d fc	 mov	 DWORD PTR tv1031[ebp], ecx
  001d4	3b f8		 cmp	 edi, eax
  001d6	0f 8e 64 fe ff
	ff		 jle	 $LL129@InitPrimeN
$LN134@InitPrimeN:

; 69   : 	{
; 70   : 		int nCount	= 0;
; 71   : 		for( int j = 2; j <= i; j++ )

  001dc	3b fb		 cmp	 edi, ebx
  001de	7f 32		 jg	 SHORT $LN141@InitPrimeN
$LC7@InitPrimeN:

; 72   : 		{
; 73   : 			if( (float)i / (float)j == i / j )

  001e0	8b c3		 mov	 eax, ebx
  001e2	66 0f 6e c7	 movd	 xmm0, edi
  001e6	99		 cdq
  001e7	0f 28 ca	 movaps	 xmm1, xmm2
  001ea	f7 ff		 idiv	 edi
  001ec	0f 5b c0	 cvtdq2ps xmm0, xmm0
  001ef	f3 0f 5e c8	 divss	 xmm1, xmm0
  001f3	66 0f 6e c0	 movd	 xmm0, eax
  001f7	0f 5b c0	 cvtdq2ps xmm0, xmm0
  001fa	0f 2e c8	 ucomiss xmm1, xmm0
  001fd	9f		 lahf
  001fe	f6 c4 44	 test	 ah, 68			; 00000044H
  00201	7a 01		 jp	 SHORT $LN8@InitPrimeN

; 74   : 				nCount++;

  00203	46		 inc	 esi
$LN8@InitPrimeN:

; 75   : 			if( nCount > 1 )

  00204	83 fe 01	 cmp	 esi, 1
  00207	0f 8f fb 00 00
	00		 jg	 $LN2@InitPrimeN

; 69   : 	{
; 70   : 		int nCount	= 0;
; 71   : 		for( int j = 2; j <= i; j++ )

  0020d	47		 inc	 edi
  0020e	3b fb		 cmp	 edi, ebx
  00210	7e ce		 jle	 SHORT $LC7@InitPrimeN
$LN141@InitPrimeN:

; 76   : 				break;
; 77   : 		}
; 78   : 		if( nCount == 1 )

  00212	83 fe 01	 cmp	 esi, 1
  00215	0f 85 ed 00 00
	00		 jne	 $LN2@InitPrimeN

; 79   : 			m_vecnPrimeNumber.push_back( i );

  0021b	8b 75 f0	 mov	 esi, DWORD PTR _this$1$[ebp]
; File C:\Program Files\Microsoft Visual Studio\2022\Professional\VC\Tools\MSVC\14.44.35207\include\vector

; 844  :         if (_Mylast != _My_data._Myend) {

  0021e	8b 46 10	 mov	 eax, DWORD PTR [esi+16]
  00221	8b 4e 14	 mov	 ecx, DWORD PTR [esi+20]
  00224	89 45 f8	 mov	 DWORD PTR __Whereptr$1$[ebp], eax
  00227	3b c1		 cmp	 eax, ecx
  00229	74 0b		 je	 SHORT $LN15@InitPrimeN

; 860  :             _STD _Construct_in_place(*_Mylast, _STD forward<_Valty>(_Val)...);

  0022b	89 18		 mov	 DWORD PTR [eax], ebx

; 861  :         } else {
; 862  :             _ASAN_VECTOR_EXTEND_GUARD(static_cast<size_type>(_Mylast - _My_data._Myfirst) + 1);
; 863  :             _Alty_traits::construct(_Getal(), _Unfancy(_Mylast), _STD forward<_Valty>(_Val)...);
; 864  :             _ASAN_VECTOR_RELEASE_GUARD;
; 865  :         }
; 866  : 
; 867  :         _Orphan_range(_Mylast, _Mylast);
; 868  :         _Ty& _Result = *_Mylast;
; 869  :         ++_Mylast;

  0022d	83 46 10 04	 add	 DWORD PTR [esi+16], 4

; 845  :             return _Emplace_back_with_unused_capacity(_STD forward<_Valty>(_Val)...);

  00231	e9 d2 00 00 00	 jmp	 $LN2@InitPrimeN
$LN15@InitPrimeN:

; 884  :         const auto _Whereoff = static_cast<size_type>(_Whereptr - _Myfirst);

  00236	8b 56 0c	 mov	 edx, DWORD PTR [esi+12]
  00239	2b c2		 sub	 eax, edx
  0023b	c1 f8 02	 sar	 eax, 2
  0023e	89 45 f4	 mov	 DWORD PTR __Oldsize$1$[ebp], eax

; 885  :         const auto _Oldsize  = static_cast<size_type>(_Mylast - _Myfirst);
; 886  : 
; 887  :         if (_Oldsize == max_size()) {

  00241	3d ff ff ff 3f	 cmp	 eax, 1073741823		; 3fffffffH
  00246	0f 84 d0 00 00
	00		 je	 $LN105@InitPrimeN

; 1924 :         return static_cast<size_type>(_My_data._Myend - _My_data._Myfirst);

  0024c	2b ca		 sub	 ecx, edx

; 891  :         const size_type _Newsize = _Oldsize + 1;

  0024e	8d 78 01	 lea	 edi, DWORD PTR [eax+1]

; 1924 :         return static_cast<size_type>(_My_data._Myend - _My_data._Myfirst);

  00251	c1 f9 02	 sar	 ecx, 2

; 2011 :         if (_Oldcapacity > _Max - _Oldcapacity / 2) {

  00254	b8 ff ff ff 3f	 mov	 eax, 1073741823		; 3fffffffH
  00259	8b d1		 mov	 edx, ecx

; 891  :         const size_type _Newsize = _Oldsize + 1;

  0025b	89 7d ec	 mov	 DWORD PTR __Newsize$1$[ebp], edi

; 2011 :         if (_Oldcapacity > _Max - _Oldcapacity / 2) {

  0025e	d1 ea		 shr	 edx, 1
  00260	2b c2		 sub	 eax, edx
  00262	3b c8		 cmp	 ecx, eax
  00264	76 14		 jbe	 SHORT $LN26@InitPrimeN

; 2012 :             return _Max; // geometric growth would overflow

  00266	b8 fc ff ff ff	 mov	 eax, -4			; fffffffcH
  0026b	c7 45 fc ff ff
	ff 3f		 mov	 DWORD PTR $T1[ebp], 1073741823 ; 3fffffffH
; File C:\Program Files\Microsoft Visual Studio\2022\Professional\VC\Tools\MSVC\14.44.35207\include\xmemory

; 253  :             return _Allocate_manually_vector_aligned<_Traits>(_Bytes);

  00272	50		 push	 eax
  00273	e8 00 00 00 00	 call	 ??$_Allocate_manually_vector_aligned@U_Default_allocate_traits@std@@@std@@YAPAXI@Z ; std::_Allocate_manually_vector_aligned<std::_Default_allocate_traits>
  00278	eb 40		 jmp	 SHORT $LN168@InitPrimeN
$LN26@InitPrimeN:
; File C:\Program Files\Microsoft Visual Studio\2022\Professional\VC\Tools\MSVC\14.44.35207\include\vector

; 2015 :         const size_type _Geometric = _Oldcapacity + _Oldcapacity / 2;

  0027a	8d 04 0a	 lea	 eax, DWORD PTR [edx+ecx]
; File C:\Program Files\Microsoft Visual Studio\2022\Professional\VC\Tools\MSVC\14.44.35207\include\xmemory

; 117  :         if (_Count > _Max_possible) {

  0027d	8b cf		 mov	 ecx, edi
  0027f	3b c7		 cmp	 eax, edi
  00281	0f 43 c8	 cmovae	 ecx, eax
  00284	89 4d fc	 mov	 DWORD PTR $T1[ebp], ecx
  00287	81 f9 ff ff ff
	3f		 cmp	 ecx, 1073741823		; 3fffffffH
  0028d	0f 87 8e 00 00
	00		 ja	 $LN106@InitPrimeN

; 119  :         }
; 120  :     }
; 121  : 
; 122  :     return _Count * _Ty_size;

  00293	8d 04 8d 00 00
	00 00		 lea	 eax, DWORD PTR [ecx*4]

; 227  :     if (_Bytes == 0) {

  0029a	85 c0		 test	 eax, eax
  0029c	75 07		 jne	 SHORT $LN41@InitPrimeN

; 228  :         return nullptr;

  0029e	33 ff		 xor	 edi, edi
  002a0	89 4d fc	 mov	 DWORD PTR $T1[ebp], ecx
  002a3	eb 1a		 jmp	 SHORT $LN40@InitPrimeN
$LN41@InitPrimeN:

; 229  :     }
; 230  : 
; 231  : #if _HAS_CXX20 // TRANSITION, GH-1532
; 232  :     if (_STD is_constant_evaluated()) {
; 233  :         return _Traits::_Allocate(_Bytes);
; 234  :     }
; 235  : #endif // _HAS_CXX20
; 236  : 
; 237  : #ifdef __cpp_aligned_new
; 238  :     if constexpr (_Align > __STDCPP_DEFAULT_NEW_ALIGNMENT__) {
; 239  :         size_t _Passed_align = _Align;
; 240  : #if defined(_M_IX86) || defined(_M_X64)
; 241  :         if (_Bytes >= _Big_allocation_threshold) {
; 242  :             // boost the alignment of big allocations to help autovectorization
; 243  :             _Passed_align = (_STD max)(_Align, _Big_allocation_alignment);
; 244  :         }
; 245  : #endif // defined(_M_IX86) || defined(_M_X64)
; 246  :         return _Traits::_Allocate_aligned(_Bytes, _Passed_align);
; 247  :     } else
; 248  : #endif // defined(__cpp_aligned_new)
; 249  :     {
; 250  : #if defined(_M_IX86) || defined(_M_X64)
; 251  :         if (_Bytes >= _Big_allocation_threshold) {

  002a5	3d 00 10 00 00	 cmp	 eax, 4096		; 00001000H
  002aa	72 08		 jb	 SHORT $LN42@InitPrimeN

; 253  :             return _Allocate_manually_vector_aligned<_Traits>(_Bytes);

  002ac	50		 push	 eax
  002ad	e8 00 00 00 00	 call	 ??$_Allocate_manually_vector_aligned@U_Default_allocate_traits@std@@@std@@YAPAXI@Z ; std::_Allocate_manually_vector_aligned<std::_Default_allocate_traits>
  002b2	eb 06		 jmp	 SHORT $LN168@InitPrimeN
$LN42@InitPrimeN:

; 136  :         return ::operator new(_Bytes);

  002b4	50		 push	 eax
  002b5	e8 00 00 00 00	 call	 ??2@YAPAXI@Z		; operator new
$LN168@InitPrimeN:
; File C:\Program Files\Microsoft Visual Studio\2022\Professional\VC\Tools\MSVC\14.44.35207\include\vector

; 900  :         _Alty_traits::construct(_Al, _STD _Unfancy(_Newvec + _Whereoff), _STD forward<_Valty>(_Val)...);

  002ba	8b f8		 mov	 edi, eax
  002bc	83 c4 04	 add	 esp, 4
$LN40@InitPrimeN:
  002bf	8b 45 f4	 mov	 eax, DWORD PTR __Oldsize$1$[ebp]
  002c2	89 1c 87	 mov	 DWORD PTR [edi+eax*4], ebx

; 901  :         _Constructed_first = _Newvec + _Whereoff;
; 902  : 
; 903  :         if (_Whereptr == _Mylast) { // at back, provide strong guarantee

  002c5	8b 4e 10	 mov	 ecx, DWORD PTR [esi+16]
  002c8	8b 45 f8	 mov	 eax, DWORD PTR __Whereptr$1$[ebp]
  002cb	8b 56 0c	 mov	 edx, DWORD PTR [esi+12]
  002ce	3b c1		 cmp	 eax, ecx
  002d0	75 04		 jne	 SHORT $LN21@InitPrimeN
; File C:\Program Files\Microsoft Visual Studio\2022\Professional\VC\Tools\MSVC\14.44.35207\include\xmemory

; 1992 :             _STD _Copy_memmove(_UFirst, _ULast, _STD _Unfancy(_Dest));

  002d2	8b c7		 mov	 eax, edi
; File C:\Program Files\Microsoft Visual Studio\2022\Professional\VC\Tools\MSVC\14.44.35207\include\vector

; 909  :         } else { // provide basic guarantee

  002d4	eb 18		 jmp	 SHORT $LN70@InitPrimeN
$LN21@InitPrimeN:
; File C:\Program Files\Microsoft Visual Studio\2022\Professional\VC\Tools\MSVC\14.44.35207\include\xmemory

; 1992 :             _STD _Copy_memmove(_UFirst, _ULast, _STD _Unfancy(_Dest));

  002d6	57		 push	 edi
  002d7	50		 push	 eax
  002d8	52		 push	 edx
  002d9	e8 00 00 00 00	 call	 ??$_Copy_memmove@PAHPAH@std@@YAPAHPAH00@Z ; std::_Copy_memmove<int *,int *>
; File C:\Program Files\Microsoft Visual Studio\2022\Professional\VC\Tools\MSVC\14.44.35207\include\vector

; 912  :             _STD _Uninitialized_move(_Whereptr, _Mylast, _Newvec + _Whereoff + 1, _Al);

  002de	8b 45 f4	 mov	 eax, DWORD PTR __Oldsize$1$[ebp]
; File C:\Program Files\Microsoft Visual Studio\2022\Professional\VC\Tools\MSVC\14.44.35207\include\xmemory

; 1992 :             _STD _Copy_memmove(_UFirst, _ULast, _STD _Unfancy(_Dest));

  002e1	83 c4 0c	 add	 esp, 12			; 0000000cH
  002e4	8b 55 f8	 mov	 edx, DWORD PTR __Whereptr$1$[ebp]
; File C:\Program Files\Microsoft Visual Studio\2022\Professional\VC\Tools\MSVC\14.44.35207\include\vector

; 912  :             _STD _Uninitialized_move(_Whereptr, _Mylast, _Newvec + _Whereoff + 1, _Al);

  002e7	40		 inc	 eax
; File C:\Program Files\Microsoft Visual Studio\2022\Professional\VC\Tools\MSVC\14.44.35207\include\xmemory

; 1992 :             _STD _Copy_memmove(_UFirst, _ULast, _STD _Unfancy(_Dest));

  002e8	8b 4e 10	 mov	 ecx, DWORD PTR [esi+16]
; File C:\Program Files\Microsoft Visual Studio\2022\Professional\VC\Tools\MSVC\14.44.35207\include\vector

; 912  :             _STD _Uninitialized_move(_Whereptr, _Mylast, _Newvec + _Whereoff + 1, _Al);

  002eb	8d 04 87	 lea	 eax, DWORD PTR [edi+eax*4]
$LN70@InitPrimeN:

; 913  :         }
; 914  : 
; 915  :         _Guard._New_begin = nullptr;

  002ee	50		 push	 eax
  002ef	51		 push	 ecx
  002f0	52		 push	 edx
  002f1	e8 00 00 00 00	 call	 ??$_Copy_memmove@PAHPAH@std@@YAPAHPAH00@Z ; std::_Copy_memmove<int *,int *>
  002f6	83 c4 0c	 add	 esp, 12			; 0000000cH

; 916  :         _Change_array(_Newvec, _Newsize, _Newcapacity);

  002f9	8d 4e 0c	 lea	 ecx, DWORD PTR [esi+12]
  002fc	ff 75 fc	 push	 DWORD PTR $T1[ebp]
  002ff	ff 75 ec	 push	 DWORD PTR __Newsize$1$[ebp]
  00302	57		 push	 edi
  00303	e8 00 00 00 00	 call	 ?_Change_array@?$vector@HV?$allocator@H@std@@@std@@AAEXQAHII@Z ; std::vector<int,std::allocator<int> >::_Change_array
$LN2@InitPrimeN:
; File C:\IAGOS\server\v18\Source\Source\WorldServer\MiniGameArithmetic.cpp

; 68   : 	for( int i=0; i<1000; i++ )

  00308	43		 inc	 ebx
  00309	81 fb e8 03 00
	00		 cmp	 ebx, 1000		; 000003e8H
  0030f	0f 8c fb fc ff
	ff		 jl	 $LL4@InitPrimeN

; 81   : }

  00315	5f		 pop	 edi
  00316	5e		 pop	 esi
  00317	5b		 pop	 ebx
  00318	8b e5		 mov	 esp, ebp
  0031a	5d		 pop	 ebp
  0031b	c3		 ret	 0
$LN105@InitPrimeN:
; File C:\Program Files\Microsoft Visual Studio\2022\Professional\VC\Tools\MSVC\14.44.35207\include\vector

; 888  :             _Xlength();

  0031c	e8 00 00 00 00	 call	 ?_Xlength@?$vector@HV?$allocator@H@std@@@std@@CAXXZ ; std::vector<int,std::allocator<int> >::_Xlength
$LN106@InitPrimeN:
; File C:\Program Files\Microsoft Visual Studio\2022\Professional\VC\Tools\MSVC\14.44.35207\include\xmemory

; 118  :             _Throw_bad_array_new_length(); // multiply overflow

  00321	e8 00 00 00 00	 call	 ?_Throw_bad_array_new_length@std@@YAXXZ ; std::_Throw_bad_array_new_length
$LN166@InitPrimeN:
  00326	cc		 int	 3
?InitPrimeNumber@CMiniGameArithmetic@@AAEXXZ ENDP	; CMiniGameArithmetic::InitPrimeNumber
_TEXT	ENDS
; Function compile flags: /Ogtp
; File C:\IAGOS\server\v18\Source\Source\WorldServer\MiniGameArithmetic.cpp
; File C:\IAGOS\server\v18\Source\Source\_Common\minigamebase.h
; File C:\IAGOS\server\v18\Source\Source\WorldServer\MiniGameArithmetic.cpp
; File C:\Program Files\Microsoft Visual Studio\2022\Professional\VC\Tools\MSVC\14.44.35207\include\vector
; File C:\IAGOS\server\v18\Source\Source\_Common\minigamebase.h
; File C:\IAGOS\server\v18\Source\Source\WorldServer\MiniGameArithmetic.cpp
; File C:\Program Files\Microsoft Visual Studio\2022\Professional\VC\Tools\MSVC\14.44.35207\include\vector
; File C:\IAGOS\server\v18\Source\Source\WorldServer\MiniGameArithmetic.cpp
; File C:\Program Files\Microsoft Visual Studio\2022\Professional\VC\Tools\MSVC\14.44.35207\include\vector
; File C:\IAGOS\server\v18\Source\Source\WorldServer\MiniGameArithmetic.cpp
; File C:\Program Files\Microsoft Visual Studio\2022\Professional\VC\Tools\MSVC\14.44.35207\include\xstring
; File C:\IAGOS\server\v18\Source\Source\WorldServer\MiniGameArithmetic.cpp
; File C:\Program Files\Microsoft Visual Studio\2022\Professional\VC\Tools\MSVC\14.44.35207\include\xstring
; File C:\Program Files\Microsoft Visual Studio\2022\Professional\VC\Tools\MSVC\14.44.35207\include\vector
; File C:\IAGOS\server\v18\Source\Source\WorldServer\MiniGameArithmetic.cpp
; File C:\Program Files\Microsoft Visual Studio\2022\Professional\VC\Tools\MSVC\14.44.35207\include\vector
; File C:\IAGOS\server\v18\Source\Source\WorldServer\MiniGameArithmetic.cpp
; File C:\Program Files\Microsoft Visual Studio\2022\Professional\VC\Tools\MSVC\14.44.35207\include\vector
; File C:\IAGOS\server\v18\Source\Source\WorldServer\MiniGameArithmetic.cpp
; File C:\Program Files\Microsoft Visual Studio\2022\Professional\VC\Tools\MSVC\14.44.35207\include\vector
; File C:\Program Files\Microsoft Visual Studio\2022\Professional\VC\Tools\MSVC\14.44.35207\include\xstring
; File C:\Program Files\Microsoft Visual Studio\2022\Professional\VC\Tools\MSVC\14.44.35207\include\vector
; File C:\IAGOS\server\v18\Source\Source\WorldServer\MiniGameArithmetic.cpp
; File C:\Program Files\Microsoft Visual Studio\2022\Professional\VC\Tools\MSVC\14.44.35207\include\vector
; File C:\IAGOS\server\v18\Source\Source\WorldServer\MiniGameArithmetic.cpp
; File C:\Program Files\Microsoft Visual Studio\2022\Professional\VC\Tools\MSVC\14.44.35207\include\vector
; File C:\Program Files\Microsoft Visual Studio\2022\Professional\VC\Tools\MSVC\14.44.35207\include\xstring
; File C:\Program Files\Microsoft Visual Studio\2022\Professional\VC\Tools\MSVC\14.44.35207\include\vector
; File C:\IAGOS\server\v18\Source\Source\WorldServer\MiniGameArithmetic.cpp
; File C:\Program Files\Microsoft Visual Studio\2022\Professional\VC\Tools\MSVC\14.44.35207\include\vector
; File C:\Program Files\Microsoft Visual Studio\2022\Professional\VC\Tools\MSVC\14.44.35207\include\xmemory
; File C:\Program Files\Microsoft Visual Studio\2022\Professional\VC\Tools\MSVC\14.44.35207\include\xstring
; File C:\Program Files\Microsoft Visual Studio\2022\Professional\VC\Tools\MSVC\14.44.35207\include\xmemory
; File C:\Program Files\Microsoft Visual Studio\2022\Professional\VC\Tools\MSVC\14.44.35207\include\xstring
; File C:\Program Files\Microsoft Visual Studio\2022\Professional\VC\Tools\MSVC\14.44.35207\include\xmemory
; File C:\Program Files\Microsoft Visual Studio\2022\Professional\VC\Tools\MSVC\14.44.35207\include\xstring
; File C:\Program Files\Microsoft Visual Studio\2022\Professional\VC\Tools\MSVC\14.44.35207\include\xmemory
; File C:\Program Files\Microsoft Visual Studio\2022\Professional\VC\Tools\MSVC\14.44.35207\include\vector
; File C:\Program Files\Microsoft Visual Studio\2022\Professional\VC\Tools\MSVC\14.44.35207\include\xmemory
; File C:\IAGOS\server\v18\Source\Source\WorldServer\MiniGameArithmetic.cpp
; File C:\Program Files\Microsoft Visual Studio\2022\Professional\VC\Tools\MSVC\14.44.35207\include\xmemory
; File C:\IAGOS\server\v18\Source\Source\WorldServer\MiniGameArithmetic.cpp
;	COMDAT ?Excute@CMiniGameArithmetic@@UAEHPAVCUser@@PAU__MINIGAME_PACKET@@@Z
_TEXT	SEGMENT
$T2 = -76						; size = 4
_MP$ = -72						; size = 32
$T3 = -40						; size = 24
$T4 = -40						; size = 24
$T5 = -40						; size = 24
__$ArrayPad$ = -16					; size = 4
__$EHRec$ = -12						; size = 12
_pUser$ = 8						; size = 4
_pMiniGamePacket$ = 12					; size = 4
?Excute@CMiniGameArithmetic@@UAEHPAVCUser@@PAU__MINIGAME_PACKET@@@Z PROC ; CMiniGameArithmetic::Excute, COMDAT
; _this$ = ecx

; 24   : {

  00000	55		 push	 ebp
  00001	8b ec		 mov	 ebp, esp
  00003	6a ff		 push	 -1
  00005	68 00 00 00 00	 push	 __ehhandler$?Excute@CMiniGameArithmetic@@UAEHPAVCUser@@PAU__MINIGAME_PACKET@@@Z
  0000a	64 a1 00 00 00
	00		 mov	 eax, DWORD PTR fs:0
  00010	50		 push	 eax
  00011	83 ec 44	 sub	 esp, 68			; 00000044H
  00014	a1 00 00 00 00	 mov	 eax, DWORD PTR ___security_cookie
  00019	33 c5		 xor	 eax, ebp
  0001b	89 45 f0	 mov	 DWORD PTR __$ArrayPad$[ebp], eax
  0001e	56		 push	 esi
  0001f	57		 push	 edi
  00020	50		 push	 eax
  00021	8d 45 f4	 lea	 eax, DWORD PTR __$EHRec$[ebp]
  00024	64 a3 00 00 00
	00		 mov	 DWORD PTR fs:0, eax
  0002a	8b f1		 mov	 esi, ecx
  0002c	8b 4d 0c	 mov	 ecx, DWORD PTR _pMiniGamePacket$[ebp]
  0002f	8b 7d 08	 mov	 edi, DWORD PTR _pUser$[ebp]

; 25   : 	BOOL bReturn = FALSE;

  00032	c7 45 b4 00 00
	00 00		 mov	 DWORD PTR $T2[ebp], 0
; File C:\IAGOS\server\v18\Source\Source\_Common\minigamebase.h

; 28   : 	{ wNowGame=wG; nState=nS; nParam1=nP1; nParam2=nP2; vecszData.clear(); }

  00039	c7 45 b8 00 00
	00 00		 mov	 DWORD PTR _MP$[ebp], OFFSET ??_7__MINIGAME_EXT_PACKET@@6B@
; File C:\IAGOS\server\v18\Source\Source\WorldServer\MiniGameArithmetic.cpp

; 27   : 	__MINIGAME_EXT_PACKET MP( pMiniGamePacket->wNowGame );	

  00040	0f b7 41 04	 movzx	 eax, WORD PTR [ecx+4]
; File C:\Program Files\Microsoft Visual Studio\2022\Professional\VC\Tools\MSVC\14.44.35207\include\vector

; 400  :     _CONSTEXPR20 _Vector_val() noexcept : _Myfirst(), _Mylast(), _Myend() {}

  00044	c7 45 cc 00 00
	00 00		 mov	 DWORD PTR _MP$[ebp+20], 0
  0004b	c7 45 d0 00 00
	00 00		 mov	 DWORD PTR _MP$[ebp+24], 0
  00052	c7 45 d4 00 00
	00 00		 mov	 DWORD PTR _MP$[ebp+28], 0
; File C:\IAGOS\server\v18\Source\Source\_Common\minigamebase.h

; 28   : 	{ wNowGame=wG; nState=nS; nParam1=nP1; nParam2=nP2; vecszData.clear(); }

  00059	66 89 45 bc	 mov	 WORD PTR _MP$[ebp+4], ax
  0005d	c7 45 c4 00 00
	00 00		 mov	 DWORD PTR _MP$[ebp+12], 0
  00064	c7 45 c8 00 00
	00 00		 mov	 DWORD PTR _MP$[ebp+16], 0
; File C:\IAGOS\server\v18\Source\Source\WorldServer\MiniGameArithmetic.cpp

; 28   : 	if( pMiniGamePacket->nState == MP_OPENWND || pMiniGamePacket->nState == MP_FAIL )

  0006b	8b 41 08	 mov	 eax, DWORD PTR [ecx+8]
  0006e	c7 45 fc 00 00
	00 00		 mov	 DWORD PTR __$EHRec$[ebp+8], 0
  00075	83 f8 01	 cmp	 eax, 1
  00078	0f 84 50 01 00
	00		 je	 $LN3@Excute
  0007e	83 f8 05	 cmp	 eax, 5
  00081	0f 84 47 01 00
	00		 je	 $LN3@Excute

; 36   : 		return bReturn;
; 37   : 	}
; 38   : 
; 39   : 	if( pMiniGamePacket->nParam1 == m_nResult )

  00087	8b 41 0c	 mov	 eax, DWORD PTR [ecx+12]
  0008a	3b 46 04	 cmp	 eax, DWORD PTR [esi+4]
  0008d	0f 85 a5 00 00
	00		 jne	 $LN5@Excute

; 40   : 	{
; 41   : 		m_nCorrectCount++;

  00093	8b 46 08	 mov	 eax, DWORD PTR [esi+8]
  00096	40		 inc	 eax
  00097	89 46 08	 mov	 DWORD PTR [esi+8], eax

; 42   : 		if( m_nCorrectCount == 5 )		// 5ą®Á¦ Á¤´äŔ» żĎ·á!!

  0009a	83 f8 05	 cmp	 eax, 5
  0009d	75 13		 jne	 SHORT $LN7@Excute

; 43   : 		{
; 44   : 			MP.nState = MP_FINISH;

  0009f	c7 45 c0 04 00
	00 00		 mov	 DWORD PTR _MP$[ebp+8], 4

; 45   : 			bReturn = TRUE;

  000a6	c7 45 b4 01 00
	00 00		 mov	 DWORD PTR $T2[ebp], 1

; 46   : 		}

  000ad	e9 fe 00 00 00	 jmp	 $LN6@Excute
$LN7@Excute:

; 50   : 			MP.vecszData.push_back( MakeQuestion() );

  000b2	8d 45 d8	 lea	 eax, DWORD PTR $T4[ebp]
  000b5	c7 45 c0 02 00
	00 00		 mov	 DWORD PTR _MP$[ebp+8], 2
  000bc	50		 push	 eax
  000bd	8b ce		 mov	 ecx, esi
  000bf	e8 00 00 00 00	 call	 ?MakeQuestion@CMiniGameArithmetic@@AAE?AV?$basic_string@DU?$char_traits@D@std@@V?$allocator@D@2@@std@@XZ ; CMiniGameArithmetic::MakeQuestion
; File C:\Program Files\Microsoft Visual Studio\2022\Professional\VC\Tools\MSVC\14.44.35207\include\vector

; 844  :         if (_Mylast != _My_data._Myend) {

  000c4	8b 4d d0	 mov	 ecx, DWORD PTR _MP$[ebp+24]
; File C:\IAGOS\server\v18\Source\Source\WorldServer\MiniGameArithmetic.cpp

; 50   : 			MP.vecszData.push_back( MakeQuestion() );

  000c7	c6 45 fc 02	 mov	 BYTE PTR __$EHRec$[ebp+8], 2
; File C:\Program Files\Microsoft Visual Studio\2022\Professional\VC\Tools\MSVC\14.44.35207\include\vector

; 844  :         if (_Mylast != _My_data._Myend) {

  000cb	3b 4d d4	 cmp	 ecx, DWORD PTR _MP$[ebp+28]
  000ce	74 4d		 je	 SHORT $LN149@Excute
; File C:\IAGOS\server\v18\Source\Source\WorldServer\MiniGameArithmetic.cpp

; 50   : 			MP.vecszData.push_back( MakeQuestion() );

  000d0	0f 57 c0	 xorps	 xmm0, xmm0
  000d3	c6 45 fc 00	 mov	 BYTE PTR __$EHRec$[ebp+8], 0
; File C:\Program Files\Microsoft Visual Studio\2022\Professional\VC\Tools\MSVC\14.44.35207\include\xstring

; 493  :         _CONSTEXPR20 _Bxty() noexcept : _Buf() {} // user-provided, for fancy pointers

  000d7	0f 11 01	 movups	 XMMWORD PTR [ecx], xmm0

; 517  :     size_type _Mysize = 0; // current length of string (size)

  000da	c7 41 10 00 00
	00 00		 mov	 DWORD PTR [ecx+16], 0

; 518  :     size_type _Myres  = 0; // current storage reserved for string (capacity)

  000e1	c7 41 14 00 00
	00 00		 mov	 DWORD PTR [ecx+20], 0

; 1286 :                 _CSTD memcpy(_My_data_mem, _Right_data_mem, _Memcpy_val_size);

  000e8	0f 10 00	 movups	 xmm0, XMMWORD PTR [eax]
  000eb	0f 11 01	 movups	 XMMWORD PTR [ecx], xmm0
  000ee	f3 0f 7e 40 10	 movq	 xmm0, QWORD PTR [eax+16]
  000f3	66 0f d6 41 10	 movq	 QWORD PTR [ecx+16], xmm0
; File C:\IAGOS\server\v18\Source\Source\WorldServer\MiniGameArithmetic.cpp

; 50   : 			MP.vecszData.push_back( MakeQuestion() );

  000f8	8d 4d d8	 lea	 ecx, DWORD PTR $T4[ebp]
; File C:\Program Files\Microsoft Visual Studio\2022\Professional\VC\Tools\MSVC\14.44.35207\include\xstring

; 1288 :                 _Right_data._Mysize = 0;

  000fb	c7 40 10 00 00
	00 00		 mov	 DWORD PTR [eax+16], 0

; 1289 :                 _Right_data._Myres  = _Small_string_capacity;

  00102	c7 40 14 0f 00
	00 00		 mov	 DWORD PTR [eax+20], 15	; 0000000fH

; 1290 :                 _Right_data._Activate_SSO_buffer();
; 1291 :                 _Traits::assign(_Right_data._Bx._Buf[0], _Elem());

  00109	c6 00 00	 mov	 BYTE PTR [eax], 0
; File C:\Program Files\Microsoft Visual Studio\2022\Professional\VC\Tools\MSVC\14.44.35207\include\vector

; 869  :         ++_Mylast;

  0010c	83 45 d0 18	 add	 DWORD PTR _MP$[ebp+24], 24 ; 00000018H
; File C:\IAGOS\server\v18\Source\Source\WorldServer\MiniGameArithmetic.cpp

; 50   : 			MP.vecszData.push_back( MakeQuestion() );

  00110	e8 00 00 00 00	 call	 ??1?$basic_string@DU?$char_traits@D@std@@V?$allocator@D@2@@std@@QAE@XZ ; std::basic_string<char,std::char_traits<char>,std::allocator<char> >::~basic_string<char,std::char_traits<char>,std::allocator<char> >
  00115	8b 46 08	 mov	 eax, DWORD PTR [esi+8]

; 51   : 		}
; 52   : 	}

  00118	e9 93 00 00 00	 jmp	 $LN6@Excute
$LN149@Excute:
; File C:\Program Files\Microsoft Visual Studio\2022\Professional\VC\Tools\MSVC\14.44.35207\include\vector

; 848  :         return *_Emplace_reallocate(_Mylast, _STD forward<_Valty>(_Val)...);

  0011d	50		 push	 eax
  0011e	51		 push	 ecx
  0011f	8d 4d cc	 lea	 ecx, DWORD PTR _MP$[ebp+20]
  00122	e8 00 00 00 00	 call	 ??$_Emplace_reallocate@V?$basic_string@DU?$char_traits@D@std@@V?$allocator@D@2@@std@@@?$vector@V?$basic_string@DU?$char_traits@D@std@@V?$allocator@D@2@@std@@V?$allocator@V?$basic_string@DU?$char_traits@D@std@@V?$allocator@D@2@@std@@@2@@std@@AAEPAV?$basic_string@DU?$char_traits@D@std@@V?$allocator@D@2@@1@QAV21@$$QAV21@@Z ; std::vector<std::basic_string<char,std::char_traits<char>,std::allocator<char> >,std::allocator<std::basic_string<char,std::char_traits<char>,std::allocator<char> > > >::_Emplace_reallocate<std::basic_string<char,std::char_traits<char>,std::allocator<char> > >
; File C:\IAGOS\server\v18\Source\Source\WorldServer\MiniGameArithmetic.cpp

; 50   : 			MP.vecszData.push_back( MakeQuestion() );

  00127	8d 4d d8	 lea	 ecx, DWORD PTR $T4[ebp]
  0012a	c6 45 fc 00	 mov	 BYTE PTR __$EHRec$[ebp+8], 0
  0012e	e8 00 00 00 00	 call	 ??1?$basic_string@DU?$char_traits@D@std@@V?$allocator@D@2@@std@@QAE@XZ ; std::basic_string<char,std::char_traits<char>,std::allocator<char> >::~basic_string<char,std::char_traits<char>,std::allocator<char> >
  00133	8b 46 08	 mov	 eax, DWORD PTR [esi+8]

; 51   : 		}
; 52   : 	}

  00136	eb 78		 jmp	 SHORT $LN6@Excute
$LN5@Excute:

; 56   : 		MP.vecszData.push_back( MakeQuestion() );

  00138	8d 45 d8	 lea	 eax, DWORD PTR $T5[ebp]
  0013b	c7 45 c0 03 00
	00 00		 mov	 DWORD PTR _MP$[ebp+8], 3
  00142	50		 push	 eax
  00143	8b ce		 mov	 ecx, esi
  00145	e8 00 00 00 00	 call	 ?MakeQuestion@CMiniGameArithmetic@@AAE?AV?$basic_string@DU?$char_traits@D@std@@V?$allocator@D@2@@std@@XZ ; CMiniGameArithmetic::MakeQuestion
; File C:\Program Files\Microsoft Visual Studio\2022\Professional\VC\Tools\MSVC\14.44.35207\include\vector

; 844  :         if (_Mylast != _My_data._Myend) {

  0014a	8b 4d d0	 mov	 ecx, DWORD PTR _MP$[ebp+24]
; File C:\IAGOS\server\v18\Source\Source\WorldServer\MiniGameArithmetic.cpp

; 56   : 		MP.vecszData.push_back( MakeQuestion() );

  0014d	c6 45 fc 03	 mov	 BYTE PTR __$EHRec$[ebp+8], 3
; File C:\Program Files\Microsoft Visual Studio\2022\Professional\VC\Tools\MSVC\14.44.35207\include\vector

; 844  :         if (_Mylast != _My_data._Myend) {

  00151	3b 4d d4	 cmp	 ecx, DWORD PTR _MP$[ebp+28]
  00154	74 3b		 je	 SHORT $LN188@Excute
  00156	0f 57 c0	 xorps	 xmm0, xmm0
; File C:\Program Files\Microsoft Visual Studio\2022\Professional\VC\Tools\MSVC\14.44.35207\include\xstring

; 493  :         _CONSTEXPR20 _Bxty() noexcept : _Buf() {} // user-provided, for fancy pointers

  00159	0f 11 01	 movups	 XMMWORD PTR [ecx], xmm0

; 517  :     size_type _Mysize = 0; // current length of string (size)

  0015c	c7 41 10 00 00
	00 00		 mov	 DWORD PTR [ecx+16], 0

; 518  :     size_type _Myres  = 0; // current storage reserved for string (capacity)

  00163	c7 41 14 00 00
	00 00		 mov	 DWORD PTR [ecx+20], 0

; 1286 :                 _CSTD memcpy(_My_data_mem, _Right_data_mem, _Memcpy_val_size);

  0016a	0f 10 00	 movups	 xmm0, XMMWORD PTR [eax]
  0016d	0f 11 01	 movups	 XMMWORD PTR [ecx], xmm0
  00170	f3 0f 7e 40 10	 movq	 xmm0, QWORD PTR [eax+16]
  00175	66 0f d6 41 10	 movq	 QWORD PTR [ecx+16], xmm0

; 1288 :                 _Right_data._Mysize = 0;

  0017a	c7 40 10 00 00
	00 00		 mov	 DWORD PTR [eax+16], 0

; 1289 :                 _Right_data._Myres  = _Small_string_capacity;

  00181	c7 40 14 0f 00
	00 00		 mov	 DWORD PTR [eax+20], 15	; 0000000fH

; 1290 :                 _Right_data._Activate_SSO_buffer();
; 1291 :                 _Traits::assign(_Right_data._Bx._Buf[0], _Elem());

  00188	c6 00 00	 mov	 BYTE PTR [eax], 0
; File C:\Program Files\Microsoft Visual Studio\2022\Professional\VC\Tools\MSVC\14.44.35207\include\vector

; 869  :         ++_Mylast;

  0018b	83 45 d0 18	 add	 DWORD PTR _MP$[ebp+24], 24 ; 00000018H

; 845  :             return _Emplace_back_with_unused_capacity(_STD forward<_Valty>(_Val)...);

  0018f	eb 0a		 jmp	 SHORT $LN187@Excute
$LN188@Excute:

; 848  :         return *_Emplace_reallocate(_Mylast, _STD forward<_Valty>(_Val)...);

  00191	50		 push	 eax
  00192	51		 push	 ecx
  00193	8d 4d cc	 lea	 ecx, DWORD PTR _MP$[ebp+20]
  00196	e8 00 00 00 00	 call	 ??$_Emplace_reallocate@V?$basic_string@DU?$char_traits@D@std@@V?$allocator@D@2@@std@@@?$vector@V?$basic_string@DU?$char_traits@D@std@@V?$allocator@D@2@@std@@V?$allocator@V?$basic_string@DU?$char_traits@D@std@@V?$allocator@D@2@@std@@@2@@std@@AAEPAV?$basic_string@DU?$char_traits@D@std@@V?$allocator@D@2@@1@QAV21@$$QAV21@@Z ; std::vector<std::basic_string<char,std::char_traits<char>,std::allocator<char> >,std::allocator<std::basic_string<char,std::char_traits<char>,std::allocator<char> > > >::_Emplace_reallocate<std::basic_string<char,std::char_traits<char>,std::allocator<char> > >
$LN187@Excute:
; File C:\IAGOS\server\v18\Source\Source\WorldServer\MiniGameArithmetic.cpp

; 56   : 		MP.vecszData.push_back( MakeQuestion() );

  0019b	8d 4d d8	 lea	 ecx, DWORD PTR $T5[ebp]
  0019e	c6 45 fc 00	 mov	 BYTE PTR __$EHRec$[ebp+8], 0
  001a2	e8 00 00 00 00	 call	 ??1?$basic_string@DU?$char_traits@D@std@@V?$allocator@D@2@@std@@QAE@XZ ; std::basic_string<char,std::char_traits<char>,std::allocator<char> >::~basic_string<char,std::char_traits<char>,std::allocator<char> >

; 57   : 		m_nCorrectCount = 0;

  001a7	c7 46 08 00 00
	00 00		 mov	 DWORD PTR [esi+8], 0
  001ae	33 c0		 xor	 eax, eax
$LN6@Excute:

; 58   : 	}
; 59   : 
; 60   : 	MP.nParam1 = m_nCorrectCount;
; 61   : 
; 62   : 	SendExtPacket( pUser, MP );

  001b0	83 ec 20	 sub	 esp, 32			; 00000020H
  001b3	89 45 c4	 mov	 DWORD PTR _MP$[ebp+12], eax
  001b6	8d 45 b8	 lea	 eax, DWORD PTR _MP$[ebp]
  001b9	8b cc		 mov	 ecx, esp
  001bb	50		 push	 eax
  001bc	e8 00 00 00 00	 call	 ??0__MINIGAME_EXT_PACKET@@QAE@ABU0@@Z
  001c1	57		 push	 edi
  001c2	8b ce		 mov	 ecx, esi
  001c4	e8 00 00 00 00	 call	 ?SendExtPacket@CMiniGameBase@@QAEXPAVCUser@@U__MINIGAME_EXT_PACKET@@@Z ; CMiniGameBase::SendExtPacket

; 63   : 	return bReturn;

  001c9	e9 9a 00 00 00	 jmp	 $LN16@Excute
$LN3@Excute:

; 29   : 	{
; 30   : 		MP.nState = pMiniGamePacket->nState;

  001ce	89 45 c0	 mov	 DWORD PTR _MP$[ebp+8], eax

; 31   : 		if( pMiniGamePacket->nState == MP_OPENWND )

  001d1	83 f8 01	 cmp	 eax, 1
  001d4	75 07		 jne	 SHORT $LN311@Excute

; 32   : 			m_nCorrectCount = 0;		// Ă˘Ŕ» »ő·Î ż­¸é Á¤´äĽö ĂĘ±âČ­..

  001d6	c7 46 08 00 00
	00 00		 mov	 DWORD PTR [esi+8], 0
$LN311@Excute:

; 33   : 		MP.nParam1 = m_nCorrectCount;

  001dd	8b 46 08	 mov	 eax, DWORD PTR [esi+8]

; 34   : 		MP.vecszData.push_back( MakeQuestion() );

  001e0	8b ce		 mov	 ecx, esi
  001e2	89 45 c4	 mov	 DWORD PTR _MP$[ebp+12], eax
  001e5	8d 45 d8	 lea	 eax, DWORD PTR $T3[ebp]
  001e8	50		 push	 eax
  001e9	e8 00 00 00 00	 call	 ?MakeQuestion@CMiniGameArithmetic@@AAE?AV?$basic_string@DU?$char_traits@D@std@@V?$allocator@D@2@@std@@XZ ; CMiniGameArithmetic::MakeQuestion
; File C:\Program Files\Microsoft Visual Studio\2022\Professional\VC\Tools\MSVC\14.44.35207\include\vector

; 844  :         if (_Mylast != _My_data._Myend) {

  001ee	8b 4d d0	 mov	 ecx, DWORD PTR _MP$[ebp+24]
; File C:\IAGOS\server\v18\Source\Source\WorldServer\MiniGameArithmetic.cpp

; 34   : 		MP.vecszData.push_back( MakeQuestion() );

  001f1	c6 45 fc 01	 mov	 BYTE PTR __$EHRec$[ebp+8], 1
; File C:\Program Files\Microsoft Visual Studio\2022\Professional\VC\Tools\MSVC\14.44.35207\include\vector

; 844  :         if (_Mylast != _My_data._Myend) {

  001f5	3b 4d d4	 cmp	 ecx, DWORD PTR _MP$[ebp+28]
  001f8	74 3b		 je	 SHORT $LN86@Excute
  001fa	0f 57 c0	 xorps	 xmm0, xmm0
; File C:\Program Files\Microsoft Visual Studio\2022\Professional\VC\Tools\MSVC\14.44.35207\include\xstring

; 493  :         _CONSTEXPR20 _Bxty() noexcept : _Buf() {} // user-provided, for fancy pointers

  001fd	0f 11 01	 movups	 XMMWORD PTR [ecx], xmm0

; 517  :     size_type _Mysize = 0; // current length of string (size)

  00200	c7 41 10 00 00
	00 00		 mov	 DWORD PTR [ecx+16], 0

; 518  :     size_type _Myres  = 0; // current storage reserved for string (capacity)

  00207	c7 41 14 00 00
	00 00		 mov	 DWORD PTR [ecx+20], 0

; 1286 :                 _CSTD memcpy(_My_data_mem, _Right_data_mem, _Memcpy_val_size);

  0020e	0f 10 00	 movups	 xmm0, XMMWORD PTR [eax]
  00211	0f 11 01	 movups	 XMMWORD PTR [ecx], xmm0
  00214	f3 0f 7e 40 10	 movq	 xmm0, QWORD PTR [eax+16]
  00219	66 0f d6 41 10	 movq	 QWORD PTR [ecx+16], xmm0

; 1288 :                 _Right_data._Mysize = 0;

  0021e	c7 40 10 00 00
	00 00		 mov	 DWORD PTR [eax+16], 0

; 1289 :                 _Right_data._Myres  = _Small_string_capacity;

  00225	c7 40 14 0f 00
	00 00		 mov	 DWORD PTR [eax+20], 15	; 0000000fH

; 1290 :                 _Right_data._Activate_SSO_buffer();
; 1291 :                 _Traits::assign(_Right_data._Bx._Buf[0], _Elem());

  0022c	c6 00 00	 mov	 BYTE PTR [eax], 0
; File C:\Program Files\Microsoft Visual Studio\2022\Professional\VC\Tools\MSVC\14.44.35207\include\vector

; 869  :         ++_Mylast;

  0022f	83 45 d0 18	 add	 DWORD PTR _MP$[ebp+24], 24 ; 00000018H

; 845  :             return _Emplace_back_with_unused_capacity(_STD forward<_Valty>(_Val)...);

  00233	eb 0a		 jmp	 SHORT $LN85@Excute
$LN86@Excute:

; 848  :         return *_Emplace_reallocate(_Mylast, _STD forward<_Valty>(_Val)...);

  00235	50		 push	 eax
  00236	51		 push	 ecx
  00237	8d 4d cc	 lea	 ecx, DWORD PTR _MP$[ebp+20]
  0023a	e8 00 00 00 00	 call	 ??$_Emplace_reallocate@V?$basic_string@DU?$char_traits@D@std@@V?$allocator@D@2@@std@@@?$vector@V?$basic_string@DU?$char_traits@D@std@@V?$allocator@D@2@@std@@V?$allocator@V?$basic_string@DU?$char_traits@D@std@@V?$allocator@D@2@@std@@@2@@std@@AAEPAV?$basic_string@DU?$char_traits@D@std@@V?$allocator@D@2@@1@QAV21@$$QAV21@@Z ; std::vector<std::basic_string<char,std::char_traits<char>,std::allocator<char> >,std::allocator<std::basic_string<char,std::char_traits<char>,std::allocator<char> > > >::_Emplace_reallocate<std::basic_string<char,std::char_traits<char>,std::allocator<char> > >
$LN85@Excute:
; File C:\IAGOS\server\v18\Source\Source\WorldServer\MiniGameArithmetic.cpp

; 34   : 		MP.vecszData.push_back( MakeQuestion() );

  0023f	8d 4d d8	 lea	 ecx, DWORD PTR $T3[ebp]
  00242	c6 45 fc 00	 mov	 BYTE PTR __$EHRec$[ebp+8], 0
  00246	e8 00 00 00 00	 call	 ??1?$basic_string@DU?$char_traits@D@std@@V?$allocator@D@2@@std@@QAE@XZ ; std::basic_string<char,std::char_traits<char>,std::allocator<char> >::~basic_string<char,std::char_traits<char>,std::allocator<char> >

; 35   : 		SendExtPacket( pUser, MP );

  0024b	83 ec 20	 sub	 esp, 32			; 00000020H
  0024e	8d 45 b8	 lea	 eax, DWORD PTR _MP$[ebp]
  00251	8b cc		 mov	 ecx, esp
  00253	50		 push	 eax
  00254	e8 00 00 00 00	 call	 ??0__MINIGAME_EXT_PACKET@@QAE@ABU0@@Z
  00259	57		 push	 edi
  0025a	8b ce		 mov	 ecx, esi
  0025c	e8 00 00 00 00	 call	 ?SendExtPacket@CMiniGameBase@@QAEXPAVCUser@@U__MINIGAME_EXT_PACKET@@@Z ; CMiniGameBase::SendExtPacket
  00261	c7 45 b4 00 00
	00 00		 mov	 DWORD PTR $T2[ebp], 0
$LN16@Excute:
; File C:\Program Files\Microsoft Visual Studio\2022\Professional\VC\Tools\MSVC\14.44.35207\include\vector

; 2090 :         if (_Myfirst) { // destroy and deallocate old array

  00268	8b 75 cc	 mov	 esi, DWORD PTR _MP$[ebp+20]
  0026b	85 f6		 test	 esi, esi
  0026d	0f 84 9b 00 00
	00		 je	 $LN233@Excute

; 2091 :             _STD _Destroy_range(_Myfirst, _Mylast, _Al);

  00273	8b 7d d0	 mov	 edi, DWORD PTR _MP$[ebp+24]
  00276	3b f7		 cmp	 esi, edi
; File C:\Program Files\Microsoft Visual Studio\2022\Professional\VC\Tools\MSVC\14.44.35207\include\xmemory

; 1102 :         for (; _First != _Last; ++_First) {

  00278	74 54		 je	 SHORT $LN305@Excute
  0027a	66 0f 1f 44 00
	00		 npad	 6
$LL239@Excute:
; File C:\Program Files\Microsoft Visual Studio\2022\Professional\VC\Tools\MSVC\14.44.35207\include\xstring

; 453  :         return _Myres > _Small_string_capacity;

  00280	8b 4e 14	 mov	 ecx, DWORD PTR [esi+20]
  00283	83 f9 0f	 cmp	 ecx, 15			; 0000000fH

; 3083 :         if (_My_data._Large_mode_engaged()) {

  00286	76 2b		 jbe	 SHORT $LN268@Excute
; File C:\Program Files\Microsoft Visual Studio\2022\Professional\VC\Tools\MSVC\14.44.35207\include\xmemory

; 985  :         _STD _Deallocate<_New_alignof<_Ty>>(_Ptr, sizeof(_Ty) * _Count);

  00288	8b 06		 mov	 eax, DWORD PTR [esi]
; File C:\Program Files\Microsoft Visual Studio\2022\Professional\VC\Tools\MSVC\14.44.35207\include\xstring

; 852  :         _Al.deallocate(_Old_ptr, _Capacity + 1); // +1 for null terminator

  0028a	41		 inc	 ecx
; File C:\Program Files\Microsoft Visual Studio\2022\Professional\VC\Tools\MSVC\14.44.35207\include\xmemory

; 284  :         if (_Bytes >= _Big_allocation_threshold) {

  0028b	81 f9 00 10 00
	00		 cmp	 ecx, 4096		; 00001000H
  00291	72 16		 jb	 SHORT $LN273@Excute

; 205  :     const uintptr_t _Ptr_container   = _Ptr_user[-1];

  00293	8b 50 fc	 mov	 edx, DWORD PTR [eax-4]
  00296	83 c1 23	 add	 ecx, 35			; 00000023H

; 206  : 
; 207  :     // If the following asserts, it likely means that we are performing
; 208  :     // an aligned delete on memory coming from an unaligned allocation.
; 209  :     _STL_ASSERT(_Ptr_user[-2] == _Big_allocation_sentinel, "invalid argument");
; 210  : 
; 211  :     // Extra paranoia on aligned allocation/deallocation; ensure _Ptr_container is
; 212  :     // in range [_Min_back_shift, _Non_user_size]
; 213  : #ifdef _DEBUG
; 214  :     constexpr uintptr_t _Min_back_shift = 2 * sizeof(void*);
; 215  : #else // ^^^ defined(_DEBUG) / !defined(_DEBUG) vvv
; 216  :     constexpr uintptr_t _Min_back_shift = sizeof(void*);
; 217  : #endif // ^^^ !defined(_DEBUG) ^^^
; 218  :     const uintptr_t _Back_shift = reinterpret_cast<uintptr_t>(_Ptr) - _Ptr_container;

  00299	2b c2		 sub	 eax, edx

; 219  :     _STL_VERIFY(_Back_shift >= _Min_back_shift && _Back_shift <= _Non_user_size, "invalid argument");

  0029b	83 c0 fc	 add	 eax, -4			; fffffffcH
  0029e	83 f8 1f	 cmp	 eax, 31			; 0000001fH
  002a1	0f 87 87 00 00
	00		 ja	 $LN292@Excute

; 220  :     _Ptr = reinterpret_cast<void*>(_Ptr_container);

  002a7	8b c2		 mov	 eax, edx
$LN273@Excute:

; 289  :         ::operator delete(_Ptr, _Bytes);

  002a9	51		 push	 ecx
  002aa	50		 push	 eax
  002ab	e8 00 00 00 00	 call	 ??3@YAXPAXI@Z		; operator delete
  002b0	83 c4 08	 add	 esp, 8
$LN268@Excute:
; File C:\Program Files\Microsoft Visual Studio\2022\Professional\VC\Tools\MSVC\14.44.35207\include\xstring

; 3090 :         _My_data._Mysize = 0;

  002b3	c7 46 10 00 00
	00 00		 mov	 DWORD PTR [esi+16], 0

; 3091 :         _My_data._Myres  = _Small_string_capacity;

  002ba	c7 46 14 0f 00
	00 00		 mov	 DWORD PTR [esi+20], 15	; 0000000fH

; 3092 :         // the _Traits::assign is last so the codegen doesn't think the char write can alias this
; 3093 :         _Traits::assign(_My_data._Bx._Buf[0], _Elem());

  002c1	c6 06 00	 mov	 BYTE PTR [esi], 0
; File C:\Program Files\Microsoft Visual Studio\2022\Professional\VC\Tools\MSVC\14.44.35207\include\xmemory

; 1102 :         for (; _First != _Last; ++_First) {

  002c4	83 c6 18	 add	 esi, 24			; 00000018H
  002c7	3b f7		 cmp	 esi, edi
  002c9	75 b5		 jne	 SHORT $LL239@Excute
  002cb	8b 75 cc	 mov	 esi, DWORD PTR _MP$[ebp+20]
$LN305@Excute:
; File C:\Program Files\Microsoft Visual Studio\2022\Professional\VC\Tools\MSVC\14.44.35207\include\vector

; 2093 :             _Al.deallocate(_Myfirst, static_cast<size_type>(_Myend - _Myfirst));

  002ce	8b 4d d4	 mov	 ecx, DWORD PTR _MP$[ebp+28]
  002d1	b8 ab aa aa 2a	 mov	 eax, 715827883		; 2aaaaaabH
  002d6	2b ce		 sub	 ecx, esi
  002d8	f7 e9		 imul	 ecx
  002da	c1 fa 02	 sar	 edx, 2
  002dd	8b c2		 mov	 eax, edx
  002df	c1 e8 1f	 shr	 eax, 31			; 0000001fH
  002e2	03 c2		 add	 eax, edx
; File C:\Program Files\Microsoft Visual Studio\2022\Professional\VC\Tools\MSVC\14.44.35207\include\xmemory

; 985  :         _STD _Deallocate<_New_alignof<_Ty>>(_Ptr, sizeof(_Ty) * _Count);

  002e4	8d 0c 40	 lea	 ecx, DWORD PTR [eax+eax*2]
  002e7	8b c6		 mov	 eax, esi
  002e9	c1 e1 03	 shl	 ecx, 3

; 284  :         if (_Bytes >= _Big_allocation_threshold) {

  002ec	81 f9 00 10 00
	00		 cmp	 ecx, 4096		; 00001000H
  002f2	72 10		 jb	 SHORT $LN293@Excute

; 205  :     const uintptr_t _Ptr_container   = _Ptr_user[-1];

  002f4	8b 70 fc	 mov	 esi, DWORD PTR [eax-4]
  002f7	83 c1 23	 add	 ecx, 35			; 00000023H
  002fa	2b c6		 sub	 eax, esi

; 219  :     _STL_VERIFY(_Back_shift >= _Min_back_shift && _Back_shift <= _Non_user_size, "invalid argument");

  002fc	83 c0 fc	 add	 eax, -4			; fffffffcH
  002ff	83 f8 1f	 cmp	 eax, 31			; 0000001fH
  00302	77 2a		 ja	 SHORT $LN292@Excute
$LN293@Excute:

; 289  :         ::operator delete(_Ptr, _Bytes);

  00304	51		 push	 ecx
  00305	56		 push	 esi
  00306	e8 00 00 00 00	 call	 ??3@YAXPAXI@Z		; operator delete
  0030b	83 c4 08	 add	 esp, 8
$LN233@Excute:
; File C:\IAGOS\server\v18\Source\Source\WorldServer\MiniGameArithmetic.cpp

; 63   : 	return bReturn;

  0030e	8b 45 b4	 mov	 eax, DWORD PTR $T2[ebp]

; 64   : }

  00311	8b 4d f4	 mov	 ecx, DWORD PTR __$EHRec$[ebp]
  00314	64 89 0d 00 00
	00 00		 mov	 DWORD PTR fs:0, ecx
  0031b	59		 pop	 ecx
  0031c	5f		 pop	 edi
  0031d	5e		 pop	 esi
  0031e	8b 4d f0	 mov	 ecx, DWORD PTR __$ArrayPad$[ebp]
  00321	33 cd		 xor	 ecx, ebp
  00323	e8 00 00 00 00	 call	 @__security_check_cookie@4
  00328	8b e5		 mov	 esp, ebp
  0032a	5d		 pop	 ebp
  0032b	c2 08 00	 ret	 8
$LN292@Excute:
; File C:\Program Files\Microsoft Visual Studio\2022\Professional\VC\Tools\MSVC\14.44.35207\include\xmemory

; 219  :     _STL_VERIFY(_Back_shift >= _Min_back_shift && _Back_shift <= _Non_user_size, "invalid argument");

  0032e	6a 00		 push	 0
  00330	6a 00		 push	 0
  00332	6a 00		 push	 0
  00334	6a 00		 push	 0
  00336	6a 00		 push	 0
  00338	e8 00 00 00 00	 call	 __invoke_watson
$LN313@Excute:
  0033d	cc		 int	 3
_TEXT	ENDS
;	COMDAT text$x
text$x	SEGMENT
__unwindfunclet$?Excute@CMiniGameArithmetic@@UAEHPAVCUser@@PAU__MINIGAME_PACKET@@@Z$0:
  00000	8d 4d b8	 lea	 ecx, DWORD PTR _MP$[ebp]
  00003	e9 00 00 00 00	 jmp	 ??1__MINIGAME_EXT_PACKET@@QAE@XZ
__unwindfunclet$?Excute@CMiniGameArithmetic@@UAEHPAVCUser@@PAU__MINIGAME_PACKET@@@Z$3:
  00008	8d 4d d8	 lea	 ecx, DWORD PTR $T4[ebp]
  0000b	e9 00 00 00 00	 jmp	 ??1?$basic_string@DU?$char_traits@D@std@@V?$allocator@D@2@@std@@QAE@XZ ; std::basic_string<char,std::char_traits<char>,std::allocator<char> >::~basic_string<char,std::char_traits<char>,std::allocator<char> >
__unwindfunclet$?Excute@CMiniGameArithmetic@@UAEHPAVCUser@@PAU__MINIGAME_PACKET@@@Z$4:
  00010	8d 4d d8	 lea	 ecx, DWORD PTR $T5[ebp]
  00013	e9 00 00 00 00	 jmp	 ??1?$basic_string@DU?$char_traits@D@std@@V?$allocator@D@2@@std@@QAE@XZ ; std::basic_string<char,std::char_traits<char>,std::allocator<char> >::~basic_string<char,std::char_traits<char>,std::allocator<char> >
__unwindfunclet$?Excute@CMiniGameArithmetic@@UAEHPAVCUser@@PAU__MINIGAME_PACKET@@@Z$1:
  00018	8d 4d d8	 lea	 ecx, DWORD PTR $T3[ebp]
  0001b	e9 00 00 00 00	 jmp	 ??1?$basic_string@DU?$char_traits@D@std@@V?$allocator@D@2@@std@@QAE@XZ ; std::basic_string<char,std::char_traits<char>,std::allocator<char> >::~basic_string<char,std::char_traits<char>,std::allocator<char> >
  00020	cc		 int	 3
  00021	cc		 int	 3
  00022	cc		 int	 3
  00023	cc		 int	 3
  00024	cc		 int	 3
__ehhandler$?Excute@CMiniGameArithmetic@@UAEHPAVCUser@@PAU__MINIGAME_PACKET@@@Z:
  00025	90		 npad	 1
  00026	90		 npad	 1
  00027	8b 54 24 08	 mov	 edx, DWORD PTR [esp+8]
  0002b	8d 42 0c	 lea	 eax, DWORD PTR [edx+12]
  0002e	8b 4a b0	 mov	 ecx, DWORD PTR [edx-80]
  00031	33 c8		 xor	 ecx, eax
  00033	e8 00 00 00 00	 call	 @__security_check_cookie@4
  00038	8b 4a fc	 mov	 ecx, DWORD PTR [edx-4]
  0003b	33 c8		 xor	 ecx, eax
  0003d	e8 00 00 00 00	 call	 @__security_check_cookie@4
  00042	b8 00 00 00 00	 mov	 eax, OFFSET __ehfuncinfo$?Excute@CMiniGameArithmetic@@UAEHPAVCUser@@PAU__MINIGAME_PACKET@@@Z
  00047	e9 00 00 00 00	 jmp	 ___CxxFrameHandler3
text$x	ENDS
?Excute@CMiniGameArithmetic@@UAEHPAVCUser@@PAU__MINIGAME_PACKET@@@Z ENDP ; CMiniGameArithmetic::Excute
; Function compile flags: /Ogtp
; File C:\IAGOS\server\v18\Source\Source\WorldServer\MiniGameArithmetic.cpp
;	COMDAT ??1CMiniGameArithmetic@@UAE@XZ
_TEXT	SEGMENT
??1CMiniGameArithmetic@@UAE@XZ PROC			; CMiniGameArithmetic::~CMiniGameArithmetic, COMDAT
; _this$ = ecx

; 20   : {

  00000	56		 push	 esi
  00001	8b f1		 mov	 esi, ecx

; 21   : }

  00003	8d 4e 0c	 lea	 ecx, DWORD PTR [esi+12]
  00006	c7 06 00 00 00
	00		 mov	 DWORD PTR [esi], OFFSET ??_7CMiniGameArithmetic@@6B@
  0000c	e8 00 00 00 00	 call	 ??1?$vector@HV?$allocator@H@std@@@std@@QAE@XZ ; std::vector<int,std::allocator<int> >::~vector<int,std::allocator<int> >
  00011	8b ce		 mov	 ecx, esi
  00013	5e		 pop	 esi
  00014	e9 00 00 00 00	 jmp	 ??1CMiniGameBase@@UAE@XZ ; CMiniGameBase::~CMiniGameBase
??1CMiniGameArithmetic@@UAE@XZ ENDP			; CMiniGameArithmetic::~CMiniGameArithmetic
_TEXT	ENDS
; Function compile flags: /Ogtp
; File C:\IAGOS\server\v18\Source\Source\WorldServer\MiniGameArithmetic.cpp
; File C:\Program Files\Microsoft Visual Studio\2022\Professional\VC\Tools\MSVC\14.44.35207\include\vector
; File C:\IAGOS\server\v18\Source\Source\WorldServer\MiniGameArithmetic.cpp
;	COMDAT ??0CMiniGameArithmetic@@QAE@PAVCMiniGameBase@@@Z
_TEXT	SEGMENT
_this$ = -16						; size = 4
__$EHRec$ = -12						; size = 12
_pMiniGame$ = 8						; size = 4
??0CMiniGameArithmetic@@QAE@PAVCMiniGameBase@@@Z PROC	; CMiniGameArithmetic::CMiniGameArithmetic, COMDAT
; _this$ = ecx

; 13   : {

  00000	55		 push	 ebp
  00001	8b ec		 mov	 ebp, esp
  00003	6a ff		 push	 -1
  00005	68 00 00 00 00	 push	 __ehhandler$??0CMiniGameArithmetic@@QAE@PAVCMiniGameBase@@@Z
  0000a	64 a1 00 00 00
	00		 mov	 eax, DWORD PTR fs:0
  00010	50		 push	 eax
  00011	51		 push	 ecx
  00012	56		 push	 esi
  00013	a1 00 00 00 00	 mov	 eax, DWORD PTR ___security_cookie
  00018	33 c5		 xor	 eax, ebp
  0001a	50		 push	 eax
  0001b	8d 45 f4	 lea	 eax, DWORD PTR __$EHRec$[ebp]
  0001e	64 a3 00 00 00
	00		 mov	 DWORD PTR fs:0, eax
  00024	8b f1		 mov	 esi, ecx
  00026	89 75 f0	 mov	 DWORD PTR _this$[ebp], esi
  00029	e8 00 00 00 00	 call	 ??0CMiniGameBase@@QAE@XZ ; CMiniGameBase::CMiniGameBase
  0002e	8d 4e 0c	 lea	 ecx, DWORD PTR [esi+12]
  00031	c7 06 00 00 00
	00		 mov	 DWORD PTR [esi], OFFSET ??_7CMiniGameArithmetic@@6B@
  00037	c7 46 04 00 00
	00 00		 mov	 DWORD PTR [esi+4], 0
  0003e	c7 46 08 00 00
	00 00		 mov	 DWORD PTR [esi+8], 0
  00045	c7 45 fc 00 00
	00 00		 mov	 DWORD PTR __$EHRec$[ebp+8], 0
; File C:\Program Files\Microsoft Visual Studio\2022\Professional\VC\Tools\MSVC\14.44.35207\include\vector

; 400  :     _CONSTEXPR20 _Vector_val() noexcept : _Myfirst(), _Mylast(), _Myend() {}

  0004c	c7 01 00 00 00
	00		 mov	 DWORD PTR [ecx], 0
  00052	c7 41 04 00 00
	00 00		 mov	 DWORD PTR [ecx+4], 0
  00059	c7 41 08 00 00
	00 00		 mov	 DWORD PTR [ecx+8], 0

; 46   :     _CONSTEXPR20 _Vector_const_iterator(_Tptr _Parg, const _Container_base* _Pvector) noexcept : _Ptr(_Parg) {

  00060	8b 45 08	 mov	 eax, DWORD PTR _pMiniGame$[ebp]
; File C:\IAGOS\server\v18\Source\Source\WorldServer\MiniGameArithmetic.cpp

; 13   : {

  00063	c6 45 fc 01	 mov	 BYTE PTR __$EHRec$[ebp+8], 1

; 14   : 	CMiniGameArithmetic* pMiniGameArithmetic = static_cast<CMiniGameArithmetic*>( pMiniGame );
; 15   : 
; 16   : 	m_vecnPrimeNumber.assign( pMiniGameArithmetic->m_vecnPrimeNumber.begin(), pMiniGameArithmetic->m_vecnPrimeNumber.end() );

  00067	ff 70 10	 push	 DWORD PTR [eax+16]
  0006a	ff 70 0c	 push	 DWORD PTR [eax+12]
  0006d	e8 00 00 00 00	 call	 ??$assign@V?$_Vector_iterator@V?$_Vector_val@U?$_Simple_types@H@std@@@std@@@std@@$0A@@?$vector@HV?$allocator@H@std@@@std@@QAEXV?$_Vector_iterator@V?$_Vector_val@U?$_Simple_types@H@std@@@std@@@1@0@Z ; std::vector<int,std::allocator<int> >::assign<std::_Vector_iterator<std::_Vector_val<std::_Simple_types<int> > >,0>

; 17   : }

  00072	8b c6		 mov	 eax, esi
  00074	8b 4d f4	 mov	 ecx, DWORD PTR __$EHRec$[ebp]
  00077	64 89 0d 00 00
	00 00		 mov	 DWORD PTR fs:0, ecx
  0007e	59		 pop	 ecx
  0007f	5e		 pop	 esi
  00080	8b e5		 mov	 esp, ebp
  00082	5d		 pop	 ebp
  00083	c2 04 00	 ret	 4
_TEXT	ENDS
;	COMDAT text$x
text$x	SEGMENT
__unwindfunclet$??0CMiniGameArithmetic@@QAE@PAVCMiniGameBase@@@Z$0:
  00000	8b 4d f0	 mov	 ecx, DWORD PTR _this$[ebp]
  00003	e9 00 00 00 00	 jmp	 ??1CMiniGameBase@@UAE@XZ ; CMiniGameBase::~CMiniGameBase
__unwindfunclet$??0CMiniGameArithmetic@@QAE@PAVCMiniGameBase@@@Z$1:
  00008	8b 4d f0	 mov	 ecx, DWORD PTR _this$[ebp]
  0000b	83 c1 0c	 add	 ecx, 12			; 0000000cH
  0000e	e9 00 00 00 00	 jmp	 ??1?$vector@HV?$allocator@H@std@@@std@@QAE@XZ ; std::vector<int,std::allocator<int> >::~vector<int,std::allocator<int> >
  00013	cc		 int	 3
  00014	cc		 int	 3
  00015	cc		 int	 3
  00016	cc		 int	 3
  00017	cc		 int	 3
__ehhandler$??0CMiniGameArithmetic@@QAE@PAVCMiniGameBase@@@Z:
  00018	90		 npad	 1
  00019	90		 npad	 1
  0001a	8b 54 24 08	 mov	 edx, DWORD PTR [esp+8]
  0001e	8d 42 0c	 lea	 eax, DWORD PTR [edx+12]
  00021	8b 4a f4	 mov	 ecx, DWORD PTR [edx-12]
  00024	33 c8		 xor	 ecx, eax
  00026	e8 00 00 00 00	 call	 @__security_check_cookie@4
  0002b	b8 00 00 00 00	 mov	 eax, OFFSET __ehfuncinfo$??0CMiniGameArithmetic@@QAE@PAVCMiniGameBase@@@Z
  00030	e9 00 00 00 00	 jmp	 ___CxxFrameHandler3
text$x	ENDS
??0CMiniGameArithmetic@@QAE@PAVCMiniGameBase@@@Z ENDP	; CMiniGameArithmetic::CMiniGameArithmetic
; Function compile flags: /Ogtp
; File C:\IAGOS\server\v18\Source\Source\WorldServer\MiniGameArithmetic.cpp
; File C:\Program Files\Microsoft Visual Studio\2022\Professional\VC\Tools\MSVC\14.44.35207\include\vector
; File C:\IAGOS\server\v18\Source\Source\WorldServer\MiniGameArithmetic.cpp
;	COMDAT ??0CMiniGameArithmetic@@QAE@XZ
_TEXT	SEGMENT
_this$ = -16						; size = 4
__$EHRec$ = -12						; size = 12
??0CMiniGameArithmetic@@QAE@XZ PROC			; CMiniGameArithmetic::CMiniGameArithmetic, COMDAT
; _this$ = ecx

; 7    : {

  00000	55		 push	 ebp
  00001	8b ec		 mov	 ebp, esp
  00003	6a ff		 push	 -1
  00005	68 00 00 00 00	 push	 __ehhandler$??0CMiniGameArithmetic@@QAE@XZ
  0000a	64 a1 00 00 00
	00		 mov	 eax, DWORD PTR fs:0
  00010	50		 push	 eax
  00011	51		 push	 ecx
  00012	56		 push	 esi
  00013	a1 00 00 00 00	 mov	 eax, DWORD PTR ___security_cookie
  00018	33 c5		 xor	 eax, ebp
  0001a	50		 push	 eax
  0001b	8d 45 f4	 lea	 eax, DWORD PTR __$EHRec$[ebp]
  0001e	64 a3 00 00 00
	00		 mov	 DWORD PTR fs:0, eax
  00024	8b f1		 mov	 esi, ecx
  00026	89 75 f0	 mov	 DWORD PTR _this$[ebp], esi
  00029	e8 00 00 00 00	 call	 ??0CMiniGameBase@@QAE@XZ ; CMiniGameBase::CMiniGameBase
  0002e	c7 06 00 00 00
	00		 mov	 DWORD PTR [esi], OFFSET ??_7CMiniGameArithmetic@@6B@
  00034	c7 45 fc 00 00
	00 00		 mov	 DWORD PTR __$EHRec$[ebp+8], 0
; File C:\Program Files\Microsoft Visual Studio\2022\Professional\VC\Tools\MSVC\14.44.35207\include\vector

; 400  :     _CONSTEXPR20 _Vector_val() noexcept : _Myfirst(), _Mylast(), _Myend() {}

  0003b	c7 46 0c 00 00
	00 00		 mov	 DWORD PTR [esi+12], 0
  00042	c7 46 10 00 00
	00 00		 mov	 DWORD PTR [esi+16], 0
  00049	c7 46 14 00 00
	00 00		 mov	 DWORD PTR [esi+20], 0
; File C:\IAGOS\server\v18\Source\Source\WorldServer\MiniGameArithmetic.cpp

; 8    : 	InitPrimeNumber();

  00050	8b ce		 mov	 ecx, esi
  00052	c6 45 fc 01	 mov	 BYTE PTR __$EHRec$[ebp+8], 1
  00056	e8 00 00 00 00	 call	 ?InitPrimeNumber@CMiniGameArithmetic@@AAEXXZ ; CMiniGameArithmetic::InitPrimeNumber

; 9    : }

  0005b	8b c6		 mov	 eax, esi
  0005d	8b 4d f4	 mov	 ecx, DWORD PTR __$EHRec$[ebp]
  00060	64 89 0d 00 00
	00 00		 mov	 DWORD PTR fs:0, ecx
  00067	59		 pop	 ecx
  00068	5e		 pop	 esi
  00069	8b e5		 mov	 esp, ebp
  0006b	5d		 pop	 ebp
  0006c	c3		 ret	 0
_TEXT	ENDS
;	COMDAT text$x
text$x	SEGMENT
__unwindfunclet$??0CMiniGameArithmetic@@QAE@XZ$0:
  00000	8b 4d f0	 mov	 ecx, DWORD PTR _this$[ebp]
  00003	e9 00 00 00 00	 jmp	 ??1CMiniGameBase@@UAE@XZ ; CMiniGameBase::~CMiniGameBase
__unwindfunclet$??0CMiniGameArithmetic@@QAE@XZ$1:
  00008	8b 4d f0	 mov	 ecx, DWORD PTR _this$[ebp]
  0000b	83 c1 0c	 add	 ecx, 12			; 0000000cH
  0000e	e9 00 00 00 00	 jmp	 ??1?$vector@HV?$allocator@H@std@@@std@@QAE@XZ ; std::vector<int,std::allocator<int> >::~vector<int,std::allocator<int> >
  00013	cc		 int	 3
  00014	cc		 int	 3
  00015	cc		 int	 3
  00016	cc		 int	 3
  00017	cc		 int	 3
__ehhandler$??0CMiniGameArithmetic@@QAE@XZ:
  00018	90		 npad	 1
  00019	90		 npad	 1
  0001a	8b 54 24 08	 mov	 edx, DWORD PTR [esp+8]
  0001e	8d 42 0c	 lea	 eax, DWORD PTR [edx+12]
  00021	8b 4a f4	 mov	 ecx, DWORD PTR [edx-12]
  00024	33 c8		 xor	 ecx, eax
  00026	e8 00 00 00 00	 call	 @__security_check_cookie@4
  0002b	b8 00 00 00 00	 mov	 eax, OFFSET __ehfuncinfo$??0CMiniGameArithmetic@@QAE@XZ
  00030	e9 00 00 00 00	 jmp	 ___CxxFrameHandler3
text$x	ENDS
??0CMiniGameArithmetic@@QAE@XZ ENDP			; CMiniGameArithmetic::CMiniGameArithmetic
; Function compile flags: /Ogtp
; File C:\IAGOS\server\v18\Source\Source\_Network\Misc\Include\ar.h
;	COMDAT ??$?6I@CAr@@QAEAAV0@ABI@Z
_TEXT	SEGMENT
_t$ = 8							; size = 4
??$?6I@CAr@@QAEAAV0@ABI@Z PROC				; CAr::operator<<<unsigned int>, COMDAT
; _this$ = ecx

; 255  : {

  00000	55		 push	 ebp
  00001	8b ec		 mov	 ebp, esp
  00003	56		 push	 esi

; 256  : 	CheckBuf(sizeof(T));

  00004	6a 04		 push	 4
  00006	8b f1		 mov	 esi, ecx
  00008	e8 00 00 00 00	 call	 ?CheckBuf@CAr@@QAEXI@Z	; CAr::CheckBuf

; 257  : 	*(UNALIGNED T*)m_lpBufCur = t;

  0000d	8b 56 08	 mov	 edx, DWORD PTR [esi+8]
  00010	8b 45 08	 mov	 eax, DWORD PTR _t$[ebp]
  00013	8b 00		 mov	 eax, DWORD PTR [eax]
  00015	89 02		 mov	 DWORD PTR [edx], eax

; 258  : 	m_lpBufCur += sizeof(T);
; 259  : 	return *this;

  00017	8b c6		 mov	 eax, esi
  00019	83 46 08 04	 add	 DWORD PTR [esi+8], 4
  0001d	5e		 pop	 esi

; 260  : }

  0001e	5d		 pop	 ebp
  0001f	c2 04 00	 ret	 4
??$?6I@CAr@@QAEAAV0@ABI@Z ENDP				; CAr::operator<<<unsigned int>
_TEXT	ENDS
; Function compile flags: /Ogtp
; File C:\Program Files\Microsoft Visual Studio\2022\Professional\VC\Tools\MSVC\14.44.35207\include\vector
;	COMDAT ??0__MINIGAME_EXT_PACKET@@QAE@ABU0@@Z
_TEXT	SEGMENT
_this$ = -4						; size = 4
___that$ = 8						; size = 4
??0__MINIGAME_EXT_PACKET@@QAE@ABU0@@Z PROC		; __MINIGAME_EXT_PACKET::__MINIGAME_EXT_PACKET, COMDAT
; _this$ = ecx
  00000	55		 push	 ebp
  00001	8b ec		 mov	 ebp, esp
  00003	51		 push	 ecx

; 400  :     _CONSTEXPR20 _Vector_val() noexcept : _Myfirst(), _Mylast(), _Myend() {}

  00004	56		 push	 esi
  00005	57		 push	 edi
  00006	8b f9		 mov	 edi, ecx
  00008	8b 4d 08	 mov	 ecx, DWORD PTR ___that$[ebp]
  0000b	89 7d fc	 mov	 DWORD PTR _this$[ebp], edi
  0000e	c7 07 00 00 00
	00		 mov	 DWORD PTR [edi], OFFSET ??_7__MINIGAME_PACKET@@6B@
  00014	66 8b 41 04	 mov	 ax, WORD PTR [ecx+4]
  00018	66 89 47 04	 mov	 WORD PTR [edi+4], ax
  0001c	8b 41 08	 mov	 eax, DWORD PTR [ecx+8]
  0001f	89 47 08	 mov	 DWORD PTR [edi+8], eax
  00022	8b 41 0c	 mov	 eax, DWORD PTR [ecx+12]
  00025	89 47 0c	 mov	 DWORD PTR [edi+12], eax
  00028	8b 41 10	 mov	 eax, DWORD PTR [ecx+16]

; 747  :         const auto& _Right_data = _Right._Mypair._Myval2;

  0002b	83 c1 14	 add	 ecx, 20			; 00000014H
  0002e	89 47 10	 mov	 DWORD PTR [edi+16], eax

; 749  :         _Construct_n(_Count, _Right_data._Myfirst, _Right_data._Mylast);

  00031	8d 41 04	 lea	 eax, DWORD PTR [ecx+4]
  00034	c7 07 00 00 00
	00		 mov	 DWORD PTR [edi], OFFSET ??_7__MINIGAME_EXT_PACKET@@6B@
  0003a	50		 push	 eax

; 400  :     _CONSTEXPR20 _Vector_val() noexcept : _Myfirst(), _Mylast(), _Myend() {}

  0003b	c7 47 14 00 00
	00 00		 mov	 DWORD PTR [edi+20], 0
  00042	c7 47 18 00 00
	00 00		 mov	 DWORD PTR [edi+24], 0
  00049	c7 47 1c 00 00
	00 00		 mov	 DWORD PTR [edi+28], 0

; 748  :         const auto _Count       = static_cast<size_type>(_Right_data._Mylast - _Right_data._Myfirst);

  00050	8b 10		 mov	 edx, DWORD PTR [eax]
  00052	b8 ab aa aa 2a	 mov	 eax, 715827883		; 2aaaaaabH
  00057	2b 11		 sub	 edx, DWORD PTR [ecx]
  00059	f7 ea		 imul	 edx

; 749  :         _Construct_n(_Count, _Right_data._Myfirst, _Right_data._Mylast);

  0005b	51		 push	 ecx
  0005c	c1 fa 02	 sar	 edx, 2
  0005f	8d 4f 14	 lea	 ecx, DWORD PTR [edi+20]
  00062	8b c2		 mov	 eax, edx
  00064	c1 e8 1f	 shr	 eax, 31			; 0000001fH
  00067	03 c2		 add	 eax, edx
  00069	50		 push	 eax
  0006a	e8 00 00 00 00	 call	 ??$_Construct_n@ABQAV?$basic_string@DU?$char_traits@D@std@@V?$allocator@D@2@@std@@ABQAV12@@?$vector@V?$basic_string@DU?$char_traits@D@std@@V?$allocator@D@2@@std@@V?$allocator@V?$basic_string@DU?$char_traits@D@std@@V?$allocator@D@2@@std@@@2@@std@@AAEXIABQAV?$basic_string@DU?$char_traits@D@std@@V?$allocator@D@2@@1@0@Z ; std::vector<std::basic_string<char,std::char_traits<char>,std::allocator<char> >,std::allocator<std::basic_string<char,std::char_traits<char>,std::allocator<char> > > >::_Construct_n<std::basic_string<char,std::char_traits<char>,std::allocator<char> > * const &,std::basic_string<char,std::char_traits<char>,std::allocator<char> > * const &>
  0006f	8b c7		 mov	 eax, edi
  00071	5f		 pop	 edi
  00072	5e		 pop	 esi
  00073	8b e5		 mov	 esp, ebp
  00075	5d		 pop	 ebp
  00076	c2 04 00	 ret	 4
??0__MINIGAME_EXT_PACKET@@QAE@ABU0@@Z ENDP		; __MINIGAME_EXT_PACKET::__MINIGAME_EXT_PACKET
_TEXT	ENDS
; Function compile flags: /Ogtp
; File C:\Program Files\Microsoft Visual Studio\2022\Professional\VC\Tools\MSVC\14.44.35207\include\vector
;	COMDAT ??1__MINIGAME_EXT_PACKET@@QAE@XZ
_TEXT	SEGMENT
??1__MINIGAME_EXT_PACKET@@QAE@XZ PROC			; __MINIGAME_EXT_PACKET::~__MINIGAME_EXT_PACKET, COMDAT
; _this$ = ecx
  00000	83 c1 14	 add	 ecx, 20			; 00000014H

; 830  :         _Tidy();

  00003	e9 00 00 00 00	 jmp	 ?_Tidy@?$vector@V?$basic_string@DU?$char_traits@D@std@@V?$allocator@D@2@@std@@V?$allocator@V?$basic_string@DU?$char_traits@D@std@@V?$allocator@D@2@@std@@@2@@std@@AAEXXZ ; std::vector<std::basic_string<char,std::char_traits<char>,std::allocator<char> >,std::allocator<std::basic_string<char,std::char_traits<char>,std::allocator<char> > > >::_Tidy
??1__MINIGAME_EXT_PACKET@@QAE@XZ ENDP			; __MINIGAME_EXT_PACKET::~__MINIGAME_EXT_PACKET
_TEXT	ENDS
; Function compile flags: /Ogtp
; File C:\IAGOS\server\v18\Source\Source\_Common\minigamebase.h
; File C:\IAGOS\server\v18\Source\Source\_Network\Misc\Include\ar.h
; File C:\IAGOS\server\v18\Source\Source\_Common\minigamebase.h
; File C:\IAGOS\server\v18\Source\Source\_Network\Misc\Include\ar.h
; File C:\IAGOS\server\v18\Source\Source\_Common\minigamebase.h
; File C:\IAGOS\server\v18\Source\Source\_Network\Misc\Include\ar.h
; File C:\IAGOS\server\v18\Source\Source\_Common\minigamebase.h
; File C:\Program Files\Microsoft Visual Studio\2022\Professional\VC\Tools\MSVC\14.44.35207\include\vector
; File C:\IAGOS\server\v18\Source\Source\_Common\minigamebase.h
; File C:\Program Files\Microsoft Visual Studio\2022\Professional\VC\Tools\MSVC\14.44.35207\include\vector
; File C:\IAGOS\server\v18\Source\Source\_Common\minigamebase.h
; File C:\Program Files\Microsoft Visual Studio\2022\Professional\VC\Tools\MSVC\14.44.35207\include\vector
; File C:\IAGOS\server\v18\Source\Source\_Common\minigamebase.h
; File C:\Program Files\Microsoft Visual Studio\2022\Professional\VC\Tools\MSVC\14.44.35207\include\vector
; File C:\IAGOS\server\v18\Source\Source\_Common\minigamebase.h
; File C:\Program Files\Microsoft Visual Studio\2022\Professional\VC\Tools\MSVC\14.44.35207\include\vector
; File C:\Program Files\Microsoft Visual Studio\2022\Professional\VC\Tools\MSVC\14.44.35207\include\xstring
; File C:\IAGOS\server\v18\Source\Source\_Common\minigamebase.h
; File C:\Program Files\Microsoft Visual Studio\2022\Professional\VC\Tools\MSVC\14.44.35207\include\vector
; File C:\IAGOS\server\v18\Source\Source\_Common\minigamebase.h
; File C:\Program Files\Microsoft Visual Studio\2022\Professional\VC\Tools\MSVC\14.44.35207\include\vector
; File C:\IAGOS\server\v18\Source\Source\_Common\minigamebase.h
; File C:\Program Files\Microsoft Visual Studio\2022\Professional\VC\Tools\MSVC\14.44.35207\include\vector
; File C:\IAGOS\server\v18\Source\Source\_Common\minigamebase.h
; File C:\Program Files\Microsoft Visual Studio\2022\Professional\VC\Tools\MSVC\14.44.35207\include\vector
; File C:\Program Files\Microsoft Visual Studio\2022\Professional\VC\Tools\MSVC\14.44.35207\include\xmemory
; File C:\Program Files\Microsoft Visual Studio\2022\Professional\VC\Tools\MSVC\14.44.35207\include\vector
; File C:\IAGOS\server\v18\Source\Source\_Common\minigamebase.h
; File C:\Program Files\Microsoft Visual Studio\2022\Professional\VC\Tools\MSVC\14.44.35207\include\xstring
; File C:\Program Files\Microsoft Visual Studio\2022\Professional\VC\Tools\MSVC\14.44.35207\include\__msvc_string_view.hpp
; File C:\Program Files\Microsoft Visual Studio\2022\Professional\VC\Tools\MSVC\14.44.35207\include\xstring
; File C:\Program Files\Microsoft Visual Studio\2022\Professional\VC\Tools\MSVC\14.44.35207\include\__msvc_string_view.hpp
; File C:\Program Files\Microsoft Visual Studio\2022\Professional\VC\Tools\MSVC\14.44.35207\include\xstring
; File C:\Program Files\Microsoft Visual Studio\2022\Professional\VC\Tools\MSVC\14.44.35207\include\__msvc_string_view.hpp
; File C:\Program Files\Microsoft Visual Studio\2022\Professional\VC\Tools\MSVC\14.44.35207\include\xstring
; File C:\Program Files\Microsoft Visual Studio\2022\Professional\VC\Tools\MSVC\14.44.35207\include\__msvc_string_view.hpp
; File C:\Program Files\Microsoft Visual Studio\2022\Professional\VC\Tools\MSVC\14.44.35207\include\xstring
; File C:\Program Files\Microsoft Visual Studio\2022\Professional\VC\Tools\MSVC\14.44.35207\include\__msvc_string_view.hpp
; File C:\Program Files\Microsoft Visual Studio\2022\Professional\VC\Tools\MSVC\14.44.35207\include\xstring
; File C:\Program Files\Microsoft Visual Studio\2022\Professional\VC\Tools\MSVC\14.44.35207\include\xmemory
; File C:\Program Files\Microsoft Visual Studio\2022\Professional\VC\Tools\MSVC\14.44.35207\include\xstring
; File C:\Program Files\Microsoft Visual Studio\2022\Professional\VC\Tools\MSVC\14.44.35207\include\xmemory
; File C:\Program Files\Microsoft Visual Studio\2022\Professional\VC\Tools\MSVC\14.44.35207\include\xstring
; File C:\Program Files\Microsoft Visual Studio\2022\Professional\VC\Tools\MSVC\14.44.35207\include\__msvc_string_view.hpp
; File C:\Program Files\Microsoft Visual Studio\2022\Professional\VC\Tools\MSVC\14.44.35207\include\xstring
; File C:\Program Files\Microsoft Visual Studio\2022\Professional\VC\Tools\MSVC\14.44.35207\include\__msvc_string_view.hpp
; File C:\Program Files\Microsoft Visual Studio\2022\Professional\VC\Tools\MSVC\14.44.35207\include\xstring
; File C:\Program Files\Microsoft Visual Studio\2022\Professional\VC\Tools\MSVC\14.44.35207\include\__msvc_string_view.hpp
; File C:\Program Files\Microsoft Visual Studio\2022\Professional\VC\Tools\MSVC\14.44.35207\include\xstring
; File C:\IAGOS\server\v18\Source\Source\_Common\minigamebase.h
; File C:\Program Files\Microsoft Visual Studio\2022\Professional\VC\Tools\MSVC\14.44.35207\include\vector
; File C:\IAGOS\server\v18\Source\Source\_Common\minigamebase.h
; File C:\Program Files\Microsoft Visual Studio\2022\Professional\VC\Tools\MSVC\14.44.35207\include\vector
; File C:\Program Files\Microsoft Visual Studio\2022\Professional\VC\Tools\MSVC\14.44.35207\include\xstring
; File C:\Program Files\Microsoft Visual Studio\2022\Professional\VC\Tools\MSVC\14.44.35207\include\vector
; File C:\IAGOS\server\v18\Source\Source\_Common\minigamebase.h
; File C:\Program Files\Microsoft Visual Studio\2022\Professional\VC\Tools\MSVC\14.44.35207\include\xstring
; File C:\Program Files\Microsoft Visual Studio\2022\Professional\VC\Tools\MSVC\14.44.35207\include\xmemory
; File C:\Program Files\Microsoft Visual Studio\2022\Professional\VC\Tools\MSVC\14.44.35207\include\xstring
; File C:\Program Files\Microsoft Visual Studio\2022\Professional\VC\Tools\MSVC\14.44.35207\include\xmemory
; File C:\IAGOS\server\v18\Source\Source\_Common\minigamebase.h
; File C:\Program Files\Microsoft Visual Studio\2022\Professional\VC\Tools\MSVC\14.44.35207\include\xstring
; File C:\Program Files\Microsoft Visual Studio\2022\Professional\VC\Tools\MSVC\14.44.35207\include\xmemory
; File C:\IAGOS\server\v18\Source\Source\_Common\minigamebase.h
;	COMDAT ?Serialize@__MINIGAME_EXT_PACKET@@UAEXAAVCAr@@@Z
_TEXT	SEGMENT
_this$1$ = -316						; size = 4
_ar$GSCopy$1$ = -312					; size = 4
_nSize$2 = -308						; size = 4
$T3 = -304						; size = 4
_i$1$ = -304						; size = 4
_i$1$ = -300						; size = 4
$T4 = -300						; size = 4
$T5 = -296						; size = 24
_szTemp$6 = -272					; size = 256
__$ArrayPad$ = -16					; size = 4
__$EHRec$ = -12						; size = 12
_ar$ = 8						; size = 4
?Serialize@__MINIGAME_EXT_PACKET@@UAEXAAVCAr@@@Z PROC	; __MINIGAME_EXT_PACKET::Serialize, COMDAT
; _this$ = ecx

; 30   : 	{

  00000	55		 push	 ebp
  00001	8b ec		 mov	 ebp, esp
  00003	6a ff		 push	 -1
  00005	68 00 00 00 00	 push	 __ehhandler$?Serialize@__MINIGAME_EXT_PACKET@@UAEXAAVCAr@@@Z
  0000a	64 a1 00 00 00
	00		 mov	 eax, DWORD PTR fs:0
  00010	50		 push	 eax
  00011	81 ec 30 01 00
	00		 sub	 esp, 304		; 00000130H
  00017	a1 00 00 00 00	 mov	 eax, DWORD PTR ___security_cookie
  0001c	33 c5		 xor	 eax, ebp
  0001e	89 45 f0	 mov	 DWORD PTR __$ArrayPad$[ebp], eax
  00021	56		 push	 esi
  00022	57		 push	 edi
  00023	50		 push	 eax
  00024	8d 45 f4	 lea	 eax, DWORD PTR __$EHRec$[ebp]
  00027	64 a3 00 00 00
	00		 mov	 DWORD PTR fs:0, eax
  0002d	8b f9		 mov	 edi, ecx
  0002f	8b 75 08	 mov	 esi, DWORD PTR _ar$[ebp]

; 17   : 		if( ar.IsStoring() )

  00032	8d 47 10	 lea	 eax, DWORD PTR [edi+16]
  00035	50		 push	 eax
; File C:\IAGOS\server\v18\Source\Source\_Network\Misc\Include\ar.h

; 146  : 	return (m_nMode & CAr::load) == 0;

  00036	8d 4f 0c	 lea	 ecx, DWORD PTR [edi+12]
; File C:\IAGOS\server\v18\Source\Source\_Common\minigamebase.h

; 30   : 	{

  00039	89 b5 c8 fe ff
	ff		 mov	 DWORD PTR _ar$GSCopy$1$[ebp], esi

; 17   : 		if( ar.IsStoring() )

  0003f	51		 push	 ecx
; File C:\IAGOS\server\v18\Source\Source\_Network\Misc\Include\ar.h

; 146  : 	return (m_nMode & CAr::load) == 0;

  00040	f6 06 01	 test	 BYTE PTR [esi], 1
  00043	8d 57 08	 lea	 edx, DWORD PTR [edi+8]
; File C:\IAGOS\server\v18\Source\Source\_Common\minigamebase.h

; 17   : 		if( ar.IsStoring() )

  00046	8d 47 04	 lea	 eax, DWORD PTR [edi+4]
  00049	8b ce		 mov	 ecx, esi
  0004b	52		 push	 edx
  0004c	50		 push	 eax
  0004d	75 1c		 jne	 SHORT $LN13@Serialize

; 18   : 			ar << wNowGame << nState << nParam1 << nParam2;

  0004f	e8 00 00 00 00	 call	 ??$?6G@CAr@@QAEAAV0@ABG@Z ; CAr::operator<<<unsigned short>
  00054	8b c8		 mov	 ecx, eax
  00056	e8 00 00 00 00	 call	 ??$?6H@CAr@@QAEAAV0@ABH@Z ; CAr::operator<<<int>
  0005b	8b c8		 mov	 ecx, eax
  0005d	e8 00 00 00 00	 call	 ??$?6H@CAr@@QAEAAV0@ABH@Z ; CAr::operator<<<int>
  00062	8b c8		 mov	 ecx, eax
  00064	e8 00 00 00 00	 call	 ??$?6H@CAr@@QAEAAV0@ABH@Z ; CAr::operator<<<int>
  00069	eb 1a		 jmp	 SHORT $LN14@Serialize
$LN13@Serialize:

; 19   : 		else
; 20   : 			ar >> wNowGame >> nState >> nParam1 >> nParam2;

  0006b	e8 00 00 00 00	 call	 ??$?5G@CAr@@QAEAAV0@AAG@Z ; CAr::operator>><unsigned short>
  00070	8b c8		 mov	 ecx, eax
  00072	e8 00 00 00 00	 call	 ??$?5H@CAr@@QAEAAV0@AAH@Z ; CAr::operator>><int>
  00077	8b c8		 mov	 ecx, eax
  00079	e8 00 00 00 00	 call	 ??$?5H@CAr@@QAEAAV0@AAH@Z ; CAr::operator>><int>
  0007e	8b c8		 mov	 ecx, eax
  00080	e8 00 00 00 00	 call	 ??$?5H@CAr@@QAEAAV0@AAH@Z ; CAr::operator>><int>
$LN14@Serialize:
; File C:\IAGOS\server\v18\Source\Source\_Network\Misc\Include\ar.h

; 146  : 	return (m_nMode & CAr::load) == 0;

  00085	83 c7 14	 add	 edi, 20			; 00000014H
  00088	f6 06 01	 test	 BYTE PTR [esi], 1
  0008b	89 bd c4 fe ff
	ff		 mov	 DWORD PTR _this$1$[ebp], edi
; File C:\IAGOS\server\v18\Source\Source\_Common\minigamebase.h

; 32   : 		if( ar.IsStoring() )

  00091	0f 85 a8 00 00
	00		 jne	 $LN8@Serialize
; File C:\Program Files\Microsoft Visual Studio\2022\Professional\VC\Tools\MSVC\14.44.35207\include\vector

; 1915 :         return static_cast<size_type>(_My_data._Mylast - _My_data._Myfirst);

  00097	8b 4f 04	 mov	 ecx, DWORD PTR [edi+4]
  0009a	b8 ab aa aa 2a	 mov	 eax, 715827883		; 2aaaaaabH
  0009f	2b 0f		 sub	 ecx, DWORD PTR [edi]
  000a1	f7 e9		 imul	 ecx
; File C:\IAGOS\server\v18\Source\Source\_Common\minigamebase.h

; 34   : 			ar << vecszData.size();

  000a3	8b ce		 mov	 ecx, esi
; File C:\Program Files\Microsoft Visual Studio\2022\Professional\VC\Tools\MSVC\14.44.35207\include\vector

; 1915 :         return static_cast<size_type>(_My_data._Mylast - _My_data._Myfirst);

  000a5	c1 fa 02	 sar	 edx, 2
  000a8	8b c2		 mov	 eax, edx
  000aa	c1 e8 1f	 shr	 eax, 31			; 0000001fH
  000ad	03 c2		 add	 eax, edx
; File C:\IAGOS\server\v18\Source\Source\_Common\minigamebase.h

; 34   : 			ar << vecszData.size();

  000af	89 85 d0 fe ff
	ff		 mov	 DWORD PTR $T3[ebp], eax
  000b5	8d 85 d0 fe ff
	ff		 lea	 eax, DWORD PTR $T3[ebp]
  000bb	50		 push	 eax
  000bc	e8 00 00 00 00	 call	 ??$?6I@CAr@@QAEAAV0@ABI@Z ; CAr::operator<<<unsigned int>

; 35   : 			for( DWORD i=0; i<vecszData.size(); i++ )

  000c1	33 c9		 xor	 ecx, ecx
; File C:\Program Files\Microsoft Visual Studio\2022\Professional\VC\Tools\MSVC\14.44.35207\include\vector

; 1915 :         return static_cast<size_type>(_My_data._Mylast - _My_data._Myfirst);

  000c3	b8 ab aa aa 2a	 mov	 eax, 715827883		; 2aaaaaabH
; File C:\IAGOS\server\v18\Source\Source\_Common\minigamebase.h

; 35   : 			for( DWORD i=0; i<vecszData.size(); i++ )

  000c8	89 8d d4 fe ff
	ff		 mov	 DWORD PTR _i$1$[ebp], ecx
; File C:\Program Files\Microsoft Visual Studio\2022\Professional\VC\Tools\MSVC\14.44.35207\include\vector

; 1915 :         return static_cast<size_type>(_My_data._Mylast - _My_data._Myfirst);

  000ce	8b 4f 04	 mov	 ecx, DWORD PTR [edi+4]
  000d1	2b 0f		 sub	 ecx, DWORD PTR [edi]
  000d3	f7 e9		 imul	 ecx
  000d5	c1 fa 02	 sar	 edx, 2
  000d8	8b c2		 mov	 eax, edx
  000da	c1 e8 1f	 shr	 eax, 31			; 0000001fH
  000dd	03 c2		 add	 eax, edx
; File C:\IAGOS\server\v18\Source\Source\_Common\minigamebase.h

; 35   : 			for( DWORD i=0; i<vecszData.size(); i++ )

  000df	74 41		 je	 SHORT $LN6@Serialize
; File C:\Program Files\Microsoft Visual Studio\2022\Professional\VC\Tools\MSVC\14.44.35207\include\vector

; 1914 :         auto& _My_data = _Mypair._Myval2;

  000e1	33 f6		 xor	 esi, esi
$LL4@Serialize:

; 1934 :         return _My_data._Myfirst[_Pos];

  000e3	8b 07		 mov	 eax, DWORD PTR [edi]
  000e5	03 c6		 add	 eax, esi
; File C:\Program Files\Microsoft Visual Studio\2022\Professional\VC\Tools\MSVC\14.44.35207\include\xstring

; 453  :         return _Myres > _Small_string_capacity;

  000e7	83 78 14 0f	 cmp	 DWORD PTR [eax+20], 15	; 0000000fH

; 445  :         if (_Large_mode_engaged()) {

  000eb	76 02		 jbe	 SHORT $LN33@Serialize

; 446  :             _Result = _Unfancy(_Bx._Ptr);

  000ed	8b 00		 mov	 eax, DWORD PTR [eax]
$LN33@Serialize:
; File C:\IAGOS\server\v18\Source\Source\_Common\minigamebase.h

; 36   : 				ar.WriteString( vecszData[i].c_str() );

  000ef	8b 8d c8 fe ff
	ff		 mov	 ecx, DWORD PTR _ar$GSCopy$1$[ebp]
  000f5	50		 push	 eax
  000f6	e8 00 00 00 00	 call	 ?WriteString@CAr@@QAEXPBD@Z ; CAr::WriteString
; File C:\Program Files\Microsoft Visual Studio\2022\Professional\VC\Tools\MSVC\14.44.35207\include\vector

; 1915 :         return static_cast<size_type>(_My_data._Mylast - _My_data._Myfirst);

  000fb	8b 4f 04	 mov	 ecx, DWORD PTR [edi+4]
  000fe	b8 ab aa aa 2a	 mov	 eax, 715827883		; 2aaaaaabH
  00103	2b 0f		 sub	 ecx, DWORD PTR [edi]
; File C:\IAGOS\server\v18\Source\Source\_Common\minigamebase.h

; 35   : 			for( DWORD i=0; i<vecszData.size(); i++ )

  00105	83 c6 18	 add	 esi, 24			; 00000018H
  00108	ff 85 d4 fe ff
	ff		 inc	 DWORD PTR _i$1$[ebp]
; File C:\Program Files\Microsoft Visual Studio\2022\Professional\VC\Tools\MSVC\14.44.35207\include\vector

; 1915 :         return static_cast<size_type>(_My_data._Mylast - _My_data._Myfirst);

  0010e	f7 e9		 imul	 ecx
  00110	c1 fa 02	 sar	 edx, 2
  00113	8b c2		 mov	 eax, edx
  00115	c1 e8 1f	 shr	 eax, 31			; 0000001fH
  00118	03 c2		 add	 eax, edx
; File C:\IAGOS\server\v18\Source\Source\_Common\minigamebase.h

; 35   : 			for( DWORD i=0; i<vecszData.size(); i++ )

  0011a	39 85 d4 fe ff
	ff		 cmp	 DWORD PTR _i$1$[ebp], eax
  00120	72 c1		 jb	 SHORT $LL4@Serialize
$LN6@Serialize:

; 49   : 	}

  00122	8b 4d f4	 mov	 ecx, DWORD PTR __$EHRec$[ebp]
  00125	64 89 0d 00 00
	00 00		 mov	 DWORD PTR fs:0, ecx
  0012c	59		 pop	 ecx
  0012d	5f		 pop	 edi
  0012e	5e		 pop	 esi
  0012f	8b 4d f0	 mov	 ecx, DWORD PTR __$ArrayPad$[ebp]
  00132	33 cd		 xor	 ecx, ebp
  00134	e8 00 00 00 00	 call	 @__security_check_cookie@4
  00139	8b e5		 mov	 esp, ebp
  0013b	5d		 pop	 ebp
  0013c	c2 04 00	 ret	 4
$LN8@Serialize:
; File C:\Program Files\Microsoft Visual Studio\2022\Professional\VC\Tools\MSVC\14.44.35207\include\vector

; 1812 :         if (_Myfirst == _Mylast) { // already empty, nothing to do

  0013f	8b 37		 mov	 esi, DWORD PTR [edi]
  00141	8b 47 04	 mov	 eax, DWORD PTR [edi+4]
; File C:\IAGOS\server\v18\Source\Source\_Common\minigamebase.h

; 40   : 			int nSize = 0; vecszData.clear();

  00144	c7 85 cc fe ff
	ff 00 00 00 00	 mov	 DWORD PTR _nSize$2[ebp], 0
; File C:\Program Files\Microsoft Visual Studio\2022\Professional\VC\Tools\MSVC\14.44.35207\include\vector

; 1812 :         if (_Myfirst == _Mylast) { // already empty, nothing to do

  0014e	3b f0		 cmp	 esi, eax
  00150	74 1b		 je	 SHORT $LN39@Serialize
  00152	8b f8		 mov	 edi, eax
$LL46@Serialize:
  00154	8b ce		 mov	 ecx, esi
  00156	e8 00 00 00 00	 call	 ??1?$basic_string@DU?$char_traits@D@std@@V?$allocator@D@2@@std@@QAE@XZ ; std::basic_string<char,std::char_traits<char>,std::allocator<char> >::~basic_string<char,std::char_traits<char>,std::allocator<char> >
; File C:\Program Files\Microsoft Visual Studio\2022\Professional\VC\Tools\MSVC\14.44.35207\include\xmemory

; 1102 :         for (; _First != _Last; ++_First) {

  0015b	83 c6 18	 add	 esi, 24			; 00000018H
  0015e	3b f7		 cmp	 esi, edi
  00160	75 f2		 jne	 SHORT $LL46@Serialize
; File C:\Program Files\Microsoft Visual Studio\2022\Professional\VC\Tools\MSVC\14.44.35207\include\vector

; 1822 :         _Mylast = _Myfirst;

  00162	8b bd c4 fe ff
	ff		 mov	 edi, DWORD PTR _this$1$[ebp]
  00168	8b 07		 mov	 eax, DWORD PTR [edi]
  0016a	89 47 04	 mov	 DWORD PTR [edi+4], eax
$LN39@Serialize:
; File C:\IAGOS\server\v18\Source\Source\_Common\minigamebase.h

; 41   : 			ar >> nSize;

  0016d	8b b5 c8 fe ff
	ff		 mov	 esi, DWORD PTR _ar$GSCopy$1$[ebp]
  00173	8d 85 cc fe ff
	ff		 lea	 eax, DWORD PTR _nSize$2[ebp]
  00179	50		 push	 eax
  0017a	8b ce		 mov	 ecx, esi
  0017c	e8 00 00 00 00	 call	 ??$?5H@CAr@@QAEAAV0@AAH@Z ; CAr::operator>><int>

; 42   : 			for( int i=0; i<nSize; i++ )

  00181	83 bd cc fe ff
	ff 00		 cmp	 DWORD PTR _nSize$2[ebp], 0
  00188	c7 85 d0 fe ff
	ff 00 00 00 00	 mov	 DWORD PTR _i$1$[ebp], 0
  00192	7e 8e		 jle	 SHORT $LN6@Serialize
  00194	0f 1f 40 00 0f
	1f 84 00 00 00
	00 00		 npad	 12
$LL7@Serialize:

; 43   : 			{
; 44   : 				char szTemp[256] = {0,};

  001a0	68 00 01 00 00	 push	 256			; 00000100H
  001a5	8d 85 f0 fe ff
	ff		 lea	 eax, DWORD PTR _szTemp$6[ebp]
  001ab	6a 00		 push	 0
  001ad	50		 push	 eax
  001ae	e8 00 00 00 00	 call	 _memset
  001b3	83 c4 0c	 add	 esp, 12			; 0000000cH

; 45   : 				ar.ReadString( szTemp, 256 );

  001b6	8d 85 f0 fe ff
	ff		 lea	 eax, DWORD PTR _szTemp$6[ebp]
  001bc	8b ce		 mov	 ecx, esi
  001be	68 00 01 00 00	 push	 256			; 00000100H
  001c3	50		 push	 eax
  001c4	e8 00 00 00 00	 call	 ?ReadString@CAr@@QAEPADPADH@Z ; CAr::ReadString
  001c9	0f 57 c0	 xorps	 xmm0, xmm0
; File C:\Program Files\Microsoft Visual Studio\2022\Professional\VC\Tools\MSVC\14.44.35207\include\xstring

; 517  :     size_type _Mysize = 0; // current length of string (size)

  001cc	c7 85 e8 fe ff
	ff 00 00 00 00	 mov	 DWORD PTR $T5[ebp+16], 0
; File C:\Program Files\Microsoft Visual Studio\2022\Professional\VC\Tools\MSVC\14.44.35207\include\__msvc_string_view.hpp

; 459  :         return _CSTD strlen(reinterpret_cast<const char*>(_First));

  001d6	8d b5 f0 fe ff
	ff		 lea	 esi, DWORD PTR _szTemp$6[ebp]
; File C:\Program Files\Microsoft Visual Studio\2022\Professional\VC\Tools\MSVC\14.44.35207\include\xstring

; 518  :     size_type _Myres  = 0; // current storage reserved for string (capacity)

  001dc	c7 85 ec fe ff
	ff 00 00 00 00	 mov	 DWORD PTR $T5[ebp+20], 0

; 493  :         _CONSTEXPR20 _Bxty() noexcept : _Buf() {} // user-provided, for fancy pointers

  001e6	0f 11 85 d8 fe
	ff ff		 movups	 XMMWORD PTR $T5[ebp], xmm0
; File C:\Program Files\Microsoft Visual Studio\2022\Professional\VC\Tools\MSVC\14.44.35207\include\__msvc_string_view.hpp

; 459  :         return _CSTD strlen(reinterpret_cast<const char*>(_First));

  001ed	8d 4e 01	 lea	 ecx, DWORD PTR [esi+1]
$LL191@Serialize:
  001f0	8a 06		 mov	 al, BYTE PTR [esi]
  001f2	46		 inc	 esi
  001f3	84 c0		 test	 al, al
  001f5	75 f9		 jne	 SHORT $LL191@Serialize
  001f7	2b f1		 sub	 esi, ecx
; File C:\Program Files\Microsoft Visual Studio\2022\Professional\VC\Tools\MSVC\14.44.35207\include\xstring

; 881  :         if (_Count > max_size()) {

  001f9	81 fe ff ff ff
	7f		 cmp	 esi, 2147483647		; 7fffffffH
  001ff	0f 87 5d 01 00
	00		 ja	 $LN178@Serialize

; 883  :         }
; 884  : 
; 885  :         auto& _Al       = _Getal();
; 886  :         auto&& _Alproxy = _GET_PROXY_ALLOCATOR(_Alty, _Al);
; 887  :         _Container_proxy_ptr<_Alty> _Proxy(_Alproxy, _My_data);
; 888  : 
; 889  :         if (_Count <= _Small_string_capacity) {

  00205	83 fe 0f	 cmp	 esi, 15			; 0000000fH
  00208	77 2e		 ja	 SHORT $LN75@Serialize
; File C:\Program Files\Microsoft Visual Studio\2022\Professional\VC\Tools\MSVC\14.44.35207\include\__msvc_string_view.hpp

; 121  :         _CSTD memcpy(_First1, _First2, _Count * sizeof(_Elem));

  0020a	56		 push	 esi
  0020b	8d 85 f0 fe ff
	ff		 lea	 eax, DWORD PTR _szTemp$6[ebp]
; File C:\Program Files\Microsoft Visual Studio\2022\Professional\VC\Tools\MSVC\14.44.35207\include\xstring

; 890  :             _My_data._Mysize = _Count;

  00211	89 b5 e8 fe ff
	ff		 mov	 DWORD PTR $T5[ebp+16], esi
; File C:\Program Files\Microsoft Visual Studio\2022\Professional\VC\Tools\MSVC\14.44.35207\include\__msvc_string_view.hpp

; 121  :         _CSTD memcpy(_First1, _First2, _Count * sizeof(_Elem));

  00217	50		 push	 eax
  00218	8d 85 d8 fe ff
	ff		 lea	 eax, DWORD PTR $T5[ebp]
; File C:\Program Files\Microsoft Visual Studio\2022\Professional\VC\Tools\MSVC\14.44.35207\include\xstring

; 891  :             _My_data._Myres  = _Small_string_capacity;

  0021e	c7 85 ec fe ff
	ff 0f 00 00 00	 mov	 DWORD PTR $T5[ebp+20], 15 ; 0000000fH
; File C:\Program Files\Microsoft Visual Studio\2022\Professional\VC\Tools\MSVC\14.44.35207\include\__msvc_string_view.hpp

