; Listing generated by Microsoft (R) Optimizing Compiler Version 19.44.35225.0 

	TITLE	C:\IAGOS\server\v18\Source\Output\WorldServer\Release\ModelMng.obj
	.686P
	.XMM
	include listing.inc
	.model	flat

INCLUDELIB LIBCMT
INCLUDELIB OLDNAMES

PUBLIC	?__empty_global_delete@@YAXPAX@Z		; __empty_global_delete
PUBLIC	?__empty_global_delete@@YAXPAXI@Z		; __empty_global_delete
PUBLIC	___local_stdio_printf_options
PUBLIC	?AtlThrowImpl@ATL@@YGXJ@Z			; ATL::AtlThrowImpl
PUBLIC	??1?$CSimpleStringT@D$0A@@ATL@@QAE@XZ		; ATL::CSimpleStringT<char,0>::~CSimpleStringT<char,0>
PUBLIC	?SetString@?$CSimpleStringT@D$0A@@ATL@@QAEXPBDH@Z ; ATL::CSimpleStringT<char,0>::SetString
PUBLIC	?ThrowMemoryException@?$CSimpleStringT@D$0A@@ATL@@KAXXZ ; ATL::CSimpleStringT<char,0>::ThrowMemoryException
PUBLIC	?Fork@?$CSimpleStringT@D$0A@@ATL@@AAEXH@Z	; ATL::CSimpleStringT<char,0>::Fork
PUBLIC	?PrepareWrite2@?$CSimpleStringT@D$0A@@ATL@@AAEXH@Z ; ATL::CSimpleStringT<char,0>::PrepareWrite2
PUBLIC	?Reallocate@?$CSimpleStringT@D$0A@@ATL@@AAEXH@Z	; ATL::CSimpleStringT<char,0>::Reallocate
PUBLIC	??1?$CStringT@DV?$StrTraitMFC@DV?$ChTraitsCRT@D@ATL@@@@@ATL@@QAE@XZ ; ATL::CStringT<char,StrTraitMFC<char,ATL::ChTraitsCRT<char> > >::~CStringT<char,StrTraitMFC<char,ATL::ChTraitsCRT<char> > >
PUBLIC	?Format@?$CStringT@DV?$StrTraitMFC@DV?$ChTraitsCRT@D@ATL@@@@@ATL@@QAAXPBDZZ ; ATL::CStringT<char,StrTraitMFC<char,ATL::ChTraitsCRT<char> > >::Format
PUBLIC	?FormatV@?$CStringT@DV?$StrTraitMFC@DV?$ChTraitsCRT@D@ATL@@@@@ATL@@QAEXPBDPAD@Z ; ATL::CStringT<char,StrTraitMFC<char,ATL::ChTraitsCRT<char> > >::FormatV
PUBLIC	?LoadStringA@?$CStringT@DV?$StrTraitMFC@DV?$ChTraitsCRT@D@ATL@@@@@ATL@@QAEHI@Z ; ATL::CStringT<char,StrTraitMFC<char,ATL::ChTraitsCRT<char> > >::LoadStringA
PUBLIC	??0exception@std@@QAE@ABV01@@Z			; std::exception::exception
PUBLIC	??1exception@std@@UAE@XZ			; std::exception::~exception
PUBLIC	?what@exception@std@@UBEPBDXZ			; std::exception::what
PUBLIC	??_Gexception@std@@UAEPAXI@Z			; std::exception::`scalar deleting destructor'
PUBLIC	??0bad_alloc@std@@QAE@ABV01@@Z			; std::bad_alloc::bad_alloc
PUBLIC	??_Gbad_alloc@std@@UAEPAXI@Z			; std::bad_alloc::`scalar deleting destructor'
PUBLIC	??0bad_array_new_length@std@@QAE@XZ		; std::bad_array_new_length::bad_array_new_length
PUBLIC	??1bad_array_new_length@std@@UAE@XZ		; std::bad_array_new_length::~bad_array_new_length
PUBLIC	??0bad_array_new_length@std@@QAE@ABV01@@Z	; std::bad_array_new_length::bad_array_new_length
PUBLIC	??_Gbad_array_new_length@std@@UAEPAXI@Z		; std::bad_array_new_length::`scalar deleting destructor'
PUBLIC	?_Throw_bad_array_new_length@std@@YAXXZ		; std::_Throw_bad_array_new_length
PUBLIC	?_Xlen_string@std@@YAXXZ			; std::_Xlen_string
PUBLIC	??0?$basic_string@DU?$char_traits@D@std@@V?$allocator@D@2@@std@@QAE@QBD@Z ; std::basic_string<char,std::char_traits<char>,std::allocator<char> >::basic_string<char,std::char_traits<char>,std::allocator<char> >
PUBLIC	??1?$basic_string@DU?$char_traits@D@std@@V?$allocator@D@2@@std@@QAE@XZ ; std::basic_string<char,std::char_traits<char>,std::allocator<char> >::~basic_string<char,std::char_traits<char>,std::allocator<char> >
PUBLIC	?_Throw_tree_length_error@std@@YAXXZ		; std::_Throw_tree_length_error
PUBLIC	??1CFileIO@@UAE@XZ				; CFileIO::~CFileIO
PUBLIC	?Flush@CFileIO@@UAEHXZ				; CFileIO::Flush
PUBLIC	?GetC@CFileIO@@UAEDXZ				; CFileIO::GetC
PUBLIC	?GetW@CFileIO@@UAEGXZ				; CFileIO::GetW
PUBLIC	?GetDW@CFileIO@@UAEKXZ				; CFileIO::GetDW
PUBLIC	?Tell@CFileIO@@UAEJXZ				; CFileIO::Tell
PUBLIC	?Seek@CFileIO@@UAEHJH@Z				; CFileIO::Seek
PUBLIC	?GetLength@CFileIO@@UAEJXZ			; CFileIO::GetLength
PUBLIC	?Read@CFileIO@@UAEIPAXII@Z			; CFileIO::Read
PUBLIC	??_GCFileIO@@UAEPAXI@Z				; CFileIO::`scalar deleting destructor'
PUBLIC	?_Insert_node@?$_Tree_val@U?$_Tree_simple_types@U?$pair@$$CBV?$basic_string@DU?$char_traits@D@std@@V?$allocator@D@2@@std@@PAX@std@@@std@@@std@@QAEPAU?$_Tree_node@U?$pair@$$CBV?$basic_string@DU?$char_traits@D@std@@V?$allocator@D@2@@std@@PAX@std@@PAX@2@U?$_Tree_id@PAU?$_Tree_node@U?$pair@$$CBV?$basic_string@DU?$char_traits@D@std@@V?$allocator@D@2@@std@@PAX@std@@PAX@std@@@2@QAU32@@Z ; std::_Tree_val<std::_Tree_simple_types<std::pair<std::basic_string<char,std::char_traits<char>,std::allocator<char> > const ,void *> > >::_Insert_node
PUBLIC	??1?$map@V?$basic_string@DU?$char_traits@D@std@@V?$allocator@D@2@@std@@PAXU?$less@V?$basic_string@DU?$char_traits@D@std@@V?$allocator@D@2@@std@@@2@V?$allocator@U?$pair@$$CBV?$basic_string@DU?$char_traits@D@std@@V?$allocator@D@2@@std@@PAX@std@@@2@@std@@QAE@XZ ; std::map<std::basic_string<char,std::char_traits<char>,std::allocator<char> >,void *,std::less<std::basic_string<char,std::char_traits<char>,std::allocator<char> > >,std::allocator<std::pair<std::basic_string<char,std::char_traits<char>,std::allocator<char> > const ,void *> > >::~map<std::basic_string<char,std::char_traits<char>,std::allocator<char> >,void *,std::less<std::basic_string<char,std::char_traits<char>,std::allocator<char> > >,std::allocator<std::pair<std::basic_string<char,std::char_traits<char>,std::allocator<char> > const ,void *> > >
PUBLIC	??0?$CFixedArray@UtagMODELELEM@@@@QAE@XZ	; CFixedArray<tagMODELELEM>::CFixedArray<tagMODELELEM>
PUBLIC	??1?$CFixedArray@UtagMODELELEM@@@@UAE@XZ	; CFixedArray<tagMODELELEM>::~CFixedArray<tagMODELELEM>
PUBLIC	?SetAtGrow@?$CFixedArray@UtagMODELELEM@@@@QAEXHPAUtagMODELELEM@@H@Z ; CFixedArray<tagMODELELEM>::SetAtGrow
PUBLIC	?Optimize@?$CFixedArray@UtagMODELELEM@@@@QAEXXZ	; CFixedArray<tagMODELELEM>::Optimize
PUBLIC	??_G?$CFixedArray@UtagMODELELEM@@@@UAEPAXI@Z	; CFixedArray<tagMODELELEM>::`scalar deleting destructor'
PUBLIC	??0CModelMng@@QAE@XZ				; CModelMng::CModelMng
PUBLIC	??1CModelMng@@QAE@XZ				; CModelMng::~CModelMng
PUBLIC	?Free@CModelMng@@QAEXXZ				; CModelMng::Free
PUBLIC	?GetModelElem@CModelMng@@QAEPAUtagMODELELEM@@KK@Z ; CModelMng::GetModelElem
PUBLIC	?MakeBoneName@CModelMng@@QAEXPADKK@Z		; CModelMng::MakeBoneName
PUBLIC	?MakeModelName@CModelMng@@QAEXPADKK@Z		; CModelMng::MakeModelName
PUBLIC	?MakeMotionName@CModelMng@@QAEXPADKKK@Z		; CModelMng::MakeMotionName
PUBLIC	?MakePartsName@CModelMng@@QAEXPADPBDKH@Z	; CModelMng::MakePartsName
PUBLIC	?LoadMotion@CModelMng@@QAEHPAVCModel@@KKK@Z	; CModelMng::LoadMotion
PUBLIC	?LoadModel@CModelMng@@QAEPAVCModel@@PAUIDirect3DDevice9@@HHH@Z ; CModelMng::LoadModel
PUBLIC	?LoadModel@CModelMng@@QAEPAVCModel@@PAUIDirect3DDevice9@@PADPAUtagMODELELEM@@HH@Z ; CModelMng::LoadModel
PUBLIC	?LoadScript@CModelMng@@QAEHPBD@Z		; CModelMng::LoadScript
PUBLIC	?InitDeviceObjects@CModelMng@@QAEJPAUIDirect3DDevice9@@@Z ; CModelMng::InitDeviceObjects
PUBLIC	?RestoreDeviceObjects@CModelMng@@QAEJPAUIDirect3DDevice9@@@Z ; CModelMng::RestoreDeviceObjects
PUBLIC	?InvalidateDeviceObjects@CModelMng@@QAEJXZ	; CModelMng::InvalidateDeviceObjects
PUBLIC	?DeleteDeviceObjects@CModelMng@@QAEJXZ		; CModelMng::DeleteDeviceObjects
PUBLIC	??$?MDU?$char_traits@D@std@@V?$allocator@D@1@@std@@YA_NABV?$basic_string@DU?$char_traits@D@std@@V?$allocator@D@2@@0@0@Z ; std::operator<<char,std::char_traits<char>,std::allocator<char> >
PUBLIC	??$_Allocate_manually_vector_aligned@U_Default_allocate_traits@std@@@std@@YAPAXI@Z ; std::_Allocate_manually_vector_aligned<std::_Default_allocate_traits>
PUBLIC	??1?$pair@$$CBV?$basic_string@DU?$char_traits@D@std@@V?$allocator@D@2@@std@@PAX@std@@QAE@XZ ; std::pair<std::basic_string<char,std::char_traits<char>,std::allocator<char> > const ,void *>::~pair<std::basic_string<char,std::char_traits<char>,std::allocator<char> > const ,void *>
PUBLIC	??$_Emplace@U?$pair@$$CBV?$basic_string@DU?$char_traits@D@std@@V?$allocator@D@2@@std@@PAX@std@@@?$_Tree@V?$_Tmap_traits@V?$basic_string@DU?$char_traits@D@std@@V?$allocator@D@2@@std@@PAXU?$less@V?$basic_string@DU?$char_traits@D@std@@V?$allocator@D@2@@std@@@2@V?$allocator@U?$pair@$$CBV?$basic_string@DU?$char_traits@D@std@@V?$allocator@D@2@@std@@PAX@std@@@2@$0A@@std@@@std@@IAE?AU?$pair@PAU?$_Tree_node@U?$pair@$$CBV?$basic_string@DU?$char_traits@D@std@@V?$allocator@D@2@@std@@PAX@std@@PAX@std@@_N@1@$$QAU?$pair@$$CBV?$basic_string@DU?$char_traits@D@std@@V?$allocator@D@2@@std@@PAX@1@@Z ; std::_Tree<std::_Tmap_traits<std::basic_string<char,std::char_traits<char>,std::allocator<char> >,void *,std::less<std::basic_string<char,std::char_traits<char>,std::allocator<char> > >,std::allocator<std::pair<std::basic_string<char,std::char_traits<char>,std::allocator<char> > const ,void *> >,0> >::_Emplace<std::pair<std::basic_string<char,std::char_traits<char>,std::allocator<char> > const ,void *> >
PUBLIC	??$_Erase_tree@V?$allocator@U?$_Tree_node@U?$pair@$$CBV?$basic_string@DU?$char_traits@D@std@@V?$allocator@D@2@@std@@PAX@std@@PAX@std@@@std@@@?$_Tree_val@U?$_Tree_simple_types@U?$pair@$$CBV?$basic_string@DU?$char_traits@D@std@@V?$allocator@D@2@@std@@PAX@std@@@std@@@std@@QAEXAAV?$allocator@U?$_Tree_node@U?$pair@$$CBV?$basic_string@DU?$char_traits@D@std@@V?$allocator@D@2@@std@@PAX@std@@PAX@std@@@1@PAU?$_Tree_node@U?$pair@$$CBV?$basic_string@DU?$char_traits@D@std@@V?$allocator@D@2@@std@@PAX@std@@PAX@1@@Z ; std::_Tree_val<std::_Tree_simple_types<std::pair<std::basic_string<char,std::char_traits<char>,std::allocator<char> > const ,void *> > >::_Erase_tree<std::allocator<std::_Tree_node<std::pair<std::basic_string<char,std::char_traits<char>,std::allocator<char> > const ,void *>,void *> > >
PUBLIC	??$_Find_lower_bound@V?$basic_string@DU?$char_traits@D@std@@V?$allocator@D@2@@std@@@?$_Tree@V?$_Tmap_traits@V?$basic_string@DU?$char_traits@D@std@@V?$allocator@D@2@@std@@PAXU?$less@V?$basic_string@DU?$char_traits@D@std@@V?$allocator@D@2@@std@@@2@V?$allocator@U?$pair@$$CBV?$basic_string@DU?$char_traits@D@std@@V?$allocator@D@2@@std@@PAX@std@@@2@$0A@@std@@@std@@IBE?AU?$_Tree_find_result@PAU?$_Tree_node@U?$pair@$$CBV?$basic_string@DU?$char_traits@D@std@@V?$allocator@D@2@@std@@PAX@std@@PAX@std@@@1@ABV?$basic_string@DU?$char_traits@D@std@@V?$allocator@D@2@@1@@Z ; std::_Tree<std::_Tmap_traits<std::basic_string<char,std::char_traits<char>,std::allocator<char> >,void *,std::less<std::basic_string<char,std::char_traits<char>,std::allocator<char> > >,std::allocator<std::pair<std::basic_string<char,std::char_traits<char>,std::allocator<char> > const ,void *> >,0> >::_Find_lower_bound<std::basic_string<char,std::char_traits<char>,std::allocator<char> > >
PUBLIC	??1?$_Alloc_construct_ptr@V?$allocator@U?$_Tree_node@U?$pair@$$CBV?$basic_string@DU?$char_traits@D@std@@V?$allocator@D@2@@std@@PAX@std@@PAX@std@@@std@@@std@@QAE@XZ ; std::_Alloc_construct_ptr<std::allocator<std::_Tree_node<std::pair<std::basic_string<char,std::char_traits<char>,std::allocator<char> > const ,void *>,void *> > >::~_Alloc_construct_ptr<std::allocator<std::_Tree_node<std::pair<std::basic_string<char,std::char_traits<char>,std::allocator<char> > const ,void *>,void *> > >
PUBLIC	??1?$_Tree_temp_node_alloc@V?$allocator@U?$_Tree_node@U?$pair@$$CBV?$basic_string@DU?$char_traits@D@std@@V?$allocator@D@2@@std@@PAX@std@@PAX@std@@@std@@@std@@QAE@XZ ; std::_Tree_temp_node_alloc<std::allocator<std::_Tree_node<std::pair<std::basic_string<char,std::char_traits<char>,std::allocator<char> > const ,void *>,void *> > >::~_Tree_temp_node_alloc<std::allocator<std::_Tree_node<std::pair<std::basic_string<char,std::char_traits<char>,std::allocator<char> > const ,void *>,void *> > >
PUBLIC	?_OptionsStorage@?1??__local_stdio_printf_options@@9@4_KA ; `__local_stdio_printf_options'::`2'::_OptionsStorage
PUBLIC	??_7exception@std@@6B@				; std::exception::`vftable'
PUBLIC	??_C@_0BC@EOODALEL@Unknown?5exception@		; `string'
PUBLIC	??_7bad_alloc@std@@6B@				; std::bad_alloc::`vftable'
PUBLIC	??_7bad_array_new_length@std@@6B@		; std::bad_array_new_length::`vftable'
PUBLIC	??_C@_0BF@KINCDENJ@bad?5array?5new?5length@	; `string'
PUBLIC	??_R0?AVexception@std@@@8			; std::exception `RTTI Type Descriptor'
PUBLIC	__CT??_R0?AVexception@std@@@8??0exception@std@@QAE@ABV01@@Z12
PUBLIC	__TI3?AVbad_array_new_length@std@@
PUBLIC	__CTA3?AVbad_array_new_length@std@@
PUBLIC	??_R0?AVbad_array_new_length@std@@@8		; std::bad_array_new_length `RTTI Type Descriptor'
PUBLIC	__CT??_R0?AVbad_array_new_length@std@@@8??0bad_array_new_length@std@@QAE@ABV01@@Z12
PUBLIC	??_R0?AVbad_alloc@std@@@8			; std::bad_alloc `RTTI Type Descriptor'
PUBLIC	__CT??_R0?AVbad_alloc@std@@@8??0bad_alloc@std@@QAE@ABV01@@Z12
PUBLIC	??_C@_0BA@JFNIOLAK@string?5too?5long@		; `string'
PUBLIC	??_C@_0BB@GCADKGJO@map?1set?5too?5long@		; `string'
PUBLIC	??_7CFileIO@@6B@				; CFileIO::`vftable'
PUBLIC	??_C@_0BP@BAMAMMFD@tagMODELELEM?5?3?5out?5of?5range?5?$CFd@ ; `string'
PUBLIC	??_7?$CFixedArray@UtagMODELELEM@@@@6B@		; CFixedArray<tagMODELELEM>::`vftable'
PUBLIC	??_C@_06OJLEAOEG@?$CFs?0?5?$CFd@		; `string'
PUBLIC	??_C@_0DB@ILBMOCBP@C?3?2IAGOS?2server?2v18?2Source?2Sour@ ; `string'
PUBLIC	??_R4exception@std@@6B@				; std::exception::`RTTI Complete Object Locator'
PUBLIC	??_R3exception@std@@8				; std::exception::`RTTI Class Hierarchy Descriptor'
PUBLIC	??_R2exception@std@@8				; std::exception::`RTTI Base Class Array'
PUBLIC	??_R1A@?0A@EA@exception@std@@8			; std::exception::`RTTI Base Class Descriptor at (0,-1,0,64)'
PUBLIC	??_R4bad_array_new_length@std@@6B@		; std::bad_array_new_length::`RTTI Complete Object Locator'
PUBLIC	??_R3bad_array_new_length@std@@8		; std::bad_array_new_length::`RTTI Class Hierarchy Descriptor'
PUBLIC	??_R2bad_array_new_length@std@@8		; std::bad_array_new_length::`RTTI Base Class Array'
PUBLIC	??_R1A@?0A@EA@bad_array_new_length@std@@8	; std::bad_array_new_length::`RTTI Base Class Descriptor at (0,-1,0,64)'
PUBLIC	??_R1A@?0A@EA@bad_alloc@std@@8			; std::bad_alloc::`RTTI Base Class Descriptor at (0,-1,0,64)'
PUBLIC	??_R3bad_alloc@std@@8				; std::bad_alloc::`RTTI Class Hierarchy Descriptor'
PUBLIC	??_R2bad_alloc@std@@8				; std::bad_alloc::`RTTI Base Class Array'
PUBLIC	??_R4bad_alloc@std@@6B@				; std::bad_alloc::`RTTI Complete Object Locator'
PUBLIC	??_R4CFileIO@@6B@				; CFileIO::`RTTI Complete Object Locator'
PUBLIC	??_R0?AVCFileIO@@@8				; CFileIO `RTTI Type Descriptor'
PUBLIC	??_R3CFileIO@@8					; CFileIO::`RTTI Class Hierarchy Descriptor'
PUBLIC	??_R2CFileIO@@8					; CFileIO::`RTTI Base Class Array'
PUBLIC	??_R1A@?0A@EA@CFileIO@@8			; CFileIO::`RTTI Base Class Descriptor at (0,-1,0,64)'
PUBLIC	??_R4?$CFixedArray@UtagMODELELEM@@@@6B@		; CFixedArray<tagMODELELEM>::`RTTI Complete Object Locator'
PUBLIC	??_R0?AV?$CFixedArray@UtagMODELELEM@@@@@8	; CFixedArray<tagMODELELEM> `RTTI Type Descriptor'
PUBLIC	??_R3?$CFixedArray@UtagMODELELEM@@@@8		; CFixedArray<tagMODELELEM>::`RTTI Class Hierarchy Descriptor'
PUBLIC	??_R2?$CFixedArray@UtagMODELELEM@@@@8		; CFixedArray<tagMODELELEM>::`RTTI Base Class Array'
PUBLIC	??_R1A@?0A@EA@?$CFixedArray@UtagMODELELEM@@@@8	; CFixedArray<tagMODELELEM>::`RTTI Base Class Descriptor at (0,-1,0,64)'
PUBLIC	??_C@_0DI@CBFCGHHI@GetModelElem?5?9?5out?5of?5range?3?5ty@ ; `string'
PUBLIC	??_C@_01IDAFKMJL@_@				; `string'
PUBLIC	??_C@_04DFHCEAIG@?4chr@				; `string'
PUBLIC	??_C@_0CF@IEMGBAHL@MakeModelName?5?3?5dwType?$DN?$CFd?5dwInd@ ; `string'
PUBLIC	??_C@_04DNFILLI@?4o3d@				; `string'
PUBLIC	??_C@_0DO@JEJMCLHM@MakeMotionName?5GetModelElem?5dwT@ ; `string'
PUBLIC	??_C@_04DCMADPCF@?4ani@				; `string'
PUBLIC	??_C@_0FG@DDBICCKE@CModelMng?3?3loadModel?5mdlObj?1mdl@ ; `string'
PUBLIC	??_C@_02JDPG@rb@				; `string'
PUBLIC	??_C@_06IJGEHPBH@Model?2@			; `string'
PUBLIC	??_C@_0DM@BAPJMBHK@CModelMng?3?3LoadScript?$CI?$CFd?$CJ?50?$MA?$LI?$LH?N@ ; `string'
PUBLIC	??_C@_0DC@IFOHODB@CModelMng?3?3LoadScript?$CI?$CFd?$CJ?5?$CFs?$LI?p?$LM@ ; `string'
PUBLIC	??_C@_0EJ@PFFBAJJD@CModelMng?3?3LoadScript?$CI?$CFd?$CJ?5?$CFs?A?$NP?$LK@ ; `string'
EXTRN	??_L@YGXPAXIIP6EX0@Z1@Z:PROC			; `eh vector constructor iterator'
EXTRN	??_M@YGXPAXIIP6EX0@Z@Z:PROC			; `eh vector destructor iterator'
EXTRN	??2@YAPAXI@Z:PROC				; operator new
EXTRN	??3@YAXPAXI@Z:PROC				; operator delete
EXTRN	??_U@YAPAXI@Z:PROC				; operator new[]
EXTRN	??_V@YAXPAX@Z:PROC				; operator delete[]
EXTRN	___report_rangecheckfailure:PROC
EXTRN	___std_terminate:PROC
EXTRN	__invalid_parameter_noinfo:PROC
EXTRN	__invoke_watson:PROC
EXTRN	__errno:PROC
EXTRN	_strchr:PROC
EXTRN	__imp__LoadResource@8:PROC
EXTRN	__imp__LockResource@4:PROC
EXTRN	__imp__SizeofResource@8:PROC
EXTRN	__imp__FindResourceW@12:PROC
EXTRN	__imp__WideCharToMultiByte@32:PROC
EXTRN	__mbschr:PROC
EXTRN	__mbsnbcpy:PROC
EXTRN	_getwc:PROC
EXTRN	_fflush:PROC
EXTRN	_fread:PROC
EXTRN	_fseek:PROC
EXTRN	_ftell:PROC
EXTRN	_getc:PROC
EXTRN	___stdio_common_vsprintf:PROC
EXTRN	___stdio_common_vsprintf_s:PROC
EXTRN	_fileno:PROC
EXTRN	?AfxThrowMemoryException@@YGXXZ:PROC		; AfxThrowMemoryException
EXTRN	?AfxThrowOleException@@YGXJ@Z:PROC		; AfxThrowOleException
EXTRN	?AfxFindStringResourceHandle@@YGPAUHINSTANCE__@@I@Z:PROC ; AfxFindStringResourceHandle
EXTRN	?AfxGetStringManager@@YGPAUIAtlStringMgr@ATL@@XZ:PROC ; AfxGetStringManager
EXTRN	?AfxMessageBox@@YGHPBDII@Z:PROC			; AfxMessageBox
EXTRN	___std_exception_copy:PROC
EXTRN	___std_exception_destroy:PROC
EXTRN	??_Eexception@std@@UAEPAXI@Z:PROC		; std::exception::`vector deleting destructor'
EXTRN	??_Ebad_alloc@std@@UAEPAXI@Z:PROC		; std::bad_alloc::`vector deleting destructor'
EXTRN	??_Ebad_array_new_length@std@@UAEPAXI@Z:PROC	; std::bad_array_new_length::`vector deleting destructor'
EXTRN	?_Xlength_error@std@@YAXPBD@Z:PROC		; std::_Xlength_error
EXTRN	__filelength:PROC
EXTRN	?Open@CFileIO@@UAEHPBDPAD@Z:PROC		; CFileIO::Open
EXTRN	?Close@CFileIO@@UAEHXZ:PROC			; CFileIO::Close
EXTRN	?Read@CFileIO@@UAEPAXXZ:PROC			; CFileIO::Read
EXTRN	??_ECFileIO@@UAEPAXI@Z:PROC			; CFileIO::`vector deleting destructor'
EXTRN	?MakePath@@YA?AV?$CStringT@DV?$StrTraitMFC@DV?$ChTraitsCRT@D@ATL@@@@@ATL@@PBD0@Z:PROC ; MakePath
EXTRN	?WriteLog@@YAXPBDZZ:PROC			; WriteLog
EXTRN	?GetNumber@CScanner@@QAEHH@Z:PROC		; CScanner::GetNumber
EXTRN	?GetFloat@CScanner@@QAEMH@Z:PROC		; CScanner::GetFloat
EXTRN	??0CScript@@QAE@H@Z:PROC			; CScript::CScript
EXTRN	??1CScript@@UAE@XZ:PROC				; CScript::~CScript
EXTRN	?SetMark@CScript@@UAEXXZ:PROC			; CScript::SetMark
EXTRN	?GoMark@CScript@@UAEXXZ:PROC			; CScript::GoMark
EXTRN	?GetLineNum@CScript@@UAEHPAD@Z:PROC		; CScript::GetLineNum
EXTRN	?Load@CScript@@QAEHPBDHH@Z:PROC			; CScript::Load
EXTRN	?GetToken@CScript@@UAEHH@Z:PROC			; CScript::GetToken
EXTRN	?Error@@YAPBDPBDZZ:PROC				; Error
EXTRN	??_E?$CFixedArray@UtagMODELELEM@@@@UAEPAXI@Z:PROC ; CFixedArray<tagMODELELEM>::`vector deleting destructor'
EXTRN	??0CModelObject@@QAE@XZ:PROC			; CModelObject::CModelObject
EXTRN	?LoadBone@CModelObject@@QAEHPBD@Z:PROC		; CModelObject::LoadBone
EXTRN	?LoadMotion@CModelObject@@QAEHPBD@Z:PROC	; CModelObject::LoadMotion
EXTRN	@__security_check_cookie@4:PROC
EXTRN	__CxxThrowException@8:PROC
EXTRN	___CxxFrameHandler3:PROC
EXTRN	_memcpy:PROC
EXTRN	_memmove:PROC
EXTRN	_memset:PROC
EXTRN	??_7type_info@@6B@:QWORD			; type_info::`vftable'
EXTRN	___security_cookie:DWORD
EXTRN	__fltused:DWORD
;	COMDAT ?_OptionsStorage@?1??__local_stdio_printf_options@@9@4_KA
_BSS	SEGMENT
?_OptionsStorage@?1??__local_stdio_printf_options@@9@4_KA DQ 01H DUP (?) ; `__local_stdio_printf_options'::`2'::_OptionsStorage
_BSS	ENDS
;	COMDAT ??_C@_0EJ@PFFBAJJD@CModelMng?3?3LoadScript?$CI?$CFd?$CJ?5?$CFs?A?$NP?$LK@
CONST	SEGMENT
??_C@_0EJ@PFFBAJJD@CModelMng?3?3LoadScript?$CI?$CFd?$CJ?5?$CFs?A?$NP?$LK@ DB 'C'
	DB	'ModelMng::LoadScript(%d) %s', 0c1H, 0dfH, 0baH, 0b9H, ' ', 0beH
	DB	0c6H, 0c0H, 0ccH, 0b5H, 0f0H, ' : type = %d, idx = %d, name = '
	DB	'%s', 00H					; `string'
CONST	ENDS
;	COMDAT ??_C@_0DC@IFOHODB@CModelMng?3?3LoadScript?$CI?$CFd?$CJ?5?$CFs?$LI?p?$LM@
CONST	SEGMENT
??_C@_0DC@IFOHODB@CModelMng?3?3LoadScript?$CI?$CFd?$CJ?5?$CFs?$LI?p?$LM@ DB 'C'
	DB	'ModelMng::LoadScript(%d) %s', 0b8H, 0f0H, 0bcH, 0c7H, ' ', 0c1H
	DB	0dfH, 0baH, 0b9H, ' ', 0beH, 0c6H, 0c0H, 0ccH, 0b5H, 0f0H, ' :'
	DB	' %s', 00H					; `string'
CONST	ENDS
;	COMDAT ??_C@_0DM@BAPJMBHK@CModelMng?3?3LoadScript?$CI?$CFd?$CJ?50?$MA?$LI?$LH?N@
CONST	SEGMENT
??_C@_0DM@BAPJMBHK@CModelMng?3?3LoadScript?$CI?$CFd?$CJ?50?$MA?$LI?$LH?N@ DB 'C'
	DB	'ModelMng::LoadScript(%d) 0', 0c0H, 0b8H, 0b7H, 0ceH, ' ', 0c1H
	DB	0f6H, 0c1H, 0a4H, 0b5H, 0c8H, ' ', 0b8H, 0f0H, 0bcH, 0c7H, ' ', 0beH
	DB	0c6H, 0c0H, 0ccH, 0b5H, 0f0H, ' : %s, %s', 00H ; `string'
CONST	ENDS
;	COMDAT ??_C@_06IJGEHPBH@Model?2@
CONST	SEGMENT
??_C@_06IJGEHPBH@Model?2@ DB 'Model\', 00H		; `string'
CONST	ENDS
;	COMDAT ??_C@_02JDPG@rb@
CONST	SEGMENT
??_C@_02JDPG@rb@ DB 'rb', 00H				; `string'
CONST	ENDS
;	COMDAT ??_C@_0FG@DDBICCKE@CModelMng?3?3loadModel?5mdlObj?1mdl@
CONST	SEGMENT
??_C@_0FG@DDBICCKE@CModelMng?3?3loadModel?5mdlObj?1mdl@ DB 'CModelMng::lo'
	DB	'adModel mdlObj/mdlDyna ', 0bfH, 0a1H, ' objtype=%d index=%d b'
	DB	'part=%d ', 0c0H, 0c7H, ' ', 0c1H, 0a4H, 0baH, 0b8H, 0b0H, 0a1H
	DB	' ', 0beH, 0f8H, 0b1H, 0baH, 0bfH, 0a9H, '.', 00H ; `string'
CONST	ENDS
;	COMDAT ??_C@_04DCMADPCF@?4ani@
CONST	SEGMENT
??_C@_04DCMADPCF@?4ani@ DB '.ani', 00H			; `string'
CONST	ENDS
;	COMDAT ??_C@_0DO@JEJMCLHM@MakeMotionName?5GetModelElem?5dwT@
CONST	SEGMENT
??_C@_0DO@JEJMCLHM@MakeMotionName?5GetModelElem?5dwT@ DB 'MakeMotionName '
	DB	'GetModelElem dwType:%d dwIndex:%d, dwMotion:%d', 00H ; `string'
CONST	ENDS
;	COMDAT ??_C@_04DNFILLI@?4o3d@
CONST	SEGMENT
??_C@_04DNFILLI@?4o3d@ DB '.o3d', 00H			; `string'
CONST	ENDS
;	COMDAT ??_C@_0CF@IEMGBAHL@MakeModelName?5?3?5dwType?$DN?$CFd?5dwInd@
CONST	SEGMENT
??_C@_0CF@IEMGBAHL@MakeModelName?5?3?5dwType?$DN?$CFd?5dwInd@ DB 'MakeMod'
	DB	'elName : dwType=%d dwIndex=%d', 00H		; `string'
CONST	ENDS
;	COMDAT ??_C@_04DFHCEAIG@?4chr@
CONST	SEGMENT
??_C@_04DFHCEAIG@?4chr@ DB '.chr', 00H			; `string'
CONST	ENDS
;	COMDAT ??_C@_01IDAFKMJL@_@
CONST	SEGMENT
??_C@_01IDAFKMJL@_@ DB '_', 00H				; `string'
CONST	ENDS
;	COMDAT ??_C@_0DI@CBFCGHHI@GetModelElem?5?9?5out?5of?5range?3?5ty@
CONST	SEGMENT
??_C@_0DI@CBFCGHHI@GetModelElem?5?9?5out?5of?5range?3?5ty@ DB 'GetModelEl'
	DB	'em - out of range: type=%d, size=%d, index=%d', 00H ; `string'
CONST	ENDS
_DATA	SEGMENT
?g_szRoot@@3PAY0CA@DA DB 'obj', 00H			; g_szRoot
	ORG $+28
	DB	'ani', 00H
	ORG $+28
	DB	'ctrl', 00H
	ORG $+27
	DB	'sfx', 00H
	ORG $+28
	DB	'item', 00H
	ORG $+27
	DB	'mvr', 00H
	ORG $+28
	DB	'region', 00H
	ORG $+25
	DB	'obj', 00H
	ORG $+28
	DB	'path', 00H
	ORG $+27
_DATA	ENDS
;	COMDAT ??_R1A@?0A@EA@?$CFixedArray@UtagMODELELEM@@@@8
rdata$r	SEGMENT
??_R1A@?0A@EA@?$CFixedArray@UtagMODELELEM@@@@8 DD FLAT:??_R0?AV?$CFixedArray@UtagMODELELEM@@@@@8 ; CFixedArray<tagMODELELEM>::`RTTI Base Class Descriptor at (0,-1,0,64)'
	DD	00H
	DD	00H
	DD	0ffffffffH
	DD	00H
	DD	040H
	DD	FLAT:??_R3?$CFixedArray@UtagMODELELEM@@@@8
rdata$r	ENDS
;	COMDAT ??_R2?$CFixedArray@UtagMODELELEM@@@@8
rdata$r	SEGMENT
??_R2?$CFixedArray@UtagMODELELEM@@@@8 DD FLAT:??_R1A@?0A@EA@?$CFixedArray@UtagMODELELEM@@@@8 ; CFixedArray<tagMODELELEM>::`RTTI Base Class Array'
rdata$r	ENDS
;	COMDAT ??_R3?$CFixedArray@UtagMODELELEM@@@@8
rdata$r	SEGMENT
??_R3?$CFixedArray@UtagMODELELEM@@@@8 DD 00H		; CFixedArray<tagMODELELEM>::`RTTI Class Hierarchy Descriptor'
	DD	00H
	DD	01H
	DD	FLAT:??_R2?$CFixedArray@UtagMODELELEM@@@@8
rdata$r	ENDS
;	COMDAT ??_R0?AV?$CFixedArray@UtagMODELELEM@@@@@8
data$rs	SEGMENT
??_R0?AV?$CFixedArray@UtagMODELELEM@@@@@8 DD FLAT:??_7type_info@@6B@ ; CFixedArray<tagMODELELEM> `RTTI Type Descriptor'
	DD	00H
	DB	'.?AV?$CFixedArray@UtagMODELELEM@@@@', 00H
data$rs	ENDS
;	COMDAT ??_R4?$CFixedArray@UtagMODELELEM@@@@6B@
rdata$r	SEGMENT
??_R4?$CFixedArray@UtagMODELELEM@@@@6B@ DD 00H		; CFixedArray<tagMODELELEM>::`RTTI Complete Object Locator'
	DD	00H
	DD	00H
	DD	FLAT:??_R0?AV?$CFixedArray@UtagMODELELEM@@@@@8
	DD	FLAT:??_R3?$CFixedArray@UtagMODELELEM@@@@8
rdata$r	ENDS
;	COMDAT ??_R1A@?0A@EA@CFileIO@@8
rdata$r	SEGMENT
??_R1A@?0A@EA@CFileIO@@8 DD FLAT:??_R0?AVCFileIO@@@8	; CFileIO::`RTTI Base Class Descriptor at (0,-1,0,64)'
	DD	00H
	DD	00H
	DD	0ffffffffH
	DD	00H
	DD	040H
	DD	FLAT:??_R3CFileIO@@8
rdata$r	ENDS
;	COMDAT ??_R2CFileIO@@8
rdata$r	SEGMENT
??_R2CFileIO@@8 DD FLAT:??_R1A@?0A@EA@CFileIO@@8	; CFileIO::`RTTI Base Class Array'
rdata$r	ENDS
;	COMDAT ??_R3CFileIO@@8
rdata$r	SEGMENT
??_R3CFileIO@@8 DD 00H					; CFileIO::`RTTI Class Hierarchy Descriptor'
	DD	00H
	DD	01H
	DD	FLAT:??_R2CFileIO@@8
rdata$r	ENDS
;	COMDAT ??_R0?AVCFileIO@@@8
data$rs	SEGMENT
??_R0?AVCFileIO@@@8 DD FLAT:??_7type_info@@6B@		; CFileIO `RTTI Type Descriptor'
	DD	00H
	DB	'.?AVCFileIO@@', 00H
data$rs	ENDS
;	COMDAT ??_R4CFileIO@@6B@
rdata$r	SEGMENT
??_R4CFileIO@@6B@ DD 00H				; CFileIO::`RTTI Complete Object Locator'
	DD	00H
	DD	00H
	DD	FLAT:??_R0?AVCFileIO@@@8
	DD	FLAT:??_R3CFileIO@@8
rdata$r	ENDS
;	COMDAT ??_R4bad_alloc@std@@6B@
rdata$r	SEGMENT
??_R4bad_alloc@std@@6B@ DD 00H				; std::bad_alloc::`RTTI Complete Object Locator'
	DD	00H
	DD	00H
	DD	FLAT:??_R0?AVbad_alloc@std@@@8
	DD	FLAT:??_R3bad_alloc@std@@8
rdata$r	ENDS
;	COMDAT ??_R2bad_alloc@std@@8
rdata$r	SEGMENT
??_R2bad_alloc@std@@8 DD FLAT:??_R1A@?0A@EA@bad_alloc@std@@8 ; std::bad_alloc::`RTTI Base Class Array'
	DD	FLAT:??_R1A@?0A@EA@exception@std@@8
rdata$r	ENDS
;	COMDAT ??_R3bad_alloc@std@@8
rdata$r	SEGMENT
??_R3bad_alloc@std@@8 DD 00H				; std::bad_alloc::`RTTI Class Hierarchy Descriptor'
	DD	00H
	DD	02H
	DD	FLAT:??_R2bad_alloc@std@@8
rdata$r	ENDS
;	COMDAT ??_R1A@?0A@EA@bad_alloc@std@@8
rdata$r	SEGMENT
??_R1A@?0A@EA@bad_alloc@std@@8 DD FLAT:??_R0?AVbad_alloc@std@@@8 ; std::bad_alloc::`RTTI Base Class Descriptor at (0,-1,0,64)'
	DD	01H
	DD	00H
	DD	0ffffffffH
	DD	00H
	DD	040H
	DD	FLAT:??_R3bad_alloc@std@@8
rdata$r	ENDS
;	COMDAT ??_R1A@?0A@EA@bad_array_new_length@std@@8
rdata$r	SEGMENT
??_R1A@?0A@EA@bad_array_new_length@std@@8 DD FLAT:??_R0?AVbad_array_new_length@std@@@8 ; std::bad_array_new_length::`RTTI Base Class Descriptor at (0,-1,0,64)'
	DD	02H
	DD	00H
	DD	0ffffffffH
	DD	00H
	DD	040H
	DD	FLAT:??_R3bad_array_new_length@std@@8
rdata$r	ENDS
;	COMDAT ??_R2bad_array_new_length@std@@8
rdata$r	SEGMENT
??_R2bad_array_new_length@std@@8 DD FLAT:??_R1A@?0A@EA@bad_array_new_length@std@@8 ; std::bad_array_new_length::`RTTI Base Class Array'
	DD	FLAT:??_R1A@?0A@EA@bad_alloc@std@@8
	DD	FLAT:??_R1A@?0A@EA@exception@std@@8
rdata$r	ENDS
;	COMDAT ??_R3bad_array_new_length@std@@8
rdata$r	SEGMENT
??_R3bad_array_new_length@std@@8 DD 00H			; std::bad_array_new_length::`RTTI Class Hierarchy Descriptor'
	DD	00H
	DD	03H
	DD	FLAT:??_R2bad_array_new_length@std@@8
rdata$r	ENDS
;	COMDAT ??_R4bad_array_new_length@std@@6B@
rdata$r	SEGMENT
??_R4bad_array_new_length@std@@6B@ DD 00H		; std::bad_array_new_length::`RTTI Complete Object Locator'
	DD	00H
	DD	00H
	DD	FLAT:??_R0?AVbad_array_new_length@std@@@8
	DD	FLAT:??_R3bad_array_new_length@std@@8
rdata$r	ENDS
;	COMDAT ??_R1A@?0A@EA@exception@std@@8
rdata$r	SEGMENT
??_R1A@?0A@EA@exception@std@@8 DD FLAT:??_R0?AVexception@std@@@8 ; std::exception::`RTTI Base Class Descriptor at (0,-1,0,64)'
	DD	00H
	DD	00H
	DD	0ffffffffH
	DD	00H
	DD	040H
	DD	FLAT:??_R3exception@std@@8
rdata$r	ENDS
;	COMDAT ??_R2exception@std@@8
rdata$r	SEGMENT
??_R2exception@std@@8 DD FLAT:??_R1A@?0A@EA@exception@std@@8 ; std::exception::`RTTI Base Class Array'
rdata$r	ENDS
;	COMDAT ??_R3exception@std@@8
rdata$r	SEGMENT
??_R3exception@std@@8 DD 00H				; std::exception::`RTTI Class Hierarchy Descriptor'
	DD	00H
	DD	01H
	DD	FLAT:??_R2exception@std@@8
rdata$r	ENDS
;	COMDAT ??_R4exception@std@@6B@
rdata$r	SEGMENT
??_R4exception@std@@6B@ DD 00H				; std::exception::`RTTI Complete Object Locator'
	DD	00H
	DD	00H
	DD	FLAT:??_R0?AVexception@std@@@8
	DD	FLAT:??_R3exception@std@@8
rdata$r	ENDS
;	COMDAT ??_C@_0DB@ILBMOCBP@C?3?2IAGOS?2server?2v18?2Source?2Sour@
CONST	SEGMENT
??_C@_0DB@ILBMOCBP@C?3?2IAGOS?2server?2v18?2Source?2Sour@ DB 'C:\IAGOS\se'
	DB	'rver\v18\Source\Source\_Common\data.h', 00H	; `string'
CONST	ENDS
;	COMDAT ??_C@_06OJLEAOEG@?$CFs?0?5?$CFd@
CONST	SEGMENT
??_C@_06OJLEAOEG@?$CFs?0?5?$CFd@ DB '%s, %d', 00H	; `string'
CONST	ENDS
;	COMDAT ??_7?$CFixedArray@UtagMODELELEM@@@@6B@
CONST	SEGMENT
??_7?$CFixedArray@UtagMODELELEM@@@@6B@ DD FLAT:??_R4?$CFixedArray@UtagMODELELEM@@@@6B@ ; CFixedArray<tagMODELELEM>::`vftable'
	DD	FLAT:??_E?$CFixedArray@UtagMODELELEM@@@@UAEPAXI@Z
CONST	ENDS
;	COMDAT ??_C@_0BP@BAMAMMFD@tagMODELELEM?5?3?5out?5of?5range?5?$CFd@
CONST	SEGMENT
??_C@_0BP@BAMAMMFD@tagMODELELEM?5?3?5out?5of?5range?5?$CFd@ DB 'tagMODELE'
	DB	'LEM : out of range %d', 00H			; `string'
CONST	ENDS
;	COMDAT ??_7CFileIO@@6B@
CONST	SEGMENT
??_7CFileIO@@6B@ DD FLAT:??_R4CFileIO@@6B@		; CFileIO::`vftable'
	DD	FLAT:??_ECFileIO@@UAEPAXI@Z
	DD	FLAT:?Open@CFileIO@@UAEHPBDPAD@Z
	DD	FLAT:?Close@CFileIO@@UAEHXZ
	DD	FLAT:?Flush@CFileIO@@UAEHXZ
	DD	FLAT:?GetC@CFileIO@@UAEDXZ
	DD	FLAT:?GetW@CFileIO@@UAEGXZ
	DD	FLAT:?GetDW@CFileIO@@UAEKXZ
	DD	FLAT:?Tell@CFileIO@@UAEJXZ
	DD	FLAT:?Seek@CFileIO@@UAEHJH@Z
	DD	FLAT:?GetLength@CFileIO@@UAEJXZ
	DD	FLAT:?Read@CFileIO@@UAEPAXXZ
	DD	FLAT:?Read@CFileIO@@UAEIPAXII@Z
CONST	ENDS
;	COMDAT ??_C@_0BB@GCADKGJO@map?1set?5too?5long@
CONST	SEGMENT
??_C@_0BB@GCADKGJO@map?1set?5too?5long@ DB 'map/set too long', 00H ; `string'
CONST	ENDS
;	COMDAT ??_C@_0BA@JFNIOLAK@string?5too?5long@
CONST	SEGMENT
??_C@_0BA@JFNIOLAK@string?5too?5long@ DB 'string too long', 00H ; `string'
CONST	ENDS
;	COMDAT __CT??_R0?AVbad_alloc@std@@@8??0bad_alloc@std@@QAE@ABV01@@Z12
xdata$x	SEGMENT
__CT??_R0?AVbad_alloc@std@@@8??0bad_alloc@std@@QAE@ABV01@@Z12 DD 010H
	DD	FLAT:??_R0?AVbad_alloc@std@@@8
	DD	00H
	DD	0ffffffffH
	ORG $+4
	DD	0cH
	DD	FLAT:??0bad_alloc@std@@QAE@ABV01@@Z
xdata$x	ENDS
;	COMDAT ??_R0?AVbad_alloc@std@@@8
data$r	SEGMENT
??_R0?AVbad_alloc@std@@@8 DD FLAT:??_7type_info@@6B@	; std::bad_alloc `RTTI Type Descriptor'
	DD	00H
	DB	'.?AVbad_alloc@std@@', 00H
data$r	ENDS
;	COMDAT __CT??_R0?AVbad_array_new_length@std@@@8??0bad_array_new_length@std@@QAE@ABV01@@Z12
xdata$x	SEGMENT
__CT??_R0?AVbad_array_new_length@std@@@8??0bad_array_new_length@std@@QAE@ABV01@@Z12 DD 00H
	DD	FLAT:??_R0?AVbad_array_new_length@std@@@8
	DD	00H
	DD	0ffffffffH
	ORG $+4
	DD	0cH
	DD	FLAT:??0bad_array_new_length@std@@QAE@ABV01@@Z
xdata$x	ENDS
;	COMDAT ??_R0?AVbad_array_new_length@std@@@8
data$r	SEGMENT
??_R0?AVbad_array_new_length@std@@@8 DD FLAT:??_7type_info@@6B@ ; std::bad_array_new_length `RTTI Type Descriptor'
	DD	00H
	DB	'.?AVbad_array_new_length@std@@', 00H
data$r	ENDS
;	COMDAT __CTA3?AVbad_array_new_length@std@@
xdata$x	SEGMENT
__CTA3?AVbad_array_new_length@std@@ DD 03H
	DD	FLAT:__CT??_R0?AVbad_array_new_length@std@@@8??0bad_array_new_length@std@@QAE@ABV01@@Z12
	DD	FLAT:__CT??_R0?AVbad_alloc@std@@@8??0bad_alloc@std@@QAE@ABV01@@Z12
	DD	FLAT:__CT??_R0?AVexception@std@@@8??0exception@std@@QAE@ABV01@@Z12
xdata$x	ENDS
;	COMDAT __TI3?AVbad_array_new_length@std@@
xdata$x	SEGMENT
__TI3?AVbad_array_new_length@std@@ DD 00H
	DD	FLAT:??1bad_array_new_length@std@@UAE@XZ
	DD	00H
	DD	FLAT:__CTA3?AVbad_array_new_length@std@@
xdata$x	ENDS
;	COMDAT __CT??_R0?AVexception@std@@@8??0exception@std@@QAE@ABV01@@Z12
xdata$x	SEGMENT
__CT??_R0?AVexception@std@@@8??0exception@std@@QAE@ABV01@@Z12 DD 00H
	DD	FLAT:??_R0?AVexception@std@@@8
	DD	00H
	DD	0ffffffffH
	ORG $+4
	DD	0cH
	DD	FLAT:??0exception@std@@QAE@ABV01@@Z
xdata$x	ENDS
;	COMDAT ??_R0?AVexception@std@@@8
data$r	SEGMENT
??_R0?AVexception@std@@@8 DD FLAT:??_7type_info@@6B@	; std::exception `RTTI Type Descriptor'
	DD	00H
	DB	'.?AVexception@std@@', 00H
data$r	ENDS
;	COMDAT ??_C@_0BF@KINCDENJ@bad?5array?5new?5length@
CONST	SEGMENT
??_C@_0BF@KINCDENJ@bad?5array?5new?5length@ DB 'bad array new length', 00H ; `string'
CONST	ENDS
;	COMDAT ??_7bad_array_new_length@std@@6B@
CONST	SEGMENT
??_7bad_array_new_length@std@@6B@ DD FLAT:??_R4bad_array_new_length@std@@6B@ ; std::bad_array_new_length::`vftable'
	DD	FLAT:??_Ebad_array_new_length@std@@UAEPAXI@Z
	DD	FLAT:?what@exception@std@@UBEPBDXZ
CONST	ENDS
;	COMDAT ??_7bad_alloc@std@@6B@
CONST	SEGMENT
??_7bad_alloc@std@@6B@ DD FLAT:??_R4bad_alloc@std@@6B@	; std::bad_alloc::`vftable'
	DD	FLAT:??_Ebad_alloc@std@@UAEPAXI@Z
	DD	FLAT:?what@exception@std@@UBEPBDXZ
CONST	ENDS
;	COMDAT ??_C@_0BC@EOODALEL@Unknown?5exception@
CONST	SEGMENT
??_C@_0BC@EOODALEL@Unknown?5exception@ DB 'Unknown exception', 00H ; `string'
CONST	ENDS
;	COMDAT ??_7exception@std@@6B@
CONST	SEGMENT
??_7exception@std@@6B@ DD FLAT:??_R4exception@std@@6B@	; std::exception::`vftable'
	DD	FLAT:??_Eexception@std@@UAEPAXI@Z
	DD	FLAT:?what@exception@std@@UBEPBDXZ
CONST	ENDS
;	COMDAT xdata$x
xdata$x	SEGMENT
__unwindtable$??$?0U?$pair@$$CBV?$basic_string@DU?$char_traits@D@std@@V?$allocator@D@2@@std@@PAX@std@@@?$_Tree_temp_node@V?$allocator@U?$_Tree_node@U?$pair@$$CBV?$basic_string@DU?$char_traits@D@std@@V?$allocator@D@2@@std@@PAX@std@@PAX@std@@@std@@@std@@QAE@AAV?$allocator@U?$_Tree_node@U?$pair@$$CBV?$basic_string@DU?$char_traits@D@std@@V?$allocator@D@2@@std@@PAX@std@@PAX@std@@@1@PAU?$_Tree_node@U?$pair@$$CBV?$basic_string@DU?$char_traits@D@std@@V?$allocator@D@2@@std@@PAX@std@@PAX@1@$$QAU?$pair@$$CBV?$basic_string@DU?$char_traits@D@std@@V?$allocator@D@2@@std@@PAX@1@@Z DD 0ffffffffH
	DD	FLAT:__unwindfunclet$??$?0U?$pair@$$CBV?$basic_string@DU?$char_traits@D@std@@V?$allocator@D@2@@std@@PAX@std@@@?$_Tree_temp_node@V?$allocator@U?$_Tree_node@U?$pair@$$CBV?$basic_string@DU?$char_traits@D@std@@V?$allocator@D@2@@std@@PAX@std@@PAX@std@@@std@@@std@@QAE@AAV?$allocator@U?$_Tree_node@U?$pair@$$CBV?$basic_string@DU?$char_traits@D@std@@V?$allocator@D@2@@std@@PAX@std@@PAX@std@@@1@PAU?$_Tree_node@U?$pair@$$CBV?$basic_string@DU?$char_traits@D@std@@V?$allocator@D@2@@std@@PAX@std@@PAX@1@$$QAU?$pair@$$CBV?$basic_string@DU?$char_traits@D@std@@V?$allocator@D@2@@std@@PAX@1@@Z$1
	DD	0ffffffffH
	DD	FLAT:__unwindfunclet$??$?0U?$pair@$$CBV?$basic_string@DU?$char_traits@D@std@@V?$allocator@D@2@@std@@PAX@std@@@?$_Tree_temp_node@V?$allocator@U?$_Tree_node@U?$pair@$$CBV?$basic_string@DU?$char_traits@D@std@@V?$allocator@D@2@@std@@PAX@std@@PAX@std@@@std@@@std@@QAE@AAV?$allocator@U?$_Tree_node@U?$pair@$$CBV?$basic_string@DU?$char_traits@D@std@@V?$allocator@D@2@@std@@PAX@std@@PAX@std@@@1@PAU?$_Tree_node@U?$pair@$$CBV?$basic_string@DU?$char_traits@D@std@@V?$allocator@D@2@@std@@PAX@std@@PAX@1@$$QAU?$pair@$$CBV?$basic_string@DU?$char_traits@D@std@@V?$allocator@D@2@@std@@PAX@1@@Z$0
__ehfuncinfo$??$?0U?$pair@$$CBV?$basic_string@DU?$char_traits@D@std@@V?$allocator@D@2@@std@@PAX@std@@@?$_Tree_temp_node@V?$allocator@U?$_Tree_node@U?$pair@$$CBV?$basic_string@DU?$char_traits@D@std@@V?$allocator@D@2@@std@@PAX@std@@PAX@std@@@std@@@std@@QAE@AAV?$allocator@U?$_Tree_node@U?$pair@$$CBV?$basic_string@DU?$char_traits@D@std@@V?$allocator@D@2@@std@@PAX@std@@PAX@std@@@1@PAU?$_Tree_node@U?$pair@$$CBV?$basic_string@DU?$char_traits@D@std@@V?$allocator@D@2@@std@@PAX@std@@PAX@1@$$QAU?$pair@$$CBV?$basic_string@DU?$char_traits@D@std@@V?$allocator@D@2@@std@@PAX@1@@Z DD 019930522H
	DD	02H
	DD	FLAT:__unwindtable$??$?0U?$pair@$$CBV?$basic_string@DU?$char_traits@D@std@@V?$allocator@D@2@@std@@PAX@std@@@?$_Tree_temp_node@V?$allocator@U?$_Tree_node@U?$pair@$$CBV?$basic_string@DU?$char_traits@D@std@@V?$allocator@D@2@@std@@PAX@std@@PAX@std@@@std@@@std@@QAE@AAV?$allocator@U?$_Tree_node@U?$pair@$$CBV?$basic_string@DU?$char_traits@D@std@@V?$allocator@D@2@@std@@PAX@std@@PAX@std@@@1@PAU?$_Tree_node@U?$pair@$$CBV?$basic_string@DU?$char_traits@D@std@@V?$allocator@D@2@@std@@PAX@std@@PAX@1@$$QAU?$pair@$$CBV?$basic_string@DU?$char_traits@D@std@@V?$allocator@D@2@@std@@PAX@1@@Z
	DD	2 DUP(00H)
	DD	2 DUP(00H)
	DD	00H
	DD	01H
xdata$x	ENDS
;	COMDAT xdata$x
xdata$x	SEGMENT
__unwindtable$??0?$_Tree_temp_node_alloc@V?$allocator@U?$_Tree_node@U?$pair@$$CBV?$basic_string@DU?$char_traits@D@std@@V?$allocator@D@2@@std@@PAX@std@@PAX@std@@@std@@@std@@QAE@AAV?$allocator@U?$_Tree_node@U?$pair@$$CBV?$basic_string@DU?$char_traits@D@std@@V?$allocator@D@2@@std@@PAX@std@@PAX@std@@@1@@Z DD 0ffffffffH
	DD	FLAT:__unwindfunclet$??0?$_Tree_temp_node_alloc@V?$allocator@U?$_Tree_node@U?$pair@$$CBV?$basic_string@DU?$char_traits@D@std@@V?$allocator@D@2@@std@@PAX@std@@PAX@std@@@std@@@std@@QAE@AAV?$allocator@U?$_Tree_node@U?$pair@$$CBV?$basic_string@DU?$char_traits@D@std@@V?$allocator@D@2@@std@@PAX@std@@PAX@std@@@1@@Z$0
__ehfuncinfo$??0?$_Tree_temp_node_alloc@V?$allocator@U?$_Tree_node@U?$pair@$$CBV?$basic_string@DU?$char_traits@D@std@@V?$allocator@D@2@@std@@PAX@std@@PAX@std@@@std@@@std@@QAE@AAV?$allocator@U?$_Tree_node@U?$pair@$$CBV?$basic_string@DU?$char_traits@D@std@@V?$allocator@D@2@@std@@PAX@std@@PAX@std@@@1@@Z DD 019930522H
	DD	01H
	DD	FLAT:__unwindtable$??0?$_Tree_temp_node_alloc@V?$allocator@U?$_Tree_node@U?$pair@$$CBV?$basic_string@DU?$char_traits@D@std@@V?$allocator@D@2@@std@@PAX@std@@PAX@std@@@std@@@std@@QAE@AAV?$allocator@U?$_Tree_node@U?$pair@$$CBV?$basic_string@DU?$char_traits@D@std@@V?$allocator@D@2@@std@@PAX@std@@PAX@std@@@1@@Z
	DD	2 DUP(00H)
	DD	2 DUP(00H)
	DD	00H
	DD	01H
xdata$x	ENDS
;	COMDAT xdata$x
xdata$x	SEGMENT
__unwindtable$??$_Emplace@U?$pair@$$CBV?$basic_string@DU?$char_traits@D@std@@V?$allocator@D@2@@std@@PAX@std@@@?$_Tree@V?$_Tmap_traits@V?$basic_string@DU?$char_traits@D@std@@V?$allocator@D@2@@std@@PAXU?$less@V?$basic_string@DU?$char_traits@D@std@@V?$allocator@D@2@@std@@@2@V?$allocator@U?$pair@$$CBV?$basic_string@DU?$char_traits@D@std@@V?$allocator@D@2@@std@@PAX@std@@@2@$0A@@std@@@std@@IAE?AU?$pair@PAU?$_Tree_node@U?$pair@$$CBV?$basic_string@DU?$char_traits@D@std@@V?$allocator@D@2@@std@@PAX@std@@PAX@std@@_N@1@$$QAU?$pair@$$CBV?$basic_string@DU?$char_traits@D@std@@V?$allocator@D@2@@std@@PAX@1@@Z DD 0ffffffffH
	DD	FLAT:__unwindfunclet$??$_Emplace@U?$pair@$$CBV?$basic_string@DU?$char_traits@D@std@@V?$allocator@D@2@@std@@PAX@std@@@?$_Tree@V?$_Tmap_traits@V?$basic_string@DU?$char_traits@D@std@@V?$allocator@D@2@@std@@PAXU?$less@V?$basic_string@DU?$char_traits@D@std@@V?$allocator@D@2@@std@@@2@V?$allocator@U?$pair@$$CBV?$basic_string@DU?$char_traits@D@std@@V?$allocator@D@2@@std@@PAX@std@@@2@$0A@@std@@@std@@IAE?AU?$pair@PAU?$_Tree_node@U?$pair@$$CBV?$basic_string@DU?$char_traits@D@std@@V?$allocator@D@2@@std@@PAX@std@@PAX@std@@_N@1@$$QAU?$pair@$$CBV?$basic_string@DU?$char_traits@D@std@@V?$allocator@D@2@@std@@PAX@1@@Z$2
	DD	0ffffffffH
	DD	FLAT:__unwindfunclet$??$_Emplace@U?$pair@$$CBV?$basic_string@DU?$char_traits@D@std@@V?$allocator@D@2@@std@@PAX@std@@@?$_Tree@V?$_Tmap_traits@V?$basic_string@DU?$char_traits@D@std@@V?$allocator@D@2@@std@@PAXU?$less@V?$basic_string@DU?$char_traits@D@std@@V?$allocator@D@2@@std@@@2@V?$allocator@U?$pair@$$CBV?$basic_string@DU?$char_traits@D@std@@V?$allocator@D@2@@std@@PAX@std@@@2@$0A@@std@@@std@@IAE?AU?$pair@PAU?$_Tree_node@U?$pair@$$CBV?$basic_string@DU?$char_traits@D@std@@V?$allocator@D@2@@std@@PAX@std@@PAX@std@@_N@1@$$QAU?$pair@$$CBV?$basic_string@DU?$char_traits@D@std@@V?$allocator@D@2@@std@@PAX@1@@Z$1
__ehfuncinfo$??$_Emplace@U?$pair@$$CBV?$basic_string@DU?$char_traits@D@std@@V?$allocator@D@2@@std@@PAX@std@@@?$_Tree@V?$_Tmap_traits@V?$basic_string@DU?$char_traits@D@std@@V?$allocator@D@2@@std@@PAXU?$less@V?$basic_string@DU?$char_traits@D@std@@V?$allocator@D@2@@std@@@2@V?$allocator@U?$pair@$$CBV?$basic_string@DU?$char_traits@D@std@@V?$allocator@D@2@@std@@PAX@std@@@2@$0A@@std@@@std@@IAE?AU?$pair@PAU?$_Tree_node@U?$pair@$$CBV?$basic_string@DU?$char_traits@D@std@@V?$allocator@D@2@@std@@PAX@std@@PAX@std@@_N@1@$$QAU?$pair@$$CBV?$basic_string@DU?$char_traits@D@std@@V?$allocator@D@2@@std@@PAX@1@@Z DD 019930522H
	DD	02H
	DD	FLAT:__unwindtable$??$_Emplace@U?$pair@$$CBV?$basic_string@DU?$char_traits@D@std@@V?$allocator@D@2@@std@@PAX@std@@@?$_Tree@V?$_Tmap_traits@V?$basic_string@DU?$char_traits@D@std@@V?$allocator@D@2@@std@@PAXU?$less@V?$basic_string@DU?$char_traits@D@std@@V?$allocator@D@2@@std@@@2@V?$allocator@U?$pair@$$CBV?$basic_string@DU?$char_traits@D@std@@V?$allocator@D@2@@std@@PAX@std@@@2@$0A@@std@@@std@@IAE?AU?$pair@PAU?$_Tree_node@U?$pair@$$CBV?$basic_string@DU?$char_traits@D@std@@V?$allocator@D@2@@std@@PAX@std@@PAX@std@@_N@1@$$QAU?$pair@$$CBV?$basic_string@DU?$char_traits@D@std@@V?$allocator@D@2@@std@@PAX@1@@Z
	DD	2 DUP(00H)
	DD	2 DUP(00H)
	DD	00H
	DD	01H
xdata$x	ENDS
;	COMDAT xdata$x
xdata$x	SEGMENT
__unwindtable$?LoadScript@CModelMng@@QAEHPBD@Z DD 0ffffffffH
	DD	FLAT:__unwindfunclet$?LoadScript@CModelMng@@QAEHPBD@Z$0
	DD	00H
	DD	FLAT:__unwindfunclet$?LoadScript@CModelMng@@QAEHPBD@Z$1
	DD	00H
	DD	FLAT:__unwindfunclet$?LoadScript@CModelMng@@QAEHPBD@Z$2
	DD	00H
	DD	FLAT:__unwindfunclet$?LoadScript@CModelMng@@QAEHPBD@Z$3
__ehfuncinfo$?LoadScript@CModelMng@@QAEHPBD@Z DD 019930522H
	DD	04H
	DD	FLAT:__unwindtable$?LoadScript@CModelMng@@QAEHPBD@Z
	DD	2 DUP(00H)
	DD	2 DUP(00H)
	DD	00H
	DD	01H
xdata$x	ENDS
;	COMDAT xdata$x
xdata$x	SEGMENT
__ehfuncinfo$?LoadModel@CModelMng@@QAEPAVCModel@@PAUIDirect3DDevice9@@PADPAUtagMODELELEM@@HH@Z DD 019930522H
	DD	07H
	DD	FLAT:__unwindtable$?LoadModel@CModelMng@@QAEPAVCModel@@PAUIDirect3DDevice9@@PADPAUtagMODELELEM@@HH@Z
	DD	2 DUP(00H)
	DD	2 DUP(00H)
	DD	00H
	DD	01H
__unwindtable$?LoadModel@CModelMng@@QAEPAVCModel@@PAUIDirect3DDevice9@@PADPAUtagMODELELEM@@HH@Z DD 0ffffffffH
	DD	FLAT:__unwindfunclet$?LoadModel@CModelMng@@QAEPAVCModel@@PAUIDirect3DDevice9@@PADPAUtagMODELELEM@@HH@Z$1
	DD	0ffffffffH
	DD	FLAT:__unwindfunclet$?LoadModel@CModelMng@@QAEPAVCModel@@PAUIDirect3DDevice9@@PADPAUtagMODELELEM@@HH@Z$2
	DD	0ffffffffH
	DD	FLAT:__unwindfunclet$?LoadModel@CModelMng@@QAEPAVCModel@@PAUIDirect3DDevice9@@PADPAUtagMODELELEM@@HH@Z$3
	DD	0ffffffffH
	DD	FLAT:__unwindfunclet$?LoadModel@CModelMng@@QAEPAVCModel@@PAUIDirect3DDevice9@@PADPAUtagMODELELEM@@HH@Z$4
	DD	03H
	DD	FLAT:__unwindfunclet$?LoadModel@CModelMng@@QAEPAVCModel@@PAUIDirect3DDevice9@@PADPAUtagMODELELEM@@HH@Z$5
	DD	0ffffffffH
	DD	FLAT:___std_terminate
	DD	0ffffffffH
	DD	00H
xdata$x	ENDS
;	COMDAT xdata$x
xdata$x	SEGMENT
__ehfuncinfo$??1CModelMng@@QAE@XZ DD 019930522H
	DD	00H
	DD	00H
	DD	2 DUP(00H)
	DD	2 DUP(00H)
	DD	00H
	DD	05H
xdata$x	ENDS
;	COMDAT xdata$x
xdata$x	SEGMENT
__unwindtable$??0CModelMng@@QAE@XZ DD 0ffffffffH
	DD	FLAT:__unwindfunclet$??0CModelMng@@QAE@XZ$0
__ehfuncinfo$??0CModelMng@@QAE@XZ DD 019930522H
	DD	01H
	DD	FLAT:__unwindtable$??0CModelMng@@QAE@XZ
	DD	2 DUP(00H)
	DD	2 DUP(00H)
	DD	00H
	DD	01H
xdata$x	ENDS
;	COMDAT xdata$x
xdata$x	SEGMENT
__unwindtable$??_GCFileIO@@UAEPAXI@Z DD 0ffffffffH
	DD	FLAT:___std_terminate
__ehfuncinfo$??_GCFileIO@@UAEPAXI@Z DD 019930522H
	DD	01H
	DD	FLAT:__unwindtable$??_GCFileIO@@UAEPAXI@Z
	DD	2 DUP(00H)
	DD	2 DUP(00H)
	DD	00H
	DD	05H
xdata$x	ENDS
;	COMDAT xdata$x
xdata$x	SEGMENT
__ehfuncinfo$??1CFileIO@@UAE@XZ DD 019930522H
	DD	00H
	DD	00H
	DD	2 DUP(00H)
	DD	2 DUP(00H)
	DD	00H
	DD	05H
xdata$x	ENDS
;	COMDAT xdata$x
xdata$x	SEGMENT
__unwindtable$?FormatV@?$CStringT@DV?$StrTraitMFC@DV?$ChTraitsCRT@D@ATL@@@@@ATL@@QAEXPBDPAD@Z DD 0ffffffffH
	DD	FLAT:__unwindfunclet$?FormatV@?$CStringT@DV?$StrTraitMFC@DV?$ChTraitsCRT@D@ATL@@@@@ATL@@QAEXPBDPAD@Z$1
	DD	0ffffffffH
	DD	FLAT:__unwindfunclet$?FormatV@?$CStringT@DV?$StrTraitMFC@DV?$ChTraitsCRT@D@ATL@@@@@ATL@@QAEXPBDPAD@Z$0
__ehfuncinfo$?FormatV@?$CStringT@DV?$StrTraitMFC@DV?$ChTraitsCRT@D@ATL@@@@@ATL@@QAEXPBDPAD@Z DD 019930522H
	DD	02H
	DD	FLAT:__unwindtable$?FormatV@?$CStringT@DV?$StrTraitMFC@DV?$ChTraitsCRT@D@ATL@@@@@ATL@@QAEXPBDPAD@Z
	DD	2 DUP(00H)
	DD	2 DUP(00H)
	DD	00H
	DD	01H
xdata$x	ENDS
;	COMDAT xdata$x
xdata$x	SEGMENT
__unwindtable$??0?$CStringT@DV?$StrTraitMFC@DV?$ChTraitsCRT@D@ATL@@@@@ATL@@QAE@PBDPAUIAtlStringMgr@1@@Z DD 0ffffffffH
	DD	FLAT:__unwindfunclet$??0?$CStringT@DV?$StrTraitMFC@DV?$ChTraitsCRT@D@ATL@@@@@ATL@@QAE@PBDPAUIAtlStringMgr@1@@Z$0
__ehfuncinfo$??0?$CStringT@DV?$StrTraitMFC@DV?$ChTraitsCRT@D@ATL@@@@@ATL@@QAE@PBDPAUIAtlStringMgr@1@@Z DD 019930522H
	DD	01H
	DD	FLAT:__unwindtable$??0?$CStringT@DV?$StrTraitMFC@DV?$ChTraitsCRT@D@ATL@@@@@ATL@@QAE@PBDPAUIAtlStringMgr@1@@Z
	DD	2 DUP(00H)
	DD	2 DUP(00H)
	DD	00H
	DD	01H
xdata$x	ENDS
; Function compile flags: /Ogtp
; File C:\Program Files\Microsoft Visual Studio\2022\Professional\VC\Tools\MSVC\14.44.35207\include\xmemory
;	COMDAT ??1?$_Tree_temp_node_alloc@V?$allocator@U?$_Tree_node@U?$pair@$$CBV?$basic_string@DU?$char_traits@D@std@@V?$allocator@D@2@@std@@PAX@std@@PAX@std@@@std@@@std@@QAE@XZ
_TEXT	SEGMENT
??1?$_Tree_temp_node_alloc@V?$allocator@U?$_Tree_node@U?$pair@$$CBV?$basic_string@DU?$char_traits@D@std@@V?$allocator@D@2@@std@@PAX@std@@PAX@std@@@std@@@std@@QAE@XZ PROC ; std::_Tree_temp_node_alloc<std::allocator<std::_Tree_node<std::pair<std::basic_string<char,std::char_traits<char>,std::allocator<char> > const ,void *>,void *> > >::~_Tree_temp_node_alloc<std::allocator<std::_Tree_node<std::pair<std::basic_string<char,std::char_traits<char>,std::allocator<char> > const ,void *>,void *> > >, COMDAT
; _this$ = ecx

; 1172 :         if (_Ptr) {

  00000	8b 41 04	 mov	 eax, DWORD PTR [ecx+4]
  00003	85 c0		 test	 eax, eax
  00005	74 0b		 je	 SHORT $LN13@Tree_temp_

; 289  :         ::operator delete(_Ptr, _Bytes);

  00007	6a 2c		 push	 44			; 0000002cH
  00009	50		 push	 eax
  0000a	e8 00 00 00 00	 call	 ??3@YAXPAXI@Z		; operator delete
  0000f	83 c4 08	 add	 esp, 8
$LN13@Tree_temp_:
  00012	c3		 ret	 0
??1?$_Tree_temp_node_alloc@V?$allocator@U?$_Tree_node@U?$pair@$$CBV?$basic_string@DU?$char_traits@D@std@@V?$allocator@D@2@@std@@PAX@std@@PAX@std@@@std@@@std@@QAE@XZ ENDP ; std::_Tree_temp_node_alloc<std::allocator<std::_Tree_node<std::pair<std::basic_string<char,std::char_traits<char>,std::allocator<char> > const ,void *>,void *> > >::~_Tree_temp_node_alloc<std::allocator<std::_Tree_node<std::pair<std::basic_string<char,std::char_traits<char>,std::allocator<char> > const ,void *>,void *> > >
_TEXT	ENDS
; Function compile flags: /Ogtp
; File C:\Program Files\Microsoft Visual Studio\2022\Professional\VC\Tools\MSVC\14.44.35207\include\xmemory
;	COMDAT ??1?$_Alloc_construct_ptr@V?$allocator@U?$_Tree_node@U?$pair@$$CBV?$basic_string@DU?$char_traits@D@std@@V?$allocator@D@2@@std@@PAX@std@@PAX@std@@@std@@@std@@QAE@XZ
_TEXT	SEGMENT
??1?$_Alloc_construct_ptr@V?$allocator@U?$_Tree_node@U?$pair@$$CBV?$basic_string@DU?$char_traits@D@std@@V?$allocator@D@2@@std@@PAX@std@@PAX@std@@@std@@@std@@QAE@XZ PROC ; std::_Alloc_construct_ptr<std::allocator<std::_Tree_node<std::pair<std::basic_string<char,std::char_traits<char>,std::allocator<char> > const ,void *>,void *> > >::~_Alloc_construct_ptr<std::allocator<std::_Tree_node<std::pair<std::basic_string<char,std::char_traits<char>,std::allocator<char> > const ,void *>,void *> > >, COMDAT
; _this$ = ecx

; 1172 :         if (_Ptr) {

  00000	8b 41 04	 mov	 eax, DWORD PTR [ecx+4]
  00003	85 c0		 test	 eax, eax
  00005	74 0b		 je	 SHORT $LN10@Alloc_cons

; 289  :         ::operator delete(_Ptr, _Bytes);

  00007	6a 2c		 push	 44			; 0000002cH
  00009	50		 push	 eax
  0000a	e8 00 00 00 00	 call	 ??3@YAXPAXI@Z		; operator delete
  0000f	83 c4 08	 add	 esp, 8
$LN10@Alloc_cons:

; 1173 :             _Al.deallocate(_Ptr, 1);
; 1174 :         }
; 1175 :     }

  00012	c3		 ret	 0
??1?$_Alloc_construct_ptr@V?$allocator@U?$_Tree_node@U?$pair@$$CBV?$basic_string@DU?$char_traits@D@std@@V?$allocator@D@2@@std@@PAX@std@@PAX@std@@@std@@@std@@QAE@XZ ENDP ; std::_Alloc_construct_ptr<std::allocator<std::_Tree_node<std::pair<std::basic_string<char,std::char_traits<char>,std::allocator<char> > const ,void *>,void *> > >::~_Alloc_construct_ptr<std::allocator<std::_Tree_node<std::pair<std::basic_string<char,std::char_traits<char>,std::allocator<char> > const ,void *>,void *> > >
_TEXT	ENDS
; Function compile flags: /Ogtp
; File C:\Program Files\Microsoft Visual Studio\2022\Professional\VC\Tools\MSVC\14.44.35207\include\xtree
; File C:\Program Files\Microsoft Visual Studio\2022\Professional\VC\Tools\MSVC\14.44.35207\include\type_traits
; File C:\Program Files\Microsoft Visual Studio\2022\Professional\VC\Tools\MSVC\14.44.35207\include\xtree
;	COMDAT ??$_Find_lower_bound@V?$basic_string@DU?$char_traits@D@std@@V?$allocator@D@2@@std@@@?$_Tree@V?$_Tmap_traits@V?$basic_string@DU?$char_traits@D@std@@V?$allocator@D@2@@std@@PAXU?$less@V?$basic_string@DU?$char_traits@D@std@@V?$allocator@D@2@@std@@@2@V?$allocator@U?$pair@$$CBV?$basic_string@DU?$char_traits@D@std@@V?$allocator@D@2@@std@@PAX@std@@@2@$0A@@std@@@std@@IBE?AU?$_Tree_find_result@PAU?$_Tree_node@U?$pair@$$CBV?$basic_string@DU?$char_traits@D@std@@V?$allocator@D@2@@std@@PAX@std@@PAX@std@@@1@ABV?$basic_string@DU?$char_traits@D@std@@V?$allocator@D@2@@1@@Z
_TEXT	SEGMENT
___$ReturnUdt$ = 8					; size = 4
__Keyval$ = 12						; size = 4
??$_Find_lower_bound@V?$basic_string@DU?$char_traits@D@std@@V?$allocator@D@2@@std@@@?$_Tree@V?$_Tmap_traits@V?$basic_string@DU?$char_traits@D@std@@V?$allocator@D@2@@std@@PAXU?$less@V?$basic_string@DU?$char_traits@D@std@@V?$allocator@D@2@@std@@@2@V?$allocator@U?$pair@$$CBV?$basic_string@DU?$char_traits@D@std@@V?$allocator@D@2@@std@@PAX@std@@@2@$0A@@std@@@std@@IBE?AU?$_Tree_find_result@PAU?$_Tree_node@U?$pair@$$CBV?$basic_string@DU?$char_traits@D@std@@V?$allocator@D@2@@std@@PAX@std@@PAX@std@@@1@ABV?$basic_string@DU?$char_traits@D@std@@V?$allocator@D@2@@1@@Z PROC ; std::_Tree<std::_Tmap_traits<std::basic_string<char,std::char_traits<char>,std::allocator<char> >,void *,std::less<std::basic_string<char,std::char_traits<char>,std::allocator<char> > >,std::allocator<std::pair<std::basic_string<char,std::char_traits<char>,std::allocator<char> > const ,void *> >,0> >::_Find_lower_bound<std::basic_string<char,std::char_traits<char>,std::allocator<char> > >, COMDAT
; _this$ = ecx

; 1628 :     _Tree_find_result<_Nodeptr> _Find_lower_bound(const _Keyty& _Keyval) const {

  00000	55		 push	 ebp
  00001	8b ec		 mov	 ebp, esp

; 1629 :         const auto _Scary = _Get_scary();
; 1630 :         _Tree_find_result<_Nodeptr> _Result{{_Scary->_Myhead->_Parent, _Tree_child::_Right}, _Scary->_Myhead};

  00003	8b 01		 mov	 eax, DWORD PTR [ecx]
  00005	56		 push	 esi
  00006	57		 push	 edi
  00007	8b 7d 08	 mov	 edi, DWORD PTR ___$ReturnUdt$[ebp]
  0000a	8b 70 04	 mov	 esi, DWORD PTR [eax+4]
  0000d	89 37		 mov	 DWORD PTR [edi], esi

; 1631 :         _Nodeptr _Trynode = _Result._Location._Parent;
; 1632 :         while (!_Trynode->_Isnil) {

  0000f	80 7e 0d 00	 cmp	 BYTE PTR [esi+13], 0
  00013	c7 47 04 00 00
	00 00		 mov	 DWORD PTR [edi+4], 0
  0001a	89 47 08	 mov	 DWORD PTR [edi+8], eax
  0001d	75 32		 jne	 SHORT $LN13@Find_lower
  0001f	53		 push	 ebx
  00020	8b 5d 0c	 mov	 ebx, DWORD PTR __Keyval$[ebp]
$LL2@Find_lower:

; 1634 :             if (_DEBUG_LT_PRED(_Getcomp(), _Traits::_Kfn(_Trynode->_Myval), _Keyval)) {

  00023	8d 46 10	 lea	 eax, DWORD PTR [esi+16]
  00026	89 37		 mov	 DWORD PTR [edi], esi
; File C:\Program Files\Microsoft Visual Studio\2022\Professional\VC\Tools\MSVC\14.44.35207\include\type_traits

; 2380 :         return _Left < _Right;

  00028	53		 push	 ebx
  00029	50		 push	 eax
  0002a	e8 00 00 00 00	 call	 ??$?MDU?$char_traits@D@std@@V?$allocator@D@1@@std@@YA_NABV?$basic_string@DU?$char_traits@D@std@@V?$allocator@D@2@@0@0@Z ; std::operator<<char,std::char_traits<char>,std::allocator<char> >
  0002f	83 c4 08	 add	 esp, 8
; File C:\Program Files\Microsoft Visual Studio\2022\Professional\VC\Tools\MSVC\14.44.35207\include\xtree

; 1634 :             if (_DEBUG_LT_PRED(_Getcomp(), _Traits::_Kfn(_Trynode->_Myval), _Keyval)) {

  00032	84 c0		 test	 al, al
  00034	74 07		 je	 SHORT $LN4@Find_lower

; 1635 :                 _Result._Location._Child = _Tree_child::_Right;
; 1636 :                 _Trynode                 = _Trynode->_Right;

  00036	8b 76 08	 mov	 esi, DWORD PTR [esi+8]
  00039	33 c0		 xor	 eax, eax

; 1637 :             } else {

  0003b	eb 0a		 jmp	 SHORT $LN5@Find_lower
$LN4@Find_lower:

; 1638 :                 _Result._Location._Child = _Tree_child::_Left;
; 1639 :                 _Result._Bound           = _Trynode;

  0003d	89 77 08	 mov	 DWORD PTR [edi+8], esi

; 1640 :                 _Trynode                 = _Trynode->_Left;

  00040	b8 01 00 00 00	 mov	 eax, 1
  00045	8b 36		 mov	 esi, DWORD PTR [esi]
$LN5@Find_lower:

; 1631 :         _Nodeptr _Trynode = _Result._Location._Parent;
; 1632 :         while (!_Trynode->_Isnil) {

  00047	89 47 04	 mov	 DWORD PTR [edi+4], eax
  0004a	80 7e 0d 00	 cmp	 BYTE PTR [esi+13], 0
  0004e	74 d3		 je	 SHORT $LL2@Find_lower
  00050	5b		 pop	 ebx
$LN13@Find_lower:

; 1641 :             }
; 1642 :         }
; 1643 : 
; 1644 :         return _Result;
; 1645 :     }

  00051	8b c7		 mov	 eax, edi
  00053	5f		 pop	 edi
  00054	5e		 pop	 esi
  00055	5d		 pop	 ebp
  00056	c2 08 00	 ret	 8
??$_Find_lower_bound@V?$basic_string@DU?$char_traits@D@std@@V?$allocator@D@2@@std@@@?$_Tree@V?$_Tmap_traits@V?$basic_string@DU?$char_traits@D@std@@V?$allocator@D@2@@std@@PAXU?$less@V?$basic_string@DU?$char_traits@D@std@@V?$allocator@D@2@@std@@@2@V?$allocator@U?$pair@$$CBV?$basic_string@DU?$char_traits@D@std@@V?$allocator@D@2@@std@@PAX@std@@@2@$0A@@std@@@std@@IBE?AU?$_Tree_find_result@PAU?$_Tree_node@U?$pair@$$CBV?$basic_string@DU?$char_traits@D@std@@V?$allocator@D@2@@std@@PAX@std@@PAX@std@@@1@ABV?$basic_string@DU?$char_traits@D@std@@V?$allocator@D@2@@1@@Z ENDP ; std::_Tree<std::_Tmap_traits<std::basic_string<char,std::char_traits<char>,std::allocator<char> >,void *,std::less<std::basic_string<char,std::char_traits<char>,std::allocator<char> > >,std::allocator<std::pair<std::basic_string<char,std::char_traits<char>,std::allocator<char> > const ,void *> >,0> >::_Find_lower_bound<std::basic_string<char,std::char_traits<char>,std::allocator<char> > >
_TEXT	ENDS
; Function compile flags: /Ogtp
; File C:\Program Files\Microsoft Visual Studio\2022\Professional\VC\Tools\MSVC\14.44.35207\include\xtree
; File C:\Program Files\Microsoft Visual Studio\2022\Professional\VC\Tools\MSVC\14.44.35207\include\utility
; File C:\Program Files\Microsoft Visual Studio\2022\Professional\VC\Tools\MSVC\14.44.35207\include\xtree
; File C:\Program Files\Microsoft Visual Studio\2022\Professional\VC\Tools\MSVC\14.44.35207\include\xmemory
; File C:\Program Files\Microsoft Visual Studio\2022\Professional\VC\Tools\MSVC\14.44.35207\include\xtree
; File C:\Program Files\Microsoft Visual Studio\2022\Professional\VC\Tools\MSVC\14.44.35207\include\xmemory
; File C:\Program Files\Microsoft Visual Studio\2022\Professional\VC\Tools\MSVC\14.44.35207\include\xtree
;	COMDAT ??$_Erase_tree@V?$allocator@U?$_Tree_node@U?$pair@$$CBV?$basic_string@DU?$char_traits@D@std@@V?$allocator@D@2@@std@@PAX@std@@PAX@std@@@std@@@?$_Tree_val@U?$_Tree_simple_types@U?$pair@$$CBV?$basic_string@DU?$char_traits@D@std@@V?$allocator@D@2@@std@@PAX@std@@@std@@@std@@QAEXAAV?$allocator@U?$_Tree_node@U?$pair@$$CBV?$basic_string@DU?$char_traits@D@std@@V?$allocator@D@2@@std@@PAX@std@@PAX@std@@@1@PAU?$_Tree_node@U?$pair@$$CBV?$basic_string@DU?$char_traits@D@std@@V?$allocator@D@2@@std@@PAX@std@@PAX@1@@Z
_TEXT	SEGMENT
_this$1$ = -4						; size = 4
__Al$ = 8						; size = 4
__Rootnode$ = 12					; size = 4
??$_Erase_tree@V?$allocator@U?$_Tree_node@U?$pair@$$CBV?$basic_string@DU?$char_traits@D@std@@V?$allocator@D@2@@std@@PAX@std@@PAX@std@@@std@@@?$_Tree_val@U?$_Tree_simple_types@U?$pair@$$CBV?$basic_string@DU?$char_traits@D@std@@V?$allocator@D@2@@std@@PAX@std@@@std@@@std@@QAEXAAV?$allocator@U?$_Tree_node@U?$pair@$$CBV?$basic_string@DU?$char_traits@D@std@@V?$allocator@D@2@@std@@PAX@std@@PAX@std@@@1@PAU?$_Tree_node@U?$pair@$$CBV?$basic_string@DU?$char_traits@D@std@@V?$allocator@D@2@@std@@PAX@std@@PAX@1@@Z PROC ; std::_Tree_val<std::_Tree_simple_types<std::pair<std::basic_string<char,std::char_traits<char>,std::allocator<char> > const ,void *> > >::_Erase_tree<std::allocator<std::_Tree_node<std::pair<std::basic_string<char,std::char_traits<char>,std::allocator<char> > const ,void *>,void *> > >, COMDAT
; _this$ = ecx

; 767  :     void _Erase_tree(_Alnode& _Al, _Nodeptr _Rootnode) noexcept {

  00000	55		 push	 ebp
  00001	8b ec		 mov	 ebp, esp
  00003	51		 push	 ecx
  00004	56		 push	 esi

; 768  :         while (!_Rootnode->_Isnil) { // free subtrees, then node

  00005	8b 75 0c	 mov	 esi, DWORD PTR __Rootnode$[ebp]
  00008	8b c1		 mov	 eax, ecx
  0000a	89 45 fc	 mov	 DWORD PTR _this$1$[ebp], eax
  0000d	80 7e 0d 00	 cmp	 BYTE PTR [esi+13], 0
  00011	75 32		 jne	 SHORT $LN45@Erase_tree
  00013	53		 push	 ebx
  00014	8b 5d 08	 mov	 ebx, DWORD PTR __Al$[ebp]
  00017	57		 push	 edi
$LL2@Erase_tree:

; 769  :             _Erase_tree(_Al, _Rootnode->_Right);

  00018	ff 76 08	 push	 DWORD PTR [esi+8]
  0001b	8b c8		 mov	 ecx, eax
  0001d	53		 push	 ebx
  0001e	e8 00 00 00 00	 call	 ??$_Erase_tree@V?$allocator@U?$_Tree_node@U?$pair@$$CBV?$basic_string@DU?$char_traits@D@std@@V?$allocator@D@2@@std@@PAX@std@@PAX@std@@@std@@@?$_Tree_val@U?$_Tree_simple_types@U?$pair@$$CBV?$basic_string@DU?$char_traits@D@std@@V?$allocator@D@2@@std@@PAX@std@@@std@@@std@@QAEXAAV?$allocator@U?$_Tree_node@U?$pair@$$CBV?$basic_string@DU?$char_traits@D@std@@V?$allocator@D@2@@std@@PAX@std@@PAX@std@@@1@PAU?$_Tree_node@U?$pair@$$CBV?$basic_string@DU?$char_traits@D@std@@V?$allocator@D@2@@std@@PAX@std@@PAX@1@@Z ; std::_Tree_val<std::_Tree_simple_types<std::pair<std::basic_string<char,std::char_traits<char>,std::allocator<char> > const ,void *> > >::_Erase_tree<std::allocator<std::_Tree_node<std::pair<std::basic_string<char,std::char_traits<char>,std::allocator<char> > const ,void *>,void *> > >
; File C:\Program Files\Microsoft Visual Studio\2022\Professional\VC\Tools\MSVC\14.44.35207\include\utility

; 773  :     _Ty _Old_val = static_cast<_Ty&&>(_Val);

  00023	8b fe		 mov	 edi, esi

; 774  :     _Val         = static_cast<_Other&&>(_New_val);

  00025	8b 36		 mov	 esi, DWORD PTR [esi]
; File C:\Program Files\Microsoft Visual Studio\2022\Professional\VC\Tools\MSVC\14.44.35207\include\xtree

; 381  :         allocator_traits<_Alloc>::destroy(_Al, _STD addressof(_Ptr->_Myval));

  00027	8d 4f 10	 lea	 ecx, DWORD PTR [edi+16]
  0002a	e8 00 00 00 00	 call	 ??1?$basic_string@DU?$char_traits@D@std@@V?$allocator@D@2@@std@@QAE@XZ ; std::basic_string<char,std::char_traits<char>,std::allocator<char> >::~basic_string<char,std::char_traits<char>,std::allocator<char> >
; File C:\Program Files\Microsoft Visual Studio\2022\Professional\VC\Tools\MSVC\14.44.35207\include\xmemory

; 289  :         ::operator delete(_Ptr, _Bytes);

  0002f	6a 2c		 push	 44			; 0000002cH
  00031	57		 push	 edi
  00032	e8 00 00 00 00	 call	 ??3@YAXPAXI@Z		; operator delete
; File C:\Program Files\Microsoft Visual Studio\2022\Professional\VC\Tools\MSVC\14.44.35207\include\xtree

; 768  :         while (!_Rootnode->_Isnil) { // free subtrees, then node

  00037	8b 45 fc	 mov	 eax, DWORD PTR _this$1$[ebp]
; File C:\Program Files\Microsoft Visual Studio\2022\Professional\VC\Tools\MSVC\14.44.35207\include\xmemory

; 289  :         ::operator delete(_Ptr, _Bytes);

  0003a	83 c4 08	 add	 esp, 8
; File C:\Program Files\Microsoft Visual Studio\2022\Professional\VC\Tools\MSVC\14.44.35207\include\xtree

; 768  :         while (!_Rootnode->_Isnil) { // free subtrees, then node

  0003d	80 7e 0d 00	 cmp	 BYTE PTR [esi+13], 0
  00041	74 d5		 je	 SHORT $LL2@Erase_tree
  00043	5f		 pop	 edi
  00044	5b		 pop	 ebx
$LN45@Erase_tree:
  00045	5e		 pop	 esi

; 770  :             _Alnode::value_type::_Freenode(_Al, _STD exchange(_Rootnode, _Rootnode->_Left));
; 771  :         }
; 772  :     }

  00046	8b e5		 mov	 esp, ebp
  00048	5d		 pop	 ebp
  00049	c2 08 00	 ret	 8
??$_Erase_tree@V?$allocator@U?$_Tree_node@U?$pair@$$CBV?$basic_string@DU?$char_traits@D@std@@V?$allocator@D@2@@std@@PAX@std@@PAX@std@@@std@@@?$_Tree_val@U?$_Tree_simple_types@U?$pair@$$CBV?$basic_string@DU?$char_traits@D@std@@V?$allocator@D@2@@std@@PAX@std@@@std@@@std@@QAEXAAV?$allocator@U?$_Tree_node@U?$pair@$$CBV?$basic_string@DU?$char_traits@D@std@@V?$allocator@D@2@@std@@PAX@std@@PAX@std@@@1@PAU?$_Tree_node@U?$pair@$$CBV?$basic_string@DU?$char_traits@D@std@@V?$allocator@D@2@@std@@PAX@std@@PAX@1@@Z ENDP ; std::_Tree_val<std::_Tree_simple_types<std::pair<std::basic_string<char,std::char_traits<char>,std::allocator<char> > const ,void *> > >::_Erase_tree<std::allocator<std::_Tree_node<std::pair<std::basic_string<char,std::char_traits<char>,std::allocator<char> > const ,void *>,void *> > >
_TEXT	ENDS
; Function compile flags: /Ogtp
; File C:\Program Files\Microsoft Visual Studio\2022\Professional\VC\Tools\MSVC\14.44.35207\include\xtree
; File C:\Program Files\Microsoft Visual Studio\2022\Professional\VC\Tools\MSVC\14.44.35207\include\type_traits
; File C:\Program Files\Microsoft Visual Studio\2022\Professional\VC\Tools\MSVC\14.44.35207\include\xtree
; File C:\Program Files\Microsoft Visual Studio\2022\Professional\VC\Tools\MSVC\14.44.35207\include\utility
; File C:\Program Files\Microsoft Visual Studio\2022\Professional\VC\Tools\MSVC\14.44.35207\include\xtree
; File C:\Program Files\Microsoft Visual Studio\2022\Professional\VC\Tools\MSVC\14.44.35207\include\xmemory
; File C:\Program Files\Microsoft Visual Studio\2022\Professional\VC\Tools\MSVC\14.44.35207\include\xtree
; File C:\Program Files\Microsoft Visual Studio\2022\Professional\VC\Tools\MSVC\14.44.35207\include\xmemory
; File C:\Program Files\Microsoft Visual Studio\2022\Professional\VC\Tools\MSVC\14.44.35207\include\xtree
; File C:\Program Files\Microsoft Visual Studio\2022\Professional\VC\Tools\MSVC\14.44.35207\include\xstring
; File C:\Program Files\Microsoft Visual Studio\2022\Professional\VC\Tools\MSVC\14.44.35207\include\__msvc_string_view.hpp
; File C:\Program Files\Microsoft Visual Studio\2022\Professional\VC\Tools\MSVC\14.44.35207\include\xstring
; File C:\Program Files\Microsoft Visual Studio\2022\Professional\VC\Tools\MSVC\14.44.35207\include\xmemory
; File C:\Program Files\Microsoft Visual Studio\2022\Professional\VC\Tools\MSVC\14.44.35207\include\xstring
; File C:\Program Files\Microsoft Visual Studio\2022\Professional\VC\Tools\MSVC\14.44.35207\include\xmemory
; File C:\Program Files\Microsoft Visual Studio\2022\Professional\VC\Tools\MSVC\14.44.35207\include\xstring
; File C:\Program Files\Microsoft Visual Studio\2022\Professional\VC\Tools\MSVC\14.44.35207\include\__msvc_string_view.hpp
; File C:\Program Files\Microsoft Visual Studio\2022\Professional\VC\Tools\MSVC\14.44.35207\include\xstring
; File C:\Program Files\Microsoft Visual Studio\2022\Professional\VC\Tools\MSVC\14.44.35207\include\__msvc_string_view.hpp
; File C:\Program Files\Microsoft Visual Studio\2022\Professional\VC\Tools\MSVC\14.44.35207\include\xstring
; File C:\Program Files\Microsoft Visual Studio\2022\Professional\VC\Tools\MSVC\14.44.35207\include\__msvc_string_view.hpp
; File C:\Program Files\Microsoft Visual Studio\2022\Professional\VC\Tools\MSVC\14.44.35207\include\utility
; File C:\Program Files\Microsoft Visual Studio\2022\Professional\VC\Tools\MSVC\14.44.35207\include\xtree
; File C:\Program Files\Microsoft Visual Studio\2022\Professional\VC\Tools\MSVC\14.44.35207\include\utility
; File C:\Program Files\Microsoft Visual Studio\2022\Professional\VC\Tools\MSVC\14.44.35207\include\xtree
; File C:\Program Files\Microsoft Visual Studio\2022\Professional\VC\Tools\MSVC\14.44.35207\include\utility
; File C:\Program Files\Microsoft Visual Studio\2022\Professional\VC\Tools\MSVC\14.44.35207\include\xtree
; File C:\Program Files\Microsoft Visual Studio\2022\Professional\VC\Tools\MSVC\14.44.35207\include\utility
; File C:\Program Files\Microsoft Visual Studio\2022\Professional\VC\Tools\MSVC\14.44.35207\include\xtree
; File C:\Program Files\Microsoft Visual Studio\2022\Professional\VC\Tools\MSVC\14.44.35207\include\xstring
; File C:\Program Files\Microsoft Visual Studio\2022\Professional\VC\Tools\MSVC\14.44.35207\include\xtree
;	COMDAT ??$_Emplace@U?$pair@$$CBV?$basic_string@DU?$char_traits@D@std@@V?$allocator@D@2@@std@@PAX@std@@@?$_Tree@V?$_Tmap_traits@V?$basic_string@DU?$char_traits@D@std@@V?$allocator@D@2@@std@@PAXU?$less@V?$basic_string@DU?$char_traits@D@std@@V?$allocator@D@2@@std@@@2@V?$allocator@U?$pair@$$CBV?$basic_string@DU?$char_traits@D@std@@V?$allocator@D@2@@std@@PAX@std@@@2@$0A@@std@@@std@@IAE?AU?$pair@PAU?$_Tree_node@U?$pair@$$CBV?$basic_string@DU?$char_traits@D@std@@V?$allocator@D@2@@std@@PAX@std@@PAX@std@@_N@1@$$QAU?$pair@$$CBV?$basic_string@DU?$char_traits@D@std@@V?$allocator@D@2@@std@@PAX@1@@Z
_TEXT	SEGMENT
__Loc$ = -52						; size = 12
$T2 = -40						; size = 12
$T3 = -36						; size = 8
__Myhead$1$ = -28					; size = 4
_this$1$ = -24						; size = 4
__Result$1$ = -20					; size = 4
__Count$1$ = -16					; size = 4
__$EHRec$ = -12						; size = 12
___$ReturnUdt$ = 8					; size = 4
_<_Vals_0>$ = 12					; size = 4
??$_Emplace@U?$pair@$$CBV?$basic_string@DU?$char_traits@D@std@@V?$allocator@D@2@@std@@PAX@std@@@?$_Tree@V?$_Tmap_traits@V?$basic_string@DU?$char_traits@D@std@@V?$allocator@D@2@@std@@PAXU?$less@V?$basic_string@DU?$char_traits@D@std@@V?$allocator@D@2@@std@@@2@V?$allocator@U?$pair@$$CBV?$basic_string@DU?$char_traits@D@std@@V?$allocator@D@2@@std@@PAX@std@@@2@$0A@@std@@@std@@IAE?AU?$pair@PAU?$_Tree_node@U?$pair@$$CBV?$basic_string@DU?$char_traits@D@std@@V?$allocator@D@2@@std@@PAX@std@@PAX@std@@_N@1@$$QAU?$pair@$$CBV?$basic_string@DU?$char_traits@D@std@@V?$allocator@D@2@@std@@PAX@1@@Z PROC ; std::_Tree<std::_Tmap_traits<std::basic_string<char,std::char_traits<char>,std::allocator<char> >,void *,std::less<std::basic_string<char,std::char_traits<char>,std::allocator<char> > >,std::allocator<std::pair<std::basic_string<char,std::char_traits<char>,std::allocator<char> > const ,void *> >,0> >::_Emplace<std::pair<std::basic_string<char,std::char_traits<char>,std::allocator<char> > const ,void *> >, COMDAT
; _this$ = ecx

; 1010 :     pair<_Nodeptr, bool> _Emplace(_Valtys&&... _Vals) {

  00000	55		 push	 ebp
  00001	8b ec		 mov	 ebp, esp
  00003	6a ff		 push	 -1
  00005	68 00 00 00 00	 push	 __ehhandler$??$_Emplace@U?$pair@$$CBV?$basic_string@DU?$char_traits@D@std@@V?$allocator@D@2@@std@@PAX@std@@@?$_Tree@V?$_Tmap_traits@V?$basic_string@DU?$char_traits@D@std@@V?$allocator@D@2@@std@@PAXU?$less@V?$basic_string@DU?$char_traits@D@std@@V?$allocator@D@2@@std@@@2@V?$allocator@U?$pair@$$CBV?$basic_string@DU?$char_traits@D@std@@V?$allocator@D@2@@std@@PAX@std@@@2@$0A@@std@@@std@@IAE?AU?$pair@PAU?$_Tree_node@U?$pair@$$CBV?$basic_string@DU?$char_traits@D@std@@V?$allocator@D@2@@std@@PAX@std@@PAX@std@@_N@1@$$QAU?$pair@$$CBV?$basic_string@DU?$char_traits@D@std@@V?$allocator@D@2@@std@@PAX@1@@Z
  0000a	64 a1 00 00 00
	00		 mov	 eax, DWORD PTR fs:0
  00010	50		 push	 eax
  00011	83 ec 28	 sub	 esp, 40			; 00000028H
  00014	56		 push	 esi
  00015	57		 push	 edi
  00016	a1 00 00 00 00	 mov	 eax, DWORD PTR ___security_cookie
  0001b	33 c5		 xor	 eax, ebp
  0001d	50		 push	 eax
  0001e	8d 45 f4	 lea	 eax, DWORD PTR __$EHRec$[ebp]
  00021	64 a3 00 00 00
	00		 mov	 DWORD PTR fs:0, eax
  00027	89 4d e8	 mov	 DWORD PTR _this$1$[ebp], ecx

; 1011 :         using _In_place_key_extractor = typename _Traits::template _In_place_key_extractor<_Valtys...>;
; 1012 :         const auto _Scary             = _Get_scary();
; 1013 :         _Tree_find_result<_Nodeptr> _Loc;
; 1014 :         _Nodeptr _Inserted;
; 1015 :         if constexpr (!_Multi && _In_place_key_extractor::_Extractable) {
; 1016 :             const auto& _Keyval = _In_place_key_extractor::_Extract(_Vals...);
; 1017 :             _Loc                = _Find_lower_bound(_Keyval);

  0002a	8b 7d 0c	 mov	 edi, DWORD PTR _<_Vals_0>$[ebp]
  0002d	8d 45 d8	 lea	 eax, DWORD PTR $T2[ebp]
  00030	57		 push	 edi
  00031	50		 push	 eax
  00032	e8 00 00 00 00	 call	 ??$_Find_lower_bound@V?$basic_string@DU?$char_traits@D@std@@V?$allocator@D@2@@std@@@?$_Tree@V?$_Tmap_traits@V?$basic_string@DU?$char_traits@D@std@@V?$allocator@D@2@@std@@PAXU?$less@V?$basic_string@DU?$char_traits@D@std@@V?$allocator@D@2@@std@@@2@V?$allocator@U?$pair@$$CBV?$basic_string@DU?$char_traits@D@std@@V?$allocator@D@2@@std@@PAX@std@@@2@$0A@@std@@@std@@IBE?AU?$_Tree_find_result@PAU?$_Tree_node@U?$pair@$$CBV?$basic_string@DU?$char_traits@D@std@@V?$allocator@D@2@@std@@PAX@std@@PAX@std@@@1@ABV?$basic_string@DU?$char_traits@D@std@@V?$allocator@D@2@@1@@Z ; std::_Tree<std::_Tmap_traits<std::basic_string<char,std::char_traits<char>,std::allocator<char> >,void *,std::less<std::basic_string<char,std::char_traits<char>,std::allocator<char> > >,std::allocator<std::pair<std::basic_string<char,std::char_traits<char>,std::allocator<char> > const ,void *> >,0> >::_Find_lower_bound<std::basic_string<char,std::char_traits<char>,std::allocator<char> > >
  00037	8b 70 08	 mov	 esi, DWORD PTR [eax+8]
  0003a	f3 0f 7e 00	 movq	 xmm0, QWORD PTR [eax]
  0003e	66 0f d6 45 cc	 movq	 QWORD PTR __Loc$[ebp], xmm0

; 1624 :         return !_Bound->_Isnil && !_DEBUG_LT_PRED(_Getcomp(), _Keyval, _Traits::_Kfn(_Bound->_Myval));

  00043	80 7e 0d 00	 cmp	 BYTE PTR [esi+13], 0
  00047	75 2d		 jne	 SHORT $LN2@Emplace
  00049	8d 46 10	 lea	 eax, DWORD PTR [esi+16]
; File C:\Program Files\Microsoft Visual Studio\2022\Professional\VC\Tools\MSVC\14.44.35207\include\type_traits

; 2380 :         return _Left < _Right;

  0004c	50		 push	 eax
  0004d	57		 push	 edi
  0004e	e8 00 00 00 00	 call	 ??$?MDU?$char_traits@D@std@@V?$allocator@D@1@@std@@YA_NABV?$basic_string@DU?$char_traits@D@std@@V?$allocator@D@2@@0@0@Z ; std::operator<<char,std::char_traits<char>,std::allocator<char> >
  00053	83 c4 08	 add	 esp, 8
; File C:\Program Files\Microsoft Visual Studio\2022\Professional\VC\Tools\MSVC\14.44.35207\include\xtree

; 1624 :         return !_Bound->_Isnil && !_DEBUG_LT_PRED(_Getcomp(), _Keyval, _Traits::_Kfn(_Bound->_Myval));

  00056	84 c0		 test	 al, al
  00058	75 1c		 jne	 SHORT $LN2@Emplace
; File C:\Program Files\Microsoft Visual Studio\2022\Professional\VC\Tools\MSVC\14.44.35207\include\utility

; 274  :         : first(_STD forward<_Other1>(_Val1)), second(_STD forward<_Other2>(_Val2)) {

  0005a	8b 45 08	 mov	 eax, DWORD PTR ___$ReturnUdt$[ebp]
  0005d	89 30		 mov	 DWORD PTR [eax], esi
  0005f	c6 40 04 00	 mov	 BYTE PTR [eax+4], 0
; File C:\Program Files\Microsoft Visual Studio\2022\Professional\VC\Tools\MSVC\14.44.35207\include\xtree

; 1043 :     }

  00063	8b 4d f4	 mov	 ecx, DWORD PTR __$EHRec$[ebp]
  00066	64 89 0d 00 00
	00 00		 mov	 DWORD PTR fs:0, ecx
  0006d	59		 pop	 ecx
  0006e	5f		 pop	 edi
  0006f	5e		 pop	 esi
  00070	8b e5		 mov	 esp, ebp
  00072	5d		 pop	 ebp
  00073	c2 08 00	 ret	 8
$LN2@Emplace:

; 1648 :         if (max_size() == _Get_scary()->_Mysize) {

  00076	8b 45 e8	 mov	 eax, DWORD PTR _this$1$[ebp]
  00079	81 78 04 5d 74
	d1 05		 cmp	 DWORD PTR [eax+4], 97612893 ; 05d1745dH
  00080	0f 84 26 01 00
	00		 je	 $LN195@Emplace

; 1018 :             if (_Lower_bound_duplicate(_Loc._Bound, _Keyval)) {
; 1019 :                 return {_Loc._Bound, false};
; 1020 :             }
; 1021 : 
; 1022 :             _Check_grow_by_1();
; 1023 :             _Inserted = _Tree_temp_node<_Alnode>(_Getal(), _Scary->_Myhead, _STD forward<_Valtys>(_Vals)...)._Release();

  00086	8b 08		 mov	 ecx, DWORD PTR [eax]
  00088	89 4d e4	 mov	 DWORD PTR __Myhead$1$[ebp], ecx
; File C:\Program Files\Microsoft Visual Studio\2022\Professional\VC\Tools\MSVC\14.44.35207\include\xmemory

; 1160 :     _CONSTEXPR20 explicit _Alloc_construct_ptr(_Alloc& _Al_) : _Al(_Al_), _Ptr(nullptr) {}

  0008b	89 45 dc	 mov	 DWORD PTR $T3[ebp], eax

; 136  :         return ::operator new(_Bytes);

  0008e	6a 2c		 push	 44			; 0000002cH
; File C:\Program Files\Microsoft Visual Studio\2022\Professional\VC\Tools\MSVC\14.44.35207\include\xtree

; 808  :     explicit _Tree_temp_node_alloc(_Alnode& _Al_) : _Alloc_construct_ptr<_Alnode>(_Al_) {

  00090	c7 45 fc 00 00
	00 00		 mov	 DWORD PTR __$EHRec$[ebp+8], 0
; File C:\Program Files\Microsoft Visual Studio\2022\Professional\VC\Tools\MSVC\14.44.35207\include\xmemory

; 1167 :         _Ptr = nullptr; // if allocate throws, prevents double-free

  00097	c7 45 e0 00 00
	00 00		 mov	 DWORD PTR $T3[ebp+4], 0

; 136  :         return ::operator new(_Bytes);

  0009e	e8 00 00 00 00	 call	 ??2@YAPAXI@Z		; operator new

; 256  :         return _Traits::_Allocate(_Bytes);

  000a3	8b f0		 mov	 esi, eax

; 136  :         return ::operator new(_Bytes);

  000a5	83 c4 04	 add	 esp, 4

; 1168 :         _Ptr = _Al.allocate(1);

  000a8	89 75 e0	 mov	 DWORD PTR $T3[ebp+4], esi
  000ab	0f 57 c0	 xorps	 xmm0, xmm0
; File C:\Program Files\Microsoft Visual Studio\2022\Professional\VC\Tools\MSVC\14.44.35207\include\xtree

; 829  :         : _Tree_temp_node_alloc<_Alnode>(_Al_) {

  000ae	c7 45 fc 01 00
	00 00		 mov	 DWORD PTR __$EHRec$[ebp+8], 1
; File C:\Program Files\Microsoft Visual Studio\2022\Professional\VC\Tools\MSVC\14.44.35207\include\xstring

; 493  :         _CONSTEXPR20 _Bxty() noexcept : _Buf() {} // user-provided, for fancy pointers

  000b5	0f 11 46 10	 movups	 XMMWORD PTR [esi+16], xmm0

; 517  :     size_type _Mysize = 0; // current length of string (size)

  000b9	c7 46 20 00 00
	00 00		 mov	 DWORD PTR [esi+32], 0

; 444  :         const value_type* _Result = _Bx._Buf;

  000c0	8b cf		 mov	 ecx, edi

; 518  :     size_type _Myres  = 0; // current storage reserved for string (capacity)

  000c2	c7 46 24 00 00
	00 00		 mov	 DWORD PTR [esi+36], 0

; 453  :         return _Myres > _Small_string_capacity;

  000c9	83 7f 14 0f	 cmp	 DWORD PTR [edi+20], 15	; 0000000fH

; 444  :         const value_type* _Result = _Bx._Buf;

  000cd	89 7d ec	 mov	 DWORD PTR __Result$1$[ebp], edi

; 445  :         if (_Large_mode_engaged()) {

  000d0	76 05		 jbe	 SHORT $LN65@Emplace

; 446  :             _Result = _Unfancy(_Bx._Ptr);

  000d2	8b 0f		 mov	 ecx, DWORD PTR [edi]
  000d4	89 4d ec	 mov	 DWORD PTR __Result$1$[ebp], ecx
$LN65@Emplace:

; 718  :         _Construct<_Construct_strategy::_From_string>(_Right._Mypair._Myval2._Myptr(), _Right._Mypair._Myval2._Mysize);

  000d7	8b 47 10	 mov	 eax, DWORD PTR [edi+16]
  000da	89 45 f0	 mov	 DWORD PTR __Count$1$[ebp], eax

; 881  :         if (_Count > max_size()) {

  000dd	3d ff ff ff 7f	 cmp	 eax, 2147483647		; 7fffffffH
  000e2	0f 87 c9 00 00
	00		 ja	 $LN196@Emplace

; 883  :         }
; 884  : 
; 885  :         auto& _Al       = _Getal();
; 886  :         auto&& _Alproxy = _GET_PROXY_ALLOCATOR(_Alty, _Al);
; 887  :         _Container_proxy_ptr<_Alty> _Proxy(_Alproxy, _My_data);
; 888  : 
; 889  :         if (_Count <= _Small_string_capacity) {

  000e8	83 f8 0f	 cmp	 eax, 15			; 0000000fH
  000eb	77 13		 ja	 SHORT $LN73@Emplace

; 890  :             _My_data._Mysize = _Count;

  000ed	89 46 20	 mov	 DWORD PTR [esi+32], eax

; 891  :             _My_data._Myres  = _Small_string_capacity;

  000f0	c7 46 24 0f 00
	00 00		 mov	 DWORD PTR [esi+36], 15	; 0000000fH
; File C:\Program Files\Microsoft Visual Studio\2022\Professional\VC\Tools\MSVC\14.44.35207\include\__msvc_string_view.hpp

; 121  :         _CSTD memcpy(_First1, _First2, _Count * sizeof(_Elem));

  000f7	0f 10 01	 movups	 xmm0, XMMWORD PTR [ecx]
  000fa	0f 11 46 10	 movups	 XMMWORD PTR [esi+16], xmm0
; File C:\Program Files\Microsoft Visual Studio\2022\Professional\VC\Tools\MSVC\14.44.35207\include\xstring

; 908  :             return;

  000fe	eb 68		 jmp	 SHORT $LN99@Emplace
$LN73@Emplace:

; 2978 :         const size_type _Masked = _Requested | _Alloc_mask;

  00100	8b f8		 mov	 edi, eax
  00102	83 cf 0f	 or	 edi, 15			; 0000000fH
  00105	81 ff ff ff ff
	7f		 cmp	 edi, 2147483647		; 7fffffffH

; 2979 :         if (_Masked > _Max) { // the mask overflows, settle for max_size()

  0010b	76 12		 jbe	 SHORT $LN79@Emplace

; 2980 :             return _Max;

  0010d	b9 00 00 00 80	 mov	 ecx, -2147483648	; 80000000H
  00112	bf ff ff ff 7f	 mov	 edi, 2147483647		; 7fffffffH
; File C:\Program Files\Microsoft Visual Studio\2022\Professional\VC\Tools\MSVC\14.44.35207\include\xmemory

; 253  :             return _Allocate_manually_vector_aligned<_Traits>(_Bytes);

  00117	51		 push	 ecx
  00118	e8 00 00 00 00	 call	 ??$_Allocate_manually_vector_aligned@U_Default_allocate_traits@std@@@std@@YAPAXI@Z ; std::_Allocate_manually_vector_aligned<std::_Default_allocate_traits>
  0011d	eb 27		 jmp	 SHORT $LN193@Emplace
$LN79@Emplace:
; File C:\Program Files\Microsoft Visual Studio\2022\Professional\VC\Tools\MSVC\14.44.35207\include\xstring

; 2987 :         return (_STD max)(_Masked, _Old + _Old / 2);

  0011f	b9 16 00 00 00	 mov	 ecx, 22			; 00000016H
  00124	3b f9		 cmp	 edi, ecx
  00126	0f 42 f9	 cmovb	 edi, ecx

; 825  :         ++_Capacity; // Take null terminator into consideration

  00129	8d 4f 01	 lea	 ecx, DWORD PTR [edi+1]
; File C:\Program Files\Microsoft Visual Studio\2022\Professional\VC\Tools\MSVC\14.44.35207\include\xmemory

; 227  :     if (_Bytes == 0) {

  0012c	85 c9		 test	 ecx, ecx
  0012e	74 1e		 je	 SHORT $LN92@Emplace
$LN93@Emplace:

; 228  :         return nullptr;
; 229  :     }
; 230  : 
; 231  : #if _HAS_CXX20 // TRANSITION, GH-1532
; 232  :     if (_STD is_constant_evaluated()) {
; 233  :         return _Traits::_Allocate(_Bytes);
; 234  :     }
; 235  : #endif // _HAS_CXX20
; 236  : 
; 237  : #ifdef __cpp_aligned_new
; 238  :     if constexpr (_Align > __STDCPP_DEFAULT_NEW_ALIGNMENT__) {
; 239  :         size_t _Passed_align = _Align;
; 240  : #if defined(_M_IX86) || defined(_M_X64)
; 241  :         if (_Bytes >= _Big_allocation_threshold) {
; 242  :             // boost the alignment of big allocations to help autovectorization
; 243  :             _Passed_align = (_STD max)(_Align, _Big_allocation_alignment);
; 244  :         }
; 245  : #endif // defined(_M_IX86) || defined(_M_X64)
; 246  :         return _Traits::_Allocate_aligned(_Bytes, _Passed_align);
; 247  :     } else
; 248  : #endif // defined(__cpp_aligned_new)
; 249  :     {
; 250  : #if defined(_M_IX86) || defined(_M_X64)
; 251  :         if (_Bytes >= _Big_allocation_threshold) {

  00130	81 f9 00 10 00
	00		 cmp	 ecx, 4096		; 00001000H
  00136	72 08		 jb	 SHORT $LN94@Emplace

; 253  :             return _Allocate_manually_vector_aligned<_Traits>(_Bytes);

  00138	51		 push	 ecx
  00139	e8 00 00 00 00	 call	 ??$_Allocate_manually_vector_aligned@U_Default_allocate_traits@std@@@std@@YAPAXI@Z ; std::_Allocate_manually_vector_aligned<std::_Default_allocate_traits>
  0013e	eb 06		 jmp	 SHORT $LN193@Emplace
$LN94@Emplace:

; 136  :         return ::operator new(_Bytes);

  00140	51		 push	 ecx
  00141	e8 00 00 00 00	 call	 ??2@YAPAXI@Z		; operator new
$LN193@Emplace:
; File C:\Program Files\Microsoft Visual Studio\2022\Professional\VC\Tools\MSVC\14.44.35207\include\xstring

; 913  :         _Construct_in_place(_My_data._Bx._Ptr, _New_ptr);

  00146	8b c8		 mov	 ecx, eax
  00148	83 c4 04	 add	 esp, 4
  0014b	8b 45 f0	 mov	 eax, DWORD PTR __Count$1$[ebp]
$LN92@Emplace:

; 914  : 
; 915  :         _My_data._Mysize = _Count;

  0014e	89 46 20	 mov	 DWORD PTR [esi+32], eax

; 917  :         if constexpr (_Strat == _Construct_strategy::_From_char) {
; 918  :             _Traits::assign(_Unfancy(_New_ptr), _Count, _Arg);
; 919  :             _Traits::assign(_Unfancy(_New_ptr)[_Count], _Elem());
; 920  :         } else if constexpr (_Strat == _Construct_strategy::_From_ptr) {
; 921  :             _Traits::copy(_Unfancy(_New_ptr), _Arg, _Count);
; 922  :             _Traits::assign(_Unfancy(_New_ptr)[_Count], _Elem());
; 923  :         } else { // _Strat == _Construct_strategy::_From_string
; 924  :             _Traits::copy(_Unfancy(_New_ptr), _Arg, _Count + 1);

  00151	40		 inc	 eax
; File C:\Program Files\Microsoft Visual Studio\2022\Professional\VC\Tools\MSVC\14.44.35207\include\__msvc_string_view.hpp

; 121  :         _CSTD memcpy(_First1, _First2, _Count * sizeof(_Elem));

  00152	50		 push	 eax
  00153	ff 75 ec	 push	 DWORD PTR __Result$1$[ebp]
; File C:\Program Files\Microsoft Visual Studio\2022\Professional\VC\Tools\MSVC\14.44.35207\include\xstring

; 913  :         _Construct_in_place(_My_data._Bx._Ptr, _New_ptr);

  00156	89 4e 10	 mov	 DWORD PTR [esi+16], ecx
; File C:\Program Files\Microsoft Visual Studio\2022\Professional\VC\Tools\MSVC\14.44.35207\include\__msvc_string_view.hpp

; 121  :         _CSTD memcpy(_First1, _First2, _Count * sizeof(_Elem));

  00159	51		 push	 ecx
; File C:\Program Files\Microsoft Visual Studio\2022\Professional\VC\Tools\MSVC\14.44.35207\include\xstring

; 916  :         _My_data._Myres  = _New_capacity;

  0015a	89 7e 24	 mov	 DWORD PTR [esi+36], edi
; File C:\Program Files\Microsoft Visual Studio\2022\Professional\VC\Tools\MSVC\14.44.35207\include\__msvc_string_view.hpp

; 121  :         _CSTD memcpy(_First1, _First2, _Count * sizeof(_Elem));

  0015d	e8 00 00 00 00	 call	 _memcpy
  00162	8b 7d 0c	 mov	 edi, DWORD PTR _<_Vals_0>$[ebp]
  00165	83 c4 0c	 add	 esp, 12			; 0000000cH
$LN99@Emplace:
; File C:\Program Files\Microsoft Visual Studio\2022\Professional\VC\Tools\MSVC\14.44.35207\include\utility

; 278  :     pair(pair&&)      = default;

  00168	8b 47 18	 mov	 eax, DWORD PTR [edi+24]
; File C:\Program Files\Microsoft Visual Studio\2022\Professional\VC\Tools\MSVC\14.44.35207\include\xtree

; 1042 :         return {_Scary->_Insert_node(_Loc._Location, _Inserted), true};

  0016b	8b 4d e8	 mov	 ecx, DWORD PTR _this$1$[ebp]
; File C:\Program Files\Microsoft Visual Studio\2022\Professional\VC\Tools\MSVC\14.44.35207\include\utility

; 278  :     pair(pair&&)      = default;

  0016e	89 46 28	 mov	 DWORD PTR [esi+40], eax
; File C:\Program Files\Microsoft Visual Studio\2022\Professional\VC\Tools\MSVC\14.44.35207\include\xtree

; 831  :         _Construct_in_place(this->_Ptr->_Left, _Myhead);

  00171	8b 45 e4	 mov	 eax, DWORD PTR __Myhead$1$[ebp]

; 1042 :         return {_Scary->_Insert_node(_Loc._Location, _Inserted), true};

  00174	56		 push	 esi
  00175	ff 75 d0	 push	 DWORD PTR __Loc$[ebp+4]

; 831  :         _Construct_in_place(this->_Ptr->_Left, _Myhead);

  00178	89 06		 mov	 DWORD PTR [esi], eax

; 1042 :         return {_Scary->_Insert_node(_Loc._Location, _Inserted), true};

  0017a	ff 75 cc	 push	 DWORD PTR __Loc$[ebp]

; 832  :         _Construct_in_place(this->_Ptr->_Parent, _Myhead);

  0017d	89 46 04	 mov	 DWORD PTR [esi+4], eax

; 833  :         _Construct_in_place(this->_Ptr->_Right, _Myhead);

  00180	89 46 08	 mov	 DWORD PTR [esi+8], eax

; 834  :         this->_Ptr->_Color = _Red;

  00183	66 c7 46 0c 00
	00		 mov	 WORD PTR [esi+12], 0

; 1042 :         return {_Scary->_Insert_node(_Loc._Location, _Inserted), true};

  00189	e8 00 00 00 00	 call	 ?_Insert_node@?$_Tree_val@U?$_Tree_simple_types@U?$pair@$$CBV?$basic_string@DU?$char_traits@D@std@@V?$allocator@D@2@@std@@PAX@std@@@std@@@std@@QAEPAU?$_Tree_node@U?$pair@$$CBV?$basic_string@DU?$char_traits@D@std@@V?$allocator@D@2@@std@@PAX@std@@PAX@2@U?$_Tree_id@PAU?$_Tree_node@U?$pair@$$CBV?$basic_string@DU?$char_traits@D@std@@V?$allocator@D@2@@std@@PAX@std@@PAX@std@@@2@QAU32@@Z ; std::_Tree_val<std::_Tree_simple_types<std::pair<std::basic_string<char,std::char_traits<char>,std::allocator<char> > const ,void *> > >::_Insert_node
; File C:\Program Files\Microsoft Visual Studio\2022\Professional\VC\Tools\MSVC\14.44.35207\include\utility

; 274  :         : first(_STD forward<_Other1>(_Val1)), second(_STD forward<_Other2>(_Val2)) {

  0018e	8b 4d 08	 mov	 ecx, DWORD PTR ___$ReturnUdt$[ebp]
  00191	89 01		 mov	 DWORD PTR [ecx], eax
; File C:\Program Files\Microsoft Visual Studio\2022\Professional\VC\Tools\MSVC\14.44.35207\include\xtree

; 1042 :         return {_Scary->_Insert_node(_Loc._Location, _Inserted), true};

  00193	8b c1		 mov	 eax, ecx
; File C:\Program Files\Microsoft Visual Studio\2022\Professional\VC\Tools\MSVC\14.44.35207\include\utility

; 274  :         : first(_STD forward<_Other1>(_Val1)), second(_STD forward<_Other2>(_Val2)) {

  00195	c6 41 04 01	 mov	 BYTE PTR [ecx+4], 1
; File C:\Program Files\Microsoft Visual Studio\2022\Professional\VC\Tools\MSVC\14.44.35207\include\xtree

; 1043 :     }

  00199	8b 4d f4	 mov	 ecx, DWORD PTR __$EHRec$[ebp]
  0019c	64 89 0d 00 00
	00 00		 mov	 DWORD PTR fs:0, ecx
  001a3	59		 pop	 ecx
  001a4	5f		 pop	 edi
  001a5	5e		 pop	 esi
  001a6	8b e5		 mov	 esp, ebp
  001a8	5d		 pop	 ebp
  001a9	c2 08 00	 ret	 8
$LN195@Emplace:

; 1649 :             _Throw_tree_length_error();

  001ac	e8 00 00 00 00	 call	 ?_Throw_tree_length_error@std@@YAXXZ ; std::_Throw_tree_length_error
$LN196@Emplace:
; File C:\Program Files\Microsoft Visual Studio\2022\Professional\VC\Tools\MSVC\14.44.35207\include\xstring

; 882  :             _Xlen_string(); // result too long

  001b1	e8 00 00 00 00	 call	 ?_Xlen_string@std@@YAXXZ ; std::_Xlen_string
$LN192@Emplace:
  001b6	cc		 int	 3
_TEXT	ENDS
;	COMDAT text$x
text$x	SEGMENT
__unwindfunclet$??$_Emplace@U?$pair@$$CBV?$basic_string@DU?$char_traits@D@std@@V?$allocator@D@2@@std@@PAX@std@@@?$_Tree@V?$_Tmap_traits@V?$basic_string@DU?$char_traits@D@std@@V?$allocator@D@2@@std@@PAXU?$less@V?$basic_string@DU?$char_traits@D@std@@V?$allocator@D@2@@std@@@2@V?$allocator@U?$pair@$$CBV?$basic_string@DU?$char_traits@D@std@@V?$allocator@D@2@@std@@PAX@std@@@2@$0A@@std@@@std@@IAE?AU?$pair@PAU?$_Tree_node@U?$pair@$$CBV?$basic_string@DU?$char_traits@D@std@@V?$allocator@D@2@@std@@PAX@std@@PAX@std@@_N@1@$$QAU?$pair@$$CBV?$basic_string@DU?$char_traits@D@std@@V?$allocator@D@2@@std@@PAX@1@@Z$2:
  00000	8d 4d dc	 lea	 ecx, DWORD PTR $T3[ebp]
  00003	e9 00 00 00 00	 jmp	 ??1?$_Alloc_construct_ptr@V?$allocator@U?$_Tree_node@U?$pair@$$CBV?$basic_string@DU?$char_traits@D@std@@V?$allocator@D@2@@std@@PAX@std@@PAX@std@@@std@@@std@@QAE@XZ ; std::_Alloc_construct_ptr<std::allocator<std::_Tree_node<std::pair<std::basic_string<char,std::char_traits<char>,std::allocator<char> > const ,void *>,void *> > >::~_Alloc_construct_ptr<std::allocator<std::_Tree_node<std::pair<std::basic_string<char,std::char_traits<char>,std::allocator<char> > const ,void *>,void *> > >
__unwindfunclet$??$_Emplace@U?$pair@$$CBV?$basic_string@DU?$char_traits@D@std@@V?$allocator@D@2@@std@@PAX@std@@@?$_Tree@V?$_Tmap_traits@V?$basic_string@DU?$char_traits@D@std@@V?$allocator@D@2@@std@@PAXU?$less@V?$basic_string@DU?$char_traits@D@std@@V?$allocator@D@2@@std@@@2@V?$allocator@U?$pair@$$CBV?$basic_string@DU?$char_traits@D@std@@V?$allocator@D@2@@std@@PAX@std@@@2@$0A@@std@@@std@@IAE?AU?$pair@PAU?$_Tree_node@U?$pair@$$CBV?$basic_string@DU?$char_traits@D@std@@V?$allocator@D@2@@std@@PAX@std@@PAX@std@@_N@1@$$QAU?$pair@$$CBV?$basic_string@DU?$char_traits@D@std@@V?$allocator@D@2@@std@@PAX@1@@Z$1:
  00008	8d 4d dc	 lea	 ecx, DWORD PTR $T3[ebp]
  0000b	e9 00 00 00 00	 jmp	 ??1?$_Tree_temp_node_alloc@V?$allocator@U?$_Tree_node@U?$pair@$$CBV?$basic_string@DU?$char_traits@D@std@@V?$allocator@D@2@@std@@PAX@std@@PAX@std@@@std@@@std@@QAE@XZ
  00010	cc		 int	 3
  00011	cc		 int	 3
  00012	cc		 int	 3
  00013	cc		 int	 3
  00014	cc		 int	 3
__ehhandler$??$_Emplace@U?$pair@$$CBV?$basic_string@DU?$char_traits@D@std@@V?$allocator@D@2@@std@@PAX@std@@@?$_Tree@V?$_Tmap_traits@V?$basic_string@DU?$char_traits@D@std@@V?$allocator@D@2@@std@@PAXU?$less@V?$basic_string@DU?$char_traits@D@std@@V?$allocator@D@2@@std@@@2@V?$allocator@U?$pair@$$CBV?$basic_string@DU?$char_traits@D@std@@V?$allocator@D@2@@std@@PAX@std@@@2@$0A@@std@@@std@@IAE?AU?$pair@PAU?$_Tree_node@U?$pair@$$CBV?$basic_string@DU?$char_traits@D@std@@V?$allocator@D@2@@std@@PAX@std@@PAX@std@@_N@1@$$QAU?$pair@$$CBV?$basic_string@DU?$char_traits@D@std@@V?$allocator@D@2@@std@@PAX@1@@Z:
  00015	90		 npad	 1
  00016	90		 npad	 1
  00017	8b 54 24 08	 mov	 edx, DWORD PTR [esp+8]
  0001b	8d 42 0c	 lea	 eax, DWORD PTR [edx+12]
  0001e	8b 4a cc	 mov	 ecx, DWORD PTR [edx-52]
  00021	33 c8		 xor	 ecx, eax
  00023	e8 00 00 00 00	 call	 @__security_check_cookie@4
  00028	b8 00 00 00 00	 mov	 eax, OFFSET __ehfuncinfo$??$_Emplace@U?$pair@$$CBV?$basic_string@DU?$char_traits@D@std@@V?$allocator@D@2@@std@@PAX@std@@@?$_Tree@V?$_Tmap_traits@V?$basic_string@DU?$char_traits@D@std@@V?$allocator@D@2@@std@@PAXU?$less@V?$basic_string@DU?$char_traits@D@std@@V?$allocator@D@2@@std@@@2@V?$allocator@U?$pair@$$CBV?$basic_string@DU?$char_traits@D@std@@V?$allocator@D@2@@std@@PAX@std@@@2@$0A@@std@@@std@@IAE?AU?$pair@PAU?$_Tree_node@U?$pair@$$CBV?$basic_string@DU?$char_traits@D@std@@V?$allocator@D@2@@std@@PAX@std@@PAX@std@@_N@1@$$QAU?$pair@$$CBV?$basic_string@DU?$char_traits@D@std@@V?$allocator@D@2@@std@@PAX@1@@Z
  0002d	e9 00 00 00 00	 jmp	 ___CxxFrameHandler3
text$x	ENDS
??$_Emplace@U?$pair@$$CBV?$basic_string@DU?$char_traits@D@std@@V?$allocator@D@2@@std@@PAX@std@@@?$_Tree@V?$_Tmap_traits@V?$basic_string@DU?$char_traits@D@std@@V?$allocator@D@2@@std@@PAXU?$less@V?$basic_string@DU?$char_traits@D@std@@V?$allocator@D@2@@std@@@2@V?$allocator@U?$pair@$$CBV?$basic_string@DU?$char_traits@D@std@@V?$allocator@D@2@@std@@PAX@std@@@2@$0A@@std@@@std@@IAE?AU?$pair@PAU?$_Tree_node@U?$pair@$$CBV?$basic_string@DU?$char_traits@D@std@@V?$allocator@D@2@@std@@PAX@std@@PAX@std@@_N@1@$$QAU?$pair@$$CBV?$basic_string@DU?$char_traits@D@std@@V?$allocator@D@2@@std@@PAX@1@@Z ENDP ; std::_Tree<std::_Tmap_traits<std::basic_string<char,std::char_traits<char>,std::allocator<char> >,void *,std::less<std::basic_string<char,std::char_traits<char>,std::allocator<char> > >,std::allocator<std::pair<std::basic_string<char,std::char_traits<char>,std::allocator<char> > const ,void *> >,0> >::_Emplace<std::pair<std::basic_string<char,std::char_traits<char>,std::allocator<char> > const ,void *> >
; Function compile flags: /Ogtp
;	COMDAT ??1?$pair@$$CBV?$basic_string@DU?$char_traits@D@std@@V?$allocator@D@2@@std@@PAX@std@@QAE@XZ
_TEXT	SEGMENT
??1?$pair@$$CBV?$basic_string@DU?$char_traits@D@std@@V?$allocator@D@2@@std@@PAX@std@@QAE@XZ PROC ; std::pair<std::basic_string<char,std::char_traits<char>,std::allocator<char> > const ,void *>::~pair<std::basic_string<char,std::char_traits<char>,std::allocator<char> > const ,void *>, COMDAT
; _this$ = ecx
  00000	e9 00 00 00 00	 jmp	 ??1?$basic_string@DU?$char_traits@D@std@@V?$allocator@D@2@@std@@QAE@XZ ; std::basic_string<char,std::char_traits<char>,std::allocator<char> >::~basic_string<char,std::char_traits<char>,std::allocator<char> >
??1?$pair@$$CBV?$basic_string@DU?$char_traits@D@std@@V?$allocator@D@2@@std@@PAX@std@@QAE@XZ ENDP ; std::pair<std::basic_string<char,std::char_traits<char>,std::allocator<char> > const ,void *>::~pair<std::basic_string<char,std::char_traits<char>,std::allocator<char> > const ,void *>
_TEXT	ENDS
; Function compile flags: /Ogtp
; File C:\Program Files\Microsoft Visual Studio\2022\Professional\VC\Tools\MSVC\14.44.35207\include\xmemory
;	COMDAT ??$_Allocate_manually_vector_aligned@U_Default_allocate_traits@std@@@std@@YAPAXI@Z
_TEXT	SEGMENT
__Bytes$ = 8						; size = 4
??$_Allocate_manually_vector_aligned@U_Default_allocate_traits@std@@@std@@YAPAXI@Z PROC ; std::_Allocate_manually_vector_aligned<std::_Default_allocate_traits>, COMDAT

; 182  : __declspec(allocator) void* _Allocate_manually_vector_aligned(const size_t _Bytes) {

  00000	55		 push	 ebp
  00001	8b ec		 mov	 ebp, esp

; 183  :     // allocate _Bytes manually aligned to at least _Big_allocation_alignment
; 184  :     const size_t _Block_size = _Non_user_size + _Bytes;

  00003	8b 45 08	 mov	 eax, DWORD PTR __Bytes$[ebp]
  00006	8d 48 23	 lea	 ecx, DWORD PTR [eax+35]

; 185  :     if (_Block_size <= _Bytes) {

  00009	3b c8		 cmp	 ecx, eax
  0000b	0f 86 00 00 00
	00		 jbe	 ?_Throw_bad_array_new_length@std@@YAXXZ ; std::_Throw_bad_array_new_length

; 136  :         return ::operator new(_Bytes);

  00011	51		 push	 ecx
  00012	e8 00 00 00 00	 call	 ??2@YAPAXI@Z		; operator new

; 186  :         _Throw_bad_array_new_length(); // add overflow
; 187  :     }
; 188  : 
; 189  :     const uintptr_t _Ptr_container = reinterpret_cast<uintptr_t>(_Traits::_Allocate(_Block_size));

  00017	8b c8		 mov	 ecx, eax

; 136  :         return ::operator new(_Bytes);

  00019	83 c4 04	 add	 esp, 4

; 190  :     _STL_VERIFY(_Ptr_container != 0, "invalid argument"); // validate even in release since we're doing p[-1]

  0001c	85 c9		 test	 ecx, ecx
  0001e	74 0b		 je	 SHORT $LN9@Allocate_m

; 191  :     void* const _Ptr = reinterpret_cast<void*>((_Ptr_container + _Non_user_size) & ~(_Big_allocation_alignment - 1));

  00020	8d 41 23	 lea	 eax, DWORD PTR [ecx+35]
  00023	83 e0 e0	 and	 eax, -32		; ffffffe0H

; 192  :     static_cast<uintptr_t*>(_Ptr)[-1] = _Ptr_container;

  00026	89 48 fc	 mov	 DWORD PTR [eax-4], ecx

; 193  : 
; 194  : #ifdef _DEBUG
; 195  :     static_cast<uintptr_t*>(_Ptr)[-2] = _Big_allocation_sentinel;
; 196  : #endif // defined(_DEBUG)
; 197  :     return _Ptr;
; 198  : }

  00029	5d		 pop	 ebp
  0002a	c3		 ret	 0
$LN9@Allocate_m:

; 190  :     _STL_VERIFY(_Ptr_container != 0, "invalid argument"); // validate even in release since we're doing p[-1]

  0002b	6a 00		 push	 0
  0002d	6a 00		 push	 0
  0002f	6a 00		 push	 0
  00031	6a 00		 push	 0
  00033	6a 00		 push	 0
  00035	e8 00 00 00 00	 call	 __invoke_watson
$LN7@Allocate_m:
  0003a	cc		 int	 3
??$_Allocate_manually_vector_aligned@U_Default_allocate_traits@std@@@std@@YAPAXI@Z ENDP ; std::_Allocate_manually_vector_aligned<std::_Default_allocate_traits>
_TEXT	ENDS
; Function compile flags: /Ogtp
; File C:\Program Files\Microsoft Visual Studio\2022\Professional\VC\Tools\MSVC\14.44.35207\include\xstring
; File C:\Program Files\Microsoft Visual Studio\2022\Professional\VC\Tools\MSVC\14.44.35207\include\__msvc_string_view.hpp
; File C:\Program Files\Microsoft Visual Studio\2022\Professional\VC\Tools\MSVC\14.44.35207\include\xstring
; File C:\Program Files\Microsoft Visual Studio\2022\Professional\VC\Tools\MSVC\14.44.35207\include\__msvc_string_view.hpp
; File C:\Program Files\Microsoft Visual Studio\2022\Professional\VC\Tools\MSVC\14.44.35207\include\xstring
; File C:\Program Files\Microsoft Visual Studio\2022\Professional\VC\Tools\MSVC\14.44.35207\include\__msvc_string_view.hpp
; File C:\Program Files\Microsoft Visual Studio\2022\Professional\VC\Tools\MSVC\14.44.35207\include\xstring
;	COMDAT ??$?MDU?$char_traits@D@std@@V?$allocator@D@1@@std@@YA_NABV?$basic_string@DU?$char_traits@D@std@@V?$allocator@D@2@@0@0@Z
_TEXT	SEGMENT
__Left$ = 8						; size = 4
__Right$ = 12						; size = 4
??$?MDU?$char_traits@D@std@@V?$allocator@D@1@@std@@YA_NABV?$basic_string@DU?$char_traits@D@std@@V?$allocator@D@2@@0@0@Z PROC ; std::operator<<char,std::char_traits<char>,std::allocator<char> >, COMDAT

; 3307 :     const basic_string<_Elem, _Traits, _Alloc>& _Left, const basic_string<_Elem, _Traits, _Alloc>& _Right) noexcept {

  00000	55		 push	 ebp
  00001	8b ec		 mov	 ebp, esp

; 444  :         const value_type* _Result = _Bx._Buf;

  00003	8b 45 0c	 mov	 eax, DWORD PTR __Right$[ebp]
  00006	8b c8		 mov	 ecx, eax

; 453  :         return _Myres > _Small_string_capacity;

  00008	83 78 14 0f	 cmp	 DWORD PTR [eax+20], 15	; 0000000fH

; 445  :         if (_Large_mode_engaged()) {

  0000c	76 02		 jbe	 SHORT $LN8@operator

; 446  :             _Result = _Unfancy(_Bx._Ptr);

  0000e	8b 08		 mov	 ecx, DWORD PTR [eax]
$LN8@operator:
  00010	53		 push	 ebx
  00011	56		 push	 esi

; 444  :         const value_type* _Result = _Bx._Buf;

  00012	8b 75 08	 mov	 esi, DWORD PTR __Left$[ebp]
  00015	8b d6		 mov	 edx, esi
  00017	57		 push	 edi

; 453  :         return _Myres > _Small_string_capacity;

  00018	83 7e 14 0f	 cmp	 DWORD PTR [esi+20], 15	; 0000000fH

; 445  :         if (_Large_mode_engaged()) {

  0001c	76 02		 jbe	 SHORT $LN15@operator

; 446  :             _Result = _Unfancy(_Bx._Ptr);

  0001e	8b 16		 mov	 edx, DWORD PTR [esi]
$LN15@operator:

; 2890 :         return _Traits_compare<_Traits>(_Mypair._Myval2._Myptr(), _Mypair._Myval2._Mysize,

  00020	8b 5e 10	 mov	 ebx, DWORD PTR [esi+16]
  00023	8b f3		 mov	 esi, ebx
  00025	8b 78 10	 mov	 edi, DWORD PTR [eax+16]
  00028	3b fb		 cmp	 edi, ebx
  0002a	0f 42 f7	 cmovb	 esi, edi
; File C:\Program Files\Microsoft Visual Studio\2022\Professional\VC\Tools\MSVC\14.44.35207\include\__msvc_string_view.hpp

; 439  :         return _CSTD memcmp(_First1, _First2, _Count);

  0002d	83 ee 04	 sub	 esi, 4
  00030	72 11		 jb	 SHORT $LN35@operator
$LL36@operator:
  00032	8b 02		 mov	 eax, DWORD PTR [edx]
  00034	3b 01		 cmp	 eax, DWORD PTR [ecx]
  00036	75 10		 jne	 SHORT $LN34@operator
  00038	83 c2 04	 add	 edx, 4
  0003b	83 c1 04	 add	 ecx, 4
  0003e	83 ee 04	 sub	 esi, 4
  00041	73 ef		 jae	 SHORT $LL36@operator
$LN35@operator:
  00043	83 fe fc	 cmp	 esi, -4			; fffffffcH
  00046	74 34		 je	 SHORT $LN33@operator
$LN34@operator:
  00048	8a 02		 mov	 al, BYTE PTR [edx]
  0004a	3a 01		 cmp	 al, BYTE PTR [ecx]
  0004c	75 27		 jne	 SHORT $LN37@operator
  0004e	83 fe fd	 cmp	 esi, -3			; fffffffdH
  00051	74 29		 je	 SHORT $LN33@operator
  00053	8a 42 01	 mov	 al, BYTE PTR [edx+1]
  00056	3a 41 01	 cmp	 al, BYTE PTR [ecx+1]
  00059	75 1a		 jne	 SHORT $LN37@operator
  0005b	83 fe fe	 cmp	 esi, -2			; fffffffeH
  0005e	74 1c		 je	 SHORT $LN33@operator
  00060	8a 42 02	 mov	 al, BYTE PTR [edx+2]
  00063	3a 41 02	 cmp	 al, BYTE PTR [ecx+2]
  00066	75 0d		 jne	 SHORT $LN37@operator
  00068	83 fe ff	 cmp	 esi, -1
  0006b	74 0f		 je	 SHORT $LN33@operator
  0006d	8a 42 03	 mov	 al, BYTE PTR [edx+3]
  00070	3a 41 03	 cmp	 al, BYTE PTR [ecx+3]
  00073	74 07		 je	 SHORT $LN33@operator
$LN37@operator:
  00075	1b c0		 sbb	 eax, eax
  00077	83 c8 01	 or	 eax, 1
  0007a	eb 02		 jmp	 SHORT $LN38@operator
$LN33@operator:
  0007c	33 c0		 xor	 eax, eax
$LN38@operator:

; 621  :     if (_Ans != 0) {

  0007e	85 c0		 test	 eax, eax
  00080	75 13		 jne	 SHORT $LN24@operator

; 622  :         return _Ans;
; 623  :     }
; 624  : 
; 625  :     if (_Left_size < _Right_size) {

  00082	3b fb		 cmp	 edi, ebx
  00084	76 0b		 jbe	 SHORT $LN51@operator
; File C:\Program Files\Microsoft Visual Studio\2022\Professional\VC\Tools\MSVC\14.44.35207\include\xstring

; 3308 :     return _Left.compare(_Right) < 0;

  00086	5f		 pop	 edi
; File C:\Program Files\Microsoft Visual Studio\2022\Professional\VC\Tools\MSVC\14.44.35207\include\__msvc_string_view.hpp

; 626  :         return -1;

  00087	83 c8 ff	 or	 eax, -1
; File C:\Program Files\Microsoft Visual Studio\2022\Professional\VC\Tools\MSVC\14.44.35207\include\xstring

; 3308 :     return _Left.compare(_Right) < 0;

  0008a	5e		 pop	 esi
  0008b	c1 e8 1f	 shr	 eax, 31			; 0000001fH
  0008e	5b		 pop	 ebx

; 3309 : }

  0008f	5d		 pop	 ebp
  00090	c3		 ret	 0
$LN51@operator:
; File C:\Program Files\Microsoft Visual Studio\2022\Professional\VC\Tools\MSVC\14.44.35207\include\__msvc_string_view.hpp

; 629  :     if (_Left_size > _Right_size) {

  00091	1b c0		 sbb	 eax, eax
  00093	f7 d8		 neg	 eax
$LN24@operator:
; File C:\Program Files\Microsoft Visual Studio\2022\Professional\VC\Tools\MSVC\14.44.35207\include\xstring

; 3308 :     return _Left.compare(_Right) < 0;

  00095	5f		 pop	 edi
  00096	5e		 pop	 esi
  00097	c1 e8 1f	 shr	 eax, 31			; 0000001fH
  0009a	5b		 pop	 ebx

; 3309 : }

  0009b	5d		 pop	 ebp
  0009c	c3		 ret	 0
??$?MDU?$char_traits@D@std@@V?$allocator@D@1@@std@@YA_NABV?$basic_string@DU?$char_traits@D@std@@V?$allocator@D@2@@0@0@Z ENDP ; std::operator<<char,std::char_traits<char>,std::allocator<char> >
_TEXT	ENDS
; Function compile flags: /Ogtp
; File C:\IAGOS\server\v18\Source\Source\_Common\ModelMng.cpp
; File C:\Program Files\Microsoft Visual Studio\2022\Professional\VC\Tools\MSVC\14.44.35207\include\xtree
; File C:\IAGOS\server\v18\Source\Source\_Common\ModelMng.cpp
; File C:\Program Files\Microsoft Visual Studio\2022\Professional\VC\Tools\MSVC\14.44.35207\include\xtree
; File C:\IAGOS\server\v18\Source\Source\_Common\ModelMng.cpp
; File C:\Program Files\Microsoft Visual Studio\2022\Professional\VC\Tools\MSVC\14.44.35207\include\xtree
; File C:\IAGOS\server\v18\Source\Source\_Common\ModelMng.cpp
; File C:\Program Files\Microsoft Visual Studio\2022\Professional\VC\Tools\MSVC\14.44.35207\include\xtree
; File C:\IAGOS\server\v18\Source\Source\_Common\ModelMng.cpp
; File C:\Program Files\Microsoft Visual Studio\2022\Professional\VC\Tools\MSVC\14.44.35207\include\xtree
; File C:\IAGOS\server\v18\Source\Source\_Common\ModelMng.cpp
;	COMDAT ?DeleteDeviceObjects@CModelMng@@QAEJXZ
_TEXT	SEGMENT
?DeleteDeviceObjects@CModelMng@@QAEJXZ PROC		; CModelMng::DeleteDeviceObjects, COMDAT
; _this$ = ecx

; 302  : {

  00000	53		 push	 ebx
  00001	8b d9		 mov	 ebx, ecx
  00003	56		 push	 esi
  00004	57		 push	 edi
; File C:\Program Files\Microsoft Visual Studio\2022\Professional\VC\Tools\MSVC\14.44.35207\include\xtree

; 1142 :         return iterator(_Scary->_Myhead->_Left, _Scary);

  00005	8b 3b		 mov	 edi, DWORD PTR [ebx]

; 37   :     _Tree_unchecked_const_iterator(_Nodeptr _Pnode, const _Mytree* _Plist) noexcept : _Ptr(_Pnode) {

  00007	8b 37		 mov	 esi, DWORD PTR [edi]

; 237  :         return !(*this == _Right);

  00009	3b f7		 cmp	 esi, edi
; File C:\IAGOS\server\v18\Source\Source\_Common\ModelMng.cpp

; 305  : 	for( itor = m_mapFileToMesh.begin(); itor != m_mapFileToMesh.end(); itor++ )

  0000b	74 5a		 je	 SHORT $LN3@DeleteDevi
  0000d	0f 1f 00	 npad	 3
$LL4@DeleteDevi:

; 306  : 	{
; 307  : 		((CModel*)(*itor).second)->DeleteDeviceObjects();

  00010	8b 4e 28	 mov	 ecx, DWORD PTR [esi+40]
  00013	8b 01		 mov	 eax, DWORD PTR [ecx]
  00015	ff 50 64	 call	 DWORD PTR [eax+100]

; 308  : 		CModel* pModel = ( CModel* )(*itor).second;

  00018	8b 4e 28	 mov	 ecx, DWORD PTR [esi+40]

; 309  : 		SAFE_DELETE( pModel );

  0001b	85 c9		 test	 ecx, ecx
  0001d	74 06		 je	 SHORT $LN2@DeleteDevi
  0001f	8b 01		 mov	 eax, DWORD PTR [ecx]
  00021	6a 01		 push	 1
  00023	ff 10		 call	 DWORD PTR [eax]
$LN2@DeleteDevi:
; File C:\Program Files\Microsoft Visual Studio\2022\Professional\VC\Tools\MSVC\14.44.35207\include\xtree

; 50   :         if (_Ptr->_Right->_Isnil) { // climb looking for right subtree

  00025	8b 46 08	 mov	 eax, DWORD PTR [esi+8]
  00028	80 78 0d 00	 cmp	 BYTE PTR [eax+13], 0
  0002c	74 1d		 je	 SHORT $LN39@DeleteDevi

; 51   :             _Nodeptr _Pnode;
; 52   :             while (!(_Pnode = _Ptr->_Parent)->_Isnil && _Ptr == _Pnode->_Right) {

  0002e	8b 46 04	 mov	 eax, DWORD PTR [esi+4]
  00031	80 78 0d 00	 cmp	 BYTE PTR [eax+13], 0
  00035	75 10		 jne	 SHORT $LN93@DeleteDevi
$LL37@DeleteDevi:
  00037	3b 70 08	 cmp	 esi, DWORD PTR [eax+8]
  0003a	75 0b		 jne	 SHORT $LN93@DeleteDevi

; 53   :                 _Ptr = _Pnode; // ==> parent while right subtree

  0003c	8b f0		 mov	 esi, eax
  0003e	8b 40 04	 mov	 eax, DWORD PTR [eax+4]
  00041	80 78 0d 00	 cmp	 BYTE PTR [eax+13], 0
  00045	74 f0		 je	 SHORT $LL37@DeleteDevi
$LN93@DeleteDevi:

; 54   :             }
; 55   : 
; 56   :             _Ptr = _Pnode; // ==> parent (head if end())

  00047	8b f0		 mov	 esi, eax

; 57   :         } else {

  00049	eb 16		 jmp	 SHORT $LN45@DeleteDevi
$LN39@DeleteDevi:

; 58   :             _Ptr = _Mytree::_Min(_Ptr->_Right); // ==> smallest of right subtree

  0004b	8b f0		 mov	 esi, eax

; 476  :         while (!_Pnode->_Left->_Isnil) {

  0004d	8b 0e		 mov	 ecx, DWORD PTR [esi]
  0004f	80 79 0d 00	 cmp	 BYTE PTR [ecx+13], 0
  00053	75 0c		 jne	 SHORT $LN45@DeleteDevi
$LL44@DeleteDevi:
  00055	8b 01		 mov	 eax, DWORD PTR [ecx]

; 477  :             _Pnode = _Pnode->_Left;

  00057	8b f1		 mov	 esi, ecx
  00059	8b c8		 mov	 ecx, eax
  0005b	80 78 0d 00	 cmp	 BYTE PTR [eax+13], 0
  0005f	74 f4		 je	 SHORT $LL44@DeleteDevi
$LN45@DeleteDevi:

; 37   :     _Tree_unchecked_const_iterator(_Nodeptr _Pnode, const _Mytree* _Plist) noexcept : _Ptr(_Pnode) {

  00061	8b 3b		 mov	 edi, DWORD PTR [ebx]

; 237  :         return !(*this == _Right);

  00063	3b f7		 cmp	 esi, edi
; File C:\IAGOS\server\v18\Source\Source\_Common\ModelMng.cpp

; 305  : 	for( itor = m_mapFileToMesh.begin(); itor != m_mapFileToMesh.end(); itor++ )

  00065	75 a9		 jne	 SHORT $LL4@DeleteDevi
$LN3@DeleteDevi:
; File C:\Program Files\Microsoft Visual Studio\2022\Professional\VC\Tools\MSVC\14.44.35207\include\xtree

; 1374 :         _Scary->_Erase_tree(_Getal(), _Head->_Parent);

  00067	ff 77 04	 push	 DWORD PTR [edi+4]
  0006a	8b cb		 mov	 ecx, ebx
  0006c	53		 push	 ebx
  0006d	e8 00 00 00 00	 call	 ??$_Erase_tree@V?$allocator@U?$_Tree_node@U?$pair@$$CBV?$basic_string@DU?$char_traits@D@std@@V?$allocator@D@2@@std@@PAX@std@@PAX@std@@@std@@@?$_Tree_val@U?$_Tree_simple_types@U?$pair@$$CBV?$basic_string@DU?$char_traits@D@std@@V?$allocator@D@2@@std@@PAX@std@@@std@@@std@@QAEXAAV?$allocator@U?$_Tree_node@U?$pair@$$CBV?$basic_string@DU?$char_traits@D@std@@V?$allocator@D@2@@std@@PAX@std@@PAX@std@@@1@PAU?$_Tree_node@U?$pair@$$CBV?$basic_string@DU?$char_traits@D@std@@V?$allocator@D@2@@std@@PAX@std@@PAX@1@@Z ; std::_Tree_val<std::_Tree_simple_types<std::pair<std::basic_string<char,std::char_traits<char>,std::allocator<char> > const ,void *> > >::_Erase_tree<std::allocator<std::_Tree_node<std::pair<std::basic_string<char,std::char_traits<char>,std::allocator<char> > const ,void *>,void *> > >

; 1375 :         _Head->_Parent  = _Head;

  00072	89 7f 04	 mov	 DWORD PTR [edi+4], edi
; File C:\IAGOS\server\v18\Source\Source\_Common\ModelMng.cpp

; 312  : 	return hr;

  00075	33 c0		 xor	 eax, eax
; File C:\Program Files\Microsoft Visual Studio\2022\Professional\VC\Tools\MSVC\14.44.35207\include\xtree

; 1376 :         _Head->_Left    = _Head;

  00077	89 3f		 mov	 DWORD PTR [edi], edi

; 1377 :         _Head->_Right   = _Head;

  00079	89 7f 08	 mov	 DWORD PTR [edi+8], edi
; File C:\IAGOS\server\v18\Source\Source\_Common\ModelMng.cpp

; 312  : 	return hr;

  0007c	5f		 pop	 edi
  0007d	5e		 pop	 esi
; File C:\Program Files\Microsoft Visual Studio\2022\Professional\VC\Tools\MSVC\14.44.35207\include\xtree

; 1378 :         _Scary->_Mysize = 0;

  0007e	c7 43 04 00 00
	00 00		 mov	 DWORD PTR [ebx+4], 0
; File C:\IAGOS\server\v18\Source\Source\_Common\ModelMng.cpp

; 312  : 	return hr;

  00085	5b		 pop	 ebx

; 313  : }

  00086	c3		 ret	 0
?DeleteDeviceObjects@CModelMng@@QAEJXZ ENDP		; CModelMng::DeleteDeviceObjects
_TEXT	ENDS
; Function compile flags: /Ogtp
; File C:\IAGOS\server\v18\Source\Source\_Common\ModelMng.cpp
; File C:\Program Files\Microsoft Visual Studio\2022\Professional\VC\Tools\MSVC\14.44.35207\include\xtree
; File C:\IAGOS\server\v18\Source\Source\_Common\ModelMng.cpp
; File C:\Program Files\Microsoft Visual Studio\2022\Professional\VC\Tools\MSVC\14.44.35207\include\xtree
; File C:\IAGOS\server\v18\Source\Source\_Common\ModelMng.cpp
;	COMDAT ?InvalidateDeviceObjects@CModelMng@@QAEJXZ
_TEXT	SEGMENT
?InvalidateDeviceObjects@CModelMng@@QAEJXZ PROC		; CModelMng::InvalidateDeviceObjects, COMDAT
; _this$ = ecx

; 294  : {

  00000	56		 push	 esi
  00001	57		 push	 edi
  00002	8b f9		 mov	 edi, ecx
; File C:\Program Files\Microsoft Visual Studio\2022\Professional\VC\Tools\MSVC\14.44.35207\include\xtree

; 1142 :         return iterator(_Scary->_Myhead->_Left, _Scary);

  00004	8b 07		 mov	 eax, DWORD PTR [edi]

; 37   :     _Tree_unchecked_const_iterator(_Nodeptr _Pnode, const _Mytree* _Plist) noexcept : _Ptr(_Pnode) {

  00006	8b 30		 mov	 esi, DWORD PTR [eax]

; 237  :         return !(*this == _Right);

  00008	3b f0		 cmp	 esi, eax
; File C:\IAGOS\server\v18\Source\Source\_Common\ModelMng.cpp

; 297  : 	for( itor = m_mapFileToMesh.begin(); itor != m_mapFileToMesh.end(); itor++ )

  0000a	74 54		 je	 SHORT $LN81@Invalidate
  0000c	0f 1f 40 00	 npad	 4
$LL4@Invalidate:

; 298  : 		((CModel*)(*itor).second)->InvalidateDeviceObjects();

  00010	8b 4e 28	 mov	 ecx, DWORD PTR [esi+40]
  00013	8b 01		 mov	 eax, DWORD PTR [ecx]
  00015	ff 50 60	 call	 DWORD PTR [eax+96]
; File C:\Program Files\Microsoft Visual Studio\2022\Professional\VC\Tools\MSVC\14.44.35207\include\xtree

; 50   :         if (_Ptr->_Right->_Isnil) { // climb looking for right subtree

  00018	8b 46 08	 mov	 eax, DWORD PTR [esi+8]
  0001b	80 78 0d 00	 cmp	 BYTE PTR [eax+13], 0
  0001f	74 23		 je	 SHORT $LN36@Invalidate

; 51   :             _Nodeptr _Pnode;
; 52   :             while (!(_Pnode = _Ptr->_Parent)->_Isnil && _Ptr == _Pnode->_Right) {

  00021	8b 46 04	 mov	 eax, DWORD PTR [esi+4]
  00024	80 78 0d 00	 cmp	 BYTE PTR [eax+13], 0
  00028	75 16		 jne	 SHORT $LN82@Invalidate
  0002a	66 0f 1f 44 00
	00		 npad	 6
$LL34@Invalidate:
  00030	3b 70 08	 cmp	 esi, DWORD PTR [eax+8]
  00033	75 0b		 jne	 SHORT $LN82@Invalidate

; 53   :                 _Ptr = _Pnode; // ==> parent while right subtree

  00035	8b f0		 mov	 esi, eax
  00037	8b 40 04	 mov	 eax, DWORD PTR [eax+4]
  0003a	80 78 0d 00	 cmp	 BYTE PTR [eax+13], 0
  0003e	74 f0		 je	 SHORT $LL34@Invalidate
$LN82@Invalidate:

; 54   :             }
; 55   : 
; 56   :             _Ptr = _Pnode; // ==> parent (head if end())

  00040	8b f0		 mov	 esi, eax

; 57   :         } else {

  00042	eb 18		 jmp	 SHORT $LN42@Invalidate
$LN36@Invalidate:

; 58   :             _Ptr = _Mytree::_Min(_Ptr->_Right); // ==> smallest of right subtree

  00044	8b f0		 mov	 esi, eax

; 476  :         while (!_Pnode->_Left->_Isnil) {

  00046	8b 0e		 mov	 ecx, DWORD PTR [esi]
  00048	80 79 0d 00	 cmp	 BYTE PTR [ecx+13], 0
  0004c	75 0e		 jne	 SHORT $LN42@Invalidate
  0004e	66 90		 npad	 2
$LL41@Invalidate:
  00050	8b 01		 mov	 eax, DWORD PTR [ecx]

; 477  :             _Pnode = _Pnode->_Left;

  00052	8b f1		 mov	 esi, ecx
  00054	8b c8		 mov	 ecx, eax
  00056	80 78 0d 00	 cmp	 BYTE PTR [eax+13], 0
  0005a	74 f4		 je	 SHORT $LL41@Invalidate
$LN42@Invalidate:

; 237  :         return !(*this == _Right);

  0005c	3b 37		 cmp	 esi, DWORD PTR [edi]
; File C:\IAGOS\server\v18\Source\Source\_Common\ModelMng.cpp

; 297  : 	for( itor = m_mapFileToMesh.begin(); itor != m_mapFileToMesh.end(); itor++ )

  0005e	75 b0		 jne	 SHORT $LL4@Invalidate
$LN81@Invalidate:
  00060	5f		 pop	 edi

; 299  : 	return hr;
; 300  : }

  00061	33 c0		 xor	 eax, eax
  00063	5e		 pop	 esi
  00064	c3		 ret	 0
?InvalidateDeviceObjects@CModelMng@@QAEJXZ ENDP		; CModelMng::InvalidateDeviceObjects
_TEXT	ENDS
; Function compile flags: /Ogtp
; File C:\IAGOS\server\v18\Source\Source\_Common\ModelMng.cpp
; File C:\Program Files\Microsoft Visual Studio\2022\Professional\VC\Tools\MSVC\14.44.35207\include\xtree
; File C:\IAGOS\server\v18\Source\Source\_Common\ModelMng.cpp
; File C:\Program Files\Microsoft Visual Studio\2022\Professional\VC\Tools\MSVC\14.44.35207\include\xtree
; File C:\IAGOS\server\v18\Source\Source\_Common\ModelMng.cpp
;	COMDAT ?RestoreDeviceObjects@CModelMng@@QAEJPAUIDirect3DDevice9@@@Z
_TEXT	SEGMENT
_pd3dDevice$ = 8					; size = 4
?RestoreDeviceObjects@CModelMng@@QAEJPAUIDirect3DDevice9@@@Z PROC ; CModelMng::RestoreDeviceObjects, COMDAT
; _this$ = ecx

; 286  : {

  00000	56		 push	 esi
  00001	57		 push	 edi
  00002	8b f9		 mov	 edi, ecx
; File C:\Program Files\Microsoft Visual Studio\2022\Professional\VC\Tools\MSVC\14.44.35207\include\xtree

; 1142 :         return iterator(_Scary->_Myhead->_Left, _Scary);

  00004	8b 07		 mov	 eax, DWORD PTR [edi]

; 37   :     _Tree_unchecked_const_iterator(_Nodeptr _Pnode, const _Mytree* _Plist) noexcept : _Ptr(_Pnode) {

  00006	8b 30		 mov	 esi, DWORD PTR [eax]

; 237  :         return !(*this == _Right);

  00008	3b f0		 cmp	 esi, eax
; File C:\IAGOS\server\v18\Source\Source\_Common\ModelMng.cpp

; 289  : 	for( itor = m_mapFileToMesh.begin(); itor != m_mapFileToMesh.end(); itor++ )

  0000a	74 54		 je	 SHORT $LN81@RestoreDev
  0000c	0f 1f 40 00	 npad	 4
$LL4@RestoreDev:

; 290  : 		((CModel*)(*itor).second)->RestoreDeviceObjects();

  00010	8b 4e 28	 mov	 ecx, DWORD PTR [esi+40]
  00013	8b 01		 mov	 eax, DWORD PTR [ecx]
  00015	ff 50 5c	 call	 DWORD PTR [eax+92]
; File C:\Program Files\Microsoft Visual Studio\2022\Professional\VC\Tools\MSVC\14.44.35207\include\xtree

; 50   :         if (_Ptr->_Right->_Isnil) { // climb looking for right subtree

  00018	8b 46 08	 mov	 eax, DWORD PTR [esi+8]
  0001b	80 78 0d 00	 cmp	 BYTE PTR [eax+13], 0
  0001f	74 23		 je	 SHORT $LN36@RestoreDev

; 51   :             _Nodeptr _Pnode;
; 52   :             while (!(_Pnode = _Ptr->_Parent)->_Isnil && _Ptr == _Pnode->_Right) {

  00021	8b 46 04	 mov	 eax, DWORD PTR [esi+4]
  00024	80 78 0d 00	 cmp	 BYTE PTR [eax+13], 0
  00028	75 16		 jne	 SHORT $LN82@RestoreDev
  0002a	66 0f 1f 44 00
	00		 npad	 6
$LL34@RestoreDev:
  00030	3b 70 08	 cmp	 esi, DWORD PTR [eax+8]
  00033	75 0b		 jne	 SHORT $LN82@RestoreDev

; 53   :                 _Ptr = _Pnode; // ==> parent while right subtree

  00035	8b f0		 mov	 esi, eax
  00037	8b 40 04	 mov	 eax, DWORD PTR [eax+4]
  0003a	80 78 0d 00	 cmp	 BYTE PTR [eax+13], 0
  0003e	74 f0		 je	 SHORT $LL34@RestoreDev
$LN82@RestoreDev:

; 54   :             }
; 55   : 
; 56   :             _Ptr = _Pnode; // ==> parent (head if end())

  00040	8b f0		 mov	 esi, eax

; 57   :         } else {

  00042	eb 18		 jmp	 SHORT $LN42@RestoreDev
$LN36@RestoreDev:

; 58   :             _Ptr = _Mytree::_Min(_Ptr->_Right); // ==> smallest of right subtree

  00044	8b f0		 mov	 esi, eax

; 476  :         while (!_Pnode->_Left->_Isnil) {

  00046	8b 0e		 mov	 ecx, DWORD PTR [esi]
  00048	80 79 0d 00	 cmp	 BYTE PTR [ecx+13], 0
  0004c	75 0e		 jne	 SHORT $LN42@RestoreDev
  0004e	66 90		 npad	 2
$LL41@RestoreDev:
  00050	8b 01		 mov	 eax, DWORD PTR [ecx]

; 477  :             _Pnode = _Pnode->_Left;

  00052	8b f1		 mov	 esi, ecx
  00054	8b c8		 mov	 ecx, eax
  00056	80 78 0d 00	 cmp	 BYTE PTR [eax+13], 0
  0005a	74 f4		 je	 SHORT $LL41@RestoreDev
$LN42@RestoreDev:

; 237  :         return !(*this == _Right);

  0005c	3b 37		 cmp	 esi, DWORD PTR [edi]
; File C:\IAGOS\server\v18\Source\Source\_Common\ModelMng.cpp

; 289  : 	for( itor = m_mapFileToMesh.begin(); itor != m_mapFileToMesh.end(); itor++ )

  0005e	75 b0		 jne	 SHORT $LL4@RestoreDev
$LN81@RestoreDev:
  00060	5f		 pop	 edi

; 291  : 	return hr;
; 292  : }

  00061	33 c0		 xor	 eax, eax
  00063	5e		 pop	 esi
  00064	c2 04 00	 ret	 4
?RestoreDeviceObjects@CModelMng@@QAEJPAUIDirect3DDevice9@@@Z ENDP ; CModelMng::RestoreDeviceObjects
_TEXT	ENDS
; Function compile flags: /Ogtp
; File C:\IAGOS\server\v18\Source\Source\_Common\ModelMng.cpp
;	COMDAT ?InitDeviceObjects@CModelMng@@QAEJPAUIDirect3DDevice9@@@Z
_TEXT	SEGMENT
_pd3dDevice$ = 8					; size = 4
?InitDeviceObjects@CModelMng@@QAEJPAUIDirect3DDevice9@@@Z PROC ; CModelMng::InitDeviceObjects, COMDAT
; _this$ = ecx

; 282  : 	HRESULT hr = S_OK;
; 283  : 	return hr;

  00000	33 c0		 xor	 eax, eax

; 284  : }

  00002	c2 04 00	 ret	 4
?InitDeviceObjects@CModelMng@@QAEJPAUIDirect3DDevice9@@@Z ENDP ; CModelMng::InitDeviceObjects
_TEXT	ENDS
; Function compile flags: /Ogtp
; File C:\IAGOS\server\v18\Source\Source\_Common\ModelMng.cpp
; File C:\Program Files\Microsoft Visual Studio\2022\Professional\VC\Tools\MSVC\14.44.35207\atlmfc\include\afxstr.h
; File C:\Program Files\Microsoft Visual Studio\2022\Professional\VC\Tools\MSVC\14.44.35207\atlmfc\include\atlsimpstr.h
; File C:\IAGOS\server\v18\Source\Source\_Common\ModelMng.cpp
; File C:\Program Files\Microsoft Visual Studio\2022\Professional\VC\Tools\MSVC\14.44.35207\atlmfc\include\atlsimpstr.h
; File C:\IAGOS\server\v18\Source\Source\_Common\ModelMng.cpp
; File C:\Program Files\Microsoft Visual Studio\2022\Professional\VC\Tools\MSVC\14.44.35207\atlmfc\include\atlsimpstr.h
; File C:\IAGOS\server\v18\Source\Source\_Common\ModelMng.cpp
; File C:\IAGOS\server\v18\Source\Source\_Common\ModelMng.h
; File C:\IAGOS\server\v18\Source\Source\_Common\ModelMng.cpp
; File C:\Program Files\Microsoft Visual Studio\2022\Professional\VC\Tools\MSVC\14.44.35207\atlmfc\include\afxstr.h
; File C:\Program Files\Microsoft Visual Studio\2022\Professional\VC\Tools\MSVC\14.44.35207\atlmfc\include\atlsimpstr.h
; File C:\IAGOS\server\v18\Source\Source\_Common\ModelMng.cpp
; File C:\Program Files\Microsoft Visual Studio\2022\Professional\VC\Tools\MSVC\14.44.35207\atlmfc\include\atlsimpstr.h
; File C:\IAGOS\server\v18\Source\Source\_Common\ModelMng.cpp
; File C:\IAGOS\server\v18\Source\Source\_Common\data.h
; File C:\IAGOS\server\v18\Source\Source\_Common\ModelMng.cpp
; File C:\Program Files\Microsoft Visual Studio\2022\Professional\VC\Tools\MSVC\14.44.35207\atlmfc\include\afxstr.h
; File C:\Program Files\Microsoft Visual Studio\2022\Professional\VC\Tools\MSVC\14.44.35207\atlmfc\include\atlsimpstr.h
; File C:\IAGOS\server\v18\Source\Source\_Common\ModelMng.cpp
; File C:\Program Files\Microsoft Visual Studio\2022\Professional\VC\Tools\MSVC\14.44.35207\atlmfc\include\atlsimpstr.h
; File C:\IAGOS\server\v18\Source\Source\_Common\ModelMng.cpp
; File C:\Program Files\Microsoft Visual Studio\2022\Professional\VC\Tools\MSVC\14.44.35207\atlmfc\include\atlsimpstr.h
; File C:\IAGOS\server\v18\Source\Source\_Common\ModelMng.cpp
;	COMDAT ?LoadScript@CModelMng@@QAEHPBD@Z
_TEXT	SEGMENT
_this$GSCopy$1$ = -3828					; size = 4
_iObject$1$ = -3824					; size = 4
_lpszFileName$GSCopy$1$ = -3820				; size = 4
_iType$1$ = -3816					; size = 4
_apModelElem$1$ = -3812					; size = 4
_str$2 = -3808						; size = 4
_str$3 = -3808						; size = 4
_str$4 = -3808						; size = 4
_script$ = -3804					; size = 3560
_modelElem$ = -244					; size = 132
_szMotion$ = -112					; size = 48
_szObject$ = -64					; size = 48
__$ArrayPad$ = -16					; size = 4
__$EHRec$ = -12						; size = 12
_lpszFileName$ = 8					; size = 4
?LoadScript@CModelMng@@QAEHPBD@Z PROC			; CModelMng::LoadScript, COMDAT
; _this$ = ecx

; 315  : {

  00000	55		 push	 ebp
  00001	8b ec		 mov	 ebp, esp
  00003	6a ff		 push	 -1
  00005	68 00 00 00 00	 push	 __ehhandler$?LoadScript@CModelMng@@QAEHPBD@Z
  0000a	64 a1 00 00 00
	00		 mov	 eax, DWORD PTR fs:0
  00010	50		 push	 eax
  00011	81 ec e8 0e 00
	00		 sub	 esp, 3816		; 00000ee8H
  00017	a1 00 00 00 00	 mov	 eax, DWORD PTR ___security_cookie
  0001c	33 c5		 xor	 eax, ebp
  0001e	89 45 f0	 mov	 DWORD PTR __$ArrayPad$[ebp], eax
  00021	53		 push	 ebx
  00022	56		 push	 esi
  00023	57		 push	 edi
  00024	50		 push	 eax
  00025	8d 45 f4	 lea	 eax, DWORD PTR __$EHRec$[ebp]
  00028	64 a3 00 00 00
	00		 mov	 DWORD PTR fs:0, eax
  0002e	8b f1		 mov	 esi, ecx
  00030	89 b5 0c f1 ff
	ff		 mov	 DWORD PTR _this$GSCopy$1$[ebp], esi
  00036	8b 5d 08	 mov	 ebx, DWORD PTR _lpszFileName$[ebp]

; 316  : 	CScript script;

  00039	8d 8d 24 f1 ff
	ff		 lea	 ecx, DWORD PTR _script$[ebp]
  0003f	6a 00		 push	 0
  00041	89 9d 14 f1 ff
	ff		 mov	 DWORD PTR _lpszFileName$GSCopy$1$[ebp], ebx
  00047	e8 00 00 00 00	 call	 ??0CScript@@QAE@H@Z	; CScript::CScript

; 317  : 	if( script.Load( lpszFileName, FALSE ) == FALSE )

  0004c	6a 00		 push	 0
  0004e	6a 00		 push	 0
  00050	53		 push	 ebx
  00051	8d 8d 24 f1 ff
	ff		 lea	 ecx, DWORD PTR _script$[ebp]
  00057	c7 45 fc 00 00
	00 00		 mov	 DWORD PTR __$EHRec$[ebp+8], 0
  0005e	e8 00 00 00 00	 call	 ?Load@CScript@@QAEHPBDHH@Z ; CScript::Load
  00063	85 c0		 test	 eax, eax
  00065	75 07		 jne	 SHORT $LN10@LoadScript
  00067	33 f6		 xor	 esi, esi
  00069	e9 b6 05 00 00	 jmp	 $LN34@LoadScript
$LN10@LoadScript:

; 318  : 		return FALSE;
; 319  : 
; 320  : 	CFixedArray< tagMODELELEM >* apModelElem; 
; 321  : 	TCHAR szObject[48];
; 322  : 	TCHAR szMotion[48];
; 323  : 	UINT iType, iObject, iMotion;
; 324  : 	MODELELEM modelElem;
; 325  : 	script.GetToken(); // subject or FINISHED

  0006e	6a 00		 push	 0
  00070	8d 8d 24 f1 ff
	ff		 lea	 ecx, DWORD PTR _script$[ebp]
  00076	e8 00 00 00 00	 call	 ?GetToken@CScript@@UAEHH@Z ; CScript::GetToken

; 326  : 	while( script.tok != FINISHED )

  0007b	83 bd 68 f9 ff
	ff 15		 cmp	 DWORD PTR _script$[ebp+2116], 21 ; 00000015H
  00082	0f 84 97 05 00
	00		 je	 $LN141@LoadScript
  00088	0f 1f 84 00 00
	00 00 00	 npad	 8
$LL2@LoadScript:

; 327  : 	{
; 328  : 		iType = script.GetNumber();

  00090	6a 00		 push	 0
  00092	8d 8d 24 f1 ff
	ff		 lea	 ecx, DWORD PTR _script$[ebp]
  00098	e8 00 00 00 00	 call	 ?GetNumber@CScanner@@QAEHH@Z ; CScanner::GetNumber
  0009d	89 85 18 f1 ff
	ff		 mov	 DWORD PTR _iType$1$[ebp], eax

; 329  : 
; 330  : 		apModelElem = &m_aaModelElem[ iType ];
; 331  : 		script.GetToken(); // {

  000a3	8d 8d 24 f1 ff
	ff		 lea	 ecx, DWORD PTR _script$[ebp]
  000a9	6a 00		 push	 0
  000ab	8d 04 c0	 lea	 eax, DWORD PTR [eax+eax*8]
  000ae	8d 34 86	 lea	 esi, DWORD PTR [esi+eax*4]
  000b1	83 c6 08	 add	 esi, 8
  000b4	89 b5 1c f1 ff
	ff		 mov	 DWORD PTR _apModelElem$1$[ebp], esi
  000ba	e8 00 00 00 00	 call	 ?GetToken@CScript@@UAEHH@Z ; CScript::GetToken

; 332  : 		script.GetToken(); // object name or }

  000bf	6a 00		 push	 0
  000c1	8d 8d 24 f1 ff
	ff		 lea	 ecx, DWORD PTR _script$[ebp]
  000c7	e8 00 00 00 00	 call	 ?GetToken@CScript@@UAEHH@Z ; CScript::GetToken

; 333  : 		int nBrace = 1;

  000cc	bb 01 00 00 00	 mov	 ebx, 1
$LL4@LoadScript:

; 336  : 		{
; 337  : 			ZeroMemory( &modelElem, sizeof( modelElem ) );

  000d1	68 84 00 00 00	 push	 132			; 00000084H
  000d6	8d 85 0c ff ff
	ff		 lea	 eax, DWORD PTR _modelElem$[ebp]
  000dc	6a 00		 push	 0
  000de	50		 push	 eax
  000df	e8 00 00 00 00	 call	 _memset

; 338  : 			if( *script.token == '}' ) 

  000e4	8b 85 60 f1 ff
	ff		 mov	 eax, DWORD PTR _script$[ebp+60]
  000ea	83 c4 0c	 add	 esp, 12			; 0000000cH
  000ed	80 38 7d	 cmp	 BYTE PTR [eax], 125	; 0000007dH
  000f0	75 1d		 jne	 SHORT $LN13@LoadScript

; 339  : 			{
; 340  : 				nBrace--;

  000f2	4b		 dec	 ebx

; 341  : 				if( nBrace > 0 )

  000f3	85 db		 test	 ebx, ebx
  000f5	7e 12		 jle	 SHORT $LN170@LoadScript

; 342  : 				{
; 343  : 					script.GetToken(); // object name or }

  000f7	6a 00		 push	 0
  000f9	8d 8d 24 f1 ff
	ff		 lea	 ecx, DWORD PTR _script$[ebp]
  000ff	e8 00 00 00 00	 call	 ?GetToken@CScript@@UAEHH@Z ; CScript::GetToken

; 344  : 					continue;

  00104	e9 e6 04 00 00	 jmp	 $LN21@LoadScript
$LN170@LoadScript:

; 345  : 				}
; 346  : 				if( nBrace == 0 )

  00109	0f 84 e8 04 00
	00		 je	 $LN164@LoadScript
$LN13@LoadScript:

; 347  : 					continue;
; 348  : 			}
; 349  : 		#ifdef _DEBUG
; 350  : 			if( sizeof(szObject) <= strlen(script.token) + 1 )
; 351  : 				Error( "%s ˝şĆ®¸µŔÇ ±ćŔĚ°ˇ łĘą«±ć´Ů. %d", lpszFileName, strlen(script.token) );
; 352  : 		#endif
; 353  : 
; 354  : 			_tcscpy( szObject, script.token ); // folder ¶Ç´Â object name

  0010f	8b 8d 60 f1 ff
	ff		 mov	 ecx, DWORD PTR _script$[ebp+60]
  00115	8d 55 c0	 lea	 edx, DWORD PTR _szObject$[ebp]
  00118	2b d1		 sub	 edx, ecx
  0011a	66 0f 1f 44 00
	00		 npad	 6
$LL23@LoadScript:
  00120	8a 01		 mov	 al, BYTE PTR [ecx]
  00122	8d 49 01	 lea	 ecx, DWORD PTR [ecx+1]
  00125	88 44 0a ff	 mov	 BYTE PTR [edx+ecx-1], al
  00129	84 c0		 test	 al, al
  0012b	75 f3		 jne	 SHORT $LL23@LoadScript

; 355  : 
; 356  : 			script.SetMark();

  0012d	8d 8d 24 f1 ff
	ff		 lea	 ecx, DWORD PTR _script$[ebp]
  00133	e8 00 00 00 00	 call	 ?SetMark@CScript@@UAEXXZ ; CScript::SetMark

; 357  : 			// ˝şĹ©¸łĆ® ˝ÇĽö °ËĂâ ·çĆľ ÇĘżä. - xuzhu -
; 358  : 			script.GetToken(); // {

  00138	6a 00		 push	 0
  0013a	8d 8d 24 f1 ff
	ff		 lea	 ecx, DWORD PTR _script$[ebp]
  00140	e8 00 00 00 00	 call	 ?GetToken@CScript@@UAEHH@Z ; CScript::GetToken

; 359  : 			if( *script.token == '{' )

  00145	8b 85 60 f1 ff
	ff		 mov	 eax, DWORD PTR _script$[ebp+60]
  0014b	8d 8d 24 f1 ff
	ff		 lea	 ecx, DWORD PTR _script$[ebp]
  00151	80 38 7b	 cmp	 BYTE PTR [eax], 123	; 0000007bH
  00154	75 2c		 jne	 SHORT $LN14@LoadScript

; 360  : 			{
; 361  : 				nBrace++;
; 362  : 				script.GetToken(); // object name or }

  00156	6a 00		 push	 0
  00158	43		 inc	 ebx
  00159	e8 00 00 00 00	 call	 ?GetToken@CScript@@UAEHH@Z ; CScript::GetToken

; 363  : 			#ifdef _DEBUG
; 364  : 				if( sizeof(szObject) <= strlen(script.token) + 1 )
; 365  : 					Error( "%s ˝şĆ®¸µŔÇ ±ćŔĚ°ˇ łĘą«±ć´Ů. %d", lpszFileName, strlen(script.token) );
; 366  : 			#endif
; 367  : 
; 368  : 				_tcscpy( szObject, script.token ); // folder ¶Ç´Â object name

  0015e	8b 8d 60 f1 ff
	ff		 mov	 ecx, DWORD PTR _script$[ebp+60]
  00164	8d 55 c0	 lea	 edx, DWORD PTR _szObject$[ebp]
  00167	2b d1		 sub	 edx, ecx
  00169	0f 1f 80 00 00
	00 00		 npad	 7
$LL24@LoadScript:
  00170	8a 01		 mov	 al, BYTE PTR [ecx]
  00172	8d 49 01	 lea	 ecx, DWORD PTR [ecx+1]
  00175	88 44 0a ff	 mov	 BYTE PTR [edx+ecx-1], al
  00179	84 c0		 test	 al, al
  0017b	75 f3		 jne	 SHORT $LL24@LoadScript

; 369  : 				continue;

  0017d	e9 6d 04 00 00	 jmp	 $LN21@LoadScript
$LN14@LoadScript:

; 370  : 			}
; 371  : 			else
; 372  : 				script.GoMark();

  00182	e8 00 00 00 00	 call	 ?GoMark@CScript@@UAEXXZ	; CScript::GoMark

; 373  : 			iObject = script.GetNumber();

  00187	6a 00		 push	 0
  00189	8d 8d 24 f1 ff
	ff		 lea	 ecx, DWORD PTR _script$[ebp]
  0018f	e8 00 00 00 00	 call	 ?GetNumber@CScanner@@QAEHH@Z ; CScanner::GetNumber
  00194	8b f8		 mov	 edi, eax
  00196	89 bd 10 f1 ff
	ff		 mov	 DWORD PTR _iObject$1$[ebp], edi

; 374  : 			if( iObject == 0 )

  0019c	85 ff		 test	 edi, edi
  0019e	75 7c		 jne	 SHORT $LN59@LoadScript
; File C:\Program Files\Microsoft Visual Studio\2022\Professional\VC\Tools\MSVC\14.44.35207\atlmfc\include\afxstr.h

; 56   : 		return( AfxGetStringManager() );

  001a0	e8 00 00 00 00	 call	 ?AfxGetStringManager@@YGPAUIAtlStringMgr@ATL@@XZ ; AfxGetStringManager
  001a5	8b c8		 mov	 ecx, eax
; File C:\Program Files\Microsoft Visual Studio\2022\Professional\VC\Tools\MSVC\14.44.35207\atlmfc\include\atlsimpstr.h

; 209  : 		ATLENSURE( pStringMgr != NULL );

  001a7	85 c9		 test	 ecx, ecx
  001a9	0f 84 a0 04 00
	00		 je	 $LN137@LoadScript

; 210  : 		CStringData* pData = pStringMgr->GetNilString();

  001af	8b 01		 mov	 eax, DWORD PTR [ecx]
  001b1	ff 50 0c	 call	 DWORD PTR [eax+12]

; 211  : 		Attach( pData );

  001b4	83 c0 10	 add	 eax, 16			; 00000010H
  001b7	89 85 20 f1 ff
	ff		 mov	 DWORD PTR _str$2[ebp], eax
; File C:\IAGOS\server\v18\Source\Source\_Common\ModelMng.cpp

; 377  : 				str.Format( "CModelMng::LoadScript(%d) 0Ŕ¸·Î ÁöÁ¤µČ ¸đĽÇ ľĆŔĚµđ : %s, %s", script.GetLineNum(), szObject, script.token );

  001bd	ff b5 60 f1 ff
	ff		 push	 DWORD PTR _script$[ebp+60]
  001c3	8d 45 c0	 lea	 eax, DWORD PTR _szObject$[ebp]
  001c6	c6 45 fc 01	 mov	 BYTE PTR __$EHRec$[ebp+8], 1
  001ca	50		 push	 eax
  001cb	57		 push	 edi
  001cc	8d 8d 24 f1 ff
	ff		 lea	 ecx, DWORD PTR _script$[ebp]
  001d2	e8 00 00 00 00	 call	 ?GetLineNum@CScript@@UAEHPAD@Z ; CScript::GetLineNum
  001d7	50		 push	 eax
  001d8	8d 85 20 f1 ff
	ff		 lea	 eax, DWORD PTR _str$2[ebp]
  001de	68 00 00 00 00	 push	 OFFSET ??_C@_0DM@BAPJMBHK@CModelMng?3?3LoadScript?$CI?$CFd?$CJ?50?$MA?$LI?$LH?N@
  001e3	50		 push	 eax
  001e4	e8 00 00 00 00	 call	 ?Format@?$CStringT@DV?$StrTraitMFC@DV?$ChTraitsCRT@D@ATL@@@@@ATL@@QAAXPBDZZ ; ATL::CStringT<char,StrTraitMFC<char,ATL::ChTraitsCRT<char> > >::Format

; 378  : 				AfxMessageBox( str );

  001e9	8b b5 20 f1 ff
	ff		 mov	 esi, DWORD PTR _str$2[ebp]
  001ef	83 c4 14	 add	 esp, 20			; 00000014H
  001f2	57		 push	 edi
  001f3	57		 push	 edi
  001f4	56		 push	 esi
  001f5	e8 00 00 00 00	 call	 ?AfxMessageBox@@YGHPBDII@Z ; AfxMessageBox

; 379  : 			}

  001fa	c6 45 fc 00	 mov	 BYTE PTR __$EHRec$[ebp+8], 0
; File C:\Program Files\Microsoft Visual Studio\2022\Professional\VC\Tools\MSVC\14.44.35207\atlmfc\include\atlsimpstr.h

; 804  : 		return( reinterpret_cast< CStringData* >( m_pszData )-1 );

  001fe	83 c6 f0	 add	 esi, -16		; fffffff0H

; 92   : 		if( _InterlockedDecrement( &nRefs ) <= 0 )

  00201	83 c8 ff	 or	 eax, -1
  00204	f0 0f c1 46 0c	 lock	  xadd	 DWORD PTR [esi+12], eax
  00209	48		 dec	 eax
  0020a	85 c0		 test	 eax, eax
  0020c	7f 08		 jg	 SHORT $LN167@LoadScript

; 93   : 		{
; 94   : 			pStringMgr->Free( this );

  0020e	8b 0e		 mov	 ecx, DWORD PTR [esi]
  00210	56		 push	 esi
  00211	8b 01		 mov	 eax, DWORD PTR [ecx]
  00213	ff 50 04	 call	 DWORD PTR [eax+4]
$LN167@LoadScript:
; File C:\IAGOS\server\v18\Source\Source\_Common\ModelMng.cpp

; 380  : 			modelElem.m_dwType = iType;

  00216	8b b5 1c f1 ff
	ff		 mov	 esi, DWORD PTR _apModelElem$1$[ebp]
$LN59@LoadScript:
  0021c	8b 85 18 f1 ff
	ff		 mov	 eax, DWORD PTR _iType$1$[ebp]
  00222	33 c9		 xor	 ecx, ecx
  00224	89 85 0c ff ff
	ff		 mov	 DWORD PTR _modelElem$[ebp], eax

; 381  : 			modelElem.m_dwIndex = iObject;

  0022a	89 bd 10 ff ff
	ff		 mov	 DWORD PTR _modelElem$[ebp+4], edi
$LL25@LoadScript:

; 382  : 		#ifdef _DEBUG
; 383  : 			if( sizeof(modelElem.m_szName) <= strlen(szObject) + 1 )
; 384  : 				Error( "%s ˝şĆ®¸µŔÇ ±ćŔĚ°ˇ łĘą«±ć´Ů. %d", lpszFileName, strlen(szObject) );
; 385  : 		#endif
; 386  : 			_tcscpy( modelElem.m_szName, szObject );

  00230	8a 44 0d c0	 mov	 al, BYTE PTR _szObject$[ebp+ecx]
  00234	8d 49 01	 lea	 ecx, DWORD PTR [ecx+1]
  00237	88 84 0d 13 ff
	ff ff		 mov	 BYTE PTR _modelElem$[ebp+ecx+7], al
  0023e	84 c0		 test	 al, al
  00240	75 ee		 jne	 SHORT $LL25@LoadScript

; 387  : 			modelElem.m_dwModelType = script.GetNumber();

  00242	6a 00		 push	 0
  00244	8d 8d 24 f1 ff
	ff		 lea	 ecx, DWORD PTR _script$[ebp]
  0024a	e8 00 00 00 00	 call	 ?GetNumber@CScanner@@QAEHH@Z ; CScanner::GetNumber

; 388  : 			script.GetToken();

  0024f	6a 00		 push	 0
  00251	8d 8d 24 f1 ff
	ff		 lea	 ecx, DWORD PTR _script$[ebp]
  00257	89 85 4c ff ff
	ff		 mov	 DWORD PTR _modelElem$[ebp+64], eax
  0025d	e8 00 00 00 00	 call	 ?GetToken@CScript@@UAEHH@Z ; CScript::GetToken
; File C:\Program Files\Microsoft Visual Studio\2022\Professional\VC\Tools\MSVC\14.44.35207\atlmfc\include\atlsimpstr.h

; 381  : 		return( m_pszData );

  00262	8b 8d 44 f1 ff
	ff		 mov	 ecx, DWORD PTR _script$[ebp+32]
; File C:\IAGOS\server\v18\Source\Source\_Common\ModelMng.cpp

; 387  : 			modelElem.m_dwModelType = script.GetNumber();

  00268	8d 95 50 ff ff
	ff		 lea	 edx, DWORD PTR _modelElem$[ebp+68]
  0026e	2b d1		 sub	 edx, ecx
$LL26@LoadScript:

; 389  : 		#ifdef _DEBUG
; 390  : 			if( sizeof(modelElem.m_szPart) <= strlen(script.token) + 1 )
; 391  : 				Error( "%s ˝şĆ®¸µŔÇ ±ćŔĚ°ˇ łĘą«±ć´Ů. %d", lpszFileName, strlen(script.token) );
; 392  : 		#endif
; 393  : 			_tcscpy( modelElem.m_szPart, script.Token );

  00270	8a 01		 mov	 al, BYTE PTR [ecx]
  00272	8d 49 01	 lea	 ecx, DWORD PTR [ecx+1]
  00275	88 44 0a ff	 mov	 BYTE PTR [edx+ecx-1], al
  00279	84 c0		 test	 al, al
  0027b	75 f3		 jne	 SHORT $LL26@LoadScript

; 394  : 			modelElem.m_bFly = script.GetNumber();

  0027d	6a 00		 push	 0
  0027f	8d 8d 24 f1 ff
	ff		 lea	 ecx, DWORD PTR _script$[ebp]
  00285	e8 00 00 00 00	 call	 ?GetNumber@CScanner@@QAEHH@Z ; CScanner::GetNumber
  0028a	8b c8		 mov	 ecx, eax
  0028c	0f b6 45 8d	 movzx	 eax, BYTE PTR _modelElem$[ebp+129]
  00290	80 e1 01	 and	 cl, 1
  00293	24 fe		 and	 al, 254			; 000000feH
  00295	0a c8		 or	 cl, al
  00297	88 4d 8d	 mov	 BYTE PTR _modelElem$[ebp+129], cl

; 395  : 			modelElem.m_dwDistant = script.GetNumber();

  0029a	8d 8d 24 f1 ff
	ff		 lea	 ecx, DWORD PTR _script$[ebp]
  002a0	6a 00		 push	 0
  002a2	e8 00 00 00 00	 call	 ?GetNumber@CScanner@@QAEHH@Z ; CScanner::GetNumber
  002a7	8b c8		 mov	 ecx, eax
  002a9	0f b6 45 8d	 movzx	 eax, BYTE PTR _modelElem$[ebp+129]
  002ad	80 e1 03	 and	 cl, 3
  002b0	24 f9		 and	 al, 249			; 000000f9H
  002b2	02 c9		 add	 cl, cl
  002b4	0a c8		 or	 cl, al
  002b6	88 4d 8d	 mov	 BYTE PTR _modelElem$[ebp+129], cl

; 396  : 			modelElem.m_bPick = script.GetNumber();

  002b9	8d 8d 24 f1 ff
	ff		 lea	 ecx, DWORD PTR _script$[ebp]
  002bf	6a 00		 push	 0
  002c1	e8 00 00 00 00	 call	 ?GetNumber@CScanner@@QAEHH@Z ; CScanner::GetNumber
  002c6	8b c8		 mov	 ecx, eax
  002c8	0f b6 45 8d	 movzx	 eax, BYTE PTR _modelElem$[ebp+129]
  002cc	80 e1 01	 and	 cl, 1
  002cf	24 f7		 and	 al, 247			; 000000f7H
  002d1	c0 e1 03	 shl	 cl, 3
  002d4	0a c8		 or	 cl, al
  002d6	88 4d 8d	 mov	 BYTE PTR _modelElem$[ebp+129], cl

; 397  : 			modelElem.m_fScale = script.GetFloat();

  002d9	8d 8d 24 f1 ff
	ff		 lea	 ecx, DWORD PTR _script$[ebp]
  002df	6a 00		 push	 0
  002e1	e8 00 00 00 00	 call	 ?GetFloat@CScanner@@QAEMH@Z ; CScanner::GetFloat

; 398  : 			modelElem.m_bTrans = script.GetNumber();

  002e6	6a 00		 push	 0
  002e8	8d 8d 24 f1 ff
	ff		 lea	 ecx, DWORD PTR _script$[ebp]
  002ee	d9 5d 80	 fstp	 DWORD PTR _modelElem$[ebp+116]
  002f1	e8 00 00 00 00	 call	 ?GetNumber@CScanner@@QAEHH@Z ; CScanner::GetNumber
  002f6	8b c8		 mov	 ecx, eax
  002f8	0f b6 45 8d	 movzx	 eax, BYTE PTR _modelElem$[ebp+129]
  002fc	80 e1 01	 and	 cl, 1
  002ff	24 df		 and	 al, 223			; 000000dfH
  00301	c0 e1 05	 shl	 cl, 5
  00304	0a c8		 or	 cl, al
  00306	88 4d 8d	 mov	 BYTE PTR _modelElem$[ebp+129], cl

; 399  : 			modelElem.m_bShadow = script.GetNumber();			

  00309	8d 8d 24 f1 ff
	ff		 lea	 ecx, DWORD PTR _script$[ebp]
  0030f	6a 00		 push	 0
  00311	e8 00 00 00 00	 call	 ?GetNumber@CScanner@@QAEHH@Z ; CScanner::GetNumber
  00316	8b c8		 mov	 ecx, eax
  00318	0f b6 45 8d	 movzx	 eax, BYTE PTR _modelElem$[ebp+129]
  0031c	80 e1 01	 and	 cl, 1
  0031f	24 3f		 and	 al, 63			; 0000003fH
  00321	c0 e1 06	 shl	 cl, 6

; 400  : 			modelElem.m_bReserved = 0;

  00324	0a c8		 or	 cl, al
  00326	88 4d 8d	 mov	 BYTE PTR _modelElem$[ebp+129], cl

; 401  : 			modelElem.m_nTextureEx = script.GetNumber();

  00329	8d 8d 24 f1 ff
	ff		 lea	 ecx, DWORD PTR _script$[ebp]
  0032f	6a 00		 push	 0
  00331	e8 00 00 00 00	 call	 ?GetNumber@CScanner@@QAEHH@Z ; CScanner::GetNumber

; 402  : 			modelElem.m_bRenderFlag = script.GetNumber();

  00336	6a 00		 push	 0
  00338	8d 8d 24 f1 ff
	ff		 lea	 ecx, DWORD PTR _script$[ebp]
  0033e	89 45 88	 mov	 DWORD PTR _modelElem$[ebp+124], eax
  00341	e8 00 00 00 00	 call	 ?GetNumber@CScanner@@QAEHH@Z ; CScanner::GetNumber
  00346	8b c8		 mov	 ecx, eax
  00348	0f b6 45 8e	 movzx	 eax, BYTE PTR _modelElem$[ebp+130]
  0034c	80 e1 01	 and	 cl, 1
  0034f	24 fe		 and	 al, 254			; 000000feH
  00351	0a c8		 or	 cl, al
  00353	88 4d 8e	 mov	 BYTE PTR _modelElem$[ebp+130], cl

; 403  : 
; 404  : 			script.GetToken(); // object name or { or }

  00356	8d 8d 24 f1 ff
	ff		 lea	 ecx, DWORD PTR _script$[ebp]
  0035c	6a 00		 push	 0
  0035e	e8 00 00 00 00	 call	 ?GetToken@CScript@@UAEHH@Z ; CScript::GetToken

; 405  : 			// ż©±âşÎĹÍ ľÖ´Ď¸ŢŔĚĽÇ 
; 406  : 			if( *script.token == '{' )

  00363	8b 85 60 f1 ff
	ff		 mov	 eax, DWORD PTR _script$[ebp+60]
  00369	80 38 7b	 cmp	 BYTE PTR [eax], 123	; 0000007bH
  0036c	0f 85 c4 01 00
	00		 jne	 $LN17@LoadScript

; 407  : 			{
; 408  : 				script.SetMark();

  00372	8d 8d 24 f1 ff
	ff		 lea	 ecx, DWORD PTR _script$[ebp]
  00378	e8 00 00 00 00	 call	 ?SetMark@CScript@@UAEXXZ ; CScript::SetMark

; 409  : 				script.GetToken(); // motion name or }

  0037d	6a 00		 push	 0
  0037f	8d 8d 24 f1 ff
	ff		 lea	 ecx, DWORD PTR _script$[ebp]
  00385	e8 00 00 00 00	 call	 ?GetToken@CScript@@UAEHH@Z ; CScript::GetToken

; 410  : 				int nMax = 0;
; 411  : 				// ¸đĽÇ ¸®˝şĆ® Ä«żîĆ® 
; 412  : 				while( *script.token != '}' )

  0038a	8b 8d 60 f1 ff
	ff		 mov	 ecx, DWORD PTR _script$[ebp+60]
  00390	33 ff		 xor	 edi, edi
  00392	80 39 7d	 cmp	 BYTE PTR [ecx], 125	; 0000007dH
  00395	74 40		 je	 SHORT $LN7@LoadScript
$LL6@LoadScript:

; 413  : 				{
; 414  : 				#ifdef _DEBUG
; 415  : 					if( sizeof(szMotion) <= strlen(script.token) + 1 )
; 416  : 						Error( "%s ˝şĆ®¸µŔÇ ±ćŔĚ°ˇ łĘą«±ć´Ů. %d", lpszFileName, strlen(script.token) );
; 417  : 				#endif
; 418  : 					_tcscpy( szMotion, script.token );

  00397	8d 55 90	 lea	 edx, DWORD PTR _szMotion$[ebp]
  0039a	2b d1		 sub	 edx, ecx
  0039c	0f 1f 40 00	 npad	 4
$LL27@LoadScript:
  003a0	8a 01		 mov	 al, BYTE PTR [ecx]
  003a2	8d 49 01	 lea	 ecx, DWORD PTR [ecx+1]
  003a5	88 44 11 ff	 mov	 BYTE PTR [ecx+edx-1], al
  003a9	84 c0		 test	 al, al
  003ab	75 f3		 jne	 SHORT $LL27@LoadScript

; 419  : 					iMotion = script.GetNumber();

  003ad	6a 00		 push	 0
  003af	8d 8d 24 f1 ff
	ff		 lea	 ecx, DWORD PTR _script$[ebp]
  003b5	e8 00 00 00 00	 call	 ?GetNumber@CScanner@@QAEHH@Z ; CScanner::GetNumber

; 420  : 					if( (int)( iMotion ) > nMax )

  003ba	3b c7		 cmp	 eax, edi

; 421  : 						nMax = iMotion;
; 422  : 					script.GetToken(); // motion name or }

  003bc	8d 8d 24 f1 ff
	ff		 lea	 ecx, DWORD PTR _script$[ebp]
  003c2	6a 00		 push	 0
  003c4	0f 4f f8	 cmovg	 edi, eax
  003c7	e8 00 00 00 00	 call	 ?GetToken@CScript@@UAEHH@Z ; CScript::GetToken
  003cc	8b 8d 60 f1 ff
	ff		 mov	 ecx, DWORD PTR _script$[ebp+60]
  003d2	80 39 7d	 cmp	 BYTE PTR [ecx], 125	; 0000007dH
  003d5	75 c0		 jne	 SHORT $LL6@LoadScript
$LN7@LoadScript:

; 423  : 				}
; 424  : 				nMax++;
; 425  : 				script.GoMark();

  003d7	8d 8d 24 f1 ff
	ff		 lea	 ecx, DWORD PTR _script$[ebp]
  003dd	47		 inc	 edi
  003de	e8 00 00 00 00	 call	 ?GoMark@CScript@@UAEXXZ	; CScript::GoMark

; 426  : 				// ˝ÇÁ¦ ¸đĽÇ ¸®˝şĆ® ĽĽĆĂ 
; 427  : 				script.GetToken(); // motion name or }

  003e3	6a 00		 push	 0
  003e5	8d 8d 24 f1 ff
	ff		 lea	 ecx, DWORD PTR _script$[ebp]
  003eb	e8 00 00 00 00	 call	 ?GetToken@CScript@@UAEHH@Z ; CScript::GetToken

; 428  : 				modelElem.m_apszMotion = new TCHAR[ nMax * 32 ];

  003f0	8b f7		 mov	 esi, edi
  003f2	c1 e6 05	 shl	 esi, 5
  003f5	56		 push	 esi
  003f6	e8 00 00 00 00	 call	 ??_U@YAPAXI@Z		; operator new[]

; 429  : 				modelElem.m_nMax = nMax;
; 430  : 				ZeroMemory( modelElem.m_apszMotion, sizeof( TCHAR ) * nMax * 32 );

  003fb	56		 push	 esi
  003fc	6a 00		 push	 0
  003fe	50		 push	 eax
  003ff	89 85 48 ff ff
	ff		 mov	 DWORD PTR _modelElem$[ebp+60], eax
  00405	89 bd 44 ff ff
	ff		 mov	 DWORD PTR _modelElem$[ebp+56], edi
  0040b	e8 00 00 00 00	 call	 _memset

; 431  : 				//TRACE( " %s %p\n", modelElem.m_szName, modelElem.m_apszMotion);
; 432  : 				while( *script.token != '}' )

  00410	8b 8d 60 f1 ff
	ff		 mov	 ecx, DWORD PTR _script$[ebp+60]
  00416	83 c4 10	 add	 esp, 16			; 00000010H
  00419	80 39 7d	 cmp	 BYTE PTR [ecx], 125	; 0000007dH
  0041c	0f 84 fb 00 00
	00		 je	 $LN9@LoadScript
$LL8@LoadScript:

; 433  : 				{
; 434  : 				#ifdef _DEBUG
; 435  : 					if( sizeof(szMotion) <= strlen(script.token) + 1 )
; 436  : 						Error( "%s ˝şĆ®¸µŔÇ ±ćŔĚ°ˇ łĘą«±ć´Ů. %d", lpszFileName, strlen(script.token) );
; 437  : 				#endif
; 438  : 					_tcscpy( szMotion, script.token );

  00422	8d 55 90	 lea	 edx, DWORD PTR _szMotion$[ebp]
  00425	2b d1		 sub	 edx, ecx
$LL28@LoadScript:
  00427	8a 01		 mov	 al, BYTE PTR [ecx]
  00429	8d 49 01	 lea	 ecx, DWORD PTR [ecx+1]
  0042c	88 44 11 ff	 mov	 BYTE PTR [ecx+edx-1], al
  00430	84 c0		 test	 al, al
  00432	75 f3		 jne	 SHORT $LL28@LoadScript

; 439  : 					iMotion = script.GetNumber();

  00434	6a 00		 push	 0
  00436	8d 8d 24 f1 ff
	ff		 lea	 ecx, DWORD PTR _script$[ebp]
  0043c	e8 00 00 00 00	 call	 ?GetNumber@CScanner@@QAEHH@Z ; CScanner::GetNumber

; 440  : 					TCHAR* lpszMotion = modelElem.GetMotion( iMotion );

  00441	8b f8		 mov	 edi, eax
; File C:\IAGOS\server\v18\Source\Source\_Common\ModelMng.h

; 35   : 		if( i < 0 || i >= m_nMax )

  00443	85 ff		 test	 edi, edi
  00445	78 08		 js	 SHORT $LN65@LoadScript
  00447	3b bd 44 ff ff
	ff		 cmp	 edi, DWORD PTR _modelElem$[ebp+56]
  0044d	7c 10		 jl	 SHORT $LN64@LoadScript
$LN65@LoadScript:

; 36   : 		{
; 37   : 			Error( "tagMODELELEM : out of range %d", i );

  0044f	57		 push	 edi
  00450	68 00 00 00 00	 push	 OFFSET ??_C@_0BP@BAMAMMFD@tagMODELELEM?5?3?5out?5of?5range?5?$CFd@
  00455	e8 00 00 00 00	 call	 ?Error@@YAPBDPBDZZ	; Error
  0045a	83 c4 08	 add	 esp, 8

; 38   : 			i = 0;

  0045d	33 ff		 xor	 edi, edi
$LN64@LoadScript:

; 39   : 		}
; 40   : 
; 41   : 		if( m_apszMotion ) 

  0045f	8b 85 48 ff ff
	ff		 mov	 eax, DWORD PTR _modelElem$[ebp+60]
  00465	85 c0		 test	 eax, eax
  00467	74 07		 je	 SHORT $LN66@LoadScript

; 42   : 			return &m_apszMotion[ i * 32 ]; 

  00469	c1 e7 05	 shl	 edi, 5
  0046c	03 f8		 add	 edi, eax
  0046e	eb 02		 jmp	 SHORT $LN63@LoadScript
$LN66@LoadScript:

; 43   : 		return NULL; 

  00470	33 ff		 xor	 edi, edi
$LN63@LoadScript:
; File C:\IAGOS\server\v18\Source\Source\_Common\ModelMng.cpp

; 441  : 					if( lpszMotion[0] )

  00472	80 3f 00	 cmp	 BYTE PTR [edi], 0
  00475	74 76		 je	 SHORT $LN91@LoadScript
; File C:\Program Files\Microsoft Visual Studio\2022\Professional\VC\Tools\MSVC\14.44.35207\atlmfc\include\afxstr.h

; 56   : 		return( AfxGetStringManager() );

  00477	e8 00 00 00 00	 call	 ?AfxGetStringManager@@YGPAUIAtlStringMgr@ATL@@XZ ; AfxGetStringManager
  0047c	8b c8		 mov	 ecx, eax
; File C:\Program Files\Microsoft Visual Studio\2022\Professional\VC\Tools\MSVC\14.44.35207\atlmfc\include\atlsimpstr.h

; 209  : 		ATLENSURE( pStringMgr != NULL );

  0047e	85 c9		 test	 ecx, ecx
  00480	0f 84 c9 01 00
	00		 je	 $LN137@LoadScript

; 210  : 		CStringData* pData = pStringMgr->GetNilString();

  00486	8b 01		 mov	 eax, DWORD PTR [ecx]
  00488	ff 50 0c	 call	 DWORD PTR [eax+12]

; 211  : 		Attach( pData );

  0048b	83 c0 10	 add	 eax, 16			; 00000010H
  0048e	89 85 20 f1 ff
	ff		 mov	 DWORD PTR _str$3[ebp], eax
; File C:\IAGOS\server\v18\Source\Source\_Common\ModelMng.cpp

; 444  : 						str.Format( "CModelMng::LoadScript(%d) %s¸đĽÇ Áßşą ľĆŔĚµđ : %s", script.GetLineNum(), lpszFileName, lpszMotion );

  00494	57		 push	 edi
  00495	ff b5 14 f1 ff
	ff		 push	 DWORD PTR _lpszFileName$GSCopy$1$[ebp]
  0049b	8d 8d 24 f1 ff
	ff		 lea	 ecx, DWORD PTR _script$[ebp]
  004a1	c6 45 fc 02	 mov	 BYTE PTR __$EHRec$[ebp+8], 2
  004a5	6a 00		 push	 0
  004a7	e8 00 00 00 00	 call	 ?GetLineNum@CScript@@UAEHPAD@Z ; CScript::GetLineNum
  004ac	50		 push	 eax
  004ad	8d 85 20 f1 ff
	ff		 lea	 eax, DWORD PTR _str$3[ebp]
  004b3	68 00 00 00 00	 push	 OFFSET ??_C@_0DC@IFOHODB@CModelMng?3?3LoadScript?$CI?$CFd?$CJ?5?$CFs?$LI?p?$LM@
  004b8	50		 push	 eax
  004b9	e8 00 00 00 00	 call	 ?Format@?$CStringT@DV?$StrTraitMFC@DV?$ChTraitsCRT@D@ATL@@@@@ATL@@QAAXPBDZZ ; ATL::CStringT<char,StrTraitMFC<char,ATL::ChTraitsCRT<char> > >::Format

; 445  : 						AfxMessageBox( str );

  004be	8b b5 20 f1 ff
	ff		 mov	 esi, DWORD PTR _str$3[ebp]
  004c4	83 c4 14	 add	 esp, 20			; 00000014H
  004c7	6a 00		 push	 0
  004c9	6a 00		 push	 0
  004cb	56		 push	 esi
  004cc	e8 00 00 00 00	 call	 ?AfxMessageBox@@YGHPBDII@Z ; AfxMessageBox

; 446  : 					}

  004d1	c6 45 fc 00	 mov	 BYTE PTR __$EHRec$[ebp+8], 0
; File C:\Program Files\Microsoft Visual Studio\2022\Professional\VC\Tools\MSVC\14.44.35207\atlmfc\include\atlsimpstr.h

; 804  : 		return( reinterpret_cast< CStringData* >( m_pszData )-1 );

  004d5	83 c6 f0	 add	 esi, -16		; fffffff0H

; 92   : 		if( _InterlockedDecrement( &nRefs ) <= 0 )

  004d8	83 c8 ff	 or	 eax, -1
  004db	f0 0f c1 46 0c	 lock	  xadd	 DWORD PTR [esi+12], eax
  004e0	48		 dec	 eax
  004e1	85 c0		 test	 eax, eax
  004e3	7f 08		 jg	 SHORT $LN91@LoadScript

; 93   : 		{
; 94   : 			pStringMgr->Free( this );

  004e5	8b 0e		 mov	 ecx, DWORD PTR [esi]
  004e7	56		 push	 esi
  004e8	8b 01		 mov	 eax, DWORD PTR [ecx]
  004ea	ff 50 04	 call	 DWORD PTR [eax+4]
$LN91@LoadScript:
; File C:\IAGOS\server\v18\Source\Source\_Common\ModelMng.cpp

; 447  : 					_tcscpy( lpszMotion, szMotion );

  004ed	8d 4d 90	 lea	 ecx, DWORD PTR _szMotion$[ebp]
  004f0	8b c1		 mov	 eax, ecx
  004f2	2b f8		 sub	 edi, eax
$LL29@LoadScript:
  004f4	8a 01		 mov	 al, BYTE PTR [ecx]
  004f6	8d 49 01	 lea	 ecx, DWORD PTR [ecx+1]
  004f9	88 44 39 ff	 mov	 BYTE PTR [ecx+edi-1], al
  004fd	84 c0		 test	 al, al
  004ff	75 f3		 jne	 SHORT $LL29@LoadScript

; 448  : 					script.GetToken(); // motion name or }

  00501	6a 00		 push	 0
  00503	8d 8d 24 f1 ff
	ff		 lea	 ecx, DWORD PTR _script$[ebp]
  00509	e8 00 00 00 00	 call	 ?GetToken@CScript@@UAEHH@Z ; CScript::GetToken
  0050e	8b 8d 60 f1 ff
	ff		 mov	 ecx, DWORD PTR _script$[ebp+60]
  00514	80 39 7d	 cmp	 BYTE PTR [ecx], 125	; 0000007dH
  00517	0f 85 05 ff ff
	ff		 jne	 $LL8@LoadScript
$LN9@LoadScript:

; 449  : 				}
; 450  : 				script.GetToken(); // object name or }

  0051d	6a 00		 push	 0
  0051f	8d 8d 24 f1 ff
	ff		 lea	 ecx, DWORD PTR _script$[ebp]
  00525	e8 00 00 00 00	 call	 ?GetToken@CScript@@UAEHH@Z ; CScript::GetToken
  0052a	8b bd 10 f1 ff
	ff		 mov	 edi, DWORD PTR _iObject$1$[ebp]
  00530	8b b5 1c f1 ff
	ff		 mov	 esi, DWORD PTR _apModelElem$1$[ebp]
$LN17@LoadScript:
; File C:\IAGOS\server\v18\Source\Source\_Common\data.h

; 270  : 	if( dwIndex >= (DWORD)m_nMaxIndex )

  00536	3b 7e 18	 cmp	 edi, DWORD PTR [esi+24]
  00539	0f 83 96 00 00
	00		 jae	 $LN165@LoadScript

; 271  : 		return NULL;
; 272  : 	return (T*) m_apOffset[ dwIndex ];

  0053f	8b 46 08	 mov	 eax, DWORD PTR [esi+8]
; File C:\IAGOS\server\v18\Source\Source\_Common\ModelMng.cpp

; 452  : 			if( apModelElem->GetAt( iObject ) )

  00542	83 3c b8 00	 cmp	 DWORD PTR [eax+edi*4], 0
  00546	0f 84 89 00 00
	00		 je	 $LN165@LoadScript
; File C:\Program Files\Microsoft Visual Studio\2022\Professional\VC\Tools\MSVC\14.44.35207\atlmfc\include\afxstr.h

; 56   : 		return( AfxGetStringManager() );

  0054c	e8 00 00 00 00	 call	 ?AfxGetStringManager@@YGPAUIAtlStringMgr@ATL@@XZ ; AfxGetStringManager
  00551	8b c8		 mov	 ecx, eax
; File C:\Program Files\Microsoft Visual Studio\2022\Professional\VC\Tools\MSVC\14.44.35207\atlmfc\include\atlsimpstr.h

; 209  : 		ATLENSURE( pStringMgr != NULL );

  00553	85 c9		 test	 ecx, ecx
  00555	0f 84 f4 00 00
	00		 je	 $LN137@LoadScript

; 210  : 		CStringData* pData = pStringMgr->GetNilString();

  0055b	8b 01		 mov	 eax, DWORD PTR [ecx]
  0055d	ff 50 0c	 call	 DWORD PTR [eax+12]

; 211  : 		Attach( pData );

  00560	83 c0 10	 add	 eax, 16			; 00000010H
  00563	89 85 20 f1 ff
	ff		 mov	 DWORD PTR _str$4[ebp], eax
; File C:\IAGOS\server\v18\Source\Source\_Common\ModelMng.cpp

; 455  : 				str.Format( "CModelMng::LoadScript(%d) %sÁßşą ľĆŔĚµđ : type = %d, idx = %d, name = %s", script.GetLineNum(), lpszFileName, iType, iObject, modelElem.m_szName );

  00569	8d 85 14 ff ff
	ff		 lea	 eax, DWORD PTR _modelElem$[ebp+8]
  0056f	c6 45 fc 03	 mov	 BYTE PTR __$EHRec$[ebp+8], 3
  00573	50		 push	 eax
  00574	57		 push	 edi
  00575	ff b5 18 f1 ff
	ff		 push	 DWORD PTR _iType$1$[ebp]
  0057b	8d 8d 24 f1 ff
	ff		 lea	 ecx, DWORD PTR _script$[ebp]
  00581	ff b5 14 f1 ff
	ff		 push	 DWORD PTR _lpszFileName$GSCopy$1$[ebp]
  00587	6a 00		 push	 0
  00589	e8 00 00 00 00	 call	 ?GetLineNum@CScript@@UAEHPAD@Z ; CScript::GetLineNum
  0058e	50		 push	 eax
  0058f	8d 85 20 f1 ff
	ff		 lea	 eax, DWORD PTR _str$4[ebp]
  00595	68 00 00 00 00	 push	 OFFSET ??_C@_0EJ@PFFBAJJD@CModelMng?3?3LoadScript?$CI?$CFd?$CJ?5?$CFs?A?$NP?$LK@
  0059a	50		 push	 eax
  0059b	e8 00 00 00 00	 call	 ?Format@?$CStringT@DV?$StrTraitMFC@DV?$ChTraitsCRT@D@ATL@@@@@ATL@@QAAXPBDZZ ; ATL::CStringT<char,StrTraitMFC<char,ATL::ChTraitsCRT<char> > >::Format

; 456  : 				AfxMessageBox( str );

  005a0	8b b5 20 f1 ff
	ff		 mov	 esi, DWORD PTR _str$4[ebp]
  005a6	83 c4 1c	 add	 esp, 28			; 0000001cH
  005a9	6a 00		 push	 0
  005ab	6a 00		 push	 0
  005ad	56		 push	 esi
  005ae	e8 00 00 00 00	 call	 ?AfxMessageBox@@YGHPBDII@Z ; AfxMessageBox

; 457  : 			}

  005b3	c6 45 fc 00	 mov	 BYTE PTR __$EHRec$[ebp+8], 0
; File C:\Program Files\Microsoft Visual Studio\2022\Professional\VC\Tools\MSVC\14.44.35207\atlmfc\include\atlsimpstr.h

; 804  : 		return( reinterpret_cast< CStringData* >( m_pszData )-1 );

  005b7	83 c6 f0	 add	 esi, -16		; fffffff0H

; 92   : 		if( _InterlockedDecrement( &nRefs ) <= 0 )

  005ba	83 c8 ff	 or	 eax, -1
  005bd	f0 0f c1 46 0c	 lock	  xadd	 DWORD PTR [esi+12], eax
  005c2	48		 dec	 eax
  005c3	85 c0		 test	 eax, eax
  005c5	7f 08		 jg	 SHORT $LN166@LoadScript

; 93   : 		{
; 94   : 			pStringMgr->Free( this );

  005c7	8b 0e		 mov	 ecx, DWORD PTR [esi]
  005c9	56		 push	 esi
  005ca	8b 01		 mov	 eax, DWORD PTR [ecx]
  005cc	ff 50 04	 call	 DWORD PTR [eax+4]
$LN166@LoadScript:
; File C:\IAGOS\server\v18\Source\Source\_Common\ModelMng.cpp

; 518  : 			if( iType != OT_SFX )	// sfx´Â Ľ­ąöżˇĽ­ skip

  005cf	8b b5 1c f1 ff
	ff		 mov	 esi, DWORD PTR _apModelElem$1$[ebp]
$LN165@LoadScript:
  005d5	83 bd 18 f1 ff
	ff 03		 cmp	 DWORD PTR _iType$1$[ebp], 3
  005dc	74 11		 je	 SHORT $LN21@LoadScript

; 519  : 				apModelElem->SetAtGrow( iObject, &modelElem );

  005de	6a 00		 push	 0
  005e0	8d 85 0c ff ff
	ff		 lea	 eax, DWORD PTR _modelElem$[ebp]
  005e6	8b ce		 mov	 ecx, esi
  005e8	50		 push	 eax
  005e9	57		 push	 edi
  005ea	e8 00 00 00 00	 call	 ?SetAtGrow@?$CFixedArray@UtagMODELELEM@@@@QAEXHPAUtagMODELELEM@@H@Z ; CFixedArray<tagMODELELEM>::SetAtGrow
$LN21@LoadScript:

; 334  : 		// ż©±âşÎĹÍ żŔşęÁ§Ć® ´ÜŔ§ obj, ctrl, item, sfx, mover
; 335  : 		while( nBrace )

  005ef	85 db		 test	 ebx, ebx
  005f1	0f 85 da fa ff
	ff		 jne	 $LL4@LoadScript
$LN164@LoadScript:

; 520  : 		#else
; 521  : 			apModelElem->SetAtGrow( iObject, &modelElem );
; 522  : 		#endif
; 523  : 
; 524  : 		} // while( nBrace )
; 525  : 
; 526  : 		script.GetToken(); // type name or }

  005f7	6a 00		 push	 0
  005f9	8d 8d 24 f1 ff
	ff		 lea	 ecx, DWORD PTR _script$[ebp]
  005ff	e8 00 00 00 00	 call	 ?GetToken@CScript@@UAEHH@Z ; CScript::GetToken

; 527  : 		apModelElem->Optimize();

  00604	8b ce		 mov	 ecx, esi
  00606	e8 00 00 00 00	 call	 ?Optimize@?$CFixedArray@UtagMODELELEM@@@@QAEXXZ ; CFixedArray<tagMODELELEM>::Optimize
  0060b	83 bd 68 f9 ff
	ff 15		 cmp	 DWORD PTR _script$[ebp+2116], 21 ; 00000015H
  00612	74 0b		 je	 SHORT $LN141@LoadScript

; 326  : 	while( script.tok != FINISHED )

  00614	8b b5 0c f1 ff
	ff		 mov	 esi, DWORD PTR _this$GSCopy$1$[ebp]
  0061a	e9 71 fa ff ff	 jmp	 $LL2@LoadScript
$LN141@LoadScript:

; 528  : 	}	// while( script.tok != FINISHED )
; 529  : 
; 530  : 	return TRUE;

  0061f	be 01 00 00 00	 mov	 esi, 1
$LN34@LoadScript:
  00624	8d 8d 24 f1 ff
	ff		 lea	 ecx, DWORD PTR _script$[ebp]
  0062a	e8 00 00 00 00	 call	 ??1CScript@@UAE@XZ	; CScript::~CScript
  0062f	8b c6		 mov	 eax, esi

; 531  : }

  00631	8b 4d f4	 mov	 ecx, DWORD PTR __$EHRec$[ebp]
  00634	64 89 0d 00 00
	00 00		 mov	 DWORD PTR fs:0, ecx
  0063b	59		 pop	 ecx
  0063c	5f		 pop	 edi
  0063d	5e		 pop	 esi
  0063e	5b		 pop	 ebx
  0063f	8b 4d f0	 mov	 ecx, DWORD PTR __$ArrayPad$[ebp]
  00642	33 cd		 xor	 ecx, ebp
  00644	e8 00 00 00 00	 call	 @__security_check_cookie@4
  00649	8b e5		 mov	 esp, ebp
  0064b	5d		 pop	 ebp
  0064c	c2 04 00	 ret	 4
$LN137@LoadScript:
; File C:\Program Files\Microsoft Visual Studio\2022\Professional\VC\Tools\MSVC\14.44.35207\atlmfc\include\atlsimpstr.h

; 209  : 		ATLENSURE( pStringMgr != NULL );

  0064f	68 05 40 00 80	 push	 -2147467259		; 80004005H
  00654	e8 00 00 00 00	 call	 ?AtlThrowImpl@ATL@@YGXJ@Z ; ATL::AtlThrowImpl
$LN169@LoadScript:
  00659	cc		 int	 3
_TEXT	ENDS
;	COMDAT text$x
text$x	SEGMENT
__unwindfunclet$?LoadScript@CModelMng@@QAEHPBD@Z$0:
  00000	8d 8d 24 f1 ff
	ff		 lea	 ecx, DWORD PTR _script$[ebp]
  00006	e9 00 00 00 00	 jmp	 ??1CScript@@UAE@XZ	; CScript::~CScript
__unwindfunclet$?LoadScript@CModelMng@@QAEHPBD@Z$1:
  0000b	8d 8d 20 f1 ff
	ff		 lea	 ecx, DWORD PTR _str$2[ebp]
  00011	e9 00 00 00 00	 jmp	 ??1?$CStringT@DV?$StrTraitMFC@DV?$ChTraitsCRT@D@ATL@@@@@ATL@@QAE@XZ ; ATL::CStringT<char,StrTraitMFC<char,ATL::ChTraitsCRT<char> > >::~CStringT<char,StrTraitMFC<char,ATL::ChTraitsCRT<char> > >
__unwindfunclet$?LoadScript@CModelMng@@QAEHPBD@Z$2:
  00016	8d 8d 20 f1 ff
	ff		 lea	 ecx, DWORD PTR _str$3[ebp]
  0001c	e9 00 00 00 00	 jmp	 ??1?$CStringT@DV?$StrTraitMFC@DV?$ChTraitsCRT@D@ATL@@@@@ATL@@QAE@XZ ; ATL::CStringT<char,StrTraitMFC<char,ATL::ChTraitsCRT<char> > >::~CStringT<char,StrTraitMFC<char,ATL::ChTraitsCRT<char> > >
__unwindfunclet$?LoadScript@CModelMng@@QAEHPBD@Z$3:
  00021	8d 8d 20 f1 ff
	ff		 lea	 ecx, DWORD PTR _str$4[ebp]
  00027	e9 00 00 00 00	 jmp	 ??1?$CStringT@DV?$StrTraitMFC@DV?$ChTraitsCRT@D@ATL@@@@@ATL@@QAE@XZ ; ATL::CStringT<char,StrTraitMFC<char,ATL::ChTraitsCRT<char> > >::~CStringT<char,StrTraitMFC<char,ATL::ChTraitsCRT<char> > >
  0002c	cc		 int	 3
  0002d	cc		 int	 3
  0002e	cc		 int	 3
  0002f	cc		 int	 3
  00030	cc		 int	 3
__ehhandler$?LoadScript@CModelMng@@QAEHPBD@Z:
  00031	90		 npad	 1
  00032	90		 npad	 1
  00033	8b 54 24 08	 mov	 edx, DWORD PTR [esp+8]
  00037	8d 42 0c	 lea	 eax, DWORD PTR [edx+12]
  0003a	8b 8a 08 f1 ff
	ff		 mov	 ecx, DWORD PTR [edx-3832]
  00040	33 c8		 xor	 ecx, eax
  00042	e8 00 00 00 00	 call	 @__security_check_cookie@4
  00047	8b 4a fc	 mov	 ecx, DWORD PTR [edx-4]
  0004a	33 c8		 xor	 ecx, eax
  0004c	e8 00 00 00 00	 call	 @__security_check_cookie@4
  00051	b8 00 00 00 00	 mov	 eax, OFFSET __ehfuncinfo$?LoadScript@CModelMng@@QAEHPBD@Z
  00056	e9 00 00 00 00	 jmp	 ___CxxFrameHandler3
text$x	ENDS
?LoadScript@CModelMng@@QAEHPBD@Z ENDP			; CModelMng::LoadScript
; Function compile flags: /Ogtp
; File C:\IAGOS\server\v18\Source\Source\_Common\ModelMng.cpp
; File C:\Program Files (x86)\Windows Kits\10\Include\10.0.26100.0\ucrt\tchar.h
; File C:\IAGOS\server\v18\Source\Source\_Common\ModelMng.cpp
; File C:\Program Files (x86)\Windows Kits\10\Include\10.0.26100.0\ucrt\tchar.h
; File C:\IAGOS\server\v18\Source\Source\_Common\ModelMng.cpp
; File C:\IAGOS\server\v18\Source\Source\_Common\File.h
; File C:\IAGOS\server\v18\Source\Source\_Common\ModelMng.cpp
; File C:\Program Files\Microsoft Visual Studio\2022\Professional\VC\Tools\MSVC\14.44.35207\atlmfc\include\atlsimpstr.h
; File C:\IAGOS\server\v18\Source\Source\_Common\ModelMng.cpp
; File C:\Program Files\Microsoft Visual Studio\2022\Professional\VC\Tools\MSVC\14.44.35207\atlmfc\include\atlsimpstr.h
; File C:\IAGOS\server\v18\Source\Source\_Common\ModelMng.cpp
; File C:\IAGOS\server\v18\Source\Source\_Common\File.h
; File C:\IAGOS\server\v18\Source\Source\_Common\ModelMng.cpp
; File C:\Program Files\Microsoft Visual Studio\2022\Professional\VC\Tools\MSVC\14.44.35207\include\xtree
; File C:\Program Files\Microsoft Visual Studio\2022\Professional\VC\Tools\MSVC\14.44.35207\include\type_traits
; File C:\Program Files\Microsoft Visual Studio\2022\Professional\VC\Tools\MSVC\14.44.35207\include\xtree
; File C:\IAGOS\server\v18\Source\Source\_Common\ModelMng.cpp
; File C:\Program Files\Microsoft Visual Studio\2022\Professional\VC\Tools\MSVC\14.44.35207\include\xtree
; File C:\IAGOS\server\v18\Source\Source\_Common\ModelMng.cpp
; File C:\Program Files\Microsoft Visual Studio\2022\Professional\VC\Tools\MSVC\14.44.35207\include\utility
; File C:\Program Files\Microsoft Visual Studio\2022\Professional\VC\Tools\MSVC\14.44.35207\include\xtree
; File C:\IAGOS\server\v18\Source\Source\_Common\ModelMng.cpp
; File C:\Program Files\Microsoft Visual Studio\2022\Professional\VC\Tools\MSVC\14.44.35207\include\xtree
; File C:\IAGOS\server\v18\Source\Source\_Common\ModelMng.cpp
;	COMDAT ?LoadModel@CModelMng@@QAEPAVCModel@@PAUIDirect3DDevice9@@PADPAUtagMODELELEM@@HH@Z
_TEXT	SEGMENT
__Loc$2 = -320						; size = 12
_resFp$3 = -316						; size = 8
__Result$4 = -316					; size = 8
$T5 = -312						; size = 4
$T6 = -312						; size = 4
$T7 = -308						; size = 4
_pd3dDevice$GSCopy$1$ = -308				; size = 4
$T8 = -304						; size = 28
$T9 = -300						; size = 24
_szFileName$ = -276					; size = 260
__$ArrayPad$ = -16					; size = 4
__$EHRec$ = -12						; size = 12
_pd3dDevice$ = 8					; size = 4
_lpszFileName$ = 12					; size = 4
_lpModelElem$ = 16					; size = 4
_nType$ = 20						; size = 4
_bParts$ = 24						; size = 4
?LoadModel@CModelMng@@QAEPAVCModel@@PAUIDirect3DDevice9@@PADPAUtagMODELELEM@@HH@Z PROC ; CModelMng::LoadModel, COMDAT
; _this$ = ecx

; 180  : {

  00000	55		 push	 ebp
  00001	8b ec		 mov	 ebp, esp
  00003	6a ff		 push	 -1
  00005	68 00 00 00 00	 push	 __ehhandler$?LoadModel@CModelMng@@QAEPAVCModel@@PAUIDirect3DDevice9@@PADPAUtagMODELELEM@@HH@Z
  0000a	64 a1 00 00 00
	00		 mov	 eax, DWORD PTR fs:0
  00010	50		 push	 eax
  00011	81 ec 34 01 00
	00		 sub	 esp, 308		; 00000134H
  00017	a1 00 00 00 00	 mov	 eax, DWORD PTR ___security_cookie
  0001c	33 c5		 xor	 eax, ebp
  0001e	89 45 f0	 mov	 DWORD PTR __$ArrayPad$[ebp], eax
  00021	53		 push	 ebx
  00022	56		 push	 esi
  00023	57		 push	 edi
  00024	50		 push	 eax
  00025	8d 45 f4	 lea	 eax, DWORD PTR __$EHRec$[ebp]
  00028	64 a3 00 00 00
	00		 mov	 DWORD PTR fs:0, eax
  0002e	8b f9		 mov	 edi, ecx
  00030	8b 45 08	 mov	 eax, DWORD PTR _pd3dDevice$[ebp]

; 181  : 	HRESULT hr;
; 182  : 	CModel* pModel = NULL;

  00033	33 f6		 xor	 esi, esi
  00035	8b 5d 0c	 mov	 ebx, DWORD PTR _lpszFileName$[ebp]
  00038	89 85 cc fe ff
	ff		 mov	 DWORD PTR _pd3dDevice$GSCopy$1$[ebp], eax

; 183  : 	CModel* pModelBill = NULL;
; 184  : 	int nModelType = lpModelElem->m_dwModelType;

  0003e	8b 45 10	 mov	 eax, DWORD PTR _lpModelElem$[ebp]
  00041	8b 40 40	 mov	 eax, DWORD PTR [eax+64]

; 185  : 	TCHAR szFileName[MAX_PATH];
; 186  : 	MapStrToPtrItor mapItor;
; 187  : 
; 188  : 	switch( nModelType )

  00044	83 e8 01	 sub	 eax, 1
  00047	0f 84 ad 01 00
	00		 je	 $LN7@LoadModel
  0004d	83 e8 01	 sub	 eax, 1
  00050	0f 85 c2 02 00
	00		 jne	 $LN11@LoadModel

; 233  : 			break;
; 234  : 		case MODELTYPE_ANIMATED_MESH:
; 235  : 			pModel = new CModelObject;

  00056	68 f0 2a 00 00	 push	 10992			; 00002af0H
  0005b	e8 00 00 00 00	 call	 ??2@YAPAXI@Z		; operator new
  00060	83 c4 04	 add	 esp, 4
  00063	89 85 c8 fe ff
	ff		 mov	 DWORD PTR $T6[ebp], eax
  00069	c7 45 fc 02 00
	00 00		 mov	 DWORD PTR __$EHRec$[ebp+8], 2
  00070	85 c0		 test	 eax, eax
  00072	74 0b		 je	 SHORT $LN23@LoadModel
  00074	8b c8		 mov	 ecx, eax
  00076	e8 00 00 00 00	 call	 ??0CModelObject@@QAE@XZ	; CModelObject::CModelObject
  0007b	8b f0		 mov	 esi, eax
  0007d	eb 02		 jmp	 SHORT $LN24@LoadModel
$LN23@LoadModel:
  0007f	33 f6		 xor	 esi, esi
$LN24@LoadModel:

; 236  : 			pModel->SetModelType( nModelType );
; 237  : 			pModel->InitDeviceObjects( pd3dDevice );

  00081	8b 06		 mov	 eax, DWORD PTR [esi]
  00083	8b ce		 mov	 ecx, esi
  00085	ff b5 cc fe ff
	ff		 push	 DWORD PTR _pd3dDevice$GSCopy$1$[ebp]
  0008b	c7 45 fc ff ff
	ff ff		 mov	 DWORD PTR __$EHRec$[ebp+8], -1
  00092	c7 46 08 02 00
	00 00		 mov	 DWORD PTR [esi+8], 2
  00099	ff 50 58	 call	 DWORD PTR [eax+88]

; 238  : 			pModel->m_pModelElem = lpModelElem;

  0009c	8b 45 10	 mov	 eax, DWORD PTR _lpModelElem$[ebp]
  0009f	89 86 90 00 00
	00		 mov	 DWORD PTR [esi+144], eax

; 239  : 			pModel->m_pModelElem->m_bUsed = TRUE;
; 240  : #if __VER >= 14 // __WING_ITEM
; 241  : 			memset( szFileName, 0, sizeof(szFileName) );

  000a5	68 04 01 00 00	 push	 260			; 00000104H
  000aa	6a 00		 push	 0
  000ac	80 88 81 00 00
	00 10		 or	 BYTE PTR [eax+129], 16	; 00000010H
  000b3	8d 85 ec fe ff
	ff		 lea	 eax, DWORD PTR _szFileName$[ebp]
  000b9	50		 push	 eax
  000ba	e8 00 00 00 00	 call	 _memset

; 242  : 			_tcsncpy( szFileName, lpszFileName, _tcslen( lpszFileName ) - 4 );	// .o3d¸¦ ¶Ľ°í ĆÄŔĎ¸íşÎşĐ¸¸ Ä«ÇÇ

  000bf	8b cb		 mov	 ecx, ebx
  000c1	83 c4 0c	 add	 esp, 12			; 0000000cH
  000c4	8d 51 01	 lea	 edx, DWORD PTR [ecx+1]
$LL137@LoadModel:
  000c7	8a 01		 mov	 al, BYTE PTR [ecx]
  000c9	41		 inc	 ecx
  000ca	84 c0		 test	 al, al
  000cc	75 f9		 jne	 SHORT $LL137@LoadModel
  000ce	2b ca		 sub	 ecx, edx
  000d0	8d 41 fc	 lea	 eax, DWORD PTR [ecx-4]
; File C:\Program Files (x86)\Windows Kits\10\Include\10.0.26100.0\ucrt\tchar.h

; 1528 :     return (char *)_mbsnbcpy((unsigned char *)_Dst,(const unsigned char *)_Source,_Count);

  000d3	50		 push	 eax
  000d4	8d 85 ec fe ff
	ff		 lea	 eax, DWORD PTR _szFileName$[ebp]
  000da	53		 push	 ebx
  000db	50		 push	 eax
  000dc	e8 00 00 00 00	 call	 __mbsnbcpy
; File C:\IAGOS\server\v18\Source\Source\_Common\ModelMng.cpp

; 243  : 			_tcscat( szFileName, _T(".chr") );

  000e1	8d 8d ec fe ff
	ff		 lea	 ecx, DWORD PTR _szFileName$[ebp]
; File C:\Program Files (x86)\Windows Kits\10\Include\10.0.26100.0\ucrt\tchar.h

; 1528 :     return (char *)_mbsnbcpy((unsigned char *)_Dst,(const unsigned char *)_Source,_Count);

  000e7	83 c4 0c	 add	 esp, 12			; 0000000cH
; File C:\IAGOS\server\v18\Source\Source\_Common\ModelMng.cpp

; 243  : 			_tcscat( szFileName, _T(".chr") );

  000ea	49		 dec	 ecx
  000eb	0f 1f 44 00 00	 npad	 5
$LL138@LoadModel:
  000f0	8a 41 01	 mov	 al, BYTE PTR [ecx+1]
  000f3	8d 49 01	 lea	 ecx, DWORD PTR [ecx+1]
  000f6	84 c0		 test	 al, al
  000f8	75 f6		 jne	 SHORT $LL138@LoadModel
  000fa	a1 00 00 00 00	 mov	 eax, DWORD PTR ??_C@_04DFHCEAIG@?4chr@
  000ff	89 01		 mov	 DWORD PTR [ecx], eax
  00101	a0 04 00 00 00	 mov	 al, BYTE PTR ??_C@_04DFHCEAIG@?4chr@+4
  00106	88 41 04	 mov	 BYTE PTR [ecx+4], al

; 244  : 			switch( nType )

  00109	8b 45 14	 mov	 eax, DWORD PTR _nType$[ebp]
  0010c	83 e8 04	 sub	 eax, 4
  0010f	74 1c		 je	 SHORT $LN13@LoadModel
  00111	83 e8 01	 sub	 eax, 1
  00114	0f 85 b9 00 00
	00		 jne	 $LN4@LoadModel

; 252  : 					break;
; 253  : 				}
; 254  : 			case OT_MOVER:	// ą«ąöŔĎ °ćżě żÜŔĺş»(.chr)Ŕ» ·ÎµůÇŃ´Ů
; 255  : 				{
; 256  : 					((CModelObject*)pModel)->LoadBone( szFileName );

  0011a	8d 85 ec fe ff
	ff		 lea	 eax, DWORD PTR _szFileName$[ebp]
  00120	8b ce		 mov	 ecx, esi
  00122	50		 push	 eax
  00123	e8 00 00 00 00	 call	 ?LoadBone@CModelObject@@QAEHPBD@Z ; CModelObject::LoadBone
  00128	e9 a6 00 00 00	 jmp	 $LN4@LoadModel
$LN13@LoadModel:
; File C:\IAGOS\server\v18\Source\Source\_Common\File.h

; 15   : 	CFileIO() { fp = NULL; } 

  0012d	c7 85 c4 fe ff
	ff 00 00 00 00	 mov	 DWORD PTR _resFp$3[ebp], OFFSET ??_7CFileIO@@6B@
  00137	c7 85 c8 fe ff
	ff 00 00 00 00	 mov	 DWORD PTR _resFp$3[ebp+4], 0
; File C:\IAGOS\server\v18\Source\Source\_Common\ModelMng.cpp

; 249  : 					BOOL bResult = resFp.Open( MakePath( DIR_MODEL, szFileName ), "rb" );

  00141	8d 85 ec fe ff
	ff		 lea	 eax, DWORD PTR _szFileName$[ebp]
  00147	c7 45 fc 03 00
	00 00		 mov	 DWORD PTR __$EHRec$[ebp+8], 3
  0014e	50		 push	 eax
  0014f	8d 85 cc fe ff
	ff		 lea	 eax, DWORD PTR $T7[ebp]
  00155	68 00 00 00 00	 push	 OFFSET ??_C@_06IJGEHPBH@Model?2@
  0015a	50		 push	 eax
  0015b	e8 00 00 00 00	 call	 ?MakePath@@YA?AV?$CStringT@DV?$StrTraitMFC@DV?$ChTraitsCRT@D@ATL@@@@@ATL@@PBD0@Z ; MakePath
  00160	83 c4 0c	 add	 esp, 12			; 0000000cH
  00163	68 00 00 00 00	 push	 OFFSET ??_C@_02JDPG@rb@
  00168	ff 30		 push	 DWORD PTR [eax]
  0016a	8d 8d c4 fe ff
	ff		 lea	 ecx, DWORD PTR _resFp$3[ebp]
  00170	c6 45 fc 04	 mov	 BYTE PTR __$EHRec$[ebp+8], 4
  00174	e8 00 00 00 00	 call	 ?Open@CFileIO@@UAEHPBDPAD@Z ; CFileIO::Open
; File C:\Program Files\Microsoft Visual Studio\2022\Professional\VC\Tools\MSVC\14.44.35207\atlmfc\include\atlsimpstr.h

; 804  : 		return( reinterpret_cast< CStringData* >( m_pszData )-1 );

  00179	8b 95 cc fe ff
	ff		 mov	 edx, DWORD PTR $T7[ebp]
; File C:\IAGOS\server\v18\Source\Source\_Common\ModelMng.cpp

; 249  : 					BOOL bResult = resFp.Open( MakePath( DIR_MODEL, szFileName ), "rb" );

  0017f	8b f8		 mov	 edi, eax
  00181	c6 45 fc 03	 mov	 BYTE PTR __$EHRec$[ebp+8], 3
; File C:\Program Files\Microsoft Visual Studio\2022\Professional\VC\Tools\MSVC\14.44.35207\atlmfc\include\atlsimpstr.h

; 804  : 		return( reinterpret_cast< CStringData* >( m_pszData )-1 );

  00185	83 c2 f0	 add	 edx, -16		; fffffff0H

; 92   : 		if( _InterlockedDecrement( &nRefs ) <= 0 )

  00188	83 c8 ff	 or	 eax, -1
  0018b	f0 0f c1 42 0c	 lock	  xadd	 DWORD PTR [edx+12], eax
  00190	48		 dec	 eax
  00191	85 c0		 test	 eax, eax
  00193	7f 08		 jg	 SHORT $LN102@LoadModel

; 93   : 		{
; 94   : 			pStringMgr->Free( this );

  00195	8b 0a		 mov	 ecx, DWORD PTR [edx]
  00197	52		 push	 edx
  00198	8b 01		 mov	 eax, DWORD PTR [ecx]
  0019a	ff 50 04	 call	 DWORD PTR [eax+4]
$LN102@LoadModel:
; File C:\IAGOS\server\v18\Source\Source\_Common\ModelMng.cpp

; 250  : 					if( bResult == TRUE )

  0019d	83 ff 01	 cmp	 edi, 1
  001a0	75 0e		 jne	 SHORT $LN14@LoadModel

; 251  : 						((CModelObject*)pModel)->LoadBone( szFileName );

  001a2	8d 85 ec fe ff
	ff		 lea	 eax, DWORD PTR _szFileName$[ebp]
  001a8	8b ce		 mov	 ecx, esi
  001aa	50		 push	 eax
  001ab	e8 00 00 00 00	 call	 ?LoadBone@CModelObject@@QAEHPBD@Z ; CModelObject::LoadBone
$LN14@LoadModel:
; File C:\IAGOS\server\v18\Source\Source\_Common\File.h

; 17   : 	virtual ~CFileIO() { Close(); }

  001b0	8d 8d c4 fe ff
	ff		 lea	 ecx, DWORD PTR _resFp$3[ebp]
  001b6	c7 45 fc 05 00
	00 00		 mov	 DWORD PTR __$EHRec$[ebp+8], 5
  001bd	c7 85 c4 fe ff
	ff 00 00 00 00	 mov	 DWORD PTR _resFp$3[ebp], OFFSET ??_7CFileIO@@6B@
  001c7	e8 00 00 00 00	 call	 ?Close@CFileIO@@UAEHXZ	; CFileIO::Close
  001cc	c7 45 fc ff ff
	ff ff		 mov	 DWORD PTR __$EHRec$[ebp+8], -1
$LN4@LoadModel:
; File C:\IAGOS\server\v18\Source\Source\_Common\ModelMng.cpp

; 269  : 			if( bParts == FALSE )

  001d3	83 7d 18 00	 cmp	 DWORD PTR _bParts$[ebp], 0
  001d7	0f 85 3b 01 00
	00		 jne	 $LN11@LoadModel

; 270  : 			{
; 271  : 				if( ((CModelObject*)pModel)->LoadModel( lpszFileName ) == SUCCESS )  // skin ŔĐŔ˝

  001dd	8b 06		 mov	 eax, DWORD PTR [esi]
  001df	8b ce		 mov	 ecx, esi
  001e1	53		 push	 ebx
  001e2	ff 50 04	 call	 DWORD PTR [eax+4]
  001e5	83 f8 01	 cmp	 eax, 1
  001e8	0f 85 2a 01 00
	00		 jne	 $LN11@LoadModel

; 272  : 				{
; 273  : 					((CModelObject*)pModel)->RestoreDeviceObjects();

  001ee	8b 06		 mov	 eax, DWORD PTR [esi]
  001f0	8b ce		 mov	 ecx, esi
  001f2	ff 50 5c	 call	 DWORD PTR [eax+92]
  001f5	e9 1e 01 00 00	 jmp	 $LN11@LoadModel
$LN7@LoadModel:

; 201  : 			mapItor = m_mapFileToMesh.find( lpszFileName );

  001fa	53		 push	 ebx
  001fb	8d 8d d4 fe ff
	ff		 lea	 ecx, DWORD PTR $T9[ebp]
  00201	e8 00 00 00 00	 call	 ??0?$basic_string@DU?$char_traits@D@std@@V?$allocator@D@2@@std@@QAE@QBD@Z ; std::basic_string<char,std::char_traits<char>,std::allocator<char> >::basic_string<char,std::char_traits<char>,std::allocator<char> >
; File C:\Program Files\Microsoft Visual Studio\2022\Professional\VC\Tools\MSVC\14.44.35207\include\xtree

; 1384 :         const _Tree_find_result<_Nodeptr> _Loc = _Find_lower_bound(_Keyval);

  00206	8d 85 d4 fe ff
	ff		 lea	 eax, DWORD PTR $T9[ebp]
  0020c	8b cf		 mov	 ecx, edi
  0020e	50		 push	 eax
  0020f	8d 85 c0 fe ff
	ff		 lea	 eax, DWORD PTR __Loc$2[ebp]
  00215	50		 push	 eax
  00216	e8 00 00 00 00	 call	 ??$_Find_lower_bound@V?$basic_string@DU?$char_traits@D@std@@V?$allocator@D@2@@std@@@?$_Tree@V?$_Tmap_traits@V?$basic_string@DU?$char_traits@D@std@@V?$allocator@D@2@@std@@PAXU?$less@V?$basic_string@DU?$char_traits@D@std@@V?$allocator@D@2@@std@@@2@V?$allocator@U?$pair@$$CBV?$basic_string@DU?$char_traits@D@std@@V?$allocator@D@2@@std@@PAX@std@@@2@$0A@@std@@@std@@IBE?AU?$_Tree_find_result@PAU?$_Tree_node@U?$pair@$$CBV?$basic_string@DU?$char_traits@D@std@@V?$allocator@D@2@@std@@PAX@std@@PAX@std@@@1@ABV?$basic_string@DU?$char_traits@D@std@@V?$allocator@D@2@@1@@Z ; std::_Tree<std::_Tmap_traits<std::basic_string<char,std::char_traits<char>,std::allocator<char> >,void *,std::less<std::basic_string<char,std::char_traits<char>,std::allocator<char> > >,std::allocator<std::pair<std::basic_string<char,std::char_traits<char>,std::allocator<char> > const ,void *> >,0> >::_Find_lower_bound<std::basic_string<char,std::char_traits<char>,std::allocator<char> > >

; 1624 :         return !_Bound->_Isnil && !_DEBUG_LT_PRED(_Getcomp(), _Keyval, _Traits::_Kfn(_Bound->_Myval));

  0021b	8b b5 c8 fe ff
	ff		 mov	 esi, DWORD PTR __Loc$2[ebp+8]
  00221	80 7e 0d 00	 cmp	 BYTE PTR [esi+13], 0
  00225	75 17		 jne	 SHORT $LN43@LoadModel
  00227	8d 46 10	 lea	 eax, DWORD PTR [esi+16]
; File C:\Program Files\Microsoft Visual Studio\2022\Professional\VC\Tools\MSVC\14.44.35207\include\type_traits

; 2380 :         return _Left < _Right;

  0022a	50		 push	 eax
  0022b	8d 85 d4 fe ff
	ff		 lea	 eax, DWORD PTR $T9[ebp]
  00231	50		 push	 eax
  00232	e8 00 00 00 00	 call	 ??$?MDU?$char_traits@D@std@@V?$allocator@D@1@@std@@YA_NABV?$basic_string@DU?$char_traits@D@std@@V?$allocator@D@2@@0@0@Z ; std::operator<<char,std::char_traits<char>,std::allocator<char> >
  00237	83 c4 08	 add	 esp, 8
; File C:\Program Files\Microsoft Visual Studio\2022\Professional\VC\Tools\MSVC\14.44.35207\include\xtree

; 1624 :         return !_Bound->_Isnil && !_DEBUG_LT_PRED(_Getcomp(), _Keyval, _Traits::_Kfn(_Bound->_Myval));

  0023a	84 c0		 test	 al, al
  0023c	74 02		 je	 SHORT $LN42@LoadModel
$LN43@LoadModel:

; 1389 :         return _Get_scary()->_Myhead;

  0023e	8b 37		 mov	 esi, DWORD PTR [edi]
$LN42@LoadModel:
; File C:\IAGOS\server\v18\Source\Source\_Common\ModelMng.cpp

; 201  : 			mapItor = m_mapFileToMesh.find( lpszFileName );

  00240	8d 8d d4 fe ff
	ff		 lea	 ecx, DWORD PTR $T9[ebp]
  00246	e8 00 00 00 00	 call	 ??1?$basic_string@DU?$char_traits@D@std@@V?$allocator@D@2@@std@@QAE@XZ ; std::basic_string<char,std::char_traits<char>,std::allocator<char> >::~basic_string<char,std::char_traits<char>,std::allocator<char> >
; File C:\Program Files\Microsoft Visual Studio\2022\Professional\VC\Tools\MSVC\14.44.35207\include\xtree

; 37   :     _Tree_unchecked_const_iterator(_Nodeptr _Pnode, const _Mytree* _Plist) noexcept : _Ptr(_Pnode) {

  0024b	3b 37		 cmp	 esi, DWORD PTR [edi]
; File C:\IAGOS\server\v18\Source\Source\_Common\ModelMng.cpp

; 202  : 			if( mapItor != m_mapFileToMesh.end() )

  0024d	74 18		 je	 SHORT $LN8@LoadModel

; 203  : 			{
; 204  : 				((CModel*)(*mapItor).second)->m_pModelElem->m_bUsed = TRUE;

  0024f	8b 46 28	 mov	 eax, DWORD PTR [esi+40]
  00252	8b 80 90 00 00
	00		 mov	 eax, DWORD PTR [eax+144]
  00258	80 88 81 00 00
	00 10		 or	 BYTE PTR [eax+129], 16	; 00000010H

; 205  : 
; 206  : #ifdef __CSC_EXTEXTURE
; 207  : 				pModel = (CModel*) (*mapItor).second;
; 208  : 				pModel->SetModelType( nModelType );
; 209  : 				pModel->m_pModelElem = lpModelElem;
; 210  : 
; 211  : 				return pModel;
; 212  : #else //__CSC_EXTEXTURE
; 213  : 				return (CModel*) (*mapItor).second;

  0025f	8b 46 28	 mov	 eax, DWORD PTR [esi+40]
  00262	e9 b3 00 00 00	 jmp	 $LN1@LoadModel
$LN8@LoadModel:

; 214  : #endif //__CSC_EXTEXTURE
; 215  : 			}
; 216  : 			pModel = new CModelObject;

  00267	68 f0 2a 00 00	 push	 10992			; 00002af0H
  0026c	e8 00 00 00 00	 call	 ??2@YAPAXI@Z		; operator new
  00271	83 c4 04	 add	 esp, 4
  00274	89 85 c8 fe ff
	ff		 mov	 DWORD PTR $T5[ebp], eax
  0027a	c7 45 fc 00 00
	00 00		 mov	 DWORD PTR __$EHRec$[ebp+8], 0
  00281	85 c0		 test	 eax, eax
  00283	74 0b		 je	 SHORT $LN19@LoadModel
  00285	8b c8		 mov	 ecx, eax
  00287	e8 00 00 00 00	 call	 ??0CModelObject@@QAE@XZ	; CModelObject::CModelObject
  0028c	8b f0		 mov	 esi, eax
  0028e	eb 02		 jmp	 SHORT $LN20@LoadModel
$LN19@LoadModel:
  00290	33 f6		 xor	 esi, esi
$LN20@LoadModel:

; 217  : 			pModel->SetModelType( nModelType );
; 218  : 			pModel->m_pModelElem = lpModelElem;

  00292	8b 45 10	 mov	 eax, DWORD PTR _lpModelElem$[ebp]

; 219  : 			hr = pModel->InitDeviceObjects( pd3dDevice );

  00295	8b ce		 mov	 ecx, esi
  00297	ff b5 cc fe ff
	ff		 push	 DWORD PTR _pd3dDevice$GSCopy$1$[ebp]
  0029d	89 86 90 00 00
	00		 mov	 DWORD PTR [esi+144], eax
  002a3	8b 06		 mov	 eax, DWORD PTR [esi]
  002a5	c7 45 fc ff ff
	ff ff		 mov	 DWORD PTR __$EHRec$[ebp+8], -1
  002ac	c7 46 08 01 00
	00 00		 mov	 DWORD PTR [esi+8], 1
  002b3	ff 50 58	 call	 DWORD PTR [eax+88]

; 220  : 			hr = pModel->LoadModel( lpszFileName );

  002b6	8b 06		 mov	 eax, DWORD PTR [esi]
  002b8	8b ce		 mov	 ecx, esi
  002ba	53		 push	 ebx
  002bb	ff 50 04	 call	 DWORD PTR [eax+4]
  002be	8b 16		 mov	 edx, DWORD PTR [esi]

; 221  : 			if( hr == SUCCESS )

  002c0	8b ce		 mov	 ecx, esi
  002c2	83 f8 01	 cmp	 eax, 1
  002c5	75 4b		 jne	 SHORT $LN9@LoadModel

; 222  : 			{
; 223  : 				hr = pModel->RestoreDeviceObjects();

  002c7	ff 52 5c	 call	 DWORD PTR [edx+92]
; File C:\Program Files\Microsoft Visual Studio\2022\Professional\VC\Tools\MSVC\14.44.35207\include\utility

; 274  :         : first(_STD forward<_Other1>(_Val1)), second(_STD forward<_Other2>(_Val2)) {

  002ca	53		 push	 ebx
  002cb	8d 8d d0 fe ff
	ff		 lea	 ecx, DWORD PTR $T8[ebp]
  002d1	e8 00 00 00 00	 call	 ??0?$basic_string@DU?$char_traits@D@std@@V?$allocator@D@2@@std@@QAE@QBD@Z ; std::basic_string<char,std::char_traits<char>,std::allocator<char> >::basic_string<char,std::char_traits<char>,std::allocator<char> >
  002d6	89 b5 e8 fe ff
	ff		 mov	 DWORD PTR $T8[ebp+24], esi
; File C:\Program Files\Microsoft Visual Studio\2022\Professional\VC\Tools\MSVC\14.44.35207\include\xtree

; 1246 :         const auto _Result = _Emplace(_STD move(_Val));

  002dc	8d 85 d0 fe ff
	ff		 lea	 eax, DWORD PTR $T8[ebp]
; File C:\IAGOS\server\v18\Source\Source\_Common\ModelMng.cpp

; 228  : 				m_mapFileToMesh.insert( MapStrToPtrType( lpszFileName, pModel ) );

  002e2	c7 45 fc 01 00
	00 00		 mov	 DWORD PTR __$EHRec$[ebp+8], 1
; File C:\Program Files\Microsoft Visual Studio\2022\Professional\VC\Tools\MSVC\14.44.35207\include\xtree

; 1246 :         const auto _Result = _Emplace(_STD move(_Val));

  002e9	50		 push	 eax
  002ea	8d 85 c4 fe ff
	ff		 lea	 eax, DWORD PTR __Result$4[ebp]
  002f0	8b cf		 mov	 ecx, edi
  002f2	50		 push	 eax
  002f3	e8 00 00 00 00	 call	 ??$_Emplace@U?$pair@$$CBV?$basic_string@DU?$char_traits@D@std@@V?$allocator@D@2@@std@@PAX@std@@@?$_Tree@V?$_Tmap_traits@V?$basic_string@DU?$char_traits@D@std@@V?$allocator@D@2@@std@@PAXU?$less@V?$basic_string@DU?$char_traits@D@std@@V?$allocator@D@2@@std@@@2@V?$allocator@U?$pair@$$CBV?$basic_string@DU?$char_traits@D@std@@V?$allocator@D@2@@std@@PAX@std@@@2@$0A@@std@@@std@@IAE?AU?$pair@PAU?$_Tree_node@U?$pair@$$CBV?$basic_string@DU?$char_traits@D@std@@V?$allocator@D@2@@std@@PAX@std@@PAX@std@@_N@1@$$QAU?$pair@$$CBV?$basic_string@DU?$char_traits@D@std@@V?$allocator@D@2@@std@@PAX@1@@Z ; std::_Tree<std::_Tmap_traits<std::basic_string<char,std::char_traits<char>,std::allocator<char> >,void *,std::less<std::basic_string<char,std::char_traits<char>,std::allocator<char> > >,std::allocator<std::pair<std::basic_string<char,std::char_traits<char>,std::allocator<char> > const ,void *> >,0> >::_Emplace<std::pair<std::basic_string<char,std::char_traits<char>,std::allocator<char> > const ,void *> >
  002f8	8d 8d d0 fe ff
	ff		 lea	 ecx, DWORD PTR $T8[ebp]
  002fe	e8 00 00 00 00	 call	 ??1?$basic_string@DU?$char_traits@D@std@@V?$allocator@D@2@@std@@QAE@XZ ; std::basic_string<char,std::char_traits<char>,std::allocator<char> >::~basic_string<char,std::char_traits<char>,std::allocator<char> >
; File C:\IAGOS\server\v18\Source\Source\_Common\ModelMng.cpp

; 229  : 				pModel->m_pModelElem->m_bUsed = TRUE;

  00303	8b 86 90 00 00
	00		 mov	 eax, DWORD PTR [esi+144]
  00309	80 88 81 00 00
	00 10		 or	 BYTE PTR [eax+129], 16	; 00000010H

; 230  : 			}

  00310	eb 06		 jmp	 SHORT $LN11@LoadModel
$LN9@LoadModel:

; 231  : 			else
; 232  : 				SAFE_DELETE( pModel )

  00312	6a 01		 push	 1
  00314	ff 12		 call	 DWORD PTR [edx]
  00316	33 f6		 xor	 esi, esi
$LN11@LoadModel:

; 274  : 				}
; 275  : 			}
; 276  : 			break;
; 277  : 	}
; 278  : 	return pModel;

  00318	8b c6		 mov	 eax, esi
$LN1@LoadModel:

; 279  : }

  0031a	8b 4d f4	 mov	 ecx, DWORD PTR __$EHRec$[ebp]
  0031d	64 89 0d 00 00
	00 00		 mov	 DWORD PTR fs:0, ecx
  00324	59		 pop	 ecx
  00325	5f		 pop	 edi
  00326	5e		 pop	 esi
  00327	5b		 pop	 ebx
  00328	8b 4d f0	 mov	 ecx, DWORD PTR __$ArrayPad$[ebp]
  0032b	33 cd		 xor	 ecx, ebp
  0032d	e8 00 00 00 00	 call	 @__security_check_cookie@4
  00332	8b e5		 mov	 esp, ebp
  00334	5d		 pop	 ebp
  00335	c2 14 00	 ret	 20			; 00000014H
_TEXT	ENDS
;	COMDAT text$x
text$x	SEGMENT
__unwindfunclet$?LoadModel@CModelMng@@QAEPAVCModel@@PAUIDirect3DDevice9@@PADPAUtagMODELELEM@@HH@Z$3:
  00000	68 f0 2a 00 00	 push	 10992			; 00002af0H
  00005	8b 85 c8 fe ff
	ff		 mov	 eax, DWORD PTR $T6[ebp]
  0000b	50		 push	 eax
  0000c	e8 00 00 00 00	 call	 ??3@YAXPAXI@Z		; operator delete
  00011	83 c4 08	 add	 esp, 8
  00014	c3		 ret	 0
__unwindfunclet$?LoadModel@CModelMng@@QAEPAVCModel@@PAUIDirect3DDevice9@@PADPAUtagMODELELEM@@HH@Z$4:
  00015	8d 8d c4 fe ff
	ff		 lea	 ecx, DWORD PTR _resFp$3[ebp]
  0001b	e9 00 00 00 00	 jmp	 ??1CFileIO@@UAE@XZ	; CFileIO::~CFileIO
__unwindfunclet$?LoadModel@CModelMng@@QAEPAVCModel@@PAUIDirect3DDevice9@@PADPAUtagMODELELEM@@HH@Z$5:
  00020	8d 8d cc fe ff
	ff		 lea	 ecx, DWORD PTR $T7[ebp]
  00026	e9 00 00 00 00	 jmp	 ??1?$CStringT@DV?$StrTraitMFC@DV?$ChTraitsCRT@D@ATL@@@@@ATL@@QAE@XZ ; ATL::CStringT<char,StrTraitMFC<char,ATL::ChTraitsCRT<char> > >::~CStringT<char,StrTraitMFC<char,ATL::ChTraitsCRT<char> > >
__unwindfunclet$?LoadModel@CModelMng@@QAEPAVCModel@@PAUIDirect3DDevice9@@PADPAUtagMODELELEM@@HH@Z$1:
  0002b	68 f0 2a 00 00	 push	 10992			; 00002af0H
  00030	8b 85 c8 fe ff
	ff		 mov	 eax, DWORD PTR $T5[ebp]
  00036	50		 push	 eax
  00037	e8 00 00 00 00	 call	 ??3@YAXPAXI@Z		; operator delete
  0003c	83 c4 08	 add	 esp, 8
  0003f	c3		 ret	 0
__unwindfunclet$?LoadModel@CModelMng@@QAEPAVCModel@@PAUIDirect3DDevice9@@PADPAUtagMODELELEM@@HH@Z$2:
  00040	8d 8d d0 fe ff
	ff		 lea	 ecx, DWORD PTR $T8[ebp]
  00046	e9 00 00 00 00	 jmp	 ??1?$pair@$$CBV?$basic_string@DU?$char_traits@D@std@@V?$allocator@D@2@@std@@PAX@std@@QAE@XZ
  0004b	cc		 int	 3
  0004c	cc		 int	 3
  0004d	cc		 int	 3
  0004e	cc		 int	 3
  0004f	cc		 int	 3
__ehhandler$?LoadModel@CModelMng@@QAEPAVCModel@@PAUIDirect3DDevice9@@PADPAUtagMODELELEM@@HH@Z:
  00050	90		 npad	 1
  00051	90		 npad	 1
  00052	8b 54 24 08	 mov	 edx, DWORD PTR [esp+8]
  00056	8d 42 0c	 lea	 eax, DWORD PTR [edx+12]
  00059	8b 8a bc fe ff
	ff		 mov	 ecx, DWORD PTR [edx-324]
  0005f	33 c8		 xor	 ecx, eax
  00061	e8 00 00 00 00	 call	 @__security_check_cookie@4
  00066	8b 4a fc	 mov	 ecx, DWORD PTR [edx-4]
  00069	33 c8		 xor	 ecx, eax
  0006b	e8 00 00 00 00	 call	 @__security_check_cookie@4
  00070	b8 00 00 00 00	 mov	 eax, OFFSET __ehfuncinfo$?LoadModel@CModelMng@@QAEPAVCModel@@PAUIDirect3DDevice9@@PADPAUtagMODELELEM@@HH@Z
  00075	e9 00 00 00 00	 jmp	 ___CxxFrameHandler3
text$x	ENDS
?LoadModel@CModelMng@@QAEPAVCModel@@PAUIDirect3DDevice9@@PADPAUtagMODELELEM@@HH@Z ENDP ; CModelMng::LoadModel
; Function compile flags: /Ogtp
; File C:\IAGOS\server\v18\Source\Source\_Common\ModelMng.cpp
;	COMDAT ?LoadModel@CModelMng@@QAEPAVCModel@@PAUIDirect3DDevice9@@HHH@Z
_TEXT	SEGMENT
_pd3dDevice$GSCopy$1$ = -276				; size = 4
_lpModelElem$1$ = -272					; size = 4
_this$GSCopy$1$ = -268					; size = 4
_szFileName$ = -264					; size = 260
__$ArrayPad$ = -4					; size = 4
_pd3dDevice$ = 8					; size = 4
_nType$ = 12						; size = 4
_nIndex$ = 16						; size = 4
_bParts$ = 20						; size = 4
?LoadModel@CModelMng@@QAEPAVCModel@@PAUIDirect3DDevice9@@HHH@Z PROC ; CModelMng::LoadModel, COMDAT
; _this$ = ecx

; 167  : {

  00000	55		 push	 ebp
  00001	8b ec		 mov	 ebp, esp
  00003	81 ec 14 01 00
	00		 sub	 esp, 276		; 00000114H
  00009	a1 00 00 00 00	 mov	 eax, DWORD PTR ___security_cookie
  0000e	33 c5		 xor	 eax, ebp
  00010	89 45 fc	 mov	 DWORD PTR __$ArrayPad$[ebp], eax
  00013	53		 push	 ebx
  00014	8b 5d 14	 mov	 ebx, DWORD PTR _bParts$[ebp]
  00017	8b c1		 mov	 eax, ecx
  00019	8b 4d 08	 mov	 ecx, DWORD PTR _pd3dDevice$[ebp]
  0001c	56		 push	 esi
  0001d	8b 75 0c	 mov	 esi, DWORD PTR _nType$[ebp]
  00020	57		 push	 edi
  00021	8b 7d 10	 mov	 edi, DWORD PTR _nIndex$[ebp]

; 168  : 	LPMODELELEM lpModelElem = GetModelElem( nType, nIndex );

  00024	57		 push	 edi
  00025	89 8d ec fe ff
	ff		 mov	 DWORD PTR _pd3dDevice$GSCopy$1$[ebp], ecx
  0002b	8b c8		 mov	 ecx, eax
  0002d	56		 push	 esi
  0002e	89 85 f4 fe ff
	ff		 mov	 DWORD PTR _this$GSCopy$1$[ebp], eax
  00034	e8 00 00 00 00	 call	 ?GetModelElem@CModelMng@@QAEPAUtagMODELELEM@@KK@Z ; CModelMng::GetModelElem
  00039	89 85 f0 fe ff
	ff		 mov	 DWORD PTR _lpModelElem$1$[ebp], eax

; 169  : 	if( lpModelElem == NULL ) 

  0003f	85 c0		 test	 eax, eax
  00041	75 25		 jne	 SHORT $LN2@LoadModel

; 170  : 	{
; 171  : 		Error( "CModelMng::loadModel mdlObj/mdlDyna żˇ objtype=%d index=%d bpart=%d ŔÇ Á¤ş¸°ˇ ľř±şż©.", nType, nIndex, bParts );

  00043	53		 push	 ebx
  00044	57		 push	 edi
  00045	56		 push	 esi
  00046	68 00 00 00 00	 push	 OFFSET ??_C@_0FG@DDBICCKE@CModelMng?3?3loadModel?5mdlObj?1mdl@
  0004b	e8 00 00 00 00	 call	 ?Error@@YAPBDPBDZZ	; Error
  00050	83 c4 10	 add	 esp, 16			; 00000010H

; 172  : 		return NULL;

  00053	33 c0		 xor	 eax, eax
  00055	5f		 pop	 edi

; 178  : }

  00056	5e		 pop	 esi
  00057	5b		 pop	 ebx
  00058	8b 4d fc	 mov	 ecx, DWORD PTR __$ArrayPad$[ebp]
  0005b	33 cd		 xor	 ecx, ebp
  0005d	e8 00 00 00 00	 call	 @__security_check_cookie@4
  00062	8b e5		 mov	 esp, ebp
  00064	5d		 pop	 ebp
  00065	c2 10 00	 ret	 16			; 00000010H
$LN2@LoadModel:

; 173  : 	}
; 174  : 
; 175  : 	TCHAR szFileName[ MAX_PATH ];
; 176  : 	MakeModelName( szFileName, nType, nIndex );

  00068	8b 8d f4 fe ff
	ff		 mov	 ecx, DWORD PTR _this$GSCopy$1$[ebp]
  0006e	8d 85 f8 fe ff
	ff		 lea	 eax, DWORD PTR _szFileName$[ebp]
  00074	57		 push	 edi
  00075	56		 push	 esi
  00076	50		 push	 eax
  00077	e8 00 00 00 00	 call	 ?MakeModelName@CModelMng@@QAEXPADKK@Z ; CModelMng::MakeModelName

; 177  : 	return LoadModel( pd3dDevice, szFileName, lpModelElem, nType, bParts ); 

  0007c	8b 8d f4 fe ff
	ff		 mov	 ecx, DWORD PTR _this$GSCopy$1$[ebp]
  00082	8d 85 f8 fe ff
	ff		 lea	 eax, DWORD PTR _szFileName$[ebp]
  00088	53		 push	 ebx
  00089	56		 push	 esi
  0008a	ff b5 f0 fe ff
	ff		 push	 DWORD PTR _lpModelElem$1$[ebp]
  00090	50		 push	 eax
  00091	ff b5 ec fe ff
	ff		 push	 DWORD PTR _pd3dDevice$GSCopy$1$[ebp]
  00097	e8 00 00 00 00	 call	 ?LoadModel@CModelMng@@QAEPAVCModel@@PAUIDirect3DDevice9@@PADPAUtagMODELELEM@@HH@Z ; CModelMng::LoadModel

; 178  : }

  0009c	8b 4d fc	 mov	 ecx, DWORD PTR __$ArrayPad$[ebp]
  0009f	5f		 pop	 edi
  000a0	5e		 pop	 esi
  000a1	33 cd		 xor	 ecx, ebp
  000a3	5b		 pop	 ebx
  000a4	e8 00 00 00 00	 call	 @__security_check_cookie@4
  000a9	8b e5		 mov	 esp, ebp
  000ab	5d		 pop	 ebp
  000ac	c2 10 00	 ret	 16			; 00000010H
?LoadModel@CModelMng@@QAEPAVCModel@@PAUIDirect3DDevice9@@HHH@Z ENDP ; CModelMng::LoadModel
_TEXT	ENDS
; Function compile flags: /Ogtp
; File C:\IAGOS\server\v18\Source\Source\_Common\ModelMng.cpp
;	COMDAT ?LoadMotion@CModelMng@@QAEHPAVCModel@@KKK@Z
_TEXT	SEGMENT
_szMotionName$ = -264					; size = 260
__$ArrayPad$ = -4					; size = 4
_pModel$ = 8						; size = 4
_dwType$ = 12						; size = 4
_dwIndex$ = 16						; size = 4
_dwMotion$ = 20						; size = 4
?LoadMotion@CModelMng@@QAEHPAVCModel@@KKK@Z PROC	; CModelMng::LoadMotion, COMDAT
; _this$ = ecx

; 157  : {

  00000	55		 push	 ebp
  00001	8b ec		 mov	 ebp, esp
  00003	81 ec 08 01 00
	00		 sub	 esp, 264		; 00000108H
  00009	a1 00 00 00 00	 mov	 eax, DWORD PTR ___security_cookie
  0000e	33 c5		 xor	 eax, ebp
  00010	89 45 fc	 mov	 DWORD PTR __$ArrayPad$[ebp], eax

; 158  : 	if( dwType != OT_MOVER )

  00013	83 7d 0c 05	 cmp	 DWORD PTR _dwType$[ebp], 5
  00017	56		 push	 esi
  00018	8b 75 08	 mov	 esi, DWORD PTR _pModel$[ebp]
  0001b	74 13		 je	 SHORT $LN2@LoadMotion

; 159  : 		return FALSE;

  0001d	33 c0		 xor	 eax, eax
  0001f	5e		 pop	 esi

; 164  : 	return TRUE;
; 165  : }

  00020	8b 4d fc	 mov	 ecx, DWORD PTR __$ArrayPad$[ebp]
  00023	33 cd		 xor	 ecx, ebp
  00025	e8 00 00 00 00	 call	 @__security_check_cookie@4
  0002a	8b e5		 mov	 esp, ebp
  0002c	5d		 pop	 ebp
  0002d	c2 10 00	 ret	 16			; 00000010H
$LN2@LoadMotion:

; 160  : 	TCHAR szMotionName[ MAX_PATH ];
; 161  : 	MakeMotionName( szMotionName, dwType, dwIndex, dwMotion );

  00030	ff 75 14	 push	 DWORD PTR _dwMotion$[ebp]
  00033	8d 85 f8 fe ff
	ff		 lea	 eax, DWORD PTR _szMotionName$[ebp]
  00039	ff 75 10	 push	 DWORD PTR _dwIndex$[ebp]
  0003c	6a 05		 push	 5
  0003e	50		 push	 eax
  0003f	e8 00 00 00 00	 call	 ?MakeMotionName@CModelMng@@QAEXPADKKK@Z ; CModelMng::MakeMotionName

; 162  : 
; 163  : 	((CModelObject*)pModel)->LoadMotion( szMotionName );		// bone animation ŔĐŔ˝

  00044	8d 85 f8 fe ff
	ff		 lea	 eax, DWORD PTR _szMotionName$[ebp]
  0004a	8b ce		 mov	 ecx, esi
  0004c	50		 push	 eax
  0004d	e8 00 00 00 00	 call	 ?LoadMotion@CModelObject@@QAEHPBD@Z ; CModelObject::LoadMotion

; 164  : 	return TRUE;
; 165  : }

  00052	8b 4d fc	 mov	 ecx, DWORD PTR __$ArrayPad$[ebp]
  00055	b8 01 00 00 00	 mov	 eax, 1
  0005a	33 cd		 xor	 ecx, ebp
  0005c	5e		 pop	 esi
  0005d	e8 00 00 00 00	 call	 @__security_check_cookie@4
  00062	8b e5		 mov	 esp, ebp
  00064	5d		 pop	 ebp
  00065	c2 10 00	 ret	 16			; 00000010H
?LoadMotion@CModelMng@@QAEHPAVCModel@@KKK@Z ENDP	; CModelMng::LoadMotion
_TEXT	ENDS
; Function compile flags: /Ogtp
; File C:\IAGOS\server\v18\Source\Source\_Common\ModelMng.cpp
; File C:\Program Files (x86)\Windows Kits\10\Include\10.0.26100.0\ucrt\string.h
; File C:\IAGOS\server\v18\Source\Source\_Common\ModelMng.cpp
; File C:\Program Files (x86)\Windows Kits\10\Include\10.0.26100.0\ucrt\string.h
; File C:\IAGOS\server\v18\Source\Source\_Common\ModelMng.cpp
; File C:\Program Files (x86)\Windows Kits\10\Include\10.0.26100.0\ucrt\string.h
; File C:\IAGOS\server\v18\Source\Source\_Common\ModelMng.cpp
;	COMDAT ?MakePartsName@CModelMng@@QAEXPADPBDKH@Z
_TEXT	SEGMENT
_lpModelElem$1$ = -140					; size = 4
_pszPartsName$GSCopy$1$ = -136				; size = 4
_szPartName$1 = -132					; size = 128
__$ArrayPad$ = -4					; size = 4
_pszPartsName$ = 8					; size = 4
_lpszRootName$ = 12					; size = 4
_dwIndex$ = 16						; size = 4
_nSex$ = 20						; size = 4
?MakePartsName@CModelMng@@QAEXPADPBDKH@Z PROC		; CModelMng::MakePartsName, COMDAT
; _this$ = ecx

; 96   : {

  00000	55		 push	 ebp
  00001	8b ec		 mov	 ebp, esp
  00003	81 ec 8c 00 00
	00		 sub	 esp, 140		; 0000008cH
  00009	a1 00 00 00 00	 mov	 eax, DWORD PTR ___security_cookie
  0000e	33 c5		 xor	 eax, ebp
  00010	89 45 fc	 mov	 DWORD PTR __$ArrayPad$[ebp], eax
  00013	8b 45 10	 mov	 eax, DWORD PTR _dwIndex$[ebp]
  00016	53		 push	 ebx
  00017	8b 5d 08	 mov	 ebx, DWORD PTR _pszPartsName$[ebp]
  0001a	56		 push	 esi

; 97   : 	LPMODELELEM lpModelElem = GetModelElem( OT_ITEM, dwIndex );

  0001b	50		 push	 eax
  0001c	6a 04		 push	 4
  0001e	89 9d 78 ff ff
	ff		 mov	 DWORD PTR _pszPartsName$GSCopy$1$[ebp], ebx
  00024	e8 00 00 00 00	 call	 ?GetModelElem@CModelMng@@QAEPAUtagMODELELEM@@KK@Z ; CModelMng::GetModelElem

; 98   : 	_tcscpy( pszPartsName, lpszRootName );

  00029	8b 55 0c	 mov	 edx, DWORD PTR _lpszRootName$[ebp]
  0002c	8b f3		 mov	 esi, ebx
  0002e	89 85 74 ff ff
	ff		 mov	 DWORD PTR _lpModelElem$1$[ebp], eax
  00034	2b f2		 sub	 esi, edx
$LL10@MakePartsN:
  00036	8a 0a		 mov	 cl, BYTE PTR [edx]
  00038	8d 52 01	 lea	 edx, DWORD PTR [edx+1]
  0003b	88 4c 16 ff	 mov	 BYTE PTR [esi+edx-1], cl
  0003f	84 c9		 test	 cl, cl
  00041	75 f3		 jne	 SHORT $LL10@MakePartsN

; 99   : 	_tcscat( pszPartsName, _T( "_" ) );

  00043	57		 push	 edi
  00044	8d 7b ff	 lea	 edi, DWORD PTR [ebx-1]
$LL22@MakePartsN:
  00047	8a 47 01	 mov	 al, BYTE PTR [edi+1]
  0004a	8d 7f 01	 lea	 edi, DWORD PTR [edi+1]
  0004d	84 c0		 test	 al, al
  0004f	75 f6		 jne	 SHORT $LL22@MakePartsN
  00051	66 a1 00 00 00
	00		 mov	 ax, WORD PTR ??_C@_01IDAFKMJL@_@

; 100  : 	if( nSex == SEX_SEXLESS || nSex == -1 )

  00057	8b 75 14	 mov	 esi, DWORD PTR _nSex$[ebp]
  0005a	66 89 07	 mov	 WORD PTR [edi], ax
  0005d	83 fe 02	 cmp	 esi, 2
  00060	0f 84 d6 00 00
	00		 je	 $LN4@MakePartsN
  00066	83 fe ff	 cmp	 esi, -1
  00069	0f 84 cd 00 00
	00		 je	 $LN4@MakePartsN

; 104  : 		TCHAR* pszPart2 = strchr( lpModelElem->m_szPart, '/' );

  0006f	8b bd 74 ff ff
	ff		 mov	 edi, DWORD PTR _lpModelElem$1$[ebp]
; File C:\Program Files (x86)\Windows Kits\10\Include\10.0.26100.0\ucrt\string.h

; 502  :         return const_cast<char*>(strchr(static_cast<char const*>(_String), _Ch));

  00075	6a 2f		 push	 47			; 0000002fH
; File C:\IAGOS\server\v18\Source\Source\_Common\ModelMng.cpp

; 104  : 		TCHAR* pszPart2 = strchr( lpModelElem->m_szPart, '/' );

  00077	8d 5f 44	 lea	 ebx, DWORD PTR [edi+68]
; File C:\Program Files (x86)\Windows Kits\10\Include\10.0.26100.0\ucrt\string.h

; 502  :         return const_cast<char*>(strchr(static_cast<char const*>(_String), _Ch));

  0007a	53		 push	 ebx
  0007b	e8 00 00 00 00	 call	 _strchr
; File C:\IAGOS\server\v18\Source\Source\_Common\ModelMng.cpp

; 104  : 		TCHAR* pszPart2 = strchr( lpModelElem->m_szPart, '/' );

  00080	8b d0		 mov	 edx, eax
; File C:\Program Files (x86)\Windows Kits\10\Include\10.0.26100.0\ucrt\string.h

; 502  :         return const_cast<char*>(strchr(static_cast<char const*>(_String), _Ch));

  00082	83 c4 08	 add	 esp, 8
; File C:\IAGOS\server\v18\Source\Source\_Common\ModelMng.cpp

; 105  : 		if( pszPart2 == NULL )

  00085	85 d2		 test	 edx, edx
  00087	75 33		 jne	 SHORT $LN5@MakePartsN

; 106  : 			_tcscat( pszPartsName, lpModelElem->m_szPart );

  00089	8b f3		 mov	 esi, ebx
  0008b	0f 1f 44 00 00	 npad	 5
$LL23@MakePartsN:
  00090	8a 03		 mov	 al, BYTE PTR [ebx]
  00092	43		 inc	 ebx
  00093	84 c0		 test	 al, al
  00095	75 f9		 jne	 SHORT $LL23@MakePartsN
  00097	8b bd 78 ff ff
	ff		 mov	 edi, DWORD PTR _pszPartsName$GSCopy$1$[ebp]
  0009d	2b de		 sub	 ebx, esi
  0009f	4f		 dec	 edi
$LL24@MakePartsN:
  000a0	8a 47 01	 mov	 al, BYTE PTR [edi+1]
  000a3	47		 inc	 edi
  000a4	84 c0		 test	 al, al
  000a6	75 f8		 jne	 SHORT $LL24@MakePartsN
  000a8	8b cb		 mov	 ecx, ebx
  000aa	c1 e9 02	 shr	 ecx, 2
  000ad	f3 a5		 rep movsd
  000af	8b cb		 mov	 ecx, ebx
  000b1	8b 9d 78 ff ff
	ff		 mov	 ebx, DWORD PTR _pszPartsName$GSCopy$1$[ebp]
  000b7	e9 a8 00 00 00	 jmp	 $LN50@MakePartsN
$LN5@MakePartsN:

; 107  : 		else
; 108  : 		{
; 109  : 			TCHAR szPartName[ 128 ];
; 110  : 			if( nSex == SEX_MALE )

  000bc	85 f6		 test	 esi, esi
  000be	75 5c		 jne	 SHORT $LN7@MakePartsN

; 111  : 			{
; 112  : 				_tcscpy( szPartName, lpModelElem->m_szPart );

  000c0	8d 8d 7c ff ff
	ff		 lea	 ecx, DWORD PTR _szPartName$1[ebp]
  000c6	2b cb		 sub	 ecx, ebx
  000c8	0f 1f 84 00 00
	00 00 00	 npad	 8
$LL11@MakePartsN:
  000d0	8a 03		 mov	 al, BYTE PTR [ebx]
  000d2	8d 5b 01	 lea	 ebx, DWORD PTR [ebx+1]
  000d5	88 44 19 ff	 mov	 BYTE PTR [ecx+ebx-1], al
  000d9	84 c0		 test	 al, al
  000db	75 f3		 jne	 SHORT $LL11@MakePartsN

; 113  : 				szPartName[ (int)pszPart2 - (int)lpModelElem->m_szPart ] = 0;

  000dd	2b d7		 sub	 edx, edi
  000df	83 c2 bc	 add	 edx, -68		; ffffffbcH
  000e2	81 fa 80 00 00
	00		 cmp	 edx, 128		; 00000080H
  000e8	0f 83 ad 00 00
	00		 jae	 $LN12@MakePartsN
  000ee	88 84 15 7c ff
	ff ff		 mov	 BYTE PTR _szPartName$1[ebp+edx], al

; 114  : 				_tcscat( pszPartsName, szPartName );

  000f5	8d 95 7c ff ff
	ff		 lea	 edx, DWORD PTR _szPartName$1[ebp]
  000fb	8b f2		 mov	 esi, edx
  000fd	0f 1f 00	 npad	 3
$LL25@MakePartsN:
  00100	8a 02		 mov	 al, BYTE PTR [edx]
  00102	42		 inc	 edx
  00103	84 c0		 test	 al, al
  00105	75 f9		 jne	 SHORT $LL25@MakePartsN
  00107	8b 9d 78 ff ff
	ff		 mov	 ebx, DWORD PTR _pszPartsName$GSCopy$1$[ebp]
  0010d	2b d6		 sub	 edx, esi
  0010f	8d 7b ff	 lea	 edi, DWORD PTR [ebx-1]
$LL26@MakePartsN:
  00112	8a 47 01	 mov	 al, BYTE PTR [edi+1]
  00115	47		 inc	 edi
  00116	84 c0		 test	 al, al
  00118	75 f8		 jne	 SHORT $LL26@MakePartsN

; 115  : 			}

  0011a	eb 3f		 jmp	 SHORT $LN51@MakePartsN
$LN7@MakePartsN:

; 116  : 			else
; 117  : 			{
; 118  : 				_tcscat( pszPartsName, pszPart2 + 1 );

  0011c	42		 inc	 edx
  0011d	8b f2		 mov	 esi, edx
  0011f	90		 npad	 1
$LL27@MakePartsN:
  00120	8a 02		 mov	 al, BYTE PTR [edx]
  00122	42		 inc	 edx
  00123	84 c0		 test	 al, al
  00125	75 f9		 jne	 SHORT $LL27@MakePartsN
  00127	8b 9d 78 ff ff
	ff		 mov	 ebx, DWORD PTR _pszPartsName$GSCopy$1$[ebp]
  0012d	2b d6		 sub	 edx, esi
  0012f	8d 7b ff	 lea	 edi, DWORD PTR [ebx-1]
$LL28@MakePartsN:
  00132	8a 47 01	 mov	 al, BYTE PTR [edi+1]
  00135	47		 inc	 edi
  00136	84 c0		 test	 al, al
  00138	75 f8		 jne	 SHORT $LL28@MakePartsN
  0013a	eb 1f		 jmp	 SHORT $LN51@MakePartsN
$LN4@MakePartsN:

; 101  : 		_tcscat( pszPartsName, lpModelElem->m_szPart );

  0013c	8b 95 74 ff ff
	ff		 mov	 edx, DWORD PTR _lpModelElem$1$[ebp]
  00142	83 c2 44	 add	 edx, 68			; 00000044H
  00145	8b f2		 mov	 esi, edx
$LL29@MakePartsN:
  00147	8a 02		 mov	 al, BYTE PTR [edx]
  00149	42		 inc	 edx
  0014a	84 c0		 test	 al, al
  0014c	75 f9		 jne	 SHORT $LL29@MakePartsN
  0014e	2b d6		 sub	 edx, esi
  00150	8d 7b ff	 lea	 edi, DWORD PTR [ebx-1]
$LL30@MakePartsN:
  00153	8a 47 01	 mov	 al, BYTE PTR [edi+1]
  00156	47		 inc	 edi
  00157	84 c0		 test	 al, al
  00159	75 f8		 jne	 SHORT $LL30@MakePartsN
$LN51@MakePartsN:

; 119  : 			}
; 120  : 		}
; 121  : 	}
; 122  : 	_tcscat( pszPartsName, _T( ".o3d" ) );

  0015b	8b ca		 mov	 ecx, edx
  0015d	c1 e9 02	 shr	 ecx, 2
  00160	f3 a5		 rep movsd
  00162	8b ca		 mov	 ecx, edx
$LN50@MakePartsN:
  00164	83 e1 03	 and	 ecx, 3
  00167	4b		 dec	 ebx
  00168	f3 a4		 rep movsb
  0016a	5f		 pop	 edi
  0016b	0f 1f 44 00 00	 npad	 5
$LL31@MakePartsN:
  00170	8a 43 01	 mov	 al, BYTE PTR [ebx+1]
  00173	8d 5b 01	 lea	 ebx, DWORD PTR [ebx+1]
  00176	84 c0		 test	 al, al
  00178	75 f6		 jne	 SHORT $LL31@MakePartsN
  0017a	a1 00 00 00 00	 mov	 eax, DWORD PTR ??_C@_04DNFILLI@?4o3d@

; 123  : }

  0017f	8b 4d fc	 mov	 ecx, DWORD PTR __$ArrayPad$[ebp]
  00182	89 03		 mov	 DWORD PTR [ebx], eax
  00184	33 cd		 xor	 ecx, ebp
  00186	a0 04 00 00 00	 mov	 al, BYTE PTR ??_C@_04DNFILLI@?4o3d@+4
  0018b	5e		 pop	 esi
  0018c	88 43 04	 mov	 BYTE PTR [ebx+4], al
  0018f	5b		 pop	 ebx
  00190	e8 00 00 00 00	 call	 @__security_check_cookie@4
  00195	8b e5		 mov	 esp, ebp
  00197	5d		 pop	 ebp
  00198	c2 10 00	 ret	 16			; 00000010H
$LN12@MakePartsN:

; 113  : 				szPartName[ (int)pszPart2 - (int)lpModelElem->m_szPart ] = 0;

  0019b	e8 00 00 00 00	 call	 ___report_rangecheckfailure
$LN49@MakePartsN:
  001a0	cc		 int	 3
?MakePartsName@CModelMng@@QAEXPADPBDKH@Z ENDP		; CModelMng::MakePartsName
_TEXT	ENDS
; Function compile flags: /Ogtp
; File C:\IAGOS\server\v18\Source\Source\_Common\ModelMng.cpp
; File C:\IAGOS\server\v18\Source\Source\_Common\ModelMng.h
; File C:\Program Files (x86)\Windows Kits\10\Include\10.0.26100.0\ucrt\tchar.h
; File C:\IAGOS\server\v18\Source\Source\_Common\ModelMng.cpp
; File C:\IAGOS\server\v18\Source\Source\_Common\ModelMng.h
; File C:\IAGOS\server\v18\Source\Source\_Common\ModelMng.cpp
;	COMDAT ?MakeMotionName@CModelMng@@QAEXPADKKK@Z
_TEXT	SEGMENT
_pszMotionName$ = 8					; size = 4
_dwType$ = 12						; size = 4
_lpModelElem$1$ = 12					; size = 4
_dwIndex$ = 16						; size = 4
tv154 = 16						; size = 4
_dwMotion$ = 20						; size = 4
?MakeMotionName@CModelMng@@QAEXPADKKK@Z PROC		; CModelMng::MakeMotionName, COMDAT
; _this$ = ecx

; 125  : {

  00000	55		 push	 ebp
  00001	8b ec		 mov	 ebp, esp
  00003	53		 push	 ebx
  00004	56		 push	 esi
  00005	57		 push	 edi

; 126  : 	LPMODELELEM lpModelElem = GetModelElem( dwType, dwIndex );

  00006	ff 75 10	 push	 DWORD PTR _dwIndex$[ebp]
  00009	8b 7d 0c	 mov	 edi, DWORD PTR _dwType$[ebp]
  0000c	57		 push	 edi
  0000d	e8 00 00 00 00	 call	 ?GetModelElem@CModelMng@@QAEPAUtagMODELELEM@@KK@Z ; CModelMng::GetModelElem

; 127  : 	if( lpModelElem == NULL )

  00012	8b 5d 14	 mov	 ebx, DWORD PTR _dwMotion$[ebp]
  00015	8b f0		 mov	 esi, eax
  00017	89 75 0c	 mov	 DWORD PTR _lpModelElem$1$[ebp], esi
  0001a	85 f6		 test	 esi, esi
  0001c	75 12		 jne	 SHORT $LN2@MakeMotion

; 128  : 		Error( "MakeMotionName GetModelElem dwType:%d dwIndex:%d, dwMotion:%d", dwType, dwIndex, dwMotion );

  0001e	53		 push	 ebx
  0001f	ff 75 10	 push	 DWORD PTR _dwIndex$[ebp]
  00022	57		 push	 edi
  00023	68 00 00 00 00	 push	 OFFSET ??_C@_0DO@JEJMCLHM@MakeMotionName?5GetModelElem?5dwT@
  00028	e8 00 00 00 00	 call	 ?Error@@YAPBDPBDZZ	; Error
  0002d	83 c4 10	 add	 esp, 16			; 00000010H
$LN2@MakeMotion:

; 129  : 
; 130  : 	// ĂĘ°úµĆŔ» °ćżě MTI_STAND(Á¤Áö»óĹÂ)·Î °­Á¦ ĽĽĆĂ 
; 131  : 	if( (int)( dwMotion ) >= lpModelElem->m_nMax || dwMotion == NULL_ID )

  00030	3b 5e 38	 cmp	 ebx, DWORD PTR [esi+56]
  00033	7d 05		 jge	 SHORT $LN4@MakeMotion
  00035	83 fb ff	 cmp	 ebx, -1
  00038	75 02		 jne	 SHORT $LN3@MakeMotion
$LN4@MakeMotion:

; 132  : 	{
; 133  : 		dwMotion = MTI_STAND;

  0003a	33 db		 xor	 ebx, ebx
$LN3@MakeMotion:

; 134  : 	}
; 135  : 
; 136  : 	_tcscpy( pszMotionName, g_szRoot[ dwType ] );

  0003c	8b 75 08	 mov	 esi, DWORD PTR _pszMotionName$[ebp]
  0003f	8b d6		 mov	 edx, esi
  00041	c1 e7 05	 shl	 edi, 5
  00044	8d 8f 00 00 00
	00		 lea	 ecx, DWORD PTR ?g_szRoot@@3PAY0CA@DA[edi]
  0004a	2b d1		 sub	 edx, ecx
  0004c	0f 1f 40 00	 npad	 4
$LL8@MakeMotion:
  00050	8a 01		 mov	 al, BYTE PTR [ecx]
  00052	8d 49 01	 lea	 ecx, DWORD PTR [ecx+1]
  00055	88 44 0a ff	 mov	 BYTE PTR [edx+ecx-1], al
  00059	84 c0		 test	 al, al
  0005b	75 f3		 jne	 SHORT $LL8@MakeMotion

; 137  : 	_tcscat( pszMotionName, "_" );

  0005d	8d 7e ff	 lea	 edi, DWORD PTR [esi-1]
$LL26@MakeMotion:
  00060	8a 47 01	 mov	 al, BYTE PTR [edi+1]
  00063	8d 7f 01	 lea	 edi, DWORD PTR [edi+1]
  00066	84 c0		 test	 al, al
  00068	75 f6		 jne	 SHORT $LL26@MakeMotion
  0006a	66 a1 00 00 00
	00		 mov	 ax, WORD PTR ??_C@_01IDAFKMJL@_@
  00070	66 89 07	 mov	 WORD PTR [edi], ax
; File C:\IAGOS\server\v18\Source\Source\_Common\ModelMng.h

; 35   : 		if( i < 0 || i >= m_nMax )

  00073	8b 7d 0c	 mov	 edi, DWORD PTR _lpModelElem$1$[ebp]
  00076	85 db		 test	 ebx, ebx
  00078	78 05		 js	 SHORT $LN25@MakeMotion
  0007a	3b 5f 38	 cmp	 ebx, DWORD PTR [edi+56]
  0007d	7c 10		 jl	 SHORT $LN10@MakeMotion
$LN25@MakeMotion:

; 36   : 		{
; 37   : 			Error( "tagMODELELEM : out of range %d", i );

  0007f	53		 push	 ebx
  00080	68 00 00 00 00	 push	 OFFSET ??_C@_0BP@BAMAMMFD@tagMODELELEM?5?3?5out?5of?5range?5?$CFd@
  00085	e8 00 00 00 00	 call	 ?Error@@YAPBDPBDZZ	; Error
  0008a	83 c4 08	 add	 esp, 8

; 38   : 			i = 0;

  0008d	33 db		 xor	 ebx, ebx
$LN10@MakeMotion:

; 39   : 		}
; 40   : 
; 41   : 		if( m_apszMotion ) 

  0008f	8b 47 3c	 mov	 eax, DWORD PTR [edi+60]
  00092	85 c0		 test	 eax, eax
  00094	74 07		 je	 SHORT $LN12@MakeMotion

; 42   : 			return &m_apszMotion[ i * 32 ]; 

  00096	c1 e3 05	 shl	 ebx, 5
  00099	03 d8		 add	 ebx, eax
  0009b	eb 02		 jmp	 SHORT $LN9@MakeMotion
$LN12@MakeMotion:

; 43   : 		return NULL; 

  0009d	33 db		 xor	 ebx, ebx
$LN9@MakeMotion:
; File C:\Program Files (x86)\Windows Kits\10\Include\10.0.26100.0\ucrt\tchar.h

; 1488 : __inline _CRPC _tcschr(_In_z_ _CPC _s1,_In_ _UI _c) {return (_CRPC)_mbschr((_CPUC)_s1,_c);}

  0009f	6a 5f		 push	 95			; 0000005fH
  000a1	53		 push	 ebx
  000a2	e8 00 00 00 00	 call	 __mbschr
  000a7	83 c4 08	 add	 esp, 8
; File C:\IAGOS\server\v18\Source\Source\_Common\ModelMng.cpp

; 140  : 	if( _tcschr( lpszMotion, '_' ) == NULL )

  000aa	85 c0		 test	 eax, eax
  000ac	75 48		 jne	 SHORT $LN5@MakeMotion

; 141  : 	{
; 142  : 		_tcscat( pszMotionName, lpModelElem->m_szName );

  000ae	8d 57 08	 lea	 edx, DWORD PTR [edi+8]
  000b1	8b ca		 mov	 ecx, edx
  000b3	89 4d 10	 mov	 DWORD PTR tv154[ebp], ecx
$LL27@MakeMotion:
  000b6	8a 02		 mov	 al, BYTE PTR [edx]
  000b8	42		 inc	 edx
  000b9	84 c0		 test	 al, al
  000bb	75 f9		 jne	 SHORT $LL27@MakeMotion
  000bd	2b d1		 sub	 edx, ecx
  000bf	4e		 dec	 esi
$LL28@MakeMotion:
  000c0	8a 46 01	 mov	 al, BYTE PTR [esi+1]
  000c3	46		 inc	 esi
  000c4	84 c0		 test	 al, al
  000c6	75 f8		 jne	 SHORT $LL28@MakeMotion
  000c8	8b fe		 mov	 edi, esi
  000ca	8b ca		 mov	 ecx, edx
  000cc	8b 75 10	 mov	 esi, DWORD PTR tv154[ebp]
  000cf	c1 e9 02	 shr	 ecx, 2
  000d2	f3 a5		 rep movsd
  000d4	8b ca		 mov	 ecx, edx
  000d6	83 e1 03	 and	 ecx, 3
  000d9	f3 a4		 rep movsb

; 143  : 		_tcscat( pszMotionName, "_" );

  000db	8b 7d 08	 mov	 edi, DWORD PTR _pszMotionName$[ebp]
  000de	4f		 dec	 edi
  000df	90		 npad	 1
$LL29@MakeMotion:
  000e0	8a 47 01	 mov	 al, BYTE PTR [edi+1]
  000e3	8d 7f 01	 lea	 edi, DWORD PTR [edi+1]
  000e6	84 c0		 test	 al, al
  000e8	75 f6		 jne	 SHORT $LL29@MakeMotion
  000ea	66 a1 00 00 00
	00		 mov	 ax, WORD PTR ??_C@_01IDAFKMJL@_@
  000f0	66 89 07	 mov	 WORD PTR [edi], ax
  000f3	8b 7d 0c	 mov	 edi, DWORD PTR _lpModelElem$1$[ebp]
$LN5@MakeMotion:

; 144  : 	}
; 145  : 
; 146  : 	// °ř¶őŔĎ °ćżě MTI_STAND(Á¤Áö»óĹÂ)·Î °­Á¦ ĽĽĆĂ 
; 147  : 	if( lpszMotion[0] == 0 )

  000f6	80 3b 00	 cmp	 BYTE PTR [ebx], 0
  000f9	75 18		 jne	 SHORT $LN6@MakeMotion
; File C:\IAGOS\server\v18\Source\Source\_Common\ModelMng.h

; 35   : 		if( i < 0 || i >= m_nMax )

  000fb	83 7f 38 00	 cmp	 DWORD PTR [edi+56], 0
  000ff	7f 0f		 jg	 SHORT $LN17@MakeMotion

; 36   : 		{
; 37   : 			Error( "tagMODELELEM : out of range %d", i );

  00101	6a 00		 push	 0
  00103	68 00 00 00 00	 push	 OFFSET ??_C@_0BP@BAMAMMFD@tagMODELELEM?5?3?5out?5of?5range?5?$CFd@
  00108	e8 00 00 00 00	 call	 ?Error@@YAPBDPBDZZ	; Error
  0010d	83 c4 08	 add	 esp, 8
$LN17@MakeMotion:

; 39   : 		}
; 40   : 
; 41   : 		if( m_apszMotion ) 

  00110	8b 5f 3c	 mov	 ebx, DWORD PTR [edi+60]
$LN6@MakeMotion:
; File C:\IAGOS\server\v18\Source\Source\_Common\ModelMng.cpp

; 153  : 	_tcscat( pszMotionName, lpszMotion );

  00113	8b f3		 mov	 esi, ebx
$LL30@MakeMotion:
  00115	8a 03		 mov	 al, BYTE PTR [ebx]
  00117	43		 inc	 ebx
  00118	84 c0		 test	 al, al
  0011a	75 f9		 jne	 SHORT $LL30@MakeMotion
  0011c	8b 55 08	 mov	 edx, DWORD PTR _pszMotionName$[ebp]
  0011f	2b de		 sub	 ebx, esi
  00121	8d 7a ff	 lea	 edi, DWORD PTR [edx-1]
$LL31@MakeMotion:
  00124	8a 47 01	 mov	 al, BYTE PTR [edi+1]
  00127	47		 inc	 edi
  00128	84 c0		 test	 al, al
  0012a	75 f8		 jne	 SHORT $LL31@MakeMotion
  0012c	8b cb		 mov	 ecx, ebx
  0012e	c1 e9 02	 shr	 ecx, 2
  00131	f3 a5		 rep movsd
  00133	8b cb		 mov	 ecx, ebx
  00135	83 e1 03	 and	 ecx, 3

; 154  : 	_tcscat( pszMotionName, ".ani" );

  00138	4a		 dec	 edx
  00139	f3 a4		 rep movsb
  0013b	5f		 pop	 edi
  0013c	5e		 pop	 esi
  0013d	5b		 pop	 ebx
  0013e	66 90		 npad	 2
$LL32@MakeMotion:
  00140	8a 42 01	 mov	 al, BYTE PTR [edx+1]
  00143	8d 52 01	 lea	 edx, DWORD PTR [edx+1]
  00146	84 c0		 test	 al, al
  00148	75 f6		 jne	 SHORT $LL32@MakeMotion
  0014a	a1 00 00 00 00	 mov	 eax, DWORD PTR ??_C@_04DCMADPCF@?4ani@
  0014f	89 02		 mov	 DWORD PTR [edx], eax
  00151	a0 04 00 00 00	 mov	 al, BYTE PTR ??_C@_04DCMADPCF@?4ani@+4
  00156	88 42 04	 mov	 BYTE PTR [edx+4], al

; 155  : }

  00159	5d		 pop	 ebp
  0015a	c2 10 00	 ret	 16			; 00000010H
?MakeMotionName@CModelMng@@QAEXPADKKK@Z ENDP		; CModelMng::MakeMotionName
_TEXT	ENDS
; Function compile flags: /Ogtp
; File C:\IAGOS\server\v18\Source\Source\_Common\ModelMng.cpp
; File C:\Program Files (x86)\Windows Kits\10\Include\10.0.26100.0\ucrt\tchar.h
; File C:\IAGOS\server\v18\Source\Source\_Common\ModelMng.cpp
; File C:\Program Files (x86)\Windows Kits\10\Include\10.0.26100.0\ucrt\tchar.h
; File C:\IAGOS\server\v18\Source\Source\_Common\ModelMng.cpp
;	COMDAT ?MakeModelName@CModelMng@@QAEXPADKK@Z
_TEXT	SEGMENT
_pszModelName$ = 8					; size = 4
_dwType$ = 12						; size = 4
_dwIndex$ = 16						; size = 4
_lpModelElem$1$ = 16					; size = 4
?MakeModelName@CModelMng@@QAEXPADKK@Z PROC		; CModelMng::MakeModelName, COMDAT
; _this$ = ecx

; 64   : {

  00000	55		 push	 ebp
  00001	8b ec		 mov	 ebp, esp
  00003	53		 push	 ebx
  00004	56		 push	 esi

; 65   : 	LPMODELELEM lpModelElem = GetModelElem( dwType, dwIndex );

  00005	8b 75 0c	 mov	 esi, DWORD PTR _dwType$[ebp]
  00008	57		 push	 edi
  00009	8b 7d 10	 mov	 edi, DWORD PTR _dwIndex$[ebp]
  0000c	57		 push	 edi
  0000d	56		 push	 esi
  0000e	e8 00 00 00 00	 call	 ?GetModelElem@CModelMng@@QAEPAUtagMODELELEM@@KK@Z ; CModelMng::GetModelElem
  00013	8b d8		 mov	 ebx, eax
  00015	89 5d 10	 mov	 DWORD PTR _lpModelElem$1$[ebp], ebx

; 66   : 	if( lpModelElem == NULL )

  00018	85 db		 test	 ebx, ebx
  0001a	75 0f		 jne	 SHORT $LN2@MakeModelN

; 67   : 	{
; 68   : 		Error( "MakeModelName : dwType=%d dwIndex=%d", dwType, dwIndex );

  0001c	57		 push	 edi
  0001d	56		 push	 esi
  0001e	68 00 00 00 00	 push	 OFFSET ??_C@_0CF@IEMGBAHL@MakeModelName?5?3?5dwType?$DN?$CFd?5dwInd@
  00023	e8 00 00 00 00	 call	 ?Error@@YAPBDPBDZZ	; Error
  00028	83 c4 0c	 add	 esp, 12			; 0000000cH
$LN2@MakeModelN:

; 69   : 	}
; 70   : 	if( lpModelElem->m_dwModelType == MODELTYPE_BILLBOARD )

  0002b	83 7b 40 03	 cmp	 DWORD PTR [ebx+64], 3
  0002f	75 23		 jne	 SHORT $LN3@MakeModelN

; 71   : 	{
; 72   : 		_tcscpy( pszModelName, lpModelElem->m_szName );

  00031	8b 55 08	 mov	 edx, DWORD PTR _pszModelName$[ebp]
  00034	8d 4b 08	 lea	 ecx, DWORD PTR [ebx+8]
  00037	2b d1		 sub	 edx, ecx
  00039	0f 1f 80 00 00
	00 00		 npad	 7
$LL10@MakeModelN:
  00040	8a 01		 mov	 al, BYTE PTR [ecx]
  00042	8d 49 01	 lea	 ecx, DWORD PTR [ecx+1]
  00045	88 44 0a ff	 mov	 BYTE PTR [edx+ecx-1], al
  00049	84 c0		 test	 al, al
  0004b	75 f3		 jne	 SHORT $LL10@MakeModelN

; 94   : }

  0004d	5f		 pop	 edi
  0004e	5e		 pop	 esi
  0004f	5b		 pop	 ebx
  00050	5d		 pop	 ebp
  00051	c2 0c 00	 ret	 12			; 0000000cH
$LN3@MakeModelN:

; 73   : 		return;
; 74   : 	}
; 75   : 	if( dwType == OT_SFX )

  00054	83 fe 03	 cmp	 esi, 3
  00057	75 76		 jne	 SHORT $LN4@MakeModelN

; 77   : 		if( _tcschr( lpModelElem->m_szName, _T( '_' ) ) == NULL )

  00059	83 c3 08	 add	 ebx, 8
; File C:\Program Files (x86)\Windows Kits\10\Include\10.0.26100.0\ucrt\tchar.h

; 1488 : __inline _CRPC _tcschr(_In_z_ _CPC _s1,_In_ _UI _c) {return (_CRPC)_mbschr((_CPUC)_s1,_c);}

  0005c	6a 5f		 push	 95			; 0000005fH
  0005e	53		 push	 ebx
  0005f	e8 00 00 00 00	 call	 __mbschr
; File C:\IAGOS\server\v18\Source\Source\_Common\ModelMng.cpp

; 77   : 		if( _tcschr( lpModelElem->m_szName, _T( '_' ) ) == NULL )

  00064	8b 55 08	 mov	 edx, DWORD PTR _pszModelName$[ebp]
; File C:\Program Files (x86)\Windows Kits\10\Include\10.0.26100.0\ucrt\tchar.h

; 1488 : __inline _CRPC _tcschr(_In_z_ _CPC _s1,_In_ _UI _c) {return (_CRPC)_mbschr((_CPUC)_s1,_c);}

  00067	83 c4 08	 add	 esp, 8
; File C:\IAGOS\server\v18\Source\Source\_Common\ModelMng.cpp

; 77   : 		if( _tcschr( lpModelElem->m_szName, _T( '_' ) ) == NULL )

  0006a	85 c0		 test	 eax, eax
  0006c	75 4c		 jne	 SHORT $LN6@MakeModelN

; 78   : 		{
; 79   : 			_tcscpy( pszModelName, g_szRoot[ dwType ] );

  0006e	b9 60 00 00 00	 mov	 ecx, OFFSET ?g_szRoot@@3PAY0CA@DA+96
  00073	8b f2		 mov	 esi, edx
  00075	2b f1		 sub	 esi, ecx
$LL11@MakeModelN:
  00077	8a 01		 mov	 al, BYTE PTR [ecx]
  00079	8d 49 01	 lea	 ecx, DWORD PTR [ecx+1]
  0007c	88 44 0e ff	 mov	 BYTE PTR [esi+ecx-1], al
  00080	84 c0		 test	 al, al
  00082	75 f3		 jne	 SHORT $LL11@MakeModelN

; 80   : 			_tcscat( pszModelName, "_" );

  00084	8d 7a ff	 lea	 edi, DWORD PTR [edx-1]
$LL30@MakeModelN:
  00087	8a 47 01	 mov	 al, BYTE PTR [edi+1]
  0008a	8d 7f 01	 lea	 edi, DWORD PTR [edi+1]
  0008d	84 c0		 test	 al, al
  0008f	75 f6		 jne	 SHORT $LL30@MakeModelN
  00091	66 a1 00 00 00
	00		 mov	 ax, WORD PTR ??_C@_01IDAFKMJL@_@

; 81   : 			_tcscat( pszModelName, lpModelElem->m_szName );

  00097	8b f3		 mov	 esi, ebx
  00099	66 89 07	 mov	 WORD PTR [edi], ax
  0009c	0f 1f 40 00	 npad	 4
$LL31@MakeModelN:
  000a0	8a 03		 mov	 al, BYTE PTR [ebx]
  000a2	43		 inc	 ebx
  000a3	84 c0		 test	 al, al
  000a5	75 f9		 jne	 SHORT $LL31@MakeModelN
  000a7	2b de		 sub	 ebx, esi
  000a9	8d 7a ff	 lea	 edi, DWORD PTR [edx-1]
  000ac	0f 1f 40 00	 npad	 4
$LL32@MakeModelN:
  000b0	8a 47 01	 mov	 al, BYTE PTR [edi+1]
  000b3	47		 inc	 edi
  000b4	84 c0		 test	 al, al
  000b6	75 f8		 jne	 SHORT $LL32@MakeModelN

; 82   : 		}

  000b8	eb 62		 jmp	 SHORT $LN51@MakeModelN
$LN6@MakeModelN:

; 83   : 		else
; 84   : 			_tcscpy( pszModelName, lpModelElem->m_szName );

  000ba	8b ca		 mov	 ecx, edx
  000bc	2b cb		 sub	 ecx, ebx
  000be	66 90		 npad	 2
$LL12@MakeModelN:
  000c0	8a 03		 mov	 al, BYTE PTR [ebx]
  000c2	8d 5b 01	 lea	 ebx, DWORD PTR [ebx+1]
  000c5	88 44 19 ff	 mov	 BYTE PTR [ecx+ebx-1], al
  000c9	84 c0		 test	 al, al
  000cb	75 f3		 jne	 SHORT $LL12@MakeModelN

; 85   : 	}

  000cd	eb 5b		 jmp	 SHORT $LN5@MakeModelN
$LN4@MakeModelN:

; 86   : 	else
; 87   : 	{
; 88   : 		_tcscpy( pszModelName, g_szRoot[ dwType ] );

  000cf	8b 55 08	 mov	 edx, DWORD PTR _pszModelName$[ebp]
  000d2	c1 e6 05	 shl	 esi, 5
  000d5	8d 8e 00 00 00
	00		 lea	 ecx, DWORD PTR ?g_szRoot@@3PAY0CA@DA[esi]
  000db	8b f2		 mov	 esi, edx
  000dd	2b f1		 sub	 esi, ecx
  000df	90		 npad	 1
$LL13@MakeModelN:
  000e0	8a 01		 mov	 al, BYTE PTR [ecx]
  000e2	8d 49 01	 lea	 ecx, DWORD PTR [ecx+1]
  000e5	88 44 0e ff	 mov	 BYTE PTR [esi+ecx-1], al
  000e9	84 c0		 test	 al, al
  000eb	75 f3		 jne	 SHORT $LL13@MakeModelN

; 89   : 		_tcscat( pszModelName, "_" );

  000ed	8d 7a ff	 lea	 edi, DWORD PTR [edx-1]
$LL33@MakeModelN:
  000f0	8a 47 01	 mov	 al, BYTE PTR [edi+1]
  000f3	8d 7f 01	 lea	 edi, DWORD PTR [edi+1]
  000f6	84 c0		 test	 al, al
  000f8	75 f6		 jne	 SHORT $LL33@MakeModelN
  000fa	66 a1 00 00 00
	00		 mov	 ax, WORD PTR ??_C@_01IDAFKMJL@_@

; 90   : 		_tcscat( pszModelName, lpModelElem->m_szName );

  00100	83 c3 08	 add	 ebx, 8
  00103	66 89 07	 mov	 WORD PTR [edi], ax
  00106	8b f3		 mov	 esi, ebx
$LL34@MakeModelN:
  00108	8a 03		 mov	 al, BYTE PTR [ebx]
  0010a	43		 inc	 ebx
  0010b	84 c0		 test	 al, al
  0010d	75 f9		 jne	 SHORT $LL34@MakeModelN
  0010f	2b de		 sub	 ebx, esi
  00111	8d 7a ff	 lea	 edi, DWORD PTR [edx-1]
$LL35@MakeModelN:
  00114	8a 47 01	 mov	 al, BYTE PTR [edi+1]
  00117	47		 inc	 edi
  00118	84 c0		 test	 al, al
  0011a	75 f8		 jne	 SHORT $LL35@MakeModelN
$LN51@MakeModelN:

; 91   : 	}
; 92   : 	if( lpModelElem->m_dwModelType != MODELTYPE_SFX )

  0011c	8b cb		 mov	 ecx, ebx
  0011e	c1 e9 02	 shr	 ecx, 2
  00121	f3 a5		 rep movsd
  00123	8b cb		 mov	 ecx, ebx
  00125	83 e1 03	 and	 ecx, 3
  00128	f3 a4		 rep movsb
$LN5@MakeModelN:
  0012a	8b 45 10	 mov	 eax, DWORD PTR _lpModelElem$1$[ebp]
  0012d	83 78 40 04	 cmp	 DWORD PTR [eax+64], 4
  00131	74 1a		 je	 SHORT $LN8@MakeModelN

; 93   : 		_tcscat( pszModelName, _T( ".o3d" ) );

  00133	4a		 dec	 edx
$LL36@MakeModelN:
  00134	8a 42 01	 mov	 al, BYTE PTR [edx+1]
  00137	8d 52 01	 lea	 edx, DWORD PTR [edx+1]
  0013a	84 c0		 test	 al, al
  0013c	75 f6		 jne	 SHORT $LL36@MakeModelN
  0013e	a1 00 00 00 00	 mov	 eax, DWORD PTR ??_C@_04DNFILLI@?4o3d@
  00143	89 02		 mov	 DWORD PTR [edx], eax
  00145	a0 04 00 00 00	 mov	 al, BYTE PTR ??_C@_04DNFILLI@?4o3d@+4
  0014a	88 42 04	 mov	 BYTE PTR [edx+4], al
$LN8@MakeModelN:

; 94   : }

  0014d	5f		 pop	 edi
  0014e	5e		 pop	 esi
  0014f	5b		 pop	 ebx
  00150	5d		 pop	 ebp
  00151	c2 0c 00	 ret	 12			; 0000000cH
?MakeModelName@CModelMng@@QAEXPADKK@Z ENDP		; CModelMng::MakeModelName
_TEXT	ENDS
; Function compile flags: /Ogtp
; File C:\IAGOS\server\v18\Source\Source\_Common\ModelMng.cpp
;	COMDAT ?MakeBoneName@CModelMng@@QAEXPADKK@Z
_TEXT	SEGMENT
_pszModelName$ = 8					; size = 4
_dwType$ = 12						; size = 4
_dwIndex$ = 16						; size = 4
?MakeBoneName@CModelMng@@QAEXPADKK@Z PROC		; CModelMng::MakeBoneName, COMDAT
; _this$ = ecx

; 56   : {

  00000	55		 push	 ebp
  00001	8b ec		 mov	 ebp, esp
  00003	53		 push	 ebx
  00004	56		 push	 esi

; 57   : 	LPMODELELEM lpModelElem = GetModelElem( dwType, dwIndex );

  00005	8b 75 0c	 mov	 esi, DWORD PTR _dwType$[ebp]
  00008	57		 push	 edi
  00009	ff 75 10	 push	 DWORD PTR _dwIndex$[ebp]
  0000c	56		 push	 esi
  0000d	e8 00 00 00 00	 call	 ?GetModelElem@CModelMng@@QAEPAUtagMODELELEM@@KK@Z ; CModelMng::GetModelElem

; 58   : 	_tcscpy( pszModelName, g_szRoot[dwType]);

  00012	8b 55 08	 mov	 edx, DWORD PTR _pszModelName$[ebp]
  00015	8b d8		 mov	 ebx, eax
  00017	c1 e6 05	 shl	 esi, 5
  0001a	8d 8e 00 00 00
	00		 lea	 ecx, DWORD PTR ?g_szRoot@@3PAY0CA@DA[esi]
  00020	8b f2		 mov	 esi, edx
  00022	2b f1		 sub	 esi, ecx
$LL3@MakeBoneNa:
  00024	8a 01		 mov	 al, BYTE PTR [ecx]
  00026	8d 49 01	 lea	 ecx, DWORD PTR [ecx+1]
  00029	88 44 0e ff	 mov	 BYTE PTR [esi+ecx-1], al
  0002d	84 c0		 test	 al, al
  0002f	75 f3		 jne	 SHORT $LL3@MakeBoneNa

; 59   : 	_tcscat( pszModelName, "_" );

  00031	8d 7a ff	 lea	 edi, DWORD PTR [edx-1]
$LL7@MakeBoneNa:
  00034	8a 47 01	 mov	 al, BYTE PTR [edi+1]
  00037	8d 7f 01	 lea	 edi, DWORD PTR [edi+1]
  0003a	84 c0		 test	 al, al
  0003c	75 f6		 jne	 SHORT $LL7@MakeBoneNa
  0003e	66 a1 00 00 00
	00		 mov	 ax, WORD PTR ??_C@_01IDAFKMJL@_@

; 60   : 	_tcscat( pszModelName, lpModelElem->m_szName );

  00044	83 c3 08	 add	 ebx, 8
  00047	66 89 07	 mov	 WORD PTR [edi], ax
  0004a	8b f3		 mov	 esi, ebx
  0004c	0f 1f 40 00	 npad	 4
$LL8@MakeBoneNa:
  00050	8a 03		 mov	 al, BYTE PTR [ebx]
  00052	43		 inc	 ebx
  00053	84 c0		 test	 al, al
  00055	75 f9		 jne	 SHORT $LL8@MakeBoneNa
  00057	2b de		 sub	 ebx, esi
  00059	8d 7a ff	 lea	 edi, DWORD PTR [edx-1]
  0005c	0f 1f 40 00	 npad	 4
$LL9@MakeBoneNa:
  00060	8a 47 01	 mov	 al, BYTE PTR [edi+1]
  00063	47		 inc	 edi
  00064	84 c0		 test	 al, al
  00066	75 f8		 jne	 SHORT $LL9@MakeBoneNa
  00068	8b cb		 mov	 ecx, ebx
  0006a	c1 e9 02	 shr	 ecx, 2
  0006d	f3 a5		 rep movsd
  0006f	8b cb		 mov	 ecx, ebx
  00071	83 e1 03	 and	 ecx, 3

; 61   : 	_tcscat( pszModelName, _T(".chr") );

  00074	4a		 dec	 edx
  00075	f3 a4		 rep movsb
  00077	5f		 pop	 edi
  00078	5e		 pop	 esi
  00079	5b		 pop	 ebx
  0007a	66 0f 1f 44 00
	00		 npad	 6
$LL10@MakeBoneNa:
  00080	8a 42 01	 mov	 al, BYTE PTR [edx+1]
  00083	8d 52 01	 lea	 edx, DWORD PTR [edx+1]
  00086	84 c0		 test	 al, al
  00088	75 f6		 jne	 SHORT $LL10@MakeBoneNa
  0008a	a1 00 00 00 00	 mov	 eax, DWORD PTR ??_C@_04DFHCEAIG@?4chr@
  0008f	89 02		 mov	 DWORD PTR [edx], eax
  00091	a0 04 00 00 00	 mov	 al, BYTE PTR ??_C@_04DFHCEAIG@?4chr@+4
  00096	88 42 04	 mov	 BYTE PTR [edx+4], al

; 62   : }

  00099	5d		 pop	 ebp
  0009a	c2 0c 00	 ret	 12			; 0000000cH
?MakeBoneName@CModelMng@@QAEXPADKK@Z ENDP		; CModelMng::MakeBoneName
_TEXT	ENDS
; Function compile flags: /Ogtp
; File C:\IAGOS\server\v18\Source\Source\_Common\ModelMng.cpp
; File C:\IAGOS\server\v18\Source\Source\_Common\data.h
; File C:\IAGOS\server\v18\Source\Source\_Common\ModelMng.cpp
; File C:\IAGOS\server\v18\Source\Source\_Common\data.h
; File C:\IAGOS\server\v18\Source\Source\_Common\ModelMng.cpp
; File C:\IAGOS\server\v18\Source\Source\_Common\data.h
; File C:\IAGOS\server\v18\Source\Source\_Common\ModelMng.cpp
; File C:\IAGOS\server\v18\Source\Source\_Common\data.h
; File C:\IAGOS\server\v18\Source\Source\_Common\ModelMng.cpp
; File C:\IAGOS\server\v18\Source\Source\_Common\data.h
; File C:\IAGOS\server\v18\Source\Source\_Common\ModelMng.cpp
; File C:\IAGOS\server\v18\Source\Source\_Common\data.h
; File C:\IAGOS\server\v18\Source\Source\_Common\ModelMng.cpp
;	COMDAT ?GetModelElem@CModelMng@@QAEPAUtagMODELELEM@@KK@Z
_TEXT	SEGMENT
_dwType$ = 8						; size = 4
_dwIndex$ = 12						; size = 4
?GetModelElem@CModelMng@@QAEPAUtagMODELELEM@@KK@Z PROC	; CModelMng::GetModelElem, COMDAT
; _this$ = ecx

; 39   : {

  00000	55		 push	 ebp
  00001	8b ec		 mov	 ebp, esp

; 40   : 	LPMODELELEM pElem = m_aaModelElem[ dwType ].GetAt( dwIndex );

  00003	8b 55 08	 mov	 edx, DWORD PTR _dwType$[ebp]
  00006	53		 push	 ebx
  00007	56		 push	 esi
  00008	57		 push	 edi
; File C:\IAGOS\server\v18\Source\Source\_Common\data.h

; 270  : 	if( dwIndex >= (DWORD)m_nMaxIndex )

  00009	8b 7d 0c	 mov	 edi, DWORD PTR _dwIndex$[ebp]
; File C:\IAGOS\server\v18\Source\Source\_Common\ModelMng.cpp

; 40   : 	LPMODELELEM pElem = m_aaModelElem[ dwType ].GetAt( dwIndex );

  0000c	8d 04 d2	 lea	 eax, DWORD PTR [edx+edx*8]
; File C:\IAGOS\server\v18\Source\Source\_Common\data.h

; 270  : 	if( dwIndex >= (DWORD)m_nMaxIndex )

  0000f	8b 5c 81 20	 mov	 ebx, DWORD PTR [ecx+eax*4+32]
  00013	3b fb		 cmp	 edi, ebx
  00015	72 04		 jb	 SHORT $LN7@GetModelEl

; 271  : 		return NULL;

  00017	33 f6		 xor	 esi, esi
  00019	eb 0b		 jmp	 SHORT $LN12@GetModelEl
$LN7@GetModelEl:

; 272  : 	return (T*) m_apOffset[ dwIndex ];

  0001b	8b 44 81 10	 mov	 eax, DWORD PTR [ecx+eax*4+16]
  0001f	8b 34 b8	 mov	 esi, DWORD PTR [eax+edi*4]
; File C:\IAGOS\server\v18\Source\Source\_Common\ModelMng.cpp

; 41   : 	if( pElem == NULL )

  00022	85 f6		 test	 esi, esi
  00024	75 3d		 jne	 SHORT $LN4@GetModelEl
$LN12@GetModelEl:

; 42   : 	{
; 43   : 		if( dwType == OT_ITEM )	// ľĆŔĚĹŰŔÎ °ćżě, µ· ¸đµ¨Ŕ» »çżë   

  00026	83 fa 04	 cmp	 edx, 4
  00029	75 28		 jne	 SHORT $LN3@GetModelEl
; File C:\IAGOS\server\v18\Source\Source\_Common\data.h

; 270  : 	if( dwIndex >= (DWORD)m_nMaxIndex )

  0002b	81 b9 b0 00 00
	00 f4 01 00 00	 cmp	 DWORD PTR [ecx+176], 500 ; 000001f4H
  00035	77 09		 ja	 SHORT $LN10@GetModelEl
; File C:\IAGOS\server\v18\Source\Source\_Common\ModelMng.cpp

; 54   : }

  00037	5f		 pop	 edi
  00038	5e		 pop	 esi
; File C:\IAGOS\server\v18\Source\Source\_Common\data.h

; 271  : 		return NULL;

  00039	33 c0		 xor	 eax, eax
; File C:\IAGOS\server\v18\Source\Source\_Common\ModelMng.cpp

; 54   : }

  0003b	5b		 pop	 ebx
  0003c	5d		 pop	 ebp
  0003d	c2 08 00	 ret	 8
$LN10@GetModelEl:
; File C:\IAGOS\server\v18\Source\Source\_Common\data.h

; 272  : 	return (T*) m_apOffset[ dwIndex ];

  00040	8b 81 a0 00 00
	00		 mov	 eax, DWORD PTR [ecx+160]
  00046	5f		 pop	 edi
; File C:\IAGOS\server\v18\Source\Source\_Common\ModelMng.cpp

; 54   : }

  00047	5e		 pop	 esi
  00048	5b		 pop	 ebx
; File C:\IAGOS\server\v18\Source\Source\_Common\data.h

; 272  : 	return (T*) m_apOffset[ dwIndex ];

  00049	8b 80 d0 07 00
	00		 mov	 eax, DWORD PTR [eax+2000]
; File C:\IAGOS\server\v18\Source\Source\_Common\ModelMng.cpp

; 54   : }

  0004f	5d		 pop	 ebp
  00050	c2 08 00	 ret	 8
$LN3@GetModelEl:

; 44   : //			return m_aaModelElem[ OT_ITEM ].GetAt( II_GOLD_SEED1 );
; 45   : 			return m_aaModelElem[ OT_ITEM ].GetAt( II_ARM_M_VAG_HELMET02 );	// ŔĎąÝ ąćľî±¸ ¸đľçŔ¸·Î ±łĂĽ
; 46   : 		else
; 47   : 		{
; 48   : 			LPCTSTR szErr = Error( "GetModelElem - out of range: type=%d, size=%d, index=%d", (int)dwType, m_aaModelElem[ dwType ].GetSize(), (int)dwIndex );

  00053	57		 push	 edi
  00054	53		 push	 ebx
  00055	52		 push	 edx
  00056	68 00 00 00 00	 push	 OFFSET ??_C@_0DI@CBFCGHHI@GetModelElem?5?9?5out?5of?5range?3?5ty@
  0005b	e8 00 00 00 00	 call	 ?Error@@YAPBDPBDZZ	; Error
  00060	83 c4 10	 add	 esp, 16			; 00000010H
$LN4@GetModelEl:

; 49   : 			ADDERRORMSG( szErr );
; 50   : 		}
; 51   : 	}
; 52   : 	
; 53   : 	return pElem;

  00063	5f		 pop	 edi
  00064	8b c6		 mov	 eax, esi

; 54   : }

  00066	5e		 pop	 esi
  00067	5b		 pop	 ebx
  00068	5d		 pop	 ebp
  00069	c2 08 00	 ret	 8
?GetModelElem@CModelMng@@QAEPAUtagMODELELEM@@KK@Z ENDP	; CModelMng::GetModelElem
_TEXT	ENDS
; Function compile flags: /Ogtp
; File C:\IAGOS\server\v18\Source\Source\_Common\ModelMng.cpp
;	COMDAT ?Free@CModelMng@@QAEXXZ
_TEXT	SEGMENT
?Free@CModelMng@@QAEXXZ PROC				; CModelMng::Free, COMDAT
; _this$ = ecx

; 37   : }

  00000	c2 00 00	 ret	 0
?Free@CModelMng@@QAEXXZ ENDP				; CModelMng::Free
_TEXT	ENDS
; Function compile flags: /Ogtp
; File C:\IAGOS\server\v18\Source\Source\_Common\ModelMng.cpp
; File C:\IAGOS\server\v18\Source\Source\_Common\data.h
; File C:\IAGOS\server\v18\Source\Source\_Common\ModelMng.cpp
; File C:\Program Files\Microsoft Visual Studio\2022\Professional\VC\Tools\MSVC\14.44.35207\include\xtree
; File C:\Program Files\Microsoft Visual Studio\2022\Professional\VC\Tools\MSVC\14.44.35207\include\xmemory
; File C:\IAGOS\server\v18\Source\Source\_Common\ModelMng.cpp
;	COMDAT ??1CModelMng@@QAE@XZ
_TEXT	SEGMENT
_this$1$ = -20						; size = 4
tv456 = -16						; size = 4
__$EHRec$ = -12						; size = 12
??1CModelMng@@QAE@XZ PROC				; CModelMng::~CModelMng, COMDAT
; _this$ = ecx

; 21   : {

  00000	55		 push	 ebp
  00001	8b ec		 mov	 ebp, esp
  00003	6a ff		 push	 -1
  00005	68 00 00 00 00	 push	 __ehhandler$??1CModelMng@@QAE@XZ
  0000a	64 a1 00 00 00
	00		 mov	 eax, DWORD PTR fs:0
  00010	50		 push	 eax
  00011	83 ec 08	 sub	 esp, 8
  00014	53		 push	 ebx
  00015	56		 push	 esi
  00016	57		 push	 edi
  00017	a1 00 00 00 00	 mov	 eax, DWORD PTR ___security_cookie
  0001c	33 c5		 xor	 eax, ebp
  0001e	50		 push	 eax
  0001f	8d 45 f4	 lea	 eax, DWORD PTR __$EHRec$[ebp]
  00022	64 a3 00 00 00
	00		 mov	 DWORD PTR fs:0, eax
  00028	89 4d ec	 mov	 DWORD PTR _this$1$[ebp], ecx

; 22   : 	for( int i = 0; i < MAX_OBJTYPE ; i++ )

  0002b	8d 59 20	 lea	 ebx, DWORD PTR [ecx+32]
  0002e	b9 09 00 00 00	 mov	 ecx, 9
  00033	89 4d f0	 mov	 DWORD PTR tv456[ebp], ecx
$LL4@CModelMng:

; 23   : 	{
; 24   : 		CFixedArray< tagMODELELEM >* apModelElem = &m_aaModelElem[ i ];
; 25   : 		for( int j = 0; j < apModelElem->GetSize(); j++ )

  00036	8b 03		 mov	 eax, DWORD PTR [ebx]
  00038	33 f6		 xor	 esi, esi
  0003a	85 c0		 test	 eax, eax
  0003c	7e 2f		 jle	 SHORT $LN2@CModelMng
; File C:\IAGOS\server\v18\Source\Source\_Common\data.h

; 270  : 	if( dwIndex >= (DWORD)m_nMaxIndex )

  0003e	3b f0		 cmp	 esi, eax
$LN56@CModelMng:
  00040	73 21		 jae	 SHORT $LN5@CModelMng

; 271  : 		return NULL;
; 272  : 	return (T*) m_apOffset[ dwIndex ];

  00042	8b 43 f0	 mov	 eax, DWORD PTR [ebx-16]
  00045	8b 3c b0	 mov	 edi, DWORD PTR [eax+esi*4]
; File C:\IAGOS\server\v18\Source\Source\_Common\ModelMng.cpp

; 28   : 			if( pModelElem )

  00048	85 ff		 test	 edi, edi
  0004a	74 17		 je	 SHORT $LN5@CModelMng

; 29   : 				SAFE_DELETE_ARRAY( pModelElem->m_apszMotion );

  0004c	8b 47 3c	 mov	 eax, DWORD PTR [edi+60]
  0004f	85 c0		 test	 eax, eax
  00051	74 10		 je	 SHORT $LN5@CModelMng
  00053	50		 push	 eax
  00054	e8 00 00 00 00	 call	 ??_V@YAXPAX@Z		; operator delete[]
  00059	83 c4 04	 add	 esp, 4
  0005c	c7 47 3c 00 00
	00 00		 mov	 DWORD PTR [edi+60], 0
$LN5@CModelMng:

; 23   : 	{
; 24   : 		CFixedArray< tagMODELELEM >* apModelElem = &m_aaModelElem[ i ];
; 25   : 		for( int j = 0; j < apModelElem->GetSize(); j++ )

  00063	8b 03		 mov	 eax, DWORD PTR [ebx]
  00065	46		 inc	 esi
  00066	3b f0		 cmp	 esi, eax
  00068	7c d6		 jl	 SHORT $LN56@CModelMng
  0006a	8b 4d f0	 mov	 ecx, DWORD PTR tv456[ebp]
$LN2@CModelMng:

; 22   : 	for( int i = 0; i < MAX_OBJTYPE ; i++ )

  0006d	83 c3 24	 add	 ebx, 36			; 00000024H
  00070	83 e9 01	 sub	 ecx, 1
  00073	89 4d f0	 mov	 DWORD PTR tv456[ebp], ecx
  00076	75 be		 jne	 SHORT $LL4@CModelMng

; 34   : }

  00078	8b 5d ec	 mov	 ebx, DWORD PTR _this$1$[ebp]
  0007b	68 00 00 00 00	 push	 OFFSET ??1?$CFixedArray@UtagMODELELEM@@@@UAE@XZ ; CFixedArray<tagMODELELEM>::~CFixedArray<tagMODELELEM>
  00080	6a 09		 push	 9
  00082	6a 24		 push	 36			; 00000024H
  00084	8d 43 08	 lea	 eax, DWORD PTR [ebx+8]
  00087	50		 push	 eax
  00088	e8 00 00 00 00	 call	 ??_M@YGXPAXIIP6EX0@Z@Z
; File C:\Program Files\Microsoft Visual Studio\2022\Professional\VC\Tools\MSVC\14.44.35207\include\xtree

; 777  :         _Erase_tree(_Al, _Myhead->_Parent);

  0008d	8b 03		 mov	 eax, DWORD PTR [ebx]
  0008f	8b cb		 mov	 ecx, ebx
  00091	ff 70 04	 push	 DWORD PTR [eax+4]
  00094	53		 push	 ebx
  00095	e8 00 00 00 00	 call	 ??$_Erase_tree@V?$allocator@U?$_Tree_node@U?$pair@$$CBV?$basic_string@DU?$char_traits@D@std@@V?$allocator@D@2@@std@@PAX@std@@PAX@std@@@std@@@?$_Tree_val@U?$_Tree_simple_types@U?$pair@$$CBV?$basic_string@DU?$char_traits@D@std@@V?$allocator@D@2@@std@@PAX@std@@@std@@@std@@QAEXAAV?$allocator@U?$_Tree_node@U?$pair@$$CBV?$basic_string@DU?$char_traits@D@std@@V?$allocator@D@2@@std@@PAX@std@@PAX@std@@@1@PAU?$_Tree_node@U?$pair@$$CBV?$basic_string@DU?$char_traits@D@std@@V?$allocator@D@2@@std@@PAX@std@@PAX@1@@Z ; std::_Tree_val<std::_Tree_simple_types<std::pair<std::basic_string<char,std::char_traits<char>,std::allocator<char> > const ,void *> > >::_Erase_tree<std::allocator<std::_Tree_node<std::pair<std::basic_string<char,std::char_traits<char>,std::allocator<char> > const ,void *>,void *> > >
; File C:\Program Files\Microsoft Visual Studio\2022\Professional\VC\Tools\MSVC\14.44.35207\include\xmemory

; 289  :         ::operator delete(_Ptr, _Bytes);

  0009a	6a 2c		 push	 44			; 0000002cH
  0009c	ff 33		 push	 DWORD PTR [ebx]
  0009e	e8 00 00 00 00	 call	 ??3@YAXPAXI@Z		; operator delete
  000a3	83 c4 08	 add	 esp, 8
; File C:\IAGOS\server\v18\Source\Source\_Common\ModelMng.cpp

; 34   : }

  000a6	8b 4d f4	 mov	 ecx, DWORD PTR __$EHRec$[ebp]
  000a9	64 89 0d 00 00
	00 00		 mov	 DWORD PTR fs:0, ecx
  000b0	59		 pop	 ecx
  000b1	5f		 pop	 edi
  000b2	5e		 pop	 esi
  000b3	5b		 pop	 ebx
  000b4	8b e5		 mov	 esp, ebp
  000b6	5d		 pop	 ebp
  000b7	c3		 ret	 0
  000b8	cc		 int	 3
  000b9	cc		 int	 3
  000ba	cc		 int	 3
  000bb	cc		 int	 3
  000bc	cc		 int	 3
_TEXT	ENDS
;	COMDAT text$x
text$x	SEGMENT
__ehhandler$??1CModelMng@@QAE@XZ:
  00000	90		 npad	 1
  00001	90		 npad	 1
  00002	8b 54 24 08	 mov	 edx, DWORD PTR [esp+8]
  00006	8d 42 0c	 lea	 eax, DWORD PTR [edx+12]
  00009	8b 4a e8	 mov	 ecx, DWORD PTR [edx-24]
  0000c	33 c8		 xor	 ecx, eax
  0000e	e8 00 00 00 00	 call	 @__security_check_cookie@4
  00013	b8 00 00 00 00	 mov	 eax, OFFSET __ehfuncinfo$??1CModelMng@@QAE@XZ
  00018	e9 00 00 00 00	 jmp	 ___CxxFrameHandler3
text$x	ENDS
??1CModelMng@@QAE@XZ ENDP				; CModelMng::~CModelMng
; Function compile flags: /Ogtp
; File C:\IAGOS\server\v18\Source\Source\_Common\ModelMng.cpp
; File C:\Program Files\Microsoft Visual Studio\2022\Professional\VC\Tools\MSVC\14.44.35207\include\xmemory
; File C:\Program Files\Microsoft Visual Studio\2022\Professional\VC\Tools\MSVC\14.44.35207\include\xtree
; File C:\Program Files\Microsoft Visual Studio\2022\Professional\VC\Tools\MSVC\14.44.35207\include\xmemory
; File C:\Program Files\Microsoft Visual Studio\2022\Professional\VC\Tools\MSVC\14.44.35207\include\xtree
; File C:\IAGOS\server\v18\Source\Source\_Common\ModelMng.cpp
;	COMDAT ??0CModelMng@@QAE@XZ
_TEXT	SEGMENT
_this$ = -16						; size = 4
__$EHRec$ = -12						; size = 12
??0CModelMng@@QAE@XZ PROC				; CModelMng::CModelMng, COMDAT
; _this$ = ecx

; 18   : {

  00000	55		 push	 ebp
  00001	8b ec		 mov	 ebp, esp
  00003	6a ff		 push	 -1
  00005	68 00 00 00 00	 push	 __ehhandler$??0CModelMng@@QAE@XZ
  0000a	64 a1 00 00 00
	00		 mov	 eax, DWORD PTR fs:0
  00010	50		 push	 eax
  00011	83 ec 08	 sub	 esp, 8
  00014	56		 push	 esi
  00015	a1 00 00 00 00	 mov	 eax, DWORD PTR ___security_cookie
  0001a	33 c5		 xor	 eax, ebp
  0001c	50		 push	 eax
  0001d	8d 45 f4	 lea	 eax, DWORD PTR __$EHRec$[ebp]
  00020	64 a3 00 00 00
	00		 mov	 DWORD PTR fs:0, eax
  00026	8b f1		 mov	 esi, ecx
  00028	89 75 f0	 mov	 DWORD PTR _this$[ebp], esi
; File C:\Program Files\Microsoft Visual Studio\2022\Professional\VC\Tools\MSVC\14.44.35207\include\xmemory

; 136  :         return ::operator new(_Bytes);

  0002b	6a 2c		 push	 44			; 0000002cH
; File C:\Program Files\Microsoft Visual Studio\2022\Professional\VC\Tools\MSVC\14.44.35207\include\xtree

; 450  :     _Tree_val() noexcept : _Myhead(), _Mysize(0) {}

  0002d	c7 06 00 00 00
	00		 mov	 DWORD PTR [esi], 0
  00033	c7 46 04 00 00
	00 00		 mov	 DWORD PTR [esi+4], 0
; File C:\Program Files\Microsoft Visual Studio\2022\Professional\VC\Tools\MSVC\14.44.35207\include\xmemory

; 136  :         return ::operator new(_Bytes);

  0003a	e8 00 00 00 00	 call	 ??2@YAPAXI@Z		; operator new
  0003f	83 c4 04	 add	 esp, 4
; File C:\Program Files\Microsoft Visual Studio\2022\Professional\VC\Tools\MSVC\14.44.35207\include\xtree

; 346  :         _Construct_in_place(_Pnode->_Left, _Pnode);

  00042	89 00		 mov	 DWORD PTR [eax], eax

; 347  :         _Construct_in_place(_Pnode->_Parent, _Pnode);

  00044	89 40 04	 mov	 DWORD PTR [eax+4], eax

; 348  :         _Construct_in_place(_Pnode->_Right, _Pnode);

  00047	89 40 08	 mov	 DWORD PTR [eax+8], eax

; 349  :         _Pnode->_Color = _Black;

  0004a	66 c7 40 0c 01
	01		 mov	 WORD PTR [eax+12], 257	; 00000101H

; 1957 :         _Scary->_Myhead = _Node::_Buyheadnode(_Getal());

  00050	89 06		 mov	 DWORD PTR [esi], eax
; File C:\IAGOS\server\v18\Source\Source\_Common\ModelMng.cpp

; 18   : {

  00052	68 00 00 00 00	 push	 OFFSET ??1?$CFixedArray@UtagMODELELEM@@@@UAE@XZ ; CFixedArray<tagMODELELEM>::~CFixedArray<tagMODELELEM>
  00057	68 00 00 00 00	 push	 OFFSET ??0?$CFixedArray@UtagMODELELEM@@@@QAE@XZ ; CFixedArray<tagMODELELEM>::CFixedArray<tagMODELELEM>
  0005c	6a 09		 push	 9
  0005e	6a 24		 push	 36			; 00000024H
  00060	8d 46 08	 lea	 eax, DWORD PTR [esi+8]
  00063	c7 45 fc 00 00
	00 00		 mov	 DWORD PTR __$EHRec$[ebp+8], 0
  0006a	50		 push	 eax
  0006b	e8 00 00 00 00	 call	 ??_L@YGXPAXIIP6EX0@Z1@Z

; 19   : }

  00070	8b c6		 mov	 eax, esi
  00072	8b 4d f4	 mov	 ecx, DWORD PTR __$EHRec$[ebp]
  00075	64 89 0d 00 00
	00 00		 mov	 DWORD PTR fs:0, ecx
  0007c	59		 pop	 ecx
  0007d	5e		 pop	 esi
  0007e	8b e5		 mov	 esp, ebp
  00080	5d		 pop	 ebp
  00081	c3		 ret	 0
_TEXT	ENDS
;	COMDAT text$x
text$x	SEGMENT
__unwindfunclet$??0CModelMng@@QAE@XZ$0:
  00000	8b 4d f0	 mov	 ecx, DWORD PTR _this$[ebp]
  00003	e9 00 00 00 00	 jmp	 ??1?$map@V?$basic_string@DU?$char_traits@D@std@@V?$allocator@D@2@@std@@PAXU?$less@V?$basic_string@DU?$char_traits@D@std@@V?$allocator@D@2@@std@@@2@V?$allocator@U?$pair@$$CBV?$basic_string@DU?$char_traits@D@std@@V?$allocator@D@2@@std@@PAX@std@@@2@@std@@QAE@XZ
  00008	cc		 int	 3
  00009	cc		 int	 3
  0000a	cc		 int	 3
  0000b	cc		 int	 3
  0000c	cc		 int	 3
__ehhandler$??0CModelMng@@QAE@XZ:
  0000d	90		 npad	 1
  0000e	90		 npad	 1
  0000f	8b 54 24 08	 mov	 edx, DWORD PTR [esp+8]
  00013	8d 42 0c	 lea	 eax, DWORD PTR [edx+12]
  00016	8b 4a f0	 mov	 ecx, DWORD PTR [edx-16]
  00019	33 c8		 xor	 ecx, eax
  0001b	e8 00 00 00 00	 call	 @__security_check_cookie@4
  00020	b8 00 00 00 00	 mov	 eax, OFFSET __ehfuncinfo$??0CModelMng@@QAE@XZ
  00025	e9 00 00 00 00	 jmp	 ___CxxFrameHandler3
text$x	ENDS
??0CModelMng@@QAE@XZ ENDP				; CModelMng::CModelMng
; Function compile flags: /Ogtp
; File C:\IAGOS\server\v18\Source\Source\_Common\data.h
;	COMDAT ??_G?$CFixedArray@UtagMODELELEM@@@@UAEPAXI@Z
_TEXT	SEGMENT
___flags$ = 8						; size = 4
??_G?$CFixedArray@UtagMODELELEM@@@@UAEPAXI@Z PROC	; CFixedArray<tagMODELELEM>::`scalar deleting destructor', COMDAT
; _this$ = ecx
  00000	55		 push	 ebp
  00001	8b ec		 mov	 ebp, esp

; 238  : {

  00003	56		 push	 esi
  00004	8b f1		 mov	 esi, ecx

; 239  : 	SAFE_DELETE_ARRAY( m_apOffset );

  00006	8b 46 08	 mov	 eax, DWORD PTR [esi+8]
  00009	c7 06 00 00 00
	00		 mov	 DWORD PTR [esi], OFFSET ??_7?$CFixedArray@UtagMODELELEM@@@@6B@
  0000f	85 c0		 test	 eax, eax
  00011	74 10		 je	 SHORT $LN6@scalar
  00013	50		 push	 eax
  00014	e8 00 00 00 00	 call	 ??_V@YAXPAX@Z		; operator delete[]
  00019	83 c4 04	 add	 esp, 4
  0001c	c7 46 08 00 00
	00 00		 mov	 DWORD PTR [esi+8], 0
$LN6@scalar:

; 240  : 	SAFE_DELETE_ARRAY( m_pData ); 

  00023	8b 46 04	 mov	 eax, DWORD PTR [esi+4]
  00026	85 c0		 test	 eax, eax
  00028	74 10		 je	 SHORT $LN7@scalar
  0002a	50		 push	 eax
  0002b	e8 00 00 00 00	 call	 ??_V@YAXPAX@Z		; operator delete[]
  00030	83 c4 04	 add	 esp, 4
  00033	c7 46 04 00 00
	00 00		 mov	 DWORD PTR [esi+4], 0
$LN7@scalar:
  0003a	f6 45 08 01	 test	 BYTE PTR ___flags$[ebp], 1
  0003e	74 0b		 je	 SHORT $LN10@scalar
  00040	6a 24		 push	 36			; 00000024H
  00042	56		 push	 esi
  00043	e8 00 00 00 00	 call	 ??3@YAXPAXI@Z		; operator delete
  00048	83 c4 08	 add	 esp, 8
$LN10@scalar:
  0004b	8b c6		 mov	 eax, esi
  0004d	5e		 pop	 esi
  0004e	5d		 pop	 ebp
  0004f	c2 04 00	 ret	 4
??_G?$CFixedArray@UtagMODELELEM@@@@UAEPAXI@Z ENDP	; CFixedArray<tagMODELELEM>::`scalar deleting destructor'
_TEXT	ENDS
; Function compile flags: /Ogtp
; File C:\IAGOS\server\v18\Source\Source\_Common\data.h
;	COMDAT ?Optimize@?$CFixedArray@UtagMODELELEM@@@@QAEXXZ
_TEXT	SEGMENT
_apOffset$1$ = -4					; size = 4
_pData$1$ = -4						; size = 4
?Optimize@?$CFixedArray@UtagMODELELEM@@@@QAEXXZ PROC	; CFixedArray<tagMODELELEM>::Optimize, COMDAT
; _this$ = ecx

; 280  : {

  00000	55		 push	 ebp
  00001	8b ec		 mov	 ebp, esp
  00003	51		 push	 ecx
  00004	53		 push	 ebx
  00005	56		 push	 esi
  00006	8b f1		 mov	 esi, ecx

; 281  : 	if( m_nMaxIndex >= m_nEndIndex )

  00008	8b 46 20	 mov	 eax, DWORD PTR [esi+32]
  0000b	8d 5e 20	 lea	 ebx, DWORD PTR [esi+32]
  0000e	57		 push	 edi
  0000f	39 46 18	 cmp	 DWORD PTR [esi+24], eax
  00012	7c 48		 jl	 SHORT $LN16@Optimize

; 282  : 	{
; 283  : 		m_nMaxIndex = m_nEndIndex + 1;

  00014	40		 inc	 eax

; 284  : 		LPBYTE* apOffset = new LPBYTE [ m_nMaxIndex ]; 

  00015	b9 04 00 00 00	 mov	 ecx, 4
  0001a	89 46 18	 mov	 DWORD PTR [esi+24], eax
  0001d	f7 e1		 mul	 ecx
  0001f	b9 ff ff ff ff	 mov	 ecx, -1
  00024	0f 42 c1	 cmovb	 eax, ecx
  00027	50		 push	 eax
  00028	e8 00 00 00 00	 call	 ??_U@YAPAXI@Z		; operator new[]

; 285  : 		memcpy( apOffset, m_apOffset, sizeof( LPBYTE ) * m_nMaxIndex ); 

  0002d	8b 4e 18	 mov	 ecx, DWORD PTR [esi+24]
  00030	c1 e1 02	 shl	 ecx, 2
  00033	51		 push	 ecx
  00034	ff 76 08	 push	 DWORD PTR [esi+8]
  00037	89 45 fc	 mov	 DWORD PTR _apOffset$1$[ebp], eax
  0003a	50		 push	 eax
  0003b	e8 00 00 00 00	 call	 _memcpy

; 286  : 		SAFE_DELETE_ARRAY( m_apOffset );

  00040	8b 46 08	 mov	 eax, DWORD PTR [esi+8]
  00043	83 c4 10	 add	 esp, 16			; 00000010H
  00046	85 c0		 test	 eax, eax
  00048	74 0c		 je	 SHORT $LN6@Optimize
  0004a	50		 push	 eax
  0004b	e8 00 00 00 00	 call	 ??_V@YAXPAX@Z		; operator delete[]
  00050	83 c4 04	 add	 esp, 4
  00053	8d 5e 20	 lea	 ebx, DWORD PTR [esi+32]
$LN6@Optimize:

; 287  : 		m_apOffset = apOffset;

  00056	8b 45 fc	 mov	 eax, DWORD PTR _apOffset$1$[ebp]
  00059	89 46 08	 mov	 DWORD PTR [esi+8], eax
$LN16@Optimize:

; 288  : 	}
; 289  : 	if( m_nMaxByte > m_nCurOffset )

  0005c	8b 46 0c	 mov	 eax, DWORD PTR [esi+12]
  0005f	39 46 14	 cmp	 DWORD PTR [esi+20], eax
  00062	7e 5b		 jle	 SHORT $LN7@Optimize

; 290  : 	{
; 291  : 		LPBYTE pData = new BYTE[ m_nCurOffset ]; 

  00064	50		 push	 eax
  00065	e8 00 00 00 00	 call	 ??_U@YAPAXI@Z		; operator new[]

; 292  : 		memcpy( pData, m_pData, m_nCurOffset ); 

  0006a	ff 76 0c	 push	 DWORD PTR [esi+12]
  0006d	89 45 fc	 mov	 DWORD PTR _pData$1$[ebp], eax
  00070	ff 76 04	 push	 DWORD PTR [esi+4]
  00073	50		 push	 eax
  00074	e8 00 00 00 00	 call	 _memcpy

; 293  : 		for( int i = 0; i <= m_nEndIndex; i++ )

  00079	33 c9		 xor	 ecx, ecx
  0007b	83 c4 10	 add	 esp, 16			; 00000010H
  0007e	39 4e 20	 cmp	 DWORD PTR [esi+32], ecx
  00081	7c 19		 jl	 SHORT $LN3@Optimize
$LL4@Optimize:

; 294  : 			if( m_apOffset[ i ] )

  00083	8b 46 08	 mov	 eax, DWORD PTR [esi+8]
  00086	8d 14 88	 lea	 edx, DWORD PTR [eax+ecx*4]
  00089	8b 02		 mov	 eax, DWORD PTR [edx]
  0008b	85 c0		 test	 eax, eax
  0008d	74 08		 je	 SHORT $LN2@Optimize

; 295  : 				m_apOffset[ i ] = ( m_apOffset[ i ] - m_pData ) + pData; 

  0008f	2b 46 04	 sub	 eax, DWORD PTR [esi+4]
  00092	03 45 fc	 add	 eax, DWORD PTR _pData$1$[ebp]
  00095	89 02		 mov	 DWORD PTR [edx], eax
$LN2@Optimize:

; 293  : 		for( int i = 0; i <= m_nEndIndex; i++ )

  00097	41		 inc	 ecx
  00098	3b 0b		 cmp	 ecx, DWORD PTR [ebx]
  0009a	7e e7		 jle	 SHORT $LL4@Optimize
$LN3@Optimize:

; 296  : 		SAFE_DELETE_ARRAY( m_pData );

  0009c	8b 46 04	 mov	 eax, DWORD PTR [esi+4]
  0009f	85 c0		 test	 eax, eax
  000a1	74 10		 je	 SHORT $LN9@Optimize
  000a3	50		 push	 eax
  000a4	e8 00 00 00 00	 call	 ??_V@YAXPAX@Z		; operator delete[]
  000a9	83 c4 04	 add	 esp, 4
  000ac	c7 46 04 00 00
	00 00		 mov	 DWORD PTR [esi+4], 0
$LN9@Optimize:

; 297  : 		m_pData = pData;

  000b3	8b 45 fc	 mov	 eax, DWORD PTR _pData$1$[ebp]
  000b6	89 46 04	 mov	 DWORD PTR [esi+4], eax

; 298  : 		m_nMaxByte = m_nCurOffset ;

  000b9	8b 46 0c	 mov	 eax, DWORD PTR [esi+12]
  000bc	89 46 14	 mov	 DWORD PTR [esi+20], eax
$LN7@Optimize:

; 299  : 	}
; 300  : }

  000bf	5f		 pop	 edi
  000c0	5e		 pop	 esi
  000c1	5b		 pop	 ebx
  000c2	8b e5		 mov	 esp, ebp
  000c4	5d		 pop	 ebp
  000c5	c3		 ret	 0
?Optimize@?$CFixedArray@UtagMODELELEM@@@@QAEXXZ ENDP	; CFixedArray<tagMODELELEM>::Optimize
_TEXT	ENDS
; Function compile flags: /Ogtp
; File C:\IAGOS\server\v18\Source\Source\_Common\data.h
;	COMDAT ?SetAtGrow@?$CFixedArray@UtagMODELELEM@@@@QAEXHPAUtagMODELELEM@@H@Z
_TEXT	SEGMENT
tv437 = -16						; size = 4
tv440 = -16						; size = 4
tv469 = -16						; size = 4
_pData2$1$ = -12					; size = 4
$T1 = -12						; size = 4
$T2 = -8						; size = 4
_apOffset$1$ = -4					; size = 4
$T3 = -4						; size = 4
_nIndex$ = 8						; size = 4
_pData$ = 12						; size = 4
_nSize$ = 16						; size = 4
?SetAtGrow@?$CFixedArray@UtagMODELELEM@@@@QAEXHPAUtagMODELELEM@@H@Z PROC ; CFixedArray<tagMODELELEM>::SetAtGrow, COMDAT
; _this$ = ecx

; 310  : {

  00000	55		 push	 ebp
  00001	8b ec		 mov	 ebp, esp
  00003	83 ec 10	 sub	 esp, 16			; 00000010H

; 311  : 	if( nIndex >= m_nMaxIndex )

  00006	8b 45 08	 mov	 eax, DWORD PTR _nIndex$[ebp]
  00009	53		 push	 ebx
  0000a	8b d9		 mov	 ebx, ecx
  0000c	56		 push	 esi
  0000d	57		 push	 edi
  0000e	8d 7b 20	 lea	 edi, DWORD PTR [ebx+32]
  00011	8d 73 08	 lea	 esi, DWORD PTR [ebx+8]
  00014	89 7d f4	 mov	 DWORD PTR $T1[ebp], edi
  00017	89 75 f8	 mov	 DWORD PTR $T2[ebp], esi
  0001a	3b 43 18	 cmp	 eax, DWORD PTR [ebx+24]
  0001d	7c 5f		 jl	 SHORT $LN25@SetAtGrow

; 312  : 	{
; 313  : 		LPBYTE* apOffset = new LPBYTE [ nIndex * 2 ]; // µÎąč Č®Ŕĺ 

  0001f	03 c0		 add	 eax, eax
  00021	b9 04 00 00 00	 mov	 ecx, 4
  00026	89 45 f0	 mov	 DWORD PTR tv440[ebp], eax
  00029	f7 e1		 mul	 ecx
  0002b	b9 ff ff ff ff	 mov	 ecx, -1
  00030	0f 42 c1	 cmovb	 eax, ecx
  00033	50		 push	 eax
  00034	e8 00 00 00 00	 call	 ??_U@YAPAXI@Z		; operator new[]

; 314  : 		ZeroMemory( apOffset, sizeof( LPBYTE ) * nIndex * 2 ); // ĂĘ±âČ­ 

  00039	8b 4d 08	 mov	 ecx, DWORD PTR _nIndex$[ebp]
  0003c	c1 e1 03	 shl	 ecx, 3
  0003f	51		 push	 ecx
  00040	6a 00		 push	 0
  00042	50		 push	 eax
  00043	89 45 fc	 mov	 DWORD PTR _apOffset$1$[ebp], eax
  00046	e8 00 00 00 00	 call	 _memset

; 315  : 		memcpy( apOffset, m_apOffset, sizeof( LPBYTE ) * ( m_nEndIndex + 1 ) ); // şą»ç 

  0004b	8b 0f		 mov	 ecx, DWORD PTR [edi]
  0004d	8d 0c 8d 04 00
	00 00		 lea	 ecx, DWORD PTR [ecx*4+4]
  00054	51		 push	 ecx
  00055	ff 36		 push	 DWORD PTR [esi]
  00057	ff 75 fc	 push	 DWORD PTR _apOffset$1$[ebp]
  0005a	e8 00 00 00 00	 call	 _memcpy

; 316  : 		SAFE_DELETE_ARRAY( m_apOffset );

  0005f	8b 06		 mov	 eax, DWORD PTR [esi]
  00061	83 c4 1c	 add	 esp, 28			; 0000001cH
  00064	85 c0		 test	 eax, eax
  00066	74 09		 je	 SHORT $LN6@SetAtGrow
  00068	50		 push	 eax
  00069	e8 00 00 00 00	 call	 ??_V@YAXPAX@Z		; operator delete[]
  0006e	83 c4 04	 add	 esp, 4
$LN6@SetAtGrow:

; 317  : 		m_apOffset = apOffset;

  00071	8b 45 fc	 mov	 eax, DWORD PTR _apOffset$1$[ebp]
  00074	89 06		 mov	 DWORD PTR [esi], eax

; 318  : 		m_nMaxIndex = nIndex * 2;

  00076	8b 45 f0	 mov	 eax, DWORD PTR tv440[ebp]
  00079	89 43 18	 mov	 DWORD PTR [ebx+24], eax
  0007c	eb 06		 jmp	 SHORT $LN21@SetAtGrow
$LN25@SetAtGrow:
  0007e	89 7d f4	 mov	 DWORD PTR $T1[ebp], edi
  00081	89 75 f8	 mov	 DWORD PTR $T2[ebp], esi
$LN21@SetAtGrow:

; 319  : 	}
; 320  : 	int nSizeTemp 
; 321  : 		= nSize ? nSize : sizeof( T );

  00084	8b 45 10	 mov	 eax, DWORD PTR _nSize$[ebp]

; 322  : 	if( m_nCurOffset + nSizeTemp > m_nMaxByte )

  00087	8d 53 0c	 lea	 edx, DWORD PTR [ebx+12]
  0008a	85 c0		 test	 eax, eax
  0008c	89 55 fc	 mov	 DWORD PTR $T3[ebp], edx
  0008f	b9 84 00 00 00	 mov	 ecx, 132		; 00000084H
  00094	0f 45 c8	 cmovne	 ecx, eax
  00097	8b 02		 mov	 eax, DWORD PTR [edx]
  00099	03 c1		 add	 eax, ecx
  0009b	3b 43 14	 cmp	 eax, DWORD PTR [ebx+20]
  0009e	7e 7a		 jle	 SHORT $LN26@SetAtGrow

; 323  : 	{
; 324  : 		m_nMaxByte = m_nCurOffset * 2 + nSizeTemp;

  000a0	8b 02		 mov	 eax, DWORD PTR [edx]
  000a2	8d 04 41	 lea	 eax, DWORD PTR [ecx+eax*2]

; 325  : 		LPBYTE pData2 = new BYTE[ m_nMaxByte ]; // µÎąč Č®Ŕĺ 

  000a5	50		 push	 eax
  000a6	89 43 14	 mov	 DWORD PTR [ebx+20], eax
  000a9	e8 00 00 00 00	 call	 ??_U@YAPAXI@Z		; operator new[]

; 326  : 		memcpy( pData2, m_pData, m_nCurOffset ); // şą»ç 

  000ae	ff 73 0c	 push	 DWORD PTR [ebx+12]
  000b1	89 45 f4	 mov	 DWORD PTR _pData2$1$[ebp], eax
  000b4	ff 73 04	 push	 DWORD PTR [ebx+4]
  000b7	50		 push	 eax
  000b8	e8 00 00 00 00	 call	 _memcpy

; 327  : 		for( int i = 0; i <= m_nEndIndex; i++ )

  000bd	33 c9		 xor	 ecx, ecx
  000bf	8d 43 0c	 lea	 eax, DWORD PTR [ebx+12]
  000c2	83 c4 10	 add	 esp, 16			; 00000010H
  000c5	89 45 fc	 mov	 DWORD PTR $T3[ebp], eax
  000c8	39 0f		 cmp	 DWORD PTR [edi], ecx
  000ca	7c 25		 jl	 SHORT $LN22@SetAtGrow
  000cc	0f 1f 40 00	 npad	 4
$LL4@SetAtGrow:

; 328  : 			if( m_apOffset[ i ] )

  000d0	8b 06		 mov	 eax, DWORD PTR [esi]
  000d2	8d 14 88	 lea	 edx, DWORD PTR [eax+ecx*4]
  000d5	8b 02		 mov	 eax, DWORD PTR [edx]
  000d7	85 c0		 test	 eax, eax
  000d9	74 08		 je	 SHORT $LN2@SetAtGrow

; 329  : 				m_apOffset[ i ] = ( m_apOffset[ i ] - m_pData ) + pData2; 

  000db	2b 43 04	 sub	 eax, DWORD PTR [ebx+4]
  000de	03 45 f4	 add	 eax, DWORD PTR _pData2$1$[ebp]
  000e1	89 02		 mov	 DWORD PTR [edx], eax
$LN2@SetAtGrow:

; 327  : 		for( int i = 0; i <= m_nEndIndex; i++ )

  000e3	41		 inc	 ecx
  000e4	3b 0f		 cmp	 ecx, DWORD PTR [edi]
  000e6	7e e8		 jle	 SHORT $LL4@SetAtGrow

; 318  : 		m_nMaxIndex = nIndex * 2;

  000e8	8d 43 0c	 lea	 eax, DWORD PTR [ebx+12]
  000eb	8d 73 08	 lea	 esi, DWORD PTR [ebx+8]
  000ee	89 45 fc	 mov	 DWORD PTR $T3[ebp], eax
$LN22@SetAtGrow:

; 330  : 		SAFE_DELETE_ARRAY( m_pData );

  000f1	8b 43 04	 mov	 eax, DWORD PTR [ebx+4]
  000f4	89 75 f8	 mov	 DWORD PTR $T2[ebp], esi
  000f7	85 c0		 test	 eax, eax
  000f9	74 10		 je	 SHORT $LN9@SetAtGrow
  000fb	50		 push	 eax
  000fc	e8 00 00 00 00	 call	 ??_V@YAXPAX@Z		; operator delete[]
  00101	83 c4 04	 add	 esp, 4
  00104	c7 43 04 00 00
	00 00		 mov	 DWORD PTR [ebx+4], 0
$LN9@SetAtGrow:

; 331  : 		m_pData = pData2;

  0010b	8b 45 f4	 mov	 eax, DWORD PTR _pData2$1$[ebp]
  0010e	8b 55 fc	 mov	 edx, DWORD PTR $T3[ebp]
  00111	89 43 04	 mov	 DWORD PTR [ebx+4], eax
  00114	8d 43 20	 lea	 eax, DWORD PTR [ebx+32]
  00117	89 45 f4	 mov	 DWORD PTR $T1[ebp], eax
$LN26@SetAtGrow:

; 332  : 	}
; 333  : 	// »çŔĚÁî ŔÚĂĽżˇ şŻµżŔĚ ľř´Â °ćżěŔÓ( T »çŔĚÁî°ˇ ŔŻÁöµÇ´Â °ćżě )
; 334  : 	if( nSize == 0 )

  0011a	8b 45 08	 mov	 eax, DWORD PTR _nIndex$[ebp]
  0011d	8b 4d 10	 mov	 ecx, DWORD PTR _nSize$[ebp]
  00120	8d 3c 85 00 00
	00 00		 lea	 edi, DWORD PTR [eax*4]
  00127	8b 06		 mov	 eax, DWORD PTR [esi]
  00129	89 7d f0	 mov	 DWORD PTR tv469[ebp], edi
  0012c	8b 04 07	 mov	 eax, DWORD PTR [edi+eax]
  0012f	85 c9		 test	 ecx, ecx
  00131	75 31		 jne	 SHORT $LN10@SetAtGrow

; 335  : 	{
; 336  : 		if( m_apOffset[ nIndex ] == NULL )

  00133	8b 75 0c	 mov	 esi, DWORD PTR _pData$[ebp]
  00136	b9 21 00 00 00	 mov	 ecx, 33			; 00000021H
  0013b	85 c0		 test	 eax, eax
  0013d	75 1f		 jne	 SHORT $LN12@SetAtGrow

; 337  : 		{
; 338  : 			memcpy( &m_pData[ m_nCurOffset ], pData, sizeof( T ) );

  0013f	8b 7b 04	 mov	 edi, DWORD PTR [ebx+4]
  00142	03 3a		 add	 edi, DWORD PTR [edx]

; 339  : 			m_apOffset[ nIndex ] = (LPBYTE) m_pData + m_nCurOffset;

  00144	8b 45 f8	 mov	 eax, DWORD PTR $T2[ebp]
  00147	f3 a5		 rep movsd
  00149	8b 4b 04	 mov	 ecx, DWORD PTR [ebx+4]
  0014c	8b 00		 mov	 eax, DWORD PTR [eax]
  0014e	8b 75 f0	 mov	 esi, DWORD PTR tv469[ebp]
  00151	03 0a		 add	 ecx, DWORD PTR [edx]
  00153	89 0c 06	 mov	 DWORD PTR [esi+eax], ecx

; 340  : 			m_nCurOffset += sizeof( T );

  00156	81 02 84 00 00
	00		 add	 DWORD PTR [edx], 132	; 00000084H

; 341  : 		}

  0015c	eb 47		 jmp	 SHORT $LN15@SetAtGrow
$LN12@SetAtGrow:

; 342  : 		else
; 343  : 		{
; 344  : 			memcpy( m_apOffset[ nIndex ], pData, sizeof( T ) );

  0015e	8b f8		 mov	 edi, eax
  00160	f3 a5		 rep movsd

; 345  : 		}
; 346  : 	}

  00162	eb 41		 jmp	 SHORT $LN15@SetAtGrow
$LN10@SetAtGrow:

; 347  : 	// °˘ ±¸Á¶ĂĽŔÇ »çŔĚÁî°ˇ şŻ°ćµĘ. ex) ˝şĆ®¸µŔÇ ±ćŔĚżˇ µű¶óĽ­.
; 348  : 	else
; 349  : 	{
; 350  : 		if( m_apOffset[ nIndex ] == NULL )

  00164	85 c0		 test	 eax, eax
  00166	75 26		 jne	 SHORT $LN14@SetAtGrow

; 351  : 		{
; 352  : 			memcpy( &m_pData[ m_nCurOffset ], pData, nSize );

  00168	8b 02		 mov	 eax, DWORD PTR [edx]
  0016a	03 43 04	 add	 eax, DWORD PTR [ebx+4]
  0016d	51		 push	 ecx
  0016e	ff 75 0c	 push	 DWORD PTR _pData$[ebp]
  00171	50		 push	 eax
  00172	e8 00 00 00 00	 call	 _memcpy

; 353  : 			m_apOffset[ nIndex ] = (LPBYTE) m_pData + m_nCurOffset;

  00177	8b 55 fc	 mov	 edx, DWORD PTR $T3[ebp]
  0017a	83 c4 0c	 add	 esp, 12			; 0000000cH
  0017d	8b 06		 mov	 eax, DWORD PTR [esi]
  0017f	8b 0a		 mov	 ecx, DWORD PTR [edx]
  00181	03 4b 04	 add	 ecx, DWORD PTR [ebx+4]
  00184	89 0c 07	 mov	 DWORD PTR [edi+eax], ecx

; 354  : 			m_nCurOffset += nSize;

  00187	8b 45 10	 mov	 eax, DWORD PTR _nSize$[ebp]
  0018a	01 02		 add	 DWORD PTR [edx], eax

; 355  : 		}

  0018c	eb 17		 jmp	 SHORT $LN15@SetAtGrow
$LN14@SetAtGrow:

; 356  : 		else
; 357  : 		{
; 358  : 			// »çŔĚÁî°ˇ şŻ°ćµÇ´Â ±¸Á¶żˇĽ­´Â ŔÎµ¦˝ş ł»żëŔ» ąŮ˛Ů¸é ľČµĘ.
; 359  : 			WriteLog( "%s, %d", __FILE__, __LINE__ );

  0018e	68 67 01 00 00	 push	 359			; 00000167H
  00193	68 00 00 00 00	 push	 OFFSET ??_C@_0DB@ILBMOCBP@C?3?2IAGOS?2server?2v18?2Source?2Sour@
  00198	68 00 00 00 00	 push	 OFFSET ??_C@_06OJLEAOEG@?$CFs?0?5?$CFd@
  0019d	e8 00 00 00 00	 call	 ?WriteLog@@YAXPBDZZ	; WriteLog
  001a2	83 c4 0c	 add	 esp, 12			; 0000000cH
$LN15@SetAtGrow:

; 360  : 		}
; 361  : 	}
; 362  : 	if( nIndex > m_nEndIndex )

  001a5	8b 45 f4	 mov	 eax, DWORD PTR $T1[ebp]
  001a8	8b 4d 08	 mov	 ecx, DWORD PTR _nIndex$[ebp]
  001ab	5f		 pop	 edi
  001ac	5e		 pop	 esi
  001ad	5b		 pop	 ebx
  001ae	3b 08		 cmp	 ecx, DWORD PTR [eax]
  001b0	7e 02		 jle	 SHORT $LN16@SetAtGrow

; 363  : 		m_nEndIndex = nIndex;

  001b2	89 08		 mov	 DWORD PTR [eax], ecx
$LN16@SetAtGrow:

; 364  : }

  001b4	8b e5		 mov	 esp, ebp
  001b6	5d		 pop	 ebp
  001b7	c2 0c 00	 ret	 12			; 0000000cH
?SetAtGrow@?$CFixedArray@UtagMODELELEM@@@@QAEXHPAUtagMODELELEM@@H@Z ENDP ; CFixedArray<tagMODELELEM>::SetAtGrow
_TEXT	ENDS
; Function compile flags: /Ogtp
; File C:\IAGOS\server\v18\Source\Source\_Common\data.h
;	COMDAT ??1?$CFixedArray@UtagMODELELEM@@@@UAE@XZ
_TEXT	SEGMENT
??1?$CFixedArray@UtagMODELELEM@@@@UAE@XZ PROC		; CFixedArray<tagMODELELEM>::~CFixedArray<tagMODELELEM>, COMDAT
; _this$ = ecx

; 238  : {

  00000	56		 push	 esi
  00001	8b f1		 mov	 esi, ecx

; 239  : 	SAFE_DELETE_ARRAY( m_apOffset );

  00003	8b 46 08	 mov	 eax, DWORD PTR [esi+8]
  00006	c7 06 00 00 00
	00		 mov	 DWORD PTR [esi], OFFSET ??_7?$CFixedArray@UtagMODELELEM@@@@6B@
  0000c	85 c0		 test	 eax, eax
  0000e	74 10		 je	 SHORT $LN2@CFixedArra
  00010	50		 push	 eax
  00011	e8 00 00 00 00	 call	 ??_V@YAXPAX@Z		; operator delete[]
  00016	83 c4 04	 add	 esp, 4
  00019	c7 46 08 00 00
	00 00		 mov	 DWORD PTR [esi+8], 0
$LN2@CFixedArra:

; 240  : 	SAFE_DELETE_ARRAY( m_pData ); 

  00020	8b 46 04	 mov	 eax, DWORD PTR [esi+4]
  00023	85 c0		 test	 eax, eax
  00025	74 10		 je	 SHORT $LN3@CFixedArra
  00027	50		 push	 eax
  00028	e8 00 00 00 00	 call	 ??_V@YAXPAX@Z		; operator delete[]
  0002d	83 c4 04	 add	 esp, 4
  00030	c7 46 04 00 00
	00 00		 mov	 DWORD PTR [esi+4], 0
$LN3@CFixedArra:

; 241  : }

  00037	5e		 pop	 esi
  00038	c3		 ret	 0
??1?$CFixedArray@UtagMODELELEM@@@@UAE@XZ ENDP		; CFixedArray<tagMODELELEM>::~CFixedArray<tagMODELELEM>
_TEXT	ENDS
; Function compile flags: /Ogtp
; File C:\IAGOS\server\v18\Source\Source\_Common\data.h
;	COMDAT ??0?$CFixedArray@UtagMODELELEM@@@@QAE@XZ
_TEXT	SEGMENT
??0?$CFixedArray@UtagMODELELEM@@@@QAE@XZ PROC		; CFixedArray<tagMODELELEM>::CFixedArray<tagMODELELEM>, COMDAT
; _this$ = ecx

; 230  : {

  00000	56		 push	 esi
  00001	8b f1		 mov	 esi, ecx

; 260  : 	m_pData = new BYTE[ sizeof( T ) * nMaxNum ];

  00003	68 90 33 00 00	 push	 13200			; 00003390H

; 230  : {

  00008	c7 06 00 00 00
	00		 mov	 DWORD PTR [esi], OFFSET ??_7?$CFixedArray@UtagMODELELEM@@@@6B@

; 231  : 	m_pData = NULL;

  0000e	c7 46 04 00 00
	00 00		 mov	 DWORD PTR [esi+4], 0

; 232  : 	m_apOffset = NULL;

  00015	c7 46 08 00 00
	00 00		 mov	 DWORD PTR [esi+8], 0

; 233  : 	m_nEndByte = 0;

  0001c	c7 46 1c 00 00
	00 00		 mov	 DWORD PTR [esi+28], 0

; 234  : 	m_nEndIndex = -1;

  00023	c7 46 20 ff ff
	ff ff		 mov	 DWORD PTR [esi+32], -1

; 260  : 	m_pData = new BYTE[ sizeof( T ) * nMaxNum ];

  0002a	e8 00 00 00 00	 call	 ??_U@YAPAXI@Z		; operator new[]

; 261  : 	m_apOffset = new LPBYTE [ nMaxIndex ];

  0002f	68 90 01 00 00	 push	 400			; 00000190H
  00034	89 46 04	 mov	 DWORD PTR [esi+4], eax
  00037	e8 00 00 00 00	 call	 ??_U@YAPAXI@Z		; operator new[]

; 262  : 	ZeroMemory( m_apOffset, sizeof( LPBYTE ) * nMaxIndex );

  0003c	68 90 01 00 00	 push	 400			; 00000190H
  00041	6a 00		 push	 0
  00043	50		 push	 eax
  00044	89 46 08	 mov	 DWORD PTR [esi+8], eax
  00047	e8 00 00 00 00	 call	 _memset
  0004c	83 c4 14	 add	 esp, 20			; 00000014H

; 263  : 	m_nMaxByte = sizeof( T ) * nMaxNum;

  0004f	c7 46 14 90 33
	00 00		 mov	 DWORD PTR [esi+20], 13200 ; 00003390H

; 264  : 	m_nMaxIndex = nMaxIndex;

  00056	c7 46 18 64 00
	00 00		 mov	 DWORD PTR [esi+24], 100	; 00000064H

; 235  : 	SetSize( 100, 100 );
; 236  : }

  0005d	8b c6		 mov	 eax, esi

; 265  : 	m_nCurOffset = 0;

  0005f	c7 46 0c 00 00
	00 00		 mov	 DWORD PTR [esi+12], 0

; 266  : 	m_nCurNum = 0;

  00066	c7 46 10 00 00
	00 00		 mov	 DWORD PTR [esi+16], 0

; 235  : 	SetSize( 100, 100 );
; 236  : }

  0006d	5e		 pop	 esi
  0006e	c3		 ret	 0
??0?$CFixedArray@UtagMODELELEM@@@@QAE@XZ ENDP		; CFixedArray<tagMODELELEM>::CFixedArray<tagMODELELEM>
_TEXT	ENDS
; Function compile flags: /Ogtp
; File C:\Program Files\Microsoft Visual Studio\2022\Professional\VC\Tools\MSVC\14.44.35207\include\xtree
; File C:\Program Files\Microsoft Visual Studio\2022\Professional\VC\Tools\MSVC\14.44.35207\include\xmemory
;	COMDAT ??1?$map@V?$basic_string@DU?$char_traits@D@std@@V?$allocator@D@2@@std@@PAXU?$less@V?$basic_string@DU?$char_traits@D@std@@V?$allocator@D@2@@std@@@2@V?$allocator@U?$pair@$$CBV?$basic_string@DU?$char_traits@D@std@@V?$allocator@D@2@@std@@PAX@std@@@2@@std@@QAE@XZ
_TEXT	SEGMENT
??1?$map@V?$basic_string@DU?$char_traits@D@std@@V?$allocator@D@2@@std@@PAXU?$less@V?$basic_string@DU?$char_traits@D@std@@V?$allocator@D@2@@std@@@2@V?$allocator@U?$pair@$$CBV?$basic_string@DU?$char_traits@D@std@@V?$allocator@D@2@@std@@PAX@std@@@2@@std@@QAE@XZ PROC ; std::map<std::basic_string<char,std::char_traits<char>,std::allocator<char> >,void *,std::less<std::basic_string<char,std::char_traits<char>,std::allocator<char> > >,std::allocator<std::pair<std::basic_string<char,std::char_traits<char>,std::allocator<char> > const ,void *> > >::~map<std::basic_string<char,std::char_traits<char>,std::allocator<char> >,void *,std::less<std::basic_string<char,std::char_traits<char>,std::allocator<char> > >,std::allocator<std::pair<std::basic_string<char,std::char_traits<char>,std::allocator<char> > const ,void *> > >, COMDAT
; _this$ = ecx
; File C:\Program Files\Microsoft Visual Studio\2022\Professional\VC\Tools\MSVC\14.44.35207\include\xtree

; 777  :         _Erase_tree(_Al, _Myhead->_Parent);

  00000	56		 push	 esi
  00001	8b f1		 mov	 esi, ecx
  00003	8b 06		 mov	 eax, DWORD PTR [esi]
  00005	ff 70 04	 push	 DWORD PTR [eax+4]
  00008	56		 push	 esi
  00009	e8 00 00 00 00	 call	 ??$_Erase_tree@V?$allocator@U?$_Tree_node@U?$pair@$$CBV?$basic_string@DU?$char_traits@D@std@@V?$allocator@D@2@@std@@PAX@std@@PAX@std@@@std@@@?$_Tree_val@U?$_Tree_simple_types@U?$pair@$$CBV?$basic_string@DU?$char_traits@D@std@@V?$allocator@D@2@@std@@PAX@std@@@std@@@std@@QAEXAAV?$allocator@U?$_Tree_node@U?$pair@$$CBV?$basic_string@DU?$char_traits@D@std@@V?$allocator@D@2@@std@@PAX@std@@PAX@std@@@1@PAU?$_Tree_node@U?$pair@$$CBV?$basic_string@DU?$char_traits@D@std@@V?$allocator@D@2@@std@@PAX@std@@PAX@1@@Z ; std::_Tree_val<std::_Tree_simple_types<std::pair<std::basic_string<char,std::char_traits<char>,std::allocator<char> > const ,void *> > >::_Erase_tree<std::allocator<std::_Tree_node<std::pair<std::basic_string<char,std::char_traits<char>,std::allocator<char> > const ,void *>,void *> > >
; File C:\Program Files\Microsoft Visual Studio\2022\Professional\VC\Tools\MSVC\14.44.35207\include\xmemory

; 289  :         ::operator delete(_Ptr, _Bytes);

  0000e	6a 2c		 push	 44			; 0000002cH
  00010	ff 36		 push	 DWORD PTR [esi]
  00012	e8 00 00 00 00	 call	 ??3@YAXPAXI@Z		; operator delete
  00017	83 c4 08	 add	 esp, 8
  0001a	5e		 pop	 esi
  0001b	c3		 ret	 0
