; Listing generated by Microsoft (R) Optimizing Compiler Version 19.44.35225.0 

	TITLE	C:\IAGOS\server\v18\Source\Output\WorldServer\Release\Model.obj
	.686P
	.XMM
	include listing.inc
	.model	flat

INCLUDELIB LIBCMT
INCLUDELIB OLDNAMES

PUBLIC	?__empty_global_delete@@YAXPAX@Z		; __empty_global_delete
PUBLIC	?__empty_global_delete@@YAXPAXI@Z		; __empty_global_delete
PUBLIC	??0D3DXVECTOR3@@QAE@XZ				; D3DXVECTOR3::D3DXVECTOR3
PUBLIC	??1CModel@@UAE@XZ				; CModel::~CModel
PUBLIC	?IsAniable@CModel@@QAEHXZ			; CModel::IsAniable
PUBLIC	?GetRadius@CModel@@QAEMXZ			; CModel::GetRadius
PUBLIC	?GetNextFrame@CModel@@QAEHXZ			; CModel::GetNextFrame
PUBLIC	?LoadModel@CModel@@UAEHPBD@Z			; CModel::LoadModel
PUBLIC	?SaveModel@CModel@@UAEHPBD@Z			; CModel::SaveModel
PUBLIC	?ClearNormal@CModel@@UAEXXZ			; CModel::ClearNormal
PUBLIC	?AddFrame@CModel@@UAEXM@Z			; CModel::AddFrame
PUBLIC	?SetFrame@CModel@@UAEXM@Z			; CModel::SetFrame
PUBLIC	?IsLoadAttr@CModel@@UAEHXZ			; CModel::IsLoadAttr
PUBLIC	?GetMotionAttr@CModel@@UAEPAUMOTION_ATTR@@H@Z	; CModel::GetMotionAttr
PUBLIC	?GetAttr@CModel@@UAEKH@Z			; CModel::GetAttr
PUBLIC	?IsAttrHit@CModel@@UAEKM@Z			; CModel::IsAttrHit
PUBLIC	?IsAttrHit@CModel@@UAEKXZ			; CModel::IsAttrHit
PUBLIC	?IsAttrSound@CModel@@UAEPAUMOTION_ATTR@@M@Z	; CModel::IsAttrSound
PUBLIC	?IsAttrSound@CModel@@UAEPAUMOTION_ATTR@@XZ	; CModel::IsAttrSound
PUBLIC	?IsAttrQuake@CModel@@UAEKM@Z			; CModel::IsAttrQuake
PUBLIC	?IsAttrQuake@CModel@@UAEKXZ			; CModel::IsAttrQuake
PUBLIC	?SetAttr@CModel@@UAEXMK@Z			; CModel::SetAttr
PUBLIC	?ResetAttr@CModel@@UAEXHK@Z			; CModel::ResetAttr
PUBLIC	?SetGroup@CModel@@UAEXH@Z			; CModel::SetGroup
PUBLIC	?IsHaveCollObj@CModel@@UAEHXZ			; CModel::IsHaveCollObj
PUBLIC	?Render@CModel@@UAEHPAUIDirect3DDevice9@@PBUD3DXMATRIX@@@Z ; CModel::Render
PUBLIC	?RenderEffect@CModel@@UAEXPAUIDirect3DDevice9@@PBUD3DXMATRIX@@KKHH@Z ; CModel::RenderEffect
PUBLIC	?FrameMove@CModel@@UAEXPAUD3DXVECTOR3@@M@Z	; CModel::FrameMove
PUBLIC	?InitDeviceObjects@CModel@@UAEJPAUIDirect3DDevice9@@@Z ; CModel::InitDeviceObjects
PUBLIC	?RestoreDeviceObjects@CModel@@UAEJXZ		; CModel::RestoreDeviceObjects
PUBLIC	?InvalidateDeviceObjects@CModel@@UAEJXZ		; CModel::InvalidateDeviceObjects
PUBLIC	?DeleteDeviceObjects@CModel@@UAEJXZ		; CModel::DeleteDeviceObjects
PUBLIC	?IntersectBB@CModel@@QAEHABUD3DXVECTOR3@@0ABUD3DXMATRIX@@PAU2@PAM@Z ; CModel::IntersectBB
PUBLIC	?Intersect@CModel@@UAEHABUD3DXVECTOR3@@0ABUD3DXMATRIX@@PAU2@PAMH@Z ; CModel::Intersect
PUBLIC	?IntersectRayTri@CModel@@UAEPAUD3DXVECTOR3@@ABU2@0ABUD3DXMATRIX@@PAU2@PAMH@Z ; CModel::IntersectRayTri
PUBLIC	?IsTouchOBB_Line@CModel@@UAEHABUD3DXVECTOR3@@0ABUD3DXMATRIX@@PAU2@H@Z ; CModel::IsTouchOBB_Line
PUBLIC	?TestIntersectionOBB_Line@CModel@@UAEHABVSegment3@@PBVCObj@@H@Z ; CModel::TestIntersectionOBB_Line
PUBLIC	??_GCModel@@UAEPAXI@Z				; CModel::`scalar deleting destructor'
PUBLIC	??_7CModel@@6B@					; CModel::`vftable'
PUBLIC	??_R4CModel@@6B@				; CModel::`RTTI Complete Object Locator'
PUBLIC	??_R0?AVCModel@@@8				; CModel `RTTI Type Descriptor'
PUBLIC	??_R3CModel@@8					; CModel::`RTTI Class Hierarchy Descriptor'
PUBLIC	??_R2CModel@@8					; CModel::`RTTI Base Class Array'
PUBLIC	??_R1A@?0A@EA@CModel@@8				; CModel::`RTTI Base Class Descriptor at (0,-1,0,64)'
PUBLIC	__real@3dcccccd
PUBLIC	__real@3f000000
EXTRN	??3@YAXPAXI@Z:PROC				; operator delete
EXTRN	_D3DXVec3TransformCoord@12:PROC
EXTRN	?IntersectTriangle@@YAHAAUD3DXVECTOR3@@00ABU1@1PAU1@PAM@Z:PROC ; IntersectTriangle
EXTRN	??_ECModel@@UAEPAXI@Z:PROC			; CModel::`vector deleting destructor'
EXTRN	@__security_check_cookie@4:PROC
EXTRN	__libm_sse2_sqrt_precise:PROC
EXTRN	??_7type_info@@6B@:QWORD			; type_info::`vftable'
EXTRN	___security_cookie:DWORD
EXTRN	__fltused:DWORD
;	COMDAT __real@3f000000
CONST	SEGMENT
__real@3f000000 DD 03f000000r			; 0.5
CONST	ENDS
;	COMDAT __real@3dcccccd
CONST	SEGMENT
__real@3dcccccd DD 03dcccccdr			; 0.1
CONST	ENDS
;	COMDAT ?anIntexTable@?1??IntersectBB@CModel@@QAEHABUD3DXVECTOR3@@0ABUD3DXMATRIX@@PAU3@PAM@Z@4PAHA
_DATA	SEGMENT
?anIntexTable@?1??IntersectBB@CModel@@QAEHABUD3DXVECTOR3@@0ABUD3DXMATRIX@@PAU3@PAM@Z@4PAHA DD 00H ; `CModel::IntersectBB'::`2'::anIntexTable
	DD	01H
	DD	02H
	DD	00H
	DD	02H
	DD	03H
	DD	00H
	DD	04H
	DD	05H
	DD	00H
	DD	05H
	DD	01H
	DD	04H
	DD	05H
	DD	06H
	DD	04H
	DD	06H
	DD	07H
	DD	03H
	DD	02H
	DD	06H
	DD	03H
	DD	06H
	DD	07H
	DD	00H
	DD	03H
	DD	07H
	DD	00H
	DD	07H
	DD	04H
	DD	01H
	DD	02H
	DD	06H
	DD	01H
	DD	06H
	DD	05H
_DATA	ENDS
;	COMDAT ??_R1A@?0A@EA@CModel@@8
rdata$r	SEGMENT
??_R1A@?0A@EA@CModel@@8 DD FLAT:??_R0?AVCModel@@@8	; CModel::`RTTI Base Class Descriptor at (0,-1,0,64)'
	DD	00H
	DD	00H
	DD	0ffffffffH
	DD	00H
	DD	040H
	DD	FLAT:??_R3CModel@@8
rdata$r	ENDS
;	COMDAT ??_R2CModel@@8
rdata$r	SEGMENT
??_R2CModel@@8 DD FLAT:??_R1A@?0A@EA@CModel@@8		; CModel::`RTTI Base Class Array'
rdata$r	ENDS
;	COMDAT ??_R3CModel@@8
rdata$r	SEGMENT
??_R3CModel@@8 DD 00H					; CModel::`RTTI Class Hierarchy Descriptor'
	DD	00H
	DD	01H
	DD	FLAT:??_R2CModel@@8
rdata$r	ENDS
;	COMDAT ??_R0?AVCModel@@@8
data$rs	SEGMENT
??_R0?AVCModel@@@8 DD FLAT:??_7type_info@@6B@		; CModel `RTTI Type Descriptor'
	DD	00H
	DB	'.?AVCModel@@', 00H
data$rs	ENDS
;	COMDAT ??_R4CModel@@6B@
rdata$r	SEGMENT
??_R4CModel@@6B@ DD 00H					; CModel::`RTTI Complete Object Locator'
	DD	00H
	DD	00H
	DD	FLAT:??_R0?AVCModel@@@8
	DD	FLAT:??_R3CModel@@8
rdata$r	ENDS
;	COMDAT ??_7CModel@@6B@
CONST	SEGMENT
??_7CModel@@6B@ DD FLAT:??_R4CModel@@6B@		; CModel::`vftable'
	DD	FLAT:??_ECModel@@UAEPAXI@Z
	DD	FLAT:?LoadModel@CModel@@UAEHPBD@Z
	DD	FLAT:?SaveModel@CModel@@UAEHPBD@Z
	DD	FLAT:?ClearNormal@CModel@@UAEXXZ
	DD	FLAT:?AddFrame@CModel@@UAEXM@Z
	DD	FLAT:?SetFrame@CModel@@UAEXM@Z
	DD	FLAT:?IsLoadAttr@CModel@@UAEHXZ
	DD	FLAT:?GetMotionAttr@CModel@@UAEPAUMOTION_ATTR@@H@Z
	DD	FLAT:?GetAttr@CModel@@UAEKH@Z
	DD	FLAT:?IsAttrHit@CModel@@UAEKXZ
	DD	FLAT:?IsAttrHit@CModel@@UAEKM@Z
	DD	FLAT:?IsAttrSound@CModel@@UAEPAUMOTION_ATTR@@XZ
	DD	FLAT:?IsAttrSound@CModel@@UAEPAUMOTION_ATTR@@M@Z
	DD	FLAT:?IsAttrQuake@CModel@@UAEKXZ
	DD	FLAT:?IsAttrQuake@CModel@@UAEKM@Z
	DD	FLAT:?SetAttr@CModel@@UAEXMK@Z
	DD	FLAT:?ResetAttr@CModel@@UAEXHK@Z
	DD	FLAT:?SetGroup@CModel@@UAEXH@Z
	DD	FLAT:?IsHaveCollObj@CModel@@UAEHXZ
	DD	FLAT:?Render@CModel@@UAEHPAUIDirect3DDevice9@@PBUD3DXMATRIX@@@Z
	DD	FLAT:?RenderEffect@CModel@@UAEXPAUIDirect3DDevice9@@PBUD3DXMATRIX@@KKHH@Z
	DD	FLAT:?FrameMove@CModel@@UAEXPAUD3DXVECTOR3@@M@Z
	DD	FLAT:?InitDeviceObjects@CModel@@UAEJPAUIDirect3DDevice9@@@Z
	DD	FLAT:?RestoreDeviceObjects@CModel@@UAEJXZ
	DD	FLAT:?InvalidateDeviceObjects@CModel@@UAEJXZ
	DD	FLAT:?DeleteDeviceObjects@CModel@@UAEJXZ
	DD	FLAT:?Intersect@CModel@@UAEHABUD3DXVECTOR3@@0ABUD3DXMATRIX@@PAU2@PAMH@Z
	DD	FLAT:?IntersectRayTri@CModel@@UAEPAUD3DXVECTOR3@@ABU2@0ABUD3DXMATRIX@@PAU2@PAMH@Z
	DD	FLAT:?IsTouchOBB_Line@CModel@@UAEHABUD3DXVECTOR3@@0ABUD3DXMATRIX@@PAU2@H@Z
	DD	FLAT:?TestIntersectionOBB_Line@CModel@@UAEHABVSegment3@@PBVCObj@@H@Z
CONST	ENDS
; Function compile flags: /Ogtp
;	COMDAT ??_GCModel@@UAEPAXI@Z
_TEXT	SEGMENT
___flags$ = 8						; size = 4
??_GCModel@@UAEPAXI@Z PROC				; CModel::`scalar deleting destructor', COMDAT
; _this$ = ecx
  00000	55		 push	 ebp
  00001	8b ec		 mov	 ebp, esp
  00003	56		 push	 esi
  00004	8b f1		 mov	 esi, ecx
  00006	e8 00 00 00 00	 call	 ??1CModel@@UAE@XZ	; CModel::~CModel
  0000b	f6 45 08 01	 test	 BYTE PTR ___flags$[ebp], 1
  0000f	74 0e		 je	 SHORT $LN5@scalar
  00011	68 c0 00 00 00	 push	 192			; 000000c0H
  00016	56		 push	 esi
  00017	e8 00 00 00 00	 call	 ??3@YAXPAXI@Z		; operator delete
  0001c	83 c4 08	 add	 esp, 8
$LN5@scalar:
  0001f	8b c6		 mov	 eax, esi
  00021	5e		 pop	 esi
  00022	5d		 pop	 ebp
  00023	c2 04 00	 ret	 4
??_GCModel@@UAEPAXI@Z ENDP				; CModel::`scalar deleting destructor'
_TEXT	ENDS
; Function compile flags: /Ogtp
; File C:\IAGOS\server\v18\Source\Source\_Common\Model.h
;	COMDAT ?TestIntersectionOBB_Line@CModel@@UAEHABVSegment3@@PBVCObj@@H@Z
_TEXT	SEGMENT
_segment$ = 8						; size = 4
_pObj$ = 12						; size = 4
_bNeedCollObject$ = 16					; size = 4
?TestIntersectionOBB_Line@CModel@@UAEHABVSegment3@@PBVCObj@@H@Z PROC ; CModel::TestIntersectionOBB_Line, COMDAT
; _this$ = ecx

; 196  : 	virtual	BOOL	TestIntersectionOBB_Line( const Segment3& segment, const CObj* pObj, BOOL bNeedCollObject = TRUE ) { return FALSE;}

  00000	33 c0		 xor	 eax, eax
  00002	c2 0c 00	 ret	 12			; 0000000cH
?TestIntersectionOBB_Line@CModel@@UAEHABVSegment3@@PBVCObj@@H@Z ENDP ; CModel::TestIntersectionOBB_Line
_TEXT	ENDS
; Function compile flags: /Ogtp
; File C:\IAGOS\server\v18\Source\Source\_Common\Model.h
;	COMDAT ?IsTouchOBB_Line@CModel@@UAEHABUD3DXVECTOR3@@0ABUD3DXMATRIX@@PAU2@H@Z
_TEXT	SEGMENT
_vStart$ = 8						; size = 4
_vEnd$ = 12						; size = 4
_mWorld$ = 16						; size = 4
_pvIntersect$ = 20					; size = 4
_bNeedCollObject$ = 24					; size = 4
?IsTouchOBB_Line@CModel@@UAEHABUD3DXVECTOR3@@0ABUD3DXMATRIX@@PAU2@H@Z PROC ; CModel::IsTouchOBB_Line, COMDAT
; _this$ = ecx

; 195  : 	virtual	BOOL	IsTouchOBB_Line( const D3DXVECTOR3 &vStart, const D3DXVECTOR3 &vEnd, const D3DXMATRIX &mWorld, D3DXVECTOR3* pvIntersect, BOOL bNeedCollObject = TRUE ) { return FALSE;}

  00000	33 c0		 xor	 eax, eax
  00002	c2 14 00	 ret	 20			; 00000014H
?IsTouchOBB_Line@CModel@@UAEHABUD3DXVECTOR3@@0ABUD3DXMATRIX@@PAU2@H@Z ENDP ; CModel::IsTouchOBB_Line
_TEXT	ENDS
; Function compile flags: /Ogtp
; File C:\IAGOS\server\v18\Source\Source\_Common\Model.h
;	COMDAT ?IntersectRayTri@CModel@@UAEPAUD3DXVECTOR3@@ABU2@0ABUD3DXMATRIX@@PAU2@PAMH@Z
_TEXT	SEGMENT
_vRayOrig$ = 8						; size = 4
_vRayDir$ = 12						; size = 4
_mWorld$ = 16						; size = 4
_pvIntersect$ = 20					; size = 4
_pfDist$ = 24						; size = 4
_bColl$ = 28						; size = 4
?IntersectRayTri@CModel@@UAEPAUD3DXVECTOR3@@ABU2@0ABUD3DXMATRIX@@PAU2@PAMH@Z PROC ; CModel::IntersectRayTri, COMDAT
; _this$ = ecx

; 194  : 	virtual D3DXVECTOR3 *IntersectRayTri( const D3DXVECTOR3 &vRayOrig, const D3DXVECTOR3 &vRayDir, const D3DXMATRIX &mWorld, D3DXVECTOR3* pvIntersect, FLOAT* pfDist, BOOL bColl = FALSE ) { return NULL; }

  00000	33 c0		 xor	 eax, eax
  00002	c2 18 00	 ret	 24			; 00000018H
?IntersectRayTri@CModel@@UAEPAUD3DXVECTOR3@@ABU2@0ABUD3DXMATRIX@@PAU2@PAMH@Z ENDP ; CModel::IntersectRayTri
_TEXT	ENDS
; Function compile flags: /Ogtp
; File C:\IAGOS\server\v18\Source\Source\_Common\Model.h
;	COMDAT ?Intersect@CModel@@UAEHABUD3DXVECTOR3@@0ABUD3DXMATRIX@@PAU2@PAMH@Z
_TEXT	SEGMENT
_vRayOrig$ = 8						; size = 4
_vRayDir$ = 12						; size = 4
_mWorld$ = 16						; size = 4
_pvIntersect$ = 20					; size = 4
_pfDist$ = 24						; size = 4
_bColl$ = 28						; size = 4
?Intersect@CModel@@UAEHABUD3DXVECTOR3@@0ABUD3DXMATRIX@@PAU2@PAMH@Z PROC ; CModel::Intersect, COMDAT
; _this$ = ecx

; 193  : 	virtual BOOL	Intersect( const D3DXVECTOR3 &vRayOrig, const D3DXVECTOR3 &vRayDir, const D3DXMATRIX &mWorld, D3DXVECTOR3* pvIntersect, FLOAT* pfDist, BOOL bColl = FALSE ) { return FALSE; }

  00000	33 c0		 xor	 eax, eax
  00002	c2 18 00	 ret	 24			; 00000018H
?Intersect@CModel@@UAEHABUD3DXVECTOR3@@0ABUD3DXMATRIX@@PAU2@PAMH@Z ENDP ; CModel::Intersect
_TEXT	ENDS
; Function compile flags: /Ogtp
; File C:\IAGOS\server\v18\Source\Source\_Common\Model.cpp
;	COMDAT ?IntersectBB@CModel@@QAEHABUD3DXVECTOR3@@0ABUD3DXMATRIX@@PAU2@PAM@Z
_TEXT	SEGMENT
_vRayOrig$GSCopy$1$ = -56				; size = 4
_vRayDir$GSCopy$1$ = -52				; size = 4
_pvIntersect$GSCopy$1$ = -48				; size = 4
_pfDist$GSCopy$1$ = -44					; size = 4
_v1$ = -40						; size = 12
_v2$ = -28						; size = 12
_v3$ = -16						; size = 12
__$ArrayPad$ = -4					; size = 4
_vRayOrig$ = 8						; size = 4
_vRayDir$ = 12						; size = 4
_mWorld$ = 16						; size = 4
_pvIntersect$ = 20					; size = 4
_pfDist$ = 24						; size = 4
?IntersectBB@CModel@@QAEHABUD3DXVECTOR3@@0ABUD3DXMATRIX@@PAU2@PAM@Z PROC ; CModel::IntersectBB, COMDAT
; _this$ = ecx

; 105  : {

  00000	55		 push	 ebp
  00001	8b ec		 mov	 ebp, esp
  00003	83 ec 38	 sub	 esp, 56			; 00000038H
  00006	a1 00 00 00 00	 mov	 eax, DWORD PTR ___security_cookie
  0000b	33 c5		 xor	 eax, ebp
  0000d	89 45 fc	 mov	 DWORD PTR __$ArrayPad$[ebp], eax
  00010	8b 45 08	 mov	 eax, DWORD PTR _vRayOrig$[ebp]
  00013	89 45 c8	 mov	 DWORD PTR _vRayOrig$GSCopy$1$[ebp], eax
  00016	8b 45 0c	 mov	 eax, DWORD PTR _vRayDir$[ebp]
  00019	53		 push	 ebx
  0001a	89 45 cc	 mov	 DWORD PTR _vRayDir$GSCopy$1$[ebp], eax

; 106  : 	// Collect all intersections
; 107  : 	D3DXVECTOR3 v1, v2, v3;
; 108  : 	D3DXVECTOR4 vOut;
; 109  : 	D3DXVECTOR3 vPos;
; 110  : 
; 111  : 	//  3|2  
; 112  : 	//  -+-
; 113  : 	//	0|1
; 114  : 	//  
; 115  : 	//  7|6
; 116  : 	//  -+-
; 117  : 	//	4|5
; 118  : 
; 119  : 	static int anIntexTable[ 12 * 3 ] =
; 120  : 	{
; 121  : 		0, 1, 2,  0, 2, 3,
; 122  : 		0, 4, 5,  0, 5, 1,
; 123  : 		4, 5, 6,  4, 6, 7,
; 124  : 		3, 2, 6,  3, 6, 7,
; 125  : 		0, 3, 7,  0, 7, 4,
; 126  : 		1, 2, 6,  1, 6, 5
; 127  : 	};
; 128  : 	const BOUND_BOX* pBB = GetBBVector();

  0001d	8d 59 0c	 lea	 ebx, DWORD PTR [ecx+12]
  00020	8b 45 14	 mov	 eax, DWORD PTR _pvIntersect$[ebp]
  00023	56		 push	 esi
  00024	89 45 d0	 mov	 DWORD PTR _pvIntersect$GSCopy$1$[ebp], eax
  00027	be 04 00 00 00	 mov	 esi, OFFSET ?anIntexTable@?1??IntersectBB@CModel@@QAEHABUD3DXVECTOR3@@0ABUD3DXMATRIX@@PAU3@PAM@Z@4PAHA+4
  0002c	8b 45 18	 mov	 eax, DWORD PTR _pfDist$[ebp]
  0002f	57		 push	 edi
  00030	8b 7d 10	 mov	 edi, DWORD PTR _mWorld$[ebp]
  00033	89 45 d4	 mov	 DWORD PTR _pfDist$GSCopy$1$[ebp], eax
$LL4@IntersectB:

; 131  : 	{
; 132  : 		v1 = pBB->m_vPos[ anIntexTable[ i + 0 ] ];

  00036	8b 46 fc	 mov	 eax, DWORD PTR [esi-4]

; 133  : 		v2 = pBB->m_vPos[ anIntexTable[ i + 1 ] ];
; 134  : 		v3 = pBB->m_vPos[ anIntexTable[ i + 2 ] ];					
; 135  : 
; 136  : 		D3DXVec3TransformCoord( &v1, &v1, &mWorld ); 

  00039	57		 push	 edi
  0003a	8d 04 40	 lea	 eax, DWORD PTR [eax+eax*2]
  0003d	f3 0f 7e 04 83	 movq	 xmm0, QWORD PTR [ebx+eax*4]
  00042	66 0f d6 45 d8	 movq	 QWORD PTR _v1$[ebp], xmm0
  00047	8b 44 83 08	 mov	 eax, DWORD PTR [ebx+eax*4+8]
  0004b	89 45 e0	 mov	 DWORD PTR _v1$[ebp+8], eax
  0004e	8b 06		 mov	 eax, DWORD PTR [esi]
  00050	8d 04 40	 lea	 eax, DWORD PTR [eax+eax*2]
  00053	f3 0f 7e 04 83	 movq	 xmm0, QWORD PTR [ebx+eax*4]
  00058	66 0f d6 45 e4	 movq	 QWORD PTR _v2$[ebp], xmm0
  0005d	8b 44 83 08	 mov	 eax, DWORD PTR [ebx+eax*4+8]
  00061	89 45 ec	 mov	 DWORD PTR _v2$[ebp+8], eax
  00064	8b 46 04	 mov	 eax, DWORD PTR [esi+4]
  00067	8d 04 40	 lea	 eax, DWORD PTR [eax+eax*2]
  0006a	f3 0f 7e 04 83	 movq	 xmm0, QWORD PTR [ebx+eax*4]
  0006f	66 0f d6 45 f0	 movq	 QWORD PTR _v3$[ebp], xmm0
  00074	8b 44 83 08	 mov	 eax, DWORD PTR [ebx+eax*4+8]
  00078	89 45 f8	 mov	 DWORD PTR _v3$[ebp+8], eax
  0007b	8d 45 d8	 lea	 eax, DWORD PTR _v1$[ebp]
  0007e	50		 push	 eax
  0007f	50		 push	 eax
  00080	e8 00 00 00 00	 call	 _D3DXVec3TransformCoord@12

; 137  : 		D3DXVec3TransformCoord( &v2, &v2, &mWorld ); 

  00085	57		 push	 edi
  00086	8d 45 e4	 lea	 eax, DWORD PTR _v2$[ebp]
  00089	50		 push	 eax
  0008a	50		 push	 eax
  0008b	e8 00 00 00 00	 call	 _D3DXVec3TransformCoord@12

; 138  : 		D3DXVec3TransformCoord( &v3, &v3, &mWorld ); 

  00090	57		 push	 edi
  00091	8d 45 f0	 lea	 eax, DWORD PTR _v3$[ebp]
  00094	50		 push	 eax
  00095	50		 push	 eax
  00096	e8 00 00 00 00	 call	 _D3DXVec3TransformCoord@12

; 139  : 		
; 140  : 		if( IntersectTriangle( v1, v2, v3, vRayOrig, vRayDir, pvIntersect, pfDist ) ) 

  0009b	ff 75 d4	 push	 DWORD PTR _pfDist$GSCopy$1$[ebp]
  0009e	8d 45 f0	 lea	 eax, DWORD PTR _v3$[ebp]
  000a1	ff 75 d0	 push	 DWORD PTR _pvIntersect$GSCopy$1$[ebp]
  000a4	ff 75 cc	 push	 DWORD PTR _vRayDir$GSCopy$1$[ebp]
  000a7	ff 75 c8	 push	 DWORD PTR _vRayOrig$GSCopy$1$[ebp]
  000aa	50		 push	 eax
  000ab	8d 45 e4	 lea	 eax, DWORD PTR _v2$[ebp]
  000ae	50		 push	 eax
  000af	8d 45 d8	 lea	 eax, DWORD PTR _v1$[ebp]
  000b2	50		 push	 eax
  000b3	e8 00 00 00 00	 call	 ?IntersectTriangle@@YAHAAUD3DXVECTOR3@@00ABU1@1PAU1@PAM@Z ; IntersectTriangle
  000b8	83 c4 1c	 add	 esp, 28			; 0000001cH
  000bb	85 c0		 test	 eax, eax
  000bd	75 22		 jne	 SHORT $LN8@IntersectB

; 129  : 
; 130  : 	for( int i = 0; i < 12 * 3; i += 3 )

  000bf	83 c6 0c	 add	 esi, 12			; 0000000cH
  000c2	81 fe 94 00 00
	00		 cmp	 esi, OFFSET ?anIntexTable@?1??IntersectBB@CModel@@QAEHABUD3DXVECTOR3@@0ABUD3DXMATRIX@@PAU3@PAM@Z@4PAHA+148
  000c8	0f 8c 68 ff ff
	ff		 jl	 $LL4@IntersectB

; 141  : 			return TRUE;
; 142  : 	}
; 143  : 	return FALSE;
; 144  : }

  000ce	5f		 pop	 edi
  000cf	5e		 pop	 esi
  000d0	5b		 pop	 ebx
  000d1	8b 4d fc	 mov	 ecx, DWORD PTR __$ArrayPad$[ebp]
  000d4	33 cd		 xor	 ecx, ebp
  000d6	e8 00 00 00 00	 call	 @__security_check_cookie@4
  000db	8b e5		 mov	 esp, ebp
  000dd	5d		 pop	 ebp
  000de	c2 14 00	 ret	 20			; 00000014H
$LN8@IntersectB:
  000e1	8b 4d fc	 mov	 ecx, DWORD PTR __$ArrayPad$[ebp]
  000e4	b8 01 00 00 00	 mov	 eax, 1
  000e9	5f		 pop	 edi
  000ea	5e		 pop	 esi
  000eb	33 cd		 xor	 ecx, ebp
  000ed	5b		 pop	 ebx
  000ee	e8 00 00 00 00	 call	 @__security_check_cookie@4
  000f3	8b e5		 mov	 esp, ebp
  000f5	5d		 pop	 ebp
  000f6	c2 14 00	 ret	 20			; 00000014H
?IntersectBB@CModel@@QAEHABUD3DXVECTOR3@@0ABUD3DXMATRIX@@PAU2@PAM@Z ENDP ; CModel::IntersectBB
_TEXT	ENDS
; Function compile flags: /Ogtp
; File C:\IAGOS\server\v18\Source\Source\_Common\Model.h
;	COMDAT ?DeleteDeviceObjects@CModel@@UAEJXZ
_TEXT	SEGMENT
?DeleteDeviceObjects@CModel@@UAEJXZ PROC		; CModel::DeleteDeviceObjects, COMDAT
; _this$ = ecx

; 189  : 	virtual HRESULT DeleteDeviceObjects() { return S_OK; }

  00000	33 c0		 xor	 eax, eax
  00002	c3		 ret	 0
?DeleteDeviceObjects@CModel@@UAEJXZ ENDP		; CModel::DeleteDeviceObjects
_TEXT	ENDS
; Function compile flags: /Ogtp
; File C:\IAGOS\server\v18\Source\Source\_Common\Model.h
;	COMDAT ?InvalidateDeviceObjects@CModel@@UAEJXZ
_TEXT	SEGMENT
?InvalidateDeviceObjects@CModel@@UAEJXZ PROC		; CModel::InvalidateDeviceObjects, COMDAT
; _this$ = ecx

; 188  : 	virtual HRESULT InvalidateDeviceObjects() { return S_OK; }

  00000	33 c0		 xor	 eax, eax
  00002	c3		 ret	 0
?InvalidateDeviceObjects@CModel@@UAEJXZ ENDP		; CModel::InvalidateDeviceObjects
_TEXT	ENDS
; Function compile flags: /Ogtp
; File C:\IAGOS\server\v18\Source\Source\_Common\Model.h
;	COMDAT ?RestoreDeviceObjects@CModel@@UAEJXZ
_TEXT	SEGMENT
?RestoreDeviceObjects@CModel@@UAEJXZ PROC		; CModel::RestoreDeviceObjects, COMDAT
; _this$ = ecx

; 187  : 	virtual HRESULT RestoreDeviceObjects() { return S_OK; }

  00000	33 c0		 xor	 eax, eax
  00002	c3		 ret	 0
?RestoreDeviceObjects@CModel@@UAEJXZ ENDP		; CModel::RestoreDeviceObjects
_TEXT	ENDS
; Function compile flags: /Ogtp
; File C:\IAGOS\server\v18\Source\Source\_Common\Model.h
;	COMDAT ?InitDeviceObjects@CModel@@UAEJPAUIDirect3DDevice9@@@Z
_TEXT	SEGMENT
_pd3dDevice$ = 8					; size = 4
?InitDeviceObjects@CModel@@UAEJPAUIDirect3DDevice9@@@Z PROC ; CModel::InitDeviceObjects, COMDAT
; _this$ = ecx

; 186  : 	virtual HRESULT InitDeviceObjects( LPDIRECT3DDEVICE9 pd3dDevice ) { m_pd3dDevice = pd3dDevice; return S_OK; }

  00000	55		 push	 ebp
  00001	8b ec		 mov	 ebp, esp
  00003	8b 45 08	 mov	 eax, DWORD PTR _pd3dDevice$[ebp]
  00006	89 41 04	 mov	 DWORD PTR [ecx+4], eax
  00009	33 c0		 xor	 eax, eax
  0000b	5d		 pop	 ebp
  0000c	c2 04 00	 ret	 4
?InitDeviceObjects@CModel@@UAEJPAUIDirect3DDevice9@@@Z ENDP ; CModel::InitDeviceObjects
_TEXT	ENDS
; Function compile flags: /Ogtp
; File C:\IAGOS\server\v18\Source\Source\_Common\Model.cpp
;	COMDAT ?FrameMove@CModel@@UAEXPAUD3DXVECTOR3@@M@Z
_TEXT	SEGMENT
_pvSndPos$ = 8						; size = 4
_fSpeed$ = 12						; size = 4
?FrameMove@CModel@@UAEXPAUD3DXVECTOR3@@M@Z PROC		; CModel::FrameMove, COMDAT
; _this$ = ecx

; 14   : {

  00000	55		 push	 ebp
  00001	8b ec		 mov	 ebp, esp

; 15   : 	if( m_nPause )		

  00003	83 b9 94 00 00
	00 00		 cmp	 DWORD PTR [ecx+148], 0
  0000a	0f 85 c9 00 00
	00		 jne	 $LN1@FrameMove

; 16   : 		return;
; 17   : 	if( m_nFrameMax == 0 )	

  00010	56		 push	 esi
  00011	8b b1 a8 00 00
	00		 mov	 esi, DWORD PTR [ecx+168]
  00017	85 f6		 test	 esi, esi
  00019	0f 84 b9 00 00
	00		 je	 $LN19@FrameMove

; 18   : 		return;		// ÇÁ·ąŔÓŔĚ ľř´Â°Ç µąÇĘżä ľř´Ů.
; 19   : 
; 20   : 	int		nCurrFrame;
; 21   : 	// ş¸°ŁŔ» Ŕ§ÇŃ Slerp °č»ę.
; 22   : 
; 23   : 	m_fFrameOld = m_fFrameCurrent;			// ąŮ·Î ŔĚŔü ÇÁ·ąŔÓ ąřČŁ¸¦ ąŢľĆµŇ.

  0001f	f3 0f 10 91 a0
	00 00 00	 movss	 xmm2, DWORD PTR [ecx+160]

; 24   : 
; 25   : 	if( m_fFrameOld > (float)(m_nFrameMax - 1) )

  00027	8d 46 ff	 lea	 eax, DWORD PTR [esi-1]
  0002a	66 0f 6e d8	 movd	 xmm3, eax
  0002e	0f 5b db	 cvtdq2ps xmm3, xmm3
  00031	f3 0f 11 91 a4
	00 00 00	 movss	 DWORD PTR [ecx+164], xmm2
  00039	0f 2f d3	 comiss	 xmm2, xmm3
  0003c	76 16		 jbe	 SHORT $LN4@FrameMove

; 26   : 		m_fFrameOld -= (float)m_nFrameMax;

  0003e	66 0f 6e c6	 movd	 xmm0, esi
  00042	0f 28 ca	 movaps	 xmm1, xmm2
  00045	0f 5b c0	 cvtdq2ps xmm0, xmm0
  00048	f3 0f 5c c8	 subss	 xmm1, xmm0
  0004c	f3 0f 11 89 a4
	00 00 00	 movss	 DWORD PTR [ecx+164], xmm1
$LN4@FrameMove:

; 27   : 
; 28   : 	if( m_bSlow )

  00054	83 b9 98 00 00
	00 00		 cmp	 DWORD PTR [ecx+152], 0
  0005b	74 0a		 je	 SHORT $LN5@FrameMove

; 29   : 		m_fFrameCurrent += 0.1f;			// ľÖ´Ď¸ŢŔĚĽÇ ÁřÇŕ

  0005d	f3 0f 10 05 00
	00 00 00	 movss	 xmm0, DWORD PTR __real@3dcccccd
  00065	eb 0d		 jmp	 SHORT $LN6@FrameMove
$LN5@FrameMove:

; 30   : 	else
; 31   : 		m_fFrameCurrent += (m_fPerSlerp * fSpeed);			// ľÖ´Ď¸ŢŔĚĽÇ ÁřÇŕ

  00067	f3 0f 10 45 0c	 movss	 xmm0, DWORD PTR _fSpeed$[ebp]
  0006c	f3 0f 59 81 ac
	00 00 00	 mulss	 xmm0, DWORD PTR [ecx+172]
$LN6@FrameMove:

; 32   : 
; 33   : 
; 34   : 	nCurrFrame = (int)m_fFrameCurrent;				// ĽŇĽýÁˇ ¶Ľł»°í Á¤ĽöşÎ¸¸..
; 35   : 	m_fSlp = m_fFrameCurrent - (float)nCurrFrame;	// ĽŇĽýÁˇ şÎşĐ¸¸ °ˇÁ®żČ
; 36   : 
; 37   : 	if( m_nLoop & ANILOOP_LOOP )		// ·çÇÎ¸đµĺŔĎ¶§

  00074	f6 81 b4 00 00
	00 04		 test	 BYTE PTR [ecx+180], 4
  0007b	f3 0f 58 d0	 addss	 xmm2, xmm0
  0007f	f3 0f 2c d2	 cvttss2si edx, xmm2
  00083	0f 28 ca	 movaps	 xmm1, xmm2
  00086	66 0f 6e c2	 movd	 xmm0, edx
  0008a	0f 5b c0	 cvtdq2ps xmm0, xmm0
  0008d	f3 0f 5c c8	 subss	 xmm1, xmm0
  00091	f3 0f 11 89 b0
	00 00 00	 movss	 DWORD PTR [ecx+176], xmm1
  00099	74 0c		 je	 SHORT $LN7@FrameMove

; 38   : 	{
; 39   : 		if( m_fFrameCurrent > (float)(m_nFrameMax - 1) )

  0009b	0f 2f d3	 comiss	 xmm2, xmm3
  0009e	76 25		 jbe	 SHORT $LN10@FrameMove

; 40   : 		{
; 41   : 			m_bEndFrame = TRUE;
; 42   : 			nCurrFrame %= m_nFrameMax;		// ĂłŔ˝Ŕ¸·Î µÇµą¸˛

  000a0	8b c2		 mov	 eax, edx
  000a2	99		 cdq
  000a3	f7 fe		 idiv	 esi

; 43   : 		}
; 44   : 	} 

  000a5	eb 14		 jmp	 SHORT $LN20@FrameMove
$LN7@FrameMove:

; 45   : 	else		// ·çÇÎ¸đµĺ°ˇ ľĆ´Ď¶ó¸é ¸¶Áö¸· ÇÁ·ąŔÓżˇĽ­ ¸ŘĂá´Ů.
; 46   : 	{
; 47   : 		if( m_fFrameCurrent > (float)(m_nFrameMax - 1) )

  000a7	0f 2f d3	 comiss	 xmm2, xmm3
  000aa	76 19		 jbe	 SHORT $LN10@FrameMove

; 48   : 		{
; 49   : 			m_bEndFrame = TRUE;
; 50   : 			m_fSlp = 0.0f;

  000ac	0f 57 c9	 xorps	 xmm1, xmm1
  000af	c7 81 b0 00 00
	00 00 00 00 00	 mov	 DWORD PTR [ecx+176], 0

; 51   : 			nCurrFrame = m_nFrameMax - 1;

  000b9	8b d0		 mov	 edx, eax
$LN20@FrameMove:

; 52   : 		}
; 53   : 	}
; 54   : 	m_fFrameCurrent = (float)nCurrFrame + m_fSlp;	// ĆíŔÇ»ó ˝Ă°˘ŔűŔ¸·Î ş¸±â ˝±µµ·Ď ĽöÄˇ ş¸Á¤

  000bb	c7 81 9c 00 00
	00 01 00 00 00	 mov	 DWORD PTR [ecx+156], 1
$LN10@FrameMove:
  000c5	66 0f 6e c2	 movd	 xmm0, edx
  000c9	0f 5b c0	 cvtdq2ps xmm0, xmm0
  000cc	f3 0f 58 c1	 addss	 xmm0, xmm1
  000d0	f3 0f 11 81 a0
	00 00 00	 movss	 DWORD PTR [ecx+160], xmm0
$LN19@FrameMove:
  000d8	5e		 pop	 esi
$LN1@FrameMove:

; 55   : }

  000d9	5d		 pop	 ebp
  000da	c2 08 00	 ret	 8
?FrameMove@CModel@@UAEXPAUD3DXVECTOR3@@M@Z ENDP		; CModel::FrameMove
_TEXT	ENDS
; Function compile flags: /Ogtp
; File C:\IAGOS\server\v18\Source\Source\_Common\Model.h
;	COMDAT ?RenderEffect@CModel@@UAEXPAUIDirect3DDevice9@@PBUD3DXMATRIX@@KKHH@Z
_TEXT	SEGMENT
_pd3dDevice$ = 8					; size = 4
_pmWorld$ = 12						; size = 4
_dwItemKind3$ = 16					; size = 4
_dwItemKind3Right$ = 20					; size = 4
_nLevelL$ = 24						; size = 4
_nLeveR$ = 28						; size = 4
?RenderEffect@CModel@@UAEXPAUIDirect3DDevice9@@PBUD3DXMATRIX@@KKHH@Z PROC ; CModel::RenderEffect, COMDAT
; _this$ = ecx

; 180  : 	virtual void	RenderEffect( LPDIRECT3DDEVICE9 pd3dDevice, const D3DXMATRIX* pmWorld = NULL, DWORD dwItemKind3 = NULL_ID, DWORD dwItemKind3Right = NULL_ID, int nLevelL = 0, int nLeveR = 0) {}	

  00000	c2 18 00	 ret	 24			; 00000018H
?RenderEffect@CModel@@UAEXPAUIDirect3DDevice9@@PBUD3DXMATRIX@@KKHH@Z ENDP ; CModel::RenderEffect
_TEXT	ENDS
; Function compile flags: /Ogtp
; File C:\IAGOS\server\v18\Source\Source\_Common\Model.cpp
;	COMDAT ?Render@CModel@@UAEHPAUIDirect3DDevice9@@PBUD3DXMATRIX@@@Z
_TEXT	SEGMENT
_pd3dDevice$ = 8					; size = 4
_pmWorld$ = 12						; size = 4
?Render@CModel@@UAEHPAUIDirect3DDevice9@@PBUD3DXMATRIX@@@Z PROC ; CModel::Render, COMDAT
; _this$ = ecx

; 65   : 	return TRUE;

  00000	b8 01 00 00 00	 mov	 eax, 1

; 66   : }

  00005	c2 08 00	 ret	 8
?Render@CModel@@UAEHPAUIDirect3DDevice9@@PBUD3DXMATRIX@@@Z ENDP ; CModel::Render
_TEXT	ENDS
; Function compile flags: /Ogtp
; File C:\IAGOS\server\v18\Source\Source\_Common\Model.h
;	COMDAT ?IsHaveCollObj@CModel@@UAEHXZ
_TEXT	SEGMENT
?IsHaveCollObj@CModel@@UAEHXZ PROC			; CModel::IsHaveCollObj, COMDAT
; _this$ = ecx

; 175  : 	virtual int		IsHaveCollObj( void ) { return 0; }

  00000	33 c0		 xor	 eax, eax
  00002	c3		 ret	 0
?IsHaveCollObj@CModel@@UAEHXZ ENDP			; CModel::IsHaveCollObj
_TEXT	ENDS
; Function compile flags: /Ogtp
; File C:\IAGOS\server\v18\Source\Source\_Common\Model.h
;	COMDAT ?SetGroup@CModel@@UAEXH@Z
_TEXT	SEGMENT
_nNum$ = 8						; size = 4
?SetGroup@CModel@@UAEXH@Z PROC				; CModel::SetGroup, COMDAT
; _this$ = ecx

; 174  : 	virtual	void	SetGroup( int nNum ) {}		// Set LOD Group

  00000	c2 04 00	 ret	 4
?SetGroup@CModel@@UAEXH@Z ENDP				; CModel::SetGroup
_TEXT	ENDS
; Function compile flags: /Ogtp
; File C:\IAGOS\server\v18\Source\Source\_Common\Model.h
;	COMDAT ?ResetAttr@CModel@@UAEXHK@Z
_TEXT	SEGMENT
_nNumFrm$ = 8						; size = 4
_dwAttr$ = 12						; size = 4
?ResetAttr@CModel@@UAEXHK@Z PROC			; CModel::ResetAttr, COMDAT
; _this$ = ecx

; 173  : 	virtual void	ResetAttr( int nNumFrm, DWORD dwAttr ) {}

  00000	c2 08 00	 ret	 8
?ResetAttr@CModel@@UAEXHK@Z ENDP			; CModel::ResetAttr
_TEXT	ENDS
; Function compile flags: /Ogtp
; File C:\IAGOS\server\v18\Source\Source\_Common\Model.h
;	COMDAT ?SetAttr@CModel@@UAEXMK@Z
_TEXT	SEGMENT
_fNumFrm$ = 8						; size = 4
_dwAttr$ = 12						; size = 4
?SetAttr@CModel@@UAEXMK@Z PROC				; CModel::SetAttr, COMDAT
; _this$ = ecx

; 172  : 	virtual void	SetAttr( float fNumFrm, DWORD dwAttr ) {}

  00000	c2 08 00	 ret	 8
?SetAttr@CModel@@UAEXMK@Z ENDP				; CModel::SetAttr
_TEXT	ENDS
; Function compile flags: /Ogtp
; File C:\IAGOS\server\v18\Source\Source\_Common\Model.h
;	COMDAT ?IsAttrQuake@CModel@@UAEKXZ
_TEXT	SEGMENT
?IsAttrQuake@CModel@@UAEKXZ PROC			; CModel::IsAttrQuake, COMDAT
; _this$ = ecx

; 171  : 	virtual DWORD	IsAttrQuake( void ) { return 0; }

  00000	33 c0		 xor	 eax, eax
  00002	c3		 ret	 0
?IsAttrQuake@CModel@@UAEKXZ ENDP			; CModel::IsAttrQuake
_TEXT	ENDS
; Function compile flags: /Ogtp
; File C:\IAGOS\server\v18\Source\Source\_Common\Model.h
;	COMDAT ?IsAttrQuake@CModel@@UAEKM@Z
_TEXT	SEGMENT
_fNumFrm$ = 8						; size = 4
?IsAttrQuake@CModel@@UAEKM@Z PROC			; CModel::IsAttrQuake, COMDAT
; _this$ = ecx

; 170  : 	virtual DWORD	IsAttrQuake( float fNumFrm ) { return 0; }

  00000	33 c0		 xor	 eax, eax
  00002	c2 04 00	 ret	 4
?IsAttrQuake@CModel@@UAEKM@Z ENDP			; CModel::IsAttrQuake
_TEXT	ENDS
; Function compile flags: /Ogtp
; File C:\IAGOS\server\v18\Source\Source\_Common\Model.h
;	COMDAT ?IsAttrSound@CModel@@UAEPAUMOTION_ATTR@@XZ
_TEXT	SEGMENT
?IsAttrSound@CModel@@UAEPAUMOTION_ATTR@@XZ PROC		; CModel::IsAttrSound, COMDAT
; _this$ = ecx

; 169  : 	virtual MOTION_ATTR *IsAttrSound( void ) { return 0; }

  00000	33 c0		 xor	 eax, eax
  00002	c3		 ret	 0
?IsAttrSound@CModel@@UAEPAUMOTION_ATTR@@XZ ENDP		; CModel::IsAttrSound
_TEXT	ENDS
; Function compile flags: /Ogtp
; File C:\IAGOS\server\v18\Source\Source\_Common\Model.h
;	COMDAT ?IsAttrSound@CModel@@UAEPAUMOTION_ATTR@@M@Z
_TEXT	SEGMENT
_fNumFrm$ = 8						; size = 4
?IsAttrSound@CModel@@UAEPAUMOTION_ATTR@@M@Z PROC	; CModel::IsAttrSound, COMDAT
; _this$ = ecx

; 168  : 	virtual MOTION_ATTR *IsAttrSound( float fNumFrm ) { return NULL; }

  00000	33 c0		 xor	 eax, eax
  00002	c2 04 00	 ret	 4
?IsAttrSound@CModel@@UAEPAUMOTION_ATTR@@M@Z ENDP	; CModel::IsAttrSound
_TEXT	ENDS
; Function compile flags: /Ogtp
; File C:\IAGOS\server\v18\Source\Source\_Common\Model.h
;	COMDAT ?IsAttrHit@CModel@@UAEKXZ
_TEXT	SEGMENT
?IsAttrHit@CModel@@UAEKXZ PROC				; CModel::IsAttrHit, COMDAT
; _this$ = ecx

; 167  : 	virtual DWORD	IsAttrHit( void ) { return 0; }

  00000	33 c0		 xor	 eax, eax
  00002	c3		 ret	 0
?IsAttrHit@CModel@@UAEKXZ ENDP				; CModel::IsAttrHit
_TEXT	ENDS
; Function compile flags: /Ogtp
; File C:\IAGOS\server\v18\Source\Source\_Common\Model.h
;	COMDAT ?IsAttrHit@CModel@@UAEKM@Z
_TEXT	SEGMENT
_fNumFrm$ = 8						; size = 4
?IsAttrHit@CModel@@UAEKM@Z PROC				; CModel::IsAttrHit, COMDAT
; _this$ = ecx

; 166  : 	virtual DWORD	IsAttrHit( float fNumFrm ) { return 0; }

  00000	33 c0		 xor	 eax, eax
  00002	c2 04 00	 ret	 4
?IsAttrHit@CModel@@UAEKM@Z ENDP				; CModel::IsAttrHit
_TEXT	ENDS
; Function compile flags: /Ogtp
; File C:\IAGOS\server\v18\Source\Source\_Common\Model.h
;	COMDAT ?GetAttr@CModel@@UAEKH@Z
_TEXT	SEGMENT
_nNumFrm$ = 8						; size = 4
?GetAttr@CModel@@UAEKH@Z PROC				; CModel::GetAttr, COMDAT
; _this$ = ecx

; 165  : 	virtual DWORD	GetAttr( int nNumFrm ) { return 0; }

  00000	33 c0		 xor	 eax, eax
  00002	c2 04 00	 ret	 4
?GetAttr@CModel@@UAEKH@Z ENDP				; CModel::GetAttr
_TEXT	ENDS
; Function compile flags: /Ogtp
; File C:\IAGOS\server\v18\Source\Source\_Common\Model.h
;	COMDAT ?GetMotionAttr@CModel@@UAEPAUMOTION_ATTR@@H@Z
_TEXT	SEGMENT
_nNumFrm$ = 8						; size = 4
?GetMotionAttr@CModel@@UAEPAUMOTION_ATTR@@H@Z PROC	; CModel::GetMotionAttr, COMDAT
; _this$ = ecx

; 164  : 	virtual MOTION_ATTR *GetMotionAttr( int nNumFrm ) { return NULL; }

  00000	33 c0		 xor	 eax, eax
  00002	c2 04 00	 ret	 4
?GetMotionAttr@CModel@@UAEPAUMOTION_ATTR@@H@Z ENDP	; CModel::GetMotionAttr
_TEXT	ENDS
; Function compile flags: /Ogtp
; File C:\IAGOS\server\v18\Source\Source\_Common\Model.h
;	COMDAT ?IsLoadAttr@CModel@@UAEHXZ
_TEXT	SEGMENT
?IsLoadAttr@CModel@@UAEHXZ PROC				; CModel::IsLoadAttr, COMDAT
; _this$ = ecx

; 163  : 	virtual BOOL	IsLoadAttr( void ) { return FALSE; }

  00000	33 c0		 xor	 eax, eax
  00002	c3		 ret	 0
?IsLoadAttr@CModel@@UAEHXZ ENDP				; CModel::IsLoadAttr
_TEXT	ENDS
; Function compile flags: /Ogtp
; File C:\IAGOS\server\v18\Source\Source\_Common\Model.cpp
;	COMDAT ?SetFrame@CModel@@UAEXM@Z
_TEXT	SEGMENT
_fFrame$ = 8						; size = 4
?SetFrame@CModel@@UAEXM@Z PROC				; CModel::SetFrame, COMDAT
; _this$ = ecx

; 62   : }

  00000	c2 04 00	 ret	 4
?SetFrame@CModel@@UAEXM@Z ENDP				; CModel::SetFrame
_TEXT	ENDS
; Function compile flags: /Ogtp
; File C:\IAGOS\server\v18\Source\Source\_Common\Model.cpp
;	COMDAT ?AddFrame@CModel@@UAEXM@Z
_TEXT	SEGMENT
_fAddFrame$ = 8						; size = 4
?AddFrame@CModel@@UAEXM@Z PROC				; CModel::AddFrame, COMDAT
; _this$ = ecx

; 59   : }

  00000	c2 04 00	 ret	 4
?AddFrame@CModel@@UAEXM@Z ENDP				; CModel::AddFrame
_TEXT	ENDS
; Function compile flags: /Ogtp
; File C:\IAGOS\server\v18\Source\Source\_Common\Model.h
;	COMDAT ?ClearNormal@CModel@@UAEXXZ
_TEXT	SEGMENT
?ClearNormal@CModel@@UAEXXZ PROC			; CModel::ClearNormal, COMDAT
; _this$ = ecx

; 157  : 	virtual void	ClearNormal( void ) {}		// ¸đµç łë¸»Ŕ» ĂĘ±âČ­˝ĂĹ˛´Ů.

  00000	c2 00 00	 ret	 0
?ClearNormal@CModel@@UAEXXZ ENDP			; CModel::ClearNormal
_TEXT	ENDS
; Function compile flags: /Ogtp
; File C:\IAGOS\server\v18\Source\Source\_Common\Model.h
;	COMDAT ?SaveModel@CModel@@UAEHPBD@Z
_TEXT	SEGMENT
_szFileName$ = 8					; size = 4
?SaveModel@CModel@@UAEHPBD@Z PROC			; CModel::SaveModel, COMDAT
; _this$ = ecx

; 156  : 	virtual int		SaveModel( LPCTSTR szFileName ) { return 1; }

  00000	b8 01 00 00 00	 mov	 eax, 1
  00005	c2 04 00	 ret	 4
?SaveModel@CModel@@UAEHPBD@Z ENDP			; CModel::SaveModel
_TEXT	ENDS
; Function compile flags: /Ogtp
; File C:\IAGOS\server\v18\Source\Source\_Common\Model.h
;	COMDAT ?LoadModel@CModel@@UAEHPBD@Z
_TEXT	SEGMENT
_szFileName$ = 8					; size = 4
?LoadModel@CModel@@UAEHPBD@Z PROC			; CModel::LoadModel, COMDAT
; _this$ = ecx

; 155  : 	virtual int		LoadModel( LPCTSTR szFileName ) { return 1; }

  00000	b8 01 00 00 00	 mov	 eax, 1
  00005	c2 04 00	 ret	 4
?LoadModel@CModel@@UAEHPBD@Z ENDP			; CModel::LoadModel
_TEXT	ENDS
; Function compile flags: /Ogtp
; File C:\IAGOS\server\v18\Source\Source\_Common\Model.cpp
;	COMDAT ?GetNextFrame@CModel@@QAEHXZ
_TEXT	SEGMENT
?GetNextFrame@CModel@@QAEHXZ PROC			; CModel::GetNextFrame, COMDAT
; _this$ = ecx

; 79   : 	int		nCurrFrm = (int)m_fFrameCurrent;

  00000	f3 0f 2c 81 a0
	00 00 00	 cvttss2si eax, DWORD PTR [ecx+160]

; 80   : 	int		nNextFrm;
; 81   : 
; 82   : 	nNextFrm = nCurrFrm + 1;
; 83   : 	if( nNextFrm >= m_nFrameMax )		

  00008	8b 91 a8 00 00
	00		 mov	 edx, DWORD PTR [ecx+168]
  0000e	40		 inc	 eax
  0000f	3b c2		 cmp	 eax, edx
  00011	7c 0f		 jl	 SHORT $LN4@GetNextFra

; 84   : 	{
; 85   : 		if( m_nLoop & ANILOOP_LOOP )	

  00013	f6 81 b4 00 00
	00 04		 test	 BYTE PTR [ecx+180], 4
  0001a	74 03		 je	 SHORT $LN3@GetNextFra

; 89   : 	}
; 90   : 
; 91   : 	return nNextFrm;

  0001c	33 c0		 xor	 eax, eax

; 92   : }

  0001e	c3		 ret	 0
$LN3@GetNextFra:

; 86   : 			nNextFrm = 0;			// ·çÇÎľÖ´Ď¸ŢŔĚĽÇŔĚ¸é ĂłŔ˝ÇÁ·ąŔÓ°ú ż¬°áµÉĽö ŔÖµµ·Ď ÇŃ´Ů.
; 87   : 		else													
; 88   : 			nNextFrm = m_nFrameMax - 1;		// ľĆ´Ď¸é ¸¶Áö¸· ÇÁ·ąŔÓżˇĽ­ ¸ŘĂá´Ů

  0001f	8d 42 ff	 lea	 eax, DWORD PTR [edx-1]
$LN4@GetNextFra:

; 92   : }

  00022	c3		 ret	 0
?GetNextFrame@CModel@@QAEHXZ ENDP			; CModel::GetNextFrame
_TEXT	ENDS
; Function compile flags: /Ogtp
; File C:\IAGOS\server\v18\Source\Source\_Common\Model.cpp
; File C:\IAGOS\server\v18\Source\Source\DX_SDK\d3dx9math.inl
; File C:\IAGOS\server\v18\Source\Source\_Common\Model.cpp
; File C:\IAGOS\server\v18\Source\Source\DX_SDK\d3dx9math.inl
; File C:\Program Files (x86)\Windows Kits\10\Include\10.0.26100.0\ucrt\corecrt_math.h
; File C:\IAGOS\server\v18\Source\Source\_Common\Model.cpp
;	COMDAT ?GetRadius@CModel@@QAEMXZ
_TEXT	SEGMENT
tv288 = -4						; size = 4
?GetRadius@CModel@@QAEMXZ PROC				; CModel::GetRadius, COMDAT
; _this$ = ecx

; 98   : {

  00000	55		 push	 ebp
  00001	8b ec		 mov	 ebp, esp
  00003	83 e4 f8	 and	 esp, -8			; fffffff8H
; File C:\IAGOS\server\v18\Source\Source\DX_SDK\d3dx9math.inl

; 383  :     return D3DXVECTOR3(x - v.x, y - v.y, z - v.z);

  00006	f3 0f 10 89 84
	00 00 00	 movss	 xmm1, DWORD PTR [ecx+132]
; File C:\IAGOS\server\v18\Source\Source\_Common\Model.cpp

; 98   : {

  0000e	83 ec 08	 sub	 esp, 8
; File C:\IAGOS\server\v18\Source\Source\DX_SDK\d3dx9math.inl

; 383  :     return D3DXVECTOR3(x - v.x, y - v.y, z - v.z);

  00011	f3 0f 10 91 88
	00 00 00	 movss	 xmm2, DWORD PTR [ecx+136]
  00019	f3 0f 5c 51 7c	 subss	 xmm2, DWORD PTR [ecx+124]
  0001e	f3 0f 5c 49 78	 subss	 xmm1, DWORD PTR [ecx+120]
  00023	f3 0f 10 81 8c
	00 00 00	 movss	 xmm0, DWORD PTR [ecx+140]
  0002b	f3 0f 5c 81 80
	00 00 00	 subss	 xmm0, DWORD PTR [ecx+128]

; 302  :     z = fz;

  00033	f3 0f 59 d2	 mulss	 xmm2, xmm2

; 1684 :     return sqrtf(pV->x * pV->x + pV->y * pV->y + pV->z * pV->z);

  00037	f3 0f 59 c9	 mulss	 xmm1, xmm1
  0003b	f3 0f 59 c0	 mulss	 xmm0, xmm0
  0003f	f3 0f 58 d1	 addss	 xmm2, xmm1
  00043	0f 57 c9	 xorps	 xmm1, xmm1
  00046	f3 0f 58 d0	 addss	 xmm2, xmm0
; File C:\Program Files (x86)\Windows Kits\10\Include\10.0.26100.0\ucrt\corecrt_math.h

; 799  :             return (float)sqrt(_X);

  0004a	0f 5a c2	 cvtps2pd xmm0, xmm2
  0004d	66 0f 2e c8	 ucomisd xmm1, xmm0
  00051	77 06		 ja	 SHORT $LN11@GetRadius
  00053	f2 0f 51 c0	 sqrtsd	 xmm0, xmm0
  00057	eb 05		 jmp	 SHORT $LN12@GetRadius
$LN11@GetRadius:
  00059	e8 00 00 00 00	 call	 __libm_sse2_sqrt_precise
$LN12@GetRadius:
  0005e	f2 0f 5a c0	 cvtsd2ss xmm0, xmm0
; File C:\IAGOS\server\v18\Source\Source\_Common\Model.cpp

; 101  : 	return fLen / 2.0f;

  00062	f3 0f 59 05 00
	00 00 00	 mulss	 xmm0, DWORD PTR __real@3f000000
  0006a	f3 0f 11 44 24
	04		 movss	 DWORD PTR tv288[esp+8], xmm0
  00070	d9 44 24 04	 fld	 DWORD PTR tv288[esp+8]

; 102  : }

  00074	8b e5		 mov	 esp, ebp
  00076	5d		 pop	 ebp
  00077	c3		 ret	 0
?GetRadius@CModel@@QAEMXZ ENDP				; CModel::GetRadius
_TEXT	ENDS
; Function compile flags: /Ogtp
; File C:\IAGOS\server\v18\Source\Source\_Common\Model.cpp
;	COMDAT ?IsAniable@CModel@@QAEHXZ
_TEXT	SEGMENT
?IsAniable@CModel@@QAEHXZ PROC				; CModel::IsAniable, COMDAT
; _this$ = ecx

; 69   : 	if( m_nModelType == MODELTYPE_MESH || m_nModelType == MODELTYPE_BILLBOARD ) 

  00000	8b 49 08	 mov	 ecx, DWORD PTR [ecx+8]
  00003	33 c0		 xor	 eax, eax
  00005	83 f9 01	 cmp	 ecx, 1
  00008	74 06		 je	 SHORT $LN1@IsAniable
  0000a	83 f9 03	 cmp	 ecx, 3
  0000d	0f 95 c0	 setne	 al
$LN1@IsAniable:

; 70   : 		return FALSE;
; 71   : 	return TRUE;
; 72   : }

  00010	c3		 ret	 0
?IsAniable@CModel@@QAEHXZ ENDP				; CModel::IsAniable
_TEXT	ENDS
; Function compile flags: /Ogtp
; File C:\IAGOS\server\v18\Source\Source\_Common\Model.cpp
;	COMDAT ??1CModel@@UAE@XZ
_TEXT	SEGMENT
??1CModel@@UAE@XZ PROC					; CModel::~CModel, COMDAT
; _this$ = ecx

; 7    : {

  00000	c7 01 00 00 00
	00		 mov	 DWORD PTR [ecx], OFFSET ??_7CModel@@6B@

; 8    : //	SAFE_DELETE( m_pBillboard );
; 9    : 	DeleteDeviceObjects();
; 10   : }

  00006	c3		 ret	 0
??1CModel@@UAE@XZ ENDP					; CModel::~CModel
_TEXT	ENDS
; Function compile flags: /Ogtp
; File C:\IAGOS\server\v18\Source\Source\DX_SDK\d3dx9math.h
;	COMDAT ??0D3DXVECTOR3@@QAE@XZ
_TEXT	SEGMENT
??0D3DXVECTOR3@@QAE@XZ PROC				; D3DXVECTOR3::D3DXVECTOR3, COMDAT
; _this$ = ecx

; 165  :     D3DXVECTOR3() {};

  00000	8b c1		 mov	 eax, ecx
  00002	c3		 ret	 0
??0D3DXVECTOR3@@QAE@XZ ENDP				; D3DXVECTOR3::D3DXVECTOR3
_TEXT	ENDS
; Function compile flags: /Ogtp
; File C:\IAGOS\server\v18\Source\Source\_Common\Model.cpp
;	COMDAT ?__empty_global_delete@@YAXPAXI@Z
_TEXT	SEGMENT
___formal$ = 8						; size = 4
___formal$ = 12						; size = 4
?__empty_global_delete@@YAXPAXI@Z PROC			; __empty_global_delete, COMDAT

  00000	c2 00 00	 ret	 0
?__empty_global_delete@@YAXPAXI@Z ENDP			; __empty_global_delete
_TEXT	ENDS
; Function compile flags: /Ogtp
; File C:\IAGOS\server\v18\Source\Source\_Common\Model.cpp
;	COMDAT ?__empty_global_delete@@YAXPAX@Z
_TEXT	SEGMENT
___formal$ = 8						; size = 4
?__empty_global_delete@@YAXPAX@Z PROC			; __empty_global_delete, COMDAT

  00000	c2 00 00	 ret	 0
?__empty_global_delete@@YAXPAX@Z ENDP			; __empty_global_delete
_TEXT	ENDS
END
