; Listing generated by Microsoft (R) Optimizing Compiler Version 19.44.35225.0 

	TITLE	C:\IAGOS\server\v18\Source\Output\WorldServer\Release\modelobject.obj
	.686P
	.XMM
	include listing.inc
	.model	flat

INCLUDELIB LIBCMT
INCLUDELIB OLDNAMES

PUBLIC	?g_szLastFile@@3PADA				; g_szLastFile
PUBLIC	?g_bUsableVS@@3HA				; g_bUsableVS
PUBLIC	?g_dwUsablePS_Level@@3KA			; g_dwUsablePS_Level
_BSS	SEGMENT
?g_szLastFile@@3PADA DB 0200H DUP (?)			; g_szLastFile
?g_dwUsablePS_Level@@3KA DD 01H DUP (?)			; g_dwUsablePS_Level
_BSS	ENDS
_DATA	SEGMENT
?g_bUsableVS@@3HA DD 01H				; g_bUsableVS
_DATA	ENDS
PUBLIC	??_H@YGXPAXIIP6EPAX0@Z@Z			; `vector constructor iterator'
PUBLIC	?__empty_global_delete@@YAXPAX@Z		; __empty_global_delete
PUBLIC	?__empty_global_delete@@YAXPAXI@Z		; __empty_global_delete
PUBLIC	___local_stdio_printf_options
PUBLIC	?AtlThrowImpl@ATL@@YGXJ@Z			; ATL::AtlThrowImpl
PUBLIC	??1?$CSimpleStringT@D$0A@@ATL@@QAE@XZ		; ATL::CSimpleStringT<char,0>::~CSimpleStringT<char,0>
PUBLIC	?SetString@?$CSimpleStringT@D$0A@@ATL@@QAEXPBDH@Z ; ATL::CSimpleStringT<char,0>::SetString
PUBLIC	?ThrowMemoryException@?$CSimpleStringT@D$0A@@ATL@@KAXXZ ; ATL::CSimpleStringT<char,0>::ThrowMemoryException
PUBLIC	?Fork@?$CSimpleStringT@D$0A@@ATL@@AAEXH@Z	; ATL::CSimpleStringT<char,0>::Fork
PUBLIC	?PrepareWrite2@?$CSimpleStringT@D$0A@@ATL@@AAEXH@Z ; ATL::CSimpleStringT<char,0>::PrepareWrite2
PUBLIC	?Reallocate@?$CSimpleStringT@D$0A@@ATL@@AAEXH@Z	; ATL::CSimpleStringT<char,0>::Reallocate
PUBLIC	??1?$CStringT@DV?$StrTraitMFC@DV?$ChTraitsCRT@D@ATL@@@@@ATL@@QAE@XZ ; ATL::CStringT<char,StrTraitMFC<char,ATL::ChTraitsCRT<char> > >::~CStringT<char,StrTraitMFC<char,ATL::ChTraitsCRT<char> > >
PUBLIC	?Format@?$CStringT@DV?$StrTraitMFC@DV?$ChTraitsCRT@D@ATL@@@@@ATL@@QAAXPBDZZ ; ATL::CStringT<char,StrTraitMFC<char,ATL::ChTraitsCRT<char> > >::Format
PUBLIC	?FormatV@?$CStringT@DV?$StrTraitMFC@DV?$ChTraitsCRT@D@ATL@@@@@ATL@@QAEXPBDPAD@Z ; ATL::CStringT<char,StrTraitMFC<char,ATL::ChTraitsCRT<char> > >::FormatV
PUBLIC	?LoadStringA@?$CStringT@DV?$StrTraitMFC@DV?$ChTraitsCRT@D@ATL@@@@@ATL@@QAEHI@Z ; ATL::CStringT<char,StrTraitMFC<char,ATL::ChTraitsCRT<char> > >::LoadStringA
PUBLIC	??0D3DXVECTOR3@@QAE@XZ				; D3DXVECTOR3::D3DXVECTOR3
PUBLIC	??0D3DXMATRIX@@QAE@XZ				; D3DXMATRIX::D3DXMATRIX
PUBLIC	?InitAnimate@CModel@@QAEXXZ			; CModel::InitAnimate
PUBLIC	?LoadModel@CModel@@UAEHPBD@Z			; CModel::LoadModel
PUBLIC	?SaveModel@CModel@@UAEHPBD@Z			; CModel::SaveModel
PUBLIC	?ClearNormal@CModel@@UAEXXZ			; CModel::ClearNormal
PUBLIC	?IsLoadAttr@CModel@@UAEHXZ			; CModel::IsLoadAttr
PUBLIC	?GetMotionAttr@CModel@@UAEPAUMOTION_ATTR@@H@Z	; CModel::GetMotionAttr
PUBLIC	?GetAttr@CModel@@UAEKH@Z			; CModel::GetAttr
PUBLIC	?IsAttrHit@CModel@@UAEKM@Z			; CModel::IsAttrHit
PUBLIC	?IsAttrHit@CModel@@UAEKXZ			; CModel::IsAttrHit
PUBLIC	?IsAttrSound@CModel@@UAEPAUMOTION_ATTR@@M@Z	; CModel::IsAttrSound
PUBLIC	?IsAttrSound@CModel@@UAEPAUMOTION_ATTR@@XZ	; CModel::IsAttrSound
PUBLIC	?IsAttrQuake@CModel@@UAEKM@Z			; CModel::IsAttrQuake
PUBLIC	?IsAttrQuake@CModel@@UAEKXZ			; CModel::IsAttrQuake
PUBLIC	?SetAttr@CModel@@UAEXMK@Z			; CModel::SetAttr
PUBLIC	?ResetAttr@CModel@@UAEXHK@Z			; CModel::ResetAttr
PUBLIC	?SetGroup@CModel@@UAEXH@Z			; CModel::SetGroup
PUBLIC	?IsHaveCollObj@CModel@@UAEHXZ			; CModel::IsHaveCollObj
PUBLIC	?RenderEffect@CModel@@UAEXPAUIDirect3DDevice9@@PBUD3DXMATRIX@@KKHH@Z ; CModel::RenderEffect
PUBLIC	?InitDeviceObjects@CModel@@UAEJPAUIDirect3DDevice9@@@Z ; CModel::InitDeviceObjects
PUBLIC	?RestoreDeviceObjects@CModel@@UAEJXZ		; CModel::RestoreDeviceObjects
PUBLIC	?InvalidateDeviceObjects@CModel@@UAEJXZ		; CModel::InvalidateDeviceObjects
PUBLIC	?DeleteDeviceObjects@CModel@@UAEJXZ		; CModel::DeleteDeviceObjects
PUBLIC	?Intersect@CModel@@UAEHABUD3DXVECTOR3@@0ABUD3DXMATRIX@@PAU2@PAMH@Z ; CModel::Intersect
PUBLIC	?IntersectRayTri@CModel@@UAEPAUD3DXVECTOR3@@ABU2@0ABUD3DXMATRIX@@PAU2@PAMH@Z ; CModel::IntersectRayTri
PUBLIC	?IsTouchOBB_Line@CModel@@UAEHABUD3DXVECTOR3@@0ABUD3DXMATRIX@@PAU2@H@Z ; CModel::IsTouchOBB_Line
PUBLIC	?TestIntersectionOBB_Line@CModel@@UAEHABVSegment3@@PBVCObj@@H@Z ; CModel::TestIntersectionOBB_Line
PUBLIC	??_GCModel@@UAEPAXI@Z				; CModel::`scalar deleting destructor'
PUBLIC	?Add@CSwordForce@@QAEXUD3DXVECTOR3@@0@Z		; CSwordForce::Add
PUBLIC	?Process@CSwordForce@@QAEXXZ			; CSwordForce::Process
PUBLIC	?Draw@CSwordForce@@QAEXPAUIDirect3DDevice9@@PBUD3DXMATRIX@@@Z ; CSwordForce::Draw
PUBLIC	?MakeSpline@CSwordForce@@QAEXXZ			; CSwordForce::MakeSpline
PUBLIC	??0O3D_ELEMENT@@QAE@XZ				; O3D_ELEMENT::O3D_ELEMENT
PUBLIC	?Init@CModelObject@@AAEXH@Z			; CModelObject::Init
PUBLIC	?Init@CModelObject@@AAEXXZ			; CModelObject::Init
PUBLIC	?Destroy@CModelObject@@AAEXXZ			; CModelObject::Destroy
PUBLIC	?Destroy@CModelObject@@AAEHH@Z			; CModelObject::Destroy
PUBLIC	??0CModelObject@@QAE@XZ				; CModelObject::CModelObject
PUBLIC	??1CModelObject@@UAE@XZ				; CModelObject::~CModelObject
PUBLIC	?CreateForce@CModelObject@@QAEXH@Z		; CModelObject::CreateForce
PUBLIC	?GetMotionFileName@CModelObject@@QBE?AV?$CStringT@DV?$StrTraitMFC@DV?$ChTraitsCRT@D@ATL@@@@@ATL@@ABV23@@Z ; CModelObject::GetMotionFileName
PUBLIC	?GetForcePos@CModelObject@@QAEXPAUD3DXVECTOR3@@HHABUD3DXMATRIX@@@Z ; CModelObject::GetForcePos
PUBLIC	?GetForcePos@CModelObject@@QAEXPAUD3DXVECTOR3@@HHABUD3DXMATRIX@@M@Z ; CModelObject::GetForcePos
PUBLIC	?GetHandPos@CModelObject@@QAEXPAUD3DXVECTOR3@@HABUD3DXMATRIX@@@Z ; CModelObject::GetHandPos
PUBLIC	?MovePart@CModelObject@@QAEHHH@Z		; CModelObject::MovePart
PUBLIC	?SetMotionBlending@CModelObject@@QAEXH@Z	; CModelObject::SetMotionBlending
PUBLIC	?TakeOffParts@CModelObject@@QAEXH@Z		; CModelObject::TakeOffParts
PUBLIC	?SetGroup@CModelObject@@UAEXH@Z			; CModelObject::SetGroup
PUBLIC	?IsLoadAttr@CModelObject@@UAEHXZ		; CModelObject::IsLoadAttr
PUBLIC	?GetMotionAttr@CModelObject@@UAEPAUMOTION_ATTR@@H@Z ; CModelObject::GetMotionAttr
PUBLIC	?IsAttrHit@CModelObject@@UAEKXZ			; CModelObject::IsAttrHit
PUBLIC	?IsAttrHit@CModelObject@@UAEKM@Z		; CModelObject::IsAttrHit
PUBLIC	?IsAttrSound@CModelObject@@UAEPAUMOTION_ATTR@@XZ ; CModelObject::IsAttrSound
PUBLIC	?IsAttrSound@CModelObject@@UAEPAUMOTION_ATTR@@M@Z ; CModelObject::IsAttrSound
PUBLIC	?IsAttrQuake@CModelObject@@UAEKM@Z		; CModelObject::IsAttrQuake
PUBLIC	?IsAttrQuake@CModelObject@@UAEKXZ		; CModelObject::IsAttrQuake
PUBLIC	?SetAttr@CModelObject@@UAEXMK@Z			; CModelObject::SetAttr
PUBLIC	?IsHaveCollObj@CModelObject@@UAEHXZ		; CModelObject::IsHaveCollObj
PUBLIC	?LoadBone@CModelObject@@QAEHPBD@Z		; CModelObject::LoadBone
PUBLIC	?LoadMotion@CModelObject@@QAEHPBD@Z		; CModelObject::LoadMotion
PUBLIC	?LoadElement@CModelObject@@QAEHPBDH@Z		; CModelObject::LoadElement
PUBLIC	?SetParent@CModelObject@@QAEXHH@Z		; CModelObject::SetParent
PUBLIC	?SetTextureMulti@CModelObject@@QAEXPBDH@Z	; CModelObject::SetTextureMulti
PUBLIC	?ClearTextureEx@CModelObject@@QAEXH@Z		; CModelObject::ClearTextureEx
PUBLIC	?ChangeTexture@CModelObject@@QAEXHPBD0@Z	; CModelObject::ChangeTexture
PUBLIC	?CreateParticle@CModelObject@@QAEXHPBUD3DXMATRIX@@HHH@Z ; CModelObject::CreateParticle
PUBLIC	?RenderItemElec@CModelObject@@QAEXHPBUD3DXMATRIX@@H@Z ; CModelObject::RenderItemElec
PUBLIC	?RenderItemElec_Adv@CModelObject@@QAEXHPBUD3DXMATRIX@@H@Z ; CModelObject::RenderItemElec_Adv
PUBLIC	?CreateWeaponEffect@CModelObject@@QAEXHKPBUD3DXMATRIX@@HHH@Z ; CModelObject::CreateWeaponEffect
PUBLIC	?MakeSWDForce@CModelObject@@QAEXHKHKM@Z		; CModelObject::MakeSWDForce
PUBLIC	?FrameMove@CModelObject@@UAEXPAUD3DXVECTOR3@@M@Z ; CModelObject::FrameMove
PUBLIC	?Intersect@CModelObject@@UAEHABUD3DXVECTOR3@@0ABUD3DXMATRIX@@PAU2@PAMH@Z ; CModelObject::Intersect
PUBLIC	?IntersectRayTri@CModelObject@@UAEPAUD3DXVECTOR3@@ABU2@0ABUD3DXMATRIX@@PAU2@PAMH@Z ; CModelObject::IntersectRayTri
PUBLIC	?IsTouchOBB_Line@CModelObject@@UAEHABUD3DXVECTOR3@@0ABUD3DXMATRIX@@PAU2@H@Z ; CModelObject::IsTouchOBB_Line
PUBLIC	?TestIntersectionOBB_Line@CModelObject@@UAEHABVSegment3@@PBVCObj@@H@Z ; CModelObject::TestIntersectionOBB_Line
PUBLIC	?LoadModel@CModelObject@@UAEHPBD@Z		; CModelObject::LoadModel
PUBLIC	?InitDeviceObjects@CModelObject@@UAEJPAUIDirect3DDevice9@@@Z ; CModelObject::InitDeviceObjects
PUBLIC	?RestoreDeviceObjects@CModelObject@@UAEJXZ	; CModelObject::RestoreDeviceObjects
PUBLIC	?InvalidateDeviceObjects@CModelObject@@UAEJXZ	; CModelObject::InvalidateDeviceObjects
PUBLIC	?DeleteDeviceObjects@CModelObject@@UAEJXZ	; CModelObject::DeleteDeviceObjects
PUBLIC	??_GCModelObject@@UAEPAXI@Z			; CModelObject::`scalar deleting destructor'
PUBLIC	?SplineSlerp@@YA?AUD3DXVECTOR3@@PAU1@000M@Z	; SplineSlerp
PUBLIC	?_OptionsStorage@?1??__local_stdio_printf_options@@9@4_KA ; `__local_stdio_printf_options'::`2'::_OptionsStorage
PUBLIC	??_7CModel@@6B@					; CModel::`vftable'
PUBLIC	??_C@_0BD@IOHNFIBA@SetLOD?5?3?5lv?$DN?$CFd?0?5?$CFs@ ; `string'
PUBLIC	??_7CModelObject@@6B@				; CModelObject::`vftable'
PUBLIC	??_C@_0BB@FADAHOKP@SetGroup?5?3?5lv?$DN?$CFd@	; `string'
PUBLIC	??_C@_0CC@LLPKIFJI@IsAttrSound?5?3?5pMotion?$DN?$DNNULL?5?$CFd?5@ ; `string'
PUBLIC	??_R4CModel@@6B@				; CModel::`RTTI Complete Object Locator'
PUBLIC	??_R0?AVCModel@@@8				; CModel `RTTI Type Descriptor'
PUBLIC	??_R3CModel@@8					; CModel::`RTTI Class Hierarchy Descriptor'
PUBLIC	??_R2CModel@@8					; CModel::`RTTI Base Class Array'
PUBLIC	??_R1A@?0A@EA@CModel@@8				; CModel::`RTTI Base Class Descriptor at (0,-1,0,64)'
PUBLIC	??_C@_0N@BBDKLDAA@?$CFs_?$CFs_?$CFs?4ani@	; `string'
PUBLIC	??_C@_0BE@ODMCHIHJ@obj_g_clovers02?4o3d@	; `string'
PUBLIC	??_C@_0BK@LAMMKEEK@obj_guildcombatground?4o3d@	; `string'
PUBLIC	??_C@_0BH@LFCMIHMN@obj_kalgasbridge01?4o3d@	; `string'
PUBLIC	??_C@_0BH@DDLIPFGD@obj_kalgasbridge02?4o3d@	; `string'
PUBLIC	??_C@_0BF@MGJNDMK@obj_kalgasrock01?4o3d@	; `string'
PUBLIC	??_C@_0BF@IKPNKBGE@obj_kalgasrock02?4o3d@	; `string'
PUBLIC	??_C@_0BJ@EEJJLPAL@obj_kalgasrockwall01?4o3d@	; `string'
PUBLIC	??_C@_0BJ@MCANMNKF@obj_kalgasrockwall02?4o3d@	; `string'
PUBLIC	??_C@_0BI@FCHJCCLF@obj_kalgasbossstone?4o3d@	; `string'
PUBLIC	??_C@_0BL@ODOLEIJN@obj_kalgasbossstone_01?4o3d@	; `string'
PUBLIC	??_C@_0BI@BAHKIKAF@obj_kalgasceiling01?4o3d@	; `string'
PUBLIC	??_C@_0BI@JGOOPIKL@obj_kalgasceiling02?4o3d@	; `string'
PUBLIC	??_C@_0BE@IKKKKMMO@obj_kalgasent01?4o3d@	; `string'
PUBLIC	??_C@_0BK@BJCBGEEP@obj_kalgasekinsrock01?4o3d@	; `string'
PUBLIC	??_C@_0BK@JPLFBGOB@obj_kalgasekinsrock02?4o3d@	; `string'
PUBLIC	??_C@_0BK@FEOJMFEE@obj_kalgasekinsrock03?4o3d@	; `string'
PUBLIC	??_C@_0BK@EJOMPFPM@obj_kalgasekinsrock04?4o3d@	; `string'
PUBLIC	??_C@_0BJ@JKEIOLEK@obj_kalgasekinrock01?4o3d@	; `string'
PUBLIC	??_C@_0BJ@BMNMJJOE@obj_kalgasekinrock02?4o3d@	; `string'
PUBLIC	??_C@_0BI@KCDKKCIE@obj_kalgasekinent01?4o3d@	; `string'
PUBLIC	??_C@_0BF@FPIBCGAC@obj_kalgasekin01?4o3d@	; `string'
PUBLIC	??_C@_0BF@MEBBCKOG@obj_newflchair01?4o3d@	; `string'
PUBLIC	??_C@_0BF@KLABAHNE@obj_newfllight01?4o3d@	; `string'
PUBLIC	??_C@_0BJ@NGIGFJFL@obj_kalgasbossufloor?4o3d@	; `string'
PUBLIC	??_C@_0BI@DMECLBOH@obj_kalgasbossfloor?4o3d@	; `string'
PUBLIC	??_C@_0BI@NIJPCONK@obj_behebossfloor01?4o3d@	; `string'
PUBLIC	??_C@_0BI@FOALFMHE@obj_behebossfloor02?4o3d@	; `string'
PUBLIC	??_C@_0BK@OFIFJFKM@obj_behecirclefloor01?4o3d@	; `string'
PUBLIC	??_C@_0CJ@HDCFKCHE@CModelObject?3?3TakeOffParts?5?3?5nP@ ; `string'
PUBLIC	??_C@_0DJ@MLDPDDGA@CModelObject?3?3LoadBone?5?$DL?5?$MA?L?$LJ?L?5?$LK@ ; `string'
PUBLIC	??_C@_0BC@DADEMEMC@?$CFs?5?3?5?C?$KD?$MA?$LL?5?$LM?v?5?$LO?x?$MA?$LN@ ; `string'
PUBLIC	??_C@_0CE@NAJOOAFP@?$CFs?5?3?5?$LK?$LL?$MA?$LL?5?$LH?N?$LF?y?G?O?A?v?5?$LO?J?$LA?m?5?$LI?p?$LM?G?$MA?$LL?5@ ; `string'
PUBLIC	??_C@_0DO@MJIKBIFN@CModelObject?3?3LoadElement?5?9?5?$CFs?5@ ; `string'
PUBLIC	??_C@_0DN@MMEBGEII@CModelObject?3?3MovePart?5?3?5m_Elem@ ; `string'
PUBLIC	??_C@_0DK@DELLAMDK@CModelObject?3?3LoadElement?5?3?5nPa@ ; `string'
PUBLIC	??_C@_06IJGEHPBH@Model?2@			; `string'
PUBLIC	??_C@_0DE@IHGMJNKM@CModelObject?3?3LoadElement?$LP?$KB?$LM?$KN?5?F@ ; `string'
PUBLIC	??_C@_0FD@CBFMNCCC@CModelObject?3?3LoadElement?5?9?5?$CFs?$MA@ ; `string'
PUBLIC	??_C@_0DM@KIFEJOGG@CModelObject?3?3LoadElement?3?5?$CFs?5p@ ; `string'
PUBLIC	??_C@_0BL@ENCDCJBI@?$CFs?5LoadElement?5?3?5nTotal?$DN?$CFd@ ; `string'
PUBLIC	??_C@_0BL@HHHJNEMN@SWDForceAdd?5?3?5?$LJ?$PM?$MA?$KH?5?C?J?$LA?z?5?$CFd@ ; `string'
PUBLIC	??_C@_0CC@FIJGMPIN@SWDForceAdd?5Spline?5?3?5?$LJ?$PM?$MA?$KH?5?C?J?$LA?z?5@ ; `string'
PUBLIC	??_R4CModelObject@@6B@				; CModelObject::`RTTI Complete Object Locator'
PUBLIC	??_R0?AVCModelObject@@@8			; CModelObject `RTTI Type Descriptor'
PUBLIC	??_R3CModelObject@@8				; CModelObject::`RTTI Class Hierarchy Descriptor'
PUBLIC	??_R2CModelObject@@8				; CModelObject::`RTTI Base Class Array'
PUBLIC	??_R1A@?0A@EA@CModelObject@@8			; CModelObject::`RTTI Base Class Descriptor at (0,-1,0,64)'
PUBLIC	__real@3f000000
PUBLIC	__real@3f800000
PUBLIC	__real@40400000
PUBLIC	__real@447a0000
EXTRN	??3@YAXPAXI@Z:PROC				; operator delete
EXTRN	??_U@YAPAXI@Z:PROC				; operator new[]
EXTRN	??_V@YAXPAX@Z:PROC				; operator delete[]
EXTRN	__invalid_parameter_noinfo:PROC
EXTRN	__errno:PROC
EXTRN	__imp__LoadResource@8:PROC
EXTRN	__imp__LockResource@4:PROC
EXTRN	__imp__SizeofResource@8:PROC
EXTRN	__imp__FindResourceW@12:PROC
EXTRN	__imp__WideCharToMultiByte@32:PROC
EXTRN	___stdio_common_vsprintf:PROC
EXTRN	___stdio_common_vsprintf_s:PROC
EXTRN	?AfxThrowMemoryException@@YGXXZ:PROC		; AfxThrowMemoryException
EXTRN	?AfxThrowOleException@@YGXJ@Z:PROC		; AfxThrowOleException
EXTRN	?AfxFindStringResourceHandle@@YGPAUHINSTANCE__@@I@Z:PROC ; AfxFindStringResourceHandle
EXTRN	?AfxGetStringManager@@YGPAUIAtlStringMgr@ATL@@XZ:PROC ; AfxGetStringManager
EXTRN	_D3DXVec3TransformCoord@12:PROC
EXTRN	_D3DXMatrixMultiply@12:PROC
EXTRN	_D3DXMatrixScaling@16:PROC
EXTRN	?MakePath@@YA?AV?$CStringT@DV?$StrTraitMFC@DV?$ChTraitsCRT@D@ATL@@@@@ATL@@PBD0@Z:PROC ; MakePath
EXTRN	?Error@@YAPBDPBDZZ:PROC				; Error
EXTRN	?SetBB@@YAXPAUD3DXVECTOR3@@ABU1@1@Z:PROC	; SetBB
EXTRN	?IsTouchOBB_Line@@YAHABUD3DXVECTOR3@@0ABUD3DXMATRIX@@00PAU1@@Z:PROC ; IsTouchOBB_Line
EXTRN	?IntrSegment3Box3_Test@@YA_NABVSegment3@@ABVBBOX@@@Z:PROC ; IntrSegment3Box3_Test
EXTRN	?LoadBone@CBonesMng@@QAEPAVCBones@@PBD@Z:PROC	; CBonesMng::LoadBone
EXTRN	?LoadMotion@CMotionMng@@QAEPAVCMotion@@PBD@Z:PROC ; CMotionMng::LoadMotion
EXTRN	??1CModel@@UAE@XZ:PROC				; CModel::~CModel
EXTRN	?AddFrame@CModel@@UAEXM@Z:PROC			; CModel::AddFrame
EXTRN	?SetFrame@CModel@@UAEXM@Z:PROC			; CModel::SetFrame
EXTRN	?Render@CModel@@UAEHPAUIDirect3DDevice9@@PBUD3DXMATRIX@@@Z:PROC ; CModel::Render
EXTRN	?FrameMove@CModel@@UAEXPAUD3DXVECTOR3@@M@Z:PROC	; CModel::FrameMove
EXTRN	??_ECModel@@UAEPAXI@Z:PROC			; CModel::`vector deleting destructor'
EXTRN	?IntersectRayTri@CObject3D@@QAEPAUD3DXVECTOR3@@ABU2@0ABUD3DXMATRIX@@PAU2@PAMH@Z:PROC ; CObject3D::IntersectRayTri
EXTRN	?RestoreDeviceObjects@CObject3D@@QAEJPAPAUIDirect3DVertexBuffer9@@W4_D3DPOOL@@@Z:PROC ; CObject3D::RestoreDeviceObjects
EXTRN	?DeleteObject3D@CObject3DMng@@QAEHPAVCObject3D@@@Z:PROC ; CObject3DMng::DeleteObject3D
EXTRN	?LoadObject3D@CObject3DMng@@QAEPAVCObject3D@@PAUIDirect3DDevice9@@PBD@Z:PROC ; CObject3DMng::LoadObject3D
EXTRN	??_ECModelObject@@UAEPAXI@Z:PROC		; CModelObject::`vector deleting destructor'
EXTRN	@__security_check_cookie@4:PROC
EXTRN	___CxxFrameHandler3:PROC
EXTRN	_memcpy:PROC
EXTRN	_memmove:PROC
EXTRN	_memset:PROC
EXTRN	??_7type_info@@6B@:QWORD			; type_info::`vftable'
EXTRN	?g_BonesMng@@3VCBonesMng@@A:QWORD		; g_BonesMng
EXTRN	?g_MotionMng@@3VCMotionMng@@A:QWORD		; g_MotionMng
EXTRN	?g_Object3DMng@@3VCObject3DMng@@A:QWORD		; g_Object3DMng
EXTRN	___security_cookie:DWORD
EXTRN	__fltused:DWORD
;	COMDAT ?_OptionsStorage@?1??__local_stdio_printf_options@@9@4_KA
_BSS	SEGMENT
?_OptionsStorage@?1??__local_stdio_printf_options@@9@4_KA DQ 01H DUP (?) ; `__local_stdio_printf_options'::`2'::_OptionsStorage
_BSS	ENDS
;	COMDAT __real@447a0000
CONST	SEGMENT
__real@447a0000 DD 0447a0000r			; 1000
CONST	ENDS
;	COMDAT __real@40400000
CONST	SEGMENT
__real@40400000 DD 040400000r			; 3
CONST	ENDS
;	COMDAT __real@3f800000
CONST	SEGMENT
__real@3f800000 DD 03f800000r			; 1
CONST	ENDS
;	COMDAT __real@3f000000
CONST	SEGMENT
__real@3f000000 DD 03f000000r			; 0.5
CONST	ENDS
;	COMDAT ??_R1A@?0A@EA@CModelObject@@8
rdata$r	SEGMENT
??_R1A@?0A@EA@CModelObject@@8 DD FLAT:??_R0?AVCModelObject@@@8 ; CModelObject::`RTTI Base Class Descriptor at (0,-1,0,64)'
	DD	01H
	DD	00H
	DD	0ffffffffH
	DD	00H
	DD	040H
	DD	FLAT:??_R3CModelObject@@8
rdata$r	ENDS
;	COMDAT ??_R2CModelObject@@8
rdata$r	SEGMENT
??_R2CModelObject@@8 DD FLAT:??_R1A@?0A@EA@CModelObject@@8 ; CModelObject::`RTTI Base Class Array'
	DD	FLAT:??_R1A@?0A@EA@CModel@@8
rdata$r	ENDS
;	COMDAT ??_R3CModelObject@@8
rdata$r	SEGMENT
??_R3CModelObject@@8 DD 00H				; CModelObject::`RTTI Class Hierarchy Descriptor'
	DD	00H
	DD	02H
	DD	FLAT:??_R2CModelObject@@8
rdata$r	ENDS
;	COMDAT ??_R0?AVCModelObject@@@8
data$rs	SEGMENT
??_R0?AVCModelObject@@@8 DD FLAT:??_7type_info@@6B@	; CModelObject `RTTI Type Descriptor'
	DD	00H
	DB	'.?AVCModelObject@@', 00H
data$rs	ENDS
;	COMDAT ??_R4CModelObject@@6B@
rdata$r	SEGMENT
??_R4CModelObject@@6B@ DD 00H				; CModelObject::`RTTI Complete Object Locator'
	DD	00H
	DD	00H
	DD	FLAT:??_R0?AVCModelObject@@@8
	DD	FLAT:??_R3CModelObject@@8
rdata$r	ENDS
;	COMDAT ??_C@_0CC@FIJGMPIN@SWDForceAdd?5Spline?5?3?5?$LJ?$PM?$MA?$KH?5?C?J?$LA?z?5@
CONST	SEGMENT
??_C@_0CC@FIJGMPIN@SWDForceAdd?5Spline?5?3?5?$LJ?$PM?$MA?$KH?5?C?J?$LA?z?5@ DB 'S'
	DB	'WDForceAdd Spline : ', 0b9H, 0fcH, 0c0H, 0a7H, ' ', 0c3H, 0caH
	DB	0b0H, 0faH, ' %d', 00H			; `string'
CONST	ENDS
;	COMDAT ??_C@_0BL@HHHJNEMN@SWDForceAdd?5?3?5?$LJ?$PM?$MA?$KH?5?C?J?$LA?z?5?$CFd@
CONST	SEGMENT
??_C@_0BL@HHHJNEMN@SWDForceAdd?5?3?5?$LJ?$PM?$MA?$KH?5?C?J?$LA?z?5?$CFd@ DB 'S'
	DB	'WDForceAdd : ', 0b9H, 0fcH, 0c0H, 0a7H, ' ', 0c3H, 0caH, 0b0H
	DB	0faH, ' %d', 00H				; `string'
CONST	ENDS
;	COMDAT ??_C@_0BL@ENCDCJBI@?$CFs?5LoadElement?5?3?5nTotal?$DN?$CFd@
CONST	SEGMENT
??_C@_0BL@ENCDCJBI@?$CFs?5LoadElement?5?3?5nTotal?$DN?$CFd@ DB '%s LoadEl'
	DB	'ement : nTotal=%d', 00H			; `string'
CONST	ENDS
;	COMDAT ??_C@_0DM@KIFEJOGG@CModelObject?3?3LoadElement?3?5?$CFs?5p@
CONST	SEGMENT
??_C@_0DM@KIFEJOGG@CModelObject?3?3LoadElement?3?5?$CFs?5p@ DB 'CModelObj'
	DB	'ect::LoadElement: %s pElem->m_ppd3d_VB is not NULL', 00H ; `string'
CONST	ENDS
;	COMDAT ??_C@_0FD@CBFMNCCC@CModelObject?3?3LoadElement?5?9?5?$CFs?$MA@
CONST	SEGMENT
??_C@_0FD@CBFMNCCC@CModelObject?3?3LoadElement?5?9?5?$CFs?$MA@ DB 'CModel'
	DB	'Object::LoadElement - %s', 0c0H, 0c7H, ' MaxFrame(%d)', 0b0H, 0faH
	DB	' ', 0c0H, 0ccH, 0c0H, 0fcH, 0bfH, 0a1H, ' ', 0c0H, 0d0H, 0c0H
	DB	0baH, ' MaxFrame(%d)', 0c0H, 0ccH, ' ', 0b4H, 0d9H, 0b8H, 0a3H
	DB	0b4H, 0d9H, '.', 00H				; `string'
CONST	ENDS
;	COMDAT ??_C@_0DE@IHGMJNKM@CModelObject?3?3LoadElement?$LP?$KB?$LM?$KN?5?F@
CONST	SEGMENT
??_C@_0DE@IHGMJNKM@CModelObject?3?3LoadElement?$LP?$KB?$LM?$KN?5?F@ DB 'C'
	DB	'ModelObject::LoadElement', 0bfH, 0a1H, 0bcH, 0adH, ' ', 0c6H, 0a8H
	DB	0b1H, 0e8H, ' : ', 0c0H, 0d0H, 0c0H, 0baH, ' ', 0c6H, 0c4H, 0c0H
	DB	0cfH, 0b8H, 0edH, ' %s', 00H			; `string'
CONST	ENDS
;	COMDAT ??_C@_06IJGEHPBH@Model?2@
CONST	SEGMENT
??_C@_06IJGEHPBH@Model?2@ DB 'Model\', 00H		; `string'
CONST	ENDS
;	COMDAT ??_C@_0DK@DELLAMDK@CModelObject?3?3LoadElement?5?3?5nPa@
CONST	SEGMENT
??_C@_0DK@DELLAMDK@CModelObject?3?3LoadElement?5?3?5nPa@ DB 'CModelObject'
	DB	'::LoadElement : nParts ', 0bfH, 0a1H, 0b7H, 0afH, ' - nParts '
	DB	'= %d, %s', 00H				; `string'
CONST	ENDS
;	COMDAT ??_C@_0DN@MMEBGEII@CModelObject?3?3MovePart?5?3?5m_Elem@
CONST	SEGMENT
??_C@_0DN@MMEBGEII@CModelObject?3?3MovePart?5?3?5m_Elem@ DB 'CModelObject'
	DB	'::MovePart : m_Element[%d].m_pObject3D == 0x%08x', 00H ; `string'
CONST	ENDS
;	COMDAT ??_C@_0DO@MJIKBIFN@CModelObject?3?3LoadElement?5?9?5?$CFs?5@
CONST	SEGMENT
??_C@_0DO@MJIKBIFN@CModelObject?3?3LoadElement?5?9?5?$CFs?5@ DB 'CModelOb'
	DB	'ject::LoadElement - %s bone count(%d) - old count(%d)', 00H ; `string'
CONST	ENDS
;	COMDAT ??_C@_0CE@NAJOOAFP@?$CFs?5?3?5?$LK?$LL?$MA?$LL?5?$LH?N?$LF?y?G?O?A?v?5?$LO?J?$LA?m?5?$LI?p?$LM?G?$MA?$LL?5@
CONST	SEGMENT
??_C@_0CE@NAJOOAFP@?$CFs?5?3?5?$LK?$LL?$MA?$LL?5?$LH?N?$LF?y?G?O?A?v?5?$LO?J?$LA?m?5?$LI?p?$LM?G?$MA?$LL?5@ DB '%'
	DB	's : ', 0baH, 0bbH, 0c0H, 0bbH, ' ', 0b7H, 0ceH, 0b5H, 0f9H, 0c7H
	DB	0cfH, 0c1H, 0f6H, ' ', 0beH, 0caH, 0b0H, 0edH, ' ', 0b8H, 0f0H
	DB	0bcH, 0c7H, 0c0H, 0bbH, ' ', 0c0H, 0d0H, 0c0H, 0bdH, 00H ; `string'
CONST	ENDS
;	COMDAT ??_C@_0BC@DADEMEMC@?$CFs?5?3?5?C?$KD?$MA?$LL?5?$LM?v?5?$LO?x?$MA?$LN@
CONST	SEGMENT
??_C@_0BC@DADEMEMC@?$CFs?5?3?5?C?$KD?$MA?$LL?5?$LM?v?5?$LO?x?$MA?$LN@ DB '%'
	DB	's : ', 0c3H, 0a3H, 0c0H, 0bbH, ' ', 0bcH, 0f6H, ' ', 0beH, 0f8H
	DB	0c0H, 0bdH, 00H				; `string'
CONST	ENDS
;	COMDAT ??_C@_0DJ@MLDPDDGA@CModelObject?3?3LoadBone?5?$DL?5?$MA?L?$LJ?L?5?$LK@
CONST	SEGMENT
??_C@_0DJ@MLDPDDGA@CModelObject?3?3LoadBone?5?$DL?5?$MA?L?$LJ?L?5?$LK@ DB 'C'
	DB	'ModelObject::LoadBone ; ', 0c0H, 0ccH, 0b9H, 0ccH, ' ', 0baH, 0bbH
	DB	0c0H, 0ccH, ' ', 0b7H, 0ceH, 0b5H, 0f9H, 0b5H, 0c7H, 0beH, 0eeH
	DB	' ', 0c0H, 0d6H, 0b4H, 0d9H, '. 0x%08x', 00H	; `string'
CONST	ENDS
;	COMDAT ??_C@_0CJ@HDCFKCHE@CModelObject?3?3TakeOffParts?5?3?5nP@
CONST	SEGMENT
??_C@_0CJ@HDCFKCHE@CModelObject?3?3TakeOffParts?5?3?5nP@ DB 'CModelObject'
	DB	'::TakeOffParts : nParts = %d', 00H		; `string'
CONST	ENDS
;	COMDAT ??_C@_0BK@OFIFJFKM@obj_behecirclefloor01?4o3d@
CONST	SEGMENT
??_C@_0BK@OFIFJFKM@obj_behecirclefloor01?4o3d@ DB 'obj_behecirclefloor01.'
	DB	'o3d', 00H					; `string'
CONST	ENDS
;	COMDAT ??_C@_0BI@FOALFMHE@obj_behebossfloor02?4o3d@
CONST	SEGMENT
??_C@_0BI@FOALFMHE@obj_behebossfloor02?4o3d@ DB 'obj_behebossfloor02.o3d', 00H ; `string'
CONST	ENDS
;	COMDAT ??_C@_0BI@NIJPCONK@obj_behebossfloor01?4o3d@
CONST	SEGMENT
??_C@_0BI@NIJPCONK@obj_behebossfloor01?4o3d@ DB 'obj_behebossfloor01.o3d', 00H ; `string'
CONST	ENDS
;	COMDAT ??_C@_0BI@DMECLBOH@obj_kalgasbossfloor?4o3d@
CONST	SEGMENT
??_C@_0BI@DMECLBOH@obj_kalgasbossfloor?4o3d@ DB 'obj_kalgasbossfloor.o3d', 00H ; `string'
CONST	ENDS
;	COMDAT ??_C@_0BJ@NGIGFJFL@obj_kalgasbossufloor?4o3d@
CONST	SEGMENT
??_C@_0BJ@NGIGFJFL@obj_kalgasbossufloor?4o3d@ DB 'obj_kalgasbossufloor.o3'
	DB	'd', 00H					; `string'
CONST	ENDS
;	COMDAT ??_C@_0BF@KLABAHNE@obj_newfllight01?4o3d@
CONST	SEGMENT
??_C@_0BF@KLABAHNE@obj_newfllight01?4o3d@ DB 'obj_newfllight01.o3d', 00H ; `string'
CONST	ENDS
;	COMDAT ??_C@_0BF@MEBBCKOG@obj_newflchair01?4o3d@
CONST	SEGMENT
??_C@_0BF@MEBBCKOG@obj_newflchair01?4o3d@ DB 'obj_newflchair01.o3d', 00H ; `string'
CONST	ENDS
;	COMDAT ??_C@_0BF@FPIBCGAC@obj_kalgasekin01?4o3d@
CONST	SEGMENT
??_C@_0BF@FPIBCGAC@obj_kalgasekin01?4o3d@ DB 'obj_kalgasekin01.o3d', 00H ; `string'
CONST	ENDS
;	COMDAT ??_C@_0BI@KCDKKCIE@obj_kalgasekinent01?4o3d@
CONST	SEGMENT
??_C@_0BI@KCDKKCIE@obj_kalgasekinent01?4o3d@ DB 'obj_kalgasekinent01.o3d', 00H ; `string'
CONST	ENDS
;	COMDAT ??_C@_0BJ@BMNMJJOE@obj_kalgasekinrock02?4o3d@
CONST	SEGMENT
??_C@_0BJ@BMNMJJOE@obj_kalgasekinrock02?4o3d@ DB 'obj_kalgasekinrock02.o3'
	DB	'd', 00H					; `string'
CONST	ENDS
;	COMDAT ??_C@_0BJ@JKEIOLEK@obj_kalgasekinrock01?4o3d@
CONST	SEGMENT
??_C@_0BJ@JKEIOLEK@obj_kalgasekinrock01?4o3d@ DB 'obj_kalgasekinrock01.o3'
	DB	'd', 00H					; `string'
CONST	ENDS
;	COMDAT ??_C@_0BK@EJOMPFPM@obj_kalgasekinsrock04?4o3d@
CONST	SEGMENT
??_C@_0BK@EJOMPFPM@obj_kalgasekinsrock04?4o3d@ DB 'obj_kalgasekinsrock04.'
	DB	'o3d', 00H					; `string'
CONST	ENDS
;	COMDAT ??_C@_0BK@FEOJMFEE@obj_kalgasekinsrock03?4o3d@
CONST	SEGMENT
??_C@_0BK@FEOJMFEE@obj_kalgasekinsrock03?4o3d@ DB 'obj_kalgasekinsrock03.'
	DB	'o3d', 00H					; `string'
CONST	ENDS
;	COMDAT ??_C@_0BK@JPLFBGOB@obj_kalgasekinsrock02?4o3d@
CONST	SEGMENT
??_C@_0BK@JPLFBGOB@obj_kalgasekinsrock02?4o3d@ DB 'obj_kalgasekinsrock02.'
	DB	'o3d', 00H					; `string'
CONST	ENDS
;	COMDAT ??_C@_0BK@BJCBGEEP@obj_kalgasekinsrock01?4o3d@
CONST	SEGMENT
??_C@_0BK@BJCBGEEP@obj_kalgasekinsrock01?4o3d@ DB 'obj_kalgasekinsrock01.'
	DB	'o3d', 00H					; `string'
CONST	ENDS
;	COMDAT ??_C@_0BE@IKKKKMMO@obj_kalgasent01?4o3d@
CONST	SEGMENT
??_C@_0BE@IKKKKMMO@obj_kalgasent01?4o3d@ DB 'obj_kalgasent01.o3d', 00H ; `string'
CONST	ENDS
;	COMDAT ??_C@_0BI@JGOOPIKL@obj_kalgasceiling02?4o3d@
CONST	SEGMENT
??_C@_0BI@JGOOPIKL@obj_kalgasceiling02?4o3d@ DB 'obj_kalgasceiling02.o3d', 00H ; `string'
CONST	ENDS
;	COMDAT ??_C@_0BI@BAHKIKAF@obj_kalgasceiling01?4o3d@
CONST	SEGMENT
??_C@_0BI@BAHKIKAF@obj_kalgasceiling01?4o3d@ DB 'obj_kalgasceiling01.o3d', 00H ; `string'
CONST	ENDS
;	COMDAT ??_C@_0BL@ODOLEIJN@obj_kalgasbossstone_01?4o3d@
CONST	SEGMENT
??_C@_0BL@ODOLEIJN@obj_kalgasbossstone_01?4o3d@ DB 'obj_kalgasbossstone_0'
	DB	'1.o3d', 00H					; `string'
CONST	ENDS
;	COMDAT ??_C@_0BI@FCHJCCLF@obj_kalgasbossstone?4o3d@
CONST	SEGMENT
??_C@_0BI@FCHJCCLF@obj_kalgasbossstone?4o3d@ DB 'obj_kalgasbossstone.o3d', 00H ; `string'
CONST	ENDS
;	COMDAT ??_C@_0BJ@MCANMNKF@obj_kalgasrockwall02?4o3d@
CONST	SEGMENT
??_C@_0BJ@MCANMNKF@obj_kalgasrockwall02?4o3d@ DB 'obj_kalgasrockwall02.o3'
	DB	'd', 00H					; `string'
CONST	ENDS
;	COMDAT ??_C@_0BJ@EEJJLPAL@obj_kalgasrockwall01?4o3d@
CONST	SEGMENT
??_C@_0BJ@EEJJLPAL@obj_kalgasrockwall01?4o3d@ DB 'obj_kalgasrockwall01.o3'
	DB	'd', 00H					; `string'
CONST	ENDS
;	COMDAT ??_C@_0BF@IKPNKBGE@obj_kalgasrock02?4o3d@
CONST	SEGMENT
??_C@_0BF@IKPNKBGE@obj_kalgasrock02?4o3d@ DB 'obj_kalgasrock02.o3d', 00H ; `string'
CONST	ENDS
;	COMDAT ??_C@_0BF@MGJNDMK@obj_kalgasrock01?4o3d@
CONST	SEGMENT
??_C@_0BF@MGJNDMK@obj_kalgasrock01?4o3d@ DB 'obj_kalgasrock01.o3d', 00H ; `string'
CONST	ENDS
;	COMDAT ??_C@_0BH@DDLIPFGD@obj_kalgasbridge02?4o3d@
CONST	SEGMENT
??_C@_0BH@DDLIPFGD@obj_kalgasbridge02?4o3d@ DB 'obj_kalgasbridge02.o3d', 00H ; `string'
CONST	ENDS
;	COMDAT ??_C@_0BH@LFCMIHMN@obj_kalgasbridge01?4o3d@
CONST	SEGMENT
??_C@_0BH@LFCMIHMN@obj_kalgasbridge01?4o3d@ DB 'obj_kalgasbridge01.o3d', 00H ; `string'
CONST	ENDS
;	COMDAT ??_C@_0BK@LAMMKEEK@obj_guildcombatground?4o3d@
CONST	SEGMENT
??_C@_0BK@LAMMKEEK@obj_guildcombatground?4o3d@ DB 'obj_guildcombatground.'
	DB	'o3d', 00H					; `string'
CONST	ENDS
;	COMDAT ??_C@_0BE@ODMCHIHJ@obj_g_clovers02?4o3d@
CONST	SEGMENT
??_C@_0BE@ODMCHIHJ@obj_g_clovers02?4o3d@ DB 'obj_g_clovers02.o3d', 00H ; `string'
CONST	ENDS
;	COMDAT ??_C@_0N@BBDKLDAA@?$CFs_?$CFs_?$CFs?4ani@
CONST	SEGMENT
??_C@_0N@BBDKLDAA@?$CFs_?$CFs_?$CFs?4ani@ DB '%s_%s_%s.ani', 00H ; `string'
CONST	ENDS
;	COMDAT ?s_szRoot@?1??GetMotionFileName@CModelObject@@QBE?AV?$CStringT@DV?$StrTraitMFC@DV?$ChTraitsCRT@D@ATL@@@@@ATL@@ABV34@@Z@4PAY0CA@DA
_DATA	SEGMENT
?s_szRoot@?1??GetMotionFileName@CModelObject@@QBE?AV?$CStringT@DV?$StrTraitMFC@DV?$ChTraitsCRT@D@ATL@@@@@ATL@@ABV34@@Z@4PAY0CA@DA DB 'o'
	DB	'bj', 00H					; `CModelObject::GetMotionFileName'::`2'::s_szRoot
	ORG $+28
	DB	'ani', 00H
	ORG $+28
	DB	'ctrl', 00H
	ORG $+27
	DB	'sfx', 00H
	ORG $+28
	DB	'item', 00H
	ORG $+27
	DB	'mvr', 00H
	ORG $+28
	DB	'region', 00H
	ORG $+25
	DB	'obj', 00H
	ORG $+28
	DB	'path', 00H
	ORG $+27
_DATA	ENDS
;	COMDAT ??_R1A@?0A@EA@CModel@@8
rdata$r	SEGMENT
??_R1A@?0A@EA@CModel@@8 DD FLAT:??_R0?AVCModel@@@8	; CModel::`RTTI Base Class Descriptor at (0,-1,0,64)'
	DD	00H
	DD	00H
	DD	0ffffffffH
	DD	00H
	DD	040H
	DD	FLAT:??_R3CModel@@8
rdata$r	ENDS
;	COMDAT ??_R2CModel@@8
rdata$r	SEGMENT
??_R2CModel@@8 DD FLAT:??_R1A@?0A@EA@CModel@@8		; CModel::`RTTI Base Class Array'
rdata$r	ENDS
;	COMDAT ??_R3CModel@@8
rdata$r	SEGMENT
??_R3CModel@@8 DD 00H					; CModel::`RTTI Class Hierarchy Descriptor'
	DD	00H
	DD	01H
	DD	FLAT:??_R2CModel@@8
rdata$r	ENDS
;	COMDAT ??_R0?AVCModel@@@8
data$rs	SEGMENT
??_R0?AVCModel@@@8 DD FLAT:??_7type_info@@6B@		; CModel `RTTI Type Descriptor'
	DD	00H
	DB	'.?AVCModel@@', 00H
data$rs	ENDS
;	COMDAT ??_R4CModel@@6B@
rdata$r	SEGMENT
??_R4CModel@@6B@ DD 00H					; CModel::`RTTI Complete Object Locator'
	DD	00H
	DD	00H
	DD	FLAT:??_R0?AVCModel@@@8
	DD	FLAT:??_R3CModel@@8
rdata$r	ENDS
;	COMDAT ??_C@_0CC@LLPKIFJI@IsAttrSound?5?3?5pMotion?$DN?$DNNULL?5?$CFd?5@
CONST	SEGMENT
??_C@_0CC@LLPKIFJI@IsAttrSound?5?3?5pMotion?$DN?$DNNULL?5?$CFd?5@ DB 'IsA'
	DB	'ttrSound : pMotion==NULL %d %d', 00H	; `string'
CONST	ENDS
;	COMDAT ??_C@_0BB@FADAHOKP@SetGroup?5?3?5lv?$DN?$CFd@
CONST	SEGMENT
??_C@_0BB@FADAHOKP@SetGroup?5?3?5lv?$DN?$CFd@ DB 'SetGroup : lv=%d', 00H ; `string'
CONST	ENDS
;	COMDAT ??_7CModelObject@@6B@
CONST	SEGMENT
??_7CModelObject@@6B@ DD FLAT:??_R4CModelObject@@6B@	; CModelObject::`vftable'
	DD	FLAT:??_ECModelObject@@UAEPAXI@Z
	DD	FLAT:?LoadModel@CModelObject@@UAEHPBD@Z
	DD	FLAT:?SaveModel@CModel@@UAEHPBD@Z
	DD	FLAT:?ClearNormal@CModel@@UAEXXZ
	DD	FLAT:?AddFrame@CModel@@UAEXM@Z
	DD	FLAT:?SetFrame@CModel@@UAEXM@Z
	DD	FLAT:?IsLoadAttr@CModelObject@@UAEHXZ
	DD	FLAT:?GetMotionAttr@CModelObject@@UAEPAUMOTION_ATTR@@H@Z
	DD	FLAT:?GetAttr@CModel@@UAEKH@Z
	DD	FLAT:?IsAttrHit@CModelObject@@UAEKXZ
	DD	FLAT:?IsAttrHit@CModelObject@@UAEKM@Z
	DD	FLAT:?IsAttrSound@CModelObject@@UAEPAUMOTION_ATTR@@XZ
	DD	FLAT:?IsAttrSound@CModelObject@@UAEPAUMOTION_ATTR@@M@Z
	DD	FLAT:?IsAttrQuake@CModelObject@@UAEKXZ
	DD	FLAT:?IsAttrQuake@CModelObject@@UAEKM@Z
	DD	FLAT:?SetAttr@CModelObject@@UAEXMK@Z
	DD	FLAT:?ResetAttr@CModel@@UAEXHK@Z
	DD	FLAT:?SetGroup@CModelObject@@UAEXH@Z
	DD	FLAT:?IsHaveCollObj@CModelObject@@UAEHXZ
	DD	FLAT:?Render@CModel@@UAEHPAUIDirect3DDevice9@@PBUD3DXMATRIX@@@Z
	DD	FLAT:?RenderEffect@CModel@@UAEXPAUIDirect3DDevice9@@PBUD3DXMATRIX@@KKHH@Z
	DD	FLAT:?FrameMove@CModelObject@@UAEXPAUD3DXVECTOR3@@M@Z
	DD	FLAT:?InitDeviceObjects@CModelObject@@UAEJPAUIDirect3DDevice9@@@Z
	DD	FLAT:?RestoreDeviceObjects@CModelObject@@UAEJXZ
	DD	FLAT:?InvalidateDeviceObjects@CModelObject@@UAEJXZ
	DD	FLAT:?DeleteDeviceObjects@CModelObject@@UAEJXZ
	DD	FLAT:?Intersect@CModelObject@@UAEHABUD3DXVECTOR3@@0ABUD3DXMATRIX@@PAU2@PAMH@Z
	DD	FLAT:?IntersectRayTri@CModelObject@@UAEPAUD3DXVECTOR3@@ABU2@0ABUD3DXMATRIX@@PAU2@PAMH@Z
	DD	FLAT:?IsTouchOBB_Line@CModelObject@@UAEHABUD3DXVECTOR3@@0ABUD3DXMATRIX@@PAU2@H@Z
	DD	FLAT:?TestIntersectionOBB_Line@CModelObject@@UAEHABVSegment3@@PBVCObj@@H@Z
CONST	ENDS
;	COMDAT ??_C@_0BD@IOHNFIBA@SetLOD?5?3?5lv?$DN?$CFd?0?5?$CFs@
CONST	SEGMENT
??_C@_0BD@IOHNFIBA@SetLOD?5?3?5lv?$DN?$CFd?0?5?$CFs@ DB 'SetLOD : lv=%d, '
	DB	'%s', 00H					; `string'
CONST	ENDS
;	COMDAT ??_7CModel@@6B@
CONST	SEGMENT
??_7CModel@@6B@ DD FLAT:??_R4CModel@@6B@		; CModel::`vftable'
	DD	FLAT:??_ECModel@@UAEPAXI@Z
	DD	FLAT:?LoadModel@CModel@@UAEHPBD@Z
	DD	FLAT:?SaveModel@CModel@@UAEHPBD@Z
	DD	FLAT:?ClearNormal@CModel@@UAEXXZ
	DD	FLAT:?AddFrame@CModel@@UAEXM@Z
	DD	FLAT:?SetFrame@CModel@@UAEXM@Z
	DD	FLAT:?IsLoadAttr@CModel@@UAEHXZ
	DD	FLAT:?GetMotionAttr@CModel@@UAEPAUMOTION_ATTR@@H@Z
	DD	FLAT:?GetAttr@CModel@@UAEKH@Z
	DD	FLAT:?IsAttrHit@CModel@@UAEKXZ
	DD	FLAT:?IsAttrHit@CModel@@UAEKM@Z
	DD	FLAT:?IsAttrSound@CModel@@UAEPAUMOTION_ATTR@@XZ
	DD	FLAT:?IsAttrSound@CModel@@UAEPAUMOTION_ATTR@@M@Z
	DD	FLAT:?IsAttrQuake@CModel@@UAEKXZ
	DD	FLAT:?IsAttrQuake@CModel@@UAEKM@Z
	DD	FLAT:?SetAttr@CModel@@UAEXMK@Z
	DD	FLAT:?ResetAttr@CModel@@UAEXHK@Z
	DD	FLAT:?SetGroup@CModel@@UAEXH@Z
	DD	FLAT:?IsHaveCollObj@CModel@@UAEHXZ
	DD	FLAT:?Render@CModel@@UAEHPAUIDirect3DDevice9@@PBUD3DXMATRIX@@@Z
	DD	FLAT:?RenderEffect@CModel@@UAEXPAUIDirect3DDevice9@@PBUD3DXMATRIX@@KKHH@Z
	DD	FLAT:?FrameMove@CModel@@UAEXPAUD3DXVECTOR3@@M@Z
	DD	FLAT:?InitDeviceObjects@CModel@@UAEJPAUIDirect3DDevice9@@@Z
	DD	FLAT:?RestoreDeviceObjects@CModel@@UAEJXZ
	DD	FLAT:?InvalidateDeviceObjects@CModel@@UAEJXZ
	DD	FLAT:?DeleteDeviceObjects@CModel@@UAEJXZ
	DD	FLAT:?Intersect@CModel@@UAEHABUD3DXVECTOR3@@0ABUD3DXMATRIX@@PAU2@PAMH@Z
	DD	FLAT:?IntersectRayTri@CModel@@UAEPAUD3DXVECTOR3@@ABU2@0ABUD3DXMATRIX@@PAU2@PAMH@Z
	DD	FLAT:?IsTouchOBB_Line@CModel@@UAEHABUD3DXVECTOR3@@0ABUD3DXMATRIX@@PAU2@H@Z
	DD	FLAT:?TestIntersectionOBB_Line@CModel@@UAEHABVSegment3@@PBVCObj@@H@Z
CONST	ENDS
;	COMDAT xdata$x
xdata$x	SEGMENT
__unwindtable$?LoadElement@CModelObject@@QAEHPBDH@Z DD 0ffffffffH
	DD	FLAT:__unwindfunclet$?LoadElement@CModelObject@@QAEHPBDH@Z$0
	DD	0ffffffffH
	DD	FLAT:__unwindfunclet$?LoadElement@CModelObject@@QAEHPBDH@Z$1
__ehfuncinfo$?LoadElement@CModelObject@@QAEHPBDH@Z DD 019930522H
	DD	02H
	DD	FLAT:__unwindtable$?LoadElement@CModelObject@@QAEHPBDH@Z
	DD	2 DUP(00H)
	DD	2 DUP(00H)
	DD	00H
	DD	01H
xdata$x	ENDS
;	COMDAT xdata$x
xdata$x	SEGMENT
__unwindtable$?GetMotionFileName@CModelObject@@QBE?AV?$CStringT@DV?$StrTraitMFC@DV?$ChTraitsCRT@D@ATL@@@@@ATL@@ABV23@@Z DD 0ffffffffH
	DD	FLAT:__unwindfunclet$?GetMotionFileName@CModelObject@@QBE?AV?$CStringT@DV?$StrTraitMFC@DV?$ChTraitsCRT@D@ATL@@@@@ATL@@ABV23@@Z$0
__ehfuncinfo$?GetMotionFileName@CModelObject@@QBE?AV?$CStringT@DV?$StrTraitMFC@DV?$ChTraitsCRT@D@ATL@@@@@ATL@@ABV23@@Z DD 019930522H
	DD	01H
	DD	FLAT:__unwindtable$?GetMotionFileName@CModelObject@@QBE?AV?$CStringT@DV?$StrTraitMFC@DV?$ChTraitsCRT@D@ATL@@@@@ATL@@ABV23@@Z
	DD	2 DUP(00H)
	DD	2 DUP(00H)
	DD	00H
	DD	01H
xdata$x	ENDS
;	COMDAT xdata$x
xdata$x	SEGMENT
__ehfuncinfo$??1CModelObject@@UAE@XZ DD 019930522H
	DD	00H
	DD	00H
	DD	2 DUP(00H)
	DD	2 DUP(00H)
	DD	00H
	DD	05H
xdata$x	ENDS
;	COMDAT xdata$x
xdata$x	SEGMENT
__unwindtable$?FormatV@?$CStringT@DV?$StrTraitMFC@DV?$ChTraitsCRT@D@ATL@@@@@ATL@@QAEXPBDPAD@Z DD 0ffffffffH
	DD	FLAT:__unwindfunclet$?FormatV@?$CStringT@DV?$StrTraitMFC@DV?$ChTraitsCRT@D@ATL@@@@@ATL@@QAEXPBDPAD@Z$1
	DD	0ffffffffH
	DD	FLAT:__unwindfunclet$?FormatV@?$CStringT@DV?$StrTraitMFC@DV?$ChTraitsCRT@D@ATL@@@@@ATL@@QAEXPBDPAD@Z$0
__ehfuncinfo$?FormatV@?$CStringT@DV?$StrTraitMFC@DV?$ChTraitsCRT@D@ATL@@@@@ATL@@QAEXPBDPAD@Z DD 019930522H
	DD	02H
	DD	FLAT:__unwindtable$?FormatV@?$CStringT@DV?$StrTraitMFC@DV?$ChTraitsCRT@D@ATL@@@@@ATL@@QAEXPBDPAD@Z
	DD	2 DUP(00H)
	DD	2 DUP(00H)
	DD	00H
	DD	01H
xdata$x	ENDS
;	COMDAT xdata$x
xdata$x	SEGMENT
__unwindtable$??0?$CStringT@DV?$StrTraitMFC@DV?$ChTraitsCRT@D@ATL@@@@@ATL@@QAE@PBDPAUIAtlStringMgr@1@@Z DD 0ffffffffH
	DD	FLAT:__unwindfunclet$??0?$CStringT@DV?$StrTraitMFC@DV?$ChTraitsCRT@D@ATL@@@@@ATL@@QAE@PBDPAUIAtlStringMgr@1@@Z$0
__ehfuncinfo$??0?$CStringT@DV?$StrTraitMFC@DV?$ChTraitsCRT@D@ATL@@@@@ATL@@QAE@PBDPAUIAtlStringMgr@1@@Z DD 019930522H
	DD	01H
	DD	FLAT:__unwindtable$??0?$CStringT@DV?$StrTraitMFC@DV?$ChTraitsCRT@D@ATL@@@@@ATL@@QAE@PBDPAUIAtlStringMgr@1@@Z
	DD	2 DUP(00H)
	DD	2 DUP(00H)
	DD	00H
	DD	01H
xdata$x	ENDS
; Function compile flags: /Ogtp
; File C:\IAGOS\server\v18\Source\Source\_Common\modelobject.cpp
; File C:\IAGOS\server\v18\Source\Source\DX_SDK\d3dx9math.inl
; File C:\IAGOS\server\v18\Source\Source\_Common\modelobject.cpp
; File C:\IAGOS\server\v18\Source\Source\DX_SDK\d3dx9math.inl
; File C:\IAGOS\server\v18\Source\Source\_Common\modelobject.cpp
; File C:\IAGOS\server\v18\Source\Source\DX_SDK\d3dx9math.inl
; File C:\IAGOS\server\v18\Source\Source\_Common\modelobject.cpp
; File C:\IAGOS\server\v18\Source\Source\DX_SDK\d3dx9math.inl
; File C:\IAGOS\server\v18\Source\Source\_Common\modelobject.cpp
; File C:\IAGOS\server\v18\Source\Source\DX_SDK\d3dx9math.inl
; File C:\IAGOS\server\v18\Source\Source\_Common\modelobject.cpp
; File C:\IAGOS\server\v18\Source\Source\DX_SDK\d3dx9math.inl
; File C:\IAGOS\server\v18\Source\Source\_Common\modelobject.cpp
; File C:\IAGOS\server\v18\Source\Source\DX_SDK\d3dx9math.inl
; File C:\IAGOS\server\v18\Source\Source\_Common\modelobject.cpp
; File C:\IAGOS\server\v18\Source\Source\DX_SDK\d3dx9math.inl
; File C:\IAGOS\server\v18\Source\Source\_Common\modelobject.cpp
; File C:\IAGOS\server\v18\Source\Source\DX_SDK\d3dx9math.inl
; File C:\IAGOS\server\v18\Source\Source\_Common\modelobject.cpp
; File C:\IAGOS\server\v18\Source\Source\DX_SDK\d3dx9math.inl
; File C:\IAGOS\server\v18\Source\Source\_Common\modelobject.cpp
; File C:\IAGOS\server\v18\Source\Source\DX_SDK\d3dx9math.inl
; File C:\IAGOS\server\v18\Source\Source\_Common\modelobject.cpp
; File C:\IAGOS\server\v18\Source\Source\DX_SDK\d3dx9math.inl
; File C:\IAGOS\server\v18\Source\Source\_Common\modelobject.cpp
; File C:\IAGOS\server\v18\Source\Source\DX_SDK\d3dx9math.inl
; File C:\IAGOS\server\v18\Source\Source\_Common\modelobject.cpp
; File C:\IAGOS\server\v18\Source\Source\DX_SDK\d3dx9math.inl
; File C:\IAGOS\server\v18\Source\Source\_Common\modelobject.cpp
; File C:\IAGOS\server\v18\Source\Source\DX_SDK\d3dx9math.inl
; File C:\IAGOS\server\v18\Source\Source\_Common\modelobject.cpp
; File C:\IAGOS\server\v18\Source\Source\DX_SDK\d3dx9math.inl
; File C:\IAGOS\server\v18\Source\Source\_Common\modelobject.cpp
; File C:\IAGOS\server\v18\Source\Source\DX_SDK\d3dx9math.inl
; File C:\IAGOS\server\v18\Source\Source\_Common\modelobject.cpp
;	COMDAT ?SplineSlerp@@YA?AUD3DXVECTOR3@@PAU1@000M@Z
_TEXT	SEGMENT
_t3$1$ = -4						; size = 4
___$ReturnUdt$ = 8					; size = 4
_v1$ = 12						; size = 4
tv1311 = 12						; size = 4
_v2$ = 16						; size = 4
tv1323 = 16						; size = 4
_v3$ = 20						; size = 4
_f$1$ = 20						; size = 4
_v4$ = 24						; size = 4
_fSlerp$ = 28						; size = 4
_f$1$ = 28						; size = 4
?SplineSlerp@@YA?AUD3DXVECTOR3@@PAU1@000M@Z PROC	; SplineSlerp, COMDAT

; 2783 : {

  00000	55		 push	 ebp
  00001	8b ec		 mov	 ebp, esp
  00003	51		 push	 ecx

; 2787 : 	float	t2 = t * t;

  00004	f3 0f 10 55 1c	 movss	 xmm2, DWORD PTR _fSlerp$[ebp]
  00009	0f 28 ca	 movaps	 xmm1, xmm2
; File C:\IAGOS\server\v18\Source\Source\DX_SDK\d3dx9math.inl

; 377  :     return D3DXVECTOR3(x + v.x, y + v.y, z + v.z);

  0000c	8b 4d 14	 mov	 ecx, DWORD PTR _v3$[ebp]
; File C:\IAGOS\server\v18\Source\Source\_Common\modelobject.cpp

; 2787 : 	float	t2 = t * t;

  0000f	f3 0f 59 ca	 mulss	 xmm1, xmm2
; File C:\IAGOS\server\v18\Source\Source\DX_SDK\d3dx9math.inl

; 383  :     return D3DXVECTOR3(x - v.x, y - v.y, z - v.z);

  00013	8b 45 10	 mov	 eax, DWORD PTR _v2$[ebp]
; File C:\IAGOS\server\v18\Source\Source\_Common\modelobject.cpp

; 2783 : {

  00016	56		 push	 esi
; File C:\IAGOS\server\v18\Source\Source\DX_SDK\d3dx9math.inl

; 383  :     return D3DXVECTOR3(x - v.x, y - v.y, z - v.z);

  00017	8b 75 0c	 mov	 esi, DWORD PTR _v1$[ebp]
; File C:\IAGOS\server\v18\Source\Source\_Common\modelobject.cpp

; 2788 : 	float	t3 = t2 * t;

  0001a	0f 28 e9	 movaps	 xmm5, xmm1
; File C:\IAGOS\server\v18\Source\Source\DX_SDK\d3dx9math.inl

; 377  :     return D3DXVECTOR3(x + v.x, y + v.y, z + v.z);

  0001d	f3 0f 10 61 04	 movss	 xmm4, DWORD PTR [ecx+4]
; File C:\IAGOS\server\v18\Source\Source\_Common\modelobject.cpp

; 2788 : 	float	t3 = t2 * t;

  00022	f3 0f 59 ea	 mulss	 xmm5, xmm2

; 2798 : 	vResult = (((2 * t3) - (3 * t2) + 1) * *v2) +

  00026	0f 28 c1	 movaps	 xmm0, xmm1
; File C:\IAGOS\server\v18\Source\Source\DX_SDK\d3dx9math.inl

; 377  :     return D3DXVECTOR3(x + v.x, y + v.y, z + v.z);

  00029	8b 55 18	 mov	 edx, DWORD PTR _v4$[ebp]
; File C:\IAGOS\server\v18\Source\Source\_Common\modelobject.cpp

; 2798 : 	vResult = (((2 * t3) - (3 * t2) + 1) * *v2) +

  0002c	f3 0f 59 05 00
	00 00 00	 mulss	 xmm0, DWORD PTR __real@40400000
  00034	f3 0f 11 6d fc	 movss	 DWORD PTR _t3$1$[ebp], xmm5
  00039	f3 0f 58 ed	 addss	 xmm5, xmm5
; File C:\IAGOS\server\v18\Source\Source\DX_SDK\d3dx9math.inl

; 383  :     return D3DXVECTOR3(x - v.x, y - v.y, z - v.z);

  0003d	f3 0f 10 58 04	 movss	 xmm3, DWORD PTR [eax+4]
; File C:\IAGOS\server\v18\Source\Source\_Common\modelobject.cpp

; 2798 : 	vResult = (((2 * t3) - (3 * t2) + 1) * *v2) +

  00042	0f 28 d0	 movaps	 xmm2, xmm0
; File C:\IAGOS\server\v18\Source\Source\DX_SDK\d3dx9math.inl

; 383  :     return D3DXVECTOR3(x - v.x, y - v.y, z - v.z);

  00045	f3 0f 10 70 08	 movss	 xmm6, DWORD PTR [eax+8]

; 377  :     return D3DXVECTOR3(x + v.x, y + v.y, z + v.z);

  0004a	f3 0f 10 79 08	 movss	 xmm7, DWORD PTR [ecx+8]
; File C:\IAGOS\server\v18\Source\Source\_Common\modelobject.cpp

; 2798 : 	vResult = (((2 * t3) - (3 * t2) + 1) * *v2) +

  0004f	f3 0f 5c d5	 subss	 xmm2, xmm5
  00053	f3 0f 5c e8	 subss	 xmm5, xmm0
; File C:\IAGOS\server\v18\Source\Source\DX_SDK\d3dx9math.inl

; 403  :     return D3DXVECTOR3(f * v.x, f * v.y, f * v.z);

  00057	0f 28 c3	 movaps	 xmm0, xmm3
; File C:\IAGOS\server\v18\Source\Source\_Common\modelobject.cpp

; 2798 : 	vResult = (((2 * t3) - (3 * t2) + 1) * *v2) +

  0005a	f3 0f 11 55 14	 movss	 DWORD PTR _f$1$[ebp], xmm2
  0005f	f3 0f 10 55 fc	 movss	 xmm2, DWORD PTR _t3$1$[ebp]
  00064	f3 0f 5c d1	 subss	 xmm2, xmm1
  00068	f3 0f 58 c9	 addss	 xmm1, xmm1
  0006c	f3 0f 58 2d 00
	00 00 00	 addss	 xmm5, DWORD PTR __real@3f800000
  00074	f3 0f 11 55 10	 movss	 DWORD PTR tv1323[ebp], xmm2
  00079	f3 0f 10 55 fc	 movss	 xmm2, DWORD PTR _t3$1$[ebp]
  0007e	f3 0f 5c d1	 subss	 xmm2, xmm1
  00082	0f 28 ca	 movaps	 xmm1, xmm2
; File C:\IAGOS\server\v18\Source\Source\DX_SDK\d3dx9math.inl

; 383  :     return D3DXVECTOR3(x - v.x, y - v.y, z - v.z);

  00085	0f 28 d6	 movaps	 xmm2, xmm6
; File C:\IAGOS\server\v18\Source\Source\_Common\modelobject.cpp

; 2798 : 	vResult = (((2 * t3) - (3 * t2) + 1) * *v2) +

  00088	f3 0f 58 4d 1c	 addss	 xmm1, DWORD PTR _fSlerp$[ebp]
; File C:\IAGOS\server\v18\Source\Source\DX_SDK\d3dx9math.inl

; 383  :     return D3DXVECTOR3(x - v.x, y - v.y, z - v.z);

  0008d	f3 0f 5c 56 08	 subss	 xmm2, DWORD PTR [esi+8]
; File C:\IAGOS\server\v18\Source\Source\_Common\modelobject.cpp

; 2798 : 	vResult = (((2 * t3) - (3 * t2) + 1) * *v2) +

  00092	f3 0f 11 6d 1c	 movss	 DWORD PTR _f$1$[ebp], xmm5
; File C:\IAGOS\server\v18\Source\Source\DX_SDK\d3dx9math.inl

; 403  :     return D3DXVECTOR3(f * v.x, f * v.y, f * v.z);

  00097	f3 0f 59 45 1c	 mulss	 xmm0, DWORD PTR _f$1$[ebp]

; 300  :     x = fx;

  0009c	f3 0f 10 2d 00
	00 00 00	 movss	 xmm5, DWORD PTR __real@3f000000
; File C:\IAGOS\server\v18\Source\Source\_Common\modelobject.cpp

; 2798 : 	vResult = (((2 * t3) - (3 * t2) + 1) * *v2) +

  000a4	f3 0f 11 4d fc	 movss	 DWORD PTR _t3$1$[ebp], xmm1
; File C:\IAGOS\server\v18\Source\Source\DX_SDK\d3dx9math.inl

; 377  :     return D3DXVECTOR3(x + v.x, y + v.y, z + v.z);

  000a9	f3 0f 58 d7	 addss	 xmm2, xmm7

; 383  :     return D3DXVECTOR3(x - v.x, y - v.y, z - v.z);

  000ad	0f 28 cb	 movaps	 xmm1, xmm3
  000b0	f3 0f 5c 4e 04	 subss	 xmm1, DWORD PTR [esi+4]
  000b5	f3 0f 5c d6	 subss	 xmm2, xmm6

; 377  :     return D3DXVECTOR3(x + v.x, y + v.y, z + v.z);

  000b9	f3 0f 58 cc	 addss	 xmm1, xmm4

; 301  :     y = fy;

  000bd	f3 0f 59 d5	 mulss	 xmm2, xmm5

; 383  :     return D3DXVECTOR3(x - v.x, y - v.y, z - v.z);

  000c1	f3 0f 5c cb	 subss	 xmm1, xmm3

; 301  :     y = fy;

  000c5	f3 0f 59 55 fc	 mulss	 xmm2, DWORD PTR _t3$1$[ebp]

; 300  :     x = fx;

  000ca	f3 0f 59 cd	 mulss	 xmm1, xmm5
  000ce	f3 0f 59 4d fc	 mulss	 xmm1, DWORD PTR _t3$1$[ebp]
  000d3	f3 0f 58 c8	 addss	 xmm1, xmm0

; 383  :     return D3DXVECTOR3(x - v.x, y - v.y, z - v.z);

  000d7	0f 28 c4	 movaps	 xmm0, xmm4
  000da	f3 0f 5c c3	 subss	 xmm0, xmm3

; 377  :     return D3DXVECTOR3(x + v.x, y + v.y, z + v.z);

  000de	f3 0f 58 42 04	 addss	 xmm0, DWORD PTR [edx+4]

; 383  :     return D3DXVECTOR3(x - v.x, y - v.y, z - v.z);

  000e3	f3 0f 5c c4	 subss	 xmm0, xmm4

; 403  :     return D3DXVECTOR3(f * v.x, f * v.y, f * v.z);

  000e7	f3 0f 59 65 14	 mulss	 xmm4, DWORD PTR _f$1$[ebp]

; 300  :     x = fx;

  000ec	f3 0f 59 c5	 mulss	 xmm0, xmm5
  000f0	f3 0f 59 45 10	 mulss	 xmm0, DWORD PTR tv1323[ebp]
  000f5	f3 0f 58 c8	 addss	 xmm1, xmm0

; 403  :     return D3DXVECTOR3(f * v.x, f * v.y, f * v.z);

  000f9	0f 28 c6	 movaps	 xmm0, xmm6
  000fc	f3 0f 59 45 1c	 mulss	 xmm0, DWORD PTR _f$1$[ebp]

; 301  :     y = fy;

  00101	f3 0f 58 d0	 addss	 xmm2, xmm0

; 383  :     return D3DXVECTOR3(x - v.x, y - v.y, z - v.z);

  00105	0f 28 c7	 movaps	 xmm0, xmm7
  00108	f3 0f 5c c6	 subss	 xmm0, xmm6

; 300  :     x = fx;

  0010c	f3 0f 58 cc	 addss	 xmm1, xmm4

; 377  :     return D3DXVECTOR3(x + v.x, y + v.y, z + v.z);

  00110	f3 0f 58 42 08	 addss	 xmm0, DWORD PTR [edx+8]

; 300  :     x = fx;

  00115	f3 0f 11 4d 0c	 movss	 DWORD PTR tv1311[ebp], xmm1

; 383  :     return D3DXVECTOR3(x - v.x, y - v.y, z - v.z);

  0011a	f3 0f 5c c7	 subss	 xmm0, xmm7

; 403  :     return D3DXVECTOR3(f * v.x, f * v.y, f * v.z);

  0011e	f3 0f 59 7d 14	 mulss	 xmm7, DWORD PTR _f$1$[ebp]

; 301  :     y = fy;

  00123	f3 0f 59 c5	 mulss	 xmm0, xmm5
  00127	f3 0f 59 45 10	 mulss	 xmm0, DWORD PTR tv1323[ebp]
  0012c	f3 0f 58 d0	 addss	 xmm2, xmm0
  00130	f3 0f 58 d7	 addss	 xmm2, xmm7

; 383  :     return D3DXVECTOR3(x - v.x, y - v.y, z - v.z);

  00134	f3 0f 10 38	 movss	 xmm7, DWORD PTR [eax]
  00138	0f 28 cf	 movaps	 xmm1, xmm7

; 403  :     return D3DXVECTOR3(f * v.x, f * v.y, f * v.z);

  0013b	0f 28 c7	 movaps	 xmm0, xmm7

; 383  :     return D3DXVECTOR3(x - v.x, y - v.y, z - v.z);

  0013e	f3 0f 5c 0e	 subss	 xmm1, DWORD PTR [esi]

; 403  :     return D3DXVECTOR3(f * v.x, f * v.y, f * v.z);

  00142	f3 0f 59 45 1c	 mulss	 xmm0, DWORD PTR _f$1$[ebp]

; 377  :     return D3DXVECTOR3(x + v.x, y + v.y, z + v.z);

  00147	f3 0f 58 09	 addss	 xmm1, DWORD PTR [ecx]

; 383  :     return D3DXVECTOR3(x - v.x, y - v.y, z - v.z);

  0014b	f3 0f 5c cf	 subss	 xmm1, xmm7

; 302  :     z = fz;

  0014f	f3 0f 59 cd	 mulss	 xmm1, xmm5
; File C:\IAGOS\server\v18\Source\Source\_Common\modelobject.cpp

; 2798 : 	vResult = (((2 * t3) - (3 * t2) + 1) * *v2) +

  00153	f3 0f 59 4d fc	 mulss	 xmm1, DWORD PTR _t3$1$[ebp]
; File C:\IAGOS\server\v18\Source\Source\DX_SDK\d3dx9math.inl

; 302  :     z = fz;

  00158	f3 0f 58 c8	 addss	 xmm1, xmm0

; 383  :     return D3DXVECTOR3(x - v.x, y - v.y, z - v.z);

  0015c	f3 0f 10 19	 movss	 xmm3, DWORD PTR [ecx]
  00160	0f 28 c3	 movaps	 xmm0, xmm3
; File C:\IAGOS\server\v18\Source\Source\_Common\modelobject.cpp

; 2798 : 	vResult = (((2 * t3) - (3 * t2) + 1) * *v2) +

  00163	8b 45 08	 mov	 eax, DWORD PTR ___$ReturnUdt$[ebp]
; File C:\IAGOS\server\v18\Source\Source\DX_SDK\d3dx9math.inl

; 383  :     return D3DXVECTOR3(x - v.x, y - v.y, z - v.z);

  00166	f3 0f 5c c7	 subss	 xmm0, xmm7
; File C:\IAGOS\server\v18\Source\Source\_Common\modelobject.cpp

; 2804 : 	return vResult;

  0016a	5e		 pop	 esi
; File C:\IAGOS\server\v18\Source\Source\DX_SDK\d3dx9math.inl

; 377  :     return D3DXVECTOR3(x + v.x, y + v.y, z + v.z);

  0016b	f3 0f 58 02	 addss	 xmm0, DWORD PTR [edx]

; 383  :     return D3DXVECTOR3(x - v.x, y - v.y, z - v.z);

  0016f	f3 0f 5c c3	 subss	 xmm0, xmm3

; 403  :     return D3DXVECTOR3(f * v.x, f * v.y, f * v.z);

  00173	f3 0f 59 5d 14	 mulss	 xmm3, DWORD PTR _f$1$[ebp]

; 302  :     z = fz;

  00178	f3 0f 59 c5	 mulss	 xmm0, xmm5
; File C:\IAGOS\server\v18\Source\Source\_Common\modelobject.cpp

; 2798 : 	vResult = (((2 * t3) - (3 * t2) + 1) * *v2) +

  0017c	f3 0f 59 45 10	 mulss	 xmm0, DWORD PTR tv1323[ebp]
; File C:\IAGOS\server\v18\Source\Source\DX_SDK\d3dx9math.inl

; 302  :     z = fz;

  00181	f3 0f 58 c8	 addss	 xmm1, xmm0
; File C:\IAGOS\server\v18\Source\Source\_Common\modelobject.cpp

; 2798 : 	vResult = (((2 * t3) - (3 * t2) + 1) * *v2) +

  00185	f3 0f 10 45 0c	 movss	 xmm0, DWORD PTR tv1311[ebp]
; File C:\IAGOS\server\v18\Source\Source\DX_SDK\d3dx9math.inl

; 302  :     z = fz;

  0018a	f3 0f 58 cb	 addss	 xmm1, xmm3
; File C:\IAGOS\server\v18\Source\Source\_Common\modelobject.cpp

; 2798 : 	vResult = (((2 * t3) - (3 * t2) + 1) * *v2) +

  0018e	f3 0f 11 08	 movss	 DWORD PTR [eax], xmm1
  00192	f3 0f 11 40 04	 movss	 DWORD PTR [eax+4], xmm0
  00197	f3 0f 11 50 08	 movss	 DWORD PTR [eax+8], xmm2

; 2805 : }

  0019c	8b e5		 mov	 esp, ebp
  0019e	5d		 pop	 ebp
  0019f	c3		 ret	 0
?SplineSlerp@@YA?AUD3DXVECTOR3@@PAU1@000M@Z ENDP	; SplineSlerp
_TEXT	ENDS
; Function compile flags: /Ogtp
;	COMDAT ??_GCModelObject@@UAEPAXI@Z
_TEXT	SEGMENT
___flags$ = 8						; size = 4
??_GCModelObject@@UAEPAXI@Z PROC			; CModelObject::`scalar deleting destructor', COMDAT
; _this$ = ecx
  00000	55		 push	 ebp
  00001	8b ec		 mov	 ebp, esp
  00003	56		 push	 esi
  00004	8b f1		 mov	 esi, ecx
  00006	e8 00 00 00 00	 call	 ??1CModelObject@@UAE@XZ	; CModelObject::~CModelObject
  0000b	f6 45 08 01	 test	 BYTE PTR ___flags$[ebp], 1
  0000f	74 0e		 je	 SHORT $LN5@scalar
  00011	68 f0 2a 00 00	 push	 10992			; 00002af0H
  00016	56		 push	 esi
  00017	e8 00 00 00 00	 call	 ??3@YAXPAXI@Z		; operator delete
  0001c	83 c4 08	 add	 esp, 8
$LN5@scalar:
  0001f	8b c6		 mov	 eax, esi
  00021	5e		 pop	 esi
  00022	5d		 pop	 ebp
  00023	c2 04 00	 ret	 4
??_GCModelObject@@UAEPAXI@Z ENDP			; CModelObject::`scalar deleting destructor'
_TEXT	ENDS
; Function compile flags: /Ogtp
; File C:\IAGOS\server\v18\Source\Source\_Common\modelobject.cpp
; File C:\IAGOS\server\v18\Source\Source\_Common\Object3d.h
; File C:\IAGOS\server\v18\Source\Source\_Common\modelobject.cpp
; File C:\IAGOS\server\v18\Source\Source\_Common\Object3d.h
; File C:\IAGOS\server\v18\Source\Source\_Common\modelobject.cpp
; File C:\IAGOS\server\v18\Source\Source\_Common\Object3d.h
; File C:\IAGOS\server\v18\Source\Source\_Common\modelobject.cpp
; File C:\IAGOS\server\v18\Source\Source\_Common\Object3d.h
; File C:\IAGOS\server\v18\Source\Source\_Common\modelobject.cpp
; File C:\IAGOS\server\v18\Source\Source\_Common\Object3d.h
; File C:\IAGOS\server\v18\Source\Source\_Common\modelobject.cpp
; File C:\IAGOS\server\v18\Source\Source\_Common\Object3d.h
; File C:\IAGOS\server\v18\Source\Source\_Common\modelobject.cpp
; File C:\IAGOS\server\v18\Source\Source\_Common\Object3d.h
; File C:\IAGOS\server\v18\Source\Source\_Common\modelobject.cpp
; File C:\IAGOS\server\v18\Source\Source\_Common\Object3d.h
; File C:\IAGOS\server\v18\Source\Source\_Common\modelobject.cpp
; File C:\IAGOS\server\v18\Source\Source\_Common\Object3d.h
; File C:\IAGOS\server\v18\Source\Source\_Common\modelobject.cpp
; File C:\IAGOS\server\v18\Source\Source\_Common\Object3d.h
; File C:\IAGOS\server\v18\Source\Source\_Common\modelobject.cpp
; File C:\IAGOS\server\v18\Source\Source\_Common\Object3d.h
; File C:\IAGOS\server\v18\Source\Source\_Common\modelobject.cpp
; File C:\IAGOS\server\v18\Source\Source\_Common\Object3d.h
; File C:\IAGOS\server\v18\Source\Source\_Common\modelobject.cpp
; File C:\IAGOS\server\v18\Source\Source\_Common\Object3d.h
; File C:\IAGOS\server\v18\Source\Source\_Common\modelobject.cpp
;	COMDAT ?DeleteDeviceObjects@CModelObject@@UAEJXZ
_TEXT	SEGMENT
?DeleteDeviceObjects@CModelObject@@UAEJXZ PROC		; CModelObject::DeleteDeviceObjects, COMDAT
; _this$ = ecx

; 1712 : {

  00000	53		 push	 ebx
  00001	56		 push	 esi
  00002	57		 push	 edi

; 1717 : 	for( i = 0; i < MAX_ELEMENT; i ++ )

  00003	8d b1 28 02 00
	00		 lea	 esi, DWORD PTR [ecx+552]
  00009	bb 15 00 00 00	 mov	 ebx, 21			; 00000015H
  0000e	66 90		 npad	 2
$LL4@DeleteDevi:

; 1718 : 	{
; 1719 : 		pElem = &m_Element[i];
; 1720 : 		pObject3D = pElem->m_pObject3D;
; 1721 : 		if( pObject3D )

  00010	8b 8e b0 fe ff
	ff		 mov	 ecx, DWORD PTR [esi-336]
  00016	85 c9		 test	 ecx, ecx
  00018	0f 84 ec 00 00
	00		 je	 $LN2@DeleteDevi

; 1722 : 		{
; 1723 : 			if( pElem->m_ppd3d_VB )

  0001e	83 7e f4 00	 cmp	 DWORD PTR [esi-12], 0
  00022	0f 84 e2 00 00
	00		 je	 $LN2@DeleteDevi
; File C:\IAGOS\server\v18\Source\Source\_Common\Object3d.h

; 311  : 		m_pGroup = &m_Group[nLevel]; 

  00028	8d 41 04	 lea	 eax, DWORD PTR [ecx+4]
; File C:\IAGOS\server\v18\Source\Source\_Common\modelobject.cpp

; 1726 : 				for( j = 0; j < pElem->m_pObject3D->GetMaxObject(); j ++ )		// 

  0002b	33 ff		 xor	 edi, edi
; File C:\IAGOS\server\v18\Source\Source\_Common\Object3d.h

; 311  : 		m_pGroup = &m_Group[nLevel]; 

  0002d	89 01		 mov	 DWORD PTR [ecx], eax

; 281  : 	int		GetMaxObject( void ) { return m_pGroup->m_nMaxObject; }

  0002f	8b 8e b0 fe ff
	ff		 mov	 ecx, DWORD PTR [esi-336]
  00035	8b 01		 mov	 eax, DWORD PTR [ecx]
; File C:\IAGOS\server\v18\Source\Source\_Common\modelobject.cpp

; 1726 : 				for( j = 0; j < pElem->m_pObject3D->GetMaxObject(); j ++ )		// 

  00037	39 38		 cmp	 DWORD PTR [eax], edi
  00039	7e 2c		 jle	 SHORT $LN6@DeleteDevi
  0003b	0f 1f 44 00 00	 npad	 5
$LL7@DeleteDevi:

; 1727 : 					SAFE_RELEASE( pElem->m_ppd3d_VB1[j] );

  00040	8b 46 f8	 mov	 eax, DWORD PTR [esi-8]
  00043	8b 0c b8	 mov	 ecx, DWORD PTR [eax+edi*4]
  00046	85 c9		 test	 ecx, ecx
  00048	74 10		 je	 SHORT $LN5@DeleteDevi
  0004a	8b 01		 mov	 eax, DWORD PTR [ecx]
  0004c	51		 push	 ecx
  0004d	ff 50 08	 call	 DWORD PTR [eax+8]
  00050	8b 46 f8	 mov	 eax, DWORD PTR [esi-8]
  00053	c7 04 b8 00 00
	00 00		 mov	 DWORD PTR [eax+edi*4], 0
$LN5@DeleteDevi:
; File C:\IAGOS\server\v18\Source\Source\_Common\Object3d.h

; 281  : 	int		GetMaxObject( void ) { return m_pGroup->m_nMaxObject; }

  0005a	8b 8e b0 fe ff
	ff		 mov	 ecx, DWORD PTR [esi-336]
; File C:\IAGOS\server\v18\Source\Source\_Common\modelobject.cpp

; 1726 : 				for( j = 0; j < pElem->m_pObject3D->GetMaxObject(); j ++ )		// 

  00060	47		 inc	 edi
; File C:\IAGOS\server\v18\Source\Source\_Common\Object3d.h

; 281  : 	int		GetMaxObject( void ) { return m_pGroup->m_nMaxObject; }

  00061	8b 01		 mov	 eax, DWORD PTR [ecx]
; File C:\IAGOS\server\v18\Source\Source\_Common\modelobject.cpp

; 1726 : 				for( j = 0; j < pElem->m_pObject3D->GetMaxObject(); j ++ )		// 

  00063	3b 38		 cmp	 edi, DWORD PTR [eax]
  00065	7c d9		 jl	 SHORT $LL7@DeleteDevi
$LN6@DeleteDevi:
; File C:\IAGOS\server\v18\Source\Source\_Common\Object3d.h

; 311  : 		m_pGroup = &m_Group[nLevel]; 

  00067	83 b9 b4 00 00
	00 00		 cmp	 DWORD PTR [ecx+180], 0
  0006e	b8 04 00 00 00	 mov	 eax, 4
  00073	ba 10 00 00 00	 mov	 edx, 16			; 00000010H
  00078	0f 45 c2	 cmovne	 eax, edx
; File C:\IAGOS\server\v18\Source\Source\_Common\modelobject.cpp

; 1729 : 				for( j = 0; j < pElem->m_pObject3D->GetMaxObject(); j ++ )

  0007b	33 ff		 xor	 edi, edi
; File C:\IAGOS\server\v18\Source\Source\_Common\Object3d.h

; 311  : 		m_pGroup = &m_Group[nLevel]; 

  0007d	03 c1		 add	 eax, ecx
  0007f	89 01		 mov	 DWORD PTR [ecx], eax

; 281  : 	int		GetMaxObject( void ) { return m_pGroup->m_nMaxObject; }

  00081	8b 8e b0 fe ff
	ff		 mov	 ecx, DWORD PTR [esi-336]
  00087	8b 01		 mov	 eax, DWORD PTR [ecx]
; File C:\IAGOS\server\v18\Source\Source\_Common\modelobject.cpp

; 1729 : 				for( j = 0; j < pElem->m_pObject3D->GetMaxObject(); j ++ )

  00089	39 38		 cmp	 DWORD PTR [eax], edi
  0008b	7e 2a		 jle	 SHORT $LN9@DeleteDevi
  0008d	0f 1f 00	 npad	 3
$LL10@DeleteDevi:

; 1730 : 					SAFE_RELEASE( pElem->m_ppd3d_VB2[j] );

  00090	8b 46 fc	 mov	 eax, DWORD PTR [esi-4]
  00093	8b 0c b8	 mov	 ecx, DWORD PTR [eax+edi*4]
  00096	85 c9		 test	 ecx, ecx
  00098	74 10		 je	 SHORT $LN8@DeleteDevi
  0009a	8b 01		 mov	 eax, DWORD PTR [ecx]
  0009c	51		 push	 ecx
  0009d	ff 50 08	 call	 DWORD PTR [eax+8]
  000a0	8b 46 fc	 mov	 eax, DWORD PTR [esi-4]
  000a3	c7 04 b8 00 00
	00 00		 mov	 DWORD PTR [eax+edi*4], 0
$LN8@DeleteDevi:
; File C:\IAGOS\server\v18\Source\Source\_Common\Object3d.h

; 281  : 	int		GetMaxObject( void ) { return m_pGroup->m_nMaxObject; }

  000aa	8b 8e b0 fe ff
	ff		 mov	 ecx, DWORD PTR [esi-336]
; File C:\IAGOS\server\v18\Source\Source\_Common\modelobject.cpp

; 1729 : 				for( j = 0; j < pElem->m_pObject3D->GetMaxObject(); j ++ )

  000b0	47		 inc	 edi
; File C:\IAGOS\server\v18\Source\Source\_Common\Object3d.h

; 281  : 	int		GetMaxObject( void ) { return m_pGroup->m_nMaxObject; }

  000b1	8b 01		 mov	 eax, DWORD PTR [ecx]
; File C:\IAGOS\server\v18\Source\Source\_Common\modelobject.cpp

; 1729 : 				for( j = 0; j < pElem->m_pObject3D->GetMaxObject(); j ++ )

  000b3	3b 38		 cmp	 edi, DWORD PTR [eax]
  000b5	7c d9		 jl	 SHORT $LL10@DeleteDevi
$LN9@DeleteDevi:
; File C:\IAGOS\server\v18\Source\Source\_Common\Object3d.h

; 311  : 		m_pGroup = &m_Group[nLevel]; 

  000b7	83 b9 b4 00 00
	00 00		 cmp	 DWORD PTR [ecx+180], 0
  000be	b8 04 00 00 00	 mov	 eax, 4
  000c3	ba 1c 00 00 00	 mov	 edx, 28			; 0000001cH
  000c8	0f 45 c2	 cmovne	 eax, edx
; File C:\IAGOS\server\v18\Source\Source\_Common\modelobject.cpp

; 1732 : 				for( j = 0; j < pElem->m_pObject3D->GetMaxObject(); j ++ )

  000cb	33 ff		 xor	 edi, edi
; File C:\IAGOS\server\v18\Source\Source\_Common\Object3d.h

; 311  : 		m_pGroup = &m_Group[nLevel]; 

  000cd	03 c1		 add	 eax, ecx
  000cf	89 01		 mov	 DWORD PTR [ecx], eax

; 281  : 	int		GetMaxObject( void ) { return m_pGroup->m_nMaxObject; }

  000d1	8b 8e b0 fe ff
	ff		 mov	 ecx, DWORD PTR [esi-336]
  000d7	8b 01		 mov	 eax, DWORD PTR [ecx]
; File C:\IAGOS\server\v18\Source\Source\_Common\modelobject.cpp

; 1732 : 				for( j = 0; j < pElem->m_pObject3D->GetMaxObject(); j ++ )

  000d9	39 38		 cmp	 DWORD PTR [eax], edi
  000db	7e 28		 jle	 SHORT $LN12@DeleteDevi
  000dd	0f 1f 00	 npad	 3
$LL13@DeleteDevi:

; 1733 : 					SAFE_RELEASE( pElem->m_ppd3d_VB3[j] );

  000e0	8b 06		 mov	 eax, DWORD PTR [esi]
  000e2	8b 0c b8	 mov	 ecx, DWORD PTR [eax+edi*4]
  000e5	85 c9		 test	 ecx, ecx
  000e7	74 0f		 je	 SHORT $LN11@DeleteDevi
  000e9	8b 01		 mov	 eax, DWORD PTR [ecx]
  000eb	51		 push	 ecx
  000ec	ff 50 08	 call	 DWORD PTR [eax+8]
  000ef	8b 06		 mov	 eax, DWORD PTR [esi]
  000f1	c7 04 b8 00 00
	00 00		 mov	 DWORD PTR [eax+edi*4], 0
$LN11@DeleteDevi:
; File C:\IAGOS\server\v18\Source\Source\_Common\Object3d.h

; 281  : 	int		GetMaxObject( void ) { return m_pGroup->m_nMaxObject; }

  000f8	8b 8e b0 fe ff
	ff		 mov	 ecx, DWORD PTR [esi-336]
; File C:\IAGOS\server\v18\Source\Source\_Common\modelobject.cpp

; 1732 : 				for( j = 0; j < pElem->m_pObject3D->GetMaxObject(); j ++ )

  000fe	47		 inc	 edi
; File C:\IAGOS\server\v18\Source\Source\_Common\Object3d.h

; 281  : 	int		GetMaxObject( void ) { return m_pGroup->m_nMaxObject; }

  000ff	8b 01		 mov	 eax, DWORD PTR [ecx]
; File C:\IAGOS\server\v18\Source\Source\_Common\modelobject.cpp

; 1732 : 				for( j = 0; j < pElem->m_pObject3D->GetMaxObject(); j ++ )

  00101	3b 38		 cmp	 edi, DWORD PTR [eax]
  00103	7c db		 jl	 SHORT $LL13@DeleteDevi
$LN12@DeleteDevi:
; File C:\IAGOS\server\v18\Source\Source\_Common\Object3d.h

; 311  : 		m_pGroup = &m_Group[nLevel]; 

  00105	8d 41 04	 lea	 eax, DWORD PTR [ecx+4]
  00108	89 01		 mov	 DWORD PTR [ecx], eax
$LN2@DeleteDevi:
; File C:\IAGOS\server\v18\Source\Source\_Common\modelobject.cpp

; 1717 : 	for( i = 0; i < MAX_ELEMENT; i ++ )

  0010a	81 c6 fc 01 00
	00		 add	 esi, 508		; 000001fcH
  00110	83 eb 01	 sub	 ebx, 1
  00113	0f 85 f7 fe ff
	ff		 jne	 $LL4@DeleteDevi
  00119	5f		 pop	 edi
  0011a	5e		 pop	 esi
  0011b	5b		 pop	 ebx

; 1734 : 				pElem->m_pObject3D->SetLOD(0);
; 1735 : 	//				SAFE_DELETE_ARRAY( pElem->m_ppd3d_VB );	// 여기서 이걸 삭제하면 안된다. device 자원만 삭제.
; 1736 : 			}
; 1737 : //			pObject3D->DeleteDeviceObjects();
; 1738 : 		}
; 1739 : 	}
; 1740 : 
; 1741 : #ifdef __ATTACH_MODEL
; 1742 : 	DeleteAttachModelDeviceObjects();
; 1743 : #endif //__ATTACH_MODEL
; 1744 : 
; 1745 : 	return  S_OK;

  0011c	33 c0		 xor	 eax, eax

; 1746 : }	

  0011e	c3		 ret	 0
?DeleteDeviceObjects@CModelObject@@UAEJXZ ENDP		; CModelObject::DeleteDeviceObjects
_TEXT	ENDS
; Function compile flags: /Ogtp
; File C:\IAGOS\server\v18\Source\Source\_Common\modelobject.cpp
;	COMDAT ?InvalidateDeviceObjects@CModelObject@@UAEJXZ
_TEXT	SEGMENT
?InvalidateDeviceObjects@CModelObject@@UAEJXZ PROC	; CModelObject::InvalidateDeviceObjects, COMDAT
; _this$ = ecx

; 1685 : {

  00000	53		 push	 ebx
  00001	56		 push	 esi
  00002	8b f1		 mov	 esi, ecx
  00004	57		 push	 edi

; 1686 : 	DeleteDeviceObjects();

  00005	8b 06		 mov	 eax, DWORD PTR [esi]
  00007	ff 50 64	 call	 DWORD PTR [eax+100]

; 1687 : 
; 1688 : 	if( m_pPartsEffect )

  0000a	8b 8e a0 2a 00
	00		 mov	 ecx, DWORD PTR [esi+10912]
  00010	8d 7e 04	 lea	 edi, DWORD PTR [esi+4]
  00013	85 c9		 test	 ecx, ecx
  00015	74 07		 je	 SHORT $LN11@Invalidate

; 1689 : 		m_pPartsEffect->InvalidateDeviceObjects( m_pd3dDevice );

  00017	8b 01		 mov	 eax, DWORD PTR [ecx]
  00019	ff 37		 push	 DWORD PTR [edi]
  0001b	ff 50 04	 call	 DWORD PTR [eax+4]
$LN11@Invalidate:

; 1690 : 	if( m_pPartsEffect2 )

  0001e	8b 8e a4 2a 00
	00		 mov	 ecx, DWORD PTR [esi+10916]
  00024	85 c9		 test	 ecx, ecx
  00026	74 07		 je	 SHORT $LN3@Invalidate

; 1691 : 		m_pPartsEffect2->InvalidateDeviceObjects( m_pd3dDevice );

  00028	8b 01		 mov	 eax, DWORD PTR [ecx]
  0002a	ff 37		 push	 DWORD PTR [edi]
  0002c	ff 50 04	 call	 DWORD PTR [eax+4]
$LN3@Invalidate:

; 1692 : #ifdef __NEW_WEAPON_GLOW
; 1693 : 	if( m_pm_pPartsEffectRegular[0] )

  0002f	8b 8e a8 2a 00
	00		 mov	 ecx, DWORD PTR [esi+10920]
  00035	8b df		 mov	 ebx, edi
  00037	85 c9		 test	 ecx, ecx
  00039	74 0a		 je	 SHORT $LN4@Invalidate

; 1694 : 		m_pm_pPartsEffectRegular[0]->InvalidateDeviceObjects( m_pd3dDevice );

  0003b	8b 01		 mov	 eax, DWORD PTR [ecx]
  0003d	ff 37		 push	 DWORD PTR [edi]
  0003f	ff 50 04	 call	 DWORD PTR [eax+4]
  00042	8d 5e 04	 lea	 ebx, DWORD PTR [esi+4]
$LN4@Invalidate:

; 1695 : 	if( m_pm_pPartsEffectRegular[1] )

  00045	8b 8e ac 2a 00
	00		 mov	 ecx, DWORD PTR [esi+10924]
  0004b	85 c9		 test	 ecx, ecx
  0004d	74 09		 je	 SHORT $LN5@Invalidate

; 1696 : 		m_pm_pPartsEffectRegular[1]->InvalidateDeviceObjects( m_pd3dDevice );

  0004f	8b 01		 mov	 eax, DWORD PTR [ecx]
  00051	ff 37		 push	 DWORD PTR [edi]
  00053	ff 50 04	 call	 DWORD PTR [eax+4]
  00056	8b fb		 mov	 edi, ebx
$LN5@Invalidate:

; 1697 : 	if( m_pm_pPartsEffectElement[0] )

  00058	8b 8e b0 2a 00
	00		 mov	 ecx, DWORD PTR [esi+10928]
  0005e	85 c9		 test	 ecx, ecx
  00060	74 07		 je	 SHORT $LN6@Invalidate

; 1698 : 		m_pm_pPartsEffectElement[0]->InvalidateDeviceObjects( m_pd3dDevice );

  00062	8b 01		 mov	 eax, DWORD PTR [ecx]
  00064	ff 37		 push	 DWORD PTR [edi]
  00066	ff 50 04	 call	 DWORD PTR [eax+4]
$LN6@Invalidate:

; 1699 : 	if( m_pm_pPartsEffectElement[1] )

  00069	8b 8e b4 2a 00
	00		 mov	 ecx, DWORD PTR [esi+10932]
  0006f	8b df		 mov	 ebx, edi
  00071	85 c9		 test	 ecx, ecx
  00073	74 0a		 je	 SHORT $LN7@Invalidate

; 1700 : 		m_pm_pPartsEffectElement[1]->InvalidateDeviceObjects( m_pd3dDevice );

  00075	8b 01		 mov	 eax, DWORD PTR [ecx]
  00077	ff 37		 push	 DWORD PTR [edi]
  00079	ff 50 04	 call	 DWORD PTR [eax+4]
  0007c	8d 5e 04	 lea	 ebx, DWORD PTR [esi+4]
$LN7@Invalidate:

; 1701 : #endif // __NEW_WEAPON_GLOW
; 1702 : #if __VER >= 9 // __Y_ADV_ENCHANT_EFFECT
; 1703 : 	if( m_pPartsEffect1_Detail )

  0007f	8b 8e b8 2a 00
	00		 mov	 ecx, DWORD PTR [esi+10936]
  00085	85 c9		 test	 ecx, ecx
  00087	74 09		 je	 SHORT $LN8@Invalidate

; 1704 : 		m_pPartsEffect1_Detail->InvalidateDeviceObjects( m_pd3dDevice );

  00089	8b 01		 mov	 eax, DWORD PTR [ecx]
  0008b	ff 37		 push	 DWORD PTR [edi]
  0008d	ff 50 04	 call	 DWORD PTR [eax+4]
  00090	8b fb		 mov	 edi, ebx
$LN8@Invalidate:

; 1705 : 	if( m_pPartsEffect2_Detail )

  00092	8b 8e bc 2a 00
	00		 mov	 ecx, DWORD PTR [esi+10940]
  00098	85 c9		 test	 ecx, ecx
  0009a	74 07		 je	 SHORT $LN12@Invalidate

; 1706 : 		m_pPartsEffect2_Detail->InvalidateDeviceObjects( m_pd3dDevice );

  0009c	8b 01		 mov	 eax, DWORD PTR [ecx]
  0009e	ff 37		 push	 DWORD PTR [edi]
  000a0	ff 50 04	 call	 DWORD PTR [eax+4]
$LN12@Invalidate:

; 1707 : #endif //__Y_ADV_ENCHANT_EFFECT
; 1708 : 
; 1709 : 	return  S_OK;
; 1710 : }	

  000a3	5f		 pop	 edi
  000a4	5e		 pop	 esi
  000a5	33 c0		 xor	 eax, eax
  000a7	5b		 pop	 ebx
  000a8	c3		 ret	 0
?InvalidateDeviceObjects@CModelObject@@UAEJXZ ENDP	; CModelObject::InvalidateDeviceObjects
_TEXT	ENDS
; Function compile flags: /Ogtp
; File C:\IAGOS\server\v18\Source\Source\_Common\modelobject.cpp
;	COMDAT ?RestoreDeviceObjects@CModelObject@@UAEJXZ
_TEXT	SEGMENT
?RestoreDeviceObjects@CModelObject@@UAEJXZ PROC		; CModelObject::RestoreDeviceObjects, COMDAT
; _this$ = ecx

; 1640 : {

  00000	53		 push	 ebx
  00001	56		 push	 esi
  00002	57		 push	 edi
  00003	8b f9		 mov	 edi, ecx

; 1641 : 	int		i;
; 1642 : 	O3D_ELEMENT	*pElem;
; 1643 : 	CObject3D	*pObject3D;
; 1644 : 
; 1645 : 	SetGroup(0);

  00005	6a 00		 push	 0
  00007	8b 07		 mov	 eax, DWORD PTR [edi]
  00009	ff 50 44	 call	 DWORD PTR [eax+68]
  0000c	8d b7 1c 02 00
	00		 lea	 esi, DWORD PTR [edi+540]
  00012	bb 15 00 00 00	 mov	 ebx, 21			; 00000015H
  00017	66 0f 1f 84 00
	00 00 00 00	 npad	 9
$LL4@RestoreDev:

; 1647 : 	{
; 1648 : 		pElem = &m_Element[i];
; 1649 : 		pObject3D = pElem->m_pObject3D;

  00020	8b 8e bc fe ff
	ff		 mov	 ecx, DWORD PTR [esi-324]

; 1650 : 		if( pObject3D )

  00026	85 c9		 test	 ecx, ecx
  00028	74 09		 je	 SHORT $LN2@RestoreDev

; 1651 : 		{
; 1652 : 			// pElem이 스킨일땐 m_ppd3d_VB[]에 버텍스버퍼가 담겨서 돌아온다.
; 1653 : 			pObject3D->RestoreDeviceObjects( pElem->m_ppd3d_VB );

  0002a	6a 01		 push	 1
  0002c	ff 36		 push	 DWORD PTR [esi]
  0002e	e8 00 00 00 00	 call	 ?RestoreDeviceObjects@CObject3D@@QAEJPAPAUIDirect3DVertexBuffer9@@W4_D3DPOOL@@@Z ; CObject3D::RestoreDeviceObjects
$LN2@RestoreDev:

; 1646 : 	for( i = 0; i < MAX_ELEMENT; i ++ )

  00033	81 c6 fc 01 00
	00		 add	 esi, 508		; 000001fcH
  00039	83 eb 01	 sub	 ebx, 1
  0003c	75 e2		 jne	 SHORT $LL4@RestoreDev

; 1654 : 		}
; 1655 : 	}
; 1656 : 	
; 1657 : 	if( m_pPartsEffect )

  0003e	8b 8f a0 2a 00
	00		 mov	 ecx, DWORD PTR [edi+10912]
  00044	8d 77 04	 lea	 esi, DWORD PTR [edi+4]
  00047	85 c9		 test	 ecx, ecx
  00049	74 07		 je	 SHORT $LN6@RestoreDev

; 1658 : 		m_pPartsEffect->RestoreDeviceObjects( m_pd3dDevice );

  0004b	8b 01		 mov	 eax, DWORD PTR [ecx]
  0004d	ff 36		 push	 DWORD PTR [esi]
  0004f	ff 50 08	 call	 DWORD PTR [eax+8]
$LN6@RestoreDev:

; 1659 : 	if( m_pPartsEffect2 )

  00052	8b 8f a4 2a 00
	00		 mov	 ecx, DWORD PTR [edi+10916]
  00058	85 c9		 test	 ecx, ecx
  0005a	74 07		 je	 SHORT $LN7@RestoreDev

; 1660 : 		m_pPartsEffect2->RestoreDeviceObjects( m_pd3dDevice );

  0005c	8b 01		 mov	 eax, DWORD PTR [ecx]
  0005e	ff 36		 push	 DWORD PTR [esi]
  00060	ff 50 08	 call	 DWORD PTR [eax+8]
$LN7@RestoreDev:

; 1661 : #ifdef __NEW_WEAPON_GLOW
; 1662 : 	if( m_pm_pPartsEffectRegular[0] )

  00063	8b 8f a8 2a 00
	00		 mov	 ecx, DWORD PTR [edi+10920]
  00069	8b de		 mov	 ebx, esi
  0006b	85 c9		 test	 ecx, ecx
  0006d	74 0a		 je	 SHORT $LN8@RestoreDev

; 1663 : 		m_pm_pPartsEffectRegular[0]->RestoreDeviceObjects( m_pd3dDevice );

  0006f	8b 01		 mov	 eax, DWORD PTR [ecx]
  00071	ff 36		 push	 DWORD PTR [esi]
  00073	ff 50 08	 call	 DWORD PTR [eax+8]
  00076	8d 5f 04	 lea	 ebx, DWORD PTR [edi+4]
$LN8@RestoreDev:

; 1664 : 	if( m_pm_pPartsEffectRegular[1] )

  00079	8b 8f ac 2a 00
	00		 mov	 ecx, DWORD PTR [edi+10924]
  0007f	85 c9		 test	 ecx, ecx
  00081	74 09		 je	 SHORT $LN9@RestoreDev

; 1665 : 		m_pm_pPartsEffectRegular[1]->RestoreDeviceObjects( m_pd3dDevice );

  00083	8b 01		 mov	 eax, DWORD PTR [ecx]
  00085	ff 36		 push	 DWORD PTR [esi]
  00087	ff 50 08	 call	 DWORD PTR [eax+8]
  0008a	8b f3		 mov	 esi, ebx
$LN9@RestoreDev:

; 1666 : 	if( m_pm_pPartsEffectElement[0] )

  0008c	8b 8f b0 2a 00
	00		 mov	 ecx, DWORD PTR [edi+10928]
  00092	85 c9		 test	 ecx, ecx
  00094	74 07		 je	 SHORT $LN10@RestoreDev

; 1667 : 		m_pm_pPartsEffectElement[0]->RestoreDeviceObjects( m_pd3dDevice );

  00096	8b 01		 mov	 eax, DWORD PTR [ecx]
  00098	ff 36		 push	 DWORD PTR [esi]
  0009a	ff 50 08	 call	 DWORD PTR [eax+8]
$LN10@RestoreDev:

; 1668 : 	if( m_pm_pPartsEffectElement[1] )

  0009d	8b 8f b4 2a 00
	00		 mov	 ecx, DWORD PTR [edi+10932]
  000a3	8b de		 mov	 ebx, esi
  000a5	85 c9		 test	 ecx, ecx
  000a7	74 0a		 je	 SHORT $LN11@RestoreDev

; 1669 : 		m_pm_pPartsEffectElement[1]->RestoreDeviceObjects( m_pd3dDevice );

  000a9	8b 01		 mov	 eax, DWORD PTR [ecx]
  000ab	ff 36		 push	 DWORD PTR [esi]
  000ad	ff 50 08	 call	 DWORD PTR [eax+8]
  000b0	8d 5f 04	 lea	 ebx, DWORD PTR [edi+4]
$LN11@RestoreDev:

; 1670 : #endif // __NEW_WEAPON_GLOW
; 1671 : #if __VER >= 9 // __Y_ADV_ENCHANT_EFFECT
; 1672 : 	if( m_pPartsEffect1_Detail )

  000b3	8b 8f b8 2a 00
	00		 mov	 ecx, DWORD PTR [edi+10936]
  000b9	85 c9		 test	 ecx, ecx
  000bb	74 09		 je	 SHORT $LN12@RestoreDev

; 1673 : 		m_pPartsEffect1_Detail->RestoreDeviceObjects( m_pd3dDevice );

  000bd	8b 01		 mov	 eax, DWORD PTR [ecx]
  000bf	ff 36		 push	 DWORD PTR [esi]
  000c1	ff 50 08	 call	 DWORD PTR [eax+8]
  000c4	8b f3		 mov	 esi, ebx
$LN12@RestoreDev:

; 1674 : 	if( m_pPartsEffect2_Detail )

  000c6	8b 8f bc 2a 00
	00		 mov	 ecx, DWORD PTR [edi+10940]
  000cc	85 c9		 test	 ecx, ecx
  000ce	74 07		 je	 SHORT $LN20@RestoreDev

; 1675 : 		m_pPartsEffect2_Detail->RestoreDeviceObjects( m_pd3dDevice );

  000d0	8b 01		 mov	 eax, DWORD PTR [ecx]
  000d2	ff 36		 push	 DWORD PTR [esi]
  000d4	ff 50 08	 call	 DWORD PTR [eax+8]
$LN20@RestoreDev:

; 1676 : #endif //__Y_ADV_ENCHANT_EFFECT
; 1677 : 
; 1678 : #ifdef __ATTACH_MODEL
; 1679 : 	RestoreAttachModelDeviceObjects();
; 1680 : #endif //__ATTACH_MODEL
; 1681 : 
; 1682 : 	return S_OK;
; 1683 : }	

  000d7	5f		 pop	 edi
  000d8	5e		 pop	 esi
  000d9	33 c0		 xor	 eax, eax
  000db	5b		 pop	 ebx
  000dc	c3		 ret	 0
?RestoreDeviceObjects@CModelObject@@UAEJXZ ENDP		; CModelObject::RestoreDeviceObjects
_TEXT	ENDS
; Function compile flags: /Ogtp
; File C:\IAGOS\server\v18\Source\Source\_Common\modelobject.cpp
;	COMDAT ?InitDeviceObjects@CModelObject@@UAEJPAUIDirect3DDevice9@@@Z
_TEXT	SEGMENT
_pd3dDevice$ = 8					; size = 4
?InitDeviceObjects@CModelObject@@UAEJPAUIDirect3DDevice9@@@Z PROC ; CModelObject::InitDeviceObjects, COMDAT
; _this$ = ecx

; 1630 : { 

  00000	55		 push	 ebp
  00001	8b ec		 mov	 ebp, esp

; 1631 : 	m_pd3dDevice = pd3dDevice;

  00003	8b 45 08	 mov	 eax, DWORD PTR _pd3dDevice$[ebp]
  00006	89 41 04	 mov	 DWORD PTR [ecx+4], eax

; 1632 : 
; 1633 : #ifdef __ATTACH_MODEL
; 1634 : 	InitAttachModelDeviceObjects(pd3dDevice);
; 1635 : #endif //__ATTACH_MODEL
; 1636 : 	return S_OK; 

  00009	33 c0		 xor	 eax, eax

; 1637 : }

  0000b	5d		 pop	 ebp
  0000c	c2 04 00	 ret	 4
?InitDeviceObjects@CModelObject@@UAEJPAUIDirect3DDevice9@@@Z ENDP ; CModelObject::InitDeviceObjects
_TEXT	ENDS
; Function compile flags: /Ogtp
; File C:\IAGOS\server\v18\Source\Source\_Common\ModelObject.h
;	COMDAT ?LoadModel@CModelObject@@UAEHPBD@Z
_TEXT	SEGMENT
_szFileName$ = 8					; size = 4
?LoadModel@CModelObject@@UAEHPBD@Z PROC			; CModelObject::LoadModel, COMDAT
; _this$ = ecx

; 412  : 	int LoadModel( LPCTSTR szFileName ) { return LoadElement( szFileName, 0 ); }

  00000	55		 push	 ebp
  00001	8b ec		 mov	 ebp, esp
  00003	6a 00		 push	 0
  00005	ff 75 08	 push	 DWORD PTR _szFileName$[ebp]
  00008	e8 00 00 00 00	 call	 ?LoadElement@CModelObject@@QAEHPBDH@Z ; CModelObject::LoadElement
  0000d	5d		 pop	 ebp
  0000e	c2 04 00	 ret	 4
?LoadModel@CModelObject@@UAEHPBD@Z ENDP			; CModelObject::LoadModel
_TEXT	ENDS
; Function compile flags: /Ogtp
; File C:\IAGOS\server\v18\Source\Source\_Common\modelobject.cpp
;	COMDAT ?TestIntersectionOBB_Line@CModelObject@@UAEHABVSegment3@@PBVCObj@@H@Z
_TEXT	SEGMENT
_segment$ = 8						; size = 4
_pObj$ = 12						; size = 4
_bNeedCollObject$ = 16					; size = 4
?TestIntersectionOBB_Line@CModelObject@@UAEHABVSegment3@@PBVCObj@@H@Z PROC ; CModelObject::TestIntersectionOBB_Line, COMDAT
; _this$ = ecx

; 400  : {

  00000	55		 push	 ebp
  00001	8b ec		 mov	 ebp, esp

; 401  : 	CObject3D* pObject3D = m_Element[0].m_pObject3D;
; 402  : 	if (pObject3D->m_CollObject.m_Type == GMT_ERROR && bNeedCollObject)

  00003	8b 81 d8 00 00
	00		 mov	 eax, DWORD PTR [ecx+216]
  00009	56		 push	 esi
  0000a	57		 push	 edi
  0000b	83 b8 00 01 00
	00 ff		 cmp	 DWORD PTR [eax+256], -1
  00012	75 06		 jne	 SHORT $LN2@TestInters
  00014	83 7d 10 00	 cmp	 DWORD PTR _bNeedCollObject$[ebp], 0
  00018	75 45		 jne	 SHORT $LN7@TestInters
$LN2@TestInters:

; 403  : 		return FALSE;
; 404  : 
; 405  : #if __VER >= 11
; 406  : 	char* pString = ((CModelObject*)pObj->m_pModel)->GetObject3D()->m_szFileName;

  0001a	8b 7d 0c	 mov	 edi, DWORD PTR _pObj$[ebp]
  0001d	8b 87 78 01 00
	00		 mov	 eax, DWORD PTR [edi+376]
  00023	8b b0 d8 00 00
	00		 mov	 esi, DWORD PTR [eax+216]

; 407  : 	if (strcmp("obj_g_clovers02.o3d", pString) == 0)

  00029	b8 00 00 00 00	 mov	 eax, OFFSET ??_C@_0BE@ODMCHIHJ@obj_g_clovers02?4o3d@
  0002e	81 c6 c0 00 00
	00		 add	 esi, 192		; 000000c0H
  00034	8b ce		 mov	 ecx, esi
$LL9@TestInters:
  00036	8a 10		 mov	 dl, BYTE PTR [eax]
  00038	3a 11		 cmp	 dl, BYTE PTR [ecx]
  0003a	75 1a		 jne	 SHORT $LN10@TestInters
  0003c	84 d2		 test	 dl, dl
  0003e	74 12		 je	 SHORT $LN11@TestInters
  00040	8a 50 01	 mov	 dl, BYTE PTR [eax+1]
  00043	3a 51 01	 cmp	 dl, BYTE PTR [ecx+1]
  00046	75 0e		 jne	 SHORT $LN10@TestInters
  00048	83 c0 02	 add	 eax, 2
  0004b	83 c1 02	 add	 ecx, 2
  0004e	84 d2		 test	 dl, dl
  00050	75 e4		 jne	 SHORT $LL9@TestInters
$LN11@TestInters:
  00052	33 c0		 xor	 eax, eax
  00054	eb 05		 jmp	 SHORT $LN12@TestInters
$LN10@TestInters:
  00056	1b c0		 sbb	 eax, eax
  00058	83 c8 01	 or	 eax, 1
$LN12@TestInters:
  0005b	85 c0		 test	 eax, eax
  0005d	75 08		 jne	 SHORT $LN3@TestInters
$LN7@TestInters:
  0005f	5f		 pop	 edi

; 408  : 		return FALSE;

  00060	33 c0		 xor	 eax, eax

; 444  : #else
; 445  : 	const D3DXMATRIX& mWorld = pObj->GetMatrixWorld();
; 446  : 	D3DXVECTOR3 vTemp;
; 447  : 	D3DXVECTOR3 vStart, vEnd;
; 448  : 	vStart = segment.Origin - segment.Extent * segment.Direction;
; 449  : 	vEnd = segment.Origin + segment.Extent * segment.Direction;
; 450  : 	return ::IsTouchOBB_Line(m_vMin, m_vMax, mWorld, vStart, vEnd, &vTemp);
; 451  : #endif
; 452  : }

  00062	5e		 pop	 esi
  00063	5d		 pop	 ebp
  00064	c2 0c 00	 ret	 12			; 0000000cH
$LN3@TestInters:

; 409  : 
; 410  : 	if (strcmp("obj_guildcombatground.o3d", pString) == 0
; 411  : 		|| strcmp("obj_kalgasbridge01.o3d", pString) == 0
; 412  : 		|| strcmp("obj_kalgasbridge02.o3d", pString) == 0
; 413  : 		|| strcmp("obj_kalgasrock01.o3d", pString) == 0
; 414  : 		|| strcmp("obj_kalgasrock02.o3d", pString) == 0
; 415  : 		|| strcmp("obj_kalgasrockwall01.o3d", pString) == 0
; 416  : 		|| strcmp("obj_kalgasrockwall02.o3d", pString) == 0
; 417  : 		|| strcmp("obj_kalgasbossstone.o3d", pString) == 0
; 418  : 		|| strcmp("obj_kalgasbossstone_01.o3d", pString) == 0
; 419  : 		|| strcmp("obj_kalgasceiling01.o3d", pString) == 0
; 420  : 		|| strcmp("obj_kalgasceiling02.o3d", pString) == 0
; 421  : 		|| strcmp("obj_kalgasent01.o3d", pString) == 0
; 422  : 		|| strcmp("obj_kalgasekinsrock01.o3d", pString) == 0
; 423  : 		|| strcmp("obj_kalgasekinsrock02.o3d", pString) == 0
; 424  : 		|| strcmp("obj_kalgasekinsrock03.o3d", pString) == 0
; 425  : 		|| strcmp("obj_kalgasekinsrock04.o3d", pString) == 0
; 426  : 		|| strcmp("obj_kalgasekinrock01.o3d", pString) == 0
; 427  : 		|| strcmp("obj_kalgasekinrock02.o3d", pString) == 0
; 428  : 		|| strcmp("obj_kalgasekinent01.o3d", pString) == 0
; 429  : 		|| strcmp("obj_kalgasekin01.o3d", pString) == 0
; 430  : 		|| strcmp("obj_newflchair01.o3d", pString) == 0
; 431  : 		|| strcmp("obj_newfllight01.o3d", pString) == 0
; 432  : 		|| strcmp("obj_kalgasbossufloor.o3d", pString) == 0
; 433  : 		|| strcmp("obj_kalgasbossfloor.o3d", pString) == 0
; 434  : 		|| strcmp("obj_behebossfloor01.o3d", pString) == 0
; 435  : 		|| strcmp("obj_behebossfloor02.o3d", pString) == 0
; 436  : 		|| strcmp("obj_behecirclefloor01.o3d", pString) == 0

  00067	8b ce		 mov	 ecx, esi
  00069	b8 00 00 00 00	 mov	 eax, OFFSET ??_C@_0BK@LAMMKEEK@obj_guildcombatground?4o3d@
  0006e	66 90		 npad	 2
$LL13@TestInters:
  00070	8a 10		 mov	 dl, BYTE PTR [eax]
  00072	3a 11		 cmp	 dl, BYTE PTR [ecx]
  00074	75 1a		 jne	 SHORT $LN14@TestInters
  00076	84 d2		 test	 dl, dl
  00078	74 12		 je	 SHORT $LN15@TestInters
  0007a	8a 50 01	 mov	 dl, BYTE PTR [eax+1]
  0007d	3a 51 01	 cmp	 dl, BYTE PTR [ecx+1]
  00080	75 0e		 jne	 SHORT $LN14@TestInters
  00082	83 c0 02	 add	 eax, 2
  00085	83 c1 02	 add	 ecx, 2
  00088	84 d2		 test	 dl, dl
  0008a	75 e4		 jne	 SHORT $LL13@TestInters
$LN15@TestInters:
  0008c	33 c0		 xor	 eax, eax
  0008e	eb 05		 jmp	 SHORT $LN16@TestInters
$LN14@TestInters:
  00090	1b c0		 sbb	 eax, eax
  00092	83 c8 01	 or	 eax, 1
$LN16@TestInters:
  00095	85 c0		 test	 eax, eax
  00097	0f 84 77 05 00
	00		 je	 $LN5@TestInters
  0009d	8b ce		 mov	 ecx, esi
  0009f	b8 00 00 00 00	 mov	 eax, OFFSET ??_C@_0BH@LFCMIHMN@obj_kalgasbridge01?4o3d@
$LL17@TestInters:
  000a4	8a 10		 mov	 dl, BYTE PTR [eax]
  000a6	3a 11		 cmp	 dl, BYTE PTR [ecx]
  000a8	75 1a		 jne	 SHORT $LN18@TestInters
  000aa	84 d2		 test	 dl, dl
  000ac	74 12		 je	 SHORT $LN19@TestInters
  000ae	8a 50 01	 mov	 dl, BYTE PTR [eax+1]
  000b1	3a 51 01	 cmp	 dl, BYTE PTR [ecx+1]
  000b4	75 0e		 jne	 SHORT $LN18@TestInters
  000b6	83 c0 02	 add	 eax, 2
  000b9	83 c1 02	 add	 ecx, 2
  000bc	84 d2		 test	 dl, dl
  000be	75 e4		 jne	 SHORT $LL17@TestInters
$LN19@TestInters:
  000c0	33 c0		 xor	 eax, eax
  000c2	eb 05		 jmp	 SHORT $LN20@TestInters
$LN18@TestInters:
  000c4	1b c0		 sbb	 eax, eax
  000c6	83 c8 01	 or	 eax, 1
$LN20@TestInters:
  000c9	85 c0		 test	 eax, eax
  000cb	0f 84 43 05 00
	00		 je	 $LN5@TestInters
  000d1	8b ce		 mov	 ecx, esi
  000d3	b8 00 00 00 00	 mov	 eax, OFFSET ??_C@_0BH@DDLIPFGD@obj_kalgasbridge02?4o3d@
$LL21@TestInters:
  000d8	8a 10		 mov	 dl, BYTE PTR [eax]
  000da	3a 11		 cmp	 dl, BYTE PTR [ecx]
  000dc	75 1a		 jne	 SHORT $LN22@TestInters
  000de	84 d2		 test	 dl, dl
  000e0	74 12		 je	 SHORT $LN23@TestInters
  000e2	8a 50 01	 mov	 dl, BYTE PTR [eax+1]
  000e5	3a 51 01	 cmp	 dl, BYTE PTR [ecx+1]
  000e8	75 0e		 jne	 SHORT $LN22@TestInters
  000ea	83 c0 02	 add	 eax, 2
  000ed	83 c1 02	 add	 ecx, 2
  000f0	84 d2		 test	 dl, dl
  000f2	75 e4		 jne	 SHORT $LL21@TestInters
$LN23@TestInters:
  000f4	33 c0		 xor	 eax, eax
  000f6	eb 05		 jmp	 SHORT $LN24@TestInters
$LN22@TestInters:
  000f8	1b c0		 sbb	 eax, eax
  000fa	83 c8 01	 or	 eax, 1
$LN24@TestInters:
  000fd	85 c0		 test	 eax, eax
  000ff	0f 84 0f 05 00
	00		 je	 $LN5@TestInters
  00105	8b ce		 mov	 ecx, esi
  00107	b8 00 00 00 00	 mov	 eax, OFFSET ??_C@_0BF@MGJNDMK@obj_kalgasrock01?4o3d@
  0010c	0f 1f 40 00	 npad	 4
$LL25@TestInters:
  00110	8a 10		 mov	 dl, BYTE PTR [eax]
  00112	3a 11		 cmp	 dl, BYTE PTR [ecx]
  00114	75 1a		 jne	 SHORT $LN26@TestInters
  00116	84 d2		 test	 dl, dl
  00118	74 12		 je	 SHORT $LN27@TestInters
  0011a	8a 50 01	 mov	 dl, BYTE PTR [eax+1]
  0011d	3a 51 01	 cmp	 dl, BYTE PTR [ecx+1]
  00120	75 0e		 jne	 SHORT $LN26@TestInters
  00122	83 c0 02	 add	 eax, 2
  00125	83 c1 02	 add	 ecx, 2
  00128	84 d2		 test	 dl, dl
  0012a	75 e4		 jne	 SHORT $LL25@TestInters
$LN27@TestInters:
  0012c	33 c0		 xor	 eax, eax
  0012e	eb 05		 jmp	 SHORT $LN28@TestInters
$LN26@TestInters:
  00130	1b c0		 sbb	 eax, eax
  00132	83 c8 01	 or	 eax, 1
$LN28@TestInters:
  00135	85 c0		 test	 eax, eax
  00137	0f 84 d7 04 00
	00		 je	 $LN5@TestInters
  0013d	8b ce		 mov	 ecx, esi
  0013f	b8 00 00 00 00	 mov	 eax, OFFSET ??_C@_0BF@IKPNKBGE@obj_kalgasrock02?4o3d@
$LL29@TestInters:
  00144	8a 10		 mov	 dl, BYTE PTR [eax]
  00146	3a 11		 cmp	 dl, BYTE PTR [ecx]
  00148	75 1a		 jne	 SHORT $LN30@TestInters
  0014a	84 d2		 test	 dl, dl
  0014c	74 12		 je	 SHORT $LN31@TestInters
  0014e	8a 50 01	 mov	 dl, BYTE PTR [eax+1]
  00151	3a 51 01	 cmp	 dl, BYTE PTR [ecx+1]
  00154	75 0e		 jne	 SHORT $LN30@TestInters
  00156	83 c0 02	 add	 eax, 2
  00159	83 c1 02	 add	 ecx, 2
  0015c	84 d2		 test	 dl, dl
  0015e	75 e4		 jne	 SHORT $LL29@TestInters
$LN31@TestInters:
  00160	33 c0		 xor	 eax, eax
  00162	eb 05		 jmp	 SHORT $LN32@TestInters
$LN30@TestInters:
  00164	1b c0		 sbb	 eax, eax
  00166	83 c8 01	 or	 eax, 1
$LN32@TestInters:
  00169	85 c0		 test	 eax, eax
  0016b	0f 84 a3 04 00
	00		 je	 $LN5@TestInters
  00171	8b ce		 mov	 ecx, esi
  00173	b8 00 00 00 00	 mov	 eax, OFFSET ??_C@_0BJ@EEJJLPAL@obj_kalgasrockwall01?4o3d@
$LL33@TestInters:
  00178	8a 10		 mov	 dl, BYTE PTR [eax]
  0017a	3a 11		 cmp	 dl, BYTE PTR [ecx]
  0017c	75 1a		 jne	 SHORT $LN34@TestInters
  0017e	84 d2		 test	 dl, dl
  00180	74 12		 je	 SHORT $LN35@TestInters
  00182	8a 50 01	 mov	 dl, BYTE PTR [eax+1]
  00185	3a 51 01	 cmp	 dl, BYTE PTR [ecx+1]
  00188	75 0e		 jne	 SHORT $LN34@TestInters
  0018a	83 c0 02	 add	 eax, 2
  0018d	83 c1 02	 add	 ecx, 2
  00190	84 d2		 test	 dl, dl
  00192	75 e4		 jne	 SHORT $LL33@TestInters
$LN35@TestInters:
  00194	33 c0		 xor	 eax, eax
  00196	eb 05		 jmp	 SHORT $LN36@TestInters
$LN34@TestInters:
  00198	1b c0		 sbb	 eax, eax
  0019a	83 c8 01	 or	 eax, 1
$LN36@TestInters:
  0019d	85 c0		 test	 eax, eax
  0019f	0f 84 6f 04 00
	00		 je	 $LN5@TestInters
  001a5	8b ce		 mov	 ecx, esi
  001a7	b8 00 00 00 00	 mov	 eax, OFFSET ??_C@_0BJ@MCANMNKF@obj_kalgasrockwall02?4o3d@
  001ac	0f 1f 40 00	 npad	 4
$LL37@TestInters:
  001b0	8a 10		 mov	 dl, BYTE PTR [eax]
  001b2	3a 11		 cmp	 dl, BYTE PTR [ecx]
  001b4	75 1a		 jne	 SHORT $LN38@TestInters
  001b6	84 d2		 test	 dl, dl
  001b8	74 12		 je	 SHORT $LN39@TestInters
  001ba	8a 50 01	 mov	 dl, BYTE PTR [eax+1]
  001bd	3a 51 01	 cmp	 dl, BYTE PTR [ecx+1]
  001c0	75 0e		 jne	 SHORT $LN38@TestInters
  001c2	83 c0 02	 add	 eax, 2
  001c5	83 c1 02	 add	 ecx, 2
  001c8	84 d2		 test	 dl, dl
  001ca	75 e4		 jne	 SHORT $LL37@TestInters
$LN39@TestInters:
  001cc	33 c0		 xor	 eax, eax
  001ce	eb 05		 jmp	 SHORT $LN40@TestInters
$LN38@TestInters:
  001d0	1b c0		 sbb	 eax, eax
  001d2	83 c8 01	 or	 eax, 1
$LN40@TestInters:
  001d5	85 c0		 test	 eax, eax
  001d7	0f 84 37 04 00
	00		 je	 $LN5@TestInters
  001dd	8b ce		 mov	 ecx, esi
  001df	b8 00 00 00 00	 mov	 eax, OFFSET ??_C@_0BI@FCHJCCLF@obj_kalgasbossstone?4o3d@
$LL41@TestInters:
  001e4	8a 10		 mov	 dl, BYTE PTR [eax]
  001e6	3a 11		 cmp	 dl, BYTE PTR [ecx]
  001e8	75 1a		 jne	 SHORT $LN42@TestInters
  001ea	84 d2		 test	 dl, dl
  001ec	74 12		 je	 SHORT $LN43@TestInters
  001ee	8a 50 01	 mov	 dl, BYTE PTR [eax+1]
  001f1	3a 51 01	 cmp	 dl, BYTE PTR [ecx+1]
  001f4	75 0e		 jne	 SHORT $LN42@TestInters
  001f6	83 c0 02	 add	 eax, 2
  001f9	83 c1 02	 add	 ecx, 2
  001fc	84 d2		 test	 dl, dl
  001fe	75 e4		 jne	 SHORT $LL41@TestInters
$LN43@TestInters:
  00200	33 c0		 xor	 eax, eax
  00202	eb 05		 jmp	 SHORT $LN44@TestInters
$LN42@TestInters:
  00204	1b c0		 sbb	 eax, eax
  00206	83 c8 01	 or	 eax, 1
$LN44@TestInters:
  00209	85 c0		 test	 eax, eax
  0020b	0f 84 03 04 00
	00		 je	 $LN5@TestInters
  00211	8b ce		 mov	 ecx, esi
  00213	b8 00 00 00 00	 mov	 eax, OFFSET ??_C@_0BL@ODOLEIJN@obj_kalgasbossstone_01?4o3d@
$LL45@TestInters:
  00218	8a 10		 mov	 dl, BYTE PTR [eax]
  0021a	3a 11		 cmp	 dl, BYTE PTR [ecx]
  0021c	75 1a		 jne	 SHORT $LN46@TestInters
  0021e	84 d2		 test	 dl, dl
  00220	74 12		 je	 SHORT $LN47@TestInters
  00222	8a 50 01	 mov	 dl, BYTE PTR [eax+1]
  00225	3a 51 01	 cmp	 dl, BYTE PTR [ecx+1]
  00228	75 0e		 jne	 SHORT $LN46@TestInters
  0022a	83 c0 02	 add	 eax, 2
  0022d	83 c1 02	 add	 ecx, 2
  00230	84 d2		 test	 dl, dl
  00232	75 e4		 jne	 SHORT $LL45@TestInters
$LN47@TestInters:
  00234	33 c0		 xor	 eax, eax
  00236	eb 05		 jmp	 SHORT $LN48@TestInters
$LN46@TestInters:
  00238	1b c0		 sbb	 eax, eax
  0023a	83 c8 01	 or	 eax, 1
$LN48@TestInters:
  0023d	85 c0		 test	 eax, eax
  0023f	0f 84 cf 03 00
	00		 je	 $LN5@TestInters
  00245	8b ce		 mov	 ecx, esi
  00247	b8 00 00 00 00	 mov	 eax, OFFSET ??_C@_0BI@BAHKIKAF@obj_kalgasceiling01?4o3d@
  0024c	0f 1f 40 00	 npad	 4
$LL49@TestInters:
  00250	8a 10		 mov	 dl, BYTE PTR [eax]
  00252	3a 11		 cmp	 dl, BYTE PTR [ecx]
  00254	75 1a		 jne	 SHORT $LN50@TestInters
  00256	84 d2		 test	 dl, dl
  00258	74 12		 je	 SHORT $LN51@TestInters
  0025a	8a 50 01	 mov	 dl, BYTE PTR [eax+1]
  0025d	3a 51 01	 cmp	 dl, BYTE PTR [ecx+1]
  00260	75 0e		 jne	 SHORT $LN50@TestInters
  00262	83 c0 02	 add	 eax, 2
  00265	83 c1 02	 add	 ecx, 2
  00268	84 d2		 test	 dl, dl
  0026a	75 e4		 jne	 SHORT $LL49@TestInters
$LN51@TestInters:
  0026c	33 c0		 xor	 eax, eax
  0026e	eb 05		 jmp	 SHORT $LN52@TestInters
$LN50@TestInters:
  00270	1b c0		 sbb	 eax, eax
  00272	83 c8 01	 or	 eax, 1
$LN52@TestInters:
  00275	85 c0		 test	 eax, eax
  00277	0f 84 97 03 00
	00		 je	 $LN5@TestInters
  0027d	8b ce		 mov	 ecx, esi
  0027f	b8 00 00 00 00	 mov	 eax, OFFSET ??_C@_0BI@JGOOPIKL@obj_kalgasceiling02?4o3d@
$LL53@TestInters:
  00284	8a 10		 mov	 dl, BYTE PTR [eax]
  00286	3a 11		 cmp	 dl, BYTE PTR [ecx]
  00288	75 1a		 jne	 SHORT $LN54@TestInters
  0028a	84 d2		 test	 dl, dl
  0028c	74 12		 je	 SHORT $LN55@TestInters
  0028e	8a 50 01	 mov	 dl, BYTE PTR [eax+1]
  00291	3a 51 01	 cmp	 dl, BYTE PTR [ecx+1]
  00294	75 0e		 jne	 SHORT $LN54@TestInters
  00296	83 c0 02	 add	 eax, 2
  00299	83 c1 02	 add	 ecx, 2
  0029c	84 d2		 test	 dl, dl
  0029e	75 e4		 jne	 SHORT $LL53@TestInters
$LN55@TestInters:
  002a0	33 c0		 xor	 eax, eax
  002a2	eb 05		 jmp	 SHORT $LN56@TestInters
$LN54@TestInters:
  002a4	1b c0		 sbb	 eax, eax
  002a6	83 c8 01	 or	 eax, 1
$LN56@TestInters:
  002a9	85 c0		 test	 eax, eax
  002ab	0f 84 63 03 00
	00		 je	 $LN5@TestInters
  002b1	8b ce		 mov	 ecx, esi
  002b3	b8 00 00 00 00	 mov	 eax, OFFSET ??_C@_0BE@IKKKKMMO@obj_kalgasent01?4o3d@
$LL57@TestInters:
  002b8	8a 10		 mov	 dl, BYTE PTR [eax]
  002ba	3a 11		 cmp	 dl, BYTE PTR [ecx]
  002bc	75 1a		 jne	 SHORT $LN58@TestInters
  002be	84 d2		 test	 dl, dl
  002c0	74 12		 je	 SHORT $LN59@TestInters
  002c2	8a 50 01	 mov	 dl, BYTE PTR [eax+1]
  002c5	3a 51 01	 cmp	 dl, BYTE PTR [ecx+1]
  002c8	75 0e		 jne	 SHORT $LN58@TestInters
  002ca	83 c0 02	 add	 eax, 2
  002cd	83 c1 02	 add	 ecx, 2
  002d0	84 d2		 test	 dl, dl
  002d2	75 e4		 jne	 SHORT $LL57@TestInters
$LN59@TestInters:
  002d4	33 c0		 xor	 eax, eax
  002d6	eb 05		 jmp	 SHORT $LN60@TestInters
$LN58@TestInters:
  002d8	1b c0		 sbb	 eax, eax
  002da	83 c8 01	 or	 eax, 1
$LN60@TestInters:
  002dd	85 c0		 test	 eax, eax
  002df	0f 84 2f 03 00
	00		 je	 $LN5@TestInters
  002e5	8b ce		 mov	 ecx, esi
  002e7	b8 00 00 00 00	 mov	 eax, OFFSET ??_C@_0BK@BJCBGEEP@obj_kalgasekinsrock01?4o3d@
  002ec	0f 1f 40 00	 npad	 4
$LL61@TestInters:
  002f0	8a 10		 mov	 dl, BYTE PTR [eax]
  002f2	3a 11		 cmp	 dl, BYTE PTR [ecx]
  002f4	75 1a		 jne	 SHORT $LN62@TestInters
  002f6	84 d2		 test	 dl, dl
  002f8	74 12		 je	 SHORT $LN63@TestInters
  002fa	8a 50 01	 mov	 dl, BYTE PTR [eax+1]
  002fd	3a 51 01	 cmp	 dl, BYTE PTR [ecx+1]
  00300	75 0e		 jne	 SHORT $LN62@TestInters
  00302	83 c0 02	 add	 eax, 2
  00305	83 c1 02	 add	 ecx, 2
  00308	84 d2		 test	 dl, dl
  0030a	75 e4		 jne	 SHORT $LL61@TestInters
$LN63@TestInters:
  0030c	33 c0		 xor	 eax, eax
  0030e	eb 05		 jmp	 SHORT $LN64@TestInters
$LN62@TestInters:
  00310	1b c0		 sbb	 eax, eax
  00312	83 c8 01	 or	 eax, 1
$LN64@TestInters:
  00315	85 c0		 test	 eax, eax
  00317	0f 84 f7 02 00
	00		 je	 $LN5@TestInters
  0031d	8b ce		 mov	 ecx, esi
  0031f	b8 00 00 00 00	 mov	 eax, OFFSET ??_C@_0BK@JPLFBGOB@obj_kalgasekinsrock02?4o3d@
$LL65@TestInters:
  00324	8a 10		 mov	 dl, BYTE PTR [eax]
  00326	3a 11		 cmp	 dl, BYTE PTR [ecx]
  00328	75 1a		 jne	 SHORT $LN66@TestInters
  0032a	84 d2		 test	 dl, dl
  0032c	74 12		 je	 SHORT $LN67@TestInters
  0032e	8a 50 01	 mov	 dl, BYTE PTR [eax+1]
  00331	3a 51 01	 cmp	 dl, BYTE PTR [ecx+1]
  00334	75 0e		 jne	 SHORT $LN66@TestInters
  00336	83 c0 02	 add	 eax, 2
  00339	83 c1 02	 add	 ecx, 2
  0033c	84 d2		 test	 dl, dl
  0033e	75 e4		 jne	 SHORT $LL65@TestInters
$LN67@TestInters:
  00340	33 c0		 xor	 eax, eax
  00342	eb 05		 jmp	 SHORT $LN68@TestInters
$LN66@TestInters:
  00344	1b c0		 sbb	 eax, eax
  00346	83 c8 01	 or	 eax, 1
$LN68@TestInters:
  00349	85 c0		 test	 eax, eax
  0034b	0f 84 c3 02 00
	00		 je	 $LN5@TestInters
  00351	8b ce		 mov	 ecx, esi
  00353	b8 00 00 00 00	 mov	 eax, OFFSET ??_C@_0BK@FEOJMFEE@obj_kalgasekinsrock03?4o3d@
$LL69@TestInters:
  00358	8a 10		 mov	 dl, BYTE PTR [eax]
  0035a	3a 11		 cmp	 dl, BYTE PTR [ecx]
  0035c	75 1a		 jne	 SHORT $LN70@TestInters
  0035e	84 d2		 test	 dl, dl
  00360	74 12		 je	 SHORT $LN71@TestInters
  00362	8a 50 01	 mov	 dl, BYTE PTR [eax+1]
  00365	3a 51 01	 cmp	 dl, BYTE PTR [ecx+1]
  00368	75 0e		 jne	 SHORT $LN70@TestInters
  0036a	83 c0 02	 add	 eax, 2
  0036d	83 c1 02	 add	 ecx, 2
  00370	84 d2		 test	 dl, dl
  00372	75 e4		 jne	 SHORT $LL69@TestInters
$LN71@TestInters:
  00374	33 c0		 xor	 eax, eax
  00376	eb 05		 jmp	 SHORT $LN72@TestInters
$LN70@TestInters:
  00378	1b c0		 sbb	 eax, eax
  0037a	83 c8 01	 or	 eax, 1
$LN72@TestInters:
  0037d	85 c0		 test	 eax, eax
  0037f	0f 84 8f 02 00
	00		 je	 $LN5@TestInters
  00385	8b ce		 mov	 ecx, esi
  00387	b8 00 00 00 00	 mov	 eax, OFFSET ??_C@_0BK@EJOMPFPM@obj_kalgasekinsrock04?4o3d@
  0038c	0f 1f 40 00	 npad	 4
$LL73@TestInters:
  00390	8a 10		 mov	 dl, BYTE PTR [eax]
  00392	3a 11		 cmp	 dl, BYTE PTR [ecx]
  00394	75 1a		 jne	 SHORT $LN74@TestInters
  00396	84 d2		 test	 dl, dl
  00398	74 12		 je	 SHORT $LN75@TestInters
  0039a	8a 50 01	 mov	 dl, BYTE PTR [eax+1]
  0039d	3a 51 01	 cmp	 dl, BYTE PTR [ecx+1]
  003a0	75 0e		 jne	 SHORT $LN74@TestInters
  003a2	83 c0 02	 add	 eax, 2
  003a5	83 c1 02	 add	 ecx, 2
  003a8	84 d2		 test	 dl, dl
  003aa	75 e4		 jne	 SHORT $LL73@TestInters
$LN75@TestInters:
  003ac	33 c0		 xor	 eax, eax
  003ae	eb 05		 jmp	 SHORT $LN76@TestInters
$LN74@TestInters:
  003b0	1b c0		 sbb	 eax, eax
  003b2	83 c8 01	 or	 eax, 1
$LN76@TestInters:
  003b5	85 c0		 test	 eax, eax
  003b7	0f 84 57 02 00
	00		 je	 $LN5@TestInters
  003bd	8b ce		 mov	 ecx, esi
  003bf	b8 00 00 00 00	 mov	 eax, OFFSET ??_C@_0BJ@JKEIOLEK@obj_kalgasekinrock01?4o3d@
$LL77@TestInters:
  003c4	8a 10		 mov	 dl, BYTE PTR [eax]
  003c6	3a 11		 cmp	 dl, BYTE PTR [ecx]
  003c8	75 1a		 jne	 SHORT $LN78@TestInters
  003ca	84 d2		 test	 dl, dl
  003cc	74 12		 je	 SHORT $LN79@TestInters
  003ce	8a 50 01	 mov	 dl, BYTE PTR [eax+1]
  003d1	3a 51 01	 cmp	 dl, BYTE PTR [ecx+1]
  003d4	75 0e		 jne	 SHORT $LN78@TestInters
  003d6	83 c0 02	 add	 eax, 2
  003d9	83 c1 02	 add	 ecx, 2
  003dc	84 d2		 test	 dl, dl
  003de	75 e4		 jne	 SHORT $LL77@TestInters
$LN79@TestInters:
  003e0	33 c0		 xor	 eax, eax
  003e2	eb 05		 jmp	 SHORT $LN80@TestInters
$LN78@TestInters:
  003e4	1b c0		 sbb	 eax, eax
  003e6	83 c8 01	 or	 eax, 1
$LN80@TestInters:
  003e9	85 c0		 test	 eax, eax
  003eb	0f 84 23 02 00
	00		 je	 $LN5@TestInters
  003f1	8b ce		 mov	 ecx, esi
  003f3	b8 00 00 00 00	 mov	 eax, OFFSET ??_C@_0BJ@BMNMJJOE@obj_kalgasekinrock02?4o3d@
$LL81@TestInters:
  003f8	8a 10		 mov	 dl, BYTE PTR [eax]
  003fa	3a 11		 cmp	 dl, BYTE PTR [ecx]
  003fc	75 1a		 jne	 SHORT $LN82@TestInters
  003fe	84 d2		 test	 dl, dl
  00400	74 12		 je	 SHORT $LN83@TestInters
  00402	8a 50 01	 mov	 dl, BYTE PTR [eax+1]
  00405	3a 51 01	 cmp	 dl, BYTE PTR [ecx+1]
  00408	75 0e		 jne	 SHORT $LN82@TestInters
  0040a	83 c0 02	 add	 eax, 2
  0040d	83 c1 02	 add	 ecx, 2
  00410	84 d2		 test	 dl, dl
  00412	75 e4		 jne	 SHORT $LL81@TestInters
$LN83@TestInters:
  00414	33 c0		 xor	 eax, eax
  00416	eb 05		 jmp	 SHORT $LN84@TestInters
$LN82@TestInters:
  00418	1b c0		 sbb	 eax, eax
  0041a	83 c8 01	 or	 eax, 1
$LN84@TestInters:
  0041d	85 c0		 test	 eax, eax
  0041f	0f 84 ef 01 00
	00		 je	 $LN5@TestInters
  00425	8b ce		 mov	 ecx, esi
  00427	b8 00 00 00 00	 mov	 eax, OFFSET ??_C@_0BI@KCDKKCIE@obj_kalgasekinent01?4o3d@
  0042c	0f 1f 40 00	 npad	 4
$LL85@TestInters:
  00430	8a 10		 mov	 dl, BYTE PTR [eax]
  00432	3a 11		 cmp	 dl, BYTE PTR [ecx]
  00434	75 1a		 jne	 SHORT $LN86@TestInters
  00436	84 d2		 test	 dl, dl
  00438	74 12		 je	 SHORT $LN87@TestInters
  0043a	8a 50 01	 mov	 dl, BYTE PTR [eax+1]
  0043d	3a 51 01	 cmp	 dl, BYTE PTR [ecx+1]
  00440	75 0e		 jne	 SHORT $LN86@TestInters
  00442	83 c0 02	 add	 eax, 2
  00445	83 c1 02	 add	 ecx, 2
  00448	84 d2		 test	 dl, dl
  0044a	75 e4		 jne	 SHORT $LL85@TestInters
$LN87@TestInters:
  0044c	33 c0		 xor	 eax, eax
  0044e	eb 05		 jmp	 SHORT $LN88@TestInters
$LN86@TestInters:
  00450	1b c0		 sbb	 eax, eax
  00452	83 c8 01	 or	 eax, 1
$LN88@TestInters:
  00455	85 c0		 test	 eax, eax
  00457	0f 84 b7 01 00
	00		 je	 $LN5@TestInters
  0045d	8b ce		 mov	 ecx, esi
  0045f	b8 00 00 00 00	 mov	 eax, OFFSET ??_C@_0BF@FPIBCGAC@obj_kalgasekin01?4o3d@
$LL89@TestInters:
  00464	8a 10		 mov	 dl, BYTE PTR [eax]
  00466	3a 11		 cmp	 dl, BYTE PTR [ecx]
  00468	75 1a		 jne	 SHORT $LN90@TestInters
  0046a	84 d2		 test	 dl, dl
  0046c	74 12		 je	 SHORT $LN91@TestInters
  0046e	8a 50 01	 mov	 dl, BYTE PTR [eax+1]
  00471	3a 51 01	 cmp	 dl, BYTE PTR [ecx+1]
  00474	75 0e		 jne	 SHORT $LN90@TestInters
  00476	83 c0 02	 add	 eax, 2
  00479	83 c1 02	 add	 ecx, 2
  0047c	84 d2		 test	 dl, dl
  0047e	75 e4		 jne	 SHORT $LL89@TestInters
$LN91@TestInters:
  00480	33 c0		 xor	 eax, eax
  00482	eb 05		 jmp	 SHORT $LN92@TestInters
$LN90@TestInters:
  00484	1b c0		 sbb	 eax, eax
  00486	83 c8 01	 or	 eax, 1
$LN92@TestInters:
  00489	85 c0		 test	 eax, eax
  0048b	0f 84 83 01 00
	00		 je	 $LN5@TestInters
  00491	8b ce		 mov	 ecx, esi
  00493	b8 00 00 00 00	 mov	 eax, OFFSET ??_C@_0BF@MEBBCKOG@obj_newflchair01?4o3d@
$LL93@TestInters:
  00498	8a 10		 mov	 dl, BYTE PTR [eax]
  0049a	3a 11		 cmp	 dl, BYTE PTR [ecx]
  0049c	75 1a		 jne	 SHORT $LN94@TestInters
  0049e	84 d2		 test	 dl, dl
  004a0	74 12		 je	 SHORT $LN95@TestInters
  004a2	8a 50 01	 mov	 dl, BYTE PTR [eax+1]
  004a5	3a 51 01	 cmp	 dl, BYTE PTR [ecx+1]
  004a8	75 0e		 jne	 SHORT $LN94@TestInters
  004aa	83 c0 02	 add	 eax, 2
  004ad	83 c1 02	 add	 ecx, 2
  004b0	84 d2		 test	 dl, dl
  004b2	75 e4		 jne	 SHORT $LL93@TestInters
$LN95@TestInters:
  004b4	33 c0		 xor	 eax, eax
  004b6	eb 05		 jmp	 SHORT $LN96@TestInters
$LN94@TestInters:
  004b8	1b c0		 sbb	 eax, eax
  004ba	83 c8 01	 or	 eax, 1
$LN96@TestInters:
  004bd	85 c0		 test	 eax, eax
  004bf	0f 84 4f 01 00
	00		 je	 $LN5@TestInters
  004c5	8b ce		 mov	 ecx, esi
  004c7	b8 00 00 00 00	 mov	 eax, OFFSET ??_C@_0BF@KLABAHNE@obj_newfllight01?4o3d@
  004cc	0f 1f 40 00	 npad	 4
$LL97@TestInters:
  004d0	8a 10		 mov	 dl, BYTE PTR [eax]
  004d2	3a 11		 cmp	 dl, BYTE PTR [ecx]
  004d4	75 1a		 jne	 SHORT $LN98@TestInters
  004d6	84 d2		 test	 dl, dl
  004d8	74 12		 je	 SHORT $LN99@TestInters
  004da	8a 50 01	 mov	 dl, BYTE PTR [eax+1]
  004dd	3a 51 01	 cmp	 dl, BYTE PTR [ecx+1]
  004e0	75 0e		 jne	 SHORT $LN98@TestInters
  004e2	83 c0 02	 add	 eax, 2
  004e5	83 c1 02	 add	 ecx, 2
  004e8	84 d2		 test	 dl, dl
  004ea	75 e4		 jne	 SHORT $LL97@TestInters
$LN99@TestInters:
  004ec	33 c0		 xor	 eax, eax
  004ee	eb 05		 jmp	 SHORT $LN100@TestInters
$LN98@TestInters:
  004f0	1b c0		 sbb	 eax, eax
  004f2	83 c8 01	 or	 eax, 1
$LN100@TestInters:
  004f5	85 c0		 test	 eax, eax
  004f7	0f 84 17 01 00
	00		 je	 $LN5@TestInters
  004fd	8b ce		 mov	 ecx, esi
  004ff	b8 00 00 00 00	 mov	 eax, OFFSET ??_C@_0BJ@NGIGFJFL@obj_kalgasbossufloor?4o3d@
$LL101@TestInters:
  00504	8a 10		 mov	 dl, BYTE PTR [eax]
  00506	3a 11		 cmp	 dl, BYTE PTR [ecx]
  00508	75 1a		 jne	 SHORT $LN102@TestInters
  0050a	84 d2		 test	 dl, dl
  0050c	74 12		 je	 SHORT $LN103@TestInters
  0050e	8a 50 01	 mov	 dl, BYTE PTR [eax+1]
  00511	3a 51 01	 cmp	 dl, BYTE PTR [ecx+1]
  00514	75 0e		 jne	 SHORT $LN102@TestInters
  00516	83 c0 02	 add	 eax, 2
  00519	83 c1 02	 add	 ecx, 2
  0051c	84 d2		 test	 dl, dl
  0051e	75 e4		 jne	 SHORT $LL101@TestInters
$LN103@TestInters:
  00520	33 c0		 xor	 eax, eax
  00522	eb 05		 jmp	 SHORT $LN104@TestInters
$LN102@TestInters:
  00524	1b c0		 sbb	 eax, eax
  00526	83 c8 01	 or	 eax, 1
$LN104@TestInters:
  00529	85 c0		 test	 eax, eax
  0052b	0f 84 e3 00 00
	00		 je	 $LN5@TestInters
  00531	8b ce		 mov	 ecx, esi
  00533	b8 00 00 00 00	 mov	 eax, OFFSET ??_C@_0BI@DMECLBOH@obj_kalgasbossfloor?4o3d@
$LL105@TestInters:
  00538	8a 10		 mov	 dl, BYTE PTR [eax]
  0053a	3a 11		 cmp	 dl, BYTE PTR [ecx]
  0053c	75 1a		 jne	 SHORT $LN106@TestInters
  0053e	84 d2		 test	 dl, dl
  00540	74 12		 je	 SHORT $LN107@TestInters
  00542	8a 50 01	 mov	 dl, BYTE PTR [eax+1]
  00545	3a 51 01	 cmp	 dl, BYTE PTR [ecx+1]
  00548	75 0e		 jne	 SHORT $LN106@TestInters
  0054a	83 c0 02	 add	 eax, 2
  0054d	83 c1 02	 add	 ecx, 2
  00550	84 d2		 test	 dl, dl
  00552	75 e4		 jne	 SHORT $LL105@TestInters
$LN107@TestInters:
  00554	33 c0		 xor	 eax, eax
  00556	eb 05		 jmp	 SHORT $LN108@TestInters
$LN106@TestInters:
  00558	1b c0		 sbb	 eax, eax
  0055a	83 c8 01	 or	 eax, 1
$LN108@TestInters:
  0055d	85 c0		 test	 eax, eax
  0055f	0f 84 af 00 00
	00		 je	 $LN5@TestInters
  00565	8b ce		 mov	 ecx, esi
  00567	b8 00 00 00 00	 mov	 eax, OFFSET ??_C@_0BI@NIJPCONK@obj_behebossfloor01?4o3d@
  0056c	0f 1f 40 00	 npad	 4
$LL109@TestInters:
  00570	8a 10		 mov	 dl, BYTE PTR [eax]
  00572	3a 11		 cmp	 dl, BYTE PTR [ecx]
  00574	75 1a		 jne	 SHORT $LN110@TestInters
  00576	84 d2		 test	 dl, dl
  00578	74 12		 je	 SHORT $LN111@TestInters
  0057a	8a 50 01	 mov	 dl, BYTE PTR [eax+1]
  0057d	3a 51 01	 cmp	 dl, BYTE PTR [ecx+1]
  00580	75 0e		 jne	 SHORT $LN110@TestInters
  00582	83 c0 02	 add	 eax, 2
  00585	83 c1 02	 add	 ecx, 2
  00588	84 d2		 test	 dl, dl
  0058a	75 e4		 jne	 SHORT $LL109@TestInters
$LN111@TestInters:
  0058c	33 c0		 xor	 eax, eax
  0058e	eb 05		 jmp	 SHORT $LN112@TestInters
$LN110@TestInters:
  00590	1b c0		 sbb	 eax, eax
  00592	83 c8 01	 or	 eax, 1
$LN112@TestInters:
  00595	85 c0		 test	 eax, eax
  00597	74 7b		 je	 SHORT $LN5@TestInters
  00599	8b ce		 mov	 ecx, esi
  0059b	b8 00 00 00 00	 mov	 eax, OFFSET ??_C@_0BI@FOALFMHE@obj_behebossfloor02?4o3d@
$LL113@TestInters:
  005a0	8a 10		 mov	 dl, BYTE PTR [eax]
  005a2	3a 11		 cmp	 dl, BYTE PTR [ecx]
  005a4	75 1a		 jne	 SHORT $LN114@TestInters
  005a6	84 d2		 test	 dl, dl
  005a8	74 12		 je	 SHORT $LN115@TestInters
  005aa	8a 50 01	 mov	 dl, BYTE PTR [eax+1]
  005ad	3a 51 01	 cmp	 dl, BYTE PTR [ecx+1]
  005b0	75 0e		 jne	 SHORT $LN114@TestInters
  005b2	83 c0 02	 add	 eax, 2
  005b5	83 c1 02	 add	 ecx, 2
  005b8	84 d2		 test	 dl, dl
  005ba	75 e4		 jne	 SHORT $LL113@TestInters
$LN115@TestInters:
  005bc	33 c0		 xor	 eax, eax
  005be	eb 05		 jmp	 SHORT $LN116@TestInters
$LN114@TestInters:
  005c0	1b c0		 sbb	 eax, eax
  005c2	83 c8 01	 or	 eax, 1
$LN116@TestInters:
  005c5	85 c0		 test	 eax, eax
  005c7	74 4b		 je	 SHORT $LN5@TestInters
  005c9	b8 00 00 00 00	 mov	 eax, OFFSET ??_C@_0BK@OFIFJFKM@obj_behecirclefloor01?4o3d@
  005ce	66 90		 npad	 2
$LL117@TestInters:
  005d0	8a 08		 mov	 cl, BYTE PTR [eax]
  005d2	3a 0e		 cmp	 cl, BYTE PTR [esi]
  005d4	75 1a		 jne	 SHORT $LN118@TestInters
  005d6	84 c9		 test	 cl, cl
  005d8	74 12		 je	 SHORT $LN119@TestInters
  005da	8a 48 01	 mov	 cl, BYTE PTR [eax+1]
  005dd	3a 4e 01	 cmp	 cl, BYTE PTR [esi+1]
  005e0	75 0e		 jne	 SHORT $LN118@TestInters
  005e2	83 c0 02	 add	 eax, 2
  005e5	83 c6 02	 add	 esi, 2
  005e8	84 c9		 test	 cl, cl
  005ea	75 e4		 jne	 SHORT $LL117@TestInters
$LN119@TestInters:
  005ec	33 c0		 xor	 eax, eax
  005ee	eb 05		 jmp	 SHORT $LN120@TestInters
$LN118@TestInters:
  005f0	1b c0		 sbb	 eax, eax
  005f2	83 c8 01	 or	 eax, 1
$LN120@TestInters:
  005f5	85 c0		 test	 eax, eax
  005f7	74 1b		 je	 SHORT $LN5@TestInters

; 440  : 	}
; 441  : #endif
; 442  : #ifdef __CPU_UTILDOWN_060502
; 443  : 	return IntrSegment3Box3_Test(segment, pObj->m_OBB);

  005f9	8d 87 24 01 00
	00		 lea	 eax, DWORD PTR [edi+292]
  005ff	50		 push	 eax
  00600	ff 75 08	 push	 DWORD PTR _segment$[ebp]
  00603	e8 00 00 00 00	 call	 ?IntrSegment3Box3_Test@@YA_NABVSegment3@@ABVBBOX@@@Z ; IntrSegment3Box3_Test
  00608	83 c4 08	 add	 esp, 8
  0060b	0f b6 c0	 movzx	 eax, al
  0060e	5f		 pop	 edi

; 444  : #else
; 445  : 	const D3DXMATRIX& mWorld = pObj->GetMatrixWorld();
; 446  : 	D3DXVECTOR3 vTemp;
; 447  : 	D3DXVECTOR3 vStart, vEnd;
; 448  : 	vStart = segment.Origin - segment.Extent * segment.Direction;
; 449  : 	vEnd = segment.Origin + segment.Extent * segment.Direction;
; 450  : 	return ::IsTouchOBB_Line(m_vMin, m_vMax, mWorld, vStart, vEnd, &vTemp);
; 451  : #endif
; 452  : }

  0060f	5e		 pop	 esi
  00610	5d		 pop	 ebp
  00611	c2 0c 00	 ret	 12			; 0000000cH
$LN5@TestInters:
  00614	5f		 pop	 edi

; 437  : 		)
; 438  : 	{
; 439  : 		return TRUE;

  00615	b8 01 00 00 00	 mov	 eax, 1

; 444  : #else
; 445  : 	const D3DXMATRIX& mWorld = pObj->GetMatrixWorld();
; 446  : 	D3DXVECTOR3 vTemp;
; 447  : 	D3DXVECTOR3 vStart, vEnd;
; 448  : 	vStart = segment.Origin - segment.Extent * segment.Direction;
; 449  : 	vEnd = segment.Origin + segment.Extent * segment.Direction;
; 450  : 	return ::IsTouchOBB_Line(m_vMin, m_vMax, mWorld, vStart, vEnd, &vTemp);
; 451  : #endif
; 452  : }

  0061a	5e		 pop	 esi
  0061b	5d		 pop	 ebp
  0061c	c2 0c 00	 ret	 12			; 0000000cH
?TestIntersectionOBB_Line@CModelObject@@UAEHABVSegment3@@PBVCObj@@H@Z ENDP ; CModelObject::TestIntersectionOBB_Line
_TEXT	ENDS
; Function compile flags: /Ogtp
; File C:\IAGOS\server\v18\Source\Source\_Common\ModelObject.h
;	COMDAT ?IsTouchOBB_Line@CModelObject@@UAEHABUD3DXVECTOR3@@0ABUD3DXMATRIX@@PAU2@H@Z
_TEXT	SEGMENT
_vStart$ = 8						; size = 4
_vEnd$ = 12						; size = 4
_mWorld$ = 16						; size = 4
_pvIntersect$ = 20					; size = 4
_bNeedCollObject$ = 24					; size = 4
?IsTouchOBB_Line@CModelObject@@UAEHABUD3DXVECTOR3@@0ABUD3DXMATRIX@@PAU2@H@Z PROC ; CModelObject::IsTouchOBB_Line, COMDAT
; _this$ = ecx

; 401  : 	{ 

  00000	55		 push	 ebp
  00001	8b ec		 mov	 ebp, esp

; 402  : 		CObject3D *pObj = m_Element[0].m_pObject3D;
; 403  : 		if( pObj->m_CollObject.m_Type == GMT_ERROR && bNeedCollObject )	// 충돌메시가 없으면 검사하지 않음.

  00003	8b 81 d8 00 00
	00		 mov	 eax, DWORD PTR [ecx+216]
  00009	83 b8 00 01 00
	00 ff		 cmp	 DWORD PTR [eax+256], -1
  00010	75 0c		 jne	 SHORT $LN2@IsTouchOBB
  00012	83 7d 18 00	 cmp	 DWORD PTR _bNeedCollObject$[ebp], 0
  00016	74 06		 je	 SHORT $LN2@IsTouchOBB

; 404  : 			return FALSE;

  00018	33 c0		 xor	 eax, eax

; 407  : 	}

  0001a	5d		 pop	 ebp
  0001b	c2 14 00	 ret	 20			; 00000014H
$LN2@IsTouchOBB:

; 405  : 		
; 406  : 		return ::IsTouchOBB_Line( m_vMin, m_vMax, mWorld, vStart, vEnd, pvIntersect );

  0001e	ff 75 14	 push	 DWORD PTR _pvIntersect$[ebp]
  00021	8d 81 84 00 00
	00		 lea	 eax, DWORD PTR [ecx+132]
  00027	ff 75 0c	 push	 DWORD PTR _vEnd$[ebp]
  0002a	ff 75 08	 push	 DWORD PTR _vStart$[ebp]
  0002d	ff 75 10	 push	 DWORD PTR _mWorld$[ebp]
  00030	50		 push	 eax
  00031	8d 41 78	 lea	 eax, DWORD PTR [ecx+120]
  00034	50		 push	 eax
  00035	e8 00 00 00 00	 call	 ?IsTouchOBB_Line@@YAHABUD3DXVECTOR3@@0ABUD3DXMATRIX@@00PAU1@@Z ; IsTouchOBB_Line
  0003a	83 c4 18	 add	 esp, 24			; 00000018H

; 407  : 	}

  0003d	5d		 pop	 ebp
  0003e	c2 14 00	 ret	 20			; 00000014H
?IsTouchOBB_Line@CModelObject@@UAEHABUD3DXVECTOR3@@0ABUD3DXMATRIX@@PAU2@H@Z ENDP ; CModelObject::IsTouchOBB_Line
_TEXT	ENDS
; Function compile flags: /Ogtp
; File C:\IAGOS\server\v18\Source\Source\_Common\ModelObject.h
; File C:\IAGOS\server\v18\Source\Source\_Common\Object3d.h
; File C:\IAGOS\server\v18\Source\Source\_Common\ModelObject.h
; File C:\IAGOS\server\v18\Source\Source\_Common\Object3d.h
; File C:\IAGOS\server\v18\Source\Source\_Common\ModelObject.h
;	COMDAT ?IntersectRayTri@CModelObject@@UAEPAUD3DXVECTOR3@@ABU2@0ABUD3DXMATRIX@@PAU2@PAMH@Z
_TEXT	SEGMENT
_vRayOrig$ = 8						; size = 4
_vRayDir$ = 12						; size = 4
_mWorld$ = 16						; size = 4
_pvIntersect$ = 20					; size = 4
_pfDist$ = 24						; size = 4
_bColl$ = 28						; size = 4
?IntersectRayTri@CModelObject@@UAEPAUD3DXVECTOR3@@ABU2@0ABUD3DXMATRIX@@PAU2@PAMH@Z PROC ; CModelObject::IntersectRayTri, COMDAT
; _this$ = ecx

; 384  : 	{	

  00000	55		 push	 ebp
  00001	8b ec		 mov	 ebp, esp
  00003	53		 push	 ebx
  00004	8b d9		 mov	 ebx, ecx
  00006	56		 push	 esi
  00007	57		 push	 edi

; 385  : 		O3D_ELEMENT *pElem = m_Element;
; 386  : 		D3DXVECTOR3 *pTri;
; 387  : 		for( int i = 0; i < MAX_ELEMENT; i ++ )

  00008	33 ff		 xor	 edi, edi
  0000a	8d b3 d8 00 00
	00		 lea	 esi, DWORD PTR [ebx+216]
$LL4@IntersectR:

; 388  : 		{
; 389  : 			if( pElem->m_pObject3D )

  00010	8b 0e		 mov	 ecx, DWORD PTR [esi]
  00012	85 c9		 test	 ecx, ecx
  00014	74 3e		 je	 SHORT $LN7@IntersectR

; 390  : 			{
; 391  : 				if( m_pBone )

  00016	83 bb 84 2a 00
	00 00		 cmp	 DWORD PTR [ebx+10884], 0
  0001d	74 18		 je	 SHORT $LN10@IntersectR
; File C:\IAGOS\server\v18\Source\Source\_Common\Object3d.h

; 285  : 	void	SetExternBone( D3DXMATRIX *pmBone, D3DXMATRIX *pmBoneInv ) { if(m_pBaseBone == NULL) { m_pmExternBone = pmBone; m_pmExternBoneInv = pmBoneInv; } }	// 스킨만이 m_pBaseBone을 이미 할당하고 있다.

  0001f	83 79 34 00	 cmp	 DWORD PTR [ecx+52], 0
; File C:\IAGOS\server\v18\Source\Source\_Common\ModelObject.h

; 392  : 					pElem->m_pObject3D->SetExternBone( m_mUpdateBone, m_pBaseBoneInv );	// 외장본이 있다면 그것을 넘겨준다.

  00023	8b 93 c8 00 00
	00		 mov	 edx, DWORD PTR [ebx+200]
; File C:\IAGOS\server\v18\Source\Source\_Common\Object3d.h

; 285  : 	void	SetExternBone( D3DXMATRIX *pmBone, D3DXMATRIX *pmBoneInv ) { if(m_pBaseBone == NULL) { m_pmExternBone = pmBone; m_pmExternBoneInv = pmBoneInv; } }	// 스킨만이 m_pBaseBone을 이미 할당하고 있다.

  00029	75 0c		 jne	 SHORT $LN10@IntersectR
  0002b	8b 83 9c 2a 00
	00		 mov	 eax, DWORD PTR [ebx+10908]
  00031	89 41 28	 mov	 DWORD PTR [ecx+40], eax
  00034	89 51 2c	 mov	 DWORD PTR [ecx+44], edx
$LN10@IntersectR:
; File C:\IAGOS\server\v18\Source\Source\_Common\ModelObject.h

; 393  : 				if( pTri = pElem->m_pObject3D->IntersectRayTri( vRayOrig, vRayDir, mWorld, pvIntersect, pfDist, bColl ) )

  00037	ff 75 1c	 push	 DWORD PTR _bColl$[ebp]
  0003a	8b 0e		 mov	 ecx, DWORD PTR [esi]
  0003c	ff 75 18	 push	 DWORD PTR _pfDist$[ebp]
  0003f	ff 75 14	 push	 DWORD PTR _pvIntersect$[ebp]
  00042	ff 75 10	 push	 DWORD PTR _mWorld$[ebp]
  00045	ff 75 0c	 push	 DWORD PTR _vRayDir$[ebp]
  00048	ff 75 08	 push	 DWORD PTR _vRayOrig$[ebp]
  0004b	e8 00 00 00 00	 call	 ?IntersectRayTri@CObject3D@@QAEPAUD3DXVECTOR3@@ABU2@0ABUD3DXMATRIX@@PAU2@PAMH@Z ; CObject3D::IntersectRayTri
  00050	85 c0		 test	 eax, eax
  00052	75 0e		 jne	 SHORT $LN1@IntersectR
$LN7@IntersectR:

; 385  : 		O3D_ELEMENT *pElem = m_Element;
; 386  : 		D3DXVECTOR3 *pTri;
; 387  : 		for( int i = 0; i < MAX_ELEMENT; i ++ )

  00054	47		 inc	 edi

; 394  : 					return pTri;
; 395  : 			}
; 396  : 			pElem ++;

  00055	81 c6 fc 01 00
	00		 add	 esi, 508		; 000001fcH
  0005b	83 ff 15	 cmp	 edi, 21			; 00000015H
  0005e	7c b0		 jl	 SHORT $LL4@IntersectR

; 397  : 		}
; 398  : 		return NULL;

  00060	33 c0		 xor	 eax, eax
$LN1@IntersectR:
  00062	5f		 pop	 edi

; 399  : 	}

  00063	5e		 pop	 esi
  00064	5b		 pop	 ebx
  00065	5d		 pop	 ebp
  00066	c2 18 00	 ret	 24			; 00000018H
?IntersectRayTri@CModelObject@@UAEPAUD3DXVECTOR3@@ABU2@0ABUD3DXMATRIX@@PAU2@PAMH@Z ENDP ; CModelObject::IntersectRayTri
_TEXT	ENDS
; Function compile flags: /Ogtp
; File C:\IAGOS\server\v18\Source\Source\_Common\ModelObject.h
;	COMDAT ?Intersect@CModelObject@@UAEHABUD3DXVECTOR3@@0ABUD3DXMATRIX@@PAU2@PAMH@Z
_TEXT	SEGMENT
_vRayOrig$ = 8						; size = 4
_vRayDir$ = 12						; size = 4
_mWorld$ = 16						; size = 4
_pvIntersect$ = 20					; size = 4
_pfDist$ = 24						; size = 4
_bColl$ = 28						; size = 4
?Intersect@CModelObject@@UAEHABUD3DXVECTOR3@@0ABUD3DXMATRIX@@PAU2@PAMH@Z PROC ; CModelObject::Intersect, COMDAT
; _this$ = ecx

; 376  : 	{ 

  00000	55		 push	 ebp
  00001	8b ec		 mov	 ebp, esp

; 377  : 		if( IntersectRayTri( vRayOrig, vRayDir, mWorld, pvIntersect, pfDist, bColl ) ) 

  00003	ff 75 1c	 push	 DWORD PTR _bColl$[ebp]
  00006	8b 01		 mov	 eax, DWORD PTR [ecx]
  00008	ff 75 18	 push	 DWORD PTR _pfDist$[ebp]
  0000b	ff 75 14	 push	 DWORD PTR _pvIntersect$[ebp]
  0000e	ff 75 10	 push	 DWORD PTR _mWorld$[ebp]
  00011	ff 75 0c	 push	 DWORD PTR _vRayDir$[ebp]
  00014	ff 75 08	 push	 DWORD PTR _vRayOrig$[ebp]
  00017	ff 50 6c	 call	 DWORD PTR [eax+108]
  0001a	f7 d8		 neg	 eax
  0001c	1b c0		 sbb	 eax, eax
  0001e	f7 d8		 neg	 eax

; 378  : 			return TRUE; 
; 379  : 		else 
; 380  : 			return FALSE; 
; 381  : 	}

  00020	5d		 pop	 ebp
  00021	c2 18 00	 ret	 24			; 00000018H
?Intersect@CModelObject@@UAEHABUD3DXVECTOR3@@0ABUD3DXMATRIX@@PAU2@PAMH@Z ENDP ; CModelObject::Intersect
_TEXT	ENDS
; Function compile flags: /Ogtp
; File C:\IAGOS\server\v18\Source\Source\_Common\modelobject.cpp
;	COMDAT ?FrameMove@CModelObject@@UAEXPAUD3DXVECTOR3@@M@Z
_TEXT	SEGMENT
_pvSndPos$ = 8						; size = 4
_fSpeed$ = 12						; size = 4
?FrameMove@CModelObject@@UAEXPAUD3DXVECTOR3@@M@Z PROC	; CModelObject::FrameMove, COMDAT
; _this$ = ecx

; 1749 : {

  00000	55		 push	 ebp
  00001	8b ec		 mov	 ebp, esp

; 1750 : #ifdef __CLIENT
; 1751 : 	if( m_pMotion )		// CModel::FrameMove에서 프레임이 증가되기전에 검사해봐야 한다.
; 1752 : 	{
; 1753 : #if __VER >= 9	//__AI_0509
; 1754 : 		MOTION_ATTR* pAttr	= IsAttrSound();
; 1755 : 		if( pAttr && pAttr->m_nSndID > 0 && m_nPause == 0 )
; 1756 : 			PLAYSND( pAttr->m_nSndID, pvSndPos );
; 1757 : 
; 1758 : 		int i	= ( m_nFrameOld + 1 ) % GetMaxFrame();
; 1759 : 		int nFrame	= ( static_cast<int>( m_fFrameCurrent ) + 1 ) % GetMaxFrame();
; 1760 : 		while( i != nFrame )
; 1761 : 		{
; 1762 : 			BOOL bAttr	= FALSE;
; 1763 : 			/*
; 1764 : 			MOTION_ATTR* pAttr	= IsAttrSound( i );
; 1765 : 			if( pAttr && pAttr->m_nSndID > 0 && m_nPause == 0 )
; 1766 : 			{
; 1767 : 				PLAYSND( pAttr->m_nSndID, pvSndPos );
; 1768 : 				bAttr	= TRUE;
; 1769 : 			}
; 1770 : 			*/
; 1771 : 			BOOL bQuake	= IsAttrQuake( (float)( i ) );
; 1772 : 			if( bQuake && m_nPause == 0 )
; 1773 : 			{
; 1774 : 				CMover *pMover	= CMover::GetActiveMover();
; 1775 : 				if( pMover )
; 1776 : 				{
; 1777 : 					ItemProp* pItemProp	= pMover->GetActiveHandItemProp();
; 1778 : 					if( pItemProp && pItemProp->dwItemKind3 != IK3_YOYO && !pMover->IsActiveMover() )
; 1779 : 					{
; 1780 : 						pMover->GetWorld()->m_pCamera->SetQuake( 15 );				
; 1781 : 						bAttr	= TRUE;
; 1782 : 					}
; 1783 : 				}
; 1784 : 			}
; 1785 : 			if( bAttr )
; 1786 : 				break;
; 1787 : 			i	= ( i + 1 ) % GetMaxFrame();
; 1788 : 		}
; 1789 : #else	// __AI_0509
; 1790 : 		MOTION_ATTR *pAttr = IsAttrSound();
; 1791 : 		if( pAttr )
; 1792 : 			if( pAttr->m_nSndID > 0 && m_nPause == 0 )		// 효과음 속성이 있다면 플레이, pause상태면 사운드 출력 안함
; 1793 : 				PLAYSND( pAttr->m_nSndID, pvSndPos );
; 1794 : 		BOOL bQuake = IsAttrQuake();
; 1795 : 		if( bQuake && m_nPause == 0 )
; 1796 : 		{
; 1797 : 			CMover *pMover = CMover::GetActiveMover();
; 1798 : 			if( pMover )
; 1799 : 			{
; 1800 : 				ItemProp* pItemProp = pMover->GetActiveHandItemProp();
; 1801 : 				
; 1802 : 				if( pItemProp && pItemProp->dwItemKind3 != IK3_YOYO && !pMover->IsActiveMover() )
; 1803 : 					pMover->GetWorld()->m_pCamera->SetQuake( 15 );				
; 1804 : 			}
; 1805 : 		}
; 1806 : #endif	// __AI_0509
; 1807 : 	} else
; 1808 : 	{
; 1809 : 		CObject3D *pObject = GetObject3D();
; 1810 : #if __VER >= 9	//__AI_0509
; 1811 : 		if( pObject->GetMaxFrame() )
; 1812 : 		{
; 1813 : 			MOTION_ATTR* pAttr	= pObject->IsAttrSound( m_fFrameCurrent );
; 1814 : 			if( pAttr && pAttr->m_nSndID > 0 && m_nPause == 0 )
; 1815 : 				PLAYSND( pAttr->m_nSndID, pvSndPos );
; 1816 : 
; 1817 : 			int i	= ( m_nFrameOld + 1 ) % pObject->GetMaxFrame();
; 1818 : 			int nFrame	= ( static_cast<int>( m_fFrameCurrent ) + 1 ) % pObject->GetMaxFrame();
; 1819 : 			while( i != nFrame )
; 1820 : 			{
; 1821 : 				BOOL bAttr	= FALSE;
; 1822 : 				/*
; 1823 : 				MOTION_ATTR* pAttr	= pObject->IsAttrSound( i );
; 1824 : 				if( pAttr && pAttr->m_nSndID > 0 && m_nPause == 0 )
; 1825 : 				{
; 1826 : 					PLAYSND( pAttr->m_nSndID, pvSndPos );
; 1827 : 					bAttr	= TRUE;
; 1828 : 				}
; 1829 : 				*/
; 1830 : 				BOOL bQuake	= pObject->IsAttrQuake( (float)( i ) );
; 1831 : 				if( bQuake && m_nPause == 0 )
; 1832 : 				{
; 1833 : 					CMover *pMover	= CMover::GetActiveMover();
; 1834 : 					if( pMover && m_nPause == 0 )
; 1835 : 					{
; 1836 : 						pMover->GetWorld()->m_pCamera->SetQuake( 30, 1.0f );
; 1837 : 						bAttr	= TRUE;
; 1838 : 					}
; 1839 : 				}
; 1840 : 				if( bAttr )
; 1841 : 					break;
; 1842 : 				i	= ( i + 1 ) % GetMaxFrame();
; 1843 : 			}
; 1844 : 		}
; 1845 : #else	// __AI_0509
; 1846 : 		MOTION_ATTR *pAttr = pObject->IsAttrSound( m_fFrameCurrent );
; 1847 : 		if( pAttr )
; 1848 : 			if( pAttr->m_nSndID > 0 && m_nPause == 0 )		// 효과음 속성이 있다면 플레이, pause상태면 사운드 출력 안함
; 1849 : 				PLAYSND( pAttr->m_nSndID, pvSndPos );
; 1850 : 			
; 1851 : 		BOOL bQuake = pObject->IsAttrQuake(m_fFrameCurrent);
; 1852 : 		if( bQuake && m_nPause == 0 )
; 1853 : 		{
; 1854 : 			CMover *pMover = CMover::GetActiveMover();
; 1855 : 			if( pMover && m_nPause == 0 )
; 1856 : 			{
; 1857 : 				//Error("Quake - pos 2 ");
; 1858 : 				pMover->GetWorld()->m_pCamera->SetQuake( 30, 1.0f );
; 1859 : 			}
; 1860 : 		}
; 1861 : #endif	// __AI_0509
; 1862 : 	}
; 1863 : #endif
; 1864 : 	
; 1865 : 	CModel::FrameMove( NULL, fSpeed );

  00003	f3 0f 10 45 0c	 movss	 xmm0, DWORD PTR _fSpeed$[ebp]
  00008	51		 push	 ecx
  00009	f3 0f 11 04 24	 movss	 DWORD PTR [esp], xmm0
  0000e	6a 00		 push	 0
  00010	e8 00 00 00 00	 call	 ?FrameMove@CModel@@UAEXPAUD3DXVECTOR3@@M@Z ; CModel::FrameMove

; 1866 : 
; 1867 : #if defined(__CPU_UTILDOWN_060502)
; 1868 : 	#if defined(__WORLDSERVER)
; 1869 : 		return;
; 1870 : 	#endif
; 1871 : #endif		
; 1872 : 
; 1873 : 	if( m_pForce )
; 1874 : 	{
; 1875 : 		if( /*!m_bEndFrame &&*/ m_pForce->m_nMaxSpline && !m_nPause )
; 1876 : 		{
; 1877 : 			m_pForce->m_nMaxDraw += (int)((MAX_SF_SLERP*2+2) /** fSpeed*/);
; 1878 : 			if( m_pForce->m_nMaxDraw > m_pForce->m_nMaxSpline )
; 1879 : 			{
; 1880 : 				if( m_nLoop & ANILOOP_LOOP )	// 루핑되는 애니일경우는 첨부터 다시 그린다.
; 1881 : 					m_pForce->m_nMaxDraw = 0;
; 1882 : 				else
; 1883 : 					m_pForce->m_nMaxDraw = m_pForce->m_nMaxSpline;
; 1884 : 			}
; 1885 : 				
; 1886 : 		}
; 1887 : 
; 1888 : 		m_pForce->Process();
; 1889 : 	}
; 1890 : 
; 1891 : 	if( m_pForce2 )
; 1892 : 	{
; 1893 : 		if( m_pForce2->m_nMaxSpline && !m_nPause )
; 1894 : 		{
; 1895 : 			m_pForce2->m_nMaxDraw += (int)((MAX_SF_SLERP*2+2) /** fSpeed*/);
; 1896 : 			if( m_pForce2->m_nMaxDraw > m_pForce2->m_nMaxSpline )
; 1897 : 			{
; 1898 : 				if( m_nLoop & ANILOOP_LOOP )	// 루핑되는 애니일경우는 첨부터 다시 그린다.
; 1899 : 					m_pForce2->m_nMaxDraw = 0;
; 1900 : 				else
; 1901 : 					m_pForce2->m_nMaxDraw = m_pForce2->m_nMaxSpline;
; 1902 : 			}
; 1903 : 			
; 1904 : 		}
; 1905 : 		
; 1906 : 		m_pForce2->Process();
; 1907 : 	}
; 1908 : 	
; 1909 : 	if( m_bMotionBlending )
; 1910 : 	{
; 1911 : 		m_fBlendWeight += 0.05f;
; 1912 : 		if( m_fBlendWeight >= 1.0f )		// 블렌딩이 1.0까지 다 진행됐으면 블렌딩 해제
; 1913 : 			SetMotionBlending( FALSE );
; 1914 : 	}
; 1915 : 
; 1916 : #ifdef __ATTACH_MODEL
; 1917 : 	FrameMoveAttachModel();
; 1918 : #endif //__ATTACH_MODEL
; 1919 : }

  00015	5d		 pop	 ebp
  00016	c2 08 00	 ret	 8
?FrameMove@CModelObject@@UAEXPAUD3DXVECTOR3@@M@Z ENDP	; CModelObject::FrameMove
_TEXT	ENDS
; Function compile flags: /Ogtp
; File C:\IAGOS\server\v18\Source\Source\_Common\modelobject.cpp
;	COMDAT ?MakeSWDForce@CModelObject@@QAEXHKHKM@Z
_TEXT	SEGMENT
_nParts$ = 8						; size = 4
_dwItemKind3$ = 12					; size = 4
_bSlow$ = 16						; size = 4
_dwColor$ = 20						; size = 4
_fSpeed$ = 24						; size = 4
?MakeSWDForce@CModelObject@@QAEXHKHKM@Z PROC		; CModelObject::MakeSWDForce, COMDAT
; _this$ = ecx

; 1926 : #ifdef __CLIENT
; 1927 : 	D3DXVECTOR3		v1, v2;
; 1928 : 	O3D_ELEMENT		*pElem = GetParts( nParts );		// 오른손 무기의 포인터
; 1929 : 	D3DXMATRIX	m1;
; 1930 : 	if( !pElem ) 
; 1931 : 		return;
; 1932 : 
; 1933 : 	if( pElem->m_pObject3D == NULL )		return;
; 1934 : 	
; 1935 : 	if( pElem->m_pObject3D->m_vForce1.x == 0 )	return;
; 1936 : 	if( pElem->m_pObject3D->m_vForce2.x == 0 )	return;
; 1937 : 
; 1938 : 	// FrameCurrent를 0으로
; 1939 : 	m_fFrameCurrent = 0.0f;
; 1940 : 	m_nPause = 0;
; 1941 : 	m_bEndFrame = FALSE;
; 1942 : 	int nLoop = m_nLoop;
; 1943 : 	m_nLoop = ANILOOP_1PLAY;
; 1944 : 	
; 1945 : 	CreateForce( nParts );	// 검광 오브젝트 생성
; 1946 : 	CSwordForce *pForce;
; 1947 : 	if( nParts == PARTS_RWEAPON )
; 1948 : 		pForce = m_pForce;
; 1949 : 	else
; 1950 : 		pForce = m_pForce2;
; 1951 : 
; 1952 : 	pForce->Clear();
; 1953 : 	pForce->m_dwColor = dwColor;
; 1954 : 
; 1955 : 	D3DXMATRIX *pmLocal;
; 1956 : 	if( pElem->m_nParentIdx == GetRHandIdx() )
; 1957 : 		pmLocal = &pElem->m_mLocalRH;
; 1958 : 	else if( pElem->m_nParentIdx == GetLHandIdx() )
; 1959 : 		pmLocal = &pElem->m_mLocalLH;
; 1960 : 	else if( pElem->m_nParentIdx == GetLArmIdx() )
; 1961 : 		pmLocal = &pElem->m_mLocalShield;
; 1962 : 	else if( pElem->m_nParentIdx == GetRArmIdx() )
; 1963 : 		pmLocal = &pElem->m_mLocalKnuckle;
; 1964 : 	
; 1965 : 
; 1966 : 	while(1)
; 1967 : 	{
; 1968 : 		if( m_pMotion )
; 1969 : 			m_pMotion->AnimateBone( m_mUpdateBone, m_pMotionOld, m_fFrameCurrent, GetNextFrame(), m_nFrameOld, m_bMotionBlending, m_fBlendWeight );		// 일단 뼈대가 있다면 뼈대 애니메이션 시킴
; 1970 : 
; 1971 : 		// 무기 WorldTM = 무기LocalTM X 무기부모WorldTM  
; 1972 : 		D3DXMatrixMultiply( &m1, pmLocal, &m_mUpdateBone[ pElem->m_nParentIdx ] );
; 1973 : 		
; 1974 : 		// 칼끝 버텍스의 월드 좌표 계산
; 1975 : 		D3DXVec3TransformCoord( &v1, &(pElem->m_pObject3D->m_vForce1), &m1 );
; 1976 : 		D3DXVec3TransformCoord( &v2, &(pElem->m_pObject3D->m_vForce2), &m1 );
; 1977 : 		pForce->Add( v1, v2 );
; 1978 : 
; 1979 : 		CModel::FrameMove( NULL, fSpeed );
; 1980 : 		if( bSlow && IsAttrHit( m_fFrameCurrent ) )
; 1981 : 			m_bSlow = TRUE;
; 1982 : 		if( m_bEndFrame )
; 1983 : 			break;
; 1984 : 	}
; 1985 : 
; 1986 : 	pForce->MakeSpline();		// 스플라인 생성
; 1987 : 	
; 1988 : 
; 1989 : 	// rewind
; 1990 : 	m_fFrameCurrent = 0.0f;
; 1991 : 	m_nPause = 0;
; 1992 : 	m_bEndFrame = FALSE;
; 1993 : 	m_nLoop = nLoop;
; 1994 : 	m_bSlow = FALSE;
; 1995 : #endif
; 1996 : }

  00000	c2 14 00	 ret	 20			; 00000014H
?MakeSWDForce@CModelObject@@QAEXHKHKM@Z ENDP		; CModelObject::MakeSWDForce
_TEXT	ENDS
; Function compile flags: /Ogtp
; File C:\IAGOS\server\v18\Source\Source\_Common\modelobject.cpp
;	COMDAT ?CreateWeaponEffect@CModelObject@@QAEXHKPBUD3DXMATRIX@@HHH@Z
_TEXT	SEGMENT
_nParts$ = 8						; size = 4
_dwItemKind3$ = 12					; size = 4
_pmWorld$ = 16						; size = 4
_nType$ = 20						; size = 4
_nLevel$ = 24						; size = 4
_nLevel2$ = 28						; size = 4
?CreateWeaponEffect@CModelObject@@QAEXHKPBUD3DXMATRIX@@HHH@Z PROC ; CModelObject::CreateWeaponEffect, COMDAT
; _this$ = ecx

; 2001 : #ifdef __CLIENT
; 2002 : 
; 2003 : 	if( nType >= PE_GEN && nLevel < 3 ) // no element, regular upgrade is below 3
; 2004 : 		return;
; 2005 : 	if( nType < PE_EARTH_AL && nLevel2 < 3 && nLevel < 3 ) // both element and regular are below 3
; 2006 : 		return;
; 2007 : 
; 2008 : 	// get element level
; 2009 : 	short nElementLevel = 0;
; 2010 : 	if		( nLevel2 >= 20 )	nElementLevel = 5;
; 2011 : 	else if ( nLevel2 >= 16 )	nElementLevel = 4;
; 2012 : 	else if ( nLevel2 >= 11 )	nElementLevel = 3;
; 2013 : 	else if ( nLevel2 >= 6 )	nElementLevel = 2;
; 2014 : 	else if	( nLevel2 >= 3 )	nElementLevel = 1;
; 2015 : 
; 2016 : 	// get regular level
; 2017 : 	short nRegularLevel = 0;
; 2018 : 	if		( nLevel >= 10 )	nRegularLevel = 5;
; 2019 : 	else if	( nLevel >= 9 )		nRegularLevel = 4;
; 2020 : 	else if	( nLevel >= 7 )		nRegularLevel = 3;
; 2021 : 	else if	( nLevel >= 5 )		nRegularLevel = 2;
; 2022 : 	else if	( nLevel >= 3)		nRegularLevel = 1;
; 2023 : 
; 2024 : 	O3D_ELEMENT		*pElem = GetParts( nParts );
; 2025 : 	if( !pElem )
; 2026 : 	{
; 2027 : 		if( nParts == 9 )
; 2028 : 		{
; 2029 : 			pElem = GetParts( PARTS_SHIELD );
; 2030 : 			if( !pElem )
; 2031 : 				return;
; 2032 : 		}
; 2033 : 		else
; 2034 : 			return;	
; 2035 : 	}			
; 2036 : 	if( pElem->m_pObject3D == NULL )
; 2037 : 		return;	
; 2038 : 
; 2039 : 	// getmatrix
; 2040 : 	D3DXMATRIX *pmLocal = NULL;
; 2041 : 	if( pElem->m_nParentIdx == GetRHandIdx() )
; 2042 : 		pmLocal = &pElem->m_mLocalRH;	
; 2043 : 	else
; 2044 : 	if( pElem->m_nParentIdx == GetLHandIdx() )
; 2045 : 		pmLocal = &pElem->m_mLocalLH;
; 2046 : 	else 
; 2047 : 	if( pElem->m_nParentIdx == GetLArmIdx() )
; 2048 : 		pmLocal = &pElem->m_mLocalShield;
; 2049 : 	else
; 2050 : 	if( pElem->m_nParentIdx == GetRArmIdx() )
; 2051 : 		pmLocal = &pElem->m_mLocalKnuckle;
; 2052 : 	assert( pmLocal );
; 2053 : 
; 2054 : 	D3DXMATRIX m1;
; 2055 : 	D3DXMatrixIdentity( &m1 );
; 2056 : 	D3DXMATRIX m2;
; 2057 : 	D3DXMatrixIdentity( &m2 );
; 2058 : 
; 2059 : 	D3DXMatrixMultiply( &m1, pmLocal, &m_mUpdateBone[ pElem->m_nParentIdx ] );
; 2060 : 	m2 = m1 * *pmWorld;
; 2061 : 
; 2062 : 
; 2063 : 	int dwSfxRegular = XI_WEA_SWORD01; // base
; 2064 : 	int dwSfxElement = XI_WEA_SWORD01; // element
; 2065 : 	float fOffset = 0;
; 2066 : 
; 2067 : 	switch( dwItemKind3 ) // get the type of the weapon
; 2068 : 	{
; 2069 : 		case IK3_SWD			: dwSfxRegular = XI_WEA_SWORD01;	fOffset = 0.10f; break;
; 2070 : 		case IK3_THSWD			: dwSfxRegular = XI_WEA_TWOSWORD01;	fOffset = 0.00f; break;
; 2071 : 		case IK3_AXE			: dwSfxRegular = XI_WEA_AXE01;		fOffset = 0.10f; break;
; 2072 : 		case IK3_THAXE			: dwSfxRegular = XI_WEA_TWOAXE01;	fOffset = 0.10f; break;
; 2073 : 		case IK3_YOYO			: dwSfxRegular = XI_WEA_YOYO01;		fOffset = 0.00f; break;
; 2074 : 		case IK3_KNUCKLEHAMMER 	: dwSfxRegular = XI_WEA_KNUCK01;	fOffset = 0.10f; break;
; 2075 : 		case IK3_CHEERSTICK		: dwSfxRegular = XI_WEA_STICK01;	fOffset = 0.00f; break;
; 2076 : 		case IK3_STAFF			: dwSfxRegular = XI_WEA_STAFF01;	fOffset = 0.00f; break;
; 2077 : 		case IK3_CROSSBOW		: dwSfxRegular = XI_WEA_CROSSBOW01;	fOffset = 0.10f; break;
; 2078 : 		case IK3_BOW			: dwSfxRegular = XI_WEA_BOW01;		fOffset = 0.00f; break;
; 2079 : 		case IK3_WAND			: dwSfxRegular = XI_WEA_WAND01;		fOffset = 0.10f; break;
; 2080 : 		case IK3_MAGICBARUNA	: dwSfxRegular = XI_WEA_MAGICBOOK01;fOffset = 0.00f; break;
; 2081 : 		case IK3_ZEMBARUNA		: dwSfxRegular = XI_WEA_FORCEZEM01;	fOffset = 0.00f; break;
; 2082 : 		default: return; // any other shield
; 2083 : 	}
; 2084 : 	dwSfxElement = dwSfxRegular; // copy
; 2085 : 
; 2086 : 	switch( nType ) // get element upgrade, if avail
; 2087 : 	{
; 2088 : 		case PE_FIRE	: dwSfxElement += 5;  break;
; 2089 : 		case PE_FIRE_AL	: dwSfxElement += 5;  break;
; 2090 : 		case PE_WATER	: dwSfxElement += 10; break;
; 2091 : 		case PE_WATER_AL: dwSfxElement += 10; break;
; 2092 : 		case PE_WIND	: dwSfxElement += 15; break;
; 2093 : 		case PE_WIND_AL	: dwSfxElement += 15; break;
; 2094 : 		case PE_ELEC	: dwSfxElement += 20; break;
; 2095 : 		case PE_ELEC_AL	: dwSfxElement += 20; break;
; 2096 : 		case PE_EARTH	: dwSfxElement += 25; break;
; 2097 : 		case PE_EARTH_AL: dwSfxElement += 25; break;		
; 2098 : 		default: break; // PE_GEN + PE_GEN_AL
; 2099 : 	}
; 2100 : 	// render element
; 2101 : 	D3DXVECTOR3 v3( 0.0f + fOffset, 0.0f, 0.0f );
; 2102 : 	if( nElementLevel > 0 ) // has element
; 2103 : 	{
; 2104 : 		dwSfxElement += ( nElementLevel - 1 ); // add element upgrade amount
; 2105 : 
; 2106 : 		CPartsWeaponEffect *pEffectElement = NULL;
; 2107 : 		if( nParts == PARTS_LWEAPON )
; 2108 : 		{
; 2109 : 			if( m_pm_pPartsEffectElement[0] && m_pm_pPartsEffectElement[0]->m_nType != nType )
; 2110 : 				SAFE_DELETE( m_pm_pPartsEffectElement[0] );
; 2111 : 			if( m_pm_pPartsEffectElement[0] == NULL )
; 2112 : 				m_pm_pPartsEffectElement[0] = new CPartsWeaponEffect( nType );		
; 2113 : 			pEffectElement = (CPartsWeaponEffect *)m_pm_pPartsEffectElement[0];
; 2114 : 		} else
; 2115 : 		{
; 2116 : 			if( m_pm_pPartsEffectElement[1] && m_pm_pPartsEffectElement[1]->m_nType != nType )	
; 2117 : 				SAFE_DELETE( m_pm_pPartsEffectElement[1] );
; 2118 : 			if( m_pm_pPartsEffectElement[1] == NULL )
; 2119 : 				m_pm_pPartsEffectElement[1] = new CPartsWeaponEffect( nType );		
; 2120 : 			pEffectElement = (CPartsWeaponEffect *)m_pm_pPartsEffectElement[1];
; 2121 : 		}
; 2122 : 		pEffectElement->Create( m_pd3dDevice, v3, dwSfxElement );
; 2123 : 		pEffectElement->Render( m_pd3dDevice, &m2 );	
; 2124 : 	}
; 2125 : 	// render reg upgrade
; 2126 : 	if( nRegularLevel > 0 ) // has regular upgrade
; 2127 : 	{
; 2128 : 		dwSfxRegular += ( nRegularLevel - 1);
; 2129 : 
; 2130 : 		CPartsWeaponEffect *pEffectRegular = NULL;
; 2131 : 
; 2132 : 		if( nParts == PARTS_LWEAPON )
; 2133 : 		{
; 2134 : 			if( m_pm_pPartsEffectRegular[0] && m_pm_pPartsEffectRegular[0]->m_nType != nType )
; 2135 : 				SAFE_DELETE( m_pm_pPartsEffectRegular[0] );
; 2136 : 			if( m_pm_pPartsEffectRegular[0] == NULL )
; 2137 : 				m_pm_pPartsEffectRegular[0] = new CPartsWeaponEffect( nType );
; 2138 : 			pEffectRegular = (CPartsWeaponEffect *)m_pm_pPartsEffectRegular[0];
; 2139 : 		} else
; 2140 : 		{
; 2141 : 			if( m_pm_pPartsEffectRegular[1] && m_pm_pPartsEffectRegular[1]->m_nType != nType )	
; 2142 : 				SAFE_DELETE( m_pm_pPartsEffectRegular[1] );
; 2143 : 			if( m_pm_pPartsEffectRegular[1] == NULL )
; 2144 : 				m_pm_pPartsEffectRegular[1] = new CPartsWeaponEffect( nType );
; 2145 : 			pEffectRegular = (CPartsWeaponEffect *)m_pm_pPartsEffectRegular[1];
; 2146 : 		}
; 2147 : 		pEffectRegular->Create( m_pd3dDevice, v3, dwSfxRegular );
; 2148 : 		pEffectRegular->Render( m_pd3dDevice, &m2 );	
; 2149 : 	}
; 2150 : #endif // client
; 2151 : }

  00000	c2 18 00	 ret	 24			; 00000018H
?CreateWeaponEffect@CModelObject@@QAEXHKPBUD3DXMATRIX@@HHH@Z ENDP ; CModelObject::CreateWeaponEffect
_TEXT	ENDS
; Function compile flags: /Ogtp
; File C:\IAGOS\server\v18\Source\Source\_Common\modelobject.cpp
;	COMDAT ?RenderItemElec_Adv@CModelObject@@QAEXHPBUD3DXMATRIX@@H@Z
_TEXT	SEGMENT
_nParts$ = 8						; size = 4
_pmWorld$ = 12						; size = 4
_nLevel$ = 16						; size = 4
?RenderItemElec_Adv@CModelObject@@QAEXHPBUD3DXMATRIX@@H@Z PROC ; CModelObject::RenderItemElec_Adv, COMDAT
; _this$ = ecx

; 2445 : #if __VER >= 9 // __Y_ADV_ENCHANT_EFFECT
; 2446 : #ifdef __CLIENT
; 2447 : 
; 2448 : #ifdef __CSC_ENCHANT_EFFECT_2
; 2449 : #if __VER >= 13 // __EXT_ENCHANT
; 2450 : 	if( nLevel >= 10 )		nLevel = 5;
; 2451 : #else //__EXT_ENCHANT
; 2452 : 	if( nLevel == 10 )		nLevel = 5;
; 2453 : #endif //__EXT_ENCHANT
; 2454 : 	else if( nLevel == 9 )	nLevel = 4;
; 2455 : 	else if( nLevel == 8 )	nLevel = 3;
; 2456 : 	else if( nLevel == 7 )	nLevel = 2;
; 2457 : 	else if( nLevel >= 4 )	nLevel = 1;	// 4 ~ 6
; 2458 : 	else 
; 2459 : 		nLevel = 0;
; 2460 : 
; 2461 : 	if(nLevel <= 0 || nLevel > 5)
; 2462 : 		return;
; 2463 : #endif //__CSC_ENCHANT_EFFECT_2
; 2464 : 
; 2465 : 	O3D_ELEMENT		*pElem = GetParts( nParts );		// 오른손 무기의 포인터
; 2466 : 
; 2467 : 	if( !pElem )
; 2468 : 		return;
; 2469 : 	
; 2470 : 	if( pElem->m_pObject3D == NULL )		return;
; 2471 : 	
; 2472 : 	if( pElem->m_pObject3D->m_vForce1.x == 0 )	return;
; 2473 : 	if( pElem->m_pObject3D->m_vForce2.x == 0 )	return;
; 2474 : 
; 2475 : #if __VER >= 9 // __CSC_VER9_5
; 2476 : 	BOOL IsSecondLine = FALSE;
; 2477 : 	D3DXVECTOR3 v2_1, v2_2;
; 2478 : 	if( pElem->m_pObject3D->m_vForce3.x != 0 && pElem->m_pObject3D->m_vForce4.x != 0 )
; 2479 : 		IsSecondLine = TRUE;
; 2480 : 
; 2481 : 	if(IsSecondLine)
; 2482 : 	{
; 2483 : 		v2_1 = pElem->m_pObject3D->m_vForce3;
; 2484 : 		v2_2 = pElem->m_pObject3D->m_vForce4;
; 2485 : 	}
; 2486 : #endif //__CSC_VER9_5
; 2487 : 	
; 2488 : 	D3DXMATRIX	m1, m2;
; 2489 : 	D3DXVECTOR3	v1, v2, v3;
; 2490 : 	
; 2491 : 	D3DXMATRIX *pmLocal;
; 2492 : 	if( pElem->m_nParentIdx == GetRHandIdx() )
; 2493 : 		pmLocal = &pElem->m_mLocalRH;
; 2494 : 	else if( pElem->m_nParentIdx == GetLHandIdx() )
; 2495 : 		pmLocal = &pElem->m_mLocalLH;
; 2496 : 	else if( pElem->m_nParentIdx == GetLArmIdx() )
; 2497 : 		pmLocal = &pElem->m_mLocalShield;
; 2498 : 	else if( pElem->m_nParentIdx == GetRArmIdx() )
; 2499 : 		pmLocal = &pElem->m_mLocalKnuckle;
; 2500 : 	
; 2501 : 	D3DXMatrixMultiply( &m1, pmLocal, &m_mUpdateBone[ pElem->m_nParentIdx ] );
; 2502 : 	m2 = m1 * *pmWorld;
; 2503 : 	
; 2504 : 	v1 = pElem->m_pObject3D->m_vForce1;		// 로컬로 건네주고
; 2505 : 	v2 = pElem->m_pObject3D->m_vForce2;
; 2506 : 
; 2507 : 	CPartsBeam *pBeam;
; 2508 : 	if( nParts == PARTS_LWEAPON )
; 2509 : 	{
; 2510 : 		if( m_pPartsEffect2_Detail && m_pPartsEffect2_Detail->m_nType != PE_ELEC )
; 2511 : 		{
; 2512 : 			SAFE_DELETE( m_pPartsEffect2_Detail );
; 2513 : 		}
; 2514 : 
; 2515 : 		if( m_pPartsEffect2_Detail == NULL )
; 2516 : 			m_pPartsEffect2_Detail = new CPartsBeam;
; 2517 : 
; 2518 : 		pBeam = (CPartsBeam *)m_pPartsEffect2_Detail;
; 2519 : 	} else
; 2520 : 	{
; 2521 : 		if( m_pPartsEffect1_Detail && m_pPartsEffect1_Detail->m_nType != PE_ELEC )
; 2522 : 		{
; 2523 : 			SAFE_DELETE( m_pPartsEffect1_Detail );
; 2524 : 		}
; 2525 : 		
; 2526 : 		if( m_pPartsEffect1_Detail == NULL )
; 2527 : 			m_pPartsEffect1_Detail = new CPartsBeam;
; 2528 : 		
; 2529 : 		pBeam = (CPartsBeam *)m_pPartsEffect1_Detail;
; 2530 : 	}
; 2531 : 	
; 2532 : 	pBeam->Render( m_pd3dDevice, &m2, g_ModelGlobal.m_vCameraPos, g_ModelGlobal.m_vCameraForward, v1, v2, nLevel );
; 2533 : #if __VER >= 9 // __CSC_VER9_5
; 2534 : 	if(IsSecondLine)
; 2535 : 		pBeam->Render( m_pd3dDevice, &m2, g_ModelGlobal.m_vCameraPos, g_ModelGlobal.m_vCameraForward, v2_1, v2_2, nLevel );
; 2536 : #endif //__CSC_VER9_5
; 2537 : 
; 2538 : #endif // CLIENT
; 2539 : #endif //__Y_ADV_ENCHANT_EFFECT
; 2540 : }

  00000	c2 0c 00	 ret	 12			; 0000000cH
?RenderItemElec_Adv@CModelObject@@QAEXHPBUD3DXMATRIX@@H@Z ENDP ; CModelObject::RenderItemElec_Adv
_TEXT	ENDS
; Function compile flags: /Ogtp
; File C:\IAGOS\server\v18\Source\Source\_Common\modelobject.cpp
;	COMDAT ?RenderItemElec@CModelObject@@QAEXHPBUD3DXMATRIX@@H@Z
_TEXT	SEGMENT
_nParts$ = 8						; size = 4
_pmWorld$ = 12						; size = 4
_nLevel$ = 16						; size = 4
?RenderItemElec@CModelObject@@QAEXHPBUD3DXMATRIX@@H@Z PROC ; CModelObject::RenderItemElec, COMDAT
; _this$ = ecx

; 2545 : #ifdef __CLIENT
; 2546 : 	O3D_ELEMENT		*pElem = GetParts( nParts );		// 오른손 무기의 포인터
; 2547 : 
; 2548 : 	if( !pElem )
; 2549 : 		return;
; 2550 : 	
; 2551 : 	if( pElem->m_pObject3D == NULL )		return;
; 2552 : 	
; 2553 : 	if( pElem->m_pObject3D->m_vForce1.x == 0 )	return;
; 2554 : 	if( pElem->m_pObject3D->m_vForce2.x == 0 )	return;
; 2555 : 	
; 2556 : 	D3DXMATRIX	m1, m2;
; 2557 : 	D3DXVECTOR3		v1, v2, v3;
; 2558 : 	
; 2559 : 	D3DXMATRIX *pmLocal;
; 2560 : 	if( pElem->m_nParentIdx == GetRHandIdx() )
; 2561 : 		pmLocal = &pElem->m_mLocalRH;
; 2562 : 	else if( pElem->m_nParentIdx == GetLHandIdx() )
; 2563 : 		pmLocal = &pElem->m_mLocalLH;
; 2564 : 	else if( pElem->m_nParentIdx == GetLArmIdx() )
; 2565 : 		pmLocal = &pElem->m_mLocalShield;
; 2566 : 	else if( pElem->m_nParentIdx == GetRArmIdx() )
; 2567 : 		pmLocal = &pElem->m_mLocalKnuckle;
; 2568 : 	
; 2569 : 	D3DXMatrixMultiply( &m1, pmLocal, &m_mUpdateBone[ pElem->m_nParentIdx ] );
; 2570 : 	m2 = m1 * *pmWorld;
; 2571 : 	
; 2572 : 	v1 = pElem->m_pObject3D->m_vForce1;		// 로컬로 건네주고
; 2573 : 	v2 = pElem->m_pObject3D->m_vForce2;
; 2574 : 
; 2575 : 	CPartsBeam *pBeam;
; 2576 : 	if( nParts == PARTS_LWEAPON )
; 2577 : 	{
; 2578 : 		if( m_pPartsEffect2 && m_pPartsEffect2->m_nType != PE_ELEC )
; 2579 : 		{
; 2580 : 			SAFE_DELETE( m_pPartsEffect2 );
; 2581 : 		}
; 2582 : 
; 2583 : 		if( m_pPartsEffect2 == NULL )
; 2584 : 			m_pPartsEffect2 = new CPartsBeam;
; 2585 : 
; 2586 : 		pBeam = (CPartsBeam *)m_pPartsEffect2;
; 2587 : 	} else
; 2588 : 	{
; 2589 : 		if( m_pPartsEffect && m_pPartsEffect->m_nType != PE_ELEC )
; 2590 : 		{
; 2591 : 			SAFE_DELETE( m_pPartsEffect );
; 2592 : 		}
; 2593 : 		
; 2594 : 		if( m_pPartsEffect == NULL )
; 2595 : 			m_pPartsEffect = new CPartsBeam;
; 2596 : 		
; 2597 : 		pBeam = (CPartsBeam *)m_pPartsEffect;
; 2598 : 	}
; 2599 : 	
; 2600 : 	pBeam->Render( m_pd3dDevice, &m2, g_ModelGlobal.m_vCameraPos, g_ModelGlobal.m_vCameraForward, v1, v2, nLevel );
; 2601 : #endif // CLIENT
; 2602 : }

  00000	c2 0c 00	 ret	 12			; 0000000cH
?RenderItemElec@CModelObject@@QAEXHPBUD3DXMATRIX@@H@Z ENDP ; CModelObject::RenderItemElec
_TEXT	ENDS
; Function compile flags: /Ogtp
; File C:\IAGOS\server\v18\Source\Source\_Common\modelobject.cpp
;	COMDAT ?CreateParticle@CModelObject@@QAEXHPBUD3DXMATRIX@@HHH@Z
_TEXT	SEGMENT
_nParts$ = 8						; size = 4
_pmWorld$ = 12						; size = 4
_nType$ = 16						; size = 4
_nLevel$ = 20						; size = 4
_nLevel2$ = 24						; size = 4
?CreateParticle@CModelObject@@QAEXHPBUD3DXMATRIX@@HHH@Z PROC ; CModelObject::CreateParticle, COMDAT
; _this$ = ecx

; 2156 : #ifdef __CLIENT
; 2157 : #if __VER < 9 // __Y_ADV_ENCHANT_EFFECT
; 2158 : 	if( nLevel < 0 || nLevel > 5 )
; 2159 : 		return;
; 2160 : #else //__Y_ADV_ENCHANT_EFFECT
; 2161 : 
; 2162 : #ifdef __CSC_ENCHANT_EFFECT_2
; 2163 : 	int nEffLevel_2 = 0;
; 2164 : 	DWORD dwSfx_2 = 0;
; 2165 : 
; 2166 : #if __VER >= 13 // __EXT_ENCHANT
; 2167 : 	if( nLevel2 >= 10 )
; 2168 : 		nLevel2 = 10;
; 2169 : #endif //__EXT_ENCHANT
; 2170 : 
; 2171 : 	if( nLevel2 == 10 )		nEffLevel_2 = 5;
; 2172 : 	else if( nLevel2 == 9 )	nEffLevel_2 = 4;
; 2173 : 	else if( nLevel2 == 8 )	nEffLevel_2 = 3;
; 2174 : 	else if( nLevel2 == 7 )	nEffLevel_2 = 2;
; 2175 : 	else if( nLevel2 >= 4 )	nEffLevel_2 = 1;	// 4 ~ 6
; 2176 : 	else 
; 2177 : 		nEffLevel_2 = 0;
; 2178 : 
; 2179 : 	if(nType == PE_GEN && (nEffLevel_2 == 0 && nLevel < 6)) return;
; 2180 : 	if(nType <= PE_EARTH && (nEffLevel_2 == 0 && nLevel < 6)) return; 
; 2181 : 	
; 2182 : #endif //__CSC_ENCHANT_EFFECT_2
; 2183 : #endif //__Y_ADV_ENCHANT_EFFECT
; 2184 : 	O3D_ELEMENT		*pElem = GetParts( nParts );		// 오른손 무기의 포인터
; 2185 : 
; 2186 : 	if( !pElem )
; 2187 : 		return;
; 2188 : 	
; 2189 : 	if( pElem->m_pObject3D == NULL )		return;
; 2190 : 	
; 2191 : 	if( pElem->m_pObject3D->m_vForce1.x == 0 )	return;
; 2192 : 	if( pElem->m_pObject3D->m_vForce2.x == 0 )	return;
; 2193 : 
; 2194 : #if __VER >= 9 // __CSC_VER9_5
; 2195 : 	BOOL IsSecondLine = FALSE;
; 2196 : 	D3DXVECTOR3 v2_1( 0.0F, 0.0F, 0.0F );
; 2197 : 	D3DXVECTOR3 v2_2( 0.0F, 0.0F, 0.0F );
; 2198 : 	D3DXVECTOR3 v2_3( 0.0F, 0.0F, 0.0F );
; 2199 : 	if( pElem->m_pObject3D->m_vForce3.x != 0 && pElem->m_pObject3D->m_vForce4.x != 0 )
; 2200 : 		IsSecondLine = TRUE;
; 2201 : 
; 2202 : 	if(IsSecondLine)
; 2203 : 	{
; 2204 : 		v2_1 = pElem->m_pObject3D->m_vForce3;
; 2205 : 		v2_2 = pElem->m_pObject3D->m_vForce4;
; 2206 : 	}
; 2207 : #endif //__CSC_VER9_5
; 2208 : 	D3DXMATRIX m1;
; 2209 : 	D3DXMatrixIdentity( &m1 );
; 2210 : 	D3DXMATRIX m2;
; 2211 : 	D3DXMatrixIdentity( &m2 );
; 2212 : 	D3DXVECTOR3 v1( 0.0F, 0.0F, 0.0F );
; 2213 : 	D3DXVECTOR3 v2( 0.0F, 0.0F, 0.0F );
; 2214 : 	D3DXVECTOR3 v3( 0.0F, 0.0F, 0.0F );
; 2215 : #if __VER >= 13 // __EXT_ENCHANT
; 2216 : 	float		fTemp = 0.0f;
; 2217 : #else // __EXT_ENCHANT
; 2218 : 	float		fTemp;
; 2219 : #endif // __EXT_ENCHANT
; 2220 : 	D3DXMATRIX *pmLocal = NULL;
; 2221 : 	if( pElem->m_nParentIdx == GetRHandIdx() )
; 2222 : 		pmLocal = &pElem->m_mLocalRH;
; 2223 : 	else if( pElem->m_nParentIdx == GetLHandIdx() )
; 2224 : 		pmLocal = &pElem->m_mLocalLH;
; 2225 : 	else if( pElem->m_nParentIdx == GetLArmIdx() )
; 2226 : 		pmLocal = &pElem->m_mLocalShield;
; 2227 : 	else if( pElem->m_nParentIdx == GetRArmIdx() )
; 2228 : 		pmLocal = &pElem->m_mLocalKnuckle;
; 2229 : 
; 2230 : 	assert( pmLocal );
; 2231 : 	D3DXMatrixMultiply( &m1, pmLocal, &m_mUpdateBone[ pElem->m_nParentIdx ] );
; 2232 : 	m2 = m1 * *pmWorld;
; 2233 : 
; 2234 : 	v1 = pElem->m_pObject3D->m_vForce1;
; 2235 : 	v2 = pElem->m_pObject3D->m_vForce2;
; 2236 : 	
; 2237 : #if __VER >= 9 // __Y_ADV_ENCHANT_EFFECT
; 2238 : 	D3DXVECTOR3 vScale( 0.0F, 0.0F, 0.0F );
; 2239 : 	int nEffCount = MAX_PARTS_FIRE;
; 2240 : #ifdef __SFX_OPT
; 2241 : 	switch(g_Option.m_nSfxLevel)
; 2242 : 	{
; 2243 : 		case 1:
; 2244 : 			nEffCount = MAX_PARTS_FIRE/3;
; 2245 : 			break;
; 2246 : 		case 2:
; 2247 : 			nEffCount = MAX_PARTS_FIRE/2;
; 2248 : 			break;
; 2249 : 		case 3:
; 2250 : 			nEffCount = (MAX_PARTS_FIRE/3) * 2;
; 2251 : 			break;
; 2252 : 		case 4:
; 2253 : 			nEffCount = (MAX_PARTS_FIRE/5) * 4;
; 2254 : 			break;
; 2255 : 		case 5:
; 2256 : 			nEffCount = MAX_PARTS_FIRE;
; 2257 : 			break;
; 2258 : 	};
; 2259 : #endif
; 2260 : 
; 2261 : 	if( m_nEffectCount < nEffCount )
; 2262 : 	{
; 2263 : 		fTemp = (FLOAT)m_nEffectCount / (FLOAT)nEffCount;
; 2264 : 
; 2265 : 		D3DXVec3Lerp( &v3, &v1, &v2, fTemp );
; 2266 : #if __VER >= 9 // __CSC_VER9_5
; 2267 : 		if(IsSecondLine)
; 2268 : 			D3DXVec3Lerp( &v2_3, &v2_1, &v2_2, fTemp );
; 2269 : #endif //__CSC_VER9_5
; 2270 : 		vScale = D3DXVECTOR3( 0.5f, 0.5f, 0.5f );
; 2271 : 
; 2272 : 		if( fTemp < 0.4f || fTemp > 0.6f )
; 2273 : 			vScale = D3DXVECTOR3( 1.1f, 1.1f, 1.1f );
; 2274 : 
; 2275 : 		if( fTemp < 0.25f || fTemp > 0.75f )
; 2276 : 			vScale = D3DXVECTOR3( 0.85f, 0.85f, 0.85f );
; 2277 : 
; 2278 : 		if( fTemp < 0.1f || fTemp > 0.9f )
; 2279 : 			vScale = D3DXVECTOR3( 0.6f, 0.6f, 0.6f );
; 2280 : 
; 2281 : 		if( fTemp > 0.4f && fTemp < 0.6f )
; 2282 : 			vScale = D3DXVECTOR3( 1.2f, 1.2f, 1.2f );
; 2283 : 
; 2284 : 		m_nEffectCount++;
; 2285 : 	}
; 2286 : 	else
; 2287 : 	{
; 2288 : 		m_nEffectCount = 0;
; 2289 : 	}
; 2290 : 
; 2291 : #else //__Y_ADV_ENCHANT_EFFECT
; 2292 : 
; 2293 : 	float fSlp = xRandomF(1);
; 2294 : 	D3DXVec3Lerp( &v3, &v1, &v2, fSlp );
; 2295 : 
; 2296 : #endif //__Y_ADV_ENCHANT_EFFECT
; 2297 : 
; 2298 : 
; 2299 : 	CPartsFire *pFire = NULL;
; 2300 : 	
; 2301 : 	if( nParts == PARTS_LWEAPON )
; 2302 : 	{
; 2303 : 		if( m_pPartsEffect2 && m_pPartsEffect2->m_nType != nType )	// 이펙트가 이미 지정되어 있고  같은게 아니라면
; 2304 : 			SAFE_DELETE( m_pPartsEffect2 );							// 이펙트 삭제하고 다시 할당.
; 2305 : 		if( m_pPartsEffect2 == NULL )
; 2306 : 			m_pPartsEffect2 = new CPartsFire( nType );
; 2307 : 		
; 2308 : 		pFire = (CPartsFire *)m_pPartsEffect2;
; 2309 : 	} else
; 2310 : 	{
; 2311 : 		if( m_pPartsEffect && m_pPartsEffect->m_nType != nType )	// 이펙트가 이미 지정되어 있고  같은게 아니라면
; 2312 : 			SAFE_DELETE( m_pPartsEffect );							// 이펙트 삭제하고 다시 할당.
; 2313 : 		if( m_pPartsEffect == NULL )
; 2314 : 			m_pPartsEffect = new CPartsFire( nType );
; 2315 : 		
; 2316 : 		pFire = (CPartsFire *)m_pPartsEffect;
; 2317 : 	}
; 2318 : 	if( (g_nRenderCnt & 3) == 0 )
; 2319 : 	{
; 2320 : 		FLOAT fScalLevel = 0.0f;
; 2321 : 
; 2322 : 		DWORD dwSfx = 0;
; 2323 : 		switch( nType )
; 2324 : 		{
; 2325 : 	#if __VER >= 9 // __Y_ADV_ENCHANT_EFFECT
; 2326 : 			case PE_FIRE_AL : dwSfx = XI_NAT_FIRE01_ADV_AL; break;
; 2327 : 			case PE_ELEC_AL : dwSfx = XI_NAT_ELEC01_ADV_AL; break;	// 이경우 발생함...향상버전에서는
; 2328 : 			case PE_WATER_AL: dwSfx = XI_NAT_WATER01_ADV_AL; break;
; 2329 : 			case PE_WIND_AL : dwSfx = XI_NAT_WIND01_ADV_AL; break;
; 2330 : 			case PE_EARTH_AL: dwSfx = XI_NAT_EARTH01_ADV_AL; break;
; 2331 : 			case PE_FIRE : dwSfx = XI_NAT_FIRE01_ADV; break;
; 2332 : 			case PE_ELEC : dwSfx = XI_NAT_ELEC01_ADV; break;		// 이경우 발생함...향상버전에서는
; 2333 : 			case PE_WATER: dwSfx = XI_NAT_WATER01_ADV; break;
; 2334 : 			case PE_WIND : dwSfx = XI_NAT_WIND01_ADV; break;
; 2335 : 			case PE_EARTH: dwSfx = XI_NAT_EARTH01_ADV; break;
; 2336 : 			case PE_GEN_AL: dwSfx = XI_NAT_NONE01_ADV; break;
; 2337 : 			case PE_GEN: dwSfx = XI_NAT_NONE01_ADV; break;
; 2338 : 			default: dwSfx = XI_NAT_FIRE01_ADV;
; 2339 : 	#else //__Y_ADV_ENCHANT_EFFECT
; 2340 : 			case PE_FIRE : dwSfx = XI_NAT_FIRE01;	break;
; 2341 : 			case PE_ELEC : dwSfx = XI_NAT_FIRE01;	break;	// 이경우는 발생하지 않음.
; 2342 : 			case PE_WATER: dwSfx = XI_NAT_WATER01;	break;
; 2343 : 			case PE_WIND : dwSfx = XI_NAT_WIND01;	break;
; 2344 : 			case PE_EARTH: dwSfx = XI_NAT_EARTH01;	break;
; 2345 : 			default: dwSfx = XI_NAT_FIRE01;
; 2346 : 	#endif //__Y_ADV_ENCHANT_EFFECT
; 2347 : 		}
; 2348 : 
; 2349 : 	#if __VER >= 9 // __Y_ADV_ENCHANT_EFFECT
; 2350 : 
; 2351 : 		if(nLevel > 0)
; 2352 : 		{
; 2353 : 			switch( nType )
; 2354 : 			{
; 2355 : 				case PE_FIRE_AL:
; 2356 : 				case PE_ELEC_AL:
; 2357 : 				case PE_WATER_AL:
; 2358 : 				case PE_WIND_AL:
; 2359 : 				case PE_EARTH_AL:
; 2360 : 				case PE_GEN_AL:
; 2361 : 					fScalLevel = prj.m_fEnchantLevelScal[1][nLevel-1];
; 2362 : 					break;
; 2363 : 				case PE_FIRE:
; 2364 : 				case PE_ELEC:
; 2365 : 				case PE_WATER:
; 2366 : 				case PE_WIND:
; 2367 : 				case PE_EARTH:
; 2368 : 				case PE_GEN:
; 2369 : 					fScalLevel = prj.m_fEnchantLevelScal[0][nLevel-1];
; 2370 : 					break;
; 2371 : 			}
; 2372 : 		}
; 2373 : 
; 2374 : 		if( nLevel2 <=0 )
; 2375 : 			nLevel2 = 1;
; 2376 : 
; 2377 : 		dwSfx += (nLevel2-1);
; 2378 : 	#else //__Y_ADV_ENCHANT_EFFECT
; 2379 : 		dwSfx += nLevel;
; 2380 : 	#endif //__Y_ADV_ENCHANT_EFFECT
; 2381 : 
; 2382 : 	#if __VER >= 9 // __Y_ADV_ENCHANT_EFFECT
; 2383 : #ifdef __CSC_ENCHANT_EFFECT_2
; 2384 : 		switch(nType)
; 2385 : 		{
; 2386 : 			case PE_FIRE:
; 2387 : 			case PE_FIRE_AL:
; 2388 : 				dwSfx_2 = XI_NAT_FIRE01;
; 2389 : 				dwSfx_2 += nEffLevel_2;
; 2390 : 				break;
; 2391 : 			case PE_WATER:
; 2392 : 			case PE_WATER_AL:
; 2393 : 				dwSfx_2 = XI_NAT_WATER01;
; 2394 : 				dwSfx_2 += nEffLevel_2;
; 2395 : 				break;
; 2396 : 			case PE_WIND:
; 2397 : 			case PE_WIND_AL:
; 2398 : 				dwSfx_2 = XI_NAT_WIND01;
; 2399 : 				dwSfx_2 += nEffLevel_2;
; 2400 : 				break;
; 2401 : 			case PE_EARTH:
; 2402 : 			case PE_EARTH_AL:
; 2403 : 				dwSfx_2 = XI_NAT_EARTH01;
; 2404 : 				dwSfx_2 += nEffLevel_2;
; 2405 : 				break;
; 2406 : 		}
; 2407 : #endif //__CSC_ENCHANT_EFFECT_2
; 2408 : #ifdef __CSC_ENCHANT_EFFECT_2
; 2409 : 		if(nLevel > 0)
; 2410 : #endif //__CSC_ENCHANT_EFFECT_2
; 2411 : 		pFire->Create( m_pd3dDevice, v3, dwSfx, vScale * fScalLevel );	// 해당 sfx로 파티클 생성시킴.
; 2412 : #ifdef __CSC_ENCHANT_EFFECT_2
; 2413 : 		if(nEffLevel_2 > 0 && (nType == PE_FIRE || nType == PE_WATER || nType == PE_WIND || nType == PE_EARTH
; 2414 : 			|| nType == PE_FIRE_AL || nType == PE_WATER_AL || nType == PE_WIND_AL || nType == PE_EARTH_AL)
; 2415 : 			&& (fTemp > 0.1f && fTemp < 0.93f))
; 2416 : 			pFire->Create( m_pd3dDevice, v3, dwSfx_2 );	// 해당 sfx로 파티클 생성시킴.
; 2417 : #endif //__CSC_ENCHANT_EFFECT_2
; 2418 : 	#if __VER >= 9 // __CSC_VER9_5
; 2419 : 		if(IsSecondLine)
; 2420 : 		{
; 2421 : #ifdef __CSC_ENCHANT_EFFECT_2
; 2422 : 			if(nLevel > 0)
; 2423 : #endif //__CSC_ENCHANT_EFFECT_2
; 2424 : 			pFire->Create( m_pd3dDevice, v2_3, dwSfx, vScale * fScalLevel );	// 해당 sfx로 파티클 생성시킴.
; 2425 : #ifdef __CSC_ENCHANT_EFFECT_2
; 2426 : 		if(nEffLevel_2 > 0 && (nType == PE_FIRE || nType == PE_WATER || nType == PE_WIND || nType == PE_EARTH
; 2427 : 			|| nType == PE_FIRE_AL || nType == PE_WATER_AL || nType == PE_WIND_AL || nType == PE_EARTH_AL)
; 2428 : 			&& (fTemp > 0.1f && fTemp < 0.93f))
; 2429 : 				pFire->Create( m_pd3dDevice, v2_3, dwSfx_2 );	// 해당 sfx로 파티클 생성시킴.
; 2430 : #endif //__CSC_ENCHANT_EFFECT_2
; 2431 : 		}
; 2432 : 	#endif //__CSC_VER9_5
; 2433 : 	#else //__Y_ADV_ENCHANT_EFFECT
; 2434 : 		pFire->Create( m_pd3dDevice, v3, dwSfx );	// 해당 sfx로 파티클 생성시킴.
; 2435 : 	#endif //__Y_ADV_ENCHANT_EFFECT
; 2436 : 	}
; 2437 : 
; 2438 : 	pFire->Render( m_pd3dDevice, &m2 );
; 2439 : 
; 2440 : #endif // client
; 2441 : }

  00000	c2 14 00	 ret	 20			; 00000014H
?CreateParticle@CModelObject@@QAEXHPBUD3DXMATRIX@@HHH@Z ENDP ; CModelObject::CreateParticle
_TEXT	ENDS
; Function compile flags: /Ogtp
; File C:\IAGOS\server\v18\Source\Source\_Common\modelobject.cpp
;	COMDAT ?ChangeTexture@CModelObject@@QAEXHPBD0@Z
_TEXT	SEGMENT
_nParts$ = 8						; size = 4
_szSrc$ = 12						; size = 4
_szDest$ = 16						; size = 4
?ChangeTexture@CModelObject@@QAEXHPBD0@Z PROC		; CModelObject::ChangeTexture, COMDAT
; _this$ = ecx

; 993  : #ifdef __WORLDSERVER
; 994  : 	return;
; 995  : #endif
; 996  : 
; 997  : 	O3D_ELEMENT* pParts = GetParts(nParts);
; 998  : 	if( pParts )
; 999  : 		pParts->m_pObject3D->ChangeTexture( szSrc, szDest );
; 1000 : }

  00000	c2 0c 00	 ret	 12			; 0000000cH
?ChangeTexture@CModelObject@@QAEXHPBD0@Z ENDP		; CModelObject::ChangeTexture
_TEXT	ENDS
; Function compile flags: /Ogtp
; File C:\IAGOS\server\v18\Source\Source\_Common\modelobject.cpp
; File C:\IAGOS\server\v18\Source\Source\_Common\ModelObject.h
; File C:\IAGOS\server\v18\Source\Source\_Common\modelobject.cpp
; File C:\IAGOS\server\v18\Source\Source\_Common\ModelObject.h
; File C:\IAGOS\server\v18\Source\Source\_Common\modelobject.cpp
;	COMDAT ?ClearTextureEx@CModelObject@@QAEXH@Z
_TEXT	SEGMENT
_nParts$ = 8						; size = 4
?ClearTextureEx@CModelObject@@QAEXH@Z PROC		; CModelObject::ClearTextureEx, COMDAT
; _this$ = ecx

; 983  : {

  00000	55		 push	 ebp
  00001	8b ec		 mov	 ebp, esp
; File C:\IAGOS\server\v18\Source\Source\_Common\ModelObject.h

; 190  : 		for( int i=0; i<MAX_ELEMENT; i++ )

  00003	8b 55 08	 mov	 edx, DWORD PTR _nParts$[ebp]
  00006	33 c0		 xor	 eax, eax
$LL7@ClearTextu:

; 191  : 		{
; 192  : 			if( m_Element[i].m_nPartsIdx == nParts )

  00008	39 91 cc 02 00
	00		 cmp	 DWORD PTR [ecx+716], edx
  0000e	74 10		 je	 SHORT $LN11@ClearTextu

; 190  : 		for( int i=0; i<MAX_ELEMENT; i++ )

  00010	40		 inc	 eax
  00011	81 c1 fc 01 00
	00		 add	 ecx, 508		; 000001fcH
  00017	83 f8 15	 cmp	 eax, 21			; 00000015H
  0001a	7c ec		 jl	 SHORT $LL7@ClearTextu
; File C:\IAGOS\server\v18\Source\Source\_Common\modelobject.cpp

; 988  : }

  0001c	5d		 pop	 ebp
  0001d	c2 04 00	 ret	 4
$LN11@ClearTextu:
; File C:\IAGOS\server\v18\Source\Source\_Common\ModelObject.h

; 193  : 				return &(m_Element[i]);

  00020	81 c1 d4 00 00
	00		 add	 ecx, 212		; 000000d4H
; File C:\IAGOS\server\v18\Source\Source\_Common\modelobject.cpp

; 986  : 	if( pParts )

  00026	74 0a		 je	 SHORT $LN2@ClearTextu

; 987  : 		pParts->m_pTextureEx = NULL;

  00028	c7 81 5c 01 00
	00 00 00 00 00	 mov	 DWORD PTR [ecx+348], 0
$LN2@ClearTextu:

; 988  : }

  00032	5d		 pop	 ebp
  00033	c2 04 00	 ret	 4
?ClearTextureEx@CModelObject@@QAEXH@Z ENDP		; CModelObject::ClearTextureEx
_TEXT	ENDS
; Function compile flags: /Ogtp
; File C:\IAGOS\server\v18\Source\Source\_Common\modelobject.cpp
;	COMDAT ?SetTextureMulti@CModelObject@@QAEXPBDH@Z
_TEXT	SEGMENT
_szBitmap$ = 8						; size = 4
_nParts$ = 12						; size = 4
?SetTextureMulti@CModelObject@@QAEXPBDH@Z PROC		; CModelObject::SetTextureMulti, COMDAT
; _this$ = ecx

; 969  : #if !defined(__WORLDSERVER)
; 970  : 	D3DMATERIAL9	d3dmtrl;
; 971  : 	MATERIAL		*mtrl;
; 972  : 
; 973  : 	mtrl = g_TextureMng.AddMaterial( m_pd3dDevice, &d3dmtrl, szBitmap );
; 974  : 	O3D_ELEMENT* pParts = GetParts(nParts);
; 975  : 
; 976  : 	if( pParts )
; 977  : 		pParts->m_pTextureEx = mtrl->m_pTexture;
; 978  : #endif
; 979  : }

  00000	c2 08 00	 ret	 8
?SetTextureMulti@CModelObject@@QAEXPBDH@Z ENDP		; CModelObject::SetTextureMulti
_TEXT	ENDS
; Function compile flags: /Ogtp
; File C:\IAGOS\server\v18\Source\Source\_Common\modelobject.cpp
; File C:\IAGOS\server\v18\Source\Source\_Common\ModelObject.h
; File C:\IAGOS\server\v18\Source\Source\_Common\modelobject.cpp
; File C:\IAGOS\server\v18\Source\Source\_Common\ModelObject.h
; File C:\IAGOS\server\v18\Source\Source\_Common\modelobject.cpp
; File C:\IAGOS\server\v18\Source\Source\_Common\ModelObject.h
; File C:\IAGOS\server\v18\Source\Source\_Common\modelobject.cpp
; File C:\IAGOS\server\v18\Source\Source\_Common\Object3d.h
; File C:\IAGOS\server\v18\Source\Source\_Common\modelobject.cpp
; File C:\IAGOS\server\v18\Source\Source\_Common\ModelObject.h
; File C:\IAGOS\server\v18\Source\Source\_Common\modelobject.cpp
; File C:\IAGOS\server\v18\Source\Source\_Common\ModelObject.h
; File C:\IAGOS\server\v18\Source\Source\_Common\modelobject.cpp
; File C:\IAGOS\server\v18\Source\Source\_Common\ModelObject.h
; File C:\IAGOS\server\v18\Source\Source\_Common\modelobject.cpp
; File C:\IAGOS\server\v18\Source\Source\_Common\ModelObject.h
; File C:\IAGOS\server\v18\Source\Source\_Common\modelobject.cpp
;	COMDAT ?SetParent@CModelObject@@QAEXHH@Z
_TEXT	SEGMENT
_nParts$ = 8						; size = 4
_nBoneIdx$ = 12						; size = 4
?SetParent@CModelObject@@QAEXHH@Z PROC			; CModelObject::SetParent, COMDAT
; _this$ = ecx

; 938  : {

  00000	55		 push	 ebp
  00001	8b ec		 mov	 ebp, esp
  00003	56		 push	 esi
; File C:\IAGOS\server\v18\Source\Source\_Common\ModelObject.h

; 190  : 		for( int i=0; i<MAX_ELEMENT; i++ )

  00004	8b 75 08	 mov	 esi, DWORD PTR _nParts$[ebp]
  00007	33 d2		 xor	 edx, edx
; File C:\IAGOS\server\v18\Source\Source\_Common\modelobject.cpp

; 938  : {

  00009	57		 push	 edi
  0000a	8b f9		 mov	 edi, ecx
; File C:\IAGOS\server\v18\Source\Source\_Common\ModelObject.h

; 190  : 		for( int i=0; i<MAX_ELEMENT; i++ )

  0000c	8b c7		 mov	 eax, edi
  0000e	66 90		 npad	 2
$LL11@SetParent:

; 191  : 		{
; 192  : 			if( m_Element[i].m_nPartsIdx == nParts )

  00010	39 b0 cc 02 00
	00		 cmp	 DWORD PTR [eax+716], esi
  00016	74 11		 je	 SHORT $LN25@SetParent

; 190  : 		for( int i=0; i<MAX_ELEMENT; i++ )

  00018	42		 inc	 edx
  00019	05 fc 01 00 00	 add	 eax, 508		; 000001fcH
  0001e	83 fa 15	 cmp	 edx, 21			; 00000015H
  00021	7c ed		 jl	 SHORT $LL11@SetParent
; File C:\IAGOS\server\v18\Source\Source\_Common\modelobject.cpp

; 960  : }

  00023	5f		 pop	 edi
  00024	5e		 pop	 esi
  00025	5d		 pop	 ebp
  00026	c2 08 00	 ret	 8
$LN25@SetParent:
; File C:\IAGOS\server\v18\Source\Source\_Common\ModelObject.h

; 193  : 				return &(m_Element[i]);

  00029	8d 88 d4 00 00
	00		 lea	 ecx, DWORD PTR [eax+212]
; File C:\IAGOS\server\v18\Source\Source\_Common\modelobject.cpp

; 940  : 	if( !pElem )

  0002f	85 c9		 test	 ecx, ecx
  00031	0f 84 3c 01 00
	00		 je	 $LN6@SetParent
; File C:\IAGOS\server\v18\Source\Source\_Common\Object3d.h

; 280  : 	GMOBJECT*	GetGMOBJECT( int nIdx = 0 ) { return &m_pGroup->m_pObject[ nIdx ]; }

  00037	8b 41 04	 mov	 eax, DWORD PTR [ecx+4]
; File C:\IAGOS\server\v18\Source\Source\_Common\modelobject.cpp

; 944  : 	pElem->m_nParentIdx = nBoneIdx;

  0003a	8b 55 0c	 mov	 edx, DWORD PTR _nBoneIdx$[ebp]
  0003d	89 11		 mov	 DWORD PTR [ecx], edx

; 945  : 	pElem->m_mLocalTM = pElem->m_pObject3D->GetGMOBJECT()->m_mLocalTM;

  0003f	8b 00		 mov	 eax, DWORD PTR [eax]
  00041	8b 40 04	 mov	 eax, DWORD PTR [eax+4]
  00044	0f 10 80 b0 00
	00 00		 movups	 xmm0, XMMWORD PTR [eax+176]
  0004b	0f 11 41 08	 movups	 XMMWORD PTR [ecx+8], xmm0
  0004f	0f 10 80 c0 00
	00 00		 movups	 xmm0, XMMWORD PTR [eax+192]
  00056	0f 11 41 18	 movups	 XMMWORD PTR [ecx+24], xmm0
  0005a	0f 10 80 d0 00
	00 00		 movups	 xmm0, XMMWORD PTR [eax+208]
  00061	0f 11 41 28	 movups	 XMMWORD PTR [ecx+40], xmm0
  00065	0f 10 80 e0 00
	00 00		 movups	 xmm0, XMMWORD PTR [eax+224]
  0006c	0f 11 41 38	 movups	 XMMWORD PTR [ecx+56], xmm0
; File C:\IAGOS\server\v18\Source\Source\_Common\ModelObject.h

; 167  : 	int					GetRHandIdx( void ) { return m_pBone->m_nRHandIdx; }

  00070	8b 87 84 2a 00
	00		 mov	 eax, DWORD PTR [edi+10884]
; File C:\IAGOS\server\v18\Source\Source\_Common\modelobject.cpp

; 949  : 	if( nBoneIdx == GetRHandIdx() )	

  00076	3b 90 50 01 00
	00		 cmp	 edx, DWORD PTR [eax+336]
  0007c	75 23		 jne	 SHORT $LN3@SetParent

; 950  : 		pElem->m_mLocalRH = m_pBone->m_mLocalRH;

  0007e	0f 10 40 50	 movups	 xmm0, XMMWORD PTR [eax+80]
  00082	0f 11 41 48	 movups	 XMMWORD PTR [ecx+72], xmm0
  00086	0f 10 40 60	 movups	 xmm0, XMMWORD PTR [eax+96]
  0008a	0f 11 41 58	 movups	 XMMWORD PTR [ecx+88], xmm0
  0008e	0f 10 40 70	 movups	 xmm0, XMMWORD PTR [eax+112]
  00092	0f 11 41 68	 movups	 XMMWORD PTR [ecx+104], xmm0
  00096	0f 10 80 80 00
	00 00		 movups	 xmm0, XMMWORD PTR [eax+128]
  0009d	0f 11 41 78	 movups	 XMMWORD PTR [ecx+120], xmm0
$LN3@SetParent:
; File C:\IAGOS\server\v18\Source\Source\_Common\ModelObject.h

; 168  : 	int					GetLHandIdx( void ) { return m_pBone->m_nLHandIdx; }

  000a1	8b 87 84 2a 00
	00		 mov	 eax, DWORD PTR [edi+10884]
; File C:\IAGOS\server\v18\Source\Source\_Common\modelobject.cpp

; 952  : 	if( nBoneIdx == GetLHandIdx() )	

  000a7	3b 90 54 01 00
	00		 cmp	 edx, DWORD PTR [eax+340]
  000ad	75 38		 jne	 SHORT $LN4@SetParent

; 953  : 		pElem->m_mLocalLH = m_pBone->m_mLocalLH;

  000af	0f 10 80 90 00
	00 00		 movups	 xmm0, XMMWORD PTR [eax+144]
  000b6	0f 11 81 88 00
	00 00		 movups	 XMMWORD PTR [ecx+136], xmm0
  000bd	0f 10 80 a0 00
	00 00		 movups	 xmm0, XMMWORD PTR [eax+160]
  000c4	0f 11 81 98 00
	00 00		 movups	 XMMWORD PTR [ecx+152], xmm0
  000cb	0f 10 80 b0 00
	00 00		 movups	 xmm0, XMMWORD PTR [eax+176]
  000d2	0f 11 81 a8 00
	00 00		 movups	 XMMWORD PTR [ecx+168], xmm0
  000d9	0f 10 80 c0 00
	00 00		 movups	 xmm0, XMMWORD PTR [eax+192]
  000e0	0f 11 81 b8 00
	00 00		 movups	 XMMWORD PTR [ecx+184], xmm0
$LN4@SetParent:
; File C:\IAGOS\server\v18\Source\Source\_Common\ModelObject.h

; 170  : 	int					GetLArmIdx( void ) { return m_pBone->m_nLArmIdx; }

  000e7	8b 87 84 2a 00
	00		 mov	 eax, DWORD PTR [edi+10884]
; File C:\IAGOS\server\v18\Source\Source\_Common\modelobject.cpp

; 955  : 	if( nBoneIdx == GetLArmIdx() )	

  000ed	3b 90 5c 01 00
	00		 cmp	 edx, DWORD PTR [eax+348]
  000f3	75 38		 jne	 SHORT $LN5@SetParent

; 956  : 		pElem->m_mLocalShield = m_pBone->m_mLocalShield;

  000f5	0f 10 80 d0 00
	00 00		 movups	 xmm0, XMMWORD PTR [eax+208]
  000fc	0f 11 81 c8 00
	00 00		 movups	 XMMWORD PTR [ecx+200], xmm0
  00103	0f 10 80 e0 00
	00 00		 movups	 xmm0, XMMWORD PTR [eax+224]
  0010a	0f 11 81 d8 00
	00 00		 movups	 XMMWORD PTR [ecx+216], xmm0
  00111	0f 10 80 f0 00
	00 00		 movups	 xmm0, XMMWORD PTR [eax+240]
  00118	0f 11 81 e8 00
	00 00		 movups	 XMMWORD PTR [ecx+232], xmm0
  0011f	0f 10 80 00 01
	00 00		 movups	 xmm0, XMMWORD PTR [eax+256]
  00126	0f 11 81 f8 00
	00 00		 movups	 XMMWORD PTR [ecx+248], xmm0
$LN5@SetParent:
; File C:\IAGOS\server\v18\Source\Source\_Common\ModelObject.h

; 169  : 	int					GetRArmIdx( void ) { return m_pBone->m_nRArmIdx; }

  0012d	8b 87 84 2a 00
	00		 mov	 eax, DWORD PTR [edi+10884]
; File C:\IAGOS\server\v18\Source\Source\_Common\modelobject.cpp

; 958  : 	if( nBoneIdx == GetRArmIdx() )

  00133	3b 90 58 01 00
	00		 cmp	 edx, DWORD PTR [eax+344]
  00139	75 38		 jne	 SHORT $LN6@SetParent

; 959  : 		pElem->m_mLocalKnuckle = m_pBone->m_mLocalKnuckle;

  0013b	0f 10 80 10 01
	00 00		 movups	 xmm0, XMMWORD PTR [eax+272]
  00142	0f 11 81 08 01
	00 00		 movups	 XMMWORD PTR [ecx+264], xmm0
  00149	0f 10 80 20 01
	00 00		 movups	 xmm0, XMMWORD PTR [eax+288]
  00150	0f 11 81 18 01
	00 00		 movups	 XMMWORD PTR [ecx+280], xmm0
  00157	0f 10 80 30 01
	00 00		 movups	 xmm0, XMMWORD PTR [eax+304]
  0015e	0f 11 81 28 01
	00 00		 movups	 XMMWORD PTR [ecx+296], xmm0
  00165	0f 10 80 40 01
	00 00		 movups	 xmm0, XMMWORD PTR [eax+320]
  0016c	0f 11 81 38 01
	00 00		 movups	 XMMWORD PTR [ecx+312], xmm0
$LN6@SetParent:

; 960  : }

  00173	5f		 pop	 edi
  00174	5e		 pop	 esi
  00175	5d		 pop	 ebp
  00176	c2 08 00	 ret	 8
?SetParent@CModelObject@@QAEXHH@Z ENDP			; CModelObject::SetParent
_TEXT	ENDS
; Function compile flags: /Ogtp
; File C:\IAGOS\server\v18\Source\Source\_Common\modelobject.cpp
; File C:\IAGOS\server\v18\Source\Source\_Common\ModelObject.h
; File C:\IAGOS\server\v18\Source\Source\_Common\modelobject.cpp
; File C:\Program Files\Microsoft Visual Studio\2022\Professional\VC\Tools\MSVC\14.44.35207\atlmfc\include\atlsimpstr.h
; File C:\IAGOS\server\v18\Source\Source\_Common\modelobject.cpp
; File C:\IAGOS\server\v18\Source\Source\_Common\Object3d.h
; File C:\IAGOS\server\v18\Source\Source\_Common\modelobject.cpp
; File C:\IAGOS\server\v18\Source\Source\_Common\Object3d.h
; File C:\IAGOS\server\v18\Source\Source\_Common\modelobject.cpp
; File C:\IAGOS\server\v18\Source\Source\DX_SDK\d3dx9math.inl
; File C:\IAGOS\server\v18\Source\Source\_Common\modelobject.cpp
; File C:\Program Files\Microsoft Visual Studio\2022\Professional\VC\Tools\MSVC\14.44.35207\atlmfc\include\atlsimpstr.h
; File C:\IAGOS\server\v18\Source\Source\_Common\modelobject.cpp
; File C:\IAGOS\server\v18\Source\Source\_Common\Object3d.h
; File C:\IAGOS\server\v18\Source\Source\_Common\modelobject.cpp
; File C:\IAGOS\server\v18\Source\Source\_Common\Object3d.h
; File C:\IAGOS\server\v18\Source\Source\_Common\modelobject.cpp
; File C:\IAGOS\server\v18\Source\Source\_Common\Object3d.h
; File C:\IAGOS\server\v18\Source\Source\_Common\modelobject.cpp
; File C:\IAGOS\server\v18\Source\Source\_Common\Object3d.h
; File C:\IAGOS\server\v18\Source\Source\_Common\modelobject.cpp
; File C:\IAGOS\server\v18\Source\Source\_Common\Object3d.h
; File C:\IAGOS\server\v18\Source\Source\_Common\modelobject.cpp
; File C:\IAGOS\server\v18\Source\Source\_Common\Object3d.h
; File C:\IAGOS\server\v18\Source\Source\_Common\modelobject.cpp
; File C:\IAGOS\server\v18\Source\Source\_Common\Object3d.h
; File C:\IAGOS\server\v18\Source\Source\_Common\modelobject.cpp
; File C:\IAGOS\server\v18\Source\Source\_Common\Object3d.h
; File C:\IAGOS\server\v18\Source\Source\_Common\modelobject.cpp
; File C:\IAGOS\server\v18\Source\Source\_Common\Object3d.h
; File C:\IAGOS\server\v18\Source\Source\_Common\modelobject.cpp
; File C:\IAGOS\server\v18\Source\Source\_Common\Object3d.h
; File C:\IAGOS\server\v18\Source\Source\_Common\modelobject.cpp
; File C:\IAGOS\server\v18\Source\Source\_Common\Object3d.h
; File C:\IAGOS\server\v18\Source\Source\_Common\modelobject.cpp
; File C:\IAGOS\server\v18\Source\Source\_Common\Object3d.h
; File C:\IAGOS\server\v18\Source\Source\_Common\modelobject.cpp
; File C:\IAGOS\server\v18\Source\Source\_Common\Object3d.h
; File C:\IAGOS\server\v18\Source\Source\_Common\modelobject.cpp
;	COMDAT ?LoadElement@CModelObject@@QAEHPBDH@Z
_TEXT	SEGMENT
__$EHRec$ = -12						; size = 12
_szFileName$ = 8					; size = 4
$T2 = 8							; size = 4
_nTotal$1$ = 8						; size = 4
tv2015 = 8						; size = 4
_nParts$ = 12						; size = 4
$T3 = 12						; size = 4
tv2025 = 12						; size = 4
?LoadElement@CModelObject@@QAEHPBDH@Z PROC		; CModelObject::LoadElement, COMDAT
; _this$ = ecx

; 672  : {

  00000	55		 push	 ebp
  00001	8b ec		 mov	 ebp, esp
  00003	6a ff		 push	 -1
  00005	68 00 00 00 00	 push	 __ehhandler$?LoadElement@CModelObject@@QAEHPBDH@Z
  0000a	64 a1 00 00 00
	00		 mov	 eax, DWORD PTR fs:0
  00010	50		 push	 eax
  00011	53		 push	 ebx
  00012	56		 push	 esi
  00013	57		 push	 edi
  00014	a1 00 00 00 00	 mov	 eax, DWORD PTR ___security_cookie
  00019	33 c5		 xor	 eax, ebp
  0001b	50		 push	 eax
  0001c	8d 45 f4	 lea	 eax, DWORD PTR __$EHRec$[ebp]
  0001f	64 a3 00 00 00
	00		 mov	 DWORD PTR fs:0, eax
  00025	8b f1		 mov	 esi, ecx

; 673  : 	CObject3D	*pObject3D;
; 674  : 	O3D_ELEMENT	*pElem;
; 675  : 
; 676  : 	if( nParts < 0 )

  00027	8b 55 0c	 mov	 edx, DWORD PTR _nParts$[ebp]
  0002a	85 d2		 test	 edx, edx
  0002c	79 28		 jns	 SHORT $LN5@LoadElemen

; 677  : 	{
; 678  : 		Error( "CModelObject::LoadElement : nParts 에러 - nParts = %d, %s", nParts, szFileName );

  0002e	ff 75 08	 push	 DWORD PTR _szFileName$[ebp]
  00031	52		 push	 edx
  00032	68 00 00 00 00	 push	 OFFSET ??_C@_0DK@DELLAMDK@CModelObject?3?3LoadElement?5?3?5nPa@
  00037	e8 00 00 00 00	 call	 ?Error@@YAPBDPBDZZ	; Error
  0003c	83 c4 0c	 add	 esp, 12			; 0000000cH
$LN57@LoadElemen:

; 821  : }

  0003f	83 c8 ff	 or	 eax, -1
  00042	8b 4d f4	 mov	 ecx, DWORD PTR __$EHRec$[ebp]
  00045	64 89 0d 00 00
	00 00		 mov	 DWORD PTR fs:0, ecx
  0004c	59		 pop	 ecx
  0004d	5f		 pop	 edi
  0004e	5e		 pop	 esi
  0004f	5b		 pop	 ebx
  00050	8b e5		 mov	 esp, ebp
  00052	5d		 pop	 ebp
  00053	c2 08 00	 ret	 8
$LN5@LoadElemen:

; 679  : 		return FAIL;
; 680  : 	}
; 681  : 
; 682  : 	if( nParts == PARTS_RIDE )

  00056	83 fa 0d	 cmp	 edx, 13			; 0000000dH
  00059	74 e4		 je	 SHORT $LN57@LoadElemen

; 683  : 		return FAIL;
; 684  : 
; 685  : 	if(  nParts >= PARTS_LOWER2 && nParts <= PARTS_BULLET )

  0005b	8d 42 f0	 lea	 eax, DWORD PTR [edx-16]
  0005e	83 f8 09	 cmp	 eax, 9
  00061	76 dc		 jbe	 SHORT $LN57@LoadElemen
; File C:\IAGOS\server\v18\Source\Source\_Common\ModelObject.h

; 200  : 		for( int i=0; i<MAX_ELEMENT; i++ )

  00063	33 c0		 xor	 eax, eax
  00065	8d 8e cc 02 00
	00		 lea	 ecx, DWORD PTR [esi+716]
  0006b	0f 1f 44 00 00	 npad	 5
$LL47@LoadElemen:

; 201  : 		{
; 202  : 			if( m_Element[i].m_nPartsIdx == nParts )

  00070	39 11		 cmp	 DWORD PTR [ecx], edx
  00072	74 0f		 je	 SHORT $LN134@LoadElemen

; 200  : 		for( int i=0; i<MAX_ELEMENT; i++ )

  00074	40		 inc	 eax
  00075	81 c1 fc 01 00
	00		 add	 ecx, 508		; 000001fcH
  0007b	83 f8 15	 cmp	 eax, 21			; 00000015H
  0007e	7c f0		 jl	 SHORT $LL47@LoadElemen

; 203  : 				return i;
; 204  : 		}
; 205  : 		return -1; 

  00080	83 c8 ff	 or	 eax, -1
$LN134@LoadElemen:
; File C:\IAGOS\server\v18\Source\Source\_Common\modelobject.cpp

; 689  : 	Destroy( nIdx );

  00083	50		 push	 eax
  00084	8b ce		 mov	 ecx, esi
  00086	e8 00 00 00 00	 call	 ?Destroy@CModelObject@@AAEHH@Z ; CModelObject::Destroy

; 690  : 
; 691  : #ifdef __CLIENT
; 692  : 	HRESULT hr;
; 693  : 	// Object3D관리자를 통해 메쉬를 로딩한 후 그 포인터를 받아온다.
; 694  : 	if( FAILED( hr = m_pd3dDevice->TestCooperativeLevel() ) )		// 디바이스가 허접하면 에러남김.
; 695  : 	{
; 696  : 		LPCTSTR szErr = Error( "%s 디바이스실패 %08x", szFileName, (int)hr );
; 697  : 		ADDERRORMSG( szErr );
; 698  : 	}
; 699  : #endif
; 700  : 	pObject3D = g_Object3DMng.LoadObject3D( m_pd3dDevice, szFileName );

  0008b	8b 5d 08	 mov	 ebx, DWORD PTR _szFileName$[ebp]
  0008e	b9 00 00 00 00	 mov	 ecx, OFFSET ?g_Object3DMng@@3VCObject3DMng@@A ; g_Object3DMng
  00093	53		 push	 ebx
  00094	ff 76 04	 push	 DWORD PTR [esi+4]
  00097	e8 00 00 00 00	 call	 ?LoadObject3D@CObject3DMng@@QAEPAVCObject3D@@PAUIDirect3DDevice9@@PBD@Z ; CObject3DMng::LoadObject3D
  0009c	8b f8		 mov	 edi, eax

; 701  : 	if( pObject3D == NULL )

  0009e	85 ff		 test	 edi, edi
  000a0	75 4c		 jne	 SHORT $LN8@LoadElemen

; 702  : 	{
; 703  : 		LPCTSTR szStr = Error( "%s : 찾을 수 없음", MakePath( DIR_MODEL, szFileName ) );

  000a2	53		 push	 ebx
  000a3	8d 45 08	 lea	 eax, DWORD PTR $T2[ebp]
  000a6	68 00 00 00 00	 push	 OFFSET ??_C@_06IJGEHPBH@Model?2@
  000ab	50		 push	 eax
  000ac	e8 00 00 00 00	 call	 ?MakePath@@YA?AV?$CStringT@DV?$StrTraitMFC@DV?$ChTraitsCRT@D@ATL@@@@@ATL@@PBD0@Z ; MakePath
  000b1	ff 30		 push	 DWORD PTR [eax]
  000b3	89 7d fc	 mov	 DWORD PTR __$EHRec$[ebp+8], edi
  000b6	68 00 00 00 00	 push	 OFFSET ??_C@_0BC@DADEMEMC@?$CFs?5?3?5?C?$KD?$MA?$LL?5?$LM?v?5?$LO?x?$MA?$LN@
  000bb	e8 00 00 00 00	 call	 ?Error@@YAPBDPBDZZ	; Error
; File C:\Program Files\Microsoft Visual Studio\2022\Professional\VC\Tools\MSVC\14.44.35207\atlmfc\include\atlsimpstr.h

; 804  : 		return( reinterpret_cast< CStringData* >( m_pszData )-1 );

  000c0	8b 55 08	 mov	 edx, DWORD PTR $T2[ebp]
$LN162@LoadElemen:
; File C:\IAGOS\server\v18\Source\Source\_Common\modelobject.cpp

; 821  : }

  000c3	c7 45 fc ff ff
	ff ff		 mov	 DWORD PTR __$EHRec$[ebp+8], -1
  000ca	83 c4 14	 add	 esp, 20			; 00000014H
  000cd	83 c2 f0	 add	 edx, -16		; fffffff0H
  000d0	83 c8 ff	 or	 eax, -1
  000d3	f0 0f c1 42 0c	 lock	  xadd	 DWORD PTR [edx+12], eax
  000d8	48		 dec	 eax
  000d9	85 c0		 test	 eax, eax
  000db	0f 8f 5e ff ff
	ff		 jg	 $LN57@LoadElemen
  000e1	8b 0a		 mov	 ecx, DWORD PTR [edx]
  000e3	52		 push	 edx
  000e4	8b 01		 mov	 eax, DWORD PTR [ecx]
  000e6	ff 50 04	 call	 DWORD PTR [eax+4]
  000e9	e9 51 ff ff ff	 jmp	 $LN57@LoadElemen
$LN8@LoadElemen:
; File C:\IAGOS\server\v18\Source\Source\_Common\Object3d.h

; 302  : 	BOOL	IsUseExternBone( void ) { if( m_nHavePhysique && m_pBaseBone == NULL ) return TRUE; else return FALSE; }	// 스킨오브젝트이고 자체 본을 가지고 있지 않다. 이것은 외장본을 사용하는 스킨이다

  000ee	83 bf bc 00 00
	00 00		 cmp	 DWORD PTR [edi+188], 0
; File C:\IAGOS\server\v18\Source\Source\_Common\modelobject.cpp

; 708  : 	pObject3D->InitDeviceObjects( m_pd3dDevice );

  000f5	8b 46 04	 mov	 eax, DWORD PTR [esi+4]
; File C:\IAGOS\server\v18\Source\Source\_Common\Object3d.h

; 385  : 	HRESULT InitDeviceObjects( LPDIRECT3DDEVICE9 pd3dDevice ) { m_pd3dDevice = pd3dDevice;  return S_OK; }

  000f8	89 87 ac 00 00
	00		 mov	 DWORD PTR [edi+172], eax

; 302  : 	BOOL	IsUseExternBone( void ) { if( m_nHavePhysique && m_pBaseBone == NULL ) return TRUE; else return FALSE; }	// 스킨오브젝트이고 자체 본을 가지고 있지 않다. 이것은 외장본을 사용하는 스킨이다

  000fe	74 13		 je	 SHORT $LN10@LoadElemen
  00100	83 7f 34 00	 cmp	 DWORD PTR [edi+52], 0
  00104	75 0d		 jne	 SHORT $LN10@LoadElemen
; File C:\IAGOS\server\v18\Source\Source\_Common\modelobject.cpp

; 713  : 		if( m_pBone == NULL )			// 본을 아직 안읽은 상태다...

  00106	83 be 84 2a 00
	00 00		 cmp	 DWORD PTR [esi+10884], 0
  0010d	0f 84 2c ff ff
	ff		 je	 $LN57@LoadElemen
$LN10@LoadElemen:

; 714  : 		{
; 715  : #ifdef __CLIENT
; 716  : 			Error( "%s : bone not loaded.", szFileName );		// 본을 로딩하지 않고 메쉬를 읽음
; 717  : #endif // __CLIENT
; 718  : 			return FAIL;
; 719  : 		}
; 720  : 	}
; 721  : 	
; 722  : 	int i = NULL;

  00113	33 c9		 xor	 ecx, ecx
  00115	8d 86 c8 04 00
	00		 lea	 eax, DWORD PTR [esi+1224]
  0011b	0f 1f 44 00 00	 npad	 5
$LL4@LoadElemen:

; 724  : 	{
; 725  : 		if( m_Element[ i ].m_nPartsIdx == -1 )

  00120	83 b8 04 fe ff
	ff ff		 cmp	 DWORD PTR [eax-508], -1
  00127	74 2c		 je	 SHORT $LN12@LoadElemen
  00129	83 38 ff	 cmp	 DWORD PTR [eax], -1
  0012c	74 1d		 je	 SHORT $LN141@LoadElemen
  0012e	83 b8 fc 01 00
	00 ff		 cmp	 DWORD PTR [eax+508], -1
  00135	74 0f		 je	 SHORT $LN142@LoadElemen

; 723  : 	for( ; i<MAX_ELEMENT; i++ )

  00137	83 c1 03	 add	 ecx, 3
  0013a	05 f4 05 00 00	 add	 eax, 1524		; 000005f4H
  0013f	83 f9 15	 cmp	 ecx, 21			; 00000015H
  00142	7c dc		 jl	 SHORT $LL4@LoadElemen
  00144	eb 06		 jmp	 SHORT $LN135@LoadElemen
$LN142@LoadElemen:

; 724  : 	{
; 725  : 		if( m_Element[ i ].m_nPartsIdx == -1 )

  00146	83 c1 02	 add	 ecx, 2
  00149	eb 01		 jmp	 SHORT $LN135@LoadElemen
$LN141@LoadElemen:
  0014b	41		 inc	 ecx
$LN135@LoadElemen:

; 726  : 			break;
; 727  : 	}
; 728  : 
; 729  : 	if( i == MAX_ELEMENT )

  0014c	83 f9 15	 cmp	 ecx, 21			; 00000015H
  0014f	0f 84 ea fe ff
	ff		 je	 $LN57@LoadElemen
$LN12@LoadElemen:

; 730  : 		return FAIL;
; 731  : 
; 732  : 	pElem = &m_Element[ i ];

  00155	69 d9 fc 01 00
	00		 imul	 ebx, ecx, 508

; 733  : 	memset( pElem, 0, sizeof(O3D_ELEMENT) );

  0015b	8d 86 dc 00 00
	00		 lea	 eax, DWORD PTR [esi+220]
  00161	6a 40		 push	 64			; 00000040H
  00163	6a 00		 push	 0
  00165	03 c3		 add	 eax, ebx
  00167	50		 push	 eax
  00168	e8 00 00 00 00	 call	 _memset
  0016d	68 b0 00 00 00	 push	 176			; 000000b0H
  00172	8d 86 1c 02 00
	00		 lea	 eax, DWORD PTR [esi+540]
  00178	03 c3		 add	 eax, ebx
  0017a	6a 00		 push	 0
  0017c	50		 push	 eax
  0017d	e8 00 00 00 00	 call	 _memset

; 734  : 	pElem->m_nPartsIdx = nParts;
; 735  : 	pElem->m_nParentIdx = -1;

  00182	c7 84 33 d4 00
	00 00 ff ff ff
	ff		 mov	 DWORD PTR [ebx+esi+212], -1
  0018d	8b 45 0c	 mov	 eax, DWORD PTR _nParts$[ebp]
  00190	89 84 33 cc 02
	00 00		 mov	 DWORD PTR [ebx+esi+716], eax
; File C:\IAGOS\server\v18\Source\Source\DX_SDK\d3dx9math.inl

; 1961 :     pOut->m[0][1] = pOut->m[0][2] = pOut->m[0][3] =

  00197	c7 84 33 54 01
	00 00 00 00 00
	00		 mov	 DWORD PTR [ebx+esi+340], 0
  001a2	c7 84 33 50 01
	00 00 00 00 00
	00		 mov	 DWORD PTR [ebx+esi+336], 0
  001ad	c7 84 33 4c 01
	00 00 00 00 00
	00		 mov	 DWORD PTR [ebx+esi+332], 0
  001b8	c7 84 33 48 01
	00 00 00 00 00
	00		 mov	 DWORD PTR [ebx+esi+328], 0
  001c3	c7 84 33 40 01
	00 00 00 00 00
	00		 mov	 DWORD PTR [ebx+esi+320], 0
  001ce	c7 84 33 3c 01
	00 00 00 00 00
	00		 mov	 DWORD PTR [ebx+esi+316], 0
  001d9	c7 84 33 38 01
	00 00 00 00 00
	00		 mov	 DWORD PTR [ebx+esi+312], 0
  001e4	c7 84 33 34 01
	00 00 00 00 00
	00		 mov	 DWORD PTR [ebx+esi+308], 0
  001ef	c7 84 33 2c 01
	00 00 00 00 00
	00		 mov	 DWORD PTR [ebx+esi+300], 0
  001fa	c7 84 33 28 01
	00 00 00 00 00
	00		 mov	 DWORD PTR [ebx+esi+296], 0
  00205	c7 84 33 24 01
	00 00 00 00 00
	00		 mov	 DWORD PTR [ebx+esi+292], 0
  00210	c7 84 33 20 01
	00 00 00 00 00
	00		 mov	 DWORD PTR [ebx+esi+288], 0

; 1962 :     pOut->m[1][0] = pOut->m[1][2] = pOut->m[1][3] =
; 1963 :     pOut->m[2][0] = pOut->m[2][1] = pOut->m[2][3] =
; 1964 :     pOut->m[3][0] = pOut->m[3][1] = pOut->m[3][2] = 0.0f;
; 1965 : 
; 1966 :     pOut->m[0][0] = pOut->m[1][1] = pOut->m[2][2] = pOut->m[3][3] = 1.0f;

  0021b	c7 84 33 58 01
	00 00 00 00 80
	3f		 mov	 DWORD PTR [ebx+esi+344], 1065353216 ; 3f800000H
  00226	c7 84 33 44 01
	00 00 00 00 80
	3f		 mov	 DWORD PTR [ebx+esi+324], 1065353216 ; 3f800000H
  00231	c7 84 33 30 01
	00 00 00 00 80
	3f		 mov	 DWORD PTR [ebx+esi+304], 1065353216 ; 3f800000H
  0023c	c7 84 33 1c 01
	00 00 00 00 80
	3f		 mov	 DWORD PTR [ebx+esi+284], 1065353216 ; 3f800000H

; 1961 :     pOut->m[0][1] = pOut->m[0][2] = pOut->m[0][3] =

  00247	c7 84 33 94 01
	00 00 00 00 00
	00		 mov	 DWORD PTR [ebx+esi+404], 0
  00252	c7 84 33 90 01
	00 00 00 00 00
	00		 mov	 DWORD PTR [ebx+esi+400], 0
  0025d	c7 84 33 8c 01
	00 00 00 00 00
	00		 mov	 DWORD PTR [ebx+esi+396], 0
  00268	c7 84 33 88 01
	00 00 00 00 00
	00		 mov	 DWORD PTR [ebx+esi+392], 0
  00273	c7 84 33 80 01
	00 00 00 00 00
	00		 mov	 DWORD PTR [ebx+esi+384], 0
  0027e	c7 84 33 7c 01
	00 00 00 00 00
	00		 mov	 DWORD PTR [ebx+esi+380], 0
  00289	c7 84 33 78 01
	00 00 00 00 00
	00		 mov	 DWORD PTR [ebx+esi+376], 0
  00294	c7 84 33 74 01
	00 00 00 00 00
	00		 mov	 DWORD PTR [ebx+esi+372], 0
  0029f	c7 84 33 6c 01
	00 00 00 00 00
	00		 mov	 DWORD PTR [ebx+esi+364], 0
  002aa	c7 84 33 68 01
	00 00 00 00 00
	00		 mov	 DWORD PTR [ebx+esi+360], 0
  002b5	c7 84 33 64 01
	00 00 00 00 00
	00		 mov	 DWORD PTR [ebx+esi+356], 0
  002c0	c7 84 33 60 01
	00 00 00 00 00
	00		 mov	 DWORD PTR [ebx+esi+352], 0

; 1962 :     pOut->m[1][0] = pOut->m[1][2] = pOut->m[1][3] =
; 1963 :     pOut->m[2][0] = pOut->m[2][1] = pOut->m[2][3] =
; 1964 :     pOut->m[3][0] = pOut->m[3][1] = pOut->m[3][2] = 0.0f;
; 1965 : 
; 1966 :     pOut->m[0][0] = pOut->m[1][1] = pOut->m[2][2] = pOut->m[3][3] = 1.0f;

  002cb	c7 84 33 98 01
	00 00 00 00 80
	3f		 mov	 DWORD PTR [ebx+esi+408], 1065353216 ; 3f800000H
  002d6	c7 84 33 84 01
	00 00 00 00 80
	3f		 mov	 DWORD PTR [ebx+esi+388], 1065353216 ; 3f800000H
  002e1	c7 84 33 70 01
	00 00 00 00 80
	3f		 mov	 DWORD PTR [ebx+esi+368], 1065353216 ; 3f800000H
  002ec	c7 84 33 5c 01
	00 00 00 00 80
	3f		 mov	 DWORD PTR [ebx+esi+348], 1065353216 ; 3f800000H

; 1961 :     pOut->m[0][1] = pOut->m[0][2] = pOut->m[0][3] =

  002f7	c7 84 33 d4 01
	00 00 00 00 00
	00		 mov	 DWORD PTR [ebx+esi+468], 0
  00302	c7 84 33 d0 01
	00 00 00 00 00
	00		 mov	 DWORD PTR [ebx+esi+464], 0
  0030d	c7 84 33 cc 01
	00 00 00 00 00
	00		 mov	 DWORD PTR [ebx+esi+460], 0
  00318	c7 84 33 c8 01
	00 00 00 00 00
	00		 mov	 DWORD PTR [ebx+esi+456], 0
  00323	c7 84 33 c0 01
	00 00 00 00 00
	00		 mov	 DWORD PTR [ebx+esi+448], 0
  0032e	c7 84 33 bc 01
	00 00 00 00 00
	00		 mov	 DWORD PTR [ebx+esi+444], 0
  00339	c7 84 33 b8 01
	00 00 00 00 00
	00		 mov	 DWORD PTR [ebx+esi+440], 0
  00344	c7 84 33 b4 01
	00 00 00 00 00
	00		 mov	 DWORD PTR [ebx+esi+436], 0
  0034f	c7 84 33 ac 01
	00 00 00 00 00
	00		 mov	 DWORD PTR [ebx+esi+428], 0
  0035a	c7 84 33 a8 01
	00 00 00 00 00
	00		 mov	 DWORD PTR [ebx+esi+424], 0
  00365	c7 84 33 a4 01
	00 00 00 00 00
	00		 mov	 DWORD PTR [ebx+esi+420], 0
  00370	c7 84 33 a0 01
	00 00 00 00 00
	00		 mov	 DWORD PTR [ebx+esi+416], 0

; 1962 :     pOut->m[1][0] = pOut->m[1][2] = pOut->m[1][3] =
; 1963 :     pOut->m[2][0] = pOut->m[2][1] = pOut->m[2][3] =
; 1964 :     pOut->m[3][0] = pOut->m[3][1] = pOut->m[3][2] = 0.0f;
; 1965 : 
; 1966 :     pOut->m[0][0] = pOut->m[1][1] = pOut->m[2][2] = pOut->m[3][3] = 1.0f;

  0037b	c7 84 33 d8 01
	00 00 00 00 80
	3f		 mov	 DWORD PTR [ebx+esi+472], 1065353216 ; 3f800000H
  00386	c7 84 33 c4 01
	00 00 00 00 80
	3f		 mov	 DWORD PTR [ebx+esi+452], 1065353216 ; 3f800000H
  00391	c7 84 33 b0 01
	00 00 00 00 80
	3f		 mov	 DWORD PTR [ebx+esi+432], 1065353216 ; 3f800000H
  0039c	c7 84 33 9c 01
	00 00 00 00 80
	3f		 mov	 DWORD PTR [ebx+esi+412], 1065353216 ; 3f800000H

; 1961 :     pOut->m[0][1] = pOut->m[0][2] = pOut->m[0][3] =

  003a7	c7 84 33 14 02
	00 00 00 00 00
	00		 mov	 DWORD PTR [ebx+esi+532], 0
  003b2	c7 84 33 10 02
	00 00 00 00 00
	00		 mov	 DWORD PTR [ebx+esi+528], 0
  003bd	c7 84 33 0c 02
	00 00 00 00 00
	00		 mov	 DWORD PTR [ebx+esi+524], 0
  003c8	c7 84 33 08 02
	00 00 00 00 00
	00		 mov	 DWORD PTR [ebx+esi+520], 0
  003d3	c7 84 33 00 02
	00 00 00 00 00
	00		 mov	 DWORD PTR [ebx+esi+512], 0
  003de	c7 84 33 fc 01
	00 00 00 00 00
	00		 mov	 DWORD PTR [ebx+esi+508], 0
  003e9	c7 84 33 f8 01
	00 00 00 00 00
	00		 mov	 DWORD PTR [ebx+esi+504], 0
  003f4	c7 84 33 f4 01
	00 00 00 00 00
	00		 mov	 DWORD PTR [ebx+esi+500], 0
  003ff	c7 84 33 ec 01
	00 00 00 00 00
	00		 mov	 DWORD PTR [ebx+esi+492], 0
  0040a	c7 84 33 e8 01
	00 00 00 00 00
	00		 mov	 DWORD PTR [ebx+esi+488], 0
  00415	c7 84 33 e4 01
	00 00 00 00 00
	00		 mov	 DWORD PTR [ebx+esi+484], 0
  00420	c7 84 33 e0 01
	00 00 00 00 00
	00		 mov	 DWORD PTR [ebx+esi+480], 0

; 1962 :     pOut->m[1][0] = pOut->m[1][2] = pOut->m[1][3] =
; 1963 :     pOut->m[2][0] = pOut->m[2][1] = pOut->m[2][3] =
; 1964 :     pOut->m[3][0] = pOut->m[3][1] = pOut->m[3][2] = 0.0f;
; 1965 : 
; 1966 :     pOut->m[0][0] = pOut->m[1][1] = pOut->m[2][2] = pOut->m[3][3] = 1.0f;

  0042b	c7 84 33 18 02
	00 00 00 00 80
	3f		 mov	 DWORD PTR [ebx+esi+536], 1065353216 ; 3f800000H
  00436	c7 84 33 04 02
	00 00 00 00 80
	3f		 mov	 DWORD PTR [ebx+esi+516], 1065353216 ; 3f800000H
  00441	c7 84 33 f0 01
	00 00 00 00 80
	3f		 mov	 DWORD PTR [ebx+esi+496], 1065353216 ; 3f800000H
  0044c	c7 84 33 dc 01
	00 00 00 00 80
	3f		 mov	 DWORD PTR [ebx+esi+476], 1065353216 ; 3f800000H
; File C:\IAGOS\server\v18\Source\Source\_Common\modelobject.cpp

; 742  : 	pElem->m_pObject3D = pObject3D;

  00457	89 bc 33 d8 00
	00 00		 mov	 DWORD PTR [ebx+esi+216], edi

; 743  : 	
; 744  : 	memset( &g_szLastFile, 0, sizeof(char)*512 );

  0045e	68 00 02 00 00	 push	 512			; 00000200H
  00463	6a 00		 push	 0
  00465	68 00 00 00 00	 push	 OFFSET ?g_szLastFile@@3PADA ; g_szLastFile
  0046a	e8 00 00 00 00	 call	 _memset

; 745  : 	strcpy( g_szLastFile, szFileName );

  0046f	8b 4d 08	 mov	 ecx, DWORD PTR _szFileName$[ebp]
  00472	ba 00 00 00 00	 mov	 edx, OFFSET ?g_szLastFile@@3PADA ; g_szLastFile
  00477	83 c4 24	 add	 esp, 36			; 00000024H
  0047a	2b d1		 sub	 edx, ecx
  0047c	0f 1f 40 00	 npad	 4
$LL31@LoadElemen:
  00480	8a 01		 mov	 al, BYTE PTR [ecx]
  00482	8d 49 01	 lea	 ecx, DWORD PTR [ecx+1]
  00485	88 44 0a ff	 mov	 BYTE PTR [edx+ecx-1], al
  00489	84 c0		 test	 al, al
  0048b	75 f3		 jne	 SHORT $LL31@LoadElemen

; 746  : 
; 747  : 	if( pObject3D->GetGMOBJECT() == NULL )

  0048d	8b 07		 mov	 eax, DWORD PTR [edi]
  0048f	8b 40 04	 mov	 eax, DWORD PTR [eax+4]
  00492	85 c0		 test	 eax, eax
  00494	75 2d		 jne	 SHORT $LN13@LoadElemen

; 748  : 	{
; 749  : 		LPCTSTR szStr = Error( "CModelObject::LoadElement에서 튕김 : 읽은 파일명 %s", MakePath( DIR_MODEL, szFileName ) );

  00496	8b 45 08	 mov	 eax, DWORD PTR _szFileName$[ebp]
  00499	50		 push	 eax
  0049a	8d 45 0c	 lea	 eax, DWORD PTR $T3[ebp]
  0049d	68 00 00 00 00	 push	 OFFSET ??_C@_06IJGEHPBH@Model?2@
  004a2	50		 push	 eax
  004a3	e8 00 00 00 00	 call	 ?MakePath@@YA?AV?$CStringT@DV?$StrTraitMFC@DV?$ChTraitsCRT@D@ATL@@@@@ATL@@PBD0@Z ; MakePath
  004a8	ff 30		 push	 DWORD PTR [eax]
  004aa	c7 45 fc 01 00
	00 00		 mov	 DWORD PTR __$EHRec$[ebp+8], 1
  004b1	68 00 00 00 00	 push	 OFFSET ??_C@_0DE@IHGMJNKM@CModelObject?3?3LoadElement?$LP?$KB?$LM?$KN?5?F@
  004b6	e8 00 00 00 00	 call	 ?Error@@YAPBDPBDZZ	; Error
; File C:\Program Files\Microsoft Visual Studio\2022\Professional\VC\Tools\MSVC\14.44.35207\atlmfc\include\atlsimpstr.h

; 804  : 		return( reinterpret_cast< CStringData* >( m_pszData )-1 );

  004bb	8b 55 0c	 mov	 edx, DWORD PTR $T3[ebp]

; 94   : 			pStringMgr->Free( this );

  004be	e9 00 fc ff ff	 jmp	 $LN162@LoadElemen
$LN13@LoadElemen:
; File C:\IAGOS\server\v18\Source\Source\_Common\modelobject.cpp

; 754  : 	if( pObject3D->GetGMOBJECT()->m_bOpacity )

  004c3	83 b8 84 00 00
	00 00		 cmp	 DWORD PTR [eax+132], 0
  004ca	74 07		 je	 SHORT $LN14@LoadElemen

; 755  : 		m_dwRenderEffect = REFF_ALPHA;

  004cc	c7 46 6c 01 00
	00 00		 mov	 DWORD PTR [esi+108], 1
$LN14@LoadElemen:
; File C:\IAGOS\server\v18\Source\Source\_Common\Object3d.h

; 301  : 	BOOL	IsHaveCollObj( void ) { return (m_CollObject.m_Type != GMT_ERROR)? TRUE : FALSE; }

  004d3	33 c0		 xor	 eax, eax
  004d5	83 bf 00 01 00
	00 ff		 cmp	 DWORD PTR [edi+256], -1
  004dc	0f 95 c0	 setne	 al
; File C:\IAGOS\server\v18\Source\Source\_Common\modelobject.cpp

; 756  : 	m_bCollObj = pObject3D->IsHaveCollObj();

  004df	89 86 cc 00 00
	00		 mov	 DWORD PTR [esi+204], eax

; 757  : 	if( pObject3D->m_nHavePhysique )	m_bSkin = TRUE;

  004e5	83 bf bc 00 00
	00 00		 cmp	 DWORD PTR [edi+188], 0
  004ec	74 0a		 je	 SHORT $LN15@LoadElemen
  004ee	c7 86 b8 00 00
	00 01 00 00 00	 mov	 DWORD PTR [esi+184], 1
$LN15@LoadElemen:

; 758  : 
; 759  : 	if( m_nFrameMax > 0 )	// 이미 모션이나 오브젝을 읽어서 maxframe이 있을때 이번에 읽은 오브젝틔 maxframe하고 비교. 틀리면 에러.

  004f8	8b 8e a8 00 00
	00		 mov	 ecx, DWORD PTR [esi+168]
  004fe	85 c9		 test	 ecx, ecx
  00500	7e 21		 jle	 SHORT $LN18@LoadElemen

; 760  : 	{
; 761  : 		if( pObject3D->GetMaxFrame() )

  00502	8b 87 1c 0c 00
	00		 mov	 eax, DWORD PTR [edi+3100]
  00508	85 c0		 test	 eax, eax
  0050a	74 17		 je	 SHORT $LN18@LoadElemen

; 762  : 			if( m_nFrameMax != pObject3D->GetMaxFrame() )

  0050c	3b c8		 cmp	 ecx, eax
  0050e	74 13		 je	 SHORT $LN18@LoadElemen

; 763  : 			{
; 764  : 				LPCTSTR szErr = Error( "CModelObject::LoadElement - %s의 MaxFrame(%d)과 이전에 읽은 MaxFrame(%d)이 다르다.", szFileName, pObject3D->GetMaxFrame(), m_nFrameMax );

  00510	51		 push	 ecx
  00511	50		 push	 eax
  00512	8b 45 08	 mov	 eax, DWORD PTR _szFileName$[ebp]
  00515	50		 push	 eax
  00516	68 00 00 00 00	 push	 OFFSET ??_C@_0FD@CBFMNCCC@CModelObject?3?3LoadElement?5?9?5?$CFs?$MA@
  0051b	e8 00 00 00 00	 call	 ?Error@@YAPBDPBDZZ	; Error
  00520	83 c4 10	 add	 esp, 16			; 00000010H
$LN18@LoadElemen:

; 765  : 				ADDERRORMSG( szErr );
; 766  : 			}
; 767  : 	}
; 768  : 	if( m_nFrameMax == 0 )	// maxframe이 세팅된적이 없을때만 최초 세팅함.

  00523	83 be a8 00 00
	00 00		 cmp	 DWORD PTR [esi+168], 0
  0052a	75 0c		 jne	 SHORT $LN19@LoadElemen

; 769  : 		m_nFrameMax = pObject3D->GetMaxFrame();

  0052c	8b 87 1c 0c 00
	00		 mov	 eax, DWORD PTR [edi+3100]
  00532	89 86 a8 00 00
	00		 mov	 DWORD PTR [esi+168], eax
$LN19@LoadElemen:

; 770  : 
; 771  : 	// 애니메이션 속도
; 772  : 	m_fPerSlerp = (float)((int)(pObject3D->m_fPerSlerp * 1000.0f)) / 1000.0f;		// 소숫점 3째 이하에서 오차가 생길수 있으므로 3째까지 에서 잘라버린다,.
; 773  : 
; 774  : 
; 775  : 	// 이미 본이 로딩되어 있는 상태면 m_pUpdateBone을 오브젝트의 외부뼈대로 등록함.
; 776  : 	if( m_pBone )

  00538	83 be 84 2a 00
	00 00		 cmp	 DWORD PTR [esi+10884], 0
  0053f	f3 0f 10 87 18
	0c 00 00	 movss	 xmm0, DWORD PTR [edi+3096]
  00547	f3 0f 59 05 00
	00 00 00	 mulss	 xmm0, DWORD PTR __real@447a0000
  0054f	f3 0f 2c c0	 cvttss2si eax, xmm0
  00553	66 0f 6e c0	 movd	 xmm0, eax
  00557	0f 5b c0	 cvtdq2ps xmm0, xmm0
  0055a	f3 0f 5e 05 00
	00 00 00	 divss	 xmm0, DWORD PTR __real@447a0000
  00562	f3 0f 11 86 ac
	00 00 00	 movss	 DWORD PTR [esi+172], xmm0
  0056a	74 18		 je	 SHORT $LN79@LoadElemen
; File C:\IAGOS\server\v18\Source\Source\_Common\Object3d.h

; 285  : 	void	SetExternBone( D3DXMATRIX *pmBone, D3DXMATRIX *pmBoneInv ) { if(m_pBaseBone == NULL) { m_pmExternBone = pmBone; m_pmExternBoneInv = pmBoneInv; } }	// 스킨만이 m_pBaseBone을 이미 할당하고 있다.

  0056c	83 7f 34 00	 cmp	 DWORD PTR [edi+52], 0
; File C:\IAGOS\server\v18\Source\Source\_Common\modelobject.cpp

; 777  : 		pObject3D->SetExternBone( m_mUpdateBone, m_pBaseBoneInv );

  00570	8b 8e c8 00 00
	00		 mov	 ecx, DWORD PTR [esi+200]
; File C:\IAGOS\server\v18\Source\Source\_Common\Object3d.h

; 285  : 	void	SetExternBone( D3DXMATRIX *pmBone, D3DXMATRIX *pmBoneInv ) { if(m_pBaseBone == NULL) { m_pmExternBone = pmBone; m_pmExternBoneInv = pmBoneInv; } }	// 스킨만이 m_pBaseBone을 이미 할당하고 있다.

  00576	75 0c		 jne	 SHORT $LN79@LoadElemen
  00578	8b 86 9c 2a 00
	00		 mov	 eax, DWORD PTR [esi+10908]
  0057e	89 47 28	 mov	 DWORD PTR [edi+40], eax
  00581	89 4f 2c	 mov	 DWORD PTR [edi+44], ecx
$LN79@LoadElemen:
; File C:\IAGOS\server\v18\Source\Source\_Common\modelobject.cpp

; 782  : 	if( pObject3D->m_vBBMin.x < m_vMin.x )	m_vMin.x = pObject3D->m_vBBMin.x;

  00584	f3 0f 10 8f bc
	0b 00 00	 movss	 xmm1, DWORD PTR [edi+3004]
  0058c	8d 4e 78	 lea	 ecx, DWORD PTR [esi+120]
  0058f	f3 0f 10 01	 movss	 xmm0, DWORD PTR [ecx]
  00593	0f 2f c1	 comiss	 xmm0, xmm1
  00596	76 04		 jbe	 SHORT $LN21@LoadElemen
  00598	f3 0f 11 09	 movss	 DWORD PTR [ecx], xmm1
$LN21@LoadElemen:

; 783  : 	if( pObject3D->m_vBBMin.y < m_vMin.y )	m_vMin.y = pObject3D->m_vBBMin.y;

  0059c	f3 0f 10 8f c0
	0b 00 00	 movss	 xmm1, DWORD PTR [edi+3008]
  005a4	f3 0f 10 46 7c	 movss	 xmm0, DWORD PTR [esi+124]
  005a9	0f 2f c1	 comiss	 xmm0, xmm1
  005ac	76 05		 jbe	 SHORT $LN22@LoadElemen
  005ae	f3 0f 11 4e 7c	 movss	 DWORD PTR [esi+124], xmm1
$LN22@LoadElemen:

; 784  : 	if( pObject3D->m_vBBMin.z < m_vMin.z )	m_vMin.z = pObject3D->m_vBBMin.z;

  005b3	f3 0f 10 8f c4
	0b 00 00	 movss	 xmm1, DWORD PTR [edi+3012]
  005bb	f3 0f 10 86 80
	00 00 00	 movss	 xmm0, DWORD PTR [esi+128]
  005c3	0f 2f c1	 comiss	 xmm0, xmm1
  005c6	76 08		 jbe	 SHORT $LN23@LoadElemen
  005c8	f3 0f 11 8e 80
	00 00 00	 movss	 DWORD PTR [esi+128], xmm1
$LN23@LoadElemen:

; 785  : 	if( pObject3D->m_vBBMax.x > m_vMax.x )	m_vMax.x = pObject3D->m_vBBMax.x;

  005d0	f3 0f 10 87 c8
	0b 00 00	 movss	 xmm0, DWORD PTR [edi+3016]
  005d8	8d 86 84 00 00
	00		 lea	 eax, DWORD PTR [esi+132]
  005de	0f 2f 00	 comiss	 xmm0, DWORD PTR [eax]
  005e1	76 04		 jbe	 SHORT $LN24@LoadElemen
  005e3	f3 0f 11 00	 movss	 DWORD PTR [eax], xmm0
$LN24@LoadElemen:

; 786  : 	if( pObject3D->m_vBBMax.y > m_vMax.y )	m_vMax.y = pObject3D->m_vBBMax.y;

  005e7	f3 0f 10 87 cc
	0b 00 00	 movss	 xmm0, DWORD PTR [edi+3020]
  005ef	0f 2f 86 88 00
	00 00		 comiss	 xmm0, DWORD PTR [esi+136]
  005f6	76 08		 jbe	 SHORT $LN25@LoadElemen
  005f8	f3 0f 11 86 88
	00 00 00	 movss	 DWORD PTR [esi+136], xmm0
$LN25@LoadElemen:

; 787  : 	if( pObject3D->m_vBBMax.z > m_vMax.z )	m_vMax.z = pObject3D->m_vBBMax.z;

  00600	f3 0f 10 87 d0
	0b 00 00	 movss	 xmm0, DWORD PTR [edi+3024]
  00608	0f 2f 86 8c 00
	00 00		 comiss	 xmm0, DWORD PTR [esi+140]
  0060f	76 08		 jbe	 SHORT $LN26@LoadElemen
  00611	f3 0f 11 86 8c
	00 00 00	 movss	 DWORD PTR [esi+140], xmm0
$LN26@LoadElemen:

; 788  : 	SetBB( m_BB.m_vPos, m_vMin, m_vMax );

  00619	50		 push	 eax
  0061a	51		 push	 ecx
  0061b	8d 46 0c	 lea	 eax, DWORD PTR [esi+12]
  0061e	50		 push	 eax
  0061f	e8 00 00 00 00	 call	 ?SetBB@@YAXPAUD3DXVECTOR3@@ABU1@1@Z ; SetBB
  00624	83 c4 0c	 add	 esp, 12			; 0000000cH

; 789  : 
; 790  : 	// 읽어온 엘리먼트는 this의 뼈대에 부모지정이 안되어 있게 한다.
; 791  : 	// 만약 칼을 읽어왔다면 수동으로 SetParent()하도록 한다.
; 792  : 	pElem->m_nParentIdx = -1;

  00627	c7 84 33 d4 00
	00 00 ff ff ff
	ff		 mov	 DWORD PTR [ebx+esi+212], -1

; 793  : 
; 794  : 	if( pObject3D->m_nHavePhysique )	// 피지크를 가지고 있다면 스킨은 버텍스버퍼를 따로 가짐

  00632	83 bf bc 00 00
	00 00		 cmp	 DWORD PTR [edi+188], 0
  00639	0f 84 fc 00 00
	00		 je	 $LN154@LoadElemen

; 795  : 	{
; 796  : 		if( pElem->m_ppd3d_VB )

  0063f	83 bc 33 1c 02
	00 00 00	 cmp	 DWORD PTR [ebx+esi+540], 0
  00647	74 10		 je	 SHORT $LN28@LoadElemen

; 797  : 			Error( "CModelObject::LoadElement: %s pElem->m_ppd3d_VB is not NULL", szFileName );

  00649	ff 75 08	 push	 DWORD PTR _szFileName$[ebp]
  0064c	68 00 00 00 00	 push	 OFFSET ??_C@_0DM@KIFEJOGG@CModelObject?3?3LoadElement?3?5?$CFs?5p@
  00651	e8 00 00 00 00	 call	 ?Error@@YAPBDPBDZZ	; Error
  00656	83 c4 08	 add	 esp, 8
$LN28@LoadElemen:
; File C:\IAGOS\server\v18\Source\Source\_Common\Object3d.h

; 310  : 		if( m_bLOD == 0 ) nLevel = 0;	// LOD데이타가 없다면 항상 High레벨로만..

  00659	8b 8f b4 00 00
	00		 mov	 ecx, DWORD PTR [edi+180]

; 311  : 		m_pGroup = &m_Group[nLevel]; 

  0065f	b8 04 00 00 00	 mov	 eax, 4
; File C:\IAGOS\server\v18\Source\Source\_Common\modelobject.cpp

; 800  : 		pObject3D->SetLOD(0);	nTotal += pObject3D->GetMaxObject();

  00664	8b 57 04	 mov	 edx, DWORD PTR [edi+4]
; File C:\IAGOS\server\v18\Source\Source\_Common\Object3d.h

; 311  : 		m_pGroup = &m_Group[nLevel]; 

  00667	85 c9		 test	 ecx, ecx
  00669	c7 45 0c 10 00
	00 00		 mov	 DWORD PTR tv2025[ebp], 16 ; 00000010H
  00670	0f 45 45 0c	 cmovne	 eax, DWORD PTR tv2025[ebp]
  00674	03 c7		 add	 eax, edi
  00676	c7 45 08 1c 00
	00 00		 mov	 DWORD PTR tv2015[ebp], 28 ; 0000001cH
  0067d	89 07		 mov	 DWORD PTR [edi], eax
; File C:\IAGOS\server\v18\Source\Source\_Common\modelobject.cpp

; 801  : 		pObject3D->SetLOD(1);	nTotal += pObject3D->GetMaxObject();

  0067f	03 10		 add	 edx, DWORD PTR [eax]
; File C:\IAGOS\server\v18\Source\Source\_Common\Object3d.h

; 311  : 		m_pGroup = &m_Group[nLevel]; 

  00681	85 c9		 test	 ecx, ecx
  00683	b8 04 00 00 00	 mov	 eax, 4
  00688	0f 45 45 08	 cmovne	 eax, DWORD PTR tv2015[ebp]
  0068c	03 c7		 add	 eax, edi
  0068e	89 07		 mov	 DWORD PTR [edi], eax
; File C:\IAGOS\server\v18\Source\Source\_Common\modelobject.cpp

; 802  : 		pObject3D->SetLOD(2);	nTotal += pObject3D->GetMaxObject();

  00690	03 10		 add	 edx, DWORD PTR [eax]
; File C:\IAGOS\server\v18\Source\Source\_Common\Object3d.h

; 311  : 		m_pGroup = &m_Group[nLevel]; 

  00692	8d 47 04	 lea	 eax, DWORD PTR [edi+4]
; File C:\IAGOS\server\v18\Source\Source\_Common\modelobject.cpp

; 802  : 		pObject3D->SetLOD(2);	nTotal += pObject3D->GetMaxObject();

  00695	89 55 08	 mov	 DWORD PTR _nTotal$1$[ebp], edx
; File C:\IAGOS\server\v18\Source\Source\_Common\Object3d.h

; 311  : 		m_pGroup = &m_Group[nLevel]; 

  00698	89 07		 mov	 DWORD PTR [edi], eax
; File C:\IAGOS\server\v18\Source\Source\_Common\modelobject.cpp

; 805  : 		if( nTotal <= 0 )

  0069a	85 d2		 test	 edx, edx
  0069c	7f 18		 jg	 SHORT $LN147@LoadElemen

; 806  : 			Error( "%s LoadElement : nTotal=%d", pObject3D->m_szFileName, nTotal );

  0069e	52		 push	 edx
  0069f	8d 87 c0 00 00
	00		 lea	 eax, DWORD PTR [edi+192]
  006a5	50		 push	 eax
  006a6	68 00 00 00 00	 push	 OFFSET ??_C@_0BL@ENCDCJBI@?$CFs?5LoadElement?5?3?5nTotal?$DN?$CFd@
  006ab	e8 00 00 00 00	 call	 ?Error@@YAPBDPBDZZ	; Error
  006b0	8b 55 08	 mov	 edx, DWORD PTR _nTotal$1$[ebp]
  006b3	83 c4 0c	 add	 esp, 12			; 0000000cH
$LN147@LoadElemen:

; 807  : 
; 808  : 		pElem->m_ppd3d_VB = new LPDIRECT3DVERTEXBUFFER9[ nTotal ];

  006b6	8b c2		 mov	 eax, edx
  006b8	b9 04 00 00 00	 mov	 ecx, 4
  006bd	f7 e1		 mul	 ecx
  006bf	b9 ff ff ff ff	 mov	 ecx, -1
  006c4	0f 42 c1	 cmovb	 eax, ecx
  006c7	50		 push	 eax
  006c8	e8 00 00 00 00	 call	 ??_U@YAPAXI@Z		; operator new[]
  006cd	8b c8		 mov	 ecx, eax

; 809  : 		memset( pElem->m_ppd3d_VB, 0, sizeof(LPDIRECT3DVERTEXBUFFER9) * nTotal );

  006cf	8b 45 08	 mov	 eax, DWORD PTR _nTotal$1$[ebp]
  006d2	c1 e0 02	 shl	 eax, 2
  006d5	50		 push	 eax
  006d6	6a 00		 push	 0
  006d8	51		 push	 ecx
  006d9	89 8c 33 1c 02
	00 00		 mov	 DWORD PTR [ebx+esi+540], ecx
  006e0	e8 00 00 00 00	 call	 _memset

; 810  : 		LPDIRECT3DVERTEXBUFFER9 *ppd3d_VB = pElem->m_ppd3d_VB;

  006e5	8b 8c 33 1c 02
	00 00		 mov	 ecx, DWORD PTR [ebx+esi+540]
; File C:\IAGOS\server\v18\Source\Source\_Common\Object3d.h

; 311  : 		m_pGroup = &m_Group[nLevel]; 

  006ec	8d 57 04	 lea	 edx, DWORD PTR [edi+4]
  006ef	89 17		 mov	 DWORD PTR [edi], edx
; File C:\IAGOS\server\v18\Source\Source\_Common\modelobject.cpp

; 809  : 		memset( pElem->m_ppd3d_VB, 0, sizeof(LPDIRECT3DVERTEXBUFFER9) * nTotal );

  006f1	83 c4 10	 add	 esp, 16			; 00000010H

; 811  : 		pObject3D->SetLOD(0);		pElem->m_ppd3d_VB1 = ppd3d_VB;		ppd3d_VB += pObject3D->GetMaxObject();

  006f4	89 8c 33 20 02
	00 00		 mov	 DWORD PTR [ebx+esi+544], ecx
; File C:\IAGOS\server\v18\Source\Source\_Common\Object3d.h

; 281  : 	int		GetMaxObject( void ) { return m_pGroup->m_nMaxObject; }

  006fb	8b 07		 mov	 eax, DWORD PTR [edi]

; 311  : 		m_pGroup = &m_Group[nLevel]; 

  006fd	83 bf b4 00 00
	00 00		 cmp	 DWORD PTR [edi+180], 0
; File C:\IAGOS\server\v18\Source\Source\_Common\modelobject.cpp

; 811  : 		pObject3D->SetLOD(0);		pElem->m_ppd3d_VB1 = ppd3d_VB;		ppd3d_VB += pObject3D->GetMaxObject();

  00704	8b 00		 mov	 eax, DWORD PTR [eax]
  00706	8d 0c 81	 lea	 ecx, DWORD PTR [ecx+eax*4]
; File C:\IAGOS\server\v18\Source\Source\_Common\Object3d.h

; 311  : 		m_pGroup = &m_Group[nLevel]; 

  00709	b8 04 00 00 00	 mov	 eax, 4
  0070e	0f 45 45 0c	 cmovne	 eax, DWORD PTR tv2025[ebp]
  00712	03 c7		 add	 eax, edi
  00714	89 07		 mov	 DWORD PTR [edi], eax
; File C:\IAGOS\server\v18\Source\Source\_Common\modelobject.cpp

; 812  : 		pObject3D->SetLOD(1);		pElem->m_ppd3d_VB2 = ppd3d_VB;		ppd3d_VB += pObject3D->GetMaxObject();

  00716	89 8c 33 24 02
	00 00		 mov	 DWORD PTR [ebx+esi+548], ecx
; File C:\IAGOS\server\v18\Source\Source\_Common\Object3d.h

; 281  : 	int		GetMaxObject( void ) { return m_pGroup->m_nMaxObject; }

  0071d	8b 07		 mov	 eax, DWORD PTR [edi]
; File C:\IAGOS\server\v18\Source\Source\_Common\modelobject.cpp

; 812  : 		pObject3D->SetLOD(1);		pElem->m_ppd3d_VB2 = ppd3d_VB;		ppd3d_VB += pObject3D->GetMaxObject();

  0071f	8b 00		 mov	 eax, DWORD PTR [eax]
  00721	8d 04 81	 lea	 eax, DWORD PTR [ecx+eax*4]

; 813  : 		pObject3D->SetLOD(2);		pElem->m_ppd3d_VB3 = ppd3d_VB;		

  00724	89 84 33 28 02
	00 00		 mov	 DWORD PTR [ebx+esi+552], eax
; File C:\IAGOS\server\v18\Source\Source\_Common\Object3d.h

; 311  : 		m_pGroup = &m_Group[nLevel]; 

  0072b	89 17		 mov	 DWORD PTR [edi], edx
; File C:\IAGOS\server\v18\Source\Source\_Common\modelobject.cpp

; 815  : 		pElem->m_ppd3d_VBSel = pElem->m_ppd3d_VB1;

  0072d	8b 84 33 20 02
	00 00		 mov	 eax, DWORD PTR [ebx+esi+544]
  00734	89 84 33 2c 02
	00 00		 mov	 DWORD PTR [ebx+esi+556], eax
$LN154@LoadElemen:

; 816  : 	}
; 817  : 	
; 818  : 	pObject3D->RestoreDeviceObjects( pElem->m_ppd3d_VB );		// 이걸 여기서 하면 안되는 이유가 있어서 안한건데 그 이유가 기억이 안난다 -_-;;;

  0073b	6a 01		 push	 1
  0073d	ff b4 33 1c 02
	00 00		 push	 DWORD PTR [ebx+esi+540]
  00744	8b cf		 mov	 ecx, edi
  00746	e8 00 00 00 00	 call	 ?RestoreDeviceObjects@CObject3D@@QAEJPAPAUIDirect3DVertexBuffer9@@W4_D3DPOOL@@@Z ; CObject3D::RestoreDeviceObjects

; 819  : 
; 820  : 	return SUCCESS;

  0074b	b8 01 00 00 00	 mov	 eax, 1

; 821  : }

  00750	8b 4d f4	 mov	 ecx, DWORD PTR __$EHRec$[ebp]
  00753	64 89 0d 00 00
	00 00		 mov	 DWORD PTR fs:0, ecx
  0075a	59		 pop	 ecx
  0075b	5f		 pop	 edi
  0075c	5e		 pop	 esi
  0075d	5b		 pop	 ebx
  0075e	8b e5		 mov	 esp, ebp
  00760	5d		 pop	 ebp
  00761	c2 08 00	 ret	 8
_TEXT	ENDS
;	COMDAT text$x
text$x	SEGMENT
__unwindfunclet$?LoadElement@CModelObject@@QAEHPBDH@Z$0:
  00000	8d 4d 08	 lea	 ecx, DWORD PTR $T2[ebp]
  00003	e9 00 00 00 00	 jmp	 ??1?$CStringT@DV?$StrTraitMFC@DV?$ChTraitsCRT@D@ATL@@@@@ATL@@QAE@XZ ; ATL::CStringT<char,StrTraitMFC<char,ATL::ChTraitsCRT<char> > >::~CStringT<char,StrTraitMFC<char,ATL::ChTraitsCRT<char> > >
__unwindfunclet$?LoadElement@CModelObject@@QAEHPBDH@Z$1:
  00008	8d 4d 0c	 lea	 ecx, DWORD PTR $T3[ebp]
  0000b	e9 00 00 00 00	 jmp	 ??1?$CStringT@DV?$StrTraitMFC@DV?$ChTraitsCRT@D@ATL@@@@@ATL@@QAE@XZ ; ATL::CStringT<char,StrTraitMFC<char,ATL::ChTraitsCRT<char> > >::~CStringT<char,StrTraitMFC<char,ATL::ChTraitsCRT<char> > >
  00010	cc		 int	 3
  00011	cc		 int	 3
  00012	cc		 int	 3
  00013	cc		 int	 3
  00014	cc		 int	 3
__ehhandler$?LoadElement@CModelObject@@QAEHPBDH@Z:
  00015	90		 npad	 1
  00016	90		 npad	 1
  00017	8b 54 24 08	 mov	 edx, DWORD PTR [esp+8]
  0001b	8d 42 0c	 lea	 eax, DWORD PTR [edx+12]
  0001e	8b 4a f0	 mov	 ecx, DWORD PTR [edx-16]
  00021	33 c8		 xor	 ecx, eax
  00023	e8 00 00 00 00	 call	 @__security_check_cookie@4
  00028	b8 00 00 00 00	 mov	 eax, OFFSET __ehfuncinfo$?LoadElement@CModelObject@@QAEHPBDH@Z
  0002d	e9 00 00 00 00	 jmp	 ___CxxFrameHandler3
text$x	ENDS
?LoadElement@CModelObject@@QAEHPBDH@Z ENDP		; CModelObject::LoadElement
; Function compile flags: /Ogtp
; File C:\IAGOS\server\v18\Source\Source\_Common\modelobject.cpp
; File C:\IAGOS\server\v18\Source\Source\_Common\bone.h
; File C:\IAGOS\server\v18\Source\Source\_Common\modelobject.cpp
; File C:\IAGOS\server\v18\Source\Source\_Common\Object3d.h
; File C:\IAGOS\server\v18\Source\Source\_Common\modelobject.cpp
; File C:\IAGOS\server\v18\Source\Source\_Common\Object3d.h
; File C:\IAGOS\server\v18\Source\Source\_Common\modelobject.cpp
;	COMDAT ?LoadMotion@CModelObject@@QAEHPBD@Z
_TEXT	SEGMENT
_szFileName$ = 8					; size = 4
?LoadMotion@CModelObject@@QAEHPBD@Z PROC		; CModelObject::LoadMotion, COMDAT
; _this$ = ecx

; 604  : {

  00000	55		 push	 ebp
  00001	8b ec		 mov	 ebp, esp
  00003	56		 push	 esi
  00004	8b f1		 mov	 esi, ecx

; 605  : 	int		i;
; 606  : 	// 본이 아직 할당 되어 있지 않으면 애니를 읽을수 없다.
; 607  : 	if( m_pBone == NULL )		

  00006	83 be 84 2a 00
	00 00		 cmp	 DWORD PTR [esi+10884], 0
  0000d	75 18		 jne	 SHORT $LN5@LoadMotion

; 608  : 	{
; 609  : 		Error( "%s : 본을 로딩하지 않고 모션을 읽음", szFileName );

  0000f	ff 75 08	 push	 DWORD PTR _szFileName$[ebp]
  00012	68 00 00 00 00	 push	 OFFSET ??_C@_0CE@NAJOOAFP@?$CFs?5?3?5?$LK?$LL?$MA?$LL?5?$LH?N?$LF?y?G?O?A?v?5?$LO?J?$LA?m?5?$LI?p?$LM?G?$MA?$LL?5@
  00017	e8 00 00 00 00	 call	 ?Error@@YAPBDPBDZZ	; Error
  0001c	83 c4 08	 add	 esp, 8

; 610  : 		return FAIL;

  0001f	83 c8 ff	 or	 eax, -1
  00022	5e		 pop	 esi

; 641  : }

  00023	5d		 pop	 ebp
  00024	c2 04 00	 ret	 4
$LN5@LoadMotion:

; 611  : 	}
; 612  : 	m_pMotionOld = m_pMotion;		// 예전 모션받아둠.

  00027	8b 86 8c 2a 00
	00		 mov	 eax, DWORD PTR [esi+10892]

; 613  : 	m_nFrameOld = (int)m_fFrameCurrent;
; 614  : 	// Motion관리자를 통해 동작을 로딩한후 그 포인터를 받아온다.
; 615  : 	m_pMotion = g_MotionMng.LoadMotion( szFileName );

  0002d	b9 00 00 00 00	 mov	 ecx, OFFSET ?g_MotionMng@@3VCMotionMng@@A ; g_MotionMng
  00032	89 86 88 2a 00
	00		 mov	 DWORD PTR [esi+10888], eax
  00038	f3 0f 2c 86 a0
	00 00 00	 cvttss2si eax, DWORD PTR [esi+160]
  00040	57		 push	 edi
  00041	8b 7d 08	 mov	 edi, DWORD PTR _szFileName$[ebp]
  00044	57		 push	 edi
  00045	89 86 98 2a 00
	00		 mov	 DWORD PTR [esi+10904], eax
  0004b	e8 00 00 00 00	 call	 ?LoadMotion@CMotionMng@@QAEPAVCMotion@@PBD@Z ; CMotionMng::LoadMotion
  00050	89 86 8c 2a 00
	00		 mov	 DWORD PTR [esi+10892], eax

; 616  : 	if( m_pMotion == NULL )		// 모션을 못읽었다.

  00056	85 c0		 test	 eax, eax
  00058	75 09		 jne	 SHORT $LN6@LoadMotion

; 617  : 	{
; 618  : 		return FAIL;

  0005a	5f		 pop	 edi
  0005b	83 c8 ff	 or	 eax, -1
  0005e	5e		 pop	 esi

; 641  : }

  0005f	5d		 pop	 ebp
  00060	c2 04 00	 ret	 4
$LN6@LoadMotion:

; 619  : 	}
; 620  : 	if( m_pMotionOld == NULL )

  00063	83 be 88 2a 00
	00 00		 cmp	 DWORD PTR [esi+10888], 0
  0006a	75 06		 jne	 SHORT $LN7@LoadMotion

; 621  : 		m_pMotionOld = m_pMotion;		// 이전프레임이 없으면 현재 프레임을 Old로 쓴다.  NULL이 되는상황이 없게 할것.

  0006c	89 86 88 2a 00
	00		 mov	 DWORD PTR [esi+10888], eax
$LN7@LoadMotion:

; 622  : 
; 623  : 	InitAnimate();

  00072	8b ce		 mov	 ecx, esi
  00074	e8 00 00 00 00	 call	 ?InitAnimate@CModel@@QAEXXZ ; CModel::InitAnimate
; File C:\IAGOS\server\v18\Source\Source\_Common\bone.h

; 193  : 	int		GetMaxFrame( void ) { return m_nMaxFrame; }

  00079	8b 8e 8c 2a 00
	00		 mov	 ecx, DWORD PTR [esi+10892]
; File C:\IAGOS\server\v18\Source\Source\_Common\modelobject.cpp

; 625  : 	m_nFrameMax = m_pMotion->GetMaxFrame();

  0007f	8b 41 08	 mov	 eax, DWORD PTR [ecx+8]
  00082	89 86 a8 00 00
	00		 mov	 DWORD PTR [esi+168], eax

; 626  : 	m_fPerSlerp = (float)((int)(m_pMotion->m_fPerSlerp * 1000.0f)) / 1000.0f;		// 소숫점 3째 이하에서 오차가 생길수 있으므로 3째까지 에서 잘라버린다,.

  00088	f3 0f 10 41 50	 movss	 xmm0, DWORD PTR [ecx+80]
  0008d	f3 0f 59 05 00
	00 00 00	 mulss	 xmm0, DWORD PTR __real@447a0000
  00095	f3 0f 2c c0	 cvttss2si eax, xmm0
  00099	66 0f 6e c0	 movd	 xmm0, eax
  0009d	0f 5b c0	 cvtdq2ps xmm0, xmm0

; 627  : 
; 628  : 	if( m_pMotionOld->m_nMaxBone != m_pMotion->m_nMaxBone )		// 이전에 읽은 모션의 본개수와 다르면 에러냄.

  000a0	8b 86 88 2a 00
	00		 mov	 eax, DWORD PTR [esi+10888]
  000a6	f3 0f 5e 05 00
	00 00 00	 divss	 xmm0, DWORD PTR __real@447a0000
  000ae	f3 0f 11 86 ac
	00 00 00	 movss	 DWORD PTR [esi+172], xmm0
  000b6	8b 40 54	 mov	 eax, DWORD PTR [eax+84]
  000b9	8b 49 54	 mov	 ecx, DWORD PTR [ecx+84]
  000bc	3b c1		 cmp	 eax, ecx
  000be	74 10		 je	 SHORT $LN8@LoadMotion

; 629  : 	{
; 630  : 		LPCTSTR szErr = Error( "CModelObject::LoadElement - %s bone count(%d) - old count(%d)", szFileName, m_pMotion->m_nMaxBone, m_pMotionOld->m_nMaxBone );

  000c0	50		 push	 eax
  000c1	51		 push	 ecx
  000c2	57		 push	 edi
  000c3	68 00 00 00 00	 push	 OFFSET ??_C@_0DO@MJIKBIFN@CModelObject?3?3LoadElement?5?9?5?$CFs?5@
  000c8	e8 00 00 00 00	 call	 ?Error@@YAPBDPBDZZ	; Error
  000cd	83 c4 10	 add	 esp, 16			; 00000010H
$LN8@LoadMotion:

; 635  : 	for( i = 0; i < MAX_ELEMENT; i ++ )

  000d0	8d 96 d8 00 00
	00		 lea	 edx, DWORD PTR [esi+216]
  000d6	bf 15 00 00 00	 mov	 edi, 21			; 00000015H
  000db	53		 push	 ebx
  000dc	0f 1f 40 00	 npad	 4
$LL4@LoadMotion:

; 636  : 	{
; 637  : 		if( m_Element[i].m_pObject3D )

  000e0	8b 0a		 mov	 ecx, DWORD PTR [edx]
  000e2	85 c9		 test	 ecx, ecx
  000e4	74 18		 je	 SHORT $LN2@LoadMotion
; File C:\IAGOS\server\v18\Source\Source\_Common\Object3d.h

; 285  : 	void	SetExternBone( D3DXMATRIX *pmBone, D3DXMATRIX *pmBoneInv ) { if(m_pBaseBone == NULL) { m_pmExternBone = pmBone; m_pmExternBoneInv = pmBoneInv; } }	// 스킨만이 m_pBaseBone을 이미 할당하고 있다.

  000e6	83 79 34 00	 cmp	 DWORD PTR [ecx+52], 0
; File C:\IAGOS\server\v18\Source\Source\_Common\modelobject.cpp

; 638  : 			m_Element[i].m_pObject3D->SetExternBone( m_mUpdateBone, m_pBaseBoneInv );	// 함수내부에서 스킨인넘만 등록시킨다.

  000ea	8b 9e c8 00 00
	00		 mov	 ebx, DWORD PTR [esi+200]
; File C:\IAGOS\server\v18\Source\Source\_Common\Object3d.h

; 285  : 	void	SetExternBone( D3DXMATRIX *pmBone, D3DXMATRIX *pmBoneInv ) { if(m_pBaseBone == NULL) { m_pmExternBone = pmBone; m_pmExternBoneInv = pmBoneInv; } }	// 스킨만이 m_pBaseBone을 이미 할당하고 있다.

  000f0	75 0c		 jne	 SHORT $LN2@LoadMotion
  000f2	8b 86 9c 2a 00
	00		 mov	 eax, DWORD PTR [esi+10908]
  000f8	89 41 28	 mov	 DWORD PTR [ecx+40], eax
  000fb	89 59 2c	 mov	 DWORD PTR [ecx+44], ebx
$LN2@LoadMotion:
; File C:\IAGOS\server\v18\Source\Source\_Common\modelobject.cpp

; 635  : 	for( i = 0; i < MAX_ELEMENT; i ++ )

  000fe	81 c2 fc 01 00
	00		 add	 edx, 508		; 000001fcH
  00104	83 ef 01	 sub	 edi, 1
  00107	75 d7		 jne	 SHORT $LL4@LoadMotion
  00109	5b		 pop	 ebx

; 639  : 	}
; 640  : 	return SUCCESS;

  0010a	8d 47 01	 lea	 eax, DWORD PTR [edi+1]
  0010d	5f		 pop	 edi
  0010e	5e		 pop	 esi

; 641  : }

  0010f	5d		 pop	 ebp
  00110	c2 04 00	 ret	 4
?LoadMotion@CModelObject@@QAEHPBD@Z ENDP		; CModelObject::LoadMotion
_TEXT	ENDS
; Function compile flags: /Ogtp
; File C:\IAGOS\server\v18\Source\Source\_Common\modelobject.cpp
;	COMDAT ?LoadBone@CModelObject@@QAEHPBD@Z
_TEXT	SEGMENT
_szFileName$ = 8					; size = 4
$T1 = 8							; size = 4
$T2 = 8							; size = 4
_i$1$ = 8						; size = 4
?LoadBone@CModelObject@@QAEHPBD@Z PROC			; CModelObject::LoadBone, COMDAT
; _this$ = ecx

; 564  : {

  00000	55		 push	 ebp
  00001	8b ec		 mov	 ebp, esp
  00003	56		 push	 esi
  00004	8b f1		 mov	 esi, ecx
  00006	57		 push	 edi

; 565  : 	if( m_pBone )

  00007	8b 86 84 2a 00
	00		 mov	 eax, DWORD PTR [esi+10884]
  0000d	85 c0		 test	 eax, eax
  0000f	74 0e		 je	 SHORT $LN5@LoadBone

; 566  : 		Error( "CModelObject::LoadBone ; 이미 본이 로딩되어 있다. 0x%08x", (int)m_pBone );

  00011	50		 push	 eax
  00012	68 00 00 00 00	 push	 OFFSET ??_C@_0DJ@MLDPDDGA@CModelObject?3?3LoadBone?5?$DL?5?$MA?L?$LJ?L?5?$LK@
  00017	e8 00 00 00 00	 call	 ?Error@@YAPBDPBDZZ	; Error
  0001c	83 c4 08	 add	 esp, 8
$LN5@LoadBone:

; 567  : 
; 568  : 	// Bone 관리자를 통해 본을 로딩한후 그 포인터를 받아온다.
; 569  : 	m_pBone = g_BonesMng.LoadBone( szFileName );

  0001f	8b 7d 08	 mov	 edi, DWORD PTR _szFileName$[ebp]
  00022	b9 00 00 00 00	 mov	 ecx, OFFSET ?g_BonesMng@@3VCBonesMng@@A ; g_BonesMng
  00027	57		 push	 edi
  00028	e8 00 00 00 00	 call	 ?LoadBone@CBonesMng@@QAEPAVCBones@@PBD@Z ; CBonesMng::LoadBone
  0002d	89 86 84 2a 00
	00		 mov	 DWORD PTR [esi+10884], eax

; 570  : 
; 571  : 	// 본을 못읽었다.
; 572  : 	if( m_pBone == NULL )

  00033	85 c0		 test	 eax, eax
  00035	75 17		 jne	 SHORT $LN6@LoadBone

; 573  : 	{
; 574  : 		LPCTSTR szStr = Error( "%s : 찾을 수 없음", szFileName );

  00037	57		 push	 edi
  00038	68 00 00 00 00	 push	 OFFSET ??_C@_0BC@DADEMEMC@?$CFs?5?3?5?C?$KD?$MA?$LL?5?$LM?v?5?$LO?x?$MA?$LN@
  0003d	e8 00 00 00 00	 call	 ?Error@@YAPBDPBDZZ	; Error
  00042	83 c4 08	 add	 esp, 8

; 575  : 		ADDERRORMSG( szStr );
; 576  : 		return FAIL;

  00045	83 c8 ff	 or	 eax, -1
  00048	5f		 pop	 edi

; 596  : }

  00049	5e		 pop	 esi
  0004a	5d		 pop	 ebp
  0004b	c2 04 00	 ret	 4
$LN6@LoadBone:

; 577  : 	}
; 578  : 
; 579  : 	m_bSkin = TRUE;		// 스키닝 오브젝트라는 플래그

  0004e	c7 86 b8 00 00
	00 01 00 00 00	 mov	 DWORD PTR [esi+184], 1

; 580  : #ifdef _DEBUG
; 581  : 	if( m_mUpdateBone )
; 582  : 		Error( "CModelObject::LoadBone : %s 이미 읽었는데 또 읽은것 같다.", szFileName );
; 583  : #endif
; 584  : 
; 585  : 	// 오브젝트의 계층구조가 애니메이션되면서 실시간으로 변환되는 매트릭스 배열
; 586  : 	m_mUpdateBone = new D3DXMATRIX[ m_pBone->m_nMaxBone * 2 ];	// Inv랑 같이 쓰려고 * 2로 잡는다,.

  00058	b9 40 00 00 00	 mov	 ecx, 64			; 00000040H
  0005d	8b 40 44	 mov	 eax, DWORD PTR [eax+68]
  00060	03 c0		 add	 eax, eax
  00062	89 45 08	 mov	 DWORD PTR $T1[ebp], eax
  00065	f7 e1		 mul	 ecx
  00067	b9 ff ff ff ff	 mov	 ecx, -1
  0006c	53		 push	 ebx
  0006d	0f 42 c1	 cmovb	 eax, ecx
  00070	50		 push	 eax
  00071	e8 00 00 00 00	 call	 ??_U@YAPAXI@Z		; operator new[]

; 587  : 	m_pBaseBoneInv = m_mUpdateBone + m_pBone->m_nMaxBone;

  00076	8b 9e 84 2a 00
	00		 mov	 ebx, DWORD PTR [esi+10884]
  0007c	8b c8		 mov	 ecx, eax
  0007e	89 8e 9c 2a 00
	00		 mov	 DWORD PTR [esi+10908], ecx
  00084	83 c4 04	 add	 esp, 4
  00087	89 4d 08	 mov	 DWORD PTR $T2[ebp], ecx

; 588  : 	
; 589  : 	int		i;
; 590  : 	for( i = 0; i < m_pBone->m_nMaxBone; i ++ )

  0008a	c7 45 08 00 00
	00 00		 mov	 DWORD PTR _i$1$[ebp], 0
  00091	8b 43 44	 mov	 eax, DWORD PTR [ebx+68]
  00094	c1 e0 06	 shl	 eax, 6
  00097	03 c1		 add	 eax, ecx
  00099	89 86 c8 00 00
	00		 mov	 DWORD PTR [esi+200], eax
  0009f	83 7b 44 00	 cmp	 DWORD PTR [ebx+68], 0
  000a3	0f 8e 94 00 00
	00		 jle	 $LN3@LoadBone
  000a9	33 d2		 xor	 edx, edx
  000ab	33 ff		 xor	 edi, edi
  000ad	0f 1f 00	 npad	 3
$LL4@LoadBone:

; 591  : 	{
; 592  : 		m_mUpdateBone[i] = m_pBone->m_pBones[i].m_mTM;		// 기본셋은 미리 카피해둠.

  000b0	8b 43 48	 mov	 eax, DWORD PTR [ebx+72]
  000b3	8d bf e8 00 00
	00		 lea	 edi, DWORD PTR [edi+232]
  000b9	8b 8e 9c 2a 00
	00		 mov	 ecx, DWORD PTR [esi+10908]
  000bf	03 ca		 add	 ecx, edx
  000c1	0f 10 84 38 40
	ff ff ff	 movups	 xmm0, XMMWORD PTR [eax+edi-192]
  000c9	0f 11 01	 movups	 XMMWORD PTR [ecx], xmm0
  000cc	0f 10 84 38 50
	ff ff ff	 movups	 xmm0, XMMWORD PTR [eax+edi-176]
  000d4	0f 11 41 10	 movups	 XMMWORD PTR [ecx+16], xmm0
  000d8	0f 10 84 38 60
	ff ff ff	 movups	 xmm0, XMMWORD PTR [eax+edi-160]
  000e0	0f 11 41 20	 movups	 XMMWORD PTR [ecx+32], xmm0
  000e4	0f 10 84 38 70
	ff ff ff	 movups	 xmm0, XMMWORD PTR [eax+edi-144]
  000ec	0f 11 41 30	 movups	 XMMWORD PTR [ecx+48], xmm0

; 593  : 		m_pBaseBoneInv[i] = m_pBone->m_pBones[i].m_mInverseTM;	// Inv도 미리 받아둠.

  000f0	8b 86 84 2a 00
	00		 mov	 eax, DWORD PTR [esi+10884]
  000f6	8b 8e c8 00 00
	00		 mov	 ecx, DWORD PTR [esi+200]
  000fc	03 ca		 add	 ecx, edx
  000fe	83 c2 40	 add	 edx, 64			; 00000040H
  00101	8b 40 48	 mov	 eax, DWORD PTR [eax+72]
  00104	0f 10 44 38 80	 movups	 xmm0, XMMWORD PTR [eax+edi-128]
  00109	0f 11 01	 movups	 XMMWORD PTR [ecx], xmm0
  0010c	0f 10 44 38 90	 movups	 xmm0, XMMWORD PTR [eax+edi-112]
  00111	0f 11 41 10	 movups	 XMMWORD PTR [ecx+16], xmm0
  00115	0f 10 44 38 a0	 movups	 xmm0, XMMWORD PTR [eax+edi-96]
  0011a	0f 11 41 20	 movups	 XMMWORD PTR [ecx+32], xmm0
  0011e	0f 10 44 38 b0	 movups	 xmm0, XMMWORD PTR [eax+edi-80]
  00123	8b 45 08	 mov	 eax, DWORD PTR _i$1$[ebp]
  00126	40		 inc	 eax
  00127	0f 11 41 30	 movups	 XMMWORD PTR [ecx+48], xmm0
  0012b	8b 9e 84 2a 00
	00		 mov	 ebx, DWORD PTR [esi+10884]
  00131	89 45 08	 mov	 DWORD PTR _i$1$[ebp], eax
  00134	3b 43 44	 cmp	 eax, DWORD PTR [ebx+68]
  00137	0f 8c 73 ff ff
	ff		 jl	 $LL4@LoadBone
$LN3@LoadBone:

; 594  : 	}
; 595  : 	return SUCCESS;

  0013d	5b		 pop	 ebx
  0013e	5f		 pop	 edi
  0013f	b8 01 00 00 00	 mov	 eax, 1

; 596  : }

  00144	5e		 pop	 esi
  00145	5d		 pop	 ebp
  00146	c2 04 00	 ret	 4
?LoadBone@CModelObject@@QAEHPBD@Z ENDP			; CModelObject::LoadBone
_TEXT	ENDS
; Function compile flags: /Ogtp
; File C:\IAGOS\server\v18\Source\Source\_Common\ModelObject.h
;	COMDAT ?IsHaveCollObj@CModelObject@@UAEHXZ
_TEXT	SEGMENT
?IsHaveCollObj@CModelObject@@UAEHXZ PROC		; CModelObject::IsHaveCollObj, COMDAT
; _this$ = ecx

; 336  : 	int		IsHaveCollObj( void ) { return m_bCollObj; }

  00000	8b 81 cc 00 00
	00		 mov	 eax, DWORD PTR [ecx+204]
  00006	c3		 ret	 0
?IsHaveCollObj@CModelObject@@UAEHXZ ENDP		; CModelObject::IsHaveCollObj
_TEXT	ENDS
; Function compile flags: /Ogtp
; File C:\IAGOS\server\v18\Source\Source\_Common\ModelObject.h
; File C:\IAGOS\server\v18\Source\Source\_Common\bone.h
; File C:\IAGOS\server\v18\Source\Source\_Common\ModelObject.h
; File C:\IAGOS\server\v18\Source\Source\_Common\bone.h
; File C:\IAGOS\server\v18\Source\Source\_Common\ModelObject.h
;	COMDAT ?SetAttr@CModelObject@@UAEXMK@Z
_TEXT	SEGMENT
_fNumFrm$ = 8						; size = 4
_dwAttr$ = 12						; size = 4
?SetAttr@CModelObject@@UAEXMK@Z PROC			; CModelObject::SetAttr, COMDAT
; _this$ = ecx

; 308  : 	void	SetAttr( float fNumFrm, DWORD dwAttr ) { m_pMotion->SetAttr( fNumFrm, dwAttr ); }

  00000	55		 push	 ebp
  00001	8b ec		 mov	 ebp, esp
; File C:\IAGOS\server\v18\Source\Source\_Common\bone.h

; 188  : 		m_pAttr[ (int)fNumFrm ].m_dwAttr |= dwAttr;

  00003	f3 0f 10 45 08	 movss	 xmm0, DWORD PTR _fNumFrm$[ebp]
  00008	f3 0f 2c c0	 cvttss2si eax, xmm0
; File C:\IAGOS\server\v18\Source\Source\_Common\ModelObject.h

; 308  : 	void	SetAttr( float fNumFrm, DWORD dwAttr ) { m_pMotion->SetAttr( fNumFrm, dwAttr ); }

  0000c	56		 push	 esi
  0000d	8b b1 8c 2a 00
	00		 mov	 esi, DWORD PTR [ecx+10892]
; File C:\IAGOS\server\v18\Source\Source\_Common\bone.h

; 188  : 		m_pAttr[ (int)fNumFrm ].m_dwAttr |= dwAttr;

  00013	8b 4e 04	 mov	 ecx, DWORD PTR [esi+4]
  00016	8d 14 40	 lea	 edx, DWORD PTR [eax+eax*2]
  00019	8b 45 0c	 mov	 eax, DWORD PTR _dwAttr$[ebp]
  0001c	c1 e2 02	 shl	 edx, 2
  0001f	09 04 11	 or	 DWORD PTR [ecx+edx], eax

; 189  : 		m_pAttr[ (int)fNumFrm ].m_fFrame = fNumFrm;

  00022	8b 46 04	 mov	 eax, DWORD PTR [esi+4]
  00025	5e		 pop	 esi
  00026	f3 0f 11 44 10
	08		 movss	 DWORD PTR [eax+edx+8], xmm0
; File C:\IAGOS\server\v18\Source\Source\_Common\ModelObject.h

; 308  : 	void	SetAttr( float fNumFrm, DWORD dwAttr ) { m_pMotion->SetAttr( fNumFrm, dwAttr ); }

  0002c	5d		 pop	 ebp
  0002d	c2 08 00	 ret	 8
?SetAttr@CModelObject@@UAEXMK@Z ENDP			; CModelObject::SetAttr
_TEXT	ENDS
; Function compile flags: /Ogtp
; File C:\IAGOS\server\v18\Source\Source\_Common\ModelObject.h
; File C:\IAGOS\server\v18\Source\Source\_Common\bone.h
; File C:\IAGOS\server\v18\Source\Source\_Common\ModelObject.h
; File C:\IAGOS\server\v18\Source\Source\_Common\bone.h
; File C:\IAGOS\server\v18\Source\Source\_Common\ModelObject.h
;	COMDAT ?IsAttrQuake@CModelObject@@UAEKXZ
_TEXT	SEGMENT
?IsAttrQuake@CModelObject@@UAEKXZ PROC			; CModelObject::IsAttrQuake, COMDAT
; _this$ = ecx

; 307  : 	DWORD	IsAttrQuake( void ) { return m_pMotion->IsAttrQuake( m_fFrameOld, m_fFrameCurrent ); }

  00000	f3 0f 10 89 a0
	00 00 00	 movss	 xmm1, DWORD PTR [ecx+160]
; File C:\IAGOS\server\v18\Source\Source\_Common\bone.h

; 180  : 		MOTION_ATTR		*pAttr = &m_pAttr[ (int)fNumFrm ];

  00008	8b 91 8c 2a 00
	00		 mov	 edx, DWORD PTR [ecx+10892]
  0000e	f3 0f 2c c1	 cvttss2si eax, xmm1
; File C:\IAGOS\server\v18\Source\Source\_Common\ModelObject.h

; 307  : 	DWORD	IsAttrQuake( void ) { return m_pMotion->IsAttrQuake( m_fFrameOld, m_fFrameCurrent ); }

  00012	56		 push	 esi
; File C:\IAGOS\server\v18\Source\Source\_Common\bone.h

; 180  : 		MOTION_ATTR		*pAttr = &m_pAttr[ (int)fNumFrm ];

  00013	8b 52 04	 mov	 edx, DWORD PTR [edx+4]
  00016	8d 34 40	 lea	 esi, DWORD PTR [eax+eax*2]

; 181  : 		if( pAttr->m_dwAttr & MA_QUAKE )

  00019	8b 04 b2	 mov	 eax, DWORD PTR [edx+esi*4]
  0001c	a8 04		 test	 al, 4
  0001e	74 14		 je	 SHORT $LN5@IsAttrQuak

; 182  : 			if( fOldFrm < pAttr->m_fFrame && pAttr->m_fFrame <= fNumFrm )	// 이전 프레임이랑 현재 프레임 사이에 타점이 들어있었는가.

  00020	f3 0f 10 44 b2
	08		 movss	 xmm0, DWORD PTR [edx+esi*4+8]
  00026	0f 2f 81 a4 00
	00 00		 comiss	 xmm0, DWORD PTR [ecx+164]
  0002d	76 05		 jbe	 SHORT $LN5@IsAttrQuak
  0002f	0f 2f c8	 comiss	 xmm1, xmm0
  00032	73 02		 jae	 SHORT $LN3@IsAttrQuak
$LN5@IsAttrQuak:
; File C:\IAGOS\server\v18\Source\Source\_Common\ModelObject.h

; 307  : 	DWORD	IsAttrQuake( void ) { return m_pMotion->IsAttrQuake( m_fFrameOld, m_fFrameCurrent ); }

  00034	33 c0		 xor	 eax, eax
$LN3@IsAttrQuak:
  00036	5e		 pop	 esi
  00037	c3		 ret	 0
?IsAttrQuake@CModelObject@@UAEKXZ ENDP			; CModelObject::IsAttrQuake
_TEXT	ENDS
; Function compile flags: /Ogtp
; File C:\IAGOS\server\v18\Source\Source\_Common\ModelObject.h
; File C:\IAGOS\server\v18\Source\Source\_Common\bone.h
; File C:\IAGOS\server\v18\Source\Source\_Common\ModelObject.h
; File C:\IAGOS\server\v18\Source\Source\_Common\bone.h
; File C:\IAGOS\server\v18\Source\Source\_Common\ModelObject.h
;	COMDAT ?IsAttrQuake@CModelObject@@UAEKM@Z
_TEXT	SEGMENT
_fNumFrm$ = 8						; size = 4
?IsAttrQuake@CModelObject@@UAEKM@Z PROC			; CModelObject::IsAttrQuake, COMDAT
; _this$ = ecx

; 306  : 	DWORD	IsAttrQuake( float fNumFrm ) { return m_pMotion->IsAttrQuake( m_fFrameOld, fNumFrm ); }

  00000	55		 push	 ebp
  00001	8b ec		 mov	 ebp, esp
; File C:\IAGOS\server\v18\Source\Source\_Common\bone.h

; 180  : 		MOTION_ATTR		*pAttr = &m_pAttr[ (int)fNumFrm ];

  00003	f3 0f 10 4d 08	 movss	 xmm1, DWORD PTR _fNumFrm$[ebp]
  00008	8b 91 8c 2a 00
	00		 mov	 edx, DWORD PTR [ecx+10892]
  0000e	f3 0f 2c c1	 cvttss2si eax, xmm1
; File C:\IAGOS\server\v18\Source\Source\_Common\ModelObject.h

; 306  : 	DWORD	IsAttrQuake( float fNumFrm ) { return m_pMotion->IsAttrQuake( m_fFrameOld, fNumFrm ); }

  00012	56		 push	 esi
; File C:\IAGOS\server\v18\Source\Source\_Common\bone.h

; 180  : 		MOTION_ATTR		*pAttr = &m_pAttr[ (int)fNumFrm ];

  00013	8b 52 04	 mov	 edx, DWORD PTR [edx+4]
  00016	8d 34 40	 lea	 esi, DWORD PTR [eax+eax*2]

; 181  : 		if( pAttr->m_dwAttr & MA_QUAKE )

  00019	8b 04 b2	 mov	 eax, DWORD PTR [edx+esi*4]
  0001c	a8 04		 test	 al, 4
  0001e	74 14		 je	 SHORT $LN5@IsAttrQuak

; 182  : 			if( fOldFrm < pAttr->m_fFrame && pAttr->m_fFrame <= fNumFrm )	// 이전 프레임이랑 현재 프레임 사이에 타점이 들어있었는가.

  00020	f3 0f 10 44 b2
	08		 movss	 xmm0, DWORD PTR [edx+esi*4+8]
  00026	0f 2f 81 a4 00
	00 00		 comiss	 xmm0, DWORD PTR [ecx+164]
  0002d	76 05		 jbe	 SHORT $LN5@IsAttrQuak
  0002f	0f 2f c8	 comiss	 xmm1, xmm0
  00032	73 02		 jae	 SHORT $LN3@IsAttrQuak
$LN5@IsAttrQuak:
; File C:\IAGOS\server\v18\Source\Source\_Common\ModelObject.h

; 306  : 	DWORD	IsAttrQuake( float fNumFrm ) { return m_pMotion->IsAttrQuake( m_fFrameOld, fNumFrm ); }

  00034	33 c0		 xor	 eax, eax
$LN3@IsAttrQuak:
  00036	5e		 pop	 esi
  00037	5d		 pop	 ebp
  00038	c2 04 00	 ret	 4
?IsAttrQuake@CModelObject@@UAEKM@Z ENDP			; CModelObject::IsAttrQuake
_TEXT	ENDS
; Function compile flags: /Ogtp
; File C:\IAGOS\server\v18\Source\Source\_Common\ModelObject.h
; File C:\IAGOS\server\v18\Source\Source\_Common\bone.h
; File C:\IAGOS\server\v18\Source\Source\_Common\ModelObject.h
;	COMDAT ?IsAttrSound@CModelObject@@UAEPAUMOTION_ATTR@@M@Z
_TEXT	SEGMENT
_fNumFrm$ = 8						; size = 4
?IsAttrSound@CModelObject@@UAEPAUMOTION_ATTR@@M@Z PROC	; CModelObject::IsAttrSound, COMDAT
; _this$ = ecx

; 301  : 	{ 

  00000	55		 push	 ebp
  00001	8b ec		 mov	 ebp, esp
  00003	56		 push	 esi

; 302  : 		if( m_pMotion)	//gmpbigsun: m_pMotion이 NULL인경우 shit ..

  00004	8b b1 8c 2a 00
	00		 mov	 esi, DWORD PTR [ecx+10892]
  0000a	85 f6		 test	 esi, esi
  0000c	74 2b		 je	 SHORT $LN2@IsAttrSoun
; File C:\IAGOS\server\v18\Source\Source\_Common\bone.h

; 172  : 		MOTION_ATTR		*pAttr = &m_pAttr[ (int)fNumFrm ];

  0000e	f3 0f 10 4d 08	 movss	 xmm1, DWORD PTR _fNumFrm$[ebp]
  00013	f3 0f 2c c1	 cvttss2si eax, xmm1
  00017	8d 14 40	 lea	 edx, DWORD PTR [eax+eax*2]
  0001a	8b 46 04	 mov	 eax, DWORD PTR [esi+4]

; 173  : 		if( pAttr->m_dwAttr & MA_SOUND )

  0001d	f6 04 90 02	 test	 BYTE PTR [eax+edx*4], 2
  00021	8d 04 90	 lea	 eax, DWORD PTR [eax+edx*4]
  00024	74 13		 je	 SHORT $LN2@IsAttrSoun

; 174  : 			if( fOldFrm < pAttr->m_fFrame && pAttr->m_fFrame <= fNumFrm )	// 이전 프레임이랑 현재 프레임 사이에 타점이 들어있었는가.

  00026	f3 0f 10 40 08	 movss	 xmm0, DWORD PTR [eax+8]
  0002b	0f 2f 81 a4 00
	00 00		 comiss	 xmm0, DWORD PTR [ecx+164]
  00032	76 05		 jbe	 SHORT $LN2@IsAttrSoun
  00034	0f 2f c8	 comiss	 xmm1, xmm0
  00037	73 02		 jae	 SHORT $LN1@IsAttrSoun
$LN2@IsAttrSoun:
; File C:\IAGOS\server\v18\Source\Source\_Common\ModelObject.h

; 305  : 	}

  00039	33 c0		 xor	 eax, eax
$LN1@IsAttrSoun:
  0003b	5e		 pop	 esi
  0003c	5d		 pop	 ebp
  0003d	c2 04 00	 ret	 4
?IsAttrSound@CModelObject@@UAEPAUMOTION_ATTR@@M@Z ENDP	; CModelObject::IsAttrSound
_TEXT	ENDS
; Function compile flags: /Ogtp
; File C:\IAGOS\server\v18\Source\Source\_Common\ModelObject.h
; File C:\IAGOS\server\v18\Source\Source\_Common\bone.h
; File C:\IAGOS\server\v18\Source\Source\_Common\ModelObject.h
;	COMDAT ?IsAttrSound@CModelObject@@UAEPAUMOTION_ATTR@@XZ
_TEXT	SEGMENT
?IsAttrSound@CModelObject@@UAEPAUMOTION_ATTR@@XZ PROC	; CModelObject::IsAttrSound, COMDAT
; _this$ = ecx

; 292  : 	{ 

  00000	53		 push	 ebx
  00001	8b d9		 mov	 ebx, ecx
  00003	56		 push	 esi
  00004	57		 push	 edi

; 293  : 		if( m_pMotion == NULL )

  00005	83 bb 8c 2a 00
	00 00		 cmp	 DWORD PTR [ebx+10892], 0
  0000c	75 31		 jne	 SHORT $LN8@IsAttrSoun

; 294  : 		{
; 295  : 			LPCTSTR szErr = Error( "IsAttrSound : pMotion==NULL %d %d", m_fFrameOld, m_fFrameCurrent );

  0000e	f3 0f 10 83 a0
	00 00 00	 movss	 xmm0, DWORD PTR [ebx+160]
  00016	83 ec 10	 sub	 esp, 16			; 00000010H
  00019	0f 5a c0	 cvtps2pd xmm0, xmm0
  0001c	f2 0f 11 44 24
	08		 movsd	 QWORD PTR [esp+8], xmm0
  00022	f3 0f 10 83 a4
	00 00 00	 movss	 xmm0, DWORD PTR [ebx+164]
  0002a	0f 5a c0	 cvtps2pd xmm0, xmm0
  0002d	f2 0f 11 04 24	 movsd	 QWORD PTR [esp], xmm0
  00032	68 00 00 00 00	 push	 OFFSET ??_C@_0CC@LLPKIFJI@IsAttrSound?5?3?5pMotion?$DN?$DNNULL?5?$CFd?5@
  00037	e8 00 00 00 00	 call	 ?Error@@YAPBDPBDZZ	; Error
  0003c	83 c4 14	 add	 esp, 20			; 00000014H
$LN8@IsAttrSoun:

; 298  : 		return m_pMotion->IsAttrSound( m_fFrameOld, m_fFrameCurrent ); 

  0003f	f3 0f 10 8b a0
	00 00 00	 movss	 xmm1, DWORD PTR [ebx+160]
; File C:\IAGOS\server\v18\Source\Source\_Common\bone.h

; 172  : 		MOTION_ATTR		*pAttr = &m_pAttr[ (int)fNumFrm ];

  00047	f3 0f 2c c1	 cvttss2si eax, xmm1
  0004b	8d 0c 40	 lea	 ecx, DWORD PTR [eax+eax*2]
  0004e	8b 83 8c 2a 00
	00		 mov	 eax, DWORD PTR [ebx+10892]
  00054	8b 40 04	 mov	 eax, DWORD PTR [eax+4]

; 173  : 		if( pAttr->m_dwAttr & MA_SOUND )

  00057	f6 04 88 02	 test	 BYTE PTR [eax+ecx*4], 2
  0005b	8d 04 88	 lea	 eax, DWORD PTR [eax+ecx*4]
  0005e	74 13		 je	 SHORT $LN6@IsAttrSoun

; 174  : 			if( fOldFrm < pAttr->m_fFrame && pAttr->m_fFrame <= fNumFrm )	// 이전 프레임이랑 현재 프레임 사이에 타점이 들어있었는가.

  00060	f3 0f 10 40 08	 movss	 xmm0, DWORD PTR [eax+8]
  00065	0f 2f 83 a4 00
	00 00		 comiss	 xmm0, DWORD PTR [ebx+164]
  0006c	76 05		 jbe	 SHORT $LN6@IsAttrSoun
  0006e	0f 2f c8	 comiss	 xmm1, xmm0
  00071	73 02		 jae	 SHORT $LN4@IsAttrSoun
$LN6@IsAttrSoun:
; File C:\IAGOS\server\v18\Source\Source\_Common\ModelObject.h

; 298  : 		return m_pMotion->IsAttrSound( m_fFrameOld, m_fFrameCurrent ); 

  00073	33 c0		 xor	 eax, eax
$LN4@IsAttrSoun:
  00075	5f		 pop	 edi

; 299  : 	}	// 현재 프레임에 사운드속성이 있는가?

  00076	5e		 pop	 esi
  00077	5b		 pop	 ebx
  00078	c3		 ret	 0
?IsAttrSound@CModelObject@@UAEPAUMOTION_ATTR@@XZ ENDP	; CModelObject::IsAttrSound
_TEXT	ENDS
; Function compile flags: /Ogtp
; File C:\IAGOS\server\v18\Source\Source\_Common\ModelObject.h
; File C:\IAGOS\server\v18\Source\Source\_Common\bone.h
; File C:\IAGOS\server\v18\Source\Source\_Common\ModelObject.h
; File C:\IAGOS\server\v18\Source\Source\_Common\bone.h
; File C:\IAGOS\server\v18\Source\Source\_Common\ModelObject.h
;	COMDAT ?IsAttrHit@CModelObject@@UAEKM@Z
_TEXT	SEGMENT
_fNumFrm$ = 8						; size = 4
?IsAttrHit@CModelObject@@UAEKM@Z PROC			; CModelObject::IsAttrHit, COMDAT
; _this$ = ecx

; 290  : 	DWORD	IsAttrHit( float fNumFrm ) { return m_pMotion->IsAttrHit( m_fFrameOld, fNumFrm ); }	// nNumFrm프레임에 타격속성이 있는가?

  00000	55		 push	 ebp
  00001	8b ec		 mov	 ebp, esp
; File C:\IAGOS\server\v18\Source\Source\_Common\bone.h

; 164  : 		MOTION_ATTR		*pAttr = &m_pAttr[ (int)fNumFrm ];

  00003	f3 0f 10 4d 08	 movss	 xmm1, DWORD PTR _fNumFrm$[ebp]
  00008	8b 91 8c 2a 00
	00		 mov	 edx, DWORD PTR [ecx+10892]
  0000e	f3 0f 2c c1	 cvttss2si eax, xmm1
; File C:\IAGOS\server\v18\Source\Source\_Common\ModelObject.h

; 290  : 	DWORD	IsAttrHit( float fNumFrm ) { return m_pMotion->IsAttrHit( m_fFrameOld, fNumFrm ); }	// nNumFrm프레임에 타격속성이 있는가?

  00012	56		 push	 esi
; File C:\IAGOS\server\v18\Source\Source\_Common\bone.h

; 164  : 		MOTION_ATTR		*pAttr = &m_pAttr[ (int)fNumFrm ];

  00013	8b 52 04	 mov	 edx, DWORD PTR [edx+4]
  00016	8d 34 40	 lea	 esi, DWORD PTR [eax+eax*2]

; 165  : 		if( pAttr->m_dwAttr & MA_HIT )

  00019	8b 04 b2	 mov	 eax, DWORD PTR [edx+esi*4]
  0001c	a8 01		 test	 al, 1
  0001e	74 14		 je	 SHORT $LN5@IsAttrHit

; 166  : 			if( fOldFrm < pAttr->m_fFrame && pAttr->m_fFrame <= fNumFrm )	// 이전 프레임이랑 현재 프레임 사이에 타점이 들어있었는가.

  00020	f3 0f 10 44 b2
	08		 movss	 xmm0, DWORD PTR [edx+esi*4+8]
  00026	0f 2f 81 a4 00
	00 00		 comiss	 xmm0, DWORD PTR [ecx+164]
  0002d	76 05		 jbe	 SHORT $LN5@IsAttrHit
  0002f	0f 2f c8	 comiss	 xmm1, xmm0
  00032	73 02		 jae	 SHORT $LN3@IsAttrHit
$LN5@IsAttrHit:
; File C:\IAGOS\server\v18\Source\Source\_Common\ModelObject.h

; 290  : 	DWORD	IsAttrHit( float fNumFrm ) { return m_pMotion->IsAttrHit( m_fFrameOld, fNumFrm ); }	// nNumFrm프레임에 타격속성이 있는가?

  00034	33 c0		 xor	 eax, eax
$LN3@IsAttrHit:
  00036	5e		 pop	 esi
  00037	5d		 pop	 ebp
  00038	c2 04 00	 ret	 4
?IsAttrHit@CModelObject@@UAEKM@Z ENDP			; CModelObject::IsAttrHit
_TEXT	ENDS
; Function compile flags: /Ogtp
; File C:\IAGOS\server\v18\Source\Source\_Common\ModelObject.h
; File C:\IAGOS\server\v18\Source\Source\_Common\bone.h
; File C:\IAGOS\server\v18\Source\Source\_Common\ModelObject.h
; File C:\IAGOS\server\v18\Source\Source\_Common\Object3d.h
; File C:\IAGOS\server\v18\Source\Source\_Common\ModelObject.h
; File C:\IAGOS\server\v18\Source\Source\_Common\Object3d.h
; File C:\IAGOS\server\v18\Source\Source\_Common\ModelObject.h
;	COMDAT ?IsAttrHit@CModelObject@@UAEKXZ
_TEXT	SEGMENT
?IsAttrHit@CModelObject@@UAEKXZ PROC			; CModelObject::IsAttrHit, COMDAT
; _this$ = ecx

; 285  : 		if( m_pMotion )

  00000	8b 91 8c 2a 00
	00		 mov	 edx, DWORD PTR [ecx+10892]
  00006	85 d2		 test	 edx, edx
  00008	74 32		 je	 SHORT $LN2@IsAttrHit

; 286  : 			return m_pMotion->IsAttrHit( m_fFrameOld, m_fFrameCurrent ); 

  0000a	f3 0f 10 89 a0
	00 00 00	 movss	 xmm1, DWORD PTR [ecx+160]
; File C:\IAGOS\server\v18\Source\Source\_Common\bone.h

; 164  : 		MOTION_ATTR		*pAttr = &m_pAttr[ (int)fNumFrm ];

  00012	8b 52 04	 mov	 edx, DWORD PTR [edx+4]
  00015	f3 0f 2c c1	 cvttss2si eax, xmm1
  00019	56		 push	 esi
  0001a	8d 34 40	 lea	 esi, DWORD PTR [eax+eax*2]

; 165  : 		if( pAttr->m_dwAttr & MA_HIT )

  0001d	8b 04 b2	 mov	 eax, DWORD PTR [edx+esi*4]
  00020	a8 01		 test	 al, 1
  00022	74 14		 je	 SHORT $LN7@IsAttrHit

; 166  : 			if( fOldFrm < pAttr->m_fFrame && pAttr->m_fFrame <= fNumFrm )	// 이전 프레임이랑 현재 프레임 사이에 타점이 들어있었는가.

  00024	f3 0f 10 44 b2
	08		 movss	 xmm0, DWORD PTR [edx+esi*4+8]
  0002a	0f 2f 81 a4 00
	00 00		 comiss	 xmm0, DWORD PTR [ecx+164]
  00031	76 05		 jbe	 SHORT $LN7@IsAttrHit
  00033	0f 2f c8	 comiss	 xmm1, xmm0
  00036	73 02		 jae	 SHORT $LN5@IsAttrHit
$LN7@IsAttrHit:

; 167  : 				return pAttr->m_dwAttr;
; 168  : 			return 0;

  00038	33 c0		 xor	 eax, eax
$LN5@IsAttrHit:
; File C:\IAGOS\server\v18\Source\Source\_Common\ModelObject.h

; 286  : 			return m_pMotion->IsAttrHit( m_fFrameOld, m_fFrameCurrent ); 

  0003a	5e		 pop	 esi

; 289  : 	}	// 현재 프레임에 타격속성이 있는가?

  0003b	c3		 ret	 0
$LN2@IsAttrHit:
; File C:\IAGOS\server\v18\Source\Source\_Common\Object3d.h

; 321  : 		if( m_pAttr == NULL )	return 0;

  0003c	8b 81 d8 00 00
	00		 mov	 eax, DWORD PTR [ecx+216]
  00042	8b 50 48	 mov	 edx, DWORD PTR [eax+72]
  00045	85 d2		 test	 edx, edx
  00047	74 26		 je	 SHORT $LN12@IsAttrHit
; File C:\IAGOS\server\v18\Source\Source\_Common\ModelObject.h

; 288  : 			return GetObject3D()->IsAttrHit( m_fFrameCurrent );

  00049	f3 0f 10 89 a0
	00 00 00	 movss	 xmm1, DWORD PTR [ecx+160]
; File C:\IAGOS\server\v18\Source\Source\_Common\Object3d.h

; 322  : 		MOTION_ATTR		*pAttr = &m_pAttr[ (int)fNumFrm ];

  00051	f3 0f 2c c1	 cvttss2si eax, xmm1
  00055	8d 04 40	 lea	 eax, DWORD PTR [eax+eax*2]

; 323  : 		if( pAttr->m_dwAttr & MA_HIT )

  00058	8b 0c 82	 mov	 ecx, DWORD PTR [edx+eax*4]
  0005b	f6 c1 01	 test	 cl, 1
  0005e	74 0f		 je	 SHORT $LN12@IsAttrHit

; 324  : 			if( pAttr->m_fFrame == fNumFrm )		// 속성은 8.0에 있는데 fNumFrm==8.5 로 들어왔을때 정확하게 비교하기 위해 필요.

  00060	f3 0f 10 44 82
	08		 movss	 xmm0, DWORD PTR [edx+eax*4+8]
  00066	0f 2e c1	 ucomiss xmm0, xmm1
  00069	9f		 lahf
  0006a	f6 c4 44	 test	 ah, 68			; 00000044H
  0006d	7b 02		 jnp	 SHORT $LN9@IsAttrHit
$LN12@IsAttrHit:
; File C:\IAGOS\server\v18\Source\Source\_Common\ModelObject.h

; 288  : 			return GetObject3D()->IsAttrHit( m_fFrameCurrent );

  0006f	33 c9		 xor	 ecx, ecx
$LN9@IsAttrHit:
  00071	8b c1		 mov	 eax, ecx

; 289  : 	}	// 현재 프레임에 타격속성이 있는가?

  00073	c3		 ret	 0
?IsAttrHit@CModelObject@@UAEKXZ ENDP			; CModelObject::IsAttrHit
_TEXT	ENDS
; Function compile flags: /Ogtp
; File C:\IAGOS\server\v18\Source\Source\_Common\ModelObject.h
; File C:\IAGOS\server\v18\Source\Source\_Common\bone.h
; File C:\IAGOS\server\v18\Source\Source\_Common\ModelObject.h
;	COMDAT ?GetMotionAttr@CModelObject@@UAEPAUMOTION_ATTR@@H@Z
_TEXT	SEGMENT
_nNumFrm$ = 8						; size = 4
?GetMotionAttr@CModelObject@@UAEPAUMOTION_ATTR@@H@Z PROC ; CModelObject::GetMotionAttr, COMDAT
; _this$ = ecx

; 282  : 	MOTION_ATTR *GetMotionAttr( int nNumFrm ) { return m_pMotion->GetMotionAttr(nNumFrm); }	

  00000	55		 push	 ebp
  00001	8b ec		 mov	 ebp, esp
; File C:\IAGOS\server\v18\Source\Source\_Common\bone.h

; 156  : 	MOTION_ATTR *GetMotionAttr( int nNumFrm ) { return m_pAttr + nNumFrm; }	

  00003	8b 45 08	 mov	 eax, DWORD PTR _nNumFrm$[ebp]
  00006	8b 91 8c 2a 00
	00		 mov	 edx, DWORD PTR [ecx+10892]
  0000c	8d 0c 40	 lea	 ecx, DWORD PTR [eax+eax*2]
  0000f	8b 42 04	 mov	 eax, DWORD PTR [edx+4]
  00012	8d 04 88	 lea	 eax, DWORD PTR [eax+ecx*4]
; File C:\IAGOS\server\v18\Source\Source\_Common\ModelObject.h

; 282  : 	MOTION_ATTR *GetMotionAttr( int nNumFrm ) { return m_pMotion->GetMotionAttr(nNumFrm); }	

  00015	5d		 pop	 ebp
  00016	c2 04 00	 ret	 4
?GetMotionAttr@CModelObject@@UAEPAUMOTION_ATTR@@H@Z ENDP ; CModelObject::GetMotionAttr
_TEXT	ENDS
; Function compile flags: /Ogtp
; File C:\IAGOS\server\v18\Source\Source\_Common\ModelObject.h
;	COMDAT ?IsLoadAttr@CModelObject@@UAEHXZ
_TEXT	SEGMENT
?IsLoadAttr@CModelObject@@UAEHXZ PROC			; CModelObject::IsLoadAttr, COMDAT
; _this$ = ecx

; 281  : 	BOOL	IsLoadAttr( void ) { if(m_pMotion) return TRUE; else return FALSE; }

  00000	33 c0		 xor	 eax, eax
  00002	39 81 8c 2a 00
	00		 cmp	 DWORD PTR [ecx+10892], eax
  00008	0f 95 c0	 setne	 al
  0000b	c3		 ret	 0
?IsLoadAttr@CModelObject@@UAEHXZ ENDP			; CModelObject::IsLoadAttr
_TEXT	ENDS
; Function compile flags: /Ogtp
; File C:\IAGOS\server\v18\Source\Source\_Common\ModelObject.h
; File C:\IAGOS\server\v18\Source\Source\_Common\Object3d.h
; File C:\IAGOS\server\v18\Source\Source\_Common\ModelObject.h
; File C:\IAGOS\server\v18\Source\Source\_Common\Object3d.h
; File C:\IAGOS\server\v18\Source\Source\_Common\ModelObject.h
;	COMDAT ?SetGroup@CModelObject@@UAEXH@Z
_TEXT	SEGMENT
_nNum$ = 8						; size = 4
tv518 = 8						; size = 4
?SetGroup@CModelObject@@UAEXH@Z PROC			; CModelObject::SetGroup, COMDAT
; _this$ = ecx

; 228  : 	{

  00000	55		 push	 ebp
  00001	8b ec		 mov	 ebp, esp
  00003	53		 push	 ebx

; 229  : 		if( nNum < 0 || nNum >= MAX_GROUP )

  00004	8b 5d 08	 mov	 ebx, DWORD PTR _nNum$[ebp]
  00007	56		 push	 esi
  00008	8b f1		 mov	 esi, ecx
  0000a	57		 push	 edi
  0000b	85 db		 test	 ebx, ebx
  0000d	78 05		 js	 SHORT $LN8@SetGroup
  0000f	83 fb 03	 cmp	 ebx, 3
  00012	7c 10		 jl	 SHORT $LN7@SetGroup
$LN8@SetGroup:

; 230  : 		{
; 231  : 			Error( "SetGroup : lv=%d", nNum );

  00014	53		 push	 ebx
  00015	68 00 00 00 00	 push	 OFFSET ??_C@_0BB@FADAHOKP@SetGroup?5?3?5lv?$DN?$CFd@
  0001a	e8 00 00 00 00	 call	 ?Error@@YAPBDPBDZZ	; Error
  0001f	83 c4 08	 add	 esp, 8

; 232  : 			nNum = 0;

  00022	33 db		 xor	 ebx, ebx
$LN7@SetGroup:

; 233  : 		}
; 234  : 
; 235  : 		for( int i = 0; i < MAX_ELEMENT; i ++ )

  00024	b9 15 00 00 00	 mov	 ecx, 21			; 00000015H
  00029	81 c6 28 02 00
	00		 add	 esi, 552		; 00000228H
  0002f	89 4d 08	 mov	 DWORD PTR tv518[ebp], ecx
$LL4@SetGroup:

; 236  : 		{
; 237  : 			if( m_Element[i].m_pObject3D )	

  00032	8b be b0 fe ff
	ff		 mov	 edi, DWORD PTR [esi-336]
  00038	85 ff		 test	 edi, edi
  0003a	74 66		 je	 SHORT $LN2@SetGroup

; 238  : 			{
; 239  : 				if( m_Element[i].m_pObject3D->m_bLOD == 0 )		

  0003c	83 bf b4 00 00
	00 00		 cmp	 DWORD PTR [edi+180], 0
  00043	75 07		 jne	 SHORT $LN10@SetGroup
; File C:\IAGOS\server\v18\Source\Source\_Common\Object3d.h

; 311  : 		m_pGroup = &m_Group[nLevel]; 

  00045	8d 47 04	 lea	 eax, DWORD PTR [edi+4]
  00048	89 07		 mov	 DWORD PTR [edi], eax
; File C:\IAGOS\server\v18\Source\Source\_Common\ModelObject.h

; 240  : 					m_Element[i].m_pObject3D->SetLOD( 0 );		// LOD데이타가 없다면 항상 High레벨로만..

  0004a	eb 56		 jmp	 SHORT $LN2@SetGroup
$LN10@SetGroup:

; 241  : 				else
; 242  : 				{
; 243  : 					m_Element[i].m_pObject3D->SetLOD( nNum );

  0004c	8b c3		 mov	 eax, ebx
; File C:\IAGOS\server\v18\Source\Source\_Common\Object3d.h

; 305  : 		if( nLevel < 0 || nLevel >= MAX_GROUP )

  0004e	83 fb 03	 cmp	 ebx, 3
  00051	72 1a		 jb	 SHORT $LN22@SetGroup

; 306  : 		{
; 307  : 			Error( "SetLOD : lv=%d, %s", nLevel, m_szFileName );

  00053	8d 87 c0 00 00
	00		 lea	 eax, DWORD PTR [edi+192]
  00059	50		 push	 eax
  0005a	53		 push	 ebx
  0005b	68 00 00 00 00	 push	 OFFSET ??_C@_0BD@IOHNFIBA@SetLOD?5?3?5lv?$DN?$CFd?0?5?$CFs@
  00060	e8 00 00 00 00	 call	 ?Error@@YAPBDPBDZZ	; Error
  00065	8b 4d 08	 mov	 ecx, DWORD PTR tv518[ebp]
  00068	83 c4 0c	 add	 esp, 12			; 0000000cH

; 308  : 			nLevel = 0;

  0006b	33 c0		 xor	 eax, eax
$LN22@SetGroup:

; 309  : 		}
; 310  : 		if( m_bLOD == 0 ) nLevel = 0;	// LOD데이타가 없다면 항상 High레벨로만..

  0006d	33 d2		 xor	 edx, edx
  0006f	39 97 b4 00 00
	00		 cmp	 DWORD PTR [edi+180], edx
  00075	0f 44 c2	 cmove	 eax, edx

; 311  : 		m_pGroup = &m_Group[nLevel]; 

  00078	8d 04 40	 lea	 eax, DWORD PTR [eax+eax*2]
  0007b	8d 40 01	 lea	 eax, DWORD PTR [eax+1]
  0007e	8d 04 87	 lea	 eax, DWORD PTR [edi+eax*4]
  00081	89 07		 mov	 DWORD PTR [edi], eax
; File C:\IAGOS\server\v18\Source\Source\_Common\ModelObject.h

; 244  : 					switch( nNum )

  00083	8b c3		 mov	 eax, ebx
  00085	2b c2		 sub	 eax, edx
  00087	74 13		 je	 SHORT $LN12@SetGroup
  00089	83 e8 01	 sub	 eax, 1
  0008c	74 09		 je	 SHORT $LN13@SetGroup
  0008e	83 e8 01	 sub	 eax, 1
  00091	75 0f		 jne	 SHORT $LN2@SetGroup

; 248  : 					case 2:		m_Element[i].m_ppd3d_VBSel = m_Element[i].m_ppd3d_VB3;	break;

  00093	8b 06		 mov	 eax, DWORD PTR [esi]
  00095	eb 08		 jmp	 SHORT $LN38@SetGroup
$LN13@SetGroup:

; 247  : 					case 1:		m_Element[i].m_ppd3d_VBSel = m_Element[i].m_ppd3d_VB2;	break;

  00097	8b 46 fc	 mov	 eax, DWORD PTR [esi-4]
  0009a	eb 03		 jmp	 SHORT $LN38@SetGroup
$LN12@SetGroup:

; 245  : 					{
; 246  : 					case 0:		m_Element[i].m_ppd3d_VBSel = m_Element[i].m_ppd3d_VB1;	break;		// lod가 선택될때마다 버퍼 포인터를 스위칭 해줌.

  0009c	8b 46 f8	 mov	 eax, DWORD PTR [esi-8]
$LN38@SetGroup:

; 233  : 		}
; 234  : 
; 235  : 		for( int i = 0; i < MAX_ELEMENT; i ++ )

  0009f	89 46 04	 mov	 DWORD PTR [esi+4], eax
$LN2@SetGroup:
  000a2	81 c6 fc 01 00
	00		 add	 esi, 508		; 000001fcH
  000a8	83 e9 01	 sub	 ecx, 1
  000ab	89 4d 08	 mov	 DWORD PTR tv518[ebp], ecx
  000ae	75 82		 jne	 SHORT $LL4@SetGroup
  000b0	5f		 pop	 edi
  000b1	5e		 pop	 esi
  000b2	5b		 pop	 ebx

; 249  : 					}
; 250  : 				}
; 251  : 				
; 252  : 			}
; 253  : 		}
; 254  : 	}		// Set LOD Group

  000b3	5d		 pop	 ebp
  000b4	c2 04 00	 ret	 4
?SetGroup@CModelObject@@UAEXH@Z ENDP			; CModelObject::SetGroup
_TEXT	ENDS
; Function compile flags: /Ogtp
; File C:\IAGOS\server\v18\Source\Source\_Common\modelobject.cpp
; File C:\IAGOS\server\v18\Source\Source\_Common\ModelObject.h
; File C:\IAGOS\server\v18\Source\Source\_Common\modelobject.cpp
; File C:\IAGOS\server\v18\Source\Source\_Common\Object3d.h
; File C:\IAGOS\server\v18\Source\Source\_Common\modelobject.cpp
; File C:\IAGOS\server\v18\Source\Source\_Common\Object3d.h
; File C:\IAGOS\server\v18\Source\Source\_Common\modelobject.cpp
; File C:\IAGOS\server\v18\Source\Source\_Common\Object3d.h
; File C:\IAGOS\server\v18\Source\Source\_Common\modelobject.cpp
; File C:\IAGOS\server\v18\Source\Source\_Common\Object3d.h
; File C:\IAGOS\server\v18\Source\Source\_Common\modelobject.cpp
; File C:\IAGOS\server\v18\Source\Source\_Common\Object3d.h
; File C:\IAGOS\server\v18\Source\Source\_Common\modelobject.cpp
; File C:\IAGOS\server\v18\Source\Source\_Common\Object3d.h
; File C:\IAGOS\server\v18\Source\Source\_Common\modelobject.cpp
; File C:\IAGOS\server\v18\Source\Source\_Common\Object3d.h
; File C:\IAGOS\server\v18\Source\Source\_Common\modelobject.cpp
; File C:\IAGOS\server\v18\Source\Source\_Common\Object3d.h
; File C:\IAGOS\server\v18\Source\Source\_Common\modelobject.cpp
; File C:\IAGOS\server\v18\Source\Source\_Common\Object3d.h
; File C:\IAGOS\server\v18\Source\Source\_Common\modelobject.cpp
; File C:\IAGOS\server\v18\Source\Source\_Common\Object3d.h
; File C:\IAGOS\server\v18\Source\Source\_Common\modelobject.cpp
; File C:\IAGOS\server\v18\Source\Source\_Common\Object3d.h
; File C:\IAGOS\server\v18\Source\Source\_Common\modelobject.cpp
; File C:\IAGOS\server\v18\Source\Source\_Common\Object3d.h
; File C:\IAGOS\server\v18\Source\Source\_Common\modelobject.cpp
;	COMDAT ?TakeOffParts@CModelObject@@QAEXH@Z
_TEXT	SEGMENT
tv1325 = -20						; size = 4
_this$1$ = -16						; size = 4
$T1 = -12						; size = 4
$T2 = -8						; size = 4
tv1333 = -4						; size = 4
_nParts$ = 8						; size = 4
?TakeOffParts@CModelObject@@QAEXH@Z PROC		; CModelObject::TakeOffParts, COMDAT
; _this$ = ecx

; 509  : {

  00000	55		 push	 ebp
  00001	8b ec		 mov	 ebp, esp
  00003	83 ec 14	 sub	 esp, 20			; 00000014H

; 510  : 	if( nParts < 0 )

  00006	8b 55 08	 mov	 edx, DWORD PTR _nParts$[ebp]
  00009	53		 push	 ebx
  0000a	56		 push	 esi
  0000b	8b f1		 mov	 esi, ecx
  0000d	89 75 f0	 mov	 DWORD PTR _this$1$[ebp], esi
  00010	85 d2		 test	 edx, edx
  00012	79 11		 jns	 SHORT $LN11@TakeOffPar

; 511  : 		Error( "CModelObject::TakeOffParts : nParts = %d", nParts );

  00014	52		 push	 edx
  00015	68 00 00 00 00	 push	 OFFSET ??_C@_0CJ@HDCFKCHE@CModelObject?3?3TakeOffParts?5?3?5nP@
  0001a	e8 00 00 00 00	 call	 ?Error@@YAPBDPBDZZ	; Error
  0001f	8b 55 08	 mov	 edx, DWORD PTR _nParts$[ebp]
  00022	83 c4 08	 add	 esp, 8
$LN11@TakeOffPar:
; File C:\IAGOS\server\v18\Source\Source\_Common\ModelObject.h

; 200  : 		for( int i=0; i<MAX_ELEMENT; i++ )

  00025	33 db		 xor	 ebx, ebx
  00027	8d 86 cc 02 00
	00		 lea	 eax, DWORD PTR [esi+716]
  0002d	89 5d f4	 mov	 DWORD PTR $T1[ebp], ebx
$LL69@TakeOffPar:

; 201  : 		{
; 202  : 			if( m_Element[i].m_nPartsIdx == nParts )

  00030	39 10		 cmp	 DWORD PTR [eax], edx
  00032	74 14		 je	 SHORT $LN88@TakeOffPar

; 200  : 		for( int i=0; i<MAX_ELEMENT; i++ )

  00034	43		 inc	 ebx
  00035	05 fc 01 00 00	 add	 eax, 508		; 000001fcH
  0003a	89 5d f4	 mov	 DWORD PTR $T1[ebp], ebx
  0003d	83 fb 15	 cmp	 ebx, 21			; 00000015H
  00040	7c ee		 jl	 SHORT $LL69@TakeOffPar

; 203  : 				return i;
; 204  : 		}
; 205  : 		return -1; 

  00042	83 cb ff	 or	 ebx, -1
  00045	89 5d f4	 mov	 DWORD PTR $T1[ebp], ebx
$LN88@TakeOffPar:

; 190  : 		for( int i=0; i<MAX_ELEMENT; i++ )

  00048	33 c9		 xor	 ecx, ecx
  0004a	8b c6		 mov	 eax, esi
  0004c	0f 1f 40 00	 npad	 4
$LL75@TakeOffPar:

; 191  : 		{
; 192  : 			if( m_Element[i].m_nPartsIdx == nParts )

  00050	39 90 cc 02 00
	00		 cmp	 DWORD PTR [eax+716], edx
  00056	74 10		 je	 SHORT $LN89@TakeOffPar

; 190  : 		for( int i=0; i<MAX_ELEMENT; i++ )

  00058	41		 inc	 ecx
  00059	05 fc 01 00 00	 add	 eax, 508		; 000001fcH
  0005e	83 f9 15	 cmp	 ecx, 21			; 00000015H
  00061	7c ed		 jl	 SHORT $LL75@TakeOffPar

; 191  : 		{
; 192  : 			if( m_Element[i].m_nPartsIdx == nParts )

  00063	e9 58 01 00 00	 jmp	 $LN16@TakeOffPar
$LN89@TakeOffPar:

; 193  : 				return &(m_Element[i]);

  00068	8d 90 d4 00 00
	00		 lea	 edx, DWORD PTR [eax+212]
  0006e	89 55 f8	 mov	 DWORD PTR $T2[ebp], edx
; File C:\IAGOS\server\v18\Source\Source\_Common\modelobject.cpp

; 518  : 	if( pElem && pElem->m_ppd3d_VB )

  00071	85 d2		 test	 edx, edx
  00073	0f 84 44 01 00
	00		 je	 $LN105@TakeOffPar
  00079	83 ba 48 01 00
	00 00		 cmp	 DWORD PTR [edx+328], 0
  00080	8d 82 48 01 00
	00		 lea	 eax, DWORD PTR [edx+328]
  00086	89 45 ec	 mov	 DWORD PTR tv1325[ebp], eax
  00089	0f 84 2e 01 00
	00		 je	 $LN105@TakeOffPar

; 519  : 	{
; 520  : 		pElem->m_pObject3D->SetLOD(0);

  0008f	8b 4a 04	 mov	 ecx, DWORD PTR [edx+4]
  00092	8d 42 04	 lea	 eax, DWORD PTR [edx+4]
  00095	89 45 fc	 mov	 DWORD PTR tv1333[ebp], eax
  00098	57		 push	 edi

; 521  : 		for( int j = 0; j < pElem->m_pObject3D->GetMaxObject(); j ++ )		// 

  00099	33 ff		 xor	 edi, edi
; File C:\IAGOS\server\v18\Source\Source\_Common\Object3d.h

; 311  : 		m_pGroup = &m_Group[nLevel]; 

  0009b	8d 41 04	 lea	 eax, DWORD PTR [ecx+4]
  0009e	89 01		 mov	 DWORD PTR [ecx], eax

; 281  : 	int		GetMaxObject( void ) { return m_pGroup->m_nMaxObject; }

  000a0	8b 4d fc	 mov	 ecx, DWORD PTR tv1333[ebp]
  000a3	8b 09		 mov	 ecx, DWORD PTR [ecx]
  000a5	8b 01		 mov	 eax, DWORD PTR [ecx]
; File C:\IAGOS\server\v18\Source\Source\_Common\modelobject.cpp

; 521  : 		for( int j = 0; j < pElem->m_pObject3D->GetMaxObject(); j ++ )		// 

  000a7	39 38		 cmp	 DWORD PTR [eax], edi
  000a9	7e 36		 jle	 SHORT $LN3@TakeOffPar
  000ab	8b 75 fc	 mov	 esi, DWORD PTR tv1333[ebp]
  000ae	8d 9a 4c 01 00
	00		 lea	 ebx, DWORD PTR [edx+332]
  000b4	89 55 f8	 mov	 DWORD PTR $T2[ebp], edx
$LL4@TakeOffPar:

; 522  : 			SAFE_RELEASE( pElem->m_ppd3d_VB1[j] );

  000b7	8b 03		 mov	 eax, DWORD PTR [ebx]
  000b9	8b 0c b8	 mov	 ecx, DWORD PTR [eax+edi*4]
  000bc	85 c9		 test	 ecx, ecx
  000be	74 0f		 je	 SHORT $LN2@TakeOffPar
  000c0	8b 01		 mov	 eax, DWORD PTR [ecx]
  000c2	51		 push	 ecx
  000c3	ff 50 08	 call	 DWORD PTR [eax+8]
  000c6	8b 03		 mov	 eax, DWORD PTR [ebx]
  000c8	c7 04 b8 00 00
	00 00		 mov	 DWORD PTR [eax+edi*4], 0
$LN2@TakeOffPar:
; File C:\IAGOS\server\v18\Source\Source\_Common\Object3d.h

; 281  : 	int		GetMaxObject( void ) { return m_pGroup->m_nMaxObject; }

  000cf	8b 0e		 mov	 ecx, DWORD PTR [esi]
; File C:\IAGOS\server\v18\Source\Source\_Common\modelobject.cpp

; 521  : 		for( int j = 0; j < pElem->m_pObject3D->GetMaxObject(); j ++ )		// 

  000d1	47		 inc	 edi
; File C:\IAGOS\server\v18\Source\Source\_Common\Object3d.h

; 281  : 	int		GetMaxObject( void ) { return m_pGroup->m_nMaxObject; }

  000d2	8b 01		 mov	 eax, DWORD PTR [ecx]
; File C:\IAGOS\server\v18\Source\Source\_Common\modelobject.cpp

; 521  : 		for( int j = 0; j < pElem->m_pObject3D->GetMaxObject(); j ++ )		// 

  000d4	3b 38		 cmp	 edi, DWORD PTR [eax]
  000d6	7c df		 jl	 SHORT $LL4@TakeOffPar
  000d8	8b 75 f0	 mov	 esi, DWORD PTR _this$1$[ebp]
  000db	8b 5d f4	 mov	 ebx, DWORD PTR $T1[ebp]
  000de	8b 55 f8	 mov	 edx, DWORD PTR $T2[ebp]
$LN3@TakeOffPar:
; File C:\IAGOS\server\v18\Source\Source\_Common\Object3d.h

; 311  : 		m_pGroup = &m_Group[nLevel]; 

  000e1	83 b9 b4 00 00
	00 00		 cmp	 DWORD PTR [ecx+180], 0
  000e8	bf 10 00 00 00	 mov	 edi, 16			; 00000010H
  000ed	b8 04 00 00 00	 mov	 eax, 4
  000f2	0f 45 c7	 cmovne	 eax, edi
; File C:\IAGOS\server\v18\Source\Source\_Common\modelobject.cpp

; 524  : 		for( int j = 0; j < pElem->m_pObject3D->GetMaxObject(); j ++ )

  000f5	33 ff		 xor	 edi, edi
; File C:\IAGOS\server\v18\Source\Source\_Common\Object3d.h

; 311  : 		m_pGroup = &m_Group[nLevel]; 

  000f7	03 c1		 add	 eax, ecx
  000f9	89 01		 mov	 DWORD PTR [ecx], eax

; 281  : 	int		GetMaxObject( void ) { return m_pGroup->m_nMaxObject; }

  000fb	8b 45 fc	 mov	 eax, DWORD PTR tv1333[ebp]
  000fe	8b 08		 mov	 ecx, DWORD PTR [eax]
  00100	8b 01		 mov	 eax, DWORD PTR [ecx]
; File C:\IAGOS\server\v18\Source\Source\_Common\modelobject.cpp

; 524  : 		for( int j = 0; j < pElem->m_pObject3D->GetMaxObject(); j ++ )

  00102	39 38		 cmp	 DWORD PTR [eax], edi
  00104	7e 39		 jle	 SHORT $LN6@TakeOffPar
  00106	8b 75 fc	 mov	 esi, DWORD PTR tv1333[ebp]
  00109	0f 1f 80 00 00
	00 00		 npad	 7
$LL7@TakeOffPar:

; 525  : 			SAFE_RELEASE( pElem->m_ppd3d_VB2[j] );

  00110	8b 82 50 01 00
	00		 mov	 eax, DWORD PTR [edx+336]
  00116	8b 0c b8	 mov	 ecx, DWORD PTR [eax+edi*4]
  00119	85 c9		 test	 ecx, ecx
  0011b	74 16		 je	 SHORT $LN5@TakeOffPar
  0011d	8b 01		 mov	 eax, DWORD PTR [ecx]
  0011f	51		 push	 ecx
  00120	ff 50 08	 call	 DWORD PTR [eax+8]
  00123	8b 55 f8	 mov	 edx, DWORD PTR $T2[ebp]
  00126	8b 82 50 01 00
	00		 mov	 eax, DWORD PTR [edx+336]
  0012c	c7 04 b8 00 00
	00 00		 mov	 DWORD PTR [eax+edi*4], 0
$LN5@TakeOffPar:
; File C:\IAGOS\server\v18\Source\Source\_Common\Object3d.h

; 281  : 	int		GetMaxObject( void ) { return m_pGroup->m_nMaxObject; }

  00133	8b 0e		 mov	 ecx, DWORD PTR [esi]
; File C:\IAGOS\server\v18\Source\Source\_Common\modelobject.cpp

; 524  : 		for( int j = 0; j < pElem->m_pObject3D->GetMaxObject(); j ++ )

  00135	47		 inc	 edi
; File C:\IAGOS\server\v18\Source\Source\_Common\Object3d.h

; 281  : 	int		GetMaxObject( void ) { return m_pGroup->m_nMaxObject; }

  00136	8b 01		 mov	 eax, DWORD PTR [ecx]
; File C:\IAGOS\server\v18\Source\Source\_Common\modelobject.cpp

; 524  : 		for( int j = 0; j < pElem->m_pObject3D->GetMaxObject(); j ++ )

  00138	3b 38		 cmp	 edi, DWORD PTR [eax]
  0013a	7c d4		 jl	 SHORT $LL7@TakeOffPar
  0013c	8b 75 f0	 mov	 esi, DWORD PTR _this$1$[ebp]
$LN6@TakeOffPar:
; File C:\IAGOS\server\v18\Source\Source\_Common\Object3d.h

; 311  : 		m_pGroup = &m_Group[nLevel]; 

  0013f	83 b9 b4 00 00
	00 00		 cmp	 DWORD PTR [ecx+180], 0
  00146	bf 1c 00 00 00	 mov	 edi, 28			; 0000001cH
  0014b	b8 04 00 00 00	 mov	 eax, 4
  00150	0f 45 c7	 cmovne	 eax, edi
; File C:\IAGOS\server\v18\Source\Source\_Common\modelobject.cpp

; 527  : 		for( int j = 0; j < pElem->m_pObject3D->GetMaxObject(); j ++ )

  00153	33 ff		 xor	 edi, edi
; File C:\IAGOS\server\v18\Source\Source\_Common\Object3d.h

; 311  : 		m_pGroup = &m_Group[nLevel]; 

  00155	03 c1		 add	 eax, ecx
  00157	89 01		 mov	 DWORD PTR [ecx], eax

; 281  : 	int		GetMaxObject( void ) { return m_pGroup->m_nMaxObject; }

  00159	8b 45 fc	 mov	 eax, DWORD PTR tv1333[ebp]
  0015c	8b 08		 mov	 ecx, DWORD PTR [eax]
  0015e	8b 01		 mov	 eax, DWORD PTR [ecx]
; File C:\IAGOS\server\v18\Source\Source\_Common\modelobject.cpp

; 527  : 		for( int j = 0; j < pElem->m_pObject3D->GetMaxObject(); j ++ )

  00160	39 38		 cmp	 DWORD PTR [eax], edi
  00162	7e 3b		 jle	 SHORT $LN9@TakeOffPar
  00164	8b 75 fc	 mov	 esi, DWORD PTR tv1333[ebp]
  00167	66 0f 1f 84 00
	00 00 00 00	 npad	 9
$LL10@TakeOffPar:

; 528  : 			SAFE_RELEASE( pElem->m_ppd3d_VB3[j] );

  00170	8b 82 54 01 00
	00		 mov	 eax, DWORD PTR [edx+340]
  00176	8b 0c b8	 mov	 ecx, DWORD PTR [eax+edi*4]
  00179	85 c9		 test	 ecx, ecx
  0017b	74 16		 je	 SHORT $LN8@TakeOffPar
  0017d	8b 01		 mov	 eax, DWORD PTR [ecx]
  0017f	51		 push	 ecx
  00180	ff 50 08	 call	 DWORD PTR [eax+8]
  00183	8b 55 f8	 mov	 edx, DWORD PTR $T2[ebp]
  00186	8b 82 54 01 00
	00		 mov	 eax, DWORD PTR [edx+340]
  0018c	c7 04 b8 00 00
	00 00		 mov	 DWORD PTR [eax+edi*4], 0
$LN8@TakeOffPar:
; File C:\IAGOS\server\v18\Source\Source\_Common\Object3d.h

; 281  : 	int		GetMaxObject( void ) { return m_pGroup->m_nMaxObject; }

  00193	8b 0e		 mov	 ecx, DWORD PTR [esi]
; File C:\IAGOS\server\v18\Source\Source\_Common\modelobject.cpp

; 527  : 		for( int j = 0; j < pElem->m_pObject3D->GetMaxObject(); j ++ )

  00195	47		 inc	 edi
; File C:\IAGOS\server\v18\Source\Source\_Common\Object3d.h

; 281  : 	int		GetMaxObject( void ) { return m_pGroup->m_nMaxObject; }

  00196	8b 01		 mov	 eax, DWORD PTR [ecx]
; File C:\IAGOS\server\v18\Source\Source\_Common\modelobject.cpp

; 527  : 		for( int j = 0; j < pElem->m_pObject3D->GetMaxObject(); j ++ )

  00198	3b 38		 cmp	 edi, DWORD PTR [eax]
  0019a	7c d4		 jl	 SHORT $LL10@TakeOffPar
  0019c	8b 75 f0	 mov	 esi, DWORD PTR _this$1$[ebp]
$LN9@TakeOffPar:

; 530  : 		SAFE_DELETE_ARRAY( pElem->m_ppd3d_VB );		// 전체 메모리 풀을 한꺼번에 날림.

  0019f	8b 7d ec	 mov	 edi, DWORD PTR tv1325[ebp]
; File C:\IAGOS\server\v18\Source\Source\_Common\Object3d.h

; 311  : 		m_pGroup = &m_Group[nLevel]; 

  001a2	8d 41 04	 lea	 eax, DWORD PTR [ecx+4]
  001a5	89 01		 mov	 DWORD PTR [ecx], eax
; File C:\IAGOS\server\v18\Source\Source\_Common\modelobject.cpp

; 530  : 		SAFE_DELETE_ARRAY( pElem->m_ppd3d_VB );		// 전체 메모리 풀을 한꺼번에 날림.

  001a7	8b 07		 mov	 eax, DWORD PTR [edi]
  001a9	85 c0		 test	 eax, eax
  001ab	74 0f		 je	 SHORT $LN107@TakeOffPar
  001ad	50		 push	 eax
  001ae	e8 00 00 00 00	 call	 ??_V@YAXPAX@Z		; operator delete[]
  001b3	83 c4 04	 add	 esp, 4
  001b6	c7 07 00 00 00
	00		 mov	 DWORD PTR [edi], 0
$LN107@TakeOffPar:
  001bc	5f		 pop	 edi
$LN105@TakeOffPar:

; 531  : 	}
; 532  : 
; 533  : 	if(nIdx != -1)

  001bd	8b 55 08	 mov	 edx, DWORD PTR _nParts$[ebp]
$LN16@TakeOffPar:
  001c0	83 fb ff	 cmp	 ebx, -1
  001c3	0f 84 f0 00 00
	00		 je	 $LN17@TakeOffPar

; 534  : 	{
; 535  : 	#if __VER >= 9 // __Y_ADV_ENCHANT_EFFECT
; 536  : 		if( nParts == PARTS_LWEAPON || nParts == PARTS_RWEAPON )

  001c9	83 fa 09	 cmp	 edx, 9
  001cc	74 09		 je	 SHORT $LN19@TakeOffPar
  001ce	83 fa 0a	 cmp	 edx, 10			; 0000000aH
  001d1	0f 85 da 00 00
	00		 jne	 $LN27@TakeOffPar
$LN19@TakeOffPar:

; 537  : 		{
; 538  : 			m_nEffectCount  = 0;
; 539  : 
; 540  : 			SAFE_DELETE(m_pPartsEffect);

  001d7	8b 8e a0 2a 00
	00		 mov	 ecx, DWORD PTR [esi+10912]
  001dd	c7 86 80 2a 00
	00 00 00 00 00	 mov	 DWORD PTR [esi+10880], 0
  001e7	85 c9		 test	 ecx, ecx
  001e9	74 10		 je	 SHORT $LN20@TakeOffPar
  001eb	8b 01		 mov	 eax, DWORD PTR [ecx]
  001ed	6a 01		 push	 1
  001ef	ff 10		 call	 DWORD PTR [eax]
  001f1	c7 86 a0 2a 00
	00 00 00 00 00	 mov	 DWORD PTR [esi+10912], 0
$LN20@TakeOffPar:

; 541  : 			SAFE_DELETE(m_pPartsEffect2);

  001fb	8b 8e a4 2a 00
	00		 mov	 ecx, DWORD PTR [esi+10916]
  00201	85 c9		 test	 ecx, ecx
  00203	74 10		 je	 SHORT $LN21@TakeOffPar
  00205	8b 01		 mov	 eax, DWORD PTR [ecx]
  00207	6a 01		 push	 1
  00209	ff 10		 call	 DWORD PTR [eax]
  0020b	c7 86 a4 2a 00
	00 00 00 00 00	 mov	 DWORD PTR [esi+10916], 0
$LN21@TakeOffPar:

; 542  : #ifdef __NEW_WEAPON_GLOW
; 543  : 			SAFE_DELETE( m_pm_pPartsEffectRegular[0]);

  00215	8b 8e a8 2a 00
	00		 mov	 ecx, DWORD PTR [esi+10920]
  0021b	85 c9		 test	 ecx, ecx
  0021d	74 10		 je	 SHORT $LN22@TakeOffPar
  0021f	8b 01		 mov	 eax, DWORD PTR [ecx]
  00221	6a 01		 push	 1
  00223	ff 10		 call	 DWORD PTR [eax]
  00225	c7 86 a8 2a 00
	00 00 00 00 00	 mov	 DWORD PTR [esi+10920], 0
$LN22@TakeOffPar:

; 544  : 			SAFE_DELETE( m_pm_pPartsEffectRegular[1]);

  0022f	8b 8e ac 2a 00
	00		 mov	 ecx, DWORD PTR [esi+10924]
  00235	85 c9		 test	 ecx, ecx
  00237	74 10		 je	 SHORT $LN23@TakeOffPar
  00239	8b 01		 mov	 eax, DWORD PTR [ecx]
  0023b	6a 01		 push	 1
  0023d	ff 10		 call	 DWORD PTR [eax]
  0023f	c7 86 ac 2a 00
	00 00 00 00 00	 mov	 DWORD PTR [esi+10924], 0
$LN23@TakeOffPar:

; 545  : 			SAFE_DELETE( m_pm_pPartsEffectElement[0]);

  00249	8b 8e b0 2a 00
	00		 mov	 ecx, DWORD PTR [esi+10928]
  0024f	85 c9		 test	 ecx, ecx
  00251	74 10		 je	 SHORT $LN24@TakeOffPar
  00253	8b 01		 mov	 eax, DWORD PTR [ecx]
  00255	6a 01		 push	 1
  00257	ff 10		 call	 DWORD PTR [eax]
  00259	c7 86 b0 2a 00
	00 00 00 00 00	 mov	 DWORD PTR [esi+10928], 0
$LN24@TakeOffPar:

; 546  : 			SAFE_DELETE( m_pm_pPartsEffectElement[1]);

  00263	8b 8e b4 2a 00
	00		 mov	 ecx, DWORD PTR [esi+10932]
  00269	85 c9		 test	 ecx, ecx
  0026b	74 10		 je	 SHORT $LN25@TakeOffPar
  0026d	8b 01		 mov	 eax, DWORD PTR [ecx]
  0026f	6a 01		 push	 1
  00271	ff 10		 call	 DWORD PTR [eax]
  00273	c7 86 b4 2a 00
	00 00 00 00 00	 mov	 DWORD PTR [esi+10932], 0
$LN25@TakeOffPar:

; 547  : #endif // __NEW_WEAPON_GLOW
; 548  : 			SAFE_DELETE(m_pPartsEffect1_Detail);

  0027d	8b 8e b8 2a 00
	00		 mov	 ecx, DWORD PTR [esi+10936]
  00283	85 c9		 test	 ecx, ecx
  00285	74 10		 je	 SHORT $LN26@TakeOffPar
  00287	8b 01		 mov	 eax, DWORD PTR [ecx]
  00289	6a 01		 push	 1
  0028b	ff 10		 call	 DWORD PTR [eax]
  0028d	c7 86 b8 2a 00
	00 00 00 00 00	 mov	 DWORD PTR [esi+10936], 0
$LN26@TakeOffPar:

; 549  : 			SAFE_DELETE(m_pPartsEffect2_Detail);

  00297	8b 8e bc 2a 00
	00		 mov	 ecx, DWORD PTR [esi+10940]
  0029d	85 c9		 test	 ecx, ecx
  0029f	74 10		 je	 SHORT $LN27@TakeOffPar
  002a1	8b 01		 mov	 eax, DWORD PTR [ecx]
  002a3	6a 01		 push	 1
  002a5	ff 10		 call	 DWORD PTR [eax]
  002a7	c7 86 bc 2a 00
	00 00 00 00 00	 mov	 DWORD PTR [esi+10940], 0
$LN27@TakeOffPar:

; 550  : 			//m_pPartsEffect = m_pPartsEffect2 = NULL;
; 551  : 			// m_pPartsEffect1_Detail = NULL;
; 552  : 			// m_pPartsEffect2_Detail = NULL;
; 553  : 		}
; 554  : 	#endif //__Y_ADV_ENCHANT_EFFECT
; 555  : 
; 556  : 		Init( nIdx );

  002b1	53		 push	 ebx
  002b2	8b ce		 mov	 ecx, esi
  002b4	e8 00 00 00 00	 call	 ?Init@CModelObject@@AAEXH@Z ; CModelObject::Init
$LN17@TakeOffPar:

; 557  : 	}
; 558  : }

  002b9	5e		 pop	 esi
  002ba	5b		 pop	 ebx
  002bb	8b e5		 mov	 esp, ebp
  002bd	5d		 pop	 ebp
  002be	c2 04 00	 ret	 4
?TakeOffParts@CModelObject@@QAEXH@Z ENDP		; CModelObject::TakeOffParts
_TEXT	ENDS
; Function compile flags: /Ogtp
; File C:\IAGOS\server\v18\Source\Source\_Common\modelobject.cpp
;	COMDAT ?SetMotionBlending@CModelObject@@QAEXH@Z
_TEXT	SEGMENT
_bFlag$ = 8						; size = 4
?SetMotionBlending@CModelObject@@QAEXH@Z PROC		; CModelObject::SetMotionBlending, COMDAT
; _this$ = ecx

; 2608 : { 

  00000	55		 push	 ebp
  00001	8b ec		 mov	 ebp, esp

; 2609 : 	if( bFlag == m_bMotionBlending )	return;

  00003	8b 45 08	 mov	 eax, DWORD PTR _bFlag$[ebp]
  00006	3b 81 c0 00 00
	00		 cmp	 eax, DWORD PTR [ecx+192]
  0000c	74 10		 je	 SHORT $LN1@SetMotionB

; 2610 : 	m_bMotionBlending = bFlag;

  0000e	89 81 c0 00 00
	00		 mov	 DWORD PTR [ecx+192], eax

; 2611 : 	m_fBlendWeight = 0.0f;

  00014	c7 81 c4 00 00
	00 00 00 00 00	 mov	 DWORD PTR [ecx+196], 0
$LN1@SetMotionB:

; 2612 : }

  0001e	5d		 pop	 ebp
  0001f	c2 04 00	 ret	 4
?SetMotionBlending@CModelObject@@QAEXH@Z ENDP		; CModelObject::SetMotionBlending
_TEXT	ENDS
; Function compile flags: /Ogtp
; File C:\IAGOS\server\v18\Source\Source\_Common\modelobject.cpp
; File C:\IAGOS\server\v18\Source\Source\_Common\ModelObject.h
; File C:\IAGOS\server\v18\Source\Source\_Common\modelobject.cpp
; File C:\IAGOS\server\v18\Source\Source\_Common\ModelObject.h
; File C:\IAGOS\server\v18\Source\Source\_Common\modelobject.cpp
; File C:\IAGOS\server\v18\Source\Source\_Common\ModelObject.h
; File C:\IAGOS\server\v18\Source\Source\_Common\modelobject.cpp
;	COMDAT ?MovePart@CModelObject@@QAEHHH@Z
_TEXT	SEGMENT
_this$1$ = -4						; size = 4
_nDstPart$ = 8						; size = 4
_nSrcPart$ = 12						; size = 4
?MovePart@CModelObject@@QAEHHH@Z PROC			; CModelObject::MovePart, COMDAT
; _this$ = ecx

; 646  : {

  00000	55		 push	 ebp
  00001	8b ec		 mov	 ebp, esp
  00003	51		 push	 ecx
  00004	53		 push	 ebx
  00005	56		 push	 esi
; File C:\IAGOS\server\v18\Source\Source\_Common\ModelObject.h

; 190  : 		for( int i=0; i<MAX_ELEMENT; i++ )

  00006	8b 75 08	 mov	 esi, DWORD PTR _nDstPart$[ebp]
; File C:\IAGOS\server\v18\Source\Source\_Common\modelobject.cpp

; 646  : {

  00009	8b d9		 mov	 ebx, ecx
  0000b	57		 push	 edi
  0000c	89 5d fc	 mov	 DWORD PTR _this$1$[ebp], ebx
; File C:\IAGOS\server\v18\Source\Source\_Common\ModelObject.h

; 190  : 		for( int i=0; i<MAX_ELEMENT; i++ )

  0000f	33 d2		 xor	 edx, edx
  00011	8b c3		 mov	 eax, ebx
$LL10@MovePart:

; 191  : 		{
; 192  : 			if( m_Element[i].m_nPartsIdx == nParts )

  00013	39 b0 cc 02 00
	00		 cmp	 DWORD PTR [eax+716], esi
  00019	74 0f		 je	 SHORT $LN21@MovePart

; 190  : 		for( int i=0; i<MAX_ELEMENT; i++ )

  0001b	42		 inc	 edx
  0001c	05 fc 01 00 00	 add	 eax, 508		; 000001fcH
  00021	83 fa 15	 cmp	 edx, 21			; 00000015H
  00024	7c ed		 jl	 SHORT $LL10@MovePart

; 194  : 		}
; 195  : 		return NULL; 

  00026	33 ff		 xor	 edi, edi
  00028	eb 06		 jmp	 SHORT $LN7@MovePart
$LN21@MovePart:

; 193  : 				return &(m_Element[i]);

  0002a	8d b8 d4 00 00
	00		 lea	 edi, DWORD PTR [eax+212]
$LN7@MovePart:

; 190  : 		for( int i=0; i<MAX_ELEMENT; i++ )

  00030	8b 55 0c	 mov	 edx, DWORD PTR _nSrcPart$[ebp]
  00033	33 c9		 xor	 ecx, ecx
  00035	8b c3		 mov	 eax, ebx
$LL16@MovePart:

; 191  : 		{
; 192  : 			if( m_Element[i].m_nPartsIdx == nParts )

  00037	39 90 cc 02 00
	00		 cmp	 DWORD PTR [eax+716], edx
  0003d	74 16		 je	 SHORT $LN22@MovePart

; 190  : 		for( int i=0; i<MAX_ELEMENT; i++ )

  0003f	41		 inc	 ecx
  00040	05 fc 01 00 00	 add	 eax, 508		; 000001fcH
  00045	83 f9 15	 cmp	 ecx, 21			; 00000015H
  00048	7c ed		 jl	 SHORT $LL16@MovePart
$LN4@MovePart:
  0004a	5f		 pop	 edi
; File C:\IAGOS\server\v18\Source\Source\_Common\modelobject.cpp

; 666  : }

  0004b	5e		 pop	 esi
  0004c	33 c0		 xor	 eax, eax
  0004e	5b		 pop	 ebx
  0004f	8b e5		 mov	 esp, ebp
  00051	5d		 pop	 ebp
  00052	c2 08 00	 ret	 8
$LN22@MovePart:
; File C:\IAGOS\server\v18\Source\Source\_Common\ModelObject.h

; 193  : 				return &(m_Element[i]);

  00055	8d 98 d4 00 00
	00		 lea	 ebx, DWORD PTR [eax+212]
; File C:\IAGOS\server\v18\Source\Source\_Common\modelobject.cpp

; 650  : 	if( !pDestPart && pSrcPart )

  0005b	85 db		 test	 ebx, ebx
  0005d	74 eb		 je	 SHORT $LN4@MovePart
  0005f	85 ff		 test	 edi, edi
  00061	75 30		 jne	 SHORT $LN29@MovePart

; 651  : 	{
; 652  : 		LoadElement( pSrcPart->m_pObject3D->m_szFileName, nDstPart );

  00063	8b 43 04	 mov	 eax, DWORD PTR [ebx+4]
  00066	8b 4d fc	 mov	 ecx, DWORD PTR _this$1$[ebp]
  00069	05 c0 00 00 00	 add	 eax, 192		; 000000c0H
  0006e	56		 push	 esi
  0006f	50		 push	 eax
  00070	e8 00 00 00 00	 call	 ?LoadElement@CModelObject@@QAEHPBDH@Z ; CModelObject::LoadElement
$LN36@MovePart:

; 666  : }

  00075	68 fc 01 00 00	 push	 508			; 000001fcH
  0007a	6a 00		 push	 0
  0007c	53		 push	 ebx
  0007d	e8 00 00 00 00	 call	 _memset
  00082	83 c4 0c	 add	 esp, 12			; 0000000cH
  00085	b8 01 00 00 00	 mov	 eax, 1
  0008a	5f		 pop	 edi
  0008b	5e		 pop	 esi
  0008c	5b		 pop	 ebx
  0008d	8b e5		 mov	 esp, ebp
  0008f	5d		 pop	 ebp
  00090	c2 08 00	 ret	 8
$LN29@MovePart:

; 653  : 		memset( pSrcPart, 0, sizeof(O3D_ELEMENT) );		// 소스측은 클리어.	
; 654  : 		return 1;
; 655  : 	}
; 656  : 
; 657  : 	if( !pDestPart || !pSrcPart )
; 658  : 		return 0;
; 659  : 
; 660  : 	if( pDestPart->m_pObject3D )

  00093	8b 47 04	 mov	 eax, DWORD PTR [edi+4]
  00096	85 c0		 test	 eax, eax
  00098	74 0f		 je	 SHORT $LN5@MovePart

; 661  : 		Error( "CModelObject::MovePart : m_Element[%d].m_pObject3D == 0x%08x", nDstPart, (int)pDestPart->m_pObject3D );

  0009a	50		 push	 eax
  0009b	56		 push	 esi
  0009c	68 00 00 00 00	 push	 OFFSET ??_C@_0DN@MMEBGEII@CModelObject?3?3MovePart?5?3?5m_Elem@
  000a1	e8 00 00 00 00	 call	 ?Error@@YAPBDPBDZZ	; Error
  000a6	83 c4 0c	 add	 esp, 12			; 0000000cH
$LN5@MovePart:

; 662  : 	
; 663  : 	memcpy( pDestPart, pSrcPart, sizeof(O3D_ELEMENT) );	// 카피하고

