; Listing generated by Microsoft (R) Optimizing Compiler Version 19.44.35225.0 

	TITLE	C:\IAGOS\server\v18\Source\Output\WorldServer\Release\moverbuff.obj
	.686P
	.XMM
	include listing.inc
	.model	flat

INCLUDELIB LIBCMT
INCLUDELIB OLDNAMES

PUBLIC	?__empty_global_delete@@YAXPAX@Z		; __empty_global_delete
PUBLIC	?__empty_global_delete@@YAXPAXI@Z		; __empty_global_delete
PUBLIC	?HasBuff@CMover@@QAEHGG@Z			; CMover::HasBuff
PUBLIC	?RemoveBuff@CMover@@QAEXGG@Z			; CMover::RemoveBuff
PUBLIC	?HasBuffByIk3@CMover@@QAEHK@Z			; CMover::HasBuffByIk3
PUBLIC	?HasPet@CMover@@QAEHXZ				; CMover::HasPet
PUBLIC	?RemovePet@CMover@@QAEXXZ			; CMover::RemovePet
PUBLIC	?GetDisguise@CMover@@QAEKXZ			; CMover::GetDisguise
PUBLIC	?AddBuff@CMover@@QAEHGGKKK@Z			; CMover::AddBuff
PUBLIC	?RemoveCommonBuffs@CMover@@QAEXXZ		; CMover::RemoveCommonBuffs
PUBLIC	?RemoveChrStateBuffs@CMover@@QAEXK@Z		; CMover::RemoveChrStateBuffs
PUBLIC	?RemoveIk3Buffs@CMover@@QAEXK@Z			; CMover::RemoveIk3Buffs
PUBLIC	?RemoveAllBuff@CMover@@QAEXXZ			; CMover::RemoveAllBuff
PUBLIC	?RemoveAttackerBuffs@CMover@@QAEXK@Z		; CMover::RemoveAttackerBuffs
PUBLIC	?RemoveDstParamBuffs@CMover@@QAEXK@Z		; CMover::RemoveDstParamBuffs
PUBLIC	?RemoveDebufBuffs@CMover@@QAEXXZ		; CMover::RemoveDebufBuffs
PUBLIC	?ProcessBuff@CMover@@QAEXXZ			; CMover::ProcessBuff
EXTRN	?Process@CBuffMgr@@QAEXXZ:PROC			; CBuffMgr::Process
EXTRN	?HasBuff@CBuffMgr@@QAEHGG@Z:PROC		; CBuffMgr::HasBuff
EXTRN	?RemoveBuff@CBuffMgr@@QAEXGGH@Z:PROC		; CBuffMgr::RemoveBuff
EXTRN	?HasBuffByIk3@CBuffMgr@@QAEHK@Z:PROC		; CBuffMgr::HasBuffByIk3
EXTRN	?RemoveBuffPet@CBuffMgr@@QAEXXZ:PROC		; CBuffMgr::RemoveBuffPet
EXTRN	?GetBuffPet@CBuffMgr@@QAEPAVIBuff@@XZ:PROC	; CBuffMgr::GetBuffPet
EXTRN	?RemoveBuffs@CBuffMgr@@QAEXKK@Z:PROC		; CBuffMgr::RemoveBuffs
EXTRN	?GetDisguise@CBuffMgr@@QAEKXZ:PROC		; CBuffMgr::GetDisguise
EXTRN	?AddBuff@CBuffMgr@@QAEHGGKKK@Z:PROC		; CBuffMgr::AddBuff
; Function compile flags: /Ogtp
; File C:\IAGOS\server\v18\Source\Source\_Common\moverbuff.cpp
;	COMDAT ?ProcessBuff@CMover@@QAEXXZ
_TEXT	SEGMENT
?ProcessBuff@CMover@@QAEXXZ PROC			; CMover::ProcessBuff, COMDAT
; _this$ = ecx

; 126  : #ifdef __BUFF_1107
; 127  : 	m_buffs.Process();

  00000	81 c1 ec 02 00
	00		 add	 ecx, 748		; 000002ecH
  00006	e9 00 00 00 00	 jmp	 ?Process@CBuffMgr@@QAEXXZ ; CBuffMgr::Process
?ProcessBuff@CMover@@QAEXXZ ENDP			; CMover::ProcessBuff
_TEXT	ENDS
; Function compile flags: /Ogtp
; File C:\IAGOS\server\v18\Source\Source\_Common\moverbuff.cpp
;	COMDAT ?RemoveDebufBuffs@CMover@@QAEXXZ
_TEXT	SEGMENT
?RemoveDebufBuffs@CMover@@QAEXXZ PROC			; CMover::RemoveDebufBuffs, COMDAT
; _this$ = ecx

; 155  : #ifdef __BUFF_1107
; 156  : 	m_buffs.RemoveBuffs( RBF_DEBUF );

  00000	6a 00		 push	 0
  00002	6a 20		 push	 32			; 00000020H
  00004	81 c1 ec 02 00
	00		 add	 ecx, 748		; 000002ecH
  0000a	e8 00 00 00 00	 call	 ?RemoveBuffs@CBuffMgr@@QAEXKK@Z ; CBuffMgr::RemoveBuffs

; 157  : #else	// __BUFF_1107
; 158  : 	m_SkillState.RemoveAllSkillDebuff();
; 159  : #endif	// __BUFF_1107
; 160  : }

  0000f	c3		 ret	 0
?RemoveDebufBuffs@CMover@@QAEXXZ ENDP			; CMover::RemoveDebufBuffs
_TEXT	ENDS
; Function compile flags: /Ogtp
; File C:\IAGOS\server\v18\Source\Source\_Common\moverbuff.cpp
;	COMDAT ?RemoveDstParamBuffs@CMover@@QAEXK@Z
_TEXT	SEGMENT
_dwDstParam$ = 8					; size = 4
?RemoveDstParamBuffs@CMover@@QAEXK@Z PROC		; CMover::RemoveDstParamBuffs, COMDAT
; _this$ = ecx

; 145  : {

  00000	55		 push	 ebp
  00001	8b ec		 mov	 ebp, esp

; 146  : #ifdef __BUFF_1107
; 147  : 	m_buffs.RemoveBuffs( RBF_DSTPARAM, dwDstParam );

  00003	ff 75 08	 push	 DWORD PTR _dwDstParam$[ebp]
  00006	81 c1 ec 02 00
	00		 add	 ecx, 748		; 000002ecH
  0000c	6a 10		 push	 16			; 00000010H
  0000e	e8 00 00 00 00	 call	 ?RemoveBuffs@CBuffMgr@@QAEXKK@Z ; CBuffMgr::RemoveBuffs

; 148  : #else	// __BUFF_1107
; 149  : 	m_SkillState.RemoveSkillInfluenceDestParam( dwDstParam );
; 150  : #endif	// __BUFF_1107
; 151  : }

  00013	5d		 pop	 ebp
  00014	c2 04 00	 ret	 4
?RemoveDstParamBuffs@CMover@@QAEXK@Z ENDP		; CMover::RemoveDstParamBuffs
_TEXT	ENDS
; Function compile flags: /Ogtp
; File C:\IAGOS\server\v18\Source\Source\_Common\moverbuff.cpp
;	COMDAT ?RemoveAttackerBuffs@CMover@@QAEXK@Z
_TEXT	SEGMENT
_oiAttacker$ = 8					; size = 4
?RemoveAttackerBuffs@CMover@@QAEXK@Z PROC		; CMover::RemoveAttackerBuffs, COMDAT
; _this$ = ecx

; 134  : {

  00000	55		 push	 ebp
  00001	8b ec		 mov	 ebp, esp

; 135  : #ifdef __BUFF_1107
; 136  : 	m_buffs.RemoveBuffs( RBF_ATTACKER, oiAttacker );

  00003	ff 75 08	 push	 DWORD PTR _oiAttacker$[ebp]
  00006	81 c1 ec 02 00
	00		 add	 ecx, 748		; 000002ecH
  0000c	6a 40		 push	 64			; 00000040H
  0000e	e8 00 00 00 00	 call	 ?RemoveBuffs@CBuffMgr@@QAEXKK@Z ; CBuffMgr::RemoveBuffs

; 137  : #else	// __BUFF_1107
; 138  : 	#ifdef __PVPDEBUFSKILL
; 139  : 	m_SkillState.RemoveSkillInfluenceFromID( oiAttacker );
; 140  : 	#endif // __PVPDEBUFSKILL
; 141  : #endif	// __BUFF_1107
; 142  : }

  00013	5d		 pop	 ebp
  00014	c2 04 00	 ret	 4
?RemoveAttackerBuffs@CMover@@QAEXK@Z ENDP		; CMover::RemoveAttackerBuffs
_TEXT	ENDS
; Function compile flags: /Ogtp
; File C:\IAGOS\server\v18\Source\Source\_Common\moverbuff.cpp
;	COMDAT ?RemoveAllBuff@CMover@@QAEXXZ
_TEXT	SEGMENT
?RemoveAllBuff@CMover@@QAEXXZ PROC			; CMover::RemoveAllBuff, COMDAT
; _this$ = ecx

; 117  : #ifdef __BUFF_1107
; 118  : 	m_buffs.RemoveBuffs( RBF_UNCONDITIONAL );

  00000	6a 00		 push	 0
  00002	68 00 00 00 01	 push	 16777216		; 01000000H
  00007	81 c1 ec 02 00
	00		 add	 ecx, 748		; 000002ecH
  0000d	e8 00 00 00 00	 call	 ?RemoveBuffs@CBuffMgr@@QAEXKK@Z ; CBuffMgr::RemoveBuffs

; 119  : #else	// __BUFF_1107
; 120  : 	m_SkillState.RemoveAllBuff();
; 121  : #endif	// __BUFF_1107
; 122  : }

  00012	c3		 ret	 0
?RemoveAllBuff@CMover@@QAEXXZ ENDP			; CMover::RemoveAllBuff
_TEXT	ENDS
; Function compile flags: /Ogtp
; File C:\IAGOS\server\v18\Source\Source\_Common\moverbuff.cpp
;	COMDAT ?RemoveIk3Buffs@CMover@@QAEXK@Z
_TEXT	SEGMENT
_dwIk3$ = 8						; size = 4
?RemoveIk3Buffs@CMover@@QAEXK@Z PROC			; CMover::RemoveIk3Buffs, COMDAT
; _this$ = ecx

; 107  : {

  00000	55		 push	 ebp
  00001	8b ec		 mov	 ebp, esp

; 108  : #ifdef __BUFF_1107
; 109  : 	m_buffs.RemoveBuffs( RBF_IK3, dwIk3 );

  00003	ff 75 08	 push	 DWORD PTR _dwIk3$[ebp]
  00006	81 c1 ec 02 00
	00		 add	 ecx, 748		; 000002ecH
  0000c	6a 02		 push	 2
  0000e	e8 00 00 00 00	 call	 ?RemoveBuffs@CBuffMgr@@QAEXKK@Z ; CBuffMgr::RemoveBuffs

; 110  : #else	// __BUFF_1107
; 111  : 	m_SkillState.RemoveLikeItemBuf( dwIk3 );
; 112  : #endif	// __BUFF_1107
; 113  : }

  00013	5d		 pop	 ebp
  00014	c2 04 00	 ret	 4
?RemoveIk3Buffs@CMover@@QAEXK@Z ENDP			; CMover::RemoveIk3Buffs
_TEXT	ENDS
; Function compile flags: /Ogtp
; File C:\IAGOS\server\v18\Source\Source\_Common\moverbuff.cpp
;	COMDAT ?RemoveChrStateBuffs@CMover@@QAEXK@Z
_TEXT	SEGMENT
_dwChrState$ = 8					; size = 4
?RemoveChrStateBuffs@CMover@@QAEXK@Z PROC		; CMover::RemoveChrStateBuffs, COMDAT
; _this$ = ecx

; 98   : {

  00000	55		 push	 ebp
  00001	8b ec		 mov	 ebp, esp

; 99   : #ifdef __BUFF_1107
; 100  : 	m_buffs.RemoveBuffs( RBF_CHRSTATE, dwChrState );

  00003	ff 75 08	 push	 DWORD PTR _dwChrState$[ebp]
  00006	81 c1 ec 02 00
	00		 add	 ecx, 748		; 000002ecH
  0000c	6a 08		 push	 8
  0000e	e8 00 00 00 00	 call	 ?RemoveBuffs@CBuffMgr@@QAEXKK@Z ; CBuffMgr::RemoveBuffs

; 101  : #else	// __BUFF_1107
; 102  : 	m_SkillState.RemoveSkillInfluenceState( dwChrState );
; 103  : #endif	// __BUFF_1107
; 104  : }

  00013	5d		 pop	 ebp
  00014	c2 04 00	 ret	 4
?RemoveChrStateBuffs@CMover@@QAEXK@Z ENDP		; CMover::RemoveChrStateBuffs
_TEXT	ENDS
; Function compile flags: /Ogtp
; File C:\IAGOS\server\v18\Source\Source\_Common\moverbuff.cpp
;	COMDAT ?RemoveCommonBuffs@CMover@@QAEXXZ
_TEXT	SEGMENT
?RemoveCommonBuffs@CMover@@QAEXXZ PROC			; CMover::RemoveCommonBuffs, COMDAT
; _this$ = ecx

; 79   : #ifdef __BUFF_1107
; 80   : 	m_buffs.RemoveBuffs( RBF_COMMON );

  00000	6a 00		 push	 0
  00002	6a 01		 push	 1
  00004	81 c1 ec 02 00
	00		 add	 ecx, 748		; 000002ecH
  0000a	e8 00 00 00 00	 call	 ?RemoveBuffs@CBuffMgr@@QAEXKK@Z ; CBuffMgr::RemoveBuffs

; 81   : #else	// __BUFF_1107
; 82   : 	m_SkillState.RemoveAllSkillInfluence();
; 83   : #endif	// __BUFF_1107
; 84   : }

  0000f	c3		 ret	 0
?RemoveCommonBuffs@CMover@@QAEXXZ ENDP			; CMover::RemoveCommonBuffs
_TEXT	ENDS
; Function compile flags: /Ogtp
; File C:\IAGOS\server\v18\Source\Source\_Common\moverbuff.cpp
;	COMDAT ?AddBuff@CMover@@QAEHGGKKK@Z
_TEXT	SEGMENT
_wType$ = 8						; size = 2
_wId$ = 12						; size = 2
_dwLevel$ = 16						; size = 4
_tmTime$ = 20						; size = 4
_oiAttacker$ = 24					; size = 4
?AddBuff@CMover@@QAEHGGKKK@Z PROC			; CMover::AddBuff, COMDAT
; _this$ = ecx

; 65   : {

  00000	55		 push	 ebp
  00001	8b ec		 mov	 ebp, esp

; 66   : #ifdef __BUFF_1107
; 67   : 	return m_buffs.AddBuff( wType, wId, dwLevel, tmTime, oiAttacker );

  00003	81 c1 ec 02 00
	00		 add	 ecx, 748		; 000002ecH

; 68   : #else	// __BUFF_1107
; 69   : 	#ifdef __PVPDEBUFSKILL
; 70   : 	return m_SkillState.Set( wType, wId, dwLevel, tmTime, oiAttacker );
; 71   : 	#else // __PVPDEBUFSKILL
; 72   : 	return m_SkillState.Set( wType, wId, dwLevel, tmTime );
; 73   : 	#endif // __PVPDEBUFSKILL
; 74   : #endif	// __BUFF_1107
; 75   : }

  00009	5d		 pop	 ebp

; 66   : #ifdef __BUFF_1107
; 67   : 	return m_buffs.AddBuff( wType, wId, dwLevel, tmTime, oiAttacker );

  0000a	e9 00 00 00 00	 jmp	 ?AddBuff@CBuffMgr@@QAEHGGKKK@Z ; CBuffMgr::AddBuff
?AddBuff@CMover@@QAEHGGKKK@Z ENDP			; CMover::AddBuff
_TEXT	ENDS
; Function compile flags: /Ogtp
; File C:\IAGOS\server\v18\Source\Source\_Common\moverbuff.cpp
;	COMDAT ?GetDisguise@CMover@@QAEKXZ
_TEXT	SEGMENT
?GetDisguise@CMover@@QAEKXZ PROC			; CMover::GetDisguise, COMDAT
; _this$ = ecx

; 53   : #ifdef __BUFF_1107
; 54   : 	return m_buffs.GetDisguise();

  00000	81 c1 ec 02 00
	00		 add	 ecx, 748		; 000002ecH
  00006	e9 00 00 00 00	 jmp	 ?GetDisguise@CBuffMgr@@QAEKXZ ; CBuffMgr::GetDisguise
?GetDisguise@CMover@@QAEKXZ ENDP			; CMover::GetDisguise
_TEXT	ENDS
; Function compile flags: /Ogtp
; File C:\IAGOS\server\v18\Source\Source\_Common\moverbuff.cpp
;	COMDAT ?RemovePet@CMover@@QAEXXZ
_TEXT	SEGMENT
?RemovePet@CMover@@QAEXXZ PROC				; CMover::RemovePet, COMDAT
; _this$ = ecx

; 43   : #ifdef __BUFF_1107
; 44   : 	m_buffs.RemoveBuffPet();

  00000	81 c1 ec 02 00
	00		 add	 ecx, 748		; 000002ecH
  00006	e9 00 00 00 00	 jmp	 ?RemoveBuffPet@CBuffMgr@@QAEXXZ ; CBuffMgr::RemoveBuffPet
?RemovePet@CMover@@QAEXXZ ENDP				; CMover::RemovePet
_TEXT	ENDS
; Function compile flags: /Ogtp
; File C:\IAGOS\server\v18\Source\Source\_Common\moverbuff.cpp
; File C:\IAGOS\server\v18\Source\Source\_Common\buff.h
; File C:\IAGOS\server\v18\Source\Source\_Common\moverbuff.cpp
;	COMDAT ?HasPet@CMover@@QAEHXZ
_TEXT	SEGMENT
?HasPet@CMover@@QAEHXZ PROC				; CMover::HasPet, COMDAT
; _this$ = ecx

; 34   : #ifdef __BUFF_1107
; 35   : 	return m_buffs.HasPet();

  00000	81 c1 ec 02 00
	00		 add	 ecx, 748		; 000002ecH
; File C:\IAGOS\server\v18\Source\Source\_Common\buff.h

; 225  : 	BOOL	HasPet()	{	return GetBuffPet() != NULL;	}

  00006	e8 00 00 00 00	 call	 ?GetBuffPet@CBuffMgr@@QAEPAVIBuff@@XZ ; CBuffMgr::GetBuffPet
  0000b	f7 d8		 neg	 eax
  0000d	1b c0		 sbb	 eax, eax
  0000f	f7 d8		 neg	 eax
; File C:\IAGOS\server\v18\Source\Source\_Common\moverbuff.cpp

; 39   : }

  00011	c3		 ret	 0
?HasPet@CMover@@QAEHXZ ENDP				; CMover::HasPet
_TEXT	ENDS
; Function compile flags: /Ogtp
; File C:\IAGOS\server\v18\Source\Source\_Common\moverbuff.cpp
;	COMDAT ?HasBuffByIk3@CMover@@QAEHK@Z
_TEXT	SEGMENT
_dwIk3$ = 8						; size = 4
?HasBuffByIk3@CMover@@QAEHK@Z PROC			; CMover::HasBuffByIk3, COMDAT
; _this$ = ecx

; 23   : {

  00000	55		 push	 ebp
  00001	8b ec		 mov	 ebp, esp

; 24   : #ifdef __BUFF_1107
; 25   : 	return m_buffs.HasBuffByIk3( dwIk3 );

  00003	81 c1 ec 02 00
	00		 add	 ecx, 748		; 000002ecH

; 26   : #else	// __BUFF_1107
; 27   : 	return m_SkillState.HasLikeItemBuf( dwIk3 );
; 28   : #endif	// __BUFF_1107
; 29   : }

  00009	5d		 pop	 ebp

; 24   : #ifdef __BUFF_1107
; 25   : 	return m_buffs.HasBuffByIk3( dwIk3 );

  0000a	e9 00 00 00 00	 jmp	 ?HasBuffByIk3@CBuffMgr@@QAEHK@Z ; CBuffMgr::HasBuffByIk3
?HasBuffByIk3@CMover@@QAEHK@Z ENDP			; CMover::HasBuffByIk3
_TEXT	ENDS
; Function compile flags: /Ogtp
; File C:\IAGOS\server\v18\Source\Source\_Common\moverbuff.cpp
;	COMDAT ?RemoveBuff@CMover@@QAEXGG@Z
_TEXT	SEGMENT
_wType$ = 8						; size = 2
_wId$ = 12						; size = 2
?RemoveBuff@CMover@@QAEXGG@Z PROC			; CMover::RemoveBuff, COMDAT
; _this$ = ecx

; 14   : {

  00000	55		 push	 ebp
  00001	8b ec		 mov	 ebp, esp

; 15   : #ifdef __BUFF_1107
; 16   : 	m_buffs.RemoveBuff( wType, wId );

  00003	6a 01		 push	 1
  00005	ff 75 0c	 push	 DWORD PTR _wId$[ebp]
  00008	81 c1 ec 02 00
	00		 add	 ecx, 748		; 000002ecH
  0000e	ff 75 08	 push	 DWORD PTR _wType$[ebp]
  00011	e8 00 00 00 00	 call	 ?RemoveBuff@CBuffMgr@@QAEXGGH@Z ; CBuffMgr::RemoveBuff

; 17   : #else	// __BUFF_1107
; 18   : 	m_SkillState.RemoveSkillInfluence( wType, wId );
; 19   : #endif	// __BUFF_1107
; 20   : }

  00016	5d		 pop	 ebp
  00017	c2 08 00	 ret	 8
?RemoveBuff@CMover@@QAEXGG@Z ENDP			; CMover::RemoveBuff
_TEXT	ENDS
; Function compile flags: /Ogtp
; File C:\IAGOS\server\v18\Source\Source\_Common\moverbuff.cpp
;	COMDAT ?HasBuff@CMover@@QAEHGG@Z
_TEXT	SEGMENT
_wType$ = 8						; size = 2
_wId$ = 12						; size = 2
?HasBuff@CMover@@QAEHGG@Z PROC				; CMover::HasBuff, COMDAT
; _this$ = ecx

; 5    : {

  00000	55		 push	 ebp
  00001	8b ec		 mov	 ebp, esp

; 6    : #ifdef __BUFF_1107
; 7    : 	return m_buffs.HasBuff( wType, wId );

  00003	81 c1 ec 02 00
	00		 add	 ecx, 748		; 000002ecH

; 8    : #else	// __BUFF_1107
; 9    : 	return m_SkillState.HasSkill( wType, wId );
; 10   : #endif	// __BUFF_1107
; 11   : }

  00009	5d		 pop	 ebp

; 6    : #ifdef __BUFF_1107
; 7    : 	return m_buffs.HasBuff( wType, wId );

  0000a	e9 00 00 00 00	 jmp	 ?HasBuff@CBuffMgr@@QAEHGG@Z ; CBuffMgr::HasBuff
?HasBuff@CMover@@QAEHGG@Z ENDP				; CMover::HasBuff
_TEXT	ENDS
; Function compile flags: /Ogtp
; File C:\IAGOS\server\v18\Source\Source\_Common\moverbuff.cpp
;	COMDAT ?__empty_global_delete@@YAXPAXI@Z
_TEXT	SEGMENT
___formal$ = 8						; size = 4
___formal$ = 12						; size = 4
?__empty_global_delete@@YAXPAXI@Z PROC			; __empty_global_delete, COMDAT

  00000	c2 00 00	 ret	 0
?__empty_global_delete@@YAXPAXI@Z ENDP			; __empty_global_delete
_TEXT	ENDS
; Function compile flags: /Ogtp
; File C:\IAGOS\server\v18\Source\Source\_Common\moverbuff.cpp
;	COMDAT ?__empty_global_delete@@YAXPAX@Z
_TEXT	SEGMENT
___formal$ = 8						; size = 4
?__empty_global_delete@@YAXPAX@Z PROC			; __empty_global_delete, COMDAT

  00000	c2 00 00	 ret	 0
?__empty_global_delete@@YAXPAX@Z ENDP			; __empty_global_delete
_TEXT	ENDS
END
