; Listing generated by Microsoft (R) Optimizing Compiler Version 19.44.35225.0 

	TITLE	C:\IAGOS\server\v18\Source\Output\WorldServer\Release\MoverParam.obj
	.686P
	.XMM
	include listing.inc
	.model	flat

INCLUDELIB LIBCMT
INCLUDELIB OLDNAMES

CONST	SEGMENT
?piecewise_construct@std@@3Upiecewise_construct_t@1@B	ORG $+1 ; std::piecewise_construct
CONST	ENDS
PUBLIC	?__empty_global_delete@@YAXPAX@Z		; __empty_global_delete
PUBLIC	?__empty_global_delete@@YAXPAXI@Z		; __empty_global_delete
PUBLIC	___local_stdio_printf_options
PUBLIC	_sprintf
PUBLIC	??0exception@std@@QAE@ABV01@@Z			; std::exception::exception
PUBLIC	??1exception@std@@UAE@XZ			; std::exception::~exception
PUBLIC	?what@exception@std@@UBEPBDXZ			; std::exception::what
PUBLIC	??_Gexception@std@@UAEPAXI@Z			; std::exception::`scalar deleting destructor'
PUBLIC	??0bad_alloc@std@@QAE@ABV01@@Z			; std::bad_alloc::bad_alloc
PUBLIC	??_Gbad_alloc@std@@UAEPAXI@Z			; std::bad_alloc::`scalar deleting destructor'
PUBLIC	??0bad_array_new_length@std@@QAE@XZ		; std::bad_array_new_length::bad_array_new_length
PUBLIC	??1bad_array_new_length@std@@UAE@XZ		; std::bad_array_new_length::~bad_array_new_length
PUBLIC	??0bad_array_new_length@std@@QAE@ABV01@@Z	; std::bad_array_new_length::bad_array_new_length
PUBLIC	??_Gbad_array_new_length@std@@UAEPAXI@Z		; std::bad_array_new_length::`scalar deleting destructor'
PUBLIC	?_Throw_bad_array_new_length@std@@YAXXZ		; std::_Throw_bad_array_new_length
PUBLIC	?GetItemProp@CProject@@QAEPAUItemProp@@H@Z	; CProject::GetItemProp
PUBLIC	?GetSkillProp@CProject@@QAEPAUItemProp@@H@Z	; CProject::GetSkillProp
PUBLIC	?_Xlength@?$vector@JV?$allocator@J@std@@@std@@CAXXZ ; std::vector<long,std::allocator<long> >::_Xlength
PUBLIC	?GetAtId@?$CItemContainer@VCItemElem@@@@QAEPAVCItemElem@@K@Z ; CItemContainer<CItemElem>::GetAtId
PUBLIC	?GetItemEnduranceInfluence@CMover@@SAMH@Z	; CMover::GetItemEnduranceInfluence
PUBLIC	?GetItemEnduranceWeight@CMover@@SAHH@Z		; CMover::GetItemEnduranceWeight
PUBLIC	?GetMaxPoint@CMover@@QAEHH@Z			; CMover::GetMaxPoint
PUBLIC	?SetDarkCover@CMover@@QAEHHK@Z			; CMover::SetDarkCover
PUBLIC	?SetStun@CMover@@QAEHHK@Z			; CMover::SetStun
PUBLIC	?SetPoison@CMover@@QAEHHKKKF@Z			; CMover::SetPoison
PUBLIC	?SetDark@CMover@@QAEHHKH@Z			; CMover::SetDark
PUBLIC	?SetBleeding@CMover@@QAEHHKKKF@Z		; CMover::SetBleeding
PUBLIC	?RemoveDebuff@CMover@@QAEXK@Z			; CMover::RemoveDebuff
PUBLIC	?RemoveBuffOne@CMover@@QAEXK@Z			; CMover::RemoveBuffOne
PUBLIC	?RemoveBuffAll@CMover@@QAEXXZ			; CMover::RemoveBuffAll
PUBLIC	?SetEquipDstParam@CMover@@QAEXXZ		; CMover::SetEquipDstParam
PUBLIC	?SumEquipAdjValue@CMover@@QAEXPAH0@Z		; CMover::SumEquipAdjValue
PUBLIC	?SumEquipDefenseAbility@CMover@@QAEHPAJ0@Z	; CMover::SumEquipDefenseAbility
PUBLIC	?FindQuest@CMover@@QAEPAUtagQuest@@H@Z		; CMover::FindQuest
PUBLIC	?GetQuest@CMover@@QAEPAUtagQuest@@H@Z		; CMover::GetQuest
PUBLIC	?RemoveQuest@CMover@@QAEHH@Z			; CMover::RemoveQuest
PUBLIC	?IsCompleteQuest@CMover@@QAEHH@Z		; CMover::IsCompleteQuest
PUBLIC	?MakeCompleteQuest@CMover@@QAEHHPAUtagQuest@@@Z	; CMover::MakeCompleteQuest
PUBLIC	?SetQuest@CMover@@QAEHHHPAUtagQuest@@@Z		; CMover::SetQuest
PUBLIC	?SetQuest@CMover@@QAEHPAUtagQuest@@@Z		; CMover::SetQuest
PUBLIC	?RemoveAllQuest@CMover@@QAEXXZ			; CMover::RemoveAllQuest
PUBLIC	?RemoveCompleteQuest@CMover@@QAEXXZ		; CMover::RemoveCompleteQuest
PUBLIC	?UpdateParam@CMover@@QAEXXZ			; CMover::UpdateParam
PUBLIC	?GetParam@CMover@@QAEHHH@Z			; CMover::GetParam
PUBLIC	?SetDestParam@CMover@@QAEXHHHH@Z		; CMover::SetDestParam
PUBLIC	?SetDestParam@CMover@@QAEXHH@Z			; CMover::SetDestParam
PUBLIC	?SetDestParam@CMover@@QAEXHPAUItemProp@@H@Z	; CMover::SetDestParam
PUBLIC	?ResetDestParam@CMover@@QAEXHHH@Z		; CMover::ResetDestParam
PUBLIC	?ResetDestParamSync@CMover@@QAEXHHHH@Z		; CMover::ResetDestParamSync
PUBLIC	?ResetDestParam@CMover@@QAEXHPAUItemProp@@H@Z	; CMover::ResetDestParam
PUBLIC	?GetAdjParam@CMover@@QAEHH@Z			; CMover::GetAdjParam
PUBLIC	?GetChgParam@CMover@@QAEHH@Z			; CMover::GetChgParam
PUBLIC	?GetPointParam@CMover@@QAEHH@Z			; CMover::GetPointParam
PUBLIC	?SetPointParam@CMover@@QAEXHHH@Z		; CMover::SetPointParam
PUBLIC	?GetSkill@CMover@@QAEPAUtagSkill@@HH@Z		; CMover::GetSkill
PUBLIC	?GetSkill@CMover@@QAEPAUtagSkill@@K@Z		; CMover::GetSkill
PUBLIC	?GetSkillIdx@CMover@@QAEHK@Z			; CMover::GetSkillIdx
PUBLIC	?CheckSkill@CMover@@QAEHK@Z			; CMover::CheckSkill
PUBLIC	?IsBaseJob@CMover@@QAEHXZ			; CMover::IsBaseJob
PUBLIC	?IsExpert@CMover@@QAEHXZ			; CMover::IsExpert
PUBLIC	?IsPro@CMover@@QAEHXZ				; CMover::IsPro
PUBLIC	?IsInteriorityJob@CMover@@QAEHH@Z		; CMover::IsInteriorityJob
PUBLIC	?SetExpert@CMover@@QAEHH@Z			; CMover::SetExpert
PUBLIC	?AddChangeJob@CMover@@QAEHH@Z			; CMover::AddChangeJob
PUBLIC	?GetJob@CMover@@QAEHXZ				; CMover::GetJob
PUBLIC	?GetExpPercent@CMover@@QAEHXZ			; CMover::GetExpPercent
PUBLIC	?IsJobType@CMover@@QAEHK@Z			; CMover::IsJobType
PUBLIC	?GetRemainGP@CMover@@QAEHXZ			; CMover::GetRemainGP
PUBLIC	?IncHitPoint@CMover@@QAEXH@Z			; CMover::IncHitPoint
PUBLIC	?IncManaPoint@CMover@@QAEXH@Z			; CMover::IncManaPoint
PUBLIC	?IncFatiguePoint@CMover@@QAEXH@Z		; CMover::IncFatiguePoint
PUBLIC	?SetHitPoint@CMover@@QAEXH@Z			; CMover::SetHitPoint
PUBLIC	?SetManaPoint@CMover@@QAEXH@Z			; CMover::SetManaPoint
PUBLIC	?SetFatiguePoint@CMover@@QAEXH@Z		; CMover::SetFatiguePoint
PUBLIC	?GetExpFactor@CMover@@QAEMXZ			; CMover::GetExpFactor
PUBLIC	?GetItemDropRateFactor@CMover@@QAEMPAV1@@Z	; CMover::GetItemDropRateFactor
PUBLIC	?GetPieceItemDropRateFactor@CMover@@QAEMPAV1@@Z	; CMover::GetPieceItemDropRateFactor
PUBLIC	?AddExperience@CMover@@QAEH_JHHH@Z		; CMover::AddExperience
PUBLIC	?DecExperience@CMover@@QAEH_JHH@Z		; CMover::DecExperience
PUBLIC	?DecExperiencePercent@CMover@@QAEHMHH@Z		; CMover::DecExperiencePercent
PUBLIC	?AddFxp@CMover@@QAEHH@Z				; CMover::AddFxp
PUBLIC	?SetFxp@CMover@@QAEHHH@Z			; CMover::SetFxp
PUBLIC	?IncStrLevel@CMover@@QAEHXZ			; CMover::IncStrLevel
PUBLIC	?IncStaLevel@CMover@@QAEHXZ			; CMover::IncStaLevel
PUBLIC	?IncDexLevel@CMover@@QAEHXZ			; CMover::IncDexLevel
PUBLIC	?IncIntLevel@CMover@@QAEHXZ			; CMover::IncIntLevel
PUBLIC	?GetStr@CMover@@QAEHXZ				; CMover::GetStr
PUBLIC	?GetDex@CMover@@QAEHXZ				; CMover::GetDex
PUBLIC	?GetInt@CMover@@QAEHXZ				; CMover::GetInt
PUBLIC	?GetSta@CMover@@QAEHXZ				; CMover::GetSta
PUBLIC	?GetSpeed@CMover@@QAEMM@Z			; CMover::GetSpeed
PUBLIC	?GetHitPointPercent@CMover@@QAEHH@Z		; CMover::GetHitPointPercent
PUBLIC	?GetManaPointPercent@CMover@@QAEHH@Z		; CMover::GetManaPointPercent
PUBLIC	?GetFatiguePointPercent@CMover@@QAEHH@Z		; CMover::GetFatiguePointPercent
PUBLIC	?GetHitPoint@CMover@@QAEHXZ			; CMover::GetHitPoint
PUBLIC	?GetManaPoint@CMover@@QAEHXZ			; CMover::GetManaPoint
PUBLIC	?GetFatiguePoint@CMover@@QAEHXZ			; CMover::GetFatiguePoint
PUBLIC	?GetMaxHitPoint@CMover@@QAEHXZ			; CMover::GetMaxHitPoint
PUBLIC	?GetMaxManaPoint@CMover@@QAEHXZ			; CMover::GetMaxManaPoint
PUBLIC	?GetMaxFatiguePoint@CMover@@QAEHXZ		; CMover::GetMaxFatiguePoint
PUBLIC	?GetMaxOriginHitPoint@CMover@@QAEHH@Z		; CMover::GetMaxOriginHitPoint
PUBLIC	?GetMaxOriginManaPoint@CMover@@QAEHH@Z		; CMover::GetMaxOriginManaPoint
PUBLIC	?GetMaxOriginFatiguePoint@CMover@@QAEHH@Z	; CMover::GetMaxOriginFatiguePoint
PUBLIC	?GetHPRecovery@CMover@@QAEHXZ			; CMover::GetHPRecovery
PUBLIC	?GetMPRecovery@CMover@@QAEHXZ			; CMover::GetMPRecovery
PUBLIC	?GetFPRecovery@CMover@@QAEHXZ			; CMover::GetFPRecovery
PUBLIC	?GetNaturalArmor@CMover@@QAEHXZ			; CMover::GetNaturalArmor
PUBLIC	?GetAdjHitRate@CMover@@QAEHXZ			; CMover::GetAdjHitRate
PUBLIC	?GetParrying@CMover@@QAEHXZ			; CMover::GetParrying
PUBLIC	?GetResistMagic@CMover@@QAEHXZ			; CMover::GetResistMagic
PUBLIC	?GetResistSpell@CMover@@QAEHH@Z			; CMover::GetResistSpell
PUBLIC	?GetItemAbility@CMover@@QAEHH@Z			; CMover::GetItemAbility
PUBLIC	?GetItemAbilityMin@CMover@@QAEHH@Z		; CMover::GetItemAbilityMin
PUBLIC	?GetItemAbilityMax@CMover@@QAEHH@Z		; CMover::GetItemAbilityMax
PUBLIC	?UpdateItem@CMover@@QAEXEDKK@Z			; CMover::UpdateItem
PUBLIC	?UpdateItemEx@CMover@@QAEXED_J@Z		; CMover::UpdateItemEx
PUBLIC	?GetItemNum@CMover@@QAEHK@Z			; CMover::GetItemNum
PUBLIC	?RemoveAllItem@CMover@@QAEHK@Z			; CMover::RemoveAllItem
PUBLIC	?OnTradeRemoveUser@CMover@@QAEXXZ		; CMover::OnTradeRemoveUser
PUBLIC	?ChangeFame@CMover@@QAEXPAV1@@Z			; CMover::ChangeFame
PUBLIC	?DuelResult@CMover@@QAEHPAV1@@Z			; CMover::DuelResult
PUBLIC	?BehaviorActionForceSet@CMover@@QAEXXZ		; CMover::BehaviorActionForceSet
PUBLIC	?ActionForceSet@CMover@@QAEXAAUD3DXVECTOR3@@0MKKHHHK@Z ; CMover::ActionForceSet
PUBLIC	?ActionForceSet2@CMover@@QAEXAAUD3DXVECTOR3@@0MMMMKKHHHK@Z ; CMover::ActionForceSet2
PUBLIC	?HalfForceSet@CMover@@QAEXAAUD3DXVECTOR3@@0MMMM@Z ; CMover::HalfForceSet
PUBLIC	?PutLvUpSkillName_1@CMover@@QAEXK@Z		; CMover::PutLvUpSkillName_1
PUBLIC	?PutLvUpSkillName_2@CMover@@QAEXK@Z		; CMover::PutLvUpSkillName_2
PUBLIC	?GetLegendChar@CMover@@QAEEXZ			; CMover::GetLegendChar
PUBLIC	?IsMaster@CMover@@QAEHXZ			; CMover::IsMaster
PUBLIC	?IsHero@CMover@@QAEHXZ				; CMover::IsHero
PUBLIC	?IsLegendHero@CMover@@QAEHXZ			; CMover::IsLegendHero
PUBLIC	?RemoveItemA@CMover@@QAEHKF@Z			; CMover::RemoveItemA
PUBLIC	?Abrade@CMover@@QAEXPAV1@H@Z			; CMover::Abrade
PUBLIC	?GetRandomPartsAbraded@CMover@@QAEKXZ		; CMover::GetRandomPartsAbraded
PUBLIC	?GetSummonState@CMover@@QAEHXZ			; CMover::GetSummonState
PUBLIC	?SetExperience@CMover@@QAEH_JH@Z		; CMover::SetExperience
PUBLIC	?__SetQuest@CMover@@AAEHPAUtagQuest@@0@Z	; CMover::__SetQuest
PUBLIC	??$_Resize@J@?$vector@JV?$allocator@J@std@@@std@@AAEXIABJ@Z ; std::vector<long,std::allocator<long> >::_Resize<long>
PUBLIC	??$_Uninitialized_fill_n@V?$allocator@J@std@@@std@@YAPAJPAJIABJAAV?$allocator@J@0@@Z ; std::_Uninitialized_fill_n<std::allocator<long> >
PUBLIC	??$_Is_all_bits_zero@J@std@@YA_NABJ@Z		; std::_Is_all_bits_zero<long>
PUBLIC	??$_Fill_zero_memset@PAJ@std@@YAXPAJI@Z		; std::_Fill_zero_memset<long *>
PUBLIC	??$_Copy_memmove@PAJPAJ@std@@YAPAJPAJ00@Z	; std::_Copy_memmove<long *,long *>
PUBLIC	??$_Copy_memmove_tail@PAJ@std@@YAPAJQBDQAJII@Z	; std::_Copy_memmove_tail<long *>
PUBLIC	??$_Allocate_manually_vector_aligned@U_Default_allocate_traits@std@@@std@@YAPAXI@Z ; std::_Allocate_manually_vector_aligned<std::_Default_allocate_traits>
PUBLIC	?IsSkillParent@@YAHPAVCMover@@KK@Z		; IsSkillParent
PUBLIC	?IsActive@@YAHPAVCMover@@K@Z			; IsActive
PUBLIC	?_OptionsStorage@?1??__local_stdio_printf_options@@9@4_KA ; `__local_stdio_printf_options'::`2'::_OptionsStorage
PUBLIC	??_C@_02DPKJAMEF@?$CFd@				; `string'
PUBLIC	??_C@_00CNPNBAHC@@				; `string'
PUBLIC	??_7exception@std@@6B@				; std::exception::`vftable'
PUBLIC	??_C@_0BC@EOODALEL@Unknown?5exception@		; `string'
PUBLIC	??_7bad_alloc@std@@6B@				; std::bad_alloc::`vftable'
PUBLIC	??_7bad_array_new_length@std@@6B@		; std::bad_array_new_length::`vftable'
PUBLIC	??_C@_0BF@KINCDENJ@bad?5array?5new?5length@	; `string'
PUBLIC	??_R0?AVexception@std@@@8			; std::exception `RTTI Type Descriptor'
PUBLIC	__CT??_R0?AVexception@std@@@8??0exception@std@@QAE@ABV01@@Z12
PUBLIC	__TI3?AVbad_array_new_length@std@@
PUBLIC	__CTA3?AVbad_array_new_length@std@@
PUBLIC	??_R0?AVbad_array_new_length@std@@@8		; std::bad_array_new_length `RTTI Type Descriptor'
PUBLIC	__CT??_R0?AVbad_array_new_length@std@@@8??0bad_array_new_length@std@@QAE@ABV01@@Z12
PUBLIC	??_R0?AVbad_alloc@std@@@8			; std::bad_alloc `RTTI Type Descriptor'
PUBLIC	__CT??_R0?AVbad_alloc@std@@@8??0bad_alloc@std@@QAE@ABV01@@Z12
PUBLIC	??_C@_0BM@HMFGHCP@?$CFs?5min?3?$CFd?0?5max?3?$CFd?0?5index?3?$CFd@ ; `string'
PUBLIC	??_C@_0BI@BEIFNGEL@GetItemProp?5range_error@	; `string'
PUBLIC	??_C@_0BJ@GPNGCFMK@GetSkillProp?5range_error@	; `string'
PUBLIC	??_C@_0BJ@GKPOBPPI@GetMoverProp?5range_error@	; `string'
PUBLIC	??_C@_0BA@FOIKENOD@vector?5too?5long@		; `string'
PUBLIC	??_R4exception@std@@6B@				; std::exception::`RTTI Complete Object Locator'
PUBLIC	??_R3exception@std@@8				; std::exception::`RTTI Class Hierarchy Descriptor'
PUBLIC	??_R2exception@std@@8				; std::exception::`RTTI Base Class Array'
PUBLIC	??_R1A@?0A@EA@exception@std@@8			; std::exception::`RTTI Base Class Descriptor at (0,-1,0,64)'
PUBLIC	??_R4bad_array_new_length@std@@6B@		; std::bad_array_new_length::`RTTI Complete Object Locator'
PUBLIC	??_R3bad_array_new_length@std@@8		; std::bad_array_new_length::`RTTI Class Hierarchy Descriptor'
PUBLIC	??_R2bad_array_new_length@std@@8		; std::bad_array_new_length::`RTTI Base Class Array'
PUBLIC	??_R1A@?0A@EA@bad_array_new_length@std@@8	; std::bad_array_new_length::`RTTI Base Class Descriptor at (0,-1,0,64)'
PUBLIC	??_R1A@?0A@EA@bad_alloc@std@@8			; std::bad_alloc::`RTTI Base Class Descriptor at (0,-1,0,64)'
PUBLIC	??_R3bad_alloc@std@@8				; std::bad_alloc::`RTTI Class Hierarchy Descriptor'
PUBLIC	??_R2bad_alloc@std@@8				; std::bad_alloc::`RTTI Base Class Array'
PUBLIC	??_R4bad_alloc@std@@6B@				; std::bad_alloc::`RTTI Complete Object Locator'
PUBLIC	??_C@_0CN@NIDLLMEN@CMover?3?3GetSkill?5?3?5?$CFs?5nId?5?$DN?5?$CFd?5@ ; `string'
PUBLIC	??_C@_0DI@OAFIFIPO@SetPointParam?$CI?5DST_GOLD?5?$CJ?5?9?5?$FLUs@ ; `string'
PUBLIC	??_C@_01HNPIGOCE@?$CG@				; `string'
PUBLIC	??_C@_0O@KNKGEAPB@ANGEL_EXP_LOG@		; `string'
PUBLIC	??_C@_0EF@ODCCKCNB@CMover?3?3DecExperiencePercent?5?3?5@ ; `string'
PUBLIC	??_C@_0FO@OOMNFAPD@1?5CMover?3?3DecExperiencePercent?5@ ; `string'
PUBLIC	??_C@_0GG@EIMKDIB@0?5CMover?3?3DecExperiencePercent?5@ ; `string'
PUBLIC	??_C@_0BI@JFCDNFPO@Parts?5Not?5Property?5?$DN?5?$CFd@ ; `string'
PUBLIC	??_C@_0DB@PFHOFKCA@SetPoison?5?3?5?$CFs?5?$LF?$LG?H?$LP?$LA?z?$MA?G?5?A?v?$LM?S?$LN?C?$LA@ ; `string'
PUBLIC	??_C@_0DC@FNFHKMOG@SetPoison?5?3?5?$CFs?5?$LF?$LG?H?$LP?$LA?z?$MA?G?5tick?5?$LN?C@ ; `string'
PUBLIC	??_C@_0DE@BJJIDPPP@SetPoison?5?3?5?$CFs?5?$LF?$LG?H?$LP?$LA?z?$MA?G?5?F?$LN?$LE?g?5?$LF?$KF@ ; `string'
PUBLIC	??_C@_0DG@PECENGHI@SetDark?5?3?5?$CFs?5?$LO?n?$LF?R?H?$LP?$LA?z?$MA?G?5?$LI?m?A?$NP?$LH?$PM?5@ ; `string'
PUBLIC	??_C@_0DF@KMFJEAB@SetBleeding?5?3?5?$CFs?5?C?b?G?w?H?$LP?$LA?z?$MA?G?5?A?v?$LM@ ; `string'
PUBLIC	??_C@_0DG@BBMBAHHG@SetBleeding?5?3?5?$CFs?5?C?b?G?w?H?$LP?$LA?z?$MA?G?5tic@ ; `string'
PUBLIC	??_C@_0DI@CJNNIDBD@SetBleeding?5?3?5?$CFs?5?C?b?G?w?H?$LP?$LA?z?$MA?G?5?F?$LN?$LE@ ; `string'
PUBLIC	??_C@_0DH@LGNMPJME@SetDestParam?$CI?5DST_GOLD?5?$CJ?5?9?5?$FLUse@ ; `string'
PUBLIC	??_C@_0CO@GBNLCJJD@CMover?3?3GetReistSpell?5?3?5?$CFd?5?G?A?$LH?N@ ; `string'
PUBLIC	??_C@_0CP@LCMNFNMN@CMover?3?3GetResistSpell?5?3?5?$CFs?5?F?D?$LG@ ; `string'
PUBLIC	??_C@_0BK@GLCNDIKD@SetQuestCnt?5?3?5?D?y?$LN?$LK?F?$KO?5?C?J?$LA?z@ ; `string'
PUBLIC	__real@00000000
PUBLIC	__real@3dcccccd
PUBLIC	__real@3e4ccccd
PUBLIC	__real@3e800000
PUBLIC	__real@3f000000
PUBLIC	__real@3f800000
PUBLIC	__real@3f866666
PUBLIC	__real@3f8ccccd
PUBLIC	__real@3faeb851e0000000
PUBLIC	__real@3fc00000
PUBLIC	__real@3ff8000000000000
PUBLIC	__real@40000000
PUBLIC	__real@40400000
PUBLIC	__real@40800000
PUBLIC	__real@40a00000
PUBLIC	__real@40c00000
PUBLIC	__real@41000000
PUBLIC	__real@41200000
PUBLIC	__real@41700000
PUBLIC	__real@41b00000
PUBLIC	__real@42480000
PUBLIC	__real@42a00000
PUBLIC	__real@42c80000
PUBLIC	__real@43fa0000
PUBLIC	__real@447a0000
PUBLIC	__xmm@00000000000000000000006400000064
PUBLIC	__xmm@41f00000000000000000000000000000
EXTRN	??2@YAPAXI@Z:PROC				; operator new
EXTRN	??3@YAXPAXI@Z:PROC				; operator delete
EXTRN	__invoke_watson:PROC
EXTRN	__imp__MulDiv@12:PROC
EXTRN	___stdio_common_vsprintf:PROC
EXTRN	__time64:PROC
EXTRN	___std_exception_copy:PROC
EXTRN	___std_exception_destroy:PROC
EXTRN	??_Eexception@std@@UAEPAXI@Z:PROC		; std::exception::`vector deleting destructor'
EXTRN	??_Ebad_alloc@std@@UAEPAXI@Z:PROC		; std::bad_alloc::`vector deleting destructor'
EXTRN	??_Ebad_array_new_length@std@@UAEPAXI@Z:PROC	; std::bad_array_new_length::`vector deleting destructor'
EXTRN	?_Xlength_error@std@@YAXPBD@Z:PROC		; std::_Xlength_error
EXTRN	?Error@@YAPBDPBDZZ:PROC				; Error
EXTRN	?SetAngleX@CObj@@QAEXM@Z:PROC			; CObj::SetAngleX
EXTRN	?SetPos@CObj@@QAEXABUD3DXVECTOR3@@@Z:PROC	; CObj::SetPos
EXTRN	?SetAngle@CObj@@QAEXM@Z:PROC			; CObj::SetAngle
EXTRN	?GetExpFactor@CEventLua@@QAEMH@Z:PROC		; CEventLua::GetExpFactor
EXTRN	?GetItemDropRate@CEventLua@@QAEMH@Z:PROC	; CEventLua::GetItemDropRate
EXTRN	?GetPieceItemDropRate@CEventLua@@QAEMH@Z:PROC	; CEventLua::GetPieceItemDropRate
EXTRN	?SetLevelUpGift@CEventLua@@QAEXPAVCUser@@H@Z:PROC ; CEventLua::SetLevelUpGift
EXTRN	?GetCheerExpFactor@CEventLua@@QAEMH@Z:PROC	; CEventLua::GetCheerExpFactor
EXTRN	?GetWeatherEventExpFactor@CEventLua@@QAEMH@Z:PROC ; CEventLua::GetWeatherEventExpFactor
EXTRN	?GetJobProp@CProject@@QAEPAUJobProp@@H@Z:PROC	; CProject::GetJobProp
EXTRN	?SetMotionBlending@CModelObject@@QAEXH@Z:PROC	; CModelObject::SetMotionBlending
EXTRN	?GetInstance@CAccessoryProperty@@SAPAV1@XZ:PROC	; CAccessoryProperty::GetInstance
EXTRN	?IsAccessory@CAccessoryProperty@@QAEHK@Z:PROC	; CAccessoryProperty::IsAccessory
EXTRN	?SetPiercingSize@CPiercing@@QAEXH@Z:PROC	; CPiercing::SetPiercingSize
EXTRN	?SetPiercingItem@CPiercing@@QAEXHK@Z:PROC	; CPiercing::SetPiercingItem
EXTRN	?SetUltimatePiercingSize@CPiercing@@QAEXH@Z:PROC ; CPiercing::SetUltimatePiercingSize
EXTRN	?SetUltimatePiercingItem@CPiercing@@QAEXHK@Z:PROC ; CPiercing::SetUltimatePiercingItem
EXTRN	?SetVisKeepTime@CPiercing@@QAEXHJ@Z:PROC	; CPiercing::SetVisKeepTime
EXTRN	?SetSwapVisItem@CItemElem@@QAEXHH@Z:PROC	; CItemElem::SetSwapVisItem
EXTRN	?IsUsableItem@@YAHPAVCItemBase@@@Z:PROC		; IsUsableItem
EXTRN	?GetBuffByIk3@CBuffMgr@@QAEPAVIBuff@@K@Z:PROC	; CBuffMgr::GetBuffByIk3
EXTRN	?RemoveBuffs@CBuffMgr@@QAEXKK@Z:PROC		; CBuffMgr::RemoveBuffs
EXTRN	?ForcedSet@CActionMover@@QAEXAAUD3DXVECTOR3@@KKH@Z:PROC ; CActionMover::ForcedSet
EXTRN	?ForcedSet2@CActionMover@@QAEXAAUD3DXVECTOR3@@MMKKH@Z:PROC ; CActionMover::ForcedSet2
EXTRN	?HalfForcedSet@CActionMover@@QAEXAAUD3DXVECTOR3@@MM@Z:PROC ; CActionMover::HalfForcedSet
EXTRN	?GetOther@CVTInfo@@QAEPAVCMover@@XZ:PROC	; CVTInfo::GetOther
EXTRN	?IsVendorOpen@CVTInfo@@QAEHXZ:PROC		; CVTInfo::IsVendorOpen
EXTRN	?TradeClear@CVTInfo@@QAEXXZ:PROC		; CVTInfo::TradeClear
EXTRN	?VendorIsVendor@CVTInfo@@QAEHXZ:PROC		; CVTInfo::VendorIsVendor
EXTRN	?HasBuff@CMover@@QAEHGG@Z:PROC			; CMover::HasBuff
EXTRN	?HasBuffByIk3@CMover@@QAEHK@Z:PROC		; CMover::HasBuffByIk3
EXTRN	?RemoveChrStateBuffs@CMover@@QAEXK@Z:PROC	; CMover::RemoveChrStateBuffs
EXTRN	?RemoveAttackerBuffs@CMover@@QAEXK@Z:PROC	; CMover::RemoveAttackerBuffs
EXTRN	?RemoveDstParamBuffs@CMover@@QAEXK@Z:PROC	; CMover::RemoveDstParamBuffs
EXTRN	?CheckHonorStat@CMover@@QAEXXZ:PROC		; CMover::CheckHonorStat
EXTRN	?ActivateEatPet@CMover@@QAEXPAVCItemElem@@@Z:PROC ; CMover::ActivateEatPet
EXTRN	?InactivateEatPet@CMover@@QAEXXZ:PROC		; CMover::InactivateEatPet
EXTRN	?GetEquipItem@CMover@@QAEPAVCItemElem@@H@Z:PROC	; CMover::GetEquipItem
EXTRN	?GetName@CMover@@QAEPBDH@Z:PROC			; CMover::GetName
EXTRN	?SetJobLevel@CMover@@QAEXHH@Z:PROC		; CMover::SetJobLevel
EXTRN	?SetPKPropensity@CMover@@QAEXK@Z:PROC		; CMover::SetPKPropensity
EXTRN	?GetItemMultiplier@CMover@@QAEMPAVCItemElem@@@Z:PROC ; CMover::GetItemMultiplier
EXTRN	?GetItemId@CMover@@QAEPAVCItemBase@@K@Z:PROC	; CMover::GetItemId
EXTRN	?RemoveItemId@CMover@@QAEXK@Z:PROC		; CMover::RemoveItemId
EXTRN	?IsAttackMode@CMover@@QAEHXZ:PROC		; CMover::IsAttackMode
EXTRN	?AddSkillPoint@CMover@@QAEXH@Z:PROC		; CMover::AddSkillPoint
EXTRN	?SetMasterSkillPointUp@CMover@@QAEXXZ:PROC	; CMover::SetMasterSkillPointUp
EXTRN	?GetState@CFlyffEvent@@QAEEH@Z:PROC		; CFlyffEvent::GetState
EXTRN	?GetLeader@CParty@@QAEPAVCMover@@XZ:PROC	; CParty::GetLeader
EXTRN	?DoDuelResult@CParty@@QAEXPAV1@HHM@Z:PROC	; CParty::DoDuelResult
EXTRN	?GetParty@CPartyMng@@QAEPAVCParty@@K@Z:PROC	; CPartyMng::GetParty
EXTRN	?GetInstance@CPCBang@@SAPAV1@XZ:PROC		; CPCBang::GetInstance
EXTRN	?GetPieceItemDropFactor@CPCBang@@QAEMPAVCUser@@@Z:PROC ; CPCBang::GetPieceItemDropFactor
EXTRN	?GetInstance@CCampusHelper@@SAPAV1@XZ:PROC	; CCampusHelper::GetInstance
EXTRN	?SetLevelUpReward@CCampusHelper@@QAEXPAVCUser@@@Z:PROC ; CCampusHelper::SetLevelUpReward
EXTRN	?AddUpdateItem@CUser@@QAEXDEDKK@Z:PROC		; CUser::AddUpdateItem
EXTRN	?AddUpdateItemEx@CUser@@QAEXED_J@Z:PROC		; CUser::AddUpdateItemEx
EXTRN	?AddDefinedText@CUser@@QAAXHPBDZZ:PROC		; CUser::AddDefinedText
EXTRN	?AddAngelInfo@CUser@@QAEXH@Z:PROC		; CUser::AddAngelInfo
EXTRN	?AddHonorListAck@CUser@@QAEXXZ:PROC		; CUser::AddHonorListAck
EXTRN	?GetAddExpAfterApplyRestPoint@CUser@@QAE_J_J@Z:PROC ; CUser::GetAddExpAfterApplyRestPoint
EXTRN	?AddSetDestParam@CUserMng@@QAEXPAVCMover@@HHH@Z:PROC ; CUserMng::AddSetDestParam
EXTRN	?AddResetDestParam@CUserMng@@QAEXPAVCMover@@HH@Z:PROC ; CUserMng::AddResetDestParam
EXTRN	?AddResetDestParamSync@CUserMng@@QAEXPAVCMover@@HHH@Z:PROC ; CUserMng::AddResetDestParamSync
EXTRN	?AddSetPointParam@CUserMng@@QAEXPAVCMover@@HH@Z:PROC ; CUserMng::AddSetPointParam
EXTRN	?AddSetFame@CUserMng@@QAEXPAVCMover@@H@Z:PROC	; CUserMng::AddSetFame
EXTRN	?AddSetStun@CUserMng@@QAEXPAVCMover@@H@Z:PROC	; CUserMng::AddSetStun
EXTRN	?AddPKPropensity@CUserMng@@QAEXPAVCMover@@@Z:PROC ; CUserMng::AddPKPropensity
EXTRN	?AddHonorTitleChange@CUserMng@@QAEXPAVCMover@@H@Z:PROC ; CUserMng::AddHonorTitleChange
EXTRN	?SendSetPartyDuel@CDPCoreClient@@QAEXKKH@Z:PROC	; CDPCoreClient::SendSetPartyDuel
EXTRN	?GetExpFactor@CEventGeneric@@QAEMXZ:PROC	; CEventGeneric::GetExpFactor
EXTRN	?GetItemDropRateFactor@CEventGeneric@@QAEMXZ:PROC ; CEventGeneric::GetItemDropRateFactor
EXTRN	?GetInstance@CEventGeneric@@SAPAV1@XZ:PROC	; CEventGeneric::GetInstance
EXTRN	?GetEFactor@ILordEvent@@QAEMXZ:PROC		; ILordEvent::GetEFactor
EXTRN	?GetIFactor@ILordEvent@@QAEMXZ:PROC		; ILordEvent::GetIFactor
EXTRN	?Instance@CSLord@@SAPAV1@XZ:PROC		; CSLord::Instance
EXTRN	?SendRecommend@CDPDatabaseClient@@QAEXPAVCUser@@H@Z:PROC ; CDPDatabaseClient::SendRecommend
EXTRN	?SendLogLevelUp@CDPDatabaseClient@@QAEXPAVCMover@@H@Z:PROC ; CDPDatabaseClient::SendLogLevelUp
EXTRN	?SendLogSkillPoint@CDPDatabaseClient@@QAEXHHPAVCMover@@PAUtagSkill@@@Z:PROC ; CDPDatabaseClient::SendLogSkillPoint
EXTRN	?SendLogPkPvp@CDPDatabaseClient@@QAEXPAVCMover@@0HD@Z:PROC ; CDPDatabaseClient::SendLogPkPvp
EXTRN	?OnLogItem@CDPSrvr@@QAEXAAU_LogItemInfo@@PAVCItemElem@@H@Z:PROC ; CDPSrvr::OnLogItem
EXTRN	?GetInstance@CEnvironment@@SAPAV1@XZ:PROC	; CEnvironment::GetInstance
EXTRN	@__security_check_cookie@4:PROC
EXTRN	__CxxThrowException@8:PROC
EXTRN	__alldiv:PROC
EXTRN	__allmul:PROC
EXTRN	__ftol3:PROC
EXTRN	__libm_sse2_pow_precise:PROC
EXTRN	__ltod3:PROC
EXTRN	__ltof3:PROC
EXTRN	_memmove:PROC
EXTRN	_memset:PROC
EXTRN	??_7type_info@@6B@:QWORD			; type_info::`vftable'
EXTRN	?g_tCurrent@@3JA:DWORD				; g_tCurrent
EXTRN	?g_next@@3KA:DWORD				; g_next
EXTRN	?m_fItemDropRate@CProject@@2MA:DWORD		; CProject::m_fItemDropRate
EXTRN	?m_fMonsterExpRate@CProject@@2MA:DWORD		; CProject::m_fMonsterExpRate
EXTRN	?prj@@3VCProject@@A:BYTE			; prj
EXTRN	?g_eLocal@@3VCFlyffEvent@@A:BYTE		; g_eLocal
EXTRN	?g_UserMng@@3VCUserMng@@A:BYTE			; g_UserMng
EXTRN	?g_DPCoreClient@@3VCDPCoreClient@@A:BYTE	; g_DPCoreClient
EXTRN	?g_dpDBClient@@3VCDPDatabaseClient@@A:BYTE	; g_dpDBClient
EXTRN	?g_PartyMng@@3VCPartyMng@@A:BYTE		; g_PartyMng
EXTRN	?g_DPSrvr@@3VCDPSrvr@@A:BYTE			; g_DPSrvr
EXTRN	___security_cookie:DWORD
EXTRN	__fltused:DWORD
;	COMDAT ?_OptionsStorage@?1??__local_stdio_printf_options@@9@4_KA
_BSS	SEGMENT
?_OptionsStorage@?1??__local_stdio_printf_options@@9@4_KA DQ 01H DUP (?) ; `__local_stdio_printf_options'::`2'::_OptionsStorage
_BSS	ENDS
;	COMDAT __xmm@41f00000000000000000000000000000
CONST	SEGMENT
__xmm@41f00000000000000000000000000000 DB 00H, 00H, 00H, 00H, 00H, 00H, 00H
	DB	00H, 00H, 00H, 00H, 00H, 00H, 00H, 0f0H, 'A'
CONST	ENDS
;	COMDAT __xmm@00000000000000000000006400000064
CONST	SEGMENT
__xmm@00000000000000000000006400000064 DB 'd', 00H, 00H, 00H, 'd', 00H, 00H
	DB	00H, 00H, 00H, 00H, 00H, 00H, 00H, 00H, 00H
CONST	ENDS
;	COMDAT __real@447a0000
CONST	SEGMENT
__real@447a0000 DD 0447a0000r			; 1000
CONST	ENDS
;	COMDAT __real@43fa0000
CONST	SEGMENT
__real@43fa0000 DD 043fa0000r			; 500
CONST	ENDS
;	COMDAT __real@42c80000
CONST	SEGMENT
__real@42c80000 DD 042c80000r			; 100
CONST	ENDS
;	COMDAT __real@42a00000
CONST	SEGMENT
__real@42a00000 DD 042a00000r			; 80
CONST	ENDS
;	COMDAT __real@42480000
CONST	SEGMENT
__real@42480000 DD 042480000r			; 50
CONST	ENDS
;	COMDAT __real@41b00000
CONST	SEGMENT
__real@41b00000 DD 041b00000r			; 22
CONST	ENDS
;	COMDAT __real@41700000
CONST	SEGMENT
__real@41700000 DD 041700000r			; 15
CONST	ENDS
;	COMDAT __real@41200000
CONST	SEGMENT
__real@41200000 DD 041200000r			; 10
CONST	ENDS
;	COMDAT __real@41000000
CONST	SEGMENT
__real@41000000 DD 041000000r			; 8
CONST	ENDS
;	COMDAT __real@40c00000
CONST	SEGMENT
__real@40c00000 DD 040c00000r			; 6
CONST	ENDS
;	COMDAT __real@40a00000
CONST	SEGMENT
__real@40a00000 DD 040a00000r			; 5
CONST	ENDS
;	COMDAT __real@40800000
CONST	SEGMENT
__real@40800000 DD 040800000r			; 4
CONST	ENDS
;	COMDAT __real@40400000
CONST	SEGMENT
__real@40400000 DD 040400000r			; 3
CONST	ENDS
;	COMDAT __real@40000000
CONST	SEGMENT
__real@40000000 DD 040000000r			; 2
CONST	ENDS
;	COMDAT __real@3ff8000000000000
CONST	SEGMENT
__real@3ff8000000000000 DQ 03ff8000000000000r	; 1.5
CONST	ENDS
;	COMDAT __real@3fc00000
CONST	SEGMENT
__real@3fc00000 DD 03fc00000r			; 1.5
CONST	ENDS
;	COMDAT __real@3faeb851e0000000
CONST	SEGMENT
__real@3faeb851e0000000 DQ 03faeb851e0000000r	; 0.06
CONST	ENDS
;	COMDAT __real@3f8ccccd
CONST	SEGMENT
__real@3f8ccccd DD 03f8ccccdr			; 1.1
CONST	ENDS
;	COMDAT __real@3f866666
CONST	SEGMENT
__real@3f866666 DD 03f866666r			; 1.05
CONST	ENDS
;	COMDAT __real@3f800000
CONST	SEGMENT
__real@3f800000 DD 03f800000r			; 1
CONST	ENDS
;	COMDAT __real@3f000000
CONST	SEGMENT
__real@3f000000 DD 03f000000r			; 0.5
CONST	ENDS
;	COMDAT __real@3e800000
CONST	SEGMENT
__real@3e800000 DD 03e800000r			; 0.25
CONST	ENDS
;	COMDAT __real@3e4ccccd
CONST	SEGMENT
__real@3e4ccccd DD 03e4ccccdr			; 0.2
CONST	ENDS
;	COMDAT __real@3dcccccd
CONST	SEGMENT
__real@3dcccccd DD 03dcccccdr			; 0.1
CONST	ENDS
;	COMDAT __real@00000000
CONST	SEGMENT
__real@00000000 DD 000000000r			; 0
CONST	ENDS
;	COMDAT ??_C@_0BK@GLCNDIKD@SetQuestCnt?5?3?5?D?y?$LN?$LK?F?$KO?5?C?J?$LA?z@
CONST	SEGMENT
??_C@_0BK@GLCNDIKD@SetQuestCnt?5?3?5?D?y?$LN?$LK?F?$KO?5?C?J?$LA?z@ DB 'S'
	DB	'etQuestCnt : ', 0c4H, 0f9H, 0bdH, 0baH, 0c6H, 0aeH, ' ', 0c3H
	DB	0caH, 0b0H, 0faH, 00H			; `string'
CONST	ENDS
;	COMDAT ??_C@_0CP@LCMNFNMN@CMover?3?3GetResistSpell?5?3?5?$CFs?5?F?D?$LG@
CONST	SEGMENT
??_C@_0CP@LCMNFNMN@CMover?3?3GetResistSpell?5?3?5?$CFs?5?F?D?$LG@ DB 'CMo'
	DB	'ver::GetResistSpell : %s ', 0c6H, 0c4H, 0b6H, 0f3H, 0b8H, 0deH
	DB	0c5H, 0cdH, ' ', 0c0H, 0dfH, 0b8H, 0f8H, 0b5H, 0caH, ' %d', 00H ; `string'
CONST	ENDS
;	COMDAT ??_C@_0CO@GBNLCJJD@CMover?3?3GetReistSpell?5?3?5?$CFd?5?G?A?$LH?N@
CONST	SEGMENT
??_C@_0CO@GBNLCJJD@CMover?3?3GetReistSpell?5?3?5?$CFd?5?G?A?$LH?N@ DB 'CM'
	DB	'over::GetReistSpell : %d ', 0c7H, 0c1H, 0b7H, 0ceH, 0c6H, 0dbH
	DB	0c6H, 0bcH, ' ', 0c0H, 0d0H, 0b1H, 0e2H, ' ', 0bdH, 0c7H, 0c6H
	DB	0d0H, 00H					; `string'
CONST	ENDS
;	COMDAT ??_C@_0DH@LGNMPJME@SetDestParam?$CI?5DST_GOLD?5?$CJ?5?9?5?$FLUse@
CONST	SEGMENT
??_C@_0DH@LGNMPJME@SetDestParam?$CI?5DST_GOLD?5?$CJ?5?9?5?$FLUse@ DB 'Set'
	DB	'DestParam( DST_GOLD ) - [User:%s(%07d)], [Value:%d]', 00H ; `string'
CONST	ENDS
;	COMDAT ??_C@_0DI@CJNNIDBD@SetBleeding?5?3?5?$CFs?5?C?b?G?w?H?$LP?$LA?z?$MA?G?5?F?$LN?$LE@
CONST	SEGMENT
??_C@_0DI@CJNNIDBD@SetBleeding?5?3?5?$CFs?5?C?b?G?w?H?$LP?$LA?z?$MA?G?5?F?$LN?$LE@ DB 'S'
	DB	'etBleeding : %s ', 0c3H, 0e2H, 0c7H, 0f7H, 0c8H, 0bfH, 0b0H, 0faH
	DB	0c0H, 0c7H, ' ', 0c6H, 0bdH, 0b4H, 0e7H, ' ', 0b5H, 0a5H, 0b9H
	DB	0ccH, 0c1H, 0f6H, 0b0H, 0a1H, ' ', 0c1H, 0f6H, 0c1H, 0a4H, 0b5H
	DB	0c7H, 0c1H, 0f6H, ' ', 0beH, 0caH, 0c0H, 0bdH, 00H ; `string'
CONST	ENDS
;	COMDAT ??_C@_0DG@BBMBAHHG@SetBleeding?5?3?5?$CFs?5?C?b?G?w?H?$LP?$LA?z?$MA?G?5tic@
CONST	SEGMENT
??_C@_0DG@BBMBAHHG@SetBleeding?5?3?5?$CFs?5?C?b?G?w?H?$LP?$LA?z?$MA?G?5tic@ DB 'S'
	DB	'etBleeding : %s ', 0c3H, 0e2H, 0c7H, 0f7H, 0c8H, 0bfH, 0b0H, 0faH
	DB	0c0H, 0c7H, ' tick ', 0bdH, 0c3H, 0b0H, 0a3H, 0c0H, 0ccH, ' ', 0c1H
	DB	0f6H, 0c1H, 0a4H, 0b5H, 0c7H, 0c1H, 0f6H, ' ', 0beH, 0caH, 0c0H
	DB	0bdH, 00H					; `string'
CONST	ENDS
;	COMDAT ??_C@_0DF@KMFJEAB@SetBleeding?5?3?5?$CFs?5?C?b?G?w?H?$LP?$LA?z?$MA?G?5?A?v?$LM@
CONST	SEGMENT
??_C@_0DF@KMFJEAB@SetBleeding?5?3?5?$CFs?5?C?b?G?w?H?$LP?$LA?z?$MA?G?5?A?v?$LM@ DB 'S'
	DB	'etBleeding : %s ', 0c3H, 0e2H, 0c7H, 0f7H, 0c8H, 0bfH, 0b0H, 0faH
	DB	0c0H, 0c7H, ' ', 0c1H, 0f6H, 0bcH, 0d3H, 0bdH, 0c3H, 0b0H, 0a3H
	DB	0c0H, 0ccH, ' ', 0c1H, 0f6H, 0c1H, 0a4H, 0b5H, 0c7H, 0c1H, 0f6H
	DB	' ', 0beH, 0caH, 0c0H, 0bdH, 00H		; `string'
CONST	ENDS
;	COMDAT ??_C@_0DG@PECENGHI@SetDark?5?3?5?$CFs?5?$LO?n?$LF?R?H?$LP?$LA?z?$MA?G?5?$LI?m?A?$NP?$LH?$PM?5@
CONST	SEGMENT
??_C@_0DG@PECENGHI@SetDark?5?3?5?$CFs?5?$LO?n?$LF?R?H?$LP?$LA?z?$MA?G?5?$LI?m?A?$NP?$LH?$PM?5@ DB 'S'
	DB	'etDark : %s ', 0beH, 0eeH, 0b5H, 0d2H, 0c8H, 0bfH, 0b0H, 0faH
	DB	0c0H, 0c7H, ' ', 0b8H, 0edH, 0c1H, 0dfH, 0b7H, 0fcH, ' ', 0bcH
	DB	0f6H, 0c1H, 0a4H, 0c4H, 0a1H, 0b0H, 0a1H, ' ', 0c1H, 0f6H, 0c1H
	DB	0a4H, 0b5H, 0c7H, 0c1H, 0f6H, ' ', 0beH, 0caH, 0c0H, 0bdH, 00H ; `string'
CONST	ENDS
;	COMDAT ??_C@_0DE@BJJIDPPP@SetPoison?5?3?5?$CFs?5?$LF?$LG?H?$LP?$LA?z?$MA?G?5?F?$LN?$LE?g?5?$LF?$KF@
CONST	SEGMENT
??_C@_0DE@BJJIDPPP@SetPoison?5?3?5?$CFs?5?$LF?$LG?H?$LP?$LA?z?$MA?G?5?F?$LN?$LE?g?5?$LF?$KF@ DB 'S'
	DB	'etPoison : %s ', 0b5H, 0b6H, 0c8H, 0bfH, 0b0H, 0faH, 0c0H, 0c7H
	DB	' ', 0c6H, 0bdH, 0b4H, 0e7H, ' ', 0b5H, 0a5H, 0b9H, 0ccH, 0c1H
	DB	0f6H, 0b0H, 0a1H, ' ', 0c1H, 0f6H, 0c1H, 0a4H, 0b5H, 0c7H, 0c1H
	DB	0f6H, ' ', 0beH, 0caH, 0c0H, 0bdH, 00H	; `string'
CONST	ENDS
;	COMDAT ??_C@_0DC@FNFHKMOG@SetPoison?5?3?5?$CFs?5?$LF?$LG?H?$LP?$LA?z?$MA?G?5tick?5?$LN?C@
CONST	SEGMENT
??_C@_0DC@FNFHKMOG@SetPoison?5?3?5?$CFs?5?$LF?$LG?H?$LP?$LA?z?$MA?G?5tick?5?$LN?C@ DB 'S'
	DB	'etPoison : %s ', 0b5H, 0b6H, 0c8H, 0bfH, 0b0H, 0faH, 0c0H, 0c7H
	DB	' tick ', 0bdH, 0c3H, 0b0H, 0a3H, 0c0H, 0ccH, ' ', 0c1H, 0f6H, 0c1H
	DB	0a4H, 0b5H, 0c7H, 0c1H, 0f6H, ' ', 0beH, 0caH, 0c0H, 0bdH, 00H ; `string'
CONST	ENDS
;	COMDAT ??_C@_0DB@PFHOFKCA@SetPoison?5?3?5?$CFs?5?$LF?$LG?H?$LP?$LA?z?$MA?G?5?A?v?$LM?S?$LN?C?$LA@
CONST	SEGMENT
??_C@_0DB@PFHOFKCA@SetPoison?5?3?5?$CFs?5?$LF?$LG?H?$LP?$LA?z?$MA?G?5?A?v?$LM?S?$LN?C?$LA@ DB 'S'
	DB	'etPoison : %s ', 0b5H, 0b6H, 0c8H, 0bfH, 0b0H, 0faH, 0c0H, 0c7H
	DB	' ', 0c1H, 0f6H, 0bcH, 0d3H, 0bdH, 0c3H, 0b0H, 0a3H, 0c0H, 0ccH
	DB	' ', 0c1H, 0f6H, 0c1H, 0a4H, 0b5H, 0c7H, 0c1H, 0f6H, ' ', 0beH
	DB	0caH, 0c0H, 0bdH, 00H			; `string'
CONST	ENDS
;	COMDAT ??_C@_0BI@JFCDNFPO@Parts?5Not?5Property?5?$DN?5?$CFd@
CONST	SEGMENT
??_C@_0BI@JFCDNFPO@Parts?5Not?5Property?5?$DN?5?$CFd@ DB 'Parts Not Prope'
	DB	'rty = %d', 00H				; `string'
CONST	ENDS
;	COMDAT ??_C@_0GG@EIMKDIB@0?5CMover?3?3DecExperiencePercent?5@
CONST	SEGMENT
??_C@_0GG@EIMKDIB@0?5CMover?3?3DecExperiencePercent?5@ DB '0 CMover::DecE'
	DB	'xperiencePercent : %s(Lv%d) ', 0b0H, 0e6H, 0c7H, 0e8H, 0c4H, 0a1H
	DB	0b0H, 0a1H, ' ', 0c0H, 0ccH, 0bbH, 0f3H, 0c7H, 0cfH, 0b0H, 0d4H
	DB	' ', 0b1H, 0f0H, 0c0H, 0d3H, '. %I64d %I64d(%f) %I64d(%f) %I64'
	DB	'd(%f)', 00H					; `string'
CONST	ENDS
;	COMDAT ??_C@_0FO@OOMNFAPD@1?5CMover?3?3DecExperiencePercent?5@
CONST	SEGMENT
??_C@_0FO@OOMNFAPD@1?5CMover?3?3DecExperiencePercent?5@ DB '1 CMover::Dec'
	DB	'ExperiencePercent : %s(Lv%d) ', 0b0H, 0e6H, 0c7H, 0e8H, 0c4H, 0a1H
	DB	0b0H, 0a1H, ' ', 0c0H, 0ccH, 0bbH, 0f3H, 0c7H, 0cfH, 0b0H, 0d4H
	DB	' ', 0b1H, 0f0H, 0c0H, 0d3H, '. %I64d %I64d(%f) %I64d %I64d', 00H ; `string'
CONST	ENDS
;	COMDAT ??_C@_0EF@ODCCKCNB@CMover?3?3DecExperiencePercent?5?3?5@
CONST	SEGMENT
??_C@_0EF@ODCCKCNB@CMover?3?3DecExperiencePercent?5?3?5@ DB 'CMover::DecE'
	DB	'xperiencePercent : %s ', 0b7H, 0b9H, 0baH, 0a7H, 0b4H, 0d9H, 0bfH
	DB	0eeH, ' ', 0c0H, 0ccH, 0bbH, 0f3H, '. %d -> %d  %I64d(%f)', 00H ; `string'
CONST	ENDS
;	COMDAT ??_C@_0O@KNKGEAPB@ANGEL_EXP_LOG@
CONST	SEGMENT
??_C@_0O@KNKGEAPB@ANGEL_EXP_LOG@ DB 'ANGEL_EXP_LOG', 00H ; `string'
CONST	ENDS
;	COMDAT ??_C@_01HNPIGOCE@?$CG@
CONST	SEGMENT
??_C@_01HNPIGOCE@?$CG@ DB '&', 00H			; `string'
CONST	ENDS
;	COMDAT ??_C@_0DI@OAFIFIPO@SetPointParam?$CI?5DST_GOLD?5?$CJ?5?9?5?$FLUs@
CONST	SEGMENT
??_C@_0DI@OAFIFIPO@SetPointParam?$CI?5DST_GOLD?5?$CJ?5?9?5?$FLUs@ DB 'Set'
	DB	'PointParam( DST_GOLD ) - [User:%s(%07d)], [Value:%d]', 00H ; `string'
CONST	ENDS
;	COMDAT ??_C@_0CN@NIDLLMEN@CMover?3?3GetSkill?5?3?5?$CFs?5nId?5?$DN?5?$CFd?5@
CONST	SEGMENT
??_C@_0CN@NIDLLMEN@CMover?3?3GetSkill?5?3?5?$CFs?5nId?5?$DN?5?$CFd?5@ DB 'C'
	DB	'Mover::GetSkill : %s nId = %d ', 0b9H, 0fcH, 0c0H, 0a7H, 0b8H
	DB	0a6H, ' ', 0b9H, 0feH, 0beH, 0eeH, 0b3H, 0b2H, 00H ; `string'
CONST	ENDS
;	COMDAT ??_R4bad_alloc@std@@6B@
rdata$r	SEGMENT
??_R4bad_alloc@std@@6B@ DD 00H				; std::bad_alloc::`RTTI Complete Object Locator'
	DD	00H
	DD	00H
	DD	FLAT:??_R0?AVbad_alloc@std@@@8
	DD	FLAT:??_R3bad_alloc@std@@8
rdata$r	ENDS
;	COMDAT ??_R2bad_alloc@std@@8
rdata$r	SEGMENT
??_R2bad_alloc@std@@8 DD FLAT:??_R1A@?0A@EA@bad_alloc@std@@8 ; std::bad_alloc::`RTTI Base Class Array'
	DD	FLAT:??_R1A@?0A@EA@exception@std@@8
rdata$r	ENDS
;	COMDAT ??_R3bad_alloc@std@@8
rdata$r	SEGMENT
??_R3bad_alloc@std@@8 DD 00H				; std::bad_alloc::`RTTI Class Hierarchy Descriptor'
	DD	00H
	DD	02H
	DD	FLAT:??_R2bad_alloc@std@@8
rdata$r	ENDS
;	COMDAT ??_R1A@?0A@EA@bad_alloc@std@@8
rdata$r	SEGMENT
??_R1A@?0A@EA@bad_alloc@std@@8 DD FLAT:??_R0?AVbad_alloc@std@@@8 ; std::bad_alloc::`RTTI Base Class Descriptor at (0,-1,0,64)'
	DD	01H
	DD	00H
	DD	0ffffffffH
	DD	00H
	DD	040H
	DD	FLAT:??_R3bad_alloc@std@@8
rdata$r	ENDS
;	COMDAT ??_R1A@?0A@EA@bad_array_new_length@std@@8
rdata$r	SEGMENT
??_R1A@?0A@EA@bad_array_new_length@std@@8 DD FLAT:??_R0?AVbad_array_new_length@std@@@8 ; std::bad_array_new_length::`RTTI Base Class Descriptor at (0,-1,0,64)'
	DD	02H
	DD	00H
	DD	0ffffffffH
	DD	00H
	DD	040H
	DD	FLAT:??_R3bad_array_new_length@std@@8
rdata$r	ENDS
;	COMDAT ??_R2bad_array_new_length@std@@8
rdata$r	SEGMENT
??_R2bad_array_new_length@std@@8 DD FLAT:??_R1A@?0A@EA@bad_array_new_length@std@@8 ; std::bad_array_new_length::`RTTI Base Class Array'
	DD	FLAT:??_R1A@?0A@EA@bad_alloc@std@@8
	DD	FLAT:??_R1A@?0A@EA@exception@std@@8
rdata$r	ENDS
;	COMDAT ??_R3bad_array_new_length@std@@8
rdata$r	SEGMENT
??_R3bad_array_new_length@std@@8 DD 00H			; std::bad_array_new_length::`RTTI Class Hierarchy Descriptor'
	DD	00H
	DD	03H
	DD	FLAT:??_R2bad_array_new_length@std@@8
rdata$r	ENDS
;	COMDAT ??_R4bad_array_new_length@std@@6B@
rdata$r	SEGMENT
??_R4bad_array_new_length@std@@6B@ DD 00H		; std::bad_array_new_length::`RTTI Complete Object Locator'
	DD	00H
	DD	00H
	DD	FLAT:??_R0?AVbad_array_new_length@std@@@8
	DD	FLAT:??_R3bad_array_new_length@std@@8
rdata$r	ENDS
;	COMDAT ??_R1A@?0A@EA@exception@std@@8
rdata$r	SEGMENT
??_R1A@?0A@EA@exception@std@@8 DD FLAT:??_R0?AVexception@std@@@8 ; std::exception::`RTTI Base Class Descriptor at (0,-1,0,64)'
	DD	00H
	DD	00H
	DD	0ffffffffH
	DD	00H
	DD	040H
	DD	FLAT:??_R3exception@std@@8
rdata$r	ENDS
;	COMDAT ??_R2exception@std@@8
rdata$r	SEGMENT
??_R2exception@std@@8 DD FLAT:??_R1A@?0A@EA@exception@std@@8 ; std::exception::`RTTI Base Class Array'
rdata$r	ENDS
;	COMDAT ??_R3exception@std@@8
rdata$r	SEGMENT
??_R3exception@std@@8 DD 00H				; std::exception::`RTTI Class Hierarchy Descriptor'
	DD	00H
	DD	01H
	DD	FLAT:??_R2exception@std@@8
rdata$r	ENDS
;	COMDAT ??_R4exception@std@@6B@
rdata$r	SEGMENT
??_R4exception@std@@6B@ DD 00H				; std::exception::`RTTI Complete Object Locator'
	DD	00H
	DD	00H
	DD	FLAT:??_R0?AVexception@std@@@8
	DD	FLAT:??_R3exception@std@@8
rdata$r	ENDS
;	COMDAT ??_C@_0BA@FOIKENOD@vector?5too?5long@
CONST	SEGMENT
??_C@_0BA@FOIKENOD@vector?5too?5long@ DB 'vector too long', 00H ; `string'
CONST	ENDS
;	COMDAT ??_C@_0BJ@GKPOBPPI@GetMoverProp?5range_error@
CONST	SEGMENT
??_C@_0BJ@GKPOBPPI@GetMoverProp?5range_error@ DB 'GetMoverProp range_erro'
	DB	'r', 00H					; `string'
CONST	ENDS
;	COMDAT ??_C@_0BJ@GPNGCFMK@GetSkillProp?5range_error@
CONST	SEGMENT
??_C@_0BJ@GPNGCFMK@GetSkillProp?5range_error@ DB 'GetSkillProp range_erro'
	DB	'r', 00H					; `string'
CONST	ENDS
;	COMDAT ??_C@_0BI@BEIFNGEL@GetItemProp?5range_error@
CONST	SEGMENT
??_C@_0BI@BEIFNGEL@GetItemProp?5range_error@ DB 'GetItemProp range_error', 00H ; `string'
CONST	ENDS
;	COMDAT ??_C@_0BM@HMFGHCP@?$CFs?5min?3?$CFd?0?5max?3?$CFd?0?5index?3?$CFd@
CONST	SEGMENT
??_C@_0BM@HMFGHCP@?$CFs?5min?3?$CFd?0?5max?3?$CFd?0?5index?3?$CFd@ DB '%s'
	DB	' min:%d, max:%d, index:%d', 00H		; `string'
CONST	ENDS
;	COMDAT __CT??_R0?AVbad_alloc@std@@@8??0bad_alloc@std@@QAE@ABV01@@Z12
xdata$x	SEGMENT
__CT??_R0?AVbad_alloc@std@@@8??0bad_alloc@std@@QAE@ABV01@@Z12 DD 010H
	DD	FLAT:??_R0?AVbad_alloc@std@@@8
	DD	00H
	DD	0ffffffffH
	ORG $+4
	DD	0cH
	DD	FLAT:??0bad_alloc@std@@QAE@ABV01@@Z
xdata$x	ENDS
;	COMDAT ??_R0?AVbad_alloc@std@@@8
data$r	SEGMENT
??_R0?AVbad_alloc@std@@@8 DD FLAT:??_7type_info@@6B@	; std::bad_alloc `RTTI Type Descriptor'
	DD	00H
	DB	'.?AVbad_alloc@std@@', 00H
data$r	ENDS
;	COMDAT __CT??_R0?AVbad_array_new_length@std@@@8??0bad_array_new_length@std@@QAE@ABV01@@Z12
xdata$x	SEGMENT
__CT??_R0?AVbad_array_new_length@std@@@8??0bad_array_new_length@std@@QAE@ABV01@@Z12 DD 00H
	DD	FLAT:??_R0?AVbad_array_new_length@std@@@8
	DD	00H
	DD	0ffffffffH
	ORG $+4
	DD	0cH
	DD	FLAT:??0bad_array_new_length@std@@QAE@ABV01@@Z
xdata$x	ENDS
;	COMDAT ??_R0?AVbad_array_new_length@std@@@8
data$r	SEGMENT
??_R0?AVbad_array_new_length@std@@@8 DD FLAT:??_7type_info@@6B@ ; std::bad_array_new_length `RTTI Type Descriptor'
	DD	00H
	DB	'.?AVbad_array_new_length@std@@', 00H
data$r	ENDS
;	COMDAT __CTA3?AVbad_array_new_length@std@@
xdata$x	SEGMENT
__CTA3?AVbad_array_new_length@std@@ DD 03H
	DD	FLAT:__CT??_R0?AVbad_array_new_length@std@@@8??0bad_array_new_length@std@@QAE@ABV01@@Z12
	DD	FLAT:__CT??_R0?AVbad_alloc@std@@@8??0bad_alloc@std@@QAE@ABV01@@Z12
	DD	FLAT:__CT??_R0?AVexception@std@@@8??0exception@std@@QAE@ABV01@@Z12
xdata$x	ENDS
;	COMDAT __TI3?AVbad_array_new_length@std@@
xdata$x	SEGMENT
__TI3?AVbad_array_new_length@std@@ DD 00H
	DD	FLAT:??1bad_array_new_length@std@@UAE@XZ
	DD	00H
	DD	FLAT:__CTA3?AVbad_array_new_length@std@@
xdata$x	ENDS
;	COMDAT __CT??_R0?AVexception@std@@@8??0exception@std@@QAE@ABV01@@Z12
xdata$x	SEGMENT
__CT??_R0?AVexception@std@@@8??0exception@std@@QAE@ABV01@@Z12 DD 00H
	DD	FLAT:??_R0?AVexception@std@@@8
	DD	00H
	DD	0ffffffffH
	ORG $+4
	DD	0cH
	DD	FLAT:??0exception@std@@QAE@ABV01@@Z
xdata$x	ENDS
;	COMDAT ??_R0?AVexception@std@@@8
data$r	SEGMENT
??_R0?AVexception@std@@@8 DD FLAT:??_7type_info@@6B@	; std::exception `RTTI Type Descriptor'
	DD	00H
	DB	'.?AVexception@std@@', 00H
data$r	ENDS
;	COMDAT ??_C@_0BF@KINCDENJ@bad?5array?5new?5length@
CONST	SEGMENT
??_C@_0BF@KINCDENJ@bad?5array?5new?5length@ DB 'bad array new length', 00H ; `string'
CONST	ENDS
;	COMDAT ??_7bad_array_new_length@std@@6B@
CONST	SEGMENT
??_7bad_array_new_length@std@@6B@ DD FLAT:??_R4bad_array_new_length@std@@6B@ ; std::bad_array_new_length::`vftable'
	DD	FLAT:??_Ebad_array_new_length@std@@UAEPAXI@Z
	DD	FLAT:?what@exception@std@@UBEPBDXZ
CONST	ENDS
;	COMDAT ??_7bad_alloc@std@@6B@
CONST	SEGMENT
??_7bad_alloc@std@@6B@ DD FLAT:??_R4bad_alloc@std@@6B@	; std::bad_alloc::`vftable'
	DD	FLAT:??_Ebad_alloc@std@@UAEPAXI@Z
	DD	FLAT:?what@exception@std@@UBEPBDXZ
CONST	ENDS
;	COMDAT ??_C@_0BC@EOODALEL@Unknown?5exception@
CONST	SEGMENT
??_C@_0BC@EOODALEL@Unknown?5exception@ DB 'Unknown exception', 00H ; `string'
CONST	ENDS
;	COMDAT ??_7exception@std@@6B@
CONST	SEGMENT
??_7exception@std@@6B@ DD FLAT:??_R4exception@std@@6B@	; std::exception::`vftable'
	DD	FLAT:??_Eexception@std@@UAEPAXI@Z
	DD	FLAT:?what@exception@std@@UBEPBDXZ
CONST	ENDS
;	COMDAT ??_C@_00CNPNBAHC@@
CONST	SEGMENT
??_C@_00CNPNBAHC@@ DB 00H				; `string'
CONST	ENDS
;	COMDAT ??_C@_02DPKJAMEF@?$CFd@
CONST	SEGMENT
??_C@_02DPKJAMEF@?$CFd@ DB '%d', 00H			; `string'
CONST	ENDS
; Function compile flags: /Ogtp
; File C:\IAGOS\server\v18\Source\Source\_Common\MoverParam.cpp
; File C:\IAGOS\server\v18\Source\Source\_Common\Project.h
; File C:\IAGOS\server\v18\Source\Source\_Common\data.h
; File C:\IAGOS\server\v18\Source\Source\_Common\MoverParam.cpp
; File C:\IAGOS\server\v18\Source\Source\_Common\Project.h
; File C:\IAGOS\server\v18\Source\Source\_Common\MoverParam.cpp
;	COMDAT ?IsActive@@YAHPAVCMover@@K@Z
_TEXT	SEGMENT
_pMover$ = 8						; size = 4
_dwSkill$ = 12						; size = 4
?IsActive@@YAHPAVCMover@@K@Z PROC			; IsActive, COMDAT

; 216  : {

  00000	55		 push	 ebp
  00001	8b ec		 mov	 ebp, esp
  00003	53		 push	 ebx
  00004	56		 push	 esi
  00005	8b 75 08	 mov	 esi, DWORD PTR _pMover$[ebp]

; 217  : 	LPSKILL pSkill = pMover->GetSkill( dwSkill );

  00008	8b ce		 mov	 ecx, esi
  0000a	57		 push	 edi
  0000b	8b 7d 0c	 mov	 edi, DWORD PTR _dwSkill$[ebp]
  0000e	57		 push	 edi
  0000f	e8 00 00 00 00	 call	 ?GetSkill@CMover@@QAEPAUtagSkill@@K@Z ; CMover::GetSkill

; 218  : 	if( pSkill == NULL )

  00014	85 c0		 test	 eax, eax
  00016	0f 84 5f 01 00
	00		 je	 $LN34@IsActive
; File C:\IAGOS\server\v18\Source\Source\_Common\Project.h

; 1395 : 	VERIFY_RANGE( nIndex, 0, m_aPropSkill.GetSize(), "GetSkillProp range_error", NULL );

  0001c	a1 64 02 00 00	 mov	 eax, DWORD PTR ?prj@@3VCProject@@A+612
  00021	85 ff		 test	 edi, edi
  00023	0f 88 3c 01 00
	00		 js	 $LN21@IsActive
  00029	3b f8		 cmp	 edi, eax
  0002b	0f 8d 34 01 00
	00		 jge	 $LN21@IsActive
; File C:\IAGOS\server\v18\Source\Source\_Common\data.h

; 270  : 	if( dwIndex >= (DWORD)m_nMaxIndex )

  00031	72 04		 jb	 SHORT $LN26@IsActive

; 271  : 		return NULL;

  00033	33 ff		 xor	 edi, edi
  00035	eb 08		 jmp	 SHORT $LN25@IsActive
$LN26@IsActive:

; 272  : 	return (T*) m_apOffset[ dwIndex ];

  00037	a1 54 02 00 00	 mov	 eax, DWORD PTR ?prj@@3VCProject@@A+596
  0003c	8b 3c b8	 mov	 edi, DWORD PTR [eax+edi*4]
$LN25@IsActive:
; File C:\IAGOS\server\v18\Source\Source\_Common\MoverParam.cpp

; 222  : 	if( pSkillProp == NULL )

  0003f	85 ff		 test	 edi, edi
  00041	0f 84 34 01 00
	00		 je	 $LN34@IsActive

; 223  : 		return FALSE;
; 224  : 
; 225  : 	if( pSkillProp->dwReSkill1 != NULL_ID )

  00047	8b 87 84 01 00
	00		 mov	 eax, DWORD PTR [edi+388]
  0004d	83 f8 ff	 cmp	 eax, -1
  00050	74 68		 je	 SHORT $LN30@IsActive

; 226  : 	{
; 227  : 		LPSKILL pSkill1;
; 228  : 		ItemProp* pSkillProp1;
; 229  : 
; 230  : 		pSkill1		= pMover->GetSkill( pSkillProp->dwReSkill1 );

  00052	50		 push	 eax
  00053	8b ce		 mov	 ecx, esi
  00055	e8 00 00 00 00	 call	 ?GetSkill@CMover@@QAEPAUtagSkill@@K@Z ; CMover::GetSkill
  0005a	8b d8		 mov	 ebx, eax

; 231  : 		if( pSkill1 == NULL )

  0005c	85 db		 test	 ebx, ebx
  0005e	0f 84 17 01 00
	00		 je	 $LN34@IsActive

; 232  : 			return FALSE;
; 233  : 
; 234  : 		pSkillProp1 = prj.GetSkillProp( pSkill1->dwSkill );

  00064	ff 33		 push	 DWORD PTR [ebx]
  00066	b9 00 00 00 00	 mov	 ecx, OFFSET ?prj@@3VCProject@@A ; prj
  0006b	e8 00 00 00 00	 call	 ?GetSkillProp@CProject@@QAEPAUItemProp@@H@Z ; CProject::GetSkillProp

; 235  : 		if( pSkillProp1 == NULL )

  00070	85 c0		 test	 eax, eax
  00072	0f 84 03 01 00
	00		 je	 $LN34@IsActive

; 236  : 			return FALSE;
; 237  : 
; 238  : #if __VER >= 10 // __LEGEND	//	9Â÷ Ŕü˝Â˝Ă˝şĹŰ	Neuz, World, Trans
; 239  : #ifdef __3RD_LEGEND16
; 240  : 		if( (int)( pSkillProp1->dwReqDisLV ) > pMover->GetLevel() && !pMover->IsMaster() && !pMover->IsHero() && !pMover->IsLegendHero() )

  00078	8b 80 80 01 00
	00		 mov	 eax, DWORD PTR [eax+384]
  0007e	3b 86 d8 05 00
	00		 cmp	 eax, DWORD PTR [esi+1496]
  00084	7e 25		 jle	 SHORT $LN7@IsActive
  00086	8b ce		 mov	 ecx, esi
  00088	e8 00 00 00 00	 call	 ?IsMaster@CMover@@QAEHXZ ; CMover::IsMaster
  0008d	85 c0		 test	 eax, eax
  0008f	75 1a		 jne	 SHORT $LN7@IsActive
  00091	8b ce		 mov	 ecx, esi
  00093	e8 00 00 00 00	 call	 ?IsHero@CMover@@QAEHXZ	; CMover::IsHero
  00098	85 c0		 test	 eax, eax
  0009a	75 0f		 jne	 SHORT $LN7@IsActive
  0009c	8b ce		 mov	 ecx, esi
  0009e	e8 00 00 00 00	 call	 ?IsLegendHero@CMover@@QAEHXZ ; CMover::IsLegendHero
  000a3	85 c0		 test	 eax, eax
  000a5	0f 84 d0 00 00
	00		 je	 $LN34@IsActive
$LN7@IsActive:

; 241  : #else // __3RD_LEGEND16
; 242  : 		if( (int)( pSkillProp1->dwReqDisLV ) > pMover->GetLevel() && !pMover->IsMaster() && !pMover->IsHero() )
; 243  : #endif // __3RD_LEGEND16
; 244  : 			return FALSE;
; 245  : #else //__LEGEND	//	9Â÷ Ŕü˝Â˝Ă˝şĹŰ	Neuz, World, Trans
; 246  : 		if( pSkillProp1->dwReqDisLV > pMover->GetLevel() )
; 247  : 			return FALSE;
; 248  : #endif	//__LEGEND	//	9Â÷ Ŕü˝Â˝Ă˝şĹŰ	Neuz, World, Trans
; 249  : 		
; 250  : 		if( pSkillProp->dwReSkillLevel1 != pSkill1->dwLevel )

  000ab	8b 87 88 01 00
	00		 mov	 eax, DWORD PTR [edi+392]
  000b1	3b 43 04	 cmp	 eax, DWORD PTR [ebx+4]
  000b4	0f 85 c1 00 00
	00		 jne	 $LN34@IsActive
$LN30@IsActive:

; 251  : 			return FALSE;
; 252  : 	}
; 253  : 
; 254  : 	if( pSkillProp->dwReSkill2 != NULL_ID )

  000ba	8b 87 8c 01 00
	00		 mov	 eax, DWORD PTR [edi+396]
  000c0	83 f8 ff	 cmp	 eax, -1
  000c3	74 60		 je	 SHORT $LN32@IsActive

; 255  : 	{
; 256  : 		LPSKILL pSkill1;
; 257  : 		ItemProp* pSkillProp1;
; 258  : 		
; 259  : 		pSkill1		= pMover->GetSkill( pSkillProp->dwReSkill2 );

  000c5	50		 push	 eax
  000c6	8b ce		 mov	 ecx, esi
  000c8	e8 00 00 00 00	 call	 ?GetSkill@CMover@@QAEPAUtagSkill@@K@Z ; CMover::GetSkill
  000cd	8b d8		 mov	 ebx, eax

; 260  : 		if( pSkill1 == NULL )

  000cf	85 db		 test	 ebx, ebx
  000d1	0f 84 a4 00 00
	00		 je	 $LN34@IsActive

; 261  : 			return FALSE;
; 262  : 	
; 263  : 		pSkillProp1 = prj.GetSkillProp( pSkill1->dwSkill );

  000d7	ff 33		 push	 DWORD PTR [ebx]
  000d9	b9 00 00 00 00	 mov	 ecx, OFFSET ?prj@@3VCProject@@A ; prj
  000de	e8 00 00 00 00	 call	 ?GetSkillProp@CProject@@QAEPAUItemProp@@H@Z ; CProject::GetSkillProp

; 264  : 		if( pSkillProp1 == NULL )

  000e3	85 c0		 test	 eax, eax
  000e5	0f 84 90 00 00
	00		 je	 $LN34@IsActive

; 265  : 			return FALSE;
; 266  : #if __VER >= 10 // __LEGEND	//	9Â÷ Ŕü˝Â˝Ă˝şĹŰ	Neuz, World, Trans
; 267  : #ifdef __3RD_LEGEND16
; 268  : 		if( (int)( pSkillProp1->dwReqDisLV ) > pMover->GetLevel() && !pMover->IsMaster() && !pMover->IsHero() && !pMover->IsLegendHero() )

  000eb	8b 80 80 01 00
	00		 mov	 eax, DWORD PTR [eax+384]
  000f1	3b 86 d8 05 00
	00		 cmp	 eax, DWORD PTR [esi+1496]
  000f7	7e 21		 jle	 SHORT $LN12@IsActive
  000f9	8b ce		 mov	 ecx, esi
  000fb	e8 00 00 00 00	 call	 ?IsMaster@CMover@@QAEHXZ ; CMover::IsMaster
  00100	85 c0		 test	 eax, eax
  00102	75 16		 jne	 SHORT $LN12@IsActive
  00104	8b ce		 mov	 ecx, esi
  00106	e8 00 00 00 00	 call	 ?IsHero@CMover@@QAEHXZ	; CMover::IsHero
  0010b	85 c0		 test	 eax, eax
  0010d	75 0b		 jne	 SHORT $LN12@IsActive
  0010f	8b ce		 mov	 ecx, esi
  00111	e8 00 00 00 00	 call	 ?IsLegendHero@CMover@@QAEHXZ ; CMover::IsLegendHero
  00116	85 c0		 test	 eax, eax
  00118	74 61		 je	 SHORT $LN34@IsActive
$LN12@IsActive:

; 269  : #else // __3RD_LEGEND16
; 270  : 		if( (int)( pSkillProp1->dwReqDisLV ) > pMover->GetLevel() && !pMover->IsMaster() && !pMover->IsHero() )
; 271  : #endif // __3RD_LEGEND16
; 272  : 			return FALSE;
; 273  : #else //__LEGEND	//	9Â÷ Ŕü˝Â˝Ă˝şĹŰ	Neuz, World, Trans
; 274  : 		if( pSkillProp1->dwReqDisLV > pMover->GetLevel() )
; 275  : 			return FALSE;
; 276  : #endif	//__LEGEND	//	9Â÷ Ŕü˝Â˝Ă˝şĹŰ	Neuz, World, Trans
; 277  : 		
; 278  : 		if( pSkillProp->dwReSkillLevel2 != pSkill1->dwLevel )

  0011a	8b 87 90 01 00
	00		 mov	 eax, DWORD PTR [edi+400]
  00120	3b 43 04	 cmp	 eax, DWORD PTR [ebx+4]
  00123	75 56		 jne	 SHORT $LN34@IsActive
$LN32@IsActive:

; 279  : 			return FALSE;		
; 280  : 	}
; 281  : #if __VER >= 10 // __LEGEND	//	9Â÷ Ŕü˝Â˝Ă˝şĹŰ	Neuz, World, Trans
; 282  : #ifdef __3RD_LEGEND16
; 283  : 		if( (int)( pSkillProp->dwReqDisLV ) > pMover->GetLevel() && !pMover->IsMaster() && !pMover->IsHero() && !pMover->IsLegendHero() )

  00125	8b 87 80 01 00
	00		 mov	 eax, DWORD PTR [edi+384]
  0012b	3b 86 d8 05 00
	00		 cmp	 eax, DWORD PTR [esi+1496]
  00131	7e 28		 jle	 SHORT $LN14@IsActive
  00133	8b ce		 mov	 ecx, esi
  00135	e8 00 00 00 00	 call	 ?IsMaster@CMover@@QAEHXZ ; CMover::IsMaster
  0013a	85 c0		 test	 eax, eax
  0013c	75 1d		 jne	 SHORT $LN14@IsActive
  0013e	8b ce		 mov	 ecx, esi
  00140	e8 00 00 00 00	 call	 ?IsHero@CMover@@QAEHXZ	; CMover::IsHero
  00145	85 c0		 test	 eax, eax
  00147	75 12		 jne	 SHORT $LN14@IsActive
  00149	8b ce		 mov	 ecx, esi
  0014b	e8 00 00 00 00	 call	 ?IsLegendHero@CMover@@QAEHXZ ; CMover::IsLegendHero
  00150	f7 d8		 neg	 eax
  00152	5f		 pop	 edi
  00153	1b c0		 sbb	 eax, eax

; 294  : }

  00155	5e		 pop	 esi
  00156	f7 d8		 neg	 eax
  00158	5b		 pop	 ebx
  00159	5d		 pop	 ebp
  0015a	c3		 ret	 0
$LN14@IsActive:
  0015b	5f		 pop	 edi
  0015c	5e		 pop	 esi
  0015d	b8 01 00 00 00	 mov	 eax, 1
  00162	5b		 pop	 ebx
  00163	5d		 pop	 ebp
  00164	c3		 ret	 0
$LN21@IsActive:
; File C:\IAGOS\server\v18\Source\Source\_Common\Project.h

; 579  : 	LPCTSTR szErr = Error( _T( "%s min:%d, max:%d, index:%d" ), szMsg, nMin, nMax, nIndex ); 

  00165	57		 push	 edi
  00166	50		 push	 eax
  00167	6a 00		 push	 0
  00169	68 00 00 00 00	 push	 OFFSET ??_C@_0BJ@GPNGCFMK@GetSkillProp?5range_error@
  0016e	68 00 00 00 00	 push	 OFFSET ??_C@_0BM@HMFGHCP@?$CFs?5min?3?$CFd?0?5max?3?$CFd?0?5index?3?$CFd@
  00173	e8 00 00 00 00	 call	 ?Error@@YAPBDPBDZZ	; Error
  00178	83 c4 14	 add	 esp, 20			; 00000014H
$LN34@IsActive:
  0017b	5f		 pop	 edi
; File C:\IAGOS\server\v18\Source\Source\_Common\MoverParam.cpp

; 294  : }

  0017c	5e		 pop	 esi
  0017d	33 c0		 xor	 eax, eax
  0017f	5b		 pop	 ebx
  00180	5d		 pop	 ebp
  00181	c3		 ret	 0
?IsActive@@YAHPAVCMover@@K@Z ENDP			; IsActive
_TEXT	ENDS
; Function compile flags: /Ogtp
; File C:\IAGOS\server\v18\Source\Source\_Common\MoverParam.cpp
; File C:\IAGOS\server\v18\Source\Source\_Common\Project.h
; File C:\IAGOS\server\v18\Source\Source\_Common\data.h
; File C:\IAGOS\server\v18\Source\Source\_Common\MoverParam.cpp
; File C:\IAGOS\server\v18\Source\Source\_Common\Project.h
; File C:\IAGOS\server\v18\Source\Source\_Common\MoverParam.cpp
;	COMDAT ?IsSkillParent@@YAHPAVCMover@@KK@Z
_TEXT	SEGMENT
_pMover$ = 8						; size = 4
_dwSkill$ = 12						; size = 4
_dwChildSkill$ = 16					; size = 4
?IsSkillParent@@YAHPAVCMover@@KK@Z PROC			; IsSkillParent, COMDAT

; 200  : {

  00000	55		 push	 ebp
  00001	8b ec		 mov	 ebp, esp

; 201  : 	LPSKILL pSkill = pMover->GetSkill( dwSkill );

  00003	8b 4d 08	 mov	 ecx, DWORD PTR _pMover$[ebp]
  00006	56		 push	 esi
  00007	8b 75 0c	 mov	 esi, DWORD PTR _dwSkill$[ebp]
  0000a	57		 push	 edi
  0000b	8b 7d 10	 mov	 edi, DWORD PTR _dwChildSkill$[ebp]
  0000e	56		 push	 esi
  0000f	e8 00 00 00 00	 call	 ?GetSkill@CMover@@QAEPAUtagSkill@@K@Z ; CMover::GetSkill

; 202  : 	if( pSkill == NULL )

  00014	85 c0		 test	 eax, eax
  00016	74 55		 je	 SHORT $LN19@IsSkillPar
; File C:\IAGOS\server\v18\Source\Source\_Common\Project.h

; 1395 : 	VERIFY_RANGE( nIndex, 0, m_aPropSkill.GetSize(), "GetSkillProp range_error", NULL );

  00018	a1 64 02 00 00	 mov	 eax, DWORD PTR ?prj@@3VCProject@@A+612
  0001d	85 f6		 test	 esi, esi
  0001f	78 36		 js	 SHORT $LN12@IsSkillPar
  00021	3b f0		 cmp	 esi, eax
  00023	7d 32		 jge	 SHORT $LN12@IsSkillPar
; File C:\IAGOS\server\v18\Source\Source\_Common\data.h

; 270  : 	if( dwIndex >= (DWORD)m_nMaxIndex )

  00025	72 04		 jb	 SHORT $LN17@IsSkillPar

; 271  : 		return NULL;

  00027	33 c9		 xor	 ecx, ecx
  00029	eb 08		 jmp	 SHORT $LN16@IsSkillPar
$LN17@IsSkillPar:

; 272  : 	return (T*) m_apOffset[ dwIndex ];

  0002b	a1 54 02 00 00	 mov	 eax, DWORD PTR ?prj@@3VCProject@@A+596
  00030	8b 0c b0	 mov	 ecx, DWORD PTR [eax+esi*4]
$LN16@IsSkillPar:
; File C:\IAGOS\server\v18\Source\Source\_Common\MoverParam.cpp

; 206  : 	if( pSkillProp == NULL )

  00033	85 c9		 test	 ecx, ecx
  00035	74 36		 je	 SHORT $LN19@IsSkillPar

; 208  : 
; 209  : 	if( pSkillProp->dwReSkill1 == dwChildSkill || pSkillProp->dwReSkill2 == dwChildSkill )

  00037	39 b9 84 01 00
	00		 cmp	 DWORD PTR [ecx+388], edi
  0003d	74 0f		 je	 SHORT $LN5@IsSkillPar
  0003f	33 c0		 xor	 eax, eax
  00041	39 b9 8c 01 00
	00		 cmp	 DWORD PTR [ecx+396], edi
  00047	5f		 pop	 edi
  00048	0f 94 c0	 sete	 al

; 211  : 
; 212  : 	return FALSE;
; 213  : }

  0004b	5e		 pop	 esi
  0004c	5d		 pop	 ebp
  0004d	c3		 ret	 0
$LN5@IsSkillPar:
  0004e	5f		 pop	 edi

; 210  : 		return TRUE;

  0004f	b8 01 00 00 00	 mov	 eax, 1

; 211  : 
; 212  : 	return FALSE;
; 213  : }

  00054	5e		 pop	 esi
  00055	5d		 pop	 ebp
  00056	c3		 ret	 0
$LN12@IsSkillPar:
; File C:\IAGOS\server\v18\Source\Source\_Common\Project.h

; 579  : 	LPCTSTR szErr = Error( _T( "%s min:%d, max:%d, index:%d" ), szMsg, nMin, nMax, nIndex ); 

  00057	56		 push	 esi
  00058	50		 push	 eax
  00059	6a 00		 push	 0
  0005b	68 00 00 00 00	 push	 OFFSET ??_C@_0BJ@GPNGCFMK@GetSkillProp?5range_error@
  00060	68 00 00 00 00	 push	 OFFSET ??_C@_0BM@HMFGHCP@?$CFs?5min?3?$CFd?0?5max?3?$CFd?0?5index?3?$CFd@
  00065	e8 00 00 00 00	 call	 ?Error@@YAPBDPBDZZ	; Error
  0006a	83 c4 14	 add	 esp, 20			; 00000014H
$LN19@IsSkillPar:
  0006d	5f		 pop	 edi
; File C:\IAGOS\server\v18\Source\Source\_Common\MoverParam.cpp

; 207  : 		return FALSE;

  0006e	33 c0		 xor	 eax, eax

; 211  : 
; 212  : 	return FALSE;
; 213  : }

  00070	5e		 pop	 esi
  00071	5d		 pop	 ebp
  00072	c3		 ret	 0
?IsSkillParent@@YAHPAVCMover@@KK@Z ENDP			; IsSkillParent
_TEXT	ENDS
; Function compile flags: /Ogtp
; File C:\Program Files\Microsoft Visual Studio\2022\Professional\VC\Tools\MSVC\14.44.35207\include\xmemory
;	COMDAT ??$_Allocate_manually_vector_aligned@U_Default_allocate_traits@std@@@std@@YAPAXI@Z
_TEXT	SEGMENT
__Bytes$ = 8						; size = 4
??$_Allocate_manually_vector_aligned@U_Default_allocate_traits@std@@@std@@YAPAXI@Z PROC ; std::_Allocate_manually_vector_aligned<std::_Default_allocate_traits>, COMDAT

; 182  : __declspec(allocator) void* _Allocate_manually_vector_aligned(const size_t _Bytes) {

  00000	55		 push	 ebp
  00001	8b ec		 mov	 ebp, esp

; 183  :     // allocate _Bytes manually aligned to at least _Big_allocation_alignment
; 184  :     const size_t _Block_size = _Non_user_size + _Bytes;

  00003	8b 45 08	 mov	 eax, DWORD PTR __Bytes$[ebp]
  00006	8d 48 23	 lea	 ecx, DWORD PTR [eax+35]

; 185  :     if (_Block_size <= _Bytes) {

  00009	3b c8		 cmp	 ecx, eax
  0000b	0f 86 00 00 00
	00		 jbe	 ?_Throw_bad_array_new_length@std@@YAXXZ ; std::_Throw_bad_array_new_length

; 136  :         return ::operator new(_Bytes);

  00011	51		 push	 ecx
  00012	e8 00 00 00 00	 call	 ??2@YAPAXI@Z		; operator new

; 186  :         _Throw_bad_array_new_length(); // add overflow
; 187  :     }
; 188  : 
; 189  :     const uintptr_t _Ptr_container = reinterpret_cast<uintptr_t>(_Traits::_Allocate(_Block_size));

  00017	8b c8		 mov	 ecx, eax

; 136  :         return ::operator new(_Bytes);

  00019	83 c4 04	 add	 esp, 4

; 190  :     _STL_VERIFY(_Ptr_container != 0, "invalid argument"); // validate even in release since we're doing p[-1]

  0001c	85 c9		 test	 ecx, ecx
  0001e	74 0b		 je	 SHORT $LN9@Allocate_m

; 191  :     void* const _Ptr = reinterpret_cast<void*>((_Ptr_container + _Non_user_size) & ~(_Big_allocation_alignment - 1));

  00020	8d 41 23	 lea	 eax, DWORD PTR [ecx+35]
  00023	83 e0 e0	 and	 eax, -32		; ffffffe0H

; 192  :     static_cast<uintptr_t*>(_Ptr)[-1] = _Ptr_container;

  00026	89 48 fc	 mov	 DWORD PTR [eax-4], ecx

; 193  : 
; 194  : #ifdef _DEBUG
; 195  :     static_cast<uintptr_t*>(_Ptr)[-2] = _Big_allocation_sentinel;
; 196  : #endif // defined(_DEBUG)
; 197  :     return _Ptr;
; 198  : }

  00029	5d		 pop	 ebp
  0002a	c3		 ret	 0
$LN9@Allocate_m:

; 190  :     _STL_VERIFY(_Ptr_container != 0, "invalid argument"); // validate even in release since we're doing p[-1]

  0002b	6a 00		 push	 0
  0002d	6a 00		 push	 0
  0002f	6a 00		 push	 0
  00031	6a 00		 push	 0
  00033	6a 00		 push	 0
  00035	e8 00 00 00 00	 call	 __invoke_watson
$LN7@Allocate_m:
  0003a	cc		 int	 3
??$_Allocate_manually_vector_aligned@U_Default_allocate_traits@std@@@std@@YAPAXI@Z ENDP ; std::_Allocate_manually_vector_aligned<std::_Default_allocate_traits>
_TEXT	ENDS
; Function compile flags: /Ogtp
; File C:\Program Files\Microsoft Visual Studio\2022\Professional\VC\Tools\MSVC\14.44.35207\include\xutility
;	COMDAT ??$_Copy_memmove_tail@PAJ@std@@YAPAJQBDQAJII@Z
_TEXT	SEGMENT
__First_ch$ = 8						; size = 4
__Dest$ = 12						; size = 4
__Byte_count$ = 16					; size = 4
__Object_count$ = 20					; size = 4
??$_Copy_memmove_tail@PAJ@std@@YAPAJQBDQAJII@Z PROC	; std::_Copy_memmove_tail<long *>, COMDAT

; 4747 :     const char* const _First_ch, const _OutCtgIt _Dest, const size_t _Byte_count, const size_t _Object_count) {

  00000	55		 push	 ebp
  00001	8b ec		 mov	 ebp, esp
  00003	56		 push	 esi

; 4748 :     _STL_INTERNAL_CHECK(_Byte_count == _Object_count * sizeof(*_Dest));
; 4749 :     const auto _Dest_ptr = _STD _To_address(_Dest);
; 4750 :     const auto _Dest_ch  = const_cast<char*>(reinterpret_cast<const volatile char*>(_Dest_ptr));
; 4751 :     _CSTD memmove(_Dest_ch, _First_ch, _Byte_count);

  00004	8b 75 0c	 mov	 esi, DWORD PTR __Dest$[ebp]
  00007	57		 push	 edi
  00008	8b 7d 10	 mov	 edi, DWORD PTR __Byte_count$[ebp]
  0000b	57		 push	 edi
  0000c	ff 75 08	 push	 DWORD PTR __First_ch$[ebp]
  0000f	56		 push	 esi
  00010	e8 00 00 00 00	 call	 _memmove
  00015	83 c4 0c	 add	 esp, 12			; 0000000cH

; 4752 :     if constexpr (is_pointer_v<_OutCtgIt>) {
; 4753 :         (void) _Object_count;
; 4754 :         // CodeQL [SM02986] This cast is correct: we're bypassing pointer arithmetic for performance.
; 4755 :         return reinterpret_cast<_OutCtgIt>(_Dest_ch + _Byte_count);

  00018	8d 04 3e	 lea	 eax, DWORD PTR [esi+edi]
  0001b	5f		 pop	 edi
  0001c	5e		 pop	 esi

; 4756 :     } else {
; 4757 :         return _Dest + static_cast<_Iter_diff_t<_OutCtgIt>>(_Object_count);
; 4758 :     }
; 4759 : }

  0001d	5d		 pop	 ebp
  0001e	c3		 ret	 0
??$_Copy_memmove_tail@PAJ@std@@YAPAJQBDQAJII@Z ENDP	; std::_Copy_memmove_tail<long *>
_TEXT	ENDS
; Function compile flags: /Ogtp
; File C:\Program Files\Microsoft Visual Studio\2022\Professional\VC\Tools\MSVC\14.44.35207\include\xutility
;	COMDAT ??$_Copy_memmove@PAJPAJ@std@@YAPAJPAJ00@Z
_TEXT	SEGMENT
__First$ = 8						; size = 4
__Last$ = 12						; size = 4
__Dest$ = 16						; size = 4
??$_Copy_memmove@PAJPAJ@std@@YAPAJPAJ00@Z PROC		; std::_Copy_memmove<long *,long *>, COMDAT

; 4762 : _OutCtgIt _Copy_memmove(_CtgIt _First, _CtgIt _Last, _OutCtgIt _Dest) {

  00000	55		 push	 ebp
  00001	8b ec		 mov	 ebp, esp

; 4763 :     _STL_INTERNAL_CHECK(_First <= _Last);
; 4764 :     const auto _First_ptr    = _STD _To_address(_First);
; 4765 :     const auto _Last_ptr     = _STD _To_address(_Last);
; 4766 :     const auto _Object_count = static_cast<size_t>(_Last_ptr - _First_ptr);

  00003	8b 55 08	 mov	 edx, DWORD PTR __First$[ebp]
  00006	8b 4d 0c	 mov	 ecx, DWORD PTR __Last$[ebp]
  00009	2b ca		 sub	 ecx, edx
  0000b	8b c1		 mov	 eax, ecx
  0000d	c1 f8 02	 sar	 eax, 2

; 4767 :     const auto _First_ch     = const_cast<const char*>(reinterpret_cast<const volatile char*>(_First_ptr));
; 4768 :     const auto _Last_ch      = const_cast<const char*>(reinterpret_cast<const volatile char*>(_Last_ptr));
; 4769 :     const auto _Byte_count   = static_cast<size_t>(_Last_ch - _First_ch);
; 4770 :     return _STD _Copy_memmove_tail(_First_ch, _STD move(_Dest), _Byte_count, _Object_count);

  00010	50		 push	 eax
  00011	51		 push	 ecx
  00012	ff 75 10	 push	 DWORD PTR __Dest$[ebp]
  00015	52		 push	 edx
  00016	e8 00 00 00 00	 call	 ??$_Copy_memmove_tail@PAJ@std@@YAPAJQBDQAJII@Z ; std::_Copy_memmove_tail<long *>
  0001b	83 c4 10	 add	 esp, 16			; 00000010H

; 4771 : }

  0001e	5d		 pop	 ebp
  0001f	c3		 ret	 0
??$_Copy_memmove@PAJPAJ@std@@YAPAJPAJ00@Z ENDP		; std::_Copy_memmove<long *,long *>
_TEXT	ENDS
; Function compile flags: /Ogtp
; File C:\Program Files\Microsoft Visual Studio\2022\Professional\VC\Tools\MSVC\14.44.35207\include\xutility
;	COMDAT ??$_Fill_zero_memset@PAJ@std@@YAXPAJI@Z
_TEXT	SEGMENT
__Dest$ = 8						; size = 4
__Count$ = 12						; size = 4
??$_Fill_zero_memset@PAJ@std@@YAXPAJI@Z PROC		; std::_Fill_zero_memset<long *>, COMDAT

; 5269 : void _Fill_zero_memset(_CtgIt _Dest, const size_t _Count) {

  00000	55		 push	 ebp
  00001	8b ec		 mov	 ebp, esp

; 5270 :     _CSTD memset(_STD _To_address(_Dest), 0, _Count * sizeof(_Iter_value_t<_CtgIt>));

  00003	8b 45 0c	 mov	 eax, DWORD PTR __Count$[ebp]
  00006	c1 e0 02	 shl	 eax, 2
  00009	50		 push	 eax
  0000a	6a 00		 push	 0
  0000c	ff 75 08	 push	 DWORD PTR __Dest$[ebp]
  0000f	e8 00 00 00 00	 call	 _memset
  00014	83 c4 0c	 add	 esp, 12			; 0000000cH

; 5271 : }

  00017	5d		 pop	 ebp
  00018	c3		 ret	 0
??$_Fill_zero_memset@PAJ@std@@YAXPAJI@Z ENDP		; std::_Fill_zero_memset<long *>
_TEXT	ENDS
; Function compile flags: /Ogtp
; File C:\Program Files\Microsoft Visual Studio\2022\Professional\VC\Tools\MSVC\14.44.35207\include\xutility
;	COMDAT ??$_Is_all_bits_zero@J@std@@YA_NABJ@Z
_TEXT	SEGMENT
__Zero$1 = -4						; size = 4
__Val$ = 8						; size = 4
??$_Is_all_bits_zero@J@std@@YA_NABJ@Z PROC		; std::_Is_all_bits_zero<long>, COMDAT

; 5274 : _NODISCARD bool _Is_all_bits_zero(const _Ty& _Val) {

  00000	55		 push	 ebp
  00001	8b ec		 mov	 ebp, esp
  00003	51		 push	 ecx

; 5275 :     // checks if scalar type has all bits set to zero
; 5276 :     _STL_INTERNAL_STATIC_ASSERT(is_scalar_v<_Ty> && !is_member_pointer_v<_Ty>);
; 5277 :     if constexpr (is_same_v<_Ty, nullptr_t>) {
; 5278 :         return true;
; 5279 :     } else {
; 5280 :         constexpr _Ty _Zero{};
; 5281 :         return _CSTD memcmp(&_Val, &_Zero, sizeof(_Ty)) == 0;

  00004	8b 45 08	 mov	 eax, DWORD PTR __Val$[ebp]
  00007	8d 4d fc	 lea	 ecx, DWORD PTR __Zero$1[ebp]
  0000a	c7 45 fc 00 00
	00 00		 mov	 DWORD PTR __Zero$1[ebp], 0
  00011	8b 00		 mov	 eax, DWORD PTR [eax]
  00013	3b 01		 cmp	 eax, DWORD PTR [ecx]
  00015	0f 94 c0	 sete	 al

; 5282 :     }
; 5283 : }

  00018	8b e5		 mov	 esp, ebp
  0001a	5d		 pop	 ebp
  0001b	c3		 ret	 0
??$_Is_all_bits_zero@J@std@@YA_NABJ@Z ENDP		; std::_Is_all_bits_zero<long>
_TEXT	ENDS
; Function compile flags: /Ogtp
; File C:\Program Files\Microsoft Visual Studio\2022\Professional\VC\Tools\MSVC\14.44.35207\include\xmemory
;	COMDAT ??$_Uninitialized_fill_n@V?$allocator@J@std@@@std@@YAPAJPAJIABJAAV?$allocator@J@0@@Z
_TEXT	SEGMENT
__First$ = 8						; size = 4
__Count$ = 12						; size = 4
__Val$ = 16						; size = 4
__Al$ = 20						; size = 4
??$_Uninitialized_fill_n@V?$allocator@J@std@@@std@@YAPAJPAJIABJAAV?$allocator@J@0@@Z PROC ; std::_Uninitialized_fill_n<std::allocator<long> >, COMDAT

; 2007 :     _Alloc_ptr_t<_Alloc> _First, _Alloc_size_t<_Alloc> _Count, const typename _Alloc::value_type& _Val, _Alloc& _Al) {

  00000	55		 push	 ebp
  00001	8b ec		 mov	 ebp, esp
  00003	56		 push	 esi

; 2008 :     // copy _Count copies of _Val to raw _First, using _Al
; 2009 :     using _Ty = typename _Alloc::value_type;
; 2010 :     if constexpr (_Fill_memset_is_safe<_Ty*, _Ty> && _Uses_default_construct<_Alloc, _Ty*, _Ty>::value) {
; 2011 : #if _HAS_CXX20
; 2012 :         if (!_STD is_constant_evaluated())
; 2013 : #endif // _HAS_CXX20
; 2014 :         {
; 2015 :             _Fill_memset(_Unfancy(_First), _Val, static_cast<size_t>(_Count));
; 2016 :             return _First + _Count;
; 2017 :         }
; 2018 :     } else if constexpr (_Fill_zero_memset_is_safe<_Ty*, _Ty> && _Uses_default_construct<_Alloc, _Ty*, _Ty>::value) {
; 2019 : #if _HAS_CXX20
; 2020 :         if (!_STD is_constant_evaluated())
; 2021 : #endif // _HAS_CXX20
; 2022 :         {
; 2023 :             if (_Is_all_bits_zero(_Val)) {

  00004	8b 75 10	 mov	 esi, DWORD PTR __Val$[ebp]
  00007	56		 push	 esi
  00008	e8 00 00 00 00	 call	 ??$_Is_all_bits_zero@J@std@@YA_NABJ@Z ; std::_Is_all_bits_zero<long>
  0000d	83 c4 04	 add	 esp, 4
  00010	84 c0		 test	 al, al
  00012	74 18		 je	 SHORT $LN5@Uninitiali

; 2024 :                 _Fill_zero_memset(_Unfancy(_First), static_cast<size_t>(_Count));

  00014	8b 75 08	 mov	 esi, DWORD PTR __First$[ebp]
  00017	57		 push	 edi
  00018	8b 7d 0c	 mov	 edi, DWORD PTR __Count$[ebp]
  0001b	57		 push	 edi
  0001c	56		 push	 esi
  0001d	e8 00 00 00 00	 call	 ??$_Fill_zero_memset@PAJ@std@@YAXPAJI@Z ; std::_Fill_zero_memset<long *>
  00022	83 c4 08	 add	 esp, 8

; 2025 :                 return _First + _Count;

  00025	8d 04 be	 lea	 eax, DWORD PTR [esi+edi*4]
  00028	5f		 pop	 edi
  00029	5e		 pop	 esi

; 2032 :         _Backout._Emplace_back(_Val);
; 2033 :     }
; 2034 : 
; 2035 :     return _Backout._Release();
; 2036 : }

  0002a	5d		 pop	 ebp
  0002b	c3		 ret	 0
$LN5@Uninitiali:

; 2026 :             }
; 2027 :         }
; 2028 :     }
; 2029 : 
; 2030 :     _Uninitialized_backout_al<_Alloc> _Backout{_First, _Al};
; 2031 :     for (; 0 < _Count; --_Count) {

  0002c	8b 55 0c	 mov	 edx, DWORD PTR __Count$[ebp]

; 1833 :     _CONSTEXPR20 _Uninitialized_backout_al(pointer _Dest, _Alloc& _Al_) : _First(_Dest), _Last(_Dest), _Al(_Al_) {}

  0002f	8b 45 08	 mov	 eax, DWORD PTR __First$[ebp]

; 2026 :             }
; 2027 :         }
; 2028 :     }
; 2029 : 
; 2030 :     _Uninitialized_backout_al<_Alloc> _Backout{_First, _Al};
; 2031 :     for (; 0 < _Count; --_Count) {

  00032	85 d2		 test	 edx, edx
  00034	74 0c		 je	 SHORT $LN1@Uninitiali
$LL4@Uninitiali:

; 1844 :         allocator_traits<_Alloc>::construct(_Al, _STD _Unfancy(_Last), _STD forward<_Types>(_Vals)...);

  00036	8b 0e		 mov	 ecx, DWORD PTR [esi]
  00038	89 08		 mov	 DWORD PTR [eax], ecx

; 1845 :         ++_Last;

  0003a	83 c0 04	 add	 eax, 4

; 2026 :             }
; 2027 :         }
; 2028 :     }
; 2029 : 
; 2030 :     _Uninitialized_backout_al<_Alloc> _Backout{_First, _Al};
; 2031 :     for (; 0 < _Count; --_Count) {

  0003d	83 ea 01	 sub	 edx, 1
  00040	75 f4		 jne	 SHORT $LL4@Uninitiali
$LN1@Uninitiali:
  00042	5e		 pop	 esi

; 2032 :         _Backout._Emplace_back(_Val);
; 2033 :     }
; 2034 : 
; 2035 :     return _Backout._Release();
; 2036 : }

  00043	5d		 pop	 ebp
  00044	c3		 ret	 0
??$_Uninitialized_fill_n@V?$allocator@J@std@@@std@@YAPAJPAJIABJAAV?$allocator@J@0@@Z ENDP ; std::_Uninitialized_fill_n<std::allocator<long> >
_TEXT	ENDS
; Function compile flags: /Ogtp
; File C:\Program Files\Microsoft Visual Studio\2022\Professional\VC\Tools\MSVC\14.44.35207\include\vector
; File C:\Program Files\Microsoft Visual Studio\2022\Professional\VC\Tools\MSVC\14.44.35207\include\xmemory
; File C:\Program Files\Microsoft Visual Studio\2022\Professional\VC\Tools\MSVC\14.44.35207\include\vector
; File C:\Program Files\Microsoft Visual Studio\2022\Professional\VC\Tools\MSVC\14.44.35207\include\xmemory
; File C:\Program Files\Microsoft Visual Studio\2022\Professional\VC\Tools\MSVC\14.44.35207\include\vector
; File C:\Program Files\Microsoft Visual Studio\2022\Professional\VC\Tools\MSVC\14.44.35207\include\xmemory
; File C:\Program Files\Microsoft Visual Studio\2022\Professional\VC\Tools\MSVC\14.44.35207\include\vector
; File C:\Program Files\Microsoft Visual Studio\2022\Professional\VC\Tools\MSVC\14.44.35207\include\xmemory
; File C:\Program Files\Microsoft Visual Studio\2022\Professional\VC\Tools\MSVC\14.44.35207\include\vector
; File C:\Program Files\Microsoft Visual Studio\2022\Professional\VC\Tools\MSVC\14.44.35207\include\xmemory
; File C:\Program Files\Microsoft Visual Studio\2022\Professional\VC\Tools\MSVC\14.44.35207\include\vector
; File C:\Program Files\Microsoft Visual Studio\2022\Professional\VC\Tools\MSVC\14.44.35207\include\xmemory
; File C:\Program Files\Microsoft Visual Studio\2022\Professional\VC\Tools\MSVC\14.44.35207\include\vector
;	COMDAT ??$_Resize@J@?$vector@JV?$allocator@J@std@@@std@@AAEXIABJ@Z
_TEXT	SEGMENT
tv575 = -4						; size = 4
__Newsize$ = 8						; size = 4
$T2 = 8							; size = 4
__Val$ = 12						; size = 4
??$_Resize@J@?$vector@JV?$allocator@J@std@@@std@@AAEXIABJ@Z PROC ; std::vector<long,std::allocator<long> >::_Resize<long>, COMDAT
; _this$ = ecx

; 1589 :     _CONSTEXPR20 void _Resize(const size_type _Newsize, const _Ty2& _Val) {

  00000	55		 push	 ebp
  00001	8b ec		 mov	 ebp, esp
  00003	51		 push	 ecx
  00004	53		 push	 ebx
  00005	56		 push	 esi

; 1590 :         // trim or append elements, provide strong guarantee
; 1591 :         auto& _Al           = _Getal();
; 1592 :         auto& _My_data      = _Mypair._Myval2;
; 1593 :         pointer& _Myfirst   = _My_data._Myfirst;
; 1594 :         pointer& _Mylast    = _My_data._Mylast;
; 1595 :         const auto _Oldsize = static_cast<size_type>(_Mylast - _Myfirst);
; 1596 :         if (_Newsize < _Oldsize) { // trim

  00006	8b 75 08	 mov	 esi, DWORD PTR __Newsize$[ebp]
  00009	57		 push	 edi
  0000a	8b f9		 mov	 edi, ecx
  0000c	8b 57 04	 mov	 edx, DWORD PTR [edi+4]
  0000f	8b da		 mov	 ebx, edx
  00011	8b 07		 mov	 eax, DWORD PTR [edi]
  00013	2b d8		 sub	 ebx, eax
  00015	c1 fb 02	 sar	 ebx, 2
  00018	3b f3		 cmp	 esi, ebx
  0001a	73 0f		 jae	 SHORT $LN2@Resize

; 1597 :             const pointer _Newlast = _Myfirst + _Newsize;

  0001c	8d 04 b0	 lea	 eax, DWORD PTR [eax+esi*4]

; 1625 :     }

  0001f	89 47 04	 mov	 DWORD PTR [edi+4], eax
  00022	5f		 pop	 edi
  00023	5e		 pop	 esi
  00024	5b		 pop	 ebx
  00025	8b e5		 mov	 esp, ebp
  00027	5d		 pop	 ebp
  00028	c2 08 00	 ret	 8
$LN2@Resize:

; 1598 :             _Orphan_range(_Newlast, _Mylast);
; 1599 :             _Destroy_range(_Newlast, _Mylast, _Al);
; 1600 :             _ASAN_VECTOR_MODIFY(static_cast<difference_type>(_Newsize - _Oldsize));
; 1601 :             _Mylast = _Newlast;
; 1602 :             return;
; 1603 :         }
; 1604 : 
; 1605 :         if (_Newsize > _Oldsize) { // append

  0002b	0f 86 0e 01 00
	00		 jbe	 $LN3@Resize

; 1606 :             const auto _Oldcapacity = static_cast<size_type>(_My_data._Myend - _Myfirst);

  00031	8b 4f 08	 mov	 ecx, DWORD PTR [edi+8]
  00034	2b c8		 sub	 ecx, eax
  00036	c1 f9 02	 sar	 ecx, 2

; 1607 :             if (_Newsize > _Oldcapacity) { // reallocate

  00039	3b f1		 cmp	 esi, ecx
  0003b	0f 86 eb 00 00
	00		 jbe	 $LN4@Resize

; 1553 :         if (_Newsize > max_size()) {

  00041	81 fe ff ff ff
	3f		 cmp	 esi, 1073741823		; 3fffffffH
  00047	0f 87 fb 00 00
	00		 ja	 $LN97@Resize

; 2011 :         if (_Oldcapacity > _Max - _Oldcapacity / 2) {

  0004d	8b d1		 mov	 edx, ecx
  0004f	b8 ff ff ff 3f	 mov	 eax, 1073741823		; 3fffffffH
  00054	d1 ea		 shr	 edx, 1
  00056	2b c2		 sub	 eax, edx
  00058	3b c8		 cmp	 ecx, eax
  0005a	76 19		 jbe	 SHORT $LN11@Resize

; 2012 :             return _Max; // geometric growth would overflow

  0005c	b8 fc ff ff ff	 mov	 eax, -4			; fffffffcH
  00061	c7 45 fc fc ff
	ff ff		 mov	 DWORD PTR tv575[ebp], -4 ; fffffffcH
; File C:\Program Files\Microsoft Visual Studio\2022\Professional\VC\Tools\MSVC\14.44.35207\include\xmemory

; 253  :             return _Allocate_manually_vector_aligned<_Traits>(_Bytes);

  00068	50		 push	 eax
  00069	e8 00 00 00 00	 call	 ??$_Allocate_manually_vector_aligned@U_Default_allocate_traits@std@@@std@@YAPAXI@Z ; std::_Allocate_manually_vector_aligned<std::_Default_allocate_traits>
  0006e	8b c8		 mov	 ecx, eax
  00070	89 4d 08	 mov	 DWORD PTR $T2[ebp], ecx
  00073	eb 46		 jmp	 SHORT $LN95@Resize
$LN11@Resize:
; File C:\Program Files\Microsoft Visual Studio\2022\Professional\VC\Tools\MSVC\14.44.35207\include\vector

; 2015 :         const size_type _Geometric = _Oldcapacity + _Oldcapacity / 2;

  00075	8d 04 0a	 lea	 eax, DWORD PTR [edx+ecx]

; 2016 : 
; 2017 :         if (_Geometric < _Newsize) {

  00078	3b c6		 cmp	 eax, esi
  0007a	73 13		 jae	 SHORT $LN12@Resize

; 2018 :             return _Newsize; // geometric growth would be insufficient

  0007c	8b c6		 mov	 eax, esi
$LN22@Resize:
; File C:\Program Files\Microsoft Visual Studio\2022\Professional\VC\Tools\MSVC\14.44.35207\include\xmemory

; 122  :     return _Count * _Ty_size;

  0007e	c1 e0 02	 shl	 eax, 2
  00081	89 45 fc	 mov	 DWORD PTR tv575[ebp], eax

; 227  :     if (_Bytes == 0) {

  00084	85 c0		 test	 eax, eax
  00086	75 14		 jne	 SHORT $LN26@Resize

; 228  :         return nullptr;

  00088	33 c9		 xor	 ecx, ecx
  0008a	89 4d 08	 mov	 DWORD PTR $T2[ebp], ecx
  0008d	eb 2f		 jmp	 SHORT $LN25@Resize
$LN12@Resize:

; 117  :         if (_Count > _Max_possible) {

  0008f	3d ff ff ff 3f	 cmp	 eax, 1073741823		; 3fffffffH
  00094	0f 87 b3 00 00
	00		 ja	 $LN98@Resize
  0009a	eb e2		 jmp	 SHORT $LN22@Resize
$LN26@Resize:

; 251  :         if (_Bytes >= _Big_allocation_threshold) {

  0009c	3d 00 10 00 00	 cmp	 eax, 4096		; 00001000H
  000a1	72 0d		 jb	 SHORT $LN27@Resize

; 253  :             return _Allocate_manually_vector_aligned<_Traits>(_Bytes);

  000a3	50		 push	 eax
  000a4	e8 00 00 00 00	 call	 ??$_Allocate_manually_vector_aligned@U_Default_allocate_traits@std@@@std@@YAPAXI@Z ; std::_Allocate_manually_vector_aligned<std::_Default_allocate_traits>
  000a9	8b c8		 mov	 ecx, eax
  000ab	89 4d 08	 mov	 DWORD PTR $T2[ebp], ecx
  000ae	eb 0b		 jmp	 SHORT $LN95@Resize
$LN27@Resize:

; 136  :         return ::operator new(_Bytes);

  000b0	50		 push	 eax
  000b1	e8 00 00 00 00	 call	 ??2@YAPAXI@Z		; operator new

; 256  :         return _Traits::_Allocate(_Bytes);

  000b6	8b c8		 mov	 ecx, eax
  000b8	89 45 08	 mov	 DWORD PTR $T2[ebp], eax
$LN95@Resize:
; File C:\Program Files\Microsoft Visual Studio\2022\Professional\VC\Tools\MSVC\14.44.35207\include\vector

; 1572 :             _Appended_last = _Uninitialized_fill_n(_Appended_first, _Newsize - _Oldsize, _Val, _Al);

  000bb	83 c4 04	 add	 esp, 4
$LN25@Resize:
  000be	57		 push	 edi
  000bf	ff 75 0c	 push	 DWORD PTR __Val$[ebp]
  000c2	8b c6		 mov	 eax, esi
  000c4	2b c3		 sub	 eax, ebx
  000c6	50		 push	 eax
  000c7	8d 04 99	 lea	 eax, DWORD PTR [ecx+ebx*4]
  000ca	50		 push	 eax
  000cb	e8 00 00 00 00	 call	 ??$_Uninitialized_fill_n@V?$allocator@J@std@@@std@@YAPAJPAJIABJAAV?$allocator@J@0@@Z ; std::_Uninitialized_fill_n<std::allocator<long> >
; File C:\Program Files\Microsoft Visual Studio\2022\Professional\VC\Tools\MSVC\14.44.35207\include\xmemory

; 1992 :             _STD _Copy_memmove(_UFirst, _ULast, _STD _Unfancy(_Dest));

  000d0	8b 5d 08	 mov	 ebx, DWORD PTR $T2[ebp]
  000d3	53		 push	 ebx
  000d4	ff 77 04	 push	 DWORD PTR [edi+4]
  000d7	ff 37		 push	 DWORD PTR [edi]
  000d9	e8 00 00 00 00	 call	 ??$_Copy_memmove@PAJPAJ@std@@YAPAJPAJ00@Z ; std::_Copy_memmove<long *,long *>
; File C:\Program Files\Microsoft Visual Studio\2022\Professional\VC\Tools\MSVC\14.44.35207\include\vector

; 2069 :         if (_Myfirst) { // destroy and deallocate old array

  000de	8b 07		 mov	 eax, DWORD PTR [edi]
; File C:\Program Files\Microsoft Visual Studio\2022\Professional\VC\Tools\MSVC\14.44.35207\include\xmemory

; 1992 :             _STD _Copy_memmove(_UFirst, _ULast, _STD _Unfancy(_Dest));

  000e0	83 c4 1c	 add	 esp, 28			; 0000001cH
; File C:\Program Files\Microsoft Visual Studio\2022\Professional\VC\Tools\MSVC\14.44.35207\include\vector

; 2069 :         if (_Myfirst) { // destroy and deallocate old array

  000e3	85 c0		 test	 eax, eax
  000e5	74 2c		 je	 SHORT $LN53@Resize

; 2070 :             _STD _Destroy_range(_Myfirst, _Mylast, _Al);
; 2071 :             _ASAN_VECTOR_REMOVE;
; 2072 :             _Al.deallocate(_Myfirst, static_cast<size_type>(_Myend - _Myfirst));

  000e7	8b 4f 08	 mov	 ecx, DWORD PTR [edi+8]
  000ea	2b c8		 sub	 ecx, eax
; File C:\Program Files\Microsoft Visual Studio\2022\Professional\VC\Tools\MSVC\14.44.35207\include\xmemory

; 985  :         _STD _Deallocate<_New_alignof<_Ty>>(_Ptr, sizeof(_Ty) * _Count);

  000ec	83 e1 fc	 and	 ecx, -4			; fffffffcH

; 284  :         if (_Bytes >= _Big_allocation_threshold) {

  000ef	81 f9 00 10 00
	00		 cmp	 ecx, 4096		; 00001000H
  000f5	72 12		 jb	 SHORT $LN58@Resize

; 205  :     const uintptr_t _Ptr_container   = _Ptr_user[-1];

  000f7	8b 50 fc	 mov	 edx, DWORD PTR [eax-4]
  000fa	83 c1 23	 add	 ecx, 35			; 00000023H

; 206  : 
; 207  :     // If the following asserts, it likely means that we are performing
; 208  :     // an aligned delete on memory coming from an unaligned allocation.
; 209  :     _STL_ASSERT(_Ptr_user[-2] == _Big_allocation_sentinel, "invalid argument");
; 210  : 
; 211  :     // Extra paranoia on aligned allocation/deallocation; ensure _Ptr_container is
; 212  :     // in range [_Min_back_shift, _Non_user_size]
; 213  : #ifdef _DEBUG
; 214  :     constexpr uintptr_t _Min_back_shift = 2 * sizeof(void*);
; 215  : #else // ^^^ defined(_DEBUG) / !defined(_DEBUG) vvv
; 216  :     constexpr uintptr_t _Min_back_shift = sizeof(void*);
; 217  : #endif // ^^^ !defined(_DEBUG) ^^^
; 218  :     const uintptr_t _Back_shift = reinterpret_cast<uintptr_t>(_Ptr) - _Ptr_container;

  000fd	2b c2		 sub	 eax, edx

; 219  :     _STL_VERIFY(_Back_shift >= _Min_back_shift && _Back_shift <= _Non_user_size, "invalid argument");

  000ff	83 c0 fc	 add	 eax, -4			; fffffffcH
  00102	83 f8 1f	 cmp	 eax, 31			; 0000001fH
  00105	77 4b		 ja	 SHORT $LN57@Resize

; 220  :     _Ptr = reinterpret_cast<void*>(_Ptr_container);

  00107	8b c2		 mov	 eax, edx
$LN58@Resize:

; 289  :         ::operator delete(_Ptr, _Bytes);

  00109	51		 push	 ecx
  0010a	50		 push	 eax
  0010b	e8 00 00 00 00	 call	 ??3@YAXPAXI@Z		; operator delete
  00110	83 c4 08	 add	 esp, 8
$LN53@Resize:
; File C:\Program Files\Microsoft Visual Studio\2022\Professional\VC\Tools\MSVC\14.44.35207\include\vector

; 2076 :         _Mylast  = _Newvec + _Newsize;

  00113	8d 04 b3	 lea	 eax, DWORD PTR [ebx+esi*4]
  00116	89 1f		 mov	 DWORD PTR [edi], ebx
  00118	89 47 04	 mov	 DWORD PTR [edi+4], eax

; 2077 :         _Myend   = _Newvec + _Newcapacity;

  0011b	8b 45 fc	 mov	 eax, DWORD PTR tv575[ebp]
  0011e	03 c3		 add	 eax, ebx
  00120	89 47 08	 mov	 DWORD PTR [edi+8], eax
  00123	5f		 pop	 edi

; 1625 :     }

  00124	5e		 pop	 esi
  00125	5b		 pop	 ebx
  00126	8b e5		 mov	 esp, ebp
  00128	5d		 pop	 ebp
  00129	c2 08 00	 ret	 8
$LN4@Resize:

; 1608 :                 _Resize_reallocate(_Newsize, _Val);
; 1609 :                 return;
; 1610 :             }
; 1611 : 
; 1612 :             _ASAN_VECTOR_EXTEND_GUARD(_Newsize);
; 1613 :             const pointer _Oldlast = _Mylast;
; 1614 :             if constexpr (is_same_v<_Ty2, _Ty>) {
; 1615 :                 _Mylast = _Uninitialized_fill_n(_Oldlast, _Newsize - _Oldsize, _Val, _Al);

  0012c	57		 push	 edi
  0012d	ff 75 0c	 push	 DWORD PTR __Val$[ebp]
  00130	2b f3		 sub	 esi, ebx
  00132	56		 push	 esi
  00133	52		 push	 edx
  00134	e8 00 00 00 00	 call	 ??$_Uninitialized_fill_n@V?$allocator@J@std@@@std@@YAPAJPAJIABJAAV?$allocator@J@0@@Z ; std::_Uninitialized_fill_n<std::allocator<long> >
  00139	83 c4 10	 add	 esp, 16			; 00000010H

; 1625 :     }

  0013c	89 47 04	 mov	 DWORD PTR [edi+4], eax
$LN3@Resize:
  0013f	5f		 pop	 edi
  00140	5e		 pop	 esi
  00141	5b		 pop	 ebx
  00142	8b e5		 mov	 esp, ebp
  00144	5d		 pop	 ebp
  00145	c2 08 00	 ret	 8
$LN97@Resize:

; 1554 :             _Xlength();

  00148	e8 00 00 00 00	 call	 ?_Xlength@?$vector@JV?$allocator@J@std@@@std@@CAXXZ ; std::vector<long,std::allocator<long> >::_Xlength
$LN98@Resize:
; File C:\Program Files\Microsoft Visual Studio\2022\Professional\VC\Tools\MSVC\14.44.35207\include\xmemory

; 118  :             _Throw_bad_array_new_length(); // multiply overflow

  0014d	e8 00 00 00 00	 call	 ?_Throw_bad_array_new_length@std@@YAXXZ ; std::_Throw_bad_array_new_length
$LN57@Resize:

; 219  :     _STL_VERIFY(_Back_shift >= _Min_back_shift && _Back_shift <= _Non_user_size, "invalid argument");

  00152	6a 00		 push	 0
  00154	6a 00		 push	 0
  00156	6a 00		 push	 0
  00158	6a 00		 push	 0
  0015a	6a 00		 push	 0
  0015c	e8 00 00 00 00	 call	 __invoke_watson
$LN93@Resize:
  00161	cc		 int	 3
??$_Resize@J@?$vector@JV?$allocator@J@std@@@std@@AAEXIABJ@Z ENDP ; std::vector<long,std::allocator<long> >::_Resize<long>
_TEXT	ENDS
; Function compile flags: /Ogtp
; File C:\IAGOS\server\v18\Source\Source\_Common\MoverParam.cpp
; File C:\IAGOS\server\v18\Source\Source\_Common\data.h
; File C:\IAGOS\server\v18\Source\Source\_Common\MoverParam.cpp
; File C:\IAGOS\server\v18\Source\Source\_Common\data.h
; File C:\IAGOS\server\v18\Source\Source\_Common\MoverParam.cpp
;	COMDAT ?__SetQuest@CMover@@AAEHPAUtagQuest@@0@Z
_TEXT	SEGMENT
_lpQuest$ = 8						; size = 4
tv669 = 8						; size = 4
tv670 = 8						; size = 4
_lpNewQuest$ = 12					; size = 4
?__SetQuest@CMover@@AAEHPAUtagQuest@@0@Z PROC		; CMover::__SetQuest, COMDAT
; _this$ = ecx

; 3657 : {

  00000	55		 push	 ebp
  00001	8b ec		 mov	 ebp, esp
  00003	53		 push	 ebx
  00004	56		 push	 esi

; 3658 : 	// Äů˝şĆ®¸¦ ąß°ß ¸řÇßŔ¸¸é »ő·Î Ăß°ˇÇŃ´Ů.
; 3659 : 	if( lpQuest == NULL )

  00005	8b 75 08	 mov	 esi, DWORD PTR _lpQuest$[ebp]
  00008	8b d1		 mov	 edx, ecx
  0000a	85 f6		 test	 esi, esi
  0000c	0f 85 9a 00 00
	00		 jne	 $LN14@SetQuest

; 3660 : 	{
; 3661 : 		if( m_nQuestSize >= MAX_QUEST )

  00012	8a 9a 96 0d 00
	00		 mov	 bl, BYTE PTR [edx+3478]
  00018	80 fb 64	 cmp	 bl, 100			; 00000064H
  0001b	72 15		 jb	 SHORT $LN16@SetQuest

; 3662 : 		{
; 3663 : 			Error("SetQuestCnt : Äů˝şĆ® ĂĘ°ú");

  0001d	68 00 00 00 00	 push	 OFFSET ??_C@_0BK@GLCNDIKD@SetQuestCnt?5?3?5?D?y?$LN?$LK?F?$KO?5?C?J?$LA?z@
  00022	e8 00 00 00 00	 call	 ?Error@@YAPBDPBDZZ	; Error
  00027	83 c4 04	 add	 esp, 4
$LN21@SetQuest:

; 3736 : }

  0002a	5e		 pop	 esi
  0002b	33 c0		 xor	 eax, eax
  0002d	5b		 pop	 ebx
  0002e	5d		 pop	 ebp
  0002f	c2 08 00	 ret	 8
$LN16@SetQuest:

; 3664 : 			return FALSE;
; 3665 : 		}
; 3666 : #ifdef __CLIENT
; 3667 : 		PlayMusic( BGM_EV_START );
; 3668 : #endif
; 3669 : 		if( m_nCompleteQuestSize < MAX_COMPLETE_QUEST ) 

  00032	0f b6 82 9c 0d
	00 00		 movzx	 eax, BYTE PTR [edx+3484]
  00039	3d f4 01 00 00	 cmp	 eax, 500		; 000001f4H
  0003e	73 ea		 jae	 SHORT $LN21@SetQuest

; 3670 : 			lpQuest = &m_aQuest[ m_nQuestSize++ ];

  00040	0f b6 c3	 movzx	 eax, bl
  00043	fe c3		 inc	 bl
  00045	88 9a 96 0d 00
	00		 mov	 BYTE PTR [edx+3478], bl

; 3671 : 		else
; 3672 : 			return FALSE;
; 3673 : 
; 3674 : 		QuestProp* pQuestProp = prj.m_aPropQuest.GetAt( lpNewQuest->m_wId );

  0004b	8b 5d 0c	 mov	 ebx, DWORD PTR _lpNewQuest$[ebp]
  0004e	8d 0c 40	 lea	 ecx, DWORD PTR [eax+eax*2]
  00051	8b 82 98 0d 00
	00		 mov	 eax, DWORD PTR [edx+3480]
  00057	8d 34 88	 lea	 esi, DWORD PTR [eax+ecx*4]
  0005a	0f b7 4b 04	 movzx	 ecx, WORD PTR [ebx+4]
; File C:\IAGOS\server\v18\Source\Source\_Common\data.h

; 270  : 	if( dwIndex >= (DWORD)m_nMaxIndex )

  0005e	3b 0d f4 02 00
	00		 cmp	 ecx, DWORD PTR ?prj@@3VCProject@@A+756
  00064	73 1a		 jae	 SHORT $LN19@SetQuest

; 271  : 		return NULL;
; 272  : 	return (T*) m_apOffset[ dwIndex ];

  00066	a1 e4 02 00 00	 mov	 eax, DWORD PTR ?prj@@3VCProject@@A+740
  0006b	8b 04 88	 mov	 eax, DWORD PTR [eax+ecx*4]
; File C:\IAGOS\server\v18\Source\Source\_Common\MoverParam.cpp

; 3675 : 		if( pQuestProp && pQuestProp->m_nEndCondLimitTime  )

  0006e	85 c0		 test	 eax, eax
  00070	74 0e		 je	 SHORT $LN19@SetQuest
  00072	8b 80 14 01 00
	00		 mov	 eax, DWORD PTR [eax+276]
  00078	85 c0		 test	 eax, eax
  0007a	74 04		 je	 SHORT $LN19@SetQuest

; 3676 : 			lpNewQuest->m_wTime = pQuestProp->m_nEndCondLimitTime;

  0007c	66 89 43 02	 mov	 WORD PTR [ebx+2], ax
$LN19@SetQuest:

; 3677 : #ifdef __WORLDSERVER
; 3678 : 		// Ĺ¸ŔĚ¸Ó ĂĘ±âČ­ 
; 3679 : 		m_timerQuestLimitTime.Reset();

  00080	8b 82 c8 0d 00
	00		 mov	 eax, DWORD PTR [edx+3528]
  00086	8d 8a c8 0d 00
	00		 lea	 ecx, DWORD PTR [edx+3528]
  0008c	ff 50 04	 call	 DWORD PTR [eax+4]

; 3718 : 			lpQuest = NULL;
; 3719 : #if __VER >= 15 /* __IMPROVE_QUEST_INTERFACE */  && defined( __CLIENT )
; 3720 : 			g_QuestTreeInfoManager.DeleteTreeInformation( lpNewQuest->m_wId );
; 3721 : 			D3DXVECTOR3& rDestinationArrow = g_WndMng.m_pWndWorld->m_vDestinationArrow;
; 3722 : 			rDestinationArrow = D3DXVECTOR3( -1.0F, 0.0F, -1.0F );
; 3723 : #endif // defined( __IMPROVE_QUEST_INTERFACE ) && defined( __CLIENT )
; 3724 : 		}
; 3725 : 		else
; 3726 : 			return FALSE;
; 3727 : 	}
; 3728 : 	if( lpQuest )

  0008f	85 f6		 test	 esi, esi
  00091	74 0e		 je	 SHORT $LN26@SetQuest
$LN52@SetQuest:

; 3729 : 		memcpy( lpQuest, lpNewQuest, sizeof( QUEST ) );

  00093	f3 0f 7e 03	 movq	 xmm0, QWORD PTR [ebx]
  00097	66 0f d6 06	 movq	 QWORD PTR [esi], xmm0
  0009b	8b 43 08	 mov	 eax, DWORD PTR [ebx+8]
  0009e	89 46 08	 mov	 DWORD PTR [esi+8], eax
$LN26@SetQuest:

; 3730 : 
; 3731 : #ifdef __CLIENT
; 3732 : 	if( lpNewQuest->m_nState == QS_END )
; 3733 : 		PlayMusic( BGM_EV_END );
; 3734 : #endif
; 3735 : 	return TRUE;

  000a1	5e		 pop	 esi
  000a2	b8 01 00 00 00	 mov	 eax, 1

; 3736 : }

  000a7	5b		 pop	 ebx
  000a8	5d		 pop	 ebp
  000a9	c2 08 00	 ret	 8
$LN14@SetQuest:

; 3680 : #endif
; 3681 : 	}
; 3682 : 	else
; 3683 : 	// Äů˝şĆ® żĎ·á´Ů. ±×·¸´Ů¸é Äł˝¬żˇĽ­ µÚÁ®Ľ­ Á¦°ĹÇĎŔÚ 
; 3684 : 	if( lpNewQuest->m_nState == QS_END )

  000ac	8b 5d 0c	 mov	 ebx, DWORD PTR _lpNewQuest$[ebp]
  000af	80 3b 0e	 cmp	 BYTE PTR [ebx], 14	; 0000000eH
  000b2	75 df		 jne	 SHORT $LN52@SetQuest

; 3685 : 	{
; 3686 : 		// ´ë˝Ĺ, żĎ·á ±Ë˝şĆ® ąčż­żˇ łÖľî ş¸°üÇŃ´Ů.
; 3687 : 		if( m_nCompleteQuestSize < MAX_COMPLETE_QUEST ) 

  000b4	0f b6 82 9c 0d
	00 00		 movzx	 eax, BYTE PTR [edx+3484]
  000bb	3d f4 01 00 00	 cmp	 eax, 500		; 000001f4H
  000c0	0f 83 64 ff ff
	ff		 jae	 $LN21@SetQuest

; 3688 : 		{
; 3689 : 			for( int i = 0; i < m_nQuestSize; i++ )

  000c6	8a 8a 96 0d 00
	00		 mov	 cl, BYTE PTR [edx+3478]
  000cc	33 f6		 xor	 esi, esi
  000ce	57		 push	 edi
  000cf	84 c9		 test	 cl, cl
  000d1	74 6e		 je	 SHORT $LN3@SetQuest

; 3690 : 			{
; 3691 : 				if( m_aQuest[ i ].m_wId == lpNewQuest->m_wId )

  000d3	0f b7 43 04	 movzx	 eax, WORD PTR [ebx+4]
  000d7	89 45 08	 mov	 DWORD PTR tv670[ebp], eax
  000da	8b 82 98 0d 00
	00		 mov	 eax, DWORD PTR [edx+3480]
  000e0	83 c0 04	 add	 eax, 4
$LL4@SetQuest:
  000e3	8b 5d 08	 mov	 ebx, DWORD PTR tv670[ebp]
  000e6	66 39 18	 cmp	 WORD PTR [eax], bx
  000e9	8b 5d 0c	 mov	 ebx, DWORD PTR _lpNewQuest$[ebp]
  000ec	0f b6 f9	 movzx	 edi, cl
  000ef	74 0a		 je	 SHORT $LN38@SetQuest

; 3688 : 		{
; 3689 : 			for( int i = 0; i < m_nQuestSize; i++ )

  000f1	46		 inc	 esi
  000f2	83 c0 0c	 add	 eax, 12			; 0000000cH
  000f5	3b f7		 cmp	 esi, edi
  000f7	7c ea		 jl	 SHORT $LL4@SetQuest

; 3703 : 			{
; 3704 : 				if( m_aCheckedQuest[ i ] == lpNewQuest->m_wId )

  000f9	eb 46		 jmp	 SHORT $LN3@SetQuest
$LN38@SetQuest:

; 3692 : 				{
; 3693 : 					for( ; i < m_nQuestSize - 1; i++ )

  000fb	8d 47 ff	 lea	 eax, DWORD PTR [edi-1]
  000fe	3b f0		 cmp	 esi, eax
  00100	7d 37		 jge	 SHORT $LN6@SetQuest
  00102	8d 3c 76	 lea	 edi, DWORD PTR [esi+esi*2]
  00105	c1 e7 02	 shl	 edi, 2
  00108	0f 1f 84 00 00
	00 00 00	 npad	 8
$LL7@SetQuest:

; 3694 : 					{
; 3695 : 						m_aQuest[ i ] = m_aQuest[ i + 1 ];

  00110	8b 8a 98 0d 00
	00		 mov	 ecx, DWORD PTR [edx+3480]
  00116	46		 inc	 esi
  00117	03 cf		 add	 ecx, edi
  00119	83 c7 0c	 add	 edi, 12			; 0000000cH
  0011c	f3 0f 7e 41 0c	 movq	 xmm0, QWORD PTR [ecx+12]
  00121	66 0f d6 01	 movq	 QWORD PTR [ecx], xmm0
  00125	8b 41 14	 mov	 eax, DWORD PTR [ecx+20]
  00128	89 41 08	 mov	 DWORD PTR [ecx+8], eax
  0012b	8a 8a 96 0d 00
	00		 mov	 cl, BYTE PTR [edx+3478]
  00131	0f b6 c1	 movzx	 eax, cl
  00134	48		 dec	 eax
  00135	3b f0		 cmp	 esi, eax
  00137	7c d7		 jl	 SHORT $LL7@SetQuest
$LN6@SetQuest:

; 3696 : 					}
; 3697 : 					m_nQuestSize--;

  00139	fe c9		 dec	 cl
  0013b	88 8a 96 0d 00
	00		 mov	 BYTE PTR [edx+3478], cl
$LN3@SetQuest:

; 3698 : 					break;
; 3699 : 				}
; 3700 : 			}
; 3701 : #if __VER >= 15 // __IMPROVE_QUEST_INTERFACE
; 3702 : 			for( int i = 0; i < m_nCheckedQuestSize; ++i )

  00141	8a 8a a4 0d 00
	00		 mov	 cl, BYTE PTR [edx+3492]
  00147	33 f6		 xor	 esi, esi
  00149	84 c9		 test	 cl, cl
  0014b	74 69		 je	 SHORT $LN9@SetQuest

; 3703 : 			{
; 3704 : 				if( m_aCheckedQuest[ i ] == lpNewQuest->m_wId )

  0014d	0f b7 43 04	 movzx	 eax, WORD PTR [ebx+4]
  00151	89 45 08	 mov	 DWORD PTR tv669[ebp], eax
  00154	8b 82 a8 0d 00
	00		 mov	 eax, DWORD PTR [edx+3496]
  0015a	66 0f 1f 44 00
	00		 npad	 6
$LL10@SetQuest:
  00160	8b 5d 08	 mov	 ebx, DWORD PTR tv669[ebp]
  00163	66 39 18	 cmp	 WORD PTR [eax], bx
  00166	8b 5d 0c	 mov	 ebx, DWORD PTR _lpNewQuest$[ebp]
  00169	0f b6 f9	 movzx	 edi, cl
  0016c	74 0a		 je	 SHORT $LN39@SetQuest

; 3698 : 					break;
; 3699 : 				}
; 3700 : 			}
; 3701 : #if __VER >= 15 // __IMPROVE_QUEST_INTERFACE
; 3702 : 			for( int i = 0; i < m_nCheckedQuestSize; ++i )

  0016e	46		 inc	 esi
  0016f	83 c0 02	 add	 eax, 2
  00172	3b f7		 cmp	 esi, edi
  00174	7c ea		 jl	 SHORT $LL10@SetQuest

; 3703 : 			{
; 3704 : 				if( m_aCheckedQuest[ i ] == lpNewQuest->m_wId )

  00176	eb 3e		 jmp	 SHORT $LN9@SetQuest
$LN39@SetQuest:

; 3705 : 				{
; 3706 : 					for( ; i < m_nCheckedQuestSize - 1; ++i )

  00178	8d 47 ff	 lea	 eax, DWORD PTR [edi-1]
  0017b	3b f0		 cmp	 esi, eax
  0017d	7d 20		 jge	 SHORT $LN12@SetQuest
  0017f	90		 npad	 1
$LL13@SetQuest:

; 3707 : 						m_aCheckedQuest[ i ] = m_aCheckedQuest[ i + 1 ];

  00180	8b 82 a8 0d 00
	00		 mov	 eax, DWORD PTR [edx+3496]
  00186	8d 0c 70	 lea	 ecx, DWORD PTR [eax+esi*2]
  00189	46		 inc	 esi
  0018a	66 8b 41 02	 mov	 ax, WORD PTR [ecx+2]
  0018e	66 89 01	 mov	 WORD PTR [ecx], ax
  00191	8a 8a a4 0d 00
	00		 mov	 cl, BYTE PTR [edx+3492]
  00197	0f b6 c1	 movzx	 eax, cl
  0019a	48		 dec	 eax
  0019b	3b f0		 cmp	 esi, eax
  0019d	7c e1		 jl	 SHORT $LL13@SetQuest
$LN12@SetQuest:

; 3708 : 					m_aCheckedQuest[--m_nCheckedQuestSize] = 0;

  0019f	8b 82 a8 0d 00
	00		 mov	 eax, DWORD PTR [edx+3496]
  001a5	fe c9		 dec	 cl
  001a7	88 8a a4 0d 00
	00		 mov	 BYTE PTR [edx+3492], cl
  001ad	33 f6		 xor	 esi, esi
  001af	0f b6 c9	 movzx	 ecx, cl
  001b2	66 89 34 48	 mov	 WORD PTR [eax+ecx*2], si
$LN9@SetQuest:

; 3709 : 					break;
; 3710 : 				}
; 3711 : 			}
; 3712 : #endif // __IMPROVE_QUEST_INTERFACE
; 3713 : 			QuestProp* pProp = prj.m_aPropQuest.GetAt( lpNewQuest->m_wId );

  001b6	0f b7 73 04	 movzx	 esi, WORD PTR [ebx+4]
  001ba	8b ce		 mov	 ecx, esi
  001bc	5f		 pop	 edi
; File C:\IAGOS\server\v18\Source\Source\_Common\data.h

; 270  : 	if( dwIndex >= (DWORD)m_nMaxIndex )

  001bd	3b 0d f4 02 00
	00		 cmp	 ecx, DWORD PTR ?prj@@3VCProject@@A+756
  001c3	0f 83 d8 fe ff
	ff		 jae	 $LN26@SetQuest

; 271  : 		return NULL;
; 272  : 	return (T*) m_apOffset[ dwIndex ];

  001c9	a1 e4 02 00 00	 mov	 eax, DWORD PTR ?prj@@3VCProject@@A+740
  001ce	8b 04 88	 mov	 eax, DWORD PTR [eax+ecx*4]
; File C:\IAGOS\server\v18\Source\Source\_Common\MoverParam.cpp

; 3716 : 			if( pProp && pProp->m_bRepeat == FALSE )

  001d1	85 c0		 test	 eax, eax
  001d3	0f 84 c8 fe ff
	ff		 je	 $LN26@SetQuest
  001d9	80 b8 b9 03 00
	00 00		 cmp	 BYTE PTR [eax+953], 0
  001e0	0f 85 bb fe ff
	ff		 jne	 $LN26@SetQuest

; 3717 : 				m_aCompleteQuest[ m_nCompleteQuestSize++ ] = lpNewQuest->m_wId; 

  001e6	0f b6 8a 9c 0d
	00 00		 movzx	 ecx, BYTE PTR [edx+3484]
  001ed	8b 82 a0 0d 00
	00		 mov	 eax, DWORD PTR [edx+3488]
  001f3	66 89 34 48	 mov	 WORD PTR [eax+ecx*2], si

; 3730 : 
; 3731 : #ifdef __CLIENT
; 3732 : 	if( lpNewQuest->m_nState == QS_END )
; 3733 : 		PlayMusic( BGM_EV_END );
; 3734 : #endif
; 3735 : 	return TRUE;

  001f7	b8 01 00 00 00	 mov	 eax, 1
  001fc	fe 82 9c 0d 00
	00		 inc	 BYTE PTR [edx+3484]
  00202	5e		 pop	 esi

; 3736 : }

  00203	5b		 pop	 ebx
  00204	5d		 pop	 ebp
  00205	c2 08 00	 ret	 8
?__SetQuest@CMover@@AAEHPAUtagQuest@@0@Z ENDP		; CMover::__SetQuest
_TEXT	ENDS
; Function compile flags: /Ogtp
; File C:\IAGOS\server\v18\Source\Source\_Common\MoverParam.cpp
; File C:\IAGOS\server\v18\Source\Source\_Common\Obj.h
; File C:\IAGOS\server\v18\Source\Source\_Common\MoverParam.cpp
; File C:\IAGOS\server\v18\Source\Source\_Common\Obj.h
; File C:\IAGOS\server\v18\Source\Source\_Common\MoverParam.cpp
;	COMDAT ?SetExperience@CMover@@QAEH_JH@Z
_TEXT	SEGMENT
_nExp1$ = 8						; size = 8
_nLevel$ = 16						; size = 4
?SetExperience@CMover@@QAEH_JH@Z PROC			; CMover::SetExperience, COMDAT
; _this$ = ecx

; 1842 : {

  00000	55		 push	 ebp
  00001	8b ec		 mov	 ebp, esp

; 1843 : 	m_nExp1		= nExp1;

  00003	8b 45 08	 mov	 eax, DWORD PTR _nExp1$[ebp]
  00006	8b 55 0c	 mov	 edx, DWORD PTR _nExp1$[ebp+4]
  00009	56		 push	 esi
  0000a	8b f1		 mov	 esi, ecx
; File C:\IAGOS\server\v18\Source\Source\_Common\Obj.h

; 180  : 	BOOL			IsDelete()	{ return (m_dwFlags & OBJ_FLAG_DELETE);  }

  0000c	f6 46 04 01	 test	 BYTE PTR [esi+4], 1
; File C:\IAGOS\server\v18\Source\Source\_Common\MoverParam.cpp

; 1843 : 	m_nExp1		= nExp1;

  00010	89 86 e0 05 00
	00		 mov	 DWORD PTR [esi+1504], eax
  00016	89 96 e4 05 00
	00		 mov	 DWORD PTR [esi+1508], edx
; File C:\IAGOS\server\v18\Source\Source\_Common\Obj.h

; 327  : 	return pObj && ( pObj->IsDelete() == FALSE ); 

  0001c	75 56		 jne	 SHORT $LN6@SetExperie
; File C:\IAGOS\server\v18\Source\Source\_Common\MoverParam.cpp

; 1848 : 	if( nLevel > m_nLevel )

  0001e	8b 45 10	 mov	 eax, DWORD PTR _nLevel$[ebp]
  00021	3b 86 d8 05 00
	00		 cmp	 eax, DWORD PTR [esi+1496]
  00027	7e 43		 jle	 SHORT $LN3@SetExperie

; 1849 : 	{
; 1850 : #ifdef __CLIENT
; 1851 :  		// 15·ľ µÇ¸é ´őŔĚ»ó ĂĘş¸ŔÚ°ˇ ľĆ´ĎąÇ·Î ŔÚµżŔ¸·Î ĂĘş¸ŔÚµµżň¸» ˛ôŔÚ.
; 1852 : 		if( nLevel == 15 )		// 1Â÷ŔüÁ÷·ąş§ 15żˇ ´ëÇŃ define ŔÖŔ¸¸é ±×°É·Î ąŮ˛ăÁÖ. -xuzhu-
; 1853 : 			g_Option.m_nInstantHelp = 0;
; 1854 :  		
; 1855 : 		PutLvUpSkillName_1(nLevel);
; 1856 : 
; 1857 : 		if( m_pActMover && ( m_pActMover->IsState( OBJSTA_STAND ) || m_pActMover->IsState( OBJSTA_STAND2 ) ) )
; 1858 : 			SetMotion( MTI_LEVELUP, ANILOOP_1PLAY, MOP_FIXED );
; 1859 : 		CreateSfx(g_Neuz.m_pd3dDevice,XI_GEN_LEVEL_UP01,GetPos(),GetId());
; 1860 : 		PlayMusic( BGM_IN_LEVELUP );
; 1861 : 		if( m_nDeathLevel < nLevel )
; 1862 : 			g_WndMng.PutString( prj.GetText( TID_GAME_LEVELUP ), NULL, prj.GetTextColor( TID_GAME_LEVELUP ) );
; 1863 : 		
; 1864 : 		if( g_WndMng.m_pWndWorld )
; 1865 : 		{
; 1866 : 			if( ::GetLanguage() != LANG_JAP )
; 1867 : 				g_Caption1.AddCaption(  prj.GetText( TID_GAME_LEVELUP_CAPTION ), g_WndMng.m_pWndWorld->m_pFontAPICaption );// CWndBase::m_Theme.m_pFontCaption );
; 1868 : 			else
; 1869 : 				g_Caption1.AddCaption(  prj.GetText( TID_GAME_LEVELUP_CAPTION ), NULL );// CWndBase::m_Theme.m_pFontCaption );
; 1870 : 		}
; 1871 : 		
; 1872 : 		// 2, 8, 12
; 1873 : 		static	int nPatLv[4]	= { 2, 8, 12, 0	};
; 1874 : 		for( int i = 0; i < 3; i++ ) {
; 1875 : 			if( m_nLevel < nPatLv[i] && nLevel >= nPatLv[i] ) {
; 1876 : 				g_WndMng.PutString( prj.GetText( TID_GAME_PATTERNUP ), NULL, prj.GetTextColor( TID_GAME_PATTERNUP ) );
; 1877 : 				break;
; 1878 : 			}
; 1879 : 			else if( m_nLevel >= nPatLv[2] )
; 1880 : 				break;
; 1881 : 		}
; 1882 : 
; 1883 : 		if( TRUE == IsJobType( JTYPE_BASE ) )
; 1884 : 		{
; 1885 : 			if( nLevel == 15 )
; 1886 : 				g_WndMng.PutString( prj.GetText( TID_EVE_LEVEL15 ), NULL, prj.GetTextColor( TID_EVE_LEVEL15 ) );
; 1887 : 
; 1888 : 			static	int nNum	= prj.m_aJobSkillNum[JOB_VAGRANT];
; 1889 : 		}
; 1890 : 		if( m_nLevel < 20 && nLevel >= 20 )
; 1891 : 		{
; 1892 : 			g_WndMng.PutString( prj.GetText( TID_GAME_FLYLVLUP ), NULL, prj.GetTextColor( TID_GAME_FLYLVLUP ) );
; 1893 : 			SetFlightLv( 1 );
; 1894 : 		}
; 1895 : 		else if( nLevel < 20 )
; 1896 : 			SetFlightLv( 0 );
; 1897 : #endif	// __CLIENT
; 1898 : 		m_nLevel	= nLevel;
; 1899 : 
; 1900 : 		SetJobLevel( m_nLevel, m_nJob );

  00029	ff b6 3c 06 00
	00		 push	 DWORD PTR [esi+1596]
  0002f	89 86 d8 05 00
	00		 mov	 DWORD PTR [esi+1496], eax
  00035	50		 push	 eax
  00036	e8 00 00 00 00	 call	 ?SetJobLevel@CMover@@QAEXHH@Z ; CMover::SetJobLevel

; 1901 : 
; 1902 : 		m_nHitPoint = GetMaxHitPoint();

  0003b	8b ce		 mov	 ecx, esi
  0003d	e8 00 00 00 00	 call	 ?GetMaxHitPoint@CMover@@QAEHXZ ; CMover::GetMaxHitPoint

; 1903 : 		m_nManaPoint = GetMaxManaPoint();

  00042	8b ce		 mov	 ecx, esi
  00044	89 86 f8 05 00
	00		 mov	 DWORD PTR [esi+1528], eax
  0004a	e8 00 00 00 00	 call	 ?GetMaxManaPoint@CMover@@QAEHXZ ; CMover::GetMaxManaPoint

; 1904 : 		m_nFatiguePoint = GetMaxFatiguePoint();

  0004f	8b ce		 mov	 ecx, esi
  00051	89 86 fc 05 00
	00		 mov	 DWORD PTR [esi+1532], eax
  00057	e8 00 00 00 00	 call	 ?GetMaxFatiguePoint@CMover@@QAEHXZ ; CMover::GetMaxFatiguePoint
  0005c	89 86 00 06 00
	00		 mov	 DWORD PTR [esi+1536], eax

; 1905 : 
; 1906 : #ifdef __CLIENT
; 1907 : 		if( IsPlayer() )
; 1908 : 		{
; 1909 : 			CWndWorld* pWndWorld = (CWndWorld*)g_WndMng.GetWndBase( APP_WORLD );
; 1910 : 			
; 1911 : 			if( pWndWorld ) 
; 1912 : 			{
; 1913 : #if __VER >= 13 // __RENEW_CHARINFO
; 1914 : 				pWndWorld->GetAdvMgr()->AddAdvButton(APP_CHARACTER3);
; 1915 : #elif __VER >= 9 // __CSC_VER9_2
; 1916 : 				pWndWorld->GetAdvMgr()->AddAdvButton(APP_CHARACTER2);
; 1917 : #else //__CSC_VER9_2
; 1918 : 				pWndWorld->GetAdvMgr()->AddAdvButton(APP_CHARACTER);
; 1919 : #endif //__CSC_VER9_2
; 1920 : 			#if __VER < 12 // __MOD_TUTORIAL				
; 1921 : 				if( GetLevel() != 1 )
; 1922 : 					pWndWorld->m_pWndGuideSystem->GuideStart(FALSE);
; 1923 : 			#endif
; 1924 : 				switch(GetLevel())
; 1925 : 				{
; 1926 : 			#if __VER >= 12 // __MOD_TUTORIAL
; 1927 : 				case 15:
; 1928 : 					pWndWorld->m_pWndGuideSystem->GuideStart(GUIDE_CHANGEJOB);
; 1929 : 					break;						
; 1930 : 				case 20:
; 1931 : 					pWndWorld->m_pWndGuideSystem->GuideStart(GUIDE_FLIGHT_METHOD);
; 1932 : 					break;
; 1933 : 				case 40:
; 1934 : 					pWndWorld->m_pWndGuideSystem->GuideStart(GUIDE_APP_GUILD);
; 1935 : 					break;
; 1936 : 			#else
; 1937 : 				case 2:
; 1938 : #if __VER >= 13 // __RENEW_CHARINFO
; 1939 : 					pWndWorld->m_pWndGuideSystem->SendGuideMessage(APP_CHARACTER3);
; 1940 : #else if __VER >= 9 // __CSC_VER9_2
; 1941 : 					pWndWorld->m_pWndGuideSystem->SendGuideMessage(APP_CHARACTER2);
; 1942 : #else //__CSC_VER9_2
; 1943 : 					pWndWorld->m_pWndGuideSystem->SendGuideMessage(APP_CHARACTER);
; 1944 : #endif //__CSC_VER9_2
; 1945 : 					break;
; 1946 : 				case 3:
; 1947 : 					pWndWorld->m_pWndGuideSystem->SendGuideMessage(GUIDE_EVENT_BERSERKERMODE);
; 1948 : 					break;
; 1949 : 				case 4:
; 1950 : 					pWndWorld->m_pWndGuideSystem->SendGuideMessage(APP_SKILL_BEFOREJOB);
; 1951 : 					break;
; 1952 : 				case 8:
; 1953 : 					pWndWorld->m_pWndGuideSystem->SendGuideMessage(GUIDE_ESSENSE);
; 1954 : 					break;
; 1955 : 				case 16:
; 1956 : 					pWndWorld->m_pWndGuideSystem->SendGuideMessage(GUIDE_FLIGHT);
; 1957 : 					break;
; 1958 : 				case 15:
; 1959 : 					pWndWorld->m_pWndGuideSystem->SendGuideMessage(GUIDE_CHANGEJOB);
; 1960 : 					break;						
; 1961 : 				case 20:
; 1962 : 					pWndWorld->m_pWndGuideSystem->SendGuideMessage(GUIDE_FLIGHT_METHOD);
; 1963 : 					break;
; 1964 : 				case 49:
; 1965 : 					pWndWorld->m_pWndGuideSystem->SendGuideMessage(GUIDE_APP_GUILD);
; 1966 : 					break;
; 1967 : 			#endif
; 1968 : 				}
; 1969 : 			}
; 1970 : 		}
; 1971 : #endif //__CLIENT		
; 1972 : 
; 1973 : 		return TRUE;

  00062	b8 01 00 00 00	 mov	 eax, 1
  00067	5e		 pop	 esi

; 2032 : }

  00068	5d		 pop	 ebp
  00069	c2 0c 00	 ret	 12			; 0000000cH
$LN3@SetExperie:

; 1974 : 	}
; 1975 : 	else if( nLevel < m_nLevel )	// ·ąş§ ´ŮżîŔĚ µÇľúŔ»¶§.

  0006c	7d 06		 jge	 SHORT $LN6@SetExperie

; 1976 : 	{
; 1977 : 		m_nLevel	= nLevel;

  0006e	89 86 d8 05 00
	00		 mov	 DWORD PTR [esi+1496], eax
$LN6@SetExperie:

; 1978 : 		if( nLevel < 20 )
; 1979 : 			SetFlightLv( 0 );
; 1980 : 
; 1981 : #ifdef __CLIENT
; 1982 : 		if( IsPlayer() )
; 1983 : 		{
; 1984 : 			CWndWorld* pWndWorld = (CWndWorld*)g_WndMng.GetWndBase( APP_WORLD );
; 1985 : 			
; 1986 : 			if( pWndWorld ) 
; 1987 : 			{
; 1988 : 			#if __VER < 12 // __MOD_TUTORIAL
; 1989 : 				if( GetLevel() != 1 )
; 1990 : 					pWndWorld->m_pWndGuideSystem->GuideStart(FALSE);
; 1991 : 			#endif
; 1992 : 				switch(GetLevel())
; 1993 : 				{
; 1994 : 				case 2:
; 1995 : #if __VER >= 13 // __RENEW_CHARINFO
; 1996 : 					pWndWorld->m_pWndGuideSystem->SendGuideMessage(APP_CHARACTER3);
; 1997 : #elif __VER >= 9 // __CSC_VER9_2
; 1998 : 					pWndWorld->m_pWndGuideSystem->SendGuideMessage(APP_CHARACTER2);
; 1999 : #else //__CSC_VER9_2
; 2000 : 					pWndWorld->m_pWndGuideSystem->SendGuideMessage(APP_CHARACTER);
; 2001 : #endif //__CSC_VER9_2
; 2002 : 					break;
; 2003 : 				case 3:
; 2004 : 					pWndWorld->m_pWndGuideSystem->SendGuideMessage(GUIDE_EVENT_BERSERKERMODE);
; 2005 : 					break;
; 2006 : 				case 4:
; 2007 : 					pWndWorld->m_pWndGuideSystem->SendGuideMessage(APP_SKILL_BEFOREJOB);
; 2008 : 					break;
; 2009 : 				case 8:
; 2010 : 					pWndWorld->m_pWndGuideSystem->SendGuideMessage(GUIDE_ESSENSE);
; 2011 : 					break;
; 2012 : 				case 15:
; 2013 : 					pWndWorld->m_pWndGuideSystem->SendGuideMessage(GUIDE_CHANGEJOB);
; 2014 : 					break;					
; 2015 : 				case 16:
; 2016 : 					pWndWorld->m_pWndGuideSystem->SendGuideMessage(GUIDE_FLIGHT);
; 2017 : 					break;
; 2018 : 				case 20:
; 2019 : 					pWndWorld->m_pWndGuideSystem->SendGuideMessage(GUIDE_FLIGHT_METHOD);
; 2020 : 					break;
; 2021 : 				case 40:
; 2022 : 					pWndWorld->m_pWndGuideSystem->SendGuideMessage(GUIDE_APP_GUILD);
; 2023 : 					break;
; 2024 : 				}
; 2025 : 			}
; 2026 : 		}
; 2027 : #endif	// __CLIENT
; 2028 : 	}
; 2029 : 
; 2030 : 
; 2031 : 	return FALSE;

  00074	33 c0		 xor	 eax, eax
  00076	5e		 pop	 esi

; 2032 : }

  00077	5d		 pop	 ebp
  00078	c2 0c 00	 ret	 12			; 0000000cH
?SetExperience@CMover@@QAEH_JH@Z ENDP			; CMover::SetExperience
_TEXT	ENDS
; Function compile flags: /Ogtp
; File C:\IAGOS\server\v18\Source\Source\_Common\MoverParam.cpp
; File C:\IAGOS\server\v18\Source\Source\_Common\Mover.h
; File C:\IAGOS\server\v18\Source\Source\_Common\MoverParam.cpp
;	COMDAT ?GetSummonState@CMover@@QAEHXZ
_TEXT	SEGMENT
?GetSummonState@CMover@@QAEHXZ PROC			; CMover::GetSummonState, COMDAT
; _this$ = ecx

; 330  : {

  00000	56		 push	 esi
  00001	8b f1		 mov	 esi, ecx
  00003	57		 push	 edi

; 331  : 	// °Ĺ·ˇ
; 332  : 	if( m_vtInfo.GetOther() != NULL )

  00004	8d 8e 98 0c 00
	00		 lea	 ecx, DWORD PTR [esi+3224]
  0000a	e8 00 00 00 00	 call	 ?GetOther@CVTInfo@@QAEPAVCMover@@XZ ; CVTInfo::GetOther
  0000f	85 c0		 test	 eax, eax
  00011	0f 85 91 00 00
	00		 jne	 $LN23@GetSummonS

; 333  : 		return 1;
; 334  : 	  // Ă˘°í
; 335  : 	if( m_bBank )

  00017	39 86 3c 0d 00
	00		 cmp	 DWORD PTR [esi+3388], eax
  0001d	0f 85 85 00 00
	00		 jne	 $LN23@GetSummonS

; 336  : 		return 1;
; 337  : 	  // ±ćµĺĂ˘°í
; 338  : 	if( m_bGuildBank )

  00023	39 86 18 07 00
	00		 cmp	 DWORD PTR [esi+1816], eax
  00029	75 7d		 jne	 SHORT $LN23@GetSummonS
; File C:\IAGOS\server\v18\Source\Source\_Common\Mover.h

; 1250 : 	BOOL			IsDie() { return m_pActMover->IsDie() || m_nHitPoint == 0; }

  0002b	8b 86 38 02 00
	00		 mov	 eax, DWORD PTR [esi+568]
  00031	f7 40 04 00 00
	00 08		 test	 DWORD PTR [eax+4], 134217728 ; 08000000H
  00038	75 66		 jne	 SHORT $LN22@GetSummonS
  0003a	83 be f8 05 00
	00 00		 cmp	 DWORD PTR [esi+1528], 0
  00041	74 5d		 je	 SHORT $LN22@GetSummonS
; File C:\IAGOS\server\v18\Source\Source\_Common\MoverParam.cpp

; 346  : 	if( m_vtInfo.VendorIsVendor() || m_vtInfo.IsVendorOpen() )

  00043	8d 8e 98 0c 00
	00		 lea	 ecx, DWORD PTR [esi+3224]
  00049	e8 00 00 00 00	 call	 ?VendorIsVendor@CVTInfo@@QAEHXZ ; CVTInfo::VendorIsVendor
  0004e	85 c0		 test	 eax, eax
  00050	75 46		 jne	 SHORT $LN7@GetSummonS
  00052	8d 8e 98 0c 00
	00		 lea	 ecx, DWORD PTR [esi+3224]
  00058	e8 00 00 00 00	 call	 ?IsVendorOpen@CVTInfo@@QAEHXZ ; CVTInfo::IsVendorOpen
  0005d	85 c0		 test	 eax, eax
  0005f	75 37		 jne	 SHORT $LN7@GetSummonS

; 348  : 
; 349  : 	// ŔüĹőÁß
; 350  : 	if( IsAttackMode() )

  00061	8b ce		 mov	 ecx, esi
  00063	e8 00 00 00 00	 call	 ?IsAttackMode@CMover@@QAEHXZ ; CMover::IsAttackMode
  00068	85 c0		 test	 eax, eax
  0006a	74 08		 je	 SHORT $LN8@GetSummonS

; 351  : 		return 4;

  0006c	5f		 pop	 edi
  0006d	b8 04 00 00 00	 mov	 eax, 4

; 360  : 		return 6;
; 361  : #endif // __VER >= 8 // 8Â÷ µŕľó 061226 ma
; 362  : 
; 363  : 
; 364  : 	return 0;
; 365  : }

  00072	5e		 pop	 esi
  00073	c3		 ret	 0
$LN8@GetSummonS:

; 352  : 	
; 353  : 	// şńÇŕÁß
; 354  : 	if( ( IsFly() ) )

  00074	8b 86 38 02 00
	00		 mov	 eax, DWORD PTR [esi+568]
  0007a	f6 40 08 08	 test	 BYTE PTR [eax+8], 8
  0007e	74 08		 je	 SHORT $LN9@GetSummonS

; 355  : 		return 5;

  00080	5f		 pop	 edi
  00081	b8 05 00 00 00	 mov	 eax, 5

; 360  : 		return 6;
; 361  : #endif // __VER >= 8 // 8Â÷ µŕľó 061226 ma
; 362  : 
; 363  : 
; 364  : 	return 0;
; 365  : }

  00086	5e		 pop	 esi
  00087	c3		 ret	 0
$LN9@GetSummonS:

; 356  : 
; 357  : 
; 358  : #if __VER >= 8 // 8Â÷ µŕľó 061226 ma
; 359  : 	if( m_nDuel )

  00088	8b 86 3c 07 00
	00		 mov	 eax, DWORD PTR [esi+1852]
  0008e	f7 d8		 neg	 eax
  00090	5f		 pop	 edi
  00091	1b c0		 sbb	 eax, eax
  00093	83 e0 06	 and	 eax, 6

; 360  : 		return 6;
; 361  : #endif // __VER >= 8 // 8Â÷ µŕľó 061226 ma
; 362  : 
; 363  : 
; 364  : 	return 0;
; 365  : }

  00096	5e		 pop	 esi
  00097	c3		 ret	 0
$LN7@GetSummonS:
  00098	5f		 pop	 edi

; 347  : 		return 3;

  00099	b8 03 00 00 00	 mov	 eax, 3

; 360  : 		return 6;
; 361  : #endif // __VER >= 8 // 8Â÷ µŕľó 061226 ma
; 362  : 
; 363  : 
; 364  : 	return 0;
; 365  : }

  0009e	5e		 pop	 esi
  0009f	c3		 ret	 0
$LN22@GetSummonS:
  000a0	5f		 pop	 edi

; 340  : 
; 341  : 	// Á×Ŕ˝
; 342  : 	if( IsDie() )
; 343  : 		return 2;

  000a1	b8 02 00 00 00	 mov	 eax, 2

; 360  : 		return 6;
; 361  : #endif // __VER >= 8 // 8Â÷ µŕľó 061226 ma
; 362  : 
; 363  : 
; 364  : 	return 0;
; 365  : }

  000a6	5e		 pop	 esi
  000a7	c3		 ret	 0
$LN23@GetSummonS:
  000a8	5f		 pop	 edi

; 339  : 		return 1;

  000a9	b8 01 00 00 00	 mov	 eax, 1

; 360  : 		return 6;
; 361  : #endif // __VER >= 8 // 8Â÷ µŕľó 061226 ma
; 362  : 
; 363  : 
; 364  : 	return 0;
; 365  : }

  000ae	5e		 pop	 esi
  000af	c3		 ret	 0
?GetSummonState@CMover@@QAEHXZ ENDP			; CMover::GetSummonState
_TEXT	ENDS
; Function compile flags: /Ogtp
; File C:\IAGOS\server\v18\Source\Source\_Common\MoverParam.cpp
; File C:\IAGOS\server\v18\Source\Source\_Common\xUtil.h
; File C:\IAGOS\server\v18\Source\Source\_Common\MoverParam.cpp
;	COMDAT ?GetRandomPartsAbraded@CMover@@QAEKXZ
_TEXT	SEGMENT
?GetRandomPartsAbraded@CMover@@QAEKXZ PROC		; CMover::GetRandomPartsAbraded, COMDAT
; _this$ = ecx
; File C:\IAGOS\server\v18\Source\Source\_Common\xUtil.h

; 16   : 	g_next = g_next * 1103515245 + 12345;// + nRandomSeed[ i++ ];

  00000	69 0d 00 00 00
	00 6d 4e c6 41	 imul	 ecx, DWORD PTR ?g_next@@3KA, 1103515245 ; g_next
  0000a	81 c1 39 30 00
	00		 add	 ecx, 12345		; 00003039H
  00010	89 0d 00 00 00
	00		 mov	 DWORD PTR ?g_next@@3KA, ecx ; g_next
; File C:\IAGOS\server\v18\Source\Source\_Common\MoverParam.cpp

; 3927 : 	if( nRand % 2 )

  00016	f6 c1 01	 test	 cl, 1
  00019	74 06		 je	 SHORT $LN2@GetRandomP

; 3928 : 		return PARTS_SHIELD;

  0001b	b8 0b 00 00 00	 mov	 eax, 11			; 0000000bH

; 3935 : 		return PARTS_HAND;
; 3936 : 	else	// 15%
; 3937 : 		return PARTS_FOOT;
; 3938 : }

  00020	c3		 ret	 0
$LN2@GetRandomP:

; 3929 : 	nRand	= nRand % 100;

  00021	b8 1f 85 eb 51	 mov	 eax, 1374389535		; 51eb851fH
  00026	f7 e9		 imul	 ecx
  00028	c1 fa 05	 sar	 edx, 5
  0002b	8b c2		 mov	 eax, edx
  0002d	c1 e8 1f	 shr	 eax, 31			; 0000001fH
  00030	03 c2		 add	 eax, edx
  00032	6b c0 64	 imul	 eax, eax, 100
  00035	2b c8		 sub	 ecx, eax

; 3930 : 	if( nRand < 20 )	// 20%

  00037	83 f9 14	 cmp	 ecx, 20			; 00000014H
  0003a	7d 06		 jge	 SHORT $LN3@GetRandomP

; 3931 : 		return PARTS_CAP;

  0003c	b8 06 00 00 00	 mov	 eax, 6

; 3935 : 		return PARTS_HAND;
; 3936 : 	else	// 15%
; 3937 : 		return PARTS_FOOT;
; 3938 : }

  00041	c3		 ret	 0
$LN3@GetRandomP:

; 3932 : 	else if( nRand < 60 )	// 40%

  00042	83 f9 3c	 cmp	 ecx, 60			; 0000003cH
  00045	7d 06		 jge	 SHORT $LN5@GetRandomP

; 3933 : 		return PARTS_UPPER_BODY;

  00047	b8 02 00 00 00	 mov	 eax, 2

; 3935 : 		return PARTS_HAND;
; 3936 : 	else	// 15%
; 3937 : 		return PARTS_FOOT;
; 3938 : }

  0004c	c3		 ret	 0
$LN5@GetRandomP:

; 3934 : 	else if( nRand < 85 )	// 25%

  0004d	33 c0		 xor	 eax, eax
  0004f	83 f9 55	 cmp	 ecx, 85			; 00000055H
  00052	0f 9d c0	 setge	 al
  00055	83 c0 04	 add	 eax, 4

; 3935 : 		return PARTS_HAND;
; 3936 : 	else	// 15%
; 3937 : 		return PARTS_FOOT;
; 3938 : }

  00058	c3		 ret	 0
?GetRandomPartsAbraded@CMover@@QAEKXZ ENDP		; CMover::GetRandomPartsAbraded
_TEXT	ENDS
; Function compile flags: /Ogtp
; File C:\IAGOS\server\v18\Source\Source\_Common\MoverParam.cpp
;	COMDAT ?Abrade@CMover@@QAEXPAV1@H@Z
_TEXT	SEGMENT
_pAttacker$ = 8						; size = 4
_nParts$ = 12						; size = 4
?Abrade@CMover@@QAEXPAV1@H@Z PROC			; CMover::Abrade, COMDAT
; _this$ = ecx

; 3855 : #if __VER < 11 // __REMOVE_ENDURANCE
; 3856 : 	if( NULL == pAttacker )
; 3857 : 		return;
; 3858 : 
; 3859 : 	if( pAttacker->IsPlayer() )
; 3860 : 	{
; 3861 : 		CItemElem* pWeapon	= pAttacker->GetWeaponItem( nParts );
; 3862 : 		if( pWeapon == NULL )
; 3863 : 			return;
; 3864 : 
; 3865 : 		ItemProp* pWeaponProp	= pWeapon->GetProp();
; 3866 : 		if( pWeaponProp == NULL )
; 3867 : 			return;
; 3868 : 		
; 3869 : 		int nWpn = pWeapon->m_nHitPoint;
; 3870 : 		pWeapon->m_nHitPoint	-= ( pWeaponProp->nAbrasion  / 5 ) * GetItemEnduranceWeight(0);			// µÚżˇĽ­ Ăß°ˇ·Î ±đÁö ľĘ°í ż©±âĽ­ 2ąř °öÇß´Ů.
; 3871 : 		if( pWeapon->m_nHitPoint < 0 )		pWeapon->m_nHitPoint = 0;
; 3872 : 		
; 3873 : 		if( nWpn != pWeapon->m_nHitPoint )
; 3874 : 			pAttacker->UpdateItem( pWeapon->m_dwObjId, UI_HP, pWeapon->m_nHitPoint );
; 3875 : 		
; 3876 : 		if( !IsPlayer() )	// PVP
; 3877 : 			return;
; 3878 : 		
; 3879 : 		DWORD dwParts	= GetRandomPartsAbraded();
; 3880 : 		CItemElem* pArmorElem	= m_Inventory.GetEquip( dwParts );
; 3881 : 		if( pArmorElem )
; 3882 : 		{
; 3883 : 			ItemProp* pArmorProp		= pArmorElem->GetProp();
; 3884 : 			if( pArmorProp && ( pArmorProp->dwItemKind2 == IK2_ARMOR || pArmorProp->dwItemKind2 == IK2_ARMORETC ))
; 3885 : 			{
; 3886 : 				int nArm = pArmorElem->m_nHitPoint;
; 3887 : 				pArmorElem->m_nHitPoint		-= pArmorProp->nAbrasion * GetItemEnduranceWeight(0);
; 3888 : 				if( pArmorElem->m_nHitPoint < 0 )	pArmorElem->m_nHitPoint	= 0;
; 3889 : 				
; 3890 : 				if( nArm != pArmorElem->m_nHitPoint )
; 3891 : 					UpdateItem( pArmorElem->m_dwObjId, UI_HP, pArmorElem->m_nHitPoint );
; 3892 : 			}
; 3893 : 		}
; 3894 : 	}
; 3895 : 	else
; 3896 : 	{
; 3897 : 		if( !IsPlayer() )	// MVP
; 3898 : 			return;
; 3899 : 
; 3900 : 		DWORD dwParts	= GetRandomPartsAbraded();
; 3901 : 		CItemElem* pArmorElem	= m_Inventory.GetEquip( dwParts );
; 3902 : 		if( pArmorElem == NULL )
; 3903 : 			return;
; 3904 : 		
; 3905 : 		ItemProp* pArmorProp		= pArmorElem->GetProp();
; 3906 : 		if( pArmorProp && ( pArmorProp->dwItemKind2 == IK2_ARMOR || pArmorProp->dwItemKind2 == IK2_ARMORETC ) )
; 3907 : 		{
; 3908 : 			ItemProp* pWeaponProp	= pAttacker->GetActiveHandItemProp( nParts );
; 3909 : 			if( pWeaponProp )
; 3910 : 			{
; 3911 : 				int nArm = pArmorElem->m_nHitPoint;
; 3912 : 				pArmorElem->m_nHitPoint		-= pArmorProp->nAbrasion * GetItemEnduranceWeight(0);
; 3913 : 				if( pArmorElem->m_nHitPoint < 0 )
; 3914 : 					pArmorElem->m_nHitPoint	= 0;
; 3915 : 				if( nArm != pArmorElem->m_nHitPoint )
; 3916 : 					UpdateItem( pArmorElem->m_dwObjId, UI_HP, pArmorElem->m_nHitPoint );
; 3917 : 			}
; 3918 : 		}
; 3919 : 	}
; 3920 : #endif // __REMOVE_ENDURANCE
; 3921 : }

  00000	c2 08 00	 ret	 8
?Abrade@CMover@@QAEXPAV1@H@Z ENDP			; CMover::Abrade
_TEXT	ENDS
; Function compile flags: /Ogtp
; File C:\IAGOS\server\v18\Source\Source\_Common\MoverParam.cpp
;	COMDAT ?RemoveItemA@CMover@@QAEHKF@Z
_TEXT	SEGMENT
_nSize$1$ = -12						; size = 4
_this$1$ = -8						; size = 4
_nRemnant$ = -4						; size = 2
_dwItemId$ = 8						; size = 4
_nNum$ = 12						; size = 2
?RemoveItemA@CMover@@QAEHKF@Z PROC			; CMover::RemoveItemA, COMDAT
; _this$ = ecx

; 3786 : {

  00000	55		 push	 ebp
  00001	8b ec		 mov	 ebp, esp
  00003	83 ec 0c	 sub	 esp, 12			; 0000000cH

; 3787 : 	if( nNum == -1 )

  00006	66 8b 45 0c	 mov	 ax, WORD PTR _nNum$[ebp]
  0000a	89 4d f8	 mov	 DWORD PTR _this$1$[ebp], ecx
  0000d	66 83 f8 ff	 cmp	 ax, -1
  00011	75 0e		 jne	 SHORT $LN5@RemoveItem

; 3788 : 	{
; 3789 : 		return RemoveAllItem( dwItemId );

  00013	ff 75 08	 push	 DWORD PTR _dwItemId$[ebp]
  00016	e8 00 00 00 00	 call	 ?RemoveAllItem@CMover@@QAEHK@Z ; CMover::RemoveAllItem

; 3814 : }

  0001b	8b e5		 mov	 esp, ebp
  0001d	5d		 pop	 ebp
  0001e	c2 08 00	 ret	 8
$LN5@RemoveItem:

; 3790 : 	}
; 3791 : 
; 3792 : 	int	nSize	= m_Inventory.GetMax();

  00021	8b 91 08 0b 00
	00		 mov	 edx, DWORD PTR [ecx+2824]
  00027	53		 push	 ebx
  00028	56		 push	 esi
  00029	57		 push	 edi

; 3793 : 	CItemElem* pItemElem;
; 3794 : 	short nRemnant	= nNum;

  0002a	0f b7 c0	 movzx	 eax, ax

; 3795 : 
; 3796 : 	for( int i = 0 ; i < nSize && nRemnant > 0; i++ )

  0002d	33 ff		 xor	 edi, edi
  0002f	89 55 f4	 mov	 DWORD PTR _nSize$1$[ebp], edx
  00032	66 8b f0	 mov	 si, ax
  00035	89 45 fc	 mov	 DWORD PTR _nRemnant$[ebp], eax
  00038	85 d2		 test	 edx, edx
  0003a	7e 69		 jle	 SHORT $LN3@RemoveItem
  0003c	0f 1f 40 00	 npad	 4
$LL4@RemoveItem:
  00040	66 85 f6	 test	 si, si
  00043	7e 60		 jle	 SHORT $LN3@RemoveItem

; 3797 : 	{
; 3798 : 		pItemElem	= m_Inventory.GetAtId( i );

  00045	57		 push	 edi
  00046	81 c1 fc 0a 00
	00		 add	 ecx, 2812		; 00000afcH
  0004c	e8 00 00 00 00	 call	 ?GetAtId@?$CItemContainer@VCItemElem@@@@QAEPAVCItemElem@@K@Z ; CItemContainer<CItemElem>::GetAtId
  00051	8b d8		 mov	 ebx, eax

; 3799 : 		if( pItemElem && pItemElem->m_dwItemId == dwItemId )

  00053	85 db		 test	 ebx, ebx
  00055	74 45		 je	 SHORT $LN2@RemoveItem
  00057	8b 45 08	 mov	 eax, DWORD PTR _dwItemId$[ebp]
  0005a	39 43 0c	 cmp	 DWORD PTR [ebx+12], eax
  0005d	75 3d		 jne	 SHORT $LN2@RemoveItem

; 3800 : 		{
; 3801 : 			if( nRemnant > pItemElem->m_nItemNum )

  0005f	0f b7 43 74	 movzx	 eax, WORD PTR [ebx+116]
  00063	6a 00		 push	 0
  00065	66 3b f0	 cmp	 si, ax
  00068	7e 13		 jle	 SHORT $LN7@RemoveItem

; 3802 : 			{
; 3803 : 				UpdateItem( i, UI_NUM, 0 );	// remove

  0006a	8b 4d f8	 mov	 ecx, DWORD PTR _this$1$[ebp]
  0006d	6a 00		 push	 0
  0006f	6a 00		 push	 0
  00071	57		 push	 edi
  00072	e8 00 00 00 00	 call	 ?UpdateItem@CMover@@QAEXEDKK@Z ; CMover::UpdateItem

; 3804 : 				nRemnant	-= pItemElem->m_nItemNum;

  00077	66 2b 73 74	 sub	 si, WORD PTR [ebx+116]

; 3805 : 			}

  0007b	eb 1f		 jmp	 SHORT $LN2@RemoveItem
$LN7@RemoveItem:

; 3806 : 			else
; 3807 : 			{
; 3808 : 				UpdateItem( i, UI_NUM, pItemElem->m_nItemNum - nRemnant );

  0007d	0f bf c8	 movsx	 ecx, ax
  00080	0f bf c6	 movsx	 eax, si
  00083	2b c8		 sub	 ecx, eax
  00085	51		 push	 ecx
  00086	8b 4d f8	 mov	 ecx, DWORD PTR _this$1$[ebp]
  00089	6a 00		 push	 0
  0008b	57		 push	 edi
  0008c	e8 00 00 00 00	 call	 ?UpdateItem@CMover@@QAEXEDKK@Z ; CMover::UpdateItem

; 3809 : 				nRemnant	= 0;

  00091	c7 45 fc 00 00
	00 00		 mov	 DWORD PTR _nRemnant$[ebp], 0
  00098	66 8b 75 fc	 mov	 si, WORD PTR _nRemnant$[ebp]
$LN2@RemoveItem:

; 3795 : 
; 3796 : 	for( int i = 0 ; i < nSize && nRemnant > 0; i++ )

  0009c	8b 4d f8	 mov	 ecx, DWORD PTR _this$1$[ebp]
  0009f	47		 inc	 edi
  000a0	3b 7d f4	 cmp	 edi, DWORD PTR _nSize$1$[ebp]
  000a3	7c 9b		 jl	 SHORT $LL4@RemoveItem
$LN3@RemoveItem:

; 3810 : 			}
; 3811 : 		}
; 3812 : 	}
; 3813 : 	return ( nNum - nRemnant );

  000a5	66 8b 45 0c	 mov	 ax, WORD PTR _nNum$[ebp]
  000a9	5f		 pop	 edi
  000aa	0f bf ce	 movsx	 ecx, si
  000ad	98		 cwde
  000ae	5e		 pop	 esi
  000af	2b c1		 sub	 eax, ecx
  000b1	5b		 pop	 ebx

; 3814 : }

  000b2	8b e5		 mov	 esp, ebp
  000b4	5d		 pop	 ebp
  000b5	c2 08 00	 ret	 8
?RemoveItemA@CMover@@QAEHKF@Z ENDP			; CMover::RemoveItemA
_TEXT	ENDS
; Function compile flags: /Ogtp
; File C:\IAGOS\server\v18\Source\Source\_Common\MoverParam.cpp
;	COMDAT ?IsLegendHero@CMover@@QAEHXZ
_TEXT	SEGMENT
?IsLegendHero@CMover@@QAEHXZ PROC			; CMover::IsLegendHero, COMDAT
; _this$ = ecx

; 430  : 	return prj.m_aJob[ m_nJob ].dwJobType == JTYPE_LEGEND_HERO;

  00000	8b 81 3c 06 00
	00		 mov	 eax, DWORD PTR [ecx+1596]
  00006	8d 0c c0	 lea	 ecx, DWORD PTR [eax+eax*8]
  00009	33 c0		 xor	 eax, eax
  0000b	83 3c cd c4 27
	00 00 07	 cmp	 DWORD PTR ?prj@@3VCProject@@A[ecx*8+10180], 7
  00013	0f 94 c0	 sete	 al

; 431  : }

  00016	c3		 ret	 0
?IsLegendHero@CMover@@QAEHXZ ENDP			; CMover::IsLegendHero
_TEXT	ENDS
; Function compile flags: /Ogtp
; File C:\IAGOS\server\v18\Source\Source\_Common\MoverParam.cpp
;	COMDAT ?IsHero@CMover@@QAEHXZ
_TEXT	SEGMENT
?IsHero@CMover@@QAEHXZ PROC				; CMover::IsHero, COMDAT
; _this$ = ecx

; 423  : 	return prj.m_aJob[ m_nJob ].dwJobType == 6;//temp JTYPE_HERO;

  00000	8b 81 3c 06 00
	00		 mov	 eax, DWORD PTR [ecx+1596]
  00006	8d 0c c0	 lea	 ecx, DWORD PTR [eax+eax*8]
  00009	33 c0		 xor	 eax, eax
  0000b	83 3c cd c4 27
	00 00 06	 cmp	 DWORD PTR ?prj@@3VCProject@@A[ecx*8+10180], 6
  00013	0f 94 c0	 sete	 al

; 424  : }

  00016	c3		 ret	 0
?IsHero@CMover@@QAEHXZ ENDP				; CMover::IsHero
_TEXT	ENDS
; Function compile flags: /Ogtp
; File C:\IAGOS\server\v18\Source\Source\_Common\MoverParam.cpp
;	COMDAT ?IsMaster@CMover@@QAEHXZ
_TEXT	SEGMENT
?IsMaster@CMover@@QAEHXZ PROC				; CMover::IsMaster, COMDAT
; _this$ = ecx

; 418  : 	return prj.m_aJob[ m_nJob ].dwJobType == 5;//temp JTYPE_MASTER;

  00000	8b 81 3c 06 00
	00		 mov	 eax, DWORD PTR [ecx+1596]
  00006	8d 0c c0	 lea	 ecx, DWORD PTR [eax+eax*8]
  00009	33 c0		 xor	 eax, eax
  0000b	83 3c cd c4 27
	00 00 05	 cmp	 DWORD PTR ?prj@@3VCProject@@A[ecx*8+10180], 5
  00013	0f 94 c0	 sete	 al

; 419  : }

  00016	c3		 ret	 0
?IsMaster@CMover@@QAEHXZ ENDP				; CMover::IsMaster
_TEXT	ENDS
; Function compile flags: /Ogtp
; File C:\IAGOS\server\v18\Source\Source\_Common\MoverParam.cpp
;	COMDAT ?GetLegendChar@CMover@@QAEEXZ
_TEXT	SEGMENT
?GetLegendChar@CMover@@QAEEXZ PROC			; CMover::GetLegendChar, COMDAT
; _this$ = ecx

; 403  : {

  00000	56		 push	 esi
  00001	8b f1		 mov	 esi, ecx

; 404  : 	if(IsMaster())

  00003	e8 00 00 00 00	 call	 ?IsMaster@CMover@@QAEHXZ ; CMover::IsMaster
  00008	85 c0		 test	 eax, eax
  0000a	74 04		 je	 SHORT $LN2@GetLegendC

; 405  : 		return LEGEND_CLASS_MASTER;

  0000c	b0 01		 mov	 al, 1
  0000e	5e		 pop	 esi

; 410  : 		return LEGEND_CLASS_LEGENDHERO;
; 411  : #endif //  __3RD_LEGEND16
; 412  : 	else
; 413  : 		return LEGEND_CLASS_NORMAL;
; 414  : }

  0000f	c3		 ret	 0
$LN2@GetLegendC:

; 406  : 	else if(IsHero())

  00010	8b ce		 mov	 ecx, esi
  00012	e8 00 00 00 00	 call	 ?IsHero@CMover@@QAEHXZ	; CMover::IsHero
  00017	85 c0		 test	 eax, eax
  00019	74 04		 je	 SHORT $LN4@GetLegendC

; 407  : 		return	LEGEND_CLASS_HERO;

  0001b	b0 02		 mov	 al, 2
  0001d	5e		 pop	 esi

; 410  : 		return LEGEND_CLASS_LEGENDHERO;
; 411  : #endif //  __3RD_LEGEND16
; 412  : 	else
; 413  : 		return LEGEND_CLASS_NORMAL;
; 414  : }

  0001e	c3		 ret	 0
$LN4@GetLegendC:

; 408  : #ifdef __3RD_LEGEND16
; 409  : 	else if(IsLegendHero())

  0001f	8b ce		 mov	 ecx, esi
  00021	e8 00 00 00 00	 call	 ?IsLegendHero@CMover@@QAEHXZ ; CMover::IsLegendHero
  00026	f7 d8		 neg	 eax
  00028	5e		 pop	 esi
  00029	1a c0		 sbb	 al, al
  0002b	24 03		 and	 al, 3

; 410  : 		return LEGEND_CLASS_LEGENDHERO;
; 411  : #endif //  __3RD_LEGEND16
; 412  : 	else
; 413  : 		return LEGEND_CLASS_NORMAL;
; 414  : }

  0002d	c3		 ret	 0
?GetLegendChar@CMover@@QAEEXZ ENDP			; CMover::GetLegendChar
_TEXT	ENDS
; Function compile flags: /Ogtp
; File C:\IAGOS\server\v18\Source\Source\_Common\MoverParam.cpp
;	COMDAT ?PutLvUpSkillName_2@CMover@@QAEXK@Z
_TEXT	SEGMENT
_dwSkill$ = 8						; size = 4
?PutLvUpSkillName_2@CMover@@QAEXK@Z PROC		; CMover::PutLvUpSkillName_2, COMDAT
; _this$ = ecx

; 300  : #ifdef __CLIENT
; 301  : 	LPSKILL pSkill = GetSkill( dwSkill );
; 302  : 	ItemProp* pSkillProp = prj.GetSkillProp( dwSkill );
; 303  : 	
; 304  : 	//ÇöŔç Č°ĽşČ­ µÇľîŔÖ´ÂłÄ?
; 305  : 	//łŞ¸¦ °®°íŔÖ´Â ˝şĹłŔ» °Ë»çÇĎż© Á¶°Çżˇ ¸ÂŔ¸¸é ±×˝şĹłŔ» Č°ĽşČ­ ÇŃ´Ů.
; 306  : 	for( int i = 0; i < MAX_SKILL_JOB; i++ )	
; 307  : 	{
; 308  : 		if( m_aJobSkill[i].dwSkill == NULL_ID ) 
; 309  : 			continue;
; 310  : 
; 311  : 		if( IsSkillParent( this, m_aJobSkill[i].dwSkill, dwSkill ) )
; 312  : 		{
; 313  : 			if( IsActive( this, m_aJobSkill[i].dwSkill ) )
; 314  : 			{
; 315  : 				ItemProp* pSkillProp1;
; 316  : 				pSkillProp1 = prj.GetSkillProp( m_aJobSkill[i].dwSkill );
; 317  : 
; 318  : 				CString str;
; 319  : 				str.Format( prj.GetText( TID_GAME_REAPSKILL ), pSkillProp1->szName );
; 320  : 				g_WndMng.PutString( (LPCTSTR)str, NULL, prj.GetTextColor( TID_GAME_REAPSKILL ) );	
; 321  : 			}
; 322  : 		}
; 323  : 	}
; 324  : #endif // CLIENT
; 325  : }

  00000	c2 04 00	 ret	 4
?PutLvUpSkillName_2@CMover@@QAEXK@Z ENDP		; CMover::PutLvUpSkillName_2
_TEXT	ENDS
; Function compile flags: /Ogtp
; File C:\IAGOS\server\v18\Source\Source\_Common\MoverParam.cpp
;	COMDAT ?PutLvUpSkillName_1@CMover@@QAEXK@Z
_TEXT	SEGMENT
_dwLevel$ = 8						; size = 4
?PutLvUpSkillName_1@CMover@@QAEXK@Z PROC		; CMover::PutLvUpSkillName_1, COMDAT
; _this$ = ecx

; 166  : #ifdef __CLIENT
; 167  : 	for( int i = 0; i < MAX_SKILL_JOB; i++ )	
; 168  : 	{
; 169  : 		if( m_aJobSkill[i].dwSkill == NULL_ID ) 
; 170  : 			continue;
; 171  : 		
; 172  : 		ItemProp* pSkillProp = prj.GetSkillProp( m_aJobSkill[i].dwSkill );
; 173  : 		
; 174  : 		if( pSkillProp && dwLevel == pSkillProp->dwReqDisLV )
; 175  : 		{
; 176  : 			if( pSkillProp->dwReSkill1 != -1 )
; 177  : 			{
; 178  : 				LPSKILL pSkill = GetSkill(pSkillProp->dwReSkill1);
; 179  : 
; 180  : 				if( pSkillProp->dwReSkillLevel1 > pSkill->dwLevel )
; 181  : 					continue;
; 182  : 			}
; 183  : 			if( pSkillProp->dwReSkill2 != -1 )
; 184  : 			{
; 185  : 				LPSKILL pSkill = GetSkill(pSkillProp->dwReSkill2);
; 186  : 				
; 187  : 				if( pSkillProp->dwReSkillLevel2 > pSkill->dwLevel )
; 188  : 					continue;
; 189  : 			}
; 190  : 
; 191  : 			CString str;
; 192  : 			str.Format( prj.GetText( TID_GAME_REAPSKILL ), pSkillProp->szName );
; 193  : 			g_WndMng.PutString( (LPCTSTR)str, NULL, prj.GetTextColor( TID_GAME_REAPSKILL ) );
; 194  : 		}
; 195  : 	}
; 196  : #endif //__CLIENT
; 197  : }		

  00000	c2 04 00	 ret	 4
?PutLvUpSkillName_1@CMover@@QAEXK@Z ENDP		; CMover::PutLvUpSkillName_1
_TEXT	ENDS
; Function compile flags: /Ogtp
; File C:\IAGOS\server\v18\Source\Source\_Common\MoverParam.cpp
; File C:\IAGOS\server\v18\Source\Source\_Common\Mover.h
; File C:\IAGOS\server\v18\Source\Source\_Common\MoverParam.cpp
;	COMDAT ?HalfForceSet@CMover@@QAEXAAUD3DXVECTOR3@@0MMMM@Z
_TEXT	SEGMENT
_vPos$ = 8						; size = 4
_vd$ = 12						; size = 4
_fAngle$ = 16						; size = 4
_fAngleX$ = 20						; size = 4
_fAccPower$ = 24					; size = 4
_fTurnAngle$ = 28					; size = 4
?HalfForceSet@CMover@@QAEXAAUD3DXVECTOR3@@0MMMM@Z PROC	; CMover::HalfForceSet, COMDAT
; _this$ = ecx

; 3523 : {

  00000	55		 push	 ebp
  00001	8b ec		 mov	 ebp, esp
  00003	56		 push	 esi
  00004	8b f1		 mov	 esi, ecx

; 3524 : 	m_uRemnantCorrFrm	= 0;
; 3525 : 	if( m_pActMover == NULL )	return;

  00006	83 be 38 02 00
	00 00		 cmp	 DWORD PTR [esi+568], 0
  0000d	c7 86 78 02 00
	00 00 00 00 00	 mov	 DWORD PTR [esi+632], 0
  00017	0f 84 8e 00 00
	00		 je	 $LN1@HalfForceS

; 3528 : 	SetPos( vPos );

  0001d	ff 75 08	 push	 DWORD PTR _vPos$[ebp]
; File C:\IAGOS\server\v18\Source\Source\_Common\Mover.h

; 1030 : 	void			ClearDestObj()     	{ m_idDest = NULL_ID; m_fArrivalRange = 0.0f; }

  00020	c7 86 58 02 00
	00 ff ff ff ff	 mov	 DWORD PTR [esi+600], -1
  0002a	c7 86 54 02 00
	00 00 00 00 00	 mov	 DWORD PTR [esi+596], 0

; 1031 : 	void			ClearDestPos()		{ m_vDestPos = D3DXVECTOR3( 0.0f, 0.0f, 0.0f ); }		

  00034	c7 86 5c 02 00
	00 00 00 00 00	 mov	 DWORD PTR [esi+604], 0
  0003e	c7 86 60 02 00
	00 00 00 00 00	 mov	 DWORD PTR [esi+608], 0
  00048	c7 86 64 02 00
	00 00 00 00 00	 mov	 DWORD PTR [esi+612], 0

; 1039 : 	void			ClearDestAngle()	{ m_fDestAngle	= -1.0f; }

  00052	c7 86 68 02 00
	00 00 00 80 bf	 mov	 DWORD PTR [esi+616], -1082130432 ; bf800000H
; File C:\IAGOS\server\v18\Source\Source\_Common\MoverParam.cpp

; 3528 : 	SetPos( vPos );

  0005c	e8 00 00 00 00	 call	 ?SetPos@CObj@@QAEXABUD3DXVECTOR3@@@Z ; CObj::SetPos

; 3529 : 	SetAngle( fAngle );

  00061	f3 0f 10 45 10	 movss	 xmm0, DWORD PTR _fAngle$[ebp]
  00066	51		 push	 ecx
  00067	8b ce		 mov	 ecx, esi
  00069	f3 0f 11 04 24	 movss	 DWORD PTR [esp], xmm0
  0006e	e8 00 00 00 00	 call	 ?SetAngle@CObj@@QAEXM@Z	; CObj::SetAngle

; 3530 : 	SetAngleX( fAngleX );

  00073	f3 0f 10 45 14	 movss	 xmm0, DWORD PTR _fAngleX$[ebp]
  00078	51		 push	 ecx
  00079	8b ce		 mov	 ecx, esi
  0007b	f3 0f 11 04 24	 movss	 DWORD PTR [esp], xmm0
  00080	e8 00 00 00 00	 call	 ?SetAngleX@CObj@@QAEXM@Z ; CObj::SetAngleX

; 3531 : 	m_pActMover->HalfForcedSet( vd, fAccPower, fTurnAngle );

  00085	f3 0f 10 45 1c	 movss	 xmm0, DWORD PTR _fTurnAngle$[ebp]
  0008a	83 ec 08	 sub	 esp, 8
  0008d	8b 8e 38 02 00
	00		 mov	 ecx, DWORD PTR [esi+568]
  00093	f3 0f 11 44 24
	04		 movss	 DWORD PTR [esp+4], xmm0
  00099	f3 0f 10 45 18	 movss	 xmm0, DWORD PTR _fAccPower$[ebp]
  0009e	f3 0f 11 04 24	 movss	 DWORD PTR [esp], xmm0
  000a3	ff 75 0c	 push	 DWORD PTR _vd$[ebp]
  000a6	e8 00 00 00 00	 call	 ?HalfForcedSet@CActionMover@@QAEXAAUD3DXVECTOR3@@MM@Z ; CActionMover::HalfForcedSet
$LN1@HalfForceS:
  000ab	5e		 pop	 esi

; 3532 : }

  000ac	5d		 pop	 ebp
  000ad	c2 18 00	 ret	 24			; 00000018H
?HalfForceSet@CMover@@QAEXAAUD3DXVECTOR3@@0MMMM@Z ENDP	; CMover::HalfForceSet
_TEXT	ENDS
; Function compile flags: /Ogtp
; File C:\IAGOS\server\v18\Source\Source\_Common\MoverParam.cpp
; File C:\IAGOS\server\v18\Source\Source\_Common\Mover.h
; File C:\IAGOS\server\v18\Source\Source\_Common\MoverParam.cpp
;	COMDAT ?ActionForceSet2@CMover@@QAEXAAUD3DXVECTOR3@@0MMMMKKHHHK@Z
_TEXT	SEGMENT
_vPos$ = 8						; size = 4
_vDelta$ = 12						; size = 4
_fAngle$ = 16						; size = 4
_fAngleX$ = 20						; size = 4
_fAccPower$ = 24					; size = 4
_fTurnAngle$ = 28					; size = 4
_dwState$ = 32						; size = 4
_dwStateFlag$ = 36					; size = 4
_nMotion$ = 40						; size = 4
_nMotionEx$ = 44					; size = 4
_nLoop$ = 48						; size = 4
_dwMotionOption$ = 52					; size = 4
?ActionForceSet2@CMover@@QAEXAAUD3DXVECTOR3@@0MMMMKKHHHK@Z PROC ; CMover::ActionForceSet2, COMDAT
; _this$ = ecx

; 3502 : {

  00000	55		 push	 ebp
  00001	8b ec		 mov	 ebp, esp
  00003	56		 push	 esi
  00004	8b f1		 mov	 esi, ecx

; 3503 : 	m_uRemnantCorrFrm	= 0;
; 3504 : 	if( m_pActMover == NULL )	return;

  00006	83 be 38 02 00
	00 00		 cmp	 DWORD PTR [esi+568], 0
  0000d	c7 86 78 02 00
	00 00 00 00 00	 mov	 DWORD PTR [esi+632], 0
  00017	0f 84 d1 00 00
	00		 je	 $LN1@ActionForc

; 3505 : 	CModelObject* pModel = (CModelObject*)m_pModel;

  0001d	57		 push	 edi
  0001e	8b be 78 01 00
	00		 mov	 edi, DWORD PTR [esi+376]

; 3508 : 	SetPos( vPos );

  00024	ff 75 08	 push	 DWORD PTR _vPos$[ebp]
; File C:\IAGOS\server\v18\Source\Source\_Common\Mover.h

; 1030 : 	void			ClearDestObj()     	{ m_idDest = NULL_ID; m_fArrivalRange = 0.0f; }

  00027	c7 86 58 02 00
	00 ff ff ff ff	 mov	 DWORD PTR [esi+600], -1
  00031	c7 86 54 02 00
	00 00 00 00 00	 mov	 DWORD PTR [esi+596], 0

; 1031 : 	void			ClearDestPos()		{ m_vDestPos = D3DXVECTOR3( 0.0f, 0.0f, 0.0f ); }		

  0003b	c7 86 5c 02 00
	00 00 00 00 00	 mov	 DWORD PTR [esi+604], 0
  00045	c7 86 60 02 00
	00 00 00 00 00	 mov	 DWORD PTR [esi+608], 0
  0004f	c7 86 64 02 00
	00 00 00 00 00	 mov	 DWORD PTR [esi+612], 0

; 1039 : 	void			ClearDestAngle()	{ m_fDestAngle	= -1.0f; }

  00059	c7 86 68 02 00
	00 00 00 80 bf	 mov	 DWORD PTR [esi+616], -1082130432 ; bf800000H
; File C:\IAGOS\server\v18\Source\Source\_Common\MoverParam.cpp

; 3508 : 	SetPos( vPos );

  00063	e8 00 00 00 00	 call	 ?SetPos@CObj@@QAEXABUD3DXVECTOR3@@@Z ; CObj::SetPos

; 3509 : 	SetAngle( fAngle );

  00068	f3 0f 10 45 10	 movss	 xmm0, DWORD PTR _fAngle$[ebp]
  0006d	51		 push	 ecx
  0006e	8b ce		 mov	 ecx, esi
  00070	f3 0f 11 04 24	 movss	 DWORD PTR [esp], xmm0
  00075	e8 00 00 00 00	 call	 ?SetAngle@CObj@@QAEXM@Z	; CObj::SetAngle

; 3510 : 	SetAngleX( fAngleX );

  0007a	f3 0f 10 45 14	 movss	 xmm0, DWORD PTR _fAngleX$[ebp]
  0007f	51		 push	 ecx
  00080	8b ce		 mov	 ecx, esi
  00082	f3 0f 11 04 24	 movss	 DWORD PTR [esp], xmm0
  00087	e8 00 00 00 00	 call	 ?SetAngleX@CObj@@QAEXM@Z ; CObj::SetAngleX

; 3511 : 	m_pActMover->ForcedSet2( vDelta, fAccPower, fTurnAngle, dwState, dwStateFlag, nMotionEx );

  0008c	ff 75 2c	 push	 DWORD PTR _nMotionEx$[ebp]
  0008f	f3 0f 10 45 1c	 movss	 xmm0, DWORD PTR _fTurnAngle$[ebp]
  00094	ff 75 24	 push	 DWORD PTR _dwStateFlag$[ebp]
  00097	8b 8e 38 02 00
	00		 mov	 ecx, DWORD PTR [esi+568]
  0009d	ff 75 20	 push	 DWORD PTR _dwState$[ebp]
  000a0	83 ec 08	 sub	 esp, 8
  000a3	f3 0f 11 44 24
	04		 movss	 DWORD PTR [esp+4], xmm0
  000a9	f3 0f 10 45 18	 movss	 xmm0, DWORD PTR _fAccPower$[ebp]
  000ae	f3 0f 11 04 24	 movss	 DWORD PTR [esp], xmm0
  000b3	ff 75 0c	 push	 DWORD PTR _vDelta$[ebp]
  000b6	e8 00 00 00 00	 call	 ?ForcedSet2@CActionMover@@QAEXAAUD3DXVECTOR3@@MMKKH@Z ; CActionMover::ForcedSet2

; 3512 : 	m_dwMotion = -1;
; 3513 : #ifdef __WORLDSERVER	
; 3514 : 	if( nMotion == 31 && (dwMotionOption & MOP_FIXED) == 0 )

  000bb	8b 55 28	 mov	 edx, DWORD PTR _nMotion$[ebp]
  000be	8b 4d 34	 mov	 ecx, DWORD PTR _dwMotionOption$[ebp]
  000c1	c7 86 d8 02 00
	00 ff ff ff ff	 mov	 DWORD PTR [esi+728], -1
  000cb	83 fa 1f	 cmp	 edx, 31			; 0000001fH
  000ce	75 08		 jne	 SHORT $LN3@ActionForc
  000d0	f6 c1 02	 test	 cl, 2
  000d3	75 03		 jne	 SHORT $LN3@ActionForc

; 3515 : 		dwMotionOption |= MOP_FIXED;	

  000d5	83 c9 02	 or	 ecx, 2
$LN3@ActionForc:

; 3516 : #endif
; 3517 : 
; 3518 : 	SetMotion( nMotion, nLoop, dwMotionOption );

  000d8	8b 06		 mov	 eax, DWORD PTR [esi]
  000da	51		 push	 ecx
  000db	ff 75 30	 push	 DWORD PTR _nLoop$[ebp]
  000de	8b ce		 mov	 ecx, esi
  000e0	52		 push	 edx
  000e1	ff 50 04	 call	 DWORD PTR [eax+4]

; 3519 : 	pModel->SetMotionBlending( FALSE );

  000e4	6a 00		 push	 0
  000e6	8b cf		 mov	 ecx, edi
  000e8	e8 00 00 00 00	 call	 ?SetMotionBlending@CModelObject@@QAEXH@Z ; CModelObject::SetMotionBlending
  000ed	5f		 pop	 edi
$LN1@ActionForc:
  000ee	5e		 pop	 esi

; 3520 : }

  000ef	5d		 pop	 ebp
  000f0	c2 30 00	 ret	 48			; 00000030H
?ActionForceSet2@CMover@@QAEXAAUD3DXVECTOR3@@0MMMMKKHHHK@Z ENDP ; CMover::ActionForceSet2
_TEXT	ENDS
; Function compile flags: /Ogtp
; File C:\IAGOS\server\v18\Source\Source\_Common\MoverParam.cpp
; File C:\IAGOS\server\v18\Source\Source\_Common\Mover.h
; File C:\IAGOS\server\v18\Source\Source\_Common\MoverParam.cpp
;	COMDAT ?ActionForceSet@CMover@@QAEXAAUD3DXVECTOR3@@0MKKHHHK@Z
_TEXT	SEGMENT
_vPos$ = 8						; size = 4
_vDelta$ = 12						; size = 4
_fAngle$ = 16						; size = 4
_dwState$ = 20						; size = 4
_dwStateFlag$ = 24					; size = 4
_nMotion$ = 28						; size = 4
_nMotionEx$ = 32					; size = 4
_nLoop$ = 36						; size = 4
_dwMotionOption$ = 40					; size = 4
?ActionForceSet@CMover@@QAEXAAUD3DXVECTOR3@@0MKKHHHK@Z PROC ; CMover::ActionForceSet, COMDAT
; _this$ = ecx

; 3481 : {

  00000	55		 push	 ebp
  00001	8b ec		 mov	 ebp, esp
  00003	57		 push	 edi
  00004	8b f9		 mov	 edi, ecx

; 3482 : 	m_uRemnantCorrFrm	= 0;
; 3483 : 	if( m_pActMover == NULL )	return;

  00006	83 bf 38 02 00
	00 00		 cmp	 DWORD PTR [edi+568], 0
  0000d	c7 87 78 02 00
	00 00 00 00 00	 mov	 DWORD PTR [edi+632], 0
  00017	0f 84 84 00 00
	00		 je	 $LN1@ActionForc

; 3484 : 	CModelObject* pModel = (CModelObject*)m_pModel;

  0001d	56		 push	 esi
  0001e	8b b7 78 01 00
	00		 mov	 esi, DWORD PTR [edi+376]

; 3491 : 	SetPos( vPos );

  00024	ff 75 08	 push	 DWORD PTR _vPos$[ebp]
; File C:\IAGOS\server\v18\Source\Source\_Common\Mover.h

; 1031 : 	void			ClearDestPos()		{ m_vDestPos = D3DXVECTOR3( 0.0f, 0.0f, 0.0f ); }		

  00027	c7 87 5c 02 00
	00 00 00 00 00	 mov	 DWORD PTR [edi+604], 0
  00031	c7 87 60 02 00
	00 00 00 00 00	 mov	 DWORD PTR [edi+608], 0
  0003b	c7 87 64 02 00
	00 00 00 00 00	 mov	 DWORD PTR [edi+612], 0

; 1039 : 	void			ClearDestAngle()	{ m_fDestAngle	= -1.0f; }

  00045	c7 87 68 02 00
	00 00 00 80 bf	 mov	 DWORD PTR [edi+616], -1082130432 ; bf800000H
; File C:\IAGOS\server\v18\Source\Source\_Common\MoverParam.cpp

; 3491 : 	SetPos( vPos );

  0004f	e8 00 00 00 00	 call	 ?SetPos@CObj@@QAEXABUD3DXVECTOR3@@@Z ; CObj::SetPos

; 3492 : 	SetAngle( fAngle );

  00054	f3 0f 10 45 10	 movss	 xmm0, DWORD PTR _fAngle$[ebp]
  00059	51		 push	 ecx
  0005a	8b cf		 mov	 ecx, edi
  0005c	f3 0f 11 04 24	 movss	 DWORD PTR [esp], xmm0
  00061	e8 00 00 00 00	 call	 ?SetAngle@CObj@@QAEXM@Z	; CObj::SetAngle

; 3493 : 	m_pActMover->ForcedSet( vDelta, dwState, dwStateFlag, nMotionEx );

  00066	ff 75 20	 push	 DWORD PTR _nMotionEx$[ebp]
  00069	8b 8f 38 02 00
	00		 mov	 ecx, DWORD PTR [edi+568]
  0006f	ff 75 18	 push	 DWORD PTR _dwStateFlag$[ebp]
  00072	ff 75 14	 push	 DWORD PTR _dwState$[ebp]
  00075	ff 75 0c	 push	 DWORD PTR _vDelta$[ebp]
  00078	e8 00 00 00 00	 call	 ?ForcedSet@CActionMover@@QAEXAAUD3DXVECTOR3@@KKH@Z ; CActionMover::ForcedSet

; 3494 : 	m_dwMotion = -1;
; 3495 : 	SetMotion( nMotion, nLoop, dwMotionOption );

  0007d	ff 75 28	 push	 DWORD PTR _dwMotionOption$[ebp]
  00080	8b 07		 mov	 eax, DWORD PTR [edi]
  00082	8b cf		 mov	 ecx, edi
  00084	ff 75 24	 push	 DWORD PTR _nLoop$[ebp]
  00087	c7 87 d8 02 00
	00 ff ff ff ff	 mov	 DWORD PTR [edi+728], -1
  00091	ff 75 1c	 push	 DWORD PTR _nMotion$[ebp]
  00094	ff 50 04	 call	 DWORD PTR [eax+4]

; 3496 : 	pModel->SetMotionBlending( FALSE );

  00097	6a 00		 push	 0
  00099	8b ce		 mov	 ecx, esi
  0009b	e8 00 00 00 00	 call	 ?SetMotionBlending@CModelObject@@QAEXH@Z ; CModelObject::SetMotionBlending
  000a0	5e		 pop	 esi
$LN1@ActionForc:
  000a1	5f		 pop	 edi

; 3497 : }

  000a2	5d		 pop	 ebp
  000a3	c2 24 00	 ret	 36			; 00000024H
?ActionForceSet@CMover@@QAEXAAUD3DXVECTOR3@@0MKKHHHK@Z ENDP ; CMover::ActionForceSet
_TEXT	ENDS
; Function compile flags: /Ogtp
; File C:\IAGOS\server\v18\Source\Source\_Common\MoverParam.cpp
;	COMDAT ?BehaviorActionForceSet@CMover@@QAEXXZ
_TEXT	SEGMENT
?BehaviorActionForceSet@CMover@@QAEXXZ PROC		; CMover::BehaviorActionForceSet, COMDAT
; _this$ = ecx

; 3462 : {

  00000	56		 push	 esi
  00001	8b f1		 mov	 esi, ecx

; 3463 : 	if( m_CorrAction.fValid && m_CorrAction.fBehavior == TRUE ) {

  00003	83 be c0 02 00
	00 00		 cmp	 DWORD PTR [esi+704], 0
  0000a	0f 84 9e 00 00
	00		 je	 $LN4@BehaviorAc
  00010	83 be c4 02 00
	00 01		 cmp	 DWORD PTR [esi+708], 1
  00017	0f 85 91 00 00
	00		 jne	 $LN4@BehaviorAc

; 3464 : 		if( m_CorrAction.dwStateFlag & OBJSTAF_FLY ) {

  0001d	ff b6 98 02 00
	00		 push	 DWORD PTR [esi+664]
  00023	8b 86 88 02 00
	00		 mov	 eax, DWORD PTR [esi+648]
  00029	8d 8e a8 02 00
	00		 lea	 ecx, DWORD PTR [esi+680]
  0002f	8d 96 9c 02 00
	00		 lea	 edx, DWORD PTR [esi+668]
  00035	ff b6 94 02 00
	00		 push	 DWORD PTR [esi+660]
  0003b	ff b6 90 02 00
	00		 push	 DWORD PTR [esi+656]
  00041	ff b6 8c 02 00
	00		 push	 DWORD PTR [esi+652]
  00047	50		 push	 eax
  00048	ff b6 84 02 00
	00		 push	 DWORD PTR [esi+644]
  0004e	a8 08		 test	 al, 8
  00050	74 45		 je	 SHORT $LN3@BehaviorAc

; 3465 : 			ActionForceSet2( m_CorrAction.v, m_CorrAction.vd, m_CorrAction.f,

  00052	f3 0f 10 86 bc
	02 00 00	 movss	 xmm0, DWORD PTR [esi+700]
  0005a	83 ec 10	 sub	 esp, 16			; 00000010H
  0005d	f3 0f 11 44 24
	0c		 movss	 DWORD PTR [esp+12], xmm0
  00063	f3 0f 10 86 b8
	02 00 00	 movss	 xmm0, DWORD PTR [esi+696]
  0006b	f3 0f 11 44 24
	08		 movss	 DWORD PTR [esp+8], xmm0
  00071	f3 0f 10 86 b4
	02 00 00	 movss	 xmm0, DWORD PTR [esi+692]
  00079	f3 0f 11 44 24
	04		 movss	 DWORD PTR [esp+4], xmm0
  0007f	f3 0f 10 86 7c
	02 00 00	 movss	 xmm0, DWORD PTR [esi+636]
  00087	f3 0f 11 04 24	 movss	 DWORD PTR [esp], xmm0
  0008c	51		 push	 ecx
  0008d	52		 push	 edx
  0008e	8b ce		 mov	 ecx, esi
  00090	e8 00 00 00 00	 call	 ?ActionForceSet2@CMover@@QAEXAAUD3DXVECTOR3@@0MMMMKKHHHK@Z ; CMover::ActionForceSet2

; 3466 : 								m_CorrAction.fAngleX, m_CorrAction.fAccPower, m_CorrAction.fTurnAngle,
; 3467 : 								m_CorrAction.dwState, m_CorrAction.dwStateFlag,
; 3468 : 								m_CorrAction.dwMotion, m_CorrAction.nMotionEx, m_CorrAction.nLoop, m_CorrAction.dwMotionOption );
; 3469 : 		}

  00095	eb 17		 jmp	 SHORT $LN4@BehaviorAc
$LN3@BehaviorAc:

; 3470 : 		else {
; 3471 : 			ActionForceSet( m_CorrAction.v, m_CorrAction.vd, m_CorrAction.f,

  00097	f3 0f 10 86 7c
	02 00 00	 movss	 xmm0, DWORD PTR [esi+636]
  0009f	51		 push	 ecx
  000a0	f3 0f 11 04 24	 movss	 DWORD PTR [esp], xmm0
  000a5	51		 push	 ecx
  000a6	52		 push	 edx
  000a7	8b ce		 mov	 ecx, esi
  000a9	e8 00 00 00 00	 call	 ?ActionForceSet@CMover@@QAEXAAUD3DXVECTOR3@@0MKKHHHK@Z ; CMover::ActionForceSet
$LN4@BehaviorAc:

; 3472 : 								m_CorrAction.dwState, m_CorrAction.dwStateFlag,
; 3473 : 								m_CorrAction.dwMotion, m_CorrAction.nMotionEx, m_CorrAction.nLoop, m_CorrAction.dwMotionOption );
; 3474 : 		}
; 3475 : 	}
; 3476 : 	memset( &m_CorrAction, 0, sizeof(CORR_ACTION) );

  000ae	6a 50		 push	 80			; 00000050H
  000b0	8d 86 7c 02 00
	00		 lea	 eax, DWORD PTR [esi+636]
  000b6	6a 00		 push	 0
  000b8	50		 push	 eax
  000b9	e8 00 00 00 00	 call	 _memset
  000be	83 c4 0c	 add	 esp, 12			; 0000000cH
  000c1	5e		 pop	 esi

; 3477 : }

  000c2	c3		 ret	 0
?BehaviorActionForceSet@CMover@@QAEXXZ ENDP		; CMover::BehaviorActionForceSet
_TEXT	ENDS
; Function compile flags: /Ogtp
; File C:\IAGOS\server\v18\Source\Source\_Common\MoverParam.cpp
; File C:\IAGOS\server\v18\Source\Source\_Common\Party.h
; File C:\IAGOS\server\v18\Source\Source\_Common\MoverParam.cpp
; File C:\IAGOS\server\v18\Source\Source\_Common\Obj.h
; File C:\IAGOS\server\v18\Source\Source\_Common\MoverParam.cpp
; File C:\IAGOS\server\v18\Source\Source\_Common\Obj.h
; File C:\IAGOS\server\v18\Source\Source\_Common\MoverParam.cpp
;	COMDAT ?DuelResult@CMover@@QAEHPAV1@@Z
_TEXT	SEGMENT
_pParty$1$ = -4						; size = 4
_pLose$ = 8						; size = 4
_fVal$1$ = 8						; size = 4
?DuelResult@CMover@@QAEHPAV1@@Z PROC			; CMover::DuelResult, COMDAT
; _this$ = ecx

; 831  : {

  00000	55		 push	 ebp
  00001	8b ec		 mov	 ebp, esp
  00003	51		 push	 ecx
  00004	53		 push	 ebx
  00005	56		 push	 esi
  00006	57		 push	 edi
  00007	8b 7d 08	 mov	 edi, DWORD PTR _pLose$[ebp]
  0000a	8b f1		 mov	 esi, ecx

; 832  : #ifdef __WORLDSERVER
; 833  : 	if( pLose->m_nDuel == 1 )

  0000c	8b 87 3c 07 00
	00		 mov	 eax, DWORD PTR [edi+1852]
  00012	83 f8 01	 cmp	 eax, 1
  00015	75 54		 jne	 SHORT $LN4@DuelResult

; 834  : 	{
; 835  : 		if( pLose->GetId() != m_idDuelOther )

  00017	8b 87 bc 01 00
	00		 mov	 eax, DWORD PTR [edi+444]
  0001d	3b 86 40 07 00
	00		 cmp	 eax, DWORD PTR [esi+1856]
  00023	0f 85 c8 01 00
	00		 jne	 $LN8@DuelResult

; 836  : 			return 0;
; 837  : 	}
; 838  : 
; 839  : 	// ˝ÂŔÚ´Â ·ąş§Â÷żˇµű¶ó °ćÇčÄˇ »ó˝Â
; 840  : 	// ĆĐŔÚ´Â ·ąş§Â÷żˇµű¶ó °ćÇčÄˇ% ÇĎ¶ô
; 841  : 	if( pLose->m_nDuel == 1 )	// °łŔÎ PvP
; 842  : 	{
; 843  : 		ChangeFame( pLose );

  00029	57		 push	 edi
  0002a	e8 00 00 00 00	 call	 ?ChangeFame@CMover@@QAEXPAV1@@Z ; CMover::ChangeFame

; 844  : 		
; 845  : #ifdef __PVPDEBUFSKILL
; 846  : 		//pLose->m_SkillState.SetMover( pLose );
; 847  : 		pLose->m_nDead = PROCESS_COUNT * 2;		// Áľ·á ČÄ 2ĂĘ°ŁŔş ą«Ŕű
; 848  : 		pLose->RemoveAttackerBuffs( pLose->m_idDuelOther );

  0002f	ff b7 40 07 00
	00		 push	 DWORD PTR [edi+1856]
  00035	8b cf		 mov	 ecx, edi
  00037	c7 87 ac 0d 00
	00 1e 00 00 00	 mov	 DWORD PTR [edi+3500], 30 ; 0000001eH
  00041	e8 00 00 00 00	 call	 ?RemoveAttackerBuffs@CMover@@QAEXK@Z ; CMover::RemoveAttackerBuffs

; 849  : 		//m_SkillState.SetMover( this );
; 850  : 		m_nDead = PROCESS_COUNT * 2;		// Áľ·á ČÄ 2ĂĘ°ŁŔş ą«Ŕű
; 851  : 		RemoveAttackerBuffs( m_idDuelOther );

  00046	ff b6 40 07 00
	00		 push	 DWORD PTR [esi+1856]
  0004c	8b ce		 mov	 ecx, esi
  0004e	c7 86 ac 0d 00
	00 1e 00 00 00	 mov	 DWORD PTR [esi+3500], 30 ; 0000001eH
  00058	e8 00 00 00 00	 call	 ?RemoveAttackerBuffs@CMover@@QAEXK@Z ; CMover::RemoveAttackerBuffs
$LN6@DuelResult:

; 891  : 	}
; 892  : #endif	// __WORLDSERVER
; 893  : 
; 894  : 	return 1;
; 895  : }

  0005d	5f		 pop	 edi
  0005e	5e		 pop	 esi
  0005f	b8 01 00 00 00	 mov	 eax, 1
  00064	5b		 pop	 ebx
  00065	8b e5		 mov	 esp, ebp
  00067	5d		 pop	 ebp
  00068	c2 04 00	 ret	 4
$LN4@DuelResult:

; 852  : #endif // __PVPDEBUFSKILL
; 853  : 	}
; 854  : 	else
; 855  : 	// ±Ř´Ü µŕľó.
; 856  : 	if( pLose->m_nDuel == 2 )		// ±Ř´Ü µŕľóÁßŔĎ¶© ±Ř´ÜŔĺł˘¸®ŔÇ ·ąş§Ŕ» şń±ł.

  0006b	83 f8 02	 cmp	 eax, 2
  0006e	75 ed		 jne	 SHORT $LN6@DuelResult

; 857  : 	{
; 858  : 		int nVal = 0;
; 859  : 		float fVal = 0;
; 860  : 		int nGap = 0;
; 861  : 
; 862  : 		CParty *pLoseParty = g_PartyMng.GetParty( pLose->m_idparty );

  00070	ff b7 10 07 00
	00		 push	 DWORD PTR [edi+1808]
  00076	b9 00 00 00 00	 mov	 ecx, OFFSET ?g_PartyMng@@3VCPartyMng@@A ; g_PartyMng
  0007b	e8 00 00 00 00	 call	 ?GetParty@CPartyMng@@QAEPAVCParty@@K@Z ; CPartyMng::GetParty
  00080	8b d8		 mov	 ebx, eax

; 863  : 		if( pLoseParty == NULL || pLoseParty->IsLeader( pLose->m_idPlayer ) == FALSE )		// ĆÄĆĽ°ˇ ľř°ĹłŞ Á×ŔşłŃŔĚ ´ëŔĺŔĚ ľĆ´Ď¸é °Á ¸®ĹĎ.

  00082	85 db		 test	 ebx, ebx
  00084	0f 84 67 01 00
	00		 je	 $LN8@DuelResult
; File C:\IAGOS\server\v18\Source\Source\_Common\Party.h

; 106  : 	int		IsLeader( u_long uPlayerId )		{	return( m_aMember[0].m_uPlayerId == uPlayerId );	}

  0008a	8b 53 28	 mov	 edx, DWORD PTR [ebx+40]
  0008d	3b 97 34 02 00
	00		 cmp	 edx, DWORD PTR [edi+564]
; File C:\IAGOS\server\v18\Source\Source\_Common\MoverParam.cpp

; 863  : 		if( pLoseParty == NULL || pLoseParty->IsLeader( pLose->m_idPlayer ) == FALSE )		// ĆÄĆĽ°ˇ ľř°ĹłŞ Á×ŔşłŃŔĚ ´ëŔĺŔĚ ľĆ´Ď¸é °Á ¸®ĹĎ.

  00093	0f 85 58 01 00
	00		 jne	 $LN8@DuelResult

; 864  : 			return 0;
; 865  : 		
; 866  : 		CParty *pParty = g_PartyMng.GetParty( m_idparty );		// ŔĚ±äĂř ĆÄĆĽ.

  00099	ff b6 10 07 00
	00		 push	 DWORD PTR [esi+1808]
  0009f	b9 00 00 00 00	 mov	 ecx, OFFSET ?g_PartyMng@@3VCPartyMng@@A ; g_PartyMng
  000a4	e8 00 00 00 00	 call	 ?GetParty@CPartyMng@@QAEPAVCParty@@K@Z ; CPartyMng::GetParty
  000a9	89 45 fc	 mov	 DWORD PTR _pParty$1$[ebp], eax

; 867  : 		if( pParty == NULL )

  000ac	85 c0		 test	 eax, eax
  000ae	0f 84 3d 01 00
	00		 je	 $LN8@DuelResult

; 868  : 			return 0;
; 869  : 
; 870  : 		CMover* pLeader	= pParty->GetLeader();

  000b4	8b c8		 mov	 ecx, eax
  000b6	e8 00 00 00 00	 call	 ?GetLeader@CParty@@QAEPAVCMover@@XZ ; CParty::GetLeader
; File C:\IAGOS\server\v18\Source\Source\_Common\Obj.h

; 327  : 	return pObj && ( pObj->IsDelete() == FALSE ); 

  000bb	85 c0		 test	 eax, eax
  000bd	74 14		 je	 SHORT $LN33@DuelResult

; 180  : 	BOOL			IsDelete()	{ return (m_dwFlags & OBJ_FLAG_DELETE);  }

  000bf	f6 40 04 01	 test	 BYTE PTR [eax+4], 1

; 327  : 	return pObj && ( pObj->IsDelete() == FALSE ); 

  000c3	75 0e		 jne	 SHORT $LN33@DuelResult
  000c5	8b 8f d8 05 00
	00		 mov	 ecx, DWORD PTR [edi+1496]
; File C:\IAGOS\server\v18\Source\Source\_Common\MoverParam.cpp

; 872  : 			nGap	= pLose->GetLevel() - pLeader->GetLevel();

  000cb	2b 88 d8 05 00
	00		 sub	 ecx, DWORD PTR [eax+1496]
  000d1	eb 0c		 jmp	 SHORT $LN11@DuelResult
$LN33@DuelResult:
; File C:\IAGOS\server\v18\Source\Source\_Common\Obj.h

; 327  : 	return pObj && ( pObj->IsDelete() == FALSE ); 

  000d3	8b 8f d8 05 00
	00		 mov	 ecx, DWORD PTR [edi+1496]
; File C:\IAGOS\server\v18\Source\Source\_Common\MoverParam.cpp

; 874  : 			nGap	= pLose->GetLevel() - GetLevel();

  000d9	2b 8e d8 05 00
	00		 sub	 ecx, DWORD PTR [esi+1496]
$LN11@DuelResult:

; 875  : 		
; 876  : 		if( nGap >= 80 )	{ nVal = 100; fVal = 15.0f; }		// ĆĐŔÚ°ˇ ·ąş§ŔĚ ČÎ łôľŇ´Ů.

  000df	83 f9 50	 cmp	 ecx, 80			; 00000050H
  000e2	7c 12		 jl	 SHORT $LN12@DuelResult
  000e4	f3 0f 10 05 00
	00 00 00	 movss	 xmm0, DWORD PTR __real@41700000
  000ec	be 64 00 00 00	 mov	 esi, 100		; 00000064H
  000f1	e9 9c 00 00 00	 jmp	 $LN58@DuelResult
$LN12@DuelResult:

; 877  : 		else if( nGap >= 50 )	{ nVal = 50; fVal = 10.0f; }

  000f6	83 f9 32	 cmp	 ecx, 50			; 00000032H
  000f9	7c 12		 jl	 SHORT $LN14@DuelResult
  000fb	f3 0f 10 05 00
	00 00 00	 movss	 xmm0, DWORD PTR __real@41200000
  00103	be 32 00 00 00	 mov	 esi, 50			; 00000032H
  00108	e9 85 00 00 00	 jmp	 $LN58@DuelResult
$LN14@DuelResult:

; 878  : 		else if( nGap >= 20 )	{ nVal = 30; fVal = 8.0f; }

  0010d	83 f9 14	 cmp	 ecx, 20			; 00000014H
  00110	7c 0f		 jl	 SHORT $LN16@DuelResult
  00112	f3 0f 10 05 00
	00 00 00	 movss	 xmm0, DWORD PTR __real@41000000
  0011a	be 1e 00 00 00	 mov	 esi, 30			; 0000001eH
  0011f	eb 71		 jmp	 SHORT $LN58@DuelResult
$LN16@DuelResult:

; 879  : 		else if( nGap >= 10 )	{ nVal = 10; fVal = 6.0f; }

  00121	83 f9 0a	 cmp	 ecx, 10			; 0000000aH
  00124	7c 0f		 jl	 SHORT $LN18@DuelResult
  00126	f3 0f 10 05 00
	00 00 00	 movss	 xmm0, DWORD PTR __real@40c00000
  0012e	be 0a 00 00 00	 mov	 esi, 10			; 0000000aH
  00133	eb 5d		 jmp	 SHORT $LN58@DuelResult
$LN18@DuelResult:

; 880  : 		else if( nGap <= -80 )	{ nVal = 1; fVal = 1.0f; }		// ĆĐŔÚ°ˇ ·ąş§ŔĚ ČÎ ł·ľŇ´Ů.

  00135	83 f9 b0	 cmp	 ecx, -80		; ffffffb0H
  00138	7f 0f		 jg	 SHORT $LN20@DuelResult
  0013a	f3 0f 10 05 00
	00 00 00	 movss	 xmm0, DWORD PTR __real@3f800000
  00142	be 01 00 00 00	 mov	 esi, 1
  00147	eb 49		 jmp	 SHORT $LN58@DuelResult
$LN20@DuelResult:

; 881  : 		else if( nGap <= -50 )	{ nVal = 2; fVal = 2.0f; }

  00149	83 f9 ce	 cmp	 ecx, -50		; ffffffceH
  0014c	7f 0f		 jg	 SHORT $LN22@DuelResult
  0014e	f3 0f 10 05 00
	00 00 00	 movss	 xmm0, DWORD PTR __real@40000000
  00156	be 02 00 00 00	 mov	 esi, 2
  0015b	eb 35		 jmp	 SHORT $LN58@DuelResult
$LN22@DuelResult:

; 882  : 		else if( nGap <= -20 )	{ nVal = 3; fVal = 3.0f; }

  0015d	83 f9 ec	 cmp	 ecx, -20		; ffffffecH
  00160	7f 0f		 jg	 SHORT $LN24@DuelResult
  00162	f3 0f 10 05 00
	00 00 00	 movss	 xmm0, DWORD PTR __real@40400000
  0016a	be 03 00 00 00	 mov	 esi, 3
  0016f	eb 21		 jmp	 SHORT $LN58@DuelResult
$LN24@DuelResult:

; 883  : 		else if( nGap <= -10 )	{ nVal = 4; fVal = 4.0f; }

  00171	83 f9 f6	 cmp	 ecx, -10		; fffffff6H
  00174	7f 0f		 jg	 SHORT $LN26@DuelResult
  00176	f3 0f 10 05 00
	00 00 00	 movss	 xmm0, DWORD PTR __real@40800000
  0017e	be 04 00 00 00	 mov	 esi, 4
  00183	eb 0d		 jmp	 SHORT $LN58@DuelResult
$LN26@DuelResult:

; 884  : 		else { nVal = 5; fVal = 5.0f; }	// 9 ~ -9

  00185	f3 0f 10 05 00
	00 00 00	 movss	 xmm0, DWORD PTR __real@40a00000
  0018d	be 05 00 00 00	 mov	 esi, 5
$LN58@DuelResult:

; 885  : 
; 886  : 		g_DPCoreClient.SendSetPartyDuel( pParty->m_uPartyId, pLoseParty->m_uPartyId, FALSE );

  00192	8b 45 fc	 mov	 eax, DWORD PTR _pParty$1$[ebp]
  00195	b9 00 00 00 00	 mov	 ecx, OFFSET ?g_DPCoreClient@@3VCDPCoreClient@@A ; g_DPCoreClient
  0019a	6a 00		 push	 0
  0019c	ff 33		 push	 DWORD PTR [ebx]
  0019e	f3 0f 11 45 08	 movss	 DWORD PTR _fVal$1$[ebp], xmm0
  001a3	ff 30		 push	 DWORD PTR [eax]
  001a5	e8 00 00 00 00	 call	 ?SendSetPartyDuel@CDPCoreClient@@QAEXKKH@Z ; CDPCoreClient::SendSetPartyDuel

; 887  : 
; 888  : 		pLose->m_bLastDuelParty = TRUE;
; 889  : 		pLoseParty->DoDuelResult( pParty, 0, nVal, fVal );		// ĆÄĆĽżřµéżˇ°Ô ĆĐąč»ç˝ÇŔ» ľË¸®°í µŕľó ÁßÁö˝ĂĹ´.

  001aa	f3 0f 10 45 08	 movss	 xmm0, DWORD PTR _fVal$1$[ebp]
  001af	51		 push	 ecx
  001b0	f3 0f 11 04 24	 movss	 DWORD PTR [esp], xmm0
  001b5	8b cb		 mov	 ecx, ebx
  001b7	56		 push	 esi
  001b8	c7 87 f4 0d 00
	00 01 00 00 00	 mov	 DWORD PTR [edi+3572], 1
  001c2	8b 7d fc	 mov	 edi, DWORD PTR _pParty$1$[ebp]
  001c5	6a 00		 push	 0
  001c7	57		 push	 edi
  001c8	e8 00 00 00 00	 call	 ?DoDuelResult@CParty@@QAEXPAV1@HHM@Z ; CParty::DoDuelResult

; 890  : 		pParty->DoDuelResult( pLoseParty, 1, nVal, fVal );		// ĆÄĆĽżřµéżˇ°Ô ˝Â¸®¸¦ ľË¸˛.

  001cd	f3 0f 10 45 08	 movss	 xmm0, DWORD PTR _fVal$1$[ebp]
  001d2	51		 push	 ecx
  001d3	f3 0f 11 04 24	 movss	 DWORD PTR [esp], xmm0
  001d8	8b cf		 mov	 ecx, edi
  001da	56		 push	 esi
  001db	6a 01		 push	 1
  001dd	53		 push	 ebx
  001de	e8 00 00 00 00	 call	 ?DoDuelResult@CParty@@QAEXPAV1@HHM@Z ; CParty::DoDuelResult
  001e3	5f		 pop	 edi

; 891  : 	}
; 892  : #endif	// __WORLDSERVER
; 893  : 
; 894  : 	return 1;
; 895  : }

  001e4	5e		 pop	 esi
  001e5	b8 01 00 00 00	 mov	 eax, 1
  001ea	5b		 pop	 ebx
  001eb	8b e5		 mov	 esp, ebp
  001ed	5d		 pop	 ebp
  001ee	c2 04 00	 ret	 4
$LN8@DuelResult:
  001f1	5f		 pop	 edi
  001f2	5e		 pop	 esi
  001f3	33 c0		 xor	 eax, eax
  001f5	5b		 pop	 ebx
  001f6	8b e5		 mov	 esp, ebp
  001f8	5d		 pop	 ebp
  001f9	c2 04 00	 ret	 4
?DuelResult@CMover@@QAEHPAV1@@Z ENDP			; CMover::DuelResult
_TEXT	ENDS
; Function compile flags: /Ogtp
; File C:\IAGOS\server\v18\Source\Source\_Common\MoverParam.cpp
;	COMDAT ?ChangeFame@CMover@@QAEXPAV1@@Z
_TEXT	SEGMENT
_pLose$ = 8						; size = 4
_nDecVal$2$ = 8						; size = 4
_fVal$1$ = 8						; size = 4
?ChangeFame@CMover@@QAEXPAV1@@Z PROC			; CMover::ChangeFame, COMDAT
; _this$ = ecx

; 775  : {

  00000	55		 push	 ebp
  00001	8b ec		 mov	 ebp, esp
  00003	53		 push	 ebx
  00004	56		 push	 esi
  00005	57		 push	 edi

; 776  : 	int nVal = 0;
; 777  : 	float fVal = 0;
; 778  : 	int nGap = 0;
; 779  : 
; 780  : 	nGap = pLose->GetLevel() - GetLevel();		// ĆĐŔÚżÍ ˝ÂŔÚŔÇ ·ąş§Â÷ŔĚ

  00006	8b 7d 08	 mov	 edi, DWORD PTR _pLose$[ebp]
  00009	8b d9		 mov	 ebx, ecx
  0000b	8b 87 d8 05 00
	00		 mov	 eax, DWORD PTR [edi+1496]
  00011	2b 83 d8 05 00
	00		 sub	 eax, DWORD PTR [ebx+1496]

; 781  : 
; 782  : 	if( nGap >= 80 )	    { nVal = 100; fVal = 15.0f; }	// ĆĐŔÚ°ˇ ·ąş§ŔĚ ČÎ łôľŇ´Ů.

  00017	83 f8 50	 cmp	 eax, 80			; 00000050H
  0001a	7c 12		 jl	 SHORT $LN2@ChangeFame
  0001c	f3 0f 10 05 00
	00 00 00	 movss	 xmm0, DWORD PTR __real@41700000
  00024	be 64 00 00 00	 mov	 esi, 100		; 00000064H
  00029	e9 9c 00 00 00	 jmp	 $LN44@ChangeFame
$LN2@ChangeFame:

; 783  : 	else if( nGap >= 30 )	{ nVal = 50;  fVal = 10.0f; }

  0002e	83 f8 1e	 cmp	 eax, 30			; 0000001eH
  00031	7c 12		 jl	 SHORT $LN4@ChangeFame
  00033	f3 0f 10 05 00
	00 00 00	 movss	 xmm0, DWORD PTR __real@41200000
  0003b	be 32 00 00 00	 mov	 esi, 50			; 00000032H
  00040	e9 85 00 00 00	 jmp	 $LN44@ChangeFame
$LN4@ChangeFame:

; 784  : 	else if( nGap >= 20 )	{ nVal = 30;  fVal = 8.0f;  }

  00045	83 f8 14	 cmp	 eax, 20			; 00000014H
  00048	7c 0f		 jl	 SHORT $LN6@ChangeFame
  0004a	f3 0f 10 05 00
	00 00 00	 movss	 xmm0, DWORD PTR __real@41000000
  00052	be 1e 00 00 00	 mov	 esi, 30			; 0000001eH
  00057	eb 71		 jmp	 SHORT $LN44@ChangeFame
$LN6@ChangeFame:

; 785  : 	else if( nGap >= 10 )	{ nVal = 10;  fVal = 6.0f;  }

  00059	83 f8 0a	 cmp	 eax, 10			; 0000000aH
  0005c	7c 0f		 jl	 SHORT $LN8@ChangeFame
  0005e	f3 0f 10 05 00
	00 00 00	 movss	 xmm0, DWORD PTR __real@40c00000
  00066	be 0a 00 00 00	 mov	 esi, 10			; 0000000aH
  0006b	eb 5d		 jmp	 SHORT $LN44@ChangeFame
$LN8@ChangeFame:

; 786  : 	else if( nGap <= -80 )	{ nVal = 1;   fVal = 1.0f;  }	// ĆĐŔÚ°ˇ ·ąş§ŔĚ ČÎ ł·ľŇ´Ů.

  0006d	83 f8 b0	 cmp	 eax, -80		; ffffffb0H
  00070	7f 0f		 jg	 SHORT $LN10@ChangeFame
  00072	f3 0f 10 05 00
	00 00 00	 movss	 xmm0, DWORD PTR __real@3f800000
  0007a	be 01 00 00 00	 mov	 esi, 1
  0007f	eb 49		 jmp	 SHORT $LN44@ChangeFame
$LN10@ChangeFame:

; 787  : 	else if( nGap <= -30 )	{ nVal = 2;   fVal = 2.0f;  }

  00081	83 f8 e2	 cmp	 eax, -30		; ffffffe2H
  00084	7f 0f		 jg	 SHORT $LN12@ChangeFame
  00086	f3 0f 10 05 00
	00 00 00	 movss	 xmm0, DWORD PTR __real@40000000
  0008e	be 02 00 00 00	 mov	 esi, 2
  00093	eb 35		 jmp	 SHORT $LN44@ChangeFame
$LN12@ChangeFame:

; 788  : 	else if( nGap <= -20 )	{ nVal = 3;   fVal = 3.0f;  }

  00095	83 f8 ec	 cmp	 eax, -20		; ffffffecH
  00098	7f 0f		 jg	 SHORT $LN14@ChangeFame
  0009a	f3 0f 10 05 00
	00 00 00	 movss	 xmm0, DWORD PTR __real@40400000
  000a2	be 03 00 00 00	 mov	 esi, 3
  000a7	eb 21		 jmp	 SHORT $LN44@ChangeFame
$LN14@ChangeFame:

; 789  : 	else if( nGap <= -10 )	{ nVal = 4;   fVal = 4.0f;  }

  000a9	83 f8 f6	 cmp	 eax, -10		; fffffff6H
  000ac	7f 0f		 jg	 SHORT $LN16@ChangeFame
  000ae	f3 0f 10 05 00
	00 00 00	 movss	 xmm0, DWORD PTR __real@40800000
  000b6	be 04 00 00 00	 mov	 esi, 4
  000bb	eb 0d		 jmp	 SHORT $LN44@ChangeFame
$LN16@ChangeFame:

; 790  : 	else                    { nVal = 5;   fVal = 5.0f;  }	// 9 ~ -9

  000bd	f3 0f 10 05 00
	00 00 00	 movss	 xmm0, DWORD PTR __real@40a00000
  000c5	be 05 00 00 00	 mov	 esi, 5
$LN44@ChangeFame:

; 791  : 
; 792  : 
; 793  : 	if( nVal )		// ˝ÂŔÚżˇ°Ô ¸íĽşÄˇ ÁÜ
; 794  : 	{	
; 795  : 		if( this->IsFly() && pLose->IsFly() )	// °řÁß µŕľóŔÇ °ćżěżˇ´Â ĆĐąč˝Ă »ó˝ÇÇĎ´Â ¸íĽş Ć÷ŔÎĆ®´Â µżŔĎÇĎÁö¸¸, ˝Â¸® ˝Ă ČąµćÇĎ´Â ¸íĽşĆ÷ŔÎĆ®´Â Áö»ó ŔüĹőżˇ 2ąč·Î ÇŃ´Ů

  000ca	8b 83 38 02 00
	00		 mov	 eax, DWORD PTR [ebx+568]
  000d0	f3 0f 11 45 08	 movss	 DWORD PTR _fVal$1$[ebp], xmm0
  000d5	f6 40 08 08	 test	 BYTE PTR [eax+8], 8
  000d9	74 0e		 je	 SHORT $LN19@ChangeFame
  000db	8b 87 38 02 00
	00		 mov	 eax, DWORD PTR [edi+568]
  000e1	f6 40 08 08	 test	 BYTE PTR [eax+8], 8
  000e5	74 02		 je	 SHORT $LN19@ChangeFame

; 796  : 			nVal *= 2;

  000e7	03 f6		 add	 esi, esi
$LN19@ChangeFame:

; 797  : 			
; 798  : 		m_nFame += nVal;	

  000e9	01 b3 48 07 00
	00		 add	 DWORD PTR [ebx+1864], esi

; 799  : 		g_UserMng.AddSetFame( this, m_nFame );

  000ef	b9 00 00 00 00	 mov	 ecx, OFFSET ?g_UserMng@@3VCUserMng@@A ; g_UserMng
  000f4	ff b3 48 07 00
	00		 push	 DWORD PTR [ebx+1864]
  000fa	53		 push	 ebx
  000fb	e8 00 00 00 00	 call	 ?AddSetFame@CUserMng@@QAEXPAVCMover@@H@Z ; CUserMng::AddSetFame

; 800  : 		((CUser*)this)->AddDefinedText( TID_GAME_GETFAMEPOINT, "%d", nVal );	// xxx ¸íĽş Ć÷ŔÎĆ®¸¦ ľňľú´Ů

  00100	56		 push	 esi
  00101	68 00 00 00 00	 push	 OFFSET ??_C@_02DPKJAMEF@?$CFd@
  00106	68 9c 03 00 00	 push	 924			; 0000039cH
  0010b	53		 push	 ebx
  0010c	e8 00 00 00 00	 call	 ?AddDefinedText@CUser@@QAAXHPBDZZ ; CUser::AddDefinedText
  00111	83 c4 10	 add	 esp, 16			; 00000010H

; 801  : #if __VER >= 13 // __HONORABLE_TITLE			// ´ŢŔÎ
; 802  : 		((CUser*)this)->CheckHonorStat();

  00114	8b cb		 mov	 ecx, ebx
  00116	e8 00 00 00 00	 call	 ?CheckHonorStat@CMover@@QAEXXZ ; CMover::CheckHonorStat

; 803  : 		((CUser*)this)->AddHonorListAck();

  0011b	8b cb		 mov	 ecx, ebx
  0011d	e8 00 00 00 00	 call	 ?AddHonorListAck@CUser@@QAEXXZ ; CUser::AddHonorListAck

; 804  : 		g_UserMng.AddHonorTitleChange( this, m_nHonor);

  00122	ff b3 70 08 00
	00		 push	 DWORD PTR [ebx+2160]
  00128	b9 00 00 00 00	 mov	 ecx, OFFSET ?g_UserMng@@3VCUserMng@@A ; g_UserMng
  0012d	53		 push	 ebx
  0012e	e8 00 00 00 00	 call	 ?AddHonorTitleChange@CUserMng@@QAEXPAVCMover@@H@Z ; CUserMng::AddHonorTitleChange

; 805  : #endif	// __HONORABLE_TITLE			// ´ŢŔÎ
; 806  : 	}
; 807  : 	
; 808  : 	if( fVal )	// ĆĐŔÚŔÇ ¸íĽşÄˇ(ĆŰĽľĆ®)¸¦ ±đŔ˝.

  00133	f3 0f 10 4d 08	 movss	 xmm1, DWORD PTR _fVal$1$[ebp]
  00138	0f 2e 0d 00 00
	00 00		 ucomiss xmm1, DWORD PTR __real@00000000
  0013f	9f		 lahf
  00140	f6 c4 44	 test	 ah, 68			; 00000044H
  00143	0f 8b 90 00 00
	00		 jnp	 $LN20@ChangeFame

; 809  : 	{
; 810  : 		int		nDecVal;
; 811  : 		fVal = fVal / 100.0f;	// şńŔ˛·Î ČŻ»ę.

  00149	f3 0f 5e 0d 00
	00 00 00	 divss	 xmm1, DWORD PTR __real@42c80000

; 812  : 		nDecVal = (int)(pLose->m_nFame * fVal);

  00151	8b 87 48 07 00
	00		 mov	 eax, DWORD PTR [edi+1864]

; 813  : 		if( nDecVal <= 0 )	nDecVal = 1;

  00157	ba 01 00 00 00	 mov	 edx, 1
  0015c	66 0f 6e c0	 movd	 xmm0, eax
  00160	0f 5b c0	 cvtdq2ps xmm0, xmm0
  00163	f3 0f 59 c8	 mulss	 xmm1, xmm0
  00167	f3 0f 2c c9	 cvttss2si ecx, xmm1
  0016b	85 c9		 test	 ecx, ecx
  0016d	0f 4e ca	 cmovle	 ecx, edx

; 814  : 		pLose->m_nFame -= nDecVal;

  00170	2b c1		 sub	 eax, ecx
  00172	89 4d 08	 mov	 DWORD PTR _nDecVal$2$[ebp], ecx
  00175	89 87 48 07 00
	00		 mov	 DWORD PTR [edi+1864], eax

; 815  : 		if( pLose->m_nFame < 0 )

  0017b	79 0c		 jns	 SHORT $LN22@ChangeFame

; 816  : 			pLose->m_nFame = 0;

  0017d	c7 87 48 07 00
	00 00 00 00 00	 mov	 DWORD PTR [edi+1864], 0
  00187	33 c0		 xor	 eax, eax
$LN22@ChangeFame:

; 817  : 
; 818  : 		g_UserMng.AddSetFame( pLose, pLose->m_nFame );

  00189	50		 push	 eax
  0018a	57		 push	 edi
  0018b	b9 00 00 00 00	 mov	 ecx, OFFSET ?g_UserMng@@3VCUserMng@@A ; g_UserMng
  00190	e8 00 00 00 00	 call	 ?AddSetFame@CUserMng@@QAEXPAVCMover@@H@Z ; CUserMng::AddSetFame

; 819  : 		((CUser*)pLose)->AddDefinedText( TID_GAME_DECFAMEPOINT, "%d", nDecVal );	// xxx ¸íĽş Ć÷ŔÎĆ®°ˇ °¨ĽŇ.

  00195	ff 75 08	 push	 DWORD PTR _nDecVal$2$[ebp]
  00198	68 00 00 00 00	 push	 OFFSET ??_C@_02DPKJAMEF@?$CFd@
  0019d	68 9d 03 00 00	 push	 925			; 0000039dH
  001a2	57		 push	 edi
  001a3	e8 00 00 00 00	 call	 ?AddDefinedText@CUser@@QAAXHPBDZZ ; CUser::AddDefinedText
  001a8	83 c4 10	 add	 esp, 16			; 00000010H

; 820  : 		g_dpDBClient.SendLogPkPvp( this, pLose, nVal, 'D' );

  001ab	b9 00 00 00 00	 mov	 ecx, OFFSET ?g_dpDBClient@@3VCDPDatabaseClient@@A ; g_dpDBClient
  001b0	6a 44		 push	 68			; 00000044H
  001b2	56		 push	 esi
  001b3	57		 push	 edi
  001b4	53		 push	 ebx
  001b5	e8 00 00 00 00	 call	 ?SendLogPkPvp@CDPDatabaseClient@@QAEXPAVCMover@@0HD@Z ; CDPDatabaseClient::SendLogPkPvp

; 821  : #if __VER >= 13 // __HONORABLE_TITLE			// ´ŢŔÎ
; 822  : 		((CUser*)pLose)->CheckHonorStat();

  001ba	8b cf		 mov	 ecx, edi
  001bc	e8 00 00 00 00	 call	 ?CheckHonorStat@CMover@@QAEXXZ ; CMover::CheckHonorStat

; 823  : 		((CUser*)pLose)->AddHonorListAck();

  001c1	8b cf		 mov	 ecx, edi
  001c3	e8 00 00 00 00	 call	 ?AddHonorListAck@CUser@@QAEXXZ ; CUser::AddHonorListAck

; 824  : 		g_UserMng.AddHonorTitleChange( pLose, pLose->m_nHonor);

  001c8	ff b7 70 08 00
	00		 push	 DWORD PTR [edi+2160]
  001ce	b9 00 00 00 00	 mov	 ecx, OFFSET ?g_UserMng@@3VCUserMng@@A ; g_UserMng
  001d3	57		 push	 edi
  001d4	e8 00 00 00 00	 call	 ?AddHonorTitleChange@CUserMng@@QAEXPAVCMover@@H@Z ; CUserMng::AddHonorTitleChange
$LN20@ChangeFame:

; 825  : #endif	// __HONORABLE_TITLE			// ´ŢŔÎ
; 826  : 	}
; 827  : }

  001d9	5f		 pop	 edi
  001da	5e		 pop	 esi
  001db	5b		 pop	 ebx
  001dc	5d		 pop	 ebp
  001dd	c2 04 00	 ret	 4
?ChangeFame@CMover@@QAEXPAV1@@Z ENDP			; CMover::ChangeFame
_TEXT	ENDS
; Function compile flags: /Ogtp
; File C:\IAGOS\server\v18\Source\Source\_Common\MoverParam.cpp
; File C:\IAGOS\server\v18\Source\Source\_Common\Obj.h
; File C:\IAGOS\server\v18\Source\Source\_Common\MoverParam.cpp
;	COMDAT ?OnTradeRemoveUser@CMover@@QAEXXZ
_TEXT	SEGMENT
?OnTradeRemoveUser@CMover@@QAEXXZ PROC			; CMover::OnTradeRemoveUser, COMDAT
; _this$ = ecx

; 3836 : {

  00000	56		 push	 esi
  00001	8b f1		 mov	 esi, ecx

; 3837 : 	if( IsPlayer() )

  00003	83 be 30 02 00
	00 00		 cmp	 DWORD PTR [esi+560], 0
  0000a	74 46		 je	 SHORT $LN2@OnTradeRem

; 3838 : 	{
; 3839 : 		CMover* pOther = m_vtInfo.GetOther();

  0000c	57		 push	 edi
  0000d	8d 8e 98 0c 00
	00		 lea	 ecx, DWORD PTR [esi+3224]
  00013	e8 00 00 00 00	 call	 ?GetOther@CVTInfo@@QAEPAVCMover@@XZ ; CVTInfo::GetOther
; File C:\IAGOS\server\v18\Source\Source\_Common\Obj.h

; 327  : 	return pObj && ( pObj->IsDelete() == FALSE ); 

  00018	85 c0		 test	 eax, eax
  0001a	74 29		 je	 SHORT $LN4@OnTradeRem

; 180  : 	BOOL			IsDelete()	{ return (m_dwFlags & OBJ_FLAG_DELETE);  }

  0001c	f6 40 04 01	 test	 BYTE PTR [eax+4], 1

; 327  : 	return pObj && ( pObj->IsDelete() == FALSE ); 

  00020	75 23		 jne	 SHORT $LN4@OnTradeRem
; File C:\IAGOS\server\v18\Source\Source\_Common\MoverParam.cpp

; 3840 : 		if( IsValidObj( pOther ) && pOther->IsPlayer() )

  00022	83 b8 30 02 00
	00 00		 cmp	 DWORD PTR [eax+560], 0
  00029	74 1a		 je	 SHORT $LN4@OnTradeRem

; 3841 : 		{	
; 3842 : 			if( pOther->m_vtInfo.GetOther() == this )

  0002b	53		 push	 ebx
  0002c	8d 98 98 0c 00
	00		 lea	 ebx, DWORD PTR [eax+3224]
  00032	8b cb		 mov	 ecx, ebx
  00034	e8 00 00 00 00	 call	 ?GetOther@CVTInfo@@QAEPAVCMover@@XZ ; CVTInfo::GetOther
  00039	3b c6		 cmp	 eax, esi
  0003b	75 07		 jne	 SHORT $LN18@OnTradeRem

; 3843 : 			{
; 3844 : 				pOther->m_vtInfo.TradeClear();

  0003d	8b cb		 mov	 ecx, ebx
  0003f	e8 00 00 00 00	 call	 ?TradeClear@CVTInfo@@QAEXXZ ; CVTInfo::TradeClear
$LN18@OnTradeRem:
  00044	5b		 pop	 ebx
$LN4@OnTradeRem:

; 3845 : 			}
; 3846 : 		}
; 3847 : 		m_vtInfo.TradeClear();

  00045	5f		 pop	 edi
  00046	8d 8e 98 0c 00
	00		 lea	 ecx, DWORD PTR [esi+3224]
  0004c	5e		 pop	 esi
  0004d	e9 00 00 00 00	 jmp	 ?TradeClear@CVTInfo@@QAEXXZ ; CVTInfo::TradeClear
$LN2@OnTradeRem:
  00052	5e		 pop	 esi

; 3848 : 	}
; 3849 : }

  00053	c3		 ret	 0
?OnTradeRemoveUser@CMover@@QAEXXZ ENDP			; CMover::OnTradeRemoveUser
_TEXT	ENDS
; Function compile flags: /Ogtp
; File C:\IAGOS\server\v18\Source\Source\_Common\MoverParam.cpp
;	COMDAT ?RemoveAllItem@CMover@@QAEHK@Z
_TEXT	SEGMENT
tv154 = -8						; size = 4
_this$1$ = -4						; size = 4
_dwItemId$ = 8						; size = 4
?RemoveAllItem@CMover@@QAEHK@Z PROC			; CMover::RemoveAllItem, COMDAT
; _this$ = ecx

; 3819 : {

  00000	55		 push	 ebp
  00001	8b ec		 mov	 ebp, esp
  00003	83 ec 08	 sub	 esp, 8
  00006	53		 push	 ebx
  00007	8b c1		 mov	 eax, ecx
  00009	56		 push	 esi
  0000a	57		 push	 edi

; 3820 : 	int nNum = 0;

  0000b	33 ff		 xor	 edi, edi
  0000d	89 45 fc	 mov	 DWORD PTR _this$1$[ebp], eax

; 3821 : 	int	nSize	= m_Inventory.GetMax();

  00010	8b 98 08 0b 00
	00		 mov	 ebx, DWORD PTR [eax+2824]
  00016	33 f6		 xor	 esi, esi

; 3822 : 
; 3823 : 	for( int i = 0 ; i < nSize; ++i )

  00018	85 db		 test	 ebx, ebx
  0001a	7e 39		 jle	 SHORT $LN11@RemoveAllI
  0001c	05 fc 0a 00 00	 add	 eax, 2812		; 00000afcH
  00021	89 45 f8	 mov	 DWORD PTR tv154[ebp], eax
$LL4@RemoveAllI:

; 3824 : 	{
; 3825 : 		CItemElem* pItemElem = m_Inventory.GetAtId( i );

  00024	56		 push	 esi
  00025	8b c8		 mov	 ecx, eax
  00027	e8 00 00 00 00	 call	 ?GetAtId@?$CItemContainer@VCItemElem@@@@QAEPAVCItemElem@@K@Z ; CItemContainer<CItemElem>::GetAtId

; 3826 : 		if( pItemElem && pItemElem->m_dwItemId == dwItemId )

  0002c	85 c0		 test	 eax, eax
  0002e	74 1d		 je	 SHORT $LN2@RemoveAllI
  00030	8b 4d 08	 mov	 ecx, DWORD PTR _dwItemId$[ebp]
  00033	39 48 0c	 cmp	 DWORD PTR [eax+12], ecx
  00036	75 15		 jne	 SHORT $LN2@RemoveAllI

; 3827 : 		{
; 3828 : 			nNum += pItemElem->m_nItemNum;

  00038	0f bf 40 74	 movsx	 eax, WORD PTR [eax+116]

; 3829 : 			UpdateItem( i, UI_NUM, 0 );		// remove

  0003c	8b 4d fc	 mov	 ecx, DWORD PTR _this$1$[ebp]
  0003f	03 f8		 add	 edi, eax
  00041	6a 00		 push	 0
  00043	6a 00		 push	 0
  00045	6a 00		 push	 0
  00047	56		 push	 esi
  00048	e8 00 00 00 00	 call	 ?UpdateItem@CMover@@QAEXEDKK@Z ; CMover::UpdateItem
$LN2@RemoveAllI:

; 3822 : 
; 3823 : 	for( int i = 0 ; i < nSize; ++i )

  0004d	8b 45 f8	 mov	 eax, DWORD PTR tv154[ebp]
  00050	46		 inc	 esi
  00051	3b f3		 cmp	 esi, ebx
  00053	7c cf		 jl	 SHORT $LL4@RemoveAllI
$LN11@RemoveAllI:

; 3830 : 		}
; 3831 : 	}
; 3832 : 	return nNum;
; 3833 : }

  00055	8b c7		 mov	 eax, edi
  00057	5f		 pop	 edi
  00058	5e		 pop	 esi
  00059	5b		 pop	 ebx
  0005a	8b e5		 mov	 esp, ebp
  0005c	5d		 pop	 ebp
  0005d	c2 04 00	 ret	 4
?RemoveAllItem@CMover@@QAEHK@Z ENDP			; CMover::RemoveAllItem
_TEXT	ENDS
; Function compile flags: /Ogtp
; File C:\IAGOS\server\v18\Source\Source\_Common\MoverParam.cpp
;	COMDAT ?GetItemNum@CMover@@QAEHK@Z
_TEXT	SEGMENT
tv151 = -8						; size = 4
_nSize$1$ = -4						; size = 4
_dwItemId$ = 8						; size = 4
?GetItemNum@CMover@@QAEHK@Z PROC			; CMover::GetItemNum, COMDAT
; _this$ = ecx

; 3744 : {

  00000	55		 push	 ebp
  00001	8b ec		 mov	 ebp, esp
  00003	83 ec 08	 sub	 esp, 8

; 3745 : 	int nNum	= 0;
; 3746 : 	int nSize	= m_Inventory.GetMax();

  00006	8b 81 08 0b 00
	00		 mov	 eax, DWORD PTR [ecx+2824]
  0000c	53		 push	 ebx
  0000d	56		 push	 esi
  0000e	57		 push	 edi
  0000f	33 db		 xor	 ebx, ebx
  00011	89 45 fc	 mov	 DWORD PTR _nSize$1$[ebp], eax

; 3747 : 	CItemElem* pItemElem;
; 3748 : 	for( int i = 0 ; i < nSize; i++ )

  00014	33 ff		 xor	 edi, edi
  00016	85 c0		 test	 eax, eax
  00018	7e 48		 jle	 SHORT $LN12@GetItemNum
  0001a	8d 81 fc 0a 00
	00		 lea	 eax, DWORD PTR [ecx+2812]
  00020	89 45 f8	 mov	 DWORD PTR tv151[ebp], eax
$LL4@GetItemNum:

; 3749 : 	{
; 3750 : 		pItemElem	= m_Inventory.GetAtId( i );

  00023	57		 push	 edi
  00024	8b c8		 mov	 ecx, eax
  00026	e8 00 00 00 00	 call	 ?GetAtId@?$CItemContainer@VCItemElem@@@@QAEPAVCItemElem@@K@Z ; CItemContainer<CItemElem>::GetAtId
  0002b	8b f0		 mov	 esi, eax

; 3751 : 		if( pItemElem )

  0002d	85 f6		 test	 esi, esi
  0002f	74 1b		 je	 SHORT $LN2@GetItemNum

; 3752 : 		{
; 3753 : 			//raiders.06.05.02 (prevent abuse quest ending condition : trade & quest )
; 3754 : 			if( IsUsableItem( pItemElem ) == FALSE )

  00031	56		 push	 esi
  00032	e8 00 00 00 00	 call	 ?IsUsableItem@@YAHPAVCItemBase@@@Z ; IsUsableItem
  00037	83 c4 04	 add	 esp, 4
  0003a	85 c0		 test	 eax, eax
  0003c	74 19		 je	 SHORT $LN10@GetItemNum

; 3755 : 				return 0;
; 3756 : 			if( pItemElem->m_dwItemId == dwItemId )

  0003e	8b 45 08	 mov	 eax, DWORD PTR _dwItemId$[ebp]
  00041	39 46 0c	 cmp	 DWORD PTR [esi+12], eax
  00044	75 06		 jne	 SHORT $LN2@GetItemNum

; 3757 : 				nNum	+= pItemElem->m_nItemNum;

  00046	0f bf 46 74	 movsx	 eax, WORD PTR [esi+116]
  0004a	03 d8		 add	 ebx, eax
$LN2@GetItemNum:

; 3747 : 	CItemElem* pItemElem;
; 3748 : 	for( int i = 0 ; i < nSize; i++ )

  0004c	47		 inc	 edi
  0004d	3b 7d fc	 cmp	 edi, DWORD PTR _nSize$1$[ebp]
  00050	7d 10		 jge	 SHORT $LN12@GetItemNum
  00052	8b 45 f8	 mov	 eax, DWORD PTR tv151[ebp]
  00055	eb cc		 jmp	 SHORT $LL4@GetItemNum
$LN10@GetItemNum:
  00057	5f		 pop	 edi

; 3758 : 		}
; 3759 : 	}
; 3760 : 	return nNum;
; 3761 : }

  00058	5e		 pop	 esi
  00059	33 c0		 xor	 eax, eax
  0005b	5b		 pop	 ebx
  0005c	8b e5		 mov	 esp, ebp
  0005e	5d		 pop	 ebp
  0005f	c2 04 00	 ret	 4
$LN12@GetItemNum:
  00062	5f		 pop	 edi
  00063	5e		 pop	 esi
  00064	8b c3		 mov	 eax, ebx
  00066	5b		 pop	 ebx
  00067	8b e5		 mov	 esp, ebp
  00069	5d		 pop	 ebp
  0006a	c2 04 00	 ret	 4
?GetItemNum@CMover@@QAEHK@Z ENDP			; CMover::GetItemNum
_TEXT	ENDS
; Function compile flags: /Ogtp
; File C:\IAGOS\server\v18\Source\Source\_Common\MoverParam.cpp
;	COMDAT ?UpdateItemEx@CMover@@QAEXED_J@Z
_TEXT	SEGMENT
_id$ = 8						; size = 1
_cParam$ = 12						; size = 1
_iValue$ = 16						; size = 8
?UpdateItemEx@CMover@@QAEXED_J@Z PROC			; CMover::UpdateItemEx, COMDAT
; _this$ = ecx

; 3966 : {

  00000	55		 push	 ebp
  00001	8b ec		 mov	 ebp, esp
  00003	53		 push	 ebx

; 3967 : 	CItemElem* pItemElem = (CItemElem*)GetItemId( id );

  00004	8b 5d 08	 mov	 ebx, DWORD PTR _id$[ebp]
  00007	56		 push	 esi
  00008	57		 push	 edi
  00009	0f b6 c3	 movzx	 eax, bl
  0000c	8b f1		 mov	 esi, ecx
  0000e	50		 push	 eax
  0000f	e8 00 00 00 00	 call	 ?GetItemId@CMover@@QAEPAVCItemBase@@K@Z ; CMover::GetItemId

; 3968 : 
; 3969 : 	if( pItemElem )

  00014	8b 55 14	 mov	 edx, DWORD PTR _iValue$[ebp+4]
  00017	8b 7d 10	 mov	 edi, DWORD PTR _iValue$[ebp]
  0001a	8b 4d 0c	 mov	 ecx, DWORD PTR _cParam$[ebp]
  0001d	85 c0		 test	 eax, eax
  0001f	74 11		 je	 SHORT $LN6@UpdateItem

; 3970 : 	{
; 3971 : 		switch( cParam )

  00021	80 f9 0a	 cmp	 cl, 10			; 0000000aH
  00024	75 0c		 jne	 SHORT $LN6@UpdateItem

; 3972 : 		{
; 3973 : 			case UI_RANDOMOPTITEMID:
; 3974 : 				{
; 3975 : 					pItemElem->SetRandomOptItemId( iValue );

  00026	89 b8 90 00 00
	00		 mov	 DWORD PTR [eax+144], edi
  0002c	89 90 94 00 00
	00		 mov	 DWORD PTR [eax+148], edx
$LN6@UpdateItem:

; 3976 : 					break;
; 3977 : 				}
; 3978 : 			default:
; 3979 : 				break;
; 3980 : 		}
; 3981 : #ifdef __CLIENT
; 3982 : 		CWndInventory* pWnd		= (CWndInventory*)g_WndMng.GetWndBase( APP_INVENTORY );
; 3983 : 		if( pWnd )
; 3984 : 			pWnd->UpdateTooltip();
; 3985 : #endif	// __CLIENT
; 3986 : 	}
; 3987 : #ifdef __WORLDSERVER
; 3988 : 	if( IsPlayer() )

  00032	83 be 30 02 00
	00 00		 cmp	 DWORD PTR [esi+560], 0
  00039	74 0b		 je	 SHORT $LN7@UpdateItem

; 3989 : 		( (CUser*)this )->AddUpdateItemEx( id, cParam, iValue );

  0003b	52		 push	 edx
  0003c	57		 push	 edi
  0003d	51		 push	 ecx
  0003e	53		 push	 ebx
  0003f	8b ce		 mov	 ecx, esi
  00041	e8 00 00 00 00	 call	 ?AddUpdateItemEx@CUser@@QAEXED_J@Z ; CUser::AddUpdateItemEx
$LN7@UpdateItem:

; 3990 : #endif
; 3991 : }

  00046	5f		 pop	 edi
  00047	5e		 pop	 esi
  00048	5b		 pop	 ebx
  00049	5d		 pop	 ebp
  0004a	c2 10 00	 ret	 16			; 00000010H
?UpdateItemEx@CMover@@QAEXED_J@Z ENDP			; CMover::UpdateItemEx
_TEXT	ENDS
; Function compile flags: /Ogtp
; File C:\IAGOS\server\v18\Source\Source\_Common\MoverParam.cpp
; File C:\IAGOS\server\v18\Source\Source\_Common\Item.h
; File C:\IAGOS\server\v18\Source\Source\_Common\MoverParam.cpp
; File C:\IAGOS\server\v18\Source\Source\_Common\Item.h
; File C:\IAGOS\server\v18\Source\Source\_Common\MoverParam.cpp
; File C:\IAGOS\server\v18\Source\Source\_Common\Item.h
; File C:\IAGOS\server\v18\Source\Source\_Common\MoverParam.cpp
; File C:\IAGOS\server\v18\Source\Source\_Common\Item.h
; File C:\IAGOS\server\v18\Source\Source\_Common\MoverParam.cpp
; File C:\IAGOS\server\v18\Source\Source\_Common\Item.h
; File C:\IAGOS\server\v18\Source\Source\_Common\MoverParam.cpp
; File C:\IAGOS\server\v18\Source\Source\_Common\Item.h
; File C:\IAGOS\server\v18\Source\Source\_Common\MoverParam.cpp
; File C:\IAGOS\server\v18\Source\Source\_Common\Item.h
; File C:\IAGOS\server\v18\Source\Source\_Common\MoverParam.cpp
; File C:\IAGOS\server\v18\Source\Source\_Common\Item.h
; File C:\IAGOS\server\v18\Source\Source\_Common\MoverParam.cpp
; File C:\IAGOS\server\v18\Source\Source\_Common\Item.h
; File C:\IAGOS\server\v18\Source\Source\_Common\MoverParam.cpp
; File C:\IAGOS\server\v18\Source\Source\_Common\Item.h
; File C:\Program Files\Microsoft Visual Studio\2022\Professional\VC\Tools\MSVC\14.44.35207\include\vector
; File C:\IAGOS\server\v18\Source\Source\_Common\Piercing.h
; File C:\Program Files\Microsoft Visual Studio\2022\Professional\VC\Tools\MSVC\14.44.35207\include\vector
; File C:\IAGOS\server\v18\Source\Source\_Common\Piercing.h
; File C:\Program Files\Microsoft Visual Studio\2022\Professional\VC\Tools\MSVC\14.44.35207\include\vector
; File C:\IAGOS\server\v18\Source\Source\_Common\MoverParam.cpp
; File C:\IAGOS\server\v18\Source\Source\_Common\Item.h
; File C:\IAGOS\server\v18\Source\Source\_Common\MoverParam.cpp
; File C:\IAGOS\server\v18\Source\Source\_Common\Item.h
; File C:\IAGOS\server\v18\Source\Source\_Common\MoverParam.cpp
; File C:\IAGOS\server\v18\Source\Source\_Common\Item.h
; File C:\IAGOS\server\v18\Source\Source\_Common\MoverParam.cpp
; File C:\IAGOS\server\v18\Source\Source\_Common\Item.h
; File C:\IAGOS\server\v18\Source\Source\_Common\MoverParam.cpp
; File C:\IAGOS\server\v18\Source\Source\_Common\Item.h
; File C:\IAGOS\server\v18\Source\Source\_Common\MoverParam.cpp
; File C:\Program Files\Microsoft Visual Studio\2022\Professional\VC\Tools\MSVC\14.44.35207\atlmfc\include\atltime.h
; File C:\IAGOS\server\v18\Source\Source\_Common\MoverParam.cpp
; File C:\IAGOS\server\v18\Source\Source\_Common\Mover.h
; File C:\IAGOS\server\v18\Source\Source\_Common\MoverParam.cpp
;	COMDAT ?UpdateItem@CMover@@QAEXEDKK@Z
_TEXT	SEGMENT
_this$1$ = -12						; size = 4
tv615 = -4						; size = 4
_nId$ = 8						; size = 1
_cParam$ = 12						; size = 1
_dwValue$ = 16						; size = 4
$T1 = 16						; size = 4
_dwTime$ = 20						; size = 4
?UpdateItem@CMover@@QAEXEDKK@Z PROC			; CMover::UpdateItem, COMDAT
; _this$ = ecx

; 3999 : {

  00000	55		 push	 ebp
  00001	8b ec		 mov	 ebp, esp
  00003	83 ec 0c	 sub	 esp, 12			; 0000000cH

; 4000 : 	CItemBase* pItemBase = GetItemId( nId );

  00006	8b 45 08	 mov	 eax, DWORD PTR _nId$[ebp]
  00009	53		 push	 ebx
  0000a	56		 push	 esi
  0000b	0f b6 c0	 movzx	 eax, al
  0000e	8b f1		 mov	 esi, ecx
  00010	57		 push	 edi
  00011	50		 push	 eax
  00012	89 75 f4	 mov	 DWORD PTR _this$1$[ebp], esi
  00015	89 45 fc	 mov	 DWORD PTR tv615[ebp], eax
  00018	e8 00 00 00 00	 call	 ?GetItemId@CMover@@QAEPAVCItemBase@@K@Z ; CMover::GetItemId
  0001d	8b f8		 mov	 edi, eax

; 4001 : 
; 4002 : 	if( pItemBase )

  0001f	85 ff		 test	 edi, edi
  00021	0f 84 25 02 00
	00		 je	 $LN85@UpdateItem

; 4003 : 	{
; 4004 : 		switch( cParam )

  00027	8b 45 0c	 mov	 eax, DWORD PTR _cParam$[ebp]
  0002a	0f be c0	 movsx	 eax, al
  0002d	83 f8 12	 cmp	 eax, 18			; 00000012H
  00030	0f 87 16 02 00
	00		 ja	 $LN85@UpdateItem
  00036	ff 24 85 00 00
	00 00		 jmp	 DWORD PTR $LN84@UpdateItem[eax*4]
$LN8@UpdateItem:

; 4005 : 		{
; 4006 : 			case UI_COOLTIME:
; 4007 : 			case UI_NUM:
; 4008 : 				{
; 4009 : 					if( (int)dwValue <= 0 ) 

  0003d	8b 5d 10	 mov	 ebx, DWORD PTR _dwValue$[ebp]
  00040	85 db		 test	 ebx, ebx
  00042	7f 0f		 jg	 SHORT $LN10@UpdateItem

; 4010 : 					{
; 4011 : 						RemoveItemId( nId );

  00044	ff 75 fc	 push	 DWORD PTR tv615[ebp]
  00047	8b ce		 mov	 ecx, esi
  00049	e8 00 00 00 00	 call	 ?RemoveItemId@CMover@@QAEXK@Z ; CMover::RemoveItemId

; 4012 : 					}

  0004e	e9 fc 01 00 00	 jmp	 $LN37@UpdateItem
$LN10@UpdateItem:

; 4013 : 					else 
; 4014 : 					{
; 4015 : 						( (CItemElem*)pItemBase )->m_nItemNum	= (short)( dwValue );

  00053	66 89 5f 74	 mov	 WORD PTR [edi+116], bx

; 4016 : 					}
; 4017 : 					break;

  00057	e9 f3 01 00 00	 jmp	 $LN37@UpdateItem
$LN12@UpdateItem:

; 4018 : 				}
; 4019 : 			case UI_HP:
; 4020 : 				{
; 4021 : 					( (CItemElem*)pItemBase )->m_nHitPoint	= dwValue;

  0005c	8b 5d 10	 mov	 ebx, DWORD PTR _dwValue$[ebp]

; 4022 : 					UpdateParam();

  0005f	8b ce		 mov	 ecx, esi
  00061	89 5f 70	 mov	 DWORD PTR [edi+112], ebx
  00064	e8 00 00 00 00	 call	 ?UpdateParam@CMover@@QAEXXZ ; CMover::UpdateParam

; 4023 : 					break;

  00069	e9 e1 01 00 00	 jmp	 $LN37@UpdateItem
$LN13@UpdateItem:

; 4024 : 				}
; 4025 : 			case UI_REPAIR_NUM:
; 4026 : 				{
; 4027 : 					( (CItemElem*)pItemBase )->m_nRepair	= dwValue;

  0006e	8b 5d 10	 mov	 ebx, DWORD PTR _dwValue$[ebp]
  00071	89 5f 68	 mov	 DWORD PTR [edi+104], ebx

; 4028 : 					break;

  00074	e9 d6 01 00 00	 jmp	 $LN37@UpdateItem
$LN14@UpdateItem:

; 4029 : 				}
; 4030 : 			case UI_RN:
; 4031 : 				{
; 4032 : 					if( ( (CItemElem*)pItemBase )->m_nRepairNumber >= 100 )

  00079	80 7f 6c 64	 cmp	 BYTE PTR [edi+108], 100	; 00000064H
  0007d	0f 83 0a 02 00
	00		 jae	 $LN41@UpdateItem

; 4033 : 						return;
; 4034 : 					if( dwValue > 100 )
; 4035 : 						dwValue		= 100;
; 4036 : 					( (CItemElem*)pItemBase )->m_nRepairNumber	= (BYTE)( dwValue );

  00083	bb 64 00 00 00	 mov	 ebx, 100		; 00000064H

; 4037 : 					UpdateParam();

  00088	8b ce		 mov	 ecx, esi
  0008a	39 5d 10	 cmp	 DWORD PTR _dwValue$[ebp], ebx
  0008d	0f 46 5d 10	 cmovbe	 ebx, DWORD PTR _dwValue$[ebp]
  00091	88 5f 6c	 mov	 BYTE PTR [edi+108], bl
  00094	e8 00 00 00 00	 call	 ?UpdateParam@CMover@@QAEXXZ ; CMover::UpdateParam

; 4038 : 				}
; 4039 : 				break;

  00099	e9 b1 01 00 00	 jmp	 $LN37@UpdateItem
$LN17@UpdateItem:
; File C:\IAGOS\server\v18\Source\Source\_Common\Item.h

; 154  : 	BOOL	IsAccessory( void )		{	return CAccessoryProperty::GetInstance()->IsAccessory( m_dwItemId );	}

  0009e	ff 77 0c	 push	 DWORD PTR [edi+12]
  000a1	e8 00 00 00 00	 call	 ?GetInstance@CAccessoryProperty@@SAPAV1@XZ ; CAccessoryProperty::GetInstance
  000a6	8b c8		 mov	 ecx, eax
  000a8	e8 00 00 00 00	 call	 ?IsAccessory@CAccessoryProperty@@QAEHK@Z ; CAccessoryProperty::IsAccessory
; File C:\IAGOS\server\v18\Source\Source\_Common\MoverParam.cpp

; 4056 : 					if( ( (CItemElem*)pItemBase )->GetAbilityOption() > (int)( dwMax ) )

  000ad	81 7f 0c 54 67
	00 00		 cmp	 DWORD PTR [edi+12], 26452 ; 00006754H
  000b4	b8 05 00 00 00	 mov	 eax, 5
  000b9	b9 14 00 00 00	 mov	 ecx, 20			; 00000014H
  000be	0f 45 c1	 cmovne	 eax, ecx
  000c1	39 47 64	 cmp	 DWORD PTR [edi+100], eax
  000c4	0f 8f c3 01 00
	00		 jg	 $LN41@UpdateItem

; 4057 : 						return;
; 4058 : 					if( dwValue > dwMax )

  000ca	8b 5d 10	 mov	 ebx, DWORD PTR _dwValue$[ebp]

; 4059 : 						dwValue		= dwMax;
; 4060 : 
; 4061 : 					( (CItemElem*)pItemBase )->SetAbilityOption( dwValue );
; 4062 : 					UpdateParam();

  000cd	8b ce		 mov	 ecx, esi
  000cf	3b d8		 cmp	 ebx, eax
  000d1	0f 47 d8	 cmova	 ebx, eax
  000d4	89 5f 64	 mov	 DWORD PTR [edi+100], ebx
  000d7	e8 00 00 00 00	 call	 ?UpdateParam@CMover@@QAEXXZ ; CMover::UpdateParam

; 4063 : 				}
; 4064 : 				break;

  000dc	e9 6e 01 00 00	 jmp	 $LN37@UpdateItem
$LN22@UpdateItem:

; 4065 : 			case UI_RAO: // ľĆŔĚĹŰ ĽÓĽş + żĂ¸®±â...
; 4066 : 				{
; 4067 : #if __VER >= 13 // __EXT_ENCHANT
; 4068 : 					if( ( (CItemElem*)pItemBase )->m_nResistAbilityOption > 20 )

  000e1	83 bf 80 00 00
	00 14		 cmp	 DWORD PTR [edi+128], 20	; 00000014H
  000e8	0f 8f 9f 01 00
	00		 jg	 $LN41@UpdateItem

; 4069 : #else // __EXT_ENCHANT
; 4070 : 					if( ( (CItemElem*)pItemBase )->m_nResistAbilityOption > 10 ) 
; 4071 : #endif // __EXT_ENCHANT
; 4072 : 						return;
; 4073 : #if __VER >= 13 // __EXT_ENCHANT
; 4074 : 					if( dwValue > 20 )
; 4075 : 						dwValue		= 20;
; 4076 : #else // __EXT_ENCHANT
; 4077 : 					if( dwValue > 10 )
; 4078 : 						dwValue		= 10;
; 4079 : #endif // __EXT_ENCHANT
; 4080 : 					( (CItemElem*)pItemBase )->m_nResistAbilityOption	= dwValue;

  000ee	bb 14 00 00 00	 mov	 ebx, 20			; 00000014H

; 4081 : 					UpdateParam();

  000f3	8b ce		 mov	 ecx, esi
  000f5	39 5d 10	 cmp	 DWORD PTR _dwValue$[ebp], ebx
  000f8	0f 46 5d 10	 cmovbe	 ebx, DWORD PTR _dwValue$[ebp]
  000fc	89 9f 80 00 00
	00		 mov	 DWORD PTR [edi+128], ebx
  00102	e8 00 00 00 00	 call	 ?UpdateParam@CMover@@QAEXXZ ; CMover::UpdateParam

; 4082 : 				}
; 4083 : 				break;

  00107	e9 43 01 00 00	 jmp	 $LN37@UpdateItem
$LN25@UpdateItem:

; 4084 : 			case UI_IR:  // ľĆŔĚĹŰżˇ ą«˝ĽĽÓĽşŔÎÁö łÖ±â
; 4085 : 				{
; 4086 : 					( (CItemElem*)pItemBase )->m_bItemResist	= (BYTE)( dwValue );

  0010c	8b 5d 10	 mov	 ebx, DWORD PTR _dwValue$[ebp]

; 4087 : 					UpdateParam();

  0010f	8b ce		 mov	 ecx, esi
  00111	88 5f 7c	 mov	 BYTE PTR [edi+124], bl
  00114	e8 00 00 00 00	 call	 ?UpdateParam@CMover@@QAEXXZ ; CMover::UpdateParam

; 4088 : 				}
; 4089 : 				break;

  00119	e9 31 01 00 00	 jmp	 $LN37@UpdateItem
$LN26@UpdateItem:
; File C:\IAGOS\server\v18\Source\Source\_Common\Item.h

; 102  : 	void	SetPiercingSize( int nSize )	{	m_piercing.SetPiercingSize( nSize );	}

  0011e	8b 5d 10	 mov	 ebx, DWORD PTR _dwValue$[ebp]
  00121	8d 4f 3c	 lea	 ecx, DWORD PTR [edi+60]
  00124	53		 push	 ebx
  00125	e8 00 00 00 00	 call	 ?SetPiercingSize@CPiercing@@QAEXH@Z ; CPiercing::SetPiercingSize
; File C:\IAGOS\server\v18\Source\Source\_Common\MoverParam.cpp

; 4093 : 				break;

  0012a	e9 20 01 00 00	 jmp	 $LN37@UpdateItem
$LN27@UpdateItem:

; 4096 : 					WORD wIndex	= LOWORD( dwValue ), wItemId	= HIWORD( dwValue );

  0012f	8b 5d 10	 mov	 ebx, DWORD PTR _dwValue$[ebp]
; File C:\IAGOS\server\v18\Source\Source\_Common\Item.h

; 104  : 	void	SetPiercingItem( int nth, DWORD dwItem )	{	m_piercing.SetPiercingItem( nth, dwItem );	}

  00132	8d 4f 3c	 lea	 ecx, DWORD PTR [edi+60]
; File C:\IAGOS\server\v18\Source\Source\_Common\MoverParam.cpp

; 4096 : 					WORD wIndex	= LOWORD( dwValue ), wItemId	= HIWORD( dwValue );

  00135	8b c3		 mov	 eax, ebx
  00137	c1 e8 10	 shr	 eax, 16			; 00000010H
; File C:\IAGOS\server\v18\Source\Source\_Common\Item.h

; 104  : 	void	SetPiercingItem( int nth, DWORD dwItem )	{	m_piercing.SetPiercingItem( nth, dwItem );	}

  0013a	50		 push	 eax
; File C:\IAGOS\server\v18\Source\Source\_Common\MoverParam.cpp

; 4097 : 					( (CItemElem*)pItemBase )->SetPiercingItem( wIndex, wItemId );

  0013b	0f b7 c3	 movzx	 eax, bx
; File C:\IAGOS\server\v18\Source\Source\_Common\Item.h

; 104  : 	void	SetPiercingItem( int nth, DWORD dwItem )	{	m_piercing.SetPiercingItem( nth, dwItem );	}

  0013e	50		 push	 eax
  0013f	e8 00 00 00 00	 call	 ?SetPiercingItem@CPiercing@@QAEXHK@Z ; CPiercing::SetPiercingItem
; File C:\IAGOS\server\v18\Source\Source\_Common\MoverParam.cpp

; 4099 : 				break;

  00144	e9 06 01 00 00	 jmp	 $LN37@UpdateItem
$LN28@UpdateItem:
; File C:\IAGOS\server\v18\Source\Source\_Common\Item.h

; 110  : 	void	SetUltimatePiercingSize( int nSize )	{	m_piercing.SetUltimatePiercingSize( nSize );	}

  00149	8b 5d 10	 mov	 ebx, DWORD PTR _dwValue$[ebp]
  0014c	8d 4f 3c	 lea	 ecx, DWORD PTR [edi+60]
  0014f	53		 push	 ebx
  00150	e8 00 00 00 00	 call	 ?SetUltimatePiercingSize@CPiercing@@QAEXH@Z ; CPiercing::SetUltimatePiercingSize
; File C:\IAGOS\server\v18\Source\Source\_Common\MoverParam.cpp

; 4104 : 				break;

  00155	e9 f5 00 00 00	 jmp	 $LN37@UpdateItem
$LN29@UpdateItem:

; 4107 : 					WORD wIndex	= LOWORD( dwValue ), wItemId	= HIWORD( dwValue );

  0015a	8b 5d 10	 mov	 ebx, DWORD PTR _dwValue$[ebp]
; File C:\IAGOS\server\v18\Source\Source\_Common\Item.h

; 112  : 	void	SetUltimatePiercingItem( int nth, DWORD dwItem )	{	m_piercing.SetUltimatePiercingItem( nth, dwItem );	}

  0015d	8d 4f 3c	 lea	 ecx, DWORD PTR [edi+60]
; File C:\IAGOS\server\v18\Source\Source\_Common\MoverParam.cpp

; 4107 : 					WORD wIndex	= LOWORD( dwValue ), wItemId	= HIWORD( dwValue );

  00160	8b c3		 mov	 eax, ebx
  00162	c1 e8 10	 shr	 eax, 16			; 00000010H
; File C:\IAGOS\server\v18\Source\Source\_Common\Item.h

; 112  : 	void	SetUltimatePiercingItem( int nth, DWORD dwItem )	{	m_piercing.SetUltimatePiercingItem( nth, dwItem );	}

  00165	50		 push	 eax
; File C:\IAGOS\server\v18\Source\Source\_Common\MoverParam.cpp

; 4108 : 					( (CItemElem*)pItemBase )->SetUltimatePiercingItem( wIndex, wItemId );

  00166	0f b7 c3	 movzx	 eax, bx
; File C:\IAGOS\server\v18\Source\Source\_Common\Item.h

; 112  : 	void	SetUltimatePiercingItem( int nth, DWORD dwItem )	{	m_piercing.SetUltimatePiercingItem( nth, dwItem );	}

  00169	50		 push	 eax
  0016a	e8 00 00 00 00	 call	 ?SetUltimatePiercingItem@CPiercing@@QAEXHK@Z ; CPiercing::SetUltimatePiercingItem
; File C:\IAGOS\server\v18\Source\Source\_Common\MoverParam.cpp

; 4110 : 				break;

  0016f	e9 db 00 00 00	 jmp	 $LN37@UpdateItem
$LN30@UpdateItem:
; File C:\IAGOS\server\v18\Source\Source\_Common\Item.h

; 102  : 	void	SetPiercingSize( int nSize )	{	m_piercing.SetPiercingSize( nSize );	}

  00174	8b 5d 10	 mov	 ebx, DWORD PTR _dwValue$[ebp]
  00177	8d 4f 3c	 lea	 ecx, DWORD PTR [edi+60]
  0017a	53		 push	 ebx
  0017b	e8 00 00 00 00	 call	 ?SetPiercingSize@CPiercing@@QAEXH@Z ; CPiercing::SetPiercingSize
; File C:\Program Files\Microsoft Visual Studio\2022\Professional\VC\Tools\MSVC\14.44.35207\include\vector

; 1635 :         _Resize(_Newsize, _Val);

  00180	8d 45 10	 lea	 eax, DWORD PTR $T1[ebp]
; File C:\IAGOS\server\v18\Source\Source\_Common\Piercing.h

; 40   : 	void	SetVisKeepTimeSize( int nSize )	{ m_vtmPetVis.resize( min( nSize, MAX_VIS ), 0 ); }

  00183	c7 45 10 00 00
	00 00		 mov	 DWORD PTR $T1[ebp], 0
; File C:\Program Files\Microsoft Visual Studio\2022\Professional\VC\Tools\MSVC\14.44.35207\include\vector

; 1635 :         _Resize(_Newsize, _Val);

  0018a	50		 push	 eax
; File C:\IAGOS\server\v18\Source\Source\_Common\Piercing.h

; 40   : 	void	SetVisKeepTimeSize( int nSize )	{ m_vtmPetVis.resize( min( nSize, MAX_VIS ), 0 ); }

  0018b	b8 09 00 00 00	 mov	 eax, 9
  00190	8d 4f 58	 lea	 ecx, DWORD PTR [edi+88]
  00193	3b d8		 cmp	 ebx, eax
  00195	0f 4c c3	 cmovl	 eax, ebx
; File C:\Program Files\Microsoft Visual Studio\2022\Professional\VC\Tools\MSVC\14.44.35207\include\vector

; 1635 :         _Resize(_Newsize, _Val);

  00198	50		 push	 eax
  00199	e8 00 00 00 00	 call	 ??$_Resize@J@?$vector@JV?$allocator@J@std@@@std@@AAEXIABJ@Z ; std::vector<long,std::allocator<long> >::_Resize<long>
; File C:\IAGOS\server\v18\Source\Source\_Common\MoverParam.cpp

; 4123 : 				break;

  0019e	e9 ac 00 00 00	 jmp	 $LN37@UpdateItem
$LN31@UpdateItem:

; 4127 : 					static_cast<CItemElem*>(pItemBase)->SetPiercingItem( wIndex, wItemId );

  001a3	8b 5d 10	 mov	 ebx, DWORD PTR _dwValue$[ebp]
; File C:\IAGOS\server\v18\Source\Source\_Common\Item.h

; 104  : 	void	SetPiercingItem( int nth, DWORD dwItem )	{	m_piercing.SetPiercingItem( nth, dwItem );	}

  001a6	8d 4f 3c	 lea	 ecx, DWORD PTR [edi+60]
; File C:\IAGOS\server\v18\Source\Source\_Common\MoverParam.cpp

; 4126 : 					WORD wIndex	= LOWORD( dwValue ), wItemId	= HIWORD( dwValue );

  001a9	8b c3		 mov	 eax, ebx

; 4127 : 					static_cast<CItemElem*>(pItemBase)->SetPiercingItem( wIndex, wItemId );

  001ab	0f b7 f3	 movzx	 esi, bx
  001ae	c1 e8 10	 shr	 eax, 16			; 00000010H
; File C:\IAGOS\server\v18\Source\Source\_Common\Item.h

; 104  : 	void	SetPiercingItem( int nth, DWORD dwItem )	{	m_piercing.SetPiercingItem( nth, dwItem );	}

  001b1	50		 push	 eax
  001b2	56		 push	 esi
  001b3	e8 00 00 00 00	 call	 ?SetPiercingItem@CPiercing@@QAEXHK@Z ; CPiercing::SetPiercingItem
; File C:\IAGOS\server\v18\Source\Source\_Common\MoverParam.cpp

; 4128 : 					static_cast<CItemElem*>(pItemBase)->SetVisKeepTime( wIndex, ( dwTime * 60 ) + time_null() ); // şĐ´ÜŔ§ ˝Ă°ŁŔ» ĂĘ´ÜŔ§·Î şŻ°ć

  001b8	8b 55 14	 mov	 edx, DWORD PTR _dwTime$[ebp]
; File C:\IAGOS\server\v18\Source\Source\_Common\Item.h

; 278  : 	void	SetVisKeepTime( int nth, time_t tmKeep )	{ m_piercing.SetVisKeepTime( nth, tmKeep ); }

  001bb	8d 4f 3c	 lea	 ecx, DWORD PTR [edi+60]
; File C:\IAGOS\server\v18\Source\Source\_Common\MoverParam.cpp

; 4128 : 					static_cast<CItemElem*>(pItemBase)->SetVisKeepTime( wIndex, ( dwTime * 60 ) + time_null() ); // şĐ´ÜŔ§ ˝Ă°ŁŔ» ĂĘ´ÜŔ§·Î şŻ°ć

  001be	a1 00 00 00 00	 mov	 eax, DWORD PTR ?g_tCurrent@@3JA ; g_tCurrent
  001c3	c1 e2 04	 shl	 edx, 4
  001c6	2b 55 14	 sub	 edx, DWORD PTR _dwTime$[ebp]
  001c9	8d 04 90	 lea	 eax, DWORD PTR [eax+edx*4]
; File C:\IAGOS\server\v18\Source\Source\_Common\Item.h

; 278  : 	void	SetVisKeepTime( int nth, time_t tmKeep )	{ m_piercing.SetVisKeepTime( nth, tmKeep ); }

  001cc	50		 push	 eax
  001cd	56		 push	 esi
  001ce	e8 00 00 00 00	 call	 ?SetVisKeepTime@CPiercing@@QAEXHJ@Z ; CPiercing::SetVisKeepTime
; File C:\IAGOS\server\v18\Source\Source\_Common\MoverParam.cpp

; 4134 : 				break;

  001d3	8b 75 f4	 mov	 esi, DWORD PTR _this$1$[ebp]
  001d6	eb 77		 jmp	 SHORT $LN37@UpdateItem
$LN32@UpdateItem:

; 4135 : 
; 4136 : 			case UI_PETVIS_ITEMSWAP:
; 4137 : 				{
; 4138 : 					WORD wPos1	= LOWORD( dwValue ), wPos2	= HIWORD( dwValue );

  001d8	8b 5d 10	 mov	 ebx, DWORD PTR _dwValue$[ebp]

; 4139 : 					static_cast<CItemElem*>(pItemBase)->SetSwapVisItem( wPos1, wPos2 );

  001db	8b cf		 mov	 ecx, edi
  001dd	8b c3		 mov	 eax, ebx
  001df	c1 e8 10	 shr	 eax, 16			; 00000010H
  001e2	50		 push	 eax
  001e3	0f b7 c3	 movzx	 eax, bx
  001e6	50		 push	 eax
  001e7	e8 00 00 00 00	 call	 ?SetSwapVisItem@CItemElem@@QAEXHH@Z ; CItemElem::SetSwapVisItem

; 4140 : 
; 4141 : #ifdef __CLIENT
; 4142 : 					PLAYSND(SND_INF_EQUIPACCESSORY, &g_pPlayer->GetPos());
; 4143 : #endif // __CLIENT
; 4144 : 				}
; 4145 : 				break;

  001ec	eb 61		 jmp	 SHORT $LN37@UpdateItem
$LN33@UpdateItem:

; 4146 : 
; 4147 : 			case UI_TRANSFORM_VISPET:
; 4148 : 				{
; 4149 : 					static_cast<CItemElem*>(pItemBase)->m_bTranformVisPet = static_cast<BOOL>( dwValue );

  001ee	8b 5d 10	 mov	 ebx, DWORD PTR _dwValue$[ebp]
  001f1	89 9f ac 00 00
	00		 mov	 DWORD PTR [edi+172], ebx

; 4150 : 					static_cast<CItemElem*>(pItemBase)->m_bCharged = TRUE;

  001f7	c7 87 a4 00 00
	00 01 00 00 00	 mov	 DWORD PTR [edi+164], 1

; 4151 : 				}
; 4152 : 				break;

  00201	eb 4c		 jmp	 SHORT $LN37@UpdateItem
$LN34@UpdateItem:
; File C:\IAGOS\server\v18\Source\Source\_Common\Item.h

; 171  : 	void	SetRandomOpt( int nRandomOpt )	{	m_iRandomOptItemId	= ( m_iRandomOptItemId & 0xFFFFFFFFFFFFFF00 ) | static_cast<__int64>( nRandomOpt & 0x00000000000000FF );	}

  00203	8b 87 90 00 00
	00		 mov	 eax, DWORD PTR [edi+144]
  00209	33 c9		 xor	 ecx, ecx
  0020b	8b 5d 10	 mov	 ebx, DWORD PTR _dwValue$[ebp]
  0020e	25 00 ff ff ff	 and	 eax, -256		; ffffff00H
  00213	0f b6 d3	 movzx	 edx, bl
  00216	0b d0		 or	 edx, eax
  00218	09 8f 94 00 00
	00		 or	 DWORD PTR [edi+148], ecx
  0021e	89 97 90 00 00
	00		 mov	 DWORD PTR [edi+144], edx
; File C:\IAGOS\server\v18\Source\Source\_Common\MoverParam.cpp

; 4158 : 					break;

  00224	eb 29		 jmp	 SHORT $LN37@UpdateItem
$LN35@UpdateItem:
; File C:\Program Files\Microsoft Visual Studio\2022\Professional\VC\Tools\MSVC\14.44.35207\atlmfc\include\atltime.h

; 377  : 	return( CTime( ::_time64( NULL ) ) );

  00226	6a 00		 push	 0
  00228	e8 00 00 00 00	 call	 __time64

; 276  :  	m_timeSpan = nSecs + 60* (nMins + 60* (nHours + __int64(24) * lDays));

  0022d	8b 5d 10	 mov	 ebx, DWORD PTR _dwValue$[ebp]

; 377  : 	return( CTime( ::_time64( NULL ) ) );

  00230	83 c4 04	 add	 esp, 4

; 276  :  	m_timeSpan = nSecs + 60* (nMins + 60* (nHours + __int64(24) * lDays));

  00233	8b cb		 mov	 ecx, ebx
  00235	c1 e1 04	 shl	 ecx, 4
  00238	2b cb		 sub	 ecx, ebx
; File C:\IAGOS\server\v18\Source\Source\_Common\MoverParam.cpp

; 4162 : 					CTime tm	= CTime::GetCurrentTime() + CTimeSpan( 0, 0, dwValue, 0 );

  0023a	8d 04 88	 lea	 eax, DWORD PTR [eax+ecx*4]

; 4163 : 					( (CItemElem*)pItemBase )->m_dwKeepTime	= (DWORD)( tm.GetTime() );

  0023d	89 87 a8 00 00
	00		 mov	 DWORD PTR [edi+168], eax

; 4164 : 					break;

  00243	eb 0a		 jmp	 SHORT $LN37@UpdateItem
$LN36@UpdateItem:

; 4165 : 				}
; 4166 : 
; 4167 : 			case UI_FLAG:
; 4168 : 				{
; 4169 : #ifdef __CLIENT
; 4170 : 					DWORD dwObjIndex	= (DWORD)(short)LOWORD( dwValue );
; 4171 : 					BYTE byFlag		= (BYTE)HIWORD( dwValue );
; 4172 : 					int nParts	= dwObjIndex - m_Inventory.GetSize();
; 4173 : 					if( nParts >= 0 && nParts < MAX_HUMAN_PARTS )
; 4174 : 						m_aEquipInfo[nParts].byFlag	= byFlag;
; 4175 : 					( (CItemElem*)pItemBase )->m_byFlag		= byFlag;
; 4176 : 					UpdateParts( FALSE );
; 4177 : #endif	// __CLIENT
; 4178 : 					UpdateParam();

  00245	8b ce		 mov	 ecx, esi
  00247	e8 00 00 00 00	 call	 ?UpdateParam@CMover@@QAEXXZ ; CMover::UpdateParam
$LN85@UpdateItem:

; 4179 : 					break;
; 4180 : 				}
; 4181 : 
; 4182 : 			default:
; 4183 : 				break;
; 4184 : 		}
; 4185 : #if __VER >= 9 // __CSC_VER9_1
; 4186 : #ifdef __CLIENT
; 4187 : 		CWndInventory* pWnd	= (CWndInventory*)g_WndMng.GetWndBase( APP_INVENTORY );
; 4188 : 		if( pWnd )
; 4189 : 			pWnd->UpdateTooltip();
; 4190 : 
; 4191 : // 		CWndInventory* pWnd	= (CWndInventory*)g_WndMng.GetWndBase( );		
; 4192 : // 		if( pWnd )
; 4193 : // 			pWnd->UpdateTooltip();
; 4194 : #endif	// __CLIENT
; 4195 : #endif	// __CSC_VER9_1
; 4196 : 	}
; 4197 : 	else
; 4198 : 	{
; 4199 : 		switch( cParam )
; 4200 : 		{
; 4201 : 			case UI_FLAG:
; 4202 : 				{
; 4203 : #ifdef __CLIENT
; 4204 : 					DWORD dwObjIndex	= (DWORD)(short)LOWORD( dwValue );
; 4205 : 					BYTE byFlag		= (BYTE)HIWORD( dwValue );
; 4206 : 					int nParts	= dwObjIndex - m_Inventory.GetSize();
; 4207 : 					if( nParts >= 0 && nParts < MAX_HUMAN_PARTS )
; 4208 : 					{
; 4209 : 						m_aEquipInfo[nParts].byFlag	= byFlag;
; 4210 : 						UpdateParts( TRUE );
; 4211 : 					}
; 4212 : #endif	// __CLIENT
; 4213 : 					break;
; 4214 : 				}
; 4215 : 			default:
; 4216 : 				break;
; 4217 : 		}
; 4218 : 	}
; 4219 : #ifdef __WORLDSERVER
; 4220 : 	if( IsPlayer() )

  0024c	8b 5d 10	 mov	 ebx, DWORD PTR _dwValue$[ebp]
$LN37@UpdateItem:
  0024f	83 be 30 02 00
	00 00		 cmp	 DWORD PTR [esi+560], 0
  00256	74 35		 je	 SHORT $LN41@UpdateItem

; 4221 : #if __VER >= 15 // __PETVIS
; 4222 : 	{
; 4223 : 		static_cast<CUser*>( this )->AddUpdateItem( 0, nId, cParam, dwValue, dwTime );

  00258	ff 75 14	 push	 DWORD PTR _dwTime$[ebp]
  0025b	8b ce		 mov	 ecx, esi
  0025d	53		 push	 ebx
  0025e	8b 5d 0c	 mov	 ebx, DWORD PTR _cParam$[ebp]
  00261	53		 push	 ebx
  00262	ff 75 08	 push	 DWORD PTR _nId$[ebp]
  00265	6a 00		 push	 0
  00267	e8 00 00 00 00	 call	 ?AddUpdateItem@CUser@@QAEXDEDKK@Z ; CUser::AddUpdateItem

; 4224 : 		if( pItemBase && cParam == UI_TRANSFORM_VISPET && HasActivatedEatPet() )

  0026c	85 ff		 test	 edi, edi
  0026e	74 1d		 je	 SHORT $LN41@UpdateItem
  00270	80 fb 12	 cmp	 bl, 18			; 00000012H
  00273	75 18		 jne	 SHORT $LN41@UpdateItem
; File C:\IAGOS\server\v18\Source\Source\_Common\Mover.h

; 806  : 	BOOL	HasActivatedEatPet( void )		{	return m_oiEatPet != NULL_ID;	}

  00275	83 be 74 06 00
	00 ff		 cmp	 DWORD PTR [esi+1652], -1
; File C:\IAGOS\server\v18\Source\Source\_Common\MoverParam.cpp

; 4224 : 		if( pItemBase && cParam == UI_TRANSFORM_VISPET && HasActivatedEatPet() )

  0027c	74 0f		 je	 SHORT $LN41@UpdateItem

; 4225 : 		{
; 4226 : 			InactivateEatPet();

  0027e	8b ce		 mov	 ecx, esi
  00280	e8 00 00 00 00	 call	 ?InactivateEatPet@CMover@@QAEXXZ ; CMover::InactivateEatPet

; 4227 : 			ActivateEatPet( static_cast<CItemElem*>( pItemBase ) );

  00285	57		 push	 edi
  00286	8b ce		 mov	 ecx, esi
  00288	e8 00 00 00 00	 call	 ?ActivateEatPet@CMover@@QAEXPAVCItemElem@@@Z ; CMover::ActivateEatPet
$LN41@UpdateItem:

; 4228 : 		}
; 4229 : 	}
; 4230 : #else // __PETVIS
; 4231 : 		( (CUser*)this )->AddUpdateItem( 0, nId, cParam, dwValue );
; 4232 : #endif // __PETVIS
; 4233 : #endif // __WORLDSERVER
; 4234 : }

  0028d	5f		 pop	 edi
  0028e	5e		 pop	 esi
  0028f	5b		 pop	 ebx
  00290	8b e5		 mov	 esp, ebp
  00292	5d		 pop	 ebp
  00293	c2 10 00	 ret	 16			; 00000010H
  00296	66 90		 npad	 2
$LN84@UpdateItem:
  00298	00 00 00 00	 DD	 $LN8@UpdateItem
  0029c	00 00 00 00	 DD	 $LN12@UpdateItem
  002a0	00 00 00 00	 DD	 $LN14@UpdateItem
  002a4	00 00 00 00	 DD	 $LN17@UpdateItem
  002a8	00 00 00 00	 DD	 $LN22@UpdateItem
  002ac	00 00 00 00	 DD	 $LN25@UpdateItem
  002b0	00 00 00 00	 DD	 $LN26@UpdateItem
  002b4	00 00 00 00	 DD	 $LN27@UpdateItem
  002b8	00 00 00 00	 DD	 $LN8@UpdateItem
  002bc	00 00 00 00	 DD	 $LN36@UpdateItem
  002c0	00 00 00 00	 DD	 $LN34@UpdateItem
  002c4	00 00 00 00	 DD	 $LN35@UpdateItem
  002c8	00 00 00 00	 DD	 $LN13@UpdateItem
  002cc	00 00 00 00	 DD	 $LN28@UpdateItem
  002d0	00 00 00 00	 DD	 $LN29@UpdateItem
  002d4	00 00 00 00	 DD	 $LN30@UpdateItem
  002d8	00 00 00 00	 DD	 $LN31@UpdateItem
  002dc	00 00 00 00	 DD	 $LN32@UpdateItem
  002e0	00 00 00 00	 DD	 $LN33@UpdateItem
?UpdateItem@CMover@@QAEXEDKK@Z ENDP			; CMover::UpdateItem
_TEXT	ENDS
; Function compile flags: /Ogtp
; File C:\IAGOS\server\v18\Source\Source\_Common\MoverParam.cpp
; File C:\IAGOS\server\v18\Source\Source\_Common\Project.h
; File C:\IAGOS\server\v18\Source\Source\_Common\MoverParam.cpp
; File C:\IAGOS\server\v18\Source\Source\_Common\Project.h
; File C:\IAGOS\server\v18\Source\Source\_Common\data.h
; File C:\IAGOS\server\v18\Source\Source\_Common\MoverParam.cpp
; File C:\IAGOS\server\v18\Source\Source\_Common\Project.h
; File C:\IAGOS\server\v18\Source\Source\_Common\MoverParam.cpp
;	COMDAT ?GetItemAbilityMax@CMover@@QAEHH@Z
_TEXT	SEGMENT
_nItem$ = 8						; size = 4
?GetItemAbilityMax@CMover@@QAEHH@Z PROC			; CMover::GetItemAbilityMax, COMDAT
; _this$ = ecx

; 597  : {

  00000	55		 push	 ebp
  00001	8b ec		 mov	 ebp, esp
; File C:\IAGOS\server\v18\Source\Source\_Common\Project.h

; 1389 : 	VERIFY_RANGE_ASSERT( nIndex, 0, m_aPropItem.GetSize(), "GetItemProp range_error", NULL );

  00003	8b 55 08	 mov	 edx, DWORD PTR _nItem$[ebp]
  00006	a1 40 02 00 00	 mov	 eax, DWORD PTR ?prj@@3VCProject@@A+576
; File C:\IAGOS\server\v18\Source\Source\_Common\MoverParam.cpp

; 597  : {

  0000b	56		 push	 esi
  0000c	8b f1		 mov	 esi, ecx
; File C:\IAGOS\server\v18\Source\Source\_Common\Project.h

; 1389 : 	VERIFY_RANGE_ASSERT( nIndex, 0, m_aPropItem.GetSize(), "GetItemProp range_error", NULL );

  0000e	85 d2		 test	 edx, edx
  00010	78 20		 js	 SHORT $LN8@GetItemAbi
  00012	3b d0		 cmp	 edx, eax
  00014	7d 1c		 jge	 SHORT $LN8@GetItemAbi
; File C:\IAGOS\server\v18\Source\Source\_Common\data.h

; 270  : 	if( dwIndex >= (DWORD)m_nMaxIndex )

  00016	73 30		 jae	 SHORT $LN18@GetItemAbi

; 271  : 		return NULL;
; 272  : 	return (T*) m_apOffset[ dwIndex ];

  00018	a1 30 02 00 00	 mov	 eax, DWORD PTR ?prj@@3VCProject@@A+560
  0001d	8b 04 90	 mov	 eax, DWORD PTR [eax+edx*4]
; File C:\IAGOS\server\v18\Source\Source\_Common\MoverParam.cpp

; 599  : 	int nAbilityMax = GetParam( DST_ABILITY_MAX, pItemProp->dwAbilityMax );

  00020	ff b0 e8 00 00
	00		 push	 DWORD PTR [eax+232]
  00026	6a 0d		 push	 13			; 0000000dH
  00028	e8 00 00 00 00	 call	 ?GetParam@CMover@@QAEHHH@Z ; CMover::GetParam

; 600  : 	return nAbilityMax;

  0002d	5e		 pop	 esi

; 601  : }

  0002e	5d		 pop	 ebp
  0002f	c2 04 00	 ret	 4
$LN8@GetItemAbi:
; File C:\IAGOS\server\v18\Source\Source\_Common\Project.h

; 579  : 	LPCTSTR szErr = Error( _T( "%s min:%d, max:%d, index:%d" ), szMsg, nMin, nMax, nIndex ); 

  00032	52		 push	 edx
  00033	50		 push	 eax
  00034	6a 00		 push	 0
  00036	68 00 00 00 00	 push	 OFFSET ??_C@_0BI@BEIFNGEL@GetItemProp?5range_error@
  0003b	68 00 00 00 00	 push	 OFFSET ??_C@_0BM@HMFGHCP@?$CFs?5min?3?$CFd?0?5max?3?$CFd?0?5index?3?$CFd@
  00040	e8 00 00 00 00	 call	 ?Error@@YAPBDPBDZZ	; Error
  00045	83 c4 14	 add	 esp, 20			; 00000014H
$LN18@GetItemAbi:
; File C:\IAGOS\server\v18\Source\Source\_Common\MoverParam.cpp

; 599  : 	int nAbilityMax = GetParam( DST_ABILITY_MAX, pItemProp->dwAbilityMax );

  00048	33 c0		 xor	 eax, eax
  0004a	8b ce		 mov	 ecx, esi
  0004c	ff b0 e8 00 00
	00		 push	 DWORD PTR [eax+232]
  00052	6a 0d		 push	 13			; 0000000dH
  00054	e8 00 00 00 00	 call	 ?GetParam@CMover@@QAEHHH@Z ; CMover::GetParam

; 600  : 	return nAbilityMax;

  00059	5e		 pop	 esi

; 601  : }

  0005a	5d		 pop	 ebp
  0005b	c2 04 00	 ret	 4
?GetItemAbilityMax@CMover@@QAEHH@Z ENDP			; CMover::GetItemAbilityMax
_TEXT	ENDS
; Function compile flags: /Ogtp
; File C:\IAGOS\server\v18\Source\Source\_Common\MoverParam.cpp
; File C:\IAGOS\server\v18\Source\Source\_Common\Project.h
; File C:\IAGOS\server\v18\Source\Source\_Common\MoverParam.cpp
; File C:\IAGOS\server\v18\Source\Source\_Common\Project.h
; File C:\IAGOS\server\v18\Source\Source\_Common\data.h
; File C:\IAGOS\server\v18\Source\Source\_Common\MoverParam.cpp
; File C:\IAGOS\server\v18\Source\Source\_Common\Project.h
; File C:\IAGOS\server\v18\Source\Source\_Common\MoverParam.cpp
;	COMDAT ?GetItemAbilityMin@CMover@@QAEHH@Z
_TEXT	SEGMENT
_nItem$ = 8						; size = 4
?GetItemAbilityMin@CMover@@QAEHH@Z PROC			; CMover::GetItemAbilityMin, COMDAT
; _this$ = ecx

; 590  : {

  00000	55		 push	 ebp
  00001	8b ec		 mov	 ebp, esp
; File C:\IAGOS\server\v18\Source\Source\_Common\Project.h

; 1389 : 	VERIFY_RANGE_ASSERT( nIndex, 0, m_aPropItem.GetSize(), "GetItemProp range_error", NULL );

  00003	8b 55 08	 mov	 edx, DWORD PTR _nItem$[ebp]
  00006	a1 40 02 00 00	 mov	 eax, DWORD PTR ?prj@@3VCProject@@A+576
; File C:\IAGOS\server\v18\Source\Source\_Common\MoverParam.cpp

; 590  : {

  0000b	56		 push	 esi
  0000c	8b f1		 mov	 esi, ecx
; File C:\IAGOS\server\v18\Source\Source\_Common\Project.h

; 1389 : 	VERIFY_RANGE_ASSERT( nIndex, 0, m_aPropItem.GetSize(), "GetItemProp range_error", NULL );

  0000e	85 d2		 test	 edx, edx
  00010	78 20		 js	 SHORT $LN8@GetItemAbi
  00012	3b d0		 cmp	 edx, eax
  00014	7d 1c		 jge	 SHORT $LN8@GetItemAbi
; File C:\IAGOS\server\v18\Source\Source\_Common\data.h

; 270  : 	if( dwIndex >= (DWORD)m_nMaxIndex )

  00016	73 30		 jae	 SHORT $LN18@GetItemAbi

; 271  : 		return NULL;
; 272  : 	return (T*) m_apOffset[ dwIndex ];

  00018	a1 30 02 00 00	 mov	 eax, DWORD PTR ?prj@@3VCProject@@A+560
  0001d	8b 04 90	 mov	 eax, DWORD PTR [eax+edx*4]
; File C:\IAGOS\server\v18\Source\Source\_Common\MoverParam.cpp

; 592  : 	int nAbilityMin = GetParam( DST_ABILITY_MIN, pItemProp->dwAbilityMin );

  00020	ff b0 e4 00 00
	00		 push	 DWORD PTR [eax+228]
  00026	6a 0c		 push	 12			; 0000000cH
  00028	e8 00 00 00 00	 call	 ?GetParam@CMover@@QAEHHH@Z ; CMover::GetParam

; 593  : 	return nAbilityMin;

  0002d	5e		 pop	 esi

; 594  : }

  0002e	5d		 pop	 ebp
  0002f	c2 04 00	 ret	 4
$LN8@GetItemAbi:
; File C:\IAGOS\server\v18\Source\Source\_Common\Project.h

; 579  : 	LPCTSTR szErr = Error( _T( "%s min:%d, max:%d, index:%d" ), szMsg, nMin, nMax, nIndex ); 

  00032	52		 push	 edx
  00033	50		 push	 eax
  00034	6a 00		 push	 0
  00036	68 00 00 00 00	 push	 OFFSET ??_C@_0BI@BEIFNGEL@GetItemProp?5range_error@
  0003b	68 00 00 00 00	 push	 OFFSET ??_C@_0BM@HMFGHCP@?$CFs?5min?3?$CFd?0?5max?3?$CFd?0?5index?3?$CFd@
  00040	e8 00 00 00 00	 call	 ?Error@@YAPBDPBDZZ	; Error
  00045	83 c4 14	 add	 esp, 20			; 00000014H
$LN18@GetItemAbi:
; File C:\IAGOS\server\v18\Source\Source\_Common\MoverParam.cpp

; 592  : 	int nAbilityMin = GetParam( DST_ABILITY_MIN, pItemProp->dwAbilityMin );

  00048	33 c0		 xor	 eax, eax
  0004a	8b ce		 mov	 ecx, esi
  0004c	ff b0 e4 00 00
	00		 push	 DWORD PTR [eax+228]
  00052	6a 0c		 push	 12			; 0000000cH
  00054	e8 00 00 00 00	 call	 ?GetParam@CMover@@QAEHHH@Z ; CMover::GetParam

; 593  : 	return nAbilityMin;

  00059	5e		 pop	 esi

; 594  : }

  0005a	5d		 pop	 ebp
  0005b	c2 04 00	 ret	 4
?GetItemAbilityMin@CMover@@QAEHH@Z ENDP			; CMover::GetItemAbilityMin
_TEXT	ENDS
; Function compile flags: /Ogtp
; File C:\IAGOS\server\v18\Source\Source\_Common\MoverParam.cpp
; File C:\IAGOS\server\v18\Source\Source\_Common\Project.h
; File C:\IAGOS\server\v18\Source\Source\_Common\MoverParam.cpp
; File C:\IAGOS\server\v18\Source\Source\_Common\Project.h
; File C:\IAGOS\server\v18\Source\Source\_Common\data.h
; File C:\IAGOS\server\v18\Source\Source\_Common\Project.h
; File C:\IAGOS\server\v18\Source\Source\_Common\MoverParam.cpp
; File C:\IAGOS\server\v18\Source\Source\_Common\xUtil.h
; File C:\IAGOS\server\v18\Source\Source\_Common\MoverParam.cpp
; File C:\IAGOS\server\v18\Source\Source\_Common\xUtil.h
; File C:\IAGOS\server\v18\Source\Source\_Common\MoverParam.cpp
;	COMDAT ?GetItemAbility@CMover@@QAEHH@Z
_TEXT	SEGMENT
_nItem$ = 8						; size = 4
?GetItemAbility@CMover@@QAEHH@Z PROC			; CMover::GetItemAbility, COMDAT
; _this$ = ecx

; 580  : {

  00000	55		 push	 ebp
  00001	8b ec		 mov	 ebp, esp
; File C:\IAGOS\server\v18\Source\Source\_Common\Project.h

; 1389 : 	VERIFY_RANGE_ASSERT( nIndex, 0, m_aPropItem.GetSize(), "GetItemProp range_error", NULL );

  00003	8b 55 08	 mov	 edx, DWORD PTR _nItem$[ebp]
  00006	a1 40 02 00 00	 mov	 eax, DWORD PTR ?prj@@3VCProject@@A+576
; File C:\IAGOS\server\v18\Source\Source\_Common\MoverParam.cpp

; 580  : {

  0000b	53		 push	 ebx
  0000c	8b d9		 mov	 ebx, ecx
  0000e	56		 push	 esi
  0000f	57		 push	 edi
; File C:\IAGOS\server\v18\Source\Source\_Common\Project.h

; 1389 : 	VERIFY_RANGE_ASSERT( nIndex, 0, m_aPropItem.GetSize(), "GetItemProp range_error", NULL );

  00010	85 d2		 test	 edx, edx
  00012	78 10		 js	 SHORT $LN9@GetItemAbi
  00014	3b d0		 cmp	 edx, eax
  00016	7d 0c		 jge	 SHORT $LN9@GetItemAbi
; File C:\IAGOS\server\v18\Source\Source\_Common\data.h

; 270  : 	if( dwIndex >= (DWORD)m_nMaxIndex )

  00018	73 20		 jae	 SHORT $LN22@GetItemAbi

; 271  : 		return NULL;
; 272  : 	return (T*) m_apOffset[ dwIndex ];

  0001a	a1 30 02 00 00	 mov	 eax, DWORD PTR ?prj@@3VCProject@@A+560
  0001f	8b 34 90	 mov	 esi, DWORD PTR [eax+edx*4]
; File C:\IAGOS\server\v18\Source\Source\_Common\Project.h

; 1390 : 	return m_aPropItem.GetAt( nIndex ); 

  00022	eb 18		 jmp	 SHORT $LN4@GetItemAbi
$LN9@GetItemAbi:

; 579  : 	LPCTSTR szErr = Error( _T( "%s min:%d, max:%d, index:%d" ), szMsg, nMin, nMax, nIndex ); 

  00024	52		 push	 edx
  00025	50		 push	 eax
  00026	6a 00		 push	 0
  00028	68 00 00 00 00	 push	 OFFSET ??_C@_0BI@BEIFNGEL@GetItemProp?5range_error@
  0002d	68 00 00 00 00	 push	 OFFSET ??_C@_0BM@HMFGHCP@?$CFs?5min?3?$CFd?0?5max?3?$CFd?0?5index?3?$CFd@
  00032	e8 00 00 00 00	 call	 ?Error@@YAPBDPBDZZ	; Error
  00037	83 c4 14	 add	 esp, 20			; 00000014H
$LN22@GetItemAbi:
; File C:\IAGOS\server\v18\Source\Source\_Common\MoverParam.cpp

; 582  : 	int nAbilityMin = GetParam( DST_ABILITY_MIN, pItemProp->dwAbilityMin );

  0003a	33 f6		 xor	 esi, esi
$LN4@GetItemAbi:
  0003c	ff b6 e4 00 00
	00		 push	 DWORD PTR [esi+228]
  00042	8b cb		 mov	 ecx, ebx
  00044	6a 0c		 push	 12			; 0000000cH
  00046	e8 00 00 00 00	 call	 ?GetParam@CMover@@QAEHHH@Z ; CMover::GetParam

; 583  : 	int nAbilityMax = GetParam( DST_ABILITY_MAX, pItemProp->dwAbilityMax );

  0004b	ff b6 e8 00 00
	00		 push	 DWORD PTR [esi+232]
  00051	8b cb		 mov	 ecx, ebx
  00053	8b f8		 mov	 edi, eax
  00055	6a 0d		 push	 13			; 0000000dH
  00057	e8 00 00 00 00	 call	 ?GetParam@CMover@@QAEHHH@Z ; CMover::GetParam
  0005c	8b c8		 mov	 ecx, eax

; 584  : 	if( nAbilityMax == nAbilityMin )

  0005e	3b cf		 cmp	 ecx, edi
  00060	75 09		 jne	 SHORT $LN2@GetItemAbi

; 585  : 		return nAbilityMin;

  00062	8b c7		 mov	 eax, edi
  00064	5f		 pop	 edi

; 587  : }

  00065	5e		 pop	 esi
  00066	5b		 pop	 ebx
  00067	5d		 pop	 ebp
  00068	c2 04 00	 ret	 4
$LN2@GetItemAbi:
; File C:\IAGOS\server\v18\Source\Source\_Common\xUtil.h

; 16   : 	g_next = g_next * 1103515245 + 12345;// + nRandomSeed[ i++ ];

  0006b	69 05 00 00 00
	00 6d 4e c6 41	 imul	 eax, DWORD PTR ?g_next@@3KA, 1103515245 ; g_next
; File C:\IAGOS\server\v18\Source\Source\_Common\MoverParam.cpp

; 586  : 	return nAbilityMin + ( xRand() % (nAbilityMax - nAbilityMin ) );

  00075	2b cf		 sub	 ecx, edi
  00077	33 d2		 xor	 edx, edx
; File C:\IAGOS\server\v18\Source\Source\_Common\xUtil.h

; 16   : 	g_next = g_next * 1103515245 + 12345;// + nRandomSeed[ i++ ];

  00079	05 39 30 00 00	 add	 eax, 12345		; 00003039H
  0007e	a3 00 00 00 00	 mov	 DWORD PTR ?g_next@@3KA, eax ; g_next
; File C:\IAGOS\server\v18\Source\Source\_Common\MoverParam.cpp

; 586  : 	return nAbilityMin + ( xRand() % (nAbilityMax - nAbilityMin ) );

  00083	f7 f1		 div	 ecx
  00085	8d 04 17	 lea	 eax, DWORD PTR [edi+edx]
  00088	5f		 pop	 edi

; 587  : }

  00089	5e		 pop	 esi
  0008a	5b		 pop	 ebx
  0008b	5d		 pop	 ebp
  0008c	c2 04 00	 ret	 4
?GetItemAbility@CMover@@QAEHH@Z ENDP			; CMover::GetItemAbility
_TEXT	ENDS
; Function compile flags: /Ogtp
; File C:\IAGOS\server\v18\Source\Source\_Common\MoverParam.cpp
; File C:\IAGOS\server\v18\Source\Source\_Common\Project.h
; File C:\IAGOS\server\v18\Source\Source\_Common\MoverParam.cpp
; File C:\IAGOS\server\v18\Source\Source\_Common\Mover.h
; File C:\IAGOS\server\v18\Source\Source\_Common\Project.h
; File C:\IAGOS\server\v18\Source\Source\_Common\MoverParam.cpp
; File C:\IAGOS\server\v18\Source\Source\_Common\Project.h
; File C:\IAGOS\server\v18\Source\Source\_Common\MoverParam.cpp
;	COMDAT ?GetResistSpell@CMover@@QAEHH@Z
_TEXT	SEGMENT
_nDestParam$ = 8					; size = 4
?GetResistSpell@CMover@@QAEHH@Z PROC			; CMover::GetResistSpell, COMDAT
; _this$ = ecx

; 3295 : {

  00000	55		 push	 ebp
  00001	8b ec		 mov	 ebp, esp
  00003	51		 push	 ecx
  00004	53		 push	 ebx
  00005	8b d9		 mov	 ebx, ecx
; File C:\IAGOS\server\v18\Source\Source\_Common\Project.h

; 1406 : 	VERIFY_RANGE( nIndex, 0, m_nMoverPropSize, "GetMoverProp range_error", NULL );

  00007	8b 0d b4 01 00
	00		 mov	 ecx, DWORD PTR ?prj@@3VCProject@@A+436
; File C:\IAGOS\server\v18\Source\Source\_Common\MoverParam.cpp

; 3295 : {

  0000d	56		 push	 esi
  0000e	57		 push	 edi
; File C:\IAGOS\server\v18\Source\Source\_Common\Mover.h

; 1020 : 	MoverProp*		GetProp() { return prj.GetMoverProp( m_dwIndex ); }	// °´ĂĽŔÇ ÇÁ·ÎĆŰĆĽ ľň±â 	

  0000f	8b 83 74 01 00
	00		 mov	 eax, DWORD PTR [ebx+372]
; File C:\IAGOS\server\v18\Source\Source\_Common\Project.h

; 1406 : 	VERIFY_RANGE( nIndex, 0, m_nMoverPropSize, "GetMoverProp range_error", NULL );

  00015	85 c0		 test	 eax, eax
  00017	78 14		 js	 SHORT $LN19@GetResistS
  00019	3b c1		 cmp	 eax, ecx
  0001b	7d 10		 jge	 SHORT $LN19@GetResistS

; 1407 : 	return m_pPropMover + nIndex;

  0001d	69 f0 90 06 00
	00		 imul	 esi, eax, 1680
  00023	03 35 b8 01 00
	00		 add	 esi, DWORD PTR ?prj@@3VCProject@@A+440
; File C:\IAGOS\server\v18\Source\Source\_Common\MoverParam.cpp

; 3297 : 	if( pProp == NULL )

  00029	75 31		 jne	 SHORT $LN4@GetResistS
  0002b	eb 18		 jmp	 SHORT $LN23@GetResistS
$LN19@GetResistS:
; File C:\IAGOS\server\v18\Source\Source\_Common\Project.h

; 579  : 	LPCTSTR szErr = Error( _T( "%s min:%d, max:%d, index:%d" ), szMsg, nMin, nMax, nIndex ); 

  0002d	50		 push	 eax
  0002e	51		 push	 ecx
  0002f	6a 00		 push	 0
  00031	68 00 00 00 00	 push	 OFFSET ??_C@_0BJ@GKPOBPPI@GetMoverProp?5range_error@
  00036	68 00 00 00 00	 push	 OFFSET ??_C@_0BM@HMFGHCP@?$CFs?5min?3?$CFd?0?5max?3?$CFd?0?5index?3?$CFd@
  0003b	e8 00 00 00 00	 call	 ?Error@@YAPBDPBDZZ	; Error
  00040	83 c4 14	 add	 esp, 20			; 00000014H

; 1406 : 	VERIFY_RANGE( nIndex, 0, m_nMoverPropSize, "GetMoverProp range_error", NULL );

  00043	33 f6		 xor	 esi, esi
$LN23@GetResistS:
; File C:\IAGOS\server\v18\Source\Source\_Common\MoverParam.cpp

; 3298 : 		Error( "CMover::GetReistSpell : %d ÇÁ·ÎĆŰĆĽ ŔĐ±â ˝ÇĆĐ", GetName() );

  00045	6a 00		 push	 0
  00047	8b cb		 mov	 ecx, ebx
  00049	e8 00 00 00 00	 call	 ?GetName@CMover@@QAEPBDH@Z ; CMover::GetName
  0004e	50		 push	 eax
  0004f	68 00 00 00 00	 push	 OFFSET ??_C@_0CO@GBNLCJJD@CMover?3?3GetReistSpell?5?3?5?$CFd?5?G?A?$LH?N@
  00054	e8 00 00 00 00	 call	 ?Error@@YAPBDPBDZZ	; Error
  00059	83 c4 08	 add	 esp, 8
$LN4@GetResistS:

; 3299 : 
; 3300 : 	int		nResist = 0;
; 3301 : 
; 3302 : 	switch( nDestParam )

  0005c	8b 45 08	 mov	 eax, DWORD PTR _nDestParam$[ebp]
  0005f	33 ff		 xor	 edi, edi
  00061	8d 48 e4	 lea	 ecx, DWORD PTR [eax-28]
  00064	83 f9 05	 cmp	 ecx, 5
  00067	77 7f		 ja	 SHORT $LN10@GetResistS
  00069	ff 24 8d 00 00
	00 00		 jmp	 DWORD PTR $LN24@GetResistS[ecx*4]
$LN5@GetResistS:

; 3303 : 	{
; 3304 : 	case DST_RESIST_ELECTRICITY:	nResist = pProp->nResistElecricity;		break;

  00070	8b be 24 01 00
	00		 mov	 edi, DWORD PTR [esi+292]

; 3311 : 		break;
; 3312 : 	}
; 3313 : 	return GetParam( nDestParam, nResist );

  00076	8b cb		 mov	 ecx, ebx
  00078	57		 push	 edi
  00079	50		 push	 eax
  0007a	e8 00 00 00 00	 call	 ?GetParam@CMover@@QAEHHH@Z ; CMover::GetParam
  0007f	5f		 pop	 edi
  00080	5e		 pop	 esi
  00081	5b		 pop	 ebx

; 3314 : }

  00082	8b e5		 mov	 esp, ebp
  00084	5d		 pop	 ebp
  00085	c2 04 00	 ret	 4
$LN6@GetResistS:

; 3305 : 	case DST_RESIST_FIRE:			nResist = pProp->nResistFire;		break;

  00088	8b be 2c 01 00
	00		 mov	 edi, DWORD PTR [esi+300]

; 3311 : 		break;
; 3312 : 	}
; 3313 : 	return GetParam( nDestParam, nResist );

  0008e	8b cb		 mov	 ecx, ebx
  00090	57		 push	 edi
  00091	50		 push	 eax
  00092	e8 00 00 00 00	 call	 ?GetParam@CMover@@QAEHHH@Z ; CMover::GetParam
  00097	5f		 pop	 edi
  00098	5e		 pop	 esi
  00099	5b		 pop	 ebx

; 3314 : }

  0009a	8b e5		 mov	 esp, ebp
  0009c	5d		 pop	 ebp
  0009d	c2 04 00	 ret	 4
$LN7@GetResistS:

; 3306 : 	case DST_RESIST_WATER:			nResist = pProp->nResistWater;		break;

  000a0	8b be 34 01 00
	00		 mov	 edi, DWORD PTR [esi+308]

; 3311 : 		break;
; 3312 : 	}
; 3313 : 	return GetParam( nDestParam, nResist );

  000a6	8b cb		 mov	 ecx, ebx
  000a8	57		 push	 edi
  000a9	50		 push	 eax
  000aa	e8 00 00 00 00	 call	 ?GetParam@CMover@@QAEHHH@Z ; CMover::GetParam
  000af	5f		 pop	 edi
  000b0	5e		 pop	 esi
  000b1	5b		 pop	 ebx

; 3314 : }

  000b2	8b e5		 mov	 esp, ebp
  000b4	5d		 pop	 ebp
  000b5	c2 04 00	 ret	 4
$LN8@GetResistS:

; 3307 : 	case DST_RESIST_EARTH:			nResist = pProp->nResistEarth;		break;

  000b8	8b be 38 01 00
	00		 mov	 edi, DWORD PTR [esi+312]

; 3311 : 		break;
; 3312 : 	}
; 3313 : 	return GetParam( nDestParam, nResist );

  000be	8b cb		 mov	 ecx, ebx
  000c0	57		 push	 edi
  000c1	50		 push	 eax
  000c2	e8 00 00 00 00	 call	 ?GetParam@CMover@@QAEHHH@Z ; CMover::GetParam
  000c7	5f		 pop	 edi
  000c8	5e		 pop	 esi
  000c9	5b		 pop	 ebx

; 3314 : }

  000ca	8b e5		 mov	 esp, ebp
  000cc	5d		 pop	 ebp
  000cd	c2 04 00	 ret	 4
$LN9@GetResistS:

; 3308 : 	case DST_RESIST_WIND:			nResist = pProp->nResistWind;		break;

  000d0	8b be 30 01 00
	00		 mov	 edi, DWORD PTR [esi+304]

; 3311 : 		break;
; 3312 : 	}
; 3313 : 	return GetParam( nDestParam, nResist );

  000d6	8b cb		 mov	 ecx, ebx
  000d8	57		 push	 edi
  000d9	50		 push	 eax
  000da	e8 00 00 00 00	 call	 ?GetParam@CMover@@QAEHHH@Z ; CMover::GetParam
  000df	5f		 pop	 edi
  000e0	5e		 pop	 esi
  000e1	5b		 pop	 ebx

; 3314 : }

  000e2	8b e5		 mov	 esp, ebp
  000e4	5d		 pop	 ebp
  000e5	c2 04 00	 ret	 4
$LN10@GetResistS:

; 3309 : 	default:
; 3310 : 		Error( "CMover::GetResistSpell : %s ĆÄ¶ó¸ŢĹÍ Ŕß¸řµĘ %d", GetName(), nDestParam );

  000e8	50		 push	 eax
  000e9	6a 00		 push	 0
  000eb	8b cb		 mov	 ecx, ebx
  000ed	e8 00 00 00 00	 call	 ?GetName@CMover@@QAEPBDH@Z ; CMover::GetName
  000f2	50		 push	 eax
  000f3	68 00 00 00 00	 push	 OFFSET ??_C@_0CP@LCMNFNMN@CMover?3?3GetResistSpell?5?3?5?$CFs?5?F?D?$LG@
  000f8	e8 00 00 00 00	 call	 ?Error@@YAPBDPBDZZ	; Error
  000fd	8b 45 08	 mov	 eax, DWORD PTR _nDestParam$[ebp]
  00100	83 c4 0c	 add	 esp, 12			; 0000000cH

; 3311 : 		break;
; 3312 : 	}
; 3313 : 	return GetParam( nDestParam, nResist );

  00103	8b cb		 mov	 ecx, ebx
  00105	57		 push	 edi
  00106	50		 push	 eax
  00107	e8 00 00 00 00	 call	 ?GetParam@CMover@@QAEHHH@Z ; CMover::GetParam
  0010c	5f		 pop	 edi
  0010d	5e		 pop	 esi
  0010e	5b		 pop	 ebx

; 3314 : }

  0010f	8b e5		 mov	 esp, ebp
  00111	5d		 pop	 ebp
  00112	c2 04 00	 ret	 4
  00115	0f 1f 00	 npad	 3
$LN24@GetResistS:
  00118	00 00 00 00	 DD	 $LN5@GetResistS
  0011c	00 00 00 00	 DD	 $LN10@GetResistS
  00120	00 00 00 00	 DD	 $LN6@GetResistS
  00124	00 00 00 00	 DD	 $LN9@GetResistS
  00128	00 00 00 00	 DD	 $LN7@GetResistS
  0012c	00 00 00 00	 DD	 $LN8@GetResistS
?GetResistSpell@CMover@@QAEHH@Z ENDP			; CMover::GetResistSpell
_TEXT	ENDS
; Function compile flags: /Ogtp
; File C:\IAGOS\server\v18\Source\Source\_Common\MoverParam.cpp
;	COMDAT ?GetResistMagic@CMover@@QAEHXZ
_TEXT	SEGMENT
?GetResistMagic@CMover@@QAEHXZ PROC			; CMover::GetResistMagic, COMDAT
; _this$ = ecx

; 3292 : 	return GetParam( DST_RESIST_MAGIC, 0 );

  00000	6a 00		 push	 0
  00002	6a 1b		 push	 27			; 0000001bH
  00004	e8 00 00 00 00	 call	 ?GetParam@CMover@@QAEHHH@Z ; CMover::GetParam

; 3293 : }

  00009	c3		 ret	 0
?GetResistMagic@CMover@@QAEHXZ ENDP			; CMover::GetResistMagic
_TEXT	ENDS
; Function compile flags: /Ogtp
; File C:\IAGOS\server\v18\Source\Source\_Common\MoverParam.cpp
; File C:\IAGOS\server\v18\Source\Source\_Common\Mover.h
; File C:\IAGOS\server\v18\Source\Source\_Common\Project.h
; File C:\IAGOS\server\v18\Source\Source\_Common\MoverParam.cpp
; File C:\IAGOS\server\v18\Source\Source\_Common\Project.h
; File C:\IAGOS\server\v18\Source\Source\_Common\MoverParam.cpp
;	COMDAT ?GetParrying@CMover@@QAEHXZ
_TEXT	SEGMENT
?GetParrying@CMover@@QAEHXZ PROC			; CMover::GetParrying, COMDAT
; _this$ = ecx

; 556  : {

  00000	57		 push	 edi
  00001	8b f9		 mov	 edi, ecx

; 557  : 	if( IsPlayer() )

  00003	83 bf 30 02 00
	00 00		 cmp	 DWORD PTR [edi+560], 0
  0000a	74 38		 je	 SHORT $LN2@GetParryin

; 558  : 		return	( (int)( (GetDex() * 0.5f) + GetParam( DST_PARRY, m_nAdjParry ) ) );

  0000c	56		 push	 esi
  0000d	ff b7 14 06 00
	00		 push	 DWORD PTR [edi+1556]
  00013	6a 41		 push	 65			; 00000041H
  00015	e8 00 00 00 00	 call	 ?GetParam@CMover@@QAEHHH@Z ; CMover::GetParam
  0001a	8b cf		 mov	 ecx, edi
  0001c	8b f0		 mov	 esi, eax
  0001e	e8 00 00 00 00	 call	 ?GetDex@CMover@@QAEHXZ	; CMover::GetDex
  00023	66 0f 6e ce	 movd	 xmm1, esi
  00027	0f 5b c9	 cvtdq2ps xmm1, xmm1
  0002a	5e		 pop	 esi
  0002b	5f		 pop	 edi
  0002c	66 0f 6e c0	 movd	 xmm0, eax
  00030	0f 5b c0	 cvtdq2ps xmm0, xmm0
  00033	f3 0f 59 05 00
	00 00 00	 mulss	 xmm0, DWORD PTR __real@3f000000
  0003b	f3 0f 58 c8	 addss	 xmm1, xmm0
  0003f	f3 0f 2c c1	 cvttss2si eax, xmm1

; 561  : }

  00043	c3		 ret	 0
$LN2@GetParryin:
; File C:\IAGOS\server\v18\Source\Source\_Common\Mover.h

; 1020 : 	MoverProp*		GetProp() { return prj.GetMoverProp( m_dwIndex ); }	// °´ĂĽŔÇ ÇÁ·ÎĆŰĆĽ ľň±â 	

  00044	8b 87 74 01 00
	00		 mov	 eax, DWORD PTR [edi+372]
; File C:\IAGOS\server\v18\Source\Source\_Common\Project.h

; 1406 : 	VERIFY_RANGE( nIndex, 0, m_nMoverPropSize, "GetMoverProp range_error", NULL );

  0004a	8b 0d b4 01 00
	00		 mov	 ecx, DWORD PTR ?prj@@3VCProject@@A+436
  00050	85 c0		 test	 eax, eax
  00052	78 15		 js	 SHORT $LN12@GetParryin
  00054	3b c1		 cmp	 eax, ecx
  00056	7d 11		 jge	 SHORT $LN12@GetParryin

; 1407 : 	return m_pPropMover + nIndex;

  00058	69 c0 90 06 00
	00		 imul	 eax, eax, 1680
  0005e	5f		 pop	 edi
  0005f	03 05 b8 01 00
	00		 add	 eax, DWORD PTR ?prj@@3VCProject@@A+440
; File C:\IAGOS\server\v18\Source\Source\_Common\MoverParam.cpp

; 560  : 		return GetProp()->dwER;

  00065	8b 40 78	 mov	 eax, DWORD PTR [eax+120]

; 561  : }

  00068	c3		 ret	 0
$LN12@GetParryin:
; File C:\IAGOS\server\v18\Source\Source\_Common\Project.h

; 579  : 	LPCTSTR szErr = Error( _T( "%s min:%d, max:%d, index:%d" ), szMsg, nMin, nMax, nIndex ); 

  00069	50		 push	 eax
  0006a	51		 push	 ecx
  0006b	6a 00		 push	 0
  0006d	68 00 00 00 00	 push	 OFFSET ??_C@_0BJ@GKPOBPPI@GetMoverProp?5range_error@
  00072	68 00 00 00 00	 push	 OFFSET ??_C@_0BM@HMFGHCP@?$CFs?5min?3?$CFd?0?5max?3?$CFd?0?5index?3?$CFd@
  00077	e8 00 00 00 00	 call	 ?Error@@YAPBDPBDZZ	; Error
  0007c	83 c4 14	 add	 esp, 20			; 00000014H

; 1406 : 	VERIFY_RANGE( nIndex, 0, m_nMoverPropSize, "GetMoverProp range_error", NULL );

  0007f	33 c0		 xor	 eax, eax
; File C:\IAGOS\server\v18\Source\Source\_Common\MoverParam.cpp

; 560  : 		return GetProp()->dwER;

  00081	8b 40 78	 mov	 eax, DWORD PTR [eax+120]
  00084	5f		 pop	 edi

; 561  : }

  00085	c3		 ret	 0
?GetParrying@CMover@@QAEHXZ ENDP			; CMover::GetParrying
_TEXT	ENDS
; Function compile flags: /Ogtp
; File C:\IAGOS\server\v18\Source\Source\_Common\MoverParam.cpp
;	COMDAT ?GetAdjHitRate@CMover@@QAEHXZ
_TEXT	SEGMENT
?GetAdjHitRate@CMover@@QAEHXZ PROC			; CMover::GetAdjHitRate, COMDAT
; _this$ = ecx

; 551  : 	return GetParam( DST_ADJ_HITRATE, m_nAdjHitRate );

  00000	ff b1 10 06 00
	00		 push	 DWORD PTR [ecx+1552]
  00006	6a 2f		 push	 47			; 0000002fH
  00008	e8 00 00 00 00	 call	 ?GetParam@CMover@@QAEHHH@Z ; CMover::GetParam

; 552  : }

  0000d	c3		 ret	 0
?GetAdjHitRate@CMover@@QAEHXZ ENDP			; CMover::GetAdjHitRate
_TEXT	ENDS
; Function compile flags: /Ogtp
; File C:\IAGOS\server\v18\Source\Source\_Common\MoverParam.cpp
; File C:\IAGOS\server\v18\Source\Source\_Common\Mover.h
; File C:\IAGOS\server\v18\Source\Source\_Common\Project.h
; File C:\IAGOS\server\v18\Source\Source\_Common\MoverParam.cpp
; File C:\IAGOS\server\v18\Source\Source\_Common\Project.h
; File C:\IAGOS\server\v18\Source\Source\_Common\MoverParam.cpp
;	COMDAT ?GetNaturalArmor@CMover@@QAEHXZ
_TEXT	SEGMENT
?GetNaturalArmor@CMover@@QAEHXZ PROC			; CMover::GetNaturalArmor, COMDAT
; _this$ = ecx
; File C:\IAGOS\server\v18\Source\Source\_Common\Mover.h

; 1020 : 	MoverProp*		GetProp() { return prj.GetMoverProp( m_dwIndex ); }	// °´ĂĽŔÇ ÇÁ·ÎĆŰĆĽ ľň±â 	

  00000	8b 81 74 01 00
	00		 mov	 eax, DWORD PTR [ecx+372]
; File C:\IAGOS\server\v18\Source\Source\_Common\Project.h

; 1406 : 	VERIFY_RANGE( nIndex, 0, m_nMoverPropSize, "GetMoverProp range_error", NULL );

  00006	8b 0d b4 01 00
	00		 mov	 ecx, DWORD PTR ?prj@@3VCProject@@A+436
  0000c	85 c0		 test	 eax, eax
  0000e	78 17		 js	 SHORT $LN10@GetNatural
  00010	3b c1		 cmp	 eax, ecx
  00012	7d 13		 jge	 SHORT $LN10@GetNatural

; 1407 : 	return m_pPropMover + nIndex;

  00014	69 c0 90 06 00
	00		 imul	 eax, eax, 1680
  0001a	03 05 b8 01 00
	00		 add	 eax, DWORD PTR ?prj@@3VCProject@@A+440
; File C:\IAGOS\server\v18\Source\Source\_Common\MoverParam.cpp

; 3319 : }

  00020	8b 80 ec 00 00
	00		 mov	 eax, DWORD PTR [eax+236]
  00026	c3		 ret	 0
$LN10@GetNatural:
; File C:\IAGOS\server\v18\Source\Source\_Common\Project.h

; 579  : 	LPCTSTR szErr = Error( _T( "%s min:%d, max:%d, index:%d" ), szMsg, nMin, nMax, nIndex ); 

  00027	50		 push	 eax
  00028	51		 push	 ecx
  00029	6a 00		 push	 0
  0002b	68 00 00 00 00	 push	 OFFSET ??_C@_0BJ@GKPOBPPI@GetMoverProp?5range_error@
  00030	68 00 00 00 00	 push	 OFFSET ??_C@_0BM@HMFGHCP@?$CFs?5min?3?$CFd?0?5max?3?$CFd?0?5index?3?$CFd@
  00035	e8 00 00 00 00	 call	 ?Error@@YAPBDPBDZZ	; Error

; 1406 : 	VERIFY_RANGE( nIndex, 0, m_nMoverPropSize, "GetMoverProp range_error", NULL );

  0003a	33 c0		 xor	 eax, eax

; 579  : 	LPCTSTR szErr = Error( _T( "%s min:%d, max:%d, index:%d" ), szMsg, nMin, nMax, nIndex ); 

  0003c	83 c4 14	 add	 esp, 20			; 00000014H
; File C:\IAGOS\server\v18\Source\Source\_Common\MoverParam.cpp

; 3319 : }

  0003f	8b 80 ec 00 00
	00		 mov	 eax, DWORD PTR [eax+236]
  00045	c3		 ret	 0
?GetNaturalArmor@CMover@@QAEHXZ ENDP			; CMover::GetNaturalArmor
_TEXT	ENDS
; Function compile flags: /Ogtp
; File C:\IAGOS\server\v18\Source\Source\_Common\MoverParam.cpp
;	COMDAT ?GetFPRecovery@CMover@@QAEHXZ
_TEXT	SEGMENT
tv199 = -8						; size = 4
tv211 = -8						; size = 4
_fFactor$1$ = -4					; size = 4
?GetFPRecovery@CMover@@QAEHXZ PROC			; CMover::GetFPRecovery, COMDAT
; _this$ = ecx

; 3158 : {

  00000	55		 push	 ebp
  00001	8b ec		 mov	 ebp, esp
  00003	83 ec 08	 sub	 esp, 8

; 3159 : 	float fFactor = 1.0f;

  00006	f3 0f 10 05 00
	00 00 00	 movss	 xmm0, DWORD PTR __real@3f800000
  0000e	56		 push	 esi
  0000f	8b f1		 mov	 esi, ecx
  00011	f3 0f 11 45 fc	 movss	 DWORD PTR _fFactor$1$[ebp], xmm0

; 3160 : 	if( IsPlayer() )

  00016	83 be 30 02 00
	00 00		 cmp	 DWORD PTR [esi+560], 0
  0001d	74 1a		 je	 SHORT $LN2@GetFPRecov

; 3161 : 	{
; 3162 : 		JobProp* pProperty = prj.GetJobProp( GetJob() ); 

  0001f	e8 00 00 00 00	 call	 ?GetJob@CMover@@QAEHXZ	; CMover::GetJob
  00024	50		 push	 eax
  00025	b9 00 00 00 00	 mov	 ecx, OFFSET ?prj@@3VCProject@@A ; prj
  0002a	e8 00 00 00 00	 call	 ?GetJobProp@CProject@@QAEPAUJobProp@@H@Z ; CProject::GetJobProp

; 3163 : 		fFactor = pProperty->fFactorFPRecovery;

  0002f	f3 0f 10 40 1c	 movss	 xmm0, DWORD PTR [eax+28]
  00034	f3 0f 11 45 fc	 movss	 DWORD PTR _fFactor$1$[ebp], xmm0
$LN2@GetFPRecov:

; 3164 : 	}
; 3165 : 	// ((·ąş§*2)+(MaxFP/(500*·ąş§))+(STA*Job°čĽö))*0.2
; 3166 : 	int nValue = (int)( ((GetLevel() * 2.0f) + (GetMaxFatiguePoint() / (500.f * GetLevel())) + (GetSta() * fFactor)) * 0.2f );

  00039	66 0f 6e 86 d8
	05 00 00	 movd	 xmm0, DWORD PTR [esi+1496]
  00041	8b ce		 mov	 ecx, esi
  00043	0f 5b c0	 cvtdq2ps xmm0, xmm0
  00046	f3 0f 11 45 f8	 movss	 DWORD PTR tv199[ebp], xmm0
  0004b	e8 00 00 00 00	 call	 ?GetMaxFatiguePoint@CMover@@QAEHXZ ; CMover::GetMaxFatiguePoint
  00050	f3 0f 10 4d f8	 movss	 xmm1, DWORD PTR tv199[ebp]
  00055	8b ce		 mov	 ecx, esi
  00057	0f 28 c1	 movaps	 xmm0, xmm1
  0005a	f3 0f 58 c9	 addss	 xmm1, xmm1
  0005e	f3 0f 59 05 00
	00 00 00	 mulss	 xmm0, DWORD PTR __real@43fa0000
  00066	66 0f 6e d0	 movd	 xmm2, eax
  0006a	0f 5b d2	 cvtdq2ps xmm2, xmm2
  0006d	f3 0f 5e d0	 divss	 xmm2, xmm0
  00071	f3 0f 58 d1	 addss	 xmm2, xmm1
  00075	f3 0f 11 55 f8	 movss	 DWORD PTR tv211[ebp], xmm2
  0007a	e8 00 00 00 00	 call	 ?GetSta@CMover@@QAEHXZ	; CMover::GetSta

; 3167 : #if __VER >= 9 // __RECOVERY10
; 3168 : 	nValue	= (int)( nValue - ( nValue * 0.1f ) ); // Č¸şą·® 10% ÇĎÇâ
; 3169 : #endif //__RECOVERY10
; 3170 : 	return GetParam( DST_FP_RECOVERY, nValue );

  0007f	8b ce		 mov	 ecx, esi
  00081	66 0f 6e c0	 movd	 xmm0, eax
  00085	0f 5b c0	 cvtdq2ps xmm0, xmm0
  00088	f3 0f 59 45 fc	 mulss	 xmm0, DWORD PTR _fFactor$1$[ebp]
  0008d	f3 0f 58 45 f8	 addss	 xmm0, DWORD PTR tv211[ebp]
  00092	f3 0f 59 05 00
	00 00 00	 mulss	 xmm0, DWORD PTR __real@3e4ccccd
  0009a	f3 0f 2c c0	 cvttss2si eax, xmm0
  0009e	66 0f 6e c8	 movd	 xmm1, eax
  000a2	0f 5b c9	 cvtdq2ps xmm1, xmm1
  000a5	0f 28 c1	 movaps	 xmm0, xmm1
  000a8	f3 0f 59 05 00
	00 00 00	 mulss	 xmm0, DWORD PTR __real@3dcccccd
  000b0	f3 0f 5c c8	 subss	 xmm1, xmm0
  000b4	f3 0f 2c c1	 cvttss2si eax, xmm1
  000b8	50		 push	 eax
  000b9	6a 2b		 push	 43			; 0000002bH
  000bb	e8 00 00 00 00	 call	 ?GetParam@CMover@@QAEHHH@Z ; CMover::GetParam
  000c0	5e		 pop	 esi

; 3171 : }

  000c1	8b e5		 mov	 esp, ebp
  000c3	5d		 pop	 ebp
  000c4	c3		 ret	 0
?GetFPRecovery@CMover@@QAEHXZ ENDP			; CMover::GetFPRecovery
_TEXT	ENDS
; Function compile flags: /Ogtp
; File C:\IAGOS\server\v18\Source\Source\_Common\MoverParam.cpp
; File C:\IAGOS\server\v18\Source\Source\_Common\Mover.h
; File C:\IAGOS\server\v18\Source\Source\_Common\MoverParam.cpp
;	COMDAT ?GetMPRecovery@CMover@@QAEHXZ
_TEXT	SEGMENT
tv184 = -8						; size = 4
_fFactor$1$ = -4					; size = 4
?GetMPRecovery@CMover@@QAEHXZ PROC			; CMover::GetMPRecovery, COMDAT
; _this$ = ecx

; 3141 : {

  00000	55		 push	 ebp
  00001	8b ec		 mov	 ebp, esp
  00003	83 ec 08	 sub	 esp, 8

; 3142 : 	float fFactor = 1.0f;

  00006	f3 0f 10 05 00
	00 00 00	 movss	 xmm0, DWORD PTR __real@3f800000
  0000e	56		 push	 esi
  0000f	57		 push	 edi
  00010	8b f9		 mov	 edi, ecx
  00012	f3 0f 11 45 fc	 movss	 DWORD PTR _fFactor$1$[ebp], xmm0

; 3143 : 	if( IsPlayer() )

  00017	83 bf 30 02 00
	00 00		 cmp	 DWORD PTR [edi+560], 0
  0001e	74 1a		 je	 SHORT $LN2@GetMPRecov

; 3144 : 	{
; 3145 : 		JobProp* pProperty = prj.GetJobProp( GetJob() ); 

  00020	e8 00 00 00 00	 call	 ?GetJob@CMover@@QAEHXZ	; CMover::GetJob
  00025	50		 push	 eax
  00026	b9 00 00 00 00	 mov	 ecx, OFFSET ?prj@@3VCProject@@A ; prj
  0002b	e8 00 00 00 00	 call	 ?GetJobProp@CProject@@QAEPAUJobProp@@H@Z ; CProject::GetJobProp

; 3146 : 		fFactor = pProperty->fFactorMPRecovery;

  00030	f3 0f 10 40 18	 movss	 xmm0, DWORD PTR [eax+24]
  00035	f3 0f 11 45 fc	 movss	 DWORD PTR _fFactor$1$[ebp], xmm0
$LN2@GetMPRecov:
; File C:\IAGOS\server\v18\Source\Source\_Common\Mover.h

; 1133 : 	int				GetLevel() { return m_nLevel; }

  0003a	8b b7 d8 05 00
	00		 mov	 esi, DWORD PTR [edi+1496]
; File C:\IAGOS\server\v18\Source\Source\_Common\MoverParam.cpp

; 3150 : 	int nValue = (int)( ((GetLevel() * 1.5f) + (GetMaxManaPoint() / (500.f * GetLevel())) + (GetInt() * fFactor)) * 0.2f );

  00040	8b cf		 mov	 ecx, edi
  00042	e8 00 00 00 00	 call	 ?GetMaxManaPoint@CMover@@QAEHXZ ; CMover::GetMaxManaPoint
  00047	66 0f 6e c6	 movd	 xmm0, esi
  0004b	8b cf		 mov	 ecx, edi
  0004d	0f 5b c0	 cvtdq2ps xmm0, xmm0
  00050	66 0f 6e c8	 movd	 xmm1, eax
  00054	f3 0f 59 05 00
	00 00 00	 mulss	 xmm0, DWORD PTR __real@43fa0000
  0005c	0f 5b c9	 cvtdq2ps xmm1, xmm1
  0005f	f3 0f 5e c8	 divss	 xmm1, xmm0
  00063	f3 0f 11 4d f8	 movss	 DWORD PTR tv184[ebp], xmm1
  00068	e8 00 00 00 00	 call	 ?GetInt@CMover@@QAEHXZ	; CMover::GetInt
  0006d	66 0f 6e 87 d8
	05 00 00	 movd	 xmm0, DWORD PTR [edi+1496]

; 3151 : #if __VER >= 9 // __RECOVERY10
; 3152 : 	nValue	= (int)( nValue - ( nValue * 0.1f ) ); // Č¸şą·® 10% ÇĎÇâ
; 3153 : #endif //__RECOVERY10
; 3154 : 	return GetParam( DST_MP_RECOVERY, nValue );

  00075	8b cf		 mov	 ecx, edi
  00077	0f 5b c0	 cvtdq2ps xmm0, xmm0
  0007a	66 0f 6e c8	 movd	 xmm1, eax
  0007e	f3 0f 59 05 00
	00 00 00	 mulss	 xmm0, DWORD PTR __real@3fc00000
  00086	0f 5b c9	 cvtdq2ps xmm1, xmm1
  00089	f3 0f 58 45 f8	 addss	 xmm0, DWORD PTR tv184[ebp]
  0008e	f3 0f 59 4d fc	 mulss	 xmm1, DWORD PTR _fFactor$1$[ebp]
  00093	f3 0f 58 c8	 addss	 xmm1, xmm0
  00097	f3 0f 59 0d 00
	00 00 00	 mulss	 xmm1, DWORD PTR __real@3e4ccccd
  0009f	f3 0f 2c c1	 cvttss2si eax, xmm1
  000a3	66 0f 6e c8	 movd	 xmm1, eax
  000a7	0f 5b c9	 cvtdq2ps xmm1, xmm1
  000aa	0f 28 c1	 movaps	 xmm0, xmm1
  000ad	f3 0f 59 05 00
	00 00 00	 mulss	 xmm0, DWORD PTR __real@3dcccccd
  000b5	f3 0f 5c c8	 subss	 xmm1, xmm0
  000b9	f3 0f 2c c1	 cvttss2si eax, xmm1
  000bd	50		 push	 eax
  000be	6a 2a		 push	 42			; 0000002aH
  000c0	e8 00 00 00 00	 call	 ?GetParam@CMover@@QAEHHH@Z ; CMover::GetParam
  000c5	5f		 pop	 edi
  000c6	5e		 pop	 esi

; 3155 : }

  000c7	8b e5		 mov	 esp, ebp
  000c9	5d		 pop	 ebp
  000ca	c3		 ret	 0
?GetMPRecovery@CMover@@QAEHXZ ENDP			; CMover::GetMPRecovery
_TEXT	ENDS
; Function compile flags: /Ogtp
; File C:\IAGOS\server\v18\Source\Source\_Common\MoverParam.cpp
; File C:\IAGOS\server\v18\Source\Source\_Common\Mover.h
; File C:\IAGOS\server\v18\Source\Source\_Common\MoverParam.cpp
;	COMDAT ?GetHPRecovery@CMover@@QAEHXZ
_TEXT	SEGMENT
tv182 = -8						; size = 4
_fFactor$1$ = -4					; size = 4
?GetHPRecovery@CMover@@QAEHXZ PROC			; CMover::GetHPRecovery, COMDAT
; _this$ = ecx

; 3124 : {

  00000	55		 push	 ebp
  00001	8b ec		 mov	 ebp, esp
  00003	83 ec 08	 sub	 esp, 8

; 3125 : 	float fFactor = 1.0f;

  00006	f3 0f 10 05 00
	00 00 00	 movss	 xmm0, DWORD PTR __real@3f800000
  0000e	56		 push	 esi
  0000f	57		 push	 edi
  00010	8b f9		 mov	 edi, ecx
  00012	f3 0f 11 45 fc	 movss	 DWORD PTR _fFactor$1$[ebp], xmm0

; 3126 : 	if( IsPlayer() )

  00017	83 bf 30 02 00
	00 00		 cmp	 DWORD PTR [edi+560], 0
  0001e	74 1a		 je	 SHORT $LN2@GetHPRecov

; 3127 : 	{
; 3128 : 		JobProp* pProperty = prj.GetJobProp( GetJob() ); 

  00020	e8 00 00 00 00	 call	 ?GetJob@CMover@@QAEHXZ	; CMover::GetJob
  00025	50		 push	 eax
  00026	b9 00 00 00 00	 mov	 ecx, OFFSET ?prj@@3VCProject@@A ; prj
  0002b	e8 00 00 00 00	 call	 ?GetJobProp@CProject@@QAEPAUJobProp@@H@Z ; CProject::GetJobProp

; 3129 : 		fFactor = pProperty->fFactorHPRecovery;

  00030	f3 0f 10 40 14	 movss	 xmm0, DWORD PTR [eax+20]
  00035	f3 0f 11 45 fc	 movss	 DWORD PTR _fFactor$1$[ebp], xmm0
$LN2@GetHPRecov:
; File C:\IAGOS\server\v18\Source\Source\_Common\Mover.h

; 1133 : 	int				GetLevel() { return m_nLevel; }

  0003a	8b b7 d8 05 00
	00		 mov	 esi, DWORD PTR [edi+1496]
; File C:\IAGOS\server\v18\Source\Source\_Common\MoverParam.cpp

; 3133 : 	int nValue = (int)( (GetLevel() / 3.0f) + (GetMaxHitPoint() / (500.f * GetLevel())) + (GetSta() * fFactor) );

  00040	8b cf		 mov	 ecx, edi
  00042	e8 00 00 00 00	 call	 ?GetMaxHitPoint@CMover@@QAEHXZ ; CMover::GetMaxHitPoint
  00047	66 0f 6e c6	 movd	 xmm0, esi
  0004b	8b cf		 mov	 ecx, edi
  0004d	0f 5b c0	 cvtdq2ps xmm0, xmm0
  00050	66 0f 6e c8	 movd	 xmm1, eax
  00054	f3 0f 59 05 00
	00 00 00	 mulss	 xmm0, DWORD PTR __real@43fa0000
  0005c	0f 5b c9	 cvtdq2ps xmm1, xmm1
  0005f	f3 0f 5e c8	 divss	 xmm1, xmm0
  00063	f3 0f 11 4d f8	 movss	 DWORD PTR tv182[ebp], xmm1
  00068	e8 00 00 00 00	 call	 ?GetSta@CMover@@QAEHXZ	; CMover::GetSta
  0006d	66 0f 6e 87 d8
	05 00 00	 movd	 xmm0, DWORD PTR [edi+1496]

; 3134 : #if __VER >= 9 // __RECOVERY10
; 3135 : 	nValue	= (int)( nValue - ( nValue * 0.1f ) ); // Č¸şą·® 10% ÇĎÇâ
; 3136 : #endif //__RECOVERY10
; 3137 : 	return GetParam( DST_HP_RECOVERY, nValue );

  00075	8b cf		 mov	 ecx, edi
  00077	0f 5b c0	 cvtdq2ps xmm0, xmm0
  0007a	66 0f 6e c8	 movd	 xmm1, eax
  0007e	f3 0f 5e 05 00
	00 00 00	 divss	 xmm0, DWORD PTR __real@40400000
  00086	0f 5b c9	 cvtdq2ps xmm1, xmm1
  00089	f3 0f 58 45 f8	 addss	 xmm0, DWORD PTR tv182[ebp]
  0008e	f3 0f 59 4d fc	 mulss	 xmm1, DWORD PTR _fFactor$1$[ebp]
  00093	f3 0f 58 c8	 addss	 xmm1, xmm0
  00097	f3 0f 2c c1	 cvttss2si eax, xmm1
  0009b	66 0f 6e c8	 movd	 xmm1, eax
  0009f	0f 5b c9	 cvtdq2ps xmm1, xmm1
  000a2	0f 28 c1	 movaps	 xmm0, xmm1
  000a5	f3 0f 59 05 00
	00 00 00	 mulss	 xmm0, DWORD PTR __real@3dcccccd
  000ad	f3 0f 5c c8	 subss	 xmm1, xmm0
  000b1	f3 0f 2c c1	 cvttss2si eax, xmm1
  000b5	50		 push	 eax
  000b6	6a 29		 push	 41			; 00000029H
  000b8	e8 00 00 00 00	 call	 ?GetParam@CMover@@QAEHHH@Z ; CMover::GetParam
  000bd	5f		 pop	 edi
  000be	5e		 pop	 esi

; 3138 : }

  000bf	8b e5		 mov	 esp, ebp
  000c1	5d		 pop	 ebp
  000c2	c3		 ret	 0
?GetHPRecovery@CMover@@QAEHXZ ENDP			; CMover::GetHPRecovery
_TEXT	ENDS
; Function compile flags: /Ogtp
; File C:\IAGOS\server\v18\Source\Source\_Common\MoverParam.cpp
;	COMDAT ?GetMaxOriginFatiguePoint@CMover@@QAEHH@Z
_TEXT	SEGMENT
_bOriginal$ = 8						; size = 4
?GetMaxOriginFatiguePoint@CMover@@QAEHH@Z PROC		; CMover::GetMaxOriginFatiguePoint, COMDAT
; _this$ = ecx

; 3062 : {

  00000	55		 push	 ebp
  00001	8b ec		 mov	 ebp, esp

; 3063 : 	int nSta, nStr, nDex;
; 3064 : 	if( bOriginal )

  00003	83 7d 08 00	 cmp	 DWORD PTR _bOriginal$[ebp], 0
  00007	53		 push	 ebx
  00008	56		 push	 esi
  00009	57		 push	 edi
  0000a	8b f1		 mov	 esi, ecx
  0000c	74 14		 je	 SHORT $LN2@GetMaxOrig

; 3065 : 	{
; 3066 : 		nSta = m_nSta;

  0000e	8b 9e cc 05 00
	00		 mov	 ebx, DWORD PTR [esi+1484]

; 3067 : 		nStr = m_nStr;

  00014	8b be c8 05 00
	00		 mov	 edi, DWORD PTR [esi+1480]

; 3068 : 		nDex = m_nDex;

  0001a	8b 8e d0 05 00
	00		 mov	 ecx, DWORD PTR [esi+1488]

; 3069 : 	}

  00020	eb 19		 jmp	 SHORT $LN3@GetMaxOrig
$LN2@GetMaxOrig:

; 3070 : 	else
; 3071 : 	{
; 3072 : 		nSta = GetSta();

  00022	e8 00 00 00 00	 call	 ?GetSta@CMover@@QAEHXZ	; CMover::GetSta

; 3073 : 		nStr = GetStr();

  00027	8b ce		 mov	 ecx, esi
  00029	8b d8		 mov	 ebx, eax
  0002b	e8 00 00 00 00	 call	 ?GetStr@CMover@@QAEHXZ	; CMover::GetStr

; 3074 : 		nDex = GetDex();

  00030	8b ce		 mov	 ecx, esi
  00032	8b f8		 mov	 edi, eax
  00034	e8 00 00 00 00	 call	 ?GetDex@CMover@@QAEHXZ	; CMover::GetDex
  00039	8b c8		 mov	 ecx, eax
$LN3@GetMaxOrig:

; 3075 : 	}
; 3076 : 
; 3077 : 	if( IsPlayer() )

  0003b	83 be 30 02 00
	00 00		 cmp	 DWORD PTR [esi+560], 0
  00042	74 50		 je	 SHORT $LN4@GetMaxOrig

; 3078 : 	{
; 3079 : 		// (((BaseLv*2) + (STA*6))*Job°čĽö) +(STA*Job°čĽö) + ¨ç + ¨č
; 3080 : 		JobProp* pProperty = prj.GetJobProp( GetJob() ); 

  00044	8b ce		 mov	 ecx, esi
  00046	e8 00 00 00 00	 call	 ?GetJob@CMover@@QAEHXZ	; CMover::GetJob
  0004b	50		 push	 eax
  0004c	b9 00 00 00 00	 mov	 ecx, OFFSET ?prj@@3VCProject@@A ; prj
  00051	e8 00 00 00 00	 call	 ?GetJobProp@CProject@@QAEPAUJobProp@@H@Z ; CProject::GetJobProp
  00056	66 0f 6e 96 d8
	05 00 00	 movd	 xmm2, DWORD PTR [esi+1496]
  0005e	66 0f 6e cb	 movd	 xmm1, ebx

; 3081 : 		float factor = pProperty->fFactorMaxFP;
; 3082 : 
; 3083 : 		int nMaxFP = (int)( (((m_nLevel*2.0f) + (nSta*6.0f))*factor) +(nSta*factor) );

  00062	0f 5b d2	 cvtdq2ps xmm2, xmm2
  00065	5f		 pop	 edi

; 3088 : }

  00066	5e		 pop	 esi
  00067	5b		 pop	 ebx
  00068	0f 5b c9	 cvtdq2ps xmm1, xmm1
  0006b	f3 0f 58 d2	 addss	 xmm2, xmm2
  0006f	0f 28 c1	 movaps	 xmm0, xmm1
  00072	f3 0f 59 48 0c	 mulss	 xmm1, DWORD PTR [eax+12]
  00077	f3 0f 59 05 00
	00 00 00	 mulss	 xmm0, DWORD PTR __real@40c00000
  0007f	f3 0f 58 d0	 addss	 xmm2, xmm0
  00083	f3 0f 59 50 0c	 mulss	 xmm2, DWORD PTR [eax+12]
  00088	f3 0f 58 d1	 addss	 xmm2, xmm1
  0008c	f3 0f 2c c2	 cvttss2si eax, xmm2
  00090	5d		 pop	 ebp
  00091	c2 04 00	 ret	 4
$LN4@GetMaxOrig:

; 3084 : 		return nMaxFP;
; 3085 : 	}
; 3086 : 	
; 3087 : 	return ( ( m_nLevel * 2 ) + ( nStr * 7 ) + ( nSta *2 ) + ( nDex * 4 ) );

  00094	8b 86 d8 05 00
	00		 mov	 eax, DWORD PTR [esi+1496]
  0009a	8d 0c 48	 lea	 ecx, DWORD PTR [eax+ecx*2]
  0009d	03 cb		 add	 ecx, ebx
  0009f	8d 04 fd 00 00
	00 00		 lea	 eax, DWORD PTR [edi*8]
  000a6	2b c7		 sub	 eax, edi
  000a8	5f		 pop	 edi

; 3088 : }

  000a9	5e		 pop	 esi
  000aa	5b		 pop	 ebx
  000ab	8d 04 48	 lea	 eax, DWORD PTR [eax+ecx*2]
  000ae	5d		 pop	 ebp
  000af	c2 04 00	 ret	 4
?GetMaxOriginFatiguePoint@CMover@@QAEHH@Z ENDP		; CMover::GetMaxOriginFatiguePoint
_TEXT	ENDS
; Function compile flags: /Ogtp
; File C:\IAGOS\server\v18\Source\Source\_Common\MoverParam.cpp
;	COMDAT ?GetMaxOriginManaPoint@CMover@@QAEHH@Z
_TEXT	SEGMENT
_bOriginal$ = 8						; size = 4
?GetMaxOriginManaPoint@CMover@@QAEHH@Z PROC		; CMover::GetMaxOriginManaPoint, COMDAT
; _this$ = ecx

; 3041 : {

  00000	55		 push	 ebp
  00001	8b ec		 mov	 ebp, esp

; 3042 : 	int nInt = 0;
; 3043 : 	if( bOriginal )

  00003	83 7d 08 00	 cmp	 DWORD PTR _bOriginal$[ebp], 0
  00007	56		 push	 esi
  00008	57		 push	 edi
  00009	8b f1		 mov	 esi, ecx
  0000b	74 08		 je	 SHORT $LN2@GetMaxOrig

; 3044 : 		nInt = m_nInt;

  0000d	8b be d4 05 00
	00		 mov	 edi, DWORD PTR [esi+1492]
  00013	eb 07		 jmp	 SHORT $LN3@GetMaxOrig
$LN2@GetMaxOrig:

; 3045 : 	else
; 3046 : 		nInt = GetInt();

  00015	e8 00 00 00 00	 call	 ?GetInt@CMover@@QAEHXZ	; CMover::GetInt
  0001a	8b f8		 mov	 edi, eax
$LN3@GetMaxOrig:

; 3047 : 
; 3048 : 	if( IsPlayer() )

  0001c	83 be 30 02 00
	00 00		 cmp	 DWORD PTR [esi+560], 0
  00023	74 57		 je	 SHORT $LN4@GetMaxOrig

; 3049 : 	{
; 3050 : 		// INT((((BaseLv*2) + (INT*8))*Job°čĽö) + 22)+(INT*Job°čĽö)) +  ¨ç 
; 3051 : 		// ¨ç : ľĆŔĚĹŰżˇŔÇÇŃ Ăß°ˇ »ó˝Â (%´ÜŔ§) TDDO
; 3052 : 		JobProp* pProperty = prj.GetJobProp( GetJob() ); 

  00025	8b ce		 mov	 ecx, esi
  00027	e8 00 00 00 00	 call	 ?GetJob@CMover@@QAEHXZ	; CMover::GetJob
  0002c	50		 push	 eax
  0002d	b9 00 00 00 00	 mov	 ecx, OFFSET ?prj@@3VCProject@@A ; prj
  00032	e8 00 00 00 00	 call	 ?GetJobProp@CProject@@QAEPAUJobProp@@H@Z ; CProject::GetJobProp
  00037	66 0f 6e 96 d8
	05 00 00	 movd	 xmm2, DWORD PTR [esi+1496]

; 3053 : 		float factor = pProperty->fFactorMaxMP;
; 3054 : 		
; 3055 : 		int nMaxMP = (int)( ((((m_nLevel*2.0f) + ( nInt*8.0f))*factor) + 22.0f)+( nInt*factor) );

  0003f	0f 5b d2	 cvtdq2ps xmm2, xmm2
  00042	66 0f 6e cf	 movd	 xmm1, edi
  00046	0f 5b c9	 cvtdq2ps xmm1, xmm1
  00049	5f		 pop	 edi

; 3059 : }

  0004a	5e		 pop	 esi
  0004b	f3 0f 58 d2	 addss	 xmm2, xmm2
  0004f	0f 28 c1	 movaps	 xmm0, xmm1
  00052	f3 0f 59 48 08	 mulss	 xmm1, DWORD PTR [eax+8]
  00057	f3 0f 59 05 00
	00 00 00	 mulss	 xmm0, DWORD PTR __real@41000000
  0005f	f3 0f 58 d0	 addss	 xmm2, xmm0
  00063	f3 0f 59 50 08	 mulss	 xmm2, DWORD PTR [eax+8]
  00068	f3 0f 58 15 00
	00 00 00	 addss	 xmm2, DWORD PTR __real@41b00000
  00070	f3 0f 58 d1	 addss	 xmm2, xmm1
  00074	f3 0f 2c c2	 cvttss2si eax, xmm2
  00078	5d		 pop	 ebp
  00079	c2 04 00	 ret	 4
$LN4@GetMaxOrig:

; 3056 : 		return nMaxMP;
; 3057 : 	}
; 3058 : 	return 	( ( m_nLevel * 2 ) + ( nInt * 8 ) + 22 );

  0007c	8b 86 d8 05 00
	00		 mov	 eax, DWORD PTR [esi+1496]
  00082	8d 04 b8	 lea	 eax, DWORD PTR [eax+edi*4]
  00085	5f		 pop	 edi
  00086	8d 04 45 16 00
	00 00		 lea	 eax, DWORD PTR [eax*2+22]

; 3059 : }

  0008d	5e		 pop	 esi
  0008e	5d		 pop	 ebp
  0008f	c2 04 00	 ret	 4
?GetMaxOriginManaPoint@CMover@@QAEHH@Z ENDP		; CMover::GetMaxOriginManaPoint
_TEXT	ENDS
; Function compile flags: /Ogtp
; File C:\IAGOS\server\v18\Source\Source\_Common\MoverParam.cpp
; File C:\IAGOS\server\v18\Source\Source\_Common\Obj.h
; File C:\IAGOS\server\v18\Source\Source\_Common\MoverParam.cpp
; File C:\IAGOS\server\v18\Source\Source\_Common\Mover.h
; File C:\IAGOS\server\v18\Source\Source\_Common\Project.h
; File C:\IAGOS\server\v18\Source\Source\_Common\MoverParam.cpp
;	COMDAT ?GetMaxOriginHitPoint@CMover@@QAEHH@Z
_TEXT	SEGMENT
_bOriginal$ = 8						; size = 4
?GetMaxOriginHitPoint@CMover@@QAEHH@Z PROC		; CMover::GetMaxOriginHitPoint, COMDAT
; _this$ = ecx

; 3008 : {

  00000	55		 push	 ebp
  00001	8b ec		 mov	 ebp, esp
  00003	56		 push	 esi
  00004	8b f1		 mov	 esi, ecx
; File C:\IAGOS\server\v18\Source\Source\_Common\Obj.h

; 327  : 	return pObj && ( pObj->IsDelete() == FALSE ); 

  00006	85 f6		 test	 esi, esi
  00008	0f 84 1b 01 00
	00		 je	 $LN27@GetMaxOrig

; 180  : 	BOOL			IsDelete()	{ return (m_dwFlags & OBJ_FLAG_DELETE);  }

  0000e	f6 46 04 01	 test	 BYTE PTR [esi+4], 1

; 327  : 	return pObj && ( pObj->IsDelete() == FALSE ); 

  00012	0f 85 11 01 00
	00		 jne	 $LN27@GetMaxOrig
; File C:\IAGOS\server\v18\Source\Source\_Common\MoverParam.cpp

; 3012 : 	if( IsPlayer() )

  00018	83 be 30 02 00
	00 00		 cmp	 DWORD PTR [esi+560], 0
  0001f	0f 84 93 00 00
	00		 je	 $LN3@GetMaxOrig

; 3013 : 	{
; 3014 : 		int nSta;
; 3015 : 		if( bOriginal )

  00025	83 7d 08 00	 cmp	 DWORD PTR _bOriginal$[ebp], 0
  00029	57		 push	 edi
  0002a	74 08		 je	 SHORT $LN5@GetMaxOrig

; 3016 : 			nSta = m_nSta;

  0002c	8b be cc 05 00
	00		 mov	 edi, DWORD PTR [esi+1484]
  00032	eb 07		 jmp	 SHORT $LN6@GetMaxOrig
$LN5@GetMaxOrig:

; 3017 : 		else
; 3018 : 			nSta = GetSta();

  00034	e8 00 00 00 00	 call	 ?GetSta@CMover@@QAEHXZ	; CMover::GetSta
  00039	8b f8		 mov	 edi, eax
$LN6@GetMaxOrig:

; 3019 : 
; 3020 : 		JobProp* pProperty = prj.GetJobProp( GetJob() ); 

  0003b	8b ce		 mov	 ecx, esi
  0003d	e8 00 00 00 00	 call	 ?GetJob@CMover@@QAEHXZ	; CMover::GetJob
  00042	50		 push	 eax
  00043	b9 00 00 00 00	 mov	 ecx, OFFSET ?prj@@3VCProject@@A ; prj
  00048	e8 00 00 00 00	 call	 ?GetJobProp@CProject@@QAEPAUJobProp@@H@Z ; CProject::GetJobProp
  0004d	0f 57 c0	 xorps	 xmm0, xmm0
  00050	0f 57 db	 xorps	 xmm3, xmm3

; 3021 : 
; 3022 : 		float a = (pProperty->fFactorMaxHP*m_nLevel)/2.0f;

  00053	f3 0f 2a 86 d8
	05 00 00	 cvtsi2ss xmm0, DWORD PTR [esi+1496]

; 3023 : 		float b = a * ((m_nLevel+1.0f)/4.0f) * (1.0f + nSta/50.0f) + (nSta*10.0f) ;

  0005b	f3 0f 2a df	 cvtsi2ss xmm3, edi

; 3024 : 		float maxHP = b + 80.f; 
; 3025 : 		return (int)maxHP;

  0005f	5f		 pop	 edi
  00060	5e		 pop	 esi
  00061	0f 28 d0	 movaps	 xmm2, xmm0
  00064	f3 0f 59 50 04	 mulss	 xmm2, DWORD PTR [eax+4]
  00069	f3 0f 58 05 00
	00 00 00	 addss	 xmm0, DWORD PTR __real@3f800000
  00071	f3 0f 59 15 00
	00 00 00	 mulss	 xmm2, DWORD PTR __real@3f000000
  00079	f3 0f 59 05 00
	00 00 00	 mulss	 xmm0, DWORD PTR __real@3e800000
  00081	f3 0f 59 d0	 mulss	 xmm2, xmm0
  00085	0f 28 c3	 movaps	 xmm0, xmm3
  00088	f3 0f 5e 05 00
	00 00 00	 divss	 xmm0, DWORD PTR __real@42480000
  00090	f3 0f 59 1d 00
	00 00 00	 mulss	 xmm3, DWORD PTR __real@41200000
  00098	f3 0f 58 05 00
	00 00 00	 addss	 xmm0, DWORD PTR __real@3f800000
  000a0	f3 0f 59 d0	 mulss	 xmm2, xmm0
  000a4	f3 0f 58 d3	 addss	 xmm2, xmm3
  000a8	f3 0f 58 15 00
	00 00 00	 addss	 xmm2, DWORD PTR __real@42a00000
  000b0	f3 0f 2c c2	 cvttss2si eax, xmm2

; 3032 : #else // __S1108_BACK_END_SYSTEM
; 3033 : 		return pMoverProp->dwAddHp; 
; 3034 : #endif // __S1108_BACK_END_SYSTEM
; 3035 : 	}
; 3036 : 
; 3037 : 	return 0;
; 3038 : }

  000b4	5d		 pop	 ebp
  000b5	c2 04 00	 ret	 4
$LN3@GetMaxOrig:
; File C:\IAGOS\server\v18\Source\Source\_Common\Mover.h

; 1020 : 	MoverProp*		GetProp() { return prj.GetMoverProp( m_dwIndex ); }	// °´ĂĽŔÇ ÇÁ·ÎĆŰĆĽ ľň±â 	

  000b8	8b 86 74 01 00
	00		 mov	 eax, DWORD PTR [esi+372]
; File C:\IAGOS\server\v18\Source\Source\_Common\Project.h

; 1406 : 	VERIFY_RANGE( nIndex, 0, m_nMoverPropSize, "GetMoverProp range_error", NULL );

  000be	8b 0d b4 01 00
	00		 mov	 ecx, DWORD PTR ?prj@@3VCProject@@A+436
  000c4	85 c0		 test	 eax, eax
  000c6	78 12		 js	 SHORT $LN23@GetMaxOrig
  000c8	3b c1		 cmp	 eax, ecx
  000ca	7d 0e		 jge	 SHORT $LN23@GetMaxOrig

; 1407 : 	return m_pPropMover + nIndex;

  000cc	69 c8 90 06 00
	00		 imul	 ecx, eax, 1680
  000d2	03 0d b8 01 00
	00		 add	 ecx, DWORD PTR ?prj@@3VCProject@@A+440
  000d8	eb 18		 jmp	 SHORT $LN18@GetMaxOrig
$LN23@GetMaxOrig:

; 579  : 	LPCTSTR szErr = Error( _T( "%s min:%d, max:%d, index:%d" ), szMsg, nMin, nMax, nIndex ); 

  000da	50		 push	 eax
  000db	51		 push	 ecx
  000dc	6a 00		 push	 0
  000de	68 00 00 00 00	 push	 OFFSET ??_C@_0BJ@GKPOBPPI@GetMoverProp?5range_error@
  000e3	68 00 00 00 00	 push	 OFFSET ??_C@_0BM@HMFGHCP@?$CFs?5min?3?$CFd?0?5max?3?$CFd?0?5index?3?$CFd@
  000e8	e8 00 00 00 00	 call	 ?Error@@YAPBDPBDZZ	; Error
  000ed	83 c4 14	 add	 esp, 20			; 00000014H

; 1406 : 	VERIFY_RANGE( nIndex, 0, m_nMoverPropSize, "GetMoverProp range_error", NULL );

  000f0	33 c9		 xor	 ecx, ecx
$LN18@GetMaxOrig:
; File C:\IAGOS\server\v18\Source\Source\_Common\MoverParam.cpp

; 3031 : 		return int( pMoverProp->dwAddHp * prj.m_fMonsterHitpointRate * pMoverProp->m_fHitPoint_Rate ); 

  000f2	8b 81 e4 00 00
	00		 mov	 eax, DWORD PTR [ecx+228]
  000f8	5e		 pop	 esi
  000f9	66 0f 6e c0	 movd	 xmm0, eax
  000fd	f3 0f e6 c0	 cvtdq2pd xmm0, xmm0
  00101	c1 e8 1f	 shr	 eax, 31			; 0000001fH
  00104	f2 0f 58 04 c5
	00 00 00 00	 addsd	 xmm0, QWORD PTR __xmm@41f00000000000000000000000000000[eax*8]
  0010d	66 0f 5a c0	 cvtpd2ps xmm0, xmm0
  00111	f3 0f 59 05 a8
	4b 0b 00	 mulss	 xmm0, DWORD PTR ?prj@@3VCProject@@A+740264
  00119	f3 0f 59 81 50
	02 00 00	 mulss	 xmm0, DWORD PTR [ecx+592]
  00121	f3 0f 2c c0	 cvttss2si eax, xmm0

; 3032 : #else // __S1108_BACK_END_SYSTEM
; 3033 : 		return pMoverProp->dwAddHp; 
; 3034 : #endif // __S1108_BACK_END_SYSTEM
; 3035 : 	}
; 3036 : 
; 3037 : 	return 0;
; 3038 : }

  00125	5d		 pop	 ebp
  00126	c2 04 00	 ret	 4
$LN27@GetMaxOrig:

; 3009 : 	if( IsInvalidObj(this) )	
; 3010 : 		return 0;

  00129	33 c0		 xor	 eax, eax
  0012b	5e		 pop	 esi

; 3032 : #else // __S1108_BACK_END_SYSTEM
; 3033 : 		return pMoverProp->dwAddHp; 
; 3034 : #endif // __S1108_BACK_END_SYSTEM
; 3035 : 	}
; 3036 : 
; 3037 : 	return 0;
; 3038 : }

  0012c	5d		 pop	 ebp
  0012d	c2 04 00	 ret	 4
?GetMaxOriginHitPoint@CMover@@QAEHH@Z ENDP		; CMover::GetMaxOriginHitPoint
_TEXT	ENDS
; Function compile flags: /Ogtp
; File C:\IAGOS\server\v18\Source\Source\_Common\MoverParam.cpp
;	COMDAT ?GetMaxFatiguePoint@CMover@@QAEHXZ
_TEXT	SEGMENT
?GetMaxFatiguePoint@CMover@@QAEHXZ PROC			; CMover::GetMaxFatiguePoint, COMDAT
; _this$ = ecx

; 2977 : {

  00000	56		 push	 esi
  00001	57		 push	 edi

; 2978 : 	float factor = 1.0f;
; 2979 : 	int nResult = GetParam( DST_FP_MAX, GetMaxOriginFatiguePoint( FALSE ) );

  00002	6a 00		 push	 0
  00004	8b f9		 mov	 edi, ecx
  00006	e8 00 00 00 00	 call	 ?GetMaxOriginFatiguePoint@CMover@@QAEHH@Z ; CMover::GetMaxOriginFatiguePoint
  0000b	50		 push	 eax
  0000c	6a 25		 push	 37			; 00000025H
  0000e	8b cf		 mov	 ecx, edi
  00010	e8 00 00 00 00	 call	 ?GetParam@CMover@@QAEHHH@Z ; CMover::GetParam

; 2980 : 	int nFactor = GetParam( DST_FP_MAX_RATE, 0 );

  00015	6a 00		 push	 0
  00017	6a 36		 push	 54			; 00000036H
  00019	8b cf		 mov	 ecx, edi
  0001b	8b f0		 mov	 esi, eax
  0001d	e8 00 00 00 00	 call	 ?GetParam@CMover@@QAEHHH@Z ; CMover::GetParam
  00022	66 0f 6e c6	 movd	 xmm0, esi

; 2981 : 	
; 2982 : 	factor += (float)nFactor/(float)100;
; 2983 : 	nResult	= (int)( nResult * factor );
; 2984 : 
; 2985 : #ifdef __JEFF_11
; 2986 : 	if( nResult < 1 )

  00026	b9 01 00 00 00	 mov	 ecx, 1
  0002b	0f 5b c0	 cvtdq2ps xmm0, xmm0

; 2987 : 		nResult		= 1;
; 2988 : #endif	// __JEFF_11
; 2989 : 	return nResult; 

  0002e	5f		 pop	 edi
  0002f	5e		 pop	 esi
  00030	66 0f 6e c8	 movd	 xmm1, eax
  00034	0f 5b c9	 cvtdq2ps xmm1, xmm1
  00037	f3 0f 5e 0d 00
	00 00 00	 divss	 xmm1, DWORD PTR __real@42c80000
  0003f	f3 0f 58 0d 00
	00 00 00	 addss	 xmm1, DWORD PTR __real@3f800000
  00047	f3 0f 59 c8	 mulss	 xmm1, xmm0
  0004b	f3 0f 2c c1	 cvttss2si eax, xmm1
  0004f	3b c1		 cmp	 eax, ecx
  00051	0f 4c c1	 cmovl	 eax, ecx

; 2990 : }

  00054	c3		 ret	 0
?GetMaxFatiguePoint@CMover@@QAEHXZ ENDP			; CMover::GetMaxFatiguePoint
_TEXT	ENDS
; Function compile flags: /Ogtp
; File C:\IAGOS\server\v18\Source\Source\_Common\MoverParam.cpp
;	COMDAT ?GetMaxManaPoint@CMover@@QAEHXZ
_TEXT	SEGMENT
?GetMaxManaPoint@CMover@@QAEHXZ PROC			; CMover::GetMaxManaPoint, COMDAT
; _this$ = ecx

; 2960 : {

  00000	56		 push	 esi
  00001	57		 push	 edi

; 2961 : 	float factor = 1.0f;
; 2962 : 	int nResult = GetParam( DST_MP_MAX, GetMaxOriginManaPoint( FALSE ) );

  00002	6a 00		 push	 0
  00004	8b f9		 mov	 edi, ecx
  00006	e8 00 00 00 00	 call	 ?GetMaxOriginManaPoint@CMover@@QAEHH@Z ; CMover::GetMaxOriginManaPoint
  0000b	50		 push	 eax
  0000c	6a 24		 push	 36			; 00000024H
  0000e	8b cf		 mov	 ecx, edi
  00010	e8 00 00 00 00	 call	 ?GetParam@CMover@@QAEHHH@Z ; CMover::GetParam

; 2963 : 	int nFactor = GetParam( DST_MP_MAX_RATE, 0 );

  00015	6a 00		 push	 0
  00017	6a 35		 push	 53			; 00000035H
  00019	8b cf		 mov	 ecx, edi
  0001b	8b f0		 mov	 esi, eax
  0001d	e8 00 00 00 00	 call	 ?GetParam@CMover@@QAEHHH@Z ; CMover::GetParam
  00022	66 0f 6e c6	 movd	 xmm0, esi

; 2964 : 	
; 2965 : 	factor += (float)nFactor/(float)100;
; 2966 : 	nResult	= (int)( nResult * factor );
; 2967 : 
; 2968 : #ifdef __JEFF_11
; 2969 : 	if( nResult < 1 )

  00026	b9 01 00 00 00	 mov	 ecx, 1
  0002b	0f 5b c0	 cvtdq2ps xmm0, xmm0

; 2970 : 		nResult		= 1;
; 2971 : #endif	// __JEFF_11
; 2972 : 	return nResult; 

  0002e	5f		 pop	 edi
  0002f	5e		 pop	 esi
  00030	66 0f 6e c8	 movd	 xmm1, eax
  00034	0f 5b c9	 cvtdq2ps xmm1, xmm1
  00037	f3 0f 5e 0d 00
	00 00 00	 divss	 xmm1, DWORD PTR __real@42c80000
  0003f	f3 0f 58 0d 00
	00 00 00	 addss	 xmm1, DWORD PTR __real@3f800000
  00047	f3 0f 59 c8	 mulss	 xmm1, xmm0
  0004b	f3 0f 2c c1	 cvttss2si eax, xmm1
  0004f	3b c1		 cmp	 eax, ecx
  00051	0f 4c c1	 cmovl	 eax, ecx

; 2973 : }

  00054	c3		 ret	 0
?GetMaxManaPoint@CMover@@QAEHXZ ENDP			; CMover::GetMaxManaPoint
_TEXT	ENDS
; Function compile flags: /Ogtp
; File C:\IAGOS\server\v18\Source\Source\_Common\MoverParam.cpp
; File C:\IAGOS\server\v18\Source\Source\_Common\Obj.h
; File C:\IAGOS\server\v18\Source\Source\_Common\MoverParam.cpp
;	COMDAT ?GetMaxHitPoint@CMover@@QAEHXZ
_TEXT	SEGMENT
?GetMaxHitPoint@CMover@@QAEHXZ PROC			; CMover::GetMaxHitPoint, COMDAT
; _this$ = ecx

; 2940 : {

  00000	57		 push	 edi
  00001	8b f9		 mov	 edi, ecx
; File C:\IAGOS\server\v18\Source\Source\_Common\Obj.h

; 327  : 	return pObj && ( pObj->IsDelete() == FALSE ); 

  00003	85 ff		 test	 edi, edi
  00005	74 58		 je	 SHORT $LN13@GetMaxHitP

; 180  : 	BOOL			IsDelete()	{ return (m_dwFlags & OBJ_FLAG_DELETE);  }

  00007	f6 47 04 01	 test	 BYTE PTR [edi+4], 1

; 327  : 	return pObj && ( pObj->IsDelete() == FALSE ); 

  0000b	75 52		 jne	 SHORT $LN13@GetMaxHitP
; File C:\IAGOS\server\v18\Source\Source\_Common\MoverParam.cpp

; 2945 : 	int nResult = GetParam( DST_HP_MAX, GetMaxOriginHitPoint( FALSE ) );

  0000d	56		 push	 esi
  0000e	6a 00		 push	 0
  00010	e8 00 00 00 00	 call	 ?GetMaxOriginHitPoint@CMover@@QAEHH@Z ; CMover::GetMaxOriginHitPoint
  00015	50		 push	 eax
  00016	6a 23		 push	 35			; 00000023H
  00018	8b cf		 mov	 ecx, edi
  0001a	e8 00 00 00 00	 call	 ?GetParam@CMover@@QAEHHH@Z ; CMover::GetParam

; 2946 : 	int nFactor = GetParam( DST_HP_MAX_RATE, 0 );

  0001f	6a 00		 push	 0
  00021	6a 34		 push	 52			; 00000034H
  00023	8b cf		 mov	 ecx, edi
  00025	8b f0		 mov	 esi, eax
  00027	e8 00 00 00 00	 call	 ?GetParam@CMover@@QAEHHH@Z ; CMover::GetParam
  0002c	66 0f 6e c6	 movd	 xmm0, esi

; 2947 : 
; 2948 : 	factor += (float)nFactor/(float)100;
; 2949 : 	nResult	= (int)( nResult * factor );
; 2950 : 
; 2951 : #ifdef __JEFF_11
; 2952 : 	if( nResult < 1 )

  00030	b9 01 00 00 00	 mov	 ecx, 1
  00035	0f 5b c0	 cvtdq2ps xmm0, xmm0

; 2953 : 		nResult		= 1;
; 2954 : #endif	// __JEFF_11
; 2955 : 	return nResult; 

  00038	5e		 pop	 esi
  00039	5f		 pop	 edi
  0003a	66 0f 6e c8	 movd	 xmm1, eax
  0003e	0f 5b c9	 cvtdq2ps xmm1, xmm1
  00041	f3 0f 5e 0d 00
	00 00 00	 divss	 xmm1, DWORD PTR __real@42c80000
  00049	f3 0f 58 0d 00
	00 00 00	 addss	 xmm1, DWORD PTR __real@3f800000
  00051	f3 0f 59 c8	 mulss	 xmm1, xmm0
  00055	f3 0f 2c c1	 cvttss2si eax, xmm1
  00059	3b c1		 cmp	 eax, ecx
  0005b	0f 4c c1	 cmovl	 eax, ecx

; 2956 : }

  0005e	c3		 ret	 0
$LN13@GetMaxHitP:

; 2941 : 	if( IsInvalidObj(this) )	
; 2942 : 		return 0;

  0005f	33 c0		 xor	 eax, eax
  00061	5f		 pop	 edi

; 2956 : }

  00062	c3		 ret	 0
?GetMaxHitPoint@CMover@@QAEHXZ ENDP			; CMover::GetMaxHitPoint
_TEXT	ENDS
; Function compile flags: /Ogtp
; File C:\IAGOS\server\v18\Source\Source\_Common\MoverParam.cpp
;	COMDAT ?GetFatiguePoint@CMover@@QAEHXZ
_TEXT	SEGMENT
?GetFatiguePoint@CMover@@QAEHXZ PROC			; CMover::GetFatiguePoint, COMDAT
; _this$ = ecx

; 2931 : #ifdef __EVENT1206
; 2932 : 	if(  IsPlayer() && g_eLocal.GetState( EVE_EVENT1206 ) )	// raiders_fix051217
; 2933 : 		return GetMaxFatiguePoint();
; 2934 : #endif	// __EVENT1206
; 2935 : 	return GetParam( DST_FP, m_nFatiguePoint );

  00000	ff b1 00 06 00
	00		 push	 DWORD PTR [ecx+1536]
  00006	6a 28		 push	 40			; 00000028H
  00008	e8 00 00 00 00	 call	 ?GetParam@CMover@@QAEHHH@Z ; CMover::GetParam

; 2936 : }

  0000d	c3		 ret	 0
?GetFatiguePoint@CMover@@QAEHXZ ENDP			; CMover::GetFatiguePoint
_TEXT	ENDS
; Function compile flags: /Ogtp
; File C:\IAGOS\server\v18\Source\Source\_Common\MoverParam.cpp
;	COMDAT ?GetManaPoint@CMover@@QAEHXZ
_TEXT	SEGMENT
?GetManaPoint@CMover@@QAEHXZ PROC			; CMover::GetManaPoint, COMDAT
; _this$ = ecx

; 2922 : #ifdef __EVENT1206
; 2923 : 	if( IsPlayer() && g_eLocal.GetState( EVE_EVENT1206 ) )  // raiders_fix051217
; 2924 : 		return GetMaxManaPoint();
; 2925 : #endif	// __EVENT1206
; 2926 : 	return GetParam( DST_MP, m_nManaPoint );

  00000	ff b1 fc 05 00
	00		 push	 DWORD PTR [ecx+1532]
  00006	6a 27		 push	 39			; 00000027H
  00008	e8 00 00 00 00	 call	 ?GetParam@CMover@@QAEHHH@Z ; CMover::GetParam

; 2927 : }

  0000d	c3		 ret	 0
?GetManaPoint@CMover@@QAEHXZ ENDP			; CMover::GetManaPoint
_TEXT	ENDS
; Function compile flags: /Ogtp
; File C:\IAGOS\server\v18\Source\Source\_Common\MoverParam.cpp
;	COMDAT ?GetHitPoint@CMover@@QAEHXZ
_TEXT	SEGMENT
?GetHitPoint@CMover@@QAEHXZ PROC			; CMover::GetHitPoint, COMDAT
; _this$ = ecx

; 2917 : 	return GetParam( DST_HP, m_nHitPoint );

  00000	ff b1 f8 05 00
	00		 push	 DWORD PTR [ecx+1528]
  00006	6a 26		 push	 38			; 00000026H
  00008	e8 00 00 00 00	 call	 ?GetParam@CMover@@QAEHHH@Z ; CMover::GetParam

; 2918 : }

  0000d	c3		 ret	 0
?GetHitPoint@CMover@@QAEHXZ ENDP			; CMover::GetHitPoint
_TEXT	ENDS
; Function compile flags: /Ogtp
; File C:\IAGOS\server\v18\Source\Source\_Common\MoverParam.cpp
;	COMDAT ?GetFatiguePointPercent@CMover@@QAEHH@Z
_TEXT	SEGMENT
_nPercent$ = 8						; size = 4
?GetFatiguePointPercent@CMover@@QAEHH@Z PROC		; CMover::GetFatiguePointPercent, COMDAT
; _this$ = ecx

; 3105 : {

  00000	55		 push	 ebp
  00001	8b ec		 mov	 ebp, esp
  00003	56		 push	 esi
  00004	8b f1		 mov	 esi, ecx

; 3106 : 	int nMax = GetMaxFatiguePoint();

  00006	e8 00 00 00 00	 call	 ?GetMaxFatiguePoint@CMover@@QAEHXZ ; CMover::GetMaxFatiguePoint

; 3107 : 	if( nMax == 0 ) return 0;

  0000b	85 c0		 test	 eax, eax
  0000d	75 05		 jne	 SHORT $LN2@GetFatigue
  0000f	5e		 pop	 esi

; 3110 : }

  00010	5d		 pop	 ebp
  00011	c2 04 00	 ret	 4
$LN2@GetFatigue:

; 3108 : //	return GetFatiguePoint() * nPercent / GetMaxFatiguePoint();
; 3109 : 	return MulDiv( GetFatiguePoint(),  nPercent, nMax );

  00014	50		 push	 eax
  00015	ff 75 08	 push	 DWORD PTR _nPercent$[ebp]
  00018	8b ce		 mov	 ecx, esi
  0001a	e8 00 00 00 00	 call	 ?GetFatiguePoint@CMover@@QAEHXZ ; CMover::GetFatiguePoint
  0001f	50		 push	 eax
  00020	ff 15 00 00 00
	00		 call	 DWORD PTR __imp__MulDiv@12
  00026	5e		 pop	 esi

; 3110 : }

  00027	5d		 pop	 ebp
  00028	c2 04 00	 ret	 4
?GetFatiguePointPercent@CMover@@QAEHH@Z ENDP		; CMover::GetFatiguePointPercent
_TEXT	ENDS
; Function compile flags: /Ogtp
; File C:\IAGOS\server\v18\Source\Source\_Common\MoverParam.cpp
;	COMDAT ?GetManaPointPercent@CMover@@QAEHH@Z
_TEXT	SEGMENT
_nPercent$ = 8						; size = 4
?GetManaPointPercent@CMover@@QAEHH@Z PROC		; CMover::GetManaPointPercent, COMDAT
; _this$ = ecx

; 3098 : {

  00000	55		 push	 ebp
  00001	8b ec		 mov	 ebp, esp
  00003	56		 push	 esi
  00004	8b f1		 mov	 esi, ecx

; 3099 : 	int nMax = GetMaxManaPoint();

  00006	e8 00 00 00 00	 call	 ?GetMaxManaPoint@CMover@@QAEHXZ ; CMover::GetMaxManaPoint

; 3100 : 	if( nMax == 0 ) return 0;

  0000b	85 c0		 test	 eax, eax
  0000d	75 05		 jne	 SHORT $LN2@GetManaPoi
  0000f	5e		 pop	 esi

; 3103 : }

  00010	5d		 pop	 ebp
  00011	c2 04 00	 ret	 4
$LN2@GetManaPoi:

; 3101 : //	return GetManaPoint() * nPercent / GetMaxManaPoint();
; 3102 : 	return MulDiv( GetManaPoint(), nPercent, nMax );

  00014	50		 push	 eax
  00015	ff 75 08	 push	 DWORD PTR _nPercent$[ebp]
  00018	8b ce		 mov	 ecx, esi
  0001a	e8 00 00 00 00	 call	 ?GetManaPoint@CMover@@QAEHXZ ; CMover::GetManaPoint
  0001f	50		 push	 eax
  00020	ff 15 00 00 00
	00		 call	 DWORD PTR __imp__MulDiv@12
  00026	5e		 pop	 esi

; 3103 : }

  00027	5d		 pop	 ebp
  00028	c2 04 00	 ret	 4
?GetManaPointPercent@CMover@@QAEHH@Z ENDP		; CMover::GetManaPointPercent
_TEXT	ENDS
; Function compile flags: /Ogtp
; File C:\IAGOS\server\v18\Source\Source\_Common\MoverParam.cpp
;	COMDAT ?GetHitPointPercent@CMover@@QAEHH@Z
_TEXT	SEGMENT
_nPercent$ = 8						; size = 4
?GetHitPointPercent@CMover@@QAEHH@Z PROC		; CMover::GetHitPointPercent, COMDAT
; _this$ = ecx

; 3091 : {

  00000	55		 push	 ebp
  00001	8b ec		 mov	 ebp, esp
  00003	56		 push	 esi
  00004	8b f1		 mov	 esi, ecx

; 3092 : 	int nMax = GetMaxHitPoint();

  00006	e8 00 00 00 00	 call	 ?GetMaxHitPoint@CMover@@QAEHXZ ; CMover::GetMaxHitPoint

; 3093 : 	if( nMax == 0 ) return 0;

  0000b	85 c0		 test	 eax, eax
  0000d	75 05		 jne	 SHORT $LN2@GetHitPoin
  0000f	5e		 pop	 esi

; 3096 : }

  00010	5d		 pop	 ebp
  00011	c2 04 00	 ret	 4
$LN2@GetHitPoin:

; 3094 : //	return GetHitPoint() * nPercent / nMax;
; 3095 : 	return MulDiv( GetHitPoint(), nPercent, nMax );

  00014	50		 push	 eax
  00015	ff 75 08	 push	 DWORD PTR _nPercent$[ebp]
  00018	8b ce		 mov	 ecx, esi
  0001a	e8 00 00 00 00	 call	 ?GetHitPoint@CMover@@QAEHXZ ; CMover::GetHitPoint
  0001f	50		 push	 eax
  00020	ff 15 00 00 00
	00		 call	 DWORD PTR __imp__MulDiv@12
  00026	5e		 pop	 esi

; 3096 : }

  00027	5d		 pop	 ebp
  00028	c2 04 00	 ret	 4
?GetHitPointPercent@CMover@@QAEHH@Z ENDP		; CMover::GetHitPointPercent
_TEXT	ENDS
; Function compile flags: /Ogtp
; File C:\IAGOS\server\v18\Source\Source\_Common\MoverParam.cpp
;	COMDAT ?GetSpeed@CMover@@QAEMM@Z
_TEXT	SEGMENT
tv166 = -4						; size = 4
_fSrcSpeed$ = 8						; size = 4
tv169 = 8						; size = 4
tv174 = 8						; size = 4
?GetSpeed@CMover@@QAEMM@Z PROC				; CMover::GetSpeed, COMDAT
; _this$ = ecx

; 3407 : {

  00000	55		 push	 ebp
  00001	8b ec		 mov	 ebp, esp
  00003	51		 push	 ecx

; 3408 : #if __VER >= 9	// __PET_0410
; 3409 : #ifdef __CLIENT
; 3410 : 	if( m_dwAIInterface == AII_EGG && m_pAIInterface )
; 3411 : 	{
; 3412 : 		CAIEgg* pAI	= (CAIEgg*)m_pAIInterface;
; 3413 : 		CMover* pOwner	= prj.GetMover( pAI->GetOwnerId() );
; 3414 : 		if( IsValidObj( pOwner ) )
; 3415 : 			return pOwner->GetSpeed( pOwner->m_pActMover->m_fSpeed );
; 3416 : 	}
; 3417 : #endif	// __CLIENT
; 3418 : #endif	// __PET_0410
; 3419 : 
; 3420 : #if __VER >= 9	//__AI_0509
; 3421 : 	fSrcSpeed	*= GetSpeedFactor();

  00004	f3 0f 10 45 08	 movss	 xmm0, DWORD PTR _fSrcSpeed$[ebp]
  00009	56		 push	 esi
  0000a	8b f1		 mov	 esi, ecx
  0000c	f3 0f 59 86 08
	07 00 00	 mulss	 xmm0, DWORD PTR [esi+1800]
  00014	f3 0f 11 45 08	 movss	 DWORD PTR _fSrcSpeed$[ebp], xmm0

; 3422 : #endif	// __AI_0509
; 3423 : 
; 3424 : 	if( m_fCrrSpd != 0.0f )

  00019	f3 0f 10 86 4c
	02 00 00	 movss	 xmm0, DWORD PTR [esi+588]
  00021	0f 2e 05 00 00
	00 00		 ucomiss xmm0, DWORD PTR __real@00000000
  00028	f3 0f 11 45 fc	 movss	 DWORD PTR tv166[ebp], xmm0
  0002d	9f		 lahf
  0002e	f6 c4 44	 test	 ah, 68			; 00000044H
  00031	7b 0a		 jnp	 SHORT $LN2@GetSpeed

; 3425 : 		return m_fCrrSpd;

  00033	d9 45 fc	 fld	 DWORD PTR tv166[ebp]
  00036	5e		 pop	 esi

; 3450 : }

  00037	8b e5		 mov	 esp, ebp
  00039	5d		 pop	 ebp
  0003a	c2 04 00	 ret	 4
$LN2@GetSpeed:

; 3426 : 	int nChgValue	= GetChgParam( DST_SPEED );

  0003d	6a 0b		 push	 11			; 0000000bH
  0003f	e8 00 00 00 00	 call	 ?GetChgParam@CMover@@QAEHH@Z ; CMover::GetChgParam

; 3427 : //	if( nChgValue != 0x7FFFFFFF )
; 3428 : //		return fSrcSpeed * (nChgValue / 100.0f);		// ex) fSrcSpeed * 0.5f
; 3429 : 
; 3430 : 	// ëĹ
; 3431 : 	if( nChgValue != 0x7FFFFFFF )

  00044	3d ff ff ff 7f	 cmp	 eax, 2147483647		; 7fffffffH
  00049	74 09		 je	 SHORT $LN3@GetSpeed

; 3432 : 		return 0;

  0004b	d9 ee		 fldz
  0004d	5e		 pop	 esi

; 3450 : }

  0004e	8b e5		 mov	 esp, ebp
  00050	5d		 pop	 ebp
  00051	c2 04 00	 ret	 4
$LN3@GetSpeed:

; 3433 : 
; 3434 : 	int nAdjValue	= GetAdjParam( DST_SPEED );

  00054	6a 0b		 push	 11			; 0000000bH
  00056	8b ce		 mov	 ecx, esi
  00058	e8 00 00 00 00	 call	 ?GetAdjParam@CMover@@QAEHH@Z ; CMover::GetAdjParam

; 3435 : 	if( nAdjValue != 0 )

  0005d	85 c0		 test	 eax, eax
  0005f	74 2f		 je	 SHORT $LN4@GetSpeed

; 3436 : 	{
; 3437 : #ifdef __JEFF_11
; 3438 : 		fSrcSpeed = fSrcSpeed + ( fSrcSpeed * (nAdjValue / 100.0f) );

  00061	66 0f 6e c0	 movd	 xmm0, eax
  00065	0f 57 c9	 xorps	 xmm1, xmm1
  00068	0f 5b c0	 cvtdq2ps xmm0, xmm0
  0006b	5e		 pop	 esi
  0006c	f3 0f 5e 05 00
	00 00 00	 divss	 xmm0, DWORD PTR __real@42c80000
  00074	f3 0f 59 45 08	 mulss	 xmm0, DWORD PTR _fSrcSpeed$[ebp]
  00079	f3 0f 58 45 08	 addss	 xmm0, DWORD PTR _fSrcSpeed$[ebp]

; 3439 : 		if( fSrcSpeed < 0.0F )

  0007e	f3 0f 5f c8	 maxss	 xmm1, xmm0

; 3440 : 			fSrcSpeed	= 0.0F;
; 3441 : #endif	// __JEFF_11
; 3442 : 		return fSrcSpeed;

  00082	f3 0f 11 4d 08	 movss	 DWORD PTR tv174[ebp], xmm1
  00087	d9 45 08	 fld	 DWORD PTR tv174[ebp]

; 3450 : }

  0008a	8b e5		 mov	 esp, ebp
  0008c	5d		 pop	 ebp
  0008d	c2 04 00	 ret	 4
$LN4@GetSpeed:
  00090	0f 57 c0	 xorps	 xmm0, xmm0

; 3443 : 	}
; 3444 : #ifdef __JEFF_11
; 3445 : 	if( fSrcSpeed < 0.0F )

  00093	f3 0f 5f 45 08	 maxss	 xmm0, DWORD PTR _fSrcSpeed$[ebp]
  00098	5e		 pop	 esi

; 3446 : 		fSrcSpeed	= 0.0F;
; 3447 : #endif	// __JEFF_11
; 3448 : 
; 3449 : 	return fSrcSpeed;

  00099	f3 0f 11 45 08	 movss	 DWORD PTR tv169[ebp], xmm0
  0009e	d9 45 08	 fld	 DWORD PTR tv169[ebp]

; 3450 : }

  000a1	8b e5		 mov	 esp, ebp
  000a3	5d		 pop	 ebp
  000a4	c2 04 00	 ret	 4
?GetSpeed@CMover@@QAEMM@Z ENDP				; CMover::GetSpeed
_TEXT	ENDS
; Function compile flags: /Ogtp
; File C:\IAGOS\server\v18\Source\Source\_Common\MoverParam.cpp
;	COMDAT ?GetSta@CMover@@QAEHXZ
_TEXT	SEGMENT
?GetSta@CMover@@QAEHXZ PROC				; CMover::GetSta, COMDAT
; _this$ = ecx

; 3385 : {

  00000	56		 push	 esi

; 3386 : 	int nResult = m_nSta + GetParam( DST_STA, 0 );

  00001	6a 00		 push	 0
  00003	6a 04		 push	 4
  00005	8b f1		 mov	 esi, ecx
  00007	e8 00 00 00 00	 call	 ?GetParam@CMover@@QAEHHH@Z ; CMover::GetParam
  0000c	03 86 cc 05 00
	00		 add	 eax, DWORD PTR [esi+1484]

; 3387 : 
; 3388 : #if __VER < 8 // __S8_PK
; 3389 : 	// ˝Ă·Ă¸đµĺŔĚ°í ˝Ă·ĂÁ¦ÇŃ»óĹÂŔĚ¸é ĆäłÎĆĽ Ŕűżë
; 3390 : 	if( IsMode( RECOVERCHAO_MODE ) && IsSMMode(SM_STA_DOWN) )
; 3391 : 	{
; 3392 : 		KarmaProp* pKarmaProp = prj.GetKarmaProp(m_nSlaughter);
; 3393 : 		if( pKarmaProp )
; 3394 : 			nResult -= (int)(nResult * (pKarmaProp->nStatLimitRate / 100.0f));
; 3395 : 	}
; 3396 : #endif // __VER < 8 // __S8_PK
; 3397 : 
; 3398 : #ifdef __JEFF_11
; 3399 : 	if( nResult < 1 )

  00012	b9 01 00 00 00	 mov	 ecx, 1
  00017	3b c1		 cmp	 eax, ecx

; 3400 : 		nResult	= 1;
; 3401 : #endif	// __JEFF_11
; 3402 : 
; 3403 : 	return nResult;

  00019	5e		 pop	 esi
  0001a	0f 4c c1	 cmovl	 eax, ecx

; 3404 : }

  0001d	c3		 ret	 0
?GetSta@CMover@@QAEHXZ ENDP				; CMover::GetSta
_TEXT	ENDS
; Function compile flags: /Ogtp
; File C:\IAGOS\server\v18\Source\Source\_Common\MoverParam.cpp
;	COMDAT ?GetInt@CMover@@QAEHXZ
_TEXT	SEGMENT
?GetInt@CMover@@QAEHXZ PROC				; CMover::GetInt, COMDAT
; _this$ = ecx

; 3364 : {

  00000	56		 push	 esi

; 3365 : 	int nResult = m_nInt + GetParam( DST_INT, 0 );

  00001	6a 00		 push	 0
  00003	6a 03		 push	 3
  00005	8b f1		 mov	 esi, ecx
  00007	e8 00 00 00 00	 call	 ?GetParam@CMover@@QAEHHH@Z ; CMover::GetParam
  0000c	03 86 d4 05 00
	00		 add	 eax, DWORD PTR [esi+1492]

; 3366 : 
; 3367 : #if __VER < 8 // __S8_PK
; 3368 : 	// ˝Ă·Ă¸đµĺŔĚ°í ˝Ă·ĂÁ¦ÇŃ»óĹÂŔĚ¸é ĆäłÎĆĽ Ŕűżë
; 3369 : 	if( IsMode( RECOVERCHAO_MODE ) && IsSMMode(SM_INT_DOWN) )
; 3370 : 	{
; 3371 : 		KarmaProp* pKarmaProp = prj.GetKarmaProp(m_nSlaughter);
; 3372 : 		if( pKarmaProp )
; 3373 : 			nResult -= (int)(nResult * (pKarmaProp->nStatLimitRate / 100.0f));
; 3374 : 	}
; 3375 : #endif // __VER < 8 // __S8_PK
; 3376 : 
; 3377 : #ifdef __JEFF_11
; 3378 : 	if( nResult < 1 )

  00012	b9 01 00 00 00	 mov	 ecx, 1
  00017	3b c1		 cmp	 eax, ecx

; 3379 : 		nResult	= 1;
; 3380 : #endif	// __JEFF_11
; 3381 : 
; 3382 : 	return nResult;

  00019	5e		 pop	 esi
  0001a	0f 4c c1	 cmovl	 eax, ecx

; 3383 : }

  0001d	c3		 ret	 0
?GetInt@CMover@@QAEHXZ ENDP				; CMover::GetInt
_TEXT	ENDS
; Function compile flags: /Ogtp
; File C:\IAGOS\server\v18\Source\Source\_Common\MoverParam.cpp
;	COMDAT ?GetDex@CMover@@QAEHXZ
_TEXT	SEGMENT
?GetDex@CMover@@QAEHXZ PROC				; CMover::GetDex, COMDAT
; _this$ = ecx

; 3343 : {

  00000	56		 push	 esi

; 3344 : 	int nResult = m_nDex + GetParam( DST_DEX, 0 );

  00001	6a 00		 push	 0
  00003	6a 02		 push	 2
  00005	8b f1		 mov	 esi, ecx
  00007	e8 00 00 00 00	 call	 ?GetParam@CMover@@QAEHHH@Z ; CMover::GetParam
  0000c	03 86 d0 05 00
	00		 add	 eax, DWORD PTR [esi+1488]

; 3345 : 
; 3346 : #if __VER < 8 // __S8_PK
; 3347 : 	// ˝Ă·Ă¸đµĺŔĚ°í ˝Ă·ĂÁ¦ÇŃ»óĹÂŔĚ¸é ĆäłÎĆĽ Ŕűżë
; 3348 : 	if( IsMode( RECOVERCHAO_MODE ) && IsSMMode(SM_DEX_DOWN) )
; 3349 : 	{
; 3350 : 		KarmaProp* pKarmaProp = prj.GetKarmaProp(m_nSlaughter);
; 3351 : 		if( pKarmaProp )
; 3352 : 			nResult -= (int)(nResult * (pKarmaProp->nStatLimitRate / 100.0f));
; 3353 : 	}
; 3354 : #endif // __VER < 8 // __S8_PK
; 3355 : 
; 3356 : #ifdef __JEFF_11
; 3357 : 	if( nResult < 1 )

  00012	b9 01 00 00 00	 mov	 ecx, 1
  00017	3b c1		 cmp	 eax, ecx

; 3358 : 		nResult	= 1;
; 3359 : #endif	// __JEFF_11
; 3360 : 
; 3361 : 	return nResult;

  00019	5e		 pop	 esi
  0001a	0f 4c c1	 cmovl	 eax, ecx

; 3362 : }

  0001d	c3		 ret	 0
?GetDex@CMover@@QAEHXZ ENDP				; CMover::GetDex
_TEXT	ENDS
; Function compile flags: /Ogtp
; File C:\IAGOS\server\v18\Source\Source\_Common\MoverParam.cpp
;	COMDAT ?GetStr@CMover@@QAEHXZ
_TEXT	SEGMENT
?GetStr@CMover@@QAEHXZ PROC				; CMover::GetStr, COMDAT
; _this$ = ecx

; 3322 : {

  00000	56		 push	 esi

; 3323 : 	int nResult = m_nStr + GetParam( DST_STR, 0 );

  00001	6a 00		 push	 0
  00003	6a 01		 push	 1
  00005	8b f1		 mov	 esi, ecx
  00007	e8 00 00 00 00	 call	 ?GetParam@CMover@@QAEHHH@Z ; CMover::GetParam
  0000c	03 86 c8 05 00
	00		 add	 eax, DWORD PTR [esi+1480]

; 3324 : 
; 3325 : #if __VER < 8 // __S8_PK
; 3326 : 	// ˝Ă·Ă¸đµĺŔĚ°í ˝Ă·ĂÁ¦ÇŃ»óĹÂŔĚ¸é ĆäłÎĆĽ Ŕűżë
; 3327 : 	if( IsMode( RECOVERCHAO_MODE ) && IsSMMode(SM_STR_DOWN) )
; 3328 : 	{
; 3329 : 		KarmaProp* pKarmaProp = prj.GetKarmaProp(m_nSlaughter);
; 3330 : 		if( pKarmaProp )
; 3331 : 			nResult -= (int)(nResult * (pKarmaProp->nStatLimitRate / 100.0f));
; 3332 : 	}
; 3333 : #endif // __VER < 8 // __S8_PK
; 3334 : 
; 3335 : #ifdef __JEFF_11
; 3336 : 	if( nResult < 1 )

  00012	b9 01 00 00 00	 mov	 ecx, 1
  00017	3b c1		 cmp	 eax, ecx

; 3337 : 		nResult	= 1;
; 3338 : #endif	// __JEFF_11
; 3339 : 
; 3340 : 	return nResult;

  00019	5e		 pop	 esi
  0001a	0f 4c c1	 cmovl	 eax, ecx

; 3341 : }

  0001d	c3		 ret	 0
?GetStr@CMover@@QAEHXZ ENDP				; CMover::GetStr
_TEXT	ENDS
; Function compile flags: /Ogtp
; File C:\IAGOS\server\v18\Source\Source\_Common\MoverParam.cpp
;	COMDAT ?IncIntLevel@CMover@@QAEHXZ
_TEXT	SEGMENT
?IncIntLevel@CMover@@QAEHXZ PROC			; CMover::IncIntLevel, COMDAT
; _this$ = ecx

; 1080 : #ifdef __S_ADD_RESTATE
; 1081 : 	if( m_nRemainGP > 0 )

  00000	8b 81 04 06 00
	00		 mov	 eax, DWORD PTR [ecx+1540]
  00006	85 c0		 test	 eax, eax
  00008	7e 13		 jle	 SHORT $LN2@IncIntLeve

; 1082 : 	{
; 1083 : 		m_nInt += 1;

  0000a	ff 81 d4 05 00
	00		 inc	 DWORD PTR [ecx+1492]

; 1084 : 		m_nRemainGP -= 1;

  00010	48		 dec	 eax
  00011	89 81 04 06 00
	00		 mov	 DWORD PTR [ecx+1540], eax

; 1085 : 		return TRUE;

  00017	b8 01 00 00 00	 mov	 eax, 1

; 1101 : }

  0001c	c3		 ret	 0
$LN2@IncIntLeve:

; 1086 : 	}
; 1087 : #else // __S_ADD_RESTATE
; 1088 : 	LPJOBABILITY pJobAbillity;
; 1089 : 	if( IsExpert() )
; 1090 : 		pJobAbillity = &prj.m_aJobAbillity[ GetJob() ];
; 1091 : 	else
; 1092 : 		pJobAbillity = &prj.m_aJobAbillity[ JOB_VAGRANT ];
; 1093 : 	if( (int)m_nRemainGP >= (int)pJobAbillity->dwInt )
; 1094 : 	{
; 1095 : 		m_nInt += pJobAbillity->dwIntAdd;
; 1096 : 		m_nRemainGP -= pJobAbillity->dwInt;
; 1097 : 		return TRUE;
; 1098 : 	}
; 1099 : #endif // __S_ADD_RESTATE
; 1100 : 	return FALSE;

  0001d	33 c0		 xor	 eax, eax

; 1101 : }

  0001f	c3		 ret	 0
?IncIntLevel@CMover@@QAEHXZ ENDP			; CMover::IncIntLevel
_TEXT	ENDS
; Function compile flags: /Ogtp
; File C:\IAGOS\server\v18\Source\Source\_Common\MoverParam.cpp
;	COMDAT ?IncDexLevel@CMover@@QAEHXZ
_TEXT	SEGMENT
?IncDexLevel@CMover@@QAEHXZ PROC			; CMover::IncDexLevel, COMDAT
; _this$ = ecx

; 1056 : #ifdef __S_ADD_RESTATE
; 1057 : 	if( m_nRemainGP > 0 )

  00000	8b 81 04 06 00
	00		 mov	 eax, DWORD PTR [ecx+1540]
  00006	85 c0		 test	 eax, eax
  00008	7e 13		 jle	 SHORT $LN2@IncDexLeve

; 1058 : 	{
; 1059 : 		m_nDex += 1;

  0000a	ff 81 d0 05 00
	00		 inc	 DWORD PTR [ecx+1488]

; 1060 : 		m_nRemainGP -= 1;

  00010	48		 dec	 eax
  00011	89 81 04 06 00
	00		 mov	 DWORD PTR [ecx+1540], eax

; 1061 : 		return TRUE;

  00017	b8 01 00 00 00	 mov	 eax, 1

; 1077 : }

  0001c	c3		 ret	 0
$LN2@IncDexLeve:

; 1062 : 	}
; 1063 : #else // __S_ADD_RESTATE
; 1064 : 	LPJOBABILITY pJobAbillity;
; 1065 : 	if( IsExpert() )
; 1066 : 		pJobAbillity = &prj.m_aJobAbillity[ GetJob() ];
; 1067 : 	else
; 1068 : 		pJobAbillity = &prj.m_aJobAbillity[ JOB_VAGRANT ];
; 1069 : 	if( (int)m_nRemainGP >= (int)pJobAbillity->dwDex )
; 1070 : 	{
; 1071 : 		m_nDex += pJobAbillity->dwDexAdd;
; 1072 : 		m_nRemainGP -= pJobAbillity->dwDex;
; 1073 : 		return TRUE;
; 1074 : 	}
; 1075 : #endif // __S_ADD_RESTATE
; 1076 : 	return FALSE;

  0001d	33 c0		 xor	 eax, eax

; 1077 : }

  0001f	c3		 ret	 0
?IncDexLevel@CMover@@QAEHXZ ENDP			; CMover::IncDexLevel
_TEXT	ENDS
; Function compile flags: /Ogtp
; File C:\IAGOS\server\v18\Source\Source\_Common\MoverParam.cpp
;	COMDAT ?IncStaLevel@CMover@@QAEHXZ
_TEXT	SEGMENT
?IncStaLevel@CMover@@QAEHXZ PROC			; CMover::IncStaLevel, COMDAT
; _this$ = ecx

; 1032 : #ifdef __S_ADD_RESTATE
; 1033 : 	if( m_nRemainGP > 0 )

  00000	8b 81 04 06 00
	00		 mov	 eax, DWORD PTR [ecx+1540]
  00006	85 c0		 test	 eax, eax
  00008	7e 13		 jle	 SHORT $LN2@IncStaLeve

; 1034 : 	{
; 1035 : 		m_nSta += 1;

  0000a	ff 81 cc 05 00
	00		 inc	 DWORD PTR [ecx+1484]

; 1036 : 		m_nRemainGP -= 1;

  00010	48		 dec	 eax
  00011	89 81 04 06 00
	00		 mov	 DWORD PTR [ecx+1540], eax

; 1037 : 		return TRUE;

  00017	b8 01 00 00 00	 mov	 eax, 1

; 1053 : }

  0001c	c3		 ret	 0
$LN2@IncStaLeve:

; 1038 : 	}
; 1039 : #else // __S_ADD_RESTATE
; 1040 : 	LPJOBABILITY pJobAbillity;
; 1041 : 	if( IsExpert() )
; 1042 : 		pJobAbillity = &prj.m_aJobAbillity[ GetJob() ];
; 1043 : 	else
; 1044 : 		pJobAbillity = &prj.m_aJobAbillity[ JOB_VAGRANT ];
; 1045 : 	if( (int)m_nRemainGP >= (int)pJobAbillity->dwSta )
; 1046 : 	{
; 1047 : 		m_nSta += pJobAbillity->dwStaAdd;
; 1048 : 		m_nRemainGP -= pJobAbillity->dwSta;
; 1049 : 		return TRUE;
; 1050 : 	}
; 1051 : #endif // __S_ADD_RESTATE
; 1052 : 	return FALSE;

  0001d	33 c0		 xor	 eax, eax

; 1053 : }

  0001f	c3		 ret	 0
?IncStaLevel@CMover@@QAEHXZ ENDP			; CMover::IncStaLevel
_TEXT	ENDS
; Function compile flags: /Ogtp
; File C:\IAGOS\server\v18\Source\Source\_Common\MoverParam.cpp
;	COMDAT ?IncStrLevel@CMover@@QAEHXZ
_TEXT	SEGMENT
?IncStrLevel@CMover@@QAEHXZ PROC			; CMover::IncStrLevel, COMDAT
; _this$ = ecx

; 1008 : #ifdef __S_ADD_RESTATE
; 1009 : 	if( m_nRemainGP > 0 )

  00000	8b 81 04 06 00
	00		 mov	 eax, DWORD PTR [ecx+1540]
  00006	85 c0		 test	 eax, eax
  00008	7e 13		 jle	 SHORT $LN2@IncStrLeve

; 1010 : 	{
; 1011 : 		m_nStr += 1;

  0000a	ff 81 c8 05 00
	00		 inc	 DWORD PTR [ecx+1480]

; 1012 : 		m_nRemainGP -= 1;

  00010	48		 dec	 eax
  00011	89 81 04 06 00
	00		 mov	 DWORD PTR [ecx+1540], eax

; 1013 : 		return TRUE;

  00017	b8 01 00 00 00	 mov	 eax, 1

; 1029 : }

  0001c	c3		 ret	 0
$LN2@IncStrLeve:

; 1014 : 	}
; 1015 : #else // __S_ADD_RESTATE
; 1016 : 	LPJOBABILITY pJobAbillity;
; 1017 : 	if( IsExpert() )
; 1018 : 		pJobAbillity = &prj.m_aJobAbillity[ GetJob() ];
; 1019 : 	else
; 1020 : 		pJobAbillity = &prj.m_aJobAbillity[ JOB_VAGRANT ];
; 1021 : 	if( (int)m_nRemainGP >= (int)pJobAbillity->dwStr )		// ŔĚşÎşĐ (int)·Î Äł˝şĆ® ÇŘÁÖÁö ľĘŔ¸¸é ÄÄĆÄŔĎ·Ż ąö±× ł­´Ů.
; 1022 : 	{
; 1023 : 		m_nStr += pJobAbillity->dwStrAdd;
; 1024 : 		m_nRemainGP -= pJobAbillity->dwStr;
; 1025 : 		return TRUE;
; 1026 : 	}
; 1027 : #endif // __S_ADD_RESTATE
; 1028 : 	return FALSE;

  0001d	33 c0		 xor	 eax, eax

; 1029 : }

  0001f	c3		 ret	 0
?IncStrLevel@CMover@@QAEHXZ ENDP			; CMover::IncStrLevel
_TEXT	ENDS
; Function compile flags: /Ogtp
; File C:\IAGOS\server\v18\Source\Source\_Common\MoverParam.cpp
; File C:\IAGOS\server\v18\Source\Source\_Common\Mover.h
; File C:\IAGOS\server\v18\Source\Source\_Common\MoverParam.cpp
; File C:\IAGOS\server\v18\Source\Source\_Common\Mover.h
; File C:\IAGOS\server\v18\Source\Source\_Common\MoverParam.cpp
;	COMDAT ?SetFxp@CMover@@QAEHHH@Z
_TEXT	SEGMENT
_nFxp$ = 8						; size = 4
_nFlightLv$ = 12					; size = 4
?SetFxp@CMover@@QAEHHH@Z PROC				; CMover::SetFxp, COMDAT
; _this$ = ecx

; 1823 : {

  00000	55		 push	 ebp
  00001	8b ec		 mov	 ebp, esp

; 1824 : 	m_nFxp = nFxp;

  00003	8b 45 08	 mov	 eax, DWORD PTR _nFxp$[ebp]
; File C:\IAGOS\server\v18\Source\Source\_Common\Mover.h

; 549  : 	LONG	GetFlightLv( void )	{	return ( GetLevel() >= 20? 1: 0 );		}

  00006	33 d2		 xor	 edx, edx
  00008	83 b9 d8 05 00
	00 14		 cmp	 DWORD PTR [ecx+1496], 20 ; 00000014H
; File C:\IAGOS\server\v18\Source\Source\_Common\MoverParam.cpp

; 1824 : 	m_nFxp = nFxp;

  0000f	89 81 f4 05 00
	00		 mov	 DWORD PTR [ecx+1524], eax
; File C:\IAGOS\server\v18\Source\Source\_Common\Mover.h

; 549  : 	LONG	GetFlightLv( void )	{	return ( GetLevel() >= 20? 1: 0 );		}

  00015	0f 9d c2	 setge	 dl
; File C:\IAGOS\server\v18\Source\Source\_Common\MoverParam.cpp

; 1827 : 	if( nFlightLv > GetFlightLv() )

  00018	33 c0		 xor	 eax, eax
  0001a	39 55 0c	 cmp	 DWORD PTR _nFlightLv$[ebp], edx
  0001d	0f 9f c0	 setg	 al

; 1828 : 	{
; 1829 : 		SetFlightLv( nFlightLv );
; 1830 : #ifdef __CLIENT
; 1831 : 		CreateSfx(g_Neuz.m_pd3dDevice,XI_GEN_LEVEL_UP01,GetPos(),GetId());
; 1832 : 		PlayMusic( BGM_IN_LEVELUP );
; 1833 : 		g_WndMng.PutString( prj.GetText( TID_GAME_FLYLVLUP ), NULL, prj.GetTextColor( TID_GAME_FLYLVLUP ) );
; 1834 : #endif // CLIENT
; 1835 : 		return TRUE;
; 1836 : 	}
; 1837 : 
; 1838 : 	return FALSE;
; 1839 : }

  00020	5d		 pop	 ebp
  00021	c2 08 00	 ret	 8
?SetFxp@CMover@@QAEHHH@Z ENDP				; CMover::SetFxp
_TEXT	ENDS
; Function compile flags: /Ogtp
; File C:\IAGOS\server\v18\Source\Source\_Common\MoverParam.cpp
; File C:\IAGOS\server\v18\Source\Source\_Common\Mover.h
; File C:\IAGOS\server\v18\Source\Source\_Common\MoverParam.cpp
;	COMDAT ?AddFxp@CMover@@QAEHH@Z
_TEXT	SEGMENT
_nFxp$ = 8						; size = 4
?AddFxp@CMover@@QAEHH@Z PROC				; CMover::AddFxp, COMDAT
; _this$ = ecx

; 1690 : {

  00000	55		 push	 ebp
  00001	8b ec		 mov	 ebp, esp

; 1691 : 	if( nFxp <= 0 )		// nExp°ˇ ¸¶ŔĚłĘ˝şŔĚ°ĹłŞ 0ŔĚ¸é Ăł¸®ÇŇÇĘżä ľřŔ˝.

  00003	8b 55 08	 mov	 edx, DWORD PTR _nFxp$[ebp]
  00006	85 d2		 test	 edx, edx
  00008	7e 49		 jle	 SHORT $LN5@AddFxp

; 1692 : 		return FALSE;
; 1693 : 
; 1694 : 	if( m_nHitPoint <= 0 )		// Á×°íłŞĽ± °ćÇčÄˇ Čąµć ¸řÇÔ.

  0000a	83 b9 f8 05 00
	00 00		 cmp	 DWORD PTR [ecx+1528], 0
  00011	7e 40		 jle	 SHORT $LN5@AddFxp
; File C:\IAGOS\server\v18\Source\Source\_Common\Mover.h

; 549  : 	LONG	GetFlightLv( void )	{	return ( GetLevel() >= 20? 1: 0 );		}

  00013	83 b9 d8 05 00
	00 14		 cmp	 DWORD PTR [ecx+1496], 20 ; 00000014H
; File C:\IAGOS\server\v18\Source\Source\_Common\MoverParam.cpp

; 1697 : 	if( GetFlightLv() == 0 )

  0001a	7c 37		 jl	 SHORT $LN5@AddFxp

; 1698 : 		return FALSE;
; 1699 : 
; 1700 : 	int nNextLevel = GetFlightLv() + 1;
; 1701 : 
; 1702 : 	m_nFxp += nFxp;		// ŔĎ´Ü °ćÇčÄˇ¸¦ ´őÇĎ°í.

  0001c	8b 81 f4 05 00
	00		 mov	 eax, DWORD PTR [ecx+1524]
  00022	03 c2		 add	 eax, edx
  00024	89 81 f4 05 00
	00		 mov	 DWORD PTR [ecx+1524], eax

; 1703 : 	if( (DWORD)( m_nFxp ) >= prj.m_aFxpCharacter[nNextLevel].dwFxp ) // ·ąş§ľ÷ŔĚ µÇľú´ÂÁö Č®ŔÎ.

  0002a	8b 15 e0 68 00
	00		 mov	 edx, DWORD PTR ?prj@@3VCProject@@A+26848
  00030	3b c2		 cmp	 eax, edx
  00032	72 1f		 jb	 SHORT $LN5@AddFxp

; 1704 : 	{
; 1705 : 		int		FxpBuf;
; 1706 : 		FxpBuf = m_nFxp - prj.m_aFxpCharacter[ nNextLevel ].dwFxp;		// ·ąş§ľ÷ÇĎ°íµµ ľó¸¶łŞ ´ő żŔąöµĆ´ÂÁö?

  00034	2b c2		 sub	 eax, edx

; 1707 : 		m_nFxp = 0;

  00036	c7 81 f4 05 00
	00 00 00 00 00	 mov	 DWORD PTR [ecx+1524], 0

; 1708 : 		SetFlightLv( nNextLevel );	// ·ąş§ Áő°ˇ.
; 1709 : 		
; 1710 : #ifdef __CLIENT
; 1711 : 		// ·ąş§ľ÷˝Ă ŔĚĆĺĆ®
; 1712 : 		CreateSfx(g_Neuz.m_pd3dDevice,XI_GEN_LEVEL_UP01,GetPos(),GetId());
; 1713 : 		PlayMusic( BGM_IN_LEVELUP );
; 1714 : #endif	// __CLIENT
; 1715 : 	
; 1716 : 		// żŔąŮµČ °ćÇčÄˇ´Â ÇŃąř´ő µą·ÁĽ­ ´őÇŘÁÜ.
; 1717 : 		if( FxpBuf > 0)

  00040	85 c0		 test	 eax, eax
  00042	7e 06		 jle	 SHORT $LN6@AddFxp

; 1718 : 		{
; 1719 : 			AddFxp( FxpBuf );

  00044	50		 push	 eax
  00045	e8 00 00 00 00	 call	 ?AddFxp@CMover@@QAEHH@Z	; CMover::AddFxp
$LN6@AddFxp:

; 1720 : 		}
; 1721 : 
; 1722 : 		return TRUE;

  0004a	b8 01 00 00 00	 mov	 eax, 1

; 1725 : }

  0004f	5d		 pop	 ebp
  00050	c2 04 00	 ret	 4
$LN5@AddFxp:

; 1723 : 	}
; 1724 : 	return FALSE;

  00053	33 c0		 xor	 eax, eax

; 1725 : }

  00055	5d		 pop	 ebp
  00056	c2 04 00	 ret	 4
?AddFxp@CMover@@QAEHH@Z ENDP				; CMover::AddFxp
_TEXT	ENDS
; Function compile flags: /Ogtp
; File C:\IAGOS\server\v18\Source\Source\_Common\MoverParam.cpp
;	COMDAT ?DecExperiencePercent@CMover@@QAEHMHH@Z
_TEXT	SEGMENT
tv74 = -32						; size = 8
_nMaxExp$2$ = -24					; size = 4
_nMaxExp$1$ = -20					; size = 4
_nDecExp$2$ = -16					; size = 4
_fOldPercent$1$ = -12					; size = 8
_nExpOld$1$ = -8					; size = 4
_nExpOld$2$ = -4					; size = 4
_fPercent$ = 8						; size = 4
_bExp2Clear$ = 12					; size = 4
_bLvDown$ = 16						; size = 4
_bLvDown$1$ = 16					; size = 4
?DecExperiencePercent@CMover@@QAEHMHH@Z PROC		; CMover::DecExperiencePercent, COMDAT
; _this$ = ecx

; 1653 : {

  00000	55		 push	 ebp
  00001	8b ec		 mov	 ebp, esp
  00003	83 ec 20	 sub	 esp, 32			; 00000020H

; 1654 : 	EXPINTEGER	nExpOld		= m_nExp1;		// ±đŔĚ±âŔü exp
; 1655 : 	EXPINTEGER	nMaxExp		= prj.m_aExpCharacter[m_nLevel+1].nExp1;	// ±đŔĚ±âŔü °ćÇčÄˇÄˇ ¸Ć˝ş·®.
; 1656 : 	int	nOldLv	= m_nLevel;		// ±đŔĚ±âŔü ·ąş§.
; 1657 : 
; 1658 : 	if( fPercent == 0.0f )	

  00006	f3 0f 10 45 08	 movss	 xmm0, DWORD PTR _fPercent$[ebp]
  0000b	53		 push	 ebx
  0000c	56		 push	 esi
  0000d	8b f1		 mov	 esi, ecx
  0000f	8b 86 e0 05 00
	00		 mov	 eax, DWORD PTR [esi+1504]
  00015	8b 9e d8 05 00
	00		 mov	 ebx, DWORD PTR [esi+1496]
  0001b	89 45 f8	 mov	 DWORD PTR _nExpOld$1$[ebp], eax
  0001e	8b 86 e4 05 00
	00		 mov	 eax, DWORD PTR [esi+1508]
  00024	89 45 fc	 mov	 DWORD PTR _nExpOld$2$[ebp], eax
  00027	8b c3		 mov	 eax, ebx
  00029	c1 e0 05	 shl	 eax, 5
  0002c	0f 2e 05 00 00
	00 00		 ucomiss xmm0, DWORD PTR __real@00000000
  00033	8b 88 f0 4f 00
	00		 mov	 ecx, DWORD PTR ?prj@@3VCProject@@A[eax+20464]
  00039	8b 90 f4 4f 00
	00		 mov	 edx, DWORD PTR ?prj@@3VCProject@@A[eax+20468]
  0003f	89 4d e8	 mov	 DWORD PTR _nMaxExp$2$[ebp], ecx
  00042	89 55 ec	 mov	 DWORD PTR _nMaxExp$1$[ebp], edx
  00045	9f		 lahf
  00046	f6 c4 44	 test	 ah, 68			; 00000044H
  00049	7a 0a		 jp	 SHORT $LN2@DecExperie

; 1659 : 		return FALSE;	// 0%¸¦ ±đ´Â »óČ˛ŔĚ¸é °č»ęÇŇ ÇĘżä ľř´Ů.

  0004b	5e		 pop	 esi
  0004c	33 c0		 xor	 eax, eax

; 1686 : }

  0004e	5b		 pop	 ebx
  0004f	8b e5		 mov	 esp, ebp
  00051	5d		 pop	 ebp
  00052	c2 0c 00	 ret	 12			; 0000000cH
$LN2@DecExperie:
  00055	57		 push	 edi

; 1660 : 
; 1661 : 	EXPINTEGER	nDecExp = (EXPINTEGER)(prj.m_aExpCharacter[m_nLevel+1].nExp1 * fPercent );	// ÇöŔç·ąş§ŔÇ ĂÖ´ë°ćÇčÄˇ * ĆŰĽľĆ®

  00056	e8 00 00 00 00	 call	 __ltof3
  0005b	f3 0f 59 45 08	 mulss	 xmm0, DWORD PTR _fPercent$[ebp]
  00060	e8 00 00 00 00	 call	 __ftol3

; 1662 : 	bLvDown		= DecExperience( nDecExp, bExp2Clear, bLvDown );

  00065	ff 75 10	 push	 DWORD PTR _bLvDown$[ebp]
  00068	8b f8		 mov	 edi, eax
  0006a	8b ce		 mov	 ecx, esi
  0006c	ff 75 0c	 push	 DWORD PTR _bExp2Clear$[ebp]
  0006f	8b c2		 mov	 eax, edx
  00071	50		 push	 eax
  00072	57		 push	 edi
  00073	89 45 f0	 mov	 DWORD PTR _nDecExp$2$[ebp], eax
  00076	e8 00 00 00 00	 call	 ?DecExperience@CMover@@QAEH_JHH@Z ; CMover::DecExperience
  0007b	89 45 10	 mov	 DWORD PTR _bLvDown$1$[ebp], eax

; 1663 : 
; 1664 : 	if( bLvDown )	// ˝ÇÁ¦·Î ·ąş§ŔĚ ´ŮżîµÇľúŔ»¶§.

  0007e	85 c0		 test	 eax, eax
  00080	0f 84 c2 00 00
	00		 je	 $LN3@DecExperie

; 1665 : 	{
; 1666 : 		if( m_nLevel - nOldLv < -1 )	// ·ąş§ŔĚ µÎ´Ü°č ŔĚ»ó ´ŮżîµÇ´Â ŔĎŔş ľřľîľß ÇŃ´Ů.

  00086	8b 96 d8 05 00
	00		 mov	 edx, DWORD PTR [esi+1496]
  0008c	8d 86 ec 14 00
	00		 lea	 eax, DWORD PTR [esi+5356]
  00092	f3 0f 10 45 08	 movss	 xmm0, DWORD PTR _fPercent$[ebp]
  00097	8b ca		 mov	 ecx, edx
  00099	2b cb		 sub	 ecx, ebx
  0009b	0f 5a c0	 cvtps2pd xmm0, xmm0
  0009e	83 f9 ff	 cmp	 ecx, -1
  000a1	7d 24		 jge	 SHORT $LN5@DecExperie

; 1667 : 			Error( "CMover::DecExperiencePercent : %s ·ąş§´Ůżî ŔĚ»ó. %d -> %d  %I64d(%f)"

  000a3	83 ec 08	 sub	 esp, 8
  000a6	f2 0f 11 04 24	 movsd	 QWORD PTR [esp], xmm0
  000ab	ff 75 f0	 push	 DWORD PTR _nDecExp$2$[ebp]
  000ae	57		 push	 edi
  000af	52		 push	 edx
  000b0	53		 push	 ebx
  000b1	50		 push	 eax
  000b2	68 00 00 00 00	 push	 OFFSET ??_C@_0EF@ODCCKCNB@CMover?3?3DecExperiencePercent?5?3?5@
  000b7	e8 00 00 00 00	 call	 ?Error@@YAPBDPBDZZ	; Error
  000bc	f3 0f 10 45 08	 movss	 xmm0, DWORD PTR _fPercent$[ebp]
  000c1	83 c4 20	 add	 esp, 32			; 00000020H
  000c4	0f 5a c0	 cvtps2pd xmm0, xmm0
$LN5@DecExperie:

; 1668 : 			, m_szName, nOldLv, m_nLevel, nDecExp, fPercent );
; 1669 : 
; 1670 : 		EXPINTEGER	nDecExp2	= ( prj.m_aExpCharacter[m_nLevel+1].nExp1 - m_nExp1 ) + nExpOld;	// ˝ÇÁ¦ ±đŔÎ Ć÷ŔÎĆ®.

  000c7	8b 9e d8 05 00
	00		 mov	 ebx, DWORD PTR [esi+1496]
  000cd	8b c3		 mov	 eax, ebx

; 1671 : 		if( nDecExp2 > nDecExp )	// ˝ÇÁ¦ ±đŔÎľçŔĚ żř·ˇ ±đŔ¸·Á°í Çß´ř ľçş¸´Ů ¸ąŔ¸¸é °ć°í.

  000cf	8b 55 f0	 mov	 edx, DWORD PTR _nDecExp$2$[ebp]
  000d2	c1 e0 05	 shl	 eax, 5
  000d5	8b 88 f0 4f 00
	00		 mov	 ecx, DWORD PTR ?prj@@3VCProject@@A[eax+20464]
  000db	2b 8e e0 05 00
	00		 sub	 ecx, DWORD PTR [esi+1504]
  000e1	8b 80 f4 4f 00
	00		 mov	 eax, DWORD PTR ?prj@@3VCProject@@A[eax+20468]
  000e7	1b 86 e4 05 00
	00		 sbb	 eax, DWORD PTR [esi+1508]
  000ed	03 4d f8	 add	 ecx, DWORD PTR _nExpOld$1$[ebp]
  000f0	13 45 fc	 adc	 eax, DWORD PTR _nExpOld$2$[ebp]
  000f3	3b c2		 cmp	 eax, edx
  000f5	0f 8c f7 00 00
	00		 jl	 $LN7@DecExperie
  000fb	7f 08		 jg	 SHORT $LN10@DecExperie
  000fd	3b cf		 cmp	 ecx, edi
  000ff	0f 86 ed 00 00
	00		 jbe	 $LN7@DecExperie
$LN10@DecExperie:

; 1672 : 			Error( "1 CMover::DecExperiencePercent : %s(Lv%d) °ćÇčÄˇ°ˇ ŔĚ»óÇĎ°Ô ±đŔÓ. %I64d %I64d(%f) %I64d %I64d"

  00105	ff b6 e4 05 00
	00		 push	 DWORD PTR [esi+1508]
  0010b	8d 86 ec 14 00
	00		 lea	 eax, DWORD PTR [esi+5356]
  00111	ff b6 e0 05 00
	00		 push	 DWORD PTR [esi+1504]
  00117	ff 75 fc	 push	 DWORD PTR _nExpOld$2$[ebp]
  0011a	ff 75 f8	 push	 DWORD PTR _nExpOld$1$[ebp]
  0011d	83 ec 08	 sub	 esp, 8
  00120	f2 0f 11 04 24	 movsd	 QWORD PTR [esp], xmm0
  00125	52		 push	 edx
  00126	57		 push	 edi
  00127	ff 75 ec	 push	 DWORD PTR _nMaxExp$1$[ebp]
  0012a	ff 75 e8	 push	 DWORD PTR _nMaxExp$2$[ebp]
  0012d	53		 push	 ebx
  0012e	50		 push	 eax
  0012f	68 00 00 00 00	 push	 OFFSET ??_C@_0FO@OOMNFAPD@1?5CMover?3?3DecExperiencePercent?5@
  00134	e8 00 00 00 00	 call	 ?Error@@YAPBDPBDZZ	; Error

; 1682 : 			, m_szName, GetLevel(), nMaxExp, nDecExp, fPercent, nExpOld, fOldPercent, m_nExp1, fCurPercent );
; 1683 : 	}
; 1684 : 
; 1685 : 	return bLvDown;

  00139	8b 45 10	 mov	 eax, DWORD PTR _bLvDown$1$[ebp]
  0013c	83 c4 34	 add	 esp, 52			; 00000034H
  0013f	5f		 pop	 edi
  00140	5e		 pop	 esi

; 1686 : }

  00141	5b		 pop	 ebx
  00142	8b e5		 mov	 esp, ebp
  00144	5d		 pop	 ebp
  00145	c2 0c 00	 ret	 12			; 0000000cH
$LN3@DecExperie:

; 1673 : 			, m_szName, GetLevel(), nMaxExp, nDecExp, fPercent, nExpOld, m_nExp1 );
; 1674 : 	}
; 1675 : 	else
; 1676 : 	{
; 1677 : 		EXPFLOAT fOldPercent = static_cast<EXPFLOAT>( nExpOld ) / static_cast<EXPFLOAT>( nMaxExp );		// ±đŔĚ±âŔü ĆŰĽľĆ®·®.

  00148	8b 55 ec	 mov	 edx, DWORD PTR _nMaxExp$1$[ebp]
  0014b	8b 4d e8	 mov	 ecx, DWORD PTR _nMaxExp$2$[ebp]
  0014e	e8 00 00 00 00	 call	 __ltod3
  00153	8b 5d f8	 mov	 ebx, DWORD PTR _nExpOld$1$[ebp]
  00156	8b cb		 mov	 ecx, ebx
  00158	8b 55 fc	 mov	 edx, DWORD PTR _nExpOld$2$[ebp]
  0015b	f2 0f 11 45 e0	 movsd	 QWORD PTR tv74[ebp], xmm0
  00160	e8 00 00 00 00	 call	 __ltod3
  00165	f2 0f 5e 45 e0	 divsd	 xmm0, QWORD PTR tv74[ebp]

; 1678 : 		EXPFLOAT fCurPercent = static_cast<EXPFLOAT>( m_nExp1 ) / static_cast<EXPFLOAT>( nMaxExp );		// ±ďŔşČÄ ĆŰĽľĆ®·®.

  0016a	8b 96 e4 05 00
	00		 mov	 edx, DWORD PTR [esi+1508]
  00170	8b 8e e0 05 00
	00		 mov	 ecx, DWORD PTR [esi+1504]
  00176	f2 0f 11 45 f4	 movsd	 QWORD PTR _fOldPercent$1$[ebp], xmm0
  0017b	e8 00 00 00 00	 call	 __ltod3
  00180	0f 28 d0	 movaps	 xmm2, xmm0

; 1679 : 
; 1680 : 		if( fOldPercent - fCurPercent > 0.060f )

  00183	f2 0f 10 45 f4	 movsd	 xmm0, QWORD PTR _fOldPercent$1$[ebp]
  00188	f2 0f 5e 55 e0	 divsd	 xmm2, QWORD PTR tv74[ebp]
  0018d	0f 28 c8	 movaps	 xmm1, xmm0
  00190	f2 0f 5c ca	 subsd	 xmm1, xmm2
  00194	66 0f 2f 0d 00
	00 00 00	 comisd	 xmm1, QWORD PTR __real@3faeb851e0000000
  0019c	76 54		 jbe	 SHORT $LN7@DecExperie

; 1681 : 			Error( "0 CMover::DecExperiencePercent : %s(Lv%d) °ćÇčÄˇ°ˇ ŔĚ»óÇĎ°Ô ±đŔÓ. %I64d %I64d(%f) %I64d(%f) %I64d(%f)"

  0019e	83 ec 08	 sub	 esp, 8
  001a1	8d 86 ec 14 00
	00		 lea	 eax, DWORD PTR [esi+5356]
  001a7	f2 0f 11 14 24	 movsd	 QWORD PTR [esp], xmm2
  001ac	ff b6 e4 05 00
	00		 push	 DWORD PTR [esi+1508]
  001b2	ff b6 e0 05 00
	00		 push	 DWORD PTR [esi+1504]
  001b8	83 ec 08	 sub	 esp, 8
  001bb	f2 0f 11 04 24	 movsd	 QWORD PTR [esp], xmm0
  001c0	ff 75 fc	 push	 DWORD PTR _nExpOld$2$[ebp]
  001c3	f3 0f 10 45 08	 movss	 xmm0, DWORD PTR _fPercent$[ebp]
  001c8	53		 push	 ebx
  001c9	83 ec 08	 sub	 esp, 8
  001cc	0f 5a c0	 cvtps2pd xmm0, xmm0
  001cf	f2 0f 11 04 24	 movsd	 QWORD PTR [esp], xmm0
  001d4	ff 75 f0	 push	 DWORD PTR _nDecExp$2$[ebp]
  001d7	57		 push	 edi
  001d8	ff 75 ec	 push	 DWORD PTR _nMaxExp$1$[ebp]
  001db	ff 75 e8	 push	 DWORD PTR _nMaxExp$2$[ebp]
  001de	ff b6 d8 05 00
	00		 push	 DWORD PTR [esi+1496]
  001e4	50		 push	 eax
  001e5	68 00 00 00 00	 push	 OFFSET ??_C@_0GG@EIMKDIB@0?5CMover?3?3DecExperiencePercent?5@
  001ea	e8 00 00 00 00	 call	 ?Error@@YAPBDPBDZZ	; Error
  001ef	83 c4 44	 add	 esp, 68			; 00000044H
$LN7@DecExperie:

; 1682 : 			, m_szName, GetLevel(), nMaxExp, nDecExp, fPercent, nExpOld, fOldPercent, m_nExp1, fCurPercent );
; 1683 : 	}
; 1684 : 
; 1685 : 	return bLvDown;

  001f2	8b 45 10	 mov	 eax, DWORD PTR _bLvDown$1$[ebp]
  001f5	5f		 pop	 edi
  001f6	5e		 pop	 esi

; 1686 : }

  001f7	5b		 pop	 ebx
  001f8	8b e5		 mov	 esp, ebp
  001fa	5d		 pop	 ebp
  001fb	c2 0c 00	 ret	 12			; 0000000cH
?DecExperiencePercent@CMover@@QAEHMHH@Z ENDP		; CMover::DecExperiencePercent
_TEXT	ENDS
; Function compile flags: /Ogtp
; File C:\IAGOS\server\v18\Source\Source\_Common\MoverParam.cpp
;	COMDAT ?DecExperience@CMover@@QAEH_JHH@Z
_TEXT	SEGMENT
_nExp$ = 8						; size = 8
_bExp2Clear$ = 16					; size = 4
_bLvDown$ = 20						; size = 4
?DecExperience@CMover@@QAEH_JHH@Z PROC			; CMover::DecExperience, COMDAT
; _this$ = ecx

; 1615 : {

  00000	55		 push	 ebp
  00001	8b ec		 mov	 ebp, esp

; 1616 : 	if( nExp < 0 )	// °ŞŔş Ç×»ó ľçĽö·Î¸¸ Áŕľß ÇŃ´Ů.

  00003	83 7d 0c 00	 cmp	 DWORD PTR _nExp$[ebp+4], 0
  00007	56		 push	 esi
  00008	0f 8c 94 00 00
	00		 jl	 $LN6@DecExperie
  0000e	8b 75 08	 mov	 esi, DWORD PTR _nExp$[ebp]
  00011	7f 08		 jg	 SHORT $LN10@DecExperie
  00013	85 f6		 test	 esi, esi
  00015	0f 82 87 00 00
	00		 jb	 $LN6@DecExperie
$LN10@DecExperie:

; 1617 : 		return FALSE;
; 1618 : 	
; 1619 : 	int nPrevLevel	= m_nLevel - 1;

  0001b	8b 81 d8 05 00
	00		 mov	 eax, DWORD PTR [ecx+1496]
  00021	48		 dec	 eax

; 1620 : 	if( nPrevLevel < 1 )	// ·ąş§ 1ŔĚÇĎ·Î´Â ´őŔĚ»ó ł»·Á°ˇÁö ľĘŔ˝.

  00022	83 f8 01	 cmp	 eax, 1
  00025	7c 7b		 jl	 SHORT $LN6@DecExperie

; 1621 : 		return FALSE;
; 1622 : 
; 1623 : 	m_nExp1		-= nExp;	// nExp¸¸Ĺ­ °ćÇčÄˇ¸¦ ±đŔ˝. Exp2´Â 0%·Î.

  00027	8b 91 e0 05 00
	00		 mov	 edx, DWORD PTR [ecx+1504]
  0002d	2b d6		 sub	 edx, esi
  0002f	8b b1 e4 05 00
	00		 mov	 esi, DWORD PTR [ecx+1508]
  00035	89 91 e0 05 00
	00		 mov	 DWORD PTR [ecx+1504], edx
  0003b	1b 75 0c	 sbb	 esi, DWORD PTR _nExp$[ebp+4]
  0003e	89 b1 e4 05 00
	00		 mov	 DWORD PTR [ecx+1508], esi

; 1624 : 
; 1625 : #if __VER < 8     // 8Â÷ ˝şĹł°ćÇčÄˇ´ŮżîşŻ°ć
; 1626 : 	m_nSkillExp	-= nExp;
; 1627 : #endif	// __VER >= 8  
; 1628 : 
; 1629 : 	if( m_nExp1 < 0 )

  00044	85 f6		 test	 esi, esi
  00046	7f 5a		 jg	 SHORT $LN6@DecExperie
  00048	7c 04		 jl	 SHORT $LN11@DecExperie
  0004a	85 d2		 test	 edx, edx
  0004c	73 54		 jae	 SHORT $LN6@DecExperie
$LN11@DecExperie:

; 1630 : 	{
; 1631 : 		if( bLvDown )	// ·ľ´ŮżîŔĚ µÇ´Â »óČ˛.

  0004e	83 7d 14 00	 cmp	 DWORD PTR _bLvDown$[ebp], 0
  00052	74 2d		 je	 SHORT $LN5@DecExperie

; 1632 : 		{
; 1633 : #if __VER >= 8  
; 1634 : 			--m_nLevel;

  00054	89 81 d8 05 00
	00		 mov	 DWORD PTR [ecx+1496], eax

; 1635 : 			m_nExp1 = (EXPINTEGER)(prj.m_aExpCharacter[m_nLevel+1].nExp1 + m_nExp1 );

  0005a	c1 e0 05	 shl	 eax, 5
  0005d	03 90 f0 4f 00
	00		 add	 edx, DWORD PTR ?prj@@3VCProject@@A[eax+20464]
  00063	8b 80 f4 4f 00
	00		 mov	 eax, DWORD PTR ?prj@@3VCProject@@A[eax+20468]
  00069	13 c6		 adc	 eax, esi
  0006b	89 91 e0 05 00
	00		 mov	 DWORD PTR [ecx+1504], edx
  00071	89 81 e4 05 00
	00		 mov	 DWORD PTR [ecx+1508], eax

; 1636 : #endif //  __VER >= 8  
; 1637 : 			return TRUE;	// ·ľ´Ůżî µĆŔ¸¸é TRUE¸®ĹĎ

  00077	b8 01 00 00 00	 mov	 eax, 1
  0007c	5e		 pop	 esi

; 1648 : }

  0007d	5d		 pop	 ebp
  0007e	c2 10 00	 ret	 16			; 00000010H
$LN5@DecExperie:

; 1638 : 		}
; 1639 : 		else
; 1640 : 		{
; 1641 : 			m_nExp1		= 0;
; 1642 : #ifdef __WORLDSERVER
; 1643 : 			g_dpDBClient.SendLogLevelUp( this, 7 );

  00081	6a 07		 push	 7
  00083	c7 81 e0 05 00
	00 00 00 00 00	 mov	 DWORD PTR [ecx+1504], 0
  0008d	c7 81 e4 05 00
	00 00 00 00 00	 mov	 DWORD PTR [ecx+1508], 0
  00097	51		 push	 ecx
  00098	b9 00 00 00 00	 mov	 ecx, OFFSET ?g_dpDBClient@@3VCDPDatabaseClient@@A ; g_dpDBClient
  0009d	e8 00 00 00 00	 call	 ?SendLogLevelUp@CDPDatabaseClient@@QAEXPAVCMover@@H@Z ; CDPDatabaseClient::SendLogLevelUp
$LN6@DecExperie:

; 1644 : #endif // __WORLDSERVER
; 1645 : 		}
; 1646 : 	}
; 1647 : 	return FALSE;

  000a2	33 c0		 xor	 eax, eax
  000a4	5e		 pop	 esi

; 1648 : }

  000a5	5d		 pop	 ebp
  000a6	c2 10 00	 ret	 16			; 00000010H
?DecExperience@CMover@@QAEH_JHH@Z ENDP			; CMover::DecExperience
_TEXT	ENDS
; Function compile flags: /Ogtp
; File C:\IAGOS\server\v18\Source\Source\_Common\MoverParam.cpp
; File C:\IAGOS\server\v18\Source\Source\_network\CmnHdr.h
; File C:\IAGOS\server\v18\Source\Source\_Common\MoverParam.cpp
; File C:\IAGOS\server\v18\Source\Source\_network\CmnHdr.h
; File C:\IAGOS\server\v18\Source\Source\_Common\MoverParam.cpp
; File C:\IAGOS\server\v18\Source\Source\_network\CmnHdr.h
; File C:\IAGOS\server\v18\Source\Source\_Common\MoverParam.cpp
; File C:\IAGOS\server\v18\Source\Source\_Common\Mover.h
; File C:\IAGOS\server\v18\Source\Source\_Common\MoverParam.cpp
; File C:\Program Files\Microsoft Visual Studio\2022\Professional\VC\Tools\MSVC\14.44.35207\include\xtree
; File C:\IAGOS\server\v18\Source\Source\_Common\MoverParam.cpp
; File C:\Program Files\Microsoft Visual Studio\2022\Professional\VC\Tools\MSVC\14.44.35207\include\xtree
; File C:\IAGOS\server\v18\Source\Source\_Common\MoverParam.cpp
; File C:\Program Files\Microsoft Visual Studio\2022\Professional\VC\Tools\MSVC\14.44.35207\include\xtree
; File C:\Program Files\Microsoft Visual Studio\2022\Professional\VC\Tools\MSVC\14.44.35207\include\type_traits
; File C:\Program Files\Microsoft Visual Studio\2022\Professional\VC\Tools\MSVC\14.44.35207\include\xtree
; File C:\IAGOS\server\v18\Source\Source\_Common\MoverParam.cpp
; File C:\Program Files\Microsoft Visual Studio\2022\Professional\VC\Tools\MSVC\14.44.35207\include\xtree
; File C:\Program Files\Microsoft Visual Studio\2022\Professional\VC\Tools\MSVC\14.44.35207\include\type_traits
; File C:\Program Files\Microsoft Visual Studio\2022\Professional\VC\Tools\MSVC\14.44.35207\include\xtree
; File C:\IAGOS\server\v18\Source\Source\_Common\Project.h
; File C:\IAGOS\server\v18\Source\Source\_Common\MoverParam.cpp
; File C:\IAGOS\server\v18\Source\Source\_Common\Project.h
; File C:\IAGOS\server\v18\Source\Source\_Common\MoverParam.cpp
;	COMDAT ?AddExperience@CMover@@QAEH_JHHH@Z
_TEXT	SEGMENT
tv834 = -224						; size = 4
tv832 = -220						; size = 4
_pItemProp$1$ = -220					; size = 4
tv1014 = -220						; size = 4
$T2 = -216						; size = 4
_nExp$1$ = -216						; size = 4
tv1334 = -212						; size = 4
tv1336 = -212						; size = 4
_dwPropensity$1$ = -212					; size = 4
_wId$1$ = -212						; size = 4
_nExptmp$1$ = -212					; size = 4
_nAngel$1$ = -208					; size = 4
_nExp$2$ = -208						; size = 4
_nMaxAngelExp$2$ = -208					; size = 4
_nExptmp$2$ = -208					; size = 4
_aLogItem$3 = -204					; size = 200
__$ArrayPad$ = -4					; size = 4
_nExp$ = 8						; size = 8
_bFirstCall$ = 16					; size = 4
_bMultiPly$ = 20					; size = 4
_bMonster$ = 24						; size = 4
?AddExperience@CMover@@QAEH_JHHH@Z PROC			; CMover::AddExperience, COMDAT
; _this$ = ecx

; 1104 : {

  00000	55		 push	 ebp
  00001	8b ec		 mov	 ebp, esp
  00003	81 ec e0 00 00
	00		 sub	 esp, 224		; 000000e0H
  00009	a1 00 00 00 00	 mov	 eax, DWORD PTR ___security_cookie
  0000e	33 c5		 xor	 eax, ebp
  00010	89 45 fc	 mov	 DWORD PTR __$ArrayPad$[ebp], eax
  00013	53		 push	 ebx
  00014	56		 push	 esi
  00015	8b 75 08	 mov	 esi, DWORD PTR _nExp$[ebp]
  00018	8b d9		 mov	 ebx, ecx
  0001a	57		 push	 edi
  0001b	8b 7d 0c	 mov	 edi, DWORD PTR _nExp$[ebp+4]
  0001e	89 b5 28 ff ff
	ff		 mov	 DWORD PTR _nExp$1$[ebp], esi
  00024	89 bd 30 ff ff
	ff		 mov	 DWORD PTR _nExp$2$[ebp], edi

; 1105 : #ifdef __VTN_TIMELIMIT
; 1106 : 	//	mulcom	BEGIN100315	şŁĆ®ł˛ ˝Ă°Ł Á¦ÇŃ
; 1107 : 	if( ::GetLanguage() == LANG_VTN )
; 1108 : 	{
; 1109 : 		if( IsPlayer() && m_nAccountPlayTime != -1 )
; 1110 : 		{
; 1111 : 			if( m_nAccountPlayTime < 0 || m_nAccountPlayTime > MIN( 300 ) )
; 1112 : 			{
; 1113 : 				nExp	= 0;
; 1114 : 			}
; 1115 : 			else if( m_nAccountPlayTime >= MIN( 180 ) && m_nAccountPlayTime <= MIN( 300 ) )
; 1116 : 			{
; 1117 : 				nExp	= (EXPINTEGER)( nExp * 0.5f );
; 1118 : 			}
; 1119 : 		}
; 1120 : 	}
; 1121 : 	//	mulcom	END100315	şŁĆ®ł˛ ˝Ă°Ł Á¦ÇŃ
; 1122 : #endif // __VTN_TIMELIMIT
; 1123 : 
; 1124 : 	if( nExp <= 0 )		// nExp°ˇ ¸¶ŔĚłĘ˝şŔĚ°ĹłŞ 0ŔĚ¸é Ăł¸®ÇŇÇĘżä ľřŔ˝.

  0002a	85 ff		 test	 edi, edi
  0002c	0f 8c 56 06 00
	00		 jl	 $LN38@AddExperie
  00032	7f 08		 jg	 SHORT $LN156@AddExperie
  00034	85 f6		 test	 esi, esi
  00036	0f 84 4c 06 00
	00		 je	 $LN38@AddExperie
$LN156@AddExperie:

; 1125 : 		return FALSE;
; 1126 : 
; 1127 : 	if( m_nHitPoint <= 0 )

  0003c	83 bb f8 05 00
	00 00		 cmp	 DWORD PTR [ebx+1528], 0
  00043	0f 8e 3f 06 00
	00		 jle	 $LN38@AddExperie

; 1128 : 		return FALSE;
; 1129 : 
; 1130 : #if __VER < 15 // __GUILD_HOUSE
; 1131 : 	if( bFirstCall && bMultiPly )
; 1132 : 	{
; 1133 : 		nExp	*= GetExpFactor();
; 1134 : 	}
; 1135 : #endif // __GUILD_HOUSE
; 1136 : #ifdef __INTERNALSERVER
; 1137 : 	TRACE( "EXP = %I64d\n", nExp );
; 1138 : #endif	// __INTERNALSERVER
; 1139 : 
; 1140 : #if __VER >= 14 // __ANGEL_EXPERIENCE
; 1141 : #ifdef __3RD_LEGEND16
; 1142 : 	if( IsMaster() || IsHero() || IsLegendHero())

  00049	e8 00 00 00 00	 call	 ?IsMaster@CMover@@QAEHXZ ; CMover::IsMaster
  0004e	85 c0		 test	 eax, eax
  00050	75 16		 jne	 SHORT $LN5@AddExperie
  00052	8b cb		 mov	 ecx, ebx
  00054	e8 00 00 00 00	 call	 ?IsHero@CMover@@QAEHXZ	; CMover::IsHero
  00059	85 c0		 test	 eax, eax
  0005b	75 0b		 jne	 SHORT $LN5@AddExperie
  0005d	8b cb		 mov	 ecx, ebx
  0005f	e8 00 00 00 00	 call	 ?IsLegendHero@CMover@@QAEHXZ ; CMover::IsLegendHero
  00064	85 c0		 test	 eax, eax
  00066	74 12		 je	 SHORT $LN4@AddExperie
$LN5@AddExperie:

; 1143 : #else // __3RD_LEGEND16
; 1144 : 	if( IsMaster() || IsHero() )
; 1145 : #endif // __3RD_LEGEND16
; 1146 : 		nExp /= 2;

  00068	0f ac fe 01	 shrd	 esi, edi, 1
  0006c	d1 ef		 shr	 edi, 1
  0006e	89 b5 28 ff ff
	ff		 mov	 DWORD PTR _nExp$1$[ebp], esi
  00074	89 bd 30 ff ff
	ff		 mov	 DWORD PTR _nExp$2$[ebp], edi
$LN4@AddExperie:

; 1147 : #if __VER >= 15 // __GUILD_HOUSE
; 1148 : 	if( bFirstCall && bMultiPly )

  0007a	83 7d 10 00	 cmp	 DWORD PTR _bFirstCall$[ebp], 0
  0007e	0f 84 5c 03 00
	00		 je	 $LN12@AddExperie
  00084	83 7d 14 00	 cmp	 DWORD PTR _bMultiPly$[ebp], 0
  00088	74 58		 je	 SHORT $LN6@AddExperie

; 1149 : 	{
; 1150 : #ifdef __WORLDSERVER
; 1151 : 		EXPINTEGER nAddExp = static_cast<CUser*>( this )->GetAddExpAfterApplyRestPoint( nExp );

  0008a	57		 push	 edi
  0008b	56		 push	 esi
  0008c	8b cb		 mov	 ecx, ebx
  0008e	e8 00 00 00 00	 call	 ?GetAddExpAfterApplyRestPoint@CUser@@QAE_J_J@Z ; CUser::GetAddExpAfterApplyRestPoint

; 1152 : 		nExp	= (EXPINTEGER)( nExp * GetExpFactor() );

  00093	8b cb		 mov	 ecx, ebx
  00095	8b f0		 mov	 esi, eax
  00097	8b fa		 mov	 edi, edx
  00099	e8 00 00 00 00	 call	 ?GetExpFactor@CMover@@QAEMXZ ; CMover::GetExpFactor
  0009e	8b 95 30 ff ff
	ff		 mov	 edx, DWORD PTR _nExp$2$[ebp]
  000a4	8b 8d 28 ff ff
	ff		 mov	 ecx, DWORD PTR _nExp$1$[ebp]
  000aa	e8 00 00 00 00	 call	 __ltof3
  000af	f3 0f 11 85 2c
	ff ff ff	 movss	 DWORD PTR tv1336[ebp], xmm0
  000b7	d8 8d 2c ff ff
	ff		 fmul	 DWORD PTR tv1336[ebp]
  000bd	d9 9d 2c ff ff
	ff		 fstp	 DWORD PTR tv1334[ebp]
  000c3	f3 0f 10 85 2c
	ff ff ff	 movss	 xmm0, DWORD PTR tv1334[ebp]
  000cb	e8 00 00 00 00	 call	 __ftol3

; 1153 : 		nExp += nAddExp;

  000d0	03 c6		 add	 eax, esi
  000d2	89 85 28 ff ff
	ff		 mov	 DWORD PTR _nExp$1$[ebp], eax
  000d8	13 d7		 adc	 edx, edi
  000da	89 95 30 ff ff
	ff		 mov	 DWORD PTR _nExp$2$[ebp], edx
  000e0	8b fa		 mov	 edi, edx
$LN6@AddExperie:

; 1154 : #endif // __WORLDSERVER
; 1155 : 	}
; 1156 : #endif // __GUILD_HOUSE
; 1157 : 
; 1158 : #if __VER >= 8 //__CSC_VER8_5
; 1159 : 	if( bFirstCall && HasBuffByIk3( IK3_ANGEL_BUFF ) )

  000e2	6a 5f		 push	 95			; 0000005fH
  000e4	8b cb		 mov	 ecx, ebx
  000e6	e8 00 00 00 00	 call	 ?HasBuffByIk3@CMover@@QAEHK@Z ; CMover::HasBuffByIk3
  000eb	85 c0		 test	 eax, eax
  000ed	0f 84 ed 02 00
	00		 je	 $LN12@AddExperie

; 1160 : 	{
; 1161 : 		int nAngel = 100;
; 1162 : #ifdef __BUFF_1107
; 1163 : 		IBuff* pBuff	= m_buffs.GetBuffByIk3( IK3_ANGEL_BUFF );

  000f3	6a 5f		 push	 95			; 0000005fH
  000f5	8d 8b ec 02 00
	00		 lea	 ecx, DWORD PTR [ebx+748]
  000fb	c7 85 30 ff ff
	ff 64 00 00 00	 mov	 DWORD PTR _nAngel$1$[ebp], 100 ; 00000064H
  00105	e8 00 00 00 00	 call	 ?GetBuffByIk3@CBuffMgr@@QAEPAVIBuff@@K@Z ; CBuffMgr::GetBuffByIk3

; 1164 : 		WORD wId	= ( pBuff? pBuff->GetId(): 0 );

  0010a	85 c0		 test	 eax, eax
  0010c	74 4b		 je	 SHORT $LN72@AddExperie
  0010e	0f b7 40 06	 movzx	 eax, WORD PTR [eax+6]
  00112	89 85 2c ff ff
	ff		 mov	 DWORD PTR _wId$1$[ebp], eax

; 1165 : #else	// __BUFF_1107
; 1166 : 		LPSKILLINFLUENCE lpSkillIn = m_SkillState.GetItemBuf( IK3_ANGEL_BUFF );
; 1167 : 		WORD wId	= ( lpSkillIn? lpSkillIn->wID: 0 );
; 1168 : #endif	// __BUFF_1107
; 1169 : 		if( wId > 0 )

  00118	66 85 c0	 test	 ax, ax
  0011b	74 46		 je	 SHORT $LN10@AddExperie

; 1170 : 		{
; 1171 : 			ItemProp* pItemProp = prj.GetItemProp( wId );

  0011d	0f b7 c0	 movzx	 eax, ax
  00120	b9 00 00 00 00	 mov	 ecx, OFFSET ?prj@@3VCProject@@A ; prj
  00125	50		 push	 eax
  00126	e8 00 00 00 00	 call	 ?GetItemProp@CProject@@QAEPAUItemProp@@H@Z ; CProject::GetItemProp

; 1172 : 			if( pItemProp )

  0012b	85 c0		 test	 eax, eax
  0012d	74 34		 je	 SHORT $LN10@AddExperie

; 1173 : 				nAngel = (int)( (float)pItemProp->nAdjParamVal1 );

  0012f	66 0f 6e 80 4c
	01 00 00	 movd	 xmm0, DWORD PTR [eax+332]
  00137	0f 5b c0	 cvtdq2ps xmm0, xmm0
  0013a	f3 0f 2c c0	 cvttss2si eax, xmm0
  0013e	89 85 30 ff ff
	ff		 mov	 DWORD PTR _nAngel$1$[ebp], eax

; 1174 : 		}
; 1175 : 		if( nAngel <= 0 || 100 < nAngel  )

  00144	85 c0		 test	 eax, eax
  00146	7e 05		 jle	 SHORT $LN11@AddExperie
  00148	83 f8 64	 cmp	 eax, 100		; 00000064H
  0014b	7e 16		 jle	 SHORT $LN10@AddExperie
$LN11@AddExperie:

; 1176 : 			nAngel = 100;

  0014d	c7 85 30 ff ff
	ff 64 00 00 00	 mov	 DWORD PTR _nAngel$1$[ebp], 100 ; 00000064H
  00157	eb 0a		 jmp	 SHORT $LN10@AddExperie
$LN72@AddExperie:

; 1164 : 		WORD wId	= ( pBuff? pBuff->GetId(): 0 );

  00159	c7 85 2c ff ff
	ff 00 00 00 00	 mov	 DWORD PTR _wId$1$[ebp], 0
$LN10@AddExperie:

; 1177 : 		// Ë¬: ŔüÁ÷ Ŕü żŁÁ© ąöÇÁ Č°ĽşČ­ ČÄ ŔüÁ÷ÇĎ´Â °ćżě, ÇĘżä ĽöÄˇ°ˇ łĘą« Ĺ©´Ů.
; 1178 : 		EXPINTEGER nMaxAngelExp = prj.m_aExpCharacter[m_nAngelLevel].nExp1 / 100 * nAngel;

  00163	8b 83 68 07 00
	00		 mov	 eax, DWORD PTR [ebx+1896]
  00169	c1 e0 05	 shl	 eax, 5
  0016c	6a 00		 push	 0
  0016e	6a 64		 push	 100			; 00000064H
  00170	ff b0 d4 4f 00
	00		 push	 DWORD PTR ?prj@@3VCProject@@A[eax+20436]
  00176	ff b0 d0 4f 00
	00		 push	 DWORD PTR ?prj@@3VCProject@@A[eax+20432]
  0017c	e8 00 00 00 00	 call	 __alldiv
  00181	8b f0		 mov	 esi, eax
  00183	8b ca		 mov	 ecx, edx
  00185	8b 85 30 ff ff
	ff		 mov	 eax, DWORD PTR _nAngel$1$[ebp]
  0018b	99		 cdq
  0018c	52		 push	 edx
  0018d	50		 push	 eax
  0018e	51		 push	 ecx
  0018f	56		 push	 esi
  00190	e8 00 00 00 00	 call	 __allmul

; 1179 : 		if( m_nAngelExp < nMaxAngelExp )

  00195	8b 8b 60 07 00
	00		 mov	 ecx, DWORD PTR [ebx+1888]
  0019b	8b f0		 mov	 esi, eax
  0019d	8b c2		 mov	 eax, edx
  0019f	89 85 30 ff ff
	ff		 mov	 DWORD PTR _nMaxAngelExp$2$[ebp], eax
  001a5	39 83 64 07 00
	00		 cmp	 DWORD PTR [ebx+1892], eax
  001ab	0f 8f 2f 02 00
	00		 jg	 $LN12@AddExperie
  001b1	7c 08		 jl	 SHORT $LN157@AddExperie
  001b3	3b ce		 cmp	 ecx, esi
  001b5	0f 83 25 02 00
	00		 jae	 $LN12@AddExperie
$LN157@AddExperie:

; 1180 : 		{
; 1181 : 			nExp /= 2;

  001bb	6a 00		 push	 0
  001bd	6a 02		 push	 2
  001bf	57		 push	 edi
  001c0	ff b5 28 ff ff
	ff		 push	 DWORD PTR _nExp$1$[ebp]
  001c6	e8 00 00 00 00	 call	 __alldiv

; 1182 : 			m_nAngelExp += nExp;

  001cb	8b 8b 60 07 00
	00		 mov	 ecx, DWORD PTR [ebx+1888]
  001d1	8b fa		 mov	 edi, edx
  001d3	03 c8		 add	 ecx, eax
  001d5	89 85 28 ff ff
	ff		 mov	 DWORD PTR _nExp$1$[ebp], eax
  001db	8b 83 64 07 00
	00		 mov	 eax, DWORD PTR [ebx+1892]

; 1183 : #ifdef __WORLDSERVER
; 1184 : #ifdef __ANGEL_LOG
; 1185 : #ifdef __EXP_ANGELEXP_LOG
; 1186 : 			int nAngelExpPercent = (int)( m_nAngelExp * 100 / nMaxAngelExp );

  001e1	6a 00		 push	 0
  001e3	13 c7		 adc	 eax, edi
  001e5	89 8b 60 07 00
	00		 mov	 DWORD PTR [ebx+1888], ecx
  001eb	6a 64		 push	 100			; 00000064H
  001ed	50		 push	 eax
  001ee	51		 push	 ecx
  001ef	89 83 64 07 00
	00		 mov	 DWORD PTR [ebx+1892], eax
  001f5	e8 00 00 00 00	 call	 __allmul
  001fa	ff b5 30 ff ff
	ff		 push	 DWORD PTR _nMaxAngelExp$2$[ebp]
  00200	56		 push	 esi
  00201	52		 push	 edx
  00202	50		 push	 eax
  00203	e8 00 00 00 00	 call	 __alldiv
  00208	8b c8		 mov	 ecx, eax

; 1187 : 			int nNextAngelExpLog = (int)(((CUser*)this)->m_nAngelExpLog / 20 + 1) * 20;

  0020a	b8 67 66 66 66	 mov	 eax, 1717986919		; 66666667H
  0020f	f7 ab 18 8f 00
	00		 imul	 DWORD PTR [ebx+36632]
  00215	c1 fa 03	 sar	 edx, 3
  00218	8b c2		 mov	 eax, edx
  0021a	c1 e8 1f	 shr	 eax, 31			; 0000001fH
  0021d	40		 inc	 eax
  0021e	03 c2		 add	 eax, edx
  00220	8d 04 80	 lea	 eax, DWORD PTR [eax+eax*4]
  00223	c1 e0 02	 shl	 eax, 2

; 1188 : 			
; 1189 : 			if( nAngelExpPercent >= nNextAngelExpLog )

  00226	3b c8		 cmp	 ecx, eax
  00228	0f 8c 7f 01 00
	00		 jl	 $LN14@AddExperie

; 1190 : 			{
; 1191 : 				((CUser*)this)->m_nAngelExpLog = nAngelExpPercent;
; 1192 : 				ItemProp* pItemProp = prj.GetItemProp( wId );

  0022e	8b 85 2c ff ff
	ff		 mov	 eax, DWORD PTR _wId$1$[ebp]
  00234	0f b7 c0	 movzx	 eax, ax
  00237	89 8b 18 8f 00
	00		 mov	 DWORD PTR [ebx+36632], ecx
  0023d	b9 00 00 00 00	 mov	 ecx, OFFSET ?prj@@3VCProject@@A ; prj
  00242	50		 push	 eax
  00243	e8 00 00 00 00	 call	 ?GetItemProp@CProject@@QAEPAUItemProp@@H@Z ; CProject::GetItemProp
  00248	89 85 24 ff ff
	ff		 mov	 DWORD PTR _pItemProp$1$[ebp], eax

; 1193 : 				
; 1194 : 				if( pItemProp )

  0024e	85 c0		 test	 eax, eax
  00250	0f 84 57 01 00
	00		 je	 $LN14@AddExperie
  00256	0f 57 c0	 xorps	 xmm0, xmm0
; File C:\IAGOS\server\v18\Source\Source\_network\CmnHdr.h

; 638  : 		SendName = _T("");

  00259	c7 85 38 ff ff
	ff 00 00 00 00	 mov	 DWORD PTR _aLogItem$3[ebp+4], OFFSET ??_C@_00CNPNBAHC@@

; 645  : 		::memset( szItemName, 0, sizeof(szItemName) );

  00263	0f 11 85 58 ff
	ff ff		 movups	 XMMWORD PTR _aLogItem$3[ebp+36], xmm0

; 683  : 		wPetEnergy = 0;

  0026a	33 c0		 xor	 eax, eax
; File C:\IAGOS\server\v18\Source\Source\_Common\MoverParam.cpp

; 1198 : 					aLogItem.SendName	= ((CUser*)this)->GetName();

  0026c	8b cb		 mov	 ecx, ebx
; File C:\IAGOS\server\v18\Source\Source\_network\CmnHdr.h

; 645  : 		::memset( szItemName, 0, sizeof(szItemName) );

  0026e	0f 11 85 68 ff
	ff ff		 movups	 XMMWORD PTR _aLogItem$3[ebp+52], xmm0
; File C:\IAGOS\server\v18\Source\Source\_Common\MoverParam.cpp

; 1198 : 					aLogItem.SendName	= ((CUser*)this)->GetName();

  00275	50		 push	 eax
; File C:\IAGOS\server\v18\Source\Source\_network\CmnHdr.h

; 649  : 		nSlot = 100;

  00276	0f 28 05 00 00
	00 00		 movaps	 xmm0, XMMWORD PTR __xmm@00000000000000000000006400000064
  0027d	0f 11 45 84	 movups	 XMMWORD PTR _aLogItem$3[ebp+80], xmm0
  00281	c7 85 3c ff ff
	ff 00 00 00 00	 mov	 DWORD PTR _aLogItem$3[ebp+8], OFFSET ??_C@_00CNPNBAHC@@
  0028b	0f 57 c0	 xorps	 xmm0, xmm0

; 639  : 		RecvName = _T("");
; 640  : 		WorldId = Gold = Gold2 = 0;

  0028e	c7 85 48 ff ff
	ff 00 00 00 00	 mov	 DWORD PTR _aLogItem$3[ebp+20], 0
  00298	c7 85 44 ff ff
	ff 00 00 00 00	 mov	 DWORD PTR _aLogItem$3[ebp+16], 0
  002a2	c7 85 40 ff ff
	ff 00 00 00 00	 mov	 DWORD PTR _aLogItem$3[ebp+12], 0

; 641  : 		Negudo = 0;

  002ac	c7 85 50 ff ff
	ff 00 00 00 00	 mov	 DWORD PTR _aLogItem$3[ebp+28], 0

; 642  : 		MaxNegudo = 0;

  002b6	c7 85 54 ff ff
	ff 00 00 00 00	 mov	 DWORD PTR _aLogItem$3[ebp+32], 0

; 643  : 		ItemNo = 0;

  002c0	c7 85 4c ff ff
	ff 00 00 00 00	 mov	 DWORD PTR _aLogItem$3[ebp+24], 0

; 646  : 		itemNumber = 0;

  002ca	c7 85 78 ff ff
	ff 00 00 00 00	 mov	 DWORD PTR _aLogItem$3[ebp+68], 0

; 647  : 		nAbilityOption = 0;

  002d4	c7 85 7c ff ff
	ff 00 00 00 00	 mov	 DWORD PTR _aLogItem$3[ebp+72], 0

; 648  : 		Gold_1 = 0;

  002de	c7 45 80 00 00
	00 00		 mov	 DWORD PTR _aLogItem$3[ebp+76], 0

; 650  : 		nSlot1 = 100;
; 651  : 		nItemResist = 0;
; 652  : 		nResistAbilityOption = 0;
; 653  : 		m_bCharged = FALSE;

  002e5	c7 45 94 00 00
	00 00		 mov	 DWORD PTR _aLogItem$3[ebp+96], 0

; 654  : 		m_dwKeepTime = 0;

  002ec	c7 45 98 00 00
	00 00		 mov	 DWORD PTR _aLogItem$3[ebp+100], 0

; 655  : #if __VER >= 11 // __SYS_IDENTIFY
; 656  : 		m_iRandomOptItemId = 0;

  002f3	66 0f 13 45 9c	 movlpd	 QWORD PTR _aLogItem$3[ebp+104], xmm0

; 657  : #else	//__SYS_IDENTIFY
; 658  : 		m_nRandomOptItemId = 0;
; 659  : #endif	// __SYS_IDENTIFY
; 660  : #if __VER >= 12 // __EXT_PIERCING
; 661  : 		nPiercedSize = 0;

  002f8	c7 45 a4 00 00
	00 00		 mov	 DWORD PTR _aLogItem$3[ebp+112], 0

; 662  : //		for( int i=0; i<MAX_PIERCING_WEAPON; i++ )
; 663  : //			adwItemId[i] = 0;
; 664  : 		memset( adwItemId, 0, sizeof(adwItemId) );

  002ff	0f 11 45 a8	 movups	 XMMWORD PTR _aLogItem$3[ebp+116], xmm0

; 665  : 		nUMPiercedSize = 0;

  00303	c7 45 d0 00 00
	00 00		 mov	 DWORD PTR _aLogItem$3[ebp+156], 0
  0030a	0f 11 45 b8	 movups	 XMMWORD PTR _aLogItem$3[ebp+132], xmm0

; 666  : //		for( i=0; i<MAX_PIERCING_ULTIMATE; i++ )
; 667  : //	adwUMItemId[i] = 0;
; 668  : 		memset( adwUMItemId, 0, sizeof(adwUMItemId) );

  0030e	c7 45 e4 00 00
	00 00		 mov	 DWORD PTR _aLogItem$3[ebp+176], 0
  00315	66 0f d6 45 c8	 movq	 QWORD PTR _aLogItem$3[ebp+148], xmm0
  0031a	0f 11 45 d4	 movups	 XMMWORD PTR _aLogItem$3[ebp+160], xmm0

; 669  : #else // __EXT_PIERCING
; 670  : 		nPiercedSize = 0;
; 671  : 		adwItemId0 = 0;
; 672  : 		adwItemId1 = 0;
; 673  : 		adwItemId2 = 0;
; 674  : 		adwItemId3 = 0;
; 675  : #if __VER >= 9 // __ULTIMATE
; 676  : 		adwItemId4 = 0;
; 677  : #endif // __ULTIMATE
; 678  : #endif // __EXT_PIERCING
; 679  : #if __VER >= 9 // __PET_0410
; 680  : 		nPetKind = 0;

  0031e	66 c7 45 e8 00
	00		 mov	 WORD PTR _aLogItem$3[ebp+180], 0

; 681  : 		nPetLevel = 0;
; 682  : 		dwPetExp = 0;

  00324	c7 45 ec 00 00
	00 00		 mov	 DWORD PTR _aLogItem$3[ebp+184], 0

; 683  : 		wPetEnergy = 0;

  0032b	89 45 f0	 mov	 DWORD PTR _aLogItem$3[ebp+188], eax

; 684  : 		wPetLife = 0;
; 685  : 		nPetAL_D = 0;

  0032e	89 45 f4	 mov	 DWORD PTR _aLogItem$3[ebp+192], eax

; 686  : 		nPetAL_C = 0;
; 687  : 		nPetAL_B = 0;
; 688  : 		nPetAL_A = 0;
; 689  : 		nPetAL_S = 0;

  00331	88 45 f8	 mov	 BYTE PTR _aLogItem$3[ebp+196], al
; File C:\IAGOS\server\v18\Source\Source\_Common\MoverParam.cpp

; 1197 : 					aLogItem.Action		= "&";

  00334	c7 85 34 ff ff
	ff 00 00 00 00	 mov	 DWORD PTR _aLogItem$3[ebp], OFFSET ??_C@_01HNPIGOCE@?$CG@

; 1198 : 					aLogItem.SendName	= ((CUser*)this)->GetName();

  0033e	e8 00 00 00 00	 call	 ?GetName@CMover@@QAEPBDH@Z ; CMover::GetName
  00343	89 85 38 ff ff
	ff		 mov	 DWORD PTR _aLogItem$3[ebp+4], eax

; 1199 : 					aLogItem.RecvName	= "ANGEL_EXP_LOG";
; 1200 : 					aLogItem.WorldId	= ((CUser*)this)->GetWorld()->GetID();

  00349	8b 83 6c 01 00
	00		 mov	 eax, DWORD PTR [ebx+364]
  0034f	c7 85 3c ff ff
	ff 00 00 00 00	 mov	 DWORD PTR _aLogItem$3[ebp+8], OFFSET ??_C@_0O@KNKGEAPB@ANGEL_EXP_LOG@
  00359	8b 00		 mov	 eax, DWORD PTR [eax]
  0035b	89 85 40 ff ff
	ff		 mov	 DWORD PTR _aLogItem$3[ebp+12], eax

; 1201 : 					aLogItem.Gold		= aLogItem.Gold2 = ((CUser*)this)->GetGold();

  00361	8b 83 e0 14 00
	00		 mov	 eax, DWORD PTR [ebx+5344]
  00367	89 85 48 ff ff
	ff		 mov	 DWORD PTR _aLogItem$3[ebp+20], eax
  0036d	89 85 44 ff ff
	ff		 mov	 DWORD PTR _aLogItem$3[ebp+16], eax

; 1202 : 					//aLogItem.ItemName	= pItemProp->szName;
; 1203 : 					_stprintf( aLogItem.szItemName, "%d", pItemProp->dwID );

  00373	8b 85 24 ff ff
	ff		 mov	 eax, DWORD PTR _pItemProp$1$[ebp]
  00379	ff 30		 push	 DWORD PTR [eax]
  0037b	8d 85 58 ff ff
	ff		 lea	 eax, DWORD PTR _aLogItem$3[ebp+36]
  00381	68 00 00 00 00	 push	 OFFSET ??_C@_02DPKJAMEF@?$CFd@
  00386	50		 push	 eax
  00387	e8 00 00 00 00	 call	 _sprintf

; 1204 : 					aLogItem.Gold_1		= (DWORD)( m_nAngelExp );

  0038c	8b 83 60 07 00
	00		 mov	 eax, DWORD PTR [ebx+1888]
  00392	83 c4 0c	 add	 esp, 12			; 0000000cH
  00395	89 45 80	 mov	 DWORD PTR _aLogItem$3[ebp+76], eax

; 1205 : 					g_DPSrvr.OnLogItem( aLogItem );

  00398	b9 00 00 00 00	 mov	 ecx, OFFSET ?g_DPSrvr@@3VCDPSrvr@@A ; g_DPSrvr
  0039d	8d 85 34 ff ff
	ff		 lea	 eax, DWORD PTR _aLogItem$3[ebp]
  003a3	6a 00		 push	 0
  003a5	6a 00		 push	 0
  003a7	50		 push	 eax
  003a8	e8 00 00 00 00	 call	 ?OnLogItem@CDPSrvr@@QAEXAAU_LogItemInfo@@PAVCItemElem@@H@Z ; CDPSrvr::OnLogItem
$LN14@AddExperie:

; 1206 : 				}
; 1207 : 			}
; 1208 : #endif //  __EXP_ANGELEXP_LOG
; 1209 : #endif // __ANGEL_LOG
; 1210 : 			
; 1211 : 			BOOL bAngelComplete = FALSE;
; 1212 : 			if( m_nAngelExp > nMaxAngelExp )

  003ad	8b 8d 30 ff ff
	ff		 mov	 ecx, DWORD PTR _nMaxAngelExp$2$[ebp]
  003b3	33 c0		 xor	 eax, eax
  003b5	39 8b 64 07 00
	00		 cmp	 DWORD PTR [ebx+1892], ecx
  003bb	7c 1b		 jl	 SHORT $LN15@AddExperie
  003bd	7f 08		 jg	 SHORT $LN158@AddExperie
  003bf	39 b3 60 07 00
	00		 cmp	 DWORD PTR [ebx+1888], esi
  003c5	76 11		 jbe	 SHORT $LN15@AddExperie
$LN158@AddExperie:

; 1213 : 			{
; 1214 : 				m_nAngelExp = nMaxAngelExp;

  003c7	89 b3 60 07 00
	00		 mov	 DWORD PTR [ebx+1888], esi

; 1215 : 				bAngelComplete = TRUE;

  003cd	b8 01 00 00 00	 mov	 eax, 1
  003d2	89 8b 64 07 00
	00		 mov	 DWORD PTR [ebx+1892], ecx
$LN15@AddExperie:

; 1216 : 			}
; 1217 : 			((CUser*)this)->AddAngelInfo( bAngelComplete );

  003d8	50		 push	 eax
  003d9	8b cb		 mov	 ecx, ebx
  003db	e8 00 00 00 00	 call	 ?AddAngelInfo@CUser@@QAEXH@Z ; CUser::AddAngelInfo
$LN12@AddExperie:

; 1218 : #endif // __WORLDSERVER
; 1219 : 		}
; 1220 : 	}
; 1221 : #endif // __CSC_VER8_5
; 1222 : #endif // __ANGEL_EXPERIENCE
; 1223 : 
; 1224 : 	if( IsBaseJob() )

  003e0	8b cb		 mov	 ecx, ebx
  003e2	e8 00 00 00 00	 call	 ?IsBaseJob@CMover@@QAEHXZ ; CMover::IsBaseJob
  003e7	85 c0		 test	 eax, eax
  003e9	0f 84 98 00 00
	00		 je	 $LN16@AddExperie

; 1225 : 	{
; 1226 : 		if( m_nLevel >= MAX_JOB_LEVEL )

  003ef	83 bb d8 05 00
	00 0f		 cmp	 DWORD PTR [ebx+1496], 15 ; 0000000fH
  003f6	0f 8d a3 00 00
	00		 jge	 $LN152@AddExperie
$LN32@AddExperie:

; 1282 : 		{
; 1283 : 			m_nLevel = MAX_3RD_LEGEND_LEVEL;
; 1284 : 			return TRUE;
; 1285 : 		}
; 1286 : 	}
; 1287 : #endif // __3RD_LEGEND16
; 1288 : 
; 1289 : 	int nLevelbuf = m_nLevel;
; 1290 : 	int nNextLevel = m_nLevel + 1;

  003fc	8b b3 d8 05 00
	00		 mov	 esi, DWORD PTR [ebx+1496]

; 1291 : 
; 1292 : #if __VER < 14 // __ANGEL_EXPERIENCE
; 1293 : #if __VER >= 8 //__CSC_VER8_5
; 1294 : 	if( bFirstCall && HasBuffByIk3( IK3_ANGEL_BUFF ) )
; 1295 : 	{
; 1296 : 		int nAngel = 100;
; 1297 : #ifdef __BUFF_1107
; 1298 : 		IBuff* pBuff	= m_buffs.GetBuffByIk3( IK3_ANGEL_BUFF );
; 1299 : 		WORD wId	= ( pBuff? pBuff->GetId(): 0 );
; 1300 : #else	// __BUFF_1107
; 1301 : 		LPSKILLINFLUENCE lpSkillIn = m_SkillState.GetItemBuf( IK3_ANGEL_BUFF );
; 1302 : 		WORD wId	= ( lpSkillIn? lpSkillIn->wID: 0 );
; 1303 : #endif	// __BUFF_1107
; 1304 : 		if( wId > 0 )
; 1305 : 		{
; 1306 : 			ItemProp* pItemProp = prj.GetItemProp( wId );
; 1307 : 			if( pItemProp )
; 1308 : 				nAngel = (float)pItemProp->nAdjParamVal1;
; 1309 : 		}
; 1310 : 		if( nAngel <= 0 || 100 < nAngel  )
; 1311 : 			nAngel = 100;
; 1312 : 		// Ë¬: ŔüÁ÷ Ŕü żŁÁ© ąöÇÁ Č°ĽşČ­ ČÄ ŔüÁ÷ÇĎ´Â °ćżě, ÇĘżä ĽöÄˇ°ˇ łĘą« Ĺ©´Ů.
; 1313 : 		EXPINTEGER nMaxAngelExp = prj.m_aExpCharacter[m_nAngelLevel].nExp1 / 100 * nAngel;
; 1314 : 		if( m_nAngelExp < nMaxAngelExp )
; 1315 : 		{
; 1316 : 			nExp /= 2;
; 1317 : 			m_nAngelExp += nExp;
; 1318 : #ifdef __WORLDSERVER
; 1319 : #ifdef __ANGEL_LOG
; 1320 : #ifdef __EXP_ANGELEXP_LOG
; 1321 : 			int nAngelExpPercent = m_nAngelExp * 100 / nMaxAngelExp;
; 1322 : 			int nNextAngelExpLog = (int)(((CUser*)this)->m_nAngelExpLog / 20 + 1) * 20;
; 1323 : 	
; 1324 : 			if( nAngelExpPercent >= nNextAngelExpLog )
; 1325 : 			{
; 1326 : 				((CUser*)this)->m_nAngelExpLog = nAngelExpPercent;
; 1327 : 				ItemProp* pItemProp = prj.GetItemProp( wId );
; 1328 : 
; 1329 : 				if( pItemProp )
; 1330 : 				{
; 1331 : 					LogItemInfo aLogItem;
; 1332 : 					aLogItem.Action = "&";
; 1333 : 					aLogItem.SendName = ((CUser*)this)->GetName();
; 1334 : 					aLogItem.RecvName = "ANGEL_EXP_LOG";
; 1335 : 					aLogItem.WorldId = ((CUser*)this)->GetWorld()->GetID();
; 1336 : 					aLogItem.Gold = aLogItem.Gold2 = ((CUser*)this)->GetGold();
; 1337 : 					//aLogItem.ItemName = pItemProp->szName;
; 1338 : 					_stprintf( aLogItem.szItemName, "%d", pItemProp->dwID );
; 1339 : 					aLogItem.Gold_1 = m_nAngelExp;
; 1340 : 					g_DPSrvr.OnLogItem( aLogItem );
; 1341 : 				}
; 1342 : 			}
; 1343 : #endif //  __EXP_ANGELEXP_LOG
; 1344 : #endif // __ANGEL_LOG
; 1345 : 
; 1346 : 			BOOL bAngelComplete = FALSE;
; 1347 : 			if( m_nAngelExp > nMaxAngelExp )
; 1348 : 			{
; 1349 : 				m_nAngelExp = nMaxAngelExp;
; 1350 : 				bAngelComplete = TRUE;
; 1351 : 			}
; 1352 : 			((CUser*)this)->AddAngelInfo( bAngelComplete );
; 1353 : #endif // __WORLDSERVER
; 1354 : 		}
; 1355 : 	}
; 1356 : #endif // __CSC_VER8_5
; 1357 : #endif // __ANGEL_EXPERIENCE
; 1358 : 
; 1359 : 	m_nExp1 += nExp;									// pxpżÍ °ü°čľřŔĚ exp°ˇ Áő°ˇ. ¸¸˝¦ŔĚ!

  00402	8b 95 28 ff ff
	ff		 mov	 edx, DWORD PTR _nExp$1$[ebp]
  00408	46		 inc	 esi
  00409	8b 83 e4 05 00
	00		 mov	 eax, DWORD PTR [ebx+1508]
  0040f	8b ca		 mov	 ecx, edx
  00411	01 8b e0 05 00
	00		 add	 DWORD PTR [ebx+1504], ecx
  00417	13 c7		 adc	 eax, edi

; 1360 : 	
; 1361 : 	if( bFirstCall )

  00419	83 7d 10 00	 cmp	 DWORD PTR _bFirstCall$[ebp], 0
  0041d	89 83 e4 05 00
	00		 mov	 DWORD PTR [ebx+1508], eax
  00423	0f 84 f5 01 00
	00		 je	 $LN36@AddExperie

; 1365 : 		if( bMonster && IsChaotic() )

  00429	83 7d 18 00	 cmp	 DWORD PTR _bMonster$[ebp], 0
  0042d	0f 84 eb 01 00
	00		 je	 $LN36@AddExperie
; File C:\IAGOS\server\v18\Source\Source\_Common\Mover.h

; 1257 : 	BOOL			IsChaotic( void ) { return m_dwPKPropensity > 0; }	/// Ä«żŔŔÎÁö

  00433	8b 83 58 07 00
	00		 mov	 eax, DWORD PTR [ebx+1880]
  00439	89 85 2c ff ff
	ff		 mov	 DWORD PTR _dwPropensity$1$[ebp], eax
  0043f	85 c0		 test	 eax, eax
; File C:\IAGOS\server\v18\Source\Source\_Common\MoverParam.cpp

; 1365 : 		if( bMonster && IsChaotic() )

  00441	0f 84 d7 01 00
	00		 je	 $LN36@AddExperie

; 1367 : 			m_dwPKExp	= (DWORD)( m_dwPKExp + nExp );

  00447	8b 83 5c 07 00
	00		 mov	 eax, DWORD PTR [ebx+1884]
  0044d	03 c2		 add	 eax, edx
; File C:\Program Files\Microsoft Visual Studio\2022\Professional\VC\Tools\MSVC\14.44.35207\include\xtree

; 1632 :         while (!_Trynode->_Isnil) {

  0044f	8b 93 d8 05 00
	00		 mov	 edx, DWORD PTR [ebx+1496]
; File C:\IAGOS\server\v18\Source\Source\_Common\MoverParam.cpp

; 1367 : 			m_dwPKExp	= (DWORD)( m_dwPKExp + nExp );

  00455	89 83 5c 07 00
	00		 mov	 DWORD PTR [ebx+1884], eax
; File C:\Program Files\Microsoft Visual Studio\2022\Professional\VC\Tools\MSVC\14.44.35207\include\xtree

; 1630 :         _Tree_find_result<_Nodeptr> _Result{{_Scary->_Myhead->_Parent, _Tree_child::_Right}, _Scary->_Myhead};

  0045b	8b 3d 94 4b 0b
	00		 mov	 edi, DWORD PTR ?prj@@3VCProject@@A+740244
  00461	8b cf		 mov	 ecx, edi
; File C:\IAGOS\server\v18\Source\Source\_Common\MoverParam.cpp

; 1367 : 			m_dwPKExp	= (DWORD)( m_dwPKExp + nExp );

  00463	89 85 24 ff ff
	ff		 mov	 DWORD PTR tv1014[ebp], eax
; File C:\Program Files\Microsoft Visual Studio\2022\Professional\VC\Tools\MSVC\14.44.35207\include\xtree

; 1630 :         _Tree_find_result<_Nodeptr> _Result{{_Scary->_Myhead->_Parent, _Tree_child::_Right}, _Scary->_Myhead};

  00469	8b 47 04	 mov	 eax, DWORD PTR [edi+4]

; 1632 :         while (!_Trynode->_Isnil) {

  0046c	80 78 0d 00	 cmp	 BYTE PTR [eax+13], 0
  00470	0f 85 26 01 00
	00		 jne	 $LN86@AddExperie
$LL85@AddExperie:
; File C:\Program Files\Microsoft Visual Studio\2022\Professional\VC\Tools\MSVC\14.44.35207\include\type_traits

; 2380 :         return _Left < _Right;

  00476	39 50 10	 cmp	 DWORD PTR [eax+16], edx
; File C:\Program Files\Microsoft Visual Studio\2022\Professional\VC\Tools\MSVC\14.44.35207\include\xtree

; 1634 :             if (_DEBUG_LT_PRED(_Getcomp(), _Traits::_Kfn(_Trynode->_Myval), _Keyval)) {

  00479	0f 8d 0f 01 00
	00		 jge	 $LN87@AddExperie

; 1635 :                 _Result._Location._Child = _Tree_child::_Right;
; 1636 :                 _Trynode                 = _Trynode->_Right;

  0047f	8b 40 08	 mov	 eax, DWORD PTR [eax+8]

; 1637 :             } else {

  00482	e9 0b 01 00 00	 jmp	 $LN88@AddExperie
$LN16@AddExperie:
; File C:\IAGOS\server\v18\Source\Source\_Common\MoverParam.cpp

; 1232 : 	else if( IsExpert() )

  00487	8b cb		 mov	 ecx, ebx
  00489	e8 00 00 00 00	 call	 ?IsExpert@CMover@@QAEHXZ ; CMover::IsExpert
  0048e	85 c0		 test	 eax, eax
  00490	74 39		 je	 SHORT $LN19@AddExperie

; 1233 : 	{
; 1234 : 		if( m_nLevel >= MAX_JOB_LEVEL + MAX_EXP_LEVEL )

  00492	83 bb d8 05 00
	00 3c		 cmp	 DWORD PTR [ebx+1496], 60 ; 0000003cH
  00499	0f 8c 5d ff ff
	ff		 jl	 $LN32@AddExperie
$LN152@AddExperie:
  0049f	5f		 pop	 edi

; 1605 : 		return TRUE;
; 1606 : 	}
; 1607 : 
; 1608 : 	return FALSE;
; 1609 : }

  004a0	5e		 pop	 esi
  004a1	c7 83 e0 05 00
	00 00 00 00 00	 mov	 DWORD PTR [ebx+1504], 0
  004ab	b8 01 00 00 00	 mov	 eax, 1
  004b0	c7 83 e4 05 00
	00 00 00 00 00	 mov	 DWORD PTR [ebx+1508], 0
  004ba	5b		 pop	 ebx
  004bb	8b 4d fc	 mov	 ecx, DWORD PTR __$ArrayPad$[ebp]
  004be	33 cd		 xor	 ecx, ebp
  004c0	e8 00 00 00 00	 call	 @__security_check_cookie@4
  004c5	8b e5		 mov	 esp, ebp
  004c7	5d		 pop	 ebp
  004c8	c2 14 00	 ret	 20			; 00000014H
$LN19@AddExperie:

; 1235 : 		{
; 1236 : 			m_nExp1		= 0;
; 1237 : 			return TRUE;
; 1238 : 		}
; 1239 : 	}
; 1240 : 	else if( IsPro() )

  004cb	8b cb		 mov	 ecx, ebx
  004cd	e8 00 00 00 00	 call	 ?IsPro@CMover@@QAEHXZ	; CMover::IsPro
  004d2	85 c0		 test	 eax, eax
  004d4	74 2f		 je	 SHORT $LN22@AddExperie
$LN236@AddExperie:

; 1605 : 		return TRUE;
; 1606 : 	}
; 1607 : 
; 1608 : 	return FALSE;
; 1609 : }

  004d6	83 bb d8 05 00
	00 78		 cmp	 DWORD PTR [ebx+1496], 120 ; 00000078H
  004dd	0f 8e 19 ff ff
	ff		 jle	 $LN32@AddExperie
  004e3	5f		 pop	 edi
  004e4	5e		 pop	 esi
  004e5	c7 83 d8 05 00
	00 78 00 00 00	 mov	 DWORD PTR [ebx+1496], 120 ; 00000078H
  004ef	b8 01 00 00 00	 mov	 eax, 1
  004f4	5b		 pop	 ebx
  004f5	8b 4d fc	 mov	 ecx, DWORD PTR __$ArrayPad$[ebp]
  004f8	33 cd		 xor	 ecx, ebp
  004fa	e8 00 00 00 00	 call	 @__security_check_cookie@4
  004ff	8b e5		 mov	 esp, ebp
  00501	5d		 pop	 ebp
  00502	c2 14 00	 ret	 20			; 00000014H
$LN22@AddExperie:

; 1241 : 	{
; 1242 : 		if( m_nLevel > MAX_GENERAL_LEVEL )
; 1243 : 		{
; 1244 : 			m_nLevel = MAX_GENERAL_LEVEL;
; 1245 : 			return TRUE;
; 1246 : 		}		
; 1247 : 	}
; 1248 : #if __VER >= 10 // __LEGEND	//	10Â÷ Ŕü˝Â˝Ă˝şĹŰ	Neuz, World, Trans
; 1249 : 	else if(IsMaster())

  00505	8b cb		 mov	 ecx, ebx
  00507	e8 00 00 00 00	 call	 ?IsMaster@CMover@@QAEHXZ ; CMover::IsMaster
  0050c	85 c0		 test	 eax, eax
  0050e	75 c6		 jne	 SHORT $LN236@AddExperie

; 1250 : 	{
; 1251 : 		if( m_nLevel > MAX_GENERAL_LEVEL )
; 1252 : 		{
; 1253 : 			m_nLevel = MAX_GENERAL_LEVEL;
; 1254 : 			return TRUE;
; 1255 : 		}
; 1256 : #if __VER < 14 // __ANGEL_EXPERIENCE
; 1257 : 		else
; 1258 : 		{
; 1259 : 			nExp /= 2;
; 1260 : 		}
; 1261 : #endif // __ANGEL_EXPERIENCE 
; 1262 : 	}
; 1263 : 	else if (IsHero())

  00510	8b cb		 mov	 ecx, ebx
  00512	e8 00 00 00 00	 call	 ?IsHero@CMover@@QAEHXZ	; CMover::IsHero
  00517	85 c0		 test	 eax, eax
  00519	74 32		 je	 SHORT $LN28@AddExperie

; 1264 : 	{
; 1265 : 		if (m_nLevel > MAX_LEGEND_LEVEL)

  0051b	81 bb d8 05 00
	00 82 00 00 00	 cmp	 DWORD PTR [ebx+1496], 130 ; 00000082H
  00525	0f 8e d1 fe ff
	ff		 jle	 $LN32@AddExperie

; 1605 : 		return TRUE;
; 1606 : 	}
; 1607 : 
; 1608 : 	return FALSE;
; 1609 : }

  0052b	5f		 pop	 edi
  0052c	5e		 pop	 esi
  0052d	c7 83 d8 05 00
	00 82 00 00 00	 mov	 DWORD PTR [ebx+1496], 130 ; 00000082H
  00537	b8 01 00 00 00	 mov	 eax, 1
  0053c	5b		 pop	 ebx
  0053d	8b 4d fc	 mov	 ecx, DWORD PTR __$ArrayPad$[ebp]
  00540	33 cd		 xor	 ecx, ebp
  00542	e8 00 00 00 00	 call	 @__security_check_cookie@4
  00547	8b e5		 mov	 esp, ebp
  00549	5d		 pop	 ebp
  0054a	c2 14 00	 ret	 20			; 00000014H
$LN28@AddExperie:

; 1266 : 		{
; 1267 : 			m_nLevel = MAX_LEGEND_LEVEL; 
; 1268 : 			return TRUE; 
; 1269 : 		}
; 1270 : #if __VER < 14 // __ANGEL_EXPERIENCE 
; 1271 : 		else
; 1272 : 		{
; 1273 : 			nExp /= 2;
; 1274 : 		}
; 1275 : #endif // __ANGEL_EXPERIENCE
; 1276 : 	}
; 1277 : #endif	//__LEGEND	//	10Â÷ Ŕü˝Â˝Ă˝şĹŰ	Neuz, World, Trans
; 1278 : #ifdef __3RD_LEGEND16
; 1279 : 	else if( IsLegendHero() )

  0054d	8b cb		 mov	 ecx, ebx
  0054f	e8 00 00 00 00	 call	 ?IsLegendHero@CMover@@QAEHXZ ; CMover::IsLegendHero
  00554	85 c0		 test	 eax, eax
  00556	0f 84 a0 fe ff
	ff		 je	 $LN32@AddExperie

; 1280 : 	{
; 1281 : 		if( m_nLevel > MAX_3RD_LEGEND_LEVEL )

  0055c	81 bb d8 05 00
	00 96 00 00 00	 cmp	 DWORD PTR [ebx+1496], 150 ; 00000096H
  00566	0f 8e 90 fe ff
	ff		 jle	 $LN32@AddExperie

; 1605 : 		return TRUE;
; 1606 : 	}
; 1607 : 
; 1608 : 	return FALSE;
; 1609 : }

  0056c	5f		 pop	 edi
  0056d	5e		 pop	 esi
  0056e	c7 83 d8 05 00
	00 96 00 00 00	 mov	 DWORD PTR [ebx+1496], 150 ; 00000096H
  00578	b8 01 00 00 00	 mov	 eax, 1
  0057d	5b		 pop	 ebx
  0057e	8b 4d fc	 mov	 ecx, DWORD PTR __$ArrayPad$[ebp]
  00581	33 cd		 xor	 ecx, ebp
  00583	e8 00 00 00 00	 call	 @__security_check_cookie@4
  00588	8b e5		 mov	 esp, ebp
  0058a	5d		 pop	 ebp
  0058b	c2 14 00	 ret	 20			; 00000014H
$LN87@AddExperie:
; File C:\Program Files\Microsoft Visual Studio\2022\Professional\VC\Tools\MSVC\14.44.35207\include\xtree

; 1639 :                 _Result._Bound           = _Trynode;

  0058e	8b c8		 mov	 ecx, eax

; 1640 :                 _Trynode                 = _Trynode->_Left;

  00590	8b 00		 mov	 eax, DWORD PTR [eax]
$LN88@AddExperie:

; 1632 :         while (!_Trynode->_Isnil) {

  00592	80 78 0d 00	 cmp	 BYTE PTR [eax+13], 0
  00596	0f 84 da fe ff
	ff		 je	 $LL85@AddExperie
$LN86@AddExperie:

; 1624 :         return !_Bound->_Isnil && !_DEBUG_LT_PRED(_Getcomp(), _Keyval, _Traits::_Kfn(_Bound->_Myval));

  0059c	80 79 0d 00	 cmp	 BYTE PTR [ecx+13], 0
  005a0	75 05		 jne	 SHORT $LN82@AddExperie
; File C:\Program Files\Microsoft Visual Studio\2022\Professional\VC\Tools\MSVC\14.44.35207\include\type_traits

; 2380 :         return _Left < _Right;

  005a2	3b 51 10	 cmp	 edx, DWORD PTR [ecx+16]
; File C:\Program Files\Microsoft Visual Studio\2022\Professional\VC\Tools\MSVC\14.44.35207\include\xtree

; 1624 :         return !_Bound->_Isnil && !_DEBUG_LT_PRED(_Getcomp(), _Keyval, _Traits::_Kfn(_Bound->_Myval));

  005a5	7d 02		 jge	 SHORT $LN81@AddExperie
$LN82@AddExperie:

; 1389 :         return _Get_scary()->_Myhead;

  005a7	8b cf		 mov	 ecx, edi
$LN81@AddExperie:

; 37   :     _Tree_unchecked_const_iterator(_Nodeptr _Pnode, const _Mytree* _Plist) noexcept : _Ptr(_Pnode) {

  005a9	3b cf		 cmp	 ecx, edi
; File C:\IAGOS\server\v18\Source\Source\_Common\Project.h

; 1297 : 	if( it != m_PKSetting.mapLevelExp.end() )

  005ab	74 09		 je	 SHORT $LN77@AddExperie

; 1298 : 		return it->second;

  005ad	8b 79 14	 mov	 edi, DWORD PTR [ecx+20]
; File C:\IAGOS\server\v18\Source\Source\_Common\MoverParam.cpp

; 1370 : 			if( nLevelPKExp != 0 )

  005b0	85 ff		 test	 edi, edi
  005b2	74 6a		 je	 SHORT $LN36@AddExperie
  005b4	eb 05		 jmp	 SHORT $LN151@AddExperie
$LN77@AddExperie:
; File C:\IAGOS\server\v18\Source\Source\_Common\Project.h

; 1299 : 	return 4400000;

  005b6	bf 80 23 43 00	 mov	 edi, 4400000		; 00432380H
$LN151@AddExperie:
; File C:\IAGOS\server\v18\Source\Source\_Common\MoverParam.cpp

; 1372 : 				int nSubExp = m_dwPKExp / nLevelPKExp;

  005bb	8b 85 24 ff ff
	ff		 mov	 eax, DWORD PTR tv1014[ebp]
  005c1	33 d2		 xor	 edx, edx
  005c3	f7 f7		 div	 edi
  005c5	8b c8		 mov	 ecx, eax

; 1373 : 				if( nSubExp )

  005c7	85 c9		 test	 ecx, ecx
  005c9	74 53		 je	 SHORT $LN36@AddExperie

; 1374 : 				{
; 1375 : 					SetPKPropensity( GetPKPropensity() - ( m_dwPKExp / nLevelPKExp ) );

  005cb	8b 85 2c ff ff
	ff		 mov	 eax, DWORD PTR _dwPropensity$1$[ebp]
  005d1	2b c1		 sub	 eax, ecx
  005d3	8b cb		 mov	 ecx, ebx
  005d5	50		 push	 eax
  005d6	e8 00 00 00 00	 call	 ?SetPKPropensity@CMover@@QAEXK@Z ; CMover::SetPKPropensity

; 1376 : 					if( dwPropensity <= GetPKPropensity() )

  005db	8b 85 2c ff ff
	ff		 mov	 eax, DWORD PTR _dwPropensity$1$[ebp]
  005e1	3b 83 58 07 00
	00		 cmp	 eax, DWORD PTR [ebx+1880]
  005e7	77 09		 ja	 SHORT $LN37@AddExperie

; 1377 : 						SetPKPropensity( 0 );

  005e9	6a 00		 push	 0
  005eb	8b cb		 mov	 ecx, ebx
  005ed	e8 00 00 00 00	 call	 ?SetPKPropensity@CMover@@QAEXK@Z ; CMover::SetPKPropensity
$LN37@AddExperie:

; 1378 : 					m_dwPKExp %= nLevelPKExp;

  005f2	8b 83 5c 07 00
	00		 mov	 eax, DWORD PTR [ebx+1884]
  005f8	33 d2		 xor	 edx, edx
  005fa	f7 f7		 div	 edi

; 1379 : 					
; 1380 : 					g_UserMng.AddPKPropensity( this );

  005fc	53		 push	 ebx
  005fd	b9 00 00 00 00	 mov	 ecx, OFFSET ?g_UserMng@@3VCUserMng@@A ; g_UserMng
  00602	89 93 5c 07 00
	00		 mov	 DWORD PTR [ebx+1884], edx
  00608	e8 00 00 00 00	 call	 ?AddPKPropensity@CUserMng@@QAEXPAVCMover@@@Z ; CUserMng::AddPKPropensity

; 1381 : 					g_dpDBClient.SendLogPkPvp( this, NULL, 0, 'P' );

  0060d	6a 50		 push	 80			; 00000050H
  0060f	6a 00		 push	 0
  00611	6a 00		 push	 0
  00613	53		 push	 ebx
  00614	b9 00 00 00 00	 mov	 ecx, OFFSET ?g_dpDBClient@@3VCDPDatabaseClient@@A ; g_dpDBClient
  00619	e8 00 00 00 00	 call	 ?SendLogPkPvp@CDPDatabaseClient@@QAEXPAVCMover@@0HD@Z ; CDPDatabaseClient::SendLogPkPvp
$LN36@AddExperie:

; 1382 : 				}
; 1383 : 			}
; 1384 : 		}
; 1385 : #endif // __WORLDSERVER
; 1386 : #endif // __VER >= 8 // __S8_PK
; 1387 : 	}
; 1388 : 
; 1389 : 	if( m_nExp1 >= prj.m_aExpCharacter[nNextLevel].nExp1 )	// ·ąş§ľ÷

  0061e	8b 8b e4 05 00
	00		 mov	 ecx, DWORD PTR [ebx+1508]
  00624	8b fe		 mov	 edi, esi
  00626	8b 83 e0 05 00
	00		 mov	 eax, DWORD PTR [ebx+1504]
  0062c	c1 e7 05	 shl	 edi, 5
  0062f	89 85 30 ff ff
	ff		 mov	 DWORD PTR _nExptmp$2$[ebp], eax
  00635	89 8d 2c ff ff
	ff		 mov	 DWORD PTR _nExptmp$1$[ebp], ecx
  0063b	3b 8f d4 4f 00
	00		 cmp	 ecx, DWORD PTR ?prj@@3VCProject@@A[edi+20436]
  00641	7c 45		 jl	 SHORT $LN38@AddExperie
  00643	7f 08		 jg	 SHORT $LN159@AddExperie
  00645	3b 87 d0 4f 00
	00		 cmp	 eax, DWORD PTR ?prj@@3VCProject@@A[edi+20432]
  0064b	72 3b		 jb	 SHORT $LN38@AddExperie
$LN159@AddExperie:

; 1390 : 	{
; 1391 : #ifdef __3RD_LEGEND16
; 1392 : 		if( IsLegendHero() && ( nNextLevel > MAX_3RD_LEGEND_LEVEL ) )

  0064d	8b cb		 mov	 ecx, ebx
  0064f	e8 00 00 00 00	 call	 ?IsLegendHero@CMover@@QAEHXZ ; CMover::IsLegendHero
  00654	85 c0		 test	 eax, eax
  00656	74 45		 je	 SHORT $LN147@AddExperie
  00658	81 fe 96 00 00
	00		 cmp	 esi, 150		; 00000096H
  0065e	7e 3d		 jle	 SHORT $LN147@AddExperie

; 1393 : 		{
; 1394 : 			m_nLevel = MAX_3RD_LEGEND_LEVEL;

  00660	c7 83 d8 05 00
	00 96 00 00 00	 mov	 DWORD PTR [ebx+1496], 150 ; 00000096H
$LN234@AddExperie:

; 1605 : 		return TRUE;
; 1606 : 	}
; 1607 : 
; 1608 : 	return FALSE;
; 1609 : }

  0066a	8b 8f d0 4f 00
	00		 mov	 ecx, DWORD PTR ?prj@@3VCProject@@A[edi+20432]
  00670	8b 87 d4 4f 00
	00		 mov	 eax, DWORD PTR ?prj@@3VCProject@@A[edi+20436]
$LN239@AddExperie:
  00676	83 e9 01	 sub	 ecx, 1
  00679	89 8b e0 05 00
	00		 mov	 DWORD PTR [ebx+1504], ecx
  0067f	83 d8 00	 sbb	 eax, 0
  00682	89 83 e4 05 00
	00		 mov	 DWORD PTR [ebx+1508], eax
$LN38@AddExperie:
  00688	5f		 pop	 edi
  00689	5e		 pop	 esi
  0068a	33 c0		 xor	 eax, eax
  0068c	5b		 pop	 ebx
  0068d	8b 4d fc	 mov	 ecx, DWORD PTR __$ArrayPad$[ebp]
  00690	33 cd		 xor	 ecx, ebp
  00692	e8 00 00 00 00	 call	 @__security_check_cookie@4
  00697	8b e5		 mov	 esp, ebp
  00699	5d		 pop	 ebp
  0069a	c2 14 00	 ret	 20			; 00000014H
$LN147@AddExperie:

; 1395 : 
; 1396 : 			m_nExp1  = (prj.m_aExpCharacter[nNextLevel].nExp1 - 1);
; 1397 : 			return FALSE;
; 1398 : 		}
; 1399 : 		else if (IsHero() && (nNextLevel > MAX_LEGEND_LEVEL))

  0069d	8b cb		 mov	 ecx, ebx
  0069f	e8 00 00 00 00	 call	 ?IsHero@CMover@@QAEHXZ	; CMover::IsHero
  006a4	85 c0		 test	 eax, eax
  006a6	74 14		 je	 SHORT $LN148@AddExperie
  006a8	81 fe 82 00 00
	00		 cmp	 esi, 130		; 00000082H
  006ae	7e 0c		 jle	 SHORT $LN148@AddExperie

; 1400 : 		{
; 1401 : 			m_nLevel = MAX_LEGEND_LEVEL;

  006b0	c7 83 d8 05 00
	00 82 00 00 00	 mov	 DWORD PTR [ebx+1496], 130 ; 00000082H

; 1402 : 
; 1403 : 			m_nExp1 = (prj.m_aExpCharacter[nNextLevel].nExp1 - 1);
; 1404 : 			return FALSE;

  006ba	eb ae		 jmp	 SHORT $LN234@AddExperie
$LN148@AddExperie:

; 1405 : 		}
; 1406 : 		else if( !IsHero() && !IsLegendHero() && nNextLevel > MAX_GENERAL_LEVEL )

  006bc	8b cb		 mov	 ecx, ebx
  006be	e8 00 00 00 00	 call	 ?IsHero@CMover@@QAEHXZ	; CMover::IsHero
  006c3	85 c0		 test	 eax, eax
  006c5	75 1c		 jne	 SHORT $LN43@AddExperie
  006c7	8b cb		 mov	 ecx, ebx
  006c9	e8 00 00 00 00	 call	 ?IsLegendHero@CMover@@QAEHXZ ; CMover::IsLegendHero
  006ce	85 c0		 test	 eax, eax
  006d0	75 11		 jne	 SHORT $LN43@AddExperie
  006d2	83 fe 78	 cmp	 esi, 120		; 00000078H
  006d5	7e 0c		 jle	 SHORT $LN43@AddExperie

; 1407 : 		{
; 1408 : 			m_nLevel = MAX_GENERAL_LEVEL;

  006d7	c7 83 d8 05 00
	00 78 00 00 00	 mov	 DWORD PTR [ebx+1496], 120 ; 00000078H

; 1409 : 
; 1410 : 			m_nExp1  = (prj.m_aExpCharacter[nNextLevel].nExp1 - 1);
; 1411 : 			return FALSE;

  006e1	eb 87		 jmp	 SHORT $LN234@AddExperie
$LN43@AddExperie:

; 1412 : 		}
; 1413 : #else // __3RD_LEGEND16
; 1414 : #if __VER >= 10 // __LEGEND	//	10Â÷ Ŕü˝Â˝Ă˝şĹŰ	Neuz, World, Trans
; 1415 : 		if( IsHero() && ( nNextLevel > MAX_LEGEND_LEVEL ) )
; 1416 : 		{
; 1417 : 			m_nLevel = MAX_LEGEND_LEVEL;
; 1418 : 
; 1419 : 			m_nExp1  = (prj.m_aExpCharacter[nNextLevel].nExp1 - 1);
; 1420 : 			return FALSE;
; 1421 : 		}
; 1422 : 		else if( !IsHero() && nNextLevel > MAX_GENERAL_LEVEL )
; 1423 : 		{
; 1424 : 			m_nLevel = MAX_GENERAL_LEVEL;
; 1425 : 
; 1426 : 			m_nExp1  = (prj.m_aExpCharacter[nNextLevel].nExp1 - 1);
; 1427 : 			return FALSE;
; 1428 : 		}
; 1429 : #else //__LEGEND	//	10Â÷ Ŕü˝Â˝Ă˝şĹŰ	Neuz, World, Trans
; 1430 : 		if( nNextLevel > MAX_GENERAL_LEVEL )
; 1431 : 		{
; 1432 : 			m_nLevel = MAX_GENERAL_LEVEL;
; 1433 : 
; 1434 : 			m_nExp1  = (prj.m_aExpCharacter[nNextLevel].nExp1 - 1);
; 1435 : 			return FALSE;
; 1436 : 		}
; 1437 : #endif	//__LEGEND	//	10Â÷ Ŕü˝Â˝Ă˝şĹŰ	Neuz, World, Trans
; 1438 : #endif // __3RD_LEGEND16
; 1439 : 		EXPINTEGER nExptmp;
; 1440 : //		BOOL f	= FALSE;
; 1441 : 
; 1442 : 		{
; 1443 : 			m_nRemainGP += prj.m_aExpCharacter[ nNextLevel ].dwLPPoint;

  006e3	8b 83 04 06 00
	00		 mov	 eax, DWORD PTR [ebx+1540]

; 1444 : #if __VER >= 10 // __LEGEND	//	10Â÷ Ŕü˝Â˝Ă˝şĹŰ	Neuz, World, Trans
; 1445 : #ifdef __3RD_LEGEND16
; 1446 : 			if( IsMaster() || IsHero() || IsLegendHero() )

  006e9	8b cb		 mov	 ecx, ebx
  006eb	03 87 e0 4f 00
	00		 add	 eax, DWORD PTR ?prj@@3VCProject@@A[edi+20448]
  006f1	89 85 28 ff ff
	ff		 mov	 DWORD PTR $T2[ebp], eax
  006f7	89 83 04 06 00
	00		 mov	 DWORD PTR [ebx+1540], eax
  006fd	e8 00 00 00 00	 call	 ?IsMaster@CMover@@QAEHXZ ; CMover::IsMaster
  00702	85 c0		 test	 eax, eax
  00704	75 16		 jne	 SHORT $LN45@AddExperie
  00706	8b cb		 mov	 ecx, ebx
  00708	e8 00 00 00 00	 call	 ?IsHero@CMover@@QAEHXZ	; CMover::IsHero
  0070d	85 c0		 test	 eax, eax
  0070f	75 0b		 jne	 SHORT $LN45@AddExperie
  00711	8b cb		 mov	 ecx, ebx
  00713	e8 00 00 00 00	 call	 ?IsLegendHero@CMover@@QAEHXZ ; CMover::IsLegendHero
  00718	85 c0		 test	 eax, eax
  0071a	74 13		 je	 SHORT $LN149@AddExperie
$LN45@AddExperie:

; 1447 : #else // __3RD_LEGEND16
; 1448 : 			if( IsMaster() || IsHero() )
; 1449 : #endif // __3RD_LEGEND16
; 1450 : 				m_nRemainGP++;

  0071c	8b 85 28 ff ff
	ff		 mov	 eax, DWORD PTR $T2[ebp]
  00722	40		 inc	 eax
  00723	89 85 28 ff ff
	ff		 mov	 DWORD PTR $T2[ebp], eax
  00729	89 83 04 06 00
	00		 mov	 DWORD PTR [ebx+1540], eax
$LN149@AddExperie:

; 1451 : #endif	//__LEGEND	//	10Â÷ Ŕü˝Â˝Ă˝şĹŰ	Neuz, World, Trans
; 1452 : 
; 1453 : 			nExptmp		= m_nExp1 - prj.m_aExpCharacter[nNextLevel].nExp1;

  0072f	8b 85 30 ff ff
	ff		 mov	 eax, DWORD PTR _nExptmp$2$[ebp]

; 1454 : #if __VER >= 8  
; 1455 : 			m_nExp1		= 0;
; 1456 : #else //  __VER >= 8  
; 1457 : 			m_nExp1		= m_nDeathExp		= 0;
; 1458 : #endif //  __VER >= 8  
; 1459 : 			m_nLevel	= nNextLevel;
; 1460 : 
; 1461 : //			if( m_nLevel > m_nDeathLevel )
; 1462 : //				f	= TRUE;
; 1463 : 
; 1464 : 			BOOL bLevelUp = TRUE;
; 1465 : 			if( IsBaseJob() && m_nLevel > MAX_JOB_LEVEL ) 

  00735	8b cb		 mov	 ecx, ebx
  00737	2b 87 d0 4f 00
	00		 sub	 eax, DWORD PTR ?prj@@3VCProject@@A[edi+20432]
  0073d	89 85 30 ff ff
	ff		 mov	 DWORD PTR _nExptmp$2$[ebp], eax
  00743	8b 85 2c ff ff
	ff		 mov	 eax, DWORD PTR _nExptmp$1$[ebp]
  00749	1b 87 d4 4f 00
	00		 sbb	 eax, DWORD PTR ?prj@@3VCProject@@A[edi+20436]
  0074f	89 85 2c ff ff
	ff		 mov	 DWORD PTR _nExptmp$1$[ebp], eax
  00755	c7 83 e0 05 00
	00 00 00 00 00	 mov	 DWORD PTR [ebx+1504], 0
  0075f	c7 83 e4 05 00
	00 00 00 00 00	 mov	 DWORD PTR [ebx+1508], 0
  00769	89 b3 d8 05 00
	00		 mov	 DWORD PTR [ebx+1496], esi
  0076f	e8 00 00 00 00	 call	 ?IsBaseJob@CMover@@QAEHXZ ; CMover::IsBaseJob
  00774	85 c0		 test	 eax, eax
  00776	74 0c		 je	 SHORT $LN46@AddExperie
  00778	83 fe 0f	 cmp	 esi, 15			; 0000000fH
  0077b	7e 07		 jle	 SHORT $LN46@AddExperie

; 1466 : 			{
; 1467 : 				m_nLevel = MAX_JOB_LEVEL;

  0077d	b8 0f 00 00 00	 mov	 eax, 15			; 0000000fH

; 1468 : 				bLevelUp = FALSE;
; 1469 : 			}

  00782	eb 19		 jmp	 SHORT $LN57@AddExperie
$LN46@AddExperie:

; 1470 : 			else if( IsExpert() && m_nLevel > MAX_JOB_LEVEL + MAX_EXP_LEVEL )

  00784	8b cb		 mov	 ecx, ebx
  00786	e8 00 00 00 00	 call	 ?IsExpert@CMover@@QAEHXZ ; CMover::IsExpert
  0078b	85 c0		 test	 eax, eax
  0078d	0f 84 7b 00 00
	00		 je	 $LN48@AddExperie
  00793	83 fe 3c	 cmp	 esi, 60			; 0000003cH
  00796	7e 76		 jle	 SHORT $LN48@AddExperie

; 1471 : 			{
; 1472 : 				m_nLevel = MAX_JOB_LEVEL + MAX_EXP_LEVEL;

  00798	b8 3c 00 00 00	 mov	 eax, 60			; 0000003cH
$LN57@AddExperie:

; 1573 : #endif // __CAMPUS
; 1574 : 				}
; 1575 : #endif // __WORLDSERVER
; 1576 : 			}
; 1577 : 			else
; 1578 : 			{
; 1579 : 				m_nRemainGP -= prj.m_aExpCharacter[ nNextLevel ].dwLPPoint;

  0079d	8b bd 28 ff ff
	ff		 mov	 edi, DWORD PTR $T2[ebp]

; 1580 : #if __VER >= 10 // __LEGEND	//	10Â÷ Ŕü˝Â˝Ă˝şĹŰ	Neuz, World, Trans
; 1581 : #ifdef __3RD_LEGEND16
; 1582 : 				if( IsMaster() || IsHero() || IsLegendHero() )

  007a3	8b cb		 mov	 ecx, ebx
  007a5	c1 e6 05	 shl	 esi, 5
  007a8	89 83 d8 05 00
	00		 mov	 DWORD PTR [ebx+1496], eax
  007ae	2b be e0 4f 00
	00		 sub	 edi, DWORD PTR ?prj@@3VCProject@@A[esi+20448]
  007b4	89 bb 04 06 00
	00		 mov	 DWORD PTR [ebx+1540], edi
  007ba	e8 00 00 00 00	 call	 ?IsMaster@CMover@@QAEHXZ ; CMover::IsMaster
  007bf	85 c0		 test	 eax, eax
  007c1	75 16		 jne	 SHORT $LN68@AddExperie
  007c3	8b cb		 mov	 ecx, ebx
  007c5	e8 00 00 00 00	 call	 ?IsHero@CMover@@QAEHXZ	; CMover::IsHero
  007ca	85 c0		 test	 eax, eax
  007cc	75 0b		 jne	 SHORT $LN68@AddExperie
  007ce	8b cb		 mov	 ecx, ebx
  007d0	e8 00 00 00 00	 call	 ?IsLegendHero@CMover@@QAEHXZ ; CMover::IsLegendHero
  007d5	85 c0		 test	 eax, eax
  007d7	74 09		 je	 SHORT $LN67@AddExperie
$LN68@AddExperie:

; 1583 : #else // __3RD_LEGEND16
; 1584 : 				if( IsMaster() || IsHero() )
; 1585 : #endif // __3RD_LEGEND16
; 1586 : 					m_nRemainGP--;

  007d9	8d 47 ff	 lea	 eax, DWORD PTR [edi-1]
  007dc	89 83 04 06 00
	00		 mov	 DWORD PTR [ebx+1540], eax
$LN67@AddExperie:

; 1605 : 		return TRUE;
; 1606 : 	}
; 1607 : 
; 1608 : 	return FALSE;
; 1609 : }

  007e2	5f		 pop	 edi
  007e3	5e		 pop	 esi
  007e4	c7 83 e0 05 00
	00 00 00 00 00	 mov	 DWORD PTR [ebx+1504], 0
  007ee	b8 01 00 00 00	 mov	 eax, 1
  007f3	c7 83 e4 05 00
	00 00 00 00 00	 mov	 DWORD PTR [ebx+1508], 0
  007fd	5b		 pop	 ebx
  007fe	8b 4d fc	 mov	 ecx, DWORD PTR __$ArrayPad$[ebp]
  00801	33 cd		 xor	 ecx, ebp
  00803	e8 00 00 00 00	 call	 @__security_check_cookie@4
  00808	8b e5		 mov	 esp, ebp
  0080a	5d		 pop	 ebp
  0080b	c2 14 00	 ret	 20			; 00000014H
$LN48@AddExperie:

; 1473 : 				bLevelUp = FALSE;
; 1474 : 			}
; 1475 : 			else if( IsPro() && m_nLevel > MAX_GENERAL_LEVEL )

  0080e	8b cb		 mov	 ecx, ebx
  00810	e8 00 00 00 00	 call	 ?IsPro@CMover@@QAEHXZ	; CMover::IsPro
  00815	85 c0		 test	 eax, eax
  00817	74 23		 je	 SHORT $LN50@AddExperie
  00819	83 fe 78	 cmp	 esi, 120		; 00000078H
  0081c	7e 1e		 jle	 SHORT $LN50@AddExperie
$LN237@AddExperie:

; 1605 : 		return TRUE;
; 1606 : 	}
; 1607 : 
; 1608 : 	return FALSE;
; 1609 : }

  0081e	c1 e6 05	 shl	 esi, 5
  00821	c7 83 d8 05 00
	00 78 00 00 00	 mov	 DWORD PTR [ebx+1496], 120 ; 00000078H
  0082b	8b 8e d0 4f 00
	00		 mov	 ecx, DWORD PTR ?prj@@3VCProject@@A[esi+20432]
  00831	8b 86 d4 4f 00
	00		 mov	 eax, DWORD PTR ?prj@@3VCProject@@A[esi+20436]
  00837	e9 3a fe ff ff	 jmp	 $LN239@AddExperie
$LN50@AddExperie:

; 1476 : 			{
; 1477 : 				m_nLevel = MAX_GENERAL_LEVEL;
; 1478 : 				bLevelUp = FALSE;
; 1479 : 
; 1480 : 				m_nExp1  = (prj.m_aExpCharacter[nNextLevel].nExp1 - 1);
; 1481 : 				nExptmp  = 0;
; 1482 : 				return FALSE;
; 1483 : 			}
; 1484 : #if __VER >= 10 // __LEGEND	//	10Â÷ Ŕü˝Â˝Ă˝şĹŰ	Neuz, World, Trans
; 1485 : 			else if( IsMaster() && m_nLevel > MAX_GENERAL_LEVEL )

  0083c	8b cb		 mov	 ecx, ebx
  0083e	e8 00 00 00 00	 call	 ?IsMaster@CMover@@QAEHXZ ; CMover::IsMaster
  00843	85 c0		 test	 eax, eax
  00845	74 05		 je	 SHORT $LN52@AddExperie
  00847	83 fe 78	 cmp	 esi, 120		; 00000078H
  0084a	7f d2		 jg	 SHORT $LN237@AddExperie
$LN52@AddExperie:

; 1486 : 			{
; 1487 : 				m_nLevel = MAX_GENERAL_LEVEL;
; 1488 : 				bLevelUp = FALSE;
; 1489 : 				m_nExp1  = (prj.m_aExpCharacter[nNextLevel].nExp1 - 1);
; 1490 : 				nExptmp  = 0;
; 1491 : 				return FALSE;
; 1492 : 			}
; 1493 : #ifdef __3RD_LEGEND16
; 1494 : 			else if (IsHero() && (m_nLevel > MAX_LEGEND_LEVEL))

  0084c	8b cb		 mov	 ecx, ebx
  0084e	e8 00 00 00 00	 call	 ?IsHero@CMover@@QAEHXZ	; CMover::IsHero
  00853	85 c0		 test	 eax, eax
  00855	74 26		 je	 SHORT $LN54@AddExperie
  00857	81 fe 82 00 00
	00		 cmp	 esi, 130		; 00000082H
  0085d	7e 1e		 jle	 SHORT $LN54@AddExperie

; 1605 : 		return TRUE;
; 1606 : 	}
; 1607 : 
; 1608 : 	return FALSE;
; 1609 : }

  0085f	c1 e6 05	 shl	 esi, 5
  00862	c7 83 d8 05 00
	00 82 00 00 00	 mov	 DWORD PTR [ebx+1496], 130 ; 00000082H
  0086c	8b 8e d0 4f 00
	00		 mov	 ecx, DWORD PTR ?prj@@3VCProject@@A[esi+20432]
  00872	8b 86 d4 4f 00
	00		 mov	 eax, DWORD PTR ?prj@@3VCProject@@A[esi+20436]
  00878	e9 f9 fd ff ff	 jmp	 $LN239@AddExperie
$LN54@AddExperie:

; 1495 : 			{
; 1496 : 				m_nLevel = MAX_LEGEND_LEVEL;
; 1497 : 				bLevelUp = FALSE;
; 1498 : 				m_nExp1 = (prj.m_aExpCharacter[nNextLevel].nExp1 - 1);
; 1499 : 				nExptmp = 0;
; 1500 : 				return FALSE;
; 1501 : 			}
; 1502 : 			else if( IsLegendHero() && m_nLevel > MAX_3RD_LEGEND_LEVEL )

  0087d	8b cb		 mov	 ecx, ebx
  0087f	e8 00 00 00 00	 call	 ?IsLegendHero@CMover@@QAEHXZ ; CMover::IsLegendHero
  00884	85 c0		 test	 eax, eax
  00886	74 08		 je	 SHORT $LN150@AddExperie
  00888	81 fe 96 00 00
	00		 cmp	 esi, 150		; 00000096H
  0088e	7f 8e		 jg	 SHORT $LN237@AddExperie
$LN150@AddExperie:

; 1503 : 			{
; 1504 : 				m_nLevel = MAX_GENERAL_LEVEL;
; 1505 : 				bLevelUp = FALSE;
; 1506 : 				m_nExp1  = (prj.m_aExpCharacter[nNextLevel].nExp1 - 1);
; 1507 : 				nExptmp  = 0;
; 1508 : 				return FALSE;
; 1509 : 			}			
; 1510 : #else // __3RD_LEGEND16
; 1511 : 			else if( IsHero() && (m_nLevel > MAX_LEGEND_LEVEL ) )
; 1512 : 			{
; 1513 : 				m_nLevel = MAX_LEGEND_LEVEL;
; 1514 : 				bLevelUp = FALSE;
; 1515 : 				m_nExp1  = (prj.m_aExpCharacter[nNextLevel].nExp1 - 1);
; 1516 : 				nExptmp  = 0;
; 1517 : 				return FALSE;
; 1518 : 			}
; 1519 : #endif // __3RD_LEGEND16
; 1520 : #endif	//__LEGEND	//	10Â÷ Ŕü˝Â˝Ă˝şĹŰ	Neuz, World, Trans
; 1521 : 
; 1522 : 			if( bLevelUp )
; 1523 : 			{
; 1524 : 				m_nHitPoint = GetMaxHitPoint();

  00890	8b cb		 mov	 ecx, ebx
  00892	e8 00 00 00 00	 call	 ?GetMaxHitPoint@CMover@@QAEHXZ ; CMover::GetMaxHitPoint

; 1525 : 				m_nManaPoint = GetMaxManaPoint();

  00897	8b cb		 mov	 ecx, ebx
  00899	89 83 f8 05 00
	00		 mov	 DWORD PTR [ebx+1528], eax
  0089f	e8 00 00 00 00	 call	 ?GetMaxManaPoint@CMover@@QAEHXZ ; CMover::GetMaxManaPoint

; 1526 : 				m_nFatiguePoint = GetMaxFatiguePoint();

  008a4	8b cb		 mov	 ecx, ebx
  008a6	89 83 fc 05 00
	00		 mov	 DWORD PTR [ebx+1532], eax
  008ac	e8 00 00 00 00	 call	 ?GetMaxFatiguePoint@CMover@@QAEHXZ ; CMover::GetMaxFatiguePoint

; 1527 : 				SetJobLevel( m_nLevel, m_nJob );

  008b1	ff b3 3c 06 00
	00		 push	 DWORD PTR [ebx+1596]
  008b7	8b cb		 mov	 ecx, ebx
  008b9	89 83 00 06 00
	00		 mov	 DWORD PTR [ebx+1536], eax
  008bf	ff b3 d8 05 00
	00		 push	 DWORD PTR [ebx+1496]
  008c5	e8 00 00 00 00	 call	 ?SetJobLevel@CMover@@QAEXHH@Z ; CMover::SetJobLevel

; 1528 : #if __VER >= 8  
; 1529 : 				if( m_nDeathLevel >= m_nLevel )

  008ca	8b 8b d8 05 00
	00		 mov	 ecx, DWORD PTR [ebx+1496]
  008d0	39 8b dc 05 00
	00		 cmp	 DWORD PTR [ebx+1500], ecx
  008d6	7c 48		 jl	 SHORT $LN144@AddExperie

; 1530 : 				{
; 1531 : 					m_nRemainGP -= prj.m_aExpCharacter[ nNextLevel ].dwLPPoint;

  008d8	8b bb 04 06 00
	00		 mov	 edi, DWORD PTR [ebx+1540]

; 1532 : #if __VER >= 10 // __LEGEND	//	10Â÷ Ŕü˝Â˝Ă˝şĹŰ	Neuz, World, Trans
; 1533 : #ifdef __3RD_LEGEND16
; 1534 : 					if( IsMaster() || IsHero() || IsLegendHero() )

  008de	8b cb		 mov	 ecx, ebx
  008e0	c1 e6 05	 shl	 esi, 5
  008e3	2b be e0 4f 00
	00		 sub	 edi, DWORD PTR ?prj@@3VCProject@@A[esi+20448]
  008e9	89 bb 04 06 00
	00		 mov	 DWORD PTR [ebx+1540], edi
  008ef	e8 00 00 00 00	 call	 ?IsMaster@CMover@@QAEHXZ ; CMover::IsMaster
  008f4	85 c0		 test	 eax, eax
  008f6	75 1a		 jne	 SHORT $LN61@AddExperie
  008f8	8b cb		 mov	 ecx, ebx
  008fa	e8 00 00 00 00	 call	 ?IsHero@CMover@@QAEHXZ	; CMover::IsHero
  008ff	85 c0		 test	 eax, eax
  00901	75 0f		 jne	 SHORT $LN61@AddExperie
  00903	8b cb		 mov	 ecx, ebx
  00905	e8 00 00 00 00	 call	 ?IsLegendHero@CMover@@QAEHXZ ; CMover::IsLegendHero
  0090a	85 c0		 test	 eax, eax
  0090c	0f 84 a8 00 00
	00		 je	 $LN58@AddExperie
$LN61@AddExperie:

; 1535 : #else // __3RD_LEGEND16
; 1536 : 					if( IsMaster() || IsHero() )
; 1537 : #endif // __3RD_LEGEND16
; 1538 : 						m_nRemainGP--;

  00912	8d 47 ff	 lea	 eax, DWORD PTR [edi-1]
  00915	89 83 04 06 00
	00		 mov	 DWORD PTR [ebx+1540], eax

; 1539 : #endif	//__LEGEND	//	10Â÷ Ŕü˝Â˝Ă˝şĹŰ	Neuz, World, Trans
; 1540 : 				}
; 1541 : #endif //  __VER >= 8  
; 1542 : 
; 1543 : #ifdef __WORLDSERVER
; 1544 : 				if( m_nDeathLevel < m_nLevel )

  0091b	e9 9a 00 00 00	 jmp	 $LN58@AddExperie
$LN144@AddExperie:

; 1545 : 				{
; 1546 : 					int nGetPoint = ((GetLevel() - 1) / 20) + 2;

  00920	49		 dec	 ecx
  00921	b8 67 66 66 66	 mov	 eax, 1717986919		; 66666667H
  00926	f7 e9		 imul	 ecx

; 1547 : #if __VER >= 10 // __LEGEND	//	10Â÷ Ŕü˝Â˝Ă˝şĹŰ	Neuz, World, Trans
; 1548 : 					if( IsMaster() || IsHero() )

  00928	8b cb		 mov	 ecx, ebx
  0092a	c1 fa 03	 sar	 edx, 3
  0092d	8b f2		 mov	 esi, edx
  0092f	83 c2 02	 add	 edx, 2
  00932	c1 ee 1f	 shr	 esi, 31			; 0000001fH
  00935	03 f2		 add	 esi, edx
  00937	e8 00 00 00 00	 call	 ?IsMaster@CMover@@QAEHXZ ; CMover::IsMaster
  0093c	85 c0		 test	 eax, eax
  0093e	75 25		 jne	 SHORT $LN142@AddExperie
  00940	8b cb		 mov	 ecx, ebx
  00942	e8 00 00 00 00	 call	 ?IsHero@CMover@@QAEHXZ	; CMover::IsHero
  00947	85 c0		 test	 eax, eax
  00949	75 1a		 jne	 SHORT $LN142@AddExperie

; 1550 : 					else
; 1551 : #endif	//__LEGEND	//	10Â÷ Ŕü˝Â˝Ă˝şĹŰ	Neuz, World, Trans
; 1552 : 					{
; 1553 : 						AddSkillPoint( nGetPoint );

  0094b	56		 push	 esi
  0094c	8b cb		 mov	 ecx, ebx
  0094e	e8 00 00 00 00	 call	 ?AddSkillPoint@CMover@@QAEXH@Z ; CMover::AddSkillPoint

; 1554 : 						g_dpDBClient.SendLogSkillPoint( LOG_SKILLPOINT_GET_HUNT, nGetPoint, this, NULL );

  00953	6a 00		 push	 0
  00955	53		 push	 ebx
  00956	56		 push	 esi
  00957	6a 01		 push	 1
  00959	b9 00 00 00 00	 mov	 ecx, OFFSET ?g_dpDBClient@@3VCDPDatabaseClient@@A ; g_dpDBClient
  0095e	e8 00 00 00 00	 call	 ?SendLogSkillPoint@CDPDatabaseClient@@QAEXHHPAVCMover@@PAUtagSkill@@@Z ; CDPDatabaseClient::SendLogSkillPoint
  00963	eb 07		 jmp	 SHORT $LN64@AddExperie
$LN142@AddExperie:

; 1549 : 						SetMasterSkillPointUp();

  00965	8b cb		 mov	 ecx, ebx
  00967	e8 00 00 00 00	 call	 ?SetMasterSkillPointUp@CMover@@QAEXXZ ; CMover::SetMasterSkillPointUp
$LN64@AddExperie:

; 1555 : #ifdef __S_NEW_SKILL_2
; 1556 : 						g_dpDBClient.SaveSkill( (CUser*)this );
; 1557 : #endif // __S_NEW_SKILL_2
; 1558 : 					}
; 1559 : #ifdef __S_RECOMMEND_EVE
; 1560 : 				    if( g_eLocal.GetState( EVE_RECOMMEND ) && IsPlayer() )

  0096c	6a 15		 push	 21			; 00000015H
  0096e	b9 00 00 00 00	 mov	 ecx, OFFSET ?g_eLocal@@3VCFlyffEvent@@A ; g_eLocal
  00973	e8 00 00 00 00	 call	 ?GetState@CFlyffEvent@@QAEEH@Z ; CFlyffEvent::GetState
  00978	84 c0		 test	 al, al
  0097a	74 16		 je	 SHORT $LN66@AddExperie
  0097c	83 bb 30 02 00
	00 00		 cmp	 DWORD PTR [ebx+560], 0
  00983	74 0d		 je	 SHORT $LN66@AddExperie

; 1561 : 					{
; 1562 : 						g_dpDBClient.SendRecommend( (CUser*)this );

  00985	6a 00		 push	 0
  00987	53		 push	 ebx
  00988	b9 00 00 00 00	 mov	 ecx, OFFSET ?g_dpDBClient@@3VCDPDatabaseClient@@A ; g_dpDBClient
  0098d	e8 00 00 00 00	 call	 ?SendRecommend@CDPDatabaseClient@@QAEXPAVCUser@@H@Z ; CDPDatabaseClient::SendRecommend
$LN66@AddExperie:

; 1563 : 					}					
; 1564 : #endif // __S_RECOMMEND_EVE
; 1565 : #ifdef __EXP_ANGELEXP_LOG
; 1566 : 					((CUser*)this)->m_nExpLog = 0;
; 1567 : #endif // __EXP_ANGELEXP_LOG
; 1568 : #ifdef __EVENTLUA_GIFT
; 1569 : 					prj.m_EventLua.SetLevelUpGift( (CUser*)this, m_nLevel );

  00992	ff b3 d8 05 00
	00		 push	 DWORD PTR [ebx+1496]
  00998	b9 bc 96 0d 00	 mov	 ecx, OFFSET ?prj@@3VCProject@@A+890556
  0099d	c7 83 14 8f 00
	00 00 00 00 00	 mov	 DWORD PTR [ebx+36628], 0
  009a7	53		 push	 ebx
  009a8	e8 00 00 00 00	 call	 ?SetLevelUpGift@CEventLua@@QAEXPAVCUser@@H@Z ; CEventLua::SetLevelUpGift

; 1570 : #endif // __EVENTLUA_GIFT
; 1571 : #if __VER >= 15 // __CAMPUS
; 1572 : 					CCampusHelper::GetInstance()->SetLevelUpReward( (CUser*)this );

  009ad	53		 push	 ebx
  009ae	e8 00 00 00 00	 call	 ?GetInstance@CCampusHelper@@SAPAV1@XZ ; CCampusHelper::GetInstance
  009b3	8b c8		 mov	 ecx, eax
  009b5	e8 00 00 00 00	 call	 ?SetLevelUpReward@CCampusHelper@@QAEXPAVCUser@@@Z ; CCampusHelper::SetLevelUpReward
$LN58@AddExperie:

; 1587 : #endif	//__LEGEND	//	10Â÷ Ŕü˝Â˝Ă˝şĹŰ	Neuz, World, Trans
; 1588 : 				nExptmp	= m_nExp1	= 0;
; 1589 : 			}
; 1590 : 
; 1591 : 			// ·ąş§ 20ŔĚ µÇ´ÂĽř°Ł şńÇŕ·ąş§Ŕş 1ŔĚµČ´Ů.
; 1592 : 			if( m_nLevel == 20 )
; 1593 : 				SetFlightLv( 1 );
; 1594 : 			
; 1595 : #ifdef __CLIENT
; 1596 : 			if( m_pActMover && ( m_pActMover->IsState( OBJSTA_STAND ) || m_pActMover->IsState( OBJSTA_STAND2 )) )
; 1597 : 				SetMotion( MTI_LEVELUP, ANILOOP_1PLAY, MOP_FIXED );
; 1598 : 			CreateSfx(g_Neuz.m_pd3dDevice,XI_GEN_LEVEL_UP01,GetPos(),GetId());
; 1599 : 			PlayMusic( BGM_IN_LEVELUP );
; 1600 : #endif	// __CLIENT
; 1601 : 		}
; 1602 : 
; 1603 : 		if( nExptmp > 0 )

  009ba	8b 8d 2c ff ff
	ff		 mov	 ecx, DWORD PTR _nExptmp$1$[ebp]
  009c0	85 c9		 test	 ecx, ecx
  009c2	7c 1c		 jl	 SHORT $LN70@AddExperie
  009c4	8b 85 30 ff ff
	ff		 mov	 eax, DWORD PTR _nExptmp$2$[ebp]
  009ca	7f 04		 jg	 SHORT $LN160@AddExperie
  009cc	85 c0		 test	 eax, eax
  009ce	74 10		 je	 SHORT $LN70@AddExperie
$LN160@AddExperie:

; 1604 : 			AddExperience( nExptmp, FALSE, bMultiPly );

  009d0	6a 00		 push	 0
  009d2	ff 75 14	 push	 DWORD PTR _bMultiPly$[ebp]
  009d5	6a 00		 push	 0
  009d7	51		 push	 ecx
  009d8	50		 push	 eax
  009d9	8b cb		 mov	 ecx, ebx
  009db	e8 00 00 00 00	 call	 ?AddExperience@CMover@@QAEH_JHHH@Z ; CMover::AddExperience
$LN70@AddExperie:

; 1605 : 		return TRUE;
; 1606 : 	}
; 1607 : 
; 1608 : 	return FALSE;
; 1609 : }

  009e0	8b 4d fc	 mov	 ecx, DWORD PTR __$ArrayPad$[ebp]
  009e3	b8 01 00 00 00	 mov	 eax, 1
  009e8	5f		 pop	 edi
  009e9	5e		 pop	 esi
  009ea	33 cd		 xor	 ecx, ebp
  009ec	5b		 pop	 ebx
  009ed	e8 00 00 00 00	 call	 @__security_check_cookie@4
  009f2	8b e5		 mov	 esp, ebp
  009f4	5d		 pop	 ebp
  009f5	c2 14 00	 ret	 20			; 00000014H
?AddExperience@CMover@@QAEH_JHHH@Z ENDP			; CMover::AddExperience
_TEXT	ENDS
; Function compile flags: /Ogtp
; File C:\IAGOS\server\v18\Source\Source\_Common\MoverParam.cpp
;	COMDAT ?GetPieceItemDropRateFactor@CMover@@QAEMPAV1@@Z
_TEXT	SEGMENT
_fFactor$ = -4						; size = 4
_pAttacker$ = 8						; size = 4
_fFactor$1$ = 8						; size = 4
?GetPieceItemDropRateFactor@CMover@@QAEMPAV1@@Z PROC	; CMover::GetPieceItemDropRateFactor, COMDAT
; _this$ = ecx

; 4255 : {

  00000	55		 push	 ebp
  00001	8b ec		 mov	 ebp, esp
  00003	51		 push	 ecx
  00004	56		 push	 esi

; 4256 : 	float fFactor	= 1.0F;
; 4257 : #ifdef __WORLDSERVER
; 4258 : #if __VER >= 9 // __EVENTLUA
; 4259 : 	fFactor		*= prj.m_EventLua.GetPieceItemDropRate();

  00005	6a 01		 push	 1
  00007	b9 bc 96 0d 00	 mov	 ecx, OFFSET ?prj@@3VCProject@@A+890556
  0000c	e8 00 00 00 00	 call	 ?GetPieceItemDropRate@CEventLua@@QAEMH@Z ; CEventLua::GetPieceItemDropRate
  00011	d9 5d fc	 fstp	 DWORD PTR _fFactor$[ebp]

; 4260 : #endif // __EVENTLUA
; 4261 : #if __VER >= 12 // __LORD
; 4262 : 	ILordEvent* pEvent		= CSLord::Instance()->GetEvent();

  00014	e8 00 00 00 00	 call	 ?Instance@CSLord@@SAPAV1@XZ ; CSLord::Instance

; 4263 : 	fFactor		*= pEvent->GetIFactor();

  00019	8b 48 0c	 mov	 ecx, DWORD PTR [eax+12]
  0001c	e8 00 00 00 00	 call	 ?GetIFactor@ILordEvent@@QAEMXZ ; ILordEvent::GetIFactor
  00021	d8 4d fc	 fmul	 DWORD PTR _fFactor$[ebp]

; 4264 : 	if( pAttacker->HasBuff( BUFF_ITEM, II_SYS_SYS_LS_CHEERING ) )

  00024	8b 75 08	 mov	 esi, DWORD PTR _pAttacker$[ebp]
  00027	8b ce		 mov	 ecx, esi
  00029	68 33 4e 00 00	 push	 20019			; 00004e33H
  0002e	6a 00		 push	 0
  00030	d9 5d fc	 fstp	 DWORD PTR _fFactor$[ebp]
  00033	e8 00 00 00 00	 call	 ?HasBuff@CMover@@QAEHGG@Z ; CMover::HasBuff
  00038	f3 0f 10 45 fc	 movss	 xmm0, DWORD PTR _fFactor$[ebp]
  0003d	85 c0		 test	 eax, eax
  0003f	74 0d		 je	 SHORT $LN10@GetPieceIt

; 4265 : 		fFactor		*=	1.1F;

  00041	f3 0f 59 05 00
	00 00 00	 mulss	 xmm0, DWORD PTR __real@3f8ccccd
  00049	f3 0f 11 45 fc	 movss	 DWORD PTR _fFactor$[ebp], xmm0
$LN10@GetPieceIt:

; 4266 : 	if( pAttacker->HasBuff( BUFF_ITEM, II_SYS_SYS_VOTE_THANKS ) )

  0004e	68 44 4e 00 00	 push	 20036			; 00004e44H
  00053	6a 00		 push	 0
  00055	8b ce		 mov	 ecx, esi
  00057	f3 0f 11 45 08	 movss	 DWORD PTR _fFactor$1$[ebp], xmm0
  0005c	e8 00 00 00 00	 call	 ?HasBuff@CMover@@QAEHGG@Z ; CMover::HasBuff
  00061	85 c0		 test	 eax, eax
  00063	74 17		 je	 SHORT $LN3@GetPieceIt

; 4267 : 		fFactor		*= 1.05F;

  00065	f3 0f 10 45 08	 movss	 xmm0, DWORD PTR _fFactor$1$[ebp]
  0006a	f3 0f 59 05 00
	00 00 00	 mulss	 xmm0, DWORD PTR __real@3f866666
  00072	f3 0f 11 45 08	 movss	 DWORD PTR _fFactor$1$[ebp], xmm0
  00077	f3 0f 11 45 fc	 movss	 DWORD PTR _fFactor$[ebp], xmm0
$LN3@GetPieceIt:

; 4268 : #endif	// __LORD
; 4269 : #if __VER >= 13 // __COUPLE_1202
; 4270 : 	if( pAttacker->HasBuff( BUFF_ITEM, II_COUPLE_BUFF_MIRACLE_01 ) )

  0007c	68 74 68 00 00	 push	 26740			; 00006874H
  00081	6a 00		 push	 0
  00083	8b ce		 mov	 ecx, esi
  00085	e8 00 00 00 00	 call	 ?HasBuff@CMover@@QAEHGG@Z ; CMover::HasBuff
  0008a	85 c0		 test	 eax, eax
  0008c	74 12		 je	 SHORT $LN4@GetPieceIt

; 4271 : 		fFactor	*= 1.05F;

  0008e	f3 0f 10 45 08	 movss	 xmm0, DWORD PTR _fFactor$1$[ebp]
  00093	f3 0f 59 05 00
	00 00 00	 mulss	 xmm0, DWORD PTR __real@3f866666
  0009b	f3 0f 11 45 fc	 movss	 DWORD PTR _fFactor$[ebp], xmm0
$LN4@GetPieceIt:

; 4272 : #endif	// __COUPLE_1202
; 4273 : #if __VER >= 14 // __PCBANG
; 4274 : 	if( pAttacker->IsPlayer() )

  000a0	83 be 30 02 00
	00 00		 cmp	 DWORD PTR [esi+560], 0
  000a7	74 13		 je	 SHORT $LN9@GetPieceIt

; 4275 : 		fFactor *= CPCBang::GetInstance()->GetPieceItemDropFactor( static_cast<CUser*>( pAttacker ) );

  000a9	56		 push	 esi
  000aa	e8 00 00 00 00	 call	 ?GetInstance@CPCBang@@SAPAV1@XZ ; CPCBang::GetInstance
  000af	8b c8		 mov	 ecx, eax
  000b1	e8 00 00 00 00	 call	 ?GetPieceItemDropFactor@CPCBang@@QAEMPAVCUser@@@Z ; CPCBang::GetPieceItemDropFactor
  000b6	d8 4d fc	 fmul	 DWORD PTR _fFactor$[ebp]
  000b9	d9 5d fc	 fstp	 DWORD PTR _fFactor$[ebp]
$LN9@GetPieceIt:

; 4276 : #endif // __PCBANG
; 4277 : #endif // __WORLDSERVER
; 4278 : 	return fFactor;
; 4279 : }

  000bc	d9 45 fc	 fld	 DWORD PTR _fFactor$[ebp]
  000bf	5e		 pop	 esi
  000c0	8b e5		 mov	 esp, ebp
  000c2	5d		 pop	 ebp
  000c3	c2 04 00	 ret	 4
?GetPieceItemDropRateFactor@CMover@@QAEMPAV1@@Z ENDP	; CMover::GetPieceItemDropRateFactor
_TEXT	ENDS
; Function compile flags: /Ogtp
; File C:\IAGOS\server\v18\Source\Source\_Common\MoverParam.cpp
; File C:\IAGOS\server\v18\Source\Source\_Common\Mover.h
; File C:\IAGOS\server\v18\Source\Source\_Common\MoverParam.cpp
; File C:\IAGOS\server\v18\Source\Source\_Common\Project.h
; File C:\IAGOS\server\v18\Source\Source\_Common\MoverParam.cpp
; File C:\IAGOS\server\v18\Source\Source\_Common\Project.h
; File C:\IAGOS\server\v18\Source\Source\_Common\MoverParam.cpp
;	COMDAT ?GetItemDropRateFactor@CMover@@QAEMPAV1@@Z
_TEXT	SEGMENT
_fFactor$ = -4						; size = 4
_fFactor$1$ = -4					; size = 4
_pAttacker$ = 8						; size = 4
?GetItemDropRateFactor@CMover@@QAEMPAV1@@Z PROC		; CMover::GetItemDropRateFactor, COMDAT
; _this$ = ecx

; 4237 : {

  00000	55		 push	 ebp
  00001	8b ec		 mov	 ebp, esp
  00003	51		 push	 ecx
; File C:\IAGOS\server\v18\Source\Source\_Common\Mover.h

; 1020 : 	MoverProp*		GetProp() { return prj.GetMoverProp( m_dwIndex ); }	// °´ĂĽŔÇ ÇÁ·ÎĆŰĆĽ ľň±â 	

  00004	8b 81 74 01 00
	00		 mov	 eax, DWORD PTR [ecx+372]
; File C:\IAGOS\server\v18\Source\Source\_Common\MoverParam.cpp

; 4240 : 	fFactor		*= prj.m_fItemDropRate;

  0000a	f3 0f 10 05 00
	00 00 00	 movss	 xmm0, DWORD PTR ?m_fItemDropRate@CProject@@2MA
; File C:\IAGOS\server\v18\Source\Source\_Common\Project.h

; 1406 : 	VERIFY_RANGE( nIndex, 0, m_nMoverPropSize, "GetMoverProp range_error", NULL );

  00012	8b 0d b4 01 00
	00		 mov	 ecx, DWORD PTR ?prj@@3VCProject@@A+436
; File C:\IAGOS\server\v18\Source\Source\_Common\MoverParam.cpp

; 4240 : 	fFactor		*= prj.m_fItemDropRate;

  00018	f3 0f 11 45 fc	 movss	 DWORD PTR _fFactor$1$[ebp], xmm0
; File C:\IAGOS\server\v18\Source\Source\_Common\Project.h

; 1406 : 	VERIFY_RANGE( nIndex, 0, m_nMoverPropSize, "GetMoverProp range_error", NULL );

  0001d	85 c0		 test	 eax, eax
  0001f	78 12		 js	 SHORT $LN10@GetItemDro
  00021	3b c1		 cmp	 eax, ecx
  00023	7d 0e		 jge	 SHORT $LN10@GetItemDro

; 1407 : 	return m_pPropMover + nIndex;

  00025	69 c0 90 06 00
	00		 imul	 eax, eax, 1680
  0002b	03 05 b8 01 00
	00		 add	 eax, DWORD PTR ?prj@@3VCProject@@A+440
  00031	eb 1d		 jmp	 SHORT $LN5@GetItemDro
$LN10@GetItemDro:

; 579  : 	LPCTSTR szErr = Error( _T( "%s min:%d, max:%d, index:%d" ), szMsg, nMin, nMax, nIndex ); 

  00033	50		 push	 eax
  00034	51		 push	 ecx
  00035	6a 00		 push	 0
  00037	68 00 00 00 00	 push	 OFFSET ??_C@_0BJ@GKPOBPPI@GetMoverProp?5range_error@
  0003c	68 00 00 00 00	 push	 OFFSET ??_C@_0BM@HMFGHCP@?$CFs?5min?3?$CFd?0?5max?3?$CFd?0?5index?3?$CFd@
  00041	e8 00 00 00 00	 call	 ?Error@@YAPBDPBDZZ	; Error
  00046	f3 0f 10 45 fc	 movss	 xmm0, DWORD PTR _fFactor$1$[ebp]
  0004b	83 c4 14	 add	 esp, 20			; 00000014H

; 1406 : 	VERIFY_RANGE( nIndex, 0, m_nMoverPropSize, "GetMoverProp range_error", NULL );

  0004e	33 c0		 xor	 eax, eax
$LN5@GetItemDro:
; File C:\IAGOS\server\v18\Source\Source\_Common\MoverParam.cpp

; 4242 : 	fFactor		*= GetProp()->m_fItemDrop_Rate;

  00050	f3 0f 59 80 60
	02 00 00	 mulss	 xmm0, DWORD PTR [eax+608]
  00058	f3 0f 11 45 fc	 movss	 DWORD PTR _fFactor$[ebp], xmm0

; 4243 : #endif // __S1108_BACK_END_SYSTEM
; 4244 : #ifdef __ITEMDROPRATE
; 4245 : 	fFactor		*= CEventGeneric::GetInstance()->GetItemDropRateFactor();

  0005d	e8 00 00 00 00	 call	 ?GetInstance@CEventGeneric@@SAPAV1@XZ ; CEventGeneric::GetInstance
  00062	8b c8		 mov	 ecx, eax
  00064	e8 00 00 00 00	 call	 ?GetItemDropRateFactor@CEventGeneric@@QAEMXZ ; CEventGeneric::GetItemDropRateFactor
  00069	d8 4d fc	 fmul	 DWORD PTR _fFactor$[ebp]

; 4246 : #endif // __ITEMDROPRATE
; 4247 : #if __VER >= 9 // __EVENTLUA
; 4248 : 	fFactor		*= prj.m_EventLua.GetItemDropRate();

  0006c	b9 bc 96 0d 00	 mov	 ecx, OFFSET ?prj@@3VCProject@@A+890556
  00071	6a 01		 push	 1
  00073	d9 5d fc	 fstp	 DWORD PTR _fFactor$[ebp]
  00076	e8 00 00 00 00	 call	 ?GetItemDropRate@CEventLua@@QAEMH@Z ; CEventLua::GetItemDropRate
  0007b	d8 4d fc	 fmul	 DWORD PTR _fFactor$[ebp]

; 4249 : #endif // __EVENTLUA
; 4250 : #endif	// __WORLDSERVER
; 4251 : 	return fFactor;
; 4252 : }

  0007e	8b e5		 mov	 esp, ebp
  00080	5d		 pop	 ebp
  00081	c2 04 00	 ret	 4
?GetItemDropRateFactor@CMover@@QAEMPAV1@@Z ENDP		; CMover::GetItemDropRateFactor
_TEXT	ENDS
; Function compile flags: /Ogtp
; File C:\IAGOS\server\v18\Source\Source\_Common\MoverParam.cpp
; File C:\Program Files\Microsoft Visual Studio\2022\Professional\VC\Tools\MSVC\14.44.35207\include\xtree
; File C:\IAGOS\server\v18\Source\Source\_Common\MoverParam.cpp
; File C:\Program Files\Microsoft Visual Studio\2022\Professional\VC\Tools\MSVC\14.44.35207\include\xtree
; File C:\IAGOS\server\v18\Source\Source\_Common\MoverParam.cpp
; File C:\IAGOS\server\v18\Source\Source\_Common\Project.h
; File C:\IAGOS\server\v18\Source\Source\_Common\data.h
; File C:\IAGOS\server\v18\Source\Source\_Common\MoverParam.cpp
; File C:\IAGOS\server\v18\Source\Source\_Common\Project.h
; File C:\Program Files\Microsoft Visual Studio\2022\Professional\VC\Tools\MSVC\14.44.35207\include\xtree
; File C:\IAGOS\server\v18\Source\Source\_Common\MoverParam.cpp
;	COMDAT ?GetExpFactor@CMover@@QAEMXZ
_TEXT	SEGMENT
tv161 = -8						; size = 4
_fFactor$1$ = -8					; size = 4
_fFactor$ = -4						; size = 4
_nLevel$1$ = -4						; size = 4
tv708 = -4						; size = 4
?GetExpFactor@CMover@@QAEMXZ PROC			; CMover::GetExpFactor, COMDAT
; _this$ = ecx

; 4282 : {

  00000	55		 push	 ebp
  00001	8b ec		 mov	 ebp, esp
  00003	83 ec 08	 sub	 esp, 8

; 4283 : 	float fFactor	= 1.0f;

  00006	f3 0f 10 05 00
	00 00 00	 movss	 xmm0, DWORD PTR __real@3f800000
  0000e	57		 push	 edi
  0000f	8b f9		 mov	 edi, ecx
  00011	f3 0f 11 45 f8	 movss	 DWORD PTR _fFactor$1$[ebp], xmm0

; 4284 : 	if( IsMode( EVENT_OLDBOY_MODE ) )

  00016	f7 87 40 02 00
	00 00 00 01 00	 test	 DWORD PTR [edi+576], 65536 ; 00010000H
  00020	74 0d		 je	 SHORT $LN5@GetExpFact

; 4285 : 		fFactor	*= 1.1f;

  00022	f3 0f 10 05 00
	00 00 00	 movss	 xmm0, DWORD PTR __real@3f8ccccd
  0002a	f3 0f 11 45 f8	 movss	 DWORD PTR _fFactor$1$[ebp], xmm0
$LN5@GetExpFact:

; 4286 : 
; 4287 : 	BOOL bGlvCheer	= FALSE;
; 4288 : 	BOOL bSpecial = FALSE;
; 4289 : #ifndef __NEW_STACKABLE_AMPS
; 4290 : 	int nCountBuf = 0;
; 4291 : 	if( HasBuff( BUFF_ITEM, II_SYS_SYS_SCR_AMPESA ) )
; 4292 : 		++nCountBuf;
; 4293 : 	if( HasBuff( BUFF_ITEM, II_SYS_SYS_SCR_AMPESA1 ) )
; 4294 : 		++nCountBuf;
; 4295 : 	if( HasBuff( BUFF_ITEM, II_SYS_SYS_SCR_AMPESA2 ) )
; 4296 : 		++nCountBuf;
; 4297 : 	if( HasBuff( BUFF_ITEM, II_SYS_SYS_SCR_AMPESB ) )
; 4298 : 		++nCountBuf;
; 4299 : 	if( HasBuff( BUFF_ITEM, II_SYS_SYS_SCR_AMPESB1 ) )
; 4300 : 		++nCountBuf;
; 4301 : 	if( HasBuff( BUFF_ITEM, II_SYS_SYS_SCR_AMPESB2 ) )
; 4302 : 		++nCountBuf;
; 4303 : 	if( HasBuff( BUFF_ITEM, II_SYS_SYS_SCR_AMPESC ) )
; 4304 : 		++nCountBuf;
; 4305 : 	if( HasBuff( BUFF_ITEM, II_SYS_SYS_SCR_AMPESC1 ) )
; 4306 : 		++nCountBuf;
; 4307 : 	if( HasBuff( BUFF_ITEM, II_SYS_SYS_SCR_AMPESC2 ) )
; 4308 : 		++nCountBuf;
; 4309 : 	if( HasBuff( BUFF_ITEM, II_SYS_SYS_SCR_AMPESD ) )
; 4310 : 		++nCountBuf;
; 4311 : 	if( HasBuff( BUFF_ITEM, II_SYS_SYS_SCR_AMPESD1 ) )
; 4312 : 		++nCountBuf;
; 4313 : 	if( HasBuff( BUFF_ITEM, II_SYS_SYS_SCR_AMPESD2 ) )
; 4314 : 		++nCountBuf;
; 4315 : 	if( HasBuff( BUFF_ITEM, II_SYS_SYS_SCR_AMPESE ) )
; 4316 : 		++nCountBuf;
; 4317 : #ifdef __S_ADD_EXP
; 4318 : 	if( HasBuff( BUFF_ITEM, II_SYS_SYS_SCR_AMPESS ) )
; 4319 : 	{
; 4320 : 		++nCountBuf;	bSpecial = TRUE;
; 4321 : 	}
; 4322 : 	if( HasBuff( BUFF_ITEM, II_SYS_SYS_SCR_AMPESS1 ) )
; 4323 : 	{
; 4324 : 		++nCountBuf;	bSpecial = TRUE;
; 4325 : 	}
; 4326 : 	if( HasBuff( BUFF_ITEM, II_SYS_SYS_SCR_AMPESS2 ) )
; 4327 : 	{
; 4328 : 		++nCountBuf;	bSpecial = TRUE;
; 4329 : 	}
; 4330 : #endif // __S_ADD_EXP
; 4331 : 
; 4332 : 	int nLevel = GetLevel();
; 4333 : 	if( nCountBuf == 1 )
; 4334 : 	{
; 4335 : 		fFactor *= 1.5f;
; 4336 : 	}
; 4337 : 	else if( nCountBuf == 2 )
; 4338 : 	{
; 4339 : 		if( bSpecial || nLevel < 61 )
; 4340 : 			fFactor *= 2.0f;
; 4341 : 		else
; 4342 : 			fFactor *= 1.5f;
; 4343 : 	}
; 4344 : 	else if( 3 <= nCountBuf )
; 4345 : 	{
; 4346 : 		if( bSpecial || nLevel < 41 )
; 4347 : 			fFactor *= 2.5f;
; 4348 : 		else if( nLevel < 61 )
; 4349 : 			fFactor *= 2.0f;
; 4350 : 		else
; 4351 : 			fFactor *= 1.5f;
; 4352 : 	}
; 4353 : 
; 4354 : 	if( HasBuff( BUFF_ITEM, II_SYS_SYS_SCR_AMPES ) )
; 4355 : 		fFactor	*= 1.5f;
; 4356 : 	
; 4357 : 	if( HasBuff( BUFF_ITEM, II_SYS_SYS_SCR_AMPEM ) )
; 4358 : 		fFactor	*= 2.0f;
; 4359 : #else // __NEW_STACKABLE_AMPS
; 4360 : 
; 4361 : 	int nLevel = GetLevel();

  0002f	8b 87 d8 05 00
	00		 mov	 eax, DWORD PTR [edi+1496]
  00035	89 45 fc	 mov	 DWORD PTR _nLevel$1$[ebp], eax
; File C:\Program Files\Microsoft Visual Studio\2022\Professional\VC\Tools\MSVC\14.44.35207\include\xtree

; 1142 :         return iterator(_Scary->_Myhead->_Left, _Scary);

  00038	8b 87 f0 02 00
	00		 mov	 eax, DWORD PTR [edi+752]
  0003e	53		 push	 ebx
  0003f	56		 push	 esi
; File C:\IAGOS\server\v18\Source\Source\_Common\MoverParam.cpp

; 4362 : 	int nExtraEXP = 0;

  00040	33 db		 xor	 ebx, ebx
; File C:\Program Files\Microsoft Visual Studio\2022\Professional\VC\Tools\MSVC\14.44.35207\include\xtree

; 37   :     _Tree_unchecked_const_iterator(_Nodeptr _Pnode, const _Mytree* _Plist) noexcept : _Ptr(_Pnode) {

  00042	8b 30		 mov	 esi, DWORD PTR [eax]

; 237  :         return !(*this == _Right);

  00044	3b f0		 cmp	 esi, eax
; File C:\IAGOS\server\v18\Source\Source\_Common\MoverParam.cpp

; 4364 : 	for( MAPBUFF::iterator i = m_buffs.m_mapBuffs.begin(); i != m_buffs.m_mapBuffs.end(); ++i )

  00046	0f 84 ac 00 00
	00		 je	 $LN3@GetExpFact
  0004c	8b 15 40 02 00
	00		 mov	 edx, DWORD PTR ?prj@@3VCProject@@A+576
$LL4@GetExpFact:

; 4365 : 	{
; 4366 : 		ItemProp* pItemProp = prj.GetItemProp( i->second->GetId());

  00052	8b 46 14	 mov	 eax, DWORD PTR [esi+20]
  00055	0f b7 48 06	 movzx	 ecx, WORD PTR [eax+6]
; File C:\IAGOS\server\v18\Source\Source\_Common\Project.h

; 1389 : 	VERIFY_RANGE_ASSERT( nIndex, 0, m_aPropItem.GetSize(), "GetItemProp range_error", NULL );

  00059	3b ca		 cmp	 ecx, edx
  0005b	7d 36		 jge	 SHORT $LN110@GetExpFact
; File C:\IAGOS\server\v18\Source\Source\_Common\data.h

; 270  : 	if( dwIndex >= (DWORD)m_nMaxIndex )

  0005d	72 04		 jb	 SHORT $LN95@GetExpFact

; 271  : 		return NULL;

  0005f	33 c0		 xor	 eax, eax
  00061	eb 08		 jmp	 SHORT $LN94@GetExpFact
$LN95@GetExpFact:

; 272  : 	return (T*) m_apOffset[ dwIndex ];

  00063	a1 30 02 00 00	 mov	 eax, DWORD PTR ?prj@@3VCProject@@A+560
  00068	8b 04 88	 mov	 eax, DWORD PTR [eax+ecx*4]
$LN94@GetExpFact:
; File C:\IAGOS\server\v18\Source\Source\_Common\MoverParam.cpp

; 4368 : 		if( pItemProp )

  0006b	85 c0		 test	 eax, eax
  0006d	74 40		 je	 SHORT $LN2@GetExpFact

; 4369 : 		{
; 4370 : 			if( pItemProp->dwItemKind3 == IK3_EXP_RATE )

  0006f	81 78 78 a4 00
	00 00		 cmp	 DWORD PTR [eax+120], 164 ; 000000a4H
  00076	75 37		 jne	 SHORT $LN2@GetExpFact

; 4371 : 			{
; 4372 : 				if( nLevel >= pItemProp->nMinLimitLevel && nLevel <= pItemProp->nMaxLimitLevel )

  00078	8b 4d fc	 mov	 ecx, DWORD PTR _nLevel$1$[ebp]
  0007b	3b 88 88 02 00
	00		 cmp	 ecx, DWORD PTR [eax+648]
  00081	7c 2c		 jl	 SHORT $LN2@GetExpFact
  00083	3b 88 8c 02 00
	00		 cmp	 ecx, DWORD PTR [eax+652]
  00089	7f 24		 jg	 SHORT $LN2@GetExpFact

; 4373 : 				{
; 4374 : 					nExtraEXP += pItemProp->nEffectValue;

  0008b	03 98 9c 02 00
	00		 add	 ebx, DWORD PTR [eax+668]
  00091	eb 1c		 jmp	 SHORT $LN2@GetExpFact
$LN110@GetExpFact:
; File C:\IAGOS\server\v18\Source\Source\_Common\Project.h

; 579  : 	LPCTSTR szErr = Error( _T( "%s min:%d, max:%d, index:%d" ), szMsg, nMin, nMax, nIndex ); 

  00093	51		 push	 ecx
  00094	52		 push	 edx
  00095	6a 00		 push	 0
  00097	68 00 00 00 00	 push	 OFFSET ??_C@_0BI@BEIFNGEL@GetItemProp?5range_error@
  0009c	68 00 00 00 00	 push	 OFFSET ??_C@_0BM@HMFGHCP@?$CFs?5min?3?$CFd?0?5max?3?$CFd?0?5index?3?$CFd@
  000a1	e8 00 00 00 00	 call	 ?Error@@YAPBDPBDZZ	; Error
  000a6	8b 15 40 02 00
	00		 mov	 edx, DWORD PTR ?prj@@3VCProject@@A+576
  000ac	83 c4 14	 add	 esp, 20			; 00000014H
$LN2@GetExpFact:
; File C:\Program Files\Microsoft Visual Studio\2022\Professional\VC\Tools\MSVC\14.44.35207\include\xtree

; 50   :         if (_Ptr->_Right->_Isnil) { // climb looking for right subtree

  000af	8b 46 08	 mov	 eax, DWORD PTR [esi+8]
  000b2	80 78 0d 00	 cmp	 BYTE PTR [eax+13], 0
  000b6	74 1d		 je	 SHORT $LN49@GetExpFact

; 51   :             _Nodeptr _Pnode;
; 52   :             while (!(_Pnode = _Ptr->_Parent)->_Isnil && _Ptr == _Pnode->_Right) {

  000b8	8b 46 04	 mov	 eax, DWORD PTR [esi+4]
  000bb	80 78 0d 00	 cmp	 BYTE PTR [eax+13], 0
  000bf	75 10		 jne	 SHORT $LN117@GetExpFact
$LL47@GetExpFact:
  000c1	3b 70 08	 cmp	 esi, DWORD PTR [eax+8]
  000c4	75 0b		 jne	 SHORT $LN117@GetExpFact

; 53   :                 _Ptr = _Pnode; // ==> parent while right subtree

  000c6	8b f0		 mov	 esi, eax
  000c8	8b 40 04	 mov	 eax, DWORD PTR [eax+4]
  000cb	80 78 0d 00	 cmp	 BYTE PTR [eax+13], 0
  000cf	74 f0		 je	 SHORT $LL47@GetExpFact
$LN117@GetExpFact:

; 54   :             }
; 55   : 
; 56   :             _Ptr = _Pnode; // ==> parent (head if end())

  000d1	8b f0		 mov	 esi, eax

; 57   :         } else {

  000d3	eb 17		 jmp	 SHORT $LN55@GetExpFact
$LN49@GetExpFact:

; 58   :             _Ptr = _Mytree::_Min(_Ptr->_Right); // ==> smallest of right subtree

  000d5	8b f0		 mov	 esi, eax

; 476  :         while (!_Pnode->_Left->_Isnil) {

  000d7	8b 0e		 mov	 ecx, DWORD PTR [esi]
  000d9	80 79 0d 00	 cmp	 BYTE PTR [ecx+13], 0
  000dd	75 0d		 jne	 SHORT $LN55@GetExpFact
  000df	90		 npad	 1
$LL54@GetExpFact:
  000e0	8b 01		 mov	 eax, DWORD PTR [ecx]

; 477  :             _Pnode = _Pnode->_Left;

  000e2	8b f1		 mov	 esi, ecx
  000e4	8b c8		 mov	 ecx, eax
  000e6	80 78 0d 00	 cmp	 BYTE PTR [eax+13], 0
  000ea	74 f4		 je	 SHORT $LL54@GetExpFact
$LN55@GetExpFact:

; 237  :         return !(*this == _Right);

  000ec	3b b7 f0 02 00
	00		 cmp	 esi, DWORD PTR [edi+752]
; File C:\IAGOS\server\v18\Source\Source\_Common\MoverParam.cpp

; 4364 : 	for( MAPBUFF::iterator i = m_buffs.m_mapBuffs.begin(); i != m_buffs.m_mapBuffs.end(); ++i )

  000f2	0f 85 5a ff ff
	ff		 jne	 $LL4@GetExpFact
$LN3@GetExpFact:
  000f8	66 0f 6e c3	 movd	 xmm0, ebx

; 4375 : 				}
; 4376 : 			}
; 4377 : 		}
; 4378 : 	}
; 4379 : 	fFactor *= 1.0f + ((float)nExtraEXP / 100 );
; 4380 : 
; 4381 : #endif // __NEW_STACKABLE_AMPS
; 4382 : 	if( HasBuff( BUFF_ITEM, II_SYS_SYS_SCR_GLVCHEER ) )

  000fc	8b cf		 mov	 ecx, edi
  000fe	0f 5b c0	 cvtdq2ps xmm0, xmm0
  00101	68 e3 28 00 00	 push	 10467			; 000028e3H
  00106	6a 00		 push	 0
  00108	f3 0f 5e 05 00
	00 00 00	 divss	 xmm0, DWORD PTR __real@42c80000
  00110	f3 0f 58 05 00
	00 00 00	 addss	 xmm0, DWORD PTR __real@3f800000
  00118	f3 0f 59 45 f8	 mulss	 xmm0, DWORD PTR _fFactor$1$[ebp]
  0011d	f3 0f 11 45 f8	 movss	 DWORD PTR tv161[ebp], xmm0
  00122	e8 00 00 00 00	 call	 ?HasBuff@CMover@@QAEHGG@Z ; CMover::HasBuff
  00127	f3 0f 10 45 f8	 movss	 xmm0, DWORD PTR tv161[ebp]
  0012c	5e		 pop	 esi
  0012d	5b		 pop	 ebx
  0012e	85 c0		 test	 eax, eax
  00130	74 0a		 je	 SHORT $LN114@GetExpFact

; 4383 : 	{
; 4384 : 		bGlvCheer	= TRUE;
; 4385 : 		fFactor	*= 1.10f;

  00132	f3 0f 59 05 00
	00 00 00	 mulss	 xmm0, DWORD PTR __real@3f8ccccd
  0013a	eb 55		 jmp	 SHORT $LN137@GetExpFact
$LN114@GetExpFact:

; 4386 : 	}
; 4387 : 
; 4388 : 	if( !bGlvCheer && HasBuff( BUFF_ITEM, II_CHEERUP ) )

  0013c	68 cd 28 00 00	 push	 10445			; 000028cdH
  00141	6a 00		 push	 0
  00143	8b cf		 mov	 ecx, edi
  00145	f3 0f 11 45 fc	 movss	 DWORD PTR _fFactor$[ebp], xmm0
  0014a	e8 00 00 00 00	 call	 ?HasBuff@CMover@@QAEHGG@Z ; CMover::HasBuff
  0014f	85 c0		 test	 eax, eax
  00151	74 43		 je	 SHORT $LN12@GetExpFact

; 4389 : 	{
; 4390 : #ifdef __EVENTLUA_CHEEREXP
; 4391 : 		if( prj.m_EventLua.GetCheerExpFactor() > 1.05f )

  00153	6a 01		 push	 1
  00155	b9 bc 96 0d 00	 mov	 ecx, OFFSET ?prj@@3VCProject@@A+890556
  0015a	e8 00 00 00 00	 call	 ?GetCheerExpFactor@CEventLua@@QAEMH@Z ; CEventLua::GetCheerExpFactor
  0015f	f3 0f 10 0d 00
	00 00 00	 movss	 xmm1, DWORD PTR __real@3f866666
  00167	d9 5d fc	 fstp	 DWORD PTR tv708[ebp]
  0016a	f3 0f 10 45 fc	 movss	 xmm0, DWORD PTR tv708[ebp]
  0016f	0f 2f c1	 comiss	 xmm0, xmm1
  00172	76 14		 jbe	 SHORT $LN11@GetExpFact

; 4392 : 			fFactor *= prj.m_EventLua.GetCheerExpFactor();

  00174	6a 01		 push	 1
  00176	b9 bc 96 0d 00	 mov	 ecx, OFFSET ?prj@@3VCProject@@A+890556
  0017b	e8 00 00 00 00	 call	 ?GetCheerExpFactor@CEventLua@@QAEMH@Z ; CEventLua::GetCheerExpFactor
  00180	d8 4d f8	 fmul	 DWORD PTR tv161[ebp]
  00183	d9 5d fc	 fstp	 DWORD PTR _fFactor$[ebp]
  00186	eb 0e		 jmp	 SHORT $LN12@GetExpFact
$LN11@GetExpFact:

; 4393 : 		else
; 4394 : #endif // __EVENTLUA_CHEEREXP
; 4395 : 			fFactor	*= 1.05f;

  00188	f3 0f 10 45 f8	 movss	 xmm0, DWORD PTR tv161[ebp]
  0018d	f3 0f 59 c1	 mulss	 xmm0, xmm1
$LN137@GetExpFact:

; 4396 : 	}
; 4397 : 
; 4398 : #ifdef __WORLDSERVER
; 4399 : 
; 4400 : 	fFactor	*= CEventGeneric::GetInstance()->GetExpFactor();

  00191	f3 0f 11 45 fc	 movss	 DWORD PTR _fFactor$[ebp], xmm0
$LN12@GetExpFact:
  00196	e8 00 00 00 00	 call	 ?GetInstance@CEventGeneric@@SAPAV1@XZ ; CEventGeneric::GetInstance
  0019b	8b c8		 mov	 ecx, eax
  0019d	e8 00 00 00 00	 call	 ?GetExpFactor@CEventGeneric@@QAEMXZ ; CEventGeneric::GetExpFactor
  001a2	d8 4d fc	 fmul	 DWORD PTR _fFactor$[ebp]

; 4401 : #if __VER >= 9 // __EVENTLUA
; 4402 : 	fFactor	*= prj.m_EventLua.GetExpFactor();

  001a5	b9 bc 96 0d 00	 mov	 ecx, OFFSET ?prj@@3VCProject@@A+890556
  001aa	6a 01		 push	 1
  001ac	d9 5d fc	 fstp	 DWORD PTR _fFactor$[ebp]
  001af	e8 00 00 00 00	 call	 ?GetExpFactor@CEventLua@@QAEMH@Z ; CEventLua::GetExpFactor
  001b4	d8 4d fc	 fmul	 DWORD PTR _fFactor$[ebp]

; 4403 : #endif // __EVENTLUA
; 4404 : 	fFactor		*= prj.m_fMonsterExpRate;
; 4405 : #if __VER >= 9 // __ULTIMATE
; 4406 : 	int nDstExp = GetParam( DST_EXPERIENCE, 0 );

  001b7	8b cf		 mov	 ecx, edi
  001b9	6a 00		 push	 0
  001bb	6a 43		 push	 67			; 00000043H
  001bd	d9 5d fc	 fstp	 DWORD PTR _fFactor$[ebp]
  001c0	f3 0f 10 45 fc	 movss	 xmm0, DWORD PTR _fFactor$[ebp]
  001c5	f3 0f 59 05 00
	00 00 00	 mulss	 xmm0, DWORD PTR ?m_fMonsterExpRate@CProject@@2MA
  001cd	f3 0f 11 45 fc	 movss	 DWORD PTR _fFactor$[ebp], xmm0
  001d2	e8 00 00 00 00	 call	 ?GetParam@CMover@@QAEHHH@Z ; CMover::GetParam

; 4407 : 	if( 0 < nDstExp )

  001d7	85 c0		 test	 eax, eax
  001d9	7e 21		 jle	 SHORT $LN13@GetExpFact

; 4408 : 		fFactor *= ( 1.0f + ( nDstExp / 100.0f ) );

  001db	66 0f 6e c0	 movd	 xmm0, eax
  001df	0f 5b c0	 cvtdq2ps xmm0, xmm0
  001e2	f3 0f 5e 05 00
	00 00 00	 divss	 xmm0, DWORD PTR __real@42c80000
  001ea	f3 0f 58 05 00
	00 00 00	 addss	 xmm0, DWORD PTR __real@3f800000
  001f2	f3 0f 59 45 fc	 mulss	 xmm0, DWORD PTR _fFactor$[ebp]
  001f7	f3 0f 11 45 fc	 movss	 DWORD PTR _fFactor$[ebp], xmm0
$LN13@GetExpFact:

; 4409 : #endif // __ULTIMATE
; 4410 : 
; 4411 : #if __VER >= 12 // __LORD
; 4412 : 	ILordEvent* pEvent		= CSLord::Instance()->GetEvent();

  001fc	e8 00 00 00 00	 call	 ?Instance@CSLord@@SAPAV1@XZ ; CSLord::Instance

; 4413 : 	fFactor		*= pEvent->GetEFactor();

  00201	8b 48 0c	 mov	 ecx, DWORD PTR [eax+12]
  00204	e8 00 00 00 00	 call	 ?GetEFactor@ILordEvent@@QAEMXZ ; ILordEvent::GetEFactor
  00209	d8 4d fc	 fmul	 DWORD PTR _fFactor$[ebp]

; 4414 : 	if( HasBuff( BUFF_ITEM, II_SYS_SYS_LS_CHEERING ) )

  0020c	8b cf		 mov	 ecx, edi
  0020e	68 33 4e 00 00	 push	 20019			; 00004e33H
  00213	6a 00		 push	 0
  00215	d9 5d fc	 fstp	 DWORD PTR _fFactor$[ebp]
  00218	e8 00 00 00 00	 call	 ?HasBuff@CMover@@QAEHGG@Z ; CMover::HasBuff
  0021d	85 c0		 test	 eax, eax
  0021f	74 12		 je	 SHORT $LN116@GetExpFact

; 4415 : 		fFactor		*=	1.1F;

  00221	f3 0f 10 45 fc	 movss	 xmm0, DWORD PTR _fFactor$[ebp]
  00226	f3 0f 59 05 00
	00 00 00	 mulss	 xmm0, DWORD PTR __real@3f8ccccd
  0022e	f3 0f 11 45 fc	 movss	 DWORD PTR _fFactor$[ebp], xmm0
$LN116@GetExpFact:

; 4416 : 	if( HasBuff( BUFF_ITEM, II_SYS_SYS_VOTE_THANKS ) )

  00233	68 44 4e 00 00	 push	 20036			; 00004e44H
  00238	6a 00		 push	 0
  0023a	8b cf		 mov	 ecx, edi
  0023c	e8 00 00 00 00	 call	 ?HasBuff@CMover@@QAEHGG@Z ; CMover::HasBuff
  00241	5f		 pop	 edi
  00242	85 c0		 test	 eax, eax
  00244	74 12		 je	 SHORT $LN15@GetExpFact

; 4417 : 		fFactor		*=	1.05F;

  00246	f3 0f 10 45 fc	 movss	 xmm0, DWORD PTR _fFactor$[ebp]
  0024b	f3 0f 59 05 00
	00 00 00	 mulss	 xmm0, DWORD PTR __real@3f866666
  00253	f3 0f 11 45 fc	 movss	 DWORD PTR _fFactor$[ebp], xmm0
$LN15@GetExpFact:

; 4418 : #endif	// __LORD
; 4419 : 
; 4420 : #ifdef __ENVIRONMENT_EFFECT
; 4421 : 
; 4422 : 	if( CEnvironment::GetInstance()->GetEnvironmentEffect() == TRUE )

  00258	e8 00 00 00 00	 call	 ?GetInstance@CEnvironment@@SAPAV1@XZ ; CEnvironment::GetInstance
  0025d	83 b8 d0 02 00
	00 01		 cmp	 DWORD PTR [eax+720], 1
  00264	75 12		 jne	 SHORT $LN115@GetExpFact

; 4423 : 	{
; 4424 : 		fFactor *= prj.m_EventLua.GetWeatherEventExpFactor();

  00266	6a 01		 push	 1
  00268	b9 bc 96 0d 00	 mov	 ecx, OFFSET ?prj@@3VCProject@@A+890556
  0026d	e8 00 00 00 00	 call	 ?GetWeatherEventExpFactor@CEventLua@@QAEMH@Z ; CEventLua::GetWeatherEventExpFactor
  00272	d8 4d fc	 fmul	 DWORD PTR _fFactor$[ebp]
  00275	d9 5d fc	 fstp	 DWORD PTR _fFactor$[ebp]
$LN115@GetExpFact:

; 4425 : 	}
; 4426 : 
; 4427 : #else // __ENVIRONMENT_EFFECT
; 4428 : 
; 4429 : #ifdef __EVENTLUA_RAIN
; 4430 : 	if( g_Environment.m_bRain )
; 4431 : 		fFactor *= prj.m_EventLua.GetRainEventExpFactor();
; 4432 : #else // __EVENTLUA_RAIN
; 4433 : #ifdef __RAIN_EVENT
; 4434 : 	if( g_Environment.m_bRain )
; 4435 : 		fFactor *= 2.0f;
; 4436 : #endif // __RAIN_EVENT
; 4437 : #endif // __EVENTLUA_RAIN
; 4438 : #ifdef __EVENTLUA_SNOW
; 4439 : 	if( g_Environment.m_bSnow )
; 4440 : 		fFactor *= prj.m_EventLua.GetSnowEventExpFactor();
; 4441 : #endif // __EVENTLUA_SNOW
; 4442 : 
; 4443 : #endif // __ENVIRONMENT_EFFECT
; 4444 : 
; 4445 : #endif	// __WORLDSERVER
; 4446 : 
; 4447 : 	return fFactor;
; 4448 : }

  00278	d9 45 fc	 fld	 DWORD PTR _fFactor$[ebp]
  0027b	8b e5		 mov	 esp, ebp
  0027d	5d		 pop	 ebp
  0027e	c3		 ret	 0
?GetExpFactor@CMover@@QAEMXZ ENDP			; CMover::GetExpFactor
_TEXT	ENDS
; Function compile flags: /Ogtp
; File C:\IAGOS\server\v18\Source\Source\_Common\MoverParam.cpp
;	COMDAT ?SetFatiguePoint@CMover@@QAEXH@Z
_TEXT	SEGMENT
_nVal$ = 8						; size = 4
?SetFatiguePoint@CMover@@QAEXH@Z PROC			; CMover::SetFatiguePoint, COMDAT
; _this$ = ecx

; 918  : {

  00000	55		 push	 ebp
  00001	8b ec		 mov	 ebp, esp

; 919  : 	m_nFatiguePoint = nVal;

  00003	8b 45 08	 mov	 eax, DWORD PTR _nVal$[ebp]
  00006	57		 push	 edi
  00007	8b f9		 mov	 edi, ecx
  00009	89 87 00 06 00
	00		 mov	 DWORD PTR [edi+1536], eax

; 920  : 	if( m_nFatiguePoint < 0 )

  0000f	85 c0		 test	 eax, eax
  00011	79 0a		 jns	 SHORT $LN2@SetFatigue

; 921  : 		m_nFatiguePoint = 0;

  00013	c7 87 00 06 00
	00 00 00 00 00	 mov	 DWORD PTR [edi+1536], 0
$LN2@SetFatigue:
  0001d	56		 push	 esi

; 922  : 	if( m_nFatiguePoint > GetMaxFatiguePoint() )

  0001e	8b b7 00 06 00
	00		 mov	 esi, DWORD PTR [edi+1536]
  00024	e8 00 00 00 00	 call	 ?GetMaxFatiguePoint@CMover@@QAEHXZ ; CMover::GetMaxFatiguePoint
  00029	3b f0		 cmp	 esi, eax
  0002b	5e		 pop	 esi
  0002c	7e 0d		 jle	 SHORT $LN3@SetFatigue

; 923  : 		m_nFatiguePoint = GetMaxFatiguePoint(); 

  0002e	8b cf		 mov	 ecx, edi
  00030	e8 00 00 00 00	 call	 ?GetMaxFatiguePoint@CMover@@QAEHXZ ; CMover::GetMaxFatiguePoint
  00035	89 87 00 06 00
	00		 mov	 DWORD PTR [edi+1536], eax
$LN3@SetFatigue:
  0003b	5f		 pop	 edi

; 924  : }

  0003c	5d		 pop	 ebp
  0003d	c2 04 00	 ret	 4
?SetFatiguePoint@CMover@@QAEXH@Z ENDP			; CMover::SetFatiguePoint
_TEXT	ENDS
; Function compile flags: /Ogtp
; File C:\IAGOS\server\v18\Source\Source\_Common\MoverParam.cpp
;	COMDAT ?SetManaPoint@CMover@@QAEXH@Z
_TEXT	SEGMENT
_nVal$ = 8						; size = 4
?SetManaPoint@CMover@@QAEXH@Z PROC			; CMover::SetManaPoint, COMDAT
; _this$ = ecx

; 909  : {

  00000	55		 push	 ebp
  00001	8b ec		 mov	 ebp, esp

; 910  : 	m_nManaPoint = nVal;

  00003	8b 45 08	 mov	 eax, DWORD PTR _nVal$[ebp]
  00006	57		 push	 edi
  00007	8b f9		 mov	 edi, ecx
  00009	89 87 fc 05 00
	00		 mov	 DWORD PTR [edi+1532], eax

; 911  : 	if( m_nManaPoint < 0 )

  0000f	85 c0		 test	 eax, eax
  00011	79 0a		 jns	 SHORT $LN2@SetManaPoi

; 912  : 		m_nManaPoint = 0;

  00013	c7 87 fc 05 00
	00 00 00 00 00	 mov	 DWORD PTR [edi+1532], 0
$LN2@SetManaPoi:
  0001d	56		 push	 esi

; 913  : 	if( m_nManaPoint > GetMaxManaPoint() )

  0001e	8b b7 fc 05 00
	00		 mov	 esi, DWORD PTR [edi+1532]
  00024	e8 00 00 00 00	 call	 ?GetMaxManaPoint@CMover@@QAEHXZ ; CMover::GetMaxManaPoint
  00029	3b f0		 cmp	 esi, eax
  0002b	5e		 pop	 esi
  0002c	7e 0d		 jle	 SHORT $LN3@SetManaPoi

; 914  : 		m_nManaPoint = GetMaxManaPoint(); 

  0002e	8b cf		 mov	 ecx, edi
  00030	e8 00 00 00 00	 call	 ?GetMaxManaPoint@CMover@@QAEHXZ ; CMover::GetMaxManaPoint
  00035	89 87 fc 05 00
	00		 mov	 DWORD PTR [edi+1532], eax
$LN3@SetManaPoi:
  0003b	5f		 pop	 edi

; 915  : }

  0003c	5d		 pop	 ebp
  0003d	c2 04 00	 ret	 4
?SetManaPoint@CMover@@QAEXH@Z ENDP			; CMover::SetManaPoint
_TEXT	ENDS
; Function compile flags: /Ogtp
; File C:\IAGOS\server\v18\Source\Source\_Common\MoverParam.cpp
;	COMDAT ?SetHitPoint@CMover@@QAEXH@Z
_TEXT	SEGMENT
_nVal$ = 8						; size = 4
?SetHitPoint@CMover@@QAEXH@Z PROC			; CMover::SetHitPoint, COMDAT
; _this$ = ecx

; 899  : {

  00000	55		 push	 ebp
  00001	8b ec		 mov	 ebp, esp

; 900  : 	m_nHitPoint = nVal;

  00003	8b 45 08	 mov	 eax, DWORD PTR _nVal$[ebp]
  00006	57		 push	 edi
  00007	8b f9		 mov	 edi, ecx
  00009	89 87 f8 05 00
	00		 mov	 DWORD PTR [edi+1528], eax

; 901  : //	m_nHitPoint += nVal;
; 902  : 	if( m_nHitPoint < 0 )

  0000f	85 c0		 test	 eax, eax
  00011	79 0a		 jns	 SHORT $LN2@SetHitPoin

; 903  : 		m_nHitPoint = 0;

  00013	c7 87 f8 05 00
	00 00 00 00 00	 mov	 DWORD PTR [edi+1528], 0
$LN2@SetHitPoin:
  0001d	56		 push	 esi

; 904  : 	if( m_nHitPoint > GetMaxHitPoint() )

  0001e	8b b7 f8 05 00
	00		 mov	 esi, DWORD PTR [edi+1528]
  00024	e8 00 00 00 00	 call	 ?GetMaxHitPoint@CMover@@QAEHXZ ; CMover::GetMaxHitPoint
  00029	3b f0		 cmp	 esi, eax
  0002b	5e		 pop	 esi
  0002c	7e 0d		 jle	 SHORT $LN3@SetHitPoin

; 905  : 		m_nHitPoint = GetMaxHitPoint(); 

  0002e	8b cf		 mov	 ecx, edi
  00030	e8 00 00 00 00	 call	 ?GetMaxHitPoint@CMover@@QAEHXZ ; CMover::GetMaxHitPoint
  00035	89 87 f8 05 00
	00		 mov	 DWORD PTR [edi+1528], eax
$LN3@SetHitPoin:
  0003b	5f		 pop	 edi

; 906  : }

  0003c	5d		 pop	 ebp
  0003d	c2 04 00	 ret	 4
?SetHitPoint@CMover@@QAEXH@Z ENDP			; CMover::SetHitPoint
_TEXT	ENDS
; Function compile flags: /Ogtp
; File C:\IAGOS\server\v18\Source\Source\_Common\MoverParam.cpp
; File C:\IAGOS\server\v18\Source\Source\_Common\Mover.h
; File C:\IAGOS\server\v18\Source\Source\_Common\MoverParam.cpp
;	COMDAT ?IncFatiguePoint@CMover@@QAEXH@Z
_TEXT	SEGMENT
_nVal$ = 8						; size = 4
?IncFatiguePoint@CMover@@QAEXH@Z PROC			; CMover::IncFatiguePoint, COMDAT
; _this$ = ecx

; 623  : { 

  00000	55		 push	 ebp
  00001	8b ec		 mov	 ebp, esp
; File C:\IAGOS\server\v18\Source\Source\_Common\Mover.h

; 1457 : 	BOOL			IsSMMode( int nType ) { return ( m_dwSMTime[nType] > 0 ) ? TRUE : FALSE; }

  00003	83 b9 18 03 00
	00 00		 cmp	 DWORD PTR [ecx+792], 0
; File C:\IAGOS\server\v18\Source\Source\_Common\MoverParam.cpp

; 625  : 	if( IsSMMode( SM_MAINTAIN_FP ) && nVal < 0 )

  0000a	8b 55 08	 mov	 edx, DWORD PTR _nVal$[ebp]
  0000d	76 04		 jbe	 SHORT $LN2@IncFatigue
  0000f	85 d2		 test	 edx, edx
  00011	78 12		 js	 SHORT $LN1@IncFatigue
$LN2@IncFatigue:

; 626  : 		return;
; 627  : #ifdef __EVENT1206
; 628  : 	if( IsPlayer() && g_eLocal.GetState( EVE_EVENT1206 ) )	// raiders_fix051217
; 629  : 		return;
; 630  : #endif	// __EVENT1206
; 631  : #endif // __WORLDSERVER
; 632  : 	SetPointParam( DST_FP, m_nFatiguePoint + nVal );

  00013	8b 81 00 06 00
	00		 mov	 eax, DWORD PTR [ecx+1536]
  00019	6a 00		 push	 0
  0001b	03 c2		 add	 eax, edx
  0001d	50		 push	 eax
  0001e	6a 28		 push	 40			; 00000028H
  00020	e8 00 00 00 00	 call	 ?SetPointParam@CMover@@QAEXHHH@Z ; CMover::SetPointParam
$LN1@IncFatigue:

; 633  : }

  00025	5d		 pop	 ebp
  00026	c2 04 00	 ret	 4
?IncFatiguePoint@CMover@@QAEXH@Z ENDP			; CMover::IncFatiguePoint
_TEXT	ENDS
; Function compile flags: /Ogtp
; File C:\IAGOS\server\v18\Source\Source\_Common\MoverParam.cpp
; File C:\IAGOS\server\v18\Source\Source\_Common\Mover.h
; File C:\IAGOS\server\v18\Source\Source\_Common\MoverParam.cpp
;	COMDAT ?IncManaPoint@CMover@@QAEXH@Z
_TEXT	SEGMENT
_nVal$ = 8						; size = 4
?IncManaPoint@CMover@@QAEXH@Z PROC			; CMover::IncManaPoint, COMDAT
; _this$ = ecx

; 610  : { 

  00000	55		 push	 ebp
  00001	8b ec		 mov	 ebp, esp
; File C:\IAGOS\server\v18\Source\Source\_Common\Mover.h

; 1457 : 	BOOL			IsSMMode( int nType ) { return ( m_dwSMTime[nType] > 0 ) ? TRUE : FALSE; }

  00003	83 b9 14 03 00
	00 00		 cmp	 DWORD PTR [ecx+788], 0
; File C:\IAGOS\server\v18\Source\Source\_Common\MoverParam.cpp

; 612  : 	if( IsSMMode( SM_MAINTAIN_MP ) && nVal < 0 )

  0000a	8b 55 08	 mov	 edx, DWORD PTR _nVal$[ebp]
  0000d	76 04		 jbe	 SHORT $LN2@IncManaPoi
  0000f	85 d2		 test	 edx, edx
  00011	78 12		 js	 SHORT $LN1@IncManaPoi
$LN2@IncManaPoi:

; 613  : 		return;
; 614  : #ifdef __EVENT1206
; 615  : 	if( IsPlayer() && g_eLocal.GetState( EVE_EVENT1206 ) ) //  raiders_fix051217
; 616  : 		return;
; 617  : #endif	// __EVENT1206
; 618  : #endif // __WORLDSERVER
; 619  : 	SetPointParam( DST_MP, m_nManaPoint + nVal );

  00013	8b 81 fc 05 00
	00		 mov	 eax, DWORD PTR [ecx+1532]
  00019	6a 00		 push	 0
  0001b	03 c2		 add	 eax, edx
  0001d	50		 push	 eax
  0001e	6a 27		 push	 39			; 00000027H
  00020	e8 00 00 00 00	 call	 ?SetPointParam@CMover@@QAEXHHH@Z ; CMover::SetPointParam
$LN1@IncManaPoi:

; 620  : }

  00025	5d		 pop	 ebp
  00026	c2 04 00	 ret	 4
?IncManaPoint@CMover@@QAEXH@Z ENDP			; CMover::IncManaPoint
_TEXT	ENDS
; Function compile flags: /Ogtp
; File C:\IAGOS\server\v18\Source\Source\_Common\MoverParam.cpp
;	COMDAT ?IncHitPoint@CMover@@QAEXH@Z
_TEXT	SEGMENT
_nVal$ = 8						; size = 4
?IncHitPoint@CMover@@QAEXH@Z PROC			; CMover::IncHitPoint, COMDAT
; _this$ = ecx

; 605  : { 

  00000	55		 push	 ebp
  00001	8b ec		 mov	 ebp, esp

; 606  : 	SetPointParam( DST_HP, m_nHitPoint + nVal );

  00003	8b 81 f8 05 00
	00		 mov	 eax, DWORD PTR [ecx+1528]
  00009	03 45 08	 add	 eax, DWORD PTR _nVal$[ebp]
  0000c	6a 00		 push	 0
  0000e	50		 push	 eax
  0000f	6a 26		 push	 38			; 00000026H
  00011	e8 00 00 00 00	 call	 ?SetPointParam@CMover@@QAEXHHH@Z ; CMover::SetPointParam

; 607  : }

  00016	5d		 pop	 ebp
  00017	c2 04 00	 ret	 4
?IncHitPoint@CMover@@QAEXH@Z ENDP			; CMover::IncHitPoint
_TEXT	ENDS
; Function compile flags: /Ogtp
; File C:\IAGOS\server\v18\Source\Source\_Common\MoverParam.cpp
;	COMDAT ?GetRemainGP@CMover@@QAEHXZ
_TEXT	SEGMENT
?GetRemainGP@CMover@@QAEHXZ PROC			; CMover::GetRemainGP, COMDAT
; _this$ = ecx

; 545  : 	return m_nRemainGP;

  00000	8b 81 04 06 00
	00		 mov	 eax, DWORD PTR [ecx+1540]

; 546  : }

  00006	c3		 ret	 0
?GetRemainGP@CMover@@QAEHXZ ENDP			; CMover::GetRemainGP
_TEXT	ENDS
; Function compile flags: /Ogtp
; File C:\IAGOS\server\v18\Source\Source\_Common\MoverParam.cpp
;	COMDAT ?IsJobType@CMover@@QAEHK@Z
_TEXT	SEGMENT
_dwJobType$ = 8						; size = 4
?IsJobType@CMover@@QAEHK@Z PROC				; CMover::IsJobType, COMDAT
; _this$ = ecx

; 379  : { 

  00000	55		 push	 ebp
  00001	8b ec		 mov	 ebp, esp

; 380  : 	if( IsExpert() )

  00003	e8 00 00 00 00	 call	 ?IsExpert@CMover@@QAEHXZ ; CMover::IsExpert
  00008	85 c0		 test	 eax, eax
  0000a	74 0d		 je	 SHORT $LN2@IsJobType

; 381  : 	{
; 382  : 		if( dwJobType == JTYPE_EXPERT ) 

  0000c	33 c0		 xor	 eax, eax
  0000e	83 7d 08 01	 cmp	 DWORD PTR _dwJobType$[ebp], 1

; 387  : }

  00012	0f 94 c0	 sete	 al
  00015	5d		 pop	 ebp
  00016	c2 04 00	 ret	 4
$LN2@IsJobType:

; 383  : 			return TRUE;
; 384  : 		return FALSE;
; 385  : 	}
; 386  : 	return JTYPE_BASE == dwJobType;

  00019	33 c0		 xor	 eax, eax
  0001b	39 45 08	 cmp	 DWORD PTR _dwJobType$[ebp], eax

; 387  : }

  0001e	0f 94 c0	 sete	 al
  00021	5d		 pop	 ebp
  00022	c2 04 00	 ret	 4
?IsJobType@CMover@@QAEHK@Z ENDP				; CMover::IsJobType
_TEXT	ENDS
; Function compile flags: /Ogtp
; File C:\IAGOS\server\v18\Source\Source\_Common\MoverParam.cpp
; File C:\IAGOS\server\v18\Source\Source\_Common\Mover.h
; File C:\IAGOS\server\v18\Source\Source\_Common\MoverParam.cpp
; File C:\IAGOS\server\v18\Source\Source\_Common\Mover.h
; File C:\IAGOS\server\v18\Source\Source\_Common\MoverParam.cpp
;	COMDAT ?GetExpPercent@CMover@@QAEHXZ
_TEXT	SEGMENT
?GetExpPercent@CMover@@QAEHXZ PROC			; CMover::GetExpPercent, COMDAT
; _this$ = ecx

; 534  : {

  00000	56		 push	 esi
; File C:\IAGOS\server\v18\Source\Source\_Common\Mover.h

; 1137 : 	EXPINTEGER		GetMaxExp1()	{	return prj.m_aExpCharacter[m_nLevel+1].nExp1;	}

  00001	8b b1 d8 05 00
	00		 mov	 esi, DWORD PTR [ecx+1496]
; File C:\IAGOS\server\v18\Source\Source\_Common\MoverParam.cpp

; 537  : 	nExpPercent = (int)( GetExp1() * 10000 / GetMaxExp1() );

  00007	6a 00		 push	 0
  00009	68 10 27 00 00	 push	 10000			; 00002710H
  0000e	ff b1 e4 05 00
	00		 push	 DWORD PTR [ecx+1508]
; File C:\IAGOS\server\v18\Source\Source\_Common\Mover.h

; 1137 : 	EXPINTEGER		GetMaxExp1()	{	return prj.m_aExpCharacter[m_nLevel+1].nExp1;	}

  00014	c1 e6 05	 shl	 esi, 5
; File C:\IAGOS\server\v18\Source\Source\_Common\MoverParam.cpp

; 537  : 	nExpPercent = (int)( GetExp1() * 10000 / GetMaxExp1() );

  00017	ff b1 e0 05 00
	00		 push	 DWORD PTR [ecx+1504]
  0001d	e8 00 00 00 00	 call	 __allmul
  00022	ff b6 f4 4f 00
	00		 push	 DWORD PTR ?prj@@3VCProject@@A[esi+20468]
  00028	ff b6 f0 4f 00
	00		 push	 DWORD PTR ?prj@@3VCProject@@A[esi+20464]
  0002e	52		 push	 edx
  0002f	50		 push	 eax
  00030	e8 00 00 00 00	 call	 __alldiv

; 538  : 
; 539  : 	return nExpPercent; 

  00035	5e		 pop	 esi

; 540  : }

  00036	c3		 ret	 0
?GetExpPercent@CMover@@QAEHXZ ENDP			; CMover::GetExpPercent
_TEXT	ENDS
; Function compile flags: /Ogtp
; File C:\IAGOS\server\v18\Source\Source\_Common\MoverParam.cpp
;	COMDAT ?GetJob@CMover@@QAEHXZ
_TEXT	SEGMENT
?GetJob@CMover@@QAEHXZ PROC				; CMover::GetJob, COMDAT
; _this$ = ecx

; 530  : 	return m_nJob; 

  00000	8b 81 3c 06 00
	00		 mov	 eax, DWORD PTR [ecx+1596]

; 531  : }

  00006	c3		 ret	 0
?GetJob@CMover@@QAEHXZ ENDP				; CMover::GetJob
_TEXT	ENDS
; Function compile flags: /Ogtp
; File C:\IAGOS\server\v18\Source\Source\_Common\MoverParam.cpp
;	COMDAT ?AddChangeJob@CMover@@QAEHH@Z
_TEXT	SEGMENT
_nJob$ = 8						; size = 4
?AddChangeJob@CMover@@QAEHH@Z PROC			; CMover::AddChangeJob, COMDAT
; _this$ = ecx

; 1728 : {

  00000	55		 push	 ebp
  00001	8b ec		 mov	 ebp, esp
  00003	8b 45 08	 mov	 eax, DWORD PTR _nJob$[ebp]
  00006	53		 push	 ebx
  00007	56		 push	 esi
  00008	57		 push	 edi

; 1729 : 	BOOL	bResult = FALSE;

  00009	8d 1c 80	 lea	 ebx, DWORD PTR [eax+eax*4]
  0000c	33 ff		 xor	 edi, edi
  0000e	c1 e3 05	 shl	 ebx, 5
  00011	8b f1		 mov	 esi, ecx

; 1730 : 	LPSKILL lpSkill;
; 1731 : 	if( MAX_JOBBASE <= nJob && nJob < MAX_EXPERT ) // 1Â÷ ŔüÁ÷ ±îÁö~~ ^^;;;;

  00013	83 f8 01	 cmp	 eax, 1
  00016	0f 8c 31 01 00
	00		 jl	 $LN47@AddChangeJ
  0001c	83 f8 06	 cmp	 eax, 6
  0001f	7d 38		 jge	 SHORT $LN48@AddChangeJ

; 1732 : 	{
; 1733 : 		m_nJob = nJob;

  00021	89 86 3c 06 00
	00		 mov	 DWORD PTR [esi+1596], eax
  00027	33 c9		 xor	 ecx, ecx

; 1734 : 		
; 1735 : 		ItemProp** apSkillProp = prj.m_aJobSkill[ m_nJob ];
; 1736 : 		int nJobNum = prj.m_aJobSkillNum[ m_nJob ];

  00029	8b 3c 85 e0 26
	00 00		 mov	 edi, DWORD PTR ?prj@@3VCProject@@A[eax*4+9952]

; 1737 : 		for( int i = 0; i < nJobNum; i++ )

  00030	85 ff		 test	 edi, edi
  00032	0f 8e 10 01 00
	00		 jle	 $LN15@AddChangeJ

; 1732 : 	{
; 1733 : 		m_nJob = nJob;

  00038	8d 96 7c 03 00
	00		 lea	 edx, DWORD PTR [esi+892]
  0003e	66 90		 npad	 2
$LL4@AddChangeJ:

; 1738 : 		{
; 1739 : 			ItemProp* pSkillProp = apSkillProp[ i ];

  00040	8b 84 8b e0 0d
	00 00		 mov	 eax, DWORD PTR ?prj@@3VCProject@@A[ebx+ecx*4+3552]
  00047	8d 52 08	 lea	 edx, DWORD PTR [edx+8]
  0004a	41		 inc	 ecx

; 1740 : 			lpSkill = &m_aJobSkill[ i + MAX_JOB_SKILL ];
; 1741 : 			lpSkill->dwSkill = pSkillProp->dwID;

  0004b	8b 00		 mov	 eax, DWORD PTR [eax]
  0004d	89 42 f8	 mov	 DWORD PTR [edx-8], eax
  00050	3b cf		 cmp	 ecx, edi
  00052	7c ec		 jl	 SHORT $LL4@AddChangeJ

; 1742 : 		}
; 1743 : 		bResult = TRUE;

  00054	e9 ef 00 00 00	 jmp	 $LN15@AddChangeJ
$LN48@AddChangeJ:

; 1744 : 	}
; 1745 : 	if( MAX_EXPERT <= nJob && nJob < MAX_PROFESSIONAL ) // 2Â÷ ŔüÁ÷ ±îÁö~~ ^^;;;;

  00059	83 f8 10	 cmp	 eax, 16			; 00000010H
  0005c	7d 3e		 jge	 SHORT $LN45@AddChangeJ

; 1748 : 		
; 1749 : 		ItemProp** apSkillProp = prj.m_aJobSkill[ m_nJob ];

  0005e	8d 3c 80	 lea	 edi, DWORD PTR [eax+eax*4]
  00061	89 86 3c 06 00
	00		 mov	 DWORD PTR [esi+1596], eax

; 1750 : 		int nJobNum = prj.m_aJobSkillNum[ m_nJob ];

  00067	8b 1c 85 e0 26
	00 00		 mov	 ebx, DWORD PTR ?prj@@3VCProject@@A[eax*4+9952]
  0006e	33 c9		 xor	 ecx, ecx
  00070	c1 e7 05	 shl	 edi, 5
  00073	81 c7 e0 0d 00
	00		 add	 edi, OFFSET ?prj@@3VCProject@@A+3552

; 1751 : 		for( int i = 0; i < nJobNum; i++ )

  00079	85 db		 test	 ebx, ebx
  0007b	0f 8e c7 00 00
	00		 jle	 $LN15@AddChangeJ

; 1746 : 	{
; 1747 : 		m_nJob = nJob;

  00081	8d 96 1c 04 00
	00		 lea	 edx, DWORD PTR [esi+1052]
$LL7@AddChangeJ:

; 1752 : 		{
; 1753 : 			ItemProp* pSkillProp = apSkillProp[ i ];

  00087	8b 04 8f	 mov	 eax, DWORD PTR [edi+ecx*4]
  0008a	8d 52 08	 lea	 edx, DWORD PTR [edx+8]
  0008d	41		 inc	 ecx

; 1754 : 			lpSkill = &m_aJobSkill[ i + MAX_JOB_SKILL + MAX_EXPERT_SKILL ];
; 1755 : 			lpSkill->dwSkill = pSkillProp->dwID;

  0008e	8b 00		 mov	 eax, DWORD PTR [eax]
  00090	89 42 f8	 mov	 DWORD PTR [edx-8], eax
  00093	3b cb		 cmp	 ecx, ebx
  00095	7c f0		 jl	 SHORT $LL7@AddChangeJ

; 1744 : 	}
; 1745 : 	if( MAX_EXPERT <= nJob && nJob < MAX_PROFESSIONAL ) // 2Â÷ ŔüÁ÷ ±îÁö~~ ^^;;;;

  00097	e9 ac 00 00 00	 jmp	 $LN15@AddChangeJ
$LN45@AddChangeJ:

; 1756 : 		}
; 1757 : 		bResult = TRUE;
; 1758 : 	}
; 1759 : #if __VER >= 10 // __LEGEND	//	10Â÷ Ŕü˝Â˝Ă˝şĹŰ	Neuz, World, Trans
; 1760 : 	if( MAX_PROFESSIONAL <= nJob && nJob < MAX_MASTER ) // Ŕü˝Â ±îÁö~~ ^^;;;;

  0009c	83 f8 18	 cmp	 eax, 24			; 00000018H
  0009f	7d 3c		 jge	 SHORT $LN44@AddChangeJ

; 1761 : 	{
; 1762 : 		m_nJob = nJob;

  000a1	89 86 3c 06 00
	00		 mov	 DWORD PTR [esi+1596], eax
  000a7	33 d2		 xor	 edx, edx

; 1763 : 		
; 1764 : 		ItemProp** apSkillProp = prj.m_aJobSkill[ m_nJob ];
; 1765 : 		int nJobNum = prj.m_aJobSkillNum[ m_nJob ];

  000a9	8b 3c 85 e0 26
	00 00		 mov	 edi, DWORD PTR ?prj@@3VCProject@@A[eax*4+9952]

; 1766 : 		for( int i = 0; i < nJobNum; i++ )

  000b0	85 ff		 test	 edi, edi
  000b2	0f 8e 90 00 00
	00		 jle	 $LN15@AddChangeJ

; 1761 : 	{
; 1762 : 		m_nJob = nJob;

  000b8	8d 8e bc 04 00
	00		 lea	 ecx, DWORD PTR [esi+1212]
  000be	66 90		 npad	 2
$LL10@AddChangeJ:

; 1767 : 		{
; 1768 : 			ItemProp* pSkillProp = apSkillProp[ i ];

  000c0	8b 84 93 e0 0d
	00 00		 mov	 eax, DWORD PTR ?prj@@3VCProject@@A[ebx+edx*4+3552]
  000c7	8d 49 08	 lea	 ecx, DWORD PTR [ecx+8]
  000ca	42		 inc	 edx

; 1769 : 			lpSkill = &m_aJobSkill[ i + MAX_JOB_SKILL + MAX_EXPERT_SKILL + MAX_PRO_SKILL];
; 1770 : 			lpSkill->dwSkill = pSkillProp->dwID;

  000cb	8b 00		 mov	 eax, DWORD PTR [eax]
  000cd	89 41 f8	 mov	 DWORD PTR [ecx-8], eax

; 1771 : 			lpSkill->dwLevel = 1;	//master˝şĹłŔş 1şÎĹÍ ÁŘ´Ů.

  000d0	c7 41 fc 01 00
	00 00		 mov	 DWORD PTR [ecx-4], 1
  000d7	3b d7		 cmp	 edx, edi
  000d9	7c e5		 jl	 SHORT $LL10@AddChangeJ

; 1744 : 	}
; 1745 : 	if( MAX_EXPERT <= nJob && nJob < MAX_PROFESSIONAL ) // 2Â÷ ŔüÁ÷ ±îÁö~~ ^^;;;;

  000db	eb 6b		 jmp	 SHORT $LN15@AddChangeJ
$LN44@AddChangeJ:

; 1772 : 		}
; 1773 : 		bResult = TRUE;
; 1774 : 	}
; 1775 : 	
; 1776 : 	if( MAX_MASTER <= nJob && nJob < MAX_HERO ) // żµżő ±îÁö~~ ^^;;;;

  000dd	83 f8 20	 cmp	 eax, 32			; 00000020H
  000e0	7d 34		 jge	 SHORT $LN43@AddChangeJ

; 1777 : 	{
; 1778 : 		m_nJob = nJob;

  000e2	89 86 3c 06 00
	00		 mov	 DWORD PTR [esi+1596], eax
  000e8	33 c9		 xor	 ecx, ecx

; 1779 : 		
; 1780 : 		ItemProp** apSkillProp = prj.m_aJobSkill[ m_nJob ];
; 1781 : 		int nJobNum = prj.m_aJobSkillNum[ m_nJob ];

  000ea	8b 3c 85 e0 26
	00 00		 mov	 edi, DWORD PTR ?prj@@3VCProject@@A[eax*4+9952]

; 1782 : 		for( int i = 0; i < nJobNum; i++ )

  000f1	85 ff		 test	 edi, edi
  000f3	7e 53		 jle	 SHORT $LN15@AddChangeJ

; 1777 : 	{
; 1778 : 		m_nJob = nJob;

  000f5	8d 96 c4 04 00
	00		 lea	 edx, DWORD PTR [esi+1220]
  000fb	0f 1f 44 00 00	 npad	 5
$LL13@AddChangeJ:

; 1783 : 		{
; 1784 : 			ItemProp* pSkillProp = apSkillProp[ i ];

  00100	8b 84 8b e0 0d
	00 00		 mov	 eax, DWORD PTR ?prj@@3VCProject@@A[ebx+ecx*4+3552]
  00107	8d 52 08	 lea	 edx, DWORD PTR [edx+8]
  0010a	41		 inc	 ecx

; 1785 : 			lpSkill = &m_aJobSkill[ i + MAX_JOB_SKILL + MAX_EXPERT_SKILL + MAX_PRO_SKILL + MAX_MASTER_SKILL ];
; 1786 : 			lpSkill->dwSkill = pSkillProp->dwID;

  0010b	8b 00		 mov	 eax, DWORD PTR [eax]
  0010d	89 42 f8	 mov	 DWORD PTR [edx-8], eax
  00110	3b cf		 cmp	 ecx, edi
  00112	7c ec		 jl	 SHORT $LL13@AddChangeJ

; 1744 : 	}
; 1745 : 	if( MAX_EXPERT <= nJob && nJob < MAX_PROFESSIONAL ) // 2Â÷ ŔüÁ÷ ±îÁö~~ ^^;;;;

  00114	eb 32		 jmp	 SHORT $LN15@AddChangeJ
$LN43@AddChangeJ:

; 1787 : 		}
; 1788 : 		bResult = TRUE;
; 1789 : 	}
; 1790 : #ifdef __3RD_LEGEND16
; 1791 : 	if( MAX_HERO <= nJob && nJob < MAX_LEGEND_HERO )

  00116	83 f8 28	 cmp	 eax, 40			; 00000028H
  00119	7d 32		 jge	 SHORT $LN47@AddChangeJ

; 1792 : 	{
; 1793 : 		m_nJob = nJob;

  0011b	89 86 3c 06 00
	00		 mov	 DWORD PTR [esi+1596], eax
  00121	33 c9		 xor	 ecx, ecx

; 1794 : 		
; 1795 : 		ItemProp** apSkillProp = prj.m_aJobSkill[ m_nJob ];
; 1796 : 		int nJobNum = prj.m_aJobSkillNum[ m_nJob ];

  00123	8b 3c 85 e0 26
	00 00		 mov	 edi, DWORD PTR ?prj@@3VCProject@@A[eax*4+9952]

; 1797 : 		for( int i = 0; i < nJobNum; i++ )

  0012a	85 ff		 test	 edi, edi
  0012c	7e 1a		 jle	 SHORT $LN15@AddChangeJ

; 1792 : 	{
; 1793 : 		m_nJob = nJob;

  0012e	8d 96 cc 04 00
	00		 lea	 edx, DWORD PTR [esi+1228]
$LL16@AddChangeJ:

; 1798 : 		{
; 1799 : 			ItemProp* pSkillProp = apSkillProp[ i ];

  00134	8b 84 8b e0 0d
	00 00		 mov	 eax, DWORD PTR ?prj@@3VCProject@@A[ebx+ecx*4+3552]
  0013b	8d 52 08	 lea	 edx, DWORD PTR [edx+8]
  0013e	41		 inc	 ecx

; 1800 : 			lpSkill = &m_aJobSkill[ i + MAX_JOB_SKILL + MAX_EXPERT_SKILL + MAX_PRO_SKILL + MAX_MASTER_SKILL + MAX_HERO_SKILL ];
; 1801 : 			lpSkill->dwSkill = pSkillProp->dwID;

  0013f	8b 00		 mov	 eax, DWORD PTR [eax]
  00141	89 42 f8	 mov	 DWORD PTR [edx-8], eax
  00144	3b cf		 cmp	 ecx, edi
  00146	7c ec		 jl	 SHORT $LL16@AddChangeJ
$LN15@AddChangeJ:

; 1802 : 		}
; 1803 : 		bResult = TRUE;
; 1804 : 	}
; 1805 : #endif // __3RD_LEGEND16
; 1806 : #endif	//__LEGEND	//	10Â÷ Ŕü˝Â˝Ă˝şĹŰ	Neuz, World, Trans
; 1807 : 
; 1808 : 
; 1809 : #ifdef __WORLDSERVER
; 1810 : #ifdef __S_NEW_SKILL_2
; 1811 : 	g_dpDBClient.SaveSkill( (CUser*)this );
; 1812 : #endif // __S_NEW_SKILL_2
; 1813 : #if __VER >= 13 // __HONORABLE_TITLE			// ´ŢŔÎ
; 1814 : 	((CUser*)this)->CheckHonorStat();

  00148	bf 01 00 00 00	 mov	 edi, 1
$LN47@AddChangeJ:
  0014d	8b ce		 mov	 ecx, esi
  0014f	e8 00 00 00 00	 call	 ?CheckHonorStat@CMover@@QAEXXZ ; CMover::CheckHonorStat

; 1815 : 	((CUser*)this)->AddHonorListAck();

  00154	8b ce		 mov	 ecx, esi
  00156	e8 00 00 00 00	 call	 ?AddHonorListAck@CUser@@QAEXXZ ; CUser::AddHonorListAck

; 1816 : 	g_UserMng.AddHonorTitleChange( this, m_nHonor);

  0015b	ff b6 70 08 00
	00		 push	 DWORD PTR [esi+2160]
  00161	b9 00 00 00 00	 mov	 ecx, OFFSET ?g_UserMng@@3VCUserMng@@A ; g_UserMng
  00166	56		 push	 esi
  00167	e8 00 00 00 00	 call	 ?AddHonorTitleChange@CUserMng@@QAEXPAVCMover@@H@Z ; CUserMng::AddHonorTitleChange

; 1817 : #endif	// __HONORABLE_TITLE			// ´ŢŔÎ
; 1818 : #endif // __WORLDSERVER
; 1819 : 	return bResult;

  0016c	8b c7		 mov	 eax, edi
  0016e	5f		 pop	 edi
  0016f	5e		 pop	 esi
  00170	5b		 pop	 ebx

; 1820 : }

  00171	5d		 pop	 ebp
  00172	c2 04 00	 ret	 4
?AddChangeJob@CMover@@QAEHH@Z ENDP			; CMover::AddChangeJob
_TEXT	ENDS
; Function compile flags: /Ogtp
; File C:\IAGOS\server\v18\Source\Source\_Common\MoverParam.cpp
;	COMDAT ?SetExpert@CMover@@QAEHH@Z
_TEXT	SEGMENT
_nJob$ = 8						; size = 4
?SetExpert@CMover@@QAEHH@Z PROC				; CMover::SetExpert, COMDAT
; _this$ = ecx

; 510  : {

  00000	55		 push	 ebp
  00001	8b ec		 mov	 ebp, esp
  00003	57		 push	 edi

; 511  : 	if( m_nJob == nJob )

  00004	8b 7d 08	 mov	 edi, DWORD PTR _nJob$[ebp]
  00007	33 c0		 xor	 eax, eax
  00009	39 b9 3c 06 00
	00		 cmp	 DWORD PTR [ecx+1596], edi
  0000f	74 3a		 je	 SHORT $LN1@SetExpert

; 514  : 
; 515  : 	int nNum = 3; // 3Ŕş ±âş» ˝şĹłŔÇ °ąĽö´Ů. 3 ŔĚ»óşÎĹÍ ŔÍ˝şĆŰĆ® ˝şĹłŔĚ Ăß°ˇµČ´Ů´Â ŔÇąĚ 
; 516  : 	LPSKILL lpSkill;
; 517  : 	ItemProp** apSkillProp = prj.m_aJobSkill[ m_nJob ];

  00011	56		 push	 esi
  00012	8d 34 bf	 lea	 esi, DWORD PTR [edi+edi*4]
  00015	89 b9 3c 06 00
	00		 mov	 DWORD PTR [ecx+1596], edi

; 518  : 	int nJobNum = prj.m_aJobSkillNum[ m_nJob ];

  0001b	8b 3c bd e0 26
	00 00		 mov	 edi, DWORD PTR ?prj@@3VCProject@@A[edi*4+9952]
  00022	c1 e6 05	 shl	 esi, 5
  00025	81 c6 e0 0d 00
	00		 add	 esi, OFFSET ?prj@@3VCProject@@A+3552

; 519  : 	for( int i = 0; i < nJobNum; i++ )

  0002b	85 ff		 test	 edi, edi
  0002d	7e 16		 jle	 SHORT $LN3@SetExpert

; 512  : 		return FALSE;
; 513  : 	m_nJob = nJob;

  0002f	8d 91 7c 03 00
	00		 lea	 edx, DWORD PTR [ecx+892]
$LL4@SetExpert:

; 520  : 	{
; 521  : 		ItemProp* pSkillProp = apSkillProp[ i ];

  00035	8b 0c 86	 mov	 ecx, DWORD PTR [esi+eax*4]
  00038	8d 52 08	 lea	 edx, DWORD PTR [edx+8]
  0003b	40		 inc	 eax

; 522  : 		lpSkill = &m_aJobSkill[ nNum++ ];
; 523  : 		lpSkill->dwSkill = pSkillProp->dwID;

  0003c	8b 09		 mov	 ecx, DWORD PTR [ecx]
  0003e	89 4a f8	 mov	 DWORD PTR [edx-8], ecx
  00041	3b c7		 cmp	 eax, edi
  00043	7c f0		 jl	 SHORT $LL4@SetExpert
$LN3@SetExpert:

; 524  : 	}
; 525  : 	return TRUE;

  00045	b8 01 00 00 00	 mov	 eax, 1
  0004a	5e		 pop	 esi
$LN1@SetExpert:
  0004b	5f		 pop	 edi

; 526  : }

  0004c	5d		 pop	 ebp
  0004d	c2 04 00	 ret	 4
?SetExpert@CMover@@QAEHH@Z ENDP				; CMover::SetExpert
_TEXT	ENDS
; Function compile flags: /Ogtp
; File C:\IAGOS\server\v18\Source\Source\_Common\MoverParam.cpp
;	COMDAT ?IsInteriorityJob@CMover@@QAEHH@Z
_TEXT	SEGMENT
_nJob$ = 8						; size = 4
?IsInteriorityJob@CMover@@QAEHH@Z PROC			; CMover::IsInteriorityJob, COMDAT
; _this$ = ecx

; 435  : {

  00000	55		 push	 ebp
  00001	8b ec		 mov	 ebp, esp
  00003	53		 push	 ebx
  00004	56		 push	 esi

; 436  : 	if( nJob == JOB_VAGRANT || nJob == m_nJob )

  00005	8b 75 08	 mov	 esi, DWORD PTR _nJob$[ebp]
  00008	8b d9		 mov	 ebx, ecx
  0000a	57		 push	 edi
  0000b	85 f6		 test	 esi, esi
  0000d	0f 84 fc 00 00
	00		 je	 $LN3@IsInterior
  00013	8b bb 3c 06 00
	00		 mov	 edi, DWORD PTR [ebx+1596]
  00019	3b f7		 cmp	 esi, edi
  0001b	0f 84 ee 00 00
	00		 je	 $LN3@IsInterior

; 437  : 		return TRUE;
; 438  : 
; 439  : 	if( IsPro() && JOB_VAGRANT < nJob && nJob < MAX_EXPERT )

  00021	e8 00 00 00 00	 call	 ?IsPro@CMover@@QAEHXZ	; CMover::IsPro
  00026	85 c0		 test	 eax, eax
  00028	74 26		 je	 SHORT $LN5@IsInterior
  0002a	8d 46 ff	 lea	 eax, DWORD PTR [esi-1]
  0002d	83 f8 04	 cmp	 eax, 4
  00030	77 1e		 ja	 SHORT $LN5@IsInterior

; 440  : 	{
; 441  : 		if( nJob * 2 + 4 == m_nJob || nJob * 2 + 5 == m_nJob )

  00032	8d 04 75 04 00
	00 00		 lea	 eax, DWORD PTR [esi*2+4]
  00039	3b c7		 cmp	 eax, edi
  0003b	0f 84 ce 00 00
	00		 je	 $LN3@IsInterior
  00041	8d 04 75 05 00
	00 00		 lea	 eax, DWORD PTR [esi*2+5]
  00048	3b c7		 cmp	 eax, edi
  0004a	0f 84 bf 00 00
	00		 je	 $LN3@IsInterior
$LN5@IsInterior:

; 442  : 		{
; 443  : 			return TRUE;
; 444  : 		}
; 445  : 	}
; 446  : 	if( IsMaster()  )	// ·ąş§ŔĚ ľČµÇ¸é ¸řÂü.				

  00050	8b cb		 mov	 ecx, ebx
  00052	e8 00 00 00 00	 call	 ?IsMaster@CMover@@QAEHXZ ; CMover::IsMaster
  00057	85 c0		 test	 eax, eax
  00059	74 2d		 je	 SHORT $LN13@IsInterior

; 447  : 	{
; 448  : 		if( nJob < MAX_EXPERT )

  0005b	83 fe 06	 cmp	 esi, 6
  0005e	7d 18		 jge	 SHORT $LN8@IsInterior

; 449  : 		{
; 450  : 			if( nJob * 2 + 14 == m_nJob || nJob * 2 + 15 == m_nJob )

  00060	8d 04 75 0e 00
	00 00		 lea	 eax, DWORD PTR [esi*2+14]
  00067	3b c7		 cmp	 eax, edi
  00069	0f 84 a0 00 00
	00		 je	 $LN3@IsInterior
  0006f	8d 04 75 0f 00
	00 00		 lea	 eax, DWORD PTR [esi*2+15]
  00076	eb 08		 jmp	 SHORT $LN65@IsInterior
$LN8@IsInterior:

; 451  : 				return TRUE;
; 452  : 		}
; 453  : 		else if( nJob < MAX_PROFESSIONAL )

  00078	83 fe 10	 cmp	 esi, 16			; 00000010H
  0007b	7d 0b		 jge	 SHORT $LN13@IsInterior

; 454  : 		{
; 455  : 			if( nJob + 10 == m_nJob )

  0007d	8d 46 0a	 lea	 eax, DWORD PTR [esi+10]
$LN65@IsInterior:

; 456  : 				return TRUE;
; 457  : 		}
; 458  : 	}
; 459  : 	if( IsHero()  )	// ·ąş§ŔĚ ľČµÇ¸é ¸řÂü.				

  00080	3b c7		 cmp	 eax, edi
  00082	0f 84 87 00 00
	00		 je	 $LN3@IsInterior
$LN13@IsInterior:
  00088	8b cb		 mov	 ecx, ebx
  0008a	e8 00 00 00 00	 call	 ?IsHero@CMover@@QAEHXZ	; CMover::IsHero
  0008f	85 c0		 test	 eax, eax
  00091	74 2f		 je	 SHORT $LN23@IsInterior

; 460  : 	{
; 461  : 		if( nJob < MAX_EXPERT )

  00093	83 fe 06	 cmp	 esi, 6
  00096	7d 14		 jge	 SHORT $LN15@IsInterior

; 462  : 		{
; 463  : 			if( nJob * 2 + 22 == m_nJob || nJob * 2 + 23 == m_nJob )

  00098	8d 04 75 16 00
	00 00		 lea	 eax, DWORD PTR [esi*2+22]
  0009f	3b c7		 cmp	 eax, edi
  000a1	74 6c		 je	 SHORT $LN3@IsInterior
  000a3	8d 04 75 17 00
	00 00		 lea	 eax, DWORD PTR [esi*2+23]
  000aa	eb 12		 jmp	 SHORT $LN67@IsInterior
$LN15@IsInterior:

; 464  : 				return TRUE;
; 465  : 		}
; 466  : 		else if( nJob < MAX_PROFESSIONAL )

  000ac	83 fe 10	 cmp	 esi, 16			; 00000010H
  000af	7d 05		 jge	 SHORT $LN19@IsInterior

; 467  : 		{
; 468  : 			if( nJob + 18 == m_nJob )

  000b1	8d 46 12	 lea	 eax, DWORD PTR [esi+18]
  000b4	eb 08		 jmp	 SHORT $LN67@IsInterior
$LN19@IsInterior:

; 469  : 				return TRUE;
; 470  : 		}
; 471  : #if __VER >= 14 // __NEW_ITEM_LIMIT_LEVEL
; 472  : 		else if( nJob < MAX_MASTER )	// Hero´Â ¸¶˝şĹÍ ą«±â¸¦ ŔĺÂřÇŇ Ľö ŔÖ´Ů.

  000b6	83 fe 18	 cmp	 esi, 24			; 00000018H
  000b9	7d 07		 jge	 SHORT $LN23@IsInterior

; 473  : 		{
; 474  : 			if( nJob + 8 == m_nJob )

  000bb	8d 46 08	 lea	 eax, DWORD PTR [esi+8]
$LN67@IsInterior:

; 475  : 				return TRUE;
; 476  : 		}
; 477  : #endif // __NEW_ITEM_LIMIT_LEVEL
; 478  : 	}
; 479  : #ifdef __3RD_LEGEND16
; 480  : 	if( IsLegendHero() )

  000be	3b c7		 cmp	 eax, edi
  000c0	74 4d		 je	 SHORT $LN3@IsInterior
$LN23@IsInterior:
  000c2	8b cb		 mov	 ecx, ebx
  000c4	e8 00 00 00 00	 call	 ?IsLegendHero@CMover@@QAEHXZ ; CMover::IsLegendHero
  000c9	85 c0		 test	 eax, eax
  000cb	74 39		 je	 SHORT $LN36@IsInterior

; 481  : 	{
; 482  : 		if( nJob < MAX_EXPERT )

  000cd	83 fe 06	 cmp	 esi, 6
  000d0	7d 14		 jge	 SHORT $LN25@IsInterior

; 483  : 		{
; 484  : 			if( nJob * 2 + 30 == m_nJob || nJob * 2 + 31 == m_nJob )

  000d2	8d 04 75 1e 00
	00 00		 lea	 eax, DWORD PTR [esi*2+30]
  000d9	3b c7		 cmp	 eax, edi
  000db	74 32		 je	 SHORT $LN3@IsInterior
  000dd	8d 04 75 1f 00
	00 00		 lea	 eax, DWORD PTR [esi*2+31]
  000e4	eb 1c		 jmp	 SHORT $LN69@IsInterior
$LN25@IsInterior:

; 485  : 				return TRUE;
; 486  : 		}
; 487  : 		else if( nJob < MAX_PROFESSIONAL )

  000e6	83 fe 10	 cmp	 esi, 16			; 00000010H
  000e9	7d 05		 jge	 SHORT $LN29@IsInterior

; 488  : 		{
; 489  : 			if( nJob + 26 == m_nJob )

  000eb	8d 46 1a	 lea	 eax, DWORD PTR [esi+26]
  000ee	eb 12		 jmp	 SHORT $LN69@IsInterior
$LN29@IsInterior:

; 490  : 				return TRUE;
; 491  : 		}
; 492  : 		else if( nJob < MAX_MASTER )	// Hero´Â ¸¶˝şĹÍ ą«±â¸¦ ŔĺÂřÇŇ Ľö ŔÖ´Ů.

  000f0	83 fe 18	 cmp	 esi, 24			; 00000018H
  000f3	7d 05		 jge	 SHORT $LN32@IsInterior

; 493  : 		{
; 494  : 			if( nJob + 16 == m_nJob )

  000f5	8d 46 10	 lea	 eax, DWORD PTR [esi+16]
  000f8	eb 08		 jmp	 SHORT $LN69@IsInterior
$LN32@IsInterior:

; 495  : 				return TRUE;
; 496  : 		}
; 497  : 		else if( nJob < MAX_HERO )

  000fa	83 fe 20	 cmp	 esi, 32			; 00000020H
  000fd	7d 07		 jge	 SHORT $LN36@IsInterior

; 498  : 		{
; 499  : 			if( nJob + 8 == m_nJob )

  000ff	8d 46 08	 lea	 eax, DWORD PTR [esi+8]
$LN69@IsInterior:

; 500  : 				return TRUE;
; 501  : 		}
; 502  : 	}
; 503  : #endif // __3RD_LEGEND16
; 504  : 	return FALSE;

  00102	3b c7		 cmp	 eax, edi
  00104	74 09		 je	 SHORT $LN3@IsInterior
$LN36@IsInterior:
  00106	5f		 pop	 edi

; 505  : }

  00107	5e		 pop	 esi
  00108	33 c0		 xor	 eax, eax
  0010a	5b		 pop	 ebx
  0010b	5d		 pop	 ebp
  0010c	c2 04 00	 ret	 4
$LN3@IsInterior:
  0010f	5f		 pop	 edi
  00110	5e		 pop	 esi
  00111	b8 01 00 00 00	 mov	 eax, 1
  00116	5b		 pop	 ebx
  00117	5d		 pop	 ebp
  00118	c2 04 00	 ret	 4
?IsInteriorityJob@CMover@@QAEHH@Z ENDP			; CMover::IsInteriorityJob
_TEXT	ENDS
; Function compile flags: /Ogtp
; File C:\IAGOS\server\v18\Source\Source\_Common\MoverParam.cpp
;	COMDAT ?IsPro@CMover@@QAEHXZ
_TEXT	SEGMENT
?IsPro@CMover@@QAEHXZ PROC				; CMover::IsPro, COMDAT
; _this$ = ecx

; 398  : 	return prj.m_aJob[ m_nJob ].dwJobType == JTYPE_PRO;

  00000	8b 81 3c 06 00
	00		 mov	 eax, DWORD PTR [ecx+1596]
  00006	8d 0c c0	 lea	 ecx, DWORD PTR [eax+eax*8]
  00009	33 c0		 xor	 eax, eax
  0000b	83 3c cd c4 27
	00 00 02	 cmp	 DWORD PTR ?prj@@3VCProject@@A[ecx*8+10180], 2
  00013	0f 94 c0	 sete	 al

; 399  : }

  00016	c3		 ret	 0
?IsPro@CMover@@QAEHXZ ENDP				; CMover::IsPro
_TEXT	ENDS
; Function compile flags: /Ogtp
; File C:\IAGOS\server\v18\Source\Source\_Common\MoverParam.cpp
;	COMDAT ?IsExpert@CMover@@QAEHXZ
_TEXT	SEGMENT
?IsExpert@CMover@@QAEHXZ PROC				; CMover::IsExpert, COMDAT
; _this$ = ecx

; 394  : 	return prj.m_aJob[ m_nJob ].dwJobType == JTYPE_EXPERT;

  00000	8b 81 3c 06 00
	00		 mov	 eax, DWORD PTR [ecx+1596]
  00006	8d 0c c0	 lea	 ecx, DWORD PTR [eax+eax*8]
  00009	33 c0		 xor	 eax, eax
  0000b	83 3c cd c4 27
	00 00 01	 cmp	 DWORD PTR ?prj@@3VCProject@@A[ecx*8+10180], 1
  00013	0f 94 c0	 sete	 al

; 395  : }

  00016	c3		 ret	 0
?IsExpert@CMover@@QAEHXZ ENDP				; CMover::IsExpert
_TEXT	ENDS
; Function compile flags: /Ogtp
; File C:\IAGOS\server\v18\Source\Source\_Common\MoverParam.cpp
;	COMDAT ?IsBaseJob@CMover@@QAEHXZ
_TEXT	SEGMENT
?IsBaseJob@CMover@@QAEHXZ PROC				; CMover::IsBaseJob, COMDAT
; _this$ = ecx

; 390  : 	return prj.m_aJob[ m_nJob ].dwJobType == JTYPE_BASE;

  00000	8b 81 3c 06 00
	00		 mov	 eax, DWORD PTR [ecx+1596]
  00006	8d 0c c0	 lea	 ecx, DWORD PTR [eax+eax*8]
  00009	33 c0		 xor	 eax, eax
  0000b	39 04 cd c4 27
	00 00		 cmp	 DWORD PTR ?prj@@3VCProject@@A[ecx*8+10180], eax
  00012	0f 94 c0	 sete	 al

; 391  : }

  00015	c3		 ret	 0
?IsBaseJob@CMover@@QAEHXZ ENDP				; CMover::IsBaseJob
_TEXT	ENDS
; Function compile flags: /Ogtp
; File C:\IAGOS\server\v18\Source\Source\_Common\MoverParam.cpp
; File C:\IAGOS\server\v18\Source\Source\_Common\Project.h
; File C:\IAGOS\server\v18\Source\Source\_Common\MoverParam.cpp
; File C:\IAGOS\server\v18\Source\Source\_Common\Project.h
; File C:\IAGOS\server\v18\Source\Source\_Common\data.h
; File C:\IAGOS\server\v18\Source\Source\_Common\MoverParam.cpp
; File C:\IAGOS\server\v18\Source\Source\_Common\Project.h
; File C:\IAGOS\server\v18\Source\Source\_Common\MoverParam.cpp
;	COMDAT ?CheckSkill@CMover@@QAEHK@Z
_TEXT	SEGMENT
_dwSkill$ = 8						; size = 4
?CheckSkill@CMover@@QAEHK@Z PROC			; CMover::CheckSkill, COMDAT
; _this$ = ecx

; 118  : {

  00000	55		 push	 ebp
  00001	8b ec		 mov	 ebp, esp
; File C:\IAGOS\server\v18\Source\Source\_Common\Project.h

; 1395 : 	VERIFY_RANGE( nIndex, 0, m_aPropSkill.GetSize(), "GetSkillProp range_error", NULL );

  00003	8b 55 08	 mov	 edx, DWORD PTR _dwSkill$[ebp]
  00006	a1 64 02 00 00	 mov	 eax, DWORD PTR ?prj@@3VCProject@@A+612
; File C:\IAGOS\server\v18\Source\Source\_Common\MoverParam.cpp

; 118  : {

  0000b	56		 push	 esi
  0000c	57		 push	 edi
  0000d	8b f9		 mov	 edi, ecx
; File C:\IAGOS\server\v18\Source\Source\_Common\Project.h

; 1395 : 	VERIFY_RANGE( nIndex, 0, m_aPropSkill.GetSize(), "GetSkillProp range_error", NULL );

  0000f	85 d2		 test	 edx, edx
  00011	0f 88 a7 00 00
	00		 js	 $LN17@CheckSkill
  00017	3b d0		 cmp	 edx, eax
  00019	0f 8d 9f 00 00
	00		 jge	 $LN17@CheckSkill
; File C:\IAGOS\server\v18\Source\Source\_Common\data.h

; 270  : 	if( dwIndex >= (DWORD)m_nMaxIndex )

  0001f	72 04		 jb	 SHORT $LN22@CheckSkill

; 271  : 		return NULL;

  00021	33 f6		 xor	 esi, esi
  00023	eb 08		 jmp	 SHORT $LN21@CheckSkill
$LN22@CheckSkill:

; 272  : 	return (T*) m_apOffset[ dwIndex ];

  00025	a1 54 02 00 00	 mov	 eax, DWORD PTR ?prj@@3VCProject@@A+596
  0002a	8b 34 90	 mov	 esi, DWORD PTR [eax+edx*4]
$LN21@CheckSkill:
; File C:\IAGOS\server\v18\Source\Source\_Common\MoverParam.cpp

; 121  : 	if( pSkillProp == NULL || pSkillProp->nLog == 1 )

  0002d	85 f6		 test	 esi, esi
  0002f	0f 84 9f 00 00
	00		 je	 $LN3@CheckSkill
  00035	83 be 94 00 00
	00 01		 cmp	 DWORD PTR [esi+148], 1
  0003c	0f 84 92 00 00
	00		 je	 $LN3@CheckSkill

; 123  : #if __VER >= 10 // __LEGEND	//	9Â÷ Ŕü˝Â˝Ă˝şĹŰ	Neuz, World, Trans
; 124  : #ifdef __3RD_LEGEND16
; 125  : 	if( !IsMaster() && !IsHero() && !IsLegendHero() && GetLevel() < (int)( pSkillProp->dwReqDisLV ) )

  00042	e8 00 00 00 00	 call	 ?IsMaster@CMover@@QAEHXZ ; CMover::IsMaster
  00047	85 c0		 test	 eax, eax
  00049	75 24		 jne	 SHORT $LN4@CheckSkill
  0004b	8b cf		 mov	 ecx, edi
  0004d	e8 00 00 00 00	 call	 ?IsHero@CMover@@QAEHXZ	; CMover::IsHero
  00052	85 c0		 test	 eax, eax
  00054	75 19		 jne	 SHORT $LN4@CheckSkill
  00056	8b cf		 mov	 ecx, edi
  00058	e8 00 00 00 00	 call	 ?IsLegendHero@CMover@@QAEHXZ ; CMover::IsLegendHero
  0005d	85 c0		 test	 eax, eax
  0005f	75 0e		 jne	 SHORT $LN4@CheckSkill
  00061	8b 87 d8 05 00
	00		 mov	 eax, DWORD PTR [edi+1496]
  00067	3b 86 80 01 00
	00		 cmp	 eax, DWORD PTR [esi+384]
  0006d	7c 65		 jl	 SHORT $LN3@CheckSkill
$LN4@CheckSkill:

; 126  : #else // __3RD_LEGEND16
; 127  : 	if( !IsMaster() && !IsHero() && GetLevel() < (int)( pSkillProp->dwReqDisLV ) )
; 128  : #endif // __3RD_LEGEND16
; 129  : 		return FALSE;
; 130  : #else //__LEGEND	//	9Â÷ Ŕü˝Â˝Ă˝şĹŰ	Neuz, World, Trans
; 131  : 	if( GetLevel() < pSkillProp->dwReqDisLV )
; 132  : 		return FALSE;
; 133  : #endif	//__LEGEND	//	9Â÷ Ŕü˝Â˝Ă˝şĹŰ	Neuz, World, Trans
; 134  : 				
; 135  : 	if( pSkillProp->dwReSkill1 != 0xffffffff )

  0006f	8b 86 84 01 00
	00		 mov	 eax, DWORD PTR [esi+388]
  00075	83 f8 ff	 cmp	 eax, -1
  00078	74 17		 je	 SHORT $LN7@CheckSkill

; 136  : 	{
; 137  : 		LPSKILL pSkillBuf = GetSkill( pSkillProp->dwReSkill1 );

  0007a	50		 push	 eax
  0007b	8b cf		 mov	 ecx, edi
  0007d	e8 00 00 00 00	 call	 ?GetSkill@CMover@@QAEPAUtagSkill@@K@Z ; CMover::GetSkill

; 138  : 		if( pSkillBuf )

  00082	85 c0		 test	 eax, eax
  00084	74 0b		 je	 SHORT $LN7@CheckSkill

; 139  : 		{
; 140  : 			if( pSkillBuf->dwLevel < pSkillProp->dwReSkillLevel1 )

  00086	8b 40 04	 mov	 eax, DWORD PTR [eax+4]
  00089	3b 86 88 01 00
	00		 cmp	 eax, DWORD PTR [esi+392]
  0008f	72 43		 jb	 SHORT $LN3@CheckSkill
$LN7@CheckSkill:

; 141  : 			{
; 142  : 				return FALSE;
; 143  : 			}
; 144  : 		}
; 145  : 	}
; 146  : 	
; 147  : 	if( pSkillProp->dwReSkill2 != 0xffffffff )

  00091	8b 86 8c 01 00
	00		 mov	 eax, DWORD PTR [esi+396]
  00097	83 f8 ff	 cmp	 eax, -1
  0009a	74 17		 je	 SHORT $LN10@CheckSkill

; 148  : 	{
; 149  : 		LPSKILL pSkillBuf = GetSkill( pSkillProp->dwReSkill2 );

  0009c	50		 push	 eax
  0009d	8b cf		 mov	 ecx, edi
  0009f	e8 00 00 00 00	 call	 ?GetSkill@CMover@@QAEPAUtagSkill@@K@Z ; CMover::GetSkill

; 150  : 		if( pSkillBuf )

  000a4	85 c0		 test	 eax, eax
  000a6	74 0b		 je	 SHORT $LN10@CheckSkill

; 151  : 		{
; 152  : 			if( pSkillBuf->dwLevel < pSkillProp->dwReSkillLevel2 )

  000a8	8b 40 04	 mov	 eax, DWORD PTR [eax+4]
  000ab	3b 86 90 01 00
	00		 cmp	 eax, DWORD PTR [esi+400]
  000b1	72 21		 jb	 SHORT $LN3@CheckSkill
$LN10@CheckSkill:
  000b3	5f		 pop	 edi

; 153  : 			{
; 154  : 				return FALSE;
; 155  : 			}				
; 156  : 		}
; 157  : 	}	
; 158  : 	
; 159  : 	return TRUE;

  000b4	b8 01 00 00 00	 mov	 eax, 1

; 160  : }

  000b9	5e		 pop	 esi
  000ba	5d		 pop	 ebp
  000bb	c2 04 00	 ret	 4
$LN17@CheckSkill:
; File C:\IAGOS\server\v18\Source\Source\_Common\Project.h

; 579  : 	LPCTSTR szErr = Error( _T( "%s min:%d, max:%d, index:%d" ), szMsg, nMin, nMax, nIndex ); 

  000be	52		 push	 edx
  000bf	50		 push	 eax
  000c0	6a 00		 push	 0
  000c2	68 00 00 00 00	 push	 OFFSET ??_C@_0BJ@GPNGCFMK@GetSkillProp?5range_error@
  000c7	68 00 00 00 00	 push	 OFFSET ??_C@_0BM@HMFGHCP@?$CFs?5min?3?$CFd?0?5max?3?$CFd?0?5index?3?$CFd@
  000cc	e8 00 00 00 00	 call	 ?Error@@YAPBDPBDZZ	; Error
  000d1	83 c4 14	 add	 esp, 20			; 00000014H
$LN3@CheckSkill:
  000d4	5f		 pop	 edi
; File C:\IAGOS\server\v18\Source\Source\_Common\MoverParam.cpp

; 122  : 		return FALSE;

  000d5	33 c0		 xor	 eax, eax

; 160  : }

  000d7	5e		 pop	 esi
  000d8	5d		 pop	 ebp
  000d9	c2 04 00	 ret	 4
?CheckSkill@CMover@@QAEHK@Z ENDP			; CMover::CheckSkill
_TEXT	ENDS
; Function compile flags: /Ogtp
; File C:\IAGOS\server\v18\Source\Source\_Common\MoverParam.cpp
;	COMDAT ?GetSkillIdx@CMover@@QAEHK@Z
_TEXT	SEGMENT
_dwSkill$ = 8						; size = 4
?GetSkillIdx@CMover@@QAEHK@Z PROC			; CMover::GetSkillIdx, COMDAT
; _this$ = ecx

; 107  : {

  00000	55		 push	 ebp
  00001	8b ec		 mov	 ebp, esp

; 108  : 	for( int i = 0; i < MAX_SKILL_JOB; i++ )	

  00003	8b 55 08	 mov	 edx, DWORD PTR _dwSkill$[ebp]
  00006	33 c0		 xor	 eax, eax
  00008	81 c1 64 03 00
	00		 add	 ecx, 868		; 00000364H
  0000e	66 90		 npad	 2
$LL4@GetSkillId:

; 109  : 	{
; 110  : 		if( m_aJobSkill[i].dwSkill == dwSkill )

  00010	39 11		 cmp	 DWORD PTR [ecx], edx
  00012	74 0c		 je	 SHORT $LN1@GetSkillId

; 108  : 	for( int i = 0; i < MAX_SKILL_JOB; i++ )	

  00014	40		 inc	 eax
  00015	83 c1 08	 add	 ecx, 8
  00018	83 f8 33	 cmp	 eax, 51			; 00000033H
  0001b	7c f3		 jl	 SHORT $LL4@GetSkillId

; 111  : 			return i;
; 112  : 	}
; 113  : 	return -1;

  0001d	83 c8 ff	 or	 eax, -1
$LN1@GetSkillId:

; 114  : }

  00020	5d		 pop	 ebp
  00021	c2 04 00	 ret	 4
?GetSkillIdx@CMover@@QAEHK@Z ENDP			; CMover::GetSkillIdx
_TEXT	ENDS
; Function compile flags: /Ogtp
; File C:\IAGOS\server\v18\Source\Source\_Common\MoverParam.cpp
;	COMDAT ?GetSkill@CMover@@QAEPAUtagSkill@@K@Z
_TEXT	SEGMENT
_dwSkill$ = 8						; size = 4
?GetSkill@CMover@@QAEPAUtagSkill@@K@Z PROC		; CMover::GetSkill, COMDAT
; _this$ = ecx

; 97   : {

  00000	55		 push	 ebp
  00001	8b ec		 mov	 ebp, esp

; 98   : 	for( int i = 0; i < MAX_SKILL_JOB; i++ )	

  00003	8d 81 64 03 00
	00		 lea	 eax, DWORD PTR [ecx+868]
  00009	33 d2		 xor	 edx, edx
  0000b	8b 4d 08	 mov	 ecx, DWORD PTR _dwSkill$[ebp]
  0000e	66 90		 npad	 2
$LL4@GetSkill:

; 99   : 	{
; 100  : 		if( m_aJobSkill[i].dwSkill == dwSkill )

  00010	39 08		 cmp	 DWORD PTR [eax], ecx
  00012	74 0b		 je	 SHORT $LN1@GetSkill

; 98   : 	for( int i = 0; i < MAX_SKILL_JOB; i++ )	

  00014	42		 inc	 edx
  00015	83 c0 08	 add	 eax, 8
  00018	83 fa 33	 cmp	 edx, 51			; 00000033H
  0001b	7c f3		 jl	 SHORT $LL4@GetSkill

; 101  : 			return &m_aJobSkill[i];
; 102  : 	}
; 103  : 	return NULL;

  0001d	33 c0		 xor	 eax, eax
$LN1@GetSkill:

; 104  : }

  0001f	5d		 pop	 ebp
  00020	c2 04 00	 ret	 4
?GetSkill@CMover@@QAEPAUtagSkill@@K@Z ENDP		; CMover::GetSkill
_TEXT	ENDS
; Function compile flags: /Ogtp
; File C:\IAGOS\server\v18\Source\Source\_Common\MoverParam.cpp
;	COMDAT ?GetSkill@CMover@@QAEPAUtagSkill@@HH@Z
_TEXT	SEGMENT
_nType$ = 8						; size = 4
_nIdx$ = 12						; size = 4
?GetSkill@CMover@@QAEPAUtagSkill@@HH@Z PROC		; CMover::GetSkill, COMDAT
; _this$ = ecx

; 86   : {

  00000	55		 push	 ebp
  00001	8b ec		 mov	 ebp, esp

; 87   : 	// nType == 0ŔĚ¸é Á÷ľ÷ ˝şĹł
; 88   : 	// nType == 1ŔĚ¸é ¶óŔĚĽ±˝ş ˝şĹł 
; 89   : 	if( nIdx >= MAX_SKILL_JOB )

  00003	8b 45 0c	 mov	 eax, DWORD PTR _nIdx$[ebp]
  00006	56		 push	 esi
  00007	8b f1		 mov	 esi, ecx
  00009	83 f8 33	 cmp	 eax, 51			; 00000033H
  0000c	7c 17		 jl	 SHORT $LN4@GetSkill

; 90   : 	{
; 91   : 		Error( "CMover::GetSkill : %s nId = %d ąüŔ§¸¦ ąţľîł˛", m_szName, nIdx );

  0000e	50		 push	 eax
  0000f	8d 86 ec 14 00
	00		 lea	 eax, DWORD PTR [esi+5356]
  00015	50		 push	 eax
  00016	68 00 00 00 00	 push	 OFFSET ??_C@_0CN@NIDLLMEN@CMover?3?3GetSkill?5?3?5?$CFs?5nId?5?$DN?5?$CFd?5@
  0001b	e8 00 00 00 00	 call	 ?Error@@YAPBDPBDZZ	; Error
  00020	83 c4 0c	 add	 esp, 12			; 0000000cH

; 92   : 		nIdx = 0;

  00023	33 c0		 xor	 eax, eax
$LN4@GetSkill:

; 93   : 	}
; 94   : 	return &m_aJobSkill[ nIdx ];
; 95   : }

  00025	8d 04 c5 64 03
	00 00		 lea	 eax, DWORD PTR [eax*8+868]
  0002c	03 c6		 add	 eax, esi
  0002e	5e		 pop	 esi
  0002f	5d		 pop	 ebp
  00030	c2 08 00	 ret	 8
?GetSkill@CMover@@QAEPAUtagSkill@@HH@Z ENDP		; CMover::GetSkill
_TEXT	ENDS
; Function compile flags: /Ogtp
; File C:\IAGOS\server\v18\Source\Source\_Common\MoverParam.cpp
;	COMDAT ?SetPointParam@CMover@@QAEXHHH@Z
_TEXT	SEGMENT
_nDstParameter$ = 8					; size = 4
_nValue$ = 12						; size = 4
_bTrans$ = 16						; size = 4
?SetPointParam@CMover@@QAEXHHH@Z PROC			; CMover::SetPointParam, COMDAT
; _this$ = ecx

; 939  : {

  00000	55		 push	 ebp
  00001	8b ec		 mov	 ebp, esp
  00003	53		 push	 ebx

; 940  : #ifdef __WORLDSERVER
; 941  : 	int nMax = nValue;

  00004	8b 5d 0c	 mov	 ebx, DWORD PTR _nValue$[ebp]
  00007	56		 push	 esi
  00008	57		 push	 edi

; 942  : #endif // __WORLDSERVER
; 943  : 	if( nValue < 0 )	nValue	= 0;
; 944  : 	BOOL	bTransfer	= bTrans;

  00009	33 ff		 xor	 edi, edi
  0000b	8b f1		 mov	 esi, ecx

; 945  : 
; 946  : 	switch( nDstParameter )

  0000d	8b 4d 08	 mov	 ecx, DWORD PTR _nDstParameter$[ebp]
  00010	85 db		 test	 ebx, ebx
  00012	0f 49 fb	 cmovns	 edi, ebx
  00015	83 f9 28	 cmp	 ecx, 40			; 00000028H
  00018	0f 8f da 00 00
	00		 jg	 $LN20@SetPointPa
  0001e	0f 84 94 00 00
	00		 je	 $LN13@SetPointPa
  00024	8b c7		 mov	 eax, edi
  00026	83 e9 26	 sub	 ecx, 38			; 00000026H
  00029	74 4d		 je	 SHORT $LN5@SetPointPa
  0002b	83 e9 01	 sub	 ecx, 1
  0002e	0f 85 ce 00 00
	00		 jne	 $LN2@SetPointPa

; 955  : 			{
; 956  : 				bTransfer	= TRUE;
; 957  : 				m_nHitPoint		= nValue;
; 958  : 			}
; 959  : 			break;
; 960  : 		case DST_MP:
; 961  : #ifdef __WORLDSERVER
; 962  : 			if( nValue > GetMaxManaPoint() || nMax == 999999999 )	nValue	= GetMaxManaPoint();

  00034	8b ce		 mov	 ecx, esi
  00036	e8 00 00 00 00	 call	 ?GetMaxManaPoint@CMover@@QAEHXZ ; CMover::GetMaxManaPoint
  0003b	3b f8		 cmp	 edi, eax
  0003d	7f 0a		 jg	 SHORT $LN11@SetPointPa
  0003f	8b c7		 mov	 eax, edi
  00041	81 fb ff c9 9a
	3b		 cmp	 ebx, 999999999		; 3b9ac9ffH
  00047	75 07		 jne	 SHORT $LN10@SetPointPa
$LN11@SetPointPa:
  00049	8b ce		 mov	 ecx, esi
  0004b	e8 00 00 00 00	 call	 ?GetMaxManaPoint@CMover@@QAEHXZ ; CMover::GetMaxManaPoint
$LN10@SetPointPa:

; 963  : #else // __WORLDSERVER
; 964  : 			if( nValue > GetMaxManaPoint() )	nValue	= GetMaxManaPoint();
; 965  : #endif // __WORLDSERVER
; 966  : 			if( m_nManaPoint != nValue )

  00050	39 86 fc 05 00
	00		 cmp	 DWORD PTR [esi+1532], eax
  00056	0f 84 a6 00 00
	00		 je	 $LN2@SetPointPa

; 1003 : 		g_UserMng.AddSetPointParam( this, nDstParameter, nValue );

  0005c	50		 push	 eax
  0005d	ff 75 08	 push	 DWORD PTR _nDstParameter$[ebp]
  00060	b9 00 00 00 00	 mov	 ecx, OFFSET ?g_UserMng@@3VCUserMng@@A ; g_UserMng
  00065	89 86 fc 05 00
	00		 mov	 DWORD PTR [esi+1532], eax
  0006b	56		 push	 esi
  0006c	e8 00 00 00 00	 call	 ?AddSetPointParam@CUserMng@@QAEXPAVCMover@@HH@Z ; CUserMng::AddSetPointParam
  00071	5f		 pop	 edi

; 1004 : #endif	// __WORLDSERVER
; 1005 : }

  00072	5e		 pop	 esi
  00073	5b		 pop	 ebx
  00074	5d		 pop	 ebp
  00075	c2 0c 00	 ret	 12			; 0000000cH
$LN5@SetPointPa:

; 947  : 	{
; 948  : 		case DST_HP:
; 949  : #ifdef __WORLDSERVER
; 950  : 			if( nValue > GetMaxHitPoint() || nMax == 999999999 )	nValue	= GetMaxHitPoint();

  00078	8b ce		 mov	 ecx, esi
  0007a	e8 00 00 00 00	 call	 ?GetMaxHitPoint@CMover@@QAEHXZ ; CMover::GetMaxHitPoint
  0007f	3b f8		 cmp	 edi, eax
  00081	7f 0a		 jg	 SHORT $LN7@SetPointPa
  00083	8b c7		 mov	 eax, edi
  00085	81 fb ff c9 9a
	3b		 cmp	 ebx, 999999999		; 3b9ac9ffH
  0008b	75 07		 jne	 SHORT $LN6@SetPointPa
$LN7@SetPointPa:
  0008d	8b ce		 mov	 ecx, esi
  0008f	e8 00 00 00 00	 call	 ?GetMaxHitPoint@CMover@@QAEHXZ ; CMover::GetMaxHitPoint
$LN6@SetPointPa:

; 951  : #else // __WORLDSERVER
; 952  : 			if( nValue > GetMaxHitPoint() )	nValue	= GetMaxHitPoint();
; 953  : #endif // __WORLDSERVER
; 954  : 			if( m_nHitPoint != nValue )

  00094	39 86 f8 05 00
	00		 cmp	 DWORD PTR [esi+1528], eax
  0009a	74 66		 je	 SHORT $LN2@SetPointPa

; 1003 : 		g_UserMng.AddSetPointParam( this, nDstParameter, nValue );

  0009c	50		 push	 eax
  0009d	ff 75 08	 push	 DWORD PTR _nDstParameter$[ebp]
  000a0	b9 00 00 00 00	 mov	 ecx, OFFSET ?g_UserMng@@3VCUserMng@@A ; g_UserMng
  000a5	89 86 f8 05 00
	00		 mov	 DWORD PTR [esi+1528], eax
  000ab	56		 push	 esi
  000ac	e8 00 00 00 00	 call	 ?AddSetPointParam@CUserMng@@QAEXPAVCMover@@HH@Z ; CUserMng::AddSetPointParam
  000b1	5f		 pop	 edi

; 1004 : #endif	// __WORLDSERVER
; 1005 : }

  000b2	5e		 pop	 esi
  000b3	5b		 pop	 ebx
  000b4	5d		 pop	 ebp
  000b5	c2 0c 00	 ret	 12			; 0000000cH
$LN13@SetPointPa:

; 967  : 			{
; 968  : 				bTransfer	= TRUE;
; 969  : 				m_nManaPoint	= nValue;
; 970  : 			}
; 971  : 			break;
; 972  : 		case DST_FP:
; 973  : #ifdef __WORLDSERVER
; 974  : 			if( nValue > GetMaxFatiguePoint() || nMax == 999999999 )	nValue	= GetMaxFatiguePoint();

  000b8	8b ce		 mov	 ecx, esi
  000ba	e8 00 00 00 00	 call	 ?GetMaxFatiguePoint@CMover@@QAEHXZ ; CMover::GetMaxFatiguePoint
  000bf	3b f8		 cmp	 edi, eax
  000c1	7f 0a		 jg	 SHORT $LN15@SetPointPa
  000c3	8b c7		 mov	 eax, edi
  000c5	81 fb ff c9 9a
	3b		 cmp	 ebx, 999999999		; 3b9ac9ffH
  000cb	75 07		 jne	 SHORT $LN14@SetPointPa
$LN15@SetPointPa:
  000cd	8b ce		 mov	 ecx, esi
  000cf	e8 00 00 00 00	 call	 ?GetMaxFatiguePoint@CMover@@QAEHXZ ; CMover::GetMaxFatiguePoint
$LN14@SetPointPa:

; 975  : #else // __WORLDSERVER
; 976  : 			if( nValue > GetMaxFatiguePoint() )		nValue	= GetMaxFatiguePoint();
; 977  : #endif // __WORLDSERVER
; 978  : 			if( m_nFatiguePoint != nValue )

  000d4	39 86 00 06 00
	00		 cmp	 DWORD PTR [esi+1536], eax
  000da	74 26		 je	 SHORT $LN2@SetPointPa

; 1003 : 		g_UserMng.AddSetPointParam( this, nDstParameter, nValue );

  000dc	50		 push	 eax
  000dd	ff 75 08	 push	 DWORD PTR _nDstParameter$[ebp]
  000e0	b9 00 00 00 00	 mov	 ecx, OFFSET ?g_UserMng@@3VCUserMng@@A ; g_UserMng
  000e5	89 86 00 06 00
	00		 mov	 DWORD PTR [esi+1536], eax
  000eb	56		 push	 esi
  000ec	e8 00 00 00 00	 call	 ?AddSetPointParam@CUserMng@@QAEXPAVCMover@@HH@Z ; CUserMng::AddSetPointParam
  000f1	5f		 pop	 edi

; 1004 : #endif	// __WORLDSERVER
; 1005 : }

  000f2	5e		 pop	 esi
  000f3	5b		 pop	 ebx
  000f4	5d		 pop	 ebp
  000f5	c2 0c 00	 ret	 12			; 0000000cH
$LN20@SetPointPa:

; 945  : 
; 946  : 	switch( nDstParameter )

  000f8	8b c7		 mov	 eax, edi
  000fa	81 f9 10 27 00
	00		 cmp	 ecx, 10000		; 00002710H
  00100	74 1c		 je	 SHORT $LN17@SetPointPa
$LN2@SetPointPa:

; 989  : 			return;
; 990  : #endif // __WORLDSERVE
; 991  : #endif // __PERIN_BUY_BUG
; 992  : 
; 993  : 	#ifdef __CLIENT
; 994  : 			if( IsActiveMover() )
; 995  : 				PLAYSND(SND_INF_TRADE);
; 996  : 	#endif //__CLIENT
; 997  : 			bTransfer	= TRUE;
; 998  : 			SetGold( nValue );
; 999  : 			break;
; 1000 : 	}
; 1001 : #ifdef __WORLDSERVER
; 1002 : 	if( bTransfer )

  00102	83 7d 10 00	 cmp	 DWORD PTR _bTrans$[ebp], 0
  00106	74 34		 je	 SHORT $LN18@SetPointPa

; 1003 : 		g_UserMng.AddSetPointParam( this, nDstParameter, nValue );

  00108	50		 push	 eax
  00109	ff 75 08	 push	 DWORD PTR _nDstParameter$[ebp]
  0010c	b9 00 00 00 00	 mov	 ecx, OFFSET ?g_UserMng@@3VCUserMng@@A ; g_UserMng
  00111	56		 push	 esi
  00112	e8 00 00 00 00	 call	 ?AddSetPointParam@CUserMng@@QAEXPAVCMover@@HH@Z ; CUserMng::AddSetPointParam
  00117	5f		 pop	 edi

; 1004 : #endif	// __WORLDSERVER
; 1005 : }

  00118	5e		 pop	 esi
  00119	5b		 pop	 ebx
  0011a	5d		 pop	 ebp
  0011b	c2 0c 00	 ret	 12			; 0000000cH
$LN17@SetPointPa:

; 979  : 			{
; 980  : 				bTransfer	= TRUE;
; 981  : 				m_nFatiguePoint		= nValue;
; 982  : 			}
; 983  : 			break;
; 984  : 		case DST_GOLD:
; 985  : 			//m_dwGold	= (DWORD)nValue;
; 986  : #ifdef __PERIN_BUY_BUG	// chipi_091219 Ăß°ˇ
; 987  : #ifdef __WORLDSERVER
; 988  : 			Error( "SetPointParam( DST_GOLD ) - [User:%s(%07d)], [Value:%d]", static_cast<CUser*>(this)->GetName(), static_cast<CUser*>(this)->m_idPlayer, nValue );

  0011e	57		 push	 edi
  0011f	ff b6 34 02 00
	00		 push	 DWORD PTR [esi+564]
  00125	8b ce		 mov	 ecx, esi
  00127	6a 00		 push	 0
  00129	e8 00 00 00 00	 call	 ?GetName@CMover@@QAEPBDH@Z ; CMover::GetName
  0012e	50		 push	 eax
  0012f	68 00 00 00 00	 push	 OFFSET ??_C@_0DI@OAFIFIPO@SetPointParam?$CI?5DST_GOLD?5?$CJ?5?9?5?$FLUs@
  00134	e8 00 00 00 00	 call	 ?Error@@YAPBDPBDZZ	; Error
  00139	83 c4 10	 add	 esp, 16			; 00000010H
$LN18@SetPointPa:

; 1004 : #endif	// __WORLDSERVER
; 1005 : }

  0013c	5f		 pop	 edi
  0013d	5e		 pop	 esi
  0013e	5b		 pop	 ebx
  0013f	5d		 pop	 ebp
  00140	c2 0c 00	 ret	 12			; 0000000cH
?SetPointParam@CMover@@QAEXHHH@Z ENDP			; CMover::SetPointParam
_TEXT	ENDS
; Function compile flags: /Ogtp
; File C:\IAGOS\server\v18\Source\Source\_Common\MoverParam.cpp
;	COMDAT ?GetPointParam@CMover@@QAEHH@Z
_TEXT	SEGMENT
_nDestParameter$ = 8					; size = 4
?GetPointParam@CMover@@QAEHH@Z PROC			; CMover::GetPointParam, COMDAT
; _this$ = ecx

; 927  : {

  00000	55		 push	 ebp
  00001	8b ec		 mov	 ebp, esp

; 928  : 	switch( nDestParameter )

  00003	8b 45 08	 mov	 eax, DWORD PTR _nDestParameter$[ebp]
  00006	83 f8 28	 cmp	 eax, 40			; 00000028H
  00009	7f 27		 jg	 SHORT $LN9@GetPointPa
  0000b	74 1c		 je	 SHORT $LN6@GetPointPa
  0000d	83 e8 26	 sub	 eax, 38			; 00000026H
  00010	74 0e		 je	 SHORT $LN4@GetPointPa
  00012	83 e8 01	 sub	 eax, 1
  00015	75 22		 jne	 SHORT $LN2@GetPointPa

; 931  : 		case DST_MP:	return( GetManaPoint() );

  00017	e8 00 00 00 00	 call	 ?GetManaPoint@CMover@@QAEHXZ ; CMover::GetManaPoint

; 936  : }

  0001c	5d		 pop	 ebp
  0001d	c2 04 00	 ret	 4
$LN4@GetPointPa:

; 929  : 	{
; 930  : 		case DST_HP:	return( GetHitPoint() );

  00020	e8 00 00 00 00	 call	 ?GetHitPoint@CMover@@QAEHXZ ; CMover::GetHitPoint

; 936  : }

  00025	5d		 pop	 ebp
  00026	c2 04 00	 ret	 4
$LN6@GetPointPa:

; 932  : 		case DST_FP:	return( GetFatiguePoint() );

  00029	e8 00 00 00 00	 call	 ?GetFatiguePoint@CMover@@QAEHXZ ; CMover::GetFatiguePoint

; 936  : }

  0002e	5d		 pop	 ebp
  0002f	c2 04 00	 ret	 4
$LN9@GetPointPa:

; 928  : 	switch( nDestParameter )

  00032	3d 10 27 00 00	 cmp	 eax, 10000		; 00002710H
  00037	74 06		 je	 SHORT $LN7@GetPointPa
$LN2@GetPointPa:

; 934  : 	}
; 935  : 	return( 0 );

  00039	33 c0		 xor	 eax, eax

; 936  : }

  0003b	5d		 pop	 ebp
  0003c	c2 04 00	 ret	 4
$LN7@GetPointPa:

; 933  : 		case DST_GOLD:	return( GetGold() );

  0003f	8b 81 e0 14 00
	00		 mov	 eax, DWORD PTR [ecx+5344]

; 936  : }

  00045	5d		 pop	 ebp
  00046	c2 04 00	 ret	 4
?GetPointParam@CMover@@QAEHH@Z ENDP			; CMover::GetPointParam
_TEXT	ENDS
; Function compile flags: /Ogtp
; File C:\IAGOS\server\v18\Source\Source\_Common\MoverParam.cpp
;	COMDAT ?GetChgParam@CMover@@QAEHH@Z
_TEXT	SEGMENT
_nDestParameter$ = 8					; size = 4
?GetChgParam@CMover@@QAEHH@Z PROC			; CMover::GetChgParam, COMDAT
; _this$ = ecx

; 2890 : {

  00000	55		 push	 ebp
  00001	8b ec		 mov	 ebp, esp

; 2891 : 	if( nDestParameter < MAX_ADJPARAMARY )

  00003	8b 45 08	 mov	 eax, DWORD PTR _nDestParameter$[ebp]
  00006	83 f8 5f	 cmp	 eax, 95			; 0000005fH
  00009	7d 0b		 jge	 SHORT $LN2@GetChgPara

; 2892 : 		return m_chgParamAry[ nDestParameter ];

  0000b	8b 84 81 40 13
	00 00		 mov	 eax, DWORD PTR [ecx+eax*4+4928]

; 2894 : }

  00012	5d		 pop	 ebp
  00013	c2 04 00	 ret	 4
$LN2@GetChgPara:

; 2893 : 	return 0x7FFFFFFF;

  00016	b8 ff ff ff 7f	 mov	 eax, 2147483647		; 7fffffffH

; 2894 : }

  0001b	5d		 pop	 ebp
  0001c	c2 04 00	 ret	 4
?GetChgParam@CMover@@QAEHH@Z ENDP			; CMover::GetChgParam
_TEXT	ENDS
; Function compile flags: /Ogtp
; File C:\IAGOS\server\v18\Source\Source\_Common\MoverParam.cpp
;	COMDAT ?GetAdjParam@CMover@@QAEHH@Z
_TEXT	SEGMENT
_nDestParameter$ = 8					; size = 4
?GetAdjParam@CMover@@QAEHH@Z PROC			; CMover::GetAdjParam, COMDAT
; _this$ = ecx

; 2883 : {

  00000	55		 push	 ebp
  00001	8b ec		 mov	 ebp, esp

; 2884 : 	if( nDestParameter < MAX_ADJPARAMARY )

  00003	8b 45 08	 mov	 eax, DWORD PTR _nDestParameter$[ebp]
  00006	83 f8 5f	 cmp	 eax, 95			; 0000005fH
  00009	7d 0b		 jge	 SHORT $LN2@GetAdjPara

; 2885 : 		return m_adjParamAry[ nDestParameter ];

  0000b	8b 84 81 c4 11
	00 00		 mov	 eax, DWORD PTR [ecx+eax*4+4548]

; 2887 : }

  00012	5d		 pop	 ebp
  00013	c2 04 00	 ret	 4
$LN2@GetAdjPara:

; 2886 : 	return 0;

  00016	33 c0		 xor	 eax, eax

; 2887 : }

  00018	5d		 pop	 ebp
  00019	c2 04 00	 ret	 4
?GetAdjParam@CMover@@QAEHH@Z ENDP			; CMover::GetAdjParam
_TEXT	ENDS
; Function compile flags: /Ogtp
; File C:\IAGOS\server\v18\Source\Source\_Common\MoverParam.cpp
;	COMDAT ?ResetDestParam@CMover@@QAEXHPAUItemProp@@H@Z
_TEXT	SEGMENT
_nIdx$ = 8						; size = 4
_pProp$ = 12						; size = 4
_bSend$ = 16						; size = 4
?ResetDestParam@CMover@@QAEXHPAUItemProp@@H@Z PROC	; CMover::ResetDestParam, COMDAT
; _this$ = ecx

; 2367 : {

  00000	55		 push	 ebp
  00001	8b ec		 mov	 ebp, esp

; 2368 : 	ResetDestParam( pProp->dwDestParam[nIdx], pProp->nAdjParamVal[nIdx], bSend );

  00003	8b 55 0c	 mov	 edx, DWORD PTR _pProp$[ebp]
  00006	8b 45 08	 mov	 eax, DWORD PTR _nIdx$[ebp]
  00009	ff 75 10	 push	 DWORD PTR _bSend$[ebp]
  0000c	ff b4 82 4c 01
	00 00		 push	 DWORD PTR [edx+eax*4+332]
  00013	ff b4 82 40 01
	00 00		 push	 DWORD PTR [edx+eax*4+320]
  0001a	e8 00 00 00 00	 call	 ?ResetDestParam@CMover@@QAEXHHH@Z ; CMover::ResetDestParam

; 2369 : }

  0001f	5d		 pop	 ebp
  00020	c2 0c 00	 ret	 12			; 0000000cH
?ResetDestParam@CMover@@QAEXHPAUItemProp@@H@Z ENDP	; CMover::ResetDestParam
_TEXT	ENDS
; Function compile flags: /Ogtp
; File C:\IAGOS\server\v18\Source\Source\_Common\MoverParam.cpp
;	COMDAT ?ResetDestParamSync@CMover@@QAEXHHHH@Z
_TEXT	SEGMENT
_nDstParameter$ = 8					; size = 4
_nAdjParameterValue$ = 12				; size = 4
_nParameterValue$ = 16					; size = 4
_fSend$ = 20						; size = 4
?ResetDestParamSync@CMover@@QAEXHHHH@Z PROC		; CMover::ResetDestParamSync, COMDAT
; _this$ = ecx

; 2857 : #ifdef __CLIENT
; 2858 : 	if( nDstParameter >= MAX_ADJPARAMARY || nDstParameter < 0 )
; 2859 : 	{
; 2860 : //		Error( "ResetDestParam %s : Ŕß¸řµČ °Ş nDstParam : %d", m_szName, nDstParameter );
; 2861 : 		return;
; 2862 : 	}
; 2863 : 
; 2864 : 	switch( nDstParameter )
; 2865 : 	{
; 2866 : 		case DST_SPEED:
; 2867 : 			{
; 2868 : 				m_adjParamAry[nDstParameter] = nParameterValue;
; 2869 : 				if( nAdjParameterValue == 0 && m_chgParamAry[nDstParameter] != 0x7FFFFFFF && m_chgParamAry[nDstParameter] > 0 )
; 2870 : 				{
; 2871 : 					if( --m_chgParamAry[nDstParameter] == 0 )
; 2872 : 						m_chgParamAry[nDstParameter]		= 0x7FFFFFFF;
; 2873 : 				}
; 2874 : 			}
; 2875 : 			break;
; 2876 : 	}
; 2877 : #endif	// __CLIENT
; 2878 : }

  00000	c2 10 00	 ret	 16			; 00000010H
?ResetDestParamSync@CMover@@QAEXHHHH@Z ENDP		; CMover::ResetDestParamSync
_TEXT	ENDS
; Function compile flags: /Ogtp
; File C:\IAGOS\server\v18\Source\Source\_Common\MoverParam.cpp
;	COMDAT ?ResetDestParam@CMover@@QAEXHHH@Z
_TEXT	SEGMENT
_nDstParameter$ = 8					; size = 4
_nAdjParameterValue$ = 12				; size = 4
tv700 = 12						; size = 4
tv701 = 12						; size = 4
_fSend$ = 16						; size = 4
?ResetDestParam@CMover@@QAEXHHH@Z PROC			; CMover::ResetDestParam, COMDAT
; _this$ = ecx

; 2666 : {

  00000	55		 push	 ebp
  00001	8b ec		 mov	 ebp, esp
  00003	53		 push	 ebx

; 2667 : 	switch( nDstParameter )

  00004	8b 5d 08	 mov	 ebx, DWORD PTR _nDstParameter$[ebp]
  00007	56		 push	 esi
  00008	57		 push	 edi
  00009	8b f9		 mov	 edi, ecx
  0000b	8d 83 ee d8 ff
	ff		 lea	 eax, DWORD PTR [ebx-10002]
  00011	83 f8 11	 cmp	 eax, 17			; 00000011H
  00014	0f 87 72 03 00
	00		 ja	 $LN41@ResetDestP
  0001a	ff 24 85 00 00
	00 00		 jmp	 DWORD PTR $LN40@ResetDestP[eax*4]
$LN4@ResetDestP:

; 2668 : 	{
; 2669 : 	case DST_RESIST_ALL:
; 2670 : 		ResetDestParam( DST_RESIST_ELECTRICITY,	nAdjParameterValue, TRUE );

  00021	8b 75 0c	 mov	 esi, DWORD PTR _nAdjParameterValue$[ebp]
  00024	6a 01		 push	 1
  00026	56		 push	 esi
  00027	6a 1c		 push	 28			; 0000001cH
  00029	e8 00 00 00 00	 call	 ?ResetDestParam@CMover@@QAEXHHH@Z ; CMover::ResetDestParam

; 2671 : 		ResetDestParam( DST_RESIST_FIRE,		nAdjParameterValue, TRUE );

  0002e	6a 01		 push	 1
  00030	56		 push	 esi
  00031	6a 1e		 push	 30			; 0000001eH
  00033	8b cf		 mov	 ecx, edi
  00035	e8 00 00 00 00	 call	 ?ResetDestParam@CMover@@QAEXHHH@Z ; CMover::ResetDestParam

; 2672 : 		ResetDestParam( DST_RESIST_WIND,		nAdjParameterValue, TRUE );

  0003a	6a 01		 push	 1
  0003c	56		 push	 esi
  0003d	6a 1f		 push	 31			; 0000001fH
  0003f	8b cf		 mov	 ecx, edi
  00041	e8 00 00 00 00	 call	 ?ResetDestParam@CMover@@QAEXHHH@Z ; CMover::ResetDestParam

; 2673 : 		ResetDestParam( DST_RESIST_WATER,		nAdjParameterValue, TRUE );

  00046	6a 01		 push	 1
  00048	56		 push	 esi
  00049	6a 20		 push	 32			; 00000020H
  0004b	8b cf		 mov	 ecx, edi
  0004d	e8 00 00 00 00	 call	 ?ResetDestParam@CMover@@QAEXHHH@Z ; CMover::ResetDestParam

; 2674 : 		ResetDestParam( DST_RESIST_EARTH,		nAdjParameterValue, TRUE );

  00052	b9 01 00 00 00	 mov	 ecx, 1
  00057	8d 59 20	 lea	 ebx, DWORD PTR [ecx+32]
  0005a	e9 3c 03 00 00	 jmp	 $LN39@ResetDestP
$LN5@ResetDestP:

; 2675 : 		return;
; 2676 : 	case DST_STAT_ALLUP:
; 2677 : 		ResetDestParam( DST_STR,	nAdjParameterValue, TRUE );

  0005f	8b 75 0c	 mov	 esi, DWORD PTR _nAdjParameterValue$[ebp]
  00062	6a 01		 push	 1
  00064	56		 push	 esi
  00065	6a 01		 push	 1
  00067	e8 00 00 00 00	 call	 ?ResetDestParam@CMover@@QAEXHHH@Z ; CMover::ResetDestParam

; 2678 : 		ResetDestParam( DST_DEX,	nAdjParameterValue, TRUE );

  0006c	6a 01		 push	 1
  0006e	56		 push	 esi
  0006f	6a 02		 push	 2
  00071	8b cf		 mov	 ecx, edi
  00073	e8 00 00 00 00	 call	 ?ResetDestParam@CMover@@QAEXHHH@Z ; CMover::ResetDestParam

; 2679 : 		ResetDestParam( DST_INT,	nAdjParameterValue, TRUE );

  00078	6a 01		 push	 1
  0007a	56		 push	 esi
  0007b	6a 03		 push	 3
  0007d	8b cf		 mov	 ecx, edi
  0007f	e8 00 00 00 00	 call	 ?ResetDestParam@CMover@@QAEXHHH@Z ; CMover::ResetDestParam

; 2680 : 		ResetDestParam( DST_STA,	nAdjParameterValue, TRUE );

  00084	b9 01 00 00 00	 mov	 ecx, 1
  00089	8d 59 03	 lea	 ebx, DWORD PTR [ecx+3]
  0008c	e9 0a 03 00 00	 jmp	 $LN39@ResetDestP
$LN6@ResetDestP:

; 2681 : 		return;
; 2682 : 	case DST_HPDMG_UP:	// DST_HP_MAX + DST_CHR_DMG 
; 2683 : 		ResetDestParam( DST_HP_MAX, nAdjParameterValue, TRUE );

  00091	8b 75 0c	 mov	 esi, DWORD PTR _nAdjParameterValue$[ebp]
  00094	6a 01		 push	 1
  00096	56		 push	 esi
  00097	6a 23		 push	 35			; 00000023H
  00099	e8 00 00 00 00	 call	 ?ResetDestParam@CMover@@QAEXHHH@Z ; CMover::ResetDestParam

; 2684 : 		ResetDestParam( DST_CHR_DMG, nAdjParameterValue, TRUE );

  0009e	b9 01 00 00 00	 mov	 ecx, 1
  000a3	8d 59 3e	 lea	 ebx, DWORD PTR [ecx+62]
  000a6	e9 f0 02 00 00	 jmp	 $LN39@ResetDestP
$LN7@ResetDestP:

; 2685 : 		return;
; 2686 : 	case DST_DEFHITRATE_DOWN: // DST_ADJDEF + DST_ADJ_HITRATE
; 2687 : 		ResetDestParam( DST_ADJDEF, nAdjParameterValue, TRUE );

  000ab	8b 75 0c	 mov	 esi, DWORD PTR _nAdjParameterValue$[ebp]
  000ae	6a 01		 push	 1
  000b0	56		 push	 esi
  000b1	6a 1a		 push	 26			; 0000001aH
  000b3	e8 00 00 00 00	 call	 ?ResetDestParam@CMover@@QAEXHHH@Z ; CMover::ResetDestParam

; 2688 : 		ResetDestParam( DST_ADJ_HITRATE, nAdjParameterValue, TRUE );

  000b8	b9 01 00 00 00	 mov	 ecx, 1
  000bd	8d 59 2e	 lea	 ebx, DWORD PTR [ecx+46]
  000c0	e9 d6 02 00 00	 jmp	 $LN39@ResetDestP
$LN8@ResetDestP:

; 2689 : 		return;
; 2690 : 	case DST_LOCOMOTION:
; 2691 : 		ResetDestParam( DST_SPEED,	nAdjParameterValue, TRUE );

  000c5	8b 75 0c	 mov	 esi, DWORD PTR _nAdjParameterValue$[ebp]
  000c8	6a 01		 push	 1
  000ca	56		 push	 esi
  000cb	6a 0b		 push	 11			; 0000000bH
  000cd	e8 00 00 00 00	 call	 ?ResetDestParam@CMover@@QAEXHHH@Z ; CMover::ResetDestParam

; 2692 : 		ResetDestParam( DST_JUMPING,	( nAdjParameterValue * 3 ), TRUE );

  000d2	b9 01 00 00 00	 mov	 ecx, 1
  000d7	8d 34 76	 lea	 esi, DWORD PTR [esi+esi*2]
  000da	8d 59 43	 lea	 ebx, DWORD PTR [ecx+67]
  000dd	e9 b9 02 00 00	 jmp	 $LN39@ResetDestP
$LN9@ResetDestP:

; 2693 : 		return;
; 2694 : #ifdef __NEWWPN1024
; 2695 : 	case DST_MASTRY_ALL:
; 2696 : 		ResetDestParam( DST_MASTRY_EARTH,	nAdjParameterValue, TRUE );
; 2697 : 		ResetDestParam( DST_MASTRY_FIRE,	nAdjParameterValue, TRUE );
; 2698 : 		ResetDestParam( DST_MASTRY_WATER,	nAdjParameterValue, TRUE );
; 2699 : 		ResetDestParam( DST_MASTRY_ELECTRICITY,	nAdjParameterValue, TRUE );
; 2700 : 		ResetDestParam( DST_MASTRY_WIND,	nAdjParameterValue, TRUE );
; 2701 : 		return;
; 2702 : #endif	// __NEWWPN1024
; 2703 : 
; 2704 : 	case DST_HP_RECOVERY_RATE:
; 2705 : 		{
; 2706 : 			int nMax	= GetMaxOriginHitPoint();		// ąöÇÁŔÇ żµÇâŔ» ąŢÁö ľĘŔş żŔ¸®ÁöłŻ ľç

  000e2	6a 01		 push	 1
  000e4	e8 00 00 00 00	 call	 ?GetMaxOriginHitPoint@CMover@@QAEHH@Z ; CMover::GetMaxOriginHitPoint
  000e9	66 0f 6e 45 0c	 movd	 xmm0, DWORD PTR _nAdjParameterValue$[ebp]

; 2707 : 			int nRecv	= (int)( (nMax * (nAdjParameterValue / 100.0f)) );
; 2708 : 			ResetDestParam( DST_HP_RECOVERY, nRecv, TRUE );

  000ee	bb 29 00 00 00	 mov	 ebx, 41			; 00000029H
  000f3	0f 5b c0	 cvtdq2ps xmm0, xmm0
  000f6	8d 4b d8	 lea	 ecx, DWORD PTR [ebx-40]
  000f9	66 0f 6e c8	 movd	 xmm1, eax
  000fd	f3 0f 5e 05 00
	00 00 00	 divss	 xmm0, DWORD PTR __real@42c80000
  00105	0f 5b c9	 cvtdq2ps xmm1, xmm1
  00108	f3 0f 59 c8	 mulss	 xmm1, xmm0
  0010c	f3 0f 2c f1	 cvttss2si esi, xmm1
  00110	e9 86 02 00 00	 jmp	 $LN39@ResetDestP
$LN10@ResetDestP:

; 2709 : 		}
; 2710 : 		return;
; 2711 : 	case DST_MP_RECOVERY_RATE:
; 2712 : 		{
; 2713 : 			int nMax	= GetMaxOriginManaPoint();		// ąöÇÁŔÇ żµÇâŔ» ąŢÁö ľĘŔş żŔ¸®ÁöłŻ ľç

  00115	6a 01		 push	 1
  00117	e8 00 00 00 00	 call	 ?GetMaxOriginManaPoint@CMover@@QAEHH@Z ; CMover::GetMaxOriginManaPoint
  0011c	66 0f 6e 45 0c	 movd	 xmm0, DWORD PTR _nAdjParameterValue$[ebp]

; 2714 : 			int nRecv	= (int)( (nMax * (nAdjParameterValue / 100.0f)) );
; 2715 : 			ResetDestParam( DST_MP_RECOVERY, nRecv, TRUE );

  00121	bb 2a 00 00 00	 mov	 ebx, 42			; 0000002aH
  00126	0f 5b c0	 cvtdq2ps xmm0, xmm0
  00129	8d 4b d7	 lea	 ecx, DWORD PTR [ebx-41]
  0012c	66 0f 6e c8	 movd	 xmm1, eax
  00130	f3 0f 5e 05 00
	00 00 00	 divss	 xmm0, DWORD PTR __real@42c80000
  00138	0f 5b c9	 cvtdq2ps xmm1, xmm1
  0013b	f3 0f 59 c8	 mulss	 xmm1, xmm0
  0013f	f3 0f 2c f1	 cvttss2si esi, xmm1
  00143	e9 53 02 00 00	 jmp	 $LN39@ResetDestP
$LN11@ResetDestP:

; 2716 : 		}
; 2717 : 		return;
; 2718 : 	case DST_FP_RECOVERY_RATE:
; 2719 : 		{
; 2720 : 			int nMax	= GetMaxOriginFatiguePoint();		// ąöÇÁŔÇ żµÇâŔ» ąŢÁö ľĘŔş żŔ¸®ÁöłŻ ľç

  00148	6a 01		 push	 1
  0014a	e8 00 00 00 00	 call	 ?GetMaxOriginFatiguePoint@CMover@@QAEHH@Z ; CMover::GetMaxOriginFatiguePoint
  0014f	66 0f 6e 45 0c	 movd	 xmm0, DWORD PTR _nAdjParameterValue$[ebp]

; 2721 : 			int nRecv	= (int)( (nMax * (nAdjParameterValue / 100.0f)) );
; 2722 : 			ResetDestParam( DST_FP_RECOVERY, nRecv, TRUE );

  00154	bb 2b 00 00 00	 mov	 ebx, 43			; 0000002bH
  00159	0f 5b c0	 cvtdq2ps xmm0, xmm0
  0015c	8d 4b d6	 lea	 ecx, DWORD PTR [ebx-42]
  0015f	66 0f 6e c8	 movd	 xmm1, eax
  00163	f3 0f 5e 05 00
	00 00 00	 divss	 xmm0, DWORD PTR __real@42c80000
  0016b	0f 5b c9	 cvtdq2ps xmm1, xmm1
  0016e	f3 0f 59 c8	 mulss	 xmm1, xmm0
  00172	f3 0f 2c f1	 cvttss2si esi, xmm1
  00176	e9 20 02 00 00	 jmp	 $LN39@ResetDestP
$LN12@ResetDestP:

; 2723 : 		}
; 2724 : 		return;
; 2725 : 	case DST_ALL_RECOVERY:
; 2726 : 		{
; 2727 : 			// HP
; 2728 : 			ResetDestParam( DST_HP_RECOVERY, nAdjParameterValue, TRUE );

  0017b	8b 75 0c	 mov	 esi, DWORD PTR _nAdjParameterValue$[ebp]
  0017e	6a 01		 push	 1
  00180	56		 push	 esi
  00181	6a 29		 push	 41			; 00000029H
  00183	e8 00 00 00 00	 call	 ?ResetDestParam@CMover@@QAEXHHH@Z ; CMover::ResetDestParam

; 2729 : 			// MP
; 2730 : 			ResetDestParam( DST_MP_RECOVERY, nAdjParameterValue, TRUE );

  00188	6a 01		 push	 1
  0018a	56		 push	 esi
  0018b	6a 2a		 push	 42			; 0000002aH
  0018d	8b cf		 mov	 ecx, edi
  0018f	e8 00 00 00 00	 call	 ?ResetDestParam@CMover@@QAEXHHH@Z ; CMover::ResetDestParam

; 2731 : 			// FP
; 2732 : 			ResetDestParam( DST_FP_RECOVERY, nAdjParameterValue, TRUE );

  00194	b9 01 00 00 00	 mov	 ecx, 1
  00199	8d 59 2a	 lea	 ebx, DWORD PTR [ecx+42]
  0019c	e9 fa 01 00 00	 jmp	 $LN39@ResetDestP
$LN13@ResetDestP:
  001a1	66 0f 6e 45 0c	 movd	 xmm0, DWORD PTR _nAdjParameterValue$[ebp]

; 2733 : 		}
; 2734 : 		return;
; 2735 : 	case DST_ALL_RECOVERY_RATE:
; 2736 : 		{
; 2737 : 			// HP
; 2738 : 			int nMax	= GetMaxOriginHitPoint();		// ąöÇÁŔÇ żµÇâŔ» ąŢÁö ľĘŔş żŔ¸®ÁöłŻ ľç
; 2739 : 			int nRecv	= (int)( (nMax * (nAdjParameterValue / 100.0f)) );

  001a6	0f 5b c0	 cvtdq2ps xmm0, xmm0
  001a9	6a 01		 push	 1
  001ab	f3 0f 5e 05 00
	00 00 00	 divss	 xmm0, DWORD PTR __real@42c80000
  001b3	f3 0f 11 45 0c	 movss	 DWORD PTR tv701[ebp], xmm0
  001b8	e8 00 00 00 00	 call	 ?GetMaxOriginHitPoint@CMover@@QAEHH@Z ; CMover::GetMaxOriginHitPoint

; 2740 : 			ResetDestParam( DST_HP_RECOVERY, nRecv, TRUE );

  001bd	6a 01		 push	 1
  001bf	8b cf		 mov	 ecx, edi
  001c1	66 0f 6e c0	 movd	 xmm0, eax
  001c5	0f 5b c0	 cvtdq2ps xmm0, xmm0
  001c8	f3 0f 59 45 0c	 mulss	 xmm0, DWORD PTR tv701[ebp]
  001cd	f3 0f 2c c0	 cvttss2si eax, xmm0
  001d1	50		 push	 eax
  001d2	6a 29		 push	 41			; 00000029H
  001d4	e8 00 00 00 00	 call	 ?ResetDestParam@CMover@@QAEXHHH@Z ; CMover::ResetDestParam

; 2741 : 			
; 2742 : 			// MP
; 2743 : 			nMax	= GetMaxOriginManaPoint();		// ąöÇÁŔÇ żµÇâŔ» ąŢÁö ľĘŔş żŔ¸®ÁöłŻ ľç

  001d9	6a 01		 push	 1
  001db	8b cf		 mov	 ecx, edi
  001dd	e8 00 00 00 00	 call	 ?GetMaxOriginManaPoint@CMover@@QAEHH@Z ; CMover::GetMaxOriginManaPoint

; 2744 : 			nRecv	= (int)( (nMax * (nAdjParameterValue / 100.0f)) );
; 2745 : 			ResetDestParam( DST_MP_RECOVERY, nRecv, TRUE );

  001e2	6a 01		 push	 1
  001e4	8b cf		 mov	 ecx, edi
  001e6	66 0f 6e c0	 movd	 xmm0, eax
  001ea	0f 5b c0	 cvtdq2ps xmm0, xmm0
  001ed	f3 0f 59 45 0c	 mulss	 xmm0, DWORD PTR tv701[ebp]
  001f2	f3 0f 2c c0	 cvttss2si eax, xmm0
  001f6	50		 push	 eax
  001f7	6a 2a		 push	 42			; 0000002aH
  001f9	e8 00 00 00 00	 call	 ?ResetDestParam@CMover@@QAEXHHH@Z ; CMover::ResetDestParam

; 2746 : 			
; 2747 : 			// FP
; 2748 : 			nMax	= GetMaxOriginFatiguePoint();		// ąöÇÁŔÇ żµÇâŔ» ąŢÁö ľĘŔş żŔ¸®ÁöłŻ ľç

  001fe	6a 01		 push	 1
  00200	8b cf		 mov	 ecx, edi
  00202	e8 00 00 00 00	 call	 ?GetMaxOriginFatiguePoint@CMover@@QAEHH@Z ; CMover::GetMaxOriginFatiguePoint

; 2749 : 			nRecv	= (int)( (nMax * (nAdjParameterValue / 100.0f)) );
; 2750 : 			ResetDestParam( DST_FP_RECOVERY, nRecv, TRUE );

  00207	bb 2b 00 00 00	 mov	 ebx, 43			; 0000002bH
  0020c	66 0f 6e c0	 movd	 xmm0, eax
  00210	0f 5b c0	 cvtdq2ps xmm0, xmm0
  00213	8d 4b d6	 lea	 ecx, DWORD PTR [ebx-42]
  00216	f3 0f 59 45 0c	 mulss	 xmm0, DWORD PTR tv701[ebp]
  0021b	f3 0f 2c f0	 cvttss2si esi, xmm0
  0021f	e9 77 01 00 00	 jmp	 $LN39@ResetDestP
$LN15@ResetDestP:

; 2761 : 		}
; 2762 : 		return;
; 2763 : 	case DST_KILL_HP_RATE:
; 2764 : 		{
; 2765 : 			int nMax	= GetMaxOriginHitPoint();		// ąöÇÁŔÇ żµÇâŔ» ąŢÁö ľĘŔş żŔ¸®ÁöłŻ ľç

  00224	6a 01		 push	 1
  00226	e8 00 00 00 00	 call	 ?GetMaxOriginHitPoint@CMover@@QAEHH@Z ; CMover::GetMaxOriginHitPoint
  0022b	66 0f 6e 45 0c	 movd	 xmm0, DWORD PTR _nAdjParameterValue$[ebp]

; 2766 : 			int nRecv	= (int)( (nMax * (nAdjParameterValue / 100.0f)) );
; 2767 : 			ResetDestParam( DST_KILL_HP, nRecv, TRUE );

  00230	bb 2c 00 00 00	 mov	 ebx, 44			; 0000002cH
  00235	0f 5b c0	 cvtdq2ps xmm0, xmm0
  00238	8d 4b d5	 lea	 ecx, DWORD PTR [ebx-43]
  0023b	66 0f 6e c8	 movd	 xmm1, eax
  0023f	f3 0f 5e 05 00
	00 00 00	 divss	 xmm0, DWORD PTR __real@42c80000
  00247	0f 5b c9	 cvtdq2ps xmm1, xmm1
  0024a	f3 0f 59 c8	 mulss	 xmm1, xmm0
  0024e	f3 0f 2c f1	 cvttss2si esi, xmm1
  00252	e9 44 01 00 00	 jmp	 $LN39@ResetDestP
$LN16@ResetDestP:

; 2768 : 		}
; 2769 : 		return;
; 2770 : 	case DST_KILL_MP_RATE:
; 2771 : 		{
; 2772 : 			int nMax	= GetMaxOriginManaPoint();		// ąöÇÁŔÇ żµÇâŔ» ąŢÁö ľĘŔş żŔ¸®ÁöłŻ ľç

  00257	6a 01		 push	 1
  00259	e8 00 00 00 00	 call	 ?GetMaxOriginManaPoint@CMover@@QAEHH@Z ; CMover::GetMaxOriginManaPoint
  0025e	66 0f 6e 45 0c	 movd	 xmm0, DWORD PTR _nAdjParameterValue$[ebp]

; 2773 : 			int nRecv	= (int)( (nMax * (nAdjParameterValue / 100.0f)) );
; 2774 : 			ResetDestParam( DST_KILL_MP, nRecv, TRUE );

  00263	bb 2d 00 00 00	 mov	 ebx, 45			; 0000002dH
  00268	0f 5b c0	 cvtdq2ps xmm0, xmm0
  0026b	8d 4b d4	 lea	 ecx, DWORD PTR [ebx-44]
  0026e	66 0f 6e c8	 movd	 xmm1, eax
  00272	f3 0f 5e 05 00
	00 00 00	 divss	 xmm0, DWORD PTR __real@42c80000
  0027a	0f 5b c9	 cvtdq2ps xmm1, xmm1
  0027d	f3 0f 59 c8	 mulss	 xmm1, xmm0
  00281	f3 0f 2c f1	 cvttss2si esi, xmm1
  00285	e9 11 01 00 00	 jmp	 $LN39@ResetDestP
$LN17@ResetDestP:

; 2775 : 		}
; 2776 : 		return;
; 2777 : 	case DST_KILL_FP_RATE:
; 2778 : 		{
; 2779 : 			int nMax	= GetMaxOriginFatiguePoint();		// ąöÇÁŔÇ żµÇâŔ» ąŢÁö ľĘŔş żŔ¸®ÁöłŻ ľç

  0028a	6a 01		 push	 1
  0028c	e8 00 00 00 00	 call	 ?GetMaxOriginFatiguePoint@CMover@@QAEHH@Z ; CMover::GetMaxOriginFatiguePoint
  00291	66 0f 6e 45 0c	 movd	 xmm0, DWORD PTR _nAdjParameterValue$[ebp]

; 2780 : 			int nRecv	= (int)( (nMax * (nAdjParameterValue / 100.0f)) );
; 2781 : 			ResetDestParam( DST_KILL_FP, nRecv, TRUE );

  00296	bb 2e 00 00 00	 mov	 ebx, 46			; 0000002eH
  0029b	0f 5b c0	 cvtdq2ps xmm0, xmm0
  0029e	8d 4b d3	 lea	 ecx, DWORD PTR [ebx-45]
  002a1	66 0f 6e c8	 movd	 xmm1, eax
  002a5	f3 0f 5e 05 00
	00 00 00	 divss	 xmm0, DWORD PTR __real@42c80000
  002ad	0f 5b c9	 cvtdq2ps xmm1, xmm1
  002b0	f3 0f 59 c8	 mulss	 xmm1, xmm0
  002b4	f3 0f 2c f1	 cvttss2si esi, xmm1
  002b8	e9 de 00 00 00	 jmp	 $LN39@ResetDestP
$LN18@ResetDestP:
  002bd	66 0f 6e 45 0c	 movd	 xmm0, DWORD PTR _nAdjParameterValue$[ebp]

; 2782 : 		}
; 2783 : 		return;
; 2784 : 	case DST_KILL_ALL_RATE:
; 2785 : 		{
; 2786 : 			// HP
; 2787 : 			int nMax	= GetMaxOriginHitPoint();		// ąöÇÁŔÇ żµÇâŔ» ąŢÁö ľĘŔş żŔ¸®ÁöłŻ ľç
; 2788 : 			int nRecv	= (int)( (nMax * (nAdjParameterValue / 100.0f)) );

  002c2	0f 5b c0	 cvtdq2ps xmm0, xmm0
  002c5	6a 01		 push	 1
  002c7	f3 0f 5e 05 00
	00 00 00	 divss	 xmm0, DWORD PTR __real@42c80000
  002cf	f3 0f 11 45 0c	 movss	 DWORD PTR tv700[ebp], xmm0
  002d4	e8 00 00 00 00	 call	 ?GetMaxOriginHitPoint@CMover@@QAEHH@Z ; CMover::GetMaxOriginHitPoint

; 2789 : 			ResetDestParam( DST_KILL_HP, nRecv, TRUE );

  002d9	6a 01		 push	 1
  002db	8b cf		 mov	 ecx, edi
  002dd	66 0f 6e c0	 movd	 xmm0, eax
  002e1	0f 5b c0	 cvtdq2ps xmm0, xmm0
  002e4	f3 0f 59 45 0c	 mulss	 xmm0, DWORD PTR tv700[ebp]
  002e9	f3 0f 2c c0	 cvttss2si eax, xmm0
  002ed	50		 push	 eax
  002ee	6a 2c		 push	 44			; 0000002cH
  002f0	e8 00 00 00 00	 call	 ?ResetDestParam@CMover@@QAEXHHH@Z ; CMover::ResetDestParam

; 2790 : 			// MP
; 2791 : 			nMax	= GetMaxOriginManaPoint();		// ąöÇÁŔÇ żµÇâŔ» ąŢÁö ľĘŔş żŔ¸®ÁöłŻ ľç

  002f5	6a 01		 push	 1
  002f7	8b cf		 mov	 ecx, edi
  002f9	e8 00 00 00 00	 call	 ?GetMaxOriginManaPoint@CMover@@QAEHH@Z ; CMover::GetMaxOriginManaPoint

; 2792 : 			nRecv	= (int)( (nMax * (nAdjParameterValue / 100.0f)) );
; 2793 : 			ResetDestParam( DST_KILL_MP, nRecv, TRUE );

  002fe	6a 01		 push	 1
  00300	8b cf		 mov	 ecx, edi
  00302	66 0f 6e c0	 movd	 xmm0, eax
  00306	0f 5b c0	 cvtdq2ps xmm0, xmm0
  00309	f3 0f 59 45 0c	 mulss	 xmm0, DWORD PTR tv700[ebp]
  0030e	f3 0f 2c c0	 cvttss2si eax, xmm0
  00312	50		 push	 eax
  00313	6a 2d		 push	 45			; 0000002dH
  00315	e8 00 00 00 00	 call	 ?ResetDestParam@CMover@@QAEXHHH@Z ; CMover::ResetDestParam

; 2794 : 			// FP
; 2795 : 			nMax	= GetMaxOriginFatiguePoint();		// ąöÇÁŔÇ żµÇâŔ» ąŢÁö ľĘŔş żŔ¸®ÁöłŻ ľç

  0031a	6a 01		 push	 1
  0031c	8b cf		 mov	 ecx, edi
  0031e	e8 00 00 00 00	 call	 ?GetMaxOriginFatiguePoint@CMover@@QAEHH@Z ; CMover::GetMaxOriginFatiguePoint

; 2796 : 			nRecv	= (int)( (nMax * (nAdjParameterValue / 100.0f)) );
; 2797 : 			ResetDestParam( DST_KILL_FP, nRecv, TRUE );

  00323	bb 2e 00 00 00	 mov	 ebx, 46			; 0000002eH
  00328	66 0f 6e c0	 movd	 xmm0, eax
  0032c	0f 5b c0	 cvtdq2ps xmm0, xmm0

; 2804 : 		}
; 2805 : 	}
; 2806 : 
; 2807 : 
; 2808 : 	// ŔĚ °Ë»ç¸¦ żÖ Ŕ§żˇ´Ů ľČłÖ°í ż©±â´Ů łÖľúłÄ¸é
; 2809 : 	// DST_GOLD, PXP, RESIST_ALL°°Ŕş°ćżě´Â MAX_ADJPARAMARYş¸´Ů ´ő Ĺ«°ŞŔ» »çżëÇŃ´Ů. 
; 2810 : 	// ±×·ˇĽ­ ±×·±°ÍµéŔş Ŕ§żˇĽ­ Ăł¸®ÇĎ°í ąŮ·Î ¸®ĹĎÇĎ°í
; 2811 : 	// ŔĎąÝŔűŔÎ°Íµé¸¸ ŔĚÂĘŔ¸·Î żÂ´Ů.
; 2812 : 	
; 2813 : 	if( nDstParameter >= MAX_ADJPARAMARY || nDstParameter < 0 )

  0032f	8d 4b d3	 lea	 ecx, DWORD PTR [ebx-45]
  00332	f3 0f 59 45 0c	 mulss	 xmm0, DWORD PTR tv700[ebp]
  00337	f3 0f 2c f0	 cvttss2si esi, xmm0
  0033b	eb 55		 jmp	 SHORT $LN2@ResetDestP
$LN14@ResetDestP:

; 2751 : 		}
; 2752 : 		return;
; 2753 : 	case DST_KILL_ALL:	
; 2754 : 		{
; 2755 : 			// HP
; 2756 : 			ResetDestParam( DST_KILL_HP, nAdjParameterValue, TRUE );

  0033d	8b 75 0c	 mov	 esi, DWORD PTR _nAdjParameterValue$[ebp]
  00340	6a 01		 push	 1
  00342	56		 push	 esi
  00343	6a 2c		 push	 44			; 0000002cH
  00345	e8 00 00 00 00	 call	 ?ResetDestParam@CMover@@QAEXHHH@Z ; CMover::ResetDestParam

; 2757 : 			// MP
; 2758 : 			SetDestParam( DST_KILL_MP, nAdjParameterValue, TRUE );

  0034a	6a 01		 push	 1
  0034c	6a 01		 push	 1
  0034e	56		 push	 esi
  0034f	6a 2d		 push	 45			; 0000002dH
  00351	8b cf		 mov	 ecx, edi
  00353	e8 00 00 00 00	 call	 ?SetDestParam@CMover@@QAEXHHHH@Z ; CMover::SetDestParam

; 2759 : 			// FP
; 2760 : 			SetDestParam( DST_KILL_FP, nAdjParameterValue, TRUE );

  00358	6a 01		 push	 1
  0035a	6a 01		 push	 1
  0035c	56		 push	 esi
  0035d	6a 2e		 push	 46			; 0000002eH
  0035f	8b cf		 mov	 ecx, edi
  00361	e8 00 00 00 00	 call	 ?SetDestParam@CMover@@QAEXHHHH@Z ; CMover::SetDestParam
  00366	5f		 pop	 edi

; 2847 : 	#else	// 	__SPEED_SYNC_0108 ResetDestParam speed ĽöÁ¤
; 2848 : 		g_UserMng.AddResetDestParam( this, nDstParameter, nAdjParameterValue );
; 2849 : 	#endif	// 	__SPEED_SYNC_0108 ResetDestParam speed ĽöÁ¤
; 2850 : 	}
; 2851 : #endif	// __WORLDSERVER
; 2852 : }

  00367	5e		 pop	 esi
  00368	5b		 pop	 ebx
  00369	5d		 pop	 ebp
  0036a	c2 0c 00	 ret	 12			; 0000000cH
$LN19@ResetDestP:

; 2798 : 		}
; 2799 : 		return;
; 2800 : 	case DST_ALL_DEC_RATE:
; 2801 : 		{
; 2802 : 			SetDestParam( DST_MP_DEC_RATE, nAdjParameterValue, TRUE );

  0036d	8b 75 0c	 mov	 esi, DWORD PTR _nAdjParameterValue$[ebp]
  00370	6a 01		 push	 1
  00372	6a 01		 push	 1
  00374	56		 push	 esi
  00375	6a 49		 push	 73			; 00000049H
  00377	e8 00 00 00 00	 call	 ?SetDestParam@CMover@@QAEXHHHH@Z ; CMover::SetDestParam

; 2803 : 			SetDestParam( DST_FP_DEC_RATE, nAdjParameterValue, TRUE );

  0037c	6a 01		 push	 1
  0037e	6a 01		 push	 1
  00380	56		 push	 esi
  00381	6a 4a		 push	 74			; 0000004aH
  00383	8b cf		 mov	 ecx, edi
  00385	e8 00 00 00 00	 call	 ?SetDestParam@CMover@@QAEXHHHH@Z ; CMover::SetDestParam
  0038a	eb 03		 jmp	 SHORT $LN51@ResetDestP
$LN41@ResetDestP:

; 2667 : 	switch( nDstParameter )

  0038c	8b 75 0c	 mov	 esi, DWORD PTR _nAdjParameterValue$[ebp]
$LN51@ResetDestP:

; 2804 : 		}
; 2805 : 	}
; 2806 : 
; 2807 : 
; 2808 : 	// ŔĚ °Ë»ç¸¦ żÖ Ŕ§żˇ´Ů ľČłÖ°í ż©±â´Ů łÖľúłÄ¸é
; 2809 : 	// DST_GOLD, PXP, RESIST_ALL°°Ŕş°ćżě´Â MAX_ADJPARAMARYş¸´Ů ´ő Ĺ«°ŞŔ» »çżëÇŃ´Ů. 
; 2810 : 	// ±×·ˇĽ­ ±×·±°ÍµéŔş Ŕ§żˇĽ­ Ăł¸®ÇĎ°í ąŮ·Î ¸®ĹĎÇĎ°í
; 2811 : 	// ŔĎąÝŔűŔÎ°Íµé¸¸ ŔĚÂĘŔ¸·Î żÂ´Ů.
; 2812 : 	
; 2813 : 	if( nDstParameter >= MAX_ADJPARAMARY || nDstParameter < 0 )

  0038f	8b 4d 10	 mov	 ecx, DWORD PTR _fSend$[ebp]
$LN2@ResetDestP:
  00392	83 fb 5e	 cmp	 ebx, 94			; 0000005eH
  00395	0f 87 90 00 00
	00		 ja	 $LN21@ResetDestP
$LN39@ResetDestP:

; 2814 : 	{
; 2815 : //		Error( "ResetDestParam %s : Ŕß¸řµČ °Ş nDstParam : %d", m_szName, nDstParameter );
; 2816 : 		return;
; 2817 : 	}
; 2818 : 	if( nAdjParameterValue != 0 ) 

  0039b	85 f6		 test	 esi, esi
  0039d	74 28		 je	 SHORT $LN38@ResetDestP

; 2819 : 	{
; 2820 : 		if( nDstParameter == DST_CHRSTATE )

  0039f	8b 94 9f c4 11
	00 00		 mov	 edx, DWORD PTR [edi+ebx*4+4548]
  003a6	83 fb 40	 cmp	 ebx, 64			; 00000040H
  003a9	75 0f		 jne	 SHORT $LN23@ResetDestP

; 2821 : 			m_adjParamAry[nDstParameter] &= (~nAdjParameterValue);		// ÇŘ´çşńĆ® żŔÇÁ.

  003ab	8b c6		 mov	 eax, esi
  003ad	f7 d0		 not	 eax
  003af	23 c2		 and	 eax, edx

; 2824 : 	}
; 2825 : 
; 2826 : 	// ëĹ
; 2827 : 	if( nAdjParameterValue == 0 )	//

  003b1	89 84 9f c4 11
	00 00		 mov	 DWORD PTR [edi+ebx*4+4548], eax
  003b8	eb 45		 jmp	 SHORT $LN27@ResetDestP
$LN23@ResetDestP:

; 2822 : 		else
; 2823 : 			m_adjParamAry[nDstParameter] += (-nAdjParameterValue);

  003ba	8b c2		 mov	 eax, edx
  003bc	2b c6		 sub	 eax, esi

; 2824 : 	}
; 2825 : 
; 2826 : 	// ëĹ
; 2827 : 	if( nAdjParameterValue == 0 )	//

  003be	89 84 9f c4 11
	00 00		 mov	 DWORD PTR [edi+ebx*4+4548], eax
  003c5	eb 38		 jmp	 SHORT $LN27@ResetDestP
$LN38@ResetDestP:

; 2828 : 	{
; 2829 : 		if( nDstParameter == DST_SPEED && m_chgParamAry[nDstParameter] != 0x7FFFFFFF && m_chgParamAry[nDstParameter] > 0 )

  003c7	83 fb 0b	 cmp	 ebx, 11			; 0000000bH
  003ca	75 28		 jne	 SHORT $LN26@ResetDestP
  003cc	8b 87 6c 13 00
	00		 mov	 eax, DWORD PTR [edi+4972]
  003d2	3d ff ff ff 7f	 cmp	 eax, 2147483647		; 7fffffffH
  003d7	74 1b		 je	 SHORT $LN26@ResetDestP
  003d9	85 c0		 test	 eax, eax
  003db	7e 17		 jle	 SHORT $LN26@ResetDestP

; 2830 : 		{
; 2831 : 			if( --m_chgParamAry[nDstParameter] == 0 )

  003dd	83 c0 ff	 add	 eax, -1
  003e0	89 87 6c 13 00
	00		 mov	 DWORD PTR [edi+4972], eax
  003e6	75 17		 jne	 SHORT $LN27@ResetDestP

; 2832 : 				m_chgParamAry[nDstParameter]		= 0x7FFFFFFF;

  003e8	c7 87 6c 13 00
	00 ff ff ff 7f	 mov	 DWORD PTR [edi+4972], 2147483647 ; 7fffffffH

; 2833 : 		}

  003f2	eb 0b		 jmp	 SHORT $LN27@ResetDestP
$LN26@ResetDestP:

; 2834 : 		else
; 2835 : 		{
; 2836 : 			m_chgParamAry[nDstParameter]		= 0x7FFFFFFF;

  003f4	c7 84 9f 40 13
	00 00 ff ff ff
	7f		 mov	 DWORD PTR [edi+ebx*4+4928], 2147483647 ; 7fffffffH
$LN27@ResetDestP:

; 2837 : 		}
; 2838 : 	}
; 2839 : #ifdef __WORLDSERVER
; 2840 : 	if( fSend == TRUE ) 

  003ff	83 f9 01	 cmp	 ecx, 1
  00402	75 27		 jne	 SHORT $LN21@ResetDestP

; 2841 : 	{
; 2842 : 	#ifdef	__SPEED_SYNC_0108 // ResetDestParam speed ĽöÁ¤
; 2843 : 		if( nDstParameter == DST_SPEED )

  00404	b9 00 00 00 00	 mov	 ecx, OFFSET ?g_UserMng@@3VCUserMng@@A ; g_UserMng
  00409	83 fb 0b	 cmp	 ebx, 11			; 0000000bH
  0040c	75 15		 jne	 SHORT $LN30@ResetDestP

; 2844 : 			g_UserMng.AddResetDestParamSync( this, nDstParameter, nAdjParameterValue, (int)m_adjParamAry[nDstParameter] );

  0040e	ff b7 f0 11 00
	00		 push	 DWORD PTR [edi+4592]
  00414	56		 push	 esi
  00415	53		 push	 ebx
  00416	57		 push	 edi
  00417	e8 00 00 00 00	 call	 ?AddResetDestParamSync@CUserMng@@QAEXPAVCMover@@HHH@Z ; CUserMng::AddResetDestParamSync
  0041c	5f		 pop	 edi

; 2847 : 	#else	// 	__SPEED_SYNC_0108 ResetDestParam speed ĽöÁ¤
; 2848 : 		g_UserMng.AddResetDestParam( this, nDstParameter, nAdjParameterValue );
; 2849 : 	#endif	// 	__SPEED_SYNC_0108 ResetDestParam speed ĽöÁ¤
; 2850 : 	}
; 2851 : #endif	// __WORLDSERVER
; 2852 : }

  0041d	5e		 pop	 esi
  0041e	5b		 pop	 ebx
  0041f	5d		 pop	 ebp
  00420	c2 0c 00	 ret	 12			; 0000000cH
$LN30@ResetDestP:

; 2845 : 		else
; 2846 : 			g_UserMng.AddResetDestParam( this, nDstParameter, nAdjParameterValue );

  00423	56		 push	 esi
  00424	53		 push	 ebx
  00425	57		 push	 edi
  00426	e8 00 00 00 00	 call	 ?AddResetDestParam@CUserMng@@QAEXPAVCMover@@HH@Z ; CUserMng::AddResetDestParam
$LN21@ResetDestP:

; 2847 : 	#else	// 	__SPEED_SYNC_0108 ResetDestParam speed ĽöÁ¤
; 2848 : 		g_UserMng.AddResetDestParam( this, nDstParameter, nAdjParameterValue );
; 2849 : 	#endif	// 	__SPEED_SYNC_0108 ResetDestParam speed ĽöÁ¤
; 2850 : 	}
; 2851 : #endif	// __WORLDSERVER
; 2852 : }

  0042b	5f		 pop	 edi
  0042c	5e		 pop	 esi
  0042d	5b		 pop	 ebx
  0042e	5d		 pop	 ebp
  0042f	c2 0c 00	 ret	 12			; 0000000cH
  00432	66 90		 npad	 2
$LN40@ResetDestP:
  00434	00 00 00 00	 DD	 $LN4@ResetDestP
  00438	00 00 00 00	 DD	 $LN5@ResetDestP
  0043c	00 00 00 00	 DD	 $LN6@ResetDestP
  00440	00 00 00 00	 DD	 $LN7@ResetDestP
  00444	00 00 00 00	 DD	 $LN41@ResetDestP
  00448	00 00 00 00	 DD	 $LN9@ResetDestP
  0044c	00 00 00 00	 DD	 $LN10@ResetDestP
  00450	00 00 00 00	 DD	 $LN11@ResetDestP
  00454	00 00 00 00	 DD	 $LN8@ResetDestP
  00458	00 00 00 00	 DD	 $LN41@ResetDestP
  0045c	00 00 00 00	 DD	 $LN12@ResetDestP
  00460	00 00 00 00	 DD	 $LN13@ResetDestP
  00464	00 00 00 00	 DD	 $LN14@ResetDestP
  00468	00 00 00 00	 DD	 $LN15@ResetDestP
  0046c	00 00 00 00	 DD	 $LN16@ResetDestP
  00470	00 00 00 00	 DD	 $LN17@ResetDestP
  00474	00 00 00 00	 DD	 $LN18@ResetDestP
  00478	00 00 00 00	 DD	 $LN19@ResetDestP
?ResetDestParam@CMover@@QAEXHHH@Z ENDP			; CMover::ResetDestParam
_TEXT	ENDS
; Function compile flags: /Ogtp
; File C:\IAGOS\server\v18\Source\Source\_Common\MoverParam.cpp
;	COMDAT ?SetDestParam@CMover@@QAEXHPAUItemProp@@H@Z
_TEXT	SEGMENT
_nIdx$ = 8						; size = 4
_pProp$ = 12						; size = 4
_bSend$ = 16						; size = 4
?SetDestParam@CMover@@QAEXHPAUItemProp@@H@Z PROC	; CMover::SetDestParam, COMDAT
; _this$ = ecx

; 2362 : {

  00000	55		 push	 ebp
  00001	8b ec		 mov	 ebp, esp

; 2363 : 	SetDestParam( pProp->dwDestParam[nIdx], pProp->nAdjParamVal[nIdx], pProp->dwChgParamVal[nIdx], bSend );

  00003	8b 55 0c	 mov	 edx, DWORD PTR _pProp$[ebp]
  00006	8b 45 08	 mov	 eax, DWORD PTR _nIdx$[ebp]
  00009	ff 75 10	 push	 DWORD PTR _bSend$[ebp]
  0000c	ff b4 82 58 01
	00 00		 push	 DWORD PTR [edx+eax*4+344]
  00013	ff b4 82 4c 01
	00 00		 push	 DWORD PTR [edx+eax*4+332]
  0001a	ff b4 82 40 01
	00 00		 push	 DWORD PTR [edx+eax*4+320]
  00021	e8 00 00 00 00	 call	 ?SetDestParam@CMover@@QAEXHHHH@Z ; CMover::SetDestParam

; 2364 : }

  00026	5d		 pop	 ebp
  00027	c2 0c 00	 ret	 12			; 0000000cH
?SetDestParam@CMover@@QAEXHPAUItemProp@@H@Z ENDP	; CMover::SetDestParam
_TEXT	ENDS
; Function compile flags: /Ogtp
; File C:\IAGOS\server\v18\Source\Source\_Common\MoverParam.cpp
; File C:\IAGOS\server\v18\Source\Source\_Common\Project.h
; File C:\IAGOS\server\v18\Source\Source\_Common\MoverParam.cpp
; File C:\IAGOS\server\v18\Source\Source\_Common\Project.h
; File C:\IAGOS\server\v18\Source\Source\_Common\data.h
; File C:\IAGOS\server\v18\Source\Source\_Common\Project.h
; File C:\IAGOS\server\v18\Source\Source\_Common\MoverParam.cpp
;	COMDAT ?SetDestParam@CMover@@QAEXHH@Z
_TEXT	SEGMENT
_nItemIdx$ = 8						; size = 4
_bSend$ = 12						; size = 4
?SetDestParam@CMover@@QAEXHH@Z PROC			; CMover::SetDestParam, COMDAT
; _this$ = ecx

; 2373 : {

  00000	55		 push	 ebp
  00001	8b ec		 mov	 ebp, esp
; File C:\IAGOS\server\v18\Source\Source\_Common\Project.h

; 1389 : 	VERIFY_RANGE_ASSERT( nIndex, 0, m_aPropItem.GetSize(), "GetItemProp range_error", NULL );

  00003	8b 55 08	 mov	 edx, DWORD PTR _nItemIdx$[ebp]
  00006	a1 40 02 00 00	 mov	 eax, DWORD PTR ?prj@@3VCProject@@A+576
; File C:\IAGOS\server\v18\Source\Source\_Common\MoverParam.cpp

; 2373 : {

  0000b	53		 push	 ebx
  0000c	8b d9		 mov	 ebx, ecx
  0000e	56		 push	 esi
  0000f	57		 push	 edi
; File C:\IAGOS\server\v18\Source\Source\_Common\Project.h

; 1389 : 	VERIFY_RANGE_ASSERT( nIndex, 0, m_aPropItem.GetSize(), "GetItemProp range_error", NULL );

  00010	85 d2		 test	 edx, edx
  00012	78 10		 js	 SHORT $LN11@SetDestPar
  00014	3b d0		 cmp	 edx, eax
  00016	7d 0c		 jge	 SHORT $LN11@SetDestPar
; File C:\IAGOS\server\v18\Source\Source\_Common\data.h

; 270  : 	if( dwIndex >= (DWORD)m_nMaxIndex )

  00018	73 20		 jae	 SHORT $LN24@SetDestPar

; 271  : 		return NULL;
; 272  : 	return (T*) m_apOffset[ dwIndex ];

  0001a	a1 30 02 00 00	 mov	 eax, DWORD PTR ?prj@@3VCProject@@A+560
  0001f	8b 34 90	 mov	 esi, DWORD PTR [eax+edx*4]
; File C:\IAGOS\server\v18\Source\Source\_Common\Project.h

; 1390 : 	return m_aPropItem.GetAt( nIndex ); 

  00022	eb 18		 jmp	 SHORT $LN6@SetDestPar
$LN11@SetDestPar:

; 579  : 	LPCTSTR szErr = Error( _T( "%s min:%d, max:%d, index:%d" ), szMsg, nMin, nMax, nIndex ); 

  00024	52		 push	 edx
  00025	50		 push	 eax
  00026	6a 00		 push	 0
  00028	68 00 00 00 00	 push	 OFFSET ??_C@_0BI@BEIFNGEL@GetItemProp?5range_error@
  0002d	68 00 00 00 00	 push	 OFFSET ??_C@_0BM@HMFGHCP@?$CFs?5min?3?$CFd?0?5max?3?$CFd?0?5index?3?$CFd@
  00032	e8 00 00 00 00	 call	 ?Error@@YAPBDPBDZZ	; Error
  00037	83 c4 14	 add	 esp, 20			; 00000014H
$LN24@SetDestPar:
; File C:\IAGOS\server\v18\Source\Source\_Common\MoverParam.cpp

; 2375 : 	if( pItemProp->dwDestParam1 != -1 )

  0003a	33 f6		 xor	 esi, esi
$LN6@SetDestPar:
  0003c	8b 86 40 01 00
	00		 mov	 eax, DWORD PTR [esi+320]
  00042	8b 7d 0c	 mov	 edi, DWORD PTR _bSend$[ebp]
  00045	83 f8 ff	 cmp	 eax, -1
  00048	74 15		 je	 SHORT $LN2@SetDestPar

; 2376 : 		SetDestParam( pItemProp->dwDestParam1, pItemProp->nAdjParamVal1, pItemProp->dwChgParamVal1, bSend );

  0004a	57		 push	 edi
  0004b	ff b6 58 01 00
	00		 push	 DWORD PTR [esi+344]
  00051	8b cb		 mov	 ecx, ebx
  00053	ff b6 4c 01 00
	00		 push	 DWORD PTR [esi+332]
  00059	50		 push	 eax
  0005a	e8 00 00 00 00	 call	 ?SetDestParam@CMover@@QAEXHHHH@Z ; CMover::SetDestParam
$LN2@SetDestPar:

; 2377 : 	if( pItemProp->dwDestParam2 != -1 )

  0005f	8b 86 44 01 00
	00		 mov	 eax, DWORD PTR [esi+324]
  00065	83 f8 ff	 cmp	 eax, -1
  00068	74 15		 je	 SHORT $LN3@SetDestPar

; 2378 : 		SetDestParam( pItemProp->dwDestParam2, pItemProp->nAdjParamVal2, pItemProp->dwChgParamVal2, bSend );

  0006a	57		 push	 edi
  0006b	ff b6 5c 01 00
	00		 push	 DWORD PTR [esi+348]
  00071	8b cb		 mov	 ecx, ebx
  00073	ff b6 50 01 00
	00		 push	 DWORD PTR [esi+336]
  00079	50		 push	 eax
  0007a	e8 00 00 00 00	 call	 ?SetDestParam@CMover@@QAEXHHHH@Z ; CMover::SetDestParam
$LN3@SetDestPar:

; 2379 : #ifdef __PROP_0827
; 2380 : 	if( pItemProp->dwDestParam3 != -1 )

  0007f	8b 86 48 01 00
	00		 mov	 eax, DWORD PTR [esi+328]
  00085	83 f8 ff	 cmp	 eax, -1
  00088	74 15		 je	 SHORT $LN4@SetDestPar

; 2381 : 		SetDestParam( pItemProp->dwDestParam3, pItemProp->nAdjParamVal3, pItemProp->dwChgParamVal3, bSend );

  0008a	57		 push	 edi
  0008b	ff b6 60 01 00
	00		 push	 DWORD PTR [esi+352]
  00091	8b cb		 mov	 ecx, ebx
  00093	ff b6 54 01 00
	00		 push	 DWORD PTR [esi+340]
  00099	50		 push	 eax
  0009a	e8 00 00 00 00	 call	 ?SetDestParam@CMover@@QAEXHHHH@Z ; CMover::SetDestParam
$LN4@SetDestPar:

; 2382 : #endif	// __PROP_0827
; 2383 : }

  0009f	5f		 pop	 edi
  000a0	5e		 pop	 esi
  000a1	5b		 pop	 ebx
  000a2	5d		 pop	 ebp
  000a3	c2 08 00	 ret	 8
?SetDestParam@CMover@@QAEXHH@Z ENDP			; CMover::SetDestParam
_TEXT	ENDS
; Function compile flags: /Ogtp
; File C:\IAGOS\server\v18\Source\Source\_Common\MoverParam.cpp
;	COMDAT ?SetDestParam@CMover@@QAEXHHHH@Z
_TEXT	SEGMENT
_nDstParameter$ = 8					; size = 4
tv963 = 8						; size = 4
tv964 = 8						; size = 4
_nAdjParameterValue$ = 12				; size = 4
_nChgParameterValue$ = 16				; size = 4
_bSend$ = 20						; size = 4
?SetDestParam@CMover@@QAEXHHHH@Z PROC			; CMover::SetDestParam, COMDAT
; _this$ = ecx

; 2389 : {

  00000	55		 push	 ebp
  00001	8b ec		 mov	 ebp, esp
  00003	56		 push	 esi
  00004	57		 push	 edi
  00005	8b 7d 08	 mov	 edi, DWORD PTR _nDstParameter$[ebp]
  00008	8b f1		 mov	 esi, ecx

; 2390 : 	BOOL fSuccess	= FALSE;
; 2391 : 
; 2392 : #if __VER >= 10 // __LEGEND	//	10Â÷ Ŕü˝Â˝Ă˝şĹŰ	Neuz, World, Trans
; 2393 : 	if( (nDstParameter < 0 ) && ( nDstParameter != DST_ADJDEF_RATE && nDstParameter != DST_ADJDEF ) )

  0000a	85 ff		 test	 edi, edi
  0000c	0f 88 c2 05 00
	00		 js	 $LN56@SetDestPar
  00012	53		 push	 ebx
  00013	8b 5d 0c	 mov	 ebx, DWORD PTR _nAdjParameterValue$[ebp]
$LN94@SetDestPar:

; 2394 : 		return;
; 2395 : #else
; 2396 : 	if( nDstParameter < 0 )
; 2397 : 		return;
; 2398 : #endif	//__LEGEND	//	10Â÷ Ŕü˝Â˝Ă˝şĹŰ	Neuz, World, Trans
; 2399 : 	
; 2400 : 	// HP, MPµîŔş SetPointParamŔ¸·Î Ăł¸®ÇŃ´Ů. ±Ůµđ SetDestParam ÇĎłŞ·Î ĹëŔĎ˝ĂÄ×Ŕ¸¸é ł´Áö ľĘŔ»±î?
; 2401 : 	switch( nDstParameter )

  00016	8b 45 10	 mov	 eax, DWORD PTR _nChgParameterValue$[ebp]
$LN95@SetDestPar:
  00019	8b 4d 14	 mov	 ecx, DWORD PTR _bSend$[ebp]
  0001c	81 ff 10 27 00
	00		 cmp	 edi, 10000		; 00002710H
  00022	0f 8e ed 03 00
	00		 jle	 $LN63@SetDestPar
  00028	81 c7 ee d8 ff
	ff		 add	 edi, -10002		; ffffd8eeH
  0002e	83 ff 11	 cmp	 edi, 17			; 00000011H
  00031	0f 87 9c 05 00
	00		 ja	 $LN93@SetDestPar
  00037	ff 24 bd 00 00
	00 00		 jmp	 DWORD PTR $LN70@SetDestPar[edi*4]
$LN18@SetDestPar:

; 2437 : 		return;
; 2438 : #endif // __PERIN_BUY_BUG
; 2439 : 
; 2440 : 		if( AddGold( nAdjParameterValue ) == FALSE )	
; 2441 : 			SetGold( 0 );		// underflowŔĚ¸é 0·Î ¸¸µç´Ů. ŔĚŔüÄÚµĺżÍ ČŁČŻµÇ°Ô ÇŃ´Ů. ąş°ˇ ÂňÂň 
; 2442 : 		return;
; 2443 : 
; 2444 : 	case DST_RESIST_ALL:
; 2445 : 		SetDestParam( DST_RESIST_ELECTRICITY,	nAdjParameterValue, nChgParameterValue, bSend );

  0003e	51		 push	 ecx
  0003f	50		 push	 eax
  00040	53		 push	 ebx
  00041	6a 1c		 push	 28			; 0000001cH
  00043	8b ce		 mov	 ecx, esi
  00045	e8 00 00 00 00	 call	 ?SetDestParam@CMover@@QAEXHHHH@Z ; CMover::SetDestParam

; 2446 : 		SetDestParam( DST_RESIST_FIRE,			nAdjParameterValue, nChgParameterValue, bSend );

  0004a	ff 75 14	 push	 DWORD PTR _bSend$[ebp]
  0004d	8b 7d 10	 mov	 edi, DWORD PTR _nChgParameterValue$[ebp]
  00050	8b ce		 mov	 ecx, esi
  00052	57		 push	 edi
  00053	53		 push	 ebx
  00054	6a 1e		 push	 30			; 0000001eH
  00056	e8 00 00 00 00	 call	 ?SetDestParam@CMover@@QAEXHHHH@Z ; CMover::SetDestParam

; 2447 : 		SetDestParam( DST_RESIST_WIND,			nAdjParameterValue, nChgParameterValue, bSend );

  0005b	ff 75 14	 push	 DWORD PTR _bSend$[ebp]
  0005e	8b ce		 mov	 ecx, esi
  00060	57		 push	 edi
  00061	53		 push	 ebx
  00062	6a 1f		 push	 31			; 0000001fH
  00064	e8 00 00 00 00	 call	 ?SetDestParam@CMover@@QAEXHHHH@Z ; CMover::SetDestParam

; 2448 : 		SetDestParam( DST_RESIST_WATER,			nAdjParameterValue, nChgParameterValue, bSend );

  00069	ff 75 14	 push	 DWORD PTR _bSend$[ebp]
  0006c	8b ce		 mov	 ecx, esi
  0006e	57		 push	 edi
  0006f	53		 push	 ebx
  00070	6a 20		 push	 32			; 00000020H
  00072	e8 00 00 00 00	 call	 ?SetDestParam@CMover@@QAEXHHHH@Z ; CMover::SetDestParam

; 2449 : 		SetDestParam( DST_RESIST_EARTH,			nAdjParameterValue, nChgParameterValue, bSend );

  00077	bf 21 00 00 00	 mov	 edi, 33			; 00000021H
  0007c	eb 98		 jmp	 SHORT $LN94@SetDestPar
$LN19@SetDestPar:

; 2450 : 		return;
; 2451 : 	case DST_STAT_ALLUP:
; 2452 : 		SetDestParam( DST_STR,	nAdjParameterValue, nChgParameterValue, bSend );

  0007e	51		 push	 ecx
  0007f	50		 push	 eax
  00080	53		 push	 ebx
  00081	6a 01		 push	 1
  00083	8b ce		 mov	 ecx, esi
  00085	e8 00 00 00 00	 call	 ?SetDestParam@CMover@@QAEXHHHH@Z ; CMover::SetDestParam

; 2453 : 		SetDestParam( DST_DEX,	nAdjParameterValue, nChgParameterValue, bSend );

  0008a	ff 75 14	 push	 DWORD PTR _bSend$[ebp]
  0008d	8b 7d 10	 mov	 edi, DWORD PTR _nChgParameterValue$[ebp]
  00090	8b ce		 mov	 ecx, esi
  00092	57		 push	 edi
  00093	53		 push	 ebx
  00094	6a 02		 push	 2
  00096	e8 00 00 00 00	 call	 ?SetDestParam@CMover@@QAEXHHHH@Z ; CMover::SetDestParam

; 2454 : 		SetDestParam( DST_INT,	nAdjParameterValue, nChgParameterValue, bSend );

  0009b	ff 75 14	 push	 DWORD PTR _bSend$[ebp]
  0009e	8b ce		 mov	 ecx, esi
  000a0	57		 push	 edi
  000a1	53		 push	 ebx
  000a2	6a 03		 push	 3
  000a4	e8 00 00 00 00	 call	 ?SetDestParam@CMover@@QAEXHHHH@Z ; CMover::SetDestParam

; 2455 : 		SetDestParam( DST_STA,	nAdjParameterValue, nChgParameterValue, bSend );

  000a9	bf 04 00 00 00	 mov	 edi, 4
  000ae	e9 63 ff ff ff	 jmp	 $LN94@SetDestPar
$LN20@SetDestPar:

; 2456 : 		return;
; 2457 : 	case DST_HPDMG_UP:	// DST_HP_MAX + DST_CHR_DMG 
; 2458 : 		SetDestParam( DST_HP_MAX, nAdjParameterValue, nChgParameterValue, bSend );

  000b3	51		 push	 ecx
  000b4	50		 push	 eax
  000b5	53		 push	 ebx
  000b6	6a 23		 push	 35			; 00000023H
  000b8	8b ce		 mov	 ecx, esi
  000ba	e8 00 00 00 00	 call	 ?SetDestParam@CMover@@QAEXHHHH@Z ; CMover::SetDestParam

; 2459 : 		SetDestParam( DST_CHR_DMG, nAdjParameterValue, nChgParameterValue, bSend );

  000bf	bf 3f 00 00 00	 mov	 edi, 63			; 0000003fH
  000c4	e9 4d ff ff ff	 jmp	 $LN94@SetDestPar
$LN21@SetDestPar:

; 2460 : 		return;
; 2461 : 	case DST_DEFHITRATE_DOWN: // DST_ADJDEF + DST_ADJ_HITRATE
; 2462 : 		SetDestParam( DST_ADJDEF, nAdjParameterValue, nChgParameterValue, bSend );

  000c9	51		 push	 ecx
  000ca	50		 push	 eax
  000cb	53		 push	 ebx
  000cc	6a 1a		 push	 26			; 0000001aH
  000ce	8b ce		 mov	 ecx, esi
  000d0	e8 00 00 00 00	 call	 ?SetDestParam@CMover@@QAEXHHHH@Z ; CMover::SetDestParam

; 2463 : 		SetDestParam( DST_ADJ_HITRATE, nAdjParameterValue, nChgParameterValue, bSend );

  000d5	bf 2f 00 00 00	 mov	 edi, 47			; 0000002fH
  000da	e9 37 ff ff ff	 jmp	 $LN94@SetDestPar
$LN22@SetDestPar:

; 2464 : 		return;
; 2465 : 	case DST_LOCOMOTION:
; 2466 : 		SetDestParam( DST_SPEED,	nAdjParameterValue, nChgParameterValue, bSend );

  000df	51		 push	 ecx
  000e0	50		 push	 eax
  000e1	53		 push	 ebx
  000e2	6a 0b		 push	 11			; 0000000bH
  000e4	8b ce		 mov	 ecx, esi
  000e6	e8 00 00 00 00	 call	 ?SetDestParam@CMover@@QAEXHHHH@Z ; CMover::SetDestParam

; 2467 : 		SetDestParam( DST_JUMPING,	( nAdjParameterValue * 3 ), nChgParameterValue, bSend );

  000eb	8d 1c 5b	 lea	 ebx, DWORD PTR [ebx+ebx*2]
  000ee	bf 44 00 00 00	 mov	 edi, 68			; 00000044H
  000f3	e9 1e ff ff ff	 jmp	 $LN94@SetDestPar
$LN26@SetDestPar:

; 2498 : 		}
; 2499 : 		return;
; 2500 : 	case DST_ALL_RECOVERY:
; 2501 : 		{
; 2502 : 			// HP
; 2503 : 			SetDestParam( DST_HP_RECOVERY, nAdjParameterValue, NULL_CHGPARAM, bSend );

  000f8	51		 push	 ecx
  000f9	68 ff ff ff 7f	 push	 2147483647		; 7fffffffH
  000fe	53		 push	 ebx
  000ff	6a 29		 push	 41			; 00000029H
  00101	8b ce		 mov	 ecx, esi
  00103	e8 00 00 00 00	 call	 ?SetDestParam@CMover@@QAEXHHHH@Z ; CMover::SetDestParam

; 2504 : 			// MP
; 2505 : 			SetDestParam( DST_MP_RECOVERY, nAdjParameterValue, NULL_CHGPARAM, bSend );

  00108	ff 75 14	 push	 DWORD PTR _bSend$[ebp]
  0010b	8b ce		 mov	 ecx, esi
  0010d	68 ff ff ff 7f	 push	 2147483647		; 7fffffffH
  00112	53		 push	 ebx
  00113	6a 2a		 push	 42			; 0000002aH
  00115	e8 00 00 00 00	 call	 ?SetDestParam@CMover@@QAEXHHHH@Z ; CMover::SetDestParam

; 2506 : 			// FP
; 2507 : 			SetDestParam( DST_FP_RECOVERY, nAdjParameterValue, NULL_CHGPARAM, bSend );

  0011a	b8 ff ff ff 7f	 mov	 eax, 2147483647		; 7fffffffH
  0011f	bf 2b 00 00 00	 mov	 edi, 43			; 0000002bH
  00124	89 45 10	 mov	 DWORD PTR _nChgParameterValue$[ebp], eax
  00127	e9 ed fe ff ff	 jmp	 $LN95@SetDestPar
$LN28@SetDestPar:

; 2526 : 		}
; 2527 : 		return;
; 2528 : 	case DST_KILL_ALL:	
; 2529 : 		{
; 2530 : 			// HP
; 2531 : 			SetDestParam( DST_KILL_HP, nAdjParameterValue, NULL_CHGPARAM, bSend );

  0012c	51		 push	 ecx
  0012d	68 ff ff ff 7f	 push	 2147483647		; 7fffffffH
  00132	53		 push	 ebx
  00133	6a 2c		 push	 44			; 0000002cH
  00135	8b ce		 mov	 ecx, esi
  00137	e8 00 00 00 00	 call	 ?SetDestParam@CMover@@QAEXHHHH@Z ; CMover::SetDestParam

; 2532 : 			// MP
; 2533 : 			SetDestParam( DST_KILL_MP, nAdjParameterValue, NULL_CHGPARAM, bSend );

  0013c	ff 75 14	 push	 DWORD PTR _bSend$[ebp]
  0013f	8b ce		 mov	 ecx, esi
  00141	68 ff ff ff 7f	 push	 2147483647		; 7fffffffH
  00146	53		 push	 ebx
  00147	6a 2d		 push	 45			; 0000002dH
  00149	e8 00 00 00 00	 call	 ?SetDestParam@CMover@@QAEXHHHH@Z ; CMover::SetDestParam

; 2534 : 			// FP
; 2535 : 			SetDestParam( DST_KILL_FP, nAdjParameterValue, NULL_CHGPARAM, bSend );

  0014e	b8 ff ff ff 7f	 mov	 eax, 2147483647		; 7fffffffH
  00153	bf 2e 00 00 00	 mov	 edi, 46			; 0000002eH
  00158	89 45 10	 mov	 DWORD PTR _nChgParameterValue$[ebp], eax
  0015b	e9 b9 fe ff ff	 jmp	 $LN95@SetDestPar
$LN33@SetDestPar:

; 2575 : 		}
; 2576 : 		return;
; 2577 : 	case DST_ALL_DEC_RATE:
; 2578 : 		{
; 2579 : 			SetDestParam( DST_MP_DEC_RATE, nAdjParameterValue, NULL_CHGPARAM, bSend );

  00160	51		 push	 ecx
  00161	68 ff ff ff 7f	 push	 2147483647		; 7fffffffH
  00166	53		 push	 ebx
  00167	6a 49		 push	 73			; 00000049H
  00169	8b ce		 mov	 ecx, esi
  0016b	e8 00 00 00 00	 call	 ?SetDestParam@CMover@@QAEXHHHH@Z ; CMover::SetDestParam

; 2580 : 			SetDestParam( DST_FP_DEC_RATE, nAdjParameterValue, NULL_CHGPARAM, bSend );

  00170	b8 ff ff ff 7f	 mov	 eax, 2147483647		; 7fffffffH
  00175	bf 4a 00 00 00	 mov	 edi, 74			; 0000004aH
  0017a	89 45 10	 mov	 DWORD PTR _nChgParameterValue$[ebp], eax
  0017d	e9 97 fe ff ff	 jmp	 $LN95@SetDestPar
$LN23@SetDestPar:

; 2468 : 		return;
; 2469 : #ifdef __NEWWPN1024
; 2470 : 	case DST_MASTRY_ALL:
; 2471 : 		SetDestParam( DST_MASTRY_EARTH,	nAdjParameterValue, nChgParameterValue, bSend );
; 2472 : 		SetDestParam( DST_MASTRY_FIRE,	nAdjParameterValue, nChgParameterValue, bSend );
; 2473 : 		SetDestParam( DST_MASTRY_WATER,	nAdjParameterValue, nChgParameterValue, bSend );
; 2474 : 		SetDestParam( DST_MASTRY_ELECTRICITY,	nAdjParameterValue, nChgParameterValue, bSend );
; 2475 : 		SetDestParam( DST_MASTRY_WIND,	nAdjParameterValue, nChgParameterValue, bSend );
; 2476 : 		return;
; 2477 : #endif	// __NEWWPN1024
; 2478 : 
; 2479 : 	case DST_HP_RECOVERY_RATE:
; 2480 : 		{
; 2481 : 			int nMax	= GetMaxOriginHitPoint();		// ąöÇÁŔÇ żµÇâŔ» ąŢÁö ľĘŔş żŔ¸®ÁöłŻ ľç
; 2482 : 			int nRecv	= (int)( (nMax * (nAdjParameterValue / 100.0f)) );
; 2483 : 			SetDestParam( DST_HP_RECOVERY, nRecv, NULL_CHGPARAM, bSend );

  00182	bf ff ff ff 7f	 mov	 edi, 2147483647		; 7fffffffH
  00187	8b ce		 mov	 ecx, esi
  00189	6a 01		 push	 1
  0018b	89 7d 10	 mov	 DWORD PTR _nChgParameterValue$[ebp], edi
  0018e	e8 00 00 00 00	 call	 ?GetMaxOriginHitPoint@CMover@@QAEHH@Z ; CMover::GetMaxOriginHitPoint
  00193	66 0f 6e c3	 movd	 xmm0, ebx
  00197	bf 29 00 00 00	 mov	 edi, 41			; 00000029H
  0019c	0f 5b c0	 cvtdq2ps xmm0, xmm0
  0019f	8b 4d 14	 mov	 ecx, DWORD PTR _bSend$[ebp]
  001a2	66 0f 6e c8	 movd	 xmm1, eax
  001a6	f3 0f 5e 05 00
	00 00 00	 divss	 xmm0, DWORD PTR __real@42c80000
  001ae	0f 5b c9	 cvtdq2ps xmm1, xmm1
  001b1	f3 0f 59 c8	 mulss	 xmm1, xmm0
  001b5	f3 0f 2c d9	 cvttss2si ebx, xmm1
  001b9	e9 83 02 00 00	 jmp	 $LN68@SetDestPar
$LN24@SetDestPar:

; 2484 : 		}
; 2485 : 		return;
; 2486 : 	case DST_MP_RECOVERY_RATE:
; 2487 : 		{
; 2488 : 			int nMax	= GetMaxOriginManaPoint();		// ąöÇÁŔÇ żµÇâŔ» ąŢÁö ľĘŔş żŔ¸®ÁöłŻ ľç
; 2489 : 			int nRecv	= (int)( (nMax * (nAdjParameterValue / 100.0f)) );
; 2490 : 			SetDestParam( DST_MP_RECOVERY, nRecv, NULL_CHGPARAM, bSend );

  001be	bf ff ff ff 7f	 mov	 edi, 2147483647		; 7fffffffH
  001c3	8b ce		 mov	 ecx, esi
  001c5	6a 01		 push	 1
  001c7	89 7d 10	 mov	 DWORD PTR _nChgParameterValue$[ebp], edi
  001ca	e8 00 00 00 00	 call	 ?GetMaxOriginManaPoint@CMover@@QAEHH@Z ; CMover::GetMaxOriginManaPoint
  001cf	66 0f 6e c3	 movd	 xmm0, ebx
  001d3	bf 2a 00 00 00	 mov	 edi, 42			; 0000002aH
  001d8	0f 5b c0	 cvtdq2ps xmm0, xmm0
  001db	8b 4d 14	 mov	 ecx, DWORD PTR _bSend$[ebp]
  001de	66 0f 6e c8	 movd	 xmm1, eax
  001e2	f3 0f 5e 05 00
	00 00 00	 divss	 xmm0, DWORD PTR __real@42c80000
  001ea	0f 5b c9	 cvtdq2ps xmm1, xmm1
  001ed	f3 0f 59 c8	 mulss	 xmm1, xmm0
  001f1	f3 0f 2c d9	 cvttss2si ebx, xmm1
  001f5	e9 47 02 00 00	 jmp	 $LN68@SetDestPar
$LN25@SetDestPar:

; 2491 : 		}
; 2492 : 		return;
; 2493 : 	case DST_FP_RECOVERY_RATE:
; 2494 : 		{
; 2495 : 			int nMax	= GetMaxOriginFatiguePoint();		// ąöÇÁŔÇ żµÇâŔ» ąŢÁö ľĘŔş żŔ¸®ÁöłŻ ľç
; 2496 : 			int nRecv	= (int)( (nMax * (nAdjParameterValue / 100.0f)) );
; 2497 : 			SetDestParam( DST_FP_RECOVERY, nRecv, NULL_CHGPARAM, bSend );

  001fa	bf ff ff ff 7f	 mov	 edi, 2147483647		; 7fffffffH
  001ff	8b ce		 mov	 ecx, esi
  00201	6a 01		 push	 1
  00203	89 7d 10	 mov	 DWORD PTR _nChgParameterValue$[ebp], edi
  00206	e8 00 00 00 00	 call	 ?GetMaxOriginFatiguePoint@CMover@@QAEHH@Z ; CMover::GetMaxOriginFatiguePoint
  0020b	66 0f 6e c3	 movd	 xmm0, ebx
  0020f	bf 2b 00 00 00	 mov	 edi, 43			; 0000002bH
  00214	0f 5b c0	 cvtdq2ps xmm0, xmm0
  00217	8b 4d 14	 mov	 ecx, DWORD PTR _bSend$[ebp]
  0021a	66 0f 6e c8	 movd	 xmm1, eax
  0021e	f3 0f 5e 05 00
	00 00 00	 divss	 xmm0, DWORD PTR __real@42c80000
  00226	0f 5b c9	 cvtdq2ps xmm1, xmm1
  00229	f3 0f 59 c8	 mulss	 xmm1, xmm0
  0022d	f3 0f 2c d9	 cvttss2si ebx, xmm1
  00231	e9 0b 02 00 00	 jmp	 $LN68@SetDestPar
$LN27@SetDestPar:
  00236	66 0f 6e c3	 movd	 xmm0, ebx

; 2508 : 		}
; 2509 : 		return;
; 2510 : 	case DST_ALL_RECOVERY_RATE:
; 2511 : 		{
; 2512 : 			// HP
; 2513 : 			int nMax	= GetMaxOriginHitPoint();		// ąöÇÁŔÇ żµÇâŔ» ąŢÁö ľĘŔş żŔ¸®ÁöłŻ ľç

  0023a	8b ce		 mov	 ecx, esi

; 2514 : 			int nRecv	= (int)( (nMax * (nAdjParameterValue / 100.0f)) );

  0023c	0f 5b c0	 cvtdq2ps xmm0, xmm0
  0023f	6a 01		 push	 1
  00241	f3 0f 5e 05 00
	00 00 00	 divss	 xmm0, DWORD PTR __real@42c80000
  00249	f3 0f 11 45 08	 movss	 DWORD PTR tv964[ebp], xmm0
  0024e	e8 00 00 00 00	 call	 ?GetMaxOriginHitPoint@CMover@@QAEHH@Z ; CMover::GetMaxOriginHitPoint

; 2515 : 			SetDestParam( DST_HP_RECOVERY, nRecv, NULL_CHGPARAM, bSend );

  00253	8b 5d 14	 mov	 ebx, DWORD PTR _bSend$[ebp]
  00256	8b ce		 mov	 ecx, esi
  00258	53		 push	 ebx
  00259	68 ff ff ff 7f	 push	 2147483647		; 7fffffffH
  0025e	66 0f 6e c0	 movd	 xmm0, eax
  00262	0f 5b c0	 cvtdq2ps xmm0, xmm0
  00265	f3 0f 59 45 08	 mulss	 xmm0, DWORD PTR tv964[ebp]
  0026a	f3 0f 2c c0	 cvttss2si eax, xmm0
  0026e	50		 push	 eax
  0026f	6a 29		 push	 41			; 00000029H
  00271	e8 00 00 00 00	 call	 ?SetDestParam@CMover@@QAEXHHHH@Z ; CMover::SetDestParam

; 2516 : 
; 2517 : 			// MP
; 2518 : 			nMax	= GetMaxOriginManaPoint();		// ąöÇÁŔÇ żµÇâŔ» ąŢÁö ľĘŔş żŔ¸®ÁöłŻ ľç

  00276	6a 01		 push	 1
  00278	8b ce		 mov	 ecx, esi
  0027a	e8 00 00 00 00	 call	 ?GetMaxOriginManaPoint@CMover@@QAEHH@Z ; CMover::GetMaxOriginManaPoint

; 2519 : 			nRecv	= (int)( (nMax * (nAdjParameterValue / 100.0f)) );
; 2520 : 			SetDestParam( DST_MP_RECOVERY, nRecv, NULL_CHGPARAM, bSend );

  0027f	53		 push	 ebx
  00280	68 ff ff ff 7f	 push	 2147483647		; 7fffffffH
  00285	8b ce		 mov	 ecx, esi
  00287	66 0f 6e c0	 movd	 xmm0, eax
  0028b	0f 5b c0	 cvtdq2ps xmm0, xmm0
  0028e	f3 0f 59 45 08	 mulss	 xmm0, DWORD PTR tv964[ebp]
  00293	f3 0f 2c c0	 cvttss2si eax, xmm0
  00297	50		 push	 eax
  00298	6a 2a		 push	 42			; 0000002aH
  0029a	e8 00 00 00 00	 call	 ?SetDestParam@CMover@@QAEXHHHH@Z ; CMover::SetDestParam

; 2521 : 
; 2522 : 			// FP
; 2523 : 			nMax	= GetMaxOriginFatiguePoint();		// ąöÇÁŔÇ żµÇâŔ» ąŢÁö ľĘŔş żŔ¸®ÁöłŻ ľç
; 2524 : 			nRecv	= (int)( (nMax * (nAdjParameterValue / 100.0f)) );
; 2525 : 			SetDestParam( DST_FP_RECOVERY, nRecv, NULL_CHGPARAM, bSend );

  0029f	bf ff ff ff 7f	 mov	 edi, 2147483647		; 7fffffffH
  002a4	8b ce		 mov	 ecx, esi
  002a6	6a 01		 push	 1
  002a8	89 7d 10	 mov	 DWORD PTR _nChgParameterValue$[ebp], edi
  002ab	e8 00 00 00 00	 call	 ?GetMaxOriginFatiguePoint@CMover@@QAEHH@Z ; CMover::GetMaxOriginFatiguePoint
  002b0	8b 4d 14	 mov	 ecx, DWORD PTR _bSend$[ebp]
  002b3	bf 2b 00 00 00	 mov	 edi, 43			; 0000002bH
  002b8	66 0f 6e c0	 movd	 xmm0, eax
  002bc	0f 5b c0	 cvtdq2ps xmm0, xmm0
  002bf	f3 0f 59 45 08	 mulss	 xmm0, DWORD PTR tv964[ebp]
  002c4	f3 0f 2c d8	 cvttss2si ebx, xmm0
  002c8	e9 74 01 00 00	 jmp	 $LN68@SetDestPar
$LN29@SetDestPar:

; 2536 : 		}
; 2537 : 		return;
; 2538 : 	case DST_KILL_HP_RATE:
; 2539 : 		{
; 2540 : 			int nMax	= GetMaxOriginHitPoint();		// ąöÇÁŔÇ żµÇâŔ» ąŢÁö ľĘŔş żŔ¸®ÁöłŻ ľç
; 2541 : 			int nRecv	= (int)( (nMax * (nAdjParameterValue / 100.0f)) );
; 2542 : 			SetDestParam( DST_KILL_HP, nRecv, NULL_CHGPARAM, bSend );

  002cd	bf ff ff ff 7f	 mov	 edi, 2147483647		; 7fffffffH
  002d2	8b ce		 mov	 ecx, esi
  002d4	6a 01		 push	 1
  002d6	89 7d 10	 mov	 DWORD PTR _nChgParameterValue$[ebp], edi
  002d9	e8 00 00 00 00	 call	 ?GetMaxOriginHitPoint@CMover@@QAEHH@Z ; CMover::GetMaxOriginHitPoint
  002de	66 0f 6e c3	 movd	 xmm0, ebx
  002e2	bf 2c 00 00 00	 mov	 edi, 44			; 0000002cH
  002e7	0f 5b c0	 cvtdq2ps xmm0, xmm0
  002ea	8b 4d 14	 mov	 ecx, DWORD PTR _bSend$[ebp]
  002ed	66 0f 6e c8	 movd	 xmm1, eax
  002f1	f3 0f 5e 05 00
	00 00 00	 divss	 xmm0, DWORD PTR __real@42c80000
  002f9	0f 5b c9	 cvtdq2ps xmm1, xmm1
  002fc	f3 0f 59 c8	 mulss	 xmm1, xmm0
  00300	f3 0f 2c d9	 cvttss2si ebx, xmm1
  00304	e9 38 01 00 00	 jmp	 $LN68@SetDestPar
$LN30@SetDestPar:

; 2543 : 		}
; 2544 : 		return;
; 2545 : 	case DST_KILL_MP_RATE:
; 2546 : 		{
; 2547 : 			int nMax	= GetMaxOriginManaPoint();		// ąöÇÁŔÇ żµÇâŔ» ąŢÁö ľĘŔş żŔ¸®ÁöłŻ ľç
; 2548 : 			int nRecv	= (int)( (nMax * (nAdjParameterValue / 100.0f)) );
; 2549 : 			SetDestParam( DST_KILL_MP, nRecv, NULL_CHGPARAM, bSend );

  00309	bf ff ff ff 7f	 mov	 edi, 2147483647		; 7fffffffH
  0030e	8b ce		 mov	 ecx, esi
  00310	6a 01		 push	 1
  00312	89 7d 10	 mov	 DWORD PTR _nChgParameterValue$[ebp], edi
  00315	e8 00 00 00 00	 call	 ?GetMaxOriginManaPoint@CMover@@QAEHH@Z ; CMover::GetMaxOriginManaPoint
  0031a	66 0f 6e c3	 movd	 xmm0, ebx
  0031e	bf 2d 00 00 00	 mov	 edi, 45			; 0000002dH
  00323	0f 5b c0	 cvtdq2ps xmm0, xmm0
  00326	8b 4d 14	 mov	 ecx, DWORD PTR _bSend$[ebp]
  00329	66 0f 6e c8	 movd	 xmm1, eax
  0032d	f3 0f 5e 05 00
	00 00 00	 divss	 xmm0, DWORD PTR __real@42c80000
  00335	0f 5b c9	 cvtdq2ps xmm1, xmm1
  00338	f3 0f 59 c8	 mulss	 xmm1, xmm0
  0033c	f3 0f 2c d9	 cvttss2si ebx, xmm1
  00340	e9 fc 00 00 00	 jmp	 $LN68@SetDestPar
$LN31@SetDestPar:

; 2550 : 		}
; 2551 : 		return;
; 2552 : 	case DST_KILL_FP_RATE:
; 2553 : 		{
; 2554 : 			int nMax	= GetMaxOriginFatiguePoint();		// ąöÇÁŔÇ żµÇâŔ» ąŢÁö ľĘŔş żŔ¸®ÁöłŻ ľç
; 2555 : 			int nRecv	= (int)( (nMax * (nAdjParameterValue / 100.0f)) );
; 2556 : 			SetDestParam( DST_KILL_FP, nRecv, NULL_CHGPARAM, bSend );

  00345	bf ff ff ff 7f	 mov	 edi, 2147483647		; 7fffffffH
  0034a	8b ce		 mov	 ecx, esi
  0034c	6a 01		 push	 1
  0034e	89 7d 10	 mov	 DWORD PTR _nChgParameterValue$[ebp], edi
  00351	e8 00 00 00 00	 call	 ?GetMaxOriginFatiguePoint@CMover@@QAEHH@Z ; CMover::GetMaxOriginFatiguePoint
  00356	66 0f 6e c3	 movd	 xmm0, ebx
  0035a	bf 2e 00 00 00	 mov	 edi, 46			; 0000002eH
  0035f	0f 5b c0	 cvtdq2ps xmm0, xmm0
  00362	8b 4d 14	 mov	 ecx, DWORD PTR _bSend$[ebp]
  00365	66 0f 6e c8	 movd	 xmm1, eax
  00369	f3 0f 5e 05 00
	00 00 00	 divss	 xmm0, DWORD PTR __real@42c80000
  00371	0f 5b c9	 cvtdq2ps xmm1, xmm1
  00374	f3 0f 59 c8	 mulss	 xmm1, xmm0
  00378	f3 0f 2c d9	 cvttss2si ebx, xmm1
  0037c	e9 c0 00 00 00	 jmp	 $LN68@SetDestPar
$LN32@SetDestPar:
  00381	66 0f 6e c3	 movd	 xmm0, ebx

; 2557 : 		}
; 2558 : 		return;
; 2559 : 	case DST_KILL_ALL_RATE:
; 2560 : 		{
; 2561 : 			// HP
; 2562 : 			int nMax	= GetMaxOriginHitPoint();		// ąöÇÁŔÇ żµÇâŔ» ąŢÁö ľĘŔş żŔ¸®ÁöłŻ ľç

  00385	8b ce		 mov	 ecx, esi

; 2563 : 			int nRecv	= (int)( (nMax * (nAdjParameterValue / 100.0f)) );

  00387	0f 5b c0	 cvtdq2ps xmm0, xmm0
  0038a	6a 01		 push	 1
  0038c	f3 0f 5e 05 00
	00 00 00	 divss	 xmm0, DWORD PTR __real@42c80000
  00394	f3 0f 11 45 08	 movss	 DWORD PTR tv963[ebp], xmm0
  00399	e8 00 00 00 00	 call	 ?GetMaxOriginHitPoint@CMover@@QAEHH@Z ; CMover::GetMaxOriginHitPoint

; 2564 : 			SetDestParam( DST_KILL_HP, nRecv, NULL_CHGPARAM, bSend );

  0039e	8b 5d 14	 mov	 ebx, DWORD PTR _bSend$[ebp]
  003a1	8b ce		 mov	 ecx, esi
  003a3	53		 push	 ebx
  003a4	68 ff ff ff 7f	 push	 2147483647		; 7fffffffH
  003a9	66 0f 6e c0	 movd	 xmm0, eax
  003ad	0f 5b c0	 cvtdq2ps xmm0, xmm0
  003b0	f3 0f 59 45 08	 mulss	 xmm0, DWORD PTR tv963[ebp]
  003b5	f3 0f 2c c0	 cvttss2si eax, xmm0
  003b9	50		 push	 eax
  003ba	6a 2c		 push	 44			; 0000002cH
  003bc	e8 00 00 00 00	 call	 ?SetDestParam@CMover@@QAEXHHHH@Z ; CMover::SetDestParam

; 2565 : 			
; 2566 : 			// MP
; 2567 : 			nMax	= GetMaxOriginManaPoint();		// ąöÇÁŔÇ żµÇâŔ» ąŢÁö ľĘŔş żŔ¸®ÁöłŻ ľç

  003c1	6a 01		 push	 1
  003c3	8b ce		 mov	 ecx, esi
  003c5	e8 00 00 00 00	 call	 ?GetMaxOriginManaPoint@CMover@@QAEHH@Z ; CMover::GetMaxOriginManaPoint

; 2568 : 			nRecv	= (int)( (nMax * (nAdjParameterValue / 100.0f)) );
; 2569 : 			SetDestParam( DST_KILL_MP, nRecv, NULL_CHGPARAM, bSend );

  003ca	53		 push	 ebx
  003cb	68 ff ff ff 7f	 push	 2147483647		; 7fffffffH
  003d0	8b ce		 mov	 ecx, esi
  003d2	66 0f 6e c0	 movd	 xmm0, eax
  003d6	0f 5b c0	 cvtdq2ps xmm0, xmm0
  003d9	f3 0f 59 45 08	 mulss	 xmm0, DWORD PTR tv963[ebp]
  003de	f3 0f 2c c0	 cvttss2si eax, xmm0
  003e2	50		 push	 eax
  003e3	6a 2d		 push	 45			; 0000002dH
  003e5	e8 00 00 00 00	 call	 ?SetDestParam@CMover@@QAEXHHHH@Z ; CMover::SetDestParam

; 2570 : 			
; 2571 : 			// FP
; 2572 : 			nMax	= GetMaxOriginFatiguePoint();		// ąöÇÁŔÇ żµÇâŔ» ąŢÁö ľĘŔş żŔ¸®ÁöłŻ ľç
; 2573 : 			nRecv	= (int)( (nMax * (nAdjParameterValue / 100.0f)) );
; 2574 : 			SetDestParam( DST_KILL_FP, nRecv, NULL_CHGPARAM, bSend );

  003ea	bf ff ff ff 7f	 mov	 edi, 2147483647		; 7fffffffH
  003ef	8b ce		 mov	 ecx, esi
  003f1	6a 01		 push	 1
  003f3	89 7d 10	 mov	 DWORD PTR _nChgParameterValue$[ebp], edi
  003f6	e8 00 00 00 00	 call	 ?GetMaxOriginFatiguePoint@CMover@@QAEHH@Z ; CMover::GetMaxOriginFatiguePoint
  003fb	8b 4d 14	 mov	 ecx, DWORD PTR _bSend$[ebp]
  003fe	bf 2e 00 00 00	 mov	 edi, 46			; 0000002eH
  00403	66 0f 6e c0	 movd	 xmm0, eax
  00407	0f 5b c0	 cvtdq2ps xmm0, xmm0
  0040a	f3 0f 59 45 08	 mulss	 xmm0, DWORD PTR tv963[ebp]
  0040f	f3 0f 2c d8	 cvttss2si ebx, xmm0
  00413	eb 2c		 jmp	 SHORT $LN68@SetDestPar
$LN63@SetDestPar:

; 2394 : 		return;
; 2395 : #else
; 2396 : 	if( nDstParameter < 0 )
; 2397 : 		return;
; 2398 : #endif	//__LEGEND	//	10Â÷ Ŕü˝Â˝Ă˝şĹŰ	Neuz, World, Trans
; 2399 : 	
; 2400 : 	// HP, MPµîŔş SetPointParamŔ¸·Î Ăł¸®ÇŃ´Ů. ±Ůµđ SetDestParam ÇĎłŞ·Î ĹëŔĎ˝ĂÄ×Ŕ¸¸é ł´Áö ľĘŔ»±î?
; 2401 : 	switch( nDstParameter )

  00415	0f 84 9a 01 00
	00		 je	 $LN16@SetDestPar
  0041b	8b c7		 mov	 eax, edi
  0041d	83 e8 26	 sub	 eax, 38			; 00000026H
  00420	0f 84 58 01 00
	00		 je	 $LN7@SetDestPar
  00426	83 e8 01	 sub	 eax, 1
  00429	0f 84 18 01 00
	00		 je	 $LN10@SetDestPar
  0042f	83 e8 01	 sub	 eax, 1
  00432	0f 84 d8 00 00
	00		 je	 $LN13@SetDestPar

; 2581 : 		}
; 2582 : 		return;
; 2583 : 	} // switch
; 2584 : 
; 2585 : 	// ŔĚ °Ë»ç¸¦ żÖ Ŕ§żˇ´Ů ľČłÖ°í ż©±â´Ů łÖľúłÄ¸é
; 2586 : 	// DST_GOLD, PXP, RESIST_ALL°°Ŕş°ćżě´Â MAX_ADJPARAMARYş¸´Ů ´ő Ĺ«°ŞŔ» »çżëÇŃ´Ů. 
; 2587 : 	// ±×·ˇĽ­ ±×·±°ÍµéŔş Ŕ§żˇĽ­ Ăł¸®ÇĎ°í ąŮ·Î ¸®ĹĎÇĎ°í
; 2588 : 	// ŔĎąÝŔűŔÎ°Íµé¸¸ ŔĚÂĘŔ¸·Î żÂ´Ů.
; 2589 : 	if( nDstParameter >= MAX_ADJPARAMARY)

  00438	83 ff 5f	 cmp	 edi, 95			; 0000005fH
  0043b	0f 8d 92 01 00
	00		 jge	 $LN93@SetDestPar
$LN68@SetDestPar:

; 2590 : 		return;
; 2591 : 	
; 2592 : 	if( nAdjParameterValue != 0 )	// 0ŔĚ µéľîżÂ°Íµµ Ŕß¸řµČ°Ĺ´Ď±î °ć°í¸¦ ł»ľß ÇĎÁö ľĘŔ»±î ˝Í´Ů.

  00441	85 db		 test	 ebx, ebx
  00443	74 73		 je	 SHORT $LN35@SetDestPar

; 2593 : 	{
; 2594 : 		fSuccess	= TRUE;

  00445	ba 01 00 00 00	 mov	 edx, 1

; 2595 : 
; 2596 : 		switch( nDstParameter )

  0044a	81 ff 16 27 00
	00		 cmp	 edi, 10006		; 00002716H
  00450	7f 48		 jg	 SHORT $LN59@SetDestPar
  00452	74 52		 je	 SHORT $LN42@SetDestPar
  00454	8d 47 e3	 lea	 eax, DWORD PTR [edi-29]
  00457	83 f8 35	 cmp	 eax, 53			; 00000035H
  0045a	77 3e		 ja	 SHORT $LN59@SetDestPar
  0045c	0f b6 80 00 00
	00 00		 movzx	 eax, BYTE PTR $LN71@SetDestPar[eax]
  00463	ff 24 85 00 00
	00 00		 jmp	 DWORD PTR $LN72@SetDestPar[eax*4]
$LN37@SetDestPar:

; 2597 : 		{
; 2598 : 		case DST_CHRSTATE:		// »óĹÂşŻ°ćŔÇ °ćżě´Â
; 2599 : 		case DST_IMMUNITY:
; 2600 : 			if( nAdjParameterValue != NULL_ID )

  0046a	8b 45 10	 mov	 eax, DWORD PTR _nChgParameterValue$[ebp]
  0046d	83 fb ff	 cmp	 ebx, -1
  00470	74 7c		 je	 SHORT $LN73@SetDestPar

; 2601 : 			{
; 2602 : 				if( nAdjParameterValue == 0xffffffff )
; 2603 : 				{
; 2604 : 					Error( "SetDestParam : Adj == -1, %s", GetName() );
; 2605 : 					return;
; 2606 : 				}
; 2607 : 				m_adjParamAry[nDstParameter] |= nAdjParameterValue;		// şńĆ®·Î żÂżŔÇÁ µČ´Ů.

  00472	09 9c be c4 11
	00 00		 or	 DWORD PTR [esi+edi*4+4548], ebx

; 2608 : 			} else
; 2609 : 				fSuccess = FALSE;
; 2610 : 			break;

  00479	eb 75		 jmp	 SHORT $LN54@SetDestPar
$LN43@SetDestPar:

; 2650 : 		else
; 2651 : 		{
; 2652 : 			m_chgParamAry[nDstParameter] = nChgParameterValue;	// °íÁ¤µČ °Ş.
; 2653 : 		}
; 2654 : 	}
; 2655 : #ifdef __WORLDSERVER
; 2656 : 	if( TRUE == ( fSuccess & bSend ) ) {

  0047b	01 9c be c4 11
	00 00		 add	 DWORD PTR [esi+edi*4+4548], ebx
  00482	8b 45 10	 mov	 eax, DWORD PTR _nChgParameterValue$[ebp]
$LN53@SetDestPar:
  00485	89 84 be 40 13
	00 00		 mov	 DWORD PTR [esi+edi*4+4928], eax
  0048c	eb 62		 jmp	 SHORT $LN54@SetDestPar
$LN50@SetDestPar:

; 2613 : 			return;
; 2614 : 		case DST_REFLECT_DAMAGE:
; 2615 : 			m_adjParamAry[nDstParameter] += nAdjParameterValue;		// µĄąĚÁöŔÇ ¸î%¸¦ µą·ÁÁÖ´Â°ˇ?
; 2616 : 			m_chgParamAry[nDstParameter] = nChgParameterValue;		// ¸î%ŔÇ Č®·ü·Î ąßµżµÇ´Â°ˇ?
; 2617 : 			break;
; 2618 : 		case DST_CHR_CHANCEBLEEDING:
; 2619 : 		case DST_CHR_CHANCESTEALHP:
; 2620 : 		case DST_CHR_CHANCEPOISON:
; 2621 : 		case DST_CHR_CHANCEDARK:
; 2622 : 		case DST_CHR_CHANCESTUN:
; 2623 : 		case DST_AUTOHP:
; 2624 : 			m_adjParamAry[nDstParameter] += nAdjParameterValue;		// Âů˝ş Č®·ü.	// %ąĚ¸¸Ŕ¸·Î Č¸şąµÇ°Ô ÇŇ˛¨łÄ.
; 2625 : 			m_chgParamAry[nDstParameter] = nChgParameterValue;		// Âů˝ş°ˇ °É·ČŔ»¶§ ÁöĽÓ˝Ă°Ł		// %HP°ˇ Č¸şąµÉ˛¨łÄ.
; 2626 : 			break;
; 2627 : #if __VER >= 9	// __PET_0410
; 2628 : 		case DST_HEAL:
; 2629 : 			m_nHealCnt	= (short)( PROCESS_COUNT * 6.0f );		// ÄđĹ¸ŔÓ 6ĂĘ

  0048e	b8 5a 00 00 00	 mov	 eax, 90			; 0000005aH
  00493	66 89 86 d4 06
	00 00		 mov	 WORD PTR [esi+1748], ax
$LN59@SetDestPar:

; 2650 : 		else
; 2651 : 		{
; 2652 : 			m_chgParamAry[nDstParameter] = nChgParameterValue;	// °íÁ¤µČ °Ş.
; 2653 : 		}
; 2654 : 	}
; 2655 : #ifdef __WORLDSERVER
; 2656 : 	if( TRUE == ( fSuccess & bSend ) ) {

  0049a	01 9c be c4 11
	00 00		 add	 DWORD PTR [esi+edi*4+4548], ebx
  004a1	8b 45 10	 mov	 eax, DWORD PTR _nChgParameterValue$[ebp]
  004a4	eb 4a		 jmp	 SHORT $LN54@SetDestPar
$LN42@SetDestPar:

; 2611 : 		case DST_CURECHR:		// »óĹÂÇŘÁ¦
; 2612 : 			ResetDestParam( DST_CHRSTATE, nAdjParameterValue, bSend );

  004a6	51		 push	 ecx
  004a7	53		 push	 ebx
  004a8	6a 40		 push	 64			; 00000040H
  004aa	8b ce		 mov	 ecx, esi
  004ac	e8 00 00 00 00	 call	 ?ResetDestParam@CMover@@QAEXHHH@Z ; CMover::ResetDestParam
  004b1	5b		 pop	 ebx
  004b2	5f		 pop	 edi

; 2658 : 	}
; 2659 : #endif	// __WORLDSERVER
; 2660 : }

  004b3	5e		 pop	 esi
  004b4	5d		 pop	 ebp
  004b5	c2 10 00	 ret	 16			; 00000010H
$LN35@SetDestPar:

; 2630 : 			m_adjParamAry[nDstParameter]	+= nAdjParameterValue;	
; 2631 : 			break;
; 2632 : #endif	// __PET_0410
; 2633 : 		default:
; 2634 : 			m_adjParamAry[nDstParameter] += nAdjParameterValue;		// ´©Ŕű
; 2635 : 			break;
; 2636 : 		}
; 2637 : 	}
; 2638 : 
; 2639 : 	else if( nChgParameterValue != 0x7FFFFFFF ) 

  004b8	8b 45 10	 mov	 eax, DWORD PTR _nChgParameterValue$[ebp]
  004bb	3d ff ff ff 7f	 cmp	 eax, 2147483647		; 7fffffffH
  004c0	74 2c		 je	 SHORT $LN73@SetDestPar

; 2640 : 	{
; 2641 : 		fSuccess	= TRUE;

  004c2	ba 01 00 00 00	 mov	 edx, 1

; 2642 : 
; 2643 : 		// ëĹ
; 2644 : 		if( nDstParameter == DST_SPEED )

  004c7	83 ff 0b	 cmp	 edi, 11			; 0000000bH
  004ca	75 b9		 jne	 SHORT $LN53@SetDestPar

; 2645 : 		{
; 2646 : 			if( m_chgParamAry[nDstParameter] == 0x7FFFFFFF )

  004cc	8b 84 be 40 13
	00 00		 mov	 eax, DWORD PTR [esi+edi*4+4928]
  004d3	3d ff ff ff 7f	 cmp	 eax, 2147483647		; 7fffffffH
  004d8	75 08		 jne	 SHORT $LN66@SetDestPar

; 2647 : 				m_chgParamAry[nDstParameter]	= 0;

  004da	33 c0		 xor	 eax, eax
  004dc	89 86 6c 13 00
	00		 mov	 DWORD PTR [esi+4972], eax
$LN66@SetDestPar:

; 2648 : 			m_chgParamAry[nDstParameter]++;

  004e2	40		 inc	 eax
  004e3	89 86 6c 13 00
	00		 mov	 DWORD PTR [esi+4972], eax

; 2649 : 		}

  004e9	8b 45 10	 mov	 eax, DWORD PTR _nChgParameterValue$[ebp]
  004ec	eb 02		 jmp	 SHORT $LN54@SetDestPar
$LN73@SetDestPar:

; 2650 : 		else
; 2651 : 		{
; 2652 : 			m_chgParamAry[nDstParameter] = nChgParameterValue;	// °íÁ¤µČ °Ş.
; 2653 : 		}
; 2654 : 	}
; 2655 : #ifdef __WORLDSERVER
; 2656 : 	if( TRUE == ( fSuccess & bSend ) ) {

  004ee	33 d2		 xor	 edx, edx
$LN54@SetDestPar:
  004f0	23 d1		 and	 edx, ecx
  004f2	83 fa 01	 cmp	 edx, 1
  004f5	0f 85 d8 00 00
	00		 jne	 $LN93@SetDestPar

; 2657 : 		g_UserMng.AddSetDestParam( this, nDstParameter, nAdjParameterValue, nChgParameterValue );

  004fb	50		 push	 eax
  004fc	53		 push	 ebx
  004fd	57		 push	 edi
  004fe	56		 push	 esi
  004ff	b9 00 00 00 00	 mov	 ecx, OFFSET ?g_UserMng@@3VCUserMng@@A ; g_UserMng
  00504	e8 00 00 00 00	 call	 ?AddSetDestParam@CUserMng@@QAEXPAVCMover@@HHH@Z ; CUserMng::AddSetDestParam
  00509	5b		 pop	 ebx
  0050a	5f		 pop	 edi

; 2658 : 	}
; 2659 : #endif	// __WORLDSERVER
; 2660 : }

  0050b	5e		 pop	 esi
  0050c	5d		 pop	 ebp
  0050d	c2 10 00	 ret	 16			; 00000010H
$LN13@SetDestPar:

; 2421 : 	case DST_FP:
; 2422 : 		{
; 2423 : 			if( nAdjParameterValue == -1 )

  00510	8b ce		 mov	 ecx, esi
  00512	83 fb ff	 cmp	 ebx, -1
  00515	75 17		 jne	 SHORT $LN14@SetDestPar

; 2424 : 				SetPointParam( nDstParameter, GetMaxFatiguePoint() );

  00517	e8 00 00 00 00	 call	 ?GetMaxFatiguePoint@CMover@@QAEHXZ ; CMover::GetMaxFatiguePoint

; 2427 : 		}
; 2428 : 		return;

  0051c	6a 00		 push	 0
  0051e	50		 push	 eax
  0051f	57		 push	 edi
  00520	8b ce		 mov	 ecx, esi
  00522	e8 00 00 00 00	 call	 ?SetPointParam@CMover@@QAEXHHH@Z ; CMover::SetPointParam
  00527	5b		 pop	 ebx
  00528	5f		 pop	 edi

; 2658 : 	}
; 2659 : #endif	// __WORLDSERVER
; 2660 : }

  00529	5e		 pop	 esi
  0052a	5d		 pop	 ebp
  0052b	c2 10 00	 ret	 16			; 00000010H
$LN14@SetDestPar:

; 2425 : 			else
; 2426 : 				SetPointParam( nDstParameter, GetFatiguePoint() + nAdjParameterValue );

  0052e	e8 00 00 00 00	 call	 ?GetFatiguePoint@CMover@@QAEHXZ ; CMover::GetFatiguePoint

; 2427 : 		}
; 2428 : 		return;

  00533	6a 00		 push	 0
  00535	03 c3		 add	 eax, ebx
  00537	8b ce		 mov	 ecx, esi
  00539	50		 push	 eax
  0053a	57		 push	 edi
  0053b	e8 00 00 00 00	 call	 ?SetPointParam@CMover@@QAEXHHH@Z ; CMover::SetPointParam
  00540	5b		 pop	 ebx
  00541	5f		 pop	 edi

; 2658 : 	}
; 2659 : #endif	// __WORLDSERVER
; 2660 : }

  00542	5e		 pop	 esi
  00543	5d		 pop	 ebp
  00544	c2 10 00	 ret	 16			; 00000010H
$LN10@SetDestPar:

; 2412 : 	case DST_MP:
; 2413 : 		{
; 2414 : 			if( nAdjParameterValue == -1 )

  00547	8b ce		 mov	 ecx, esi
  00549	83 fb ff	 cmp	 ebx, -1
  0054c	75 17		 jne	 SHORT $LN11@SetDestPar

; 2415 : 				SetPointParam( nDstParameter, GetMaxManaPoint() );

  0054e	e8 00 00 00 00	 call	 ?GetMaxManaPoint@CMover@@QAEHXZ ; CMover::GetMaxManaPoint

; 2418 : 			
; 2419 : 		}
; 2420 : 		return;

  00553	6a 00		 push	 0
  00555	50		 push	 eax
  00556	57		 push	 edi
  00557	8b ce		 mov	 ecx, esi
  00559	e8 00 00 00 00	 call	 ?SetPointParam@CMover@@QAEXHHH@Z ; CMover::SetPointParam
  0055e	5b		 pop	 ebx
  0055f	5f		 pop	 edi

; 2658 : 	}
; 2659 : #endif	// __WORLDSERVER
; 2660 : }

  00560	5e		 pop	 esi
  00561	5d		 pop	 ebp
  00562	c2 10 00	 ret	 16			; 00000010H
$LN11@SetDestPar:

; 2416 : 			else
; 2417 : 				SetPointParam( nDstParameter, GetManaPoint() + nAdjParameterValue );

  00565	e8 00 00 00 00	 call	 ?GetManaPoint@CMover@@QAEHXZ ; CMover::GetManaPoint

; 2418 : 			
; 2419 : 		}
; 2420 : 		return;

  0056a	6a 00		 push	 0
  0056c	03 c3		 add	 eax, ebx
  0056e	8b ce		 mov	 ecx, esi
  00570	50		 push	 eax
  00571	57		 push	 edi
  00572	e8 00 00 00 00	 call	 ?SetPointParam@CMover@@QAEXHHH@Z ; CMover::SetPointParam
  00577	5b		 pop	 ebx
  00578	5f		 pop	 edi

; 2658 : 	}
; 2659 : #endif	// __WORLDSERVER
; 2660 : }

  00579	5e		 pop	 esi
  0057a	5d		 pop	 ebp
  0057b	c2 10 00	 ret	 16			; 00000010H
$LN7@SetDestPar:

; 2402 : 	{
; 2403 : #ifdef __WORLDSERVER
; 2404 : 	case DST_HP:
; 2405 : 		{
; 2406 : 			if( nAdjParameterValue == -1 )

  0057e	8b ce		 mov	 ecx, esi
  00580	83 fb ff	 cmp	 ebx, -1
  00583	75 17		 jne	 SHORT $LN8@SetDestPar

; 2407 : 				SetPointParam( nDstParameter, GetMaxHitPoint() );

  00585	e8 00 00 00 00	 call	 ?GetMaxHitPoint@CMover@@QAEHXZ ; CMover::GetMaxHitPoint

; 2410 : 		}
; 2411 : 		return;

  0058a	6a 00		 push	 0
  0058c	50		 push	 eax
  0058d	57		 push	 edi
  0058e	8b ce		 mov	 ecx, esi
  00590	e8 00 00 00 00	 call	 ?SetPointParam@CMover@@QAEXHHH@Z ; CMover::SetPointParam
  00595	5b		 pop	 ebx
  00596	5f		 pop	 edi

; 2658 : 	}
; 2659 : #endif	// __WORLDSERVER
; 2660 : }

  00597	5e		 pop	 esi
  00598	5d		 pop	 ebp
  00599	c2 10 00	 ret	 16			; 00000010H
$LN8@SetDestPar:

; 2408 : 			else
; 2409 : 				SetPointParam( nDstParameter, GetHitPoint() + nAdjParameterValue );

  0059c	e8 00 00 00 00	 call	 ?GetHitPoint@CMover@@QAEHXZ ; CMover::GetHitPoint

; 2410 : 		}
; 2411 : 		return;

  005a1	6a 00		 push	 0
  005a3	03 c3		 add	 eax, ebx
  005a5	8b ce		 mov	 ecx, esi
  005a7	50		 push	 eax
  005a8	57		 push	 edi
  005a9	e8 00 00 00 00	 call	 ?SetPointParam@CMover@@QAEXHHH@Z ; CMover::SetPointParam
  005ae	5b		 pop	 ebx
  005af	5f		 pop	 edi

; 2658 : 	}
; 2659 : #endif	// __WORLDSERVER
; 2660 : }

  005b0	5e		 pop	 esi
  005b1	5d		 pop	 ebp
  005b2	c2 10 00	 ret	 16			; 00000010H
$LN16@SetDestPar:

; 2429 : #else // __WORLDSERVER
; 2430 : 	case DST_HP:	SetPointParam( nDstParameter, GetHitPoint() + nAdjParameterValue );	return;
; 2431 : 	case DST_MP:	SetPointParam( nDstParameter, GetManaPoint() + nAdjParameterValue );	return;
; 2432 : 	case DST_FP:	SetPointParam( nDstParameter, GetFatiguePoint() + nAdjParameterValue );	return;
; 2433 : #endif // __WORLDSERVER
; 2434 : 	case DST_GOLD:	
; 2435 : #ifdef __PERIN_BUY_BUG	// chipi_091219 Ăß°ˇ
; 2436 : 		Error( "SetDestParam( DST_GOLD ) - [User:%s(%07d)], [Value:%d]", static_cast<CUser*>(this)->GetName(), static_cast<CUser*>(this)->m_idPlayer, nAdjParameterValue );

  005b5	53		 push	 ebx
  005b6	ff b6 34 02 00
	00		 push	 DWORD PTR [esi+564]
  005bc	8b ce		 mov	 ecx, esi
  005be	6a 00		 push	 0
  005c0	e8 00 00 00 00	 call	 ?GetName@CMover@@QAEPBDH@Z ; CMover::GetName
  005c5	50		 push	 eax
  005c6	68 00 00 00 00	 push	 OFFSET ??_C@_0DH@LGNMPJME@SetDestParam?$CI?5DST_GOLD?5?$CJ?5?9?5?$FLUse@
  005cb	e8 00 00 00 00	 call	 ?Error@@YAPBDPBDZZ	; Error
  005d0	83 c4 10	 add	 esp, 16			; 00000010H
$LN93@SetDestPar:
  005d3	5b		 pop	 ebx
$LN56@SetDestPar:
  005d4	5f		 pop	 edi

; 2658 : 	}
; 2659 : #endif	// __WORLDSERVER
; 2660 : }

  005d5	5e		 pop	 esi
  005d6	5d		 pop	 ebp
  005d7	c2 10 00	 ret	 16			; 00000010H
  005da	66 90		 npad	 2
$LN70@SetDestPar:
  005dc	00 00 00 00	 DD	 $LN18@SetDestPar
  005e0	00 00 00 00	 DD	 $LN19@SetDestPar
  005e4	00 00 00 00	 DD	 $LN20@SetDestPar
  005e8	00 00 00 00	 DD	 $LN21@SetDestPar
  005ec	00 00 00 00	 DD	 $LN93@SetDestPar
  005f0	00 00 00 00	 DD	 $LN23@SetDestPar
  005f4	00 00 00 00	 DD	 $LN24@SetDestPar
  005f8	00 00 00 00	 DD	 $LN25@SetDestPar
  005fc	00 00 00 00	 DD	 $LN22@SetDestPar
  00600	00 00 00 00	 DD	 $LN93@SetDestPar
  00604	00 00 00 00	 DD	 $LN26@SetDestPar
  00608	00 00 00 00	 DD	 $LN27@SetDestPar
  0060c	00 00 00 00	 DD	 $LN28@SetDestPar
  00610	00 00 00 00	 DD	 $LN29@SetDestPar
  00614	00 00 00 00	 DD	 $LN30@SetDestPar
  00618	00 00 00 00	 DD	 $LN31@SetDestPar
  0061c	00 00 00 00	 DD	 $LN32@SetDestPar
  00620	00 00 00 00	 DD	 $LN33@SetDestPar
$LN72@SetDestPar:
  00624	00 00 00 00	 DD	 $LN43@SetDestPar
  00628	00 00 00 00	 DD	 $LN37@SetDestPar
  0062c	00 00 00 00	 DD	 $LN50@SetDestPar
  00630	00 00 00 00	 DD	 $LN59@SetDestPar
$LN71@SetDestPar:
  00634	00		 DB	 0
  00635	03		 DB	 3
  00636	03		 DB	 3
  00637	03		 DB	 3
  00638	03		 DB	 3
  00639	03		 DB	 3
  0063a	03		 DB	 3
  0063b	03		 DB	 3
  0063c	03		 DB	 3
  0063d	03		 DB	 3
  0063e	03		 DB	 3
  0063f	03		 DB	 3
  00640	03		 DB	 3
  00641	03		 DB	 3
  00642	03		 DB	 3
  00643	03		 DB	 3
  00644	03		 DB	 3
  00645	03		 DB	 3
  00646	03		 DB	 3
  00647	03		 DB	 3
  00648	03		 DB	 3
  00649	03		 DB	 3
  0064a	03		 DB	 3
  0064b	03		 DB	 3
  0064c	03		 DB	 3
  0064d	03		 DB	 3
  0064e	03		 DB	 3
  0064f	03		 DB	 3
  00650	00		 DB	 0
  00651	00		 DB	 0
  00652	00		 DB	 0
  00653	00		 DB	 0
  00654	01		 DB	 1
  00655	03		 DB	 3
  00656	03		 DB	 3
  00657	01		 DB	 1
  00658	03		 DB	 3
  00659	03		 DB	 3
  0065a	03		 DB	 3
  0065b	03		 DB	 3
  0065c	00		 DB	 0
  0065d	00		 DB	 0
  0065e	03		 DB	 3
  0065f	03		 DB	 3
  00660	03		 DB	 3
  00661	03		 DB	 3
  00662	03		 DB	 3
  00663	03		 DB	 3
  00664	03		 DB	 3
  00665	03		 DB	 3
  00666	03		 DB	 3
  00667	03		 DB	 3
  00668	03		 DB	 3
  00669	02		 DB	 2
?SetDestParam@CMover@@QAEXHHHH@Z ENDP			; CMover::SetDestParam
_TEXT	ENDS
; Function compile flags: /Ogtp
; File C:\IAGOS\server\v18\Source\Source\_Common\MoverParam.cpp
;	COMDAT ?GetParam@CMover@@QAEHHH@Z
_TEXT	SEGMENT
_nDest$ = 8						; size = 4
_nParam$ = 12						; size = 4
?GetParam@CMover@@QAEHHH@Z PROC				; CMover::GetParam, COMDAT
; _this$ = ecx

; 2898 : {

  00000	55		 push	 ebp
  00001	8b ec		 mov	 ebp, esp
  00003	56		 push	 esi
  00004	8b 75 0c	 mov	 esi, DWORD PTR _nParam$[ebp]
  00007	57		 push	 edi

; 2899 : 	int nChgParam = GetChgParam( nDest );

  00008	ff 75 08	 push	 DWORD PTR _nDest$[ebp]
  0000b	8b f9		 mov	 edi, ecx
  0000d	e8 00 00 00 00	 call	 ?GetChgParam@CMover@@QAEHH@Z ; CMover::GetChgParam

; 2900 : 	if( nChgParam != 0x7FFFFFFF ) 

  00012	3d ff ff ff 7f	 cmp	 eax, 2147483647		; 7fffffffH
  00017	75 14		 jne	 SHORT $LN4@GetParam

; 2901 : 		return nChgParam;
; 2902 : 
; 2903 : 	int nAdjParam = GetAdjParam( nDest );

  00019	ff 75 08	 push	 DWORD PTR _nDest$[ebp]
  0001c	8b cf		 mov	 ecx, edi
  0001e	e8 00 00 00 00	 call	 ?GetAdjParam@CMover@@QAEHH@Z ; CMover::GetAdjParam

; 2904 : 	if( nAdjParam )	

  00023	85 c0		 test	 eax, eax
  00025	8d 0c 06	 lea	 ecx, DWORD PTR [esi+eax]
  00028	0f 45 f1	 cmovne	 esi, ecx

; 2905 : 		return nParam + nAdjParam;

  0002b	8b c6		 mov	 eax, esi
$LN4@GetParam:

; 2906 : 	else
; 2907 : 		return nParam;
; 2908 : }

  0002d	5f		 pop	 edi
  0002e	5e		 pop	 esi
  0002f	5d		 pop	 ebp
  00030	c2 08 00	 ret	 8
?GetParam@CMover@@QAEHHH@Z ENDP				; CMover::GetParam
_TEXT	ENDS
; Function compile flags: /Ogtp
; File C:\IAGOS\server\v18\Source\Source\_Common\MoverParam.cpp
;	COMDAT ?UpdateParam@CMover@@QAEXXZ
_TEXT	SEGMENT
?UpdateParam@CMover@@QAEXXZ PROC			; CMover::UpdateParam, COMDAT
; _this$ = ecx

; 565  : {

  00000	53		 push	 ebx
  00001	56		 push	 esi
  00002	8b f1		 mov	 esi, ecx
  00004	57		 push	 edi

; 566  : 	if( IsPlayer() ) 

  00005	83 be 30 02 00
	00 00		 cmp	 DWORD PTR [esi+560], 0
  0000c	8d be 0c 06 00
	00		 lea	 edi, DWORD PTR [esi+1548]
  00012	8d 9e 08 06 00
	00		 lea	 ebx, DWORD PTR [esi+1544]
  00018	74 20		 je	 SHORT $LN2@UpdatePara

; 567  : 	{
; 568  : 		SumEquipDefenseAbility( &m_nDefenseMin, &m_nDefenseMax ); 

  0001a	57		 push	 edi
  0001b	53		 push	 ebx
  0001c	e8 00 00 00 00	 call	 ?SumEquipDefenseAbility@CMover@@QAEHPAJ0@Z ; CMover::SumEquipDefenseAbility

; 569  : 		SumEquipAdjValue( &m_nAdjHitRate, &m_nAdjParry );

  00021	8d 86 14 06 00
	00		 lea	 eax, DWORD PTR [esi+1556]
  00027	8b ce		 mov	 ecx, esi
  00029	50		 push	 eax
  0002a	8d 86 10 06 00
	00		 lea	 eax, DWORD PTR [esi+1552]
  00030	50		 push	 eax
  00031	e8 00 00 00 00	 call	 ?SumEquipAdjValue@CMover@@QAEXPAH0@Z ; CMover::SumEquipAdjValue
  00036	5f		 pop	 edi

; 576  : 	}
; 577  : }

  00037	5e		 pop	 esi
  00038	5b		 pop	 ebx
  00039	c3		 ret	 0
$LN2@UpdatePara:

; 570  : 	}
; 571  : 	else
; 572  : 	{
; 573  : 		m_nDefenseMin = m_nDefenseMax = GetNaturalArmor();

  0003a	e8 00 00 00 00	 call	 ?GetNaturalArmor@CMover@@QAEHXZ ; CMover::GetNaturalArmor
  0003f	89 07		 mov	 DWORD PTR [edi], eax
  00041	5f		 pop	 edi

; 574  : 		m_nAdjHitRate = 0;

  00042	c7 86 10 06 00
	00 00 00 00 00	 mov	 DWORD PTR [esi+1552], 0

; 575  : 		m_nAdjParry = 0;

  0004c	c7 86 14 06 00
	00 00 00 00 00	 mov	 DWORD PTR [esi+1556], 0

; 576  : 	}
; 577  : }

  00056	5e		 pop	 esi
  00057	89 03		 mov	 DWORD PTR [ebx], eax
  00059	5b		 pop	 ebx
  0005a	c3		 ret	 0
?UpdateParam@CMover@@QAEXXZ ENDP			; CMover::UpdateParam
_TEXT	ENDS
; Function compile flags: /Ogtp
; File C:\IAGOS\server\v18\Source\Source\_Common\MoverParam.cpp
;	COMDAT ?RemoveCompleteQuest@CMover@@QAEXXZ
_TEXT	SEGMENT
?RemoveCompleteQuest@CMover@@QAEXXZ PROC		; CMover::RemoveCompleteQuest, COMDAT
; _this$ = ecx

; 3570 : 	m_nCompleteQuestSize = 0;

  00000	c6 81 9c 0d 00
	00 00		 mov	 BYTE PTR [ecx+3484], 0

; 3571 : }

  00007	c3		 ret	 0
?RemoveCompleteQuest@CMover@@QAEXXZ ENDP		; CMover::RemoveCompleteQuest
_TEXT	ENDS
; Function compile flags: /Ogtp
; File C:\IAGOS\server\v18\Source\Source\_Common\MoverParam.cpp
;	COMDAT ?RemoveAllQuest@CMover@@QAEXXZ
_TEXT	SEGMENT
?RemoveAllQuest@CMover@@QAEXXZ PROC			; CMover::RemoveAllQuest, COMDAT
; _this$ = ecx

; 3562 : 	m_nQuestSize = 0;

  00000	c6 81 96 0d 00
	00 00		 mov	 BYTE PTR [ecx+3478], 0

; 3563 : 	m_nCompleteQuestSize = 0;

  00007	c6 81 9c 0d 00
	00 00		 mov	 BYTE PTR [ecx+3484], 0

; 3564 : #if __VER >= 15 // __IMPROVE_QUEST_INTERFACE
; 3565 : 	m_nCheckedQuestSize = 0;

  0000e	c6 81 a4 0d 00
	00 00		 mov	 BYTE PTR [ecx+3492], 0

; 3566 : #endif // __IMPROVE_QUEST_INTERFACE
; 3567 : }

  00015	c3		 ret	 0
?RemoveAllQuest@CMover@@QAEXXZ ENDP			; CMover::RemoveAllQuest
_TEXT	ENDS
; Function compile flags: /Ogtp
; File C:\IAGOS\server\v18\Source\Source\_Common\MoverParam.cpp
;	COMDAT ?SetQuest@CMover@@QAEHPAUtagQuest@@@Z
_TEXT	SEGMENT
_lpNewQuest$ = 8					; size = 4
_lpQuest$1$ = 8						; size = 4
?SetQuest@CMover@@QAEHPAUtagQuest@@@Z PROC		; CMover::SetQuest, COMDAT
; _this$ = ecx

; 3649 : {

  00000	55		 push	 ebp
  00001	8b ec		 mov	 ebp, esp
  00003	53		 push	 ebx

; 3650 : 	LPQUEST lpQuest = FindQuest( lpNewQuest->m_wId );

  00004	8b 5d 08	 mov	 ebx, DWORD PTR _lpNewQuest$[ebp]
  00007	56		 push	 esi
  00008	57		 push	 edi
  00009	8b f1		 mov	 esi, ecx
  0000b	0f b7 7b 04	 movzx	 edi, WORD PTR [ebx+4]
  0000f	57		 push	 edi
  00010	e8 00 00 00 00	 call	 ?FindQuest@CMover@@QAEPAUtagQuest@@H@Z ; CMover::FindQuest
  00015	89 45 08	 mov	 DWORD PTR _lpQuest$1$[ebp], eax

; 3651 : 	// ŔĚąĚ żĎ·áµČ ÄÉ˝şĆ®¶ó¸é ĽĽĆĂ ˝ÇĆĐ 
; 3652 : 	if( lpQuest == NULL && IsCompleteQuest( lpNewQuest->m_wId ) )

  00018	85 c0		 test	 eax, eax
  0001a	75 18		 jne	 SHORT $LN2@SetQuest
  0001c	57		 push	 edi
  0001d	8b ce		 mov	 ecx, esi
  0001f	e8 00 00 00 00	 call	 ?IsCompleteQuest@CMover@@QAEHH@Z ; CMover::IsCompleteQuest
  00024	85 c0		 test	 eax, eax
  00026	74 09		 je	 SHORT $LN4@SetQuest

; 3655 : }

  00028	5f		 pop	 edi
  00029	5e		 pop	 esi
  0002a	33 c0		 xor	 eax, eax
  0002c	5b		 pop	 ebx
  0002d	5d		 pop	 ebp
  0002e	c2 04 00	 ret	 4
$LN4@SetQuest:

; 3651 : 	// ŔĚąĚ żĎ·áµČ ÄÉ˝şĆ®¶ó¸é ĽĽĆĂ ˝ÇĆĐ 
; 3652 : 	if( lpQuest == NULL && IsCompleteQuest( lpNewQuest->m_wId ) )

  00031	8b 45 08	 mov	 eax, DWORD PTR _lpQuest$1$[ebp]
$LN2@SetQuest:

; 3653 : 		return FALSE;
; 3654 : 	return __SetQuest( lpQuest, lpNewQuest );

  00034	53		 push	 ebx
  00035	50		 push	 eax
  00036	8b ce		 mov	 ecx, esi
  00038	e8 00 00 00 00	 call	 ?__SetQuest@CMover@@AAEHPAUtagQuest@@0@Z ; CMover::__SetQuest
  0003d	5f		 pop	 edi

; 3655 : }

  0003e	5e		 pop	 esi
  0003f	5b		 pop	 ebx
  00040	5d		 pop	 ebp
  00041	c2 04 00	 ret	 4
?SetQuest@CMover@@QAEHPAUtagQuest@@@Z ENDP		; CMover::SetQuest
_TEXT	ENDS
; Function compile flags: /Ogtp
; File C:\IAGOS\server\v18\Source\Source\_Common\MoverParam.cpp
;	COMDAT ?SetQuest@CMover@@QAEHHHPAUtagQuest@@@Z
_TEXT	SEGMENT
_newQuest$ = -12					; size = 12
_nQuestId$ = 8						; size = 4
_nState$ = 12						; size = 4
_lpReturnQuest$ = 16					; size = 4
?SetQuest@CMover@@QAEHHHPAUtagQuest@@@Z PROC		; CMover::SetQuest, COMDAT
; _this$ = ecx

; 3634 : {

  00000	55		 push	 ebp
  00001	8b ec		 mov	 ebp, esp
  00003	83 ec 0c	 sub	 esp, 12			; 0000000cH

; 3635 : 	QUEST newQuest;
; 3636 : 	ZeroMemory( &newQuest, sizeof( QUEST ) );
; 3637 : 	newQuest.m_wId = nQuestId;

  00006	8b 55 08	 mov	 edx, DWORD PTR _nQuestId$[ebp]
  00009	0f 57 c0	 xorps	 xmm0, xmm0

; 3638 : 	newQuest.m_nState = nState;

  0000c	8a 45 0c	 mov	 al, BYTE PTR _nState$[ebp]
  0000f	53		 push	 ebx
  00010	56		 push	 esi
  00011	57		 push	 edi
  00012	66 0f d6 45 f4	 movq	 QWORD PTR _newQuest$[ebp], xmm0
  00017	8b f1		 mov	 esi, ecx
  00019	0f b7 fa	 movzx	 edi, dx

; 3639 : 
; 3640 : 	LPQUEST lpQuest = FindQuest( nQuestId );

  0001c	52		 push	 edx
  0001d	c7 45 fc 00 00
	00 00		 mov	 DWORD PTR _newQuest$[ebp+8], 0
  00024	66 89 7d f8	 mov	 WORD PTR _newQuest$[ebp+4], di
  00028	88 45 f4	 mov	 BYTE PTR _newQuest$[ebp], al
  0002b	e8 00 00 00 00	 call	 ?FindQuest@CMover@@QAEPAUtagQuest@@H@Z ; CMover::FindQuest
  00030	8b d8		 mov	 ebx, eax

; 3641 : 	// ŔĚąĚ żĎ·áµČ ÄÉ˝şĆ®¶ó¸é ĽĽĆĂ ˝ÇĆĐ 
; 3642 : 	if( lpQuest == NULL && IsCompleteQuest( newQuest.m_wId ) )

  00032	85 db		 test	 ebx, ebx
  00034	75 17		 jne	 SHORT $LN2@SetQuest
  00036	57		 push	 edi
  00037	8b ce		 mov	 ecx, esi
  00039	e8 00 00 00 00	 call	 ?IsCompleteQuest@CMover@@QAEHH@Z ; CMover::IsCompleteQuest
  0003e	85 c0		 test	 eax, eax
  00040	74 0b		 je	 SHORT $LN2@SetQuest

; 3647 : }

  00042	5f		 pop	 edi
  00043	5e		 pop	 esi
  00044	33 c0		 xor	 eax, eax
  00046	5b		 pop	 ebx
  00047	8b e5		 mov	 esp, ebp
  00049	5d		 pop	 ebp
  0004a	c2 0c 00	 ret	 12			; 0000000cH
$LN2@SetQuest:

; 3643 : 		return FALSE;
; 3644 : 	if( lpReturnQuest )

  0004d	8b 45 10	 mov	 eax, DWORD PTR _lpReturnQuest$[ebp]
  00050	85 c0		 test	 eax, eax
  00052	74 10		 je	 SHORT $LN3@SetQuest

; 3645 : 		memcpy( lpReturnQuest, &newQuest, sizeof( QUEST ) );

  00054	f3 0f 7e 45 f4	 movq	 xmm0, QWORD PTR _newQuest$[ebp]
  00059	66 0f d6 00	 movq	 QWORD PTR [eax], xmm0
  0005d	c7 40 08 00 00
	00 00		 mov	 DWORD PTR [eax+8], 0
$LN3@SetQuest:

; 3646 : 	return __SetQuest( lpQuest, &newQuest );

  00064	8d 45 f4	 lea	 eax, DWORD PTR _newQuest$[ebp]
  00067	8b ce		 mov	 ecx, esi
  00069	50		 push	 eax
  0006a	53		 push	 ebx
  0006b	e8 00 00 00 00	 call	 ?__SetQuest@CMover@@AAEHPAUtagQuest@@0@Z ; CMover::__SetQuest
  00070	5f		 pop	 edi

; 3647 : }

  00071	5e		 pop	 esi
  00072	5b		 pop	 ebx
  00073	8b e5		 mov	 esp, ebp
  00075	5d		 pop	 ebp
  00076	c2 0c 00	 ret	 12			; 0000000cH
?SetQuest@CMover@@QAEHHHPAUtagQuest@@@Z ENDP		; CMover::SetQuest
_TEXT	ENDS
; Function compile flags: /Ogtp
; File C:\IAGOS\server\v18\Source\Source\_Common\MoverParam.cpp
;	COMDAT ?MakeCompleteQuest@CMover@@QAEHHPAUtagQuest@@@Z
_TEXT	SEGMENT
_nQuestId$ = 8						; size = 4
_lpQuest$ = 12						; size = 4
?MakeCompleteQuest@CMover@@QAEHHPAUtagQuest@@@Z PROC	; CMover::MakeCompleteQuest, COMDAT
; _this$ = ecx

; 3547 : {

  00000	55		 push	 ebp
  00001	8b ec		 mov	 ebp, esp
  00003	56		 push	 esi

; 3548 : 	for( int i = 0; i < m_nCompleteQuestSize; i++ )

  00004	0f b6 b1 9c 0d
	00 00		 movzx	 esi, BYTE PTR [ecx+3484]
  0000b	33 d2		 xor	 edx, edx
  0000d	57		 push	 edi
  0000e	85 f6		 test	 esi, esi
  00010	74 1d		 je	 SHORT $LN3@MakeComple

; 3549 : 	{
; 3550 : 		if( m_aCompleteQuest[ i ] == nQuestId )

  00012	8b 89 a0 0d 00
	00		 mov	 ecx, DWORD PTR [ecx+3488]
  00018	8b 7d 08	 mov	 edi, DWORD PTR _nQuestId$[ebp]
  0001b	0f 1f 44 00 00	 npad	 5
$LL4@MakeComple:
  00020	0f b7 01	 movzx	 eax, WORD PTR [ecx]
  00023	3b c7		 cmp	 eax, edi
  00025	74 10		 je	 SHORT $LN8@MakeComple

; 3548 : 	for( int i = 0; i < m_nCompleteQuestSize; i++ )

  00027	42		 inc	 edx
  00028	83 c1 02	 add	 ecx, 2
  0002b	3b d6		 cmp	 edx, esi
  0002d	7c f1		 jl	 SHORT $LL4@MakeComple
$LN3@MakeComple:
  0002f	5f		 pop	 edi

; 3556 : 		}
; 3557 : 	}
; 3558 : 	return FALSE;

  00030	33 c0		 xor	 eax, eax

; 3559 : }

  00032	5e		 pop	 esi
  00033	5d		 pop	 ebp
  00034	c2 08 00	 ret	 8
$LN8@MakeComple:

; 3551 : 		{
; 3552 : 			ZeroMemory( lpQuest, sizeof( QUEST ) );

  00037	8b 45 0c	 mov	 eax, DWORD PTR _lpQuest$[ebp]
  0003a	0f 57 c0	 xorps	 xmm0, xmm0
  0003d	66 0f d6 00	 movq	 QWORD PTR [eax], xmm0
  00041	c7 40 08 00 00
	00 00		 mov	 DWORD PTR [eax+8], 0

; 3553 : 			lpQuest->m_wId = nQuestId;

  00048	66 89 78 04	 mov	 WORD PTR [eax+4], di
  0004c	5f		 pop	 edi

; 3554 : 			lpQuest->m_nState = QS_END;

  0004d	c6 00 0e	 mov	 BYTE PTR [eax], 14	; 0000000eH

; 3555 : 			return TRUE;

  00050	b8 01 00 00 00	 mov	 eax, 1

; 3559 : }

  00055	5e		 pop	 esi
  00056	5d		 pop	 ebp
  00057	c2 08 00	 ret	 8
?MakeCompleteQuest@CMover@@QAEHHPAUtagQuest@@@Z ENDP	; CMover::MakeCompleteQuest
_TEXT	ENDS
; Function compile flags: /Ogtp
; File C:\IAGOS\server\v18\Source\Source\_Common\MoverParam.cpp
;	COMDAT ?IsCompleteQuest@CMover@@QAEHH@Z
_TEXT	SEGMENT
_nQuestId$ = 8						; size = 4
?IsCompleteQuest@CMover@@QAEHH@Z PROC			; CMover::IsCompleteQuest, COMDAT
; _this$ = ecx

; 3535 : {

  00000	55		 push	 ebp
  00001	8b ec		 mov	 ebp, esp
  00003	56		 push	 esi

; 3536 : 	for( int i = 0; i < m_nCompleteQuestSize; i++ )

  00004	0f b6 b1 9c 0d
	00 00		 movzx	 esi, BYTE PTR [ecx+3484]
  0000b	33 d2		 xor	 edx, edx
  0000d	57		 push	 edi
  0000e	85 f6		 test	 esi, esi
  00010	74 1d		 je	 SHORT $LN3@IsComplete

; 3537 : 	{
; 3538 : 		if( m_aCompleteQuest[ i ] == nQuestId )

  00012	8b 89 a0 0d 00
	00		 mov	 ecx, DWORD PTR [ecx+3488]
  00018	8b 7d 08	 mov	 edi, DWORD PTR _nQuestId$[ebp]
  0001b	0f 1f 44 00 00	 npad	 5
$LL4@IsComplete:
  00020	0f b7 01	 movzx	 eax, WORD PTR [ecx]
  00023	3b c7		 cmp	 eax, edi
  00025	74 10		 je	 SHORT $LN8@IsComplete

; 3536 : 	for( int i = 0; i < m_nCompleteQuestSize; i++ )

  00027	42		 inc	 edx
  00028	83 c1 02	 add	 ecx, 2
  0002b	3b d6		 cmp	 edx, esi
  0002d	7c f1		 jl	 SHORT $LL4@IsComplete
$LN3@IsComplete:
  0002f	5f		 pop	 edi

; 3541 : 		}
; 3542 : 	}
; 3543 : 	return FALSE;

  00030	33 c0		 xor	 eax, eax

; 3544 : }

  00032	5e		 pop	 esi
  00033	5d		 pop	 ebp
  00034	c2 04 00	 ret	 4
$LN8@IsComplete:
  00037	5f		 pop	 edi

; 3539 : 		{
; 3540 : 			return TRUE;

  00038	b8 01 00 00 00	 mov	 eax, 1

; 3544 : }

  0003d	5e		 pop	 esi
  0003e	5d		 pop	 ebp
  0003f	c2 04 00	 ret	 4
?IsCompleteQuest@CMover@@QAEHH@Z ENDP			; CMover::IsCompleteQuest
_TEXT	ENDS
; Function compile flags: /Ogtp
; File C:\IAGOS\server\v18\Source\Source\_Common\MoverParam.cpp
;	COMDAT ?RemoveQuest@CMover@@QAEHH@Z
_TEXT	SEGMENT
_nQuestId$ = 8						; size = 4
?RemoveQuest@CMover@@QAEHH@Z PROC			; CMover::RemoveQuest, COMDAT
; _this$ = ecx

; 3587 : {

  00000	55		 push	 ebp
  00001	8b ec		 mov	 ebp, esp
  00003	53		 push	 ebx
  00004	56		 push	 esi
  00005	8b f1		 mov	 esi, ecx

; 3588 : 	QuestProp* pProp = prj.m_aPropQuest.GetAt( nQuestId );
; 3589 : 
; 3590 : 	for( int i = 0; i < m_nQuestSize; i++ )

  00007	33 d2		 xor	 edx, edx
  00009	57		 push	 edi
  0000a	8a 9e 96 0d 00
	00		 mov	 bl, BYTE PTR [esi+3478]
  00010	84 db		 test	 bl, bl
  00012	74 5f		 je	 SHORT $LN3@RemoveQues

; 3591 : 	{
; 3592 : 		if( m_aQuest[ i ].m_wId == nQuestId )

  00014	8b 8e 98 0d 00
	00		 mov	 ecx, DWORD PTR [esi+3480]
  0001a	83 c1 04	 add	 ecx, 4
  0001d	0f 1f 00	 npad	 3
$LL4@RemoveQues:
  00020	0f b7 01	 movzx	 eax, WORD PTR [ecx]
  00023	0f b6 fb	 movzx	 edi, bl
  00026	3b 45 08	 cmp	 eax, DWORD PTR _nQuestId$[ebp]
  00029	74 0a		 je	 SHORT $LN33@RemoveQues

; 3588 : 	QuestProp* pProp = prj.m_aPropQuest.GetAt( nQuestId );
; 3589 : 
; 3590 : 	for( int i = 0; i < m_nQuestSize; i++ )

  0002b	42		 inc	 edx
  0002c	83 c1 0c	 add	 ecx, 12			; 0000000cH
  0002f	3b d7		 cmp	 edx, edi
  00031	7c ed		 jl	 SHORT $LL4@RemoveQues

; 3616 : 	{
; 3617 : 		if( m_aCheckedQuest[ i ] == nQuestId )

  00033	eb 3e		 jmp	 SHORT $LN3@RemoveQues
$LN33@RemoveQues:

; 3593 : 		{
; 3594 : 			for( ; i < m_nQuestSize - 1; i++ )

  00035	8d 47 ff	 lea	 eax, DWORD PTR [edi-1]
  00038	3b d0		 cmp	 edx, eax
  0003a	7d 2f		 jge	 SHORT $LN6@RemoveQues
  0003c	8d 3c 52	 lea	 edi, DWORD PTR [edx+edx*2]
  0003f	c1 e7 02	 shl	 edi, 2
$LL7@RemoveQues:

; 3595 : 			{
; 3596 : 				m_aQuest[ i ] = m_aQuest[ i + 1 ];

  00042	8b 8e 98 0d 00
	00		 mov	 ecx, DWORD PTR [esi+3480]
  00048	42		 inc	 edx
  00049	03 cf		 add	 ecx, edi
  0004b	83 c7 0c	 add	 edi, 12			; 0000000cH
  0004e	f3 0f 7e 41 0c	 movq	 xmm0, QWORD PTR [ecx+12]
  00053	66 0f d6 01	 movq	 QWORD PTR [ecx], xmm0
  00057	8b 41 14	 mov	 eax, DWORD PTR [ecx+20]
  0005a	89 41 08	 mov	 DWORD PTR [ecx+8], eax
  0005d	8a 9e 96 0d 00
	00		 mov	 bl, BYTE PTR [esi+3478]
  00063	0f b6 c3	 movzx	 eax, bl
  00066	48		 dec	 eax
  00067	3b d0		 cmp	 edx, eax
  00069	7c d7		 jl	 SHORT $LL7@RemoveQues
$LN6@RemoveQues:

; 3597 : 			}
; 3598 : 			m_nQuestSize--;

  0006b	fe cb		 dec	 bl
  0006d	88 9e 96 0d 00
	00		 mov	 BYTE PTR [esi+3478], bl
$LN3@RemoveQues:

; 3599 : 			break;
; 3600 : 		}
; 3601 : 	}
; 3602 : 	for( int i = 0; i < m_nCompleteQuestSize; i++ )

  00073	8a 8e 9c 0d 00
	00		 mov	 cl, BYTE PTR [esi+3484]
  00079	33 d2		 xor	 edx, edx
  0007b	84 c9		 test	 cl, cl
  0007d	74 49		 je	 SHORT $LN9@RemoveQues

; 3603 : 	{
; 3604 : 		if( m_aCompleteQuest[ i ] == nQuestId )

  0007f	8b be a0 0d 00
	00		 mov	 edi, DWORD PTR [esi+3488]
$LL10@RemoveQues:
  00085	0f b7 07	 movzx	 eax, WORD PTR [edi]
  00088	0f b6 d9	 movzx	 ebx, cl
  0008b	3b 45 08	 cmp	 eax, DWORD PTR _nQuestId$[ebp]
  0008e	74 0a		 je	 SHORT $LN34@RemoveQues

; 3599 : 			break;
; 3600 : 		}
; 3601 : 	}
; 3602 : 	for( int i = 0; i < m_nCompleteQuestSize; i++ )

  00090	42		 inc	 edx
  00091	83 c7 02	 add	 edi, 2
  00094	3b d3		 cmp	 edx, ebx
  00096	7c ed		 jl	 SHORT $LL10@RemoveQues

; 3616 : 	{
; 3617 : 		if( m_aCheckedQuest[ i ] == nQuestId )

  00098	eb 2e		 jmp	 SHORT $LN9@RemoveQues
$LN34@RemoveQues:

; 3605 : 		{
; 3606 : 			for( ; i < m_nCompleteQuestSize - 1; i++ )

  0009a	8d 43 ff	 lea	 eax, DWORD PTR [ebx-1]
  0009d	3b d0		 cmp	 edx, eax
  0009f	7d 1f		 jge	 SHORT $LN12@RemoveQues
$LL13@RemoveQues:

; 3607 : 			{
; 3608 : 				m_aCompleteQuest[ i ] = m_aCompleteQuest[ i + 1 ];

  000a1	8b 86 a0 0d 00
	00		 mov	 eax, DWORD PTR [esi+3488]
  000a7	8d 0c 50	 lea	 ecx, DWORD PTR [eax+edx*2]
  000aa	42		 inc	 edx
  000ab	66 8b 41 02	 mov	 ax, WORD PTR [ecx+2]
  000af	66 89 01	 mov	 WORD PTR [ecx], ax
  000b2	8a 8e 9c 0d 00
	00		 mov	 cl, BYTE PTR [esi+3484]
  000b8	0f b6 c1	 movzx	 eax, cl
  000bb	48		 dec	 eax
  000bc	3b d0		 cmp	 edx, eax
  000be	7c e1		 jl	 SHORT $LL13@RemoveQues
$LN12@RemoveQues:

; 3609 : 			}
; 3610 : 			m_nCompleteQuestSize--;

  000c0	fe c9		 dec	 cl
  000c2	88 8e 9c 0d 00
	00		 mov	 BYTE PTR [esi+3484], cl
$LN9@RemoveQues:

; 3611 : 			break;
; 3612 : 		}
; 3613 : 	}
; 3614 : #if __VER >= 15 // __IMPROVE_QUEST_INTERFACE
; 3615 : 	for( int i = 0; i < m_nCheckedQuestSize; ++i )

  000c8	8a 8e a4 0d 00
	00		 mov	 cl, BYTE PTR [esi+3492]
  000ce	33 d2		 xor	 edx, edx
  000d0	84 c9		 test	 cl, cl
  000d2	74 68		 je	 SHORT $LN54@RemoveQues

; 3616 : 	{
; 3617 : 		if( m_aCheckedQuest[ i ] == nQuestId )

  000d4	8b be a8 0d 00
	00		 mov	 edi, DWORD PTR [esi+3496]
  000da	66 0f 1f 44 00
	00		 npad	 6
$LL16@RemoveQues:
  000e0	0f b7 07	 movzx	 eax, WORD PTR [edi]
  000e3	0f b6 d9	 movzx	 ebx, cl
  000e6	3b 45 08	 cmp	 eax, DWORD PTR _nQuestId$[ebp]
  000e9	74 14		 je	 SHORT $LN35@RemoveQues

; 3611 : 			break;
; 3612 : 		}
; 3613 : 	}
; 3614 : #if __VER >= 15 // __IMPROVE_QUEST_INTERFACE
; 3615 : 	for( int i = 0; i < m_nCheckedQuestSize; ++i )

  000eb	42		 inc	 edx
  000ec	83 c7 02	 add	 edi, 2
  000ef	3b d3		 cmp	 edx, ebx
  000f1	7c ed		 jl	 SHORT $LL16@RemoveQues

; 3622 : 			break;
; 3623 : 		}
; 3624 : 	}
; 3625 : #endif // __IMPROVE_QUEST_INTERFACE
; 3626 : 
; 3627 : #ifdef __CLIENT
; 3628 : 	PlayMusic( BGM_EV_END );
; 3629 : #endif
; 3630 : 	return TRUE;
; 3631 : }

  000f3	5f		 pop	 edi
  000f4	5e		 pop	 esi
  000f5	b8 01 00 00 00	 mov	 eax, 1
  000fa	5b		 pop	 ebx
  000fb	5d		 pop	 ebp
  000fc	c2 04 00	 ret	 4
$LN35@RemoveQues:

; 3618 : 		{
; 3619 : 			for( ; i < m_nCheckedQuestSize -1; ++i )

  000ff	8d 43 ff	 lea	 eax, DWORD PTR [ebx-1]
  00102	3b d0		 cmp	 edx, eax
  00104	7d 1f		 jge	 SHORT $LN18@RemoveQues
$LL19@RemoveQues:

; 3620 : 				m_aCheckedQuest[ i ] = m_aCheckedQuest[ i + 1 ];

  00106	8b 86 a8 0d 00
	00		 mov	 eax, DWORD PTR [esi+3496]
  0010c	8d 0c 50	 lea	 ecx, DWORD PTR [eax+edx*2]
  0010f	42		 inc	 edx
  00110	66 8b 41 02	 mov	 ax, WORD PTR [ecx+2]
  00114	66 89 01	 mov	 WORD PTR [ecx], ax
  00117	8a 8e a4 0d 00
	00		 mov	 cl, BYTE PTR [esi+3492]
  0011d	0f b6 c1	 movzx	 eax, cl
  00120	48		 dec	 eax
  00121	3b d0		 cmp	 edx, eax
  00123	7c e1		 jl	 SHORT $LL19@RemoveQues
$LN18@RemoveQues:

; 3621 : 			m_aCheckedQuest[ --m_nCheckedQuestSize ] = 0;

  00125	8b 86 a8 0d 00
	00		 mov	 eax, DWORD PTR [esi+3496]
  0012b	fe c9		 dec	 cl
  0012d	88 8e a4 0d 00
	00		 mov	 BYTE PTR [esi+3492], cl
  00133	33 d2		 xor	 edx, edx
  00135	0f b6 c9	 movzx	 ecx, cl
  00138	66 89 14 48	 mov	 WORD PTR [eax+ecx*2], dx
$LN54@RemoveQues:

; 3622 : 			break;
; 3623 : 		}
; 3624 : 	}
; 3625 : #endif // __IMPROVE_QUEST_INTERFACE
; 3626 : 
; 3627 : #ifdef __CLIENT
; 3628 : 	PlayMusic( BGM_EV_END );
; 3629 : #endif
; 3630 : 	return TRUE;
; 3631 : }

  0013c	5f		 pop	 edi
  0013d	5e		 pop	 esi
  0013e	b8 01 00 00 00	 mov	 eax, 1
  00143	5b		 pop	 ebx
  00144	5d		 pop	 ebp
  00145	c2 04 00	 ret	 4
?RemoveQuest@CMover@@QAEHH@Z ENDP			; CMover::RemoveQuest
_TEXT	ENDS
; Function compile flags: /Ogtp
; File C:\IAGOS\server\v18\Source\Source\_Common\MoverParam.cpp
;	COMDAT ?GetQuest@CMover@@QAEPAUtagQuest@@H@Z
_TEXT	SEGMENT
_nQuestId$ = 8						; size = 4
?GetQuest@CMover@@QAEPAUtagQuest@@H@Z PROC		; CMover::GetQuest, COMDAT
; _this$ = ecx

; 3739 : {

  00000	55		 push	 ebp
  00001	8b ec		 mov	 ebp, esp

; 3741 : }

  00003	5d		 pop	 ebp

; 3740 : 	return FindQuest( nQuestId );

  00004	e9 00 00 00 00	 jmp	 ?FindQuest@CMover@@QAEPAUtagQuest@@H@Z ; CMover::FindQuest
?GetQuest@CMover@@QAEPAUtagQuest@@H@Z ENDP		; CMover::GetQuest
_TEXT	ENDS
; Function compile flags: /Ogtp
; File C:\IAGOS\server\v18\Source\Source\_Common\MoverParam.cpp
;	COMDAT ?FindQuest@CMover@@QAEPAUtagQuest@@H@Z
_TEXT	SEGMENT
_nQuestId$ = 8						; size = 4
?FindQuest@CMover@@QAEPAUtagQuest@@H@Z PROC		; CMover::FindQuest, COMDAT
; _this$ = ecx

; 3575 : {

  00000	55		 push	 ebp
  00001	8b ec		 mov	 ebp, esp
  00003	56		 push	 esi

; 3576 : 	for( int i = 0; i < m_nQuestSize; i++ )

  00004	0f b6 b1 96 0d
	00 00		 movzx	 esi, BYTE PTR [ecx+3478]
  0000b	33 d2		 xor	 edx, edx
  0000d	57		 push	 edi
  0000e	85 f6		 test	 esi, esi
  00010	74 1e		 je	 SHORT $LN3@FindQuest

; 3577 : 	{
; 3578 : 		if( m_aQuest[ i ].m_wId == nQuestId )

  00012	8b 89 98 0d 00
	00		 mov	 ecx, DWORD PTR [ecx+3480]
  00018	8b 7d 08	 mov	 edi, DWORD PTR _nQuestId$[ebp]
  0001b	0f 1f 44 00 00	 npad	 5
$LL4@FindQuest:
  00020	0f b7 41 04	 movzx	 eax, WORD PTR [ecx+4]
  00024	3b c7		 cmp	 eax, edi
  00026	74 10		 je	 SHORT $LN8@FindQuest

; 3576 : 	for( int i = 0; i < m_nQuestSize; i++ )

  00028	42		 inc	 edx
  00029	83 c1 0c	 add	 ecx, 12			; 0000000cH
  0002c	3b d6		 cmp	 edx, esi
  0002e	7c f0		 jl	 SHORT $LL4@FindQuest
$LN3@FindQuest:
  00030	5f		 pop	 edi

; 3581 : 		}
; 3582 : 	}
; 3583 : 
; 3584 : 	return NULL;

  00031	33 c0		 xor	 eax, eax

; 3585 : }

  00033	5e		 pop	 esi
  00034	5d		 pop	 ebp
  00035	c2 04 00	 ret	 4
$LN8@FindQuest:
  00038	5f		 pop	 edi

; 3579 : 		{
; 3580 : 			return &m_aQuest[ i ];

  00039	8b c1		 mov	 eax, ecx

; 3585 : }

  0003b	5e		 pop	 esi
  0003c	5d		 pop	 ebp
  0003d	c2 04 00	 ret	 4
?FindQuest@CMover@@QAEPAUtagQuest@@H@Z ENDP		; CMover::FindQuest
_TEXT	ENDS
; Function compile flags: /Ogtp
; File C:\IAGOS\server\v18\Source\Source\_Common\MoverParam.cpp
; File C:\IAGOS\server\v18\Source\Source\_Common\Item.h
; File C:\IAGOS\server\v18\Source\Source\_Common\Project.h
; File C:\IAGOS\server\v18\Source\Source\_Common\data.h
; File C:\IAGOS\server\v18\Source\Source\_Common\MoverParam.cpp
; File C:\IAGOS\server\v18\Source\Source\_Common\Project.h
; File C:\IAGOS\server\v18\Source\Source\_Common\MoverParam.cpp
;	COMDAT ?SumEquipDefenseAbility@CMover@@QAEHPAJ0@Z
_TEXT	SEGMENT
tv274 = -32						; size = 16
_nMin$2$ = -12						; size = 4
_nOptionVal$1$ = -12					; size = 4
_f$1 = -8						; size = 4
_pItemElem$1$ = -8					; size = 4
_this$1$ = -4						; size = 4
_pnMin$ = 8						; size = 4
_pnMax$ = 12						; size = 4
?SumEquipDefenseAbility@CMover@@QAEHPAJ0@Z PROC		; CMover::SumEquipDefenseAbility, COMDAT
; _this$ = ecx

; 2052 : {

  00000	53		 push	 ebx
  00001	8b dc		 mov	 ebx, esp
  00003	83 ec 08	 sub	 esp, 8
  00006	83 e4 f0	 and	 esp, -16		; fffffff0H
  00009	83 c4 04	 add	 esp, 4
  0000c	55		 push	 ebp
  0000d	8b 6b 04	 mov	 ebp, DWORD PTR [ebx+4]
  00010	89 6c 24 04	 mov	 DWORD PTR [esp+4], ebp
  00014	8b ec		 mov	 ebp, esp
  00016	83 ec 28	 sub	 esp, 40			; 00000028H
  00019	8b c1		 mov	 eax, ecx
  0001b	56		 push	 esi
  0001c	57		 push	 edi
  0001d	89 45 fc	 mov	 DWORD PTR _this$1$[ebp], eax

; 2053 : 	if( IsPlayer() )

  00020	83 b8 30 02 00
	00 00		 cmp	 DWORD PTR [eax+560], 0
  00027	0f 84 a7 01 00
	00		 je	 $LN5@SumEquipDe

; 2054 : 	{
; 2055 : 		int	nMin = 0, nMax = 0;

  0002d	0f 57 c0	 xorps	 xmm0, xmm0
  00030	33 f6		 xor	 esi, esi
  00032	0f 29 45 e0	 movaps	 XMMWORD PTR tv274[ebp], xmm0

; 2056 : 		CItemElem* pItemElem;
; 2057 : 		ItemProp *pItemProp;
; 2058 : 
; 2059 : 		for( int i = 0; i < MAX_HUMAN_PARTS; i++ )

  00036	eb 03		 jmp	 SHORT $LN4@SumEquipDe
$LL38@SumEquipDe:
  00038	8b 45 fc	 mov	 eax, DWORD PTR _this$1$[ebp]
$LN4@SumEquipDe:

; 2060 : 		{
; 2061 : 			pItemElem = GetEquipItem( i ); //m_Inventory.GetAtId( m_adwEquipment[ i ] );

  0003b	56		 push	 esi
  0003c	8b c8		 mov	 ecx, eax
  0003e	e8 00 00 00 00	 call	 ?GetEquipItem@CMover@@QAEPAVCItemElem@@H@Z ; CMover::GetEquipItem
  00043	89 45 f8	 mov	 DWORD PTR _pItemElem$1$[ebp], eax

; 2062 : 			//if(pItem && !pItem->IsBreakableItem() && (pItem->m_nHitPoint == 1 || pItem->m_nHitPoint == 0))
; 2063 : 			//	continue; IK2_ARMOR
; 2064 : 			// IK_ARMOR¸¦ ŔĚÁ¦ ĂĽĹ©ÇĎÁö ľĘŔ¸ąÇ·Î ¸Ó¸®łŞ ĆČÂîµîżˇ µđĆć˝ş°ŞŔĚ µéľî°ˇÁö ľĘµµ·Ď ÁÖŔÇÇŃ´Ů.
; 2065 : 			// ą«±âŔÇ ľîşô¸®ĆĽ´Â µđĆć˝şżˇ Ć÷ÇÔµÇÁö ľĘ´Â´Ů
; 2066 : 			//if( pItemElem && pItemElem->GetProp()->dwItemKind2 < IK2_WEAPON_DIRECT && pItemElem->GetProp()->dwItemKind2 > IK2_WEAPON_GUN )  //&& ( pItemElem->m_nHitPoint > 1 || pItemElem->m_nHitPoint == -1) )
; 2067 : 			if( pItemElem )

  00046	85 c0		 test	 eax, eax
  00048	0f 84 29 01 00
	00		 je	 $LN37@SumEquipDe
; File C:\IAGOS\server\v18\Source\Source\_Common\Item.h

; 230  : 	ItemProp*	GetProp()	{	return prj.GetItemProp( m_dwItemId );	}

  0004e	8b 48 0c	 mov	 ecx, DWORD PTR [eax+12]
; File C:\IAGOS\server\v18\Source\Source\_Common\Project.h

; 1389 : 	VERIFY_RANGE_ASSERT( nIndex, 0, m_aPropItem.GetSize(), "GetItemProp range_error", NULL );

  00051	8b 15 40 02 00
	00		 mov	 edx, DWORD PTR ?prj@@3VCProject@@A+576
  00057	85 c9		 test	 ecx, ecx
  00059	0f 88 f4 00 00
	00		 js	 $LN23@SumEquipDe
  0005f	3b ca		 cmp	 ecx, edx
  00061	0f 8d ec 00 00
	00		 jge	 $LN23@SumEquipDe
; File C:\IAGOS\server\v18\Source\Source\_Common\data.h

; 270  : 	if( dwIndex >= (DWORD)m_nMaxIndex )

  00067	72 04		 jb	 SHORT $LN28@SumEquipDe

; 271  : 		return NULL;

  00069	33 ff		 xor	 edi, edi
  0006b	eb 0b		 jmp	 SHORT $LN27@SumEquipDe
$LN28@SumEquipDe:

; 272  : 	return (T*) m_apOffset[ dwIndex ];

  0006d	a1 30 02 00 00	 mov	 eax, DWORD PTR ?prj@@3VCProject@@A+560
  00072	8b 3c 88	 mov	 edi, DWORD PTR [eax+ecx*4]
  00075	8b 45 f8	 mov	 eax, DWORD PTR _pItemElem$1$[ebp]
$LN27@SumEquipDe:
; File C:\IAGOS\server\v18\Source\Source\_Common\MoverParam.cpp

; 2071 : 				if( pItemProp == NULL )

  00078	85 ff		 test	 edi, edi
  0007a	0f 84 e9 00 00
	00		 je	 $LN35@SumEquipDe

; 2074 : 				}
; 2075 : 
; 2076 : 				if( pItemProp )
; 2077 : 				{
; 2078 : 					if( pItemProp->dwItemKind2 == IK2_ARMOR || pItemProp->dwItemKind2 == IK2_ARMORETC )

  00080	8b 4f 74	 mov	 ecx, DWORD PTR [edi+116]
  00083	83 f9 07	 cmp	 ecx, 7
  00086	74 09		 je	 SHORT $LN11@SumEquipDe
  00088	83 f9 08	 cmp	 ecx, 8
  0008b	0f 85 e6 00 00
	00		 jne	 $LN37@SumEquipDe
$LN11@SumEquipDe:

; 2079 : 					{
; 2080 : 						int nOption = pItemElem->GetAbilityOption();

  00091	8b 48 64	 mov	 ecx, DWORD PTR [eax+100]

; 2081 : 						int nOptionVal = 0;

  00094	33 d2		 xor	 edx, edx
  00096	89 55 f4	 mov	 DWORD PTR _nOptionVal$1$[ebp], edx

; 2082 : 						if( nOption > 0 ) 

  00099	85 c9		 test	 ecx, ecx
  0009b	7e 21		 jle	 SHORT $LN12@SumEquipDe

; 2083 : 							nOptionVal = (int)( pow( (float)( nOption ), 1.5f ) );

  0009d	f2 0f 10 0d 00
	00 00 00	 movsd	 xmm1, QWORD PTR __real@3ff8000000000000
  000a5	66 0f 6e c1	 movd	 xmm0, ecx
  000a9	0f 5b c0	 cvtdq2ps xmm0, xmm0
  000ac	0f 5a c0	 cvtps2pd xmm0, xmm0
  000af	e8 00 00 00 00	 call	 __libm_sse2_pow_precise
  000b4	8b 45 f8	 mov	 eax, DWORD PTR _pItemElem$1$[ebp]
  000b7	f2 0f 2c d0	 cvttsd2si edx, xmm0
  000bb	89 55 f4	 mov	 DWORD PTR _nOptionVal$1$[ebp], edx
$LN12@SumEquipDe:

; 2084 : 							
; 2085 : 				#if __VER < 11 // __REMOVE_ENDURANCE
; 2086 : 						if( pItemElem->m_nRepairNumber >= 100 )
; 2087 : 							nOptionVal	+= prj.GetExpUpItem( pItemProp->dwItemKind3, 1 );
; 2088 : 				#endif // __REMOVE_ENDURANCE						
; 2089 : 						float f		= GetItemMultiplier( pItemElem );

  000be	8b 4d fc	 mov	 ecx, DWORD PTR _this$1$[ebp]
  000c1	50		 push	 eax
  000c2	e8 00 00 00 00	 call	 ?GetItemMultiplier@CMover@@QAEMPAVCItemElem@@@Z ; CMover::GetItemMultiplier

; 2090 : 						nMin	+= (int)( pItemProp->dwAbilityMin * f ) + nOptionVal;
; 2091 : 						nMax	+= (int)( pItemProp->dwAbilityMax * f ) + nOptionVal;

  000c7	8b 87 e8 00 00
	00		 mov	 eax, DWORD PTR [edi+232]
  000cd	0f 57 d2	 xorps	 xmm2, xmm2
  000d0	d9 5d f8	 fstp	 DWORD PTR _f$1[ebp]
  000d3	66 0f 6e c0	 movd	 xmm0, eax
  000d7	f3 0f e6 c0	 cvtdq2pd xmm0, xmm0
  000db	c1 e8 1f	 shr	 eax, 31			; 0000001fH
  000de	f2 0f 58 04 c5
	00 00 00 00	 addsd	 xmm0, QWORD PTR __xmm@41f00000000000000000000000000000[eax*8]
  000e7	8b 87 e4 00 00
	00		 mov	 eax, DWORD PTR [edi+228]
  000ed	66 0f 5a c8	 cvtpd2ps xmm1, xmm0
  000f1	66 0f 6e c0	 movd	 xmm0, eax
  000f5	f3 0f e6 c0	 cvtdq2pd xmm0, xmm0
  000f9	c1 e8 1f	 shr	 eax, 31			; 0000001fH
  000fc	f2 0f 58 04 c5
	00 00 00 00	 addsd	 xmm0, QWORD PTR __xmm@41f00000000000000000000000000000[eax*8]
  00105	33 c0		 xor	 eax, eax
  00107	33 c9		 xor	 ecx, ecx
  00109	66 0f 5a e0	 cvtpd2ps xmm4, xmm0
  0010d	f3 0f 10 45 f8	 movss	 xmm0, DWORD PTR _f$1[ebp]
  00112	0f 14 e1	 unpcklps xmm4, xmm1
  00115	0f 28 d0	 movaps	 xmm2, xmm0
  00118	0f 14 c2	 unpcklps xmm0, xmm2
  0011b	0f 59 e0	 mulps	 xmm4, xmm0
  0011e	66 0f 6e d8	 movd	 xmm3, eax
  00122	8b 45 f4	 mov	 eax, DWORD PTR _nOptionVal$1$[ebp]
  00125	66 0f 6e c1	 movd	 xmm0, ecx
  00129	f3 0f 5b e4	 cvttps2dq xmm4, xmm4
  0012d	66 0f 6e c8	 movd	 xmm1, eax
  00131	66 0f 6e d0	 movd	 xmm2, eax
  00135	66 0f 62 d0	 punpckldq xmm2, xmm0
  00139	66 0f 62 cb	 punpckldq xmm1, xmm3
  0013d	66 0f 62 d1	 punpckldq xmm2, xmm1
  00141	66 0f fe e2	 paddd	 xmm4, xmm2
  00145	66 0f fe 65 e0	 paddd	 xmm4, XMMWORD PTR tv274[ebp]
  0014a	0f 28 c4	 movaps	 xmm0, xmm4
  0014d	0f 29 45 e0	 movaps	 XMMWORD PTR tv274[ebp], xmm0
  00151	eb 28		 jmp	 SHORT $LN2@SumEquipDe
$LN23@SumEquipDe:
; File C:\IAGOS\server\v18\Source\Source\_Common\Project.h

; 579  : 	LPCTSTR szErr = Error( _T( "%s min:%d, max:%d, index:%d" ), szMsg, nMin, nMax, nIndex ); 

  00153	51		 push	 ecx
  00154	52		 push	 edx
  00155	6a 00		 push	 0
  00157	68 00 00 00 00	 push	 OFFSET ??_C@_0BI@BEIFNGEL@GetItemProp?5range_error@
  0015c	68 00 00 00 00	 push	 OFFSET ??_C@_0BM@HMFGHCP@?$CFs?5min?3?$CFd?0?5max?3?$CFd?0?5index?3?$CFd@
  00161	e8 00 00 00 00	 call	 ?Error@@YAPBDPBDZZ	; Error
  00166	83 c4 14	 add	 esp, 20			; 00000014H
$LN35@SumEquipDe:
; File C:\IAGOS\server\v18\Source\Source\_Common\MoverParam.cpp

; 2073 : 					Error( "Parts Not Property = %d", i );

  00169	56		 push	 esi
  0016a	68 00 00 00 00	 push	 OFFSET ??_C@_0BI@JFCDNFPO@Parts?5Not?5Property?5?$DN?5?$CFd@
  0016f	e8 00 00 00 00	 call	 ?Error@@YAPBDPBDZZ	; Error
  00174	83 c4 08	 add	 esp, 8
$LN37@SumEquipDe:

; 2056 : 		CItemElem* pItemElem;
; 2057 : 		ItemProp *pItemProp;
; 2058 : 
; 2059 : 		for( int i = 0; i < MAX_HUMAN_PARTS; i++ )

  00177	0f 28 45 e0	 movaps	 xmm0, XMMWORD PTR tv274[ebp]
$LN2@SumEquipDe:
  0017b	46		 inc	 esi
  0017c	83 fe 1f	 cmp	 esi, 31			; 0000001fH
  0017f	0f 8c b3 fe ff
	ff		 jl	 $LL38@SumEquipDe

; 2092 : 					}
; 2093 : 				}
; 2094 : 			}
; 2095 : 		}
; 2096 : 		// ¸đµç ÇŐ»ęŔĚ łˇłµ´Ů¸é °˘ żäĽŇżˇ ĽöÁ¤Äˇ¸¦ ŔűżëÇŃ´Ů.
; 2097 : 		nMin = GetParam( DST_ABILITY_MIN, nMin );

  00185	8b 4d fc	 mov	 ecx, DWORD PTR _this$1$[ebp]
  00188	66 0f 7e c0	 movd	 eax, xmm0
  0018c	66 0f 73 d8 04	 psrldq	 xmm0, 4
  00191	66 0f 7e c6	 movd	 esi, xmm0
  00195	50		 push	 eax
  00196	6a 0c		 push	 12			; 0000000cH
  00198	e8 00 00 00 00	 call	 ?GetParam@CMover@@QAEHHH@Z ; CMover::GetParam

; 2098 : 		nMax = GetParam( DST_ABILITY_MAX, nMax );

  0019d	8b 4d fc	 mov	 ecx, DWORD PTR _this$1$[ebp]
  001a0	56		 push	 esi
  001a1	6a 0d		 push	 13			; 0000000dH
  001a3	89 45 f4	 mov	 DWORD PTR _nMin$2$[ebp], eax
  001a6	e8 00 00 00 00	 call	 ?GetParam@CMover@@QAEHHH@Z ; CMover::GetParam

; 2099 : 		if( pnMin ) *pnMin = nMin;

  001ab	8b 4b 08	 mov	 ecx, DWORD PTR _pnMin$[ebx]
  001ae	8b d0		 mov	 edx, eax
  001b0	8b 45 f4	 mov	 eax, DWORD PTR _nMin$2$[ebp]
  001b3	85 c9		 test	 ecx, ecx
  001b5	74 02		 je	 SHORT $LN13@SumEquipDe
  001b7	89 01		 mov	 DWORD PTR [ecx], eax
$LN13@SumEquipDe:

; 2100 : 		if( pnMax ) *pnMax = nMax;

  001b9	8b 4b 0c	 mov	 ecx, DWORD PTR _pnMax$[ebx]
  001bc	85 c9		 test	 ecx, ecx
  001be	74 02		 je	 SHORT $LN14@SumEquipDe
  001c0	89 11		 mov	 DWORD PTR [ecx], edx
$LN14@SumEquipDe:

; 2101 : 		return ( ( nMin + nMax ) / 2 ); // ¸®ĹĎ °ŞŔş Ćň±Ő °ŞŔĚ´Ů. ĆÇÁ¤˝Ăżˇ´Â »çżëÇĎÁö ľĘ´Â´Ů. Ăâ·ÂŔĚłŞ ±âĹ¸ żëµµ·Î »çżëÇŃ´Ů.

  001c2	03 c2		 add	 eax, edx
  001c4	99		 cdq
  001c5	2b c2		 sub	 eax, edx
  001c7	d1 f8		 sar	 eax, 1

; 2102 : 	}
; 2103 : 	else
; 2104 : 	{
; 2105 : 	}
; 2106 : 	
; 2107 : 	return 0;
; 2108 : }

  001c9	5f		 pop	 edi
  001ca	5e		 pop	 esi
  001cb	8b e5		 mov	 esp, ebp
  001cd	5d		 pop	 ebp
  001ce	8b e3		 mov	 esp, ebx
  001d0	5b		 pop	 ebx
  001d1	c2 08 00	 ret	 8
$LN5@SumEquipDe:
  001d4	5f		 pop	 edi
  001d5	33 c0		 xor	 eax, eax
  001d7	5e		 pop	 esi
  001d8	8b e5		 mov	 esp, ebp
  001da	5d		 pop	 ebp
  001db	8b e3		 mov	 esp, ebx
  001dd	5b		 pop	 ebx
  001de	c2 08 00	 ret	 8
?SumEquipDefenseAbility@CMover@@QAEHPAJ0@Z ENDP		; CMover::SumEquipDefenseAbility
_TEXT	ENDS
; Function compile flags: /Ogtp
; File C:\IAGOS\server\v18\Source\Source\_Common\MoverParam.cpp
; File C:\IAGOS\server\v18\Source\Source\_Common\Item.h
; File C:\IAGOS\server\v18\Source\Source\_Common\Project.h
; File C:\IAGOS\server\v18\Source\Source\_Common\data.h
; File C:\IAGOS\server\v18\Source\Source\_Common\MoverParam.cpp
; File C:\IAGOS\server\v18\Source\Source\_Common\Project.h
; File C:\IAGOS\server\v18\Source\Source\_Common\data.h
; File C:\IAGOS\server\v18\Source\Source\_Common\Project.h
; File C:\IAGOS\server\v18\Source\Source\_Common\MoverParam.cpp
; File C:\IAGOS\server\v18\Source\Source\_Common\Project.h
; File C:\IAGOS\server\v18\Source\Source\_Common\data.h
; File C:\IAGOS\server\v18\Source\Source\_Common\Project.h
; File C:\IAGOS\server\v18\Source\Source\_Common\MoverParam.cpp
; File C:\IAGOS\server\v18\Source\Source\_Common\Item.h
; File C:\IAGOS\server\v18\Source\Source\_Common\Project.h
; File C:\IAGOS\server\v18\Source\Source\_Common\data.h
; File C:\IAGOS\server\v18\Source\Source\_Common\Project.h
; File C:\IAGOS\server\v18\Source\Source\_Common\MoverParam.cpp
; File C:\IAGOS\server\v18\Source\Source\_Common\Item.h
; File C:\IAGOS\server\v18\Source\Source\_Common\Project.h
; File C:\IAGOS\server\v18\Source\Source\_Common\data.h
; File C:\IAGOS\server\v18\Source\Source\_Common\MoverParam.cpp
; File C:\IAGOS\server\v18\Source\Source\_Common\Project.h
; File C:\IAGOS\server\v18\Source\Source\_Common\MoverParam.cpp
; File C:\IAGOS\server\v18\Source\Source\_Common\Project.h
; File C:\IAGOS\server\v18\Source\Source\_Common\MoverParam.cpp
;	COMDAT ?SumEquipAdjValue@CMover@@QAEXPAH0@Z
_TEXT	SEGMENT
_this$1$ = -4						; size = 4
_pnAdjHitRate$ = 8					; size = 4
_pnAdjParray$ = 12					; size = 4
?SumEquipAdjValue@CMover@@QAEXPAH0@Z PROC		; CMover::SumEquipAdjValue, COMDAT
; _this$ = ecx

; 2111 : {

  00000	55		 push	 ebp
  00001	8b ec		 mov	 ebp, esp
  00003	51		 push	 ecx

; 2112 : 	*pnAdjHitRate = 0;

  00004	8b 45 08	 mov	 eax, DWORD PTR _pnAdjHitRate$[ebp]
  00007	53		 push	 ebx
  00008	56		 push	 esi
  00009	57		 push	 edi
  0000a	c7 00 00 00 00
	00		 mov	 DWORD PTR [eax], 0
  00010	33 db		 xor	 ebx, ebx

; 2113 : 	*pnAdjParray = 0;

  00012	8b 45 0c	 mov	 eax, DWORD PTR _pnAdjParray$[ebp]
  00015	89 4d fc	 mov	 DWORD PTR _this$1$[ebp], ecx
  00018	c7 00 00 00 00
	00		 mov	 DWORD PTR [eax], 0
  0001e	66 90		 npad	 2
$LL4@SumEquipAd:

; 2117 : 	{
; 2118 : 		pItemElem = GetEquipItem( i );

  00020	53		 push	 ebx
  00021	e8 00 00 00 00	 call	 ?GetEquipItem@CMover@@QAEPAVCItemElem@@H@Z ; CMover::GetEquipItem
  00026	8b f8		 mov	 edi, eax

; 2119 : 		if( pItemElem )  

  00028	85 ff		 test	 edi, edi
  0002a	0f 84 3c 01 00
	00		 je	 $LN2@SumEquipAd
; File C:\IAGOS\server\v18\Source\Source\_Common\Item.h

; 230  : 	ItemProp*	GetProp()	{	return prj.GetItemProp( m_dwItemId );	}

  00030	8b 4f 0c	 mov	 ecx, DWORD PTR [edi+12]
; File C:\IAGOS\server\v18\Source\Source\_Common\Project.h

; 1389 : 	VERIFY_RANGE_ASSERT( nIndex, 0, m_aPropItem.GetSize(), "GetItemProp range_error", NULL );

  00033	a1 40 02 00 00	 mov	 eax, DWORD PTR ?prj@@3VCProject@@A+576
  00038	85 c9		 test	 ecx, ecx
  0003a	0f 88 16 01 00
	00		 js	 $LN17@SumEquipAd
  00040	3b c8		 cmp	 ecx, eax
  00042	0f 8d 0e 01 00
	00		 jge	 $LN17@SumEquipAd
; File C:\IAGOS\server\v18\Source\Source\_Common\data.h

; 270  : 	if( dwIndex >= (DWORD)m_nMaxIndex )

  00048	8b 15 30 02 00
	00		 mov	 edx, DWORD PTR ?prj@@3VCProject@@A+560
  0004e	72 04		 jb	 SHORT $LN22@SumEquipAd

; 271  : 		return NULL;

  00050	33 f6		 xor	 esi, esi
  00052	eb 03		 jmp	 SHORT $LN21@SumEquipAd
$LN22@SumEquipAd:

; 272  : 	return (T*) m_apOffset[ dwIndex ];

  00054	8b 34 8a	 mov	 esi, DWORD PTR [edx+ecx*4]
$LN21@SumEquipAd:
; File C:\IAGOS\server\v18\Source\Source\_Common\MoverParam.cpp

; 2121 : 			if( pItemElem->GetProp() )

  00057	85 f6		 test	 esi, esi
  00059	0f 84 0d 01 00
	00		 je	 $LN2@SumEquipAd
; File C:\IAGOS\server\v18\Source\Source\_Common\Project.h

; 1389 : 	VERIFY_RANGE_ASSERT( nIndex, 0, m_aPropItem.GetSize(), "GetItemProp range_error", NULL );

  0005f	3b c8		 cmp	 ecx, eax
  00061	7d 07		 jge	 SHORT $LN31@SumEquipAd
; File C:\IAGOS\server\v18\Source\Source\_Common\data.h

; 270  : 	if( dwIndex >= (DWORD)m_nMaxIndex )

  00063	73 29		 jae	 SHORT $LN103@SumEquipAd

; 272  : 	return (T*) m_apOffset[ dwIndex ];

  00065	8b 34 8a	 mov	 esi, DWORD PTR [edx+ecx*4]
; File C:\IAGOS\server\v18\Source\Source\_Common\Project.h

; 1390 : 	return m_aPropItem.GetAt( nIndex ); 

  00068	eb 26		 jmp	 SHORT $LN26@SumEquipAd
$LN31@SumEquipAd:

; 579  : 	LPCTSTR szErr = Error( _T( "%s min:%d, max:%d, index:%d" ), szMsg, nMin, nMax, nIndex ); 

  0006a	51		 push	 ecx
  0006b	50		 push	 eax
  0006c	6a 00		 push	 0
  0006e	68 00 00 00 00	 push	 OFFSET ??_C@_0BI@BEIFNGEL@GetItemProp?5range_error@
  00073	68 00 00 00 00	 push	 OFFSET ??_C@_0BM@HMFGHCP@?$CFs?5min?3?$CFd?0?5max?3?$CFd?0?5index?3?$CFd@
  00078	e8 00 00 00 00	 call	 ?Error@@YAPBDPBDZZ	; Error

; 1389 : 	VERIFY_RANGE_ASSERT( nIndex, 0, m_aPropItem.GetSize(), "GetItemProp range_error", NULL );

  0007d	8b 4f 0c	 mov	 ecx, DWORD PTR [edi+12]

; 579  : 	LPCTSTR szErr = Error( _T( "%s min:%d, max:%d, index:%d" ), szMsg, nMin, nMax, nIndex ); 

  00080	83 c4 14	 add	 esp, 20			; 00000014H

; 1389 : 	VERIFY_RANGE_ASSERT( nIndex, 0, m_aPropItem.GetSize(), "GetItemProp range_error", NULL );

  00083	a1 40 02 00 00	 mov	 eax, DWORD PTR ?prj@@3VCProject@@A+576
  00088	8b 15 30 02 00
	00		 mov	 edx, DWORD PTR ?prj@@3VCProject@@A+560
$LN103@SumEquipAd:
; File C:\IAGOS\server\v18\Source\Source\_Common\MoverParam.cpp

; 2123 : 				if( (int)pItemElem->GetProp()->nAdjHitRate > 0 )

  0008e	33 f6		 xor	 esi, esi
$LN26@SumEquipAd:
  00090	83 be 2c 01 00
	00 00		 cmp	 DWORD PTR [esi+300], 0
  00097	7e 3d		 jle	 SHORT $LN7@SumEquipAd
; File C:\IAGOS\server\v18\Source\Source\_Common\Project.h

; 1389 : 	VERIFY_RANGE_ASSERT( nIndex, 0, m_aPropItem.GetSize(), "GetItemProp range_error", NULL );

  00099	85 c9		 test	 ecx, ecx
  0009b	78 0b		 js	 SHORT $LN45@SumEquipAd
  0009d	3b c8		 cmp	 ecx, eax
  0009f	7d 07		 jge	 SHORT $LN45@SumEquipAd
; File C:\IAGOS\server\v18\Source\Source\_Common\data.h

; 270  : 	if( dwIndex >= (DWORD)m_nMaxIndex )

  000a1	73 1b		 jae	 SHORT $LN104@SumEquipAd

; 272  : 	return (T*) m_apOffset[ dwIndex ];

  000a3	8b 04 8a	 mov	 eax, DWORD PTR [edx+ecx*4]
; File C:\IAGOS\server\v18\Source\Source\_Common\Project.h

; 1390 : 	return m_aPropItem.GetAt( nIndex ); 

  000a6	eb 18		 jmp	 SHORT $LN40@SumEquipAd
$LN45@SumEquipAd:

; 579  : 	LPCTSTR szErr = Error( _T( "%s min:%d, max:%d, index:%d" ), szMsg, nMin, nMax, nIndex ); 

  000a8	51		 push	 ecx
  000a9	50		 push	 eax
  000aa	6a 00		 push	 0
  000ac	68 00 00 00 00	 push	 OFFSET ??_C@_0BI@BEIFNGEL@GetItemProp?5range_error@
  000b1	68 00 00 00 00	 push	 OFFSET ??_C@_0BM@HMFGHCP@?$CFs?5min?3?$CFd?0?5max?3?$CFd?0?5index?3?$CFd@
  000b6	e8 00 00 00 00	 call	 ?Error@@YAPBDPBDZZ	; Error
  000bb	83 c4 14	 add	 esp, 20			; 00000014H
$LN104@SumEquipAd:
; File C:\IAGOS\server\v18\Source\Source\_Common\MoverParam.cpp

; 2124 : 					*pnAdjHitRate += pItemElem->GetProp()->nAdjHitRate;

  000be	33 c0		 xor	 eax, eax
$LN40@SumEquipAd:
  000c0	8b 4d 08	 mov	 ecx, DWORD PTR _pnAdjHitRate$[ebp]
  000c3	8b 80 2c 01 00
	00		 mov	 eax, DWORD PTR [eax+300]
  000c9	01 01		 add	 DWORD PTR [ecx], eax
  000cb	a1 40 02 00 00	 mov	 eax, DWORD PTR ?prj@@3VCProject@@A+576
  000d0	8b 15 30 02 00
	00		 mov	 edx, DWORD PTR ?prj@@3VCProject@@A+560
$LN7@SumEquipAd:
; File C:\IAGOS\server\v18\Source\Source\_Common\Item.h

; 230  : 	ItemProp*	GetProp()	{	return prj.GetItemProp( m_dwItemId );	}

  000d6	8b 4f 0c	 mov	 ecx, DWORD PTR [edi+12]
; File C:\IAGOS\server\v18\Source\Source\_Common\Project.h

; 1389 : 	VERIFY_RANGE_ASSERT( nIndex, 0, m_aPropItem.GetSize(), "GetItemProp range_error", NULL );

  000d9	85 c9		 test	 ecx, ecx
  000db	78 0b		 js	 SHORT $LN59@SumEquipAd
  000dd	3b c8		 cmp	 ecx, eax
  000df	7d 07		 jge	 SHORT $LN59@SumEquipAd
; File C:\IAGOS\server\v18\Source\Source\_Common\data.h

; 270  : 	if( dwIndex >= (DWORD)m_nMaxIndex )

  000e1	73 26		 jae	 SHORT $LN105@SumEquipAd

; 272  : 	return (T*) m_apOffset[ dwIndex ];

  000e3	8b 0c 8a	 mov	 ecx, DWORD PTR [edx+ecx*4]
; File C:\IAGOS\server\v18\Source\Source\_Common\Project.h

; 1390 : 	return m_aPropItem.GetAt( nIndex ); 

  000e6	eb 23		 jmp	 SHORT $LN54@SumEquipAd
$LN59@SumEquipAd:

; 579  : 	LPCTSTR szErr = Error( _T( "%s min:%d, max:%d, index:%d" ), szMsg, nMin, nMax, nIndex ); 

  000e8	51		 push	 ecx
  000e9	50		 push	 eax
  000ea	6a 00		 push	 0
  000ec	68 00 00 00 00	 push	 OFFSET ??_C@_0BI@BEIFNGEL@GetItemProp?5range_error@
  000f1	68 00 00 00 00	 push	 OFFSET ??_C@_0BM@HMFGHCP@?$CFs?5min?3?$CFd?0?5max?3?$CFd?0?5index?3?$CFd@
  000f6	e8 00 00 00 00	 call	 ?Error@@YAPBDPBDZZ	; Error

; 1389 : 	VERIFY_RANGE_ASSERT( nIndex, 0, m_aPropItem.GetSize(), "GetItemProp range_error", NULL );

  000fb	a1 40 02 00 00	 mov	 eax, DWORD PTR ?prj@@3VCProject@@A+576

; 579  : 	LPCTSTR szErr = Error( _T( "%s min:%d, max:%d, index:%d" ), szMsg, nMin, nMax, nIndex ); 

  00100	83 c4 14	 add	 esp, 20			; 00000014H

; 1389 : 	VERIFY_RANGE_ASSERT( nIndex, 0, m_aPropItem.GetSize(), "GetItemProp range_error", NULL );

  00103	8b 15 30 02 00
	00		 mov	 edx, DWORD PTR ?prj@@3VCProject@@A+560
$LN105@SumEquipAd:
; File C:\IAGOS\server\v18\Source\Source\_Common\MoverParam.cpp

; 2125 : 				if( (int)pItemElem->GetProp()->dwParry > 0 )

  00109	33 c9		 xor	 ecx, ecx
$LN54@SumEquipAd:
  0010b	83 b9 f8 00 00
	00 00		 cmp	 DWORD PTR [ecx+248], 0
  00112	7e 58		 jle	 SHORT $LN2@SumEquipAd
; File C:\IAGOS\server\v18\Source\Source\_Common\Item.h

; 230  : 	ItemProp*	GetProp()	{	return prj.GetItemProp( m_dwItemId );	}

  00114	8b 4f 0c	 mov	 ecx, DWORD PTR [edi+12]
; File C:\IAGOS\server\v18\Source\Source\_Common\Project.h

; 1389 : 	VERIFY_RANGE_ASSERT( nIndex, 0, m_aPropItem.GetSize(), "GetItemProp range_error", NULL );

  00117	85 c9		 test	 ecx, ecx
  00119	78 16		 js	 SHORT $LN73@SumEquipAd
  0011b	3b c8		 cmp	 ecx, eax
  0011d	7d 12		 jge	 SHORT $LN73@SumEquipAd
; File C:\IAGOS\server\v18\Source\Source\_Common\data.h

; 270  : 	if( dwIndex >= (DWORD)m_nMaxIndex )

  0011f	73 26		 jae	 SHORT $LN106@SumEquipAd

; 272  : 	return (T*) m_apOffset[ dwIndex ];

  00121	8b 04 8a	 mov	 eax, DWORD PTR [edx+ecx*4]
; File C:\IAGOS\server\v18\Source\Source\_Common\MoverParam.cpp

; 2126 : 					*pnAdjParray += pItemElem->GetProp()->dwParry;

  00124	8b 4d 0c	 mov	 ecx, DWORD PTR _pnAdjParray$[ebp]
  00127	8b 80 f8 00 00
	00		 mov	 eax, DWORD PTR [eax+248]
  0012d	01 01		 add	 DWORD PTR [ecx], eax
  0012f	eb 3b		 jmp	 SHORT $LN2@SumEquipAd
$LN73@SumEquipAd:
; File C:\IAGOS\server\v18\Source\Source\_Common\Project.h

; 579  : 	LPCTSTR szErr = Error( _T( "%s min:%d, max:%d, index:%d" ), szMsg, nMin, nMax, nIndex ); 

  00131	51		 push	 ecx
  00132	50		 push	 eax
  00133	6a 00		 push	 0
  00135	68 00 00 00 00	 push	 OFFSET ??_C@_0BI@BEIFNGEL@GetItemProp?5range_error@
  0013a	68 00 00 00 00	 push	 OFFSET ??_C@_0BM@HMFGHCP@?$CFs?5min?3?$CFd?0?5max?3?$CFd?0?5index?3?$CFd@
  0013f	e8 00 00 00 00	 call	 ?Error@@YAPBDPBDZZ	; Error
  00144	83 c4 14	 add	 esp, 20			; 00000014H
$LN106@SumEquipAd:
; File C:\IAGOS\server\v18\Source\Source\_Common\MoverParam.cpp

; 2126 : 					*pnAdjParray += pItemElem->GetProp()->dwParry;

  00147	8b 4d 0c	 mov	 ecx, DWORD PTR _pnAdjParray$[ebp]
  0014a	33 c0		 xor	 eax, eax
  0014c	8b 80 f8 00 00
	00		 mov	 eax, DWORD PTR [eax+248]
  00152	01 01		 add	 DWORD PTR [ecx], eax
  00154	eb 16		 jmp	 SHORT $LN2@SumEquipAd
$LN17@SumEquipAd:
; File C:\IAGOS\server\v18\Source\Source\_Common\Project.h

; 579  : 	LPCTSTR szErr = Error( _T( "%s min:%d, max:%d, index:%d" ), szMsg, nMin, nMax, nIndex ); 

  00156	51		 push	 ecx
  00157	50		 push	 eax
  00158	6a 00		 push	 0
  0015a	68 00 00 00 00	 push	 OFFSET ??_C@_0BI@BEIFNGEL@GetItemProp?5range_error@
  0015f	68 00 00 00 00	 push	 OFFSET ??_C@_0BM@HMFGHCP@?$CFs?5min?3?$CFd?0?5max?3?$CFd?0?5index?3?$CFd@
  00164	e8 00 00 00 00	 call	 ?Error@@YAPBDPBDZZ	; Error
  00169	83 c4 14	 add	 esp, 20			; 00000014H
$LN2@SumEquipAd:
; File C:\IAGOS\server\v18\Source\Source\_Common\MoverParam.cpp

; 2116 : 	for( int i = 0; i < MAX_HUMAN_PARTS; i++ )

  0016c	8b 4d fc	 mov	 ecx, DWORD PTR _this$1$[ebp]
  0016f	43		 inc	 ebx
  00170	83 fb 1f	 cmp	 ebx, 31			; 0000001fH
  00173	0f 8c a7 fe ff
	ff		 jl	 $LL4@SumEquipAd
  00179	5f		 pop	 edi
  0017a	5e		 pop	 esi
  0017b	5b		 pop	 ebx

; 2127 : 			}
; 2128 : 		}
; 2129 : 	}
; 2130 : }

  0017c	8b e5		 mov	 esp, ebp
  0017e	5d		 pop	 ebp
  0017f	c2 08 00	 ret	 8
?SumEquipAdjValue@CMover@@QAEXPAH0@Z ENDP		; CMover::SumEquipAdjValue
_TEXT	ENDS
; Function compile flags: /Ogtp
; File C:\IAGOS\server\v18\Source\Source\_Common\MoverParam.cpp
;	COMDAT ?SetEquipDstParam@CMover@@QAEXXZ
_TEXT	SEGMENT
?SetEquipDstParam@CMover@@QAEXXZ PROC			; CMover::SetEquipDstParam, COMDAT
; _this$ = ecx

; 2036 : {

  00000	57		 push	 edi
  00001	8b f9		 mov	 edi, ecx

; 2037 : 	if( IsPlayer() ) 

  00003	83 bf 30 02 00
	00 00		 cmp	 DWORD PTR [edi+560], 0
  0000a	74 23		 je	 SHORT $LN3@SetEquipDs

; 2038 : 	{
; 2039 : 		CItemElem* pItemElem;
; 2040 : 		for( int i = 0; i < MAX_HUMAN_PARTS; i++ )

  0000c	56		 push	 esi
  0000d	33 f6		 xor	 esi, esi
  0000f	90		 npad	 1
$LL4@SetEquipDs:

; 2041 : 		{
; 2042 : 			pItemElem = GetEquipItem( i ); //m_Inventory.GetAtId( m_adwEquipment[ i ] );

  00010	56		 push	 esi
  00011	8b cf		 mov	 ecx, edi
  00013	e8 00 00 00 00	 call	 ?GetEquipItem@CMover@@QAEPAVCItemElem@@H@Z ; CMover::GetEquipItem

; 2043 : 			if( pItemElem )

  00018	85 c0		 test	 eax, eax
  0001a	74 0c		 je	 SHORT $LN2@SetEquipDs

; 2044 : 				SetDestParam( pItemElem->m_dwItemId, FALSE );	//don't send

  0001c	6a 00		 push	 0
  0001e	ff 70 0c	 push	 DWORD PTR [eax+12]
  00021	8b cf		 mov	 ecx, edi
  00023	e8 00 00 00 00	 call	 ?SetDestParam@CMover@@QAEXHH@Z ; CMover::SetDestParam
$LN2@SetEquipDs:

; 2038 : 	{
; 2039 : 		CItemElem* pItemElem;
; 2040 : 		for( int i = 0; i < MAX_HUMAN_PARTS; i++ )

  00028	46		 inc	 esi
  00029	83 fe 1f	 cmp	 esi, 31			; 0000001fH
  0002c	7c e2		 jl	 SHORT $LL4@SetEquipDs
  0002e	5e		 pop	 esi
$LN3@SetEquipDs:
  0002f	5f		 pop	 edi

; 2045 : 		}
; 2046 : 	}
; 2047 : }

  00030	c3		 ret	 0
?SetEquipDstParam@CMover@@QAEXXZ ENDP			; CMover::SetEquipDstParam
_TEXT	ENDS
; Function compile flags: /Ogtp
; File C:\IAGOS\server\v18\Source\Source\_Common\MoverParam.cpp
;	COMDAT ?RemoveBuffAll@CMover@@QAEXXZ
_TEXT	SEGMENT
?RemoveBuffAll@CMover@@QAEXXZ PROC			; CMover::RemoveBuffAll, COMDAT
; _this$ = ecx

; 2348 : #ifdef __BUFF_1107
; 2349 : 	m_buffs.RemoveBuffs( RBF_GOODSKILL, 0 );

  00000	6a 00		 push	 0
  00002	6a 04		 push	 4
  00004	81 c1 ec 02 00
	00		 add	 ecx, 748		; 000002ecH
  0000a	e8 00 00 00 00	 call	 ?RemoveBuffs@CBuffMgr@@QAEXKK@Z ; CBuffMgr::RemoveBuffs

; 2350 : #else	// __BUFF_1107
; 2351 : 	m_SkillState.RemoveAllSkillBuff();		// ŔĚ·ÎżîąöÇÁ˝şĹłŔ» ¸đµÎ ĂŁľĆ »čÁ¦ ÇŃ´Ů.
; 2352 : #endif	// __BUFF_1107
; 2353 : }

  0000f	c3		 ret	 0
?RemoveBuffAll@CMover@@QAEXXZ ENDP			; CMover::RemoveBuffAll
_TEXT	ENDS
; Function compile flags: /Ogtp
; File C:\IAGOS\server\v18\Source\Source\_Common\MoverParam.cpp
;	COMDAT ?RemoveBuffOne@CMover@@QAEXK@Z
_TEXT	SEGMENT
_dwSkill$ = 8						; size = 4
?RemoveBuffOne@CMover@@QAEXK@Z PROC			; CMover::RemoveBuffOne, COMDAT
; _this$ = ecx

; 2339 : #ifdef __BUFF_1107
; 2340 : 	m_buffs.RemoveBuffs( RBF_ONCE | RBF_GOODSKILL, 0 );

  00000	6a 00		 push	 0
  00002	68 04 00 00 10	 push	 268435460		; 10000004H
  00007	81 c1 ec 02 00
	00		 add	 ecx, 748		; 000002ecH
  0000d	e8 00 00 00 00	 call	 ?RemoveBuffs@CBuffMgr@@QAEXKK@Z ; CBuffMgr::RemoveBuffs

; 2341 : #else	// __BUFF_1107
; 2342 : 	m_SkillState.RemoveOneSkillBuff();		// ŔĚ·ÎżîąöÇÁ˝şĹł ÇĎłŞ¸¦ Á¦°Ĺ ÇŃ´Ů.
; 2343 : #endif	// __BUFF_1107
; 2344 : }	

  00012	c2 04 00	 ret	 4
?RemoveBuffOne@CMover@@QAEXK@Z ENDP			; CMover::RemoveBuffOne
_TEXT	ENDS
; Function compile flags: /Ogtp
; File C:\IAGOS\server\v18\Source\Source\_Common\MoverParam.cpp
;	COMDAT ?RemoveDebuff@CMover@@QAEXK@Z
_TEXT	SEGMENT
_dwState$ = 8						; size = 4
?RemoveDebuff@CMover@@QAEXK@Z PROC			; CMover::RemoveDebuff, COMDAT
; _this$ = ecx

; 2302 : {

  00000	55		 push	 ebp
  00001	8b ec		 mov	 ebp, esp
  00003	56		 push	 esi
  00004	57		 push	 edi

; 2303 : 	// ˝şĹł·Î °É¸°°Ç ŔĚ°É·Î ÇŘÁ¦ÇŘľßÇĎ°í
; 2304 : 	RemoveChrStateBuffs( dwState );

  00005	8b 7d 08	 mov	 edi, DWORD PTR _dwState$[ebp]
  00008	8b f1		 mov	 esi, ecx
  0000a	57		 push	 edi
  0000b	e8 00 00 00 00	 call	 ?RemoveChrStateBuffs@CMover@@QAEXK@Z ; CMover::RemoveChrStateBuffs

; 2305 : 	// ˝şĹłŔĚ ľĆ´Ń ľĆŔĚĹŰ°°Ŕş°É·Î »óĹÂ¸¸ °É¸°°Ç ŔĚ°É·Î Ç®ľîľß ÇŃ´Ů.
; 2306 : 	if( dwState & CHS_DARK )

  00010	f7 c7 00 01 00
	00		 test	 edi, 256		; 00000100H
  00016	74 0d		 je	 SHORT $LN2@RemoveDebu

; 2307 : 		SetDark( FALSE );

  00018	6a 00		 push	 0
  0001a	6a 00		 push	 0
  0001c	6a 00		 push	 0
  0001e	8b ce		 mov	 ecx, esi
  00020	e8 00 00 00 00	 call	 ?SetDark@CMover@@QAEHHKH@Z ; CMover::SetDark
$LN2@RemoveDebu:

; 2308 : 	if( dwState & CHS_POISON )

  00025	f7 c7 00 08 00
	00		 test	 edi, 2048		; 00000800H
  0002b	74 11		 je	 SHORT $LN3@RemoveDebu

; 2309 : 		SetPoison( FALSE );

  0002d	6a 00		 push	 0
  0002f	6a 00		 push	 0
  00031	6a 00		 push	 0
  00033	6a ff		 push	 -1
  00035	6a 00		 push	 0
  00037	8b ce		 mov	 ecx, esi
  00039	e8 00 00 00 00	 call	 ?SetPoison@CMover@@QAEHHKKKF@Z ; CMover::SetPoison
$LN3@RemoveDebu:

; 2310 : #ifdef __SLEEPING_FIX
; 2311 : 	if (dwState & CHS_STUN || dwState & CHS_SLEEPING)

  0003e	f7 c7 08 00 20
	00		 test	 edi, 2097160		; 00200008H
  00044	74 0b		 je	 SHORT $LN4@RemoveDebu

; 2312 : #else
; 2313 : 	if (dwState & CHS_STUN)
; 2314 : #endif
; 2315 : 		SetStun( FALSE );

  00046	6a 00		 push	 0
  00048	6a 00		 push	 0
  0004a	8b ce		 mov	 ecx, esi
  0004c	e8 00 00 00 00	 call	 ?SetStun@CMover@@QAEHHK@Z ; CMover::SetStun
$LN4@RemoveDebu:

; 2316 : #if __VER >= 10	// 
; 2317 : 	if( dwState & CHS_BLEEDING )

  00051	f7 c7 00 80 00
	00		 test	 edi, 32768		; 00008000H
  00057	74 11		 je	 SHORT $LN6@RemoveDebu

; 2318 : 		SetBleeding( FALSE );

  00059	6a 00		 push	 0
  0005b	6a 00		 push	 0
  0005d	6a 00		 push	 0
  0005f	6a ff		 push	 -1
  00061	6a 00		 push	 0
  00063	8b ce		 mov	 ecx, esi
  00065	e8 00 00 00 00	 call	 ?SetBleeding@CMover@@QAEHHKKKF@Z ; CMover::SetBleeding
$LN6@RemoveDebu:

; 2319 : 	
; 2320 : 	#if __VER >= 11 // __MA_VER11_06				// Č®Ŕ˛˝şĹł Čż°úĽöÁ¤ world,neuz
; 2321 : 	if( dwState & CHS_DEBUFFALL )

  0006a	f7 c7 00 00 40
	00		 test	 edi, 4194304		; 00400000H
  00070	74 24		 je	 SHORT $LN7@RemoveDebu

; 2322 : 	{
; 2323 : 		RemoveDstParamBuffs( DST_SPEED );

  00072	6a 0b		 push	 11			; 0000000bH
  00074	8b ce		 mov	 ecx, esi
  00076	e8 00 00 00 00	 call	 ?RemoveDstParamBuffs@CMover@@QAEXK@Z ; CMover::RemoveDstParamBuffs

; 2324 : 		RemoveDstParamBuffs( DST_CHR_CHANCEPOISON );

  0007b	6a 3c		 push	 60			; 0000003cH
  0007d	8b ce		 mov	 ecx, esi
  0007f	e8 00 00 00 00	 call	 ?RemoveDstParamBuffs@CMover@@QAEXK@Z ; CMover::RemoveDstParamBuffs

; 2325 : 		RemoveDstParamBuffs( DST_CHR_CHANCESTUN );

  00084	6a 39		 push	 57			; 00000039H
  00086	8b ce		 mov	 ecx, esi
  00088	e8 00 00 00 00	 call	 ?RemoveDstParamBuffs@CMover@@QAEXK@Z ; CMover::RemoveDstParamBuffs

; 2326 : 		RemoveDstParamBuffs( DST_CHR_CHANCEBLEEDING );

  0008d	6a 46		 push	 70			; 00000046H
  0008f	8b ce		 mov	 ecx, esi
  00091	e8 00 00 00 00	 call	 ?RemoveDstParamBuffs@CMover@@QAEXK@Z ; CMover::RemoveDstParamBuffs
$LN7@RemoveDebu:

; 2327 : 	}
; 2328 : 	#endif // __MA_VER11_06				// Č®Ŕ˛˝şĹł Čż°úĽöÁ¤ world,neuz
; 2329 : 
; 2330 : #endif	//
; 2331 : 
; 2332 : 	// ŔĚ°Ĺ ľČżˇĽ­ ResetŔ» ČŁĂâÇŃ´Ů.
; 2333 : 	SetDestParam( DST_CURECHR, dwState, NULL_CHGPARAM );

  00096	6a 01		 push	 1
  00098	68 ff ff ff 7f	 push	 2147483647		; 7fffffffH
  0009d	57		 push	 edi
  0009e	68 16 27 00 00	 push	 10006			; 00002716H
  000a3	8b ce		 mov	 ecx, esi
  000a5	e8 00 00 00 00	 call	 ?SetDestParam@CMover@@QAEXHHHH@Z ; CMover::SetDestParam
  000aa	5f		 pop	 edi
  000ab	5e		 pop	 esi

; 2334 : }

  000ac	5d		 pop	 ebp
  000ad	c2 04 00	 ret	 4
?RemoveDebuff@CMover@@QAEXK@Z ENDP			; CMover::RemoveDebuff
_TEXT	ENDS
; Function compile flags: /Ogtp
; File C:\IAGOS\server\v18\Source\Source\_Common\MoverParam.cpp
;	COMDAT ?SetBleeding@CMover@@QAEHHKKKF@Z
_TEXT	SEGMENT
_bApply$ = 8						; size = 4
_idAttacker$ = 12					; size = 4
_tmMaxTime$ = 16					; size = 4
_tmUnit$ = 20						; size = 4
_wDamage$ = 24						; size = 2
?SetBleeding@CMover@@QAEHHKKKF@Z PROC			; CMover::SetBleeding, COMDAT
; _this$ = ecx

; 2271 : {

  00000	55		 push	 ebp
  00001	8b ec		 mov	 ebp, esp

; 2272 : 	if( bApply )

  00003	83 7d 08 00	 cmp	 DWORD PTR _bApply$[ebp], 0
  00007	56		 push	 esi
  00008	57		 push	 edi
  00009	8b f1		 mov	 esi, ecx
  0000b	0f 84 c7 00 00
	00		 je	 $LN2@SetBleedin

; 2273 : 	{
; 2274 : 		if( GetAdjParam( DST_IMMUNITY ) & CHS_BLEEDING ) return FALSE;		// ĂâÇ÷żˇ ¸éżŞ»óĹÂ´Ů.

  00011	6a 3d		 push	 61			; 0000003dH
  00013	e8 00 00 00 00	 call	 ?GetAdjParam@CMover@@QAEHH@Z ; CMover::GetAdjParam
  00018	a9 00 80 00 00	 test	 eax, 32768		; 00008000H
  0001d	74 08		 je	 SHORT $LN4@SetBleedin
  0001f	5f		 pop	 edi
  00020	33 c0		 xor	 eax, eax

; 2297 : }

  00022	5e		 pop	 esi
  00023	5d		 pop	 ebp
  00024	c2 14 00	 ret	 20			; 00000014H
$LN4@SetBleedin:
  00027	53		 push	 ebx

; 2275 : 		
; 2276 : 		SetDestParam( DST_CHRSTATE, CHS_BLEEDING, NULL_CHGPARAM );

  00028	6a 01		 push	 1
  0002a	68 ff ff ff 7f	 push	 2147483647		; 7fffffffH
  0002f	68 00 80 00 00	 push	 32768			; 00008000H
  00034	6a 40		 push	 64			; 00000040H
  00036	8b ce		 mov	 ecx, esi
  00038	e8 00 00 00 00	 call	 ?SetDestParam@CMover@@QAEXHHHH@Z ; CMover::SetDestParam

; 2277 : 		if( tmMaxTime == -1 )

  0003d	8b 5d 10	 mov	 ebx, DWORD PTR _tmMaxTime$[ebp]
  00040	83 fb ff	 cmp	 ebx, -1
  00043	75 17		 jne	 SHORT $LN5@SetBleedin

; 2278 : 			Error( "SetBleeding : %s ĂâÇ÷Čż°úŔÇ ÁöĽÓ˝Ă°ŁŔĚ ÁöÁ¤µÇÁö ľĘŔ˝", GetName() );

  00045	6a 00		 push	 0
  00047	8b ce		 mov	 ecx, esi
  00049	e8 00 00 00 00	 call	 ?GetName@CMover@@QAEPBDH@Z ; CMover::GetName
  0004e	50		 push	 eax
  0004f	68 00 00 00 00	 push	 OFFSET ??_C@_0DF@KMFJEAB@SetBleeding?5?3?5?$CFs?5?C?b?G?w?H?$LP?$LA?z?$MA?G?5?A?v?$LM@
  00054	e8 00 00 00 00	 call	 ?Error@@YAPBDPBDZZ	; Error
  00059	83 c4 08	 add	 esp, 8
$LN5@SetBleedin:

; 2279 : 		if( tmUnit == -1 )

  0005c	8b 7d 14	 mov	 edi, DWORD PTR _tmUnit$[ebp]
  0005f	83 ff ff	 cmp	 edi, -1
  00062	75 17		 jne	 SHORT $LN6@SetBleedin

; 2280 : 			Error( "SetBleeding : %s ĂâÇ÷Čż°úŔÇ tick ˝Ă°ŁŔĚ ÁöÁ¤µÇÁö ľĘŔ˝", GetName() );

  00064	6a 00		 push	 0
  00066	8b ce		 mov	 ecx, esi
  00068	e8 00 00 00 00	 call	 ?GetName@CMover@@QAEPBDH@Z ; CMover::GetName
  0006d	50		 push	 eax
  0006e	68 00 00 00 00	 push	 OFFSET ??_C@_0DG@BBMBAHHG@SetBleeding?5?3?5?$CFs?5?C?b?G?w?H?$LP?$LA?z?$MA?G?5tic@
  00073	e8 00 00 00 00	 call	 ?Error@@YAPBDPBDZZ	; Error
  00078	83 c4 08	 add	 esp, 8
$LN6@SetBleedin:

; 2281 : 		if( wDamage == -1 )

  0007b	66 83 7d 18 ff	 cmp	 WORD PTR _wDamage$[ebp], -1
  00080	75 17		 jne	 SHORT $LN7@SetBleedin

; 2282 : 			Error( "SetBleeding : %s ĂâÇ÷Čż°úŔÇ Ć˝´ç µĄąĚÁö°ˇ ÁöÁ¤µÇÁö ľĘŔ˝", GetName() );

  00082	6a 00		 push	 0
  00084	8b ce		 mov	 ecx, esi
  00086	e8 00 00 00 00	 call	 ?GetName@CMover@@QAEPBDH@Z ; CMover::GetName
  0008b	50		 push	 eax
  0008c	68 00 00 00 00	 push	 OFFSET ??_C@_0DI@CJNNIDBD@SetBleeding?5?3?5?$CFs?5?C?b?G?w?H?$LP?$LA?z?$MA?G?5?F?$LN?$LE@
  00091	e8 00 00 00 00	 call	 ?Error@@YAPBDPBDZZ	; Error
  00096	83 c4 08	 add	 esp, 8
$LN7@SetBleedin:

; 2283 : 		
; 2284 : 		m_wBleedingCnt = (short)( (tmMaxTime / 1000.0f) * PROCESS_COUNT );			// 1/1000

  00099	66 0f 6e c3	 movd	 xmm0, ebx
  0009d	f3 0f e6 c0	 cvtdq2pd xmm0, xmm0
  000a1	c1 eb 1f	 shr	 ebx, 31			; 0000001fH

; 2285 : 		m_wBleedingDamage = wDamage;
; 2286 : 		m_tmBleedingUnit = tmUnit;
; 2287 : 		m_idBleedingAttacker = idAttacker;

  000a4	8b 45 0c	 mov	 eax, DWORD PTR _idAttacker$[ebp]
  000a7	0f b7 4d 18	 movzx	 ecx, WORD PTR _wDamage$[ebp]
  000ab	89 86 c0 06 00
	00		 mov	 DWORD PTR [esi+1728], eax
  000b1	f2 0f 58 04 dd
	00 00 00 00	 addsd	 xmm0, QWORD PTR __xmm@41f00000000000000000000000000000[ebx*8]
  000ba	5b		 pop	 ebx
  000bb	66 0f 5a c0	 cvtpd2ps xmm0, xmm0
  000bf	f3 0f 5e 05 00
	00 00 00	 divss	 xmm0, DWORD PTR __real@447a0000
  000c7	f3 0f 59 05 00
	00 00 00	 mulss	 xmm0, DWORD PTR __real@41700000
  000cf	f3 0f 2c c0	 cvttss2si eax, xmm0
  000d3	0f b7 c0	 movzx	 eax, ax

; 2288 : 	} else

  000d6	eb 24		 jmp	 SHORT $LN3@SetBleedin
$LN2@SetBleedin:

; 2289 : 	{
; 2290 : 		if( GetAdjParam( DST_CHRSTATE) & CHS_BLEEDING )

  000d8	6a 40		 push	 64			; 00000040H
  000da	e8 00 00 00 00	 call	 ?GetAdjParam@CMover@@QAEHH@Z ; CMover::GetAdjParam
  000df	a9 00 80 00 00	 test	 eax, 32768		; 00008000H
  000e4	74 10		 je	 SHORT $LN8@SetBleedin

; 2291 : 			ResetDestParam( DST_CHRSTATE, CHS_BLEEDING, TRUE );	// µ¶»óĹÂ ÇŘÁ¦

  000e6	6a 01		 push	 1
  000e8	68 00 80 00 00	 push	 32768			; 00008000H
  000ed	6a 40		 push	 64			; 00000040H
  000ef	8b ce		 mov	 ecx, esi
  000f1	e8 00 00 00 00	 call	 ?ResetDestParam@CMover@@QAEXHHH@Z ; CMover::ResetDestParam
$LN8@SetBleedin:

; 2292 : 		m_wBleedingCnt = 0;
; 2293 : 		m_wBleedingDamage = 0;
; 2294 : 		m_tmBleedingUnit = 0;

  000f6	33 ff		 xor	 edi, edi
  000f8	33 c9		 xor	 ecx, ecx
  000fa	33 c0		 xor	 eax, eax
$LN3@SetBleedin:

; 2295 : 	}
; 2296 : 	return TRUE;

  000fc	66 89 86 ce 06
	00 00		 mov	 WORD PTR [esi+1742], ax
  00103	b8 01 00 00 00	 mov	 eax, 1
  00108	66 89 8e d0 06
	00 00		 mov	 WORD PTR [esi+1744], cx
  0010f	89 be b8 06 00
	00		 mov	 DWORD PTR [esi+1720], edi
  00115	5f		 pop	 edi

; 2297 : }

  00116	5e		 pop	 esi
  00117	5d		 pop	 ebp
  00118	c2 14 00	 ret	 20			; 00000014H
?SetBleeding@CMover@@QAEHHKKKF@Z ENDP			; CMover::SetBleeding
_TEXT	ENDS
; Function compile flags: /Ogtp
; File C:\IAGOS\server\v18\Source\Source\_Common\MoverParam.cpp
;	COMDAT ?SetDark@CMover@@QAEHHKH@Z
_TEXT	SEGMENT
_bApply$ = 8						; size = 4
_tmMaxTime$ = 12					; size = 4
_nAdjHitRate$ = 16					; size = 4
?SetDark@CMover@@QAEHHKH@Z PROC				; CMover::SetDark, COMDAT
; _this$ = ecx

; 2240 : {

  00000	55		 push	 ebp
  00001	8b ec		 mov	 ebp, esp

; 2241 : 	if( bApply )

  00003	83 7d 08 00	 cmp	 DWORD PTR _bApply$[ebp], 0
  00007	56		 push	 esi
  00008	8b f1		 mov	 esi, ecx
  0000a	0f 84 a6 00 00
	00		 je	 $LN2@SetDark

; 2242 : 	{
; 2243 : 		if( GetAdjParam( DST_IMMUNITY ) & CHS_DARK ) 

  00010	6a 3d		 push	 61			; 0000003dH
  00012	e8 00 00 00 00	 call	 ?GetAdjParam@CMover@@QAEHH@Z ; CMover::GetAdjParam
  00017	a9 00 01 00 00	 test	 eax, 256		; 00000100H
  0001c	74 07		 je	 SHORT $LN4@SetDark

; 2244 : 			return FALSE;		// ľĎČćżˇ ¸éżŞ»óĹÂ´Ů.

  0001e	33 c0		 xor	 eax, eax
  00020	5e		 pop	 esi

; 2264 : }

  00021	5d		 pop	 ebp
  00022	c2 0c 00	 ret	 12			; 0000000cH
$LN4@SetDark:
  00025	57		 push	 edi

; 2245 : 		SetDestParam( DST_CHRSTATE, CHS_DARK, NULL_CHGPARAM );

  00026	6a 01		 push	 1
  00028	68 ff ff ff 7f	 push	 2147483647		; 7fffffffH
  0002d	68 00 01 00 00	 push	 256			; 00000100H
  00032	6a 40		 push	 64			; 00000040H
  00034	8b ce		 mov	 ecx, esi
  00036	e8 00 00 00 00	 call	 ?SetDestParam@CMover@@QAEXHHHH@Z ; CMover::SetDestParam

; 2246 : 		SetDestParam( DST_ADJ_HITRATE, nAdjHitRate, NULL_CHGPARAM );

  0003b	8b 7d 10	 mov	 edi, DWORD PTR _nAdjHitRate$[ebp]
  0003e	8b ce		 mov	 ecx, esi
  00040	6a 01		 push	 1
  00042	68 ff ff ff 7f	 push	 2147483647		; 7fffffffH
  00047	57		 push	 edi
  00048	6a 2f		 push	 47			; 0000002fH
  0004a	e8 00 00 00 00	 call	 ?SetDestParam@CMover@@QAEXHHHH@Z ; CMover::SetDestParam

; 2247 : 		m_wDarkCnt = (short)( (tmMaxTime / 1000.0f) * PROCESS_COUNT );

  0004f	8b 45 0c	 mov	 eax, DWORD PTR _tmMaxTime$[ebp]
  00052	66 0f 6e c0	 movd	 xmm0, eax
  00056	f3 0f e6 c0	 cvtdq2pd xmm0, xmm0
  0005a	c1 e8 1f	 shr	 eax, 31			; 0000001fH
  0005d	f2 0f 58 04 c5
	00 00 00 00	 addsd	 xmm0, QWORD PTR __xmm@41f00000000000000000000000000000[eax*8]
  00066	66 0f 5a c0	 cvtpd2ps xmm0, xmm0
  0006a	f3 0f 5e 05 00
	00 00 00	 divss	 xmm0, DWORD PTR __real@447a0000
  00072	f3 0f 59 05 00
	00 00 00	 mulss	 xmm0, DWORD PTR __real@41700000
  0007a	f3 0f 2c c0	 cvttss2si eax, xmm0
  0007e	66 89 86 ca 06
	00 00		 mov	 WORD PTR [esi+1738], ax

; 2248 : 		if( nAdjHitRate == -1 )

  00085	83 ff ff	 cmp	 edi, -1
  00088	75 17		 jne	 SHORT $LN5@SetDark

; 2249 : 			Error( "SetDark : %s ľîµŇČż°úŔÇ ¸íÁß·ü ĽöÁ¤Äˇ°ˇ ÁöÁ¤µÇÁö ľĘŔ˝", GetName() );

  0008a	6a 00		 push	 0
  0008c	8b ce		 mov	 ecx, esi
  0008e	e8 00 00 00 00	 call	 ?GetName@CMover@@QAEPBDH@Z ; CMover::GetName
  00093	50		 push	 eax
  00094	68 00 00 00 00	 push	 OFFSET ??_C@_0DG@PECENGHI@SetDark?5?3?5?$CFs?5?$LO?n?$LF?R?H?$LP?$LA?z?$MA?G?5?$LI?m?A?$NP?$LH?$PM?5@
  00099	e8 00 00 00 00	 call	 ?Error@@YAPBDPBDZZ	; Error
  0009e	83 c4 08	 add	 esp, 8
$LN5@SetDark:

; 2250 : 		m_wDarkVal = nAdjHitRate;

  000a1	0f b7 c7	 movzx	 eax, di
  000a4	5f		 pop	 edi

; 2261 : 		m_wDarkVal = 0;
; 2262 : 	}
; 2263 : 	return TRUE;

  000a5	66 89 86 cc 06
	00 00		 mov	 WORD PTR [esi+1740], ax
  000ac	b8 01 00 00 00	 mov	 eax, 1
  000b1	5e		 pop	 esi

; 2264 : }

  000b2	5d		 pop	 ebp
  000b3	c2 0c 00	 ret	 12			; 0000000cH
$LN2@SetDark:

; 2251 : 	} else
; 2252 : 	{
; 2253 : 		if( GetAdjParam( DST_CHRSTATE) & CHS_DARK )

  000b6	6a 40		 push	 64			; 00000040H
  000b8	e8 00 00 00 00	 call	 ?GetAdjParam@CMover@@QAEHH@Z ; CMover::GetAdjParam
  000bd	a9 00 01 00 00	 test	 eax, 256		; 00000100H
  000c2	74 23		 je	 SHORT $LN8@SetDark

; 2254 : 		{
; 2255 : 			ResetDestParam( DST_CHRSTATE, CHS_DARK, TRUE );		// ľĎČć»óĹÂÇŘÁ¦

  000c4	6a 01		 push	 1
  000c6	68 00 01 00 00	 push	 256			; 00000100H
  000cb	6a 40		 push	 64			; 00000040H
  000cd	8b ce		 mov	 ecx, esi
  000cf	e8 00 00 00 00	 call	 ?ResetDestParam@CMover@@QAEXHHH@Z ; CMover::ResetDestParam

; 2256 : 			ResetDestParam( DST_ADJ_HITRATE, m_wDarkVal, TRUE );	// ľĎČćµżľČ ĽöÁ¤µĆ´ř ¸íÁß·ü ÇŘÁ¦

  000d4	0f bf 86 cc 06
	00 00		 movsx	 eax, WORD PTR [esi+1740]
  000db	8b ce		 mov	 ecx, esi
  000dd	6a 01		 push	 1
  000df	50		 push	 eax
  000e0	6a 2f		 push	 47			; 0000002fH
  000e2	e8 00 00 00 00	 call	 ?ResetDestParam@CMover@@QAEXHHH@Z ; CMover::ResetDestParam
$LN8@SetDark:

; 2257 : //			if( m_wDarkCnt >= 0 )
; 2258 : //				Error( "SetDark : %d", m_wDarkVal );
; 2259 : 		}
; 2260 : 		m_wDarkCnt = 0;

  000e7	33 c0		 xor	 eax, eax
  000e9	66 89 86 ca 06
	00 00		 mov	 WORD PTR [esi+1738], ax

; 2261 : 		m_wDarkVal = 0;
; 2262 : 	}
; 2263 : 	return TRUE;

  000f0	66 89 86 cc 06
	00 00		 mov	 WORD PTR [esi+1740], ax
  000f7	b8 01 00 00 00	 mov	 eax, 1
  000fc	5e		 pop	 esi

; 2264 : }

  000fd	5d		 pop	 ebp
  000fe	c2 0c 00	 ret	 12			; 0000000cH
?SetDark@CMover@@QAEHHKH@Z ENDP				; CMover::SetDark
_TEXT	ENDS
; Function compile flags: /Ogtp
; File C:\IAGOS\server\v18\Source\Source\_Common\MoverParam.cpp
;	COMDAT ?SetPoison@CMover@@QAEHHKKKF@Z
_TEXT	SEGMENT
_bApply$ = 8						; size = 4
_idAttacker$ = 12					; size = 4
_tmMaxTime$ = 16					; size = 4
_tmUnit$ = 20						; size = 4
_wDamage$ = 24						; size = 2
?SetPoison@CMover@@QAEHHKKKF@Z PROC			; CMover::SetPoison, COMDAT
; _this$ = ecx

; 2206 : {

  00000	55		 push	 ebp
  00001	8b ec		 mov	 ebp, esp

; 2207 : 	if( bApply )

  00003	83 7d 08 00	 cmp	 DWORD PTR _bApply$[ebp], 0
  00007	56		 push	 esi
  00008	57		 push	 edi
  00009	8b f1		 mov	 esi, ecx
  0000b	0f 84 c7 00 00
	00		 je	 $LN2@SetPoison

; 2208 : 	{
; 2209 : 		if( GetAdjParam( DST_IMMUNITY ) & CHS_POISON ) 

  00011	6a 3d		 push	 61			; 0000003dH
  00013	e8 00 00 00 00	 call	 ?GetAdjParam@CMover@@QAEHH@Z ; CMover::GetAdjParam
  00018	a9 00 08 00 00	 test	 eax, 2048		; 00000800H
  0001d	74 08		 je	 SHORT $LN4@SetPoison

; 2210 : 			return FALSE;		// µ¶żˇ ¸éżŞ»óĹÂ´Ů.

  0001f	5f		 pop	 edi
  00020	33 c0		 xor	 eax, eax

; 2233 : }

  00022	5e		 pop	 esi
  00023	5d		 pop	 ebp
  00024	c2 14 00	 ret	 20			; 00000014H
$LN4@SetPoison:
  00027	53		 push	 ebx

; 2211 : 		SetDestParam( DST_CHRSTATE, CHS_POISON, NULL_CHGPARAM );

  00028	6a 01		 push	 1
  0002a	68 ff ff ff 7f	 push	 2147483647		; 7fffffffH
  0002f	68 00 08 00 00	 push	 2048			; 00000800H
  00034	6a 40		 push	 64			; 00000040H
  00036	8b ce		 mov	 ecx, esi
  00038	e8 00 00 00 00	 call	 ?SetDestParam@CMover@@QAEXHHHH@Z ; CMover::SetDestParam

; 2212 : 		if( tmMaxTime == -1 )

  0003d	8b 5d 10	 mov	 ebx, DWORD PTR _tmMaxTime$[ebp]
  00040	83 fb ff	 cmp	 ebx, -1
  00043	75 17		 jne	 SHORT $LN5@SetPoison

; 2213 : 			Error( "SetPoison : %s µ¶Čż°úŔÇ ÁöĽÓ˝Ă°ŁŔĚ ÁöÁ¤µÇÁö ľĘŔ˝", GetName() );

  00045	6a 00		 push	 0
  00047	8b ce		 mov	 ecx, esi
  00049	e8 00 00 00 00	 call	 ?GetName@CMover@@QAEPBDH@Z ; CMover::GetName
  0004e	50		 push	 eax
  0004f	68 00 00 00 00	 push	 OFFSET ??_C@_0DB@PFHOFKCA@SetPoison?5?3?5?$CFs?5?$LF?$LG?H?$LP?$LA?z?$MA?G?5?A?v?$LM?S?$LN?C?$LA@
  00054	e8 00 00 00 00	 call	 ?Error@@YAPBDPBDZZ	; Error
  00059	83 c4 08	 add	 esp, 8
$LN5@SetPoison:

; 2214 : 		if( tmUnit == -1 )

  0005c	8b 7d 14	 mov	 edi, DWORD PTR _tmUnit$[ebp]
  0005f	83 ff ff	 cmp	 edi, -1
  00062	75 17		 jne	 SHORT $LN6@SetPoison

; 2215 : 			Error( "SetPoison : %s µ¶Čż°úŔÇ tick ˝Ă°ŁŔĚ ÁöÁ¤µÇÁö ľĘŔ˝", GetName() );

  00064	6a 00		 push	 0
  00066	8b ce		 mov	 ecx, esi
  00068	e8 00 00 00 00	 call	 ?GetName@CMover@@QAEPBDH@Z ; CMover::GetName
  0006d	50		 push	 eax
  0006e	68 00 00 00 00	 push	 OFFSET ??_C@_0DC@FNFHKMOG@SetPoison?5?3?5?$CFs?5?$LF?$LG?H?$LP?$LA?z?$MA?G?5tick?5?$LN?C@
  00073	e8 00 00 00 00	 call	 ?Error@@YAPBDPBDZZ	; Error
  00078	83 c4 08	 add	 esp, 8
$LN6@SetPoison:

; 2216 : 		if( wDamage == -1 )

  0007b	66 83 7d 18 ff	 cmp	 WORD PTR _wDamage$[ebp], -1
  00080	75 17		 jne	 SHORT $LN7@SetPoison

; 2217 : 			Error( "SetPoison : %s µ¶Čż°úŔÇ Ć˝´ç µĄąĚÁö°ˇ ÁöÁ¤µÇÁö ľĘŔ˝", GetName() );

  00082	6a 00		 push	 0
  00084	8b ce		 mov	 ecx, esi
  00086	e8 00 00 00 00	 call	 ?GetName@CMover@@QAEPBDH@Z ; CMover::GetName
  0008b	50		 push	 eax
  0008c	68 00 00 00 00	 push	 OFFSET ??_C@_0DE@BJJIDPPP@SetPoison?5?3?5?$CFs?5?$LF?$LG?H?$LP?$LA?z?$MA?G?5?F?$LN?$LE?g?5?$LF?$KF@
  00091	e8 00 00 00 00	 call	 ?Error@@YAPBDPBDZZ	; Error
  00096	83 c4 08	 add	 esp, 8
$LN7@SetPoison:

; 2218 : 		
; 2219 : 		m_wPoisonCnt = (short)( (tmMaxTime / 1000.0f) * PROCESS_COUNT );			// 1/1000

  00099	66 0f 6e c3	 movd	 xmm0, ebx
  0009d	f3 0f e6 c0	 cvtdq2pd xmm0, xmm0
  000a1	c1 eb 1f	 shr	 ebx, 31			; 0000001fH

; 2220 : 		m_wPoisonDamage = wDamage;
; 2221 : 		m_tmPoisonUnit = tmUnit;
; 2222 : 		m_idPoisonAttacker = idAttacker;

  000a4	8b 45 0c	 mov	 eax, DWORD PTR _idAttacker$[ebp]
  000a7	0f b7 4d 18	 movzx	 ecx, WORD PTR _wDamage$[ebp]
  000ab	89 86 bc 06 00
	00		 mov	 DWORD PTR [esi+1724], eax
  000b1	f2 0f 58 04 dd
	00 00 00 00	 addsd	 xmm0, QWORD PTR __xmm@41f00000000000000000000000000000[ebx*8]
  000ba	5b		 pop	 ebx
  000bb	66 0f 5a c0	 cvtpd2ps xmm0, xmm0
  000bf	f3 0f 5e 05 00
	00 00 00	 divss	 xmm0, DWORD PTR __real@447a0000
  000c7	f3 0f 59 05 00
	00 00 00	 mulss	 xmm0, DWORD PTR __real@41700000
  000cf	f3 0f 2c c0	 cvttss2si eax, xmm0
  000d3	0f b7 c0	 movzx	 eax, ax

; 2223 : 	} else

  000d6	eb 24		 jmp	 SHORT $LN3@SetPoison
$LN2@SetPoison:

; 2224 : 	{
; 2225 : 		if( GetAdjParam( DST_CHRSTATE) & CHS_POISON )

  000d8	6a 40		 push	 64			; 00000040H
  000da	e8 00 00 00 00	 call	 ?GetAdjParam@CMover@@QAEHH@Z ; CMover::GetAdjParam
  000df	a9 00 08 00 00	 test	 eax, 2048		; 00000800H
  000e4	74 10		 je	 SHORT $LN8@SetPoison

; 2226 : 			ResetDestParam( DST_CHRSTATE, CHS_POISON, TRUE );	// µ¶»óĹÂ ÇŘÁ¦

  000e6	6a 01		 push	 1
  000e8	68 00 08 00 00	 push	 2048			; 00000800H
  000ed	6a 40		 push	 64			; 00000040H
  000ef	8b ce		 mov	 ecx, esi
  000f1	e8 00 00 00 00	 call	 ?ResetDestParam@CMover@@QAEXHHH@Z ; CMover::ResetDestParam
$LN8@SetPoison:

; 2227 : 		m_wPoisonCnt = 0;
; 2228 : 		m_wPoisonDamage = 0;
; 2229 : 		m_tmPoisonUnit = 0;

  000f6	33 ff		 xor	 edi, edi
  000f8	33 c9		 xor	 ecx, ecx
  000fa	33 c0		 xor	 eax, eax
$LN3@SetPoison:

; 2230 : 	}
; 2231 : 
; 2232 : 	return TRUE;

  000fc	66 89 86 c6 06
	00 00		 mov	 WORD PTR [esi+1734], ax
  00103	b8 01 00 00 00	 mov	 eax, 1
  00108	66 89 8e c8 06
	00 00		 mov	 WORD PTR [esi+1736], cx
  0010f	89 be b4 06 00
	00		 mov	 DWORD PTR [esi+1716], edi
  00115	5f		 pop	 edi

; 2233 : }

  00116	5e		 pop	 esi
  00117	5d		 pop	 ebp
  00118	c2 14 00	 ret	 20			; 00000014H
?SetPoison@CMover@@QAEHHKKKF@Z ENDP			; CMover::SetPoison
_TEXT	ENDS
; Function compile flags: /Ogtp
; File C:\IAGOS\server\v18\Source\Source\_Common\MoverParam.cpp
; File C:\IAGOS\server\v18\Source\Source\_Common\Mover.h
; File C:\IAGOS\server\v18\Source\Source\_Common\Project.h
; File C:\IAGOS\server\v18\Source\Source\_Common\MoverParam.cpp
; File C:\IAGOS\server\v18\Source\Source\_Common\Mover.h
; File C:\IAGOS\server\v18\Source\Source\_Common\MoverParam.cpp
;	COMDAT ?SetStun@CMover@@QAEHHK@Z
_TEXT	SEGMENT
_bApply$ = 8						; size = 4
_tmMaxTime$ = 12					; size = 4
?SetStun@CMover@@QAEHHK@Z PROC				; CMover::SetStun, COMDAT
; _this$ = ecx

; 2155 : {

  00000	55		 push	 ebp
  00001	8b ec		 mov	 ebp, esp

; 2156 : 	if( bApply )

  00003	83 7d 08 00	 cmp	 DWORD PTR _bApply$[ebp], 0
  00007	56		 push	 esi
  00008	57		 push	 edi
  00009	8b 7d 0c	 mov	 edi, DWORD PTR _tmMaxTime$[ebp]
  0000c	8b f1		 mov	 esi, ecx
  0000e	0f 84 f0 00 00
	00		 je	 $LN2@SetStun
; File C:\IAGOS\server\v18\Source\Source\_Common\Mover.h

; 1020 : 	MoverProp*		GetProp() { return prj.GetMoverProp( m_dwIndex ); }	// °´ĂĽŔÇ ÇÁ·ÎĆŰĆĽ ľň±â 	

  00014	8b 86 74 01 00
	00		 mov	 eax, DWORD PTR [esi+372]
; File C:\IAGOS\server\v18\Source\Source\_Common\Project.h

; 1406 : 	VERIFY_RANGE( nIndex, 0, m_nMoverPropSize, "GetMoverProp range_error", NULL );

  0001a	8b 0d b4 01 00
	00		 mov	 ecx, DWORD PTR ?prj@@3VCProject@@A+436
  00020	85 c0		 test	 eax, eax
  00022	78 12		 js	 SHORT $LN18@SetStun
  00024	3b c1		 cmp	 eax, ecx
  00026	7d 0e		 jge	 SHORT $LN18@SetStun

; 1407 : 	return m_pPropMover + nIndex;

  00028	69 c0 90 06 00
	00		 imul	 eax, eax, 1680
  0002e	03 05 b8 01 00
	00		 add	 eax, DWORD PTR ?prj@@3VCProject@@A+440
  00034	eb 18		 jmp	 SHORT $LN13@SetStun
$LN18@SetStun:

; 579  : 	LPCTSTR szErr = Error( _T( "%s min:%d, max:%d, index:%d" ), szMsg, nMin, nMax, nIndex ); 

  00036	50		 push	 eax
  00037	51		 push	 ecx
  00038	6a 00		 push	 0
  0003a	68 00 00 00 00	 push	 OFFSET ??_C@_0BJ@GKPOBPPI@GetMoverProp?5range_error@
  0003f	68 00 00 00 00	 push	 OFFSET ??_C@_0BM@HMFGHCP@?$CFs?5min?3?$CFd?0?5max?3?$CFd?0?5index?3?$CFd@
  00044	e8 00 00 00 00	 call	 ?Error@@YAPBDPBDZZ	; Error
  00049	83 c4 14	 add	 esp, 20			; 00000014H

; 1406 : 	VERIFY_RANGE( nIndex, 0, m_nMoverPropSize, "GetMoverProp range_error", NULL );

  0004c	33 c0		 xor	 eax, eax
$LN13@SetStun:
; File C:\IAGOS\server\v18\Source\Source\_Common\MoverParam.cpp

; 2159 : 		if( pMoverProp->dwClass == RANK_SUPER || pMoverProp->dwClass == RANK_MIDBOSS )

  0004e	8b 80 94 00 00
	00		 mov	 eax, DWORD PTR [eax+148]
  00054	83 f8 07	 cmp	 eax, 7
  00057	0f 84 9f 00 00
	00		 je	 $LN5@SetStun
  0005d	83 f8 05	 cmp	 eax, 5
  00060	0f 84 96 00 00
	00		 je	 $LN5@SetStun

; 2161 : 
; 2162 : #ifdef __SLEEPING_FIX
; 2163 : 		if (GetAdjParam(DST_IMMUNITY) & CHS_STUN || GetAdjParam(DST_IMMUNITY) & CHS_SLEEPING)

  00066	6a 3d		 push	 61			; 0000003dH
  00068	8b ce		 mov	 ecx, esi
  0006a	e8 00 00 00 00	 call	 ?GetAdjParam@CMover@@QAEHH@Z ; CMover::GetAdjParam
  0006f	a8 08		 test	 al, 8
  00071	0f 85 85 00 00
	00		 jne	 $LN5@SetStun
  00077	6a 3d		 push	 61			; 0000003dH
  00079	8b ce		 mov	 ecx, esi
  0007b	e8 00 00 00 00	 call	 ?GetAdjParam@CMover@@QAEHH@Z ; CMover::GetAdjParam
  00080	a9 00 00 20 00	 test	 eax, 2097152		; 00200000H
  00085	75 75		 jne	 SHORT $LN5@SetStun

; 2164 : #else
; 2165 : 		if (GetAdjParam(DST_IMMUNITY) & CHS_STUN)
; 2166 : #endif
; 2167 : 			return FALSE;		// µ¶żˇ ¸éżŞ»óĹÂ´Ů.
; 2168 : 
; 2169 : 		SetDestParam( DST_CHRSTATE, CHS_STUN, NULL_CHGPARAM, FALSE );

  00087	6a 00		 push	 0
  00089	68 ff ff ff 7f	 push	 2147483647		; 7fffffffH
  0008e	6a 08		 push	 8
  00090	6a 40		 push	 64			; 00000040H
  00092	8b ce		 mov	 ecx, esi
  00094	e8 00 00 00 00	 call	 ?SetDestParam@CMover@@QAEXHHHH@Z ; CMover::SetDestParam

; 2170 : #ifdef __SLEEPING_FIX
; 2171 : 		SetDestParam(DST_CHRSTATE, CHS_SLEEPING, NULL_CHGPARAM, FALSE);

  00099	6a 00		 push	 0
  0009b	68 ff ff ff 7f	 push	 2147483647		; 7fffffffH
  000a0	68 00 00 20 00	 push	 2097152			; 00200000H
  000a5	6a 40		 push	 64			; 00000040H
  000a7	8b ce		 mov	 ecx, esi
  000a9	e8 00 00 00 00	 call	 ?SetDestParam@CMover@@QAEXHHHH@Z ; CMover::SetDestParam
; File C:\IAGOS\server\v18\Source\Source\_Common\Mover.h

; 1785 : 	if( m_pActMover )	

  000ae	8b 8e 38 02 00
	00		 mov	 ecx, DWORD PTR [esi+568]
  000b4	85 c9		 test	 ecx, ecx
  000b6	74 11		 je	 SHORT $LN23@SetStun

; 1786 : 		return m_pActMover->SendActMsg( dwMsg, nParam1, nParam2, nParam3, nParam4 );	

  000b8	8b 01		 mov	 eax, DWORD PTR [ecx]
  000ba	6a 00		 push	 0
  000bc	6a 00		 push	 0
  000be	6a 00		 push	 0
  000c0	6a 00		 push	 0
  000c2	6a 00		 push	 0
  000c4	6a 10		 push	 16			; 00000010H
  000c6	ff 50 04	 call	 DWORD PTR [eax+4]
$LN23@SetStun:
  000c9	66 0f 6e c7	 movd	 xmm0, edi
; File C:\IAGOS\server\v18\Source\Source\_Common\MoverParam.cpp

; 2174 : 		m_wStunCnt = (short)( (tmMaxTime / 1000.0f) * PROCESS_COUNT );		// ľó¸¶µżľČŔĚłŞ ˝şĹĎ»óĹÂ°ˇ µÇ´ŔłÄ.

  000cd	8b c7		 mov	 eax, edi
  000cf	f3 0f e6 c0	 cvtdq2pd xmm0, xmm0
  000d3	c1 e8 1f	 shr	 eax, 31			; 0000001fH
  000d6	f2 0f 58 04 c5
	00 00 00 00	 addsd	 xmm0, QWORD PTR __xmm@41f00000000000000000000000000000[eax*8]
  000df	66 0f 5a c0	 cvtpd2ps xmm0, xmm0
  000e3	f3 0f 5e 05 00
	00 00 00	 divss	 xmm0, DWORD PTR __real@447a0000
  000eb	f3 0f 59 05 00
	00 00 00	 mulss	 xmm0, DWORD PTR __real@41700000
  000f3	f3 0f 2c c0	 cvttss2si eax, xmm0
  000f7	0f b7 c0	 movzx	 eax, ax

; 2175 : 	}

  000fa	eb 4c		 jmp	 SHORT $LN3@SetStun
$LN5@SetStun:
  000fc	5f		 pop	 edi

; 2160 : 			return FALSE;			// ˝´ĆŰ¸÷Ŕş ˝şĹĎżˇ ľČ°É¸°´Ů. ŔĚ·¸°Ô ÇĎÁö¸»°í ˝şĹĎżˇ ŔĚąĂŔĚ µÇ°Ô ĽłÁ¤ÇĎ´Â°Ô ÁÁ´Ů.

  000fd	33 c0		 xor	 eax, eax

; 2197 : }

  000ff	5e		 pop	 esi
  00100	5d		 pop	 ebp
  00101	c2 08 00	 ret	 8
$LN2@SetStun:

; 2176 : 	else
; 2177 : 	{
; 2178 : #ifdef __SLEEPING_FIX
; 2179 : 		if (GetAdjParam(DST_CHRSTATE) & CHS_STUN || GetAdjParam(DST_CHRSTATE) & CHS_SLEEPING)

  00104	6a 40		 push	 64			; 00000040H
  00106	e8 00 00 00 00	 call	 ?GetAdjParam@CMover@@QAEHH@Z ; CMover::GetAdjParam
  0010b	a8 08		 test	 al, 8
  0010d	75 10		 jne	 SHORT $LN9@SetStun
  0010f	6a 40		 push	 64			; 00000040H
  00111	8b ce		 mov	 ecx, esi
  00113	e8 00 00 00 00	 call	 ?GetAdjParam@CMover@@QAEHH@Z ; CMover::GetAdjParam
  00118	a9 00 00 20 00	 test	 eax, 2097152		; 00200000H
  0011d	74 1d		 je	 SHORT $LN8@SetStun
$LN9@SetStun:

; 2180 : 		{
; 2181 : 			ResetDestParam(DST_CHRSTATE, CHS_STUN, FALSE);

  0011f	6a 00		 push	 0
  00121	6a 08		 push	 8
  00123	6a 40		 push	 64			; 00000040H
  00125	8b ce		 mov	 ecx, esi
  00127	e8 00 00 00 00	 call	 ?ResetDestParam@CMover@@QAEXHHH@Z ; CMover::ResetDestParam

; 2182 : 			ResetDestParam(DST_CHRSTATE, CHS_SLEEPING, FALSE);

  0012c	6a 00		 push	 0
  0012e	68 00 00 20 00	 push	 2097152			; 00200000H
  00133	6a 40		 push	 64			; 00000040H
  00135	8b ce		 mov	 ecx, esi
  00137	e8 00 00 00 00	 call	 ?ResetDestParam@CMover@@QAEXHHH@Z ; CMover::ResetDestParam
$LN8@SetStun:

; 2183 : 		}
; 2184 : #else
; 2185 : 		if( GetAdjParam( DST_CHRSTATE ) & CHS_STUN )	// ŔĚ°Ĺ °Ë»çľČÇĎ¸é ¸Ĺąř Ĺ¬¶ó·Î ResetDestParamŔ» łŻ¸°´Ů.
; 2186 : 			ResetDestParam( DST_CHRSTATE, CHS_STUN, FALSE);	// ˝şĹĎ »óĹÂ ÇŘÁ¦.
; 2187 : #endif
; 2188 : 		m_wStunCnt = 0;
; 2189 : 		m_dwFlag &= (~MVRF_NOACTION);				// ľ×ĽÇ ±ÝÁö »óĹÂ·Î ŔüČŻ.

  0013c	81 a6 44 02 00
	00 ff f8 ff ff	 and	 DWORD PTR [esi+580], -1793 ; fffff8ffH
  00146	33 c0		 xor	 eax, eax
$LN3@SetStun:

; 2190 : 	}
; 2191 : 
; 2192 : #ifdef __WORLDSERVER
; 2193 : 	g_UserMng.AddSetStun( this, tmMaxTime );

  00148	57		 push	 edi
  00149	56		 push	 esi
  0014a	b9 00 00 00 00	 mov	 ecx, OFFSET ?g_UserMng@@3VCUserMng@@A ; g_UserMng
  0014f	66 89 86 c4 06
	00 00		 mov	 WORD PTR [esi+1732], ax
  00156	e8 00 00 00 00	 call	 ?AddSetStun@CUserMng@@QAEXPAVCMover@@H@Z ; CUserMng::AddSetStun
  0015b	5f		 pop	 edi

; 2194 : #endif // Worldserver
; 2195 : 
; 2196 : 	return TRUE;

  0015c	b8 01 00 00 00	 mov	 eax, 1

; 2197 : }

  00161	5e		 pop	 esi
  00162	5d		 pop	 ebp
  00163	c2 08 00	 ret	 8
?SetStun@CMover@@QAEHHK@Z ENDP				; CMover::SetStun
_TEXT	ENDS
; Function compile flags: /Ogtp
; File C:\IAGOS\server\v18\Source\Source\_Common\MoverParam.cpp
;	COMDAT ?SetDarkCover@CMover@@QAEHHK@Z
_TEXT	SEGMENT
_bApply$ = 8						; size = 4
_tmMaxTime$ = 12					; size = 4
?SetDarkCover@CMover@@QAEHHK@Z PROC			; CMover::SetDarkCover, COMDAT
; _this$ = ecx

; 2134 : {

  00000	55		 push	 ebp
  00001	8b ec		 mov	 ebp, esp

; 2135 : 	if( bApply )

  00003	83 7d 08 00	 cmp	 DWORD PTR _bApply$[ebp], 0
  00007	56		 push	 esi
  00008	8b f1		 mov	 esi, ecx
  0000a	74 6d		 je	 SHORT $LN2@SetDarkCov

; 2136 : 	{
; 2137 : 		if( GetAdjParam( DST_IMMUNITY ) & CHS_INVISIBILITY )	// Ĺő¸íČ­żˇ ¸éżŞŔĚ¶ó....±×·±°Íµµ ŔÖłŞ?

  0000c	6a 3d		 push	 61			; 0000003dH
  0000e	e8 00 00 00 00	 call	 ?GetAdjParam@CMover@@QAEHH@Z ; CMover::GetAdjParam
  00013	a9 00 04 00 00	 test	 eax, 1024		; 00000400H
  00018	74 07		 je	 SHORT $LN4@SetDarkCov

; 2138 : 			return FALSE;	

  0001a	33 c0		 xor	 eax, eax
  0001c	5e		 pop	 esi

; 2151 : }

  0001d	5d		 pop	 ebp
  0001e	c2 08 00	 ret	 8
$LN4@SetDarkCov:

; 2139 : 		SetDestParam( DST_CHRSTATE, CHS_INVISIBILITY, NULL_CHGPARAM );

  00021	6a 01		 push	 1
  00023	68 ff ff ff 7f	 push	 2147483647		; 7fffffffH
  00028	68 00 04 00 00	 push	 1024			; 00000400H
  0002d	6a 40		 push	 64			; 00000040H
  0002f	8b ce		 mov	 ecx, esi
  00031	e8 00 00 00 00	 call	 ?SetDestParam@CMover@@QAEXHHHH@Z ; CMover::SetDestParam

; 2140 : 		m_wDarkCover =	(short)( (tmMaxTime / 1000.0f) * PROCESS_COUNT );

  00036	8b 45 0c	 mov	 eax, DWORD PTR _tmMaxTime$[ebp]
  00039	66 0f 6e c0	 movd	 xmm0, eax
  0003d	f3 0f e6 c0	 cvtdq2pd xmm0, xmm0
  00041	c1 e8 1f	 shr	 eax, 31			; 0000001fH
  00044	f2 0f 58 04 c5
	00 00 00 00	 addsd	 xmm0, QWORD PTR __xmm@41f00000000000000000000000000000[eax*8]
  0004d	66 0f 5a c0	 cvtpd2ps xmm0, xmm0
  00051	f3 0f 5e 05 00
	00 00 00	 divss	 xmm0, DWORD PTR __real@447a0000
  00059	f3 0f 59 05 00
	00 00 00	 mulss	 xmm0, DWORD PTR __real@41700000
  00061	f3 0f 2c c0	 cvttss2si eax, xmm0
  00065	0f b7 c0	 movzx	 eax, ax

; 2148 : 	}
; 2149 : 
; 2150 : 	return TRUE;

  00068	66 89 86 d2 06
	00 00		 mov	 WORD PTR [esi+1746], ax
  0006f	b8 01 00 00 00	 mov	 eax, 1
  00074	5e		 pop	 esi

; 2151 : }

  00075	5d		 pop	 ebp
  00076	c2 08 00	 ret	 8
$LN2@SetDarkCov:

; 2141 : 	} else
; 2142 : 	{
; 2143 : 		if( GetAdjParam( DST_CHRSTATE) & CHS_INVISIBILITY )

  00079	6a 40		 push	 64			; 00000040H
  0007b	e8 00 00 00 00	 call	 ?GetAdjParam@CMover@@QAEHH@Z ; CMover::GetAdjParam
  00080	a9 00 04 00 00	 test	 eax, 1024		; 00000400H
  00085	74 10		 je	 SHORT $LN5@SetDarkCov

; 2144 : 		{
; 2145 : 			ResetDestParam( DST_CHRSTATE, CHS_INVISIBILITY, TRUE );		// ľĎČć»óĹÂÇŘÁ¦

  00087	6a 01		 push	 1
  00089	68 00 04 00 00	 push	 1024			; 00000400H
  0008e	6a 40		 push	 64			; 00000040H
  00090	8b ce		 mov	 ecx, esi
  00092	e8 00 00 00 00	 call	 ?ResetDestParam@CMover@@QAEXHHH@Z ; CMover::ResetDestParam
$LN5@SetDarkCov:

; 2146 : 		}
; 2147 : 		m_wDarkCover = 0;

  00097	33 c0		 xor	 eax, eax

; 2148 : 	}
; 2149 : 
; 2150 : 	return TRUE;

  00099	66 89 86 d2 06
	00 00		 mov	 WORD PTR [esi+1746], ax
  000a0	b8 01 00 00 00	 mov	 eax, 1
  000a5	5e		 pop	 esi

; 2151 : }

  000a6	5d		 pop	 ebp
  000a7	c2 08 00	 ret	 8
?SetDarkCover@CMover@@QAEHHK@Z ENDP			; CMover::SetDarkCover
_TEXT	ENDS
; Function compile flags: /Ogtp
; File C:\IAGOS\server\v18\Source\Source\_Common\MoverParam.cpp
;	COMDAT ?GetMaxPoint@CMover@@QAEHH@Z
_TEXT	SEGMENT
_nDest$ = 8						; size = 4
?GetMaxPoint@CMover@@QAEHH@Z PROC			; CMover::GetMaxPoint, COMDAT
; _this$ = ecx

; 2993 : {

  00000	55		 push	 ebp
  00001	8b ec		 mov	 ebp, esp

; 2994 : 	switch( nDest )

  00003	8b 45 08	 mov	 eax, DWORD PTR _nDest$[ebp]
  00006	83 e8 26	 sub	 eax, 38			; 00000026H
  00009	74 22		 je	 SHORT $LN4@GetMaxPoin
  0000b	83 e8 01	 sub	 eax, 1
  0000e	74 14		 je	 SHORT $LN5@GetMaxPoin
  00010	83 e8 01	 sub	 eax, 1
  00013	74 06		 je	 SHORT $LN6@GetMaxPoin

; 3002 : 	}
; 3003 : 	
; 3004 : 	return 0;

  00015	33 c0		 xor	 eax, eax

; 3005 : }

  00017	5d		 pop	 ebp
  00018	c2 04 00	 ret	 4
$LN6@GetMaxPoin:

; 3000 : 		case DST_FP:
; 3001 : 			return GetMaxFatiguePoint();

  0001b	e8 00 00 00 00	 call	 ?GetMaxFatiguePoint@CMover@@QAEHXZ ; CMover::GetMaxFatiguePoint

; 3005 : }

  00020	5d		 pop	 ebp
  00021	c2 04 00	 ret	 4
$LN5@GetMaxPoin:

; 2998 : 		case DST_MP:
; 2999 : 			return GetMaxManaPoint();

  00024	e8 00 00 00 00	 call	 ?GetMaxManaPoint@CMover@@QAEHXZ ; CMover::GetMaxManaPoint

; 3005 : }

  00029	5d		 pop	 ebp
  0002a	c2 04 00	 ret	 4
$LN4@GetMaxPoin:

; 2995 : 	{
; 2996 : 		case DST_HP:
; 2997 : 			return GetMaxHitPoint();

  0002d	e8 00 00 00 00	 call	 ?GetMaxHitPoint@CMover@@QAEHXZ ; CMover::GetMaxHitPoint

; 3005 : }

  00032	5d		 pop	 ebp
  00033	c2 04 00	 ret	 4
?GetMaxPoint@CMover@@QAEHH@Z ENDP			; CMover::GetMaxPoint
_TEXT	ENDS
; Function compile flags: /Ogtp
; File C:\IAGOS\server\v18\Source\Source\_Common\MoverParam.cpp
;	COMDAT ?GetItemEnduranceWeight@CMover@@SAHH@Z
_TEXT	SEGMENT
_nEndurance$ = 8					; size = 4
?GetItemEnduranceWeight@CMover@@SAHH@Z PROC		; CMover::GetItemEnduranceWeight, COMDAT

; 3956 : 	int nMinusMultyPly = 5;
; 3957 : /*	if( nEndurance <= 50 )
; 3958 : 		return (int)3 * nMinusMultyPly;
; 3959 : 	else if( nEndurance <= 75 )
; 3960 : 		return (int)2 * nMinusMultyPly;
; 3961 : */	return 1 * nMinusMultyPly;

  00000	b8 05 00 00 00	 mov	 eax, 5

; 3962 : }

  00005	c3		 ret	 0
?GetItemEnduranceWeight@CMover@@SAHH@Z ENDP		; CMover::GetItemEnduranceWeight
_TEXT	ENDS
; Function compile flags: /Ogtp
; File C:\IAGOS\server\v18\Source\Source\_Common\MoverParam.cpp
;	COMDAT ?GetItemEnduranceInfluence@CMover@@SAMH@Z
_TEXT	SEGMENT
_nEndurance$ = 8					; size = 4
?GetItemEnduranceInfluence@CMover@@SAMH@Z PROC		; CMover::GetItemEnduranceInfluence, COMDAT

; 3944 : {

  00000	55		 push	 ebp
  00001	8b ec		 mov	 ebp, esp

; 3945 : 	if( nEndurance == 0 )

  00003	83 7d 08 00	 cmp	 DWORD PTR _nEndurance$[ebp], 0
  00007	75 04		 jne	 SHORT $LN2@GetItemEnd

; 3946 : 		return 0.0f;

  00009	d9 ee		 fldz

; 3952 : }

  0000b	5d		 pop	 ebp
  0000c	c3		 ret	 0
$LN2@GetItemEnd:

; 3947 : /*	else if( nEndurance <= 50 )
; 3948 : 		return 0.6f;
; 3949 : 	else if( nEndurance <= 75 )
; 3950 : 		return 0.8f;
; 3951 : */	return 1.0f;

  0000d	d9 e8		 fld1

; 3952 : }

  0000f	5d		 pop	 ebp
  00010	c3		 ret	 0
?GetItemEnduranceInfluence@CMover@@SAMH@Z ENDP		; CMover::GetItemEnduranceInfluence
_TEXT	ENDS
; Function compile flags: /Ogtp
; File C:\IAGOS\server\v18\Source\Source\_Common\Item.h
;	COMDAT ?GetAtId@?$CItemContainer@VCItemElem@@@@QAEPAVCItemElem@@K@Z
_TEXT	SEGMENT
_dwId$ = 8						; size = 4
?GetAtId@?$CItemContainer@VCItemElem@@@@QAEPAVCItemElem@@K@Z PROC ; CItemContainer<CItemElem>::GetAtId, COMDAT
; _this$ = ecx

; 518  : {

  00000	55		 push	 ebp
  00001	8b ec		 mov	 ebp, esp

; 519  : 	if( dwId >= (DWORD)( GetMax() ) ) return NULL;

  00003	8b 45 08	 mov	 eax, DWORD PTR _dwId$[ebp]
  00006	3b 41 0c	 cmp	 eax, DWORD PTR [ecx+12]
  00009	73 15		 jae	 SHORT $LN7@GetAtId

; 520  : 	T* pItemElem = &m_apItem[ dwId ];

  0000b	69 c0 b0 00 00
	00		 imul	 eax, eax, 176
  00011	03 41 10	 add	 eax, DWORD PTR [ecx+16]

; 50   : 	BOOL			IsEmpty() { return m_dwItemId ? FALSE : TRUE; }

  00014	33 c9		 xor	 ecx, ecx
  00016	39 48 0c	 cmp	 DWORD PTR [eax+12], ecx
  00019	0f 44 c1	 cmove	 eax, ecx

; 523  : 	return pItemElem;
; 524  : }

  0001c	5d		 pop	 ebp
  0001d	c2 04 00	 ret	 4
$LN7@GetAtId:

; 521  : 	if( pItemElem->IsEmpty() ) 
; 522  : 		return NULL;

  00020	33 c0		 xor	 eax, eax

; 523  : 	return pItemElem;
; 524  : }

  00022	5d		 pop	 ebp
  00023	c2 04 00	 ret	 4
?GetAtId@?$CItemContainer@VCItemElem@@@@QAEPAVCItemElem@@K@Z ENDP ; CItemContainer<CItemElem>::GetAtId
_TEXT	ENDS
; Function compile flags: /Ogtp
; File C:\Program Files\Microsoft Visual Studio\2022\Professional\VC\Tools\MSVC\14.44.35207\include\vector
;	COMDAT ?_Xlength@?$vector@JV?$allocator@J@std@@@std@@CAXXZ
_TEXT	SEGMENT
?_Xlength@?$vector@JV?$allocator@J@std@@@std@@CAXXZ PROC ; std::vector<long,std::allocator<long> >::_Xlength, COMDAT

; 2184 :         _Xlength_error("vector too long");

  00000	68 00 00 00 00	 push	 OFFSET ??_C@_0BA@FOIKENOD@vector?5too?5long@
  00005	e8 00 00 00 00	 call	 ?_Xlength_error@std@@YAXPBD@Z ; std::_Xlength_error
$LN3@Xlength:
  0000a	cc		 int	 3
?_Xlength@?$vector@JV?$allocator@J@std@@@std@@CAXXZ ENDP ; std::vector<long,std::allocator<long> >::_Xlength
_TEXT	ENDS
; Function compile flags: /Ogtp
; File C:\IAGOS\server\v18\Source\Source\_Common\Project.h
; File C:\IAGOS\server\v18\Source\Source\_Common\data.h
; File C:\IAGOS\server\v18\Source\Source\_Common\Project.h
;	COMDAT ?GetSkillProp@CProject@@QAEPAUItemProp@@H@Z
_TEXT	SEGMENT
_nIndex$ = 8						; size = 4
?GetSkillProp@CProject@@QAEPAUItemProp@@H@Z PROC	; CProject::GetSkillProp, COMDAT
; _this$ = ecx

; 1394 : { 

  00000	55		 push	 ebp
  00001	8b ec		 mov	 ebp, esp

; 1395 : 	VERIFY_RANGE( nIndex, 0, m_aPropSkill.GetSize(), "GetSkillProp range_error", NULL );

  00003	8b 55 08	 mov	 edx, DWORD PTR _nIndex$[ebp]
  00006	56		 push	 esi
  00007	85 d2		 test	 edx, edx
  00009	78 18		 js	 SHORT $LN14@GetSkillPr
  0000b	3b 91 64 02 00
	00		 cmp	 edx, DWORD PTR [ecx+612]
  00011	7d 10		 jge	 SHORT $LN14@GetSkillPr
; File C:\IAGOS\server\v18\Source\Source\_Common\data.h

; 270  : 	if( dwIndex >= (DWORD)m_nMaxIndex )

  00013	73 29		 jae	 SHORT $LN18@GetSkillPr

; 271  : 		return NULL;
; 272  : 	return (T*) m_apOffset[ dwIndex ];

  00015	8b 81 54 02 00
	00		 mov	 eax, DWORD PTR [ecx+596]
  0001b	5e		 pop	 esi
  0001c	8b 04 90	 mov	 eax, DWORD PTR [eax+edx*4]
; File C:\IAGOS\server\v18\Source\Source\_Common\Project.h

; 1397 : }

  0001f	5d		 pop	 ebp
  00020	c2 04 00	 ret	 4
$LN14@GetSkillPr:

; 579  : 	LPCTSTR szErr = Error( _T( "%s min:%d, max:%d, index:%d" ), szMsg, nMin, nMax, nIndex ); 

  00023	52		 push	 edx
  00024	ff b1 64 02 00
	00		 push	 DWORD PTR [ecx+612]
  0002a	6a 00		 push	 0
  0002c	68 00 00 00 00	 push	 OFFSET ??_C@_0BJ@GPNGCFMK@GetSkillProp?5range_error@
  00031	68 00 00 00 00	 push	 OFFSET ??_C@_0BM@HMFGHCP@?$CFs?5min?3?$CFd?0?5max?3?$CFd?0?5index?3?$CFd@
  00036	e8 00 00 00 00	 call	 ?Error@@YAPBDPBDZZ	; Error
  0003b	83 c4 14	 add	 esp, 20			; 00000014H
$LN18@GetSkillPr:

; 1397 : }

  0003e	33 c0		 xor	 eax, eax
  00040	5e		 pop	 esi
  00041	5d		 pop	 ebp
  00042	c2 04 00	 ret	 4
?GetSkillProp@CProject@@QAEPAUItemProp@@H@Z ENDP	; CProject::GetSkillProp
_TEXT	ENDS
; Function compile flags: /Ogtp
; File C:\IAGOS\server\v18\Source\Source\_Common\Project.h
; File C:\IAGOS\server\v18\Source\Source\_Common\data.h
; File C:\IAGOS\server\v18\Source\Source\_Common\Project.h
;	COMDAT ?GetItemProp@CProject@@QAEPAUItemProp@@H@Z
_TEXT	SEGMENT
_nIndex$ = 8						; size = 4
?GetItemProp@CProject@@QAEPAUItemProp@@H@Z PROC		; CProject::GetItemProp, COMDAT
; _this$ = ecx

; 1388 : { 

  00000	55		 push	 ebp
  00001	8b ec		 mov	 ebp, esp

; 1389 : 	VERIFY_RANGE_ASSERT( nIndex, 0, m_aPropItem.GetSize(), "GetItemProp range_error", NULL );

  00003	8b 55 08	 mov	 edx, DWORD PTR _nIndex$[ebp]
  00006	56		 push	 esi
  00007	85 d2		 test	 edx, edx
  00009	78 18		 js	 SHORT $LN14@GetItemPro
  0000b	3b 91 40 02 00
	00		 cmp	 edx, DWORD PTR [ecx+576]
  00011	7d 10		 jge	 SHORT $LN14@GetItemPro
; File C:\IAGOS\server\v18\Source\Source\_Common\data.h

; 270  : 	if( dwIndex >= (DWORD)m_nMaxIndex )

  00013	73 29		 jae	 SHORT $LN18@GetItemPro

; 271  : 		return NULL;
; 272  : 	return (T*) m_apOffset[ dwIndex ];

  00015	8b 81 30 02 00
	00		 mov	 eax, DWORD PTR [ecx+560]
  0001b	5e		 pop	 esi
  0001c	8b 04 90	 mov	 eax, DWORD PTR [eax+edx*4]
; File C:\IAGOS\server\v18\Source\Source\_Common\Project.h

; 1391 : }

  0001f	5d		 pop	 ebp
  00020	c2 04 00	 ret	 4
$LN14@GetItemPro:

; 579  : 	LPCTSTR szErr = Error( _T( "%s min:%d, max:%d, index:%d" ), szMsg, nMin, nMax, nIndex ); 

  00023	52		 push	 edx
  00024	ff b1 40 02 00
	00		 push	 DWORD PTR [ecx+576]
  0002a	6a 00		 push	 0
  0002c	68 00 00 00 00	 push	 OFFSET ??_C@_0BI@BEIFNGEL@GetItemProp?5range_error@
  00031	68 00 00 00 00	 push	 OFFSET ??_C@_0BM@HMFGHCP@?$CFs?5min?3?$CFd?0?5max?3?$CFd?0?5index?3?$CFd@
  00036	e8 00 00 00 00	 call	 ?Error@@YAPBDPBDZZ	; Error
  0003b	83 c4 14	 add	 esp, 20			; 00000014H
$LN18@GetItemPro:

; 1391 : }

  0003e	33 c0		 xor	 eax, eax
  00040	5e		 pop	 esi
  00041	5d		 pop	 ebp
  00042	c2 04 00	 ret	 4
?GetItemProp@CProject@@QAEPAUItemProp@@H@Z ENDP		; CProject::GetItemProp
_TEXT	ENDS
; Function compile flags: /Ogtp
; File C:\Program Files\Microsoft Visual Studio\2022\Professional\VC\Tools\MSVC\14.44.35207\include\xmemory
;	COMDAT ?_Throw_bad_array_new_length@std@@YAXXZ
_TEXT	SEGMENT
$T1 = -12						; size = 12
?_Throw_bad_array_new_length@std@@YAXXZ PROC		; std::_Throw_bad_array_new_length, COMDAT

; 107  : [[noreturn]] inline void _Throw_bad_array_new_length() {

  00000	55		 push	 ebp
  00001	8b ec		 mov	 ebp, esp
  00003	83 ec 0c	 sub	 esp, 12			; 0000000cH

; 108  :     _THROW(bad_array_new_length{});

  00006	8d 4d f4	 lea	 ecx, DWORD PTR $T1[ebp]
  00009	e8 00 00 00 00	 call	 ??0bad_array_new_length@std@@QAE@XZ ; std::bad_array_new_length::bad_array_new_length
  0000e	68 00 00 00 00	 push	 OFFSET __TI3?AVbad_array_new_length@std@@
  00013	8d 45 f4	 lea	 eax, DWORD PTR $T1[ebp]
  00016	50		 push	 eax
  00017	e8 00 00 00 00	 call	 __CxxThrowException@8
$LN3@Throw_bad_:
  0001c	cc		 int	 3
?_Throw_bad_array_new_length@std@@YAXXZ ENDP		; std::_Throw_bad_array_new_length
_TEXT	ENDS
; Function compile flags: /Ogtp
; File C:\Program Files\Microsoft Visual Studio\2022\Professional\VC\Tools\MSVC\14.44.35207\include\vcruntime_exception.h
;	COMDAT ??_Gbad_array_new_length@std@@UAEPAXI@Z
_TEXT	SEGMENT
___flags$ = 8						; size = 4
??_Gbad_array_new_length@std@@UAEPAXI@Z PROC		; std::bad_array_new_length::`scalar deleting destructor', COMDAT
; _this$ = ecx
  00000	55		 push	 ebp
  00001	8b ec		 mov	 ebp, esp

; 90   :     {

  00003	56		 push	 esi
  00004	8b f1		 mov	 esi, ecx

; 91   :         __std_exception_destroy(&_Data);

  00006	8d 46 04	 lea	 eax, DWORD PTR [esi+4]
  00009	c7 06 00 00 00
	00		 mov	 DWORD PTR [esi], OFFSET ??_7exception@std@@6B@
  0000f	50		 push	 eax
  00010	e8 00 00 00 00	 call	 ___std_exception_destroy
  00015	83 c4 04	 add	 esp, 4
  00018	f6 45 08 01	 test	 BYTE PTR ___flags$[ebp], 1
  0001c	74 0b		 je	 SHORT $LN18@scalar
  0001e	6a 0c		 push	 12			; 0000000cH
  00020	56		 push	 esi
  00021	e8 00 00 00 00	 call	 ??3@YAXPAXI@Z		; operator delete
  00026	83 c4 08	 add	 esp, 8
$LN18@scalar:
  00029	8b c6		 mov	 eax, esi
  0002b	5e		 pop	 esi
  0002c	5d		 pop	 ebp
  0002d	c2 04 00	 ret	 4
??_Gbad_array_new_length@std@@UAEPAXI@Z ENDP		; std::bad_array_new_length::`scalar deleting destructor'
_TEXT	ENDS
; Function compile flags: /Ogtp
; File C:\Program Files\Microsoft Visual Studio\2022\Professional\VC\Tools\MSVC\14.44.35207\include\vcruntime_exception.h
;	COMDAT ??0bad_array_new_length@std@@QAE@ABV01@@Z
_TEXT	SEGMENT
___that$ = 8						; size = 4
??0bad_array_new_length@std@@QAE@ABV01@@Z PROC		; std::bad_array_new_length::bad_array_new_length, COMDAT
; _this$ = ecx
  00000	55		 push	 ebp
  00001	8b ec		 mov	 ebp, esp

; 73   :     {

  00003	56		 push	 esi
  00004	8b f1		 mov	 esi, ecx
  00006	0f 57 c0	 xorps	 xmm0, xmm0

; 72   :         : _Data()

  00009	8d 46 04	 lea	 eax, DWORD PTR [esi+4]

; 74   :         __std_exception_copy(&_Other._Data, &_Data);

  0000c	50		 push	 eax
  0000d	c7 06 00 00 00
	00		 mov	 DWORD PTR [esi], OFFSET ??_7exception@std@@6B@
  00013	66 0f d6 00	 movq	 QWORD PTR [eax], xmm0
  00017	8b 45 08	 mov	 eax, DWORD PTR ___that$[ebp]
  0001a	83 c0 04	 add	 eax, 4
  0001d	50		 push	 eax
  0001e	e8 00 00 00 00	 call	 ___std_exception_copy
  00023	83 c4 08	 add	 esp, 8
  00026	c7 06 00 00 00
	00		 mov	 DWORD PTR [esi], OFFSET ??_7bad_array_new_length@std@@6B@
  0002c	8b c6		 mov	 eax, esi
  0002e	5e		 pop	 esi
  0002f	5d		 pop	 ebp
  00030	c2 04 00	 ret	 4
??0bad_array_new_length@std@@QAE@ABV01@@Z ENDP		; std::bad_array_new_length::bad_array_new_length
_TEXT	ENDS
; Function compile flags: /Ogtp
; File C:\Program Files\Microsoft Visual Studio\2022\Professional\VC\Tools\MSVC\14.44.35207\include\vcruntime_exception.h
;	COMDAT ??1bad_array_new_length@std@@UAE@XZ
_TEXT	SEGMENT
??1bad_array_new_length@std@@UAE@XZ PROC		; std::bad_array_new_length::~bad_array_new_length, COMDAT
; _this$ = ecx

; 91   :         __std_exception_destroy(&_Data);

  00000	8d 41 04	 lea	 eax, DWORD PTR [ecx+4]
  00003	c7 01 00 00 00
	00		 mov	 DWORD PTR [ecx], OFFSET ??_7exception@std@@6B@
  00009	50		 push	 eax
  0000a	e8 00 00 00 00	 call	 ___std_exception_destroy
  0000f	59		 pop	 ecx
  00010	c3		 ret	 0
??1bad_array_new_length@std@@UAE@XZ ENDP		; std::bad_array_new_length::~bad_array_new_length
_TEXT	ENDS
; Function compile flags: /Ogtp
; File C:\Program Files\Microsoft Visual Studio\2022\Professional\VC\Tools\MSVC\14.44.35207\include\vcruntime_exception.h
;	COMDAT ??0bad_array_new_length@std@@QAE@XZ
_TEXT	SEGMENT
??0bad_array_new_length@std@@QAE@XZ PROC		; std::bad_array_new_length::bad_array_new_length, COMDAT
; _this$ = ecx

; 144  :     {

  00000	0f 57 c0	 xorps	 xmm0, xmm0

; 145  :     }

  00003	8b c1		 mov	 eax, ecx

; 66   :         : _Data()

  00005	66 0f d6 41 04	 movq	 QWORD PTR [ecx+4], xmm0

; 67   :     {
; 68   :         _Data._What = _Message;

  0000a	c7 41 04 00 00
	00 00		 mov	 DWORD PTR [ecx+4], OFFSET ??_C@_0BF@KINCDENJ@bad?5array?5new?5length@

; 144  :     {

  00011	c7 01 00 00 00
	00		 mov	 DWORD PTR [ecx], OFFSET ??_7bad_array_new_length@std@@6B@

; 145  :     }

  00017	c3		 ret	 0
??0bad_array_new_length@std@@QAE@XZ ENDP		; std::bad_array_new_length::bad_array_new_length
_TEXT	ENDS
; Function compile flags: /Ogtp
; File C:\Program Files\Microsoft Visual Studio\2022\Professional\VC\Tools\MSVC\14.44.35207\include\vcruntime_exception.h
;	COMDAT ??_Gbad_alloc@std@@UAEPAXI@Z
_TEXT	SEGMENT
___flags$ = 8						; size = 4
??_Gbad_alloc@std@@UAEPAXI@Z PROC			; std::bad_alloc::`scalar deleting destructor', COMDAT
; _this$ = ecx
  00000	55		 push	 ebp
  00001	8b ec		 mov	 ebp, esp

; 90   :     {

  00003	56		 push	 esi
  00004	8b f1		 mov	 esi, ecx

; 91   :         __std_exception_destroy(&_Data);

  00006	8d 46 04	 lea	 eax, DWORD PTR [esi+4]
  00009	c7 06 00 00 00
	00		 mov	 DWORD PTR [esi], OFFSET ??_7exception@std@@6B@
  0000f	50		 push	 eax
  00010	e8 00 00 00 00	 call	 ___std_exception_destroy
  00015	83 c4 04	 add	 esp, 4
  00018	f6 45 08 01	 test	 BYTE PTR ___flags$[ebp], 1
  0001c	74 0b		 je	 SHORT $LN13@scalar
  0001e	6a 0c		 push	 12			; 0000000cH
  00020	56		 push	 esi
  00021	e8 00 00 00 00	 call	 ??3@YAXPAXI@Z		; operator delete
  00026	83 c4 08	 add	 esp, 8
$LN13@scalar:
  00029	8b c6		 mov	 eax, esi
  0002b	5e		 pop	 esi
  0002c	5d		 pop	 ebp
  0002d	c2 04 00	 ret	 4
??_Gbad_alloc@std@@UAEPAXI@Z ENDP			; std::bad_alloc::`scalar deleting destructor'
_TEXT	ENDS
; Function compile flags: /Ogtp
; File C:\Program Files\Microsoft Visual Studio\2022\Professional\VC\Tools\MSVC\14.44.35207\include\vcruntime_exception.h
;	COMDAT ??0bad_alloc@std@@QAE@ABV01@@Z
_TEXT	SEGMENT
___that$ = 8						; size = 4
??0bad_alloc@std@@QAE@ABV01@@Z PROC			; std::bad_alloc::bad_alloc, COMDAT
; _this$ = ecx
  00000	55		 push	 ebp
  00001	8b ec		 mov	 ebp, esp

; 73   :     {

  00003	56		 push	 esi
  00004	8b f1		 mov	 esi, ecx
  00006	0f 57 c0	 xorps	 xmm0, xmm0

; 72   :         : _Data()

  00009	8d 46 04	 lea	 eax, DWORD PTR [esi+4]

; 74   :         __std_exception_copy(&_Other._Data, &_Data);

  0000c	50		 push	 eax
  0000d	c7 06 00 00 00
	00		 mov	 DWORD PTR [esi], OFFSET ??_7exception@std@@6B@
  00013	66 0f d6 00	 movq	 QWORD PTR [eax], xmm0
  00017	8b 45 08	 mov	 eax, DWORD PTR ___that$[ebp]
  0001a	83 c0 04	 add	 eax, 4
  0001d	50		 push	 eax
  0001e	e8 00 00 00 00	 call	 ___std_exception_copy
  00023	83 c4 08	 add	 esp, 8
  00026	c7 06 00 00 00
	00		 mov	 DWORD PTR [esi], OFFSET ??_7bad_alloc@std@@6B@
  0002c	8b c6		 mov	 eax, esi
  0002e	5e		 pop	 esi
  0002f	5d		 pop	 ebp
  00030	c2 04 00	 ret	 4
??0bad_alloc@std@@QAE@ABV01@@Z ENDP			; std::bad_alloc::bad_alloc
_TEXT	ENDS
; Function compile flags: /Ogtp
; File C:\Program Files\Microsoft Visual Studio\2022\Professional\VC\Tools\MSVC\14.44.35207\include\vcruntime_exception.h
;	COMDAT ??_Gexception@std@@UAEPAXI@Z
_TEXT	SEGMENT
___flags$ = 8						; size = 4
??_Gexception@std@@UAEPAXI@Z PROC			; std::exception::`scalar deleting destructor', COMDAT
; _this$ = ecx
  00000	55		 push	 ebp
  00001	8b ec		 mov	 ebp, esp

; 90   :     {

  00003	56		 push	 esi
  00004	8b f1		 mov	 esi, ecx

; 91   :         __std_exception_destroy(&_Data);

  00006	8d 46 04	 lea	 eax, DWORD PTR [esi+4]
  00009	c7 06 00 00 00
	00		 mov	 DWORD PTR [esi], OFFSET ??_7exception@std@@6B@
  0000f	50		 push	 eax
  00010	e8 00 00 00 00	 call	 ___std_exception_destroy
  00015	83 c4 04	 add	 esp, 4
  00018	f6 45 08 01	 test	 BYTE PTR ___flags$[ebp], 1
  0001c	74 0b		 je	 SHORT $LN8@scalar
  0001e	6a 0c		 push	 12			; 0000000cH
  00020	56		 push	 esi
  00021	e8 00 00 00 00	 call	 ??3@YAXPAXI@Z		; operator delete
  00026	83 c4 08	 add	 esp, 8
$LN8@scalar:
  00029	8b c6		 mov	 eax, esi
  0002b	5e		 pop	 esi
  0002c	5d		 pop	 ebp
  0002d	c2 04 00	 ret	 4
??_Gexception@std@@UAEPAXI@Z ENDP			; std::exception::`scalar deleting destructor'
_TEXT	ENDS
; Function compile flags: /Ogtp
; File C:\Program Files\Microsoft Visual Studio\2022\Professional\VC\Tools\MSVC\14.44.35207\include\vcruntime_exception.h
;	COMDAT ?what@exception@std@@UBEPBDXZ
_TEXT	SEGMENT
?what@exception@std@@UBEPBDXZ PROC			; std::exception::what, COMDAT
; _this$ = ecx

; 96   :         return _Data._What ? _Data._What : "Unknown exception";

  00000	8b 49 04	 mov	 ecx, DWORD PTR [ecx+4]
  00003	b8 00 00 00 00	 mov	 eax, OFFSET ??_C@_0BC@EOODALEL@Unknown?5exception@
  00008	85 c9		 test	 ecx, ecx
  0000a	0f 45 c1	 cmovne	 eax, ecx

; 97   :     }

  0000d	c3		 ret	 0
?what@exception@std@@UBEPBDXZ ENDP			; std::exception::what
_TEXT	ENDS
; Function compile flags: /Ogtp
; File C:\Program Files\Microsoft Visual Studio\2022\Professional\VC\Tools\MSVC\14.44.35207\include\vcruntime_exception.h
;	COMDAT ??1exception@std@@UAE@XZ
_TEXT	SEGMENT
??1exception@std@@UAE@XZ PROC				; std::exception::~exception, COMDAT
; _this$ = ecx

; 91   :         __std_exception_destroy(&_Data);

  00000	8d 41 04	 lea	 eax, DWORD PTR [ecx+4]
  00003	c7 01 00 00 00
	00		 mov	 DWORD PTR [ecx], OFFSET ??_7exception@std@@6B@
  00009	50		 push	 eax
  0000a	e8 00 00 00 00	 call	 ___std_exception_destroy
  0000f	59		 pop	 ecx

; 92   :     }

  00010	c3		 ret	 0
??1exception@std@@UAE@XZ ENDP				; std::exception::~exception
_TEXT	ENDS
; Function compile flags: /Ogtp
; File C:\Program Files\Microsoft Visual Studio\2022\Professional\VC\Tools\MSVC\14.44.35207\include\vcruntime_exception.h
;	COMDAT ??0exception@std@@QAE@ABV01@@Z
_TEXT	SEGMENT
__Other$ = 8						; size = 4
??0exception@std@@QAE@ABV01@@Z PROC			; std::exception::exception, COMDAT
; _this$ = ecx

; 73   :     {

  00000	55		 push	 ebp
  00001	8b ec		 mov	 ebp, esp
  00003	56		 push	 esi
  00004	8b f1		 mov	 esi, ecx
  00006	0f 57 c0	 xorps	 xmm0, xmm0
  00009	8d 46 04	 lea	 eax, DWORD PTR [esi+4]

; 74   :         __std_exception_copy(&_Other._Data, &_Data);

  0000c	50		 push	 eax
  0000d	c7 06 00 00 00
	00		 mov	 DWORD PTR [esi], OFFSET ??_7exception@std@@6B@
  00013	66 0f d6 00	 movq	 QWORD PTR [eax], xmm0
  00017	8b 45 08	 mov	 eax, DWORD PTR __Other$[ebp]
  0001a	83 c0 04	 add	 eax, 4
  0001d	50		 push	 eax
  0001e	e8 00 00 00 00	 call	 ___std_exception_copy
  00023	83 c4 08	 add	 esp, 8

; 75   :     }

  00026	8b c6		 mov	 eax, esi
  00028	5e		 pop	 esi
  00029	5d		 pop	 ebp
  0002a	c2 04 00	 ret	 4
??0exception@std@@QAE@ABV01@@Z ENDP			; std::exception::exception
_TEXT	ENDS
; Function compile flags: /Ogtp
; File C:\Program Files (x86)\Windows Kits\10\Include\10.0.26100.0\ucrt\stdio.h
;	COMDAT _sprintf
_TEXT	SEGMENT
__Buffer$ = 8						; size = 4
__Format$ = 12						; size = 4
_sprintf PROC						; COMDAT

; 1771 :     {

  00000	55		 push	 ebp
  00001	8b ec		 mov	 ebp, esp

; 1392 :         int const _Result = __stdio_common_vsprintf(

  00003	8d 45 10	 lea	 eax, DWORD PTR __Format$[ebp+4]
  00006	50		 push	 eax
  00007	6a 00		 push	 0
  00009	ff 75 0c	 push	 DWORD PTR __Format$[ebp]
  0000c	6a ff		 push	 -1
  0000e	ff 75 08	 push	 DWORD PTR __Buffer$[ebp]
  00011	e8 00 00 00 00	 call	 ___local_stdio_printf_options
  00016	8b 08		 mov	 ecx, DWORD PTR [eax]
  00018	ff 70 04	 push	 DWORD PTR [eax+4]
  0001b	83 c9 01	 or	 ecx, 1
  0001e	51		 push	 ecx
  0001f	e8 00 00 00 00	 call	 ___stdio_common_vsprintf

; 1393 :             _CRT_INTERNAL_LOCAL_PRINTF_OPTIONS | _CRT_INTERNAL_PRINTF_LEGACY_VSPRINTF_NULL_TERMINATION,
; 1394 :             _Buffer, _BufferCount, _Format, _Locale, _ArgList);
; 1395 : 
; 1396 :         return _Result < 0 ? -1 : _Result;

  00024	83 c9 ff	 or	 ecx, -1
  00027	83 c4 1c	 add	 esp, 28			; 0000001cH
  0002a	85 c0		 test	 eax, eax
  0002c	0f 48 c1	 cmovs	 eax, ecx

; 1772 :         int _Result;
; 1773 :         va_list _ArgList;
; 1774 :         __crt_va_start(_ArgList, _Format);
; 1775 : 
; 1776 :         _Result = _vsprintf_l(_Buffer, _Format, NULL, _ArgList);
; 1777 : 
; 1778 :         __crt_va_end(_ArgList);
; 1779 :         return _Result;
; 1780 :     }

  0002f	5d		 pop	 ebp
  00030	c3		 ret	 0
_sprintf ENDP
_TEXT	ENDS
; Function compile flags: /Ogtp
; File C:\Program Files (x86)\Windows Kits\10\Include\10.0.26100.0\ucrt\corecrt_stdio_config.h
;	COMDAT ___local_stdio_printf_options
_TEXT	SEGMENT
___local_stdio_printf_options PROC			; COMDAT

; 91   :         static unsigned __int64 _OptionsStorage;
; 92   :         return &_OptionsStorage;

  00000	b8 00 00 00 00	 mov	 eax, OFFSET ?_OptionsStorage@?1??__local_stdio_printf_options@@9@4_KA ; `__local_stdio_printf_options'::`2'::_OptionsStorage

; 93   :     }

  00005	c3		 ret	 0
___local_stdio_printf_options ENDP
_TEXT	ENDS
; Function compile flags: /Ogtp
; File C:\IAGOS\server\v18\Source\Source\_Common\MoverParam.cpp
;	COMDAT ?__empty_global_delete@@YAXPAXI@Z
_TEXT	SEGMENT
___formal$ = 8						; size = 4
___formal$ = 12						; size = 4
?__empty_global_delete@@YAXPAXI@Z PROC			; __empty_global_delete, COMDAT

  00000	c2 00 00	 ret	 0
?__empty_global_delete@@YAXPAXI@Z ENDP			; __empty_global_delete
_TEXT	ENDS
; Function compile flags: /Ogtp
; File C:\IAGOS\server\v18\Source\Source\_Common\MoverParam.cpp
;	COMDAT ?__empty_global_delete@@YAXPAX@Z
_TEXT	SEGMENT
___formal$ = 8						; size = 4
?__empty_global_delete@@YAXPAX@Z PROC			; __empty_global_delete, COMDAT

  00000	c2 00 00	 ret	 0
?__empty_global_delete@@YAXPAX@Z ENDP			; __empty_global_delete
_TEXT	ENDS
END
