; Listing generated by Microsoft (R) Optimizing Compiler Version 19.44.35225.0 

	TITLE	C:\IAGOS\server\v18\Source\Output\WorldServer\Release\MoverParam.obj
	.686P
	.XMM
	include listing.inc
	.model	flat

INCLUDELIB LIBCMT
INCLUDELIB OLDNAMES

CONST	SEGMENT
?piecewise_construct@std@@3Upiecewise_construct_t@1@B	ORG $+1 ; std::piecewise_construct
CONST	ENDS
PUBLIC	?__empty_global_delete@@YAXPAX@Z		; __empty_global_delete
PUBLIC	?__empty_global_delete@@YAXPAXI@Z		; __empty_global_delete
PUBLIC	___local_stdio_printf_options
PUBLIC	_sprintf
PUBLIC	??0exception@std@@QAE@ABV01@@Z			; std::exception::exception
PUBLIC	??1exception@std@@UAE@XZ			; std::exception::~exception
PUBLIC	?what@exception@std@@UBEPBDXZ			; std::exception::what
PUBLIC	??_Gexception@std@@UAEPAXI@Z			; std::exception::`scalar deleting destructor'
PUBLIC	??0bad_alloc@std@@QAE@ABV01@@Z			; std::bad_alloc::bad_alloc
PUBLIC	??_Gbad_alloc@std@@UAEPAXI@Z			; std::bad_alloc::`scalar deleting destructor'
PUBLIC	??0bad_array_new_length@std@@QAE@XZ		; std::bad_array_new_length::bad_array_new_length
PUBLIC	??1bad_array_new_length@std@@UAE@XZ		; std::bad_array_new_length::~bad_array_new_length
PUBLIC	??0bad_array_new_length@std@@QAE@ABV01@@Z	; std::bad_array_new_length::bad_array_new_length
PUBLIC	??_Gbad_array_new_length@std@@UAEPAXI@Z		; std::bad_array_new_length::`scalar deleting destructor'
PUBLIC	?_Throw_bad_array_new_length@std@@YAXXZ		; std::_Throw_bad_array_new_length
PUBLIC	?GetItemProp@CProject@@QAEPAUItemProp@@H@Z	; CProject::GetItemProp
PUBLIC	?GetSkillProp@CProject@@QAEPAUItemProp@@H@Z	; CProject::GetSkillProp
PUBLIC	?_Xlength@?$vector@JV?$allocator@J@std@@@std@@CAXXZ ; std::vector<long,std::allocator<long> >::_Xlength
PUBLIC	?GetAtId@?$CItemContainer@VCItemElem@@@@QAEPAVCItemElem@@K@Z ; CItemContainer<CItemElem>::GetAtId
PUBLIC	?GetItemEnduranceInfluence@CMover@@SAMH@Z	; CMover::GetItemEnduranceInfluence
PUBLIC	?GetItemEnduranceWeight@CMover@@SAHH@Z		; CMover::GetItemEnduranceWeight
PUBLIC	?GetMaxPoint@CMover@@QAEHH@Z			; CMover::GetMaxPoint
PUBLIC	?SetDarkCover@CMover@@QAEHHK@Z			; CMover::SetDarkCover
PUBLIC	?SetStun@CMover@@QAEHHK@Z			; CMover::SetStun
PUBLIC	?SetPoison@CMover@@QAEHHKKKF@Z			; CMover::SetPoison
PUBLIC	?SetDark@CMover@@QAEHHKH@Z			; CMover::SetDark
PUBLIC	?SetBleeding@CMover@@QAEHHKKKF@Z		; CMover::SetBleeding
PUBLIC	?RemoveDebuff@CMover@@QAEXK@Z			; CMover::RemoveDebuff
PUBLIC	?RemoveBuffOne@CMover@@QAEXK@Z			; CMover::RemoveBuffOne
PUBLIC	?RemoveBuffAll@CMover@@QAEXXZ			; CMover::RemoveBuffAll
PUBLIC	?SetEquipDstParam@CMover@@QAEXXZ		; CMover::SetEquipDstParam
PUBLIC	?SumEquipAdjValue@CMover@@QAEXPAH0@Z		; CMover::SumEquipAdjValue
PUBLIC	?SumEquipDefenseAbility@CMover@@QAEHPAJ0@Z	; CMover::SumEquipDefenseAbility
PUBLIC	?FindQuest@CMover@@QAEPAUtagQuest@@H@Z		; CMover::FindQuest
PUBLIC	?GetQuest@CMover@@QAEPAUtagQuest@@H@Z		; CMover::GetQuest
PUBLIC	?RemoveQuest@CMover@@QAEHH@Z			; CMover::RemoveQuest
PUBLIC	?IsCompleteQuest@CMover@@QAEHH@Z		; CMover::IsCompleteQuest
PUBLIC	?MakeCompleteQuest@CMover@@QAEHHPAUtagQuest@@@Z	; CMover::MakeCompleteQuest
PUBLIC	?SetQuest@CMover@@QAEHHHPAUtagQuest@@@Z		; CMover::SetQuest
PUBLIC	?SetQuest@CMover@@QAEHPAUtagQuest@@@Z		; CMover::SetQuest
PUBLIC	?RemoveAllQuest@CMover@@QAEXXZ			; CMover::RemoveAllQuest
PUBLIC	?RemoveCompleteQuest@CMover@@QAEXXZ		; CMover::RemoveCompleteQuest
PUBLIC	?UpdateParam@CMover@@QAEXXZ			; CMover::UpdateParam
PUBLIC	?GetParam@CMover@@QAEHHH@Z			; CMover::GetParam
PUBLIC	?SetDestParam@CMover@@QAEXHHHH@Z		; CMover::SetDestParam
PUBLIC	?SetDestParam@CMover@@QAEXHH@Z			; CMover::SetDestParam
PUBLIC	?SetDestParam@CMover@@QAEXHPAUItemProp@@H@Z	; CMover::SetDestParam
PUBLIC	?ResetDestParam@CMover@@QAEXHHH@Z		; CMover::ResetDestParam
PUBLIC	?ResetDestParamSync@CMover@@QAEXHHHH@Z		; CMover::ResetDestParamSync
PUBLIC	?ResetDestParam@CMover@@QAEXHPAUItemProp@@H@Z	; CMover::ResetDestParam
PUBLIC	?GetAdjParam@CMover@@QAEHH@Z			; CMover::GetAdjParam
PUBLIC	?GetChgParam@CMover@@QAEHH@Z			; CMover::GetChgParam
PUBLIC	?GetPointParam@CMover@@QAEHH@Z			; CMover::GetPointParam
PUBLIC	?SetPointParam@CMover@@QAEXHHH@Z		; CMover::SetPointParam
PUBLIC	?GetSkill@CMover@@QAEPAUtagSkill@@HH@Z		; CMover::GetSkill
PUBLIC	?GetSkill@CMover@@QAEPAUtagSkill@@K@Z		; CMover::GetSkill
PUBLIC	?GetSkillIdx@CMover@@QAEHK@Z			; CMover::GetSkillIdx
PUBLIC	?CheckSkill@CMover@@QAEHK@Z			; CMover::CheckSkill
PUBLIC	?IsBaseJob@CMover@@QAEHXZ			; CMover::IsBaseJob
PUBLIC	?IsExpert@CMover@@QAEHXZ			; CMover::IsExpert
PUBLIC	?IsPro@CMover@@QAEHXZ				; CMover::IsPro
PUBLIC	?IsInteriorityJob@CMover@@QAEHH@Z		; CMover::IsInteriorityJob
PUBLIC	?SetExpert@CMover@@QAEHH@Z			; CMover::SetExpert
PUBLIC	?AddChangeJob@CMover@@QAEHH@Z			; CMover::AddChangeJob
PUBLIC	?GetJob@CMover@@QAEHXZ				; CMover::GetJob
PUBLIC	?GetExpPercent@CMover@@QAEHXZ			; CMover::GetExpPercent
PUBLIC	?IsJobType@CMover@@QAEHK@Z			; CMover::IsJobType
PUBLIC	?GetRemainGP@CMover@@QAEHXZ			; CMover::GetRemainGP
PUBLIC	?IncHitPoint@CMover@@QAEXH@Z			; CMover::IncHitPoint
PUBLIC	?IncManaPoint@CMover@@QAEXH@Z			; CMover::IncManaPoint
PUBLIC	?IncFatiguePoint@CMover@@QAEXH@Z		; CMover::IncFatiguePoint
PUBLIC	?SetHitPoint@CMover@@QAEXH@Z			; CMover::SetHitPoint
PUBLIC	?SetManaPoint@CMover@@QAEXH@Z			; CMover::SetManaPoint
PUBLIC	?SetFatiguePoint@CMover@@QAEXH@Z		; CMover::SetFatiguePoint
PUBLIC	?GetExpFactor@CMover@@QAEMXZ			; CMover::GetExpFactor
PUBLIC	?GetItemDropRateFactor@CMover@@QAEMPAV1@@Z	; CMover::GetItemDropRateFactor
PUBLIC	?GetPieceItemDropRateFactor@CMover@@QAEMPAV1@@Z	; CMover::GetPieceItemDropRateFactor
PUBLIC	?AddExperience@CMover@@QAEH_JHHH@Z		; CMover::AddExperience
PUBLIC	?DecExperience@CMover@@QAEH_JHH@Z		; CMover::DecExperience
PUBLIC	?DecExperiencePercent@CMover@@QAEHMHH@Z		; CMover::DecExperiencePercent
PUBLIC	?AddFxp@CMover@@QAEHH@Z				; CMover::AddFxp
PUBLIC	?SetFxp@CMover@@QAEHHH@Z			; CMover::SetFxp
PUBLIC	?IncStrLevel@CMover@@QAEHXZ			; CMover::IncStrLevel
PUBLIC	?IncStaLevel@CMover@@QAEHXZ			; CMover::IncStaLevel
PUBLIC	?IncDexLevel@CMover@@QAEHXZ			; CMover::IncDexLevel
PUBLIC	?IncIntLevel@CMover@@QAEHXZ			; CMover::IncIntLevel
PUBLIC	?GetStr@CMover@@QAEHXZ				; CMover::GetStr
PUBLIC	?GetDex@CMover@@QAEHXZ				; CMover::GetDex
PUBLIC	?GetInt@CMover@@QAEHXZ				; CMover::GetInt
PUBLIC	?GetSta@CMover@@QAEHXZ				; CMover::GetSta
PUBLIC	?GetSpeed@CMover@@QAEMM@Z			; CMover::GetSpeed
PUBLIC	?GetHitPointPercent@CMover@@QAEHH@Z		; CMover::GetHitPointPercent
PUBLIC	?GetManaPointPercent@CMover@@QAEHH@Z		; CMover::GetManaPointPercent
PUBLIC	?GetFatiguePointPercent@CMover@@QAEHH@Z		; CMover::GetFatiguePointPercent
PUBLIC	?GetHitPoint@CMover@@QAEHXZ			; CMover::GetHitPoint
PUBLIC	?GetManaPoint@CMover@@QAEHXZ			; CMover::GetManaPoint
PUBLIC	?GetFatiguePoint@CMover@@QAEHXZ			; CMover::GetFatiguePoint
PUBLIC	?GetMaxHitPoint@CMover@@QAEHXZ			; CMover::GetMaxHitPoint
PUBLIC	?GetMaxManaPoint@CMover@@QAEHXZ			; CMover::GetMaxManaPoint
PUBLIC	?GetMaxFatiguePoint@CMover@@QAEHXZ		; CMover::GetMaxFatiguePoint
PUBLIC	?GetMaxOriginHitPoint@CMover@@QAEHH@Z		; CMover::GetMaxOriginHitPoint
PUBLIC	?GetMaxOriginManaPoint@CMover@@QAEHH@Z		; CMover::GetMaxOriginManaPoint
PUBLIC	?GetMaxOriginFatiguePoint@CMover@@QAEHH@Z	; CMover::GetMaxOriginFatiguePoint
PUBLIC	?GetHPRecovery@CMover@@QAEHXZ			; CMover::GetHPRecovery
PUBLIC	?GetMPRecovery@CMover@@QAEHXZ			; CMover::GetMPRecovery
PUBLIC	?GetFPRecovery@CMover@@QAEHXZ			; CMover::GetFPRecovery
PUBLIC	?GetNaturalArmor@CMover@@QAEHXZ			; CMover::GetNaturalArmor
PUBLIC	?GetAdjHitRate@CMover@@QAEHXZ			; CMover::GetAdjHitRate
PUBLIC	?GetParrying@CMover@@QAEHXZ			; CMover::GetParrying
PUBLIC	?GetResistMagic@CMover@@QAEHXZ			; CMover::GetResistMagic
PUBLIC	?GetResistSpell@CMover@@QAEHH@Z			; CMover::GetResistSpell
PUBLIC	?GetItemAbility@CMover@@QAEHH@Z			; CMover::GetItemAbility
PUBLIC	?GetItemAbilityMin@CMover@@QAEHH@Z		; CMover::GetItemAbilityMin
PUBLIC	?GetItemAbilityMax@CMover@@QAEHH@Z		; CMover::GetItemAbilityMax
PUBLIC	?UpdateItem@CMover@@QAEXEDKK@Z			; CMover::UpdateItem
PUBLIC	?UpdateItemEx@CMover@@QAEXED_J@Z		; CMover::UpdateItemEx
PUBLIC	?GetItemNum@CMover@@QAEHK@Z			; CMover::GetItemNum
PUBLIC	?RemoveAllItem@CMover@@QAEHK@Z			; CMover::RemoveAllItem
PUBLIC	?OnTradeRemoveUser@CMover@@QAEXXZ		; CMover::OnTradeRemoveUser
PUBLIC	?ChangeFame@CMover@@QAEXPAV1@@Z			; CMover::ChangeFame
PUBLIC	?DuelResult@CMover@@QAEHPAV1@@Z			; CMover::DuelResult
PUBLIC	?BehaviorActionForceSet@CMover@@QAEXXZ		; CMover::BehaviorActionForceSet
PUBLIC	?ActionForceSet@CMover@@QAEXAAUD3DXVECTOR3@@0MKKHHHK@Z ; CMover::ActionForceSet
PUBLIC	?ActionForceSet2@CMover@@QAEXAAUD3DXVECTOR3@@0MMMMKKHHHK@Z ; CMover::ActionForceSet2
PUBLIC	?HalfForceSet@CMover@@QAEXAAUD3DXVECTOR3@@0MMMM@Z ; CMover::HalfForceSet
PUBLIC	?PutLvUpSkillName_1@CMover@@QAEXK@Z		; CMover::PutLvUpSkillName_1
PUBLIC	?PutLvUpSkillName_2@CMover@@QAEXK@Z		; CMover::PutLvUpSkillName_2
PUBLIC	?GetLegendChar@CMover@@QAEEXZ			; CMover::GetLegendChar
PUBLIC	?IsMaster@CMover@@QAEHXZ			; CMover::IsMaster
PUBLIC	?IsHero@CMover@@QAEHXZ				; CMover::IsHero
PUBLIC	?IsLegendHero@CMover@@QAEHXZ			; CMover::IsLegendHero
PUBLIC	?RemoveItemA@CMover@@QAEHKF@Z			; CMover::RemoveItemA
PUBLIC	?Abrade@CMover@@QAEXPAV1@H@Z			; CMover::Abrade
PUBLIC	?GetRandomPartsAbraded@CMover@@QAEKXZ		; CMover::GetRandomPartsAbraded
PUBLIC	?GetSummonState@CMover@@QAEHXZ			; CMover::GetSummonState
PUBLIC	?SetExperience@CMover@@QAEH_JH@Z		; CMover::SetExperience
PUBLIC	?__SetQuest@CMover@@AAEHPAUtagQuest@@0@Z	; CMover::__SetQuest
PUBLIC	??$_Resize@J@?$vector@JV?$allocator@J@std@@@std@@AAEXIABJ@Z ; std::vector<long,std::allocator<long> >::_Resize<long>
PUBLIC	??$_Uninitialized_fill_n@V?$allocator@J@std@@@std@@YAPAJPAJIABJAAV?$allocator@J@0@@Z ; std::_Uninitialized_fill_n<std::allocator<long> >
PUBLIC	??$_Is_all_bits_zero@J@std@@YA_NABJ@Z		; std::_Is_all_bits_zero<long>
PUBLIC	??$_Fill_zero_memset@PAJ@std@@YAXPAJI@Z		; std::_Fill_zero_memset<long *>
PUBLIC	??$_Copy_memmove@PAJPAJ@std@@YAPAJPAJ00@Z	; std::_Copy_memmove<long *,long *>
PUBLIC	??$_Copy_memmove_tail@PAJ@std@@YAPAJQBDQAJII@Z	; std::_Copy_memmove_tail<long *>
PUBLIC	??$_Allocate_manually_vector_aligned@U_Default_allocate_traits@std@@@std@@YAPAXI@Z ; std::_Allocate_manually_vector_aligned<std::_Default_allocate_traits>
PUBLIC	?IsSkillParent@@YAHPAVCMover@@KK@Z		; IsSkillParent
PUBLIC	?IsActive@@YAHPAVCMover@@K@Z			; IsActive
PUBLIC	?_OptionsStorage@?1??__local_stdio_printf_options@@9@4_KA ; `__local_stdio_printf_options'::`2'::_OptionsStorage
PUBLIC	??_C@_02DPKJAMEF@?$CFd@				; `string'
PUBLIC	??_C@_00CNPNBAHC@@				; `string'
PUBLIC	??_7exception@std@@6B@				; std::exception::`vftable'
PUBLIC	??_C@_0BC@EOODALEL@Unknown?5exception@		; `string'
PUBLIC	??_7bad_alloc@std@@6B@				; std::bad_alloc::`vftable'
PUBLIC	??_7bad_array_new_length@std@@6B@		; std::bad_array_new_length::`vftable'
PUBLIC	??_C@_0BF@KINCDENJ@bad?5array?5new?5length@	; `string'
PUBLIC	??_R0?AVexception@std@@@8			; std::exception `RTTI Type Descriptor'
PUBLIC	__CT??_R0?AVexception@std@@@8??0exception@std@@QAE@ABV01@@Z12
PUBLIC	__TI3?AVbad_array_new_length@std@@
PUBLIC	__CTA3?AVbad_array_new_length@std@@
PUBLIC	??_R0?AVbad_array_new_length@std@@@8		; std::bad_array_new_length `RTTI Type Descriptor'
PUBLIC	__CT??_R0?AVbad_array_new_length@std@@@8??0bad_array_new_length@std@@QAE@ABV01@@Z12
PUBLIC	??_R0?AVbad_alloc@std@@@8			; std::bad_alloc `RTTI Type Descriptor'
PUBLIC	__CT??_R0?AVbad_alloc@std@@@8??0bad_alloc@std@@QAE@ABV01@@Z12
PUBLIC	??_C@_0BM@HMFGHCP@?$CFs?5min?3?$CFd?0?5max?3?$CFd?0?5index?3?$CFd@ ; `string'
PUBLIC	??_C@_0BI@BEIFNGEL@GetItemProp?5range_error@	; `string'
PUBLIC	??_C@_0BJ@GPNGCFMK@GetSkillProp?5range_error@	; `string'
PUBLIC	??_C@_0BJ@GKPOBPPI@GetMoverProp?5range_error@	; `string'
PUBLIC	??_C@_0BA@FOIKENOD@vector?5too?5long@		; `string'
PUBLIC	??_R4exception@std@@6B@				; std::exception::`RTTI Complete Object Locator'
PUBLIC	??_R3exception@std@@8				; std::exception::`RTTI Class Hierarchy Descriptor'
PUBLIC	??_R2exception@std@@8				; std::exception::`RTTI Base Class Array'
PUBLIC	??_R1A@?0A@EA@exception@std@@8			; std::exception::`RTTI Base Class Descriptor at (0,-1,0,64)'
PUBLIC	??_R4bad_array_new_length@std@@6B@		; std::bad_array_new_length::`RTTI Complete Object Locator'
PUBLIC	??_R3bad_array_new_length@std@@8		; std::bad_array_new_length::`RTTI Class Hierarchy Descriptor'
PUBLIC	??_R2bad_array_new_length@std@@8		; std::bad_array_new_length::`RTTI Base Class Array'
PUBLIC	??_R1A@?0A@EA@bad_array_new_length@std@@8	; std::bad_array_new_length::`RTTI Base Class Descriptor at (0,-1,0,64)'
PUBLIC	??_R1A@?0A@EA@bad_alloc@std@@8			; std::bad_alloc::`RTTI Base Class Descriptor at (0,-1,0,64)'
PUBLIC	??_R3bad_alloc@std@@8				; std::bad_alloc::`RTTI Class Hierarchy Descriptor'
PUBLIC	??_R2bad_alloc@std@@8				; std::bad_alloc::`RTTI Base Class Array'
PUBLIC	??_R4bad_alloc@std@@6B@				; std::bad_alloc::`RTTI Complete Object Locator'
PUBLIC	??_C@_0CN@NIDLLMEN@CMover?3?3GetSkill?5?3?5?$CFs?5nId?5?$DN?5?$CFd?5@ ; `string'
PUBLIC	??_C@_0DI@OAFIFIPO@SetPointParam?$CI?5DST_GOLD?5?$CJ?5?9?5?$FLUs@ ; `string'
PUBLIC	??_C@_01HNPIGOCE@?$CG@				; `string'
PUBLIC	??_C@_0O@KNKGEAPB@ANGEL_EXP_LOG@		; `string'
PUBLIC	??_C@_0EF@ODCCKCNB@CMover?3?3DecExperiencePercent?5?3?5@ ; `string'
PUBLIC	??_C@_0FO@OOMNFAPD@1?5CMover?3?3DecExperiencePercent?5@ ; `string'
PUBLIC	??_C@_0GG@EIMKDIB@0?5CMover?3?3DecExperiencePercent?5@ ; `string'
PUBLIC	??_C@_0BI@JFCDNFPO@Parts?5Not?5Property?5?$DN?5?$CFd@ ; `string'
PUBLIC	??_C@_0DB@PFHOFKCA@SetPoison?5?3?5?$CFs?5?$LF?$LG?H?$LP?$LA?z?$MA?G?5?A?v?$LM?S?$LN?C?$LA@ ; `string'
PUBLIC	??_C@_0DC@FNFHKMOG@SetPoison?5?3?5?$CFs?5?$LF?$LG?H?$LP?$LA?z?$MA?G?5tick?5?$LN?C@ ; `string'
PUBLIC	??_C@_0DE@BJJIDPPP@SetPoison?5?3?5?$CFs?5?$LF?$LG?H?$LP?$LA?z?$MA?G?5?F?$LN?$LE?g?5?$LF?$KF@ ; `string'
PUBLIC	??_C@_0DG@PECENGHI@SetDark?5?3?5?$CFs?5?$LO?n?$LF?R?H?$LP?$LA?z?$MA?G?5?$LI?m?A?$NP?$LH?$PM?5@ ; `string'
PUBLIC	??_C@_0DF@KMFJEAB@SetBleeding?5?3?5?$CFs?5?C?b?G?w?H?$LP?$LA?z?$MA?G?5?A?v?$LM@ ; `string'
PUBLIC	??_C@_0DG@BBMBAHHG@SetBleeding?5?3?5?$CFs?5?C?b?G?w?H?$LP?$LA?z?$MA?G?5tic@ ; `string'
PUBLIC	??_C@_0DI@CJNNIDBD@SetBleeding?5?3?5?$CFs?5?C?b?G?w?H?$LP?$LA?z?$MA?G?5?F?$LN?$LE@ ; `string'
PUBLIC	??_C@_0DH@LGNMPJME@SetDestParam?$CI?5DST_GOLD?5?$CJ?5?9?5?$FLUse@ ; `string'
PUBLIC	??_C@_0CO@GBNLCJJD@CMover?3?3GetReistSpell?5?3?5?$CFd?5?G?A?$LH?N@ ; `string'
PUBLIC	??_C@_0CP@LCMNFNMN@CMover?3?3GetResistSpell?5?3?5?$CFs?5?F?D?$LG@ ; `string'
PUBLIC	??_C@_0BK@GLCNDIKD@SetQuestCnt?5?3?5?D?y?$LN?$LK?F?$KO?5?C?J?$LA?z@ ; `string'
PUBLIC	__real@00000000
PUBLIC	__real@3dcccccd
PUBLIC	__real@3e4ccccd
PUBLIC	__real@3e800000
PUBLIC	__real@3f000000
PUBLIC	__real@3f800000
PUBLIC	__real@3f866666
PUBLIC	__real@3f8ccccd
PUBLIC	__real@3faeb851e0000000
PUBLIC	__real@3fc00000
PUBLIC	__real@3ff8000000000000
PUBLIC	__real@40000000
PUBLIC	__real@40400000
PUBLIC	__real@40800000
PUBLIC	__real@40a00000
PUBLIC	__real@40c00000
PUBLIC	__real@41000000
PUBLIC	__real@41200000
PUBLIC	__real@41700000
PUBLIC	__real@41b00000
PUBLIC	__real@42480000
PUBLIC	__real@42a00000
PUBLIC	__real@42c80000
PUBLIC	__real@43fa0000
PUBLIC	__real@447a0000
PUBLIC	__xmm@00000000000000000000006400000064
PUBLIC	__xmm@41f00000000000000000000000000000
EXTRN	??2@YAPAXI@Z:PROC				; operator new
EXTRN	??3@YAXPAXI@Z:PROC				; operator delete
EXTRN	__invoke_watson:PROC
EXTRN	__imp__MulDiv@12:PROC
EXTRN	___stdio_common_vsprintf:PROC
EXTRN	__time64:PROC
EXTRN	___std_exception_copy:PROC
EXTRN	___std_exception_destroy:PROC
EXTRN	??_Eexception@std@@UAEPAXI@Z:PROC		; std::exception::`vector deleting destructor'
EXTRN	??_Ebad_alloc@std@@UAEPAXI@Z:PROC		; std::bad_alloc::`vector deleting destructor'
EXTRN	??_Ebad_array_new_length@std@@UAEPAXI@Z:PROC	; std::bad_array_new_length::`vector deleting destructor'
EXTRN	?_Xlength_error@std@@YAXPBD@Z:PROC		; std::_Xlength_error
EXTRN	?Error@@YAPBDPBDZZ:PROC				; Error
EXTRN	?SetAngleX@CObj@@QAEXM@Z:PROC			; CObj::SetAngleX
EXTRN	?SetPos@CObj@@QAEXABUD3DXVECTOR3@@@Z:PROC	; CObj::SetPos
EXTRN	?SetAngle@CObj@@QAEXM@Z:PROC			; CObj::SetAngle
EXTRN	?GetExpFactor@CEventLua@@QAEMH@Z:PROC		; CEventLua::GetExpFactor
EXTRN	?GetItemDropRate@CEventLua@@QAEMH@Z:PROC	; CEventLua::GetItemDropRate
EXTRN	?GetPieceItemDropRate@CEventLua@@QAEMH@Z:PROC	; CEventLua::GetPieceItemDropRate
EXTRN	?SetLevelUpGift@CEventLua@@QAEXPAVCUser@@H@Z:PROC ; CEventLua::SetLevelUpGift
EXTRN	?GetCheerExpFactor@CEventLua@@QAEMH@Z:PROC	; CEventLua::GetCheerExpFactor
EXTRN	?GetWeatherEventExpFactor@CEventLua@@QAEMH@Z:PROC ; CEventLua::GetWeatherEventExpFactor
EXTRN	?GetJobProp@CProject@@QAEPAUJobProp@@H@Z:PROC	; CProject::GetJobProp
EXTRN	?SetMotionBlending@CModelObject@@QAEXH@Z:PROC	; CModelObject::SetMotionBlending
EXTRN	?GetInstance@CAccessoryProperty@@SAPAV1@XZ:PROC	; CAccessoryProperty::GetInstance
EXTRN	?IsAccessory@CAccessoryProperty@@QAEHK@Z:PROC	; CAccessoryProperty::IsAccessory
EXTRN	?SetPiercingSize@CPiercing@@QAEXH@Z:PROC	; CPiercing::SetPiercingSize
EXTRN	?SetPiercingItem@CPiercing@@QAEXHK@Z:PROC	; CPiercing::SetPiercingItem
EXTRN	?SetUltimatePiercingSize@CPiercing@@QAEXH@Z:PROC ; CPiercing::SetUltimatePiercingSize
EXTRN	?SetUltimatePiercingItem@CPiercing@@QAEXHK@Z:PROC ; CPiercing::SetUltimatePiercingItem
EXTRN	?SetVisKeepTime@CPiercing@@QAEXHJ@Z:PROC	; CPiercing::SetVisKeepTime
EXTRN	?SetSwapVisItem@CItemElem@@QAEXHH@Z:PROC	; CItemElem::SetSwapVisItem
EXTRN	?IsUsableItem@@YAHPAVCItemBase@@@Z:PROC		; IsUsableItem
EXTRN	?GetBuffByIk3@CBuffMgr@@QAEPAVIBuff@@K@Z:PROC	; CBuffMgr::GetBuffByIk3
EXTRN	?RemoveBuffs@CBuffMgr@@QAEXKK@Z:PROC		; CBuffMgr::RemoveBuffs
EXTRN	?ForcedSet@CActionMover@@QAEXAAUD3DXVECTOR3@@KKH@Z:PROC ; CActionMover::ForcedSet
EXTRN	?ForcedSet2@CActionMover@@QAEXAAUD3DXVECTOR3@@MMKKH@Z:PROC ; CActionMover::ForcedSet2
EXTRN	?HalfForcedSet@CActionMover@@QAEXAAUD3DXVECTOR3@@MM@Z:PROC ; CActionMover::HalfForcedSet
EXTRN	?GetOther@CVTInfo@@QAEPAVCMover@@XZ:PROC	; CVTInfo::GetOther
EXTRN	?IsVendorOpen@CVTInfo@@QAEHXZ:PROC		; CVTInfo::IsVendorOpen
EXTRN	?TradeClear@CVTInfo@@QAEXXZ:PROC		; CVTInfo::TradeClear
EXTRN	?VendorIsVendor@CVTInfo@@QAEHXZ:PROC		; CVTInfo::VendorIsVendor
EXTRN	?HasBuff@CMover@@QAEHGG@Z:PROC			; CMover::HasBuff
EXTRN	?HasBuffByIk3@CMover@@QAEHK@Z:PROC		; CMover::HasBuffByIk3
EXTRN	?RemoveChrStateBuffs@CMover@@QAEXK@Z:PROC	; CMover::RemoveChrStateBuffs
EXTRN	?RemoveAttackerBuffs@CMover@@QAEXK@Z:PROC	; CMover::RemoveAttackerBuffs
EXTRN	?RemoveDstParamBuffs@CMover@@QAEXK@Z:PROC	; CMover::RemoveDstParamBuffs
EXTRN	?CheckHonorStat@CMover@@QAEXXZ:PROC		; CMover::CheckHonorStat
EXTRN	?ActivateEatPet@CMover@@QAEXPAVCItemElem@@@Z:PROC ; CMover::ActivateEatPet
EXTRN	?InactivateEatPet@CMover@@QAEXXZ:PROC		; CMover::InactivateEatPet
EXTRN	?GetEquipItem@CMover@@QAEPAVCItemElem@@H@Z:PROC	; CMover::GetEquipItem
EXTRN	?GetName@CMover@@QAEPBDH@Z:PROC			; CMover::GetName
EXTRN	?SetJobLevel@CMover@@QAEXHH@Z:PROC		; CMover::SetJobLevel
EXTRN	?SetPKPropensity@CMover@@QAEXK@Z:PROC		; CMover::SetPKPropensity
EXTRN	?GetItemMultiplier@CMover@@QAEMPAVCItemElem@@@Z:PROC ; CMover::GetItemMultiplier
EXTRN	?GetItemId@CMover@@QAEPAVCItemBase@@K@Z:PROC	; CMover::GetItemId
EXTRN	?RemoveItemId@CMover@@QAEXK@Z:PROC		; CMover::RemoveItemId
EXTRN	?IsAttackMode@CMover@@QAEHXZ:PROC		; CMover::IsAttackMode
EXTRN	?AddSkillPoint@CMover@@QAEXH@Z:PROC		; CMover::AddSkillPoint
EXTRN	?SetMasterSkillPointUp@CMover@@QAEXXZ:PROC	; CMover::SetMasterSkillPointUp
EXTRN	?GetState@CFlyffEvent@@QAEEH@Z:PROC		; CFlyffEvent::GetState
EXTRN	?GetLeader@CParty@@QAEPAVCMover@@XZ:PROC	; CParty::GetLeader
EXTRN	?DoDuelResult@CParty@@QAEXPAV1@HHM@Z:PROC	; CParty::DoDuelResult
EXTRN	?GetParty@CPartyMng@@QAEPAVCParty@@K@Z:PROC	; CPartyMng::GetParty
EXTRN	?GetInstance@CPCBang@@SAPAV1@XZ:PROC		; CPCBang::GetInstance
EXTRN	?GetPieceItemDropFactor@CPCBang@@QAEMPAVCUser@@@Z:PROC ; CPCBang::GetPieceItemDropFactor
EXTRN	?GetInstance@CCampusHelper@@SAPAV1@XZ:PROC	; CCampusHelper::GetInstance
EXTRN	?SetLevelUpReward@CCampusHelper@@QAEXPAVCUser@@@Z:PROC ; CCampusHelper::SetLevelUpReward
EXTRN	?AddUpdateItem@CUser@@QAEXDEDKK@Z:PROC		; CUser::AddUpdateItem
EXTRN	?AddUpdateItemEx@CUser@@QAEXED_J@Z:PROC		; CUser::AddUpdateItemEx
EXTRN	?AddDefinedText@CUser@@QAAXHPBDZZ:PROC		; CUser::AddDefinedText
EXTRN	?AddAngelInfo@CUser@@QAEXH@Z:PROC		; CUser::AddAngelInfo
EXTRN	?AddHonorListAck@CUser@@QAEXXZ:PROC		; CUser::AddHonorListAck
EXTRN	?GetAddExpAfterApplyRestPoint@CUser@@QAE_J_J@Z:PROC ; CUser::GetAddExpAfterApplyRestPoint
EXTRN	?AddSetDestParam@CUserMng@@QAEXPAVCMover@@HHH@Z:PROC ; CUserMng::AddSetDestParam
EXTRN	?AddResetDestParam@CUserMng@@QAEXPAVCMover@@HH@Z:PROC ; CUserMng::AddResetDestParam
EXTRN	?AddResetDestParamSync@CUserMng@@QAEXPAVCMover@@HHH@Z:PROC ; CUserMng::AddResetDestParamSync
EXTRN	?AddSetPointParam@CUserMng@@QAEXPAVCMover@@HH@Z:PROC ; CUserMng::AddSetPointParam
EXTRN	?AddSetFame@CUserMng@@QAEXPAVCMover@@H@Z:PROC	; CUserMng::AddSetFame
EXTRN	?AddSetStun@CUserMng@@QAEXPAVCMover@@H@Z:PROC	; CUserMng::AddSetStun
EXTRN	?AddPKPropensity@CUserMng@@QAEXPAVCMover@@@Z:PROC ; CUserMng::AddPKPropensity
EXTRN	?AddHonorTitleChange@CUserMng@@QAEXPAVCMover@@H@Z:PROC ; CUserMng::AddHonorTitleChange
EXTRN	?SendSetPartyDuel@CDPCoreClient@@QAEXKKH@Z:PROC	; CDPCoreClient::SendSetPartyDuel
EXTRN	?GetExpFactor@CEventGeneric@@QAEMXZ:PROC	; CEventGeneric::GetExpFactor
EXTRN	?GetItemDropRateFactor@CEventGeneric@@QAEMXZ:PROC ; CEventGeneric::GetItemDropRateFactor
EXTRN	?GetInstance@CEventGeneric@@SAPAV1@XZ:PROC	; CEventGeneric::GetInstance
EXTRN	?GetEFactor@ILordEvent@@QAEMXZ:PROC		; ILordEvent::GetEFactor
EXTRN	?GetIFactor@ILordEvent@@QAEMXZ:PROC		; ILordEvent::GetIFactor
EXTRN	?Instance@CSLord@@SAPAV1@XZ:PROC		; CSLord::Instance
EXTRN	?SendRecommend@CDPDatabaseClient@@QAEXPAVCUser@@H@Z:PROC ; CDPDatabaseClient::SendRecommend
EXTRN	?SendLogLevelUp@CDPDatabaseClient@@QAEXPAVCMover@@H@Z:PROC ; CDPDatabaseClient::SendLogLevelUp
EXTRN	?SendLogSkillPoint@CDPDatabaseClient@@QAEXHHPAVCMover@@PAUtagSkill@@@Z:PROC ; CDPDatabaseClient::SendLogSkillPoint
EXTRN	?SendLogPkPvp@CDPDatabaseClient@@QAEXPAVCMover@@0HD@Z:PROC ; CDPDatabaseClient::SendLogPkPvp
EXTRN	?OnLogItem@CDPSrvr@@QAEXAAU_LogItemInfo@@PAVCItemElem@@H@Z:PROC ; CDPSrvr::OnLogItem
EXTRN	?GetInstance@CEnvironment@@SAPAV1@XZ:PROC	; CEnvironment::GetInstance
EXTRN	@__security_check_cookie@4:PROC
EXTRN	__CxxThrowException@8:PROC
EXTRN	__alldiv:PROC
EXTRN	__allmul:PROC
EXTRN	__ftol3:PROC
EXTRN	__libm_sse2_pow_precise:PROC
EXTRN	__ltod3:PROC
EXTRN	__ltof3:PROC
EXTRN	_memmove:PROC
EXTRN	_memset:PROC
EXTRN	??_7type_info@@6B@:QWORD			; type_info::`vftable'
EXTRN	?g_tCurrent@@3JA:DWORD				; g_tCurrent
EXTRN	?g_next@@3KA:DWORD				; g_next
EXTRN	?m_fItemDropRate@CProject@@2MA:DWORD		; CProject::m_fItemDropRate
EXTRN	?m_fMonsterExpRate@CProject@@2MA:DWORD		; CProject::m_fMonsterExpRate
EXTRN	?prj@@3VCProject@@A:BYTE			; prj
EXTRN	?g_eLocal@@3VCFlyffEvent@@A:BYTE		; g_eLocal
EXTRN	?g_UserMng@@3VCUserMng@@A:BYTE			; g_UserMng
EXTRN	?g_DPCoreClient@@3VCDPCoreClient@@A:BYTE	; g_DPCoreClient
EXTRN	?g_dpDBClient@@3VCDPDatabaseClient@@A:BYTE	; g_dpDBClient
EXTRN	?g_PartyMng@@3VCPartyMng@@A:BYTE		; g_PartyMng
EXTRN	?g_DPSrvr@@3VCDPSrvr@@A:BYTE			; g_DPSrvr
EXTRN	___security_cookie:DWORD
EXTRN	__fltused:DWORD
;	COMDAT ?_OptionsStorage@?1??__local_stdio_printf_options@@9@4_KA
_BSS	SEGMENT
?_OptionsStorage@?1??__local_stdio_printf_options@@9@4_KA DQ 01H DUP (?) ; `__local_stdio_printf_options'::`2'::_OptionsStorage
_BSS	ENDS
;	COMDAT __xmm@41f00000000000000000000000000000
CONST	SEGMENT
__xmm@41f00000000000000000000000000000 DB 00H, 00H, 00H, 00H, 00H, 00H, 00H
	DB	00H, 00H, 00H, 00H, 00H, 00H, 00H, 0f0H, 'A'
CONST	ENDS
;	COMDAT __xmm@00000000000000000000006400000064
CONST	SEGMENT
__xmm@00000000000000000000006400000064 DB 'd', 00H, 00H, 00H, 'd', 00H, 00H
	DB	00H, 00H, 00H, 00H, 00H, 00H, 00H, 00H, 00H
CONST	ENDS
;	COMDAT __real@447a0000
CONST	SEGMENT
__real@447a0000 DD 0447a0000r			; 1000
CONST	ENDS
;	COMDAT __real@43fa0000
CONST	SEGMENT
__real@43fa0000 DD 043fa0000r			; 500
CONST	ENDS
;	COMDAT __real@42c80000
CONST	SEGMENT
__real@42c80000 DD 042c80000r			; 100
CONST	ENDS
;	COMDAT __real@42a00000
CONST	SEGMENT
__real@42a00000 DD 042a00000r			; 80
CONST	ENDS
;	COMDAT __real@42480000
CONST	SEGMENT
__real@42480000 DD 042480000r			; 50
CONST	ENDS
;	COMDAT __real@41b00000
CONST	SEGMENT
__real@41b00000 DD 041b00000r			; 22
CONST	ENDS
;	COMDAT __real@41700000
CONST	SEGMENT
__real@41700000 DD 041700000r			; 15
CONST	ENDS
;	COMDAT __real@41200000
CONST	SEGMENT
__real@41200000 DD 041200000r			; 10
CONST	ENDS
;	COMDAT __real@41000000
CONST	SEGMENT
__real@41000000 DD 041000000r			; 8
CONST	ENDS
;	COMDAT __real@40c00000
CONST	SEGMENT
__real@40c00000 DD 040c00000r			; 6
CONST	ENDS
;	COMDAT __real@40a00000
CONST	SEGMENT
__real@40a00000 DD 040a00000r			; 5
CONST	ENDS
;	COMDAT __real@40800000
CONST	SEGMENT
__real@40800000 DD 040800000r			; 4
CONST	ENDS
;	COMDAT __real@40400000
CONST	SEGMENT
__real@40400000 DD 040400000r			; 3
CONST	ENDS
;	COMDAT __real@40000000
CONST	SEGMENT
__real@40000000 DD 040000000r			; 2
CONST	ENDS
;	COMDAT __real@3ff8000000000000
CONST	SEGMENT
__real@3ff8000000000000 DQ 03ff8000000000000r	; 1.5
CONST	ENDS
;	COMDAT __real@3fc00000
CONST	SEGMENT
__real@3fc00000 DD 03fc00000r			; 1.5
CONST	ENDS
;	COMDAT __real@3faeb851e0000000
CONST	SEGMENT
__real@3faeb851e0000000 DQ 03faeb851e0000000r	; 0.06
CONST	ENDS
;	COMDAT __real@3f8ccccd
CONST	SEGMENT
__real@3f8ccccd DD 03f8ccccdr			; 1.1
CONST	ENDS
;	COMDAT __real@3f866666
CONST	SEGMENT
__real@3f866666 DD 03f866666r			; 1.05
CONST	ENDS
;	COMDAT __real@3f800000
CONST	SEGMENT
__real@3f800000 DD 03f800000r			; 1
CONST	ENDS
;	COMDAT __real@3f000000
CONST	SEGMENT
__real@3f000000 DD 03f000000r			; 0.5
CONST	ENDS
;	COMDAT __real@3e800000
CONST	SEGMENT
__real@3e800000 DD 03e800000r			; 0.25
CONST	ENDS
;	COMDAT __real@3e4ccccd
CONST	SEGMENT
__real@3e4ccccd DD 03e4ccccdr			; 0.2
CONST	ENDS
;	COMDAT __real@3dcccccd
CONST	SEGMENT
__real@3dcccccd DD 03dcccccdr			; 0.1
CONST	ENDS
;	COMDAT __real@00000000
CONST	SEGMENT
__real@00000000 DD 000000000r			; 0
CONST	ENDS
;	COMDAT ??_C@_0BK@GLCNDIKD@SetQuestCnt?5?3?5?D?y?$LN?$LK?F?$KO?5?C?J?$LA?z@
CONST	SEGMENT
??_C@_0BK@GLCNDIKD@SetQuestCnt?5?3?5?D?y?$LN?$LK?F?$KO?5?C?J?$LA?z@ DB 'S'
	DB	'etQuestCnt : ', 0c4H, 0f9H, 0bdH, 0baH, 0c6H, 0aeH, ' ', 0c3H
	DB	0caH, 0b0H, 0faH, 00H			; `string'
CONST	ENDS
;	COMDAT ??_C@_0CP@LCMNFNMN@CMover?3?3GetResistSpell?5?3?5?$CFs?5?F?D?$LG@
CONST	SEGMENT
??_C@_0CP@LCMNFNMN@CMover?3?3GetResistSpell?5?3?5?$CFs?5?F?D?$LG@ DB 'CMo'
	DB	'ver::GetResistSpell : %s ', 0c6H, 0c4H, 0b6H, 0f3H, 0b8H, 0deH
	DB	0c5H, 0cdH, ' ', 0c0H, 0dfH, 0b8H, 0f8H, 0b5H, 0caH, ' %d', 00H ; `string'
CONST	ENDS
;	COMDAT ??_C@_0CO@GBNLCJJD@CMover?3?3GetReistSpell?5?3?5?$CFd?5?G?A?$LH?N@
CONST	SEGMENT
??_C@_0CO@GBNLCJJD@CMover?3?3GetReistSpell?5?3?5?$CFd?5?G?A?$LH?N@ DB 'CM'
	DB	'over::GetReistSpell : %d ', 0c7H, 0c1H, 0b7H, 0ceH, 0c6H, 0dbH
	DB	0c6H, 0bcH, ' ', 0c0H, 0d0H, 0b1H, 0e2H, ' ', 0bdH, 0c7H, 0c6H
	DB	0d0H, 00H					; `string'
CONST	ENDS
;	COMDAT ??_C@_0DH@LGNMPJME@SetDestParam?$CI?5DST_GOLD?5?$CJ?5?9?5?$FLUse@
CONST	SEGMENT
??_C@_0DH@LGNMPJME@SetDestParam?$CI?5DST_GOLD?5?$CJ?5?9?5?$FLUse@ DB 'Set'
	DB	'DestParam( DST_GOLD ) - [User:%s(%07d)], [Value:%d]', 00H ; `string'
CONST	ENDS
;	COMDAT ??_C@_0DI@CJNNIDBD@SetBleeding?5?3?5?$CFs?5?C?b?G?w?H?$LP?$LA?z?$MA?G?5?F?$LN?$LE@
CONST	SEGMENT
??_C@_0DI@CJNNIDBD@SetBleeding?5?3?5?$CFs?5?C?b?G?w?H?$LP?$LA?z?$MA?G?5?F?$LN?$LE@ DB 'S'
	DB	'etBleeding : %s ', 0c3H, 0e2H, 0c7H, 0f7H, 0c8H, 0bfH, 0b0H, 0faH
	DB	0c0H, 0c7H, ' ', 0c6H, 0bdH, 0b4H, 0e7H, ' ', 0b5H, 0a5H, 0b9H
	DB	0ccH, 0c1H, 0f6H, 0b0H, 0a1H, ' ', 0c1H, 0f6H, 0c1H, 0a4H, 0b5H
	DB	0c7H, 0c1H, 0f6H, ' ', 0beH, 0caH, 0c0H, 0bdH, 00H ; `string'
CONST	ENDS
;	COMDAT ??_C@_0DG@BBMBAHHG@SetBleeding?5?3?5?$CFs?5?C?b?G?w?H?$LP?$LA?z?$MA?G?5tic@
CONST	SEGMENT
??_C@_0DG@BBMBAHHG@SetBleeding?5?3?5?$CFs?5?C?b?G?w?H?$LP?$LA?z?$MA?G?5tic@ DB 'S'
	DB	'etBleeding : %s ', 0c3H, 0e2H, 0c7H, 0f7H, 0c8H, 0bfH, 0b0H, 0faH
	DB	0c0H, 0c7H, ' tick ', 0bdH, 0c3H, 0b0H, 0a3H, 0c0H, 0ccH, ' ', 0c1H
	DB	0f6H, 0c1H, 0a4H, 0b5H, 0c7H, 0c1H, 0f6H, ' ', 0beH, 0caH, 0c0H
	DB	0bdH, 00H					; `string'
CONST	ENDS
;	COMDAT ??_C@_0DF@KMFJEAB@SetBleeding?5?3?5?$CFs?5?C?b?G?w?H?$LP?$LA?z?$MA?G?5?A?v?$LM@
CONST	SEGMENT
??_C@_0DF@KMFJEAB@SetBleeding?5?3?5?$CFs?5?C?b?G?w?H?$LP?$LA?z?$MA?G?5?A?v?$LM@ DB 'S'
	DB	'etBleeding : %s ', 0c3H, 0e2H, 0c7H, 0f7H, 0c8H, 0bfH, 0b0H, 0faH
	DB	0c0H, 0c7H, ' ', 0c1H, 0f6H, 0bcH, 0d3H, 0bdH, 0c3H, 0b0H, 0a3H
	DB	0c0H, 0ccH, ' ', 0c1H, 0f6H, 0c1H, 0a4H, 0b5H, 0c7H, 0c1H, 0f6H
	DB	' ', 0beH, 0caH, 0c0H, 0bdH, 00H		; `string'
CONST	ENDS
;	COMDAT ??_C@_0DG@PECENGHI@SetDark?5?3?5?$CFs?5?$LO?n?$LF?R?H?$LP?$LA?z?$MA?G?5?$LI?m?A?$NP?$LH?$PM?5@
CONST	SEGMENT
??_C@_0DG@PECENGHI@SetDark?5?3?5?$CFs?5?$LO?n?$LF?R?H?$LP?$LA?z?$MA?G?5?$LI?m?A?$NP?$LH?$PM?5@ DB 'S'
	DB	'etDark : %s ', 0beH, 0eeH, 0b5H, 0d2H, 0c8H, 0bfH, 0b0H, 0faH
	DB	0c0H, 0c7H, ' ', 0b8H, 0edH, 0c1H, 0dfH, 0b7H, 0fcH, ' ', 0bcH
	DB	0f6H, 0c1H, 0a4H, 0c4H, 0a1H, 0b0H, 0a1H, ' ', 0c1H, 0f6H, 0c1H
	DB	0a4H, 0b5H, 0c7H, 0c1H, 0f6H, ' ', 0beH, 0caH, 0c0H, 0bdH, 00H ; `string'
CONST	ENDS
;	COMDAT ??_C@_0DE@BJJIDPPP@SetPoison?5?3?5?$CFs?5?$LF?$LG?H?$LP?$LA?z?$MA?G?5?F?$LN?$LE?g?5?$LF?$KF@
CONST	SEGMENT
??_C@_0DE@BJJIDPPP@SetPoison?5?3?5?$CFs?5?$LF?$LG?H?$LP?$LA?z?$MA?G?5?F?$LN?$LE?g?5?$LF?$KF@ DB 'S'
	DB	'etPoison : %s ', 0b5H, 0b6H, 0c8H, 0bfH, 0b0H, 0faH, 0c0H, 0c7H
	DB	' ', 0c6H, 0bdH, 0b4H, 0e7H, ' ', 0b5H, 0a5H, 0b9H, 0ccH, 0c1H
	DB	0f6H, 0b0H, 0a1H, ' ', 0c1H, 0f6H, 0c1H, 0a4H, 0b5H, 0c7H, 0c1H
	DB	0f6H, ' ', 0beH, 0caH, 0c0H, 0bdH, 00H	; `string'
CONST	ENDS
;	COMDAT ??_C@_0DC@FNFHKMOG@SetPoison?5?3?5?$CFs?5?$LF?$LG?H?$LP?$LA?z?$MA?G?5tick?5?$LN?C@
CONST	SEGMENT
??_C@_0DC@FNFHKMOG@SetPoison?5?3?5?$CFs?5?$LF?$LG?H?$LP?$LA?z?$MA?G?5tick?5?$LN?C@ DB 'S'
	DB	'etPoison : %s ', 0b5H, 0b6H, 0c8H, 0bfH, 0b0H, 0faH, 0c0H, 0c7H
	DB	' tick ', 0bdH, 0c3H, 0b0H, 0a3H, 0c0H, 0ccH, ' ', 0c1H, 0f6H, 0c1H
	DB	0a4H, 0b5H, 0c7H, 0c1H, 0f6H, ' ', 0beH, 0caH, 0c0H, 0bdH, 00H ; `string'
CONST	ENDS
;	COMDAT ??_C@_0DB@PFHOFKCA@SetPoison?5?3?5?$CFs?5?$LF?$LG?H?$LP?$LA?z?$MA?G?5?A?v?$LM?S?$LN?C?$LA@
CONST	SEGMENT
??_C@_0DB@PFHOFKCA@SetPoison?5?3?5?$CFs?5?$LF?$LG?H?$LP?$LA?z?$MA?G?5?A?v?$LM?S?$LN?C?$LA@ DB 'S'
	DB	'etPoison : %s ', 0b5H, 0b6H, 0c8H, 0bfH, 0b0H, 0faH, 0c0H, 0c7H
	DB	' ', 0c1H, 0f6H, 0bcH, 0d3H, 0bdH, 0c3H, 0b0H, 0a3H, 0c0H, 0ccH
	DB	' ', 0c1H, 0f6H, 0c1H, 0a4H, 0b5H, 0c7H, 0c1H, 0f6H, ' ', 0beH
	DB	0caH, 0c0H, 0bdH, 00H			; `string'
CONST	ENDS
;	COMDAT ??_C@_0BI@JFCDNFPO@Parts?5Not?5Property?5?$DN?5?$CFd@
CONST	SEGMENT
??_C@_0BI@JFCDNFPO@Parts?5Not?5Property?5?$DN?5?$CFd@ DB 'Parts Not Prope'
	DB	'rty = %d', 00H				; `string'
CONST	ENDS
;	COMDAT ??_C@_0GG@EIMKDIB@0?5CMover?3?3DecExperiencePercent?5@
CONST	SEGMENT
??_C@_0GG@EIMKDIB@0?5CMover?3?3DecExperiencePercent?5@ DB '0 CMover::DecE'
	DB	'xperiencePercent : %s(Lv%d) ', 0b0H, 0e6H, 0c7H, 0e8H, 0c4H, 0a1H
	DB	0b0H, 0a1H, ' ', 0c0H, 0ccH, 0bbH, 0f3H, 0c7H, 0cfH, 0b0H, 0d4H
	DB	' ', 0b1H, 0f0H, 0c0H, 0d3H, '. %I64d %I64d(%f) %I64d(%f) %I64'
	DB	'd(%f)', 00H					; `string'
CONST	ENDS
;	COMDAT ??_C@_0FO@OOMNFAPD@1?5CMover?3?3DecExperiencePercent?5@
CONST	SEGMENT
??_C@_0FO@OOMNFAPD@1?5CMover?3?3DecExperiencePercent?5@ DB '1 CMover::Dec'
	DB	'ExperiencePercent : %s(Lv%d) ', 0b0H, 0e6H, 0c7H, 0e8H, 0c4H, 0a1H
	DB	0b0H, 0a1H, ' ', 0c0H, 0ccH, 0bbH, 0f3H, 0c7H, 0cfH, 0b0H, 0d4H
	DB	' ', 0b1H, 0f0H, 0c0H, 0d3H, '. %I64d %I64d(%f) %I64d %I64d', 00H ; `string'
CONST	ENDS
;	COMDAT ??_C@_0EF@ODCCKCNB@CMover?3?3DecExperiencePercent?5?3?5@
CONST	SEGMENT
??_C@_0EF@ODCCKCNB@CMover?3?3DecExperiencePercent?5?3?5@ DB 'CMover::DecE'
	DB	'xperiencePercent : %s ', 0b7H, 0b9H, 0baH, 0a7H, 0b4H, 0d9H, 0bfH
	DB	0eeH, ' ', 0c0H, 0ccH, 0bbH, 0f3H, '. %d -> %d  %I64d(%f)', 00H ; `string'
CONST	ENDS
;	COMDAT ??_C@_0O@KNKGEAPB@ANGEL_EXP_LOG@
CONST	SEGMENT
??_C@_0O@KNKGEAPB@ANGEL_EXP_LOG@ DB 'ANGEL_EXP_LOG', 00H ; `string'
CONST	ENDS
;	COMDAT ??_C@_01HNPIGOCE@?$CG@
CONST	SEGMENT
??_C@_01HNPIGOCE@?$CG@ DB '&', 00H			; `string'
CONST	ENDS
;	COMDAT ??_C@_0DI@OAFIFIPO@SetPointParam?$CI?5DST_GOLD?5?$CJ?5?9?5?$FLUs@
CONST	SEGMENT
??_C@_0DI@OAFIFIPO@SetPointParam?$CI?5DST_GOLD?5?$CJ?5?9?5?$FLUs@ DB 'Set'
	DB	'PointParam( DST_GOLD ) - [User:%s(%07d)], [Value:%d]', 00H ; `string'
CONST	ENDS
;	COMDAT ??_C@_0CN@NIDLLMEN@CMover?3?3GetSkill?5?3?5?$CFs?5nId?5?$DN?5?$CFd?5@
CONST	SEGMENT
??_C@_0CN@NIDLLMEN@CMover?3?3GetSkill?5?3?5?$CFs?5nId?5?$DN?5?$CFd?5@ DB 'C'
	DB	'Mover::GetSkill : %s nId = %d ', 0b9H, 0fcH, 0c0H, 0a7H, 0b8H
	DB	0a6H, ' ', 0b9H, 0feH, 0beH, 0eeH, 0b3H, 0b2H, 00H ; `string'
CONST	ENDS
;	COMDAT ??_R4bad_alloc@std@@6B@
rdata$r	SEGMENT
??_R4bad_alloc@std@@6B@ DD 00H				; std::bad_alloc::`RTTI Complete Object Locator'
	DD	00H
	DD	00H
	DD	FLAT:??_R0?AVbad_alloc@std@@@8
	DD	FLAT:??_R3bad_alloc@std@@8
rdata$r	ENDS
;	COMDAT ??_R2bad_alloc@std@@8
rdata$r	SEGMENT
??_R2bad_alloc@std@@8 DD FLAT:??_R1A@?0A@EA@bad_alloc@std@@8 ; std::bad_alloc::`RTTI Base Class Array'
	DD	FLAT:??_R1A@?0A@EA@exception@std@@8
rdata$r	ENDS
;	COMDAT ??_R3bad_alloc@std@@8
rdata$r	SEGMENT
??_R3bad_alloc@std@@8 DD 00H				; std::bad_alloc::`RTTI Class Hierarchy Descriptor'
	DD	00H
	DD	02H
	DD	FLAT:??_R2bad_alloc@std@@8
rdata$r	ENDS
;	COMDAT ??_R1A@?0A@EA@bad_alloc@std@@8
rdata$r	SEGMENT
??_R1A@?0A@EA@bad_alloc@std@@8 DD FLAT:??_R0?AVbad_alloc@std@@@8 ; std::bad_alloc::`RTTI Base Class Descriptor at (0,-1,0,64)'
	DD	01H
	DD	00H
	DD	0ffffffffH
	DD	00H
	DD	040H
	DD	FLAT:??_R3bad_alloc@std@@8
rdata$r	ENDS
;	COMDAT ??_R1A@?0A@EA@bad_array_new_length@std@@8
rdata$r	SEGMENT
??_R1A@?0A@EA@bad_array_new_length@std@@8 DD FLAT:??_R0?AVbad_array_new_length@std@@@8 ; std::bad_array_new_length::`RTTI Base Class Descriptor at (0,-1,0,64)'
	DD	02H
	DD	00H
	DD	0ffffffffH
	DD	00H
	DD	040H
	DD	FLAT:??_R3bad_array_new_length@std@@8
rdata$r	ENDS
;	COMDAT ??_R2bad_array_new_length@std@@8
rdata$r	SEGMENT
??_R2bad_array_new_length@std@@8 DD FLAT:??_R1A@?0A@EA@bad_array_new_length@std@@8 ; std::bad_array_new_length::`RTTI Base Class Array'
	DD	FLAT:??_R1A@?0A@EA@bad_alloc@std@@8
	DD	FLAT:??_R1A@?0A@EA@exception@std@@8
rdata$r	ENDS
;	COMDAT ??_R3bad_array_new_length@std@@8
rdata$r	SEGMENT
??_R3bad_array_new_length@std@@8 DD 00H			; std::bad_array_new_length::`RTTI Class Hierarchy Descriptor'
	DD	00H
	DD	03H
	DD	FLAT:??_R2bad_array_new_length@std@@8
rdata$r	ENDS
;	COMDAT ??_R4bad_array_new_length@std@@6B@
rdata$r	SEGMENT
??_R4bad_array_new_length@std@@6B@ DD 00H		; std::bad_array_new_length::`RTTI Complete Object Locator'
	DD	00H
	DD	00H
	DD	FLAT:??_R0?AVbad_array_new_length@std@@@8
	DD	FLAT:??_R3bad_array_new_length@std@@8
rdata$r	ENDS
;	COMDAT ??_R1A@?0A@EA@exception@std@@8
rdata$r	SEGMENT
??_R1A@?0A@EA@exception@std@@8 DD FLAT:??_R0?AVexception@std@@@8 ; std::exception::`RTTI Base Class Descriptor at (0,-1,0,64)'
	DD	00H
	DD	00H
	DD	0ffffffffH
	DD	00H
	DD	040H
	DD	FLAT:??_R3exception@std@@8
rdata$r	ENDS
;	COMDAT ??_R2exception@std@@8
rdata$r	SEGMENT
??_R2exception@std@@8 DD FLAT:??_R1A@?0A@EA@exception@std@@8 ; std::exception::`RTTI Base Class Array'
rdata$r	ENDS
;	COMDAT ??_R3exception@std@@8
rdata$r	SEGMENT
??_R3exception@std@@8 DD 00H				; std::exception::`RTTI Class Hierarchy Descriptor'
	DD	00H
	DD	01H
	DD	FLAT:??_R2exception@std@@8
rdata$r	ENDS
;	COMDAT ??_R4exception@std@@6B@
rdata$r	SEGMENT
??_R4exception@std@@6B@ DD 00H				; std::exception::`RTTI Complete Object Locator'
	DD	00H
	DD	00H
	DD	FLAT:??_R0?AVexception@std@@@8
	DD	FLAT:??_R3exception@std@@8
rdata$r	ENDS
;	COMDAT ??_C@_0BA@FOIKENOD@vector?5too?5long@
CONST	SEGMENT
??_C@_0BA@FOIKENOD@vector?5too?5long@ DB 'vector too long', 00H ; `string'
CONST	ENDS
;	COMDAT ??_C@_0BJ@GKPOBPPI@GetMoverProp?5range_error@
CONST	SEGMENT
??_C@_0BJ@GKPOBPPI@GetMoverProp?5range_error@ DB 'GetMoverProp range_erro'
	DB	'r', 00H					; `string'
CONST	ENDS
;	COMDAT ??_C@_0BJ@GPNGCFMK@GetSkillProp?5range_error@
CONST	SEGMENT
??_C@_0BJ@GPNGCFMK@GetSkillProp?5range_error@ DB 'GetSkillProp range_erro'
	DB	'r', 00H					; `string'
CONST	ENDS
;	COMDAT ??_C@_0BI@BEIFNGEL@GetItemProp?5range_error@
CONST	SEGMENT
??_C@_0BI@BEIFNGEL@GetItemProp?5range_error@ DB 'GetItemProp range_error', 00H ; `string'
CONST	ENDS
;	COMDAT ??_C@_0BM@HMFGHCP@?$CFs?5min?3?$CFd?0?5max?3?$CFd?0?5index?3?$CFd@
CONST	SEGMENT
??_C@_0BM@HMFGHCP@?$CFs?5min?3?$CFd?0?5max?3?$CFd?0?5index?3?$CFd@ DB '%s'
	DB	' min:%d, max:%d, index:%d', 00H		; `string'
CONST	ENDS
;	COMDAT __CT??_R0?AVbad_alloc@std@@@8??0bad_alloc@std@@QAE@ABV01@@Z12
xdata$x	SEGMENT
__CT??_R0?AVbad_alloc@std@@@8??0bad_alloc@std@@QAE@ABV01@@Z12 DD 010H
	DD	FLAT:??_R0?AVbad_alloc@std@@@8
	DD	00H
	DD	0ffffffffH
	ORG $+4
	DD	0cH
	DD	FLAT:??0bad_alloc@std@@QAE@ABV01@@Z
xdata$x	ENDS
;	COMDAT ??_R0?AVbad_alloc@std@@@8
data$r	SEGMENT
??_R0?AVbad_alloc@std@@@8 DD FLAT:??_7type_info@@6B@	; std::bad_alloc `RTTI Type Descriptor'
	DD	00H
	DB	'.?AVbad_alloc@std@@', 00H
data$r	ENDS
;	COMDAT __CT??_R0?AVbad_array_new_length@std@@@8??0bad_array_new_length@std@@QAE@ABV01@@Z12
xdata$x	SEGMENT
__CT??_R0?AVbad_array_new_length@std@@@8??0bad_array_new_length@std@@QAE@ABV01@@Z12 DD 00H
	DD	FLAT:??_R0?AVbad_array_new_length@std@@@8
	DD	00H
	DD	0ffffffffH
	ORG $+4
	DD	0cH
	DD	FLAT:??0bad_array_new_length@std@@QAE@ABV01@@Z
xdata$x	ENDS
;	COMDAT ??_R0?AVbad_array_new_length@std@@@8
data$r	SEGMENT
??_R0?AVbad_array_new_length@std@@@8 DD FLAT:??_7type_info@@6B@ ; std::bad_array_new_length `RTTI Type Descriptor'
	DD	00H
	DB	'.?AVbad_array_new_length@std@@', 00H
data$r	ENDS
;	COMDAT __CTA3?AVbad_array_new_length@std@@
xdata$x	SEGMENT
__CTA3?AVbad_array_new_length@std@@ DD 03H
	DD	FLAT:__CT??_R0?AVbad_array_new_length@std@@@8??0bad_array_new_length@std@@QAE@ABV01@@Z12
	DD	FLAT:__CT??_R0?AVbad_alloc@std@@@8??0bad_alloc@std@@QAE@ABV01@@Z12
	DD	FLAT:__CT??_R0?AVexception@std@@@8??0exception@std@@QAE@ABV01@@Z12
xdata$x	ENDS
;	COMDAT __TI3?AVbad_array_new_length@std@@
xdata$x	SEGMENT
__TI3?AVbad_array_new_length@std@@ DD 00H
	DD	FLAT:??1bad_array_new_length@std@@UAE@XZ
	DD	00H
	DD	FLAT:__CTA3?AVbad_array_new_length@std@@
xdata$x	ENDS
;	COMDAT __CT??_R0?AVexception@std@@@8??0exception@std@@QAE@ABV01@@Z12
xdata$x	SEGMENT
__CT??_R0?AVexception@std@@@8??0exception@std@@QAE@ABV01@@Z12 DD 00H
	DD	FLAT:??_R0?AVexception@std@@@8
	DD	00H
	DD	0ffffffffH
	ORG $+4
	DD	0cH
	DD	FLAT:??0exception@std@@QAE@ABV01@@Z
xdata$x	ENDS
;	COMDAT ??_R0?AVexception@std@@@8
data$r	SEGMENT
??_R0?AVexception@std@@@8 DD FLAT:??_7type_info@@6B@	; std::exception `RTTI Type Descriptor'
	DD	00H
	DB	'.?AVexception@std@@', 00H
data$r	ENDS
;	COMDAT ??_C@_0BF@KINCDENJ@bad?5array?5new?5length@
CONST	SEGMENT
??_C@_0BF@KINCDENJ@bad?5array?5new?5length@ DB 'bad array new length', 00H ; `string'
CONST	ENDS
;	COMDAT ??_7bad_array_new_length@std@@6B@
CONST	SEGMENT
??_7bad_array_new_length@std@@6B@ DD FLAT:??_R4bad_array_new_length@std@@6B@ ; std::bad_array_new_length::`vftable'
	DD	FLAT:??_Ebad_array_new_length@std@@UAEPAXI@Z
	DD	FLAT:?what@exception@std@@UBEPBDXZ
CONST	ENDS
;	COMDAT ??_7bad_alloc@std@@6B@
CONST	SEGMENT
??_7bad_alloc@std@@6B@ DD FLAT:??_R4bad_alloc@std@@6B@	; std::bad_alloc::`vftable'
	DD	FLAT:??_Ebad_alloc@std@@UAEPAXI@Z
	DD	FLAT:?what@exception@std@@UBEPBDXZ
CONST	ENDS
;	COMDAT ??_C@_0BC@EOODALEL@Unknown?5exception@
CONST	SEGMENT
??_C@_0BC@EOODALEL@Unknown?5exception@ DB 'Unknown exception', 00H ; `string'
CONST	ENDS
;	COMDAT ??_7exception@std@@6B@
CONST	SEGMENT
??_7exception@std@@6B@ DD FLAT:??_R4exception@std@@6B@	; std::exception::`vftable'
	DD	FLAT:??_Eexception@std@@UAEPAXI@Z
	DD	FLAT:?what@exception@std@@UBEPBDXZ
CONST	ENDS
;	COMDAT ??_C@_00CNPNBAHC@@
CONST	SEGMENT
??_C@_00CNPNBAHC@@ DB 00H				; `string'
CONST	ENDS
;	COMDAT ??_C@_02DPKJAMEF@?$CFd@
CONST	SEGMENT
??_C@_02DPKJAMEF@?$CFd@ DB '%d', 00H			; `string'
CONST	ENDS
; Function compile flags: /Ogtp
; File C:\IAGOS\server\v18\Source\Source\_Common\MoverParam.cpp
; File C:\IAGOS\server\v18\Source\Source\_Common\Project.h
; File C:\IAGOS\server\v18\Source\Source\_Common\data.h
; File C:\IAGOS\server\v18\Source\Source\_Common\MoverParam.cpp
; File C:\IAGOS\server\v18\Source\Source\_Common\Project.h
; File C:\IAGOS\server\v18\Source\Source\_Common\MoverParam.cpp
;	COMDAT ?IsActive@@YAHPAVCMover@@K@Z
_TEXT	SEGMENT
_pMover$ = 8						; size = 4
_dwSkill$ = 12						; size = 4
?IsActive@@YAHPAVCMover@@K@Z PROC			; IsActive, COMDAT

; 216  : {

  00000	55		 push	 ebp
  00001	8b ec		 mov	 ebp, esp
  00003	53		 push	 ebx
  00004	56		 push	 esi
  00005	8b 75 08	 mov	 esi, DWORD PTR _pMover$[ebp]

; 217  : 	LPSKILL pSkill = pMover->GetSkill( dwSkill );

  00008	8b ce		 mov	 ecx, esi
  0000a	57		 push	 edi
  0000b	8b 7d 0c	 mov	 edi, DWORD PTR _dwSkill$[ebp]
  0000e	57		 push	 edi
  0000f	e8 00 00 00 00	 call	 ?GetSkill@CMover@@QAEPAUtagSkill@@K@Z ; CMover::GetSkill

; 218  : 	if( pSkill == NULL )

  00014	85 c0		 test	 eax, eax
  00016	0f 84 5f 01 00
	00		 je	 $LN34@IsActive
; File C:\IAGOS\server\v18\Source\Source\_Common\Project.h

; 1395 : 	VERIFY_RANGE( nIndex, 0, m_aPropSkill.GetSize(), "GetSkillProp range_error", NULL );

  0001c	a1 64 02 00 00	 mov	 eax, DWORD PTR ?prj@@3VCProject@@A+612
  00021	85 ff		 test	 edi, edi
  00023	0f 88 3c 01 00
	00		 js	 $LN21@IsActive
  00029	3b f8		 cmp	 edi, eax
  0002b	0f 8d 34 01 00
	00		 jge	 $LN21@IsActive
; File C:\IAGOS\server\v18\Source\Source\_Common\data.h

; 270  : 	if( dwIndex >= (DWORD)m_nMaxIndex )

  00031	72 04		 jb	 SHORT $LN26@IsActive

; 271  : 		return NULL;

  00033	33 ff		 xor	 edi, edi
  00035	eb 08		 jmp	 SHORT $LN25@IsActive
$LN26@IsActive:

; 272  : 	return (T*) m_apOffset[ dwIndex ];

  00037	a1 54 02 00 00	 mov	 eax, DWORD PTR ?prj@@3VCProject@@A+596
  0003c	8b 3c b8	 mov	 edi, DWORD PTR [eax+edi*4]
$LN25@IsActive:
; File C:\IAGOS\server\v18\Source\Source\_Common\MoverParam.cpp

; 222  : 	if( pSkillProp == NULL )

  0003f	85 ff		 test	 edi, edi
  00041	0f 84 34 01 00
	00		 je	 $LN34@IsActive

; 223  : 		return FALSE;
; 224  : 
; 225  : 	if( pSkillProp->dwReSkill1 != NULL_ID )

  00047	8b 87 84 01 00
	00		 mov	 eax, DWORD PTR [edi+388]
  0004d	83 f8 ff	 cmp	 eax, -1
  00050	74 68		 je	 SHORT $LN30@IsActive

; 226  : 	{
; 227  : 		LPSKILL pSkill1;
; 228  : 		ItemProp* pSkillProp1;
; 229  : 
; 230  : 		pSkill1		= pMover->GetSkill( pSkillProp->dwReSkill1 );

  00052	50		 push	 eax
  00053	8b ce		 mov	 ecx, esi
  00055	e8 00 00 00 00	 call	 ?GetSkill@CMover@@QAEPAUtagSkill@@K@Z ; CMover::GetSkill
  0005a	8b d8		 mov	 ebx, eax

; 231  : 		if( pSkill1 == NULL )

  0005c	85 db		 test	 ebx, ebx
  0005e	0f 84 17 01 00
	00		 je	 $LN34@IsActive

; 232  : 			return FALSE;
; 233  : 
; 234  : 		pSkillProp1 = prj.GetSkillProp( pSkill1->dwSkill );

  00064	ff 33		 push	 DWORD PTR [ebx]
  00066	b9 00 00 00 00	 mov	 ecx, OFFSET ?prj@@3VCProject@@A ; prj
  0006b	e8 00 00 00 00	 call	 ?GetSkillProp@CProject@@QAEPAUItemProp@@H@Z ; CProject::GetSkillProp

; 235  : 		if( pSkillProp1 == NULL )

  00070	85 c0		 test	 eax, eax
  00072	0f 84 03 01 00
	00		 je	 $LN34@IsActive

; 236  : 			return FALSE;
; 237  : 
; 238  : #if __VER >= 10 // __LEGEND	//	9Â÷ Ŕü˝Â˝Ă˝şĹŰ	Neuz, World, Trans
; 239  : #ifdef __3RD_LEGEND16
; 240  : 		if( (int)( pSkillProp1->dwReqDisLV ) > pMover->GetLevel() && !pMover->IsMaster() && !pMover->IsHero() && !pMover->IsLegendHero() )

  00078	8b 80 80 01 00
	00		 mov	 eax, DWORD PTR [eax+384]
  0007e	3b 86 d8 05 00
	00		 cmp	 eax, DWORD PTR [esi+1496]
  00084	7e 25		 jle	 SHORT $LN7@IsActive
  00086	8b ce		 mov	 ecx, esi
  00088	e8 00 00 00 00	 call	 ?IsMaster@CMover@@QAEHXZ ; CMover::IsMaster
  0008d	85 c0		 test	 eax, eax
  0008f	75 1a		 jne	 SHORT $LN7@IsActive
  00091	8b ce		 mov	 ecx, esi
  00093	e8 00 00 00 00	 call	 ?IsHero@CMover@@QAEHXZ	; CMover::IsHero
  00098	85 c0		 test	 eax, eax
  0009a	75 0f		 jne	 SHORT $LN7@IsActive
  0009c	8b ce		 mov	 ecx, esi
  0009e	e8 00 00 00 00	 call	 ?IsLegendHero@CMover@@QAEHXZ ; CMover::IsLegendHero
  000a3	85 c0		 test	 eax, eax
  000a5	0f 84 d0 00 00
	00		 je	 $LN34@IsActive
$LN7@IsActive:

; 241  : #else // __3RD_LEGEND16
; 242  : 		if( (int)( pSkillProp1->dwReqDisLV ) > pMover->GetLevel() && !pMover->IsMaster() && !pMover->IsHero() )
; 243  : #endif // __3RD_LEGEND16
; 244  : 			return FALSE;
; 245  : #else //__LEGEND	//	9Â÷ Ŕü˝Â˝Ă˝şĹŰ	Neuz, World, Trans
; 246  : 		if( pSkillProp1->dwReqDisLV > pMover->GetLevel() )
; 247  : 			return FALSE;
; 248  : #endif	//__LEGEND	//	9Â÷ Ŕü˝Â˝Ă˝şĹŰ	Neuz, World, Trans
; 249  : 		
; 250  : 		if( pSkillProp->dwReSkillLevel1 != pSkill1->dwLevel )

  000ab	8b 87 88 01 00
	00		 mov	 eax, DWORD PTR [edi+392]
  000b1	3b 43 04	 cmp	 eax, DWORD PTR [ebx+4]
  000b4	0f 85 c1 00 00
	00		 jne	 $LN34@IsActive
$LN30@IsActive:

; 251  : 			return FALSE;
; 252  : 	}
; 253  : 
; 254  : 	if( pSkillProp->dwReSkill2 != NULL_ID )

  000ba	8b 87 8c 01 00
	00		 mov	 eax, DWORD PTR [edi+396]
  000c0	83 f8 ff	 cmp	 eax, -1
  000c3	74 60		 je	 SHORT $LN32@IsActive

; 255  : 	{
; 256  : 		LPSKILL pSkill1;
; 257  : 		ItemProp* pSkillProp1;
; 258  : 		
; 259  : 		pSkill1		= pMover->GetSkill( pSkillProp->dwReSkill2 );

  000c5	50		 push	 eax
  000c6	8b ce		 mov	 ecx, esi
  000c8	e8 00 00 00 00	 call	 ?GetSkill@CMover@@QAEPAUtagSkill@@K@Z ; CMover::GetSkill
  000cd	8b d8		 mov	 ebx, eax

; 260  : 		if( pSkill1 == NULL )

  000cf	85 db		 test	 ebx, ebx
  000d1	0f 84 a4 00 00
	00		 je	 $LN34@IsActive

; 261  : 			return FALSE;
; 262  : 	
; 263  : 		pSkillProp1 = prj.GetSkillProp( pSkill1->dwSkill );

  000d7	ff 33		 push	 DWORD PTR [ebx]
  000d9	b9 00 00 00 00	 mov	 ecx, OFFSET ?prj@@3VCProject@@A ; prj
  000de	e8 00 00 00 00	 call	 ?GetSkillProp@CProject@@QAEPAUItemProp@@H@Z ; CProject::GetSkillProp

; 264  : 		if( pSkillProp1 == NULL )

  000e3	85 c0		 test	 eax, eax
  000e5	0f 84 90 00 00
	00		 je	 $LN34@IsActive

; 265  : 			return FALSE;
; 266  : #if __VER >= 10 // __LEGEND	//	9Â÷ Ŕü˝Â˝Ă˝şĹŰ	Neuz, World, Trans
; 267  : #ifdef __3RD_LEGEND16
; 268  : 		if( (int)( pSkillProp1->dwReqDisLV ) > pMover->GetLevel() && !pMover->IsMaster() && !pMover->IsHero() && !pMover->IsLegendHero() )

  000eb	8b 80 80 01 00
	00		 mov	 eax, DWORD PTR [eax+384]
  000f1	3b 86 d8 05 00
	00		 cmp	 eax, DWORD PTR [esi+1496]
  000f7	7e 21		 jle	 SHORT $LN12@IsActive
  000f9	8b ce		 mov	 ecx, esi
  000fb	e8 00 00 00 00	 call	 ?IsMaster@CMover@@QAEHXZ ; CMover::IsMaster
  00100	85 c0		 test	 eax, eax
  00102	75 16		 jne	 SHORT $LN12@IsActive
  00104	8b ce		 mov	 ecx, esi
  00106	e8 00 00 00 00	 call	 ?IsHero@CMover@@QAEHXZ	; CMover::IsHero
  0010b	85 c0		 test	 eax, eax
  0010d	75 0b		 jne	 SHORT $LN12@IsActive
  0010f	8b ce		 mov	 ecx, esi
  00111	e8 00 00 00 00	 call	 ?IsLegendHero@CMover@@QAEHXZ ; CMover::IsLegendHero
  00116	85 c0		 test	 eax, eax
  00118	74 61		 je	 SHORT $LN34@IsActive
$LN12@IsActive:

; 269  : #else // __3RD_LEGEND16
; 270  : 		if( (int)( pSkillProp1->dwReqDisLV ) > pMover->GetLevel() && !pMover->IsMaster() && !pMover->IsHero() )
; 271  : #endif // __3RD_LEGEND16
; 272  : 			return FALSE;
; 273  : #else //__LEGEND	//	9Â÷ Ŕü˝Â˝Ă˝şĹŰ	Neuz, World, Trans
; 274  : 		if( pSkillProp1->dwReqDisLV > pMover->GetLevel() )
; 275  : 			return FALSE;
; 276  : #endif	//__LEGEND	//	9Â÷ Ŕü˝Â˝Ă˝şĹŰ	Neuz, World, Trans
; 277  : 		
; 278  : 		if( pSkillProp->dwReSkillLevel2 != pSkill1->dwLevel )

  0011a	8b 87 90 01 00
	00		 mov	 eax, DWORD PTR [edi+400]
  00120	3b 43 04	 cmp	 eax, DWORD PTR [ebx+4]
  00123	75 56		 jne	 SHORT $LN34@IsActive
$LN32@IsActive:

; 279  : 			return FALSE;		
; 280  : 	}
; 281  : #if __VER >= 10 // __LEGEND	//	9Â÷ Ŕü˝Â˝Ă˝şĹŰ	Neuz, World, Trans
; 282  : #ifdef __3RD_LEGEND16
; 283  : 		if( (int)( pSkillProp->dwReqDisLV ) > pMover->GetLevel() && !pMover->IsMaster() && !pMover->IsHero() && !pMover->IsLegendHero() )

  00125	8b 87 80 01 00
	00		 mov	 eax, DWORD PTR [edi+384]
  0012b	3b 86 d8 05 00
	00		 cmp	 eax, DWORD PTR [esi+1496]
  00131	7e 28		 jle	 SHORT $LN14@IsActive
  00133	8b ce		 mov	 ecx, esi
  00135	e8 00 00 00 00	 call	 ?IsMaster@CMover@@QAEHXZ ; CMover::IsMaster
  0013a	85 c0		 test	 eax, eax
  0013c	75 1d		 jne	 SHORT $LN14@IsActive
  0013e	8b ce		 mov	 ecx, esi
  00140	e8 00 00 00 00	 call	 ?IsHero@CMover@@QAEHXZ	; CMover::IsHero
  00145	85 c0		 test	 eax, eax
  00147	75 12		 jne	 SHORT $LN14@IsActive
  00149	8b ce		 mov	 ecx, esi
  0014b	e8 00 00 00 00	 call	 ?IsLegendHero@CMover@@QAEHXZ ; CMover::IsLegendHero
  00150	f7 d8		 neg	 eax
  00152	5f		 pop	 edi
  00153	1b c0		 sbb	 eax, eax

; 294  : }

  00155	5e		 pop	 esi
  00156	f7 d8		 neg	 eax
  00158	5b		 pop	 ebx
  00159	5d		 pop	 ebp
  0015a	c3		 ret	 0
$LN14@IsActive:
  0015b	5f		 pop	 edi
  0015c	5e		 pop	 esi
  0015d	b8 01 00 00 00	 mov	 eax, 1
  00162	5b		 pop	 ebx
  00163	5d		 pop	 ebp
  00164	c3		 ret	 0
$LN21@IsActive:
; File C:\IAGOS\server\v18\Source\Source\_Common\Project.h

; 579  : 	LPCTSTR szErr = Error( _T( "%s min:%d, max:%d, index:%d" ), szMsg, nMin, nMax, nIndex ); 

  00165	57		 push	 edi
  00166	50		 push	 eax
  00167	6a 00		 push	 0
  00169	68 00 00 00 00	 push	 OFFSET ??_C@_0BJ@GPNGCFMK@GetSkillProp?5range_error@
  0016e	68 00 00 00 00	 push	 OFFSET ??_C@_0BM@HMFGHCP@?$CFs?5min?3?$CFd?0?5max?3?$CFd?0?5index?3?$CFd@
  00173	e8 00 00 00 00	 call	 ?Error@@YAPBDPBDZZ	; Error
  00178	83 c4 14	 add	 esp, 20			; 00000014H
$LN34@IsActive:
  0017b	5f		 pop	 edi
; File C:\IAGOS\server\v18\Source\Source\_Common\MoverParam.cpp

; 294  : }

  0017c	5e		 pop	 esi
  0017d	33 c0		 xor	 eax, eax
  0017f	5b		 pop	 ebx
  00180	5d		 pop	 ebp
  00181	c3		 ret	 0
?IsActive@@YAHPAVCMover@@K@Z ENDP			; IsActive
_TEXT	ENDS
; Function compile flags: /Ogtp
; File C:\IAGOS\server\v18\Source\Source\_Common\MoverParam.cpp
; File C:\IAGOS\server\v18\Source\Source\_Common\Project.h
; File C:\IAGOS\server\v18\Source\Source\_Common\data.h
; File C:\IAGOS\server\v18\Source\Source\_Common\MoverParam.cpp
; File C:\IAGOS\server\v18\Source\Source\_Common\Project.h
; File C:\IAGOS\server\v18\Source\Source\_Common\MoverParam.cpp
;	COMDAT ?IsSkillParent@@YAHPAVCMover@@KK@Z
_TEXT	SEGMENT
_pMover$ = 8						; size = 4
_dwSkill$ = 12						; size = 4
_dwChildSkill$ = 16					; size = 4
?IsSkillParent@@YAHPAVCMover@@KK@Z PROC			; IsSkillParent, COMDAT

; 200  : {

  00000	55		 push	 ebp
  00001	8b ec		 mov	 ebp, esp

; 201  : 	LPSKILL pSkill = pMover->GetSkill( dwSkill );

  00003	8b 4d 08	 mov	 ecx, DWORD PTR _pMover$[ebp]
  00006	56		 push	 esi
  00007	8b 75 0c	 mov	 esi, DWORD PTR _dwSkill$[ebp]
  0000a	57		 push	 edi
  0000b	8b 7d 10	 mov	 edi, DWORD PTR _dwChildSkill$[ebp]
  0000e	56		 push	 esi
  0000f	e8 00 00 00 00	 call	 ?GetSkill@CMover@@QAEPAUtagSkill@@K@Z ; CMover::GetSkill

; 202  : 	if( pSkill == NULL )

  00014	85 c0		 test	 eax, eax
  00016	74 55		 je	 SHORT $LN19@IsSkillPar
; File C:\IAGOS\server\v18\Source\Source\_Common\Project.h

; 1395 : 	VERIFY_RANGE( nIndex, 0, m_aPropSkill.GetSize(), "GetSkillProp range_error", NULL );

  00018	a1 64 02 00 00	 mov	 eax, DWORD PTR ?prj@@3VCProject@@A+612
  0001d	85 f6		 test	 esi, esi
  0001f	78 36		 js	 SHORT $LN12@IsSkillPar
  00021	3b f0		 cmp	 esi, eax
  00023	7d 32		 jge	 SHORT $LN12@IsSkillPar
; File C:\IAGOS\server\v18\Source\Source\_Common\data.h

; 270  : 	if( dwIndex >= (DWORD)m_nMaxIndex )

  00025	72 04		 jb	 SHORT $LN17@IsSkillPar

; 271  : 		return NULL;

  00027	33 c9		 xor	 ecx, ecx
  00029	eb 08		 jmp	 SHORT $LN16@IsSkillPar
$LN17@IsSkillPar:

; 272  : 	return (T*) m_apOffset[ dwIndex ];

  0002b	a1 54 02 00 00	 mov	 eax, DWORD PTR ?prj@@3VCProject@@A+596
  00030	8b 0c b0	 mov	 ecx, DWORD PTR [eax+esi*4]
$LN16@IsSkillPar:
; File C:\IAGOS\server\v18\Source\Source\_Common\MoverParam.cpp

; 206  : 	if( pSkillProp == NULL )

  00033	85 c9		 test	 ecx, ecx
  00035	74 36		 je	 SHORT $LN19@IsSkillPar

; 208  : 
; 209  : 	if( pSkillProp->dwReSkill1 == dwChildSkill || pSkillProp->dwReSkill2 == dwChildSkill )

  00037	39 b9 84 01 00
	00		 cmp	 DWORD PTR [ecx+388], edi
  0003d	74 0f		 je	 SHORT $LN5@IsSkillPar
  0003f	33 c0		 xor	 eax, eax
  00041	39 b9 8c 01 00
	00		 cmp	 DWORD PTR [ecx+396], edi
  00047	5f		 pop	 edi
  00048	0f 94 c0	 sete	 al

; 211  : 
; 212  : 	return FALSE;
; 213  : }

  0004b	5e		 pop	 esi
  0004c	5d		 pop	 ebp
  0004d	c3		 ret	 0
$LN5@IsSkillPar:
  0004e	5f		 pop	 edi

; 210  : 		return TRUE;

  0004f	b8 01 00 00 00	 mov	 eax, 1

; 211  : 
; 212  : 	return FALSE;
; 213  : }

  00054	5e		 pop	 esi
  00055	5d		 pop	 ebp
  00056	c3		 ret	 0
$LN12@IsSkillPar:
; File C:\IAGOS\server\v18\Source\Source\_Common\Project.h

; 579  : 	LPCTSTR szErr = Error( _T( "%s min:%d, max:%d, index:%d" ), szMsg, nMin, nMax, nIndex ); 

  00057	56		 push	 esi
  00058	50		 push	 eax
  00059	6a 00		 push	 0
  0005b	68 00 00 00 00	 push	 OFFSET ??_C@_0BJ@GPNGCFMK@GetSkillProp?5range_error@
  00060	68 00 00 00 00	 push	 OFFSET ??_C@_0BM@HMFGHCP@?$CFs?5min?3?$CFd?0?5max?3?$CFd?0?5index?3?$CFd@
  00065	e8 00 00 00 00	 call	 ?Error@@YAPBDPBDZZ	; Error
  0006a	83 c4 14	 add	 esp, 20			; 00000014H
$LN19@IsSkillPar:
  0006d	5f		 pop	 edi
; File C:\IAGOS\server\v18\Source\Source\_Common\MoverParam.cpp

; 207  : 		return FALSE;

  0006e	33 c0		 xor	 eax, eax

; 211  : 
; 212  : 	return FALSE;
; 213  : }

  00070	5e		 pop	 esi
  00071	5d		 pop	 ebp
  00072	c3		 ret	 0
?IsSkillParent@@YAHPAVCMover@@KK@Z ENDP			; IsSkillParent
_TEXT	ENDS
; Function compile flags: /Ogtp
; File C:\Program Files\Microsoft Visual Studio\2022\Professional\VC\Tools\MSVC\14.44.35207\include\xmemory
;	COMDAT ??$_Allocate_manually_vector_aligned@U_Default_allocate_traits@std@@@std@@YAPAXI@Z
_TEXT	SEGMENT
__Bytes$ = 8						; size = 4
??$_Allocate_manually_vector_aligned@U_Default_allocate_traits@std@@@std@@YAPAXI@Z PROC ; std::_Allocate_manually_vector_aligned<std::_Default_allocate_traits>, COMDAT

; 182  : __declspec(allocator) void* _Allocate_manually_vector_aligned(const size_t _Bytes) {

  00000	55		 push	 ebp
  00001	8b ec		 mov	 ebp, esp

; 183  :     // allocate _Bytes manually aligned to at least _Big_allocation_alignment
; 184  :     const size_t _Block_size = _Non_user_size + _Bytes;

  00003	8b 45 08	 mov	 eax, DWORD PTR __Bytes$[ebp]
  00006	8d 48 23	 lea	 ecx, DWORD PTR [eax+35]

; 185  :     if (_Block_size <= _Bytes) {

  00009	3b c8		 cmp	 ecx, eax
  0000b	0f 86 00 00 00
	00		 jbe	 ?_Throw_bad_array_new_length@std@@YAXXZ ; std::_Throw_bad_array_new_length

; 136  :         return ::operator new(_Bytes);

  00011	51		 push	 ecx
  00012	e8 00 00 00 00	 call	 ??2@YAPAXI@Z		; operator new

; 186  :         _Throw_bad_array_new_length(); // add overflow
; 187  :     }
; 188  : 
; 189  :     const uintptr_t _Ptr_container = reinterpret_cast<uintptr_t>(_Traits::_Allocate(_Block_size));

  00017	8b c8		 mov	 ecx, eax

; 136  :         return ::operator new(_Bytes);

  00019	83 c4 04	 add	 esp, 4

; 190  :     _STL_VERIFY(_Ptr_container != 0, "invalid argument"); // validate even in release since we're doing p[-1]

  0001c	85 c9		 test	 ecx, ecx
  0001e	74 0b		 je	 SHORT $LN9@Allocate_m

; 191  :     void* const _Ptr = reinterpret_cast<void*>((_Ptr_container + _Non_user_size) & ~(_Big_allocation_alignment - 1));

  00020	8d 41 23	 lea	 eax, DWORD PTR [ecx+35]
  00023	83 e0 e0	 and	 eax, -32		; ffffffe0H

; 192  :     static_cast<uintptr_t*>(_Ptr)[-1] = _Ptr_container;

  00026	89 48 fc	 mov	 DWORD PTR [eax-4], ecx

; 193  : 
; 194  : #ifdef _DEBUG
; 195  :     static_cast<uintptr_t*>(_Ptr)[-2] = _Big_allocation_sentinel;
; 196  : #endif // defined(_DEBUG)
; 197  :     return _Ptr;
; 198  : }

  00029	5d		 pop	 ebp
  0002a	c3		 ret	 0
$LN9@Allocate_m:

; 190  :     _STL_VERIFY(_Ptr_container != 0, "invalid argument"); // validate even in release since we're doing p[-1]

  0002b	6a 00		 push	 0
  0002d	6a 00		 push	 0
  0002f	6a 00		 push	 0
  00031	6a 00		 push	 0
  00033	6a 00		 push	 0
  00035	e8 00 00 00 00	 call	 __invoke_watson
$LN7@Allocate_m:
  0003a	cc		 int	 3
??$_Allocate_manually_vector_aligned@U_Default_allocate_traits@std@@@std@@YAPAXI@Z ENDP ; std::_Allocate_manually_vector_aligned<std::_Default_allocate_traits>
_TEXT	ENDS
; Function compile flags: /Ogtp
; File C:\Program Files\Microsoft Visual Studio\2022\Professional\VC\Tools\MSVC\14.44.35207\include\xutility
;	COMDAT ??$_Copy_memmove_tail@PAJ@std@@YAPAJQBDQAJII@Z
_TEXT	SEGMENT
__First_ch$ = 8						; size = 4
__Dest$ = 12						; size = 4
__Byte_count$ = 16					; size = 4
__Object_count$ = 20					; size = 4
??$_Copy_memmove_tail@PAJ@std@@YAPAJQBDQAJII@Z PROC	; std::_Copy_memmove_tail<long *>, COMDAT

; 4747 :     const char* const _First_ch, const _OutCtgIt _Dest, const size_t _Byte_count, const size_t _Object_count) {

  00000	55		 push	 ebp
  00001	8b ec		 mov	 ebp, esp
  00003	56		 push	 esi

; 4748 :     _STL_INTERNAL_CHECK(_Byte_count == _Object_count * sizeof(*_Dest));
; 4749 :     const auto _Dest_ptr = _STD _To_address(_Dest);
; 4750 :     const auto _Dest_ch  = const_cast<char*>(reinterpret_cast<const volatile char*>(_Dest_ptr));
; 4751 :     _CSTD memmove(_Dest_ch, _First_ch, _Byte_count);

  00004	8b 75 0c	 mov	 esi, DWORD PTR __Dest$[ebp]
  00007	57		 push	 edi
  00008	8b 7d 10	 mov	 edi, DWORD PTR __Byte_count$[ebp]
  0000b	57		 push	 edi
  0000c	ff 75 08	 push	 DWORD PTR __First_ch$[ebp]
  0000f	56		 push	 esi
  00010	e8 00 00 00 00	 call	 _memmove
  00015	83 c4 0c	 add	 esp, 12			; 0000000cH

; 4752 :     if constexpr (is_pointer_v<_OutCtgIt>) {
; 4753 :         (void) _Object_count;
; 4754 :         // CodeQL [SM02986] This cast is correct: we're bypassing pointer arithmetic for performance.
; 4755 :         return reinterpret_cast<_OutCtgIt>(_Dest_ch + _Byte_count);

  00018	8d 04 3e	 lea	 eax, DWORD PTR [esi+edi]
  0001b	5f		 pop	 edi
  0001c	5e		 pop	 esi

; 4756 :     } else {
; 4757 :         return _Dest + static_cast<_Iter_diff_t<_OutCtgIt>>(_Object_count);
; 4758 :     }
; 4759 : }

  0001d	5d		 pop	 ebp
  0001e	c3		 ret	 0
??$_Copy_memmove_tail@PAJ@std@@YAPAJQBDQAJII@Z ENDP	; std::_Copy_memmove_tail<long *>
_TEXT	ENDS
; Function compile flags: /Ogtp
; File C:\Program Files\Microsoft Visual Studio\2022\Professional\VC\Tools\MSVC\14.44.35207\include\xutility
;	COMDAT ??$_Copy_memmove@PAJPAJ@std@@YAPAJPAJ00@Z
_TEXT	SEGMENT
__First$ = 8						; size = 4
__Last$ = 12						; size = 4
__Dest$ = 16						; size = 4
??$_Copy_memmove@PAJPAJ@std@@YAPAJPAJ00@Z PROC		; std::_Copy_memmove<long *,long *>, COMDAT

; 4762 : _OutCtgIt _Copy_memmove(_CtgIt _First, _CtgIt _Last, _OutCtgIt _Dest) {

  00000	55		 push	 ebp
  00001	8b ec		 mov	 ebp, esp

; 4763 :     _STL_INTERNAL_CHECK(_First <= _Last);
; 4764 :     const auto _First_ptr    = _STD _To_address(_First);
; 4765 :     const auto _Last_ptr     = _STD _To_address(_Last);
; 4766 :     const auto _Object_count = static_cast<size_t>(_Last_ptr - _First_ptr);

  00003	8b 55 08	 mov	 edx, DWORD PTR __First$[ebp]
  00006	8b 4d 0c	 mov	 ecx, DWORD PTR __Last$[ebp]
  00009	2b ca		 sub	 ecx, edx
  0000b	8b c1		 mov	 eax, ecx
  0000d	c1 f8 02	 sar	 eax, 2

; 4767 :     const auto _First_ch     = const_cast<const char*>(reinterpret_cast<const volatile char*>(_First_ptr));
; 4768 :     const auto _Last_ch      = const_cast<const char*>(reinterpret_cast<const volatile char*>(_Last_ptr));
; 4769 :     const auto _Byte_count   = static_cast<size_t>(_Last_ch - _First_ch);
; 4770 :     return _STD _Copy_memmove_tail(_First_ch, _STD move(_Dest), _Byte_count, _Object_count);

  00010	50		 push	 eax
  00011	51		 push	 ecx
  00012	ff 75 10	 push	 DWORD PTR __Dest$[ebp]
  00015	52		 push	 edx
  00016	e8 00 00 00 00	 call	 ??$_Copy_memmove_tail@PAJ@std@@YAPAJQBDQAJII@Z ; std::_Copy_memmove_tail<long *>
  0001b	83 c4 10	 add	 esp, 16			; 00000010H

; 4771 : }

  0001e	5d		 pop	 ebp
  0001f	c3		 ret	 0
??$_Copy_memmove@PAJPAJ@std@@YAPAJPAJ00@Z ENDP		; std::_Copy_memmove<long *,long *>
_TEXT	ENDS
; Function compile flags: /Ogtp
; File C:\Program Files\Microsoft Visual Studio\2022\Professional\VC\Tools\MSVC\14.44.35207\include\xutility
;	COMDAT ??$_Fill_zero_memset@PAJ@std@@YAXPAJI@Z
_TEXT	SEGMENT
__Dest$ = 8						; size = 4
__Count$ = 12						; size = 4
??$_Fill_zero_memset@PAJ@std@@YAXPAJI@Z PROC		; std::_Fill_zero_memset<long *>, COMDAT

; 5269 : void _Fill_zero_memset(_CtgIt _Dest, const size_t _Count) {

  00000	55		 push	 ebp
  00001	8b ec		 mov	 ebp, esp

; 5270 :     _CSTD memset(_STD _To_address(_Dest), 0, _Count * sizeof(_Iter_value_t<_CtgIt>));

  00003	8b 45 0c	 mov	 eax, DWORD PTR __Count$[ebp]
  00006	c1 e0 02	 shl	 eax, 2
  00009	50		 push	 eax
  0000a	6a 00		 push	 0
  0000c	ff 75 08	 push	 DWORD PTR __Dest$[ebp]
  0000f	e8 00 00 00 00	 call	 _memset
  00014	83 c4 0c	 add	 esp, 12			; 0000000cH

; 5271 : }

  00017	5d		 pop	 ebp
  00018	c3		 ret	 0
??$_Fill_zero_memset@PAJ@std@@YAXPAJI@Z ENDP		; std::_Fill_zero_memset<long *>
_TEXT	ENDS
; Function compile flags: /Ogtp
; File C:\Program Files\Microsoft Visual Studio\2022\Professional\VC\Tools\MSVC\14.44.35207\include\xutility
;	COMDAT ??$_Is_all_bits_zero@J@std@@YA_NABJ@Z
_TEXT	SEGMENT
__Zero$1 = -4						; size = 4
__Val$ = 8						; size = 4
??$_Is_all_bits_zero@J@std@@YA_NABJ@Z PROC		; std::_Is_all_bits_zero<long>, COMDAT

; 5274 : _NODISCARD bool _Is_all_bits_zero(const _Ty& _Val) {

  00000	55		 push	 ebp
  00001	8b ec		 mov	 ebp, esp
  00003	51		 push	 ecx

; 5275 :     // checks if scalar type has all bits set to zero
; 5276 :     _STL_INTERNAL_STATIC_ASSERT(is_scalar_v<_Ty> && !is_member_pointer_v<_Ty>);
; 5277 :     if constexpr (is_same_v<_Ty, nullptr_t>) {
; 5278 :         return true;
; 5279 :     } else {
; 5280 :         constexpr _Ty _Zero{};
; 5281 :         return _CSTD memcmp(&_Val, &_Zero, sizeof(_Ty)) == 0;

  00004	8b 45 08	 mov	 eax, DWORD PTR __Val$[ebp]
  00007	8d 4d fc	 lea	 ecx, DWORD PTR __Zero$1[ebp]
  0000a	c7 45 fc 00 00
	00 00		 mov	 DWORD PTR __Zero$1[ebp], 0
  00011	8b 00		 mov	 eax, DWORD PTR [eax]
  00013	3b 01		 cmp	 eax, DWORD PTR [ecx]
  00015	0f 94 c0	 sete	 al

; 5282 :     }
; 5283 : }

  00018	8b e5		 mov	 esp, ebp
  0001a	5d		 pop	 ebp
  0001b	c3		 ret	 0
??$_Is_all_bits_zero@J@std@@YA_NABJ@Z ENDP		; std::_Is_all_bits_zero<long>
_TEXT	ENDS
; Function compile flags: /Ogtp
; File C:\Program Files\Microsoft Visual Studio\2022\Professional\VC\Tools\MSVC\14.44.35207\include\xmemory
;	COMDAT ??$_Uninitialized_fill_n@V?$allocator@J@std@@@std@@YAPAJPAJIABJAAV?$allocator@J@0@@Z
_TEXT	SEGMENT
__First$ = 8						; size = 4
__Count$ = 12						; size = 4
__Val$ = 16						; size = 4
__Al$ = 20						; size = 4
??$_Uninitialized_fill_n@V?$allocator@J@std@@@std@@YAPAJPAJIABJAAV?$allocator@J@0@@Z PROC ; std::_Uninitialized_fill_n<std::allocator<long> >, COMDAT

; 2007 :     _Alloc_ptr_t<_Alloc> _First, _Alloc_size_t<_Alloc> _Count, const typename _Alloc::value_type& _Val, _Alloc& _Al) {

  00000	55		 push	 ebp
  00001	8b ec		 mov	 ebp, esp
  00003	56		 push	 esi

; 2008 :     // copy _Count copies of _Val to raw _First, using _Al
; 2009 :     using _Ty = typename _Alloc::value_type;
; 2010 :     if constexpr (_Fill_memset_is_safe<_Ty*, _Ty> && _Uses_default_construct<_Alloc, _Ty*, _Ty>::value) {
; 2011 : #if _HAS_CXX20
; 2012 :         if (!_STD is_constant_evaluated())
; 2013 : #endif // _HAS_CXX20
; 2014 :         {
; 2015 :             _Fill_memset(_Unfancy(_First), _Val, static_cast<size_t>(_Count));
; 2016 :             return _First + _Count;
; 2017 :         }
; 2018 :     } else if constexpr (_Fill_zero_memset_is_safe<_Ty*, _Ty> && _Uses_default_construct<_Alloc, _Ty*, _Ty>::value) {
; 2019 : #if _HAS_CXX20
; 2020 :         if (!_STD is_constant_evaluated())
; 2021 : #endif // _HAS_CXX20
; 2022 :         {
; 2023 :             if (_Is_all_bits_zero(_Val)) {

  00004	8b 75 10	 mov	 esi, DWORD PTR __Val$[ebp]
  00007	56		 push	 esi
  00008	e8 00 00 00 00	 call	 ??$_Is_all_bits_zero@J@std@@YA_NABJ@Z ; std::_Is_all_bits_zero<long>
  0000d	83 c4 04	 add	 esp, 4
  00010	84 c0		 test	 al, al
  00012	74 18		 je	 SHORT $LN5@Uninitiali

; 2024 :                 _Fill_zero_memset(_Unfancy(_First), static_cast<size_t>(_Count));

  00014	8b 75 08	 mov	 esi, DWORD PTR __First$[ebp]
  00017	57		 push	 edi
  00018	8b 7d 0c	 mov	 edi, DWORD PTR __Count$[ebp]
  0001b	57		 push	 edi
  0001c	56		 push	 esi
  0001d	e8 00 00 00 00	 call	 ??$_Fill_zero_memset@PAJ@std@@YAXPAJI@Z ; std::_Fill_zero_memset<long *>
  00022	83 c4 08	 add	 esp, 8

; 2025 :                 return _First + _Count;

  00025	8d 04 be	 lea	 eax, DWORD PTR [esi+edi*4]
  00028	5f		 pop	 edi
  00029	5e		 pop	 esi

; 2032 :         _Backout._Emplace_back(_Val);
; 2033 :     }
; 2034 : 
; 2035 :     return _Backout._Release();
; 2036 : }

  0002a	5d		 pop	 ebp
  0002b	c3		 ret	 0
$LN5@Uninitiali:

; 2026 :             }
; 2027 :         }
; 2028 :     }
; 2029 : 
; 2030 :     _Uninitialized_backout_al<_Alloc> _Backout{_First, _Al};
; 2031 :     for (; 0 < _Count; --_Count) {

  0002c	8b 55 0c	 mov	 edx, DWORD PTR __Count$[ebp]

; 1833 :     _CONSTEXPR20 _Uninitialized_backout_al(pointer _Dest, _Alloc& _Al_) : _First(_Dest), _Last(_Dest), _Al(_Al_) {}

  0002f	8b 45 08	 mov	 eax, DWORD PTR __First$[ebp]

; 2026 :             }
; 2027 :         }
; 2028 :     }
; 2029 : 
; 2030 :     _Uninitialized_backout_al<_Alloc> _Backout{_First, _Al};
; 2031 :     for (; 0 < _Count; --_Count) {

  00032	85 d2		 test	 edx, edx
  00034	74 0c		 je	 SHORT $LN1@Uninitiali
$LL4@Uninitiali:

; 1844 :         allocator_traits<_Alloc>::construct(_Al, _STD _Unfancy(_Last), _STD forward<_Types>(_Vals)...);

  00036	8b 0e		 mov	 ecx, DWORD PTR [esi]
  00038	89 08		 mov	 DWORD PTR [eax], ecx

; 1845 :         ++_Last;

  0003a	83 c0 04	 add	 eax, 4

; 2026 :             }
; 2027 :         }
; 2028 :     }
; 2029 : 
; 2030 :     _Uninitialized_backout_al<_Alloc> _Backout{_First, _Al};
; 2031 :     for (; 0 < _Count; --_Count) {

  0003d	83 ea 01	 sub	 edx, 1
  00040	75 f4		 jne	 SHORT $LL4@Uninitiali
$LN1@Uninitiali:
  00042	5e		 pop	 esi

; 2032 :         _Backout._Emplace_back(_Val);
; 2033 :     }
; 2034 : 
; 2035 :     return _Backout._Release();
; 2036 : }

  00043	5d		 pop	 ebp
  00044	c3		 ret	 0
??$_Uninitialized_fill_n@V?$allocator@J@std@@@std@@YAPAJPAJIABJAAV?$allocator@J@0@@Z ENDP ; std::_Uninitialized_fill_n<std::allocator<long> >
_TEXT	ENDS
; Function compile flags: /Ogtp
; File C:\Program Files\Microsoft Visual Studio\2022\Professional\VC\Tools\MSVC\14.44.35207\include\vector
; File C:\Program Files\Microsoft Visual Studio\2022\Professional\VC\Tools\MSVC\14.44.35207\include\xmemory
; File C:\Program Files\Microsoft Visual Studio\2022\Professional\VC\Tools\MSVC\14.44.35207\include\vector
; File C:\Program Files\Microsoft Visual Studio\2022\Professional\VC\Tools\MSVC\14.44.35207\include\xmemory
; File C:\Program Files\Microsoft Visual Studio\2022\Professional\VC\Tools\MSVC\14.44.35207\include\vector
; File C:\Program Files\Microsoft Visual Studio\2022\Professional\VC\Tools\MSVC\14.44.35207\include\xmemory
; File C:\Program Files\Microsoft Visual Studio\2022\Professional\VC\Tools\MSVC\14.44.35207\include\vector
; File C:\Program Files\Microsoft Visual Studio\2022\Professional\VC\Tools\MSVC\14.44.35207\include\xmemory
; File C:\Program Files\Microsoft Visual Studio\2022\Professional\VC\Tools\MSVC\14.44.35207\include\vector
; File C:\Program Files\Microsoft Visual Studio\2022\Professional\VC\Tools\MSVC\14.44.35207\include\xmemory
; File C:\Program Files\Microsoft Visual Studio\2022\Professional\VC\Tools\MSVC\14.44.35207\include\vector
; File C:\Program Files\Microsoft Visual Studio\2022\Professional\VC\Tools\MSVC\14.44.35207\include\xmemory
; File C:\Program Files\Microsoft Visual Studio\2022\Professional\VC\Tools\MSVC\14.44.35207\include\vector
;	COMDAT ??$_Resize@J@?$vector@JV?$allocator@J@std@@@std@@AAEXIABJ@Z
_TEXT	SEGMENT
tv575 = -4						; size = 4
__Newsize$ = 8						; size = 4
$T2 = 8							; size = 4
__Val$ = 12						; size = 4
??$_Resize@J@?$vector@JV?$allocator@J@std@@@std@@AAEXIABJ@Z PROC ; std::vector<long,std::allocator<long> >::_Resize<long>, COMDAT
; _this$ = ecx

; 1589 :     _CONSTEXPR20 void _Resize(const size_type _Newsize, const _Ty2& _Val) {

  00000	55		 push	 ebp
  00001	8b ec		 mov	 ebp, esp
  00003	51		 push	 ecx
  00004	53		 push	 ebx
  00005	56		 push	 esi

; 1590 :         // trim or append elements, provide strong guarantee
; 1591 :         auto& _Al           = _Getal();
; 1592 :         auto& _My_data      = _Mypair._Myval2;
; 1593 :         pointer& _Myfirst   = _My_data._Myfirst;
; 1594 :         pointer& _Mylast    = _My_data._Mylast;
; 1595 :         const auto _Oldsize = static_cast<size_type>(_Mylast - _Myfirst);
; 1596 :         if (_Newsize < _Oldsize) { // trim

  00006	8b 75 08	 mov	 esi, DWORD PTR __Newsize$[ebp]
  00009	57		 push	 edi
  0000a	8b f9		 mov	 edi, ecx
  0000c	8b 57 04	 mov	 edx, DWORD PTR [edi+4]
  0000f	8b da		 mov	 ebx, edx
  00011	8b 07		 mov	 eax, DWORD PTR [edi]
  00013	2b d8		 sub	 ebx, eax
  00015	c1 fb 02	 sar	 ebx, 2
  00018	3b f3		 cmp	 esi, ebx
  0001a	73 0f		 jae	 SHORT $LN2@Resize

; 1597 :             const pointer _Newlast = _Myfirst + _Newsize;

  0001c	8d 04 b0	 lea	 eax, DWORD PTR [eax+esi*4]

; 1625 :     }

  0001f	89 47 04	 mov	 DWORD PTR [edi+4], eax
  00022	5f		 pop	 edi
  00023	5e		 pop	 esi
  00024	5b		 pop	 ebx
  00025	8b e5		 mov	 esp, ebp
  00027	5d		 pop	 ebp
  00028	c2 08 00	 ret	 8
$LN2@Resize:

; 1598 :             _Orphan_range(_Newlast, _Mylast);
; 1599 :             _Destroy_range(_Newlast, _Mylast, _Al);
; 1600 :             _ASAN_VECTOR_MODIFY(static_cast<difference_type>(_Newsize - _Oldsize));
; 1601 :             _Mylast = _Newlast;
; 1602 :             return;
; 1603 :         }
; 1604 : 
; 1605 :         if (_Newsize > _Oldsize) { // append

  0002b	0f 86 0e 01 00
	00		 jbe	 $LN3@Resize

; 1606 :             const auto _Oldcapacity = static_cast<size_type>(_My_data._Myend - _Myfirst);

  00031	8b 4f 08	 mov	 ecx, DWORD PTR [edi+8]
  00034	2b c8		 sub	 ecx, eax
  00036	c1 f9 02	 sar	 ecx, 2

; 1607 :             if (_Newsize > _Oldcapacity) { // reallocate

  00039	3b f1		 cmp	 esi, ecx
  0003b	0f 86 eb 00 00
	00		 jbe	 $LN4@Resize

; 1553 :         if (_Newsize > max_size()) {

  00041	81 fe ff ff ff
	3f		 cmp	 esi, 1073741823		; 3fffffffH
  00047	0f 87 fb 00 00
	00		 ja	 $LN97@Resize

; 2011 :         if (_Oldcapacity > _Max - _Oldcapacity / 2) {

  0004d	8b d1		 mov	 edx, ecx
  0004f	b8 ff ff ff 3f	 mov	 eax, 1073741823		; 3fffffffH
  00054	d1 ea		 shr	 edx, 1
  00056	2b c2		 sub	 eax, edx
  00058	3b c8		 cmp	 ecx, eax
  0005a	76 19		 jbe	 SHORT $LN11@Resize

; 2012 :             return _Max; // geometric growth would overflow

  0005c	b8 fc ff ff ff	 mov	 eax, -4			; fffffffcH
  00061	c7 45 fc fc ff
	ff ff		 mov	 DWORD PTR tv575[ebp], -4 ; fffffffcH
; File C:\Program Files\Microsoft Visual Studio\2022\Professional\VC\Tools\MSVC\14.44.35207\include\xmemory

; 253  :             return _Allocate_manually_vector_aligned<_Traits>(_Bytes);

  00068	50		 push	 eax
  00069	e8 00 00 00 00	 call	 ??$_Allocate_manually_vector_aligned@U_Default_allocate_traits@std@@@std@@YAPAXI@Z ; std::_Allocate_manually_vector_aligned<std::_Default_allocate_traits>
  0006e	8b c8		 mov	 ecx, eax
  00070	89 4d 08	 mov	 DWORD PTR $T2[ebp], ecx
  00073	eb 46		 jmp	 SHORT $LN95@Resize
$LN11@Resize:
; File C:\Program Files\Microsoft Visual Studio\2022\Professional\VC\Tools\MSVC\14.44.35207\include\vector

; 2015 :         const size_type _Geometric = _Oldcapacity + _Oldcapacity / 2;

  00075	8d 04 0a	 lea	 eax, DWORD PTR [edx+ecx]

; 2016 : 
; 2017 :         if (_Geometric < _Newsize) {

  00078	3b c6		 cmp	 eax, esi
  0007a	73 13		 jae	 SHORT $LN12@Resize

; 2018 :             return _Newsize; // geometric growth would be insufficient

  0007c	8b c6		 mov	 eax, esi
$LN22@Resize:
; File C:\Program Files\Microsoft Visual Studio\2022\Professional\VC\Tools\MSVC\14.44.35207\include\xmemory

; 122  :     return _Count * _Ty_size;

  0007e	c1 e0 02	 shl	 eax, 2
  00081	89 45 fc	 mov	 DWORD PTR tv575[ebp], eax

; 227  :     if (_Bytes == 0) {

  00084	85 c0		 test	 eax, eax
  00086	75 14		 jne	 SHORT $LN26@Resize

; 228  :         return nullptr;

  00088	33 c9		 xor	 ecx, ecx
  0008a	89 4d 08	 mov	 DWORD PTR $T2[ebp], ecx
  0008d	eb 2f		 jmp	 SHORT $LN25@Resize
$LN12@Resize:

; 117  :         if (_Count > _Max_possible) {

  0008f	3d ff ff ff 3f	 cmp	 eax, 1073741823		; 3fffffffH
  00094	0f 87 b3 00 00
	00		 ja	 $LN98@Resize
  0009a	eb e2		 jmp	 SHORT $LN22@Resize
$LN26@Resize:

; 251  :         if (_Bytes >= _Big_allocation_threshold) {

  0009c	3d 00 10 00 00	 cmp	 eax, 4096		; 00001000H
  000a1	72 0d		 jb	 SHORT $LN27@Resize

; 253  :             return _Allocate_manually_vector_aligned<_Traits>(_Bytes);

  000a3	50		 push	 eax
  000a4	e8 00 00 00 00	 call	 ??$_Allocate_manually_vector_aligned@U_Default_allocate_traits@std@@@std@@YAPAXI@Z ; std::_Allocate_manually_vector_aligned<std::_Default_allocate_traits>
  000a9	8b c8		 mov	 ecx, eax
  000ab	89 4d 08	 mov	 DWORD PTR $T2[ebp], ecx
  000ae	eb 0b		 jmp	 SHORT $LN95@Resize
$LN27@Resize:

; 136  :         return ::operator new(_Bytes);

  000b0	50		 push	 eax
  000b1	e8 00 00 00 00	 call	 ??2@YAPAXI@Z		; operator new

; 256  :         return _Traits::_Allocate(_Bytes);

  000b6	8b c8		 mov	 ecx, eax
  000b8	89 45 08	 mov	 DWORD PTR $T2[ebp], eax
$LN95@Resize:
; File C:\Program Files\Microsoft Visual Studio\2022\Professional\VC\Tools\MSVC\14.44.35207\include\vector

; 1572 :             _Appended_last = _Uninitialized_fill_n(_Appended_first, _Newsize - _Oldsize, _Val, _Al);

  000bb	83 c4 04	 add	 esp, 4
$LN25@Resize:
  000be	57		 push	 edi
  000bf	ff 75 0c	 push	 DWORD PTR __Val$[ebp]
  000c2	8b c6		 mov	 eax, esi
  000c4	2b c3		 sub	 eax, ebx
  000c6	50		 push	 eax
  000c7	8d 04 99	 lea	 eax, DWORD PTR [ecx+ebx*4]
  000ca	50		 push	 eax
  000cb	e8 00 00 00 00	 call	 ??$_Uninitialized_fill_n@V?$allocator@J@std@@@std@@YAPAJPAJIABJAAV?$allocator@J@0@@Z ; std::_Uninitialized_fill_n<std::allocator<long> >
; File C:\Program Files\Microsoft Visual Studio\2022\Professional\VC\Tools\MSVC\14.44.35207\include\xmemory

; 1992 :             _STD _Copy_memmove(_UFirst, _ULast, _STD _Unfancy(_Dest));

  000d0	8b 5d 08	 mov	 ebx, DWORD PTR $T2[ebp]
  000d3	53		 push	 ebx
  000d4	ff 77 04	 push	 DWORD PTR [edi+4]
  000d7	ff 37		 push	 DWORD PTR [edi]
  000d9	e8 00 00 00 00	 call	 ??$_Copy_memmove@PAJPAJ@std@@YAPAJPAJ00@Z ; std::_Copy_memmove<long *,long *>
; File C:\Program Files\Microsoft Visual Studio\2022\Professional\VC\Tools\MSVC\14.44.35207\include\vector

; 2069 :         if (_Myfirst) { // destroy and deallocate old array

  000de	8b 07		 mov	 eax, DWORD PTR [edi]
; File C:\Program Files\Microsoft Visual Studio\2022\Professional\VC\Tools\MSVC\14.44.35207\include\xmemory

; 1992 :             _STD _Copy_memmove(_UFirst, _ULast, _STD _Unfancy(_Dest));

  000e0	83 c4 1c	 add	 esp, 28			; 0000001cH
; File C:\Program Files\Microsoft Visual Studio\2022\Professional\VC\Tools\MSVC\14.44.35207\include\vector

; 2069 :         if (_Myfirst) { // destroy and deallocate old array

  000e3	85 c0		 test	 eax, eax
  000e5	74 2c		 je	 SHORT $LN53@Resize

; 2070 :             _STD _Destroy_range(_Myfirst, _Mylast, _Al);
; 2071 :             _ASAN_VECTOR_REMOVE;
; 2072 :             _Al.deallocate(_Myfirst, static_cast<size_type>(_Myend - _Myfirst));

  000e7	8b 4f 08	 mov	 ecx, DWORD PTR [edi+8]
  000ea	2b c8		 sub	 ecx, eax
; File C:\Program Files\Microsoft Visual Studio\2022\Professional\VC\Tools\MSVC\14.44.35207\include\xmemory

; 985  :         _STD _Deallocate<_New_alignof<_Ty>>(_Ptr, sizeof(_Ty) * _Count);

  000ec	83 e1 fc	 and	 ecx, -4			; fffffffcH

; 284  :         if (_Bytes >= _Big_allocation_threshold) {

  000ef	81 f9 00 10 00
	00		 cmp	 ecx, 4096		; 00001000H
  000f5	72 12		 jb	 SHORT $LN58@Resize

; 205  :     const uintptr_t _Ptr_container   = _Ptr_user[-1];

  000f7	8b 50 fc	 mov	 edx, DWORD PTR [eax-4]
  000fa	83 c1 23	 add	 ecx, 35			; 00000023H

; 206  : 
; 207  :     // If the following asserts, it likely means that we are performing
; 208  :     // an aligned delete on memory coming from an unaligned allocation.
; 209  :     _STL_ASSERT(_Ptr_user[-2] == _Big_allocation_sentinel, "invalid argument");
; 210  : 
; 211  :     // Extra paranoia on aligned allocation/deallocation; ensure _Ptr_container is
; 212  :     // in range [_Min_back_shift, _Non_user_size]
; 213  : #ifdef _DEBUG
; 214  :     constexpr uintptr_t _Min_back_shift = 2 * sizeof(void*);
; 215  : #else // ^^^ defined(_DEBUG) / !defined(_DEBUG) vvv
; 216  :     constexpr uintptr_t _Min_back_shift = sizeof(void*);
; 217  : #endif // ^^^ !defined(_DEBUG) ^^^
; 218  :     const uintptr_t _Back_shift = reinterpret_cast<uintptr_t>(_Ptr) - _Ptr_container;

  000fd	2b c2		 sub	 eax, edx

; 219  :     _STL_VERIFY(_Back_shift >= _Min_back_shift && _Back_shift <= _Non_user_size, "invalid argument");

  000ff	83 c0 fc	 add	 eax, -4			; fffffffcH
  00102	83 f8 1f	 cmp	 eax, 31			; 0000001fH
  00105	77 4b		 ja	 SHORT $LN57@Resize

; 220  :     _Ptr = reinterpret_cast<void*>(_Ptr_container);

  00107	8b c2		 mov	 eax, edx
$LN58@Resize:

; 289  :         ::operator delete(_Ptr, _Bytes);

  00109	51		 push	 ecx
  0010a	50		 push	 eax
  0010b	e8 00 00 00 00	 call	 ??3@YAXPAXI@Z		; operator delete
  00110	83 c4 08	 add	 esp, 8
$LN53@Resize:
; File C:\Program Files\Microsoft Visual Studio\2022\Professional\VC\Tools\MSVC\14.44.35207\include\vector

; 2076 :         _Mylast  = _Newvec + _Newsize;

  00113	8d 04 b3	 lea	 eax, DWORD PTR [ebx+esi*4]
  00116	89 1f		 mov	 DWORD PTR [edi], ebx
  00118	89 47 04	 mov	 DWORD PTR [edi+4], eax

; 2077 :         _Myend   = _Newvec + _Newcapacity;

  0011b	8b 45 fc	 mov	 eax, DWORD PTR tv575[ebp]
  0011e	03 c3		 add	 eax, ebx
  00120	89 47 08	 mov	 DWORD PTR [edi+8], eax
  00123	5f		 pop	 edi

; 1625 :     }

  00124	5e		 pop	 esi
  00125	5b		 pop	 ebx
  00126	8b e5		 mov	 esp, ebp
  00128	5d		 pop	 ebp
  00129	c2 08 00	 ret	 8
$LN4@Resize:

; 1608 :                 _Resize_reallocate(_Newsize, _Val);
; 1609 :                 return;
; 1610 :             }
; 1611 : 
; 1612 :             _ASAN_VECTOR_EXTEND_GUARD(_Newsize);
; 1613 :             const pointer _Oldlast = _Mylast;
; 1614 :             if constexpr (is_same_v<_Ty2, _Ty>) {
; 1615 :                 _Mylast = _Uninitialized_fill_n(_Oldlast, _Newsize - _Oldsize, _Val, _Al);

  0012c	57		 push	 edi
  0012d	ff 75 0c	 push	 DWORD PTR __Val$[ebp]
  00130	2b f3		 sub	 esi, ebx
  00132	56		 push	 esi
  00133	52		 push	 edx
  00134	e8 00 00 00 00	 call	 ??$_Uninitialized_fill_n@V?$allocator@J@std@@@std@@YAPAJPAJIABJAAV?$allocator@J@0@@Z ; std::_Uninitialized_fill_n<std::allocator<long> >
  00139	83 c4 10	 add	 esp, 16			; 00000010H

; 1625 :     }

  0013c	89 47 04	 mov	 DWORD PTR [edi+4], eax
$LN3@Resize:
  0013f	5f		 pop	 edi
  00140	5e		 pop	 esi
  00141	5b		 pop	 ebx
  00142	8b e5		 mov	 esp, ebp
  00144	5d		 pop	 ebp
  00145	c2 08 00	 ret	 8
$LN97@Resize:

; 1554 :             _Xlength();

  00148	e8 00 00 00 00	 call	 ?_Xlength@?$vector@JV?$allocator@J@std@@@std@@CAXXZ ; std::vector<long,std::allocator<long> >::_Xlength
$LN98@Resize:
; File C:\Program Files\Microsoft Visual Studio\2022\Professional\VC\Tools\MSVC\14.44.35207\include\xmemory

; 118  :             _Throw_bad_array_new_length(); // multiply overflow

  0014d	e8 00 00 00 00	 call	 ?_Throw_bad_array_new_length@std@@YAXXZ ; std::_Throw_bad_array_new_length
$LN57@Resize:

; 219  :     _STL_VERIFY(_Back_shift >= _Min_back_shift && _Back_shift <= _Non_user_size, "invalid argument");

  00152	6a 00		 push	 0
  00154	6a 00		 push	 0
  00156	6a 00		 push	 0
  00158	6a 00		 push	 0
  0015a	6a 00		 push	 0
  0015c	e8 00 00 00 00	 call	 __invoke_watson
$LN93@Resize:
  00161	cc		 int	 3
??$_Resize@J@?$vector@JV?$allocator@J@std@@@std@@AAEXIABJ@Z ENDP ; std::vector<long,std::allocator<long> >::_Resize<long>
_TEXT	ENDS
; Function compile flags: /Ogtp
; File C:\IAGOS\server\v18\Source\Source\_Common\MoverParam.cpp
; File C:\IAGOS\server\v18\Source\Source\_Common\data.h
; File C:\IAGOS\server\v18\Source\Source\_Common\MoverParam.cpp
; File C:\IAGOS\server\v18\Source\Source\_Common\data.h
; File C:\IAGOS\server\v18\Source\Source\_Common\MoverParam.cpp
;	COMDAT ?__SetQuest@CMover@@AAEHPAUtagQuest@@0@Z
_TEXT	SEGMENT
_lpQuest$ = 8						; size = 4
tv669 = 8						; size = 4
tv670 = 8						; size = 4
_lpNewQuest$ = 12					; size = 4
?__SetQuest@CMover@@AAEHPAUtagQuest@@0@Z PROC		; CMover::__SetQuest, COMDAT
; _this$ = ecx

; 3657 : {

  00000	55		 push	 ebp
  00001	8b ec		 mov	 ebp, esp
  00003	53		 push	 ebx
  00004	56		 push	 esi

; 3658 : 	// Äů˝şĆ®¸¦ ąß°ß ¸řÇßŔ¸¸é »ő·Î Ăß°ˇÇŃ´Ů.
; 3659 : 	if( lpQuest == NULL )

  00005	8b 75 08	 mov	 esi, DWORD PTR _lpQuest$[ebp]
  00008	8b d1		 mov	 edx, ecx
  0000a	85 f6		 test	 esi, esi
  0000c	0f 85 9a 00 00
	00		 jne	 $LN14@SetQuest

; 3660 : 	{
; 3661 : 		if( m_nQuestSize >= MAX_QUEST )

  00012	8a 9a 96 0d 00
	00		 mov	 bl, BYTE PTR [edx+3478]
  00018	80 fb 64	 cmp	 bl, 100			; 00000064H
  0001b	72 15		 jb	 SHORT $LN16@SetQuest

; 3662 : 		{
; 3663 : 			Error("SetQuestCnt : Äů˝şĆ® ĂĘ°ú");

  0001d	68 00 00 00 00	 push	 OFFSET ??_C@_0BK@GLCNDIKD@SetQuestCnt?5?3?5?D?y?$LN?$LK?F?$KO?5?C?J?$LA?z@
  00022	e8 00 00 00 00	 call	 ?Error@@YAPBDPBDZZ	; Error
  00027	83 c4 04	 add	 esp, 4
$LN21@SetQuest:

; 3736 : }

  0002a	5e		 pop	 esi
  0002b	33 c0		 xor	 eax, eax
  0002d	5b		 pop	 ebx
  0002e	5d		 pop	 ebp
  0002f	c2 08 00	 ret	 8
$LN16@SetQuest:

; 3664 : 			return FALSE;
; 3665 : 		}
; 3666 : #ifdef __CLIENT
; 3667 : 		PlayMusic( BGM_EV_START );
; 3668 : #endif
; 3669 : 		if( m_nCompleteQuestSize < MAX_COMPLETE_QUEST ) 

  00032	0f b6 82 9c 0d
	00 00		 movzx	 eax, BYTE PTR [edx+3484]
  00039	3d f4 01 00 00	 cmp	 eax, 500		; 000001f4H
  0003e	73 ea		 jae	 SHORT $LN21@SetQuest

; 3670 : 			lpQuest = &m_aQuest[ m_nQuestSize++ ];

  00040	0f b6 c3	 movzx	 eax, bl
  00043	fe c3		 inc	 bl
  00045	88 9a 96 0d 00
	00		 mov	 BYTE PTR [edx+3478], bl

; 3671 : 		else
; 3672 : 			return FALSE;
; 3673 : 
; 3674 : 		QuestProp* pQuestProp = prj.m_aPropQuest.GetAt( lpNewQuest->m_wId );

  0004b	8b 5d 0c	 mov	 ebx, DWORD PTR _lpNewQuest$[ebp]
  0004e	8d 0c 40	 lea	 ecx, DWORD PTR [eax+eax*2]
  00051	8b 82 98 0d 00
	00		 mov	 eax, DWORD PTR [edx+3480]
  00057	8d 34 88	 lea	 esi, DWORD PTR [eax+ecx*4]
  0005a	0f b7 4b 04	 movzx	 ecx, WORD PTR [ebx+4]
; File C:\IAGOS\server\v18\Source\Source\_Common\data.h

; 270  : 	if( dwIndex >= (DWORD)m_nMaxIndex )

  0005e	3b 0d f4 02 00
	00		 cmp	 ecx, DWORD PTR ?prj@@3VCProject@@A+756
  00064	73 1a		 jae	 SHORT $LN19@SetQuest

; 271  : 		return NULL;
; 272  : 	return (T*) m_apOffset[ dwIndex ];

  00066	a1 e4 02 00 00	 mov	 eax, DWORD PTR ?prj@@3VCProject@@A+740
  0006b	8b 04 88	 mov	 eax, DWORD PTR [eax+ecx*4]
; File C:\IAGOS\server\v18\Source\Source\_Common\MoverParam.cpp

; 3675 : 		if( pQuestProp && pQuestProp->m_nEndCondLimitTime  )

  0006e	85 c0		 test	 eax, eax
  00070	74 0e		 je	 SHORT $LN19@SetQuest
  00072	8b 80 14 01 00
	00		 mov	 eax, DWORD PTR [eax+276]
  00078	85 c0		 test	 eax, eax
  0007a	74 04		 je	 SHORT $LN19@SetQuest

; 3676 : 			lpNewQuest->m_wTime = pQuestProp->m_nEndCondLimitTime;

  0007c	66 89 43 02	 mov	 WORD PTR [ebx+2], ax
$LN19@SetQuest:

; 3677 : #ifdef __WORLDSERVER
; 3678 : 		// Ĺ¸ŔĚ¸Ó ĂĘ±âČ­ 
; 3679 : 		m_timerQuestLimitTime.Reset();

  00080	8b 82 c8 0d 00
	00		 mov	 eax, DWORD PTR [edx+3528]
  00086	8d 8a c8 0d 00
	00		 lea	 ecx, DWORD PTR [edx+3528]
  0008c	ff 50 04	 call	 DWORD PTR [eax+4]

; 3718 : 			lpQuest = NULL;
; 3719 : #if __VER >= 15 /* __IMPROVE_QUEST_INTERFACE */  && defined( __CLIENT )
; 3720 : 			g_QuestTreeInfoManager.DeleteTreeInformation( lpNewQuest->m_wId );
; 3721 : 			D3DXVECTOR3& rDestinationArrow = g_WndMng.m_pWndWorld->m_vDestinationArrow;
; 3722 : 			rDestinationArrow = D3DXVECTOR3( -1.0F, 0.0F, -1.0F );
; 3723 : #endif // defined( __IMPROVE_QUEST_INTERFACE ) && defined( __CLIENT )
; 3724 : 		}
; 3725 : 		else
; 3726 : 			return FALSE;
; 3727 : 	}
; 3728 : 	if( lpQuest )

  0008f	85 f6		 test	 esi, esi
  00091	74 0e		 je	 SHORT $LN26@SetQuest
$LN52@SetQuest:

; 3729 : 		memcpy( lpQuest, lpNewQuest, sizeof( QUEST ) );

  00093	f3 0f 7e 03	 movq	 xmm0, QWORD PTR [ebx]
  00097	66 0f d6 06	 movq	 QWORD PTR [esi], xmm0
  0009b	8b 43 08	 mov	 eax, DWORD PTR [ebx+8]
  0009e	89 46 08	 mov	 DWORD PTR [esi+8], eax
$LN26@SetQuest:

; 3730 : 
; 3731 : #ifdef __CLIENT
; 3732 : 	if( lpNewQuest->m_nState == QS_END )
; 3733 : 		PlayMusic( BGM_EV_END );
; 3734 : #endif
; 3735 : 	return TRUE;

  000a1	5e		 pop	 esi
  000a2	b8 01 00 00 00	 mov	 eax, 1

; 3736 : }

  000a7	5b		 pop	 ebx
  000a8	5d		 pop	 ebp
  000a9	c2 08 00	 ret	 8
$LN14@SetQuest:

; 3680 : #endif
; 3681 : 	}
; 3682 : 	else
; 3683 : 	// Äů˝şĆ® żĎ·á´Ů. ±×·¸´Ů¸é Äł˝¬żˇĽ­ µÚÁ®Ľ­ Á¦°ĹÇĎŔÚ 
; 3684 : 	if( lpNewQuest->m_nState == QS_END )

  000ac	8b 5d 0c	 mov	 ebx, DWORD PTR _lpNewQuest$[ebp]
  000af	80 3b 0e	 cmp	 BYTE PTR [ebx], 14	; 0000000eH
  000b2	75 df		 jne	 SHORT $LN52@SetQuest

; 3685 : 	{
; 3686 : 		// ´ë˝Ĺ, żĎ·á ±Ë˝şĆ® ąčż­żˇ łÖľî ş¸°üÇŃ´Ů.
; 3687 : 		if( m_nCompleteQuestSize < MAX_COMPLETE_QUEST ) 

  000b4	0f b6 82 9c 0d
	00 00		 movzx	 eax, BYTE PTR [edx+3484]
  000bb	3d f4 01 00 00	 cmp	 eax, 500		; 000001f4H
  000c0	0f 83 64 ff ff
	ff		 jae	 $LN21@SetQuest

; 3688 : 		{
; 3689 : 			for( int i = 0; i < m_nQuestSize; i++ )

  000c6	8a 8a 96 0d 00
	00		 mov	 cl, BYTE PTR [edx+3478]
  000cc	33 f6		 xor	 esi, esi
  000ce	57		 push	 edi
  000cf	84 c9		 test	 cl, cl
  000d1	74 6e		 je	 SHORT $LN3@SetQuest

; 3690 : 			{
; 3691 : 				if( m_aQuest[ i ].m_wId == lpNewQuest->m_wId )

  000d3	0f b7 43 04	 movzx	 eax, WORD PTR [ebx+4]
  000d7	89 45 08	 mov	 DWORD PTR tv670[ebp], eax
  000da	8b 82 98 0d 00
	00		 mov	 eax, DWORD PTR [edx+3480]
  000e0	83 c0 04	 add	 eax, 4
$LL4@SetQuest:
  000e3	8b 5d 08	 mov	 ebx, DWORD PTR tv670[ebp]
  000e6	66 39 18	 cmp	 WORD PTR [eax], bx
  000e9	8b 5d 0c	 mov	 ebx, DWORD PTR _lpNewQuest$[ebp]
  000ec	0f b6 f9	 movzx	 edi, cl
  000ef	74 0a		 je	 SHORT $LN38@SetQuest

; 3688 : 		{
; 3689 : 			for( int i = 0; i < m_nQuestSize; i++ )

  000f1	46		 inc	 esi
  000f2	83 c0 0c	 add	 eax, 12			; 0000000cH
  000f5	3b f7		 cmp	 esi, edi
  000f7	7c ea		 jl	 SHORT $LL4@SetQuest

; 3703 : 			{
; 3704 : 				if( m_aCheckedQuest[ i ] == lpNewQuest->m_wId )

  000f9	eb 46		 jmp	 SHORT $LN3@SetQuest
$LN38@SetQuest:

; 3692 : 				{
; 3693 : 					for( ; i < m_nQuestSize - 1; i++ )

  000fb	8d 47 ff	 lea	 eax, DWORD PTR [edi-1]
  000fe	3b f0		 cmp	 esi, eax
  00100	7d 37		 jge	 SHORT $LN6@SetQuest
  00102	8d 3c 76	 lea	 edi, DWORD PTR [esi+esi*2]
  00105	c1 e7 02	 shl	 edi, 2
  00108	0f 1f 84 00 00
	00 00 00	 npad	 8
$LL7@SetQuest:

; 3694 : 					{
; 3695 : 						m_aQuest[ i ] = m_aQuest[ i + 1 ];

  00110	8b 8a 98 0d 00
	00		 mov	 ecx, DWORD PTR [edx+3480]
  00116	46		 inc	 esi
  00117	03 cf		 add	 ecx, edi
  00119	83 c7 0c	 add	 edi, 12			; 0000000cH
  0011c	f3 0f 7e 41 0c	 movq	 xmm0, QWORD PTR [ecx+12]
  00121	66 0f d6 01	 movq	 QWORD PTR [ecx], xmm0
  00125	8b 41 14	 mov	 eax, DWORD PTR [ecx+20]
  00128	89 41 08	 mov	 DWORD PTR [ecx+8], eax
  0012b	8a 8a 96 0d 00
	00		 mov	 cl, BYTE PTR [edx+3478]
  00131	0f b6 c1	 movzx	 eax, cl
  00134	48		 dec	 eax
  00135	3b f0		 cmp	 esi, eax
  00137	7c d7		 jl	 SHORT $LL7@SetQuest
$LN6@SetQuest:

; 3696 : 					}
; 3697 : 					m_nQuestSize--;

  00139	fe c9		 dec	 cl
  0013b	88 8a 96 0d 00
	00		 mov	 BYTE PTR [edx+3478], cl
$LN3@SetQuest:

; 3698 : 					break;
; 3699 : 				}
; 3700 : 			}
; 3701 : #if __VER >= 15 // __IMPROVE_QUEST_INTERFACE
; 3702 : 			for( int i = 0; i < m_nCheckedQuestSize; ++i )

  00141	8a 8a a4 0d 00
	00		 mov	 cl, BYTE PTR [edx+3492]
  00147	33 f6		 xor	 esi, esi
  00149	84 c9		 test	 cl, cl
  0014b	74 69		 je	 SHORT $LN9@SetQuest

; 3703 : 			{
; 3704 : 				if( m_aCheckedQuest[ i ] == lpNewQuest->m_wId )

  0014d	0f b7 43 04	 movzx	 eax, WORD PTR [ebx+4]
  00151	89 45 08	 mov	 DWORD PTR tv669[ebp], eax
  00154	8b 82 a8 0d 00
	00		 mov	 eax, DWORD PTR [edx+3496]
  0015a	66 0f 1f 44 00
	00		 npad	 6
$LL10@SetQuest:
  00160	8b 5d 08	 mov	 ebx, DWORD PTR tv669[ebp]
  00163	66 39 18	 cmp	 WORD PTR [eax], bx
  00166	8b 5d 0c	 mov	 ebx, DWORD PTR _lpNewQuest$[ebp]
  00169	0f b6 f9	 movzx	 edi, cl
  0016c	74 0a		 je	 SHORT $LN39@SetQuest

; 3698 : 					break;
; 3699 : 				}
; 3700 : 			}
; 3701 : #if __VER >= 15 // __IMPROVE_QUEST_INTERFACE
; 3702 : 			for( int i = 0; i < m_nCheckedQuestSize; ++i )

  0016e	46		 inc	 esi
  0016f	83 c0 02	 add	 eax, 2
  00172	3b f7		 cmp	 esi, edi
  00174	7c ea		 jl	 SHORT $LL10@SetQuest

; 3703 : 			{
; 3704 : 				if( m_aCheckedQuest[ i ] == lpNewQuest->m_wId )

  00176	eb 3e		 jmp	 SHORT $LN9@SetQuest
$LN39@SetQuest:

; 3705 : 				{
; 3706 : 					for( ; i < m_nCheckedQuestSize - 1; ++i )

  00178	8d 47 ff	 lea	 eax, DWORD PTR [edi-1]
  0017b	3b f0		 cmp	 esi, eax
  0017d	7d 20		 jge	 SHORT $LN12@SetQuest
  0017f	90		 npad	 1
$LL13@SetQuest:

; 3707 : 						m_aCheckedQuest[ i ] = m_aCheckedQuest[ i + 1 ];

  00180	8b 82 a8 0d 00
	00		 mov	 eax, DWORD PTR [edx+3496]
  00186	8d 0c 70	 lea	 ecx, DWORD PTR [eax+esi*2]
  00189	46		 inc	 esi
  0018a	66 8b 41 02	 mov	 ax, WORD PTR [ecx+2]
  0018e	66 89 01	 mov	 WORD PTR [ecx], ax
  00191	8a 8a a4 0d 00
	00		 mov	 cl, BYTE PTR [edx+3492]
  00197	0f b6 c1	 movzx	 eax, cl
  0019a	48		 dec	 eax
  0019b	3b f0		 cmp	 esi, eax
  0019d	7c e1		 jl	 SHORT $LL13@SetQuest
$LN12@SetQuest:

; 3708 : 					m_aCheckedQuest[--m_nCheckedQuestSize] = 0;

  0019f	8b 82 a8 0d 00
	00		 mov	 eax, DWORD PTR [edx+3496]
  001a5	fe c9		 dec	 cl
  001a7	88 8a a4 0d 00
	00		 mov	 BYTE PTR [edx+3492], cl
  001ad	33 f6		 xor	 esi, esi
  001af	0f b6 c9	 movzx	 ecx, cl
  001b2	66 89 34 48	 mov	 WORD PTR [eax+ecx*2], si
$LN9@SetQuest:

; 3709 : 					break;
; 3710 : 				}
; 3711 : 			}
; 3712 : #endif // __IMPROVE_QUEST_INTERFACE
; 3713 : 			QuestProp* pProp = prj.m_aPropQuest.GetAt( lpNewQuest->m_wId );

  001b6	0f b7 73 04	 movzx	 esi, WORD PTR [ebx+4]
  001ba	8b ce		 mov	 ecx, esi
  001bc	5f		 pop	 edi
; File C:\IAGOS\server\v18\Source\Source\_Common\data.h

; 270  : 	if( dwIndex >= (DWORD)m_nMaxIndex )

  001bd	3b 0d f4 02 00
	00		 cmp	 ecx, DWORD PTR ?prj@@3VCProject@@A+756
  001c3	0f 83 d8 fe ff
	ff		 jae	 $LN26@SetQuest

; 271  : 		return NULL;
; 272  : 	return (T*) m_apOffset[ dwIndex ];

  001c9	a1 e4 02 00 00	 mov	 eax, DWORD PTR ?prj@@3VCProject@@A+740
  001ce	8b 04 88	 mov	 eax, DWORD PTR [eax+ecx*4]
; File C:\IAGOS\server\v18\Source\Source\_Common\MoverParam.cpp

; 3716 : 			if( pProp && pProp->m_bRepeat == FALSE )

  001d1	85 c0		 test	 eax, eax
  001d3	0f 84 c8 fe ff
	ff		 je	 $LN26@SetQuest
  001d9	80 b8 b9 03 00
	00 00		 cmp	 BYTE PTR [eax+953], 0
  001e0	0f 85 bb fe ff
	ff		 jne	 $LN26@SetQuest

; 3717 : 				m_aCompleteQuest[ m_nCompleteQuestSize++ ] = lpNewQuest->m_wId; 

  001e6	0f b6 8a 9c 0d
	00 00		 movzx	 ecx, BYTE PTR [edx+3484]
  001ed	8b 82 a0 0d 00
	00		 mov	 eax, DWORD PTR [edx+3488]
  001f3	66 89 34 48	 mov	 WORD PTR [eax+ecx*2], si

; 3730 : 
; 3731 : #ifdef __CLIENT
; 3732 : 	if( lpNewQuest->m_nState == QS_END )
; 3733 : 		PlayMusic( BGM_EV_END );
; 3734 : #endif
; 3735 : 	return TRUE;

  001f7	b8 01 00 00 00	 mov	 eax, 1
  001fc	fe 82 9c 0d 00
	00		 inc	 BYTE PTR [edx+3484]
  00202	5e		 pop	 esi

; 3736 : }

  00203	5b		 pop	 ebx
  00204	5d		 pop	 ebp
  00205	c2 08 00	 ret	 8
?__SetQuest@CMover@@AAEHPAUtagQuest@@0@Z ENDP		; CMover::__SetQuest
_TEXT	ENDS
; Function compile flags: /Ogtp
; File C:\IAGOS\server\v18\Source\Source\_Common\MoverParam.cpp
; File C:\IAGOS\server\v18\Source\Source\_Common\Obj.h
; File C:\IAGOS\server\v18\Source\Source\_Common\MoverParam.cpp
; File C:\IAGOS\server\v18\Source\Source\_Common\Obj.h
; File C:\IAGOS\server\v18\Source\Source\_Common\MoverParam.cpp
;	COMDAT ?SetExperience@CMover@@QAEH_JH@Z
_TEXT	SEGMENT
_nExp1$ = 8						; size = 8
_nLevel$ = 16						; size = 4
?SetExperience@CMover@@QAEH_JH@Z PROC			; CMover::SetExperience, COMDAT
; _this$ = ecx

; 1842 : {

  00000	55		 push	 ebp
  00001	8b ec		 mov	 ebp, esp

; 1843 : 	m_nExp1		= nExp1;

  00003	8b 45 08	 mov	 eax, DWORD PTR _nExp1$[ebp]
  00006	8b 55 0c	 mov	 edx, DWORD PTR _nExp1$[ebp+4]
  00009	56		 push	 esi
  0000a	8b f1		 mov	 esi, ecx
; File C:\IAGOS\server\v18\Source\Source\_Common\Obj.h

; 180  : 	BOOL			IsDelete()	{ return (m_dwFlags & OBJ_FLAG_DELETE);  }

  0000c	f6 46 04 01	 test	 BYTE PTR [esi+4], 1
; File C:\IAGOS\server\v18\Source\Source\_Common\MoverParam.cpp

; 1843 : 	m_nExp1		= nExp1;

  00010	89 86 e0 05 00
	00		 mov	 DWORD PTR [esi+1504], eax
  00016	89 96 e4 05 00
	00		 mov	 DWORD PTR [esi+1508], edx
; File C:\IAGOS\server\v18\Source\Source\_Common\Obj.h

; 327  : 	return pObj && ( pObj->IsDelete() == FALSE ); 

  0001c	75 56		 jne	 SHORT $LN6@SetExperie
; File C:\IAGOS\server\v18\Source\Source\_Common\MoverParam.cpp

; 1848 : 	if( nLevel > m_nLevel )

  0001e	8b 45 10	 mov	 eax, DWORD PTR _nLevel$[ebp]
  00021	3b 86 d8 05 00
	00		 cmp	 eax, DWORD PTR [esi+1496]
  00027	7e 43		 jle	 SHORT $LN3@SetExperie

; 1849 : 	{
; 1850 : #ifdef __CLIENT
; 1851 :  		// 15·ľ µÇ¸é ´őŔĚ»ó ĂĘş¸ŔÚ°ˇ ľĆ´ĎąÇ·Î ŔÚµżŔ¸·Î ĂĘş¸ŔÚµµżň¸» ˛ôŔÚ.
; 1852 : 		if( nLevel == 15 )		// 1Â÷ŔüÁ÷·ąş§ 15żˇ ´ëÇŃ define ŔÖŔ¸¸é ±×°É·Î ąŮ˛ăÁÖ. -xuzhu-
; 1853 : 			g_Option.m_nInstantHelp = 0;
; 1854 :  		
; 1855 : 		PutLvUpSkillName_1(nLevel);
; 1856 : 
; 1857 : 		if( m_pActMover && ( m_pActMover->IsState( OBJSTA_STAND ) || m_pActMover->IsState( OBJSTA_STAND2 ) ) )
; 1858 : 			SetMotion( MTI_LEVELUP, ANILOOP_1PLAY, MOP_FIXED );
; 1859 : 		CreateSfx(g_Neuz.m_pd3dDevice,XI_GEN_LEVEL_UP01,GetPos(),GetId());
; 1860 : 		PlayMusic( BGM_IN_LEVELUP );
; 1861 : 		if( m_nDeathLevel < nLevel )
; 1862 : 			g_WndMng.PutString( prj.GetText( TID_GAME_LEVELUP ), NULL, prj.GetTextColor( TID_GAME_LEVELUP ) );
; 1863 : 		
; 1864 : 		if( g_WndMng.m_pWndWorld )
; 1865 : 		{
; 1866 : 			if( ::GetLanguage() != LANG_JAP )
; 1867 : 				g_Caption1.AddCaption(  prj.GetText( TID_GAME_LEVELUP_CAPTION ), g_WndMng.m_pWndWorld->m_pFontAPICaption );// CWndBase::m_Theme.m_pFontCaption );
; 1868 : 			else
; 1869 : 				g_Caption1.AddCaption(  prj.GetText( TID_GAME_LEVELUP_CAPTION ), NULL );// CWndBase::m_Theme.m_pFontCaption );
; 1870 : 		}
; 1871 : 		
; 1872 : 		// 2, 8, 12
; 1873 : 		static	int nPatLv[4]	= { 2, 8, 12, 0	};
; 1874 : 		for( int i = 0; i < 3; i++ ) {
; 1875 : 			if( m_nLevel < nPatLv[i] && nLevel >= nPatLv[i] ) {
; 1876 : 				g_WndMng.PutString( prj.GetText( TID_GAME_PATTERNUP ), NULL, prj.GetTextColor( TID_GAME_PATTERNUP ) );
; 1877 : 				break;
; 1878 : 			}
; 1879 : 			else if( m_nLevel >= nPatLv[2] )
; 1880 : 				break;
; 1881 : 		}
; 1882 : 
; 1883 : 		if( TRUE == IsJobType( JTYPE_BASE ) )
; 1884 : 		{
; 1885 : 			if( nLevel == 15 )
; 1886 : 				g_WndMng.PutString( prj.GetText( TID_EVE_LEVEL15 ), NULL, prj.GetTextColor( TID_EVE_LEVEL15 ) );
; 1887 : 
; 1888 : 			static	int nNum	= prj.m_aJobSkillNum[JOB_VAGRANT];
; 1889 : 		}
; 1890 : 		if( m_nLevel < 20 && nLevel >= 20 )
; 1891 : 		{
; 1892 : 			g_WndMng.PutString( prj.GetText( TID_GAME_FLYLVLUP ), NULL, prj.GetTextColor( TID_GAME_FLYLVLUP ) );
; 1893 : 			SetFlightLv( 1 );
; 1894 : 		}
; 1895 : 		else if( nLevel < 20 )
; 1896 : 			SetFlightLv( 0 );
; 1897 : #endif	// __CLIENT
; 1898 : 		m_nLevel	= nLevel;
; 1899 : 
; 1900 : 		SetJobLevel( m_nLevel, m_nJob );

  00029	ff b6 3c 06 00
	00		 push	 DWORD PTR [esi+1596]
  0002f	89 86 d8 05 00
	00		 mov	 DWORD PTR [esi+1496], eax
  00035	50		 push	 eax
  00036	e8 00 00 00 00	 call	 ?SetJobLevel@CMover@@QAEXHH@Z ; CMover::SetJobLevel

; 1901 : 
; 1902 : 		m_nHitPoint = GetMaxHitPoint();

  0003b	8b ce		 mov	 ecx, esi
  0003d	e8 00 00 00 00	 call	 ?GetMaxHitPoint@CMover@@QAEHXZ ; CMover::GetMaxHitPoint

; 1903 : 		m_nManaPoint = GetMaxManaPoint();

  00042	8b ce		 mov	 ecx, esi
  00044	89 86 f8 05 00
	00		 mov	 DWORD PTR [esi+1528], eax
  0004a	e8 00 00 00 00	 call	 ?GetMaxManaPoint@CMover@@QAEHXZ ; CMover::GetMaxManaPoint

; 1904 : 		m_nFatiguePoint = GetMaxFatiguePoint();

  0004f	8b ce		 mov	 ecx, esi
  00051	89 86 fc 05 00
	00		 mov	 DWORD PTR [esi+1532], eax
  00057	e8 00 00 00 00	 call	 ?GetMaxFatiguePoint@CMover@@QAEHXZ ; CMover::GetMaxFatiguePoint
  0005c	89 86 00 06 00
	00		 mov	 DWORD PTR [esi+1536], eax

; 1905 : 
; 1906 : #ifdef __CLIENT
; 1907 : 		if( IsPlayer() )
; 1908 : 		{
; 1909 : 			CWndWorld* pWndWorld = (CWndWorld*)g_WndMng.GetWndBase( APP_WORLD );
; 1910 : 			
; 1911 : 			if( pWndWorld ) 
; 1912 : 			{
; 1913 : #if __VER >= 13 // __RENEW_CHARINFO
; 1914 : 				pWndWorld->GetAdvMgr()->AddAdvButton(APP_CHARACTER3);
; 1915 : #elif __VER >= 9 // __CSC_VER9_2
; 1916 : 				pWndWorld->GetAdvMgr()->AddAdvButton(APP_CHARACTER2);
; 1917 : #else //__CSC_VER9_2
; 1918 : 				pWndWorld->GetAdvMgr()->AddAdvButton(APP_CHARACTER);
; 1919 : #endif //__CSC_VER9_2
; 1920 : 			#if __VER < 12 // __MOD_TUTORIAL				
; 1921 : 				if( GetLevel() != 1 )
; 1922 : 					pWndWorld->m_pWndGuideSystem->GuideStart(FALSE);
; 1923 : 			#endif
; 1924 : 				switch(GetLevel())
; 1925 : 				{
; 1926 : 			#if __VER >= 12 // __MOD_TUTORIAL
; 1927 : 				case 15:
; 1928 : 					pWndWorld->m_pWndGuideSystem->GuideStart(GUIDE_CHANGEJOB);
; 1929 : 					break;						
; 1930 : 				case 20:
; 1931 : 					pWndWorld->m_pWndGuideSystem->GuideStart(GUIDE_FLIGHT_METHOD);
; 1932 : 					break;
; 1933 : 				case 40:
; 1934 : 					pWndWorld->m_pWndGuideSystem->GuideStart(GUIDE_APP_GUILD);
; 1935 : 					break;
; 1936 : 			#else
; 1937 : 				case 2:
; 1938 : #if __VER >= 13 // __RENEW_CHARINFO
; 1939 : 					pWndWorld->m_pWndGuideSystem->SendGuideMessage(APP_CHARACTER3);
; 1940 : #else if __VER >= 9 // __CSC_VER9_2
; 1941 : 					pWndWorld->m_pWndGuideSystem->SendGuideMessage(APP_CHARACTER2);
; 1942 : #else //__CSC_VER9_2
; 1943 : 					pWndWorld->m_pWndGuideSystem->SendGuideMessage(APP_CHARACTER);
; 1944 : #endif //__CSC_VER9_2
; 1945 : 					break;
; 1946 : 				case 3:
; 1947 : 					pWndWorld->m_pWndGuideSystem->SendGuideMessage(GUIDE_EVENT_BERSERKERMODE);
; 1948 : 					break;
; 1949 : 				case 4:
; 1950 : 					pWndWorld->m_pWndGuideSystem->SendGuideMessage(APP_SKILL_BEFOREJOB);
; 1951 : 					break;
; 1952 : 				case 8:
; 1953 : 					pWndWorld->m_pWndGuideSystem->SendGuideMessage(GUIDE_ESSENSE);
; 1954 : 					break;
; 1955 : 				case 16:
; 1956 : 					pWndWorld->m_pWndGuideSystem->SendGuideMessage(GUIDE_FLIGHT);
; 1957 : 					break;
; 1958 : 				case 15:
; 1959 : 					pWndWorld->m_pWndGuideSystem->SendGuideMessage(GUIDE_CHANGEJOB);
; 1960 : 					break;						
; 1961 : 				case 20:
; 1962 : 					pWndWorld->m_pWndGuideSystem->SendGuideMessage(GUIDE_FLIGHT_METHOD);
; 1963 : 					break;
; 1964 : 				case 49:
; 1965 : 					pWndWorld->m_pWndGuideSystem->SendGuideMessage(GUIDE_APP_GUILD);
; 1966 : 					break;
; 1967 : 			#endif
; 1968 : 				}
; 1969 : 			}
; 1970 : 		}
; 1971 : #endif //__CLIENT		
; 1972 : 
; 1973 : 		return TRUE;

  00062	b8 01 00 00 00	 mov	 eax, 1
  00067	5e		 pop	 esi

; 2032 : }

  00068	5d		 pop	 ebp
  00069	c2 0c 00	 ret	 12			; 0000000cH
$LN3@SetExperie:

; 1974 : 	}
; 1975 : 	else if( nLevel < m_nLevel )	// ·ąş§ ´ŮżîŔĚ µÇľúŔ»¶§.

  0006c	7d 06		 jge	 SHORT $LN6@SetExperie

; 1976 : 	{
; 1977 : 		m_nLevel	= nLevel;

  0006e	89 86 d8 05 00
	00		 mov	 DWORD PTR [esi+1496], eax
$LN6@SetExperie:

; 1978 : 		if( nLevel < 20 )
; 1979 : 			SetFlightLv( 0 );
; 1980 : 
; 1981 : #ifdef __CLIENT
; 1982 : 		if( IsPlayer() )
; 1983 : 		{
; 1984 : 			CWndWorld* pWndWorld = (CWndWorld*)g_WndMng.GetWndBase( APP_WORLD );
; 1985 : 			
; 1986 : 			if( pWndWorld ) 
; 1987 : 			{
; 1988 : 			#if __VER < 12 // __MOD_TUTORIAL
; 1989 : 				if( GetLevel() != 1 )
; 1990 : 					pWndWorld->m_pWndGuideSystem->GuideStart(FALSE);
; 1991 : 			#endif
; 1992 : 				switch(GetLevel())
; 1993 : 				{
; 1994 : 				case 2:
; 1995 : #if __VER >= 13 // __RENEW_CHARINFO
; 1996 : 					pWndWorld->m_pWndGuideSystem->SendGuideMessage(APP_CHARACTER3);
; 1997 : #elif __VER >= 9 // __CSC_VER9_2
; 1998 : 					pWndWorld->m_pWndGuideSystem->SendGuideMessage(APP_CHARACTER2);
; 1999 : #else //__CSC_VER9_2
; 2000 : 					pWndWorld->m_pWndGuideSystem->SendGuideMessage(APP_CHARACTER);
; 2001 : #endif //__CSC_VER9_2
; 2002 : 					break;
; 2003 : 				case 3:
; 2004 : 					pWndWorld->m_pWndGuideSystem->SendGuideMessage(GUIDE_EVENT_BERSERKERMODE);
; 2005 : 					break;
; 2006 : 				case 4:
; 2007 : 					pWndWorld->m_pWndGuideSystem->SendGuideMessage(APP_SKILL_BEFOREJOB);
; 2008 : 					break;
; 2009 : 				case 8:
; 2010 : 					pWndWorld->m_pWndGuideSystem->SendGuideMessage(GUIDE_ESSENSE);
; 2011 : 					break;
; 2012 : 				case 15:
; 2013 : 					pWndWorld->m_pWndGuideSystem->SendGuideMessage(GUIDE_CHANGEJOB);
; 2014 : 					break;					
; 2015 : 				case 16:
; 2016 : 					pWndWorld->m_pWndGuideSystem->SendGuideMessage(GUIDE_FLIGHT);
; 2017 : 					break;
; 2018 : 				case 20:
; 2019 : 					pWndWorld->m_pWndGuideSystem->SendGuideMessage(GUIDE_FLIGHT_METHOD);
; 2020 : 					break;
; 2021 : 				case 40:
; 2022 : 					pWndWorld->m_pWndGuideSystem->SendGuideMessage(GUIDE_APP_GUILD);
; 2023 : 					break;
; 2024 : 				}
; 2025 : 			}
; 2026 : 		}
; 2027 : #endif	// __CLIENT
; 2028 : 	}
; 2029 : 
; 2030 : 
; 2031 : 	return FALSE;

  00074	33 c0		 xor	 eax, eax
  00076	5e		 pop	 esi

; 2032 : }

  00077	5d		 pop	 ebp
  00078	c2 0c 00	 ret	 12			; 0000000cH
?SetExperience@CMover@@QAEH_JH@Z ENDP			; CMover::SetExperience
_TEXT	ENDS
; Function compile flags: /Ogtp
; File C:\IAGOS\server\v18\Source\Source\_Common\MoverParam.cpp
; File C:\IAGOS\server\v18\Source\Source\_Common\Mover.h
; File C:\IAGOS\server\v18\Source\Source\_Common\MoverParam.cpp
;	COMDAT ?GetSummonState@CMover@@QAEHXZ
_TEXT	SEGMENT
?GetSummonState@CMover@@QAEHXZ PROC			; CMover::GetSummonState, COMDAT
; _this$ = ecx

; 330  : {

  00000	56		 push	 esi
  00001	8b f1		 mov	 esi, ecx
  00003	57		 push	 edi

; 331  : 	// °Ĺ·ˇ
; 332  : 	if( m_vtInfo.GetOther() != NULL )

  00004	8d 8e 98 0c 00
	00		 lea	 ecx, DWORD PTR [esi+3224]
  0000a	e8 00 00 00 00	 call	 ?GetOther@CVTInfo@@QAEPAVCMover@@XZ ; CVTInfo::GetOther
  0000f	85 c0		 test	 eax, eax
  00011	0f 85 91 00 00
	00		 jne	 $LN23@GetSummonS

; 333  : 		return 1;
; 334  : 	  // Ă˘°í
; 335  : 	if( m_bBank )

  00017	39 86 3c 0d 00
	00		 cmp	 DWORD PTR [esi+3388], eax
  0001d	0f 85 85 00 00
	00		 jne	 $LN23@GetSummonS

; 336  : 		return 1;
; 337  : 	  // ±ćµĺĂ˘°í
; 338  : 	if( m_bGuildBank )

  00023	39 86 18 07 00
	00		 cmp	 DWORD PTR [esi+1816], eax
  00029	75 7d		 jne	 SHORT $LN23@GetSummonS
; File C:\IAGOS\server\v18\Source\Source\_Common\Mover.h

; 1250 : 	BOOL			IsDie() { return m_pActMover->IsDie() || m_nHitPoint == 0; }

  0002b	8b 86 38 02 00
	00		 mov	 eax, DWORD PTR [esi+568]
  00031	f7 40 04 00 00
	00 08		 test	 DWORD PTR [eax+4], 134217728 ; 08000000H
  00038	75 66		 jne	 SHORT $LN22@GetSummonS
  0003a	83 be f8 05 00
	00 00		 cmp	 DWORD PTR [esi+1528], 0
  00041	74 5d		 je	 SHORT $LN22@GetSummonS
; File C:\IAGOS\server\v18\Source\Source\_Common\MoverParam.cpp

; 346  : 	if( m_vtInfo.VendorIsVendor() || m_vtInfo.IsVendorOpen() )

  00043	8d 8e 98 0c 00
	00		 lea	 ecx, DWORD PTR [esi+3224]
  00049	e8 00 00 00 00	 call	 ?VendorIsVendor@CVTInfo@@QAEHXZ ; CVTInfo::VendorIsVendor
  0004e	85 c0		 test	 eax, eax
  00050	75 46		 jne	 SHORT $LN7@GetSummonS
  00052	8d 8e 98 0c 00
	00		 lea	 ecx, DWORD PTR [esi+3224]
  00058	e8 00 00 00 00	 call	 ?IsVendorOpen@CVTInfo@@QAEHXZ ; CVTInfo::IsVendorOpen
  0005d	85 c0		 test	 eax, eax
  0005f	75 37		 jne	 SHORT $LN7@GetSummonS

; 348  : 
; 349  : 	// ŔüĹőÁß
; 350  : 	if( IsAttackMode() )

  00061	8b ce		 mov	 ecx, esi
  00063	e8 00 00 00 00	 call	 ?IsAttackMode@CMover@@QAEHXZ ; CMover::IsAttackMode
  00068	85 c0		 test	 eax, eax
  0006a	74 08		 je	 SHORT $LN8@GetSummonS

; 351  : 		return 4;

  0006c	5f		 pop	 edi
  0006d	b8 04 00 00 00	 mov	 eax, 4

; 360  : 		return 6;
; 361  : #endif // __VER >= 8 // 8Â÷ µŕľó 061226 ma
; 362  : 
; 363  : 
; 364  : 	return 0;
; 365  : }

  00072	5e		 pop	 esi
  00073	c3		 ret	 0
$LN8@GetSummonS:

; 352  : 	
; 353  : 	// şńÇŕÁß
; 354  : 	if( ( IsFly() ) )

  00074	8b 86 38 02 00
	00		 mov	 eax, DWORD PTR [esi+568]
  0007a	f6 40 08 08	 test	 BYTE PTR [eax+8], 8
  0007e	74 08		 je	 SHORT $LN9@GetSummonS

; 355  : 		return 5;

  00080	5f		 pop	 edi
  00081	b8 05 00 00 00	 mov	 eax, 5

; 360  : 		return 6;
; 361  : #endif // __VER >= 8 // 8Â÷ µŕľó 061226 ma
; 362  : 
; 363  : 
; 364  : 	return 0;
; 365  : }

  00086	5e		 pop	 esi
  00087	c3		 ret	 0
$LN9@GetSummonS:

; 356  : 
; 357  : 
; 358  : #if __VER >= 8 // 8Â÷ µŕľó 061226 ma
; 359  : 	if( m_nDuel )

  00088	8b 86 3c 07 00
	00		 mov	 eax, DWORD PTR [esi+1852]
  0008e	f7 d8		 neg	 eax
  00090	5f		 pop	 edi
  00091	1b c0		 sbb	 eax, eax
  00093	83 e0 06	 and	 eax, 6

; 360  : 		return 6;
; 361  : #endif // __VER >= 8 // 8Â÷ µŕľó 061226 ma
; 362  : 
; 363  : 
; 364  : 	return 0;
; 365  : }

  00096	5e		 pop	 esi
  00097	c3		 ret	 0
$LN7@GetSummonS:
  00098	5f		 pop	 edi

; 347  : 		return 3;

  00099	b8 03 00 00 00	 mov	 eax, 3

; 360  : 		return 6;
; 361  : #endif // __VER >= 8 // 8Â÷ µŕľó 061226 ma
; 362  : 
; 363  : 
; 364  : 	return 0;
; 365  : }

  0009e	5e		 pop	 esi
  0009f	c3		 ret	 0
$LN22@GetSummonS:
  000a0	5f		 pop	 edi

; 340  : 
; 341  : 	// Á×Ŕ˝
; 342  : 	if( IsDie() )
; 343  : 		return 2;

  000a1	b8 02 00 00 00	 mov	 eax, 2

; 360  : 		return 6;
; 361  : #endif // __VER >= 8 // 8Â÷ µŕľó 061226 ma
; 362  : 
; 363  : 
; 364  : 	return 0;
; 365  : }

  000a6	5e		 pop	 esi
  000a7	c3		 ret	 0
$LN23@GetSummonS:
  000a8	5f		 pop	 edi

; 339  : 		return 1;

  000a9	b8 01 00 00 00	 mov	 eax, 1

; 360  : 		return 6;
; 361  : #endif // __VER >= 8 // 8Â÷ µŕľó 061226 ma
; 362  : 
; 363  : 
; 364  : 	return 0;
; 365  : }

  000ae	5e		 pop	 esi
  000af	c3		 ret	 0
?GetSummonState@CMover@@QAEHXZ ENDP			; CMover::GetSummonState
_TEXT	ENDS
; Function compile flags: /Ogtp
; File C:\IAGOS\server\v18\Source\Source\_Common\MoverParam.cpp
; File C:\IAGOS\server\v18\Source\Source\_Common\xUtil.h
; File C:\IAGOS\server\v18\Source\Source\_Common\MoverParam.cpp
;	COMDAT ?GetRandomPartsAbraded@CMover@@QAEKXZ
_TEXT	SEGMENT
?GetRandomPartsAbraded@CMover@@QAEKXZ PROC		; CMover::GetRandomPartsAbraded, COMDAT
; _this$ = ecx
; File C:\IAGOS\server\v18\Source\Source\_Common\xUtil.h

; 16   : 	g_next = g_next * 1103515245 + 12345;// + nRandomSeed[ i++ ];

  00000	69 0d 00 00 00
	00 6d 4e c6 41	 imul	 ecx, DWORD PTR ?g_next@@3KA, 1103515245 ; g_next
  0000a	81 c1 39 30 00
	00		 add	 ecx, 12345		; 00003039H
  00010	89 0d 00 00 00
	00		 mov	 DWORD PTR ?g_next@@3KA, ecx ; g_next
; File C:\IAGOS\server\v18\Source\Source\_Common\MoverParam.cpp

; 3927 : 	if( nRand % 2 )

  00016	f6 c1 01	 test	 cl, 1
  00019	74 06		 je	 SHORT $LN2@GetRandomP

; 3928 : 		return PARTS_SHIELD;

  0001b	b8 0b 00 00 00	 mov	 eax, 11			; 0000000bH

; 3935 : 		return PARTS_HAND;
; 3936 : 	else	// 15%
; 3937 : 		return PARTS_FOOT;
; 3938 : }

  00020	c3		 ret	 0
$LN2@GetRandomP:

; 3929 : 	nRand	= nRand % 100;

  00021	b8 1f 85 eb 51	 mov	 eax, 1374389535		; 51eb851fH
  00026	f7 e9		 imul	 ecx
  00028	c1 fa 05	 sar	 edx, 5
  0002b	8b c2		 mov	 eax, edx
  0002d	c1 e8 1f	 shr	 eax, 31			; 0000001fH
  00030	03 c2		 add	 eax, edx
  00032	6b c0 64	 imul	 eax, eax, 100
  00035	2b c8		 sub	 ecx, eax

; 3930 : 	if( nRand < 20 )	// 20%

  00037	83 f9 14	 cmp	 ecx, 20			; 00000014H
  0003a	7d 06		 jge	 SHORT $LN3@GetRandomP

; 3931 : 		return PARTS_CAP;

  0003c	b8 06 00 00 00	 mov	 eax, 6

; 3935 : 		return PARTS_HAND;
; 3936 : 	else	// 15%
; 3937 : 		return PARTS_FOOT;
; 3938 : }

  00041	c3		 ret	 0
$LN3@GetRandomP:

; 3932 : 	else if( nRand < 60 )	// 40%

  00042	83 f9 3c	 cmp	 ecx, 60			; 0000003cH
  00045	7d 06		 jge	 SHORT $LN5@GetRandomP

; 3933 : 		return PARTS_UPPER_BODY;

  00047	b8 02 00 00 00	 mov	 eax, 2

; 3935 : 		return PARTS_HAND;
; 3936 : 	else	// 15%
; 3937 : 		return PARTS_FOOT;
; 3938 : }

  0004c	c3		 ret	 0
$LN5@GetRandomP:

; 3934 : 	else if( nRand < 85 )	// 25%

  0004d	33 c0		 xor	 eax, eax
  0004f	83 f9 55	 cmp	 ecx, 85			; 00000055H
  00052	0f 9d c0	 setge	 al
  00055	83 c0 04	 add	 eax, 4

; 3935 : 		return PARTS_HAND;
; 3936 : 	else	// 15%
; 3937 : 		return PARTS_FOOT;
; 3938 : }

  00058	c3		 ret	 0
?GetRandomPartsAbraded@CMover@@QAEKXZ ENDP		; CMover::GetRandomPartsAbraded
_TEXT	ENDS
; Function compile flags: /Ogtp
; File C:\IAGOS\server\v18\Source\Source\_Common\MoverParam.cpp
;	COMDAT ?Abrade@CMover@@QAEXPAV1@H@Z
_TEXT	SEGMENT
_pAttacker$ = 8						; size = 4
_nParts$ = 12						; size = 4
?Abrade@CMover@@QAEXPAV1@H@Z PROC			; CMover::Abrade, COMDAT
; _this$ = ecx

; 3855 : #if __VER < 11 // __REMOVE_ENDURANCE
; 3856 : 	if( NULL == pAttacker )
; 3857 : 		return;
; 3858 : 
; 3859 : 	if( pAttacker->IsPlayer() )
; 3860 : 	{
; 3861 : 		CItemElem* pWeapon	= pAttacker->GetWeaponItem( nParts );
; 3862 : 		if( pWeapon == NULL )
; 3863 : 			return;
; 3864 : 
; 3865 : 		ItemProp* pWeaponProp	= pWeapon->GetProp();
; 3866 : 		if( pWeaponProp == NULL )
; 3867 : 			return;
; 3868 : 		
; 3869 : 		int nWpn = pWeapon->m_nHitPoint;
; 3870 : 		pWeapon->m_nHitPoint	-= ( pWeaponProp->nAbrasion  / 5 ) * GetItemEnduranceWeight(0);			// µÚżˇĽ­ Ăß°ˇ·Î ±đÁö ľĘ°í ż©±âĽ­ 2ąř °öÇß´Ů.
; 3871 : 		if( pWeapon->m_nHitPoint < 0 )		pWeapon->m_nHitPoint = 0;
; 3872 : 		
; 3873 : 		if( nWpn != pWeapon->m_nHitPoint )
; 3874 : 			pAttacker->UpdateItem( pWeapon->m_dwObjId, UI_HP, pWeapon->m_nHitPoint );
; 3875 : 		
; 3876 : 		if( !IsPlayer() )	// PVP
; 3877 : 			return;
; 3878 : 		
; 3879 : 		DWORD dwParts	= GetRandomPartsAbraded();
; 3880 : 		CItemElem* pArmorElem	= m_Inventory.GetEquip( dwParts );
; 3881 : 		if( pArmorElem )
; 3882 : 		{
; 3883 : 			ItemProp* pArmorProp		= pArmorElem->GetProp();
; 3884 : 			if( pArmorProp && ( pArmorProp->dwItemKind2 == IK2_ARMOR || pArmorProp->dwItemKind2 == IK2_ARMORETC ))
; 3885 : 			{
; 3886 : 				int nArm = pArmorElem->m_nHitPoint;
; 3887 : 				pArmorElem->m_nHitPoint		-= pArmorProp->nAbrasion * GetItemEnduranceWeight(0);
; 3888 : 				if( pArmorElem->m_nHitPoint < 0 )	pArmorElem->m_nHitPoint	= 0;
; 3889 : 				
; 3890 : 				if( nArm != pArmorElem->m_nHitPoint )
; 3891 : 					UpdateItem( pArmorElem->m_dwObjId, UI_HP, pArmorElem->m_nHitPoint );
; 3892 : 			}
; 3893 : 		}
; 3894 : 	}
; 3895 : 	else
; 3896 : 	{
; 3897 : 		if( !IsPlayer() )	// MVP
; 3898 : 			return;
; 3899 : 
; 3900 : 		DWORD dwParts	= GetRandomPartsAbraded();
; 3901 : 		CItemElem* pArmorElem	= m_Inventory.GetEquip( dwParts );
; 3902 : 		if( pArmorElem == NULL )
; 3903 : 			return;
; 3904 : 		
; 3905 : 		ItemProp* pArmorProp		= pArmorElem->GetProp();
; 3906 : 		if( pArmorProp && ( pArmorProp->dwItemKind2 == IK2_ARMOR || pArmorProp->dwItemKind2 == IK2_ARMORETC ) )
; 3907 : 		{
; 3908 : 			ItemProp* pWeaponProp	= pAttacker->GetActiveHandItemProp( nParts );
; 3909 : 			if( pWeaponProp )
; 3910 : 			{
; 3911 : 				int nArm = pArmorElem->m_nHitPoint;
; 3912 : 				pArmorElem->m_nHitPoint		-= pArmorProp->nAbrasion * GetItemEnduranceWeight(0);
; 3913 : 				if( pArmorElem->m_nHitPoint < 0 )
; 3914 : 					pArmorElem->m_nHitPoint	= 0;
; 3915 : 				if( nArm != pArmorElem->m_nHitPoint )
; 3916 : 					UpdateItem( pArmorElem->m_dwObjId, UI_HP, pArmorElem->m_nHitPoint );
; 3917 : 			}
; 3918 : 		}
; 3919 : 	}
; 3920 : #endif // __REMOVE_ENDURANCE
; 3921 : }

  00000	c2 08 00	 ret	 8
?Abrade@CMover@@QAEXPAV1@H@Z ENDP			; CMover::Abrade
_TEXT	ENDS
; Function compile flags: /Ogtp
; File C:\IAGOS\server\v18\Source\Source\_Common\MoverParam.cpp
;	COMDAT ?RemoveItemA@CMover@@QAEHKF@Z
_TEXT	SEGMENT
_nSize$1$ = -12						; size = 4
_this$1$ = -8						; size = 4
_nRemnant$ = -4						; size = 2
_dwItemId$ = 8						; size = 4
_nNum$ = 12						; size = 2
?RemoveItemA@CMover@@QAEHKF@Z PROC			; CMover::RemoveItemA, COMDAT
; _this$ = ecx

; 3786 : {

  00000	55		 push	 ebp
  00001	8b ec		 mov	 ebp, esp
  00003	83 ec 0c	 sub	 esp, 12			; 0000000cH

; 3787 : 	if( nNum == -1 )

  00006	66 8b 45 0c	 mov	 ax, WORD PTR _nNum$[ebp]
  0000a	89 4d f8	 mov	 DWORD PTR _this$1$[ebp], ecx
  0000d	66 83 f8 ff	 cmp	 ax, -1
  00011	75 0e		 jne	 SHORT $LN5@RemoveItem

; 3788 : 	{
; 3789 : 		return RemoveAllItem( dwItemId );

  00013	ff 75 08	 push	 DWORD PTR _dwItemId$[ebp]
  00016	e8 00 00 00 00	 call	 ?RemoveAllItem@CMover@@QAEHK@Z ; CMover::RemoveAllItem

; 3814 : }

  0001b	8b e5		 mov	 esp, ebp
  0001d	5d		 pop	 ebp
  0001e	c2 08 00	 ret	 8
$LN5@RemoveItem:

; 3790 : 	}
; 3791 : 
; 3792 : 	int	nSize	= m_Inventory.GetMax();

  00021	8b 91 08 0b 00
	00		 mov	 edx, DWORD PTR [ecx+2824]
  00027	53		 push	 ebx
  00028	56		 push	 esi
  00029	57		 push	 edi

; 3793 : 	CItemElem* pItemElem;
; 3794 : 	short nRemnant	= nNum;

  0002a	0f b7 c0	 movzx	 eax, ax

; 3795 : 
; 3796 : 	for( int i = 0 ; i < nSize && nRemnant > 0; i++ )

  0002d	33 ff		 xor	 edi, edi
  0002f	89 55 f4	 mov	 DWORD PTR _nSize$1$[ebp], edx
  00032	66 8b f0	 mov	 si, ax
  00035	89 45 fc	 mov	 DWORD PTR _nRemnant$[ebp], eax
  00038	85 d2		 test	 edx, edx
  0003a	7e 69		 jle	 SHORT $LN3@RemoveItem
  0003c	0f 1f 40 00	 npad	 4
$LL4@RemoveItem:
  00040	66 85 f6	 test	 si, si
  00043	7e 60		 jle	 SHORT $LN3@RemoveItem

; 3797 : 	{
; 3798 : 		pItemElem	= m_Inventory.GetAtId( i );

  00045	57		 push	 edi
  00046	81 c1 fc 0a 00
	00		 add	 ecx, 2812		; 00000afcH
  0004c	e8 00 00 00 00	 call	 ?GetAtId@?$CItemContainer@VCItemElem@@@@QAEPAVCItemElem@@K@Z ; CItemContainer<CItemElem>::GetAtId
  00051	8b d8		 mov	 ebx, eax

; 3799 : 		if( pItemElem && pItemElem->m_dwItemId == dwItemId )

  00053	85 db		 test	 ebx, ebx
  00055	74 45		 je	 SHORT $LN2@RemoveItem
  00057	8b 45 08	 mov	 eax, DWORD PTR _dwItemId$[ebp]
  0005a	39 43 0c	 cmp	 DWORD PTR [ebx+12], eax
  0005d	75 3d		 jne	 SHORT $LN2@RemoveItem

; 3800 : 		{
; 3801 : 			if( nRemnant > pItemElem->m_nItemNum )

  0005f	0f b7 43 74	 movzx	 eax, WORD PTR [ebx+116]
  00063	6a 00		 push	 0
  00065	66 3b f0	 cmp	 si, ax
  00068	7e 13		 jle	 SHORT $LN7@RemoveItem

; 3802 : 			{
; 3803 : 				UpdateItem( i, UI_NUM, 0 );	// remove

  0006a	8b 4d f8	 mov	 ecx, DWORD PTR _this$1$[ebp]
  0006d	6a 00		 push	 0
  0006f	6a 00		 push	 0
  00071	57		 push	 edi
  00072	e8 00 00 00 00	 call	 ?UpdateItem@CMover@@QAEXEDKK@Z ; CMover::UpdateItem

; 3804 : 				nRemnant	-= pItemElem->m_nItemNum;

  00077	66 2b 73 74	 sub	 si, WORD PTR [ebx+116]

; 3805 : 			}

  0007b	eb 1f		 jmp	 SHORT $LN2@RemoveItem
$LN7@RemoveItem:

; 3806 : 			else
; 3807 : 			{
; 3808 : 				UpdateItem( i, UI_NUM, pItemElem->m_nItemNum - nRemnant );

  0007d	0f bf c8	 movsx	 ecx, ax
  00080	0f bf c6	 movsx	 eax, si
  00083	2b c8		 sub	 ecx, eax
  00085	51		 push	 ecx
  00086	8b 4d f8	 mov	 ecx, DWORD PTR _this$1$[ebp]
  00089	6a 00		 push	 0
  0008b	57		 push	 edi
  0008c	e8 00 00 00 00	 call	 ?UpdateItem@CMover@@QAEXEDKK@Z ; CMover::UpdateItem

; 3809 : 				nRemnant	= 0;

  00091	c7 45 fc 00 00
	00 00		 mov	 DWORD PTR _nRemnant$[ebp], 0
  00098	66 8b 75 fc	 mov	 si, WORD PTR _nRemnant$[ebp]
$LN2@RemoveItem:

; 3795 : 
; 3796 : 	for( int i = 0 ; i < nSize && nRemnant > 0; i++ )

  0009c	8b 4d f8	 mov	 ecx, DWORD PTR _this$1$[ebp]
  0009f	47		 inc	 edi
  000a0	3b 7d f4	 cmp	 edi, DWORD PTR _nSize$1$[ebp]
  000a3	7c 9b		 jl	 SHORT $LL4@RemoveItem
$LN3@RemoveItem:

; 3810 : 			}
; 3811 : 		}
; 3812 : 	}
; 3813 : 	return ( nNum - nRemnant );

  000a5	66 8b 45 0c	 mov	 ax, WORD PTR _nNum$[ebp]
  000a9	5f		 pop	 edi
  000aa	0f bf ce	 movsx	 ecx, si
  000ad	98		 cwde
  000ae	5e		 pop	 esi
  000af	2b c1		 sub	 eax, ecx
  000b1	5b		 pop	 ebx

; 3814 : }

  000b2	8b e5		 mov	 esp, ebp
  000b4	5d		 pop	 ebp
  000b5	c2 08 00	 ret	 8
?RemoveItemA@CMover@@QAEHKF@Z ENDP			; CMover::RemoveItemA
_TEXT	ENDS
; Function compile flags: /Ogtp
; File C:\IAGOS\server\v18\Source\Source\_Common\MoverParam.cpp
;	COMDAT ?IsLegendHero@CMover@@QAEHXZ
_TEXT	SEGMENT
?IsLegendHero@CMover@@QAEHXZ PROC			; CMover::IsLegendHero, COMDAT
; _this$ = ecx

; 430  : 	return prj.m_aJob[ m_nJob ].dwJobType == JTYPE_LEGEND_HERO;

  00000	8b 81 3c 06 00
	00		 mov	 eax, DWORD PTR [ecx+1596]
  00006	8d 0c c0	 lea	 ecx, DWORD PTR [eax+eax*8]
  00009	33 c0		 xor	 eax, eax
  0000b	83 3c cd c4 27
	00 00 07	 cmp	 DWORD PTR ?prj@@3VCProject@@A[ecx*8+10180], 7
  00013	0f 94 c0	 sete	 al

; 431  : }

  00016	c3		 ret	 0
?IsLegendHero@CMover@@QAEHXZ ENDP			; CMover::IsLegendHero
_TEXT	ENDS
; Function compile flags: /Ogtp
; File C:\IAGOS\server\v18\Source\Source\_Common\MoverParam.cpp
;	COMDAT ?IsHero@CMover@@QAEHXZ
_TEXT	SEGMENT
?IsHero@CMover@@QAEHXZ PROC				; CMover::IsHero, COMDAT
; _this$ = ecx

; 423  : 	return prj.m_aJob[ m_nJob ].dwJobType == 6;//temp JTYPE_HERO;

  00000	8b 81 3c 06 00
	00		 mov	 eax, DWORD PTR [ecx+1596]
  00006	8d 0c c0	 lea	 ecx, DWORD PTR [eax+eax*8]
  00009	33 c0		 xor	 eax, eax
  0000b	83 3c cd c4 27
	00 00 06	 cmp	 DWORD PTR ?prj@@3VCProject@@A[ecx*8+10180], 6
  00013	0f 94 c0	 sete	 al

; 424  : }

  00016	c3		 ret	 0
?IsHero@CMover@@QAEHXZ ENDP				; CMover::IsHero
_TEXT	ENDS
; Function compile flags: /Ogtp
; File C:\IAGOS\server\v18\Source\Source\_Common\MoverParam.cpp
;	COMDAT ?IsMaster@CMover@@QAEHXZ
_TEXT	SEGMENT
?IsMaster@CMover@@QAEHXZ PROC				; CMover::IsMaster, COMDAT
; _this$ = ecx

; 418  : 	return prj.m_aJob[ m_nJob ].dwJobType == 5;//temp JTYPE_MASTER;

  00000	8b 81 3c 06 00
	00		 mov	 eax, DWORD PTR [ecx+1596]
  00006	8d 0c c0	 lea	 ecx, DWORD PTR [eax+eax*8]
  00009	33 c0		 xor	 eax, eax
  0000b	83 3c cd c4 27
	00 00 05	 cmp	 DWORD PTR ?prj@@3VCProject@@A[ecx*8+10180], 5
  00013	0f 94 c0	 sete	 al

; 419  : }

  00016	c3		 ret	 0
?IsMaster@CMover@@QAEHXZ ENDP				; CMover::IsMaster
_TEXT	ENDS
; Function compile flags: /Ogtp
; File C:\IAGOS\server\v18\Source\Source\_Common\MoverParam.cpp
;	COMDAT ?GetLegendChar@CMover@@QAEEXZ
_TEXT	SEGMENT
?GetLegendChar@CMover@@QAEEXZ PROC			; CMover::GetLegendChar, COMDAT
; _this$ = ecx

; 403  : {

  00000	56		 push	 esi
  00001	8b f1		 mov	 esi, ecx

; 404  : 	if(IsMaster())

  00003	e8 00 00 00 00	 call	 ?IsMaster@CMover@@QAEHXZ ; CMover::IsMaster
  00008	85 c0		 test	 eax, eax
  0000a	74 04		 je	 SHORT $LN2@GetLegendC

; 405  : 		return LEGEND_CLASS_MASTER;

  0000c	b0 01		 mov	 al, 1
  0000e	5e		 pop	 esi

; 410  : 		return LEGEND_CLASS_LEGENDHERO;
; 411  : #endif //  __3RD_LEGEND16
; 412  : 	else
; 413  : 		return LEGEND_CLASS_NORMAL;
; 414  : }

  0000f	c3		 ret	 0
$LN2@GetLegendC:

; 406  : 	else if(IsHero())

  00010	8b ce		 mov	 ecx, esi
  00012	e8 00 00 00 00	 call	 ?IsHero@CMover@@QAEHXZ	; CMover::IsHero
  00017	85 c0		 test	 eax, eax
  00019	74 04		 je	 SHORT $LN4@GetLegendC

; 407  : 		return	LEGEND_CLASS_HERO;

  0001b	b0 02		 mov	 al, 2
  0001d	5e		 pop	 esi

; 410  : 		return LEGEND_CLASS_LEGENDHERO;
; 411  : #endif //  __3RD_LEGEND16
; 412  : 	else
; 413  : 		return LEGEND_CLASS_NORMAL;
; 414  : }

  0001e	c3		 ret	 0
$LN4@GetLegendC:

; 408  : #ifdef __3RD_LEGEND16
; 409  : 	else if(IsLegendHero())

  0001f	8b ce		 mov	 ecx, esi
  00021	e8 00 00 00 00	 call	 ?IsLegendHero@CMover@@QAEHXZ ; CMover::IsLegendHero
  00026	f7 d8		 neg	 eax
  00028	5e		 pop	 esi
  00029	1a c0		 sbb	 al, al
  0002b	24 03		 and	 al, 3

; 410  : 		return LEGEND_CLASS_LEGENDHERO;
; 411  : #endif //  __3RD_LEGEND16
; 412  : 	else
; 413  : 		return LEGEND_CLASS_NORMAL;
; 414  : }

  0002d	c3		 ret	 0
?GetLegendChar@CMover@@QAEEXZ ENDP			; CMover::GetLegendChar
_TEXT	ENDS
; Function compile flags: /Ogtp
; File C:\IAGOS\server\v18\Source\Source\_Common\MoverParam.cpp
;	COMDAT ?PutLvUpSkillName_2@CMover@@QAEXK@Z
_TEXT	SEGMENT
_dwSkill$ = 8						; size = 4
?PutLvUpSkillName_2@CMover@@QAEXK@Z PROC		; CMover::PutLvUpSkillName_2, COMDAT
; _this$ = ecx

; 300  : #ifdef __CLIENT
; 301  : 	LPSKILL pSkill = GetSkill( dwSkill );
; 302  : 	ItemProp* pSkillProp = prj.GetSkillProp( dwSkill );
; 303  : 	
; 304  : 	//ÇöŔç Č°ĽşČ­ µÇľîŔÖ´ÂłÄ?
; 305  : 	//łŞ¸¦ °®°íŔÖ´Â ˝şĹłŔ» °Ë»çÇĎż© Á¶°Çżˇ ¸ÂŔ¸¸é ±×˝şĹłŔ» Č°ĽşČ­ ÇŃ´Ů.
; 306  : 	for( int i = 0; i < MAX_SKILL_JOB; i++ )	
; 307  : 	{
; 308  : 		if( m_aJobSkill[i].dwSkill == NULL_ID ) 
; 309  : 			continue;
; 310  : 
; 311  : 		if( IsSkillParent( this, m_aJobSkill[i].dwSkill, dwSkill ) )
; 312  : 		{
; 313  : 			if( IsActive( this, m_aJobSkill[i].dwSkill ) )
; 314  : 			{
; 315  : 				ItemProp* pSkillProp1;
; 316  : 				pSkillProp1 = prj.GetSkillProp( m_aJobSkill[i].dwSkill );
; 317  : 
; 318  : 				CString str;
; 319  : 				str.Format( prj.GetText( TID_GAME_REAPSKILL ), pSkillProp1->szName );
; 320  : 				g_WndMng.PutString( (LPCTSTR)str, NULL, prj.GetTextColor( TID_GAME_REAPSKILL ) );	
; 321  : 			}
; 322  : 		}
; 323  : 	}
; 324  : #endif // CLIENT
; 325  : }

  00000	c2 04 00	 ret	 4
?PutLvUpSkillName_2@CMover@@QAEXK@Z ENDP		; CMover::PutLvUpSkillName_2
_TEXT	ENDS
; Function compile flags: /Ogtp
; File C:\IAGOS\server\v18\Source\Source\_Common\MoverParam.cpp
;	COMDAT ?PutLvUpSkillName_1@CMover@@QAEXK@Z
_TEXT	SEGMENT
_dwLevel$ = 8						; size = 4
?PutLvUpSkillName_1@CMover@@QAEXK@Z PROC		; CMover::PutLvUpSkillName_1, COMDAT
; _this$ = ecx

; 166  : #ifdef __CLIENT
; 167  : 	for( int i = 0; i < MAX_SKILL_JOB; i++ )	
; 168  : 	{
; 169  : 		if( m_aJobSkill[i].dwSkill == NULL_ID ) 
; 170  : 			continue;
; 171  : 		
; 172  : 		ItemProp* pSkillProp = prj.GetSkillProp( m_aJobSkill[i].dwSkill );
; 173  : 		
; 174  : 		if( pSkillProp && dwLevel == pSkillProp->dwReqDisLV )
; 175  : 		{
; 176  : 			if( pSkillProp->dwReSkill1 != -1 )
; 177  : 			{
; 178  : 				LPSKILL pSkill = GetSkill(pSkillProp->dwReSkill1);
; 179  : 
; 180  : 				if( pSkillProp->dwReSkillLevel1 > pSkill->dwLevel )
; 181  : 					continue;
; 182  : 			}
; 183  : 			if( pSkillProp->dwReSkill2 != -1 )
; 184  : 			{
; 185  : 				LPSKILL pSkill = GetSkill(pSkillProp->dwReSkill2);
; 186  : 				
; 187  : 				if( pSkillProp->dwReSkillLevel2 > pSkill->dwLevel )
; 188  : 					continue;
; 189  : 			}
; 190  : 
; 191  : 			CString str;
; 192  : 			str.Format( prj.GetText( TID_GAME_REAPSKILL ), pSkillProp->szName );
; 193  : 			g_WndMng.PutString( (LPCTSTR)str, NULL, prj.GetTextColor( TID_GAME_REAPSKILL ) );
; 194  : 		}
; 195  : 	}
; 196  : #endif //__CLIENT
; 197  : }		

  00000	c2 04 00	 ret	 4
?PutLvUpSkillName_1@CMover@@QAEXK@Z ENDP		; CMover::PutLvUpSkillName_1
_TEXT	ENDS
; Function compile flags: /Ogtp
; File C:\IAGOS\server\v18\Source\Source\_Common\MoverParam.cpp
; File C:\IAGOS\server\v18\Source\Source\_Common\Mover.h
; File C:\IAGOS\server\v18\Source\Source\_Common\MoverParam.cpp
;	COMDAT ?HalfForceSet@CMover@@QAEXAAUD3DXVECTOR3@@0MMMM@Z
_TEXT	SEGMENT
_vPos$ = 8						; size = 4
_vd$ = 12						; size = 4
_fAngle$ = 16						; size = 4
_fAngleX$ = 20						; size = 4
_fAccPower$ = 24					; size = 4
_fTurnAngle$ = 28					; size = 4
?HalfForceSet@CMover@@QAEXAAUD3DXVECTOR3@@0MMMM@Z PROC	; CMover::HalfForceSet, COMDAT
; _this$ = ecx

; 3523 : {

  00000	55		 push	 ebp
  00001	8b ec		 mov	 ebp, esp
  00003	56		 push	 esi
  00004	8b f1		 mov	 esi, ecx

; 3524 : 	m_uRemnantCorrFrm	= 0;
; 3525 : 	if( m_pActMover == NULL )	return;

  00006	83 be 38 02 00
	00 00		 cmp	 DWORD PTR [esi+568], 0
  0000d	c7 86 78 02 00
	00 00 00 00 00	 mov	 DWORD PTR [esi+632], 0
  00017	0f 84 8e 00 00
	00		 je	 $LN1@HalfForceS

; 3528 : 	SetPos( vPos );

  0001d	ff 75 08	 push	 DWORD PTR _vPos$[ebp]
; File C:\IAGOS\server\v18\Source\Source\_Common\Mover.h

; 1030 : 	void			ClearDestObj()     	{ m_idDest = NULL_ID; m_fArrivalRange = 0.0f; }

  00020	c7 86 58 02 00
	00 ff ff ff ff	 mov	 DWORD PTR [esi+600], -1
  0002a	c7 86 54 02 00
	00 00 00 00 00	 mov	 DWORD PTR [esi+596], 0

; 1031 : 	void			ClearDestPos()		{ m_vDestPos = D3DXVECTOR3( 0.0f, 0.0f, 0.0f ); }		

  00034	c7 86 5c 02 00
	00 00 00 00 00	 mov	 DWORD PTR [esi+604], 0
  0003e	c7 86 60 02 00
	00 00 00 00 00	 mov	 DWORD PTR [esi+608], 0
  00048	c7 86 64 02 00
	00 00 00 00 00	 mov	 DWORD PTR [esi+612], 0

; 1039 : 	void			ClearDestAngle()	{ m_fDestAngle	= -1.0f; }

  00052	c7 86 68 02 00
	00 00 00 80 bf	 mov	 DWORD PTR [esi+616], -1082130432 ; bf800000H
; File C:\IAGOS\server\v18\Source\Source\_Common\MoverParam.cpp

; 3528 : 	SetPos( vPos );

  0005c	e8 00 00 00 00	 call	 ?SetPos@CObj@@QAEXABUD3DXVECTOR3@@@Z ; CObj::SetPos

; 3529 : 	SetAngle( fAngle );

  00061	f3 0f 10 45 10	 movss	 xmm0, DWORD PTR _fAngle$[ebp]
  00066	51		 push	 ecx
  00067	8b ce		 mov	 ecx, esi
  00069	f3 0f 11 04 24	 movss	 DWORD PTR [esp], xmm0
  0006e	e8 00 00 00 00	 call	 ?SetAngle@CObj@@QAEXM@Z	; CObj::SetAngle

; 3530 : 	SetAngleX( fAngleX );

  00073	f3 0f 10 45 14	 movss	 xmm0, DWORD PTR _fAngleX$[ebp]
  00078	51		 push	 ecx
  00079	8b ce		 mov	 ecx, esi
  0007b	f3 0f 11 04 24	 movss	 DWORD PTR [esp], xmm0
  00080	e8 00 00 00 00	 call	 ?SetAngleX@CObj@@QAEXM@Z ; CObj::SetAngleX

; 3531 : 	m_pActMover->HalfForcedSet( vd, fAccPower, fTurnAngle );

  00085	f3 0f 10 45 1c	 movss	 xmm0, DWORD PTR _fTurnAngle$[ebp]
  0008a	83 ec 08	 sub	 esp, 8
  0008d	8b 8e 38 02 00
	00		 mov	 ecx, DWORD PTR [esi+568]
  00093	f3 0f 11 44 24
	04		 movss	 DWORD PTR [esp+4], xmm0
  00099	f3 0f 10 45 18	 movss	 xmm0, DWORD PTR _fAccPower$[ebp]
  0009e	f3 0f 11 04 24	 movss	 DWORD PTR [esp], xmm0
  000a3	ff 75 0c	 push	 DWORD PTR _vd$[ebp]
  000a6	e8 00 00 00 00	 call	 ?HalfForcedSet@CActionMover@@QAEXAAUD3DXVECTOR3@@MM@Z ; CActionMover::HalfForcedSet
$LN1@HalfForceS:
  000ab	5e		 pop	 esi

; 3532 : }

  000ac	5d		 pop	 ebp
  000ad	c2 18 00	 ret	 24			; 00000018H
?HalfForceSet@CMover@@QAEXAAUD3DXVECTOR3@@0MMMM@Z ENDP	; CMover::HalfForceSet
_TEXT	ENDS
; Function compile flags: /Ogtp
; File C:\IAGOS\server\v18\Source\Source\_Common\MoverParam.cpp
; File C:\IAGOS\server\v18\Source\Source\_Common\Mover.h
; File C:\IAGOS\server\v18\Source\Source\_Common\MoverParam.cpp
;	COMDAT ?ActionForceSet2@CMover@@QAEXAAUD3DXVECTOR3@@0MMMMKKHHHK@Z
_TEXT	SEGMENT
_vPos$ = 8						; size = 4
_vDelta$ = 12						; size = 4
_fAngle$ = 16						; size = 4
_fAngleX$ = 20						; size = 4
_fAccPower$ = 24					; size = 4
_fTurnAngle$ = 28					; size = 4
_dwState$ = 32						; size = 4
_dwStateFlag$ = 36					; size = 4
_nMotion$ = 40						; size = 4
_nMotionEx$ = 44					; size = 4
_nLoop$ = 48						; size = 4
_dwMotionOption$ = 52					; size = 4
?ActionForceSet2@CMover@@QAEXAAUD3DXVECTOR3@@0MMMMKKHHHK@Z PROC ; CMover::ActionForceSet2, COMDAT
; _this$ = ecx

; 3502 : {

  00000	55		 push	 ebp
  00001	8b ec		 mov	 ebp, esp
  00003	56		 push	 esi
  00004	8b f1		 mov	 esi, ecx

; 3503 : 	m_uRemnantCorrFrm	= 0;
; 3504 : 	if( m_pActMover == NULL )	return;

  00006	83 be 38 02 00
	00 00		 cmp	 DWORD PTR [esi+568], 0
  0000d	c7 86 78 02 00
	00 00 00 00 00	 mov	 DWORD PTR [esi+632], 0
  00017	0f 84 d1 00 00
	00		 je	 $LN1@ActionForc

; 3505 : 	CModelObject* pModel = (CModelObject*)m_pModel;

  0001d	57		 push	 edi
  0001e	8b be 78 01 00
	00		 mov	 edi, DWORD PTR [esi+376]

; 3508 : 	SetPos( vPos );

  00024	ff 75 08	 push	 DWORD PTR _vPos$[ebp]
; File C:\IAGOS\server\v18\Source\Source\_Common\Mover.h

; 1030 : 	void			ClearDestObj()     	{ m_idDest = NULL_ID; m_fArrivalRange = 0.0f; }

  00027	c7 86 58 02 00
	00 ff ff ff ff	 mov	 DWORD PTR [esi+600], -1
  00031	c7 86 54 02 00
	00 00 00 00 00	 mov	 DWORD PTR [esi+596], 0

; 1031 : 	void			ClearDestPos()		{ m_vDestPos = D3DXVECTOR3( 0.0f, 0.0f, 0.0f ); }		

  0003b	c7 86 5c 02 00
	00 00 00 00 00	 mov	 DWORD PTR [esi+604], 0
  00045	c7 86 60 02 00
	00 00 00 00 00	 mov	 DWORD PTR [esi+608], 0
  0004f	c7 86 64 02 00
	00 00 00 00 00	 mov	 DWORD PTR [esi+612], 0

; 1039 : 	void			ClearDestAngle()	{ m_fDestAngle	= -1.0f; }

  00059	c7 86 68 02 00
	00 00 00 80 bf	 mov	 DWORD PTR [esi+616], -1082130432 ; bf800000H
; File C:\IAGOS\server\v18\Source\Source\_Common\MoverParam.cpp

; 3508 : 	SetPos( vPos );

  00063	e8 00 00 00 00	 call	 ?SetPos@CObj@@QAEXABUD3DXVECTOR3@@@Z ; CObj::SetPos

; 3509 : 	SetAngle( fAngle );

  00068	f3 0f 10 45 10	 movss	 xmm0, DWORD PTR _fAngle$[ebp]
  0006d	51		 push	 ecx
  0006e	8b ce		 mov	 ecx, esi
  00070	f3 0f 11 04 24	 movss	 DWORD PTR [esp], xmm0
  00075	e8 00 00 00 00	 call	 ?SetAngle@CObj@@QAEXM@Z	; CObj::SetAngle

; 3510 : 	SetAngleX( fAngleX );

  0007a	f3 0f 10 45 14	 movss	 xmm0, DWORD PTR _fAngleX$[ebp]
  0007f	51		 push	 ecx
  00080	8b ce		 mov	 ecx, esi
  00082	f3 0f 11 04 24	 movss	 DWORD PTR [esp], xmm0
  00087	e8 00 00 00 00	 call	 ?SetAngleX@CObj@@QAEXM@Z ; CObj::SetAngleX

; 3511 : 	m_pActMover->ForcedSet2( vDelta, fAccPower, fTurnAngle, dwState, dwStateFlag, nMotionEx );

  0008c	ff 75 2c	 push	 DWORD PTR _nMotionEx$[ebp]
  0008f	f3 0f 10 45 1c	 movss	 xmm0, DWORD PTR _fTurnAngle$[ebp]
  00094	ff 75 24	 push	 DWORD PTR _dwStateFlag$[ebp]
  00097	8b 8e 38 02 00
	00		 mov	 ecx, DWORD PTR [esi+568]
  0009d	ff 75 20	 push	 DWORD PTR _dwState$[ebp]
  000a0	83 ec 08	 sub	 esp, 8
  000a3	f3 0f 11 44 24
	04		 movss	 DWORD PTR [esp+4], xmm0
  000a9	f3 0f 10 45 18	 movss	 xmm0, DWORD PTR _fAccPower$[ebp]
  000ae	f3 0f 11 04 24	 movss	 DWORD PTR [esp], xmm0
  000b3	ff 75 0c	 push	 DWORD PTR _vDelta$[ebp]
  000b6	e8 00 00 00 00	 call	 ?ForcedSet2@CActionMover@@QAEXAAUD3DXVECTOR3@@MMKKH@Z ; CActionMover::ForcedSet2

; 3512 : 	m_dwMotion = -1;
; 3513 : #ifdef __WORLDSERVER	
; 3514 : 	if( nMotion == 31 && (dwMotionOption & MOP_FIXED) == 0 )

  000bb	8b 55 28	 mov	 edx, DWORD PTR _nMotion$[ebp]
  000be	8b 4d 34	 mov	 ecx, DWORD PTR _dwMotionOption$[ebp]
  000c1	c7 86 d8 02 00
	00 ff ff ff ff	 mov	 DWORD PTR [esi+728], -1
  000cb	83 fa 1f	 cmp	 edx, 31			; 0000001fH
  000ce	75 08		 jne	 SHORT $LN3@ActionForc
  000d0	f6 c1 02	 test	 cl, 2
  000d3	75 03		 jne	 SHORT $LN3@ActionForc

; 3515 : 		dwMotionOption |= MOP_FIXED;	

  000d5	83 c9 02	 or	 ecx, 2
$LN3@ActionForc:

; 3516 : #endif
; 3517 : 
; 3518 : 	SetMotion( nMotion, nLoop, dwMotionOption );

  000d8	8b 06		 mov	 eax, DWORD PTR [esi]
  000da	51		 push	 ecx
  000db	ff 75 30	 push	 DWORD PTR _nLoop$[ebp]
  000de	8b ce		 mov	 ecx, esi
  000e0	52		 push	 edx
  000e1	ff 50 04	 call	 DWORD PTR [eax+4]

; 3519 : 	pModel->SetMotionBlending( FALSE );

  000e4	6a 00		 push	 0
  000e6	8b cf		 mov	 ecx, edi
  000e8	e8 00 00 00 00	 call	 ?SetMotionBlending@CModelObject@@QAEXH@Z ; CModelObject::SetMotionBlending
  000ed	5f		 pop	 edi
$LN1@ActionForc:
  000ee	5e		 pop	 esi

; 3520 : }

  000ef	5d		 pop	 ebp
  000f0	c2 30 00	 ret	 48			; 00000030H
?ActionForceSet2@CMover@@QAEXAAUD3DXVECTOR3@@0MMMMKKHHHK@Z ENDP ; CMover::ActionForceSet2
_TEXT	ENDS
; Function compile flags: /Ogtp
; File C:\IAGOS\server\v18\Source\Source\_Common\MoverParam.cpp
; File C:\IAGOS\server\v18\Source\Source\_Common\Mover.h
; File C:\IAGOS\server\v18\Source\Source\_Common\MoverParam.cpp
;	COMDAT ?ActionForceSet@CMover@@QAEXAAUD3DXVECTOR3@@0MKKHHHK@Z
_TEXT	SEGMENT
_vPos$ = 8						; size = 4
_vDelta$ = 12						; size = 4
_fAngle$ = 16						; size = 4
_dwState$ = 20						; size = 4
_dwStateFlag$ = 24					; size = 4
_nMotion$ = 28						; size = 4
_nMotionEx$ = 32					; size = 4
_nLoop$ = 36						; size = 4
_dwMotionOption$ = 40					; size = 4
?ActionForceSet@CMover@@QAEXAAUD3DXVECTOR3@@0MKKHHHK@Z PROC ; CMover::ActionForceSet, COMDAT
; _this$ = ecx

; 3481 : {

  00000	55		 push	 ebp
  00001	8b ec		 mov	 ebp, esp
  00003	57		 push	 edi
  00004	8b f9		 mov	 edi, ecx

; 3482 : 	m_uRemnantCorrFrm	= 0;
; 3483 : 	if( m_pActMover == NULL )	return;

  00006	83 bf 38 02 00
	00 00		 cmp	 DWORD PTR [edi+568], 0
  0000d	c7 87 78 02 00
	00 00 00 00 00	 mov	 DWORD PTR [edi+632], 0
  00017	0f 84 84 00 00
	00		 je	 $LN1@ActionForc

; 3484 : 	CModelObject* pModel = (CModelObject*)m_pModel;

  0001d	56		 push	 esi
  0001e	8b b7 78 01 00
	00		 mov	 esi, DWORD PTR [edi+376]

; 3491 : 	SetPos( vPos );

  00024	ff 75 08	 push	 DWORD PTR _vPos$[ebp]
; File C:\IAGOS\server\v18\Source\Source\_Common\Mover.h

; 1031 : 	void			ClearDestPos()		{ m_vDestPos = D3DXVECTOR3( 0.0f, 0.0f, 0.0f ); }		

  00027	c7 87 5c 02 00
	00 00 00 00 00	 mov	 DWORD PTR [edi+604], 0
  00031	c7 87 60 02 00
	00 00 00 00 00	 mov	 DWORD PTR [edi+608], 0
  0003b	c7 87 64 02 00
	00 00 00 00 00	 mov	 DWORD PTR [edi+612], 0

; 1039 : 	void			ClearDestAngle()	{ m_fDestAngle	= -1.0f; }

  00045	c7 87 68 02 00
	00 00 00 80 bf	 mov	 DWORD PTR [edi+616], -1082130432 ; bf800000H
; File C:\IAGOS\server\v18\Source\Source\_Common\MoverParam.cpp

; 3491 : 	SetPos( vPos );

  0004f	e8 00 00 00 00	 call	 ?SetPos@CObj@@QAEXABUD3DXVECTOR3@@@Z ; CObj::SetPos

; 3492 : 	SetAngle( fAngle );

  00054	f3 0f 10 45 10	 movss	 xmm0, DWORD PTR _fAngle$[ebp]
  00059	51		 push	 ecx
  0005a	8b cf		 mov	 ecx, edi
  0005c	f3 0f 11 04 24	 movss	 DWORD PTR [esp], xmm0
  00061	e8 00 00 00 00	 call	 ?SetAngle@CObj@@QAEXM@Z	; CObj::SetAngle

; 3493 : 	m_pActMover->ForcedSet( vDelta, dwState, dwStateFlag, nMotionEx );

  00066	ff 75 20	 push	 DWORD PTR _nMotionEx$[ebp]
  00069	8b 8f 38 02 00
	00		 mov	 ecx, DWORD PTR [edi+568]
  0006f	ff 75 18	 push	 DWORD PTR _dwStateFlag$[ebp]
  00072	ff 75 14	 push	 DWORD PTR _dwState$[ebp]
  00075	ff 75 0c	 push	 DWORD PTR _vDelta$[ebp]
  00078	e8 00 00 00 00	 call	 ?ForcedSet@CActionMover@@QAEXAAUD3DXVECTOR3@@KKH@Z ; CActionMover::ForcedSet

; 3494 : 	m_dwMotion = -1;
; 3495 : 	SetMotion( nMotion, nLoop, dwMotionOption );

  0007d	ff 75 28	 push	 DWORD PTR _dwMotionOption$[ebp]
  00080	8b 07		 mov	 eax, DWORD PTR [edi]
  00082	8b cf		 mov	 ecx, edi
  00084	ff 75 24	 push	 DWORD PTR _nLoop$[ebp]
  00087	c7 87 d8 02 00
	00 ff ff ff ff	 mov	 DWORD PTR [edi+728], -1
  00091	ff 75 1c	 push	 DWORD PTR _nMotion$[ebp]
  00094	ff 50 04	 call	 DWORD PTR [eax+4]

; 3496 : 	pModel->SetMotionBlending( FALSE );

  00097	6a 00		 push	 0
  00099	8b ce		 mov	 ecx, esi
  0009b	e8 00 00 00 00	 call	 ?SetMotionBlending@CModelObject@@QAEXH@Z ; CModelObject::SetMotionBlending
  000a0	5e		 pop	 esi
$LN1@ActionForc:
  000a1	5f		 pop	 edi

; 3497 : }

  000a2	5d		 pop	 ebp
  000a3	c2 24 00	 ret	 36			; 00000024H
?ActionForceSet@CMover@@QAEXAAUD3DXVECTOR3@@0MKKHHHK@Z ENDP ; CMover::ActionForceSet
_TEXT	ENDS
; Function compile flags: /Ogtp
; File C:\IAGOS\server\v18\Source\Source\_Common\MoverParam.cpp
;	COMDAT ?BehaviorActionForceSet@CMover@@QAEXXZ
_TEXT	SEGMENT
?BehaviorActionForceSet@CMover@@QAEXXZ PROC		; CMover::BehaviorActionForceSet, COMDAT
; _this$ = ecx

; 3462 : {

  00000	56		 push	 esi
  00001	8b f1		 mov	 esi, ecx

; 3463 : 	if( m_CorrAction.fValid && m_CorrAction.fBehavior == TRUE ) {

  00003	83 be c0 02 00
	00 00		 cmp	 DWORD PTR [esi+704], 0
  0000a	0f 84 9e 00 00
	00		 je	 $LN4@BehaviorAc
  00010	83 be c4 02 00
	00 01		 cmp	 DWORD PTR [esi+708], 1
  00017	0f 85 91 00 00
	00		 jne	 $LN4@BehaviorAc

; 3464 : 		if( m_CorrAction.dwStateFlag & OBJSTAF_FLY ) {

  0001d	ff b6 98 02 00
	00		 push	 DWORD PTR [esi+664]
  00023	8b 86 88 02 00
	00		 mov	 eax, DWORD PTR [esi+648]
  00029	8d 8e a8 02 00
	00		 lea	 ecx, DWORD PTR [esi+680]
  0002f	8d 96 9c 02 00
	00		 lea	 edx, DWORD PTR [esi+668]
  00035	ff b6 94 02 00
	00		 push	 DWORD PTR [esi+660]
  0003b	ff b6 90 02 00
	00		 push	 DWORD PTR [esi+656]
  00041	ff b6 8c 02 00
	00		 push	 DWORD PTR [esi+652]
  00047	50		 push	 eax
  00048	ff b6 84 02 00
	00		 push	 DWORD PTR [esi+644]
  0004e	a8 08		 test	 al, 8
  00050	74 45		 je	 SHORT $LN3@BehaviorAc

; 3465 : 			ActionForceSet2( m_CorrAction.v, m_CorrAction.vd, m_CorrAction.f,

  00052	f3 0f 10 86 bc
	02 00 00	 movss	 xmm0, DWORD PTR [esi+700]
  0005a	83 ec 10	 sub	 esp, 16			; 00000010H
  0005d	f3 0f 11 44 24
	0c		 movss	 DWORD PTR [esp+12], xmm0
  00063	f3 0f 10 86 b8
	02 00 00	 movss	 xmm0, DWORD PTR [esi+696]
  0006b	f3 0f 11 44 24
	08		 movss	 DWORD PTR [esp+8], xmm0
  00071	f3 0f 10 86 b4
	02 00 00	 movss	 xmm0, DWORD PTR [esi+692]
  00079	f3 0f 11 44 24
	04		 movss	 DWORD PTR [esp+4], xmm0
  0007f	f3 0f 10 86 7c
	02 00 00	 movss	 xmm0, DWORD PTR [esi+636]
  00087	f3 0f 11 04 24	 movss	 DWORD PTR [esp], xmm0
  0008c	51		 push	 ecx
  0008d	52		 push	 edx
  0008e	8b ce		 mov	 ecx, esi
  00090	e8 00 00 00 00	 call	 ?ActionForceSet2@CMover@@QAEXAAUD3DXVECTOR3@@0MMMMKKHHHK@Z ; CMover::ActionForceSet2

; 3466 : 								m_CorrAction.fAngleX, m_CorrAction.fAccPower, m_CorrAction.fTurnAngle,
; 3467 : 								m_CorrAction.dwState, m_CorrAction.dwStateFlag,
; 3468 : 								m_CorrAction.dwMotion, m_CorrAction.nMotionEx, m_CorrAction.nLoop, m_CorrAction.dwMotionOption );
; 3469 : 		}

  00095	eb 17		 jmp	 SHORT $LN4@BehaviorAc
$LN3@BehaviorAc:

; 3470 : 		else {
; 3471 : 			ActionForceSet( m_CorrAction.v, m_CorrAction.vd, m_CorrAction.f,

  00097	f3 0f 10 86 7c
	02 00 00	 movss	 xmm0, DWORD PTR [esi+636]
  0009f	51		 push	 ecx
  000a0	f3 0f 11 04 24	 movss	 DWORD PTR [esp], xmm0
  000a5	51		 push	 ecx
  000a6	52		 push	 edx
  000a7	8b ce		 mov	 ecx, esi
  000a9	e8 00 00 00 00	 call	 ?ActionForceSet@CMover@@QAEXAAUD3DXVECTOR3@@0MKKHHHK@Z ; CMover::ActionForceSet
$LN4@BehaviorAc:

; 3472 : 								m_CorrAction.dwState, m_CorrAction.dwStateFlag,
; 3473 : 								m_CorrAction.dwMotion, m_CorrAction.nMotionEx, m_CorrAction.nLoop, m_CorrAction.dwMotionOption );
; 3474 : 		}
; 3475 : 	}
; 3476 : 	memset( &m_CorrAction, 0, sizeof(CORR_ACTION) );

  000ae	6a 50		 push	 80			; 00000050H
  000b0	8d 86 7c 02 00
	00		 lea	 eax, DWORD PTR [esi+636]
  000b6	6a 00		 push	 0
  000b8	50		 push	 eax
  000b9	e8 00 00 00 00	 call	 _memset
  000be	83 c4 0c	 add	 esp, 12			; 0000000cH
  000c1	5e		 pop	 esi

; 3477 : }

  000c2	c3		 ret	 0
?BehaviorActionForceSet@CMover@@QAEXXZ ENDP		; CMover::BehaviorActionForceSet
_TEXT	ENDS
; Function compile flags: /Ogtp
; File C:\IAGOS\server\v18\Source\Source\_Common\MoverParam.cpp
; File C:\IAGOS\server\v18\Source\Source\_Common\Party.h
; File C:\IAGOS\server\v18\Source\Source\_Common\MoverParam.cpp
; File C:\IAGOS\server\v18\Source\Source\_Common\Obj.h
; File C:\IAGOS\server\v18\Source\Source\_Common\MoverParam.cpp
; File C:\IAGOS\server\v18\Source\Source\_Common\Obj.h
; File C:\IAGOS\server\v18\Source\Source\_Common\MoverParam.cpp
;	COMDAT ?DuelResult@CMover@@QAEHPAV1@@Z
_TEXT	SEGMENT
_pParty$1$ = -4						; size = 4
_pLose$ = 8						; size = 4
_fVal$1$ = 8						; size = 4
?DuelResult@CMover@@QAEHPAV1@@Z PROC			; CMover::DuelResult, COMDAT
; _this$ = ecx

; 831  : {

  00000	55		 push	 ebp
  00001	8b ec		 mov	 ebp, esp
  00003	51		 push	 ecx
  00004	53		 push	 ebx
  00005	56		 push	 esi
  00006	57		 push	 edi
  00007	8b 7d 08	 mov	 edi, DWORD PTR _pLose$[ebp]
  0000a	8b f1		 mov	 esi, ecx

; 832  : #ifdef __WORLDSERVER
; 833  : 	if( pLose->m_nDuel == 1 )

  0000c	8b 87 3c 07 00
	00		 mov	 eax, DWORD PTR [edi+1852]
  00012	83 f8 01	 cmp	 eax, 1
  00015	75 54		 jne	 SHORT $LN4@DuelResult

; 834  : 	{
; 835  : 		if( pLose->GetId() != m_idDuelOther )

  00017	8b 87 bc 01 00
	00		 mov	 eax, DWORD PTR [edi+444]
  0001d	3b 86 40 07 00
	00		 cmp	 eax, DWORD PTR [esi+1856]
  00023	0f 85 c8 01 00
	00		 jne	 $LN8@DuelResult

; 836  : 			return 0;
; 837  : 	}
; 838  : 
; 839  : 	// ˝ÂŔÚ´Â ·ąş§Â÷żˇµű¶ó °ćÇčÄˇ »ó˝Â
; 840  : 	// ĆĐŔÚ´Â ·ąş§Â÷żˇµű¶ó °ćÇčÄˇ% ÇĎ¶ô
; 841  : 	if( pLose->m_nDuel == 1 )	// °łŔÎ PvP
; 842  : 	{
; 843  : 		ChangeFame( pLose );

  00029	57		 push	 edi
  0002a	e8 00 00 00 00	 call	 ?ChangeFame@CMover@@QAEXPAV1@@Z ; CMover::ChangeFame

; 844  : 		
; 845  : #ifdef __PVPDEBUFSKILL
; 846  : 		//pLose->m_SkillState.SetMover( pLose );
; 847  : 		pLose->m_nDead = PROCESS_COUNT * 2;		// Áľ·á ČÄ 2ĂĘ°ŁŔş ą«Ŕű
; 848  : 		pLose->RemoveAttackerBuffs( pLose->m_idDuelOther );

  0002f	ff b7 40 07 00
	00		 push	 DWORD PTR [edi+1856]
  00035	8b cf		 mov	 ecx, edi
  00037	c7 87 ac 0d 00
	00 1e 00 00 00	 mov	 DWORD PTR [edi+3500], 30 ; 0000001eH
  00041	e8 00 00 00 00	 call	 ?RemoveAttackerBuffs@CMover@@QAEXK@Z ; CMover::RemoveAttackerBuffs

; 849  : 		//m_SkillState.SetMover( this );
; 850  : 		m_nDead = PROCESS_COUNT * 2;		// Áľ·á ČÄ 2ĂĘ°ŁŔş ą«Ŕű
; 851  : 		RemoveAttackerBuffs( m_idDuelOther );

  00046	ff b6 40 07 00
	00		 push	 DWORD PTR [esi+1856]
  0004c	8b ce		 mov	 ecx, esi
  0004e	c7 86 ac 0d 00
	00 1e 00 00 00	 mov	 DWORD PTR [esi+3500], 30 ; 0000001eH
  00058	e8 00 00 00 00	 call	 ?RemoveAttackerBuffs@CMover@@QAEXK@Z ; CMover::RemoveAttackerBuffs
$LN6@DuelResult:

; 891  : 	}
; 892  : #endif	// __WORLDSERVER
; 893  : 
; 894  : 	return 1;
; 895  : }

  0005d	5f		 pop	 edi
  0005e	5e		 pop	 esi
  0005f	b8 01 00 00 00	 mov	 eax, 1
  00064	5b		 pop	 ebx
  00065	8b e5		 mov	 esp, ebp
  00067	5d		 pop	 ebp
  00068	c2 04 00	 ret	 4
$LN4@DuelResult:

; 852  : #endif // __PVPDEBUFSKILL
; 853  : 	}
; 854  : 	else
; 855  : 	// ±Ř´Ü µŕľó.
; 856  : 	if( pLose->m_nDuel == 2 )		// ±Ř´Ü µŕľóÁßŔĎ¶© ±Ř´ÜŔĺł˘¸®ŔÇ ·ąş§Ŕ» şń±ł.

  0006b	83 f8 02	 cmp	 eax, 2
  0006e	75 ed		 jne	 SHORT $LN6@DuelResult

; 857  : 	{
; 858  : 		int nVal = 0;
; 859  : 		float fVal = 0;
; 860  : 		int nGap = 0;
; 861  : 
; 862  : 		CParty *pLoseParty = g_PartyMng.GetParty( pLose->m_idparty );

  00070	ff b7 10 07 00
	00		 push	 DWORD PTR [edi+1808]
  00076	b9 00 00 00 00	 mov	 ecx, OFFSET ?g_PartyMng@@3VCPartyMng@@A ; g_PartyMng
  0007b	e8 00 00 00 00	 call	 ?GetParty@CPartyMng@@QAEPAVCParty@@K@Z ; CPartyMng::GetParty
  00080	8b d8		 mov	 ebx, eax

; 863  : 		if( pLoseParty == NULL || pLoseParty->IsLeader( pLose->m_idPlayer ) == FALSE )		// ĆÄĆĽ°ˇ ľř°ĹłŞ Á×ŔşłŃŔĚ ´ëŔĺŔĚ ľĆ´Ď¸é °Á ¸®ĹĎ.

  00082	85 db		 test	 ebx, ebx
  00084	0f 84 67 01 00
	00		 je	 $LN8@DuelResult
; File C:\IAGOS\server\v18\Source\Source\_Common\Party.h

; 106  : 	int		IsLeader( u_long uPlayerId )		{	return( m_aMember[0].m_uPlayerId == uPlayerId );	}

  0008a	8b 53 28	 mov	 edx, DWORD PTR [ebx+40]
  0008d	3b 97 34 02 00
	00		 cmp	 edx, DWORD PTR [edi+564]
; File C:\IAGOS\server\v18\Source\Source\_Common\MoverParam.cpp

; 863  : 		if( pLoseParty == NULL || pLoseParty->IsLeader( pLose->m_idPlayer ) == FALSE )		// ĆÄĆĽ°ˇ ľř°ĹłŞ Á×ŔşłŃŔĚ ´ëŔĺŔĚ ľĆ´Ď¸é °Á ¸®ĹĎ.

  00093	0f 85 58 01 00
	00		 jne	 $LN8@DuelResult

; 864  : 			return 0;
; 865  : 		
; 866  : 		CParty *pParty = g_PartyMng.GetParty( m_idparty );		// ŔĚ±äĂř ĆÄĆĽ.

  00099	ff b6 10 07 00
	00		 push	 DWORD PTR [esi+1808]
  0009f	b9 00 00 00 00	 mov	 ecx, OFFSET ?g_PartyMng@@3VCPartyMng@@A ; g_PartyMng
  000a4	e8 00 00 00 00	 call	 ?GetParty@CPartyMng@@QAEPAVCParty@@K@Z ; CPartyMng::GetParty
  000a9	89 45 fc	 mov	 DWORD PTR _pParty$1$[ebp], eax

; 867  : 		if( pParty == NULL )

  000ac	85 c0		 test	 eax, eax
  000ae	0f 84 3d 01 00
	00		 je	 $LN8@DuelResult

; 868  : 			return 0;
; 869  : 
; 870  : 		CMover* pLeader	= pParty->GetLeader();

  000b4	8b c8		 mov	 ecx, eax
  000b6	e8 00 00 00 00	 call	 ?GetLeader@CParty@@QAEPAVCMover@@XZ ; CParty::GetLeader
; File C:\IAGOS\server\v18\Source\Source\_Common\Obj.h

; 327  : 	return pObj && ( pObj->IsDelete() == FALSE ); 

  000bb	85 c0		 test	 eax, eax
  000bd	74 14		 je	 SHORT $LN33@DuelResult

; 180  : 	BOOL			IsDelete()	{ return (m_dwFlags & OBJ_FLAG_DELETE);  }

  000bf	f6 40 04 01	 test	 BYTE PTR [eax+4], 1

; 327  : 	return pObj && ( pObj->IsDelete() == FALSE ); 

  000c3	75 0e		 jne	 SHORT $LN33@DuelResult
  000c5	8b 8f d8 05 00
	00		 mov	 ecx, DWORD PTR [edi+1496]
; File C:\IAGOS\server\v18\Source\Source\_Common\MoverParam.cpp

; 872  : 			nGap	= pLose->GetLevel() - pLeader->GetLevel();

  000cb	2b 88 d8 05 00
	00		 sub	 ecx, DWORD PTR [eax+1496]
  000d1	eb 0c		 jmp	 SHORT $LN11@DuelResult
$LN33@DuelResult:
; File C:\IAGOS\server\v18\Source\Source\_Common\Obj.h

; 327  : 	return pObj && ( pObj->IsDelete() == FALSE ); 

  000d3	8b 8f d8 05 00
	00		 mov	 ecx, DWORD PTR [edi+1496]
; File C:\IAGOS\server\v18\Source\Source\_Common\MoverParam.cpp

; 874  : 			nGap	= pLose->GetLevel() - GetLevel();

  000d9	2b 8e d8 05 00
	00		 sub	 ecx, DWORD PTR [esi+1496]
$LN11@DuelResult:

; 875  : 		
; 876  : 		if( nGap >= 80 )	{ nVal = 100; fVal = 15.0f; }		// ĆĐŔÚ°ˇ ·ąş§ŔĚ ČÎ łôľŇ´Ů.

  000df	83 f9 50	 cmp	 ecx, 80			; 00000050H
  000e2	7c 12		 jl	 SHORT $LN12@DuelResult
  000e4	f3 0f 10 05 00
	00 00 00	 movss	 xmm0, DWORD PTR __real@41700000
  000ec	be 64 00 00 00	 mov	 esi, 100		; 00000064H
  000f1	e9 9c 00 00 00	 jmp	 $LN58@DuelResult
$LN12@DuelResult:

; 877  : 		else if( nGap >= 50 )	{ nVal = 50; fVal = 10.0f; }

  000f6	83 f9 32	 cmp	 ecx, 50			; 00000032H
  000f9	7c 12		 jl	 SHORT $LN14@DuelResult
  000fb	f3 0f 10 05 00
	00 00 00	 movss	 xmm0, DWORD PTR __real@41200000
  00103	be 32 00 00 00	 mov	 esi, 50			; 00000032H
  00108	e9 85 00 00 00	 jmp	 $LN58@DuelResult
$LN14@DuelResult:

; 878  : 		else if( nGap >= 20 )	{ nVal = 30; fVal = 8.0f; }

  0010d	83 f9 14	 cmp	 ecx, 20			; 00000014H
  00110	7c 0f		 jl	 SHORT $LN16@DuelResult
  00112	f3 0f 10 05 00
	00 00 00	 movss	 xmm0, DWORD PTR __real@41000000
  0011a	be 1e 00 00 00	 mov	 esi, 30			; 0000001eH
  0011f	eb 71		 jmp	 SHORT $LN58@DuelResult
$LN16@DuelResult:

; 879  : 		else if( nGap >= 10 )	{ nVal = 10; fVal = 6.0f; }

  00121	83 f9 0a	 cmp	 ecx, 10			; 0000000aH
  00124	7c 0f		 jl	 SHORT $LN18@DuelResult
  00126	f3 0f 10 05 00
	00 00 00	 movss	 xmm0, DWORD PTR __real@40c00000
  0012e	be 0a 00 00 00	 mov	 esi, 10			; 0000000aH
  00133	eb 5d		 jmp	 SHORT $LN58@DuelResult
$LN18@DuelResult:

; 880  : 		else if( nGap <= -80 )	{ nVal = 1; fVal = 1.0f; }		// ĆĐŔÚ°ˇ ·ąş§ŔĚ ČÎ ł·ľŇ´Ů.

  00135	83 f9 b0	 cmp	 ecx, -80		; ffffffb0H
  00138	7f 0f		 jg	 SHORT $LN20@DuelResult
  0013a	f3 0f 10 05 00
	00 00 00	 movss	 xmm0, DWORD PTR __real@3f800000
  00142	be 01 00 00 00	 mov	 esi, 1
  00147	eb 49		 jmp	 SHORT $LN58@DuelResult
$LN20@DuelResult:

; 881  : 		else if( nGap <= -50 )	{ nVal = 2; fVal = 2.0f; }

  00149	83 f9 ce	 cmp	 ecx, -50		; ffffffceH
  0014c	7f 0f		 jg	 SHORT $LN22@DuelResult
  0014e	f3 0f 10 05 00
	00 00 00	 movss	 xmm0, DWORD PTR __real@40000000
  00156	be 02 00 00 00	 mov	 esi, 2
  0015b	eb 35		 jmp	 SHORT $LN58@DuelResult
$LN22@DuelResult:

; 882  : 		else if( nGap <= -20 )	{ nVal = 3; fVal = 3.0f; }

  0015d	83 f9 ec	 cmp	 ecx, -20		; ffffffecH
  00160	7f 0f		 jg	 SHORT $LN24@DuelResult
  00162	f3 0f 10 05 00
	00 00 00	 movss	 xmm0, DWORD PTR __real@40400000
  0016a	be 03 00 00 00	 mov	 esi, 3
  0016f	eb 21		 jmp	 SHORT $LN58@DuelResult
$LN24@DuelResult:

; 883  : 		else if( nGap <= -10 )	{ nVal = 4; fVal = 4.0f; }

  00171	83 f9 f6	 cmp	 ecx, -10		; fffffff6H
  00174	7f 0f		 jg	 SHORT $LN26@DuelResult
  00176	f3 0f 10 05 00
	00 00 00	 movss	 xmm0, DWORD PTR __real@40800000
  0017e	be 04 00 00 00	 mov	 esi, 4
  00183	eb 0d		 jmp	 SHORT $LN58@DuelResult
$LN26@DuelResult:

; 884  : 		else { nVal = 5; fVal = 5.0f; }	// 9 ~ -9

  00185	f3 0f 10 05 00
	00 00 00	 movss	 xmm0, DWORD PTR __real@40a00000
  0018d	be 05 00 00 00	 mov	 esi, 5
$LN58@DuelResult:

; 885  : 
; 886  : 		g_DPCoreClient.SendSetPartyDuel( pParty->m_uPartyId, pLoseParty->m_uPartyId, FALSE );

  00192	8b 45 fc	 mov	 eax, DWORD PTR _pParty$1$[ebp]
  00195	b9 00 00 00 00	 mov	 ecx, OFFSET ?g_DPCoreClient@@3VCDPCoreClient@@A ; g_DPCoreClient
  0019a	6a 00		 push	 0
  0019c	ff 33		 push	 DWORD PTR [ebx]
  0019e	f3 0f 11 45 08	 movss	 DWORD PTR _fVal$1$[ebp], xmm0
  001a3	ff 30		 push	 DWORD PTR [eax]
  001a5	e8 00 00 00 00	 call	 ?SendSetPartyDuel@CDPCoreClient@@QAEXKKH@Z ; CDPCoreClient::SendSetPartyDuel

; 887  : 
; 888  : 		pLose->m_bLastDuelParty = TRUE;
; 889  : 		pLoseParty->DoDuelResult( pParty, 0, nVal, fVal );		// ĆÄĆĽżřµéżˇ°Ô ĆĐąč»ç˝ÇŔ» ľË¸®°í µŕľó ÁßÁö˝ĂĹ´.

  001aa	f3 0f 10 45 08	 movss	 xmm0, DWORD PTR _fVal$1$[ebp]
  001af	51		 push	 ecx
  001b0	f3 0f 11 04 24	 movss	 DWORD PTR [esp], xmm0
  001b5	8b cb		 mov	 ecx, ebx
  001b7	56		 push	 esi
  001b8	c7 87 f4 0d 00
	00 01 00 00 00	 mov	 DWORD PTR [edi+3572], 1
  001c2	8b 7d fc	 mov	 edi, DWORD PTR _pParty$1$[ebp]
  001c5	6a 00		 push	 0
  001c7	57		 push	 edi
  001c8	e8 00 00 00 00	 call	 ?DoDuelResult@CParty@@QAEXPAV1@HHM@Z ; CParty::DoDuelResult

; 890  : 		pParty->DoDuelResult( pLoseParty, 1, nVal, fVal );		// ĆÄĆĽżřµéżˇ°Ô ˝Â¸®¸¦ ľË¸˛.

  001cd	f3 0f 10 45 08	 movss	 xmm0, DWORD PTR _fVal$1$[ebp]
  001d2	51		 push	 ecx
  001d3	f3 0f 11 04 24	 movss	 DWORD PTR [esp], xmm0
  001d8	8b cf		 mov	 ecx, edi
  001da	56		 push	 esi
  001db	6a 01		 push	 1
  001dd	53		 push	 ebx
  001de	e8 00 00 00 00	 call	 ?DoDuelResult@CParty@@QAEXPAV1@HHM@Z ; CParty::DoDuelResult
  001e3	5f		 pop	 edi

; 891  : 	}
; 892  : #endif	// __WORLDSERVER
; 893  : 
; 894  : 	return 1;
; 895  : }

  001e4	5e		 pop	 esi
  001e5	b8 01 00 00 00	 mov	 eax, 1
  001ea	5b		 pop	 ebx
  001eb	8b e5		 mov	 esp, ebp
  001ed	5d		 pop	 ebp
  001ee	c2 04 00	 ret	 4
$LN8@DuelResult:
  001f1	5f		 pop	 edi
  001f2	5e		 pop	 esi
  001f3	33 c0		 xor	 eax, eax
  001f5	5b		 pop	 ebx
  001f6	8b e5		 mov	 esp, ebp
  001f8	5d		 pop	 ebp
  001f9	c2 04 00	 ret	 4
?DuelResult@CMover@@QAEHPAV1@@Z ENDP			; CMover::DuelResult
_TEXT	ENDS
; Function compile flags: /Ogtp
; File C:\IAGOS\server\v18\Source\Source\_Common\MoverParam.cpp
;	COMDAT ?ChangeFame@CMover@@QAEXPAV1@@Z
_TEXT	SEGMENT
_pLose$ = 8						; size = 4
_nDecVal$2$ = 8						; size = 4
_fVal$1$ = 8						; size = 4
?ChangeFame@CMover@@QAEXPAV1@@Z PROC			; CMover::ChangeFame, COMDAT
; _this$ = ecx

; 775  : {

  00000	55		 push	 ebp
  00001	8b ec		 mov	 ebp, esp
  00003	53		 push	 ebx
  00004	56		 push	 esi
  00005	57		 push	 edi

; 776  : 	int nVal = 0;
; 777  : 	float fVal = 0;
; 778  : 	int nGap = 0;
; 779  : 
; 780  : 	nGap = pLose->GetLevel() - GetLevel();		// ĆĐŔÚżÍ ˝ÂŔÚŔÇ ·ąş§Â÷ŔĚ

  00006	8b 7d 08	 mov	 edi, DWORD PTR _pLose$[ebp]
  00009	8b d9		 mov	 ebx, ecx
  0000b	8b 87 d8 05 00
	00		 mov	 eax, DWORD PTR [edi+1496]
  00011	2b 83 d8 05 00
	00		 sub	 eax, DWORD PTR [ebx+1496]

; 781  : 
; 782  : 	if( nGap >= 80 )	    { nVal = 100; fVal = 15.0f; }	// ĆĐŔÚ°ˇ ·ąş§ŔĚ ČÎ łôľŇ´Ů.

  00017	83 f8 50	 cmp	 eax, 80			; 00000050H
  0001a	7c 12		 jl	 SHORT $LN2@ChangeFame
  0001c	f3 0f 10 05 00
	00 00 00	 movss	 xmm0, DWORD PTR __real@41700000
  00024	be 64 00 00 00	 mov	 esi, 100		; 00000064H
  00029	e9 9c 00 00 00	 jmp	 $LN44@ChangeFame
$LN2@ChangeFame:

; 783  : 	else if( nGap >= 30 )	{ nVal = 50;  fVal = 10.0f; }

  0002e	83 f8 1e	 cmp	 eax, 30			; 0000001eH
  00031	7c 12		 jl	 SHORT $LN4@ChangeFame
  00033	f3 0f 10 05 00
	00 00 00	 movss	 xmm0, DWORD PTR __real@41200000
  0003b	be 32 00 00 00	 mov	 esi, 50			; 00000032H
  00040	e9 85 00 00 00	 jmp	 $LN44@ChangeFame
$LN4@ChangeFame:

; 784  : 	else if( nGap >= 20 )	{ nVal = 30;  fVal = 8.0f;  }

  00045	83 f8 14	 cmp	 eax, 20			; 00000014H
  00048	7c 0f		 jl	 SHORT $LN6@ChangeFame
  0004a	f3 0f 10 05 00
	00 00 00	 movss	 xmm0, DWORD PTR __real@41000000
  00052	be 1e 00 00 00	 mov	 esi, 30			; 0000001eH
  00057	eb 71		 jmp	 SHORT $LN44@ChangeFame
$LN6@ChangeFame:

; 785  : 	else if( nGap >= 10 )	{ nVal = 10;  fVal = 6.0f;  }

  00059	83 f8 0a	 cmp	 eax, 10			; 0000000aH
  0005c	7c 0f		 jl	 SHORT $LN8@ChangeFame
  0005e	f3 0f 10 05 00
	00 00 00	 movss	 xmm0, DWORD PTR __real@40c00000
  00066	be 0a 00 00 00	 mov	 esi, 10			; 0000000aH
  0006b	eb 5d		 jmp	 SHORT $LN44@ChangeFame
$LN8@ChangeFame:

; 786  : 	else if( nGap <= -80 )	{ nVal = 1;   fVal = 1.0f;  }	// ĆĐŔÚ°ˇ ·ąş§ŔĚ ČÎ ł·ľŇ´Ů.

  0006d	83 f8 b0	 cmp	 eax, -80		; ffffffb0H
  00070	7f 0f		 jg	 SHORT $LN10@ChangeFame
  00072	f3 0f 10 05 00
	00 00 00	 movss	 xmm0, DWORD PTR __real@3f800000
  0007a	be 01 00 00 00	 mov	 esi, 1
  0007f	eb 49		 jmp	 SHORT $LN44@ChangeFame
$LN10@ChangeFame:

; 787  : 	else if( nGap <= -30 )	{ nVal = 2;   fVal = 2.0f;  }

  00081	83 f8 e2	 cmp	 eax, -30		; ffffffe2H
  00084	7f 0f		 jg	 SHORT $LN12@ChangeFame
  00086	f3 0f 10 05 00
	00 00 00	 movss	 xmm0, DWORD PTR __real@40000000
  0008e	be 02 00 00 00	 mov	 esi, 2
  00093	eb 35		 jmp	 SHORT $LN44@ChangeFame
$LN12@ChangeFame:

; 788  : 	else if( nGap <= -20 )	{ nVal = 3;   fVal = 3.0f;  }

  00095	83 f8 ec	 cmp	 eax, -20		; ffffffecH
  00098	7f 0f		 jg	 SHORT $LN14@ChangeFame
  0009a	f3 0f 10 05 00
	00 00 00	 movss	 xmm0, DWORD PTR __real@40400000
  000a2	be 03 00 00 00	 mov	 esi, 3
  000a7	eb 21		 jmp	 SHORT $LN44@ChangeFame
$LN14@ChangeFame:

; 789  : 	else if( nGap <= -10 )	{ nVal = 4;   fVal = 4.0f;  }

  000a9	83 f8 f6	 cmp	 eax, -10		; fffffff6H
  000ac	7f 0f		 jg	 SHORT $LN16@ChangeFame
  000ae	f3 0f 10 05 00
	00 00 00	 movss	 xmm0, DWORD PTR __real@40800000
  000b6	be 04 00 00 00	 mov	 esi, 4
  000bb	eb 0d		 jmp	 SHORT $LN44@ChangeFame
$LN16@ChangeFame:

; 790  : 	else                    { nVal = 5;   fVal = 5.0f;  }	// 9 ~ -9

  000bd	f3 0f 10 05 00
	00 00 00	 movss	 xmm0, DWORD PTR __real@40a00000
  000c5	be 05 00 00 00	 mov	 esi, 5
$LN44@ChangeFame:

; 791  : 
; 792  : 
; 793  : 	if( nVal )		// ˝ÂŔÚżˇ°Ô ¸íĽşÄˇ ÁÜ
; 794  : 	{	
; 795  : 		if( this->IsFly() && pLose->IsFly() )	// °řÁß µŕľóŔÇ °ćżěżˇ´Â ĆĐąč˝Ă »ó˝ÇÇĎ´Â ¸íĽş Ć÷ŔÎĆ®´Â µżŔĎÇĎÁö¸¸, ˝Â¸® ˝Ă ČąµćÇĎ´Â ¸íĽşĆ÷ŔÎĆ®´Â Áö»ó ŔüĹőżˇ 2ąč·Î ÇŃ´Ů

  000ca	8b 83 38 02 00
	00		 mov	 eax, DWORD PTR [ebx+568]
  000d0	f3 0f 11 45 08	 movss	 DWORD PTR _fVal$1$[ebp], xmm0
  000d5	f6 40 08 08	 test	 BYTE PTR [eax+8], 8
  000d9	74 0e		 je	 SHORT $LN19@ChangeFame
  000db	8b 87 38 02 00
	00		 mov	 eax, DWORD PTR [edi+568]
  000e1	f6 40 08 08	 test	 BYTE PTR [eax+8], 8
  000e5	74 02		 je	 SHORT $LN19@ChangeFame

; 796  : 			nVal *= 2;

  000e7	03 f6		 add	 esi, esi
$LN19@ChangeFame:

; 797  : 			
; 798  : 		m_nFame += nVal;	

  000e9	01 b3 48 07 00
	00		 add	 DWORD PTR [ebx+1864], esi

; 799  : 		g_UserMng.AddSetFame( this, m_nFame );

  000ef	b9 00 00 00 00	 mov	 ecx, OFFSET ?g_UserMng@@3VCUserMng@@A ; g_UserMng
  000f4	ff b3 48 07 00
	00		 push	 DWORD PTR [ebx+1864]
  000fa	53		 push	 ebx
  000fb	e8 00 00 00 00	 call	 ?AddSetFame@CUserMng@@QAEXPAVCMover@@H@Z ; CUserMng::AddSetFame

; 800  : 		((CUser*)this)->AddDefinedText( TID_GAME_GETFAMEPOINT, "%d", nVal );	// xxx ¸íĽş Ć÷ŔÎĆ®¸¦ ľňľú´Ů

  00100	56		 push	 esi
  00101	68 00 00 00 00	 push	 OFFSET ??_C@_02DPKJAMEF@?$CFd@
  00106	68 9c 03 00 00	 push	 924			; 0000039cH
  0010b	53		 push	 ebx
  0010c	e8 00 00 00 00	 call	 ?AddDefinedText@CUser@@QAAXHPBDZZ ; CUser::AddDefinedText
  00111	83 c4 10	 add	 esp, 16			; 00000010H

; 801  : #if __VER >= 13 // __HONORABLE_TITLE			// ´ŢŔÎ
; 802  : 		((CUser*)this)->CheckHonorStat();

  00114	8b cb		 mov	 ecx, ebx
  00116	e8 00 00 00 00	 call	 ?CheckHonorStat@CMover@@QAEXXZ ; CMover::CheckHonorStat

; 803  : 		((CUser*)this)->AddHonorListAck();

  0011b	8b cb		 mov	 ecx, ebx
  0011d	e8 00 00 00 00	 call	 ?AddHonorListAck@CUser@@QAEXXZ ; CUser::AddHonorListAck

; 804  : 		g_UserMng.AddHonorTitleChange( this, m_nHonor);

  00122	ff b3 70 08 00
	00		 push	 DWORD PTR [ebx+2160]
  00128	b9 00 00 00 00	 mov	 ecx, OFFSET ?g_UserMng@@3VCUserMng@@A ; g_UserMng
  0012d	53		 push	 ebx
  0012e	e8 00 00 00 00	 call	 ?AddHonorTitleChange@CUserMng@@QAEXPAVCMover@@H@Z ; CUserMng::AddHonorTitleChange

; 805  : #endif	// __HONORABLE_TITLE			// ´ŢŔÎ
; 806  : 	}
; 807  : 	
; 808  : 	if( fVal )	// ĆĐŔÚŔÇ ¸íĽşÄˇ(ĆŰĽľĆ®)¸¦ ±đŔ˝.

  00133	f3 0f 10 4d 08	 movss	 xmm1, DWORD PTR _fVal$1$[ebp]
  00138	0f 2e 0d 00 00
	00 00		 ucomiss xmm1, DWORD PTR __real@00000000
  0013f	9f		 lahf
  00140	f6 c4 44	 test	 ah, 68			; 00000044H
  00143	0f 8b 90 00 00
	00		 jnp	 $LN20@ChangeFame

; 809  : 	{
; 810  : 		int		nDecVal;
; 811  : 		fVal = fVal / 100.0f;	// şńŔ˛·Î ČŻ»ę.

  00149	f3 0f 5e 0d 00
	00 00 00	 divss	 xmm1, DWORD PTR __real@42c80000

; 812  : 		nDecVal = (int)(pLose->m_nFame * fVal);

  00151	8b 87 48 07 00
	00		 mov	 eax, DWORD PTR [edi+1864]

; 813  : 		if( nDecVal <= 0 )	nDecVal = 1;

  00157	ba 01 00 00 00	 mov	 edx, 1
  0015c	66 0f 6e c0	 movd	 xmm0, eax
  00160	0f 5b c0	 cvtdq2ps xmm0, xmm0
  00163	f3 0f 59 c8	 mulss	 xmm1, xmm0
  00167	f3 0f 2c c9	 cvttss2si ecx, xmm1
  0016b	85 c9		 test	 ecx, ecx
  0016d	0f 4e ca	 cmovle	 ecx, edx

; 814  : 		pLose->m_nFame -= nDecVal;

  00170	2b c1		 sub	 eax, ecx
  00172	89 4d 08	 mov	 DWORD PTR _nDecVal$2$[ebp], ecx
  00175	89 87 48 07 00
	00		 mov	 DWORD PTR [edi+1864], eax

; 815  : 		if( pLose->m_nFame < 0 )

  0017b	79 0c		 jns	 SHORT $LN22@ChangeFame

; 816  : 			pLose->m_nFame = 0;

  0017d	c7 87 48 07 00
	00 00 00 00 00	 mov	 DWORD PTR [edi+1864], 0
  00187	33 c0		 xor	 eax, eax
$LN22@ChangeFame:

; 817  : 
; 818  : 		g_UserMng.AddSetFame( pLose, pLose->m_nFame );

  00189	50		 push	 eax
  0018a	57		 push	 edi
  0018b	b9 00 00 00 00	 mov	 ecx, OFFSET ?g_UserMng@@3VCUserMng@@A ; g_UserMng
  00190	e8 00 00 00 00	 call	 ?AddSetFame@CUserMng@@QAEXPAVCMover@@H@Z ; CUserMng::AddSetFame

; 819  : 		((CUser*)pLose)->AddDefinedText( TID_GAME_DECFAMEPOINT, "%d", nDecVal );	// xxx ¸íĽş Ć÷ŔÎĆ®°ˇ °¨ĽŇ.

  00195	ff 75 08	 push	 DWORD PTR _nDecVal$2$[ebp]
  00198	68 00 00 00 00	 push	 OFFSET ??_C@_02DPKJAMEF@?$CFd@
  0019d	68 9d 03 00 00	 push	 925			; 0000039dH
  001a2	57		 push	 edi
  001a3	e8 00 00 00 00	 call	 ?AddDefinedText@CUser@@QAAXHPBDZZ ; CUser::AddDefinedText
  001a8	83 c4 10	 add	 esp, 16			; 00000010H

; 820  : 		g_dpDBClient.SendLogPkPvp( this, pLose, nVal, 'D' );

  001ab	b9 00 00 00 00	 mov	 ecx, OFFSET ?g_dpDBClient@@3VCDPDatabaseClient@@A ; g_dpDBClient
  001b0	6a 44		 push	 68			; 00000044H
  001b2	56		 push	 esi
  001b3	57		 push	 edi
  001b4	53		 push	 ebx
  001b5	e8 00 00 00 00	 call	 ?SendLogPkPvp@CDPDatabaseClient@@QAEXPAVCMover@@0HD@Z ; CDPDatabaseClient::SendLogPkPvp

; 821  : #if __VER >= 13 // __HONORABLE_TITLE			// ´ŢŔÎ
; 822  : 		((CUser*)pLose)->CheckHonorStat();

  001ba	8b cf		 mov	 ecx, edi
  001bc	e8 00 00 00 00	 call	 ?CheckHonorStat@CMover@@QAEXXZ ; CMover::CheckHonorStat

; 823  : 		((CUser*)pLose)->AddHonorListAck();

  001c1	8b cf		 mov	 ecx, edi
  001c3	e8 00 00 00 00	 call	 ?AddHonorListAck@CUser@@QAEXXZ ; CUser::AddHonorListAck

; 824  : 		g_UserMng.AddHonorTitleChange( pLose, pLose->m_nHonor);

  001c8	ff b7 70 08 00
	00		 push	 DWORD PTR [edi+2160]
  001ce	b9 00 00 00 00	 mov	 ecx, OFFSET ?g_UserMng@@3VCUserMng@@A ; g_UserMng
  001d3	57		 push	 edi
  001d4	e8 00 00 00 00	 call	 ?AddHonorTitleChange@CUserMng@@QAEXPAVCMover@@H@Z ; CUserMng::AddHonorTitleChange
$LN20@ChangeFame:

; 825  : #endif	// __HONORABLE_TITLE			// ´ŢŔÎ
; 826  : 	}
; 827  : }

  001d9	5f		 pop	 edi
  001da	5e		 pop	 esi
  001db	5b		 pop	 ebx
  001dc	5d		 pop	 ebp
  001dd	c2 04 00	 ret	 4
?ChangeFame@CMover@@QAEXPAV1@@Z ENDP			; CMover::ChangeFame
_TEXT	ENDS
; Function compile flags: /Ogtp
; File C:\IAGOS\server\v18\Source\Source\_Common\MoverParam.cpp
; File C:\IAGOS\server\v18\Source\Source\_Common\Obj.h
; File C:\IAGOS\server\v18\Source\Source\_Common\MoverParam.cpp
;	COMDAT ?OnTradeRemoveUser@CMover@@QAEXXZ
_TEXT	SEGMENT
?OnTradeRemoveUser@CMover@@QAEXXZ PROC			; CMover::OnTradeRemoveUser, COMDAT
; _this$ = ecx

; 3836 : {

  00000	56		 push	 esi
  00001	8b f1		 mov	 esi, ecx

; 3837 : 	if( IsPlayer() )

  00003	83 be 30 02 00
	00 00		 cmp	 DWORD PTR [esi+560], 0
  0000a	74 46		 je	 SHORT $LN2@OnTradeRem

; 3838 : 	{
; 3839 : 		CMover* pOther = m_vtInfo.GetOther();

  0000c	57		 push	 edi
  0000d	8d 8e 98 0c 00
	00		 lea	 ecx, DWORD PTR [esi+3224]
  00013	e8 00 00 00 00	 call	 ?GetOther@CVTInfo@@QAEPAVCMover@@XZ ; CVTInfo::GetOther
; File C:\IAGOS\server\v18\Source\Source\_Common\Obj.h

; 327  : 	return pObj && ( pObj->IsDelete() == FALSE ); 

  00018	85 c0		 test	 eax, eax
  0001a	74 29		 je	 SHORT $LN4@OnTradeRem

; 180  : 	BOOL			IsDelete()	{ return (m_dwFlags & OBJ_FLAG_DELETE);  }

  0001c	f6 40 04 01	 test	 BYTE PTR [eax+4], 1

; 327  : 	return pObj && ( pObj->IsDelete() == FALSE ); 

  00020	75 23		 jne	 SHORT $LN4@OnTradeRem
; File C:\IAGOS\server\v18\Source\Source\_Common\MoverParam.cpp

; 3840 : 		if( IsValidObj( pOther ) && pOther->IsPlayer() )

  00022	83 b8 30 02 00
	00 00		 cmp	 DWORD PTR [eax+560], 0
  00029	74 1a		 je	 SHORT $LN4@OnTradeRem

; 3841 : 		{	
; 3842 : 			if( pOther->m_vtInfo.GetOther() == this )

  0002b	53		 push	 ebx
  0002c	8d 98 98 0c 00
	00		 lea	 ebx, DWORD PTR [eax+3224]
  00032	8b cb		 mov	 ecx, ebx
  00034	e8 00 00 00 00	 call	 ?GetOther@CVTInfo@@QAEPAVCMover@@XZ ; CVTInfo::GetOther
  00039	3b c6		 cmp	 eax, esi
  0003b	75 07		 jne	 SHORT $LN18@OnTradeRem

; 3843 : 			{
; 3844 : 				pOther->m_vtInfo.TradeClear();

  0003d	8b cb		 mov	 ecx, ebx
  0003f	e8 00 00 00 00	 call	 ?TradeClear@CVTInfo@@QAEXXZ ; CVTInfo::TradeClear
$LN18@OnTradeRem:
  00044	5b		 pop	 ebx
$LN4@OnTradeRem:

; 3845 : 			}
; 3846 : 		}
; 3847 : 		m_vtInfo.TradeClear();

  00045	5f		 pop	 edi
  00046	8d 8e 98 0c 00
	00		 lea	 ecx, DWORD PTR [esi+3224]
  0004c	5e		 pop	 esi
  0004d	e9 00 00 00 00	 jmp	 ?TradeClear@CVTInfo@@QAEXXZ ; CVTInfo::TradeClear
$LN2@OnTradeRem:
  00052	5e		 pop	 esi

; 3848 : 	}
; 3849 : }

  00053	c3		 ret	 0
?OnTradeRemoveUser@CMover@@QAEXXZ ENDP			; CMover::OnTradeRemoveUser
_TEXT	ENDS
; Function compile flags: /Ogtp
; File C:\IAGOS\server\v18\Source\Source\_Common\MoverParam.cpp
;	COMDAT ?RemoveAllItem@CMover@@QAEHK@Z
_TEXT	SEGMENT
tv154 = -8						; size = 4
_this$1$ = -4						; size = 4
_dwItemId$ = 8						; size = 4
?RemoveAllItem@CMover@@QAEHK@Z PROC			; CMover::RemoveAllItem, COMDAT
; _this$ = ecx

; 3819 : {

  00000	55		 push	 ebp
  00001	8b ec		 mov	 ebp, esp
  00003	83 ec 08	 sub	 esp, 8
  00006	53		 push	 ebx
  00007	8b c1		 mov	 eax, ecx
  00009	56		 push	 esi
  0000a	57		 push	 edi

; 3820 : 	int nNum = 0;

  0000b	33 ff		 xor	 edi, edi
  0000d	89 45 fc	 mov	 DWORD PTR _this$1$[ebp], eax

; 3821 : 	int	nSize	= m_Inventory.GetMax();

  00010	8b 98 08 0b 00
	00		 mov	 ebx, DWORD PTR [eax+2824]
  00016	33 f6		 xor	 esi, esi

; 3822 : 
; 3823 : 	for( int i = 0 ; i < nSize; ++i )

  00018	85 db		 test	 ebx, ebx
  0001a	7e 39		 jle	 SHORT $LN11@RemoveAllI
  0001c	05 fc 0a 00 00	 add	 eax, 2812		; 00000afcH
  00021	89 45 f8	 mov	 DWORD PTR tv154[ebp], eax
$LL4@RemoveAllI:

; 3824 : 	{
; 3825 : 		CItemElem* pItemElem = m_Inventory.GetAtId( i );

  00024	56		 push	 esi
  00025	8b c8		 mov	 ecx, eax
  00027	e8 00 00 00 00	 call	 ?GetAtId@?$CItemContainer@VCItemElem@@@@QAEPAVCItemElem@@K@Z ; CItemContainer<CItemElem>::GetAtId

; 3826 : 		if( pItemElem && pItemElem->m_dwItemId == dwItemId )

  0002c	85 c0		 test	 eax, eax
  0002e	74 1d		 je	 SHORT $LN2@RemoveAllI
  00030	8b 4d 08	 mov	 ecx, DWORD PTR _dwItemId$[ebp]
  00033	39 48 0c	 cmp	 DWORD PTR [eax+12], ecx
  00036	75 15		 jne	 SHORT $LN2@RemoveAllI

; 3827 : 		{
; 3828 : 			nNum += pItemElem->m_nItemNum;

  00038	0f bf 40 74	 movsx	 eax, WORD PTR [eax+116]

; 3829 : 			UpdateItem( i, UI_NUM, 0 );		// remove

  0003c	8b 4d fc	 mov	 ecx, DWORD PTR _this$1$[ebp]
  0003f	03 f8		 add	 edi, eax
  00041	6a 00		 push	 0
  00043	6a 00		 push	 0
  00045	6a 00		 push	 0
  00047	56		 push	 esi
  00048	e8 00 00 00 00	 call	 ?UpdateItem@CMover@@QAEXEDKK@Z ; CMover::UpdateItem
$LN2@RemoveAllI:

; 3822 : 
; 3823 : 	for( int i = 0 ; i < nSize; ++i )

  0004d	8b 45 f8	 mov	 eax, DWORD PTR tv154[ebp]
  00050	46		 inc	 esi
  00051	3b f3		 cmp	 esi, ebx
  00053	7c cf		 jl	 SHORT $LL4@RemoveAllI
$LN11@RemoveAllI:

; 3830 : 		}
; 3831 : 	}
; 3832 : 	return nNum;
; 3833 : }

  00055	8b c7		 mov	 eax, edi
  00057	5f		 pop	 edi
  00058	5e		 pop	 esi
  00059	5b		 pop	 ebx
  0005a	8b e5		 mov	 esp, ebp
  0005c	5d		 pop	 ebp
  0005d	c2 04 00	 ret	 4
?RemoveAllItem@CMover@@QAEHK@Z ENDP			; CMover::RemoveAllItem
_TEXT	ENDS
; Function compile flags: /Ogtp
; File C:\IAGOS\server\v18\Source\Source\_Common\MoverParam.cpp
;	COMDAT ?GetItemNum@CMover@@QAEHK@Z
_TEXT	SEGMENT
tv151 = -8						; size = 4
_nSize$1$ = -4						; size = 4
_dwItemId$ = 8						; size = 4
?GetItemNum@CMover@@QAEHK@Z PROC			; CMover::GetItemNum, COMDAT
; _this$ = ecx

; 3744 : {

  00000	55		 push	 ebp
  00001	8b ec		 mov	 ebp, esp
  00003	83 ec 08	 sub	 esp, 8

; 3745 : 	int nNum	= 0;
; 3746 : 	int nSize	= m_Inventory.GetMax();

  00006	8b 81 08 0b 00
	00		 mov	 eax, DWORD PTR [ecx+2824]
  0000c	53		 push	 ebx
  0000d	56		 push	 esi
  0000e	57		 push	 edi
  0000f	33 db		 xor	 ebx, ebx
  00011	89 45 fc	 mov	 DWORD PTR _nSize$1$[ebp], eax

; 3747 : 	CItemElem* pItemElem;
; 3748 : 	for( int i = 0 ; i < nSize; i++ )

  00014	33 ff		 xor	 edi, edi
  00016	85 c0		 test	 eax, eax
  00018	7e 48		 jle	 SHORT $LN12@GetItemNum
  0001a	8d 81 fc 0a 00
	00		 lea	 eax, DWORD PTR [ecx+2812]
  00020	89 45 f8	 mov	 DWORD PTR tv151[ebp], eax
$LL4@GetItemNum:

; 3749 : 	{
; 3750 : 		pItemElem	= m_Inventory.GetAtId( i );

  00023	57		 push	 edi
  00024	8b c8		 mov	 ecx, eax
  00026	e8 00 00 00 00	 call	 ?GetAtId@?$CItemContainer@VCItemElem@@@@QAEPAVCItemElem@@K@Z ; CItemContainer<CItemElem>::GetAtId
  0002b	8b f0		 mov	 esi, eax

; 3751 : 		if( pItemElem )

  0002d	85 f6		 test	 esi, esi
  0002f	74 1b		 je	 SHORT $LN2@GetItemNum

; 3752 : 		{
; 3753 : 			//raiders.06.05.02 (prevent abuse quest ending condition : trade & quest )
; 3754 : 			if( IsUsableItem( pItemElem ) == FALSE )

  00031	56		 push	 esi
  00032	e8 00 00 00 00	 call	 ?IsUsableItem@@YAHPAVCItemBase@@@Z ; IsUsableItem
  00037	83 c4 04	 add	 esp, 4
  0003a	85 c0		 test	 eax, eax
  0003c	74 19		 je	 SHORT $LN10@GetItemNum

; 3755 : 				return 0;
; 3756 : 			if( pItemElem->m_dwItemId == dwItemId )

  0003e	8b 45 08	 mov	 eax, DWORD PTR _dwItemId$[ebp]
  00041	39 46 0c	 cmp	 DWORD PTR [esi+12], eax
  00044	75 06		 jne	 SHORT $LN2@GetItemNum

; 3757 : 				nNum	+= pItemElem->m_nItemNum;

  00046	0f bf 46 74	 movsx	 eax, WORD PTR [esi+116]
  0004a	03 d8		 add	 ebx, eax
$LN2@GetItemNum:

; 3747 : 	CItemElem* pItemElem;
; 3748 : 	for( int i = 0 ; i < nSize; i++ )

  0004c	47		 inc	 edi
  0004d	3b 7d fc	 cmp	 edi, DWORD PTR _nSize$1$[ebp]
  00050	7d 10		 jge	 SHORT $LN12@GetItemNum
  00052	8b 45 f8	 mov	 eax, DWORD PTR tv151[ebp]
  00055	eb cc		 jmp	 SHORT $LL4@GetItemNum
$LN10@GetItemNum:
  00057	5f		 pop	 edi

; 3758 : 		}
; 3759 : 	}
; 3760 : 	return nNum;
; 3761 : }

  00058	5e		 pop	 esi
  00059	33 c0		 xor	 eax, eax
  0005b	5b		 pop	 ebx
  0005c	8b e5		 mov	 esp, ebp
  0005e	5d		 pop	 ebp
  0005f	c2 04 00	 ret	 4
$LN12@GetItemNum:
  00062	5f		 pop	 edi
  00063	5e		 pop	 esi
  00064	8b c3		 mov	 eax, ebx
  00066	5b		 pop	 ebx
  00067	8b e5		 mov	 esp, ebp
  00069	5d		 pop	 ebp
  0006a	c2 04 00	 ret	 4
?GetItemNum@CMover@@QAEHK@Z ENDP			; CMover::GetItemNum
_TEXT	ENDS
; Function compile flags: /Ogtp
; File C:\IAGOS\server\v18\Source\Source\_Common\MoverParam.cpp
;	COMDAT ?UpdateItemEx@CMover@@QAEXED_J@Z
_TEXT	SEGMENT
_id$ = 8						; size = 1
_cParam$ = 12						; size = 1
_iValue$ = 16						; size = 8
?UpdateItemEx@CMover@@QAEXED_J@Z PROC			; CMover::UpdateItemEx, COMDAT
; _this$ = ecx

; 3966 : {

  00000	55		 push	 ebp
  00001	8b ec		 mov	 ebp, esp
  00003	53		 push	 ebx

; 3967 : 	CItemElem* pItemElem = (CItemElem*)GetItemId( id );

  00004	8b 5d 08	 mov	 ebx, DWORD PTR _id$[ebp]
  00007	56		 push	 esi
  00008	57		 push	 edi
  00009	0f b6 c3	 movzx	 eax, bl
  0000c	8b f1		 mov	 esi, ecx
  0000e	50		 push	 eax
  0000f	e8 00 00 00 00	 call	 ?GetItemId@CMover@@QAEPAVCItemBase@@K@Z ; CMover::GetItemId

; 3968 : 
; 3969 : 	if( pItemElem )

  00014	8b 55 14	 mov	 edx, DWORD PTR _iValue$[ebp+4]
  00017	8b 7d 10	 mov	 edi, DWORD PTR _iValue$[ebp]
  0001a	8b 4d 0c	 mov	 ecx, DWORD PTR _cParam$[ebp]
  0001d	85 c0		 test	 eax, eax
  0001f	74 11		 je	 SHORT $LN6@UpdateItem

; 3970 : 	{
; 3971 : 		switch( cParam )

  00021	80 f9 0a	 cmp	 cl, 10			; 0000000aH
  00024	75 0c		 jne	 SHORT $LN6@UpdateItem

; 3972 : 		{
; 3973 : 			case UI_RANDOMOPTITEMID:
; 3974 : 				{
; 3975 : 					pItemElem->SetRandomOptItemId( iValue );

  00026	89 b8 90 00 00
	00		 mov	 DWORD PTR [eax+144], edi
  0002c	89 90 94 00 00
	00		 mov	 DWORD PTR [eax+148], edx
$LN6@UpdateItem:

; 3976 : 					break;
; 3977 : 				}
; 3978 : 			default:
; 3979 : 				break;
; 3980 : 		}
; 3981 : #ifdef __CLIENT
; 3982 : 		CWndInventory* pWnd		= (CWndInventory*)g_WndMng.GetWndBase( APP_INVENTORY );
; 3983 : 		if( pWnd )
; 3984 : 			pWnd->UpdateTooltip();
; 3985 : #endif	// __CLIENT
; 3986 : 	}
; 3987 : #ifdef __WORLDSERVER
; 3988 : 	if( IsPlayer() )

  00032	83 be 30 02 00
	00 00		 cmp	 DWORD PTR [esi+560], 0
  00039	74 0b		 je	 SHORT $LN7@UpdateItem

; 3989 : 		( (CUser*)this )->AddUpdateItemEx( id, cParam, iValue );

  0003b	52		 push	 edx
  0003c	57		 push	 edi
  0003d	51		 push	 ecx
  0003e	53		 push	 ebx
  0003f	8b ce		 mov	 ecx, esi
  00041	e8 00 00 00 00	 call	 ?AddUpdateItemEx@CUser@@QAEXED_J@Z ; CUser::AddUpdateItemEx
$LN7@UpdateItem:

; 3990 : #endif
; 3991 : }

  00046	5f		 pop	 edi
  00047	5e		 pop	 esi
  00048	5b		 pop	 ebx
  00049	5d		 pop	 ebp
  0004a	c2 10 00	 ret	 16			; 00000010H
?UpdateItemEx@CMover@@QAEXED_J@Z ENDP			; CMover::UpdateItemEx
_TEXT	ENDS
; Function compile flags: /Ogtp
; File C:\IAGOS\server\v18\Source\Source\_Common\MoverParam.cpp
; File C:\IAGOS\server\v18\Source\Source\_Common\Item.h
; File C:\IAGOS\server\v18\Source\Source\_Common\MoverParam.cpp
; File C:\IAGOS\server\v18\Source\Source\_Common\Item.h
; File C:\IAGOS\server\v18\Source\Source\_Common\MoverParam.cpp
; File C:\IAGOS\server\v18\Source\Source\_Common\Item.h
; File C:\IAGOS\server\v18\Source\Source\_Common\MoverParam.cpp
; File C:\IAGOS\server\v18\Source\Source\_Common\Item.h
; File C:\IAGOS\server\v18\Source\Source\_Common\MoverParam.cpp
; File C:\IAGOS\server\v18\Source\Source\_Common\Item.h
; File C:\IAGOS\server\v18\Source\Source\_Common\MoverParam.cpp
; File C:\IAGOS\server\v18\Source\Source\_Common\Item.h
; File C:\IAGOS\server\v18\Source\Source\_Common\MoverParam.cpp
; File C:\IAGOS\server\v18\Source\Source\_Common\Item.h
; File C:\IAGOS\server\v18\Source\Source\_Common\MoverParam.cpp
; File C:\IAGOS\server\v18\Source\Source\_Common\Item.h
; File C:\IAGOS\server\v18\Source\Source\_Common\MoverParam.cpp
; File C:\IAGOS\server\v18\Source\Source\_Common\Item.h
; File C:\IAGOS\server\v18\Source\Source\_Common\MoverParam.cpp
; File C:\IAGOS\server\v18\Source\Source\_Common\Item.h
; File C:\Program Files\Microsoft Visual Studio\2022\Professional\VC\Tools\MSVC\14.44.35207\include\vector
; File C:\IAGOS\server\v18\Source\Source\_Common\Piercing.h
; File C:\Program Files\Microsoft Visual Studio\2022\Professional\VC\Tools\MSVC\14.44.35207\include\vector
; File C:\IAGOS\server\v18\Source\Source\_Common\Piercing.h
; File C:\Program Files\Microsoft Visual Studio\2022\Professional\VC\Tools\MSVC\14.44.35207\include\vector
; File C:\IAGOS\server\v18\Source\Source\_Common\MoverParam.cpp
; File C:\IAGOS\server\v18\Source\Source\_Common\Item.h
; File C:\IAGOS\server\v18\Source\Source\_Common\MoverParam.cpp
; File C:\IAGOS\server\v18\Source\Source\_Common\Item.h
; File C:\IAGOS\server\v18\Source\Source\_Common\MoverParam.cpp
; File C:\IAGOS\server\v18\Source\Source\_Common\Item.h
; File C:\IAGOS\server\v18\Source\Source\_Common\MoverParam.cpp
; File C:\IAGOS\server\v18\Source\Source\_Common\Item.h
; File C:\IAGOS\server\v18\Source\Source\_Common\MoverParam.cpp
; File C:\IAGOS\server\v18\Source\Source\_Common\Item.h
; File C:\IAGOS\server\v18\Source\Source\_Common\MoverParam.cpp
; File C:\Program Files\Microsoft Visual Studio\2022\Professional\VC\Tools\MSVC\14.44.35207\atlmfc\include\atltime.h
; File C:\IAGOS\server\v18\Source\Source\_Common\MoverParam.cpp
; File C:\IAGOS\server\v18\Source\Source\_Common\Mover.h
; File C:\IAGOS\server\v18\Source\Source\_Common\MoverParam.cpp
;	COMDAT ?UpdateItem@CMover@@QAEXEDKK@Z
_TEXT	SEGMENT
_this$1$ = -12						; size = 4
tv615 = -4						; size = 4
_nId$ = 8						; size = 1
_cParam$ = 12						; size = 1
_dwValue$ = 16						; size = 4
$T1 = 16						; size = 4
_dwTime$ = 20						; size = 4
?UpdateItem@CMover@@QAEXEDKK@Z PROC			; CMover::UpdateItem, COMDAT
; _this$ = ecx

; 3999 : {

  00000	55		 push	 ebp
  00001	8b ec		 mov	 ebp, esp
  00003	83 ec 0c	 sub	 esp, 12			; 0000000cH

; 4000 : 	CItemBase* pItemBase = GetItemId( nId );

  00006	8b 45 08	 mov	 eax, DWORD PTR _nId$[ebp]
  00009	53		 push	 ebx
  0000a	56		 push	 esi
  0000b	0f b6 c0	 movzx	 eax, al
  0000e	8b f1		 mov	 esi, ecx
  00010	57		 push	 edi
  00011	50		 push	 eax
  00012	89 75 f4	 mov	 DWORD PTR _this$1$[ebp], esi
  00015	89 45 fc	 mov	 DWORD PTR tv615[ebp], eax
  00018	e8 00 00 00 00	 call	 ?GetItemId@CMover@@QAEPAVCItemBase@@K@Z ; CMover::GetItemId
  0001d	8b f8		 mov	 edi, eax

; 4001 : 
; 4002 : 	if( pItemBase )

  0001f	85 ff		 test	 edi, edi
  00021	0f 84 25 02 00
	00		 je	 $LN85@UpdateItem

; 4003 : 	{
; 4004 : 		switch( cParam )

  00027	8b 45 0c	 mov	 eax, DWORD PTR _cParam$[ebp]
  0002a	0f be c0	 movsx	 eax, al
  0002d	83 f8 12	 cmp	 eax, 18			; 00000012H
  00030	0f 87 16 02 00
	00		 ja	 $LN85@UpdateItem
  00036	ff 24 85 00 00
	00 00		 jmp	 DWORD PTR $LN84@UpdateItem[eax*4]
$LN8@UpdateItem:

; 4005 : 		{
; 4006 : 			case UI_COOLTIME:
; 4007 : 			case UI_NUM:
; 4008 : 				{
; 4009 : 					if( (int)dwValue <= 0 ) 

  0003d	8b 5d 10	 mov	 ebx, DWORD PTR _dwValue$[ebp]
  00040	85 db		 test	 ebx, ebx
  00042	7f 0f		 jg	 SHORT $LN10@UpdateItem

; 4010 : 					{
; 4011 : 						RemoveItemId( nId );

  00044	ff 75 fc	 push	 DWORD PTR tv615[ebp]
  00047	8b ce		 mov	 ecx, esi
  00049	e8 00 00 00 00	 call	 ?RemoveItemId@CMover@@QAEXK@Z ; CMover::RemoveItemId

; 4012 : 					}

  0004e	e9 fc 01 00 00	 jmp	 $LN37@UpdateItem
$LN10@UpdateItem:

; 4013 : 					else 
; 4014 : 					{
; 4015 : 						( (CItemElem*)pItemBase )->m_nItemNum	= (short)( dwValue );

  00053	66 89 5f 74	 mov	 WORD PTR [edi+116], bx

; 4016 : 					}
; 4017 : 					break;

  00057	e9 f3 01 00 00	 jmp	 $LN37@UpdateItem
$LN12@UpdateItem:

; 4018 : 				}
; 4019 : 			case UI_HP:
; 4020 : 				{
; 4021 : 					( (CItemElem*)pItemBase )->m_nHitPoint	= dwValue;

  0005c	8b 5d 10	 mov	 ebx, DWORD PTR _dwValue$[ebp]

; 4022 : 					UpdateParam();

  0005f	8b ce		 mov	 ecx, esi
  00061	89 5f 70	 mov	 DWORD PTR [edi+112], ebx
  00064	e8 00 00 00 00	 call	 ?UpdateParam@CMover@@QAEXXZ ; CMover::UpdateParam

; 4023 : 					break;

  00069	e9 e1 01 00 00	 jmp	 $LN37@UpdateItem
$LN13@UpdateItem:

; 4024 : 				}
; 4025 : 			case UI_REPAIR_NUM:
; 4026 : 				{
; 4027 : 					( (CItemElem*)pItemBase )->m_nRepair	= dwValue;

  0006e	8b 5d 10	 mov	 ebx, DWORD PTR _dwValue$[ebp]
  00071	89 5f 68	 mov	 DWORD PTR [edi+104], ebx

; 4028 : 					break;

  00074	e9 d6 01 00 00	 jmp	 $LN37@UpdateItem
$LN14@UpdateItem:

; 4029 : 				}
; 4030 : 			case UI_RN:
; 4031 : 				{
; 4032 : 					if( ( (CItemElem*)pItemBase )->m_nRepairNumber >= 100 )

  00079	80 7f 6c 64	 cmp	 BYTE PTR [edi+108], 100	; 00000064H
  0007d	0f 83 0a 02 00
	00		 jae	 $LN41@UpdateItem

; 4033 : 						return;
; 4034 : 					if( dwValue > 100 )
; 4035 : 						dwValue		= 100;
; 4036 : 					( (CItemElem*)pItemBase )->m_nRepairNumber	= (BYTE)( dwValue );

  00083	bb 64 00 00 00	 mov	 ebx, 100		; 00000064H

; 4037 : 					UpdateParam();

  00088	8b ce		 mov	 ecx, esi
  0008a	39 5d 10	 cmp	 DWORD PTR _dwValue$[ebp], ebx
  0008d	0f 46 5d 10	 cmovbe	 ebx, DWORD PTR _dwValue$[ebp]
  00091	88 5f 6c	 mov	 BYTE PTR [edi+108], bl
  00094	e8 00 00 00 00	 call	 ?UpdateParam@CMover@@QAEXXZ ; CMover::UpdateParam

; 4038 : 				}
; 4039 : 				break;

  00099	e9 b1 01 00 00	 jmp	 $LN37@UpdateItem
$LN17@UpdateItem:
; File C:\IAGOS\server\v18\Source\Source\_Common\Item.h

; 154  : 	BOOL	IsAccessory( void )		{	return CAccessoryProperty::GetInstance()->IsAccessory( m_dwItemId );	}

  0009e	ff 77 0c	 push	 DWORD PTR [edi+12]
  000a1	e8 00 00 00 00	 call	 ?GetInstance@CAccessoryProperty@@SAPAV1@XZ ; CAccessoryProperty::GetInstance
  000a6	8b c8		 mov	 ecx, eax
  000a8	e8 00 00 00 00	 call	 ?IsAccessory@CAccessoryProperty@@QAEHK@Z ; CAccessoryProperty::IsAccessory
; File C:\IAGOS\server\v18\Source\Source\_Common\MoverParam.cpp

; 4056 : 					if( ( (CItemElem*)pItemBase )->GetAbilityOption() > (int)( dwMax ) )

  000ad	81 7f 0c 54 67
	00 00		 cmp	 DWORD PTR [edi+12], 26452 ; 00006754H
  000b4	b8 05 00 00 00	 mov	 eax, 5
  000b9	b9 14 00 00 00	 mov	 ecx, 20			; 00000014H
  000be	0f 45 c1	 cmovne	 eax, ecx
  000c1	39 47 64	 cmp	 DWORD PTR [edi+100], eax
  000c4	0f 8f c3 01 00
	00		 jg	 $LN41@UpdateItem

; 4057 : 						return;
; 4058 : 					if( dwValue > dwMax )

  000ca	8b 5d 10	 mov	 ebx, DWORD PTR _dwValue$[ebp]

; 4059 : 						dwValue		= dwMax;
; 4060 : 
; 4061 : 					( (CItemElem*)pItemBase )->SetAbilityOption( dwValue );
; 4062 : 					UpdateParam();

  000cd	8b ce		 mov	 ecx, esi
  000cf	3b d8		 cmp	 ebx, eax
  000d1	0f 47 d8	 cmova	 ebx, eax
  000d4	89 5f 64	 mov	 DWORD PTR [edi+100], ebx
  000d7	e8 00 00 00 00	 call	 ?UpdateParam@CMover@@QAEXXZ ; CMover::UpdateParam

; 4063 : 				}
; 4064 : 				break;

  000dc	e9 6e 01 00 00	 jmp	 $LN37@UpdateItem
$LN22@UpdateItem:

; 4065 : 			case UI_RAO: // ľĆŔĚĹŰ ĽÓĽş + żĂ¸®±â...
; 4066 : 				{
; 4067 : #if __VER >= 13 // __EXT_ENCHANT
; 4068 : 					if( ( (CItemElem*)pItemBase )->m_nResistAbilityOption > 20 )

  000e1	83 bf 80 00 00
	00 14		 cmp	 DWORD PTR [edi+128], 20	; 00000014H
  000e8	0f 8f 9f 01 00
	00		 jg	 $LN41@UpdateItem

; 4069 : #else // __EXT_ENCHANT
; 4070 : 					if( ( (CItemElem*)pItemBase )->m_nResistAbilityOption > 10 ) 
; 4071 : #endif // __EXT_ENCHANT
; 4072 : 						return;
; 4073 : #if __VER >= 13 // __EXT_ENCHANT
; 4074 : 					if( dwValue > 20 )
; 4075 : 						dwValue		= 20;
; 4076 : #else // __EXT_ENCHANT
; 4077 : 					if( dwValue > 10 )
; 4078 : 						dwValue		= 10;
; 4079 : #endif // __EXT_ENCHANT
; 4080 : 					( (CItemElem*)pItemBase )->m_nResistAbilityOption	= dwValue;

  000ee	bb 14 00 00 00	 mov	 ebx, 20			; 00000014H

; 4081 : 					UpdateParam();

  000f3	8b ce		 mov	 ecx, esi
  000f5	39 5d 10	 cmp	 DWORD PTR _dwValue$[ebp], ebx
  000f8	0f 46 5d 10	 cmovbe	 ebx, DWORD PTR _dwValue$[ebp]
  000fc	89 9f 80 00 00
	00		 mov	 DWORD PTR [edi+128], ebx
  00102	e8 00 00 00 00	 call	 ?UpdateParam@CMover@@QAEXXZ ; CMover::UpdateParam

; 4082 : 				}
; 4083 : 				break;

  00107	e9 43 01 00 00	 jmp	 $LN37@UpdateItem
$LN25@UpdateItem:

; 4084 : 			case UI_IR:  // ľĆŔĚĹŰżˇ ą«˝ĽĽÓĽşŔÎÁö łÖ±â
; 4085 : 				{
; 4086 : 					( (CItemElem*)pItemBase )->m_bItemResist	= (BYTE)( dwValue );

  0010c	8b 5d 10	 mov	 ebx, DWORD PTR _dwValue$[ebp]

; 4087 : 					UpdateParam();

  0010f	8b ce		 mov	 ecx, esi
  00111	88 5f 7c	 mov	 BYTE PTR [edi+124], bl
  00114	e8 00 00 00 00	 call	 ?UpdateParam@CMover@@QAEXXZ ; CMover::UpdateParam

; 4088 : 				}
; 4089 : 				break;

  00119	e9 31 01 00 00	 jmp	 $LN37@UpdateItem
$LN26@UpdateItem:
; File C:\IAGOS\server\v18\Source\Source\_Common\Item.h

; 102  : 	void	SetPiercingSize( int nSize )	{	m_piercing.SetPiercingSize( nSize );	}

  0011e	8b 5d 10	 mov	 ebx, DWORD PTR _dwValue$[ebp]
  00121	8d 4f 3c	 lea	 ecx, DWORD PTR [edi+60]
  00124	53		 push	 ebx
  00125	e8 00 00 00 00	 call	 ?SetPiercingSize@CPiercing@@QAEXH@Z ; CPiercing::SetPiercingSize
; File C:\IAGOS\server\v18\Source\Source\_Common\MoverParam.cpp

; 4093 : 				break;

  0012a	e9 20 01 00 00	 jmp	 $LN37@UpdateItem
$LN27@UpdateItem:

; 4096 : 					WORD wIndex	= LOWORD( dwValue ), wItemId	= HIWORD( dwValue );

  0012f	8b 5d 10	 mov	 ebx, DWORD PTR _dwValue$[ebp]
; File C:\IAGOS\server\v18\Source\Source\_Common\Item.h

; 104  : 	void	SetPiercingItem( int nth, DWORD dwItem )	{	m_piercing.SetPiercingItem( nth, dwItem );	}

  00132	8d 4f 3c	 lea	 ecx, DWORD PTR [edi+60]
; File C:\IAGOS\server\v18\Source\Source\_Common\MoverParam.cpp

; 4096 : 					WORD wIndex	= LOWORD( dwValue ), wItemId	= HIWORD( dwValue );

  00135	8b c3		 mov	 eax, ebx
  00137	c1 e8 10	 shr	 eax, 16			; 00000010H
; File C:\IAGOS\server\v18\Source\Source\_Common\Item.h

; 104  : 	void	SetPiercingItem( int nth, DWORD dwItem )	{	m_piercing.SetPiercingItem( nth, dwItem );	}

  0013a	50		 push	 eax
; File C:\IAGOS\server\v18\Source\Source\_Common\MoverParam.cpp

; 4097 : 					( (CItemElem*)pItemBase )->SetPiercingItem( wIndex, wItemId );

  0013b	0f b7 c3	 movzx	 eax, bx
; File C:\IAGOS\server\v18\Source\Source\_Common\Item.h

; 104  : 	void	SetPiercingItem( int nth, DWORD dwItem )	{	m_piercing.SetPiercingItem( nth, dwItem );	}

  0013e	50		 push	 eax
  0013f	e8 00 00 00 00	 call	 ?SetPiercingItem@CPiercing@@QAEXHK@Z ; CPiercing::SetPiercingItem
; File C:\IAGOS\server\v18\Source\Source\_Common\MoverParam.cpp

; 4099 : 				break;

  00144	e9 06 01 00 00	 jmp	 $LN37@UpdateItem
$LN28@UpdateItem:
; File C:\IAGOS\server\v18\Source\Source\_Common\Item.h

; 110  : 	void	SetUltimatePiercingSize( int nSize )	{	m_piercing.SetUltimatePiercingSize( nSize );	}

  00149	8b 5d 10	 mov	 ebx, DWORD PTR _dwValue$[ebp]
  0014c	8d 4f 3c	 lea	 ecx, DWORD PTR [edi+60]
  0014f	53		 push	 ebx
  00150	e8 00 00 00 00	 call	 ?SetUltimatePiercingSize@CPiercing@@QAEXH@Z ; CPiercing::SetUltimatePiercingSize
; File C:\IAGOS\server\v18\Source\Source\_Common\MoverParam.cpp

; 4104 : 				break;

  00155	e9 f5 00 00 00	 jmp	 $LN37@UpdateItem
$LN29@UpdateItem:

; 4107 : 					WORD wIndex	= LOWORD( dwValue ), wItemId	= HIWORD( dwValue );

  0015a	8b 5d 10	 mov	 ebx, DWORD PTR _dwValue$[ebp]
; File C:\IAGOS\server\v18\Source\Source\_Common\Item.h

; 112  : 	void	SetUltimatePiercingItem( int nth, DWORD dwItem )	{	m_piercing.SetUltimatePiercingItem( nth, dwItem );	}

  0015d	8d 4f 3c	 lea	 ecx, DWORD PTR [edi+60]
; File C:\IAGOS\server\v18\Source\Source\_Common\MoverParam.cpp

; 4107 : 					WORD wIndex	= LOWORD( dwValue ), wItemId	= HIWORD( dwValue );

  00160	8b c3		 mov	 eax, ebx
  00162	c1 e8 10	 shr	 eax, 16			; 00000010H
; File C:\IAGOS\server\v18\Source\Source\_Common\Item.h

; 112  : 	void	SetUltimatePiercingItem( int nth, DWORD dwItem )	{	m_piercing.SetUltimatePiercingItem( nth, dwItem );	}

  00165	50		 push	 eax
; File C:\IAGOS\server\v18\Source\Source\_Common\MoverParam.cpp

; 4108 : 					( (CItemElem*)pItemBase )->SetUltimatePiercingItem( wIndex, wItemId );

  00166	0f b7 c3	 movzx	 eax, bx
; File C:\IAGOS\server\v18\Source\Source\_Common\Item.h

; 112  : 	void	SetUltimatePiercingItem( int nth, DWORD dwItem )	{	m_piercing.SetUltimatePiercingItem( nth, dwItem );	}

  00169	50		 push	 eax
  0016a	e8 00 00 00 00	 call	 ?SetUltimatePiercingItem@CPiercing@@QAEXHK@Z ; CPiercing::SetUltimatePiercingItem
; File C:\IAGOS\server\v18\Source\Source\_Common\MoverParam.cpp

; 4110 : 				break;

  0016f	e9 db 00 00 00	 jmp	 $LN37@UpdateItem
$LN30@UpdateItem:
; File C:\IAGOS\server\v18\Source\Source\_Common\Item.h

; 102  : 	void	SetPiercingSize( int nSize )	{	m_piercing.SetPiercingSize( nSize );	}

  00174	8b 5d 10	 mov	 ebx, DWORD PTR _dwValue$[ebp]
  00177	8d 4f 3c	 lea	 ecx, DWORD PTR [edi+60]
  0017a	53		 push	 ebx
  0017b	e8 00 00 00 00	 call	 ?SetPiercingSize@CPiercing@@QAEXH@Z ; CPiercing::SetPiercingSize
; File C:\Program Files\Microsoft Visual Studio\2022\Professional\VC\Tools\MSVC\14.44.35207\include\vector

; 1635 :         _Resize(_Newsize, _Val);

  00180	8d 45 10	 lea	 eax, DWORD PTR $T1[ebp]
; File C:\IAGOS\server\v18\Source\Source\_Common\Piercing.h

; 40   : 	void	SetVisKeepTimeSize( int nSize )	{ m_vtmPetVis.resize( min( nSize, MAX_VIS ), 0 ); }

  00183	c7 45 10 00 00
	00 00		 mov	 DWORD PTR $T1[ebp], 0
; File C:\Program Files\Microsoft Visual Studio\2022\Professional\VC\Tools\MSVC\14.44.35207\include\vector

; 1635 :         _Resize(_Newsize, _Val);

  0018a	50		 push	 eax
; File C:\IAGOS\server\v18\Source\Source\_Common\Piercing.h

; 40   : 	void	SetVisKeepTimeSize( int nSize )	{ m_vtmPetVis.resize( min( nSize, MAX_VIS ), 0 ); }

  0018b	b8 09 00 00 00	 mov	 eax, 9
  00190	8d 4f 58	 lea	 ecx, DWORD PTR [edi+88]
  00193	3b d8		 cmp	 ebx, eax
  00195	0f 4c c3	 cmovl	 eax, ebx
; File C:\Program Files\Microsoft Visual Studio\2022\Professional\VC\Tools\MSVC\14.44.35207\include\vector

; 1635 :         _Resize(_Newsize, _Val);

  00198	50		 push	 eax
  00199	e8 00 00 00 00	 call	 ??$_Resize@J@?$vector@JV?$allocator@J@std@@@std@@AAEXIABJ@Z ; std::vector<long,std::allocator<long> >::_Resize<long>
; File C:\IAGOS\server\v18\Source\Source\_Common\MoverParam.cpp

; 4123 : 				break;

  0019e	e9 ac 00 00 00	 jmp	 $LN37@UpdateItem
$LN31@UpdateItem:

; 4127 : 					static_cast<CItemElem*>(pItemBase)->SetPiercingItem( wIndex, wItemId );

  001a3	8b 5d 10	 mov	 ebx, DWORD PTR _dwValue$[ebp]
; File C:\IAGOS\server\v18\Source\Source\_Common\Item.h

; 104  : 	void	SetPiercingItem( int nth, DWORD dwItem )	{	m_piercing.SetPiercingItem( nth, dwItem );	}

  001a6	8d 4f 3c	 lea	 ecx, DWORD PTR [edi+60]
; File C:\IAGOS\server\v18\Source\Source\_Common\MoverParam.cpp

; 4126 : 					WORD wIndex	= LOWORD( dwValue ), wItemId	= HIWORD( dwValue );

  001a9	8b c3		 mov	 eax, ebx

; 4127 : 					static_cast<CItemElem*>(pItemBase)->SetPiercingItem( wIndex, wItemId );

  001ab	0f b7 f3	 movzx	 esi, bx
  001ae	c1 e8 10	 shr	 eax, 16			; 00000010H
; File C:\IAGOS\server\v18\Source\Source\_Common\Item.h

; 104  : 	void	SetPiercingItem( int nth, DWORD dwItem )	{	m_piercing.SetPiercingItem( nth, dwItem );	}

  001b1	50		 push	 eax
  001b2	56		 push	 esi
  001b3	e8 00 00 00 00	 call	 ?SetPiercingItem@CPiercing@@QAEXHK@Z ; CPiercing::SetPiercingItem
; File C:\IAGOS\server\v18\Source\Source\_Common\MoverParam.cpp

; 4128 : 					static_cast<CItemElem*>(pItemBase)->SetVisKeepTime( wIndex, ( dwTime * 60 ) + time_null() ); // şĐ´ÜŔ§ ˝Ă°ŁŔ» ĂĘ´ÜŔ§·Î şŻ°ć

  001b8	8b 55 14	 mov	 edx, DWORD PTR _dwTime$[ebp]
; File C:\IAGOS\server\v18\Source\Source\_Common\Item.h

; 278  : 	void	SetVisKeepTime( int nth, time_t tmKeep )	{ m_piercing.SetVisKeepTime( nth, tmKeep ); }

  001bb	8d 4f 3c	 lea	 ecx, DWORD PTR [edi+60]
; File C:\IAGOS\server\v18\Source\Source\_Common\MoverParam.cpp

; 4128 : 					static_cast<CItemElem*>(pItemBase)->SetVisKeepTime( wIndex, ( dwTime * 60 ) + time_null() ); // şĐ´ÜŔ§ ˝Ă°ŁŔ» ĂĘ´ÜŔ§·Î şŻ°ć

  001be	a1 00 00 00 00	 mov	 eax, DWORD PTR ?g_tCurrent@@3JA ; g_tCurrent
  001c3	c1 e2 04	 shl	 edx, 4
  001c6	2b 55 14	 sub	 edx, DWORD PTR _dwTime$[ebp]
  001c9	8d 04 90	 lea	 eax, DWORD PTR [eax+edx*4]
; File C:\IAGOS\server\v18\Source\Source\_Common\Item.h

; 278  : 	void	SetVisKeepTime( int nth, time_t tmKeep )	{ m_piercing.SetVisKeepTime( nth, tmKeep ); }

  001cc	50		 push	 eax
  001cd	56		 push	 esi
  001ce	e8 00 00 00 00	 call	 ?SetVisKeepTime@CPiercing@@QAEXHJ@Z ; CPiercing::SetVisKeepTime
; File C:\IAGOS\server\v18\Source\Source\_Common\MoverParam.cpp

; 4134 : 				break;

  001d3	8b 75 f4	 mov	 esi, DWORD PTR _this$1$[ebp]
  001d6	eb 77		 jmp	 SHORT $LN37@UpdateItem
$LN32@UpdateItem:

; 4135 : 
; 4136 : 			case UI_PETVIS_ITEMSWAP:
; 4137 : 				{
; 4138 : 					WORD wPos1	= LOWORD( dwValue ), wPos2	= HIWORD( dwValue );

  001d8	8b 5d 10	 mov	 ebx, DWORD PTR _dwValue$[ebp]

; 4139 : 					static_cast<CItemElem*>(pItemBase)->SetSwapVisItem( wPos1, wPos2 );

  001db	8b cf		 mov	 ecx, edi
  001dd	8b c3		 mov	 eax, ebx
  001df	c1 e8 10	 shr	 eax, 16			; 00000010H
  001e2	50		 push	 eax
  001e3	0f b7 c3	 movzx	 eax, bx
  001e6	50		 push	 eax
  001e7	e8 00 00 00 00	 call	 ?SetSwapVisItem@CItemElem@@QAEXHH@Z ; CItemElem::SetSwapVisItem

; 4140 : 
; 4141 : #ifdef __CLIENT
; 4142 : 					PLAYSND(SND_INF_EQUIPACCESSORY, &g_pPlayer->GetPos());
; 4143 : #endif // __CLIENT
; 4144 : 				}
; 4145 : 				break;

  001ec	eb 61		 jmp	 SHORT $LN37@UpdateItem
$LN33@UpdateItem:

; 4146 : 
; 4147 : 			case UI_TRANSFORM_VISPET:
; 4148 : 				{
; 4149 : 					static_cast<CItemElem*>(pItemBase)->m_bTranformVisPet = static_cast<BOOL>( dwValue );

  001ee	8b 5d 10	 mov	 ebx, DWORD PTR _dwValue$[ebp]
  001f1	89 9f ac 00 00
	00		 mov	 DWORD PTR [edi+172], ebx

; 4150 : 					static_cast<CItemElem*>(pItemBase)->m_bCharged = TRUE;

  001f7	c7 87 a4 00 00
	00 01 00 00 00	 mov	 DWORD PTR [edi+164], 1

; 4151 : 				}
; 4152 : 				break;

  00201	eb 4c		 jmp	 SHORT $LN37@UpdateItem
$LN34@UpdateItem:
; File C:\IAGOS\server\v18\Source\Source\_Common\Item.h

; 171  : 	void	SetRandomOpt( int nRandomOpt )	{	m_iRandomOptItemId	= ( m_iRandomOptItemId & 0xFFFFFFFFFFFFFF00 ) | static_cast<__int64>( nRandomOpt & 0x00000000000000FF );	}

  00203	8b 87 90 00 00
	00		 mov	 eax, DWORD PTR [edi+144]
  00209	33 c9		 xor	 ecx, ecx
  0020b	8b 5d 10	 mov	 ebx, DWORD PTR _dwValue$[ebp]
  0020e	25 00 ff ff ff	 and	 eax, -256		; ffffff00H
  00213	0f b6 d3	 movzx	 edx, bl
  00216	0b d0		 or	 edx, eax
  00218	09 8f 94 00 00
	00		 or	 DWORD PTR [edi+148], ecx
  0021e	89 97 90 00 00
	00		 mov	 DWORD PTR [edi+144], edx
; File C:\IAGOS\server\v18\Source\Source\_Common\MoverParam.cpp

; 4158 : 					break;

  00224	eb 29		 jmp	 SHORT $LN37@UpdateItem
$LN35@UpdateItem:
; File C:\Program Files\Microsoft Visual Studio\2022\Professional\VC\Tools\MSVC\14.44.35207\atlmfc\include\atltime.h

; 377  : 	return( CTime( ::_time64( NULL ) ) );

  00226	6a 00		 push	 0
  00228	e8 00 00 00 00	 call	 __time64

; 276  :  	m_timeSpan = nSecs + 60* (nMins + 60* (nHours + __int64(24) * lDays));

  0022d	8b 5d 10	 mov	 ebx, DWORD PTR _dwValue$[ebp]

; 377  : 	return( CTime( ::_time64( NULL ) ) );

  00230	83 c4 04	 add	 esp, 4

; 276  :  	m_timeSpan = nSecs + 60* (nMins + 60* (nHours + __int64(24) * lDays));

  00233	8b cb		 mov	 ecx, ebx
  00235	c1 e1 04	 shl	 ecx, 4
  00238	2b cb		 sub	 ecx, ebx
; File C:\IAGOS\server\v18\Source\Source\_Common\MoverParam.cpp

; 4162 : 					CTime tm	= CTime::GetCurrentTime() + CTimeSpan( 0, 0, dwValue, 0 );

  0023a	8d 04 88	 lea	 eax, DWORD PTR [eax+ecx*4]

; 4163 : 					( (CItemElem*)pItemBase )->m_dwKeepTime	= (DWORD)( tm.GetTime() );

  0023d	89 87 a8 00 00
	00		 mov	 DWORD PTR [edi+168], eax

; 4164 : 					break;

  00243	eb 0a		 jmp	 SHORT $LN37@UpdateItem
$LN36@UpdateItem:

; 4165 : 				}
; 4166 : 
; 4167 : 			case UI_FLAG:
; 4168 : 				{
; 4169 : #ifdef __CLIENT
; 4170 : 					DWORD dwObjIndex	= (DWORD)(short)LOWORD( dwValue );
; 4171 : 					BYTE byFlag		= (BYTE)HIWORD( dwValue );
; 4172 : 					int nParts	= dwObjIndex - m_Inventory.GetSize();
; 4173 : 					if( nParts >= 0 && nParts < MAX_HUMAN_PARTS )
; 4174 : 						m_aEquipInfo[nParts].byFlag	= byFlag;
; 4175 : 					( (CItemElem*)pItemBase )->m_byFlag		= byFlag;
; 4176 : 					UpdateParts( FALSE );
; 4177 : #endif	// __CLIENT
; 4178 : 					UpdateParam();

  00245	8b ce		 mov	 ecx, esi
  00247	e8 00 00 00 00	 call	 ?UpdateParam@CMover@@QAEXXZ ; CMover::UpdateParam
$LN85@UpdateItem:

; 4179 : 					break;
; 4180 : 				}
; 4181 : 
; 4182 : 			default:
; 4183 : 				break;
; 4184 : 		}
; 4185 : #if __VER >= 9 // __CSC_VER9_1
; 4186 : #ifdef __CLIENT
; 4187 : 		CWndInventory* pWnd	= (CWndInventory*)g_WndMng.GetWndBase( APP_INVENTORY );
; 4188 : 		if( pWnd )
; 4189 : 			pWnd->UpdateTooltip();
; 4190 : 
; 4191 : // 		CWndInventory* pWnd	= (CWndInventory*)g_WndMng.GetWndBase( );		
; 4192 : // 		if( pWnd )
; 4193 : // 			pWnd->UpdateTooltip();
; 4194 : #endif	// __CLIENT
; 4195 : #endif	// __CSC_VER9_1
; 4196 : 	}
; 4197 : 	else
; 4198 : 	{
; 4199 : 		switch( cParam )
; 4200 : 		{
; 4201 : 			case UI_FLAG:
; 4202 : 				{
; 4203 : #ifdef __CLIENT
; 4204 : 					DWORD dwObjIndex	= (DWORD)(short)LOWORD( dwValue );
; 4205 : 					BYTE byFlag		= (BYTE)HIWORD( dwValue );
; 4206 : 					int nParts	= dwObjIndex - m_Inventory.GetSize();
; 4207 : 					if( nParts >= 0 && nParts < MAX_HUMAN_PARTS )
; 4208 : 					{
; 4209 : 						m_aEquipInfo[nParts].byFlag	= byFlag;
; 4210 : 						UpdateParts( TRUE );
; 4211 : 					}
; 4212 : #endif	// __CLIENT
; 4213 : 					break;
; 4214 : 				}
; 4215 : 			default:
; 4216 : 				break;
; 4217 : 		}
; 4218 : 	}
; 4219 : #ifdef __WORLDSERVER
; 4220 : 	if( IsPlayer() )

  0024c	8b 5d 10	 mov	 ebx, DWORD PTR _dwValue$[ebp]
$LN37@UpdateItem:
  0024f	83 be 30 02 00
	00 00		 cmp	 DWORD PTR [esi+560], 0
  00256	74 35		 je	 SHORT $LN41@UpdateItem

; 4221 : #if __VER >= 15 // __PETVIS
; 4222 : 	{
; 4223 : 		static_cast<CUser*>( this )->AddUpdateItem( 0, nId, cParam, dwValue, dwTime );

  00258	ff 75 14	 push	 DWORD PTR _dwTime$[ebp]
  0025b	8b ce		 mov	 ecx, esi
  0025d	53		 push	 ebx
  0025e	8b 5d 0c	 mov	 ebx, DWORD PTR _cParam$[ebp]
  00261	53		 push	 ebx
  00262	ff 75 08	 push	 DWORD PTR _nId$[ebp]
  00265	6a 00		 push	 0
  00267	e8 00 00 00 00	 call	 ?AddUpdateItem@CUser@@QAEXDEDKK@Z ; CUser::AddUpdateItem

; 4224 : 		if( pItemBase && cParam == UI_TRANSFORM_VISPET && HasActivatedEatPet() )

  0026c	85 ff		 test	 edi, edi
  0026e	74 1d		 je	 SHORT $LN41@UpdateItem
  00270	80 fb 12	 cmp	 bl, 18			; 00000012H
  00273	75 18		 jne	 SHORT $LN41@UpdateItem
; File C:\IAGOS\server\v18\Source\Source\_Common\Mover.h

; 806  : 	BOOL	HasActivatedEatPet( void )		{	return m_oiEatPet != NULL_ID;	}

  00275	83 be 74 06 00
	00 ff		 cmp	 DWORD PTR [esi+1652], -1
; File C:\IAGOS\server\v18\Source\Source\_Common\MoverParam.cpp

; 4224 : 		if( pItemBase && cParam == UI_TRANSFORM_VISPET && HasActivatedEatPet() )

  0027c	74 0f		 je	 SHORT $LN41@UpdateItem

; 4225 : 		{
; 4226 : 			InactivateEatPet();

  0027e	8b ce		 mov	 ecx, esi
  00280	e8 00 00 00 00	 call	 ?InactivateEatPet@CMover@@QAEXXZ ; CMover::InactivateEatPet

; 4227 : 			ActivateEatPet( static_cast<CItemElem*>( pItemBase ) );

  00285	57		 push	 edi
  00286	8b ce		 mov	 ecx, esi
  00288	e8 00 00 00 00	 call	 ?ActivateEatPet@CMover@@QAEXPAVCItemElem@@@Z ; CMover::ActivateEatPet
$LN41@UpdateItem:

; 4228 : 		}
; 4229 : 	}
; 4230 : #else // __PETVIS
; 4231 : 		( (CUser*)this )->AddUpdateItem( 0, nId, cParam, dwValue );
; 4232 : #endif // __PETVIS
; 4233 : #endif // __WORLDSERVER
; 4234 : }

  0028d	5f		 pop	 edi
  0028e	5e		 pop	 esi
  0028f	5b		 pop	 ebx
  00290	8b e5		 mov	 esp, ebp
  00292	5d		 pop	 ebp
  00293	c2 10 00	 ret	 16			; 00000010H
  00296	66 90		 npad	 2
$LN84@UpdateItem:
  00298	00 00 00 00	 DD	 $LN8@UpdateItem
  0029c	00 00 00 00	 DD	 $LN12@UpdateItem
  002a0	00 00 00 00	 DD	 $LN14@UpdateItem
  002a4	00 00 00 00	 DD	 $LN17@UpdateItem
  002a8	00 00 00 00	 DD	 $LN22@UpdateItem
  002ac	00 00 00 00	 DD	 $LN25@UpdateItem
  002b0	00 00 00 00	 DD	 $LN26@UpdateItem
  002b4	00 00 00 00	 DD	 $LN27@UpdateItem
  002b8	00 00 00 00	 DD	 $LN8@UpdateItem
  002bc	00 00 00 00	 DD	 $LN36@UpdateItem
  002c0	00 00 00 00	 DD	 $LN34@UpdateItem
  002c4	00 00 00 00	 DD	 $LN35@UpdateItem
  002c8	00 00 00 00	 DD	 $LN13@UpdateItem
  002cc	00 00 00 00	 DD	 $LN28@UpdateItem
  002d0	00 00 00 00	 DD	 $LN29@UpdateItem
  002d4	00 00 00 00	 DD	 $LN30@UpdateItem
  002d8	00 00 00 00	 DD	 $LN31@UpdateItem
  002dc	00 00 00 00	 DD	 $LN32@UpdateItem
  002e0	00 00 00 00	 DD	 $LN33@UpdateItem
?UpdateItem@CMover@@QAEXEDKK@Z ENDP			; CMover::UpdateItem
_TEXT	ENDS
; Function compile flags: /Ogtp
; File C:\IAGOS\server\v18\Source\Source\_Common\MoverParam.cpp
; File C:\IAGOS\server\v18\Source\Source\_Common\Project.h
; File C:\IAGOS\server\v18\Source\Source\_Common\MoverParam.cpp
; File C:\IAGOS\server\v18\Source\Source\_Common\Project.h
; File C:\IAGOS\server\v18\Source\Source\_Common\data.h
; File C:\IAGOS\server\v18\Source\Source\_Common\MoverParam.cpp
; File C:\IAGOS\server\v18\Source\Source\_Common\Project.h
; File C:\IAGOS\server\v18\Source\Source\_Common\MoverParam.cpp
;	COMDAT ?GetItemAbilityMax@CMover@@QAEHH@Z
_TEXT	SEGMENT
_nItem$ = 8						; size = 4
?GetItemAbilityMax@CMover@@QAEHH@Z PROC			; CMover::GetItemAbilityMax, COMDAT
; _this$ = ecx

; 597  : {

  00000	55		 push	 ebp
  00001	8b ec		 mov	 ebp, esp
; File C:\IAGOS\server\v18\Source\Source\_Common\Project.h

; 1389 : 	VERIFY_RANGE_ASSERT( nIndex, 0, m_aPropItem.GetSize(), "GetItemProp range_error", NULL );

  00003	8b 55 08	 mov	 edx, DWORD PTR _nItem$[ebp]
  00006	a1 40 02 00 00	 mov	 eax, DWORD PTR ?prj@@3VCProject@@A+576
; File C:\IAGOS\server\v18\Source\Source\_Common\MoverParam.cpp

; 597  : {

  0000b	56		 push	 esi
  0000c	8b f1		 mov	 esi, ecx
; File C:\IAGOS\server\v18\Source\Source\_Common\Project.h

; 1389 : 	VERIFY_RANGE_ASSERT( nIndex, 0, m_aPropItem.GetSize(), "GetItemProp range_error", NULL );

  0000e	85 d2		 test	 edx, edx
  00010	78 20		 js	 SHORT $LN8@GetItemAbi
  00012	3b d0		 cmp	 edx, eax
  00014	7d 1c		 jge	 SHORT $LN8@GetItemAbi
; File C:\IAGOS\server\v18\Source\Source\_Common\data.h

; 270  : 	if( dwIndex >= (DWORD)m_nMaxIndex )

  00016	73 30		 jae	 SHORT $LN18@GetItemAbi

; 271  : 		return NULL;
; 272  : 	return (T*) m_apOffset[ dwIndex ];

  00018	a1 30 02 00 00	 mov	 eax, DWORD PTR ?prj@@3VCProject@@A+560
  0001d	8b 04 90	 mov	 eax, DWORD PTR [eax+edx*4]
; File C:\IAGOS\server\v18\Source\Source\_Common\MoverParam.cpp

; 599  : 	int nAbilityMax = GetParam( DST_ABILITY_MAX, pItemProp->dwAbilityMax );

  00020	ff b0 e8 00 00
	00		 push	 DWORD PTR [eax+232]
  00026	6a 0d		 push	 13			; 0000000dH
  00028	e8 00 00 00 00	 call	 ?GetParam@CMover@@QAEHHH@Z ; CMover::GetParam

; 600  : 	return nAbilityMax;

  0002d	5e		 pop	 esi

; 601  : }

  0002e	5d		 pop	 ebp
  0002f	c2 04 00	 ret	 4
$LN8@GetItemAbi:
; File C:\IAGOS\server\v18\Source\Source\_Common\Project.h

; 579  : 	LPCTSTR szErr = Error( _T( "%s min:%d, max:%d, index:%d" ), szMsg, nMin, nMax, nIndex ); 

  00032	52		 push	 edx
  00033	50		 push	 eax
  00034	6a 00		 push	 0
  00036	68 00 00 00 00	 push	 OFFSET ??_C@_0BI@BEIFNGEL@GetItemProp?5range_error@
  0003b	68 00 00 00 00	 push	 OFFSET ??_C@_0BM@HMFGHCP@?$CFs?5min?3?$CFd?0?5max?3?$CFd?0?5index?3?$CFd@
  00040	e8 00 00 00 00	 call	 ?Error@@YAPBDPBDZZ	; Error
  00045	83 c4 14	 add	 esp, 20			; 00000014H
$LN18@GetItemAbi:
; File C:\IAGOS\server\v18\Source\Source\_Common\MoverParam.cpp

; 599  : 	int nAbilityMax = GetParam( DST_ABILITY_MAX, pItemProp->dwAbilityMax );

  00048	33 c0		 xor	 eax, eax
  0004a	8b ce		 mov	 ecx, esi
  0004c	ff b0 e8 00 00
	00		 push	 DWORD PTR [eax+232]
  00052	6a 0d		 push	 13			; 0000000dH
  00054	e8 00 00 00 00	 call	 ?GetParam@CMover@@QAEHHH@Z ; CMover::GetParam

; 600  : 	return nAbilityMax;

  00059	5e		 pop	 esi

; 601  : }

  0005a	5d		 pop	 ebp
  0005b	c2 04 00	 ret	 4
?GetItemAbilityMax@CMover@@QAEHH@Z ENDP			; CMover::GetItemAbilityMax
_TEXT	ENDS
; Function compile flags: /Ogtp
; File C:\IAGOS\server\v18\Source\Source\_Common\MoverParam.cpp
; File C:\IAGOS\server\v18\Source\Source\_Common\Project.h
; File C:\IAGOS\server\v18\Source\Source\_Common\MoverParam.cpp
; File C:\IAGOS\server\v18\Source\Source\_Common\Project.h
; File C:\IAGOS\server\v18\Source\Source\_Common\data.h
; File C:\IAGOS\server\v18\Source\Source\_Common\MoverParam.cpp
; File C:\IAGOS\server\v18\Source\Source\_Common\Project.h
; File C:\IAGOS\server\v18\Source\Source\_Common\MoverParam.cpp
;	COMDAT ?GetItemAbilityMin@CMover@@QAEHH@Z
_TEXT	SEGMENT
_nItem$ = 8						; size = 4
?GetItemAbilityMin@CMover@@QAEHH@Z PROC			; CMover::GetItemAbilityMin, COMDAT
; _this$ = ecx

; 590  : {

  00000	55		 push	 ebp
  00001	8b ec		 mov	 ebp, esp
; File C:\IAGOS\server\v18\Source\Source\_Common\Project.h

; 1389 : 	VERIFY_RANGE_ASSERT( nIndex, 0, m_aPropItem.GetSize(), "GetItemProp range_error", NULL );

  00003	8b 55 08	 mov	 edx, DWORD PTR _nItem$[ebp]
  00006	a1 40 02 00 00	 mov	 eax, DWORD PTR ?prj@@3VCProject@@A+576
; File C:\IAGOS\server\v18\Source\Source\_Common\MoverParam.cpp

; 590  : {

  0000b	56		 push	 esi
  0000c	8b f1		 mov	 esi, ecx
; File C:\IAGOS\server\v18\Source\Source\_Common\Project.h

; 1389 : 	VERIFY_RANGE_ASSERT( nIndex, 0, m_aPropItem.GetSize(), "GetItemProp range_error", NULL );

  0000e	85 d2		 test	 edx, edx
  00010	78 20		 js	 SHORT $LN8@GetItemAbi
  00012	3b d0		 cmp	 edx, eax
  00014	7d 1c		 jge	 SHORT $LN8@GetItemAbi
; File C:\IAGOS\server\v18\Source\Source\_Common\data.h

; 270  : 	if( dwIndex >= (DWORD)m_nMaxIndex )

  00016	73 30		 jae	 SHORT $LN18@GetItemAbi

; 271  : 		return NULL;
; 272  : 	return (T*) m_apOffset[ dwIndex ];

  00018	a1 30 02 00 00	 mov	 eax, DWORD PTR ?prj@@3VCProject@@A+560
  0001d	8b 04 90	 mov	 eax, DWORD PTR [eax+edx*4]
; File C:\IAGOS\server\v18\Source\Source\_Common\MoverParam.cpp

; 592  : 	int nAbilityMin = GetParam( DST_ABILITY_MIN, pItemProp->dwAbilityMin );

  00020	ff b0 e4 00 00
	00		 push	 DWORD PTR [eax+228]
  00026	6a 0c		 push	 12			; 0000000cH
  00028	e8 00 00 00 00	 call	 ?GetParam@CMover@@QAEHHH@Z ; CMover::GetParam

; 593  : 	return nAbilityMin;

  0002d	5e		 pop	 esi

; 594  : }

  0002e	5d		 pop	 ebp
  0002f	c2 04 00	 ret	 4
$LN8@GetItemAbi:
; File C:\IAGOS\server\v18\Source\Source\_Common\Project.h

; 579  : 	LPCTSTR szErr = Error( _T( "%s min:%d, max:%d, index:%d" ), szMsg, nMin, nMax, nIndex ); 

  00032	52		 push	 edx
  00033	50		 push	 eax
  00034	6a 00		 push	 0
  00036	68 00 00 00 00	 push	 OFFSET ??_C@_0BI@BEIFNGEL@GetItemProp?5range_error@
  0003b	68 00 00 00 00	 push	 OFFSET ??_C@_0BM@HMFGHCP@?$CFs?5min?3?$CFd?0?5max?3?$CFd?0?5index?3?$CFd@
  00040	e8 00 00 00 00	 call	 ?Error@@YAPBDPBDZZ	; Error
  00045	83 c4 14	 add	 esp, 20			; 00000014H
$LN18@GetItemAbi:
; File C:\IAGOS\server\v18\Source\Source\_Common\MoverParam.cpp

; 592  : 	int nAbilityMin = GetParam( DST_ABILITY_MIN, pItemProp->dwAbilityMin );

  00048	33 c0		 xor	 eax, eax
  0004a	8b ce		 mov	 ecx, esi
  0004c	ff b0 e4 00 00
	00		 push	 DWORD PTR [eax+228]
  00052	6a 0c		 push	 12			; 0000000cH
  00054	e8 00 00 00 00	 call	 ?GetParam@CMover@@QAEHHH@Z ; CMover::GetParam

; 593  : 	return nAbilityMin;

  00059	5e		 pop	 esi

; 594  : }

  0005a	5d		 pop	 ebp
  0005b	c2 04 00	 ret	 4
?GetItemAbilityMin@CMover@@QAEHH@Z ENDP			; CMover::GetItemAbilityMin
_TEXT	ENDS
; Function compile flags: /Ogtp
; File C:\IAGOS\server\v18\Source\Source\_Common\MoverParam.cpp
; File C:\IAGOS\server\v18\Source\Source\_Common\Project.h
; File C:\IAGOS\server\v18\Source\Source\_Common\MoverParam.cpp
; File C:\IAGOS\server\v18\Source\Source\_Common\Project.h
; File C:\IAGOS\server\v18\Source\Source\_Common\data.h
; File C:\IAGOS\server\v18\Source\Source\_Common\Project.h
; File C:\IAGOS\server\v18\Source\Source\_Common\MoverParam.cpp
; File C:\IAGOS\server\v18\Source\Source\_Common\xUtil.h
; File C:\IAGOS\server\v18\Source\Source\_Common\MoverParam.cpp
; File C:\IAGOS\server\v18\Source\Source\_Common\xUtil.h
; File C:\IAGOS\server\v18\Source\Source\_Common\MoverParam.cpp
;	COMDAT ?GetItemAbility@CMover@@QAEHH@Z
_TEXT	SEGMENT
_nItem$ = 8						; size = 4
?GetItemAbility@CMover@@QAEHH@Z PROC			; CMover::GetItemAbility, COMDAT
; _this$ = ecx

; 580  : {

  00000	55		 push	 ebp
  00001	8b ec		 mov	 ebp, esp
; File C:\IAGOS\server\v18\Source\Source\_Common\Project.h

; 1389 : 	VERIFY_RANGE_ASSERT( nIndex, 0, m_aPropItem.GetSize(), "GetItemProp range_error", NULL );

  00003	8b 55 08	 mov	 edx, DWORD PTR _nItem$[ebp]
  00006	a1 40 02 00 00	 mov	 eax, DWORD PTR ?prj@@3VCProject@@A+576
; File C:\IAGOS\server\v18\Source\Source\_Common\MoverParam.cpp

; 580  : {

  0000b	53		 push	 ebx
  0000c	8b d9		 mov	 ebx, ecx
  0000e	56		 push	 esi
  0000f	57		 push	 edi
; File C:\IAGOS\server\v18\Source\Source\_Common\Project.h

; 1389 : 	VERIFY_RANGE_ASSERT( nIndex, 0, m_aPropItem.GetSize(), "GetItemProp range_error", NULL );

  00010	85 d2		 test	 edx, edx
  00012	78 10		 js	 SHORT $LN9@GetItemAbi
  00014	3b d0		 cmp	 edx, eax
  00016	7d 0c		 jge	 SHORT $LN9@GetItemAbi
; File C:\IAGOS\server\v18\Source\Source\_Common\data.h

; 270  : 	if( dwIndex >= (DWORD)m_nMaxIndex )

  00018	73 20		 jae	 SHORT $LN22@GetItemAbi

; 271  : 		return NULL;
; 272  : 	return (T*) m_apOffset[ dwIndex ];

  0001a	a1 30 02 00 00	 mov	 eax, DWORD PTR ?prj@@3VCProject@@A+560
  0001f	8b 34 90	 mov	 esi, DWORD PTR [eax+edx*4]
; File C:\IAGOS\server\v18\Source\Source\_Common\Project.h

; 1390 : 	return m_aPropItem.GetAt( nIndex ); 

  00022	eb 18		 jmp	 SHORT $LN4@GetItemAbi
$LN9@GetItemAbi:

; 579  : 	LPCTSTR szErr = Error( _T( "%s min:%d, max:%d, index:%d" ), szMsg, nMin, nMax, nIndex ); 

  00024	52		 push	 edx
  00025	50		 push	 eax
  00026	6a 00		 push	 0
  00028	68 00 00 00 00	 push	 OFFSET ??_C@_0BI@BEIFNGEL@GetItemProp?5range_error@
  0002d	68 00 00 00 00	 push	 OFFSET ??_C@_0BM@HMFGHCP@?$CFs?5min?3?$CFd?0?5max?3?$CFd?0?5index?3?$CFd@
  00032	e8 00 00 00 00	 call	 ?Error@@YAPBDPBDZZ	; Error
  00037	83 c4 14	 add	 esp, 20			; 00000014H
$LN22@GetItemAbi:
; File C:\IAGOS\server\v18\Source\Source\_Common\MoverParam.cpp

; 582  : 	int nAbilityMin = GetParam( DST_ABILITY_MIN, pItemProp->dwAbilityMin );

  0003a	33 f6		 xor	 esi, esi
$LN4@GetItemAbi:
  0003c	ff b6 e4 00 00
	00		 push	 DWORD PTR [esi+228]
  00042	8b cb		 mov	 ecx, ebx
  00044	6a 0c		 push	 12			; 0000000cH
  00046	e8 00 00 00 00	 call	 ?GetParam@CMover@@QAEHHH@Z ; CMover::GetParam

; 583  : 	int nAbilityMax = GetParam( DST_ABILITY_MAX, pItemProp->dwAbilityMax );

  0004b	ff b6 e8 00 00
	00		 push	 DWORD PTR [esi+232]
  00051	8b cb		 mov	 ecx, ebx
  00053	8b f8		 mov	 edi, eax
  00055	6a 0d		 push	 13			; 0000000dH
  00057	e8 00 00 00 00	 call	 ?GetParam@CMover@@QAEHHH@Z ; CMover::GetParam
  0005c	8b c8		 mov	 ecx, eax

; 584  : 	if( nAbilityMax == nAbilityMin )

  0005e	3b cf		 cmp	 ecx, edi
  00060	75 09		 jne	 SHORT $LN2@GetItemAbi

; 585  : 		return nAbilityMin;

  00062	8b c7		 mov	 eax, edi
  00064	5f		 pop	 edi

; 587  : }

  00065	5e		 pop	 esi
  00066	5b		 pop	 ebx
  00067	5d		 pop	 ebp
  00068	c2 04 00	 ret	 4
$LN2@GetItemAbi:
; File C:\IAGOS\server\v18\Source\Source\_Common\xUtil.h

; 16   : 	g_next = g_next * 1103515245 + 12345;// + nRandomSeed[ i++ ];

  0006b	69 05 00 00 00
	00 6d 4e c6 41	 imul	 eax, DWORD PTR ?g_next@@3KA, 1103515245 ; g_next
; File C:\IAGOS\server\v18\Source\Source\_Common\MoverParam.cpp

; 586  : 	return nAbilityMin + ( xRand() % (nAbilityMax - nAbilityMin ) );

  00075	2b cf		 sub	 ecx, edi
  00077	33 d2		 xor	 edx, edx
; File C:\IAGOS\server\v18\Source\Source\_Common\xUtil.h

; 16   : 	g_next = g_next * 1103515245 + 12345;// + nRandomSeed[ i++ ];

  00079	05 39 30 00 00	 add	 eax, 12345		; 00003039H
  0007e	a3 00 00 00 00	 mov	 DWORD PTR ?g_next@@3KA, eax ; g_next
; File C:\IAGOS\server\v18\Source\Source\_Common\MoverParam.cpp

; 586  : 	return nAbilityMin + ( xRand() % (nAbilityMax - nAbilityMin ) );

  00083	f7 f1		 div	 ecx
  00085	8d 04 17	 lea	 eax, DWORD PTR [edi+edx]
  00088	5f		 pop	 edi

; 587  : }

  00089	5e		 pop	 esi
  0008a	5b		 pop	 ebx
  0008b	5d		 pop	 ebp
  0008c	c2 04 00	 ret	 4
?GetItemAbility@CMover@@QAEHH@Z ENDP			; CMover::GetItemAbility
_TEXT	ENDS
; Function compile flags: /Ogtp
; File C:\IAGOS\server\v18\Source\Source\_Common\MoverParam.cpp
; File C:\IAGOS\server\v18\Source\Source\_Common\Project.h
; File C:\IAGOS\server\v18\Source\Source\_Common\MoverParam.cpp
; File C:\IAGOS\server\v18\Source\Source\_Common\Mover.h
; File C:\IAGOS\server\v18\Source\Source\_Common\Project.h
; File C:\IAGOS\server\v18\Source\Source\_Common\MoverParam.cpp
; File C:\IAGOS\server\v18\Source\Source\_Common\Project.h
; File C:\IAGOS\server\v18\Source\Source\_Common\MoverParam.cpp
;	COMDAT ?GetResistSpell@CMover@@QAEHH@Z
_TEXT	SEGMENT
_nDestParam$ = 8					; size = 4
?GetResistSpell@CMover@@QAEHH@Z PROC			; CMover::GetResistSpell, COMDAT
; _this$ = ecx

; 3295 : {

  00000	55		 push	 ebp
  00001	8b ec		 mov	 ebp, esp
  00003	51		 push	 ecx
  00004	53		 push	 ebx
  00005	8b d9		 mov	 ebx, ecx
; File C:\IAGOS\server\v18\Source\Source\_Common\Project.h

; 1406 : 	VERIFY_RANGE( nIndex, 0, m_nMoverPropSize, "GetMoverProp range_error", NULL );

  00007	8b 0d b4 01 00
	00		 mov	 ecx, DWORD PTR ?prj@@3VCProject@@A+436
; File C:\IAGOS\server\v18\Source\Source\_Common\MoverParam.cpp

; 3295 : {

  0000d	56		 push	 esi
  0000e	57		 push	 edi
; File C:\IAGOS\server\v18\Source\Source\_Common\Mover.h

; 1020 : 	MoverProp*		GetProp() { return prj.GetMoverProp( m_dwIndex ); }	// °´ĂĽŔÇ ÇÁ·ÎĆŰĆĽ ľň±â 	

  0000f	8b 83 74 01 00
	00		 mov	 eax, DWORD PTR [ebx+372]
; File C:\IAGOS\server\v18\Source\Source\_Common\Project.h

; 1406 : 	VERIFY_RANGE( nIndex, 0, m_nMoverPropSize, "GetMoverProp range_error", NULL );

  00015	85 c0		 test	 eax, eax
  00017	78 14		 js	 SHORT $LN19@GetResistS
  00019	3b c1		 cmp	 eax, ecx
  0001b	7d 10		 jge	 SHORT $LN19@GetResistS

; 1407 : 	return m_pPropMover + nIndex;

  0001d	69 f0 90 06 00
	00		 imul	 esi, eax, 1680
  00023	03 35 b8 01 00
	00		 add	 esi, DWORD PTR ?prj@@3VCProject@@A+440
; File C:\IAGOS\server\v18\Source\Source\_Common\MoverParam.cpp

; 3297 : 	if( pProp == NULL )

  00029	75 31		 jne	 SHORT $LN4@GetResistS
  0002b	eb 18		 jmp	 SHORT $LN23@GetResistS
$LN19@GetResistS:
; File C:\IAGOS\server\v18\Source\Source\_Common\Project.h

; 579  : 	LPCTSTR szErr = Error( _T( "%s min:%d, max:%d, index:%d" ), szMsg, nMin, nMax, nIndex ); 

  0002d	50		 push	 eax
  0002e	51		 push	 ecx
  0002f	6a 00		 push	 0
  00031	68 00 00 00 00	 push	 OFFSET ??_C@_0BJ@GKPOBPPI@GetMoverProp?5range_error@
  00036	68 00 00 00 00	 push	 OFFSET ??_C@_0BM@HMFGHCP@?$CFs?5min?3?$CFd?0?5max?3?$CFd?0?5index?3?$CFd@
  0003b	e8 00 00 00 00	 call	 ?Error@@YAPBDPBDZZ	; Error
  00040	83 c4 14	 add	 esp, 20			; 00000014H

; 1406 : 	VERIFY_RANGE( nIndex, 0, m_nMoverPropSize, "GetMoverProp range_error", NULL );

  00043	33 f6		 xor	 esi, esi
$LN23@GetResistS:
; File C:\IAGOS\server\v18\Source\Source\_Common\MoverParam.cpp

; 3298 : 		Error( "CMover::GetReistSpell : %d ÇÁ·ÎĆŰĆĽ ŔĐ±â ˝ÇĆĐ", GetName() );

  00045	6a 00		 push	 0
  00047	8b cb		 mov	 ecx, ebx
  00049	e8 00 00 00 00	 call	 ?GetName@CMover@@QAEPBDH@Z ; CMover::GetName
  0004e	50		 push	 eax
  0004f	68 00 00 00 00	 push	 OFFSET ??_C@_0CO@GBNLCJJD@CMover?3?3GetReistSpell?5?3?5?$CFd?5?G?A?$LH?N@
  00054	e8 00 00 00 00	 call	 ?Error@@YAPBDPBDZZ	; Error
  00059	83 c4 08	 add	 esp, 8
$LN4@GetResistS:

; 3299 : 
; 3300 : 	int		nResist = 0;
; 3301 : 
; 3302 : 	switch( nDestParam )

  0005c	8b 45 08	 mov	 eax, DWORD PTR _nDestParam$[ebp]
  0005f	33 ff		 xor	 edi, edi
  00061	8d 48 e4	 lea	 ecx, DWORD PTR [eax-28]
  00064	83 f9 05	 cmp	 ecx, 5
  00067	77 7f		 ja	 SHORT $LN10@GetResistS
  00069	ff 24 8d 00 00
	00 00		 jmp	 DWORD PTR $LN24@GetResistS[ecx*4]
$LN5@GetResistS:

; 3303 : 	{
; 3304 : 	case DST_RESIST_ELECTRICITY:	nResist = pProp->nResistElecricity;		break;

  00070	8b be 24 01 00
	00		 mov	 edi, DWORD PTR [esi+292]

; 3311 : 		break;
; 3312 : 	}
; 3313 : 	return GetParam( nDestParam, nResist );

  00076	8b cb		 mov	 ecx, ebx
  00078	57		 push	 edi
  00079	50		 push	 eax
  0007a	e8 00 00 00 00	 call	 ?GetParam@CMover@@QAEHHH@Z ; CMover::GetParam
  0007f	5f		 pop	 edi
  00080	5e		 pop	 esi
  00081	5b		 pop	 ebx

; 3314 : }

  00082	8b e5		 mov	 esp, ebp
  00084	5d		 pop	 ebp
  00085	c2 04 00	 ret	 4
$LN6@GetResistS:

; 3305 : 	case DST_RESIST_FIRE:			nResist = pProp->nResistFire;		break;

  00088	8b be 2c 01 00
	00		 mov	 edi, DWORD PTR [esi+300]

; 3311 : 		break;
; 3312 : 	}
; 3313 : 	return GetParam( nDestParam, nResist );

  0008e	8b cb		 mov	 ecx, ebx
  00090	57		 push	 edi
  00091	50		 push	 eax
  00092	e8 00 00 00 00	 call	 ?GetParam@CMover@@QAEHHH@Z ; CMover::GetParam
  00097	5f		 pop	 edi
  00098	5e		 pop	 esi
  00099	5b		 pop	 ebx

; 3314 : }

  0009a	8b e5		 mov	 esp, ebp
  0009c	5d		 pop	 ebp
  0009d	c2 04 00	 ret	 4
$LN7@GetResistS:

; 3306 : 	case DST_RESIST_WATER:			nResist = pProp->nResistWater;		break;

  000a0	8b be 34 01 00
	00		 mov	 edi, DWORD PTR [esi+308]

; 3311 : 		break;
; 3312 : 	}
; 3313 : 	return GetParam( nDestParam, nResist );

  000a6	8b cb		 mov	 ecx, ebx
  000a8	57		 push	 edi
  000a9	50		 push	 eax
  000aa	e8 00 00 00 00	 call	 ?GetParam@CMover@@QAEHHH@Z ; CMover::GetParam
  000af	5f		 pop	 edi
  000b0	5e		 pop	 esi
  000b1	5b		 pop	 ebx

; 3314 : }

  000b2	8b e5		 mov	 esp, ebp
  000b4	5d		 pop	 ebp
  000b5	c2 04 00	 ret	 4
$LN8@GetResistS:

; 3307 : 	case DST_RESIST_EARTH:			nResist = pProp->nResistEarth;		break;

  000b8	8b be 38 01 00
	00		 mov	 edi, DWORD PTR [esi+312]

; 3311 : 		break;
; 3312 : 	}
; 3313 : 	return GetParam( nDestParam, nResist );

  000be	8b cb		 mov	 ecx, ebx
  000c0	57		 push	 edi
  000c1	50		 push	 eax
  000c2	e8 00 00 00 00	 call	 ?GetParam@CMover@@QAEHHH@Z ; CMover::GetParam
  000c7	5f		 pop	 edi
  000c8	5e		 pop	 esi
  000c9	5b		 pop	 ebx

; 3314 : }

  000ca	8b e5		 mov	 esp, ebp
  000cc	5d		 pop	 ebp
  000cd	c2 04 00	 ret	 4
$LN9@GetResistS:

; 3308 : 	case DST_RESIST_WIND:			nResist = pProp->nResistWind;		break;

  000d0	8b be 30 01 00
	00		 mov	 edi, DWORD PTR [esi+304]

; 3311 : 		break;
; 3312 : 	}
; 3313 : 	return GetParam( nDestParam, nResist );

  000d6	8b cb		 mov	 ecx, ebx
  000d8	57		 push	 edi
  000d9	50		 push	 eax
  000da	e8 00 00 00 00	 call	 ?GetParam@CMover@@QAEHHH@Z ; CMover::GetParam
  000df	5f		 pop	 edi
  000e0	5e		 pop	 esi
  000e1	5b		 pop	 ebx

; 3314 : }

  000e2	8b e5		 mov	 esp, ebp
  000e4	5d		 pop	 ebp
  000e5	c2 04 00	 ret	 4
$LN10@GetResistS:

; 3309 : 	default:
; 3310 : 		Error( "CMover::GetResistSpell : %s ĆÄ¶ó¸ŢĹÍ Ŕß¸řµĘ %d", GetName(), nDestParam );

  000e8	50		 push	 eax
  000e9	6a 00		 push	 0
  000eb	8b cb		 mov	 ecx, ebx
  000ed	e8 00 00 00 00	 call	 ?GetName@CMover@@QAEPBDH@Z ; CMover::GetName
  000f2	50		 push	 eax
  000f3	68 00 00 00 00	 push	 OFFSET ??_C@_0CP@LCMNFNMN@CMover?3?3GetResistSpell?5?3?5?$CFs?5?F?D?$LG@
  000f8	e8 00 00 00 00	 call	 ?Error@@YAPBDPBDZZ	; Error
  000fd	8b 45 08	 mov	 eax, DWORD PTR _nDestParam$[ebp]
  00100	83 c4 0c	 add	 esp, 12			; 0000000cH

; 3311 : 		break;
; 3312 : 	}
; 3313 : 	return GetParam( nDestParam, nResist );

  00103	8b cb		 mov	 ecx, ebx
  00105	57		 push	 edi
  00106	50		 push	 eax
  00107	e8 00 00 00 00	 call	 ?GetParam@CMover@@QAEHHH@Z ; CMover::GetParam
  0010c	5f		 pop	 edi
  0010d	5e		 pop	 esi
  0010e	5b		 pop	 ebx

; 3314 : }

  0010f	8b e5		 mov	 esp, ebp
  00111	5d		 pop	 ebp
  00112	c2 04 00	 ret	 4
  00115	0f 1f 00	 npad	 3
$LN24@GetResistS:
  00118	00 00 00 00	 DD	 $LN5@GetResistS
  0011c	00 00 00 00	 DD	 $LN10@GetResistS
  00120	00 00 00 00	 DD	 $LN6@GetResistS
  00124	00 00 00 00	 DD	 $LN9@GetResistS
  00128	00 00 00 00	 DD	 $LN7@GetResistS
  0012c	00 00 00 00	 DD	 $LN8@GetResistS
?GetResistSpell@CMover@@QAEHH@Z ENDP			; CMover::GetResistSpell
_TEXT	ENDS
; Function compile flags: /Ogtp
; File C:\IAGOS\server\v18\Source\Source\_Common\MoverParam.cpp
;	COMDAT ?GetResistMagic@CMover@@QAEHXZ
_TEXT	SEGMENT
?GetResistMagic@CMover@@QAEHXZ PROC			; CMover::GetResistMagic, COMDAT
; _this$ = ecx

; 3292 : 	return GetParam( DST_RESIST_MAGIC, 0 );

  00000	6a 00		 push	 0
  00002	6a 1b		 push	 27			; 0000001bH
  00004	e8 00 00 00 00	 call	 ?GetParam@CMover@@QAEHHH@Z ; CMover::GetParam

; 3293 : }

  00009	c3		 ret	 0
?GetResistMagic@CMover@@QAEHXZ ENDP			; CMover::GetResistMagic
_TEXT	ENDS
; Function compile flags: /Ogtp
; File C:\IAGOS\server\v18\Source\Source\_Common\MoverParam.cpp
; File C:\IAGOS\server\v18\Source\Source\_Common\Mover.h
; File C:\IAGOS\server\v18\Source\Source\_Common\Project.h
; File C:\IAGOS\server\v18\Source\Source\_Common\MoverParam.cpp
; File C:\IAGOS\server\v18\Source\Source\_Common\Project.h
; File C:\IAGOS\server\v18\Source\Source\_Common\MoverParam.cpp
;	COMDAT ?GetParrying@CMover@@QAEHXZ
_TEXT	SEGMENT
?GetParrying@CMover@@QAEHXZ PROC			; CMover::GetParrying, COMDAT
; _this$ = ecx

; 556  : {

  00000	57		 push	 edi
  00001	8b f9		 mov	 edi, ecx

; 557  : 	if( IsPlayer() )

  00003	83 bf 30 02 00
	00 00		 cmp	 DWORD PTR [edi+560], 0
  0000a	74 38		 je	 SHORT $LN2@GetParryin

; 558  : 		return	( (int)( (GetDex() * 0.5f) + GetParam( DST_PARRY, m_nAdjParry ) ) );

  0000c	56		 push	 esi
  0000d	ff b7 14 06 00
	00		 push	 DWORD PTR [edi+1556]
  00013	6a 41		 push	 65			; 00000041H
  00015	e8 00 00 00 00	 call	 ?GetParam@CMover@@QAEHHH@Z ; CMover::GetParam
  0001a	8b cf		 mov	 ecx, edi
  0001c	8b f0		 mov	 esi, eax
  0001e	e8 00 00 00 00	 call	 ?GetDex@CMover@@QAEHXZ	; CMover::GetDex
  00023	66 0f 6e ce	 movd	 xmm1, esi
  00027	0f 5b c9	 cvtdq2ps xmm1, xmm1
  0002a	5e		 pop	 esi
  0002b	5f		 pop	 edi
  0002c	66 0f 6e c0	 movd	 xmm0, eax
  00030	0f 5b c0	 cvtdq2ps xmm0, xmm0
  00033	f3 0f 59 05 00
	00 00 00	 mulss	 xmm0, DWORD PTR __real@3f000000
  0003b	f3 0f 58 c8	 addss	 xmm1, xmm0
  0003f	f3 0f 2c c1	 cvttss2si eax, xmm1

; 561  : }

  00043	c3		 ret	 0
$LN2@GetParryin:
; File C:\IAGOS\server\v18\Source\Source\_Common\Mover.h

; 1020 : 	MoverProp*		GetProp() { return prj.GetMoverProp( m_dwIndex ); }	// °´ĂĽŔÇ ÇÁ·ÎĆŰĆĽ ľň±â 	

  00044	8b 87 74 01 00
	00		 mov	 eax, DWORD PTR [edi+372]
; File C:\IAGOS\server\v18\Source\Source\_Common\Project.h

; 1406 : 	VERIFY_RANGE( nIndex, 0, m_nMoverPropSize, "GetMoverProp range_error", NULL );

  0004a	8b 0d b4 01 00
	00		 mov	 ecx, DWORD PTR ?prj@@3VCProject@@A+436
  00050	85 c0		 test	 eax, eax
  00052	78 15		 js	 SHORT $LN12@GetParryin
  00054	3b c1		 cmp	 eax, ecx
  00056	7d 11		 jge	 SHORT $LN12@GetParryin

; 1407 : 	return m_pPropMover + nIndex;

  00058	69 c0 90 06 00
	00		 imul	 eax, eax, 1680
  0005e	5f		 pop	 edi
  0005f	03 05 b8 01 00
	00		 add	 eax, DWORD PTR ?prj@@3VCProject@@A+440
; File C:\IAGOS\server\v18\Source\Source\_Common\MoverParam.cpp

; 560  : 		return GetProp()->dwER;

  00065	8b 40 78	 mov	 eax, DWORD PTR [eax+120]

; 561  : }

  00068	c3		 ret	 0
$LN12@GetParryin:
; File C:\IAGOS\server\v18\Source\Source\_Common\Project.h

; 579  : 	LPCTSTR szErr = Error( _T( "%s min:%d, max:%d, index:%d" ), szMsg, nMin, nMax, nIndex ); 

  00069	50		 push	 eax
  0006a	51		 push	 ecx
  0006b	6a 00		 push	 0
  0006d	68 00 00 00 00	 push	 OFFSET ??_C@_0BJ@GKPOBPPI@GetMoverProp?5range_error@
  00072	68 00 00 00 00	 push	 OFFSET ??_C@_0BM@HMFGHCP@?$CFs?5min?3?$CFd?0?5max?3?$CFd?0?5index?3?$CFd@
  00077	e8 00 00 00 00	 call	 ?Error@@YAPBDPBDZZ	; Error
  0007c	83 c4 14	 add	 esp, 20			; 00000014H

; 1406 : 	VERIFY_RANGE( nIndex, 0, m_nMoverPropSize, "GetMoverProp range_error", NULL );

  0007f	33 c0		 xor	 eax, eax
; File C:\IAGOS\server\v18\Source\Source\_Common\MoverParam.cpp

; 560  : 		return GetProp()->dwER;

  00081	8b 40 78	 mov	 eax, DWORD PTR [eax+120]
  00084	5f		 pop	 edi

; 561  : }

  00085	c3		 ret	 0
?GetParrying@CMover@@QAEHXZ ENDP			; CMover::GetParrying
_TEXT	ENDS
; Function compile flags: /Ogtp
; File C:\IAGOS\server\v18\Source\Source\_Common\MoverParam.cpp
;	COMDAT ?GetAdjHitRate@CMover@@QAEHXZ
_TEXT	SEGMENT
?GetAdjHitRate@CMover@@QAEHXZ PROC			; CMover::GetAdjHitRate, COMDAT
; _this$ = ecx

; 551  : 	return GetParam( DST_ADJ_HITRATE, m_nAdjHitRate );

  00000	ff b1 10 06 00
	00		 push	 DWORD PTR [ecx+1552]
  00006	6a 2f		 push	 47			; 0000002fH
  00008	e8 00 00 00 00	 call	 ?GetParam@CMover@@QAEHHH@Z ; CMover::GetParam

; 552  : }

  0000d	c3		 ret	 0
?GetAdjHitRate@CMover@@QAEHXZ ENDP			; CMover::GetAdjHitRate
_TEXT	ENDS
; Function compile flags: /Ogtp
; File C:\IAGOS\server\v18\Source\Source\_Common\MoverParam.cpp
; File C:\IAGOS\server\v18\Source\Source\_Common\Mover.h
; File C:\IAGOS\server\v18\Source\Source\_Common\Project.h
; File C:\IAGOS\server\v18\Source\Source\_Common\MoverParam.cpp
; File C:\IAGOS\server\v18\Source\Source\_Common\Project.h
; File C:\IAGOS\server\v18\Source\Source\_Common\MoverParam.cpp
;	COMDAT ?GetNaturalArmor@CMover@@QAEHXZ
_TEXT	SEGMENT
?GetNaturalArmor@CMover@@QAEHXZ PROC			; CMover::GetNaturalArmor, COMDAT
; _this$ = ecx
; File C:\IAGOS\server\v18\Source\Source\_Common\Mover.h

; 1020 : 	MoverProp*		GetProp() { return prj.GetMoverProp( m_dwIndex ); }	// °´ĂĽŔÇ ÇÁ·ÎĆŰĆĽ ľň±â 	

  00000	8b 81 74 01 00
	00		 mov	 eax, DWORD PTR [ecx+372]
; File C:\IAGOS\server\v18\Source\Source\_Common\Project.h

; 1406 : 	VERIFY_RANGE( nIndex, 0, m_nMoverPropSize, "GetMoverProp range_error", NULL );

  00006	8b 0d b4 01 00
	00		 mov	 ecx, DWORD PTR ?prj@@3VCProject@@A+436
  0000c	85 c0		 test	 eax, eax
  0000e	78 17		 js	 SHORT $LN10@GetNatural
  00010	3b c1		 cmp	 eax, ecx
  00012	7d 13		 jge	 SHORT $LN10@GetNatural

; 1407 : 	return m_pPropMover + nIndex;

  00014	69 c0 90 06 00
	00		 imul	 eax, eax, 1680
  0001a	03 05 b8 01 00
	00		 add	 eax, DWORD PTR ?prj@@3VCProject@@A+440
; File C:\IAGOS\server\v18\Source\Source\_Common\MoverParam.cpp

; 3319 : }

  00020	8b 80 ec 00 00
	00		 mov	 eax, DWORD PTR [eax+236]
  00026	c3		 ret	 0
$LN10@GetNatural:
; File C:\IAGOS\server\v18\Source\Source\_Common\Project.h

; 579  : 	LPCTSTR szErr = Error( _T( "%s min:%d, max:%d, index:%d" ), szMsg, nMin, nMax, nIndex ); 

  00027	50		 push	 eax
  00028	51		 push	 ecx
  00029	6a 00		 push	 0
  0002b	68 00 00 00 00	 push	 OFFSET ??_C@_0BJ@GKPOBPPI@GetMoverProp?5range_error@
  00030	68 00 00 00 00	 push	 OFFSET ??_C@_0BM@HMFGHCP@?$CFs?5min?3?$CFd?0?5max?3?$CFd?0?5index?3?$CFd@
  00035	e8 00 00 00 00	 call	 ?Error@@YAPBDPBDZZ	; Error

; 1406 : 	VERIFY_RANGE( nIndex, 0, m_nMoverPropSize, "GetMoverProp range_error", NULL );

  0003a	33 c0		 xor	 eax, eax

; 579  : 	LPCTSTR szErr = Error( _T( "%s min:%d, max:%d, index:%d" ), szMsg, nMin, nMax, nIndex ); 

  0003c	83 c4 14	 add	 esp, 20			; 00000014H
; File C:\IAGOS\server\v18\Source\Source\_Common\MoverParam.cpp

; 3319 : }

  0003f	8b 80 ec 00 00
	00		 mov	 eax, DWORD PTR [eax+236]
  00045	c3		 ret	 0
?GetNaturalArmor@CMover@@QAEHXZ ENDP			; CMover::GetNaturalArmor
_TEXT	ENDS
; Function compile flags: /Ogtp
; File C:\IAGOS\server\v18\Source\Source\_Common\MoverParam.cpp
;	COMDAT ?GetFPRecovery@CMover@@QAEHXZ
_TEXT	SEGMENT
tv199 = -8						; size = 4
tv211 = -8						; size = 4
_fFactor$1$ = -4					; size = 4
?GetFPRecovery@CMover@@QAEHXZ PROC			; CMover::GetFPRecovery, COMDAT
; _this$ = ecx

; 3158 : {

  00000	55		 push	 ebp
  00001	8b ec		 mov	 ebp, esp
  00003	83 ec 08	 sub	 esp, 8

; 3159 : 	float fFactor = 1.0f;

  00006	f3 0f 10 05 00
	00 00 00	 movss	 xmm0, DWORD PTR __real@3f800000
  0000e	56		 push	 esi
  0000f	8b f1		 mov	 esi, ecx
  00011	f3 0f 11 45 fc	 movss	 DWORD PTR _fFactor$1$[ebp], xmm0

; 3160 : 	if( IsPlayer() )

  00016	83 be 30 02 00
	00 00		 cmp	 DWORD PTR [esi+560], 0
  0001d	74 1a		 je	 SHORT $LN2@GetFPRecov

; 3161 : 	{
; 3162 : 		JobProp* pProperty = prj.GetJobProp( GetJob() ); 

  0001f	e8 00 00 00 00	 call	 ?GetJob@CMover@@QAEHXZ	; CMover::GetJob
  00024	50		 push	 eax
  00025	b9 00 00 00 00	 mov	 ecx, OFFSET ?prj@@3VCProject@@A ; prj
  0002a	e8 00 00 00 00	 call	 ?GetJobProp@CProject@@QAEPAUJobProp@@H@Z ; CProject::GetJobProp

; 3163 : 		fFactor = pProperty->fFactorFPRecovery;

  0002f	f3 0f 10 40 1c	 movss	 xmm0, DWORD PTR [eax+28]
  00034	f3 0f 11 45 fc	 movss	 DWORD PTR _fFactor$1$[ebp], xmm0
$LN2@GetFPRecov:

; 3164 : 	}
; 3165 : 	// ((·ąş§*2)+(MaxFP/(500*·ąş§))+(STA*Job°čĽö))*0.2
; 3166 : 	int nValue = (int)( ((GetLevel() * 2.0f) + (GetMaxFatiguePoint() / (500.f * GetLevel())) + (GetSta() * fFactor)) * 0.2f );

  00039	66 0f 6e 86 d8
	05 00 00	 movd	 xmm0, DWORD PTR [esi+1496]
  00041	8b ce		 mov	 ecx, esi
  00043	0f 5b c0	 cvtdq2ps xmm0, xmm0
  00046	f3 0f 11 45 f8	 movss	 DWORD PTR tv199[ebp], xmm0
  0004b	e8 00 00 00 00	 call	 ?GetMaxFatiguePoint@CMover@@QAEHXZ ; CMover::GetMaxFatiguePoint
  00050	f3 0f 10 4d f8	 movss	 xmm1, DWORD PTR tv199[ebp]
  00055	8b ce		 mov	 ecx, esi
  00057	0f 28 c1	 movaps	 xmm0, xmm1
  0005a	f3 0f 58 c9	 addss	 xmm1, xmm1
  0005e	f3 0f 59 05 00
	00 00 00	 mulss	 xmm0, DWORD PTR __real@43fa0000
  00066	66 0f 6e d0	 movd	 xmm2, eax
  0006a	0f 5b d2	 cvtdq2ps xmm2, xmm2
  0006d	f3 0f 5e d0	 divss	 xmm2, xmm0
  00071	f3 0f 58 d1	 addss	 xmm2, xmm1
  00075	f3 0f 11 55 f8	 movss	 DWORD PTR tv211[ebp], xmm2
  0007a	e8 00 00 00 00	 call	 ?GetSta@CMover@@QAEHXZ	; CMover::GetSta

; 3167 : #if __VER >= 9 // __RECOVERY10
; 3168 : 	nValue	= (int)( nValue - ( nValue * 0.1f ) ); // Č¸şą·® 10% ÇĎÇâ
; 3169 : #endif //__RECOVERY10
; 3170 : 	return GetParam( DST_FP_RECOVERY, nValue );

  0007f	8b ce		 mov	 ecx, esi
  00081	66 0f 6e c0	 movd	 xmm0, eax
  00085	0f 5b c0	 cvtdq2ps xmm0, xmm0
  00088	f3 0f 59 45 fc	 mulss	 xmm0, DWORD PTR _fFactor$1$[ebp]
  0008d	f3 0f 58 45 f8	 addss	 xmm0, DWORD PTR tv211[ebp]
  00092	f3 0f 59 05 00
	00 00 00	 mulss	 xmm0, DWORD PTR __real@3e4ccccd
  0009a	f3 0f 2c c0	 cvttss2si eax, xmm0
  0009e	66 0f 6e c8	 movd	 xmm1, eax
  000a2	0f 5b c9	 cvtdq2ps xmm1, xmm1
  000a5	0f 28 c1	 movaps	 xmm0, xmm1
  000a8	f3 0f 59 05 00
	00 00 00	 mulss	 xmm0, DWORD PTR __real@3dcccccd
  000b0	f3 0f 5c c8	 subss	 xmm1, xmm0
  000b4	f3 0f 2c c1	 cvttss2si eax, xmm1
  000b8	50		 push	 eax
  000b9	6a 2b		 push	 43			; 0000002bH
  000bb	e8 00 00 00 00	 call	 ?GetParam@CMover@@QAEHHH@Z ; CMover::GetParam
  000c0	5e		 pop	 esi

; 3171 : }

  000c1	8b e5		 mov	 esp, ebp
  000c3	5d		 pop	 ebp
  000c4	c3		 ret	 0
?GetFPRecovery@CMover@@QAEHXZ ENDP			; CMover::GetFPRecovery
_TEXT	ENDS
; Function compile flags: /Ogtp
; File C:\IAGOS\server\v18\Source\Source\_Common\MoverParam.cpp
; File C:\IAGOS\server\v18\Source\Source\_Common\Mover.h
; File C:\IAGOS\server\v18\Source\Source\_Common\MoverParam.cpp
;	COMDAT ?GetMPRecovery@CMover@@QAEHXZ
_TEXT	SEGMENT
tv184 = -8						; size = 4
_fFactor$1$ = -4					; size = 4
?GetMPRecovery@CMover@@QAEHXZ PROC			; CMover::GetMPRecovery, COMDAT
; _this$ = ecx

; 3141 : {

  00000	55		 push	 ebp
  00001	8b ec		 mov	 ebp, esp
  00003	83 ec 08	 sub	 esp, 8

; 3142 : 	float fFactor = 1.0f;

  00006	f3 0f 10 05 00
	00 00 00	 movss	 xmm0, DWORD PTR __real@3f800000
  0000e	56		 push	 esi
  0000f	57		 push	 edi
  00010	8b f9		 mov	 edi, ecx
  00012	f3 0f 11 45 fc	 movss	 DWORD PTR _fFactor$1$[ebp], xmm0

; 3143 : 	if( IsPlayer() )

  00017	83 bf 30 02 00
	00 00		 cmp	 DWORD PTR [edi+560], 0
  0001e	74 1a		 je	 SHORT $LN2@GetMPRecov

; 3144 : 	{
; 3145 : 		JobProp* pProperty = prj.GetJobProp( GetJob() ); 

  00020	e8 00 00 00 00	 call	 ?GetJob@CMover@@QAEHXZ	; CMover::GetJob
  00025	50		 push	 eax
  00026	b9 00 00 00 00	 mov	 ecx, OFFSET ?prj@@3VCProject@@A ; prj
  0002b	e8 00 00 00 00	 call	 ?GetJobProp@CProject@@QAEPAUJobProp@@H@Z ; CProject::GetJobProp

; 3146 : 		fFactor = pProperty->fFactorMPRecovery;

  00030	f3 0f 10 40 18	 movss	 xmm0, DWORD PTR [eax+24]
  00035	f3 0f 11 45 fc	 movss	 DWORD PTR _fFactor$1$[ebp], xmm0
$LN2@GetMPRecov:
; File C:\IAGOS\server\v18\Source\Source\_Common\Mover.h

; 1133 : 	int				GetLevel() { return m_nLevel; }

  0003a	8b b7 d8 05 00
	00		 mov	 esi, DWORD PTR [edi+1496]
; File C:\IAGOS\server\v18\Source\Source\_Common\MoverParam.cpp

; 3150 : 	int nValue = (int)( ((GetLevel() * 1.5f) + (GetMaxManaPoint() / (500.f * GetLevel())) + (GetInt() * fFactor)) * 0.2f );

  00040	8b cf		 mov	 ecx, edi
  00042	e8 00 00 00 00	 call	 ?GetMaxManaPoint@CMover@@QAEHXZ ; CMover::GetMaxManaPoint
  00047	66 0f 6e c6	 movd	 xmm0, esi
  0004b	8b cf		 mov	 ecx, edi
  0004d	0f 5b c0	 cvtdq2ps xmm0, xmm0
  00050	66 0f 6e c8	 movd	 xmm1, eax
  00054	f3 0f 59 05 00
	00 00 00	 mulss	 xmm0, DWORD PTR __real@43fa0000
  0005c	0f 5b c9	 cvtdq2ps xmm1, xmm1
  0005f	f3 0f 5e c8	 divss	 xmm1, xmm0
  00063	f3 0f 11 4d f8	 movss	 DWORD PTR tv184[ebp], xmm1
  00068	e8 00 00 00 00	 call	 ?GetInt@CMover@@QAEHXZ	; CMover::GetInt
  0006d	66 0f 6e 87 d8
	05 00 00	 movd	 xmm0, DWORD PTR [edi+1496]

; 3151 : #if __VER >= 9 // __RECOVERY10
; 3152 : 	nValue	= (int)( nValue - ( nValue * 0.1f ) ); // Č¸şą·® 10% ÇĎÇâ
; 3153 : #endif //__RECOVERY10
; 3154 : 	return GetParam( DST_MP_RECOVERY, nValue );

  00075	8b cf		 mov	 ecx, edi
  00077	0f 5b c0	 cvtdq2ps xmm0, xmm0
  0007a	66 0f 6e c8	 movd	 xmm1, eax
  0007e	f3 0f 59 05 00
	00 00 00	 mulss	 xmm0, DWORD PTR __real@3fc00000
  00086	0f 5b c9	 cvtdq2ps xmm1, xmm1
  00089	f3 0f 58 45 f8	 addss	 xmm0, DWORD PTR tv184[ebp]
  0008e	f3 0f 59 4d fc	 mulss	 xmm1, DWORD PTR _fFactor$1$[ebp]
  00093	f3 0f 58 c8	 addss	 xmm1, xmm0
  00097	f3 0f 59 0d 00
	00 00 00	 mulss	 xmm1, DWORD PTR __real@3e4ccccd
  0009f	f3 0f 2c c1	 cvttss2si eax, xmm1
  000a3	66 0f 6e c8	 movd	 xmm1, eax
  000a7	0f 5b c9	 cvtdq2ps xmm1, xmm1
  000aa	0f 28 c1	 movaps	 xmm0, xmm1
  000ad	f3 0f 59 05 00
	00 00 00	 mulss	 xmm0, DWORD PTR __real@3dcccccd
  000b5	f3 0f 5c c8	 subss	 xmm1, xmm0
  000b9	f3 0f 2c c1	 cvttss2si eax, xmm1
  000bd	50		 push	 eax
  000be	6a 2a		 push	 42			; 0000002aH
  000c0	e8 00 00 00 00	 call	 ?GetParam@CMover@@QAEHHH@Z ; CMover::GetParam
  000c5	5f		 pop	 edi
  000c6	5e		 pop	 esi

; 3155 : }

  000c7	8b e5		 mov	 esp, ebp
  000c9	5d		 pop	 ebp
  000ca	c3		 ret	 0
?GetMPRecovery@CMover@@QAEHXZ ENDP			; CMover::GetMPRecovery
_TEXT	ENDS
; Function compile flags: /Ogtp
; File C:\IAGOS\server\v18\Source\Source\_Common\MoverParam.cpp
; File C:\IAGOS\server\v18\Source\Source\_Common\Mover.h
; File C:\IAGOS\server\v18\Source\Source\_Common\MoverParam.cpp
;	COMDAT ?GetHPRecovery@CMover@@QAEHXZ
_TEXT	SEGMENT
tv182 = -8						; size = 4
_fFactor$1$ = -4					; size = 4
?GetHPRecovery@CMover@@QAEHXZ PROC			; CMover::GetHPRecovery, COMDAT
; _this$ = ecx

; 3124 : {

  00000	55		 push	 ebp
  00001	8b ec		 mov	 ebp, esp
  00003	83 ec 08	 sub	 esp, 8

; 3125 : 	float fFactor = 1.0f;

  00006	f3 0f 10 05 00
	00 00 00	 movss	 xmm0, DWORD PTR __real@3f800000
  0000e	56		 push	 esi
  0000f	57		 push	 edi
  00010	8b f9		 mov	 edi, ecx
  00012	f3 0f 11 45 fc	 movss	 DWORD PTR _fFactor$1$[ebp], xmm0

; 3126 : 	if( IsPlayer() )

  00017	83 bf 30 02 00
	00 00		 cmp	 DWORD PTR [edi+560], 0
  0001e	74 1a		 je	 SHORT $LN2@GetHPRecov

; 3127 : 	{
; 3128 : 		JobProp* pProperty = prj.GetJobProp( GetJob() ); 

  00020	e8 00 00 00 00	 call	 ?GetJob@CMover@@QAEHXZ	; CMover::GetJob
  00025	50		 push	 eax
  00026	b9 00 00 00 00	 mov	 ecx, OFFSET ?prj@@3VCProject@@A ; prj
  0002b	e8 00 00 00 00	 call	 ?GetJobProp@CProject@@QAEPAUJobProp@@H@Z ; CProject::GetJobProp

; 3129 : 		fFactor = pProperty->fFactorHPRecovery;

  00030	f3 0f 10 40 14	 movss	 xmm0, DWORD PTR [eax+20]
  00035	f3 0f 11 45 fc	 movss	 DWORD PTR _fFactor$1$[ebp], xmm0
$LN2@GetHPRecov:
; File C:\IAGOS\server\v18\Source\Source\_Common\Mover.h

; 1133 : 	int				GetLevel() { return m_nLevel; }

  0003a	8b b7 d8 05 00
	00		 mov	 esi, DWORD PTR [edi+1496]
; File C:\IAGOS\server\v18\Source\Source\_Common\MoverParam.cpp

; 3133 : 	int nValue = (int)( (GetLevel() / 3.0f) + (GetMaxHitPoint() / (500.f * GetLevel())) + (GetSta() * fFactor) );

  00040	8b cf		 mov	 ecx, edi
  00042	e8 00 00 00 00	 call	 ?GetMaxHitPoint@CMover@@QAEHXZ ; CMover::GetMaxHitPoint
  00047	66 0f 6e c6	 movd	 xmm0, esi
  0004b	8b cf		 mov	 ecx, edi
  0004d	0f 5b c0	 cvtdq2ps xmm0, xmm0
  00050	66 0f 6e c8	 movd	 xmm1, eax
  00054	f3 0f 59 05 00
	00 00 00	 mulss	 xmm0, DWORD PTR __real@43fa0000
  0005c	0f 5b c9	 cvtdq2ps xmm1, xmm1
  0005f	f3 0f 5e c8	 divss	 xmm1, xmm0
  00063	f3 0f 11 4d f8	 movss	 DWORD PTR tv182[ebp], xmm1
  00068	e8 00 00 00 00	 call	 ?GetSta@CMover@@QAEHXZ	; CMover::GetSta
  0006d	66 0f 6e 87 d8
	05 00 00	 movd	 xmm0, DWORD PTR [edi+1496]

; 3134 : #if __VER >= 9 // __RECOVERY10
; 3135 : 	nValue	= (int)( nValue - ( nValue * 0.1f ) ); // Č¸şą·® 10% ÇĎÇâ
; 3136 : #endif //__RECOVERY10
; 3137 : 	return GetParam( DST_HP_RECOVERY, nValue );

  00075	8b cf		 mov	 ecx, edi
  00077	0f 5b c0	 cvtdq2ps xmm0, xmm0
  0007a	66 0f 6e c8	 movd	 xmm1, eax
  0007e	f3 0f 5e 05 00
	00 00 00	 divss	 xmm0, DWORD PTR __real@40400000
  00086	0f 5b c9	 cvtdq2ps xmm1, xmm1
  00089	f3 0f 58 45 f8	 addss	 xmm0, DWORD PTR tv182[ebp]
  0008e	f3 0f 59 4d fc	 mulss	 xmm1, DWORD PTR _fFactor$1$[ebp]
  00093	f3 0f 58 c8	 addss	 xmm1, xmm0
  00097	f3 0f 2c c1	 cvttss2si eax, xmm1
  0009b	66 0f 6e c8	 movd	 xmm1, eax
  0009f	0f 5b c9	 cvtdq2ps xmm1, xmm1
  000a2	0f 28 c1	 movaps	 xmm0, xmm1
  000a5	f3 0f 59 05 00
	00 00 00	 mulss	 xmm0, DWORD PTR __real@3dcccccd
  000ad	f3 0f 5c c8	 subss	 xmm1, xmm0
  000b1	f3 0f 2c c1	 cvttss2si eax, xmm1
  000b5	50		 push	 eax
  000b6	6a 29		 push	 41			; 00000029H
  000b8	e8 00 00 00 00	 call	 ?GetParam@CMover@@QAEHHH@Z ; CMover::GetParam
  000bd	5f		 pop	 edi
  000be	5e		 pop	 esi

; 3138 : }

  000bf	8b e5		 mov	 esp, ebp
  000c1	5d		 pop	 ebp
  000c2	c3		 ret	 0
?GetHPRecovery@CMover@@QAEHXZ ENDP			; CMover::GetHPRecovery
_TEXT	ENDS
; Function compile flags: /Ogtp
; File C:\IAGOS\server\v18\Source\Source\_Common\MoverParam.cpp
;	COMDAT ?GetMaxOriginFatiguePoint@CMover@@QAEHH@Z
_TEXT	SEGMENT
_bOriginal$ = 8						; size = 4
?GetMaxOriginFatiguePoint@CMover@@QAEHH@Z PROC		; CMover::GetMaxOriginFatiguePoint, COMDAT
; _this$ = ecx

; 3062 : {

  00000	55		 push	 ebp
  00001	8b ec		 mov	 ebp, esp

; 3063 : 	int nSta, nStr, nDex;
; 3064 : 	if( bOriginal )

  00003	83 7d 08 00	 cmp	 DWORD PTR _bOriginal$[ebp], 0
  00007	53		 push	 ebx
  00008	56		 push	 esi
  00009	57		 push	 edi
  0000a	8b f1		 mov	 esi, ecx
  0000c	74 14		 je	 SHORT $LN2@GetMaxOrig

; 3065 : 	{
; 3066 : 		nSta = m_nSta;

  0000e	8b 9e cc 05 00
	00		 mov	 ebx, DWORD PTR [esi+1484]

; 3067 : 		nStr = m_nStr;

  00014	8b be c8 05 00
	00		 mov	 edi, DWORD PTR [esi+1480]

; 3068 : 		nDex = m_nDex;

  0001a	8b 8e d0 05 00
	00		 mov	 ecx, DWORD PTR [esi+1488]

; 3069 : 	}

  00020	eb 19		 jmp	 SHORT $LN3@GetMaxOrig
$LN2@GetMaxOrig:

; 3070 : 	else
; 3071 : 	{
; 3072 : 		nSta = GetSta();

  00022	e8 00 00 00 00	 call	 ?GetSta@CMover@@QAEHXZ	; CMover::GetSta

; 3073 : 		nStr = GetStr();

  00027	8b ce		 mov	 ecx, esi
  00029	8b d8		 mov	 ebx, eax
  0002b	e8 00 00 00 00	 call	 ?GetStr@CMover@@QAEHXZ	; CMover::GetStr

; 3074 : 		nDex = GetDex();

  00030	8b ce		 mov	 ecx, esi
  00032	8b f8		 mov	 edi, eax
  00034	e8 00 00 00 00	 call	 ?GetDex@CMover@@QAEHXZ	; CMover::GetDex
  00039	8b c8		 mov	 ecx, eax
$LN3@GetMaxOrig:

; 3075 : 	}
; 3076 : 
; 3077 : 	if( IsPlayer() )

  0003b	83 be 30 02 00
	00 00		 cmp	 DWORD PTR [esi+560], 0
  00042	74 50		 je	 SHORT $LN4@GetMaxOrig

; 3078 : 	{
; 3079 : 		// (((BaseLv*2) + (STA*6))*Job°čĽö) +(STA*Job°čĽö) + ¨ç + ¨č
; 3080 : 		JobProp* pProperty = prj.GetJobProp( GetJob() ); 

  00044	8b ce		 mov	 ecx, esi
  00046	e8 00 00 00 00	 call	 ?GetJob@CMover@@QAEHXZ	; CMover::GetJob
  0004b	50		 push	 eax
  0004c	b9 00 00 00 00	 mov	 ecx, OFFSET ?prj@@3VCProject@@A ; prj
  00051	e8 00 00 00 00	 call	 ?GetJobProp@CProject@@QAEPAUJobProp@@H@Z ; CProject::GetJobProp
  00056	66 0f 6e 96 d8
	05 00 00	 movd	 xmm2, DWORD PTR [esi+1496]
  0005e	66 0f 6e cb	 movd	 xmm1, ebx

; 3081 : 		float factor = pProperty->fFactorMaxFP;
; 3082 : 
; 3083 : 		int nMaxFP = (int)( (((m_nLevel*2.0f) + (nSta*6.0f))*factor) +(nSta*factor) );

  00062	0f 5b d2	 cvtdq2ps xmm2, xmm2
  00065	5f		 pop	 edi

; 3088 : }

  00066	5e		 pop	 esi
  00067	5b		 pop	 ebx
  00068	0f 5b c9	 cvtdq2ps xmm1, xmm1
  0006b	f3 0f 58 d2	 addss	 xmm2, xmm2
  0006f	0f 28 c1	 movaps	 xmm0, xmm1
  00072	f3 0f 59 48 0c	 mulss	 xmm1, DWORD PTR [eax+12]
  00077	f3 0f 59 05 00
	00 00 00	 mulss	 xmm0, DWORD PTR __real@40c00000
  0007f	f3 0f 58 d0	 addss	 xmm2, xmm0
  00083	f3 0f 59 50 0c	 mulss	 xmm2, DWORD PTR [eax+12]
  00088	f3 0f 58 d1	 addss	 xmm2, xmm1
  0008c	f3 0f 2c c2	 cvttss2si eax, xmm2
  00090	5d		 pop	 ebp
  00091	c2 04 00	 ret	 4
$LN4@GetMaxOrig:

; 3084 : 		return nMaxFP;
; 3085 : 	}
; 3086 : 	
; 3087 : 	return ( ( m_nLevel * 2 ) + ( nStr * 7 ) + ( nSta *2 ) + ( nDex * 4 ) );

  00094	8b 86 d8 05 00
	00		 mov	 eax, DWORD PTR [esi+1496]
  0009a	8d 0c 48	 lea	 ecx, DWORD PTR [eax+ecx*2]
  0009d	03 cb		 add	 ecx, ebx
  0009f	8d 04 fd 00 00
	00 00		 lea	 eax, DWORD PTR [edi*8]
  000a6	2b c7		 sub	 eax, edi
  000a8	5f		 pop	 edi

; 3088 : }

  000a9	5e		 pop	 esi
  000aa	5b		 pop	 ebx
  000ab	8d 04 48	 lea	 eax, DWORD PTR [eax+ecx*2]
  000ae	5d		 pop	 ebp
  000af	c2 04 00	 ret	 4
?GetMaxOriginFatiguePoint@CMover@@QAEHH@Z ENDP		; CMover::GetMaxOriginFatiguePoint
_TEXT	ENDS
; Function compile flags: /Ogtp
; File C:\IAGOS\server\v18\Source\Source\_Common\MoverParam.cpp
;	COMDAT ?GetMaxOriginManaPoint@CMover@@QAEHH@Z
_TEXT	SEGMENT
_bOriginal$ = 8						; size = 4
?GetMaxOriginManaPoint@CMover@@QAEHH@Z PROC		; CMover::GetMaxOriginManaPoint, COMDAT
; _this$ = ecx

; 3041 : {

  00000	55		 push	 ebp
  00001	8b ec		 mov	 ebp, esp

; 3042 : 	int nInt = 0;
; 3043 : 	if( bOriginal )

  00003	83 7d 08 00	 cmp	 DWORD PTR _bOriginal$[ebp], 0
  00007	56		 push	 esi
  00008	57		 push	 edi
  00009	8b f1		 mov	 esi, ecx
  0000b	74 08		 je	 SHORT $LN2@GetMaxOrig

; 3044 : 		nInt = m_nInt;

  0000d	8b be d4 05 00
	00		 mov	 edi, DWORD PTR [esi+1492]
  00013	eb 07		 jmp	 SHORT $LN3@GetMaxOrig
$LN2@GetMaxOrig:

; 3045 : 	else
; 3046 : 		nInt = GetInt();

  00015	e8 00 00 00 00	 call	 ?GetInt@CMover@@QAEHXZ	; CMover::GetInt
  0001a	8b f8		 mov	 edi, eax
$LN3@GetMaxOrig:

; 3047 : 
; 3048 : 	if( IsPlayer() )

  0001c	83 be 30 02 00
	00 00		 cmp	 DWORD PTR [esi+560], 0
  00023	74 57		 je	 SHORT $LN4@GetMaxOrig

; 3049 : 	{
; 3050 : 		// INT((((BaseLv*2) + (INT*8))*Job°čĽö) + 22)+(INT*Job°čĽö)) +  ¨ç 
; 3051 : 		// ¨ç : ľĆŔĚĹŰżˇŔÇÇŃ Ăß°ˇ »ó˝Â (%´ÜŔ§) TDDO
; 3052 : 		JobProp* pProperty = prj.GetJobProp( GetJob() ); 

  00025	8b ce		 mov	 ecx, esi
  00027	e8 00 00 00 00	 call	 ?GetJob@CMover@@QAEHXZ	; CMover::GetJob
  0002c	50		 push	 eax
  0002d	b9 00 00 00 00	 mov	 ecx, OFFSET ?prj@@3VCProject@@A ; prj
  00032	e8 00 00 00 00	 call	 ?GetJobProp@CProject@@QAEPAUJobProp@@H@Z ; CProject::GetJobProp
  00037	66 0f 6e 96 d8
	05 00 00	 movd	 xmm2, DWORD PTR [esi+1496]

; 3053 : 		float factor = pProperty->fFactorMaxMP;
; 3054 : 		
; 3055 : 		int nMaxMP = (int)( ((((m_nLevel*2.0f) + ( nInt*8.0f))*factor) + 22.0f)+( nInt*factor) );

  0003f	0f 5b d2	 cvtdq2ps xmm2, xmm2
  00042	66 0f 6e cf	 movd	 xmm1, edi
  00046	0f 5b c9	 cvtdq2ps xmm1, xmm1
  00049	5f		 pop	 edi

; 3059 : }

  0004a	5e		 pop	 esi
  0004b	f3 0f 58 d2	 addss	 xmm2, xmm2
  0004f	0f 28 c1	 movaps	 xmm0, xmm1
  00052	f3 0f 59 48 08	 mulss	 xmm1, DWORD PTR [eax+8]
  00057	f3 0f 59 05 00
	00 00 00	 mulss	 xmm0, DWORD PTR __real@41000000
  0005f	f3 0f 58 d0	 addss	 xmm2, xmm0
  00063	f3 0f 59 50 08	 mulss	 xmm2, DWORD PTR [eax+8]
  00068	f3 0f 58 15 00
	00 00 00	 addss	 xmm2, DWORD PTR __real@41b00000
  00070	f3 0f 58 d1	 addss	 xmm2, xmm1
  00074	f3 0f 2c c2	 cvttss2si eax, xmm2
  00078	5d		 pop	 ebp
  00079	c2 04 00	 ret	 4
$LN4@GetMaxOrig:

; 3056 : 		return nMaxMP;
; 3057 : 	}
; 3058 : 	return 	( ( m_nLevel * 2 ) + ( nInt * 8 ) + 22 );

  0007c	8b 86 d8 05 00
	00		 mov	 eax, DWORD PTR [esi+1496]
  00082	8d 04 b8	 lea	 eax, DWORD PTR [eax+edi*4]
  00085	5f		 pop	 edi
  00086	8d 04 45 16 00
	00 00		 lea	 eax, DWORD PTR [eax*2+22]

; 3059 : }

  0008d	5e		 pop	 esi
  0008e	5d		 pop	 ebp
  0008f	c2 04 00	 ret	 4
?GetMaxOriginManaPoint@CMover@@QAEHH@Z ENDP		; CMover::GetMaxOriginManaPoint
_TEXT	ENDS
; Function compile flags: /Ogtp
; File C:\IAGOS\server\v18\Source\Source\_Common\MoverParam.cpp
; File C:\IAGOS\server\v18\Source\Source\_Common\Obj.h
; File C:\IAGOS\server\v18\Source\Source\_Common\MoverParam.cpp
; File C:\IAGOS\server\v18\Source\Source\_Common\Mover.h
; File C:\IAGOS\server\v18\Source\Source\_Common\Project.h
; File C:\IAGOS\server\v18\Source\Source\_Common\MoverParam.cpp
;	COMDAT ?GetMaxOriginHitPoint@CMover@@QAEHH@Z
_TEXT	SEGMENT
_bOriginal$ = 8						; size = 4
?GetMaxOriginHitPoint@CMover@@QAEHH@Z PROC		; CMover::GetMaxOriginHitPoint, COMDAT
; _this$ = ecx

; 3008 : {

  00000	55		 push	 ebp
  00001	8b ec		 mov	 ebp, esp
  00003	56		 push	 esi
  00004	8b f1		 mov	 esi, ecx
; File C:\IAGOS\server\v18\Source\Source\_Common\Obj.h

; 327  : 	return pObj && ( pObj->IsDelete() == FALSE ); 

  00006	85 f6		 test	 esi, esi
  00008	0f 84 1b 01 00
	00		 je	 $LN27@GetMaxOrig

; 180  : 	BOOL			IsDelete()	{ return (m_dwFlags & OBJ_FLAG_DELETE);  }

  0000e	f6 46 04 01	 test	 BYTE PTR [esi+4], 1

; 327  : 	return pObj && ( pObj->IsDelete() == FALSE ); 

  00012	0f 85 11 01 00
	00		 jne	 $LN27@GetMaxOrig
; File C:\IAGOS\server\v18\Source\Source\_Common\MoverParam.cpp

; 3012 : 	if( IsPlayer() )

  00018	83 be 30 02 00
	00 00		 cmp	 DWORD PTR [esi+560], 0
  0001f	0f 84 93 00 00
	00		 je	 $LN3@GetMaxOrig

; 3013 : 	{
; 3014 : 		int nSta;
; 3015 : 		if( bOriginal )

  00025	83 7d 08 00	 cmp	 DWORD PTR _bOriginal$[ebp], 0
  00029	57		 push	 edi
  0002a	74 08		 je	 SHORT $LN5@GetMaxOrig

; 3016 : 			nSta = m_nSta;

  0002c	8b be cc 05 00
	00		 mov	 edi, DWORD PTR [esi+1484]
  00032	eb 07		 jmp	 SHORT $LN6@GetMaxOrig
$LN5@GetMaxOrig:

; 3017 : 		else
; 3018 : 			nSta = GetSta();

  00034	e8 00 00 00 00	 call	 ?GetSta@CMover@@QAEHXZ	; CMover::GetSta
  00039	8b f8		 mov	 edi, eax
$LN6@GetMaxOrig:

; 3019 : 
; 3020 : 		JobProp* pProperty = prj.GetJobProp( GetJob() ); 

  0003b	8b ce		 mov	 ecx, esi
  0003d	e8 00 00 00 00	 call	 ?GetJob@CMover@@QAEHXZ	; CMover::GetJob
  00042	50		 push	 eax
  00043	b9 00 00 00 00	 mov	 ecx, OFFSET ?prj@@3VCProject@@A ; prj
  00048	e8 00 00 00 00	 call	 ?GetJobProp@CProject@@QAEPAUJobProp@@H@Z ; CProject::GetJobProp
  0004d	0f 57 c0	 xorps	 xmm0, xmm0
  00050	0f 57 db	 xorps	 xmm3, xmm3

; 3021 : 
; 3022 : 		float a = (pProperty->fFactorMaxHP*m_nLevel)/2.0f;

  00053	f3 0f 2a 86 d8
	05 00 00	 cvtsi2ss xmm0, DWORD PTR [esi+1496]

; 3023 : 		float b = a * ((m_nLevel+1.0f)/4.0f) * (1.0f + nSta/50.0f) + (nSta*10.0f) ;

  0005b	f3 0f 2a df	 cvtsi2ss xmm3, edi

; 3024 : 		float maxHP = b + 80.f; 
; 3025 : 		return (int)maxHP;

  0005f	5f		 pop	 edi
  00060	5e		 pop	 esi
  00061	0f 28 d0	 movaps	 xmm2, xmm0
  00064	f3 0f 59 50 04	 mulss	 xmm2, DWORD PTR [eax+4]
  00069	f3 0f 58 05 00
	00 00 00	 addss	 xmm0, DWORD PTR __real@3f800000
  00071	f3 0f 59 15 00
	00 00 00	 mulss	 xmm2, DWORD PTR __real@3f000000
  00079	f3 0f 59 05 00
	00 00 00	 mulss	 xmm0, DWORD PTR __real@3e800000
  00081	f3 0f 59 d0	 mulss	 xmm2, xmm0
  00085	0f 28 c3	 movaps	 xmm0, xmm3
  00088	f3 0f 5e 05 00
	00 00 00	 divss	 xmm0, DWORD PTR __real@42480000
  00090	f3 0f 59 1d 00
	00 00 00	 mulss	 xmm3, DWORD PTR __real@41200000
  00098	f3 0f 58 05 00
	00 00 00	 addss	 xmm0, DWORD PTR __real@3f800000
  000a0	f3 0f 59 d0	 mulss	 xmm2, xmm0
  000a4	f3 0f 58 d3	 addss	 xmm2, xmm3
  000a8	f3 0f 58 15 00
	00 00 00	 addss	 xmm2, DWORD PTR __real@42a00000
  000b0	f3 0f 2c c2	 cvttss2si eax, xmm2

; 3032 : #else // __S1108_BACK_END_SYSTEM
; 3033 : 		return pMoverProp->dwAddHp; 
; 3034 : #endif // __S1108_BACK_END_SYSTEM
; 3035 : 	}
; 3036 : 
; 3037 : 	return 0;
; 3038 : }

  000b4	5d		 pop	 ebp
  000b5	c2 04 00	 ret	 4
$LN3@GetMaxOrig:
; File C:\IAGOS\server\v18\Source\Source\_Common\Mover.h

; 1020 : 	MoverProp*		GetProp() { return prj.GetMoverProp( m_dwIndex ); }	// °´ĂĽŔÇ ÇÁ·ÎĆŰĆĽ ľň±â 	

  000b8	8b 86 74 01 00
	00		 mov	 eax, DWORD PTR [esi+372]
; File C:\IAGOS\server\v18\Source\Source\_Common\Project.h

; 1406 : 	VERIFY_RANGE( nIndex, 0, m_nMoverPropSize, "GetMoverProp range_error", NULL );

  000be	8b 0d b4 01 00
	00		 mov	 ecx, DWORD PTR ?prj@@3VCProject@@A+436
  000c4	85 c0		 test	 eax, eax
  000c6	78 12		 js	 SHORT $LN23@GetMaxOrig
  000c8	3b c1		 cmp	 eax, ecx
  000ca	7d 0e		 jge	 SHORT $LN23@GetMaxOrig

; 1407 : 	return m_pPropMover + nIndex;

  000cc	69 c8 90 06 00
	00		 imul	 ecx, eax, 1680
  000d2	03 0d b8 01 00
	00		 add	 ecx, DWORD PTR ?prj@@3VCProject@@A+440
  000d8	eb 18		 jmp	 SHORT $LN18@GetMaxOrig
$LN23@GetMaxOrig:

; 579  : 	LPCTSTR szErr = Error( _T( "%s min:%d, max:%d, index:%d" ), szMsg, nMin, nMax, nIndex ); 

  000da	50		 push	 eax
  000db	51		 push	 ecx
  000dc	6a 00		 push	 0
  000de	68 00 00 00 00	 push	 OFFSET ??_C@_0BJ@GKPOBPPI@GetMoverProp?5range_error@
  000e3	68 00 00 00 00	 push	 OFFSET ??_C@_0BM@HMFGHCP@?$CFs?5min?3?$CFd?0?5max?3?$CFd?0?5index?3?$CFd@
  000e8	e8 00 00 00 00	 call	 ?Error@@YAPBDPBDZZ	; Error
  000ed	83 c4 14	 add	 esp, 20			; 00000014H

; 1406 : 	VERIFY_RANGE( nIndex, 0, m_nMoverPropSize, "GetMoverProp range_error", NULL );

  000f0	33 c9		 xor	 ecx, ecx
$LN18@GetMaxOrig:
; File C:\IAGOS\server\v18\Source\Source\_Common\MoverParam.cpp

; 3031 : 		return int( pMoverProp->dwAddHp * prj.m_fMonsterHitpointRate * pMoverProp->m_fHitPoint_Rate ); 

  000f2	8b 81 e4 00 00
	00		 mov	 eax, DWORD PTR [ecx+228]
  000f8	5e		 pop	 esi
  000f9	66 0f 6e c0	 movd	 xmm0, eax
  000fd	f3 0f e6 c0	 cvtdq2pd xmm0, xmm0
  00101	c1 e8 1f	 shr	 eax, 31			; 0000001fH
  00104	f2 0f 58 04 c5
	00 00 00 00	 addsd	 xmm0, QWORD PTR __xmm@41f00000000000000000000000000000[eax*8]
  0010d	66 0f 5a c0	 cvtpd2ps xmm0, xmm0
  00111	f3 0f 59 05 a8
	4b 0b 00	 mulss	 xmm0, DWORD PTR ?prj@@3VCProject@@A+740264
  00119	f3 0f 59 81 50
	02 00 00	 mulss	 xmm0, DWORD PTR [ecx+592]
  00121	f3 0f 2c c0	 cvttss2si eax, xmm0

; 3032 : #else // __S1108_BACK_END_SYSTEM
; 3033 : 		return pMoverProp->dwAddHp; 
; 3034 : #endif // __S1108_BACK_END_SYSTEM
; 3035 : 	}
; 3036 : 
; 3037 : 	return 0;
; 3038 : }

  00125	5d		 pop	 ebp
  00126	c2 04 00	 ret	 4
$LN27@GetMaxOrig:

; 3009 : 	if( IsInvalidObj(this) )	
; 3010 : 		return 0;

  00129	33 c0		 xor	 eax, eax
  0012b	5e		 pop	 esi

; 3032 : #else // __S1108_BACK_END_SYSTEM
; 3033 : 		return pMoverProp->dwAddHp; 
; 3034 : #endif // __S1108_BACK_END_SYSTEM
; 3035 : 	}
; 3036 : 
; 3037 : 	return 0;
; 3038 : }

  0012c	5d		 pop	 ebp
  0012d	c2 04 00	 ret	 4
?GetMaxOriginHitPoint@CMover@@QAEHH@Z ENDP		; CMover::GetMaxOriginHitPoint
_TEXT	ENDS
; Function compile flags: /Ogtp
; File C:\IAGOS\server\v18\Source\Source\_Common\MoverParam.cpp
;	COMDAT ?GetMaxFatiguePoint@CMover@@QAEHXZ
_TEXT	SEGMENT
?GetMaxFatiguePoint@CMover@@QAEHXZ PROC			; CMover::GetMaxFatiguePoint, COMDAT
; _this$ = ecx

; 2977 : {

  00000	56		 push	 esi
  00001	57		 push	 edi

; 2978 : 	float factor = 1.0f;
; 2979 : 	int nResult = GetParam( DST_FP_MAX, GetMaxOriginFatiguePoint( FALSE ) );

  00002	6a 00		 push	 0
  00004	8b f9		 mov	 edi, ecx
  00006	e8 00 00 00 00	 call	 ?GetMaxOriginFatiguePoint@CMover@@QAEHH@Z ; CMover::GetMaxOriginFatiguePoint
  0000b	50		 push	 eax
  0000c	6a 25		 push	 37			; 00000025H
  0000e	8b cf		 mov	 ecx, edi
  00010	e8 00 00 00 00	 call	 ?GetParam@CMover@@QAEHHH@Z ; CMover::GetParam

; 2980 : 	int nFactor = GetParam( DST_FP_MAX_RATE, 0 );

  00015	6a 00		 push	 0
  00017	6a 36		 push	 54			; 00000036H
  00019	8b cf		 mov	 ecx, edi
  0001b	8b f0		 mov	 esi, eax
  0001d	e8 00 00 00 00	 call	 ?GetParam@CMover@@QAEHHH@Z ; CMover::GetParam
  00022	66 0f 6e c6	 movd	 xmm0, esi

; 2981 : 	
; 2982 : 	factor += (float)nFactor/(float)100;
; 2983 : 	nResult	= (int)( nResult * factor );
; 2984 : 
; 2985 : #ifdef __JEFF_11
; 2986 : 	if( nResult < 1 )

  00026	b9 01 00 00 00	 mov	 ecx, 1
  0002b	0f 5b c0	 cvtdq2ps xmm0, xmm0

; 2987 : 		nResult		= 1;
; 2988 : #endif	// __JEFF_11
; 2989 : 	return nResult; 

  0002e	5f		 pop	 edi
  0002f	5e		 pop	 esi
  00030	66 0f 6e c8	 movd	 xmm1, eax
  00034	0f 5b c9	 cvtdq2ps xmm1, xmm1
  00037	f3 0f 5e 0d 00
	00 00 00	 divss	 xmm1, DWORD PTR __real@42c80000
  0003f	f3 0f 58 0d 00
	00 00 00	 addss	 xmm1, DWORD PTR __real@3f800000
  00047	f3 0f 59 c8	 mulss	 xmm1, xmm0
  0004b	f3 0f 2c c1	 cvttss2si eax, xmm1
  0004f	3b c1		 cmp	 eax, ecx
  00051	0f 4c c1	 cmovl	 eax, ecx

; 2990 : }

  00054	c3		 ret	 0
?GetMaxFatiguePoint@CMover@@QAEHXZ ENDP			; CMover::GetMaxFatiguePoint
_TEXT	ENDS
; Function compile flags: /Ogtp
; File C:\IAGOS\server\v18\Source\Source\_Common\MoverParam.cpp
;	COMDAT ?GetMaxManaPoint@CMover@@QAEHXZ
_TEXT	SEGMENT
?GetMaxManaPoint@CMover@@QAEHXZ PROC			; CMover::GetMaxManaPoint, COMDAT
; _this$ = ecx

; 2960 : {

  00000	56		 push	 esi
  00001	57		 push	 edi

; 2961 : 	float factor = 1.0f;
; 2962 : 	int nResult = GetParam( DST_MP_MAX, GetMaxOriginManaPoint( FALSE ) );

  00002	6a 00		 push	 0
  00004	8b f9		 mov	 edi, ecx
  00006	e8 00 00 00 00	 call	 ?GetMaxOriginManaPoint@CMover@@QAEHH@Z ; CMover::GetMaxOriginManaPoint
  0000b	50		 push	 eax
  0000c	6a 24		 push	 36			; 00000024H
  0000e	8b cf		 mov	 ecx, edi
  00010	e8 00 00 00 00	 call	 ?GetParam@CMover@@QAEHHH@Z ; CMover::GetParam

; 2963 : 	int nFactor = GetParam( DST_MP_MAX_RATE, 0 );

  00015	6a 00		 push	 0
  00017	6a 35		 push	 53			; 00000035H
  00019	8b cf		 mov	 ecx, edi
  0001b	8b f0		 mov	 esi, eax
  0001d	e8 00 00 00 00	 call	 ?GetParam@CMover@@QAEHHH@Z ; CMover::GetParam
  00022	66 0f 6e c6	 movd	 xmm0, esi

; 2964 : 	
; 2965 : 	factor += (float)nFactor/(float)100;
; 2966 : 	nResult	= (int)( nResult * factor );
; 2967 : 
; 2968 : #ifdef __JEFF_11
; 2969 : 	if( nResult < 1 )

  00026	b9 01 00 00 00	 mov	 ecx, 1
  0002b	0f 5b c0	 cvtdq2ps xmm0, xmm0

; 2970 : 		nResult		= 1;
; 2971 : #endif	// __JEFF_11
; 2972 : 	return nResult; 

  0002e	5f		 pop	 edi
  0002f	5e		 pop	 esi
  00030	66 0f 6e c8	 movd	 xmm1, eax
  00034	0f 5b c9	 cvtdq2ps xmm1, xmm1
  00037	f3 0f 5e 0d 00
	00 00 00	 divss	 xmm1, DWORD PTR __real@42c80000
  0003f	f3 0f 58 0d 00
	00 00 00	 addss	 xmm1, DWORD PTR __real@3f800000
  00047	f3 0f 59 c8	 mulss	 xmm1, xmm0
  0004b	f3 0f 2c c1	 cvttss2si eax, xmm1
  0004f	3b c1		 cmp	 eax, ecx
  00051	0f 4c c1	 cmovl	 eax, ecx

; 2973 : }

  00054	c3		 ret	 0
?GetMaxManaPoint@CMover@@QAEHXZ ENDP			; CMover::GetMaxManaPoint
_TEXT	ENDS
; Function compile flags: /Ogtp
; File C:\IAGOS\server\v18\Source\Source\_Common\MoverParam.cpp
; File C:\IAGOS\server\v18\Source\Source\_Common\Obj.h
; File C:\IAGOS\server\v18\Source\Source\_Common\MoverParam.cpp
;	COMDAT ?GetMaxHitPoint@CMover@@QAEHXZ
_TEXT	SEGMENT
?GetMaxHitPoint@CMover@@QAEHXZ PROC			; CMover::GetMaxHitPoint, COMDAT
; _this$ = ecx

; 2940 : {

  00000	57		 push	 edi
  00001	8b f9		 mov	 edi, ecx
; File C:\IAGOS\server\v18\Source\Source\_Common\Obj.h

; 327  : 	return pObj && ( pObj->IsDelete() == FALSE ); 

  00003	85 ff		 test	 edi, edi
  00005	74 58		 je	 SHORT $LN13@GetMaxHitP

; 180  : 	BOOL			IsDelete()	{ return (m_dwFlags & OBJ_FLAG_DELETE);  }

  00007	f6 47 04 01	 test	 BYTE PTR [edi+4], 1

; 327  : 	return pObj && ( pObj->IsDelete() == FALSE ); 

  0000b	75 52		 jne	 SHORT $LN13@GetMaxHitP
; File C:\IAGOS\server\v18\Source\Source\_Common\MoverParam.cpp

; 2945 : 	int nResult = GetParam( DST_HP_MAX, GetMaxOriginHitPoint( FALSE ) );

  0000d	56		 push	 esi
  0000e	6a 00		 push	 0
  00010	e8 00 00 00 00	 call	 ?GetMaxOriginHitPoint@CMover@@QAEHH@Z ; CMover::GetMaxOriginHitPoint
  00015	50		 push	 eax
  00016	6a 23		 push	 35			; 00000023H
  00018	8b cf		 mov	 ecx, edi
  0001a	e8 00 00 00 00	 call	 ?GetParam@CMover@@QAEHHH@Z ; CMover::GetParam

; 2946 : 	int nFactor = GetParam( DST_HP_MAX_RATE, 0 );

  0001f	6a 00		 push	 0
  00021	6a 34		 push	 52			; 00000034H
  00023	8b cf		 mov	 ecx, edi
  00025	8b f0		 mov	 esi, eax
  00027	e8 00 00 00 00	 call	 ?GetParam@CMover@@QAEHHH@Z ; CMover::GetParam
  0002c	66 0f 6e c6	 movd	 xmm0, esi

; 2947 : 
; 2948 : 	factor += (float)nFactor/(float)100;
; 2949 : 	nResult	= (int)( nResult * factor );
; 2950 : 
; 2951 : #ifdef __JEFF_11
; 2952 : 	if( nResult < 1 )

  00030	b9 01 00 00 00	 mov	 ecx, 1
  00035	0f 5b c0	 cvtdq2ps xmm0, xmm0

; 2953 : 		nResult		= 1;
; 2954 : #endif	// __JEFF_11
; 2955 : 	return nResult; 

  00038	5e		 pop	 esi
  00039	5f		 pop	 edi
  0003a	66 0f 6e c8	 movd	 xmm1, eax
  0003e	0f 5b c9	 cvtdq2ps xmm1, xmm1
  00041	f3 0f 5e 0d 00
	00 00 00	 divss	 xmm1, DWORD PTR __real@42c80000
  00049	f3 0f 58 0d 00
	00 00 00	 addss	 xmm1, DWORD PTR __real@3f800000
  00051	f3 0f 59 c8	 mulss	 xmm1, xmm0
  00055	f3 0f 2c c1	 cvttss2si eax, xmm1
  00059	3b c1		 cmp	 eax, ecx
  0005b	0f 4c c1	 cmovl	 eax, ecx

; 2956 : }

  0005e	c3		 ret	 0
$LN13@GetMaxHitP:

; 2941 : 	if( IsInvalidObj(this) )	
; 2942 : 		return 0;

  0005f	33 c0		 xor	 eax, eax
  00061	5f		 pop	 edi

; 2956 : }

  00062	c3		 ret	 0
?GetMaxHitPoint@CMover@@QAEHXZ ENDP			; CMover::GetMaxHitPoint
_TEXT	ENDS
; Function compile flags: /Ogtp
; File C:\IAGOS\server\v18\Source\Source\_Common\MoverParam.cpp
;	COMDAT ?GetFatiguePoint@CMover@@QAEHXZ
_TEXT	SEGMENT
?GetFatiguePoint@CMover@@QAEHXZ PROC			; CMover::GetFatiguePoint, COMDAT
; _this$ = ecx

; 2931 : #ifdef __EVENT1206
; 2932 : 	if(  IsPlayer() && g_eLocal.GetState( EVE_EVENT1206 ) )	// raiders_fix051217
; 2933 : 		return GetMaxFatiguePoint();
; 2934 : #endif	// __EVENT1206
; 2935 : 	return GetParam( DST_FP, m_nFatiguePoint );

  00000	ff b1 00 06 00
	00		 push	 DWORD PTR [ecx+1536]
  00006	6a 28		 push	 40			; 00000028H
  00008	e8 00 00 00 00	 call	 ?GetParam@CMover@@QAEHHH@Z ; CMover::GetParam

; 2936 : }

