; Listing generated by Microsoft (R) Optimizing Compiler Version 19.44.35225.0 

	TITLE	C:\IAGOS\server\v18\Source\Output\WorldServer\Release\MoverAttack.obj
	.686P
	.XMM
	include listing.inc
	.model	flat

INCLUDELIB LIBCMT
INCLUDELIB OLDNAMES

CONST	SEGMENT
?piecewise_construct@std@@3Upiecewise_construct_t@1@B	ORG $+1 ; std::piecewise_construct
CONST	ENDS
PUBLIC	?__empty_global_delete@@YAXPAX@Z		; __empty_global_delete
PUBLIC	?__empty_global_delete@@YAXPAXI@Z		; __empty_global_delete
PUBLIC	??0exception@std@@QAE@ABV01@@Z			; std::exception::exception
PUBLIC	??1exception@std@@UAE@XZ			; std::exception::~exception
PUBLIC	?what@exception@std@@UBEPBDXZ			; std::exception::what
PUBLIC	??_Gexception@std@@UAEPAXI@Z			; std::exception::`scalar deleting destructor'
PUBLIC	??0bad_alloc@std@@QAE@ABV01@@Z			; std::bad_alloc::bad_alloc
PUBLIC	??_Gbad_alloc@std@@UAEPAXI@Z			; std::bad_alloc::`scalar deleting destructor'
PUBLIC	??0bad_array_new_length@std@@QAE@XZ		; std::bad_array_new_length::bad_array_new_length
PUBLIC	??1bad_array_new_length@std@@UAE@XZ		; std::bad_array_new_length::~bad_array_new_length
PUBLIC	??0bad_array_new_length@std@@QAE@ABV01@@Z	; std::bad_array_new_length::bad_array_new_length
PUBLIC	??_Gbad_array_new_length@std@@UAEPAXI@Z		; std::bad_array_new_length::`scalar deleting destructor'
PUBLIC	?_Throw_bad_array_new_length@std@@YAXXZ		; std::_Throw_bad_array_new_length
PUBLIC	?_Throw_tree_length_error@std@@YAXXZ		; std::_Throw_tree_length_error
PUBLIC	??0D3DXVECTOR3@@QAE@XZ				; D3DXVECTOR3::D3DXVECTOR3
PUBLIC	?GetItemProp@CProject@@QAEPAUItemProp@@H@Z	; CProject::GetItemProp
PUBLIC	?GetPropA@CItemElem@@QAEPAUItemProp@@XZ		; CItemElem::GetPropA
PUBLIC	?erase@?$_Tree@V?$_Tmap_traits@KV?$queue@USFXHIT_INFO@@V?$deque@USFXHIT_INFO@@V?$allocator@USFXHIT_INFO@@@std@@@std@@@std@@U?$less@K@2@V?$allocator@U?$pair@$$CBKV?$queue@USFXHIT_INFO@@V?$deque@USFXHIT_INFO@@V?$allocator@USFXHIT_INFO@@@std@@@std@@@std@@@std@@@2@$0A@@std@@@std@@QAEIABK@Z ; std::_Tree<std::_Tmap_traits<unsigned long,std::queue<SFXHIT_INFO,std::deque<SFXHIT_INFO,std::allocator<SFXHIT_INFO> > >,std::less<unsigned long>,std::allocator<std::pair<unsigned long const ,std::queue<SFXHIT_INFO,std::deque<SFXHIT_INFO,std::allocator<SFXHIT_INFO> > > > >,0> >::erase
PUBLIC	?_Lrotate@?$_Tree_val@U?$_Tree_simple_types@U?$pair@$$CBKV?$queue@USFXHIT_INFO@@V?$deque@USFXHIT_INFO@@V?$allocator@USFXHIT_INFO@@@std@@@std@@@std@@@std@@@std@@@std@@QAEXPAU?$_Tree_node@U?$pair@$$CBKV?$queue@USFXHIT_INFO@@V?$deque@USFXHIT_INFO@@V?$allocator@USFXHIT_INFO@@@std@@@std@@@std@@@std@@PAX@2@@Z ; std::_Tree_val<std::_Tree_simple_types<std::pair<unsigned long const ,std::queue<SFXHIT_INFO,std::deque<SFXHIT_INFO,std::allocator<SFXHIT_INFO> > > > > >::_Lrotate
PUBLIC	?_Rrotate@?$_Tree_val@U?$_Tree_simple_types@U?$pair@$$CBKV?$queue@USFXHIT_INFO@@V?$deque@USFXHIT_INFO@@V?$allocator@USFXHIT_INFO@@@std@@@std@@@std@@@std@@@std@@@std@@QAEXPAU?$_Tree_node@U?$pair@$$CBKV?$queue@USFXHIT_INFO@@V?$deque@USFXHIT_INFO@@V?$allocator@USFXHIT_INFO@@@std@@@std@@@std@@@std@@PAX@2@@Z ; std::_Tree_val<std::_Tree_simple_types<std::pair<unsigned long const ,std::queue<SFXHIT_INFO,std::deque<SFXHIT_INFO,std::allocator<SFXHIT_INFO> > > > > >::_Rrotate
PUBLIC	?_Extract@?$_Tree_val@U?$_Tree_simple_types@U?$pair@$$CBKV?$queue@USFXHIT_INFO@@V?$deque@USFXHIT_INFO@@V?$allocator@USFXHIT_INFO@@@std@@@std@@@std@@@std@@@std@@@std@@QAEPAU?$_Tree_node@U?$pair@$$CBKV?$queue@USFXHIT_INFO@@V?$deque@USFXHIT_INFO@@V?$allocator@USFXHIT_INFO@@@std@@@std@@@std@@@std@@PAX@2@V?$_Tree_unchecked_const_iterator@V?$_Tree_val@U?$_Tree_simple_types@U?$pair@$$CBKV?$queue@USFXHIT_INFO@@V?$deque@USFXHIT_INFO@@V?$allocator@USFXHIT_INFO@@@std@@@std@@@std@@@std@@@std@@@std@@U_Iterator_base0@2@@2@@Z ; std::_Tree_val<std::_Tree_simple_types<std::pair<unsigned long const ,std::queue<SFXHIT_INFO,std::deque<SFXHIT_INFO,std::allocator<SFXHIT_INFO> > > > > >::_Extract
PUBLIC	?_Insert_node@?$_Tree_val@U?$_Tree_simple_types@U?$pair@$$CBKV?$queue@USFXHIT_INFO@@V?$deque@USFXHIT_INFO@@V?$allocator@USFXHIT_INFO@@@std@@@std@@@std@@@std@@@std@@@std@@QAEPAU?$_Tree_node@U?$pair@$$CBKV?$queue@USFXHIT_INFO@@V?$deque@USFXHIT_INFO@@V?$allocator@USFXHIT_INFO@@@std@@@std@@@std@@@std@@PAX@2@U?$_Tree_id@PAU?$_Tree_node@U?$pair@$$CBKV?$queue@USFXHIT_INFO@@V?$deque@USFXHIT_INFO@@V?$allocator@USFXHIT_INFO@@@std@@@std@@@std@@@std@@PAX@std@@@2@QAU32@@Z ; std::_Tree_val<std::_Tree_simple_types<std::pair<unsigned long const ,std::queue<SFXHIT_INFO,std::deque<SFXHIT_INFO,std::allocator<SFXHIT_INFO> > > > > >::_Insert_node
PUBLIC	?erase@?$_Tree@V?$_Tmap_traits@KV?$queue@USFXHIT_COUNT@@V?$deque@USFXHIT_COUNT@@V?$allocator@USFXHIT_COUNT@@@std@@@std@@@std@@U?$less@K@2@V?$allocator@U?$pair@$$CBKV?$queue@USFXHIT_COUNT@@V?$deque@USFXHIT_COUNT@@V?$allocator@USFXHIT_COUNT@@@std@@@std@@@std@@@std@@@2@$0A@@std@@@std@@QAEIABK@Z ; std::_Tree<std::_Tmap_traits<unsigned long,std::queue<SFXHIT_COUNT,std::deque<SFXHIT_COUNT,std::allocator<SFXHIT_COUNT> > >,std::less<unsigned long>,std::allocator<std::pair<unsigned long const ,std::queue<SFXHIT_COUNT,std::deque<SFXHIT_COUNT,std::allocator<SFXHIT_COUNT> > > > >,0> >::erase
PUBLIC	?_Lrotate@?$_Tree_val@U?$_Tree_simple_types@U?$pair@$$CBKV?$queue@USFXHIT_COUNT@@V?$deque@USFXHIT_COUNT@@V?$allocator@USFXHIT_COUNT@@@std@@@std@@@std@@@std@@@std@@@std@@QAEXPAU?$_Tree_node@U?$pair@$$CBKV?$queue@USFXHIT_COUNT@@V?$deque@USFXHIT_COUNT@@V?$allocator@USFXHIT_COUNT@@@std@@@std@@@std@@@std@@PAX@2@@Z ; std::_Tree_val<std::_Tree_simple_types<std::pair<unsigned long const ,std::queue<SFXHIT_COUNT,std::deque<SFXHIT_COUNT,std::allocator<SFXHIT_COUNT> > > > > >::_Lrotate
PUBLIC	?_Rrotate@?$_Tree_val@U?$_Tree_simple_types@U?$pair@$$CBKV?$queue@USFXHIT_COUNT@@V?$deque@USFXHIT_COUNT@@V?$allocator@USFXHIT_COUNT@@@std@@@std@@@std@@@std@@@std@@@std@@QAEXPAU?$_Tree_node@U?$pair@$$CBKV?$queue@USFXHIT_COUNT@@V?$deque@USFXHIT_COUNT@@V?$allocator@USFXHIT_COUNT@@@std@@@std@@@std@@@std@@PAX@2@@Z ; std::_Tree_val<std::_Tree_simple_types<std::pair<unsigned long const ,std::queue<SFXHIT_COUNT,std::deque<SFXHIT_COUNT,std::allocator<SFXHIT_COUNT> > > > > >::_Rrotate
PUBLIC	?_Extract@?$_Tree_val@U?$_Tree_simple_types@U?$pair@$$CBKV?$queue@USFXHIT_COUNT@@V?$deque@USFXHIT_COUNT@@V?$allocator@USFXHIT_COUNT@@@std@@@std@@@std@@@std@@@std@@@std@@QAEPAU?$_Tree_node@U?$pair@$$CBKV?$queue@USFXHIT_COUNT@@V?$deque@USFXHIT_COUNT@@V?$allocator@USFXHIT_COUNT@@@std@@@std@@@std@@@std@@PAX@2@V?$_Tree_unchecked_const_iterator@V?$_Tree_val@U?$_Tree_simple_types@U?$pair@$$CBKV?$queue@USFXHIT_COUNT@@V?$deque@USFXHIT_COUNT@@V?$allocator@USFXHIT_COUNT@@@std@@@std@@@std@@@std@@@std@@@std@@U_Iterator_base0@2@@2@@Z ; std::_Tree_val<std::_Tree_simple_types<std::pair<unsigned long const ,std::queue<SFXHIT_COUNT,std::deque<SFXHIT_COUNT,std::allocator<SFXHIT_COUNT> > > > > >::_Extract
PUBLIC	?_Insert_node@?$_Tree_val@U?$_Tree_simple_types@U?$pair@$$CBKV?$queue@USFXHIT_COUNT@@V?$deque@USFXHIT_COUNT@@V?$allocator@USFXHIT_COUNT@@@std@@@std@@@std@@@std@@@std@@@std@@QAEPAU?$_Tree_node@U?$pair@$$CBKV?$queue@USFXHIT_COUNT@@V?$deque@USFXHIT_COUNT@@V?$allocator@USFXHIT_COUNT@@@std@@@std@@@std@@@std@@PAX@2@U?$_Tree_id@PAU?$_Tree_node@U?$pair@$$CBKV?$queue@USFXHIT_COUNT@@V?$deque@USFXHIT_COUNT@@V?$allocator@USFXHIT_COUNT@@@std@@@std@@@std@@@std@@PAX@std@@@2@QAU32@@Z ; std::_Tree_val<std::_Tree_simple_types<std::pair<unsigned long const ,std::queue<SFXHIT_COUNT,std::deque<SFXHIT_COUNT,std::allocator<SFXHIT_COUNT> > > > > >::_Insert_node
PUBLIC	?GetPropA@CMover@@QAEPAUMoverProp@@XZ		; CMover::GetPropA
PUBLIC	?SetDamagedMotion@CMover@@QAEXPAV1@K@Z		; CMover::SetDamagedMotion
PUBLIC	?IsPVPTarget@CMover@@QAEHPAV1@@Z		; CMover::IsPVPTarget
PUBLIC	?IsWarTarget@CMover@@QAEHPAV1@@Z		; CMover::IsWarTarget
PUBLIC	?IsSchoolTarget@CMover@@QAEHPAV1@@Z		; CMover::IsSchoolTarget
PUBLIC	?GetHitType@CMover@@QAE?AW4HITTYPE@@PAV1@HH@Z	; CMover::GetHitType
PUBLIC	?IsArenaTarget@CMover@@QAEHPAV1@@Z		; CMover::IsArenaTarget
PUBLIC	?GetHitType2@CMover@@QAE?AW4HITTYPE@@PAV1@HH@Z	; CMover::GetHitType2
PUBLIC	?ReSetDuelTime@CMover@@QAEXPAV1@0@Z		; CMover::ReSetDuelTime
PUBLIC	?GetHR@CMover@@QAEHXZ				; CMover::GetHR
PUBLIC	?GetAttackSpeed@CMover@@QAEMXZ			; CMover::GetAttackSpeed
PUBLIC	?GetCastingAniSpeed@CMover@@QAEMXZ		; CMover::GetCastingAniSpeed
PUBLIC	?GetCastingTime@CMover@@QAEHH@Z			; CMover::GetCastingTime
PUBLIC	?GetDamageMultiplier@CMover@@QAEMPAUATTACK_INFO@@@Z ; CMover::GetDamageMultiplier
PUBLIC	?PostCalcMagicSkill@CMover@@QAEHHPAUATTACK_INFO@@@Z ; CMover::PostCalcMagicSkill
PUBLIC	?PostCalcGeneric@CMover@@QAEHHPAUATTACK_INFO@@@Z ; CMover::PostCalcGeneric
PUBLIC	?GetMagicSkillFactor@CMover@@QAEMPAV1@W4ePropType@SAI79@@@Z ; CMover::GetMagicSkillFactor
PUBLIC	?GetATKMultiplier@CMover@@QAEMPAV1@K@Z		; CMover::GetATKMultiplier
PUBLIC	?GetDEFMultiplier@CMover@@QAEMPAUATTACK_INFO@@@Z ; CMover::GetDEFMultiplier
PUBLIC	?GetBlockFactor@CMover@@QAEMPAV1@PAUATTACK_INFO@@@Z ; CMover::GetBlockFactor
PUBLIC	?GetWeaponATK@CMover@@QAEHK@Z			; CMover::GetWeaponATK
PUBLIC	?GetPlusWeaponATK@CMover@@QAEHK@Z		; CMover::GetPlusWeaponATK
PUBLIC	?GetWeaponPlusDamage@CMover@@QAEHHH@Z		; CMover::GetWeaponPlusDamage
PUBLIC	?GetDamagePropertyFactor@CMover@@QAEXPAV1@PAH1H@Z ; CMover::GetDamagePropertyFactor
PUBLIC	?GetPropATKPlus@CMover@@QAEHH@Z			; CMover::GetPropATKPlus
PUBLIC	?GetPropDEFPlus@CMover@@QAEHXZ			; CMover::GetPropDEFPlus
PUBLIC	?IsBlocking@CMover@@QAEHPAV1@@Z			; CMover::IsBlocking
PUBLIC	?CanFlyByAttack@CMover@@QAEHXZ			; CMover::CanFlyByAttack
PUBLIC	?IsCriticalAttack@CMover@@QAEHPAV1@K@Z		; CMover::IsCriticalAttack
PUBLIC	?GetCriticalProb@CMover@@QAEHXZ			; CMover::GetCriticalProb
PUBLIC	?GetReqMp@CMover@@QAEHH@Z			; CMover::GetReqMp
PUBLIC	?GetReqFp@CMover@@QAEHH@Z			; CMover::GetReqFp
PUBLIC	?GetAttackResult@CMover@@QAEHPAV1@K@Z		; CMover::GetAttackResult
PUBLIC	?GetHitPower@CMover@@QAEHPAUATTACK_INFO@@@Z	; CMover::GetHitPower
PUBLIC	?GetDefenseByItem@CMover@@QAEHH@Z		; CMover::GetDefenseByItem
PUBLIC	?GetShowDefense@CMover@@QAEHH@Z			; CMover::GetShowDefense
PUBLIC	?GetMeleeSkillPower@CMover@@QAEHPAUATTACK_INFO@@@Z ; CMover::GetMeleeSkillPower
PUBLIC	?GetMagicHitPower@CMover@@QAEHH@Z		; CMover::GetMagicHitPower
PUBLIC	?GetHitMinMax@CMover@@QAEXPAH0PAUATTACK_INFO@@@Z ; CMover::GetHitMinMax
PUBLIC	?SetPKPink@CMover@@QAEXK@Z			; CMover::SetPKPink
PUBLIC	?GetResist@CMover@@QAEMW4ePropType@SAI79@@@Z	; CMover::GetResist
PUBLIC	?GetItemATKPower@CMover@@QAEXPAH0PAUItemProp@@PAVCItemElem@@@Z ; CMover::GetItemATKPower
PUBLIC	?GetItemMultiplier@CMover@@QAEMPAVCItemElem@@@Z	; CMover::GetItemMultiplier
PUBLIC	?ChangeExpRatio@CMover@@QAEXPAV1@0@Z		; CMover::ChangeExpRatio
PUBLIC	?OnAttacked@CMover@@QAEXPAV1@HHH@Z		; CMover::OnAttacked
PUBLIC	?GetJobPropFactor@CMover@@QAEMW4JOB_PROP_TYPE@@@Z ; CMover::GetJobPropFactor
PUBLIC	?CalcDefense@CMover@@QAEHPAUATTACK_INFO@@H@Z	; CMover::CalcDefense
PUBLIC	?CalcDefenseCore@CMover@@QAEHPAV1@KH@Z		; CMover::CalcDefenseCore
PUBLIC	?CalcDefensePlayer@CMover@@QAEHPAV1@K@Z		; CMover::CalcDefensePlayer
PUBLIC	?CalcDefenseNPC@CMover@@QAEHPAV1@K@Z		; CMover::CalcDefenseNPC
PUBLIC	?OnAttackSFX@CMover@@QAEXKHKHMMKH@Z		; CMover::OnAttackSFX
PUBLIC	?IsGuildCombatTarget@CMover@@QAEHPAV1@@Z	; CMover::IsGuildCombatTarget
PUBLIC	?ApplyDPC@CMover@@QAEHHPAUATTACK_INFO@@@Z	; CMover::ApplyDPC
PUBLIC	?CalcLinkAttackDamage@CMover@@QAEHH@Z		; CMover::CalcLinkAttackDamage
PUBLIC	?CalcPropDamage@CMover@@QAEHPAV1@K@Z		; CMover::CalcPropDamage
PUBLIC	?GetMagicSkillPower@CMover@@QAEHPAUATTACK_INFO@@@Z ; CMover::GetMagicSkillPower
PUBLIC	?RemoveSFX@CMover@@QAEXKHHK@Z			; CMover::RemoveSFX
PUBLIC	?GetSFXCount@CMover@@QAEHK@Z			; CMover::GetSFXCount
PUBLIC	?IncSFXCount@CMover@@QAEXKK@Z			; CMover::IncSFXCount
PUBLIC	?AddSFXInfo@CMover@@QAEXKAAUSFXHIT_INFO@@@Z	; CMover::AddSFXInfo
PUBLIC	?ClearSFX@CMover@@QAEXK@Z			; CMover::ClearSFX
PUBLIC	?GetWeaponPlusDamage@@YAHHHPAUItemProp@@H@Z	; GetWeaponPlusDamage
PUBLIC	?AttackBySFX@@YAHPAVCMover@@AAUSFXHIT_INFO@@@Z	; AttackBySFX
PUBLIC	??$_Allocate_manually_vector_aligned@U_Default_allocate_traits@std@@@std@@YAPAXI@Z ; std::_Allocate_manually_vector_aligned<std::_Default_allocate_traits>
PUBLIC	?GetAttackSpeedPlusValue@@YAMH@Z		; GetAttackSpeedPlusValue
PUBLIC	?GetChargeMultiplier@@YAMH@Z			; GetChargeMultiplier
PUBLIC	?GetWandATKMultiplier@@YAMH@Z			; GetWandATKMultiplier
PUBLIC	??E?$_Tree_unchecked_const_iterator@V?$_Tree_val@U?$_Tree_simple_types@U?$pair@$$CBKV?$queue@USFXHIT_COUNT@@V?$deque@USFXHIT_COUNT@@V?$allocator@USFXHIT_COUNT@@@std@@@std@@@std@@@std@@@std@@@std@@U_Iterator_base0@2@@std@@QAEAAV01@XZ ; std::_Tree_unchecked_const_iterator<std::_Tree_val<std::_Tree_simple_types<std::pair<unsigned long const ,std::queue<SFXHIT_COUNT,std::deque<SFXHIT_COUNT,std::allocator<SFXHIT_COUNT> > > > > >,std::_Iterator_base0>::operator++
PUBLIC	?deallocate@?$allocator@PAUSFXHIT_COUNT@@@std@@QAEXQAPAUSFXHIT_COUNT@@I@Z ; std::allocator<SFXHIT_COUNT *>::deallocate
PUBLIC	??0?$deque@USFXHIT_COUNT@@V?$allocator@USFXHIT_COUNT@@@std@@@std@@QAE@ABV01@@Z ; std::deque<SFXHIT_COUNT,std::allocator<SFXHIT_COUNT> >::deque<SFXHIT_COUNT,std::allocator<SFXHIT_COUNT> >
PUBLIC	?_Xlen@?$deque@USFXHIT_COUNT@@V?$allocator@USFXHIT_COUNT@@@std@@@std@@CAXXZ ; std::deque<SFXHIT_COUNT,std::allocator<SFXHIT_COUNT> >::_Xlen
PUBLIC	?_Growmap@?$deque@USFXHIT_COUNT@@V?$allocator@USFXHIT_COUNT@@@std@@@std@@AAEXI@Z ; std::deque<SFXHIT_COUNT,std::allocator<SFXHIT_COUNT> >::_Growmap
PUBLIC	?_Tidy@?$deque@USFXHIT_COUNT@@V?$allocator@USFXHIT_COUNT@@@std@@@std@@AAEXXZ ; std::deque<SFXHIT_COUNT,std::allocator<SFXHIT_COUNT> >::_Tidy
PUBLIC	??1?$queue@USFXHIT_COUNT@@V?$deque@USFXHIT_COUNT@@V?$allocator@USFXHIT_COUNT@@@std@@@std@@@std@@QAE@XZ ; std::queue<SFXHIT_COUNT,std::deque<SFXHIT_COUNT,std::allocator<SFXHIT_COUNT> > >::~queue<SFXHIT_COUNT,std::deque<SFXHIT_COUNT,std::allocator<SFXHIT_COUNT> > >
PUBLIC	??1?$pair@$$CBKV?$queue@USFXHIT_COUNT@@V?$deque@USFXHIT_COUNT@@V?$allocator@USFXHIT_COUNT@@@std@@@std@@@std@@@std@@QAE@XZ ; std::pair<unsigned long const ,std::queue<SFXHIT_COUNT,std::deque<SFXHIT_COUNT,std::allocator<SFXHIT_COUNT> > > >::~pair<unsigned long const ,std::queue<SFXHIT_COUNT,std::deque<SFXHIT_COUNT,std::allocator<SFXHIT_COUNT> > > >
PUBLIC	??E?$_Tree_unchecked_const_iterator@V?$_Tree_val@U?$_Tree_simple_types@U?$pair@$$CBKV?$queue@USFXHIT_INFO@@V?$deque@USFXHIT_INFO@@V?$allocator@USFXHIT_INFO@@@std@@@std@@@std@@@std@@@std@@@std@@U_Iterator_base0@2@@std@@QAEAAV01@XZ ; std::_Tree_unchecked_const_iterator<std::_Tree_val<std::_Tree_simple_types<std::pair<unsigned long const ,std::queue<SFXHIT_INFO,std::deque<SFXHIT_INFO,std::allocator<SFXHIT_INFO> > > > > >,std::_Iterator_base0>::operator++
PUBLIC	?deallocate@?$allocator@PAUSFXHIT_INFO@@@std@@QAEXQAPAUSFXHIT_INFO@@I@Z ; std::allocator<SFXHIT_INFO *>::deallocate
PUBLIC	?_Xlen@?$deque@USFXHIT_INFO@@V?$allocator@USFXHIT_INFO@@@std@@@std@@CAXXZ ; std::deque<SFXHIT_INFO,std::allocator<SFXHIT_INFO> >::_Xlen
PUBLIC	?_Growmap@?$deque@USFXHIT_INFO@@V?$allocator@USFXHIT_INFO@@@std@@@std@@AAEXI@Z ; std::deque<SFXHIT_INFO,std::allocator<SFXHIT_INFO> >::_Growmap
PUBLIC	?_Tidy@?$deque@USFXHIT_INFO@@V?$allocator@USFXHIT_INFO@@@std@@@std@@AAEXXZ ; std::deque<SFXHIT_INFO,std::allocator<SFXHIT_INFO> >::_Tidy
PUBLIC	??1?$queue@USFXHIT_INFO@@V?$deque@USFXHIT_INFO@@V?$allocator@USFXHIT_INFO@@@std@@@std@@@std@@QAE@XZ ; std::queue<SFXHIT_INFO,std::deque<SFXHIT_INFO,std::allocator<SFXHIT_INFO> > >::~queue<SFXHIT_INFO,std::deque<SFXHIT_INFO,std::allocator<SFXHIT_INFO> > >
PUBLIC	??1?$pair@$$CBKV?$queue@USFXHIT_INFO@@V?$deque@USFXHIT_INFO@@V?$allocator@USFXHIT_INFO@@@std@@@std@@@std@@@std@@QAE@XZ ; std::pair<unsigned long const ,std::queue<SFXHIT_INFO,std::deque<SFXHIT_INFO,std::allocator<SFXHIT_INFO> > > >::~pair<unsigned long const ,std::queue<SFXHIT_INFO,std::deque<SFXHIT_INFO,std::allocator<SFXHIT_INFO> > > >
PUBLIC	??$_Find_lower_bound@K@?$_Tree@V?$_Tmap_traits@KV?$queue@USFXHIT_COUNT@@V?$deque@USFXHIT_COUNT@@V?$allocator@USFXHIT_COUNT@@@std@@@std@@@std@@U?$less@K@2@V?$allocator@U?$pair@$$CBKV?$queue@USFXHIT_COUNT@@V?$deque@USFXHIT_COUNT@@V?$allocator@USFXHIT_COUNT@@@std@@@std@@@std@@@std@@@2@$0A@@std@@@std@@IBE?AU?$_Tree_find_result@PAU?$_Tree_node@U?$pair@$$CBKV?$queue@USFXHIT_COUNT@@V?$deque@USFXHIT_COUNT@@V?$allocator@USFXHIT_COUNT@@@std@@@std@@@std@@@std@@PAX@std@@@1@ABK@Z ; std::_Tree<std::_Tmap_traits<unsigned long,std::queue<SFXHIT_COUNT,std::deque<SFXHIT_COUNT,std::allocator<SFXHIT_COUNT> > >,std::less<unsigned long>,std::allocator<std::pair<unsigned long const ,std::queue<SFXHIT_COUNT,std::deque<SFXHIT_COUNT,std::allocator<SFXHIT_COUNT> > > > >,0> >::_Find_lower_bound<unsigned long>
PUBLIC	??1?$_Alloc_construct_ptr@V?$allocator@U?$_Tree_node@U?$pair@$$CBKV?$queue@USFXHIT_COUNT@@V?$deque@USFXHIT_COUNT@@V?$allocator@USFXHIT_COUNT@@@std@@@std@@@std@@@std@@PAX@std@@@std@@@std@@QAE@XZ ; std::_Alloc_construct_ptr<std::allocator<std::_Tree_node<std::pair<unsigned long const ,std::queue<SFXHIT_COUNT,std::deque<SFXHIT_COUNT,std::allocator<SFXHIT_COUNT> > > >,void *> > >::~_Alloc_construct_ptr<std::allocator<std::_Tree_node<std::pair<unsigned long const ,std::queue<SFXHIT_COUNT,std::deque<SFXHIT_COUNT,std::allocator<SFXHIT_COUNT> > > >,void *> > >
PUBLIC	??1?$_Tree_temp_node_alloc@V?$allocator@U?$_Tree_node@U?$pair@$$CBKV?$queue@USFXHIT_COUNT@@V?$deque@USFXHIT_COUNT@@V?$allocator@USFXHIT_COUNT@@@std@@@std@@@std@@@std@@PAX@std@@@std@@@std@@QAE@XZ ; std::_Tree_temp_node_alloc<std::allocator<std::_Tree_node<std::pair<unsigned long const ,std::queue<SFXHIT_COUNT,std::deque<SFXHIT_COUNT,std::allocator<SFXHIT_COUNT> > > >,void *> > >::~_Tree_temp_node_alloc<std::allocator<std::_Tree_node<std::pair<unsigned long const ,std::queue<SFXHIT_COUNT,std::deque<SFXHIT_COUNT,std::allocator<SFXHIT_COUNT> > > >,void *> > >
PUBLIC	??$_Find_lower_bound@K@?$_Tree@V?$_Tmap_traits@KV?$queue@USFXHIT_INFO@@V?$deque@USFXHIT_INFO@@V?$allocator@USFXHIT_INFO@@@std@@@std@@@std@@U?$less@K@2@V?$allocator@U?$pair@$$CBKV?$queue@USFXHIT_INFO@@V?$deque@USFXHIT_INFO@@V?$allocator@USFXHIT_INFO@@@std@@@std@@@std@@@std@@@2@$0A@@std@@@std@@IBE?AU?$_Tree_find_result@PAU?$_Tree_node@U?$pair@$$CBKV?$queue@USFXHIT_INFO@@V?$deque@USFXHIT_INFO@@V?$allocator@USFXHIT_INFO@@@std@@@std@@@std@@@std@@PAX@std@@@1@ABK@Z ; std::_Tree<std::_Tmap_traits<unsigned long,std::queue<SFXHIT_INFO,std::deque<SFXHIT_INFO,std::allocator<SFXHIT_INFO> > >,std::less<unsigned long>,std::allocator<std::pair<unsigned long const ,std::queue<SFXHIT_INFO,std::deque<SFXHIT_INFO,std::allocator<SFXHIT_INFO> > > > >,0> >::_Find_lower_bound<unsigned long>
PUBLIC	??1?$_Alloc_construct_ptr@V?$allocator@U?$_Tree_node@U?$pair@$$CBKV?$queue@USFXHIT_INFO@@V?$deque@USFXHIT_INFO@@V?$allocator@USFXHIT_INFO@@@std@@@std@@@std@@@std@@PAX@std@@@std@@@std@@QAE@XZ ; std::_Alloc_construct_ptr<std::allocator<std::_Tree_node<std::pair<unsigned long const ,std::queue<SFXHIT_INFO,std::deque<SFXHIT_INFO,std::allocator<SFXHIT_INFO> > > >,void *> > >::~_Alloc_construct_ptr<std::allocator<std::_Tree_node<std::pair<unsigned long const ,std::queue<SFXHIT_INFO,std::deque<SFXHIT_INFO,std::allocator<SFXHIT_INFO> > > >,void *> > >
PUBLIC	??1?$_Tree_temp_node_alloc@V?$allocator@U?$_Tree_node@U?$pair@$$CBKV?$queue@USFXHIT_INFO@@V?$deque@USFXHIT_INFO@@V?$allocator@USFXHIT_INFO@@@std@@@std@@@std@@@std@@PAX@std@@@std@@@std@@QAE@XZ ; std::_Tree_temp_node_alloc<std::allocator<std::_Tree_node<std::pair<unsigned long const ,std::queue<SFXHIT_INFO,std::deque<SFXHIT_INFO,std::allocator<SFXHIT_INFO> > > >,void *> > >::~_Tree_temp_node_alloc<std::allocator<std::_Tree_node<std::pair<unsigned long const ,std::queue<SFXHIT_INFO,std::deque<SFXHIT_INFO,std::allocator<SFXHIT_INFO> > > >,void *> > >
PUBLIC	??$_Emplace_back_internal@ABUSFXHIT_COUNT@@@?$deque@USFXHIT_COUNT@@V?$allocator@USFXHIT_COUNT@@@std@@@std@@AAEXABUSFXHIT_COUNT@@@Z ; std::deque<SFXHIT_COUNT,std::allocator<SFXHIT_COUNT> >::_Emplace_back_internal<SFXHIT_COUNT const &>
PUBLIC	??$_Emplace_back_internal@ABUSFXHIT_INFO@@@?$deque@USFXHIT_INFO@@V?$allocator@USFXHIT_INFO@@@std@@@std@@AAEXABUSFXHIT_INFO@@@Z ; std::deque<SFXHIT_INFO,std::allocator<SFXHIT_INFO> >::_Emplace_back_internal<SFXHIT_INFO const &>
PUBLIC	??1?$_Container_proxy_ptr12@V?$allocator@U_Container_proxy@std@@@std@@@std@@QAE@XZ ; std::_Container_proxy_ptr12<std::allocator<std::_Container_proxy> >::~_Container_proxy_ptr12<std::allocator<std::_Container_proxy> >
PUBLIC	??1?$_Tidy_guard@V?$deque@USFXHIT_COUNT@@V?$allocator@USFXHIT_COUNT@@@std@@@std@@@std@@QAE@XZ ; std::_Tidy_guard<std::deque<SFXHIT_COUNT,std::allocator<SFXHIT_COUNT> > >::~_Tidy_guard<std::deque<SFXHIT_COUNT,std::allocator<SFXHIT_COUNT> > >
PUBLIC	??1?$_Tidy_guard@V?$deque@USFXHIT_INFO@@V?$allocator@USFXHIT_INFO@@@std@@@std@@@std@@QAE@XZ ; std::_Tidy_guard<std::deque<SFXHIT_INFO,std::allocator<SFXHIT_INFO> > >::~_Tidy_guard<std::deque<SFXHIT_INFO,std::allocator<SFXHIT_INFO> > >
PUBLIC	??$_Erase_tree@V?$allocator@U?$_Tree_node@U?$pair@$$CBKV?$queue@USFXHIT_COUNT@@V?$deque@USFXHIT_COUNT@@V?$allocator@USFXHIT_COUNT@@@std@@@std@@@std@@@std@@PAX@std@@@std@@@?$_Tree_val@U?$_Tree_simple_types@U?$pair@$$CBKV?$queue@USFXHIT_COUNT@@V?$deque@USFXHIT_COUNT@@V?$allocator@USFXHIT_COUNT@@@std@@@std@@@std@@@std@@@std@@@std@@QAEXAAV?$allocator@U?$_Tree_node@U?$pair@$$CBKV?$queue@USFXHIT_COUNT@@V?$deque@USFXHIT_COUNT@@V?$allocator@USFXHIT_COUNT@@@std@@@std@@@std@@@std@@PAX@std@@@1@PAU?$_Tree_node@U?$pair@$$CBKV?$queue@USFXHIT_COUNT@@V?$deque@USFXHIT_COUNT@@V?$allocator@USFXHIT_COUNT@@@std@@@std@@@std@@@std@@PAX@1@@Z ; std::_Tree_val<std::_Tree_simple_types<std::pair<unsigned long const ,std::queue<SFXHIT_COUNT,std::deque<SFXHIT_COUNT,std::allocator<SFXHIT_COUNT> > > > > >::_Erase_tree<std::allocator<std::_Tree_node<std::pair<unsigned long const ,std::queue<SFXHIT_COUNT,std::deque<SFXHIT_COUNT,std::allocator<SFXHIT_COUNT> > > >,void *> > >
PUBLIC	??$uninitialized_copy@PAPAUSFXHIT_COUNT@@PAPAU1@@std@@YAPAPAUSFXHIT_COUNT@@QAPAU1@0PAPAU1@@Z ; std::uninitialized_copy<SFXHIT_COUNT * *,SFXHIT_COUNT * *>
PUBLIC	??$_Uninitialized_value_construct_n_unchecked1@PAPAUSFXHIT_COUNT@@I@std@@YAPAPAUSFXHIT_COUNT@@PAPAU1@I@Z ; std::_Uninitialized_value_construct_n_unchecked1<SFXHIT_COUNT * *,unsigned int>
PUBLIC	??$_Erase_tree@V?$allocator@U?$_Tree_node@U?$pair@$$CBKV?$queue@USFXHIT_INFO@@V?$deque@USFXHIT_INFO@@V?$allocator@USFXHIT_INFO@@@std@@@std@@@std@@@std@@PAX@std@@@std@@@?$_Tree_val@U?$_Tree_simple_types@U?$pair@$$CBKV?$queue@USFXHIT_INFO@@V?$deque@USFXHIT_INFO@@V?$allocator@USFXHIT_INFO@@@std@@@std@@@std@@@std@@@std@@@std@@QAEXAAV?$allocator@U?$_Tree_node@U?$pair@$$CBKV?$queue@USFXHIT_INFO@@V?$deque@USFXHIT_INFO@@V?$allocator@USFXHIT_INFO@@@std@@@std@@@std@@@std@@PAX@std@@@1@PAU?$_Tree_node@U?$pair@$$CBKV?$queue@USFXHIT_INFO@@V?$deque@USFXHIT_INFO@@V?$allocator@USFXHIT_INFO@@@std@@@std@@@std@@@std@@PAX@1@@Z ; std::_Tree_val<std::_Tree_simple_types<std::pair<unsigned long const ,std::queue<SFXHIT_INFO,std::deque<SFXHIT_INFO,std::allocator<SFXHIT_INFO> > > > > >::_Erase_tree<std::allocator<std::_Tree_node<std::pair<unsigned long const ,std::queue<SFXHIT_INFO,std::deque<SFXHIT_INFO,std::allocator<SFXHIT_INFO> > > >,void *> > >
PUBLIC	??$uninitialized_copy@PAPAUSFXHIT_INFO@@PAPAU1@@std@@YAPAPAUSFXHIT_INFO@@QAPAU1@0PAPAU1@@Z ; std::uninitialized_copy<SFXHIT_INFO * *,SFXHIT_INFO * *>
PUBLIC	??$_Uninitialized_value_construct_n_unchecked1@PAPAUSFXHIT_INFO@@I@std@@YAPAPAUSFXHIT_INFO@@PAPAU1@I@Z ; std::_Uninitialized_value_construct_n_unchecked1<SFXHIT_INFO * *,unsigned int>
PUBLIC	??$_Uninitialized_copy_unchecked@PAPAUSFXHIT_COUNT@@PAPAU1@@std@@YAPAPAUSFXHIT_COUNT@@PAPAU1@QAPAU1@0@Z ; std::_Uninitialized_copy_unchecked<SFXHIT_COUNT * *,SFXHIT_COUNT * *>
PUBLIC	??$_Zero_range@PAPAUSFXHIT_COUNT@@@std@@YAPAPAUSFXHIT_COUNT@@QAPAU1@0@Z ; std::_Zero_range<SFXHIT_COUNT * *>
PUBLIC	??$_Uninitialized_copy_unchecked@PAPAUSFXHIT_INFO@@PAPAU1@@std@@YAPAPAUSFXHIT_INFO@@PAPAU1@QAPAU1@0@Z ; std::_Uninitialized_copy_unchecked<SFXHIT_INFO * *,SFXHIT_INFO * *>
PUBLIC	??$_Zero_range@PAPAUSFXHIT_INFO@@@std@@YAPAPAUSFXHIT_INFO@@QAPAU1@0@Z ; std::_Zero_range<SFXHIT_INFO * *>
PUBLIC	??$_Copy_memmove@PAPAUSFXHIT_COUNT@@PAPAU1@@std@@YAPAPAUSFXHIT_COUNT@@PAPAU1@00@Z ; std::_Copy_memmove<SFXHIT_COUNT * *,SFXHIT_COUNT * *>
PUBLIC	??$_Copy_memmove@PAPAUSFXHIT_INFO@@PAPAU1@@std@@YAPAPAUSFXHIT_INFO@@PAPAU1@00@Z ; std::_Copy_memmove<SFXHIT_INFO * *,SFXHIT_INFO * *>
PUBLIC	??$_Copy_memmove_tail@PAPAUSFXHIT_COUNT@@@std@@YAPAPAUSFXHIT_COUNT@@QBDQAPAU1@II@Z ; std::_Copy_memmove_tail<SFXHIT_COUNT * *>
PUBLIC	??$_Construct_in_place_by_deref@PAUSFXHIT_COUNT@@PAPAU1@@std@@YAXAAPAUSFXHIT_COUNT@@AAPAPAU1@@Z ; std::_Construct_in_place_by_deref<SFXHIT_COUNT *,SFXHIT_COUNT * *>
PUBLIC	??$_Copy_memmove_tail@PAPAUSFXHIT_INFO@@@std@@YAPAPAUSFXHIT_INFO@@QBDQAPAU1@II@Z ; std::_Copy_memmove_tail<SFXHIT_INFO * *>
PUBLIC	??$_Construct_in_place_by_deref@PAUSFXHIT_INFO@@PAPAU1@@std@@YAXAAPAUSFXHIT_INFO@@AAPAPAU1@@Z ; std::_Construct_in_place_by_deref<SFXHIT_INFO *,SFXHIT_INFO * *>
PUBLIC	??_7exception@std@@6B@				; std::exception::`vftable'
PUBLIC	??_C@_0BC@EOODALEL@Unknown?5exception@		; `string'
PUBLIC	??_7bad_alloc@std@@6B@				; std::bad_alloc::`vftable'
PUBLIC	??_7bad_array_new_length@std@@6B@		; std::bad_array_new_length::`vftable'
PUBLIC	??_C@_0BF@KINCDENJ@bad?5array?5new?5length@	; `string'
PUBLIC	??_R0?AVexception@std@@@8			; std::exception `RTTI Type Descriptor'
PUBLIC	__CT??_R0?AVexception@std@@@8??0exception@std@@QAE@ABV01@@Z12
PUBLIC	__TI3?AVbad_array_new_length@std@@
PUBLIC	__CTA3?AVbad_array_new_length@std@@
PUBLIC	??_R0?AVbad_array_new_length@std@@@8		; std::bad_array_new_length `RTTI Type Descriptor'
PUBLIC	__CT??_R0?AVbad_array_new_length@std@@@8??0bad_array_new_length@std@@QAE@ABV01@@Z12
PUBLIC	??_R0?AVbad_alloc@std@@@8			; std::bad_alloc `RTTI Type Descriptor'
PUBLIC	__CT??_R0?AVbad_alloc@std@@@8??0bad_alloc@std@@QAE@ABV01@@Z12
PUBLIC	??_C@_0BB@GCADKGJO@map?1set?5too?5long@		; `string'
PUBLIC	??_C@_0BM@HMFGHCP@?$CFs?5min?3?$CFd?0?5max?3?$CFd?0?5index?3?$CFd@ ; `string'
PUBLIC	??_C@_0BI@BEIFNGEL@GetItemProp?5range_error@	; `string'
PUBLIC	??_C@_0BJ@GPNGCFMK@GetSkillProp?5range_error@	; `string'
PUBLIC	??_C@_0BJ@GKPOBPPI@GetMoverProp?5range_error@	; `string'
PUBLIC	??_R4exception@std@@6B@				; std::exception::`RTTI Complete Object Locator'
PUBLIC	??_R3exception@std@@8				; std::exception::`RTTI Class Hierarchy Descriptor'
PUBLIC	??_R2exception@std@@8				; std::exception::`RTTI Base Class Array'
PUBLIC	??_R1A@?0A@EA@exception@std@@8			; std::exception::`RTTI Base Class Descriptor at (0,-1,0,64)'
PUBLIC	??_R4bad_array_new_length@std@@6B@		; std::bad_array_new_length::`RTTI Complete Object Locator'
PUBLIC	??_R3bad_array_new_length@std@@8		; std::bad_array_new_length::`RTTI Class Hierarchy Descriptor'
PUBLIC	??_R2bad_array_new_length@std@@8		; std::bad_array_new_length::`RTTI Base Class Array'
PUBLIC	??_R1A@?0A@EA@bad_array_new_length@std@@8	; std::bad_array_new_length::`RTTI Base Class Descriptor at (0,-1,0,64)'
PUBLIC	??_R1A@?0A@EA@bad_alloc@std@@8			; std::bad_alloc::`RTTI Base Class Descriptor at (0,-1,0,64)'
PUBLIC	??_R3bad_alloc@std@@8				; std::bad_alloc::`RTTI Class Hierarchy Descriptor'
PUBLIC	??_R2bad_alloc@std@@8				; std::bad_alloc::`RTTI Base Class Array'
PUBLIC	??_R4bad_alloc@std@@6B@				; std::bad_alloc::`RTTI Complete Object Locator'
PUBLIC	??_C@_03MNDEGCIG@xxx@				; `string'
PUBLIC	??_C@_0EB@EBLOEGFE@CMover?3?3GetMeleeSkillPower?$CI?$CJ?5?9?5@ ; `string'
PUBLIC	??_C@_08IKHLBNOC@OnSfxHit@			; `string'
PUBLIC	??_C@_0CC@OLPGPEPO@OnSfxHit?5?3?5skill?$DN?$CFd?$LI?$KG?5?$LA?$KB?A?v?A?v?5?$LO?J@ ; `string'
PUBLIC	??_C@_0BC@KBDMBKEH@deque?$DMT?$DO?5too?5long@	; `string'
PUBLIC	__real@00000000
PUBLIC	__real@3c23d70a
PUBLIC	__real@3c8efa35
PUBLIC	__real@3dcccccd
PUBLIC	__real@3e000000
PUBLIC	__real@3e4ccccd
PUBLIC	__real@3e99999a
PUBLIC	__real@3f000000
PUBLIC	__real@3f19999a
PUBLIC	__real@3f333333
PUBLIC	__real@3f400000
PUBLIC	__real@3f4ccccd
PUBLIC	__real@3f666666
PUBLIC	__real@3f800000
PUBLIC	__real@3f866666
PUBLIC	__real@3f8ccccd
PUBLIC	__real@3f99999a
PUBLIC	__real@3fa0000000000000
PUBLIC	__real@3fa66666
PUBLIC	__real@3fb33333
PUBLIC	__real@3fc00000
PUBLIC	__real@3fcccccd
PUBLIC	__real@3fe66666
PUBLIC	__real@3ff8000000000000
PUBLIC	__real@40000000
PUBLIC	__real@400921fb54411744
PUBLIC	__real@40133333
PUBLIC	__real@40266666
PUBLIC	__real@40333333
PUBLIC	__real@40400000
PUBLIC	__real@40600000
PUBLIC	__real@40800000
PUBLIC	__real@40e00000
PUBLIC	__real@4110a3d7
PUBLIC	__real@41200000
PUBLIC	__real@41700000
PUBLIC	__real@420feb85
PUBLIC	__real@42480000
PUBLIC	__real@42c80000
PUBLIC	__real@433b8000
PUBLIC	__real@43480000
PUBLIC	__real@43f50000
PUBLIC	__real@43fd8000
PUBLIC	__real@44480000
PUBLIC	__real@447a0000
PUBLIC	__real@477e0100
PUBLIC	__real@c2c80000
PUBLIC	__xmm@3ea3d70a3e75c28f3e23d70a3da3d70a
PUBLIC	__xmm@3f23d70a3f0f5c293ef5c28f3ecccccd
PUBLIC	__xmm@3f75c28f3f6147ae3f4ccccd3f3851ec
PUBLIC	__xmm@3fa666663f99999a3f8f5c293f851eb8
PUBLIC	__xmm@41f00000000000000000000000000000
PUBLIC	__xmm@80000000800000008000000080000000
EXTRN	??2@YAPAXI@Z:PROC				; operator new
EXTRN	??3@YAXPAXI@Z:PROC				; operator delete
EXTRN	__invoke_watson:PROC
EXTRN	__imp__GetTickCount@0:PROC
EXTRN	__imp__MulDiv@12:PROC
EXTRN	_rand:PROC
EXTRN	___std_exception_copy:PROC
EXTRN	___std_exception_destroy:PROC
EXTRN	??_Eexception@std@@UAEPAXI@Z:PROC		; std::exception::`vector deleting destructor'
EXTRN	??_Ebad_alloc@std@@UAEPAXI@Z:PROC		; std::bad_alloc::`vector deleting destructor'
EXTRN	??_Ebad_array_new_length@std@@UAEPAXI@Z:PROC	; std::bad_array_new_length::`vector deleting destructor'
EXTRN	?_Xlength_error@std@@YAXPBD@Z:PROC		; std::_Xlength_error
EXTRN	__imp__timeGetTime@0:PROC
EXTRN	?CanIgnoreDEF@ATTACK_INFO@@QBEHXZ:PROC		; ATTACK_INFO::CanIgnoreDEF
EXTRN	?GetChargeLevel@ATTACK_INFO@@QBEHXZ:PROC	; ATTACK_INFO::GetChargeLevel
EXTRN	?GetSkill@ATTACK_INFO@@QBEHXZ:PROC		; ATTACK_INFO::GetSkill
EXTRN	?IsRangeAttack@ATTACK_INFO@@QBEHXZ:PROC		; ATTACK_INFO::IsRangeAttack
EXTRN	?GetSkillLevel@ATTACK_INFO@@QBEHXZ:PROC		; ATTACK_INFO::GetSkillLevel
EXTRN	?xRandom@@YAKKK@Z:PROC				; xRandom
EXTRN	?Error@@YAPBDPBDZZ:PROC				; Error
EXTRN	?GetLanguage@@YAHXZ:PROC			; GetLanguage
EXTRN	?DoApplySkill@CCtrl@@QAEHPAV1@PAUItemProp@@PAUAddSkillProp@@_NHHH@Z:PROC ; CCtrl::DoApplySkill
EXTRN	?GetDefensePower@CEventLua@@QAEHH@Z:PROC	; CEventLua::GetDefensePower
EXTRN	?GetJobProp@CProject@@QAEPAUJobProp@@H@Z:PROC	; CProject::GetJobProp
EXTRN	?GetExpUpItem@CProject@@QAEHKH@Z:PROC		; CProject::GetExpUpItem
EXTRN	?GetAddSkillProp@CProject@@QAEPAUAddSkillProp@@KK@Z:PROC ; CProject::GetAddSkillProp
EXTRN	?GetMover@CProject@@QAEPAVCMover@@K@Z:PROC	; CProject::GetMover
EXTRN	?ClearState@CAction@@QAEXXZ:PROC		; CAction::ClearState
EXTRN	?ResetState@CAction@@QAEXK@Z:PROC		; CAction::ResetState
EXTRN	?DoDamageFly@CActionMover@@QAEXMMM@Z:PROC	; CActionMover::DoDamageFly
EXTRN	?HasBuff@CMover@@QAEHGG@Z:PROC			; CMover::HasBuff
EXTRN	?IsSteal@CMover@@QAEHPAV1@@Z:PROC		; CMover::IsSteal
EXTRN	?GetActiveHandItemProp@CMover@@QAEPAUItemProp@@H@Z:PROC ; CMover::GetActiveHandItemProp
EXTRN	?GetWeaponItem@CMover@@QAEPAVCItemElem@@H@Z:PROC ; CMover::GetWeaponItem
EXTRN	?GetEquipItem@CMover@@QAEPAVCItemElem@@H@Z:PROC	; CMover::GetEquipItem
EXTRN	?IsDualWeapon@CMover@@QAEHXZ:PROC		; CMover::IsDualWeapon
EXTRN	?GetParam@CMover@@QAEHHH@Z:PROC			; CMover::GetParam
EXTRN	?GetAdjParam@CMover@@QAEHH@Z:PROC		; CMover::GetAdjParam
EXTRN	?GetSkill@CMover@@QAEPAUtagSkill@@K@Z:PROC	; CMover::GetSkill
EXTRN	?GetName@CMover@@QAEPBDH@Z:PROC			; CMover::GetName
EXTRN	?IsBaseJob@CMover@@QAEHXZ:PROC			; CMover::IsBaseJob
EXTRN	?GetJob@CMover@@QAEHXZ:PROC			; CMover::GetJob
EXTRN	?GetStr@CMover@@QAEHXZ:PROC			; CMover::GetStr
EXTRN	?GetDex@CMover@@QAEHXZ:PROC			; CMover::GetDex
EXTRN	?GetInt@CMover@@QAEHXZ:PROC			; CMover::GetInt
EXTRN	?GetSta@CMover@@QAEHXZ:PROC			; CMover::GetSta
EXTRN	?GetHitPointPercent@CMover@@QAEHH@Z:PROC	; CMover::GetHitPointPercent
EXTRN	?GetManaPointPercent@CMover@@QAEHH@Z:PROC	; CMover::GetManaPointPercent
EXTRN	?GetHitPoint@CMover@@QAEHXZ:PROC		; CMover::GetHitPoint
EXTRN	?GetMaxHitPoint@CMover@@QAEHXZ:PROC		; CMover::GetMaxHitPoint
EXTRN	?GetAdjHitRate@CMover@@QAEHXZ:PROC		; CMover::GetAdjHitRate
EXTRN	?GetParrying@CMover@@QAEHXZ:PROC		; CMover::GetParrying
EXTRN	?GetResistMagic@CMover@@QAEHXZ:PROC		; CMover::GetResistMagic
EXTRN	?GetResistSpell@CMover@@QAEHH@Z:PROC		; CMover::GetResistSpell
EXTRN	?GetItemAbilityMin@CMover@@QAEHH@Z:PROC		; CMover::GetItemAbilityMin
EXTRN	?GetItemAbilityMax@CMover@@QAEHH@Z:PROC		; CMover::GetItemAbilityMax
EXTRN	?AddEnemy@CMover@@QAEKKH@Z:PROC			; CMover::AddEnemy
EXTRN	?IsAttackAbleNPC@CMover@@QAEHPAV1@@Z:PROC	; CMover::IsAttackAbleNPC
EXTRN	?GetPKPVPRegionAttr@CMover@@QAEKXZ:PROC		; CMover::GetPKPVPRegionAttr
EXTRN	?GetState@CFlyffEvent@@QAEEH@Z:PROC		; CFlyffEvent::GetState
EXTRN	?GetLeader@CParty@@QAEPAVCMover@@XZ:PROC	; CParty::GetLeader
EXTRN	?FindMember@CParty@@QAEHK@Z:PROC		; CParty::FindMember
EXTRN	?GetParty@CPartyMng@@QAEPAVCParty@@K@Z:PROC	; CPartyMng::GetParty
EXTRN	?AddCorrReq@CUser@@QAEXPAVCMover@@@Z:PROC	; CUser::AddCorrReq
EXTRN	?GetUserByPlayerID@CUserMng@@QAEPAVCUser@@K@Z:PROC ; CUserMng::GetUserByPlayerID
EXTRN	?AddPKPink@CUserMng@@QAEXPAVCMover@@E@Z:PROC	; CUserMng::AddPKPink
EXTRN	?GetInstance@CItemUpgrade@@SAPAV1@XZ:PROC	; CItemUpgrade::GetInstance
EXTRN	?GetAttributeDamageFactor@CItemUpgrade@@QAEHH@Z:PROC ; CItemUpgrade::GetAttributeDamageFactor
EXTRN	?GetAttributeDefenseFactor@CItemUpgrade@@QAEHH@Z:PROC ; CItemUpgrade::GetAttributeDefenseFactor
EXTRN	?GetAttributeAddAtkDmgFactor@CItemUpgrade@@QAEHH@Z:PROC ; CItemUpgrade::GetAttributeAddAtkDmgFactor
EXTRN	@__security_check_cookie@4:PROC
EXTRN	__CxxThrowException@8:PROC
EXTRN	___CxxFrameHandler3:PROC
EXTRN	__ftol3:PROC
EXTRN	__libm_sse2_cos_precise:PROC
EXTRN	__libm_sse2_pow_precise:PROC
EXTRN	__libm_sse2_sin_precise:PROC
EXTRN	_memmove:PROC
EXTRN	_memset:PROC
EXTRN	??_7type_info@@6B@:QWORD			; type_info::`vftable'
EXTRN	?g_next@@3KA:DWORD				; g_next
EXTRN	?m_fMonsterHitRate@CProject@@2MA:DWORD		; CProject::m_fMonsterHitRate
EXTRN	?prj@@3VCProject@@A:BYTE			; prj
EXTRN	?g_eLocal@@3VCFlyffEvent@@A:BYTE		; g_eLocal
EXTRN	?g_GuildCombat1to1Mng@@3VCGuildCombat1to1Mng@@A:BYTE ; g_GuildCombat1to1Mng
EXTRN	?g_UserMng@@3VCUserMng@@A:BYTE			; g_UserMng
EXTRN	?g_GuildCombatMng@@3VCGuildCombat@@A:BYTE	; g_GuildCombatMng
EXTRN	?g_PartyMng@@3VCPartyMng@@A:BYTE		; g_PartyMng
EXTRN	___security_cookie:DWORD
EXTRN	__fltused:DWORD
;	COMDAT __xmm@80000000800000008000000080000000
CONST	SEGMENT
__xmm@80000000800000008000000080000000 DB 00H, 00H, 00H, 080H, 00H, 00H, 00H
	DB	080H, 00H, 00H, 00H, 080H, 00H, 00H, 00H, 080H
CONST	ENDS
;	COMDAT __xmm@41f00000000000000000000000000000
CONST	SEGMENT
__xmm@41f00000000000000000000000000000 DB 00H, 00H, 00H, 00H, 00H, 00H, 00H
	DB	00H, 00H, 00H, 00H, 00H, 00H, 00H, 0f0H, 'A'
CONST	ENDS
;	COMDAT __xmm@3fa666663f99999a3f8f5c293f851eb8
CONST	SEGMENT
__xmm@3fa666663f99999a3f8f5c293f851eb8 DB 0b8H, 01eH, 085H, '?)\', 08fH, '?'
	DB	09aH, 099H, 099H, '?ff', 0a6H, '?'
CONST	ENDS
;	COMDAT __xmm@3f75c28f3f6147ae3f4ccccd3f3851ec
CONST	SEGMENT
__xmm@3f75c28f3f6147ae3f4ccccd3f3851ec DB 0ecH, 'Q8?', 0cdH, 0ccH, 'L?', 0aeH
	DB	'Ga?', 08fH, 0c2H, 'u?'
CONST	ENDS
;	COMDAT __xmm@3f23d70a3f0f5c293ef5c28f3ecccccd
CONST	SEGMENT
__xmm@3f23d70a3f0f5c293ef5c28f3ecccccd DB 0cdH, 0ccH, 0ccH, '>', 08fH, 0c2H
	DB	0f5H, '>)\', 0fH, '?', 0aH, 0d7H, '#?'
CONST	ENDS
;	COMDAT __xmm@3ea3d70a3e75c28f3e23d70a3da3d70a
CONST	SEGMENT
__xmm@3ea3d70a3e75c28f3e23d70a3da3d70a DB 0aH, 0d7H, 0a3H, '=', 0aH, 0d7H
	DB	'#>', 08fH, 0c2H, 'u>', 0aH, 0d7H, 0a3H, '>'
CONST	ENDS
;	COMDAT __real@c2c80000
CONST	SEGMENT
__real@c2c80000 DD 0c2c80000r			; -100
CONST	ENDS
;	COMDAT __real@477e0100
CONST	SEGMENT
__real@477e0100 DD 0477e0100r			; 65025
CONST	ENDS
;	COMDAT __real@447a0000
CONST	SEGMENT
__real@447a0000 DD 0447a0000r			; 1000
CONST	ENDS
;	COMDAT __real@44480000
CONST	SEGMENT
__real@44480000 DD 044480000r			; 800
CONST	ENDS
;	COMDAT __real@43fd8000
CONST	SEGMENT
__real@43fd8000 DD 043fd8000r			; 507
CONST	ENDS
;	COMDAT __real@43f50000
CONST	SEGMENT
__real@43f50000 DD 043f50000r			; 490
CONST	ENDS
;	COMDAT __real@43480000
CONST	SEGMENT
__real@43480000 DD 043480000r			; 200
CONST	ENDS
;	COMDAT __real@433b8000
CONST	SEGMENT
__real@433b8000 DD 0433b8000r			; 187.5
CONST	ENDS
;	COMDAT __real@42c80000
CONST	SEGMENT
__real@42c80000 DD 042c80000r			; 100
CONST	ENDS
;	COMDAT __real@42480000
CONST	SEGMENT
__real@42480000 DD 042480000r			; 50
CONST	ENDS
;	COMDAT __real@420feb85
CONST	SEGMENT
__real@420feb85 DD 0420feb85r			; 35.98
CONST	ENDS
;	COMDAT __real@41700000
CONST	SEGMENT
__real@41700000 DD 041700000r			; 15
CONST	ENDS
;	COMDAT __real@41200000
CONST	SEGMENT
__real@41200000 DD 041200000r			; 10
CONST	ENDS
;	COMDAT __real@4110a3d7
CONST	SEGMENT
__real@4110a3d7 DD 04110a3d7r			; 9.04
CONST	ENDS
;	COMDAT __real@40e00000
CONST	SEGMENT
__real@40e00000 DD 040e00000r			; 7
CONST	ENDS
;	COMDAT __real@40800000
CONST	SEGMENT
__real@40800000 DD 040800000r			; 4
CONST	ENDS
;	COMDAT __real@40600000
CONST	SEGMENT
__real@40600000 DD 040600000r			; 3.5
CONST	ENDS
;	COMDAT __real@40400000
CONST	SEGMENT
__real@40400000 DD 040400000r			; 3
CONST	ENDS
;	COMDAT __real@40333333
CONST	SEGMENT
__real@40333333 DD 040333333r			; 2.8
CONST	ENDS
;	COMDAT __real@40266666
CONST	SEGMENT
__real@40266666 DD 040266666r			; 2.6
CONST	ENDS
;	COMDAT __real@40133333
CONST	SEGMENT
__real@40133333 DD 040133333r			; 2.3
CONST	ENDS
;	COMDAT __real@400921fb54411744
CONST	SEGMENT
__real@400921fb54411744 DQ 0400921fb54411744r	; 3.14159
CONST	ENDS
;	COMDAT __real@40000000
CONST	SEGMENT
__real@40000000 DD 040000000r			; 2
CONST	ENDS
;	COMDAT __real@3ff8000000000000
CONST	SEGMENT
__real@3ff8000000000000 DQ 03ff8000000000000r	; 1.5
CONST	ENDS
;	COMDAT __real@3fe66666
CONST	SEGMENT
__real@3fe66666 DD 03fe66666r			; 1.8
CONST	ENDS
;	COMDAT __real@3fcccccd
CONST	SEGMENT
__real@3fcccccd DD 03fcccccdr			; 1.6
CONST	ENDS
;	COMDAT __real@3fc00000
CONST	SEGMENT
__real@3fc00000 DD 03fc00000r			; 1.5
CONST	ENDS
;	COMDAT __real@3fb33333
CONST	SEGMENT
__real@3fb33333 DD 03fb33333r			; 1.4
CONST	ENDS
;	COMDAT __real@3fa66666
CONST	SEGMENT
__real@3fa66666 DD 03fa66666r			; 1.3
CONST	ENDS
;	COMDAT __real@3fa0000000000000
CONST	SEGMENT
__real@3fa0000000000000 DQ 03fa0000000000000r	; 0.03125
CONST	ENDS
;	COMDAT __real@3f99999a
CONST	SEGMENT
__real@3f99999a DD 03f99999ar			; 1.2
CONST	ENDS
;	COMDAT __real@3f8ccccd
CONST	SEGMENT
__real@3f8ccccd DD 03f8ccccdr			; 1.1
CONST	ENDS
;	COMDAT __real@3f866666
CONST	SEGMENT
__real@3f866666 DD 03f866666r			; 1.05
CONST	ENDS
;	COMDAT __real@3f800000
CONST	SEGMENT
__real@3f800000 DD 03f800000r			; 1
CONST	ENDS
;	COMDAT __real@3f666666
CONST	SEGMENT
__real@3f666666 DD 03f666666r			; 0.9
CONST	ENDS
;	COMDAT __real@3f4ccccd
CONST	SEGMENT
__real@3f4ccccd DD 03f4ccccdr			; 0.8
CONST	ENDS
;	COMDAT __real@3f400000
CONST	SEGMENT
__real@3f400000 DD 03f400000r			; 0.75
CONST	ENDS
;	COMDAT __real@3f333333
CONST	SEGMENT
__real@3f333333 DD 03f333333r			; 0.7
CONST	ENDS
;	COMDAT __real@3f19999a
CONST	SEGMENT
__real@3f19999a DD 03f19999ar			; 0.6
CONST	ENDS
;	COMDAT __real@3f000000
CONST	SEGMENT
__real@3f000000 DD 03f000000r			; 0.5
CONST	ENDS
;	COMDAT __real@3e99999a
CONST	SEGMENT
__real@3e99999a DD 03e99999ar			; 0.3
CONST	ENDS
;	COMDAT __real@3e4ccccd
CONST	SEGMENT
__real@3e4ccccd DD 03e4ccccdr			; 0.2
CONST	ENDS
;	COMDAT __real@3e000000
CONST	SEGMENT
__real@3e000000 DD 03e000000r			; 0.125
CONST	ENDS
;	COMDAT __real@3dcccccd
CONST	SEGMENT
__real@3dcccccd DD 03dcccccdr			; 0.1
CONST	ENDS
;	COMDAT __real@3c8efa35
CONST	SEGMENT
__real@3c8efa35 DD 03c8efa35r			; 0.0174533
CONST	ENDS
;	COMDAT __real@3c23d70a
CONST	SEGMENT
__real@3c23d70a DD 03c23d70ar			; 0.01
CONST	ENDS
;	COMDAT __real@00000000
CONST	SEGMENT
__real@00000000 DD 000000000r			; 0
CONST	ENDS
;	COMDAT ??_C@_0BC@KBDMBKEH@deque?$DMT?$DO?5too?5long@
CONST	SEGMENT
??_C@_0BC@KBDMBKEH@deque?$DMT?$DO?5too?5long@ DB 'deque<T> too long', 00H ; `string'
CONST	ENDS
;	COMDAT ??_C@_0CC@OLPGPEPO@OnSfxHit?5?3?5skill?$DN?$CFd?$LI?$KG?5?$LA?$KB?A?v?A?v?5?$LO?J@
CONST	SEGMENT
??_C@_0CC@OLPGPEPO@OnSfxHit?5?3?5skill?$DN?$CFd?$LI?$KG?5?$LA?$KB?A?v?A?v?5?$LO?J@ DB 'O'
	DB	'nSfxHit : skill=%d', 0b8H, 0a6H, ' ', 0b0H, 0a1H, 0c1H, 0f6H, 0c1H
	DB	0f6H, ' ', 0beH, 0caH, 0c0H, 0bdH, 00H	; `string'
CONST	ENDS
;	COMDAT ??_C@_08IKHLBNOC@OnSfxHit@
CONST	SEGMENT
??_C@_08IKHLBNOC@OnSfxHit@ DB 'OnSfxHit', 00H		; `string'
CONST	ENDS
;	COMDAT ??_C@_0EB@EBLOEGFE@CMover?3?3GetMeleeSkillPower?$CI?$CJ?5?9?5@
CONST	SEGMENT
??_C@_0EB@EBLOEGFE@CMover?3?3GetMeleeSkillPower?$CI?$CJ?5?9?5@ DB 'CMover'
	DB	'::GetMeleeSkillPower() - nSkill : %d, Name : %s, Item : %d', 00H ; `string'
CONST	ENDS
;	COMDAT ??_C@_03MNDEGCIG@xxx@
CONST	SEGMENT
??_C@_03MNDEGCIG@xxx@ DB 'xxx', 00H			; `string'
CONST	ENDS
;	COMDAT ?table@?1??GetDamagePropertyFactor@CMover@@QAEXPAV2@PAH1H@Z@4PAY05HA
_DATA	SEGMENT
?table@?1??GetDamagePropertyFactor@CMover@@QAEXPAV2@PAH1H@Z@4PAY05HA DD 00H ; `CMover::GetDamagePropertyFactor'::`2'::table
	DD	00H
	DD	00H
	DD	00H
	DD	00H
	DD	00H
	DD	00H
	DD	01H
	DD	02H
	DD	00H
	DD	03H
	DD	00H
	DD	00H
	DD	03H
	DD	01H
	DD	02H
	DD	00H
	DD	00H
	DD	00H
	DD	00H
	DD	03H
	DD	01H
	DD	00H
	DD	02H
	DD	00H
	DD	02H
	DD	00H
	DD	00H
	DD	01H
	DD	03H
	DD	00H
	DD	00H
	DD	00H
	DD	03H
	DD	02H
	DD	01H
_DATA	ENDS
;	COMDAT ?factors@?1??GetChargeMultiplier@@YAMH@Z@4PAMA
_DATA	SEGMENT
?factors@?1??GetChargeMultiplier@@YAMH@Z@4PAMA DD 03f800000r ; 1 ; `GetChargeMultiplier'::`2'::factors
	DD	03f99999ar			; 1.2
	DD	03fc00000r			; 1.5
	DD	03fe66666r			; 1.8
	DD	0400ccccdr			; 2.2
_DATA	ENDS
;	COMDAT ??_R4bad_alloc@std@@6B@
rdata$r	SEGMENT
??_R4bad_alloc@std@@6B@ DD 00H				; std::bad_alloc::`RTTI Complete Object Locator'
	DD	00H
	DD	00H
	DD	FLAT:??_R0?AVbad_alloc@std@@@8
	DD	FLAT:??_R3bad_alloc@std@@8
rdata$r	ENDS
;	COMDAT ??_R2bad_alloc@std@@8
rdata$r	SEGMENT
??_R2bad_alloc@std@@8 DD FLAT:??_R1A@?0A@EA@bad_alloc@std@@8 ; std::bad_alloc::`RTTI Base Class Array'
	DD	FLAT:??_R1A@?0A@EA@exception@std@@8
rdata$r	ENDS
;	COMDAT ??_R3bad_alloc@std@@8
rdata$r	SEGMENT
??_R3bad_alloc@std@@8 DD 00H				; std::bad_alloc::`RTTI Class Hierarchy Descriptor'
	DD	00H
	DD	02H
	DD	FLAT:??_R2bad_alloc@std@@8
rdata$r	ENDS
;	COMDAT ??_R1A@?0A@EA@bad_alloc@std@@8
rdata$r	SEGMENT
??_R1A@?0A@EA@bad_alloc@std@@8 DD FLAT:??_R0?AVbad_alloc@std@@@8 ; std::bad_alloc::`RTTI Base Class Descriptor at (0,-1,0,64)'
	DD	01H
	DD	00H
	DD	0ffffffffH
	DD	00H
	DD	040H
	DD	FLAT:??_R3bad_alloc@std@@8
rdata$r	ENDS
;	COMDAT ??_R1A@?0A@EA@bad_array_new_length@std@@8
rdata$r	SEGMENT
??_R1A@?0A@EA@bad_array_new_length@std@@8 DD FLAT:??_R0?AVbad_array_new_length@std@@@8 ; std::bad_array_new_length::`RTTI Base Class Descriptor at (0,-1,0,64)'
	DD	02H
	DD	00H
	DD	0ffffffffH
	DD	00H
	DD	040H
	DD	FLAT:??_R3bad_array_new_length@std@@8
rdata$r	ENDS
;	COMDAT ??_R2bad_array_new_length@std@@8
rdata$r	SEGMENT
??_R2bad_array_new_length@std@@8 DD FLAT:??_R1A@?0A@EA@bad_array_new_length@std@@8 ; std::bad_array_new_length::`RTTI Base Class Array'
	DD	FLAT:??_R1A@?0A@EA@bad_alloc@std@@8
	DD	FLAT:??_R1A@?0A@EA@exception@std@@8
rdata$r	ENDS
;	COMDAT ??_R3bad_array_new_length@std@@8
rdata$r	SEGMENT
??_R3bad_array_new_length@std@@8 DD 00H			; std::bad_array_new_length::`RTTI Class Hierarchy Descriptor'
	DD	00H
	DD	03H
	DD	FLAT:??_R2bad_array_new_length@std@@8
rdata$r	ENDS
;	COMDAT ??_R4bad_array_new_length@std@@6B@
rdata$r	SEGMENT
??_R4bad_array_new_length@std@@6B@ DD 00H		; std::bad_array_new_length::`RTTI Complete Object Locator'
	DD	00H
	DD	00H
	DD	FLAT:??_R0?AVbad_array_new_length@std@@@8
	DD	FLAT:??_R3bad_array_new_length@std@@8
rdata$r	ENDS
;	COMDAT ??_R1A@?0A@EA@exception@std@@8
rdata$r	SEGMENT
??_R1A@?0A@EA@exception@std@@8 DD FLAT:??_R0?AVexception@std@@@8 ; std::exception::`RTTI Base Class Descriptor at (0,-1,0,64)'
	DD	00H
	DD	00H
	DD	0ffffffffH
	DD	00H
	DD	040H
	DD	FLAT:??_R3exception@std@@8
rdata$r	ENDS
;	COMDAT ??_R2exception@std@@8
rdata$r	SEGMENT
??_R2exception@std@@8 DD FLAT:??_R1A@?0A@EA@exception@std@@8 ; std::exception::`RTTI Base Class Array'
rdata$r	ENDS
;	COMDAT ??_R3exception@std@@8
rdata$r	SEGMENT
??_R3exception@std@@8 DD 00H				; std::exception::`RTTI Class Hierarchy Descriptor'
	DD	00H
	DD	01H
	DD	FLAT:??_R2exception@std@@8
rdata$r	ENDS
;	COMDAT ??_R4exception@std@@6B@
rdata$r	SEGMENT
??_R4exception@std@@6B@ DD 00H				; std::exception::`RTTI Complete Object Locator'
	DD	00H
	DD	00H
	DD	FLAT:??_R0?AVexception@std@@@8
	DD	FLAT:??_R3exception@std@@8
rdata$r	ENDS
;	COMDAT ??_C@_0BJ@GKPOBPPI@GetMoverProp?5range_error@
CONST	SEGMENT
??_C@_0BJ@GKPOBPPI@GetMoverProp?5range_error@ DB 'GetMoverProp range_erro'
	DB	'r', 00H					; `string'
CONST	ENDS
;	COMDAT ??_C@_0BJ@GPNGCFMK@GetSkillProp?5range_error@
CONST	SEGMENT
??_C@_0BJ@GPNGCFMK@GetSkillProp?5range_error@ DB 'GetSkillProp range_erro'
	DB	'r', 00H					; `string'
CONST	ENDS
;	COMDAT ??_C@_0BI@BEIFNGEL@GetItemProp?5range_error@
CONST	SEGMENT
??_C@_0BI@BEIFNGEL@GetItemProp?5range_error@ DB 'GetItemProp range_error', 00H ; `string'
CONST	ENDS
;	COMDAT ??_C@_0BM@HMFGHCP@?$CFs?5min?3?$CFd?0?5max?3?$CFd?0?5index?3?$CFd@
CONST	SEGMENT
??_C@_0BM@HMFGHCP@?$CFs?5min?3?$CFd?0?5max?3?$CFd?0?5index?3?$CFd@ DB '%s'
	DB	' min:%d, max:%d, index:%d', 00H		; `string'
CONST	ENDS
;	COMDAT ??_C@_0BB@GCADKGJO@map?1set?5too?5long@
CONST	SEGMENT
??_C@_0BB@GCADKGJO@map?1set?5too?5long@ DB 'map/set too long', 00H ; `string'
CONST	ENDS
;	COMDAT __CT??_R0?AVbad_alloc@std@@@8??0bad_alloc@std@@QAE@ABV01@@Z12
xdata$x	SEGMENT
__CT??_R0?AVbad_alloc@std@@@8??0bad_alloc@std@@QAE@ABV01@@Z12 DD 010H
	DD	FLAT:??_R0?AVbad_alloc@std@@@8
	DD	00H
	DD	0ffffffffH
	ORG $+4
	DD	0cH
	DD	FLAT:??0bad_alloc@std@@QAE@ABV01@@Z
xdata$x	ENDS
;	COMDAT ??_R0?AVbad_alloc@std@@@8
data$r	SEGMENT
??_R0?AVbad_alloc@std@@@8 DD FLAT:??_7type_info@@6B@	; std::bad_alloc `RTTI Type Descriptor'
	DD	00H
	DB	'.?AVbad_alloc@std@@', 00H
data$r	ENDS
;	COMDAT __CT??_R0?AVbad_array_new_length@std@@@8??0bad_array_new_length@std@@QAE@ABV01@@Z12
xdata$x	SEGMENT
__CT??_R0?AVbad_array_new_length@std@@@8??0bad_array_new_length@std@@QAE@ABV01@@Z12 DD 00H
	DD	FLAT:??_R0?AVbad_array_new_length@std@@@8
	DD	00H
	DD	0ffffffffH
	ORG $+4
	DD	0cH
	DD	FLAT:??0bad_array_new_length@std@@QAE@ABV01@@Z
xdata$x	ENDS
;	COMDAT ??_R0?AVbad_array_new_length@std@@@8
data$r	SEGMENT
??_R0?AVbad_array_new_length@std@@@8 DD FLAT:??_7type_info@@6B@ ; std::bad_array_new_length `RTTI Type Descriptor'
	DD	00H
	DB	'.?AVbad_array_new_length@std@@', 00H
data$r	ENDS
;	COMDAT __CTA3?AVbad_array_new_length@std@@
xdata$x	SEGMENT
__CTA3?AVbad_array_new_length@std@@ DD 03H
	DD	FLAT:__CT??_R0?AVbad_array_new_length@std@@@8??0bad_array_new_length@std@@QAE@ABV01@@Z12
	DD	FLAT:__CT??_R0?AVbad_alloc@std@@@8??0bad_alloc@std@@QAE@ABV01@@Z12
	DD	FLAT:__CT??_R0?AVexception@std@@@8??0exception@std@@QAE@ABV01@@Z12
xdata$x	ENDS
;	COMDAT __TI3?AVbad_array_new_length@std@@
xdata$x	SEGMENT
__TI3?AVbad_array_new_length@std@@ DD 00H
	DD	FLAT:??1bad_array_new_length@std@@UAE@XZ
	DD	00H
	DD	FLAT:__CTA3?AVbad_array_new_length@std@@
xdata$x	ENDS
;	COMDAT __CT??_R0?AVexception@std@@@8??0exception@std@@QAE@ABV01@@Z12
xdata$x	SEGMENT
__CT??_R0?AVexception@std@@@8??0exception@std@@QAE@ABV01@@Z12 DD 00H
	DD	FLAT:??_R0?AVexception@std@@@8
	DD	00H
	DD	0ffffffffH
	ORG $+4
	DD	0cH
	DD	FLAT:??0exception@std@@QAE@ABV01@@Z
xdata$x	ENDS
;	COMDAT ??_R0?AVexception@std@@@8
data$r	SEGMENT
??_R0?AVexception@std@@@8 DD FLAT:??_7type_info@@6B@	; std::exception `RTTI Type Descriptor'
	DD	00H
	DB	'.?AVexception@std@@', 00H
data$r	ENDS
;	COMDAT ??_C@_0BF@KINCDENJ@bad?5array?5new?5length@
CONST	SEGMENT
??_C@_0BF@KINCDENJ@bad?5array?5new?5length@ DB 'bad array new length', 00H ; `string'
CONST	ENDS
;	COMDAT ??_7bad_array_new_length@std@@6B@
CONST	SEGMENT
??_7bad_array_new_length@std@@6B@ DD FLAT:??_R4bad_array_new_length@std@@6B@ ; std::bad_array_new_length::`vftable'
	DD	FLAT:??_Ebad_array_new_length@std@@UAEPAXI@Z
	DD	FLAT:?what@exception@std@@UBEPBDXZ
CONST	ENDS
;	COMDAT ??_7bad_alloc@std@@6B@
CONST	SEGMENT
??_7bad_alloc@std@@6B@ DD FLAT:??_R4bad_alloc@std@@6B@	; std::bad_alloc::`vftable'
	DD	FLAT:??_Ebad_alloc@std@@UAEPAXI@Z
	DD	FLAT:?what@exception@std@@UBEPBDXZ
CONST	ENDS
;	COMDAT ??_C@_0BC@EOODALEL@Unknown?5exception@
CONST	SEGMENT
??_C@_0BC@EOODALEL@Unknown?5exception@ DB 'Unknown exception', 00H ; `string'
CONST	ENDS
;	COMDAT ??_7exception@std@@6B@
CONST	SEGMENT
??_7exception@std@@6B@ DD FLAT:??_R4exception@std@@6B@	; std::exception::`vftable'
	DD	FLAT:??_Eexception@std@@UAEPAXI@Z
	DD	FLAT:?what@exception@std@@UBEPBDXZ
CONST	ENDS
;	COMDAT xdata$x
xdata$x	SEGMENT
__unwindtable$??$_Construct@V?$_Deque_unchecked_const_iterator@V?$_Deque_val@U?$_Deque_simple_types@USFXHIT_INFO@@@std@@@std@@@std@@V12@@?$deque@USFXHIT_INFO@@V?$allocator@USFXHIT_INFO@@@std@@@std@@AAEXV?$_Deque_unchecked_const_iterator@V?$_Deque_val@U?$_Deque_simple_types@USFXHIT_INFO@@@std@@@std@@@1@V21@@Z DD 0ffffffffH
	DD	FLAT:__unwindfunclet$??$_Construct@V?$_Deque_unchecked_const_iterator@V?$_Deque_val@U?$_Deque_simple_types@USFXHIT_INFO@@@std@@@std@@@std@@V12@@?$deque@USFXHIT_INFO@@V?$allocator@USFXHIT_INFO@@@std@@@std@@AAEXV?$_Deque_unchecked_const_iterator@V?$_Deque_val@U?$_Deque_simple_types@USFXHIT_INFO@@@std@@@std@@@1@V21@@Z$0
	DD	00H
	DD	FLAT:__unwindfunclet$??$_Construct@V?$_Deque_unchecked_const_iterator@V?$_Deque_val@U?$_Deque_simple_types@USFXHIT_INFO@@@std@@@std@@@std@@V12@@?$deque@USFXHIT_INFO@@V?$allocator@USFXHIT_INFO@@@std@@@std@@AAEXV?$_Deque_unchecked_const_iterator@V?$_Deque_val@U?$_Deque_simple_types@USFXHIT_INFO@@@std@@@std@@@1@V21@@Z$1
__ehfuncinfo$??$_Construct@V?$_Deque_unchecked_const_iterator@V?$_Deque_val@U?$_Deque_simple_types@USFXHIT_INFO@@@std@@@std@@@std@@V12@@?$deque@USFXHIT_INFO@@V?$allocator@USFXHIT_INFO@@@std@@@std@@AAEXV?$_Deque_unchecked_const_iterator@V?$_Deque_val@U?$_Deque_simple_types@USFXHIT_INFO@@@std@@@std@@@1@V21@@Z DD 019930522H
	DD	02H
	DD	FLAT:__unwindtable$??$_Construct@V?$_Deque_unchecked_const_iterator@V?$_Deque_val@U?$_Deque_simple_types@USFXHIT_INFO@@@std@@@std@@@std@@V12@@?$deque@USFXHIT_INFO@@V?$allocator@USFXHIT_INFO@@@std@@@std@@AAEXV?$_Deque_unchecked_const_iterator@V?$_Deque_val@U?$_Deque_simple_types@USFXHIT_INFO@@@std@@@std@@@1@V21@@Z
	DD	2 DUP(00H)
	DD	2 DUP(00H)
	DD	00H
	DD	01H
xdata$x	ENDS
;	COMDAT xdata$x
xdata$x	SEGMENT
__unwindtable$??$_Construct@V?$_Deque_unchecked_const_iterator@V?$_Deque_val@U?$_Deque_simple_types@USFXHIT_COUNT@@@std@@@std@@@std@@V12@@?$deque@USFXHIT_COUNT@@V?$allocator@USFXHIT_COUNT@@@std@@@std@@AAEXV?$_Deque_unchecked_const_iterator@V?$_Deque_val@U?$_Deque_simple_types@USFXHIT_COUNT@@@std@@@std@@@1@V21@@Z DD 0ffffffffH
	DD	FLAT:__unwindfunclet$??$_Construct@V?$_Deque_unchecked_const_iterator@V?$_Deque_val@U?$_Deque_simple_types@USFXHIT_COUNT@@@std@@@std@@@std@@V12@@?$deque@USFXHIT_COUNT@@V?$allocator@USFXHIT_COUNT@@@std@@@std@@AAEXV?$_Deque_unchecked_const_iterator@V?$_Deque_val@U?$_Deque_simple_types@USFXHIT_COUNT@@@std@@@std@@@1@V21@@Z$0
	DD	00H
	DD	FLAT:__unwindfunclet$??$_Construct@V?$_Deque_unchecked_const_iterator@V?$_Deque_val@U?$_Deque_simple_types@USFXHIT_COUNT@@@std@@@std@@@std@@V12@@?$deque@USFXHIT_COUNT@@V?$allocator@USFXHIT_COUNT@@@std@@@std@@AAEXV?$_Deque_unchecked_const_iterator@V?$_Deque_val@U?$_Deque_simple_types@USFXHIT_COUNT@@@std@@@std@@@1@V21@@Z$1
__ehfuncinfo$??$_Construct@V?$_Deque_unchecked_const_iterator@V?$_Deque_val@U?$_Deque_simple_types@USFXHIT_COUNT@@@std@@@std@@@std@@V12@@?$deque@USFXHIT_COUNT@@V?$allocator@USFXHIT_COUNT@@@std@@@std@@AAEXV?$_Deque_unchecked_const_iterator@V?$_Deque_val@U?$_Deque_simple_types@USFXHIT_COUNT@@@std@@@std@@@1@V21@@Z DD 019930522H
	DD	02H
	DD	FLAT:__unwindtable$??$_Construct@V?$_Deque_unchecked_const_iterator@V?$_Deque_val@U?$_Deque_simple_types@USFXHIT_COUNT@@@std@@@std@@@std@@V12@@?$deque@USFXHIT_COUNT@@V?$allocator@USFXHIT_COUNT@@@std@@@std@@AAEXV?$_Deque_unchecked_const_iterator@V?$_Deque_val@U?$_Deque_simple_types@USFXHIT_COUNT@@@std@@@std@@@1@V21@@Z
	DD	2 DUP(00H)
	DD	2 DUP(00H)
	DD	00H
	DD	01H
xdata$x	ENDS
;	COMDAT xdata$x
xdata$x	SEGMENT
__unwindtable$??$?0U?$pair@$$CBKV?$queue@USFXHIT_INFO@@V?$deque@USFXHIT_INFO@@V?$allocator@USFXHIT_INFO@@@std@@@std@@@std@@@std@@@?$_Tree_temp_node@V?$allocator@U?$_Tree_node@U?$pair@$$CBKV?$queue@USFXHIT_INFO@@V?$deque@USFXHIT_INFO@@V?$allocator@USFXHIT_INFO@@@std@@@std@@@std@@@std@@PAX@std@@@std@@@std@@QAE@AAV?$allocator@U?$_Tree_node@U?$pair@$$CBKV?$queue@USFXHIT_INFO@@V?$deque@USFXHIT_INFO@@V?$allocator@USFXHIT_INFO@@@std@@@std@@@std@@@std@@PAX@std@@@1@PAU?$_Tree_node@U?$pair@$$CBKV?$queue@USFXHIT_INFO@@V?$deque@USFXHIT_INFO@@V?$allocator@USFXHIT_INFO@@@std@@@std@@@std@@@std@@PAX@1@$$QAU?$pair@$$CBKV?$queue@USFXHIT_INFO@@V?$deque@USFXHIT_INFO@@V?$allocator@USFXHIT_INFO@@@std@@@std@@@std@@@1@@Z DD 0ffffffffH
	DD	FLAT:__unwindfunclet$??$?0U?$pair@$$CBKV?$queue@USFXHIT_INFO@@V?$deque@USFXHIT_INFO@@V?$allocator@USFXHIT_INFO@@@std@@@std@@@std@@@std@@@?$_Tree_temp_node@V?$allocator@U?$_Tree_node@U?$pair@$$CBKV?$queue@USFXHIT_INFO@@V?$deque@USFXHIT_INFO@@V?$allocator@USFXHIT_INFO@@@std@@@std@@@std@@@std@@PAX@std@@@std@@@std@@QAE@AAV?$allocator@U?$_Tree_node@U?$pair@$$CBKV?$queue@USFXHIT_INFO@@V?$deque@USFXHIT_INFO@@V?$allocator@USFXHIT_INFO@@@std@@@std@@@std@@@std@@PAX@std@@@1@PAU?$_Tree_node@U?$pair@$$CBKV?$queue@USFXHIT_INFO@@V?$deque@USFXHIT_INFO@@V?$allocator@USFXHIT_INFO@@@std@@@std@@@std@@@std@@PAX@1@$$QAU?$pair@$$CBKV?$queue@USFXHIT_INFO@@V?$deque@USFXHIT_INFO@@V?$allocator@USFXHIT_INFO@@@std@@@std@@@std@@@1@@Z$1
	DD	0ffffffffH
	DD	FLAT:__unwindfunclet$??$?0U?$pair@$$CBKV?$queue@USFXHIT_INFO@@V?$deque@USFXHIT_INFO@@V?$allocator@USFXHIT_INFO@@@std@@@std@@@std@@@std@@@?$_Tree_temp_node@V?$allocator@U?$_Tree_node@U?$pair@$$CBKV?$queue@USFXHIT_INFO@@V?$deque@USFXHIT_INFO@@V?$allocator@USFXHIT_INFO@@@std@@@std@@@std@@@std@@PAX@std@@@std@@@std@@QAE@AAV?$allocator@U?$_Tree_node@U?$pair@$$CBKV?$queue@USFXHIT_INFO@@V?$deque@USFXHIT_INFO@@V?$allocator@USFXHIT_INFO@@@std@@@std@@@std@@@std@@PAX@std@@@1@PAU?$_Tree_node@U?$pair@$$CBKV?$queue@USFXHIT_INFO@@V?$deque@USFXHIT_INFO@@V?$allocator@USFXHIT_INFO@@@std@@@std@@@std@@@std@@PAX@1@$$QAU?$pair@$$CBKV?$queue@USFXHIT_INFO@@V?$deque@USFXHIT_INFO@@V?$allocator@USFXHIT_INFO@@@std@@@std@@@std@@@1@@Z$0
__ehfuncinfo$??$?0U?$pair@$$CBKV?$queue@USFXHIT_INFO@@V?$deque@USFXHIT_INFO@@V?$allocator@USFXHIT_INFO@@@std@@@std@@@std@@@std@@@?$_Tree_temp_node@V?$allocator@U?$_Tree_node@U?$pair@$$CBKV?$queue@USFXHIT_INFO@@V?$deque@USFXHIT_INFO@@V?$allocator@USFXHIT_INFO@@@std@@@std@@@std@@@std@@PAX@std@@@std@@@std@@QAE@AAV?$allocator@U?$_Tree_node@U?$pair@$$CBKV?$queue@USFXHIT_INFO@@V?$deque@USFXHIT_INFO@@V?$allocator@USFXHIT_INFO@@@std@@@std@@@std@@@std@@PAX@std@@@1@PAU?$_Tree_node@U?$pair@$$CBKV?$queue@USFXHIT_INFO@@V?$deque@USFXHIT_INFO@@V?$allocator@USFXHIT_INFO@@@std@@@std@@@std@@@std@@PAX@1@$$QAU?$pair@$$CBKV?$queue@USFXHIT_INFO@@V?$deque@USFXHIT_INFO@@V?$allocator@USFXHIT_INFO@@@std@@@std@@@std@@@1@@Z DD 019930522H
	DD	02H
	DD	FLAT:__unwindtable$??$?0U?$pair@$$CBKV?$queue@USFXHIT_INFO@@V?$deque@USFXHIT_INFO@@V?$allocator@USFXHIT_INFO@@@std@@@std@@@std@@@std@@@?$_Tree_temp_node@V?$allocator@U?$_Tree_node@U?$pair@$$CBKV?$queue@USFXHIT_INFO@@V?$deque@USFXHIT_INFO@@V?$allocator@USFXHIT_INFO@@@std@@@std@@@std@@@std@@PAX@std@@@std@@@std@@QAE@AAV?$allocator@U?$_Tree_node@U?$pair@$$CBKV?$queue@USFXHIT_INFO@@V?$deque@USFXHIT_INFO@@V?$allocator@USFXHIT_INFO@@@std@@@std@@@std@@@std@@PAX@std@@@1@PAU?$_Tree_node@U?$pair@$$CBKV?$queue@USFXHIT_INFO@@V?$deque@USFXHIT_INFO@@V?$allocator@USFXHIT_INFO@@@std@@@std@@@std@@@std@@PAX@1@$$QAU?$pair@$$CBKV?$queue@USFXHIT_INFO@@V?$deque@USFXHIT_INFO@@V?$allocator@USFXHIT_INFO@@@std@@@std@@@std@@@1@@Z
	DD	2 DUP(00H)
	DD	2 DUP(00H)
	DD	00H
	DD	01H
xdata$x	ENDS
;	COMDAT xdata$x
xdata$x	SEGMENT
__unwindtable$??0?$_Tree_temp_node_alloc@V?$allocator@U?$_Tree_node@U?$pair@$$CBKV?$queue@USFXHIT_INFO@@V?$deque@USFXHIT_INFO@@V?$allocator@USFXHIT_INFO@@@std@@@std@@@std@@@std@@PAX@std@@@std@@@std@@QAE@AAV?$allocator@U?$_Tree_node@U?$pair@$$CBKV?$queue@USFXHIT_INFO@@V?$deque@USFXHIT_INFO@@V?$allocator@USFXHIT_INFO@@@std@@@std@@@std@@@std@@PAX@std@@@1@@Z DD 0ffffffffH
	DD	FLAT:__unwindfunclet$??0?$_Tree_temp_node_alloc@V?$allocator@U?$_Tree_node@U?$pair@$$CBKV?$queue@USFXHIT_INFO@@V?$deque@USFXHIT_INFO@@V?$allocator@USFXHIT_INFO@@@std@@@std@@@std@@@std@@PAX@std@@@std@@@std@@QAE@AAV?$allocator@U?$_Tree_node@U?$pair@$$CBKV?$queue@USFXHIT_INFO@@V?$deque@USFXHIT_INFO@@V?$allocator@USFXHIT_INFO@@@std@@@std@@@std@@@std@@PAX@std@@@1@@Z$0
__ehfuncinfo$??0?$_Tree_temp_node_alloc@V?$allocator@U?$_Tree_node@U?$pair@$$CBKV?$queue@USFXHIT_INFO@@V?$deque@USFXHIT_INFO@@V?$allocator@USFXHIT_INFO@@@std@@@std@@@std@@@std@@PAX@std@@@std@@@std@@QAE@AAV?$allocator@U?$_Tree_node@U?$pair@$$CBKV?$queue@USFXHIT_INFO@@V?$deque@USFXHIT_INFO@@V?$allocator@USFXHIT_INFO@@@std@@@std@@@std@@@std@@PAX@std@@@1@@Z DD 019930522H
	DD	01H
	DD	FLAT:__unwindtable$??0?$_Tree_temp_node_alloc@V?$allocator@U?$_Tree_node@U?$pair@$$CBKV?$queue@USFXHIT_INFO@@V?$deque@USFXHIT_INFO@@V?$allocator@USFXHIT_INFO@@@std@@@std@@@std@@@std@@PAX@std@@@std@@@std@@QAE@AAV?$allocator@U?$_Tree_node@U?$pair@$$CBKV?$queue@USFXHIT_INFO@@V?$deque@USFXHIT_INFO@@V?$allocator@USFXHIT_INFO@@@std@@@std@@@std@@@std@@PAX@std@@@1@@Z
	DD	2 DUP(00H)
	DD	2 DUP(00H)
	DD	00H
	DD	01H
xdata$x	ENDS
;	COMDAT xdata$x
xdata$x	SEGMENT
__unwindtable$??$?0U?$pair@$$CBKV?$queue@USFXHIT_COUNT@@V?$deque@USFXHIT_COUNT@@V?$allocator@USFXHIT_COUNT@@@std@@@std@@@std@@@std@@@?$_Tree_temp_node@V?$allocator@U?$_Tree_node@U?$pair@$$CBKV?$queue@USFXHIT_COUNT@@V?$deque@USFXHIT_COUNT@@V?$allocator@USFXHIT_COUNT@@@std@@@std@@@std@@@std@@PAX@std@@@std@@@std@@QAE@AAV?$allocator@U?$_Tree_node@U?$pair@$$CBKV?$queue@USFXHIT_COUNT@@V?$deque@USFXHIT_COUNT@@V?$allocator@USFXHIT_COUNT@@@std@@@std@@@std@@@std@@PAX@std@@@1@PAU?$_Tree_node@U?$pair@$$CBKV?$queue@USFXHIT_COUNT@@V?$deque@USFXHIT_COUNT@@V?$allocator@USFXHIT_COUNT@@@std@@@std@@@std@@@std@@PAX@1@$$QAU?$pair@$$CBKV?$queue@USFXHIT_COUNT@@V?$deque@USFXHIT_COUNT@@V?$allocator@USFXHIT_COUNT@@@std@@@std@@@std@@@1@@Z DD 0ffffffffH
	DD	FLAT:__unwindfunclet$??$?0U?$pair@$$CBKV?$queue@USFXHIT_COUNT@@V?$deque@USFXHIT_COUNT@@V?$allocator@USFXHIT_COUNT@@@std@@@std@@@std@@@std@@@?$_Tree_temp_node@V?$allocator@U?$_Tree_node@U?$pair@$$CBKV?$queue@USFXHIT_COUNT@@V?$deque@USFXHIT_COUNT@@V?$allocator@USFXHIT_COUNT@@@std@@@std@@@std@@@std@@PAX@std@@@std@@@std@@QAE@AAV?$allocator@U?$_Tree_node@U?$pair@$$CBKV?$queue@USFXHIT_COUNT@@V?$deque@USFXHIT_COUNT@@V?$allocator@USFXHIT_COUNT@@@std@@@std@@@std@@@std@@PAX@std@@@1@PAU?$_Tree_node@U?$pair@$$CBKV?$queue@USFXHIT_COUNT@@V?$deque@USFXHIT_COUNT@@V?$allocator@USFXHIT_COUNT@@@std@@@std@@@std@@@std@@PAX@1@$$QAU?$pair@$$CBKV?$queue@USFXHIT_COUNT@@V?$deque@USFXHIT_COUNT@@V?$allocator@USFXHIT_COUNT@@@std@@@std@@@std@@@1@@Z$1
	DD	0ffffffffH
	DD	FLAT:__unwindfunclet$??$?0U?$pair@$$CBKV?$queue@USFXHIT_COUNT@@V?$deque@USFXHIT_COUNT@@V?$allocator@USFXHIT_COUNT@@@std@@@std@@@std@@@std@@@?$_Tree_temp_node@V?$allocator@U?$_Tree_node@U?$pair@$$CBKV?$queue@USFXHIT_COUNT@@V?$deque@USFXHIT_COUNT@@V?$allocator@USFXHIT_COUNT@@@std@@@std@@@std@@@std@@PAX@std@@@std@@@std@@QAE@AAV?$allocator@U?$_Tree_node@U?$pair@$$CBKV?$queue@USFXHIT_COUNT@@V?$deque@USFXHIT_COUNT@@V?$allocator@USFXHIT_COUNT@@@std@@@std@@@std@@@std@@PAX@std@@@1@PAU?$_Tree_node@U?$pair@$$CBKV?$queue@USFXHIT_COUNT@@V?$deque@USFXHIT_COUNT@@V?$allocator@USFXHIT_COUNT@@@std@@@std@@@std@@@std@@PAX@1@$$QAU?$pair@$$CBKV?$queue@USFXHIT_COUNT@@V?$deque@USFXHIT_COUNT@@V?$allocator@USFXHIT_COUNT@@@std@@@std@@@std@@@1@@Z$0
__ehfuncinfo$??$?0U?$pair@$$CBKV?$queue@USFXHIT_COUNT@@V?$deque@USFXHIT_COUNT@@V?$allocator@USFXHIT_COUNT@@@std@@@std@@@std@@@std@@@?$_Tree_temp_node@V?$allocator@U?$_Tree_node@U?$pair@$$CBKV?$queue@USFXHIT_COUNT@@V?$deque@USFXHIT_COUNT@@V?$allocator@USFXHIT_COUNT@@@std@@@std@@@std@@@std@@PAX@std@@@std@@@std@@QAE@AAV?$allocator@U?$_Tree_node@U?$pair@$$CBKV?$queue@USFXHIT_COUNT@@V?$deque@USFXHIT_COUNT@@V?$allocator@USFXHIT_COUNT@@@std@@@std@@@std@@@std@@PAX@std@@@1@PAU?$_Tree_node@U?$pair@$$CBKV?$queue@USFXHIT_COUNT@@V?$deque@USFXHIT_COUNT@@V?$allocator@USFXHIT_COUNT@@@std@@@std@@@std@@@std@@PAX@1@$$QAU?$pair@$$CBKV?$queue@USFXHIT_COUNT@@V?$deque@USFXHIT_COUNT@@V?$allocator@USFXHIT_COUNT@@@std@@@std@@@std@@@1@@Z DD 019930522H
	DD	02H
	DD	FLAT:__unwindtable$??$?0U?$pair@$$CBKV?$queue@USFXHIT_COUNT@@V?$deque@USFXHIT_COUNT@@V?$allocator@USFXHIT_COUNT@@@std@@@std@@@std@@@std@@@?$_Tree_temp_node@V?$allocator@U?$_Tree_node@U?$pair@$$CBKV?$queue@USFXHIT_COUNT@@V?$deque@USFXHIT_COUNT@@V?$allocator@USFXHIT_COUNT@@@std@@@std@@@std@@@std@@PAX@std@@@std@@@std@@QAE@AAV?$allocator@U?$_Tree_node@U?$pair@$$CBKV?$queue@USFXHIT_COUNT@@V?$deque@USFXHIT_COUNT@@V?$allocator@USFXHIT_COUNT@@@std@@@std@@@std@@@std@@PAX@std@@@1@PAU?$_Tree_node@U?$pair@$$CBKV?$queue@USFXHIT_COUNT@@V?$deque@USFXHIT_COUNT@@V?$allocator@USFXHIT_COUNT@@@std@@@std@@@std@@@std@@PAX@1@$$QAU?$pair@$$CBKV?$queue@USFXHIT_COUNT@@V?$deque@USFXHIT_COUNT@@V?$allocator@USFXHIT_COUNT@@@std@@@std@@@std@@@1@@Z
	DD	2 DUP(00H)
	DD	2 DUP(00H)
	DD	00H
	DD	01H
xdata$x	ENDS
;	COMDAT xdata$x
xdata$x	SEGMENT
__unwindtable$??0?$_Tree_temp_node_alloc@V?$allocator@U?$_Tree_node@U?$pair@$$CBKV?$queue@USFXHIT_COUNT@@V?$deque@USFXHIT_COUNT@@V?$allocator@USFXHIT_COUNT@@@std@@@std@@@std@@@std@@PAX@std@@@std@@@std@@QAE@AAV?$allocator@U?$_Tree_node@U?$pair@$$CBKV?$queue@USFXHIT_COUNT@@V?$deque@USFXHIT_COUNT@@V?$allocator@USFXHIT_COUNT@@@std@@@std@@@std@@@std@@PAX@std@@@1@@Z DD 0ffffffffH
	DD	FLAT:__unwindfunclet$??0?$_Tree_temp_node_alloc@V?$allocator@U?$_Tree_node@U?$pair@$$CBKV?$queue@USFXHIT_COUNT@@V?$deque@USFXHIT_COUNT@@V?$allocator@USFXHIT_COUNT@@@std@@@std@@@std@@@std@@PAX@std@@@std@@@std@@QAE@AAV?$allocator@U?$_Tree_node@U?$pair@$$CBKV?$queue@USFXHIT_COUNT@@V?$deque@USFXHIT_COUNT@@V?$allocator@USFXHIT_COUNT@@@std@@@std@@@std@@@std@@PAX@std@@@1@@Z$0
__ehfuncinfo$??0?$_Tree_temp_node_alloc@V?$allocator@U?$_Tree_node@U?$pair@$$CBKV?$queue@USFXHIT_COUNT@@V?$deque@USFXHIT_COUNT@@V?$allocator@USFXHIT_COUNT@@@std@@@std@@@std@@@std@@PAX@std@@@std@@@std@@QAE@AAV?$allocator@U?$_Tree_node@U?$pair@$$CBKV?$queue@USFXHIT_COUNT@@V?$deque@USFXHIT_COUNT@@V?$allocator@USFXHIT_COUNT@@@std@@@std@@@std@@@std@@PAX@std@@@1@@Z DD 019930522H
	DD	01H
	DD	FLAT:__unwindtable$??0?$_Tree_temp_node_alloc@V?$allocator@U?$_Tree_node@U?$pair@$$CBKV?$queue@USFXHIT_COUNT@@V?$deque@USFXHIT_COUNT@@V?$allocator@USFXHIT_COUNT@@@std@@@std@@@std@@@std@@PAX@std@@@std@@@std@@QAE@AAV?$allocator@U?$_Tree_node@U?$pair@$$CBKV?$queue@USFXHIT_COUNT@@V?$deque@USFXHIT_COUNT@@V?$allocator@USFXHIT_COUNT@@@std@@@std@@@std@@@std@@PAX@std@@@1@@Z
	DD	2 DUP(00H)
	DD	2 DUP(00H)
	DD	00H
	DD	01H
xdata$x	ENDS
;	COMDAT xdata$x
xdata$x	SEGMENT
__unwindtable$??$_Emplace@U?$pair@$$CBKV?$queue@USFXHIT_INFO@@V?$deque@USFXHIT_INFO@@V?$allocator@USFXHIT_INFO@@@std@@@std@@@std@@@std@@@?$_Tree@V?$_Tmap_traits@KV?$queue@USFXHIT_INFO@@V?$deque@USFXHIT_INFO@@V?$allocator@USFXHIT_INFO@@@std@@@std@@@std@@U?$less@K@2@V?$allocator@U?$pair@$$CBKV?$queue@USFXHIT_INFO@@V?$deque@USFXHIT_INFO@@V?$allocator@USFXHIT_INFO@@@std@@@std@@@std@@@std@@@2@$0A@@std@@@std@@IAE?AU?$pair@PAU?$_Tree_node@U?$pair@$$CBKV?$queue@USFXHIT_INFO@@V?$deque@USFXHIT_INFO@@V?$allocator@USFXHIT_INFO@@@std@@@std@@@std@@@std@@PAX@std@@_N@1@$$QAU?$pair@$$CBKV?$queue@USFXHIT_INFO@@V?$deque@USFXHIT_INFO@@V?$allocator@USFXHIT_INFO@@@std@@@std@@@std@@@1@@Z DD 0ffffffffH
	DD	FLAT:__unwindfunclet$??$_Emplace@U?$pair@$$CBKV?$queue@USFXHIT_INFO@@V?$deque@USFXHIT_INFO@@V?$allocator@USFXHIT_INFO@@@std@@@std@@@std@@@std@@@?$_Tree@V?$_Tmap_traits@KV?$queue@USFXHIT_INFO@@V?$deque@USFXHIT_INFO@@V?$allocator@USFXHIT_INFO@@@std@@@std@@@std@@U?$less@K@2@V?$allocator@U?$pair@$$CBKV?$queue@USFXHIT_INFO@@V?$deque@USFXHIT_INFO@@V?$allocator@USFXHIT_INFO@@@std@@@std@@@std@@@std@@@2@$0A@@std@@@std@@IAE?AU?$pair@PAU?$_Tree_node@U?$pair@$$CBKV?$queue@USFXHIT_INFO@@V?$deque@USFXHIT_INFO@@V?$allocator@USFXHIT_INFO@@@std@@@std@@@std@@@std@@PAX@std@@_N@1@$$QAU?$pair@$$CBKV?$queue@USFXHIT_INFO@@V?$deque@USFXHIT_INFO@@V?$allocator@USFXHIT_INFO@@@std@@@std@@@std@@@1@@Z$2
	DD	0ffffffffH
	DD	FLAT:__unwindfunclet$??$_Emplace@U?$pair@$$CBKV?$queue@USFXHIT_INFO@@V?$deque@USFXHIT_INFO@@V?$allocator@USFXHIT_INFO@@@std@@@std@@@std@@@std@@@?$_Tree@V?$_Tmap_traits@KV?$queue@USFXHIT_INFO@@V?$deque@USFXHIT_INFO@@V?$allocator@USFXHIT_INFO@@@std@@@std@@@std@@U?$less@K@2@V?$allocator@U?$pair@$$CBKV?$queue@USFXHIT_INFO@@V?$deque@USFXHIT_INFO@@V?$allocator@USFXHIT_INFO@@@std@@@std@@@std@@@std@@@2@$0A@@std@@@std@@IAE?AU?$pair@PAU?$_Tree_node@U?$pair@$$CBKV?$queue@USFXHIT_INFO@@V?$deque@USFXHIT_INFO@@V?$allocator@USFXHIT_INFO@@@std@@@std@@@std@@@std@@PAX@std@@_N@1@$$QAU?$pair@$$CBKV?$queue@USFXHIT_INFO@@V?$deque@USFXHIT_INFO@@V?$allocator@USFXHIT_INFO@@@std@@@std@@@std@@@1@@Z$1
__ehfuncinfo$??$_Emplace@U?$pair@$$CBKV?$queue@USFXHIT_INFO@@V?$deque@USFXHIT_INFO@@V?$allocator@USFXHIT_INFO@@@std@@@std@@@std@@@std@@@?$_Tree@V?$_Tmap_traits@KV?$queue@USFXHIT_INFO@@V?$deque@USFXHIT_INFO@@V?$allocator@USFXHIT_INFO@@@std@@@std@@@std@@U?$less@K@2@V?$allocator@U?$pair@$$CBKV?$queue@USFXHIT_INFO@@V?$deque@USFXHIT_INFO@@V?$allocator@USFXHIT_INFO@@@std@@@std@@@std@@@std@@@2@$0A@@std@@@std@@IAE?AU?$pair@PAU?$_Tree_node@U?$pair@$$CBKV?$queue@USFXHIT_INFO@@V?$deque@USFXHIT_INFO@@V?$allocator@USFXHIT_INFO@@@std@@@std@@@std@@@std@@PAX@std@@_N@1@$$QAU?$pair@$$CBKV?$queue@USFXHIT_INFO@@V?$deque@USFXHIT_INFO@@V?$allocator@USFXHIT_INFO@@@std@@@std@@@std@@@1@@Z DD 019930522H
	DD	02H
	DD	FLAT:__unwindtable$??$_Emplace@U?$pair@$$CBKV?$queue@USFXHIT_INFO@@V?$deque@USFXHIT_INFO@@V?$allocator@USFXHIT_INFO@@@std@@@std@@@std@@@std@@@?$_Tree@V?$_Tmap_traits@KV?$queue@USFXHIT_INFO@@V?$deque@USFXHIT_INFO@@V?$allocator@USFXHIT_INFO@@@std@@@std@@@std@@U?$less@K@2@V?$allocator@U?$pair@$$CBKV?$queue@USFXHIT_INFO@@V?$deque@USFXHIT_INFO@@V?$allocator@USFXHIT_INFO@@@std@@@std@@@std@@@std@@@2@$0A@@std@@@std@@IAE?AU?$pair@PAU?$_Tree_node@U?$pair@$$CBKV?$queue@USFXHIT_INFO@@V?$deque@USFXHIT_INFO@@V?$allocator@USFXHIT_INFO@@@std@@@std@@@std@@@std@@PAX@std@@_N@1@$$QAU?$pair@$$CBKV?$queue@USFXHIT_INFO@@V?$deque@USFXHIT_INFO@@V?$allocator@USFXHIT_INFO@@@std@@@std@@@std@@@1@@Z
	DD	2 DUP(00H)
	DD	2 DUP(00H)
	DD	00H
	DD	01H
xdata$x	ENDS
;	COMDAT xdata$x
xdata$x	SEGMENT
__unwindtable$??$_Emplace@U?$pair@$$CBKV?$queue@USFXHIT_COUNT@@V?$deque@USFXHIT_COUNT@@V?$allocator@USFXHIT_COUNT@@@std@@@std@@@std@@@std@@@?$_Tree@V?$_Tmap_traits@KV?$queue@USFXHIT_COUNT@@V?$deque@USFXHIT_COUNT@@V?$allocator@USFXHIT_COUNT@@@std@@@std@@@std@@U?$less@K@2@V?$allocator@U?$pair@$$CBKV?$queue@USFXHIT_COUNT@@V?$deque@USFXHIT_COUNT@@V?$allocator@USFXHIT_COUNT@@@std@@@std@@@std@@@std@@@2@$0A@@std@@@std@@IAE?AU?$pair@PAU?$_Tree_node@U?$pair@$$CBKV?$queue@USFXHIT_COUNT@@V?$deque@USFXHIT_COUNT@@V?$allocator@USFXHIT_COUNT@@@std@@@std@@@std@@@std@@PAX@std@@_N@1@$$QAU?$pair@$$CBKV?$queue@USFXHIT_COUNT@@V?$deque@USFXHIT_COUNT@@V?$allocator@USFXHIT_COUNT@@@std@@@std@@@std@@@1@@Z DD 0ffffffffH
	DD	FLAT:__unwindfunclet$??$_Emplace@U?$pair@$$CBKV?$queue@USFXHIT_COUNT@@V?$deque@USFXHIT_COUNT@@V?$allocator@USFXHIT_COUNT@@@std@@@std@@@std@@@std@@@?$_Tree@V?$_Tmap_traits@KV?$queue@USFXHIT_COUNT@@V?$deque@USFXHIT_COUNT@@V?$allocator@USFXHIT_COUNT@@@std@@@std@@@std@@U?$less@K@2@V?$allocator@U?$pair@$$CBKV?$queue@USFXHIT_COUNT@@V?$deque@USFXHIT_COUNT@@V?$allocator@USFXHIT_COUNT@@@std@@@std@@@std@@@std@@@2@$0A@@std@@@std@@IAE?AU?$pair@PAU?$_Tree_node@U?$pair@$$CBKV?$queue@USFXHIT_COUNT@@V?$deque@USFXHIT_COUNT@@V?$allocator@USFXHIT_COUNT@@@std@@@std@@@std@@@std@@PAX@std@@_N@1@$$QAU?$pair@$$CBKV?$queue@USFXHIT_COUNT@@V?$deque@USFXHIT_COUNT@@V?$allocator@USFXHIT_COUNT@@@std@@@std@@@std@@@1@@Z$2
	DD	0ffffffffH
	DD	FLAT:__unwindfunclet$??$_Emplace@U?$pair@$$CBKV?$queue@USFXHIT_COUNT@@V?$deque@USFXHIT_COUNT@@V?$allocator@USFXHIT_COUNT@@@std@@@std@@@std@@@std@@@?$_Tree@V?$_Tmap_traits@KV?$queue@USFXHIT_COUNT@@V?$deque@USFXHIT_COUNT@@V?$allocator@USFXHIT_COUNT@@@std@@@std@@@std@@U?$less@K@2@V?$allocator@U?$pair@$$CBKV?$queue@USFXHIT_COUNT@@V?$deque@USFXHIT_COUNT@@V?$allocator@USFXHIT_COUNT@@@std@@@std@@@std@@@std@@@2@$0A@@std@@@std@@IAE?AU?$pair@PAU?$_Tree_node@U?$pair@$$CBKV?$queue@USFXHIT_COUNT@@V?$deque@USFXHIT_COUNT@@V?$allocator@USFXHIT_COUNT@@@std@@@std@@@std@@@std@@PAX@std@@_N@1@$$QAU?$pair@$$CBKV?$queue@USFXHIT_COUNT@@V?$deque@USFXHIT_COUNT@@V?$allocator@USFXHIT_COUNT@@@std@@@std@@@std@@@1@@Z$1
__ehfuncinfo$??$_Emplace@U?$pair@$$CBKV?$queue@USFXHIT_COUNT@@V?$deque@USFXHIT_COUNT@@V?$allocator@USFXHIT_COUNT@@@std@@@std@@@std@@@std@@@?$_Tree@V?$_Tmap_traits@KV?$queue@USFXHIT_COUNT@@V?$deque@USFXHIT_COUNT@@V?$allocator@USFXHIT_COUNT@@@std@@@std@@@std@@U?$less@K@2@V?$allocator@U?$pair@$$CBKV?$queue@USFXHIT_COUNT@@V?$deque@USFXHIT_COUNT@@V?$allocator@USFXHIT_COUNT@@@std@@@std@@@std@@@std@@@2@$0A@@std@@@std@@IAE?AU?$pair@PAU?$_Tree_node@U?$pair@$$CBKV?$queue@USFXHIT_COUNT@@V?$deque@USFXHIT_COUNT@@V?$allocator@USFXHIT_COUNT@@@std@@@std@@@std@@@std@@PAX@std@@_N@1@$$QAU?$pair@$$CBKV?$queue@USFXHIT_COUNT@@V?$deque@USFXHIT_COUNT@@V?$allocator@USFXHIT_COUNT@@@std@@@std@@@std@@@1@@Z DD 019930522H
	DD	02H
	DD	FLAT:__unwindtable$??$_Emplace@U?$pair@$$CBKV?$queue@USFXHIT_COUNT@@V?$deque@USFXHIT_COUNT@@V?$allocator@USFXHIT_COUNT@@@std@@@std@@@std@@@std@@@?$_Tree@V?$_Tmap_traits@KV?$queue@USFXHIT_COUNT@@V?$deque@USFXHIT_COUNT@@V?$allocator@USFXHIT_COUNT@@@std@@@std@@@std@@U?$less@K@2@V?$allocator@U?$pair@$$CBKV?$queue@USFXHIT_COUNT@@V?$deque@USFXHIT_COUNT@@V?$allocator@USFXHIT_COUNT@@@std@@@std@@@std@@@std@@@2@$0A@@std@@@std@@IAE?AU?$pair@PAU?$_Tree_node@U?$pair@$$CBKV?$queue@USFXHIT_COUNT@@V?$deque@USFXHIT_COUNT@@V?$allocator@USFXHIT_COUNT@@@std@@@std@@@std@@@std@@PAX@std@@_N@1@$$QAU?$pair@$$CBKV?$queue@USFXHIT_COUNT@@V?$deque@USFXHIT_COUNT@@V?$allocator@USFXHIT_COUNT@@@std@@@std@@@std@@@1@@Z
	DD	2 DUP(00H)
	DD	2 DUP(00H)
	DD	00H
	DD	01H
xdata$x	ENDS
;	COMDAT xdata$x
xdata$x	SEGMENT
__unwindtable$??$insert@$0A@$0A@@?$_Tree@V?$_Tmap_traits@KV?$queue@USFXHIT_INFO@@V?$deque@USFXHIT_INFO@@V?$allocator@USFXHIT_INFO@@@std@@@std@@@std@@U?$less@K@2@V?$allocator@U?$pair@$$CBKV?$queue@USFXHIT_INFO@@V?$deque@USFXHIT_INFO@@V?$allocator@USFXHIT_INFO@@@std@@@std@@@std@@@std@@@2@$0A@@std@@@std@@QAE?AU?$pair@V?$_Tree_iterator@V?$_Tree_val@U?$_Tree_simple_types@U?$pair@$$CBKV?$queue@USFXHIT_INFO@@V?$deque@USFXHIT_INFO@@V?$allocator@USFXHIT_INFO@@@std@@@std@@@std@@@std@@@std@@@std@@@std@@_N@1@$$QAU?$pair@$$CBKV?$queue@USFXHIT_INFO@@V?$deque@USFXHIT_INFO@@V?$allocator@USFXHIT_INFO@@@std@@@std@@@std@@@1@@Z DD 0ffffffffH
	DD	FLAT:__unwindfunclet$??$insert@$0A@$0A@@?$_Tree@V?$_Tmap_traits@KV?$queue@USFXHIT_INFO@@V?$deque@USFXHIT_INFO@@V?$allocator@USFXHIT_INFO@@@std@@@std@@@std@@U?$less@K@2@V?$allocator@U?$pair@$$CBKV?$queue@USFXHIT_INFO@@V?$deque@USFXHIT_INFO@@V?$allocator@USFXHIT_INFO@@@std@@@std@@@std@@@std@@@2@$0A@@std@@@std@@QAE?AU?$pair@V?$_Tree_iterator@V?$_Tree_val@U?$_Tree_simple_types@U?$pair@$$CBKV?$queue@USFXHIT_INFO@@V?$deque@USFXHIT_INFO@@V?$allocator@USFXHIT_INFO@@@std@@@std@@@std@@@std@@@std@@@std@@@std@@_N@1@$$QAU?$pair@$$CBKV?$queue@USFXHIT_INFO@@V?$deque@USFXHIT_INFO@@V?$allocator@USFXHIT_INFO@@@std@@@std@@@std@@@1@@Z$2
	DD	0ffffffffH
	DD	FLAT:__unwindfunclet$??$insert@$0A@$0A@@?$_Tree@V?$_Tmap_traits@KV?$queue@USFXHIT_INFO@@V?$deque@USFXHIT_INFO@@V?$allocator@USFXHIT_INFO@@@std@@@std@@@std@@U?$less@K@2@V?$allocator@U?$pair@$$CBKV?$queue@USFXHIT_INFO@@V?$deque@USFXHIT_INFO@@V?$allocator@USFXHIT_INFO@@@std@@@std@@@std@@@std@@@2@$0A@@std@@@std@@QAE?AU?$pair@V?$_Tree_iterator@V?$_Tree_val@U?$_Tree_simple_types@U?$pair@$$CBKV?$queue@USFXHIT_INFO@@V?$deque@USFXHIT_INFO@@V?$allocator@USFXHIT_INFO@@@std@@@std@@@std@@@std@@@std@@@std@@@std@@_N@1@$$QAU?$pair@$$CBKV?$queue@USFXHIT_INFO@@V?$deque@USFXHIT_INFO@@V?$allocator@USFXHIT_INFO@@@std@@@std@@@std@@@1@@Z$1
__ehfuncinfo$??$insert@$0A@$0A@@?$_Tree@V?$_Tmap_traits@KV?$queue@USFXHIT_INFO@@V?$deque@USFXHIT_INFO@@V?$allocator@USFXHIT_INFO@@@std@@@std@@@std@@U?$less@K@2@V?$allocator@U?$pair@$$CBKV?$queue@USFXHIT_INFO@@V?$deque@USFXHIT_INFO@@V?$allocator@USFXHIT_INFO@@@std@@@std@@@std@@@std@@@2@$0A@@std@@@std@@QAE?AU?$pair@V?$_Tree_iterator@V?$_Tree_val@U?$_Tree_simple_types@U?$pair@$$CBKV?$queue@USFXHIT_INFO@@V?$deque@USFXHIT_INFO@@V?$allocator@USFXHIT_INFO@@@std@@@std@@@std@@@std@@@std@@@std@@@std@@_N@1@$$QAU?$pair@$$CBKV?$queue@USFXHIT_INFO@@V?$deque@USFXHIT_INFO@@V?$allocator@USFXHIT_INFO@@@std@@@std@@@std@@@1@@Z DD 019930522H
	DD	02H
	DD	FLAT:__unwindtable$??$insert@$0A@$0A@@?$_Tree@V?$_Tmap_traits@KV?$queue@USFXHIT_INFO@@V?$deque@USFXHIT_INFO@@V?$allocator@USFXHIT_INFO@@@std@@@std@@@std@@U?$less@K@2@V?$allocator@U?$pair@$$CBKV?$queue@USFXHIT_INFO@@V?$deque@USFXHIT_INFO@@V?$allocator@USFXHIT_INFO@@@std@@@std@@@std@@@std@@@2@$0A@@std@@@std@@QAE?AU?$pair@V?$_Tree_iterator@V?$_Tree_val@U?$_Tree_simple_types@U?$pair@$$CBKV?$queue@USFXHIT_INFO@@V?$deque@USFXHIT_INFO@@V?$allocator@USFXHIT_INFO@@@std@@@std@@@std@@@std@@@std@@@std@@@std@@_N@1@$$QAU?$pair@$$CBKV?$queue@USFXHIT_INFO@@V?$deque@USFXHIT_INFO@@V?$allocator@USFXHIT_INFO@@@std@@@std@@@std@@@1@@Z
	DD	2 DUP(00H)
	DD	2 DUP(00H)
	DD	00H
	DD	01H
xdata$x	ENDS
;	COMDAT xdata$x
xdata$x	SEGMENT
__unwindtable$??$?0AAKAAV?$queue@USFXHIT_INFO@@V?$deque@USFXHIT_INFO@@V?$allocator@USFXHIT_INFO@@@std@@@std@@@std@@$0A@@?$pair@$$CBKV?$queue@USFXHIT_INFO@@V?$deque@USFXHIT_INFO@@V?$allocator@USFXHIT_INFO@@@std@@@std@@@std@@@std@@QAE@AAKAAV?$queue@USFXHIT_INFO@@V?$deque@USFXHIT_INFO@@V?$allocator@USFXHIT_INFO@@@std@@@std@@@1@@Z DD 0ffffffffH
	DD	FLAT:__unwindfunclet$??$?0AAKAAV?$queue@USFXHIT_INFO@@V?$deque@USFXHIT_INFO@@V?$allocator@USFXHIT_INFO@@@std@@@std@@@std@@$0A@@?$pair@$$CBKV?$queue@USFXHIT_INFO@@V?$deque@USFXHIT_INFO@@V?$allocator@USFXHIT_INFO@@@std@@@std@@@std@@@std@@QAE@AAKAAV?$queue@USFXHIT_INFO@@V?$deque@USFXHIT_INFO@@V?$allocator@USFXHIT_INFO@@@std@@@std@@@1@@Z$2
	DD	00H
	DD	FLAT:__unwindfunclet$??$?0AAKAAV?$queue@USFXHIT_INFO@@V?$deque@USFXHIT_INFO@@V?$allocator@USFXHIT_INFO@@@std@@@std@@@std@@$0A@@?$pair@$$CBKV?$queue@USFXHIT_INFO@@V?$deque@USFXHIT_INFO@@V?$allocator@USFXHIT_INFO@@@std@@@std@@@std@@@std@@QAE@AAKAAV?$queue@USFXHIT_INFO@@V?$deque@USFXHIT_INFO@@V?$allocator@USFXHIT_INFO@@@std@@@std@@@1@@Z$3
__ehfuncinfo$??$?0AAKAAV?$queue@USFXHIT_INFO@@V?$deque@USFXHIT_INFO@@V?$allocator@USFXHIT_INFO@@@std@@@std@@@std@@$0A@@?$pair@$$CBKV?$queue@USFXHIT_INFO@@V?$deque@USFXHIT_INFO@@V?$allocator@USFXHIT_INFO@@@std@@@std@@@std@@@std@@QAE@AAKAAV?$queue@USFXHIT_INFO@@V?$deque@USFXHIT_INFO@@V?$allocator@USFXHIT_INFO@@@std@@@std@@@1@@Z DD 019930522H
	DD	02H
	DD	FLAT:__unwindtable$??$?0AAKAAV?$queue@USFXHIT_INFO@@V?$deque@USFXHIT_INFO@@V?$allocator@USFXHIT_INFO@@@std@@@std@@@std@@$0A@@?$pair@$$CBKV?$queue@USFXHIT_INFO@@V?$deque@USFXHIT_INFO@@V?$allocator@USFXHIT_INFO@@@std@@@std@@@std@@@std@@QAE@AAKAAV?$queue@USFXHIT_INFO@@V?$deque@USFXHIT_INFO@@V?$allocator@USFXHIT_INFO@@@std@@@std@@@1@@Z
	DD	2 DUP(00H)
	DD	2 DUP(00H)
	DD	00H
	DD	01H
xdata$x	ENDS
;	COMDAT xdata$x
xdata$x	SEGMENT
__unwindtable$??0?$queue@USFXHIT_INFO@@V?$deque@USFXHIT_INFO@@V?$allocator@USFXHIT_INFO@@@std@@@std@@@std@@QAE@ABV01@@Z DD 0ffffffffH
	DD	FLAT:__unwindfunclet$??0?$queue@USFXHIT_INFO@@V?$deque@USFXHIT_INFO@@V?$allocator@USFXHIT_INFO@@@std@@@std@@@std@@QAE@ABV01@@Z$1
	DD	00H
	DD	FLAT:__unwindfunclet$??0?$queue@USFXHIT_INFO@@V?$deque@USFXHIT_INFO@@V?$allocator@USFXHIT_INFO@@@std@@@std@@@std@@QAE@ABV01@@Z$2
__ehfuncinfo$??0?$queue@USFXHIT_INFO@@V?$deque@USFXHIT_INFO@@V?$allocator@USFXHIT_INFO@@@std@@@std@@@std@@QAE@ABV01@@Z DD 019930522H
	DD	02H
	DD	FLAT:__unwindtable$??0?$queue@USFXHIT_INFO@@V?$deque@USFXHIT_INFO@@V?$allocator@USFXHIT_INFO@@@std@@@std@@@std@@QAE@ABV01@@Z
	DD	2 DUP(00H)
	DD	2 DUP(00H)
	DD	00H
	DD	01H
xdata$x	ENDS
;	COMDAT xdata$x
xdata$x	SEGMENT
__unwindtable$??0?$deque@USFXHIT_INFO@@V?$allocator@USFXHIT_INFO@@@std@@@std@@QAE@ABV01@@Z DD 0ffffffffH
	DD	FLAT:__unwindfunclet$??0?$deque@USFXHIT_INFO@@V?$allocator@USFXHIT_INFO@@@std@@@std@@QAE@ABV01@@Z$0
	DD	00H
	DD	FLAT:__unwindfunclet$??0?$deque@USFXHIT_INFO@@V?$allocator@USFXHIT_INFO@@@std@@@std@@QAE@ABV01@@Z$1
__ehfuncinfo$??0?$deque@USFXHIT_INFO@@V?$allocator@USFXHIT_INFO@@@std@@@std@@QAE@ABV01@@Z DD 019930522H
	DD	02H
	DD	FLAT:__unwindtable$??0?$deque@USFXHIT_INFO@@V?$allocator@USFXHIT_INFO@@@std@@@std@@QAE@ABV01@@Z
	DD	2 DUP(00H)
	DD	2 DUP(00H)
	DD	00H
	DD	01H
xdata$x	ENDS
;	COMDAT xdata$x
xdata$x	SEGMENT
__unwindtable$??$insert@$0A@$0A@@?$_Tree@V?$_Tmap_traits@KV?$queue@USFXHIT_COUNT@@V?$deque@USFXHIT_COUNT@@V?$allocator@USFXHIT_COUNT@@@std@@@std@@@std@@U?$less@K@2@V?$allocator@U?$pair@$$CBKV?$queue@USFXHIT_COUNT@@V?$deque@USFXHIT_COUNT@@V?$allocator@USFXHIT_COUNT@@@std@@@std@@@std@@@std@@@2@$0A@@std@@@std@@QAE?AU?$pair@V?$_Tree_iterator@V?$_Tree_val@U?$_Tree_simple_types@U?$pair@$$CBKV?$queue@USFXHIT_COUNT@@V?$deque@USFXHIT_COUNT@@V?$allocator@USFXHIT_COUNT@@@std@@@std@@@std@@@std@@@std@@@std@@@std@@_N@1@$$QAU?$pair@$$CBKV?$queue@USFXHIT_COUNT@@V?$deque@USFXHIT_COUNT@@V?$allocator@USFXHIT_COUNT@@@std@@@std@@@std@@@1@@Z DD 0ffffffffH
	DD	FLAT:__unwindfunclet$??$insert@$0A@$0A@@?$_Tree@V?$_Tmap_traits@KV?$queue@USFXHIT_COUNT@@V?$deque@USFXHIT_COUNT@@V?$allocator@USFXHIT_COUNT@@@std@@@std@@@std@@U?$less@K@2@V?$allocator@U?$pair@$$CBKV?$queue@USFXHIT_COUNT@@V?$deque@USFXHIT_COUNT@@V?$allocator@USFXHIT_COUNT@@@std@@@std@@@std@@@std@@@2@$0A@@std@@@std@@QAE?AU?$pair@V?$_Tree_iterator@V?$_Tree_val@U?$_Tree_simple_types@U?$pair@$$CBKV?$queue@USFXHIT_COUNT@@V?$deque@USFXHIT_COUNT@@V?$allocator@USFXHIT_COUNT@@@std@@@std@@@std@@@std@@@std@@@std@@@std@@_N@1@$$QAU?$pair@$$CBKV?$queue@USFXHIT_COUNT@@V?$deque@USFXHIT_COUNT@@V?$allocator@USFXHIT_COUNT@@@std@@@std@@@std@@@1@@Z$2
	DD	0ffffffffH
	DD	FLAT:__unwindfunclet$??$insert@$0A@$0A@@?$_Tree@V?$_Tmap_traits@KV?$queue@USFXHIT_COUNT@@V?$deque@USFXHIT_COUNT@@V?$allocator@USFXHIT_COUNT@@@std@@@std@@@std@@U?$less@K@2@V?$allocator@U?$pair@$$CBKV?$queue@USFXHIT_COUNT@@V?$deque@USFXHIT_COUNT@@V?$allocator@USFXHIT_COUNT@@@std@@@std@@@std@@@std@@@2@$0A@@std@@@std@@QAE?AU?$pair@V?$_Tree_iterator@V?$_Tree_val@U?$_Tree_simple_types@U?$pair@$$CBKV?$queue@USFXHIT_COUNT@@V?$deque@USFXHIT_COUNT@@V?$allocator@USFXHIT_COUNT@@@std@@@std@@@std@@@std@@@std@@@std@@@std@@_N@1@$$QAU?$pair@$$CBKV?$queue@USFXHIT_COUNT@@V?$deque@USFXHIT_COUNT@@V?$allocator@USFXHIT_COUNT@@@std@@@std@@@std@@@1@@Z$1
__ehfuncinfo$??$insert@$0A@$0A@@?$_Tree@V?$_Tmap_traits@KV?$queue@USFXHIT_COUNT@@V?$deque@USFXHIT_COUNT@@V?$allocator@USFXHIT_COUNT@@@std@@@std@@@std@@U?$less@K@2@V?$allocator@U?$pair@$$CBKV?$queue@USFXHIT_COUNT@@V?$deque@USFXHIT_COUNT@@V?$allocator@USFXHIT_COUNT@@@std@@@std@@@std@@@std@@@2@$0A@@std@@@std@@QAE?AU?$pair@V?$_Tree_iterator@V?$_Tree_val@U?$_Tree_simple_types@U?$pair@$$CBKV?$queue@USFXHIT_COUNT@@V?$deque@USFXHIT_COUNT@@V?$allocator@USFXHIT_COUNT@@@std@@@std@@@std@@@std@@@std@@@std@@@std@@_N@1@$$QAU?$pair@$$CBKV?$queue@USFXHIT_COUNT@@V?$deque@USFXHIT_COUNT@@V?$allocator@USFXHIT_COUNT@@@std@@@std@@@std@@@1@@Z DD 019930522H
	DD	02H
	DD	FLAT:__unwindtable$??$insert@$0A@$0A@@?$_Tree@V?$_Tmap_traits@KV?$queue@USFXHIT_COUNT@@V?$deque@USFXHIT_COUNT@@V?$allocator@USFXHIT_COUNT@@@std@@@std@@@std@@U?$less@K@2@V?$allocator@U?$pair@$$CBKV?$queue@USFXHIT_COUNT@@V?$deque@USFXHIT_COUNT@@V?$allocator@USFXHIT_COUNT@@@std@@@std@@@std@@@std@@@2@$0A@@std@@@std@@QAE?AU?$pair@V?$_Tree_iterator@V?$_Tree_val@U?$_Tree_simple_types@U?$pair@$$CBKV?$queue@USFXHIT_COUNT@@V?$deque@USFXHIT_COUNT@@V?$allocator@USFXHIT_COUNT@@@std@@@std@@@std@@@std@@@std@@@std@@@std@@_N@1@$$QAU?$pair@$$CBKV?$queue@USFXHIT_COUNT@@V?$deque@USFXHIT_COUNT@@V?$allocator@USFXHIT_COUNT@@@std@@@std@@@std@@@1@@Z
	DD	2 DUP(00H)
	DD	2 DUP(00H)
	DD	00H
	DD	01H
xdata$x	ENDS
;	COMDAT xdata$x
xdata$x	SEGMENT
__unwindtable$??0?$deque@USFXHIT_COUNT@@V?$allocator@USFXHIT_COUNT@@@std@@@std@@QAE@ABV01@@Z DD 0ffffffffH
	DD	FLAT:__unwindfunclet$??0?$deque@USFXHIT_COUNT@@V?$allocator@USFXHIT_COUNT@@@std@@@std@@QAE@ABV01@@Z$0
	DD	00H
	DD	FLAT:__unwindfunclet$??0?$deque@USFXHIT_COUNT@@V?$allocator@USFXHIT_COUNT@@@std@@@std@@QAE@ABV01@@Z$1
__ehfuncinfo$??0?$deque@USFXHIT_COUNT@@V?$allocator@USFXHIT_COUNT@@@std@@@std@@QAE@ABV01@@Z DD 019930522H
	DD	02H
	DD	FLAT:__unwindtable$??0?$deque@USFXHIT_COUNT@@V?$allocator@USFXHIT_COUNT@@@std@@@std@@QAE@ABV01@@Z
	DD	2 DUP(00H)
	DD	2 DUP(00H)
	DD	00H
	DD	01H
xdata$x	ENDS
;	COMDAT xdata$x
xdata$x	SEGMENT
__ehfuncinfo$?AddSFXInfo@CMover@@QAEXKAAUSFXHIT_INFO@@@Z DD 019930522H
	DD	06H
	DD	FLAT:__unwindtable$?AddSFXInfo@CMover@@QAEXKAAUSFXHIT_INFO@@@Z
	DD	2 DUP(00H)
	DD	2 DUP(00H)
	DD	00H
	DD	01H
__unwindtable$?AddSFXInfo@CMover@@QAEXKAAUSFXHIT_INFO@@@Z DD 0ffffffffH
	DD	FLAT:__unwindfunclet$?AddSFXInfo@CMover@@QAEXKAAUSFXHIT_INFO@@@Z$0
	DD	00H
	DD	FLAT:__unwindfunclet$?AddSFXInfo@CMover@@QAEXKAAUSFXHIT_INFO@@@Z$5
	DD	01H
	DD	FLAT:__unwindfunclet$?AddSFXInfo@CMover@@QAEXKAAUSFXHIT_INFO@@@Z$6
	DD	00H
	DD	FLAT:__unwindfunclet$?AddSFXInfo@CMover@@QAEXKAAUSFXHIT_INFO@@@Z$1
	DD	03H
	DD	FLAT:__unwindfunclet$?AddSFXInfo@CMover@@QAEXKAAUSFXHIT_INFO@@@Z$9
	DD	03H
	DD	FLAT:__unwindfunclet$?AddSFXInfo@CMover@@QAEXKAAUSFXHIT_INFO@@@Z$8
xdata$x	ENDS
;	COMDAT xdata$x
xdata$x	SEGMENT
__unwindtable$?IncSFXCount@CMover@@QAEXKK@Z DD 0ffffffffH
	DD	FLAT:__unwindfunclet$?IncSFXCount@CMover@@QAEXKK@Z$0
	DD	00H
	DD	FLAT:__unwindfunclet$?IncSFXCount@CMover@@QAEXKK@Z$1
	DD	01H
	DD	FLAT:__unwindfunclet$?IncSFXCount@CMover@@QAEXKK@Z$7
	DD	01H
	DD	FLAT:__unwindfunclet$?IncSFXCount@CMover@@QAEXKK@Z$6
__ehfuncinfo$?IncSFXCount@CMover@@QAEXKK@Z DD 019930522H
	DD	04H
	DD	FLAT:__unwindtable$?IncSFXCount@CMover@@QAEXKK@Z
	DD	2 DUP(00H)
	DD	2 DUP(00H)
	DD	00H
	DD	01H
xdata$x	ENDS
; Function compile flags: /Ogtp
; File C:\Program Files\Microsoft Visual Studio\2022\Professional\VC\Tools\MSVC\14.44.35207\include\xmemory
;	COMDAT ??$_Construct_in_place_by_deref@PAUSFXHIT_INFO@@PAPAU1@@std@@YAXAAPAUSFXHIT_INFO@@AAPAPAU1@@Z
_TEXT	SEGMENT
__Val$ = 8						; size = 4
__Iter$ = 12						; size = 4
??$_Construct_in_place_by_deref@PAUSFXHIT_INFO@@PAPAU1@@std@@YAXAAPAUSFXHIT_INFO@@AAPAPAU1@@Z PROC ; std::_Construct_in_place_by_deref<SFXHIT_INFO *,SFXHIT_INFO * *>, COMDAT

; 1610 :     noexcept(noexcept(::new (static_cast<void*>(_STD addressof(_Val))) _Ty(*_Iter))) {

  00000	55		 push	 ebp
  00001	8b ec		 mov	 ebp, esp

; 1611 :     ::new (static_cast<void*>(_STD addressof(_Val))) _Ty(*_Iter);

  00003	8b 45 0c	 mov	 eax, DWORD PTR __Iter$[ebp]
  00006	8b 00		 mov	 eax, DWORD PTR [eax]
  00008	8b 08		 mov	 ecx, DWORD PTR [eax]
  0000a	8b 45 08	 mov	 eax, DWORD PTR __Val$[ebp]
  0000d	89 08		 mov	 DWORD PTR [eax], ecx

; 1612 : }

  0000f	5d		 pop	 ebp
  00010	c3		 ret	 0
??$_Construct_in_place_by_deref@PAUSFXHIT_INFO@@PAPAU1@@std@@YAXAAPAUSFXHIT_INFO@@AAPAPAU1@@Z ENDP ; std::_Construct_in_place_by_deref<SFXHIT_INFO *,SFXHIT_INFO * *>
_TEXT	ENDS
; Function compile flags: /Ogtp
; File C:\Program Files\Microsoft Visual Studio\2022\Professional\VC\Tools\MSVC\14.44.35207\include\xutility
;	COMDAT ??$_Copy_memmove_tail@PAPAUSFXHIT_INFO@@@std@@YAPAPAUSFXHIT_INFO@@QBDQAPAU1@II@Z
_TEXT	SEGMENT
__First_ch$ = 8						; size = 4
__Dest$ = 12						; size = 4
__Byte_count$ = 16					; size = 4
__Object_count$ = 20					; size = 4
??$_Copy_memmove_tail@PAPAUSFXHIT_INFO@@@std@@YAPAPAUSFXHIT_INFO@@QBDQAPAU1@II@Z PROC ; std::_Copy_memmove_tail<SFXHIT_INFO * *>, COMDAT

; 4747 :     const char* const _First_ch, const _OutCtgIt _Dest, const size_t _Byte_count, const size_t _Object_count) {

  00000	55		 push	 ebp
  00001	8b ec		 mov	 ebp, esp
  00003	56		 push	 esi

; 4748 :     _STL_INTERNAL_CHECK(_Byte_count == _Object_count * sizeof(*_Dest));
; 4749 :     const auto _Dest_ptr = _STD _To_address(_Dest);
; 4750 :     const auto _Dest_ch  = const_cast<char*>(reinterpret_cast<const volatile char*>(_Dest_ptr));
; 4751 :     _CSTD memmove(_Dest_ch, _First_ch, _Byte_count);

  00004	8b 75 0c	 mov	 esi, DWORD PTR __Dest$[ebp]
  00007	57		 push	 edi
  00008	8b 7d 10	 mov	 edi, DWORD PTR __Byte_count$[ebp]
  0000b	57		 push	 edi
  0000c	ff 75 08	 push	 DWORD PTR __First_ch$[ebp]
  0000f	56		 push	 esi
  00010	e8 00 00 00 00	 call	 _memmove
  00015	83 c4 0c	 add	 esp, 12			; 0000000cH

; 4752 :     if constexpr (is_pointer_v<_OutCtgIt>) {
; 4753 :         (void) _Object_count;
; 4754 :         // CodeQL [SM02986] This cast is correct: we're bypassing pointer arithmetic for performance.
; 4755 :         return reinterpret_cast<_OutCtgIt>(_Dest_ch + _Byte_count);

  00018	8d 04 3e	 lea	 eax, DWORD PTR [esi+edi]
  0001b	5f		 pop	 edi
  0001c	5e		 pop	 esi

; 4756 :     } else {
; 4757 :         return _Dest + static_cast<_Iter_diff_t<_OutCtgIt>>(_Object_count);
; 4758 :     }
; 4759 : }

  0001d	5d		 pop	 ebp
  0001e	c3		 ret	 0
??$_Copy_memmove_tail@PAPAUSFXHIT_INFO@@@std@@YAPAPAUSFXHIT_INFO@@QBDQAPAU1@II@Z ENDP ; std::_Copy_memmove_tail<SFXHIT_INFO * *>
_TEXT	ENDS
; Function compile flags: /Ogtp
; File C:\Program Files\Microsoft Visual Studio\2022\Professional\VC\Tools\MSVC\14.44.35207\include\xmemory
;	COMDAT ??$_Construct_in_place_by_deref@PAUSFXHIT_COUNT@@PAPAU1@@std@@YAXAAPAUSFXHIT_COUNT@@AAPAPAU1@@Z
_TEXT	SEGMENT
__Val$ = 8						; size = 4
__Iter$ = 12						; size = 4
??$_Construct_in_place_by_deref@PAUSFXHIT_COUNT@@PAPAU1@@std@@YAXAAPAUSFXHIT_COUNT@@AAPAPAU1@@Z PROC ; std::_Construct_in_place_by_deref<SFXHIT_COUNT *,SFXHIT_COUNT * *>, COMDAT

; 1610 :     noexcept(noexcept(::new (static_cast<void*>(_STD addressof(_Val))) _Ty(*_Iter))) {

  00000	55		 push	 ebp
  00001	8b ec		 mov	 ebp, esp

; 1611 :     ::new (static_cast<void*>(_STD addressof(_Val))) _Ty(*_Iter);

  00003	8b 45 0c	 mov	 eax, DWORD PTR __Iter$[ebp]
  00006	8b 00		 mov	 eax, DWORD PTR [eax]
  00008	8b 08		 mov	 ecx, DWORD PTR [eax]
  0000a	8b 45 08	 mov	 eax, DWORD PTR __Val$[ebp]
  0000d	89 08		 mov	 DWORD PTR [eax], ecx

; 1612 : }

  0000f	5d		 pop	 ebp
  00010	c3		 ret	 0
??$_Construct_in_place_by_deref@PAUSFXHIT_COUNT@@PAPAU1@@std@@YAXAAPAUSFXHIT_COUNT@@AAPAPAU1@@Z ENDP ; std::_Construct_in_place_by_deref<SFXHIT_COUNT *,SFXHIT_COUNT * *>
_TEXT	ENDS
; Function compile flags: /Ogtp
; File C:\Program Files\Microsoft Visual Studio\2022\Professional\VC\Tools\MSVC\14.44.35207\include\xutility
;	COMDAT ??$_Copy_memmove_tail@PAPAUSFXHIT_COUNT@@@std@@YAPAPAUSFXHIT_COUNT@@QBDQAPAU1@II@Z
_TEXT	SEGMENT
__First_ch$ = 8						; size = 4
__Dest$ = 12						; size = 4
__Byte_count$ = 16					; size = 4
__Object_count$ = 20					; size = 4
??$_Copy_memmove_tail@PAPAUSFXHIT_COUNT@@@std@@YAPAPAUSFXHIT_COUNT@@QBDQAPAU1@II@Z PROC ; std::_Copy_memmove_tail<SFXHIT_COUNT * *>, COMDAT

; 4747 :     const char* const _First_ch, const _OutCtgIt _Dest, const size_t _Byte_count, const size_t _Object_count) {

  00000	55		 push	 ebp
  00001	8b ec		 mov	 ebp, esp
  00003	56		 push	 esi

; 4748 :     _STL_INTERNAL_CHECK(_Byte_count == _Object_count * sizeof(*_Dest));
; 4749 :     const auto _Dest_ptr = _STD _To_address(_Dest);
; 4750 :     const auto _Dest_ch  = const_cast<char*>(reinterpret_cast<const volatile char*>(_Dest_ptr));
; 4751 :     _CSTD memmove(_Dest_ch, _First_ch, _Byte_count);

  00004	8b 75 0c	 mov	 esi, DWORD PTR __Dest$[ebp]
  00007	57		 push	 edi
  00008	8b 7d 10	 mov	 edi, DWORD PTR __Byte_count$[ebp]
  0000b	57		 push	 edi
  0000c	ff 75 08	 push	 DWORD PTR __First_ch$[ebp]
  0000f	56		 push	 esi
  00010	e8 00 00 00 00	 call	 _memmove
  00015	83 c4 0c	 add	 esp, 12			; 0000000cH

; 4752 :     if constexpr (is_pointer_v<_OutCtgIt>) {
; 4753 :         (void) _Object_count;
; 4754 :         // CodeQL [SM02986] This cast is correct: we're bypassing pointer arithmetic for performance.
; 4755 :         return reinterpret_cast<_OutCtgIt>(_Dest_ch + _Byte_count);

  00018	8d 04 3e	 lea	 eax, DWORD PTR [esi+edi]
  0001b	5f		 pop	 edi
  0001c	5e		 pop	 esi

; 4756 :     } else {
; 4757 :         return _Dest + static_cast<_Iter_diff_t<_OutCtgIt>>(_Object_count);
; 4758 :     }
; 4759 : }

  0001d	5d		 pop	 ebp
  0001e	c3		 ret	 0
??$_Copy_memmove_tail@PAPAUSFXHIT_COUNT@@@std@@YAPAPAUSFXHIT_COUNT@@QBDQAPAU1@II@Z ENDP ; std::_Copy_memmove_tail<SFXHIT_COUNT * *>
_TEXT	ENDS
; Function compile flags: /Ogtp
; File C:\Program Files\Microsoft Visual Studio\2022\Professional\VC\Tools\MSVC\14.44.35207\include\xutility
;	COMDAT ??$_Copy_memmove@PAPAUSFXHIT_INFO@@PAPAU1@@std@@YAPAPAUSFXHIT_INFO@@PAPAU1@00@Z
_TEXT	SEGMENT
__First$ = 8						; size = 4
__Last$ = 12						; size = 4
__Dest$ = 16						; size = 4
??$_Copy_memmove@PAPAUSFXHIT_INFO@@PAPAU1@@std@@YAPAPAUSFXHIT_INFO@@PAPAU1@00@Z PROC ; std::_Copy_memmove<SFXHIT_INFO * *,SFXHIT_INFO * *>, COMDAT

; 4762 : _OutCtgIt _Copy_memmove(_CtgIt _First, _CtgIt _Last, _OutCtgIt _Dest) {

  00000	55		 push	 ebp
  00001	8b ec		 mov	 ebp, esp

; 4763 :     _STL_INTERNAL_CHECK(_First <= _Last);
; 4764 :     const auto _First_ptr    = _STD _To_address(_First);
; 4765 :     const auto _Last_ptr     = _STD _To_address(_Last);
; 4766 :     const auto _Object_count = static_cast<size_t>(_Last_ptr - _First_ptr);

  00003	8b 55 08	 mov	 edx, DWORD PTR __First$[ebp]
  00006	8b 4d 0c	 mov	 ecx, DWORD PTR __Last$[ebp]
  00009	2b ca		 sub	 ecx, edx
  0000b	8b c1		 mov	 eax, ecx
  0000d	c1 f8 02	 sar	 eax, 2

; 4767 :     const auto _First_ch     = const_cast<const char*>(reinterpret_cast<const volatile char*>(_First_ptr));
; 4768 :     const auto _Last_ch      = const_cast<const char*>(reinterpret_cast<const volatile char*>(_Last_ptr));
; 4769 :     const auto _Byte_count   = static_cast<size_t>(_Last_ch - _First_ch);
; 4770 :     return _STD _Copy_memmove_tail(_First_ch, _STD move(_Dest), _Byte_count, _Object_count);

  00010	50		 push	 eax
  00011	51		 push	 ecx
  00012	ff 75 10	 push	 DWORD PTR __Dest$[ebp]
  00015	52		 push	 edx
  00016	e8 00 00 00 00	 call	 ??$_Copy_memmove_tail@PAPAUSFXHIT_INFO@@@std@@YAPAPAUSFXHIT_INFO@@QBDQAPAU1@II@Z ; std::_Copy_memmove_tail<SFXHIT_INFO * *>
  0001b	83 c4 10	 add	 esp, 16			; 00000010H

; 4771 : }

  0001e	5d		 pop	 ebp
  0001f	c3		 ret	 0
??$_Copy_memmove@PAPAUSFXHIT_INFO@@PAPAU1@@std@@YAPAPAUSFXHIT_INFO@@PAPAU1@00@Z ENDP ; std::_Copy_memmove<SFXHIT_INFO * *,SFXHIT_INFO * *>
_TEXT	ENDS
; Function compile flags: /Ogtp
; File C:\Program Files\Microsoft Visual Studio\2022\Professional\VC\Tools\MSVC\14.44.35207\include\xutility
;	COMDAT ??$_Copy_memmove@PAPAUSFXHIT_COUNT@@PAPAU1@@std@@YAPAPAUSFXHIT_COUNT@@PAPAU1@00@Z
_TEXT	SEGMENT
__First$ = 8						; size = 4
__Last$ = 12						; size = 4
__Dest$ = 16						; size = 4
??$_Copy_memmove@PAPAUSFXHIT_COUNT@@PAPAU1@@std@@YAPAPAUSFXHIT_COUNT@@PAPAU1@00@Z PROC ; std::_Copy_memmove<SFXHIT_COUNT * *,SFXHIT_COUNT * *>, COMDAT

; 4762 : _OutCtgIt _Copy_memmove(_CtgIt _First, _CtgIt _Last, _OutCtgIt _Dest) {

  00000	55		 push	 ebp
  00001	8b ec		 mov	 ebp, esp

; 4763 :     _STL_INTERNAL_CHECK(_First <= _Last);
; 4764 :     const auto _First_ptr    = _STD _To_address(_First);
; 4765 :     const auto _Last_ptr     = _STD _To_address(_Last);
; 4766 :     const auto _Object_count = static_cast<size_t>(_Last_ptr - _First_ptr);

  00003	8b 55 08	 mov	 edx, DWORD PTR __First$[ebp]
  00006	8b 4d 0c	 mov	 ecx, DWORD PTR __Last$[ebp]
  00009	2b ca		 sub	 ecx, edx
  0000b	8b c1		 mov	 eax, ecx
  0000d	c1 f8 02	 sar	 eax, 2

; 4767 :     const auto _First_ch     = const_cast<const char*>(reinterpret_cast<const volatile char*>(_First_ptr));
; 4768 :     const auto _Last_ch      = const_cast<const char*>(reinterpret_cast<const volatile char*>(_Last_ptr));
; 4769 :     const auto _Byte_count   = static_cast<size_t>(_Last_ch - _First_ch);
; 4770 :     return _STD _Copy_memmove_tail(_First_ch, _STD move(_Dest), _Byte_count, _Object_count);

  00010	50		 push	 eax
  00011	51		 push	 ecx
  00012	ff 75 10	 push	 DWORD PTR __Dest$[ebp]
  00015	52		 push	 edx
  00016	e8 00 00 00 00	 call	 ??$_Copy_memmove_tail@PAPAUSFXHIT_COUNT@@@std@@YAPAPAUSFXHIT_COUNT@@QBDQAPAU1@II@Z ; std::_Copy_memmove_tail<SFXHIT_COUNT * *>
  0001b	83 c4 10	 add	 esp, 16			; 00000010H

; 4771 : }

  0001e	5d		 pop	 ebp
  0001f	c3		 ret	 0
??$_Copy_memmove@PAPAUSFXHIT_COUNT@@PAPAU1@@std@@YAPAPAUSFXHIT_COUNT@@PAPAU1@00@Z ENDP ; std::_Copy_memmove<SFXHIT_COUNT * *,SFXHIT_COUNT * *>
_TEXT	ENDS
; Function compile flags: /Ogtp
; File C:\Program Files\Microsoft Visual Studio\2022\Professional\VC\Tools\MSVC\14.44.35207\include\xmemory
;	COMDAT ??$_Zero_range@PAPAUSFXHIT_INFO@@@std@@YAPAPAUSFXHIT_INFO@@QAPAU1@0@Z
_TEXT	SEGMENT
__First$ = 8						; size = 4
__Last$ = 12						; size = 4
??$_Zero_range@PAPAUSFXHIT_INFO@@@std@@YAPAPAUSFXHIT_INFO@@QAPAU1@0@Z PROC ; std::_Zero_range<SFXHIT_INFO * *>, COMDAT

; 2069 : _Ptr _Zero_range(const _Ptr _First, const _Ptr _Last) { // fill [_First, _Last) with zeroes

  00000	55		 push	 ebp
  00001	8b ec		 mov	 ebp, esp

; 2070 :     char* const _First_ch = reinterpret_cast<char*>(_STD _To_address(_First));
; 2071 :     char* const _Last_ch  = reinterpret_cast<char*>(_STD _To_address(_Last));
; 2072 :     _CSTD memset(_First_ch, 0, static_cast<size_t>(_Last_ch - _First_ch));

  00003	8b 55 08	 mov	 edx, DWORD PTR __First$[ebp]
  00006	8b 4d 0c	 mov	 ecx, DWORD PTR __Last$[ebp]
  00009	2b ca		 sub	 ecx, edx
  0000b	51		 push	 ecx
  0000c	6a 00		 push	 0
  0000e	52		 push	 edx
  0000f	e8 00 00 00 00	 call	 _memset

; 2073 :     return _Last;

  00014	8b 45 0c	 mov	 eax, DWORD PTR __Last$[ebp]
  00017	83 c4 0c	 add	 esp, 12			; 0000000cH

; 2074 : }

  0001a	5d		 pop	 ebp
  0001b	c3		 ret	 0
??$_Zero_range@PAPAUSFXHIT_INFO@@@std@@YAPAPAUSFXHIT_INFO@@QAPAU1@0@Z ENDP ; std::_Zero_range<SFXHIT_INFO * *>
_TEXT	ENDS
; Function compile flags: /Ogtp
; File C:\Program Files\Microsoft Visual Studio\2022\Professional\VC\Tools\MSVC\14.44.35207\include\xmemory
;	COMDAT ??$_Uninitialized_copy_unchecked@PAPAUSFXHIT_INFO@@PAPAU1@@std@@YAPAPAUSFXHIT_INFO@@PAPAU1@QAPAU1@0@Z
_TEXT	SEGMENT
__First$ = 8						; size = 4
__Last$ = 12						; size = 4
__Dest$ = 16						; size = 4
??$_Uninitialized_copy_unchecked@PAPAUSFXHIT_INFO@@PAPAU1@@std@@YAPAPAUSFXHIT_INFO@@PAPAU1@QAPAU1@0@Z PROC ; std::_Uninitialized_copy_unchecked<SFXHIT_INFO * *,SFXHIT_INFO * *>, COMDAT

; 1945 : _NoThrowFwdIt _Uninitialized_copy_unchecked(_InIt _First, const _InIt _Last, _NoThrowFwdIt _Dest) {

  00000	55		 push	 ebp
  00001	8b ec		 mov	 ebp, esp

; 1953 :         }
; 1954 :     }
; 1955 : 
; 1956 :     _Uninitialized_backout<_NoThrowFwdIt> _Backout{_Dest};
; 1957 :     for (; _First != _Last; ++_First) {
; 1958 :         _Backout._Emplace_back_deref(_First);
; 1959 :     }
; 1960 : 
; 1961 :     return _Backout._Release();
; 1962 : }

  00003	5d		 pop	 ebp

; 1946 :     // copy [_First, _Last) to raw [_Dest, ...)
; 1947 :     if constexpr (_Iter_copy_cat<_InIt, _NoThrowFwdIt>::_Bitcopy_constructible) {
; 1948 : #if 0 // TRANSITION, _HAS_CXX26
; 1949 :         if (!_STD is_constant_evaluated())
; 1950 : #endif // _HAS_CXX26
; 1951 :         {
; 1952 :             return _STD _Copy_memmove(_First, _Last, _Dest);

  00004	e9 00 00 00 00	 jmp	 ??$_Copy_memmove@PAPAUSFXHIT_INFO@@PAPAU1@@std@@YAPAPAUSFXHIT_INFO@@PAPAU1@00@Z ; std::_Copy_memmove<SFXHIT_INFO * *,SFXHIT_INFO * *>
??$_Uninitialized_copy_unchecked@PAPAUSFXHIT_INFO@@PAPAU1@@std@@YAPAPAUSFXHIT_INFO@@PAPAU1@QAPAU1@0@Z ENDP ; std::_Uninitialized_copy_unchecked<SFXHIT_INFO * *,SFXHIT_INFO * *>
_TEXT	ENDS
; Function compile flags: /Ogtp
; File C:\Program Files\Microsoft Visual Studio\2022\Professional\VC\Tools\MSVC\14.44.35207\include\xmemory
;	COMDAT ??$_Zero_range@PAPAUSFXHIT_COUNT@@@std@@YAPAPAUSFXHIT_COUNT@@QAPAU1@0@Z
_TEXT	SEGMENT
__First$ = 8						; size = 4
__Last$ = 12						; size = 4
??$_Zero_range@PAPAUSFXHIT_COUNT@@@std@@YAPAPAUSFXHIT_COUNT@@QAPAU1@0@Z PROC ; std::_Zero_range<SFXHIT_COUNT * *>, COMDAT

; 2069 : _Ptr _Zero_range(const _Ptr _First, const _Ptr _Last) { // fill [_First, _Last) with zeroes

  00000	55		 push	 ebp
  00001	8b ec		 mov	 ebp, esp

; 2070 :     char* const _First_ch = reinterpret_cast<char*>(_STD _To_address(_First));
; 2071 :     char* const _Last_ch  = reinterpret_cast<char*>(_STD _To_address(_Last));
; 2072 :     _CSTD memset(_First_ch, 0, static_cast<size_t>(_Last_ch - _First_ch));

  00003	8b 55 08	 mov	 edx, DWORD PTR __First$[ebp]
  00006	8b 4d 0c	 mov	 ecx, DWORD PTR __Last$[ebp]
  00009	2b ca		 sub	 ecx, edx
  0000b	51		 push	 ecx
  0000c	6a 00		 push	 0
  0000e	52		 push	 edx
  0000f	e8 00 00 00 00	 call	 _memset

; 2073 :     return _Last;

  00014	8b 45 0c	 mov	 eax, DWORD PTR __Last$[ebp]
  00017	83 c4 0c	 add	 esp, 12			; 0000000cH

; 2074 : }

  0001a	5d		 pop	 ebp
  0001b	c3		 ret	 0
??$_Zero_range@PAPAUSFXHIT_COUNT@@@std@@YAPAPAUSFXHIT_COUNT@@QAPAU1@0@Z ENDP ; std::_Zero_range<SFXHIT_COUNT * *>
_TEXT	ENDS
; Function compile flags: /Ogtp
; File C:\Program Files\Microsoft Visual Studio\2022\Professional\VC\Tools\MSVC\14.44.35207\include\xmemory
;	COMDAT ??$_Uninitialized_copy_unchecked@PAPAUSFXHIT_COUNT@@PAPAU1@@std@@YAPAPAUSFXHIT_COUNT@@PAPAU1@QAPAU1@0@Z
_TEXT	SEGMENT
__First$ = 8						; size = 4
__Last$ = 12						; size = 4
__Dest$ = 16						; size = 4
??$_Uninitialized_copy_unchecked@PAPAUSFXHIT_COUNT@@PAPAU1@@std@@YAPAPAUSFXHIT_COUNT@@PAPAU1@QAPAU1@0@Z PROC ; std::_Uninitialized_copy_unchecked<SFXHIT_COUNT * *,SFXHIT_COUNT * *>, COMDAT

; 1945 : _NoThrowFwdIt _Uninitialized_copy_unchecked(_InIt _First, const _InIt _Last, _NoThrowFwdIt _Dest) {

  00000	55		 push	 ebp
  00001	8b ec		 mov	 ebp, esp

; 1953 :         }
; 1954 :     }
; 1955 : 
; 1956 :     _Uninitialized_backout<_NoThrowFwdIt> _Backout{_Dest};
; 1957 :     for (; _First != _Last; ++_First) {
; 1958 :         _Backout._Emplace_back_deref(_First);
; 1959 :     }
; 1960 : 
; 1961 :     return _Backout._Release();
; 1962 : }

  00003	5d		 pop	 ebp

; 1946 :     // copy [_First, _Last) to raw [_Dest, ...)
; 1947 :     if constexpr (_Iter_copy_cat<_InIt, _NoThrowFwdIt>::_Bitcopy_constructible) {
; 1948 : #if 0 // TRANSITION, _HAS_CXX26
; 1949 :         if (!_STD is_constant_evaluated())
; 1950 : #endif // _HAS_CXX26
; 1951 :         {
; 1952 :             return _STD _Copy_memmove(_First, _Last, _Dest);

  00004	e9 00 00 00 00	 jmp	 ??$_Copy_memmove@PAPAUSFXHIT_COUNT@@PAPAU1@@std@@YAPAPAUSFXHIT_COUNT@@PAPAU1@00@Z ; std::_Copy_memmove<SFXHIT_COUNT * *,SFXHIT_COUNT * *>
??$_Uninitialized_copy_unchecked@PAPAUSFXHIT_COUNT@@PAPAU1@@std@@YAPAPAUSFXHIT_COUNT@@PAPAU1@QAPAU1@0@Z ENDP ; std::_Uninitialized_copy_unchecked<SFXHIT_COUNT * *,SFXHIT_COUNT * *>
_TEXT	ENDS
; Function compile flags: /Ogtp
; File C:\Program Files\Microsoft Visual Studio\2022\Professional\VC\Tools\MSVC\14.44.35207\include\xmemory
;	COMDAT ??$_Uninitialized_value_construct_n_unchecked1@PAPAUSFXHIT_INFO@@I@std@@YAPAPAUSFXHIT_INFO@@PAPAU1@I@Z
_TEXT	SEGMENT
__UFirst$ = 8						; size = 4
__Count$ = 12						; size = 4
??$_Uninitialized_value_construct_n_unchecked1@PAPAUSFXHIT_INFO@@I@std@@YAPAPAUSFXHIT_INFO@@PAPAU1@I@Z PROC ; std::_Uninitialized_value_construct_n_unchecked1<SFXHIT_INFO * *,unsigned int>, COMDAT

; 2101 : _NoThrowFwdIt _Uninitialized_value_construct_n_unchecked1(_NoThrowFwdIt _UFirst, _Diff _Count) {

  00000	55		 push	 ebp
  00001	8b ec		 mov	 ebp, esp

; 2102 :     // value-initialize all elements in [_UFirst, _UFirst + _Count)
; 2103 :     _STL_INTERNAL_CHECK(_Count >= 0);
; 2104 :     if constexpr (_Use_memset_value_construct_v<_NoThrowFwdIt>) {
; 2105 :         return _STD _Zero_range(_UFirst, _UFirst + _Count);

  00003	8b 4d 08	 mov	 ecx, DWORD PTR __UFirst$[ebp]
  00006	8b 45 0c	 mov	 eax, DWORD PTR __Count$[ebp]
  00009	8d 04 81	 lea	 eax, DWORD PTR [ecx+eax*4]
  0000c	89 45 0c	 mov	 DWORD PTR __Count$[ebp], eax
  0000f	89 4d 08	 mov	 DWORD PTR __UFirst$[ebp], ecx

; 2106 :     } else {
; 2107 :         _Uninitialized_backout<_NoThrowFwdIt> _Backout{_UFirst};
; 2108 :         for (; 0 < _Count; --_Count) {
; 2109 :             _Backout._Emplace_back();
; 2110 :         }
; 2111 : 
; 2112 :         return _Backout._Release();
; 2113 :     }
; 2114 : }

  00012	5d		 pop	 ebp

; 2102 :     // value-initialize all elements in [_UFirst, _UFirst + _Count)
; 2103 :     _STL_INTERNAL_CHECK(_Count >= 0);
; 2104 :     if constexpr (_Use_memset_value_construct_v<_NoThrowFwdIt>) {
; 2105 :         return _STD _Zero_range(_UFirst, _UFirst + _Count);

  00013	e9 00 00 00 00	 jmp	 ??$_Zero_range@PAPAUSFXHIT_INFO@@@std@@YAPAPAUSFXHIT_INFO@@QAPAU1@0@Z ; std::_Zero_range<SFXHIT_INFO * *>
??$_Uninitialized_value_construct_n_unchecked1@PAPAUSFXHIT_INFO@@I@std@@YAPAPAUSFXHIT_INFO@@PAPAU1@I@Z ENDP ; std::_Uninitialized_value_construct_n_unchecked1<SFXHIT_INFO * *,unsigned int>
_TEXT	ENDS
; Function compile flags: /Ogtp
; File C:\Program Files\Microsoft Visual Studio\2022\Professional\VC\Tools\MSVC\14.44.35207\include\xmemory
;	COMDAT ??$uninitialized_copy@PAPAUSFXHIT_INFO@@PAPAU1@@std@@YAPAPAUSFXHIT_INFO@@QAPAU1@0PAPAU1@@Z
_TEXT	SEGMENT
__First$ = 8						; size = 4
__Last$ = 12						; size = 4
__Dest$ = 16						; size = 4
??$uninitialized_copy@PAPAUSFXHIT_INFO@@PAPAU1@@std@@YAPAPAUSFXHIT_INFO@@QAPAU1@0PAPAU1@@Z PROC ; std::uninitialized_copy<SFXHIT_INFO * *,SFXHIT_INFO * *>, COMDAT

; 1965 : _NoThrowFwdIt uninitialized_copy(const _InIt _First, const _InIt _Last, _NoThrowFwdIt _Dest) {

  00000	55		 push	 ebp
  00001	8b ec		 mov	 ebp, esp

; 1972 :     return _Dest;
; 1973 : }

  00003	5d		 pop	 ebp

; 1966 :     // copy [_First, _Last) to raw [_Dest, ...)
; 1967 :     _STD _Adl_verify_range(_First, _Last);
; 1968 :     auto _UFirst      = _STD _Get_unwrapped(_First);
; 1969 :     const auto _ULast = _STD _Get_unwrapped(_Last);
; 1970 :     auto _UDest       = _STD _Get_unwrapped_n(_Dest, _STD _Idl_distance<_InIt>(_UFirst, _ULast));
; 1971 :     _STD _Seek_wrapped(_Dest, _STD _Uninitialized_copy_unchecked(_UFirst, _ULast, _UDest));

  00004	e9 00 00 00 00	 jmp	 ??$_Uninitialized_copy_unchecked@PAPAUSFXHIT_INFO@@PAPAU1@@std@@YAPAPAUSFXHIT_INFO@@PAPAU1@QAPAU1@0@Z ; std::_Uninitialized_copy_unchecked<SFXHIT_INFO * *,SFXHIT_INFO * *>
??$uninitialized_copy@PAPAUSFXHIT_INFO@@PAPAU1@@std@@YAPAPAUSFXHIT_INFO@@QAPAU1@0PAPAU1@@Z ENDP ; std::uninitialized_copy<SFXHIT_INFO * *,SFXHIT_INFO * *>
_TEXT	ENDS
; Function compile flags: /Ogtp
; File C:\Program Files\Microsoft Visual Studio\2022\Professional\VC\Tools\MSVC\14.44.35207\include\xtree
; File C:\Program Files\Microsoft Visual Studio\2022\Professional\VC\Tools\MSVC\14.44.35207\include\utility
; File C:\Program Files\Microsoft Visual Studio\2022\Professional\VC\Tools\MSVC\14.44.35207\include\deque
; File C:\Program Files\Microsoft Visual Studio\2022\Professional\VC\Tools\MSVC\14.44.35207\include\utility
; File C:\Program Files\Microsoft Visual Studio\2022\Professional\VC\Tools\MSVC\14.44.35207\include\xmemory
; File C:\Program Files\Microsoft Visual Studio\2022\Professional\VC\Tools\MSVC\14.44.35207\include\utility
; File C:\Program Files\Microsoft Visual Studio\2022\Professional\VC\Tools\MSVC\14.44.35207\include\xmemory
; File C:\Program Files\Microsoft Visual Studio\2022\Professional\VC\Tools\MSVC\14.44.35207\include\xtree
; File C:\Program Files\Microsoft Visual Studio\2022\Professional\VC\Tools\MSVC\14.44.35207\include\xmemory
; File C:\Program Files\Microsoft Visual Studio\2022\Professional\VC\Tools\MSVC\14.44.35207\include\xtree
;	COMDAT ??$_Erase_tree@V?$allocator@U?$_Tree_node@U?$pair@$$CBKV?$queue@USFXHIT_INFO@@V?$deque@USFXHIT_INFO@@V?$allocator@USFXHIT_INFO@@@std@@@std@@@std@@@std@@PAX@std@@@std@@@?$_Tree_val@U?$_Tree_simple_types@U?$pair@$$CBKV?$queue@USFXHIT_INFO@@V?$deque@USFXHIT_INFO@@V?$allocator@USFXHIT_INFO@@@std@@@std@@@std@@@std@@@std@@@std@@QAEXAAV?$allocator@U?$_Tree_node@U?$pair@$$CBKV?$queue@USFXHIT_INFO@@V?$deque@USFXHIT_INFO@@V?$allocator@USFXHIT_INFO@@@std@@@std@@@std@@@std@@PAX@std@@@1@PAU?$_Tree_node@U?$pair@$$CBKV?$queue@USFXHIT_INFO@@V?$deque@USFXHIT_INFO@@V?$allocator@USFXHIT_INFO@@@std@@@std@@@std@@@std@@PAX@1@@Z
_TEXT	SEGMENT
_this$1$ = -4						; size = 4
__Al$ = 8						; size = 4
__Rootnode$ = 12					; size = 4
??$_Erase_tree@V?$allocator@U?$_Tree_node@U?$pair@$$CBKV?$queue@USFXHIT_INFO@@V?$deque@USFXHIT_INFO@@V?$allocator@USFXHIT_INFO@@@std@@@std@@@std@@@std@@PAX@std@@@std@@@?$_Tree_val@U?$_Tree_simple_types@U?$pair@$$CBKV?$queue@USFXHIT_INFO@@V?$deque@USFXHIT_INFO@@V?$allocator@USFXHIT_INFO@@@std@@@std@@@std@@@std@@@std@@@std@@QAEXAAV?$allocator@U?$_Tree_node@U?$pair@$$CBKV?$queue@USFXHIT_INFO@@V?$deque@USFXHIT_INFO@@V?$allocator@USFXHIT_INFO@@@std@@@std@@@std@@@std@@PAX@std@@@1@PAU?$_Tree_node@U?$pair@$$CBKV?$queue@USFXHIT_INFO@@V?$deque@USFXHIT_INFO@@V?$allocator@USFXHIT_INFO@@@std@@@std@@@std@@@std@@PAX@1@@Z PROC ; std::_Tree_val<std::_Tree_simple_types<std::pair<unsigned long const ,std::queue<SFXHIT_INFO,std::deque<SFXHIT_INFO,std::allocator<SFXHIT_INFO> > > > > >::_Erase_tree<std::allocator<std::_Tree_node<std::pair<unsigned long const ,std::queue<SFXHIT_INFO,std::deque<SFXHIT_INFO,std::allocator<SFXHIT_INFO> > > >,void *> > >, COMDAT
; _this$ = ecx

; 767  :     void _Erase_tree(_Alnode& _Al, _Nodeptr _Rootnode) noexcept {

  00000	55		 push	 ebp
  00001	8b ec		 mov	 ebp, esp
  00003	51		 push	 ecx
  00004	56		 push	 esi

; 768  :         while (!_Rootnode->_Isnil) { // free subtrees, then node

  00005	8b 75 0c	 mov	 esi, DWORD PTR __Rootnode$[ebp]
  00008	8b c1		 mov	 eax, ecx
  0000a	89 45 fc	 mov	 DWORD PTR _this$1$[ebp], eax
  0000d	80 7e 0d 00	 cmp	 BYTE PTR [esi+13], 0
  00011	75 43		 jne	 SHORT $LN86@Erase_tree
  00013	53		 push	 ebx
  00014	57		 push	 edi
$LL2@Erase_tree:

; 769  :             _Erase_tree(_Al, _Rootnode->_Right);

  00015	ff 76 08	 push	 DWORD PTR [esi+8]
  00018	8b c8		 mov	 ecx, eax
  0001a	ff 75 08	 push	 DWORD PTR __Al$[ebp]
  0001d	e8 00 00 00 00	 call	 ??$_Erase_tree@V?$allocator@U?$_Tree_node@U?$pair@$$CBKV?$queue@USFXHIT_INFO@@V?$deque@USFXHIT_INFO@@V?$allocator@USFXHIT_INFO@@@std@@@std@@@std@@@std@@PAX@std@@@std@@@?$_Tree_val@U?$_Tree_simple_types@U?$pair@$$CBKV?$queue@USFXHIT_INFO@@V?$deque@USFXHIT_INFO@@V?$allocator@USFXHIT_INFO@@@std@@@std@@@std@@@std@@@std@@@std@@QAEXAAV?$allocator@U?$_Tree_node@U?$pair@$$CBKV?$queue@USFXHIT_INFO@@V?$deque@USFXHIT_INFO@@V?$allocator@USFXHIT_INFO@@@std@@@std@@@std@@@std@@PAX@std@@@1@PAU?$_Tree_node@U?$pair@$$CBKV?$queue@USFXHIT_INFO@@V?$deque@USFXHIT_INFO@@V?$allocator@USFXHIT_INFO@@@std@@@std@@@std@@@std@@PAX@1@@Z ; std::_Tree_val<std::_Tree_simple_types<std::pair<unsigned long const ,std::queue<SFXHIT_INFO,std::deque<SFXHIT_INFO,std::allocator<SFXHIT_INFO> > > > > >::_Erase_tree<std::allocator<std::_Tree_node<std::pair<unsigned long const ,std::queue<SFXHIT_INFO,std::deque<SFXHIT_INFO,std::allocator<SFXHIT_INFO> > > >,void *> > >
; File C:\Program Files\Microsoft Visual Studio\2022\Professional\VC\Tools\MSVC\14.44.35207\include\utility

; 773  :     _Ty _Old_val = static_cast<_Ty&&>(_Val);

  00022	8b de		 mov	 ebx, esi

; 774  :     _Val         = static_cast<_Other&&>(_New_val);

  00024	8b 36		 mov	 esi, DWORD PTR [esi]
; File C:\Program Files\Microsoft Visual Studio\2022\Professional\VC\Tools\MSVC\14.44.35207\include\deque

; 774  :         _Tidy();

  00026	8d 4b 14	 lea	 ecx, DWORD PTR [ebx+20]
  00029	e8 00 00 00 00	 call	 ?_Tidy@?$deque@USFXHIT_INFO@@V?$allocator@USFXHIT_INFO@@@std@@@std@@AAEXXZ ; std::deque<SFXHIT_INFO,std::allocator<SFXHIT_INFO> >::_Tidy
; File C:\Program Files\Microsoft Visual Studio\2022\Professional\VC\Tools\MSVC\14.44.35207\include\utility

; 773  :     _Ty _Old_val = static_cast<_Ty&&>(_Val);

  0002e	8b 43 14	 mov	 eax, DWORD PTR [ebx+20]
; File C:\Program Files\Microsoft Visual Studio\2022\Professional\VC\Tools\MSVC\14.44.35207\include\xmemory

; 289  :         ::operator delete(_Ptr, _Bytes);

  00031	6a 08		 push	 8
  00033	50		 push	 eax
; File C:\Program Files\Microsoft Visual Studio\2022\Professional\VC\Tools\MSVC\14.44.35207\include\utility

; 774  :     _Val         = static_cast<_Other&&>(_New_val);

  00034	c7 43 14 00 00
	00 00		 mov	 DWORD PTR [ebx+20], 0
; File C:\Program Files\Microsoft Visual Studio\2022\Professional\VC\Tools\MSVC\14.44.35207\include\xmemory

; 289  :         ::operator delete(_Ptr, _Bytes);

  0003b	e8 00 00 00 00	 call	 ??3@YAXPAXI@Z		; operator delete
  00040	6a 28		 push	 40			; 00000028H
  00042	53		 push	 ebx
  00043	e8 00 00 00 00	 call	 ??3@YAXPAXI@Z		; operator delete
; File C:\Program Files\Microsoft Visual Studio\2022\Professional\VC\Tools\MSVC\14.44.35207\include\xtree

; 768  :         while (!_Rootnode->_Isnil) { // free subtrees, then node

  00048	8b 45 fc	 mov	 eax, DWORD PTR _this$1$[ebp]
; File C:\Program Files\Microsoft Visual Studio\2022\Professional\VC\Tools\MSVC\14.44.35207\include\xmemory

; 289  :         ::operator delete(_Ptr, _Bytes);

  0004b	83 c4 10	 add	 esp, 16			; 00000010H
; File C:\Program Files\Microsoft Visual Studio\2022\Professional\VC\Tools\MSVC\14.44.35207\include\xtree

; 768  :         while (!_Rootnode->_Isnil) { // free subtrees, then node

  0004e	80 7e 0d 00	 cmp	 BYTE PTR [esi+13], 0
  00052	74 c1		 je	 SHORT $LL2@Erase_tree
  00054	5f		 pop	 edi
  00055	5b		 pop	 ebx
$LN86@Erase_tree:
  00056	5e		 pop	 esi

; 770  :             _Alnode::value_type::_Freenode(_Al, _STD exchange(_Rootnode, _Rootnode->_Left));
; 771  :         }
; 772  :     }

  00057	8b e5		 mov	 esp, ebp
  00059	5d		 pop	 ebp
  0005a	c2 08 00	 ret	 8
??$_Erase_tree@V?$allocator@U?$_Tree_node@U?$pair@$$CBKV?$queue@USFXHIT_INFO@@V?$deque@USFXHIT_INFO@@V?$allocator@USFXHIT_INFO@@@std@@@std@@@std@@@std@@PAX@std@@@std@@@?$_Tree_val@U?$_Tree_simple_types@U?$pair@$$CBKV?$queue@USFXHIT_INFO@@V?$deque@USFXHIT_INFO@@V?$allocator@USFXHIT_INFO@@@std@@@std@@@std@@@std@@@std@@@std@@QAEXAAV?$allocator@U?$_Tree_node@U?$pair@$$CBKV?$queue@USFXHIT_INFO@@V?$deque@USFXHIT_INFO@@V?$allocator@USFXHIT_INFO@@@std@@@std@@@std@@@std@@PAX@std@@@1@PAU?$_Tree_node@U?$pair@$$CBKV?$queue@USFXHIT_INFO@@V?$deque@USFXHIT_INFO@@V?$allocator@USFXHIT_INFO@@@std@@@std@@@std@@@std@@PAX@1@@Z ENDP ; std::_Tree_val<std::_Tree_simple_types<std::pair<unsigned long const ,std::queue<SFXHIT_INFO,std::deque<SFXHIT_INFO,std::allocator<SFXHIT_INFO> > > > > >::_Erase_tree<std::allocator<std::_Tree_node<std::pair<unsigned long const ,std::queue<SFXHIT_INFO,std::deque<SFXHIT_INFO,std::allocator<SFXHIT_INFO> > > >,void *> > >
_TEXT	ENDS
; Function compile flags: /Ogtp
; File C:\Program Files\Microsoft Visual Studio\2022\Professional\VC\Tools\MSVC\14.44.35207\include\xmemory
;	COMDAT ??$_Uninitialized_value_construct_n_unchecked1@PAPAUSFXHIT_COUNT@@I@std@@YAPAPAUSFXHIT_COUNT@@PAPAU1@I@Z
_TEXT	SEGMENT
__UFirst$ = 8						; size = 4
__Count$ = 12						; size = 4
??$_Uninitialized_value_construct_n_unchecked1@PAPAUSFXHIT_COUNT@@I@std@@YAPAPAUSFXHIT_COUNT@@PAPAU1@I@Z PROC ; std::_Uninitialized_value_construct_n_unchecked1<SFXHIT_COUNT * *,unsigned int>, COMDAT

; 2101 : _NoThrowFwdIt _Uninitialized_value_construct_n_unchecked1(_NoThrowFwdIt _UFirst, _Diff _Count) {

  00000	55		 push	 ebp
  00001	8b ec		 mov	 ebp, esp

; 2102 :     // value-initialize all elements in [_UFirst, _UFirst + _Count)
; 2103 :     _STL_INTERNAL_CHECK(_Count >= 0);
; 2104 :     if constexpr (_Use_memset_value_construct_v<_NoThrowFwdIt>) {
; 2105 :         return _STD _Zero_range(_UFirst, _UFirst + _Count);

  00003	8b 4d 08	 mov	 ecx, DWORD PTR __UFirst$[ebp]
  00006	8b 45 0c	 mov	 eax, DWORD PTR __Count$[ebp]
  00009	8d 04 81	 lea	 eax, DWORD PTR [ecx+eax*4]
  0000c	89 45 0c	 mov	 DWORD PTR __Count$[ebp], eax
  0000f	89 4d 08	 mov	 DWORD PTR __UFirst$[ebp], ecx

; 2106 :     } else {
; 2107 :         _Uninitialized_backout<_NoThrowFwdIt> _Backout{_UFirst};
; 2108 :         for (; 0 < _Count; --_Count) {
; 2109 :             _Backout._Emplace_back();
; 2110 :         }
; 2111 : 
; 2112 :         return _Backout._Release();
; 2113 :     }
; 2114 : }

  00012	5d		 pop	 ebp

; 2102 :     // value-initialize all elements in [_UFirst, _UFirst + _Count)
; 2103 :     _STL_INTERNAL_CHECK(_Count >= 0);
; 2104 :     if constexpr (_Use_memset_value_construct_v<_NoThrowFwdIt>) {
; 2105 :         return _STD _Zero_range(_UFirst, _UFirst + _Count);

  00013	e9 00 00 00 00	 jmp	 ??$_Zero_range@PAPAUSFXHIT_COUNT@@@std@@YAPAPAUSFXHIT_COUNT@@QAPAU1@0@Z ; std::_Zero_range<SFXHIT_COUNT * *>
??$_Uninitialized_value_construct_n_unchecked1@PAPAUSFXHIT_COUNT@@I@std@@YAPAPAUSFXHIT_COUNT@@PAPAU1@I@Z ENDP ; std::_Uninitialized_value_construct_n_unchecked1<SFXHIT_COUNT * *,unsigned int>
_TEXT	ENDS
; Function compile flags: /Ogtp
; File C:\Program Files\Microsoft Visual Studio\2022\Professional\VC\Tools\MSVC\14.44.35207\include\xmemory
;	COMDAT ??$uninitialized_copy@PAPAUSFXHIT_COUNT@@PAPAU1@@std@@YAPAPAUSFXHIT_COUNT@@QAPAU1@0PAPAU1@@Z
_TEXT	SEGMENT
__First$ = 8						; size = 4
__Last$ = 12						; size = 4
__Dest$ = 16						; size = 4
??$uninitialized_copy@PAPAUSFXHIT_COUNT@@PAPAU1@@std@@YAPAPAUSFXHIT_COUNT@@QAPAU1@0PAPAU1@@Z PROC ; std::uninitialized_copy<SFXHIT_COUNT * *,SFXHIT_COUNT * *>, COMDAT

; 1965 : _NoThrowFwdIt uninitialized_copy(const _InIt _First, const _InIt _Last, _NoThrowFwdIt _Dest) {

  00000	55		 push	 ebp
  00001	8b ec		 mov	 ebp, esp

; 1972 :     return _Dest;
; 1973 : }

  00003	5d		 pop	 ebp

; 1966 :     // copy [_First, _Last) to raw [_Dest, ...)
; 1967 :     _STD _Adl_verify_range(_First, _Last);
; 1968 :     auto _UFirst      = _STD _Get_unwrapped(_First);
; 1969 :     const auto _ULast = _STD _Get_unwrapped(_Last);
; 1970 :     auto _UDest       = _STD _Get_unwrapped_n(_Dest, _STD _Idl_distance<_InIt>(_UFirst, _ULast));
; 1971 :     _STD _Seek_wrapped(_Dest, _STD _Uninitialized_copy_unchecked(_UFirst, _ULast, _UDest));

  00004	e9 00 00 00 00	 jmp	 ??$_Uninitialized_copy_unchecked@PAPAUSFXHIT_COUNT@@PAPAU1@@std@@YAPAPAUSFXHIT_COUNT@@PAPAU1@QAPAU1@0@Z ; std::_Uninitialized_copy_unchecked<SFXHIT_COUNT * *,SFXHIT_COUNT * *>
??$uninitialized_copy@PAPAUSFXHIT_COUNT@@PAPAU1@@std@@YAPAPAUSFXHIT_COUNT@@QAPAU1@0PAPAU1@@Z ENDP ; std::uninitialized_copy<SFXHIT_COUNT * *,SFXHIT_COUNT * *>
_TEXT	ENDS
; Function compile flags: /Ogtp
; File C:\Program Files\Microsoft Visual Studio\2022\Professional\VC\Tools\MSVC\14.44.35207\include\xtree
; File C:\Program Files\Microsoft Visual Studio\2022\Professional\VC\Tools\MSVC\14.44.35207\include\utility
; File C:\Program Files\Microsoft Visual Studio\2022\Professional\VC\Tools\MSVC\14.44.35207\include\deque
; File C:\Program Files\Microsoft Visual Studio\2022\Professional\VC\Tools\MSVC\14.44.35207\include\utility
; File C:\Program Files\Microsoft Visual Studio\2022\Professional\VC\Tools\MSVC\14.44.35207\include\xmemory
; File C:\Program Files\Microsoft Visual Studio\2022\Professional\VC\Tools\MSVC\14.44.35207\include\utility
; File C:\Program Files\Microsoft Visual Studio\2022\Professional\VC\Tools\MSVC\14.44.35207\include\xmemory
; File C:\Program Files\Microsoft Visual Studio\2022\Professional\VC\Tools\MSVC\14.44.35207\include\xtree
; File C:\Program Files\Microsoft Visual Studio\2022\Professional\VC\Tools\MSVC\14.44.35207\include\xmemory
; File C:\Program Files\Microsoft Visual Studio\2022\Professional\VC\Tools\MSVC\14.44.35207\include\xtree
;	COMDAT ??$_Erase_tree@V?$allocator@U?$_Tree_node@U?$pair@$$CBKV?$queue@USFXHIT_COUNT@@V?$deque@USFXHIT_COUNT@@V?$allocator@USFXHIT_COUNT@@@std@@@std@@@std@@@std@@PAX@std@@@std@@@?$_Tree_val@U?$_Tree_simple_types@U?$pair@$$CBKV?$queue@USFXHIT_COUNT@@V?$deque@USFXHIT_COUNT@@V?$allocator@USFXHIT_COUNT@@@std@@@std@@@std@@@std@@@std@@@std@@QAEXAAV?$allocator@U?$_Tree_node@U?$pair@$$CBKV?$queue@USFXHIT_COUNT@@V?$deque@USFXHIT_COUNT@@V?$allocator@USFXHIT_COUNT@@@std@@@std@@@std@@@std@@PAX@std@@@1@PAU?$_Tree_node@U?$pair@$$CBKV?$queue@USFXHIT_COUNT@@V?$deque@USFXHIT_COUNT@@V?$allocator@USFXHIT_COUNT@@@std@@@std@@@std@@@std@@PAX@1@@Z
_TEXT	SEGMENT
_this$1$ = -4						; size = 4
__Al$ = 8						; size = 4
__Rootnode$ = 12					; size = 4
??$_Erase_tree@V?$allocator@U?$_Tree_node@U?$pair@$$CBKV?$queue@USFXHIT_COUNT@@V?$deque@USFXHIT_COUNT@@V?$allocator@USFXHIT_COUNT@@@std@@@std@@@std@@@std@@PAX@std@@@std@@@?$_Tree_val@U?$_Tree_simple_types@U?$pair@$$CBKV?$queue@USFXHIT_COUNT@@V?$deque@USFXHIT_COUNT@@V?$allocator@USFXHIT_COUNT@@@std@@@std@@@std@@@std@@@std@@@std@@QAEXAAV?$allocator@U?$_Tree_node@U?$pair@$$CBKV?$queue@USFXHIT_COUNT@@V?$deque@USFXHIT_COUNT@@V?$allocator@USFXHIT_COUNT@@@std@@@std@@@std@@@std@@PAX@std@@@1@PAU?$_Tree_node@U?$pair@$$CBKV?$queue@USFXHIT_COUNT@@V?$deque@USFXHIT_COUNT@@V?$allocator@USFXHIT_COUNT@@@std@@@std@@@std@@@std@@PAX@1@@Z PROC ; std::_Tree_val<std::_Tree_simple_types<std::pair<unsigned long const ,std::queue<SFXHIT_COUNT,std::deque<SFXHIT_COUNT,std::allocator<SFXHIT_COUNT> > > > > >::_Erase_tree<std::allocator<std::_Tree_node<std::pair<unsigned long const ,std::queue<SFXHIT_COUNT,std::deque<SFXHIT_COUNT,std::allocator<SFXHIT_COUNT> > > >,void *> > >, COMDAT
; _this$ = ecx

; 767  :     void _Erase_tree(_Alnode& _Al, _Nodeptr _Rootnode) noexcept {

  00000	55		 push	 ebp
  00001	8b ec		 mov	 ebp, esp
  00003	51		 push	 ecx
  00004	56		 push	 esi

; 768  :         while (!_Rootnode->_Isnil) { // free subtrees, then node

  00005	8b 75 0c	 mov	 esi, DWORD PTR __Rootnode$[ebp]
  00008	8b c1		 mov	 eax, ecx
  0000a	89 45 fc	 mov	 DWORD PTR _this$1$[ebp], eax
  0000d	80 7e 0d 00	 cmp	 BYTE PTR [esi+13], 0
  00011	75 43		 jne	 SHORT $LN86@Erase_tree
  00013	53		 push	 ebx
  00014	57		 push	 edi
$LL2@Erase_tree:

; 769  :             _Erase_tree(_Al, _Rootnode->_Right);

  00015	ff 76 08	 push	 DWORD PTR [esi+8]
  00018	8b c8		 mov	 ecx, eax
  0001a	ff 75 08	 push	 DWORD PTR __Al$[ebp]
  0001d	e8 00 00 00 00	 call	 ??$_Erase_tree@V?$allocator@U?$_Tree_node@U?$pair@$$CBKV?$queue@USFXHIT_COUNT@@V?$deque@USFXHIT_COUNT@@V?$allocator@USFXHIT_COUNT@@@std@@@std@@@std@@@std@@PAX@std@@@std@@@?$_Tree_val@U?$_Tree_simple_types@U?$pair@$$CBKV?$queue@USFXHIT_COUNT@@V?$deque@USFXHIT_COUNT@@V?$allocator@USFXHIT_COUNT@@@std@@@std@@@std@@@std@@@std@@@std@@QAEXAAV?$allocator@U?$_Tree_node@U?$pair@$$CBKV?$queue@USFXHIT_COUNT@@V?$deque@USFXHIT_COUNT@@V?$allocator@USFXHIT_COUNT@@@std@@@std@@@std@@@std@@PAX@std@@@1@PAU?$_Tree_node@U?$pair@$$CBKV?$queue@USFXHIT_COUNT@@V?$deque@USFXHIT_COUNT@@V?$allocator@USFXHIT_COUNT@@@std@@@std@@@std@@@std@@PAX@1@@Z ; std::_Tree_val<std::_Tree_simple_types<std::pair<unsigned long const ,std::queue<SFXHIT_COUNT,std::deque<SFXHIT_COUNT,std::allocator<SFXHIT_COUNT> > > > > >::_Erase_tree<std::allocator<std::_Tree_node<std::pair<unsigned long const ,std::queue<SFXHIT_COUNT,std::deque<SFXHIT_COUNT,std::allocator<SFXHIT_COUNT> > > >,void *> > >
; File C:\Program Files\Microsoft Visual Studio\2022\Professional\VC\Tools\MSVC\14.44.35207\include\utility

; 773  :     _Ty _Old_val = static_cast<_Ty&&>(_Val);

  00022	8b de		 mov	 ebx, esi

; 774  :     _Val         = static_cast<_Other&&>(_New_val);

  00024	8b 36		 mov	 esi, DWORD PTR [esi]
; File C:\Program Files\Microsoft Visual Studio\2022\Professional\VC\Tools\MSVC\14.44.35207\include\deque

; 774  :         _Tidy();

  00026	8d 4b 14	 lea	 ecx, DWORD PTR [ebx+20]
  00029	e8 00 00 00 00	 call	 ?_Tidy@?$deque@USFXHIT_COUNT@@V?$allocator@USFXHIT_COUNT@@@std@@@std@@AAEXXZ ; std::deque<SFXHIT_COUNT,std::allocator<SFXHIT_COUNT> >::_Tidy
; File C:\Program Files\Microsoft Visual Studio\2022\Professional\VC\Tools\MSVC\14.44.35207\include\utility

; 773  :     _Ty _Old_val = static_cast<_Ty&&>(_Val);

  0002e	8b 43 14	 mov	 eax, DWORD PTR [ebx+20]
; File C:\Program Files\Microsoft Visual Studio\2022\Professional\VC\Tools\MSVC\14.44.35207\include\xmemory

; 289  :         ::operator delete(_Ptr, _Bytes);

  00031	6a 08		 push	 8
  00033	50		 push	 eax
; File C:\Program Files\Microsoft Visual Studio\2022\Professional\VC\Tools\MSVC\14.44.35207\include\utility

; 774  :     _Val         = static_cast<_Other&&>(_New_val);

  00034	c7 43 14 00 00
	00 00		 mov	 DWORD PTR [ebx+20], 0
; File C:\Program Files\Microsoft Visual Studio\2022\Professional\VC\Tools\MSVC\14.44.35207\include\xmemory

; 289  :         ::operator delete(_Ptr, _Bytes);

  0003b	e8 00 00 00 00	 call	 ??3@YAXPAXI@Z		; operator delete
  00040	6a 28		 push	 40			; 00000028H
  00042	53		 push	 ebx
  00043	e8 00 00 00 00	 call	 ??3@YAXPAXI@Z		; operator delete
; File C:\Program Files\Microsoft Visual Studio\2022\Professional\VC\Tools\MSVC\14.44.35207\include\xtree

; 768  :         while (!_Rootnode->_Isnil) { // free subtrees, then node

  00048	8b 45 fc	 mov	 eax, DWORD PTR _this$1$[ebp]
; File C:\Program Files\Microsoft Visual Studio\2022\Professional\VC\Tools\MSVC\14.44.35207\include\xmemory

; 289  :         ::operator delete(_Ptr, _Bytes);

  0004b	83 c4 10	 add	 esp, 16			; 00000010H
; File C:\Program Files\Microsoft Visual Studio\2022\Professional\VC\Tools\MSVC\14.44.35207\include\xtree

; 768  :         while (!_Rootnode->_Isnil) { // free subtrees, then node

  0004e	80 7e 0d 00	 cmp	 BYTE PTR [esi+13], 0
  00052	74 c1		 je	 SHORT $LL2@Erase_tree
  00054	5f		 pop	 edi
  00055	5b		 pop	 ebx
$LN86@Erase_tree:
  00056	5e		 pop	 esi

; 770  :             _Alnode::value_type::_Freenode(_Al, _STD exchange(_Rootnode, _Rootnode->_Left));
; 771  :         }
; 772  :     }

  00057	8b e5		 mov	 esp, ebp
  00059	5d		 pop	 ebp
  0005a	c2 08 00	 ret	 8
??$_Erase_tree@V?$allocator@U?$_Tree_node@U?$pair@$$CBKV?$queue@USFXHIT_COUNT@@V?$deque@USFXHIT_COUNT@@V?$allocator@USFXHIT_COUNT@@@std@@@std@@@std@@@std@@PAX@std@@@std@@@?$_Tree_val@U?$_Tree_simple_types@U?$pair@$$CBKV?$queue@USFXHIT_COUNT@@V?$deque@USFXHIT_COUNT@@V?$allocator@USFXHIT_COUNT@@@std@@@std@@@std@@@std@@@std@@@std@@QAEXAAV?$allocator@U?$_Tree_node@U?$pair@$$CBKV?$queue@USFXHIT_COUNT@@V?$deque@USFXHIT_COUNT@@V?$allocator@USFXHIT_COUNT@@@std@@@std@@@std@@@std@@PAX@std@@@1@PAU?$_Tree_node@U?$pair@$$CBKV?$queue@USFXHIT_COUNT@@V?$deque@USFXHIT_COUNT@@V?$allocator@USFXHIT_COUNT@@@std@@@std@@@std@@@std@@PAX@1@@Z ENDP ; std::_Tree_val<std::_Tree_simple_types<std::pair<unsigned long const ,std::queue<SFXHIT_COUNT,std::deque<SFXHIT_COUNT,std::allocator<SFXHIT_COUNT> > > > > >::_Erase_tree<std::allocator<std::_Tree_node<std::pair<unsigned long const ,std::queue<SFXHIT_COUNT,std::deque<SFXHIT_COUNT,std::allocator<SFXHIT_COUNT> > > >,void *> > >
_TEXT	ENDS
; Function compile flags: /Ogtp
; File C:\Program Files\Microsoft Visual Studio\2022\Professional\VC\Tools\MSVC\14.44.35207\include\xmemory
;	COMDAT ??1?$_Tidy_guard@V?$deque@USFXHIT_INFO@@V?$allocator@USFXHIT_INFO@@@std@@@std@@@std@@QAE@XZ
_TEXT	SEGMENT
??1?$_Tidy_guard@V?$deque@USFXHIT_INFO@@V?$allocator@USFXHIT_INFO@@@std@@@std@@@std@@QAE@XZ PROC ; std::_Tidy_guard<std::deque<SFXHIT_INFO,std::allocator<SFXHIT_INFO> > >::~_Tidy_guard<std::deque<SFXHIT_INFO,std::allocator<SFXHIT_INFO> > >, COMDAT
; _this$ = ecx

; 87   :         if (_Target) {

  00000	8b 09		 mov	 ecx, DWORD PTR [ecx]
  00002	85 c9		 test	 ecx, ecx
  00004	0f 85 00 00 00
	00		 jne	 ?_Tidy@?$deque@USFXHIT_INFO@@V?$allocator@USFXHIT_INFO@@@std@@@std@@AAEXXZ ; std::deque<SFXHIT_INFO,std::allocator<SFXHIT_INFO> >::_Tidy

; 88   :             _Target->_Tidy();
; 89   :         }
; 90   :     }

  0000a	c3		 ret	 0
??1?$_Tidy_guard@V?$deque@USFXHIT_INFO@@V?$allocator@USFXHIT_INFO@@@std@@@std@@@std@@QAE@XZ ENDP ; std::_Tidy_guard<std::deque<SFXHIT_INFO,std::allocator<SFXHIT_INFO> > >::~_Tidy_guard<std::deque<SFXHIT_INFO,std::allocator<SFXHIT_INFO> > >
_TEXT	ENDS
; Function compile flags: /Ogtp
; File C:\Program Files\Microsoft Visual Studio\2022\Professional\VC\Tools\MSVC\14.44.35207\include\xmemory
;	COMDAT ??1?$_Tidy_guard@V?$deque@USFXHIT_COUNT@@V?$allocator@USFXHIT_COUNT@@@std@@@std@@@std@@QAE@XZ
_TEXT	SEGMENT
??1?$_Tidy_guard@V?$deque@USFXHIT_COUNT@@V?$allocator@USFXHIT_COUNT@@@std@@@std@@@std@@QAE@XZ PROC ; std::_Tidy_guard<std::deque<SFXHIT_COUNT,std::allocator<SFXHIT_COUNT> > >::~_Tidy_guard<std::deque<SFXHIT_COUNT,std::allocator<SFXHIT_COUNT> > >, COMDAT
; _this$ = ecx

; 87   :         if (_Target) {

  00000	8b 09		 mov	 ecx, DWORD PTR [ecx]
  00002	85 c9		 test	 ecx, ecx
  00004	0f 85 00 00 00
	00		 jne	 ?_Tidy@?$deque@USFXHIT_COUNT@@V?$allocator@USFXHIT_COUNT@@@std@@@std@@AAEXXZ ; std::deque<SFXHIT_COUNT,std::allocator<SFXHIT_COUNT> >::_Tidy

; 88   :             _Target->_Tidy();
; 89   :         }
; 90   :     }

  0000a	c3		 ret	 0
??1?$_Tidy_guard@V?$deque@USFXHIT_COUNT@@V?$allocator@USFXHIT_COUNT@@@std@@@std@@@std@@QAE@XZ ENDP ; std::_Tidy_guard<std::deque<SFXHIT_COUNT,std::allocator<SFXHIT_COUNT> > >::~_Tidy_guard<std::deque<SFXHIT_COUNT,std::allocator<SFXHIT_COUNT> > >
_TEXT	ENDS
; Function compile flags: /Ogtp
; File C:\Program Files\Microsoft Visual Studio\2022\Professional\VC\Tools\MSVC\14.44.35207\include\xmemory
;	COMDAT ??1?$_Container_proxy_ptr12@V?$allocator@U_Container_proxy@std@@@std@@@std@@QAE@XZ
_TEXT	SEGMENT
??1?$_Container_proxy_ptr12@V?$allocator@U_Container_proxy@std@@@std@@@std@@QAE@XZ PROC ; std::_Container_proxy_ptr12<std::allocator<std::_Container_proxy> >::~_Container_proxy_ptr12<std::allocator<std::_Container_proxy> >, COMDAT
; _this$ = ecx

; 1496 :         if (_Ptr) {

  00000	8b 01		 mov	 eax, DWORD PTR [ecx]
  00002	85 c0		 test	 eax, eax
  00004	74 0b		 je	 SHORT $LN16@Container_

; 289  :         ::operator delete(_Ptr, _Bytes);

  00006	6a 08		 push	 8
  00008	50		 push	 eax
  00009	e8 00 00 00 00	 call	 ??3@YAXPAXI@Z		; operator delete
  0000e	83 c4 08	 add	 esp, 8
$LN16@Container_:

; 1497 :             _Delete_plain_internal(_Al, _Ptr);
; 1498 :         }
; 1499 :     }

  00011	c3		 ret	 0
??1?$_Container_proxy_ptr12@V?$allocator@U_Container_proxy@std@@@std@@@std@@QAE@XZ ENDP ; std::_Container_proxy_ptr12<std::allocator<std::_Container_proxy> >::~_Container_proxy_ptr12<std::allocator<std::_Container_proxy> >
_TEXT	ENDS
; Function compile flags: /Ogtp
; File C:\Program Files\Microsoft Visual Studio\2022\Professional\VC\Tools\MSVC\14.44.35207\include\deque
; File C:\Program Files\Microsoft Visual Studio\2022\Professional\VC\Tools\MSVC\14.44.35207\include\xmemory
; File C:\Program Files\Microsoft Visual Studio\2022\Professional\VC\Tools\MSVC\14.44.35207\include\deque
; File C:\Program Files\Microsoft Visual Studio\2022\Professional\VC\Tools\MSVC\14.44.35207\include\xmemory
; File C:\Program Files\Microsoft Visual Studio\2022\Professional\VC\Tools\MSVC\14.44.35207\include\deque
; File C:\Program Files\Microsoft Visual Studio\2022\Professional\VC\Tools\MSVC\14.44.35207\include\xmemory
; File C:\Program Files\Microsoft Visual Studio\2022\Professional\VC\Tools\MSVC\14.44.35207\include\deque
;	COMDAT ??$_Emplace_back_internal@ABUSFXHIT_INFO@@@?$deque@USFXHIT_INFO@@V?$allocator@USFXHIT_INFO@@@std@@@std@@AAEXABUSFXHIT_INFO@@@Z
_TEXT	SEGMENT
_<_Vals_0>$ = 8						; size = 4
??$_Emplace_back_internal@ABUSFXHIT_INFO@@@?$deque@USFXHIT_INFO@@V?$allocator@USFXHIT_INFO@@@std@@@std@@AAEXABUSFXHIT_INFO@@@Z PROC ; std::deque<SFXHIT_INFO,std::allocator<SFXHIT_INFO> >::_Emplace_back_internal<SFXHIT_INFO const &>, COMDAT
; _this$ = ecx

; 1143 :     void _Emplace_back_internal(_Tys&&... _Vals) {

  00000	55		 push	 ebp
  00001	8b ec		 mov	 ebp, esp
  00003	53		 push	 ebx
  00004	56		 push	 esi
  00005	8b f1		 mov	 esi, ecx
  00007	57		 push	 edi

; 1144 :         if ((_Myoff() + _Mysize()) % _Block_size == 0 && _Mapsize() <= (_Mysize() + _Block_size) / _Block_size) {

  00008	8b 46 10	 mov	 eax, DWORD PTR [esi+16]
  0000b	40		 inc	 eax
  0000c	39 46 08	 cmp	 DWORD PTR [esi+8], eax
  0000f	77 07		 ja	 SHORT $LN2@Emplace_ba

; 1145 :             _Growmap(1);

  00011	6a 01		 push	 1
  00013	e8 00 00 00 00	 call	 ?_Growmap@?$deque@USFXHIT_INFO@@V?$allocator@USFXHIT_INFO@@@std@@@std@@AAEXI@Z ; std::deque<SFXHIT_INFO,std::allocator<SFXHIT_INFO> >::_Growmap
$LN2@Emplace_ba:

; 1146 :         }
; 1147 :         _Myoff() &= _Mapsize() * _Block_size - 1;

  00018	8b 4e 08	 mov	 ecx, DWORD PTR [esi+8]
  0001b	8d 41 ff	 lea	 eax, DWORD PTR [ecx-1]
  0001e	21 46 0c	 and	 DWORD PTR [esi+12], eax

; 572  :         return static_cast<_Map_difference_type>((_Off / _Block_size) & (_Mapsize - 1));

  00021	8d 41 ff	 lea	 eax, DWORD PTR [ecx-1]

; 1148 :         const auto _Newoff = static_cast<size_type>(_Myoff() + _Mysize());

  00024	8b 7e 10	 mov	 edi, DWORD PTR [esi+16]
  00027	03 7e 0c	 add	 edi, DWORD PTR [esi+12]

; 572  :         return static_cast<_Map_difference_type>((_Off / _Block_size) & (_Mapsize - 1));

  0002a	23 c7		 and	 eax, edi

; 1149 :         const auto _Block  = _Getblock(_Newoff);
; 1150 :         if (_Map()[_Block] == nullptr) {

  0002c	8d 1c 85 00 00
	00 00		 lea	 ebx, DWORD PTR [eax*4]
  00033	8b 46 04	 mov	 eax, DWORD PTR [esi+4]
  00036	83 3c 03 00	 cmp	 DWORD PTR [ebx+eax], 0
  0003a	75 10		 jne	 SHORT $LN3@Emplace_ba
; File C:\Program Files\Microsoft Visual Studio\2022\Professional\VC\Tools\MSVC\14.44.35207\include\xmemory

; 136  :         return ::operator new(_Bytes);

  0003c	6a 24		 push	 36			; 00000024H
  0003e	e8 00 00 00 00	 call	 ??2@YAPAXI@Z		; operator new
; File C:\Program Files\Microsoft Visual Studio\2022\Professional\VC\Tools\MSVC\14.44.35207\include\deque

; 1151 :             _Map()[_Block] = _Getal().allocate(_Block_size);

  00043	8b 4e 04	 mov	 ecx, DWORD PTR [esi+4]
; File C:\Program Files\Microsoft Visual Studio\2022\Professional\VC\Tools\MSVC\14.44.35207\include\xmemory

; 136  :         return ::operator new(_Bytes);

  00046	83 c4 04	 add	 esp, 4
; File C:\Program Files\Microsoft Visual Studio\2022\Professional\VC\Tools\MSVC\14.44.35207\include\deque

; 1151 :             _Map()[_Block] = _Getal().allocate(_Block_size);

  00049	89 04 0b	 mov	 DWORD PTR [ebx+ecx], eax
$LN3@Emplace_ba:

; 572  :         return static_cast<_Map_difference_type>((_Off / _Block_size) & (_Mapsize - 1));

  0004c	8b 4e 08	 mov	 ecx, DWORD PTR [esi+8]

; 590  :         return _STD _Unfancy(_Map[_Block] + _Block_off);

  0004f	8b 46 04	 mov	 eax, DWORD PTR [esi+4]

; 572  :         return static_cast<_Map_difference_type>((_Off / _Block_size) & (_Mapsize - 1));

  00052	49		 dec	 ecx
  00053	23 cf		 and	 ecx, edi

; 1156 :         ++_Mysize();

  00055	5f		 pop	 edi
; File C:\Program Files\Microsoft Visual Studio\2022\Professional\VC\Tools\MSVC\14.44.35207\include\xmemory

; 732  :         ::new (const_cast<void*>(static_cast<const volatile void*>(_Ptr))) _Objty(_STD forward<_Types>(_Args)...);

  00056	8b 0c 88	 mov	 ecx, DWORD PTR [eax+ecx*4]
  00059	8b 45 08	 mov	 eax, DWORD PTR _<_Vals_0>$[ebp]
  0005c	0f 10 00	 movups	 xmm0, XMMWORD PTR [eax]
  0005f	0f 11 01	 movups	 XMMWORD PTR [ecx], xmm0
  00062	0f 10 40 10	 movups	 xmm0, XMMWORD PTR [eax+16]
  00066	0f 11 41 10	 movups	 XMMWORD PTR [ecx+16], xmm0
  0006a	8b 40 20	 mov	 eax, DWORD PTR [eax+32]
  0006d	89 41 20	 mov	 DWORD PTR [ecx+32], eax
; File C:\Program Files\Microsoft Visual Studio\2022\Professional\VC\Tools\MSVC\14.44.35207\include\deque

; 1156 :         ++_Mysize();

  00070	ff 46 10	 inc	 DWORD PTR [esi+16]
  00073	5e		 pop	 esi
  00074	5b		 pop	 ebx

; 1157 :     }

  00075	5d		 pop	 ebp
  00076	c2 04 00	 ret	 4
??$_Emplace_back_internal@ABUSFXHIT_INFO@@@?$deque@USFXHIT_INFO@@V?$allocator@USFXHIT_INFO@@@std@@@std@@AAEXABUSFXHIT_INFO@@@Z ENDP ; std::deque<SFXHIT_INFO,std::allocator<SFXHIT_INFO> >::_Emplace_back_internal<SFXHIT_INFO const &>
_TEXT	ENDS
; Function compile flags: /Ogtp
; File C:\Program Files\Microsoft Visual Studio\2022\Professional\VC\Tools\MSVC\14.44.35207\include\deque
; File C:\Program Files\Microsoft Visual Studio\2022\Professional\VC\Tools\MSVC\14.44.35207\include\xmemory
; File C:\Program Files\Microsoft Visual Studio\2022\Professional\VC\Tools\MSVC\14.44.35207\include\deque
; File C:\Program Files\Microsoft Visual Studio\2022\Professional\VC\Tools\MSVC\14.44.35207\include\xmemory
; File C:\Program Files\Microsoft Visual Studio\2022\Professional\VC\Tools\MSVC\14.44.35207\include\deque
;	COMDAT ??$_Emplace_back_internal@ABUSFXHIT_COUNT@@@?$deque@USFXHIT_COUNT@@V?$allocator@USFXHIT_COUNT@@@std@@@std@@AAEXABUSFXHIT_COUNT@@@Z
_TEXT	SEGMENT
__Newoff$1$ = -4					; size = 4
_<_Vals_0>$ = 8						; size = 4
??$_Emplace_back_internal@ABUSFXHIT_COUNT@@@?$deque@USFXHIT_COUNT@@V?$allocator@USFXHIT_COUNT@@@std@@@std@@AAEXABUSFXHIT_COUNT@@@Z PROC ; std::deque<SFXHIT_COUNT,std::allocator<SFXHIT_COUNT> >::_Emplace_back_internal<SFXHIT_COUNT const &>, COMDAT
; _this$ = ecx

; 1143 :     void _Emplace_back_internal(_Tys&&... _Vals) {

  00000	55		 push	 ebp
  00001	8b ec		 mov	 ebp, esp
  00003	51		 push	 ecx
  00004	53		 push	 ebx
  00005	8b d9		 mov	 ebx, ecx
  00007	56		 push	 esi
  00008	57		 push	 edi

; 1144 :         if ((_Myoff() + _Mysize()) % _Block_size == 0 && _Mapsize() <= (_Mysize() + _Block_size) / _Block_size) {

  00009	8b 43 0c	 mov	 eax, DWORD PTR [ebx+12]
  0000c	8b 4b 10	 mov	 ecx, DWORD PTR [ebx+16]
  0000f	03 c1		 add	 eax, ecx
  00011	a8 01		 test	 al, 1
  00013	75 13		 jne	 SHORT $LN2@Emplace_ba
  00015	8d 41 02	 lea	 eax, DWORD PTR [ecx+2]
  00018	d1 e8		 shr	 eax, 1
  0001a	39 43 08	 cmp	 DWORD PTR [ebx+8], eax
  0001d	77 09		 ja	 SHORT $LN2@Emplace_ba

; 1145 :             _Growmap(1);

  0001f	6a 01		 push	 1
  00021	8b cb		 mov	 ecx, ebx
  00023	e8 00 00 00 00	 call	 ?_Growmap@?$deque@USFXHIT_COUNT@@V?$allocator@USFXHIT_COUNT@@@std@@@std@@AAEXI@Z ; std::deque<SFXHIT_COUNT,std::allocator<SFXHIT_COUNT> >::_Growmap
$LN2@Emplace_ba:

; 1146 :         }
; 1147 :         _Myoff() &= _Mapsize() * _Block_size - 1;

  00028	8b 4b 08	 mov	 ecx, DWORD PTR [ebx+8]
  0002b	8d 04 4d ff ff
	ff ff		 lea	 eax, DWORD PTR [ecx*2-1]
  00032	21 43 0c	 and	 DWORD PTR [ebx+12], eax

; 572  :         return static_cast<_Map_difference_type>((_Off / _Block_size) & (_Mapsize - 1));

  00035	8d 41 ff	 lea	 eax, DWORD PTR [ecx-1]

; 1148 :         const auto _Newoff = static_cast<size_type>(_Myoff() + _Mysize());

  00038	8b 53 10	 mov	 edx, DWORD PTR [ebx+16]
  0003b	03 53 0c	 add	 edx, DWORD PTR [ebx+12]

; 572  :         return static_cast<_Map_difference_type>((_Off / _Block_size) & (_Mapsize - 1));

  0003e	8b f2		 mov	 esi, edx

; 1148 :         const auto _Newoff = static_cast<size_type>(_Myoff() + _Mysize());

  00040	89 55 fc	 mov	 DWORD PTR __Newoff$1$[ebp], edx

; 572  :         return static_cast<_Map_difference_type>((_Off / _Block_size) & (_Mapsize - 1));

  00043	d1 ee		 shr	 esi, 1
  00045	23 c6		 and	 eax, esi

; 1149 :         const auto _Block  = _Getblock(_Newoff);
; 1150 :         if (_Map()[_Block] == nullptr) {

  00047	8d 3c 85 00 00
	00 00		 lea	 edi, DWORD PTR [eax*4]
  0004e	8b 43 04	 mov	 eax, DWORD PTR [ebx+4]
  00051	83 3c 07 00	 cmp	 DWORD PTR [edi+eax], 0
  00055	75 13		 jne	 SHORT $LN3@Emplace_ba
; File C:\Program Files\Microsoft Visual Studio\2022\Professional\VC\Tools\MSVC\14.44.35207\include\xmemory

; 136  :         return ::operator new(_Bytes);

  00057	6a 10		 push	 16			; 00000010H
  00059	e8 00 00 00 00	 call	 ??2@YAPAXI@Z		; operator new
; File C:\Program Files\Microsoft Visual Studio\2022\Professional\VC\Tools\MSVC\14.44.35207\include\deque

; 1151 :             _Map()[_Block] = _Getal().allocate(_Block_size);

  0005e	8b 4b 04	 mov	 ecx, DWORD PTR [ebx+4]
; File C:\Program Files\Microsoft Visual Studio\2022\Professional\VC\Tools\MSVC\14.44.35207\include\xmemory

; 136  :         return ::operator new(_Bytes);

  00061	83 c4 04	 add	 esp, 4
  00064	8b 55 fc	 mov	 edx, DWORD PTR __Newoff$1$[ebp]
; File C:\Program Files\Microsoft Visual Studio\2022\Professional\VC\Tools\MSVC\14.44.35207\include\deque

; 1151 :             _Map()[_Block] = _Getal().allocate(_Block_size);

  00067	89 04 0f	 mov	 DWORD PTR [edi+ecx], eax
$LN3@Emplace_ba:

; 572  :         return static_cast<_Map_difference_type>((_Off / _Block_size) & (_Mapsize - 1));

  0006a	8b 7b 08	 mov	 edi, DWORD PTR [ebx+8]

; 589  :         const auto _Block_off = static_cast<difference_type>(_Off % _Block_size);

  0006d	83 e2 01	 and	 edx, 1

; 1152 :         }
; 1153 : 
; 1154 :         _Alty_traits::construct(_Getal(), _Get_data()._Address_subscript(_Newoff), _STD forward<_Tys>(_Vals)...);

  00070	8b 45 08	 mov	 eax, DWORD PTR _<_Vals_0>$[ebp]

; 572  :         return static_cast<_Map_difference_type>((_Off / _Block_size) & (_Mapsize - 1));

  00073	4f		 dec	 edi
  00074	23 fe		 and	 edi, esi

; 589  :         const auto _Block_off = static_cast<difference_type>(_Off % _Block_size);

  00076	89 55 fc	 mov	 DWORD PTR __Newoff$1$[ebp], edx

; 1152 :         }
; 1153 : 
; 1154 :         _Alty_traits::construct(_Getal(), _Get_data()._Address_subscript(_Newoff), _STD forward<_Tys>(_Vals)...);

  00079	8b 73 04	 mov	 esi, DWORD PTR [ebx+4]
  0007c	8b 08		 mov	 ecx, DWORD PTR [eax]
  0007e	8b 50 04	 mov	 edx, DWORD PTR [eax+4]
  00081	8b 04 be	 mov	 eax, DWORD PTR [esi+edi*4]
  00084	8b 75 fc	 mov	 esi, DWORD PTR __Newoff$1$[ebp]

; 1155 : 
; 1156 :         ++_Mysize();

  00087	5f		 pop	 edi
  00088	89 0c f0	 mov	 DWORD PTR [eax+esi*8], ecx
  0008b	89 54 f0 04	 mov	 DWORD PTR [eax+esi*8+4], edx
  0008f	ff 43 10	 inc	 DWORD PTR [ebx+16]
  00092	5e		 pop	 esi
  00093	5b		 pop	 ebx

; 1157 :     }

  00094	8b e5		 mov	 esp, ebp
  00096	5d		 pop	 ebp
  00097	c2 04 00	 ret	 4
??$_Emplace_back_internal@ABUSFXHIT_COUNT@@@?$deque@USFXHIT_COUNT@@V?$allocator@USFXHIT_COUNT@@@std@@@std@@AAEXABUSFXHIT_COUNT@@@Z ENDP ; std::deque<SFXHIT_COUNT,std::allocator<SFXHIT_COUNT> >::_Emplace_back_internal<SFXHIT_COUNT const &>
_TEXT	ENDS
; Function compile flags: /Ogtp
; File C:\Program Files\Microsoft Visual Studio\2022\Professional\VC\Tools\MSVC\14.44.35207\include\xmemory
;	COMDAT ??1?$_Tree_temp_node_alloc@V?$allocator@U?$_Tree_node@U?$pair@$$CBKV?$queue@USFXHIT_INFO@@V?$deque@USFXHIT_INFO@@V?$allocator@USFXHIT_INFO@@@std@@@std@@@std@@@std@@PAX@std@@@std@@@std@@QAE@XZ
_TEXT	SEGMENT
??1?$_Tree_temp_node_alloc@V?$allocator@U?$_Tree_node@U?$pair@$$CBKV?$queue@USFXHIT_INFO@@V?$deque@USFXHIT_INFO@@V?$allocator@USFXHIT_INFO@@@std@@@std@@@std@@@std@@PAX@std@@@std@@@std@@QAE@XZ PROC ; std::_Tree_temp_node_alloc<std::allocator<std::_Tree_node<std::pair<unsigned long const ,std::queue<SFXHIT_INFO,std::deque<SFXHIT_INFO,std::allocator<SFXHIT_INFO> > > >,void *> > >::~_Tree_temp_node_alloc<std::allocator<std::_Tree_node<std::pair<unsigned long const ,std::queue<SFXHIT_INFO,std::deque<SFXHIT_INFO,std::allocator<SFXHIT_INFO> > > >,void *> > >, COMDAT
; _this$ = ecx

; 1172 :         if (_Ptr) {

  00000	8b 41 04	 mov	 eax, DWORD PTR [ecx+4]
  00003	85 c0		 test	 eax, eax
  00005	74 0b		 je	 SHORT $LN13@Tree_temp_

; 289  :         ::operator delete(_Ptr, _Bytes);

  00007	6a 28		 push	 40			; 00000028H
  00009	50		 push	 eax
  0000a	e8 00 00 00 00	 call	 ??3@YAXPAXI@Z		; operator delete
  0000f	83 c4 08	 add	 esp, 8
$LN13@Tree_temp_:
  00012	c3		 ret	 0
??1?$_Tree_temp_node_alloc@V?$allocator@U?$_Tree_node@U?$pair@$$CBKV?$queue@USFXHIT_INFO@@V?$deque@USFXHIT_INFO@@V?$allocator@USFXHIT_INFO@@@std@@@std@@@std@@@std@@PAX@std@@@std@@@std@@QAE@XZ ENDP ; std::_Tree_temp_node_alloc<std::allocator<std::_Tree_node<std::pair<unsigned long const ,std::queue<SFXHIT_INFO,std::deque<SFXHIT_INFO,std::allocator<SFXHIT_INFO> > > >,void *> > >::~_Tree_temp_node_alloc<std::allocator<std::_Tree_node<std::pair<unsigned long const ,std::queue<SFXHIT_INFO,std::deque<SFXHIT_INFO,std::allocator<SFXHIT_INFO> > > >,void *> > >
_TEXT	ENDS
; Function compile flags: /Ogtp
; File C:\Program Files\Microsoft Visual Studio\2022\Professional\VC\Tools\MSVC\14.44.35207\include\xmemory
;	COMDAT ??1?$_Alloc_construct_ptr@V?$allocator@U?$_Tree_node@U?$pair@$$CBKV?$queue@USFXHIT_INFO@@V?$deque@USFXHIT_INFO@@V?$allocator@USFXHIT_INFO@@@std@@@std@@@std@@@std@@PAX@std@@@std@@@std@@QAE@XZ
_TEXT	SEGMENT
??1?$_Alloc_construct_ptr@V?$allocator@U?$_Tree_node@U?$pair@$$CBKV?$queue@USFXHIT_INFO@@V?$deque@USFXHIT_INFO@@V?$allocator@USFXHIT_INFO@@@std@@@std@@@std@@@std@@PAX@std@@@std@@@std@@QAE@XZ PROC ; std::_Alloc_construct_ptr<std::allocator<std::_Tree_node<std::pair<unsigned long const ,std::queue<SFXHIT_INFO,std::deque<SFXHIT_INFO,std::allocator<SFXHIT_INFO> > > >,void *> > >::~_Alloc_construct_ptr<std::allocator<std::_Tree_node<std::pair<unsigned long const ,std::queue<SFXHIT_INFO,std::deque<SFXHIT_INFO,std::allocator<SFXHIT_INFO> > > >,void *> > >, COMDAT
; _this$ = ecx

; 1172 :         if (_Ptr) {

  00000	8b 41 04	 mov	 eax, DWORD PTR [ecx+4]
  00003	85 c0		 test	 eax, eax
  00005	74 0b		 je	 SHORT $LN10@Alloc_cons

; 289  :         ::operator delete(_Ptr, _Bytes);

  00007	6a 28		 push	 40			; 00000028H
  00009	50		 push	 eax
  0000a	e8 00 00 00 00	 call	 ??3@YAXPAXI@Z		; operator delete
  0000f	83 c4 08	 add	 esp, 8
$LN10@Alloc_cons:

; 1173 :             _Al.deallocate(_Ptr, 1);
; 1174 :         }
; 1175 :     }

  00012	c3		 ret	 0
??1?$_Alloc_construct_ptr@V?$allocator@U?$_Tree_node@U?$pair@$$CBKV?$queue@USFXHIT_INFO@@V?$deque@USFXHIT_INFO@@V?$allocator@USFXHIT_INFO@@@std@@@std@@@std@@@std@@PAX@std@@@std@@@std@@QAE@XZ ENDP ; std::_Alloc_construct_ptr<std::allocator<std::_Tree_node<std::pair<unsigned long const ,std::queue<SFXHIT_INFO,std::deque<SFXHIT_INFO,std::allocator<SFXHIT_INFO> > > >,void *> > >::~_Alloc_construct_ptr<std::allocator<std::_Tree_node<std::pair<unsigned long const ,std::queue<SFXHIT_INFO,std::deque<SFXHIT_INFO,std::allocator<SFXHIT_INFO> > > >,void *> > >
_TEXT	ENDS
; Function compile flags: /Ogtp
; File C:\Program Files\Microsoft Visual Studio\2022\Professional\VC\Tools\MSVC\14.44.35207\include\xtree
; File C:\Program Files\Microsoft Visual Studio\2022\Professional\VC\Tools\MSVC\14.44.35207\include\type_traits
; File C:\Program Files\Microsoft Visual Studio\2022\Professional\VC\Tools\MSVC\14.44.35207\include\xtree
; File C:\Program Files\Microsoft Visual Studio\2022\Professional\VC\Tools\MSVC\14.44.35207\include\type_traits
; File C:\Program Files\Microsoft Visual Studio\2022\Professional\VC\Tools\MSVC\14.44.35207\include\xtree
;	COMDAT ??$_Find_lower_bound@K@?$_Tree@V?$_Tmap_traits@KV?$queue@USFXHIT_INFO@@V?$deque@USFXHIT_INFO@@V?$allocator@USFXHIT_INFO@@@std@@@std@@@std@@U?$less@K@2@V?$allocator@U?$pair@$$CBKV?$queue@USFXHIT_INFO@@V?$deque@USFXHIT_INFO@@V?$allocator@USFXHIT_INFO@@@std@@@std@@@std@@@std@@@2@$0A@@std@@@std@@IBE?AU?$_Tree_find_result@PAU?$_Tree_node@U?$pair@$$CBKV?$queue@USFXHIT_INFO@@V?$deque@USFXHIT_INFO@@V?$allocator@USFXHIT_INFO@@@std@@@std@@@std@@@std@@PAX@std@@@1@ABK@Z
_TEXT	SEGMENT
___$ReturnUdt$ = 8					; size = 4
__Keyval$ = 12						; size = 4
??$_Find_lower_bound@K@?$_Tree@V?$_Tmap_traits@KV?$queue@USFXHIT_INFO@@V?$deque@USFXHIT_INFO@@V?$allocator@USFXHIT_INFO@@@std@@@std@@@std@@U?$less@K@2@V?$allocator@U?$pair@$$CBKV?$queue@USFXHIT_INFO@@V?$deque@USFXHIT_INFO@@V?$allocator@USFXHIT_INFO@@@std@@@std@@@std@@@std@@@2@$0A@@std@@@std@@IBE?AU?$_Tree_find_result@PAU?$_Tree_node@U?$pair@$$CBKV?$queue@USFXHIT_INFO@@V?$deque@USFXHIT_INFO@@V?$allocator@USFXHIT_INFO@@@std@@@std@@@std@@@std@@PAX@std@@@1@ABK@Z PROC ; std::_Tree<std::_Tmap_traits<unsigned long,std::queue<SFXHIT_INFO,std::deque<SFXHIT_INFO,std::allocator<SFXHIT_INFO> > >,std::less<unsigned long>,std::allocator<std::pair<unsigned long const ,std::queue<SFXHIT_INFO,std::deque<SFXHIT_INFO,std::allocator<SFXHIT_INFO> > > > >,0> >::_Find_lower_bound<unsigned long>, COMDAT
; _this$ = ecx

; 1628 :     _Tree_find_result<_Nodeptr> _Find_lower_bound(const _Keyty& _Keyval) const {

  00000	55		 push	 ebp
  00001	8b ec		 mov	 ebp, esp

; 1629 :         const auto _Scary = _Get_scary();
; 1630 :         _Tree_find_result<_Nodeptr> _Result{{_Scary->_Myhead->_Parent, _Tree_child::_Right}, _Scary->_Myhead};

  00003	8b 09		 mov	 ecx, DWORD PTR [ecx]
  00005	8b 55 08	 mov	 edx, DWORD PTR ___$ReturnUdt$[ebp]
  00008	8b 41 04	 mov	 eax, DWORD PTR [ecx+4]
  0000b	89 02		 mov	 DWORD PTR [edx], eax
  0000d	c7 42 04 00 00
	00 00		 mov	 DWORD PTR [edx+4], 0
  00014	89 4a 08	 mov	 DWORD PTR [edx+8], ecx

; 1631 :         _Nodeptr _Trynode = _Result._Location._Parent;
; 1632 :         while (!_Trynode->_Isnil) {

  00017	80 78 0d 00	 cmp	 BYTE PTR [eax+13], 0
  0001b	75 28		 jne	 SHORT $LN13@Find_lower
; File C:\Program Files\Microsoft Visual Studio\2022\Professional\VC\Tools\MSVC\14.44.35207\include\type_traits

; 2380 :         return _Left < _Right;

  0001d	8b 4d 0c	 mov	 ecx, DWORD PTR __Keyval$[ebp]
  00020	56		 push	 esi
  00021	8b 31		 mov	 esi, DWORD PTR [ecx]
$LL2@Find_lower:
; File C:\Program Files\Microsoft Visual Studio\2022\Professional\VC\Tools\MSVC\14.44.35207\include\xtree

; 1633 :             _Result._Location._Parent = _Trynode;

  00023	89 02		 mov	 DWORD PTR [edx], eax
; File C:\Program Files\Microsoft Visual Studio\2022\Professional\VC\Tools\MSVC\14.44.35207\include\type_traits

; 2380 :         return _Left < _Right;

  00025	39 70 10	 cmp	 DWORD PTR [eax+16], esi
; File C:\Program Files\Microsoft Visual Studio\2022\Professional\VC\Tools\MSVC\14.44.35207\include\xtree

; 1634 :             if (_DEBUG_LT_PRED(_Getcomp(), _Traits::_Kfn(_Trynode->_Myval), _Keyval)) {

  00028	73 07		 jae	 SHORT $LN4@Find_lower

; 1635 :                 _Result._Location._Child = _Tree_child::_Right;
; 1636 :                 _Trynode                 = _Trynode->_Right;

  0002a	8b 40 08	 mov	 eax, DWORD PTR [eax+8]
  0002d	33 c9		 xor	 ecx, ecx

; 1637 :             } else {

  0002f	eb 0a		 jmp	 SHORT $LN5@Find_lower
$LN4@Find_lower:

; 1638 :                 _Result._Location._Child = _Tree_child::_Left;
; 1639 :                 _Result._Bound           = _Trynode;

  00031	89 42 08	 mov	 DWORD PTR [edx+8], eax

; 1640 :                 _Trynode                 = _Trynode->_Left;

  00034	b9 01 00 00 00	 mov	 ecx, 1
  00039	8b 00		 mov	 eax, DWORD PTR [eax]
$LN5@Find_lower:

; 1631 :         _Nodeptr _Trynode = _Result._Location._Parent;
; 1632 :         while (!_Trynode->_Isnil) {

  0003b	89 4a 04	 mov	 DWORD PTR [edx+4], ecx
  0003e	80 78 0d 00	 cmp	 BYTE PTR [eax+13], 0
  00042	74 df		 je	 SHORT $LL2@Find_lower
  00044	5e		 pop	 esi
$LN13@Find_lower:

; 1641 :             }
; 1642 :         }
; 1643 : 
; 1644 :         return _Result;
; 1645 :     }

  00045	8b c2		 mov	 eax, edx
  00047	5d		 pop	 ebp
  00048	c2 08 00	 ret	 8
??$_Find_lower_bound@K@?$_Tree@V?$_Tmap_traits@KV?$queue@USFXHIT_INFO@@V?$deque@USFXHIT_INFO@@V?$allocator@USFXHIT_INFO@@@std@@@std@@@std@@U?$less@K@2@V?$allocator@U?$pair@$$CBKV?$queue@USFXHIT_INFO@@V?$deque@USFXHIT_INFO@@V?$allocator@USFXHIT_INFO@@@std@@@std@@@std@@@std@@@2@$0A@@std@@@std@@IBE?AU?$_Tree_find_result@PAU?$_Tree_node@U?$pair@$$CBKV?$queue@USFXHIT_INFO@@V?$deque@USFXHIT_INFO@@V?$allocator@USFXHIT_INFO@@@std@@@std@@@std@@@std@@PAX@std@@@1@ABK@Z ENDP ; std::_Tree<std::_Tmap_traits<unsigned long,std::queue<SFXHIT_INFO,std::deque<SFXHIT_INFO,std::allocator<SFXHIT_INFO> > >,std::less<unsigned long>,std::allocator<std::pair<unsigned long const ,std::queue<SFXHIT_INFO,std::deque<SFXHIT_INFO,std::allocator<SFXHIT_INFO> > > > >,0> >::_Find_lower_bound<unsigned long>
_TEXT	ENDS
; Function compile flags: /Ogtp
; File C:\Program Files\Microsoft Visual Studio\2022\Professional\VC\Tools\MSVC\14.44.35207\include\xmemory
;	COMDAT ??1?$_Tree_temp_node_alloc@V?$allocator@U?$_Tree_node@U?$pair@$$CBKV?$queue@USFXHIT_COUNT@@V?$deque@USFXHIT_COUNT@@V?$allocator@USFXHIT_COUNT@@@std@@@std@@@std@@@std@@PAX@std@@@std@@@std@@QAE@XZ
_TEXT	SEGMENT
??1?$_Tree_temp_node_alloc@V?$allocator@U?$_Tree_node@U?$pair@$$CBKV?$queue@USFXHIT_COUNT@@V?$deque@USFXHIT_COUNT@@V?$allocator@USFXHIT_COUNT@@@std@@@std@@@std@@@std@@PAX@std@@@std@@@std@@QAE@XZ PROC ; std::_Tree_temp_node_alloc<std::allocator<std::_Tree_node<std::pair<unsigned long const ,std::queue<SFXHIT_COUNT,std::deque<SFXHIT_COUNT,std::allocator<SFXHIT_COUNT> > > >,void *> > >::~_Tree_temp_node_alloc<std::allocator<std::_Tree_node<std::pair<unsigned long const ,std::queue<SFXHIT_COUNT,std::deque<SFXHIT_COUNT,std::allocator<SFXHIT_COUNT> > > >,void *> > >, COMDAT
; _this$ = ecx

; 1172 :         if (_Ptr) {

  00000	8b 41 04	 mov	 eax, DWORD PTR [ecx+4]
  00003	85 c0		 test	 eax, eax
  00005	74 0b		 je	 SHORT $LN13@Tree_temp_

; 289  :         ::operator delete(_Ptr, _Bytes);

  00007	6a 28		 push	 40			; 00000028H
  00009	50		 push	 eax
  0000a	e8 00 00 00 00	 call	 ??3@YAXPAXI@Z		; operator delete
  0000f	83 c4 08	 add	 esp, 8
$LN13@Tree_temp_:
  00012	c3		 ret	 0
??1?$_Tree_temp_node_alloc@V?$allocator@U?$_Tree_node@U?$pair@$$CBKV?$queue@USFXHIT_COUNT@@V?$deque@USFXHIT_COUNT@@V?$allocator@USFXHIT_COUNT@@@std@@@std@@@std@@@std@@PAX@std@@@std@@@std@@QAE@XZ ENDP ; std::_Tree_temp_node_alloc<std::allocator<std::_Tree_node<std::pair<unsigned long const ,std::queue<SFXHIT_COUNT,std::deque<SFXHIT_COUNT,std::allocator<SFXHIT_COUNT> > > >,void *> > >::~_Tree_temp_node_alloc<std::allocator<std::_Tree_node<std::pair<unsigned long const ,std::queue<SFXHIT_COUNT,std::deque<SFXHIT_COUNT,std::allocator<SFXHIT_COUNT> > > >,void *> > >
_TEXT	ENDS
; Function compile flags: /Ogtp
; File C:\Program Files\Microsoft Visual Studio\2022\Professional\VC\Tools\MSVC\14.44.35207\include\xmemory
;	COMDAT ??1?$_Alloc_construct_ptr@V?$allocator@U?$_Tree_node@U?$pair@$$CBKV?$queue@USFXHIT_COUNT@@V?$deque@USFXHIT_COUNT@@V?$allocator@USFXHIT_COUNT@@@std@@@std@@@std@@@std@@PAX@std@@@std@@@std@@QAE@XZ
_TEXT	SEGMENT
??1?$_Alloc_construct_ptr@V?$allocator@U?$_Tree_node@U?$pair@$$CBKV?$queue@USFXHIT_COUNT@@V?$deque@USFXHIT_COUNT@@V?$allocator@USFXHIT_COUNT@@@std@@@std@@@std@@@std@@PAX@std@@@std@@@std@@QAE@XZ PROC ; std::_Alloc_construct_ptr<std::allocator<std::_Tree_node<std::pair<unsigned long const ,std::queue<SFXHIT_COUNT,std::deque<SFXHIT_COUNT,std::allocator<SFXHIT_COUNT> > > >,void *> > >::~_Alloc_construct_ptr<std::allocator<std::_Tree_node<std::pair<unsigned long const ,std::queue<SFXHIT_COUNT,std::deque<SFXHIT_COUNT,std::allocator<SFXHIT_COUNT> > > >,void *> > >, COMDAT
; _this$ = ecx

; 1172 :         if (_Ptr) {

  00000	8b 41 04	 mov	 eax, DWORD PTR [ecx+4]
  00003	85 c0		 test	 eax, eax
  00005	74 0b		 je	 SHORT $LN10@Alloc_cons

; 289  :         ::operator delete(_Ptr, _Bytes);

  00007	6a 28		 push	 40			; 00000028H
  00009	50		 push	 eax
  0000a	e8 00 00 00 00	 call	 ??3@YAXPAXI@Z		; operator delete
  0000f	83 c4 08	 add	 esp, 8
$LN10@Alloc_cons:

; 1173 :             _Al.deallocate(_Ptr, 1);
; 1174 :         }
; 1175 :     }

  00012	c3		 ret	 0
??1?$_Alloc_construct_ptr@V?$allocator@U?$_Tree_node@U?$pair@$$CBKV?$queue@USFXHIT_COUNT@@V?$deque@USFXHIT_COUNT@@V?$allocator@USFXHIT_COUNT@@@std@@@std@@@std@@@std@@PAX@std@@@std@@@std@@QAE@XZ ENDP ; std::_Alloc_construct_ptr<std::allocator<std::_Tree_node<std::pair<unsigned long const ,std::queue<SFXHIT_COUNT,std::deque<SFXHIT_COUNT,std::allocator<SFXHIT_COUNT> > > >,void *> > >::~_Alloc_construct_ptr<std::allocator<std::_Tree_node<std::pair<unsigned long const ,std::queue<SFXHIT_COUNT,std::deque<SFXHIT_COUNT,std::allocator<SFXHIT_COUNT> > > >,void *> > >
_TEXT	ENDS
; Function compile flags: /Ogtp
; File C:\Program Files\Microsoft Visual Studio\2022\Professional\VC\Tools\MSVC\14.44.35207\include\xtree
; File C:\Program Files\Microsoft Visual Studio\2022\Professional\VC\Tools\MSVC\14.44.35207\include\type_traits
; File C:\Program Files\Microsoft Visual Studio\2022\Professional\VC\Tools\MSVC\14.44.35207\include\xtree
; File C:\Program Files\Microsoft Visual Studio\2022\Professional\VC\Tools\MSVC\14.44.35207\include\type_traits
; File C:\Program Files\Microsoft Visual Studio\2022\Professional\VC\Tools\MSVC\14.44.35207\include\xtree
;	COMDAT ??$_Find_lower_bound@K@?$_Tree@V?$_Tmap_traits@KV?$queue@USFXHIT_COUNT@@V?$deque@USFXHIT_COUNT@@V?$allocator@USFXHIT_COUNT@@@std@@@std@@@std@@U?$less@K@2@V?$allocator@U?$pair@$$CBKV?$queue@USFXHIT_COUNT@@V?$deque@USFXHIT_COUNT@@V?$allocator@USFXHIT_COUNT@@@std@@@std@@@std@@@std@@@2@$0A@@std@@@std@@IBE?AU?$_Tree_find_result@PAU?$_Tree_node@U?$pair@$$CBKV?$queue@USFXHIT_COUNT@@V?$deque@USFXHIT_COUNT@@V?$allocator@USFXHIT_COUNT@@@std@@@std@@@std@@@std@@PAX@std@@@1@ABK@Z
_TEXT	SEGMENT
___$ReturnUdt$ = 8					; size = 4
__Keyval$ = 12						; size = 4
??$_Find_lower_bound@K@?$_Tree@V?$_Tmap_traits@KV?$queue@USFXHIT_COUNT@@V?$deque@USFXHIT_COUNT@@V?$allocator@USFXHIT_COUNT@@@std@@@std@@@std@@U?$less@K@2@V?$allocator@U?$pair@$$CBKV?$queue@USFXHIT_COUNT@@V?$deque@USFXHIT_COUNT@@V?$allocator@USFXHIT_COUNT@@@std@@@std@@@std@@@std@@@2@$0A@@std@@@std@@IBE?AU?$_Tree_find_result@PAU?$_Tree_node@U?$pair@$$CBKV?$queue@USFXHIT_COUNT@@V?$deque@USFXHIT_COUNT@@V?$allocator@USFXHIT_COUNT@@@std@@@std@@@std@@@std@@PAX@std@@@1@ABK@Z PROC ; std::_Tree<std::_Tmap_traits<unsigned long,std::queue<SFXHIT_COUNT,std::deque<SFXHIT_COUNT,std::allocator<SFXHIT_COUNT> > >,std::less<unsigned long>,std::allocator<std::pair<unsigned long const ,std::queue<SFXHIT_COUNT,std::deque<SFXHIT_COUNT,std::allocator<SFXHIT_COUNT> > > > >,0> >::_Find_lower_bound<unsigned long>, COMDAT
; _this$ = ecx

; 1628 :     _Tree_find_result<_Nodeptr> _Find_lower_bound(const _Keyty& _Keyval) const {

  00000	55		 push	 ebp
  00001	8b ec		 mov	 ebp, esp

; 1629 :         const auto _Scary = _Get_scary();
; 1630 :         _Tree_find_result<_Nodeptr> _Result{{_Scary->_Myhead->_Parent, _Tree_child::_Right}, _Scary->_Myhead};

  00003	8b 09		 mov	 ecx, DWORD PTR [ecx]
  00005	8b 55 08	 mov	 edx, DWORD PTR ___$ReturnUdt$[ebp]
  00008	8b 41 04	 mov	 eax, DWORD PTR [ecx+4]
  0000b	89 02		 mov	 DWORD PTR [edx], eax
  0000d	c7 42 04 00 00
	00 00		 mov	 DWORD PTR [edx+4], 0
  00014	89 4a 08	 mov	 DWORD PTR [edx+8], ecx

; 1631 :         _Nodeptr _Trynode = _Result._Location._Parent;
; 1632 :         while (!_Trynode->_Isnil) {

  00017	80 78 0d 00	 cmp	 BYTE PTR [eax+13], 0
  0001b	75 28		 jne	 SHORT $LN13@Find_lower
; File C:\Program Files\Microsoft Visual Studio\2022\Professional\VC\Tools\MSVC\14.44.35207\include\type_traits

; 2380 :         return _Left < _Right;

  0001d	8b 4d 0c	 mov	 ecx, DWORD PTR __Keyval$[ebp]
  00020	56		 push	 esi
  00021	8b 31		 mov	 esi, DWORD PTR [ecx]
$LL2@Find_lower:
; File C:\Program Files\Microsoft Visual Studio\2022\Professional\VC\Tools\MSVC\14.44.35207\include\xtree

; 1633 :             _Result._Location._Parent = _Trynode;

  00023	89 02		 mov	 DWORD PTR [edx], eax
; File C:\Program Files\Microsoft Visual Studio\2022\Professional\VC\Tools\MSVC\14.44.35207\include\type_traits

; 2380 :         return _Left < _Right;

  00025	39 70 10	 cmp	 DWORD PTR [eax+16], esi
; File C:\Program Files\Microsoft Visual Studio\2022\Professional\VC\Tools\MSVC\14.44.35207\include\xtree

; 1634 :             if (_DEBUG_LT_PRED(_Getcomp(), _Traits::_Kfn(_Trynode->_Myval), _Keyval)) {

  00028	73 07		 jae	 SHORT $LN4@Find_lower

; 1635 :                 _Result._Location._Child = _Tree_child::_Right;
; 1636 :                 _Trynode                 = _Trynode->_Right;

  0002a	8b 40 08	 mov	 eax, DWORD PTR [eax+8]
  0002d	33 c9		 xor	 ecx, ecx

; 1637 :             } else {

  0002f	eb 0a		 jmp	 SHORT $LN5@Find_lower
$LN4@Find_lower:

; 1638 :                 _Result._Location._Child = _Tree_child::_Left;
; 1639 :                 _Result._Bound           = _Trynode;

  00031	89 42 08	 mov	 DWORD PTR [edx+8], eax

; 1640 :                 _Trynode                 = _Trynode->_Left;

  00034	b9 01 00 00 00	 mov	 ecx, 1
  00039	8b 00		 mov	 eax, DWORD PTR [eax]
$LN5@Find_lower:

; 1631 :         _Nodeptr _Trynode = _Result._Location._Parent;
; 1632 :         while (!_Trynode->_Isnil) {

  0003b	89 4a 04	 mov	 DWORD PTR [edx+4], ecx
  0003e	80 78 0d 00	 cmp	 BYTE PTR [eax+13], 0
  00042	74 df		 je	 SHORT $LL2@Find_lower
  00044	5e		 pop	 esi
$LN13@Find_lower:

; 1641 :             }
; 1642 :         }
; 1643 : 
; 1644 :         return _Result;
; 1645 :     }

  00045	8b c2		 mov	 eax, edx
  00047	5d		 pop	 ebp
  00048	c2 08 00	 ret	 8
??$_Find_lower_bound@K@?$_Tree@V?$_Tmap_traits@KV?$queue@USFXHIT_COUNT@@V?$deque@USFXHIT_COUNT@@V?$allocator@USFXHIT_COUNT@@@std@@@std@@@std@@U?$less@K@2@V?$allocator@U?$pair@$$CBKV?$queue@USFXHIT_COUNT@@V?$deque@USFXHIT_COUNT@@V?$allocator@USFXHIT_COUNT@@@std@@@std@@@std@@@std@@@2@$0A@@std@@@std@@IBE?AU?$_Tree_find_result@PAU?$_Tree_node@U?$pair@$$CBKV?$queue@USFXHIT_COUNT@@V?$deque@USFXHIT_COUNT@@V?$allocator@USFXHIT_COUNT@@@std@@@std@@@std@@@std@@PAX@std@@@1@ABK@Z ENDP ; std::_Tree<std::_Tmap_traits<unsigned long,std::queue<SFXHIT_COUNT,std::deque<SFXHIT_COUNT,std::allocator<SFXHIT_COUNT> > >,std::less<unsigned long>,std::allocator<std::pair<unsigned long const ,std::queue<SFXHIT_COUNT,std::deque<SFXHIT_COUNT,std::allocator<SFXHIT_COUNT> > > > >,0> >::_Find_lower_bound<unsigned long>
_TEXT	ENDS
; Function compile flags: /Ogtp
; File C:\Program Files\Microsoft Visual Studio\2022\Professional\VC\Tools\MSVC\14.44.35207\include\deque
; File C:\Program Files\Microsoft Visual Studio\2022\Professional\VC\Tools\MSVC\14.44.35207\include\utility
; File C:\Program Files\Microsoft Visual Studio\2022\Professional\VC\Tools\MSVC\14.44.35207\include\xmemory
; File C:\Program Files\Microsoft Visual Studio\2022\Professional\VC\Tools\MSVC\14.44.35207\include\utility
; File C:\Program Files\Microsoft Visual Studio\2022\Professional\VC\Tools\MSVC\14.44.35207\include\xmemory
;	COMDAT ??1?$pair@$$CBKV?$queue@USFXHIT_INFO@@V?$deque@USFXHIT_INFO@@V?$allocator@USFXHIT_INFO@@@std@@@std@@@std@@@std@@QAE@XZ
_TEXT	SEGMENT
??1?$pair@$$CBKV?$queue@USFXHIT_INFO@@V?$deque@USFXHIT_INFO@@V?$allocator@USFXHIT_INFO@@@std@@@std@@@std@@@std@@QAE@XZ PROC ; std::pair<unsigned long const ,std::queue<SFXHIT_INFO,std::deque<SFXHIT_INFO,std::allocator<SFXHIT_INFO> > > >::~pair<unsigned long const ,std::queue<SFXHIT_INFO,std::deque<SFXHIT_INFO,std::allocator<SFXHIT_INFO> > > >, COMDAT
; _this$ = ecx
; File C:\Program Files\Microsoft Visual Studio\2022\Professional\VC\Tools\MSVC\14.44.35207\include\deque

; 774  :         _Tidy();

  00000	56		 push	 esi
  00001	8d 71 04	 lea	 esi, DWORD PTR [ecx+4]
  00004	8b ce		 mov	 ecx, esi
  00006	e8 00 00 00 00	 call	 ?_Tidy@?$deque@USFXHIT_INFO@@V?$allocator@USFXHIT_INFO@@@std@@@std@@AAEXXZ ; std::deque<SFXHIT_INFO,std::allocator<SFXHIT_INFO> >::_Tidy
; File C:\Program Files\Microsoft Visual Studio\2022\Professional\VC\Tools\MSVC\14.44.35207\include\utility

; 773  :     _Ty _Old_val = static_cast<_Ty&&>(_Val);

  0000b	8b 06		 mov	 eax, DWORD PTR [esi]
; File C:\Program Files\Microsoft Visual Studio\2022\Professional\VC\Tools\MSVC\14.44.35207\include\xmemory

; 289  :         ::operator delete(_Ptr, _Bytes);

  0000d	6a 08		 push	 8
  0000f	50		 push	 eax
; File C:\Program Files\Microsoft Visual Studio\2022\Professional\VC\Tools\MSVC\14.44.35207\include\utility

; 774  :     _Val         = static_cast<_Other&&>(_New_val);

  00010	c7 06 00 00 00
	00		 mov	 DWORD PTR [esi], 0
; File C:\Program Files\Microsoft Visual Studio\2022\Professional\VC\Tools\MSVC\14.44.35207\include\xmemory

; 289  :         ::operator delete(_Ptr, _Bytes);

  00016	e8 00 00 00 00	 call	 ??3@YAXPAXI@Z		; operator delete
  0001b	83 c4 08	 add	 esp, 8
  0001e	5e		 pop	 esi
  0001f	c3		 ret	 0
??1?$pair@$$CBKV?$queue@USFXHIT_INFO@@V?$deque@USFXHIT_INFO@@V?$allocator@USFXHIT_INFO@@@std@@@std@@@std@@@std@@QAE@XZ ENDP ; std::pair<unsigned long const ,std::queue<SFXHIT_INFO,std::deque<SFXHIT_INFO,std::allocator<SFXHIT_INFO> > > >::~pair<unsigned long const ,std::queue<SFXHIT_INFO,std::deque<SFXHIT_INFO,std::allocator<SFXHIT_INFO> > > >
_TEXT	ENDS
; Function compile flags: /Ogtp
; File C:\Program Files\Microsoft Visual Studio\2022\Professional\VC\Tools\MSVC\14.44.35207\include\deque
; File C:\Program Files\Microsoft Visual Studio\2022\Professional\VC\Tools\MSVC\14.44.35207\include\utility
; File C:\Program Files\Microsoft Visual Studio\2022\Professional\VC\Tools\MSVC\14.44.35207\include\xmemory
; File C:\Program Files\Microsoft Visual Studio\2022\Professional\VC\Tools\MSVC\14.44.35207\include\utility
; File C:\Program Files\Microsoft Visual Studio\2022\Professional\VC\Tools\MSVC\14.44.35207\include\xmemory
;	COMDAT ??1?$queue@USFXHIT_INFO@@V?$deque@USFXHIT_INFO@@V?$allocator@USFXHIT_INFO@@@std@@@std@@@std@@QAE@XZ
_TEXT	SEGMENT
??1?$queue@USFXHIT_INFO@@V?$deque@USFXHIT_INFO@@V?$allocator@USFXHIT_INFO@@@std@@@std@@@std@@QAE@XZ PROC ; std::queue<SFXHIT_INFO,std::deque<SFXHIT_INFO,std::allocator<SFXHIT_INFO> > >::~queue<SFXHIT_INFO,std::deque<SFXHIT_INFO,std::allocator<SFXHIT_INFO> > >, COMDAT
; _this$ = ecx
; File C:\Program Files\Microsoft Visual Studio\2022\Professional\VC\Tools\MSVC\14.44.35207\include\deque

; 774  :         _Tidy();

  00000	56		 push	 esi
  00001	8b f1		 mov	 esi, ecx
  00003	e8 00 00 00 00	 call	 ?_Tidy@?$deque@USFXHIT_INFO@@V?$allocator@USFXHIT_INFO@@@std@@@std@@AAEXXZ ; std::deque<SFXHIT_INFO,std::allocator<SFXHIT_INFO> >::_Tidy
; File C:\Program Files\Microsoft Visual Studio\2022\Professional\VC\Tools\MSVC\14.44.35207\include\utility

; 773  :     _Ty _Old_val = static_cast<_Ty&&>(_Val);

  00008	8b 06		 mov	 eax, DWORD PTR [esi]
; File C:\Program Files\Microsoft Visual Studio\2022\Professional\VC\Tools\MSVC\14.44.35207\include\xmemory

; 289  :         ::operator delete(_Ptr, _Bytes);

  0000a	6a 08		 push	 8
  0000c	50		 push	 eax
; File C:\Program Files\Microsoft Visual Studio\2022\Professional\VC\Tools\MSVC\14.44.35207\include\utility

; 774  :     _Val         = static_cast<_Other&&>(_New_val);

  0000d	c7 06 00 00 00
	00		 mov	 DWORD PTR [esi], 0
; File C:\Program Files\Microsoft Visual Studio\2022\Professional\VC\Tools\MSVC\14.44.35207\include\xmemory

; 289  :         ::operator delete(_Ptr, _Bytes);

  00013	e8 00 00 00 00	 call	 ??3@YAXPAXI@Z		; operator delete
  00018	83 c4 08	 add	 esp, 8
  0001b	5e		 pop	 esi
  0001c	c3		 ret	 0
??1?$queue@USFXHIT_INFO@@V?$deque@USFXHIT_INFO@@V?$allocator@USFXHIT_INFO@@@std@@@std@@@std@@QAE@XZ ENDP ; std::queue<SFXHIT_INFO,std::deque<SFXHIT_INFO,std::allocator<SFXHIT_INFO> > >::~queue<SFXHIT_INFO,std::deque<SFXHIT_INFO,std::allocator<SFXHIT_INFO> > >
_TEXT	ENDS
; Function compile flags: /Ogtp
; File C:\Program Files\Microsoft Visual Studio\2022\Professional\VC\Tools\MSVC\14.44.35207\include\deque
; File C:\Program Files\Microsoft Visual Studio\2022\Professional\VC\Tools\MSVC\14.44.35207\include\xmemory
; File C:\Program Files\Microsoft Visual Studio\2022\Professional\VC\Tools\MSVC\14.44.35207\include\deque
; File C:\Program Files\Microsoft Visual Studio\2022\Professional\VC\Tools\MSVC\14.44.35207\include\xmemory
; File C:\Program Files\Microsoft Visual Studio\2022\Professional\VC\Tools\MSVC\14.44.35207\include\deque
; File C:\Program Files\Microsoft Visual Studio\2022\Professional\VC\Tools\MSVC\14.44.35207\include\xmemory
; File C:\Program Files\Microsoft Visual Studio\2022\Professional\VC\Tools\MSVC\14.44.35207\include\deque
;	COMDAT ?_Tidy@?$deque@USFXHIT_INFO@@V?$allocator@USFXHIT_INFO@@@std@@@std@@AAEXXZ
_TEXT	SEGMENT
?_Tidy@?$deque@USFXHIT_INFO@@V?$allocator@USFXHIT_INFO@@@std@@@std@@AAEXXZ PROC ; std::deque<SFXHIT_INFO,std::allocator<SFXHIT_INFO> >::_Tidy, COMDAT
; _this$ = ecx

; 1670 :     void _Tidy() noexcept { // free all storage

  00000	57		 push	 edi
  00001	8b f9		 mov	 edi, ecx

; 971  :         return _Mysize() == 0;

  00003	8b 4f 10	 mov	 ecx, DWORD PTR [edi+16]
  00006	85 c9		 test	 ecx, ecx

; 1671 :         _Orphan_all();
; 1672 : 
; 1673 :         while (!empty()) {

  00008	74 15		 je	 SHORT $LN65@Tidy
  0000a	66 0f 1f 44 00
	00		 npad	 6
$LL2@Tidy:

; 1513 :         if (--_Mysize() == 0) {

  00010	8d 41 ff	 lea	 eax, DWORD PTR [ecx-1]
  00013	89 47 10	 mov	 DWORD PTR [edi+16], eax
  00016	8b c8		 mov	 ecx, eax
  00018	85 c0		 test	 eax, eax
  0001a	75 f4		 jne	 SHORT $LL2@Tidy

; 1514 :             _Myoff() = 0;

  0001c	89 47 0c	 mov	 DWORD PTR [edi+12], eax
$LN65@Tidy:

; 1674 :             pop_back();
; 1675 :         }
; 1676 : 
; 1677 :         if (_Map() != nullptr) {

  0001f	83 7f 04 00	 cmp	 DWORD PTR [edi+4], 0
  00023	74 61		 je	 SHORT $LN25@Tidy
  00025	56		 push	 esi

; 1654 :         for (auto _Block = _Map_distance(); _Block > 0;) { // free storage for a block and destroy pointer

  00026	8b 77 08	 mov	 esi, DWORD PTR [edi+8]
  00029	85 f6		 test	 esi, esi
  0002b	7e 1d		 jle	 SHORT $LN62@Tidy
  0002d	0f 1f 00	 npad	 3
$LL23@Tidy:

; 1655 :             --_Block;
; 1656 :             auto& _Block_ptr = _Map()[_Block];
; 1657 :             if (_Block_ptr) { // free block

  00030	8b 47 04	 mov	 eax, DWORD PTR [edi+4]
  00033	4e		 dec	 esi
  00034	8b 04 b0	 mov	 eax, DWORD PTR [eax+esi*4]
  00037	85 c0		 test	 eax, eax
  00039	74 0b		 je	 SHORT $LN21@Tidy
; File C:\Program Files\Microsoft Visual Studio\2022\Professional\VC\Tools\MSVC\14.44.35207\include\xmemory

; 289  :         ::operator delete(_Ptr, _Bytes);

  0003b	6a 24		 push	 36			; 00000024H
  0003d	50		 push	 eax
  0003e	e8 00 00 00 00	 call	 ??3@YAXPAXI@Z		; operator delete
  00043	83 c4 08	 add	 esp, 8
$LN21@Tidy:
; File C:\Program Files\Microsoft Visual Studio\2022\Professional\VC\Tools\MSVC\14.44.35207\include\deque

; 1654 :         for (auto _Block = _Map_distance(); _Block > 0;) { // free storage for a block and destroy pointer

  00046	85 f6		 test	 esi, esi
  00048	7f e6		 jg	 SHORT $LL23@Tidy
$LN62@Tidy:
; File C:\Program Files\Microsoft Visual Studio\2022\Professional\VC\Tools\MSVC\14.44.35207\include\xmemory

; 985  :         _STD _Deallocate<_New_alignof<_Ty>>(_Ptr, sizeof(_Ty) * _Count);

  0004a	8b 4f 08	 mov	 ecx, DWORD PTR [edi+8]
  0004d	8b 47 04	 mov	 eax, DWORD PTR [edi+4]
  00050	c1 e1 02	 shl	 ecx, 2
  00053	5e		 pop	 esi

; 284  :         if (_Bytes >= _Big_allocation_threshold) {

  00054	81 f9 00 10 00
	00		 cmp	 ecx, 4096		; 00001000H
  0005a	72 12		 jb	 SHORT $LN51@Tidy

; 205  :     const uintptr_t _Ptr_container   = _Ptr_user[-1];

  0005c	8b 50 fc	 mov	 edx, DWORD PTR [eax-4]
  0005f	83 c1 23	 add	 ecx, 35			; 00000023H

; 206  : 
; 207  :     // If the following asserts, it likely means that we are performing
; 208  :     // an aligned delete on memory coming from an unaligned allocation.
; 209  :     _STL_ASSERT(_Ptr_user[-2] == _Big_allocation_sentinel, "invalid argument");
; 210  : 
; 211  :     // Extra paranoia on aligned allocation/deallocation; ensure _Ptr_container is
; 212  :     // in range [_Min_back_shift, _Non_user_size]
; 213  : #ifdef _DEBUG
; 214  :     constexpr uintptr_t _Min_back_shift = 2 * sizeof(void*);
; 215  : #else // ^^^ defined(_DEBUG) / !defined(_DEBUG) vvv
; 216  :     constexpr uintptr_t _Min_back_shift = sizeof(void*);
; 217  : #endif // ^^^ !defined(_DEBUG) ^^^
; 218  :     const uintptr_t _Back_shift = reinterpret_cast<uintptr_t>(_Ptr) - _Ptr_container;

  00062	2b c2		 sub	 eax, edx

; 219  :     _STL_VERIFY(_Back_shift >= _Min_back_shift && _Back_shift <= _Non_user_size, "invalid argument");

  00064	83 c0 fc	 add	 eax, -4			; fffffffcH
  00067	83 f8 1f	 cmp	 eax, 31			; 0000001fH
  0006a	77 1c		 ja	 SHORT $LN50@Tidy

; 220  :     _Ptr = reinterpret_cast<void*>(_Ptr_container);

  0006c	8b c2		 mov	 eax, edx
$LN51@Tidy:

; 289  :         ::operator delete(_Ptr, _Bytes);

  0006e	51		 push	 ecx
  0006f	50		 push	 eax
  00070	e8 00 00 00 00	 call	 ??3@YAXPAXI@Z		; operator delete
  00075	83 c4 08	 add	 esp, 8
; File C:\Program Files\Microsoft Visual Studio\2022\Professional\VC\Tools\MSVC\14.44.35207\include\deque

; 1666 :         _Map()     = nullptr;

  00078	c7 47 04 00 00
	00 00		 mov	 DWORD PTR [edi+4], 0

; 1667 :         _Mapsize() = 0;

  0007f	c7 47 08 00 00
	00 00		 mov	 DWORD PTR [edi+8], 0
$LN25@Tidy:
  00086	5f		 pop	 edi

; 1682 :     }

  00087	c3		 ret	 0
$LN50@Tidy:
; File C:\Program Files\Microsoft Visual Studio\2022\Professional\VC\Tools\MSVC\14.44.35207\include\xmemory

; 219  :     _STL_VERIFY(_Back_shift >= _Min_back_shift && _Back_shift <= _Non_user_size, "invalid argument");

  00088	6a 00		 push	 0
  0008a	6a 00		 push	 0
  0008c	6a 00		 push	 0
  0008e	6a 00		 push	 0
  00090	6a 00		 push	 0
  00092	e8 00 00 00 00	 call	 __invoke_watson
$LN74@Tidy:
  00097	cc		 int	 3
?_Tidy@?$deque@USFXHIT_INFO@@V?$allocator@USFXHIT_INFO@@@std@@@std@@AAEXXZ ENDP ; std::deque<SFXHIT_INFO,std::allocator<SFXHIT_INFO> >::_Tidy
_TEXT	ENDS
; Function compile flags: /Ogtp
; File C:\Program Files\Microsoft Visual Studio\2022\Professional\VC\Tools\MSVC\14.44.35207\include\deque
; File C:\Program Files\Microsoft Visual Studio\2022\Professional\VC\Tools\MSVC\14.44.35207\include\xmemory
; File C:\Program Files\Microsoft Visual Studio\2022\Professional\VC\Tools\MSVC\14.44.35207\include\deque
; File C:\Program Files\Microsoft Visual Studio\2022\Professional\VC\Tools\MSVC\14.44.35207\include\xmemory
; File C:\Program Files\Microsoft Visual Studio\2022\Professional\VC\Tools\MSVC\14.44.35207\include\deque
;	COMDAT ?_Growmap@?$deque@USFXHIT_INFO@@V?$allocator@USFXHIT_INFO@@@std@@@std@@AAEXI@Z
_TEXT	SEGMENT
__Myptr$1$ = -8						; size = 4
tv415 = -4						; size = 4
__Count$ = 8						; size = 4
$T1 = 8							; size = 4
__Almap$ = 11						; size = 1
?_Growmap@?$deque@USFXHIT_INFO@@V?$allocator@USFXHIT_INFO@@@std@@@std@@AAEXI@Z PROC ; std::deque<SFXHIT_INFO,std::allocator<SFXHIT_INFO> >::_Growmap, COMDAT
; _this$ = ecx

; 1602 :     void _Growmap(size_type _Count) { // grow map by at least _Count pointers, _Mapsize() a power of 2

  00000	55		 push	 ebp
  00001	8b ec		 mov	 ebp, esp

; 1603 :         static_assert(_Minimum_map_size > 1, "The _Xlen() test should always be performed.");
; 1604 : 
; 1605 :         _Alpty _Almap(_Getal());
; 1606 :         size_type _Newsize = _Mapsize() > 0 ? _Mapsize() : 1;

  00003	8b 55 08	 mov	 edx, DWORD PTR __Count$[ebp]
  00006	83 ec 08	 sub	 esp, 8
  00009	56		 push	 esi
  0000a	57		 push	 edi
  0000b	8b f9		 mov	 edi, ecx
  0000d	be 01 00 00 00	 mov	 esi, 1
  00012	8b 4f 08	 mov	 ecx, DWORD PTR [edi+8]
  00015	85 c9		 test	 ecx, ecx
  00017	0f 45 f1	 cmovne	 esi, ecx
  0001a	66 0f 1f 44 00
	00		 npad	 6
$LL2@Growmap:

; 1607 :         while (_Newsize - _Mapsize() < _Count || _Newsize < _Minimum_map_size) {

  00020	8b c6		 mov	 eax, esi
  00022	2b c1		 sub	 eax, ecx
  00024	3b c2		 cmp	 eax, edx
  00026	72 05		 jb	 SHORT $LN6@Growmap
  00028	83 fe 08	 cmp	 esi, 8
  0002b	73 13		 jae	 SHORT $LN3@Growmap
$LN6@Growmap:

; 1608 :             // scale _Newsize to 2^N >= _Mapsize() + _Count
; 1609 :             if (max_size() / _Block_size - _Newsize < _Newsize) {

  0002d	b8 c7 71 1c 07	 mov	 eax, 119304647		; 071c71c7H
  00032	2b c6		 sub	 eax, esi
  00034	3b c6		 cmp	 eax, esi
  00036	0f 82 f2 00 00
	00		 jb	 $LN36@Growmap

; 1611 :             }
; 1612 : 
; 1613 :             _Newsize *= 2;

  0003c	03 f6		 add	 esi, esi

; 1614 :         }

  0003e	eb e0		 jmp	 SHORT $LL2@Growmap
$LN3@Growmap:

; 1615 : 
; 1616 :         size_type _Allocsize = _Newsize;
; 1617 : 
; 1618 :         const auto _Myboff  = static_cast<size_type>(_Myoff() / _Block_size);

  00040	8b 47 0c	 mov	 eax, DWORD PTR [edi+12]
  00043	89 45 08	 mov	 DWORD PTR $T1[ebp], eax
; File C:\Program Files\Microsoft Visual Studio\2022\Professional\VC\Tools\MSVC\14.44.35207\include\xmemory

; 117  :         if (_Count > _Max_possible) {

  00046	81 fe ff ff ff
	3f		 cmp	 esi, 1073741823		; 3fffffffH
  0004c	0f 87 e1 00 00
	00		 ja	 $LN59@Growmap

; 119  :         }
; 120  :     }
; 121  : 
; 122  :     return _Count * _Ty_size;

  00052	8d 04 b5 00 00
	00 00		 lea	 eax, DWORD PTR [esi*4]
  00059	53		 push	 ebx

; 227  :     if (_Bytes == 0) {

  0005a	85 c0		 test	 eax, eax
  0005c	75 04		 jne	 SHORT $LN23@Growmap

; 228  :         return nullptr;

  0005e	33 db		 xor	 ebx, ebx
  00060	eb 19		 jmp	 SHORT $LN22@Growmap
$LN23@Growmap:

; 229  :     }
; 230  : 
; 231  : #if _HAS_CXX20 // TRANSITION, GH-1532
; 232  :     if (_STD is_constant_evaluated()) {
; 233  :         return _Traits::_Allocate(_Bytes);
; 234  :     }
; 235  : #endif // _HAS_CXX20
; 236  : 
; 237  : #ifdef __cpp_aligned_new
; 238  :     if constexpr (_Align > __STDCPP_DEFAULT_NEW_ALIGNMENT__) {
; 239  :         size_t _Passed_align = _Align;
; 240  : #if defined(_M_IX86) || defined(_M_X64)
; 241  :         if (_Bytes >= _Big_allocation_threshold) {
; 242  :             // boost the alignment of big allocations to help autovectorization
; 243  :             _Passed_align = (_STD max)(_Align, _Big_allocation_alignment);
; 244  :         }
; 245  : #endif // defined(_M_IX86) || defined(_M_X64)
; 246  :         return _Traits::_Allocate_aligned(_Bytes, _Passed_align);
; 247  :     } else
; 248  : #endif // defined(__cpp_aligned_new)
; 249  :     {
; 250  : #if defined(_M_IX86) || defined(_M_X64)
; 251  :         if (_Bytes >= _Big_allocation_threshold) {

  00062	50		 push	 eax
  00063	3d 00 10 00 00	 cmp	 eax, 4096		; 00001000H
  00068	72 07		 jb	 SHORT $LN24@Growmap

; 252  :             // boost the alignment of big allocations to help autovectorization
; 253  :             return _Allocate_manually_vector_aligned<_Traits>(_Bytes);

  0006a	e8 00 00 00 00	 call	 ??$_Allocate_manually_vector_aligned@U_Default_allocate_traits@std@@@std@@YAPAXI@Z ; std::_Allocate_manually_vector_aligned<std::_Default_allocate_traits>
  0006f	eb 05		 jmp	 SHORT $LN57@Growmap
$LN24@Growmap:

; 136  :         return ::operator new(_Bytes);

  00071	e8 00 00 00 00	 call	 ??2@YAPAXI@Z		; operator new
$LN57@Growmap:
; File C:\Program Files\Microsoft Visual Studio\2022\Professional\VC\Tools\MSVC\14.44.35207\include\deque

; 1621 :         _Mapptr _Myptr      = _Newmap + _Map_off;

  00076	8b d8		 mov	 ebx, eax
  00078	83 c4 04	 add	 esp, 4
$LN22@Growmap:
  0007b	8b 55 08	 mov	 edx, DWORD PTR $T1[ebp]
  0007e	c1 e2 02	 shl	 edx, 2
  00081	89 55 fc	 mov	 DWORD PTR tv415[ebp], edx
  00084	8d 04 1a	 lea	 eax, DWORD PTR [edx+ebx]
  00087	89 45 f8	 mov	 DWORD PTR __Myptr$1$[ebp], eax

; 1622 :         _STL_ASSERT(_Allocsize >= _Newsize, "_Allocsize >= _Newsize");
; 1623 :         while (_Newsize <= _Allocsize / 2) {

  0008a	8b c6		 mov	 eax, esi
  0008c	d1 e8		 shr	 eax, 1
  0008e	3b f0		 cmp	 esi, eax
  00090	77 06		 ja	 SHORT $LN5@Growmap
$LL4@Growmap:

; 1624 :             _Newsize *= 2;

  00092	03 f6		 add	 esi, esi
  00094	3b f0		 cmp	 esi, eax
  00096	76 fa		 jbe	 SHORT $LL4@Growmap
$LN5@Growmap:

; 1625 :         }
; 1626 : 
; 1627 :         _Count = _Newsize - _Mapsize();

  00098	8b 47 08	 mov	 eax, DWORD PTR [edi+8]
  0009b	2b f0		 sub	 esi, eax

; 1628 : 
; 1629 :         const auto _Map_count = static_cast<_Map_difference_type>(_Count);
; 1630 : 
; 1631 :         _Myptr = _STD uninitialized_copy(_Map() + _Map_off, _Map() + _Map_distance(), _Myptr); // copy initial to end

  0009d	8b 4f 04	 mov	 ecx, DWORD PTR [edi+4]
  000a0	ff 75 f8	 push	 DWORD PTR __Myptr$1$[ebp]
  000a3	8d 04 81	 lea	 eax, DWORD PTR [ecx+eax*4]
  000a6	50		 push	 eax
  000a7	8d 04 0a	 lea	 eax, DWORD PTR [edx+ecx]
  000aa	50		 push	 eax
  000ab	e8 00 00 00 00	 call	 ??$uninitialized_copy@PAPAUSFXHIT_INFO@@PAPAU1@@std@@YAPAPAUSFXHIT_INFO@@QAPAU1@0PAPAU1@@Z ; std::uninitialized_copy<SFXHIT_INFO * *,SFXHIT_INFO * *>
  000b0	8b 4f 04	 mov	 ecx, DWORD PTR [edi+4]
  000b3	83 c4 0c	 add	 esp, 12			; 0000000cH

; 1632 :         if (_Myboff <= _Count) { // increment greater than offset of initial block

  000b6	50		 push	 eax
  000b7	39 75 08	 cmp	 DWORD PTR $T1[ebp], esi
  000ba	77 22		 ja	 SHORT $LN8@Growmap

; 1633 :             _Myptr = _STD uninitialized_copy(_Map(), _Map() + _Map_off, _Myptr); // copy rest of old

  000bc	8b 45 fc	 mov	 eax, DWORD PTR tv415[ebp]
  000bf	03 c1		 add	 eax, ecx
  000c1	50		 push	 eax
  000c2	51		 push	 ecx
  000c3	e8 00 00 00 00	 call	 ??$uninitialized_copy@PAPAUSFXHIT_INFO@@PAPAU1@@std@@YAPAPAUSFXHIT_INFO@@QAPAU1@0PAPAU1@@Z ; std::uninitialized_copy<SFXHIT_INFO * *,SFXHIT_INFO * *>

; 1634 :             _Uninitialized_value_construct_n_unchecked1(_Myptr, _Count - _Myboff); // clear suffix of new

  000c8	8b ce		 mov	 ecx, esi
  000ca	2b 4d 08	 sub	 ecx, DWORD PTR $T1[ebp]
  000cd	51		 push	 ecx
  000ce	50		 push	 eax
  000cf	e8 00 00 00 00	 call	 ??$_Uninitialized_value_construct_n_unchecked1@PAPAUSFXHIT_INFO@@I@std@@YAPAPAUSFXHIT_INFO@@PAPAU1@I@Z ; std::_Uninitialized_value_construct_n_unchecked1<SFXHIT_INFO * *,unsigned int>

; 1635 :             _Uninitialized_value_construct_n_unchecked1(_Newmap, _Myboff); // clear prefix of new
; 1636 :         } else { // increment not greater than offset of initial block

  000d4	8b 45 08	 mov	 eax, DWORD PTR $T1[ebp]
  000d7	83 c4 14	 add	 esp, 20			; 00000014H
  000da	8b cb		 mov	 ecx, ebx
  000dc	eb 24		 jmp	 SHORT $LN9@Growmap
$LN8@Growmap:

; 1637 :             _STD uninitialized_copy(_Map(), _Map() + _Map_count, _Myptr); // copy more old

  000de	8d 04 b1	 lea	 eax, DWORD PTR [ecx+esi*4]
  000e1	50		 push	 eax
  000e2	51		 push	 ecx
  000e3	e8 00 00 00 00	 call	 ??$uninitialized_copy@PAPAUSFXHIT_INFO@@PAPAU1@@std@@YAPAPAUSFXHIT_INFO@@QAPAU1@0PAPAU1@@Z ; std::uninitialized_copy<SFXHIT_INFO * *,SFXHIT_INFO * *>

; 1638 :             _Myptr = _STD uninitialized_copy(_Map() + _Map_count, _Map() + _Map_off, _Newmap); // copy rest of old

  000e8	8b 4f 04	 mov	 ecx, DWORD PTR [edi+4]
  000eb	8b 45 fc	 mov	 eax, DWORD PTR tv415[ebp]
  000ee	03 c1		 add	 eax, ecx
  000f0	53		 push	 ebx
  000f1	50		 push	 eax
  000f2	8d 04 b1	 lea	 eax, DWORD PTR [ecx+esi*4]
  000f5	50		 push	 eax
  000f6	e8 00 00 00 00	 call	 ??$uninitialized_copy@PAPAUSFXHIT_INFO@@PAPAU1@@std@@YAPAPAUSFXHIT_INFO@@QAPAU1@0PAPAU1@@Z ; std::uninitialized_copy<SFXHIT_INFO * *,SFXHIT_INFO * *>

; 1639 :             _Uninitialized_value_construct_n_unchecked1(_Myptr, _Count); // clear rest to initial block

  000fb	8b c8		 mov	 ecx, eax
  000fd	83 c4 18	 add	 esp, 24			; 00000018H
  00100	8b c6		 mov	 eax, esi
$LN9@Growmap:

; 1640 :         }
; 1641 : 
; 1642 :         if (_Map() != nullptr) {

  00102	50		 push	 eax
  00103	51		 push	 ecx
  00104	e8 00 00 00 00	 call	 ??$_Uninitialized_value_construct_n_unchecked1@PAPAUSFXHIT_INFO@@I@std@@YAPAPAUSFXHIT_INFO@@PAPAU1@I@Z ; std::_Uninitialized_value_construct_n_unchecked1<SFXHIT_INFO * *,unsigned int>
  00109	8b 47 04	 mov	 eax, DWORD PTR [edi+4]
  0010c	83 c4 08	 add	 esp, 8
  0010f	85 c0		 test	 eax, eax
  00111	74 0c		 je	 SHORT $LN10@Growmap

; 1643 :             _Destroy_range(_Map(), _Map() + _Map_distance());
; 1644 :             _Almap.deallocate(_Map(), _Mapsize()); // free storage for old

  00113	ff 77 08	 push	 DWORD PTR [edi+8]
  00116	8d 4d 0b	 lea	 ecx, DWORD PTR __Almap$[ebp]
  00119	50		 push	 eax
  0011a	e8 00 00 00 00	 call	 ?deallocate@?$allocator@PAUSFXHIT_INFO@@@std@@QAEXQAPAUSFXHIT_INFO@@I@Z ; std::allocator<SFXHIT_INFO *>::deallocate
$LN10@Growmap:

; 1645 :         }
; 1646 : 
; 1647 :         _Map() = _Newmap; // point at new
; 1648 :         _Mapsize() += _Count;

  0011f	01 77 08	 add	 DWORD PTR [edi+8], esi
  00122	89 5f 04	 mov	 DWORD PTR [edi+4], ebx
  00125	5b		 pop	 ebx

; 1649 :     }

  00126	5f		 pop	 edi
  00127	5e		 pop	 esi
  00128	8b e5		 mov	 esp, ebp
  0012a	5d		 pop	 ebp
  0012b	c2 04 00	 ret	 4
$LN36@Growmap:

; 1610 :                 _Xlen(); // result too long

  0012e	e8 00 00 00 00	 call	 ?_Xlen@?$deque@USFXHIT_INFO@@V?$allocator@USFXHIT_INFO@@@std@@@std@@CAXXZ ; std::deque<SFXHIT_INFO,std::allocator<SFXHIT_INFO> >::_Xlen
$LN59@Growmap:
; File C:\Program Files\Microsoft Visual Studio\2022\Professional\VC\Tools\MSVC\14.44.35207\include\xmemory

; 118  :             _Throw_bad_array_new_length(); // multiply overflow

  00133	e8 00 00 00 00	 call	 ?_Throw_bad_array_new_length@std@@YAXXZ ; std::_Throw_bad_array_new_length
$LN56@Growmap:
  00138	cc		 int	 3
?_Growmap@?$deque@USFXHIT_INFO@@V?$allocator@USFXHIT_INFO@@@std@@@std@@AAEXI@Z ENDP ; std::deque<SFXHIT_INFO,std::allocator<SFXHIT_INFO> >::_Growmap
_TEXT	ENDS
; Function compile flags: /Ogtp
; File C:\Program Files\Microsoft Visual Studio\2022\Professional\VC\Tools\MSVC\14.44.35207\include\deque
;	COMDAT ?_Xlen@?$deque@USFXHIT_INFO@@V?$allocator@USFXHIT_INFO@@@std@@@std@@CAXXZ
_TEXT	SEGMENT
?_Xlen@?$deque@USFXHIT_INFO@@V?$allocator@USFXHIT_INFO@@@std@@@std@@CAXXZ PROC ; std::deque<SFXHIT_INFO,std::allocator<SFXHIT_INFO> >::_Xlen, COMDAT

; 1595 :         _Xlength_error("deque<T> too long");

  00000	68 00 00 00 00	 push	 OFFSET ??_C@_0BC@KBDMBKEH@deque?$DMT?$DO?5too?5long@
  00005	e8 00 00 00 00	 call	 ?_Xlength_error@std@@YAXPBD@Z ; std::_Xlength_error
$LN3@Xlen:
  0000a	cc		 int	 3
?_Xlen@?$deque@USFXHIT_INFO@@V?$allocator@USFXHIT_INFO@@@std@@@std@@CAXXZ ENDP ; std::deque<SFXHIT_INFO,std::allocator<SFXHIT_INFO> >::_Xlen
_TEXT	ENDS
; Function compile flags: /Ogtp
; File C:\Program Files\Microsoft Visual Studio\2022\Professional\VC\Tools\MSVC\14.44.35207\include\xmemory
;	COMDAT ?deallocate@?$allocator@PAUSFXHIT_INFO@@@std@@QAEXQAPAUSFXHIT_INFO@@I@Z
_TEXT	SEGMENT
__Ptr$ = 8						; size = 4
__Count$ = 12						; size = 4
?deallocate@?$allocator@PAUSFXHIT_INFO@@@std@@QAEXQAPAUSFXHIT_INFO@@I@Z PROC ; std::allocator<SFXHIT_INFO *>::deallocate, COMDAT
; _this$ = ecx

; 982  :     _CONSTEXPR20 void deallocate(_Ty* const _Ptr, const size_t _Count) noexcept /* strengthened */ {

  00000	55		 push	 ebp
  00001	8b ec		 mov	 ebp, esp

; 983  :         _STL_ASSERT(_Ptr != nullptr || _Count == 0, "null pointer cannot point to a block of non-zero size");
; 984  :         // no overflow check on the following multiply; we assume _Allocate did that check
; 985  :         _STD _Deallocate<_New_alignof<_Ty>>(_Ptr, sizeof(_Ty) * _Count);

  00003	8b 45 0c	 mov	 eax, DWORD PTR __Count$[ebp]
  00006	8d 0c 85 00 00
	00 00		 lea	 ecx, DWORD PTR [eax*4]
  0000d	8b 45 08	 mov	 eax, DWORD PTR __Ptr$[ebp]

; 284  :         if (_Bytes >= _Big_allocation_threshold) {

  00010	81 f9 00 10 00
	00		 cmp	 ecx, 4096		; 00001000H
  00016	72 12		 jb	 SHORT $LN11@deallocate

; 205  :     const uintptr_t _Ptr_container   = _Ptr_user[-1];

  00018	8b 50 fc	 mov	 edx, DWORD PTR [eax-4]
  0001b	83 c1 23	 add	 ecx, 35			; 00000023H

; 206  : 
; 207  :     // If the following asserts, it likely means that we are performing
; 208  :     // an aligned delete on memory coming from an unaligned allocation.
; 209  :     _STL_ASSERT(_Ptr_user[-2] == _Big_allocation_sentinel, "invalid argument");
; 210  : 
; 211  :     // Extra paranoia on aligned allocation/deallocation; ensure _Ptr_container is
; 212  :     // in range [_Min_back_shift, _Non_user_size]
; 213  : #ifdef _DEBUG
; 214  :     constexpr uintptr_t _Min_back_shift = 2 * sizeof(void*);
; 215  : #else // ^^^ defined(_DEBUG) / !defined(_DEBUG) vvv
; 216  :     constexpr uintptr_t _Min_back_shift = sizeof(void*);
; 217  : #endif // ^^^ !defined(_DEBUG) ^^^
; 218  :     const uintptr_t _Back_shift = reinterpret_cast<uintptr_t>(_Ptr) - _Ptr_container;

  0001e	2b c2		 sub	 eax, edx

; 219  :     _STL_VERIFY(_Back_shift >= _Min_back_shift && _Back_shift <= _Non_user_size, "invalid argument");

  00020	83 c0 fc	 add	 eax, -4			; fffffffcH
  00023	83 f8 1f	 cmp	 eax, 31			; 0000001fH
  00026	77 10		 ja	 SHORT $LN10@deallocate

; 220  :     _Ptr = reinterpret_cast<void*>(_Ptr_container);

  00028	8b c2		 mov	 eax, edx
$LN11@deallocate:

; 289  :         ::operator delete(_Ptr, _Bytes);

  0002a	51		 push	 ecx
  0002b	50		 push	 eax
  0002c	e8 00 00 00 00	 call	 ??3@YAXPAXI@Z		; operator delete
  00031	83 c4 08	 add	 esp, 8

; 986  :     }

  00034	5d		 pop	 ebp
  00035	c2 08 00	 ret	 8
$LN10@deallocate:

; 219  :     _STL_VERIFY(_Back_shift >= _Min_back_shift && _Back_shift <= _Non_user_size, "invalid argument");

  00038	6a 00		 push	 0
  0003a	6a 00		 push	 0
  0003c	6a 00		 push	 0
  0003e	6a 00		 push	 0
  00040	6a 00		 push	 0
  00042	e8 00 00 00 00	 call	 __invoke_watson
$LN14@deallocate:
  00047	cc		 int	 3
?deallocate@?$allocator@PAUSFXHIT_INFO@@@std@@QAEXQAPAUSFXHIT_INFO@@I@Z ENDP ; std::allocator<SFXHIT_INFO *>::deallocate
_TEXT	ENDS
; Function compile flags: /Ogtp
; File C:\Program Files\Microsoft Visual Studio\2022\Professional\VC\Tools\MSVC\14.44.35207\include\xtree
;	COMDAT ??E?$_Tree_unchecked_const_iterator@V?$_Tree_val@U?$_Tree_simple_types@U?$pair@$$CBKV?$queue@USFXHIT_INFO@@V?$deque@USFXHIT_INFO@@V?$allocator@USFXHIT_INFO@@@std@@@std@@@std@@@std@@@std@@@std@@U_Iterator_base0@2@@std@@QAEAAV01@XZ
_TEXT	SEGMENT
??E?$_Tree_unchecked_const_iterator@V?$_Tree_val@U?$_Tree_simple_types@U?$pair@$$CBKV?$queue@USFXHIT_INFO@@V?$deque@USFXHIT_INFO@@V?$allocator@USFXHIT_INFO@@@std@@@std@@@std@@@std@@@std@@@std@@U_Iterator_base0@2@@std@@QAEAAV01@XZ PROC ; std::_Tree_unchecked_const_iterator<std::_Tree_val<std::_Tree_simple_types<std::pair<unsigned long const ,std::queue<SFXHIT_INFO,std::deque<SFXHIT_INFO,std::allocator<SFXHIT_INFO> > > > > >,std::_Iterator_base0>::operator++, COMDAT
; _this$ = ecx

; 49   :     _Tree_unchecked_const_iterator& operator++() noexcept {

  00000	56		 push	 esi
  00001	8b f1		 mov	 esi, ecx
  00003	57		 push	 edi

; 50   :         if (_Ptr->_Right->_Isnil) { // climb looking for right subtree

  00004	8b 16		 mov	 edx, DWORD PTR [esi]
  00006	8b 7a 08	 mov	 edi, DWORD PTR [edx+8]
  00009	80 7f 0d 00	 cmp	 BYTE PTR [edi+13], 0
  0000d	74 22		 je	 SHORT $LN4@operator

; 51   :             _Nodeptr _Pnode;
; 52   :             while (!(_Pnode = _Ptr->_Parent)->_Isnil && _Ptr == _Pnode->_Right) {

  0000f	8b 42 04	 mov	 eax, DWORD PTR [edx+4]
  00012	80 78 0d 00	 cmp	 BYTE PTR [eax+13], 0
  00016	75 12		 jne	 SHORT $LN21@operator
$LL2@operator:
  00018	3b 50 08	 cmp	 edx, DWORD PTR [eax+8]
  0001b	75 0d		 jne	 SHORT $LN21@operator

; 53   :                 _Ptr = _Pnode; // ==> parent while right subtree

  0001d	89 06		 mov	 DWORD PTR [esi], eax
  0001f	8b d0		 mov	 edx, eax
  00021	8b 40 04	 mov	 eax, DWORD PTR [eax+4]
  00024	80 78 0d 00	 cmp	 BYTE PTR [eax+13], 0
  00028	74 ee		 je	 SHORT $LL2@operator
$LN21@operator:

; 54   :             }
; 55   : 
; 56   :             _Ptr = _Pnode; // ==> parent (head if end())
; 57   :         } else {
; 58   :             _Ptr = _Mytree::_Min(_Ptr->_Right); // ==> smallest of right subtree
; 59   :         }
; 60   : 
; 61   :         return *this;

  0002a	89 06		 mov	 DWORD PTR [esi], eax

; 62   :     }

  0002c	8b c6		 mov	 eax, esi
  0002e	5f		 pop	 edi
  0002f	5e		 pop	 esi
  00030	c3		 ret	 0
$LN4@operator:

; 476  :         while (!_Pnode->_Left->_Isnil) {

  00031	8b 0f		 mov	 ecx, DWORD PTR [edi]
  00033	80 79 0d 00	 cmp	 BYTE PTR [ecx+13], 0
  00037	75 13		 jne	 SHORT $LN10@operator
  00039	0f 1f 80 00 00
	00 00		 npad	 7
$LL9@operator:
  00040	8b 01		 mov	 eax, DWORD PTR [ecx]

; 477  :             _Pnode = _Pnode->_Left;

  00042	8b f9		 mov	 edi, ecx
  00044	8b c8		 mov	 ecx, eax
  00046	80 78 0d 00	 cmp	 BYTE PTR [eax+13], 0
  0004a	74 f4		 je	 SHORT $LL9@operator
$LN10@operator:

; 54   :             }
; 55   : 
; 56   :             _Ptr = _Pnode; // ==> parent (head if end())
; 57   :         } else {
; 58   :             _Ptr = _Mytree::_Min(_Ptr->_Right); // ==> smallest of right subtree
; 59   :         }
; 60   : 
; 61   :         return *this;

  0004c	89 3e		 mov	 DWORD PTR [esi], edi

; 62   :     }

  0004e	8b c6		 mov	 eax, esi
  00050	5f		 pop	 edi
  00051	5e		 pop	 esi
  00052	c3		 ret	 0
??E?$_Tree_unchecked_const_iterator@V?$_Tree_val@U?$_Tree_simple_types@U?$pair@$$CBKV?$queue@USFXHIT_INFO@@V?$deque@USFXHIT_INFO@@V?$allocator@USFXHIT_INFO@@@std@@@std@@@std@@@std@@@std@@@std@@U_Iterator_base0@2@@std@@QAEAAV01@XZ ENDP ; std::_Tree_unchecked_const_iterator<std::_Tree_val<std::_Tree_simple_types<std::pair<unsigned long const ,std::queue<SFXHIT_INFO,std::deque<SFXHIT_INFO,std::allocator<SFXHIT_INFO> > > > > >,std::_Iterator_base0>::operator++
_TEXT	ENDS
; Function compile flags: /Ogtp
; File C:\Program Files\Microsoft Visual Studio\2022\Professional\VC\Tools\MSVC\14.44.35207\include\deque
; File C:\Program Files\Microsoft Visual Studio\2022\Professional\VC\Tools\MSVC\14.44.35207\include\utility
; File C:\Program Files\Microsoft Visual Studio\2022\Professional\VC\Tools\MSVC\14.44.35207\include\xmemory
; File C:\Program Files\Microsoft Visual Studio\2022\Professional\VC\Tools\MSVC\14.44.35207\include\utility
; File C:\Program Files\Microsoft Visual Studio\2022\Professional\VC\Tools\MSVC\14.44.35207\include\xmemory
;	COMDAT ??1?$pair@$$CBKV?$queue@USFXHIT_COUNT@@V?$deque@USFXHIT_COUNT@@V?$allocator@USFXHIT_COUNT@@@std@@@std@@@std@@@std@@QAE@XZ
_TEXT	SEGMENT
??1?$pair@$$CBKV?$queue@USFXHIT_COUNT@@V?$deque@USFXHIT_COUNT@@V?$allocator@USFXHIT_COUNT@@@std@@@std@@@std@@@std@@QAE@XZ PROC ; std::pair<unsigned long const ,std::queue<SFXHIT_COUNT,std::deque<SFXHIT_COUNT,std::allocator<SFXHIT_COUNT> > > >::~pair<unsigned long const ,std::queue<SFXHIT_COUNT,std::deque<SFXHIT_COUNT,std::allocator<SFXHIT_COUNT> > > >, COMDAT
; _this$ = ecx
; File C:\Program Files\Microsoft Visual Studio\2022\Professional\VC\Tools\MSVC\14.44.35207\include\deque

; 774  :         _Tidy();

  00000	56		 push	 esi
  00001	8d 71 04	 lea	 esi, DWORD PTR [ecx+4]
  00004	8b ce		 mov	 ecx, esi
  00006	e8 00 00 00 00	 call	 ?_Tidy@?$deque@USFXHIT_COUNT@@V?$allocator@USFXHIT_COUNT@@@std@@@std@@AAEXXZ ; std::deque<SFXHIT_COUNT,std::allocator<SFXHIT_COUNT> >::_Tidy
; File C:\Program Files\Microsoft Visual Studio\2022\Professional\VC\Tools\MSVC\14.44.35207\include\utility

; 773  :     _Ty _Old_val = static_cast<_Ty&&>(_Val);

  0000b	8b 06		 mov	 eax, DWORD PTR [esi]
; File C:\Program Files\Microsoft Visual Studio\2022\Professional\VC\Tools\MSVC\14.44.35207\include\xmemory

; 289  :         ::operator delete(_Ptr, _Bytes);

  0000d	6a 08		 push	 8
  0000f	50		 push	 eax
; File C:\Program Files\Microsoft Visual Studio\2022\Professional\VC\Tools\MSVC\14.44.35207\include\utility

; 774  :     _Val         = static_cast<_Other&&>(_New_val);

  00010	c7 06 00 00 00
	00		 mov	 DWORD PTR [esi], 0
; File C:\Program Files\Microsoft Visual Studio\2022\Professional\VC\Tools\MSVC\14.44.35207\include\xmemory

; 289  :         ::operator delete(_Ptr, _Bytes);

  00016	e8 00 00 00 00	 call	 ??3@YAXPAXI@Z		; operator delete
  0001b	83 c4 08	 add	 esp, 8
  0001e	5e		 pop	 esi
  0001f	c3		 ret	 0
??1?$pair@$$CBKV?$queue@USFXHIT_COUNT@@V?$deque@USFXHIT_COUNT@@V?$allocator@USFXHIT_COUNT@@@std@@@std@@@std@@@std@@QAE@XZ ENDP ; std::pair<unsigned long const ,std::queue<SFXHIT_COUNT,std::deque<SFXHIT_COUNT,std::allocator<SFXHIT_COUNT> > > >::~pair<unsigned long const ,std::queue<SFXHIT_COUNT,std::deque<SFXHIT_COUNT,std::allocator<SFXHIT_COUNT> > > >
_TEXT	ENDS
; Function compile flags: /Ogtp
; File C:\Program Files\Microsoft Visual Studio\2022\Professional\VC\Tools\MSVC\14.44.35207\include\deque
; File C:\Program Files\Microsoft Visual Studio\2022\Professional\VC\Tools\MSVC\14.44.35207\include\utility
; File C:\Program Files\Microsoft Visual Studio\2022\Professional\VC\Tools\MSVC\14.44.35207\include\xmemory
; File C:\Program Files\Microsoft Visual Studio\2022\Professional\VC\Tools\MSVC\14.44.35207\include\utility
; File C:\Program Files\Microsoft Visual Studio\2022\Professional\VC\Tools\MSVC\14.44.35207\include\xmemory
;	COMDAT ??1?$queue@USFXHIT_COUNT@@V?$deque@USFXHIT_COUNT@@V?$allocator@USFXHIT_COUNT@@@std@@@std@@@std@@QAE@XZ
_TEXT	SEGMENT
??1?$queue@USFXHIT_COUNT@@V?$deque@USFXHIT_COUNT@@V?$allocator@USFXHIT_COUNT@@@std@@@std@@@std@@QAE@XZ PROC ; std::queue<SFXHIT_COUNT,std::deque<SFXHIT_COUNT,std::allocator<SFXHIT_COUNT> > >::~queue<SFXHIT_COUNT,std::deque<SFXHIT_COUNT,std::allocator<SFXHIT_COUNT> > >, COMDAT
; _this$ = ecx
; File C:\Program Files\Microsoft Visual Studio\2022\Professional\VC\Tools\MSVC\14.44.35207\include\deque

; 774  :         _Tidy();

  00000	56		 push	 esi
  00001	8b f1		 mov	 esi, ecx
  00003	e8 00 00 00 00	 call	 ?_Tidy@?$deque@USFXHIT_COUNT@@V?$allocator@USFXHIT_COUNT@@@std@@@std@@AAEXXZ ; std::deque<SFXHIT_COUNT,std::allocator<SFXHIT_COUNT> >::_Tidy
; File C:\Program Files\Microsoft Visual Studio\2022\Professional\VC\Tools\MSVC\14.44.35207\include\utility

; 773  :     _Ty _Old_val = static_cast<_Ty&&>(_Val);

  00008	8b 06		 mov	 eax, DWORD PTR [esi]
; File C:\Program Files\Microsoft Visual Studio\2022\Professional\VC\Tools\MSVC\14.44.35207\include\xmemory

; 289  :         ::operator delete(_Ptr, _Bytes);

  0000a	6a 08		 push	 8
  0000c	50		 push	 eax
; File C:\Program Files\Microsoft Visual Studio\2022\Professional\VC\Tools\MSVC\14.44.35207\include\utility

; 774  :     _Val         = static_cast<_Other&&>(_New_val);

  0000d	c7 06 00 00 00
	00		 mov	 DWORD PTR [esi], 0
; File C:\Program Files\Microsoft Visual Studio\2022\Professional\VC\Tools\MSVC\14.44.35207\include\xmemory

; 289  :         ::operator delete(_Ptr, _Bytes);

  00013	e8 00 00 00 00	 call	 ??3@YAXPAXI@Z		; operator delete
  00018	83 c4 08	 add	 esp, 8
  0001b	5e		 pop	 esi
  0001c	c3		 ret	 0
??1?$queue@USFXHIT_COUNT@@V?$deque@USFXHIT_COUNT@@V?$allocator@USFXHIT_COUNT@@@std@@@std@@@std@@QAE@XZ ENDP ; std::queue<SFXHIT_COUNT,std::deque<SFXHIT_COUNT,std::allocator<SFXHIT_COUNT> > >::~queue<SFXHIT_COUNT,std::deque<SFXHIT_COUNT,std::allocator<SFXHIT_COUNT> > >
_TEXT	ENDS
; Function compile flags: /Ogtp
; File C:\Program Files\Microsoft Visual Studio\2022\Professional\VC\Tools\MSVC\14.44.35207\include\deque
; File C:\Program Files\Microsoft Visual Studio\2022\Professional\VC\Tools\MSVC\14.44.35207\include\xmemory
; File C:\Program Files\Microsoft Visual Studio\2022\Professional\VC\Tools\MSVC\14.44.35207\include\deque
; File C:\Program Files\Microsoft Visual Studio\2022\Professional\VC\Tools\MSVC\14.44.35207\include\xmemory
; File C:\Program Files\Microsoft Visual Studio\2022\Professional\VC\Tools\MSVC\14.44.35207\include\deque
; File C:\Program Files\Microsoft Visual Studio\2022\Professional\VC\Tools\MSVC\14.44.35207\include\xmemory
; File C:\Program Files\Microsoft Visual Studio\2022\Professional\VC\Tools\MSVC\14.44.35207\include\deque
;	COMDAT ?_Tidy@?$deque@USFXHIT_COUNT@@V?$allocator@USFXHIT_COUNT@@@std@@@std@@AAEXXZ
_TEXT	SEGMENT
?_Tidy@?$deque@USFXHIT_COUNT@@V?$allocator@USFXHIT_COUNT@@@std@@@std@@AAEXXZ PROC ; std::deque<SFXHIT_COUNT,std::allocator<SFXHIT_COUNT> >::_Tidy, COMDAT
; _this$ = ecx

; 1670 :     void _Tidy() noexcept { // free all storage

  00000	57		 push	 edi
  00001	8b f9		 mov	 edi, ecx

; 971  :         return _Mysize() == 0;

  00003	8b 4f 10	 mov	 ecx, DWORD PTR [edi+16]
  00006	85 c9		 test	 ecx, ecx

; 1671 :         _Orphan_all();
; 1672 : 
; 1673 :         while (!empty()) {

  00008	74 15		 je	 SHORT $LN65@Tidy
  0000a	66 0f 1f 44 00
	00		 npad	 6
$LL2@Tidy:

; 1513 :         if (--_Mysize() == 0) {

  00010	8d 41 ff	 lea	 eax, DWORD PTR [ecx-1]
  00013	89 47 10	 mov	 DWORD PTR [edi+16], eax
  00016	8b c8		 mov	 ecx, eax
  00018	85 c0		 test	 eax, eax
  0001a	75 f4		 jne	 SHORT $LL2@Tidy

; 1514 :             _Myoff() = 0;

  0001c	89 47 0c	 mov	 DWORD PTR [edi+12], eax
$LN65@Tidy:

; 1674 :             pop_back();
; 1675 :         }
; 1676 : 
; 1677 :         if (_Map() != nullptr) {

  0001f	83 7f 04 00	 cmp	 DWORD PTR [edi+4], 0
  00023	74 61		 je	 SHORT $LN25@Tidy
  00025	56		 push	 esi

; 1654 :         for (auto _Block = _Map_distance(); _Block > 0;) { // free storage for a block and destroy pointer

  00026	8b 77 08	 mov	 esi, DWORD PTR [edi+8]
  00029	85 f6		 test	 esi, esi
  0002b	7e 1d		 jle	 SHORT $LN62@Tidy
  0002d	0f 1f 00	 npad	 3
$LL23@Tidy:

; 1655 :             --_Block;
; 1656 :             auto& _Block_ptr = _Map()[_Block];
; 1657 :             if (_Block_ptr) { // free block

  00030	8b 47 04	 mov	 eax, DWORD PTR [edi+4]
  00033	4e		 dec	 esi
  00034	8b 04 b0	 mov	 eax, DWORD PTR [eax+esi*4]
  00037	85 c0		 test	 eax, eax
  00039	74 0b		 je	 SHORT $LN21@Tidy
; File C:\Program Files\Microsoft Visual Studio\2022\Professional\VC\Tools\MSVC\14.44.35207\include\xmemory

; 289  :         ::operator delete(_Ptr, _Bytes);

  0003b	6a 10		 push	 16			; 00000010H
  0003d	50		 push	 eax
  0003e	e8 00 00 00 00	 call	 ??3@YAXPAXI@Z		; operator delete
  00043	83 c4 08	 add	 esp, 8
$LN21@Tidy:
; File C:\Program Files\Microsoft Visual Studio\2022\Professional\VC\Tools\MSVC\14.44.35207\include\deque

; 1654 :         for (auto _Block = _Map_distance(); _Block > 0;) { // free storage for a block and destroy pointer

  00046	85 f6		 test	 esi, esi
  00048	7f e6		 jg	 SHORT $LL23@Tidy
$LN62@Tidy:
; File C:\Program Files\Microsoft Visual Studio\2022\Professional\VC\Tools\MSVC\14.44.35207\include\xmemory

; 985  :         _STD _Deallocate<_New_alignof<_Ty>>(_Ptr, sizeof(_Ty) * _Count);

  0004a	8b 4f 08	 mov	 ecx, DWORD PTR [edi+8]
  0004d	8b 47 04	 mov	 eax, DWORD PTR [edi+4]
  00050	c1 e1 02	 shl	 ecx, 2
  00053	5e		 pop	 esi

; 284  :         if (_Bytes >= _Big_allocation_threshold) {

  00054	81 f9 00 10 00
	00		 cmp	 ecx, 4096		; 00001000H
  0005a	72 12		 jb	 SHORT $LN51@Tidy

; 205  :     const uintptr_t _Ptr_container   = _Ptr_user[-1];

  0005c	8b 50 fc	 mov	 edx, DWORD PTR [eax-4]
  0005f	83 c1 23	 add	 ecx, 35			; 00000023H

; 206  : 
; 207  :     // If the following asserts, it likely means that we are performing
; 208  :     // an aligned delete on memory coming from an unaligned allocation.
; 209  :     _STL_ASSERT(_Ptr_user[-2] == _Big_allocation_sentinel, "invalid argument");
; 210  : 
; 211  :     // Extra paranoia on aligned allocation/deallocation; ensure _Ptr_container is
; 212  :     // in range [_Min_back_shift, _Non_user_size]
; 213  : #ifdef _DEBUG
; 214  :     constexpr uintptr_t _Min_back_shift = 2 * sizeof(void*);
; 215  : #else // ^^^ defined(_DEBUG) / !defined(_DEBUG) vvv
; 216  :     constexpr uintptr_t _Min_back_shift = sizeof(void*);
; 217  : #endif // ^^^ !defined(_DEBUG) ^^^
; 218  :     const uintptr_t _Back_shift = reinterpret_cast<uintptr_t>(_Ptr) - _Ptr_container;

  00062	2b c2		 sub	 eax, edx

; 219  :     _STL_VERIFY(_Back_shift >= _Min_back_shift && _Back_shift <= _Non_user_size, "invalid argument");

  00064	83 c0 fc	 add	 eax, -4			; fffffffcH
  00067	83 f8 1f	 cmp	 eax, 31			; 0000001fH
  0006a	77 1c		 ja	 SHORT $LN50@Tidy

; 220  :     _Ptr = reinterpret_cast<void*>(_Ptr_container);

  0006c	8b c2		 mov	 eax, edx
$LN51@Tidy:

; 289  :         ::operator delete(_Ptr, _Bytes);

  0006e	51		 push	 ecx
  0006f	50		 push	 eax
  00070	e8 00 00 00 00	 call	 ??3@YAXPAXI@Z		; operator delete
  00075	83 c4 08	 add	 esp, 8
; File C:\Program Files\Microsoft Visual Studio\2022\Professional\VC\Tools\MSVC\14.44.35207\include\deque

; 1666 :         _Map()     = nullptr;

  00078	c7 47 04 00 00
	00 00		 mov	 DWORD PTR [edi+4], 0

; 1667 :         _Mapsize() = 0;

  0007f	c7 47 08 00 00
	00 00		 mov	 DWORD PTR [edi+8], 0
$LN25@Tidy:
  00086	5f		 pop	 edi

; 1682 :     }

  00087	c3		 ret	 0
$LN50@Tidy:
; File C:\Program Files\Microsoft Visual Studio\2022\Professional\VC\Tools\MSVC\14.44.35207\include\xmemory

; 219  :     _STL_VERIFY(_Back_shift >= _Min_back_shift && _Back_shift <= _Non_user_size, "invalid argument");

  00088	6a 00		 push	 0
  0008a	6a 00		 push	 0
  0008c	6a 00		 push	 0
  0008e	6a 00		 push	 0
  00090	6a 00		 push	 0
  00092	e8 00 00 00 00	 call	 __invoke_watson
$LN74@Tidy:
  00097	cc		 int	 3
?_Tidy@?$deque@USFXHIT_COUNT@@V?$allocator@USFXHIT_COUNT@@@std@@@std@@AAEXXZ ENDP ; std::deque<SFXHIT_COUNT,std::allocator<SFXHIT_COUNT> >::_Tidy
_TEXT	ENDS
; Function compile flags: /Ogtp
; File C:\Program Files\Microsoft Visual Studio\2022\Professional\VC\Tools\MSVC\14.44.35207\include\deque
; File C:\Program Files\Microsoft Visual Studio\2022\Professional\VC\Tools\MSVC\14.44.35207\include\xmemory
; File C:\Program Files\Microsoft Visual Studio\2022\Professional\VC\Tools\MSVC\14.44.35207\include\deque
; File C:\Program Files\Microsoft Visual Studio\2022\Professional\VC\Tools\MSVC\14.44.35207\include\xmemory
; File C:\Program Files\Microsoft Visual Studio\2022\Professional\VC\Tools\MSVC\14.44.35207\include\deque
;	COMDAT ?_Growmap@?$deque@USFXHIT_COUNT@@V?$allocator@USFXHIT_COUNT@@@std@@@std@@AAEXI@Z
_TEXT	SEGMENT
tv415 = -8						; size = 4
$T1 = -4						; size = 4
__Count$ = 8						; size = 4
__Myptr$1$ = 8						; size = 4
__Almap$ = 11						; size = 1
?_Growmap@?$deque@USFXHIT_COUNT@@V?$allocator@USFXHIT_COUNT@@@std@@@std@@AAEXI@Z PROC ; std::deque<SFXHIT_COUNT,std::allocator<SFXHIT_COUNT> >::_Growmap, COMDAT
; _this$ = ecx

; 1602 :     void _Growmap(size_type _Count) { // grow map by at least _Count pointers, _Mapsize() a power of 2

  00000	55		 push	 ebp
  00001	8b ec		 mov	 ebp, esp

; 1603 :         static_assert(_Minimum_map_size > 1, "The _Xlen() test should always be performed.");
; 1604 : 
; 1605 :         _Alpty _Almap(_Getal());
; 1606 :         size_type _Newsize = _Mapsize() > 0 ? _Mapsize() : 1;

  00003	8b 55 08	 mov	 edx, DWORD PTR __Count$[ebp]
  00006	83 ec 08	 sub	 esp, 8
  00009	56		 push	 esi
  0000a	57		 push	 edi
  0000b	8b f9		 mov	 edi, ecx
  0000d	be 01 00 00 00	 mov	 esi, 1
  00012	8b 4f 08	 mov	 ecx, DWORD PTR [edi+8]
  00015	85 c9		 test	 ecx, ecx
  00017	0f 45 f1	 cmovne	 esi, ecx
  0001a	66 0f 1f 44 00
	00		 npad	 6
$LL2@Growmap:

; 1607 :         while (_Newsize - _Mapsize() < _Count || _Newsize < _Minimum_map_size) {

  00020	8b c6		 mov	 eax, esi
  00022	2b c1		 sub	 eax, ecx
  00024	3b c2		 cmp	 eax, edx
  00026	72 05		 jb	 SHORT $LN6@Growmap
  00028	83 fe 08	 cmp	 esi, 8
  0002b	73 13		 jae	 SHORT $LN3@Growmap
$LN6@Growmap:

; 1608 :             // scale _Newsize to 2^N >= _Mapsize() + _Count
; 1609 :             if (max_size() / _Block_size - _Newsize < _Newsize) {

  0002d	b8 ff ff ff 0f	 mov	 eax, 268435455		; 0fffffffH
  00032	2b c6		 sub	 eax, esi
  00034	3b c6		 cmp	 eax, esi
  00036	0f 82 f3 00 00
	00		 jb	 $LN36@Growmap

; 1611 :             }
; 1612 : 
; 1613 :             _Newsize *= 2;

  0003c	03 f6		 add	 esi, esi

; 1614 :         }

  0003e	eb e0		 jmp	 SHORT $LL2@Growmap
$LN3@Growmap:
  00040	53		 push	 ebx

; 1615 : 
; 1616 :         size_type _Allocsize = _Newsize;
; 1617 : 
; 1618 :         const auto _Myboff  = static_cast<size_type>(_Myoff() / _Block_size);

  00041	8b 5f 0c	 mov	 ebx, DWORD PTR [edi+12]
  00044	d1 eb		 shr	 ebx, 1
; File C:\Program Files\Microsoft Visual Studio\2022\Professional\VC\Tools\MSVC\14.44.35207\include\xmemory

; 117  :         if (_Count > _Max_possible) {

  00046	81 fe ff ff ff
	3f		 cmp	 esi, 1073741823		; 3fffffffH
  0004c	0f 87 e2 00 00
	00		 ja	 $LN60@Growmap

; 119  :         }
; 120  :     }
; 121  : 
; 122  :     return _Count * _Ty_size;

  00052	8d 04 b5 00 00
	00 00		 lea	 eax, DWORD PTR [esi*4]

; 227  :     if (_Bytes == 0) {

  00059	85 c0		 test	 eax, eax
  0005b	74 17		 je	 SHORT $LN57@Growmap
$LN23@Growmap:

; 228  :         return nullptr;
; 229  :     }
; 230  : 
; 231  : #if _HAS_CXX20 // TRANSITION, GH-1532
; 232  :     if (_STD is_constant_evaluated()) {
; 233  :         return _Traits::_Allocate(_Bytes);
; 234  :     }
; 235  : #endif // _HAS_CXX20
; 236  : 
; 237  : #ifdef __cpp_aligned_new
; 238  :     if constexpr (_Align > __STDCPP_DEFAULT_NEW_ALIGNMENT__) {
; 239  :         size_t _Passed_align = _Align;
; 240  : #if defined(_M_IX86) || defined(_M_X64)
; 241  :         if (_Bytes >= _Big_allocation_threshold) {
; 242  :             // boost the alignment of big allocations to help autovectorization
; 243  :             _Passed_align = (_STD max)(_Align, _Big_allocation_alignment);
; 244  :         }
; 245  : #endif // defined(_M_IX86) || defined(_M_X64)
; 246  :         return _Traits::_Allocate_aligned(_Bytes, _Passed_align);
; 247  :     } else
; 248  : #endif // defined(__cpp_aligned_new)
; 249  :     {
; 250  : #if defined(_M_IX86) || defined(_M_X64)
; 251  :         if (_Bytes >= _Big_allocation_threshold) {

  0005d	50		 push	 eax
  0005e	3d 00 10 00 00	 cmp	 eax, 4096		; 00001000H
  00063	72 07		 jb	 SHORT $LN24@Growmap

; 252  :             // boost the alignment of big allocations to help autovectorization
; 253  :             return _Allocate_manually_vector_aligned<_Traits>(_Bytes);

  00065	e8 00 00 00 00	 call	 ??$_Allocate_manually_vector_aligned@U_Default_allocate_traits@std@@@std@@YAPAXI@Z ; std::_Allocate_manually_vector_aligned<std::_Default_allocate_traits>
  0006a	eb 05		 jmp	 SHORT $LN58@Growmap
$LN24@Growmap:

; 136  :         return ::operator new(_Bytes);

  0006c	e8 00 00 00 00	 call	 ??2@YAPAXI@Z		; operator new
$LN58@Growmap:
; File C:\Program Files\Microsoft Visual Studio\2022\Professional\VC\Tools\MSVC\14.44.35207\include\deque

; 1621 :         _Mapptr _Myptr      = _Newmap + _Map_off;

  00071	83 c4 04	 add	 esp, 4
$LN57@Growmap:
  00074	89 45 fc	 mov	 DWORD PTR $T1[ebp], eax
  00077	8d 14 9d 00 00
	00 00		 lea	 edx, DWORD PTR [ebx*4]
  0007e	03 c2		 add	 eax, edx
  00080	89 55 f8	 mov	 DWORD PTR tv415[ebp], edx
  00083	89 45 08	 mov	 DWORD PTR __Myptr$1$[ebp], eax

; 1622 :         _STL_ASSERT(_Allocsize >= _Newsize, "_Allocsize >= _Newsize");
; 1623 :         while (_Newsize <= _Allocsize / 2) {

  00086	8b c6		 mov	 eax, esi
  00088	d1 e8		 shr	 eax, 1
  0008a	3b f0		 cmp	 esi, eax
  0008c	77 08		 ja	 SHORT $LN5@Growmap
  0008e	66 90		 npad	 2
$LL4@Growmap:

; 1624 :             _Newsize *= 2;

  00090	03 f6		 add	 esi, esi
  00092	3b f0		 cmp	 esi, eax
  00094	76 fa		 jbe	 SHORT $LL4@Growmap
$LN5@Growmap:

; 1625 :         }
; 1626 : 
; 1627 :         _Count = _Newsize - _Mapsize();

  00096	8b 47 08	 mov	 eax, DWORD PTR [edi+8]
  00099	2b f0		 sub	 esi, eax

; 1628 : 
; 1629 :         const auto _Map_count = static_cast<_Map_difference_type>(_Count);
; 1630 : 
; 1631 :         _Myptr = _STD uninitialized_copy(_Map() + _Map_off, _Map() + _Map_distance(), _Myptr); // copy initial to end

  0009b	8b 4f 04	 mov	 ecx, DWORD PTR [edi+4]
  0009e	ff 75 08	 push	 DWORD PTR __Myptr$1$[ebp]
  000a1	8d 04 81	 lea	 eax, DWORD PTR [ecx+eax*4]
  000a4	50		 push	 eax
  000a5	8d 04 0a	 lea	 eax, DWORD PTR [edx+ecx]
  000a8	50		 push	 eax
  000a9	e8 00 00 00 00	 call	 ??$uninitialized_copy@PAPAUSFXHIT_COUNT@@PAPAU1@@std@@YAPAPAUSFXHIT_COUNT@@QAPAU1@0PAPAU1@@Z ; std::uninitialized_copy<SFXHIT_COUNT * *,SFXHIT_COUNT * *>
  000ae	8b 4f 04	 mov	 ecx, DWORD PTR [edi+4]
  000b1	83 c4 0c	 add	 esp, 12			; 0000000cH

; 1632 :         if (_Myboff <= _Count) { // increment greater than offset of initial block

  000b4	50		 push	 eax
  000b5	3b de		 cmp	 ebx, esi
  000b7	77 23		 ja	 SHORT $LN8@Growmap

; 1633 :             _Myptr = _STD uninitialized_copy(_Map(), _Map() + _Map_off, _Myptr); // copy rest of old

  000b9	8d 04 9d 00 00
	00 00		 lea	 eax, DWORD PTR [ebx*4]
  000c0	03 c1		 add	 eax, ecx
  000c2	50		 push	 eax
  000c3	51		 push	 ecx
  000c4	e8 00 00 00 00	 call	 ??$uninitialized_copy@PAPAUSFXHIT_COUNT@@PAPAU1@@std@@YAPAPAUSFXHIT_COUNT@@QAPAU1@0PAPAU1@@Z ; std::uninitialized_copy<SFXHIT_COUNT * *,SFXHIT_COUNT * *>

; 1634 :             _Uninitialized_value_construct_n_unchecked1(_Myptr, _Count - _Myboff); // clear suffix of new

  000c9	8b ce		 mov	 ecx, esi
  000cb	2b cb		 sub	 ecx, ebx
  000cd	51		 push	 ecx
  000ce	50		 push	 eax
  000cf	e8 00 00 00 00	 call	 ??$_Uninitialized_value_construct_n_unchecked1@PAPAUSFXHIT_COUNT@@I@std@@YAPAPAUSFXHIT_COUNT@@PAPAU1@I@Z ; std::_Uninitialized_value_construct_n_unchecked1<SFXHIT_COUNT * *,unsigned int>

; 1635 :             _Uninitialized_value_construct_n_unchecked1(_Newmap, _Myboff); // clear prefix of new

  000d4	8b 45 fc	 mov	 eax, DWORD PTR $T1[ebp]
  000d7	83 c4 14	 add	 esp, 20			; 00000014H

; 1636 :         } else { // increment not greater than offset of initial block

  000da	eb 24		 jmp	 SHORT $LN9@Growmap
$LN8@Growmap:

; 1637 :             _STD uninitialized_copy(_Map(), _Map() + _Map_count, _Myptr); // copy more old

  000dc	8d 04 b1	 lea	 eax, DWORD PTR [ecx+esi*4]
  000df	50		 push	 eax
  000e0	51		 push	 ecx
  000e1	e8 00 00 00 00	 call	 ??$uninitialized_copy@PAPAUSFXHIT_COUNT@@PAPAU1@@std@@YAPAPAUSFXHIT_COUNT@@QAPAU1@0PAPAU1@@Z ; std::uninitialized_copy<SFXHIT_COUNT * *,SFXHIT_COUNT * *>

; 1638 :             _Myptr = _STD uninitialized_copy(_Map() + _Map_count, _Map() + _Map_off, _Newmap); // copy rest of old

  000e6	8b 4f 04	 mov	 ecx, DWORD PTR [edi+4]
  000e9	ff 75 fc	 push	 DWORD PTR $T1[ebp]
  000ec	8b 45 f8	 mov	 eax, DWORD PTR tv415[ebp]
  000ef	03 c1		 add	 eax, ecx
  000f1	50		 push	 eax
  000f2	8d 04 b1	 lea	 eax, DWORD PTR [ecx+esi*4]
  000f5	50		 push	 eax
  000f6	e8 00 00 00 00	 call	 ??$uninitialized_copy@PAPAUSFXHIT_COUNT@@PAPAU1@@std@@YAPAPAUSFXHIT_COUNT@@QAPAU1@0PAPAU1@@Z ; std::uninitialized_copy<SFXHIT_COUNT * *,SFXHIT_COUNT * *>
  000fb	83 c4 18	 add	 esp, 24			; 00000018H

; 1639 :             _Uninitialized_value_construct_n_unchecked1(_Myptr, _Count); // clear rest to initial block

  000fe	8b de		 mov	 ebx, esi
$LN9@Growmap:

; 1640 :         }
; 1641 : 
; 1642 :         if (_Map() != nullptr) {

  00100	53		 push	 ebx
  00101	50		 push	 eax
  00102	e8 00 00 00 00	 call	 ??$_Uninitialized_value_construct_n_unchecked1@PAPAUSFXHIT_COUNT@@I@std@@YAPAPAUSFXHIT_COUNT@@PAPAU1@I@Z ; std::_Uninitialized_value_construct_n_unchecked1<SFXHIT_COUNT * *,unsigned int>
  00107	8b 47 04	 mov	 eax, DWORD PTR [edi+4]
  0010a	83 c4 08	 add	 esp, 8
  0010d	85 c0		 test	 eax, eax
  0010f	74 0c		 je	 SHORT $LN10@Growmap

; 1643 :             _Destroy_range(_Map(), _Map() + _Map_distance());
; 1644 :             _Almap.deallocate(_Map(), _Mapsize()); // free storage for old

  00111	ff 77 08	 push	 DWORD PTR [edi+8]
  00114	8d 4d 0b	 lea	 ecx, DWORD PTR __Almap$[ebp]
  00117	50		 push	 eax
  00118	e8 00 00 00 00	 call	 ?deallocate@?$allocator@PAUSFXHIT_COUNT@@@std@@QAEXQAPAUSFXHIT_COUNT@@I@Z ; std::allocator<SFXHIT_COUNT *>::deallocate
$LN10@Growmap:

; 1645 :         }
; 1646 : 
; 1647 :         _Map() = _Newmap; // point at new

  0011d	8b 45 fc	 mov	 eax, DWORD PTR $T1[ebp]

; 1648 :         _Mapsize() += _Count;

  00120	01 77 08	 add	 DWORD PTR [edi+8], esi
  00123	5b		 pop	 ebx
  00124	89 47 04	 mov	 DWORD PTR [edi+4], eax

; 1649 :     }

  00127	5f		 pop	 edi
  00128	5e		 pop	 esi
  00129	8b e5		 mov	 esp, ebp
  0012b	5d		 pop	 ebp
  0012c	c2 04 00	 ret	 4
$LN36@Growmap:

; 1610 :                 _Xlen(); // result too long

  0012f	e8 00 00 00 00	 call	 ?_Xlen@?$deque@USFXHIT_COUNT@@V?$allocator@USFXHIT_COUNT@@@std@@@std@@CAXXZ ; std::deque<SFXHIT_COUNT,std::allocator<SFXHIT_COUNT> >::_Xlen
$LN60@Growmap:
; File C:\Program Files\Microsoft Visual Studio\2022\Professional\VC\Tools\MSVC\14.44.35207\include\xmemory

; 118  :             _Throw_bad_array_new_length(); // multiply overflow

  00134	e8 00 00 00 00	 call	 ?_Throw_bad_array_new_length@std@@YAXXZ ; std::_Throw_bad_array_new_length
$LN56@Growmap:
  00139	cc		 int	 3
?_Growmap@?$deque@USFXHIT_COUNT@@V?$allocator@USFXHIT_COUNT@@@std@@@std@@AAEXI@Z ENDP ; std::deque<SFXHIT_COUNT,std::allocator<SFXHIT_COUNT> >::_Growmap
_TEXT	ENDS
; Function compile flags: /Ogtp
; File C:\Program Files\Microsoft Visual Studio\2022\Professional\VC\Tools\MSVC\14.44.35207\include\deque
;	COMDAT ?_Xlen@?$deque@USFXHIT_COUNT@@V?$allocator@USFXHIT_COUNT@@@std@@@std@@CAXXZ
_TEXT	SEGMENT
?_Xlen@?$deque@USFXHIT_COUNT@@V?$allocator@USFXHIT_COUNT@@@std@@@std@@CAXXZ PROC ; std::deque<SFXHIT_COUNT,std::allocator<SFXHIT_COUNT> >::_Xlen, COMDAT

; 1595 :         _Xlength_error("deque<T> too long");

  00000	68 00 00 00 00	 push	 OFFSET ??_C@_0BC@KBDMBKEH@deque?$DMT?$DO?5too?5long@
  00005	e8 00 00 00 00	 call	 ?_Xlength_error@std@@YAXPBD@Z ; std::_Xlength_error
$LN3@Xlen:
  0000a	cc		 int	 3
?_Xlen@?$deque@USFXHIT_COUNT@@V?$allocator@USFXHIT_COUNT@@@std@@@std@@CAXXZ ENDP ; std::deque<SFXHIT_COUNT,std::allocator<SFXHIT_COUNT> >::_Xlen
_TEXT	ENDS
; Function compile flags: /Ogtp
; File C:\Program Files\Microsoft Visual Studio\2022\Professional\VC\Tools\MSVC\14.44.35207\include\deque
; File C:\Program Files\Microsoft Visual Studio\2022\Professional\VC\Tools\MSVC\14.44.35207\include\xmemory
; File C:\Program Files\Microsoft Visual Studio\2022\Professional\VC\Tools\MSVC\14.44.35207\include\deque
; File C:\Program Files\Microsoft Visual Studio\2022\Professional\VC\Tools\MSVC\14.44.35207\include\xmemory
; File C:\Program Files\Microsoft Visual Studio\2022\Professional\VC\Tools\MSVC\14.44.35207\include\deque
; File C:\Program Files\Microsoft Visual Studio\2022\Professional\VC\Tools\MSVC\14.44.35207\include\xmemory
; File C:\Program Files\Microsoft Visual Studio\2022\Professional\VC\Tools\MSVC\14.44.35207\include\deque
; File C:\Program Files\Microsoft Visual Studio\2022\Professional\VC\Tools\MSVC\14.44.35207\include\xmemory
; File C:\Program Files\Microsoft Visual Studio\2022\Professional\VC\Tools\MSVC\14.44.35207\include\deque
; File C:\Program Files\Microsoft Visual Studio\2022\Professional\VC\Tools\MSVC\14.44.35207\include\xmemory
; File C:\Program Files\Microsoft Visual Studio\2022\Professional\VC\Tools\MSVC\14.44.35207\include\deque
;	COMDAT ??0?$deque@USFXHIT_COUNT@@V?$allocator@USFXHIT_COUNT@@@std@@@std@@QAE@ABV01@@Z
_TEXT	SEGMENT
$T2 = -48						; size = 8
__First$ = -48						; size = 8
__Proxy$3 = -48						; size = 8
$T4 = -40						; size = 8
$T5 = -40						; size = 8
__Guard$6 = -36						; size = 4
$T7 = -32						; size = 4
tv842 = -28						; size = 4
$T8 = -24						; size = 4
$T9 = -20						; size = 4
__Alproxy$10 = -13					; size = 1
__$EHRec$ = -12						; size = 12
__Right$ = 8						; size = 4
??0?$deque@USFXHIT_COUNT@@V?$allocator@USFXHIT_COUNT@@@std@@@std@@QAE@ABV01@@Z PROC ; std::deque<SFXHIT_COUNT,std::allocator<SFXHIT_COUNT> >::deque<SFXHIT_COUNT,std::allocator<SFXHIT_COUNT> >, COMDAT
; _this$ = ecx

; 696  :         : _Mypair(_One_then_variadic_args_t{}, _Alty_traits::select_on_container_copy_construction(_Right._Getal())) {

  00000	55		 push	 ebp
  00001	8b ec		 mov	 ebp, esp
  00003	6a ff		 push	 -1
  00005	68 00 00 00 00	 push	 __ehhandler$??0?$deque@USFXHIT_COUNT@@V?$allocator@USFXHIT_COUNT@@@std@@@std@@QAE@ABV01@@Z
  0000a	64 a1 00 00 00
	00		 mov	 eax, DWORD PTR fs:0
  00010	50		 push	 eax
  00011	83 ec 24	 sub	 esp, 36			; 00000024H
  00014	53		 push	 ebx
  00015	56		 push	 esi
  00016	57		 push	 edi
  00017	a1 00 00 00 00	 mov	 eax, DWORD PTR ___security_cookie
  0001c	33 c5		 xor	 eax, ebp
  0001e	50		 push	 eax
  0001f	8d 45 f4	 lea	 eax, DWORD PTR __$EHRec$[ebp]
  00022	64 a3 00 00 00
	00		 mov	 DWORD PTR fs:0, eax
  00028	8b f1		 mov	 esi, ecx

; 931  :         return _Unchecked_const_iterator(_Myoff() + _Mysize(), _STD addressof(_Get_data()));

  0002a	8b 7d 08	 mov	 edi, DWORD PTR __Right$[ebp]
; File C:\Program Files\Microsoft Visual Studio\2022\Professional\VC\Tools\MSVC\14.44.35207\include\xmemory

; 1235 :     _Container_proxy* _Myproxy = nullptr;

  0002d	c7 06 00 00 00
	00		 mov	 DWORD PTR [esi], 0
; File C:\Program Files\Microsoft Visual Studio\2022\Professional\VC\Tools\MSVC\14.44.35207\include\deque

; 556  :     _Deque_val() noexcept : _Map(), _Mapsize(0), _Myoff(0), _Mysize(0) {}

  00033	c7 46 04 00 00
	00 00		 mov	 DWORD PTR [esi+4], 0
  0003a	c7 46 08 00 00
	00 00		 mov	 DWORD PTR [esi+8], 0
  00041	c7 46 0c 00 00
	00 00		 mov	 DWORD PTR [esi+12], 0
  00048	c7 46 10 00 00
	00 00		 mov	 DWORD PTR [esi+16], 0

; 931  :         return _Unchecked_const_iterator(_Myoff() + _Mysize(), _STD addressof(_Get_data()));

  0004f	8b 5f 0c	 mov	 ebx, DWORD PTR [edi+12]
  00052	8b 47 10	 mov	 eax, DWORD PTR [edi+16]
  00055	03 c3		 add	 eax, ebx

; 42   :         : _Mycont(static_cast<const _Mydeque*>(_Pdeque)), _Myoff(_Off) {}

  00057	89 7d d0	 mov	 DWORD PTR $T2[ebp], edi

; 931  :         return _Unchecked_const_iterator(_Myoff() + _Mysize(), _STD addressof(_Get_data()));

  0005a	89 45 e8	 mov	 DWORD PTR $T8[ebp], eax
; File C:\Program Files\Microsoft Visual Studio\2022\Professional\VC\Tools\MSVC\14.44.35207\include\xmemory

; 1481 :     _CONSTEXPR20 _Container_proxy_ptr12(_Alloc& _Al_, _Container_base12& _Mycont) : _Al(_Al_) {

  0005d	8d 45 f3	 lea	 eax, DWORD PTR __Alproxy$10[ebp]

; 136  :         return ::operator new(_Bytes);

  00060	6a 08		 push	 8
; File C:\Program Files\Microsoft Visual Studio\2022\Professional\VC\Tools\MSVC\14.44.35207\include\deque

; 931  :         return _Unchecked_const_iterator(_Myoff() + _Mysize(), _STD addressof(_Get_data()));

  00062	89 5d ec	 mov	 DWORD PTR $T9[ebp], ebx

; 697  :         _Construct(_Right._Unchecked_begin(), _Right._Unchecked_end());

  00065	89 7d d0	 mov	 DWORD PTR __First$[ebp], edi
; File C:\Program Files\Microsoft Visual Studio\2022\Professional\VC\Tools\MSVC\14.44.35207\include\xmemory

; 1481 :     _CONSTEXPR20 _Container_proxy_ptr12(_Alloc& _Al_, _Container_base12& _Mycont) : _Al(_Al_) {

  00068	89 45 d4	 mov	 DWORD PTR __Proxy$3[ebp+4], eax

; 136  :         return ::operator new(_Bytes);

  0006b	e8 00 00 00 00	 call	 ??2@YAPAXI@Z		; operator new

; 256  :         return _Traits::_Allocate(_Bytes);

  00070	c7 45 dc 00 00
	00 00		 mov	 DWORD PTR $T5[ebp+4], 0

; 136  :         return ::operator new(_Bytes);

  00077	83 c4 04	 add	 esp, 4

; 256  :         return _Traits::_Allocate(_Bytes);

  0007a	c7 45 dc 00 00
	00 00		 mov	 DWORD PTR $T4[ebp+4], 0

; 1483 :         _Ptr = _Unfancy(_Al_.allocate(1));

  00081	89 45 d0	 mov	 DWORD PTR __Proxy$3[ebp], eax

; 1202 :     _CONSTEXPR20 _Container_proxy(_Container_base12* _Mycont_) noexcept : _Mycont(_Mycont_) {}

  00084	89 30		 mov	 DWORD PTR [eax], esi

; 1203 : 
; 1204 :     const _Container_base12* _Mycont       = nullptr;
; 1205 :     mutable _Iterator_base12* _Myfirstiter = nullptr;

  00086	c7 40 04 00 00
	00 00		 mov	 DWORD PTR [eax+4], 0

; 1485 :         _Mycont._Myproxy = _Ptr;

  0008d	89 06		 mov	 DWORD PTR [esi], eax
; File C:\Program Files\Microsoft Visual Studio\2022\Professional\VC\Tools\MSVC\14.44.35207\include\deque

; 731  :         _Container_proxy_ptr12<_Alproxy_ty> _Proxy(_Alproxy, _Get_data());

  0008f	c7 45 fc 00 00
	00 00		 mov	 DWORD PTR __$EHRec$[ebp+8], 0

; 732  : 
; 733  :         _Tidy_guard<deque> _Guard{this};

  00096	89 75 dc	 mov	 DWORD PTR __Guard$6[ebp], esi
  00099	c6 45 fc 01	 mov	 BYTE PTR __$EHRec$[ebp+8], 1

; 120  :         return !(*this == _Right);

  0009d	3b 5d e8	 cmp	 ebx, DWORD PTR $T8[ebp]

; 734  :         for (; _First != _Last; ++_First) {

  000a0	0f 84 b2 00 00
	00		 je	 $LN138@deque
  000a6	8b d3		 mov	 edx, ebx
$LL27@deque:

; 572  :         return static_cast<_Map_difference_type>((_Off / _Block_size) & (_Mapsize - 1));

  000a8	8b 47 08	 mov	 eax, DWORD PTR [edi+8]
  000ab	8b ca		 mov	 ecx, edx
  000ad	48		 dec	 eax
  000ae	d1 e9		 shr	 ecx, 1
  000b0	23 c8		 and	 ecx, eax

; 583  :         const auto _Block_off = static_cast<difference_type>(_Off % _Block_size);

  000b2	83 e2 01	 and	 edx, 1

; 584  :         return _Map[_Block][_Block_off];

  000b5	8b 47 04	 mov	 eax, DWORD PTR [edi+4]
  000b8	8b 04 88	 mov	 eax, DWORD PTR [eax+ecx*4]

; 1144 :         if ((_Myoff() + _Mysize()) % _Block_size == 0 && _Mapsize() <= (_Mysize() + _Block_size) / _Block_size) {

  000bb	8b 4e 10	 mov	 ecx, DWORD PTR [esi+16]

; 584  :         return _Map[_Block][_Block_off];

  000be	8d 04 d0	 lea	 eax, DWORD PTR [eax+edx*8]
  000c1	89 45 e0	 mov	 DWORD PTR $T7[ebp], eax

; 1144 :         if ((_Myoff() + _Mysize()) % _Block_size == 0 && _Mapsize() <= (_Mysize() + _Block_size) / _Block_size) {

  000c4	8b 46 0c	 mov	 eax, DWORD PTR [esi+12]
  000c7	03 c1		 add	 eax, ecx
  000c9	a8 01		 test	 al, 1
  000cb	75 13		 jne	 SHORT $LN75@deque
  000cd	8d 41 02	 lea	 eax, DWORD PTR [ecx+2]
  000d0	d1 e8		 shr	 eax, 1
  000d2	39 46 08	 cmp	 DWORD PTR [esi+8], eax
  000d5	77 09		 ja	 SHORT $LN75@deque

; 1145 :             _Growmap(1);

  000d7	6a 01		 push	 1
  000d9	8b ce		 mov	 ecx, esi
  000db	e8 00 00 00 00	 call	 ?_Growmap@?$deque@USFXHIT_COUNT@@V?$allocator@USFXHIT_COUNT@@@std@@@std@@AAEXI@Z ; std::deque<SFXHIT_COUNT,std::allocator<SFXHIT_COUNT> >::_Growmap
$LN75@deque:

; 1146 :         }
; 1147 :         _Myoff() &= _Mapsize() * _Block_size - 1;

  000e0	8b 4e 08	 mov	 ecx, DWORD PTR [esi+8]

; 1148 :         const auto _Newoff = static_cast<size_type>(_Myoff() + _Mysize());

  000e3	8b 5e 10	 mov	 ebx, DWORD PTR [esi+16]
  000e6	8d 04 4d ff ff
	ff ff		 lea	 eax, DWORD PTR [ecx*2-1]
  000ed	21 46 0c	 and	 DWORD PTR [esi+12], eax

; 572  :         return static_cast<_Map_difference_type>((_Off / _Block_size) & (_Mapsize - 1));

  000f0	8d 41 ff	 lea	 eax, DWORD PTR [ecx-1]

; 1148 :         const auto _Newoff = static_cast<size_type>(_Myoff() + _Mysize());

  000f3	03 5e 0c	 add	 ebx, DWORD PTR [esi+12]

; 572  :         return static_cast<_Map_difference_type>((_Off / _Block_size) & (_Mapsize - 1));

  000f6	8b d3		 mov	 edx, ebx
  000f8	d1 ea		 shr	 edx, 1
  000fa	23 c2		 and	 eax, edx
  000fc	89 55 e4	 mov	 DWORD PTR tv842[ebp], edx

; 1150 :         if (_Map()[_Block] == nullptr) {

  000ff	8d 3c 85 00 00
	00 00		 lea	 edi, DWORD PTR [eax*4]
  00106	8b 46 04	 mov	 eax, DWORD PTR [esi+4]
  00109	83 3c 07 00	 cmp	 DWORD PTR [edi+eax], 0
  0010d	75 13		 jne	 SHORT $LN76@deque
; File C:\Program Files\Microsoft Visual Studio\2022\Professional\VC\Tools\MSVC\14.44.35207\include\xmemory

; 136  :         return ::operator new(_Bytes);

  0010f	6a 10		 push	 16			; 00000010H
  00111	e8 00 00 00 00	 call	 ??2@YAPAXI@Z		; operator new
; File C:\Program Files\Microsoft Visual Studio\2022\Professional\VC\Tools\MSVC\14.44.35207\include\deque

; 1151 :             _Map()[_Block] = _Getal().allocate(_Block_size);

  00116	8b 4e 04	 mov	 ecx, DWORD PTR [esi+4]
; File C:\Program Files\Microsoft Visual Studio\2022\Professional\VC\Tools\MSVC\14.44.35207\include\xmemory

; 136  :         return ::operator new(_Bytes);

  00119	83 c4 04	 add	 esp, 4
  0011c	8b 55 e4	 mov	 edx, DWORD PTR tv842[ebp]
; File C:\Program Files\Microsoft Visual Studio\2022\Professional\VC\Tools\MSVC\14.44.35207\include\deque

; 1151 :             _Map()[_Block] = _Getal().allocate(_Block_size);

  0011f	89 04 0f	 mov	 DWORD PTR [edi+ecx], eax
$LN76@deque:

; 572  :         return static_cast<_Map_difference_type>((_Off / _Block_size) & (_Mapsize - 1));

  00122	8b 7e 08	 mov	 edi, DWORD PTR [esi+8]

; 589  :         const auto _Block_off = static_cast<difference_type>(_Off % _Block_size);

  00125	83 e3 01	 and	 ebx, 1

; 1154 :         _Alty_traits::construct(_Getal(), _Get_data()._Address_subscript(_Newoff), _STD forward<_Tys>(_Vals)...);

  00128	8b 46 04	 mov	 eax, DWORD PTR [esi+4]

; 572  :         return static_cast<_Map_difference_type>((_Off / _Block_size) & (_Mapsize - 1));

  0012b	4f		 dec	 edi
  0012c	23 fa		 and	 edi, edx

; 1154 :         _Alty_traits::construct(_Getal(), _Get_data()._Address_subscript(_Newoff), _STD forward<_Tys>(_Vals)...);

  0012e	8b 55 e0	 mov	 edx, DWORD PTR $T7[ebp]
  00131	8b 04 b8	 mov	 eax, DWORD PTR [eax+edi*4]
  00134	8b 0a		 mov	 ecx, DWORD PTR [edx]
  00136	8b 52 04	 mov	 edx, DWORD PTR [edx+4]

; 734  :         for (; _First != _Last; ++_First) {

  00139	8b 7d 08	 mov	 edi, DWORD PTR __Right$[ebp]

; 1154 :         _Alty_traits::construct(_Getal(), _Get_data()._Address_subscript(_Newoff), _STD forward<_Tys>(_Vals)...);

  0013c	89 0c d8	 mov	 DWORD PTR [eax+ebx*8], ecx
  0013f	89 54 d8 04	 mov	 DWORD PTR [eax+ebx*8+4], edx

; 53   :         ++_Myoff;

  00143	8b 5d ec	 mov	 ebx, DWORD PTR $T9[ebp]

; 1156 :         ++_Mysize();

  00146	ff 46 10	 inc	 DWORD PTR [esi+16]

; 53   :         ++_Myoff;

  00149	43		 inc	 ebx
  0014a	8b d3		 mov	 edx, ebx
  0014c	89 5d ec	 mov	 DWORD PTR $T9[ebp], ebx

; 120  :         return !(*this == _Right);

  0014f	3b 55 e8	 cmp	 edx, DWORD PTR $T8[ebp]

; 734  :         for (; _First != _Last; ++_First) {

  00152	0f 85 50 ff ff
	ff		 jne	 $LL27@deque
$LN138@deque:

; 698  :     }

  00158	8b c6		 mov	 eax, esi
  0015a	8b 4d f4	 mov	 ecx, DWORD PTR __$EHRec$[ebp]
  0015d	64 89 0d 00 00
	00 00		 mov	 DWORD PTR fs:0, ecx
  00164	59		 pop	 ecx
  00165	5f		 pop	 edi
  00166	5e		 pop	 esi
  00167	5b		 pop	 ebx
  00168	8b e5		 mov	 esp, ebp
  0016a	5d		 pop	 ebp
  0016b	c2 04 00	 ret	 4
_TEXT	ENDS
;	COMDAT text$x
text$x	SEGMENT
__unwindfunclet$??0?$deque@USFXHIT_COUNT@@V?$allocator@USFXHIT_COUNT@@@std@@@std@@QAE@ABV01@@Z$0:
  00000	8d 4d d0	 lea	 ecx, DWORD PTR __Proxy$3[ebp]
  00003	e9 00 00 00 00	 jmp	 ??1?$_Container_proxy_ptr12@V?$allocator@U_Container_proxy@std@@@std@@@std@@QAE@XZ ; std::_Container_proxy_ptr12<std::allocator<std::_Container_proxy> >::~_Container_proxy_ptr12<std::allocator<std::_Container_proxy> >
__unwindfunclet$??0?$deque@USFXHIT_COUNT@@V?$allocator@USFXHIT_COUNT@@@std@@@std@@QAE@ABV01@@Z$1:
  00008	8d 4d dc	 lea	 ecx, DWORD PTR __Guard$6[ebp]
  0000b	e9 00 00 00 00	 jmp	 ??1?$_Tidy_guard@V?$deque@USFXHIT_COUNT@@V?$allocator@USFXHIT_COUNT@@@std@@@std@@@std@@QAE@XZ ; std::_Tidy_guard<std::deque<SFXHIT_COUNT,std::allocator<SFXHIT_COUNT> > >::~_Tidy_guard<std::deque<SFXHIT_COUNT,std::allocator<SFXHIT_COUNT> > >
  00010	cc		 int	 3
  00011	cc		 int	 3
  00012	cc		 int	 3
  00013	cc		 int	 3
  00014	cc		 int	 3
__ehhandler$??0?$deque@USFXHIT_COUNT@@V?$allocator@USFXHIT_COUNT@@@std@@@std@@QAE@ABV01@@Z:
  00015	90		 npad	 1
  00016	90		 npad	 1
  00017	8b 54 24 08	 mov	 edx, DWORD PTR [esp+8]
  0001b	8d 42 0c	 lea	 eax, DWORD PTR [edx+12]
  0001e	8b 4a cc	 mov	 ecx, DWORD PTR [edx-52]
  00021	33 c8		 xor	 ecx, eax
  00023	e8 00 00 00 00	 call	 @__security_check_cookie@4
  00028	b8 00 00 00 00	 mov	 eax, OFFSET __ehfuncinfo$??0?$deque@USFXHIT_COUNT@@V?$allocator@USFXHIT_COUNT@@@std@@@std@@QAE@ABV01@@Z
  0002d	e9 00 00 00 00	 jmp	 ___CxxFrameHandler3
text$x	ENDS
??0?$deque@USFXHIT_COUNT@@V?$allocator@USFXHIT_COUNT@@@std@@@std@@QAE@ABV01@@Z ENDP ; std::deque<SFXHIT_COUNT,std::allocator<SFXHIT_COUNT> >::deque<SFXHIT_COUNT,std::allocator<SFXHIT_COUNT> >
; Function compile flags: /Ogtp
; File C:\Program Files\Microsoft Visual Studio\2022\Professional\VC\Tools\MSVC\14.44.35207\include\xmemory
;	COMDAT ?deallocate@?$allocator@PAUSFXHIT_COUNT@@@std@@QAEXQAPAUSFXHIT_COUNT@@I@Z
_TEXT	SEGMENT
__Ptr$ = 8						; size = 4
__Count$ = 12						; size = 4
?deallocate@?$allocator@PAUSFXHIT_COUNT@@@std@@QAEXQAPAUSFXHIT_COUNT@@I@Z PROC ; std::allocator<SFXHIT_COUNT *>::deallocate, COMDAT
; _this$ = ecx

; 982  :     _CONSTEXPR20 void deallocate(_Ty* const _Ptr, const size_t _Count) noexcept /* strengthened */ {

  00000	55		 push	 ebp
  00001	8b ec		 mov	 ebp, esp

; 983  :         _STL_ASSERT(_Ptr != nullptr || _Count == 0, "null pointer cannot point to a block of non-zero size");
; 984  :         // no overflow check on the following multiply; we assume _Allocate did that check
; 985  :         _STD _Deallocate<_New_alignof<_Ty>>(_Ptr, sizeof(_Ty) * _Count);

  00003	8b 45 0c	 mov	 eax, DWORD PTR __Count$[ebp]
  00006	8d 0c 85 00 00
	00 00		 lea	 ecx, DWORD PTR [eax*4]
  0000d	8b 45 08	 mov	 eax, DWORD PTR __Ptr$[ebp]

; 284  :         if (_Bytes >= _Big_allocation_threshold) {

  00010	81 f9 00 10 00
	00		 cmp	 ecx, 4096		; 00001000H
  00016	72 12		 jb	 SHORT $LN11@deallocate

; 205  :     const uintptr_t _Ptr_container   = _Ptr_user[-1];

  00018	8b 50 fc	 mov	 edx, DWORD PTR [eax-4]
  0001b	83 c1 23	 add	 ecx, 35			; 00000023H

; 206  : 
; 207  :     // If the following asserts, it likely means that we are performing
; 208  :     // an aligned delete on memory coming from an unaligned allocation.
; 209  :     _STL_ASSERT(_Ptr_user[-2] == _Big_allocation_sentinel, "invalid argument");
; 210  : 
; 211  :     // Extra paranoia on aligned allocation/deallocation; ensure _Ptr_container is
; 212  :     // in range [_Min_back_shift, _Non_user_size]
; 213  : #ifdef _DEBUG
; 214  :     constexpr uintptr_t _Min_back_shift = 2 * sizeof(void*);
; 215  : #else // ^^^ defined(_DEBUG) / !defined(_DEBUG) vvv
; 216  :     constexpr uintptr_t _Min_back_shift = sizeof(void*);
; 217  : #endif // ^^^ !defined(_DEBUG) ^^^
; 218  :     const uintptr_t _Back_shift = reinterpret_cast<uintptr_t>(_Ptr) - _Ptr_container;

  0001e	2b c2		 sub	 eax, edx

; 219  :     _STL_VERIFY(_Back_shift >= _Min_back_shift && _Back_shift <= _Non_user_size, "invalid argument");

  00020	83 c0 fc	 add	 eax, -4			; fffffffcH
  00023	83 f8 1f	 cmp	 eax, 31			; 0000001fH
  00026	77 10		 ja	 SHORT $LN10@deallocate

; 220  :     _Ptr = reinterpret_cast<void*>(_Ptr_container);

  00028	8b c2		 mov	 eax, edx
$LN11@deallocate:

; 289  :         ::operator delete(_Ptr, _Bytes);

  0002a	51		 push	 ecx
  0002b	50		 push	 eax
  0002c	e8 00 00 00 00	 call	 ??3@YAXPAXI@Z		; operator delete
  00031	83 c4 08	 add	 esp, 8

; 986  :     }

  00034	5d		 pop	 ebp
  00035	c2 08 00	 ret	 8
$LN10@deallocate:

; 219  :     _STL_VERIFY(_Back_shift >= _Min_back_shift && _Back_shift <= _Non_user_size, "invalid argument");

  00038	6a 00		 push	 0
  0003a	6a 00		 push	 0
  0003c	6a 00		 push	 0
  0003e	6a 00		 push	 0
  00040	6a 00		 push	 0
  00042	e8 00 00 00 00	 call	 __invoke_watson
$LN14@deallocate:
  00047	cc		 int	 3
?deallocate@?$allocator@PAUSFXHIT_COUNT@@@std@@QAEXQAPAUSFXHIT_COUNT@@I@Z ENDP ; std::allocator<SFXHIT_COUNT *>::deallocate
_TEXT	ENDS
; Function compile flags: /Ogtp
; File C:\Program Files\Microsoft Visual Studio\2022\Professional\VC\Tools\MSVC\14.44.35207\include\xtree
;	COMDAT ??E?$_Tree_unchecked_const_iterator@V?$_Tree_val@U?$_Tree_simple_types@U?$pair@$$CBKV?$queue@USFXHIT_COUNT@@V?$deque@USFXHIT_COUNT@@V?$allocator@USFXHIT_COUNT@@@std@@@std@@@std@@@std@@@std@@@std@@U_Iterator_base0@2@@std@@QAEAAV01@XZ
_TEXT	SEGMENT
??E?$_Tree_unchecked_const_iterator@V?$_Tree_val@U?$_Tree_simple_types@U?$pair@$$CBKV?$queue@USFXHIT_COUNT@@V?$deque@USFXHIT_COUNT@@V?$allocator@USFXHIT_COUNT@@@std@@@std@@@std@@@std@@@std@@@std@@U_Iterator_base0@2@@std@@QAEAAV01@XZ PROC ; std::_Tree_unchecked_const_iterator<std::_Tree_val<std::_Tree_simple_types<std::pair<unsigned long const ,std::queue<SFXHIT_COUNT,std::deque<SFXHIT_COUNT,std::allocator<SFXHIT_COUNT> > > > > >,std::_Iterator_base0>::operator++, COMDAT
; _this$ = ecx

; 49   :     _Tree_unchecked_const_iterator& operator++() noexcept {

  00000	56		 push	 esi
  00001	8b f1		 mov	 esi, ecx
  00003	57		 push	 edi

; 50   :         if (_Ptr->_Right->_Isnil) { // climb looking for right subtree

  00004	8b 16		 mov	 edx, DWORD PTR [esi]
  00006	8b 7a 08	 mov	 edi, DWORD PTR [edx+8]
  00009	80 7f 0d 00	 cmp	 BYTE PTR [edi+13], 0
  0000d	74 22		 je	 SHORT $LN4@operator

; 51   :             _Nodeptr _Pnode;
; 52   :             while (!(_Pnode = _Ptr->_Parent)->_Isnil && _Ptr == _Pnode->_Right) {

  0000f	8b 42 04	 mov	 eax, DWORD PTR [edx+4]
  00012	80 78 0d 00	 cmp	 BYTE PTR [eax+13], 0
  00016	75 12		 jne	 SHORT $LN21@operator
$LL2@operator:
  00018	3b 50 08	 cmp	 edx, DWORD PTR [eax+8]
  0001b	75 0d		 jne	 SHORT $LN21@operator

; 53   :                 _Ptr = _Pnode; // ==> parent while right subtree

  0001d	89 06		 mov	 DWORD PTR [esi], eax
  0001f	8b d0		 mov	 edx, eax
  00021	8b 40 04	 mov	 eax, DWORD PTR [eax+4]
  00024	80 78 0d 00	 cmp	 BYTE PTR [eax+13], 0
  00028	74 ee		 je	 SHORT $LL2@operator
$LN21@operator:

; 54   :             }
; 55   : 
; 56   :             _Ptr = _Pnode; // ==> parent (head if end())
; 57   :         } else {
; 58   :             _Ptr = _Mytree::_Min(_Ptr->_Right); // ==> smallest of right subtree
; 59   :         }
; 60   : 
; 61   :         return *this;

  0002a	89 06		 mov	 DWORD PTR [esi], eax

; 62   :     }

  0002c	8b c6		 mov	 eax, esi
  0002e	5f		 pop	 edi
  0002f	5e		 pop	 esi
  00030	c3		 ret	 0
$LN4@operator:

; 476  :         while (!_Pnode->_Left->_Isnil) {

  00031	8b 0f		 mov	 ecx, DWORD PTR [edi]
  00033	80 79 0d 00	 cmp	 BYTE PTR [ecx+13], 0
  00037	75 13		 jne	 SHORT $LN10@operator
  00039	0f 1f 80 00 00
	00 00		 npad	 7
$LL9@operator:
  00040	8b 01		 mov	 eax, DWORD PTR [ecx]

; 477  :             _Pnode = _Pnode->_Left;

  00042	8b f9		 mov	 edi, ecx
  00044	8b c8		 mov	 ecx, eax
  00046	80 78 0d 00	 cmp	 BYTE PTR [eax+13], 0
  0004a	74 f4		 je	 SHORT $LL9@operator
$LN10@operator:

; 54   :             }
; 55   : 
; 56   :             _Ptr = _Pnode; // ==> parent (head if end())
; 57   :         } else {
; 58   :             _Ptr = _Mytree::_Min(_Ptr->_Right); // ==> smallest of right subtree
; 59   :         }
; 60   : 
; 61   :         return *this;

  0004c	89 3e		 mov	 DWORD PTR [esi], edi

; 62   :     }

  0004e	8b c6		 mov	 eax, esi
  00050	5f		 pop	 edi
  00051	5e		 pop	 esi
  00052	c3		 ret	 0
??E?$_Tree_unchecked_const_iterator@V?$_Tree_val@U?$_Tree_simple_types@U?$pair@$$CBKV?$queue@USFXHIT_COUNT@@V?$deque@USFXHIT_COUNT@@V?$allocator@USFXHIT_COUNT@@@std@@@std@@@std@@@std@@@std@@@std@@U_Iterator_base0@2@@std@@QAEAAV01@XZ ENDP ; std::_Tree_unchecked_const_iterator<std::_Tree_val<std::_Tree_simple_types<std::pair<unsigned long const ,std::queue<SFXHIT_COUNT,std::deque<SFXHIT_COUNT,std::allocator<SFXHIT_COUNT> > > > > >,std::_Iterator_base0>::operator++
_TEXT	ENDS
; Function compile flags: /Ogtp
; File C:\IAGOS\server\v18\Source\Source\_Common\MoverAttack.cpp
;	COMDAT ?GetWandATKMultiplier@@YAMH@Z
_TEXT	SEGMENT
_nLevel$ = 8						; size = 4
?GetWandATKMultiplier@@YAMH@Z PROC			; GetWandATKMultiplier, COMDAT

; 102  : {

  00000	55		 push	 ebp
  00001	8b ec		 mov	 ebp, esp

; 103  : 	switch( nLevel )  

  00003	8b 45 08	 mov	 eax, DWORD PTR _nLevel$[ebp]
  00006	83 f8 04	 cmp	 eax, 4
  00009	77 2f		 ja	 SHORT $LN2@GetWandATK
  0000b	ff 24 85 00 00
	00 00		 jmp	 DWORD PTR $LN10@GetWandATK[eax*4]
$LN4@GetWandATK:

; 104  : 	{
; 105  : 	case 0:	return 0.6f;	

  00012	d9 05 00 00 00
	00		 fld	 DWORD PTR __real@3f19999a

; 112  : }

  00018	5d		 pop	 ebp
  00019	c3		 ret	 0
$LN5@GetWandATK:

; 106  : 	case 1:	return 0.8f;

  0001a	d9 05 00 00 00
	00		 fld	 DWORD PTR __real@3f4ccccd

; 112  : }

  00020	5d		 pop	 ebp
  00021	c3		 ret	 0
$LN6@GetWandATK:

; 107  : 	case 2: return 1.05f;

  00022	d9 05 00 00 00
	00		 fld	 DWORD PTR __real@3f866666

; 112  : }

  00028	5d		 pop	 ebp
  00029	c3		 ret	 0
$LN7@GetWandATK:

; 108  : 	case 3: return 1.1f;

  0002a	d9 05 00 00 00
	00		 fld	 DWORD PTR __real@3f8ccccd

; 112  : }

  00030	5d		 pop	 ebp
  00031	c3		 ret	 0
$LN8@GetWandATK:

; 109  : 	case 4: return 1.3f;

  00032	d9 05 00 00 00
	00		 fld	 DWORD PTR __real@3fa66666

; 112  : }

  00038	5d		 pop	 ebp
  00039	c3		 ret	 0
$LN2@GetWandATK:

; 110  : 	}
; 111  : 	return 1.0f;

  0003a	d9 e8		 fld1

; 112  : }

  0003c	5d		 pop	 ebp
  0003d	c3		 ret	 0
  0003e	66 90		 npad	 2
$LN10@GetWandATK:
  00040	00 00 00 00	 DD	 $LN4@GetWandATK
  00044	00 00 00 00	 DD	 $LN5@GetWandATK
  00048	00 00 00 00	 DD	 $LN6@GetWandATK
  0004c	00 00 00 00	 DD	 $LN7@GetWandATK
  00050	00 00 00 00	 DD	 $LN8@GetWandATK
?GetWandATKMultiplier@@YAMH@Z ENDP			; GetWandATKMultiplier
_TEXT	ENDS
; Function compile flags: /Ogtp
; File C:\IAGOS\server\v18\Source\Source\_Common\MoverAttack.cpp
;	COMDAT ?GetChargeMultiplier@@YAMH@Z
_TEXT	SEGMENT
_nLevel$ = 8						; size = 4
?GetChargeMultiplier@@YAMH@Z PROC			; GetChargeMultiplier, COMDAT

; 89   : {

  00000	55		 push	 ebp
  00001	8b ec		 mov	 ebp, esp

; 90   : 	//TRACE("GetChargeMultiplier(%d)\n", nLevel );
; 91   : 	ASSERT( nLevel <= 4 );
; 92   : 
; 93   : 	static float factors[5] = { 1.0f, 1.2f, 1.5f, 1.8f, 2.2f };
; 94   : 	if( 0 <= nLevel && nLevel <= 4 )

  00003	8b 45 08	 mov	 eax, DWORD PTR _nLevel$[ebp]
  00006	83 f8 04	 cmp	 eax, 4
  00009	77 09		 ja	 SHORT $LN2@GetChargeM

; 95   : 		return factors[ nLevel ];

  0000b	d9 04 85 00 00
	00 00		 fld	 DWORD PTR ?factors@?1??GetChargeMultiplier@@YAMH@Z@4PAMA[eax*4]

; 98   : }

  00012	5d		 pop	 ebp
  00013	c3		 ret	 0
$LN2@GetChargeM:

; 96   : 
; 97   : 	return 1.0f;

  00014	d9 e8		 fld1

; 98   : }

  00016	5d		 pop	 ebp
  00017	c3		 ret	 0
?GetChargeMultiplier@@YAMH@Z ENDP			; GetChargeMultiplier
_TEXT	ENDS
; Function compile flags: /Ogtp
; File C:\IAGOS\server\v18\Source\Source\_Common\MoverAttack.cpp
;	COMDAT ?GetAttackSpeedPlusValue@@YAMH@Z
_TEXT	SEGMENT
_fPlusValue$ = -72					; size = 72
_n$ = 8							; size = 4
?GetAttackSpeedPlusValue@@YAMH@Z PROC			; GetAttackSpeedPlusValue, COMDAT

; 70   : {

  00000	55		 push	 ebp
  00001	8b ec		 mov	 ebp, esp
  00003	83 ec 48	 sub	 esp, 72			; 00000048H

; 71   : 	const int MAX_ATTACK_SPEED_PLUSVALUE = 18;
; 72   : 
; 73   : 	int nIndex = n / 10;
; 74   : 	nIndex = max( nIndex, 0 );
; 75   : 	nIndex = min( nIndex, (MAX_ATTACK_SPEED_PLUSVALUE-1) );
; 76   : 
; 77   : 	float fPlusValue[MAX_ATTACK_SPEED_PLUSVALUE] = {
; 78   : 		0.08f, 0.16f, 0.24f, 0.32f,	0.40f,

  00006	0f 28 05 00 00
	00 00		 movaps	 xmm0, XMMWORD PTR __xmm@3ea3d70a3e75c28f3e23d70a3da3d70a
  0000d	b8 67 66 66 66	 mov	 eax, 1717986919		; 66666667H
  00012	f7 6d 08	 imul	 DWORD PTR _n$[ebp]
  00015	0f 11 45 b8	 movups	 XMMWORD PTR _fPlusValue$[ebp], xmm0
  00019	0f 28 05 00 00
	00 00		 movaps	 xmm0, XMMWORD PTR __xmm@3f23d70a3f0f5c293ef5c28f3ecccccd
  00020	0f 11 45 c8	 movups	 XMMWORD PTR _fPlusValue$[ebp+16], xmm0
  00024	33 c9		 xor	 ecx, ecx

; 79   : 		0.48f, 0.56f, 0.64f, 0.72f,	0.80f,
; 80   : 		0.88f, 0.96f, 1.04f, 1.12f,	1.20f,
; 81   : 		1.30f, 1.38f, 1.50f

  00026	c7 45 f8 d7 a3
	b0 3f		 mov	 DWORD PTR _fPlusValue$[ebp+64], 1068540887 ; 3fb0a3d7H
  0002d	0f 28 05 00 00
	00 00		 movaps	 xmm0, XMMWORD PTR __xmm@3f75c28f3f6147ae3f4ccccd3f3851ec
  00034	c1 fa 02	 sar	 edx, 2
  00037	8b c2		 mov	 eax, edx
  00039	c7 45 fc 00 00
	c0 3f		 mov	 DWORD PTR _fPlusValue$[ebp+68], 1069547520 ; 3fc00000H
  00040	c1 e8 1f	 shr	 eax, 31			; 0000001fH
  00043	03 c2		 add	 eax, edx
  00045	85 c0		 test	 eax, eax
  00047	0f 11 45 d8	 movups	 XMMWORD PTR _fPlusValue$[ebp+32], xmm0
  0004b	0f 4f c8	 cmovg	 ecx, eax
  0004e	b8 11 00 00 00	 mov	 eax, 17			; 00000011H
  00053	0f 28 05 00 00
	00 00		 movaps	 xmm0, XMMWORD PTR __xmm@3fa666663f99999a3f8f5c293f851eb8
  0005a	3b c8		 cmp	 ecx, eax
  0005c	0f 11 45 e8	 movups	 XMMWORD PTR _fPlusValue$[ebp+48], xmm0
  00060	0f 4c c1	 cmovl	 eax, ecx

; 82   : 	};
; 83   : 
; 84   : 	return fPlusValue[nIndex];

  00063	d9 44 85 b8	 fld	 DWORD PTR _fPlusValue$[ebp+eax*4]

; 85   : }

  00067	8b e5		 mov	 esp, ebp
  00069	5d		 pop	 ebp
  0006a	c3		 ret	 0
?GetAttackSpeedPlusValue@@YAMH@Z ENDP			; GetAttackSpeedPlusValue
_TEXT	ENDS
; Function compile flags: /Ogtp
; File C:\Program Files\Microsoft Visual Studio\2022\Professional\VC\Tools\MSVC\14.44.35207\include\xmemory
;	COMDAT ??$_Allocate_manually_vector_aligned@U_Default_allocate_traits@std@@@std@@YAPAXI@Z
_TEXT	SEGMENT
__Bytes$ = 8						; size = 4
??$_Allocate_manually_vector_aligned@U_Default_allocate_traits@std@@@std@@YAPAXI@Z PROC ; std::_Allocate_manually_vector_aligned<std::_Default_allocate_traits>, COMDAT

; 182  : __declspec(allocator) void* _Allocate_manually_vector_aligned(const size_t _Bytes) {

  00000	55		 push	 ebp
  00001	8b ec		 mov	 ebp, esp

; 183  :     // allocate _Bytes manually aligned to at least _Big_allocation_alignment
; 184  :     const size_t _Block_size = _Non_user_size + _Bytes;

  00003	8b 45 08	 mov	 eax, DWORD PTR __Bytes$[ebp]
  00006	8d 48 23	 lea	 ecx, DWORD PTR [eax+35]

; 185  :     if (_Block_size <= _Bytes) {

  00009	3b c8		 cmp	 ecx, eax
  0000b	0f 86 00 00 00
	00		 jbe	 ?_Throw_bad_array_new_length@std@@YAXXZ ; std::_Throw_bad_array_new_length

; 136  :         return ::operator new(_Bytes);

  00011	51		 push	 ecx
  00012	e8 00 00 00 00	 call	 ??2@YAPAXI@Z		; operator new

; 186  :         _Throw_bad_array_new_length(); // add overflow
; 187  :     }
; 188  : 
; 189  :     const uintptr_t _Ptr_container = reinterpret_cast<uintptr_t>(_Traits::_Allocate(_Block_size));

  00017	8b c8		 mov	 ecx, eax

; 136  :         return ::operator new(_Bytes);

  00019	83 c4 04	 add	 esp, 4

; 190  :     _STL_VERIFY(_Ptr_container != 0, "invalid argument"); // validate even in release since we're doing p[-1]

  0001c	85 c9		 test	 ecx, ecx
  0001e	74 0b		 je	 SHORT $LN9@Allocate_m

; 191  :     void* const _Ptr = reinterpret_cast<void*>((_Ptr_container + _Non_user_size) & ~(_Big_allocation_alignment - 1));

  00020	8d 41 23	 lea	 eax, DWORD PTR [ecx+35]
  00023	83 e0 e0	 and	 eax, -32		; ffffffe0H

; 192  :     static_cast<uintptr_t*>(_Ptr)[-1] = _Ptr_container;

  00026	89 48 fc	 mov	 DWORD PTR [eax-4], ecx

; 193  : 
; 194  : #ifdef _DEBUG
; 195  :     static_cast<uintptr_t*>(_Ptr)[-2] = _Big_allocation_sentinel;
; 196  : #endif // defined(_DEBUG)
; 197  :     return _Ptr;
; 198  : }

  00029	5d		 pop	 ebp
  0002a	c3		 ret	 0
$LN9@Allocate_m:

; 190  :     _STL_VERIFY(_Ptr_container != 0, "invalid argument"); // validate even in release since we're doing p[-1]

  0002b	6a 00		 push	 0
  0002d	6a 00		 push	 0
  0002f	6a 00		 push	 0
  00031	6a 00		 push	 0
  00033	6a 00		 push	 0
  00035	e8 00 00 00 00	 call	 __invoke_watson
$LN7@Allocate_m:
  0003a	cc		 int	 3
??$_Allocate_manually_vector_aligned@U_Default_allocate_traits@std@@@std@@YAPAXI@Z ENDP ; std::_Allocate_manually_vector_aligned<std::_Default_allocate_traits>
_TEXT	ENDS
; Function compile flags: /Ogtp
; File C:\IAGOS\server\v18\Source\Source\_Common\MoverAttack.cpp
; File C:\IAGOS\server\v18\Source\Source\_Common\Obj.h
; File C:\IAGOS\server\v18\Source\Source\_AIInterface\ActionMover.h
; File C:\IAGOS\server\v18\Source\Source\_Common\Mover.h
; File C:\IAGOS\server\v18\Source\Source\_Common\MoverAttack.cpp
; File C:\IAGOS\server\v18\Source\Source\_AIInterface\ActionMover.h
; File C:\IAGOS\server\v18\Source\Source\_Common\MoverAttack.cpp
; File C:\IAGOS\server\v18\Source\Source\_AIInterface\ActionMover.h
; File C:\IAGOS\server\v18\Source\Source\_Common\MoverAttack.cpp
; File C:\IAGOS\server\v18\Source\Source\_AIInterface\ActionMover.h
; File C:\IAGOS\server\v18\Source\Source\_Common\MoverAttack.cpp
; File C:\IAGOS\server\v18\Source\Source\_Common\XUtil3D.h
; File C:\IAGOS\server\v18\Source\Source\_Common\MoverAttack.cpp
; File C:\Program Files (x86)\Windows Kits\10\Include\10.0.26100.0\ucrt\corecrt_math.h
; File C:\IAGOS\server\v18\Source\Source\_Common\XUtil3D.h
; File C:\Program Files (x86)\Windows Kits\10\Include\10.0.26100.0\ucrt\corecrt_math.h
; File C:\IAGOS\server\v18\Source\Source\_Common\XUtil3D.h
; File C:\IAGOS\server\v18\Source\Source\_Common\Mover.h
; File C:\IAGOS\server\v18\Source\Source\_Common\MoverAttack.cpp
;	COMDAT ?AttackBySFX@@YAHPAVCMover@@AAUSFXHIT_INFO@@@Z
_TEXT	SEGMENT
_pTarget$1$ = -16					; size = 4
tv443 = -12						; size = 8
_pSkillProp$1 = -8					; size = 4
_pAddSkillProp$2 = -4					; size = 4
_pAttacker$ = 8						; size = 4
_info$ = 12						; size = 4
_nParam$1$ = 12						; size = 4
_fSpeed$1$ = 12						; size = 4
?AttackBySFX@@YAHPAVCMover@@AAUSFXHIT_INFO@@@Z PROC	; AttackBySFX, COMDAT

; 2248 : {

  00000	55		 push	 ebp
  00001	8b ec		 mov	 ebp, esp
  00003	83 ec 10	 sub	 esp, 16			; 00000010H
  00006	56		 push	 esi
  00007	57		 push	 edi

; 2249 : 	CMover* pTarget	= prj.GetMover( info.idTarget );

  00008	8b 7d 0c	 mov	 edi, DWORD PTR _info$[ebp]
  0000b	b9 00 00 00 00	 mov	 ecx, OFFSET ?prj@@3VCProject@@A ; prj
  00010	ff 37		 push	 DWORD PTR [edi]
  00012	e8 00 00 00 00	 call	 ?GetMover@CProject@@QAEPAVCMover@@K@Z ; CProject::GetMover
  00017	8b f0		 mov	 esi, eax
  00019	89 75 f0	 mov	 DWORD PTR _pTarget$1$[ebp], esi
; File C:\IAGOS\server\v18\Source\Source\_Common\Obj.h

; 327  : 	return pObj && ( pObj->IsDelete() == FALSE ); 

  0001c	85 f6		 test	 esi, esi
  0001e	0f 84 8d 01 00
	00		 je	 $LN49@AttackBySF

; 180  : 	BOOL			IsDelete()	{ return (m_dwFlags & OBJ_FLAG_DELETE);  }

  00024	f6 46 04 01	 test	 BYTE PTR [esi+4], 1

; 327  : 	return pObj && ( pObj->IsDelete() == FALSE ); 

  00028	0f 85 83 01 00
	00		 jne	 $LN49@AttackBySF
; File C:\IAGOS\server\v18\Source\Source\_AIInterface\ActionMover.h

; 189  : 	int nParam = nMagicPower;	// D0~D7

  0002e	8b 47 08	 mov	 eax, DWORD PTR [edi+8]
  00031	c1 e0 08	 shl	 eax, 8

; 190  : 	nParam |= (nDmgCnt << 8);	// D7~D15
; 191  : 	nParam |= (nSkill << 16);	// D16~D31

  00034	0b 47 0c	 or	 eax, DWORD PTR [edi+12]
  00037	c1 e0 08	 shl	 eax, 8
  0003a	0b 47 04	 or	 eax, DWORD PTR [edi+4]
  0003d	89 45 0c	 mov	 DWORD PTR _nParam$1$[ebp], eax
; File C:\IAGOS\server\v18\Source\Source\_Common\Mover.h

; 1251 : 	BOOL			IsLive() { return m_pActMover->IsDie() == FALSE || m_nHitPoint > 0; }		// && ¸¦  ||·Î ąŮ˛ĺŔ˝.  !=¸¦ >·Î ąŮ˛Ţ

  00040	8b 86 38 02 00
	00		 mov	 eax, DWORD PTR [esi+568]
  00046	f7 40 04 00 00
	00 08		 test	 DWORD PTR [eax+4], 134217728 ; 08000000H
  0004d	74 0d		 je	 SHORT $LN3@AttackBySF
  0004f	83 be f8 05 00
	00 00		 cmp	 DWORD PTR [esi+1528], 0
  00056	0f 8e 55 01 00
	00		 jle	 $LN49@AttackBySF
$LN3@AttackBySF:
; File C:\IAGOS\server\v18\Source\Source\_Common\MoverAttack.cpp

; 2258 : 	if( info.dwAtkFlags & AF_GENERIC )

  0005c	f6 47 18 01	 test	 BYTE PTR [edi+24], 1
  00060	74 16		 je	 SHORT $LN5@AttackBySF

; 2259 : 	{						
; 2260 : 		if( pAttacker->GetAttackResult( pTarget, 0 ) == FALSE )

  00062	8b 4d 08	 mov	 ecx, DWORD PTR _pAttacker$[ebp]
  00065	6a 00		 push	 0
  00067	56		 push	 esi
  00068	e8 00 00 00 00	 call	 ?GetAttackResult@CMover@@QAEHPAV1@K@Z ; CMover::GetAttackResult
  0006d	85 c0		 test	 eax, eax
  0006f	75 07		 jne	 SHORT $LN5@AttackBySF

; 2261 : 			info.dwAtkFlags = AF_MISS;

  00071	c7 47 18 02 00
	00 00		 mov	 DWORD PTR [edi+24], 2
$LN5@AttackBySF:

; 2262 : 	}
; 2263 : 
; 2264 : 	if( !g_eLocal.GetState( EVE_STEAL ) && pAttacker->IsSteal( pTarget ) )

  00078	6a 0d		 push	 13			; 0000000dH
  0007a	b9 00 00 00 00	 mov	 ecx, OFFSET ?g_eLocal@@3VCFlyffEvent@@A ; g_eLocal
  0007f	e8 00 00 00 00	 call	 ?GetState@CFlyffEvent@@QAEEH@Z ; CFlyffEvent::GetState
  00084	84 c0		 test	 al, al
  00086	75 11		 jne	 SHORT $LN6@AttackBySF
  00088	8b 4d 08	 mov	 ecx, DWORD PTR _pAttacker$[ebp]
  0008b	56		 push	 esi
  0008c	e8 00 00 00 00	 call	 ?IsSteal@CMover@@QAEHPAV1@@Z ; CMover::IsSteal
  00091	85 c0		 test	 eax, eax
  00093	0f 85 0d 01 00
	00		 jne	 $LN13@AttackBySF
$LN6@AttackBySF:
; File C:\IAGOS\server\v18\Source\Source\_AIInterface\ActionMover.h

; 49   : 	return (dwAtkFlags & (AF_MELEESKILL|AF_MAGICSKILL) );

  00099	f6 47 18 30	 test	 BYTE PTR [edi+24], 48	; 00000030H
; File C:\IAGOS\server\v18\Source\Source\_Common\MoverAttack.cpp

; 2267 : 	if( IsSkillAttack( info.dwAtkFlags ) )

  0009d	74 5f		 je	 SHORT $LN7@AttackBySF

; 2268 : 	{
; 2269 : 		// ˝şĹł Čż°ú¸¦ Ŕűżë.(ł»şÎżˇ µĄąĚÁöµµ Ć÷ÇÔµÇľî ŔÖ´Ů)
; 2270 : 		LPSKILL pSkill = pAttacker->GetSkill( info.dwSkill );		// °ř°ÝŔÚŔÇ ˝şĹł·ąş§Ŕ» ľË±â Ŕ§ÇŘ...

  0009f	ff 77 08	 push	 DWORD PTR [edi+8]
  000a2	8b 4d 08	 mov	 ecx, DWORD PTR _pAttacker$[ebp]
  000a5	e8 00 00 00 00	 call	 ?GetSkill@CMover@@QAEPAUtagSkill@@K@Z ; CMover::GetSkill
  000aa	8b d0		 mov	 edx, eax

; 2271 : 		if( pSkill )

  000ac	85 d2		 test	 edx, edx
  000ae	74 3c		 je	 SHORT $LN9@AttackBySF

; 2272 : 		{
; 2273 : 			ItemProp *pSkillProp;
; 2274 : 			AddSkillProp *pAddSkillProp;
; 2275 : 		#ifdef __SKILL0517
; 2276 : 			BOOL bSuccess	= pAttacker->GetSkillProp( &pSkillProp, &pAddSkillProp, info.dwSkill, pAttacker->GetSkillLevel( pSkill ), "OnSfxHit" );
; 2277 : 		#else	// __SKILL0517
; 2278 : 			BOOL bSuccess	= pAttacker->GetSkillProp( &pSkillProp, &pAddSkillProp, info.dwSkill, pSkill->dwLevel, "OnSfxHit" );

  000b0	8b 4d 08	 mov	 ecx, DWORD PTR _pAttacker$[ebp]
  000b3	68 00 00 00 00	 push	 OFFSET ??_C@_08IKHLBNOC@OnSfxHit@
  000b8	ff 72 04	 push	 DWORD PTR [edx+4]
  000bb	8d 55 fc	 lea	 edx, DWORD PTR _pAddSkillProp$2[ebp]
  000be	ff 77 08	 push	 DWORD PTR [edi+8]
  000c1	8b 01		 mov	 eax, DWORD PTR [ecx]
  000c3	52		 push	 edx
  000c4	8d 55 f8	 lea	 edx, DWORD PTR _pSkillProp$1[ebp]
  000c7	52		 push	 edx
  000c8	8b 40 30	 mov	 eax, DWORD PTR [eax+48]
  000cb	ff d0		 call	 eax

; 2279 : 		#endif	// __SKILL0517
; 2280 : 			if( bSuccess )

  000cd	85 c0		 test	 eax, eax
  000cf	74 4d		 je	 SHORT $LN8@AttackBySF

; 2281 : #if __VER >= 8 // __S8_PK
; 2282 : 				pAttacker->DoApplySkill( pTarget, pSkillProp, pAddSkillProp, false, nParam, FALSE, info.bControl );

  000d1	ff 77 1c	 push	 DWORD PTR [edi+28]
  000d4	8b 4d 08	 mov	 ecx, DWORD PTR _pAttacker$[ebp]
  000d7	6a 00		 push	 0
  000d9	ff 75 0c	 push	 DWORD PTR _nParam$1$[ebp]
  000dc	6a 00		 push	 0
  000de	ff 75 fc	 push	 DWORD PTR _pAddSkillProp$2[ebp]
  000e1	ff 75 f8	 push	 DWORD PTR _pSkillProp$1[ebp]
  000e4	56		 push	 esi
  000e5	e8 00 00 00 00	 call	 ?DoApplySkill@CCtrl@@QAEHPAV1@PAUItemProp@@PAUAddSkillProp@@_NHHH@Z ; CCtrl::DoApplySkill

; 2283 : #else // __VER >= 8 // __S8_PK
; 2284 : 				pAttacker->DoApplySkill( pTarget, pSkillProp, pAddSkillProp, false, nParam );
; 2285 : #endif // __VER >= 8 // __S8_PK
; 2286 : 		} 

  000ea	eb 32		 jmp	 SHORT $LN8@AttackBySF
$LN9@AttackBySF:

; 2287 : 		else
; 2288 : 			Error( "OnSfxHit : skill=%d¸¦ °ˇÁöÁö ľĘŔ˝", info.dwSkill );

  000ec	ff 77 08	 push	 DWORD PTR [edi+8]
  000ef	68 00 00 00 00	 push	 OFFSET ??_C@_0CC@OLPGPEPO@OnSfxHit?5?3?5skill?$DN?$CFd?$LI?$KG?5?$LA?$KB?A?v?A?v?5?$LO?J@
  000f4	e8 00 00 00 00	 call	 ?Error@@YAPBDPBDZZ	; Error
  000f9	83 c4 08	 add	 esp, 8

; 2289 : 	} 

  000fc	eb 20		 jmp	 SHORT $LN8@AttackBySF
$LN7@AttackBySF:
; File C:\IAGOS\server\v18\Source\Source\_AIInterface\ActionMover.h

; 134  : 	int				SendDamage( DWORD dwAtkFlags, OBJID idSender, int nParam = 0, BOOL bTarget = TRUE, int nReflect = 0 )	{	return SendActMsg( OBJMSG_DAMAGE, dwAtkFlags, idSender, nParam, bTarget, nReflect );	}

  000fe	8b 55 08	 mov	 edx, DWORD PTR _pAttacker$[ebp]
; File C:\IAGOS\server\v18\Source\Source\_Common\MoverAttack.cpp

; 2291 : 		pTarget->m_pActMover->SendDamage( info.dwAtkFlags, pAttacker->GetId(), nParam );

  00101	8b 8e 38 02 00
	00		 mov	 ecx, DWORD PTR [esi+568]
; File C:\IAGOS\server\v18\Source\Source\_AIInterface\ActionMover.h

; 134  : 	int				SendDamage( DWORD dwAtkFlags, OBJID idSender, int nParam = 0, BOOL bTarget = TRUE, int nReflect = 0 )	{	return SendActMsg( OBJMSG_DAMAGE, dwAtkFlags, idSender, nParam, bTarget, nReflect );	}

  00107	6a 00		 push	 0
  00109	6a 01		 push	 1
  0010b	ff 75 0c	 push	 DWORD PTR _nParam$1$[ebp]
  0010e	8b 01		 mov	 eax, DWORD PTR [ecx]
  00110	ff b2 bc 01 00
	00		 push	 DWORD PTR [edx+444]
  00116	ff 77 18	 push	 DWORD PTR [edi+24]
  00119	6a 29		 push	 41			; 00000029H
  0011b	ff 50 04	 call	 DWORD PTR [eax+4]
$LN8@AttackBySF:
; File C:\IAGOS\server\v18\Source\Source\_Common\MoverAttack.cpp

; 2293 : 	if( info.fDmgPower )	// ąĐ¸®´Â ĽÓĽşŔĚ ŔÖ´Â°Ĺ¸é.

  0011e	f3 0f 10 4f 14	 movss	 xmm1, DWORD PTR [edi+20]
  00123	0f 57 c0	 xorps	 xmm0, xmm0
  00126	0f 2e c8	 ucomiss xmm1, xmm0
  00129	f3 0f 11 4d 0c	 movss	 DWORD PTR _fSpeed$1$[ebp], xmm1
  0012e	9f		 lahf
  0012f	f6 c4 44	 test	 ah, 68			; 00000044H
  00132	7b 5a		 jnp	 SHORT $LN12@AttackBySF
; File C:\IAGOS\server\v18\Source\Source\_Common\XUtil3D.h

; 39   : 	fAngXZ = D3DXToRadian(fAngXZ);

  00134	f3 0f 10 47 10	 movss	 xmm0, DWORD PTR [edi+16]
  00139	f3 0f 59 05 00
	00 00 00	 mulss	 xmm0, DWORD PTR __real@3c8efa35
; File C:\IAGOS\server\v18\Source\Source\_Common\MoverAttack.cpp

; 2294 : 		AngleToVectorXZ( &pTarget->m_pActMover->m_vDeltaE, info.fDmgAngle, info.fDmgPower );   

  00141	8b b6 38 02 00
	00		 mov	 esi, DWORD PTR [esi+568]
; File C:\Program Files (x86)\Windows Kits\10\Include\10.0.26100.0\ucrt\corecrt_math.h

; 789  :             return (float)sin(_X);

  00147	0f 5a c0	 cvtps2pd xmm0, xmm0
  0014a	f2 0f 11 45 f4	 movsd	 QWORD PTR tv443[ebp], xmm0
  0014f	e8 00 00 00 00	 call	 __libm_sse2_sin_precise
  00154	0f 57 c9	 xorps	 xmm1, xmm1
  00157	f2 0f 5a c8	 cvtsd2ss xmm1, xmm0

; 683  :             return (float)cos(_X);

  0015b	f2 0f 10 45 f4	 movsd	 xmm0, QWORD PTR tv443[ebp]
; File C:\IAGOS\server\v18\Source\Source\_Common\XUtil3D.h

; 40   : 	vDelta->x = sinf(fAngXZ) * fSpeed;

  00160	f3 0f 59 4d 0c	 mulss	 xmm1, DWORD PTR _fSpeed$1$[ebp]
  00165	f3 0f 11 4e 5c	 movss	 DWORD PTR [esi+92], xmm1
; File C:\Program Files (x86)\Windows Kits\10\Include\10.0.26100.0\ucrt\corecrt_math.h

; 683  :             return (float)cos(_X);

  0016a	e8 00 00 00 00	 call	 __libm_sse2_cos_precise
  0016f	f2 0f 5a c0	 cvtsd2ss xmm0, xmm0
; File C:\IAGOS\server\v18\Source\Source\_Common\XUtil3D.h

; 42   : 	vDelta->y = 0;

  00173	c7 46 60 00 00
	00 00		 mov	 DWORD PTR [esi+96], 0
  0017a	0f 57 05 00 00
	00 00		 xorps	 xmm0, DWORD PTR __xmm@80000000800000008000000080000000
  00181	f3 0f 59 45 0c	 mulss	 xmm0, DWORD PTR _fSpeed$1$[ebp]
  00186	f3 0f 11 46 64	 movss	 DWORD PTR [esi+100], xmm0
  0018b	8b 75 f0	 mov	 esi, DWORD PTR _pTarget$1$[ebp]
$LN12@AttackBySF:
; File C:\IAGOS\server\v18\Source\Source\_Common\Mover.h

; 1251 : 	BOOL			IsLive() { return m_pActMover->IsDie() == FALSE || m_nHitPoint > 0; }		// && ¸¦  ||·Î ąŮ˛ĺŔ˝.  !=¸¦ >·Î ąŮ˛Ţ

  0018e	8b 86 38 02 00
	00		 mov	 eax, DWORD PTR [esi+568]
  00194	f7 40 04 00 00
	00 08		 test	 DWORD PTR [eax+4], 134217728 ; 08000000H
  0019b	74 09		 je	 SHORT $LN13@AttackBySF
  0019d	83 be f8 05 00
	00 00		 cmp	 DWORD PTR [esi+1528], 0
  001a4	7e 0b		 jle	 SHORT $LN49@AttackBySF
$LN13@AttackBySF:
  001a6	5f		 pop	 edi
; File C:\IAGOS\server\v18\Source\Source\_Common\MoverAttack.cpp

; 2299 : 	return TRUE;

  001a7	b8 01 00 00 00	 mov	 eax, 1

; 2300 : }

  001ac	5e		 pop	 esi
  001ad	8b e5		 mov	 esp, ebp
  001af	5d		 pop	 ebp
  001b0	c3		 ret	 0
$LN49@AttackBySF:
  001b1	5f		 pop	 edi

; 2295 : 
; 2296 : 	if( pTarget->IsLive() == FALSE )	// Ŕ§ °ř°ÝŔÇ °á°ú·Î ´ë»óŔĚ »ç¸Á ÇĎż´´Ů.
; 2297 : 		return FALSE;

  001b2	33 c0		 xor	 eax, eax

; 2300 : }

  001b4	5e		 pop	 esi
  001b5	8b e5		 mov	 esp, ebp
  001b7	5d		 pop	 ebp
  001b8	c3		 ret	 0
?AttackBySFX@@YAHPAVCMover@@AAUSFXHIT_INFO@@@Z ENDP	; AttackBySFX
_TEXT	ENDS
; Function compile flags: /Ogtp
; File C:\IAGOS\server\v18\Source\Source\_Common\MoverAttack.cpp
;	COMDAT ?GetWeaponPlusDamage@@YAHHHPAUItemProp@@H@Z
_TEXT	SEGMENT
_nDamage$ = 8						; size = 4
_bRandom$ = 12						; size = 4
_pItemProp$ = 16					; size = 4
_nOption$ = 20						; size = 4
?GetWeaponPlusDamage@@YAHHHPAUItemProp@@H@Z PROC	; GetWeaponPlusDamage, COMDAT

; 119  : 	return 0; // ąćľî·Â ą«˝Ă°ˇ ľĆ´Ď¶ó °ř°Ý·ÂŔ» łôŔĚ´Â ąćÇâŔ¸·Î ĽöÁ¤µÇľúŔ˝ 

  00000	33 c0		 xor	 eax, eax

; 120  : }

  00002	c3		 ret	 0
?GetWeaponPlusDamage@@YAHHHPAUItemProp@@H@Z ENDP	; GetWeaponPlusDamage
_TEXT	ENDS
; Function compile flags: /Ogtp
; File C:\IAGOS\server\v18\Source\Source\_Common\MoverAttack.cpp
;	COMDAT ?ClearSFX@CMover@@QAEXK@Z
_TEXT	SEGMENT
_idTarget$ = 8						; size = 4
?ClearSFX@CMover@@QAEXK@Z PROC				; CMover::ClearSFX, COMDAT
; _this$ = ecx

; 2229 : {

  00000	55		 push	 ebp
  00001	8b ec		 mov	 ebp, esp
  00003	56		 push	 esi
  00004	8b f1		 mov	 esi, ecx

; 2230 : 	m_mapSFXInfo.erase( idTarget );

  00006	8d 45 08	 lea	 eax, DWORD PTR _idTarget$[ebp]
  00009	50		 push	 eax
  0000a	8d 8e 88 10 00
	00		 lea	 ecx, DWORD PTR [esi+4232]
  00010	e8 00 00 00 00	 call	 ?erase@?$_Tree@V?$_Tmap_traits@KV?$queue@USFXHIT_INFO@@V?$deque@USFXHIT_INFO@@V?$allocator@USFXHIT_INFO@@@std@@@std@@@std@@U?$less@K@2@V?$allocator@U?$pair@$$CBKV?$queue@USFXHIT_INFO@@V?$deque@USFXHIT_INFO@@V?$allocator@USFXHIT_INFO@@@std@@@std@@@std@@@std@@@2@$0A@@std@@@std@@QAEIABK@Z ; std::_Tree<std::_Tmap_traits<unsigned long,std::queue<SFXHIT_INFO,std::deque<SFXHIT_INFO,std::allocator<SFXHIT_INFO> > >,std::less<unsigned long>,std::allocator<std::pair<unsigned long const ,std::queue<SFXHIT_INFO,std::deque<SFXHIT_INFO,std::allocator<SFXHIT_INFO> > > > >,0> >::erase

; 2231 : 	m_mapSFXCount.erase( idTarget );

  00015	8d 45 08	 lea	 eax, DWORD PTR _idTarget$[ebp]
  00018	50		 push	 eax
  00019	8d 8e 90 10 00
	00		 lea	 ecx, DWORD PTR [esi+4240]
  0001f	e8 00 00 00 00	 call	 ?erase@?$_Tree@V?$_Tmap_traits@KV?$queue@USFXHIT_COUNT@@V?$deque@USFXHIT_COUNT@@V?$allocator@USFXHIT_COUNT@@@std@@@std@@@std@@U?$less@K@2@V?$allocator@U?$pair@$$CBKV?$queue@USFXHIT_COUNT@@V?$deque@USFXHIT_COUNT@@V?$allocator@USFXHIT_COUNT@@@std@@@std@@@std@@@std@@@2@$0A@@std@@@std@@QAEIABK@Z ; std::_Tree<std::_Tmap_traits<unsigned long,std::queue<SFXHIT_COUNT,std::deque<SFXHIT_COUNT,std::allocator<SFXHIT_COUNT> > >,std::less<unsigned long>,std::allocator<std::pair<unsigned long const ,std::queue<SFXHIT_COUNT,std::deque<SFXHIT_COUNT,std::allocator<SFXHIT_COUNT> > > > >,0> >::erase
  00024	5e		 pop	 esi

; 2232 : }

  00025	5d		 pop	 ebp
  00026	c2 04 00	 ret	 4
?ClearSFX@CMover@@QAEXK@Z ENDP				; CMover::ClearSFX
_TEXT	ENDS
; Function compile flags: /Ogtp
; File C:\IAGOS\server\v18\Source\Source\_Common\MoverAttack.cpp
; File C:\Program Files\Microsoft Visual Studio\2022\Professional\VC\Tools\MSVC\14.44.35207\include\xtree
; File C:\Program Files\Microsoft Visual Studio\2022\Professional\VC\Tools\MSVC\14.44.35207\include\type_traits
; File C:\Program Files\Microsoft Visual Studio\2022\Professional\VC\Tools\MSVC\14.44.35207\include\xtree
; File C:\IAGOS\server\v18\Source\Source\_Common\MoverAttack.cpp
; File C:\Program Files\Microsoft Visual Studio\2022\Professional\VC\Tools\MSVC\14.44.35207\include\deque
; File C:\IAGOS\server\v18\Source\Source\_Common\MoverAttack.cpp
; File C:\Program Files\Microsoft Visual Studio\2022\Professional\VC\Tools\MSVC\14.44.35207\include\deque
; File C:\IAGOS\server\v18\Source\Source\_Common\MoverAttack.cpp
; File C:\Program Files\Microsoft Visual Studio\2022\Professional\VC\Tools\MSVC\14.44.35207\include\xmemory
; File C:\Program Files\Microsoft Visual Studio\2022\Professional\VC\Tools\MSVC\14.44.35207\include\deque
; File C:\Program Files\Microsoft Visual Studio\2022\Professional\VC\Tools\MSVC\14.44.35207\include\xmemory
; File C:\Program Files\Microsoft Visual Studio\2022\Professional\VC\Tools\MSVC\14.44.35207\include\deque
; File C:\IAGOS\server\v18\Source\Source\_Common\MoverAttack.cpp
; File C:\Program Files\Microsoft Visual Studio\2022\Professional\VC\Tools\MSVC\14.44.35207\include\deque
; File C:\Program Files\Microsoft Visual Studio\2022\Professional\VC\Tools\MSVC\14.44.35207\include\utility
; File C:\Program Files\Microsoft Visual Studio\2022\Professional\VC\Tools\MSVC\14.44.35207\include\deque
; File C:\Program Files\Microsoft Visual Studio\2022\Professional\VC\Tools\MSVC\14.44.35207\include\xmemory
; File C:\Program Files\Microsoft Visual Studio\2022\Professional\VC\Tools\MSVC\14.44.35207\include\deque
; File C:\Program Files\Microsoft Visual Studio\2022\Professional\VC\Tools\MSVC\14.44.35207\include\xmemory
; File C:\Program Files\Microsoft Visual Studio\2022\Professional\VC\Tools\MSVC\14.44.35207\include\deque
; File C:\Program Files\Microsoft Visual Studio\2022\Professional\VC\Tools\MSVC\14.44.35207\include\xmemory
; File C:\Program Files\Microsoft Visual Studio\2022\Professional\VC\Tools\MSVC\14.44.35207\include\deque
; File C:\Program Files\Microsoft Visual Studio\2022\Professional\VC\Tools\MSVC\14.44.35207\include\xmemory
; File C:\Program Files\Microsoft Visual Studio\2022\Professional\VC\Tools\MSVC\14.44.35207\include\deque
; File C:\Program Files\Microsoft Visual Studio\2022\Professional\VC\Tools\MSVC\14.44.35207\include\xmemory
; File C:\Program Files\Microsoft Visual Studio\2022\Professional\VC\Tools\MSVC\14.44.35207\include\deque
; File C:\Program Files\Microsoft Visual Studio\2022\Professional\VC\Tools\MSVC\14.44.35207\include\xmemory
; File C:\Program Files\Microsoft Visual Studio\2022\Professional\VC\Tools\MSVC\14.44.35207\include\deque
; File C:\Program Files\Microsoft Visual Studio\2022\Professional\VC\Tools\MSVC\14.44.35207\include\xtree
; File C:\IAGOS\server\v18\Source\Source\_Common\MoverAttack.cpp
; File C:\Program Files\Microsoft Visual Studio\2022\Professional\VC\Tools\MSVC\14.44.35207\include\xtree
; File C:\Program Files\Microsoft Visual Studio\2022\Professional\VC\Tools\MSVC\14.44.35207\include\type_traits
; File C:\Program Files\Microsoft Visual Studio\2022\Professional\VC\Tools\MSVC\14.44.35207\include\xtree
; File C:\Program Files\Microsoft Visual Studio\2022\Professional\VC\Tools\MSVC\14.44.35207\include\xmemory
; File C:\Program Files\Microsoft Visual Studio\2022\Professional\VC\Tools\MSVC\14.44.35207\include\xtree
; File C:\Program Files\Microsoft Visual Studio\2022\Professional\VC\Tools\MSVC\14.44.35207\include\xmemory
; File C:\Program Files\Microsoft Visual Studio\2022\Professional\VC\Tools\MSVC\14.44.35207\include\utility
; File C:\Program Files\Microsoft Visual Studio\2022\Professional\VC\Tools\MSVC\14.44.35207\include\xmemory
; File C:\Program Files\Microsoft Visual Studio\2022\Professional\VC\Tools\MSVC\14.44.35207\include\xtree
; File C:\Program Files\Microsoft Visual Studio\2022\Professional\VC\Tools\MSVC\14.44.35207\include\xmemory
; File C:\Program Files\Microsoft Visual Studio\2022\Professional\VC\Tools\MSVC\14.44.35207\include\deque
; File C:\Program Files\Microsoft Visual Studio\2022\Professional\VC\Tools\MSVC\14.44.35207\include\xmemory
; File C:\Program Files\Microsoft Visual Studio\2022\Professional\VC\Tools\MSVC\14.44.35207\include\deque
; File C:\Program Files\Microsoft Visual Studio\2022\Professional\VC\Tools\MSVC\14.44.35207\include\xtree
; File C:\Program Files\Microsoft Visual Studio\2022\Professional\VC\Tools\MSVC\14.44.35207\include\deque
; File C:\Program Files\Microsoft Visual Studio\2022\Professional\VC\Tools\MSVC\14.44.35207\include\xtree
; File C:\Program Files\Microsoft Visual Studio\2022\Professional\VC\Tools\MSVC\14.44.35207\include\deque
; File C:\Program Files\Microsoft Visual Studio\2022\Professional\VC\Tools\MSVC\14.44.35207\include\xtree
; File C:\Program Files\Microsoft Visual Studio\2022\Professional\VC\Tools\MSVC\14.44.35207\include\deque
; File C:\Program Files\Microsoft Visual Studio\2022\Professional\VC\Tools\MSVC\14.44.35207\include\xtree
; File C:\Program Files\Microsoft Visual Studio\2022\Professional\VC\Tools\MSVC\14.44.35207\include\deque
; File C:\Program Files\Microsoft Visual Studio\2022\Professional\VC\Tools\MSVC\14.44.35207\include\xmemory
; File C:\Program Files\Microsoft Visual Studio\2022\Professional\VC\Tools\MSVC\14.44.35207\include\deque
; File C:\Program Files\Microsoft Visual Studio\2022\Professional\VC\Tools\MSVC\14.44.35207\include\xmemory
; File C:\Program Files\Microsoft Visual Studio\2022\Professional\VC\Tools\MSVC\14.44.35207\include\deque
; File C:\Program Files\Microsoft Visual Studio\2022\Professional\VC\Tools\MSVC\14.44.35207\include\utility
; File C:\Program Files\Microsoft Visual Studio\2022\Professional\VC\Tools\MSVC\14.44.35207\include\xmemory
; File C:\Program Files\Microsoft Visual Studio\2022\Professional\VC\Tools\MSVC\14.44.35207\include\utility
; File C:\Program Files\Microsoft Visual Studio\2022\Professional\VC\Tools\MSVC\14.44.35207\include\xmemory
; File C:\Program Files\Microsoft Visual Studio\2022\Professional\VC\Tools\MSVC\14.44.35207\include\deque
; File C:\Program Files\Microsoft Visual Studio\2022\Professional\VC\Tools\MSVC\14.44.35207\include\xmemory
; File C:\Program Files\Microsoft Visual Studio\2022\Professional\VC\Tools\MSVC\14.44.35207\include\deque
; File C:\Program Files\Microsoft Visual Studio\2022\Professional\VC\Tools\MSVC\14.44.35207\include\xmemory
; File C:\Program Files\Microsoft Visual Studio\2022\Professional\VC\Tools\MSVC\14.44.35207\include\deque
; File C:\Program Files\Microsoft Visual Studio\2022\Professional\VC\Tools\MSVC\14.44.35207\include\xmemory
; File C:\Program Files\Microsoft Visual Studio\2022\Professional\VC\Tools\MSVC\14.44.35207\include\deque
; File C:\Program Files\Microsoft Visual Studio\2022\Professional\VC\Tools\MSVC\14.44.35207\include\utility
; File C:\Program Files\Microsoft Visual Studio\2022\Professional\VC\Tools\MSVC\14.44.35207\include\xmemory
; File C:\Program Files\Microsoft Visual Studio\2022\Professional\VC\Tools\MSVC\14.44.35207\include\utility
; File C:\Program Files\Microsoft Visual Studio\2022\Professional\VC\Tools\MSVC\14.44.35207\include\xmemory
; File C:\IAGOS\server\v18\Source\Source\_Common\MoverAttack.cpp
; File C:\Program Files\Microsoft Visual Studio\2022\Professional\VC\Tools\MSVC\14.44.35207\include\xtree
; File C:\Program Files\Microsoft Visual Studio\2022\Professional\VC\Tools\MSVC\14.44.35207\include\xmemory
; File C:\IAGOS\server\v18\Source\Source\_Common\MoverAttack.cpp
;	COMDAT ?AddSFXInfo@CMover@@QAEXKAAUSFXHIT_INFO@@@Z
_TEXT	SEGMENT
$T2 = -92						; size = 24
_q$3 = -68						; size = 20
__Loc$4 = -48						; size = 12
__Loc$5 = -48						; size = 12
$T6 = -44						; size = 8
__First$ = -44						; size = 8
__Proxy$7 = -44						; size = 8
$T8 = -36						; size = 12
$T9 = -32						; size = 8
$T10 = -32						; size = 8
$T11 = -32						; size = 8
__Guard$12 = -28					; size = 4
__Newoff$1$ = -24					; size = 4
_this$1$ = -20						; size = 4
$T13 = -16						; size = 4
__$EHRec$ = -12						; size = 12
_idTarget$ = 8						; size = 4
_this$ = 8						; size = 4
$T14 = 8						; size = 4
_info$ = 12						; size = 4
__Myhead$1$ = 12					; size = 4
__Alproxy$15 = 15					; size = 1
?AddSFXInfo@CMover@@QAEXKAAUSFXHIT_INFO@@@Z PROC	; CMover::AddSFXInfo, COMDAT
; _this$ = ecx

; 2211 : {

  00000	55		 push	 ebp
  00001	8b ec		 mov	 ebp, esp
  00003	6a ff		 push	 -1
  00005	68 00 00 00 00	 push	 __ehhandler$?AddSFXInfo@CMover@@QAEXKAAUSFXHIT_INFO@@@Z
  0000a	64 a1 00 00 00
	00		 mov	 eax, DWORD PTR fs:0
  00010	50		 push	 eax
  00011	83 ec 50	 sub	 esp, 80			; 00000050H
  00014	56		 push	 esi
  00015	57		 push	 edi
  00016	a1 00 00 00 00	 mov	 eax, DWORD PTR ___security_cookie
  0001b	33 c5		 xor	 eax, ebp
  0001d	50		 push	 eax
  0001e	8d 45 f4	 lea	 eax, DWORD PTR __$EHRec$[ebp]
  00021	64 a3 00 00 00
	00		 mov	 DWORD PTR fs:0, eax
  00027	8b f9		 mov	 edi, ecx

; 2212 : 	info.dwTickCount	= GetTickCount();

  00029	ff 15 00 00 00
	00		 call	 DWORD PTR __imp__GetTickCount@0
  0002f	8b 4d 0c	 mov	 ecx, DWORD PTR _info$[ebp]

; 2213 : 
; 2214 : 	map<OBJID, queue<SFXHIT_INFO> >::iterator it = m_mapSFXInfo.find( idTarget );

  00032	81 c7 88 10 00
	00		 add	 edi, 4232		; 00001088H
  00038	89 7d ec	 mov	 DWORD PTR _this$1$[ebp], edi
  0003b	89 41 20	 mov	 DWORD PTR [ecx+32], eax
; File C:\Program Files\Microsoft Visual Studio\2022\Professional\VC\Tools\MSVC\14.44.35207\include\xtree

; 1384 :         const _Tree_find_result<_Nodeptr> _Loc = _Find_lower_bound(_Keyval);

  0003e	8d 45 08	 lea	 eax, DWORD PTR _idTarget$[ebp]
  00041	50		 push	 eax
  00042	8d 45 d0	 lea	 eax, DWORD PTR __Loc$4[ebp]
  00045	8b cf		 mov	 ecx, edi
  00047	50		 push	 eax
  00048	e8 00 00 00 00	 call	 ??$_Find_lower_bound@K@?$_Tree@V?$_Tmap_traits@KV?$queue@USFXHIT_INFO@@V?$deque@USFXHIT_INFO@@V?$allocator@USFXHIT_INFO@@@std@@@std@@@std@@U?$less@K@2@V?$allocator@U?$pair@$$CBKV?$queue@USFXHIT_INFO@@V?$deque@USFXHIT_INFO@@V?$allocator@USFXHIT_INFO@@@std@@@std@@@std@@@std@@@2@$0A@@std@@@std@@IBE?AU?$_Tree_find_result@PAU?$_Tree_node@U?$pair@$$CBKV?$queue@USFXHIT_INFO@@V?$deque@USFXHIT_INFO@@V?$allocator@USFXHIT_INFO@@@std@@@std@@@std@@@std@@PAX@std@@@1@ABK@Z ; std::_Tree<std::_Tmap_traits<unsigned long,std::queue<SFXHIT_INFO,std::deque<SFXHIT_INFO,std::allocator<SFXHIT_INFO> > >,std::less<unsigned long>,std::allocator<std::pair<unsigned long const ,std::queue<SFXHIT_INFO,std::deque<SFXHIT_INFO,std::allocator<SFXHIT_INFO> > > > >,0> >::_Find_lower_bound<unsigned long>

; 1624 :         return !_Bound->_Isnil && !_DEBUG_LT_PRED(_Getcomp(), _Keyval, _Traits::_Kfn(_Bound->_Myval));

  0004d	8b 4d d8	 mov	 ecx, DWORD PTR __Loc$4[ebp+8]
  00050	8b 75 08	 mov	 esi, DWORD PTR _idTarget$[ebp]
  00053	80 79 0d 00	 cmp	 BYTE PTR [ecx+13], 0
  00057	75 27		 jne	 SHORT $LN2@AddSFXInfo
; File C:\Program Files\Microsoft Visual Studio\2022\Professional\VC\Tools\MSVC\14.44.35207\include\type_traits

; 2380 :         return _Left < _Right;

  00059	3b 71 10	 cmp	 esi, DWORD PTR [ecx+16]
; File C:\Program Files\Microsoft Visual Studio\2022\Professional\VC\Tools\MSVC\14.44.35207\include\xtree

; 1624 :         return !_Bound->_Isnil && !_DEBUG_LT_PRED(_Getcomp(), _Keyval, _Traits::_Kfn(_Bound->_Myval));

  0005c	72 22		 jb	 SHORT $LN2@AddSFXInfo

; 37   :     _Tree_unchecked_const_iterator(_Nodeptr _Pnode, const _Mytree* _Plist) noexcept : _Ptr(_Pnode) {

  0005e	3b 0f		 cmp	 ecx, DWORD PTR [edi]
; File C:\IAGOS\server\v18\Source\Source\_Common\MoverAttack.cpp

; 2215 : 	if( it != m_mapSFXInfo.end() )

  00060	74 1e		 je	 SHORT $LN2@AddSFXInfo
; File C:\Program Files\Microsoft Visual Studio\2022\Professional\VC\Tools\MSVC\14.44.35207\include\deque

; 1249 :         _Emplace_back_internal(_Val);

  00062	ff 75 0c	 push	 DWORD PTR _info$[ebp]
; File C:\IAGOS\server\v18\Source\Source\_Common\MoverAttack.cpp

; 2217 : 		queue<SFXHIT_INFO> &q = it->second;

  00065	83 c1 14	 add	 ecx, 20			; 00000014H
; File C:\Program Files\Microsoft Visual Studio\2022\Professional\VC\Tools\MSVC\14.44.35207\include\deque

; 1249 :         _Emplace_back_internal(_Val);

  00068	e8 00 00 00 00	 call	 ??$_Emplace_back_internal@ABUSFXHIT_INFO@@@?$deque@USFXHIT_INFO@@V?$allocator@USFXHIT_INFO@@@std@@@std@@AAEXABUSFXHIT_INFO@@@Z ; std::deque<SFXHIT_INFO,std::allocator<SFXHIT_INFO> >::_Emplace_back_internal<SFXHIT_INFO const &>
; File C:\IAGOS\server\v18\Source\Source\_Common\MoverAttack.cpp

; 2226 : }

  0006d	8b 4d f4	 mov	 ecx, DWORD PTR __$EHRec$[ebp]
  00070	64 89 0d 00 00
	00 00		 mov	 DWORD PTR fs:0, ecx
  00077	59		 pop	 ecx
  00078	5f		 pop	 edi
  00079	5e		 pop	 esi
  0007a	8b e5		 mov	 esp, ebp
  0007c	5d		 pop	 ebp
  0007d	c2 08 00	 ret	 8
$LN2@AddSFXInfo:
; File C:\Program Files\Microsoft Visual Studio\2022\Professional\VC\Tools\MSVC\14.44.35207\include\xmemory

; 136  :         return ::operator new(_Bytes);

  00080	6a 08		 push	 8

; 1235 :     _Container_proxy* _Myproxy = nullptr;

  00082	c7 45 bc 00 00
	00 00		 mov	 DWORD PTR _q$3[ebp], 0
; File C:\Program Files\Microsoft Visual Studio\2022\Professional\VC\Tools\MSVC\14.44.35207\include\deque

; 556  :     _Deque_val() noexcept : _Map(), _Mapsize(0), _Myoff(0), _Mysize(0) {}

  00089	c7 45 c0 00 00
	00 00		 mov	 DWORD PTR _q$3[ebp+4], 0
  00090	c7 45 c4 00 00
	00 00		 mov	 DWORD PTR _q$3[ebp+8], 0
  00097	c7 45 c8 00 00
	00 00		 mov	 DWORD PTR _q$3[ebp+12], 0
  0009e	c7 45 cc 00 00
	00 00		 mov	 DWORD PTR _q$3[ebp+16], 0
; File C:\Program Files\Microsoft Visual Studio\2022\Professional\VC\Tools\MSVC\14.44.35207\include\xmemory

; 136  :         return ::operator new(_Bytes);

  000a5	e8 00 00 00 00	 call	 ??2@YAPAXI@Z		; operator new

; 1223 :         _New_proxy->_Mycont = this;

  000aa	8d 4d bc	 lea	 ecx, DWORD PTR _q$3[ebp]

; 136  :         return ::operator new(_Bytes);

  000ad	83 c4 04	 add	 esp, 4

; 1205 :     mutable _Iterator_base12* _Myfirstiter = nullptr;

  000b0	c7 40 04 00 00
	00 00		 mov	 DWORD PTR [eax+4], 0

; 1222 :         _Myproxy            = _New_proxy;

  000b7	89 45 bc	 mov	 DWORD PTR _q$3[ebp], eax

; 1223 :         _New_proxy->_Mycont = this;

  000ba	89 08		 mov	 DWORD PTR [eax], ecx
; File C:\Program Files\Microsoft Visual Studio\2022\Professional\VC\Tools\MSVC\14.44.35207\include\deque

; 1249 :         _Emplace_back_internal(_Val);

  000bc	ff 75 0c	 push	 DWORD PTR _info$[ebp]
; File C:\IAGOS\server\v18\Source\Source\_Common\MoverAttack.cpp

; 2222 : 		queue<SFXHIT_INFO> q;

  000bf	c7 45 fc 00 00
	00 00		 mov	 DWORD PTR __$EHRec$[ebp+8], 0
; File C:\Program Files\Microsoft Visual Studio\2022\Professional\VC\Tools\MSVC\14.44.35207\include\deque

; 1249 :         _Emplace_back_internal(_Val);

  000c6	e8 00 00 00 00	 call	 ??$_Emplace_back_internal@ABUSFXHIT_INFO@@@?$deque@USFXHIT_INFO@@V?$allocator@USFXHIT_INFO@@@std@@@std@@AAEXABUSFXHIT_INFO@@@Z ; std::deque<SFXHIT_INFO,std::allocator<SFXHIT_INFO> >::_Emplace_back_internal<SFXHIT_INFO const &>

; 931  :         return _Unchecked_const_iterator(_Myoff() + _Mysize(), _STD addressof(_Get_data()));

  000cb	8b 45 cc	 mov	 eax, DWORD PTR _q$3[ebp+16]
; File C:\Program Files\Microsoft Visual Studio\2022\Professional\VC\Tools\MSVC\14.44.35207\include\utility

; 274  :         : first(_STD forward<_Other1>(_Val1)), second(_STD forward<_Other2>(_Val2)) {

  000ce	89 75 a4	 mov	 DWORD PTR $T2[ebp], esi
; File C:\Program Files\Microsoft Visual Studio\2022\Professional\VC\Tools\MSVC\14.44.35207\include\deque

; 931  :         return _Unchecked_const_iterator(_Myoff() + _Mysize(), _STD addressof(_Get_data()));

  000d1	8b 75 c8	 mov	 esi, DWORD PTR _q$3[ebp+12]
  000d4	03 c6		 add	 eax, esi
  000d6	89 45 f0	 mov	 DWORD PTR $T13[ebp], eax

; 42   :         : _Mycont(static_cast<const _Mydeque*>(_Pdeque)), _Myoff(_Off) {}

  000d9	8d 45 bc	 lea	 eax, DWORD PTR _q$3[ebp]
  000dc	89 45 d4	 mov	 DWORD PTR $T6[ebp], eax

; 697  :         _Construct(_Right._Unchecked_begin(), _Right._Unchecked_end());

  000df	89 45 d4	 mov	 DWORD PTR __First$[ebp], eax
; File C:\Program Files\Microsoft Visual Studio\2022\Professional\VC\Tools\MSVC\14.44.35207\include\xmemory

; 1481 :     _CONSTEXPR20 _Container_proxy_ptr12(_Alloc& _Al_, _Container_base12& _Mycont) : _Al(_Al_) {

  000e2	8d 45 0f	 lea	 eax, DWORD PTR __Alproxy$15[ebp]

; 136  :         return ::operator new(_Bytes);

  000e5	6a 08		 push	 8

; 1235 :     _Container_proxy* _Myproxy = nullptr;

  000e7	c7 45 a8 00 00
	00 00		 mov	 DWORD PTR $T2[ebp+4], 0
; File C:\Program Files\Microsoft Visual Studio\2022\Professional\VC\Tools\MSVC\14.44.35207\include\deque

; 556  :     _Deque_val() noexcept : _Map(), _Mapsize(0), _Myoff(0), _Mysize(0) {}

  000ee	c7 45 ac 00 00
	00 00		 mov	 DWORD PTR $T2[ebp+8], 0
  000f5	c7 45 b0 00 00
	00 00		 mov	 DWORD PTR $T2[ebp+12], 0
  000fc	c7 45 b4 00 00
	00 00		 mov	 DWORD PTR $T2[ebp+16], 0
  00103	c7 45 b8 00 00
	00 00		 mov	 DWORD PTR $T2[ebp+20], 0

; 931  :         return _Unchecked_const_iterator(_Myoff() + _Mysize(), _STD addressof(_Get_data()));

  0010a	89 75 08	 mov	 DWORD PTR $T14[ebp], esi
; File C:\Program Files\Microsoft Visual Studio\2022\Professional\VC\Tools\MSVC\14.44.35207\include\xmemory

; 1481 :     _CONSTEXPR20 _Container_proxy_ptr12(_Alloc& _Al_, _Container_base12& _Mycont) : _Al(_Al_) {

  0010d	89 45 d8	 mov	 DWORD PTR __Proxy$7[ebp+4], eax

; 136  :         return ::operator new(_Bytes);

  00110	e8 00 00 00 00	 call	 ??2@YAPAXI@Z		; operator new

; 1202 :     _CONSTEXPR20 _Container_proxy(_Container_base12* _Mycont_) noexcept : _Mycont(_Mycont_) {}

  00115	8d 4d a8	 lea	 ecx, DWORD PTR $T2[ebp+4]

; 256  :         return _Traits::_Allocate(_Bytes);

  00118	c7 45 e4 00 00
	00 00		 mov	 DWORD PTR $T11[ebp+4], 0

; 136  :         return ::operator new(_Bytes);

  0011f	83 c4 04	 add	 esp, 4

; 256  :         return _Traits::_Allocate(_Bytes);

  00122	c7 45 e4 00 00
	00 00		 mov	 DWORD PTR $T10[ebp+4], 0

; 1483 :         _Ptr = _Unfancy(_Al_.allocate(1));

  00129	89 45 d4	 mov	 DWORD PTR __Proxy$7[ebp], eax

; 1202 :     _CONSTEXPR20 _Container_proxy(_Container_base12* _Mycont_) noexcept : _Mycont(_Mycont_) {}

  0012c	89 08		 mov	 DWORD PTR [eax], ecx

; 1203 : 
; 1204 :     const _Container_base12* _Mycont       = nullptr;
; 1205 :     mutable _Iterator_base12* _Myfirstiter = nullptr;

  0012e	c7 40 04 00 00
	00 00		 mov	 DWORD PTR [eax+4], 0

; 1485 :         _Mycont._Myproxy = _Ptr;

  00135	89 45 a8	 mov	 DWORD PTR $T2[ebp+4], eax
; File C:\Program Files\Microsoft Visual Studio\2022\Professional\VC\Tools\MSVC\14.44.35207\include\deque

; 733  :         _Tidy_guard<deque> _Guard{this};

  00138	8b c1		 mov	 eax, ecx
  0013a	89 45 e4	 mov	 DWORD PTR __Guard$12[ebp], eax
  0013d	c6 45 fc 02	 mov	 BYTE PTR __$EHRec$[ebp+8], 2

; 120  :         return !(*this == _Right);

  00141	3b 75 f0	 cmp	 esi, DWORD PTR $T13[ebp]

; 734  :         for (; _First != _Last; ++_First) {

  00144	0f 84 a2 00 00
	00		 je	 $LN658@AddSFXInfo
  0014a	8b d6		 mov	 edx, esi
  0014c	8b 75 b8	 mov	 esi, DWORD PTR $T2[ebp+20]
  0014f	90		 npad	 1
$LL133@AddSFXInfo:

; 572  :         return static_cast<_Map_difference_type>((_Off / _Block_size) & (_Mapsize - 1));

  00150	8b 4d c4	 mov	 ecx, DWORD PTR _q$3[ebp+8]

; 45   :         return _Mycont->_Subscript(_Myoff);

  00153	8b 45 c0	 mov	 eax, DWORD PTR _q$3[ebp+4]

; 572  :         return static_cast<_Map_difference_type>((_Off / _Block_size) & (_Mapsize - 1));

  00156	49		 dec	 ecx
  00157	23 ca		 and	 ecx, edx

; 1144 :         if ((_Myoff() + _Mysize()) % _Block_size == 0 && _Mapsize() <= (_Mysize() + _Block_size) / _Block_size) {

  00159	8b 55 b0	 mov	 edx, DWORD PTR $T2[ebp+12]

; 45   :         return _Mycont->_Subscript(_Myoff);

  0015c	8b 3c 88	 mov	 edi, DWORD PTR [eax+ecx*4]

; 1144 :         if ((_Myoff() + _Mysize()) % _Block_size == 0 && _Mapsize() <= (_Mysize() + _Block_size) / _Block_size) {

  0015f	8d 46 01	 lea	 eax, DWORD PTR [esi+1]
  00162	3b d0		 cmp	 edx, eax
  00164	77 10		 ja	 SHORT $LN181@AddSFXInfo

; 1145 :             _Growmap(1);

  00166	6a 01		 push	 1
  00168	8d 4d a8	 lea	 ecx, DWORD PTR $T2[ebp+4]
  0016b	e8 00 00 00 00	 call	 ?_Growmap@?$deque@USFXHIT_INFO@@V?$allocator@USFXHIT_INFO@@@std@@@std@@AAEXI@Z ; std::deque<SFXHIT_INFO,std::allocator<SFXHIT_INFO> >::_Growmap
  00170	8b 75 b8	 mov	 esi, DWORD PTR $T2[ebp+20]
  00173	8b 55 b0	 mov	 edx, DWORD PTR $T2[ebp+12]
$LN181@AddSFXInfo:

; 1146 :         }
; 1147 :         _Myoff() &= _Mapsize() * _Block_size - 1;

  00176	8b 4d b4	 mov	 ecx, DWORD PTR $T2[ebp+16]
  00179	8d 42 ff	 lea	 eax, DWORD PTR [edx-1]
  0017c	23 c8		 and	 ecx, eax

; 572  :         return static_cast<_Map_difference_type>((_Off / _Block_size) & (_Mapsize - 1));

  0017e	8d 42 ff	 lea	 eax, DWORD PTR [edx-1]

; 1147 :         _Myoff() &= _Mapsize() * _Block_size - 1;

  00181	89 4d b4	 mov	 DWORD PTR $T2[ebp+16], ecx

; 1148 :         const auto _Newoff = static_cast<size_type>(_Myoff() + _Mysize());

  00184	03 ce		 add	 ecx, esi

; 572  :         return static_cast<_Map_difference_type>((_Off / _Block_size) & (_Mapsize - 1));

  00186	23 c1		 and	 eax, ecx

; 1148 :         const auto _Newoff = static_cast<size_type>(_Myoff() + _Mysize());

  00188	89 4d e8	 mov	 DWORD PTR __Newoff$1$[ebp], ecx

; 1149 :         const auto _Block  = _Getblock(_Newoff);
; 1150 :         if (_Map()[_Block] == nullptr) {

  0018b	8b 4d ac	 mov	 ecx, DWORD PTR $T2[ebp+8]
  0018e	8d 34 85 00 00
	00 00		 lea	 esi, DWORD PTR [eax*4]
  00195	83 3c 31 00	 cmp	 DWORD PTR [ecx+esi], 0
  00199	75 16		 jne	 SHORT $LN182@AddSFXInfo
; File C:\Program Files\Microsoft Visual Studio\2022\Professional\VC\Tools\MSVC\14.44.35207\include\xmemory

; 136  :         return ::operator new(_Bytes);

  0019b	6a 24		 push	 36			; 00000024H
  0019d	e8 00 00 00 00	 call	 ??2@YAPAXI@Z		; operator new
; File C:\Program Files\Microsoft Visual Studio\2022\Professional\VC\Tools\MSVC\14.44.35207\include\deque

; 1151 :             _Map()[_Block] = _Getal().allocate(_Block_size);

  001a2	8b 4d ac	 mov	 ecx, DWORD PTR $T2[ebp+8]
; File C:\Program Files\Microsoft Visual Studio\2022\Professional\VC\Tools\MSVC\14.44.35207\include\xmemory

; 136  :         return ::operator new(_Bytes);

  001a5	83 c4 04	 add	 esp, 4
; File C:\Program Files\Microsoft Visual Studio\2022\Professional\VC\Tools\MSVC\14.44.35207\include\deque

; 1151 :             _Map()[_Block] = _Getal().allocate(_Block_size);

  001a8	89 04 31	 mov	 DWORD PTR [ecx+esi], eax
  001ab	8b 55 b0	 mov	 edx, DWORD PTR $T2[ebp+12]
  001ae	8b 4d ac	 mov	 ecx, DWORD PTR $T2[ebp+8]
$LN182@AddSFXInfo:
; File C:\Program Files\Microsoft Visual Studio\2022\Professional\VC\Tools\MSVC\14.44.35207\include\xmemory

; 732  :         ::new (const_cast<void*>(static_cast<const volatile void*>(_Ptr))) _Objty(_STD forward<_Types>(_Args)...);

  001b1	0f 10 07	 movups	 xmm0, XMMWORD PTR [edi]
; File C:\Program Files\Microsoft Visual Studio\2022\Professional\VC\Tools\MSVC\14.44.35207\include\deque

; 572  :         return static_cast<_Map_difference_type>((_Off / _Block_size) & (_Mapsize - 1));

  001b4	8d 42 ff	 lea	 eax, DWORD PTR [edx-1]
  001b7	23 45 e8	 and	 eax, DWORD PTR __Newoff$1$[ebp]
; File C:\Program Files\Microsoft Visual Studio\2022\Professional\VC\Tools\MSVC\14.44.35207\include\xmemory

; 732  :         ::new (const_cast<void*>(static_cast<const volatile void*>(_Ptr))) _Objty(_STD forward<_Types>(_Args)...);

  001ba	8b 0c 81	 mov	 ecx, DWORD PTR [ecx+eax*4]
  001bd	0f 11 01	 movups	 XMMWORD PTR [ecx], xmm0
  001c0	0f 10 47 10	 movups	 xmm0, XMMWORD PTR [edi+16]
  001c4	0f 11 41 10	 movups	 XMMWORD PTR [ecx+16], xmm0
  001c8	8b 47 20	 mov	 eax, DWORD PTR [edi+32]
  001cb	89 41 20	 mov	 DWORD PTR [ecx+32], eax
; File C:\Program Files\Microsoft Visual Studio\2022\Professional\VC\Tools\MSVC\14.44.35207\include\deque

; 53   :         ++_Myoff;

  001ce	8b 45 08	 mov	 eax, DWORD PTR $T14[ebp]

; 1156 :         ++_Mysize();

  001d1	8b 75 b8	 mov	 esi, DWORD PTR $T2[ebp+20]

; 53   :         ++_Myoff;

  001d4	40		 inc	 eax

; 1156 :         ++_Mysize();

  001d5	46		 inc	 esi

; 53   :         ++_Myoff;

  001d6	89 45 08	 mov	 DWORD PTR $T14[ebp], eax
  001d9	8b d0		 mov	 edx, eax

; 1156 :         ++_Mysize();

  001db	89 75 b8	 mov	 DWORD PTR $T2[ebp+20], esi

; 120  :         return !(*this == _Right);

  001de	3b 55 f0	 cmp	 edx, DWORD PTR $T13[ebp]

; 734  :         for (; _First != _Last; ++_First) {

  001e1	0f 85 69 ff ff
	ff		 jne	 $LL133@AddSFXInfo
  001e7	8b 7d ec	 mov	 edi, DWORD PTR _this$1$[ebp]
  001ea	eb 03		 jmp	 SHORT $LN132@AddSFXInfo
$LN658@AddSFXInfo:
  001ec	8b 75 b8	 mov	 esi, DWORD PTR $T2[ebp+20]
$LN132@AddSFXInfo:
; File C:\Program Files\Microsoft Visual Studio\2022\Professional\VC\Tools\MSVC\14.44.35207\include\xtree

; 1017 :             _Loc                = _Find_lower_bound(_Keyval);

  001ef	8d 45 a4	 lea	 eax, DWORD PTR $T2[ebp]
; File C:\IAGOS\server\v18\Source\Source\_Common\MoverAttack.cpp

; 2224 : 		m_mapSFXInfo.insert( map<OBJID, queue<SFXHIT_INFO> >::value_type( idTarget, q ) );

  001f2	c6 45 fc 03	 mov	 BYTE PTR __$EHRec$[ebp+8], 3
; File C:\Program Files\Microsoft Visual Studio\2022\Professional\VC\Tools\MSVC\14.44.35207\include\xtree

; 1017 :             _Loc                = _Find_lower_bound(_Keyval);

  001f6	50		 push	 eax
  001f7	8d 45 dc	 lea	 eax, DWORD PTR $T8[ebp]
  001fa	8b cf		 mov	 ecx, edi
  001fc	50		 push	 eax
  001fd	e8 00 00 00 00	 call	 ??$_Find_lower_bound@K@?$_Tree@V?$_Tmap_traits@KV?$queue@USFXHIT_INFO@@V?$deque@USFXHIT_INFO@@V?$allocator@USFXHIT_INFO@@@std@@@std@@@std@@U?$less@K@2@V?$allocator@U?$pair@$$CBKV?$queue@USFXHIT_INFO@@V?$deque@USFXHIT_INFO@@V?$allocator@USFXHIT_INFO@@@std@@@std@@@std@@@std@@@2@$0A@@std@@@std@@IBE?AU?$_Tree_find_result@PAU?$_Tree_node@U?$pair@$$CBKV?$queue@USFXHIT_INFO@@V?$deque@USFXHIT_INFO@@V?$allocator@USFXHIT_INFO@@@std@@@std@@@std@@@std@@PAX@std@@@1@ABK@Z ; std::_Tree<std::_Tmap_traits<unsigned long,std::queue<SFXHIT_INFO,std::deque<SFXHIT_INFO,std::allocator<SFXHIT_INFO> > >,std::less<unsigned long>,std::allocator<std::pair<unsigned long const ,std::queue<SFXHIT_INFO,std::deque<SFXHIT_INFO,std::allocator<SFXHIT_INFO> > > > >,0> >::_Find_lower_bound<unsigned long>
  00202	8b 48 08	 mov	 ecx, DWORD PTR [eax+8]
  00205	f3 0f 7e 00	 movq	 xmm0, QWORD PTR [eax]
  00209	66 0f d6 45 d0	 movq	 QWORD PTR __Loc$5[ebp], xmm0

; 1624 :         return !_Bound->_Isnil && !_DEBUG_LT_PRED(_Getcomp(), _Keyval, _Traits::_Kfn(_Bound->_Myval));

  0020e	80 79 0d 00	 cmp	 BYTE PTR [ecx+13], 0
  00212	75 0c		 jne	 SHORT $LN252@AddSFXInfo
; File C:\Program Files\Microsoft Visual Studio\2022\Professional\VC\Tools\MSVC\14.44.35207\include\type_traits

; 2380 :         return _Left < _Right;

  00214	8b 45 a4	 mov	 eax, DWORD PTR $T2[ebp]
  00217	3b 41 10	 cmp	 eax, DWORD PTR [ecx+16]
; File C:\Program Files\Microsoft Visual Studio\2022\Professional\VC\Tools\MSVC\14.44.35207\include\xtree

; 1624 :         return !_Bound->_Isnil && !_DEBUG_LT_PRED(_Getcomp(), _Keyval, _Traits::_Kfn(_Bound->_Myval));

  0021a	0f 83 e8 00 00
	00		 jae	 $LN433@AddSFXInfo
$LN252@AddSFXInfo:

; 1648 :         if (max_size() == _Get_scary()->_Mysize) {

  00220	81 7f 04 66 66
	66 06		 cmp	 DWORD PTR [edi+4], 107374182 ; 06666666H
  00227	0f 84 0e 02 00
	00		 je	 $LN662@AddSFXInfo

; 1023 :             _Inserted = _Tree_temp_node<_Alnode>(_Getal(), _Scary->_Myhead, _STD forward<_Valtys>(_Vals)...)._Release();

  0022d	8b 07		 mov	 eax, DWORD PTR [edi]
  0022f	89 45 0c	 mov	 DWORD PTR __Myhead$1$[ebp], eax
; File C:\Program Files\Microsoft Visual Studio\2022\Professional\VC\Tools\MSVC\14.44.35207\include\xmemory

; 1160 :     _CONSTEXPR20 explicit _Alloc_construct_ptr(_Alloc& _Al_) : _Al(_Al_), _Ptr(nullptr) {}

  00232	89 7d e0	 mov	 DWORD PTR $T9[ebp], edi

; 136  :         return ::operator new(_Bytes);

  00235	6a 28		 push	 40			; 00000028H
; File C:\Program Files\Microsoft Visual Studio\2022\Professional\VC\Tools\MSVC\14.44.35207\include\xtree

; 808  :     explicit _Tree_temp_node_alloc(_Alnode& _Al_) : _Alloc_construct_ptr<_Alnode>(_Al_) {

  00237	c6 45 fc 04	 mov	 BYTE PTR __$EHRec$[ebp+8], 4
; File C:\Program Files\Microsoft Visual Studio\2022\Professional\VC\Tools\MSVC\14.44.35207\include\xmemory

; 1167 :         _Ptr = nullptr; // if allocate throws, prevents double-free

  0023b	c7 45 e4 00 00
	00 00		 mov	 DWORD PTR $T9[ebp+4], 0

; 136  :         return ::operator new(_Bytes);

  00242	e8 00 00 00 00	 call	 ??2@YAPAXI@Z		; operator new

; 256  :         return _Traits::_Allocate(_Bytes);

  00247	8b f8		 mov	 edi, eax

; 1168 :         _Ptr = _Al.allocate(1);

  00249	89 7d e4	 mov	 DWORD PTR $T9[ebp+4], edi
; File C:\Program Files\Microsoft Visual Studio\2022\Professional\VC\Tools\MSVC\14.44.35207\include\utility

; 278  :     pair(pair&&)      = default;

  0024c	8b 4d a4	 mov	 ecx, DWORD PTR $T2[ebp]
  0024f	8d 77 14	 lea	 esi, DWORD PTR [edi+20]
  00252	89 4f 10	 mov	 DWORD PTR [edi+16], ecx
  00255	89 75 08	 mov	 DWORD PTR _this$[ebp], esi
; File C:\Program Files\Microsoft Visual Studio\2022\Professional\VC\Tools\MSVC\14.44.35207\include\xmemory

; 136  :         return ::operator new(_Bytes);

  00258	6a 08		 push	 8
; File C:\Program Files\Microsoft Visual Studio\2022\Professional\VC\Tools\MSVC\14.44.35207\include\xtree

; 829  :         : _Tree_temp_node_alloc<_Alnode>(_Al_) {

  0025a	c6 45 fc 05	 mov	 BYTE PTR __$EHRec$[ebp+8], 5
; File C:\Program Files\Microsoft Visual Studio\2022\Professional\VC\Tools\MSVC\14.44.35207\include\xmemory

; 1235 :     _Container_proxy* _Myproxy = nullptr;

  0025e	c7 06 00 00 00
	00		 mov	 DWORD PTR [esi], 0
; File C:\Program Files\Microsoft Visual Studio\2022\Professional\VC\Tools\MSVC\14.44.35207\include\deque

; 556  :     _Deque_val() noexcept : _Map(), _Mapsize(0), _Myoff(0), _Mysize(0) {}

  00264	c7 46 04 00 00
	00 00		 mov	 DWORD PTR [esi+4], 0
  0026b	c7 46 08 00 00
	00 00		 mov	 DWORD PTR [esi+8], 0
  00272	c7 46 0c 00 00
	00 00		 mov	 DWORD PTR [esi+12], 0
  00279	c7 46 10 00 00
	00 00		 mov	 DWORD PTR [esi+16], 0
; File C:\Program Files\Microsoft Visual Studio\2022\Professional\VC\Tools\MSVC\14.44.35207\include\xmemory

; 136  :         return ::operator new(_Bytes);

  00280	e8 00 00 00 00	 call	 ??2@YAPAXI@Z		; operator new
  00285	83 c4 08	 add	 esp, 8

; 1205 :     mutable _Iterator_base12* _Myfirstiter = nullptr;

  00288	c7 40 04 00 00
	00 00		 mov	 DWORD PTR [eax+4], 0

; 1222 :         _Myproxy            = _New_proxy;

  0028f	89 06		 mov	 DWORD PTR [esi], eax

; 1223 :         _New_proxy->_Mycont = this;

  00291	89 30		 mov	 DWORD PTR [eax], esi

; 1407 :     _Myproxy                = _Right._Myproxy;

  00293	8b 45 a8	 mov	 eax, DWORD PTR $T2[ebp+4]
  00296	8b 0e		 mov	 ecx, DWORD PTR [esi]
  00298	89 06		 mov	 DWORD PTR [esi], eax

; 1408 :     _Right._Myproxy         = _Temp;

  0029a	89 4d a8	 mov	 DWORD PTR $T2[ebp+4], ecx

; 1409 : 
; 1410 :     if (_Myproxy) {

  0029d	8b 06		 mov	 eax, DWORD PTR [esi]
  0029f	85 c0		 test	 eax, eax
  002a1	74 05		 je	 SHORT $LN337@AddSFXInfo

; 1411 :         _Myproxy->_Mycont = this;

  002a3	89 30		 mov	 DWORD PTR [eax], esi
  002a5	8b 4d a8	 mov	 ecx, DWORD PTR $T2[ebp+4]
$LN337@AddSFXInfo:

; 1412 :     }
; 1413 : 
; 1414 :     if (_Right._Myproxy) {

  002a8	85 c9		 test	 ecx, ecx
  002aa	74 05		 je	 SHORT $LN338@AddSFXInfo

; 1415 :         _Right._Myproxy->_Mycont = &_Right;

  002ac	8d 45 a8	 lea	 eax, DWORD PTR $T2[ebp+4]
  002af	89 01		 mov	 DWORD PTR [ecx], eax
$LN338@AddSFXInfo:
; File C:\Program Files\Microsoft Visual Studio\2022\Professional\VC\Tools\MSVC\14.44.35207\include\deque

; 761  :         _My_data._Map     = _Right_data._Map;

  002b1	8b 45 ac	 mov	 eax, DWORD PTR $T2[ebp+8]
; File C:\Program Files\Microsoft Visual Studio\2022\Professional\VC\Tools\MSVC\14.44.35207\include\xtree

; 1042 :         return {_Scary->_Insert_node(_Loc._Location, _Inserted), true};

  002b4	8b 4d ec	 mov	 ecx, DWORD PTR _this$1$[ebp]
; File C:\Program Files\Microsoft Visual Studio\2022\Professional\VC\Tools\MSVC\14.44.35207\include\deque

; 761  :         _My_data._Map     = _Right_data._Map;

  002b7	89 46 04	 mov	 DWORD PTR [esi+4], eax

; 762  :         _My_data._Mapsize = _Right_data._Mapsize;

  002ba	8b 45 b0	 mov	 eax, DWORD PTR $T2[ebp+12]
  002bd	89 46 08	 mov	 DWORD PTR [esi+8], eax

; 763  :         _My_data._Myoff   = _Right_data._Myoff;

  002c0	8b 45 b4	 mov	 eax, DWORD PTR $T2[ebp+16]
  002c3	89 46 0c	 mov	 DWORD PTR [esi+12], eax

; 764  :         _My_data._Mysize  = _Right_data._Mysize;

  002c6	8b 45 b8	 mov	 eax, DWORD PTR $T2[ebp+20]
  002c9	89 46 10	 mov	 DWORD PTR [esi+16], eax
; File C:\Program Files\Microsoft Visual Studio\2022\Professional\VC\Tools\MSVC\14.44.35207\include\xtree

; 831  :         _Construct_in_place(this->_Ptr->_Left, _Myhead);

  002cc	8b 45 0c	 mov	 eax, DWORD PTR __Myhead$1$[ebp]

; 1042 :         return {_Scary->_Insert_node(_Loc._Location, _Inserted), true};

  002cf	57		 push	 edi
  002d0	ff 75 d4	 push	 DWORD PTR __Loc$5[ebp+4]
; File C:\Program Files\Microsoft Visual Studio\2022\Professional\VC\Tools\MSVC\14.44.35207\include\deque

; 766  :         _Right_data._Map     = nullptr;

  002d3	c7 45 ac 00 00
	00 00		 mov	 DWORD PTR $T2[ebp+8], 0
; File C:\Program Files\Microsoft Visual Studio\2022\Professional\VC\Tools\MSVC\14.44.35207\include\xtree

; 1042 :         return {_Scary->_Insert_node(_Loc._Location, _Inserted), true};

  002da	ff 75 d0	 push	 DWORD PTR __Loc$5[ebp]
; File C:\Program Files\Microsoft Visual Studio\2022\Professional\VC\Tools\MSVC\14.44.35207\include\deque

; 767  :         _Right_data._Mapsize = 0;

  002dd	c7 45 b0 00 00
	00 00		 mov	 DWORD PTR $T2[ebp+12], 0

; 768  :         _Right_data._Myoff   = 0;

  002e4	c7 45 b4 00 00
	00 00		 mov	 DWORD PTR $T2[ebp+16], 0

; 769  :         _Right_data._Mysize  = 0;

  002eb	c7 45 b8 00 00
	00 00		 mov	 DWORD PTR $T2[ebp+20], 0
; File C:\Program Files\Microsoft Visual Studio\2022\Professional\VC\Tools\MSVC\14.44.35207\include\xtree

; 831  :         _Construct_in_place(this->_Ptr->_Left, _Myhead);

  002f2	89 07		 mov	 DWORD PTR [edi], eax

; 832  :         _Construct_in_place(this->_Ptr->_Parent, _Myhead);

  002f4	89 47 04	 mov	 DWORD PTR [edi+4], eax

; 833  :         _Construct_in_place(this->_Ptr->_Right, _Myhead);

  002f7	89 47 08	 mov	 DWORD PTR [edi+8], eax

; 834  :         this->_Ptr->_Color = _Red;

  002fa	66 c7 47 0c 00
	00		 mov	 WORD PTR [edi+12], 0

; 1042 :         return {_Scary->_Insert_node(_Loc._Location, _Inserted), true};

  00300	e8 00 00 00 00	 call	 ?_Insert_node@?$_Tree_val@U?$_Tree_simple_types@U?$pair@$$CBKV?$queue@USFXHIT_INFO@@V?$deque@USFXHIT_INFO@@V?$allocator@USFXHIT_INFO@@@std@@@std@@@std@@@std@@@std@@@std@@QAEPAU?$_Tree_node@U?$pair@$$CBKV?$queue@USFXHIT_INFO@@V?$deque@USFXHIT_INFO@@V?$allocator@USFXHIT_INFO@@@std@@@std@@@std@@@std@@PAX@2@U?$_Tree_id@PAU?$_Tree_node@U?$pair@$$CBKV?$queue@USFXHIT_INFO@@V?$deque@USFXHIT_INFO@@V?$allocator@USFXHIT_INFO@@@std@@@std@@@std@@@std@@PAX@std@@@2@QAU32@@Z ; std::_Tree_val<std::_Tree_simple_types<std::pair<unsigned long const ,std::queue<SFXHIT_INFO,std::deque<SFXHIT_INFO,std::allocator<SFXHIT_INFO> > > > > >::_Insert_node
  00305	8b 75 b8	 mov	 esi, DWORD PTR $T2[ebp+20]
$LN433@AddSFXInfo:
; File C:\Program Files\Microsoft Visual Studio\2022\Professional\VC\Tools\MSVC\14.44.35207\include\deque

; 971  :         return _Mysize() == 0;

  00308	85 f6		 test	 esi, esi

; 1673 :         while (!empty()) {

  0030a	74 0f		 je	 SHORT $LN655@AddSFXInfo
  0030c	0f 1f 40 00	 npad	 4
$LL462@AddSFXInfo:

; 1513 :         if (--_Mysize() == 0) {

  00310	83 c6 ff	 add	 esi, -1
  00313	75 fb		 jne	 SHORT $LL462@AddSFXInfo
  00315	89 75 b8	 mov	 DWORD PTR $T2[ebp+20], esi

; 1514 :             _Myoff() = 0;

  00318	89 75 b4	 mov	 DWORD PTR $T2[ebp+16], esi
$LN655@AddSFXInfo:

; 1677 :         if (_Map() != nullptr) {

  0031b	8b 4d ac	 mov	 ecx, DWORD PTR $T2[ebp+8]
  0031e	85 c9		 test	 ecx, ecx
  00320	74 65		 je	 SHORT $LN485@AddSFXInfo

; 1654 :         for (auto _Block = _Map_distance(); _Block > 0;) { // free storage for a block and destroy pointer

  00322	8b 75 b0	 mov	 esi, DWORD PTR $T2[ebp+12]
  00325	85 f6		 test	 esi, esi
  00327	7e 25		 jle	 SHORT $LN640@AddSFXInfo
  00329	0f 1f 80 00 00
	00 00		 npad	 7
$LL483@AddSFXInfo:

; 1655 :             --_Block;
; 1656 :             auto& _Block_ptr = _Map()[_Block];
; 1657 :             if (_Block_ptr) { // free block

  00330	8b 44 b1 fc	 mov	 eax, DWORD PTR [ecx+esi*4-4]
  00334	4e		 dec	 esi
  00335	85 c0		 test	 eax, eax
  00337	74 0e		 je	 SHORT $LN481@AddSFXInfo
; File C:\Program Files\Microsoft Visual Studio\2022\Professional\VC\Tools\MSVC\14.44.35207\include\xmemory

; 289  :         ::operator delete(_Ptr, _Bytes);

  00339	6a 24		 push	 36			; 00000024H
  0033b	50		 push	 eax
  0033c	e8 00 00 00 00	 call	 ??3@YAXPAXI@Z		; operator delete
  00341	8b 4d ac	 mov	 ecx, DWORD PTR $T2[ebp+8]
  00344	83 c4 08	 add	 esp, 8
$LN481@AddSFXInfo:
; File C:\Program Files\Microsoft Visual Studio\2022\Professional\VC\Tools\MSVC\14.44.35207\include\deque

; 1654 :         for (auto _Block = _Map_distance(); _Block > 0;) { // free storage for a block and destroy pointer

  00347	85 f6		 test	 esi, esi
  00349	7f e5		 jg	 SHORT $LL483@AddSFXInfo
  0034b	8b 75 b0	 mov	 esi, DWORD PTR $T2[ebp+12]
$LN640@AddSFXInfo:
; File C:\Program Files\Microsoft Visual Studio\2022\Professional\VC\Tools\MSVC\14.44.35207\include\xmemory

; 985  :         _STD _Deallocate<_New_alignof<_Ty>>(_Ptr, sizeof(_Ty) * _Count);

  0034e	c1 e6 02	 shl	 esi, 2
  00351	8b c1		 mov	 eax, ecx

; 284  :         if (_Bytes >= _Big_allocation_threshold) {

  00353	81 fe 00 10 00
	00		 cmp	 esi, 4096		; 00001000H
  00359	72 14		 jb	 SHORT $LN511@AddSFXInfo

; 205  :     const uintptr_t _Ptr_container   = _Ptr_user[-1];

  0035b	8b 48 fc	 mov	 ecx, DWORD PTR [eax-4]
  0035e	83 c6 23	 add	 esi, 35			; 00000023H
  00361	2b c1		 sub	 eax, ecx

; 219  :     _STL_VERIFY(_Back_shift >= _Min_back_shift && _Back_shift <= _Non_user_size, "invalid argument");

  00363	83 c0 fc	 add	 eax, -4			; fffffffcH
  00366	83 f8 1f	 cmp	 eax, 31			; 0000001fH
  00369	0f 87 d1 00 00
	00		 ja	 $LN663@AddSFXInfo
$LN511@AddSFXInfo:

; 289  :         ::operator delete(_Ptr, _Bytes);

  0036f	56		 push	 esi
  00370	51		 push	 ecx
  00371	e8 00 00 00 00	 call	 ??3@YAXPAXI@Z		; operator delete
  00376	83 c4 08	 add	 esp, 8
; File C:\Program Files\Microsoft Visual Studio\2022\Professional\VC\Tools\MSVC\14.44.35207\include\deque

; 1666 :         _Map()     = nullptr;

  00379	c7 45 ac 00 00
	00 00		 mov	 DWORD PTR $T2[ebp+8], 0

; 1667 :         _Mapsize() = 0;

  00380	c7 45 b0 00 00
	00 00		 mov	 DWORD PTR $T2[ebp+12], 0
$LN485@AddSFXInfo:
; File C:\Program Files\Microsoft Visual Studio\2022\Professional\VC\Tools\MSVC\14.44.35207\include\utility

; 773  :     _Ty _Old_val = static_cast<_Ty&&>(_Val);

  00387	8b 45 a8	 mov	 eax, DWORD PTR $T2[ebp+4]
; File C:\Program Files\Microsoft Visual Studio\2022\Professional\VC\Tools\MSVC\14.44.35207\include\xmemory

; 289  :         ::operator delete(_Ptr, _Bytes);

  0038a	6a 08		 push	 8
  0038c	50		 push	 eax
; File C:\Program Files\Microsoft Visual Studio\2022\Professional\VC\Tools\MSVC\14.44.35207\include\utility

; 774  :     _Val         = static_cast<_Other&&>(_New_val);

  0038d	c7 45 a8 00 00
	00 00		 mov	 DWORD PTR $T2[ebp+4], 0
; File C:\Program Files\Microsoft Visual Studio\2022\Professional\VC\Tools\MSVC\14.44.35207\include\xmemory

; 289  :         ::operator delete(_Ptr, _Bytes);

  00394	e8 00 00 00 00	 call	 ??3@YAXPAXI@Z		; operator delete
; File C:\Program Files\Microsoft Visual Studio\2022\Professional\VC\Tools\MSVC\14.44.35207\include\deque

; 971  :         return _Mysize() == 0;

  00399	8b 45 cc	 mov	 eax, DWORD PTR _q$3[ebp+16]
; File C:\Program Files\Microsoft Visual Studio\2022\Professional\VC\Tools\MSVC\14.44.35207\include\xmemory

; 289  :         ::operator delete(_Ptr, _Bytes);

  0039c	83 c4 08	 add	 esp, 8
; File C:\Program Files\Microsoft Visual Studio\2022\Professional\VC\Tools\MSVC\14.44.35207\include\deque

; 971  :         return _Mysize() == 0;

  0039f	85 c0		 test	 eax, eax

; 1673 :         while (!empty()) {

  003a1	74 0b		 je	 SHORT $LN654@AddSFXInfo
$LL551@AddSFXInfo:

; 1513 :         if (--_Mysize() == 0) {

  003a3	83 c0 ff	 add	 eax, -1
  003a6	75 fb		 jne	 SHORT $LL551@AddSFXInfo
  003a8	89 45 cc	 mov	 DWORD PTR _q$3[ebp+16], eax

; 1514 :             _Myoff() = 0;

  003ab	89 45 c8	 mov	 DWORD PTR _q$3[ebp+12], eax
$LN654@AddSFXInfo:

; 1677 :         if (_Map() != nullptr) {

  003ae	8b 4d c0	 mov	 ecx, DWORD PTR _q$3[ebp+4]
  003b1	85 c9		 test	 ecx, ecx
  003b3	74 5e		 je	 SHORT $LN574@AddSFXInfo

; 1654 :         for (auto _Block = _Map_distance(); _Block > 0;) { // free storage for a block and destroy pointer

  003b5	8b 75 c4	 mov	 esi, DWORD PTR _q$3[ebp+8]
  003b8	85 f6		 test	 esi, esi
  003ba	7e 22		 jle	 SHORT $LN641@AddSFXInfo
  003bc	0f 1f 40 00	 npad	 4
$LL572@AddSFXInfo:

; 1655 :             --_Block;
; 1656 :             auto& _Block_ptr = _Map()[_Block];
; 1657 :             if (_Block_ptr) { // free block

  003c0	8b 44 b1 fc	 mov	 eax, DWORD PTR [ecx+esi*4-4]
  003c4	4e		 dec	 esi
  003c5	85 c0		 test	 eax, eax
  003c7	74 0e		 je	 SHORT $LN570@AddSFXInfo
; File C:\Program Files\Microsoft Visual Studio\2022\Professional\VC\Tools\MSVC\14.44.35207\include\xmemory

; 289  :         ::operator delete(_Ptr, _Bytes);

  003c9	6a 24		 push	 36			; 00000024H
  003cb	50		 push	 eax
  003cc	e8 00 00 00 00	 call	 ??3@YAXPAXI@Z		; operator delete
  003d1	8b 4d c0	 mov	 ecx, DWORD PTR _q$3[ebp+4]
  003d4	83 c4 08	 add	 esp, 8
$LN570@AddSFXInfo:
; File C:\Program Files\Microsoft Visual Studio\2022\Professional\VC\Tools\MSVC\14.44.35207\include\deque

; 1654 :         for (auto _Block = _Map_distance(); _Block > 0;) { // free storage for a block and destroy pointer

  003d7	85 f6		 test	 esi, esi
  003d9	7f e5		 jg	 SHORT $LL572@AddSFXInfo
  003db	8b 75 c4	 mov	 esi, DWORD PTR _q$3[ebp+8]
$LN641@AddSFXInfo:
; File C:\Program Files\Microsoft Visual Studio\2022\Professional\VC\Tools\MSVC\14.44.35207\include\xmemory

; 985  :         _STD _Deallocate<_New_alignof<_Ty>>(_Ptr, sizeof(_Ty) * _Count);

  003de	c1 e6 02	 shl	 esi, 2
  003e1	8b c1		 mov	 eax, ecx

; 284  :         if (_Bytes >= _Big_allocation_threshold) {

  003e3	81 fe 00 10 00
	00		 cmp	 esi, 4096		; 00001000H
  003e9	72 10		 jb	 SHORT $LN600@AddSFXInfo

; 205  :     const uintptr_t _Ptr_container   = _Ptr_user[-1];

  003eb	8b 48 fc	 mov	 ecx, DWORD PTR [eax-4]
  003ee	83 c6 23	 add	 esi, 35			; 00000023H
  003f1	2b c1		 sub	 eax, ecx

; 219  :     _STL_VERIFY(_Back_shift >= _Min_back_shift && _Back_shift <= _Non_user_size, "invalid argument");

  003f3	83 c0 fc	 add	 eax, -4			; fffffffcH
  003f6	83 f8 1f	 cmp	 eax, 31			; 0000001fH
  003f9	77 54		 ja	 SHORT $LN664@AddSFXInfo
$LN600@AddSFXInfo:

; 289  :         ::operator delete(_Ptr, _Bytes);

  003fb	56		 push	 esi
  003fc	51		 push	 ecx
  003fd	e8 00 00 00 00	 call	 ??3@YAXPAXI@Z		; operator delete
  00402	83 c4 08	 add	 esp, 8
; File C:\Program Files\Microsoft Visual Studio\2022\Professional\VC\Tools\MSVC\14.44.35207\include\deque

; 1666 :         _Map()     = nullptr;

  00405	c7 45 c0 00 00
	00 00		 mov	 DWORD PTR _q$3[ebp+4], 0

; 1667 :         _Mapsize() = 0;

  0040c	c7 45 c4 00 00
	00 00		 mov	 DWORD PTR _q$3[ebp+8], 0
$LN574@AddSFXInfo:
; File C:\Program Files\Microsoft Visual Studio\2022\Professional\VC\Tools\MSVC\14.44.35207\include\utility

; 773  :     _Ty _Old_val = static_cast<_Ty&&>(_Val);

  00413	8b 45 bc	 mov	 eax, DWORD PTR _q$3[ebp]
; File C:\Program Files\Microsoft Visual Studio\2022\Professional\VC\Tools\MSVC\14.44.35207\include\xmemory

; 289  :         ::operator delete(_Ptr, _Bytes);

  00416	6a 08		 push	 8
  00418	50		 push	 eax
; File C:\Program Files\Microsoft Visual Studio\2022\Professional\VC\Tools\MSVC\14.44.35207\include\utility

; 774  :     _Val         = static_cast<_Other&&>(_New_val);

  00419	c7 45 bc 00 00
	00 00		 mov	 DWORD PTR _q$3[ebp], 0
; File C:\Program Files\Microsoft Visual Studio\2022\Professional\VC\Tools\MSVC\14.44.35207\include\xmemory

; 289  :         ::operator delete(_Ptr, _Bytes);

  00420	e8 00 00 00 00	 call	 ??3@YAXPAXI@Z		; operator delete
  00425	83 c4 08	 add	 esp, 8
; File C:\IAGOS\server\v18\Source\Source\_Common\MoverAttack.cpp

; 2226 : }

  00428	8b 4d f4	 mov	 ecx, DWORD PTR __$EHRec$[ebp]
  0042b	64 89 0d 00 00
	00 00		 mov	 DWORD PTR fs:0, ecx
  00432	59		 pop	 ecx
  00433	5f		 pop	 edi
  00434	5e		 pop	 esi
  00435	8b e5		 mov	 esp, ebp
  00437	5d		 pop	 ebp
  00438	c2 08 00	 ret	 8
$LN662@AddSFXInfo:
; File C:\Program Files\Microsoft Visual Studio\2022\Professional\VC\Tools\MSVC\14.44.35207\include\xtree

; 1649 :             _Throw_tree_length_error();

  0043b	e8 00 00 00 00	 call	 ?_Throw_tree_length_error@std@@YAXXZ ; std::_Throw_tree_length_error
$LN663@AddSFXInfo:
; File C:\Program Files\Microsoft Visual Studio\2022\Professional\VC\Tools\MSVC\14.44.35207\include\xmemory

; 219  :     _STL_VERIFY(_Back_shift >= _Min_back_shift && _Back_shift <= _Non_user_size, "invalid argument");

  00440	6a 00		 push	 0
  00442	6a 00		 push	 0
  00444	6a 00		 push	 0
  00446	6a 00		 push	 0
  00448	6a 00		 push	 0
  0044a	e8 00 00 00 00	 call	 __invoke_watson
$LN664@AddSFXInfo:
  0044f	6a 00		 push	 0
  00451	6a 00		 push	 0
  00453	6a 00		 push	 0
  00455	6a 00		 push	 0
  00457	6a 00		 push	 0
  00459	e8 00 00 00 00	 call	 __invoke_watson
$LN660@AddSFXInfo:
  0045e	cc		 int	 3
_TEXT	ENDS
;	COMDAT text$x
text$x	SEGMENT
__unwindfunclet$?AddSFXInfo@CMover@@QAEXKAAUSFXHIT_INFO@@@Z$0:
  00000	8d 4d bc	 lea	 ecx, DWORD PTR _q$3[ebp]
  00003	e9 00 00 00 00	 jmp	 ??1?$queue@USFXHIT_INFO@@V?$deque@USFXHIT_INFO@@V?$allocator@USFXHIT_INFO@@@std@@@std@@@std@@QAE@XZ
__unwindfunclet$?AddSFXInfo@CMover@@QAEXKAAUSFXHIT_INFO@@@Z$5:
  00008	8d 4d d4	 lea	 ecx, DWORD PTR __Proxy$7[ebp]
  0000b	e9 00 00 00 00	 jmp	 ??1?$_Container_proxy_ptr12@V?$allocator@U_Container_proxy@std@@@std@@@std@@QAE@XZ ; std::_Container_proxy_ptr12<std::allocator<std::_Container_proxy> >::~_Container_proxy_ptr12<std::allocator<std::_Container_proxy> >
__unwindfunclet$?AddSFXInfo@CMover@@QAEXKAAUSFXHIT_INFO@@@Z$6:
  00010	8d 4d e4	 lea	 ecx, DWORD PTR __Guard$12[ebp]
  00013	e9 00 00 00 00	 jmp	 ??1?$_Tidy_guard@V?$deque@USFXHIT_INFO@@V?$allocator@USFXHIT_INFO@@@std@@@std@@@std@@QAE@XZ ; std::_Tidy_guard<std::deque<SFXHIT_INFO,std::allocator<SFXHIT_INFO> > >::~_Tidy_guard<std::deque<SFXHIT_INFO,std::allocator<SFXHIT_INFO> > >
__unwindfunclet$?AddSFXInfo@CMover@@QAEXKAAUSFXHIT_INFO@@@Z$1:
  00018	8d 4d a4	 lea	 ecx, DWORD PTR $T2[ebp]
  0001b	e9 00 00 00 00	 jmp	 ??1?$pair@$$CBKV?$queue@USFXHIT_INFO@@V?$deque@USFXHIT_INFO@@V?$allocator@USFXHIT_INFO@@@std@@@std@@@std@@@std@@QAE@XZ
__unwindfunclet$?AddSFXInfo@CMover@@QAEXKAAUSFXHIT_INFO@@@Z$9:
  00020	8d 4d e0	 lea	 ecx, DWORD PTR $T9[ebp]
  00023	e9 00 00 00 00	 jmp	 ??1?$_Alloc_construct_ptr@V?$allocator@U?$_Tree_node@U?$pair@$$CBKV?$queue@USFXHIT_INFO@@V?$deque@USFXHIT_INFO@@V?$allocator@USFXHIT_INFO@@@std@@@std@@@std@@@std@@PAX@std@@@std@@@std@@QAE@XZ ; std::_Alloc_construct_ptr<std::allocator<std::_Tree_node<std::pair<unsigned long const ,std::queue<SFXHIT_INFO,std::deque<SFXHIT_INFO,std::allocator<SFXHIT_INFO> > > >,void *> > >::~_Alloc_construct_ptr<std::allocator<std::_Tree_node<std::pair<unsigned long const ,std::queue<SFXHIT_INFO,std::deque<SFXHIT_INFO,std::allocator<SFXHIT_INFO> > > >,void *> > >
__unwindfunclet$?AddSFXInfo@CMover@@QAEXKAAUSFXHIT_INFO@@@Z$8:
  00028	8d 4d e0	 lea	 ecx, DWORD PTR $T9[ebp]
  0002b	e9 00 00 00 00	 jmp	 ??1?$_Tree_temp_node_alloc@V?$allocator@U?$_Tree_node@U?$pair@$$CBKV?$queue@USFXHIT_INFO@@V?$deque@USFXHIT_INFO@@V?$allocator@USFXHIT_INFO@@@std@@@std@@@std@@@std@@PAX@std@@@std@@@std@@QAE@XZ
  00030	cc		 int	 3
  00031	cc		 int	 3
  00032	cc		 int	 3
  00033	cc		 int	 3
  00034	cc		 int	 3
__ehhandler$?AddSFXInfo@CMover@@QAEXKAAUSFXHIT_INFO@@@Z:
  00035	90		 npad	 1
  00036	90		 npad	 1
  00037	8b 54 24 08	 mov	 edx, DWORD PTR [esp+8]
  0003b	8d 42 0c	 lea	 eax, DWORD PTR [edx+12]
  0003e	8b 4a a4	 mov	 ecx, DWORD PTR [edx-92]
  00041	33 c8		 xor	 ecx, eax
  00043	e8 00 00 00 00	 call	 @__security_check_cookie@4
  00048	b8 00 00 00 00	 mov	 eax, OFFSET __ehfuncinfo$?AddSFXInfo@CMover@@QAEXKAAUSFXHIT_INFO@@@Z
  0004d	e9 00 00 00 00	 jmp	 ___CxxFrameHandler3
text$x	ENDS
?AddSFXInfo@CMover@@QAEXKAAUSFXHIT_INFO@@@Z ENDP	; CMover::AddSFXInfo
; Function compile flags: /Ogtp
; File C:\IAGOS\server\v18\Source\Source\_Common\MoverAttack.cpp
; File C:\Program Files\Microsoft Visual Studio\2022\Professional\VC\Tools\MSVC\14.44.35207\include\xtree
; File C:\IAGOS\server\v18\Source\Source\_Common\MoverAttack.cpp
; File C:\Program Files\Microsoft Visual Studio\2022\Professional\VC\Tools\MSVC\14.44.35207\include\xtree
; File C:\Program Files\Microsoft Visual Studio\2022\Professional\VC\Tools\MSVC\14.44.35207\include\type_traits
; File C:\Program Files\Microsoft Visual Studio\2022\Professional\VC\Tools\MSVC\14.44.35207\include\xtree
; File C:\IAGOS\server\v18\Source\Source\_Common\MoverAttack.cpp
; File C:\Program Files\Microsoft Visual Studio\2022\Professional\VC\Tools\MSVC\14.44.35207\include\deque
; File C:\IAGOS\server\v18\Source\Source\_Common\MoverAttack.cpp
; File C:\Program Files\Microsoft Visual Studio\2022\Professional\VC\Tools\MSVC\14.44.35207\include\xmemory
; File C:\Program Files\Microsoft Visual Studio\2022\Professional\VC\Tools\MSVC\14.44.35207\include\deque
; File C:\Program Files\Microsoft Visual Studio\2022\Professional\VC\Tools\MSVC\14.44.35207\include\xmemory
; File C:\IAGOS\server\v18\Source\Source\_Common\MoverAttack.cpp
; File C:\Program Files\Microsoft Visual Studio\2022\Professional\VC\Tools\MSVC\14.44.35207\include\deque
; File C:\Program Files\Microsoft Visual Studio\2022\Professional\VC\Tools\MSVC\14.44.35207\include\utility
; File C:\Program Files\Microsoft Visual Studio\2022\Professional\VC\Tools\MSVC\14.44.35207\include\xtree
; File C:\IAGOS\server\v18\Source\Source\_Common\MoverAttack.cpp
; File C:\Program Files\Microsoft Visual Studio\2022\Professional\VC\Tools\MSVC\14.44.35207\include\xtree
; File C:\Program Files\Microsoft Visual Studio\2022\Professional\VC\Tools\MSVC\14.44.35207\include\type_traits
; File C:\Program Files\Microsoft Visual Studio\2022\Professional\VC\Tools\MSVC\14.44.35207\include\xtree
; File C:\Program Files\Microsoft Visual Studio\2022\Professional\VC\Tools\MSVC\14.44.35207\include\xmemory
; File C:\Program Files\Microsoft Visual Studio\2022\Professional\VC\Tools\MSVC\14.44.35207\include\xtree
; File C:\Program Files\Microsoft Visual Studio\2022\Professional\VC\Tools\MSVC\14.44.35207\include\xmemory
; File C:\Program Files\Microsoft Visual Studio\2022\Professional\VC\Tools\MSVC\14.44.35207\include\utility
; File C:\Program Files\Microsoft Visual Studio\2022\Professional\VC\Tools\MSVC\14.44.35207\include\xmemory
; File C:\Program Files\Microsoft Visual Studio\2022\Professional\VC\Tools\MSVC\14.44.35207\include\xtree
; File C:\Program Files\Microsoft Visual Studio\2022\Professional\VC\Tools\MSVC\14.44.35207\include\utility
; File C:\Program Files\Microsoft Visual Studio\2022\Professional\VC\Tools\MSVC\14.44.35207\include\xmemory
; File C:\Program Files\Microsoft Visual Studio\2022\Professional\VC\Tools\MSVC\14.44.35207\include\deque
; File C:\Program Files\Microsoft Visual Studio\2022\Professional\VC\Tools\MSVC\14.44.35207\include\xmemory
; File C:\Program Files\Microsoft Visual Studio\2022\Professional\VC\Tools\MSVC\14.44.35207\include\deque
; File C:\Program Files\Microsoft Visual Studio\2022\Professional\VC\Tools\MSVC\14.44.35207\include\xtree
; File C:\Program Files\Microsoft Visual Studio\2022\Professional\VC\Tools\MSVC\14.44.35207\include\deque
; File C:\Program Files\Microsoft Visual Studio\2022\Professional\VC\Tools\MSVC\14.44.35207\include\xtree
; File C:\Program Files\Microsoft Visual Studio\2022\Professional\VC\Tools\MSVC\14.44.35207\include\deque
; File C:\Program Files\Microsoft Visual Studio\2022\Professional\VC\Tools\MSVC\14.44.35207\include\xtree
; File C:\Program Files\Microsoft Visual Studio\2022\Professional\VC\Tools\MSVC\14.44.35207\include\deque
; File C:\Program Files\Microsoft Visual Studio\2022\Professional\VC\Tools\MSVC\14.44.35207\include\xtree
; File C:\Program Files\Microsoft Visual Studio\2022\Professional\VC\Tools\MSVC\14.44.35207\include\deque
; File C:\Program Files\Microsoft Visual Studio\2022\Professional\VC\Tools\MSVC\14.44.35207\include\utility
; File C:\Program Files\Microsoft Visual Studio\2022\Professional\VC\Tools\MSVC\14.44.35207\include\xmemory
; File C:\Program Files\Microsoft Visual Studio\2022\Professional\VC\Tools\MSVC\14.44.35207\include\utility
; File C:\Program Files\Microsoft Visual Studio\2022\Professional\VC\Tools\MSVC\14.44.35207\include\xmemory
; File C:\Program Files\Microsoft Visual Studio\2022\Professional\VC\Tools\MSVC\14.44.35207\include\deque
; File C:\Program Files\Microsoft Visual Studio\2022\Professional\VC\Tools\MSVC\14.44.35207\include\xmemory
; File C:\Program Files\Microsoft Visual Studio\2022\Professional\VC\Tools\MSVC\14.44.35207\include\deque
; File C:\Program Files\Microsoft Visual Studio\2022\Professional\VC\Tools\MSVC\14.44.35207\include\xmemory
; File C:\Program Files\Microsoft Visual Studio\2022\Professional\VC\Tools\MSVC\14.44.35207\include\deque
; File C:\Program Files\Microsoft Visual Studio\2022\Professional\VC\Tools\MSVC\14.44.35207\include\xmemory
; File C:\Program Files\Microsoft Visual Studio\2022\Professional\VC\Tools\MSVC\14.44.35207\include\deque
; File C:\Program Files\Microsoft Visual Studio\2022\Professional\VC\Tools\MSVC\14.44.35207\include\utility
; File C:\Program Files\Microsoft Visual Studio\2022\Professional\VC\Tools\MSVC\14.44.35207\include\xmemory
; File C:\Program Files\Microsoft Visual Studio\2022\Professional\VC\Tools\MSVC\14.44.35207\include\utility
; File C:\Program Files\Microsoft Visual Studio\2022\Professional\VC\Tools\MSVC\14.44.35207\include\xmemory
; File C:\IAGOS\server\v18\Source\Source\_Common\MoverAttack.cpp
; File C:\Program Files\Microsoft Visual Studio\2022\Professional\VC\Tools\MSVC\14.44.35207\include\xtree
; File C:\Program Files\Microsoft Visual Studio\2022\Professional\VC\Tools\MSVC\14.44.35207\include\xmemory
; File C:\IAGOS\server\v18\Source\Source\_Common\MoverAttack.cpp
;	COMDAT ?IncSFXCount@CMover@@QAEXKK@Z
_TEXT	SEGMENT
$T2 = -80						; size = 24
_q$3 = -56						; size = 20
__Loc$4 = -36						; size = 12
__Loc$5 = -36						; size = 12
$T6 = -24						; size = 12
_c$7 = -20						; size = 8
_c$8 = -20						; size = 8
$T9 = -20						; size = 8
__$EHRec$ = -12						; size = 12
_idTarget$ = 8						; size = 4
__Myhead$1$ = 8						; size = 4
_dwSkill$ = 12						; size = 4
_this$ = 12						; size = 4
?IncSFXCount@CMover@@QAEXKK@Z PROC			; CMover::IncSFXCount, COMDAT
; _this$ = ecx

; 2193 : {

  00000	55		 push	 ebp
  00001	8b ec		 mov	 ebp, esp
  00003	6a ff		 push	 -1
  00005	68 00 00 00 00	 push	 __ehhandler$?IncSFXCount@CMover@@QAEXKK@Z
  0000a	64 a1 00 00 00
	00		 mov	 eax, DWORD PTR fs:0
  00010	50		 push	 eax
  00011	83 ec 44	 sub	 esp, 68			; 00000044H
  00014	53		 push	 ebx
  00015	56		 push	 esi
  00016	57		 push	 edi
  00017	a1 00 00 00 00	 mov	 eax, DWORD PTR ___security_cookie
  0001c	33 c5		 xor	 eax, ebp
  0001e	50		 push	 eax
  0001f	8d 45 f4	 lea	 eax, DWORD PTR __$EHRec$[ebp]
  00022	64 a3 00 00 00
	00		 mov	 DWORD PTR fs:0, eax
; File C:\Program Files\Microsoft Visual Studio\2022\Professional\VC\Tools\MSVC\14.44.35207\include\xtree

; 1384 :         const _Tree_find_result<_Nodeptr> _Loc = _Find_lower_bound(_Keyval);

  00028	8d 45 08	 lea	 eax, DWORD PTR _idTarget$[ebp]
  0002b	50		 push	 eax
; File C:\IAGOS\server\v18\Source\Source\_Common\MoverAttack.cpp

; 2194 : 	map<OBJID, queue<SFXHIT_COUNT> >::iterator it = m_mapSFXCount.find( idTarget );

  0002c	8d b9 90 10 00
	00		 lea	 edi, DWORD PTR [ecx+4240]
; File C:\Program Files\Microsoft Visual Studio\2022\Professional\VC\Tools\MSVC\14.44.35207\include\xtree

; 1384 :         const _Tree_find_result<_Nodeptr> _Loc = _Find_lower_bound(_Keyval);

  00032	8d 45 dc	 lea	 eax, DWORD PTR __Loc$4[ebp]
  00035	8b cf		 mov	 ecx, edi
  00037	50		 push	 eax
  00038	e8 00 00 00 00	 call	 ??$_Find_lower_bound@K@?$_Tree@V?$_Tmap_traits@KV?$queue@USFXHIT_COUNT@@V?$deque@USFXHIT_COUNT@@V?$allocator@USFXHIT_COUNT@@@std@@@std@@@std@@U?$less@K@2@V?$allocator@U?$pair@$$CBKV?$queue@USFXHIT_COUNT@@V?$deque@USFXHIT_COUNT@@V?$allocator@USFXHIT_COUNT@@@std@@@std@@@std@@@std@@@2@$0A@@std@@@std@@IBE?AU?$_Tree_find_result@PAU?$_Tree_node@U?$pair@$$CBKV?$queue@USFXHIT_COUNT@@V?$deque@USFXHIT_COUNT@@V?$allocator@USFXHIT_COUNT@@@std@@@std@@@std@@@std@@PAX@std@@@1@ABK@Z ; std::_Tree<std::_Tmap_traits<unsigned long,std::queue<SFXHIT_COUNT,std::deque<SFXHIT_COUNT,std::allocator<SFXHIT_COUNT> > >,std::less<unsigned long>,std::allocator<std::pair<unsigned long const ,std::queue<SFXHIT_COUNT,std::deque<SFXHIT_COUNT,std::allocator<SFXHIT_COUNT> > > > >,0> >::_Find_lower_bound<unsigned long>

; 1624 :         return !_Bound->_Isnil && !_DEBUG_LT_PRED(_Getcomp(), _Keyval, _Traits::_Kfn(_Bound->_Myval));

  0003d	8b 75 e4	 mov	 esi, DWORD PTR __Loc$4[ebp+8]
  00040	8b 5d 08	 mov	 ebx, DWORD PTR _idTarget$[ebp]
  00043	80 7e 0d 00	 cmp	 BYTE PTR [esi+13], 0
  00047	75 38		 jne	 SHORT $LN2@IncSFXCoun
; File C:\Program Files\Microsoft Visual Studio\2022\Professional\VC\Tools\MSVC\14.44.35207\include\type_traits

; 2380 :         return _Left < _Right;

  00049	3b 5e 10	 cmp	 ebx, DWORD PTR [esi+16]
; File C:\Program Files\Microsoft Visual Studio\2022\Professional\VC\Tools\MSVC\14.44.35207\include\xtree

; 1624 :         return !_Bound->_Isnil && !_DEBUG_LT_PRED(_Getcomp(), _Keyval, _Traits::_Kfn(_Bound->_Myval));

  0004c	72 33		 jb	 SHORT $LN2@IncSFXCoun

; 37   :     _Tree_unchecked_const_iterator(_Nodeptr _Pnode, const _Mytree* _Plist) noexcept : _Ptr(_Pnode) {

  0004e	3b 37		 cmp	 esi, DWORD PTR [edi]
; File C:\IAGOS\server\v18\Source\Source\_Common\MoverAttack.cpp

; 2195 : 	if( it != m_mapSFXCount.end() )

  00050	74 2f		 je	 SHORT $LN2@IncSFXCoun

; 2196 : 	{
; 2197 : 		queue<SFXHIT_COUNT> &q	= it->second;
; 2198 : 		SFXHIT_COUNT c	= {	dwSkill, GetTickCount()	};

  00052	8b 45 0c	 mov	 eax, DWORD PTR _dwSkill$[ebp]
  00055	89 45 ec	 mov	 DWORD PTR _c$7[ebp], eax
  00058	ff 15 00 00 00
	00		 call	 DWORD PTR __imp__GetTickCount@0
  0005e	89 45 f0	 mov	 DWORD PTR _c$7[ebp+4], eax
  00061	8d 4e 14	 lea	 ecx, DWORD PTR [esi+20]
; File C:\Program Files\Microsoft Visual Studio\2022\Professional\VC\Tools\MSVC\14.44.35207\include\deque

; 1249 :         _Emplace_back_internal(_Val);

  00064	8d 45 ec	 lea	 eax, DWORD PTR _c$7[ebp]
  00067	50		 push	 eax
  00068	e8 00 00 00 00	 call	 ??$_Emplace_back_internal@ABUSFXHIT_COUNT@@@?$deque@USFXHIT_COUNT@@V?$allocator@USFXHIT_COUNT@@@std@@@std@@AAEXABUSFXHIT_COUNT@@@Z ; std::deque<SFXHIT_COUNT,std::allocator<SFXHIT_COUNT> >::_Emplace_back_internal<SFXHIT_COUNT const &>
; File C:\IAGOS\server\v18\Source\Source\_Common\MoverAttack.cpp

; 2208 : }

  0006d	8b 4d f4	 mov	 ecx, DWORD PTR __$EHRec$[ebp]
  00070	64 89 0d 00 00
	00 00		 mov	 DWORD PTR fs:0, ecx
  00077	59		 pop	 ecx
  00078	5f		 pop	 edi
  00079	5e		 pop	 esi
  0007a	5b		 pop	 ebx
  0007b	8b e5		 mov	 esp, ebp
  0007d	5d		 pop	 ebp
  0007e	c2 08 00	 ret	 8
$LN2@IncSFXCoun:
; File C:\Program Files\Microsoft Visual Studio\2022\Professional\VC\Tools\MSVC\14.44.35207\include\xmemory

; 136  :         return ::operator new(_Bytes);

  00081	6a 08		 push	 8

; 1235 :     _Container_proxy* _Myproxy = nullptr;

  00083	c7 45 c8 00 00
	00 00		 mov	 DWORD PTR _q$3[ebp], 0
; File C:\Program Files\Microsoft Visual Studio\2022\Professional\VC\Tools\MSVC\14.44.35207\include\deque

; 556  :     _Deque_val() noexcept : _Map(), _Mapsize(0), _Myoff(0), _Mysize(0) {}

  0008a	c7 45 cc 00 00
	00 00		 mov	 DWORD PTR _q$3[ebp+4], 0
  00091	c7 45 d0 00 00
	00 00		 mov	 DWORD PTR _q$3[ebp+8], 0
  00098	c7 45 d4 00 00
	00 00		 mov	 DWORD PTR _q$3[ebp+12], 0
  0009f	c7 45 d8 00 00
	00 00		 mov	 DWORD PTR _q$3[ebp+16], 0
; File C:\Program Files\Microsoft Visual Studio\2022\Professional\VC\Tools\MSVC\14.44.35207\include\xmemory

; 136  :         return ::operator new(_Bytes);

  000a6	e8 00 00 00 00	 call	 ??2@YAPAXI@Z		; operator new

; 1223 :         _New_proxy->_Mycont = this;

  000ab	8d 4d c8	 lea	 ecx, DWORD PTR _q$3[ebp]

; 136  :         return ::operator new(_Bytes);

  000ae	83 c4 04	 add	 esp, 4

; 1205 :     mutable _Iterator_base12* _Myfirstiter = nullptr;

  000b1	c7 40 04 00 00
	00 00		 mov	 DWORD PTR [eax+4], 0

; 1222 :         _Myproxy            = _New_proxy;

  000b8	89 45 c8	 mov	 DWORD PTR _q$3[ebp], eax

; 1223 :         _New_proxy->_Mycont = this;

  000bb	89 08		 mov	 DWORD PTR [eax], ecx
; File C:\IAGOS\server\v18\Source\Source\_Common\MoverAttack.cpp

; 2204 : 		SFXHIT_COUNT c	= {	dwSkill, GetTickCount()	};

  000bd	8b 45 0c	 mov	 eax, DWORD PTR _dwSkill$[ebp]
  000c0	c7 45 fc 00 00
	00 00		 mov	 DWORD PTR __$EHRec$[ebp+8], 0
  000c7	89 45 ec	 mov	 DWORD PTR _c$8[ebp], eax
  000ca	ff 15 00 00 00
	00		 call	 DWORD PTR __imp__GetTickCount@0
  000d0	89 45 f0	 mov	 DWORD PTR _c$8[ebp+4], eax
; File C:\Program Files\Microsoft Visual Studio\2022\Professional\VC\Tools\MSVC\14.44.35207\include\deque

; 1249 :         _Emplace_back_internal(_Val);

  000d3	8d 4d c8	 lea	 ecx, DWORD PTR _q$3[ebp]
  000d6	8d 45 ec	 lea	 eax, DWORD PTR _c$8[ebp]
  000d9	50		 push	 eax
  000da	e8 00 00 00 00	 call	 ??$_Emplace_back_internal@ABUSFXHIT_COUNT@@@?$deque@USFXHIT_COUNT@@V?$allocator@USFXHIT_COUNT@@@std@@@std@@AAEXABUSFXHIT_COUNT@@@Z ; std::deque<SFXHIT_COUNT,std::allocator<SFXHIT_COUNT> >::_Emplace_back_internal<SFXHIT_COUNT const &>
  000df	8d 45 c8	 lea	 eax, DWORD PTR _q$3[ebp]
; File C:\Program Files\Microsoft Visual Studio\2022\Professional\VC\Tools\MSVC\14.44.35207\include\utility

; 274  :         : first(_STD forward<_Other1>(_Val1)), second(_STD forward<_Other2>(_Val2)) {

  000e2	89 5d b0	 mov	 DWORD PTR $T2[ebp], ebx
  000e5	50		 push	 eax
  000e6	8d 4d b4	 lea	 ecx, DWORD PTR $T2[ebp+4]
  000e9	e8 00 00 00 00	 call	 ??0?$deque@USFXHIT_COUNT@@V?$allocator@USFXHIT_COUNT@@@std@@@std@@QAE@ABV01@@Z ; std::deque<SFXHIT_COUNT,std::allocator<SFXHIT_COUNT> >::deque<SFXHIT_COUNT,std::allocator<SFXHIT_COUNT> >
; File C:\Program Files\Microsoft Visual Studio\2022\Professional\VC\Tools\MSVC\14.44.35207\include\xtree

; 1017 :             _Loc                = _Find_lower_bound(_Keyval);

  000ee	8d 45 b0	 lea	 eax, DWORD PTR $T2[ebp]
; File C:\IAGOS\server\v18\Source\Source\_Common\MoverAttack.cpp

; 2206 : 		m_mapSFXCount.insert( map<OBJID, queue<SFXHIT_COUNT> >::value_type( idTarget, q ) );

  000f1	c6 45 fc 01	 mov	 BYTE PTR __$EHRec$[ebp+8], 1
; File C:\Program Files\Microsoft Visual Studio\2022\Professional\VC\Tools\MSVC\14.44.35207\include\xtree

; 1017 :             _Loc                = _Find_lower_bound(_Keyval);

  000f5	50		 push	 eax
  000f6	8d 45 e8	 lea	 eax, DWORD PTR $T6[ebp]
  000f9	8b cf		 mov	 ecx, edi
  000fb	50		 push	 eax
  000fc	e8 00 00 00 00	 call	 ??$_Find_lower_bound@K@?$_Tree@V?$_Tmap_traits@KV?$queue@USFXHIT_COUNT@@V?$deque@USFXHIT_COUNT@@V?$allocator@USFXHIT_COUNT@@@std@@@std@@@std@@U?$less@K@2@V?$allocator@U?$pair@$$CBKV?$queue@USFXHIT_COUNT@@V?$deque@USFXHIT_COUNT@@V?$allocator@USFXHIT_COUNT@@@std@@@std@@@std@@@std@@@2@$0A@@std@@@std@@IBE?AU?$_Tree_find_result@PAU?$_Tree_node@U?$pair@$$CBKV?$queue@USFXHIT_COUNT@@V?$deque@USFXHIT_COUNT@@V?$allocator@USFXHIT_COUNT@@@std@@@std@@@std@@@std@@PAX@std@@@1@ABK@Z ; std::_Tree<std::_Tmap_traits<unsigned long,std::queue<SFXHIT_COUNT,std::deque<SFXHIT_COUNT,std::allocator<SFXHIT_COUNT> > >,std::less<unsigned long>,std::allocator<std::pair<unsigned long const ,std::queue<SFXHIT_COUNT,std::deque<SFXHIT_COUNT,std::allocator<SFXHIT_COUNT> > > > >,0> >::_Find_lower_bound<unsigned long>
  00101	8b 48 08	 mov	 ecx, DWORD PTR [eax+8]
  00104	f3 0f 7e 00	 movq	 xmm0, QWORD PTR [eax]
  00108	66 0f d6 45 dc	 movq	 QWORD PTR __Loc$5[ebp], xmm0

; 1624 :         return !_Bound->_Isnil && !_DEBUG_LT_PRED(_Getcomp(), _Keyval, _Traits::_Kfn(_Bound->_Myval));

  0010d	80 79 0d 00	 cmp	 BYTE PTR [ecx+13], 0
  00111	75 0c		 jne	 SHORT $LN115@IncSFXCoun
; File C:\Program Files\Microsoft Visual Studio\2022\Professional\VC\Tools\MSVC\14.44.35207\include\type_traits

; 2380 :         return _Left < _Right;

  00113	8b 45 b0	 mov	 eax, DWORD PTR $T2[ebp]
  00116	3b 41 10	 cmp	 eax, DWORD PTR [ecx+16]
; File C:\Program Files\Microsoft Visual Studio\2022\Professional\VC\Tools\MSVC\14.44.35207\include\xtree

; 1624 :         return !_Bound->_Isnil && !_DEBUG_LT_PRED(_Getcomp(), _Keyval, _Traits::_Kfn(_Bound->_Myval));

  00119	0f 83 e4 00 00
	00		 jae	 $LN296@IncSFXCoun
$LN115@IncSFXCoun:

; 1648 :         if (max_size() == _Get_scary()->_Mysize) {

  0011f	81 7f 04 66 66
	66 06		 cmp	 DWORD PTR [edi+4], 107374182 ; 06666666H
  00126	0f 84 90 01 00
	00		 je	 $LN458@IncSFXCoun

; 1023 :             _Inserted = _Tree_temp_node<_Alnode>(_Getal(), _Scary->_Myhead, _STD forward<_Valtys>(_Vals)...)._Release();

  0012c	8b 07		 mov	 eax, DWORD PTR [edi]
  0012e	89 45 08	 mov	 DWORD PTR __Myhead$1$[ebp], eax
; File C:\Program Files\Microsoft Visual Studio\2022\Professional\VC\Tools\MSVC\14.44.35207\include\xmemory

; 1160 :     _CONSTEXPR20 explicit _Alloc_construct_ptr(_Alloc& _Al_) : _Al(_Al_), _Ptr(nullptr) {}

  00131	89 7d ec	 mov	 DWORD PTR $T9[ebp], edi

; 136  :         return ::operator new(_Bytes);

  00134	6a 28		 push	 40			; 00000028H
; File C:\Program Files\Microsoft Visual Studio\2022\Professional\VC\Tools\MSVC\14.44.35207\include\xtree

; 808  :     explicit _Tree_temp_node_alloc(_Alnode& _Al_) : _Alloc_construct_ptr<_Alnode>(_Al_) {

  00136	c6 45 fc 02	 mov	 BYTE PTR __$EHRec$[ebp+8], 2
; File C:\Program Files\Microsoft Visual Studio\2022\Professional\VC\Tools\MSVC\14.44.35207\include\xmemory

; 1167 :         _Ptr = nullptr; // if allocate throws, prevents double-free

  0013a	c7 45 f0 00 00
	00 00		 mov	 DWORD PTR $T9[ebp+4], 0

; 136  :         return ::operator new(_Bytes);

  00141	e8 00 00 00 00	 call	 ??2@YAPAXI@Z		; operator new

; 256  :         return _Traits::_Allocate(_Bytes);

  00146	8b d8		 mov	 ebx, eax

; 1168 :         _Ptr = _Al.allocate(1);

  00148	89 5d f0	 mov	 DWORD PTR $T9[ebp+4], ebx
; File C:\Program Files\Microsoft Visual Studio\2022\Professional\VC\Tools\MSVC\14.44.35207\include\utility

; 278  :     pair(pair&&)      = default;

  0014b	8b 4d b0	 mov	 ecx, DWORD PTR $T2[ebp]
  0014e	8d 73 14	 lea	 esi, DWORD PTR [ebx+20]
  00151	89 4b 10	 mov	 DWORD PTR [ebx+16], ecx
; File C:\Program Files\Microsoft Visual Studio\2022\Professional\VC\Tools\MSVC\14.44.35207\include\xmemory

; 136  :         return ::operator new(_Bytes);

  00154	6a 08		 push	 8
; File C:\Program Files\Microsoft Visual Studio\2022\Professional\VC\Tools\MSVC\14.44.35207\include\xtree

; 829  :         : _Tree_temp_node_alloc<_Alnode>(_Al_) {

  00156	c6 45 fc 03	 mov	 BYTE PTR __$EHRec$[ebp+8], 3
; File C:\Program Files\Microsoft Visual Studio\2022\Professional\VC\Tools\MSVC\14.44.35207\include\utility

; 278  :     pair(pair&&)      = default;

  0015a	89 75 0c	 mov	 DWORD PTR _this$[ebp], esi
; File C:\Program Files\Microsoft Visual Studio\2022\Professional\VC\Tools\MSVC\14.44.35207\include\xmemory

; 1235 :     _Container_proxy* _Myproxy = nullptr;

  0015d	c7 06 00 00 00
	00		 mov	 DWORD PTR [esi], 0
; File C:\Program Files\Microsoft Visual Studio\2022\Professional\VC\Tools\MSVC\14.44.35207\include\deque

; 556  :     _Deque_val() noexcept : _Map(), _Mapsize(0), _Myoff(0), _Mysize(0) {}

  00163	c7 46 04 00 00
	00 00		 mov	 DWORD PTR [esi+4], 0
  0016a	c7 46 08 00 00
	00 00		 mov	 DWORD PTR [esi+8], 0
  00171	c7 46 0c 00 00
	00 00		 mov	 DWORD PTR [esi+12], 0
  00178	c7 46 10 00 00
	00 00		 mov	 DWORD PTR [esi+16], 0
; File C:\Program Files\Microsoft Visual Studio\2022\Professional\VC\Tools\MSVC\14.44.35207\include\xmemory

; 136  :         return ::operator new(_Bytes);

  0017f	e8 00 00 00 00	 call	 ??2@YAPAXI@Z		; operator new
  00184	83 c4 08	 add	 esp, 8

; 1205 :     mutable _Iterator_base12* _Myfirstiter = nullptr;

  00187	c7 40 04 00 00
	00 00		 mov	 DWORD PTR [eax+4], 0

; 1222 :         _Myproxy            = _New_proxy;

  0018e	89 06		 mov	 DWORD PTR [esi], eax

; 1223 :         _New_proxy->_Mycont = this;

  00190	89 30		 mov	 DWORD PTR [eax], esi

; 1407 :     _Myproxy                = _Right._Myproxy;

  00192	8b 45 b4	 mov	 eax, DWORD PTR $T2[ebp+4]
  00195	8b 0e		 mov	 ecx, DWORD PTR [esi]
  00197	89 06		 mov	 DWORD PTR [esi], eax

; 1408 :     _Right._Myproxy         = _Temp;

  00199	89 4d b4	 mov	 DWORD PTR $T2[ebp+4], ecx

; 1409 : 
; 1410 :     if (_Myproxy) {

  0019c	8b 06		 mov	 eax, DWORD PTR [esi]
  0019e	85 c0		 test	 eax, eax
  001a0	74 05		 je	 SHORT $LN200@IncSFXCoun

; 1411 :         _Myproxy->_Mycont = this;

  001a2	89 30		 mov	 DWORD PTR [eax], esi
  001a4	8b 4d b4	 mov	 ecx, DWORD PTR $T2[ebp+4]
$LN200@IncSFXCoun:

; 1412 :     }
; 1413 : 
; 1414 :     if (_Right._Myproxy) {

  001a7	85 c9		 test	 ecx, ecx
  001a9	74 05		 je	 SHORT $LN201@IncSFXCoun

; 1415 :         _Right._Myproxy->_Mycont = &_Right;

  001ab	8d 45 b4	 lea	 eax, DWORD PTR $T2[ebp+4]
  001ae	89 01		 mov	 DWORD PTR [ecx], eax
$LN201@IncSFXCoun:
; File C:\Program Files\Microsoft Visual Studio\2022\Professional\VC\Tools\MSVC\14.44.35207\include\deque

; 761  :         _My_data._Map     = _Right_data._Map;

  001b0	8b 45 b8	 mov	 eax, DWORD PTR $T2[ebp+8]
; File C:\Program Files\Microsoft Visual Studio\2022\Professional\VC\Tools\MSVC\14.44.35207\include\xtree

; 1042 :         return {_Scary->_Insert_node(_Loc._Location, _Inserted), true};

  001b3	8b cf		 mov	 ecx, edi
; File C:\Program Files\Microsoft Visual Studio\2022\Professional\VC\Tools\MSVC\14.44.35207\include\deque

; 761  :         _My_data._Map     = _Right_data._Map;

  001b5	89 46 04	 mov	 DWORD PTR [esi+4], eax

; 762  :         _My_data._Mapsize = _Right_data._Mapsize;

  001b8	8b 45 bc	 mov	 eax, DWORD PTR $T2[ebp+12]
  001bb	89 46 08	 mov	 DWORD PTR [esi+8], eax

; 763  :         _My_data._Myoff   = _Right_data._Myoff;

  001be	8b 45 c0	 mov	 eax, DWORD PTR $T2[ebp+16]
  001c1	89 46 0c	 mov	 DWORD PTR [esi+12], eax

; 764  :         _My_data._Mysize  = _Right_data._Mysize;

  001c4	8b 45 c4	 mov	 eax, DWORD PTR $T2[ebp+20]
  001c7	89 46 10	 mov	 DWORD PTR [esi+16], eax
; File C:\Program Files\Microsoft Visual Studio\2022\Professional\VC\Tools\MSVC\14.44.35207\include\xtree

; 831  :         _Construct_in_place(this->_Ptr->_Left, _Myhead);

  001ca	8b 45 08	 mov	 eax, DWORD PTR __Myhead$1$[ebp]

; 1042 :         return {_Scary->_Insert_node(_Loc._Location, _Inserted), true};

  001cd	53		 push	 ebx
  001ce	ff 75 e0	 push	 DWORD PTR __Loc$5[ebp+4]
; File C:\Program Files\Microsoft Visual Studio\2022\Professional\VC\Tools\MSVC\14.44.35207\include\deque

; 766  :         _Right_data._Map     = nullptr;

  001d1	c7 45 b8 00 00
	00 00		 mov	 DWORD PTR $T2[ebp+8], 0
; File C:\Program Files\Microsoft Visual Studio\2022\Professional\VC\Tools\MSVC\14.44.35207\include\xtree

; 1042 :         return {_Scary->_Insert_node(_Loc._Location, _Inserted), true};

  001d8	ff 75 dc	 push	 DWORD PTR __Loc$5[ebp]
; File C:\Program Files\Microsoft Visual Studio\2022\Professional\VC\Tools\MSVC\14.44.35207\include\deque

; 767  :         _Right_data._Mapsize = 0;

  001db	c7 45 bc 00 00
	00 00		 mov	 DWORD PTR $T2[ebp+12], 0

; 768  :         _Right_data._Myoff   = 0;

  001e2	c7 45 c0 00 00
	00 00		 mov	 DWORD PTR $T2[ebp+16], 0

; 769  :         _Right_data._Mysize  = 0;

  001e9	c7 45 c4 00 00
	00 00		 mov	 DWORD PTR $T2[ebp+20], 0
; File C:\Program Files\Microsoft Visual Studio\2022\Professional\VC\Tools\MSVC\14.44.35207\include\xtree

; 831  :         _Construct_in_place(this->_Ptr->_Left, _Myhead);

  001f0	89 03		 mov	 DWORD PTR [ebx], eax

; 832  :         _Construct_in_place(this->_Ptr->_Parent, _Myhead);

  001f2	89 43 04	 mov	 DWORD PTR [ebx+4], eax

; 833  :         _Construct_in_place(this->_Ptr->_Right, _Myhead);

  001f5	89 43 08	 mov	 DWORD PTR [ebx+8], eax

; 834  :         this->_Ptr->_Color = _Red;

  001f8	66 c7 43 0c 00
	00		 mov	 WORD PTR [ebx+12], 0

; 1042 :         return {_Scary->_Insert_node(_Loc._Location, _Inserted), true};

  001fe	e8 00 00 00 00	 call	 ?_Insert_node@?$_Tree_val@U?$_Tree_simple_types@U?$pair@$$CBKV?$queue@USFXHIT_COUNT@@V?$deque@USFXHIT_COUNT@@V?$allocator@USFXHIT_COUNT@@@std@@@std@@@std@@@std@@@std@@@std@@QAEPAU?$_Tree_node@U?$pair@$$CBKV?$queue@USFXHIT_COUNT@@V?$deque@USFXHIT_COUNT@@V?$allocator@USFXHIT_COUNT@@@std@@@std@@@std@@@std@@PAX@2@U?$_Tree_id@PAU?$_Tree_node@U?$pair@$$CBKV?$queue@USFXHIT_COUNT@@V?$deque@USFXHIT_COUNT@@V?$allocator@USFXHIT_COUNT@@@std@@@std@@@std@@@std@@PAX@std@@@2@QAU32@@Z ; std::_Tree_val<std::_Tree_simple_types<std::pair<unsigned long const ,std::queue<SFXHIT_COUNT,std::deque<SFXHIT_COUNT,std::allocator<SFXHIT_COUNT> > > > > >::_Insert_node
$LN296@IncSFXCoun:
; File C:\Program Files\Microsoft Visual Studio\2022\Professional\VC\Tools\MSVC\14.44.35207\include\deque

; 774  :         _Tidy();

  00203	8d 4d b4	 lea	 ecx, DWORD PTR $T2[ebp+4]
  00206	e8 00 00 00 00	 call	 ?_Tidy@?$deque@USFXHIT_COUNT@@V?$allocator@USFXHIT_COUNT@@@std@@@std@@AAEXXZ ; std::deque<SFXHIT_COUNT,std::allocator<SFXHIT_COUNT> >::_Tidy
; File C:\Program Files\Microsoft Visual Studio\2022\Professional\VC\Tools\MSVC\14.44.35207\include\utility

; 773  :     _Ty _Old_val = static_cast<_Ty&&>(_Val);

  0020b	8b 45 b4	 mov	 eax, DWORD PTR $T2[ebp+4]
; File C:\Program Files\Microsoft Visual Studio\2022\Professional\VC\Tools\MSVC\14.44.35207\include\xmemory

; 289  :         ::operator delete(_Ptr, _Bytes);

  0020e	6a 08		 push	 8
  00210	50		 push	 eax
; File C:\Program Files\Microsoft Visual Studio\2022\Professional\VC\Tools\MSVC\14.44.35207\include\utility

; 774  :     _Val         = static_cast<_Other&&>(_New_val);

  00211	c7 45 b4 00 00
	00 00		 mov	 DWORD PTR $T2[ebp+4], 0
; File C:\Program Files\Microsoft Visual Studio\2022\Professional\VC\Tools\MSVC\14.44.35207\include\xmemory

; 289  :         ::operator delete(_Ptr, _Bytes);

  00218	e8 00 00 00 00	 call	 ??3@YAXPAXI@Z		; operator delete
; File C:\Program Files\Microsoft Visual Studio\2022\Professional\VC\Tools\MSVC\14.44.35207\include\deque

; 971  :         return _Mysize() == 0;

  0021d	8b 45 d8	 mov	 eax, DWORD PTR _q$3[ebp+16]
; File C:\Program Files\Microsoft Visual Studio\2022\Professional\VC\Tools\MSVC\14.44.35207\include\xmemory

; 289  :         ::operator delete(_Ptr, _Bytes);

  00220	83 c4 08	 add	 esp, 8
; File C:\Program Files\Microsoft Visual Studio\2022\Professional\VC\Tools\MSVC\14.44.35207\include\deque

; 971  :         return _Mysize() == 0;

  00223	85 c0		 test	 eax, eax

; 1673 :         while (!empty()) {

  00225	74 0b		 je	 SHORT $LN453@IncSFXCoun
$LL363@IncSFXCoun:

; 1513 :         if (--_Mysize() == 0) {

  00227	83 c0 ff	 add	 eax, -1
  0022a	75 fb		 jne	 SHORT $LL363@IncSFXCoun
  0022c	89 45 d8	 mov	 DWORD PTR _q$3[ebp+16], eax

; 1514 :             _Myoff() = 0;

  0022f	89 45 d4	 mov	 DWORD PTR _q$3[ebp+12], eax
$LN453@IncSFXCoun:

; 1677 :         if (_Map() != nullptr) {

  00232	8b 4d cc	 mov	 ecx, DWORD PTR _q$3[ebp+4]
  00235	85 c9		 test	 ecx, ecx
  00237	74 5a		 je	 SHORT $LN386@IncSFXCoun

; 1654 :         for (auto _Block = _Map_distance(); _Block > 0;) { // free storage for a block and destroy pointer

  00239	8b 75 d0	 mov	 esi, DWORD PTR _q$3[ebp+8]
  0023c	85 f6		 test	 esi, esi
  0023e	7e 1e		 jle	 SHORT $LN446@IncSFXCoun
$LL384@IncSFXCoun:

; 1655 :             --_Block;
; 1656 :             auto& _Block_ptr = _Map()[_Block];
; 1657 :             if (_Block_ptr) { // free block

  00240	8b 44 b1 fc	 mov	 eax, DWORD PTR [ecx+esi*4-4]
  00244	4e		 dec	 esi
  00245	85 c0		 test	 eax, eax
  00247	74 0e		 je	 SHORT $LN382@IncSFXCoun
; File C:\Program Files\Microsoft Visual Studio\2022\Professional\VC\Tools\MSVC\14.44.35207\include\xmemory

; 289  :         ::operator delete(_Ptr, _Bytes);

  00249	6a 10		 push	 16			; 00000010H
  0024b	50		 push	 eax
  0024c	e8 00 00 00 00	 call	 ??3@YAXPAXI@Z		; operator delete
  00251	8b 4d cc	 mov	 ecx, DWORD PTR _q$3[ebp+4]
  00254	83 c4 08	 add	 esp, 8
$LN382@IncSFXCoun:
; File C:\Program Files\Microsoft Visual Studio\2022\Professional\VC\Tools\MSVC\14.44.35207\include\deque

; 1654 :         for (auto _Block = _Map_distance(); _Block > 0;) { // free storage for a block and destroy pointer

  00257	85 f6		 test	 esi, esi
  00259	7f e5		 jg	 SHORT $LL384@IncSFXCoun
  0025b	8b 75 d0	 mov	 esi, DWORD PTR _q$3[ebp+8]
$LN446@IncSFXCoun:
; File C:\Program Files\Microsoft Visual Studio\2022\Professional\VC\Tools\MSVC\14.44.35207\include\xmemory

; 985  :         _STD _Deallocate<_New_alignof<_Ty>>(_Ptr, sizeof(_Ty) * _Count);

  0025e	c1 e6 02	 shl	 esi, 2
  00261	8b c1		 mov	 eax, ecx

; 284  :         if (_Bytes >= _Big_allocation_threshold) {

  00263	81 fe 00 10 00
	00		 cmp	 esi, 4096		; 00001000H
  00269	72 10		 jb	 SHORT $LN412@IncSFXCoun

; 205  :     const uintptr_t _Ptr_container   = _Ptr_user[-1];

  0026b	8b 48 fc	 mov	 ecx, DWORD PTR [eax-4]
  0026e	83 c6 23	 add	 esi, 35			; 00000023H
  00271	2b c1		 sub	 eax, ecx

; 219  :     _STL_VERIFY(_Back_shift >= _Min_back_shift && _Back_shift <= _Non_user_size, "invalid argument");

  00273	83 c0 fc	 add	 eax, -4			; fffffffcH
  00276	83 f8 1f	 cmp	 eax, 31			; 0000001fH
  00279	77 46		 ja	 SHORT $LN459@IncSFXCoun
$LN412@IncSFXCoun:

; 289  :         ::operator delete(_Ptr, _Bytes);

  0027b	56		 push	 esi
  0027c	51		 push	 ecx
  0027d	e8 00 00 00 00	 call	 ??3@YAXPAXI@Z		; operator delete
  00282	83 c4 08	 add	 esp, 8
; File C:\Program Files\Microsoft Visual Studio\2022\Professional\VC\Tools\MSVC\14.44.35207\include\deque

; 1666 :         _Map()     = nullptr;

  00285	c7 45 cc 00 00
	00 00		 mov	 DWORD PTR _q$3[ebp+4], 0

; 1667 :         _Mapsize() = 0;

  0028c	c7 45 d0 00 00
	00 00		 mov	 DWORD PTR _q$3[ebp+8], 0
$LN386@IncSFXCoun:
; File C:\Program Files\Microsoft Visual Studio\2022\Professional\VC\Tools\MSVC\14.44.35207\include\utility

; 773  :     _Ty _Old_val = static_cast<_Ty&&>(_Val);

  00293	8b 45 c8	 mov	 eax, DWORD PTR _q$3[ebp]
; File C:\Program Files\Microsoft Visual Studio\2022\Professional\VC\Tools\MSVC\14.44.35207\include\xmemory

; 289  :         ::operator delete(_Ptr, _Bytes);

  00296	6a 08		 push	 8
  00298	50		 push	 eax
; File C:\Program Files\Microsoft Visual Studio\2022\Professional\VC\Tools\MSVC\14.44.35207\include\utility

; 774  :     _Val         = static_cast<_Other&&>(_New_val);

  00299	c7 45 c8 00 00
	00 00		 mov	 DWORD PTR _q$3[ebp], 0
; File C:\Program Files\Microsoft Visual Studio\2022\Professional\VC\Tools\MSVC\14.44.35207\include\xmemory

; 289  :         ::operator delete(_Ptr, _Bytes);

  002a0	e8 00 00 00 00	 call	 ??3@YAXPAXI@Z		; operator delete
  002a5	83 c4 08	 add	 esp, 8
; File C:\IAGOS\server\v18\Source\Source\_Common\MoverAttack.cpp

; 2208 : }

  002a8	8b 4d f4	 mov	 ecx, DWORD PTR __$EHRec$[ebp]
  002ab	64 89 0d 00 00
	00 00		 mov	 DWORD PTR fs:0, ecx
  002b2	59		 pop	 ecx
  002b3	5f		 pop	 edi
  002b4	5e		 pop	 esi
  002b5	5b		 pop	 ebx
  002b6	8b e5		 mov	 esp, ebp
  002b8	5d		 pop	 ebp
  002b9	c2 08 00	 ret	 8
$LN458@IncSFXCoun:
; File C:\Program Files\Microsoft Visual Studio\2022\Professional\VC\Tools\MSVC\14.44.35207\include\xtree

; 1649 :             _Throw_tree_length_error();

  002bc	e8 00 00 00 00	 call	 ?_Throw_tree_length_error@std@@YAXXZ ; std::_Throw_tree_length_error
$LN459@IncSFXCoun:
; File C:\Program Files\Microsoft Visual Studio\2022\Professional\VC\Tools\MSVC\14.44.35207\include\xmemory

; 219  :     _STL_VERIFY(_Back_shift >= _Min_back_shift && _Back_shift <= _Non_user_size, "invalid argument");

  002c1	6a 00		 push	 0
  002c3	6a 00		 push	 0
  002c5	6a 00		 push	 0
  002c7	6a 00		 push	 0
  002c9	6a 00		 push	 0
  002cb	e8 00 00 00 00	 call	 __invoke_watson
$LN456@IncSFXCoun:
  002d0	cc		 int	 3
_TEXT	ENDS
;	COMDAT text$x
text$x	SEGMENT
__unwindfunclet$?IncSFXCount@CMover@@QAEXKK@Z$0:
  00000	8d 4d c8	 lea	 ecx, DWORD PTR _q$3[ebp]
  00003	e9 00 00 00 00	 jmp	 ??1?$queue@USFXHIT_COUNT@@V?$deque@USFXHIT_COUNT@@V?$allocator@USFXHIT_COUNT@@@std@@@std@@@std@@QAE@XZ
__unwindfunclet$?IncSFXCount@CMover@@QAEXKK@Z$1:
  00008	8d 4d b0	 lea	 ecx, DWORD PTR $T2[ebp]
  0000b	e9 00 00 00 00	 jmp	 ??1?$pair@$$CBKV?$queue@USFXHIT_COUNT@@V?$deque@USFXHIT_COUNT@@V?$allocator@USFXHIT_COUNT@@@std@@@std@@@std@@@std@@QAE@XZ
__unwindfunclet$?IncSFXCount@CMover@@QAEXKK@Z$7:
  00010	8d 4d ec	 lea	 ecx, DWORD PTR $T9[ebp]
  00013	e9 00 00 00 00	 jmp	 ??1?$_Alloc_construct_ptr@V?$allocator@U?$_Tree_node@U?$pair@$$CBKV?$queue@USFXHIT_COUNT@@V?$deque@USFXHIT_COUNT@@V?$allocator@USFXHIT_COUNT@@@std@@@std@@@std@@@std@@PAX@std@@@std@@@std@@QAE@XZ ; std::_Alloc_construct_ptr<std::allocator<std::_Tree_node<std::pair<unsigned long const ,std::queue<SFXHIT_COUNT,std::deque<SFXHIT_COUNT,std::allocator<SFXHIT_COUNT> > > >,void *> > >::~_Alloc_construct_ptr<std::allocator<std::_Tree_node<std::pair<unsigned long const ,std::queue<SFXHIT_COUNT,std::deque<SFXHIT_COUNT,std::allocator<SFXHIT_COUNT> > > >,void *> > >
__unwindfunclet$?IncSFXCount@CMover@@QAEXKK@Z$6:
  00018	8d 4d ec	 lea	 ecx, DWORD PTR $T9[ebp]
  0001b	e9 00 00 00 00	 jmp	 ??1?$_Tree_temp_node_alloc@V?$allocator@U?$_Tree_node@U?$pair@$$CBKV?$queue@USFXHIT_COUNT@@V?$deque@USFXHIT_COUNT@@V?$allocator@USFXHIT_COUNT@@@std@@@std@@@std@@@std@@PAX@std@@@std@@@std@@QAE@XZ
  00020	cc		 int	 3
  00021	cc		 int	 3
  00022	cc		 int	 3
  00023	cc		 int	 3
  00024	cc		 int	 3
__ehhandler$?IncSFXCount@CMover@@QAEXKK@Z:
  00025	90		 npad	 1
  00026	90		 npad	 1
  00027	8b 54 24 08	 mov	 edx, DWORD PTR [esp+8]
  0002b	8d 42 0c	 lea	 eax, DWORD PTR [edx+12]
  0002e	8b 4a ac	 mov	 ecx, DWORD PTR [edx-84]
  00031	33 c8		 xor	 ecx, eax
  00033	e8 00 00 00 00	 call	 @__security_check_cookie@4
  00038	b8 00 00 00 00	 mov	 eax, OFFSET __ehfuncinfo$?IncSFXCount@CMover@@QAEXKK@Z
  0003d	e9 00 00 00 00	 jmp	 ___CxxFrameHandler3
text$x	ENDS
?IncSFXCount@CMover@@QAEXKK@Z ENDP			; CMover::IncSFXCount
; Function compile flags: /Ogtp
; File C:\IAGOS\server\v18\Source\Source\_Common\MoverAttack.cpp
; File C:\Program Files\Microsoft Visual Studio\2022\Professional\VC\Tools\MSVC\14.44.35207\include\xtree
; File C:\IAGOS\server\v18\Source\Source\_Common\MoverAttack.cpp
; File C:\Program Files\Microsoft Visual Studio\2022\Professional\VC\Tools\MSVC\14.44.35207\include\xtree
; File C:\Program Files\Microsoft Visual Studio\2022\Professional\VC\Tools\MSVC\14.44.35207\include\type_traits
; File C:\Program Files\Microsoft Visual Studio\2022\Professional\VC\Tools\MSVC\14.44.35207\include\xtree
; File C:\IAGOS\server\v18\Source\Source\_Common\MoverAttack.cpp
;	COMDAT ?GetSFXCount@CMover@@QAEHK@Z
_TEXT	SEGMENT
__Loc$1 = -12						; size = 12
_idTarget$ = 8						; size = 4
?GetSFXCount@CMover@@QAEHK@Z PROC			; CMover::GetSFXCount, COMDAT
; _this$ = ecx

; 2185 : { 

  00000	55		 push	 ebp
  00001	8b ec		 mov	 ebp, esp
  00003	83 ec 0c	 sub	 esp, 12			; 0000000cH
  00006	56		 push	 esi
; File C:\Program Files\Microsoft Visual Studio\2022\Professional\VC\Tools\MSVC\14.44.35207\include\xtree

; 1384 :         const _Tree_find_result<_Nodeptr> _Loc = _Find_lower_bound(_Keyval);

  00007	8d 45 08	 lea	 eax, DWORD PTR _idTarget$[ebp]
  0000a	50		 push	 eax
; File C:\IAGOS\server\v18\Source\Source\_Common\MoverAttack.cpp

; 2186 : 	map<OBJID, queue<SFXHIT_COUNT> >::iterator it = m_mapSFXCount.find( idTarget );

  0000b	8d b1 90 10 00
	00		 lea	 esi, DWORD PTR [ecx+4240]
; File C:\Program Files\Microsoft Visual Studio\2022\Professional\VC\Tools\MSVC\14.44.35207\include\xtree

; 1384 :         const _Tree_find_result<_Nodeptr> _Loc = _Find_lower_bound(_Keyval);

  00011	8d 45 f4	 lea	 eax, DWORD PTR __Loc$1[ebp]
  00014	8b ce		 mov	 ecx, esi
  00016	50		 push	 eax
  00017	e8 00 00 00 00	 call	 ??$_Find_lower_bound@K@?$_Tree@V?$_Tmap_traits@KV?$queue@USFXHIT_COUNT@@V?$deque@USFXHIT_COUNT@@V?$allocator@USFXHIT_COUNT@@@std@@@std@@@std@@U?$less@K@2@V?$allocator@U?$pair@$$CBKV?$queue@USFXHIT_COUNT@@V?$deque@USFXHIT_COUNT@@V?$allocator@USFXHIT_COUNT@@@std@@@std@@@std@@@std@@@2@$0A@@std@@@std@@IBE?AU?$_Tree_find_result@PAU?$_Tree_node@U?$pair@$$CBKV?$queue@USFXHIT_COUNT@@V?$deque@USFXHIT_COUNT@@V?$allocator@USFXHIT_COUNT@@@std@@@std@@@std@@@std@@PAX@std@@@1@ABK@Z ; std::_Tree<std::_Tmap_traits<unsigned long,std::queue<SFXHIT_COUNT,std::deque<SFXHIT_COUNT,std::allocator<SFXHIT_COUNT> > >,std::less<unsigned long>,std::allocator<std::pair<unsigned long const ,std::queue<SFXHIT_COUNT,std::deque<SFXHIT_COUNT,std::allocator<SFXHIT_COUNT> > > > >,0> >::_Find_lower_bound<unsigned long>

; 1624 :         return !_Bound->_Isnil && !_DEBUG_LT_PRED(_Getcomp(), _Keyval, _Traits::_Kfn(_Bound->_Myval));

  0001c	8b 45 fc	 mov	 eax, DWORD PTR __Loc$1[ebp+8]
  0001f	80 78 0d 00	 cmp	 BYTE PTR [eax+13], 0
  00023	75 16		 jne	 SHORT $LN2@GetSFXCoun
; File C:\Program Files\Microsoft Visual Studio\2022\Professional\VC\Tools\MSVC\14.44.35207\include\type_traits

; 2380 :         return _Left < _Right;

  00025	8b 4d 08	 mov	 ecx, DWORD PTR _idTarget$[ebp]
  00028	3b 48 10	 cmp	 ecx, DWORD PTR [eax+16]
; File C:\Program Files\Microsoft Visual Studio\2022\Professional\VC\Tools\MSVC\14.44.35207\include\xtree

; 1624 :         return !_Bound->_Isnil && !_DEBUG_LT_PRED(_Getcomp(), _Keyval, _Traits::_Kfn(_Bound->_Myval));

  0002b	72 0e		 jb	 SHORT $LN2@GetSFXCoun

; 37   :     _Tree_unchecked_const_iterator(_Nodeptr _Pnode, const _Mytree* _Plist) noexcept : _Ptr(_Pnode) {

  0002d	3b 06		 cmp	 eax, DWORD PTR [esi]
; File C:\IAGOS\server\v18\Source\Source\_Common\MoverAttack.cpp

; 2187 : 	if( it != m_mapSFXCount.end() )

  0002f	74 0a		 je	 SHORT $LN2@GetSFXCoun

; 2188 : 		return it->second.size();

  00031	8b 40 24	 mov	 eax, DWORD PTR [eax+36]
  00034	5e		 pop	 esi

; 2190 : }

  00035	8b e5		 mov	 esp, ebp
  00037	5d		 pop	 ebp
  00038	c2 04 00	 ret	 4
$LN2@GetSFXCoun:

; 2189 : 	return 0;

  0003b	33 c0		 xor	 eax, eax
  0003d	5e		 pop	 esi

; 2190 : }

  0003e	8b e5		 mov	 esp, ebp
  00040	5d		 pop	 ebp
  00041	c2 04 00	 ret	 4
?GetSFXCount@CMover@@QAEHK@Z ENDP			; CMover::GetSFXCount
_TEXT	ENDS
; Function compile flags: /Ogtp
; File C:\IAGOS\server\v18\Source\Source\_Common\MoverAttack.cpp
; File C:\IAGOS\server\v18\Source\Source\_Common\Obj.h
; File C:\IAGOS\server\v18\Source\Source\_Common\MoverAttack.cpp
;	COMDAT ?RemoveSFX@CMover@@QAEXKHHK@Z
_TEXT	SEGMENT
_idTarget$ = 8						; size = 4
_id$ = 12						; size = 4
_bForce$ = 16						; size = 4
_dwSkill$ = 20						; size = 4
?RemoveSFX@CMover@@QAEXKHHK@Z PROC			; CMover::RemoveSFX, COMDAT
; _this$ = ecx

; 2235 : {

  00000	55		 push	 ebp
  00001	8b ec		 mov	 ebp, esp
  00003	56		 push	 esi

; 2236 : 	if( idTarget != NULL_ID )

  00004	8b 75 08	 mov	 esi, DWORD PTR _idTarget$[ebp]
  00007	57		 push	 edi
  00008	8b f9		 mov	 edi, ecx
  0000a	83 fe ff	 cmp	 esi, -1
  0000d	74 2e		 je	 SHORT $LN4@RemoveSFX

; 2237 : 	{
; 2238 : 		CMover* pTarget	= prj.GetMover( idTarget );

  0000f	56		 push	 esi
  00010	b9 00 00 00 00	 mov	 ecx, OFFSET ?prj@@3VCProject@@A ; prj
  00015	e8 00 00 00 00	 call	 ?GetMover@CProject@@QAEPAVCMover@@K@Z ; CProject::GetMover
; File C:\IAGOS\server\v18\Source\Source\_Common\Obj.h

; 327  : 	return pObj && ( pObj->IsDelete() == FALSE ); 

  0001a	85 c0		 test	 eax, eax
  0001c	74 17		 je	 SHORT $LN3@RemoveSFX

; 180  : 	BOOL			IsDelete()	{ return (m_dwFlags & OBJ_FLAG_DELETE);  }

  0001e	f6 40 04 01	 test	 BYTE PTR [eax+4], 1

; 327  : 	return pObj && ( pObj->IsDelete() == FALSE ); 

  00022	75 11		 jne	 SHORT $LN3@RemoveSFX
; File C:\IAGOS\server\v18\Source\Source\_Common\MoverAttack.cpp

; 2240 : 			IncSFXCount( idTarget, dwSkill ); 

  00024	ff 75 14	 push	 DWORD PTR _dwSkill$[ebp]
  00027	8b cf		 mov	 ecx, edi
  00029	56		 push	 esi
  0002a	e8 00 00 00 00	 call	 ?IncSFXCount@CMover@@QAEXKK@Z ; CMover::IncSFXCount
  0002f	5f		 pop	 edi

; 2243 : 	}
; 2244 : }

  00030	5e		 pop	 esi
  00031	5d		 pop	 ebp
  00032	c2 10 00	 ret	 16			; 00000010H
$LN3@RemoveSFX:

; 2241 : 		else
; 2242 : 			ClearSFX( idTarget );

  00035	56		 push	 esi
  00036	8b cf		 mov	 ecx, edi
  00038	e8 00 00 00 00	 call	 ?ClearSFX@CMover@@QAEXK@Z ; CMover::ClearSFX
$LN4@RemoveSFX:

; 2243 : 	}
; 2244 : }

  0003d	5f		 pop	 edi
  0003e	5e		 pop	 esi
  0003f	5d		 pop	 ebp
  00040	c2 10 00	 ret	 16			; 00000010H
?RemoveSFX@CMover@@QAEXKHHK@Z ENDP			; CMover::RemoveSFX
_TEXT	ENDS
; Function compile flags: /Ogtp
; File C:\IAGOS\server\v18\Source\Source\_Common\MoverAttack.cpp
; File C:\IAGOS\server\v18\Source\Source\_Common\Project.h
; File C:\IAGOS\server\v18\Source\Source\_Common\data.h
; File C:\IAGOS\server\v18\Source\Source\_Common\MoverAttack.cpp
; File C:\IAGOS\server\v18\Source\Source\_Common\Project.h
; File C:\IAGOS\server\v18\Source\Source\_Common\MoverAttack.cpp
;	COMDAT ?GetMagicSkillPower@CMover@@QAEHPAUATTACK_INFO@@@Z
_TEXT	SEGMENT
_pInfo$ = 8						; size = 4
?GetMagicSkillPower@CMover@@QAEHPAUATTACK_INFO@@@Z PROC	; CMover::GetMagicSkillPower, COMDAT
; _this$ = ecx

; 1026 : {

  00000	55		 push	 ebp
  00001	8b ec		 mov	 ebp, esp
  00003	53		 push	 ebx
  00004	56		 push	 esi

; 1027 : 	CMover* pDefender = pInfo->pDefender; 
; 1028 : 	int nSkill = pInfo->GetSkill();

  00005	8b 75 08	 mov	 esi, DWORD PTR _pInfo$[ebp]
  00008	8b d9		 mov	 ebx, ecx
  0000a	57		 push	 edi
  0000b	8b ce		 mov	 ecx, esi
  0000d	e8 00 00 00 00	 call	 ?GetSkill@ATTACK_INFO@@QBEHXZ ; ATTACK_INFO::GetSkill

; 1029 : 	int nATK = GetMeleeSkillPower( pInfo );

  00012	56		 push	 esi
  00013	8b cb		 mov	 ecx, ebx
  00015	8b f8		 mov	 edi, eax
  00017	e8 00 00 00 00	 call	 ?GetMeleeSkillPower@CMover@@QAEHPAUATTACK_INFO@@@Z ; CMover::GetMeleeSkillPower

; 1030 : 	nATK = GetParam( DST_ADDMAGIC, nATK );		// Ăß°ˇ¸¶ąý·Â ĽöÁ¤Äˇ.

  0001c	50		 push	 eax
  0001d	6a 3e		 push	 62			; 0000003eH
  0001f	8b cb		 mov	 ecx, ebx
  00021	e8 00 00 00 00	 call	 ?GetParam@CMover@@QAEHHH@Z ; CMover::GetParam
  00026	8b f0		 mov	 esi, eax
; File C:\IAGOS\server\v18\Source\Source\_Common\Project.h

; 1395 : 	VERIFY_RANGE( nIndex, 0, m_aPropSkill.GetSize(), "GetSkillProp range_error", NULL );

  00028	a1 64 02 00 00	 mov	 eax, DWORD PTR ?prj@@3VCProject@@A+612
  0002d	85 ff		 test	 edi, edi
  0002f	78 79		 js	 SHORT $LN16@GetMagicSk
  00031	3b f8		 cmp	 edi, eax
  00033	7d 75		 jge	 SHORT $LN16@GetMagicSk
; File C:\IAGOS\server\v18\Source\Source\_Common\data.h

; 270  : 	if( dwIndex >= (DWORD)m_nMaxIndex )

  00035	72 04		 jb	 SHORT $LN21@GetMagicSk

; 271  : 		return NULL;

  00037	33 c0		 xor	 eax, eax
  00039	eb 08		 jmp	 SHORT $LN20@GetMagicSk
$LN21@GetMagicSk:

; 272  : 	return (T*) m_apOffset[ dwIndex ];

  0003b	a1 54 02 00 00	 mov	 eax, DWORD PTR ?prj@@3VCProject@@A+596
  00040	8b 04 b8	 mov	 eax, DWORD PTR [eax+edi*4]
$LN20@GetMagicSk:
; File C:\IAGOS\server\v18\Source\Source\_Common\MoverAttack.cpp

; 1033 : 	if( !pSkillProp )

  00043	85 c0		 test	 eax, eax
  00045	74 79		 je	 SHORT $LN23@GetMagicSk

; 1034 : 		return nATK;
; 1035 : 
; 1036 : 	float fRatio = 0.0f;
; 1037 : 	switch( pSkillProp->dwSpellType )

  00047	8b 80 d8 00 00
	00		 mov	 eax, DWORD PTR [eax+216]
  0004d	83 c0 fc	 add	 eax, -4			; fffffffcH
  00050	83 f8 04	 cmp	 eax, 4
  00053	77 6b		 ja	 SHORT $LN23@GetMagicSk
  00055	ff 24 85 00 00
	00 00		 jmp	 DWORD PTR $LN24@GetMagicSk[eax*4]
$LN5@GetMagicSk:

; 1038 : 	{
; 1039 : 	case ST_FIRE:	
; 1040 : 		fRatio	= GetParam( DST_MASTRY_FIRE, 0 ) / 100.0f;

  0005c	6a 00		 push	 0
  0005e	6a 11		 push	 17			; 00000011H

; 1041 : 		nATK	= (int)( nATK + (nATK * fRatio) );
; 1042 : 		break;

  00060	eb 16		 jmp	 SHORT $LN30@GetMagicSk
$LN6@GetMagicSk:

; 1043 : 	case ST_WATER:	
; 1044 : 		fRatio	= GetParam( DST_MASTRY_WATER, 0 ) / 100.0f;

  00062	6a 00		 push	 0
  00064	6a 12		 push	 18			; 00000012H

; 1045 : 		nATK	= (int)( nATK + (nATK * fRatio) );
; 1046 : 		break;

  00066	eb 10		 jmp	 SHORT $LN30@GetMagicSk
$LN7@GetMagicSk:

; 1047 : 	case ST_ELECTRICITY:	
; 1048 : 		fRatio	= GetParam( DST_MASTRY_ELECTRICITY, 0 ) / 100.0f;

  00068	6a 00		 push	 0
  0006a	6a 13		 push	 19			; 00000013H

; 1049 : 		nATK	= (int)( nATK + (nATK * fRatio) );
; 1050 : 		break;

  0006c	eb 0a		 jmp	 SHORT $LN30@GetMagicSk
$LN8@GetMagicSk:

; 1051 : 	case ST_WIND:	
; 1052 : 		fRatio	= GetParam( DST_MASTRY_WIND, 0 ) / 100.0f;

  0006e	6a 00		 push	 0
  00070	6a 14		 push	 20			; 00000014H

; 1053 : 		nATK	= (int)( nATK + (nATK * fRatio) );
; 1054 : 		break;

  00072	eb 04		 jmp	 SHORT $LN30@GetMagicSk
$LN9@GetMagicSk:

; 1055 : 	case ST_EARTH:	
; 1056 : 		fRatio	= GetParam( DST_MASTRY_EARTH, 0 ) / 100.0f;

  00074	6a 00		 push	 0
  00076	6a 0f		 push	 15			; 0000000fH
$LN30@GetMagicSk:

; 1057 : 		nATK	= (int)( nATK + (nATK * fRatio) );
; 1058 : 		break;
; 1059 : 	}
; 1060 : 
; 1061 : 	return nATK;

  00078	8b cb		 mov	 ecx, ebx
  0007a	e8 00 00 00 00	 call	 ?GetParam@CMover@@QAEHHH@Z ; CMover::GetParam
  0007f	66 0f 6e ce	 movd	 xmm1, esi
  00083	0f 5b c9	 cvtdq2ps xmm1, xmm1
  00086	5f		 pop	 edi
  00087	66 0f 6e c0	 movd	 xmm0, eax
  0008b	0f 5b c0	 cvtdq2ps xmm0, xmm0
  0008e	f3 0f 5e 05 00
	00 00 00	 divss	 xmm0, DWORD PTR __real@42c80000
  00096	f3 0f 59 c1	 mulss	 xmm0, xmm1
  0009a	f3 0f 58 c1	 addss	 xmm0, xmm1
  0009e	f3 0f 2c f0	 cvttss2si esi, xmm0

; 1062 : }

  000a2	8b c6		 mov	 eax, esi
  000a4	5e		 pop	 esi
  000a5	5b		 pop	 ebx
  000a6	5d		 pop	 ebp
  000a7	c2 04 00	 ret	 4
$LN16@GetMagicSk:
; File C:\IAGOS\server\v18\Source\Source\_Common\Project.h

; 579  : 	LPCTSTR szErr = Error( _T( "%s min:%d, max:%d, index:%d" ), szMsg, nMin, nMax, nIndex ); 

  000aa	57		 push	 edi
  000ab	50		 push	 eax
  000ac	6a 00		 push	 0
  000ae	68 00 00 00 00	 push	 OFFSET ??_C@_0BJ@GPNGCFMK@GetSkillProp?5range_error@
  000b3	68 00 00 00 00	 push	 OFFSET ??_C@_0BM@HMFGHCP@?$CFs?5min?3?$CFd?0?5max?3?$CFd?0?5index?3?$CFd@
  000b8	e8 00 00 00 00	 call	 ?Error@@YAPBDPBDZZ	; Error
  000bd	83 c4 14	 add	 esp, 20			; 00000014H
$LN23@GetMagicSk:
  000c0	5f		 pop	 edi
; File C:\IAGOS\server\v18\Source\Source\_Common\MoverAttack.cpp

; 1062 : }

  000c1	8b c6		 mov	 eax, esi
  000c3	5e		 pop	 esi
  000c4	5b		 pop	 ebx
  000c5	5d		 pop	 ebp
  000c6	c2 04 00	 ret	 4
  000c9	0f 1f 00	 npad	 3
$LN24@GetMagicSk:
  000cc	00 00 00 00	 DD	 $LN7@GetMagicSk
  000d0	00 00 00 00	 DD	 $LN5@GetMagicSk
  000d4	00 00 00 00	 DD	 $LN8@GetMagicSk
  000d8	00 00 00 00	 DD	 $LN6@GetMagicSk
  000dc	00 00 00 00	 DD	 $LN9@GetMagicSk
?GetMagicSkillPower@CMover@@QAEHPAUATTACK_INFO@@@Z ENDP	; CMover::GetMagicSkillPower
_TEXT	ENDS
; Function compile flags: /Ogtp
; File C:\IAGOS\server\v18\Source\Source\_Common\MoverAttack.cpp
; File C:\IAGOS\server\v18\Source\Source\_Common\Mover.h
; File C:\IAGOS\server\v18\Source\Source\_Common\MoverAttack.cpp
; File C:\IAGOS\server\v18\Source\Source\_Common\Mover.h
; File C:\IAGOS\server\v18\Source\Source\_Common\Project.h
; File C:\IAGOS\server\v18\Source\Source\_Common\MoverAttack.cpp
; File C:\IAGOS\server\v18\Source\Source\_Common\Mover.h
; File C:\IAGOS\server\v18\Source\Source\_Common\Project.h
; File C:\IAGOS\server\v18\Source\Source\_Common\MoverAttack.cpp
; File C:\IAGOS\server\v18\Source\Source\_Common\Project.h
; File C:\IAGOS\server\v18\Source\Source\_Common\MoverAttack.cpp
;	COMDAT ?CalcPropDamage@CMover@@QAEHPAV1@K@Z
_TEXT	SEGMENT
_pDefender$ = 8						; size = 4
tv298 = 8						; size = 4
tv300 = 8						; size = 4
_dwAtkFlags$ = 12					; size = 4
?CalcPropDamage@CMover@@QAEHPAV1@K@Z PROC		; CMover::CalcPropDamage, COMDAT
; _this$ = ecx

; 978  : {

  00000	55		 push	 ebp
  00001	8b ec		 mov	 ebp, esp
  00003	53		 push	 ebx
  00004	56		 push	 esi
  00005	8b f1		 mov	 esi, ecx
  00007	57		 push	 edi
; File C:\IAGOS\server\v18\Source\Source\_Common\Mover.h

; 1015 : 	BOOL			IsNPC()				{ return !m_bPlayer; }

  00008	83 be 30 02 00
	00 00		 cmp	 DWORD PTR [esi+560], 0
; File C:\IAGOS\server\v18\Source\Source\_Common\MoverAttack.cpp

; 983  : 	if( IsNPC() )	// °ř°ÝŔÚ°ˇ NPCŔĎ °ćżě	

  0000f	0f 85 92 00 00
	00		 jne	 $LN2@CalcPropDa
; File C:\IAGOS\server\v18\Source\Source\_Common\Mover.h

; 1020 : 	MoverProp*		GetProp() { return prj.GetMoverProp( m_dwIndex ); }	// °´ĂĽŔÇ ÇÁ·ÎĆŰĆĽ ľň±â 	

  00015	8b 8e 74 01 00
	00		 mov	 ecx, DWORD PTR [esi+372]
; File C:\IAGOS\server\v18\Source\Source\_Common\Project.h

; 1406 : 	VERIFY_RANGE( nIndex, 0, m_nMoverPropSize, "GetMoverProp range_error", NULL );

  0001b	a1 b4 01 00 00	 mov	 eax, DWORD PTR ?prj@@3VCProject@@A+436
  00020	85 c9		 test	 ecx, ecx
  00022	78 14		 js	 SHORT $LN19@CalcPropDa
  00024	3b c8		 cmp	 ecx, eax
  00026	7d 10		 jge	 SHORT $LN19@CalcPropDa

; 1407 : 	return m_pPropMover + nIndex;

  00028	8b 15 b8 01 00
	00		 mov	 edx, DWORD PTR ?prj@@3VCProject@@A+440
  0002e	69 c9 90 06 00
	00		 imul	 ecx, ecx, 1680
  00034	03 ca		 add	 ecx, edx
  00036	eb 23		 jmp	 SHORT $LN14@CalcPropDa
$LN19@CalcPropDa:

; 579  : 	LPCTSTR szErr = Error( _T( "%s min:%d, max:%d, index:%d" ), szMsg, nMin, nMax, nIndex ); 

  00038	51		 push	 ecx
  00039	50		 push	 eax
  0003a	6a 00		 push	 0
  0003c	68 00 00 00 00	 push	 OFFSET ??_C@_0BJ@GKPOBPPI@GetMoverProp?5range_error@
  00041	68 00 00 00 00	 push	 OFFSET ??_C@_0BM@HMFGHCP@?$CFs?5min?3?$CFd?0?5max?3?$CFd?0?5index?3?$CFd@
  00046	e8 00 00 00 00	 call	 ?Error@@YAPBDPBDZZ	; Error

; 1406 : 	VERIFY_RANGE( nIndex, 0, m_nMoverPropSize, "GetMoverProp range_error", NULL );

  0004b	8b 15 b8 01 00
	00		 mov	 edx, DWORD PTR ?prj@@3VCProject@@A+440

; 579  : 	LPCTSTR szErr = Error( _T( "%s min:%d, max:%d, index:%d" ), szMsg, nMin, nMax, nIndex ); 

  00051	83 c4 14	 add	 esp, 20			; 00000014H

; 1406 : 	VERIFY_RANGE( nIndex, 0, m_nMoverPropSize, "GetMoverProp range_error", NULL );

  00054	a1 b4 01 00 00	 mov	 eax, DWORD PTR ?prj@@3VCProject@@A+436
  00059	33 c9		 xor	 ecx, ecx
$LN14@CalcPropDa:
; File C:\IAGOS\server\v18\Source\Source\_Common\MoverAttack.cpp

; 985  : 		type = GetProp()->eElementType;

  0005b	8b 99 fc 00 00
	00		 mov	 ebx, DWORD PTR [ecx+252]
; File C:\IAGOS\server\v18\Source\Source\_Common\Mover.h

; 1020 : 	MoverProp*		GetProp() { return prj.GetMoverProp( m_dwIndex ); }	// °´ĂĽŔÇ ÇÁ·ÎĆŰĆĽ ľň±â 	

  00061	8b 8e 74 01 00
	00		 mov	 ecx, DWORD PTR [esi+372]
; File C:\IAGOS\server\v18\Source\Source\_Common\Project.h

; 1406 : 	VERIFY_RANGE( nIndex, 0, m_nMoverPropSize, "GetMoverProp range_error", NULL );

  00067	85 c9		 test	 ecx, ecx
  00069	78 18		 js	 SHORT $LN30@CalcPropDa
  0006b	3b c8		 cmp	 ecx, eax
  0006d	7d 14		 jge	 SHORT $LN30@CalcPropDa

; 1407 : 	return m_pPropMover + nIndex;

  0006f	69 c1 90 06 00
	00		 imul	 eax, ecx, 1680
  00075	03 c2		 add	 eax, edx
; File C:\IAGOS\server\v18\Source\Source\_Common\MoverAttack.cpp

; 986  : 		nATK = GetProp()->wElementAtk; 

  00077	0f bf b8 00 01
	00 00		 movsx	 edi, WORD PTR [eax+256]

; 987  : 	}

  0007e	e9 aa 00 00 00	 jmp	 $LN5@CalcPropDa
$LN30@CalcPropDa:
; File C:\IAGOS\server\v18\Source\Source\_Common\Project.h

; 579  : 	LPCTSTR szErr = Error( _T( "%s min:%d, max:%d, index:%d" ), szMsg, nMin, nMax, nIndex ); 

  00083	51		 push	 ecx
  00084	50		 push	 eax
  00085	6a 00		 push	 0
  00087	68 00 00 00 00	 push	 OFFSET ??_C@_0BJ@GKPOBPPI@GetMoverProp?5range_error@
  0008c	68 00 00 00 00	 push	 OFFSET ??_C@_0BM@HMFGHCP@?$CFs?5min?3?$CFd?0?5max?3?$CFd?0?5index?3?$CFd@
  00091	e8 00 00 00 00	 call	 ?Error@@YAPBDPBDZZ	; Error
  00096	83 c4 14	 add	 esp, 20			; 00000014H

; 1406 : 	VERIFY_RANGE( nIndex, 0, m_nMoverPropSize, "GetMoverProp range_error", NULL );

  00099	33 c0		 xor	 eax, eax
; File C:\IAGOS\server\v18\Source\Source\_Common\MoverAttack.cpp

; 986  : 		nATK = GetProp()->wElementAtk; 

  0009b	0f bf b8 00 01
	00 00		 movsx	 edi, WORD PTR [eax+256]

; 987  : 	}

  000a2	e9 86 00 00 00	 jmp	 $LN5@CalcPropDa
$LN2@CalcPropDa:

; 988  : 	else		    // °ř°ÝŔÚ°ˇ ÇĂ·ąŔĚľîŔĎ °ćżě
; 989  : 	{		
; 990  : 		CItemElem* pItemElem = GetWeaponItem();

  000a7	6a 0a		 push	 10			; 0000000aH
  000a9	e8 00 00 00 00	 call	 ?GetWeaponItem@CMover@@QAEPAVCItemElem@@H@Z ; CMover::GetWeaponItem

; 991  : 		if( pItemElem && pItemElem->m_bItemResist != SAI79::NO_PROP )

  000ae	85 c0		 test	 eax, eax
  000b0	74 65		 je	 SHORT $LN4@CalcPropDa
  000b2	8a 48 7c	 mov	 cl, BYTE PTR [eax+124]
  000b5	84 c9		 test	 cl, cl
  000b7	74 5e		 je	 SHORT $LN4@CalcPropDa

; 992  : 		{
; 993  : 			type = (SAI79::ePropType)pItemElem->m_bItemResist;
; 994  : 			nATK = pItemElem->m_nResistAbilityOption;

  000b9	8b b8 80 00 00
	00		 mov	 edi, DWORD PTR [eax+128]
  000bf	0f b6 d9	 movzx	 ebx, cl

; 995  : 		
; 996  : 			if( ::GetLanguage() == LANG_THA )

  000c2	e8 00 00 00 00	 call	 ?GetLanguage@@YAHXZ	; GetLanguage
  000c7	83 f8 04	 cmp	 eax, 4
  000ca	75 3b		 jne	 SHORT $LN6@CalcPropDa

; 997  : 			{
; 998  : 				float fResult = ((float)nATK+3.5f)*(0.5f+((float)nATK*0.01f));
; 999  : 				int nResult;
; 1000 : 				nResult = (int)( fResult*fResult );
; 1001 : 				nATK    = nResult;
; 1002 : 			}
; 1003 : 			else
; 1004 : 				nATK *= 4;
; 1005 : 
; 1006 : 			nATK += GetAdjParam( DST_CHR_WEAEATKCHANGE );

  000cc	66 0f 6e c7	 movd	 xmm0, edi
  000d0	8b ce		 mov	 ecx, esi
  000d2	0f 5b c0	 cvtdq2ps xmm0, xmm0
  000d5	6a 37		 push	 55			; 00000037H
  000d7	0f 28 c8	 movaps	 xmm1, xmm0
  000da	f3 0f 59 0d 00
	00 00 00	 mulss	 xmm1, DWORD PTR __real@3c23d70a
  000e2	f3 0f 58 05 00
	00 00 00	 addss	 xmm0, DWORD PTR __real@40600000
  000ea	f3 0f 58 0d 00
	00 00 00	 addss	 xmm1, DWORD PTR __real@3f000000
  000f2	f3 0f 59 c8	 mulss	 xmm1, xmm0
  000f6	f3 0f 59 c9	 mulss	 xmm1, xmm1
  000fa	f3 0f 2c f9	 cvttss2si edi, xmm1
  000fe	e8 00 00 00 00	 call	 ?GetAdjParam@CMover@@QAEHH@Z ; CMover::GetAdjParam
  00103	03 f8		 add	 edi, eax

; 1007 : 		}

  00105	eb 26		 jmp	 SHORT $LN5@CalcPropDa
$LN6@CalcPropDa:

; 997  : 			{
; 998  : 				float fResult = ((float)nATK+3.5f)*(0.5f+((float)nATK*0.01f));
; 999  : 				int nResult;
; 1000 : 				nResult = (int)( fResult*fResult );
; 1001 : 				nATK    = nResult;
; 1002 : 			}
; 1003 : 			else
; 1004 : 				nATK *= 4;
; 1005 : 
; 1006 : 			nATK += GetAdjParam( DST_CHR_WEAEATKCHANGE );

  00107	6a 37		 push	 55			; 00000037H
  00109	8b ce		 mov	 ecx, esi
  0010b	c1 e7 02	 shl	 edi, 2
  0010e	e8 00 00 00 00	 call	 ?GetAdjParam@CMover@@QAEHH@Z ; CMover::GetAdjParam
  00113	03 f8		 add	 edi, eax

; 1007 : 		}

  00115	eb 16		 jmp	 SHORT $LN5@CalcPropDa
$LN4@CalcPropDa:

; 1008 : 		else
; 1009 : 		{
; 1010 : 			ItemProp* pProp = GetActiveHandItemProp();

  00117	6a 0a		 push	 10			; 0000000aH
  00119	8b ce		 mov	 ecx, esi
  0011b	e8 00 00 00 00	 call	 ?GetActiveHandItemProp@CMover@@QAEPAUItemProp@@H@Z ; CMover::GetActiveHandItemProp

; 1011 : 			type = pProp->eItemType;

  00120	8b 98 f0 00 00
	00		 mov	 ebx, DWORD PTR [eax+240]

; 1012 : 			nATK = pProp->wItemEatk; 

  00126	0f bf b8 f4 00
	00 00		 movsx	 edi, WORD PTR [eax+244]
$LN5@CalcPropDa:

; 1013 : 		}
; 1014 : 	}
; 1015 : 
; 1016 : 	if( type != SAI79::NO_PROP )	// ĽÓĽş°ř°Ý ?

  0012d	85 db		 test	 ebx, ebx
  0012f	74 2b		 je	 SHORT $LN34@CalcPropDa

; 1017 : 	{
; 1018 : 		nAdd = (int)( nATK  * (1.0f - pDefender->GetResist(type)) );

  00131	8b 4d 08	 mov	 ecx, DWORD PTR _pDefender$[ebp]
  00134	53		 push	 ebx
  00135	e8 00 00 00 00	 call	 ?GetResist@CMover@@QAEMW4ePropType@SAI79@@@Z ; CMover::GetResist
  0013a	d9 e8		 fld1
  0013c	66 0f 6e c7	 movd	 xmm0, edi
  00140	de e1		 fsubrp	 ST(1), ST(0)
  00142	0f 5b c0	 cvtdq2ps xmm0, xmm0
  00145	5f		 pop	 edi

; 1019 : 	}
; 1020 : 	return nAdd;
; 1021 : }

  00146	5e		 pop	 esi
  00147	5b		 pop	 ebx
  00148	f3 0f 11 45 08	 movss	 DWORD PTR tv300[ebp], xmm0
  0014d	d8 4d 08	 fmul	 DWORD PTR tv300[ebp]
  00150	d9 5d 08	 fstp	 DWORD PTR tv298[ebp]
  00153	f3 0f 2c 45 08	 cvttss2si eax, DWORD PTR tv298[ebp]
  00158	5d		 pop	 ebp
  00159	c2 08 00	 ret	 8
$LN34@CalcPropDa:
  0015c	5f		 pop	 edi
  0015d	5e		 pop	 esi
  0015e	33 c0		 xor	 eax, eax
  00160	5b		 pop	 ebx
  00161	5d		 pop	 ebp
  00162	c2 08 00	 ret	 8
?CalcPropDamage@CMover@@QAEHPAV1@K@Z ENDP		; CMover::CalcPropDamage
_TEXT	ENDS
; Function compile flags: /Ogtp
; File C:\IAGOS\server\v18\Source\Source\_Common\MoverAttack.cpp
; File C:\IAGOS\server\v18\Source\Source\_Common\Party.h
; File C:\IAGOS\server\v18\Source\Source\_Common\MoverAttack.cpp
; File C:\IAGOS\server\v18\Source\Source\_Common\Party.h
; File C:\IAGOS\server\v18\Source\Source\_Common\MoverAttack.cpp
; File C:\IAGOS\server\v18\Source\Source\_Common\Obj.h
; File C:\IAGOS\server\v18\Source\Source\_Common\MoverAttack.cpp
; File C:\IAGOS\server\v18\Source\Source\_Common\Obj.h
; File C:\IAGOS\server\v18\Source\Source\DX_SDK\d3dx9math.inl
; File C:\IAGOS\server\v18\Source\Source\_Common\Obj.h
; File C:\IAGOS\server\v18\Source\Source\DX_SDK\d3dx9math.inl
; File C:\IAGOS\server\v18\Source\Source\_Common\MoverAttack.cpp
; File C:\IAGOS\server\v18\Source\Source\DX_SDK\d3dx9math.inl
; File C:\IAGOS\server\v18\Source\Source\_Common\MoverAttack.cpp
;	COMDAT ?CalcLinkAttackDamage@CMover@@QAEHH@Z
_TEXT	SEGMENT
$T1 = -32						; size = 12
$T2 = -20						; size = 12
_pParty$1$ = -8						; size = 4
_this$1$ = -4						; size = 4
_nDamage$ = 8						; size = 4
?CalcLinkAttackDamage@CMover@@QAEHH@Z PROC		; CMover::CalcLinkAttackDamage, COMDAT
; _this$ = ecx

; 654  : {

  00000	55		 push	 ebp
  00001	8b ec		 mov	 ebp, esp
  00003	83 ec 20	 sub	 esp, 32			; 00000020H
  00006	53		 push	 ebx
  00007	8b d9		 mov	 ebx, ecx
  00009	56		 push	 esi

; 655  : 	int nAdd = 0;

  0000a	33 f6		 xor	 esi, esi
  0000c	89 5d fc	 mov	 DWORD PTR _this$1$[ebp], ebx

; 656  : 	if( IsPlayer() && m_idparty && nDamage > 0 ) // ł»°ˇ ĆÄĆĽżˇ Âüż© ż©şÎ

  0000f	39 b3 30 02 00
	00		 cmp	 DWORD PTR [ebx+560], esi
  00015	0f 84 7b 01 00
	00		 je	 $LN7@CalcLinkAt
  0001b	8b 83 10 07 00
	00		 mov	 eax, DWORD PTR [ebx+1808]
  00021	85 c0		 test	 eax, eax
  00023	0f 84 6d 01 00
	00		 je	 $LN7@CalcLinkAt
  00029	39 75 08	 cmp	 DWORD PTR _nDamage$[ebp], esi
  0002c	0f 8e 64 01 00
	00		 jle	 $LN7@CalcLinkAt

; 657  : 	{
; 658  : 		CParty* pParty = g_PartyMng.GetParty( m_idparty );

  00032	57		 push	 edi
  00033	50		 push	 eax
  00034	b9 00 00 00 00	 mov	 ecx, OFFSET ?g_PartyMng@@3VCPartyMng@@A ; g_PartyMng
  00039	e8 00 00 00 00	 call	 ?GetParty@CPartyMng@@QAEPAVCParty@@K@Z ; CPartyMng::GetParty
  0003e	8b f8		 mov	 edi, eax
  00040	89 7d f8	 mov	 DWORD PTR _pParty$1$[ebp], edi

; 659  : 		if( pParty && pParty->IsMember( m_idPlayer ) )

  00043	85 ff		 test	 edi, edi
  00045	0f 84 4a 01 00
	00		 je	 $LN56@CalcLinkAt
; File C:\IAGOS\server\v18\Source\Source\_Common\Party.h

; 105  : 	BOOL	IsMember( u_long uPlayerId )		{	return( FindMember( uPlayerId ) >= 0 );	}

  0004b	ff b3 34 02 00
	00		 push	 DWORD PTR [ebx+564]
  00051	8b cf		 mov	 ecx, edi
  00053	e8 00 00 00 00	 call	 ?FindMember@CParty@@QAEHK@Z ; CParty::FindMember
  00058	85 c0		 test	 eax, eax
; File C:\IAGOS\server\v18\Source\Source\_Common\MoverAttack.cpp

; 659  : 		if( pParty && pParty->IsMember( m_idPlayer ) )

  0005a	0f 88 35 01 00
	00		 js	 $LN56@CalcLinkAt

; 662  : 			if( pParty->m_nKindTroup == 1 && pParty->m_nModeTime[PARTY_LINKATTACK_MODE] && pParty->IsLeader( m_idPlayer ) )

  00060	83 bf e4 01 00
	00 01		 cmp	 DWORD PTR [edi+484], 1
  00067	0f 85 28 01 00
	00		 jne	 $LN56@CalcLinkAt
  0006d	39 b7 ec 01 00
	00		 cmp	 DWORD PTR [edi+492], esi
  00073	0f 84 1c 01 00
	00		 je	 $LN56@CalcLinkAt
; File C:\IAGOS\server\v18\Source\Source\_Common\Party.h

; 106  : 	int		IsLeader( u_long uPlayerId )		{	return( m_aMember[0].m_uPlayerId == uPlayerId );	}

  00079	8b 47 28	 mov	 eax, DWORD PTR [edi+40]
  0007c	8d 77 28	 lea	 esi, DWORD PTR [edi+40]
  0007f	3b 83 34 02 00
	00		 cmp	 eax, DWORD PTR [ebx+564]
; File C:\IAGOS\server\v18\Source\Source\_Common\MoverAttack.cpp

; 662  : 			if( pParty->m_nKindTroup == 1 && pParty->m_nModeTime[PARTY_LINKATTACK_MODE] && pParty->IsLeader( m_idPlayer ) )

  00085	0f 85 08 01 00
	00		 jne	 $LN39@CalcLinkAt

; 663  : 			{
; 664  : 				int nJoinMember = 0; // Âüż©ÇŃ ´ÜżřĽö
; 665  : 				CUser* pLeader = (CUser*)this;
; 666  : 				CUser* pMemberUser;
; 667  : 				
; 668  : 				float fDist;
; 669  : 				D3DXVECTOR3	vDist;
; 670  : #if __VER >= 12 // __PARSKILL1001	//12Â÷ ĆÄ˝şĹł ľĆŔĚĹŰ ĽöÁ¤  world,core,neuz
; 671  : 				if( pParty->m_nModeTime[PARTY_PARSKILL_MODE] )

  0008b	8b 87 cc 01 00
	00		 mov	 eax, DWORD PTR [edi+460]
  00091	33 db		 xor	 ebx, ebx
  00093	39 9f fc 01 00
	00		 cmp	 DWORD PTR [edi+508], ebx
  00099	74 07		 je	 SHORT $LN8@CalcLinkAt

; 672  : 				{
; 673  : 					nJoinMember = pParty->m_nSizeofMember;

  0009b	8b d8		 mov	 ebx, eax

; 674  : 				}

  0009d	e9 d1 00 00 00	 jmp	 $LN3@CalcLinkAt
$LN8@CalcLinkAt:

; 675  : 				else
; 676  : 				{
; 677  : 					for( int i = 0 ; i < pParty->m_nSizeofMember ; i++ )

  000a2	33 ff		 xor	 edi, edi
  000a4	85 c0		 test	 eax, eax
  000a6	0f 8e c7 00 00
	00		 jle	 $LN3@CalcLinkAt
  000ac	0f 1f 40 00	 npad	 4
$LL4@CalcLinkAt:

; 678  : 					{
; 679  : 						pMemberUser = g_UserMng.GetUserByPlayerID( pParty->m_aMember[i].m_uPlayerId );

  000b0	ff 36		 push	 DWORD PTR [esi]
  000b2	b9 00 00 00 00	 mov	 ecx, OFFSET ?g_UserMng@@3VCUserMng@@A ; g_UserMng
  000b7	e8 00 00 00 00	 call	 ?GetUserByPlayerID@CUserMng@@QAEPAVCUser@@K@Z ; CUserMng::GetUserByPlayerID
  000bc	8b c8		 mov	 ecx, eax
; File C:\IAGOS\server\v18\Source\Source\_Common\Obj.h

; 327  : 	return pObj && ( pObj->IsDelete() == FALSE ); 

  000be	85 c9		 test	 ecx, ecx
  000c0	0f 84 9a 00 00
	00		 je	 $LN2@CalcLinkAt

; 180  : 	BOOL			IsDelete()	{ return (m_dwFlags & OBJ_FLAG_DELETE);  }

  000c6	f6 41 04 01	 test	 BYTE PTR [ecx+4], 1

; 327  : 	return pObj && ( pObj->IsDelete() == FALSE ); 

  000ca	0f 85 90 00 00
	00		 jne	 $LN2@CalcLinkAt
; File C:\IAGOS\server\v18\Source\Source\_Common\MoverAttack.cpp

; 683  : 								&& ( pLeader->m_idSetTarget != NULL_ID && pMemberUser->m_idSetTarget != NULL_ID ) )

  000d0	8b 45 fc	 mov	 eax, DWORD PTR _this$1$[ebp]
  000d3	8b 91 40 8e 00
	00		 mov	 edx, DWORD PTR [ecx+36416]
  000d9	8b 80 40 8e 00
	00		 mov	 eax, DWORD PTR [eax+36416]
  000df	3b c2		 cmp	 eax, edx
  000e1	0f 85 79 00 00
	00		 jne	 $LN2@CalcLinkAt
  000e7	83 f8 ff	 cmp	 eax, -1
  000ea	74 74		 je	 SHORT $LN2@CalcLinkAt
  000ec	83 fa ff	 cmp	 edx, -1
  000ef	74 6f		 je	 SHORT $LN2@CalcLinkAt
; File C:\IAGOS\server\v18\Source\Source\_Common\Obj.h

; 215  : 	D3DXVECTOR3		GetPos()	{ return m_vPos; }

  000f1	8b 45 fc	 mov	 eax, DWORD PTR _this$1$[ebp]
  000f4	f3 0f 7e 80 60
	01 00 00	 movq	 xmm0, QWORD PTR [eax+352]
  000fc	8b 80 68 01 00
	00		 mov	 eax, DWORD PTR [eax+360]
  00102	66 0f d6 45 e0	 movq	 QWORD PTR $T1[ebp], xmm0
  00107	f3 0f 7e 81 60
	01 00 00	 movq	 xmm0, QWORD PTR [ecx+352]
  0010f	66 0f d6 45 ec	 movq	 QWORD PTR $T2[ebp], xmm0
; File C:\IAGOS\server\v18\Source\Source\DX_SDK\d3dx9math.inl

; 383  :     return D3DXVECTOR3(x - v.x, y - v.y, z - v.z);

  00114	f3 0f 10 4d ec	 movss	 xmm1, DWORD PTR $T2[ebp]
  00119	f3 0f 10 55 f0	 movss	 xmm2, DWORD PTR $T2[ebp+4]
  0011e	f3 0f 5c 55 e4	 subss	 xmm2, DWORD PTR $T1[ebp+4]
  00123	f3 0f 5c 4d e0	 subss	 xmm1, DWORD PTR $T1[ebp]
; File C:\IAGOS\server\v18\Source\Source\_Common\Obj.h

; 215  : 	D3DXVECTOR3		GetPos()	{ return m_vPos; }

  00128	89 45 e8	 mov	 DWORD PTR $T1[ebp+8], eax
  0012b	8b 81 68 01 00
	00		 mov	 eax, DWORD PTR [ecx+360]
  00131	89 45 f4	 mov	 DWORD PTR $T2[ebp+8], eax
; File C:\IAGOS\server\v18\Source\Source\DX_SDK\d3dx9math.inl

; 383  :     return D3DXVECTOR3(x - v.x, y - v.y, z - v.z);

  00134	f3 0f 10 45 f4	 movss	 xmm0, DWORD PTR $T2[ebp+8]
  00139	f3 0f 5c 45 e8	 subss	 xmm0, DWORD PTR $T1[ebp+8]
; File C:\IAGOS\server\v18\Source\Source\_Common\MoverAttack.cpp

; 685  : 								vDist = pMemberUser->GetPos() - GetPos();

  0013e	f3 0f 59 d2	 mulss	 xmm2, xmm2
; File C:\IAGOS\server\v18\Source\Source\DX_SDK\d3dx9math.inl

; 1698 :     return pV->x * pV->x + pV->y * pV->y + pV->z * pV->z;

  00142	f3 0f 59 c9	 mulss	 xmm1, xmm1
  00146	f3 0f 59 c0	 mulss	 xmm0, xmm0
  0014a	f3 0f 58 d1	 addss	 xmm2, xmm1
  0014e	f3 0f 58 d0	 addss	 xmm2, xmm0
; File C:\IAGOS\server\v18\Source\Source\_Common\MoverAttack.cpp

; 687  : 								if( fDist < 255.0f * 255.0f )		// xxąĚĹÍş¸´Ů ŔŰŔ¸¸é

  00152	f3 0f 10 05 00
	00 00 00	 movss	 xmm0, DWORD PTR __real@477e0100
  0015a	0f 2f c2	 comiss	 xmm0, xmm2
  0015d	76 01		 jbe	 SHORT $LN2@CalcLinkAt

; 688  : 									nJoinMember++; // Âüż©ÇŃ ´ÜżřĽö										

  0015f	43		 inc	 ebx
$LN2@CalcLinkAt:

; 675  : 				else
; 676  : 				{
; 677  : 					for( int i = 0 ; i < pParty->m_nSizeofMember ; i++ )

  00160	8b 45 f8	 mov	 eax, DWORD PTR _pParty$1$[ebp]
  00163	47		 inc	 edi
  00164	83 c6 1c	 add	 esi, 28			; 0000001cH
  00167	3b b8 cc 01 00
	00		 cmp	 edi, DWORD PTR [eax+460]
  0016d	0f 8c 3d ff ff
	ff		 jl	 $LL4@CalcLinkAt
$LN3@CalcLinkAt:

; 689  : 							}
; 690  : 						}
; 691  : 					}
; 692  : 				}
; 693  : #else	//__PARSKILL1001	//12Â÷ ĆÄ˝şĹł ľĆŔĚĹŰ ĽöÁ¤  world,core,neuz
; 694  : 				for( int i = 0 ; i < pParty->m_nSizeofMember ; i++ )
; 695  : 				{
; 696  : 					pMemberUser = g_UserMng.GetUserByPlayerID( pParty->m_aMember[i].m_uPlayerId );
; 697  : 					if( IsValidObj( (CObj*)pMemberUser )/* && pLeader->IsNearPC( pMemberUser ) && pMemberUser->IsOrigin()*/ )
; 698  : 					{
; 699  : 						if( pLeader->m_idSetTarget == pMemberUser->m_idSetTarget
; 700  : 							&& ( pLeader->m_idSetTarget != NULL_ID && pMemberUser->m_idSetTarget != NULL_ID ) )
; 701  : 						{
; 702  : 							if( pLeader->IsSMMode( SM_PARTYSKILL1 ) || pLeader->IsSMMode( SM_PARTYSKILL15 ) || pLeader->IsSMMode( SM_PARTYSKILL30 ) )	// ż©±âĽ­ ŔŻ·á ľĆŔĚĹŰ »çżëÁßŔÎÁö Č®ŔÎ
; 703  : 								nJoinMember++; // Âüż©ÇŃ ´ÜżřĽö										
; 704  : 							else
; 705  : 							{
; 706  : 								vDist = pMemberUser->GetPos() - GetPos();
; 707  : 								fDist = D3DXVec3LengthSq( &vDist );		// ľĆŔĚĹŰ ÁÝ´Â»ç¶÷°ú ¸âąö°ŁŔÇ °Ĺ¸®.
; 708  : 								if( fDist < 255.0f * 255.0f )		// xxąĚĹÍş¸´Ů ŔŰŔ¸¸é
; 709  : 									nJoinMember++; // Âüż©ÇŃ ´ÜżřĽö										
; 710  : 							}
; 711  : 						}
; 712  : 					}
; 713  : 				}
; 714  : #endif //__PARSKILL1001	//12Â÷ ĆÄ˝şĹł ľĆŔĚĹŰ ĽöÁ¤  world,core,neuz
; 715  : 				nAdd = ( nDamage * nJoinMember / 10 ); 

  00173	0f af 5d 08	 imul	 ebx, DWORD PTR _nDamage$[ebp]
  00177	b8 67 66 66 66	 mov	 eax, 1717986919		; 66666667H
  0017c	5f		 pop	 edi
  0017d	f7 eb		 imul	 ebx
  0017f	c1 fa 02	 sar	 edx, 2
  00182	8b f2		 mov	 esi, edx
  00184	c1 ee 1f	 shr	 esi, 31			; 0000001fH
  00187	03 f2		 add	 esi, edx

; 716  : 			}
; 717  : 		}
; 718  : 	}
; 719  : 	return nAdd;

  00189	8b c6		 mov	 eax, esi
  0018b	5e		 pop	 esi
  0018c	5b		 pop	 ebx

; 720  : }

  0018d	8b e5		 mov	 esp, ebp
  0018f	5d		 pop	 ebp
  00190	c2 04 00	 ret	 4
$LN39@CalcLinkAt:

; 662  : 			if( pParty->m_nKindTroup == 1 && pParty->m_nModeTime[PARTY_LINKATTACK_MODE] && pParty->IsLeader( m_idPlayer ) )

  00193	33 f6		 xor	 esi, esi
$LN56@CalcLinkAt:
  00195	5f		 pop	 edi
$LN7@CalcLinkAt:

; 716  : 			}
; 717  : 		}
; 718  : 	}
; 719  : 	return nAdd;

  00196	8b c6		 mov	 eax, esi
  00198	5e		 pop	 esi
  00199	5b		 pop	 ebx

; 720  : }

  0019a	8b e5		 mov	 esp, ebp
  0019c	5d		 pop	 ebp
  0019d	c2 04 00	 ret	 4
?CalcLinkAttackDamage@CMover@@QAEHH@Z ENDP		; CMover::CalcLinkAttackDamage
_TEXT	ENDS
; Function compile flags: /Ogtp
; File C:\IAGOS\server\v18\Source\Source\_Common\MoverAttack.cpp
; File C:\IAGOS\server\v18\Source\Source\_Common\xUtil.h
; File C:\IAGOS\server\v18\Source\Source\_Common\MoverAttack.cpp
; File C:\IAGOS\server\v18\Source\Source\_Common\xUtil.h
; File C:\IAGOS\server\v18\Source\Source\_Common\MoverAttack.cpp
;	COMDAT ?ApplyDPC@CMover@@QAEHHPAUATTACK_INFO@@@Z
_TEXT	SEGMENT
_nATK$ = 8						; size = 4
_pInfo$ = 12						; size = 4
?ApplyDPC@CMover@@QAEHHPAUATTACK_INFO@@@Z PROC		; CMover::ApplyDPC, COMDAT
; _this$ = ecx

; 1571 : {	

  00000	55		 push	 ebp
  00001	8b ec		 mov	 ebp, esp
  00003	53		 push	 ebx
  00004	56		 push	 esi

; 1572 : 	int nDamage;
; 1573 : 	if( pInfo->CanIgnoreDEF() )

  00005	8b 75 0c	 mov	 esi, DWORD PTR _pInfo$[ebp]
  00008	57		 push	 edi
  00009	8b f9		 mov	 edi, ecx
  0000b	8b ce		 mov	 ecx, esi
  0000d	e8 00 00 00 00	 call	 ?CanIgnoreDEF@ATTACK_INFO@@QBEHXZ ; ATTACK_INFO::CanIgnoreDEF
  00012	85 c0		 test	 eax, eax
  00014	74 05		 je	 SHORT $LN2@ApplyDPC

; 1574 : 		nDamage = nATK;

  00016	8b 55 08	 mov	 edx, DWORD PTR _nATK$[ebp]
  00019	eb 0f		 jmp	 SHORT $LN3@ApplyDPC
$LN2@ApplyDPC:

; 1575 : 	else
; 1576 : 	{
; 1577 : 		int nDefense = CalcDefense( pInfo );

  0001b	6a 01		 push	 1
  0001d	56		 push	 esi
  0001e	8b cf		 mov	 ecx, edi
  00020	e8 00 00 00 00	 call	 ?CalcDefense@CMover@@QAEHPAUATTACK_INFO@@H@Z ; CMover::CalcDefense

; 1578 : 		nDamage = nATK - nDefense;

  00025	8b 55 08	 mov	 edx, DWORD PTR _nATK$[ebp]
  00028	2b d0		 sub	 edx, eax
$LN3@ApplyDPC:

; 1579 : 	}
; 1580 : 
; 1581 : 	if( nDamage < 0 )	
; 1582 : 		nDamage = 0;
; 1583 : 
; 1584 : 	// Ĺ©¸®ĆĽÄĂ Ăł¸®.
; 1585 : 	if( pInfo->pAttacker->IsCriticalAttack( this, pInfo->dwAtkFlags ) )		

  0002a	ff 76 08	 push	 DWORD PTR [esi+8]
  0002d	8b 0e		 mov	 ecx, DWORD PTR [esi]
  0002f	33 db		 xor	 ebx, ebx
  00031	85 d2		 test	 edx, edx
  00033	57		 push	 edi
  00034	0f 49 da	 cmovns	 ebx, edx
  00037	e8 00 00 00 00	 call	 ?IsCriticalAttack@CMover@@QAEHPAV1@K@Z ; CMover::IsCriticalAttack
  0003c	85 c0		 test	 eax, eax
  0003e	0f 84 01 01 00
	00		 je	 $LN21@ApplyDPC

; 1586 : 	{
; 1587 : 		pInfo->dwAtkFlags |= AF_CRITICAL;

  00044	81 4e 08 c0 00
	00 00		 or	 DWORD PTR [esi+8], 192	; 000000c0H

; 1588 : 
; 1589 : 		int nChargeLevel = pInfo->GetChargeLevel();		// żĎµĺĂćŔü·®	

  0004b	8b ce		 mov	 ecx, esi
  0004d	e8 00 00 00 00	 call	 ?GetChargeLevel@ATTACK_INFO@@QBEHXZ ; ATTACK_INFO::GetChargeLevel
  00052	8b c8		 mov	 ecx, eax

; 1590 : 		if( (pInfo->pAttacker->m_pActMover->GetState() & OBJSTA_ATK4) || 

  00054	8b 06		 mov	 eax, DWORD PTR [esi]
  00056	8b 80 38 02 00
	00		 mov	 eax, DWORD PTR [eax+568]
  0005c	f7 40 04 00 00
	04 00		 test	 DWORD PTR [eax+4], 262144 ; 00040000H
  00063	75 4d		 jne	 SHORT $LN8@ApplyDPC
  00065	83 f9 04	 cmp	 ecx, 4
  00068	74 48		 je	 SHORT $LN8@ApplyDPC

; 1600 : 			if( CanFlyByAttack() && xRandom(100) < 30 )

  0006a	66 0f 6e c3	 movd	 xmm0, ebx
  0006e	8b cf		 mov	 ecx, edi
  00070	0f 5b c0	 cvtdq2ps xmm0, xmm0
  00073	f3 0f 59 05 00
	00 00 00	 mulss	 xmm0, DWORD PTR __real@40133333
  0007b	f3 0f 2c d8	 cvttss2si ebx, xmm0
  0007f	e8 00 00 00 00	 call	 ?CanFlyByAttack@CMover@@QAEHXZ ; CMover::CanFlyByAttack
  00084	85 c0		 test	 eax, eax
  00086	74 79		 je	 SHORT $LN9@ApplyDPC
; File C:\IAGOS\server\v18\Source\Source\_Common\xUtil.h

; 16   : 	g_next = g_next * 1103515245 + 12345;// + nRandomSeed[ i++ ];

  00088	69 0d 00 00 00
	00 6d 4e c6 41	 imul	 ecx, DWORD PTR ?g_next@@3KA, 1103515245 ; g_next

; 22   : 	return  xRand() % num;

  00092	b8 1f 85 eb 51	 mov	 eax, 1374389535		; 51eb851fH

; 16   : 	g_next = g_next * 1103515245 + 12345;// + nRandomSeed[ i++ ];

  00097	81 c1 39 30 00
	00		 add	 ecx, 12345		; 00003039H

; 22   : 	return  xRand() % num;

  0009d	f7 e1		 mul	 ecx

; 16   : 	g_next = g_next * 1103515245 + 12345;// + nRandomSeed[ i++ ];

  0009f	89 0d 00 00 00
	00		 mov	 DWORD PTR ?g_next@@3KA, ecx ; g_next

; 22   : 	return  xRand() % num;

  000a5	c1 ea 05	 shr	 edx, 5
  000a8	6b c2 64	 imul	 eax, edx, 100
  000ab	2b c8		 sub	 ecx, eax
; File C:\IAGOS\server\v18\Source\Source\_Common\MoverAttack.cpp

; 1600 : 			if( CanFlyByAttack() && xRandom(100) < 30 )

  000ad	83 f9 1e	 cmp	 ecx, 30			; 0000001eH

; 1601 : 				pInfo->dwAtkFlags |= AF_FLYING;

  000b0	eb 46		 jmp	 SHORT $LN30@ApplyDPC
$LN8@ApplyDPC:
  000b2	66 0f 6e c3	 movd	 xmm0, ebx

; 1594 : 			if( CanFlyByAttack() && xRandom(100) < 50 )

  000b6	8b cf		 mov	 ecx, edi
  000b8	0f 5b c0	 cvtdq2ps xmm0, xmm0
  000bb	f3 0f 59 05 00
	00 00 00	 mulss	 xmm0, DWORD PTR __real@40266666
  000c3	f3 0f 2c d8	 cvttss2si ebx, xmm0
  000c7	e8 00 00 00 00	 call	 ?CanFlyByAttack@CMover@@QAEHXZ ; CMover::CanFlyByAttack
  000cc	85 c0		 test	 eax, eax
  000ce	74 31		 je	 SHORT $LN9@ApplyDPC
; File C:\IAGOS\server\v18\Source\Source\_Common\xUtil.h

; 16   : 	g_next = g_next * 1103515245 + 12345;// + nRandomSeed[ i++ ];

  000d0	69 0d 00 00 00
	00 6d 4e c6 41	 imul	 ecx, DWORD PTR ?g_next@@3KA, 1103515245 ; g_next

; 22   : 	return  xRand() % num;

  000da	b8 1f 85 eb 51	 mov	 eax, 1374389535		; 51eb851fH

; 16   : 	g_next = g_next * 1103515245 + 12345;// + nRandomSeed[ i++ ];

  000df	81 c1 39 30 00
	00		 add	 ecx, 12345		; 00003039H

; 22   : 	return  xRand() % num;

  000e5	f7 e1		 mul	 ecx

; 16   : 	g_next = g_next * 1103515245 + 12345;// + nRandomSeed[ i++ ];

  000e7	89 0d 00 00 00
	00		 mov	 DWORD PTR ?g_next@@3KA, ecx ; g_next

; 22   : 	return  xRand() % num;

  000ed	c1 ea 05	 shr	 edx, 5
  000f0	6b c2 64	 imul	 eax, edx, 100
  000f3	2b c8		 sub	 ecx, eax
; File C:\IAGOS\server\v18\Source\Source\_Common\MoverAttack.cpp

; 1594 : 			if( CanFlyByAttack() && xRandom(100) < 50 )

  000f5	83 f9 32	 cmp	 ecx, 50			; 00000032H
$LN30@ApplyDPC:

; 1602 : 		}
; 1603 : 		float fCriticalBonus	= 1 + (float)GetParam( DST_CRITICAL_BONUS, 0  ) / 100.0F;

  000f8	73 07		 jae	 SHORT $LN9@ApplyDPC
  000fa	81 4e 08 00 00
	00 10		 or	 DWORD PTR [esi+8], 268435456 ; 10000000H
$LN9@ApplyDPC:
  00101	6a 00		 push	 0
  00103	6a 4d		 push	 77			; 0000004dH
  00105	8b cf		 mov	 ecx, edi
  00107	e8 00 00 00 00	 call	 ?GetParam@CMover@@QAEHHH@Z ; CMover::GetParam

; 1604 : #ifdef __JEFF_11
; 1605 : 		if( fCriticalBonus < 0.1F )

  0010c	f3 0f 10 0d 00
	00 00 00	 movss	 xmm1, DWORD PTR __real@3dcccccd
  00114	5f		 pop	 edi

; 1606 : 			fCriticalBonus	= 0.1F;
; 1607 : #endif	// __JEFF_11
; 1608 : 		nDamage		= (int)( nDamage * fCriticalBonus );
; 1609 : 	}
; 1610 : 	return nDamage;
; 1611 : }

  00115	5e		 pop	 esi
  00116	66 0f 6e c0	 movd	 xmm0, eax
  0011a	0f 5b c0	 cvtdq2ps xmm0, xmm0
  0011d	f3 0f 5e 05 00
	00 00 00	 divss	 xmm0, DWORD PTR __real@42c80000
  00125	f3 0f 58 05 00
	00 00 00	 addss	 xmm0, DWORD PTR __real@3f800000
  0012d	f3 0f 5f c8	 maxss	 xmm1, xmm0
  00131	66 0f 6e c3	 movd	 xmm0, ebx
  00135	0f 5b c0	 cvtdq2ps xmm0, xmm0
  00138	5b		 pop	 ebx
  00139	f3 0f 59 c8	 mulss	 xmm1, xmm0
  0013d	f3 0f 2c c1	 cvttss2si eax, xmm1
  00141	5d		 pop	 ebp
  00142	c2 08 00	 ret	 8
$LN21@ApplyDPC:
  00145	5f		 pop	 edi
  00146	5e		 pop	 esi
  00147	8b c3		 mov	 eax, ebx
  00149	5b		 pop	 ebx
  0014a	5d		 pop	 ebp
  0014b	c2 08 00	 ret	 8
?ApplyDPC@CMover@@QAEHHPAUATTACK_INFO@@@Z ENDP		; CMover::ApplyDPC
_TEXT	ENDS
; Function compile flags: /Ogtp
; File C:\IAGOS\server\v18\Source\Source\_Common\MoverAttack.cpp
;	COMDAT ?IsGuildCombatTarget@CMover@@QAEHPAV1@@Z
_TEXT	SEGMENT
_pMover$ = 8						; size = 4
?IsGuildCombatTarget@CMover@@QAEHPAV1@@Z PROC		; CMover::IsGuildCombatTarget, COMDAT
; _this$ = ecx

; 1988 : {

  00000	55		 push	 ebp
  00001	8b ec		 mov	 ebp, esp

; 1989 : #ifdef __WORLDSERVER
; 1990 : 	if( g_GuildCombatMng.m_nGCState != CGuildCombat::WAR_WAR_STATE
; 1991 : #if __VER >= 11 // __GUILD_COMBAT_1TO1
; 1992 : 		&& g_GuildCombat1to1Mng.m_nState != g_GuildCombat1to1Mng.GC1TO1_WAR

  00003	83 3d 28 11 00
	00 68		 cmp	 DWORD PTR ?g_GuildCombatMng@@3VCGuildCombat@@A+4392, 104 ; 00000068H
  0000a	74 09		 je	 SHORT $LN2@IsGuildCom
  0000c	83 3d 04 00 00
	00 03		 cmp	 DWORD PTR ?g_GuildCombat1to1Mng@@3VCGuildCombat1to1Mng@@A+4, 3
  00013	75 2c		 jne	 SHORT $LN4@IsGuildCom
$LN2@IsGuildCom:

; 1993 : #endif // __GUILD_COMBAT_1TO1
; 1994 : 		)
; 1995 : 		return FALSE;
; 1996 : #endif // __WORLDSERVER
; 1997 : 	
; 1998 : 	if( m_nGuildCombatState != 1 || pMover->m_nGuildCombatState != 1 )

  00015	83 b9 b0 0d 00
	00 01		 cmp	 DWORD PTR [ecx+3504], 1
  0001c	75 23		 jne	 SHORT $LN4@IsGuildCom
  0001e	8b 55 08	 mov	 edx, DWORD PTR _pMover$[ebp]
  00021	83 ba b0 0d 00
	00 01		 cmp	 DWORD PTR [edx+3504], 1
  00028	75 17		 jne	 SHORT $LN4@IsGuildCom

; 2000 : 
; 2001 : 	if( m_idGuild == pMover->m_idGuild )

  0002a	8b 81 14 07 00
	00		 mov	 eax, DWORD PTR [ecx+1812]
  00030	3b 82 14 07 00
	00		 cmp	 eax, DWORD PTR [edx+1812]
  00036	74 09		 je	 SHORT $LN4@IsGuildCom

; 2002 : 		return FALSE;
; 2003 : 
; 2004 : 	return TRUE;

  00038	b8 01 00 00 00	 mov	 eax, 1

; 2005 : }

  0003d	5d		 pop	 ebp
  0003e	c2 04 00	 ret	 4
$LN4@IsGuildCom:

; 1999 : 		return FALSE;

  00041	33 c0		 xor	 eax, eax

; 2005 : }

  00043	5d		 pop	 ebp
  00044	c2 04 00	 ret	 4
?IsGuildCombatTarget@CMover@@QAEHPAV1@@Z ENDP		; CMover::IsGuildCombatTarget
_TEXT	ENDS
; Function compile flags: /Ogtp
; File C:\IAGOS\server\v18\Source\Source\_Common\MoverAttack.cpp
;	COMDAT ?OnAttackSFX@CMover@@QAEXKHKHMMKH@Z
_TEXT	SEGMENT
_si$ = -36						; size = 36
_idTarget$ = 8						; size = 4
_nMagicPower$ = 12					; size = 4
_dwSkill$ = 16						; size = 4
_nDmgCnt$ = 20						; size = 4
_fDmgAngle$ = 24					; size = 4
_fDmgPower$ = 28					; size = 4
_dwAtkFlags$ = 32					; size = 4
_bControl$ = 36						; size = 4
?OnAttackSFX@CMover@@QAEXKHKHMMKH@Z PROC		; CMover::OnAttackSFX, COMDAT
; _this$ = ecx

; 2167 : {

  00000	55		 push	 ebp
  00001	8b ec		 mov	 ebp, esp
  00003	83 ec 24	 sub	 esp, 36			; 00000024H

; 2168 : #ifdef __WORLDSERVER
; 2169 : //	if( dwSkill == SI_MAG_FIRE_HOTAIR )		// Ë¬	// 06-10-23
; 2170 : //		return;
; 2171 : 
; 2172 : #if __VER >= 8 // __S8_PK
; 2173 : 	SFXHIT_INFO si	= 
; 2174 : 		{ idTarget, nMagicPower, dwSkill, nDmgCnt, fDmgAngle, fDmgPower, dwAtkFlags, bControl };

  00006	8b 45 0c	 mov	 eax, DWORD PTR _nMagicPower$[ebp]
  00009	f3 0f 10 45 18	 movss	 xmm0, DWORD PTR _fDmgAngle$[ebp]
  0000e	8b 55 08	 mov	 edx, DWORD PTR _idTarget$[ebp]
  00011	89 45 e0	 mov	 DWORD PTR _si$[ebp+4], eax
  00014	8b 45 10	 mov	 eax, DWORD PTR _dwSkill$[ebp]
  00017	89 45 e4	 mov	 DWORD PTR _si$[ebp+8], eax
  0001a	8b 45 14	 mov	 eax, DWORD PTR _nDmgCnt$[ebp]
  0001d	89 45 e8	 mov	 DWORD PTR _si$[ebp+12], eax
  00020	8b 45 20	 mov	 eax, DWORD PTR _dwAtkFlags$[ebp]
  00023	89 45 f4	 mov	 DWORD PTR _si$[ebp+24], eax
  00026	8b 45 24	 mov	 eax, DWORD PTR _bControl$[ebp]
  00029	89 45 f8	 mov	 DWORD PTR _si$[ebp+28], eax

; 2175 : #else // __VER >= 8 // __S8_PK
; 2176 : 	SFXHIT_INFO si	= 
; 2177 : 		{ idTarget, nMagicPower, dwSkill, nDmgCnt, fDmgAngle, fDmgPower, dwAtkFlags };
; 2178 : #endif // __VER >= 8 // __S8_PK
; 2179 : 	AddSFXInfo( idTarget, si );

  0002c	8d 45 dc	 lea	 eax, DWORD PTR _si$[ebp]
  0002f	f3 0f 11 45 ec	 movss	 DWORD PTR _si$[ebp+16], xmm0
  00034	f3 0f 10 45 1c	 movss	 xmm0, DWORD PTR _fDmgPower$[ebp]
  00039	50		 push	 eax
  0003a	52		 push	 edx
  0003b	89 55 dc	 mov	 DWORD PTR _si$[ebp], edx
  0003e	f3 0f 11 45 f0	 movss	 DWORD PTR _si$[ebp+20], xmm0
  00043	c7 45 fc 00 00
	00 00		 mov	 DWORD PTR _si$[ebp+32], 0
  0004a	e8 00 00 00 00	 call	 ?AddSFXInfo@CMover@@QAEXKAAUSFXHIT_INFO@@@Z ; CMover::AddSFXInfo

; 2180 : #endif
; 2181 : }

  0004f	8b e5		 mov	 esp, ebp
  00051	5d		 pop	 ebp
  00052	c2 20 00	 ret	 32			; 00000020H
?OnAttackSFX@CMover@@QAEXKHKHMMKH@Z ENDP		; CMover::OnAttackSFX
_TEXT	ENDS
; Function compile flags: /Ogtp
; File C:\IAGOS\server\v18\Source\Source\_Common\MoverAttack.cpp
; File C:\IAGOS\server\v18\Source\Source\_Common\Mover.h
; File C:\IAGOS\server\v18\Source\Source\_Common\Project.h
; File C:\IAGOS\server\v18\Source\Source\_Common\MoverAttack.cpp
;	COMDAT ?CalcDefenseNPC@CMover@@QAEHPAV1@K@Z
_TEXT	SEGMENT
_pAttacker$ = 8						; size = 4
_dwAtkFlags$ = 12					; size = 4
?CalcDefenseNPC@CMover@@QAEHPAV1@K@Z PROC		; CMover::CalcDefenseNPC, COMDAT
; _this$ = ecx

; 527  : {

  00000	55		 push	 ebp
  00001	8b ec		 mov	 ebp, esp
; File C:\IAGOS\server\v18\Source\Source\_Common\Mover.h

; 1020 : 	MoverProp*		GetProp() { return prj.GetMoverProp( m_dwIndex ); }	// °´ĂĽŔÇ ÇÁ·ÎĆŰĆĽ ľň±â 	

  00003	8b 81 74 01 00
	00		 mov	 eax, DWORD PTR [ecx+372]
; File C:\IAGOS\server\v18\Source\Source\_Common\Project.h

; 1406 : 	VERIFY_RANGE( nIndex, 0, m_nMoverPropSize, "GetMoverProp range_error", NULL );

  00009	8b 0d b4 01 00
	00		 mov	 ecx, DWORD PTR ?prj@@3VCProject@@A+436
  0000f	85 c0		 test	 eax, eax
  00011	78 12		 js	 SHORT $LN12@CalcDefens
  00013	3b c1		 cmp	 eax, ecx
  00015	7d 0e		 jge	 SHORT $LN12@CalcDefens

; 1407 : 	return m_pPropMover + nIndex;

  00017	69 c0 90 06 00
	00		 imul	 eax, eax, 1680
  0001d	03 05 b8 01 00
	00		 add	 eax, DWORD PTR ?prj@@3VCProject@@A+440
  00023	eb 18		 jmp	 SHORT $LN7@CalcDefens
$LN12@CalcDefens:

; 579  : 	LPCTSTR szErr = Error( _T( "%s min:%d, max:%d, index:%d" ), szMsg, nMin, nMax, nIndex ); 

  00025	50		 push	 eax
  00026	51		 push	 ecx
  00027	6a 00		 push	 0
  00029	68 00 00 00 00	 push	 OFFSET ??_C@_0BJ@GKPOBPPI@GetMoverProp?5range_error@
  0002e	68 00 00 00 00	 push	 OFFSET ??_C@_0BM@HMFGHCP@?$CFs?5min?3?$CFd?0?5max?3?$CFd?0?5index?3?$CFd@
  00033	e8 00 00 00 00	 call	 ?Error@@YAPBDPBDZZ	; Error
  00038	83 c4 14	 add	 esp, 20			; 00000014H

; 1406 : 	VERIFY_RANGE( nIndex, 0, m_nMoverPropSize, "GetMoverProp range_error", NULL );

  0003b	33 c0		 xor	 eax, eax
$LN7@CalcDefens:
; File C:\IAGOS\server\v18\Source\Source\_Common\MoverAttack.cpp

; 531  : 	if( dwAtkFlags & AF_MAGIC ) 

  0003d	f6 45 0c 08	 test	 BYTE PTR _dwAtkFlags$[ebp], 8
  00041	74 08		 je	 SHORT $LN2@CalcDefens

; 532  : 	{
; 533  : 		fDefense = pProp->dwResisMgic / 7.0f + 1;

  00043	8b 80 20 01 00
	00		 mov	 eax, DWORD PTR [eax+288]

; 534  : 	}

  00049	eb 06		 jmp	 SHORT $LN16@CalcDefens
$LN2@CalcDefens:

; 535  : 	else
; 536  : 	{
; 537  : 		ASSERT( (dwAtkFlags & AF_MELEESKILL) == AF_MELEESKILL );
; 538  : 		fDefense = pProp->dwNaturalArmor / 7.0f + 1;

  0004b	8b 80 ec 00 00
	00		 mov	 eax, DWORD PTR [eax+236]
$LN16@CalcDefens:

; 539  : 	}
; 540  : 
; 541  : 	return (int)fDefense;

  00051	66 0f 6e c0	 movd	 xmm0, eax
  00055	f3 0f e6 c0	 cvtdq2pd xmm0, xmm0
  00059	c1 e8 1f	 shr	 eax, 31			; 0000001fH
  0005c	f2 0f 58 04 c5
	00 00 00 00	 addsd	 xmm0, QWORD PTR __xmm@41f00000000000000000000000000000[eax*8]
  00065	66 0f 5a c0	 cvtpd2ps xmm0, xmm0
  00069	f3 0f 5e 05 00
	00 00 00	 divss	 xmm0, DWORD PTR __real@40e00000
  00071	f3 0f 58 05 00
	00 00 00	 addss	 xmm0, DWORD PTR __real@3f800000
  00079	f3 0f 2c c0	 cvttss2si eax, xmm0

; 542  : }

  0007d	5d		 pop	 ebp
  0007e	c2 08 00	 ret	 8
?CalcDefenseNPC@CMover@@QAEHPAV1@K@Z ENDP		; CMover::CalcDefenseNPC
_TEXT	ENDS
; Function compile flags: /Ogtp
; File C:\IAGOS\server\v18\Source\Source\_Common\MoverAttack.cpp
; File C:\IAGOS\server\v18\Source\Source\_Common\Mover.h
; File C:\IAGOS\server\v18\Source\Source\_Common\MoverAttack.cpp
; File C:\IAGOS\server\v18\Source\Source\_Common\Mover.h
; File C:\IAGOS\server\v18\Source\Source\_Common\MoverAttack.cpp
; File C:\IAGOS\server\v18\Source\Source\_Common\Mover.h
; File C:\IAGOS\server\v18\Source\Source\_Common\MoverAttack.cpp
;	COMDAT ?CalcDefensePlayer@CMover@@QAEHPAV1@K@Z
_TEXT	SEGMENT
_this$1$ = -4						; size = 4
_pAttacker$ = 8						; size = 4
_dwAtkFlags$ = 12					; size = 4
?CalcDefensePlayer@CMover@@QAEHPAV1@K@Z PROC		; CMover::CalcDefensePlayer, COMDAT
; _this$ = ecx

; 546  : {	

  00000	55		 push	 ebp
  00001	8b ec		 mov	 ebp, esp
  00003	51		 push	 ecx

; 547  : 	int nDefense = 0;
; 548  : 	if( pAttacker->IsPlayer() )		// ÇĂ·ąŔĚľî °ř°Ý 

  00004	8b 45 08	 mov	 eax, DWORD PTR _pAttacker$[ebp]
  00007	53		 push	 ebx
  00008	56		 push	 esi
  00009	8b f1		 mov	 esi, ecx
  0000b	83 b8 30 02 00
	00 00		 cmp	 DWORD PTR [eax+560], 0
  00012	57		 push	 edi
  00013	89 75 fc	 mov	 DWORD PTR _this$1$[ebp], esi
  00016	0f 84 8b 00 00
	00		 je	 $LN2@CalcDefens

; 549  : 	{			
; 550  : 		if( dwAtkFlags & AF_MAGIC )  

  0001c	f6 45 0c 08	 test	 BYTE PTR _dwAtkFlags$[ebp], 8
  00020	74 2e		 je	 SHORT $LN4@CalcDefens
; File C:\IAGOS\server\v18\Source\Source\_Common\Mover.h

; 1133 : 	int				GetLevel() { return m_nLevel; }

  00022	8b b6 d8 05 00
	00		 mov	 esi, DWORD PTR [esi+1496]
; File C:\IAGOS\server\v18\Source\Source\_Common\MoverAttack.cpp

; 552  : 			nDefense = (int)( float((GetInt() * 9.04f) + (GetLevel() * 35.98f) ) );

  00028	e8 00 00 00 00	 call	 ?GetInt@CMover@@QAEHXZ	; CMover::GetInt
  0002d	66 0f 6e c6	 movd	 xmm0, esi
  00031	0f 5b c0	 cvtdq2ps xmm0, xmm0
  00034	66 0f 6e c8	 movd	 xmm1, eax
  00038	f3 0f 59 05 00
	00 00 00	 mulss	 xmm0, DWORD PTR __real@420feb85
  00040	0f 5b c9	 cvtdq2ps xmm1, xmm1
  00043	f3 0f 59 0d 00
	00 00 00	 mulss	 xmm1, DWORD PTR __real@4110a3d7

; 553  : 		}

  0004b	e9 c3 00 00 00	 jmp	 $LN18@CalcDefens
$LN4@CalcDefens:

; 554  : 		else
; 555  : 		{
; 556  : 			int nDEF = GetDefenseByItem() + GetParam( DST_ADJDEF, 0 );

  00050	6a 00		 push	 0
  00052	6a 1a		 push	 26			; 0000001aH
  00054	e8 00 00 00 00	 call	 ?GetParam@CMover@@QAEHHH@Z ; CMover::GetParam
  00059	6a 01		 push	 1
  0005b	8b ce		 mov	 ecx, esi
  0005d	8b d8		 mov	 ebx, eax
  0005f	e8 00 00 00 00	 call	 ?GetDefenseByItem@CMover@@QAEHH@Z ; CMover::GetDefenseByItem
; File C:\IAGOS\server\v18\Source\Source\_Common\Mover.h

; 1133 : 	int				GetLevel() { return m_nLevel; }

  00064	8b be d8 05 00
	00		 mov	 edi, DWORD PTR [esi+1496]
; File C:\IAGOS\server\v18\Source\Source\_Common\MoverAttack.cpp

; 557  : 			nDefense = (int)( (float(nDEF * 2.3f ) + (float(GetLevel()+(GetSta()/2)+GetDex()) / 2.8f ) - 4 + GetLevel() * 2 ) );

  0006a	8b ce		 mov	 ecx, esi
  0006c	03 d8		 add	 ebx, eax
  0006e	e8 00 00 00 00	 call	 ?GetSta@CMover@@QAEHXZ	; CMover::GetSta
  00073	8b 4d fc	 mov	 ecx, DWORD PTR _this$1$[ebp]
  00076	99		 cdq
  00077	2b c2		 sub	 eax, edx
  00079	8b f0		 mov	 esi, eax
  0007b	d1 fe		 sar	 esi, 1
  0007d	e8 00 00 00 00	 call	 ?GetDex@CMover@@QAEHXZ	; CMover::GetDex
  00082	8b 4d fc	 mov	 ecx, DWORD PTR _this$1$[ebp]
  00085	03 c6		 add	 eax, esi
  00087	66 0f 6e c3	 movd	 xmm0, ebx
  0008b	0f 5b c0	 cvtdq2ps xmm0, xmm0
  0008e	8b 89 d8 05 00
	00		 mov	 ecx, DWORD PTR [ecx+1496]
  00094	03 c8		 add	 ecx, eax
  00096	8d 04 3f	 lea	 eax, DWORD PTR [edi+edi]
  00099	f3 0f 59 05 00
	00 00 00	 mulss	 xmm0, DWORD PTR __real@40133333
  000a1	66 0f 6e c9	 movd	 xmm1, ecx

; 558  : 		}
; 559  : 	}

  000a5	eb 4e		 jmp	 SHORT $LN19@CalcDefens
$LN2@CalcDefens:
; File C:\IAGOS\server\v18\Source\Source\_Common\Mover.h

; 1133 : 	int				GetLevel() { return m_nLevel; }

  000a7	8b 9e d8 05 00
	00		 mov	 ebx, DWORD PTR [esi+1496]
; File C:\IAGOS\server\v18\Source\Source\_Common\MoverAttack.cpp

; 562  : 		nDefense =(int)(  ((GetDefenseByItem() / 4 + GetParam( DST_ADJDEF, 0 )) + 

  000ad	6a 01		 push	 1
  000af	e8 00 00 00 00	 call	 ?GetDefenseByItem@CMover@@QAEHH@Z ; CMover::GetDefenseByItem
  000b4	99		 cdq
  000b5	8b ce		 mov	 ecx, esi
  000b7	83 e2 03	 and	 edx, 3
  000ba	6a 00		 push	 0
  000bc	6a 1a		 push	 26			; 0000001aH
  000be	8d 3c 02	 lea	 edi, DWORD PTR [edx+eax]
  000c1	c1 ff 02	 sar	 edi, 2
  000c4	e8 00 00 00 00	 call	 ?GetParam@CMover@@QAEHHH@Z ; CMover::GetParam
  000c9	8b 4d fc	 mov	 ecx, DWORD PTR _this$1$[ebp]
  000cc	8d 34 07	 lea	 esi, DWORD PTR [edi+eax]
  000cf	e8 00 00 00 00	 call	 ?GetSta@CMover@@QAEHXZ	; CMover::GetSta
  000d4	8b 4d fc	 mov	 ecx, DWORD PTR _this$1$[ebp]
  000d7	99		 cdq
  000d8	2b c2		 sub	 eax, edx
  000da	8b f8		 mov	 edi, eax
  000dc	d1 ff		 sar	 edi, 1
  000de	e8 00 00 00 00	 call	 ?GetDex@CMover@@QAEHXZ	; CMover::GetDex
  000e3	03 c7		 add	 eax, edi
  000e5	66 0f 6e c6	 movd	 xmm0, esi
  000e9	03 c3		 add	 eax, ebx
  000eb	0f 5b c0	 cvtdq2ps xmm0, xmm0
  000ee	66 0f 6e c8	 movd	 xmm1, eax
  000f2	8d 04 1b	 lea	 eax, DWORD PTR [ebx+ebx]
$LN19@CalcDefens:

; 563  : 			(float(GetLevel()+(GetSta()/2)+GetDex()) / 2.8f ) - 4 + GetLevel() * 2 ) );
; 564  : 	}
; 565  : #ifdef __JEFF_11
; 566  : 	if( nDefense < 0 )

  000f5	0f 5b c9	 cvtdq2ps xmm1, xmm1
  000f8	f3 0f 5e 0d 00
	00 00 00	 divss	 xmm1, DWORD PTR __real@40333333
  00100	f3 0f 58 c8	 addss	 xmm1, xmm0
  00104	66 0f 6e c0	 movd	 xmm0, eax
  00108	0f 5b c0	 cvtdq2ps xmm0, xmm0
  0010b	f3 0f 5c 0d 00
	00 00 00	 subss	 xmm1, DWORD PTR __real@40800000
$LN18@CalcDefens:
  00113	f3 0f 58 c8	 addss	 xmm1, xmm0

; 567  : 		nDefense	= 0;
; 568  : #endif	// __JEFF_11
; 569  : 	return nDefense;

  00117	33 c0		 xor	 eax, eax
  00119	5f		 pop	 edi
  0011a	5e		 pop	 esi
  0011b	5b		 pop	 ebx
  0011c	f3 0f 2c c9	 cvttss2si ecx, xmm1
  00120	85 c9		 test	 ecx, ecx
  00122	0f 49 c1	 cmovns	 eax, ecx

; 570  : }

  00125	8b e5		 mov	 esp, ebp
  00127	5d		 pop	 ebp
  00128	c2 08 00	 ret	 8
?CalcDefensePlayer@CMover@@QAEHPAV1@K@Z ENDP		; CMover::CalcDefensePlayer
_TEXT	ENDS
; Function compile flags: /Ogtp
; File C:\IAGOS\server\v18\Source\Source\_Common\MoverAttack.cpp
; File C:\IAGOS\server\v18\Source\Source\_Common\Mover.h
; File C:\IAGOS\server\v18\Source\Source\_Common\MoverAttack.cpp
;	COMDAT ?CalcDefenseCore@CMover@@QAEHPAV1@KH@Z
_TEXT	SEGMENT
_pAttacker$ = 8						; size = 4
tv241 = 8						; size = 4
_dwAtkFlags$ = 12					; size = 4
_fFactor$1$ = 12					; size = 4
_bRandom$ = 16						; size = 4
?CalcDefenseCore@CMover@@QAEHPAV1@KH@Z PROC		; CMover::CalcDefenseCore, COMDAT
; _this$ = ecx

; 574  : {

  00000	55		 push	 ebp
  00001	8b ec		 mov	 ebp, esp

; 575  : 	if( dwAtkFlags & AF_MAGICSKILL )		// żążÜĂł¸®:ĽÓĽş ¸ĹÁ÷˝şĹłŔÇ ąćľî·ÂŔ» ±¸ÇŃ´Ů.

  00003	8b 45 0c	 mov	 eax, DWORD PTR _dwAtkFlags$[ebp]
  00006	57		 push	 edi
  00007	8b f9		 mov	 edi, ecx
  00009	a8 20		 test	 al, 32			; 00000020H
  0000b	74 0a		 je	 SHORT $LN2@CalcDefens

; 576  : 		return GetResistMagic();

  0000d	e8 00 00 00 00	 call	 ?GetResistMagic@CMover@@QAEHXZ ; CMover::GetResistMagic
  00012	5f		 pop	 edi

; 605  : }

  00013	5d		 pop	 ebp
  00014	c2 0c 00	 ret	 12			; 0000000cH
$LN2@CalcDefens:

; 577  : 
; 578  : 	BOOL bGeneric = (dwAtkFlags & AF_GENERIC);
; 579  : 	if( IsPlayer() && pAttacker && pAttacker->IsPlayer() )

  00017	8b 97 30 02 00
	00		 mov	 edx, DWORD PTR [edi+560]
  0001d	8b 4d 08	 mov	 ecx, DWORD PTR _pAttacker$[ebp]
  00020	56		 push	 esi
  00021	8b f0		 mov	 esi, eax
  00023	83 e6 01	 and	 esi, 1
  00026	85 d2		 test	 edx, edx
  00028	74 0d		 je	 SHORT $LN3@CalcDefens
  0002a	85 c9		 test	 ecx, ecx
  0002c	74 09		 je	 SHORT $LN3@CalcDefens
  0002e	83 b9 30 02 00
	00 00		 cmp	 DWORD PTR [ecx+560], 0
  00035	75 19		 jne	 SHORT $LN13@CalcDefens
$LN3@CalcDefens:

; 580  : 		bGeneric = TRUE;
; 581  : 
; 582  : 	if( bGeneric )		

  00037	85 f6		 test	 esi, esi
  00039	0f 84 ad 00 00
	00		 je	 $LN4@CalcDefens

; 583  : 	{
; 584  : 		float fFactor = 1.0f;

  0003f	f3 0f 10 05 00
	00 00 00	 movss	 xmm0, DWORD PTR __real@3f800000
  00047	f3 0f 11 45 0c	 movss	 DWORD PTR _fFactor$1$[ebp], xmm0

; 585  : 		if( IsPlayer() )

  0004c	85 d2		 test	 edx, edx
  0004e	74 1c		 je	 SHORT $LN5@CalcDefens
$LN13@CalcDefens:

; 586  : 		{
; 587  : 			JobProp* pProperty = prj.GetJobProp( GetJob() ); 

  00050	8b cf		 mov	 ecx, edi
  00052	e8 00 00 00 00	 call	 ?GetJob@CMover@@QAEHXZ	; CMover::GetJob
  00057	50		 push	 eax
  00058	b9 00 00 00 00	 mov	 ecx, OFFSET ?prj@@3VCProject@@A ; prj
  0005d	e8 00 00 00 00	 call	 ?GetJobProp@CProject@@QAEPAUJobProp@@H@Z ; CProject::GetJobProp

; 588  : 			assert( pProperty );
; 589  : 			fFactor = pProperty->fFactorDef;

  00062	f3 0f 10 40 10	 movss	 xmm0, DWORD PTR [eax+16]
  00067	f3 0f 11 45 0c	 movss	 DWORD PTR _fFactor$1$[ebp], xmm0
$LN5@CalcDefens:

; 590  : 		}
; 591  : 		int nDefense = (int)( ((((GetLevel()*2) + (GetSta()/2)) / 2.8f ) - 4) + ((GetSta()-14) * fFactor) );

  0006c	8b cf		 mov	 ecx, edi
  0006e	e8 00 00 00 00	 call	 ?GetSta@CMover@@QAEHXZ	; CMover::GetSta
  00073	8b 8f d8 05 00
	00		 mov	 ecx, DWORD PTR [edi+1496]
  00079	99		 cdq
  0007a	2b c2		 sub	 eax, edx
  0007c	d1 f8		 sar	 eax, 1
  0007e	8d 04 48	 lea	 eax, DWORD PTR [eax+ecx*2]
  00081	8b cf		 mov	 ecx, edi
  00083	66 0f 6e c0	 movd	 xmm0, eax
  00087	0f 5b c0	 cvtdq2ps xmm0, xmm0
  0008a	f3 0f 5e 05 00
	00 00 00	 divss	 xmm0, DWORD PTR __real@40333333
  00092	f3 0f 5c 05 00
	00 00 00	 subss	 xmm0, DWORD PTR __real@40800000
  0009a	f3 0f 11 45 08	 movss	 DWORD PTR tv241[ebp], xmm0
  0009f	e8 00 00 00 00	 call	 ?GetSta@CMover@@QAEHXZ	; CMover::GetSta

; 592  : 		nDefense += (GetDefenseByItem( bRandom ) / 4);	// ľĆŔĚĹŰżˇ ŔÇÇŃ µđĆć˝ş   

  000a4	ff 75 10	 push	 DWORD PTR _bRandom$[ebp]
  000a7	83 e8 0e	 sub	 eax, 14			; 0000000eH
  000aa	8b cf		 mov	 ecx, edi
  000ac	66 0f 6e c0	 movd	 xmm0, eax
  000b0	0f 5b c0	 cvtdq2ps xmm0, xmm0
  000b3	f3 0f 59 45 0c	 mulss	 xmm0, DWORD PTR _fFactor$1$[ebp]
  000b8	f3 0f 58 45 08	 addss	 xmm0, DWORD PTR tv241[ebp]
  000bd	f3 0f 2c f0	 cvttss2si esi, xmm0
  000c1	e8 00 00 00 00	 call	 ?GetDefenseByItem@CMover@@QAEHH@Z ; CMover::GetDefenseByItem
  000c6	99		 cdq

; 593  : 		nDefense += GetParam( DST_ADJDEF, 0 );	// µđĆć˝ş ĽöÁ¤Äˇ°ˇ ŔÖ´Ů¸é ±×°ÍŔ» ´őÇÔ.

  000c7	8b cf		 mov	 ecx, edi
  000c9	83 e2 03	 and	 edx, 3
  000cc	03 c2		 add	 eax, edx
  000ce	6a 00		 push	 0
  000d0	c1 f8 02	 sar	 eax, 2
  000d3	6a 1a		 push	 26			; 0000001aH
  000d5	03 f0		 add	 esi, eax
  000d7	e8 00 00 00 00	 call	 ?GetParam@CMover@@QAEHHH@Z ; CMover::GetParam
  000dc	8d 0c 30	 lea	 ecx, DWORD PTR [eax+esi]

; 594  : #ifdef __JEFF_11
; 595  : 		if( nDefense < 0 )
; 596  : 			nDefense	= 0;
; 597  : #endif	// __JEFF_11
; 598  : 		return nDefense;

  000df	33 c0		 xor	 eax, eax
  000e1	85 c9		 test	 ecx, ecx
  000e3	5e		 pop	 esi
  000e4	0f 49 c1	 cmovns	 eax, ecx
  000e7	5f		 pop	 edi

; 605  : }

  000e8	5d		 pop	 ebp
  000e9	c2 0c 00	 ret	 12			; 0000000cH
$LN4@CalcDefens:

; 601  : 	if( IsNPC() )

  000ec	50		 push	 eax
  000ed	51		 push	 ecx
  000ee	8b cf		 mov	 ecx, edi
; File C:\IAGOS\server\v18\Source\Source\_Common\Mover.h

; 1015 : 	BOOL			IsNPC()				{ return !m_bPlayer; }

  000f0	85 d2		 test	 edx, edx
; File C:\IAGOS\server\v18\Source\Source\_Common\MoverAttack.cpp

; 601  : 	if( IsNPC() )

  000f2	75 0b		 jne	 SHORT $LN7@CalcDefens

; 602  : 		return CalcDefenseNPC( pAttacker, dwAtkFlags );

  000f4	e8 00 00 00 00	 call	 ?CalcDefenseNPC@CMover@@QAEHPAV1@K@Z ; CMover::CalcDefenseNPC
  000f9	5e		 pop	 esi
  000fa	5f		 pop	 edi

; 605  : }

  000fb	5d		 pop	 ebp
  000fc	c2 0c 00	 ret	 12			; 0000000cH
$LN7@CalcDefens:

; 603  : 	else
; 604  : 		return CalcDefensePlayer( pAttacker, dwAtkFlags );

  000ff	e8 00 00 00 00	 call	 ?CalcDefensePlayer@CMover@@QAEHPAV1@K@Z ; CMover::CalcDefensePlayer
  00104	5e		 pop	 esi
  00105	5f		 pop	 edi

; 605  : }

  00106	5d		 pop	 ebp
  00107	c2 0c 00	 ret	 12			; 0000000cH
?CalcDefenseCore@CMover@@QAEHPAV1@KH@Z ENDP		; CMover::CalcDefenseCore
_TEXT	ENDS
; Function compile flags: /Ogtp
; File C:\IAGOS\server\v18\Source\Source\_Common\MoverAttack.cpp
;	COMDAT ?CalcDefense@CMover@@QAEHPAUATTACK_INFO@@H@Z
_TEXT	SEGMENT
_pInfo$ = 8						; size = 4
_bRandom$ = 12						; size = 4
tv135 = 12						; size = 4
tv137 = 12						; size = 4
?CalcDefense@CMover@@QAEHPAUATTACK_INFO@@H@Z PROC	; CMover::CalcDefense, COMDAT
; _this$ = ecx

; 515  : {

  00000	55		 push	 ebp
  00001	8b ec		 mov	 ebp, esp
  00003	53		 push	 ebx
  00004	56		 push	 esi
  00005	57		 push	 edi

; 516  : 	int nDefense = CalcDefenseCore( pInfo->pAttacker, pInfo->dwAtkFlags, bRandom );

  00006	8b 7d 08	 mov	 edi, DWORD PTR _pInfo$[ebp]
  00009	8b d9		 mov	 ebx, ecx
  0000b	ff 75 0c	 push	 DWORD PTR _bRandom$[ebp]
  0000e	ff 77 08	 push	 DWORD PTR [edi+8]
  00011	ff 37		 push	 DWORD PTR [edi]
  00013	e8 00 00 00 00	 call	 ?CalcDefenseCore@CMover@@QAEHPAV1@KH@Z ; CMover::CalcDefenseCore

; 517  : 	nDefense	= (int)( nDefense * GetDEFMultiplier( pInfo ) );

  00018	57		 push	 edi
  00019	8b cb		 mov	 ecx, ebx
  0001b	8b f0		 mov	 esi, eax
  0001d	e8 00 00 00 00	 call	 ?GetDEFMultiplier@CMover@@QAEMPAUATTACK_INFO@@@Z ; CMover::GetDEFMultiplier

; 518  : #if __VER >= 9 && defined(__WORLDSERVER) // __EVENTLUA_ATKDEF
; 519  : 	if( IsPlayer() )

  00022	83 bb 30 02 00
	00 00		 cmp	 DWORD PTR [ebx+560], 0
  00029	66 0f 6e c6	 movd	 xmm0, esi
  0002d	0f 5b c0	 cvtdq2ps xmm0, xmm0
  00030	f3 0f 11 45 0c	 movss	 DWORD PTR tv137[ebp], xmm0
  00035	d8 4d 0c	 fmul	 DWORD PTR tv137[ebp]
  00038	d9 5d 0c	 fstp	 DWORD PTR tv135[ebp]
  0003b	f3 0f 2c 75 0c	 cvttss2si esi, DWORD PTR tv135[ebp]
  00040	74 15		 je	 SHORT $LN4@CalcDefens

; 520  : 		nDefense += prj.m_EventLua.GetDefensePower();

  00042	6a 01		 push	 1
  00044	b9 bc 96 0d 00	 mov	 ecx, OFFSET ?prj@@3VCProject@@A+890556
  00049	e8 00 00 00 00	 call	 ?GetDefensePower@CEventLua@@QAEHH@Z ; CEventLua::GetDefensePower
  0004e	5f		 pop	 edi
  0004f	03 c6		 add	 eax, esi

; 523  : }

  00051	5e		 pop	 esi
  00052	5b		 pop	 ebx
  00053	5d		 pop	 ebp
  00054	c2 08 00	 ret	 8
$LN4@CalcDefens:
  00057	5f		 pop	 edi

; 521  : #endif // __EVENTLUA_ATKDEF
; 522  : 	return nDefense;

  00058	8b c6		 mov	 eax, esi

; 523  : }

  0005a	5e		 pop	 esi
  0005b	5b		 pop	 ebx
  0005c	5d		 pop	 ebp
  0005d	c2 08 00	 ret	 8
?CalcDefense@CMover@@QAEHPAUATTACK_INFO@@H@Z ENDP	; CMover::CalcDefense
_TEXT	ENDS
; Function compile flags: /Ogtp
; File C:\IAGOS\server\v18\Source\Source\_Common\MoverAttack.cpp
;	COMDAT ?GetJobPropFactor@CMover@@QAEMW4JOB_PROP_TYPE@@@Z
_TEXT	SEGMENT
_type$ = 8						; size = 4
?GetJobPropFactor@CMover@@QAEMW4JOB_PROP_TYPE@@@Z PROC	; CMover::GetJobPropFactor, COMDAT
; _this$ = ecx

; 336  : {

  00000	55		 push	 ebp
  00001	8b ec		 mov	 ebp, esp

; 337  : 	if( IsPlayer() == FALSE )

  00003	83 b9 30 02 00
	00 00		 cmp	 DWORD PTR [ecx+560], 0
  0000a	74 5e		 je	 SHORT $LN14@GetJobProp

; 338  : 		return 1.0f;
; 339  : 
; 340  : 	JobProp* pProperty = prj.GetJobProp( GetJob() ); 

  0000c	e8 00 00 00 00	 call	 ?GetJob@CMover@@QAEHXZ	; CMover::GetJob
  00011	50		 push	 eax
  00012	b9 00 00 00 00	 mov	 ecx, OFFSET ?prj@@3VCProject@@A ; prj
  00017	e8 00 00 00 00	 call	 ?GetJobProp@CProject@@QAEPAUJobProp@@H@Z ; CProject::GetJobProp

; 341  : 	ASSERT( pProperty );
; 342  : 
; 343  : 	switch( type )

  0001c	8b 4d 08	 mov	 ecx, DWORD PTR _type$[ebp]
  0001f	83 f9 08	 cmp	 ecx, 8
  00022	77 46		 ja	 SHORT $LN14@GetJobProp
  00024	ff 24 8d 00 00
	00 00		 jmp	 DWORD PTR $LN17@GetJobProp[ecx*4]
$LN5@GetJobProp:

; 344  : 	{
; 345  : 	case JOB_PROP_SWD:
; 346  : 		return pProperty->fMeleeSWD;

  0002b	d9 40 20	 fld	 DWORD PTR [eax+32]

; 367  : 	}
; 368  : }

  0002e	5d		 pop	 ebp
  0002f	c2 04 00	 ret	 4
$LN6@GetJobProp:

; 347  : 	case JOB_PROP_AXE:	
; 348  : 		return pProperty->fMeleeAXE;

  00032	d9 40 24	 fld	 DWORD PTR [eax+36]

; 367  : 	}
; 368  : }

  00035	5d		 pop	 ebp
  00036	c2 04 00	 ret	 4
$LN7@GetJobProp:

; 349  : 	case JOB_PROP_STAFF:
; 350  : 		return pProperty->fMeleeSTAFF;

  00039	d9 40 28	 fld	 DWORD PTR [eax+40]

; 367  : 	}
; 368  : }

  0003c	5d		 pop	 ebp
  0003d	c2 04 00	 ret	 4
$LN8@GetJobProp:

; 351  : 	case JOB_PROP_STICK:
; 352  : 		return pProperty->fMeleeSTICK;

  00040	d9 40 2c	 fld	 DWORD PTR [eax+44]

; 367  : 	}
; 368  : }

  00043	5d		 pop	 ebp
  00044	c2 04 00	 ret	 4
$LN9@GetJobProp:

; 353  : 	case JOB_PROP_KNUCKLE:
; 354  : 		return pProperty->fMeleeKNUCKLE;

  00047	d9 40 30	 fld	 DWORD PTR [eax+48]

; 367  : 	}
; 368  : }

  0004a	5d		 pop	 ebp
  0004b	c2 04 00	 ret	 4
$LN10@GetJobProp:

; 355  : 	case JOB_PROP_WAND:
; 356  : 		return pProperty->fMagicWAND;

  0004e	d9 40 34	 fld	 DWORD PTR [eax+52]

; 367  : 	}
; 368  : }

  00051	5d		 pop	 ebp
  00052	c2 04 00	 ret	 4
$LN11@GetJobProp:

; 357  : 	case JOB_PROP_YOYO:
; 358  : 		return pProperty->fMeleeYOYO;

  00055	d9 40 3c	 fld	 DWORD PTR [eax+60]

; 367  : 	}
; 368  : }

  00058	5d		 pop	 ebp
  00059	c2 04 00	 ret	 4
$LN12@GetJobProp:

; 359  : 	case JOB_PROP_BLOCKING:
; 360  : 		return pProperty->fBlocking;

  0005c	d9 40 38	 fld	 DWORD PTR [eax+56]

; 367  : 	}
; 368  : }

  0005f	5d		 pop	 ebp
  00060	c2 04 00	 ret	 4
$LN13@GetJobProp:

; 361  : 	case JOB_PROP_CRITICAL:
; 362  : 		return pProperty->fCritical;	

  00063	d9 40 40	 fld	 DWORD PTR [eax+64]

; 367  : 	}
; 368  : }

  00066	5d		 pop	 ebp
  00067	c2 04 00	 ret	 4
$LN14@GetJobProp:

; 363  : 	// TODO łŞ¸ÓÁö 
; 364  : 	default:
; 365  : 		ASSERT( 0 );
; 366  : 		return 1.0f;

  0006a	d9 e8		 fld1

; 367  : 	}
; 368  : }

  0006c	5d		 pop	 ebp
  0006d	c2 04 00	 ret	 4
$LN17@GetJobProp:
  00070	00 00 00 00	 DD	 $LN5@GetJobProp
  00074	00 00 00 00	 DD	 $LN6@GetJobProp
  00078	00 00 00 00	 DD	 $LN7@GetJobProp
  0007c	00 00 00 00	 DD	 $LN8@GetJobProp
  00080	00 00 00 00	 DD	 $LN9@GetJobProp
  00084	00 00 00 00	 DD	 $LN10@GetJobProp
  00088	00 00 00 00	 DD	 $LN12@GetJobProp
  0008c	00 00 00 00	 DD	 $LN11@GetJobProp
  00090	00 00 00 00	 DD	 $LN13@GetJobProp
?GetJobPropFactor@CMover@@QAEMW4JOB_PROP_TYPE@@@Z ENDP	; CMover::GetJobPropFactor
_TEXT	ENDS
; Function compile flags: /Ogtp
; File C:\IAGOS\server\v18\Source\Source\_Common\MoverAttack.cpp
; File C:\IAGOS\server\v18\Source\Source\_Common\Mover.h
; File C:\IAGOS\server\v18\Source\Source\_Common\MoverAttack.cpp
; File C:\IAGOS\server\v18\Source\Source\_Common\Mover.h
; File C:\IAGOS\server\v18\Source\Source\_Common\MoverAttack.cpp
; File C:\IAGOS\server\v18\Source\Source\_Common\World.h
; File C:\IAGOS\server\v18\Source\Source\_Common\MoverAttack.cpp
; File C:\IAGOS\server\v18\Source\Source\_Common\Mover.h
; File C:\IAGOS\server\v18\Source\Source\_Common\MoverAttack.cpp
; File C:\IAGOS\server\v18\Source\Source\_Common\Mover.h
; File C:\IAGOS\server\v18\Source\Source\_Common\MoverAttack.cpp
;	COMDAT ?OnAttacked@CMover@@QAEXPAV1@HHH@Z
_TEXT	SEGMENT
_pAttacker$ = 8						; size = 4
_nDamage$ = 12						; size = 4
_bTarget$ = 16						; size = 4
_nReflect$ = 20						; size = 4
?OnAttacked@CMover@@QAEXPAV1@HHH@Z PROC			; CMover::OnAttacked, COMDAT
; _this$ = ecx

; 1669 : {

  00000	55		 push	 ebp
  00001	8b ec		 mov	 ebp, esp
  00003	53		 push	 ebx

; 1670 : 	CMover* pDefender = this;
; 1671 : 	if( pDefender == pAttacker )

  00004	8b 5d 08	 mov	 ebx, DWORD PTR _pAttacker$[ebp]
  00007	57		 push	 edi
  00008	8b f9		 mov	 edi, ecx
  0000a	3b fb		 cmp	 edi, ebx
  0000c	0f 84 09 01 00
	00		 je	 $LN1@OnAttacked

; 1672 : 	{
; 1673 : //		ASSERT( FALSE );	// ŔĎ´Ü Çö ±âČążˇĽ­ ŔÚ˝ĹŔ» °ř°ÝÇĎ´Â °ćżě´Â ľř´Ů. 
; 1674 : 		return;
; 1675 : 	}
; 1676 : 
; 1677 : 	BOOL bAddEnemy = TRUE;
; 1678 : 	DWORD dwLast = 0;
; 1679 : 
; 1680 : 	HITTYPE type = pAttacker->GetHitType( pDefender, bTarget, nReflect );

  00012	56		 push	 esi
  00013	ff 75 14	 push	 DWORD PTR _nReflect$[ebp]
  00016	8b cb		 mov	 ecx, ebx
  00018	ff 75 10	 push	 DWORD PTR _bTarget$[ebp]
  0001b	57		 push	 edi
  0001c	e8 00 00 00 00	 call	 ?GetHitType@CMover@@QAE?AW4HITTYPE@@PAV1@HH@Z ; CMover::GetHitType
  00021	8b f0		 mov	 esi, eax

; 1681 : 	if( type == HITTYPE_PVP || type == HITTYPE_WAR || type == HITTYPE_SCHOOL
; 1682 : #ifdef __JEFF_11_4
; 1683 : 		|| type == HITTYPE_ARENA

  00023	83 fe 02	 cmp	 esi, 2
  00026	74 2e		 je	 SHORT $LN31@OnAttacked
  00028	83 fe 03	 cmp	 esi, 3
  0002b	74 29		 je	 SHORT $LN31@OnAttacked
  0002d	83 fe 04	 cmp	 esi, 4
  00030	74 24		 je	 SHORT $LN31@OnAttacked
  00032	83 fe 07	 cmp	 esi, 7
  00035	74 1f		 je	 SHORT $LN31@OnAttacked

; 1684 : #endif	// __JEFF_11_4
; 1685 : 		)
; 1686 : 		bAddEnemy = FALSE;
; 1687 : 	
; 1688 : 	if( bAddEnemy )		// TODO_raiders: HITTYPE_PKżÍ HITTYPE_GENERICŔÎ °ćżě·Î ĽöÁ¤ÇŘľß ÇÔ  
; 1689 : 	{
; 1690 : 		dwLast = pDefender->AddEnemy( pAttacker->GetId(), nDamage );

  00037	ff 75 0c	 push	 DWORD PTR _nDamage$[ebp]
  0003a	8b cf		 mov	 ecx, edi
  0003c	ff b3 bc 01 00
	00		 push	 DWORD PTR [ebx+444]
  00042	e8 00 00 00 00	 call	 ?AddEnemy@CMover@@QAEKKH@Z ; CMover::AddEnemy

; 1691 : 		pAttacker->AddEnemy( pDefender->GetId(), 0 );

  00047	6a 00		 push	 0
  00049	ff b7 bc 01 00
	00		 push	 DWORD PTR [edi+444]
  0004f	8b cb		 mov	 ecx, ebx
  00051	e8 00 00 00 00	 call	 ?AddEnemy@CMover@@QAEKKH@Z ; CMover::AddEnemy
$LN31@OnAttacked:

; 1692 : 	}
; 1693 : 
; 1694 : 	switch( type )

  00056	83 ee 02	 sub	 esi, 2
  00059	74 6a		 je	 SHORT $LN15@OnAttacked
  0005b	83 ee 03	 sub	 esi, 3
  0005e	75 6e		 jne	 SHORT $LN2@OnAttacked

; 1695 : 	{
; 1696 : 	case HITTYPE_PK:
; 1697 : 		{
; 1698 : #if __VER >= 8 // __S8_PK
; 1699 : 			if( nReflect )

  00060	39 75 14	 cmp	 DWORD PTR _nReflect$[ebp], esi
  00063	75 69		 jne	 SHORT $LN2@OnAttacked
; File C:\IAGOS\server\v18\Source\Source\_Common\Mover.h

; 1257 : 	BOOL			IsChaotic( void ) { return m_dwPKPropensity > 0; }	/// Ä«żŔŔÎÁö

  00065	39 b3 58 07 00
	00		 cmp	 DWORD PTR [ebx+1880], esi
; File C:\IAGOS\server\v18\Source\Source\_Common\MoverAttack.cpp

; 1702 : 			if( pAttacker->IsChaotic() || pDefender->IsChaotic() )

  0006b	77 61		 ja	 SHORT $LN2@OnAttacked
; File C:\IAGOS\server\v18\Source\Source\_Common\Mover.h

; 1257 : 	BOOL			IsChaotic( void ) { return m_dwPKPropensity > 0; }	/// Ä«żŔŔÎÁö

  0006d	39 b7 58 07 00
	00		 cmp	 DWORD PTR [edi+1880], esi
; File C:\IAGOS\server\v18\Source\Source\_Common\MoverAttack.cpp

; 1702 : 			if( pAttacker->IsChaotic() || pDefender->IsChaotic() )

  00073	77 59		 ja	 SHORT $LN2@OnAttacked

; 1703 : 				break;
; 1704 : 
; 1705 : #ifdef __JEFF_11_4
; 1706 : 			CWorld* pWorld	= pDefender->GetWorld();

  00075	8b 87 6c 01 00
	00		 mov	 eax, DWORD PTR [edi+364]

; 1707 : 			if( pWorld && pWorld->IsArena() )

  0007b	85 c0		 test	 eax, eax
  0007d	74 08		 je	 SHORT $LN12@OnAttacked
; File C:\IAGOS\server\v18\Source\Source\_Common\World.h

; 415  : 		{	return( m_dwWorldID == WI_WORLD_ARENA );	}

  0007f	81 38 d0 00 00
	00		 cmp	 DWORD PTR [eax], 208	; 000000d0H
; File C:\IAGOS\server\v18\Source\Source\_Common\MoverAttack.cpp

; 1707 : 			if( pWorld && pWorld->IsArena() )

  00085	74 47		 je	 SHORT $LN2@OnAttacked
$LN12@OnAttacked:
; File C:\IAGOS\server\v18\Source\Source\_Common\Mover.h

; 1256 : 	BOOL			IsPKPink( void )	{ return m_dwPKTime > 0; }			/// PK ÇÎĹ© ¸đµĺŔÎÁö

  00087	83 bf 50 07 00
	00 00		 cmp	 DWORD PTR [edi+1872], 0
; File C:\IAGOS\server\v18\Source\Source\_Common\MoverAttack.cpp

; 1711 : 			if( pDefender->IsPKPink() )

  0008e	76 0c		 jbe	 SHORT $LN13@OnAttacked

; 1712 : 				pAttacker->SetPKPink( GetTickCount() + SEC(prj.m_PKSetting.nReadyAttack) );

  00090	69 35 7c 4b 0b
	00 e8 03 00 00	 imul	 esi, DWORD PTR ?prj@@3VCProject@@A+740220, 1000
  0009a	eb 0a		 jmp	 SHORT $LN49@OnAttacked
$LN13@OnAttacked:

; 1713 : 			else
; 1714 : 				pAttacker->SetPKPink( GetTickCount() + SEC(prj.m_PKSetting.nGeneralAttack) );

  0009c	69 35 78 4b 0b
	00 e8 03 00 00	 imul	 esi, DWORD PTR ?prj@@3VCProject@@A+740216, 1000
$LN49@OnAttacked:

; 1715 : 			g_UserMng.AddPKPink( pAttacker, 1 );

  000a6	ff 15 00 00 00
	00		 call	 DWORD PTR __imp__GetTickCount@0
  000ac	03 c6		 add	 eax, esi
  000ae	8b cb		 mov	 ecx, ebx
  000b0	50		 push	 eax
  000b1	e8 00 00 00 00	 call	 ?SetPKPink@CMover@@QAEXK@Z ; CMover::SetPKPink
  000b6	6a 01		 push	 1
  000b8	53		 push	 ebx
  000b9	b9 00 00 00 00	 mov	 ecx, OFFSET ?g_UserMng@@3VCUserMng@@A ; g_UserMng
  000be	e8 00 00 00 00	 call	 ?AddPKPink@CUserMng@@QAEXPAVCMover@@E@Z ; CUserMng::AddPKPink

; 1716 : #else // __VER >= 8 // __S8_PK
; 1717 : 			// PKĽĽĽÇŔ» ˝ĂŔŰÇĎ±â Ŕ§ÇŘĽ­ ÇĂ·ąŔĚľî°ŁŔÇ Ŕű´ë°ü°č ˝ĂŔŰŔ» ş¸ł˝´Ů.
; 1718 : 			((CUser*)pAttacker)->UpdatePlayerEnemy( ADD_PLAYER_ENEMY, pDefender->GetId() );
; 1719 : 			((CUser*)pDefender)->UpdatePlayerEnemy( ADD_PLAYER_ENEMY, pAttacker->GetId() );
; 1720 : 			// Ăą PK˝ĂµµŔĚ¸é ˝˝·ÎĹÍ Ć÷ŔÎĆ®¸¦ °¨ĽŇÇŃ´Ů. 
; 1721 : 			if( dwLast == 0 || (GetTickCount() - dwLast) > MIN(1) )		//ĂąĹ¸ or ĽĽĽÇŔĚ 1şĐŔ» Áöłµ´Â°ˇ?
; 1722 : 			{
; 1723 : 				pAttacker->ChangeSlaughter( CHANGE_SLAUGHTER_ATTACK, pDefender );
; 1724 : 			}
; 1725 : #endif // __VER >= 8 // __S8_PK
; 1726 : 		}
; 1727 : 		break;

  000c3	eb 09		 jmp	 SHORT $LN2@OnAttacked
$LN15@OnAttacked:

; 1728 : 	case HITTYPE_PVP:
; 1729 : 		pAttacker->ReSetDuelTime( pAttacker, pDefender );

  000c5	57		 push	 edi
  000c6	53		 push	 ebx
  000c7	8b cb		 mov	 ecx, ebx
  000c9	e8 00 00 00 00	 call	 ?ReSetDuelTime@CMover@@QAEXPAV1@0@Z ; CMover::ReSetDuelTime
$LN2@OnAttacked:

; 1733 : 	if( pAttacker->IsPlayer() && pDefender->IsNPC() )		

  000ce	83 bb 30 02 00
	00 00		 cmp	 DWORD PTR [ebx+560], 0
  000d5	5e		 pop	 esi
  000d6	74 37		 je	 SHORT $LN16@OnAttacked
; File C:\IAGOS\server\v18\Source\Source\_Common\Mover.h

; 1015 : 	BOOL			IsNPC()				{ return !m_bPlayer; }

  000d8	83 bf 30 02 00
	00 00		 cmp	 DWORD PTR [edi+560], 0
; File C:\IAGOS\server\v18\Source\Source\_Common\MoverAttack.cpp

; 1733 : 	if( pAttacker->IsPlayer() && pDefender->IsNPC() )		

  000df	75 2e		 jne	 SHORT $LN16@OnAttacked

; 1734 : 	{
; 1735 : 		if( pDefender->m_idAttacker != NULL_ID )			// ´©±ş°ˇ°ˇ ÇŃąř ÄŁ°Ç°ˇ?

  000e1	83 bf 94 06 00
	00 ff		 cmp	 DWORD PTR [edi+1684], -1
  000e8	74 11		 je	 SHORT $LN17@OnAttacked

; 1736 : 		{
; 1737 : 			if( nDamage > 0 )

  000ea	83 7d 0c 00	 cmp	 DWORD PTR _nDamage$[ebp], 0
  000ee	7e 13		 jle	 SHORT $LN18@OnAttacked

; 1738 : 				ChangeExpRatio( pAttacker, pDefender );		 

  000f0	57		 push	 edi
  000f1	53		 push	 ebx
  000f2	8b cf		 mov	 ecx, edi
  000f4	e8 00 00 00 00	 call	 ?ChangeExpRatio@CMover@@QAEXPAV1@0@Z ; CMover::ChangeExpRatio

; 1739 : 		}

  000f9	eb 08		 jmp	 SHORT $LN18@OnAttacked
$LN17@OnAttacked:

; 1740 : 		else
; 1741 : 		{
; 1742 : 			((CUser *)pAttacker)->AddCorrReq( pDefender );	// °ř°ÝŔÚŔŻŔúżˇ°Ô ¸÷ ÁÂÇĄÇŃąř ş¸Á¤.

  000fb	57		 push	 edi
  000fc	8b cb		 mov	 ecx, ebx
  000fe	e8 00 00 00 00	 call	 ?AddCorrReq@CUser@@QAEXPAVCMover@@@Z ; CUser::AddCorrReq
$LN18@OnAttacked:

; 1743 : 		}
; 1744 : 		pDefender->m_idAttacker = pAttacker->GetId();		// ÇÇ°ÝŔÚ´Â °ř°ÝŔÚ¸¦ ±âľď 

  00103	8b 83 bc 01 00
	00		 mov	 eax, DWORD PTR [ebx+444]
  00109	89 87 94 06 00
	00		 mov	 DWORD PTR [edi+1684], eax
$LN16@OnAttacked:

; 1745 : 	}
; 1746 : 	pAttacker->m_idLastHitMover = pDefender->GetId();		// PK˝Ă ľĆŔĚĹŰ ±Ç¸®Ăł¸®¸¦ Ŕ§ÇŘĽ­ ±âľďÇŘµŇ ( NPPżˇĽ­ »çżëÇĎÁö ľĘŔ˝ )

  0010f	8b 87 bc 01 00
	00		 mov	 eax, DWORD PTR [edi+444]
  00115	89 83 a0 06 00
	00		 mov	 DWORD PTR [ebx+1696], eax
$LN1@OnAttacked:

; 1747 : }

  0011b	5f		 pop	 edi
  0011c	5b		 pop	 ebx
  0011d	5d		 pop	 ebp
  0011e	c2 10 00	 ret	 16			; 00000010H
?OnAttacked@CMover@@QAEXPAV1@HHH@Z ENDP			; CMover::OnAttacked
_TEXT	ENDS
; Function compile flags: /Ogtp
; File C:\IAGOS\server\v18\Source\Source\_Common\MoverAttack.cpp
; File C:\IAGOS\server\v18\Source\Source\_Common\Obj.h
; File C:\IAGOS\server\v18\Source\Source\_Common\MoverAttack.cpp
; File C:\IAGOS\server\v18\Source\Source\_Common\Mover.h
; File C:\IAGOS\server\v18\Source\Source\_Common\Project.h
; File C:\IAGOS\server\v18\Source\Source\_Common\MoverAttack.cpp
;	COMDAT ?ChangeExpRatio@CMover@@QAEXPAV1@0@Z
_TEXT	SEGMENT
_pAttacker$ = 8						; size = 4
_pDefender$ = 12					; size = 4
tv250 = 12						; size = 4
?ChangeExpRatio@CMover@@QAEXPAV1@0@Z PROC		; CMover::ChangeExpRatio, COMDAT
; _this$ = ecx

; 1647 : {

  00000	55		 push	 ebp
  00001	8b ec		 mov	 ebp, esp
  00003	53		 push	 ebx

; 1648 : 	BOOL bDiffer = FALSE;
; 1649 : 	if( pDefender->m_idAttacker != pAttacker->GetId() )	// °ř°ÝŔÚ°ˇ şŻ°ćµÇ¸é?

  00004	8b 5d 08	 mov	 ebx, DWORD PTR _pAttacker$[ebp]
  00007	56		 push	 esi
  00008	57		 push	 edi
  00009	8b 7d 0c	 mov	 edi, DWORD PTR _pDefender$[ebp]
  0000c	33 f6		 xor	 esi, esi
  0000e	8b 87 94 06 00
	00		 mov	 eax, DWORD PTR [edi+1684]
  00014	3b 83 bc 01 00
	00		 cmp	 eax, DWORD PTR [ebx+444]
  0001a	0f 84 aa 00 00
	00		 je	 $LN7@ChangeExpR

; 1650 : 	{
; 1651 : 		if( pAttacker->m_idparty )	// łŻ ÄŁłđŔĚ ĆÄĆĽ°ˇ ŔÖ´Â°ˇ.

  00020	39 b3 10 07 00
	00		 cmp	 DWORD PTR [ebx+1808], esi
  00026	74 2d		 je	 SHORT $LN26@ChangeExpR

; 1652 : 		{
; 1653 : 			CMover *pLastAttacker = prj.GetMover( pDefender->m_idAttacker );

  00028	50		 push	 eax
  00029	b9 00 00 00 00	 mov	 ecx, OFFSET ?prj@@3VCProject@@A ; prj
  0002e	e8 00 00 00 00	 call	 ?GetMover@CProject@@QAEPAVCMover@@K@Z ; CProject::GetMover
; File C:\IAGOS\server\v18\Source\Source\_Common\Obj.h

; 327  : 	return pObj && ( pObj->IsDelete() == FALSE ); 

  00033	85 c0		 test	 eax, eax
  00035	74 1a		 je	 SHORT $LN5@ChangeExpR

; 180  : 	BOOL			IsDelete()	{ return (m_dwFlags & OBJ_FLAG_DELETE);  }

  00037	f6 40 04 01	 test	 BYTE PTR [eax+4], 1

; 327  : 	return pObj && ( pObj->IsDelete() == FALSE ); 

  0003b	75 14		 jne	 SHORT $LN5@ChangeExpR
; File C:\IAGOS\server\v18\Source\Source\_Common\MoverAttack.cpp

; 1654 : 			if( IsValidObj( (CObj*)pLastAttacker ) && pLastAttacker->m_idparty != pAttacker->m_idparty )	// ´Ů¸ĄĆÄĆĽ°ˇ ĂĆŔ¸¸é Áö±Ţ·ü ąŮ˛Ţ.

  0003d	8b 80 10 07 00
	00		 mov	 eax, DWORD PTR [eax+1808]
  00043	b9 01 00 00 00	 mov	 ecx, 1
  00048	3b 83 10 07 00
	00		 cmp	 eax, DWORD PTR [ebx+1808]
  0004e	0f 45 f1	 cmovne	 esi, ecx
$LN5@ChangeExpR:

; 1655 : 				bDiffer = TRUE;
; 1656 : 		} else
; 1657 : 			bDiffer = TRUE;			// łŻ ¸¶Áö¸·Ŕ¸·Î ĂĆ´řłđŔĚ ĆÄĆĽ°ˇ ľřŔ¸¸é Áö±Ţ·ü ąŮ˛Ţ.
; 1658 : 	}
; 1659 : 	
; 1660 : 	if( bDiffer )	// ´Ů¸Ą »ó´ë(ĆÄĆĽµµ ´Ů¸Ą)°ˇ ĂĆŔ¸¸é Áö±Ţ·üŔ» şŻ°ć 

  00051	85 f6		 test	 esi, esi
  00053	74 75		 je	 SHORT $LN7@ChangeExpR
$LN26@ChangeExpR:
; File C:\IAGOS\server\v18\Source\Source\_Common\Mover.h

; 1020 : 	MoverProp*		GetProp() { return prj.GetMoverProp( m_dwIndex ); }	// °´ĂĽŔÇ ÇÁ·ÎĆŰĆĽ ľň±â 	

  00055	8b 87 74 01 00
	00		 mov	 eax, DWORD PTR [edi+372]
; File C:\IAGOS\server\v18\Source\Source\_Common\Project.h

; 1406 : 	VERIFY_RANGE( nIndex, 0, m_nMoverPropSize, "GetMoverProp range_error", NULL );

  0005b	8b 0d b4 01 00
	00		 mov	 ecx, DWORD PTR ?prj@@3VCProject@@A+436
  00061	85 c0		 test	 eax, eax
  00063	78 12		 js	 SHORT $LN22@ChangeExpR
  00065	3b c1		 cmp	 eax, ecx
  00067	7d 0e		 jge	 SHORT $LN22@ChangeExpR

; 1407 : 	return m_pPropMover + nIndex;

  00069	69 c0 90 06 00
	00		 imul	 eax, eax, 1680
  0006f	03 05 b8 01 00
	00		 add	 eax, DWORD PTR ?prj@@3VCProject@@A+440
  00075	eb 18		 jmp	 SHORT $LN17@ChangeExpR
$LN22@ChangeExpR:

; 579  : 	LPCTSTR szErr = Error( _T( "%s min:%d, max:%d, index:%d" ), szMsg, nMin, nMax, nIndex ); 

  00077	50		 push	 eax
  00078	51		 push	 ecx
  00079	6a 00		 push	 0
  0007b	68 00 00 00 00	 push	 OFFSET ??_C@_0BJ@GKPOBPPI@GetMoverProp?5range_error@
  00080	68 00 00 00 00	 push	 OFFSET ??_C@_0BM@HMFGHCP@?$CFs?5min?3?$CFd?0?5max?3?$CFd?0?5index?3?$CFd@
  00085	e8 00 00 00 00	 call	 ?Error@@YAPBDPBDZZ	; Error
  0008a	83 c4 14	 add	 esp, 20			; 00000014H

; 1406 : 	VERIFY_RANGE( nIndex, 0, m_nMoverPropSize, "GetMoverProp range_error", NULL );

  0008d	33 c0		 xor	 eax, eax
$LN17@ChangeExpR:
; File C:\IAGOS\server\v18\Source\Source\_Common\MoverAttack.cpp

; 1662 : 		if( pDefender->GetProp()->dwClass != RANK_SUPER )		// ş¸˝ş¸÷ŔĎ°ćżě ŔĚ ŔűżëŔ» ąŢÁö ľĘŔ˝.

  0008f	83 b8 94 00 00
	00 07		 cmp	 DWORD PTR [eax+148], 7
  00096	74 32		 je	 SHORT $LN7@ChangeExpR

; 1663 : 			pDefender->m_fExpRatio = (float)pDefender->GetHitPoint() / pDefender->GetMaxHitPoint();

  00098	8b cf		 mov	 ecx, edi
  0009a	e8 00 00 00 00	 call	 ?GetHitPoint@CMover@@QAEHXZ ; CMover::GetHitPoint
  0009f	8b cf		 mov	 ecx, edi
  000a1	66 0f 6e c0	 movd	 xmm0, eax
  000a5	0f 5b c0	 cvtdq2ps xmm0, xmm0
  000a8	f3 0f 11 45 0c	 movss	 DWORD PTR tv250[ebp], xmm0
  000ad	e8 00 00 00 00	 call	 ?GetMaxHitPoint@CMover@@QAEHXZ ; CMover::GetMaxHitPoint
  000b2	f3 0f 10 4d 0c	 movss	 xmm1, DWORD PTR tv250[ebp]
  000b7	66 0f 6e c0	 movd	 xmm0, eax
  000bb	0f 5b c0	 cvtdq2ps xmm0, xmm0
  000be	f3 0f 5e c8	 divss	 xmm1, xmm0
  000c2	f3 0f 11 8f a4
	06 00 00	 movss	 DWORD PTR [edi+1700], xmm1
$LN7@ChangeExpR:

; 1664 : 	}
; 1665 : }

  000ca	5f		 pop	 edi
  000cb	5e		 pop	 esi
  000cc	5b		 pop	 ebx
  000cd	5d		 pop	 ebp
  000ce	c2 08 00	 ret	 8
?ChangeExpRatio@CMover@@QAEXPAV1@0@Z ENDP		; CMover::ChangeExpRatio
_TEXT	ENDS
; Function compile flags: /Ogtp
; File C:\IAGOS\server\v18\Source\Source\_Common\MoverAttack.cpp
; File C:\IAGOS\server\v18\Source\Source\_Common\Item.h
; File C:\IAGOS\server\v18\Source\Source\_Common\MoverAttack.cpp
; File C:\IAGOS\server\v18\Source\Source\_Common\Item.h
; File C:\IAGOS\server\v18\Source\Source\_Common\Project.h
; File C:\IAGOS\server\v18\Source\Source\_Common\data.h
; File C:\IAGOS\server\v18\Source\Source\_Common\Project.h
; File C:\IAGOS\server\v18\Source\Source\_Common\MoverAttack.cpp
;	COMDAT ?GetItemMultiplier@CMover@@QAEMPAVCItemElem@@@Z
_TEXT	SEGMENT
_pItemElem$ = 8						; size = 4
_fValue$ = 8						; size = 4
?GetItemMultiplier@CMover@@QAEMPAVCItemElem@@@Z PROC	; CMover::GetItemMultiplier, COMDAT
; _this$ = ecx

; 2061 : {

  00000	55		 push	 ebp
  00001	8b ec		 mov	 ebp, esp
  00003	56		 push	 esi
; File C:\IAGOS\server\v18\Source\Source\_Common\Item.h

; 257  : 	BOOL	IsFlag( BYTE byFlag )	{	return ( m_byFlag & byFlag ) ? TRUE: FALSE;		}

  00004	8b 75 08	 mov	 esi, DWORD PTR _pItemElem$[ebp]
  00007	f6 46 76 01	 test	 BYTE PTR [esi+118], 1
; File C:\IAGOS\server\v18\Source\Source\_Common\MoverAttack.cpp

; 2067 : 	if( pItemElem->IsFlag( CItemElem::expired ) )

  0000b	74 07		 je	 SHORT $LN2@GetItemMul

; 2068 : 		return 0.0f;

  0000d	d9 ee		 fldz
  0000f	5e		 pop	 esi

; 2091 : }

  00010	5d		 pop	 ebp
  00011	c2 04 00	 ret	 4
$LN2@GetItemMul:
; File C:\IAGOS\server\v18\Source\Source\_Common\Item.h

; 230  : 	ItemProp*	GetProp()	{	return prj.GetItemProp( m_dwItemId );	}

  00014	8b 4e 0c	 mov	 ecx, DWORD PTR [esi+12]
; File C:\IAGOS\server\v18\Source\Source\_Common\Project.h

; 1389 : 	VERIFY_RANGE_ASSERT( nIndex, 0, m_aPropItem.GetSize(), "GetItemProp range_error", NULL );

  00017	a1 40 02 00 00	 mov	 eax, DWORD PTR ?prj@@3VCProject@@A+576
  0001c	85 c9		 test	 ecx, ecx
  0001e	78 10		 js	 SHORT $LN15@GetItemMul
  00020	3b c8		 cmp	 ecx, eax
  00022	7d 0c		 jge	 SHORT $LN15@GetItemMul
; File C:\IAGOS\server\v18\Source\Source\_Common\data.h

; 270  : 	if( dwIndex >= (DWORD)m_nMaxIndex )

  00024	73 20		 jae	 SHORT $LN28@GetItemMul

; 271  : 		return NULL;
; 272  : 	return (T*) m_apOffset[ dwIndex ];

  00026	a1 30 02 00 00	 mov	 eax, DWORD PTR ?prj@@3VCProject@@A+560
  0002b	8b 04 88	 mov	 eax, DWORD PTR [eax+ecx*4]
; File C:\IAGOS\server\v18\Source\Source\_Common\Project.h

; 1390 : 	return m_aPropItem.GetAt( nIndex ); 

  0002e	eb 18		 jmp	 SHORT $LN10@GetItemMul
$LN15@GetItemMul:

; 579  : 	LPCTSTR szErr = Error( _T( "%s min:%d, max:%d, index:%d" ), szMsg, nMin, nMax, nIndex ); 

  00030	51		 push	 ecx
  00031	50		 push	 eax
  00032	6a 00		 push	 0
  00034	68 00 00 00 00	 push	 OFFSET ??_C@_0BI@BEIFNGEL@GetItemProp?5range_error@
  00039	68 00 00 00 00	 push	 OFFSET ??_C@_0BM@HMFGHCP@?$CFs?5min?3?$CFd?0?5max?3?$CFd?0?5index?3?$CFd@
  0003e	e8 00 00 00 00	 call	 ?Error@@YAPBDPBDZZ	; Error
  00043	83 c4 14	 add	 esp, 20			; 00000014H
$LN28@GetItemMul:
; File C:\IAGOS\server\v18\Source\Source\_Common\MoverAttack.cpp

; 2074 : 	float fValue = 1.0f;

  00046	33 c0		 xor	 eax, eax
$LN10@GetItemMul:

; 2075 : #else // __REMOVE_ENDURANCE
; 2076 : 	float fValue = CMover::GetItemEnduranceInfluence( ( pItemElem->m_nHitPoint * 100 ) / pItemProp->dwEndurance );
; 2077 : #endif // __REMOVE_ENDURANCE
; 2078 : 	
; 2079 : 	// Ë¬ - 2007-08-27
; 2080 : 	int nOption		= pItemElem->GetAbilityOption();
; 2081 : 	if( pItemProp->dwReferStat1 == WEAPON_ULTIMATE )

  00048	83 b8 d0 01 00
	00 02		 cmp	 DWORD PTR [eax+464], 2
  0004f	8b 4e 64	 mov	 ecx, DWORD PTR [esi+100]
  00052	c7 45 08 00 00
	80 3f		 mov	 DWORD PTR _fValue$[ebp], 1065353216 ; 3f800000H
  00059	75 07		 jne	 SHORT $LN3@GetItemMul

; 2082 : 		nOption	= 10;

  0005b	b9 0a 00 00 00	 mov	 ecx, 10			; 0000000aH

; 2083 : 
; 2084 : 	if( nOption )

  00060	eb 04		 jmp	 SHORT $LN22@GetItemMul
$LN3@GetItemMul:
  00062	85 c9		 test	 ecx, ecx
  00064	74 25		 je	 SHORT $LN4@GetItemMul
$LN22@GetItemMul:

; 2085 : 	{
; 2086 : 		int nValue = prj.GetExpUpItem( pItemProp->dwItemKind3, nOption );

  00066	51		 push	 ecx
  00067	ff 70 78	 push	 DWORD PTR [eax+120]
  0006a	b9 00 00 00 00	 mov	 ecx, OFFSET ?prj@@3VCProject@@A ; prj
  0006f	e8 00 00 00 00	 call	 ?GetExpUpItem@CProject@@QAEHKH@Z ; CProject::GetExpUpItem

; 2087 : 		nValue += 100;

  00074	83 c0 64	 add	 eax, 100		; 00000064H
  00077	66 0f 6e c0	 movd	 xmm0, eax

; 2088 : 		fValue = fValue * nValue / 100.0f;		// Á¦·ĂĽöÄˇ°ˇ °öÇŘÁř´Ů.

  0007b	0f 5b c0	 cvtdq2ps xmm0, xmm0
  0007e	f3 0f 5e 05 00
	00 00 00	 divss	 xmm0, DWORD PTR __real@42c80000
  00086	f3 0f 11 45 08	 movss	 DWORD PTR _fValue$[ebp], xmm0
$LN4@GetItemMul:

; 2089 : 	}
; 2090 : 	return fValue;

  0008b	d9 45 08	 fld	 DWORD PTR _fValue$[ebp]
  0008e	5e		 pop	 esi

; 2091 : }

  0008f	5d		 pop	 ebp
  00090	c2 04 00	 ret	 4
?GetItemMultiplier@CMover@@QAEMPAVCItemElem@@@Z ENDP	; CMover::GetItemMultiplier
_TEXT	ENDS
; Function compile flags: /Ogtp
; File C:\IAGOS\server\v18\Source\Source\_Common\MoverAttack.cpp
;	COMDAT ?GetItemATKPower@CMover@@QAEXPAH0PAUItemProp@@PAVCItemElem@@@Z
_TEXT	SEGMENT
_f$1$ = -4						; size = 4
_pnMin$ = 8						; size = 4
_pnMax$ = 12						; size = 4
_pItemProp$ = 16					; size = 4
_pWeapon$ = 20						; size = 4
_f$ = 20						; size = 4
?GetItemATKPower@CMover@@QAEXPAH0PAUItemProp@@PAVCItemElem@@@Z PROC ; CMover::GetItemATKPower, COMDAT
; _this$ = ecx

; 2094 : {

  00000	55		 push	 ebp
  00001	8b ec		 mov	 ebp, esp
  00003	51		 push	 ecx

; 2095 : 	float f	= 1.0f;

  00004	f3 0f 10 05 00
	00 00 00	 movss	 xmm0, DWORD PTR __real@3f800000
  0000c	53		 push	 ebx
  0000d	56		 push	 esi

; 2096 : 	int nOption, nAdd;
; 2097 : 	nAdd = nOption = 0;
; 2098 : 
; 2099 : 	if( pWeapon )

  0000e	8b 75 14	 mov	 esi, DWORD PTR _pWeapon$[ebp]
  00011	33 db		 xor	 ebx, ebx
  00013	f3 0f 11 45 fc	 movss	 DWORD PTR _f$1$[ebp], xmm0
  00018	57		 push	 edi
  00019	8b f9		 mov	 edi, ecx
  0001b	85 f6		 test	 esi, esi
  0001d	74 37		 je	 SHORT $LN4@GetItemATK

; 2100 : 		nOption = pWeapon->GetAbilityOption();	// Á¦·ĂĽöÄˇ 

  0001f	8b 46 64	 mov	 eax, DWORD PTR [esi+100]

; 2101 : 
; 2102 : 	if( nOption > 0 )

  00022	85 c0		 test	 eax, eax
  00024	7e 1b		 jle	 SHORT $LN3@GetItemATK

; 2103 : 		nAdd = (int)( pow( (float)( nOption ), 1.5f ) );

  00026	f2 0f 10 0d 00
	00 00 00	 movsd	 xmm1, QWORD PTR __real@3ff8000000000000
  0002e	66 0f 6e c0	 movd	 xmm0, eax
  00032	0f 5b c0	 cvtdq2ps xmm0, xmm0
  00035	0f 5a c0	 cvtps2pd xmm0, xmm0
  00038	e8 00 00 00 00	 call	 __libm_sse2_pow_precise
  0003d	f2 0f 2c d8	 cvttsd2si ebx, xmm0
$LN3@GetItemATK:

; 2104 : 
; 2105 : 	if( pWeapon )
; 2106 : 	{
; 2107 : 		f = GetItemMultiplier( pWeapon );

  00041	56		 push	 esi
  00042	8b cf		 mov	 ecx, edi
  00044	e8 00 00 00 00	 call	 ?GetItemMultiplier@CMover@@QAEMPAVCItemElem@@@Z ; CMover::GetItemMultiplier
  00049	d9 5d 14	 fstp	 DWORD PTR _f$[ebp]
  0004c	f3 0f 10 45 14	 movss	 xmm0, DWORD PTR _f$[ebp]
  00051	f3 0f 11 45 fc	 movss	 DWORD PTR _f$1$[ebp], xmm0
$LN4@GetItemATK:

; 2108 : #if __VER < 11 // __REMOVE_ENDURANCE
; 2109 : 		if( pWeapon->m_nRepairNumber >= 100 )
; 2110 : 			nAdd += prj.GetExpUpItem( pItemProp->dwItemKind3, 1 );
; 2111 : #endif // __REMOVE_ENDURANCE
; 2112 : 	}
; 2113 : 	*pnMin	= (int)( GetItemAbilityMin( pItemProp->dwID ) * f ) + nAdd;

  00056	8b 75 10	 mov	 esi, DWORD PTR _pItemProp$[ebp]
  00059	8b cf		 mov	 ecx, edi
  0005b	ff 36		 push	 DWORD PTR [esi]
  0005d	e8 00 00 00 00	 call	 ?GetItemAbilityMin@CMover@@QAEHH@Z ; CMover::GetItemAbilityMin
  00062	66 0f 6e c0	 movd	 xmm0, eax
  00066	8b 45 08	 mov	 eax, DWORD PTR _pnMin$[ebp]
  00069	0f 5b c0	 cvtdq2ps xmm0, xmm0
  0006c	f3 0f 59 45 fc	 mulss	 xmm0, DWORD PTR _f$1$[ebp]
  00071	f3 0f 2c c8	 cvttss2si ecx, xmm0
  00075	03 cb		 add	 ecx, ebx
  00077	89 08		 mov	 DWORD PTR [eax], ecx

; 2114 : 	*pnMax	= (int) ( GetItemAbilityMax( pItemProp->dwID ) * f ) + nAdd;

  00079	8b cf		 mov	 ecx, edi
  0007b	ff 36		 push	 DWORD PTR [esi]
  0007d	e8 00 00 00 00	 call	 ?GetItemAbilityMax@CMover@@QAEHH@Z ; CMover::GetItemAbilityMax
  00082	5f		 pop	 edi
  00083	5e		 pop	 esi
  00084	66 0f 6e c0	 movd	 xmm0, eax
  00088	8b 45 0c	 mov	 eax, DWORD PTR _pnMax$[ebp]
  0008b	0f 5b c0	 cvtdq2ps xmm0, xmm0
  0008e	f3 0f 59 45 fc	 mulss	 xmm0, DWORD PTR _f$1$[ebp]
  00093	f3 0f 2c c8	 cvttss2si ecx, xmm0
  00097	03 cb		 add	 ecx, ebx
  00099	89 08		 mov	 DWORD PTR [eax], ecx
  0009b	5b		 pop	 ebx

; 2115 : }

  0009c	8b e5		 mov	 esp, ebp
  0009e	5d		 pop	 ebp
  0009f	c2 10 00	 ret	 16			; 00000010H
?GetItemATKPower@CMover@@QAEXPAH0PAUItemProp@@PAVCItemElem@@@Z ENDP ; CMover::GetItemATKPower
_TEXT	ENDS
; Function compile flags: /Ogtp
; File C:\IAGOS\server\v18\Source\Source\_Common\MoverAttack.cpp
;	COMDAT ?GetResist@CMover@@QAEMW4ePropType@SAI79@@@Z
_TEXT	SEGMENT
_type$ = 8						; size = 4
_n$ = 8							; size = 4
tv150 = 8						; size = 4
?GetResist@CMover@@QAEMW4ePropType@SAI79@@@Z PROC	; CMover::GetResist, COMDAT
; _this$ = ecx

; 2135 : { 

  00000	55		 push	 ebp
  00001	8b ec		 mov	 ebp, esp

; 2136 : 	if( SAI79::NO_PROP == type )

  00003	8b 45 08	 mov	 eax, DWORD PTR _type$[ebp]
  00006	85 c0		 test	 eax, eax
  00008	75 06		 jne	 SHORT $LN4@GetResist

; 2137 : 		return 0.0f;

  0000a	d9 ee		 fldz

; 2160 : }

  0000c	5d		 pop	 ebp
  0000d	c2 04 00	 ret	 4
$LN4@GetResist:

; 2138 : 
; 2139 : 	int n;
; 2140 : 	switch( type )

  00010	48		 dec	 eax
  00011	83 f8 04	 cmp	 eax, 4
  00014	77 2a		 ja	 SHORT $LN12@GetResist
  00016	ff 24 85 00 00
	00 00		 jmp	 DWORD PTR $LN11@GetResist[eax*4]
$LN5@GetResist:

; 2141 : 	{
; 2142 : 	case SAI79::FIRE:
; 2143 : 		n = DST_RESIST_FIRE;

  0001d	b8 1e 00 00 00	 mov	 eax, 30			; 0000001eH

; 2144 : 		break;

  00022	eb 1f		 jmp	 SHORT $LN2@GetResist
$LN6@GetResist:

; 2145 : 	case SAI79::WATER:
; 2146 : 		n = DST_RESIST_WATER;

  00024	b8 20 00 00 00	 mov	 eax, 32			; 00000020H

; 2147 : 		break;

  00029	eb 18		 jmp	 SHORT $LN2@GetResist
$LN7@GetResist:

; 2148 : 	case SAI79::ELECTRICITY:
; 2149 : 		n = DST_RESIST_ELECTRICITY;

  0002b	b8 1c 00 00 00	 mov	 eax, 28			; 0000001cH

; 2150 : 		break;

  00030	eb 11		 jmp	 SHORT $LN2@GetResist
$LN8@GetResist:

; 2151 : 	case SAI79::WIND:
; 2152 : 		n = DST_RESIST_WIND;

  00032	b8 1f 00 00 00	 mov	 eax, 31			; 0000001fH

; 2153 : 		break;

  00037	eb 0a		 jmp	 SHORT $LN2@GetResist
$LN9@GetResist:

; 2154 : 	case SAI79::EARTH:
; 2155 : 		n = DST_RESIST_EARTH;

  00039	b8 21 00 00 00	 mov	 eax, 33			; 00000021H
  0003e	eb 03		 jmp	 SHORT $LN2@GetResist
$LN12@GetResist:

; 2138 : 
; 2139 : 	int n;
; 2140 : 	switch( type )

  00040	8b 45 08	 mov	 eax, DWORD PTR _n$[ebp]
$LN2@GetResist:

; 2156 : 		break;
; 2157 : 	}
; 2158 : 
; 2159 : 	return GetResistSpell( n ) / 100.0f;

  00043	50		 push	 eax
  00044	e8 00 00 00 00	 call	 ?GetResistSpell@CMover@@QAEHH@Z ; CMover::GetResistSpell
  00049	66 0f 6e c0	 movd	 xmm0, eax
  0004d	0f 5b c0	 cvtdq2ps xmm0, xmm0
  00050	f3 0f 5e 05 00
	00 00 00	 divss	 xmm0, DWORD PTR __real@42c80000
  00058	f3 0f 11 45 08	 movss	 DWORD PTR tv150[ebp], xmm0
  0005d	d9 45 08	 fld	 DWORD PTR tv150[ebp]

; 2160 : }

  00060	5d		 pop	 ebp
  00061	c2 04 00	 ret	 4
$LN11@GetResist:
  00064	00 00 00 00	 DD	 $LN5@GetResist
  00068	00 00 00 00	 DD	 $LN6@GetResist
  0006c	00 00 00 00	 DD	 $LN7@GetResist
  00070	00 00 00 00	 DD	 $LN8@GetResist
  00074	00 00 00 00	 DD	 $LN9@GetResist
?GetResist@CMover@@QAEMW4ePropType@SAI79@@@Z ENDP	; CMover::GetResist
_TEXT	ENDS
; Function compile flags: /Ogtp
; File C:\IAGOS\server\v18\Source\Source\_Common\Mover.h
;	COMDAT ?SetPKPink@CMover@@QAEXK@Z
_TEXT	SEGMENT
_dwTime$ = 8						; size = 4
?SetPKPink@CMover@@QAEXK@Z PROC				; CMover::SetPKPink, COMDAT
; _this$ = ecx

; 1254 : 	void			SetPKPink( DWORD dwTime ) { if( dwTime == 0 || m_dwPKTime < dwTime ) m_dwPKTime = dwTime; }

  00000	55		 push	 ebp
  00001	8b ec		 mov	 ebp, esp
  00003	8b 45 08	 mov	 eax, DWORD PTR _dwTime$[ebp]
  00006	85 c0		 test	 eax, eax
  00008	74 08		 je	 SHORT $LN5@SetPKPink
  0000a	39 81 50 07 00
	00		 cmp	 DWORD PTR [ecx+1872], eax
  00010	73 06		 jae	 SHORT $LN2@SetPKPink
$LN5@SetPKPink:
  00012	89 81 50 07 00
	00		 mov	 DWORD PTR [ecx+1872], eax
$LN2@SetPKPink:
  00018	5d		 pop	 ebp
  00019	c2 04 00	 ret	 4
?SetPKPink@CMover@@QAEXK@Z ENDP				; CMover::SetPKPink
_TEXT	ENDS
; Function compile flags: /Ogtp
; File C:\IAGOS\server\v18\Source\Source\_Common\MoverAttack.cpp
; File C:\IAGOS\server\v18\Source\Source\_Common\Obj.h
; File C:\IAGOS\server\v18\Source\Source\_Common\MoverAttack.cpp
; File C:\IAGOS\server\v18\Source\Source\_Common\Mover.h
; File C:\IAGOS\server\v18\Source\Source\_Common\Project.h
; File C:\IAGOS\server\v18\Source\Source\_Common\MoverAttack.cpp
;	COMDAT ?GetHitMinMax@CMover@@QAEXPAH0PAUATTACK_INFO@@@Z
_TEXT	SEGMENT
_this$1$ = -8						; size = 4
_nParts$1$ = -4						; size = 4
_pnMin$ = 8						; size = 4
_f$1 = 8						; size = 4
$T2 = 8							; size = 4
_pnMax$ = 12						; size = 4
_pInfo$ = 16						; size = 4
_pItemProp$1$ = 16					; size = 4
_pWeapon$1$ = 16					; size = 4
?GetHitMinMax@CMover@@QAEXPAH0PAUATTACK_INFO@@@Z PROC	; CMover::GetHitMinMax, COMDAT
; _this$ = ecx

; 413  : {

  00000	55		 push	 ebp
  00001	8b ec		 mov	 ebp, esp
  00003	83 ec 08	 sub	 esp, 8

; 414  : 	int nParts = PARTS_RWEAPON;
; 415  : 	if( pInfo )

  00006	8b 45 10	 mov	 eax, DWORD PTR _pInfo$[ebp]
  00009	53		 push	 ebx
  0000a	56		 push	 esi
  0000b	8b f1		 mov	 esi, ecx
  0000d	b9 0a 00 00 00	 mov	 ecx, 10			; 0000000aH
  00012	89 75 f8	 mov	 DWORD PTR _this$1$[ebp], esi
  00015	89 4d fc	 mov	 DWORD PTR _nParts$1$[ebp], ecx
  00018	57		 push	 edi
  00019	85 c0		 test	 eax, eax
  0001b	74 06		 je	 SHORT $LN2@GetHitMinM

; 416  : 		nParts  = pInfo->nParts;

  0001d	8b 48 10	 mov	 ecx, DWORD PTR [eax+16]
  00020	89 4d fc	 mov	 DWORD PTR _nParts$1$[ebp], ecx
$LN2@GetHitMinM:

; 417  : 
; 418  : 	*pnMin = 0;

  00023	8b 7d 08	 mov	 edi, DWORD PTR _pnMin$[ebp]

; 419  : 	*pnMax = 0;

  00026	8b 5d 0c	 mov	 ebx, DWORD PTR _pnMax$[ebp]
  00029	c7 07 00 00 00
	00		 mov	 DWORD PTR [edi], 0
  0002f	c7 03 00 00 00
	00		 mov	 DWORD PTR [ebx], 0
; File C:\IAGOS\server\v18\Source\Source\_Common\Obj.h

; 327  : 	return pObj && ( pObj->IsDelete() == FALSE ); 

  00035	85 f6		 test	 esi, esi
  00037	0f 84 cc 01 00
	00		 je	 $LN13@GetHitMinM

; 180  : 	BOOL			IsDelete()	{ return (m_dwFlags & OBJ_FLAG_DELETE);  }

  0003d	f6 46 04 01	 test	 BYTE PTR [esi+4], 1

; 327  : 	return pObj && ( pObj->IsDelete() == FALSE ); 

  00041	0f 85 c2 01 00
	00		 jne	 $LN13@GetHitMinM
; File C:\IAGOS\server\v18\Source\Source\_Common\MoverAttack.cpp

; 424  : 	if( IsPlayer() )

  00047	83 be 30 02 00
	00 00		 cmp	 DWORD PTR [esi+560], 0
  0004e	0f 84 ef 00 00
	00		 je	 $LN4@GetHitMinM

; 425  : 	{
; 426  : 		ItemProp* pItemProp = GetActiveHandItemProp( nParts );

  00054	51		 push	 ecx
  00055	8b ce		 mov	 ecx, esi
  00057	e8 00 00 00 00	 call	 ?GetActiveHandItemProp@CMover@@QAEPAUItemProp@@H@Z ; CMover::GetActiveHandItemProp
  0005c	89 45 10	 mov	 DWORD PTR _pItemProp$1$[ebp], eax

; 427  : 		if( pItemProp == NULL )

  0005f	85 c0		 test	 eax, eax
  00061	0f 84 a2 01 00
	00		 je	 $LN13@GetHitMinM

; 428  : 			return;
; 429  : 
; 430  : 		*pnMin = pItemProp->dwAbilityMin * 2;

  00067	8b 88 e4 00 00
	00		 mov	 ecx, DWORD PTR [eax+228]
  0006d	03 c9		 add	 ecx, ecx
  0006f	89 0f		 mov	 DWORD PTR [edi], ecx

; 431  : 		*pnMax = pItemProp->dwAbilityMax * 2;

  00071	8b 88 e8 00 00
	00		 mov	 ecx, DWORD PTR [eax+232]
  00077	03 c9		 add	 ecx, ecx
  00079	89 0b		 mov	 DWORD PTR [ebx], ecx

; 432  : 
; 433  : 		*pnMin = GetParam( DST_ABILITY_MIN, *pnMin );

  0007b	8b ce		 mov	 ecx, esi
  0007d	ff 37		 push	 DWORD PTR [edi]
  0007f	6a 0c		 push	 12			; 0000000cH
  00081	e8 00 00 00 00	 call	 ?GetParam@CMover@@QAEHHH@Z ; CMover::GetParam
  00086	89 07		 mov	 DWORD PTR [edi], eax

; 434  : 		*pnMax = GetParam( DST_ABILITY_MAX, *pnMax );

  00088	8b ce		 mov	 ecx, esi
  0008a	ff 33		 push	 DWORD PTR [ebx]
  0008c	6a 0d		 push	 13			; 0000000dH
  0008e	e8 00 00 00 00	 call	 ?GetParam@CMover@@QAEHHH@Z ; CMover::GetParam
  00093	89 03		 mov	 DWORD PTR [ebx], eax

; 435  : 
; 436  : 		int nPlus = GetWeaponATK( pItemProp->dwWeaponType ) + GetParam( DST_CHR_DMG, 0 );

  00095	8b ce		 mov	 ecx, esi
  00097	8b 45 10	 mov	 eax, DWORD PTR _pItemProp$1$[ebp]
  0009a	ff b0 0c 01 00
	00		 push	 DWORD PTR [eax+268]
  000a0	e8 00 00 00 00	 call	 ?GetWeaponATK@CMover@@QAEHK@Z ; CMover::GetWeaponATK
  000a5	8b 4d f8	 mov	 ecx, DWORD PTR _this$1$[ebp]
  000a8	8b f0		 mov	 esi, eax
  000aa	6a 00		 push	 0
  000ac	6a 3f		 push	 63			; 0000003fH
  000ae	e8 00 00 00 00	 call	 ?GetParam@CMover@@QAEHHH@Z ; CMover::GetParam

; 437  : 		*pnMin += nPlus;
; 438  : 		*pnMax += nPlus;
; 439  : 
; 440  : 		CItemElem *pWeapon = GetWeaponItem( nParts );

  000b3	ff 75 fc	 push	 DWORD PTR _nParts$1$[ebp]
  000b6	03 f0		 add	 esi, eax
  000b8	01 37		 add	 DWORD PTR [edi], esi
  000ba	01 33		 add	 DWORD PTR [ebx], esi
  000bc	8b 75 f8	 mov	 esi, DWORD PTR _this$1$[ebp]
  000bf	8b ce		 mov	 ecx, esi
  000c1	e8 00 00 00 00	 call	 ?GetWeaponItem@CMover@@QAEPAVCItemElem@@H@Z ; CMover::GetWeaponItem
  000c6	89 45 10	 mov	 DWORD PTR _pWeapon$1$[ebp], eax

; 441  : 		if( pWeapon && pWeapon->GetProp() )

  000c9	85 c0		 test	 eax, eax
  000cb	0f 84 38 01 00
	00		 je	 $LN13@GetHitMinM
  000d1	8b c8		 mov	 ecx, eax
  000d3	e8 00 00 00 00	 call	 ?GetPropA@CItemElem@@QAEPAUItemProp@@XZ ; CItemElem::GetPropA
  000d8	85 c0		 test	 eax, eax
  000da	74 31		 je	 SHORT $LN34@GetHitMinM

; 442  : 		{
; 443  : 			float f = GetItemMultiplier( pWeapon );

  000dc	ff 75 10	 push	 DWORD PTR _pWeapon$1$[ebp]
  000df	8b ce		 mov	 ecx, esi
  000e1	e8 00 00 00 00	 call	 ?GetItemMultiplier@CMover@@QAEMPAVCItemElem@@@Z ; CMover::GetItemMultiplier
  000e6	66 0f 6e 07	 movd	 xmm0, DWORD PTR [edi]

; 444  : 			*pnMin = (int)( *pnMin * f );

  000ea	0f 5b c0	 cvtdq2ps xmm0, xmm0
  000ed	d9 5d 08	 fstp	 DWORD PTR _f$1[ebp]
  000f0	f3 0f 59 45 08	 mulss	 xmm0, DWORD PTR _f$1[ebp]
  000f5	f3 0f 2c c0	 cvttss2si eax, xmm0
  000f9	89 07		 mov	 DWORD PTR [edi], eax
  000fb	66 0f 6e 03	 movd	 xmm0, DWORD PTR [ebx]

; 445  : 			*pnMax = (int)( *pnMax * f );

  000ff	0f 5b c0	 cvtdq2ps xmm0, xmm0
  00102	f3 0f 59 45 08	 mulss	 xmm0, DWORD PTR _f$1[ebp]
  00107	f3 0f 2c c0	 cvttss2si eax, xmm0
  0010b	89 03		 mov	 DWORD PTR [ebx], eax
$LN34@GetHitMinM:

; 446  : 		}
; 447  : 
; 448  : 		if( pWeapon )
; 449  : 		{
; 450  : 			int nOption = pWeapon->GetAbilityOption();

  0010d	8b 45 10	 mov	 eax, DWORD PTR _pWeapon$1$[ebp]
  00110	8b 40 64	 mov	 eax, DWORD PTR [eax+100]

; 451  : 			if( nOption > 0 )

  00113	85 c0		 test	 eax, eax
  00115	0f 8e ee 00 00
	00		 jle	 $LN13@GetHitMinM

; 452  : 			{
; 453  : 				int nValue = (int)( pow( (float)( nOption ), 1.5f ) );

  0011b	f2 0f 10 0d 00
	00 00 00	 movsd	 xmm1, QWORD PTR __real@3ff8000000000000
  00123	66 0f 6e c0	 movd	 xmm0, eax
  00127	0f 5b c0	 cvtdq2ps xmm0, xmm0
  0012a	0f 5a c0	 cvtps2pd xmm0, xmm0
  0012d	e8 00 00 00 00	 call	 __libm_sse2_pow_precise
  00132	f2 0f 2c c0	 cvttsd2si eax, xmm0

; 454  : 
; 455  : 				*pnMin += nValue;

  00136	01 07		 add	 DWORD PTR [edi], eax

; 487  : 			}
; 488  : 		}
; 489  : 	}
; 490  : }

  00138	01 03		 add	 DWORD PTR [ebx], eax
  0013a	5f		 pop	 edi
  0013b	5e		 pop	 esi
  0013c	5b		 pop	 ebx
  0013d	8b e5		 mov	 esp, ebp
  0013f	5d		 pop	 ebp
  00140	c2 0c 00	 ret	 12			; 0000000cH
$LN4@GetHitMinM:
; File C:\IAGOS\server\v18\Source\Source\_Common\Mover.h

; 1020 : 	MoverProp*		GetProp() { return prj.GetMoverProp( m_dwIndex ); }	// °´ĂĽŔÇ ÇÁ·ÎĆŰĆĽ ľň±â 	

  00143	8b 86 74 01 00
	00		 mov	 eax, DWORD PTR [esi+372]
; File C:\IAGOS\server\v18\Source\Source\_Common\Project.h

; 1406 : 	VERIFY_RANGE( nIndex, 0, m_nMoverPropSize, "GetMoverProp range_error", NULL );

  00149	8b 0d b4 01 00
	00		 mov	 ecx, DWORD PTR ?prj@@3VCProject@@A+436
  0014f	85 c0		 test	 eax, eax
  00151	78 12		 js	 SHORT $LN30@GetHitMinM
  00153	3b c1		 cmp	 eax, ecx
  00155	7d 0e		 jge	 SHORT $LN30@GetHitMinM

; 1407 : 	return m_pPropMover + nIndex;

  00157	69 c8 90 06 00
	00		 imul	 ecx, eax, 1680
  0015d	03 0d b8 01 00
	00		 add	 ecx, DWORD PTR ?prj@@3VCProject@@A+440
  00163	eb 18		 jmp	 SHORT $LN52@GetHitMinM
$LN30@GetHitMinM:

; 579  : 	LPCTSTR szErr = Error( _T( "%s min:%d, max:%d, index:%d" ), szMsg, nMin, nMax, nIndex ); 

  00165	50		 push	 eax
  00166	51		 push	 ecx
  00167	6a 00		 push	 0
  00169	68 00 00 00 00	 push	 OFFSET ??_C@_0BJ@GKPOBPPI@GetMoverProp?5range_error@
  0016e	68 00 00 00 00	 push	 OFFSET ??_C@_0BM@HMFGHCP@?$CFs?5min?3?$CFd?0?5max?3?$CFd?0?5index?3?$CFd@
  00173	e8 00 00 00 00	 call	 ?Error@@YAPBDPBDZZ	; Error
  00178	83 c4 14	 add	 esp, 20			; 00000014H

; 1406 : 	VERIFY_RANGE( nIndex, 0, m_nMoverPropSize, "GetMoverProp range_error", NULL );

  0017b	33 c9		 xor	 ecx, ecx
$LN52@GetHitMinM:
; File C:\IAGOS\server\v18\Source\Source\_Common\MoverAttack.cpp

; 463  : 		*pnMin = pMoverProp->dwAtkMin;

  0017d	8b 81 a8 00 00
	00		 mov	 eax, DWORD PTR [ecx+168]
  00183	89 07		 mov	 DWORD PTR [edi], eax

; 464  : 		*pnMax = pMoverProp->dwAtkMax;

  00185	8b 81 ac 00 00
	00		 mov	 eax, DWORD PTR [ecx+172]
  0018b	89 03		 mov	 DWORD PTR [ebx], eax

; 465  : 
; 466  : 		*pnMin = GetParam( DST_ABILITY_MIN, *pnMin );

  0018d	ff 37		 push	 DWORD PTR [edi]
  0018f	89 4d 08	 mov	 DWORD PTR $T2[ebp], ecx
  00192	8b ce		 mov	 ecx, esi
  00194	6a 0c		 push	 12			; 0000000cH
  00196	e8 00 00 00 00	 call	 ?GetParam@CMover@@QAEHHH@Z ; CMover::GetParam
  0019b	89 07		 mov	 DWORD PTR [edi], eax

; 467  : 		*pnMax = GetParam( DST_ABILITY_MAX, *pnMax );

  0019d	8b ce		 mov	 ecx, esi
  0019f	ff 33		 push	 DWORD PTR [ebx]
  001a1	6a 0d		 push	 13			; 0000000dH
  001a3	e8 00 00 00 00	 call	 ?GetParam@CMover@@QAEHHH@Z ; CMover::GetParam
  001a8	89 03		 mov	 DWORD PTR [ebx], eax

; 468  : 		
; 469  : 		*pnMin = GetParam( DST_CHR_DMG, *pnMin );

  001aa	8b ce		 mov	 ecx, esi
  001ac	ff 37		 push	 DWORD PTR [edi]
  001ae	6a 3f		 push	 63			; 0000003fH
  001b0	e8 00 00 00 00	 call	 ?GetParam@CMover@@QAEHHH@Z ; CMover::GetParam
  001b5	89 07		 mov	 DWORD PTR [edi], eax

; 470  : 		*pnMax = GetParam( DST_CHR_DMG, *pnMax );		

  001b7	8b ce		 mov	 ecx, esi
  001b9	ff 33		 push	 DWORD PTR [ebx]
  001bb	6a 3f		 push	 63			; 0000003fH
  001bd	e8 00 00 00 00	 call	 ?GetParam@CMover@@QAEHHH@Z ; CMover::GetParam
  001c2	89 03		 mov	 DWORD PTR [ebx], eax

; 471  : 		
; 472  : 		DWORD dwAtk = pMoverProp->dwAtk1;

  001c4	8b 45 08	 mov	 eax, DWORD PTR $T2[ebp]
  001c7	8b 88 b0 00 00
	00		 mov	 ecx, DWORD PTR [eax+176]

; 473  : 		if( pInfo )

  001cd	8b 45 10	 mov	 eax, DWORD PTR _pInfo$[ebp]
  001d0	85 c0		 test	 eax, eax
  001d2	74 11		 je	 SHORT $LN11@GetHitMinM

; 474  : 		{
; 475  : 			DWORD dwValue = pInfo->nParam >> 16;

  001d4	0f bf 40 0e	 movsx	 eax, WORD PTR [eax+14]

; 476  : 			if( dwValue != 0 && dwValue != NULL_ID )

  001d8	85 c0		 test	 eax, eax
  001da	74 09		 je	 SHORT $LN11@GetHitMinM
  001dc	83 f8 ff	 cmp	 eax, -1
  001df	74 04		 je	 SHORT $LN11@GetHitMinM

; 477  : 				dwAtk = dwValue;

  001e1	8b c8		 mov	 ecx, eax
  001e3	eb 05		 jmp	 SHORT $LN35@GetHitMinM
$LN11@GetHitMinM:

; 478  : 		}
; 479  : 	
; 480  : 		if( dwAtk != NULL_ID )		// µé°íŔÖ´Â ą«±â°ˇ ŔÖŔ»¶© ±× ą«±âŔÇ min,max °Ş±îÁö ´őÇŃ´Ů.

  001e5	83 f9 ff	 cmp	 ecx, -1
  001e8	74 1f		 je	 SHORT $LN13@GetHitMinM
$LN35@GetHitMinM:

; 481  : 		{
; 482  : 			ItemProp* pItemProp = prj.GetItemProp( dwAtk );

  001ea	51		 push	 ecx
  001eb	b9 00 00 00 00	 mov	 ecx, OFFSET ?prj@@3VCProject@@A ; prj
  001f0	e8 00 00 00 00	 call	 ?GetItemProp@CProject@@QAEPAUItemProp@@H@Z ; CProject::GetItemProp

; 483  : 			if( pItemProp )

  001f5	85 c0		 test	 eax, eax
  001f7	74 10		 je	 SHORT $LN13@GetHitMinM

; 484  : 			{
; 485  : 				*pnMin += pItemProp->dwAbilityMin;

  001f9	8b 88 e4 00 00
	00		 mov	 ecx, DWORD PTR [eax+228]
  001ff	01 0f		 add	 DWORD PTR [edi], ecx

; 486  : 				*pnMax += pItemProp->dwAbilityMax;

  00201	8b 80 e8 00 00
	00		 mov	 eax, DWORD PTR [eax+232]

; 487  : 			}
; 488  : 		}
; 489  : 	}
; 490  : }

  00207	01 03		 add	 DWORD PTR [ebx], eax
$LN13@GetHitMinM:
  00209	5f		 pop	 edi
  0020a	5e		 pop	 esi
  0020b	5b		 pop	 ebx
  0020c	8b e5		 mov	 esp, ebp
  0020e	5d		 pop	 ebp
  0020f	c2 0c 00	 ret	 12			; 0000000cH
?GetHitMinMax@CMover@@QAEXPAH0PAUATTACK_INFO@@@Z ENDP	; CMover::GetHitMinMax
_TEXT	ENDS
; Function compile flags: /Ogtp
; File C:\IAGOS\server\v18\Source\Source\_Common\MoverAttack.cpp
;	COMDAT ?GetMagicHitPower@CMover@@QAEHH@Z
_TEXT	SEGMENT
_nMax$ = -8						; size = 4
_nMin$ = -4						; size = 4
_nChargeLevel$ = 8					; size = 4
tv95 = 8						; size = 4
tv129 = 8						; size = 4
?GetMagicHitPower@CMover@@QAEHH@Z PROC			; CMover::GetMagicHitPower, COMDAT
; _this$ = ecx

; 1546 : {

  00000	55		 push	 ebp
  00001	8b ec		 mov	 ebp, esp
  00003	83 ec 08	 sub	 esp, 8
  00006	53		 push	 ebx
  00007	56		 push	 esi
  00008	57		 push	 edi

; 1547 : 	ItemProp* pItemProp = GetActiveHandItemProp();			// µé°íŔÖ´Â ą«±âŔÇ ÇÁ·ÎĆŰĆĽ ˛¨łż

  00009	6a 0a		 push	 10			; 0000000aH
  0000b	8b d9		 mov	 ebx, ecx
  0000d	e8 00 00 00 00	 call	 ?GetActiveHandItemProp@CMover@@QAEPAUItemProp@@H@Z ; CMover::GetActiveHandItemProp

; 1548 : 	CItemElem *pWeapon = GetWeaponItem();		// ĽŐżˇµç ľĆŔĚĹŰŔÇ Ć÷ŔÎĹÍ.

  00012	6a 0a		 push	 10			; 0000000aH
  00014	8b cb		 mov	 ecx, ebx
  00016	8b f0		 mov	 esi, eax
  00018	e8 00 00 00 00	 call	 ?GetWeaponItem@CMover@@QAEPAVCItemElem@@H@Z ; CMover::GetWeaponItem

; 1549 : 
; 1550 : 	int nMin, nMax;
; 1551 : 	GetItemATKPower( &nMin, &nMax, pItemProp, pWeapon ); 

  0001d	50		 push	 eax
  0001e	56		 push	 esi
  0001f	8d 45 f8	 lea	 eax, DWORD PTR _nMax$[ebp]
  00022	8b cb		 mov	 ecx, ebx
  00024	50		 push	 eax
  00025	8d 45 fc	 lea	 eax, DWORD PTR _nMin$[ebp]
  00028	50		 push	 eax
  00029	e8 00 00 00 00	 call	 ?GetItemATKPower@CMover@@QAEXPAH0PAUItemProp@@PAVCItemElem@@@Z ; CMover::GetItemATKPower

; 1552 : 
; 1553 : 	int nATK = GetWeaponATK( WT_MAGIC_WAND );

  0002e	6a 06		 push	 6
  00030	8b cb		 mov	 ecx, ebx
  00032	e8 00 00 00 00	 call	 ?GetWeaponATK@CMover@@QAEHK@Z ; CMover::GetWeaponATK

; 1554 : 	nMin += nATK;
; 1555 : 	nMax += nATK;

  00037	8b 4d f8	 mov	 ecx, DWORD PTR _nMax$[ebp]
  0003a	8b 55 fc	 mov	 edx, DWORD PTR _nMin$[ebp]
  0003d	03 c8		 add	 ecx, eax
  0003f	03 d0		 add	 edx, eax

; 1556 : 
; 1557 : 	int nDamage = xRandom( nMin, nMax );

  00041	51		 push	 ecx
  00042	52		 push	 edx
  00043	e8 00 00 00 00	 call	 ?xRandom@@YAKKK@Z	; xRandom
  00048	83 c4 08	 add	 esp, 8

; 1558 : 	nDamage += GetParam( DST_CHR_DMG, 0 );

  0004b	8b cb		 mov	 ecx, ebx
  0004d	8b f0		 mov	 esi, eax
  0004f	6a 00		 push	 0
  00051	6a 3f		 push	 63			; 0000003fH
  00053	e8 00 00 00 00	 call	 ?GetParam@CMover@@QAEHHH@Z ; CMover::GetParam

; 1559 : 	nDamage	= (int)( nDamage * GetWandATKMultiplier( nChargeLevel ) );

  00058	ff 75 08	 push	 DWORD PTR _nChargeLevel$[ebp]
  0005b	03 f0		 add	 esi, eax
  0005d	e8 00 00 00 00	 call	 ?GetWandATKMultiplier@@YAMH@Z ; GetWandATKMultiplier
  00062	66 0f 6e c6	 movd	 xmm0, esi
  00066	83 c4 04	 add	 esp, 4
  00069	0f 5b c0	 cvtdq2ps xmm0, xmm0

; 1560 : 	return nDamage;

  0006c	5f		 pop	 edi
  0006d	5e		 pop	 esi
  0006e	5b		 pop	 ebx
  0006f	f3 0f 11 45 08	 movss	 DWORD PTR tv129[ebp], xmm0
  00074	d8 4d 08	 fmul	 DWORD PTR tv129[ebp]
  00077	d9 5d 08	 fstp	 DWORD PTR tv95[ebp]
  0007a	f3 0f 2c 45 08	 cvttss2si eax, DWORD PTR tv95[ebp]

; 1561 : }

  0007f	8b e5		 mov	 esp, ebp
  00081	5d		 pop	 ebp
  00082	c2 04 00	 ret	 4
?GetMagicHitPower@CMover@@QAEHH@Z ENDP			; CMover::GetMagicHitPower
_TEXT	ENDS
; Function compile flags: /Ogtp
; File C:\IAGOS\server\v18\Source\Source\_Common\MoverAttack.cpp
; File C:\IAGOS\server\v18\Source\Source\_Common\Project.h
; File C:\IAGOS\server\v18\Source\Source\_Common\MoverAttack.cpp
; File C:\IAGOS\server\v18\Source\Source\_Common\Project.h
; File C:\IAGOS\server\v18\Source\Source\_Common\data.h
; File C:\IAGOS\server\v18\Source\Source\_Common\Project.h
; File C:\IAGOS\server\v18\Source\Source\_Common\MoverAttack.cpp
; File C:\IAGOS\server\v18\Source\Source\_Common\xUtil.h
; File C:\IAGOS\server\v18\Source\Source\_Common\MoverAttack.cpp
; File C:\IAGOS\server\v18\Source\Source\_Common\xUtil.h
; File C:\IAGOS\server\v18\Source\Source\_Common\MoverAttack.cpp
;	COMDAT ?GetMeleeSkillPower@CMover@@QAEHPAUATTACK_INFO@@@Z
_TEXT	SEGMENT
_nMax$ = -28						; size = 4
_nMin$ = -24						; size = 4
_pWeapon$1$ = -20					; size = 4
_dwSkillAbilityMax$1$ = -16				; size = 4
_pItemProp$1$ = -12					; size = 4
_nSkillLv$1$ = -8					; size = 4
tv742 = -4						; size = 4
_nReferStat1$1$ = -4					; size = 4
_pInfo$ = 8						; size = 4
$T1 = 8							; size = 4
?GetMeleeSkillPower@CMover@@QAEHPAUATTACK_INFO@@@Z PROC	; CMover::GetMeleeSkillPower, COMDAT
; _this$ = ecx

; 1461 : {

  00000	55		 push	 ebp
  00001	8b ec		 mov	 ebp, esp
  00003	83 ec 1c	 sub	 esp, 28			; 0000001cH
  00006	53		 push	 ebx
  00007	56		 push	 esi
  00008	8b d9		 mov	 ebx, ecx

; 1462 : 	int nSkill = pInfo->GetSkill();

  0000a	8b 4d 08	 mov	 ecx, DWORD PTR _pInfo$[ebp]
  0000d	57		 push	 edi
  0000e	e8 00 00 00 00	 call	 ?GetSkill@ATTACK_INFO@@QBEHXZ ; ATTACK_INFO::GetSkill

; 1463 : 	int nSkillLv = pInfo->GetSkillLevel();

  00013	8b 4d 08	 mov	 ecx, DWORD PTR _pInfo$[ebp]
  00016	8b f8		 mov	 edi, eax
  00018	e8 00 00 00 00	 call	 ?GetSkillLevel@ATTACK_INFO@@QBEHXZ ; ATTACK_INFO::GetSkillLevel

; 1465 : 	ItemProp* pItemProp = GetActiveHandItemProp();			// µé°íŔÖ´Â ą«±âŔÇ ÇÁ·ÎĆŰĆĽ ˛¨łż

  0001d	6a 0a		 push	 10			; 0000000aH
  0001f	8b cb		 mov	 ecx, ebx
  00021	89 45 f8	 mov	 DWORD PTR _nSkillLv$1$[ebp], eax
  00024	e8 00 00 00 00	 call	 ?GetActiveHandItemProp@CMover@@QAEPAUItemProp@@H@Z ; CMover::GetActiveHandItemProp
; File C:\IAGOS\server\v18\Source\Source\_Common\Project.h

; 1395 : 	VERIFY_RANGE( nIndex, 0, m_aPropSkill.GetSize(), "GetSkillProp range_error", NULL );

  00029	8b 0d 64 02 00
	00		 mov	 ecx, DWORD PTR ?prj@@3VCProject@@A+612
; File C:\IAGOS\server\v18\Source\Source\_Common\MoverAttack.cpp

; 1465 : 	ItemProp* pItemProp = GetActiveHandItemProp();			// µé°íŔÖ´Â ą«±âŔÇ ÇÁ·ÎĆŰĆĽ ˛¨łż

  0002f	8b d0		 mov	 edx, eax
  00031	89 55 f4	 mov	 DWORD PTR _pItemProp$1$[ebp], edx
; File C:\IAGOS\server\v18\Source\Source\_Common\Project.h

; 1395 : 	VERIFY_RANGE( nIndex, 0, m_aPropSkill.GetSize(), "GetSkillProp range_error", NULL );

  00034	85 ff		 test	 edi, edi
  00036	78 10		 js	 SHORT $LN35@GetMeleeSk
  00038	3b f9		 cmp	 edi, ecx
  0003a	7d 0c		 jge	 SHORT $LN35@GetMeleeSk
; File C:\IAGOS\server\v18\Source\Source\_Common\data.h

; 270  : 	if( dwIndex >= (DWORD)m_nMaxIndex )

  0003c	73 23		 jae	 SHORT $LN71@GetMeleeSk

; 271  : 		return NULL;
; 272  : 	return (T*) m_apOffset[ dwIndex ];

  0003e	a1 54 02 00 00	 mov	 eax, DWORD PTR ?prj@@3VCProject@@A+596
  00043	8b 34 b8	 mov	 esi, DWORD PTR [eax+edi*4]
; File C:\IAGOS\server\v18\Source\Source\_Common\Project.h

; 1396 : 	return m_aPropSkill.GetAt( nIndex ); 

  00046	eb 1b		 jmp	 SHORT $LN30@GetMeleeSk
$LN35@GetMeleeSk:

; 579  : 	LPCTSTR szErr = Error( _T( "%s min:%d, max:%d, index:%d" ), szMsg, nMin, nMax, nIndex ); 

  00048	57		 push	 edi
  00049	51		 push	 ecx
  0004a	6a 00		 push	 0
  0004c	68 00 00 00 00	 push	 OFFSET ??_C@_0BJ@GPNGCFMK@GetSkillProp?5range_error@
  00051	68 00 00 00 00	 push	 OFFSET ??_C@_0BM@HMFGHCP@?$CFs?5min?3?$CFd?0?5max?3?$CFd?0?5index?3?$CFd@
  00056	e8 00 00 00 00	 call	 ?Error@@YAPBDPBDZZ	; Error
  0005b	8b 55 f4	 mov	 edx, DWORD PTR _pItemProp$1$[ebp]
  0005e	83 c4 14	 add	 esp, 20			; 00000014H
$LN71@GetMeleeSk:
; File C:\IAGOS\server\v18\Source\Source\_Common\MoverAttack.cpp

; 1467 : 	if( !pItemProp || !pSkillProp )

  00061	33 f6		 xor	 esi, esi
$LN30@GetMeleeSk:
  00063	85 d2		 test	 edx, edx
  00065	0f 84 68 03 00
	00		 je	 $LN26@GetMeleeSk
  0006b	85 f6		 test	 esi, esi
  0006d	0f 84 5c 03 00
	00		 je	 $LN7@GetMeleeSk

; 1470 : 			nSkill, pInfo->pAttacker ? pInfo->pAttacker->GetName() : "xxx", pItemProp ? pItemProp->dwID : 0 );
; 1471 : 		return 1;
; 1472 : 	}
; 1473 : 	AddSkillProp* pAddSkillProp = prj.GetAddSkillProp( pSkillProp->dwSubDefine, nSkillLv );

  00073	ff 75 f8	 push	 DWORD PTR _nSkillLv$1$[ebp]
  00076	b9 00 00 00 00	 mov	 ecx, OFFSET ?prj@@3VCProject@@A ; prj
  0007b	ff b6 10 02 00
	00		 push	 DWORD PTR [esi+528]
  00081	e8 00 00 00 00	 call	 ?GetAddSkillProp@CProject@@QAEPAUAddSkillProp@@KK@Z ; CProject::GetAddSkillProp
  00086	8b f8		 mov	 edi, eax

; 1474 : 	if( !pAddSkillProp )

  00088	85 ff		 test	 edi, edi
  0008a	0f 84 6c 03 00
	00		 je	 $LN72@GetMeleeSk

; 1475 : 		return 1;
; 1476 : 
; 1477 : 	CItemElem *pWeapon = GetWeaponItem();		// ĽŐżˇµç ľĆŔĚĹŰŔÇ Ć÷ŔÎĹÍ.

  00090	6a 0a		 push	 10			; 0000000aH
  00092	8b cb		 mov	 ecx, ebx
  00094	e8 00 00 00 00	 call	 ?GetWeaponItem@CMover@@QAEPAVCItemElem@@H@Z ; CMover::GetWeaponItem

; 1478 : 	int nMin, nMax;
; 1479 : 	GetItemATKPower( &nMin, &nMax, pItemProp, pWeapon ); 

  00099	50		 push	 eax
  0009a	ff 75 f4	 push	 DWORD PTR _pItemProp$1$[ebp]
  0009d	89 45 ec	 mov	 DWORD PTR _pWeapon$1$[ebp], eax
  000a0	8b cb		 mov	 ecx, ebx
  000a2	8d 45 e4	 lea	 eax, DWORD PTR _nMax$[ebp]
  000a5	50		 push	 eax
  000a6	8d 45 e8	 lea	 eax, DWORD PTR _nMin$[ebp]
  000a9	50		 push	 eax
  000aa	e8 00 00 00 00	 call	 ?GetItemATKPower@CMover@@QAEXPAH0PAUItemProp@@PAVCItemElem@@@Z ; CMover::GetItemATKPower

; 1480 : 
; 1481 : 	int   nReferStat = 0, nReferStat1 = 0, nReferStat2 = 0;
; 1482 : 	switch(pSkillProp->dwReferStat1)

  000af	8b 86 d0 01 00
	00		 mov	 eax, DWORD PTR [esi+464]
  000b5	48		 dec	 eax
  000b6	c7 45 fc 00 00
	00 00		 mov	 DWORD PTR _nReferStat1$1$[ebp], 0
  000bd	83 f8 03	 cmp	 eax, 3
  000c0	77 2c		 ja	 SHORT $LN2@GetMeleeSk
  000c2	ff 24 85 00 00
	00 00		 jmp	 DWORD PTR $LN46@GetMeleeSk[eax*4]
$LN9@GetMeleeSk:

; 1483 : 	{
; 1484 : 	case DST_STR:		nReferStat1 = GetStr();		break;

  000c9	8b cb		 mov	 ecx, ebx
  000cb	e8 00 00 00 00	 call	 ?GetStr@CMover@@QAEHXZ	; CMover::GetStr
  000d0	eb 19		 jmp	 SHORT $LN73@GetMeleeSk
$LN10@GetMeleeSk:

; 1485 : 	case DST_DEX:		nReferStat1 = GetDex();		break;

  000d2	8b cb		 mov	 ecx, ebx
  000d4	e8 00 00 00 00	 call	 ?GetDex@CMover@@QAEHXZ	; CMover::GetDex
  000d9	eb 10		 jmp	 SHORT $LN73@GetMeleeSk
$LN11@GetMeleeSk:

; 1486 : 	case DST_INT:		nReferStat1 = GetInt();		break;

  000db	8b cb		 mov	 ecx, ebx
  000dd	e8 00 00 00 00	 call	 ?GetInt@CMover@@QAEHXZ	; CMover::GetInt
  000e2	eb 07		 jmp	 SHORT $LN73@GetMeleeSk
$LN12@GetMeleeSk:

; 1487 : 	case DST_STA:		nReferStat1 = GetSta();		break;

  000e4	8b cb		 mov	 ecx, ebx
  000e6	e8 00 00 00 00	 call	 ?GetSta@CMover@@QAEHXZ	; CMover::GetSta
$LN73@GetMeleeSk:

; 1488 : 	}
; 1489 : 	switch(pSkillProp->dwReferStat2)

  000eb	89 45 fc	 mov	 DWORD PTR _nReferStat1$1$[ebp], eax
$LN2@GetMeleeSk:
  000ee	8b 86 d4 01 00
	00		 mov	 eax, DWORD PTR [esi+468]
  000f4	48		 dec	 eax
  000f5	83 f8 03	 cmp	 eax, 3
  000f8	77 33		 ja	 SHORT $LN49@GetMeleeSk
  000fa	ff 24 85 00 00
	00 00		 jmp	 DWORD PTR $LN47@GetMeleeSk[eax*4]
$LN13@GetMeleeSk:

; 1490 : 	{
; 1491 : 	case DST_STR:		nReferStat2 = GetStr();		break;

  00101	8b cb		 mov	 ecx, ebx
  00103	e8 00 00 00 00	 call	 ?GetStr@CMover@@QAEHXZ	; CMover::GetStr
  00108	8b c8		 mov	 ecx, eax
  0010a	eb 23		 jmp	 SHORT $LN4@GetMeleeSk
$LN14@GetMeleeSk:

; 1492 : 	case DST_DEX:		nReferStat2 = GetDex();		break;

  0010c	8b cb		 mov	 ecx, ebx
  0010e	e8 00 00 00 00	 call	 ?GetDex@CMover@@QAEHXZ	; CMover::GetDex
  00113	8b c8		 mov	 ecx, eax
  00115	eb 18		 jmp	 SHORT $LN4@GetMeleeSk
$LN15@GetMeleeSk:

; 1493 : 	case DST_INT:		nReferStat2 = GetInt();		break;

  00117	8b cb		 mov	 ecx, ebx
  00119	e8 00 00 00 00	 call	 ?GetInt@CMover@@QAEHXZ	; CMover::GetInt
  0011e	8b c8		 mov	 ecx, eax
  00120	eb 0d		 jmp	 SHORT $LN4@GetMeleeSk
$LN16@GetMeleeSk:

; 1494 : 	case DST_STA:		nReferStat2 = GetSta();		break;

  00122	8b cb		 mov	 ecx, ebx
  00124	e8 00 00 00 00	 call	 ?GetSta@CMover@@QAEHXZ	; CMover::GetSta
  00129	8b c8		 mov	 ecx, eax
  0012b	eb 02		 jmp	 SHORT $LN4@GetMeleeSk
$LN49@GetMeleeSk:

; 1495 : 	}
; 1496 : 	
; 1497 : 	if( pSkillProp->dwReferTarget1 == RT_ATTACK )

  0012d	33 c9		 xor	 ecx, ecx
$LN4@GetMeleeSk:
  0012f	83 be d8 01 00
	00 01		 cmp	 DWORD PTR [esi+472], 1
  00136	f3 0f 10 1d 00
	00 00 00	 movss	 xmm3, DWORD PTR __real@42480000
  0013e	f3 0f 10 25 00
	00 00 00	 movss	 xmm4, DWORD PTR __real@41200000
  00146	75 61		 jne	 SHORT $LN51@GetMeleeSk

; 1498 : 		if( pSkillProp->dwReferValue1 != NULL_ID )

  00148	8b 96 e0 01 00
	00		 mov	 edx, DWORD PTR [esi+480]
  0014e	83 fa ff	 cmp	 edx, -1
  00151	74 56		 je	 SHORT $LN51@GetMeleeSk

; 1499 : 			nReferStat1 = (int)( ((pSkillProp->dwReferValue1/10.0f)*nReferStat1) + (pAddSkillProp->dwSkillLvl * FLOAT(nReferStat1/50.0f)) );

  00153	8b 47 08	 mov	 eax, DWORD PTR [edi+8]
  00156	0f 57 c0	 xorps	 xmm0, xmm0
  00159	0f 57 d2	 xorps	 xmm2, xmm2
  0015c	f3 0f 2a 55 fc	 cvtsi2ss xmm2, DWORD PTR _nReferStat1$1$[ebp]
  00161	f2 0f 2a c0	 cvtsi2sd xmm0, eax
  00165	c1 e8 1f	 shr	 eax, 31			; 0000001fH
  00168	f2 0f 58 04 c5
	00 00 00 00	 addsd	 xmm0, QWORD PTR __xmm@41f00000000000000000000000000000[eax*8]
  00171	66 0f 5a c8	 cvtpd2ps xmm1, xmm0
  00175	0f 28 c2	 movaps	 xmm0, xmm2
  00178	f3 0f 5e c3	 divss	 xmm0, xmm3
  0017c	f3 0f 59 c8	 mulss	 xmm1, xmm0
  00180	0f 57 c0	 xorps	 xmm0, xmm0
  00183	f2 0f 2a c2	 cvtsi2sd xmm0, edx
  00187	c1 ea 1f	 shr	 edx, 31			; 0000001fH
  0018a	f2 0f 58 04 d5
	00 00 00 00	 addsd	 xmm0, QWORD PTR __xmm@41f00000000000000000000000000000[edx*8]
  00193	66 0f 5a c0	 cvtpd2ps xmm0, xmm0
  00197	f3 0f 5e c4	 divss	 xmm0, xmm4
  0019b	f3 0f 59 c2	 mulss	 xmm0, xmm2
  0019f	f3 0f 58 c8	 addss	 xmm1, xmm0
  001a3	f3 0f 2c d1	 cvttss2si edx, xmm1
  001a7	eb 03		 jmp	 SHORT $LN18@GetMeleeSk
$LN51@GetMeleeSk:

; 1500 : 
; 1501 : 	if( pSkillProp->dwReferTarget2 == RT_ATTACK )

  001a9	8b 55 fc	 mov	 edx, DWORD PTR _nReferStat1$1$[ebp]
$LN18@GetMeleeSk:
  001ac	83 be dc 01 00
	00 01		 cmp	 DWORD PTR [esi+476], 1
  001b3	75 5e		 jne	 SHORT $LN20@GetMeleeSk

; 1502 : 		if( pSkillProp->dwReferValue2 != NULL_ID )

  001b5	8b b6 e4 01 00
	00		 mov	 esi, DWORD PTR [esi+484]
  001bb	83 fe ff	 cmp	 esi, -1
  001be	74 53		 je	 SHORT $LN20@GetMeleeSk

; 1503 : 			nReferStat2 = (int)( ((pSkillProp->dwReferValue2/10.0f)*nReferStat2) + (pAddSkillProp->dwSkillLvl * FLOAT(nReferStat2/50.0f)) );

  001c0	8b 47 08	 mov	 eax, DWORD PTR [edi+8]
  001c3	0f 57 c0	 xorps	 xmm0, xmm0
  001c6	0f 57 d2	 xorps	 xmm2, xmm2
  001c9	f3 0f 2a d1	 cvtsi2ss xmm2, ecx
  001cd	f2 0f 2a c0	 cvtsi2sd xmm0, eax
  001d1	c1 e8 1f	 shr	 eax, 31			; 0000001fH
  001d4	f2 0f 58 04 c5
	00 00 00 00	 addsd	 xmm0, QWORD PTR __xmm@41f00000000000000000000000000000[eax*8]
  001dd	66 0f 5a c8	 cvtpd2ps xmm1, xmm0
  001e1	0f 28 c2	 movaps	 xmm0, xmm2
  001e4	f3 0f 5e c3	 divss	 xmm0, xmm3
  001e8	f3 0f 59 c8	 mulss	 xmm1, xmm0
  001ec	0f 57 c0	 xorps	 xmm0, xmm0
  001ef	f2 0f 2a c6	 cvtsi2sd xmm0, esi
  001f3	c1 ee 1f	 shr	 esi, 31			; 0000001fH
  001f6	f2 0f 58 04 f5
	00 00 00 00	 addsd	 xmm0, QWORD PTR __xmm@41f00000000000000000000000000000[esi*8]
  001ff	66 0f 5a c0	 cvtpd2ps xmm0, xmm0
  00203	f3 0f 5e c4	 divss	 xmm0, xmm4
  00207	f3 0f 59 c2	 mulss	 xmm0, xmm2
  0020b	f3 0f 58 c8	 addss	 xmm1, xmm0
  0020f	f3 0f 2c c9	 cvttss2si ecx, xmm1
$LN20@GetMeleeSk:

; 1504 : 
; 1505 : 	nReferStat = nReferStat1 + nReferStat2;
; 1506 : 	float fPowerMin, fPowerMax;
; 1507 : 
; 1508 : 	DWORD dwSkillAbilityMin	= pAddSkillProp->dwAbilityMin;

  00213	8b 77 0c	 mov	 esi, DWORD PTR [edi+12]
  00216	8d 04 11	 lea	 eax, DWORD PTR [ecx+edx]

; 1509 : 	DWORD dwSkillAbilityMax	= pAddSkillProp->dwAbilityMax;
; 1510 : #if __VER >= 9	// __SKILL_0706
; 1511 : 	if( pInfo->pAttacker->IsPlayer() && pInfo->pDefender->IsPlayer() )

  00219	8b 4d 08	 mov	 ecx, DWORD PTR _pInfo$[ebp]
  0021c	89 45 fc	 mov	 DWORD PTR tv742[ebp], eax
  0021f	8b 47 10	 mov	 eax, DWORD PTR [edi+16]
  00222	89 45 f0	 mov	 DWORD PTR _dwSkillAbilityMax$1$[ebp], eax
  00225	8b 01		 mov	 eax, DWORD PTR [ecx]
  00227	83 b8 30 02 00
	00 00		 cmp	 DWORD PTR [eax+560], 0
  0022e	74 1a		 je	 SHORT $LN53@GetMeleeSk
  00230	8b 41 04	 mov	 eax, DWORD PTR [ecx+4]
  00233	83 b8 30 02 00
	00 00		 cmp	 DWORD PTR [eax+560], 0
  0023a	74 0e		 je	 SHORT $LN53@GetMeleeSk

; 1512 : 	{
; 1513 : 		dwSkillAbilityMin	= pAddSkillProp->dwAbilityMinPVP;

  0023c	8b b7 84 00 00
	00		 mov	 esi, DWORD PTR [edi+132]

; 1514 : 		dwSkillAbilityMax	= pAddSkillProp->dwAbilityMaxPVP;

  00242	8b bf 88 00 00
	00		 mov	 edi, DWORD PTR [edi+136]
  00248	eb 03		 jmp	 SHORT $LN21@GetMeleeSk
$LN53@GetMeleeSk:

; 1515 : 	}	
; 1516 : #endif	// __SKILL_0706
; 1517 : 
; 1518 : 	if( pWeapon )

  0024a	8b 7d f0	 mov	 edi, DWORD PTR _dwSkillAbilityMax$1$[ebp]
$LN21@GetMeleeSk:
  0024d	8b 55 f8	 mov	 edx, DWORD PTR _nSkillLv$1$[ebp]
  00250	8b 45 ec	 mov	 eax, DWORD PTR _pWeapon$1$[ebp]
  00253	83 c2 10	 add	 edx, 16			; 00000010H
  00256	85 c0		 test	 eax, eax
  00258	74 67		 je	 SHORT $LN22@GetMeleeSk

; 1519 : 	{
; 1520 : 		fPowerMin = (float)( ( ( nMin + ( (int)dwSkillAbilityMin + pWeapon->GetProp()->nAddSkillMin ) * 5 + nReferStat - 20 ) * ( 16 + nSkillLv ) / 13 ) );

  0025a	8b c8		 mov	 ecx, eax
  0025c	e8 00 00 00 00	 call	 ?GetPropA@CItemElem@@QAEPAUItemProp@@XZ ; CItemElem::GetPropA
  00261	8b 4d fc	 mov	 ecx, DWORD PTR tv742[ebp]
  00264	83 c6 fc	 add	 esi, -4			; fffffffcH
  00267	8b 80 00 01 00
	00		 mov	 eax, DWORD PTR [eax+256]
  0026d	03 c6		 add	 eax, esi
  0026f	8d 0c 81	 lea	 ecx, DWORD PTR [ecx+eax*4]
  00272	03 c8		 add	 ecx, eax
  00274	8b 45 f8	 mov	 eax, DWORD PTR _nSkillLv$1$[ebp]
  00277	03 4d e8	 add	 ecx, DWORD PTR _nMin$[ebp]
  0027a	83 c0 10	 add	 eax, 16			; 00000010H
  0027d	0f af c8	 imul	 ecx, eax
  00280	b8 4f ec c4 4e	 mov	 eax, 1321528399		; 4ec4ec4fH
  00285	f7 e9		 imul	 ecx

; 1521 : 		fPowerMax = (float)( ( ( nMax + ( (int)dwSkillAbilityMax + pWeapon->GetProp()->nAddSkillMax ) * 5 + nReferStat - 20 ) * ( 16 + nSkillLv) / 13 ) );

  00287	8b 4d ec	 mov	 ecx, DWORD PTR _pWeapon$1$[ebp]
  0028a	c1 fa 02	 sar	 edx, 2
  0028d	8b f2		 mov	 esi, edx
  0028f	c1 ee 1f	 shr	 esi, 31			; 0000001fH
  00292	03 f2		 add	 esi, edx
  00294	e8 00 00 00 00	 call	 ?GetPropA@CItemElem@@QAEPAUItemProp@@XZ ; CItemElem::GetPropA
  00299	8b 88 04 01 00
	00		 mov	 ecx, DWORD PTR [eax+260]
  0029f	8b 45 fc	 mov	 eax, DWORD PTR tv742[ebp]
  002a2	83 c1 fc	 add	 ecx, -4			; fffffffcH
  002a5	03 cf		 add	 ecx, edi
  002a7	8d 14 88	 lea	 edx, DWORD PTR [eax+ecx*4]
  002aa	8b 45 f8	 mov	 eax, DWORD PTR _nSkillLv$1$[ebp]
  002ad	03 d1		 add	 edx, ecx
  002af	83 c0 10	 add	 eax, 16			; 00000010H
  002b2	03 55 e4	 add	 edx, DWORD PTR _nMax$[ebp]
  002b5	0f af d0	 imul	 edx, eax
  002b8	b8 4f ec c4 4e	 mov	 eax, 1321528399		; 4ec4ec4fH
  002bd	f7 ea		 imul	 edx

; 1522 : 	}

  002bf	eb 40		 jmp	 SHORT $LN74@GetMeleeSk
$LN22@GetMeleeSk:

; 1523 : 	else
; 1524 : 	{
; 1525 : 		fPowerMin = (float)( ( ( nMin + (int)dwSkillAbilityMin * 5 + nReferStat - 20 ) * ( 16 + nSkillLv ) / 13 ) );

  002c1	8b 4d fc	 mov	 ecx, DWORD PTR tv742[ebp]
  002c4	8d 46 fc	 lea	 eax, DWORD PTR [esi-4]
  002c7	8d 0c 81	 lea	 ecx, DWORD PTR [ecx+eax*4]
  002ca	03 c8		 add	 ecx, eax
  002cc	b8 4f ec c4 4e	 mov	 eax, 1321528399		; 4ec4ec4fH
  002d1	03 4d e8	 add	 ecx, DWORD PTR _nMin$[ebp]
  002d4	0f af ca	 imul	 ecx, edx
  002d7	f7 e9		 imul	 ecx

; 1526 : 		fPowerMax = (float)( ( ( nMax + (int)dwSkillAbilityMax * 5 + nReferStat - 20 ) * ( 16 + nSkillLv ) / 13 ) );

  002d9	8b 4d fc	 mov	 ecx, DWORD PTR tv742[ebp]
  002dc	8d 47 fc	 lea	 eax, DWORD PTR [edi-4]
  002df	c1 fa 02	 sar	 edx, 2
  002e2	8b f2		 mov	 esi, edx
  002e4	c1 ee 1f	 shr	 esi, 31			; 0000001fH
  002e7	8d 0c 81	 lea	 ecx, DWORD PTR [ecx+eax*4]
  002ea	03 f2		 add	 esi, edx
  002ec	03 c8		 add	 ecx, eax
  002ee	8b 45 f8	 mov	 eax, DWORD PTR _nSkillLv$1$[ebp]
  002f1	03 4d e4	 add	 ecx, DWORD PTR _nMax$[ebp]
  002f4	83 c0 10	 add	 eax, 16			; 00000010H
  002f7	0f af c8	 imul	 ecx, eax
  002fa	b8 4f ec c4 4e	 mov	 eax, 1321528399		; 4ec4ec4fH
  002ff	f7 e9		 imul	 ecx
$LN74@GetMeleeSk:

; 1527 : 	}
; 1528 : 
; 1529 : 	int nWeaponDamage = GetPlusWeaponATK( pItemProp->dwWeaponType );

  00301	c1 fa 02	 sar	 edx, 2
  00304	8b cb		 mov	 ecx, ebx
  00306	8b c2		 mov	 eax, edx
  00308	c1 e8 1f	 shr	 eax, 31			; 0000001fH
  0030b	03 c2		 add	 eax, edx
  0030d	89 45 08	 mov	 DWORD PTR $T1[ebp], eax
  00310	8b 45 f4	 mov	 eax, DWORD PTR _pItemProp$1$[ebp]
  00313	ff b0 0c 01 00
	00		 push	 DWORD PTR [eax+268]
  00319	e8 00 00 00 00	 call	 ?GetPlusWeaponATK@CMover@@QAEHK@Z ; CMover::GetPlusWeaponATK
  0031e	66 0f 6e c6	 movd	 xmm0, esi
  00322	8b f8		 mov	 edi, eax
  00324	0f 5b c0	 cvtdq2ps xmm0, xmm0

; 1530 : 
; 1531 : 	fPowerMin = (float)( GetParam( DST_CHR_DMG, (int)( fPowerMin ) ) + nWeaponDamage );

  00327	f3 0f 2c c8	 cvttss2si ecx, xmm0
  0032b	51		 push	 ecx
  0032c	6a 3f		 push	 63			; 0000003fH
  0032e	8b cb		 mov	 ecx, ebx
  00330	e8 00 00 00 00	 call	 ?GetParam@CMover@@QAEHHH@Z ; CMover::GetParam
  00335	66 0f 6e 45 08	 movd	 xmm0, DWORD PTR $T1[ebp]

; 1532 : 	fPowerMax = (float)( GetParam( DST_CHR_DMG, (int)( fPowerMax ) ) + nWeaponDamage );

  0033a	8b cb		 mov	 ecx, ebx
  0033c	0f 5b c0	 cvtdq2ps xmm0, xmm0
  0033f	8d 34 07	 lea	 esi, DWORD PTR [edi+eax]
  00342	f3 0f 2c c0	 cvttss2si eax, xmm0
  00346	50		 push	 eax
  00347	6a 3f		 push	 63			; 0000003fH
  00349	e8 00 00 00 00	 call	 ?GetParam@CMover@@QAEHHH@Z ; CMover::GetParam

; 1533 : 
; 1534 : 	float fMinMax = (fPowerMax - fPowerMin) + 1;

  0034e	f3 0f 10 15 00
	00 00 00	 movss	 xmm2, DWORD PTR __real@3f800000
  00356	03 c7		 add	 eax, edi
  00358	66 0f 6e c6	 movd	 xmm0, esi
  0035c	0f 5b c0	 cvtdq2ps xmm0, xmm0
  0035f	66 0f 6e c8	 movd	 xmm1, eax
  00363	0f 5b c9	 cvtdq2ps xmm1, xmm1
  00366	f3 0f 5c c8	 subss	 xmm1, xmm0
  0036a	0f 57 c0	 xorps	 xmm0, xmm0
  0036d	f3 0f 58 ca	 addss	 xmm1, xmm2

; 1535 : 	if( fMinMax <= 0 )

  00371	0f 2f c1	 comiss	 xmm0, xmm1
  00374	72 03		 jb	 SHORT $LN24@GetMeleeSk

; 1536 : 		fMinMax = 1;

  00376	0f 28 ca	 movaps	 xmm1, xmm2
$LN24@GetMeleeSk:
; File C:\IAGOS\server\v18\Source\Source\_Common\xUtil.h

; 16   : 	g_next = g_next * 1103515245 + 12345;// + nRandomSeed[ i++ ];

  00379	69 3d 00 00 00
	00 6d 4e c6 41	 imul	 edi, DWORD PTR ?g_next@@3KA, 1103515245 ; g_next
; File C:\IAGOS\server\v18\Source\Source\_Common\MoverAttack.cpp

; 1537 : 	float fPower = (float)( fPowerMin + xRandom( (DWORD)( fMinMax ) ) );

  00383	0f 28 c1	 movaps	 xmm0, xmm1
; File C:\IAGOS\server\v18\Source\Source\_Common\xUtil.h

; 16   : 	g_next = g_next * 1103515245 + 12345;// + nRandomSeed[ i++ ];

  00386	81 c7 39 30 00
	00		 add	 edi, 12345		; 00003039H
  0038c	89 3d 00 00 00
	00		 mov	 DWORD PTR ?g_next@@3KA, edi ; g_next
; File C:\IAGOS\server\v18\Source\Source\_Common\MoverAttack.cpp

; 1537 : 	float fPower = (float)( fPowerMin + xRandom( (DWORD)( fMinMax ) ) );

  00392	e8 00 00 00 00	 call	 __ftol3
  00397	8b c8		 mov	 ecx, eax
  00399	66 0f 6e ce	 movd	 xmm1, esi
  0039d	8b c7		 mov	 eax, edi
  0039f	33 d2		 xor	 edx, edx
  003a1	f7 f1		 div	 ecx
  003a3	0f 5b c9	 cvtdq2ps xmm1, xmm1
  003a6	5f		 pop	 edi

; 1538 : 
; 1539 : 	return (int)fPower;
; 1540 : }

  003a7	5e		 pop	 esi
  003a8	5b		 pop	 ebx
  003a9	66 0f 6e c2	 movd	 xmm0, edx
  003ad	f3 0f e6 c0	 cvtdq2pd xmm0, xmm0
  003b1	c1 ea 1f	 shr	 edx, 31			; 0000001fH
  003b4	f2 0f 58 04 d5
	00 00 00 00	 addsd	 xmm0, QWORD PTR __xmm@41f00000000000000000000000000000[edx*8]
  003bd	66 0f 5a c0	 cvtpd2ps xmm0, xmm0
  003c1	f3 0f 58 c1	 addss	 xmm0, xmm1
  003c5	f3 0f 2c c0	 cvttss2si eax, xmm0
  003c9	8b e5		 mov	 esp, ebp
  003cb	5d		 pop	 ebp
  003cc	c2 04 00	 ret	 4
$LN7@GetMeleeSk:

; 1468 : 	{
; 1469 : 		Error( "CMover::GetMeleeSkillPower() - nSkill : %d, Name : %s, Item : %d",

  003cf	8b 32		 mov	 esi, DWORD PTR [edx]
  003d1	eb 02		 jmp	 SHORT $LN27@GetMeleeSk
$LN26@GetMeleeSk:
  003d3	33 f6		 xor	 esi, esi
$LN27@GetMeleeSk:
  003d5	8b 45 08	 mov	 eax, DWORD PTR _pInfo$[ebp]
  003d8	8b 08		 mov	 ecx, DWORD PTR [eax]
  003da	85 c9		 test	 ecx, ecx
  003dc	74 09		 je	 SHORT $LN28@GetMeleeSk
  003de	6a 00		 push	 0
  003e0	e8 00 00 00 00	 call	 ?GetName@CMover@@QAEPBDH@Z ; CMover::GetName
  003e5	eb 05		 jmp	 SHORT $LN29@GetMeleeSk
$LN28@GetMeleeSk:
  003e7	b8 00 00 00 00	 mov	 eax, OFFSET ??_C@_03MNDEGCIG@xxx@
$LN29@GetMeleeSk:
  003ec	56		 push	 esi
  003ed	50		 push	 eax
  003ee	57		 push	 edi
  003ef	68 00 00 00 00	 push	 OFFSET ??_C@_0EB@EBLOEGFE@CMover?3?3GetMeleeSkillPower?$CI?$CJ?5?9?5@
  003f4	e8 00 00 00 00	 call	 ?Error@@YAPBDPBDZZ	; Error
  003f9	83 c4 10	 add	 esp, 16			; 00000010H
$LN72@GetMeleeSk:

; 1538 : 
; 1539 : 	return (int)fPower;
; 1540 : }

  003fc	5f		 pop	 edi
  003fd	5e		 pop	 esi
  003fe	b8 01 00 00 00	 mov	 eax, 1
  00403	5b		 pop	 ebx
  00404	8b e5		 mov	 esp, ebp
  00406	5d		 pop	 ebp
  00407	c2 04 00	 ret	 4
  0040a	66 90		 npad	 2
$LN46@GetMeleeSk:
  0040c	00 00 00 00	 DD	 $LN9@GetMeleeSk
  00410	00 00 00 00	 DD	 $LN10@GetMeleeSk
  00414	00 00 00 00	 DD	 $LN11@GetMeleeSk
  00418	00 00 00 00	 DD	 $LN12@GetMeleeSk
$LN47@GetMeleeSk:
  0041c	00 00 00 00	 DD	 $LN13@GetMeleeSk
  00420	00 00 00 00	 DD	 $LN14@GetMeleeSk
  00424	00 00 00 00	 DD	 $LN15@GetMeleeSk
  00428	00 00 00 00	 DD	 $LN16@GetMeleeSk
?GetMeleeSkillPower@CMover@@QAEHPAUATTACK_INFO@@@Z ENDP	; CMover::GetMeleeSkillPower
_TEXT	ENDS
; Function compile flags: /Ogtp
; File C:\IAGOS\server\v18\Source\Source\_Common\MoverAttack.cpp
;	COMDAT ?GetShowDefense@CMover@@QAEHH@Z
_TEXT	SEGMENT
_info$ = -24						; size = 24
_bRandom$ = 8						; size = 4
?GetShowDefense@CMover@@QAEHH@Z PROC			; CMover::GetShowDefense, COMDAT
; _this$ = ecx

; 224  : {

  00000	55		 push	 ebp
  00001	8b ec		 mov	 ebp, esp
  00003	83 ec 18	 sub	 esp, 24			; 00000018H
  00006	0f 57 c0	 xorps	 xmm0, xmm0

; 225  : 	ATTACK_INFO info;
; 226  : 	memset( &info, 0x00, sizeof(info) );
; 227  : 	info.dwAtkFlags = AF_GENERIC;
; 228  : 
; 229  : 	return CalcDefense( &info, FALSE );   // FALSE - ąćľî ĂÖ´ë/ĂÖĽŇŔÇ Ćň±Ő°ŞŔ» ľň°Ú´Ů.      

  00009	8d 45 e8	 lea	 eax, DWORD PTR _info$[ebp]
  0000c	6a 00		 push	 0
  0000e	0f 11 45 e8	 movups	 XMMWORD PTR _info$[ebp], xmm0
  00012	50		 push	 eax
  00013	66 0f d6 45 f8	 movq	 QWORD PTR _info$[ebp+16], xmm0
  00018	c7 45 f0 01 00
	00 00		 mov	 DWORD PTR _info$[ebp+8], 1
  0001f	e8 00 00 00 00	 call	 ?CalcDefense@CMover@@QAEHPAUATTACK_INFO@@H@Z ; CMover::CalcDefense

; 230  : }

  00024	8b e5		 mov	 esp, ebp
  00026	5d		 pop	 ebp
  00027	c2 04 00	 ret	 4
?GetShowDefense@CMover@@QAEHH@Z ENDP			; CMover::GetShowDefense
_TEXT	ENDS
; Function compile flags: /Ogtp
; File C:\IAGOS\server\v18\Source\Source\_Common\MoverAttack.cpp
; File C:\IAGOS\server\v18\Source\Source\_Common\xUtil.h
; File C:\IAGOS\server\v18\Source\Source\_Common\MoverAttack.cpp
;	COMDAT ?GetDefenseByItem@CMover@@QAEHH@Z
_TEXT	SEGMENT
_bRandom$ = 8						; size = 4
?GetDefenseByItem@CMover@@QAEHH@Z PROC			; CMover::GetDefenseByItem, COMDAT
; _this$ = ecx

; 215  : {

  00000	55		 push	 ebp
  00001	8b ec		 mov	 ebp, esp
  00003	56		 push	 esi

; 216  : 	int nValue = m_nDefenseMax - m_nDefenseMin;

  00004	8b b1 0c 06 00
	00		 mov	 esi, DWORD PTR [ecx+1548]
  0000a	2b b1 08 06 00
	00		 sub	 esi, DWORD PTR [ecx+1544]

; 217  : 	if( bRandom )

  00010	83 7d 08 00	 cmp	 DWORD PTR _bRandom$[ebp], 0
  00014	74 29		 je	 SHORT $LN2@GetDefense

; 218  : 		return m_nDefenseMin + ( nValue > 0 ? xRandom( nValue ) : 0 );

  00016	33 d2		 xor	 edx, edx
  00018	85 f6		 test	 esi, esi
  0001a	7e 16		 jle	 SHORT $LN6@GetDefense
; File C:\IAGOS\server\v18\Source\Source\_Common\xUtil.h

; 16   : 	g_next = g_next * 1103515245 + 12345;// + nRandomSeed[ i++ ];

  0001c	69 05 00 00 00
	00 6d 4e c6 41	 imul	 eax, DWORD PTR ?g_next@@3KA, 1103515245 ; g_next
  00026	05 39 30 00 00	 add	 eax, 12345		; 00003039H
  0002b	a3 00 00 00 00	 mov	 DWORD PTR ?g_next@@3KA, eax ; g_next
  00030	f7 f6		 div	 esi
$LN6@GetDefense:
; File C:\IAGOS\server\v18\Source\Source\_Common\MoverAttack.cpp

; 218  : 		return m_nDefenseMin + ( nValue > 0 ? xRandom( nValue ) : 0 );

  00032	8b 81 08 06 00
	00		 mov	 eax, DWORD PTR [ecx+1544]
  00038	03 c2		 add	 eax, edx
  0003a	5e		 pop	 esi

; 221  : }

  0003b	5d		 pop	 ebp
  0003c	c2 04 00	 ret	 4
$LN2@GetDefense:

; 219  : 	else
; 220  : 		return m_nDefenseMin + ( nValue / 2 );

  0003f	8b c6		 mov	 eax, esi
  00041	99		 cdq
  00042	2b c2		 sub	 eax, edx
  00044	d1 f8		 sar	 eax, 1
  00046	03 81 08 06 00
	00		 add	 eax, DWORD PTR [ecx+1544]
  0004c	5e		 pop	 esi

; 221  : }

  0004d	5d		 pop	 ebp
  0004e	c2 04 00	 ret	 4
?GetDefenseByItem@CMover@@QAEHH@Z ENDP			; CMover::GetDefenseByItem
_TEXT	ENDS
; Function compile flags: /Ogtp
; File C:\IAGOS\server\v18\Source\Source\_Common\MoverAttack.cpp
; File C:\IAGOS\server\v18\Source\Source\_Common\Mover.h
; File C:\IAGOS\server\v18\Source\Source\_Common\MoverAttack.cpp
; File C:\IAGOS\server\v18\Source\Source\_Common\Mover.h
; File C:\IAGOS\server\v18\Source\Source\_Common\MoverAttack.cpp
; File C:\IAGOS\server\v18\Source\Source\_Common\xUtil.h
; File C:\IAGOS\server\v18\Source\Source\_Common\MoverAttack.cpp
; File C:\IAGOS\server\v18\Source\Source\_Common\xUtil.h
; File C:\IAGOS\server\v18\Source\Source\_Common\MoverAttack.cpp
; File C:\IAGOS\server\v18\Source\Source\_Common\xUtil.h
; File C:\IAGOS\server\v18\Source\Source\_Common\MoverAttack.cpp
;	COMDAT ?GetHitPower@CMover@@QAEHPAUATTACK_INFO@@@Z
_TEXT	SEGMENT
_nATKFactor$ = -16					; size = 4
_nMin$ = -12						; size = 4
_nMax$ = -8						; size = 4
_nMax$1$ = -8						; size = 4
_fMax$1$ = -4						; size = 4
_pInfo$ = 8						; size = 4
_nMin$1$ = 8						; size = 4
_fMin$1$ = 8						; size = 4
tv347 = 8						; size = 4
tv349 = 8						; size = 4
?GetHitPower@CMover@@QAEHPAUATTACK_INFO@@@Z PROC	; CMover::GetHitPower, COMDAT
; _this$ = ecx

; 1350 : {

  00000	55		 push	 ebp
  00001	8b ec		 mov	 ebp, esp
  00003	83 ec 10	 sub	 esp, 16			; 00000010H
  00006	56		 push	 esi

; 1351 : 	int nMin, nMax, nATKFactor, nATK;
; 1352 : 	GetDamagePropertyFactor( pInfo->pDefender, &nATKFactor, &pInfo->nDEFFactor, pInfo->nParts );

  00007	8b 75 08	 mov	 esi, DWORD PTR _pInfo$[ebp]
  0000a	57		 push	 edi
  0000b	8b f9		 mov	 edi, ecx
  0000d	ff 76 10	 push	 DWORD PTR [esi+16]
  00010	8d 46 14	 lea	 eax, DWORD PTR [esi+20]
  00013	50		 push	 eax
  00014	8d 45 f0	 lea	 eax, DWORD PTR _nATKFactor$[ebp]
  00017	50		 push	 eax
  00018	ff 76 04	 push	 DWORD PTR [esi+4]
  0001b	e8 00 00 00 00	 call	 ?GetDamagePropertyFactor@CMover@@QAEXPAV1@PAH1H@Z ; CMover::GetDamagePropertyFactor

; 1353 : 
; 1354 : 	GetHitMinMax( &nMin, &nMax, pInfo );

  00020	56		 push	 esi
  00021	8d 45 f8	 lea	 eax, DWORD PTR _nMax$[ebp]
  00024	8b cf		 mov	 ecx, edi
  00026	50		 push	 eax
  00027	8d 45 f4	 lea	 eax, DWORD PTR _nMin$[ebp]
  0002a	50		 push	 eax
  0002b	e8 00 00 00 00	 call	 ?GetHitMinMax@CMover@@QAEXPAH0PAUATTACK_INFO@@@Z ; CMover::GetHitMinMax

; 1355 : 
; 1356 : 	if( IsCriticalAttack( pInfo->pDefender, pInfo->dwAtkFlags ) )

  00030	ff 76 08	 push	 DWORD PTR [esi+8]
  00033	8b cf		 mov	 ecx, edi
  00035	ff 76 04	 push	 DWORD PTR [esi+4]
  00038	e8 00 00 00 00	 call	 ?IsCriticalAttack@CMover@@QAEHPAV1@K@Z ; CMover::IsCriticalAttack
  0003d	85 c0		 test	 eax, eax
  0003f	0f 84 45 01 00
	00		 je	 $LN25@GetHitPowe

; 1357 : 	{
; 1358 : 		pInfo->dwAtkFlags |= AF_CRITICAL;
; 1359 : 
; 1360 : 		float fMin = 1.1f;
; 1361 : 		float fMax = 1.4f;
; 1362 : 		if( GetLevel() > pInfo->pDefender->GetLevel() )  

  00045	8b 4e 04	 mov	 ecx, DWORD PTR [esi+4]
  00048	81 4e 08 c0 00
	00 00		 or	 DWORD PTR [esi+8], 192	; 000000c0H
  0004f	f3 0f 10 05 00
	00 00 00	 movss	 xmm0, DWORD PTR __real@3f8ccccd
  00057	f3 0f 10 0d 00
	00 00 00	 movss	 xmm1, DWORD PTR __real@3fb33333
  0005f	8b 87 d8 05 00
	00		 mov	 eax, DWORD PTR [edi+1496]
  00065	f3 0f 11 45 08	 movss	 DWORD PTR _fMin$1$[ebp], xmm0
  0006a	f3 0f 11 4d fc	 movss	 DWORD PTR _fMax$1$[ebp], xmm1
  0006f	3b 81 d8 05 00
	00		 cmp	 eax, DWORD PTR [ecx+1496]
  00075	7e 3e		 jle	 SHORT $LN5@GetHitPowe
; File C:\IAGOS\server\v18\Source\Source\_Common\Mover.h

; 1015 : 	BOOL			IsNPC()				{ return !m_bPlayer; }

  00077	83 b9 30 02 00
	00 00		 cmp	 DWORD PTR [ecx+560], 0
; File C:\IAGOS\server\v18\Source\Source\_Common\MoverAttack.cpp

; 1365 : 			if( pInfo->pDefender->IsNPC() )

  0007e	75 1a		 jne	 SHORT $LN4@GetHitPowe

; 1366 : #endif	//__PVPDEMAGE0608	//	9th PVP DEMAGE edit 
; 1367 : 			{
; 1368 : 				fMin = 1.2f;

  00080	f3 0f 10 05 00
	00 00 00	 movss	 xmm0, DWORD PTR __real@3f99999a
  00088	f3 0f 11 45 08	 movss	 DWORD PTR _fMin$1$[ebp], xmm0

; 1369 : 				fMax = 2.0f;

  0008d	f3 0f 10 05 00
	00 00 00	 movss	 xmm0, DWORD PTR __real@40000000
  00095	f3 0f 11 45 fc	 movss	 DWORD PTR _fMax$1$[ebp], xmm0
$LN4@GetHitPowe:
; File C:\IAGOS\server\v18\Source\Source\_Common\Mover.h

; 1015 : 	BOOL			IsNPC()				{ return !m_bPlayer; }

  0009a	83 bf 30 02 00
	00 00		 cmp	 DWORD PTR [edi+560], 0
; File C:\IAGOS\server\v18\Source\Source\_Common\MoverAttack.cpp

; 1371 : 			if( IsNPC() )

  000a1	75 12		 jne	 SHORT $LN5@GetHitPowe

; 1372 : 			{
; 1373 : 				fMin = 1.4f;
; 1374 : 				fMax = 1.8f;

  000a3	f3 0f 10 05 00
	00 00 00	 movss	 xmm0, DWORD PTR __real@3fe66666
  000ab	f3 0f 11 4d 08	 movss	 DWORD PTR _fMin$1$[ebp], xmm1
  000b0	f3 0f 11 45 fc	 movss	 DWORD PTR _fMax$1$[ebp], xmm0
$LN5@GetHitPowe:

; 1379 : 		float fCriticalBonus	= 1 + (float)GetParam( DST_CRITICAL_BONUS, 0  ) / 100.0F;

  000b5	53		 push	 ebx
  000b6	6a 00		 push	 0
  000b8	6a 4d		 push	 77			; 0000004dH
  000ba	8b cf		 mov	 ecx, edi
  000bc	e8 00 00 00 00	 call	 ?GetParam@CMover@@QAEHHH@Z ; CMover::GetParam

; 1380 : #ifdef __JEFF_11
; 1381 : 		if( fCriticalBonus < 0.1F )

  000c1	f3 0f 10 0d 00
	00 00 00	 movss	 xmm1, DWORD PTR __real@3dcccccd
; File C:\IAGOS\server\v18\Source\Source\_Common\xUtil.h

; 16   : 	g_next = g_next * 1103515245 + 12345;// + nRandomSeed[ i++ ];

  000c9	69 0d 00 00 00
	00 6d 4e c6 41	 imul	 ecx, DWORD PTR ?g_next@@3KA, 1103515245 ; g_next
; File C:\IAGOS\server\v18\Source\Source\_Common\MoverAttack.cpp

; 1389 : 		ItemProp* pItemProp = GetActiveHandItemProp();			//żäżä°ř°ÝŔĚłŞ ąÝ»ç·ů´Â łŻ¸®Áö ľĘŔ˝ 

  000d3	6a 0a		 push	 10			; 0000000aH
  000d5	66 0f 6e c0	 movd	 xmm0, eax
  000d9	0f 5b c0	 cvtdq2ps xmm0, xmm0
; File C:\IAGOS\server\v18\Source\Source\_Common\xUtil.h

; 16   : 	g_next = g_next * 1103515245 + 12345;// + nRandomSeed[ i++ ];

  000dc	81 c1 39 30 00
	00		 add	 ecx, 12345		; 00003039H
  000e2	89 0d 00 00 00
	00		 mov	 DWORD PTR ?g_next@@3KA, ecx ; g_next
; File C:\IAGOS\server\v18\Source\Source\_Common\MoverAttack.cpp

; 1379 : 		float fCriticalBonus	= 1 + (float)GetParam( DST_CRITICAL_BONUS, 0  ) / 100.0F;

  000e8	f3 0f 5e 05 00
	00 00 00	 divss	 xmm0, DWORD PTR __real@42c80000
  000f0	f3 0f 58 05 00
	00 00 00	 addss	 xmm0, DWORD PTR __real@3f800000

; 1380 : #ifdef __JEFF_11
; 1381 : 		if( fCriticalBonus < 0.1F )

  000f8	f3 0f 5f c8	 maxss	 xmm1, xmm0
  000fc	66 0f 6e 45 f4	 movd	 xmm0, DWORD PTR _nMin$[ebp]

; 1382 : 			fCriticalBonus	= 0.1F;
; 1383 : #endif	// __JEFF_11
; 1384 : 		nMin	= (int)( nMin * fMin * fCriticalBonus );

  00101	0f 5b c0	 cvtdq2ps xmm0, xmm0
  00104	f3 0f 59 45 08	 mulss	 xmm0, DWORD PTR _fMin$1$[ebp]
  00109	f3 0f 59 c1	 mulss	 xmm0, xmm1
  0010d	f3 0f 2c c0	 cvttss2si eax, xmm0
  00111	66 0f 6e 45 f8	 movd	 xmm0, DWORD PTR _nMax$[ebp]

; 1385 : 		nMax	= (int)( nMax * fMax * fCriticalBonus );

  00116	0f 5b c0	 cvtdq2ps xmm0, xmm0
  00119	89 45 08	 mov	 DWORD PTR _nMin$1$[ebp], eax
  0011c	f3 0f 59 45 fc	 mulss	 xmm0, DWORD PTR _fMax$1$[ebp]
  00121	f3 0f 59 c1	 mulss	 xmm0, xmm1
  00125	f3 0f 2c c0	 cvttss2si eax, xmm0
  00129	89 45 f8	 mov	 DWORD PTR _nMax$1$[ebp], eax
; File C:\IAGOS\server\v18\Source\Source\_Common\xUtil.h

; 22   : 	return  xRand() % num;

  0012c	b8 1f 85 eb 51	 mov	 eax, 1374389535		; 51eb851fH
  00131	f7 e1		 mul	 ecx
  00133	c1 ea 05	 shr	 edx, 5
  00136	6b c2 64	 imul	 eax, edx, 100
  00139	2b c8		 sub	 ecx, eax
; File C:\IAGOS\server\v18\Source\Source\_Common\MoverAttack.cpp

; 1388 : 		BOOL bFlyByAttack = xRandom(100) < 15;

  0013b	83 f9 0f	 cmp	 ecx, 15			; 0000000fH

; 1389 : 		ItemProp* pItemProp = GetActiveHandItemProp();			//żäżä°ř°ÝŔĚłŞ ąÝ»ç·ů´Â łŻ¸®Áö ľĘŔ˝ 

  0013e	8b cf		 mov	 ecx, edi
  00140	1b db		 sbb	 ebx, ebx
  00142	f7 db		 neg	 ebx
  00144	e8 00 00 00 00	 call	 ?GetActiveHandItemProp@CMover@@QAEPAUItemProp@@H@Z ; CMover::GetActiveHandItemProp

; 1390 : 		if( pItemProp && pItemProp->dwWeaponType == WT_MELEE_YOYO || (pInfo->dwAtkFlags & AF_FORCE) )

  00149	85 c0		 test	 eax, eax
  0014b	74 09		 je	 SHORT $LN9@GetHitPowe
  0014d	83 b8 0c 01 00
	00 14		 cmp	 DWORD PTR [eax+268], 20	; 00000014H
  00154	74 09		 je	 SHORT $LN23@GetHitPowe
$LN9@GetHitPowe:
  00156	f7 46 08 00 20
	00 00		 test	 DWORD PTR [esi+8], 8192	; 00002000H
  0015d	74 02		 je	 SHORT $LN7@GetHitPowe
$LN23@GetHitPowe:

; 1391 : 			bFlyByAttack = FALSE;

  0015f	33 db		 xor	 ebx, ebx
$LN7@GetHitPowe:

; 1392 : 		if(pInfo->pDefender->IsPlayer() )

  00161	8b 4e 04	 mov	 ecx, DWORD PTR [esi+4]
  00164	8b b9 30 02 00
	00		 mov	 edi, DWORD PTR [ecx+560]

; 1393 : 			bFlyByAttack = FALSE;
; 1394 : 
; 1395 : 		if( pInfo->pDefender->CanFlyByAttack() && bFlyByAttack )

  0016a	e8 00 00 00 00	 call	 ?CanFlyByAttack@CMover@@QAEHXZ ; CMover::CanFlyByAttack
  0016f	85 c0		 test	 eax, eax
  00171	74 22		 je	 SHORT $LN27@GetHitPowe
  00173	33 c0		 xor	 eax, eax
  00175	85 ff		 test	 edi, edi
  00177	0f 44 c3	 cmove	 eax, ebx
  0017a	85 c0		 test	 eax, eax
  0017c	8b 45 08	 mov	 eax, DWORD PTR _nMin$1$[ebp]
  0017f	74 17		 je	 SHORT $LN36@GetHitPowe

; 1396 : 			pInfo->dwAtkFlags |= AF_FLYING;

  00181	81 4e 08 00 00
	00 10		 or	 DWORD PTR [esi+8], 268435456 ; 10000000H
  00188	eb 0e		 jmp	 SHORT $LN36@GetHitPowe
$LN25@GetHitPowe:

; 1355 : 
; 1356 : 	if( IsCriticalAttack( pInfo->pDefender, pInfo->dwAtkFlags ) )

  0018a	8b 45 f8	 mov	 eax, DWORD PTR _nMax$[ebp]
  0018d	89 45 f8	 mov	 DWORD PTR _nMax$1$[ebp], eax
  00190	8b 45 f4	 mov	 eax, DWORD PTR _nMin$[ebp]

; 1393 : 			bFlyByAttack = FALSE;
; 1394 : 
; 1395 : 		if( pInfo->pDefender->CanFlyByAttack() && bFlyByAttack )

  00193	eb 04		 jmp	 SHORT $LN11@GetHitPowe
$LN27@GetHitPowe:
  00195	8b 45 08	 mov	 eax, DWORD PTR _nMin$1$[ebp]
$LN36@GetHitPowe:
  00198	5b		 pop	 ebx
$LN11@GetHitPowe:

; 1397 : #else //__FLYBYATTACK0608	//	9th FlyByAttack edit
; 1398 : 		BOOL bFlyByAttack = xRandom(100) < 30;
; 1399 : 		ItemProp* pItemProp = GetActiveHandItemProp();			//żäżä°ř°ÝŔĚłŞ ąÝ»ç·ů´Â łŻ¸®Áö ľĘŔ˝ 
; 1400 : 		if( pItemProp && pItemProp->dwWeaponType == WT_MELEE_YOYO || (pInfo->dwAtkFlags & AF_FORCE) )
; 1401 : 			bFlyByAttack = FALSE;
; 1402 : 		if( pInfo->pDefender->CanFlyByAttack() && bFlyByAttack )
; 1403 : 			pInfo->dwAtkFlags |= AF_FLYING;
; 1404 : #endif	//__FLYBYATTACK0608	//	9th FlyByAttack edit
; 1405 : 	}		
; 1406 : 
; 1407 : 	nATK = xRandom( nMin, nMax );						// °ř°Ý·Âżˇ ·Ł´ýŔűżë  

  00199	ff 75 f8	 push	 DWORD PTR _nMax$1$[ebp]
  0019c	50		 push	 eax
  0019d	e8 00 00 00 00	 call	 ?xRandom@@YAKKK@Z	; xRandom
  001a2	83 c4 08	 add	 esp, 8

; 1408 : #if __VER >= 14 // __EXT_ATTRIBUTE
; 1409 : 	nATK = MulDiv( nATK, nATKFactor, 10000 );				// 14Â÷ şÎĹÍ´Â n/10000 °ŞŔ¸·Î şŻ°ć

  001a5	68 10 27 00 00	 push	 10000			; 00002710H
  001aa	ff 75 f0	 push	 DWORD PTR _nATKFactor$[ebp]
  001ad	50		 push	 eax
  001ae	ff 15 00 00 00
	00		 call	 DWORD PTR __imp__MulDiv@12

; 1410 : #else // __EXT_ATTRIBUTE
; 1411 : 	nATK = MulDiv( nATK, nATKFactor, 100 );				// ĽÓĽş »óĽşżˇŔÇÇŃ ĆŃĹÍ¸¦ °öÇŃ´Ů. nATKFactor 0-100»çŔĚŔÇ ĆŰĽľĆ®°Ş  
; 1412 : #endif // __EXT_ATTRIBUTE
; 1413 : 	if( pInfo->IsRangeAttack() )						// ÇĂ·ąŔĚľîŔÇ żř°Ĺ¸® °ř°ÝŔÇ °ćżě 

  001b4	8b ce		 mov	 ecx, esi
  001b6	8b f8		 mov	 edi, eax
  001b8	e8 00 00 00 00	 call	 ?IsRangeAttack@ATTACK_INFO@@QBEHXZ ; ATTACK_INFO::IsRangeAttack
  001bd	85 c0		 test	 eax, eax
  001bf	74 2f		 je	 SHORT $LN24@GetHitPowe

; 1414 : 		nATK	= (int)( nATK * GetChargeMultiplier( pInfo->GetChargeLevel() ) );		// ĂćŔü·ąş§żˇ ŔÇÇŃ ÁőĆřĂł¸® 

  001c1	8b ce		 mov	 ecx, esi
  001c3	e8 00 00 00 00	 call	 ?GetChargeLevel@ATTACK_INFO@@QBEHXZ ; ATTACK_INFO::GetChargeLevel
  001c8	50		 push	 eax
  001c9	e8 00 00 00 00	 call	 ?GetChargeMultiplier@@YAMH@Z ; GetChargeMultiplier
  001ce	66 0f 6e c7	 movd	 xmm0, edi
  001d2	83 c4 04	 add	 esp, 4
  001d5	0f 5b c0	 cvtdq2ps xmm0, xmm0
  001d8	5f		 pop	 edi

; 1418 : }

  001d9	5e		 pop	 esi
  001da	f3 0f 11 45 08	 movss	 DWORD PTR tv349[ebp], xmm0
  001df	d8 4d 08	 fmul	 DWORD PTR tv349[ebp]
  001e2	d9 5d 08	 fstp	 DWORD PTR tv347[ebp]
  001e5	f3 0f 2c 45 08	 cvttss2si eax, DWORD PTR tv347[ebp]
  001ea	8b e5		 mov	 esp, ebp
  001ec	5d		 pop	 ebp
  001ed	c2 04 00	 ret	 4
$LN24@GetHitPowe:

; 1415 : 
; 1416 : //	TRACE("nMin:%d nMax:%d nATK:%d nATKFactor:%d\n", nMin, nMax, nATK, nATKFactor ); 
; 1417 : 	return nATK;

  001f0	8b c7		 mov	 eax, edi
  001f2	5f		 pop	 edi

; 1418 : }

  001f3	5e		 pop	 esi
  001f4	8b e5		 mov	 esp, ebp
  001f6	5d		 pop	 ebp
  001f7	c2 04 00	 ret	 4
?GetHitPower@CMover@@QAEHPAUATTACK_INFO@@@Z ENDP	; CMover::GetHitPower
_TEXT	ENDS
; Function compile flags: /Ogtp
; File C:\IAGOS\server\v18\Source\Source\_Common\MoverAttack.cpp
; File C:\IAGOS\server\v18\Source\Source\_Common\Mover.h
; File C:\IAGOS\server\v18\Source\Source\_Common\MoverAttack.cpp
; File C:\Program Files\Microsoft Visual Studio\2022\Professional\VC\Tools\MSVC\14.44.35207\include\xtree
; File C:\IAGOS\server\v18\Source\Source\_Common\MoverAttack.cpp
; File C:\Program Files\Microsoft Visual Studio\2022\Professional\VC\Tools\MSVC\14.44.35207\include\xtree
; File C:\Program Files\Microsoft Visual Studio\2022\Professional\VC\Tools\MSVC\14.44.35207\include\type_traits
; File C:\Program Files\Microsoft Visual Studio\2022\Professional\VC\Tools\MSVC\14.44.35207\include\xtree
; File C:\Program Files\Microsoft Visual Studio\2022\Professional\VC\Tools\MSVC\14.44.35207\include\type_traits
; File C:\Program Files\Microsoft Visual Studio\2022\Professional\VC\Tools\MSVC\14.44.35207\include\xtree
; File C:\IAGOS\server\v18\Source\Source\_Common\MoverAttack.cpp
; File C:\IAGOS\server\v18\Source\Source\_Common\Mover.h
; File C:\IAGOS\server\v18\Source\Source\_Common\MoverAttack.cpp
; File C:\IAGOS\server\v18\Source\Source\_Common\Mover.h
; File C:\IAGOS\server\v18\Source\Source\_Common\MoverAttack.cpp
; File C:\IAGOS\server\v18\Source\Source\_Common\Mover.h
; File C:\IAGOS\server\v18\Source\Source\_Common\MoverAttack.cpp
; File C:\IAGOS\server\v18\Source\Source\_Common\Mover.h
; File C:\IAGOS\server\v18\Source\Source\_Common\MoverAttack.cpp
; File C:\IAGOS\server\v18\Source\Source\_Common\Mover.h
; File C:\IAGOS\server\v18\Source\Source\_Common\MoverAttack.cpp
; File C:\IAGOS\server\v18\Source\Source\_Common\Mover.h
; File C:\IAGOS\server\v18\Source\Source\_Common\MoverAttack.cpp
; File C:\IAGOS\server\v18\Source\Source\_Common\Mover.h
; File C:\IAGOS\server\v18\Source\Source\_Common\MoverAttack.cpp
; File C:\IAGOS\server\v18\Source\Source\_Common\Mover.h
; File C:\IAGOS\server\v18\Source\Source\_Common\MoverAttack.cpp
; File C:\IAGOS\server\v18\Source\Source\_Common\Mover.h
; File C:\IAGOS\server\v18\Source\Source\_Common\MoverAttack.cpp
; File C:\IAGOS\server\v18\Source\Source\_Common\xUtil.h
; File C:\IAGOS\server\v18\Source\Source\_Common\MoverAttack.cpp
;	COMDAT ?GetAttackResult@CMover@@QAEHPAV1@K@Z
_TEXT	SEGMENT
_nHR$1$ = -4						; size = 4
_pDefender$ = 8						; size = 4
$T2 = 8							; size = 4
tv573 = 8						; size = 4
_dwOption$ = 12						; size = 4
?GetAttackResult@CMover@@QAEHPAV1@K@Z PROC		; CMover::GetAttackResult, COMDAT
; _this$ = ecx

; 242  : {

  00000	55		 push	 ebp
  00001	8b ec		 mov	 ebp, esp
  00003	51		 push	 ecx
  00004	53		 push	 ebx
  00005	8b d9		 mov	 ebx, ecx
  00007	56		 push	 esi

; 243  : 	if( m_dwMode & ONEKILL_MODE )

  00008	f6 83 40 02 00
	00 04		 test	 BYTE PTR [ebx+576], 4
  0000f	0f 85 08 02 00
	00		 jne	 $LN96@GetAttackR

; 246  : 	if( IsPlayer() && pDefender->IsNPC() && prj.m_EventLua.IsEventSpawnMonster( pDefender->GetIndex() ) )

  00015	83 bb 30 02 00
	00 00		 cmp	 DWORD PTR [ebx+560], 0
  0001c	74 4c		 je	 SHORT $LN3@GetAttackR
; File C:\IAGOS\server\v18\Source\Source\_Common\Mover.h

; 1015 : 	BOOL			IsNPC()				{ return !m_bPlayer; }

  0001e	8b 45 08	 mov	 eax, DWORD PTR _pDefender$[ebp]
  00021	83 b8 30 02 00
	00 00		 cmp	 DWORD PTR [eax+560], 0
; File C:\IAGOS\server\v18\Source\Source\_Common\MoverAttack.cpp

; 246  : 	if( IsPlayer() && pDefender->IsNPC() && prj.m_EventLua.IsEventSpawnMonster( pDefender->GetIndex() ) )

  00028	75 40		 jne	 SHORT $LN3@GetAttackR
; File C:\Program Files\Microsoft Visual Studio\2022\Professional\VC\Tools\MSVC\14.44.35207\include\xtree

; 1630 :         _Tree_find_result<_Nodeptr> _Result{{_Scary->_Myhead->_Parent, _Tree_child::_Right}, _Scary->_Myhead};

  0002a	8b 35 20 97 0d
	00		 mov	 esi, DWORD PTR ?prj@@3VCProject@@A+890656
  00030	8b ce		 mov	 ecx, esi
; File C:\IAGOS\server\v18\Source\Source\_Common\MoverAttack.cpp

; 246  : 	if( IsPlayer() && pDefender->IsNPC() && prj.m_EventLua.IsEventSpawnMonster( pDefender->GetIndex() ) )

  00032	8b 90 74 01 00
	00		 mov	 edx, DWORD PTR [eax+372]
; File C:\Program Files\Microsoft Visual Studio\2022\Professional\VC\Tools\MSVC\14.44.35207\include\xtree

; 1630 :         _Tree_find_result<_Nodeptr> _Result{{_Scary->_Myhead->_Parent, _Tree_child::_Right}, _Scary->_Myhead};

  00038	8b 46 04	 mov	 eax, DWORD PTR [esi+4]

; 1631 :         _Nodeptr _Trynode = _Result._Location._Parent;
; 1632 :         while (!_Trynode->_Isnil) {

  0003b	80 78 0d 00	 cmp	 BYTE PTR [eax+13], 0
  0003f	75 14		 jne	 SHORT $LN49@GetAttackR
$LL48@GetAttackR:
; File C:\Program Files\Microsoft Visual Studio\2022\Professional\VC\Tools\MSVC\14.44.35207\include\type_traits

; 2380 :         return _Left < _Right;

  00041	39 50 10	 cmp	 DWORD PTR [eax+16], edx
; File C:\Program Files\Microsoft Visual Studio\2022\Professional\VC\Tools\MSVC\14.44.35207\include\xtree

; 1634 :             if (_DEBUG_LT_PRED(_Getcomp(), _Traits::_Kfn(_Trynode->_Myval), _Keyval)) {

  00044	73 05		 jae	 SHORT $LN50@GetAttackR

; 1635 :                 _Result._Location._Child = _Tree_child::_Right;
; 1636 :                 _Trynode                 = _Trynode->_Right;

  00046	8b 40 08	 mov	 eax, DWORD PTR [eax+8]

; 1637 :             } else {

  00049	eb 04		 jmp	 SHORT $LN51@GetAttackR
$LN50@GetAttackR:

; 1638 :                 _Result._Location._Child = _Tree_child::_Left;
; 1639 :                 _Result._Bound           = _Trynode;

  0004b	8b c8		 mov	 ecx, eax

; 1640 :                 _Trynode                 = _Trynode->_Left;

  0004d	8b 00		 mov	 eax, DWORD PTR [eax]
$LN51@GetAttackR:

; 1631 :         _Nodeptr _Trynode = _Result._Location._Parent;
; 1632 :         while (!_Trynode->_Isnil) {

  0004f	80 78 0d 00	 cmp	 BYTE PTR [eax+13], 0
  00053	74 ec		 je	 SHORT $LL48@GetAttackR
$LN49@GetAttackR:

; 1624 :         return !_Bound->_Isnil && !_DEBUG_LT_PRED(_Getcomp(), _Keyval, _Traits::_Kfn(_Bound->_Myval));

  00055	80 79 0d 00	 cmp	 BYTE PTR [ecx+13], 0
  00059	75 05		 jne	 SHORT $LN45@GetAttackR
; File C:\Program Files\Microsoft Visual Studio\2022\Professional\VC\Tools\MSVC\14.44.35207\include\type_traits

; 2380 :         return _Left < _Right;

  0005b	3b 51 10	 cmp	 edx, DWORD PTR [ecx+16]
; File C:\Program Files\Microsoft Visual Studio\2022\Professional\VC\Tools\MSVC\14.44.35207\include\xtree

; 1624 :         return !_Bound->_Isnil && !_DEBUG_LT_PRED(_Getcomp(), _Keyval, _Traits::_Kfn(_Bound->_Myval));

  0005e	73 02		 jae	 SHORT $LN44@GetAttackR
$LN45@GetAttackR:

; 1389 :         return _Get_scary()->_Myhead;

  00060	8b ce		 mov	 ecx, esi
$LN44@GetAttackR:

; 232  :         return this->_Ptr == _Right._Ptr;

  00062	3b ce		 cmp	 ecx, esi
; File C:\IAGOS\server\v18\Source\Source\_Common\MoverAttack.cpp

; 246  : 	if( IsPlayer() && pDefender->IsNPC() && prj.m_EventLua.IsEventSpawnMonster( pDefender->GetIndex() ) )

  00064	0f 85 b3 01 00
	00		 jne	 $LN96@GetAttackR
$LN3@GetAttackR:
  0006a	57		 push	 edi

; 251  : 	int nHR = GetHR();

  0006b	8b cb		 mov	 ecx, ebx
  0006d	e8 00 00 00 00	 call	 ?GetHR@CMover@@QAEHXZ	; CMover::GetHR
; File C:\IAGOS\server\v18\Source\Source\_Common\Mover.h

; 1015 : 	BOOL			IsNPC()				{ return !m_bPlayer; }

  00072	83 bb 30 02 00
	00 00		 cmp	 DWORD PTR [ebx+560], 0
; File C:\IAGOS\server\v18\Source\Source\_Common\MoverAttack.cpp

; 251  : 	int nHR = GetHR();

  00079	8b d0		 mov	 edx, eax
; File C:\IAGOS\server\v18\Source\Source\_Common\Mover.h

; 1015 : 	BOOL			IsNPC()				{ return !m_bPlayer; }

  0007b	8b 45 08	 mov	 eax, DWORD PTR _pDefender$[ebp]
; File C:\IAGOS\server\v18\Source\Source\_Common\MoverAttack.cpp

; 251  : 	int nHR = GetHR();

  0007e	89 55 fc	 mov	 DWORD PTR _nHR$1$[ebp], edx
; File C:\IAGOS\server\v18\Source\Source\_Common\Mover.h

; 1015 : 	BOOL			IsNPC()				{ return !m_bPlayer; }

  00081	8b 88 30 02 00
	00		 mov	 ecx, DWORD PTR [eax+560]
; File C:\IAGOS\server\v18\Source\Source\_Common\MoverAttack.cpp

; 253  : 	if( IsNPC() && pDefender->IsPlayer() )

  00087	75 7d		 jne	 SHORT $LN94@GetAttackR
  00089	85 c9		 test	 ecx, ecx
  0008b	0f 84 bd 00 00
	00		 je	 $LN6@GetAttackR
; File C:\IAGOS\server\v18\Source\Source\_Common\Mover.h

; 1133 : 	int				GetLevel() { return m_nLevel; }

  00091	8b b3 d8 05 00
	00		 mov	 esi, DWORD PTR [ebx+1496]
  00097	0f 57 c0	 xorps	 xmm0, xmm0
  0009a	8b b8 d8 05 00
	00		 mov	 edi, DWORD PTR [eax+1496]
; File C:\IAGOS\server\v18\Source\Source\_Common\MoverAttack.cpp

; 255  : 		nHitRate = (int)( ((nHR*1.5f) / (float)(nHR + pDefender->GetParrying())) * 2.0f *

  000a0	8b c8		 mov	 ecx, eax
  000a2	f3 0f 2a c2	 cvtsi2ss xmm0, edx
  000a6	f3 0f 59 05 00
	00 00 00	 mulss	 xmm0, DWORD PTR __real@3fc00000
  000ae	f3 0f 11 45 08	 movss	 DWORD PTR tv573[ebp], xmm0
  000b3	e8 00 00 00 00	 call	 ?GetParrying@CMover@@QAEHXZ ; CMover::GetParrying
  000b8	03 45 fc	 add	 eax, DWORD PTR _nHR$1$[ebp]
  000bb	0f 57 c0	 xorps	 xmm0, xmm0
  000be	f3 0f 10 55 08	 movss	 xmm2, DWORD PTR tv573[ebp]
  000c3	0f 57 c9	 xorps	 xmm1, xmm1
  000c6	f3 0f 2a ce	 cvtsi2ss xmm1, esi
  000ca	f3 0f 2a c0	 cvtsi2ss xmm0, eax
  000ce	0f 28 d9	 movaps	 xmm3, xmm1
  000d1	f3 0f 59 1d 00
	00 00 00	 mulss	 xmm3, DWORD PTR __real@3f000000
  000d9	f3 0f 5e d0	 divss	 xmm2, xmm0
  000dd	0f 57 c0	 xorps	 xmm0, xmm0
  000e0	f3 0f 2a c7	 cvtsi2ss xmm0, edi
  000e4	f3 0f 58 d2	 addss	 xmm2, xmm2
  000e8	f3 0f 59 05 00
	00 00 00	 mulss	 xmm0, DWORD PTR __real@3e99999a
  000f0	f3 0f 58 c1	 addss	 xmm0, xmm1
  000f4	f3 0f 5e d8	 divss	 xmm3, xmm0
  000f8	f3 0f 59 da	 mulss	 xmm3, xmm2
  000fc	f3 0f 11 5d 08	 movss	 DWORD PTR $T2[ebp], xmm3

; 256  : 			(GetLevel()*0.5f / (float)(GetLevel() + pDefender->GetLevel() * 0.3f )) * 100.0f );
; 257  : 	}

  00101	e9 b0 00 00 00	 jmp	 $LN7@GetAttackR
$LN94@GetAttackR:
; File C:\IAGOS\server\v18\Source\Source\_Common\Mover.h

; 1015 : 	BOOL			IsNPC()				{ return !m_bPlayer; }

  00106	85 c9		 test	 ecx, ecx
; File C:\IAGOS\server\v18\Source\Source\_Common\MoverAttack.cpp

; 258  : 	else if( IsPlayer() && pDefender->IsNPC() )	// Player VS Monster

  00108	75 44		 jne	 SHORT $LN6@GetAttackR
; File C:\IAGOS\server\v18\Source\Source\_Common\Mover.h

; 1133 : 	int				GetLevel() { return m_nLevel; }

  0010a	8b bb d8 05 00
	00		 mov	 edi, DWORD PTR [ebx+1496]
; File C:\IAGOS\server\v18\Source\Source\_Common\MoverAttack.cpp

; 260  : 		nHitRate = (int)(  ((nHR*1.6f) / (float)(nHR + pDefender->GetParrying())) * 1.5f * 

  00110	8b c8		 mov	 ecx, eax
; File C:\IAGOS\server\v18\Source\Source\_Common\Mover.h

; 1133 : 	int				GetLevel() { return m_nLevel; }

  00112	8b b0 d8 05 00
	00		 mov	 esi, DWORD PTR [eax+1496]
  00118	66 0f 6e c2	 movd	 xmm0, edx
; File C:\IAGOS\server\v18\Source\Source\_Common\MoverAttack.cpp

; 260  : 		nHitRate = (int)(  ((nHR*1.6f) / (float)(nHR + pDefender->GetParrying())) * 1.5f * 

  0011c	0f 5b c0	 cvtdq2ps xmm0, xmm0
  0011f	f3 0f 59 05 00
	00 00 00	 mulss	 xmm0, DWORD PTR __real@3fcccccd
  00127	f3 0f 11 45 08	 movss	 DWORD PTR $T2[ebp], xmm0
  0012c	e8 00 00 00 00	 call	 ?GetParrying@CMover@@QAEHXZ ; CMover::GetParrying
  00131	03 45 fc	 add	 eax, DWORD PTR _nHR$1$[ebp]
  00134	f3 0f 10 55 08	 movss	 xmm2, DWORD PTR $T2[ebp]
  00139	66 0f 6e c0	 movd	 xmm0, eax
  0013d	0f 5b c0	 cvtdq2ps xmm0, xmm0
  00140	f3 0f 5e d0	 divss	 xmm2, xmm0
  00144	f3 0f 59 15 00
	00 00 00	 mulss	 xmm2, DWORD PTR __real@3fc00000

; 261  : 				   (GetLevel()*1.2f / (float)(GetLevel() + pDefender->GetLevel())) * 100.0f );
; 262  : 
; 263  : 	}

  0014c	eb 42		 jmp	 SHORT $LN108@GetAttackR
$LN6@GetAttackR:
; File C:\IAGOS\server\v18\Source\Source\_Common\Mover.h

; 1133 : 	int				GetLevel() { return m_nLevel; }

  0014e	8b bb d8 05 00
	00		 mov	 edi, DWORD PTR [ebx+1496]
; File C:\IAGOS\server\v18\Source\Source\_Common\MoverAttack.cpp

; 269  : 		nHitRate = (int)( ((nHR*1.6f) / (float)(nHR + pDefender->GetParrying())) * 1.2f * 

  00154	8b c8		 mov	 ecx, eax
; File C:\IAGOS\server\v18\Source\Source\_Common\Mover.h

; 1133 : 	int				GetLevel() { return m_nLevel; }

  00156	8b b0 d8 05 00
	00		 mov	 esi, DWORD PTR [eax+1496]
  0015c	66 0f 6e c2	 movd	 xmm0, edx
; File C:\IAGOS\server\v18\Source\Source\_Common\MoverAttack.cpp

; 269  : 		nHitRate = (int)( ((nHR*1.6f) / (float)(nHR + pDefender->GetParrying())) * 1.2f * 

  00160	0f 5b c0	 cvtdq2ps xmm0, xmm0
  00163	f3 0f 59 05 00
	00 00 00	 mulss	 xmm0, DWORD PTR __real@3fcccccd
  0016b	f3 0f 11 45 08	 movss	 DWORD PTR $T2[ebp], xmm0
  00170	e8 00 00 00 00	 call	 ?GetParrying@CMover@@QAEHXZ ; CMover::GetParrying
  00175	03 45 fc	 add	 eax, DWORD PTR _nHR$1$[ebp]
  00178	f3 0f 10 55 08	 movss	 xmm2, DWORD PTR $T2[ebp]
  0017d	66 0f 6e c0	 movd	 xmm0, eax
  00181	0f 5b c0	 cvtdq2ps xmm0, xmm0
  00184	f3 0f 5e d0	 divss	 xmm2, xmm0
  00188	f3 0f 59 15 00
	00 00 00	 mulss	 xmm2, DWORD PTR __real@3f99999a
$LN108@GetAttackR:

; 270  : 				   (GetLevel()*1.2f / (float)(GetLevel() + pDefender->GetLevel())) * 100.0f );
; 271  : #endif	//__PVPDEMAGE0608	//	9th PVP DEMAGE edit 
; 272  : 	}
; 273  : 	nHitRate += GetAdjHitRate();

  00190	66 0f 6e cf	 movd	 xmm1, edi
  00194	8d 04 37	 lea	 eax, DWORD PTR [edi+esi]
  00197	0f 5b c9	 cvtdq2ps xmm1, xmm1
  0019a	66 0f 6e c0	 movd	 xmm0, eax
  0019e	f3 0f 59 0d 00
	00 00 00	 mulss	 xmm1, DWORD PTR __real@3f99999a
  001a6	0f 5b c0	 cvtdq2ps xmm0, xmm0
  001a9	f3 0f 5e c8	 divss	 xmm1, xmm0
  001ad	f3 0f 59 d1	 mulss	 xmm2, xmm1
  001b1	f3 0f 11 55 08	 movss	 DWORD PTR $T2[ebp], xmm2
$LN7@GetAttackR:
  001b6	8b cb		 mov	 ecx, ebx
  001b8	e8 00 00 00 00	 call	 ?GetAdjHitRate@CMover@@QAEHXZ ; CMover::GetAdjHitRate
  001bd	f3 0f 10 45 08	 movss	 xmm0, DWORD PTR $T2[ebp]
  001c2	8b f0		 mov	 esi, eax
  001c4	f3 0f 59 05 00
	00 00 00	 mulss	 xmm0, DWORD PTR __real@c2c80000

; 274  : 
; 275  : 	if( nHitRate > 96 )

  001cc	5f		 pop	 edi
  001cd	f3 0f 2c c8	 cvttss2si ecx, xmm0
  001d1	2b f1		 sub	 esi, ecx
  001d3	83 fe 60	 cmp	 esi, 96			; 00000060H
  001d6	7e 07		 jle	 SHORT $LN8@GetAttackR

; 276  : 		nHitRate = 96;

  001d8	be 60 00 00 00	 mov	 esi, 96			; 00000060H
  001dd	eb 0a		 jmp	 SHORT $LN10@GetAttackR
$LN8@GetAttackR:

; 277  : 	else if( nHitRate < MIN_HR )

  001df	b8 14 00 00 00	 mov	 eax, 20			; 00000014H
  001e4	3b f0		 cmp	 esi, eax
  001e6	0f 4c f0	 cmovl	 esi, eax
$LN10@GetAttackR:
; File C:\IAGOS\server\v18\Source\Source\_Common\xUtil.h

; 16   : 	g_next = g_next * 1103515245 + 12345;// + nRandomSeed[ i++ ];

  001e9	69 0d 00 00 00
	00 6d 4e c6 41	 imul	 ecx, DWORD PTR ?g_next@@3KA, 1103515245 ; g_next

; 22   : 	return  xRand() % num;

  001f3	b8 1f 85 eb 51	 mov	 eax, 1374389535		; 51eb851fH

; 16   : 	g_next = g_next * 1103515245 + 12345;// + nRandomSeed[ i++ ];

  001f8	81 c1 39 30 00
	00		 add	 ecx, 12345		; 00003039H

; 22   : 	return  xRand() % num;

  001fe	f7 e1		 mul	 ecx

; 16   : 	g_next = g_next * 1103515245 + 12345;// + nRandomSeed[ i++ ];

  00200	89 0d 00 00 00
	00		 mov	 DWORD PTR ?g_next@@3KA, ecx ; g_next

; 22   : 	return  xRand() % num;

  00206	c1 ea 05	 shr	 edx, 5
  00209	6b c2 64	 imul	 eax, edx, 100
  0020c	2b c8		 sub	 ecx, eax
; File C:\IAGOS\server\v18\Source\Source\_Common\MoverAttack.cpp

; 280  : 	return ( (int)( xRandom( 100 ) ) < nHitRate );

  0020e	33 c0		 xor	 eax, eax
  00210	3b ce		 cmp	 ecx, esi
  00212	5e		 pop	 esi
  00213	0f 9c c0	 setl	 al

; 281  : }

  00216	5b		 pop	 ebx
  00217	8b e5		 mov	 esp, ebp
  00219	5d		 pop	 ebp
  0021a	c2 08 00	 ret	 8
$LN96@GetAttackR:
  0021d	5e		 pop	 esi

; 247  : 		return TRUE;

  0021e	b8 01 00 00 00	 mov	 eax, 1

; 281  : }

  00223	5b		 pop	 ebx
  00224	8b e5		 mov	 esp, ebp
  00226	5d		 pop	 ebp
  00227	c2 08 00	 ret	 8
?GetAttackResult@CMover@@QAEHPAV1@K@Z ENDP		; CMover::GetAttackResult
_TEXT	ENDS
; Function compile flags: /Ogtp
; File C:\IAGOS\server\v18\Source\Source\_Common\MoverAttack.cpp
;	COMDAT ?GetReqFp@CMover@@QAEHH@Z
_TEXT	SEGMENT
_nReqFp$ = 8						; size = 4
?GetReqFp@CMover@@QAEHH@Z PROC				; CMover::GetReqFp, COMDAT
; _this$ = ecx

; 2127 : {

  00000	55		 push	 ebp
  00001	8b ec		 mov	 ebp, esp
  00003	56		 push	 esi

; 2128 : 	if( nReqFp == 9999999 )

  00004	8b 75 08	 mov	 esi, DWORD PTR _nReqFp$[ebp]
  00007	81 fe 7f 96 98
	00		 cmp	 esi, 9999999		; 0098967fH
  0000d	75 07		 jne	 SHORT $LN2@GetReqFp

; 2129 : 		return nReqFp;

  0000f	8b c6		 mov	 eax, esi
  00011	5e		 pop	 esi

; 2132 : }

  00012	5d		 pop	 ebp
  00013	c2 04 00	 ret	 4
$LN2@GetReqFp:

; 2130 : 
; 2131 : 	return nReqFp - nReqFp * GetParam( DST_FP_DEC_RATE, 0 ) / 100;

  00016	6a 00		 push	 0
  00018	6a 4a		 push	 74			; 0000004aH
  0001a	e8 00 00 00 00	 call	 ?GetParam@CMover@@QAEHHH@Z ; CMover::GetParam
  0001f	8b c8		 mov	 ecx, eax
  00021	b8 1f 85 eb 51	 mov	 eax, 1374389535		; 51eb851fH
  00026	0f af ce	 imul	 ecx, esi
  00029	f7 e9		 imul	 ecx
  0002b	c1 fa 05	 sar	 edx, 5
  0002e	8b ca		 mov	 ecx, edx
  00030	c1 e9 1f	 shr	 ecx, 31			; 0000001fH
  00033	03 ca		 add	 ecx, edx
  00035	2b f1		 sub	 esi, ecx
  00037	8b c6		 mov	 eax, esi
  00039	5e		 pop	 esi

; 2132 : }

  0003a	5d		 pop	 ebp
  0003b	c2 04 00	 ret	 4
?GetReqFp@CMover@@QAEHH@Z ENDP				; CMover::GetReqFp
_TEXT	ENDS
; Function compile flags: /Ogtp
; File C:\IAGOS\server\v18\Source\Source\_Common\MoverAttack.cpp
;	COMDAT ?GetReqMp@CMover@@QAEHH@Z
_TEXT	SEGMENT
_nReqMp$ = 8						; size = 4
?GetReqMp@CMover@@QAEHH@Z PROC				; CMover::GetReqMp, COMDAT
; _this$ = ecx

; 2119 : {

  00000	55		 push	 ebp
  00001	8b ec		 mov	 ebp, esp
  00003	56		 push	 esi

; 2120 : 	if( nReqMp == 9999999 )

  00004	8b 75 08	 mov	 esi, DWORD PTR _nReqMp$[ebp]
  00007	81 fe 7f 96 98
	00		 cmp	 esi, 9999999		; 0098967fH
  0000d	75 07		 jne	 SHORT $LN2@GetReqMp

; 2121 : 		return nReqMp;

  0000f	8b c6		 mov	 eax, esi
  00011	5e		 pop	 esi

; 2124 : }

  00012	5d		 pop	 ebp
  00013	c2 04 00	 ret	 4
$LN2@GetReqMp:

; 2122 : 
; 2123 : 	return nReqMp - nReqMp * GetParam( DST_MP_DEC_RATE, 0 ) / 100;

  00016	6a 00		 push	 0
  00018	6a 49		 push	 73			; 00000049H
  0001a	e8 00 00 00 00	 call	 ?GetParam@CMover@@QAEHHH@Z ; CMover::GetParam
  0001f	8b c8		 mov	 ecx, eax
  00021	b8 1f 85 eb 51	 mov	 eax, 1374389535		; 51eb851fH
  00026	0f af ce	 imul	 ecx, esi
  00029	f7 e9		 imul	 ecx
  0002b	c1 fa 05	 sar	 edx, 5
  0002e	8b ca		 mov	 ecx, edx
  00030	c1 e9 1f	 shr	 ecx, 31			; 0000001fH
  00033	03 ca		 add	 ecx, edx
  00035	2b f1		 sub	 esi, ecx
  00037	8b c6		 mov	 eax, esi
  00039	5e		 pop	 esi

; 2124 : }

  0003a	5d		 pop	 ebp
  0003b	c2 04 00	 ret	 4
?GetReqMp@CMover@@QAEHH@Z ENDP				; CMover::GetReqMp
_TEXT	ENDS
; Function compile flags: /Ogtp
; File C:\IAGOS\server\v18\Source\Source\_Common\MoverAttack.cpp
; File C:\IAGOS\server\v18\Source\Source\_Common\Party.h
; File C:\IAGOS\server\v18\Source\Source\_Common\MoverAttack.cpp
;	COMDAT ?GetCriticalProb@CMover@@QAEHXZ
_TEXT	SEGMENT
_pParty$1$ = -4						; size = 4
tv194 = -4						; size = 4
tv196 = -4						; size = 4
?GetCriticalProb@CMover@@QAEHXZ PROC			; CMover::GetCriticalProb, COMDAT
; _this$ = ecx

; 610  : {

  00000	55		 push	 ebp
  00001	8b ec		 mov	 ebp, esp
  00003	51		 push	 ecx
  00004	53		 push	 ebx
  00005	56		 push	 esi
  00006	57		 push	 edi
  00007	8b d9		 mov	 ebx, ecx

; 611  : 	int nProb;
; 612  : 	nProb = (GetDex() / 10);

  00009	e8 00 00 00 00	 call	 ?GetDex@CMover@@QAEHXZ	; CMover::GetDex
  0000e	8b d0		 mov	 edx, eax

; 613  : 	nProb	= (int)( nProb *  GetJobPropFactor( JOB_PROP_CRITICAL ) );

  00010	8b cb		 mov	 ecx, ebx
  00012	b8 67 66 66 66	 mov	 eax, 1717986919		; 66666667H
  00017	f7 ea		 imul	 edx
  00019	6a 08		 push	 8
  0001b	c1 fa 02	 sar	 edx, 2
  0001e	8b f2		 mov	 esi, edx
  00020	c1 ee 1f	 shr	 esi, 31			; 0000001fH
  00023	03 f2		 add	 esi, edx
  00025	e8 00 00 00 00	 call	 ?GetJobPropFactor@CMover@@QAEMW4JOB_PROP_TYPE@@@Z ; CMover::GetJobPropFactor
  0002a	66 0f 6e c6	 movd	 xmm0, esi

; 614  : 	nProb = GetParam( DST_CHR_CHANCECRITICAL, nProb );	// Ĺ©¸®ĆĽÄĂ Č®·üŔ» łôż©ÁÖ´Â ˝şĹł°ü·Ă 

  0002e	8b cb		 mov	 ecx, ebx
  00030	0f 5b c0	 cvtdq2ps xmm0, xmm0
  00033	f3 0f 11 45 fc	 movss	 DWORD PTR tv196[ebp], xmm0
  00038	d8 4d fc	 fmul	 DWORD PTR tv196[ebp]
  0003b	d9 5d fc	 fstp	 DWORD PTR tv194[ebp]
  0003e	f3 0f 2c 45 fc	 cvttss2si eax, DWORD PTR tv194[ebp]
  00043	50		 push	 eax
  00044	6a 09		 push	 9
  00046	e8 00 00 00 00	 call	 ?GetParam@CMover@@QAEHHH@Z ; CMover::GetParam

; 615  : #ifdef __JEFF_11
; 616  : 	if( nProb < 0 )
; 617  : 		nProb	= 0;
; 618  : #endif	// __JEFF_11
; 619  : 	
; 620  : 	if( IsPlayer() )

  0004b	33 ff		 xor	 edi, edi
  0004d	85 c0		 test	 eax, eax
  0004f	0f 49 f8	 cmovns	 edi, eax
  00052	83 bb 30 02 00
	00 00		 cmp	 DWORD PTR [ebx+560], 0
  00059	74 5a		 je	 SHORT $LN11@GetCritica

; 621  : 	{
; 622  : 		if( m_idparty && (m_dwFlag & MVRF_CRITICAL) )	// ĆÄĆĽ && 1Č¸ Ĺ©¸®ĆĽÄĂ ąßµż?

  0005b	8b 83 10 07 00
	00		 mov	 eax, DWORD PTR [ebx+1808]
  00061	85 c0		 test	 eax, eax
  00063	74 50		 je	 SHORT $LN11@GetCritica
  00065	f6 83 44 02 00
	00 02		 test	 BYTE PTR [ebx+580], 2
  0006c	74 47		 je	 SHORT $LN11@GetCritica

; 623  : 		{
; 624  : #ifdef __WORLDSERVER
; 625  : 			CParty* pParty = g_PartyMng.GetParty( m_idparty );

  0006e	50		 push	 eax
  0006f	b9 00 00 00 00	 mov	 ecx, OFFSET ?g_PartyMng@@3VCPartyMng@@A ; g_PartyMng
  00074	e8 00 00 00 00	 call	 ?GetParty@CPartyMng@@QAEPAVCParty@@K@Z ; CPartyMng::GetParty
  00079	89 45 fc	 mov	 DWORD PTR _pParty$1$[ebp], eax
  0007c	8b f7		 mov	 esi, edi

; 626  : 			if( pParty && pParty->IsMember( m_idPlayer ) )

  0007e	85 c0		 test	 eax, eax
  00080	74 23		 je	 SHORT $LN5@GetCritica
; File C:\IAGOS\server\v18\Source\Source\_Common\Party.h

; 105  : 	BOOL	IsMember( u_long uPlayerId )		{	return( FindMember( uPlayerId ) >= 0 );	}

  00082	ff b3 34 02 00
	00		 push	 DWORD PTR [ebx+564]
  00088	8b c8		 mov	 ecx, eax
  0008a	e8 00 00 00 00	 call	 ?FindMember@CParty@@QAEHK@Z ; CParty::FindMember
  0008f	85 c0		 test	 eax, eax
; File C:\IAGOS\server\v18\Source\Source\_Common\MoverAttack.cpp

; 626  : 			if( pParty && pParty->IsMember( m_idPlayer ) )

  00091	78 12		 js	 SHORT $LN5@GetCritica

; 627  : 				nProb += (pParty->m_nSizeofMember / 2);	

  00093	8b 45 fc	 mov	 eax, DWORD PTR _pParty$1$[ebp]
  00096	8b 80 cc 01 00
	00		 mov	 eax, DWORD PTR [eax+460]
  0009c	99		 cdq
  0009d	2b c2		 sub	 eax, edx
  0009f	8b f0		 mov	 esi, eax
  000a1	d1 fe		 sar	 esi, 1
  000a3	03 f7		 add	 esi, edi
$LN5@GetCritica:

; 628  : #else // __WORLDSERVER
; 629  : 			if( g_Party.IsMember( m_idPlayer ) )
; 630  : 				nProb += (g_Party.m_nSizeofMember / 2);	
; 631  : #endif // __WORLDSERVER			
; 632  : 			m_dwFlag &= (~MVRF_CRITICAL);

  000a5	83 a3 44 02 00
	00 fd		 and	 DWORD PTR [ebx+580], -3	; fffffffdH

; 633  : 		}
; 634  : 
; 635  : #if __VER < 9 // __S_9_ADD
; 636  : 		if( IsAfterDeath() )							// Á×Ŕ˝ ŔĚČÄ »óĹÂ¶ó¸é?
; 637  : 			nProb += CRITICAL_AFTER_DEATH;
; 638  : 		
; 639  : 		int nHitPercent = GetHitPointPercent( 100 );
; 640  : 		if( nHitPercent < CRITICAL_BERSERK_HP )			// HP°ˇ MAX´ëşń 30% ąĚ¸¸? 
; 641  : 		{
; 642  : 			// CRITICAL_BERSERK_HP : nHitPercent = CRITICAL_BERSERK_PROB : x
; 643  : 			// 30 : 15 = 20 : x
; 644  : 			nProb += CRITICAL_BERSERK_PROB - ( nHitPercent * CRITICAL_BERSERK_PROB / CRITICAL_BERSERK_HP );
; 645  : 		}
; 646  : #endif // __S_9_ADD
; 647  : 	}
; 648  : 	return nProb;

  000ac	8b c6		 mov	 eax, esi
  000ae	5f		 pop	 edi

; 649  : }

  000af	5e		 pop	 esi
  000b0	5b		 pop	 ebx
  000b1	8b e5		 mov	 esp, ebp
  000b3	5d		 pop	 ebp
  000b4	c3		 ret	 0
$LN11@GetCritica:
  000b5	8b c7		 mov	 eax, edi
  000b7	5f		 pop	 edi
  000b8	5e		 pop	 esi
  000b9	5b		 pop	 ebx
  000ba	8b e5		 mov	 esp, ebp
  000bc	5d		 pop	 ebp
  000bd	c3		 ret	 0
?GetCriticalProb@CMover@@QAEHXZ ENDP			; CMover::GetCriticalProb
_TEXT	ENDS
; Function compile flags: /Ogtp
; File C:\IAGOS\server\v18\Source\Source\_Common\MoverAttack.cpp
; File C:\IAGOS\server\v18\Source\Source\_AIInterface\ActionMover.h
; File C:\IAGOS\server\v18\Source\Source\_Common\MoverAttack.cpp
; File C:\IAGOS\server\v18\Source\Source\_Common\xUtil.h
; File C:\IAGOS\server\v18\Source\Source\_Common\MoverAttack.cpp
; File C:\IAGOS\server\v18\Source\Source\_Common\xUtil.h
; File C:\IAGOS\server\v18\Source\Source\_Common\MoverAttack.cpp
; File C:\IAGOS\server\v18\Source\Source\_Common\xUtil.h
; File C:\IAGOS\server\v18\Source\Source\_Common\MoverAttack.cpp
;	COMDAT ?IsCriticalAttack@CMover@@QAEHPAV1@K@Z
_TEXT	SEGMENT
_pDefender$ = 8						; size = 4
_dwAtkFlags$ = 12					; size = 4
?IsCriticalAttack@CMover@@QAEHPAV1@K@Z PROC		; CMover::IsCriticalAttack, COMDAT
; _this$ = ecx

; 724  : {

  00000	55		 push	 ebp
  00001	8b ec		 mov	 ebp, esp
; File C:\IAGOS\server\v18\Source\Source\_AIInterface\ActionMover.h

; 49   : 	return (dwAtkFlags & (AF_MELEESKILL|AF_MAGICSKILL) );

  00003	f6 45 0c 30	 test	 BYTE PTR _dwAtkFlags$[ebp], 48 ; 00000030H
; File C:\IAGOS\server\v18\Source\Source\_Common\MoverAttack.cpp

; 725  : 	if( IsSkillAttack( dwAtkFlags ) )	// ˝şĹłŔĚ¸é critical ľřŔ˝ 

  00007	74 06		 je	 SHORT $LN2@IsCritical

; 726  : 		return FALSE;

  00009	33 c0		 xor	 eax, eax

; 729  : }

  0000b	5d		 pop	 ebp
  0000c	c2 08 00	 ret	 8
$LN2@IsCritical:
  0000f	56		 push	 esi
  00010	57		 push	 edi
; File C:\IAGOS\server\v18\Source\Source\_Common\xUtil.h

; 16   : 	g_next = g_next * 1103515245 + 12345;// + nRandomSeed[ i++ ];

  00011	69 3d 00 00 00
	00 6d 4e c6 41	 imul	 edi, DWORD PTR ?g_next@@3KA, 1103515245 ; g_next
  0001b	81 c7 39 30 00
	00		 add	 edi, 12345		; 00003039H
  00021	89 3d 00 00 00
	00		 mov	 DWORD PTR ?g_next@@3KA, edi ; g_next
; File C:\IAGOS\server\v18\Source\Source\_Common\MoverAttack.cpp

; 728  : 	return ( (int)( xRandom(100) ) < GetCriticalProb() );		

  00027	e8 00 00 00 00	 call	 ?GetCriticalProb@CMover@@QAEHXZ ; CMover::GetCriticalProb
  0002c	8b f0		 mov	 esi, eax
; File C:\IAGOS\server\v18\Source\Source\_Common\xUtil.h

; 22   : 	return  xRand() % num;

  0002e	b8 1f 85 eb 51	 mov	 eax, 1374389535		; 51eb851fH
  00033	f7 e7		 mul	 edi
; File C:\IAGOS\server\v18\Source\Source\_Common\MoverAttack.cpp

; 728  : 	return ( (int)( xRandom(100) ) < GetCriticalProb() );		

  00035	33 c0		 xor	 eax, eax
; File C:\IAGOS\server\v18\Source\Source\_Common\xUtil.h

; 22   : 	return  xRand() % num;

  00037	c1 ea 05	 shr	 edx, 5
  0003a	6b ca 64	 imul	 ecx, edx, 100
  0003d	2b f9		 sub	 edi, ecx
; File C:\IAGOS\server\v18\Source\Source\_Common\MoverAttack.cpp

; 728  : 	return ( (int)( xRandom(100) ) < GetCriticalProb() );		

  0003f	3b fe		 cmp	 edi, esi
  00041	5f		 pop	 edi
  00042	0f 9c c0	 setl	 al
  00045	5e		 pop	 esi

; 729  : }

  00046	5d		 pop	 ebp
  00047	c2 08 00	 ret	 8
?IsCriticalAttack@CMover@@QAEHPAV1@K@Z ENDP		; CMover::IsCriticalAttack
_TEXT	ENDS
; Function compile flags: /Ogtp
; File C:\IAGOS\server\v18\Source\Source\_Common\MoverAttack.cpp
; File C:\IAGOS\server\v18\Source\Source\_AIInterface\Action.h
; File C:\IAGOS\server\v18\Source\Source\_Common\MoverAttack.cpp
;	COMDAT ?CanFlyByAttack@CMover@@QAEHXZ
_TEXT	SEGMENT
?CanFlyByAttack@CMover@@QAEHXZ PROC			; CMover::CanFlyByAttack, COMDAT
; _this$ = ecx

; 143  : 	if( IsFlyingNPC() || m_pActMover->IsFly() )

  00000	f7 81 3c 02 00
	00 00 00 01 00	 test	 DWORD PTR [ecx+572], 65536 ; 00010000H
  0000a	75 3c		 jne	 SHORT $LN3@CanFlyByAt
; File C:\IAGOS\server\v18\Source\Source\_AIInterface\Action.h

; 309  : 	BOOL			IsFly() { return (m_dwStateFlag & OBJSTAF_FLY) ? TRUE : FALSE; }

  0000c	8b 81 38 02 00
	00		 mov	 eax, DWORD PTR [ecx+568]
; File C:\IAGOS\server\v18\Source\Source\_Common\MoverAttack.cpp

; 143  : 	if( IsFlyingNPC() || m_pActMover->IsFly() )

  00012	f6 40 08 08	 test	 BYTE PTR [eax+8], 8
  00016	75 30		 jne	 SHORT $LN3@CanFlyByAt

; 145  : 
; 146  : 	BOOL bFly = FALSE;

  00018	56		 push	 esi
  00019	33 f6		 xor	 esi, esi

; 147  : 	if( (m_pActMover->GetState() & OBJSTA_DMG_FLY_ALL) == 0 )	// µĄąĚÁöÇĂ¶óŔ× µżľČżŁ Ăß°ˇ·Î łŻľĆ°ˇÁö ľĘ´Â´Ů.

  0001b	f7 40 04 00 00
	00 02		 test	 DWORD PTR [eax+4], 33554432 ; 02000000H
  00022	75 20		 jne	 SHORT $LN5@CanFlyByAt

; 148  : 	{
; 149  : 		MoverProp* pProp = GetProp();

  00024	e8 00 00 00 00	 call	 ?GetPropA@CMover@@QAEPAUMoverProp@@XZ ; CMover::GetPropA

; 150  : 		if( pProp->dwClass != RANK_SUPER && pProp->dwClass != RANK_MATERIAL && pProp->dwClass != RANK_MIDBOSS )	// ˝´ĆŰ/ŔÚżř ¸ó˝şĹÍ´Â łŻľĆ°ˇÁö ľĘŔ˝.

  00029	8b 80 94 00 00
	00		 mov	 eax, DWORD PTR [eax+148]
  0002f	83 f8 07	 cmp	 eax, 7
  00032	74 10		 je	 SHORT $LN5@CanFlyByAt
  00034	83 f8 06	 cmp	 eax, 6
  00037	74 0b		 je	 SHORT $LN5@CanFlyByAt
  00039	83 f8 05	 cmp	 eax, 5
  0003c	b9 01 00 00 00	 mov	 ecx, 1
  00041	0f 45 f1	 cmovne	 esi, ecx
$LN5@CanFlyByAt:

; 151  : 			bFly = TRUE;
; 152  : 	}
; 153  : 	return bFly;

  00044	8b c6		 mov	 eax, esi
  00046	5e		 pop	 esi

; 154  : }

  00047	c3		 ret	 0
$LN3@CanFlyByAt:

; 144  : 		return FALSE;

  00048	33 c0		 xor	 eax, eax

; 154  : }

  0004a	c3		 ret	 0
?CanFlyByAttack@CMover@@QAEHXZ ENDP			; CMover::CanFlyByAttack
_TEXT	ENDS
; Function compile flags: /Ogtp
; File C:\IAGOS\server\v18\Source\Source\_Common\MoverAttack.cpp
; File C:\IAGOS\server\v18\Source\Source\_Common\xUtil.h
; File C:\IAGOS\server\v18\Source\Source\_Common\MoverAttack.cpp
; File C:\IAGOS\server\v18\Source\Source\_Common\xUtil.h
; File C:\IAGOS\server\v18\Source\Source\_Common\MoverAttack.cpp
; File C:\IAGOS\server\v18\Source\Source\_Common\Mover.h
; File C:\IAGOS\server\v18\Source\Source\_Common\MoverAttack.cpp
; File C:\IAGOS\server\v18\Source\Source\_Common\Mover.h
; File C:\IAGOS\server\v18\Source\Source\_Common\MoverAttack.cpp
;	COMDAT ?IsBlocking@CMover@@QAEHPAV1@@Z
_TEXT	SEGMENT
_pShield$1$ = -4					; size = 4
_pAttacker$ = 8						; size = 4
?IsBlocking@CMover@@QAEHPAV1@@Z PROC			; CMover::IsBlocking, COMDAT
; _this$ = ecx

; 781  : {

  00000	55		 push	 ebp
  00001	8b ec		 mov	 ebp, esp
  00003	51		 push	 ecx
  00004	53		 push	 ebx
  00005	57		 push	 edi
; File C:\IAGOS\server\v18\Source\Source\_Common\xUtil.h

; 16   : 	g_next = g_next * 1103515245 + 12345;// + nRandomSeed[ i++ ];

  00006	69 3d 00 00 00
	00 6d 4e c6 41	 imul	 edi, DWORD PTR ?g_next@@3KA, 1103515245 ; g_next

; 22   : 	return  xRand() % num;

  00010	b8 1f 85 eb 51	 mov	 eax, 1374389535		; 51eb851fH
; File C:\IAGOS\server\v18\Source\Source\_Common\MoverAttack.cpp

; 781  : {

  00015	8b d9		 mov	 ebx, ecx
; File C:\IAGOS\server\v18\Source\Source\_Common\xUtil.h

; 16   : 	g_next = g_next * 1103515245 + 12345;// + nRandomSeed[ i++ ];

  00017	81 c7 39 30 00
	00		 add	 edi, 12345		; 00003039H

; 22   : 	return  xRand() % num;

  0001d	f7 e7		 mul	 edi

; 16   : 	g_next = g_next * 1103515245 + 12345;// + nRandomSeed[ i++ ];

  0001f	89 3d 00 00 00
	00		 mov	 DWORD PTR ?g_next@@3KA, edi ; g_next

; 22   : 	return  xRand() % num;

  00025	c1 ea 05	 shr	 edx, 5
  00028	6b c2 64	 imul	 eax, edx, 100
  0002b	2b f8		 sub	 edi, eax
; File C:\IAGOS\server\v18\Source\Source\_Common\MoverAttack.cpp

; 784  : 	if( r <= 5 )			// RŔĚ 0 ~ 5ŔÇ °ŞŔĚ¸é Blocking ˝ÇĆĐ

  0002d	83 ff 05	 cmp	 edi, 5
  00030	7f 0a		 jg	 SHORT $LN2@IsBlocking

; 785  : 		return FALSE;

  00032	5f		 pop	 edi
  00033	33 c0		 xor	 eax, eax

; 821  : }

  00035	5b		 pop	 ebx
  00036	8b e5		 mov	 esp, ebp
  00038	5d		 pop	 ebp
  00039	c2 04 00	 ret	 4
$LN2@IsBlocking:

; 786  : 	if( r >= 95 )			// RŔĚ 95 ~ 100ŔÇ °ŞŔĚ¸é Blocking Ľş°ř

  0003c	83 ff 5f	 cmp	 edi, 95			; 0000005fH
  0003f	7c 0d		 jl	 SHORT $LN3@IsBlocking

; 787  : 		return TRUE;

  00041	5f		 pop	 edi
  00042	b8 01 00 00 00	 mov	 eax, 1

; 821  : }

  00047	5b		 pop	 ebx
  00048	8b e5		 mov	 esp, ebp
  0004a	5d		 pop	 ebp
  0004b	c2 04 00	 ret	 4
$LN3@IsBlocking:

; 788  : 
; 789  : 	//¸ó˝şĹÍ Br = (¸ó˝şĹÍER - ¸ó˝şĹÍLV)*0.5
; 790  : 	//ÇĂ·ąŔĚľî BR = ((Äł¸ŻĹÍDex - 30) / (2 * Lv)) + (¨ç + ¨č)
; 791  : 	int nBR = 0;
; 792  : 
; 793  : 	if( IsPlayer() )

  0004e	83 bb 30 02 00
	00 00		 cmp	 DWORD PTR [ebx+560], 0
  00055	56		 push	 esi
  00056	74 7a		 je	 SHORT $LN4@IsBlocking

; 794  : 	{
; 795  : 		// ¨ç : ąćĆĐŔÇ şí·Ď ĽöÄˇ
; 796  : 		// ¨č : ľĆŔĚĹŰ°ú ˝şĹł Ăß°ˇÄˇŔÇ ÇŐ(Á¤Ľö, ľĆŔĚĹŰżˇ şí·ĎĹ· °ŞŔĚ Á¤Ľö·Î ´őÇŘÁř´Ů.)
; 797  : 		CItemElem* pShield = GetEquipItem( PARTS_SHIELD );	

  00058	6a 0b		 push	 11			; 0000000bH
  0005a	e8 00 00 00 00	 call	 ?GetEquipItem@CMover@@QAEPAVCItemElem@@H@Z ; CMover::GetEquipItem
  0005f	89 45 fc	 mov	 DWORD PTR _pShield$1$[ebp], eax

; 798  : 		if( pShield )

  00062	85 c0		 test	 eax, eax
  00064	74 5a		 je	 SHORT $LN6@IsBlocking
; File C:\IAGOS\server\v18\Source\Source\_Common\Mover.h

; 1133 : 	int				GetLevel() { return m_nLevel; }

  00066	8b b3 d8 05 00
	00		 mov	 esi, DWORD PTR [ebx+1496]
; File C:\IAGOS\server\v18\Source\Source\_Common\MoverAttack.cpp

; 800  : 			nBR = ( GetDex() - 30 ) / ( 2 * GetLevel() );

  0006c	8b cb		 mov	 ecx, ebx
  0006e	e8 00 00 00 00	 call	 ?GetDex@CMover@@QAEHXZ	; CMover::GetDex
  00073	83 e8 1e	 sub	 eax, 30			; 0000001eH
  00076	8d 0c 36	 lea	 ecx, DWORD PTR [esi+esi]
  00079	99		 cdq
  0007a	f7 f9		 idiv	 ecx

; 801  : 			ItemProp* pProp = pShield->GetProp();

  0007c	8b 4d fc	 mov	 ecx, DWORD PTR _pShield$1$[ebp]
  0007f	8b f0		 mov	 esi, eax
  00081	e8 00 00 00 00	 call	 ?GetPropA@CItemElem@@QAEPAUItemProp@@XZ ; CItemElem::GetPropA

; 802  : 			nBR += pProp->dwblockRating;

  00086	03 b0 fc 00 00
	00		 add	 esi, DWORD PTR [eax+252]

; 803  : 
; 804  : 			//ĂÖĽŇ 2żˇĽ­ ĂÖ´ë65 »çŔĚŔÇ °ŞŔ» °ˇÁř´Ů
; 805  : 			if( nBR < 2 )

  0008c	83 fe 02	 cmp	 esi, 2
  0008f	7d 15		 jge	 SHORT $LN8@IsBlocking

; 806  : 				nBR = 2;

  00091	be 02 00 00 00	 mov	 esi, 2

; 817  : 			nBR = 0; 
; 818  : 	}
; 819  : 
; 820  : 	return ( nBR > r );		// RŔĚ 6 ~ 94»çŔĚŔÇ °ŞŔĚ¸é ->  BR > RŔÎ °ćżě Blocking Ľş°ř

  00096	33 c0		 xor	 eax, eax
  00098	3b f7		 cmp	 esi, edi
  0009a	5e		 pop	 esi
  0009b	5f		 pop	 edi
  0009c	0f 9f c0	 setg	 al

; 821  : }

  0009f	5b		 pop	 ebx
  000a0	8b e5		 mov	 esp, ebp
  000a2	5d		 pop	 ebp
  000a3	c2 04 00	 ret	 4
$LN8@IsBlocking:

; 807  : 			else if( nBR > 65 )

  000a6	83 fe 41	 cmp	 esi, 65			; 00000041H
  000a9	7e 4e		 jle	 SHORT $LN11@IsBlocking

; 808  : 				nBR = 65;

  000ab	be 41 00 00 00	 mov	 esi, 65			; 00000041H

; 817  : 			nBR = 0; 
; 818  : 	}
; 819  : 
; 820  : 	return ( nBR > r );		// RŔĚ 6 ~ 94»çŔĚŔÇ °ŞŔĚ¸é ->  BR > RŔÎ °ćżě Blocking Ľş°ř

  000b0	33 c0		 xor	 eax, eax
  000b2	3b f7		 cmp	 esi, edi
  000b4	5e		 pop	 esi
  000b5	5f		 pop	 edi
  000b6	0f 9f c0	 setg	 al

; 821  : }

  000b9	5b		 pop	 ebx
  000ba	8b e5		 mov	 esp, ebp
  000bc	5d		 pop	 ebp
  000bd	c2 04 00	 ret	 4
$LN6@IsBlocking:

; 809  : 		}
; 810  : 		else
; 811  : 			nBR = 0;

  000c0	33 f6		 xor	 esi, esi

; 817  : 			nBR = 0; 
; 818  : 	}
; 819  : 
; 820  : 	return ( nBR > r );		// RŔĚ 6 ~ 94»çŔĚŔÇ °ŞŔĚ¸é ->  BR > RŔÎ °ćżě Blocking Ľş°ř

  000c2	33 c0		 xor	 eax, eax
  000c4	3b f7		 cmp	 esi, edi
  000c6	5e		 pop	 esi
  000c7	5f		 pop	 edi
  000c8	0f 9f c0	 setg	 al

; 821  : }

  000cb	5b		 pop	 ebx
  000cc	8b e5		 mov	 esp, ebp
  000ce	5d		 pop	 ebp
  000cf	c2 04 00	 ret	 4
$LN4@IsBlocking:
; File C:\IAGOS\server\v18\Source\Source\_Common\Mover.h

; 1133 : 	int				GetLevel() { return m_nLevel; }

  000d2	8b b3 d8 05 00
	00		 mov	 esi, DWORD PTR [ebx+1496]
; File C:\IAGOS\server\v18\Source\Source\_Common\MoverAttack.cpp

; 815  : 		nBR = (int)( ( GetParrying() - GetLevel() ) * 0.5f );  // GetParrying == ER

  000d8	e8 00 00 00 00	 call	 ?GetParrying@CMover@@QAEHXZ ; CMover::GetParrying
  000dd	2b c6		 sub	 eax, esi
  000df	66 0f 6e c0	 movd	 xmm0, eax

; 816  : 		if( nBR < 0 )

  000e3	33 c0		 xor	 eax, eax
  000e5	0f 5b c0	 cvtdq2ps xmm0, xmm0
  000e8	f3 0f 59 05 00
	00 00 00	 mulss	 xmm0, DWORD PTR __real@3f000000
  000f0	f3 0f 2c f0	 cvttss2si esi, xmm0
  000f4	85 f6		 test	 esi, esi
  000f6	0f 48 f0	 cmovs	 esi, eax
$LN11@IsBlocking:

; 817  : 			nBR = 0; 
; 818  : 	}
; 819  : 
; 820  : 	return ( nBR > r );		// RŔĚ 6 ~ 94»çŔĚŔÇ °ŞŔĚ¸é ->  BR > RŔÎ °ćżě Blocking Ľş°ř

  000f9	33 c0		 xor	 eax, eax
  000fb	3b f7		 cmp	 esi, edi
  000fd	5e		 pop	 esi
  000fe	5f		 pop	 edi
  000ff	0f 9f c0	 setg	 al

; 821  : }

  00102	5b		 pop	 ebx
  00103	8b e5		 mov	 esp, ebp
  00105	5d		 pop	 ebp
  00106	c2 04 00	 ret	 4
?IsBlocking@CMover@@QAEHPAV1@@Z ENDP			; CMover::IsBlocking
_TEXT	ENDS
; Function compile flags: /Ogtp
; File C:\IAGOS\server\v18\Source\Source\_Common\MoverAttack.cpp
;	COMDAT ?GetPropDEFPlus@CMover@@QAEHXZ
_TEXT	SEGMENT
?GetPropDEFPlus@CMover@@QAEHXZ PROC			; CMover::GetPropDEFPlus, COMDAT
; _this$ = ecx

; 1191 : 	int nPlusDEF = 0;
; 1192 : 	if( m_nDefenseResist != 255 )
; 1193 : 		nPlusDEF = 20;
; 1194 : 	return nPlusDEF;

  00000	33 d2		 xor	 edx, edx
  00002	b8 14 00 00 00	 mov	 eax, 20			; 00000014H
  00007	80 b9 0e 07 00
	00 ff		 cmp	 BYTE PTR [ecx+1806], 255 ; 000000ffH
  0000e	0f 44 c2	 cmove	 eax, edx

; 1195 : }

  00011	c3		 ret	 0
?GetPropDEFPlus@CMover@@QAEHXZ ENDP			; CMover::GetPropDEFPlus
_TEXT	ENDS
; Function compile flags: /Ogtp
; File C:\IAGOS\server\v18\Source\Source\_Common\MoverAttack.cpp
;	COMDAT ?GetPropATKPlus@CMover@@QAEHH@Z
_TEXT	SEGMENT
_nParts$ = 8						; size = 4
?GetPropATKPlus@CMover@@QAEHH@Z PROC			; CMover::GetPropATKPlus, COMDAT
; _this$ = ecx

; 1171 : {

  00000	55		 push	 ebp
  00001	8b ec		 mov	 ebp, esp

; 1172 : 	int nPlusATK = 0;
; 1173 : 	
; 1174 : 	switch( nParts )

  00003	8b 45 08	 mov	 eax, DWORD PTR _nParts$[ebp]
  00006	33 d2		 xor	 edx, edx
  00008	83 e8 09	 sub	 eax, 9
  0000b	74 18		 je	 SHORT $LN6@GetPropATK
  0000d	83 e8 01	 sub	 eax, 1
  00010	75 22		 jne	 SHORT $LN9@GetPropATK

; 1175 : 	{
; 1176 : 	case PARTS_RWEAPON:
; 1177 : 		if( m_nAttackResistRight != 255 )
; 1178 : 			nPlusATK = 20;
; 1179 : 		break;

  00012	80 b9 0d 07 00
	00 ff		 cmp	 BYTE PTR [ecx+1805], 255 ; 000000ffH
  00019	b8 14 00 00 00	 mov	 eax, 20			; 00000014H
  0001e	0f 44 c2	 cmove	 eax, edx

; 1182 : 			nPlusATK = 20;
; 1183 : 		break;
; 1184 : 	}
; 1185 : 	return nPlusATK;
; 1186 : }

  00021	5d		 pop	 ebp
  00022	c2 04 00	 ret	 4
$LN6@GetPropATK:

; 1180 : 	case PARTS_LWEAPON:
; 1181 : 		if( m_nAttackResistLeft != 255 )

  00025	80 b9 0c 07 00
	00 ff		 cmp	 BYTE PTR [ecx+1804], 255 ; 000000ffH
  0002c	b8 14 00 00 00	 mov	 eax, 20			; 00000014H
  00031	0f 45 d0	 cmovne	 edx, eax
$LN9@GetPropATK:

; 1182 : 			nPlusATK = 20;
; 1183 : 		break;
; 1184 : 	}
; 1185 : 	return nPlusATK;
; 1186 : }

  00034	8b c2		 mov	 eax, edx
  00036	5d		 pop	 ebp
  00037	c2 04 00	 ret	 4
?GetPropATKPlus@CMover@@QAEHH@Z ENDP			; CMover::GetPropATKPlus
_TEXT	ENDS
; Function compile flags: /Ogtp
; File C:\IAGOS\server\v18\Source\Source\_Common\MoverAttack.cpp
; File C:\IAGOS\server\v18\Source\Source\_Common\Mover.h
; File C:\IAGOS\server\v18\Source\Source\_Common\Project.h
; File C:\IAGOS\server\v18\Source\Source\_Common\MoverAttack.cpp
; File C:\IAGOS\server\v18\Source\Source\_Common\Mover.h
; File C:\IAGOS\server\v18\Source\Source\_Common\Project.h
; File C:\IAGOS\server\v18\Source\Source\_Common\MoverAttack.cpp
; File C:\IAGOS\server\v18\Source\Source\_Common\Mover.h
; File C:\IAGOS\server\v18\Source\Source\_Common\Project.h
; File C:\IAGOS\server\v18\Source\Source\_Common\MoverAttack.cpp
; File C:\IAGOS\server\v18\Source\Source\_Common\Mover.h
; File C:\IAGOS\server\v18\Source\Source\_Common\MoverAttack.cpp
; File C:\IAGOS\server\v18\Source\Source\_Common\Project.h
; File C:\IAGOS\server\v18\Source\Source\_Common\MoverAttack.cpp
; File C:\IAGOS\server\v18\Source\Source\_Common\Project.h
; File C:\IAGOS\server\v18\Source\Source\_Common\MoverAttack.cpp
;	COMDAT ?GetDamagePropertyFactor@CMover@@QAEXPAV1@PAH1H@Z
_TEXT	SEGMENT
_pDefender$ = 8						; size = 4
_defType$1$ = 8						; size = 4
_pnATKFactor$ = 12					; size = 4
_pnDEFFactor$ = 16					; size = 4
_nParts$ = 20						; size = 4
_atkType$1$ = 20					; size = 4
?GetDamagePropertyFactor@CMover@@QAEXPAV1@PAH1H@Z PROC	; CMover::GetDamagePropertyFactor, COMDAT
; _this$ = ecx

; 1199 : {

  00000	55		 push	 ebp
  00001	8b ec		 mov	 ebp, esp
  00003	51		 push	 ecx

; 1200 : #if __VER >= 14 // __EXT_ATTRIBUTE
; 1201 : 	*pnATKFactor = 10000;	// 14Â÷ şÎĹÍ´Â n/10000 factor·Î şŻ°ć

  00004	8b 45 0c	 mov	 eax, DWORD PTR _pnATKFactor$[ebp]
  00007	53		 push	 ebx
  00008	56		 push	 esi
  00009	8b f1		 mov	 esi, ecx

; 1202 : 	*pnDEFFactor = 10000;	// 14Â÷ şÎĹÍ´Â n/10000 factor·Î şŻ°ć
; 1203 : #else // __EXT_ATTRIBUTE
; 1204 : 	*pnATKFactor = 100;		// ĽÓĽş ŔűżëŔĚ ľřŔ¸¸é ATK¸¦ 100% ±×´ë·Î »çżë 
; 1205 : 	*pnDEFFactor = 100;		// ĽÓĽş ŔűżëŔĚ ľřŔ¸¸é DEF¸¦ 100% ±×´ë·Î »çżë 
; 1206 : #endif // __EXT_ATTRIBUTE
; 1207 : 
; 1208 : 	SAI79::ePropType atkType, defType; 
; 1209 : 	int atkLevel, defLevel, nPlusATK, nPlusDEF;
; 1210 : 	atkType = defType = SAI79::NO_PROP;
; 1211 : #if __VER >= 14 // __EXT_ATTRIBUTE
; 1212 : 	atkLevel = defLevel = 0;

  0000b	33 db		 xor	 ebx, ebx
  0000d	c7 00 10 27 00
	00		 mov	 DWORD PTR [eax], 10000	; 00002710H
  00013	8b 45 10	 mov	 eax, DWORD PTR _pnDEFFactor$[ebp]
  00016	57		 push	 edi
  00017	33 ff		 xor	 edi, edi
  00019	c7 00 10 27 00
	00		 mov	 DWORD PTR [eax], 10000	; 00002710H

; 1213 : #else // __EXT_ATTRIBUTE
; 1214 : 	atkLevel = defLevel = 1;
; 1215 : #endif // __EXT_ATTRIBUTE
; 1216 : 	nPlusATK = nPlusDEF = 0;
; 1217 : 
; 1218 : 	if( IsPlayer() )

  0001f	39 9e 30 02 00
	00		 cmp	 DWORD PTR [esi+560], ebx
  00025	74 51		 je	 SHORT $LN4@GetDamageP

; 1219 : 	{
; 1220 : 		CItemElem* pItemElem = GetWeaponItem( nParts );

  00027	ff 75 14	 push	 DWORD PTR _nParts$[ebp]
  0002a	e8 00 00 00 00	 call	 ?GetWeaponItem@CMover@@QAEPAVCItemElem@@H@Z ; CMover::GetWeaponItem

; 1221 : 		if( pItemElem && pItemElem->m_bItemResist != SAI79::NO_PROP )

  0002f	85 c0		 test	 eax, eax
  00031	74 28		 je	 SHORT $LN6@GetDamageP
  00033	8a 48 7c	 mov	 cl, BYTE PTR [eax+124]
  00036	84 c9		 test	 cl, cl
  00038	74 21		 je	 SHORT $LN6@GetDamageP

; 1222 : 		{
; 1223 : 			atkType = (SAI79::ePropType)pItemElem->m_bItemResist;
; 1224 : 			atkLevel = pItemElem->m_nResistAbilityOption + GetAdjParam( DST_CHR_WEAEATKCHANGE );

  0003a	8b b8 80 00 00
	00		 mov	 edi, DWORD PTR [eax+128]
  00040	0f b6 c9	 movzx	 ecx, cl
  00043	89 4d 14	 mov	 DWORD PTR _atkType$1$[ebp], ecx
  00046	8b ce		 mov	 ecx, esi
  00048	6a 37		 push	 55			; 00000037H
  0004a	e8 00 00 00 00	 call	 ?GetAdjParam@CMover@@QAEHH@Z ; CMover::GetAdjParam
  0004f	03 f8		 add	 edi, eax

; 1225 : 		}

  00051	a1 b4 01 00 00	 mov	 eax, DWORD PTR ?prj@@3VCProject@@A+436
  00056	e9 a4 00 00 00	 jmp	 $LN5@GetDamageP
$LN6@GetDamageP:

; 1226 : 		else
; 1227 : 		{
; 1228 : 			ItemProp* pProp = GetActiveHandItemProp( nParts );

  0005b	ff 75 14	 push	 DWORD PTR _nParts$[ebp]
  0005e	8b ce		 mov	 ecx, esi
  00060	e8 00 00 00 00	 call	 ?GetActiveHandItemProp@CMover@@QAEPAUItemProp@@H@Z ; CMover::GetActiveHandItemProp

; 1229 : 			atkType = pProp->eItemType;

  00065	8b 88 f0 00 00
	00		 mov	 ecx, DWORD PTR [eax+240]

; 1230 : 		}	
; 1231 : 
; 1232 : 		nPlusATK = GetPropATKPlus( nParts );
; 1233 : 	}

  0006b	a1 b4 01 00 00	 mov	 eax, DWORD PTR ?prj@@3VCProject@@A+436
  00070	89 4d 14	 mov	 DWORD PTR _atkType$1$[ebp], ecx
  00073	e9 87 00 00 00	 jmp	 $LN5@GetDamageP
$LN4@GetDamageP:
; File C:\IAGOS\server\v18\Source\Source\_Common\Mover.h

; 1020 : 	MoverProp*		GetProp() { return prj.GetMoverProp( m_dwIndex ); }	// °´ĂĽŔÇ ÇÁ·ÎĆŰĆĽ ľň±â 	

  00078	8b 8e 74 01 00
	00		 mov	 ecx, DWORD PTR [esi+372]
; File C:\IAGOS\server\v18\Source\Source\_Common\Project.h

; 1406 : 	VERIFY_RANGE( nIndex, 0, m_nMoverPropSize, "GetMoverProp range_error", NULL );

  0007e	a1 b4 01 00 00	 mov	 eax, DWORD PTR ?prj@@3VCProject@@A+436
  00083	85 c9		 test	 ecx, ecx
  00085	78 12		 js	 SHORT $LN35@GetDamageP
  00087	3b c8		 cmp	 ecx, eax
  00089	7d 0e		 jge	 SHORT $LN35@GetDamageP

; 1407 : 	return m_pPropMover + nIndex;

  0008b	69 c9 90 06 00
	00		 imul	 ecx, ecx, 1680
  00091	03 0d b8 01 00
	00		 add	 ecx, DWORD PTR ?prj@@3VCProject@@A+440
  00097	eb 1d		 jmp	 SHORT $LN30@GetDamageP
$LN35@GetDamageP:

; 579  : 	LPCTSTR szErr = Error( _T( "%s min:%d, max:%d, index:%d" ), szMsg, nMin, nMax, nIndex ); 

  00099	51		 push	 ecx
  0009a	50		 push	 eax
  0009b	6a 00		 push	 0
  0009d	68 00 00 00 00	 push	 OFFSET ??_C@_0BJ@GKPOBPPI@GetMoverProp?5range_error@
  000a2	68 00 00 00 00	 push	 OFFSET ??_C@_0BM@HMFGHCP@?$CFs?5min?3?$CFd?0?5max?3?$CFd?0?5index?3?$CFd@
  000a7	e8 00 00 00 00	 call	 ?Error@@YAPBDPBDZZ	; Error

; 1406 : 	VERIFY_RANGE( nIndex, 0, m_nMoverPropSize, "GetMoverProp range_error", NULL );

  000ac	a1 b4 01 00 00	 mov	 eax, DWORD PTR ?prj@@3VCProject@@A+436

; 579  : 	LPCTSTR szErr = Error( _T( "%s min:%d, max:%d, index:%d" ), szMsg, nMin, nMax, nIndex ); 

  000b1	83 c4 14	 add	 esp, 20			; 00000014H

; 1406 : 	VERIFY_RANGE( nIndex, 0, m_nMoverPropSize, "GetMoverProp range_error", NULL );

  000b4	33 c9		 xor	 ecx, ecx
$LN30@GetDamageP:
; File C:\IAGOS\server\v18\Source\Source\_Common\MoverAttack.cpp

; 1236 : 		atkType = GetProp()->eElementType;

  000b6	8b 89 fc 00 00
	00		 mov	 ecx, DWORD PTR [ecx+252]
  000bc	89 4d 14	 mov	 DWORD PTR _atkType$1$[ebp], ecx
; File C:\IAGOS\server\v18\Source\Source\_Common\Mover.h

; 1020 : 	MoverProp*		GetProp() { return prj.GetMoverProp( m_dwIndex ); }	// °´ĂĽŔÇ ÇÁ·ÎĆŰĆĽ ľň±â 	

  000bf	8b 8e 74 01 00
	00		 mov	 ecx, DWORD PTR [esi+372]
; File C:\IAGOS\server\v18\Source\Source\_Common\Project.h

; 1406 : 	VERIFY_RANGE( nIndex, 0, m_nMoverPropSize, "GetMoverProp range_error", NULL );

  000c5	85 c9		 test	 ecx, ecx
  000c7	78 12		 js	 SHORT $LN46@GetDamageP
  000c9	3b c8		 cmp	 ecx, eax
  000cb	7d 0e		 jge	 SHORT $LN46@GetDamageP

; 1407 : 	return m_pPropMover + nIndex;

  000cd	69 c9 90 06 00
	00		 imul	 ecx, ecx, 1680
  000d3	03 0d b8 01 00
	00		 add	 ecx, DWORD PTR ?prj@@3VCProject@@A+440
  000d9	eb 1d		 jmp	 SHORT $LN41@GetDamageP
$LN46@GetDamageP:

; 579  : 	LPCTSTR szErr = Error( _T( "%s min:%d, max:%d, index:%d" ), szMsg, nMin, nMax, nIndex ); 

  000db	51		 push	 ecx
  000dc	50		 push	 eax
  000dd	6a 00		 push	 0
  000df	68 00 00 00 00	 push	 OFFSET ??_C@_0BJ@GKPOBPPI@GetMoverProp?5range_error@
  000e4	68 00 00 00 00	 push	 OFFSET ??_C@_0BM@HMFGHCP@?$CFs?5min?3?$CFd?0?5max?3?$CFd?0?5index?3?$CFd@
  000e9	e8 00 00 00 00	 call	 ?Error@@YAPBDPBDZZ	; Error

; 1406 : 	VERIFY_RANGE( nIndex, 0, m_nMoverPropSize, "GetMoverProp range_error", NULL );

  000ee	a1 b4 01 00 00	 mov	 eax, DWORD PTR ?prj@@3VCProject@@A+436

; 579  : 	LPCTSTR szErr = Error( _T( "%s min:%d, max:%d, index:%d" ), szMsg, nMin, nMax, nIndex ); 

  000f3	83 c4 14	 add	 esp, 20			; 00000014H

; 1406 : 	VERIFY_RANGE( nIndex, 0, m_nMoverPropSize, "GetMoverProp range_error", NULL );

  000f6	33 c9		 xor	 ecx, ecx
$LN41@GetDamageP:
; File C:\IAGOS\server\v18\Source\Source\_Common\MoverAttack.cpp

; 1238 : 		atkLevel = GetProp()->wElementAtk;

  000f8	0f bf b9 00 01
	00 00		 movsx	 edi, WORD PTR [ecx+256]
$LN5@GetDamageP:

; 1239 : #endif // __EXT_ATTRIBUTE
; 1240 : 	}
; 1241 : 
; 1242 : #if __VER < 14 // __EXT_ATTRIBUTE
; 1243 : 	if( atkType == SAI79::NO_PROP )
; 1244 : 		return;
; 1245 : #endif // __EXT_ATTRIBUTE
; 1246 : 
; 1247 : 	if( pDefender->IsPlayer() )

  000ff	8b 75 08	 mov	 esi, DWORD PTR _pDefender$[ebp]
  00102	39 9e 30 02 00
	00		 cmp	 DWORD PTR [esi+560], ebx
  00108	74 20		 je	 SHORT $LN8@GetDamageP

; 1248 : 	{
; 1249 : 		CItemElem* pItemElem = pDefender->GetEquipItem( PARTS_UPPER_BODY );	//˝´Ć®ŔÇ ĽÓĽşŔ» ±¸ÇŃ´Ů.

  0010a	6a 02		 push	 2
  0010c	8b ce		 mov	 ecx, esi
  0010e	e8 00 00 00 00	 call	 ?GetEquipItem@CMover@@QAEPAVCItemElem@@H@Z ; CMover::GetEquipItem

; 1250 : 		if( pItemElem )

  00113	85 c0		 test	 eax, eax
  00115	0f 84 98 00 00
	00		 je	 $LN76@GetDamageP

; 1251 : 		{
; 1252 : 			defType = (SAI79::ePropType)pItemElem->m_bItemResist;

  0011b	0f b6 50 7c	 movzx	 edx, BYTE PTR [eax+124]

; 1253 : 			defLevel = pItemElem->m_nResistAbilityOption;

  0011f	8b 98 80 00 00
	00		 mov	 ebx, DWORD PTR [eax+128]

; 1254 : 		}
; 1255 : 
; 1256 : 		nPlusDEF = GetPropDEFPlus();
; 1257 : 	}

  00125	e9 8b 00 00 00	 jmp	 $LN9@GetDamageP
$LN8@GetDamageP:
; File C:\IAGOS\server\v18\Source\Source\_Common\Mover.h

; 1020 : 	MoverProp*		GetProp() { return prj.GetMoverProp( m_dwIndex ); }	// °´ĂĽŔÇ ÇÁ·ÎĆŰĆĽ ľň±â 	

  0012a	8b 8e 74 01 00
	00		 mov	 ecx, DWORD PTR [esi+372]
; File C:\IAGOS\server\v18\Source\Source\_Common\Project.h

; 1406 : 	VERIFY_RANGE( nIndex, 0, m_nMoverPropSize, "GetMoverProp range_error", NULL );

  00130	85 c9		 test	 ecx, ecx
  00132	78 12		 js	 SHORT $LN57@GetDamageP
  00134	3b c8		 cmp	 ecx, eax
  00136	7d 0e		 jge	 SHORT $LN57@GetDamageP

; 1407 : 	return m_pPropMover + nIndex;

  00138	69 c9 90 06 00
	00		 imul	 ecx, ecx, 1680
  0013e	03 0d b8 01 00
	00		 add	 ecx, DWORD PTR ?prj@@3VCProject@@A+440
  00144	eb 1d		 jmp	 SHORT $LN52@GetDamageP
$LN57@GetDamageP:

; 579  : 	LPCTSTR szErr = Error( _T( "%s min:%d, max:%d, index:%d" ), szMsg, nMin, nMax, nIndex ); 

  00146	51		 push	 ecx
  00147	50		 push	 eax
  00148	6a 00		 push	 0
  0014a	68 00 00 00 00	 push	 OFFSET ??_C@_0BJ@GKPOBPPI@GetMoverProp?5range_error@
  0014f	68 00 00 00 00	 push	 OFFSET ??_C@_0BM@HMFGHCP@?$CFs?5min?3?$CFd?0?5max?3?$CFd?0?5index?3?$CFd@
  00154	e8 00 00 00 00	 call	 ?Error@@YAPBDPBDZZ	; Error

; 1406 : 	VERIFY_RANGE( nIndex, 0, m_nMoverPropSize, "GetMoverProp range_error", NULL );

  00159	a1 b4 01 00 00	 mov	 eax, DWORD PTR ?prj@@3VCProject@@A+436

; 579  : 	LPCTSTR szErr = Error( _T( "%s min:%d, max:%d, index:%d" ), szMsg, nMin, nMax, nIndex ); 

  0015e	83 c4 14	 add	 esp, 20			; 00000014H

; 1406 : 	VERIFY_RANGE( nIndex, 0, m_nMoverPropSize, "GetMoverProp range_error", NULL );

  00161	33 c9		 xor	 ecx, ecx
$LN52@GetDamageP:
; File C:\IAGOS\server\v18\Source\Source\_Common\MoverAttack.cpp

; 1260 : 		defType = pDefender->GetProp()->eElementType;

  00163	8b 91 fc 00 00
	00		 mov	 edx, DWORD PTR [ecx+252]
; File C:\IAGOS\server\v18\Source\Source\_Common\Mover.h

; 1020 : 	MoverProp*		GetProp() { return prj.GetMoverProp( m_dwIndex ); }	// °´ĂĽŔÇ ÇÁ·ÎĆŰĆĽ ľň±â 	

  00169	8b 8e 74 01 00
	00		 mov	 ecx, DWORD PTR [esi+372]
; File C:\IAGOS\server\v18\Source\Source\_Common\MoverAttack.cpp

; 1260 : 		defType = pDefender->GetProp()->eElementType;

  0016f	89 55 08	 mov	 DWORD PTR _defType$1$[ebp], edx
; File C:\IAGOS\server\v18\Source\Source\_Common\Project.h

; 1406 : 	VERIFY_RANGE( nIndex, 0, m_nMoverPropSize, "GetMoverProp range_error", NULL );

  00172	85 c9		 test	 ecx, ecx
  00174	78 19		 js	 SHORT $LN68@GetDamageP
  00176	3b c8		 cmp	 ecx, eax
  00178	7d 15		 jge	 SHORT $LN68@GetDamageP

; 1407 : 	return m_pPropMover + nIndex;

  0017a	69 c1 90 06 00
	00		 imul	 eax, ecx, 1680
  00180	03 05 b8 01 00
	00		 add	 eax, DWORD PTR ?prj@@3VCProject@@A+440
; File C:\IAGOS\server\v18\Source\Source\_Common\MoverAttack.cpp

; 1262 : 		defLevel = pDefender->GetProp()->wElementAtk;

  00186	0f bf 98 00 01
	00 00		 movsx	 ebx, WORD PTR [eax+256]
  0018d	eb 26		 jmp	 SHORT $LN9@GetDamageP
$LN68@GetDamageP:
; File C:\IAGOS\server\v18\Source\Source\_Common\Project.h

; 579  : 	LPCTSTR szErr = Error( _T( "%s min:%d, max:%d, index:%d" ), szMsg, nMin, nMax, nIndex ); 

  0018f	51		 push	 ecx
  00190	50		 push	 eax
  00191	6a 00		 push	 0
  00193	68 00 00 00 00	 push	 OFFSET ??_C@_0BJ@GKPOBPPI@GetMoverProp?5range_error@
  00198	68 00 00 00 00	 push	 OFFSET ??_C@_0BM@HMFGHCP@?$CFs?5min?3?$CFd?0?5max?3?$CFd?0?5index?3?$CFd@
  0019d	e8 00 00 00 00	 call	 ?Error@@YAPBDPBDZZ	; Error
  001a2	8b 55 08	 mov	 edx, DWORD PTR _defType$1$[ebp]
  001a5	83 c4 14	 add	 esp, 20			; 00000014H

; 1406 : 	VERIFY_RANGE( nIndex, 0, m_nMoverPropSize, "GetMoverProp range_error", NULL );

  001a8	33 c0		 xor	 eax, eax
; File C:\IAGOS\server\v18\Source\Source\_Common\MoverAttack.cpp

; 1262 : 		defLevel = pDefender->GetProp()->wElementAtk;

  001aa	0f bf 98 00 01
	00 00		 movsx	 ebx, WORD PTR [eax+256]
  001b1	eb 02		 jmp	 SHORT $LN9@GetDamageP
$LN76@GetDamageP:

; 1250 : 		if( pItemElem )

  001b3	33 d2		 xor	 edx, edx
$LN9@GetDamageP:

; 1263 : #endif // __EXT_ATTRIBUTE
; 1264 : 	}
; 1265 : 
; 1266 : #if __VER >= 14 // __EXT_ATTRIBUTE
; 1267 : 	if( atkType == SAI79::NO_PROP && defType == SAI79::NO_PROP )

  001b5	8b 45 14	 mov	 eax, DWORD PTR _atkType$1$[ebp]
  001b8	85 c0		 test	 eax, eax
  001ba	75 08		 jne	 SHORT $LN11@GetDamageP
  001bc	85 d2		 test	 edx, edx
  001be	0f 84 f0 00 00
	00		 je	 $LN1@GetDamageP
$LN11@GetDamageP:

; 1268 : 		return;
; 1269 : #else // __EXT_ATTRIBUTE
; 1270 : 	if( defType == SAI79::NO_PROP )
; 1271 : 		return;
; 1272 : #endif // __EXT_ATTRIBUTE
; 1273 : 
; 1274 : 	// ĽÓĽşENUMŔ» ŔÎµ¦˝ş·Î °®´Â Ĺ×ŔĚşí 
; 1275 : 	static int table[SAI79::END_PROP][SAI79::END_PROP] = {
; 1276 : 		{0, 0, 0, 0, 0, 0}, // ĽÓĽşľřŔ˝ 
; 1277 : 		{0, 1, 2, 0, 3, 0},	// şŇ   ĽÓĽş
; 1278 : 		{0, 3, 1, 2, 0, 0},	// ą°   ĽÓĽş
; 1279 : 		{0, 0, 3, 1, 0, 2},	// Ŕü±â ĽÓĽş
; 1280 : 		{0, 2, 0, 0, 1, 3},	// ąŮ¶÷ ĽÓĽş
; 1281 : 		{0, 0, 0, 3, 2, 1}	// ¶Ą   ĽÓĽş			
; 1282 : 	};
; 1283 : 
; 1284 : 	int result = table[ atkType ][ defType ];

  001c4	8d 04 40	 lea	 eax, DWORD PTR [eax+eax*2]

; 1285 : #if __VER >= 14 // __EXT_ATTRIBUTE
; 1286 : 	int nFactor = 0, nLevel = 0;

  001c7	33 f6		 xor	 esi, esi
  001c9	8d 04 42	 lea	 eax, DWORD PTR [edx+eax*2]

; 1287 : 	switch( result )

  001cc	8b 04 85 00 00
	00 00		 mov	 eax, DWORD PTR ?table@?1??GetDamagePropertyFactor@CMover@@QAEXPAV2@PAH1H@Z@4PAY05HA[eax*4]
  001d3	83 f8 03	 cmp	 eax, 3
  001d6	0f 87 ce 00 00
	00		 ja	 $LN22@GetDamageP
  001dc	ff 24 85 00 00
	00 00		 jmp	 DWORD PTR $LN75@GetDamageP[eax*4]
$LN12@GetDamageP:

; 1288 : 	{
; 1289 : 		case 0 : // »óĽş ľřŔ˝
; 1290 : 		case 1 : // °°Ŕ˝
; 1291 : 			{
; 1292 : 				if( atkLevel > 0 && defLevel == 0 )

  001e3	85 ff		 test	 edi, edi
  001e5	7e 4d		 jle	 SHORT $LN99@GetDamageP
  001e7	85 db		 test	 ebx, ebx
  001e9	75 22		 jne	 SHORT $LN100@GetDamageP

; 1293 : 					nFactor += CItemUpgrade::GetInstance()->GetAttributeDamageFactor( atkLevel );

  001eb	57		 push	 edi
  001ec	e8 00 00 00 00	 call	 ?GetInstance@CItemUpgrade@@SAPAV1@XZ ; CItemUpgrade::GetInstance
  001f1	8b c8		 mov	 ecx, eax
  001f3	e8 00 00 00 00	 call	 ?GetAttributeDamageFactor@CItemUpgrade@@QAEHH@Z ; CItemUpgrade::GetAttributeDamageFactor
  001f8	8b f0		 mov	 esi, eax

; 1314 : 									:	-( CItemUpgrade::GetInstance()->GetAttributeDefenseFactor( -nLevel ) );	// ąćľî·Â
; 1315 : 	*pnATKFactor += nFactor;

  001fa	8b 45 0c	 mov	 eax, DWORD PTR _pnATKFactor$[ebp]
  001fd	5f		 pop	 edi
  001fe	01 30		 add	 DWORD PTR [eax], esi

; 1316 : 	*pnDEFFactor += nFactor;

  00200	8b 45 10	 mov	 eax, DWORD PTR _pnDEFFactor$[ebp]
  00203	01 30		 add	 DWORD PTR [eax], esi

; 1317 : #else // __EXT_ATTRIBUTE	
; 1318 : 	switch( result )
; 1319 : 	{
; 1320 : 	case 1:				//30% MISS
; 1321 : #if __VER < 13 // __EXT_ENCHANT
; 1322 : 		if( xRandom( 100 ) < 30 )
; 1323 : 			*pnATKFactor = 0;
; 1324 : #endif // __EXT_ENCHANT
; 1325 : 		break;
; 1326 : 	case 2:				//°ř°ÝŔÚ ż­Ľş
; 1327 : #if __VER >= 13 // __EXT_ENCHANT
; 1328 : 		*pnATKFactor -= CItemUpgrade::GetInstance()->GetAttributeDamageFactor( defLevel );
; 1329 : 		*pnDEFFactor -= CItemUpgrade::GetInstance()->GetAttributeDamageFactor( defLevel );
; 1330 : #else // __EXT_ENCHANT
; 1331 : 		*pnATKFactor -= (atkLevel + 10 );
; 1332 : 		*pnDEFFactor += (defLevel + 5 + nPlusDEF );
; 1333 : #endif // __EXT_ENCHANT
; 1334 : 		break;
; 1335 : 	case 3:				//°ř°ÝŔÚ żěĽş 
; 1336 : #if __VER >= 13 // __EXT_ENCHANT
; 1337 : 		*pnATKFactor += CItemUpgrade::GetInstance()->GetAttributeDamageFactor( atkLevel );
; 1338 : 		*pnDEFFactor += CItemUpgrade::GetInstance()->GetAttributeDamageFactor( atkLevel );
; 1339 : #else // __EXT_ENCHANT
; 1340 : 		*pnATKFactor += (atkLevel + 10 + nPlusATK );
; 1341 : 		*pnDEFFactor -= (defLevel + 5 );
; 1342 : #endif // __EXT_ENCHANT
; 1343 : 		break;
; 1344 : 	}
; 1345 : #endif // __EXT_ATTRIBUTE
; 1346 : }

  00205	5e		 pop	 esi
  00206	5b		 pop	 ebx
  00207	8b e5		 mov	 esp, ebp
  00209	5d		 pop	 ebp
  0020a	c2 10 00	 ret	 16			; 00000010H
$LN100@GetDamageP:

; 1296 : 				else if( atkLevel > 0 && defLevel > 0 )

  0020d	0f 8e 97 00 00
	00		 jle	 $LN22@GetDamageP

; 1297 : 					nLevel = atkLevel - defLevel;

  00213	2b fb		 sub	 edi, ebx
$LN21@GetDamageP:

; 1309 : 				break;
; 1310 : 	}
; 1311 : 	
; 1312 : 	if( nLevel != 0 )

  00215	8b c7		 mov	 eax, edi
  00217	8b de		 mov	 ebx, esi
  00219	85 ff		 test	 edi, edi
  0021b	0f 84 89 00 00
	00		 je	 $LN22@GetDamageP

; 1313 : 		nFactor += ( nLevel > 0 )	?	CItemUpgrade::GetInstance()->GetAttributeDamageFactor( nLevel )

  00221	85 c0		 test	 eax, eax
  00223	7e 72		 jle	 SHORT $LN26@GetDamageP
  00225	57		 push	 edi
  00226	e8 00 00 00 00	 call	 ?GetInstance@CItemUpgrade@@SAPAV1@XZ ; CItemUpgrade::GetInstance
  0022b	8b c8		 mov	 ecx, eax
  0022d	e8 00 00 00 00	 call	 ?GetAttributeDamageFactor@CItemUpgrade@@QAEHH@Z ; CItemUpgrade::GetAttributeDamageFactor
  00232	eb 74		 jmp	 SHORT $LN27@GetDamageP
$LN99@GetDamageP:

; 1294 : 				else if( atkLevel == 0 && defLevel > 0 )

  00234	75 74		 jne	 SHORT $LN22@GetDamageP
  00236	85 db		 test	 ebx, ebx
  00238	7e 70		 jle	 SHORT $LN22@GetDamageP

; 1295 : 					nFactor -= CItemUpgrade::GetInstance()->GetAttributeDefenseFactor( defLevel - 3 );	// ąćľî·Â

  0023a	8d 43 fd	 lea	 eax, DWORD PTR [ebx-3]
  0023d	50		 push	 eax
  0023e	e8 00 00 00 00	 call	 ?GetInstance@CItemUpgrade@@SAPAV1@XZ ; CItemUpgrade::GetInstance
  00243	8b c8		 mov	 ecx, eax
  00245	e8 00 00 00 00	 call	 ?GetAttributeDefenseFactor@CItemUpgrade@@QAEHH@Z ; CItemUpgrade::GetAttributeDefenseFactor
  0024a	8b f0		 mov	 esi, eax

; 1314 : 									:	-( CItemUpgrade::GetInstance()->GetAttributeDefenseFactor( -nLevel ) );	// ąćľî·Â
; 1315 : 	*pnATKFactor += nFactor;

  0024c	8b 45 0c	 mov	 eax, DWORD PTR _pnATKFactor$[ebp]
  0024f	f7 de		 neg	 esi
  00251	5f		 pop	 edi
  00252	01 30		 add	 DWORD PTR [eax], esi

; 1316 : 	*pnDEFFactor += nFactor;

  00254	8b 45 10	 mov	 eax, DWORD PTR _pnDEFFactor$[ebp]
  00257	01 30		 add	 DWORD PTR [eax], esi

; 1317 : #else // __EXT_ATTRIBUTE	
; 1318 : 	switch( result )
; 1319 : 	{
; 1320 : 	case 1:				//30% MISS
; 1321 : #if __VER < 13 // __EXT_ENCHANT
; 1322 : 		if( xRandom( 100 ) < 30 )
; 1323 : 			*pnATKFactor = 0;
; 1324 : #endif // __EXT_ENCHANT
; 1325 : 		break;
; 1326 : 	case 2:				//°ř°ÝŔÚ ż­Ľş
; 1327 : #if __VER >= 13 // __EXT_ENCHANT
; 1328 : 		*pnATKFactor -= CItemUpgrade::GetInstance()->GetAttributeDamageFactor( defLevel );
; 1329 : 		*pnDEFFactor -= CItemUpgrade::GetInstance()->GetAttributeDamageFactor( defLevel );
; 1330 : #else // __EXT_ENCHANT
; 1331 : 		*pnATKFactor -= (atkLevel + 10 );
; 1332 : 		*pnDEFFactor += (defLevel + 5 + nPlusDEF );
; 1333 : #endif // __EXT_ENCHANT
; 1334 : 		break;
; 1335 : 	case 3:				//°ř°ÝŔÚ żěĽş 
; 1336 : #if __VER >= 13 // __EXT_ENCHANT
; 1337 : 		*pnATKFactor += CItemUpgrade::GetInstance()->GetAttributeDamageFactor( atkLevel );
; 1338 : 		*pnDEFFactor += CItemUpgrade::GetInstance()->GetAttributeDamageFactor( atkLevel );
; 1339 : #else // __EXT_ENCHANT
; 1340 : 		*pnATKFactor += (atkLevel + 10 + nPlusATK );
; 1341 : 		*pnDEFFactor -= (defLevel + 5 );
; 1342 : #endif // __EXT_ENCHANT
; 1343 : 		break;
; 1344 : 	}
; 1345 : #endif // __EXT_ATTRIBUTE
; 1346 : }

  00259	5e		 pop	 esi
  0025a	5b		 pop	 ebx
  0025b	8b e5		 mov	 esp, ebp
  0025d	5d		 pop	 ebp
  0025e	c2 10 00	 ret	 16			; 00000010H
$LN19@GetDamageP:

; 1298 : 				break;
; 1299 : 			}
; 1300 : 
; 1301 : 		case 2 : // ąćľîŔÚ żěĽş
; 1302 : 				nLevel = ( atkLevel - 5 ) - defLevel;

  00261	2b fb		 sub	 edi, ebx
  00263	83 ef 05	 sub	 edi, 5

; 1303 : 				break;

  00266	eb ad		 jmp	 SHORT $LN21@GetDamageP
$LN20@GetDamageP:

; 1304 : 		
; 1305 : 		case 3 : // °ř°ÝŔÚ żěĽş
; 1306 : 				nLevel = atkLevel - ( defLevel > 5 ? defLevel - 5 : 0 );

  00268	33 c9		 xor	 ecx, ecx
  0026a	8d 43 fb	 lea	 eax, DWORD PTR [ebx-5]
  0026d	83 fb 05	 cmp	 ebx, 5
  00270	0f 4e c1	 cmovle	 eax, ecx
  00273	2b f8		 sub	 edi, eax

; 1307 : 				if( nLevel > 0 )

  00275	85 ff		 test	 edi, edi
  00277	7e 9c		 jle	 SHORT $LN21@GetDamageP

; 1308 : 					nFactor += CItemUpgrade::GetInstance()->GetAttributeAddAtkDmgFactor( nLevel ); // ĽÓĽş°ü°č ş¸Á¤Äˇ

  00279	57		 push	 edi
  0027a	e8 00 00 00 00	 call	 ?GetInstance@CItemUpgrade@@SAPAV1@XZ ; CItemUpgrade::GetInstance
  0027f	8b c8		 mov	 ecx, eax
  00281	e8 00 00 00 00	 call	 ?GetAttributeAddAtkDmgFactor@CItemUpgrade@@QAEHH@Z ; CItemUpgrade::GetAttributeAddAtkDmgFactor

; 1313 : 		nFactor += ( nLevel > 0 )	?	CItemUpgrade::GetInstance()->GetAttributeDamageFactor( nLevel )

  00286	57		 push	 edi
  00287	8b f0		 mov	 esi, eax
  00289	e8 00 00 00 00	 call	 ?GetInstance@CItemUpgrade@@SAPAV1@XZ ; CItemUpgrade::GetInstance
  0028e	8b c8		 mov	 ecx, eax
  00290	e8 00 00 00 00	 call	 ?GetAttributeDamageFactor@CItemUpgrade@@QAEHH@Z ; CItemUpgrade::GetAttributeDamageFactor
  00295	eb 11		 jmp	 SHORT $LN27@GetDamageP
$LN26@GetDamageP:
  00297	f7 d8		 neg	 eax
  00299	50		 push	 eax
  0029a	e8 00 00 00 00	 call	 ?GetInstance@CItemUpgrade@@SAPAV1@XZ ; CItemUpgrade::GetInstance
  0029f	8b c8		 mov	 ecx, eax
  002a1	e8 00 00 00 00	 call	 ?GetAttributeDefenseFactor@CItemUpgrade@@QAEHH@Z ; CItemUpgrade::GetAttributeDefenseFactor
  002a6	f7 d8		 neg	 eax
$LN27@GetDamageP:
  002a8	03 f0		 add	 esi, eax
$LN22@GetDamageP:

; 1314 : 									:	-( CItemUpgrade::GetInstance()->GetAttributeDefenseFactor( -nLevel ) );	// ąćľî·Â
; 1315 : 	*pnATKFactor += nFactor;

  002aa	8b 45 0c	 mov	 eax, DWORD PTR _pnATKFactor$[ebp]
  002ad	01 30		 add	 DWORD PTR [eax], esi

; 1316 : 	*pnDEFFactor += nFactor;

  002af	8b 45 10	 mov	 eax, DWORD PTR _pnDEFFactor$[ebp]
  002b2	01 30		 add	 DWORD PTR [eax], esi
$LN1@GetDamageP:

; 1317 : #else // __EXT_ATTRIBUTE	
; 1318 : 	switch( result )
; 1319 : 	{
; 1320 : 	case 1:				//30% MISS
; 1321 : #if __VER < 13 // __EXT_ENCHANT
; 1322 : 		if( xRandom( 100 ) < 30 )
; 1323 : 			*pnATKFactor = 0;
; 1324 : #endif // __EXT_ENCHANT
; 1325 : 		break;
; 1326 : 	case 2:				//°ř°ÝŔÚ ż­Ľş
; 1327 : #if __VER >= 13 // __EXT_ENCHANT
; 1328 : 		*pnATKFactor -= CItemUpgrade::GetInstance()->GetAttributeDamageFactor( defLevel );
; 1329 : 		*pnDEFFactor -= CItemUpgrade::GetInstance()->GetAttributeDamageFactor( defLevel );
; 1330 : #else // __EXT_ENCHANT
; 1331 : 		*pnATKFactor -= (atkLevel + 10 );
; 1332 : 		*pnDEFFactor += (defLevel + 5 + nPlusDEF );
; 1333 : #endif // __EXT_ENCHANT
; 1334 : 		break;
; 1335 : 	case 3:				//°ř°ÝŔÚ żěĽş 
; 1336 : #if __VER >= 13 // __EXT_ENCHANT
; 1337 : 		*pnATKFactor += CItemUpgrade::GetInstance()->GetAttributeDamageFactor( atkLevel );
; 1338 : 		*pnDEFFactor += CItemUpgrade::GetInstance()->GetAttributeDamageFactor( atkLevel );
; 1339 : #else // __EXT_ENCHANT
; 1340 : 		*pnATKFactor += (atkLevel + 10 + nPlusATK );
; 1341 : 		*pnDEFFactor -= (defLevel + 5 );
; 1342 : #endif // __EXT_ENCHANT
; 1343 : 		break;
; 1344 : 	}
; 1345 : #endif // __EXT_ATTRIBUTE
; 1346 : }

  002b4	5f		 pop	 edi
  002b5	5e		 pop	 esi
  002b6	5b		 pop	 ebx
  002b7	8b e5		 mov	 esp, ebp
  002b9	5d		 pop	 ebp
  002ba	c2 10 00	 ret	 16			; 00000010H
  002bd	0f 1f 00	 npad	 3
$LN75@GetDamageP:
  002c0	00 00 00 00	 DD	 $LN12@GetDamageP
  002c4	00 00 00 00	 DD	 $LN12@GetDamageP
  002c8	00 00 00 00	 DD	 $LN19@GetDamageP
  002cc	00 00 00 00	 DD	 $LN20@GetDamageP
?GetDamagePropertyFactor@CMover@@QAEXPAV1@PAH1H@Z ENDP	; CMover::GetDamagePropertyFactor
_TEXT	ENDS
; Function compile flags: /Ogtp
; File C:\IAGOS\server\v18\Source\Source\_Common\MoverAttack.cpp
;	COMDAT ?GetWeaponPlusDamage@CMover@@QAEHHH@Z
_TEXT	SEGMENT
_nDamage$ = 8						; size = 4
_bRandom$ = 12						; size = 4
?GetWeaponPlusDamage@CMover@@QAEHHH@Z PROC		; CMover::GetWeaponPlusDamage, COMDAT
; _this$ = ecx

; 125  : {

  00000	55		 push	 ebp
  00001	8b ec		 mov	 ebp, esp
  00003	56		 push	 esi

; 126  : 	int nPlus = 0;
; 127  : 	CItemElem* pWeapon = GetWeaponItem();

  00004	6a 0a		 push	 10			; 0000000aH
  00006	8b f1		 mov	 esi, ecx
  00008	e8 00 00 00 00	 call	 ?GetWeaponItem@CMover@@QAEPAVCItemElem@@H@Z ; CMover::GetWeaponItem

; 128  : 	if( pWeapon )

  0000d	85 c0		 test	 eax, eax
  0000f	74 26		 je	 SHORT $LN2@GetWeaponP

; 129  : 	{
; 130  : 		int nOption = pWeapon->GetAbilityOption();	

  00011	8b 40 64	 mov	 eax, DWORD PTR [eax+100]

; 131  : 		if( nOption > 10 )

  00014	83 f8 0a	 cmp	 eax, 10			; 0000000aH
  00017	7f 1e		 jg	 SHORT $LN2@GetWeaponP

; 132  : 			return nPlus;
; 133  : 		
; 134  : 		ItemProp* pItemProp = GetActiveHandItemProp();
; 135  : 		return ::GetWeaponPlusDamage( nDamage, bRandom, pItemProp, nOption ); 

  00019	50		 push	 eax
  0001a	6a 0a		 push	 10			; 0000000aH
  0001c	8b ce		 mov	 ecx, esi
  0001e	e8 00 00 00 00	 call	 ?GetActiveHandItemProp@CMover@@QAEPAUItemProp@@H@Z ; CMover::GetActiveHandItemProp
  00023	50		 push	 eax
  00024	ff 75 0c	 push	 DWORD PTR _bRandom$[ebp]
  00027	ff 75 08	 push	 DWORD PTR _nDamage$[ebp]
  0002a	e8 00 00 00 00	 call	 ?GetWeaponPlusDamage@@YAHHHPAUItemProp@@H@Z ; GetWeaponPlusDamage
  0002f	83 c4 10	 add	 esp, 16			; 00000010H
  00032	5e		 pop	 esi

; 138  : }

  00033	5d		 pop	 ebp
  00034	c2 08 00	 ret	 8
$LN2@GetWeaponP:

; 136  : 	}
; 137  : 	return nPlus;

  00037	33 c0		 xor	 eax, eax
  00039	5e		 pop	 esi

; 138  : }

  0003a	5d		 pop	 ebp
  0003b	c2 08 00	 ret	 8
?GetWeaponPlusDamage@CMover@@QAEHHH@Z ENDP		; CMover::GetWeaponPlusDamage
_TEXT	ENDS
; Function compile flags: /Ogtp
; File C:\IAGOS\server\v18\Source\Source\_Common\MoverAttack.cpp
;	COMDAT ?GetPlusWeaponATK@CMover@@QAEHK@Z
_TEXT	SEGMENT
_dwWeaponType$ = 8					; size = 4
?GetPlusWeaponATK@CMover@@QAEHK@Z PROC			; CMover::GetPlusWeaponATK, COMDAT
; _this$ = ecx

; 285  : {

  00000	55		 push	 ebp
  00001	8b ec		 mov	 ebp, esp
  00003	53		 push	 ebx

; 286  : 	int nATK = 0;
; 287  : 	switch( dwWeaponType )

  00004	8b 5d 08	 mov	 ebx, DWORD PTR _dwWeaponType$[ebp]
  00007	56		 push	 esi
  00008	4b		 dec	 ebx
  00009	33 f6		 xor	 esi, esi
  0000b	57		 push	 edi
  0000c	8b f9		 mov	 edi, ecx
  0000e	83 fb 14	 cmp	 ebx, 20			; 00000014H
  00011	77 31		 ja	 SHORT $LN2@GetPlusWea
  00013	0f b6 83 00 00
	00 00		 movzx	 eax, BYTE PTR $LN19@GetPlusWea[ebx]
  0001a	ff 24 85 00 00
	00 00		 jmp	 DWORD PTR $LN20@GetPlusWea[eax*4]
$LN6@GetPlusWea:

; 288  : 	{
; 289  : 	case WT_MELEE_SWD:	
; 290  : 		nATK = GetParam( DST_SWD_DMG, 0 );		

  00021	6a 00		 push	 0
  00023	6a 19		 push	 25			; 00000019H

; 291  : 		break;

  00025	eb 16		 jmp	 SHORT $LN26@GetPlusWea
$LN7@GetPlusWea:

; 292  : 	case WT_MELEE_AXE:	
; 293  : 		nATK = GetParam( DST_AXE_DMG, 0 );		

  00027	6a 00		 push	 0
  00029	6a 22		 push	 34			; 00000022H

; 294  : 		break;

  0002b	eb 10		 jmp	 SHORT $LN26@GetPlusWea
$LN8@GetPlusWea:

; 295  : 	case WT_MELEE_KNUCKLE:
; 296  : 		nATK = GetParam( DST_KNUCKLE_DMG, 0 );		

  0002d	6a 00		 push	 0
  0002f	6a 15		 push	 21			; 00000015H

; 297  : 		break;

  00031	eb 0a		 jmp	 SHORT $LN26@GetPlusWea
$LN9@GetPlusWea:

; 298  : 	case WT_MELEE_YOYO:				// żäżä 
; 299  : 		nATK = GetParam( DST_YOY_DMG, 0 );		

  00033	6a 00		 push	 0
  00035	6a 05		 push	 5

; 300  : 		break;

  00037	eb 04		 jmp	 SHORT $LN26@GetPlusWea
$LN10@GetPlusWea:

; 301  : 	case WT_RANGE_BOW:				// ş¸żě 
; 302  : 		nATK = GetParam( DST_BOW_DMG, 0 );		

  00039	6a 00		 push	 0
  0003b	6a 06		 push	 6
$LN26@GetPlusWea:

; 303  : 		break;
; 304  : 	}
; 305  : #if __VER >= 10 // __LEGEND		//10Â÷ Ŕü˝Â ¸¶˝şĹÍ˝şĹł
; 306  : 	if(IsDualWeapon() == TRUE )

  0003d	e8 00 00 00 00	 call	 ?GetParam@CMover@@QAEHHH@Z ; CMover::GetParam
  00042	8b f0		 mov	 esi, eax
$LN2@GetPlusWea:
  00044	8b cf		 mov	 ecx, edi
  00046	e8 00 00 00 00	 call	 ?IsDualWeapon@CMover@@QAEHXZ ; CMover::IsDualWeapon
  0004b	83 f8 01	 cmp	 eax, 1
  0004e	75 16		 jne	 SHORT $LN11@GetPlusWea

; 307  : 		nATK += GetParam( DST_ONEHANDMASTER_DMG, 0 );

  00050	6a 00		 push	 0
  00052	6a 55		 push	 85			; 00000055H

; 324  : 			break;
; 325  : 		}
; 326  : 	}
; 327  : #endif //__LEGEND		//10Â÷ Ŕü˝Â ¸¶˝şĹÍ˝şĹł
; 328  : 
; 329  : 	return nATK;

  00054	8b cf		 mov	 ecx, edi
  00056	e8 00 00 00 00	 call	 ?GetParam@CMover@@QAEHHH@Z ; CMover::GetParam
  0005b	03 f0		 add	 esi, eax
  0005d	5f		 pop	 edi
  0005e	8b c6		 mov	 eax, esi
  00060	5e		 pop	 esi
  00061	5b		 pop	 ebx

; 330  : }

  00062	5d		 pop	 ebp
  00063	c2 04 00	 ret	 4
$LN11@GetPlusWea:

; 308  : 	else
; 309  : 	{
; 310  : 		switch( dwWeaponType )

  00066	83 fb 14	 cmp	 ebx, 20			; 00000014H
  00069	77 5d		 ja	 SHORT $LN4@GetPlusWea
  0006b	0f b6 83 00 00
	00 00		 movzx	 eax, BYTE PTR $LN21@GetPlusWea[ebx]
  00072	ff 24 85 00 00
	00 00		 jmp	 DWORD PTR $LN22@GetPlusWea[eax*4]
$LN13@GetPlusWea:

; 311  : 		{
; 312  : 		case WT_MELEE_KNUCKLE:
; 313  : 			nATK += GetParam( DST_KNUCKLEMASTER_DMG, 0 );

  00079	6a 00		 push	 0
  0007b	6a 59		 push	 89			; 00000059H

; 324  : 			break;
; 325  : 		}
; 326  : 	}
; 327  : #endif //__LEGEND		//10Â÷ Ŕü˝Â ¸¶˝şĹÍ˝şĹł
; 328  : 
; 329  : 	return nATK;

  0007d	8b cf		 mov	 ecx, edi
  0007f	e8 00 00 00 00	 call	 ?GetParam@CMover@@QAEHHH@Z ; CMover::GetParam
  00084	03 f0		 add	 esi, eax
  00086	5f		 pop	 edi
  00087	8b c6		 mov	 eax, esi
  00089	5e		 pop	 esi
  0008a	5b		 pop	 ebx

; 330  : }

  0008b	5d		 pop	 ebp
  0008c	c2 04 00	 ret	 4
$LN14@GetPlusWea:

; 314  : 			break;
; 315  : 		case WT_MELEE_YOYO:				// żäżä 
; 316  : 			nATK += GetParam( DST_YOYOMASTER_DMG, 0 );

  0008f	6a 00		 push	 0
  00091	6a 57		 push	 87			; 00000057H

; 324  : 			break;
; 325  : 		}
; 326  : 	}
; 327  : #endif //__LEGEND		//10Â÷ Ŕü˝Â ¸¶˝şĹÍ˝şĹł
; 328  : 
; 329  : 	return nATK;

  00093	8b cf		 mov	 ecx, edi
  00095	e8 00 00 00 00	 call	 ?GetParam@CMover@@QAEHHH@Z ; CMover::GetParam
  0009a	03 f0		 add	 esi, eax
  0009c	5f		 pop	 edi
  0009d	8b c6		 mov	 eax, esi
  0009f	5e		 pop	 esi
  000a0	5b		 pop	 ebx

; 330  : }

  000a1	5d		 pop	 ebp
  000a2	c2 04 00	 ret	 4
$LN15@GetPlusWea:

; 317  : 			break;
; 318  : 		case WT_RANGE_BOW:				// ş¸żě 
; 319  : 			nATK += GetParam( DST_BOWMASTER_DMG, 0 );

  000a5	6a 00		 push	 0
  000a7	6a 58		 push	 88			; 00000058H

; 324  : 			break;
; 325  : 		}
; 326  : 	}
; 327  : #endif //__LEGEND		//10Â÷ Ŕü˝Â ¸¶˝şĹÍ˝şĹł
; 328  : 
; 329  : 	return nATK;

  000a9	8b cf		 mov	 ecx, edi
  000ab	e8 00 00 00 00	 call	 ?GetParam@CMover@@QAEHHH@Z ; CMover::GetParam
  000b0	03 f0		 add	 esi, eax
  000b2	5f		 pop	 edi
  000b3	8b c6		 mov	 eax, esi
  000b5	5e		 pop	 esi
  000b6	5b		 pop	 ebx

; 330  : }

  000b7	5d		 pop	 ebp
  000b8	c2 04 00	 ret	 4
$LN16@GetPlusWea:

; 320  : 			break;
; 321  : 		case WT_MELEE_SWD:	
; 322  : 		case WT_MELEE_AXE:	
; 323  : 			nATK += GetParam( DST_TWOHANDMASTER_DMG, 0 );

  000bb	6a 00		 push	 0
  000bd	6a 56		 push	 86			; 00000056H

; 324  : 			break;
; 325  : 		}
; 326  : 	}
; 327  : #endif //__LEGEND		//10Â÷ Ŕü˝Â ¸¶˝şĹÍ˝şĹł
; 328  : 
; 329  : 	return nATK;

  000bf	8b cf		 mov	 ecx, edi
  000c1	e8 00 00 00 00	 call	 ?GetParam@CMover@@QAEHHH@Z ; CMover::GetParam
  000c6	03 f0		 add	 esi, eax
$LN4@GetPlusWea:
  000c8	5f		 pop	 edi
  000c9	8b c6		 mov	 eax, esi
  000cb	5e		 pop	 esi
  000cc	5b		 pop	 ebx

; 330  : }

  000cd	5d		 pop	 ebp
  000ce	c2 04 00	 ret	 4
  000d1	0f 1f 00	 npad	 3
$LN20@GetPlusWea:
  000d4	00 00 00 00	 DD	 $LN6@GetPlusWea
  000d8	00 00 00 00	 DD	 $LN7@GetPlusWea
  000dc	00 00 00 00	 DD	 $LN8@GetPlusWea
  000e0	00 00 00 00	 DD	 $LN9@GetPlusWea
  000e4	00 00 00 00	 DD	 $LN10@GetPlusWea
  000e8	00 00 00 00	 DD	 $LN2@GetPlusWea
$LN19@GetPlusWea:
  000ec	00		 DB	 0
  000ed	01		 DB	 1
  000ee	05		 DB	 5
  000ef	02		 DB	 2
  000f0	05		 DB	 5
  000f1	05		 DB	 5
  000f2	05		 DB	 5
  000f3	05		 DB	 5
  000f4	05		 DB	 5
  000f5	05		 DB	 5
  000f6	05		 DB	 5
  000f7	05		 DB	 5
  000f8	05		 DB	 5
  000f9	05		 DB	 5
  000fa	05		 DB	 5
  000fb	05		 DB	 5
  000fc	05		 DB	 5
  000fd	05		 DB	 5
  000fe	05		 DB	 5
  000ff	03		 DB	 3
  00100	04		 DB	 4
  00101	0f 1f 00	 npad	 3
$LN22@GetPlusWea:
  00104	00 00 00 00	 DD	 $LN16@GetPlusWea
  00108	00 00 00 00	 DD	 $LN13@GetPlusWea
  0010c	00 00 00 00	 DD	 $LN14@GetPlusWea
  00110	00 00 00 00	 DD	 $LN15@GetPlusWea
  00114	00 00 00 00	 DD	 $LN4@GetPlusWea
$LN21@GetPlusWea:
  00118	00		 DB	 0
  00119	00		 DB	 0
  0011a	04		 DB	 4
  0011b	01		 DB	 1
  0011c	04		 DB	 4
  0011d	04		 DB	 4
  0011e	04		 DB	 4
  0011f	04		 DB	 4
  00120	04		 DB	 4
  00121	04		 DB	 4
  00122	04		 DB	 4
  00123	04		 DB	 4
  00124	04		 DB	 4
  00125	04		 DB	 4
  00126	04		 DB	 4
  00127	04		 DB	 4
  00128	04		 DB	 4
  00129	04		 DB	 4
  0012a	04		 DB	 4
  0012b	02		 DB	 2
  0012c	03		 DB	 3
?GetPlusWeaponATK@CMover@@QAEHK@Z ENDP			; CMover::GetPlusWeaponATK
_TEXT	ENDS
; Function compile flags: /Ogtp
; File C:\IAGOS\server\v18\Source\Source\_Common\MoverAttack.cpp
; File C:\IAGOS\server\v18\Source\Source\_Common\Mover.h
; File C:\IAGOS\server\v18\Source\Source\_Common\MoverAttack.cpp
; File C:\IAGOS\server\v18\Source\Source\_Common\Mover.h
; File C:\IAGOS\server\v18\Source\Source\_Common\MoverAttack.cpp
; File C:\IAGOS\server\v18\Source\Source\_Common\Mover.h
; File C:\IAGOS\server\v18\Source\Source\_Common\MoverAttack.cpp
; File C:\IAGOS\server\v18\Source\Source\_Common\Mover.h
; File C:\IAGOS\server\v18\Source\Source\_Common\MoverAttack.cpp
; File C:\IAGOS\server\v18\Source\Source\_Common\Mover.h
; File C:\IAGOS\server\v18\Source\Source\_Common\MoverAttack.cpp
; File C:\IAGOS\server\v18\Source\Source\_Common\Mover.h
; File C:\IAGOS\server\v18\Source\Source\_Common\MoverAttack.cpp
; File C:\IAGOS\server\v18\Source\Source\_Common\Mover.h
; File C:\IAGOS\server\v18\Source\Source\_Common\MoverAttack.cpp
; File C:\IAGOS\server\v18\Source\Source\_Common\Mover.h
; File C:\IAGOS\server\v18\Source\Source\_Common\MoverAttack.cpp
;	COMDAT ?GetWeaponATK@CMover@@QAEHK@Z
_TEXT	SEGMENT
_dwWeaponType$ = 8					; size = 4
tv73 = 8						; size = 4
tv129 = 8						; size = 4
tv152 = 8						; size = 4
tv169 = 8						; size = 4
tv180 = 8						; size = 4
tv207 = 8						; size = 4
tv263 = 8						; size = 4
tv328 = 8						; size = 4
tv336 = 8						; size = 4
tv338 = 8						; size = 4
tv343 = 8						; size = 4
tv345 = 8						; size = 4
tv350 = 8						; size = 4
tv352 = 8						; size = 4
tv357 = 8						; size = 4
tv359 = 8						; size = 4
tv364 = 8						; size = 4
tv366 = 8						; size = 4
tv371 = 8						; size = 4
tv373 = 8						; size = 4
tv378 = 8						; size = 4
tv380 = 8						; size = 4
?GetWeaponATK@CMover@@QAEHK@Z PROC			; CMover::GetWeaponATK, COMDAT
; _this$ = ecx

; 372  : {

  00000	55		 push	 ebp
  00001	8b ec		 mov	 ebp, esp
  00003	53		 push	 ebx

; 373  : 	int nATK = 0;
; 374  : 	switch( dwWeaponType )

  00004	8b 5d 08	 mov	 ebx, DWORD PTR _dwWeaponType$[ebp]
  00007	56		 push	 esi
  00008	33 f6		 xor	 esi, esi
  0000a	57		 push	 edi
  0000b	8d 43 ff	 lea	 eax, DWORD PTR [ebx-1]
  0000e	8b f9		 mov	 edi, ecx
  00010	83 f8 14	 cmp	 eax, 20			; 00000014H
  00013	0f 87 c4 02 00
	00		 ja	 $LN2@GetWeaponA
  00019	0f b6 80 00 00
	00 00		 movzx	 eax, BYTE PTR $LN29@GetWeaponA[eax]
  00020	ff 24 85 00 00
	00 00		 jmp	 DWORD PTR $LN30@GetWeaponA[eax*4]
$LN4@GetWeaponA:
; File C:\IAGOS\server\v18\Source\Source\_Common\Mover.h

; 1133 : 	int				GetLevel() { return m_nLevel; }

  00027	8b b7 d8 05 00
	00		 mov	 esi, DWORD PTR [edi+1496]
; File C:\IAGOS\server\v18\Source\Source\_Common\MoverAttack.cpp

; 377  : 		nATK = (int)( float(( GetStr() - 12 ) * GetJobPropFactor(JOB_PROP_SWD)) + (float(GetLevel() * 1.1f)) );

  0002d	e8 00 00 00 00	 call	 ?GetStr@CMover@@QAEHXZ	; CMover::GetStr
  00032	83 e8 0c	 sub	 eax, 12			; 0000000cH
  00035	8b cf		 mov	 ecx, edi
  00037	6a 00		 push	 0
  00039	66 0f 6e c0	 movd	 xmm0, eax
  0003d	0f 5b c0	 cvtdq2ps xmm0, xmm0
  00040	f3 0f 11 45 08	 movss	 DWORD PTR tv263[ebp], xmm0
  00045	e8 00 00 00 00	 call	 ?GetJobPropFactor@CMover@@QAEMW4JOB_PROP_TYPE@@@Z ; CMover::GetJobPropFactor
  0004a	d8 4d 08	 fmul	 DWORD PTR tv263[ebp]

; 403  : 		break;
; 404  : 	}
; 405  : 
; 406  : 	nATK += GetPlusWeaponATK( dwWeaponType );	// ą«±âŔÇ Ăß°ˇ °ř°Ý·Â¸¦ ±¸ÇŃ´Ů.

  0004d	8b cf		 mov	 ecx, edi
  0004f	66 0f 6e c6	 movd	 xmm0, esi
  00053	0f 5b c0	 cvtdq2ps xmm0, xmm0
  00056	53		 push	 ebx
  00057	f3 0f 59 05 00
	00 00 00	 mulss	 xmm0, DWORD PTR __real@3f8ccccd
  0005f	f3 0f 11 45 08	 movss	 DWORD PTR tv380[ebp], xmm0
  00064	d8 45 08	 fadd	 DWORD PTR tv380[ebp]
  00067	d9 5d 08	 fstp	 DWORD PTR tv378[ebp]
  0006a	f3 0f 2c 75 08	 cvttss2si esi, DWORD PTR tv378[ebp]
  0006f	e8 00 00 00 00	 call	 ?GetPlusWeaponATK@CMover@@QAEHK@Z ; CMover::GetPlusWeaponATK

; 407  : 	return nATK;

  00074	5f		 pop	 edi
  00075	03 c6		 add	 eax, esi
  00077	5e		 pop	 esi
  00078	5b		 pop	 ebx

; 408  : }

  00079	5d		 pop	 ebp
  0007a	c2 04 00	 ret	 4
$LN5@GetWeaponA:
; File C:\IAGOS\server\v18\Source\Source\_Common\Mover.h

; 1133 : 	int				GetLevel() { return m_nLevel; }

  0007d	8b b7 d8 05 00
	00		 mov	 esi, DWORD PTR [edi+1496]
; File C:\IAGOS\server\v18\Source\Source\_Common\MoverAttack.cpp

; 380  : 		nATK = (int)( float(( GetStr() - 12 ) * GetJobPropFactor(JOB_PROP_AXE)) + (float(GetLevel() * 1.2f)) );

  00083	e8 00 00 00 00	 call	 ?GetStr@CMover@@QAEHXZ	; CMover::GetStr
  00088	83 e8 0c	 sub	 eax, 12			; 0000000cH
  0008b	8b cf		 mov	 ecx, edi
  0008d	6a 01		 push	 1
  0008f	66 0f 6e c0	 movd	 xmm0, eax
  00093	0f 5b c0	 cvtdq2ps xmm0, xmm0
  00096	f3 0f 11 45 08	 movss	 DWORD PTR tv207[ebp], xmm0
  0009b	e8 00 00 00 00	 call	 ?GetJobPropFactor@CMover@@QAEMW4JOB_PROP_TYPE@@@Z ; CMover::GetJobPropFactor
  000a0	d8 4d 08	 fmul	 DWORD PTR tv207[ebp]

; 403  : 		break;
; 404  : 	}
; 405  : 
; 406  : 	nATK += GetPlusWeaponATK( dwWeaponType );	// ą«±âŔÇ Ăß°ˇ °ř°Ý·Â¸¦ ±¸ÇŃ´Ů.

  000a3	8b cf		 mov	 ecx, edi
  000a5	66 0f 6e c6	 movd	 xmm0, esi
  000a9	0f 5b c0	 cvtdq2ps xmm0, xmm0
  000ac	53		 push	 ebx
  000ad	f3 0f 59 05 00
	00 00 00	 mulss	 xmm0, DWORD PTR __real@3f99999a
  000b5	f3 0f 11 45 08	 movss	 DWORD PTR tv373[ebp], xmm0
  000ba	d8 45 08	 fadd	 DWORD PTR tv373[ebp]
  000bd	d9 5d 08	 fstp	 DWORD PTR tv371[ebp]
  000c0	f3 0f 2c 75 08	 cvttss2si esi, DWORD PTR tv371[ebp]
  000c5	e8 00 00 00 00	 call	 ?GetPlusWeaponATK@CMover@@QAEHK@Z ; CMover::GetPlusWeaponATK

; 407  : 	return nATK;

  000ca	5f		 pop	 edi
  000cb	03 c6		 add	 eax, esi
  000cd	5e		 pop	 esi
  000ce	5b		 pop	 ebx

; 408  : }

  000cf	5d		 pop	 ebp
  000d0	c2 04 00	 ret	 4
$LN6@GetWeaponA:
; File C:\IAGOS\server\v18\Source\Source\_Common\Mover.h

; 1133 : 	int				GetLevel() { return m_nLevel; }

  000d3	8b b7 d8 05 00
	00		 mov	 esi, DWORD PTR [edi+1496]
; File C:\IAGOS\server\v18\Source\Source\_Common\MoverAttack.cpp

; 383  : 		nATK = (int)( float(( GetStr() - 10 ) * GetJobPropFactor(JOB_PROP_STAFF)) + (float(GetLevel() * 1.1f)) );

  000d9	e8 00 00 00 00	 call	 ?GetStr@CMover@@QAEHXZ	; CMover::GetStr
  000de	83 e8 0a	 sub	 eax, 10			; 0000000aH
  000e1	8b cf		 mov	 ecx, edi
  000e3	6a 02		 push	 2
  000e5	66 0f 6e c0	 movd	 xmm0, eax
  000e9	0f 5b c0	 cvtdq2ps xmm0, xmm0
  000ec	f3 0f 11 45 08	 movss	 DWORD PTR tv73[ebp], xmm0
  000f1	e8 00 00 00 00	 call	 ?GetJobPropFactor@CMover@@QAEMW4JOB_PROP_TYPE@@@Z ; CMover::GetJobPropFactor
  000f6	d8 4d 08	 fmul	 DWORD PTR tv73[ebp]

; 403  : 		break;
; 404  : 	}
; 405  : 
; 406  : 	nATK += GetPlusWeaponATK( dwWeaponType );	// ą«±âŔÇ Ăß°ˇ °ř°Ý·Â¸¦ ±¸ÇŃ´Ů.

  000f9	8b cf		 mov	 ecx, edi
  000fb	66 0f 6e c6	 movd	 xmm0, esi
  000ff	0f 5b c0	 cvtdq2ps xmm0, xmm0
  00102	53		 push	 ebx
  00103	f3 0f 59 05 00
	00 00 00	 mulss	 xmm0, DWORD PTR __real@3f8ccccd
  0010b	f3 0f 11 45 08	 movss	 DWORD PTR tv366[ebp], xmm0
  00110	d8 45 08	 fadd	 DWORD PTR tv366[ebp]
  00113	d9 5d 08	 fstp	 DWORD PTR tv364[ebp]
  00116	f3 0f 2c 75 08	 cvttss2si esi, DWORD PTR tv364[ebp]
  0011b	e8 00 00 00 00	 call	 ?GetPlusWeaponATK@CMover@@QAEHK@Z ; CMover::GetPlusWeaponATK

; 407  : 	return nATK;

  00120	5f		 pop	 edi
  00121	03 c6		 add	 eax, esi
  00123	5e		 pop	 esi
  00124	5b		 pop	 ebx

; 408  : }

  00125	5d		 pop	 ebp
  00126	c2 04 00	 ret	 4
$LN7@GetWeaponA:
; File C:\IAGOS\server\v18\Source\Source\_Common\Mover.h

; 1133 : 	int				GetLevel() { return m_nLevel; }

  00129	8b b7 d8 05 00
	00		 mov	 esi, DWORD PTR [edi+1496]
; File C:\IAGOS\server\v18\Source\Source\_Common\MoverAttack.cpp

; 386  : 		nATK = (int)( float(( GetStr() - 10 ) * GetJobPropFactor(JOB_PROP_STICK)) + (float(GetLevel() * 1.3f)) );

  0012f	e8 00 00 00 00	 call	 ?GetStr@CMover@@QAEHXZ	; CMover::GetStr
  00134	83 e8 0a	 sub	 eax, 10			; 0000000aH
  00137	8b cf		 mov	 ecx, edi
  00139	6a 03		 push	 3
  0013b	66 0f 6e c0	 movd	 xmm0, eax
  0013f	0f 5b c0	 cvtdq2ps xmm0, xmm0
  00142	f3 0f 11 45 08	 movss	 DWORD PTR tv129[ebp], xmm0
  00147	e8 00 00 00 00	 call	 ?GetJobPropFactor@CMover@@QAEMW4JOB_PROP_TYPE@@@Z ; CMover::GetJobPropFactor
  0014c	d8 4d 08	 fmul	 DWORD PTR tv129[ebp]

; 403  : 		break;
; 404  : 	}
; 405  : 
; 406  : 	nATK += GetPlusWeaponATK( dwWeaponType );	// ą«±âŔÇ Ăß°ˇ °ř°Ý·Â¸¦ ±¸ÇŃ´Ů.

  0014f	8b cf		 mov	 ecx, edi
  00151	66 0f 6e c6	 movd	 xmm0, esi
  00155	0f 5b c0	 cvtdq2ps xmm0, xmm0
  00158	53		 push	 ebx
  00159	f3 0f 59 05 00
	00 00 00	 mulss	 xmm0, DWORD PTR __real@3fa66666
  00161	f3 0f 11 45 08	 movss	 DWORD PTR tv359[ebp], xmm0
  00166	d8 45 08	 fadd	 DWORD PTR tv359[ebp]
  00169	d9 5d 08	 fstp	 DWORD PTR tv357[ebp]
  0016c	f3 0f 2c 75 08	 cvttss2si esi, DWORD PTR tv357[ebp]
  00171	e8 00 00 00 00	 call	 ?GetPlusWeaponATK@CMover@@QAEHK@Z ; CMover::GetPlusWeaponATK

; 407  : 	return nATK;

  00176	5f		 pop	 edi
  00177	03 c6		 add	 eax, esi
  00179	5e		 pop	 esi
  0017a	5b		 pop	 ebx

; 408  : }

  0017b	5d		 pop	 ebp
  0017c	c2 04 00	 ret	 4
$LN8@GetWeaponA:
; File C:\IAGOS\server\v18\Source\Source\_Common\Mover.h

; 1133 : 	int				GetLevel() { return m_nLevel; }

  0017f	8b b7 d8 05 00
	00		 mov	 esi, DWORD PTR [edi+1496]
; File C:\IAGOS\server\v18\Source\Source\_Common\MoverAttack.cpp

; 389  : 		nATK = (int)( float( (GetStr() - 10 ) * GetJobPropFactor(JOB_PROP_KNUCKLE)) + (float(GetLevel() * 1.2f)) );

  00185	e8 00 00 00 00	 call	 ?GetStr@CMover@@QAEHXZ	; CMover::GetStr
  0018a	83 e8 0a	 sub	 eax, 10			; 0000000aH
  0018d	8b cf		 mov	 ecx, edi
  0018f	6a 04		 push	 4
  00191	66 0f 6e c0	 movd	 xmm0, eax
  00195	0f 5b c0	 cvtdq2ps xmm0, xmm0
  00198	f3 0f 11 45 08	 movss	 DWORD PTR tv152[ebp], xmm0
  0019d	e8 00 00 00 00	 call	 ?GetJobPropFactor@CMover@@QAEMW4JOB_PROP_TYPE@@@Z ; CMover::GetJobPropFactor
  001a2	d8 4d 08	 fmul	 DWORD PTR tv152[ebp]

; 403  : 		break;
; 404  : 	}
; 405  : 
; 406  : 	nATK += GetPlusWeaponATK( dwWeaponType );	// ą«±âŔÇ Ăß°ˇ °ř°Ý·Â¸¦ ±¸ÇŃ´Ů.

  001a5	8b cf		 mov	 ecx, edi
  001a7	66 0f 6e c6	 movd	 xmm0, esi
  001ab	0f 5b c0	 cvtdq2ps xmm0, xmm0
  001ae	53		 push	 ebx
  001af	f3 0f 59 05 00
	00 00 00	 mulss	 xmm0, DWORD PTR __real@3f99999a
  001b7	f3 0f 11 45 08	 movss	 DWORD PTR tv352[ebp], xmm0
  001bc	d8 45 08	 fadd	 DWORD PTR tv352[ebp]
  001bf	d9 5d 08	 fstp	 DWORD PTR tv350[ebp]
  001c2	f3 0f 2c 75 08	 cvttss2si esi, DWORD PTR tv350[ebp]
  001c7	e8 00 00 00 00	 call	 ?GetPlusWeaponATK@CMover@@QAEHK@Z ; CMover::GetPlusWeaponATK

; 407  : 	return nATK;

  001cc	5f		 pop	 edi
  001cd	03 c6		 add	 eax, esi
  001cf	5e		 pop	 esi
  001d0	5b		 pop	 ebx

; 408  : }

  001d1	5d		 pop	 ebp
  001d2	c2 04 00	 ret	 4
$LN9@GetWeaponA:
; File C:\IAGOS\server\v18\Source\Source\_Common\Mover.h

; 1133 : 	int				GetLevel() { return m_nLevel; }

  001d5	8b b7 d8 05 00
	00		 mov	 esi, DWORD PTR [edi+1496]
; File C:\IAGOS\server\v18\Source\Source\_Common\MoverAttack.cpp

; 392  : 		nATK = (int)( ( GetInt() - 10 ) * GetJobPropFactor(JOB_PROP_WAND) + GetLevel() * 1.2f );

  001db	e8 00 00 00 00	 call	 ?GetInt@CMover@@QAEHXZ	; CMover::GetInt
  001e0	83 e8 0a	 sub	 eax, 10			; 0000000aH
  001e3	8b cf		 mov	 ecx, edi
  001e5	6a 05		 push	 5
  001e7	66 0f 6e c0	 movd	 xmm0, eax
  001eb	0f 5b c0	 cvtdq2ps xmm0, xmm0
  001ee	f3 0f 11 45 08	 movss	 DWORD PTR tv169[ebp], xmm0
  001f3	e8 00 00 00 00	 call	 ?GetJobPropFactor@CMover@@QAEMW4JOB_PROP_TYPE@@@Z ; CMover::GetJobPropFactor
  001f8	d8 4d 08	 fmul	 DWORD PTR tv169[ebp]

; 403  : 		break;
; 404  : 	}
; 405  : 
; 406  : 	nATK += GetPlusWeaponATK( dwWeaponType );	// ą«±âŔÇ Ăß°ˇ °ř°Ý·Â¸¦ ±¸ÇŃ´Ů.

  001fb	8b cf		 mov	 ecx, edi
  001fd	66 0f 6e c6	 movd	 xmm0, esi
  00201	0f 5b c0	 cvtdq2ps xmm0, xmm0
  00204	53		 push	 ebx
  00205	f3 0f 59 05 00
	00 00 00	 mulss	 xmm0, DWORD PTR __real@3f99999a
  0020d	f3 0f 11 45 08	 movss	 DWORD PTR tv345[ebp], xmm0
  00212	d8 45 08	 fadd	 DWORD PTR tv345[ebp]
  00215	d9 5d 08	 fstp	 DWORD PTR tv343[ebp]
  00218	f3 0f 2c 75 08	 cvttss2si esi, DWORD PTR tv343[ebp]
  0021d	e8 00 00 00 00	 call	 ?GetPlusWeaponATK@CMover@@QAEHK@Z ; CMover::GetPlusWeaponATK

; 407  : 	return nATK;

  00222	5f		 pop	 edi
  00223	03 c6		 add	 eax, esi
  00225	5e		 pop	 esi
  00226	5b		 pop	 ebx

; 408  : }

  00227	5d		 pop	 ebp
  00228	c2 04 00	 ret	 4
$LN10@GetWeaponA:
; File C:\IAGOS\server\v18\Source\Source\_Common\Mover.h

; 1133 : 	int				GetLevel() { return m_nLevel; }

  0022b	8b b7 d8 05 00
	00		 mov	 esi, DWORD PTR [edi+1496]
; File C:\IAGOS\server\v18\Source\Source\_Common\MoverAttack.cpp

; 398  : 		nATK = (int)( float(( GetStr() - 12 ) * GetJobPropFactor(JOB_PROP_YOYO)) + (float(GetLevel() * 1.1f)) );

  00231	e8 00 00 00 00	 call	 ?GetStr@CMover@@QAEHXZ	; CMover::GetStr
  00236	83 e8 0c	 sub	 eax, 12			; 0000000cH
  00239	8b cf		 mov	 ecx, edi
  0023b	6a 07		 push	 7
  0023d	66 0f 6e c0	 movd	 xmm0, eax
  00241	0f 5b c0	 cvtdq2ps xmm0, xmm0
  00244	f3 0f 11 45 08	 movss	 DWORD PTR tv180[ebp], xmm0
  00249	e8 00 00 00 00	 call	 ?GetJobPropFactor@CMover@@QAEMW4JOB_PROP_TYPE@@@Z ; CMover::GetJobPropFactor
  0024e	d8 4d 08	 fmul	 DWORD PTR tv180[ebp]

; 403  : 		break;
; 404  : 	}
; 405  : 
; 406  : 	nATK += GetPlusWeaponATK( dwWeaponType );	// ą«±âŔÇ Ăß°ˇ °ř°Ý·Â¸¦ ±¸ÇŃ´Ů.

  00251	8b cf		 mov	 ecx, edi
  00253	66 0f 6e c6	 movd	 xmm0, esi
  00257	0f 5b c0	 cvtdq2ps xmm0, xmm0
  0025a	53		 push	 ebx
  0025b	f3 0f 59 05 00
	00 00 00	 mulss	 xmm0, DWORD PTR __real@3f8ccccd
  00263	f3 0f 11 45 08	 movss	 DWORD PTR tv338[ebp], xmm0
  00268	d8 45 08	 fadd	 DWORD PTR tv338[ebp]
  0026b	d9 5d 08	 fstp	 DWORD PTR tv336[ebp]
  0026e	f3 0f 2c 75 08	 cvttss2si esi, DWORD PTR tv336[ebp]
  00273	e8 00 00 00 00	 call	 ?GetPlusWeaponATK@CMover@@QAEHK@Z ; CMover::GetPlusWeaponATK

; 407  : 	return nATK;

  00278	5f		 pop	 edi
  00279	03 c6		 add	 eax, esi
  0027b	5e		 pop	 esi
  0027c	5b		 pop	 ebx

; 408  : }

  0027d	5d		 pop	 ebp
  0027e	c2 04 00	 ret	 4
$LN11@GetWeaponA:
; File C:\IAGOS\server\v18\Source\Source\_Common\Mover.h

; 1133 : 	int				GetLevel() { return m_nLevel; }

  00281	8b b7 d8 05 00
	00		 mov	 esi, DWORD PTR [edi+1496]
; File C:\IAGOS\server\v18\Source\Source\_Common\MoverAttack.cpp

; 402  : 		nATK = (int)( (((GetDex()-14)*4.0f + (GetLevel()*1.3f) + (GetStr()*0.2f)) * 0.7f) );

  00287	e8 00 00 00 00	 call	 ?GetDex@CMover@@QAEHXZ	; CMover::GetDex
  0028c	83 e8 0e	 sub	 eax, 14			; 0000000eH
  0028f	0f 57 c9	 xorps	 xmm1, xmm1
  00292	0f 57 c0	 xorps	 xmm0, xmm0
  00295	8b cf		 mov	 ecx, edi
  00297	f3 0f 2a c6	 cvtsi2ss xmm0, esi
  0029b	f3 0f 2a c8	 cvtsi2ss xmm1, eax
  0029f	f3 0f 59 05 00
	00 00 00	 mulss	 xmm0, DWORD PTR __real@3fa66666
  002a7	f3 0f 59 0d 00
	00 00 00	 mulss	 xmm1, DWORD PTR __real@40800000
  002af	f3 0f 58 c8	 addss	 xmm1, xmm0
  002b3	f3 0f 11 4d 08	 movss	 DWORD PTR tv328[ebp], xmm1
  002b8	e8 00 00 00 00	 call	 ?GetStr@CMover@@QAEHXZ	; CMover::GetStr
  002bd	0f 57 c0	 xorps	 xmm0, xmm0
  002c0	f3 0f 2a c0	 cvtsi2ss xmm0, eax
  002c4	f3 0f 59 05 00
	00 00 00	 mulss	 xmm0, DWORD PTR __real@3e4ccccd
  002cc	f3 0f 58 45 08	 addss	 xmm0, DWORD PTR tv328[ebp]
  002d1	f3 0f 59 05 00
	00 00 00	 mulss	 xmm0, DWORD PTR __real@3f333333
  002d9	f3 0f 2c f0	 cvttss2si esi, xmm0
$LN2@GetWeaponA:

; 403  : 		break;
; 404  : 	}
; 405  : 
; 406  : 	nATK += GetPlusWeaponATK( dwWeaponType );	// ą«±âŔÇ Ăß°ˇ °ř°Ý·Â¸¦ ±¸ÇŃ´Ů.

  002dd	53		 push	 ebx
  002de	8b cf		 mov	 ecx, edi
  002e0	e8 00 00 00 00	 call	 ?GetPlusWeaponATK@CMover@@QAEHK@Z ; CMover::GetPlusWeaponATK

; 407  : 	return nATK;

  002e5	5f		 pop	 edi
  002e6	03 c6		 add	 eax, esi
  002e8	5e		 pop	 esi
  002e9	5b		 pop	 ebx

; 408  : }

  002ea	5d		 pop	 ebp
  002eb	c2 04 00	 ret	 4
  002ee	66 90		 npad	 2
$LN30@GetWeaponA:
  002f0	00 00 00 00	 DD	 $LN4@GetWeaponA
  002f4	00 00 00 00	 DD	 $LN5@GetWeaponA
  002f8	00 00 00 00	 DD	 $LN7@GetWeaponA
  002fc	00 00 00 00	 DD	 $LN8@GetWeaponA
  00300	00 00 00 00	 DD	 $LN6@GetWeaponA
  00304	00 00 00 00	 DD	 $LN9@GetWeaponA
  00308	00 00 00 00	 DD	 $LN10@GetWeaponA
  0030c	00 00 00 00	 DD	 $LN11@GetWeaponA
  00310	00 00 00 00	 DD	 $LN2@GetWeaponA
$LN29@GetWeaponA:
  00314	00		 DB	 0
  00315	01		 DB	 1
  00316	02		 DB	 2
  00317	03		 DB	 3
  00318	04		 DB	 4
  00319	05		 DB	 5
  0031a	08		 DB	 8
  0031b	08		 DB	 8
  0031c	08		 DB	 8
  0031d	08		 DB	 8
  0031e	08		 DB	 8
  0031f	08		 DB	 8
  00320	08		 DB	 8
  00321	08		 DB	 8
  00322	08		 DB	 8
  00323	08		 DB	 8
  00324	08		 DB	 8
  00325	08		 DB	 8
  00326	08		 DB	 8
  00327	06		 DB	 6
  00328	07		 DB	 7
?GetWeaponATK@CMover@@QAEHK@Z ENDP			; CMover::GetWeaponATK
_TEXT	ENDS
; Function compile flags: /Ogtp
; File C:\IAGOS\server\v18\Source\Source\_Common\MoverAttack.cpp
; File C:\IAGOS\server\v18\Source\Source\_Common\xUtil.h
; File C:\IAGOS\server\v18\Source\Source\_Common\MoverAttack.cpp
; File C:\IAGOS\server\v18\Source\Source\_Common\xUtil.h
; File C:\IAGOS\server\v18\Source\Source\_Common\MoverAttack.cpp
; File C:\IAGOS\server\v18\Source\Source\_Common\Mover.h
; File C:\IAGOS\server\v18\Source\Source\_Common\MoverAttack.cpp
;	COMDAT ?GetBlockFactor@CMover@@QAEMPAV1@PAUATTACK_INFO@@@Z
_TEXT	SEGMENT
_r$1$ = -8						; size = 4
_fBlockA$1$ = -4					; size = 4
_pAttacker$ = 8						; size = 4
tv94 = 8						; size = 4
tv362 = 8						; size = 4
tv363 = 8						; size = 4
tv392 = 8						; size = 4
_pInfo$ = 12						; size = 4
tv80 = 12						; size = 4
?GetBlockFactor@CMover@@QAEMPAV1@PAUATTACK_INFO@@@Z PROC ; CMover::GetBlockFactor, COMDAT
; _this$ = ecx

; 732  : {

  00000	55		 push	 ebp
  00001	8b ec		 mov	 ebp, esp
  00003	83 ec 08	 sub	 esp, 8
  00006	53		 push	 ebx
  00007	8b d9		 mov	 ebx, ecx
  00009	56		 push	 esi
  0000a	57		 push	 edi

; 733  : 	if( IsPlayer() )

  0000b	83 bb 30 02 00
	00 00		 cmp	 DWORD PTR [ebx+560], 0
  00012	0f 84 4f 01 00
	00		 je	 $LN2@GetBlockFa
; File C:\IAGOS\server\v18\Source\Source\_Common\xUtil.h

; 16   : 	g_next = g_next * 1103515245 + 12345;// + nRandomSeed[ i++ ];

  00018	69 0d 00 00 00
	00 6d 4e c6 41	 imul	 ecx, DWORD PTR ?g_next@@3KA, 1103515245 ; g_next

; 22   : 	return  xRand() % num;

  00022	b8 cd cc cc cc	 mov	 eax, -858993459		; cccccccdH

; 16   : 	g_next = g_next * 1103515245 + 12345;// + nRandomSeed[ i++ ];

  00027	81 c1 39 30 00
	00		 add	 ecx, 12345		; 00003039H

; 22   : 	return  xRand() % num;

  0002d	f7 e1		 mul	 ecx

; 16   : 	g_next = g_next * 1103515245 + 12345;// + nRandomSeed[ i++ ];

  0002f	89 0d 00 00 00
	00		 mov	 DWORD PTR ?g_next@@3KA, ecx ; g_next

; 22   : 	return  xRand() % num;

  00035	c1 ea 06	 shr	 edx, 6
  00038	8d 04 92	 lea	 eax, DWORD PTR [edx+edx*4]
  0003b	c1 e0 04	 shl	 eax, 4
  0003e	2b c8		 sub	 ecx, eax
  00040	89 4d f8	 mov	 DWORD PTR _r$1$[ebp], ecx
; File C:\IAGOS\server\v18\Source\Source\_Common\MoverAttack.cpp

; 736  : 		if( r <= 5 )

  00043	83 f9 05	 cmp	 ecx, 5
  00046	0f 8e 93 01 00
	00		 jle	 $LN15@GetBlockFa

; 737  : 			return 1.0f;	// Blocking ˝ÇĆĐ
; 738  : 		if( r >= 75 )

  0004c	83 f9 4b	 cmp	 ecx, 75			; 0000004bH
  0004f	0f 8d 41 01 00
	00		 jge	 $LN28@GetBlockFa

; 739  : 			return 0.1f;	// 10Ŕ¸·Î łŞ´«´Ů.
; 740  : 
; 741  : 		float fBlockA = GetLevel() / ( (GetLevel()+pAttacker->GetLevel())*15.0f );

  00055	8b 7d 08	 mov	 edi, DWORD PTR _pAttacker$[ebp]
  00058	8b 8b d8 05 00
	00		 mov	 ecx, DWORD PTR [ebx+1496]
  0005e	8b 87 d8 05 00
	00		 mov	 eax, DWORD PTR [edi+1496]
  00064	03 c1		 add	 eax, ecx
  00066	66 0f 6e c9	 movd	 xmm1, ecx
  0006a	0f 5b c9	 cvtdq2ps xmm1, xmm1

; 742  : 		float fBlockB = (GetDex()+pAttacker->GetDex()+2) * ( (GetDex()-pAttacker->GetDex()) / 800.0f );

  0006d	8b cf		 mov	 ecx, edi
  0006f	66 0f 6e c0	 movd	 xmm0, eax
  00073	0f 5b c0	 cvtdq2ps xmm0, xmm0
  00076	f3 0f 59 05 00
	00 00 00	 mulss	 xmm0, DWORD PTR __real@41700000
  0007e	f3 0f 5e c8	 divss	 xmm1, xmm0
  00082	f3 0f 11 4d fc	 movss	 DWORD PTR _fBlockA$1$[ebp], xmm1
  00087	e8 00 00 00 00	 call	 ?GetDex@CMover@@QAEHXZ	; CMover::GetDex
  0008c	8b cb		 mov	 ecx, ebx
  0008e	8b f0		 mov	 esi, eax
  00090	e8 00 00 00 00	 call	 ?GetDex@CMover@@QAEHXZ	; CMover::GetDex
  00095	2b c6		 sub	 eax, esi
  00097	8b cf		 mov	 ecx, edi
  00099	66 0f 6e c0	 movd	 xmm0, eax
  0009d	0f 5b c0	 cvtdq2ps xmm0, xmm0
  000a0	f3 0f 5e 05 00
	00 00 00	 divss	 xmm0, DWORD PTR __real@44480000
  000a8	f3 0f 11 45 08	 movss	 DWORD PTR tv362[ebp], xmm0
  000ad	e8 00 00 00 00	 call	 ?GetDex@CMover@@QAEHXZ	; CMover::GetDex
  000b2	8b cb		 mov	 ecx, ebx
  000b4	8b f0		 mov	 esi, eax
  000b6	e8 00 00 00 00	 call	 ?GetDex@CMover@@QAEHXZ	; CMover::GetDex

; 743  : 		if( fBlockB > 10.0f )

  000bb	f3 0f 10 0d 00
	00 00 00	 movss	 xmm1, DWORD PTR __real@41200000
  000c3	83 c0 02	 add	 eax, 2
  000c6	03 c6		 add	 eax, esi

; 744  : 			fBlockB = 10.0f;
; 745  : 		float fAdd = fBlockA + fBlockB;
; 746  : 		if( fAdd < 0.0f )
; 747  : 			fAdd = 0.0f;
; 748  : 		
; 749  : 		if( pInfo->IsRangeAttack() )	// żř°Ĺ¸®ĆňĹ¸ŔĎ¶§´Â 

  000c8	8b 4d 0c	 mov	 ecx, DWORD PTR _pInfo$[ebp]
  000cb	66 0f 6e c0	 movd	 xmm0, eax
  000cf	0f 5b c0	 cvtdq2ps xmm0, xmm0
  000d2	f3 0f 59 45 08	 mulss	 xmm0, DWORD PTR tv362[ebp]
  000d7	f3 0f 5d c8	 minss	 xmm1, xmm0
  000db	0f 57 c0	 xorps	 xmm0, xmm0
  000de	f3 0f 58 4d fc	 addss	 xmm1, DWORD PTR _fBlockA$1$[ebp]
  000e3	f3 0f 5f c1	 maxss	 xmm0, xmm1
  000e7	f3 0f 11 45 08	 movss	 DWORD PTR tv363[ebp], xmm0
  000ec	e8 00 00 00 00	 call	 ?IsRangeAttack@ATTACK_INFO@@QBEHXZ ; ATTACK_INFO::IsRangeAttack
  000f1	85 c0		 test	 eax, eax
  000f3	8b cb		 mov	 ecx, ebx

; 750  : 			fAdd += GetParam( DST_BLOCK_RANGE, 0 );		// żř°Ĺ¸®şí·°Ŕ˛ ş¸Á¤Äˇ¸¦ °ˇÁ®´Ů ľ¸

  000f5	b8 08 00 00 00	 mov	 eax, 8
  000fa	75 05		 jne	 SHORT $LN9@GetBlockFa

; 751  : 		else
; 752  : 			fAdd += GetParam( DST_BLOCK_MELEE, 0 );		// żř°Ĺ¸®°ˇ ľĆ´Ň¶© ±Ů°Ĺ¸® şí·°Ŕ˛ş¸Á¤Äˇ¸¦ °ˇÁ®´Ů ľ¸

  000fc	b8 0e 00 00 00	 mov	 eax, 14			; 0000000eH
$LN9@GetBlockFa:

; 753  : 		
; 754  : 		int nBR = (int)( ( GetDex() / 8.0f ) * GetJobPropFactor( JOB_PROP_BLOCKING ) + fAdd );

  00101	6a 00		 push	 0
  00103	50		 push	 eax
  00104	e8 00 00 00 00	 call	 ?GetParam@CMover@@QAEHHH@Z ; CMover::GetParam
  00109	8b cb		 mov	 ecx, ebx
  0010b	66 0f 6e c0	 movd	 xmm0, eax
  0010f	0f 5b c0	 cvtdq2ps xmm0, xmm0
  00112	f3 0f 58 45 08	 addss	 xmm0, DWORD PTR tv363[ebp]
  00117	f3 0f 11 45 0c	 movss	 DWORD PTR tv80[ebp], xmm0
  0011c	e8 00 00 00 00	 call	 ?GetDex@CMover@@QAEHXZ	; CMover::GetDex
  00121	6a 06		 push	 6
  00123	8b cb		 mov	 ecx, ebx
  00125	66 0f 6e c0	 movd	 xmm0, eax
  00129	0f 5b c0	 cvtdq2ps xmm0, xmm0
  0012c	f3 0f 59 05 00
	00 00 00	 mulss	 xmm0, DWORD PTR __real@3e000000
  00134	f3 0f 11 45 08	 movss	 DWORD PTR tv94[ebp], xmm0
  00139	e8 00 00 00 00	 call	 ?GetJobPropFactor@CMover@@QAEMW4JOB_PROP_TYPE@@@Z ; CMover::GetJobPropFactor
  0013e	d8 4d 08	 fmul	 DWORD PTR tv94[ebp]

; 755  : 		if( nBR < 0 )
; 756  : 			nBR = 0; 
; 757  : 
; 758  : 		if ( nBR > r )		// RŔĚ 6 ~ 74»çŔĚŔÇ °ŞŔĚ¸é ->  BR > RŔÎ °ćżě Blocking Ľş°ř

  00141	33 c0		 xor	 eax, eax
  00143	d8 45 0c	 fadd	 DWORD PTR tv80[ebp]
  00146	d9 5d 08	 fstp	 DWORD PTR tv392[ebp]
  00149	f3 0f 2c 4d 08	 cvttss2si ecx, DWORD PTR tv392[ebp]
  0014e	85 c9		 test	 ecx, ecx
  00150	0f 49 c1	 cmovns	 eax, ecx
  00153	3b 45 f8	 cmp	 eax, DWORD PTR _r$1$[ebp]
  00156	0f 8e 83 00 00
	00		 jle	 $LN15@GetBlockFa

; 759  : 			return 0.0f;

  0015c	d9 ee		 fldz
  0015e	5f		 pop	 edi

; 778  : }

  0015f	5e		 pop	 esi
  00160	5b		 pop	 ebx
  00161	8b e5		 mov	 esp, ebp
  00163	5d		 pop	 ebp
  00164	c2 08 00	 ret	 8
$LN2@GetBlockFa:
; File C:\IAGOS\server\v18\Source\Source\_Common\xUtil.h

; 16   : 	g_next = g_next * 1103515245 + 12345;// + nRandomSeed[ i++ ];

  00167	69 3d 00 00 00
	00 6d 4e c6 41	 imul	 edi, DWORD PTR ?g_next@@3KA, 1103515245 ; g_next

; 22   : 	return  xRand() % num;

  00171	b8 1f 85 eb 51	 mov	 eax, 1374389535		; 51eb851fH

; 16   : 	g_next = g_next * 1103515245 + 12345;// + nRandomSeed[ i++ ];

  00176	81 c7 39 30 00
	00		 add	 edi, 12345		; 00003039H

; 22   : 	return  xRand() % num;

  0017c	f7 e7		 mul	 edi

; 16   : 	g_next = g_next * 1103515245 + 12345;// + nRandomSeed[ i++ ];

  0017e	89 3d 00 00 00
	00		 mov	 DWORD PTR ?g_next@@3KA, edi ; g_next

; 22   : 	return  xRand() % num;

  00184	c1 ea 05	 shr	 edx, 5
  00187	6b c2 64	 imul	 eax, edx, 100
  0018a	2b f8		 sub	 edi, eax
; File C:\IAGOS\server\v18\Source\Source\_Common\MoverAttack.cpp

; 765  : 		if( r <= 5 )			// RŔĚ 0 ~ 5ŔÇ °ŞŔĚ¸é Blocking ˝ÇĆĐ

  0018c	83 ff 05	 cmp	 edi, 5
  0018f	7e 4e		 jle	 SHORT $LN15@GetBlockFa

; 766  : 			return 1.0f;
; 767  : 		if( r >= 95 )			// RŔĚ 95 ~ 100ŔÇ °ŞŔĚ¸é Blocking Ľş°ř

  00191	83 ff 5f	 cmp	 edi, 95			; 0000005fH
  00194	7c 0f		 jl	 SHORT $LN13@GetBlockFa
$LN28@GetBlockFa:

; 768  : 			return 0.1f;

  00196	d9 05 00 00 00
	00		 fld	 DWORD PTR __real@3dcccccd
  0019c	5f		 pop	 edi

; 778  : }

  0019d	5e		 pop	 esi
  0019e	5b		 pop	 ebx
  0019f	8b e5		 mov	 esp, ebp
  001a1	5d		 pop	 ebp
  001a2	c2 08 00	 ret	 8
$LN13@GetBlockFa:
; File C:\IAGOS\server\v18\Source\Source\_Common\Mover.h

; 1133 : 	int				GetLevel() { return m_nLevel; }

  001a5	8b b3 d8 05 00
	00		 mov	 esi, DWORD PTR [ebx+1496]
; File C:\IAGOS\server\v18\Source\Source\_Common\MoverAttack.cpp

; 770  : 		int	nBR = (int)( ( GetParrying() - GetLevel() ) * 0.5f );  // GetParrying == ER

  001ab	e8 00 00 00 00	 call	 ?GetParrying@CMover@@QAEHXZ ; CMover::GetParrying
  001b0	2b c6		 sub	 eax, esi
  001b2	66 0f 6e c0	 movd	 xmm0, eax

; 771  : 		if( nBR < 0 )
; 772  : 			nBR = 0; 
; 773  : 
; 774  : 		if ( nBR > r )		// RŔĚ 6 ~ 94»çŔĚŔÇ °ŞŔĚ¸é ->  BR > RŔÎ °ćżě Blocking Ľş°ř

  001b6	33 c0		 xor	 eax, eax
  001b8	0f 5b c0	 cvtdq2ps xmm0, xmm0
  001bb	f3 0f 59 05 00
	00 00 00	 mulss	 xmm0, DWORD PTR __real@3f000000
  001c3	f3 0f 2c c8	 cvttss2si ecx, xmm0
  001c7	85 c9		 test	 ecx, ecx
  001c9	0f 49 c1	 cmovns	 eax, ecx
  001cc	3b c7		 cmp	 eax, edi
  001ce	7e 0f		 jle	 SHORT $LN15@GetBlockFa

; 775  : 			return 0.2f;	// 5·Î łŞ´«´Ů.

  001d0	d9 05 00 00 00
	00		 fld	 DWORD PTR __real@3e4ccccd
  001d6	5f		 pop	 edi

; 778  : }

  001d7	5e		 pop	 esi
  001d8	5b		 pop	 ebx
  001d9	8b e5		 mov	 esp, ebp
  001db	5d		 pop	 ebp
  001dc	c2 08 00	 ret	 8
$LN15@GetBlockFa:

; 776  : 	}
; 777  : 	return 1.0f;

  001df	d9 e8		 fld1
  001e1	5f		 pop	 edi

; 778  : }

  001e2	5e		 pop	 esi
  001e3	5b		 pop	 ebx
  001e4	8b e5		 mov	 esp, ebp
  001e6	5d		 pop	 ebp
  001e7	c2 08 00	 ret	 8
?GetBlockFactor@CMover@@QAEMPAV1@PAUATTACK_INFO@@@Z ENDP ; CMover::GetBlockFactor
_TEXT	ENDS
; Function compile flags: /Ogtp
; File C:\IAGOS\server\v18\Source\Source\_Common\MoverAttack.cpp
; File C:\IAGOS\server\v18\Source\Source\_Common\Mover.h
; File C:\IAGOS\server\v18\Source\Source\_Common\MoverAttack.cpp
; File C:\IAGOS\server\v18\Source\Source\_Common\Mover.h
; File C:\IAGOS\server\v18\Source\Source\_Common\Project.h
; File C:\IAGOS\server\v18\Source\Source\_Common\MoverAttack.cpp
;	COMDAT ?GetDEFMultiplier@CMover@@QAEMPAUATTACK_INFO@@@Z
_TEXT	SEGMENT
_fFactor$1$ = -4					; size = 4
_pInfo$ = 8						; size = 4
tv185 = 8						; size = 4
?GetDEFMultiplier@CMover@@QAEMPAUATTACK_INFO@@@Z PROC	; CMover::GetDEFMultiplier, COMDAT
; _this$ = ecx

; 494  : {

  00000	55		 push	 ebp
  00001	8b ec		 mov	 ebp, esp
  00003	51		 push	 ecx

; 495  : 	float fFactor = 1.0f;

  00004	f3 0f 10 05 00
	00 00 00	 movss	 xmm0, DWORD PTR __real@3f800000
  0000c	56		 push	 esi
  0000d	8b f1		 mov	 esi, ecx
  0000f	f3 0f 11 45 fc	 movss	 DWORD PTR _fFactor$1$[ebp], xmm0
; File C:\IAGOS\server\v18\Source\Source\_Common\Mover.h

; 1015 : 	BOOL			IsNPC()				{ return !m_bPlayer; }

  00014	83 be 30 02 00
	00 00		 cmp	 DWORD PTR [esi+560], 0
; File C:\IAGOS\server\v18\Source\Source\_Common\MoverAttack.cpp

; 496  : 	if( IsNPC() )

  0001b	75 47		 jne	 SHORT $LN2@GetDEFMult
; File C:\IAGOS\server\v18\Source\Source\_Common\Mover.h

; 1020 : 	MoverProp*		GetProp() { return prj.GetMoverProp( m_dwIndex ); }	// °´ĂĽŔÇ ÇÁ·ÎĆŰĆĽ ľň±â 	

  0001d	8b 86 74 01 00
	00		 mov	 eax, DWORD PTR [esi+372]
; File C:\IAGOS\server\v18\Source\Source\_Common\Project.h

; 1406 : 	VERIFY_RANGE( nIndex, 0, m_nMoverPropSize, "GetMoverProp range_error", NULL );

  00023	8b 0d b4 01 00
	00		 mov	 ecx, DWORD PTR ?prj@@3VCProject@@A+436
  00029	85 c0		 test	 eax, eax
  0002b	78 12		 js	 SHORT $LN14@GetDEFMult
  0002d	3b c1		 cmp	 eax, ecx
  0002f	7d 0e		 jge	 SHORT $LN14@GetDEFMult

; 1407 : 	return m_pPropMover + nIndex;

  00031	69 c0 90 06 00
	00		 imul	 eax, eax, 1680
  00037	03 05 b8 01 00
	00		 add	 eax, DWORD PTR ?prj@@3VCProject@@A+440
  0003d	eb 18		 jmp	 SHORT $LN9@GetDEFMult
$LN14@GetDEFMult:

; 579  : 	LPCTSTR szErr = Error( _T( "%s min:%d, max:%d, index:%d" ), szMsg, nMin, nMax, nIndex ); 

  0003f	50		 push	 eax
  00040	51		 push	 ecx
  00041	6a 00		 push	 0
  00043	68 00 00 00 00	 push	 OFFSET ??_C@_0BJ@GKPOBPPI@GetMoverProp?5range_error@
  00048	68 00 00 00 00	 push	 OFFSET ??_C@_0BM@HMFGHCP@?$CFs?5min?3?$CFd?0?5max?3?$CFd?0?5index?3?$CFd@
  0004d	e8 00 00 00 00	 call	 ?Error@@YAPBDPBDZZ	; Error
  00052	83 c4 14	 add	 esp, 20			; 00000014H

; 1406 : 	VERIFY_RANGE( nIndex, 0, m_nMoverPropSize, "GetMoverProp range_error", NULL );

  00055	33 c0		 xor	 eax, eax
$LN9@GetDEFMult:
; File C:\IAGOS\server\v18\Source\Source\_Common\MoverAttack.cpp

; 499  : 		 fFactor *= GetProp()->m_fDefence_Rate;

  00057	f3 0f 10 80 58
	02 00 00	 movss	 xmm0, DWORD PTR [eax+600]
  0005f	f3 0f 11 45 fc	 movss	 DWORD PTR _fFactor$1$[ebp], xmm0
$LN2@GetDEFMult:

; 500  : 	#endif //	__S1108_BACK_END_SYSTEM
; 501  : 	}
; 502  : 
; 503  : 	// ľĆ¸Ó ĆäłĘĆ®·ąŔĚĆ®´Â ¸Â´ÂĽř°Ł ąćľî·ÂŔ» 50%·Î °č»ę.
; 504  : 	if( pInfo->GetSkill() == SI_BLD_DOUBLE_ARMORPENETRATE )	

  00064	8b 4d 08	 mov	 ecx, DWORD PTR _pInfo$[ebp]
  00067	e8 00 00 00 00	 call	 ?GetSkill@ATTACK_INFO@@QBEHXZ ; ATTACK_INFO::GetSkill
  0006c	3d 89 00 00 00	 cmp	 eax, 137		; 00000089H
  00071	75 12		 jne	 SHORT $LN3@GetDEFMult

; 505  : 		fFactor *= 0.5f;

  00073	f3 0f 10 45 fc	 movss	 xmm0, DWORD PTR _fFactor$1$[ebp]
  00078	f3 0f 59 05 00
	00 00 00	 mulss	 xmm0, DWORD PTR __real@3f000000
  00080	f3 0f 11 45 fc	 movss	 DWORD PTR _fFactor$1$[ebp], xmm0
$LN3@GetDEFMult:

; 506  : 
; 507  : //	fFactor		*= (  ( 100.0f + (float)GetParam( DST_ADJDEF_RATE, 0 ) ) / 100.0f ) ;		// ĂÖÁľ ąÝČŻµČ ąćľî·Â °Şżˇ ąćľî·Â »ó˝Â şńŔ˛Ŕ» °öÇŃ´Ů.
; 508  : 	fFactor		*= (  1.0f + (float)GetParam( DST_ADJDEF_RATE, 0 ) / 100.0f ) ;		// ĂÖÁľ ąÝČŻµČ ąćľî·Â °Şżˇ ąćľî·Â »ó˝Â şńŔ˛Ŕ» °öÇŃ´Ů.

  00085	6a 00		 push	 0
  00087	6a 48		 push	 72			; 00000048H
  00089	8b ce		 mov	 ecx, esi
  0008b	e8 00 00 00 00	 call	 ?GetParam@CMover@@QAEHHH@Z ; CMover::GetParam

; 509  : 
; 510  : 	return fFactor;

  00090	5e		 pop	 esi
  00091	66 0f 6e c0	 movd	 xmm0, eax
  00095	0f 5b c0	 cvtdq2ps xmm0, xmm0
  00098	f3 0f 5e 05 00
	00 00 00	 divss	 xmm0, DWORD PTR __real@42c80000
  000a0	f3 0f 58 05 00
	00 00 00	 addss	 xmm0, DWORD PTR __real@3f800000
  000a8	f3 0f 59 45 fc	 mulss	 xmm0, DWORD PTR _fFactor$1$[ebp]
  000ad	f3 0f 11 45 08	 movss	 DWORD PTR tv185[ebp], xmm0
  000b2	d9 45 08	 fld	 DWORD PTR tv185[ebp]

; 511  : }

  000b5	8b e5		 mov	 esp, ebp
  000b7	5d		 pop	 ebp
  000b8	c2 04 00	 ret	 4
?GetDEFMultiplier@CMover@@QAEMPAUATTACK_INFO@@@Z ENDP	; CMover::GetDEFMultiplier
_TEXT	ENDS
; Function compile flags: /Ogtp
; File C:\IAGOS\server\v18\Source\Source\_Common\MoverAttack.cpp
; File C:\IAGOS\server\v18\Source\Source\_Common\Mover.h
; File C:\IAGOS\server\v18\Source\Source\_Common\MoverAttack.cpp
; File C:\IAGOS\server\v18\Source\Source\_Common\Mover.h
; File C:\IAGOS\server\v18\Source\Source\_Common\MoverAttack.cpp
; File C:\IAGOS\server\v18\Source\Source\_Common\Mover.h
; File C:\IAGOS\server\v18\Source\Source\_Common\Project.h
; File C:\IAGOS\server\v18\Source\Source\_Common\MoverAttack.cpp
;	COMDAT ?GetATKMultiplier@CMover@@QAEMPAV1@K@Z
_TEXT	SEGMENT
_fMultiplier$1$ = -8					; size = 4
_fMultiplier$ = -4					; size = 4
_pDefender$ = 8						; size = 4
_dwAtkFlags$ = 12					; size = 4
?GetATKMultiplier@CMover@@QAEMPAV1@K@Z PROC		; CMover::GetATKMultiplier, COMDAT
; _this$ = ecx

; 1133 : {

  00000	55		 push	 ebp
  00001	8b ec		 mov	 ebp, esp
  00003	83 ec 08	 sub	 esp, 8
  00006	56		 push	 esi

; 1134 : 	float fMultiplier = 1.0f;
; 1135 : 
; 1136 : 	int nParam = GetParam( DST_ATKPOWER_RATE, 0 );		// °ř°Ý·Â Áő°ˇ ĽöÁ¤Äˇ

  00007	6a 00		 push	 0
  00009	6a 42		 push	 66			; 00000042H
  0000b	8b f1		 mov	 esi, ecx
  0000d	e8 00 00 00 00	 call	 ?GetParam@CMover@@QAEHHH@Z ; CMover::GetParam

; 1137 : 	FLOAT fRate = 1.0f + (nParam / 100.0f);
; 1138 : 	fMultiplier *= fRate;
; 1139 : 
; 1140 : 	int nDstDmg = 0;
; 1141 : 	if( IsPlayer() )

  00012	83 be 30 02 00
	00 00		 cmp	 DWORD PTR [esi+560], 0
  00019	66 0f 6e c0	 movd	 xmm0, eax
  0001d	0f 5b c0	 cvtdq2ps xmm0, xmm0
  00020	f3 0f 5e 05 00
	00 00 00	 divss	 xmm0, DWORD PTR __real@42c80000
  00028	f3 0f 58 05 00
	00 00 00	 addss	 xmm0, DWORD PTR __real@3f800000
  00030	f3 0f 11 45 f8	 movss	 DWORD PTR _fMultiplier$1$[ebp], xmm0
  00035	f3 0f 11 45 fc	 movss	 DWORD PTR _fMultiplier$[ebp], xmm0
  0003a	74 6b		 je	 SHORT $LN2@GetATKMult
; File C:\IAGOS\server\v18\Source\Source\_Common\Mover.h

; 1457 : 	BOOL			IsSMMode( int nType ) { return ( m_dwSMTime[nType] > 0 ) ? TRUE : FALSE; }

  0003c	83 be 58 03 00
	00 00		 cmp	 DWORD PTR [esi+856], 0
; File C:\IAGOS\server\v18\Source\Source\_Common\MoverAttack.cpp

; 1143 : 		if( IsSMMode( SM_ATTACK_UP1 ) || IsSMMode( SM_ATTACK_UP ) )

  00043	77 09		 ja	 SHORT $LN5@GetATKMult
; File C:\IAGOS\server\v18\Source\Source\_Common\Mover.h

; 1457 : 	BOOL			IsSMMode( int nType ) { return ( m_dwSMTime[nType] > 0 ) ? TRUE : FALSE; }

  00045	83 be 38 03 00
	00 00		 cmp	 DWORD PTR [esi+824], 0
; File C:\IAGOS\server\v18\Source\Source\_Common\MoverAttack.cpp

; 1143 : 		if( IsSMMode( SM_ATTACK_UP1 ) || IsSMMode( SM_ATTACK_UP ) )

  0004c	76 12		 jbe	 SHORT $LN4@GetATKMult
$LN5@GetATKMult:

; 1144 : 			fMultiplier *= 1.2f;

  0004e	f3 0f 59 05 00
	00 00 00	 mulss	 xmm0, DWORD PTR __real@3f99999a
  00056	f3 0f 11 45 f8	 movss	 DWORD PTR _fMultiplier$1$[ebp], xmm0
  0005b	f3 0f 11 45 fc	 movss	 DWORD PTR _fMultiplier$[ebp], xmm0
$LN4@GetATKMult:

; 1145 : #if __VER >= 9 // __ULTIMATE
; 1146 : 		if( pDefender->IsPlayer() )
; 1147 : 			nDstDmg = GetParam( DST_PVP_DMG, 0 );
; 1148 : 		else
; 1149 : 			nDstDmg = GetParam( DST_MONSTER_DMG, 0 );
; 1150 : #endif // __ULTIMATE
; 1151 : 	}

  00060	8b 45 08	 mov	 eax, DWORD PTR _pDefender$[ebp]
  00063	33 c9		 xor	 ecx, ecx
  00065	6a 00		 push	 0
  00067	39 88 30 02 00
	00		 cmp	 DWORD PTR [eax+560], ecx
  0006d	0f 95 c1	 setne	 cl
  00070	83 c1 4f	 add	 ecx, 79			; 0000004fH
  00073	51		 push	 ecx
  00074	8b ce		 mov	 ecx, esi
  00076	e8 00 00 00 00	 call	 ?GetParam@CMover@@QAEHHH@Z ; CMover::GetParam

; 1156 : 	#else 
; 1157 : 		fMultiplier *= prj.m_fMonsterHitRate;
; 1158 : 	#endif 
; 1159 : 	}
; 1160 : 
; 1161 : #if __VER >= 9 // __ULTIMATE
; 1162 : 	if( 0 < nDstDmg )

  0007b	85 c0		 test	 eax, eax
  0007d	7e 7c		 jle	 SHORT $LN25@GetATKMult

; 1163 : 		fMultiplier += (fMultiplier * nDstDmg / 100.0f);

  0007f	66 0f 6e c0	 movd	 xmm0, eax
  00083	0f 5b c0	 cvtdq2ps xmm0, xmm0
  00086	5e		 pop	 esi
  00087	f3 0f 59 45 f8	 mulss	 xmm0, DWORD PTR _fMultiplier$1$[ebp]
  0008c	f3 0f 5e 05 00
	00 00 00	 divss	 xmm0, DWORD PTR __real@42c80000
  00094	f3 0f 58 45 f8	 addss	 xmm0, DWORD PTR _fMultiplier$1$[ebp]

; 1164 : #endif // __ULTIMATE
; 1165 : 
; 1166 : 	return fMultiplier;
; 1167 : }

  00099	f3 0f 11 45 fc	 movss	 DWORD PTR _fMultiplier$[ebp], xmm0
  0009e	d9 45 fc	 fld	 DWORD PTR _fMultiplier$[ebp]
  000a1	8b e5		 mov	 esp, ebp
  000a3	5d		 pop	 ebp
  000a4	c2 08 00	 ret	 8
$LN2@GetATKMult:
; File C:\IAGOS\server\v18\Source\Source\_Common\Mover.h

; 1020 : 	MoverProp*		GetProp() { return prj.GetMoverProp( m_dwIndex ); }	// °´ĂĽŔÇ ÇÁ·ÎĆŰĆĽ ľň±â 	

  000a7	8b 86 74 01 00
	00		 mov	 eax, DWORD PTR [esi+372]
; File C:\IAGOS\server\v18\Source\Source\_Common\Project.h

; 1406 : 	VERIFY_RANGE( nIndex, 0, m_nMoverPropSize, "GetMoverProp range_error", NULL );

  000ad	8b 0d b4 01 00
	00		 mov	 ecx, DWORD PTR ?prj@@3VCProject@@A+436
  000b3	85 c0		 test	 eax, eax
  000b5	78 12		 js	 SHORT $LN21@GetATKMult
  000b7	3b c1		 cmp	 eax, ecx
  000b9	7d 0e		 jge	 SHORT $LN21@GetATKMult

; 1407 : 	return m_pPropMover + nIndex;

  000bb	69 c0 90 06 00
	00		 imul	 eax, eax, 1680
  000c1	03 05 b8 01 00
	00		 add	 eax, DWORD PTR ?prj@@3VCProject@@A+440
  000c7	eb 18		 jmp	 SHORT $LN16@GetATKMult
$LN21@GetATKMult:

; 579  : 	LPCTSTR szErr = Error( _T( "%s min:%d, max:%d, index:%d" ), szMsg, nMin, nMax, nIndex ); 

  000c9	50		 push	 eax
  000ca	51		 push	 ecx
  000cb	6a 00		 push	 0
  000cd	68 00 00 00 00	 push	 OFFSET ??_C@_0BJ@GKPOBPPI@GetMoverProp?5range_error@
  000d2	68 00 00 00 00	 push	 OFFSET ??_C@_0BM@HMFGHCP@?$CFs?5min?3?$CFd?0?5max?3?$CFd?0?5index?3?$CFd@
  000d7	e8 00 00 00 00	 call	 ?Error@@YAPBDPBDZZ	; Error
  000dc	83 c4 14	 add	 esp, 20			; 00000014H

; 1406 : 	VERIFY_RANGE( nIndex, 0, m_nMoverPropSize, "GetMoverProp range_error", NULL );

  000df	33 c0		 xor	 eax, eax
$LN16@GetATKMult:
; File C:\IAGOS\server\v18\Source\Source\_Common\MoverAttack.cpp

; 1155 : 		fMultiplier *= ( prj.m_fMonsterHitRate * GetProp()->m_fAttackPower_Rate );

  000e1	f3 0f 10 80 54
	02 00 00	 movss	 xmm0, DWORD PTR [eax+596]
  000e9	f3 0f 59 05 00
	00 00 00	 mulss	 xmm0, DWORD PTR ?m_fMonsterHitRate@CProject@@2MA
  000f1	f3 0f 59 45 f8	 mulss	 xmm0, DWORD PTR _fMultiplier$1$[ebp]

; 1164 : #endif // __ULTIMATE
; 1165 : 
; 1166 : 	return fMultiplier;
; 1167 : }

  000f6	f3 0f 11 45 fc	 movss	 DWORD PTR _fMultiplier$[ebp], xmm0
$LN25@GetATKMult:
  000fb	d9 45 fc	 fld	 DWORD PTR _fMultiplier$[ebp]
  000fe	5e		 pop	 esi
  000ff	8b e5		 mov	 esp, ebp
  00101	5d		 pop	 ebp
  00102	c2 08 00	 ret	 8
?GetATKMultiplier@CMover@@QAEMPAV1@K@Z ENDP		; CMover::GetATKMultiplier
_TEXT	ENDS
; Function compile flags: /Ogtp
; File C:\IAGOS\server\v18\Source\Source\_Common\MoverAttack.cpp
;	COMDAT ?GetMagicSkillFactor@CMover@@QAEMPAV1@W4ePropType@SAI79@@@Z
_TEXT	SEGMENT
_pDefender$ = 8						; size = 4
_skillType$ = 12					; size = 4
?GetMagicSkillFactor@CMover@@QAEMPAV1@W4ePropType@SAI79@@@Z PROC ; CMover::GetMagicSkillFactor, COMDAT
; _this$ = ecx

; 1066 : {

  00000	55		 push	 ebp
  00001	8b ec		 mov	 ebp, esp
  00003	56		 push	 esi

; 1067 : 	SAI79::ePropType itemType;
; 1068 : 	CItemElem* pWeapon	= GetWeaponItem();

  00004	6a 0a		 push	 10			; 0000000aH
  00006	8b f1		 mov	 esi, ecx
  00008	e8 00 00 00 00	 call	 ?GetWeaponItem@CMover@@QAEPAVCItemElem@@H@Z ; CMover::GetWeaponItem

; 1069 : 	if( pWeapon && pWeapon->m_bItemResist != SAI79::NO_PROP )

  0000d	85 c0		 test	 eax, eax
  0000f	74 0c		 je	 SHORT $LN2@GetMagicSk
  00011	8a 40 7c	 mov	 al, BYTE PTR [eax+124]
  00014	84 c0		 test	 al, al
  00016	74 05		 je	 SHORT $LN2@GetMagicSk

; 1070 : 		itemType = (SAI79::ePropType)pWeapon->m_bItemResist;	// Á¦·ĂĽÓĽş 

  00018	0f b6 c0	 movzx	 eax, al
  0001b	eb 13		 jmp	 SHORT $LN5@GetMagicSk
$LN2@GetMagicSk:

; 1071 : 	else
; 1072 : 	{
; 1073 : 		ItemProp* pItemProp = GetActiveHandItemProp();

  0001d	6a 0a		 push	 10			; 0000000aH
  0001f	8b ce		 mov	 ecx, esi
  00021	e8 00 00 00 00	 call	 ?GetActiveHandItemProp@CMover@@QAEPAUItemProp@@H@Z ; CMover::GetActiveHandItemProp

; 1074 : 		if( pItemProp ) 

  00026	85 c0		 test	 eax, eax
  00028	74 22		 je	 SHORT $LN4@GetMagicSk

; 1075 : 			itemType = pItemProp->eItemType;					// ľĆŔĚĹŰ ĽÓĽş

  0002a	8b 80 f0 00 00
	00		 mov	 eax, DWORD PTR [eax+240]
$LN5@GetMagicSk:

; 1078 : 	}
; 1079 : 
; 1080 : 	if( skillType == itemType )

  00030	8b 4d 0c	 mov	 ecx, DWORD PTR _skillType$[ebp]
  00033	3b c8		 cmp	 ecx, eax
  00035	75 0b		 jne	 SHORT $LN6@GetMagicSk

; 1081 : 	{
; 1082 : 		return 1.1f;

  00037	d9 05 00 00 00
	00		 fld	 DWORD PTR __real@3f8ccccd
  0003d	5e		 pop	 esi

; 1091 : 	}
; 1092 : 	else
; 1093 : 		return 1.0f;
; 1094 : }

  0003e	5d		 pop	 ebp
  0003f	c2 08 00	 ret	 8
$LN6@GetMagicSk:

; 1083 : 	}
; 1084 : 	else if( ( skillType == 1 && itemType == 2 ) || 
; 1085 : 		     ( skillType == 2 && itemType == 3 ) ||
; 1086 : 			 ( skillType == 3 && itemType == 5 ) || 
; 1087 : 			 ( skillType == 5 && itemType == 4 ) ||

  00042	83 f9 01	 cmp	 ecx, 1
  00045	75 0c		 jne	 SHORT $LN11@GetMagicSk
  00047	83 f8 02	 cmp	 eax, 2
$LN25@GetMagicSk:

; 1076 : 		else
; 1077 : 			return 1.0f;

  0004a	74 2f		 je	 SHORT $LN10@GetMagicSk
$LN4@GetMagicSk:
  0004c	d9 e8		 fld1
  0004e	5e		 pop	 esi

; 1091 : 	}
; 1092 : 	else
; 1093 : 		return 1.0f;
; 1094 : }

  0004f	5d		 pop	 ebp
  00050	c2 08 00	 ret	 8
$LN11@GetMagicSk:

; 1083 : 	}
; 1084 : 	else if( ( skillType == 1 && itemType == 2 ) || 
; 1085 : 		     ( skillType == 2 && itemType == 3 ) ||
; 1086 : 			 ( skillType == 3 && itemType == 5 ) || 
; 1087 : 			 ( skillType == 5 && itemType == 4 ) ||

  00053	83 f9 02	 cmp	 ecx, 2
  00056	75 05		 jne	 SHORT $LN12@GetMagicSk
  00058	83 f8 03	 cmp	 eax, 3
  0005b	eb ed		 jmp	 SHORT $LN25@GetMagicSk
$LN12@GetMagicSk:
  0005d	83 f9 03	 cmp	 ecx, 3
  00060	75 05		 jne	 SHORT $LN13@GetMagicSk
  00062	83 f8 05	 cmp	 eax, 5
  00065	eb e3		 jmp	 SHORT $LN25@GetMagicSk
$LN13@GetMagicSk:
  00067	83 f9 05	 cmp	 ecx, 5
  0006a	75 05		 jne	 SHORT $LN14@GetMagicSk
  0006c	83 f8 04	 cmp	 eax, 4
  0006f	eb d9		 jmp	 SHORT $LN25@GetMagicSk
$LN14@GetMagicSk:
  00071	83 f9 04	 cmp	 ecx, 4
  00074	75 d6		 jne	 SHORT $LN4@GetMagicSk
  00076	83 f8 01	 cmp	 eax, 1
  00079	75 d1		 jne	 SHORT $LN4@GetMagicSk
$LN10@GetMagicSk:

; 1088 : 			 ( skillType == 4 && itemType == 1 ) )		
; 1089 : 	{
; 1090 : 		return 0.9f;

  0007b	d9 05 00 00 00
	00		 fld	 DWORD PTR __real@3f666666
  00081	5e		 pop	 esi

; 1091 : 	}
; 1092 : 	else
; 1093 : 		return 1.0f;
; 1094 : }

  00082	5d		 pop	 ebp
  00083	c2 08 00	 ret	 8
?GetMagicSkillFactor@CMover@@QAEMPAV1@W4ePropType@SAI79@@@Z ENDP ; CMover::GetMagicSkillFactor
_TEXT	ENDS
; Function compile flags: /Ogtp
; File C:\IAGOS\server\v18\Source\Source\_Common\MoverAttack.cpp
; File C:\IAGOS\server\v18\Source\Source\_Common\Mover.h
; File C:\IAGOS\server\v18\Source\Source\_Common\MoverAttack.cpp
;	COMDAT ?PostCalcGeneric@CMover@@QAEHHPAUATTACK_INFO@@@Z
_TEXT	SEGMENT
_this$1$ = -4						; size = 4
_nATK$ = 8						; size = 4
_pInfo$ = 12						; size = 4
_fBlock$1 = 12						; size = 4
?PostCalcGeneric@CMover@@QAEHHPAUATTACK_INFO@@@Z PROC	; CMover::PostCalcGeneric, COMDAT
; _this$ = ecx

; 1421 : {

  00000	55		 push	 ebp
  00001	8b ec		 mov	 ebp, esp
  00003	51		 push	 ecx
  00004	53		 push	 ebx

; 1422 : 	int nDEF = pInfo->pDefender->CalcDefense( pInfo );  

  00005	8b 5d 0c	 mov	 ebx, DWORD PTR _pInfo$[ebp]
  00008	56		 push	 esi
  00009	57		 push	 edi
  0000a	6a 01		 push	 1
  0000c	89 4d fc	 mov	 DWORD PTR _this$1$[ebp], ecx
  0000f	8b 4b 04	 mov	 ecx, DWORD PTR [ebx+4]
  00012	53		 push	 ebx
  00013	e8 00 00 00 00	 call	 ?CalcDefense@CMover@@QAEHPAUATTACK_INFO@@H@Z ; CMover::CalcDefense

; 1423 : #if __VER >= 14 // __EXT_ATTRIBUTE
; 1424 : 	nDEF = MulDiv( nDEF, pInfo->nDEFFactor, 10000 );	// 14Â÷şÎĹÍ n/10000Ŕ¸·Î şŻ°ć

  00018	68 10 27 00 00	 push	 10000			; 00002710H
  0001d	ff 73 14	 push	 DWORD PTR [ebx+20]
  00020	50		 push	 eax
  00021	ff 15 00 00 00
	00		 call	 DWORD PTR __imp__MulDiv@12

; 1425 : #else // __EXT_ATTRIBUTE
; 1426 : 	nDEF = MulDiv( nDEF, pInfo->nDEFFactor, 100 );
; 1427 : #endif // __EXT_ATTRIBUTE
; 1428 : 
; 1429 : 	int nDamage = nATK - nDEF;

  00027	8b 4d 08	 mov	 ecx, DWORD PTR _nATK$[ebp]
  0002a	8b f1		 mov	 esi, ecx
  0002c	2b f0		 sub	 esi, eax

; 1430 : 	if( nDamage > 0 )

  0002e	85 f6		 test	 esi, esi
  00030	7e 3c		 jle	 SHORT $LN2@PostCalcGe

; 1431 : 	{
; 1432 : 		float fBlock = pInfo->pDefender->GetBlockFactor( this, pInfo );

  00032	8b 4b 04	 mov	 ecx, DWORD PTR [ebx+4]
  00035	53		 push	 ebx
  00036	ff 75 fc	 push	 DWORD PTR _this$1$[ebp]
  00039	e8 00 00 00 00	 call	 ?GetBlockFactor@CMover@@QAEMPAV1@PAUATTACK_INFO@@@Z ; CMover::GetBlockFactor

; 1433 : 		if( fBlock < 1.0f )

  0003e	f3 0f 10 05 00
	00 00 00	 movss	 xmm0, DWORD PTR __real@3f800000
  00046	d9 5d 0c	 fstp	 DWORD PTR _fBlock$1[ebp]
  00049	f3 0f 10 4d 0c	 movss	 xmm1, DWORD PTR _fBlock$1[ebp]
  0004e	0f 2f c1	 comiss	 xmm0, xmm1
  00051	76 16		 jbe	 SHORT $LN13@PostCalcGe

; 1434 : 		{
; 1435 : 			pInfo->dwAtkFlags |= AF_BLOCKING;

  00053	81 4b 08 00 10
	00 00		 or	 DWORD PTR [ebx+8], 4096	; 00001000H
  0005a	66 0f 6e c6	 movd	 xmm0, esi

; 1436 : 			nDamage	= (int)( nDamage * fBlock );

  0005e	0f 5b c0	 cvtdq2ps xmm0, xmm0
  00061	f3 0f 59 c1	 mulss	 xmm0, xmm1
  00065	f3 0f 2c f0	 cvttss2si esi, xmm0
$LN13@PostCalcGe:

; 1437 : 		}
; 1438 : 	}

  00069	8b 4d 08	 mov	 ecx, DWORD PTR _nATK$[ebp]
  0006c	eb 02		 jmp	 SHORT $LN3@PostCalcGe
$LN2@PostCalcGe:

; 1439 : 	else
; 1440 : 	{
; 1441 : 		nDamage = 0;

  0006e	33 f6		 xor	 esi, esi
$LN3@PostCalcGe:
; File C:\IAGOS\server\v18\Source\Source\_Common\Mover.h

; 1015 : 	BOOL			IsNPC()				{ return !m_bPlayer; }

  00070	8b 03		 mov	 eax, DWORD PTR [ebx]
  00072	83 b8 30 02 00
	00 00		 cmp	 DWORD PTR [eax+560], 0
; File C:\IAGOS\server\v18\Source\Source\_Common\MoverAttack.cpp

; 1445 : 	if( pInfo->pAttacker->IsNPC() && pInfo->pDefender->IsPlayer() )	

  00079	75 2d		 jne	 SHORT $LN5@PostCalcGe
  0007b	8b 43 04	 mov	 eax, DWORD PTR [ebx+4]
  0007e	83 b8 30 02 00
	00 00		 cmp	 DWORD PTR [eax+560], 0
  00085	74 21		 je	 SHORT $LN5@PostCalcGe

; 1446 : 	{
; 1447 : 		int nMin = (int)( max( 0, nATK * 0.1f ) );	// ¸ó˝şĹÍ °ř°Ý·ÂŔÇ 10% µĄąĚÁö°ˇ ą«Á¶°Ç µéľî°Ą Ľö ŔÖ°Ô ÇŘ ÁŘ´Ů.

  00087	66 0f 6e c9	 movd	 xmm1, ecx
  0008b	0f 57 c0	 xorps	 xmm0, xmm0
  0008e	0f 5b c9	 cvtdq2ps xmm1, xmm1
  00091	f3 0f 59 0d 00
	00 00 00	 mulss	 xmm1, DWORD PTR __real@3dcccccd
  00099	f3 0f 5f c1	 maxss	 xmm0, xmm1
  0009d	f3 0f 2c c0	 cvttss2si eax, xmm0

; 1448 : 		nDamage = max( nDamage, nMin );

  000a1	3b f0		 cmp	 esi, eax
  000a3	0f 4f c6	 cmovg	 eax, esi
  000a6	8b f0		 mov	 esi, eax
$LN5@PostCalcGe:

; 1449 : 	}
; 1450 : 
; 1451 : 	nDamage += GetWeaponPlusDamage( nDamage );	// ŔÎĂľĆ® żÉĽÇ µĄąĚÁö( ąćľî·Â ą«°ü ) 

  000a8	8b 4d fc	 mov	 ecx, DWORD PTR _this$1$[ebp]
  000ab	6a 01		 push	 1
  000ad	56		 push	 esi
  000ae	e8 00 00 00 00	 call	 ?GetWeaponPlusDamage@CMover@@QAEHHH@Z ; CMover::GetWeaponPlusDamage
  000b3	03 f0		 add	 esi, eax

; 1452 : 	if( nDamage == 0 )

  000b5	8b c6		 mov	 eax, esi
  000b7	75 0e		 jne	 SHORT $LN6@PostCalcGe

; 1453 : 	{
; 1454 : 		pInfo->dwAtkFlags &= ~AF_CRITICAL;

  000b9	81 63 08 3f ff
	ff ff		 and	 DWORD PTR [ebx+8], -193	; ffffff3fH

; 1455 : 		pInfo->dwAtkFlags &= ~AF_FLYING;

  000c0	81 63 08 ff ff
	ff ef		 and	 DWORD PTR [ebx+8], -268435457 ; efffffffH
$LN6@PostCalcGe:

; 1456 : 	}
; 1457 : 	return nDamage;
; 1458 : }

  000c7	5f		 pop	 edi
  000c8	5e		 pop	 esi
  000c9	5b		 pop	 ebx
  000ca	8b e5		 mov	 esp, ebp
  000cc	5d		 pop	 ebp
  000cd	c2 08 00	 ret	 8
?PostCalcGeneric@CMover@@QAEHHPAUATTACK_INFO@@@Z ENDP	; CMover::PostCalcGeneric
_TEXT	ENDS
; Function compile flags: /Ogtp
; File C:\IAGOS\server\v18\Source\Source\_Common\MoverAttack.cpp
; File C:\IAGOS\server\v18\Source\Source\_Common\Project.h
; File C:\IAGOS\server\v18\Source\Source\_Common\data.h
; File C:\IAGOS\server\v18\Source\Source\_Common\MoverAttack.cpp
; File C:\IAGOS\server\v18\Source\Source\_Common\Project.h
; File C:\IAGOS\server\v18\Source\Source\_Common\MoverAttack.cpp
;	COMDAT ?PostCalcMagicSkill@CMover@@QAEHHPAUATTACK_INFO@@@Z
_TEXT	SEGMENT
_this$1$ = -4						; size = 4
_nATK$ = 8						; size = 4
_a$ = 8							; size = 4
tv222 = 8						; size = 4
tv224 = 8						; size = 4
tv228 = 8						; size = 4
_pInfo$ = 12						; size = 4
_nDEF$1$ = 12						; size = 4
?PostCalcMagicSkill@CMover@@QAEHHPAUATTACK_INFO@@@Z PROC ; CMover::PostCalcMagicSkill, COMDAT
; _this$ = ecx

; 1097 : {

  00000	55		 push	 ebp
  00001	8b ec		 mov	 ebp, esp
  00003	51		 push	 ecx
  00004	56		 push	 esi

; 1098 : 	CMover*				pDefender = pInfo->pDefender;

  00005	8b 75 0c	 mov	 esi, DWORD PTR _pInfo$[ebp]
  00008	89 4d fc	 mov	 DWORD PTR _this$1$[ebp], ecx

; 1099 : 	int					nSkill = pInfo->GetSkill();

  0000b	8b ce		 mov	 ecx, esi
  0000d	57		 push	 edi
  0000e	8b 7e 04	 mov	 edi, DWORD PTR [esi+4]
  00011	e8 00 00 00 00	 call	 ?GetSkill@ATTACK_INFO@@QBEHXZ ; ATTACK_INFO::GetSkill
  00016	8b d0		 mov	 edx, eax
; File C:\IAGOS\server\v18\Source\Source\_Common\Project.h

; 1395 : 	VERIFY_RANGE( nIndex, 0, m_aPropSkill.GetSize(), "GetSkillProp range_error", NULL );

  00018	a1 64 02 00 00	 mov	 eax, DWORD PTR ?prj@@3VCProject@@A+612
  0001d	85 d2		 test	 edx, edx
  0001f	0f 88 b3 00 00
	00		 js	 $LN15@PostCalcMa
  00025	3b d0		 cmp	 edx, eax
  00027	0f 8d ab 00 00
	00		 jge	 $LN15@PostCalcMa
; File C:\IAGOS\server\v18\Source\Source\_Common\data.h

; 270  : 	if( dwIndex >= (DWORD)m_nMaxIndex )

  0002d	72 04		 jb	 SHORT $LN20@PostCalcMa

; 271  : 		return NULL;

  0002f	33 c0		 xor	 eax, eax
  00031	eb 08		 jmp	 SHORT $LN19@PostCalcMa
$LN20@PostCalcMa:

; 272  : 	return (T*) m_apOffset[ dwIndex ];

  00033	a1 54 02 00 00	 mov	 eax, DWORD PTR ?prj@@3VCProject@@A+596
  00038	8b 04 90	 mov	 eax, DWORD PTR [eax+edx*4]
$LN19@PostCalcMa:
; File C:\IAGOS\server\v18\Source\Source\_Common\MoverAttack.cpp

; 1103 : 	if( !pSkillProp )

  0003b	85 c0		 test	 eax, eax
  0003d	0f 84 ab 00 00
	00		 je	 $LN26@PostCalcMa

; 1105 : 	else
; 1106 : 		skillType = pSkillProp->eItemType;

  00043	53		 push	 ebx
  00044	8b 98 f0 00 00
	00		 mov	 ebx, DWORD PTR [eax+240]

; 1107 : 	
; 1108 : 	float a, b;
; 1109 : #if __VER >= 9    // 	__PVPDEMAGE0608	//	9th PVP DEMAGE edit 
; 1110 : 	if( IsNPC() || pDefender->IsNPC() )
; 1111 : 		b = 1.0f + (int)( nDelta / 0.05f );
; 1112 : 	else
; 1113 : 		b = 1.0f;
; 1114 : #else //__PVPDEMAGE0608	//	9th PVP DEMAGE edit 
; 1115 : 	b = 1.0f + (int)( nDelta / 0.05f );
; 1116 : #endif	//__PVPDEMAGE0608	//	9th PVP DEMAGE edit 
; 1117 : 
; 1118 : 	if( b <= 0.0f )							
; 1119 : 		b = 0.0f;
; 1120 : 
; 1121 : 	int nDEF = pDefender->CalcDefense( pInfo );

  0004a	8b cf		 mov	 ecx, edi
  0004c	6a 01		 push	 1
  0004e	56		 push	 esi
  0004f	e8 00 00 00 00	 call	 ?CalcDefense@CMover@@QAEHPAUATTACK_INFO@@H@Z ; CMover::CalcDefense

; 1122 : #if __VER >= 10    // 	__LEGEND
; 1123 : 	if( pInfo->dwAtkFlags & AF_MAGICSKILL )		// żążÜĂł¸®:ĽÓĽş ¸ĹÁ÷˝şĹłŔÇ ąćľî·ÂŔ» ±¸ÇŃ´Ů.

  00054	f6 46 08 20	 test	 BYTE PTR [esi+8], 32	; 00000020H
  00058	89 45 0c	 mov	 DWORD PTR _nDEF$1$[ebp], eax
  0005b	74 28		 je	 SHORT $LN27@PostCalcMa

; 1124 : 		nATK = nATK - nATK * pDefender->GetParam( DST_RESIST_MAGIC_RATE, 0 ) / 100 ;

  0005d	6a 00		 push	 0
  0005f	6a 5b		 push	 91			; 0000005bH
  00061	8b cf		 mov	 ecx, edi
  00063	e8 00 00 00 00	 call	 ?GetParam@CMover@@QAEHHH@Z ; CMover::GetParam
  00068	8b 75 08	 mov	 esi, DWORD PTR _nATK$[ebp]
  0006b	8b c8		 mov	 ecx, eax
  0006d	0f af ce	 imul	 ecx, esi
  00070	b8 e1 7a 14 ae	 mov	 eax, -1374389535	; ae147ae1H
  00075	f7 e9		 imul	 ecx
  00077	c1 fa 05	 sar	 edx, 5
  0007a	8b c2		 mov	 eax, edx
  0007c	c1 e8 1f	 shr	 eax, 31			; 0000001fH
  0007f	03 c2		 add	 eax, edx
  00081	03 f0		 add	 esi, eax
  00083	eb 03		 jmp	 SHORT $LN8@PostCalcMa
$LN27@PostCalcMa:

; 1122 : #if __VER >= 10    // 	__LEGEND
; 1123 : 	if( pInfo->dwAtkFlags & AF_MAGICSKILL )		// żążÜĂł¸®:ĽÓĽş ¸ĹÁ÷˝şĹłŔÇ ąćľî·ÂŔ» ±¸ÇŃ´Ů.

  00085	8b 75 08	 mov	 esi, DWORD PTR _nATK$[ebp]
$LN8@PostCalcMa:

; 1125 : #endif	//__LEGEND
; 1126 : 	a = ( nATK-nDEF ) * (1.0f - pDefender->GetResist(skillType) );

  00088	53		 push	 ebx
  00089	8b cf		 mov	 ecx, edi
  0008b	e8 00 00 00 00	 call	 ?GetResist@CMover@@QAEMW4ePropType@SAI79@@@Z ; CMover::GetResist
  00090	2b 75 0c	 sub	 esi, DWORD PTR _nDEF$1$[ebp]
  00093	d9 e8		 fld1

; 1127 : 
; 1128 : 	return	( (int)( (int)a*GetMagicSkillFactor( pDefender, skillType ) ) );

  00095	8b 4d fc	 mov	 ecx, DWORD PTR _this$1$[ebp]
  00098	de e1		 fsubrp	 ST(1), ST(0)
  0009a	53		 push	 ebx
  0009b	66 0f 6e c6	 movd	 xmm0, esi
  0009f	0f 5b c0	 cvtdq2ps xmm0, xmm0
  000a2	57		 push	 edi
  000a3	f3 0f 11 45 08	 movss	 DWORD PTR tv228[ebp], xmm0
  000a8	d8 4d 08	 fmul	 DWORD PTR tv228[ebp]
  000ab	d9 5d 08	 fstp	 DWORD PTR _a$[ebp]
  000ae	e8 00 00 00 00	 call	 ?GetMagicSkillFactor@CMover@@QAEMPAV1@W4ePropType@SAI79@@@Z ; CMover::GetMagicSkillFactor
  000b3	f3 0f 2c 45 08	 cvttss2si eax, DWORD PTR _a$[ebp]
  000b8	5b		 pop	 ebx
  000b9	5f		 pop	 edi

; 1129 : }

  000ba	5e		 pop	 esi
  000bb	66 0f 6e c0	 movd	 xmm0, eax
  000bf	0f 5b c0	 cvtdq2ps xmm0, xmm0
  000c2	f3 0f 11 45 08	 movss	 DWORD PTR tv224[ebp], xmm0
  000c7	d8 4d 08	 fmul	 DWORD PTR tv224[ebp]
  000ca	d9 5d 08	 fstp	 DWORD PTR tv222[ebp]
  000cd	f3 0f 2c 45 08	 cvttss2si eax, DWORD PTR tv222[ebp]
  000d2	8b e5		 mov	 esp, ebp
  000d4	5d		 pop	 ebp
  000d5	c2 08 00	 ret	 8
$LN15@PostCalcMa:
; File C:\IAGOS\server\v18\Source\Source\_Common\Project.h

; 579  : 	LPCTSTR szErr = Error( _T( "%s min:%d, max:%d, index:%d" ), szMsg, nMin, nMax, nIndex ); 

  000d8	52		 push	 edx
  000d9	50		 push	 eax
  000da	6a 00		 push	 0
  000dc	68 00 00 00 00	 push	 OFFSET ??_C@_0BJ@GPNGCFMK@GetSkillProp?5range_error@
  000e1	68 00 00 00 00	 push	 OFFSET ??_C@_0BM@HMFGHCP@?$CFs?5min?3?$CFd?0?5max?3?$CFd?0?5index?3?$CFd@
  000e6	e8 00 00 00 00	 call	 ?Error@@YAPBDPBDZZ	; Error
  000eb	83 c4 14	 add	 esp, 20			; 00000014H
$LN26@PostCalcMa:
  000ee	5f		 pop	 edi
; File C:\IAGOS\server\v18\Source\Source\_Common\MoverAttack.cpp

; 1104 : 		return 0;

  000ef	33 c0		 xor	 eax, eax

; 1129 : }

  000f1	5e		 pop	 esi
  000f2	8b e5		 mov	 esp, ebp
  000f4	5d		 pop	 ebp
  000f5	c2 08 00	 ret	 8
?PostCalcMagicSkill@CMover@@QAEHHPAUATTACK_INFO@@@Z ENDP ; CMover::PostCalcMagicSkill
_TEXT	ENDS
; Function compile flags: /Ogtp
; File C:\IAGOS\server\v18\Source\Source\_Common\MoverAttack.cpp
; File C:\IAGOS\server\v18\Source\Source\_Common\Project.h
; File C:\IAGOS\server\v18\Source\Source\_Common\data.h
; File C:\IAGOS\server\v18\Source\Source\_Common\MoverAttack.cpp
; File C:\IAGOS\server\v18\Source\Source\_Common\Project.h
; File C:\IAGOS\server\v18\Source\Source\_Common\MoverAttack.cpp
; File C:\IAGOS\server\v18\Source\Source\_Common\xUtil.h
; File C:\IAGOS\server\v18\Source\Source\_Common\MoverAttack.cpp
; File C:\IAGOS\server\v18\Source\Source\_Common\xUtil.h
; File C:\IAGOS\server\v18\Source\Source\_Common\MoverAttack.cpp
; File C:\IAGOS\server\v18\Source\Source\_Common\xUtil.h
; File C:\IAGOS\server\v18\Source\Source\_Common\MoverAttack.cpp
; File C:\IAGOS\server\v18\Source\Source\_Common\Mover.h
; File C:\IAGOS\server\v18\Source\Source\_Common\MoverAttack.cpp
; File C:\IAGOS\server\v18\Source\Source\_Common\Mover.h
; File C:\IAGOS\server\v18\Source\Source\_Common\Project.h
; File C:\IAGOS\server\v18\Source\Source\_Common\MoverAttack.cpp
; File C:\IAGOS\server\v18\Source\Source\_Common\Mover.h
; File C:\IAGOS\server\v18\Source\Source\_Common\MoverAttack.cpp
; File C:\IAGOS\server\v18\Source\Source\_Common\Mover.h
; File C:\IAGOS\server\v18\Source\Source\_Common\Project.h
; File C:\IAGOS\server\v18\Source\Source\_Common\MoverAttack.cpp
; File C:\IAGOS\server\v18\Source\Source\_Common\Mover.h
; File C:\IAGOS\server\v18\Source\Source\_Common\MoverAttack.cpp
; File C:\IAGOS\server\v18\Source\Source\_Common\Mover.h
; File C:\IAGOS\server\v18\Source\Source\_Common\MoverAttack.cpp
;	COMDAT ?GetDamageMultiplier@CMover@@QAEMPAUATTACK_INFO@@@Z
_TEXT	SEGMENT
_pAddSkillProp$1$ = -16					; size = 4
_this$1$ = -12						; size = 4
_dwProbability$1$ = -8					; size = 4
_factor$ = -4						; size = 4
_pInfo$ = 8						; size = 4
_factor$1$ = 8						; size = 4
?GetDamageMultiplier@CMover@@QAEMPAUATTACK_INFO@@@Z PROC ; CMover::GetDamageMultiplier, COMDAT
; _this$ = ecx

; 829  : {

  00000	55		 push	 ebp
  00001	8b ec		 mov	 ebp, esp
  00003	83 ec 10	 sub	 esp, 16			; 00000010H

; 830  : 	float factor = 1.0f;

  00006	f3 0f 10 0d 00
	00 00 00	 movss	 xmm1, DWORD PTR __real@3f800000
  0000e	53		 push	 ebx
  0000f	8b 5d 08	 mov	 ebx, DWORD PTR _pInfo$[ebp]
  00012	56		 push	 esi
  00013	8b f1		 mov	 esi, ecx
  00015	f3 0f 11 4d 08	 movss	 DWORD PTR _factor$1$[ebp], xmm1
  0001a	57		 push	 edi

; 831  : 	int nSkill = pInfo->GetSkill(); 

  0001b	8b cb		 mov	 ecx, ebx
  0001d	89 75 f4	 mov	 DWORD PTR _this$1$[ebp], esi
  00020	f3 0f 11 4d fc	 movss	 DWORD PTR _factor$[ebp], xmm1
  00025	e8 00 00 00 00	 call	 ?GetSkill@ATTACK_INFO@@QBEHXZ ; ATTACK_INFO::GetSkill
  0002a	8b f8		 mov	 edi, eax

; 832  : 
; 833  : 	ItemProp* pSkillProp = NULL;
; 834  : 	AddSkillProp* pAddSkillProp = NULL;

  0002c	c7 45 f0 00 00
	00 00		 mov	 DWORD PTR _pAddSkillProp$1$[ebp], 0

; 835  : 	DWORD	dwProbability	= 0;

  00033	c7 45 f8 00 00
	00 00		 mov	 DWORD PTR _dwProbability$1$[ebp], 0

; 836  : 
; 837  : 	if( nSkill )

  0003a	85 ff		 test	 edi, edi
  0003c	0f 84 b3 00 00
	00		 je	 $LN12@GetDamageM
; File C:\IAGOS\server\v18\Source\Source\_Common\Project.h

; 1395 : 	VERIFY_RANGE( nIndex, 0, m_aPropSkill.GetSize(), "GetSkillProp range_error", NULL );

  00042	a1 64 02 00 00	 mov	 eax, DWORD PTR ?prj@@3VCProject@@A+612
  00047	0f 88 8d 00 00
	00		 js	 $LN51@GetDamageM
  0004d	3b f8		 cmp	 edi, eax
  0004f	0f 8d 85 00 00
	00		 jge	 $LN51@GetDamageM
; File C:\IAGOS\server\v18\Source\Source\_Common\data.h

; 270  : 	if( dwIndex >= (DWORD)m_nMaxIndex )

  00055	72 04		 jb	 SHORT $LN56@GetDamageM

; 271  : 		return NULL;

  00057	33 c0		 xor	 eax, eax
  00059	eb 08		 jmp	 SHORT $LN55@GetDamageM
$LN56@GetDamageM:

; 272  : 	return (T*) m_apOffset[ dwIndex ];

  0005b	a1 54 02 00 00	 mov	 eax, DWORD PTR ?prj@@3VCProject@@A+596
  00060	8b 04 b8	 mov	 eax, DWORD PTR [eax+edi*4]
$LN55@GetDamageM:
; File C:\IAGOS\server\v18\Source\Source\_Common\MoverAttack.cpp

; 840  : 		if( pSkillProp )

  00063	85 c0		 test	 eax, eax
  00065	0f 84 8a 00 00
	00		 je	 $LN12@GetDamageM

; 841  : 		{
; 842  : 			pAddSkillProp	= prj.GetAddSkillProp( pSkillProp->dwSubDefine, pInfo->GetSkillLevel() );

  0006b	8b b0 10 02 00
	00		 mov	 esi, DWORD PTR [eax+528]
  00071	8b cb		 mov	 ecx, ebx
  00073	e8 00 00 00 00	 call	 ?GetSkillLevel@ATTACK_INFO@@QBEHXZ ; ATTACK_INFO::GetSkillLevel
  00078	50		 push	 eax
  00079	56		 push	 esi
  0007a	b9 00 00 00 00	 mov	 ecx, OFFSET ?prj@@3VCProject@@A ; prj
  0007f	e8 00 00 00 00	 call	 ?GetAddSkillProp@CProject@@QAEPAUAddSkillProp@@KK@Z ; CProject::GetAddSkillProp
  00084	89 45 f0	 mov	 DWORD PTR _pAddSkillProp$1$[ebp], eax

; 843  : 			if( pAddSkillProp )

  00087	85 c0		 test	 eax, eax
  00089	74 67		 je	 SHORT $LN111@GetDamageM

; 844  : 			{
; 845  : 				dwProbability	= pAddSkillProp->nProbability;
; 846  : #if __VER >= 9	// __SKILL_0706
; 847  : 				if( pInfo->pAttacker->IsPlayer() && pInfo->pDefender->IsPlayer() )

  0008b	8b 0b		 mov	 ecx, DWORD PTR [ebx]
  0008d	8b 50 1c	 mov	 edx, DWORD PTR [eax+28]
  00090	89 55 f8	 mov	 DWORD PTR _dwProbability$1$[ebp], edx
  00093	83 b9 30 02 00
	00 00		 cmp	 DWORD PTR [ecx+560], 0
  0009a	74 15		 je	 SHORT $LN11@GetDamageM
  0009c	8b 4b 04	 mov	 ecx, DWORD PTR [ebx+4]
  0009f	83 b9 30 02 00
	00 00		 cmp	 DWORD PTR [ecx+560], 0
  000a6	74 09		 je	 SHORT $LN11@GetDamageM

; 848  : 					dwProbability	= pAddSkillProp->nProbabilityPVP;

  000a8	8b 88 8c 00 00
	00		 mov	 ecx, DWORD PTR [eax+140]
  000ae	89 4d f8	 mov	 DWORD PTR _dwProbability$1$[ebp], ecx
$LN11@GetDamageM:

; 849  : #endif	// __SKILL_0706
; 850  : 				if( pAddSkillProp->nSkillCount > 0 )	//  ąß»çĂĽ °łĽö°ˇ ŔÖ´Â°Ç

  000b1	8b 40 74	 mov	 eax, DWORD PTR [eax+116]
  000b4	8b 75 f4	 mov	 esi, DWORD PTR _this$1$[ebp]
  000b7	85 c0		 test	 eax, eax
  000b9	7e 3a		 jle	 SHORT $LN12@GetDamageM

; 851  : 					factor	/= (float)pAddSkillProp->nSkillCount;	// ąß»çĂĽ °łĽö¸¸Ĺ­ µĄąĚÁö¸¦ łŞ´˛Ľ­ ÁÜ.

  000bb	f3 0f 10 0d 00
	00 00 00	 movss	 xmm1, DWORD PTR __real@3f800000
  000c3	66 0f 6e c0	 movd	 xmm0, eax
  000c7	0f 5b c0	 cvtdq2ps xmm0, xmm0
  000ca	f3 0f 5e c8	 divss	 xmm1, xmm0
  000ce	f3 0f 11 4d 08	 movss	 DWORD PTR _factor$1$[ebp], xmm1
  000d3	f3 0f 11 4d fc	 movss	 DWORD PTR _factor$[ebp], xmm1
  000d8	eb 1b		 jmp	 SHORT $LN12@GetDamageM
$LN51@GetDamageM:
; File C:\IAGOS\server\v18\Source\Source\_Common\Project.h

; 579  : 	LPCTSTR szErr = Error( _T( "%s min:%d, max:%d, index:%d" ), szMsg, nMin, nMax, nIndex ); 

  000da	57		 push	 edi
  000db	50		 push	 eax
  000dc	6a 00		 push	 0
  000de	68 00 00 00 00	 push	 OFFSET ??_C@_0BJ@GPNGCFMK@GetSkillProp?5range_error@
  000e3	68 00 00 00 00	 push	 OFFSET ??_C@_0BM@HMFGHCP@?$CFs?5min?3?$CFd?0?5max?3?$CFd?0?5index?3?$CFd@
  000e8	e8 00 00 00 00	 call	 ?Error@@YAPBDPBDZZ	; Error
  000ed	83 c4 14	 add	 esp, 20			; 00000014H
; File C:\IAGOS\server\v18\Source\Source\_Common\MoverAttack.cpp

; 843  : 			if( pAddSkillProp )

  000f0	eb 03		 jmp	 SHORT $LN12@GetDamageM
$LN111@GetDamageM:
  000f2	8b 75 f4	 mov	 esi, DWORD PTR _this$1$[ebp]
$LN12@GetDamageM:

; 852  : 			}
; 853  : 		}
; 854  : 	}
; 855  : 
; 856  : 	// ˝ÎŔĚ·±Ć®Ľ¦ŔĚ¸é µĄąĚÁö 2ąč, ´ŮĹ©ŔĎ·çÁŻ»óĹÂŔĚ¸é ÇŘÁ¦ÇŃ´Ů.
; 857  : 	if( HasBuff( BUFF_SKILL, SI_ACR_SUP_DARKILLUSION ) )

  000f5	68 c1 00 00 00	 push	 193			; 000000c1H
  000fa	6a 01		 push	 1
  000fc	8b ce		 mov	 ecx, esi
  000fe	e8 00 00 00 00	 call	 ?HasBuff@CMover@@QAEHGG@Z ; CMover::HasBuff
  00103	85 c0		 test	 eax, eax
  00105	74 2c		 je	 SHORT $LN106@GetDamageM

; 858  : 	{
; 859  : 		switch( nSkill )

  00107	8b c7		 mov	 eax, edi
  00109	2d c6 00 00 00	 sub	 eax, 198		; 000000c6H
  0010e	74 0a		 je	 SHORT $LN14@GetDamageM
  00110	83 e8 0d	 sub	 eax, 13			; 0000000dH
  00113	74 05		 je	 SHORT $LN14@GetDamageM
  00115	83 e8 03	 sub	 eax, 3
  00118	75 19		 jne	 SHORT $LN106@GetDamageM
$LN14@GetDamageM:

; 860  : 		{
; 861  : 		case SI_JST_YOYO_BACKSTAB:   //ĂÖ´ë 2ąč
; 862  : 		case SI_JST_YOYO_VATALSTAB:  //ĂÖ´ë 4ąč
; 863  : 		case SI_ACR_BOW_SILENTSHOT:
; 864  : 			{
; 865  : 				factor *= 1.4f;

  0011a	f3 0f 10 4d 08	 movss	 xmm1, DWORD PTR _factor$1$[ebp]
  0011f	f3 0f 59 0d 00
	00 00 00	 mulss	 xmm1, DWORD PTR __real@3fb33333
  00127	f3 0f 11 4d 08	 movss	 DWORD PTR _factor$1$[ebp], xmm1
  0012c	f3 0f 11 4d fc	 movss	 DWORD PTR _factor$[ebp], xmm1
  00131	eb 05		 jmp	 SHORT $LN2@GetDamageM
$LN106@GetDamageM:

; 866  : 				break;
; 867  : 			}
; 868  : 		}
; 869  : 	}
; 870  : 
; 871  : 	switch( nSkill )

  00133	f3 0f 10 4d 08	 movss	 xmm1, DWORD PTR _factor$1$[ebp]
$LN2@GetDamageM:
  00138	8d 87 3e ff ff
	ff		 lea	 eax, DWORD PTR [edi-194]
  0013e	83 f8 14	 cmp	 eax, 20			; 00000014H
  00141	0f 87 f7 00 00
	00		 ja	 $LN4@GetDamageM
  00147	0f b6 80 00 00
	00 00		 movzx	 eax, BYTE PTR $LN96@GetDamageM[eax]
  0014e	ff 24 85 00 00
	00 00		 jmp	 DWORD PTR $LN97@GetDamageM[eax*4]
$LN17@GetDamageM:
; File C:\IAGOS\server\v18\Source\Source\_Common\xUtil.h

; 16   : 	g_next = g_next * 1103515245 + 12345;// + nRandomSeed[ i++ ];

  00155	69 0d 00 00 00
	00 6d 4e c6 41	 imul	 ecx, DWORD PTR ?g_next@@3KA, 1103515245 ; g_next

; 22   : 	return  xRand() % num;

  0015f	b8 1f 85 eb 51	 mov	 eax, 1374389535		; 51eb851fH

; 16   : 	g_next = g_next * 1103515245 + 12345;// + nRandomSeed[ i++ ];

  00164	81 c1 39 30 00
	00		 add	 ecx, 12345		; 00003039H

; 22   : 	return  xRand() % num;

  0016a	f7 e1		 mul	 ecx

; 16   : 	g_next = g_next * 1103515245 + 12345;// + nRandomSeed[ i++ ];

  0016c	89 0d 00 00 00
	00		 mov	 DWORD PTR ?g_next@@3KA, ecx ; g_next

; 22   : 	return  xRand() % num;

  00172	c1 ea 05	 shr	 edx, 5
  00175	6b c2 64	 imul	 eax, edx, 100
  00178	2b c8		 sub	 ecx, eax
; File C:\IAGOS\server\v18\Source\Source\_Common\MoverAttack.cpp

; 874  : 		if( xRandom( 100 ) < dwProbability )

  0017a	3b 4d f8	 cmp	 ecx, DWORD PTR _dwProbability$1$[ebp]
  0017d	0f 83 10 01 00
	00		 jae	 $LN110@GetDamageM

; 875  : 			factor *= 2.0f;

  00183	0f 28 c1	 movaps	 xmm0, xmm1
  00186	f3 0f 58 c1	 addss	 xmm0, xmm1
  0018a	f3 0f 11 45 08	 movss	 DWORD PTR _factor$1$[ebp], xmm0
  0018f	f3 0f 11 45 fc	 movss	 DWORD PTR _factor$[ebp], xmm0

; 876  : 		break;		

  00194	e9 ff 00 00 00	 jmp	 $LN24@GetDamageM
$LN19@GetDamageM:
; File C:\IAGOS\server\v18\Source\Source\_Common\xUtil.h

; 16   : 	g_next = g_next * 1103515245 + 12345;// + nRandomSeed[ i++ ];

  00199	69 0d 00 00 00
	00 6d 4e c6 41	 imul	 ecx, DWORD PTR ?g_next@@3KA, 1103515245 ; g_next

; 22   : 	return  xRand() % num;

  001a3	b8 1f 85 eb 51	 mov	 eax, 1374389535		; 51eb851fH

; 16   : 	g_next = g_next * 1103515245 + 12345;// + nRandomSeed[ i++ ];

  001a8	81 c1 39 30 00
	00		 add	 ecx, 12345		; 00003039H

; 22   : 	return  xRand() % num;

  001ae	f7 e1		 mul	 ecx

; 16   : 	g_next = g_next * 1103515245 + 12345;// + nRandomSeed[ i++ ];

  001b0	89 0d 00 00 00
	00		 mov	 DWORD PTR ?g_next@@3KA, ecx ; g_next

; 22   : 	return  xRand() % num;

  001b6	c1 ea 05	 shr	 edx, 5
  001b9	6b c2 64	 imul	 eax, edx, 100
  001bc	2b c8		 sub	 ecx, eax
; File C:\IAGOS\server\v18\Source\Source\_Common\MoverAttack.cpp

; 878  : 		if( xRandom( 100 ) < dwProbability )

  001be	3b 4d f8	 cmp	 ecx, DWORD PTR _dwProbability$1$[ebp]
  001c1	0f 83 cc 00 00
	00		 jae	 $LN110@GetDamageM

; 879  : 			factor = 4.0f; // Tom: factor 4 is way better, else the shot just suxx!

  001c7	f3 0f 10 05 00
	00 00 00	 movss	 xmm0, DWORD PTR __real@40800000
  001cf	f3 0f 11 45 08	 movss	 DWORD PTR _factor$1$[ebp], xmm0
  001d4	f3 0f 11 45 fc	 movss	 DWORD PTR _factor$[ebp], xmm0

; 880  : 		break;		

  001d9	e9 ba 00 00 00	 jmp	 $LN24@GetDamageM
$LN21@GetDamageM:
; File C:\IAGOS\server\v18\Source\Source\_Common\xUtil.h

; 16   : 	g_next = g_next * 1103515245 + 12345;// + nRandomSeed[ i++ ];

  001de	69 0d 00 00 00
	00 6d 4e c6 41	 imul	 ecx, DWORD PTR ?g_next@@3KA, 1103515245 ; g_next

; 22   : 	return  xRand() % num;

  001e8	b8 1f 85 eb 51	 mov	 eax, 1374389535		; 51eb851fH

; 16   : 	g_next = g_next * 1103515245 + 12345;// + nRandomSeed[ i++ ];

  001ed	81 c1 39 30 00
	00		 add	 ecx, 12345		; 00003039H

; 22   : 	return  xRand() % num;

  001f3	f7 e1		 mul	 ecx

; 16   : 	g_next = g_next * 1103515245 + 12345;// + nRandomSeed[ i++ ];

  001f5	89 0d 00 00 00
	00		 mov	 DWORD PTR ?g_next@@3KA, ecx ; g_next

; 22   : 	return  xRand() % num;

  001fb	c1 ea 05	 shr	 edx, 5
  001fe	6b c2 64	 imul	 eax, edx, 100
  00201	2b c8		 sub	 ecx, eax
; File C:\IAGOS\server\v18\Source\Source\_Common\MoverAttack.cpp

; 882  : 		if( xRandom( 100 ) > dwProbability )

  00203	3b 4d f8	 cmp	 ecx, DWORD PTR _dwProbability$1$[ebp]
  00206	0f 86 87 00 00
	00		 jbe	 $LN110@GetDamageM

; 883  : 			factor = 0.0f;

  0020c	0f 57 c0	 xorps	 xmm0, xmm0
  0020f	f3 0f 11 45 08	 movss	 DWORD PTR _factor$1$[ebp], xmm0
  00214	f3 0f 11 45 fc	 movss	 DWORD PTR _factor$[ebp], xmm0

; 884  : 		break;		

  00219	eb 7d		 jmp	 SHORT $LN24@GetDamageM
$LN23@GetDamageM:

; 885  :  	case SI_JST_YOYO_HITOFPENYA:
; 886  : 		factor	*= ( pAddSkillProp->nDestData1[0] / 100.0f );

  0021b	8b 45 f0	 mov	 eax, DWORD PTR _pAddSkillProp$1$[ebp]
  0021e	66 0f 6e 40 3c	 movd	 xmm0, DWORD PTR [eax+60]
  00223	0f 5b c0	 cvtdq2ps xmm0, xmm0
  00226	f3 0f 5e 05 00
	00 00 00	 divss	 xmm0, DWORD PTR __real@42c80000
  0022e	f3 0f 59 c1	 mulss	 xmm0, xmm1
  00232	f3 0f 11 45 08	 movss	 DWORD PTR _factor$1$[ebp], xmm0
  00237	f3 0f 11 45 fc	 movss	 DWORD PTR _factor$[ebp], xmm0
  0023c	eb 5a		 jmp	 SHORT $LN24@GetDamageM
$LN4@GetDamageM:

; 887  : 		break;		
; 888  : 	}
; 889  : 	
; 890  : 	if (nSkill == SI_PSY_PSY_SPRITBOMB)

  0023e	81 ff a4 00 00
	00		 cmp	 edi, 164		; 000000a4H
  00244	75 4d		 jne	 SHORT $LN110@GetDamageM

; 891  : 	{
; 892  : 		float fPercent = (float)GetManaPointPercent();

  00246	6a 64		 push	 100			; 00000064H
  00248	8b ce		 mov	 ecx, esi
  0024a	e8 00 00 00 00	 call	 ?GetManaPointPercent@CMover@@QAEHH@Z ; CMover::GetManaPointPercent

; 893  : 		if (fPercent > 100.0f)
; 894  : 		{
; 895  : 			fPercent = 100.0f;
; 896  : 		}
; 897  : 		else if (fPercent < 10.0f) 

  0024f	f3 0f 10 0d 00
	00 00 00	 movss	 xmm1, DWORD PTR __real@41200000
  00257	f3 0f 10 15 00
	00 00 00	 movss	 xmm2, DWORD PTR __real@42c80000
  0025f	66 0f 6e c0	 movd	 xmm0, eax
  00263	0f 5b c0	 cvtdq2ps xmm0, xmm0
  00266	f3 0f 5f c8	 maxss	 xmm1, xmm0

; 898  : 		{
; 899  : 			fPercent = 10.0f;
; 900  : 		}
; 901  : 		factor = factor * 1.5f * (fPercent / 100.0f);

  0026a	f3 0f 10 45 08	 movss	 xmm0, DWORD PTR _factor$1$[ebp]
  0026f	f3 0f 59 05 00
	00 00 00	 mulss	 xmm0, DWORD PTR __real@3fc00000
  00277	f3 0f 5d d1	 minss	 xmm2, xmm1
  0027b	f3 0f 5e 15 00
	00 00 00	 divss	 xmm2, DWORD PTR __real@42c80000
  00283	f3 0f 59 c2	 mulss	 xmm0, xmm2
  00287	f3 0f 11 45 08	 movss	 DWORD PTR _factor$1$[ebp], xmm0
  0028c	f3 0f 11 45 fc	 movss	 DWORD PTR _factor$[ebp], xmm0
  00291	eb 05		 jmp	 SHORT $LN24@GetDamageM
$LN110@GetDamageM:
; File C:\IAGOS\server\v18\Source\Source\_Common\Mover.h

; 1015 : 	BOOL			IsNPC()				{ return !m_bPlayer; }

  00293	f3 0f 10 45 08	 movss	 xmm0, DWORD PTR _factor$1$[ebp]
$LN24@GetDamageM:
  00298	83 be 30 02 00
	00 00		 cmp	 DWORD PTR [esi+560], 0
; File C:\IAGOS\server\v18\Source\Source\_Common\MoverAttack.cpp

; 904  : 	if( IsNPC() )	// ąöĽ­ÄżAI°ˇ ŔÖ´Ů.

  0029f	75 77		 jne	 SHORT $LN28@GetDamageM
; File C:\IAGOS\server\v18\Source\Source\_Common\Mover.h

; 1020 : 	MoverProp*		GetProp() { return prj.GetMoverProp( m_dwIndex ); }	// °´ĂĽŔÇ ÇÁ·ÎĆŰĆĽ ľň±â 	

  002a1	8b 86 74 01 00
	00		 mov	 eax, DWORD PTR [esi+372]
; File C:\IAGOS\server\v18\Source\Source\_Common\Project.h

; 1406 : 	VERIFY_RANGE( nIndex, 0, m_nMoverPropSize, "GetMoverProp range_error", NULL );

  002a7	85 c0		 test	 eax, eax
  002a9	78 16		 js	 SHORT $LN65@GetDamageM
  002ab	3b 05 b4 01 00
	00		 cmp	 eax, DWORD PTR ?prj@@3VCProject@@A+436
  002b1	7d 0e		 jge	 SHORT $LN65@GetDamageM

; 1407 : 	return m_pPropMover + nIndex;

  002b3	69 c0 90 06 00
	00		 imul	 eax, eax, 1680
  002b9	03 05 b8 01 00
	00		 add	 eax, DWORD PTR ?prj@@3VCProject@@A+440
  002bf	eb 1d		 jmp	 SHORT $LN60@GetDamageM
$LN65@GetDamageM:

; 579  : 	LPCTSTR szErr = Error( _T( "%s min:%d, max:%d, index:%d" ), szMsg, nMin, nMax, nIndex ); 

  002c1	50		 push	 eax
  002c2	ff 35 b4 01 00
	00		 push	 DWORD PTR ?prj@@3VCProject@@A+436
  002c8	6a 00		 push	 0
  002ca	68 00 00 00 00	 push	 OFFSET ??_C@_0BJ@GKPOBPPI@GetMoverProp?5range_error@
  002cf	68 00 00 00 00	 push	 OFFSET ??_C@_0BM@HMFGHCP@?$CFs?5min?3?$CFd?0?5max?3?$CFd?0?5index?3?$CFd@
  002d4	e8 00 00 00 00	 call	 ?Error@@YAPBDPBDZZ	; Error
  002d9	83 c4 14	 add	 esp, 20			; 00000014H

; 1406 : 	VERIFY_RANGE( nIndex, 0, m_nMoverPropSize, "GetMoverProp range_error", NULL );

  002dc	33 c0		 xor	 eax, eax
$LN60@GetDamageM:
; File C:\IAGOS\server\v18\Source\Source\_Common\MoverAttack.cpp

; 906  : 		int nBerserkHP = GetProp()->m_nBerserkHP;

  002de	8b b8 34 02 00
	00		 mov	 edi, DWORD PTR [eax+564]

; 907  : 		if( nBerserkHP > 0 && GetHitPointPercent( 100 ) <= nBerserkHP )

  002e4	85 ff		 test	 edi, edi
  002e6	7e 2b		 jle	 SHORT $LN102@GetDamageM
  002e8	6a 64		 push	 100			; 00000064H
  002ea	8b ce		 mov	 ecx, esi
  002ec	e8 00 00 00 00	 call	 ?GetHitPointPercent@CMover@@QAEHH@Z ; CMover::GetHitPointPercent
  002f1	3b c7		 cmp	 eax, edi
  002f3	7f 1e		 jg	 SHORT $LN102@GetDamageM

; 908  : 			factor *= GetProp()->m_fBerserkDmgMul;

  002f5	8b ce		 mov	 ecx, esi
  002f7	e8 00 00 00 00	 call	 ?GetPropA@CMover@@QAEPAUMoverProp@@XZ ; CMover::GetPropA
  002fc	f3 0f 10 45 08	 movss	 xmm0, DWORD PTR _factor$1$[ebp]
  00301	f3 0f 59 80 38
	02 00 00	 mulss	 xmm0, DWORD PTR [eax+568]
  00309	f3 0f 11 45 08	 movss	 DWORD PTR _factor$1$[ebp], xmm0
  0030e	f3 0f 11 45 fc	 movss	 DWORD PTR _factor$[ebp], xmm0
$LN102@GetDamageM:

; 909  : 	}

  00313	8d 73 04	 lea	 esi, DWORD PTR [ebx+4]
  00316	eb 39		 jmp	 SHORT $LN103@GetDamageM
$LN28@GetDamageM:

; 910  : 	else
; 911  : 	{
; 912  : 		if( pInfo->pDefender->IsPlayer() )		// ÇĂ·ąŔĚľîżÍ ÇĂ·ąŔĚľîŔÇ °ř°ÝŔş µĄąĚÁö °¨ĽŇ 

  00318	8b 43 04	 mov	 eax, DWORD PTR [ebx+4]
  0031b	8d 73 04	 lea	 esi, DWORD PTR [ebx+4]
  0031e	83 b8 30 02 00
	00 00		 cmp	 DWORD PTR [eax+560], 0
  00325	74 12		 je	 SHORT $LN31@GetDamageM

; 913  : 			factor *= 0.60f;

  00327	f3 0f 59 05 00
	00 00 00	 mulss	 xmm0, DWORD PTR __real@3f19999a
  0032f	f3 0f 11 45 08	 movss	 DWORD PTR _factor$1$[ebp], xmm0
  00334	f3 0f 11 45 fc	 movss	 DWORD PTR _factor$[ebp], xmm0
$LN31@GetDamageM:

; 914  : 
; 915  : 		if( pInfo->nParts == PARTS_LWEAPON )	// żŢĽŐŔş °ř°Ý·ÂŔĚ 75ÇÁ·Î·Î 

  00339	83 7b 10 09	 cmp	 DWORD PTR [ebx+16], 9
  0033d	75 12		 jne	 SHORT $LN103@GetDamageM

; 916  : 			factor *= 0.75f;

  0033f	f3 0f 59 05 00
	00 00 00	 mulss	 xmm0, DWORD PTR __real@3f400000
  00347	f3 0f 11 45 08	 movss	 DWORD PTR _factor$1$[ebp], xmm0
  0034c	f3 0f 11 45 fc	 movss	 DWORD PTR _factor$[ebp], xmm0
$LN103@GetDamageM:

; 917  : 	}
; 918  : 
; 919  : 	if( pInfo->pAttacker->IsPlayer() )

  00351	8b 03		 mov	 eax, DWORD PTR [ebx]
  00353	83 b8 30 02 00
	00 00		 cmp	 DWORD PTR [eax+560], 0
  0035a	74 23		 je	 SHORT $LN104@GetDamageM

; 920  : 		if( pInfo->pDefender->GetAdjParam( DST_CHRSTATE ) & CHS_DOUBLE )		// ´őşíµĄąĚÁö »óĹÂ °É·Č´Ů

  0035c	8b 0e		 mov	 ecx, DWORD PTR [esi]
  0035e	6a 40		 push	 64			; 00000040H
  00360	e8 00 00 00 00	 call	 ?GetAdjParam@CMover@@QAEHH@Z ; CMover::GetAdjParam
  00365	a9 00 40 00 00	 test	 eax, 16384		; 00004000H
  0036a	74 13		 je	 SHORT $LN104@GetDamageM

; 921  : 			factor *= 2.0f;

  0036c	f3 0f 10 45 08	 movss	 xmm0, DWORD PTR _factor$1$[ebp]
  00371	f3 0f 58 c0	 addss	 xmm0, xmm0
  00375	f3 0f 11 45 08	 movss	 DWORD PTR _factor$1$[ebp], xmm0
  0037a	f3 0f 11 45 fc	 movss	 DWORD PTR _factor$[ebp], xmm0
$LN104@GetDamageM:

; 922  : 
; 923  : 	int nDelta = pInfo->pDefender->GetLevel() - pInfo->pAttacker->GetLevel(); 	

  0037f	8b 06		 mov	 eax, DWORD PTR [esi]
  00381	8b 0b		 mov	 ecx, DWORD PTR [ebx]
  00383	8b b8 d8 05 00
	00		 mov	 edi, DWORD PTR [eax+1496]
  00389	2b b9 d8 05 00
	00		 sub	 edi, DWORD PTR [ecx+1496]
; File C:\IAGOS\server\v18\Source\Source\_Common\Mover.h

; 1015 : 	BOOL			IsNPC()				{ return !m_bPlayer; }

  0038f	83 b9 30 02 00
	00 00		 cmp	 DWORD PTR [ecx+560], 0
; File C:\IAGOS\server\v18\Source\Source\_Common\MoverAttack.cpp

; 926  : 	if( pInfo->pAttacker->IsNPC() )

  00396	75 4d		 jne	 SHORT $LN6@GetDamageM
; File C:\IAGOS\server\v18\Source\Source\_Common\Mover.h

; 1020 : 	MoverProp*		GetProp() { return prj.GetMoverProp( m_dwIndex ); }	// °´ĂĽŔÇ ÇÁ·ÎĆŰĆĽ ľň±â 	

  00398	8b 81 74 01 00
	00		 mov	 eax, DWORD PTR [ecx+372]
; File C:\IAGOS\server\v18\Source\Source\_Common\Project.h

; 1406 : 	VERIFY_RANGE( nIndex, 0, m_nMoverPropSize, "GetMoverProp range_error", NULL );

  0039e	85 c0		 test	 eax, eax
  003a0	78 16		 js	 SHORT $LN76@GetDamageM
  003a2	3b 05 b4 01 00
	00		 cmp	 eax, DWORD PTR ?prj@@3VCProject@@A+436
  003a8	7d 0e		 jge	 SHORT $LN76@GetDamageM

; 1407 : 	return m_pPropMover + nIndex;

  003aa	69 c0 90 06 00
	00		 imul	 eax, eax, 1680
  003b0	03 05 b8 01 00
	00		 add	 eax, DWORD PTR ?prj@@3VCProject@@A+440
  003b6	eb 1d		 jmp	 SHORT $LN71@GetDamageM
$LN76@GetDamageM:

; 579  : 	LPCTSTR szErr = Error( _T( "%s min:%d, max:%d, index:%d" ), szMsg, nMin, nMax, nIndex ); 

  003b8	50		 push	 eax
  003b9	ff 35 b4 01 00
	00		 push	 DWORD PTR ?prj@@3VCProject@@A+436
  003bf	6a 00		 push	 0
  003c1	68 00 00 00 00	 push	 OFFSET ??_C@_0BJ@GKPOBPPI@GetMoverProp?5range_error@
  003c6	68 00 00 00 00	 push	 OFFSET ??_C@_0BM@HMFGHCP@?$CFs?5min?3?$CFd?0?5max?3?$CFd?0?5index?3?$CFd@
  003cb	e8 00 00 00 00	 call	 ?Error@@YAPBDPBDZZ	; Error
  003d0	83 c4 14	 add	 esp, 20			; 00000014H

; 1406 : 	VERIFY_RANGE( nIndex, 0, m_nMoverPropSize, "GetMoverProp range_error", NULL );

  003d3	33 c0		 xor	 eax, eax
$LN71@GetDamageM:
; File C:\IAGOS\server\v18\Source\Source\_Common\MoverAttack.cpp

; 929  : 		switch( dwClass )

  003d5	8b 80 94 00 00
	00		 mov	 eax, DWORD PTR [eax+148]
  003db	83 e8 07	 sub	 eax, 7
  003de	74 54		 je	 SHORT $LN99@GetDamageM
  003e0	83 e8 01	 sub	 eax, 1
  003e3	74 4f		 je	 SHORT $LN99@GetDamageM
$LN6@GetDamageM:

; 930  : 		{
; 931  : 		case RANK_GUARD:
; 932  : 		case RANK_SUPER:
; 933  : //		case RANK_MIDBOSS:		Áß°Łş¸˝şµéŔş ·ąş§Â÷ ĆäłÎĆĽ°ˇ ŔÖ´Â°Ô ¸ÂÁö ľĘłŞ ˝Í´Ů.
; 934  : 			nDelta = 0;
; 935  : 			break;
; 936  : 		}
; 937  : 	}
; 938  : 
; 939  : 	if( nDelta > 0 )

  003e5	85 ff		 test	 edi, edi
  003e7	7e 4b		 jle	 SHORT $LN99@GetDamageM
; File C:\IAGOS\server\v18\Source\Source\_Common\Mover.h

; 1015 : 	BOOL			IsNPC()				{ return !m_bPlayer; }

  003e9	8b 03		 mov	 eax, DWORD PTR [ebx]
  003eb	83 b8 30 02 00
	00 00		 cmp	 DWORD PTR [eax+560], 0
; File C:\IAGOS\server\v18\Source\Source\_Common\MoverAttack.cpp

; 942  : 		if( pInfo->pAttacker->IsNPC() || pInfo->pDefender->IsNPC() )

  003f2	74 0b		 je	 SHORT $LN40@GetDamageM
; File C:\IAGOS\server\v18\Source\Source\_Common\Mover.h

; 1015 : 	BOOL			IsNPC()				{ return !m_bPlayer; }

  003f4	8b 06		 mov	 eax, DWORD PTR [esi]
  003f6	83 b8 30 02 00
	00 00		 cmp	 DWORD PTR [eax+560], 0
; File C:\IAGOS\server\v18\Source\Source\_Common\MoverAttack.cpp

; 942  : 		if( pInfo->pAttacker->IsNPC() || pInfo->pDefender->IsNPC() )

  003fd	75 35		 jne	 SHORT $LN99@GetDamageM
$LN40@GetDamageM:

; 943  : 		{
; 944  : 			const int MAX_OVER_ATK = 16;
; 945  : 			nDelta = min( nDelta, (MAX_OVER_ATK-1) ); 

  003ff	b8 0f 00 00 00	 mov	 eax, 15			; 0000000fH
  00404	3b f8		 cmp	 edi, eax
  00406	0f 4c c7	 cmovl	 eax, edi
  00409	66 0f 6e c0	 movd	 xmm0, eax

; 946  : 			
; 947  : 			const double pi = 3.1415926535;
; 948  : 			double radian = ( pi * nDelta ) / (float)(MAX_OVER_ATK * 2);

  0040d	f3 0f e6 c0	 cvtdq2pd xmm0, xmm0
  00411	f2 0f 59 05 00
	00 00 00	 mulsd	 xmm0, QWORD PTR __real@400921fb54411744
  00419	f2 0f 59 05 00
	00 00 00	 mulsd	 xmm0, QWORD PTR __real@3fa0000000000000

; 949  : 			factor *= (float)cos( radian );

  00421	e8 00 00 00 00	 call	 __libm_sse2_cos_precise
  00426	f2 0f 5a c0	 cvtsd2ss xmm0, xmm0
  0042a	f3 0f 59 45 08	 mulss	 xmm0, DWORD PTR _factor$1$[ebp]
  0042f	f3 0f 11 45 fc	 movss	 DWORD PTR _factor$[ebp], xmm0
$LN99@GetDamageM:

; 950  : 		}
; 951  : #else //__PVPDEMAGE0608	//	9th PVP DEMAGE edit 
; 952  : 		if( pInfo->pAttacker->IsPlayer() && pInfo->pDefender->IsPlayer()/* && GetWorld()->GetID() == WI_WORLD_GUILDWAR */)	// ±ćµĺ´ëŔü¸ĘŔÎ°ˇ? && PVPŔÎ°ˇ?
; 953  : 		{
; 954  : 			nDelta = min( nDelta, 25 ); 
; 955  : 			factor *= 25.0f / (25.0f + nDelta*2);
; 956  : 		}
; 957  : 		else
; 958  : 		{
; 959  : 			const int MAX_OVER_ATK = 16;
; 960  : 			nDelta = min( nDelta, (MAX_OVER_ATK-1) ); 
; 961  : 			
; 962  : 			const double pi = 3.1415926535;
; 963  : 			double radian = ( pi * nDelta ) / (float)(MAX_OVER_ATK * 2);
; 964  : 			factor *= (float)cos( radian );
; 965  : 		}
; 966  : #endif	//__PVPDEMAGE0608	//	9th PVP DEMAGE edit 
; 967  : 	}
; 968  : 
; 969  : 	return factor;
; 970  : }

  00434	d9 45 fc	 fld	 DWORD PTR _factor$[ebp]
  00437	5f		 pop	 edi
  00438	5e		 pop	 esi
  00439	5b		 pop	 ebx
  0043a	8b e5		 mov	 esp, ebp
  0043c	5d		 pop	 ebp
  0043d	c2 04 00	 ret	 4
$LN97@GetDamageM:
  00440	00 00 00 00	 DD	 $LN21@GetDamageM
  00444	00 00 00 00	 DD	 $LN19@GetDamageM
  00448	00 00 00 00	 DD	 $LN23@GetDamageM
  0044c	00 00 00 00	 DD	 $LN17@GetDamageM
  00450	00 00 00 00	 DD	 $LN4@GetDamageM
$LN96@GetDamageM:
  00454	00		 DB	 0
  00455	04		 DB	 4
  00456	01		 DB	 1
  00457	04		 DB	 4
  00458	04		 DB	 4
  00459	04		 DB	 4
  0045a	04		 DB	 4
  0045b	04		 DB	 4
  0045c	04		 DB	 4
  0045d	04		 DB	 4
  0045e	04		 DB	 4
  0045f	04		 DB	 4
  00460	04		 DB	 4
  00461	04		 DB	 4
  00462	04		 DB	 4
  00463	04		 DB	 4
  00464	04		 DB	 4
  00465	04		 DB	 4
  00466	02		 DB	 2
  00467	04		 DB	 4
  00468	03		 DB	 3
?GetDamageMultiplier@CMover@@QAEMPAUATTACK_INFO@@@Z ENDP ; CMover::GetDamageMultiplier
_TEXT	ENDS
; Function compile flags: /Ogtp
; File C:\IAGOS\server\v18\Source\Source\_Common\MoverAttack.cpp
;	COMDAT ?GetCastingTime@CMover@@QAEHH@Z
_TEXT	SEGMENT
_nCastingTime$ = 8					; size = 4
?GetCastingTime@CMover@@QAEHH@Z PROC			; CMover::GetCastingTime, COMDAT
; _this$ = ecx

; 202  : {

  00000	55		 push	 ebp
  00001	8b ec		 mov	 ebp, esp
  00003	56		 push	 esi

; 203  : 	int nTime	= nCastingTime - nCastingTime * GetParam( DST_SPELL_RATE, 0 ) / 100;

  00004	6a 00		 push	 0
  00006	6a 4b		 push	 75			; 0000004bH
  00008	e8 00 00 00 00	 call	 ?GetParam@CMover@@QAEHHH@Z ; CMover::GetParam
  0000d	8b 75 08	 mov	 esi, DWORD PTR _nCastingTime$[ebp]
  00010	8b c8		 mov	 ecx, eax
  00012	0f af ce	 imul	 ecx, esi
  00015	b8 1f 85 eb 51	 mov	 eax, 1374389535		; 51eb851fH
  0001a	f7 e9		 imul	 ecx
  0001c	c1 fa 05	 sar	 edx, 5
  0001f	8b c2		 mov	 eax, edx
  00021	c1 e8 1f	 shr	 eax, 31			; 0000001fH
  00024	03 c2		 add	 eax, edx
  00026	2b f0		 sub	 esi, eax

; 204  : #ifdef __JEFF_11
; 205  : 	if( nTime < 0 )
; 206  : 		nTime	= 0;
; 207  : #endif	// __JEFF_11
; 208  : 	return nTime;

  00028	b8 00 00 00 00	 mov	 eax, 0
  0002d	0f 49 c6	 cmovns	 eax, esi
  00030	5e		 pop	 esi

; 209  : }

  00031	5d		 pop	 ebp
  00032	c2 04 00	 ret	 4
?GetCastingTime@CMover@@QAEHH@Z ENDP			; CMover::GetCastingTime
_TEXT	ENDS
; Function compile flags: /Ogtp
; File C:\IAGOS\server\v18\Source\Source\_Common\MoverAttack.cpp
;	COMDAT ?GetCastingAniSpeed@CMover@@QAEMXZ
_TEXT	SEGMENT
tv131 = -4						; size = 4
?GetCastingAniSpeed@CMover@@QAEMXZ PROC			; CMover::GetCastingAniSpeed, COMDAT
; _this$ = ecx

; 192  : {

  00000	55		 push	 ebp
  00001	8b ec		 mov	 ebp, esp
  00003	51		 push	 ecx

; 193  : 	float fSpeed	= 1.0F + GetParam( DST_SPELL_RATE, 0 ) / 100.0F;

  00004	6a 00		 push	 0
  00006	6a 4b		 push	 75			; 0000004bH
  00008	e8 00 00 00 00	 call	 ?GetParam@CMover@@QAEHHH@Z ; CMover::GetParam

; 194  : 	if( fSpeed < 0.1f )

  0000d	f3 0f 10 0d 00
	00 00 00	 movss	 xmm1, DWORD PTR __real@3dcccccd
  00015	66 0f 6e c0	 movd	 xmm0, eax
  00019	0f 5b c0	 cvtdq2ps xmm0, xmm0
  0001c	f3 0f 5e 05 00
	00 00 00	 divss	 xmm0, DWORD PTR __real@42c80000
  00024	f3 0f 58 05 00
	00 00 00	 addss	 xmm0, DWORD PTR __real@3f800000
  0002c	f3 0f 5f c8	 maxss	 xmm1, xmm0

; 195  : 		fSpeed = 0.1f;
; 196  : 	if( fSpeed > 2.0f )

  00030	f3 0f 10 05 00
	00 00 00	 movss	 xmm0, DWORD PTR __real@40000000
  00038	f3 0f 5d c1	 minss	 xmm0, xmm1

; 197  : 		fSpeed = 2.0f;
; 198  : 	return fSpeed;

  0003c	f3 0f 11 45 fc	 movss	 DWORD PTR tv131[ebp], xmm0
  00041	d9 45 fc	 fld	 DWORD PTR tv131[ebp]

; 199  : }

  00044	8b e5		 mov	 esp, ebp
  00046	5d		 pop	 ebp
  00047	c3		 ret	 0
?GetCastingAniSpeed@CMover@@QAEMXZ ENDP			; CMover::GetCastingAniSpeed
_TEXT	ENDS
; Function compile flags: /Ogtp
; File C:\IAGOS\server\v18\Source\Source\_Common\MoverAttack.cpp
; File C:\IAGOS\server\v18\Source\Source\_Common\Mover.h
; File C:\IAGOS\server\v18\Source\Source\_Common\MoverAttack.cpp
;	COMDAT ?GetAttackSpeed@CMover@@QAEMXZ
_TEXT	SEGMENT
tv198 = -8						; size = 4
tv211 = -8						; size = 4
_fSpeed$ = -4						; size = 4
_fItem$1$ = -4						; size = 4
tv217 = -4						; size = 4
tv221 = -4						; size = 4
?GetAttackSpeed@CMover@@QAEMXZ PROC			; CMover::GetAttackSpeed, COMDAT
; _this$ = ecx

; 157  : {

  00000	55		 push	 ebp
  00001	8b ec		 mov	 ebp, esp
  00003	83 ec 08	 sub	 esp, 8

; 158  : 	float fSpeed = 1.0f;
; 159  : 	float fItem = 1.0f;

  00006	f3 0f 10 05 00
	00 00 00	 movss	 xmm0, DWORD PTR __real@3f800000
  0000e	53		 push	 ebx

; 160  : 
; 161  : 	ItemProp* pWeaponProp = GetActiveHandItemProp();

  0000f	6a 0a		 push	 10			; 0000000aH
  00011	8b d9		 mov	 ebx, ecx
  00013	f3 0f 11 45 fc	 movss	 DWORD PTR _fItem$1$[ebp], xmm0
  00018	e8 00 00 00 00	 call	 ?GetActiveHandItemProp@CMover@@QAEPAUItemProp@@H@Z ; CMover::GetActiveHandItemProp

; 162  : 	if( pWeaponProp )

  0001d	85 c0		 test	 eax, eax
  0001f	74 0d		 je	 SHORT $LN2@GetAttackS

; 163  : 		fItem = pWeaponProp->fAttackSpeed;

  00021	f3 0f 10 80 30
	01 00 00	 movss	 xmm0, DWORD PTR [eax+304]
  00029	f3 0f 11 45 fc	 movss	 DWORD PTR _fItem$1$[ebp], xmm0
$LN2@GetAttackS:

; 164  : 
; 165  : 	JobProp* pProperty = prj.GetJobProp( GetJob() ); 

  0002e	56		 push	 esi
  0002f	57		 push	 edi
  00030	8b cb		 mov	 ecx, ebx
  00032	e8 00 00 00 00	 call	 ?GetJob@CMover@@QAEHXZ	; CMover::GetJob
  00037	50		 push	 eax
  00038	b9 00 00 00 00	 mov	 ecx, OFFSET ?prj@@3VCProject@@A ; prj
  0003d	e8 00 00 00 00	 call	 ?GetJobProp@CProject@@QAEPAUJobProp@@H@Z ; CProject::GetJobProp
; File C:\IAGOS\server\v18\Source\Source\_Common\Mover.h

; 1133 : 	int				GetLevel() { return m_nLevel; }

  00042	8b b3 d8 05 00
	00		 mov	 esi, DWORD PTR [ebx+1496]
; File C:\IAGOS\server\v18\Source\Source\_Common\MoverAttack.cpp

; 170  : 	int A = int( pProperty->fAttackSpeed + ( fItem * ( 4.0f * GetDex() + GetLevel() / 8.0f ) ) - 3.0f );

  00048	8b cb		 mov	 ecx, ebx
  0004a	8b f8		 mov	 edi, eax
  0004c	e8 00 00 00 00	 call	 ?GetDex@CMover@@QAEHXZ	; CMover::GetDex
  00051	66 0f 6e c6	 movd	 xmm0, esi
  00055	0f 5b c0	 cvtdq2ps xmm0, xmm0
  00058	66 0f 6e c8	 movd	 xmm1, eax

; 171  : //	TRACE( "A =%d\n", A );
; 172  : 	if( 187.5f <= A )

  0005c	b8 bb 00 00 00	 mov	 eax, 187		; 000000bbH
  00061	f3 0f 59 05 00
	00 00 00	 mulss	 xmm0, DWORD PTR __real@3e000000
  00069	0f 5b c9	 cvtdq2ps xmm1, xmm1
  0006c	f3 0f 59 0d 00
	00 00 00	 mulss	 xmm1, DWORD PTR __real@40800000
  00074	f3 0f 58 c8	 addss	 xmm1, xmm0
  00078	f3 0f 59 4d fc	 mulss	 xmm1, DWORD PTR _fItem$1$[ebp]
  0007d	f3 0f 58 0f	 addss	 xmm1, DWORD PTR [edi]
  00081	f3 0f 5c 0d 00
	00 00 00	 subss	 xmm1, DWORD PTR __real@40400000
  00089	f3 0f 2c f1	 cvttss2si esi, xmm1
  0008d	66 0f 6e c6	 movd	 xmm0, esi
  00091	0f 5b c0	 cvtdq2ps xmm0, xmm0
  00094	0f 2f 05 00 00
	00 00		 comiss	 xmm0, DWORD PTR __real@433b8000
  0009b	0f 43 f0	 cmovae	 esi, eax

; 173  : 		A	= (int)( 187.5f );
; 174  : 	fSpeed = ( ( 50.0f / (200.f - A) ) / 2.0f ) + GetAttackSpeedPlusValue( A );

  0009e	56		 push	 esi
  0009f	e8 00 00 00 00	 call	 ?GetAttackSpeedPlusValue@@YAMH@Z ; GetAttackSpeedPlusValue
  000a4	f3 0f 10 0d 00
	00 00 00	 movss	 xmm1, DWORD PTR __real@43480000
  000ac	83 c4 04	 add	 esp, 4
  000af	66 0f 6e c6	 movd	 xmm0, esi

; 175  : 
; 176  : 	float fDstParam = GetParam( DST_ATTACKSPEED, 0 ) / 1000.0f;

  000b3	8b cb		 mov	 ecx, ebx
  000b5	0f 5b c0	 cvtdq2ps xmm0, xmm0
  000b8	6a 00		 push	 0
  000ba	6a 18		 push	 24			; 00000018H
  000bc	f3 0f 5c c8	 subss	 xmm1, xmm0
  000c0	f3 0f 10 05 00
	00 00 00	 movss	 xmm0, DWORD PTR __real@42480000
  000c8	f3 0f 5e c1	 divss	 xmm0, xmm1
  000cc	f3 0f 59 05 00
	00 00 00	 mulss	 xmm0, DWORD PTR __real@3f000000
  000d4	f3 0f 11 45 fc	 movss	 DWORD PTR tv221[ebp], xmm0
  000d9	d8 45 fc	 fadd	 DWORD PTR tv221[ebp]

; 177  : 	fSpeed += fDstParam;

  000dc	d9 5d f8	 fstp	 DWORD PTR tv198[ebp]
  000df	e8 00 00 00 00	 call	 ?GetParam@CMover@@QAEHHH@Z ; CMover::GetParam

; 178  : 	
; 179  : 	if( 0 < GetParam( DST_ATTACKSPEED_RATE, 0 ) )

  000e4	6a 00		 push	 0
  000e6	6a 33		 push	 51			; 00000033H
  000e8	8b cb		 mov	 ecx, ebx
  000ea	66 0f 6e c0	 movd	 xmm0, eax
  000ee	0f 5b c0	 cvtdq2ps xmm0, xmm0
  000f1	f3 0f 5e 05 00
	00 00 00	 divss	 xmm0, DWORD PTR __real@447a0000
  000f9	f3 0f 11 45 fc	 movss	 DWORD PTR tv217[ebp], xmm0
  000fe	d9 45 fc	 fld	 DWORD PTR tv217[ebp]
  00101	d8 45 f8	 fadd	 DWORD PTR tv198[ebp]
  00104	d9 5d fc	 fstp	 DWORD PTR _fSpeed$[ebp]
  00107	e8 00 00 00 00	 call	 ?GetParam@CMover@@QAEHHH@Z ; CMover::GetParam
  0010c	5f		 pop	 edi
  0010d	5e		 pop	 esi
  0010e	85 c0		 test	 eax, eax
  00110	7e 26		 jle	 SHORT $LN10@GetAttackS

; 180  : 		fSpeed = fSpeed + ( fSpeed * GetParam( DST_ATTACKSPEED_RATE, 0 ) / 100 );

  00112	6a 00		 push	 0
  00114	6a 33		 push	 51			; 00000033H
  00116	8b cb		 mov	 ecx, ebx
  00118	e8 00 00 00 00	 call	 ?GetParam@CMover@@QAEHHH@Z ; CMover::GetParam
  0011d	66 0f 6e d0	 movd	 xmm2, eax
  00121	0f 5b d2	 cvtdq2ps xmm2, xmm2
  00124	f3 0f 59 55 fc	 mulss	 xmm2, DWORD PTR _fSpeed$[ebp]
  00129	f3 0f 5e 15 00
	00 00 00	 divss	 xmm2, DWORD PTR __real@42c80000
  00131	f3 0f 58 55 fc	 addss	 xmm2, DWORD PTR _fSpeed$[ebp]
  00136	eb 05		 jmp	 SHORT $LN4@GetAttackS
$LN10@GetAttackS:

; 178  : 	
; 179  : 	if( 0 < GetParam( DST_ATTACKSPEED_RATE, 0 ) )

  00138	f3 0f 10 55 fc	 movss	 xmm2, DWORD PTR _fSpeed$[ebp]
$LN4@GetAttackS:

; 181  : 	
; 182  : 	if( fSpeed < 0.1f )

  0013d	f3 0f 10 0d 00
	00 00 00	 movss	 xmm1, DWORD PTR __real@3dcccccd

; 183  : 		fSpeed = 0.1f;
; 184  : 	if( fSpeed > 2.0f )

  00145	f3 0f 10 05 00
	00 00 00	 movss	 xmm0, DWORD PTR __real@40000000
  0014d	f3 0f 5f ca	 maxss	 xmm1, xmm2

; 185  : 		fSpeed = 2.0f;
; 186  : 	//TRACE( "%f\n", fSpeed );
; 187  : 
; 188  : 	return fSpeed;

  00151	5b		 pop	 ebx
  00152	f3 0f 5d c1	 minss	 xmm0, xmm1
  00156	f3 0f 11 45 f8	 movss	 DWORD PTR tv211[ebp], xmm0
  0015b	d9 45 f8	 fld	 DWORD PTR tv211[ebp]

; 189  : }

  0015e	8b e5		 mov	 esp, ebp
  00160	5d		 pop	 ebp
  00161	c3		 ret	 0
?GetAttackSpeed@CMover@@QAEMXZ ENDP			; CMover::GetAttackSpeed
_TEXT	ENDS
; Function compile flags: /Ogtp
; File C:\IAGOS\server\v18\Source\Source\_Common\MoverAttack.cpp
; File C:\IAGOS\server\v18\Source\Source\_Common\Mover.h
; File C:\IAGOS\server\v18\Source\Source\_Common\Project.h
; File C:\IAGOS\server\v18\Source\Source\_Common\MoverAttack.cpp
; File C:\IAGOS\server\v18\Source\Source\_Common\Project.h
; File C:\IAGOS\server\v18\Source\Source\_Common\MoverAttack.cpp
;	COMDAT ?GetHR@CMover@@QAEHXZ
_TEXT	SEGMENT
?GetHR@CMover@@QAEHXZ PROC				; CMover::GetHR, COMDAT
; _this$ = ecx

; 235  : 	if( IsPlayer() )

  00000	83 b9 30 02 00
	00 00		 cmp	 DWORD PTR [ecx+560], 0
  00007	0f 85 00 00 00
	00		 jne	 ?GetDex@CMover@@QAEHXZ	; CMover::GetDex
; File C:\IAGOS\server\v18\Source\Source\_Common\Mover.h

; 1020 : 	MoverProp*		GetProp() { return prj.GetMoverProp( m_dwIndex ); }	// °´ĂĽŔÇ ÇÁ·ÎĆŰĆĽ ľň±â 	

  0000d	8b 81 74 01 00
	00		 mov	 eax, DWORD PTR [ecx+372]
; File C:\IAGOS\server\v18\Source\Source\_Common\Project.h

; 1406 : 	VERIFY_RANGE( nIndex, 0, m_nMoverPropSize, "GetMoverProp range_error", NULL );

  00013	85 c0		 test	 eax, eax
  00015	8b 0d b4 01 00
	00		 mov	 ecx, DWORD PTR ?prj@@3VCProject@@A+436
  0001b	78 14		 js	 SHORT $LN12@GetHR
  0001d	3b c1		 cmp	 eax, ecx
  0001f	7d 10		 jge	 SHORT $LN12@GetHR

; 1407 : 	return m_pPropMover + nIndex;

  00021	69 c0 90 06 00
	00		 imul	 eax, eax, 1680
  00027	03 05 b8 01 00
	00		 add	 eax, DWORD PTR ?prj@@3VCProject@@A+440
; File C:\IAGOS\server\v18\Source\Source\_Common\MoverAttack.cpp

; 238  : 		return GetProp()->dwHR;

  0002d	8b 40 74	 mov	 eax, DWORD PTR [eax+116]

; 239  : }

  00030	c3		 ret	 0
$LN12@GetHR:
; File C:\IAGOS\server\v18\Source\Source\_Common\Project.h

; 579  : 	LPCTSTR szErr = Error( _T( "%s min:%d, max:%d, index:%d" ), szMsg, nMin, nMax, nIndex ); 

  00031	50		 push	 eax
  00032	51		 push	 ecx
  00033	6a 00		 push	 0
  00035	68 00 00 00 00	 push	 OFFSET ??_C@_0BJ@GKPOBPPI@GetMoverProp?5range_error@
  0003a	68 00 00 00 00	 push	 OFFSET ??_C@_0BM@HMFGHCP@?$CFs?5min?3?$CFd?0?5max?3?$CFd?0?5index?3?$CFd@
  0003f	e8 00 00 00 00	 call	 ?Error@@YAPBDPBDZZ	; Error

; 1406 : 	VERIFY_RANGE( nIndex, 0, m_nMoverPropSize, "GetMoverProp range_error", NULL );

  00044	33 c0		 xor	 eax, eax

; 579  : 	LPCTSTR szErr = Error( _T( "%s min:%d, max:%d, index:%d" ), szMsg, nMin, nMax, nIndex ); 

  00046	83 c4 14	 add	 esp, 20			; 00000014H
; File C:\IAGOS\server\v18\Source\Source\_Common\MoverAttack.cpp

; 238  : 		return GetProp()->dwHR;

  00049	8b 40 74	 mov	 eax, DWORD PTR [eax+116]

; 239  : }

  0004c	c3		 ret	 0
?GetHR@CMover@@QAEHXZ ENDP				; CMover::GetHR
_TEXT	ENDS
; Function compile flags: /Ogtp
; File C:\IAGOS\server\v18\Source\Source\_Common\MoverAttack.cpp
; File C:\IAGOS\server\v18\Source\Source\_Common\Obj.h
; File C:\IAGOS\server\v18\Source\Source\_Common\MoverAttack.cpp
; File C:\IAGOS\server\v18\Source\Source\_Common\Obj.h
; File C:\IAGOS\server\v18\Source\Source\_Common\MoverAttack.cpp
;	COMDAT ?ReSetDuelTime@CMover@@QAEXPAV1@0@Z
_TEXT	SEGMENT
_pAttacker$ = 8						; size = 4
_pDefender$ = 12					; size = 4
?ReSetDuelTime@CMover@@QAEXPAV1@0@Z PROC		; CMover::ReSetDuelTime, COMDAT
; _this$ = ecx

; 1615 : {

  00000	55		 push	 ebp
  00001	8b ec		 mov	 ebp, esp
  00003	53		 push	 ebx
  00004	56		 push	 esi
  00005	57		 push	 edi

; 1616 : 	if( pDefender->m_nDuel == 1 && pAttacker->m_nDuel == 1 
; 1617 : 		&& pDefender->m_idDuelOther == pAttacker->GetId() && pAttacker->m_idDuelOther == pDefender->GetId() )

  00006	8b 7d 0c	 mov	 edi, DWORD PTR _pDefender$[ebp]
  00009	8b 87 3c 07 00
	00		 mov	 eax, DWORD PTR [edi+1852]
  0000f	83 f8 01	 cmp	 eax, 1
  00012	75 5a		 jne	 SHORT $LN2@ReSetDuelT
  00014	8b 5d 08	 mov	 ebx, DWORD PTR _pAttacker$[ebp]
  00017	39 83 3c 07 00
	00		 cmp	 DWORD PTR [ebx+1852], eax
  0001d	0f 85 e8 00 00
	00		 jne	 $LN8@ReSetDuelT
  00023	8b 87 40 07 00
	00		 mov	 eax, DWORD PTR [edi+1856]
  00029	3b 83 bc 01 00
	00		 cmp	 eax, DWORD PTR [ebx+444]
  0002f	0f 85 d6 00 00
	00		 jne	 $LN8@ReSetDuelT
  00035	8b 83 40 07 00
	00		 mov	 eax, DWORD PTR [ebx+1856]
  0003b	3b 87 bc 01 00
	00		 cmp	 eax, DWORD PTR [edi+444]
  00041	0f 85 c4 00 00
	00		 jne	 $LN8@ReSetDuelT

; 1618 : 	{
; 1619 : 		pDefender->m_dwTickEndDuel = ::timeGetTime() + NEXT_TICK_ENDDUEL;

  00047	8b 35 00 00 00
	00		 mov	 esi, DWORD PTR __imp__timeGetTime@0
  0004d	ff d6		 call	 esi
  0004f	05 20 bf 02 00	 add	 eax, 180000		; 0002bf20H
  00054	89 87 34 07 00
	00		 mov	 DWORD PTR [edi+1844], eax

; 1620 : 		pAttacker->m_dwTickEndDuel = ::timeGetTime() + NEXT_TICK_ENDDUEL;

  0005a	ff d6		 call	 esi
  0005c	5f		 pop	 edi
  0005d	05 20 bf 02 00	 add	 eax, 180000		; 0002bf20H

; 1641 : 		}
; 1642 : 	}
; 1643 : }

  00062	5e		 pop	 esi
  00063	89 83 34 07 00
	00		 mov	 DWORD PTR [ebx+1844], eax
  00069	5b		 pop	 ebx
  0006a	5d		 pop	 ebp
  0006b	c2 08 00	 ret	 8
$LN2@ReSetDuelT:

; 1621 : 	}
; 1622 : 	else if( pDefender->m_nDuel == 2 && pAttacker->m_nDuel == 2 
; 1623 : 		&& pDefender->m_idDuelParty == pAttacker->m_idparty && pAttacker->m_idDuelParty == pDefender->m_idparty )

  0006e	83 f8 02	 cmp	 eax, 2
  00071	0f 85 94 00 00
	00		 jne	 $LN8@ReSetDuelT
  00077	8b 75 08	 mov	 esi, DWORD PTR _pAttacker$[ebp]
  0007a	39 86 3c 07 00
	00		 cmp	 DWORD PTR [esi+1852], eax
  00080	0f 85 85 00 00
	00		 jne	 $LN8@ReSetDuelT
  00086	8b 87 44 07 00
	00		 mov	 eax, DWORD PTR [edi+1860]
  0008c	3b 86 10 07 00
	00		 cmp	 eax, DWORD PTR [esi+1808]
  00092	75 77		 jne	 SHORT $LN8@ReSetDuelT
  00094	8b 87 10 07 00
	00		 mov	 eax, DWORD PTR [edi+1808]
  0009a	39 86 44 07 00
	00		 cmp	 DWORD PTR [esi+1860], eax
  000a0	75 69		 jne	 SHORT $LN8@ReSetDuelT

; 1624 : 	{
; 1625 : 		CMover* pLeader;
; 1626 : 		CParty* pParty	= g_PartyMng.GetParty( pDefender->m_idparty );

  000a2	50		 push	 eax
  000a3	b9 00 00 00 00	 mov	 ecx, OFFSET ?g_PartyMng@@3VCPartyMng@@A ; g_PartyMng
  000a8	e8 00 00 00 00	 call	 ?GetParty@CPartyMng@@QAEPAVCParty@@K@Z ; CPartyMng::GetParty

; 1627 : 		
; 1628 : 		if( pParty )

  000ad	8b 1d 00 00 00
	00		 mov	 ebx, DWORD PTR __imp__timeGetTime@0
  000b3	85 c0		 test	 eax, eax
  000b5	74 20		 je	 SHORT $LN6@ReSetDuelT

; 1629 : 		{
; 1630 : 			pLeader = pParty->GetLeader();

  000b7	8b c8		 mov	 ecx, eax
  000b9	e8 00 00 00 00	 call	 ?GetLeader@CParty@@QAEPAVCMover@@XZ ; CParty::GetLeader
  000be	8b f8		 mov	 edi, eax
; File C:\IAGOS\server\v18\Source\Source\_Common\Obj.h

; 327  : 	return pObj && ( pObj->IsDelete() == FALSE ); 

  000c0	85 ff		 test	 edi, edi
  000c2	74 13		 je	 SHORT $LN6@ReSetDuelT

; 180  : 	BOOL			IsDelete()	{ return (m_dwFlags & OBJ_FLAG_DELETE);  }

  000c4	f6 47 04 01	 test	 BYTE PTR [edi+4], 1

; 327  : 	return pObj && ( pObj->IsDelete() == FALSE ); 

  000c8	75 0d		 jne	 SHORT $LN6@ReSetDuelT
; File C:\IAGOS\server\v18\Source\Source\_Common\MoverAttack.cpp

; 1632 : 				pLeader->m_dwTickEndDuel = ::timeGetTime() + NEXT_TICK_ENDDUEL;

  000ca	ff d3		 call	 ebx
  000cc	05 20 bf 02 00	 add	 eax, 180000		; 0002bf20H
  000d1	89 87 34 07 00
	00		 mov	 DWORD PTR [edi+1844], eax
$LN6@ReSetDuelT:

; 1633 : 		}
; 1634 : 		
; 1635 : 		CParty* pParty2		= g_PartyMng.GetParty( pAttacker->m_idDuelParty );

  000d7	ff b6 44 07 00
	00		 push	 DWORD PTR [esi+1860]
  000dd	b9 00 00 00 00	 mov	 ecx, OFFSET ?g_PartyMng@@3VCPartyMng@@A ; g_PartyMng
  000e2	e8 00 00 00 00	 call	 ?GetParty@CPartyMng@@QAEPAVCParty@@K@Z ; CPartyMng::GetParty

; 1636 : 		if( pParty2 )

  000e7	85 c0		 test	 eax, eax
  000e9	74 20		 je	 SHORT $LN8@ReSetDuelT

; 1637 : 		{
; 1638 : 			pLeader = pParty2->GetLeader();

  000eb	8b c8		 mov	 ecx, eax
  000ed	e8 00 00 00 00	 call	 ?GetLeader@CParty@@QAEPAVCMover@@XZ ; CParty::GetLeader
  000f2	8b f0		 mov	 esi, eax
; File C:\IAGOS\server\v18\Source\Source\_Common\Obj.h

; 327  : 	return pObj && ( pObj->IsDelete() == FALSE ); 

  000f4	85 f6		 test	 esi, esi
  000f6	74 13		 je	 SHORT $LN8@ReSetDuelT

; 180  : 	BOOL			IsDelete()	{ return (m_dwFlags & OBJ_FLAG_DELETE);  }

  000f8	f6 46 04 01	 test	 BYTE PTR [esi+4], 1

; 327  : 	return pObj && ( pObj->IsDelete() == FALSE ); 

  000fc	75 0d		 jne	 SHORT $LN8@ReSetDuelT
; File C:\IAGOS\server\v18\Source\Source\_Common\MoverAttack.cpp

; 1640 : 				pLeader->m_dwTickEndDuel = ::timeGetTime() + NEXT_TICK_ENDDUEL;

  000fe	ff d3		 call	 ebx
  00100	05 20 bf 02 00	 add	 eax, 180000		; 0002bf20H
  00105	89 86 34 07 00
	00		 mov	 DWORD PTR [esi+1844], eax
$LN8@ReSetDuelT:

; 1641 : 		}
; 1642 : 	}
; 1643 : }

  0010b	5f		 pop	 edi
  0010c	5e		 pop	 esi
  0010d	5b		 pop	 ebx
  0010e	5d		 pop	 ebp
  0010f	c2 08 00	 ret	 8
?ReSetDuelTime@CMover@@QAEXPAV1@0@Z ENDP		; CMover::ReSetDuelTime
_TEXT	ENDS
; Function compile flags: /Ogtp
; File C:\IAGOS\server\v18\Source\Source\_Common\MoverAttack.cpp
; File C:\IAGOS\server\v18\Source\Source\_Common\Obj.h
; File C:\IAGOS\server\v18\Source\Source\_AIInterface\Action.h
; File C:\IAGOS\server\v18\Source\Source\_Common\Mover.h
; File C:\IAGOS\server\v18\Source\Source\_AIInterface\Action.h
; File C:\IAGOS\server\v18\Source\Source\_Common\Mover.h
; File C:\IAGOS\server\v18\Source\Source\_Common\MoverAttack.cpp
;	COMDAT ?GetHitType2@CMover@@QAE?AW4HITTYPE@@PAV1@HH@Z
_TEXT	SEGMENT
_pMover$ = 8						; size = 4
_bTarget$ = 12						; size = 4
_bGood$ = 16						; size = 4
?GetHitType2@CMover@@QAE?AW4HITTYPE@@PAV1@HH@Z PROC	; CMover::GetHitType2, COMDAT
; _this$ = ecx

; 1758 : {

  00000	55		 push	 ebp
  00001	8b ec		 mov	 ebp, esp
  00003	56		 push	 esi
  00004	8b f1		 mov	 esi, ecx
  00006	57		 push	 edi
; File C:\IAGOS\server\v18\Source\Source\_Common\Obj.h

; 327  : 	return pObj && ( pObj->IsDelete() == FALSE ); 

  00007	85 f6		 test	 esi, esi
  00009	0f 84 58 01 00
	00		 je	 $LN3@GetHitType

; 180  : 	BOOL			IsDelete()	{ return (m_dwFlags & OBJ_FLAG_DELETE);  }

  0000f	f6 46 04 01	 test	 BYTE PTR [esi+4], 1

; 327  : 	return pObj && ( pObj->IsDelete() == FALSE ); 

  00013	0f 85 4e 01 00
	00		 jne	 $LN3@GetHitType
  00019	8b 7d 08	 mov	 edi, DWORD PTR _pMover$[ebp]
  0001c	85 ff		 test	 edi, edi
  0001e	0f 84 43 01 00
	00		 je	 $LN3@GetHitType

; 180  : 	BOOL			IsDelete()	{ return (m_dwFlags & OBJ_FLAG_DELETE);  }

  00024	f6 47 04 01	 test	 BYTE PTR [edi+4], 1

; 327  : 	return pObj && ( pObj->IsDelete() == FALSE ); 

  00028	0f 85 39 01 00
	00		 jne	 $LN3@GetHitType
; File C:\IAGOS\server\v18\Source\Source\_AIInterface\Action.h

; 310  : 	BOOL			IsDie() { return (m_dwState & OBJSTA_DIE_ALL) ? TRUE : FALSE; }

  0002e	8b 86 38 02 00
	00		 mov	 eax, DWORD PTR [esi+568]
; File C:\IAGOS\server\v18\Source\Source\_Common\Mover.h

; 1250 : 	BOOL			IsDie() { return m_pActMover->IsDie() || m_nHitPoint == 0; }

  00034	f7 40 04 00 00
	00 08		 test	 DWORD PTR [eax+4], 134217728 ; 08000000H
  0003b	0f 85 1e 01 00
	00		 jne	 $LN5@GetHitType
  00041	83 be f8 05 00
	00 00		 cmp	 DWORD PTR [esi+1528], 0
  00048	0f 84 11 01 00
	00		 je	 $LN5@GetHitType
; File C:\IAGOS\server\v18\Source\Source\_AIInterface\Action.h

; 310  : 	BOOL			IsDie() { return (m_dwState & OBJSTA_DIE_ALL) ? TRUE : FALSE; }

  0004e	8b 8f 38 02 00
	00		 mov	 ecx, DWORD PTR [edi+568]
; File C:\IAGOS\server\v18\Source\Source\_Common\Mover.h

; 1250 : 	BOOL			IsDie() { return m_pActMover->IsDie() || m_nHitPoint == 0; }

  00054	f7 41 04 00 00
	00 08		 test	 DWORD PTR [ecx+4], 134217728 ; 08000000H
  0005b	0f 85 fe 00 00
	00		 jne	 $LN5@GetHitType
  00061	83 bf f8 05 00
	00 00		 cmp	 DWORD PTR [edi+1528], 0
  00068	0f 84 f1 00 00
	00		 je	 $LN5@GetHitType
; File C:\IAGOS\server\v18\Source\Source\_Common\MoverAttack.cpp

; 1763 : 	if( m_nDead || pMover->m_nDead )					// Á×ŔşČÄ ą«Ŕű»óĹÂ

  0006e	83 be ac 0d 00
	00 00		 cmp	 DWORD PTR [esi+3500], 0
  00075	0f 85 ec 00 00
	00		 jne	 $LN3@GetHitType
  0007b	83 bf ac 0d 00
	00 00		 cmp	 DWORD PTR [edi+3500], 0
  00082	0f 85 df 00 00
	00		 jne	 $LN3@GetHitType

; 1764 : 		return HITTYPE_GENERIC;
; 1765 : 
; 1766 : 	if( IsPlayer() && pMover->IsPlayer() )

  00088	83 be 30 02 00
	00 00		 cmp	 DWORD PTR [esi+560], 0
  0008f	0f 84 d2 00 00
	00		 je	 $LN3@GetHitType
  00095	83 bf 30 02 00
	00 00		 cmp	 DWORD PTR [edi+560], 0
  0009c	0f 84 c5 00 00
	00		 je	 $LN3@GetHitType

; 1767 : 	{
; 1768 : #if __VER < 8 // 8Â÷ µŕľó 061226 ma
; 1769 : 		if( !g_eLocal.GetState( EVE_18 ) )
; 1770 : 			return HITTYPE_FAIL;
; 1771 : #endif // __VER >= 8 // 8Â÷ µŕľó 061226 ma
; 1772 : 
; 1773 : 		if( m_pActMover->IsFly() || pMover->m_pActMover->IsFly() )	// °řÁßżˇ ŔÖŔ¸¸é şŇ°ˇ 

  000a2	f6 40 08 08	 test	 BYTE PTR [eax+8], 8
  000a6	0f 85 b3 00 00
	00		 jne	 $LN5@GetHitType
  000ac	f6 41 08 08	 test	 BYTE PTR [ecx+8], 8
  000b0	0f 85 a9 00 00
	00		 jne	 $LN5@GetHitType

; 1774 : 			return HITTYPE_FAIL;
; 1775 : 		if( IsPVPTarget( pMover ) )

  000b6	57		 push	 edi
  000b7	8b ce		 mov	 ecx, esi
  000b9	e8 00 00 00 00	 call	 ?IsPVPTarget@CMover@@QAEHPAV1@@Z ; CMover::IsPVPTarget
  000be	85 c0		 test	 eax, eax
  000c0	74 0b		 je	 SHORT $LN12@GetHitType

; 1776 : 			return HITTYPE_PVP;

  000c2	5f		 pop	 edi
  000c3	b8 02 00 00 00	 mov	 eax, 2

; 1796 : #else // __VER >= 8 // __S8_PK
; 1797 : 			DWORD dwLast;										
; 1798 : 			GetEnemyHit( pMover->GetId(), &dwLast );
; 1799 : 			if( dwLast == 0 || (GetTickCount() - dwLast) > MIN(1) )		//PKĽĽĽÇ °Ë»ç 
; 1800 : 				return HITTYPE_FAIL;
; 1801 : 			else
; 1802 : 				return HITTYPE_PK;		
; 1803 : #endif // __VER >= 8 // __S8_PK
; 1804 : 		}
; 1805 : 		else
; 1806 : 		{
; 1807 : 			return HITTYPE_FAIL;
; 1808 : 		}
; 1809 : 	}
; 1810 : 	else
; 1811 : 	{
; 1812 : 		return HITTYPE_GENERIC;		// NPCżˇ°Ô´Â ÁÁŔş ąöÇÁ¸¦ ÁŮĽö ľř´Ů.
; 1813 : 	}
; 1814 : }

  000c8	5e		 pop	 esi
  000c9	5d		 pop	 ebp
  000ca	c2 0c 00	 ret	 12			; 0000000cH
$LN12@GetHitType:

; 1777 : 		if( IsWarTarget( pMover ) )

  000cd	57		 push	 edi
  000ce	8b ce		 mov	 ecx, esi
  000d0	e8 00 00 00 00	 call	 ?IsWarTarget@CMover@@QAEHPAV1@@Z ; CMover::IsWarTarget
  000d5	85 c0		 test	 eax, eax
  000d7	74 0b		 je	 SHORT $LN13@GetHitType

; 1778 : 			return HITTYPE_WAR;

  000d9	5f		 pop	 edi
  000da	b8 03 00 00 00	 mov	 eax, 3

; 1796 : #else // __VER >= 8 // __S8_PK
; 1797 : 			DWORD dwLast;										
; 1798 : 			GetEnemyHit( pMover->GetId(), &dwLast );
; 1799 : 			if( dwLast == 0 || (GetTickCount() - dwLast) > MIN(1) )		//PKĽĽĽÇ °Ë»ç 
; 1800 : 				return HITTYPE_FAIL;
; 1801 : 			else
; 1802 : 				return HITTYPE_PK;		
; 1803 : #endif // __VER >= 8 // __S8_PK
; 1804 : 		}
; 1805 : 		else
; 1806 : 		{
; 1807 : 			return HITTYPE_FAIL;
; 1808 : 		}
; 1809 : 	}
; 1810 : 	else
; 1811 : 	{
; 1812 : 		return HITTYPE_GENERIC;		// NPCżˇ°Ô´Â ÁÁŔş ąöÇÁ¸¦ ÁŮĽö ľř´Ů.
; 1813 : 	}
; 1814 : }

  000df	5e		 pop	 esi
  000e0	5d		 pop	 ebp
  000e1	c2 0c 00	 ret	 12			; 0000000cH
$LN13@GetHitType:

; 1779 : 		if( IsSchoolTarget( pMover ) )

  000e4	57		 push	 edi
  000e5	8b ce		 mov	 ecx, esi
  000e7	e8 00 00 00 00	 call	 ?IsSchoolTarget@CMover@@QAEHPAV1@@Z ; CMover::IsSchoolTarget
  000ec	85 c0		 test	 eax, eax
  000ee	74 0b		 je	 SHORT $LN14@GetHitType

; 1780 : 			return HITTYPE_SCHOOL;

  000f0	5f		 pop	 edi
  000f1	b8 04 00 00 00	 mov	 eax, 4

; 1796 : #else // __VER >= 8 // __S8_PK
; 1797 : 			DWORD dwLast;										
; 1798 : 			GetEnemyHit( pMover->GetId(), &dwLast );
; 1799 : 			if( dwLast == 0 || (GetTickCount() - dwLast) > MIN(1) )		//PKĽĽĽÇ °Ë»ç 
; 1800 : 				return HITTYPE_FAIL;
; 1801 : 			else
; 1802 : 				return HITTYPE_PK;		
; 1803 : #endif // __VER >= 8 // __S8_PK
; 1804 : 		}
; 1805 : 		else
; 1806 : 		{
; 1807 : 			return HITTYPE_FAIL;
; 1808 : 		}
; 1809 : 	}
; 1810 : 	else
; 1811 : 	{
; 1812 : 		return HITTYPE_GENERIC;		// NPCżˇ°Ô´Â ÁÁŔş ąöÇÁ¸¦ ÁŮĽö ľř´Ů.
; 1813 : 	}
; 1814 : }

  000f6	5e		 pop	 esi
  000f7	5d		 pop	 ebp
  000f8	c2 0c 00	 ret	 12			; 0000000cH
$LN14@GetHitType:

; 1781 : 		if( IsGuildCombatTarget( pMover ) )

  000fb	57		 push	 edi
  000fc	8b ce		 mov	 ecx, esi
  000fe	e8 00 00 00 00	 call	 ?IsGuildCombatTarget@CMover@@QAEHPAV1@@Z ; CMover::IsGuildCombatTarget
  00103	85 c0		 test	 eax, eax
  00105	74 0b		 je	 SHORT $LN15@GetHitType

; 1782 : 			return HITTYPE_GUILDCOMBAT;

  00107	5f		 pop	 edi
  00108	b8 06 00 00 00	 mov	 eax, 6

; 1796 : #else // __VER >= 8 // __S8_PK
; 1797 : 			DWORD dwLast;										
; 1798 : 			GetEnemyHit( pMover->GetId(), &dwLast );
; 1799 : 			if( dwLast == 0 || (GetTickCount() - dwLast) > MIN(1) )		//PKĽĽĽÇ °Ë»ç 
; 1800 : 				return HITTYPE_FAIL;
; 1801 : 			else
; 1802 : 				return HITTYPE_PK;		
; 1803 : #endif // __VER >= 8 // __S8_PK
; 1804 : 		}
; 1805 : 		else
; 1806 : 		{
; 1807 : 			return HITTYPE_FAIL;
; 1808 : 		}
; 1809 : 	}
; 1810 : 	else
; 1811 : 	{
; 1812 : 		return HITTYPE_GENERIC;		// NPCżˇ°Ô´Â ÁÁŔş ąöÇÁ¸¦ ÁŮĽö ľř´Ů.
; 1813 : 	}
; 1814 : }

  0010d	5e		 pop	 esi
  0010e	5d		 pop	 ebp
  0010f	c2 0c 00	 ret	 12			; 0000000cH
$LN15@GetHitType:

; 1783 : #ifdef __JEFF_11_4
; 1784 : 		if( IsArenaTarget( pMover ) )

  00112	57		 push	 edi
  00113	8b ce		 mov	 ecx, esi
  00115	e8 00 00 00 00	 call	 ?IsArenaTarget@CMover@@QAEHPAV1@@Z ; CMover::IsArenaTarget
  0011a	85 c0		 test	 eax, eax
  0011c	74 0b		 je	 SHORT $LN16@GetHitType

; 1785 : 			return HITTYPE_ARENA;

  0011e	5f		 pop	 edi
  0011f	b8 07 00 00 00	 mov	 eax, 7

; 1796 : #else // __VER >= 8 // __S8_PK
; 1797 : 			DWORD dwLast;										
; 1798 : 			GetEnemyHit( pMover->GetId(), &dwLast );
; 1799 : 			if( dwLast == 0 || (GetTickCount() - dwLast) > MIN(1) )		//PKĽĽĽÇ °Ë»ç 
; 1800 : 				return HITTYPE_FAIL;
; 1801 : 			else
; 1802 : 				return HITTYPE_PK;		
; 1803 : #endif // __VER >= 8 // __S8_PK
; 1804 : 		}
; 1805 : 		else
; 1806 : 		{
; 1807 : 			return HITTYPE_FAIL;
; 1808 : 		}
; 1809 : 	}
; 1810 : 	else
; 1811 : 	{
; 1812 : 		return HITTYPE_GENERIC;		// NPCżˇ°Ô´Â ÁÁŔş ąöÇÁ¸¦ ÁŮĽö ľř´Ů.
; 1813 : 	}
; 1814 : }

  00124	5e		 pop	 esi
  00125	5d		 pop	 ebp
  00126	c2 0c 00	 ret	 12			; 0000000cH
$LN16@GetHitType:

; 1786 : #endif	// __JEFF_11_4
; 1787 : 
; 1788 : 		if( g_eLocal.GetState( EVE_PK ) )

  00129	6a 0b		 push	 11			; 0000000bH
  0012b	b9 00 00 00 00	 mov	 ecx, OFFSET ?g_eLocal@@3VCFlyffEvent@@A ; g_eLocal
  00130	e8 00 00 00 00	 call	 ?GetState@CFlyffEvent@@QAEEH@Z ; CFlyffEvent::GetState
  00135	84 c0		 test	 al, al
  00137	74 26		 je	 SHORT $LN5@GetHitType

; 1789 : 		{
; 1790 : #if __VER >= 8 // __S8_PK
; 1791 : 			if( bGood )		// Ľ±ÇŃ ¸¶ąýŔĚ¸é ¸đµÎ µéľî°ˇ°Ô ÇĎŔÚ

  00139	83 7d 10 00	 cmp	 DWORD PTR _bGood$[ebp], 0
  0013d	75 20		 jne	 SHORT $LN5@GetHitType

; 1792 : 				return HITTYPE_FAIL;
; 1793 : 			else if( GetLevel() <= prj.m_PKSetting.nLimitLevel || pMover->GetLevel() <= prj.m_PKSetting.nLimitLevel )

  0013f	a1 80 4b 0b 00	 mov	 eax, DWORD PTR ?prj@@3VCProject@@A+740224
  00144	39 86 d8 05 00
	00		 cmp	 DWORD PTR [esi+1496], eax
  0014a	7e 13		 jle	 SHORT $LN5@GetHitType
  0014c	39 87 d8 05 00
	00		 cmp	 DWORD PTR [edi+1496], eax
  00152	7e 0b		 jle	 SHORT $LN5@GetHitType

; 1794 : 				return HITTYPE_FAIL;
; 1795 : 			return HITTYPE_PK;

  00154	5f		 pop	 edi
  00155	b8 05 00 00 00	 mov	 eax, 5

; 1796 : #else // __VER >= 8 // __S8_PK
; 1797 : 			DWORD dwLast;										
; 1798 : 			GetEnemyHit( pMover->GetId(), &dwLast );
; 1799 : 			if( dwLast == 0 || (GetTickCount() - dwLast) > MIN(1) )		//PKĽĽĽÇ °Ë»ç 
; 1800 : 				return HITTYPE_FAIL;
; 1801 : 			else
; 1802 : 				return HITTYPE_PK;		
; 1803 : #endif // __VER >= 8 // __S8_PK
; 1804 : 		}
; 1805 : 		else
; 1806 : 		{
; 1807 : 			return HITTYPE_FAIL;
; 1808 : 		}
; 1809 : 	}
; 1810 : 	else
; 1811 : 	{
; 1812 : 		return HITTYPE_GENERIC;		// NPCżˇ°Ô´Â ÁÁŔş ąöÇÁ¸¦ ÁŮĽö ľř´Ů.
; 1813 : 	}
; 1814 : }

  0015a	5e		 pop	 esi
  0015b	5d		 pop	 ebp
  0015c	c2 0c 00	 ret	 12			; 0000000cH
$LN5@GetHitType:
  0015f	5f		 pop	 edi

; 1761 : 	if( IsDie() || pMover->IsDie() )					// Á×Ŕş»óĹÂ
; 1762 : 		return HITTYPE_FAIL;

  00160	33 c0		 xor	 eax, eax

; 1796 : #else // __VER >= 8 // __S8_PK
; 1797 : 			DWORD dwLast;										
; 1798 : 			GetEnemyHit( pMover->GetId(), &dwLast );
; 1799 : 			if( dwLast == 0 || (GetTickCount() - dwLast) > MIN(1) )		//PKĽĽĽÇ °Ë»ç 
; 1800 : 				return HITTYPE_FAIL;
; 1801 : 			else
; 1802 : 				return HITTYPE_PK;		
; 1803 : #endif // __VER >= 8 // __S8_PK
; 1804 : 		}
; 1805 : 		else
; 1806 : 		{
; 1807 : 			return HITTYPE_FAIL;
; 1808 : 		}
; 1809 : 	}
; 1810 : 	else
; 1811 : 	{
; 1812 : 		return HITTYPE_GENERIC;		// NPCżˇ°Ô´Â ÁÁŔş ąöÇÁ¸¦ ÁŮĽö ľř´Ů.
; 1813 : 	}
; 1814 : }

  00162	5e		 pop	 esi
  00163	5d		 pop	 ebp
  00164	c2 0c 00	 ret	 12			; 0000000cH
$LN3@GetHitType:
  00167	5f		 pop	 edi

; 1759 : 	if( !IsValidObj( (CObj*)this ) || !IsValidObj( (CObj*)pMover ) )
; 1760 : 		return HITTYPE_GENERIC;

  00168	b8 01 00 00 00	 mov	 eax, 1

; 1796 : #else // __VER >= 8 // __S8_PK
; 1797 : 			DWORD dwLast;										
; 1798 : 			GetEnemyHit( pMover->GetId(), &dwLast );
; 1799 : 			if( dwLast == 0 || (GetTickCount() - dwLast) > MIN(1) )		//PKĽĽĽÇ °Ë»ç 
; 1800 : 				return HITTYPE_FAIL;
; 1801 : 			else
; 1802 : 				return HITTYPE_PK;		
; 1803 : #endif // __VER >= 8 // __S8_PK
; 1804 : 		}
; 1805 : 		else
; 1806 : 		{
; 1807 : 			return HITTYPE_FAIL;
; 1808 : 		}
; 1809 : 	}
; 1810 : 	else
; 1811 : 	{
; 1812 : 		return HITTYPE_GENERIC;		// NPCżˇ°Ô´Â ÁÁŔş ąöÇÁ¸¦ ÁŮĽö ľř´Ů.
; 1813 : 	}
; 1814 : }

  0016d	5e		 pop	 esi
  0016e	5d		 pop	 ebp
  0016f	c2 0c 00	 ret	 12			; 0000000cH
?GetHitType2@CMover@@QAE?AW4HITTYPE@@PAV1@HH@Z ENDP	; CMover::GetHitType2
_TEXT	ENDS
; Function compile flags: /Ogtp
; File C:\IAGOS\server\v18\Source\Source\_Common\MoverAttack.cpp
; File C:\IAGOS\server\v18\Source\Source\_Common\World.h
; File C:\IAGOS\server\v18\Source\Source\_Common\MoverAttack.cpp
; File C:\IAGOS\server\v18\Source\Source\_Common\Obj.h
; File C:\IAGOS\server\v18\Source\Source\_Common\MoverAttack.cpp
; File C:\IAGOS\server\v18\Source\Source\_Common\Obj.h
; File C:\IAGOS\server\v18\Source\Source\_Common\MoverAttack.cpp
; File C:\IAGOS\server\v18\Source\Source\_Common\Obj.h
; File C:\IAGOS\server\v18\Source\Source\_Common\MoverAttack.cpp
; File C:\IAGOS\server\v18\Source\Source\_Common\Obj.h
; File C:\IAGOS\server\v18\Source\Source\_Common\MoverAttack.cpp
; File C:\IAGOS\server\v18\Source\Source\_Common\Obj.h
; File C:\IAGOS\server\v18\Source\Source\_Common\MoverAttack.cpp
; File C:\IAGOS\server\v18\Source\Source\_Common\Obj.h
; File C:\IAGOS\server\v18\Source\Source\_Common\MoverAttack.cpp
; File C:\IAGOS\server\v18\Source\Source\_Common\Obj.h
; File C:\IAGOS\server\v18\Source\Source\_Common\MoverAttack.cpp
;	COMDAT ?IsArenaTarget@CMover@@QAEHPAV1@@Z
_TEXT	SEGMENT
$T1 = -12						; size = 12
$T2 = -12						; size = 12
$T3 = -12						; size = 12
$T4 = -12						; size = 12
_pMover$ = 8						; size = 4
?IsArenaTarget@CMover@@QAEHPAV1@@Z PROC			; CMover::IsArenaTarget, COMDAT
; _this$ = ecx

; 1952 : {

  00000	55		 push	 ebp
  00001	8b ec		 mov	 ebp, esp
  00003	83 ec 0c	 sub	 esp, 12			; 0000000cH
  00006	56		 push	 esi
  00007	8b f1		 mov	 esi, ecx

; 1953 : 	CWorld* pWorld	= GetWorld();

  00009	8b 86 6c 01 00
	00		 mov	 eax, DWORD PTR [esi+364]

; 1954 : 	if( pWorld && pWorld->IsArena() )

  0000f	85 c0		 test	 eax, eax
  00011	0f 84 c9 00 00
	00		 je	 $LN2@IsArenaTar
; File C:\IAGOS\server\v18\Source\Source\_Common\World.h

; 415  : 		{	return( m_dwWorldID == WI_WORLD_ARENA );	}

  00017	81 38 d0 00 00
	00		 cmp	 DWORD PTR [eax], 208	; 000000d0H
; File C:\IAGOS\server\v18\Source\Source\_Common\MoverAttack.cpp

; 1954 : 	if( pWorld && pWorld->IsArena() )

  0001d	0f 85 bd 00 00
	00		 jne	 $LN2@IsArenaTar
; File C:\IAGOS\server\v18\Source\Source\_Common\Obj.h

; 215  : 	D3DXVECTOR3		GetPos()	{ return m_vPos; }

  00023	8b 55 08	 mov	 edx, DWORD PTR _pMover$[ebp]
; File C:\IAGOS\server\v18\Source\Source\_Common\MoverAttack.cpp

; 1956 : 		int dx	= (int)( pMover->GetPos().x - 490 );

  00026	f3 0f 10 0d 00
	00 00 00	 movss	 xmm1, DWORD PTR __real@43f50000

; 1957 : 		int dy	= (int)( pMover->GetPos().z - 507 );

  0002e	f3 0f 10 15 00
	00 00 00	 movss	 xmm2, DWORD PTR __real@43fd8000
; File C:\IAGOS\server\v18\Source\Source\_Common\Obj.h

; 215  : 	D3DXVECTOR3		GetPos()	{ return m_vPos; }

  00036	f3 0f 7e 82 60
	01 00 00	 movq	 xmm0, QWORD PTR [edx+352]
  0003e	8b 82 68 01 00
	00		 mov	 eax, DWORD PTR [edx+360]
  00044	66 0f d6 45 f4	 movq	 QWORD PTR $T1[ebp], xmm0
; File C:\IAGOS\server\v18\Source\Source\_Common\MoverAttack.cpp

; 1956 : 		int dx	= (int)( pMover->GetPos().x - 490 );

  00049	f3 0f 10 45 f4	 movss	 xmm0, DWORD PTR $T1[ebp]
  0004e	f3 0f 5c c1	 subss	 xmm0, xmm1
; File C:\IAGOS\server\v18\Source\Source\_Common\Obj.h

; 215  : 	D3DXVECTOR3		GetPos()	{ return m_vPos; }

  00052	89 45 fc	 mov	 DWORD PTR $T1[ebp+8], eax
  00055	89 45 fc	 mov	 DWORD PTR $T2[ebp+8], eax
; File C:\IAGOS\server\v18\Source\Source\_Common\MoverAttack.cpp

; 1956 : 		int dx	= (int)( pMover->GetPos().x - 490 );

  00058	f3 0f 2c c8	 cvttss2si ecx, xmm0
; File C:\IAGOS\server\v18\Source\Source\_Common\Obj.h

; 215  : 	D3DXVECTOR3		GetPos()	{ return m_vPos; }

  0005c	f3 0f 7e 82 60
	01 00 00	 movq	 xmm0, QWORD PTR [edx+352]
  00064	66 0f d6 45 f4	 movq	 QWORD PTR $T2[ebp], xmm0
; File C:\IAGOS\server\v18\Source\Source\_Common\MoverAttack.cpp

; 1957 : 		int dy	= (int)( pMover->GetPos().z - 507 );

  00069	f3 0f 10 45 fc	 movss	 xmm0, DWORD PTR $T2[ebp+8]
  0006e	f3 0f 5c c2	 subss	 xmm0, xmm2

; 1958 : 		int d	= dx * dx + dy * dy;

  00072	0f af c9	 imul	 ecx, ecx
  00075	f3 0f 2c c0	 cvttss2si eax, xmm0
  00079	0f af c0	 imul	 eax, eax
  0007c	03 c1		 add	 eax, ecx

; 1959 : 		if( d > 1246 )

  0007e	3d de 04 00 00	 cmp	 eax, 1246		; 000004deH
  00083	7f 5b		 jg	 SHORT $LN2@IsArenaTar
; File C:\IAGOS\server\v18\Source\Source\_Common\Obj.h

; 215  : 	D3DXVECTOR3		GetPos()	{ return m_vPos; }

  00085	f3 0f 7e 86 60
	01 00 00	 movq	 xmm0, QWORD PTR [esi+352]
  0008d	8b 86 68 01 00
	00		 mov	 eax, DWORD PTR [esi+360]
  00093	66 0f d6 45 f4	 movq	 QWORD PTR $T3[ebp], xmm0
; File C:\IAGOS\server\v18\Source\Source\_Common\MoverAttack.cpp

; 1961 : 		dx	= (int)( GetPos().x - 490 );

  00098	f3 0f 10 45 f4	 movss	 xmm0, DWORD PTR $T3[ebp]
  0009d	f3 0f 5c c1	 subss	 xmm0, xmm1
; File C:\IAGOS\server\v18\Source\Source\_Common\Obj.h

; 215  : 	D3DXVECTOR3		GetPos()	{ return m_vPos; }

  000a1	89 45 fc	 mov	 DWORD PTR $T3[ebp+8], eax
  000a4	89 45 fc	 mov	 DWORD PTR $T4[ebp+8], eax
; File C:\IAGOS\server\v18\Source\Source\_Common\MoverAttack.cpp

; 1961 : 		dx	= (int)( GetPos().x - 490 );

  000a7	f3 0f 2c c8	 cvttss2si ecx, xmm0
; File C:\IAGOS\server\v18\Source\Source\_Common\Obj.h

; 215  : 	D3DXVECTOR3		GetPos()	{ return m_vPos; }

  000ab	f3 0f 7e 86 60
	01 00 00	 movq	 xmm0, QWORD PTR [esi+352]
  000b3	66 0f d6 45 f4	 movq	 QWORD PTR $T4[ebp], xmm0
; File C:\IAGOS\server\v18\Source\Source\_Common\MoverAttack.cpp

; 1962 : 		dy	= (int)( GetPos().z - 507 );

  000b8	f3 0f 10 45 fc	 movss	 xmm0, DWORD PTR $T4[ebp+8]
  000bd	f3 0f 5c c2	 subss	 xmm0, xmm2

; 1963 : 		d	= dx * dx + dy * dy;

  000c1	0f af c9	 imul	 ecx, ecx
  000c4	f3 0f 2c c0	 cvttss2si eax, xmm0
  000c8	0f af c0	 imul	 eax, eax
  000cb	03 c1		 add	 eax, ecx

; 1964 : 		if( d > 1246 )

  000cd	3d de 04 00 00	 cmp	 eax, 1246		; 000004deH
  000d2	7f 0c		 jg	 SHORT $LN2@IsArenaTar

; 1965 : 			return FALSE;
; 1966 : 		return TRUE;

  000d4	b8 01 00 00 00	 mov	 eax, 1
  000d9	5e		 pop	 esi

; 1969 : }

  000da	8b e5		 mov	 esp, ebp
  000dc	5d		 pop	 ebp
  000dd	c2 04 00	 ret	 4
$LN2@IsArenaTar:

; 1967 : 	}
; 1968 : 	return FALSE;

  000e0	33 c0		 xor	 eax, eax
  000e2	5e		 pop	 esi

; 1969 : }

  000e3	8b e5		 mov	 esp, ebp
  000e5	5d		 pop	 ebp
  000e6	c2 04 00	 ret	 4
?IsArenaTarget@CMover@@QAEHPAV1@@Z ENDP			; CMover::IsArenaTarget
_TEXT	ENDS
; Function compile flags: /Ogtp
; File C:\IAGOS\server\v18\Source\Source\_Common\MoverAttack.cpp
; File C:\IAGOS\server\v18\Source\Source\_Common\Obj.h
; File C:\IAGOS\server\v18\Source\Source\_AIInterface\Action.h
; File C:\IAGOS\server\v18\Source\Source\_Common\Mover.h
; File C:\IAGOS\server\v18\Source\Source\_AIInterface\Action.h
; File C:\IAGOS\server\v18\Source\Source\_Common\Mover.h
; File C:\IAGOS\server\v18\Source\Source\_Common\MoverAttack.cpp
; File C:\IAGOS\server\v18\Source\Source\_Common\Mover.h
; File C:\IAGOS\server\v18\Source\Source\_Common\MoverAttack.cpp
; File C:\IAGOS\server\v18\Source\Source\_Common\Mover.h
; File C:\IAGOS\server\v18\Source\Source\_Common\MoverAttack.cpp
; File C:\IAGOS\server\v18\Source\Source\_Common\Mover.h
; File C:\IAGOS\server\v18\Source\Source\_Common\MoverAttack.cpp
;	COMDAT ?GetHitType@CMover@@QAE?AW4HITTYPE@@PAV1@HH@Z
_TEXT	SEGMENT
_pMover$ = 8						; size = 4
_bTarget$ = 12						; size = 4
_nReflect$ = 16						; size = 4
?GetHitType@CMover@@QAE?AW4HITTYPE@@PAV1@HH@Z PROC	; CMover::GetHitType, COMDAT
; _this$ = ecx

; 1818 : {

  00000	55		 push	 ebp
  00001	8b ec		 mov	 ebp, esp
  00003	53		 push	 ebx
  00004	56		 push	 esi
  00005	8b 75 08	 mov	 esi, DWORD PTR _pMover$[ebp]
  00008	57		 push	 edi
  00009	8b f9		 mov	 edi, ecx
; File C:\IAGOS\server\v18\Source\Source\_Common\Obj.h

; 327  : 	return pObj && ( pObj->IsDelete() == FALSE ); 

  0000b	85 ff		 test	 edi, edi
  0000d	0f 84 4f 02 00
	00		 je	 $LN3@GetHitType

; 180  : 	BOOL			IsDelete()	{ return (m_dwFlags & OBJ_FLAG_DELETE);  }

  00013	f6 47 04 01	 test	 BYTE PTR [edi+4], 1

; 327  : 	return pObj && ( pObj->IsDelete() == FALSE ); 

  00017	0f 85 45 02 00
	00		 jne	 $LN3@GetHitType
  0001d	85 f6		 test	 esi, esi
  0001f	0f 84 3d 02 00
	00		 je	 $LN3@GetHitType

; 180  : 	BOOL			IsDelete()	{ return (m_dwFlags & OBJ_FLAG_DELETE);  }

  00025	f6 46 04 01	 test	 BYTE PTR [esi+4], 1

; 327  : 	return pObj && ( pObj->IsDelete() == FALSE ); 

  00029	0f 85 33 02 00
	00		 jne	 $LN3@GetHitType
; File C:\IAGOS\server\v18\Source\Source\_AIInterface\Action.h

; 310  : 	BOOL			IsDie() { return (m_dwState & OBJSTA_DIE_ALL) ? TRUE : FALSE; }

  0002f	8b 9f 38 02 00
	00		 mov	 ebx, DWORD PTR [edi+568]
; File C:\IAGOS\server\v18\Source\Source\_Common\Mover.h

; 1250 : 	BOOL			IsDie() { return m_pActMover->IsDie() || m_nHitPoint == 0; }

  00035	f7 43 04 00 00
	00 08		 test	 DWORD PTR [ebx+4], 134217728 ; 08000000H
  0003c	0f 85 20 02 00
	00		 jne	 $LN3@GetHitType
  00042	83 bf f8 05 00
	00 00		 cmp	 DWORD PTR [edi+1528], 0
  00049	0f 84 13 02 00
	00		 je	 $LN3@GetHitType
; File C:\IAGOS\server\v18\Source\Source\_AIInterface\Action.h

; 310  : 	BOOL			IsDie() { return (m_dwState & OBJSTA_DIE_ALL) ? TRUE : FALSE; }

  0004f	8b 86 38 02 00
	00		 mov	 eax, DWORD PTR [esi+568]
; File C:\IAGOS\server\v18\Source\Source\_Common\Mover.h

; 1250 : 	BOOL			IsDie() { return m_pActMover->IsDie() || m_nHitPoint == 0; }

  00055	f7 40 04 00 00
	00 08		 test	 DWORD PTR [eax+4], 134217728 ; 08000000H
  0005c	0f 85 00 02 00
	00		 jne	 $LN3@GetHitType
  00062	83 be f8 05 00
	00 00		 cmp	 DWORD PTR [esi+1528], 0
  00069	0f 84 f3 01 00
	00		 je	 $LN3@GetHitType
; File C:\IAGOS\server\v18\Source\Source\_Common\MoverAttack.cpp

; 1823 : 	if( m_nDead || pMover->m_nDead )					// Á×ŔşČÄ ą«Ŕű»óĹÂ

  0006f	83 bf ac 0d 00
	00 00		 cmp	 DWORD PTR [edi+3500], 0
  00076	0f 85 e6 01 00
	00		 jne	 $LN3@GetHitType
  0007c	83 be ac 0d 00
	00 00		 cmp	 DWORD PTR [esi+3500], 0
  00083	0f 85 d9 01 00
	00		 jne	 $LN3@GetHitType

; 1824 : 		return HITTYPE_FAIL;
; 1825 : 
; 1826 : #if __VER >= 9	//__AI_0509
; 1827 : 	// ŔÚ±â ŔÚ˝ĹŔ» °ř°ÝÇĎ´Â °ćżě°ˇ ľĆ´Ô
; 1828 : 	// µđąöÇÁ »óĹÂżˇĽ­ Ŕç·Î±×ŔÎ ÇĎ¸é °ř°ÝŔÚ ´ë˝Ĺ ŔÚ˝ĹŔĚ °ř°ÝŔÚ·Î ĽłÁ¤µĘ.
; 1829 : 	if( this == pMover )	

  00089	3b fe		 cmp	 edi, esi
  0008b	0f 84 a5 01 00
	00		 je	 $LN31@GetHitType

; 1830 : 		return HITTYPE_GENERIC;
; 1831 : #endif	// __AI_0509
; 1832 : 
; 1833 : 	if( IsPlayer() && pMover->IsPlayer() )

  00091	83 bf 30 02 00
	00 00		 cmp	 DWORD PTR [edi+560], 0
  00098	0f 84 43 01 00
	00		 je	 $LN94@GetHitType
  0009e	83 be 30 02 00
	00 00		 cmp	 DWORD PTR [esi+560], 0
  000a5	0f 84 4d 01 00
	00		 je	 $LN138@GetHitType

; 1834 : 	{
; 1835 : 		if( IsGuildCombatTarget( pMover ) )

  000ab	56		 push	 esi
  000ac	e8 00 00 00 00	 call	 ?IsGuildCombatTarget@CMover@@QAEHPAV1@@Z ; CMover::IsGuildCombatTarget
  000b1	85 c0		 test	 eax, eax
  000b3	74 0c		 je	 SHORT $LN11@GetHitType

; 1923 : 			return HITTYPE_FAIL;
; 1924 : 
; 1925 : #endif	// __VER >= 8  
; 1926 : 
; 1927 : 
; 1928 : 		return HITTYPE_GENERIC;
; 1929 : 	}
; 1930 : }

  000b5	5f		 pop	 edi
  000b6	5e		 pop	 esi
  000b7	b8 06 00 00 00	 mov	 eax, 6
  000bc	5b		 pop	 ebx
  000bd	5d		 pop	 ebp
  000be	c2 0c 00	 ret	 12			; 0000000cH
$LN11@GetHitType:

; 1836 : 			return HITTYPE_GUILDCOMBAT;
; 1837 : 
; 1838 : #if __VER < 8 // 8Â÷ µŕľó 061226 ma
; 1839 : 		if( !g_eLocal.GetState( EVE_18 ) )
; 1840 : 			return HITTYPE_FAIL;
; 1841 : #endif // __VER >= 8 // 8Â÷ µŕľó 061226 ma		
; 1842 : 
; 1843 : 		if( m_pActMover->IsFly() || pMover->m_pActMover->IsFly() )	// °řÁßżˇ ŔÖŔ¸¸é şŇ°ˇ 

  000c1	f6 43 08 08	 test	 BYTE PTR [ebx+8], 8
  000c5	0f 85 97 01 00
	00		 jne	 $LN3@GetHitType
  000cb	8b 86 38 02 00
	00		 mov	 eax, DWORD PTR [esi+568]
  000d1	f6 40 08 08	 test	 BYTE PTR [eax+8], 8
  000d5	0f 85 87 01 00
	00		 jne	 $LN3@GetHitType

; 1844 : 			return HITTYPE_FAIL;
; 1845 : 		if( IsPVPTarget( pMover ) )

  000db	56		 push	 esi
  000dc	8b cf		 mov	 ecx, edi
  000de	e8 00 00 00 00	 call	 ?IsPVPTarget@CMover@@QAEHPAV1@@Z ; CMover::IsPVPTarget
  000e3	85 c0		 test	 eax, eax
  000e5	74 0c		 je	 SHORT $LN14@GetHitType

; 1923 : 			return HITTYPE_FAIL;
; 1924 : 
; 1925 : #endif	// __VER >= 8  
; 1926 : 
; 1927 : 
; 1928 : 		return HITTYPE_GENERIC;
; 1929 : 	}
; 1930 : }

  000e7	5f		 pop	 edi
  000e8	5e		 pop	 esi
  000e9	b8 02 00 00 00	 mov	 eax, 2
  000ee	5b		 pop	 ebx
  000ef	5d		 pop	 ebp
  000f0	c2 0c 00	 ret	 12			; 0000000cH
$LN14@GetHitType:

; 1846 : 			return HITTYPE_PVP;
; 1847 : 		if( IsWarTarget( pMover ) )

  000f3	56		 push	 esi
  000f4	8b cf		 mov	 ecx, edi
  000f6	e8 00 00 00 00	 call	 ?IsWarTarget@CMover@@QAEHPAV1@@Z ; CMover::IsWarTarget
  000fb	85 c0		 test	 eax, eax
  000fd	74 0c		 je	 SHORT $LN15@GetHitType

; 1923 : 			return HITTYPE_FAIL;
; 1924 : 
; 1925 : #endif	// __VER >= 8  
; 1926 : 
; 1927 : 
; 1928 : 		return HITTYPE_GENERIC;
; 1929 : 	}
; 1930 : }

  000ff	5f		 pop	 edi
  00100	5e		 pop	 esi
  00101	b8 03 00 00 00	 mov	 eax, 3
  00106	5b		 pop	 ebx
  00107	5d		 pop	 ebp
  00108	c2 0c 00	 ret	 12			; 0000000cH
$LN15@GetHitType:

; 1848 : 			return HITTYPE_WAR;
; 1849 : 		if( IsSchoolTarget( pMover ) )

  0010b	56		 push	 esi
  0010c	8b cf		 mov	 ecx, edi
  0010e	e8 00 00 00 00	 call	 ?IsSchoolTarget@CMover@@QAEHPAV1@@Z ; CMover::IsSchoolTarget
  00113	85 c0		 test	 eax, eax
  00115	74 0c		 je	 SHORT $LN16@GetHitType

; 1923 : 			return HITTYPE_FAIL;
; 1924 : 
; 1925 : #endif	// __VER >= 8  
; 1926 : 
; 1927 : 
; 1928 : 		return HITTYPE_GENERIC;
; 1929 : 	}
; 1930 : }

  00117	5f		 pop	 edi
  00118	5e		 pop	 esi
  00119	b8 04 00 00 00	 mov	 eax, 4
  0011e	5b		 pop	 ebx
  0011f	5d		 pop	 ebp
  00120	c2 0c 00	 ret	 12			; 0000000cH
$LN16@GetHitType:

; 1850 : 			return HITTYPE_SCHOOL;
; 1851 : 
; 1852 : #ifdef __JEFF_11_4
; 1853 : 		if( IsArenaTarget( pMover ) )

  00123	56		 push	 esi
  00124	8b cf		 mov	 ecx, edi
  00126	e8 00 00 00 00	 call	 ?IsArenaTarget@CMover@@QAEHPAV1@@Z ; CMover::IsArenaTarget
  0012b	85 c0		 test	 eax, eax
  0012d	74 0c		 je	 SHORT $LN17@GetHitType

; 1923 : 			return HITTYPE_FAIL;
; 1924 : 
; 1925 : #endif	// __VER >= 8  
; 1926 : 
; 1927 : 
; 1928 : 		return HITTYPE_GENERIC;
; 1929 : 	}
; 1930 : }

  0012f	5f		 pop	 edi
  00130	5e		 pop	 esi
  00131	b8 07 00 00 00	 mov	 eax, 7
  00136	5b		 pop	 ebx
  00137	5d		 pop	 ebp
  00138	c2 0c 00	 ret	 12			; 0000000cH
$LN17@GetHitType:

; 1854 : 			return HITTYPE_ARENA;
; 1855 : #endif	// __JEFF_11_4
; 1856 : 
; 1857 : 		DWORD dwAttr	= GetPKPVPRegionAttr();		

  0013b	8b cf		 mov	 ecx, edi
  0013d	e8 00 00 00 00	 call	 ?GetPKPVPRegionAttr@CMover@@QAEKXZ ; CMover::GetPKPVPRegionAttr
  00142	8b d8		 mov	 ebx, eax

; 1858 : 		if( dwAttr == RA_SAFETY || dwAttr != pMover->GetPKPVPRegionAttr() )

  00144	83 fb 10	 cmp	 ebx, 16			; 00000010H
  00147	0f 84 15 01 00
	00		 je	 $LN3@GetHitType
  0014d	8b ce		 mov	 ecx, esi
  0014f	e8 00 00 00 00	 call	 ?GetPKPVPRegionAttr@CMover@@QAEKXZ ; CMover::GetPKPVPRegionAttr
  00154	3b d8		 cmp	 ebx, eax
  00156	0f 85 06 01 00
	00		 jne	 $LN3@GetHitType

; 1859 : 			return HITTYPE_FAIL;
; 1860 : #if __VER < 8 // __S8_PK
; 1861 : 		if( m_idparty > 0 && m_idparty == pMover->m_idparty )	
; 1862 : 			return HITTYPE_FAIL;
; 1863 : 		if( m_idGuild > 0 && m_idGuild == pMover->m_idGuild )
; 1864 : 			return HITTYPE_FAIL;
; 1865 : #endif // __VER < 8 // __S8_PK
; 1866 : 
; 1867 : 
; 1868 : 		if( IsBaseJob() || pMover->IsBaseJob() )

  0015c	8b cf		 mov	 ecx, edi
  0015e	e8 00 00 00 00	 call	 ?IsBaseJob@CMover@@QAEHXZ ; CMover::IsBaseJob
  00163	85 c0		 test	 eax, eax
  00165	0f 85 f7 00 00
	00		 jne	 $LN3@GetHitType
  0016b	8b ce		 mov	 ecx, esi
  0016d	e8 00 00 00 00	 call	 ?IsBaseJob@CMover@@QAEHXZ ; CMover::IsBaseJob
  00172	85 c0		 test	 eax, eax
  00174	0f 85 e8 00 00
	00		 jne	 $LN3@GetHitType

; 1869 : 			return HITTYPE_FAIL;
; 1870 : 		if( g_eLocal.GetState( EVE_GUILDWAR ) )			// ±ćµĺŔü »óĹÂżˇĽ­´Â PKşŇ°ˇ 

  0017a	6a 03		 push	 3
  0017c	b9 00 00 00 00	 mov	 ecx, OFFSET ?g_eLocal@@3VCFlyffEvent@@A ; g_eLocal
  00181	e8 00 00 00 00	 call	 ?GetState@CFlyffEvent@@QAEEH@Z ; CFlyffEvent::GetState
  00186	84 c0		 test	 al, al
  00188	74 1a		 je	 SHORT $LN23@GetHitType

; 1871 : 		{
; 1872 : 			if( m_idWar > 0 || pMover->m_idWar > 0 )	

  0018a	83 bf 20 07 00
	00 00		 cmp	 DWORD PTR [edi+1824], 0
  00191	0f 87 cb 00 00
	00		 ja	 $LN3@GetHitType
  00197	83 be 20 07 00
	00 00		 cmp	 DWORD PTR [esi+1824], 0
  0019e	0f 87 be 00 00
	00		 ja	 $LN3@GetHitType
$LN23@GetHitType:

; 1873 : 				return HITTYPE_FAIL;
; 1874 : 		}
; 1875 : 		
; 1876 : 		if( g_eLocal.GetState( EVE_PK ) )

  001a4	6a 0b		 push	 11			; 0000000bH
  001a6	b9 00 00 00 00	 mov	 ecx, OFFSET ?g_eLocal@@3VCFlyffEvent@@A ; g_eLocal
  001ab	e8 00 00 00 00	 call	 ?GetState@CFlyffEvent@@QAEEH@Z ; CFlyffEvent::GetState
  001b0	84 c0		 test	 al, al
  001b2	0f 84 aa 00 00
	00		 je	 $LN3@GetHitType

; 1877 : 		{
; 1878 : #if __VER >= 8 // __S8_PK
; 1879 : 			if( GetLevel() <= prj.m_PKSetting.nLimitLevel || pMover->GetLevel() <= prj.m_PKSetting.nLimitLevel )

  001b8	a1 80 4b 0b 00	 mov	 eax, DWORD PTR ?prj@@3VCProject@@A+740224
  001bd	39 87 d8 05 00
	00		 cmp	 DWORD PTR [edi+1496], eax
  001c3	0f 8e 99 00 00
	00		 jle	 $LN3@GetHitType
  001c9	39 86 d8 05 00
	00		 cmp	 DWORD PTR [esi+1496], eax
  001cf	0f 8e 8d 00 00
	00		 jle	 $LN3@GetHitType

; 1923 : 			return HITTYPE_FAIL;
; 1924 : 
; 1925 : #endif	// __VER >= 8  
; 1926 : 
; 1927 : 
; 1928 : 		return HITTYPE_GENERIC;
; 1929 : 	}
; 1930 : }

  001d5	5f		 pop	 edi
  001d6	5e		 pop	 esi
  001d7	b8 05 00 00 00	 mov	 eax, 5
  001dc	5b		 pop	 ebx
  001dd	5d		 pop	 ebp
  001de	c2 0c 00	 ret	 12			; 0000000cH
$LN94@GetHitType:

; 1880 : 				return HITTYPE_FAIL;
; 1881 : #else // __VER >= 8 // __S8_PK
; 1882 : 			if( pMover->IsChaotic() )						// Ä«żŔ        - PK°ˇ´É 
; 1883 : 				return HITTYPE_PK;
; 1884 : 			if( GetTickCount() >= m_dwPKTargetLimit )		// PKĽ±°řşŇ°ˇ˝Ă°ŁµżľČżˇ´Â Ľ±°řŔĚ ľČµĘ  
; 1885 : 			{
; 1886 : 				if( bTarget )								// Ĺ¸ÄĎŔŻŔú    - PK°ˇ´É 
; 1887 : 					return HITTYPE_PK;
; 1888 : 			}
; 1889 : 			
; 1890 : 			DWORD dwLast;										
; 1891 : 			GetEnemyHit( pMover->GetId(), &dwLast );
; 1892 : 			if( dwLast == 0 || (GetTickCount() - dwLast) > MIN(1) )		//PKĽĽĽÇ °Ë»ç 
; 1893 : 				return HITTYPE_FAIL;
; 1894 : #endif // __VER >= 8 // __S8_PK
; 1895 : 			return HITTYPE_PK;
; 1896 : 		}
; 1897 : 		else
; 1898 : 		{
; 1899 : 			return HITTYPE_FAIL;
; 1900 : 		}
; 1901 : 	}
; 1902 : 	else
; 1903 : 	{
; 1904 : 		if( IsNPC() && GetProp()->dwClass == RANK_GUARD )			// żążÜĂł¸®: °ćşńş´Ŕş °řÁßżˇ ŔÖ´Â łŕĽ®µµ °ř°Ý°ˇ´É 

  001e1	e8 00 00 00 00	 call	 ?GetPropA@CMover@@QAEPAUMoverProp@@XZ ; CMover::GetPropA
  001e6	83 b8 94 00 00
	00 08		 cmp	 DWORD PTR [eax+148], 8
  001ed	74 47		 je	 SHORT $LN31@GetHitType
; File C:\IAGOS\server\v18\Source\Source\_Common\Mover.h

; 1015 : 	BOOL			IsNPC()				{ return !m_bPlayer; }

  001ef	83 be 30 02 00
	00 00		 cmp	 DWORD PTR [esi+560], 0
; File C:\IAGOS\server\v18\Source\Source\_Common\MoverAttack.cpp

; 1907 : 		if( pMover->IsNPC() && IsAttackAbleNPC( pMover ) == FALSE )	// bKillable, IsPeaceful, RANK_GUARD¸¦ °Ë»ç 

  001f6	75 0c		 jne	 SHORT $LN96@GetHitType
$LN138@GetHitType:
  001f8	56		 push	 esi
  001f9	8b cf		 mov	 ecx, edi
  001fb	e8 00 00 00 00	 call	 ?IsAttackAbleNPC@CMover@@QAEHPAV1@@Z ; CMover::IsAttackAbleNPC
  00200	85 c0		 test	 eax, eax
  00202	74 5e		 je	 SHORT $LN3@GetHitType
$LN96@GetHitType:
; File C:\IAGOS\server\v18\Source\Source\_Common\Mover.h

; 1015 : 	BOOL			IsNPC()				{ return !m_bPlayer; }

  00204	83 bf 30 02 00
	00 00		 cmp	 DWORD PTR [edi+560], 0
; File C:\IAGOS\server\v18\Source\Source\_Common\MoverAttack.cpp

; 1911 : 		bool bAttackerFly = ( IsNPC() && IsFlyingNPC() ) || ( IsPlayer() && IsFly() );

  0020b	75 35		 jne	 SHORT $LN93@GetHitType
  0020d	f7 87 3c 02 00
	00 00 00 01 00	 test	 DWORD PTR [edi+572], 65536 ; 00010000H
  00217	75 35		 jne	 SHORT $LN35@GetHitType
$LN34@GetHitType:
  00219	32 c9		 xor	 cl, cl
$LN36@GetHitType:
; File C:\IAGOS\server\v18\Source\Source\_Common\Mover.h

; 1015 : 	BOOL			IsNPC()				{ return !m_bPlayer; }

  0021b	83 be 30 02 00
	00 00		 cmp	 DWORD PTR [esi+560], 0
; File C:\IAGOS\server\v18\Source\Source\_Common\MoverAttack.cpp

; 1912 : 		bool bDefenderFly = ( pMover->IsNPC() && pMover->IsFlyingNPC() ) || ( pMover->IsPlayer() && pMover->IsFly() );

  00222	75 2e		 jne	 SHORT $LN92@GetHitType
  00224	f7 86 3c 02 00
	00 00 00 01 00	 test	 DWORD PTR [esi+572], 65536 ; 00010000H
  0022e	75 2e		 jne	 SHORT $LN39@GetHitType
$LN38@GetHitType:
  00230	32 c0		 xor	 al, al
$LN40@GetHitType:

; 1913 : 
; 1914 : 
; 1915 : #ifdef __JHMA_VER_8_6     // 8Â÷ ¸ó˝şĹÍ°ˇ Ŕú°řşńÇŕŔŻŔú¸¦ °ř°Ý°ˇ´ÉÇĎ°ÔÇÔ   World
; 1916 : 	
; 1917 : 		if( bAttackerFly != bDefenderFly && bAttackerFly )
; 1918 : 			return HITTYPE_FAIL;
; 1919 : 
; 1920 : #else	// __VER >= 8  
; 1921 : 
; 1922 : 		if( bAttackerFly != bDefenderFly )

  00232	3a c8		 cmp	 cl, al
  00234	75 2c		 jne	 SHORT $LN3@GetHitType
$LN31@GetHitType:
  00236	5f		 pop	 edi

; 1923 : 			return HITTYPE_FAIL;
; 1924 : 
; 1925 : #endif	// __VER >= 8  
; 1926 : 
; 1927 : 
; 1928 : 		return HITTYPE_GENERIC;
; 1929 : 	}
; 1930 : }

  00237	5e		 pop	 esi
  00238	b8 01 00 00 00	 mov	 eax, 1
  0023d	5b		 pop	 ebx
  0023e	5d		 pop	 ebp
  0023f	c2 0c 00	 ret	 12			; 0000000cH
$LN93@GetHitType:

; 1911 : 		bool bAttackerFly = ( IsNPC() && IsFlyingNPC() ) || ( IsPlayer() && IsFly() );

  00242	8b 87 38 02 00
	00		 mov	 eax, DWORD PTR [edi+568]
  00248	f6 40 08 08	 test	 BYTE PTR [eax+8], 8
  0024c	74 cb		 je	 SHORT $LN34@GetHitType
$LN35@GetHitType:
  0024e	b1 01		 mov	 cl, 1
  00250	eb c9		 jmp	 SHORT $LN36@GetHitType
$LN92@GetHitType:

; 1912 : 		bool bDefenderFly = ( pMover->IsNPC() && pMover->IsFlyingNPC() ) || ( pMover->IsPlayer() && pMover->IsFly() );

  00252	8b 86 38 02 00
	00		 mov	 eax, DWORD PTR [esi+568]
  00258	f6 40 08 08	 test	 BYTE PTR [eax+8], 8
  0025c	74 d2		 je	 SHORT $LN38@GetHitType
$LN39@GetHitType:
  0025e	b0 01		 mov	 al, 1
  00260	eb d0		 jmp	 SHORT $LN40@GetHitType
$LN3@GetHitType:
  00262	5f		 pop	 edi

; 1923 : 			return HITTYPE_FAIL;
; 1924 : 
; 1925 : #endif	// __VER >= 8  
; 1926 : 
; 1927 : 
; 1928 : 		return HITTYPE_GENERIC;
; 1929 : 	}
; 1930 : }

  00263	5e		 pop	 esi
  00264	33 c0		 xor	 eax, eax
  00266	5b		 pop	 ebx
  00267	5d		 pop	 ebp
  00268	c2 0c 00	 ret	 12			; 0000000cH
?GetHitType@CMover@@QAE?AW4HITTYPE@@PAV1@HH@Z ENDP	; CMover::GetHitType
_TEXT	ENDS
; Function compile flags: /Ogtp
; File C:\IAGOS\server\v18\Source\Source\_Common\MoverAttack.cpp
;	COMDAT ?IsSchoolTarget@CMover@@QAEHPAV1@@Z
_TEXT	SEGMENT
_pMover$ = 8						; size = 4
?IsSchoolTarget@CMover@@QAEHPAV1@@Z PROC		; CMover::IsSchoolTarget, COMDAT
; _this$ = ecx

; 1984 : 	return( g_eLocal.GetState( EVE_SCHOOL_BATTLE ) == SBS_START2 );		// '/sbstart2'

  00000	6a 05		 push	 5
  00002	b9 00 00 00 00	 mov	 ecx, OFFSET ?g_eLocal@@3VCFlyffEvent@@A ; g_eLocal
  00007	e8 00 00 00 00	 call	 ?GetState@CFlyffEvent@@QAEEH@Z ; CFlyffEvent::GetState
  0000c	33 c9		 xor	 ecx, ecx
  0000e	3c 03		 cmp	 al, 3
  00010	0f 94 c1	 sete	 cl
  00013	8b c1		 mov	 eax, ecx

; 1985 : }

  00015	c2 04 00	 ret	 4
?IsSchoolTarget@CMover@@QAEHPAV1@@Z ENDP		; CMover::IsSchoolTarget
_TEXT	ENDS
; Function compile flags: /Ogtp
; File C:\IAGOS\server\v18\Source\Source\_Common\MoverAttack.cpp
;	COMDAT ?IsWarTarget@CMover@@QAEHPAV1@@Z
_TEXT	SEGMENT
_pMover$ = 8						; size = 4
?IsWarTarget@CMover@@QAEHPAV1@@Z PROC			; CMover::IsWarTarget, COMDAT
; _this$ = ecx

; 1973 : {

  00000	55		 push	 ebp
  00001	8b ec		 mov	 ebp, esp
  00003	56		 push	 esi
  00004	8b f1		 mov	 esi, ecx

; 1974 : 	if( g_eLocal.GetState( EVE_GUILDWAR ) == 1 )

  00006	b9 00 00 00 00	 mov	 ecx, OFFSET ?g_eLocal@@3VCFlyffEvent@@A ; g_eLocal
  0000b	6a 03		 push	 3
  0000d	e8 00 00 00 00	 call	 ?GetState@CFlyffEvent@@QAEEH@Z ; CFlyffEvent::GetState
  00012	3c 01		 cmp	 al, 1
  00014	75 2b		 jne	 SHORT $LN3@IsWarTarge

; 1975 : 	{
; 1976 : 		if( m_idWar > 0 && m_idWar == pMover->m_idWar && m_idGuild != pMover->m_idGuild )

  00016	8b 86 20 07 00
	00		 mov	 eax, DWORD PTR [esi+1824]
  0001c	85 c0		 test	 eax, eax
  0001e	74 21		 je	 SHORT $LN3@IsWarTarge
  00020	8b 55 08	 mov	 edx, DWORD PTR _pMover$[ebp]
  00023	3b 82 20 07 00
	00		 cmp	 eax, DWORD PTR [edx+1824]
  00029	75 16		 jne	 SHORT $LN3@IsWarTarge
  0002b	8b 8e 14 07 00
	00		 mov	 ecx, DWORD PTR [esi+1812]
  00031	33 c0		 xor	 eax, eax
  00033	3b 8a 14 07 00
	00		 cmp	 ecx, DWORD PTR [edx+1812]
  00039	5e		 pop	 esi
  0003a	0f 95 c0	 setne	 al

; 1980 : }

  0003d	5d		 pop	 ebp
  0003e	c2 04 00	 ret	 4
$LN3@IsWarTarge:

; 1977 : 			return TRUE;
; 1978 : 	}
; 1979 : 	return FALSE;

  00041	33 c0		 xor	 eax, eax
  00043	5e		 pop	 esi

; 1980 : }

  00044	5d		 pop	 ebp
  00045	c2 04 00	 ret	 4
?IsWarTarget@CMover@@QAEHPAV1@@Z ENDP			; CMover::IsWarTarget
_TEXT	ENDS
; Function compile flags: /Ogtp
; File C:\IAGOS\server\v18\Source\Source\_Common\MoverAttack.cpp
;	COMDAT ?IsPVPTarget@CMover@@QAEHPAV1@@Z
_TEXT	SEGMENT
_pMover$ = 8						; size = 4
?IsPVPTarget@CMover@@QAEHPAV1@@Z PROC			; CMover::IsPVPTarget, COMDAT
; _this$ = ecx

; 1936 : {	

  00000	55		 push	 ebp
  00001	8b ec		 mov	 ebp, esp

; 1937 : 	BOOL bResult = FALSE;
; 1938 : 	if( m_idDuelOther != NULL_ID && m_idDuelOther == pMover->GetId() )

  00003	8b 55 08	 mov	 edx, DWORD PTR _pMover$[ebp]
  00006	33 c0		 xor	 eax, eax
  00008	56		 push	 esi
  00009	8b b1 40 07 00
	00		 mov	 esi, DWORD PTR [ecx+1856]
  0000f	57		 push	 edi
  00010	8d 78 01	 lea	 edi, DWORD PTR [eax+1]
  00013	83 fe ff	 cmp	 esi, -1
  00016	74 09		 je	 SHORT $LN2@IsPVPTarge
  00018	3b b2 bc 01 00
	00		 cmp	 esi, DWORD PTR [edx+444]
  0001e	0f 44 c7	 cmove	 eax, edi
$LN2@IsPVPTarge:

; 1939 : 		bResult = TRUE;
; 1940 : 
; 1941 : 	if( 0 < m_idDuelParty && m_idDuelParty == pMover->m_idparty )

  00021	8b b1 44 07 00
	00		 mov	 esi, DWORD PTR [ecx+1860]
  00027	85 f6		 test	 esi, esi
  00029	74 08		 je	 SHORT $LN3@IsPVPTarge
  0002b	3b b2 10 07 00
	00		 cmp	 esi, DWORD PTR [edx+1808]
  00031	74 04		 je	 SHORT $LN7@IsPVPTarge
$LN3@IsPVPTarge:

; 1942 : 		bResult = TRUE;
; 1943 : 
; 1944 : 	if( bResult && ( m_nDuelState == 1 || pMover->m_nDuelState == 1 ) )

  00033	85 c0		 test	 eax, eax
  00035	74 21		 je	 SHORT $LN4@IsPVPTarge
$LN7@IsPVPTarge:
  00037	39 b9 38 07 00
	00		 cmp	 DWORD PTR [ecx+1848], edi
  0003d	74 11		 je	 SHORT $LN5@IsPVPTarge
  0003f	33 c0		 xor	 eax, eax
  00041	39 ba 38 07 00
	00		 cmp	 DWORD PTR [edx+1848], edi
  00047	5f		 pop	 edi
  00048	0f 94 c0	 sete	 al

; 1948 : }

  0004b	5e		 pop	 esi
  0004c	5d		 pop	 ebp
  0004d	c2 04 00	 ret	 4
$LN5@IsPVPTarge:

; 1945 : 		return TRUE;

  00050	8b c7		 mov	 eax, edi
  00052	5f		 pop	 edi

; 1948 : }

  00053	5e		 pop	 esi
  00054	5d		 pop	 ebp
  00055	c2 04 00	 ret	 4
$LN4@IsPVPTarge:
  00058	5f		 pop	 edi

; 1946 : 
; 1947 : 	return FALSE;

  00059	33 c0		 xor	 eax, eax

; 1948 : }

  0005b	5e		 pop	 esi
  0005c	5d		 pop	 ebp
  0005d	c2 04 00	 ret	 4
?IsPVPTarget@CMover@@QAEHPAV1@@Z ENDP			; CMover::IsPVPTarget
_TEXT	ENDS
; Function compile flags: /Ogtp
; File C:\IAGOS\server\v18\Source\Source\_Common\MoverAttack.cpp
; File C:\IAGOS\server\v18\Source\Source\_AIInterface\Action.h
; File C:\IAGOS\server\v18\Source\Source\_Common\MoverAttack.cpp
; File C:\IAGOS\server\v18\Source\Source\_Common\Mover.h
; File C:\IAGOS\server\v18\Source\Source\_Common\MoverAttack.cpp
; File C:\IAGOS\server\v18\Source\Source\_AIInterface\Action.h
; File C:\IAGOS\server\v18\Source\Source\_Common\MoverAttack.cpp
; File C:\IAGOS\server\v18\Source\Source\_AIInterface\Action.h
; File C:\IAGOS\server\v18\Source\Source\_Common\MoverAttack.cpp
; File C:\IAGOS\server\v18\Source\Source\_Common\xUtil.h
; File C:\IAGOS\server\v18\Source\Source\_Common\MoverAttack.cpp
;	COMDAT ?SetDamagedMotion@CMover@@QAEXPAV1@K@Z
_TEXT	SEGMENT
_pAttacker$ = 8						; size = 4
_dwAtkFlags$ = 12					; size = 4
?SetDamagedMotion@CMover@@QAEXPAV1@K@Z PROC		; CMover::SetDamagedMotion, COMDAT
; _this$ = ecx

; 2009 : {

  00000	55		 push	 ebp
  00001	8b ec		 mov	 ebp, esp
  00003	56		 push	 esi
  00004	8b f1		 mov	 esi, ecx

; 2010 : 	if((m_pActMover->GetState() & OBJSTA_DMG_FLY_ALL))			// µĄąĚÁöÇĂ¶óŔ×ŔĚ ľĆ´Ň¶§¸¸ ľĆ·ˇ Ăł¸®.

  00006	8b 8e 38 02 00
	00		 mov	 ecx, DWORD PTR [esi+568]
  0000c	f7 41 04 00 00
	00 02		 test	 DWORD PTR [ecx+4], 33554432 ; 02000000H
  00013	0f 85 4d 01 00
	00		 jne	 $LN10@SetDamaged

; 2011 : 		return;
; 2012 : 
; 2013 : 	m_pActMover->ResetState( OBJSTA_JUMP_ALL );

  00019	57		 push	 edi
  0001a	68 00 f0 00 00	 push	 61440			; 0000f000H
  0001f	e8 00 00 00 00	 call	 ?ResetState@CAction@@QAEXK@Z ; CAction::ResetState

; 2014 : 	if( dwAtkFlags & AF_FLYING )									// ¸Â°í łŻľĆ°ˇľß ÇĎ´Â°ˇ?

  00024	f7 45 0c 00 00
	00 10		 test	 DWORD PTR _dwAtkFlags$[ebp], 268435456 ; 10000000H
  0002b	8b be 38 02 00
	00		 mov	 edi, DWORD PTR [esi+568]
  00031	74 75		 je	 SHORT $LN3@SetDamaged

; 2015 : 	{
; 2016 : 		if( (m_pActMover->GetState() != OBJSTA_STUN) )

  00033	81 7f 04 00 00
	00 40		 cmp	 DWORD PTR [edi+4], 1073741824 ; 40000000H
  0003a	74 7f		 je	 SHORT $LN4@SetDamaged
; File C:\IAGOS\server\v18\Source\Source\_AIInterface\Action.h

; 292  : 	void			SetState( DWORD dwType, DWORD dwState )	{ ResetState(dwType);	m_dwState |= dwState; }

  0003c	68 00 00 00 0f	 push	 251658240		; 0f000000H
  00041	8b cf		 mov	 ecx, edi
  00043	e8 00 00 00 00	 call	 ?ResetState@CAction@@QAEXK@Z ; CAction::ResetState
  00048	81 4f 04 00 00
	00 02		 or	 DWORD PTR [edi+4], 33554432 ; 02000000H
; File C:\IAGOS\server\v18\Source\Source\_Common\MoverAttack.cpp

; 2019 : 			SetMotion( MTI_DMGFLY, ANILOOP_CONT );

  0004f	8b ce		 mov	 ecx, esi
  00051	8b 06		 mov	 eax, DWORD PTR [esi]
  00053	6a 00		 push	 0
  00055	6a 02		 push	 2
  00057	6a 0b		 push	 11			; 0000000bH
  00059	ff 50 04	 call	 DWORD PTR [eax+4]

; 2020 : 			if( pAttacker )

  0005c	8b 7d 08	 mov	 edi, DWORD PTR _pAttacker$[ebp]
  0005f	85 ff		 test	 edi, edi
  00061	74 58		 je	 SHORT $LN4@SetDamaged
; File C:\IAGOS\server\v18\Source\Source\_Common\Mover.h

; 1785 : 	if( m_pActMover )	

  00063	8b 8f 38 02 00
	00		 mov	 ecx, DWORD PTR [edi+568]
  00069	85 c9		 test	 ecx, ecx
  0006b	74 11		 je	 SHORT $LN27@SetDamaged

; 1786 : 		return m_pActMover->SendActMsg( dwMsg, nParam1, nParam2, nParam3, nParam4 );	

  0006d	8b 01		 mov	 eax, DWORD PTR [ecx]
  0006f	6a 00		 push	 0
  00071	6a 00		 push	 0
  00073	6a 00		 push	 0
  00075	6a 00		 push	 0
  00077	6a 00		 push	 0
  00079	6a 06		 push	 6
  0007b	ff 50 04	 call	 DWORD PTR [eax+4]
$LN27@SetDamaged:
; File C:\IAGOS\server\v18\Source\Source\_Common\MoverAttack.cpp

; 2023 : 				m_pActMover->DoDamageFly( pAttacker->GetAngle(), 145.0f, 0.18f );	// ľîĹÂÄż°ˇ ş¸´ÂÂĘŔ¸·Î łŻ·Áş¸łż.

  0007e	f3 0f 10 47 18	 movss	 xmm0, DWORD PTR [edi+24]
  00083	83 ec 0c	 sub	 esp, 12			; 0000000cH
  00086	8b 8e 38 02 00
	00		 mov	 ecx, DWORD PTR [esi+568]
  0008c	c7 44 24 08 ec
	51 38 3e	 mov	 DWORD PTR [esp+8], 1043878380 ; 3e3851ecH
  00094	c7 44 24 04 00
	00 11 43	 mov	 DWORD PTR [esp+4], 1125187584 ; 43110000H
  0009c	f3 0f 11 04 24	 movss	 DWORD PTR [esp], xmm0
  000a1	e8 00 00 00 00	 call	 ?DoDamageFly@CActionMover@@QAEXMMM@Z ; CActionMover::DoDamageFly

; 2024 : 			}
; 2025 : 		}
; 2026 : 	} 

  000a6	eb 13		 jmp	 SHORT $LN4@SetDamaged
$LN3@SetDamaged:
; File C:\IAGOS\server\v18\Source\Source\_AIInterface\Action.h

; 292  : 	void			SetState( DWORD dwType, DWORD dwState )	{ ResetState(dwType);	m_dwState |= dwState; }

  000a8	68 00 00 00 0f	 push	 251658240		; 0f000000H
  000ad	8b cf		 mov	 ecx, edi
  000af	e8 00 00 00 00	 call	 ?ResetState@CAction@@QAEXK@Z ; CAction::ResetState
  000b4	81 4f 04 00 00
	00 01		 or	 DWORD PTR [edi+4], 16777216 ; 01000000H
$LN4@SetDamaged:
; File C:\IAGOS\server\v18\Source\Source\_Common\MoverAttack.cpp

; 2031 : 	DWORD	dwTmpTick = GetTickCount();

  000bb	ff 15 00 00 00
	00		 call	 DWORD PTR __imp__GetTickCount@0

; 2032 : 	int	nTmpSkillID = m_pActMover->GetCastingSKillID();

  000c1	8b 8e 38 02 00
	00		 mov	 ecx, DWORD PTR [esi+568]
  000c7	5f		 pop	 edi

; 2033 : 	if( m_pActMover->GetCastingEndTick() > dwTmpTick && ( nTmpSkillID == SI_KNT_HERO_DRAWING || nTmpSkillID == SI_RIG_HERO_RETURN ) )

  000c8	39 81 ac 00 00
	00		 cmp	 DWORD PTR [ecx+172], eax
  000ce	76 29		 jbe	 SHORT $LN7@SetDamaged
  000d0	8b 81 b0 00 00
	00		 mov	 eax, DWORD PTR [ecx+176]
  000d6	3d ee 00 00 00	 cmp	 eax, 238		; 000000eeH
  000db	74 07		 je	 SHORT $LN8@SetDamaged
  000dd	3d f4 00 00 00	 cmp	 eax, 244		; 000000f4H
  000e2	75 15		 jne	 SHORT $LN7@SetDamaged
$LN8@SetDamaged:

; 2034 : 	{
; 2035 : 		m_pActMover->SetCastingEndTick(0);

  000e4	c7 81 ac 00 00
	00 00 00 00 00	 mov	 DWORD PTR [ecx+172], 0

; 2036 : 		m_pActMover->ClearState();				// »óĹÂ Ĺ¬¸®ľîÇĎ°í ´Ů˝Ă ¸ÂĂă.

  000ee	8b 8e 38 02 00
	00		 mov	 ecx, DWORD PTR [esi+568]
  000f4	e8 00 00 00 00	 call	 ?ClearState@CAction@@QAEXXZ ; CAction::ClearState
$LN7@SetDamaged:
; File C:\IAGOS\server\v18\Source\Source\_AIInterface\Action.h

; 321  : 	BOOL			IsActJump()		{ return m_dwState & OBJSTA_JUMP_ALL; }

  000f9	8b 86 38 02 00
	00		 mov	 eax, DWORD PTR [esi+568]
  000ff	f7 40 04 00 f0
	ff f0		 test	 DWORD PTR [eax+4], -251662336 ; f0fff000H
; File C:\IAGOS\server\v18\Source\Source\_Common\MoverAttack.cpp

; 2040 : 	if( m_pActMover->IsActJump() || m_pActMover->IsActAttack() )	// ÁˇÇÁÁß or °ř°ÝÁß żŁ µĄąĚÁö ¸đĽÇ ľČłż.

  00106	75 5e		 jne	 SHORT $LN10@SetDamaged

; 2041 : 		return;
; 2042 : 	if( m_pActMover->IsAction() )		// ŔĎąÝľ×ĽÇ ÁßŔĚ¸é µĄąĚÁö ¸đĽÇ ľČłż.
; 2043 : 		return;
; 2044 : 
; 2045 : 	m_dwMotion = -1;

  00108	c7 86 d8 02 00
	00 ff ff ff ff	 mov	 DWORD PTR [esi+728], -1

; 2046 : 	if( m_pActMover->IsFly() )

  00112	f6 40 08 08	 test	 BYTE PTR [eax+8], 8
  00116	74 2e		 je	 SHORT $LN12@SetDamaged

; 2047 : 	{
; 2048 : 		ItemProp* pItemProp = prj.GetItemProp( m_dwRideItemIdx );

  00118	ff b6 e4 14 00
	00		 push	 DWORD PTR [esi+5348]
  0011e	b9 00 00 00 00	 mov	 ecx, OFFSET ?prj@@3VCProject@@A ; prj
  00123	e8 00 00 00 00	 call	 ?GetItemProp@CProject@@QAEPAUItemProp@@H@Z ; CProject::GetItemProp

; 2049 : 		if( pItemProp )

  00128	85 c0		 test	 eax, eax
  0012a	74 3a		 je	 SHORT $LN10@SetDamaged

; 2050 : 			SetMotion( pItemProp->dwUseMotion + MTA_FDMG1, ANILOOP_1PLAY, MOP_FIXED | MOP_NO_TRANS );

  0012c	8b 80 b8 01 00
	00		 mov	 eax, DWORD PTR [eax+440]

; 2056 : }

  00132	8b ce		 mov	 ecx, esi
  00134	8b 16		 mov	 edx, DWORD PTR [esi]
  00136	83 c0 09	 add	 eax, 9
  00139	6a 06		 push	 6
  0013b	6a 01		 push	 1
  0013d	50		 push	 eax
  0013e	ff 52 04	 call	 DWORD PTR [edx+4]
  00141	5e		 pop	 esi
  00142	5d		 pop	 ebp
  00143	c2 08 00	 ret	 8
$LN12@SetDamaged:
; File C:\IAGOS\server\v18\Source\Source\_Common\xUtil.h

; 28   : inline int	random( int nNum ) { return rand() % nNum; }

  00146	e8 00 00 00 00	 call	 _rand
  0014b	25 01 00 00 80	 and	 eax, -2147483647	; 80000001H
  00150	79 05		 jns	 SHORT $LN44@SetDamaged
  00152	48		 dec	 eax
  00153	83 c8 fe	 or	 eax, -2			; fffffffeH
  00156	40		 inc	 eax
$LN44@SetDamaged:
; File C:\IAGOS\server\v18\Source\Source\_Common\MoverAttack.cpp

; 2056 : }

  00157	8b 16		 mov	 edx, DWORD PTR [esi]
  00159	83 c0 06	 add	 eax, 6
  0015c	6a 00		 push	 0
  0015e	6a 01		 push	 1
  00160	50		 push	 eax
  00161	8b ce		 mov	 ecx, esi
  00163	ff 52 04	 call	 DWORD PTR [edx+4]
$LN10@SetDamaged:
  00166	5e		 pop	 esi
  00167	5d		 pop	 ebp
  00168	c2 08 00	 ret	 8
?SetDamagedMotion@CMover@@QAEXPAV1@K@Z ENDP		; CMover::SetDamagedMotion
_TEXT	ENDS
; Function compile flags: /Ogtp
; File C:\IAGOS\server\v18\Source\Source\_Common\Mover.h
; File C:\IAGOS\server\v18\Source\Source\_Common\Project.h
; File C:\IAGOS\server\v18\Source\Source\_Common\Mover.h
; File C:\IAGOS\server\v18\Source\Source\_Common\Project.h
; File C:\IAGOS\server\v18\Source\Source\_Common\Mover.h
;	COMDAT ?GetPropA@CMover@@QAEPAUMoverProp@@XZ
_TEXT	SEGMENT
?GetPropA@CMover@@QAEPAUMoverProp@@XZ PROC		; CMover::GetPropA, COMDAT
; _this$ = ecx

; 1020 : 	MoverProp*		GetProp() { return prj.GetMoverProp( m_dwIndex ); }	// °´ĂĽŔÇ ÇÁ·ÎĆŰĆĽ ľň±â 	

  00000	8b 81 74 01 00
	00		 mov	 eax, DWORD PTR [ecx+372]
; File C:\IAGOS\server\v18\Source\Source\_Common\Project.h

; 1406 : 	VERIFY_RANGE( nIndex, 0, m_nMoverPropSize, "GetMoverProp range_error", NULL );

  00006	8b 0d b4 01 00
	00		 mov	 ecx, DWORD PTR ?prj@@3VCProject@@A+436
  0000c	85 c0		 test	 eax, eax
  0000e	78 11		 js	 SHORT $LN8@GetPropA
  00010	3b c1		 cmp	 eax, ecx
  00012	7d 0d		 jge	 SHORT $LN8@GetPropA

; 1407 : 	return m_pPropMover + nIndex;

  00014	69 c0 90 06 00
	00		 imul	 eax, eax, 1680
  0001a	03 05 b8 01 00
	00		 add	 eax, DWORD PTR ?prj@@3VCProject@@A+440
; File C:\IAGOS\server\v18\Source\Source\_Common\Mover.h

; 1020 : 	MoverProp*		GetProp() { return prj.GetMoverProp( m_dwIndex ); }	// °´ĂĽŔÇ ÇÁ·ÎĆŰĆĽ ľň±â 	

  00020	c3		 ret	 0
$LN8@GetPropA:
; File C:\IAGOS\server\v18\Source\Source\_Common\Project.h

; 579  : 	LPCTSTR szErr = Error( _T( "%s min:%d, max:%d, index:%d" ), szMsg, nMin, nMax, nIndex ); 

  00021	50		 push	 eax
  00022	51		 push	 ecx
  00023	6a 00		 push	 0
  00025	68 00 00 00 00	 push	 OFFSET ??_C@_0BJ@GKPOBPPI@GetMoverProp?5range_error@
  0002a	68 00 00 00 00	 push	 OFFSET ??_C@_0BM@HMFGHCP@?$CFs?5min?3?$CFd?0?5max?3?$CFd?0?5index?3?$CFd@
  0002f	e8 00 00 00 00	 call	 ?Error@@YAPBDPBDZZ	; Error
  00034	83 c4 14	 add	 esp, 20			; 00000014H
; File C:\IAGOS\server\v18\Source\Source\_Common\Mover.h

; 1020 : 	MoverProp*		GetProp() { return prj.GetMoverProp( m_dwIndex ); }	// °´ĂĽŔÇ ÇÁ·ÎĆŰĆĽ ľň±â 	

  00037	33 c0		 xor	 eax, eax
  00039	c3		 ret	 0
?GetPropA@CMover@@QAEPAUMoverProp@@XZ ENDP		; CMover::GetPropA
_TEXT	ENDS
; Function compile flags: /Ogtp
; File C:\Program Files\Microsoft Visual Studio\2022\Professional\VC\Tools\MSVC\14.44.35207\include\xtree
;	COMDAT ?_Insert_node@?$_Tree_val@U?$_Tree_simple_types@U?$pair@$$CBKV?$queue@USFXHIT_COUNT@@V?$deque@USFXHIT_COUNT@@V?$allocator@USFXHIT_COUNT@@@std@@@std@@@std@@@std@@@std@@@std@@QAEPAU?$_Tree_node@U?$pair@$$CBKV?$queue@USFXHIT_COUNT@@V?$deque@USFXHIT_COUNT@@V?$allocator@USFXHIT_COUNT@@@std@@@std@@@std@@@std@@PAX@2@U?$_Tree_id@PAU?$_Tree_node@U?$pair@$$CBKV?$queue@USFXHIT_COUNT@@V?$deque@USFXHIT_COUNT@@V?$allocator@USFXHIT_COUNT@@@std@@@std@@@std@@@std@@PAX@std@@@2@QAU32@@Z
_TEXT	SEGMENT
__Head$1$ = -4						; size = 4
__Loc$ = 8						; size = 8
__Newnode$ = 16						; size = 4
?_Insert_node@?$_Tree_val@U?$_Tree_simple_types@U?$pair@$$CBKV?$queue@USFXHIT_COUNT@@V?$deque@USFXHIT_COUNT@@V?$allocator@USFXHIT_COUNT@@@std@@@std@@@std@@@std@@@std@@@std@@QAEPAU?$_Tree_node@U?$pair@$$CBKV?$queue@USFXHIT_COUNT@@V?$deque@USFXHIT_COUNT@@V?$allocator@USFXHIT_COUNT@@@std@@@std@@@std@@@std@@PAX@2@U?$_Tree_id@PAU?$_Tree_node@U?$pair@$$CBKV?$queue@USFXHIT_COUNT@@V?$deque@USFXHIT_COUNT@@V?$allocator@USFXHIT_COUNT@@@std@@@std@@@std@@@std@@PAX@std@@@2@QAU32@@Z PROC ; std::_Tree_val<std::_Tree_simple_types<std::pair<unsigned long const ,std::queue<SFXHIT_COUNT,std::deque<SFXHIT_COUNT,std::allocator<SFXHIT_COUNT> > > > > >::_Insert_node, COMDAT
; _this$ = ecx

; 669  :     _Nodeptr _Insert_node(const _Tree_id<_Nodeptr> _Loc, const _Nodeptr _Newnode) noexcept {

  00000	55		 push	 ebp
  00001	8b ec		 mov	 ebp, esp
  00003	51		 push	 ecx

; 670  :         ++_Mysize;
; 671  :         const auto _Head  = _Myhead;
; 672  :         _Newnode->_Parent = _Loc._Parent;

  00004	8b 55 08	 mov	 edx, DWORD PTR __Loc$[ebp]
  00007	53		 push	 ebx
  00008	8b d9		 mov	 ebx, ecx
  0000a	57		 push	 edi
  0000b	8b 7d 10	 mov	 edi, DWORD PTR __Newnode$[ebp]
  0000e	8b 03		 mov	 eax, DWORD PTR [ebx]
  00010	ff 43 04	 inc	 DWORD PTR [ebx+4]
  00013	89 45 fc	 mov	 DWORD PTR __Head$1$[ebp], eax
  00016	89 57 04	 mov	 DWORD PTR [edi+4], edx

; 673  :         if (_Loc._Parent == _Head) { // first node in tree, just set head values

  00019	3b d0		 cmp	 edx, eax
  0001b	75 16		 jne	 SHORT $LN5@Insert_nod

; 674  :             _Head->_Left     = _Newnode;

  0001d	89 38		 mov	 DWORD PTR [eax], edi

; 675  :             _Head->_Parent   = _Newnode;

  0001f	89 78 04	 mov	 DWORD PTR [eax+4], edi

; 676  :             _Head->_Right    = _Newnode;

  00022	89 78 08	 mov	 DWORD PTR [eax+8], edi

; 735  :         return _Newnode;
; 736  :     }

  00025	8b c7		 mov	 eax, edi
  00027	c6 47 0c 01	 mov	 BYTE PTR [edi+12], 1
  0002b	5f		 pop	 edi
  0002c	5b		 pop	 ebx
  0002d	8b e5		 mov	 esp, ebp
  0002f	5d		 pop	 ebp
  00030	c2 0c 00	 ret	 12			; 0000000cH
$LN5@Insert_nod:

; 677  :             _Newnode->_Color = _Black; // the root is black
; 678  :             return _Newnode;
; 679  :         }
; 680  : 
; 681  :         _STL_INTERNAL_CHECK(_Loc._Child != _Tree_child::_Unused);
; 682  :         if (_Loc._Child == _Tree_child::_Right) { // add to right of _Loc._Parent

  00033	83 7d 0c 00	 cmp	 DWORD PTR __Loc$[ebp+4], 0
  00037	75 0d		 jne	 SHORT $LN6@Insert_nod

; 683  :             _STL_INTERNAL_CHECK(_Loc._Parent->_Right->_Isnil);
; 684  :             _Loc._Parent->_Right = _Newnode;

  00039	89 7a 08	 mov	 DWORD PTR [edx+8], edi

; 685  :             if (_Loc._Parent == _Head->_Right) { // remember rightmost node

  0003c	3b 50 08	 cmp	 edx, DWORD PTR [eax+8]
  0003f	75 0d		 jne	 SHORT $LN9@Insert_nod

; 686  :                 _Head->_Right = _Newnode;

  00041	89 78 08	 mov	 DWORD PTR [eax+8], edi

; 687  :             }
; 688  :         } else { // add to left of _Loc._Parent

  00044	eb 08		 jmp	 SHORT $LN9@Insert_nod
$LN6@Insert_nod:

; 689  :             _STL_INTERNAL_CHECK(_Loc._Parent->_Left->_Isnil);
; 690  :             _Loc._Parent->_Left = _Newnode;

  00046	89 3a		 mov	 DWORD PTR [edx], edi

; 691  :             if (_Loc._Parent == _Head->_Left) { // remember leftmost node

  00048	3b 10		 cmp	 edx, DWORD PTR [eax]
  0004a	75 02		 jne	 SHORT $LN9@Insert_nod

; 692  :                 _Head->_Left = _Newnode;

  0004c	89 38		 mov	 DWORD PTR [eax], edi
$LN9@Insert_nod:

; 693  :             }
; 694  :         }
; 695  : 
; 696  :         for (_Nodeptr _Pnode = _Newnode; _Pnode->_Parent->_Color == _Red;) {

  0004e	8b 4f 04	 mov	 ecx, DWORD PTR [edi+4]
  00051	8b c7		 mov	 eax, edi
  00053	80 79 0c 00	 cmp	 BYTE PTR [ecx+12], 0
  00057	0f 85 7d 01 00
	00		 jne	 $LN3@Insert_nod
  0005d	56		 push	 esi
  0005e	66 90		 npad	 2
$LL4@Insert_nod:

; 697  :             if (_Pnode->_Parent == _Pnode->_Parent->_Parent->_Left) { // fixup red-red in left subtree

  00060	8b 50 04	 mov	 edx, DWORD PTR [eax+4]
  00063	8b 72 04	 mov	 esi, DWORD PTR [edx+4]
  00066	8b 0e		 mov	 ecx, DWORD PTR [esi]
  00068	3b d1		 cmp	 edx, ecx
  0006a	0f 85 aa 00 00
	00		 jne	 $LN10@Insert_nod

; 698  :                 const auto _Parent_sibling = _Pnode->_Parent->_Parent->_Right;

  00070	8b 4e 08	 mov	 ecx, DWORD PTR [esi+8]

; 699  :                 if (_Parent_sibling->_Color == _Red) { // parent's sibling has two red children, blacken both

  00073	80 79 0c 00	 cmp	 BYTE PTR [ecx+12], 0
  00077	0f 84 a3 00 00
	00		 je	 $LN82@Insert_nod

; 700  :                     _Pnode->_Parent->_Color          = _Black;
; 701  :                     _Parent_sibling->_Color          = _Black;
; 702  :                     _Pnode->_Parent->_Parent->_Color = _Red;
; 703  :                     _Pnode                           = _Pnode->_Parent->_Parent;
; 704  :                 } else { // parent's sibling has red and black children
; 705  :                     if (_Pnode == _Pnode->_Parent->_Right) { // rotate right child to left

  0007d	8b 72 08	 mov	 esi, DWORD PTR [edx+8]
  00080	3b c6		 cmp	 eax, esi
  00082	75 37		 jne	 SHORT $LN57@Insert_nod

; 485  :         _Wherenode->_Right = _Pnode->_Left;

  00084	8b 0e		 mov	 ecx, DWORD PTR [esi]

; 706  :                         _Pnode = _Pnode->_Parent;

  00086	8b c2		 mov	 eax, edx

; 485  :         _Wherenode->_Right = _Pnode->_Left;

  00088	89 4a 08	 mov	 DWORD PTR [edx+8], ecx

; 486  : 
; 487  :         if (!_Pnode->_Left->_Isnil) {

  0008b	8b 0e		 mov	 ecx, DWORD PTR [esi]
  0008d	80 79 0d 00	 cmp	 BYTE PTR [ecx+13], 0
  00091	75 03		 jne	 SHORT $LN21@Insert_nod

; 488  :             _Pnode->_Left->_Parent = _Wherenode;

  00093	89 41 04	 mov	 DWORD PTR [ecx+4], eax
$LN21@Insert_nod:

; 489  :         }
; 490  : 
; 491  :         _Pnode->_Parent = _Wherenode->_Parent;

  00096	8b 4a 04	 mov	 ecx, DWORD PTR [edx+4]
  00099	89 4e 04	 mov	 DWORD PTR [esi+4], ecx

; 492  : 
; 493  :         if (_Wherenode == _Myhead->_Parent) {

  0009c	8b 0b		 mov	 ecx, DWORD PTR [ebx]
  0009e	3b 41 04	 cmp	 eax, DWORD PTR [ecx+4]
  000a1	75 05		 jne	 SHORT $LN22@Insert_nod

; 494  :             _Myhead->_Parent = _Pnode;

  000a3	89 71 04	 mov	 DWORD PTR [ecx+4], esi
  000a6	eb 0e		 jmp	 SHORT $LN25@Insert_nod
$LN22@Insert_nod:

; 495  :         } else if (_Wherenode == _Wherenode->_Parent->_Left) {

  000a8	8b 4a 04	 mov	 ecx, DWORD PTR [edx+4]
  000ab	3b 01		 cmp	 eax, DWORD PTR [ecx]
  000ad	75 04		 jne	 SHORT $LN24@Insert_nod

; 496  :             _Wherenode->_Parent->_Left = _Pnode;

  000af	89 31		 mov	 DWORD PTR [ecx], esi

; 497  :         } else {

  000b1	eb 03		 jmp	 SHORT $LN25@Insert_nod
$LN24@Insert_nod:

; 498  :             _Wherenode->_Parent->_Right = _Pnode;

  000b3	89 71 08	 mov	 DWORD PTR [ecx+8], esi
$LN25@Insert_nod:

; 499  :         }
; 500  : 
; 501  :         _Pnode->_Left       = _Wherenode;

  000b6	89 06		 mov	 DWORD PTR [esi], eax

; 502  :         _Wherenode->_Parent = _Pnode;

  000b8	89 70 04	 mov	 DWORD PTR [eax+4], esi
$LN57@Insert_nod:

; 707  :                         _Lrotate(_Pnode);
; 708  :                     }
; 709  : 
; 710  :                     _Pnode->_Parent->_Color          = _Black; // propagate red up

  000bb	8b 48 04	 mov	 ecx, DWORD PTR [eax+4]
  000be	c6 41 0c 01	 mov	 BYTE PTR [ecx+12], 1

; 711  :                     _Pnode->_Parent->_Parent->_Color = _Red;

  000c2	8b 48 04	 mov	 ecx, DWORD PTR [eax+4]
  000c5	8b 49 04	 mov	 ecx, DWORD PTR [ecx+4]
  000c8	c6 41 0c 00	 mov	 BYTE PTR [ecx+12], 0

; 712  :                     _Rrotate(_Pnode->_Parent->_Parent);

  000cc	8b 48 04	 mov	 ecx, DWORD PTR [eax+4]
  000cf	8b 51 04	 mov	 edx, DWORD PTR [ecx+4]

; 506  :         _Nodeptr _Pnode   = _Wherenode->_Left;

  000d2	8b 32		 mov	 esi, DWORD PTR [edx]

; 507  :         _Wherenode->_Left = _Pnode->_Right;

  000d4	8b 4e 08	 mov	 ecx, DWORD PTR [esi+8]
  000d7	89 0a		 mov	 DWORD PTR [edx], ecx

; 508  : 
; 509  :         if (!_Pnode->_Right->_Isnil) {

  000d9	8b 4e 08	 mov	 ecx, DWORD PTR [esi+8]
  000dc	80 79 0d 00	 cmp	 BYTE PTR [ecx+13], 0
  000e0	75 03		 jne	 SHORT $LN29@Insert_nod

; 510  :             _Pnode->_Right->_Parent = _Wherenode;

  000e2	89 51 04	 mov	 DWORD PTR [ecx+4], edx
$LN29@Insert_nod:

; 511  :         }
; 512  : 
; 513  :         _Pnode->_Parent = _Wherenode->_Parent;

  000e5	8b 4a 04	 mov	 ecx, DWORD PTR [edx+4]
  000e8	89 4e 04	 mov	 DWORD PTR [esi+4], ecx

; 514  : 
; 515  :         if (_Wherenode == _Myhead->_Parent) {

  000eb	8b 0b		 mov	 ecx, DWORD PTR [ebx]
  000ed	3b 51 04	 cmp	 edx, DWORD PTR [ecx+4]
  000f0	75 0b		 jne	 SHORT $LN30@Insert_nod

; 516  :             _Myhead->_Parent = _Pnode;

  000f2	89 71 04	 mov	 DWORD PTR [ecx+4], esi

; 521  :         }
; 522  : 
; 523  :         _Pnode->_Right      = _Wherenode;

  000f5	89 56 08	 mov	 DWORD PTR [esi+8], edx

; 713  :                 }
; 714  :             } else { // fixup red-red in right subtree

  000f8	e9 cc 00 00 00	 jmp	 $LN81@Insert_nod
$LN30@Insert_nod:

; 517  :         } else if (_Wherenode == _Wherenode->_Parent->_Right) {

  000fd	8b 4a 04	 mov	 ecx, DWORD PTR [edx+4]
  00100	3b 51 08	 cmp	 edx, DWORD PTR [ecx+8]
  00103	75 0b		 jne	 SHORT $LN32@Insert_nod

; 518  :             _Wherenode->_Parent->_Right = _Pnode;

  00105	89 71 08	 mov	 DWORD PTR [ecx+8], esi

; 521  :         }
; 522  : 
; 523  :         _Pnode->_Right      = _Wherenode;

  00108	89 56 08	 mov	 DWORD PTR [esi+8], edx

; 713  :                 }
; 714  :             } else { // fixup red-red in right subtree

  0010b	e9 b9 00 00 00	 jmp	 $LN81@Insert_nod
$LN32@Insert_nod:

; 520  :             _Wherenode->_Parent->_Left = _Pnode;

  00110	89 31		 mov	 DWORD PTR [ecx], esi

; 521  :         }
; 522  : 
; 523  :         _Pnode->_Right      = _Wherenode;

  00112	89 56 08	 mov	 DWORD PTR [esi+8], edx

; 713  :                 }
; 714  :             } else { // fixup red-red in right subtree

  00115	e9 af 00 00 00	 jmp	 $LN81@Insert_nod
$LN10@Insert_nod:

; 715  :                 const auto _Parent_sibling = _Pnode->_Parent->_Parent->_Left;
; 716  :                 if (_Parent_sibling->_Color == _Red) { // parent's sibling has two red children, blacken both

  0011a	80 79 0c 00	 cmp	 BYTE PTR [ecx+12], 0
  0011e	75 1d		 jne	 SHORT $LN15@Insert_nod
$LN82@Insert_nod:

; 693  :             }
; 694  :         }
; 695  : 
; 696  :         for (_Nodeptr _Pnode = _Newnode; _Pnode->_Parent->_Color == _Red;) {

  00120	c6 42 0c 01	 mov	 BYTE PTR [edx+12], 1
  00124	c6 41 0c 01	 mov	 BYTE PTR [ecx+12], 1
  00128	8b 48 04	 mov	 ecx, DWORD PTR [eax+4]
  0012b	8b 49 04	 mov	 ecx, DWORD PTR [ecx+4]
  0012e	c6 41 0c 00	 mov	 BYTE PTR [ecx+12], 0
  00132	8b 48 04	 mov	 ecx, DWORD PTR [eax+4]
  00135	8b 41 04	 mov	 eax, DWORD PTR [ecx+4]
  00138	e9 8f 00 00 00	 jmp	 $LN2@Insert_nod
$LN15@Insert_nod:

; 717  :                     _Pnode->_Parent->_Color          = _Black;
; 718  :                     _Parent_sibling->_Color          = _Black;
; 719  :                     _Pnode->_Parent->_Parent->_Color = _Red;
; 720  :                     _Pnode                           = _Pnode->_Parent->_Parent;
; 721  :                 } else { // parent's sibling has red and black children
; 722  :                     if (_Pnode == _Pnode->_Parent->_Left) { // rotate left child to right

  0013d	8b 32		 mov	 esi, DWORD PTR [edx]
  0013f	3b c6		 cmp	 eax, esi
  00141	75 3a		 jne	 SHORT $LN42@Insert_nod

; 507  :         _Wherenode->_Left = _Pnode->_Right;

  00143	8b 4e 08	 mov	 ecx, DWORD PTR [esi+8]

; 723  :                         _Pnode = _Pnode->_Parent;

  00146	8b c2		 mov	 eax, edx

; 507  :         _Wherenode->_Left = _Pnode->_Right;

  00148	89 08		 mov	 DWORD PTR [eax], ecx

; 508  : 
; 509  :         if (!_Pnode->_Right->_Isnil) {

  0014a	8b 4e 08	 mov	 ecx, DWORD PTR [esi+8]
  0014d	80 79 0d 00	 cmp	 BYTE PTR [ecx+13], 0
  00151	75 03		 jne	 SHORT $LN37@Insert_nod

; 510  :             _Pnode->_Right->_Parent = _Wherenode;

  00153	89 41 04	 mov	 DWORD PTR [ecx+4], eax
$LN37@Insert_nod:

; 511  :         }
; 512  : 
; 513  :         _Pnode->_Parent = _Wherenode->_Parent;

  00156	8b 4a 04	 mov	 ecx, DWORD PTR [edx+4]
  00159	89 4e 04	 mov	 DWORD PTR [esi+4], ecx

; 514  : 
; 515  :         if (_Wherenode == _Myhead->_Parent) {

  0015c	8b 0b		 mov	 ecx, DWORD PTR [ebx]
  0015e	3b 41 04	 cmp	 eax, DWORD PTR [ecx+4]
  00161	75 05		 jne	 SHORT $LN38@Insert_nod

; 516  :             _Myhead->_Parent = _Pnode;

  00163	89 71 04	 mov	 DWORD PTR [ecx+4], esi
  00166	eb 0f		 jmp	 SHORT $LN41@Insert_nod
$LN38@Insert_nod:

; 517  :         } else if (_Wherenode == _Wherenode->_Parent->_Right) {

  00168	8b 4a 04	 mov	 ecx, DWORD PTR [edx+4]
  0016b	3b 41 08	 cmp	 eax, DWORD PTR [ecx+8]
  0016e	75 05		 jne	 SHORT $LN40@Insert_nod

; 518  :             _Wherenode->_Parent->_Right = _Pnode;

  00170	89 71 08	 mov	 DWORD PTR [ecx+8], esi

; 519  :         } else {

  00173	eb 02		 jmp	 SHORT $LN41@Insert_nod
$LN40@Insert_nod:

; 520  :             _Wherenode->_Parent->_Left = _Pnode;

  00175	89 31		 mov	 DWORD PTR [ecx], esi
$LN41@Insert_nod:

; 521  :         }
; 522  : 
; 523  :         _Pnode->_Right      = _Wherenode;

  00177	89 46 08	 mov	 DWORD PTR [esi+8], eax

; 524  :         _Wherenode->_Parent = _Pnode;

  0017a	89 70 04	 mov	 DWORD PTR [eax+4], esi
$LN42@Insert_nod:

; 724  :                         _Rrotate(_Pnode);
; 725  :                     }
; 726  : 
; 727  :                     _Pnode->_Parent->_Color          = _Black; // propagate red up

  0017d	8b 48 04	 mov	 ecx, DWORD PTR [eax+4]
  00180	c6 41 0c 01	 mov	 BYTE PTR [ecx+12], 1

; 728  :                     _Pnode->_Parent->_Parent->_Color = _Red;

  00184	8b 48 04	 mov	 ecx, DWORD PTR [eax+4]
  00187	8b 49 04	 mov	 ecx, DWORD PTR [ecx+4]
  0018a	c6 41 0c 00	 mov	 BYTE PTR [ecx+12], 0

; 729  :                     _Lrotate(_Pnode->_Parent->_Parent);

  0018e	8b 48 04	 mov	 ecx, DWORD PTR [eax+4]
  00191	8b 51 04	 mov	 edx, DWORD PTR [ecx+4]

; 484  :         _Nodeptr _Pnode    = _Wherenode->_Right;

  00194	8b 72 08	 mov	 esi, DWORD PTR [edx+8]

; 485  :         _Wherenode->_Right = _Pnode->_Left;

  00197	8b 0e		 mov	 ecx, DWORD PTR [esi]
  00199	89 4a 08	 mov	 DWORD PTR [edx+8], ecx

; 486  : 
; 487  :         if (!_Pnode->_Left->_Isnil) {

  0019c	8b 0e		 mov	 ecx, DWORD PTR [esi]
  0019e	80 79 0d 00	 cmp	 BYTE PTR [ecx+13], 0
  001a2	75 03		 jne	 SHORT $LN45@Insert_nod

; 488  :             _Pnode->_Left->_Parent = _Wherenode;

  001a4	89 51 04	 mov	 DWORD PTR [ecx+4], edx
$LN45@Insert_nod:

; 489  :         }
; 490  : 
; 491  :         _Pnode->_Parent = _Wherenode->_Parent;

  001a7	8b 4a 04	 mov	 ecx, DWORD PTR [edx+4]
  001aa	89 4e 04	 mov	 DWORD PTR [esi+4], ecx

; 492  : 
; 493  :         if (_Wherenode == _Myhead->_Parent) {

  001ad	8b 0b		 mov	 ecx, DWORD PTR [ebx]
  001af	3b 51 04	 cmp	 edx, DWORD PTR [ecx+4]
  001b2	75 05		 jne	 SHORT $LN46@Insert_nod

; 494  :             _Myhead->_Parent = _Pnode;

  001b4	89 71 04	 mov	 DWORD PTR [ecx+4], esi
  001b7	eb 0e		 jmp	 SHORT $LN49@Insert_nod
$LN46@Insert_nod:

; 495  :         } else if (_Wherenode == _Wherenode->_Parent->_Left) {

  001b9	8b 4a 04	 mov	 ecx, DWORD PTR [edx+4]
  001bc	3b 11		 cmp	 edx, DWORD PTR [ecx]
  001be	75 04		 jne	 SHORT $LN48@Insert_nod

; 496  :             _Wherenode->_Parent->_Left = _Pnode;

  001c0	89 31		 mov	 DWORD PTR [ecx], esi

; 497  :         } else {

  001c2	eb 03		 jmp	 SHORT $LN49@Insert_nod
$LN48@Insert_nod:

; 498  :             _Wherenode->_Parent->_Right = _Pnode;

  001c4	89 71 08	 mov	 DWORD PTR [ecx+8], esi
$LN49@Insert_nod:

; 499  :         }
; 500  : 
; 501  :         _Pnode->_Left       = _Wherenode;

  001c7	89 16		 mov	 DWORD PTR [esi], edx
$LN81@Insert_nod:

; 693  :             }
; 694  :         }
; 695  : 
; 696  :         for (_Nodeptr _Pnode = _Newnode; _Pnode->_Parent->_Color == _Red;) {

  001c9	89 72 04	 mov	 DWORD PTR [edx+4], esi
$LN2@Insert_nod:
  001cc	8b 48 04	 mov	 ecx, DWORD PTR [eax+4]
  001cf	80 79 0c 00	 cmp	 BYTE PTR [ecx+12], 0
  001d3	0f 84 87 fe ff
	ff		 je	 $LL4@Insert_nod
  001d9	5e		 pop	 esi
$LN3@Insert_nod:

; 730  :                 }
; 731  :             }
; 732  :         }
; 733  : 
; 734  :         _Head->_Parent->_Color = _Black; // root is always black

  001da	8b 45 fc	 mov	 eax, DWORD PTR __Head$1$[ebp]
  001dd	8b 40 04	 mov	 eax, DWORD PTR [eax+4]
  001e0	c6 40 0c 01	 mov	 BYTE PTR [eax+12], 1

; 735  :         return _Newnode;
; 736  :     }

  001e4	8b c7		 mov	 eax, edi
  001e6	5f		 pop	 edi
  001e7	5b		 pop	 ebx
  001e8	8b e5		 mov	 esp, ebp
  001ea	5d		 pop	 ebp
  001eb	c2 0c 00	 ret	 12			; 0000000cH
?_Insert_node@?$_Tree_val@U?$_Tree_simple_types@U?$pair@$$CBKV?$queue@USFXHIT_COUNT@@V?$deque@USFXHIT_COUNT@@V?$allocator@USFXHIT_COUNT@@@std@@@std@@@std@@@std@@@std@@@std@@QAEPAU?$_Tree_node@U?$pair@$$CBKV?$queue@USFXHIT_COUNT@@V?$deque@USFXHIT_COUNT@@V?$allocator@USFXHIT_COUNT@@@std@@@std@@@std@@@std@@PAX@2@U?$_Tree_id@PAU?$_Tree_node@U?$pair@$$CBKV?$queue@USFXHIT_COUNT@@V?$deque@USFXHIT_COUNT@@V?$allocator@USFXHIT_COUNT@@@std@@@std@@@std@@@std@@PAX@std@@@2@QAU32@@Z ENDP ; std::_Tree_val<std::_Tree_simple_types<std::pair<unsigned long const ,std::queue<SFXHIT_COUNT,std::deque<SFXHIT_COUNT,std::allocator<SFXHIT_COUNT> > > > > >::_Insert_node
_TEXT	ENDS
; Function compile flags: /Ogtp
; File C:\Program Files\Microsoft Visual Studio\2022\Professional\VC\Tools\MSVC\14.44.35207\include\xtree
; File C:\Program Files\Microsoft Visual Studio\2022\Professional\VC\Tools\MSVC\14.44.35207\include\utility
; File C:\Program Files\Microsoft Visual Studio\2022\Professional\VC\Tools\MSVC\14.44.35207\include\xtree
;	COMDAT ?_Extract@?$_Tree_val@U?$_Tree_simple_types@U?$pair@$$CBKV?$queue@USFXHIT_COUNT@@V?$deque@USFXHIT_COUNT@@V?$allocator@USFXHIT_COUNT@@@std@@@std@@@std@@@std@@@std@@@std@@QAEPAU?$_Tree_node@U?$pair@$$CBKV?$queue@USFXHIT_COUNT@@V?$deque@USFXHIT_COUNT@@V?$allocator@USFXHIT_COUNT@@@std@@@std@@@std@@@std@@PAX@2@V?$_Tree_unchecked_const_iterator@V?$_Tree_val@U?$_Tree_simple_types@U?$pair@$$CBKV?$queue@USFXHIT_COUNT@@V?$deque@USFXHIT_COUNT@@V?$allocator@USFXHIT_COUNT@@@std@@@std@@@std@@@std@@@std@@@std@@U_Iterator_base0@2@@2@@Z
_TEXT	SEGMENT
tv1039 = -16						; size = 4
tv1073 = -12						; size = 4
tv1093 = -12						; size = 4
$T1 = -12						; size = 4
__Erasednode$1$ = -8					; size = 4
_this$1$ = -4						; size = 4
__Where$ = 8						; size = 4
?_Extract@?$_Tree_val@U?$_Tree_simple_types@U?$pair@$$CBKV?$queue@USFXHIT_COUNT@@V?$deque@USFXHIT_COUNT@@V?$allocator@USFXHIT_COUNT@@@std@@@std@@@std@@@std@@@std@@@std@@QAEPAU?$_Tree_node@U?$pair@$$CBKV?$queue@USFXHIT_COUNT@@V?$deque@USFXHIT_COUNT@@V?$allocator@USFXHIT_COUNT@@@std@@@std@@@std@@@std@@PAX@2@V?$_Tree_unchecked_const_iterator@V?$_Tree_val@U?$_Tree_simple_types@U?$pair@$$CBKV?$queue@USFXHIT_COUNT@@V?$deque@USFXHIT_COUNT@@V?$allocator@USFXHIT_COUNT@@@std@@@std@@@std@@@std@@@std@@@std@@U_Iterator_base0@2@@2@@Z PROC ; std::_Tree_val<std::_Tree_simple_types<std::pair<unsigned long const ,std::queue<SFXHIT_COUNT,std::deque<SFXHIT_COUNT,std::allocator<SFXHIT_COUNT> > > > > >::_Extract, COMDAT
; _this$ = ecx

; 527  :     _Nodeptr _Extract(_Unchecked_const_iterator _Where) noexcept {

  00000	55		 push	 ebp
  00001	8b ec		 mov	 ebp, esp
  00003	83 ec 10	 sub	 esp, 16			; 00000010H

; 528  :         _Nodeptr _Erasednode = _Where._Ptr; // node to erase

  00006	8b 45 08	 mov	 eax, DWORD PTR __Where$[ebp]
  00009	53		 push	 ebx
  0000a	56		 push	 esi
  0000b	8b d9		 mov	 ebx, ecx
  0000d	89 45 f8	 mov	 DWORD PTR __Erasednode$1$[ebp], eax
  00010	57		 push	 edi

; 529  :         ++_Where; // save successor iterator for return

  00011	8d 4d 08	 lea	 ecx, DWORD PTR __Where$[ebp]
  00014	89 5d fc	 mov	 DWORD PTR _this$1$[ebp], ebx
  00017	e8 00 00 00 00	 call	 ??E?$_Tree_unchecked_const_iterator@V?$_Tree_val@U?$_Tree_simple_types@U?$pair@$$CBKV?$queue@USFXHIT_COUNT@@V?$deque@USFXHIT_COUNT@@V?$allocator@USFXHIT_COUNT@@@std@@@std@@@std@@@std@@@std@@@std@@U_Iterator_base0@2@@std@@QAEAAV01@XZ ; std::_Tree_unchecked_const_iterator<std::_Tree_val<std::_Tree_simple_types<std::pair<unsigned long const ,std::queue<SFXHIT_COUNT,std::deque<SFXHIT_COUNT,std::allocator<SFXHIT_COUNT> > > > > >,std::_Iterator_base0>::operator++

; 530  : 
; 531  :         _Nodeptr _Fixnode; // the node to recolor as needed
; 532  :         _Nodeptr _Fixnodeparent; // parent of _Fixnode (which may be nil)
; 533  :         _Nodeptr _Pnode = _Erasednode;
; 534  : 
; 535  :         if (_Pnode->_Left->_Isnil) {

  0001c	8b 4d f8	 mov	 ecx, DWORD PTR __Erasednode$1$[ebp]
  0001f	8b 01		 mov	 eax, DWORD PTR [ecx]
  00021	8b 79 08	 mov	 edi, DWORD PTR [ecx+8]
  00024	80 78 0d 00	 cmp	 BYTE PTR [eax+13], 0
  00028	75 18		 jne	 SHORT $LN94@Extract

; 536  :             _Fixnode = _Pnode->_Right; // stitch up right subtree
; 537  :         } else if (_Pnode->_Right->_Isnil) {

  0002a	80 7f 0d 00	 cmp	 BYTE PTR [edi+13], 0
  0002e	74 04		 je	 SHORT $LN7@Extract

; 538  :             _Fixnode = _Pnode->_Left; // stitch up left subtree

  00030	8b f8		 mov	 edi, eax

; 539  :         } else { // two subtrees, must lift successor node to replace erased

  00032	eb 0e		 jmp	 SHORT $LN94@Extract
$LN7@Extract:

; 540  :             _Pnode   = _Where._Ptr; // _Pnode is successor node

  00034	8b 55 08	 mov	 edx, DWORD PTR __Where$[ebp]

; 541  :             _Fixnode = _Pnode->_Right; // _Fixnode is only subtree

  00037	8b 7a 08	 mov	 edi, DWORD PTR [edx+8]
  0003a	3b d1		 cmp	 edx, ecx

; 542  :         }
; 543  : 
; 544  :         if (_Pnode == _Erasednode) { // at most one subtree, relink it

  0003c	0f 85 91 00 00
	00		 jne	 $LN9@Extract
$LN94@Extract:

; 545  :             _Fixnodeparent = _Erasednode->_Parent;
; 546  :             if (!_Fixnode->_Isnil) {

  00042	80 7f 0d 00	 cmp	 BYTE PTR [edi+13], 0
  00046	8b 71 04	 mov	 esi, DWORD PTR [ecx+4]
  00049	75 03		 jne	 SHORT $LN11@Extract

; 547  :                 _Fixnode->_Parent = _Fixnodeparent; // link up

  0004b	89 77 04	 mov	 DWORD PTR [edi+4], esi
$LN11@Extract:

; 548  :             }
; 549  : 
; 550  :             if (_Myhead->_Parent == _Erasednode) {

  0004e	8b 03		 mov	 eax, DWORD PTR [ebx]
  00050	39 48 04	 cmp	 DWORD PTR [eax+4], ecx
  00053	75 05		 jne	 SHORT $LN12@Extract

; 551  :                 _Myhead->_Parent = _Fixnode; // link down from root

  00055	89 78 04	 mov	 DWORD PTR [eax+4], edi
  00058	eb 0b		 jmp	 SHORT $LN15@Extract
$LN12@Extract:

; 552  :             } else if (_Fixnodeparent->_Left == _Erasednode) {

  0005a	39 0e		 cmp	 DWORD PTR [esi], ecx
  0005c	75 04		 jne	 SHORT $LN14@Extract

; 553  :                 _Fixnodeparent->_Left = _Fixnode; // link down to left

  0005e	89 3e		 mov	 DWORD PTR [esi], edi

; 554  :             } else {

  00060	eb 03		 jmp	 SHORT $LN15@Extract
$LN14@Extract:

; 555  :                 _Fixnodeparent->_Right = _Fixnode; // link down to right

  00062	89 7e 08	 mov	 DWORD PTR [esi+8], edi
$LN15@Extract:

; 556  :             }
; 557  : 
; 558  :             if (_Myhead->_Left == _Erasednode) {

  00065	8b 03		 mov	 eax, DWORD PTR [ebx]
  00067	39 08		 cmp	 DWORD PTR [eax], ecx
  00069	75 28		 jne	 SHORT $LN16@Extract

; 559  :                 _Myhead->_Left = _Fixnode->_Isnil ? _Fixnodeparent // smallest is parent of erased node

  0006b	80 7f 0d 00	 cmp	 BYTE PTR [edi+13], 0
  0006f	74 04		 je	 SHORT $LN42@Extract
  00071	8b d6		 mov	 edx, esi
  00073	eb 1c		 jmp	 SHORT $LN43@Extract
$LN42@Extract:

; 476  :         while (!_Pnode->_Left->_Isnil) {

  00075	8b 0f		 mov	 ecx, DWORD PTR [edi]

; 559  :                 _Myhead->_Left = _Fixnode->_Isnil ? _Fixnodeparent // smallest is parent of erased node

  00077	8b d7		 mov	 edx, edi

; 476  :         while (!_Pnode->_Left->_Isnil) {

  00079	80 79 0d 00	 cmp	 BYTE PTR [ecx+13], 0
  0007d	75 0f		 jne	 SHORT $LN49@Extract
  0007f	90		 npad	 1
$LL48@Extract:
  00080	8b 01		 mov	 eax, DWORD PTR [ecx]

; 477  :             _Pnode = _Pnode->_Left;

  00082	8b d1		 mov	 edx, ecx
  00084	8b c8		 mov	 ecx, eax
  00086	80 78 0d 00	 cmp	 BYTE PTR [eax+13], 0
  0008a	74 f4		 je	 SHORT $LL48@Extract
  0008c	8b 03		 mov	 eax, DWORD PTR [ebx]
$LN49@Extract:
  0008e	8b 4d f8	 mov	 ecx, DWORD PTR __Erasednode$1$[ebp]
$LN43@Extract:

; 559  :                 _Myhead->_Left = _Fixnode->_Isnil ? _Fixnodeparent // smallest is parent of erased node

  00091	89 10		 mov	 DWORD PTR [eax], edx
$LN16@Extract:

; 560  :                                                   : _Min(_Fixnode); // smallest in relinked subtree
; 561  :             }
; 562  : 
; 563  :             if (_Myhead->_Right == _Erasednode) {

  00093	8b 13		 mov	 edx, DWORD PTR [ebx]
  00095	39 4a 08	 cmp	 DWORD PTR [edx+8], ecx
  00098	75 34		 jne	 SHORT $LN17@Extract

; 564  :                 _Myhead->_Right = _Fixnode->_Isnil ? _Fixnodeparent // largest is parent of erased node

  0009a	80 7f 0d 00	 cmp	 BYTE PTR [edi+13], 0
  0009e	74 0d		 je	 SHORT $LN44@Extract

; 565  :                                                    : _Max(_Fixnode); // largest in relinked subtree
; 566  :             }
; 567  :         } else { // erased has two subtrees, _Pnode is successor to erased

  000a0	8b 45 f8	 mov	 eax, DWORD PTR __Erasednode$1$[ebp]
  000a3	8b ce		 mov	 ecx, esi
  000a5	89 4a 08	 mov	 DWORD PTR [edx+8], ecx
  000a8	e9 94 00 00 00	 jmp	 $LN58@Extract
$LN44@Extract:

; 468  :         while (!_Pnode->_Right->_Isnil) {

  000ad	8b 47 08	 mov	 eax, DWORD PTR [edi+8]

; 564  :                 _Myhead->_Right = _Fixnode->_Isnil ? _Fixnodeparent // largest is parent of erased node

  000b0	8b cf		 mov	 ecx, edi

; 468  :         while (!_Pnode->_Right->_Isnil) {

  000b2	80 78 0d 00	 cmp	 BYTE PTR [eax+13], 0
  000b6	75 13		 jne	 SHORT $LN54@Extract
  000b8	0f 1f 84 00 00
	00 00 00	 npad	 8
$LL53@Extract:

; 469  :             _Pnode = _Pnode->_Right;

  000c0	8b c8		 mov	 ecx, eax
  000c2	8b 41 08	 mov	 eax, DWORD PTR [ecx+8]
  000c5	80 78 0d 00	 cmp	 BYTE PTR [eax+13], 0
  000c9	74 f5		 je	 SHORT $LL53@Extract
$LN54@Extract:

; 564  :                 _Myhead->_Right = _Fixnode->_Isnil ? _Fixnodeparent // largest is parent of erased node

  000cb	89 4a 08	 mov	 DWORD PTR [edx+8], ecx
$LN17@Extract:

; 565  :                                                    : _Max(_Fixnode); // largest in relinked subtree
; 566  :             }
; 567  :         } else { // erased has two subtrees, _Pnode is successor to erased

  000ce	8b 45 f8	 mov	 eax, DWORD PTR __Erasednode$1$[ebp]
  000d1	eb 6e		 jmp	 SHORT $LN58@Extract
$LN9@Extract:

; 568  :             _Erasednode->_Left->_Parent = _Pnode; // link left up

  000d3	89 50 04	 mov	 DWORD PTR [eax+4], edx

; 569  :             _Pnode->_Left               = _Erasednode->_Left; // link successor down

  000d6	8b 01		 mov	 eax, DWORD PTR [ecx]
  000d8	89 02		 mov	 DWORD PTR [edx], eax

; 570  : 
; 571  :             if (_Pnode == _Erasednode->_Right) {

  000da	8d 42 04	 lea	 eax, DWORD PTR [edx+4]
  000dd	89 45 f4	 mov	 DWORD PTR $T1[ebp], eax
  000e0	3b 51 08	 cmp	 edx, DWORD PTR [ecx+8]
  000e3	75 04		 jne	 SHORT $LN18@Extract

; 572  :                 _Fixnodeparent = _Pnode; // successor is next to erased

  000e5	8b f2		 mov	 esi, edx

; 573  :             } else { // successor further down, link in place of erased

  000e7	eb 1f		 jmp	 SHORT $LN19@Extract
$LN18@Extract:

; 574  :                 _Fixnodeparent = _Pnode->_Parent; // parent is successor's
; 575  :                 if (!_Fixnode->_Isnil) {

  000e9	80 7f 0d 00	 cmp	 BYTE PTR [edi+13], 0
  000ed	8b 30		 mov	 esi, DWORD PTR [eax]
  000ef	75 03		 jne	 SHORT $LN20@Extract

; 576  :                     _Fixnode->_Parent = _Fixnodeparent; // link fix up

  000f1	89 77 04	 mov	 DWORD PTR [edi+4], esi
$LN20@Extract:

; 577  :                 }
; 578  : 
; 579  :                 _Fixnodeparent->_Left        = _Fixnode; // link fix down

  000f4	89 3e		 mov	 DWORD PTR [esi], edi

; 580  :                 _Pnode->_Right               = _Erasednode->_Right; // link next down

  000f6	8b 41 08	 mov	 eax, DWORD PTR [ecx+8]
  000f9	89 42 08	 mov	 DWORD PTR [edx+8], eax

; 581  :                 _Erasednode->_Right->_Parent = _Pnode; // right up

  000fc	8b 41 08	 mov	 eax, DWORD PTR [ecx+8]
  000ff	89 50 04	 mov	 DWORD PTR [eax+4], edx
  00102	8d 42 04	 lea	 eax, DWORD PTR [edx+4]
  00105	89 45 f4	 mov	 DWORD PTR $T1[ebp], eax
$LN19@Extract:

; 582  :             }
; 583  : 
; 584  :             if (_Myhead->_Parent == _Erasednode) {

  00108	8b 03		 mov	 eax, DWORD PTR [ebx]
  0010a	39 48 04	 cmp	 DWORD PTR [eax+4], ecx
  0010d	75 05		 jne	 SHORT $LN21@Extract

; 585  :                 _Myhead->_Parent = _Pnode; // link down from root

  0010f	89 50 04	 mov	 DWORD PTR [eax+4], edx
  00112	eb 0e		 jmp	 SHORT $LN141@Extract
$LN21@Extract:

; 586  :             } else if (_Erasednode->_Parent->_Left == _Erasednode) {

  00114	8b 41 04	 mov	 eax, DWORD PTR [ecx+4]
  00117	39 08		 cmp	 DWORD PTR [eax], ecx
  00119	75 04		 jne	 SHORT $LN23@Extract

; 587  :                 _Erasednode->_Parent->_Left = _Pnode; // link down to left

  0011b	89 10		 mov	 DWORD PTR [eax], edx

; 588  :             } else {

  0011d	eb 03		 jmp	 SHORT $LN141@Extract
$LN23@Extract:

; 589  :                 _Erasednode->_Parent->_Right = _Pnode; // link down to right

  0011f	89 50 08	 mov	 DWORD PTR [eax+8], edx
$LN141@Extract:

; 590  :             }
; 591  : 
; 592  :             _Pnode->_Parent = _Erasednode->_Parent; // link successor up

  00122	b8 04 00 00 00	 mov	 eax, 4
  00127	8b 04 08	 mov	 eax, DWORD PTR [eax+ecx]
  0012a	8b 4d f4	 mov	 ecx, DWORD PTR $T1[ebp]
  0012d	89 01		 mov	 DWORD PTR [ecx], eax
; File C:\Program Files\Microsoft Visual Studio\2022\Professional\VC\Tools\MSVC\14.44.35207\include\utility

; 140  :     _Left    = _STD move(_Right);

  0012f	8b 45 f8	 mov	 eax, DWORD PTR __Erasednode$1$[ebp]
  00132	8a 4a 0c	 mov	 cl, BYTE PTR [edx+12]
  00135	8a 40 0c	 mov	 al, BYTE PTR [eax+12]
  00138	88 42 0c	 mov	 BYTE PTR [edx+12], al

; 141  :     _Right   = _STD move(_Tmp);

  0013b	8b 45 f8	 mov	 eax, DWORD PTR __Erasednode$1$[ebp]
  0013e	88 48 0c	 mov	 BYTE PTR [eax+12], cl
$LN58@Extract:
; File C:\Program Files\Microsoft Visual Studio\2022\Professional\VC\Tools\MSVC\14.44.35207\include\xtree

; 596  :         if (_Erasednode->_Color == _Black) { // erasing black link, must recolor/rebalance tree

  00141	80 78 0c 01	 cmp	 BYTE PTR [eax+12], 1
  00145	0f 85 ba 01 00
	00		 jne	 $LN25@Extract

; 597  :             for (; _Fixnode != _Myhead->_Parent && _Fixnode->_Color == _Black; _Fixnodeparent = _Fixnode->_Parent) {

  0014b	8b 03		 mov	 eax, DWORD PTR [ebx]
  0014d	3b 78 04	 cmp	 edi, DWORD PTR [eax+4]
  00150	0f 84 a8 01 00
	00		 je	 $LN3@Extract
  00156	80 7f 0c 01	 cmp	 BYTE PTR [edi+12], 1
  0015a	89 75 f4	 mov	 DWORD PTR tv1093[ebp], esi
  0015d	0f 85 9b 01 00
	00		 jne	 $LN3@Extract
$LL4@Extract:

; 598  :                 if (_Fixnode == _Fixnodeparent->_Left) { // fixup left subtree

  00163	8b 0e		 mov	 ecx, DWORD PTR [esi]
  00165	3b f9		 cmp	 edi, ecx
  00167	0f 85 be 00 00
	00		 jne	 $LN26@Extract

; 599  :                     _Pnode = _Fixnodeparent->_Right;

  0016d	8b 4e 08	 mov	 ecx, DWORD PTR [esi+8]

; 600  :                     if (_Pnode->_Color == _Red) { // rotate red up from right subtree

  00170	80 79 0c 00	 cmp	 BYTE PTR [ecx+12], 0
  00174	75 54		 jne	 SHORT $LN95@Extract

; 601  :                         _Pnode->_Color         = _Black;

  00176	c6 41 0c 01	 mov	 BYTE PTR [ecx+12], 1

; 484  :         _Nodeptr _Pnode    = _Wherenode->_Right;

  0017a	8b 4e 08	 mov	 ecx, DWORD PTR [esi+8]

; 602  :                         _Fixnodeparent->_Color = _Red;

  0017d	c6 46 0c 00	 mov	 BYTE PTR [esi+12], 0

; 485  :         _Wherenode->_Right = _Pnode->_Left;

  00181	8b 01		 mov	 eax, DWORD PTR [ecx]
  00183	89 46 08	 mov	 DWORD PTR [esi+8], eax

; 486  : 
; 487  :         if (!_Pnode->_Left->_Isnil) {

  00186	8b 01		 mov	 eax, DWORD PTR [ecx]
  00188	80 78 0d 00	 cmp	 BYTE PTR [eax+13], 0
  0018c	75 03		 jne	 SHORT $LN61@Extract

; 488  :             _Pnode->_Left->_Parent = _Wherenode;

  0018e	89 70 04	 mov	 DWORD PTR [eax+4], esi
$LN61@Extract:

; 489  :         }
; 490  : 
; 491  :         _Pnode->_Parent = _Wherenode->_Parent;

  00191	8b 46 04	 mov	 eax, DWORD PTR [esi+4]
  00194	8d 56 04	 lea	 edx, DWORD PTR [esi+4]
  00197	89 41 04	 mov	 DWORD PTR [ecx+4], eax

; 492  : 
; 493  :         if (_Wherenode == _Myhead->_Parent) {

  0019a	8b 03		 mov	 eax, DWORD PTR [ebx]
  0019c	3b 70 04	 cmp	 esi, DWORD PTR [eax+4]
  0019f	75 0c		 jne	 SHORT $LN62@Extract

; 494  :             _Myhead->_Parent = _Pnode;

  001a1	89 48 04	 mov	 DWORD PTR [eax+4], ecx

; 499  :         }
; 500  : 
; 501  :         _Pnode->_Left       = _Wherenode;

  001a4	89 31		 mov	 DWORD PTR [ecx], esi

; 502  :         _Wherenode->_Parent = _Pnode;

  001a6	89 0a		 mov	 DWORD PTR [edx], ecx

; 603  :                         _Lrotate(_Fixnodeparent);
; 604  :                         _Pnode = _Fixnodeparent->_Right;

  001a8	8b 4e 08	 mov	 ecx, DWORD PTR [esi+8]
  001ab	eb 20		 jmp	 SHORT $LN87@Extract
$LN62@Extract:

; 495  :         } else if (_Wherenode == _Wherenode->_Parent->_Left) {

  001ad	8b 02		 mov	 eax, DWORD PTR [edx]
  001af	3b 30		 cmp	 esi, DWORD PTR [eax]
  001b1	75 0b		 jne	 SHORT $LN64@Extract

; 496  :             _Wherenode->_Parent->_Left = _Pnode;

  001b3	89 08		 mov	 DWORD PTR [eax], ecx

; 499  :         }
; 500  : 
; 501  :         _Pnode->_Left       = _Wherenode;

  001b5	89 31		 mov	 DWORD PTR [ecx], esi

; 502  :         _Wherenode->_Parent = _Pnode;

  001b7	89 0a		 mov	 DWORD PTR [edx], ecx

; 603  :                         _Lrotate(_Fixnodeparent);
; 604  :                         _Pnode = _Fixnodeparent->_Right;

  001b9	8b 4e 08	 mov	 ecx, DWORD PTR [esi+8]
  001bc	eb 0f		 jmp	 SHORT $LN87@Extract
$LN64@Extract:

; 498  :             _Wherenode->_Parent->_Right = _Pnode;

  001be	89 48 08	 mov	 DWORD PTR [eax+8], ecx

; 499  :         }
; 500  : 
; 501  :         _Pnode->_Left       = _Wherenode;

  001c1	89 31		 mov	 DWORD PTR [ecx], esi

; 502  :         _Wherenode->_Parent = _Pnode;

  001c3	89 0a		 mov	 DWORD PTR [edx], ecx

; 603  :                         _Lrotate(_Fixnodeparent);
; 604  :                         _Pnode = _Fixnodeparent->_Right;

  001c5	8b 4e 08	 mov	 ecx, DWORD PTR [esi+8]
  001c8	eb 03		 jmp	 SHORT $LN87@Extract
$LN95@Extract:
  001ca	8d 56 04	 lea	 edx, DWORD PTR [esi+4]
$LN87@Extract:

; 605  :                     }
; 606  : 
; 607  :                     if (_Pnode->_Isnil) {

  001cd	80 79 0d 00	 cmp	 BYTE PTR [ecx+13], 0
  001d1	0f 85 d0 00 00
	00		 jne	 $LN2@Extract

; 608  :                         _Fixnode = _Fixnodeparent; // shouldn't happen
; 609  :                     } else if (_Pnode->_Left->_Color == _Black
; 610  :                                && _Pnode->_Right->_Color == _Black) { // redden right subtree with black children

  001d7	8b 01		 mov	 eax, DWORD PTR [ecx]
  001d9	80 78 0c 01	 cmp	 BYTE PTR [eax+12], 1
  001dd	75 0d		 jne	 SHORT $LN97@Extract
  001df	8b 41 08	 mov	 eax, DWORD PTR [ecx+8]
  001e2	80 78 0c 01	 cmp	 BYTE PTR [eax+12], 1
  001e6	0f 84 b4 00 00
	00		 je	 $LN142@Extract
$LN97@Extract:

; 611  :                         _Pnode->_Color = _Red;
; 612  :                         _Fixnode       = _Fixnodeparent;
; 613  :                     } else { // must rearrange right subtree
; 614  :                         if (_Pnode->_Right->_Color == _Black) { // rotate red up from left sub-subtree

  001ec	8b 41 08	 mov	 eax, DWORD PTR [ecx+8]
  001ef	8b 5d fc	 mov	 ebx, DWORD PTR _this$1$[ebp]
  001f2	80 78 0c 01	 cmp	 BYTE PTR [eax+12], 1
  001f6	75 15		 jne	 SHORT $LN33@Extract

; 615  :                             _Pnode->_Left->_Color = _Black;

  001f8	8b 01		 mov	 eax, DWORD PTR [ecx]

; 616  :                             _Pnode->_Color        = _Red;
; 617  :                             _Rrotate(_Pnode);

  001fa	51		 push	 ecx
  001fb	c6 40 0c 01	 mov	 BYTE PTR [eax+12], 1
  001ff	c6 41 0c 00	 mov	 BYTE PTR [ecx+12], 0
  00203	8b cb		 mov	 ecx, ebx
  00205	e8 00 00 00 00	 call	 ?_Rrotate@?$_Tree_val@U?$_Tree_simple_types@U?$pair@$$CBKV?$queue@USFXHIT_COUNT@@V?$deque@USFXHIT_COUNT@@V?$allocator@USFXHIT_COUNT@@@std@@@std@@@std@@@std@@@std@@@std@@QAEXPAU?$_Tree_node@U?$pair@$$CBKV?$queue@USFXHIT_COUNT@@V?$deque@USFXHIT_COUNT@@V?$allocator@USFXHIT_COUNT@@@std@@@std@@@std@@@std@@PAX@2@@Z ; std::_Tree_val<std::_Tree_simple_types<std::pair<unsigned long const ,std::queue<SFXHIT_COUNT,std::deque<SFXHIT_COUNT,std::allocator<SFXHIT_COUNT> > > > > >::_Rrotate

; 618  :                             _Pnode = _Fixnodeparent->_Right;

  0020a	8b 4e 08	 mov	 ecx, DWORD PTR [esi+8]
$LN33@Extract:

; 619  :                         }
; 620  : 
; 621  :                         _Pnode->_Color         = _Fixnodeparent->_Color;

  0020d	8a 46 0c	 mov	 al, BYTE PTR [esi+12]
  00210	88 41 0c	 mov	 BYTE PTR [ecx+12], al

; 622  :                         _Fixnodeparent->_Color = _Black;

  00213	c6 46 0c 01	 mov	 BYTE PTR [esi+12], 1

; 623  :                         _Pnode->_Right->_Color = _Black;

  00217	8b 41 08	 mov	 eax, DWORD PTR [ecx+8]

; 624  :                         _Lrotate(_Fixnodeparent);

  0021a	8b cb		 mov	 ecx, ebx
  0021c	56		 push	 esi
  0021d	c6 40 0c 01	 mov	 BYTE PTR [eax+12], 1
  00221	e8 00 00 00 00	 call	 ?_Lrotate@?$_Tree_val@U?$_Tree_simple_types@U?$pair@$$CBKV?$queue@USFXHIT_COUNT@@V?$deque@USFXHIT_COUNT@@V?$allocator@USFXHIT_COUNT@@@std@@@std@@@std@@@std@@@std@@@std@@QAEXPAU?$_Tree_node@U?$pair@$$CBKV?$queue@USFXHIT_COUNT@@V?$deque@USFXHIT_COUNT@@V?$allocator@USFXHIT_COUNT@@@std@@@std@@@std@@@std@@PAX@2@@Z ; std::_Tree_val<std::_Tree_simple_types<std::pair<unsigned long const ,std::queue<SFXHIT_COUNT,std::deque<SFXHIT_COUNT,std::allocator<SFXHIT_COUNT> > > > > >::_Lrotate

; 625  :                         break; // tree now recolored/rebalanced

  00226	e9 d3 00 00 00	 jmp	 $LN3@Extract
$LN26@Extract:

; 626  :                     }
; 627  :                 } else { // fixup right subtree
; 628  :                     _Pnode = _Fixnodeparent->_Left;
; 629  :                     if (_Pnode->_Color == _Red) { // rotate red up from left subtree

  0022b	80 79 0c 00	 cmp	 BYTE PTR [ecx+12], 0
  0022f	75 55		 jne	 SHORT $LN96@Extract

; 630  :                         _Pnode->_Color         = _Black;

  00231	c6 41 0c 01	 mov	 BYTE PTR [ecx+12], 1

; 506  :         _Nodeptr _Pnode   = _Wherenode->_Left;

  00235	8b 0e		 mov	 ecx, DWORD PTR [esi]

; 631  :                         _Fixnodeparent->_Color = _Red;

  00237	c6 46 0c 00	 mov	 BYTE PTR [esi+12], 0

; 507  :         _Wherenode->_Left = _Pnode->_Right;

  0023b	8b 41 08	 mov	 eax, DWORD PTR [ecx+8]
  0023e	89 06		 mov	 DWORD PTR [esi], eax

; 508  : 
; 509  :         if (!_Pnode->_Right->_Isnil) {

  00240	8b 41 08	 mov	 eax, DWORD PTR [ecx+8]
  00243	80 78 0d 00	 cmp	 BYTE PTR [eax+13], 0
  00247	75 03		 jne	 SHORT $LN69@Extract

; 510  :             _Pnode->_Right->_Parent = _Wherenode;

  00249	89 70 04	 mov	 DWORD PTR [eax+4], esi
$LN69@Extract:

; 511  :         }
; 512  : 
; 513  :         _Pnode->_Parent = _Wherenode->_Parent;

  0024c	8b 46 04	 mov	 eax, DWORD PTR [esi+4]
  0024f	8d 56 04	 lea	 edx, DWORD PTR [esi+4]
  00252	89 41 04	 mov	 DWORD PTR [ecx+4], eax

; 514  : 
; 515  :         if (_Wherenode == _Myhead->_Parent) {

  00255	8b 03		 mov	 eax, DWORD PTR [ebx]
  00257	3b 70 04	 cmp	 esi, DWORD PTR [eax+4]
  0025a	75 0c		 jne	 SHORT $LN70@Extract

; 516  :             _Myhead->_Parent = _Pnode;

  0025c	89 48 04	 mov	 DWORD PTR [eax+4], ecx

; 521  :         }
; 522  : 
; 523  :         _Pnode->_Right      = _Wherenode;

  0025f	89 71 08	 mov	 DWORD PTR [ecx+8], esi

; 524  :         _Wherenode->_Parent = _Pnode;

  00262	89 0a		 mov	 DWORD PTR [edx], ecx

; 632  :                         _Rrotate(_Fixnodeparent);
; 633  :                         _Pnode = _Fixnodeparent->_Left;

  00264	8b 0e		 mov	 ecx, DWORD PTR [esi]
  00266	eb 21		 jmp	 SHORT $LN86@Extract
$LN70@Extract:

; 517  :         } else if (_Wherenode == _Wherenode->_Parent->_Right) {

  00268	8b 02		 mov	 eax, DWORD PTR [edx]
  0026a	3b 70 08	 cmp	 esi, DWORD PTR [eax+8]
  0026d	75 0c		 jne	 SHORT $LN72@Extract

; 518  :             _Wherenode->_Parent->_Right = _Pnode;

  0026f	89 48 08	 mov	 DWORD PTR [eax+8], ecx

; 521  :         }
; 522  : 
; 523  :         _Pnode->_Right      = _Wherenode;

  00272	89 71 08	 mov	 DWORD PTR [ecx+8], esi

; 524  :         _Wherenode->_Parent = _Pnode;

  00275	89 0a		 mov	 DWORD PTR [edx], ecx

; 632  :                         _Rrotate(_Fixnodeparent);
; 633  :                         _Pnode = _Fixnodeparent->_Left;

  00277	8b 0e		 mov	 ecx, DWORD PTR [esi]
  00279	eb 0e		 jmp	 SHORT $LN86@Extract
$LN72@Extract:

; 520  :             _Wherenode->_Parent->_Left = _Pnode;

  0027b	89 08		 mov	 DWORD PTR [eax], ecx

; 521  :         }
; 522  : 
; 523  :         _Pnode->_Right      = _Wherenode;

  0027d	89 71 08	 mov	 DWORD PTR [ecx+8], esi

; 524  :         _Wherenode->_Parent = _Pnode;

  00280	89 0a		 mov	 DWORD PTR [edx], ecx

; 632  :                         _Rrotate(_Fixnodeparent);
; 633  :                         _Pnode = _Fixnodeparent->_Left;

  00282	8b 0e		 mov	 ecx, DWORD PTR [esi]
  00284	eb 03		 jmp	 SHORT $LN86@Extract
$LN96@Extract:
  00286	8d 56 04	 lea	 edx, DWORD PTR [esi+4]
$LN86@Extract:

; 634  :                     }
; 635  : 
; 636  :                     if (_Pnode->_Isnil) {

  00289	80 79 0d 00	 cmp	 BYTE PTR [ecx+13], 0
  0028d	75 18		 jne	 SHORT $LN2@Extract

; 637  :                         _Fixnode = _Fixnodeparent; // shouldn't happen
; 638  :                     } else if (_Pnode->_Right->_Color == _Black
; 639  :                                && _Pnode->_Left->_Color == _Black) { // redden left subtree with black children

  0028f	8b 59 08	 mov	 ebx, DWORD PTR [ecx+8]
  00292	80 7b 0c 01	 cmp	 BYTE PTR [ebx+12], 1
  00296	75 2c		 jne	 SHORT $LN98@Extract
  00298	8b 01		 mov	 eax, DWORD PTR [ecx]
  0029a	80 78 0c 01	 cmp	 BYTE PTR [eax+12], 1
  0029e	75 24		 jne	 SHORT $LN98@Extract
$LN142@Extract:

; 597  :             for (; _Fixnode != _Myhead->_Parent && _Fixnode->_Color == _Black; _Fixnodeparent = _Fixnode->_Parent) {

  002a0	8b 5d fc	 mov	 ebx, DWORD PTR _this$1$[ebp]
  002a3	c6 41 0c 00	 mov	 BYTE PTR [ecx+12], 0
$LN2@Extract:
  002a7	8b 03		 mov	 eax, DWORD PTR [ebx]
  002a9	8b 4d f4	 mov	 ecx, DWORD PTR tv1093[ebp]
  002ac	8b f9		 mov	 edi, ecx
  002ae	8b 32		 mov	 esi, DWORD PTR [edx]
  002b0	3b 48 04	 cmp	 ecx, DWORD PTR [eax+4]
  002b3	74 49		 je	 SHORT $LN3@Extract
  002b5	80 7f 0c 01	 cmp	 BYTE PTR [edi+12], 1
  002b9	89 75 f4	 mov	 DWORD PTR tv1093[ebp], esi
  002bc	0f 84 a1 fe ff
	ff		 je	 $LL4@Extract
  002c2	eb 3a		 jmp	 SHORT $LN3@Extract
$LN98@Extract:

; 640  :                         _Pnode->_Color = _Red;
; 641  :                         _Fixnode       = _Fixnodeparent;
; 642  :                     } else { // must rearrange left subtree
; 643  :                         if (_Pnode->_Left->_Color == _Black) { // rotate red up from right sub-subtree

  002c4	8b 01		 mov	 eax, DWORD PTR [ecx]
  002c6	80 78 0c 01	 cmp	 BYTE PTR [eax+12], 1
  002ca	75 17		 jne	 SHORT $LN101@Extract

; 644  :                             _Pnode->_Right->_Color = _Black;

  002cc	c6 43 0c 01	 mov	 BYTE PTR [ebx+12], 1

; 645  :                             _Pnode->_Color         = _Red;
; 646  :                             _Lrotate(_Pnode);

  002d0	8b 5d fc	 mov	 ebx, DWORD PTR _this$1$[ebp]
  002d3	c6 41 0c 00	 mov	 BYTE PTR [ecx+12], 0
  002d7	51		 push	 ecx
  002d8	8b cb		 mov	 ecx, ebx
  002da	e8 00 00 00 00	 call	 ?_Lrotate@?$_Tree_val@U?$_Tree_simple_types@U?$pair@$$CBKV?$queue@USFXHIT_COUNT@@V?$deque@USFXHIT_COUNT@@V?$allocator@USFXHIT_COUNT@@@std@@@std@@@std@@@std@@@std@@@std@@QAEXPAU?$_Tree_node@U?$pair@$$CBKV?$queue@USFXHIT_COUNT@@V?$deque@USFXHIT_COUNT@@V?$allocator@USFXHIT_COUNT@@@std@@@std@@@std@@@std@@PAX@2@@Z ; std::_Tree_val<std::_Tree_simple_types<std::pair<unsigned long const ,std::queue<SFXHIT_COUNT,std::deque<SFXHIT_COUNT,std::allocator<SFXHIT_COUNT> > > > > >::_Lrotate

; 647  :                             _Pnode = _Fixnodeparent->_Left;

  002df	8b 0e		 mov	 ecx, DWORD PTR [esi]
  002e1	eb 03		 jmp	 SHORT $LN39@Extract
$LN101@Extract:

; 640  :                         _Pnode->_Color = _Red;
; 641  :                         _Fixnode       = _Fixnodeparent;
; 642  :                     } else { // must rearrange left subtree
; 643  :                         if (_Pnode->_Left->_Color == _Black) { // rotate red up from right sub-subtree

  002e3	8b 5d fc	 mov	 ebx, DWORD PTR _this$1$[ebp]
$LN39@Extract:

; 648  :                         }
; 649  : 
; 650  :                         _Pnode->_Color         = _Fixnodeparent->_Color;

  002e6	8a 46 0c	 mov	 al, BYTE PTR [esi+12]
  002e9	88 41 0c	 mov	 BYTE PTR [ecx+12], al

; 651  :                         _Fixnodeparent->_Color = _Black;

  002ec	c6 46 0c 01	 mov	 BYTE PTR [esi+12], 1

; 652  :                         _Pnode->_Left->_Color  = _Black;

  002f0	8b 01		 mov	 eax, DWORD PTR [ecx]

; 653  :                         _Rrotate(_Fixnodeparent);

  002f2	8b cb		 mov	 ecx, ebx
  002f4	56		 push	 esi
  002f5	c6 40 0c 01	 mov	 BYTE PTR [eax+12], 1
  002f9	e8 00 00 00 00	 call	 ?_Rrotate@?$_Tree_val@U?$_Tree_simple_types@U?$pair@$$CBKV?$queue@USFXHIT_COUNT@@V?$deque@USFXHIT_COUNT@@V?$allocator@USFXHIT_COUNT@@@std@@@std@@@std@@@std@@@std@@@std@@QAEXPAU?$_Tree_node@U?$pair@$$CBKV?$queue@USFXHIT_COUNT@@V?$deque@USFXHIT_COUNT@@V?$allocator@USFXHIT_COUNT@@@std@@@std@@@std@@@std@@PAX@2@@Z ; std::_Tree_val<std::_Tree_simple_types<std::pair<unsigned long const ,std::queue<SFXHIT_COUNT,std::deque<SFXHIT_COUNT,std::allocator<SFXHIT_COUNT> > > > > >::_Rrotate
$LN3@Extract:

; 654  :                         break; // tree now recolored/rebalanced
; 655  :                     }
; 656  :                 }
; 657  :             }
; 658  : 
; 659  :             _Fixnode->_Color = _Black; // stopping node is black

  002fe	8b 45 f8	 mov	 eax, DWORD PTR __Erasednode$1$[ebp]
  00301	c6 47 0c 01	 mov	 BYTE PTR [edi+12], 1
$LN25@Extract:

; 660  :         }
; 661  : 
; 662  :         if (0 < _Mysize) {

  00305	8b 4b 04	 mov	 ecx, DWORD PTR [ebx+4]
  00308	85 c9		 test	 ecx, ecx
  0030a	74 04		 je	 SHORT $LN40@Extract

; 663  :             --_Mysize;

  0030c	49		 dec	 ecx
  0030d	89 4b 04	 mov	 DWORD PTR [ebx+4], ecx
$LN40@Extract:

; 664  :         }
; 665  : 
; 666  :         return _Erasednode;
; 667  :     }

  00310	5f		 pop	 edi
  00311	5e		 pop	 esi
  00312	5b		 pop	 ebx
  00313	8b e5		 mov	 esp, ebp
  00315	5d		 pop	 ebp
  00316	c2 04 00	 ret	 4
?_Extract@?$_Tree_val@U?$_Tree_simple_types@U?$pair@$$CBKV?$queue@USFXHIT_COUNT@@V?$deque@USFXHIT_COUNT@@V?$allocator@USFXHIT_COUNT@@@std@@@std@@@std@@@std@@@std@@@std@@QAEPAU?$_Tree_node@U?$pair@$$CBKV?$queue@USFXHIT_COUNT@@V?$deque@USFXHIT_COUNT@@V?$allocator@USFXHIT_COUNT@@@std@@@std@@@std@@@std@@PAX@2@V?$_Tree_unchecked_const_iterator@V?$_Tree_val@U?$_Tree_simple_types@U?$pair@$$CBKV?$queue@USFXHIT_COUNT@@V?$deque@USFXHIT_COUNT@@V?$allocator@USFXHIT_COUNT@@@std@@@std@@@std@@@std@@@std@@@std@@U_Iterator_base0@2@@2@@Z ENDP ; std::_Tree_val<std::_Tree_simple_types<std::pair<unsigned long const ,std::queue<SFXHIT_COUNT,std::deque<SFXHIT_COUNT,std::allocator<SFXHIT_COUNT> > > > > >::_Extract
_TEXT	ENDS
; Function compile flags: /Ogtp
; File C:\Program Files\Microsoft Visual Studio\2022\Professional\VC\Tools\MSVC\14.44.35207\include\xtree
;	COMDAT ?_Rrotate@?$_Tree_val@U?$_Tree_simple_types@U?$pair@$$CBKV?$queue@USFXHIT_COUNT@@V?$deque@USFXHIT_COUNT@@V?$allocator@USFXHIT_COUNT@@@std@@@std@@@std@@@std@@@std@@@std@@QAEXPAU?$_Tree_node@U?$pair@$$CBKV?$queue@USFXHIT_COUNT@@V?$deque@USFXHIT_COUNT@@V?$allocator@USFXHIT_COUNT@@@std@@@std@@@std@@@std@@PAX@2@@Z
_TEXT	SEGMENT
__Wherenode$ = 8					; size = 4
?_Rrotate@?$_Tree_val@U?$_Tree_simple_types@U?$pair@$$CBKV?$queue@USFXHIT_COUNT@@V?$deque@USFXHIT_COUNT@@V?$allocator@USFXHIT_COUNT@@@std@@@std@@@std@@@std@@@std@@@std@@QAEXPAU?$_Tree_node@U?$pair@$$CBKV?$queue@USFXHIT_COUNT@@V?$deque@USFXHIT_COUNT@@V?$allocator@USFXHIT_COUNT@@@std@@@std@@@std@@@std@@PAX@2@@Z PROC ; std::_Tree_val<std::_Tree_simple_types<std::pair<unsigned long const ,std::queue<SFXHIT_COUNT,std::deque<SFXHIT_COUNT,std::allocator<SFXHIT_COUNT> > > > > >::_Rrotate, COMDAT
; _this$ = ecx

; 505  :     void _Rrotate(_Nodeptr _Wherenode) noexcept { // promote left node to root of subtree

  00000	55		 push	 ebp
  00001	8b ec		 mov	 ebp, esp

; 506  :         _Nodeptr _Pnode   = _Wherenode->_Left;

  00003	8b 55 08	 mov	 edx, DWORD PTR __Wherenode$[ebp]
  00006	56		 push	 esi
  00007	8b 32		 mov	 esi, DWORD PTR [edx]

; 507  :         _Wherenode->_Left = _Pnode->_Right;

  00009	8b 46 08	 mov	 eax, DWORD PTR [esi+8]
  0000c	89 02		 mov	 DWORD PTR [edx], eax

; 508  : 
; 509  :         if (!_Pnode->_Right->_Isnil) {

  0000e	8b 46 08	 mov	 eax, DWORD PTR [esi+8]
  00011	80 78 0d 00	 cmp	 BYTE PTR [eax+13], 0
  00015	75 03		 jne	 SHORT $LN2@Rrotate

; 510  :             _Pnode->_Right->_Parent = _Wherenode;

  00017	89 50 04	 mov	 DWORD PTR [eax+4], edx
$LN2@Rrotate:

; 511  :         }
; 512  : 
; 513  :         _Pnode->_Parent = _Wherenode->_Parent;

  0001a	8b 42 04	 mov	 eax, DWORD PTR [edx+4]
  0001d	89 46 04	 mov	 DWORD PTR [esi+4], eax

; 514  : 
; 515  :         if (_Wherenode == _Myhead->_Parent) {

  00020	8b 01		 mov	 eax, DWORD PTR [ecx]
  00022	3b 50 04	 cmp	 edx, DWORD PTR [eax+4]
  00025	75 0e		 jne	 SHORT $LN3@Rrotate

; 516  :             _Myhead->_Parent = _Pnode;

  00027	89 70 04	 mov	 DWORD PTR [eax+4], esi

; 521  :         }
; 522  : 
; 523  :         _Pnode->_Right      = _Wherenode;
; 524  :         _Wherenode->_Parent = _Pnode;
; 525  :     }

  0002a	89 56 08	 mov	 DWORD PTR [esi+8], edx
  0002d	89 72 04	 mov	 DWORD PTR [edx+4], esi
  00030	5e		 pop	 esi
  00031	5d		 pop	 ebp
  00032	c2 04 00	 ret	 4
$LN3@Rrotate:

; 517  :         } else if (_Wherenode == _Wherenode->_Parent->_Right) {

  00035	8b 42 04	 mov	 eax, DWORD PTR [edx+4]
  00038	3b 50 08	 cmp	 edx, DWORD PTR [eax+8]
  0003b	75 0e		 jne	 SHORT $LN5@Rrotate

; 518  :             _Wherenode->_Parent->_Right = _Pnode;

  0003d	89 70 08	 mov	 DWORD PTR [eax+8], esi

; 521  :         }
; 522  : 
; 523  :         _Pnode->_Right      = _Wherenode;
; 524  :         _Wherenode->_Parent = _Pnode;
; 525  :     }

  00040	89 56 08	 mov	 DWORD PTR [esi+8], edx
  00043	89 72 04	 mov	 DWORD PTR [edx+4], esi
  00046	5e		 pop	 esi
  00047	5d		 pop	 ebp
  00048	c2 04 00	 ret	 4
$LN5@Rrotate:

; 519  :         } else {
; 520  :             _Wherenode->_Parent->_Left = _Pnode;

  0004b	89 30		 mov	 DWORD PTR [eax], esi

; 521  :         }
; 522  : 
; 523  :         _Pnode->_Right      = _Wherenode;
; 524  :         _Wherenode->_Parent = _Pnode;
; 525  :     }

  0004d	89 56 08	 mov	 DWORD PTR [esi+8], edx
  00050	89 72 04	 mov	 DWORD PTR [edx+4], esi
  00053	5e		 pop	 esi
  00054	5d		 pop	 ebp
  00055	c2 04 00	 ret	 4
?_Rrotate@?$_Tree_val@U?$_Tree_simple_types@U?$pair@$$CBKV?$queue@USFXHIT_COUNT@@V?$deque@USFXHIT_COUNT@@V?$allocator@USFXHIT_COUNT@@@std@@@std@@@std@@@std@@@std@@@std@@QAEXPAU?$_Tree_node@U?$pair@$$CBKV?$queue@USFXHIT_COUNT@@V?$deque@USFXHIT_COUNT@@V?$allocator@USFXHIT_COUNT@@@std@@@std@@@std@@@std@@PAX@2@@Z ENDP ; std::_Tree_val<std::_Tree_simple_types<std::pair<unsigned long const ,std::queue<SFXHIT_COUNT,std::deque<SFXHIT_COUNT,std::allocator<SFXHIT_COUNT> > > > > >::_Rrotate
_TEXT	ENDS
; Function compile flags: /Ogtp
; File C:\Program Files\Microsoft Visual Studio\2022\Professional\VC\Tools\MSVC\14.44.35207\include\xtree
;	COMDAT ?_Lrotate@?$_Tree_val@U?$_Tree_simple_types@U?$pair@$$CBKV?$queue@USFXHIT_COUNT@@V?$deque@USFXHIT_COUNT@@V?$allocator@USFXHIT_COUNT@@@std@@@std@@@std@@@std@@@std@@@std@@QAEXPAU?$_Tree_node@U?$pair@$$CBKV?$queue@USFXHIT_COUNT@@V?$deque@USFXHIT_COUNT@@V?$allocator@USFXHIT_COUNT@@@std@@@std@@@std@@@std@@PAX@2@@Z
_TEXT	SEGMENT
__Wherenode$ = 8					; size = 4
?_Lrotate@?$_Tree_val@U?$_Tree_simple_types@U?$pair@$$CBKV?$queue@USFXHIT_COUNT@@V?$deque@USFXHIT_COUNT@@V?$allocator@USFXHIT_COUNT@@@std@@@std@@@std@@@std@@@std@@@std@@QAEXPAU?$_Tree_node@U?$pair@$$CBKV?$queue@USFXHIT_COUNT@@V?$deque@USFXHIT_COUNT@@V?$allocator@USFXHIT_COUNT@@@std@@@std@@@std@@@std@@PAX@2@@Z PROC ; std::_Tree_val<std::_Tree_simple_types<std::pair<unsigned long const ,std::queue<SFXHIT_COUNT,std::deque<SFXHIT_COUNT,std::allocator<SFXHIT_COUNT> > > > > >::_Lrotate, COMDAT
; _this$ = ecx

; 483  :     void _Lrotate(_Nodeptr _Wherenode) noexcept { // promote right node to root of subtree

  00000	55		 push	 ebp
  00001	8b ec		 mov	 ebp, esp

; 484  :         _Nodeptr _Pnode    = _Wherenode->_Right;

  00003	8b 55 08	 mov	 edx, DWORD PTR __Wherenode$[ebp]
  00006	56		 push	 esi
  00007	8b 72 08	 mov	 esi, DWORD PTR [edx+8]

; 485  :         _Wherenode->_Right = _Pnode->_Left;

  0000a	8b 06		 mov	 eax, DWORD PTR [esi]
  0000c	89 42 08	 mov	 DWORD PTR [edx+8], eax

; 486  : 
; 487  :         if (!_Pnode->_Left->_Isnil) {

  0000f	8b 06		 mov	 eax, DWORD PTR [esi]
  00011	80 78 0d 00	 cmp	 BYTE PTR [eax+13], 0
  00015	75 03		 jne	 SHORT $LN2@Lrotate

; 488  :             _Pnode->_Left->_Parent = _Wherenode;

  00017	89 50 04	 mov	 DWORD PTR [eax+4], edx
$LN2@Lrotate:

; 489  :         }
; 490  : 
; 491  :         _Pnode->_Parent = _Wherenode->_Parent;

  0001a	8b 42 04	 mov	 eax, DWORD PTR [edx+4]
  0001d	89 46 04	 mov	 DWORD PTR [esi+4], eax

; 492  : 
; 493  :         if (_Wherenode == _Myhead->_Parent) {

  00020	8b 01		 mov	 eax, DWORD PTR [ecx]
  00022	3b 50 04	 cmp	 edx, DWORD PTR [eax+4]
  00025	75 0d		 jne	 SHORT $LN3@Lrotate

; 494  :             _Myhead->_Parent = _Pnode;

  00027	89 70 04	 mov	 DWORD PTR [eax+4], esi

; 499  :         }
; 500  : 
; 501  :         _Pnode->_Left       = _Wherenode;
; 502  :         _Wherenode->_Parent = _Pnode;
; 503  :     }

  0002a	89 16		 mov	 DWORD PTR [esi], edx
  0002c	89 72 04	 mov	 DWORD PTR [edx+4], esi
  0002f	5e		 pop	 esi
  00030	5d		 pop	 ebp
  00031	c2 04 00	 ret	 4
$LN3@Lrotate:

; 495  :         } else if (_Wherenode == _Wherenode->_Parent->_Left) {

  00034	8b 42 04	 mov	 eax, DWORD PTR [edx+4]
  00037	3b 10		 cmp	 edx, DWORD PTR [eax]
  00039	75 0c		 jne	 SHORT $LN5@Lrotate

; 496  :             _Wherenode->_Parent->_Left = _Pnode;

  0003b	89 30		 mov	 DWORD PTR [eax], esi

; 499  :         }
; 500  : 
; 501  :         _Pnode->_Left       = _Wherenode;
; 502  :         _Wherenode->_Parent = _Pnode;
; 503  :     }

  0003d	89 16		 mov	 DWORD PTR [esi], edx
  0003f	89 72 04	 mov	 DWORD PTR [edx+4], esi
  00042	5e		 pop	 esi
  00043	5d		 pop	 ebp
  00044	c2 04 00	 ret	 4
$LN5@Lrotate:

; 497  :         } else {
; 498  :             _Wherenode->_Parent->_Right = _Pnode;

  00047	89 70 08	 mov	 DWORD PTR [eax+8], esi

; 499  :         }
; 500  : 
; 501  :         _Pnode->_Left       = _Wherenode;
; 502  :         _Wherenode->_Parent = _Pnode;
; 503  :     }

  0004a	89 16		 mov	 DWORD PTR [esi], edx
  0004c	89 72 04	 mov	 DWORD PTR [edx+4], esi
  0004f	5e		 pop	 esi
  00050	5d		 pop	 ebp
  00051	c2 04 00	 ret	 4
?_Lrotate@?$_Tree_val@U?$_Tree_simple_types@U?$pair@$$CBKV?$queue@USFXHIT_COUNT@@V?$deque@USFXHIT_COUNT@@V?$allocator@USFXHIT_COUNT@@@std@@@std@@@std@@@std@@@std@@@std@@QAEXPAU?$_Tree_node@U?$pair@$$CBKV?$queue@USFXHIT_COUNT@@V?$deque@USFXHIT_COUNT@@V?$allocator@USFXHIT_COUNT@@@std@@@std@@@std@@@std@@PAX@2@@Z ENDP ; std::_Tree_val<std::_Tree_simple_types<std::pair<unsigned long const ,std::queue<SFXHIT_COUNT,std::deque<SFXHIT_COUNT,std::allocator<SFXHIT_COUNT> > > > > >::_Lrotate
_TEXT	ENDS
; Function compile flags: /Ogtp
; File C:\Program Files\Microsoft Visual Studio\2022\Professional\VC\Tools\MSVC\14.44.35207\include\xtree
; File C:\Program Files\Microsoft Visual Studio\2022\Professional\VC\Tools\MSVC\14.44.35207\include\type_traits
; File C:\Program Files\Microsoft Visual Studio\2022\Professional\VC\Tools\MSVC\14.44.35207\include\xtree
; File C:\Program Files\Microsoft Visual Studio\2022\Professional\VC\Tools\MSVC\14.44.35207\include\type_traits
; File C:\Program Files\Microsoft Visual Studio\2022\Professional\VC\Tools\MSVC\14.44.35207\include\xtree
; File C:\Program Files\Microsoft Visual Studio\2022\Professional\VC\Tools\MSVC\14.44.35207\include\type_traits
; File C:\Program Files\Microsoft Visual Studio\2022\Professional\VC\Tools\MSVC\14.44.35207\include\xtree
; File C:\Program Files\Microsoft Visual Studio\2022\Professional\VC\Tools\MSVC\14.44.35207\include\xutility
; File C:\Program Files\Microsoft Visual Studio\2022\Professional\VC\Tools\MSVC\14.44.35207\include\xtree
; File C:\Program Files\Microsoft Visual Studio\2022\Professional\VC\Tools\MSVC\14.44.35207\include\xutility
; File C:\Program Files\Microsoft Visual Studio\2022\Professional\VC\Tools\MSVC\14.44.35207\include\xtree
; File C:\Program Files\Microsoft Visual Studio\2022\Professional\VC\Tools\MSVC\14.44.35207\include\xutility
; File C:\Program Files\Microsoft Visual Studio\2022\Professional\VC\Tools\MSVC\14.44.35207\include\xtree
; File C:\Program Files\Microsoft Visual Studio\2022\Professional\VC\Tools\MSVC\14.44.35207\include\xutility
; File C:\Program Files\Microsoft Visual Studio\2022\Professional\VC\Tools\MSVC\14.44.35207\include\xtree
; File C:\Program Files\Microsoft Visual Studio\2022\Professional\VC\Tools\MSVC\14.44.35207\include\deque
; File C:\Program Files\Microsoft Visual Studio\2022\Professional\VC\Tools\MSVC\14.44.35207\include\utility
; File C:\Program Files\Microsoft Visual Studio\2022\Professional\VC\Tools\MSVC\14.44.35207\include\xmemory
; File C:\Program Files\Microsoft Visual Studio\2022\Professional\VC\Tools\MSVC\14.44.35207\include\utility
; File C:\Program Files\Microsoft Visual Studio\2022\Professional\VC\Tools\MSVC\14.44.35207\include\xmemory
; File C:\Program Files\Microsoft Visual Studio\2022\Professional\VC\Tools\MSVC\14.44.35207\include\xtree
; File C:\Program Files\Microsoft Visual Studio\2022\Professional\VC\Tools\MSVC\14.44.35207\include\xmemory
; File C:\Program Files\Microsoft Visual Studio\2022\Professional\VC\Tools\MSVC\14.44.35207\include\xtree
;	COMDAT ?erase@?$_Tree@V?$_Tmap_traits@KV?$queue@USFXHIT_COUNT@@V?$deque@USFXHIT_COUNT@@V?$allocator@USFXHIT_COUNT@@@std@@@std@@@std@@U?$less@K@2@V?$allocator@U?$pair@$$CBKV?$queue@USFXHIT_COUNT@@V?$deque@USFXHIT_COUNT@@V?$allocator@USFXHIT_COUNT@@@std@@@std@@@std@@@std@@@2@$0A@@std@@@std@@QAEIABK@Z
_TEXT	SEGMENT
__Off$1$ = -12						; size = 4
tv805 = -12						; size = 4
_this$1$ = -8						; size = 4
__Head$1$ = -4						; size = 4
__Keyval$ = 8						; size = 4
__First$ = 8						; size = 4
?erase@?$_Tree@V?$_Tmap_traits@KV?$queue@USFXHIT_COUNT@@V?$deque@USFXHIT_COUNT@@V?$allocator@USFXHIT_COUNT@@@std@@@std@@@std@@U?$less@K@2@V?$allocator@U?$pair@$$CBKV?$queue@USFXHIT_COUNT@@V?$deque@USFXHIT_COUNT@@V?$allocator@USFXHIT_COUNT@@@std@@@std@@@std@@@std@@@2@$0A@@std@@@std@@QAEIABK@Z PROC ; std::_Tree<std::_Tmap_traits<unsigned long,std::queue<SFXHIT_COUNT,std::deque<SFXHIT_COUNT,std::allocator<SFXHIT_COUNT> > >,std::less<unsigned long>,std::allocator<std::pair<unsigned long const ,std::queue<SFXHIT_COUNT,std::deque<SFXHIT_COUNT,std::allocator<SFXHIT_COUNT> > > > >,0> >::erase, COMDAT
; _this$ = ecx

; 1357 :     size_type erase(const key_type& _Keyval) noexcept(noexcept(_Eqrange(_Keyval))) /* strengthened */ {

  00000	55		 push	 ebp
  00001	8b ec		 mov	 ebp, esp
  00003	83 ec 0c	 sub	 esp, 12			; 0000000cH
  00006	8b c1		 mov	 eax, ecx
  00008	53		 push	 ebx
  00009	89 45 f8	 mov	 DWORD PTR _this$1$[ebp], eax
  0000c	56		 push	 esi

; 1709 :         _Nodeptr _Pnode   = _Scary->_Myhead->_Parent;

  0000d	8b 08		 mov	 ecx, DWORD PTR [eax]

; 1710 :         _Nodeptr _Lonode  = _Scary->_Myhead; // end() if search fails

  0000f	8b f1		 mov	 esi, ecx

; 1357 :     size_type erase(const key_type& _Keyval) noexcept(noexcept(_Eqrange(_Keyval))) /* strengthened */ {

  00011	57		 push	 edi

; 1713 :         while (!_Pnode->_Isnil) {

  00012	8b 7d 08	 mov	 edi, DWORD PTR __Keyval$[ebp]
  00015	8b d9		 mov	 ebx, ecx
  00017	89 4d fc	 mov	 DWORD PTR __Head$1$[ebp], ecx
  0001a	8b 51 04	 mov	 edx, DWORD PTR [ecx+4]
  0001d	8b c2		 mov	 eax, edx
  0001f	89 55 f4	 mov	 DWORD PTR tv805[ebp], edx
  00022	80 78 0d 00	 cmp	 BYTE PTR [eax+13], 0
  00026	75 2c		 jne	 SHORT $LN6@erase
; File C:\Program Files\Microsoft Visual Studio\2022\Professional\VC\Tools\MSVC\14.44.35207\include\type_traits

; 2380 :         return _Left < _Right;

  00028	8b 17		 mov	 edx, DWORD PTR [edi]
  0002a	66 0f 1f 44 00
	00		 npad	 6
$LL5@erase:
  00030	8b 48 10	 mov	 ecx, DWORD PTR [eax+16]
  00033	3b ca		 cmp	 ecx, edx
; File C:\Program Files\Microsoft Visual Studio\2022\Professional\VC\Tools\MSVC\14.44.35207\include\xtree

; 1715 :             if (_DEBUG_LT_PRED(_Comp, _Nodekey, _Keyval)) {

  00035	73 05		 jae	 SHORT $LN9@erase

; 1716 :                 _Pnode = _Pnode->_Right; // descend right subtree

  00037	8b 40 08	 mov	 eax, DWORD PTR [eax+8]

; 1717 :             } else { // _Pnode not less than _Keyval, remember it

  0003a	eb 0f		 jmp	 SHORT $LN10@erase
$LN9@erase:

; 1718 :                 if (_Hinode->_Isnil && _DEBUG_LT_PRED(_Comp, _Keyval, _Nodekey)) {

  0003c	80 7b 0d 00	 cmp	 BYTE PTR [ebx+13], 0
  00040	74 05		 je	 SHORT $LN11@erase
; File C:\Program Files\Microsoft Visual Studio\2022\Professional\VC\Tools\MSVC\14.44.35207\include\type_traits

; 2380 :         return _Left < _Right;

  00042	3b d1		 cmp	 edx, ecx
; File C:\Program Files\Microsoft Visual Studio\2022\Professional\VC\Tools\MSVC\14.44.35207\include\xtree

; 1718 :                 if (_Hinode->_Isnil && _DEBUG_LT_PRED(_Comp, _Keyval, _Nodekey)) {

  00044	0f 42 d8	 cmovb	 ebx, eax
$LN11@erase:

; 1719 :                     _Hinode = _Pnode; // _Pnode greater, remember it
; 1720 :                 }
; 1721 : 
; 1722 :                 _Lonode = _Pnode;

  00047	8b f0		 mov	 esi, eax

; 1723 :                 _Pnode  = _Pnode->_Left; // descend left subtree

  00049	8b 00		 mov	 eax, DWORD PTR [eax]
$LN10@erase:

; 1711 :         _Nodeptr _Hinode  = _Scary->_Myhead; // end() if search fails
; 1712 : 
; 1713 :         while (!_Pnode->_Isnil) {

  0004b	80 78 0d 00	 cmp	 BYTE PTR [eax+13], 0
  0004f	74 df		 je	 SHORT $LL5@erase
  00051	8b 55 f4	 mov	 edx, DWORD PTR tv805[ebp]
$LN6@erase:

; 1724 :             }
; 1725 :         }
; 1726 : 
; 1727 :         _Pnode = _Hinode->_Isnil ? _Scary->_Myhead->_Parent : _Hinode->_Left; // continue scan for upper bound

  00054	80 7b 0d 00	 cmp	 BYTE PTR [ebx+13], 0
  00058	8b c2		 mov	 eax, edx
  0005a	75 02		 jne	 SHORT $LN16@erase
  0005c	8b 03		 mov	 eax, DWORD PTR [ebx]
$LN16@erase:

; 1728 :         while (!_Pnode->_Isnil) {

  0005e	80 78 0d 00	 cmp	 BYTE PTR [eax+13], 0
  00062	75 16		 jne	 SHORT $LN8@erase
; File C:\Program Files\Microsoft Visual Studio\2022\Professional\VC\Tools\MSVC\14.44.35207\include\type_traits

; 2380 :         return _Left < _Right;

  00064	8b 0f		 mov	 ecx, DWORD PTR [edi]
$LL7@erase:
  00066	3b 48 10	 cmp	 ecx, DWORD PTR [eax+16]
; File C:\Program Files\Microsoft Visual Studio\2022\Professional\VC\Tools\MSVC\14.44.35207\include\xtree

; 1729 :             if (_DEBUG_LT_PRED(_Getcomp(), _Keyval, _Traits::_Kfn(_Pnode->_Myval))) {

  00069	73 06		 jae	 SHORT $LN12@erase

; 1730 :                 // _Pnode greater than _Keyval, remember it
; 1731 :                 _Hinode = _Pnode;

  0006b	8b d8		 mov	 ebx, eax

; 1732 :                 _Pnode  = _Pnode->_Left; // descend left subtree

  0006d	8b 00		 mov	 eax, DWORD PTR [eax]

; 1733 :             } else {

  0006f	eb 03		 jmp	 SHORT $LN13@erase
$LN12@erase:

; 1734 :                 _Pnode = _Pnode->_Right; // descend right subtree

  00071	8b 40 08	 mov	 eax, DWORD PTR [eax+8]
$LN13@erase:

; 1728 :         while (!_Pnode->_Isnil) {

  00074	80 78 0d 00	 cmp	 BYTE PTR [eax+13], 0
  00078	74 ec		 je	 SHORT $LL7@erase
$LN8@erase:
; File C:\Program Files\Microsoft Visual Studio\2022\Professional\VC\Tools\MSVC\14.44.35207\include\xutility

; 1667 :         _Iter_diff_t<_InIt> _Off = 0;

  0007a	33 ff		 xor	 edi, edi
  0007c	8b c6		 mov	 eax, esi
  0007e	89 7d f4	 mov	 DWORD PTR __Off$1$[ebp], edi
; File C:\Program Files\Microsoft Visual Studio\2022\Professional\VC\Tools\MSVC\14.44.35207\include\xtree

; 101  :         return !(*this == _Right);

  00081	3b f3		 cmp	 esi, ebx
; File C:\Program Files\Microsoft Visual Studio\2022\Professional\VC\Tools\MSVC\14.44.35207\include\xutility

; 1668 :         for (; _UFirst != _ULast; ++_UFirst) {

  00083	74 44		 je	 SHORT $LN41@erase
$LL42@erase:
; File C:\Program Files\Microsoft Visual Studio\2022\Professional\VC\Tools\MSVC\14.44.35207\include\xtree

; 50   :         if (_Ptr->_Right->_Isnil) { // climb looking for right subtree

  00085	8b 48 08	 mov	 ecx, DWORD PTR [eax+8]
; File C:\Program Files\Microsoft Visual Studio\2022\Professional\VC\Tools\MSVC\14.44.35207\include\xutility

; 1669 :             ++_Off;

  00088	47		 inc	 edi
; File C:\Program Files\Microsoft Visual Studio\2022\Professional\VC\Tools\MSVC\14.44.35207\include\xtree

; 50   :         if (_Ptr->_Right->_Isnil) { // climb looking for right subtree

  00089	80 79 0d 00	 cmp	 BYTE PTR [ecx+13], 0
  0008d	74 1d		 je	 SHORT $LN47@erase

; 51   :             _Nodeptr _Pnode;
; 52   :             while (!(_Pnode = _Ptr->_Parent)->_Isnil && _Ptr == _Pnode->_Right) {

  0008f	8b 48 04	 mov	 ecx, DWORD PTR [eax+4]
  00092	80 79 0d 00	 cmp	 BYTE PTR [ecx+13], 0
  00096	75 10		 jne	 SHORT $LN197@erase
$LL45@erase:
  00098	3b 41 08	 cmp	 eax, DWORD PTR [ecx+8]
  0009b	75 0b		 jne	 SHORT $LN197@erase

; 53   :                 _Ptr = _Pnode; // ==> parent while right subtree

  0009d	8b c1		 mov	 eax, ecx
  0009f	8b 49 04	 mov	 ecx, DWORD PTR [ecx+4]
  000a2	80 79 0d 00	 cmp	 BYTE PTR [ecx+13], 0
  000a6	74 f0		 je	 SHORT $LL45@erase
$LN197@erase:

; 54   :             }
; 55   : 
; 56   :             _Ptr = _Pnode; // ==> parent (head if end())

  000a8	8b c1		 mov	 eax, ecx

; 57   :         } else {

  000aa	eb 16		 jmp	 SHORT $LN53@erase
$LN47@erase:

; 58   :             _Ptr = _Mytree::_Min(_Ptr->_Right); // ==> smallest of right subtree

  000ac	8b c1		 mov	 eax, ecx

; 476  :         while (!_Pnode->_Left->_Isnil) {

  000ae	8b 10		 mov	 edx, DWORD PTR [eax]
  000b0	80 7a 0d 00	 cmp	 BYTE PTR [edx+13], 0
  000b4	75 0c		 jne	 SHORT $LN53@erase
$LL52@erase:
  000b6	8b 0a		 mov	 ecx, DWORD PTR [edx]

; 477  :             _Pnode = _Pnode->_Left;

  000b8	8b c2		 mov	 eax, edx
  000ba	8b d1		 mov	 edx, ecx
  000bc	80 79 0d 00	 cmp	 BYTE PTR [ecx+13], 0
  000c0	74 f4		 je	 SHORT $LL52@erase
$LN53@erase:

; 101  :         return !(*this == _Right);

  000c2	3b c3		 cmp	 eax, ebx
; File C:\Program Files\Microsoft Visual Studio\2022\Professional\VC\Tools\MSVC\14.44.35207\include\xutility

; 1668 :         for (; _UFirst != _ULast; ++_UFirst) {

  000c4	75 bf		 jne	 SHORT $LL42@erase
  000c6	89 7d f4	 mov	 DWORD PTR __Off$1$[ebp], edi
$LN41@erase:
; File C:\Program Files\Microsoft Visual Studio\2022\Professional\VC\Tools\MSVC\14.44.35207\include\xtree

; 96   :         return _Ptr == _Right._Ptr;

  000c9	8b 45 fc	 mov	 eax, DWORD PTR __Head$1$[ebp]

; 1329 :         _Erase_unchecked(_First, _Last);

  000cc	89 75 08	 mov	 DWORD PTR __First$[ebp], esi

; 96   :         return _Ptr == _Right._Ptr;

  000cf	3b 30		 cmp	 esi, DWORD PTR [eax]

; 1311 :         if (_First == _Begin && _Last._Ptr->_Isnil) {

  000d1	75 31		 jne	 SHORT $LN176@erase
  000d3	80 7b 0d 00	 cmp	 BYTE PTR [ebx+13], 0
  000d7	74 2b		 je	 SHORT $LN176@erase

; 1374 :         _Scary->_Erase_tree(_Getal(), _Head->_Parent);

  000d9	ff 70 04	 push	 DWORD PTR [eax+4]
  000dc	8b 5d f8	 mov	 ebx, DWORD PTR _this$1$[ebp]
  000df	8b cb		 mov	 ecx, ebx
  000e1	53		 push	 ebx
  000e2	e8 00 00 00 00	 call	 ??$_Erase_tree@V?$allocator@U?$_Tree_node@U?$pair@$$CBKV?$queue@USFXHIT_COUNT@@V?$deque@USFXHIT_COUNT@@V?$allocator@USFXHIT_COUNT@@@std@@@std@@@std@@@std@@PAX@std@@@std@@@?$_Tree_val@U?$_Tree_simple_types@U?$pair@$$CBKV?$queue@USFXHIT_COUNT@@V?$deque@USFXHIT_COUNT@@V?$allocator@USFXHIT_COUNT@@@std@@@std@@@std@@@std@@@std@@@std@@QAEXAAV?$allocator@U?$_Tree_node@U?$pair@$$CBKV?$queue@USFXHIT_COUNT@@V?$deque@USFXHIT_COUNT@@V?$allocator@USFXHIT_COUNT@@@std@@@std@@@std@@@std@@PAX@std@@@1@PAU?$_Tree_node@U?$pair@$$CBKV?$queue@USFXHIT_COUNT@@V?$deque@USFXHIT_COUNT@@V?$allocator@USFXHIT_COUNT@@@std@@@std@@@std@@@std@@PAX@1@@Z ; std::_Tree_val<std::_Tree_simple_types<std::pair<unsigned long const ,std::queue<SFXHIT_COUNT,std::deque<SFXHIT_COUNT,std::allocator<SFXHIT_COUNT> > > > > >::_Erase_tree<std::allocator<std::_Tree_node<std::pair<unsigned long const ,std::queue<SFXHIT_COUNT,std::deque<SFXHIT_COUNT,std::allocator<SFXHIT_COUNT> > > >,void *> > >

; 1375 :         _Head->_Parent  = _Head;

  000e7	8b 45 fc	 mov	 eax, DWORD PTR __Head$1$[ebp]
  000ea	89 40 04	 mov	 DWORD PTR [eax+4], eax

; 1376 :         _Head->_Left    = _Head;

  000ed	89 00		 mov	 DWORD PTR [eax], eax

; 1377 :         _Head->_Right   = _Head;

  000ef	89 40 08	 mov	 DWORD PTR [eax+8], eax

; 1378 :         _Scary->_Mysize = 0;

  000f2	c7 43 04 00 00
	00 00		 mov	 DWORD PTR [ebx+4], 0
$LN196@erase:

; 1358 :         return _Erase(_Eqrange(_Keyval));
; 1359 :     }

  000f9	8b c7		 mov	 eax, edi
  000fb	5f		 pop	 edi
  000fc	5e		 pop	 esi
  000fd	5b		 pop	 ebx
  000fe	8b e5		 mov	 esp, ebp
  00100	5d		 pop	 ebp
  00101	c2 04 00	 ret	 4
$LN176@erase:

; 101  :         return !(*this == _Right);

  00104	3b f3		 cmp	 esi, ebx

; 1318 :         while (_First != _Last) {

  00106	74 f1		 je	 SHORT $LN196@erase
$LL63@erase:

; 66   :         ++*this;

  00108	8d 4d 08	 lea	 ecx, DWORD PTR __First$[ebp]
  0010b	e8 00 00 00 00	 call	 ??E?$_Tree_unchecked_const_iterator@V?$_Tree_val@U?$_Tree_simple_types@U?$pair@$$CBKV?$queue@USFXHIT_COUNT@@V?$deque@USFXHIT_COUNT@@V?$allocator@USFXHIT_COUNT@@@std@@@std@@@std@@@std@@@std@@@std@@U_Iterator_base0@2@@std@@QAEAAV01@XZ ; std::_Tree_unchecked_const_iterator<std::_Tree_val<std::_Tree_simple_types<std::pair<unsigned long const ,std::queue<SFXHIT_COUNT,std::deque<SFXHIT_COUNT,std::allocator<SFXHIT_COUNT> > > > > >,std::_Iterator_base0>::operator++

; 1303 :         _Nodeptr _Erasednode = _Scary->_Extract(_Where); // node to erase

  00110	8b 4d f8	 mov	 ecx, DWORD PTR _this$1$[ebp]
  00113	56		 push	 esi
  00114	e8 00 00 00 00	 call	 ?_Extract@?$_Tree_val@U?$_Tree_simple_types@U?$pair@$$CBKV?$queue@USFXHIT_COUNT@@V?$deque@USFXHIT_COUNT@@V?$allocator@USFXHIT_COUNT@@@std@@@std@@@std@@@std@@@std@@@std@@QAEPAU?$_Tree_node@U?$pair@$$CBKV?$queue@USFXHIT_COUNT@@V?$deque@USFXHIT_COUNT@@V?$allocator@USFXHIT_COUNT@@@std@@@std@@@std@@@std@@PAX@2@V?$_Tree_unchecked_const_iterator@V?$_Tree_val@U?$_Tree_simple_types@U?$pair@$$CBKV?$queue@USFXHIT_COUNT@@V?$deque@USFXHIT_COUNT@@V?$allocator@USFXHIT_COUNT@@@std@@@std@@@std@@@std@@@std@@@std@@U_Iterator_base0@2@@2@@Z ; std::_Tree_val<std::_Tree_simple_types<std::pair<unsigned long const ,std::queue<SFXHIT_COUNT,std::deque<SFXHIT_COUNT,std::allocator<SFXHIT_COUNT> > > > > >::_Extract
  00119	8b f8		 mov	 edi, eax
; File C:\Program Files\Microsoft Visual Studio\2022\Professional\VC\Tools\MSVC\14.44.35207\include\deque

; 774  :         _Tidy();

  0011b	8d 4f 14	 lea	 ecx, DWORD PTR [edi+20]
  0011e	e8 00 00 00 00	 call	 ?_Tidy@?$deque@USFXHIT_COUNT@@V?$allocator@USFXHIT_COUNT@@@std@@@std@@AAEXXZ ; std::deque<SFXHIT_COUNT,std::allocator<SFXHIT_COUNT> >::_Tidy
; File C:\Program Files\Microsoft Visual Studio\2022\Professional\VC\Tools\MSVC\14.44.35207\include\utility

; 773  :     _Ty _Old_val = static_cast<_Ty&&>(_Val);

  00123	8b 4f 14	 mov	 ecx, DWORD PTR [edi+20]
; File C:\Program Files\Microsoft Visual Studio\2022\Professional\VC\Tools\MSVC\14.44.35207\include\xmemory

; 289  :         ::operator delete(_Ptr, _Bytes);

  00126	6a 08		 push	 8
  00128	51		 push	 ecx
; File C:\Program Files\Microsoft Visual Studio\2022\Professional\VC\Tools\MSVC\14.44.35207\include\utility

; 774  :     _Val         = static_cast<_Other&&>(_New_val);

  00129	c7 47 14 00 00
	00 00		 mov	 DWORD PTR [edi+20], 0
; File C:\Program Files\Microsoft Visual Studio\2022\Professional\VC\Tools\MSVC\14.44.35207\include\xmemory

; 289  :         ::operator delete(_Ptr, _Bytes);

  00130	e8 00 00 00 00	 call	 ??3@YAXPAXI@Z		; operator delete
  00135	6a 28		 push	 40			; 00000028H
  00137	57		 push	 edi
  00138	e8 00 00 00 00	 call	 ??3@YAXPAXI@Z		; operator delete
; File C:\Program Files\Microsoft Visual Studio\2022\Professional\VC\Tools\MSVC\14.44.35207\include\xtree

; 101  :         return !(*this == _Right);

  0013d	8b 75 08	 mov	 esi, DWORD PTR __First$[ebp]
; File C:\Program Files\Microsoft Visual Studio\2022\Professional\VC\Tools\MSVC\14.44.35207\include\xmemory

; 289  :         ::operator delete(_Ptr, _Bytes);

  00140	83 c4 10	 add	 esp, 16			; 00000010H
; File C:\Program Files\Microsoft Visual Studio\2022\Professional\VC\Tools\MSVC\14.44.35207\include\xtree

; 101  :         return !(*this == _Right);

  00143	3b f3		 cmp	 esi, ebx

; 1318 :         while (_First != _Last) {

  00145	75 c1		 jne	 SHORT $LL63@erase

; 1358 :         return _Erase(_Eqrange(_Keyval));
; 1359 :     }

  00147	8b 45 f4	 mov	 eax, DWORD PTR __Off$1$[ebp]
  0014a	5f		 pop	 edi
  0014b	5e		 pop	 esi
  0014c	5b		 pop	 ebx
  0014d	8b e5		 mov	 esp, ebp
  0014f	5d		 pop	 ebp
  00150	c2 04 00	 ret	 4
?erase@?$_Tree@V?$_Tmap_traits@KV?$queue@USFXHIT_COUNT@@V?$deque@USFXHIT_COUNT@@V?$allocator@USFXHIT_COUNT@@@std@@@std@@@std@@U?$less@K@2@V?$allocator@U?$pair@$$CBKV?$queue@USFXHIT_COUNT@@V?$deque@USFXHIT_COUNT@@V?$allocator@USFXHIT_COUNT@@@std@@@std@@@std@@@std@@@2@$0A@@std@@@std@@QAEIABK@Z ENDP ; std::_Tree<std::_Tmap_traits<unsigned long,std::queue<SFXHIT_COUNT,std::deque<SFXHIT_COUNT,std::allocator<SFXHIT_COUNT> > >,std::less<unsigned long>,std::allocator<std::pair<unsigned long const ,std::queue<SFXHIT_COUNT,std::deque<SFXHIT_COUNT,std::allocator<SFXHIT_COUNT> > > > >,0> >::erase
_TEXT	ENDS
; Function compile flags: /Ogtp
; File C:\Program Files\Microsoft Visual Studio\2022\Professional\VC\Tools\MSVC\14.44.35207\include\xtree
;	COMDAT ?_Insert_node@?$_Tree_val@U?$_Tree_simple_types@U?$pair@$$CBKV?$queue@USFXHIT_INFO@@V?$deque@USFXHIT_INFO@@V?$allocator@USFXHIT_INFO@@@std@@@std@@@std@@@std@@@std@@@std@@QAEPAU?$_Tree_node@U?$pair@$$CBKV?$queue@USFXHIT_INFO@@V?$deque@USFXHIT_INFO@@V?$allocator@USFXHIT_INFO@@@std@@@std@@@std@@@std@@PAX@2@U?$_Tree_id@PAU?$_Tree_node@U?$pair@$$CBKV?$queue@USFXHIT_INFO@@V?$deque@USFXHIT_INFO@@V?$allocator@USFXHIT_INFO@@@std@@@std@@@std@@@std@@PAX@std@@@2@QAU32@@Z
_TEXT	SEGMENT
__Head$1$ = -4						; size = 4
__Loc$ = 8						; size = 8
__Newnode$ = 16						; size = 4
?_Insert_node@?$_Tree_val@U?$_Tree_simple_types@U?$pair@$$CBKV?$queue@USFXHIT_INFO@@V?$deque@USFXHIT_INFO@@V?$allocator@USFXHIT_INFO@@@std@@@std@@@std@@@std@@@std@@@std@@QAEPAU?$_Tree_node@U?$pair@$$CBKV?$queue@USFXHIT_INFO@@V?$deque@USFXHIT_INFO@@V?$allocator@USFXHIT_INFO@@@std@@@std@@@std@@@std@@PAX@2@U?$_Tree_id@PAU?$_Tree_node@U?$pair@$$CBKV?$queue@USFXHIT_INFO@@V?$deque@USFXHIT_INFO@@V?$allocator@USFXHIT_INFO@@@std@@@std@@@std@@@std@@PAX@std@@@2@QAU32@@Z PROC ; std::_Tree_val<std::_Tree_simple_types<std::pair<unsigned long const ,std::queue<SFXHIT_INFO,std::deque<SFXHIT_INFO,std::allocator<SFXHIT_INFO> > > > > >::_Insert_node, COMDAT
; _this$ = ecx

; 669  :     _Nodeptr _Insert_node(const _Tree_id<_Nodeptr> _Loc, const _Nodeptr _Newnode) noexcept {

  00000	55		 push	 ebp
  00001	8b ec		 mov	 ebp, esp
  00003	51		 push	 ecx

; 670  :         ++_Mysize;
; 671  :         const auto _Head  = _Myhead;
; 672  :         _Newnode->_Parent = _Loc._Parent;

  00004	8b 55 08	 mov	 edx, DWORD PTR __Loc$[ebp]
  00007	53		 push	 ebx
  00008	8b d9		 mov	 ebx, ecx
  0000a	57		 push	 edi
  0000b	8b 7d 10	 mov	 edi, DWORD PTR __Newnode$[ebp]
  0000e	8b 03		 mov	 eax, DWORD PTR [ebx]
  00010	ff 43 04	 inc	 DWORD PTR [ebx+4]
  00013	89 45 fc	 mov	 DWORD PTR __Head$1$[ebp], eax
  00016	89 57 04	 mov	 DWORD PTR [edi+4], edx

; 673  :         if (_Loc._Parent == _Head) { // first node in tree, just set head values

  00019	3b d0		 cmp	 edx, eax
  0001b	75 16		 jne	 SHORT $LN5@Insert_nod

; 674  :             _Head->_Left     = _Newnode;

  0001d	89 38		 mov	 DWORD PTR [eax], edi

; 675  :             _Head->_Parent   = _Newnode;

  0001f	89 78 04	 mov	 DWORD PTR [eax+4], edi

; 676  :             _Head->_Right    = _Newnode;

  00022	89 78 08	 mov	 DWORD PTR [eax+8], edi

; 735  :         return _Newnode;
; 736  :     }

  00025	8b c7		 mov	 eax, edi
  00027	c6 47 0c 01	 mov	 BYTE PTR [edi+12], 1
  0002b	5f		 pop	 edi
  0002c	5b		 pop	 ebx
  0002d	8b e5		 mov	 esp, ebp
  0002f	5d		 pop	 ebp
  00030	c2 0c 00	 ret	 12			; 0000000cH
$LN5@Insert_nod:

; 677  :             _Newnode->_Color = _Black; // the root is black
; 678  :             return _Newnode;
; 679  :         }
; 680  : 
; 681  :         _STL_INTERNAL_CHECK(_Loc._Child != _Tree_child::_Unused);
; 682  :         if (_Loc._Child == _Tree_child::_Right) { // add to right of _Loc._Parent

  00033	83 7d 0c 00	 cmp	 DWORD PTR __Loc$[ebp+4], 0
  00037	75 0d		 jne	 SHORT $LN6@Insert_nod

; 683  :             _STL_INTERNAL_CHECK(_Loc._Parent->_Right->_Isnil);
; 684  :             _Loc._Parent->_Right = _Newnode;

  00039	89 7a 08	 mov	 DWORD PTR [edx+8], edi

; 685  :             if (_Loc._Parent == _Head->_Right) { // remember rightmost node

  0003c	3b 50 08	 cmp	 edx, DWORD PTR [eax+8]
  0003f	75 0d		 jne	 SHORT $LN9@Insert_nod

; 686  :                 _Head->_Right = _Newnode;

  00041	89 78 08	 mov	 DWORD PTR [eax+8], edi

; 687  :             }
; 688  :         } else { // add to left of _Loc._Parent

  00044	eb 08		 jmp	 SHORT $LN9@Insert_nod
$LN6@Insert_nod:

; 689  :             _STL_INTERNAL_CHECK(_Loc._Parent->_Left->_Isnil);
; 690  :             _Loc._Parent->_Left = _Newnode;

  00046	89 3a		 mov	 DWORD PTR [edx], edi

; 691  :             if (_Loc._Parent == _Head->_Left) { // remember leftmost node

  00048	3b 10		 cmp	 edx, DWORD PTR [eax]
  0004a	75 02		 jne	 SHORT $LN9@Insert_nod

; 692  :                 _Head->_Left = _Newnode;

  0004c	89 38		 mov	 DWORD PTR [eax], edi
$LN9@Insert_nod:

; 693  :             }
; 694  :         }
; 695  : 
; 696  :         for (_Nodeptr _Pnode = _Newnode; _Pnode->_Parent->_Color == _Red;) {

  0004e	8b 4f 04	 mov	 ecx, DWORD PTR [edi+4]
  00051	8b c7		 mov	 eax, edi
  00053	80 79 0c 00	 cmp	 BYTE PTR [ecx+12], 0
  00057	0f 85 7d 01 00
	00		 jne	 $LN3@Insert_nod
  0005d	56		 push	 esi
  0005e	66 90		 npad	 2
$LL4@Insert_nod:

; 697  :             if (_Pnode->_Parent == _Pnode->_Parent->_Parent->_Left) { // fixup red-red in left subtree

  00060	8b 50 04	 mov	 edx, DWORD PTR [eax+4]
  00063	8b 72 04	 mov	 esi, DWORD PTR [edx+4]
  00066	8b 0e		 mov	 ecx, DWORD PTR [esi]
  00068	3b d1		 cmp	 edx, ecx
  0006a	0f 85 aa 00 00
	00		 jne	 $LN10@Insert_nod

; 698  :                 const auto _Parent_sibling = _Pnode->_Parent->_Parent->_Right;

  00070	8b 4e 08	 mov	 ecx, DWORD PTR [esi+8]

; 699  :                 if (_Parent_sibling->_Color == _Red) { // parent's sibling has two red children, blacken both

  00073	80 79 0c 00	 cmp	 BYTE PTR [ecx+12], 0
  00077	0f 84 a3 00 00
	00		 je	 $LN82@Insert_nod

; 700  :                     _Pnode->_Parent->_Color          = _Black;
; 701  :                     _Parent_sibling->_Color          = _Black;
; 702  :                     _Pnode->_Parent->_Parent->_Color = _Red;
; 703  :                     _Pnode                           = _Pnode->_Parent->_Parent;
; 704  :                 } else { // parent's sibling has red and black children
; 705  :                     if (_Pnode == _Pnode->_Parent->_Right) { // rotate right child to left

  0007d	8b 72 08	 mov	 esi, DWORD PTR [edx+8]
  00080	3b c6		 cmp	 eax, esi
  00082	75 37		 jne	 SHORT $LN57@Insert_nod

; 485  :         _Wherenode->_Right = _Pnode->_Left;

  00084	8b 0e		 mov	 ecx, DWORD PTR [esi]

; 706  :                         _Pnode = _Pnode->_Parent;

  00086	8b c2		 mov	 eax, edx

; 485  :         _Wherenode->_Right = _Pnode->_Left;

  00088	89 4a 08	 mov	 DWORD PTR [edx+8], ecx

; 486  : 
; 487  :         if (!_Pnode->_Left->_Isnil) {

  0008b	8b 0e		 mov	 ecx, DWORD PTR [esi]
  0008d	80 79 0d 00	 cmp	 BYTE PTR [ecx+13], 0
  00091	75 03		 jne	 SHORT $LN21@Insert_nod

; 488  :             _Pnode->_Left->_Parent = _Wherenode;

  00093	89 41 04	 mov	 DWORD PTR [ecx+4], eax
$LN21@Insert_nod:

; 489  :         }
; 490  : 
; 491  :         _Pnode->_Parent = _Wherenode->_Parent;

  00096	8b 4a 04	 mov	 ecx, DWORD PTR [edx+4]
  00099	89 4e 04	 mov	 DWORD PTR [esi+4], ecx

; 492  : 
; 493  :         if (_Wherenode == _Myhead->_Parent) {

  0009c	8b 0b		 mov	 ecx, DWORD PTR [ebx]
  0009e	3b 41 04	 cmp	 eax, DWORD PTR [ecx+4]
  000a1	75 05		 jne	 SHORT $LN22@Insert_nod

; 494  :             _Myhead->_Parent = _Pnode;

  000a3	89 71 04	 mov	 DWORD PTR [ecx+4], esi
  000a6	eb 0e		 jmp	 SHORT $LN25@Insert_nod
$LN22@Insert_nod:

; 495  :         } else if (_Wherenode == _Wherenode->_Parent->_Left) {

  000a8	8b 4a 04	 mov	 ecx, DWORD PTR [edx+4]
  000ab	3b 01		 cmp	 eax, DWORD PTR [ecx]
  000ad	75 04		 jne	 SHORT $LN24@Insert_nod

; 496  :             _Wherenode->_Parent->_Left = _Pnode;

  000af	89 31		 mov	 DWORD PTR [ecx], esi

; 497  :         } else {

  000b1	eb 03		 jmp	 SHORT $LN25@Insert_nod
$LN24@Insert_nod:

; 498  :             _Wherenode->_Parent->_Right = _Pnode;

  000b3	89 71 08	 mov	 DWORD PTR [ecx+8], esi
$LN25@Insert_nod:

; 499  :         }
; 500  : 
; 501  :         _Pnode->_Left       = _Wherenode;

  000b6	89 06		 mov	 DWORD PTR [esi], eax

; 502  :         _Wherenode->_Parent = _Pnode;

  000b8	89 70 04	 mov	 DWORD PTR [eax+4], esi
$LN57@Insert_nod:

; 707  :                         _Lrotate(_Pnode);
; 708  :                     }
; 709  : 
; 710  :                     _Pnode->_Parent->_Color          = _Black; // propagate red up

  000bb	8b 48 04	 mov	 ecx, DWORD PTR [eax+4]
  000be	c6 41 0c 01	 mov	 BYTE PTR [ecx+12], 1

; 711  :                     _Pnode->_Parent->_Parent->_Color = _Red;

  000c2	8b 48 04	 mov	 ecx, DWORD PTR [eax+4]
  000c5	8b 49 04	 mov	 ecx, DWORD PTR [ecx+4]
  000c8	c6 41 0c 00	 mov	 BYTE PTR [ecx+12], 0

; 712  :                     _Rrotate(_Pnode->_Parent->_Parent);

  000cc	8b 48 04	 mov	 ecx, DWORD PTR [eax+4]
  000cf	8b 51 04	 mov	 edx, DWORD PTR [ecx+4]

; 506  :         _Nodeptr _Pnode   = _Wherenode->_Left;

  000d2	8b 32		 mov	 esi, DWORD PTR [edx]

; 507  :         _Wherenode->_Left = _Pnode->_Right;

  000d4	8b 4e 08	 mov	 ecx, DWORD PTR [esi+8]
  000d7	89 0a		 mov	 DWORD PTR [edx], ecx

; 508  : 
; 509  :         if (!_Pnode->_Right->_Isnil) {

  000d9	8b 4e 08	 mov	 ecx, DWORD PTR [esi+8]
  000dc	80 79 0d 00	 cmp	 BYTE PTR [ecx+13], 0
  000e0	75 03		 jne	 SHORT $LN29@Insert_nod

; 510  :             _Pnode->_Right->_Parent = _Wherenode;

  000e2	89 51 04	 mov	 DWORD PTR [ecx+4], edx
$LN29@Insert_nod:

; 511  :         }
; 512  : 
; 513  :         _Pnode->_Parent = _Wherenode->_Parent;

  000e5	8b 4a 04	 mov	 ecx, DWORD PTR [edx+4]
  000e8	89 4e 04	 mov	 DWORD PTR [esi+4], ecx

; 514  : 
; 515  :         if (_Wherenode == _Myhead->_Parent) {

  000eb	8b 0b		 mov	 ecx, DWORD PTR [ebx]
  000ed	3b 51 04	 cmp	 edx, DWORD PTR [ecx+4]
  000f0	75 0b		 jne	 SHORT $LN30@Insert_nod

; 516  :             _Myhead->_Parent = _Pnode;

  000f2	89 71 04	 mov	 DWORD PTR [ecx+4], esi

; 521  :         }
; 522  : 
; 523  :         _Pnode->_Right      = _Wherenode;

  000f5	89 56 08	 mov	 DWORD PTR [esi+8], edx

; 713  :                 }
; 714  :             } else { // fixup red-red in right subtree

  000f8	e9 cc 00 00 00	 jmp	 $LN81@Insert_nod
$LN30@Insert_nod:

; 517  :         } else if (_Wherenode == _Wherenode->_Parent->_Right) {

  000fd	8b 4a 04	 mov	 ecx, DWORD PTR [edx+4]
  00100	3b 51 08	 cmp	 edx, DWORD PTR [ecx+8]
  00103	75 0b		 jne	 SHORT $LN32@Insert_nod

; 518  :             _Wherenode->_Parent->_Right = _Pnode;

  00105	89 71 08	 mov	 DWORD PTR [ecx+8], esi

; 521  :         }
; 522  : 
; 523  :         _Pnode->_Right      = _Wherenode;

  00108	89 56 08	 mov	 DWORD PTR [esi+8], edx

; 713  :                 }
; 714  :             } else { // fixup red-red in right subtree

  0010b	e9 b9 00 00 00	 jmp	 $LN81@Insert_nod
$LN32@Insert_nod:

; 520  :             _Wherenode->_Parent->_Left = _Pnode;

  00110	89 31		 mov	 DWORD PTR [ecx], esi

; 521  :         }
; 522  : 
; 523  :         _Pnode->_Right      = _Wherenode;

  00112	89 56 08	 mov	 DWORD PTR [esi+8], edx

; 713  :                 }
; 714  :             } else { // fixup red-red in right subtree

  00115	e9 af 00 00 00	 jmp	 $LN81@Insert_nod
$LN10@Insert_nod:

; 715  :                 const auto _Parent_sibling = _Pnode->_Parent->_Parent->_Left;
; 716  :                 if (_Parent_sibling->_Color == _Red) { // parent's sibling has two red children, blacken both

  0011a	80 79 0c 00	 cmp	 BYTE PTR [ecx+12], 0
  0011e	75 1d		 jne	 SHORT $LN15@Insert_nod
$LN82@Insert_nod:

; 693  :             }
; 694  :         }
; 695  : 
; 696  :         for (_Nodeptr _Pnode = _Newnode; _Pnode->_Parent->_Color == _Red;) {

  00120	c6 42 0c 01	 mov	 BYTE PTR [edx+12], 1
  00124	c6 41 0c 01	 mov	 BYTE PTR [ecx+12], 1
  00128	8b 48 04	 mov	 ecx, DWORD PTR [eax+4]
  0012b	8b 49 04	 mov	 ecx, DWORD PTR [ecx+4]
  0012e	c6 41 0c 00	 mov	 BYTE PTR [ecx+12], 0
  00132	8b 48 04	 mov	 ecx, DWORD PTR [eax+4]
  00135	8b 41 04	 mov	 eax, DWORD PTR [ecx+4]
  00138	e9 8f 00 00 00	 jmp	 $LN2@Insert_nod
$LN15@Insert_nod:

; 717  :                     _Pnode->_Parent->_Color          = _Black;
; 718  :                     _Parent_sibling->_Color          = _Black;
; 719  :                     _Pnode->_Parent->_Parent->_Color = _Red;
; 720  :                     _Pnode                           = _Pnode->_Parent->_Parent;
; 721  :                 } else { // parent's sibling has red and black children
; 722  :                     if (_Pnode == _Pnode->_Parent->_Left) { // rotate left child to right

  0013d	8b 32		 mov	 esi, DWORD PTR [edx]
  0013f	3b c6		 cmp	 eax, esi
  00141	75 3a		 jne	 SHORT $LN42@Insert_nod

; 507  :         _Wherenode->_Left = _Pnode->_Right;

  00143	8b 4e 08	 mov	 ecx, DWORD PTR [esi+8]

; 723  :                         _Pnode = _Pnode->_Parent;

  00146	8b c2		 mov	 eax, edx

; 507  :         _Wherenode->_Left = _Pnode->_Right;

  00148	89 08		 mov	 DWORD PTR [eax], ecx

; 508  : 
; 509  :         if (!_Pnode->_Right->_Isnil) {

  0014a	8b 4e 08	 mov	 ecx, DWORD PTR [esi+8]
  0014d	80 79 0d 00	 cmp	 BYTE PTR [ecx+13], 0
  00151	75 03		 jne	 SHORT $LN37@Insert_nod

; 510  :             _Pnode->_Right->_Parent = _Wherenode;

  00153	89 41 04	 mov	 DWORD PTR [ecx+4], eax
$LN37@Insert_nod:

; 511  :         }
; 512  : 
; 513  :         _Pnode->_Parent = _Wherenode->_Parent;

  00156	8b 4a 04	 mov	 ecx, DWORD PTR [edx+4]
  00159	89 4e 04	 mov	 DWORD PTR [esi+4], ecx

; 514  : 
; 515  :         if (_Wherenode == _Myhead->_Parent) {

  0015c	8b 0b		 mov	 ecx, DWORD PTR [ebx]
  0015e	3b 41 04	 cmp	 eax, DWORD PTR [ecx+4]
  00161	75 05		 jne	 SHORT $LN38@Insert_nod

; 516  :             _Myhead->_Parent = _Pnode;

  00163	89 71 04	 mov	 DWORD PTR [ecx+4], esi
  00166	eb 0f		 jmp	 SHORT $LN41@Insert_nod
$LN38@Insert_nod:

; 517  :         } else if (_Wherenode == _Wherenode->_Parent->_Right) {

  00168	8b 4a 04	 mov	 ecx, DWORD PTR [edx+4]
  0016b	3b 41 08	 cmp	 eax, DWORD PTR [ecx+8]
  0016e	75 05		 jne	 SHORT $LN40@Insert_nod

; 518  :             _Wherenode->_Parent->_Right = _Pnode;

  00170	89 71 08	 mov	 DWORD PTR [ecx+8], esi

; 519  :         } else {

  00173	eb 02		 jmp	 SHORT $LN41@Insert_nod
$LN40@Insert_nod:

; 520  :             _Wherenode->_Parent->_Left = _Pnode;

  00175	89 31		 mov	 DWORD PTR [ecx], esi
$LN41@Insert_nod:

; 521  :         }
; 522  : 
; 523  :         _Pnode->_Right      = _Wherenode;

  00177	89 46 08	 mov	 DWORD PTR [esi+8], eax

; 524  :         _Wherenode->_Parent = _Pnode;

  0017a	89 70 04	 mov	 DWORD PTR [eax+4], esi
$LN42@Insert_nod:

; 724  :                         _Rrotate(_Pnode);
; 725  :                     }
; 726  : 
; 727  :                     _Pnode->_Parent->_Color          = _Black; // propagate red up

  0017d	8b 48 04	 mov	 ecx, DWORD PTR [eax+4]
  00180	c6 41 0c 01	 mov	 BYTE PTR [ecx+12], 1

; 728  :                     _Pnode->_Parent->_Parent->_Color = _Red;

  00184	8b 48 04	 mov	 ecx, DWORD PTR [eax+4]
  00187	8b 49 04	 mov	 ecx, DWORD PTR [ecx+4]
  0018a	c6 41 0c 00	 mov	 BYTE PTR [ecx+12], 0

; 729  :                     _Lrotate(_Pnode->_Parent->_Parent);

  0018e	8b 48 04	 mov	 ecx, DWORD PTR [eax+4]
  00191	8b 51 04	 mov	 edx, DWORD PTR [ecx+4]

; 484  :         _Nodeptr _Pnode    = _Wherenode->_Right;

  00194	8b 72 08	 mov	 esi, DWORD PTR [edx+8]

; 485  :         _Wherenode->_Right = _Pnode->_Left;

  00197	8b 0e		 mov	 ecx, DWORD PTR [esi]
  00199	89 4a 08	 mov	 DWORD PTR [edx+8], ecx

; 486  : 
; 487  :         if (!_Pnode->_Left->_Isnil) {

  0019c	8b 0e		 mov	 ecx, DWORD PTR [esi]
  0019e	80 79 0d 00	 cmp	 BYTE PTR [ecx+13], 0
  001a2	75 03		 jne	 SHORT $LN45@Insert_nod

; 488  :             _Pnode->_Left->_Parent = _Wherenode;

  001a4	89 51 04	 mov	 DWORD PTR [ecx+4], edx
$LN45@Insert_nod:

; 489  :         }
; 490  : 
; 491  :         _Pnode->_Parent = _Wherenode->_Parent;

  001a7	8b 4a 04	 mov	 ecx, DWORD PTR [edx+4]
  001aa	89 4e 04	 mov	 DWORD PTR [esi+4], ecx

; 492  : 
; 493  :         if (_Wherenode == _Myhead->_Parent) {

  001ad	8b 0b		 mov	 ecx, DWORD PTR [ebx]
  001af	3b 51 04	 cmp	 edx, DWORD PTR [ecx+4]
  001b2	75 05		 jne	 SHORT $LN46@Insert_nod

; 494  :             _Myhead->_Parent = _Pnode;

  001b4	89 71 04	 mov	 DWORD PTR [ecx+4], esi
  001b7	eb 0e		 jmp	 SHORT $LN49@Insert_nod
$LN46@Insert_nod:

; 495  :         } else if (_Wherenode == _Wherenode->_Parent->_Left) {

  001b9	8b 4a 04	 mov	 ecx, DWORD PTR [edx+4]
  001bc	3b 11		 cmp	 edx, DWORD PTR [ecx]
  001be	75 04		 jne	 SHORT $LN48@Insert_nod

; 496  :             _Wherenode->_Parent->_Left = _Pnode;

  001c0	89 31		 mov	 DWORD PTR [ecx], esi

; 497  :         } else {

  001c2	eb 03		 jmp	 SHORT $LN49@Insert_nod
$LN48@Insert_nod:

; 498  :             _Wherenode->_Parent->_Right = _Pnode;

  001c4	89 71 08	 mov	 DWORD PTR [ecx+8], esi
$LN49@Insert_nod:

; 499  :         }
; 500  : 
; 501  :         _Pnode->_Left       = _Wherenode;

  001c7	89 16		 mov	 DWORD PTR [esi], edx
$LN81@Insert_nod:

; 693  :             }
; 694  :         }
; 695  : 
; 696  :         for (_Nodeptr _Pnode = _Newnode; _Pnode->_Parent->_Color == _Red;) {

  001c9	89 72 04	 mov	 DWORD PTR [edx+4], esi
$LN2@Insert_nod:
  001cc	8b 48 04	 mov	 ecx, DWORD PTR [eax+4]
  001cf	80 79 0c 00	 cmp	 BYTE PTR [ecx+12], 0
  001d3	0f 84 87 fe ff
	ff		 je	 $LL4@Insert_nod
  001d9	5e		 pop	 esi
$LN3@Insert_nod:

; 730  :                 }
; 731  :             }
; 732  :         }
; 733  : 
; 734  :         _Head->_Parent->_Color = _Black; // root is always black

  001da	8b 45 fc	 mov	 eax, DWORD PTR __Head$1$[ebp]
  001dd	8b 40 04	 mov	 eax, DWORD PTR [eax+4]
  001e0	c6 40 0c 01	 mov	 BYTE PTR [eax+12], 1

; 735  :         return _Newnode;
; 736  :     }

  001e4	8b c7		 mov	 eax, edi
  001e6	5f		 pop	 edi
  001e7	5b		 pop	 ebx
  001e8	8b e5		 mov	 esp, ebp
  001ea	5d		 pop	 ebp
  001eb	c2 0c 00	 ret	 12			; 0000000cH
?_Insert_node@?$_Tree_val@U?$_Tree_simple_types@U?$pair@$$CBKV?$queue@USFXHIT_INFO@@V?$deque@USFXHIT_INFO@@V?$allocator@USFXHIT_INFO@@@std@@@std@@@std@@@std@@@std@@@std@@QAEPAU?$_Tree_node@U?$pair@$$CBKV?$queue@USFXHIT_INFO@@V?$deque@USFXHIT_INFO@@V?$allocator@USFXHIT_INFO@@@std@@@std@@@std@@@std@@PAX@2@U?$_Tree_id@PAU?$_Tree_node@U?$pair@$$CBKV?$queue@USFXHIT_INFO@@V?$deque@USFXHIT_INFO@@V?$allocator@USFXHIT_INFO@@@std@@@std@@@std@@@std@@PAX@std@@@2@QAU32@@Z ENDP ; std::_Tree_val<std::_Tree_simple_types<std::pair<unsigned long const ,std::queue<SFXHIT_INFO,std::deque<SFXHIT_INFO,std::allocator<SFXHIT_INFO> > > > > >::_Insert_node
_TEXT	ENDS
; Function compile flags: /Ogtp
; File C:\Program Files\Microsoft Visual Studio\2022\Professional\VC\Tools\MSVC\14.44.35207\include\xtree
; File C:\Program Files\Microsoft Visual Studio\2022\Professional\VC\Tools\MSVC\14.44.35207\include\utility
; File C:\Program Files\Microsoft Visual Studio\2022\Professional\VC\Tools\MSVC\14.44.35207\include\xtree
;	COMDAT ?_Extract@?$_Tree_val@U?$_Tree_simple_types@U?$pair@$$CBKV?$queue@USFXHIT_INFO@@V?$deque@USFXHIT_INFO@@V?$allocator@USFXHIT_INFO@@@std@@@std@@@std@@@std@@@std@@@std@@QAEPAU?$_Tree_node@U?$pair@$$CBKV?$queue@USFXHIT_INFO@@V?$deque@USFXHIT_INFO@@V?$allocator@USFXHIT_INFO@@@std@@@std@@@std@@@std@@PAX@2@V?$_Tree_unchecked_const_iterator@V?$_Tree_val@U?$_Tree_simple_types@U?$pair@$$CBKV?$queue@USFXHIT_INFO@@V?$deque@USFXHIT_INFO@@V?$allocator@USFXHIT_INFO@@@std@@@std@@@std@@@std@@@std@@@std@@U_Iterator_base0@2@@2@@Z
_TEXT	SEGMENT
tv1039 = -16						; size = 4
tv1073 = -12						; size = 4
tv1093 = -12						; size = 4
$T1 = -12						; size = 4
__Erasednode$1$ = -8					; size = 4
_this$1$ = -4						; size = 4
__Where$ = 8						; size = 4
?_Extract@?$_Tree_val@U?$_Tree_simple_types@U?$pair@$$CBKV?$queue@USFXHIT_INFO@@V?$deque@USFXHIT_INFO@@V?$allocator@USFXHIT_INFO@@@std@@@std@@@std@@@std@@@std@@@std@@QAEPAU?$_Tree_node@U?$pair@$$CBKV?$queue@USFXHIT_INFO@@V?$deque@USFXHIT_INFO@@V?$allocator@USFXHIT_INFO@@@std@@@std@@@std@@@std@@PAX@2@V?$_Tree_unchecked_const_iterator@V?$_Tree_val@U?$_Tree_simple_types@U?$pair@$$CBKV?$queue@USFXHIT_INFO@@V?$deque@USFXHIT_INFO@@V?$allocator@USFXHIT_INFO@@@std@@@std@@@std@@@std@@@std@@@std@@U_Iterator_base0@2@@2@@Z PROC ; std::_Tree_val<std::_Tree_simple_types<std::pair<unsigned long const ,std::queue<SFXHIT_INFO,std::deque<SFXHIT_INFO,std::allocator<SFXHIT_INFO> > > > > >::_Extract, COMDAT
; _this$ = ecx

; 527  :     _Nodeptr _Extract(_Unchecked_const_iterator _Where) noexcept {

  00000	55		 push	 ebp
  00001	8b ec		 mov	 ebp, esp
  00003	83 ec 10	 sub	 esp, 16			; 00000010H

; 528  :         _Nodeptr _Erasednode = _Where._Ptr; // node to erase

  00006	8b 45 08	 mov	 eax, DWORD PTR __Where$[ebp]
  00009	53		 push	 ebx
  0000a	56		 push	 esi
  0000b	8b d9		 mov	 ebx, ecx
  0000d	89 45 f8	 mov	 DWORD PTR __Erasednode$1$[ebp], eax
  00010	57		 push	 edi

; 529  :         ++_Where; // save successor iterator for return

  00011	8d 4d 08	 lea	 ecx, DWORD PTR __Where$[ebp]
  00014	89 5d fc	 mov	 DWORD PTR _this$1$[ebp], ebx
  00017	e8 00 00 00 00	 call	 ??E?$_Tree_unchecked_const_iterator@V?$_Tree_val@U?$_Tree_simple_types@U?$pair@$$CBKV?$queue@USFXHIT_INFO@@V?$deque@USFXHIT_INFO@@V?$allocator@USFXHIT_INFO@@@std@@@std@@@std@@@std@@@std@@@std@@U_Iterator_base0@2@@std@@QAEAAV01@XZ ; std::_Tree_unchecked_const_iterator<std::_Tree_val<std::_Tree_simple_types<std::pair<unsigned long const ,std::queue<SFXHIT_INFO,std::deque<SFXHIT_INFO,std::allocator<SFXHIT_INFO> > > > > >,std::_Iterator_base0>::operator++

; 530  : 
; 531  :         _Nodeptr _Fixnode; // the node to recolor as needed
; 532  :         _Nodeptr _Fixnodeparent; // parent of _Fixnode (which may be nil)
; 533  :         _Nodeptr _Pnode = _Erasednode;
; 534  : 
; 535  :         if (_Pnode->_Left->_Isnil) {

  0001c	8b 4d f8	 mov	 ecx, DWORD PTR __Erasednode$1$[ebp]
  0001f	8b 01		 mov	 eax, DWORD PTR [ecx]
  00021	8b 79 08	 mov	 edi, DWORD PTR [ecx+8]
  00024	80 78 0d 00	 cmp	 BYTE PTR [eax+13], 0
  00028	75 18		 jne	 SHORT $LN94@Extract

; 536  :             _Fixnode = _Pnode->_Right; // stitch up right subtree
; 537  :         } else if (_Pnode->_Right->_Isnil) {

  0002a	80 7f 0d 00	 cmp	 BYTE PTR [edi+13], 0
  0002e	74 04		 je	 SHORT $LN7@Extract

; 538  :             _Fixnode = _Pnode->_Left; // stitch up left subtree

  00030	8b f8		 mov	 edi, eax

; 539  :         } else { // two subtrees, must lift successor node to replace erased

  00032	eb 0e		 jmp	 SHORT $LN94@Extract
$LN7@Extract:

; 540  :             _Pnode   = _Where._Ptr; // _Pnode is successor node

  00034	8b 55 08	 mov	 edx, DWORD PTR __Where$[ebp]

; 541  :             _Fixnode = _Pnode->_Right; // _Fixnode is only subtree

  00037	8b 7a 08	 mov	 edi, DWORD PTR [edx+8]
  0003a	3b d1		 cmp	 edx, ecx

; 542  :         }
; 543  : 
; 544  :         if (_Pnode == _Erasednode) { // at most one subtree, relink it

  0003c	0f 85 91 00 00
	00		 jne	 $LN9@Extract
$LN94@Extract:

; 545  :             _Fixnodeparent = _Erasednode->_Parent;
; 546  :             if (!_Fixnode->_Isnil) {

  00042	80 7f 0d 00	 cmp	 BYTE PTR [edi+13], 0
  00046	8b 71 04	 mov	 esi, DWORD PTR [ecx+4]
  00049	75 03		 jne	 SHORT $LN11@Extract

; 547  :                 _Fixnode->_Parent = _Fixnodeparent; // link up

  0004b	89 77 04	 mov	 DWORD PTR [edi+4], esi
$LN11@Extract:

; 548  :             }
; 549  : 
; 550  :             if (_Myhead->_Parent == _Erasednode) {

  0004e	8b 03		 mov	 eax, DWORD PTR [ebx]
  00050	39 48 04	 cmp	 DWORD PTR [eax+4], ecx
  00053	75 05		 jne	 SHORT $LN12@Extract

; 551  :                 _Myhead->_Parent = _Fixnode; // link down from root

  00055	89 78 04	 mov	 DWORD PTR [eax+4], edi
  00058	eb 0b		 jmp	 SHORT $LN15@Extract
$LN12@Extract:

; 552  :             } else if (_Fixnodeparent->_Left == _Erasednode) {

  0005a	39 0e		 cmp	 DWORD PTR [esi], ecx
  0005c	75 04		 jne	 SHORT $LN14@Extract

; 553  :                 _Fixnodeparent->_Left = _Fixnode; // link down to left

  0005e	89 3e		 mov	 DWORD PTR [esi], edi

; 554  :             } else {

  00060	eb 03		 jmp	 SHORT $LN15@Extract
$LN14@Extract:

; 555  :                 _Fixnodeparent->_Right = _Fixnode; // link down to right

  00062	89 7e 08	 mov	 DWORD PTR [esi+8], edi
$LN15@Extract:

; 556  :             }
; 557  : 
; 558  :             if (_Myhead->_Left == _Erasednode) {

  00065	8b 03		 mov	 eax, DWORD PTR [ebx]
  00067	39 08		 cmp	 DWORD PTR [eax], ecx
  00069	75 28		 jne	 SHORT $LN16@Extract

; 559  :                 _Myhead->_Left = _Fixnode->_Isnil ? _Fixnodeparent // smallest is parent of erased node

  0006b	80 7f 0d 00	 cmp	 BYTE PTR [edi+13], 0
  0006f	74 04		 je	 SHORT $LN42@Extract
  00071	8b d6		 mov	 edx, esi
  00073	eb 1c		 jmp	 SHORT $LN43@Extract
$LN42@Extract:

; 476  :         while (!_Pnode->_Left->_Isnil) {

  00075	8b 0f		 mov	 ecx, DWORD PTR [edi]

; 559  :                 _Myhead->_Left = _Fixnode->_Isnil ? _Fixnodeparent // smallest is parent of erased node

  00077	8b d7		 mov	 edx, edi

; 476  :         while (!_Pnode->_Left->_Isnil) {

  00079	80 79 0d 00	 cmp	 BYTE PTR [ecx+13], 0
  0007d	75 0f		 jne	 SHORT $LN49@Extract
  0007f	90		 npad	 1
$LL48@Extract:
  00080	8b 01		 mov	 eax, DWORD PTR [ecx]

; 477  :             _Pnode = _Pnode->_Left;

  00082	8b d1		 mov	 edx, ecx
  00084	8b c8		 mov	 ecx, eax
  00086	80 78 0d 00	 cmp	 BYTE PTR [eax+13], 0
  0008a	74 f4		 je	 SHORT $LL48@Extract
  0008c	8b 03		 mov	 eax, DWORD PTR [ebx]
$LN49@Extract:
  0008e	8b 4d f8	 mov	 ecx, DWORD PTR __Erasednode$1$[ebp]
$LN43@Extract:

; 559  :                 _Myhead->_Left = _Fixnode->_Isnil ? _Fixnodeparent // smallest is parent of erased node

  00091	89 10		 mov	 DWORD PTR [eax], edx
$LN16@Extract:

; 560  :                                                   : _Min(_Fixnode); // smallest in relinked subtree
; 561  :             }
; 562  : 
; 563  :             if (_Myhead->_Right == _Erasednode) {

  00093	8b 13		 mov	 edx, DWORD PTR [ebx]
  00095	39 4a 08	 cmp	 DWORD PTR [edx+8], ecx
  00098	75 34		 jne	 SHORT $LN17@Extract

; 564  :                 _Myhead->_Right = _Fixnode->_Isnil ? _Fixnodeparent // largest is parent of erased node

  0009a	80 7f 0d 00	 cmp	 BYTE PTR [edi+13], 0
  0009e	74 0d		 je	 SHORT $LN44@Extract

; 565  :                                                    : _Max(_Fixnode); // largest in relinked subtree
; 566  :             }
; 567  :         } else { // erased has two subtrees, _Pnode is successor to erased

  000a0	8b 45 f8	 mov	 eax, DWORD PTR __Erasednode$1$[ebp]
  000a3	8b ce		 mov	 ecx, esi
  000a5	89 4a 08	 mov	 DWORD PTR [edx+8], ecx
  000a8	e9 94 00 00 00	 jmp	 $LN58@Extract
$LN44@Extract:

; 468  :         while (!_Pnode->_Right->_Isnil) {

  000ad	8b 47 08	 mov	 eax, DWORD PTR [edi+8]

; 564  :                 _Myhead->_Right = _Fixnode->_Isnil ? _Fixnodeparent // largest is parent of erased node

  000b0	8b cf		 mov	 ecx, edi

; 468  :         while (!_Pnode->_Right->_Isnil) {

  000b2	80 78 0d 00	 cmp	 BYTE PTR [eax+13], 0
  000b6	75 13		 jne	 SHORT $LN54@Extract
  000b8	0f 1f 84 00 00
	00 00 00	 npad	 8
$LL53@Extract:

; 469  :             _Pnode = _Pnode->_Right;

  000c0	8b c8		 mov	 ecx, eax
  000c2	8b 41 08	 mov	 eax, DWORD PTR [ecx+8]
  000c5	80 78 0d 00	 cmp	 BYTE PTR [eax+13], 0
  000c9	74 f5		 je	 SHORT $LL53@Extract
$LN54@Extract:

; 564  :                 _Myhead->_Right = _Fixnode->_Isnil ? _Fixnodeparent // largest is parent of erased node

  000cb	89 4a 08	 mov	 DWORD PTR [edx+8], ecx
$LN17@Extract:

; 565  :                                                    : _Max(_Fixnode); // largest in relinked subtree
; 566  :             }
; 567  :         } else { // erased has two subtrees, _Pnode is successor to erased

  000ce	8b 45 f8	 mov	 eax, DWORD PTR __Erasednode$1$[ebp]
  000d1	eb 6e		 jmp	 SHORT $LN58@Extract
$LN9@Extract:

; 568  :             _Erasednode->_Left->_Parent = _Pnode; // link left up

  000d3	89 50 04	 mov	 DWORD PTR [eax+4], edx

; 569  :             _Pnode->_Left               = _Erasednode->_Left; // link successor down

  000d6	8b 01		 mov	 eax, DWORD PTR [ecx]
  000d8	89 02		 mov	 DWORD PTR [edx], eax

; 570  : 
; 571  :             if (_Pnode == _Erasednode->_Right) {

  000da	8d 42 04	 lea	 eax, DWORD PTR [edx+4]
  000dd	89 45 f4	 mov	 DWORD PTR $T1[ebp], eax
  000e0	3b 51 08	 cmp	 edx, DWORD PTR [ecx+8]
  000e3	75 04		 jne	 SHORT $LN18@Extract

; 572  :                 _Fixnodeparent = _Pnode; // successor is next to erased

  000e5	8b f2		 mov	 esi, edx

; 573  :             } else { // successor further down, link in place of erased

  000e7	eb 1f		 jmp	 SHORT $LN19@Extract
$LN18@Extract:

; 574  :                 _Fixnodeparent = _Pnode->_Parent; // parent is successor's
; 575  :                 if (!_Fixnode->_Isnil) {

  000e9	80 7f 0d 00	 cmp	 BYTE PTR [edi+13], 0
  000ed	8b 30		 mov	 esi, DWORD PTR [eax]
  000ef	75 03		 jne	 SHORT $LN20@Extract

; 576  :                     _Fixnode->_Parent = _Fixnodeparent; // link fix up

  000f1	89 77 04	 mov	 DWORD PTR [edi+4], esi
$LN20@Extract:

; 577  :                 }
; 578  : 
; 579  :                 _Fixnodeparent->_Left        = _Fixnode; // link fix down

  000f4	89 3e		 mov	 DWORD PTR [esi], edi

; 580  :                 _Pnode->_Right               = _Erasednode->_Right; // link next down

  000f6	8b 41 08	 mov	 eax, DWORD PTR [ecx+8]
  000f9	89 42 08	 mov	 DWORD PTR [edx+8], eax

; 581  :                 _Erasednode->_Right->_Parent = _Pnode; // right up

  000fc	8b 41 08	 mov	 eax, DWORD PTR [ecx+8]
  000ff	89 50 04	 mov	 DWORD PTR [eax+4], edx
  00102	8d 42 04	 lea	 eax, DWORD PTR [edx+4]
  00105	89 45 f4	 mov	 DWORD PTR $T1[ebp], eax
$LN19@Extract:

; 582  :             }
; 583  : 
; 584  :             if (_Myhead->_Parent == _Erasednode) {

  00108	8b 03		 mov	 eax, DWORD PTR [ebx]
  0010a	39 48 04	 cmp	 DWORD PTR [eax+4], ecx
  0010d	75 05		 jne	 SHORT $LN21@Extract

; 585  :                 _Myhead->_Parent = _Pnode; // link down from root

  0010f	89 50 04	 mov	 DWORD PTR [eax+4], edx
  00112	eb 0e		 jmp	 SHORT $LN141@Extract
$LN21@Extract:

; 586  :             } else if (_Erasednode->_Parent->_Left == _Erasednode) {

  00114	8b 41 04	 mov	 eax, DWORD PTR [ecx+4]
  00117	39 08		 cmp	 DWORD PTR [eax], ecx
  00119	75 04		 jne	 SHORT $LN23@Extract

; 587  :                 _Erasednode->_Parent->_Left = _Pnode; // link down to left

  0011b	89 10		 mov	 DWORD PTR [eax], edx

; 588  :             } else {

  0011d	eb 03		 jmp	 SHORT $LN141@Extract
$LN23@Extract:

; 589  :                 _Erasednode->_Parent->_Right = _Pnode; // link down to right

  0011f	89 50 08	 mov	 DWORD PTR [eax+8], edx
$LN141@Extract:

; 590  :             }
; 591  : 
; 592  :             _Pnode->_Parent = _Erasednode->_Parent; // link successor up

  00122	b8 04 00 00 00	 mov	 eax, 4
  00127	8b 04 08	 mov	 eax, DWORD PTR [eax+ecx]
  0012a	8b 4d f4	 mov	 ecx, DWORD PTR $T1[ebp]
  0012d	89 01		 mov	 DWORD PTR [ecx], eax
; File C:\Program Files\Microsoft Visual Studio\2022\Professional\VC\Tools\MSVC\14.44.35207\include\utility

; 140  :     _Left    = _STD move(_Right);

  0012f	8b 45 f8	 mov	 eax, DWORD PTR __Erasednode$1$[ebp]
  00132	8a 4a 0c	 mov	 cl, BYTE PTR [edx+12]
  00135	8a 40 0c	 mov	 al, BYTE PTR [eax+12]
  00138	88 42 0c	 mov	 BYTE PTR [edx+12], al

; 141  :     _Right   = _STD move(_Tmp);

  0013b	8b 45 f8	 mov	 eax, DWORD PTR __Erasednode$1$[ebp]
  0013e	88 48 0c	 mov	 BYTE PTR [eax+12], cl
$LN58@Extract:
; File C:\Program Files\Microsoft Visual Studio\2022\Professional\VC\Tools\MSVC\14.44.35207\include\xtree

; 596  :         if (_Erasednode->_Color == _Black) { // erasing black link, must recolor/rebalance tree

  00141	80 78 0c 01	 cmp	 BYTE PTR [eax+12], 1
  00145	0f 85 ba 01 00
	00		 jne	 $LN25@Extract

; 597  :             for (; _Fixnode != _Myhead->_Parent && _Fixnode->_Color == _Black; _Fixnodeparent = _Fixnode->_Parent) {

  0014b	8b 03		 mov	 eax, DWORD PTR [ebx]
  0014d	3b 78 04	 cmp	 edi, DWORD PTR [eax+4]
  00150	0f 84 a8 01 00
	00		 je	 $LN3@Extract
  00156	80 7f 0c 01	 cmp	 BYTE PTR [edi+12], 1
  0015a	89 75 f4	 mov	 DWORD PTR tv1093[ebp], esi
  0015d	0f 85 9b 01 00
	00		 jne	 $LN3@Extract
$LL4@Extract:

; 598  :                 if (_Fixnode == _Fixnodeparent->_Left) { // fixup left subtree

  00163	8b 0e		 mov	 ecx, DWORD PTR [esi]
  00165	3b f9		 cmp	 edi, ecx
  00167	0f 85 be 00 00
	00		 jne	 $LN26@Extract

; 599  :                     _Pnode = _Fixnodeparent->_Right;

  0016d	8b 4e 08	 mov	 ecx, DWORD PTR [esi+8]

; 600  :                     if (_Pnode->_Color == _Red) { // rotate red up from right subtree

  00170	80 79 0c 00	 cmp	 BYTE PTR [ecx+12], 0
  00174	75 54		 jne	 SHORT $LN95@Extract

; 601  :                         _Pnode->_Color         = _Black;

  00176	c6 41 0c 01	 mov	 BYTE PTR [ecx+12], 1

; 484  :         _Nodeptr _Pnode    = _Wherenode->_Right;

  0017a	8b 4e 08	 mov	 ecx, DWORD PTR [esi+8]

; 602  :                         _Fixnodeparent->_Color = _Red;

  0017d	c6 46 0c 00	 mov	 BYTE PTR [esi+12], 0

; 485  :         _Wherenode->_Right = _Pnode->_Left;

  00181	8b 01		 mov	 eax, DWORD PTR [ecx]
  00183	89 46 08	 mov	 DWORD PTR [esi+8], eax

; 486  : 
; 487  :         if (!_Pnode->_Left->_Isnil) {

  00186	8b 01		 mov	 eax, DWORD PTR [ecx]
  00188	80 78 0d 00	 cmp	 BYTE PTR [eax+13], 0
  0018c	75 03		 jne	 SHORT $LN61@Extract

; 488  :             _Pnode->_Left->_Parent = _Wherenode;

  0018e	89 70 04	 mov	 DWORD PTR [eax+4], esi
$LN61@Extract:

; 489  :         }
; 490  : 
; 491  :         _Pnode->_Parent = _Wherenode->_Parent;

  00191	8b 46 04	 mov	 eax, DWORD PTR [esi+4]
  00194	8d 56 04	 lea	 edx, DWORD PTR [esi+4]
  00197	89 41 04	 mov	 DWORD PTR [ecx+4], eax

; 492  : 
; 493  :         if (_Wherenode == _Myhead->_Parent) {

  0019a	8b 03		 mov	 eax, DWORD PTR [ebx]
  0019c	3b 70 04	 cmp	 esi, DWORD PTR [eax+4]
  0019f	75 0c		 jne	 SHORT $LN62@Extract

; 494  :             _Myhead->_Parent = _Pnode;

  001a1	89 48 04	 mov	 DWORD PTR [eax+4], ecx

; 499  :         }
; 500  : 
; 501  :         _Pnode->_Left       = _Wherenode;

  001a4	89 31		 mov	 DWORD PTR [ecx], esi

; 502  :         _Wherenode->_Parent = _Pnode;

  001a6	89 0a		 mov	 DWORD PTR [edx], ecx

; 603  :                         _Lrotate(_Fixnodeparent);
; 604  :                         _Pnode = _Fixnodeparent->_Right;

  001a8	8b 4e 08	 mov	 ecx, DWORD PTR [esi+8]
  001ab	eb 20		 jmp	 SHORT $LN87@Extract
$LN62@Extract:

; 495  :         } else if (_Wherenode == _Wherenode->_Parent->_Left) {

  001ad	8b 02		 mov	 eax, DWORD PTR [edx]
  001af	3b 30		 cmp	 esi, DWORD PTR [eax]
  001b1	75 0b		 jne	 SHORT $LN64@Extract

; 496  :             _Wherenode->_Parent->_Left = _Pnode;

  001b3	89 08		 mov	 DWORD PTR [eax], ecx

; 499  :         }
; 500  : 
; 501  :         _Pnode->_Left       = _Wherenode;

  001b5	89 31		 mov	 DWORD PTR [ecx], esi

; 502  :         _Wherenode->_Parent = _Pnode;

  001b7	89 0a		 mov	 DWORD PTR [edx], ecx

; 603  :                         _Lrotate(_Fixnodeparent);
; 604  :                         _Pnode = _Fixnodeparent->_Right;

  001b9	8b 4e 08	 mov	 ecx, DWORD PTR [esi+8]
  001bc	eb 0f		 jmp	 SHORT $LN87@Extract
$LN64@Extract:

; 498  :             _Wherenode->_Parent->_Right = _Pnode;

  001be	89 48 08	 mov	 DWORD PTR [eax+8], ecx

; 499  :         }
; 500  : 
; 501  :         _Pnode->_Left       = _Wherenode;

  001c1	89 31		 mov	 DWORD PTR [ecx], esi

; 502  :         _Wherenode->_Parent = _Pnode;

  001c3	89 0a		 mov	 DWORD PTR [edx], ecx

; 603  :                         _Lrotate(_Fixnodeparent);
; 604  :                         _Pnode = _Fixnodeparent->_Right;

  001c5	8b 4e 08	 mov	 ecx, DWORD PTR [esi+8]
  001c8	eb 03		 jmp	 SHORT $LN87@Extract
$LN95@Extract:
  001ca	8d 56 04	 lea	 edx, DWORD PTR [esi+4]
$LN87@Extract:

; 605  :                     }
; 606  : 
; 607  :                     if (_Pnode->_Isnil) {

  001cd	80 79 0d 00	 cmp	 BYTE PTR [ecx+13], 0
  001d1	0f 85 d0 00 00
	00		 jne	 $LN2@Extract

; 608  :                         _Fixnode = _Fixnodeparent; // shouldn't happen
; 609  :                     } else if (_Pnode->_Left->_Color == _Black
; 610  :                                && _Pnode->_Right->_Color == _Black) { // redden right subtree with black children

  001d7	8b 01		 mov	 eax, DWORD PTR [ecx]
  001d9	80 78 0c 01	 cmp	 BYTE PTR [eax+12], 1
  001dd	75 0d		 jne	 SHORT $LN97@Extract
  001df	8b 41 08	 mov	 eax, DWORD PTR [ecx+8]
  001e2	80 78 0c 01	 cmp	 BYTE PTR [eax+12], 1
  001e6	0f 84 b4 00 00
	00		 je	 $LN142@Extract
$LN97@Extract:

; 611  :                         _Pnode->_Color = _Red;
; 612  :                         _Fixnode       = _Fixnodeparent;
; 613  :                     } else { // must rearrange right subtree
; 614  :                         if (_Pnode->_Right->_Color == _Black) { // rotate red up from left sub-subtree

  001ec	8b 41 08	 mov	 eax, DWORD PTR [ecx+8]
  001ef	8b 5d fc	 mov	 ebx, DWORD PTR _this$1$[ebp]
  001f2	80 78 0c 01	 cmp	 BYTE PTR [eax+12], 1
  001f6	75 15		 jne	 SHORT $LN33@Extract

; 615  :                             _Pnode->_Left->_Color = _Black;

  001f8	8b 01		 mov	 eax, DWORD PTR [ecx]

; 616  :                             _Pnode->_Color        = _Red;
; 617  :                             _Rrotate(_Pnode);

  001fa	51		 push	 ecx
  001fb	c6 40 0c 01	 mov	 BYTE PTR [eax+12], 1
  001ff	c6 41 0c 00	 mov	 BYTE PTR [ecx+12], 0
  00203	8b cb		 mov	 ecx, ebx
  00205	e8 00 00 00 00	 call	 ?_Rrotate@?$_Tree_val@U?$_Tree_simple_types@U?$pair@$$CBKV?$queue@USFXHIT_INFO@@V?$deque@USFXHIT_INFO@@V?$allocator@USFXHIT_INFO@@@std@@@std@@@std@@@std@@@std@@@std@@QAEXPAU?$_Tree_node@U?$pair@$$CBKV?$queue@USFXHIT_INFO@@V?$deque@USFXHIT_INFO@@V?$allocator@USFXHIT_INFO@@@std@@@std@@@std@@@std@@PAX@2@@Z ; std::_Tree_val<std::_Tree_simple_types<std::pair<unsigned long const ,std::queue<SFXHIT_INFO,std::deque<SFXHIT_INFO,std::allocator<SFXHIT_INFO> > > > > >::_Rrotate

; 618  :                             _Pnode = _Fixnodeparent->_Right;

  0020a	8b 4e 08	 mov	 ecx, DWORD PTR [esi+8]
$LN33@Extract:

; 619  :                         }
; 620  : 
; 621  :                         _Pnode->_Color         = _Fixnodeparent->_Color;

  0020d	8a 46 0c	 mov	 al, BYTE PTR [esi+12]
  00210	88 41 0c	 mov	 BYTE PTR [ecx+12], al

; 622  :                         _Fixnodeparent->_Color = _Black;

  00213	c6 46 0c 01	 mov	 BYTE PTR [esi+12], 1

; 623  :                         _Pnode->_Right->_Color = _Black;

  00217	8b 41 08	 mov	 eax, DWORD PTR [ecx+8]

; 624  :                         _Lrotate(_Fixnodeparent);

  0021a	8b cb		 mov	 ecx, ebx
  0021c	56		 push	 esi
  0021d	c6 40 0c 01	 mov	 BYTE PTR [eax+12], 1
  00221	e8 00 00 00 00	 call	 ?_Lrotate@?$_Tree_val@U?$_Tree_simple_types@U?$pair@$$CBKV?$queue@USFXHIT_INFO@@V?$deque@USFXHIT_INFO@@V?$allocator@USFXHIT_INFO@@@std@@@std@@@std@@@std@@@std@@@std@@QAEXPAU?$_Tree_node@U?$pair@$$CBKV?$queue@USFXHIT_INFO@@V?$deque@USFXHIT_INFO@@V?$allocator@USFXHIT_INFO@@@std@@@std@@@std@@@std@@PAX@2@@Z ; std::_Tree_val<std::_Tree_simple_types<std::pair<unsigned long const ,std::queue<SFXHIT_INFO,std::deque<SFXHIT_INFO,std::allocator<SFXHIT_INFO> > > > > >::_Lrotate

; 625  :                         break; // tree now recolored/rebalanced

  00226	e9 d3 00 00 00	 jmp	 $LN3@Extract
$LN26@Extract:

; 626  :                     }
; 627  :                 } else { // fixup right subtree
; 628  :                     _Pnode = _Fixnodeparent->_Left;
; 629  :                     if (_Pnode->_Color == _Red) { // rotate red up from left subtree

  0022b	80 79 0c 00	 cmp	 BYTE PTR [ecx+12], 0
  0022f	75 55		 jne	 SHORT $LN96@Extract

; 630  :                         _Pnode->_Color         = _Black;

  00231	c6 41 0c 01	 mov	 BYTE PTR [ecx+12], 1

; 506  :         _Nodeptr _Pnode   = _Wherenode->_Left;

  00235	8b 0e		 mov	 ecx, DWORD PTR [esi]

; 631  :                         _Fixnodeparent->_Color = _Red;

  00237	c6 46 0c 00	 mov	 BYTE PTR [esi+12], 0

; 507  :         _Wherenode->_Left = _Pnode->_Right;

  0023b	8b 41 08	 mov	 eax, DWORD PTR [ecx+8]
  0023e	89 06		 mov	 DWORD PTR [esi], eax

; 508  : 
; 509  :         if (!_Pnode->_Right->_Isnil) {

  00240	8b 41 08	 mov	 eax, DWORD PTR [ecx+8]
  00243	80 78 0d 00	 cmp	 BYTE PTR [eax+13], 0
  00247	75 03		 jne	 SHORT $LN69@Extract

; 510  :             _Pnode->_Right->_Parent = _Wherenode;

  00249	89 70 04	 mov	 DWORD PTR [eax+4], esi
$LN69@Extract:

; 511  :         }
; 512  : 
; 513  :         _Pnode->_Parent = _Wherenode->_Parent;

  0024c	8b 46 04	 mov	 eax, DWORD PTR [esi+4]
  0024f	8d 56 04	 lea	 edx, DWORD PTR [esi+4]
  00252	89 41 04	 mov	 DWORD PTR [ecx+4], eax

; 514  : 
; 515  :         if (_Wherenode == _Myhead->_Parent) {

  00255	8b 03		 mov	 eax, DWORD PTR [ebx]
  00257	3b 70 04	 cmp	 esi, DWORD PTR [eax+4]
  0025a	75 0c		 jne	 SHORT $LN70@Extract

; 516  :             _Myhead->_Parent = _Pnode;

  0025c	89 48 04	 mov	 DWORD PTR [eax+4], ecx

; 521  :         }
; 522  : 
; 523  :         _Pnode->_Right      = _Wherenode;

  0025f	89 71 08	 mov	 DWORD PTR [ecx+8], esi

; 524  :         _Wherenode->_Parent = _Pnode;

  00262	89 0a		 mov	 DWORD PTR [edx], ecx

; 632  :                         _Rrotate(_Fixnodeparent);
; 633  :                         _Pnode = _Fixnodeparent->_Left;

  00264	8b 0e		 mov	 ecx, DWORD PTR [esi]
  00266	eb 21		 jmp	 SHORT $LN86@Extract
$LN70@Extract:

; 517  :         } else if (_Wherenode == _Wherenode->_Parent->_Right) {

  00268	8b 02		 mov	 eax, DWORD PTR [edx]
  0026a	3b 70 08	 cmp	 esi, DWORD PTR [eax+8]
  0026d	75 0c		 jne	 SHORT $LN72@Extract

; 518  :             _Wherenode->_Parent->_Right = _Pnode;

  0026f	89 48 08	 mov	 DWORD PTR [eax+8], ecx

; 521  :         }
; 522  : 
; 523  :         _Pnode->_Right      = _Wherenode;

  00272	89 71 08	 mov	 DWORD PTR [ecx+8], esi

; 524  :         _Wherenode->_Parent = _Pnode;

  00275	89 0a		 mov	 DWORD PTR [edx], ecx

; 632  :                         _Rrotate(_Fixnodeparent);
; 633  :                         _Pnode = _Fixnodeparent->_Left;

  00277	8b 0e		 mov	 ecx, DWORD PTR [esi]
  00279	eb 0e		 jmp	 SHORT $LN86@Extract
$LN72@Extract:

; 520  :             _Wherenode->_Parent->_Left = _Pnode;

  0027b	89 08		 mov	 DWORD PTR [eax], ecx

; 521  :         }
; 522  : 
; 523  :         _Pnode->_Right      = _Wherenode;

  0027d	89 71 08	 mov	 DWORD PTR [ecx+8], esi

; 524  :         _Wherenode->_Parent = _Pnode;

  00280	89 0a		 mov	 DWORD PTR [edx], ecx

; 632  :                         _Rrotate(_Fixnodeparent);
; 633  :                         _Pnode = _Fixnodeparent->_Left;

  00282	8b 0e		 mov	 ecx, DWORD PTR [esi]
  00284	eb 03		 jmp	 SHORT $LN86@Extract
$LN96@Extract:
  00286	8d 56 04	 lea	 edx, DWORD PTR [esi+4]
$LN86@Extract:

; 634  :                     }
; 635  : 
; 636  :                     if (_Pnode->_Isnil) {

  00289	80 79 0d 00	 cmp	 BYTE PTR [ecx+13], 0
  0028d	75 18		 jne	 SHORT $LN2@Extract

; 637  :                         _Fixnode = _Fixnodeparent; // shouldn't happen
; 638  :                     } else if (_Pnode->_Right->_Color == _Black
; 639  :                                && _Pnode->_Left->_Color == _Black) { // redden left subtree with black children

  0028f	8b 59 08	 mov	 ebx, DWORD PTR [ecx+8]
  00292	80 7b 0c 01	 cmp	 BYTE PTR [ebx+12], 1
  00296	75 2c		 jne	 SHORT $LN98@Extract
  00298	8b 01		 mov	 eax, DWORD PTR [ecx]
  0029a	80 78 0c 01	 cmp	 BYTE PTR [eax+12], 1
  0029e	75 24		 jne	 SHORT $LN98@Extract
$LN142@Extract:

; 597  :             for (; _Fixnode != _Myhead->_Parent && _Fixnode->_Color == _Black; _Fixnodeparent = _Fixnode->_Parent) {

  002a0	8b 5d fc	 mov	 ebx, DWORD PTR _this$1$[ebp]
  002a3	c6 41 0c 00	 mov	 BYTE PTR [ecx+12], 0
$LN2@Extract:
  002a7	8b 03		 mov	 eax, DWORD PTR [ebx]
  002a9	8b 4d f4	 mov	 ecx, DWORD PTR tv1093[ebp]
  002ac	8b f9		 mov	 edi, ecx
  002ae	8b 32		 mov	 esi, DWORD PTR [edx]
  002b0	3b 48 04	 cmp	 ecx, DWORD PTR [eax+4]
  002b3	74 49		 je	 SHORT $LN3@Extract
  002b5	80 7f 0c 01	 cmp	 BYTE PTR [edi+12], 1
  002b9	89 75 f4	 mov	 DWORD PTR tv1093[ebp], esi
  002bc	0f 84 a1 fe ff
	ff		 je	 $LL4@Extract
  002c2	eb 3a		 jmp	 SHORT $LN3@Extract
$LN98@Extract:

; 640  :                         _Pnode->_Color = _Red;
; 641  :                         _Fixnode       = _Fixnodeparent;
; 642  :                     } else { // must rearrange left subtree
; 643  :                         if (_Pnode->_Left->_Color == _Black) { // rotate red up from right sub-subtree

  002c4	8b 01		 mov	 eax, DWORD PTR [ecx]
  002c6	80 78 0c 01	 cmp	 BYTE PTR [eax+12], 1
  002ca	75 17		 jne	 SHORT $LN101@Extract

; 644  :                             _Pnode->_Right->_Color = _Black;

  002cc	c6 43 0c 01	 mov	 BYTE PTR [ebx+12], 1

; 645  :                             _Pnode->_Color         = _Red;
; 646  :                             _Lrotate(_Pnode);

  002d0	8b 5d fc	 mov	 ebx, DWORD PTR _this$1$[ebp]
  002d3	c6 41 0c 00	 mov	 BYTE PTR [ecx+12], 0
  002d7	51		 push	 ecx
  002d8	8b cb		 mov	 ecx, ebx
  002da	e8 00 00 00 00	 call	 ?_Lrotate@?$_Tree_val@U?$_Tree_simple_types@U?$pair@$$CBKV?$queue@USFXHIT_INFO@@V?$deque@USFXHIT_INFO@@V?$allocator@USFXHIT_INFO@@@std@@@std@@@std@@@std@@@std@@@std@@QAEXPAU?$_Tree_node@U?$pair@$$CBKV?$queue@USFXHIT_INFO@@V?$deque@USFXHIT_INFO@@V?$allocator@USFXHIT_INFO@@@std@@@std@@@std@@@std@@PAX@2@@Z ; std::_Tree_val<std::_Tree_simple_types<std::pair<unsigned long const ,std::queue<SFXHIT_INFO,std::deque<SFXHIT_INFO,std::allocator<SFXHIT_INFO> > > > > >::_Lrotate

; 647  :                             _Pnode = _Fixnodeparent->_Left;

  002df	8b 0e		 mov	 ecx, DWORD PTR [esi]
  002e1	eb 03		 jmp	 SHORT $LN39@Extract
$LN101@Extract:

; 640  :                         _Pnode->_Color = _Red;
; 641  :                         _Fixnode       = _Fixnodeparent;
; 642  :                     } else { // must rearrange left subtree
; 643  :                         if (_Pnode->_Left->_Color == _Black) { // rotate red up from right sub-subtree

  002e3	8b 5d fc	 mov	 ebx, DWORD PTR _this$1$[ebp]
$LN39@Extract:

; 648  :                         }
; 649  : 
; 650  :                         _Pnode->_Color         = _Fixnodeparent->_Color;

  002e6	8a 46 0c	 mov	 al, BYTE PTR [esi+12]
  002e9	88 41 0c	 mov	 BYTE PTR [ecx+12], al

; 651  :                         _Fixnodeparent->_Color = _Black;

  002ec	c6 46 0c 01	 mov	 BYTE PTR [esi+12], 1

; 652  :                         _Pnode->_Left->_Color  = _Black;

  002f0	8b 01		 mov	 eax, DWORD PTR [ecx]

; 653  :                         _Rrotate(_Fixnodeparent);

  002f2	8b cb		 mov	 ecx, ebx
  002f4	56		 push	 esi
  002f5	c6 40 0c 01	 mov	 BYTE PTR [eax+12], 1
  002f9	e8 00 00 00 00	 call	 ?_Rrotate@?$_Tree_val@U?$_Tree_simple_types@U?$pair@$$CBKV?$queue@USFXHIT_INFO@@V?$deque@USFXHIT_INFO@@V?$allocator@USFXHIT_INFO@@@std@@@std@@@std@@@std@@@std@@@std@@QAEXPAU?$_Tree_node@U?$pair@$$CBKV?$queue@USFXHIT_INFO@@V?$deque@USFXHIT_INFO@@V?$allocator@USFXHIT_INFO@@@std@@@std@@@std@@@std@@PAX@2@@Z ; std::_Tree_val<std::_Tree_simple_types<std::pair<unsigned long const ,std::queue<SFXHIT_INFO,std::deque<SFXHIT_INFO,std::allocator<SFXHIT_INFO> > > > > >::_Rrotate
$LN3@Extract:

; 654  :                         break; // tree now recolored/rebalanced
; 655  :                     }
; 656  :                 }
; 657  :             }
; 658  : 
; 659  :             _Fixnode->_Color = _Black; // stopping node is black

  002fe	8b 45 f8	 mov	 eax, DWORD PTR __Erasednode$1$[ebp]
  00301	c6 47 0c 01	 mov	 BYTE PTR [edi+12], 1
$LN25@Extract:

; 660  :         }
; 661  : 
; 662  :         if (0 < _Mysize) {

  00305	8b 4b 04	 mov	 ecx, DWORD PTR [ebx+4]
  00308	85 c9		 test	 ecx, ecx
  0030a	74 04		 je	 SHORT $LN40@Extract

; 663  :             --_Mysize;

  0030c	49		 dec	 ecx
  0030d	89 4b 04	 mov	 DWORD PTR [ebx+4], ecx
$LN40@Extract:

; 664  :         }
; 665  : 
; 666  :         return _Erasednode;
; 667  :     }

  00310	5f		 pop	 edi
  00311	5e		 pop	 esi
  00312	5b		 pop	 ebx
  00313	8b e5		 mov	 esp, ebp
  00315	5d		 pop	 ebp
  00316	c2 04 00	 ret	 4
?_Extract@?$_Tree_val@U?$_Tree_simple_types@U?$pair@$$CBKV?$queue@USFXHIT_INFO@@V?$deque@USFXHIT_INFO@@V?$allocator@USFXHIT_INFO@@@std@@@std@@@std@@@std@@@std@@@std@@QAEPAU?$_Tree_node@U?$pair@$$CBKV?$queue@USFXHIT_INFO@@V?$deque@USFXHIT_INFO@@V?$allocator@USFXHIT_INFO@@@std@@@std@@@std@@@std@@PAX@2@V?$_Tree_unchecked_const_iterator@V?$_Tree_val@U?$_Tree_simple_types@U?$pair@$$CBKV?$queue@USFXHIT_INFO@@V?$deque@USFXHIT_INFO@@V?$allocator@USFXHIT_INFO@@@std@@@std@@@std@@@std@@@std@@@std@@U_Iterator_base0@2@@2@@Z ENDP ; std::_Tree_val<std::_Tree_simple_types<std::pair<unsigned long const ,std::queue<SFXHIT_INFO,std::deque<SFXHIT_INFO,std::allocator<SFXHIT_INFO> > > > > >::_Extract
_TEXT	ENDS
; Function compile flags: /Ogtp
; File C:\Program Files\Microsoft Visual Studio\2022\Professional\VC\Tools\MSVC\14.44.35207\include\xtree
;	COMDAT ?_Rrotate@?$_Tree_val@U?$_Tree_simple_types@U?$pair@$$CBKV?$queue@USFXHIT_INFO@@V?$deque@USFXHIT_INFO@@V?$allocator@USFXHIT_INFO@@@std@@@std@@@std@@@std@@@std@@@std@@QAEXPAU?$_Tree_node@U?$pair@$$CBKV?$queue@USFXHIT_INFO@@V?$deque@USFXHIT_INFO@@V?$allocator@USFXHIT_INFO@@@std@@@std@@@std@@@std@@PAX@2@@Z
_TEXT	SEGMENT
__Wherenode$ = 8					; size = 4
?_Rrotate@?$_Tree_val@U?$_Tree_simple_types@U?$pair@$$CBKV?$queue@USFXHIT_INFO@@V?$deque@USFXHIT_INFO@@V?$allocator@USFXHIT_INFO@@@std@@@std@@@std@@@std@@@std@@@std@@QAEXPAU?$_Tree_node@U?$pair@$$CBKV?$queue@USFXHIT_INFO@@V?$deque@USFXHIT_INFO@@V?$allocator@USFXHIT_INFO@@@std@@@std@@@std@@@std@@PAX@2@@Z PROC ; std::_Tree_val<std::_Tree_simple_types<std::pair<unsigned long const ,std::queue<SFXHIT_INFO,std::deque<SFXHIT_INFO,std::allocator<SFXHIT_INFO> > > > > >::_Rrotate, COMDAT
; _this$ = ecx

; 505  :     void _Rrotate(_Nodeptr _Wherenode) noexcept { // promote left node to root of subtree

  00000	55		 push	 ebp
  00001	8b ec		 mov	 ebp, esp

; 506  :         _Nodeptr _Pnode   = _Wherenode->_Left;

  00003	8b 55 08	 mov	 edx, DWORD PTR __Wherenode$[ebp]
  00006	56		 push	 esi
  00007	8b 32		 mov	 esi, DWORD PTR [edx]

; 507  :         _Wherenode->_Left = _Pnode->_Right;

  00009	8b 46 08	 mov	 eax, DWORD PTR [esi+8]
  0000c	89 02		 mov	 DWORD PTR [edx], eax

; 508  : 
; 509  :         if (!_Pnode->_Right->_Isnil) {

  0000e	8b 46 08	 mov	 eax, DWORD PTR [esi+8]
  00011	80 78 0d 00	 cmp	 BYTE PTR [eax+13], 0
  00015	75 03		 jne	 SHORT $LN2@Rrotate

; 510  :             _Pnode->_Right->_Parent = _Wherenode;

  00017	89 50 04	 mov	 DWORD PTR [eax+4], edx
$LN2@Rrotate:

; 511  :         }
; 512  : 
; 513  :         _Pnode->_Parent = _Wherenode->_Parent;

  0001a	8b 42 04	 mov	 eax, DWORD PTR [edx+4]
  0001d	89 46 04	 mov	 DWORD PTR [esi+4], eax

; 514  : 
; 515  :         if (_Wherenode == _Myhead->_Parent) {

  00020	8b 01		 mov	 eax, DWORD PTR [ecx]
  00022	3b 50 04	 cmp	 edx, DWORD PTR [eax+4]
  00025	75 0e		 jne	 SHORT $LN3@Rrotate

; 516  :             _Myhead->_Parent = _Pnode;

  00027	89 70 04	 mov	 DWORD PTR [eax+4], esi

; 521  :         }
; 522  : 
; 523  :         _Pnode->_Right      = _Wherenode;
; 524  :         _Wherenode->_Parent = _Pnode;
; 525  :     }

  0002a	89 56 08	 mov	 DWORD PTR [esi+8], edx
  0002d	89 72 04	 mov	 DWORD PTR [edx+4], esi
  00030	5e		 pop	 esi
  00031	5d		 pop	 ebp
  00032	c2 04 00	 ret	 4
$LN3@Rrotate:

; 517  :         } else if (_Wherenode == _Wherenode->_Parent->_Right) {

  00035	8b 42 04	 mov	 eax, DWORD PTR [edx+4]
  00038	3b 50 08	 cmp	 edx, DWORD PTR [eax+8]
  0003b	75 0e		 jne	 SHORT $LN5@Rrotate

; 518  :             _Wherenode->_Parent->_Right = _Pnode;

  0003d	89 70 08	 mov	 DWORD PTR [eax+8], esi

; 521  :         }
; 522  : 
; 523  :         _Pnode->_Right      = _Wherenode;
; 524  :         _Wherenode->_Parent = _Pnode;
; 525  :     }

  00040	89 56 08	 mov	 DWORD PTR [esi+8], edx
  00043	89 72 04	 mov	 DWORD PTR [edx+4], esi
  00046	5e		 pop	 esi
  00047	5d		 pop	 ebp
  00048	c2 04 00	 ret	 4
$LN5@Rrotate:

; 519  :         } else {
; 520  :             _Wherenode->_Parent->_Left = _Pnode;

  0004b	89 30		 mov	 DWORD PTR [eax], esi

; 521  :         }
; 522  : 
; 523  :         _Pnode->_Right      = _Wherenode;
; 524  :         _Wherenode->_Parent = _Pnode;
; 525  :     }

  0004d	89 56 08	 mov	 DWORD PTR [esi+8], edx
  00050	89 72 04	 mov	 DWORD PTR [edx+4], esi
  00053	5e		 pop	 esi
  00054	5d		 pop	 ebp
  00055	c2 04 00	 ret	 4
?_Rrotate@?$_Tree_val@U?$_Tree_simple_types@U?$pair@$$CBKV?$queue@USFXHIT_INFO@@V?$deque@USFXHIT_INFO@@V?$allocator@USFXHIT_INFO@@@std@@@std@@@std@@@std@@@std@@@std@@QAEXPAU?$_Tree_node@U?$pair@$$CBKV?$queue@USFXHIT_INFO@@V?$deque@USFXHIT_INFO@@V?$allocator@USFXHIT_INFO@@@std@@@std@@@std@@@std@@PAX@2@@Z ENDP ; std::_Tree_val<std::_Tree_simple_types<std::pair<unsigned long const ,std::queue<SFXHIT_INFO,std::deque<SFXHIT_INFO,std::allocator<SFXHIT_INFO> > > > > >::_Rrotate
_TEXT	ENDS
; Function compile flags: /Ogtp
; File C:\Program Files\Microsoft Visual Studio\2022\Professional\VC\Tools\MSVC\14.44.35207\include\xtree
;	COMDAT ?_Lrotate@?$_Tree_val@U?$_Tree_simple_types@U?$pair@$$CBKV?$queue@USFXHIT_INFO@@V?$deque@USFXHIT_INFO@@V?$allocator@USFXHIT_INFO@@@std@@@std@@@std@@@std@@@std@@@std@@QAEXPAU?$_Tree_node@U?$pair@$$CBKV?$queue@USFXHIT_INFO@@V?$deque@USFXHIT_INFO@@V?$allocator@USFXHIT_INFO@@@std@@@std@@@std@@@std@@PAX@2@@Z
_TEXT	SEGMENT
__Wherenode$ = 8					; size = 4
?_Lrotate@?$_Tree_val@U?$_Tree_simple_types@U?$pair@$$CBKV?$queue@USFXHIT_INFO@@V?$deque@USFXHIT_INFO@@V?$allocator@USFXHIT_INFO@@@std@@@std@@@std@@@std@@@std@@@std@@QAEXPAU?$_Tree_node@U?$pair@$$CBKV?$queue@USFXHIT_INFO@@V?$deque@USFXHIT_INFO@@V?$allocator@USFXHIT_INFO@@@std@@@std@@@std@@@std@@PAX@2@@Z PROC ; std::_Tree_val<std::_Tree_simple_types<std::pair<unsigned long const ,std::queue<SFXHIT_INFO,std::deque<SFXHIT_INFO,std::allocator<SFXHIT_INFO> > > > > >::_Lrotate, COMDAT
; _this$ = ecx

; 483  :     void _Lrotate(_Nodeptr _Wherenode) noexcept { // promote right node to root of subtree

  00000	55		 push	 ebp
  00001	8b ec		 mov	 ebp, esp

; 484  :         _Nodeptr _Pnode    = _Wherenode->_Right;

  00003	8b 55 08	 mov	 edx, DWORD PTR __Wherenode$[ebp]
  00006	56		 push	 esi
  00007	8b 72 08	 mov	 esi, DWORD PTR [edx+8]

; 485  :         _Wherenode->_Right = _Pnode->_Left;

  0000a	8b 06		 mov	 eax, DWORD PTR [esi]
  0000c	89 42 08	 mov	 DWORD PTR [edx+8], eax

; 486  : 
; 487  :         if (!_Pnode->_Left->_Isnil) {

  0000f	8b 06		 mov	 eax, DWORD PTR [esi]
  00011	80 78 0d 00	 cmp	 BYTE PTR [eax+13], 0
  00015	75 03		 jne	 SHORT $LN2@Lrotate

; 488  :             _Pnode->_Left->_Parent = _Wherenode;

  00017	89 50 04	 mov	 DWORD PTR [eax+4], edx
$LN2@Lrotate:

; 489  :         }
; 490  : 
; 491  :         _Pnode->_Parent = _Wherenode->_Parent;

  0001a	8b 42 04	 mov	 eax, DWORD PTR [edx+4]
  0001d	89 46 04	 mov	 DWORD PTR [esi+4], eax

; 492  : 
; 493  :         if (_Wherenode == _Myhead->_Parent) {

  00020	8b 01		 mov	 eax, DWORD PTR [ecx]
  00022	3b 50 04	 cmp	 edx, DWORD PTR [eax+4]
  00025	75 0d		 jne	 SHORT $LN3@Lrotate

; 494  :             _Myhead->_Parent = _Pnode;

  00027	89 70 04	 mov	 DWORD PTR [eax+4], esi

; 499  :         }
; 500  : 
; 501  :         _Pnode->_Left       = _Wherenode;
; 502  :         _Wherenode->_Parent = _Pnode;
; 503  :     }

  0002a	89 16		 mov	 DWORD PTR [esi], edx
  0002c	89 72 04	 mov	 DWORD PTR [edx+4], esi
  0002f	5e		 pop	 esi
  00030	5d		 pop	 ebp
  00031	c2 04 00	 ret	 4
$LN3@Lrotate:

; 495  :         } else if (_Wherenode == _Wherenode->_Parent->_Left) {

  00034	8b 42 04	 mov	 eax, DWORD PTR [edx+4]
  00037	3b 10		 cmp	 edx, DWORD PTR [eax]
  00039	75 0c		 jne	 SHORT $LN5@Lrotate

; 496  :             _Wherenode->_Parent->_Left = _Pnode;

  0003b	89 30		 mov	 DWORD PTR [eax], esi

; 499  :         }
; 500  : 
; 501  :         _Pnode->_Left       = _Wherenode;
; 502  :         _Wherenode->_Parent = _Pnode;
; 503  :     }

  0003d	89 16		 mov	 DWORD PTR [esi], edx
  0003f	89 72 04	 mov	 DWORD PTR [edx+4], esi
  00042	5e		 pop	 esi
  00043	5d		 pop	 ebp
  00044	c2 04 00	 ret	 4
$LN5@Lrotate:

; 497  :         } else {
; 498  :             _Wherenode->_Parent->_Right = _Pnode;

  00047	89 70 08	 mov	 DWORD PTR [eax+8], esi

; 499  :         }
; 500  : 
; 501  :         _Pnode->_Left       = _Wherenode;
; 502  :         _Wherenode->_Parent = _Pnode;
; 503  :     }

  0004a	89 16		 mov	 DWORD PTR [esi], edx
  0004c	89 72 04	 mov	 DWORD PTR [edx+4], esi
  0004f	5e		 pop	 esi
  00050	5d		 pop	 ebp
  00051	c2 04 00	 ret	 4
?_Lrotate@?$_Tree_val@U?$_Tree_simple_types@U?$pair@$$CBKV?$queue@USFXHIT_INFO@@V?$deque@USFXHIT_INFO@@V?$allocator@USFXHIT_INFO@@@std@@@std@@@std@@@std@@@std@@@std@@QAEXPAU?$_Tree_node@U?$pair@$$CBKV?$queue@USFXHIT_INFO@@V?$deque@USFXHIT_INFO@@V?$allocator@USFXHIT_INFO@@@std@@@std@@@std@@@std@@PAX@2@@Z ENDP ; std::_Tree_val<std::_Tree_simple_types<std::pair<unsigned long const ,std::queue<SFXHIT_INFO,std::deque<SFXHIT_INFO,std::allocator<SFXHIT_INFO> > > > > >::_Lrotate
_TEXT	ENDS
; Function compile flags: /Ogtp
; File C:\Program Files\Microsoft Visual Studio\2022\Professional\VC\Tools\MSVC\14.44.35207\include\xtree
; File C:\Program Files\Microsoft Visual Studio\2022\Professional\VC\Tools\MSVC\14.44.35207\include\type_traits
; File C:\Program Files\Microsoft Visual Studio\2022\Professional\VC\Tools\MSVC\14.44.35207\include\xtree
; File C:\Program Files\Microsoft Visual Studio\2022\Professional\VC\Tools\MSVC\14.44.35207\include\type_traits
; File C:\Program Files\Microsoft Visual Studio\2022\Professional\VC\Tools\MSVC\14.44.35207\include\xtree
; File C:\Program Files\Microsoft Visual Studio\2022\Professional\VC\Tools\MSVC\14.44.35207\include\type_traits
; File C:\Program Files\Microsoft Visual Studio\2022\Professional\VC\Tools\MSVC\14.44.35207\include\xtree
; File C:\Program Files\Microsoft Visual Studio\2022\Professional\VC\Tools\MSVC\14.44.35207\include\xutility
; File C:\Program Files\Microsoft Visual Studio\2022\Professional\VC\Tools\MSVC\14.44.35207\include\xtree
; File C:\Program Files\Microsoft Visual Studio\2022\Professional\VC\Tools\MSVC\14.44.35207\include\xutility
; File C:\Program Files\Microsoft Visual Studio\2022\Professional\VC\Tools\MSVC\14.44.35207\include\xtree
; File C:\Program Files\Microsoft Visual Studio\2022\Professional\VC\Tools\MSVC\14.44.35207\include\xutility
; File C:\Program Files\Microsoft Visual Studio\2022\Professional\VC\Tools\MSVC\14.44.35207\include\xtree
; File C:\Program Files\Microsoft Visual Studio\2022\Professional\VC\Tools\MSVC\14.44.35207\include\xutility
; File C:\Program Files\Microsoft Visual Studio\2022\Professional\VC\Tools\MSVC\14.44.35207\include\xtree
; File C:\Program Files\Microsoft Visual Studio\2022\Professional\VC\Tools\MSVC\14.44.35207\include\deque
; File C:\Program Files\Microsoft Visual Studio\2022\Professional\VC\Tools\MSVC\14.44.35207\include\utility
; File C:\Program Files\Microsoft Visual Studio\2022\Professional\VC\Tools\MSVC\14.44.35207\include\xmemory
; File C:\Program Files\Microsoft Visual Studio\2022\Professional\VC\Tools\MSVC\14.44.35207\include\utility
; File C:\Program Files\Microsoft Visual Studio\2022\Professional\VC\Tools\MSVC\14.44.35207\include\xmemory
; File C:\Program Files\Microsoft Visual Studio\2022\Professional\VC\Tools\MSVC\14.44.35207\include\xtree
; File C:\Program Files\Microsoft Visual Studio\2022\Professional\VC\Tools\MSVC\14.44.35207\include\xmemory
; File C:\Program Files\Microsoft Visual Studio\2022\Professional\VC\Tools\MSVC\14.44.35207\include\xtree
;	COMDAT ?erase@?$_Tree@V?$_Tmap_traits@KV?$queue@USFXHIT_INFO@@V?$deque@USFXHIT_INFO@@V?$allocator@USFXHIT_INFO@@@std@@@std@@@std@@U?$less@K@2@V?$allocator@U?$pair@$$CBKV?$queue@USFXHIT_INFO@@V?$deque@USFXHIT_INFO@@V?$allocator@USFXHIT_INFO@@@std@@@std@@@std@@@std@@@2@$0A@@std@@@std@@QAEIABK@Z
_TEXT	SEGMENT
__Off$1$ = -12						; size = 4
tv805 = -12						; size = 4
_this$1$ = -8						; size = 4
__Head$1$ = -4						; size = 4
__Keyval$ = 8						; size = 4
__First$ = 8						; size = 4
?erase@?$_Tree@V?$_Tmap_traits@KV?$queue@USFXHIT_INFO@@V?$deque@USFXHIT_INFO@@V?$allocator@USFXHIT_INFO@@@std@@@std@@@std@@U?$less@K@2@V?$allocator@U?$pair@$$CBKV?$queue@USFXHIT_INFO@@V?$deque@USFXHIT_INFO@@V?$allocator@USFXHIT_INFO@@@std@@@std@@@std@@@std@@@2@$0A@@std@@@std@@QAEIABK@Z PROC ; std::_Tree<std::_Tmap_traits<unsigned long,std::queue<SFXHIT_INFO,std::deque<SFXHIT_INFO,std::allocator<SFXHIT_INFO> > >,std::less<unsigned long>,std::allocator<std::pair<unsigned long const ,std::queue<SFXHIT_INFO,std::deque<SFXHIT_INFO,std::allocator<SFXHIT_INFO> > > > >,0> >::erase, COMDAT
; _this$ = ecx

; 1357 :     size_type erase(const key_type& _Keyval) noexcept(noexcept(_Eqrange(_Keyval))) /* strengthened */ {

  00000	55		 push	 ebp
  00001	8b ec		 mov	 ebp, esp
  00003	83 ec 0c	 sub	 esp, 12			; 0000000cH
  00006	8b c1		 mov	 eax, ecx
  00008	53		 push	 ebx
  00009	89 45 f8	 mov	 DWORD PTR _this$1$[ebp], eax
  0000c	56		 push	 esi

; 1709 :         _Nodeptr _Pnode   = _Scary->_Myhead->_Parent;

  0000d	8b 08		 mov	 ecx, DWORD PTR [eax]

; 1710 :         _Nodeptr _Lonode  = _Scary->_Myhead; // end() if search fails

  0000f	8b f1		 mov	 esi, ecx

; 1357 :     size_type erase(const key_type& _Keyval) noexcept(noexcept(_Eqrange(_Keyval))) /* strengthened */ {

  00011	57		 push	 edi

; 1713 :         while (!_Pnode->_Isnil) {

  00012	8b 7d 08	 mov	 edi, DWORD PTR __Keyval$[ebp]
  00015	8b d9		 mov	 ebx, ecx
  00017	89 4d fc	 mov	 DWORD PTR __Head$1$[ebp], ecx
  0001a	8b 51 04	 mov	 edx, DWORD PTR [ecx+4]
  0001d	8b c2		 mov	 eax, edx
  0001f	89 55 f4	 mov	 DWORD PTR tv805[ebp], edx
  00022	80 78 0d 00	 cmp	 BYTE PTR [eax+13], 0
  00026	75 2c		 jne	 SHORT $LN6@erase
; File C:\Program Files\Microsoft Visual Studio\2022\Professional\VC\Tools\MSVC\14.44.35207\include\type_traits

; 2380 :         return _Left < _Right;

  00028	8b 17		 mov	 edx, DWORD PTR [edi]
  0002a	66 0f 1f 44 00
	00		 npad	 6
$LL5@erase:
  00030	8b 48 10	 mov	 ecx, DWORD PTR [eax+16]
  00033	3b ca		 cmp	 ecx, edx
; File C:\Program Files\Microsoft Visual Studio\2022\Professional\VC\Tools\MSVC\14.44.35207\include\xtree

; 1715 :             if (_DEBUG_LT_PRED(_Comp, _Nodekey, _Keyval)) {

  00035	73 05		 jae	 SHORT $LN9@erase

; 1716 :                 _Pnode = _Pnode->_Right; // descend right subtree

  00037	8b 40 08	 mov	 eax, DWORD PTR [eax+8]

; 1717 :             } else { // _Pnode not less than _Keyval, remember it

  0003a	eb 0f		 jmp	 SHORT $LN10@erase
$LN9@erase:

; 1718 :                 if (_Hinode->_Isnil && _DEBUG_LT_PRED(_Comp, _Keyval, _Nodekey)) {

  0003c	80 7b 0d 00	 cmp	 BYTE PTR [ebx+13], 0
  00040	74 05		 je	 SHORT $LN11@erase
; File C:\Program Files\Microsoft Visual Studio\2022\Professional\VC\Tools\MSVC\14.44.35207\include\type_traits

; 2380 :         return _Left < _Right;

  00042	3b d1		 cmp	 edx, ecx
; File C:\Program Files\Microsoft Visual Studio\2022\Professional\VC\Tools\MSVC\14.44.35207\include\xtree

; 1718 :                 if (_Hinode->_Isnil && _DEBUG_LT_PRED(_Comp, _Keyval, _Nodekey)) {

  00044	0f 42 d8	 cmovb	 ebx, eax
$LN11@erase:

; 1719 :                     _Hinode = _Pnode; // _Pnode greater, remember it
; 1720 :                 }
; 1721 : 
; 1722 :                 _Lonode = _Pnode;

  00047	8b f0		 mov	 esi, eax

; 1723 :                 _Pnode  = _Pnode->_Left; // descend left subtree

  00049	8b 00		 mov	 eax, DWORD PTR [eax]
$LN10@erase:

; 1711 :         _Nodeptr _Hinode  = _Scary->_Myhead; // end() if search fails
; 1712 : 
; 1713 :         while (!_Pnode->_Isnil) {

  0004b	80 78 0d 00	 cmp	 BYTE PTR [eax+13], 0
  0004f	74 df		 je	 SHORT $LL5@erase
  00051	8b 55 f4	 mov	 edx, DWORD PTR tv805[ebp]
$LN6@erase:

; 1724 :             }
; 1725 :         }
; 1726 : 
; 1727 :         _Pnode = _Hinode->_Isnil ? _Scary->_Myhead->_Parent : _Hinode->_Left; // continue scan for upper bound

  00054	80 7b 0d 00	 cmp	 BYTE PTR [ebx+13], 0
  00058	8b c2		 mov	 eax, edx
  0005a	75 02		 jne	 SHORT $LN16@erase
  0005c	8b 03		 mov	 eax, DWORD PTR [ebx]
$LN16@erase:

; 1728 :         while (!_Pnode->_Isnil) {

  0005e	80 78 0d 00	 cmp	 BYTE PTR [eax+13], 0
  00062	75 16		 jne	 SHORT $LN8@erase
; File C:\Program Files\Microsoft Visual Studio\2022\Professional\VC\Tools\MSVC\14.44.35207\include\type_traits

; 2380 :         return _Left < _Right;

  00064	8b 0f		 mov	 ecx, DWORD PTR [edi]
$LL7@erase:
  00066	3b 48 10	 cmp	 ecx, DWORD PTR [eax+16]
; File C:\Program Files\Microsoft Visual Studio\2022\Professional\VC\Tools\MSVC\14.44.35207\include\xtree

; 1729 :             if (_DEBUG_LT_PRED(_Getcomp(), _Keyval, _Traits::_Kfn(_Pnode->_Myval))) {

  00069	73 06		 jae	 SHORT $LN12@erase

; 1730 :                 // _Pnode greater than _Keyval, remember it
; 1731 :                 _Hinode = _Pnode;

  0006b	8b d8		 mov	 ebx, eax

; 1732 :                 _Pnode  = _Pnode->_Left; // descend left subtree

  0006d	8b 00		 mov	 eax, DWORD PTR [eax]

; 1733 :             } else {

  0006f	eb 03		 jmp	 SHORT $LN13@erase
$LN12@erase:

; 1734 :                 _Pnode = _Pnode->_Right; // descend right subtree

  00071	8b 40 08	 mov	 eax, DWORD PTR [eax+8]
$LN13@erase:

; 1728 :         while (!_Pnode->_Isnil) {

  00074	80 78 0d 00	 cmp	 BYTE PTR [eax+13], 0
  00078	74 ec		 je	 SHORT $LL7@erase
$LN8@erase:
; File C:\Program Files\Microsoft Visual Studio\2022\Professional\VC\Tools\MSVC\14.44.35207\include\xutility

; 1667 :         _Iter_diff_t<_InIt> _Off = 0;

  0007a	33 ff		 xor	 edi, edi
  0007c	8b c6		 mov	 eax, esi
  0007e	89 7d f4	 mov	 DWORD PTR __Off$1$[ebp], edi
; File C:\Program Files\Microsoft Visual Studio\2022\Professional\VC\Tools\MSVC\14.44.35207\include\xtree

; 101  :         return !(*this == _Right);

  00081	3b f3		 cmp	 esi, ebx
; File C:\Program Files\Microsoft Visual Studio\2022\Professional\VC\Tools\MSVC\14.44.35207\include\xutility

; 1668 :         for (; _UFirst != _ULast; ++_UFirst) {

  00083	74 44		 je	 SHORT $LN41@erase
$LL42@erase:
; File C:\Program Files\Microsoft Visual Studio\2022\Professional\VC\Tools\MSVC\14.44.35207\include\xtree

; 50   :         if (_Ptr->_Right->_Isnil) { // climb looking for right subtree

  00085	8b 48 08	 mov	 ecx, DWORD PTR [eax+8]
; File C:\Program Files\Microsoft Visual Studio\2022\Professional\VC\Tools\MSVC\14.44.35207\include\xutility

; 1669 :             ++_Off;

  00088	47		 inc	 edi
; File C:\Program Files\Microsoft Visual Studio\2022\Professional\VC\Tools\MSVC\14.44.35207\include\xtree

; 50   :         if (_Ptr->_Right->_Isnil) { // climb looking for right subtree

  00089	80 79 0d 00	 cmp	 BYTE PTR [ecx+13], 0
  0008d	74 1d		 je	 SHORT $LN47@erase

; 51   :             _Nodeptr _Pnode;
; 52   :             while (!(_Pnode = _Ptr->_Parent)->_Isnil && _Ptr == _Pnode->_Right) {

  0008f	8b 48 04	 mov	 ecx, DWORD PTR [eax+4]
  00092	80 79 0d 00	 cmp	 BYTE PTR [ecx+13], 0
  00096	75 10		 jne	 SHORT $LN197@erase
$LL45@erase:
  00098	3b 41 08	 cmp	 eax, DWORD PTR [ecx+8]
  0009b	75 0b		 jne	 SHORT $LN197@erase

; 53   :                 _Ptr = _Pnode; // ==> parent while right subtree

  0009d	8b c1		 mov	 eax, ecx
  0009f	8b 49 04	 mov	 ecx, DWORD PTR [ecx+4]
  000a2	80 79 0d 00	 cmp	 BYTE PTR [ecx+13], 0
  000a6	74 f0		 je	 SHORT $LL45@erase
$LN197@erase:

; 54   :             }
; 55   : 
; 56   :             _Ptr = _Pnode; // ==> parent (head if end())

  000a8	8b c1		 mov	 eax, ecx

; 57   :         } else {

  000aa	eb 16		 jmp	 SHORT $LN53@erase
$LN47@erase:

; 58   :             _Ptr = _Mytree::_Min(_Ptr->_Right); // ==> smallest of right subtree

  000ac	8b c1		 mov	 eax, ecx

; 476  :         while (!_Pnode->_Left->_Isnil) {

  000ae	8b 10		 mov	 edx, DWORD PTR [eax]
  000b0	80 7a 0d 00	 cmp	 BYTE PTR [edx+13], 0
  000b4	75 0c		 jne	 SHORT $LN53@erase
$LL52@erase:
  000b6	8b 0a		 mov	 ecx, DWORD PTR [edx]

; 477  :             _Pnode = _Pnode->_Left;

  000b8	8b c2		 mov	 eax, edx
  000ba	8b d1		 mov	 edx, ecx
  000bc	80 79 0d 00	 cmp	 BYTE PTR [ecx+13], 0
  000c0	74 f4		 je	 SHORT $LL52@erase
$LN53@erase:

; 101  :         return !(*this == _Right);

  000c2	3b c3		 cmp	 eax, ebx
; File C:\Program Files\Microsoft Visual Studio\2022\Professional\VC\Tools\MSVC\14.44.35207\include\xutility

; 1668 :         for (; _UFirst != _ULast; ++_UFirst) {

  000c4	75 bf		 jne	 SHORT $LL42@erase
  000c6	89 7d f4	 mov	 DWORD PTR __Off$1$[ebp], edi
$LN41@erase:
; File C:\Program Files\Microsoft Visual Studio\2022\Professional\VC\Tools\MSVC\14.44.35207\include\xtree

; 96   :         return _Ptr == _Right._Ptr;

  000c9	8b 45 fc	 mov	 eax, DWORD PTR __Head$1$[ebp]

; 1329 :         _Erase_unchecked(_First, _Last);

  000cc	89 75 08	 mov	 DWORD PTR __First$[ebp], esi

; 96   :         return _Ptr == _Right._Ptr;

  000cf	3b 30		 cmp	 esi, DWORD PTR [eax]

; 1311 :         if (_First == _Begin && _Last._Ptr->_Isnil) {

  000d1	75 31		 jne	 SHORT $LN176@erase
  000d3	80 7b 0d 00	 cmp	 BYTE PTR [ebx+13], 0
  000d7	74 2b		 je	 SHORT $LN176@erase

; 1374 :         _Scary->_Erase_tree(_Getal(), _Head->_Parent);

  000d9	ff 70 04	 push	 DWORD PTR [eax+4]
  000dc	8b 5d f8	 mov	 ebx, DWORD PTR _this$1$[ebp]
  000df	8b cb		 mov	 ecx, ebx
  000e1	53		 push	 ebx
  000e2	e8 00 00 00 00	 call	 ??$_Erase_tree@V?$allocator@U?$_Tree_node@U?$pair@$$CBKV?$queue@USFXHIT_INFO@@V?$deque@USFXHIT_INFO@@V?$allocator@USFXHIT_INFO@@@std@@@std@@@std@@@std@@PAX@std@@@std@@@?$_Tree_val@U?$_Tree_simple_types@U?$pair@$$CBKV?$queue@USFXHIT_INFO@@V?$deque@USFXHIT_INFO@@V?$allocator@USFXHIT_INFO@@@std@@@std@@@std@@@std@@@std@@@std@@QAEXAAV?$allocator@U?$_Tree_node@U?$pair@$$CBKV?$queue@USFXHIT_INFO@@V?$deque@USFXHIT_INFO@@V?$allocator@USFXHIT_INFO@@@std@@@std@@@std@@@std@@PAX@std@@@1@PAU?$_Tree_node@U?$pair@$$CBKV?$queue@USFXHIT_INFO@@V?$deque@USFXHIT_INFO@@V?$allocator@USFXHIT_INFO@@@std@@@std@@@std@@@std@@PAX@1@@Z ; std::_Tree_val<std::_Tree_simple_types<std::pair<unsigned long const ,std::queue<SFXHIT_INFO,std::deque<SFXHIT_INFO,std::allocator<SFXHIT_INFO> > > > > >::_Erase_tree<std::allocator<std::_Tree_node<std::pair<unsigned long const ,std::queue<SFXHIT_INFO,std::deque<SFXHIT_INFO,std::allocator<SFXHIT_INFO> > > >,void *> > >

; 1375 :         _Head->_Parent  = _Head;

  000e7	8b 45 fc	 mov	 eax, DWORD PTR __Head$1$[ebp]
  000ea	89 40 04	 mov	 DWORD PTR [eax+4], eax

; 1376 :         _Head->_Left    = _Head;

  000ed	89 00		 mov	 DWORD PTR [eax], eax

; 1377 :         _Head->_Right   = _Head;

  000ef	89 40 08	 mov	 DWORD PTR [eax+8], eax

; 1378 :         _Scary->_Mysize = 0;

  000f2	c7 43 04 00 00
	00 00		 mov	 DWORD PTR [ebx+4], 0
$LN196@erase:

; 1358 :         return _Erase(_Eqrange(_Keyval));
; 1359 :     }

  000f9	8b c7		 mov	 eax, edi
  000fb	5f		 pop	 edi
  000fc	5e		 pop	 esi
  000fd	5b		 pop	 ebx
  000fe	8b e5		 mov	 esp, ebp
  00100	5d		 pop	 ebp
  00101	c2 04 00	 ret	 4
$LN176@erase:

; 101  :         return !(*this == _Right);

  00104	3b f3		 cmp	 esi, ebx

; 1318 :         while (_First != _Last) {

  00106	74 f1		 je	 SHORT $LN196@erase
$LL63@erase:

; 66   :         ++*this;

  00108	8d 4d 08	 lea	 ecx, DWORD PTR __First$[ebp]
  0010b	e8 00 00 00 00	 call	 ??E?$_Tree_unchecked_const_iterator@V?$_Tree_val@U?$_Tree_simple_types@U?$pair@$$CBKV?$queue@USFXHIT_INFO@@V?$deque@USFXHIT_INFO@@V?$allocator@USFXHIT_INFO@@@std@@@std@@@std@@@std@@@std@@@std@@U_Iterator_base0@2@@std@@QAEAAV01@XZ ; std::_Tree_unchecked_const_iterator<std::_Tree_val<std::_Tree_simple_types<std::pair<unsigned long const ,std::queue<SFXHIT_INFO,std::deque<SFXHIT_INFO,std::allocator<SFXHIT_INFO> > > > > >,std::_Iterator_base0>::operator++

; 1303 :         _Nodeptr _Erasednode = _Scary->_Extract(_Where); // node to erase

  00110	8b 4d f8	 mov	 ecx, DWORD PTR _this$1$[ebp]
  00113	56		 push	 esi
  00114	e8 00 00 00 00	 call	 ?_Extract@?$_Tree_val@U?$_Tree_simple_types@U?$pair@$$CBKV?$queue@USFXHIT_INFO@@V?$deque@USFXHIT_INFO@@V?$allocator@USFXHIT_INFO@@@std@@@std@@@std@@@std@@@std@@@std@@QAEPAU?$_Tree_node@U?$pair@$$CBKV?$queue@USFXHIT_INFO@@V?$deque@USFXHIT_INFO@@V?$allocator@USFXHIT_INFO@@@std@@@std@@@std@@@std@@PAX@2@V?$_Tree_unchecked_const_iterator@V?$_Tree_val@U?$_Tree_simple_types@U?$pair@$$CBKV?$queue@USFXHIT_INFO@@V?$deque@USFXHIT_INFO@@V?$allocator@USFXHIT_INFO@@@std@@@std@@@std@@@std@@@std@@@std@@U_Iterator_base0@2@@2@@Z ; std::_Tree_val<std::_Tree_simple_types<std::pair<unsigned long const ,std::queue<SFXHIT_INFO,std::deque<SFXHIT_INFO,std::allocator<SFXHIT_INFO> > > > > >::_Extract
  00119	8b f8		 mov	 edi, eax
; File C:\Program Files\Microsoft Visual Studio\2022\Professional\VC\Tools\MSVC\14.44.35207\include\deque

; 774  :         _Tidy();

  0011b	8d 4f 14	 lea	 ecx, DWORD PTR [edi+20]
  0011e	e8 00 00 00 00	 call	 ?_Tidy@?$deque@USFXHIT_INFO@@V?$allocator@USFXHIT_INFO@@@std@@@std@@AAEXXZ ; std::deque<SFXHIT_INFO,std::allocator<SFXHIT_INFO> >::_Tidy
; File C:\Program Files\Microsoft Visual Studio\2022\Professional\VC\Tools\MSVC\14.44.35207\include\utility

; 773  :     _Ty _Old_val = static_cast<_Ty&&>(_Val);

  00123	8b 4f 14	 mov	 ecx, DWORD PTR [edi+20]
; File C:\Program Files\Microsoft Visual Studio\2022\Professional\VC\Tools\MSVC\14.44.35207\include\xmemory

; 289  :         ::operator delete(_Ptr, _Bytes);

  00126	6a 08		 push	 8
  00128	51		 push	 ecx
; File C:\Program Files\Microsoft Visual Studio\2022\Professional\VC\Tools\MSVC\14.44.35207\include\utility

; 774  :     _Val         = static_cast<_Other&&>(_New_val);

  00129	c7 47 14 00 00
	00 00		 mov	 DWORD PTR [edi+20], 0
; File C:\Program Files\Microsoft Visual Studio\2022\Professional\VC\Tools\MSVC\14.44.35207\include\xmemory

; 289  :         ::operator delete(_Ptr, _Bytes);

  00130	e8 00 00 00 00	 call	 ??3@YAXPAXI@Z		; operator delete
  00135	6a 28		 push	 40			; 00000028H
  00137	57		 push	 edi
  00138	e8 00 00 00 00	 call	 ??3@YAXPAXI@Z		; operator delete
; File C:\Program Files\Microsoft Visual Studio\2022\Professional\VC\Tools\MSVC\14.44.35207\include\xtree

; 101  :         return !(*this == _Right);

  0013d	8b 75 08	 mov	 esi, DWORD PTR __First$[ebp]
; File C:\Program Files\Microsoft Visual Studio\2022\Professional\VC\Tools\MSVC\14.44.35207\include\xmemory

; 289  :         ::operator delete(_Ptr, _Bytes);

  00140	83 c4 10	 add	 esp, 16			; 00000010H
; File C:\Program Files\Microsoft Visual Studio\2022\Professional\VC\Tools\MSVC\14.44.35207\include\xtree

; 101  :         return !(*this == _Right);

  00143	3b f3		 cmp	 esi, ebx

; 1318 :         while (_First != _Last) {

  00145	75 c1		 jne	 SHORT $LL63@erase

; 1358 :         return _Erase(_Eqrange(_Keyval));
; 1359 :     }

  00147	8b 45 f4	 mov	 eax, DWORD PTR __Off$1$[ebp]
  0014a	5f		 pop	 edi
  0014b	5e		 pop	 esi
  0014c	5b		 pop	 ebx
  0014d	8b e5		 mov	 esp, ebp
  0014f	5d		 pop	 ebp
  00150	c2 04 00	 ret	 4
?erase@?$_Tree@V?$_Tmap_traits@KV?$queue@USFXHIT_INFO@@V?$deque@USFXHIT_INFO@@V?$allocator@USFXHIT_INFO@@@std@@@std@@@std@@U?$less@K@2@V?$allocator@U?$pair@$$CBKV?$queue@USFXHIT_INFO@@V?$deque@USFXHIT_INFO@@V?$allocator@USFXHIT_INFO@@@std@@@std@@@std@@@std@@@2@$0A@@std@@@std@@QAEIABK@Z ENDP ; std::_Tree<std::_Tmap_traits<unsigned long,std::queue<SFXHIT_INFO,std::deque<SFXHIT_INFO,std::allocator<SFXHIT_INFO> > >,std::less<unsigned long>,std::allocator<std::pair<unsigned long const ,std::queue<SFXHIT_INFO,std::deque<SFXHIT_INFO,std::allocator<SFXHIT_INFO> > > > >,0> >::erase
_TEXT	ENDS
; Function compile flags: /Ogtp
; File C:\IAGOS\server\v18\Source\Source\_Common\Item.h
; File C:\IAGOS\server\v18\Source\Source\_Common\Project.h
; File C:\IAGOS\server\v18\Source\Source\_Common\data.h
; File C:\IAGOS\server\v18\Source\Source\_Common\Item.h
; File C:\IAGOS\server\v18\Source\Source\_Common\Project.h
; File C:\IAGOS\server\v18\Source\Source\_Common\Item.h
;	COMDAT ?GetPropA@CItemElem@@QAEPAUItemProp@@XZ
_TEXT	SEGMENT
?GetPropA@CItemElem@@QAEPAUItemProp@@XZ PROC		; CItemElem::GetPropA, COMDAT
; _this$ = ecx

; 230  : 	ItemProp*	GetProp()	{	return prj.GetItemProp( m_dwItemId );	}

  00000	8b 49 0c	 mov	 ecx, DWORD PTR [ecx+12]
; File C:\IAGOS\server\v18\Source\Source\_Common\Project.h

; 1389 : 	VERIFY_RANGE_ASSERT( nIndex, 0, m_aPropItem.GetSize(), "GetItemProp range_error", NULL );

  00003	a1 40 02 00 00	 mov	 eax, DWORD PTR ?prj@@3VCProject@@A+576
  00008	85 c9		 test	 ecx, ecx
  0000a	78 0f		 js	 SHORT $LN8@GetPropA
  0000c	3b c8		 cmp	 ecx, eax
  0000e	7d 0b		 jge	 SHORT $LN8@GetPropA
; File C:\IAGOS\server\v18\Source\Source\_Common\data.h

; 270  : 	if( dwIndex >= (DWORD)m_nMaxIndex )

  00010	73 1f		 jae	 SHORT $LN15@GetPropA

; 271  : 		return NULL;
; 272  : 	return (T*) m_apOffset[ dwIndex ];

  00012	a1 30 02 00 00	 mov	 eax, DWORD PTR ?prj@@3VCProject@@A+560
  00017	8b 04 88	 mov	 eax, DWORD PTR [eax+ecx*4]
; File C:\IAGOS\server\v18\Source\Source\_Common\Item.h

; 230  : 	ItemProp*	GetProp()	{	return prj.GetItemProp( m_dwItemId );	}

  0001a	c3		 ret	 0
$LN8@GetPropA:
; File C:\IAGOS\server\v18\Source\Source\_Common\Project.h

; 579  : 	LPCTSTR szErr = Error( _T( "%s min:%d, max:%d, index:%d" ), szMsg, nMin, nMax, nIndex ); 

  0001b	51		 push	 ecx
  0001c	50		 push	 eax
  0001d	6a 00		 push	 0
  0001f	68 00 00 00 00	 push	 OFFSET ??_C@_0BI@BEIFNGEL@GetItemProp?5range_error@
  00024	68 00 00 00 00	 push	 OFFSET ??_C@_0BM@HMFGHCP@?$CFs?5min?3?$CFd?0?5max?3?$CFd?0?5index?3?$CFd@
  00029	e8 00 00 00 00	 call	 ?Error@@YAPBDPBDZZ	; Error
  0002e	83 c4 14	 add	 esp, 20			; 00000014H
$LN15@GetPropA:
; File C:\IAGOS\server\v18\Source\Source\_Common\Item.h

; 230  : 	ItemProp*	GetProp()	{	return prj.GetItemProp( m_dwItemId );	}

  00031	33 c0		 xor	 eax, eax
  00033	c3		 ret	 0
?GetPropA@CItemElem@@QAEPAUItemProp@@XZ ENDP		; CItemElem::GetPropA
_TEXT	ENDS
; Function compile flags: /Ogtp
; File C:\IAGOS\server\v18\Source\Source\_Common\Project.h
; File C:\IAGOS\server\v18\Source\Source\_Common\data.h
; File C:\IAGOS\server\v18\Source\Source\_Common\Project.h
;	COMDAT ?GetItemProp@CProject@@QAEPAUItemProp@@H@Z
_TEXT	SEGMENT
_nIndex$ = 8						; size = 4
?GetItemProp@CProject@@QAEPAUItemProp@@H@Z PROC		; CProject::GetItemProp, COMDAT
; _this$ = ecx

; 1388 : { 

  00000	55		 push	 ebp
  00001	8b ec		 mov	 ebp, esp

; 1389 : 	VERIFY_RANGE_ASSERT( nIndex, 0, m_aPropItem.GetSize(), "GetItemProp range_error", NULL );

  00003	8b 55 08	 mov	 edx, DWORD PTR _nIndex$[ebp]
  00006	56		 push	 esi
  00007	85 d2		 test	 edx, edx
  00009	78 18		 js	 SHORT $LN14@GetItemPro
  0000b	3b 91 40 02 00
	00		 cmp	 edx, DWORD PTR [ecx+576]
  00011	7d 10		 jge	 SHORT $LN14@GetItemPro
; File C:\IAGOS\server\v18\Source\Source\_Common\data.h

; 270  : 	if( dwIndex >= (DWORD)m_nMaxIndex )

  00013	73 29		 jae	 SHORT $LN18@GetItemPro

; 271  : 		return NULL;
; 272  : 	return (T*) m_apOffset[ dwIndex ];

  00015	8b 81 30 02 00
	00		 mov	 eax, DWORD PTR [ecx+560]
  0001b	5e		 pop	 esi
  0001c	8b 04 90	 mov	 eax, DWORD PTR [eax+edx*4]
; File C:\IAGOS\server\v18\Source\Source\_Common\Project.h

; 1391 : }

  0001f	5d		 pop	 ebp
  00020	c2 04 00	 ret	 4
$LN14@GetItemPro:

; 579  : 	LPCTSTR szErr = Error( _T( "%s min:%d, max:%d, index:%d" ), szMsg, nMin, nMax, nIndex ); 

  00023	52		 push	 edx
  00024	ff b1 40 02 00
	00		 push	 DWORD PTR [ecx+576]
  0002a	6a 00		 push	 0
  0002c	68 00 00 00 00	 push	 OFFSET ??_C@_0BI@BEIFNGEL@GetItemProp?5range_error@
  00031	68 00 00 00 00	 push	 OFFSET ??_C@_0BM@HMFGHCP@?$CFs?5min?3?$CFd?0?5max?3?$CFd?0?5index?3?$CFd@
  00036	e8 00 00 00 00	 call	 ?Error@@YAPBDPBDZZ	; Error
  0003b	83 c4 14	 add	 esp, 20			; 00000014H
$LN18@GetItemPro:

; 1391 : }

  0003e	33 c0		 xor	 eax, eax
  00040	5e		 pop	 esi
  00041	5d		 pop	 ebp
  00042	c2 04 00	 ret	 4
?GetItemProp@CProject@@QAEPAUItemProp@@H@Z ENDP		; CProject::GetItemProp
_TEXT	ENDS
; Function compile flags: /Ogtp
; File C:\IAGOS\server\v18\Source\Source\DX_SDK\d3dx9math.h
;	COMDAT ??0D3DXVECTOR3@@QAE@XZ
_TEXT	SEGMENT
??0D3DXVECTOR3@@QAE@XZ PROC				; D3DXVECTOR3::D3DXVECTOR3, COMDAT
; _this$ = ecx

; 165  :     D3DXVECTOR3() {};

  00000	8b c1		 mov	 eax, ecx
  00002	c3		 ret	 0
??0D3DXVECTOR3@@QAE@XZ ENDP				; D3DXVECTOR3::D3DXVECTOR3
_TEXT	ENDS
; Function compile flags: /Ogtp
; File C:\Program Files\Microsoft Visual Studio\2022\Professional\VC\Tools\MSVC\14.44.35207\include\xtree
;	COMDAT ?_Throw_tree_length_error@std@@YAXXZ
_TEXT	SEGMENT
?_Throw_tree_length_error@std@@YAXXZ PROC		; std::_Throw_tree_length_error, COMDAT

; 417  :     _Xlength_error("map/set too long");

  00000	68 00 00 00 00	 push	 OFFSET ??_C@_0BB@GCADKGJO@map?1set?5too?5long@
  00005	e8 00 00 00 00	 call	 ?_Xlength_error@std@@YAXPBD@Z ; std::_Xlength_error
$LN3@Throw_tree:
  0000a	cc		 int	 3
?_Throw_tree_length_error@std@@YAXXZ ENDP		; std::_Throw_tree_length_error
_TEXT	ENDS
; Function compile flags: /Ogtp
; File C:\Program Files\Microsoft Visual Studio\2022\Professional\VC\Tools\MSVC\14.44.35207\include\xmemory
;	COMDAT ?_Throw_bad_array_new_length@std@@YAXXZ
_TEXT	SEGMENT
$T1 = -12						; size = 12
?_Throw_bad_array_new_length@std@@YAXXZ PROC		; std::_Throw_bad_array_new_length, COMDAT

; 107  : [[noreturn]] inline void _Throw_bad_array_new_length() {

  00000	55		 push	 ebp
  00001	8b ec		 mov	 ebp, esp
  00003	83 ec 0c	 sub	 esp, 12			; 0000000cH

; 108  :     _THROW(bad_array_new_length{});

  00006	8d 4d f4	 lea	 ecx, DWORD PTR $T1[ebp]
  00009	e8 00 00 00 00	 call	 ??0bad_array_new_length@std@@QAE@XZ ; std::bad_array_new_length::bad_array_new_length
  0000e	68 00 00 00 00	 push	 OFFSET __TI3?AVbad_array_new_length@std@@
  00013	8d 45 f4	 lea	 eax, DWORD PTR $T1[ebp]
  00016	50		 push	 eax
  00017	e8 00 00 00 00	 call	 __CxxThrowException@8
$LN3@Throw_bad_:
  0001c	cc		 int	 3
?_Throw_bad_array_new_length@std@@YAXXZ ENDP		; std::_Throw_bad_array_new_length
_TEXT	ENDS
; Function compile flags: /Ogtp
; File C:\Program Files\Microsoft Visual Studio\2022\Professional\VC\Tools\MSVC\14.44.35207\include\vcruntime_exception.h
;	COMDAT ??_Gbad_array_new_length@std@@UAEPAXI@Z
_TEXT	SEGMENT
___flags$ = 8						; size = 4
??_Gbad_array_new_length@std@@UAEPAXI@Z PROC		; std::bad_array_new_length::`scalar deleting destructor', COMDAT
; _this$ = ecx
  00000	55		 push	 ebp
  00001	8b ec		 mov	 ebp, esp

; 90   :     {

  00003	56		 push	 esi
  00004	8b f1		 mov	 esi, ecx

; 91   :         __std_exception_destroy(&_Data);

  00006	8d 46 04	 lea	 eax, DWORD PTR [esi+4]
  00009	c7 06 00 00 00
	00		 mov	 DWORD PTR [esi], OFFSET ??_7exception@std@@6B@
  0000f	50		 push	 eax
  00010	e8 00 00 00 00	 call	 ___std_exception_destroy
  00015	83 c4 04	 add	 esp, 4
  00018	f6 45 08 01	 test	 BYTE PTR ___flags$[ebp], 1
  0001c	74 0b		 je	 SHORT $LN18@scalar
  0001e	6a 0c		 push	 12			; 0000000cH
  00020	56		 push	 esi
  00021	e8 00 00 00 00	 call	 ??3@YAXPAXI@Z		; operator delete
  00026	83 c4 08	 add	 esp, 8
$LN18@scalar:
  00029	8b c6		 mov	 eax, esi
  0002b	5e		 pop	 esi
  0002c	5d		 pop	 ebp
  0002d	c2 04 00	 ret	 4
??_Gbad_array_new_length@std@@UAEPAXI@Z ENDP		; std::bad_array_new_length::`scalar deleting destructor'
_TEXT	ENDS
; Function compile flags: /Ogtp
; File C:\Program Files\Microsoft Visual Studio\2022\Professional\VC\Tools\MSVC\14.44.35207\include\vcruntime_exception.h
;	COMDAT ??0bad_array_new_length@std@@QAE@ABV01@@Z
_TEXT	SEGMENT
___that$ = 8						; size = 4
??0bad_array_new_length@std@@QAE@ABV01@@Z PROC		; std::bad_array_new_length::bad_array_new_length, COMDAT
; _this$ = ecx
  00000	55		 push	 ebp
  00001	8b ec		 mov	 ebp, esp

; 73   :     {

  00003	56		 push	 esi
  00004	8b f1		 mov	 esi, ecx
  00006	0f 57 c0	 xorps	 xmm0, xmm0

; 72   :         : _Data()

  00009	8d 46 04	 lea	 eax, DWORD PTR [esi+4]

; 74   :         __std_exception_copy(&_Other._Data, &_Data);

  0000c	50		 push	 eax
  0000d	c7 06 00 00 00
	00		 mov	 DWORD PTR [esi], OFFSET ??_7exception@std@@6B@
  00013	66 0f d6 00	 movq	 QWORD PTR [eax], xmm0
  00017	8b 45 08	 mov	 eax, DWORD PTR ___that$[ebp]
  0001a	83 c0 04	 add	 eax, 4
  0001d	50		 push	 eax
  0001e	e8 00 00 00 00	 call	 ___std_exception_copy
  00023	83 c4 08	 add	 esp, 8
  00026	c7 06 00 00 00
	00		 mov	 DWORD PTR [esi], OFFSET ??_7bad_array_new_length@std@@6B@
  0002c	8b c6		 mov	 eax, esi
  0002e	5e		 pop	 esi
  0002f	5d		 pop	 ebp
  00030	c2 04 00	 ret	 4
??0bad_array_new_length@std@@QAE@ABV01@@Z ENDP		; std::bad_array_new_length::bad_array_new_length
_TEXT	ENDS
; Function compile flags: /Ogtp
; File C:\Program Files\Microsoft Visual Studio\2022\Professional\VC\Tools\MSVC\14.44.35207\include\vcruntime_exception.h
;	COMDAT ??1bad_array_new_length@std@@UAE@XZ
_TEXT	SEGMENT
??1bad_array_new_length@std@@UAE@XZ PROC		; std::bad_array_new_length::~bad_array_new_length, COMDAT
; _this$ = ecx

; 91   :         __std_exception_destroy(&_Data);

  00000	8d 41 04	 lea	 eax, DWORD PTR [ecx+4]
  00003	c7 01 00 00 00
	00		 mov	 DWORD PTR [ecx], OFFSET ??_7exception@std@@6B@
  00009	50		 push	 eax
  0000a	e8 00 00 00 00	 call	 ___std_exception_destroy
  0000f	59		 pop	 ecx
  00010	c3		 ret	 0
??1bad_array_new_length@std@@UAE@XZ ENDP		; std::bad_array_new_length::~bad_array_new_length
_TEXT	ENDS
; Function compile flags: /Ogtp
; File C:\Program Files\Microsoft Visual Studio\2022\Professional\VC\Tools\MSVC\14.44.35207\include\vcruntime_exception.h
;	COMDAT ??0bad_array_new_length@std@@QAE@XZ
_TEXT	SEGMENT
??0bad_array_new_length@std@@QAE@XZ PROC		; std::bad_array_new_length::bad_array_new_length, COMDAT
; _this$ = ecx

; 144  :     {

  00000	0f 57 c0	 xorps	 xmm0, xmm0

; 145  :     }

  00003	8b c1		 mov	 eax, ecx

; 66   :         : _Data()

  00005	66 0f d6 41 04	 movq	 QWORD PTR [ecx+4], xmm0

; 67   :     {
; 68   :         _Data._What = _Message;

  0000a	c7 41 04 00 00
	00 00		 mov	 DWORD PTR [ecx+4], OFFSET ??_C@_0BF@KINCDENJ@bad?5array?5new?5length@

; 144  :     {

  00011	c7 01 00 00 00
	00		 mov	 DWORD PTR [ecx], OFFSET ??_7bad_array_new_length@std@@6B@

; 145  :     }

  00017	c3		 ret	 0
??0bad_array_new_length@std@@QAE@XZ ENDP		; std::bad_array_new_length::bad_array_new_length
_TEXT	ENDS
; Function compile flags: /Ogtp
; File C:\Program Files\Microsoft Visual Studio\2022\Professional\VC\Tools\MSVC\14.44.35207\include\vcruntime_exception.h
;	COMDAT ??_Gbad_alloc@std@@UAEPAXI@Z
_TEXT	SEGMENT
___flags$ = 8						; size = 4
??_Gbad_alloc@std@@UAEPAXI@Z PROC			; std::bad_alloc::`scalar deleting destructor', COMDAT
; _this$ = ecx
  00000	55		 push	 ebp
  00001	8b ec		 mov	 ebp, esp

; 90   :     {

  00003	56		 push	 esi
  00004	8b f1		 mov	 esi, ecx

; 91   :         __std_exception_destroy(&_Data);

  00006	8d 46 04	 lea	 eax, DWORD PTR [esi+4]
  00009	c7 06 00 00 00
	00		 mov	 DWORD PTR [esi], OFFSET ??_7exception@std@@6B@
  0000f	50		 push	 eax
  00010	e8 00 00 00 00	 call	 ___std_exception_destroy
  00015	83 c4 04	 add	 esp, 4
  00018	f6 45 08 01	 test	 BYTE PTR ___flags$[ebp], 1
  0001c	74 0b		 je	 SHORT $LN13@scalar
  0001e	6a 0c		 push	 12			; 0000000cH
  00020	56		 push	 esi
  00021	e8 00 00 00 00	 call	 ??3@YAXPAXI@Z		; operator delete
  00026	83 c4 08	 add	 esp, 8
$LN13@scalar:
  00029	8b c6		 mov	 eax, esi
  0002b	5e		 pop	 esi
  0002c	5d		 pop	 ebp
  0002d	c2 04 00	 ret	 4
??_Gbad_alloc@std@@UAEPAXI@Z ENDP			; std::bad_alloc::`scalar deleting destructor'
_TEXT	ENDS
; Function compile flags: /Ogtp
; File C:\Program Files\Microsoft Visual Studio\2022\Professional\VC\Tools\MSVC\14.44.35207\include\vcruntime_exception.h
;	COMDAT ??0bad_alloc@std@@QAE@ABV01@@Z
_TEXT	SEGMENT
___that$ = 8						; size = 4
??0bad_alloc@std@@QAE@ABV01@@Z PROC			; std::bad_alloc::bad_alloc, COMDAT
; _this$ = ecx
  00000	55		 push	 ebp
  00001	8b ec		 mov	 ebp, esp

; 73   :     {

  00003	56		 push	 esi
  00004	8b f1		 mov	 esi, ecx
  00006	0f 57 c0	 xorps	 xmm0, xmm0

; 72   :         : _Data()

  00009	8d 46 04	 lea	 eax, DWORD PTR [esi+4]

; 74   :         __std_exception_copy(&_Other._Data, &_Data);

  0000c	50		 push	 eax
  0000d	c7 06 00 00 00
	00		 mov	 DWORD PTR [esi], OFFSET ??_7exception@std@@6B@
  00013	66 0f d6 00	 movq	 QWORD PTR [eax], xmm0
  00017	8b 45 08	 mov	 eax, DWORD PTR ___that$[ebp]
  0001a	83 c0 04	 add	 eax, 4
  0001d	50		 push	 eax
  0001e	e8 00 00 00 00	 call	 ___std_exception_copy
  00023	83 c4 08	 add	 esp, 8
  00026	c7 06 00 00 00
	00		 mov	 DWORD PTR [esi], OFFSET ??_7bad_alloc@std@@6B@
  0002c	8b c6		 mov	 eax, esi
  0002e	5e		 pop	 esi
  0002f	5d		 pop	 ebp
  00030	c2 04 00	 ret	 4
??0bad_alloc@std@@QAE@ABV01@@Z ENDP			; std::bad_alloc::bad_alloc
_TEXT	ENDS
; Function compile flags: /Ogtp
; File C:\Program Files\Microsoft Visual Studio\2022\Professional\VC\Tools\MSVC\14.44.35207\include\vcruntime_exception.h
;	COMDAT ??_Gexception@std@@UAEPAXI@Z
_TEXT	SEGMENT
___flags$ = 8						; size = 4
??_Gexception@std@@UAEPAXI@Z PROC			; std::exception::`scalar deleting destructor', COMDAT
; _this$ = ecx
  00000	55		 push	 ebp
  00001	8b ec		 mov	 ebp, esp

; 90   :     {

  00003	56		 push	 esi
  00004	8b f1		 mov	 esi, ecx

; 91   :         __std_exception_destroy(&_Data);

  00006	8d 46 04	 lea	 eax, DWORD PTR [esi+4]
  00009	c7 06 00 00 00
	00		 mov	 DWORD PTR [esi], OFFSET ??_7exception@std@@6B@
  0000f	50		 push	 eax
  00010	e8 00 00 00 00	 call	 ___std_exception_destroy
  00015	83 c4 04	 add	 esp, 4
  00018	f6 45 08 01	 test	 BYTE PTR ___flags$[ebp], 1
  0001c	74 0b		 je	 SHORT $LN8@scalar
  0001e	6a 0c		 push	 12			; 0000000cH
  00020	56		 push	 esi
  00021	e8 00 00 00 00	 call	 ??3@YAXPAXI@Z		; operator delete
  00026	83 c4 08	 add	 esp, 8
$LN8@scalar:
  00029	8b c6		 mov	 eax, esi
  0002b	5e		 pop	 esi
  0002c	5d		 pop	 ebp
  0002d	c2 04 00	 ret	 4
??_Gexception@std@@UAEPAXI@Z ENDP			; std::exception::`scalar deleting destructor'
_TEXT	ENDS
; Function compile flags: /Ogtp
; File C:\Program Files\Microsoft Visual Studio\2022\Professional\VC\Tools\MSVC\14.44.35207\include\vcruntime_exception.h
;	COMDAT ?what@exception@std@@UBEPBDXZ
_TEXT	SEGMENT
?what@exception@std@@UBEPBDXZ PROC			; std::exception::what, COMDAT
; _this$ = ecx

; 96   :         return _Data._What ? _Data._What : "Unknown exception";

  00000	8b 49 04	 mov	 ecx, DWORD PTR [ecx+4]
  00003	b8 00 00 00 00	 mov	 eax, OFFSET ??_C@_0BC@EOODALEL@Unknown?5exception@
  00008	85 c9		 test	 ecx, ecx
  0000a	0f 45 c1	 cmovne	 eax, ecx

; 97   :     }

  0000d	c3		 ret	 0
?what@exception@std@@UBEPBDXZ ENDP			; std::exception::what
_TEXT	ENDS
; Function compile flags: /Ogtp
; File C:\Program Files\Microsoft Visual Studio\2022\Professional\VC\Tools\MSVC\14.44.35207\include\vcruntime_exception.h
;	COMDAT ??1exception@std@@UAE@XZ
_TEXT	SEGMENT
??1exception@std@@UAE@XZ PROC				; std::exception::~exception, COMDAT
; _this$ = ecx

; 91   :         __std_exception_destroy(&_Data);

  00000	8d 41 04	 lea	 eax, DWORD PTR [ecx+4]
  00003	c7 01 00 00 00
	00		 mov	 DWORD PTR [ecx], OFFSET ??_7exception@std@@6B@
  00009	50		 push	 eax
  0000a	e8 00 00 00 00	 call	 ___std_exception_destroy
  0000f	59		 pop	 ecx

; 92   :     }

  00010	c3		 ret	 0
??1exception@std@@UAE@XZ ENDP				; std::exception::~exception
_TEXT	ENDS
; Function compile flags: /Ogtp
; File C:\Program Files\Microsoft Visual Studio\2022\Professional\VC\Tools\MSVC\14.44.35207\include\vcruntime_exception.h
;	COMDAT ??0exception@std@@QAE@ABV01@@Z
_TEXT	SEGMENT
__Other$ = 8						; size = 4
??0exception@std@@QAE@ABV01@@Z PROC			; std::exception::exception, COMDAT
; _this$ = ecx

; 73   :     {

  00000	55		 push	 ebp
  00001	8b ec		 mov	 ebp, esp
  00003	56		 push	 esi
  00004	8b f1		 mov	 esi, ecx
  00006	0f 57 c0	 xorps	 xmm0, xmm0
  00009	8d 46 04	 lea	 eax, DWORD PTR [esi+4]

; 74   :         __std_exception_copy(&_Other._Data, &_Data);

  0000c	50		 push	 eax
  0000d	c7 06 00 00 00
	00		 mov	 DWORD PTR [esi], OFFSET ??_7exception@std@@6B@
  00013	66 0f d6 00	 movq	 QWORD PTR [eax], xmm0
  00017	8b 45 08	 mov	 eax, DWORD PTR __Other$[ebp]
  0001a	83 c0 04	 add	 eax, 4
  0001d	50		 push	 eax
  0001e	e8 00 00 00 00	 call	 ___std_exception_copy
  00023	83 c4 08	 add	 esp, 8

; 75   :     }

  00026	8b c6		 mov	 eax, esi
  00028	5e		 pop	 esi
  00029	5d		 pop	 ebp
  0002a	c2 04 00	 ret	 4
??0exception@std@@QAE@ABV01@@Z ENDP			; std::exception::exception
_TEXT	ENDS
; Function compile flags: /Ogtp
; File C:\IAGOS\server\v18\Source\Source\_Common\MoverAttack.cpp
;	COMDAT ?__empty_global_delete@@YAXPAXI@Z
_TEXT	SEGMENT
___formal$ = 8						; size = 4
___formal$ = 12						; size = 4
?__empty_global_delete@@YAXPAXI@Z PROC			; __empty_global_delete, COMDAT

  00000	c2 00 00	 ret	 0
?__empty_global_delete@@YAXPAXI@Z ENDP			; __empty_global_delete
_TEXT	ENDS
; Function compile flags: /Ogtp
; File C:\IAGOS\server\v18\Source\Source\_Common\MoverAttack.cpp
;	COMDAT ?__empty_global_delete@@YAXPAX@Z
_TEXT	SEGMENT
___formal$ = 8						; size = 4
?__empty_global_delete@@YAXPAX@Z PROC			; __empty_global_delete, COMDAT

  00000	c2 00 00	 ret	 0
?__empty_global_delete@@YAXPAX@Z ENDP			; __empty_global_delete
_TEXT	ENDS
END
