; Listing generated by Microsoft (R) Optimizing Compiler Version 19.44.35225.0 

	TITLE	C:\IAGOS\server\v18\Source\Output\WorldServer\Release\mover.obj
	.686P
	.XMM
	include listing.inc
	.model	flat

INCLUDELIB LIBCMT
INCLUDELIB OLDNAMES

CONST	SEGMENT
?piecewise_construct@std@@3Upiecewise_construct_t@1@B	ORG $+1 ; std::piecewise_construct
CONST	ENDS
PUBLIC	?__empty_global_delete@@YAXPAX@Z		; __empty_global_delete
PUBLIC	?__empty_global_delete@@YAXPAXI@Z		; __empty_global_delete
PUBLIC	___local_stdio_printf_options
PUBLIC	?AtlThrowImpl@ATL@@YGXJ@Z			; ATL::AtlThrowImpl
PUBLIC	??1?$CSimpleStringT@D$0A@@ATL@@QAE@XZ		; ATL::CSimpleStringT<char,0>::~CSimpleStringT<char,0>
PUBLIC	?Empty@?$CSimpleStringT@D$0A@@ATL@@QAEXXZ	; ATL::CSimpleStringT<char,0>::Empty
PUBLIC	?ThrowMemoryException@?$CSimpleStringT@D$0A@@ATL@@KAXXZ ; ATL::CSimpleStringT<char,0>::ThrowMemoryException
PUBLIC	?Fork@?$CSimpleStringT@D$0A@@ATL@@AAEXH@Z	; ATL::CSimpleStringT<char,0>::Fork
PUBLIC	?PrepareWrite2@?$CSimpleStringT@D$0A@@ATL@@AAEXH@Z ; ATL::CSimpleStringT<char,0>::PrepareWrite2
PUBLIC	?Reallocate@?$CSimpleStringT@D$0A@@ATL@@AAEXH@Z	; ATL::CSimpleStringT<char,0>::Reallocate
PUBLIC	??0?$CStringT@DV?$StrTraitMFC@DV?$ChTraitsCRT@D@ATL@@@@@ATL@@QAE@XZ ; ATL::CStringT<char,StrTraitMFC<char,ATL::ChTraitsCRT<char> > >::CStringT<char,StrTraitMFC<char,ATL::ChTraitsCRT<char> > >
PUBLIC	??0?$CStringT@DV?$StrTraitMFC@DV?$ChTraitsCRT@D@ATL@@@@@ATL@@QAE@PBDPAUIAtlStringMgr@1@@Z ; ATL::CStringT<char,StrTraitMFC<char,ATL::ChTraitsCRT<char> > >::CStringT<char,StrTraitMFC<char,ATL::ChTraitsCRT<char> > >
PUBLIC	??1?$CStringT@DV?$StrTraitMFC@DV?$ChTraitsCRT@D@ATL@@@@@ATL@@QAE@XZ ; ATL::CStringT<char,StrTraitMFC<char,ATL::ChTraitsCRT<char> > >::~CStringT<char,StrTraitMFC<char,ATL::ChTraitsCRT<char> > >
PUBLIC	?Format@?$CStringT@DV?$StrTraitMFC@DV?$ChTraitsCRT@D@ATL@@@@@ATL@@QAAXPBDZZ ; ATL::CStringT<char,StrTraitMFC<char,ATL::ChTraitsCRT<char> > >::Format
PUBLIC	?LoadStringA@?$CStringT@DV?$StrTraitMFC@DV?$ChTraitsCRT@D@ATL@@@@@ATL@@QAEHI@Z ; ATL::CStringT<char,StrTraitMFC<char,ATL::ChTraitsCRT<char> > >::LoadStringA
PUBLIC	??0exception@std@@QAE@ABV01@@Z			; std::exception::exception
PUBLIC	??1exception@std@@UAE@XZ			; std::exception::~exception
PUBLIC	?what@exception@std@@UBEPBDXZ			; std::exception::what
PUBLIC	??_Gexception@std@@UAEPAXI@Z			; std::exception::`scalar deleting destructor'
PUBLIC	??0bad_alloc@std@@QAE@ABV01@@Z			; std::bad_alloc::bad_alloc
PUBLIC	??_Gbad_alloc@std@@UAEPAXI@Z			; std::bad_alloc::`scalar deleting destructor'
PUBLIC	??0bad_array_new_length@std@@QAE@XZ		; std::bad_array_new_length::bad_array_new_length
PUBLIC	??1bad_array_new_length@std@@UAE@XZ		; std::bad_array_new_length::~bad_array_new_length
PUBLIC	??0bad_array_new_length@std@@QAE@ABV01@@Z	; std::bad_array_new_length::bad_array_new_length
PUBLIC	??_Gbad_array_new_length@std@@UAEPAXI@Z		; std::bad_array_new_length::`scalar deleting destructor'
PUBLIC	?_Throw_bad_array_new_length@std@@YAXXZ		; std::_Throw_bad_array_new_length
PUBLIC	??1?$basic_string@DU?$char_traits@D@std@@V?$allocator@D@2@@std@@QAE@XZ ; std::basic_string<char,std::char_traits<char>,std::allocator<char> >::~basic_string<char,std::char_traits<char>,std::allocator<char> >
PUBLIC	?_Throw_tree_length_error@std@@YAXXZ		; std::_Throw_tree_length_error
PUBLIC	??0D3DXVECTOR3@@QAE@XZ				; D3DXVECTOR3::D3DXVECTOR3
PUBLIC	??0_LogItemInfo@@QAE@XZ				; _LogItemInfo::_LogItemInfo
PUBLIC	??1CTimer@@UAE@XZ				; CTimer::~CTimer
PUBLIC	??_GCTimer@@UAEPAXI@Z				; CTimer::`scalar deleting destructor'
PUBLIC	?GetName@CObj@@UAEPBDXZ				; CObj::GetName
PUBLIC	?SetIndex@CObj@@UAEHPAUIDirect3DDevice9@@KH@Z	; CObj::SetIndex
PUBLIC	??1?$vector@KV?$allocator@K@std@@@std@@QAE@XZ	; std::vector<unsigned long,std::allocator<unsigned long> >::~vector<unsigned long,std::allocator<unsigned long> >
PUBLIC	?_Xlength@?$vector@KV?$allocator@K@std@@@std@@CAXXZ ; std::vector<unsigned long,std::allocator<unsigned long> >::_Xlength
PUBLIC	??0?$vector@HV?$allocator@H@std@@@std@@QAE@XZ	; std::vector<int,std::allocator<int> >::vector<int,std::allocator<int> >
PUBLIC	??1?$vector@HV?$allocator@H@std@@@std@@QAE@XZ	; std::vector<int,std::allocator<int> >::~vector<int,std::allocator<int> >
PUBLIC	?_Xlength@?$vector@HV?$allocator@H@std@@@std@@CAXXZ ; std::vector<int,std::allocator<int> >::_Xlength
PUBLIC	?erase@?$_Tree@V?$_Tmap_traits@KEU?$less@K@std@@V?$allocator@U?$pair@$$CBKE@std@@@2@$0A@@std@@@std@@QAEIABK@Z ; std::_Tree<std::_Tmap_traits<unsigned long,unsigned char,std::less<unsigned long>,std::allocator<std::pair<unsigned long const ,unsigned char> >,0> >::erase
PUBLIC	?_Lrotate@?$_Tree_val@U?$_Tree_simple_types@U?$pair@$$CBKE@std@@@std@@@std@@QAEXPAU?$_Tree_node@U?$pair@$$CBKE@std@@PAX@2@@Z ; std::_Tree_val<std::_Tree_simple_types<std::pair<unsigned long const ,unsigned char> > >::_Lrotate
PUBLIC	?_Rrotate@?$_Tree_val@U?$_Tree_simple_types@U?$pair@$$CBKE@std@@@std@@@std@@QAEXPAU?$_Tree_node@U?$pair@$$CBKE@std@@PAX@2@@Z ; std::_Tree_val<std::_Tree_simple_types<std::pair<unsigned long const ,unsigned char> > >::_Rrotate
PUBLIC	?_Extract@?$_Tree_val@U?$_Tree_simple_types@U?$pair@$$CBKE@std@@@std@@@std@@QAEPAU?$_Tree_node@U?$pair@$$CBKE@std@@PAX@2@V?$_Tree_unchecked_const_iterator@V?$_Tree_val@U?$_Tree_simple_types@U?$pair@$$CBKE@std@@@std@@@std@@U_Iterator_base0@2@@2@@Z ; std::_Tree_val<std::_Tree_simple_types<std::pair<unsigned long const ,unsigned char> > >::_Extract
PUBLIC	??1?$_Tree@V?$_Tmap_traits@KHU?$less@K@std@@V?$allocator@U?$pair@$$CBKH@std@@@2@$0A@@std@@@std@@QAE@XZ ; std::_Tree<std::_Tmap_traits<unsigned long,int,std::less<unsigned long>,std::allocator<std::pair<unsigned long const ,int> >,0> >::~_Tree<std::_Tmap_traits<unsigned long,int,std::less<unsigned long>,std::allocator<std::pair<unsigned long const ,int> >,0> >
PUBLIC	??1?$map@KHU?$less@K@std@@V?$allocator@U?$pair@$$CBKH@std@@@2@@std@@QAE@XZ ; std::map<unsigned long,int,std::less<unsigned long>,std::allocator<std::pair<unsigned long const ,int> > >::~map<unsigned long,int,std::less<unsigned long>,std::allocator<std::pair<unsigned long const ,int> > >
PUBLIC	??E?$_Tree_unchecked_const_iterator@V?$_Tree_val@U?$_Tree_simple_types@U?$pair@$$CBKE@std@@@std@@@std@@U_Iterator_base0@2@@std@@QAEAAV01@XZ ; std::_Tree_unchecked_const_iterator<std::_Tree_val<std::_Tree_simple_types<std::pair<unsigned long const ,unsigned char> > >,std::_Iterator_base0>::operator++
PUBLIC	?GetItemProp@CProject@@QAEPAUItemProp@@H@Z	; CProject::GetItemProp
PUBLIC	?GetSkillProp@CProject@@QAEPAUItemProp@@H@Z	; CProject::GetSkillProp
PUBLIC	?GetText@CProject@@QAEPBDK@Z			; CProject::GetText
PUBLIC	?GetPropA@CItemElem@@QAEPAUItemProp@@XZ		; CItemElem::GetPropA
PUBLIC	??_ECItemElem@@UAEPAXI@Z			; CItemElem::`vector deleting destructor'
PUBLIC	?SetItemContainer@?$CItemContainer@VCItemElem@@@@QAEXKKK@Z ; CItemContainer<CItemElem>::SetItemContainer
PUBLIC	??0?$CItemContainer@VCItemElem@@@@QAE@XZ	; CItemContainer<CItemElem>::CItemContainer<CItemElem>
PUBLIC	??1?$CItemContainer@VCItemElem@@@@UAE@XZ	; CItemContainer<CItemElem>::~CItemContainer<CItemElem>
PUBLIC	?Clear@?$CItemContainer@VCItemElem@@@@QAEXXZ	; CItemContainer<CItemElem>::Clear
PUBLIC	?GetAt@?$CItemContainer@VCItemElem@@@@QAEPAVCItemElem@@K@Z ; CItemContainer<CItemElem>::GetAt
PUBLIC	?DoEquip@?$CItemContainer@VCItemElem@@@@QAEHKK@Z ; CItemContainer<CItemElem>::DoEquip
PUBLIC	?IsEquip@?$CItemContainer@VCItemElem@@@@QAEHK@Z	; CItemContainer<CItemElem>::IsEquip
PUBLIC	?GetEquip@?$CItemContainer@VCItemElem@@@@QAEPAVCItemElem@@K@Z ; CItemContainer<CItemElem>::GetEquip
PUBLIC	?Add@?$CItemContainer@VCItemElem@@@@QAEHPAVCItemElem@@PAEPAF1@Z ; CItemContainer<CItemElem>::Add
PUBLIC	?IsFull@?$CItemContainer@VCItemElem@@@@QAEHPAVCItemElem@@PAUItemProp@@F@Z ; CItemContainer<CItemElem>::IsFull
PUBLIC	?SetAtId@?$CItemContainer@VCItemElem@@@@QAEXKPAVCItemElem@@@Z ; CItemContainer<CItemElem>::SetAtId
PUBLIC	?GetAtId@?$CItemContainer@VCItemElem@@@@QAEPAVCItemElem@@K@Z ; CItemContainer<CItemElem>::GetAtId
PUBLIC	?GetAtItemId@?$CItemContainer@VCItemElem@@@@QAEPAVCItemElem@@K@Z ; CItemContainer<CItemElem>::GetAtItemId
PUBLIC	?RemoveAtId@?$CItemContainer@VCItemElem@@@@QAEXK@Z ; CItemContainer<CItemElem>::RemoveAtId
PUBLIC	??_G?$CItemContainer@VCItemElem@@@@UAEPAXI@Z	; CItemContainer<CItemElem>::`scalar deleting destructor'
PUBLIC	??1CVTInfo@@QAE@XZ				; CVTInfo::~CVTInfo
PUBLIC	??0CMover@@QAE@XZ				; CMover::CMover
PUBLIC	??1CMover@@UAE@XZ				; CMover::~CMover
PUBLIC	?SetSpeedFactor@CMover@@QAEXM@Z			; CMover::SetSpeedFactor
PUBLIC	?IsReturnToBegin@CMover@@QAEHXZ			; CMover::IsReturnToBegin
PUBLIC	?SetHonorCount@CMover@@QAEXHH@Z			; CMover::SetHonorCount
PUBLIC	?CheckHonorStat@CMover@@QAEXXZ			; CMover::CheckHonorStat
PUBLIC	?CheckHonorTime@CMover@@QAEXXZ			; CMover::CheckHonorTime
PUBLIC	?SetHonorAdd@CMover@@QAEXHHH@Z			; CMover::SetHonorAdd
PUBLIC	?erase@?$_Tree@V?$_Tmap_traits@KV?$queue@USFXHIT_INFO@@V?$deque@USFXHIT_INFO@@V?$allocator@USFXHIT_INFO@@@std@@@std@@@std@@U?$less@K@2@V?$allocator@U?$pair@$$CBKV?$queue@USFXHIT_INFO@@V?$deque@USFXHIT_INFO@@V?$allocator@USFXHIT_INFO@@@std@@@std@@@std@@@std@@@2@$0A@@std@@@std@@QAEIABK@Z ; std::_Tree<std::_Tmap_traits<unsigned long,std::queue<SFXHIT_INFO,std::deque<SFXHIT_INFO,std::allocator<SFXHIT_INFO> > >,std::less<unsigned long>,std::allocator<std::pair<unsigned long const ,std::queue<SFXHIT_INFO,std::deque<SFXHIT_INFO,std::allocator<SFXHIT_INFO> > > > >,0> >::erase
PUBLIC	?_Lrotate@?$_Tree_val@U?$_Tree_simple_types@U?$pair@$$CBKV?$queue@USFXHIT_INFO@@V?$deque@USFXHIT_INFO@@V?$allocator@USFXHIT_INFO@@@std@@@std@@@std@@@std@@@std@@@std@@QAEXPAU?$_Tree_node@U?$pair@$$CBKV?$queue@USFXHIT_INFO@@V?$deque@USFXHIT_INFO@@V?$allocator@USFXHIT_INFO@@@std@@@std@@@std@@@std@@PAX@2@@Z ; std::_Tree_val<std::_Tree_simple_types<std::pair<unsigned long const ,std::queue<SFXHIT_INFO,std::deque<SFXHIT_INFO,std::allocator<SFXHIT_INFO> > > > > >::_Lrotate
PUBLIC	?_Rrotate@?$_Tree_val@U?$_Tree_simple_types@U?$pair@$$CBKV?$queue@USFXHIT_INFO@@V?$deque@USFXHIT_INFO@@V?$allocator@USFXHIT_INFO@@@std@@@std@@@std@@@std@@@std@@@std@@QAEXPAU?$_Tree_node@U?$pair@$$CBKV?$queue@USFXHIT_INFO@@V?$deque@USFXHIT_INFO@@V?$allocator@USFXHIT_INFO@@@std@@@std@@@std@@@std@@PAX@2@@Z ; std::_Tree_val<std::_Tree_simple_types<std::pair<unsigned long const ,std::queue<SFXHIT_INFO,std::deque<SFXHIT_INFO,std::allocator<SFXHIT_INFO> > > > > >::_Rrotate
PUBLIC	?_Extract@?$_Tree_val@U?$_Tree_simple_types@U?$pair@$$CBKV?$queue@USFXHIT_INFO@@V?$deque@USFXHIT_INFO@@V?$allocator@USFXHIT_INFO@@@std@@@std@@@std@@@std@@@std@@@std@@QAEPAU?$_Tree_node@U?$pair@$$CBKV?$queue@USFXHIT_INFO@@V?$deque@USFXHIT_INFO@@V?$allocator@USFXHIT_INFO@@@std@@@std@@@std@@@std@@PAX@2@V?$_Tree_unchecked_const_iterator@V?$_Tree_val@U?$_Tree_simple_types@U?$pair@$$CBKV?$queue@USFXHIT_INFO@@V?$deque@USFXHIT_INFO@@V?$allocator@USFXHIT_INFO@@@std@@@std@@@std@@@std@@@std@@@std@@U_Iterator_base0@2@@2@@Z ; std::_Tree_val<std::_Tree_simple_types<std::pair<unsigned long const ,std::queue<SFXHIT_INFO,std::deque<SFXHIT_INFO,std::allocator<SFXHIT_INFO> > > > > >::_Extract
PUBLIC	??1?$map@KV?$queue@USFXHIT_INFO@@V?$deque@USFXHIT_INFO@@V?$allocator@USFXHIT_INFO@@@std@@@std@@@std@@U?$less@K@2@V?$allocator@U?$pair@$$CBKV?$queue@USFXHIT_INFO@@V?$deque@USFXHIT_INFO@@V?$allocator@USFXHIT_INFO@@@std@@@std@@@std@@@std@@@2@@std@@QAE@XZ ; std::map<unsigned long,std::queue<SFXHIT_INFO,std::deque<SFXHIT_INFO,std::allocator<SFXHIT_INFO> > >,std::less<unsigned long>,std::allocator<std::pair<unsigned long const ,std::queue<SFXHIT_INFO,std::deque<SFXHIT_INFO,std::allocator<SFXHIT_INFO> > > > > >::~map<unsigned long,std::queue<SFXHIT_INFO,std::deque<SFXHIT_INFO,std::allocator<SFXHIT_INFO> > >,std::less<unsigned long>,std::allocator<std::pair<unsigned long const ,std::queue<SFXHIT_INFO,std::deque<SFXHIT_INFO,std::allocator<SFXHIT_INFO> > > > > >
PUBLIC	?erase@?$_Tree@V?$_Tmap_traits@KV?$queue@USFXHIT_COUNT@@V?$deque@USFXHIT_COUNT@@V?$allocator@USFXHIT_COUNT@@@std@@@std@@@std@@U?$less@K@2@V?$allocator@U?$pair@$$CBKV?$queue@USFXHIT_COUNT@@V?$deque@USFXHIT_COUNT@@V?$allocator@USFXHIT_COUNT@@@std@@@std@@@std@@@std@@@2@$0A@@std@@@std@@QAEIABK@Z ; std::_Tree<std::_Tmap_traits<unsigned long,std::queue<SFXHIT_COUNT,std::deque<SFXHIT_COUNT,std::allocator<SFXHIT_COUNT> > >,std::less<unsigned long>,std::allocator<std::pair<unsigned long const ,std::queue<SFXHIT_COUNT,std::deque<SFXHIT_COUNT,std::allocator<SFXHIT_COUNT> > > > >,0> >::erase
PUBLIC	?_Lrotate@?$_Tree_val@U?$_Tree_simple_types@U?$pair@$$CBKV?$queue@USFXHIT_COUNT@@V?$deque@USFXHIT_COUNT@@V?$allocator@USFXHIT_COUNT@@@std@@@std@@@std@@@std@@@std@@@std@@QAEXPAU?$_Tree_node@U?$pair@$$CBKV?$queue@USFXHIT_COUNT@@V?$deque@USFXHIT_COUNT@@V?$allocator@USFXHIT_COUNT@@@std@@@std@@@std@@@std@@PAX@2@@Z ; std::_Tree_val<std::_Tree_simple_types<std::pair<unsigned long const ,std::queue<SFXHIT_COUNT,std::deque<SFXHIT_COUNT,std::allocator<SFXHIT_COUNT> > > > > >::_Lrotate
PUBLIC	?_Rrotate@?$_Tree_val@U?$_Tree_simple_types@U?$pair@$$CBKV?$queue@USFXHIT_COUNT@@V?$deque@USFXHIT_COUNT@@V?$allocator@USFXHIT_COUNT@@@std@@@std@@@std@@@std@@@std@@@std@@QAEXPAU?$_Tree_node@U?$pair@$$CBKV?$queue@USFXHIT_COUNT@@V?$deque@USFXHIT_COUNT@@V?$allocator@USFXHIT_COUNT@@@std@@@std@@@std@@@std@@PAX@2@@Z ; std::_Tree_val<std::_Tree_simple_types<std::pair<unsigned long const ,std::queue<SFXHIT_COUNT,std::deque<SFXHIT_COUNT,std::allocator<SFXHIT_COUNT> > > > > >::_Rrotate
PUBLIC	?_Extract@?$_Tree_val@U?$_Tree_simple_types@U?$pair@$$CBKV?$queue@USFXHIT_COUNT@@V?$deque@USFXHIT_COUNT@@V?$allocator@USFXHIT_COUNT@@@std@@@std@@@std@@@std@@@std@@@std@@QAEPAU?$_Tree_node@U?$pair@$$CBKV?$queue@USFXHIT_COUNT@@V?$deque@USFXHIT_COUNT@@V?$allocator@USFXHIT_COUNT@@@std@@@std@@@std@@@std@@PAX@2@V?$_Tree_unchecked_const_iterator@V?$_Tree_val@U?$_Tree_simple_types@U?$pair@$$CBKV?$queue@USFXHIT_COUNT@@V?$deque@USFXHIT_COUNT@@V?$allocator@USFXHIT_COUNT@@@std@@@std@@@std@@@std@@@std@@@std@@U_Iterator_base0@2@@2@@Z ; std::_Tree_val<std::_Tree_simple_types<std::pair<unsigned long const ,std::queue<SFXHIT_COUNT,std::deque<SFXHIT_COUNT,std::allocator<SFXHIT_COUNT> > > > > >::_Extract
PUBLIC	??1?$map@KV?$queue@USFXHIT_COUNT@@V?$deque@USFXHIT_COUNT@@V?$allocator@USFXHIT_COUNT@@@std@@@std@@@std@@U?$less@K@2@V?$allocator@U?$pair@$$CBKV?$queue@USFXHIT_COUNT@@V?$deque@USFXHIT_COUNT@@V?$allocator@USFXHIT_COUNT@@@std@@@std@@@std@@@std@@@2@@std@@QAE@XZ ; std::map<unsigned long,std::queue<SFXHIT_COUNT,std::deque<SFXHIT_COUNT,std::allocator<SFXHIT_COUNT> > >,std::less<unsigned long>,std::allocator<std::pair<unsigned long const ,std::queue<SFXHIT_COUNT,std::deque<SFXHIT_COUNT,std::allocator<SFXHIT_COUNT> > > > > >::~map<unsigned long,std::queue<SFXHIT_COUNT,std::deque<SFXHIT_COUNT,std::allocator<SFXHIT_COUNT> > >,std::less<unsigned long>,std::allocator<std::pair<unsigned long const ,std::queue<SFXHIT_COUNT,std::deque<SFXHIT_COUNT,std::allocator<SFXHIT_COUNT> > > > > >
PUBLIC	?IsUsingEatPet@CMover@@QAEHPAVCItemElem@@@Z	; CMover::IsUsingEatPet
PUBLIC	?GetPet@CMover@@QAEPAVCPet@@XZ			; CMover::GetPet
PUBLIC	?GetPetItem@CMover@@QAEPAVCItemElem@@XZ		; CMover::GetPetItem
PUBLIC	?PetLevelup@CMover@@QAEXXZ			; CMover::PetLevelup
PUBLIC	?PetRelease@CMover@@QAEXXZ			; CMover::PetRelease
PUBLIC	?ProcessPetAvail@CMover@@QAEXXZ			; CMover::ProcessPetAvail
PUBLIC	?ProcessPetEnergy@CMover@@QAEXXZ		; CMover::ProcessPetEnergy
PUBLIC	?ProcessPetExp@CMover@@QAEXXZ			; CMover::ProcessPetExp
PUBLIC	?GetTicket@CMover@@QAEPAVCItemElem@@XZ		; CMover::GetTicket
PUBLIC	?GetItemId2@CMover@@QAEPAVCItemElem@@HHH@Z	; CMover::GetItemId2
PUBLIC	?CreateItem2@CMover@@QAEHPAVCItemElem@@H@Z	; CMover::CreateItem2
PUBLIC	?RemoveItem2@CMover@@QAEXHFH@Z			; CMover::RemoveItem2
PUBLIC	?ProcessCollecting@CMover@@UAEXXZ		; CMover::ProcessCollecting
PUBLIC	?StartCollecting@CMover@@UAEXXZ			; CMover::StartCollecting
PUBLIC	?StopCollecting@CMover@@UAEXXZ			; CMover::StopCollecting
PUBLIC	?GetCollector@CMover@@QAEPAVCItemElem@@XZ	; CMover::GetCollector
PUBLIC	??1?$_Tree@V?$_Tmap_traits@KUHIT_INFO@@U?$less@K@std@@V?$allocator@U?$pair@$$CBKUHIT_INFO@@@std@@@3@$0A@@std@@@std@@QAE@XZ ; std::_Tree<std::_Tmap_traits<unsigned long,HIT_INFO,std::less<unsigned long>,std::allocator<std::pair<unsigned long const ,HIT_INFO> >,0> >::~_Tree<std::_Tmap_traits<unsigned long,HIT_INFO,std::less<unsigned long>,std::allocator<std::pair<unsigned long const ,HIT_INFO> >,0> >
PUBLIC	?_Lrotate@?$_Tree_val@U?$_Tree_simple_types@U?$pair@$$CBKUHIT_INFO@@@std@@@std@@@std@@QAEXPAU?$_Tree_node@U?$pair@$$CBKUHIT_INFO@@@std@@PAX@2@@Z ; std::_Tree_val<std::_Tree_simple_types<std::pair<unsigned long const ,HIT_INFO> > >::_Lrotate
PUBLIC	?_Rrotate@?$_Tree_val@U?$_Tree_simple_types@U?$pair@$$CBKUHIT_INFO@@@std@@@std@@@std@@QAEXPAU?$_Tree_node@U?$pair@$$CBKUHIT_INFO@@@std@@PAX@2@@Z ; std::_Tree_val<std::_Tree_simple_types<std::pair<unsigned long const ,HIT_INFO> > >::_Rrotate
PUBLIC	?_Extract@?$_Tree_val@U?$_Tree_simple_types@U?$pair@$$CBKUHIT_INFO@@@std@@@std@@@std@@QAEPAU?$_Tree_node@U?$pair@$$CBKUHIT_INFO@@@std@@PAX@2@V?$_Tree_unchecked_const_iterator@V?$_Tree_val@U?$_Tree_simple_types@U?$pair@$$CBKUHIT_INFO@@@std@@@std@@@std@@U_Iterator_base0@2@@2@@Z ; std::_Tree_val<std::_Tree_simple_types<std::pair<unsigned long const ,HIT_INFO> > >::_Extract
PUBLIC	?_Insert_node@?$_Tree_val@U?$_Tree_simple_types@U?$pair@$$CBKUHIT_INFO@@@std@@@std@@@std@@QAEPAU?$_Tree_node@U?$pair@$$CBKUHIT_INFO@@@std@@PAX@2@U?$_Tree_id@PAU?$_Tree_node@U?$pair@$$CBKUHIT_INFO@@@std@@PAX@std@@@2@QAU32@@Z ; std::_Tree_val<std::_Tree_simple_types<std::pair<unsigned long const ,HIT_INFO> > >::_Insert_node
PUBLIC	??1?$map@KUHIT_INFO@@U?$less@K@std@@V?$allocator@U?$pair@$$CBKUHIT_INFO@@@std@@@3@@std@@QAE@XZ ; std::map<unsigned long,HIT_INFO,std::less<unsigned long>,std::allocator<std::pair<unsigned long const ,HIT_INFO> > >::~map<unsigned long,HIT_INFO,std::less<unsigned long>,std::allocator<std::pair<unsigned long const ,HIT_INFO> > >
PUBLIC	?ProcBarunaPet@CMover@@QAEXXZ			; CMover::ProcBarunaPet
PUBLIC	?GetHairCost@CMover@@SAHPAV1@EEEE@Z		; CMover::GetHairCost
PUBLIC	?SetIndex@CMover@@UAEHPAUIDirect3DDevice9@@KHH@Z ; CMover::SetIndex
PUBLIC	?Read@CMover@@UAEHPAVCFileIO@@@Z		; CMover::Read
PUBLIC	?Process@CMover@@UAEXXZ				; CMover::Process
PUBLIC	?LoadModel@CMover@@UAEPAVCModel@@PAUIDirect3DDevice9@@KK@Z ; CMover::LoadModel
PUBLIC	?InitProp@CMover@@UAEXH@Z			; CMover::InitProp
PUBLIC	?SendDamage@CMover@@UAEHKKHH@Z			; CMover::SendDamage
PUBLIC	?SendDamageForce@CMover@@UAEHKKHH@Z		; CMover::SendDamageForce
PUBLIC	?Init@CMover@@QAEXXZ				; CMover::Init
PUBLIC	?InitLevel@CMover@@QAEXHJH@Z			; CMover::InitLevel
PUBLIC	?ProcessAniSpeed@CMover@@QAEXXZ			; CMover::ProcessAniSpeed
PUBLIC	?AllocShopInventory@CMover@@QAEXPAUtagCHARACTER@@@Z ; CMover::AllocShopInventory
PUBLIC	?IsVendorNPC@CMover@@QAEHXZ			; CMover::IsVendorNPC
PUBLIC	?CheckTickCheer@CMover@@QAEXXZ			; CMover::CheckTickCheer
PUBLIC	?SetCheerParam@CMover@@QAEXHKK@Z		; CMover::SetCheerParam
PUBLIC	?InitSkillExp@CMover@@QAEHXZ			; CMover::InitSkillExp
PUBLIC	?InitCharacter@CMover@@QAEXPAUtagCHARACTER@@@Z	; CMover::InitCharacter
PUBLIC	?GetCharacter@CMover@@QAEPAUtagCHARACTER@@XZ	; CMover::GetCharacter
PUBLIC	?InitNPCProperty@CMover@@QAEXXZ			; CMover::InitNPCProperty
PUBLIC	?LoadDialog@CMover@@QAEHXZ			; CMover::LoadDialog
PUBLIC	?ProcessRecovery@CMover@@QAEXXZ			; CMover::ProcessRecovery
PUBLIC	?IsSteal@CMover@@QAEHPAV1@@Z			; CMover::IsSteal
PUBLIC	?SetStateMode@CMover@@QAEXKE@Z			; CMover::SetStateMode
PUBLIC	?SetStateNotMode@CMover@@QAEXKE@Z		; CMover::SetStateNotMode
PUBLIC	?IsUseItemReadyTime@CMover@@QAEHPAUItemProp@@K@Z ; CMover::IsUseItemReadyTime
PUBLIC	?GetPropA@CMover@@QAEPAUMoverProp@@XZ		; CMover::GetPropA
PUBLIC	?GetActiveHandItemProp@CMover@@QAEPAUItemProp@@H@Z ; CMover::GetActiveHandItemProp
PUBLIC	?GetTransyItem@CMover@@QAEPAUItemProp@@PAU2@HPBD@Z ; CMover::GetTransyItem
PUBLIC	?ClearDest@CMover@@QAEXXZ			; CMover::ClearDest
PUBLIC	?UpdateRegionAttr@CMover@@QAEPAUREGIONELEM@@XZ	; CMover::UpdateRegionAttr
PUBLIC	?ClearDuel@CMover@@QAEXXZ			; CMover::ClearDuel
PUBLIC	?ClearDuelParty@CMover@@QAEXXZ			; CMover::ClearDuelParty
PUBLIC	?SendAIMsg@CMover@@QAEXKKKK@Z			; CMover::SendAIMsg
PUBLIC	?PostAIMsg@CMover@@QAEXKKKK@Z			; CMover::PostAIMsg
PUBLIC	?SetMotion@CMover@@UAEHKHK@Z			; CMover::SetMotion
PUBLIC	?InitMotion@CMover@@UAEHK@Z			; CMover::InitMotion
PUBLIC	?GetWeaponItem@CMover@@QAEPAVCItemElem@@H@Z	; CMover::GetWeaponItem
PUBLIC	?GetLWeaponItem@CMover@@QAEPAVCItemElem@@XZ	; CMover::GetLWeaponItem
PUBLIC	?GetEquipItem@CMover@@QAEPAVCItemElem@@H@Z	; CMover::GetEquipItem
PUBLIC	?GetEquipItemProp@CMover@@QAEPAUItemProp@@PAV?$CItemContainer@VCItemElem@@@@PAU_EQUIP_INFO@@H@Z ; CMover::GetEquipItemProp
PUBLIC	?IsDualWeapon@CMover@@QAEHXZ			; CMover::IsDualWeapon
PUBLIC	?IsDisguise@CMover@@QAEHXZ			; CMover::IsDisguise
PUBLIC	?NoDisguise@CMover@@QAEHPAUIDirect3DDevice9@@@Z	; CMover::NoDisguise
PUBLIC	?Disguise@CMover@@QAEHPAUIDirect3DDevice9@@K@Z	; CMover::Disguise
PUBLIC	?GetName@CMover@@QAEPBDH@Z			; CMover::GetName
PUBLIC	?SetLevel@CMover@@QAEHH@Z			; CMover::SetLevel
PUBLIC	?AddGPPoint@CMover@@QAEHH@Z			; CMover::AddGPPoint
PUBLIC	?SetJobLevel@CMover@@QAEXHH@Z			; CMover::SetJobLevel
PUBLIC	?GetPerinNum@CMover@@QAEHXZ			; CMover::GetPerinNum
PUBLIC	?GetTotalGold@CMover@@QAE_JXZ			; CMover::GetTotalGold
PUBLIC	?RemoveTotalGold@CMover@@QAEH_J@Z		; CMover::RemoveTotalGold
PUBLIC	?RemovePerin@CMover@@QAEHH@Z			; CMover::RemovePerin
PUBLIC	?AddGold@CMover@@QAEHHH@Z			; CMover::AddGold
PUBLIC	?IsAfterDeath@CMover@@QAEHXZ			; CMover::IsAfterDeath
PUBLIC	?SetPKValue@CMover@@QAEXH@Z			; CMover::SetPKValue
PUBLIC	?SetPKPropensity@CMover@@QAEXK@Z		; CMover::SetPKPropensity
PUBLIC	?NextPKPropensity@CMover@@QAEKH@Z		; CMover::NextPKPropensity
PUBLIC	?GetSetItemParts@CMover@@QAEHK@Z		; CMover::GetSetItemParts
PUBLIC	?GetSetItemClient@CMover@@QAEHXZ		; CMover::GetSetItemClient
PUBLIC	?GetSetItem@CMover@@QAEHPAVCItemElem@@@Z	; CMover::GetSetItem
PUBLIC	?IsSetItemPart@CMover@@QAEHK@Z			; CMover::IsSetItemPart
PUBLIC	?SetSetItemAvail@CMover@@QAEXH@Z		; CMover::SetSetItemAvail
PUBLIC	?ResetSetItemAvail@CMover@@QAEXH@Z		; CMover::ResetSetItemAvail
PUBLIC	?DestParamPiercingAvail@CMover@@QAEXPAVCItemElem@@H@Z ; CMover::DestParamPiercingAvail
PUBLIC	?Pierce@CMover@@QAEHPAVCItemElem@@K@Z		; CMover::Pierce
PUBLIC	?SetDestParamSetItem@CMover@@QAEXPAVCItemElem@@@Z ; CMover::SetDestParamSetItem
PUBLIC	?ResetDestParamSetItem@CMover@@QAEXPAVCItemElem@@@Z ; CMover::ResetDestParamSetItem
PUBLIC	?GetEquipedSetItemNumber@CMover@@QAEHPAVCSetItem@@@Z ; CMover::GetEquipedSetItemNumber
PUBLIC	?GetEquipedSetItem@CMover@@QAEXHPAH0@Z		; CMover::GetEquipedSetItem
PUBLIC	?SetDestParamRandomOpt@CMover@@QAEXPAVCItemElem@@@Z ; CMover::SetDestParamRandomOpt
PUBLIC	?ResetDestParamRandomOpt@CMover@@QAEXPAVCItemElem@@@Z ; CMover::ResetDestParamRandomOpt
PUBLIC	?SetDestParamRandomOptOrigin@CMover@@QAEXPAVCItemElem@@@Z ; CMover::SetDestParamRandomOptOrigin
PUBLIC	?SetDestParamRandomOptExtension@CMover@@QAEXPAVCItemElem@@@Z ; CMover::SetDestParamRandomOptExtension
PUBLIC	?ResetDestParamRandomOptOrigin@CMover@@QAEXPAVCItemElem@@@Z ; CMover::ResetDestParamRandomOptOrigin
PUBLIC	?ResetDestParamRandomOptExtension@CMover@@QAEXPAVCItemElem@@@Z ; CMover::ResetDestParamRandomOptExtension
PUBLIC	?IsDropable@CMover@@QAEHPAVCItemElem@@H@Z	; CMover::IsDropable
PUBLIC	?IsDropableState@CMover@@QAEHH@Z		; CMover::IsDropableState
PUBLIC	?_DropItemNPC@CMover@@QAEPAVCItem@@KKFABUD3DXVECTOR3@@@Z ; CMover::_DropItemNPC
PUBLIC	?DropItem@CMover@@QAEPAVCItem@@KFABUD3DXVECTOR3@@H@Z ; CMover::DropItem
PUBLIC	?DoDropItemRandom@CMover@@QAEHHPAV1@H@Z		; CMover::DoDropItemRandom
PUBLIC	?AddItem@CMover@@QAEHPAVCItemBase@@@Z		; CMover::AddItem
PUBLIC	?GetItemId@CMover@@QAEPAVCItemBase@@K@Z		; CMover::GetItemId
PUBLIC	?RemoveItemId@CMover@@QAEXK@Z			; CMover::RemoveItemId
PUBLIC	?SetKeeptimeInven@CMover@@QAEXKK@Z		; CMover::SetKeeptimeInven
PUBLIC	?SetKeeptimeBank@CMover@@QAEXKK@Z		; CMover::SetKeeptimeBank
PUBLIC	?SetKeeptimeItem@CMover@@QAEXPAVCItemElem@@K@Z	; CMover::SetKeeptimeItem
PUBLIC	?AddItemBank@CMover@@QAEHHPAVCItemElem@@@Z	; CMover::AddItemBank
PUBLIC	?UpdateItemBank@CMover@@QAEXHEDK@Z		; CMover::UpdateItemBank
PUBLIC	?GetItemBankId@CMover@@QAEPAVCItemBase@@HK@Z	; CMover::GetItemBankId
PUBLIC	?RemoveItemBankId@CMover@@QAEXHK@Z		; CMover::RemoveItemBankId
PUBLIC	?GenerateVendorItem@CMover@@QAEXPAPAUItemProp@@PAHHPAU_VENDOR_ITEM@@@Z ; CMover::GenerateVendorItem
PUBLIC	?DropItemByDied@CMover@@QAEHPAV1@@Z		; CMover::DropItemByDied
PUBLIC	?SetPKTargetLimit@CMover@@QAEXH@Z		; CMover::SetPKTargetLimit
PUBLIC	?GetEnemyCount@CMover@@QAEHXZ			; CMover::GetEnemyCount
PUBLIC	?GetMaxEnemyHitID@CMover@@QAEKXZ		; CMover::GetMaxEnemyHitID
PUBLIC	?AddEnemy@CMover@@QAEKKH@Z			; CMover::AddEnemy
PUBLIC	?GetEnemyHit@CMover@@QAEHKPAK@Z			; CMover::GetEnemyHit
PUBLIC	?RemoveEnemy@CMover@@QAEXK@Z			; CMover::RemoveEnemy
PUBLIC	?RemoveAllEnemies@CMover@@QAEXXZ		; CMover::RemoveAllEnemies
PUBLIC	?IsAttackAble@CMover@@QAEHPAVCObj@@@Z		; CMover::IsAttackAble
PUBLIC	?IsAttackAbleNPC@CMover@@QAEHPAV1@@Z		; CMover::IsAttackAbleNPC
PUBLIC	?IsPKPVPInspectionBase@CMover@@QAEHKH@Z		; CMover::IsPKPVPInspectionBase
PUBLIC	?IsPVPInspectionBase@CMover@@QAEHKKH@Z		; CMover::IsPVPInspectionBase
PUBLIC	?SubPKPVPInspectionBase@CMover@@QAEHPAV1@0KH@Z	; CMover::SubPKPVPInspectionBase
PUBLIC	?PrintString@CMover@@QAEXPAV1@K@Z		; CMover::PrintString
PUBLIC	?DoDie@CMover@@QAEHPAVCCtrl@@K@Z		; CMover::DoDie
PUBLIC	?GetPVPCase@CMover@@QAE?AW4PVP_MODE@@PAV1@@Z	; CMover::GetPVPCase
PUBLIC	?SubPVP@CMover@@QAEXPAV1@H@Z			; CMover::SubPVP
PUBLIC	?SubDuel@CMover@@QAEHPAV1@@Z			; CMover::SubDuel
PUBLIC	?SubPK@CMover@@QAEHPAV1@H@Z			; CMover::SubPK
PUBLIC	?SubWar@CMover@@QAEHPAV1@@Z			; CMover::SubWar
PUBLIC	?SubExperience@CMover@@QAEHPAV1@@Z		; CMover::SubExperience
PUBLIC	?AddKillRecovery@CMover@@QAEXXZ			; CMover::AddKillRecovery
PUBLIC	?IsValidArea@CMover@@QAEHPAV1@M@Z		; CMover::IsValidArea
PUBLIC	?SetJJim@CMover@@QAEXPAV1@@Z			; CMover::SetJJim
PUBLIC	?IsBullet@CMover@@QAEHPAUItemProp@@@Z		; CMover::IsBullet
PUBLIC	?SetMovePattern@CMover@@QAEXH@Z			; CMover::SetMovePattern
PUBLIC	?GetGuild@CMover@@QAEPAVCGuild@@XZ		; CMover::GetGuild
PUBLIC	?GetWar@CMover@@QAEPAVCGuildWar@@XZ		; CMover::GetWar
PUBLIC	?ReState@CMover@@QAEXXZ				; CMover::ReState
PUBLIC	?ReStateOne@CMover@@QAEXH@Z			; CMover::ReStateOne
PUBLIC	?ReStateOneLow@CMover@@QAEXH@Z			; CMover::ReStateOneLow
PUBLIC	?IsRegionMove@CMover@@QAEHKK@Z			; CMover::IsRegionMove
PUBLIC	?GetPKPVPRegionAttr@CMover@@QAEKXZ		; CMover::GetPKPVPRegionAttr
PUBLIC	?GetVendorItem@CMover@@QAEPAVCItemBase@@XZ	; CMover::GetVendorItem
PUBLIC	?IsAttackMode@CMover@@QAEHXZ			; CMover::IsAttackMode
PUBLIC	?AddSkillPoint@CMover@@QAEXH@Z			; CMover::AddSkillPoint
PUBLIC	?DoPVPEnd@CMover@@QAEXPAVCCtrl@@_NK@Z		; CMover::DoPVPEnd
PUBLIC	?EndPVP@CMover@@QAEXH@Z				; CMover::EndPVP
PUBLIC	?ProcessSFXDamage@CMover@@QAEXXZ		; CMover::ProcessSFXDamage
PUBLIC	?ProcessSFXExpire@CMover@@QAEXXZ		; CMover::ProcessSFXExpire
PUBLIC	?ProcessPet@CMover@@QAEXXZ			; CMover::ProcessPet
PUBLIC	?IsPVPInspection@CMover@@QAEHPAV1@H@Z		; CMover::IsPVPInspection
PUBLIC	?AddExperienceKillMember@CMover@@QAEXPAV1@NPAUMoverProp@@M@Z ; CMover::AddExperienceKillMember
PUBLIC	?AddExperienceSolo@CMover@@QAEXNPAUMoverProp@@MH@Z ; CMover::AddExperienceSolo
PUBLIC	?AddExperienceParty@CMover@@QAEXPAV1@NPAUMoverProp@@MPAVCParty@@QAPAVCUser@@PAH444@Z ; CMover::AddExperienceParty
PUBLIC	?AddExperiencePartyContribution@CMover@@QAEXPAV1@QAPAVCUser@@PAVCParty@@NMHH@Z ; CMover::AddExperiencePartyContribution
PUBLIC	?AddExperiencePartyLevel@CMover@@QAEXQAPAVCUser@@PAVCParty@@NMHH@Z ; CMover::AddExperiencePartyLevel
PUBLIC	?GetPartyMemberFind@CMover@@QAEHPAVCParty@@QAPAVCUser@@PAH222@Z ; CMover::GetPartyMemberFind
PUBLIC	?GetExperienceReduceFactor@CMover@@QAEMHH@Z	; CMover::GetExperienceReduceFactor
PUBLIC	?ArrowDown@CMover@@QAEXH@Z			; CMover::ArrowDown
PUBLIC	?SubDieDecExp@CMover@@QAEMHKH@Z			; CMover::SubDieDecExp
PUBLIC	?SubAroundExp@CMover@@QAEXPAV1@M@Z		; CMover::SubAroundExp
PUBLIC	?AddPartyMemberExperience@CMover@@QAEXPAVCUser@@_JH@Z ; CMover::AddPartyMemberExperience
PUBLIC	?GetDieDecExp@CMover@@QAEXHAAM0AAH1@Z		; CMover::GetDieDecExp
PUBLIC	?GetDieDecExpRate@CMover@@QAEXAAMKH@Z		; CMover::GetDieDecExpRate
PUBLIC	?CreateItem@CMover@@QAEHPAVCItemBase@@PAEPAFE@Z	; CMover::CreateItem
PUBLIC	?RemoveItem@CMover@@QAEXEF@Z			; CMover::RemoveItem
PUBLIC	?RemoveVendorItem@CMover@@QAEXDEF@Z		; CMover::RemoveVendorItem
PUBLIC	?RemoveItemIK3@CMover@@QAEXK@Z			; CMover::RemoveItemIK3
PUBLIC	?ReplaceInspection@CMover@@QAEHPAUREGIONELEM@@@Z ; CMover::ReplaceInspection
PUBLIC	?Replace@CMover@@QAEHKKAAUD3DXVECTOR3@@W4REPLACE_TYPE@@H@Z ; CMover::Replace
PUBLIC	?ProcInstantBanker@CMover@@QAEXXZ		; CMover::ProcInstantBanker
PUBLIC	?ProcInstantGC@CMover@@QAEXXZ			; CMover::ProcInstantGC
PUBLIC	?IsItemRedyTime@CMover@@QAEHPAUItemProp@@KH@Z	; CMover::IsItemRedyTime
PUBLIC	?SubSMMode@CMover@@QAEXXZ			; CMover::SubSMMode
PUBLIC	?ClearAllSMMode@CMover@@QAEXXZ			; CMover::ClearAllSMMode
PUBLIC	?SetSMMode@CMover@@QAEHHK@Z			; CMover::SetSMMode
PUBLIC	?SetMarkingPos@CMover@@QAEXXZ			; CMover::SetMarkingPos
PUBLIC	?IsUsing@CMover@@QAEHPAVCItemElem@@@Z		; CMover::IsUsing
PUBLIC	?IsShoutFull@CMover@@QAEHXZ			; CMover::IsShoutFull
PUBLIC	?IsCommBank@CMover@@QAEHXZ			; CMover::IsCommBank
PUBLIC	?ProcessRegenItem@CMover@@AAEXXZ		; CMover::ProcessRegenItem
PUBLIC	?ProcessRegion@CMover@@AAEXXZ			; CMover::ProcessRegion
PUBLIC	?ProcessQuest@CMover@@AAEXXZ			; CMover::ProcessQuest
PUBLIC	?ProcessIAObjLink@CMover@@AAEXAAUD3DXVECTOR3@@@Z ; CMover::ProcessIAObjLink
PUBLIC	?ProcessActionPoint@CMover@@AAEXXZ		; CMover::ProcessActionPoint
PUBLIC	?ProcessScript@CMover@@AAEXXZ			; CMover::ProcessScript
PUBLIC	?ProcessAbnormalState@CMover@@AAEXXZ		; CMover::ProcessAbnormalState
PUBLIC	?ProcessTarget@CMover@@AAEXXZ			; CMover::ProcessTarget
PUBLIC	?DropItem@CMover@@AAEHPAV1@@Z			; CMover::DropItem
PUBLIC	?EnforcedGhostCorr@CMover@@AAEXXZ		; CMover::EnforcedGhostCorr
PUBLIC	?ApproachGhostAngle@CMover@@AAEXXZ		; CMover::ApproachGhostAngle
PUBLIC	?OnArriveAtPos@CMover@@AAEXXZ			; CMover::OnArriveAtPos
PUBLIC	?OnArrive@CMover@@AAEXKK@Z			; CMover::OnArrive
PUBLIC	??_GCMover@@UAEPAXI@Z				; CMover::`scalar deleting destructor'
PUBLIC	?__IsEndQuestCondition@@YAHPAVCMover@@H@Z	; __IsEndQuestCondition
PUBLIC	?__IsBeginQuestCondition@@YAHPAVCMover@@H@Z	; __IsBeginQuestCondition
PUBLIC	?__IsNextLevelQuest@@YAHPAVCMover@@H@Z		; __IsNextLevelQuest
PUBLIC	??$_Erase_tree@V?$allocator@U?$_Tree_node@U?$pair@$$CBKH@std@@PAX@std@@@std@@@?$_Tree_val@U?$_Tree_simple_types@U?$pair@$$CBKH@std@@@std@@@std@@QAEXAAV?$allocator@U?$_Tree_node@U?$pair@$$CBKH@std@@PAX@std@@@1@PAU?$_Tree_node@U?$pair@$$CBKH@std@@PAX@1@@Z ; std::_Tree_val<std::_Tree_simple_types<std::pair<unsigned long const ,int> > >::_Erase_tree<std::allocator<std::_Tree_node<std::pair<unsigned long const ,int>,void *> > >
PUBLIC	??$_Erase_tree@V?$allocator@U?$_Tree_node@U?$pair@$$CBKE@std@@PAX@std@@@std@@@?$_Tree_val@U?$_Tree_simple_types@U?$pair@$$CBKE@std@@@std@@@std@@QAEXAAV?$allocator@U?$_Tree_node@U?$pair@$$CBKE@std@@PAX@std@@@1@PAU?$_Tree_node@U?$pair@$$CBKE@std@@PAX@1@@Z ; std::_Tree_val<std::_Tree_simple_types<std::pair<unsigned long const ,unsigned char> > >::_Erase_tree<std::allocator<std::_Tree_node<std::pair<unsigned long const ,unsigned char>,void *> > >
PUBLIC	??$_Allocate_manually_vector_aligned@U_Default_allocate_traits@std@@@std@@YAPAXI@Z ; std::_Allocate_manually_vector_aligned<std::_Default_allocate_traits>
PUBLIC	??1CProfileSample@@QAE@XZ			; CProfileSample::~CProfileSample
PUBLIC	??E?$_Tree_unchecked_const_iterator@V?$_Tree_val@U?$_Tree_simple_types@U?$pair@$$CBKUHIT_INFO@@@std@@@std@@@std@@U_Iterator_base0@2@@std@@QAEAAV01@XZ ; std::_Tree_unchecked_const_iterator<std::_Tree_val<std::_Tree_simple_types<std::pair<unsigned long const ,HIT_INFO> > >,std::_Iterator_base0>::operator++
PUBLIC	??1?$_Tree@V?$_Tmap_traits@PAVCSetItem@@HU?$less@PAVCSetItem@@@std@@V?$allocator@U?$pair@QAVCSetItem@@H@std@@@3@$0A@@std@@@std@@QAE@XZ ; std::_Tree<std::_Tmap_traits<CSetItem *,int,std::less<CSetItem *>,std::allocator<std::pair<CSetItem * const,int> >,0> >::~_Tree<std::_Tmap_traits<CSetItem *,int,std::less<CSetItem *>,std::allocator<std::pair<CSetItem * const,int> >,0> >
PUBLIC	?_Insert_node@?$_Tree_val@U?$_Tree_simple_types@U?$pair@QAVCSetItem@@H@std@@@std@@@std@@QAEPAU?$_Tree_node@U?$pair@QAVCSetItem@@H@std@@PAX@2@U?$_Tree_id@PAU?$_Tree_node@U?$pair@QAVCSetItem@@H@std@@PAX@std@@@2@QAU32@@Z ; std::_Tree_val<std::_Tree_simple_types<std::pair<CSetItem * const,int> > >::_Insert_node
PUBLIC	??1?$map@PAVCSetItem@@HU?$less@PAVCSetItem@@@std@@V?$allocator@U?$pair@QAVCSetItem@@H@std@@@3@@std@@QAE@XZ ; std::map<CSetItem *,int,std::less<CSetItem *>,std::allocator<std::pair<CSetItem * const,int> > >::~map<CSetItem *,int,std::less<CSetItem *>,std::allocator<std::pair<CSetItem * const,int> > >
PUBLIC	??E?$_Tree_unchecked_const_iterator@V?$_Tree_val@U?$_Tree_simple_types@U?$pair@$$CBKV?$queue@USFXHIT_INFO@@V?$deque@USFXHIT_INFO@@V?$allocator@USFXHIT_INFO@@@std@@@std@@@std@@@std@@@std@@@std@@U_Iterator_base0@2@@std@@QAEAAV01@XZ ; std::_Tree_unchecked_const_iterator<std::_Tree_val<std::_Tree_simple_types<std::pair<unsigned long const ,std::queue<SFXHIT_INFO,std::deque<SFXHIT_INFO,std::allocator<SFXHIT_INFO> > > > > >,std::_Iterator_base0>::operator++
PUBLIC	??E?$_Tree_unchecked_const_iterator@V?$_Tree_val@U?$_Tree_simple_types@U?$pair@$$CBKV?$queue@USFXHIT_COUNT@@V?$deque@USFXHIT_COUNT@@V?$allocator@USFXHIT_COUNT@@@std@@@std@@@std@@@std@@@std@@@std@@U_Iterator_base0@2@@std@@QAEAAV01@XZ ; std::_Tree_unchecked_const_iterator<std::_Tree_val<std::_Tree_simple_types<std::pair<unsigned long const ,std::queue<SFXHIT_COUNT,std::deque<SFXHIT_COUNT,std::allocator<SFXHIT_COUNT> > > > > >,std::_Iterator_base0>::operator++
PUBLIC	??$_Erase_tree@V?$allocator@U?$_Tree_node@U?$pair@$$CBKUHIT_INFO@@@std@@PAX@std@@@std@@@?$_Tree_val@U?$_Tree_simple_types@U?$pair@$$CBKUHIT_INFO@@@std@@@std@@@std@@QAEXAAV?$allocator@U?$_Tree_node@U?$pair@$$CBKUHIT_INFO@@@std@@PAX@std@@@1@PAU?$_Tree_node@U?$pair@$$CBKUHIT_INFO@@@std@@PAX@1@@Z ; std::_Tree_val<std::_Tree_simple_types<std::pair<unsigned long const ,HIT_INFO> > >::_Erase_tree<std::allocator<std::_Tree_node<std::pair<unsigned long const ,HIT_INFO>,void *> > >
PUBLIC	??$_Find_lower_bound@PAVCSetItem@@@?$_Tree@V?$_Tmap_traits@PAVCSetItem@@HU?$less@PAVCSetItem@@@std@@V?$allocator@U?$pair@QAVCSetItem@@H@std@@@3@$0A@@std@@@std@@IBE?AU?$_Tree_find_result@PAU?$_Tree_node@U?$pair@QAVCSetItem@@H@std@@PAX@std@@@1@ABQAVCSetItem@@@Z ; std::_Tree<std::_Tmap_traits<CSetItem *,int,std::less<CSetItem *>,std::allocator<std::pair<CSetItem * const,int> >,0> >::_Find_lower_bound<CSetItem *>
PUBLIC	??1?$_Alloc_construct_ptr@V?$allocator@U?$_Tree_node@U?$pair@QAVCSetItem@@H@std@@PAX@std@@@std@@@std@@QAE@XZ ; std::_Alloc_construct_ptr<std::allocator<std::_Tree_node<std::pair<CSetItem * const,int>,void *> > >::~_Alloc_construct_ptr<std::allocator<std::_Tree_node<std::pair<CSetItem * const,int>,void *> > >
PUBLIC	??$_Erase_tree@V?$allocator@U?$_Tree_node@U?$pair@QAVCSetItem@@H@std@@PAX@std@@@std@@@?$_Tree_val@U?$_Tree_simple_types@U?$pair@QAVCSetItem@@H@std@@@std@@@std@@QAEXAAV?$allocator@U?$_Tree_node@U?$pair@QAVCSetItem@@H@std@@PAX@std@@@1@PAU?$_Tree_node@U?$pair@QAVCSetItem@@H@std@@PAX@1@@Z ; std::_Tree_val<std::_Tree_simple_types<std::pair<CSetItem * const,int> > >::_Erase_tree<std::allocator<std::_Tree_node<std::pair<CSetItem * const,int>,void *> > >
PUBLIC	??$_Find_lower_bound@K@?$_Tree@V?$_Tmap_traits@KUHIT_INFO@@U?$less@K@std@@V?$allocator@U?$pair@$$CBKUHIT_INFO@@@std@@@3@$0A@@std@@@std@@IBE?AU?$_Tree_find_result@PAU?$_Tree_node@U?$pair@$$CBKUHIT_INFO@@@std@@PAX@std@@@1@ABK@Z ; std::_Tree<std::_Tmap_traits<unsigned long,HIT_INFO,std::less<unsigned long>,std::allocator<std::pair<unsigned long const ,HIT_INFO> >,0> >::_Find_lower_bound<unsigned long>
PUBLIC	??$_Erase_tree@V?$allocator@U?$_Tree_node@U?$pair@$$CBKV?$queue@USFXHIT_COUNT@@V?$deque@USFXHIT_COUNT@@V?$allocator@USFXHIT_COUNT@@@std@@@std@@@std@@@std@@PAX@std@@@std@@@?$_Tree_val@U?$_Tree_simple_types@U?$pair@$$CBKV?$queue@USFXHIT_COUNT@@V?$deque@USFXHIT_COUNT@@V?$allocator@USFXHIT_COUNT@@@std@@@std@@@std@@@std@@@std@@@std@@QAEXAAV?$allocator@U?$_Tree_node@U?$pair@$$CBKV?$queue@USFXHIT_COUNT@@V?$deque@USFXHIT_COUNT@@V?$allocator@USFXHIT_COUNT@@@std@@@std@@@std@@@std@@PAX@std@@@1@PAU?$_Tree_node@U?$pair@$$CBKV?$queue@USFXHIT_COUNT@@V?$deque@USFXHIT_COUNT@@V?$allocator@USFXHIT_COUNT@@@std@@@std@@@std@@@std@@PAX@1@@Z ; std::_Tree_val<std::_Tree_simple_types<std::pair<unsigned long const ,std::queue<SFXHIT_COUNT,std::deque<SFXHIT_COUNT,std::allocator<SFXHIT_COUNT> > > > > >::_Erase_tree<std::allocator<std::_Tree_node<std::pair<unsigned long const ,std::queue<SFXHIT_COUNT,std::deque<SFXHIT_COUNT,std::allocator<SFXHIT_COUNT> > > >,void *> > >
PUBLIC	??$_Erase_tree@V?$allocator@U?$_Tree_node@U?$pair@$$CBKV?$queue@USFXHIT_INFO@@V?$deque@USFXHIT_INFO@@V?$allocator@USFXHIT_INFO@@@std@@@std@@@std@@@std@@PAX@std@@@std@@@?$_Tree_val@U?$_Tree_simple_types@U?$pair@$$CBKV?$queue@USFXHIT_INFO@@V?$deque@USFXHIT_INFO@@V?$allocator@USFXHIT_INFO@@@std@@@std@@@std@@@std@@@std@@@std@@QAEXAAV?$allocator@U?$_Tree_node@U?$pair@$$CBKV?$queue@USFXHIT_INFO@@V?$deque@USFXHIT_INFO@@V?$allocator@USFXHIT_INFO@@@std@@@std@@@std@@@std@@PAX@std@@@1@PAU?$_Tree_node@U?$pair@$$CBKV?$queue@USFXHIT_INFO@@V?$deque@USFXHIT_INFO@@V?$allocator@USFXHIT_INFO@@@std@@@std@@@std@@@std@@PAX@1@@Z ; std::_Tree_val<std::_Tree_simple_types<std::pair<unsigned long const ,std::queue<SFXHIT_INFO,std::deque<SFXHIT_INFO,std::allocator<SFXHIT_INFO> > > > > >::_Erase_tree<std::allocator<std::_Tree_node<std::pair<unsigned long const ,std::queue<SFXHIT_INFO,std::deque<SFXHIT_INFO,std::allocator<SFXHIT_INFO> > > >,void *> > >
PUBLIC	??$_Emplace_reallocate@ABH@?$vector@HV?$allocator@H@std@@@std@@AAEPAHQAHABH@Z ; std::vector<int,std::allocator<int> >::_Emplace_reallocate<int const &>
PUBLIC	??$_Emplace_reallocate@ABK@?$vector@KV?$allocator@K@std@@@std@@AAEPAKQAKABK@Z ; std::vector<unsigned long,std::allocator<unsigned long> >::_Emplace_reallocate<unsigned long const &>
PUBLIC	??1?$_Alloc_construct_ptr@V?$allocator@U?$_Tree_node@U?$pair@$$CBKUHIT_INFO@@@std@@PAX@std@@@std@@@std@@QAE@XZ ; std::_Alloc_construct_ptr<std::allocator<std::_Tree_node<std::pair<unsigned long const ,HIT_INFO>,void *> > >::~_Alloc_construct_ptr<std::allocator<std::_Tree_node<std::pair<unsigned long const ,HIT_INFO>,void *> > >
PUBLIC	??$_Freenode@V?$allocator@U?$_Tree_node@U?$pair@$$CBKV?$queue@USFXHIT_COUNT@@V?$deque@USFXHIT_COUNT@@V?$allocator@USFXHIT_COUNT@@@std@@@std@@@std@@@std@@PAX@std@@@std@@@?$_Tree_node@U?$pair@$$CBKV?$queue@USFXHIT_COUNT@@V?$deque@USFXHIT_COUNT@@V?$allocator@USFXHIT_COUNT@@@std@@@std@@@std@@@std@@PAX@std@@SAXAAV?$allocator@U?$_Tree_node@U?$pair@$$CBKV?$queue@USFXHIT_COUNT@@V?$deque@USFXHIT_COUNT@@V?$allocator@USFXHIT_COUNT@@@std@@@std@@@std@@@std@@PAX@std@@@1@PAU01@@Z ; std::_Tree_node<std::pair<unsigned long const ,std::queue<SFXHIT_COUNT,std::deque<SFXHIT_COUNT,std::allocator<SFXHIT_COUNT> > > >,void *>::_Freenode<std::allocator<std::_Tree_node<std::pair<unsigned long const ,std::queue<SFXHIT_COUNT,std::deque<SFXHIT_COUNT,std::allocator<SFXHIT_COUNT> > > >,void *> > >
PUBLIC	??$_Freenode@V?$allocator@U?$_Tree_node@U?$pair@$$CBKV?$queue@USFXHIT_INFO@@V?$deque@USFXHIT_INFO@@V?$allocator@USFXHIT_INFO@@@std@@@std@@@std@@@std@@PAX@std@@@std@@@?$_Tree_node@U?$pair@$$CBKV?$queue@USFXHIT_INFO@@V?$deque@USFXHIT_INFO@@V?$allocator@USFXHIT_INFO@@@std@@@std@@@std@@@std@@PAX@std@@SAXAAV?$allocator@U?$_Tree_node@U?$pair@$$CBKV?$queue@USFXHIT_INFO@@V?$deque@USFXHIT_INFO@@V?$allocator@USFXHIT_INFO@@@std@@@std@@@std@@@std@@PAX@std@@@1@PAU01@@Z ; std::_Tree_node<std::pair<unsigned long const ,std::queue<SFXHIT_INFO,std::deque<SFXHIT_INFO,std::allocator<SFXHIT_INFO> > > >,void *>::_Freenode<std::allocator<std::_Tree_node<std::pair<unsigned long const ,std::queue<SFXHIT_INFO,std::deque<SFXHIT_INFO,std::allocator<SFXHIT_INFO> > > >,void *> > >
PUBLIC	??$_Copy_memmove@PAHPAH@std@@YAPAHPAH00@Z	; std::_Copy_memmove<int *,int *>
PUBLIC	??$_Copy_memmove@PAKPAK@std@@YAPAKPAK00@Z	; std::_Copy_memmove<unsigned long *,unsigned long *>
PUBLIC	??$_Copy_memmove_tail@PAH@std@@YAPAHQBDQAHII@Z	; std::_Copy_memmove_tail<int *>
PUBLIC	??$_Copy_memmove_tail@PAK@std@@YAPAKQBDQAKII@Z	; std::_Copy_memmove_tail<unsigned long *>
PUBLIC	?_OptionsStorage@?1??__local_stdio_printf_options@@9@4_KA ; `__local_stdio_printf_options'::`2'::_OptionsStorage
PUBLIC	??_C@_01CKDDGHAB@D@				; `string'
PUBLIC	??_C@_00CNPNBAHC@@				; `string'
PUBLIC	??_7exception@std@@6B@				; std::exception::`vftable'
PUBLIC	??_C@_0BC@EOODALEL@Unknown?5exception@		; `string'
PUBLIC	??_7bad_alloc@std@@6B@				; std::bad_alloc::`vftable'
PUBLIC	??_7bad_array_new_length@std@@6B@		; std::bad_array_new_length::`vftable'
PUBLIC	??_C@_0BF@KINCDENJ@bad?5array?5new?5length@	; `string'
PUBLIC	??_R0?AVexception@std@@@8			; std::exception `RTTI Type Descriptor'
PUBLIC	__CT??_R0?AVexception@std@@@8??0exception@std@@QAE@ABV01@@Z12
PUBLIC	__TI3?AVbad_array_new_length@std@@
PUBLIC	__CTA3?AVbad_array_new_length@std@@
PUBLIC	??_R0?AVbad_array_new_length@std@@@8		; std::bad_array_new_length `RTTI Type Descriptor'
PUBLIC	__CT??_R0?AVbad_array_new_length@std@@@8??0bad_array_new_length@std@@QAE@ABV01@@Z12
PUBLIC	??_R0?AVbad_alloc@std@@@8			; std::bad_alloc `RTTI Type Descriptor'
PUBLIC	__CT??_R0?AVbad_alloc@std@@@8??0bad_alloc@std@@QAE@ABV01@@Z12
PUBLIC	??_C@_0BB@GCADKGJO@map?1set?5too?5long@		; `string'
PUBLIC	??_7CTimer@@6B@					; CTimer::`vftable'
PUBLIC	??_C@_05CJBACGMB@hello@				; `string'
PUBLIC	??_C@_0BM@HMFGHCP@?$CFs?5min?3?$CFd?0?5max?3?$CFd?0?5index?3?$CFd@ ; `string'
PUBLIC	??_C@_0BI@BEIFNGEL@GetItemProp?5range_error@	; `string'
PUBLIC	??_C@_0BJ@GPNGCFMK@GetSkillProp?5range_error@	; `string'
PUBLIC	??_C@_0BJ@GKPOBPPI@GetMoverProp?5range_error@	; `string'
PUBLIC	??_C@_0BE@OHDBLHOM@GetText?5range_error@	; `string'
PUBLIC	??_C@_05KKCIMGE@error@				; `string'
PUBLIC	??_7?$CItemContainer@VCItemElem@@@@6B@		; CItemContainer<CItemElem>::`vftable'
PUBLIC	??_7CMover@@6B@					; CMover::`vftable'
PUBLIC	??_C@_0BA@FOIKENOD@vector?5too?5long@		; `string'
PUBLIC	??_R4exception@std@@6B@				; std::exception::`RTTI Complete Object Locator'
PUBLIC	??_R3exception@std@@8				; std::exception::`RTTI Class Hierarchy Descriptor'
PUBLIC	??_R2exception@std@@8				; std::exception::`RTTI Base Class Array'
PUBLIC	??_R1A@?0A@EA@exception@std@@8			; std::exception::`RTTI Base Class Descriptor at (0,-1,0,64)'
PUBLIC	??_R4bad_array_new_length@std@@6B@		; std::bad_array_new_length::`RTTI Complete Object Locator'
PUBLIC	??_R3bad_array_new_length@std@@8		; std::bad_array_new_length::`RTTI Class Hierarchy Descriptor'
PUBLIC	??_R2bad_array_new_length@std@@8		; std::bad_array_new_length::`RTTI Base Class Array'
PUBLIC	??_R1A@?0A@EA@bad_array_new_length@std@@8	; std::bad_array_new_length::`RTTI Base Class Descriptor at (0,-1,0,64)'
PUBLIC	??_R1A@?0A@EA@bad_alloc@std@@8			; std::bad_alloc::`RTTI Base Class Descriptor at (0,-1,0,64)'
PUBLIC	??_R3bad_alloc@std@@8				; std::bad_alloc::`RTTI Class Hierarchy Descriptor'
PUBLIC	??_R2bad_alloc@std@@8				; std::bad_alloc::`RTTI Base Class Array'
PUBLIC	??_R4bad_alloc@std@@6B@				; std::bad_alloc::`RTTI Complete Object Locator'
PUBLIC	??_R4CTimer@@6B@				; CTimer::`RTTI Complete Object Locator'
PUBLIC	??_R0?AVCTimer@@@8				; CTimer `RTTI Type Descriptor'
PUBLIC	??_R3CTimer@@8					; CTimer::`RTTI Class Hierarchy Descriptor'
PUBLIC	??_R2CTimer@@8					; CTimer::`RTTI Base Class Array'
PUBLIC	??_R1A@?0A@EA@CTimer@@8				; CTimer::`RTTI Base Class Descriptor at (0,-1,0,64)'
PUBLIC	??_R4?$CItemContainer@VCItemElem@@@@6B@		; CItemContainer<CItemElem>::`RTTI Complete Object Locator'
PUBLIC	??_R0?AV?$CItemContainer@VCItemElem@@@@@8	; CItemContainer<CItemElem> `RTTI Type Descriptor'
PUBLIC	??_R3?$CItemContainer@VCItemElem@@@@8		; CItemContainer<CItemElem>::`RTTI Class Hierarchy Descriptor'
PUBLIC	??_R2?$CItemContainer@VCItemElem@@@@8		; CItemContainer<CItemElem>::`RTTI Base Class Array'
PUBLIC	??_R1A@?0A@EA@?$CItemContainer@VCItemElem@@@@8	; CItemContainer<CItemElem>::`RTTI Base Class Descriptor at (0,-1,0,64)'
PUBLIC	??_C@_01FDFGLJHB@2@				; `string'
PUBLIC	??_C@_0DE@DNIPOEAF@C?3?2IAGOS?2server?2v18?2Source?2Sour@ ; `string'
PUBLIC	??_C@_0DD@MGHDMDJO@?$CFs?0?5?$CFd?$AN?6?7No?5SMItem?5dwSMItemID?$FL?$CF@ ; `string'
PUBLIC	??_C@_05IGCLJAHD@?$CDauto@			; `string'
PUBLIC	??_C@_0CE@BCHAFDDG@chip?5cost?5?$DM?51?5?3?5npc?5?$DN?5?$CFs?0?5item?5@ ; `string'
PUBLIC	??_C@_0CN@PNJJIPNG@CMover?3?3InitProp?5?9?5GetProp?$CI?$CFd?$CJ?5@ ; `string'
PUBLIC	??_C@_0BA@JHAHCNL@Layer?5not?5found@		; `string'
PUBLIC	??_C@_0BM@DJOBMMBA@_DropItemNPC?5SetIndex?3?5?$CFs?5?6@ ; `string'
PUBLIC	??_C@_06GKBINIEJ@GROUND@			; `string'
PUBLIC	??_C@_0O@MHDAMNKL@?$CFs?5?9?$DO?5?$CFs?5?$CI?$CFd?$CJ@ ; `string'
PUBLIC	??_C@_08DHHJCFN@?$CFs?5?9?$DO?5?$CFs@		; `string'
PUBLIC	??_C@_04HIBGFPH@NULL@				; `string'
PUBLIC	??_C@_0BK@LHMHCJIN@VENDORITEM?1?1?$CFs?1?1?$CFd?9?$CFd?1?1?$CFd@ ; `string'
PUBLIC	??_C@_0DJ@JPAOJJCH@CMover?3?3DoDie?5?3?5?$CFs?5?A?W?$MA?$LK?5?H?D?55?C?J?$MA@ ; `string'
PUBLIC	??_C@_0CM@DAIOHLBA@CMover?3?3SubAroundExp?5?$CFs?A?V?$MA?$KH?$LP?$KB?5?$MA@ ; `string'
PUBLIC	??_C@_0DI@CPBNLHCB@CMover?3?3AddExperienceKillMember@ ; `string'
PUBLIC	??_C@_04OEDFLLKD@?$CC?$CFs?$CC@			; `string'
PUBLIC	??_C@_0DO@NBLMDEFK@CMover?3?3DropItem?5?3?5?$CFs?$MA?G?5quest?5i@ ; `string'
PUBLIC	??_C@_0M@MLDFCOHI@?$CFs?0?5?$CFd?$AN?6?7?$CFs@	; `string'
PUBLIC	??_C@_0BB@OBLBKJAP@DropItem?31st?5?$CFs?6@	; `string'
PUBLIC	??_C@_01BNIGIBBF@Q@				; `string'
PUBLIC	??_C@_05GFPLGFAD@QUEST@				; `string'
PUBLIC	??_C@_0BB@GKOBFBHJ@DropItem?32nd?5?$CFs?6@	; `string'
PUBLIC	??_C@_0BC@HCCICBPM@DropItem?3?53rd?5?$CFs?6@	; `string'
PUBLIC	??_C@_0BC@GMPPNNKE@DropItem?3?54th?5?$CFs?6@	; `string'
PUBLIC	??_C@_0BC@KLIJBLJI@Error?5Party?5PVP?52@	; `string'
PUBLIC	??_C@_0DI@INFIKGCE@CMover?3?3ProcessRecovery?5?3?5?F?D?F?$LM?$LI@ ; `string'
PUBLIC	??_C@_0CI@KNPKHBCH@CMover?4SetIndex?3?5property?5not?5f@ ; `string'
PUBLIC	??_C@_0BB@KDNJAMCD@MaFl_InstantBank@		; `string'
PUBLIC	??_C@_0BF@JCJEOMMC@Mada_Guildcombatshop@	; `string'
PUBLIC	??_C@_0N@GELFDHNG@CONTAINER?1?10@		; `string'
PUBLIC	??_C@_0BF@OJMCJNHH@GETEQUIP?1?1?$CFd?0?5?$CFd?0?5?$CFd@ ; `string'
PUBLIC	??_C@_0EK@GINEPMCL@template?5?$DMclass?5T?$DO?5BOOL?5CItemCo@ ; `string'
PUBLIC	??_R4CMover@@6B@				; CMover::`RTTI Complete Object Locator'
PUBLIC	??_R0?AVCMover@@@8				; CMover `RTTI Type Descriptor'
PUBLIC	??_R3CMover@@8					; CMover::`RTTI Class Hierarchy Descriptor'
PUBLIC	??_R2CMover@@8					; CMover::`RTTI Base Class Array'
PUBLIC	??_R1A@?0A@EA@CMover@@8				; CMover::`RTTI Base Class Descriptor at (0,-1,0,64)'
PUBLIC	??_R1A@?0A@EA@CCtrl@@8				; CCtrl::`RTTI Base Class Descriptor at (0,-1,0,64)'
PUBLIC	??_R0?AVCCtrl@@@8				; CCtrl `RTTI Type Descriptor'
PUBLIC	??_R3CCtrl@@8					; CCtrl::`RTTI Class Hierarchy Descriptor'
PUBLIC	??_R2CCtrl@@8					; CCtrl::`RTTI Base Class Array'
PUBLIC	??_R1A@?0A@EA@CObj@@8				; CObj::`RTTI Base Class Descriptor at (0,-1,0,64)'
PUBLIC	??_R0?AVCObj@@@8				; CObj `RTTI Type Descriptor'
PUBLIC	??_R3CObj@@8					; CObj::`RTTI Class Hierarchy Descriptor'
PUBLIC	??_R2CObj@@8					; CObj::`RTTI Base Class Array'
PUBLIC	__real@00000000
PUBLIC	__real@3c8efa35
PUBLIC	__real@3dcccccd
PUBLIC	__real@3e99999a
PUBLIC	__real@3eb0c6f7a0000000
PUBLIC	__real@3ecccccd
PUBLIC	__real@3f000000
PUBLIC	__real@3f19999a
PUBLIC	__real@3f19db23
PUBLIC	__real@3f333333
PUBLIC	__real@3f4ccccd
PUBLIC	__real@3f666666
PUBLIC	__real@3f800000
PUBLIC	__real@3f8ccccd
PUBLIC	__real@3fb99999a0000000
PUBLIC	__real@3fc00000
PUBLIC	__real@3fc99999a0000000
PUBLIC	__real@3fd99999a0000000
PUBLIC	__real@3fe66666
PUBLIC	__real@3fe6666660000000
PUBLIC	__real@3ff8000000000000
PUBLIC	__real@400ccccd
PUBLIC	__real@40400000
PUBLIC	__real@4059000000000000
PUBLIC	__real@40800831
PUBLIC	__real@41700000
PUBLIC	__real@42652ee0
PUBLIC	__real@42700001
PUBLIC	__real@42c80000
PUBLIC	__real@437f0000
PUBLIC	__real@447a0000
PUBLIC	__real@461c4000
PUBLIC	__real@47c35000
PUBLIC	__real@ba83126f
PUBLIC	__real@c0000000
PUBLIC	__xmm@3d23d70a3da3d70a3df5c28f3e4ccccd
PUBLIC	__xmm@3dcccccd3dcccccd3dcccccd3ecccccd
PUBLIC	__xmm@3eb333333f19999a3f4ccccd3f4ccccd
PUBLIC	__xmm@3ecccccd3f3333333f3333333f333333
PUBLIC	__xmm@41f00000000000000000000000000000
PUBLIC	__xmm@7fffffffffffffff7fffffffffffffff
PUBLIC	__xmm@80000000800000008000000080000000
EXTRN	??_L@YGXPAXIIP6EX0@Z1@Z:PROC			; `eh vector constructor iterator'
EXTRN	??_M@YGXPAXIIP6EX0@Z@Z:PROC			; `eh vector destructor iterator'
EXTRN	??2@YAPAXI@Z:PROC				; operator new
EXTRN	??3@YAXPAXI@Z:PROC				; operator delete
EXTRN	??_U@YAPAXI@Z:PROC				; operator new[]
EXTRN	??_V@YAXPAX@Z:PROC				; operator delete[]
EXTRN	??_V@YAXPAXI@Z:PROC				; operator delete[]
EXTRN	__invalid_parameter_noinfo:PROC
EXTRN	__invoke_watson:PROC
EXTRN	__errno:PROC
EXTRN	__imp__QueryPerformanceCounter@4:PROC
EXTRN	__imp__GetTickCount@0:PROC
EXTRN	__imp__LoadResource@8:PROC
EXTRN	__imp__LockResource@4:PROC
EXTRN	__imp__SizeofResource@8:PROC
EXTRN	__imp__FindResourceW@12:PROC
EXTRN	__imp__lstrcmpA@8:PROC
EXTRN	__imp__PtInRect@12:PROC
EXTRN	__imp__WideCharToMultiByte@32:PROC
EXTRN	__mbslwr:PROC
EXTRN	___stdio_common_vsprintf:PROC
EXTRN	___stdio_common_vsprintf_s:PROC
EXTRN	__time64:PROC
EXTRN	?AfxThrowMemoryException@@YGXXZ:PROC		; AfxThrowMemoryException
EXTRN	?AfxThrowInvalidArgException@@YGXXZ:PROC	; AfxThrowInvalidArgException
EXTRN	?AfxThrowOleException@@YGXJ@Z:PROC		; AfxThrowOleException
EXTRN	?AfxFindStringResourceHandle@@YGPAUHINSTANCE__@@I@Z:PROC ; AfxFindStringResourceHandle
EXTRN	?AfxGetStringManager@@YGPAUIAtlStringMgr@ATL@@XZ:PROC ; AfxGetStringManager
EXTRN	?Lookup@CMapStringToPtr@@QBEHPBDAAPAX@Z:PROC	; CMapStringToPtr::Lookup
EXTRN	___std_exception_copy:PROC
EXTRN	___std_exception_destroy:PROC
EXTRN	??_Eexception@std@@UAEPAXI@Z:PROC		; std::exception::`vector deleting destructor'
EXTRN	??_Ebad_alloc@std@@UAEPAXI@Z:PROC		; std::bad_alloc::`vector deleting destructor'
EXTRN	??_Ebad_array_new_length@std@@UAEPAXI@Z:PROC	; std::bad_array_new_length::`vector deleting destructor'
EXTRN	?_Xlength_error@std@@YAXPBD@Z:PROC		; std::_Xlength_error
EXTRN	__imp__timeGetTime@0:PROC
EXTRN	_D3DXMatrixMultiply@12:PROC
EXTRN	_D3DXMatrixTranslation@16:PROC
EXTRN	_D3DXMatrixRotationY@8:PROC
EXTRN	_D3DXQuaternionRotationMatrix@8:PROC
EXTRN	?FILEOUT@@YAXPBD0ZZ:PROC			; FILEOUT
EXTRN	?WriteLog@@YAXPBDZZ:PROC			; WriteLog
EXTRN	?WriteError@@YAXPBDZZ:PROC			; WriteError
EXTRN	??0CTimer@@QAE@XZ:PROC				; CTimer::CTimer
EXTRN	?Set@CTimer@@QAEXMH@Z:PROC			; CTimer::Set
EXTRN	?Reset@CTimer@@UAEXXZ:PROC			; CTimer::Reset
EXTRN	?Over@CTimer@@UAEHXZ:PROC			; CTimer::Over
EXTRN	??_ECTimer@@UAEPAXI@Z:PROC			; CTimer::`vector deleting destructor'
EXTRN	?xRandom@@YAKKK@Z:PROC				; xRandom
EXTRN	?xRandomF@@YAMM@Z:PROC				; xRandomF
EXTRN	?Error@@YAPBDPBDZZ:PROC				; Error
EXTRN	?GetLanguage@@YAHXZ:PROC			; GetLanguage
EXTRN	?LoadMotion@CModelMng@@QAEHPAVCModel@@KKK@Z:PROC ; CModelMng::LoadMotion
EXTRN	?LoadModel@CModelMng@@QAEPAVCModel@@PAUIDirect3DDevice9@@HHH@Z:PROC ; CModelMng::LoadModel
EXTRN	?QuaternionRotationToYPW@@YAXABUD3DXQUATERNION@@AAUD3DXVECTOR3@@@Z:PROC ; QuaternionRotationToYPW
EXTRN	?Read@CObj@@UAEHPAVCFileIO@@@Z:PROC		; CObj::Read
EXTRN	?RenderName@CObj@@UAEXPAUIDirect3DDevice9@@PAVCD3DFont@@K@Z:PROC ; CObj::RenderName
EXTRN	?UpdateLocalMatrix@CObj@@QAEXXZ:PROC		; CObj::UpdateLocalMatrix
EXTRN	?ResetScale@CObj@@QAEXXZ:PROC			; CObj::ResetScale
EXTRN	?SetAIInterface@CObj@@QAEXKK@Z:PROC		; CObj::SetAIInterface
EXTRN	?SetTypeIndex@CObj@@QAEHPAUIDirect3DDevice9@@KKH@Z:PROC ; CObj::SetTypeIndex
EXTRN	?ProcessAI@CObj@@QAEXXZ:PROC			; CObj::ProcessAI
EXTRN	?Delete@CObj@@QAEXXZ:PROC			; CObj::Delete
EXTRN	?SetPos@CObj@@QAEXABUD3DXVECTOR3@@@Z:PROC	; CObj::SetPos
EXTRN	?SetAngle@CObj@@QAEXM@Z:PROC			; CObj::SetAngle
EXTRN	?GetAt@CDropItemGenerator@@QAEPAUtagDROPITEM@@HHM@Z:PROC ; CDropItemGenerator::GetAt
EXTRN	?GetAt@CDropKindGenerator@@QAEPAUtagDROPKIND@@H@Z:PROC ; CDropKindGenerator::GetAt
EXTRN	?GetAt@CQuestItemGenerator@@QAEPAUtagQUESTITEM@@H@Z:PROC ; CQuestItemGenerator::GetAt
EXTRN	??0CCtrl@@QAE@XZ:PROC				; CCtrl::CCtrl
EXTRN	??1CCtrl@@UAE@XZ:PROC				; CCtrl::~CCtrl
EXTRN	?AddItToGlobalId@CCtrl@@UAEXXZ:PROC		; CCtrl::AddItToGlobalId
EXTRN	?RemoveItFromGlobalId@CCtrl@@UAEXXZ:PROC	; CCtrl::RemoveItFromGlobalId
EXTRN	?Render@CCtrl@@UAEXPAUIDirect3DDevice9@@@Z:PROC	; CCtrl::Render
EXTRN	?ProcessDeleteRespawn@CCtrl@@QAEHXZ:PROC	; CCtrl::ProcessDeleteRespawn
EXTRN	?GetGuildQuest@CGuildQuestProcessor@@QAEPAU_GUILDQUESTELEM@@H@Z:PROC ; CGuildQuestProcessor::GetGuildQuest
EXTRN	?GetInstance@CGuildQuestProcessor@@SAPAV1@XZ:PROC ; CGuildQuestProcessor::GetInstance
EXTRN	?GetPartyQuest@CPartyQuestProcessor@@QAEPAU_PARTYQUESTELEM@@H@Z:PROC ; CPartyQuestProcessor::GetPartyQuest
EXTRN	?GetInstance@CPartyQuestProcessor@@SAPAV1@XZ:PROC ; CPartyQuestProcessor::GetInstance
EXTRN	?SendQuestLimitTime@CPartyQuestProcessor@@QAEXHKK@Z:PROC ; CPartyQuestProcessor::SendQuestLimitTime
EXTRN	?GetGoldDropFactor@CEventLua@@QAEMH@Z:PROC	; CEventLua::GetGoldDropFactor
EXTRN	?GetItem@CEventLua@@QAE?AV?$map@KHU?$less@K@std@@V?$allocator@U?$pair@$$CBKH@std@@@2@@std@@K@Z:PROC ; CEventLua::GetItem
EXTRN	?GetItemAvail@CSetItem@@QAEXPAU__ITEMAVAIL@@HH@Z:PROC ; CSetItem::GetItemAvail
EXTRN	?GetSetItem@CSetItemFinder@@QAEPAVCSetItem@@H@Z:PROC ; CSetItemFinder::GetSetItem
EXTRN	?GetSetItemByItemId@CSetItemFinder@@QAEPAVCSetItem@@K@Z:PROC ; CSetItemFinder::GetSetItemByItemId
EXTRN	?GetInstance@CSetItemFinder@@SAPAV1@XZ:PROC	; CSetItemFinder::GetInstance
EXTRN	?GetRandomOptItem@CRandomOptItemGen@@QAEPAU_RANDOMOPTITEM@@H@Z:PROC ; CRandomOptItemGen::GetRandomOptItem
EXTRN	?GenRandomOptItem@CRandomOptItemGen@@QAEHHMPAUItemProp@@K@Z:PROC ; CRandomOptItemGen::GenRandomOptItem
EXTRN	?GetInstance@CRandomOptItemGen@@SAPAV1@XZ:PROC	; CRandomOptItemGen::GetInstance
EXTRN	?GetSetItemAvail@CProject@@QAEPAU_SETITEMAVAIL@@H@Z:PROC ; CProject::GetSetItemAvail
EXTRN	?GetMinIdx@CProject@@QAEHHK@Z:PROC		; CProject::GetMinIdx
EXTRN	?GetMaxIdx@CProject@@QAEHHK@Z:PROC		; CProject::GetMaxIdx
EXTRN	?GetSkillPoint@CProject@@QAEKPAUItemProp@@@Z:PROC ; CProject::GetSkillPoint
EXTRN	?GetCtrl@CProject@@QAEPAVCCtrl@@K@Z:PROC	; CProject::GetCtrl
EXTRN	?GetMover@CProject@@QAEPAVCMover@@K@Z:PROC	; CProject::GetMover
EXTRN	?GetUser@CProject@@QAEPAVCUser@@K@Z:PROC	; CProject::GetUser
EXTRN	?IsAniable@CModel@@QAEHXZ:PROC			; CModel::IsAniable
EXTRN	?SetMotionBlending@CModelObject@@QAEXH@Z:PROC	; CModelObject::SetMotionBlending
EXTRN	?MakeSWDForce@CModelObject@@QAEXHKHKM@Z:PROC	; CModelObject::MakeSWDForce
EXTRN	?GetAvailParam@CPetProperty@@QAEPAU_PETAVAILPARAM@@E@Z:PROC ; CPetProperty::GetAvailParam
EXTRN	?GetLevelupAvailLevel@CPetProperty@@QAEEE@Z:PROC ; CPetProperty::GetLevelupAvailLevel
EXTRN	?GetIncrementExp@CPetProperty@@QAEKE@Z:PROC	; CPetProperty::GetIncrementExp
EXTRN	?GetMaxEnergy@CPetProperty@@QAEGE@Z:PROC	; CPetProperty::GetMaxEnergy
EXTRN	?GetInstance@CPetProperty@@SAPAV1@XZ:PROC	; CPetProperty::GetInstance
EXTRN	?Hatch@CPetProperty@@QAEEXZ:PROC		; CPetProperty::Hatch
EXTRN	?GetPenalty@CPetProperty@@QAEPAU_PETPENALTY@@E@Z:PROC ; CPetProperty::GetPenalty
EXTRN	?SetAvailLevel@CPet@@QAEXEE@Z:PROC		; CPet::SetAvailLevel
EXTRN	?GetIndex@CPet@@QAEKXZ:PROC			; CPet::GetIndex
EXTRN	?GetAvailDestParam@CPet@@QAEXAAKAAH@Z:PROC	; CPet::GetAvailDestParam
EXTRN	?SetExp@CPet@@QAEXK@Z:PROC			; CPet::SetExp
EXTRN	?GetLife@CPet@@QAEGXZ:PROC			; CPet::GetLife
EXTRN	?SetEnergy@CPet@@QAEXG@Z:PROC			; CPet::SetEnergy
EXTRN	?GetPiercingSize@CPiercing@@QAEHXZ:PROC		; CPiercing::GetPiercingSize
EXTRN	?GetPiercingItem@CPiercing@@QAEKH@Z:PROC	; CPiercing::GetPiercingItem
EXTRN	?IsQuest@CItemBase@@QAEHXZ:PROC			; CItemBase::IsQuest
EXTRN	?SetTexture@CItemBase@@QAEXXZ:PROC		; CItemBase::SetTexture
EXTRN	?GetChipCost@CItemBase@@QAEKXZ:PROC		; CItemBase::GetChipCost
EXTRN	?SetSerialNumber@CItemBase@@QAEXXZ:PROC		; CItemBase::SetSerialNumber
EXTRN	?IsPierceAble@CItemElem@@QAEHKH@Z:PROC		; CItemElem::IsPierceAble
EXTRN	??0CItemElem@@QAE@XZ:PROC			; CItemElem::CItemElem
EXTRN	??1CItemElem@@UAE@XZ:PROC			; CItemElem::~CItemElem
EXTRN	?GetPiercingAvail@CItemElem@@QAEXPAU_PIERCINGAVAIL@@@Z:PROC ; CItemElem::GetPiercingAvail
EXTRN	?IsBinds@CItemElem@@QAEHXZ:PROC			; CItemElem::IsBinds
EXTRN	?IsCharged@CItemElem@@QAEHXZ:PROC		; CItemElem::IsCharged
EXTRN	?IsLogable@CItemElem@@QAEHXZ:PROC		; CItemElem::IsLogable
EXTRN	??0CItem@@QAE@XZ:PROC				; CItem::CItem
EXTRN	?IsUsableItem@@YAHPAVCItemBase@@@Z:PROC		; IsUsableItem
EXTRN	??_E?$CItemContainer@VCItemElem@@@@UAEPAXI@Z:PROC ; CItemContainer<CItemElem>::`vector deleting destructor'
EXTRN	??0CPocketController@@QAE@XZ:PROC		; CPocketController::CPocketController
EXTRN	??1CPocketController@@UAE@XZ:PROC		; CPocketController::~CPocketController
EXTRN	?GetAtId@CPocketController@@QAEPAVCItemElem@@HHH@Z:PROC ; CPocketController::GetAtId
EXTRN	?Add@CPocketController@@QAEHHPAVCItemElem@@PAV?$vector@U_PocketController_Result@@V?$allocator@U_PocketController_Result@@@std@@@std@@@Z:PROC ; CPocketController::Add
EXTRN	?RemoveAtId@CPocketController@@QAEHHHH@Z:PROC	; CPocketController::RemoveAtId
EXTRN	?Avail@CPocketController@@QAEXHJ@Z:PROC		; CPocketController::Avail
EXTRN	?ProcessExpiring@CPocketController@@QAEXXZ:PROC	; CPocketController::ProcessExpiring
EXTRN	??0CBuffMgr@@QAE@PAVCMover@@@Z:PROC		; CBuffMgr::CBuffMgr
EXTRN	??1CBuffMgr@@UAE@XZ:PROC			; CBuffMgr::~CBuffMgr
EXTRN	?GetBuffByIk3@CBuffMgr@@QAEPAVIBuff@@K@Z:PROC	; CBuffMgr::GetBuffByIk3
EXTRN	?RemoveStateFlag@CAction@@QAEXK@Z:PROC		; CAction::RemoveStateFlag
EXTRN	?ResetState@CAction@@QAEXK@Z:PROC		; CAction::ResetState
EXTRN	??0CActionMover@@QAE@PAVCMover@@@Z:PROC		; CActionMover::CActionMover
EXTRN	?SendDamageForce@CActionMover@@QAEHKKHH@Z:PROC	; CActionMover::SendDamageForce
EXTRN	?ProcessPreAction@CActionMover@@QAEXXZ:PROC	; CActionMover::ProcessPreAction
EXTRN	?ProcessAction@CActionMover@@QAEHPBUD3DXVECTOR3@@@Z:PROC ; CActionMover::ProcessAction
EXTRN	?ProcessCollision@CActionMover@@QAEHPAUD3DXVECTOR3@@@Z:PROC ; CActionMover::ProcessCollision
EXTRN	??0CNpcProperty@@QAE@XZ:PROC			; CNpcProperty::CNpcProperty
EXTRN	?LoadDialog@CNpcProperty@@QAEHPAUtagCHARACTER@@@Z:PROC ; CNpcProperty::LoadDialog
EXTRN	?IsTimeOut@CNpcProperty@@QAEHXZ:PROC		; CNpcProperty::IsTimeOut
EXTRN	?ResetTimer@CNpcProperty@@QAEXXZ:PROC		; CNpcProperty::ResetTimer
EXTRN	?RunDialog@CNpcProperty@@QAEHPBDPAHHHHH@Z:PROC	; CNpcProperty::RunDialog
EXTRN	??0CSfxHitArray@@QAE@XZ:PROC			; CSfxHitArray::CSfxHitArray
EXTRN	??1CSfxHitArray@@QAE@XZ:PROC			; CSfxHitArray::~CSfxHitArray
EXTRN	?GetOther@CVTInfo@@QAEPAVCMover@@XZ:PROC	; CVTInfo::GetOther
EXTRN	?Init@CVTInfo@@QAEXPAVCMover@@@Z:PROC		; CVTInfo::Init
EXTRN	?IsVendorOpen@CVTInfo@@QAEHXZ:PROC		; CVTInfo::IsVendorOpen
EXTRN	?TradeClear@CVTInfo@@QAEXXZ:PROC		; CVTInfo::TradeClear
EXTRN	?VendorIsVendor@CVTInfo@@QAEHXZ:PROC		; CVTInfo::VendorIsVendor
EXTRN	?HasBuff@CMover@@QAEHGG@Z:PROC			; CMover::HasBuff
EXTRN	?HasBuffByIk3@CMover@@QAEHK@Z:PROC		; CMover::HasBuffByIk3
EXTRN	?HasPet@CMover@@QAEHXZ:PROC			; CMover::HasPet
EXTRN	?RemovePet@CMover@@QAEXXZ:PROC			; CMover::RemovePet
EXTRN	?AddBuff@CMover@@QAEHGGKKK@Z:PROC		; CMover::AddBuff
EXTRN	?RemoveCommonBuffs@CMover@@QAEXXZ:PROC		; CMover::RemoveCommonBuffs
EXTRN	?ProcessBuff@CMover@@QAEXXZ:PROC		; CMover::ProcessBuff
EXTRN	?InactivateEatPet@CMover@@QAEXXZ:PROC		; CMover::InactivateEatPet
EXTRN	?ProcessVisPet@CMover@@QAEXXZ:PROC		; CMover::ProcessVisPet
EXTRN	?InactivateBarunaPet@CMover@@QAEXXZ:PROC	; CMover::InactivateBarunaPet
EXTRN	?Serialize@CMover@@UAEXAAVCAr@@@Z:PROC		; CMover::Serialize
EXTRN	?ClearEquipInfo@CMover@@QAEXXZ:PROC		; CMover::ClearEquipInfo
EXTRN	?GetMaxPoint@CMover@@QAEHH@Z:PROC		; CMover::GetMaxPoint
EXTRN	?SetDarkCover@CMover@@QAEHHK@Z:PROC		; CMover::SetDarkCover
EXTRN	?SetStun@CMover@@QAEHHK@Z:PROC			; CMover::SetStun
EXTRN	?SetPoison@CMover@@QAEHHKKKF@Z:PROC		; CMover::SetPoison
EXTRN	?SetDark@CMover@@QAEHHKH@Z:PROC			; CMover::SetDark
EXTRN	?SetBleeding@CMover@@QAEHHKKKF@Z:PROC		; CMover::SetBleeding
EXTRN	?RedoEquip@CMover@@QAEXHH@Z:PROC		; CMover::RedoEquip
EXTRN	?DoEquip@CMover@@QAEHPAVCItemElem@@HH@Z:PROC	; CMover::DoEquip
EXTRN	?GetQuest@CMover@@QAEPAUtagQuest@@H@Z:PROC	; CMover::GetQuest
EXTRN	?IsCompleteQuest@CMover@@QAEHH@Z:PROC		; CMover::IsCompleteQuest
EXTRN	?UpdateParam@CMover@@QAEXXZ:PROC		; CMover::UpdateParam
EXTRN	?GetParam@CMover@@QAEHHH@Z:PROC			; CMover::GetParam
EXTRN	?SetDestParam@CMover@@QAEXHHHH@Z:PROC		; CMover::SetDestParam
EXTRN	?ResetDestParam@CMover@@QAEXHHH@Z:PROC		; CMover::ResetDestParam
EXTRN	?GetAdjParam@CMover@@QAEHH@Z:PROC		; CMover::GetAdjParam
EXTRN	?GetPointParam@CMover@@QAEHH@Z:PROC		; CMover::GetPointParam
EXTRN	?SetPointParam@CMover@@QAEXHHH@Z:PROC		; CMover::SetPointParam
EXTRN	?GetSkill@CMover@@QAEPAUtagSkill@@K@Z:PROC	; CMover::GetSkill
EXTRN	?CheckSkill@CMover@@QAEHK@Z:PROC		; CMover::CheckSkill
EXTRN	?SetHairColor@CMover@@QAEXK@Z:PROC		; CMover::SetHairColor
EXTRN	?IsBaseJob@CMover@@QAEHXZ:PROC			; CMover::IsBaseJob
EXTRN	?IsPro@CMover@@QAEHXZ:PROC			; CMover::IsPro
EXTRN	?AddChangeJob@CMover@@QAEHH@Z:PROC		; CMover::AddChangeJob
EXTRN	?GetJob@CMover@@QAEHXZ:PROC			; CMover::GetJob
EXTRN	?GetExpPercent@CMover@@QAEHXZ:PROC		; CMover::GetExpPercent
EXTRN	?IncHitPoint@CMover@@QAEXH@Z:PROC		; CMover::IncHitPoint
EXTRN	?IncManaPoint@CMover@@QAEXH@Z:PROC		; CMover::IncManaPoint
EXTRN	?IncFatiguePoint@CMover@@QAEXH@Z:PROC		; CMover::IncFatiguePoint
EXTRN	?SetHitPoint@CMover@@QAEXH@Z:PROC		; CMover::SetHitPoint
EXTRN	?SetManaPoint@CMover@@QAEXH@Z:PROC		; CMover::SetManaPoint
EXTRN	?SetFatiguePoint@CMover@@QAEXH@Z:PROC		; CMover::SetFatiguePoint
EXTRN	?GetItemDropRateFactor@CMover@@QAEMPAV1@@Z:PROC	; CMover::GetItemDropRateFactor
EXTRN	?GetPieceItemDropRateFactor@CMover@@QAEMPAV1@@Z:PROC ; CMover::GetPieceItemDropRateFactor
EXTRN	?AddExperience@CMover@@QAEH_JHHH@Z:PROC		; CMover::AddExperience
EXTRN	?DecExperiencePercent@CMover@@QAEHMHH@Z:PROC	; CMover::DecExperiencePercent
EXTRN	?AddFxp@CMover@@QAEHH@Z:PROC			; CMover::AddFxp
EXTRN	?GetHitType@CMover@@QAE?AW4HITTYPE@@PAV1@HH@Z:PROC ; CMover::GetHitType
EXTRN	?GetSpeed@CMover@@QAEMM@Z:PROC			; CMover::GetSpeed
EXTRN	?GetHitPoint@CMover@@QAEHXZ:PROC		; CMover::GetHitPoint
EXTRN	?GetMaxHitPoint@CMover@@QAEHXZ:PROC		; CMover::GetMaxHitPoint
EXTRN	?GetMaxManaPoint@CMover@@QAEHXZ:PROC		; CMover::GetMaxManaPoint
EXTRN	?GetMaxFatiguePoint@CMover@@QAEHXZ:PROC		; CMover::GetMaxFatiguePoint
EXTRN	?GetHPRecovery@CMover@@QAEHXZ:PROC		; CMover::GetHPRecovery
EXTRN	?GetMPRecovery@CMover@@QAEHXZ:PROC		; CMover::GetMPRecovery
EXTRN	?GetFPRecovery@CMover@@QAEHXZ:PROC		; CMover::GetFPRecovery
EXTRN	?GetAttackSpeed@CMover@@QAEMXZ:PROC		; CMover::GetAttackSpeed
EXTRN	?GetCastingAniSpeed@CMover@@QAEMXZ:PROC		; CMover::GetCastingAniSpeed
EXTRN	?UpdateItem@CMover@@QAEXEDKK@Z:PROC		; CMover::UpdateItem
EXTRN	?GetItemNum@CMover@@QAEHK@Z:PROC		; CMover::GetItemNum
EXTRN	?UnequipRide@CMover@@QAEXXZ:PROC		; CMover::UnequipRide
EXTRN	?DuelResult@CMover@@QAEHPAV1@@Z:PROC		; CMover::DuelResult
EXTRN	?GetSkillProp@CMover@@UAEHPAPAUItemProp@@PAPAUAddSkillProp@@HKPBD@Z:PROC ; CMover::GetSkillProp
EXTRN	?OnActCollision@CMover@@QAEXXZ:PROC		; CMover::OnActCollision
EXTRN	?ProcessMovePattern@CMover@@QAEXXZ:PROC		; CMover::ProcessMovePattern
EXTRN	?ActionForceSet@CMover@@QAEXAAUD3DXVECTOR3@@0MKKHHHK@Z:PROC ; CMover::ActionForceSet
EXTRN	?ActionForceSet2@CMover@@QAEXAAUD3DXVECTOR3@@0MMMMKKHHHK@Z:PROC ; CMover::ActionForceSet2
EXTRN	?HalfForceSet@CMover@@QAEXAAUD3DXVECTOR3@@0MMMM@Z:PROC ; CMover::HalfForceSet
EXTRN	?IsMaster@CMover@@QAEHXZ:PROC			; CMover::IsMaster
EXTRN	?IsHero@CMover@@QAEHXZ:PROC			; CMover::IsHero
EXTRN	?IsLegendHero@CMover@@QAEHXZ:PROC		; CMover::IsLegendHero
EXTRN	?ProcessMove@CMover@@AAEXXZ:PROC		; CMover::ProcessMove
EXTRN	??_ECMover@@UAEPAXI@Z:PROC			; CMover::`vector deleting destructor'
EXTRN	?AttackBySFX@@YAHPAVCMover@@AAUSFXHIT_INFO@@@Z:PROC ; AttackBySFX
EXTRN	?Increment@CLayerdRespawner@@QAEXHHHH@Z:PROC	; CLayerdRespawner::Increment
EXTRN	?GetLinkMap@CLayeredLinkMap@@QAEPAVCLinkMap@@H@Z:PROC ; CLayeredLinkMap::GetLinkMap
EXTRN	?OnDie@CWorld@@QAEXPAVCMover@@0@Z:PROC		; CWorld::OnDie
EXTRN	?AddObj@CWorld@@QAEHPAVCObj@@HH@Z:PROC		; CWorld::AddObj
EXTRN	?GetHeightAttribute@CWorld@@QAEHMM@Z:PROC	; CWorld::GetHeightAttribute
EXTRN	?GetState@CFlyffEvent@@QAEEH@Z:PROC		; CFlyffEvent::GetState
EXTRN	?IsPossibleUser@CGuildCombat1to1Mng@@QAEHPAVCUser@@@Z:PROC ; CGuildCombat1to1Mng::IsPossibleUser
EXTRN	?GetMember@CGuild@@QAEPAVCGuildMember@@K@Z:PROC	; CGuild::GetMember
EXTRN	?SetQuest@CGuild@@QAEXHH@Z:PROC			; CGuild::SetQuest
EXTRN	?GetGuild@CGuildMng@@QAEPAVCGuild@@K@Z:PROC	; CGuildMng::GetGuild
EXTRN	?DestroyMover@CColosseumMatch@@QAEXXZ:PROC	; CColosseumMatch::DestroyMover
EXTRN	?GetInstance@CColosseumMng@@SAPAV1@XZ:PROC	; CColosseumMng::GetInstance
EXTRN	?GetMatchByMoverID@CColosseumMng@@QAEPAVCColosseumMatch@@K@Z:PROC ; CColosseumMng::GetMatchByMoverID
EXTRN	?Instance@CSLord@@SAPAV1@XZ:PROC		; CSLord::Instance
EXTRN	?GetInstance@CRandomOptionProperty@@SAPAV1@XZ:PROC ; CRandomOptionProperty::GetInstance
EXTRN	?GetParam@CRandomOptionProperty@@QAEH_JHPAH1@Z:PROC ; CRandomOptionProperty::GetParam
EXTRN	?GetRandomOptionSize@CRandomOptionProperty@@QAEH_J@Z:PROC ; CRandomOptionProperty::GetRandomOptionSize
EXTRN	?GetInstance@CPlayerDataCenter@@SAPAV1@XZ:PROC	; CPlayerDataCenter::GetInstance
EXTRN	?GetPlayerString@CPlayerDataCenter@@QAEPBDK@Z:PROC ; CPlayerDataCenter::GetPlayerString
EXTRN	?Instance@CTitleManager@@SAPAV1@XZ:PROC		; CTitleManager::Instance
EXTRN	?GetNeedCount@CTitleManager@@QAEHHH@Z:PROC	; CTitleManager::GetNeedCount
EXTRN	?GetIdx@CTitleManager@@QAEHHH@Z:PROC		; CTitleManager::GetIdx
EXTRN	?GetHonorDataByID@CTitleManager@@QAEPAUHonorData@@HH@Z:PROC ; CTitleManager::GetHonorDataByID
EXTRN	?InitTaskBarShorcutKind@CUserTaskBar@@QAEXK@Z:PROC ; CUserTaskBar::InitTaskBarShorcutKind
EXTRN	?GetLeader@CParty@@QAEPAVCMover@@XZ:PROC	; CParty::GetLeader
EXTRN	?DoDuelPartyCancel@CParty@@QAEXPAV1@@Z:PROC	; CParty::DoDuelPartyCancel
EXTRN	?GetPoint@CParty@@QAEXHHH@Z:PROC		; CParty::GetPoint
EXTRN	?FindMember@CParty@@QAEHK@Z:PROC		; CParty::FindMember
EXTRN	?GetParty@CPartyMng@@QAEPAVCParty@@K@Z:PROC	; CPartyMng::GetParty
EXTRN	?GetInstance@CSecretRoomMng@@SAPAV1@XZ:PROC	; CSecretRoomMng::GetInstance
EXTRN	?IsInTheSecretRoom@CSecretRoomMng@@QAEHPAVCMover@@@Z:PROC ; CSecretRoomMng::IsInTheSecretRoom
EXTRN	?IsGuildMaster@CSecretRoomMng@@QAEHPAVCUser@@@Z:PROC ; CSecretRoomMng::IsGuildMaster
EXTRN	?SetSecretRoomKill@CSecretRoomMng@@QAEXKK@Z:PROC ; CSecretRoomMng::SetSecretRoomKill
EXTRN	?SetFailGuild@CSecretRoomMng@@QAEXPAVCUser@@@Z:PROC ; CSecretRoomMng::SetFailGuild
EXTRN	?GetInstance@CPCBang@@SAPAV1@XZ:PROC		; CPCBang::GetInstance
EXTRN	?GetExpFactor@CPCBang@@QAEMPAVCUser@@@Z:PROC	; CPCBang::GetExpFactor
EXTRN	?GetPartyExpFactor@CPCBang@@QAEMQAPAVCUser@@H@Z:PROC ; CPCBang::GetPartyExpFactor
EXTRN	?LevelUpSetting@CUser@@QAEXXZ:PROC		; CUser::LevelUpSetting
EXTRN	?ExpUpSetting@CUser@@QAEXXZ:PROC		; CUser::ExpUpSetting
EXTRN	?OnMsgArrival@CUser@@QAEXK@Z:PROC		; CUser::OnMsgArrival
EXTRN	?AddText@CUser@@QAEXPBD@Z:PROC			; CUser::AddText
EXTRN	?AddCreateItem@CUser@@QAEXPAVCItemBase@@PAEPAFE@Z:PROC ; CUser::AddCreateItem
EXTRN	?AddSetFxp@CUser@@QAEXHH@Z:PROC			; CUser::AddSetFxp
EXTRN	?AddSetGrowthLearningPoint@CUser@@QAEXJ@Z:PROC	; CUser::AddSetGrowthLearningPoint
EXTRN	?AddDefinedText@CUser@@QAAXHPBDZZ:PROC		; CUser::AddDefinedText
EXTRN	?AddDefinedText@CUser@@QAEXH@Z:PROC		; CUser::AddDefinedText
EXTRN	?AddGoldText@CUser@@QAEXH@Z:PROC		; CUser::AddGoldText
EXTRN	?AddSetQuest@CUser@@QAEXPAUtagQuest@@@Z:PROC	; CUser::AddSetQuest
EXTRN	?AddSetChangeJob@CUser@@QAEXH@Z:PROC		; CUser::AddSetChangeJob
EXTRN	?AddTaskBar@CUser@@QAEXXZ:PROC			; CUser::AddTaskBar
EXTRN	?AddDuelCount@CUser@@QAEXH@Z:PROC		; CUser::AddDuelCount
EXTRN	?AddDuelStart@CUser@@QAEXKH@Z:PROC		; CUser::AddDuelStart
EXTRN	?AddDuelCancel@CUser@@QAEXK@Z:PROC		; CUser::AddDuelCancel
EXTRN	?AddDuelPartyStart@CUser@@QAEXPBDHPAKKH@Z:PROC	; CUser::AddDuelPartyStart
EXTRN	?AddSetState@CUser@@QAEXJJJJJ@Z:PROC		; CUser::AddSetState
EXTRN	?AddPlaySound@CUser@@QAEXK@Z:PROC		; CUser::AddPlaySound
EXTRN	?AddUpdateBankItem@CUser@@QAEXEEDK@Z:PROC	; CUser::AddUpdateBankItem
EXTRN	?AddSMMode@CUser@@QAEXHK@Z:PROC			; CUser::AddSMMode
EXTRN	?AddCommercialElem@CUser@@QAEXKH@Z:PROC		; CUser::AddCommercialElem
EXTRN	?AddSetTarget@CUser@@QAEXK@Z:PROC		; CUser::AddSetTarget
EXTRN	?AddSetDuel@CUser@@QAEXPAVCMover@@@Z:PROC	; CUser::AddSetDuel
EXTRN	?AddPKValue@CUser@@QAEXXZ:PROC			; CUser::AddPKValue
EXTRN	?AddSetCheerParam@CUser@@QAEXHKH@Z:PROC		; CUser::AddSetCheerParam
EXTRN	?AddSetExperience@CUser@@QAEX_JGHH0G@Z:PROC	; CUser::AddSetExperience
EXTRN	?AddPet@CUser@@QAEXPAVCPet@@E@Z:PROC		; CUser::AddPet
EXTRN	?AddPetState@CUser@@QAEXKGGK@Z:PROC		; CUser::AddPetState
EXTRN	?AddPetSetExp@CUser@@QAEXK@Z:PROC		; CUser::AddPetSetExp
EXTRN	?AddHonorListAck@CUser@@QAEXXZ:PROC		; CUser::AddHonorListAck
EXTRN	?GetUserByPlayerID@CUserMng@@QAEPAVCUser@@K@Z:PROC ; CUserMng::GetUserByPlayerID
EXTRN	?AddDoEquip@CUserMng@@QAEXPAVCMover@@HPAVCItemElem@@E@Z:PROC ; CUserMng::AddDoEquip
EXTRN	?AddVendor@CUserMng@@QAEXPAVCMover@@@Z:PROC	; CUserMng::AddVendor
EXTRN	?AddUpdateVendor@CUserMng@@QAEXPAVCMover@@DEF@Z:PROC ; CUserMng::AddUpdateVendor
EXTRN	?AddSetPointParam@CUserMng@@QAEXPAVCMover@@HH@Z:PROC ; CUserMng::AddSetPointParam
EXTRN	?AddSetLevel@CUserMng@@QAEXPAVCMover@@G@Z:PROC	; CUserMng::AddSetLevel
EXTRN	?AddSetFlightLevel@CUserMng@@QAEXPAVCMover@@H@Z:PROC ; CUserMng::AddSetFlightLevel
EXTRN	?AddMoverDeath@CUserMng@@QAEXPAVCMover@@0K@Z:PROC ; CUserMng::AddMoverDeath
EXTRN	?AddCreateSfxObj@CUserMng@@QAEXPAVCCtrl@@KMMMH@Z:PROC ; CUserMng::AddCreateSfxObj
EXTRN	?AddNearSetChangeJob@CUserMng@@QAEXPAVCMover@@HPAUtagSkill@@@Z:PROC ; CUserMng::AddNearSetChangeJob
EXTRN	?AddStateMode@CUserMng@@QAEXPAVCUser@@E@Z:PROC	; CUserMng::AddStateMode
EXTRN	?AddRemoveAllSkillInfluence@CUserMng@@QAEXPAVCMover@@@Z:PROC ; CUserMng::AddRemoveAllSkillInfluence
EXTRN	?AddPKPropensity@CUserMng@@QAEXPAVCMover@@@Z:PROC ; CUserMng::AddPKPropensity
EXTRN	?AddPetRelease@CUserMng@@QAEXPAVCMover@@@Z:PROC	; CUserMng::AddPetRelease
EXTRN	?AddPetLevelup@CUserMng@@QAEXPAVCMover@@K@Z:PROC ; CUserMng::AddPetLevelup
EXTRN	?AddHonorTitleChange@CUserMng@@QAEXPAVCMover@@H@Z:PROC ; CUserMng::AddHonorTitleChange
EXTRN	?AddSetSpeedFactor@CUserMng@@QAEXPAVCMover@@M@Z:PROC ; CUserMng::AddSetSpeedFactor
EXTRN	?GetWorld@CWorldMng@@QAEPAVCWorld@@K@Z:PROC	; CWorldMng::GetWorld
EXTRN	?OnLogItem@CDPSrvr@@QAEXAAU_LogItemInfo@@PAVCItemElem@@H@Z:PROC ; CDPSrvr::OnLogItem
EXTRN	?GetInstance@CInstanceDungeonHelper@@SAPAV1@XZ:PROC ; CInstanceDungeonHelper::GetInstance
EXTRN	?EnteranceDungeon@CInstanceDungeonHelper@@QAEHPAVCUser@@K@Z:PROC ; CInstanceDungeonHelper::EnteranceDungeon
EXTRN	?LeaveDungeon@CInstanceDungeonHelper@@QAEHPAVCUser@@K@Z:PROC ; CInstanceDungeonHelper::LeaveDungeon
EXTRN	?SetInstanceDungeonKill@CInstanceDungeonHelper@@QAEXKKK@Z:PROC ; CInstanceDungeonHelper::SetInstanceDungeonKill
EXTRN	?GetType@CInstanceDungeonHelper@@AAEHK@Z:PROC	; CInstanceDungeonHelper::GetType
EXTRN	?SendUserPartySkill@CDPCoreClient@@QAEXKHKHH@Z:PROC ; CDPCoreClient::SendUserPartySkill
EXTRN	?SendSetPartyDuel@CDPCoreClient@@QAEXKKH@Z:PROC	; CDPCoreClient::SendSetPartyDuel
EXTRN	?SendWarDead@CDPCoreClient@@QAEXK@Z:PROC	; CDPCoreClient::SendWarDead
EXTRN	?SendLogPlayDeath@CDPDatabaseClient@@QAEXPAVCMover@@0@Z:PROC ; CDPDatabaseClient::SendLogPlayDeath
EXTRN	?SendLogLevelUp@CDPDatabaseClient@@QAEXPAVCMover@@H@Z:PROC ; CDPDatabaseClient::SendLogLevelUp
EXTRN	?SendLogSMItemUse@CDPDatabaseClient@@QAEXPBDPAVCUser@@PAVCItemElem@@PAUItemProp@@0@Z:PROC ; CDPDatabaseClient::SendLogSMItemUse
EXTRN	?SendLogUniqueItem@CDPDatabaseClient@@QAEXPAVCMover@@PAVCItem@@H@Z:PROC ; CDPDatabaseClient::SendLogUniqueItem
EXTRN	?SendLogUniqueItem2@CDPDatabaseClient@@QAEXPAVCMover@@PAUItemProp@@H@Z:PROC ; CDPDatabaseClient::SendLogUniqueItem2
EXTRN	?SendLogPkPvp@CDPDatabaseClient@@QAEXPAVCMover@@0HD@Z:PROC ; CDPDatabaseClient::SendLogPkPvp
EXTRN	?SendUpdateGuildQuest@CDPDatabaseClient@@QAEXKHH@Z:PROC ; CDPDatabaseClient::SendUpdateGuildQuest
EXTRN	?CalluspPetLog@CDPDatabaseClient@@QAEXKKKHPAVCPet@@@Z:PROC ; CDPDatabaseClient::CalluspPetLog
EXTRN	?SendUpdatePlayerData@CDPDatabaseClient@@QAEXPAVCUser@@@Z:PROC ; CDPDatabaseClient::SendUpdatePlayerData
EXTRN	?SendLogGetHonorTime@CDPDatabaseClient@@QAEXPAVCMover@@H@Z:PROC ; CDPDatabaseClient::SendLogGetHonorTime
EXTRN	?GetItem@CEventGeneric@@QAEPAVCEventItem@@PAH@Z:PROC ; CEventGeneric::GetItem
EXTRN	?GetInstance@CEventGeneric@@SAPAV1@XZ:PROC	; CEventGeneric::GetInstance
EXTRN	?GetWar@CGuildWarMng@@QAEPAVCGuildWar@@K@Z:PROC	; CGuildWarMng::GetWar
EXTRN	?GetInstance@CEventMonster@@SAPAV1@XZ:PROC	; CEventMonster::GetInstance
EXTRN	?SetEventMonster@CEventMonster@@QAEHK@Z:PROC	; CEventMonster::SetEventMonster
EXTRN	?IsEventMonster@CEventMonster@@QAEHK@Z:PROC	; CEventMonster::IsEventMonster
EXTRN	?IsGiftBoxAble@CEventMonster@@QAEHXZ:PROC	; CEventMonster::IsGiftBoxAble
EXTRN	?GetItemDropRange@CEventMonster@@QAEMXZ:PROC	; CEventMonster::GetItemDropRange
EXTRN	?GetInstance@CCreateMonster@@SAPAV1@XZ:PROC	; CCreateMonster::GetInstance
EXTRN	?SetState@CCreateMonster@@QAEXKD@Z:PROC		; CCreateMonster::SetState
EXTRN	?RemoveInfo@CCreateMonster@@QAEXPAVCMover@@@Z:PROC ; CCreateMonster::RemoveInfo
EXTRN	?CanAdd@@YAHKH@Z:PROC				; CanAdd
EXTRN	@__security_check_cookie@4:PROC
EXTRN	__CxxThrowException@8:PROC
EXTRN	___CxxFrameHandler3:PROC
EXTRN	__alldiv:PROC
EXTRN	__allmul:PROC
EXTRN	__dtol3:PROC
EXTRN	__ftol3:PROC
EXTRN	__ltod3:PROC
EXTRN	__ltof3:PROC
EXTRN	_memcpy:PROC
EXTRN	_memmove:PROC
EXTRN	_memset:PROC
EXTRN	??_7type_info@@6B@:QWORD			; type_info::`vftable'
EXTRN	?g_next@@3KA:DWORD				; g_next
EXTRN	?m_pObjActive@CObj@@2PAV1@A:DWORD		; CObj::m_pObjActive
EXTRN	?m_bAnimate@CObj@@2HA:DWORD			; CObj::m_bAnimate
EXTRN	?m_fGoldDropRate@CProject@@2MA:DWORD		; CProject::m_fGoldDropRate
EXTRN	?prj@@3VCProject@@A:BYTE			; prj
EXTRN	?g_tmCurrent@@3KA:DWORD				; g_tmCurrent
EXTRN	?g_uIdofMulti@@3KA:DWORD			; g_uIdofMulti
EXTRN	?g_eLocal@@3VCFlyffEvent@@A:BYTE		; g_eLocal
EXTRN	?g_AddSMMode@@3U_ADDSMMODE@@A:BYTE		; g_AddSMMode
EXTRN	?g_GuildCombat1to1Mng@@3VCGuildCombat1to1Mng@@A:BYTE ; g_GuildCombat1to1Mng
EXTRN	?g_GuildCombatMng@@3VCGuildCombat@@A:BYTE	; g_GuildCombatMng
EXTRN	?g_UserMng@@3VCUserMng@@A:BYTE			; g_UserMng
EXTRN	?g_WorldMng@@3VCWorldMng@@A:BYTE		; g_WorldMng
EXTRN	?g_DPSrvr@@3VCDPSrvr@@A:BYTE			; g_DPSrvr
EXTRN	?g_dpDBClient@@3VCDPDatabaseClient@@A:BYTE	; g_dpDBClient
EXTRN	?g_DPCoreClient@@3VCDPCoreClient@@A:BYTE	; g_DPCoreClient
EXTRN	?g_PartyMng@@3VCPartyMng@@A:BYTE		; g_PartyMng
EXTRN	?g_GuildMng@@3VCGuildMng@@A:BYTE		; g_GuildMng
EXTRN	?g_GuildWarMng@@3VCGuildWarMng@@A:BYTE		; g_GuildWarMng
EXTRN	?r1@@3MA:DWORD					; r1
EXTRN	?r2@@3MA:DWORD					; r2
EXTRN	?r3@@3MA:DWORD					; r3
EXTRN	?r4@@3MA:DWORD					; r4
EXTRN	?r5@@3MA:DWORD					; r5
EXTRN	?r6@@3MA:DWORD					; r6
EXTRN	?r7@@3MA:DWORD					; r7
EXTRN	?r8@@3MA:DWORD					; r8
EXTRN	?r9@@3MA:DWORD					; r9
EXTRN	?r10@@3MA:DWORD					; r10
EXTRN	?r11@@3MA:DWORD					; r11
EXTRN	?g_bProfiling@@3HA:DWORD			; g_bProfiling
EXTRN	___security_cookie:DWORD
EXTRN	__fltused:DWORD
;	COMDAT ?_OptionsStorage@?1??__local_stdio_printf_options@@9@4_KA
_BSS	SEGMENT
?_OptionsStorage@?1??__local_stdio_printf_options@@9@4_KA DQ 01H DUP (?) ; `__local_stdio_printf_options'::`2'::_OptionsStorage
_BSS	ENDS
;	COMDAT __xmm@80000000800000008000000080000000
CONST	SEGMENT
__xmm@80000000800000008000000080000000 DB 00H, 00H, 00H, 080H, 00H, 00H, 00H
	DB	080H, 00H, 00H, 00H, 080H, 00H, 00H, 00H, 080H
CONST	ENDS
;	COMDAT __xmm@7fffffffffffffff7fffffffffffffff
CONST	SEGMENT
__xmm@7fffffffffffffff7fffffffffffffff DB 0ffH, 0ffH, 0ffH, 0ffH, 0ffH, 0ffH
	DB	0ffH, 07fH, 0ffH, 0ffH, 0ffH, 0ffH, 0ffH, 0ffH, 0ffH, 07fH
CONST	ENDS
;	COMDAT __xmm@41f00000000000000000000000000000
CONST	SEGMENT
__xmm@41f00000000000000000000000000000 DB 00H, 00H, 00H, 00H, 00H, 00H, 00H
	DB	00H, 00H, 00H, 00H, 00H, 00H, 00H, 0f0H, 'A'
CONST	ENDS
;	COMDAT __xmm@3ecccccd3f3333333f3333333f333333
CONST	SEGMENT
__xmm@3ecccccd3f3333333f3333333f333333 DB '333?333?333?', 0cdH, 0ccH, 0ccH
	DB	'>'
CONST	ENDS
;	COMDAT __xmm@3eb333333f19999a3f4ccccd3f4ccccd
CONST	SEGMENT
__xmm@3eb333333f19999a3f4ccccd3f4ccccd DB 0cdH, 0ccH, 'L?', 0cdH, 0ccH, 'L'
	DB	'?', 09aH, 099H, 019H, '?33', 0b3H, '>'
CONST	ENDS
;	COMDAT __xmm@3dcccccd3dcccccd3dcccccd3ecccccd
CONST	SEGMENT
__xmm@3dcccccd3dcccccd3dcccccd3ecccccd DB 0cdH, 0ccH, 0ccH, '>', 0cdH, 0ccH
	DB	0ccH, '=', 0cdH, 0ccH, 0ccH, '=', 0cdH, 0ccH, 0ccH, '='
CONST	ENDS
;	COMDAT __xmm@3d23d70a3da3d70a3df5c28f3e4ccccd
CONST	SEGMENT
__xmm@3d23d70a3da3d70a3df5c28f3e4ccccd DB 0cdH, 0ccH, 'L>', 08fH, 0c2H, 0f5H
	DB	'=', 0aH, 0d7H, 0a3H, '=', 0aH, 0d7H, '#='
CONST	ENDS
;	COMDAT __real@c0000000
CONST	SEGMENT
__real@c0000000 DD 0c0000000r			; -2
CONST	ENDS
;	COMDAT __real@ba83126f
CONST	SEGMENT
__real@ba83126f DD 0ba83126fr			; -0.001
CONST	ENDS
;	COMDAT __real@47c35000
CONST	SEGMENT
__real@47c35000 DD 047c35000r			; 100000
CONST	ENDS
;	COMDAT __real@461c4000
CONST	SEGMENT
__real@461c4000 DD 0461c4000r			; 10000
CONST	ENDS
;	COMDAT __real@447a0000
CONST	SEGMENT
__real@447a0000 DD 0447a0000r			; 1000
CONST	ENDS
;	COMDAT __real@437f0000
CONST	SEGMENT
__real@437f0000 DD 0437f0000r			; 255
CONST	ENDS
;	COMDAT __real@42c80000
CONST	SEGMENT
__real@42c80000 DD 042c80000r			; 100
CONST	ENDS
;	COMDAT __real@42700001
CONST	SEGMENT
__real@42700001 DD 042700001r			; 60
CONST	ENDS
;	COMDAT __real@42652ee0
CONST	SEGMENT
__real@42652ee0 DD 042652ee0r			; 57.2958
CONST	ENDS
;	COMDAT __real@41700000
CONST	SEGMENT
__real@41700000 DD 041700000r			; 15
CONST	ENDS
;	COMDAT __real@40800831
CONST	SEGMENT
__real@40800831 DD 040800831r			; 4.001
CONST	ENDS
;	COMDAT __real@4059000000000000
CONST	SEGMENT
__real@4059000000000000 DQ 04059000000000000r	; 100
CONST	ENDS
;	COMDAT __real@40400000
CONST	SEGMENT
__real@40400000 DD 040400000r			; 3
CONST	ENDS
;	COMDAT __real@400ccccd
CONST	SEGMENT
__real@400ccccd DD 0400ccccdr			; 2.2
CONST	ENDS
;	COMDAT __real@3ff8000000000000
CONST	SEGMENT
__real@3ff8000000000000 DQ 03ff8000000000000r	; 1.5
CONST	ENDS
;	COMDAT __real@3fe6666660000000
CONST	SEGMENT
__real@3fe6666660000000 DQ 03fe6666660000000r	; 0.7
CONST	ENDS
;	COMDAT __real@3fe66666
CONST	SEGMENT
__real@3fe66666 DD 03fe66666r			; 1.8
CONST	ENDS
;	COMDAT __real@3fd99999a0000000
CONST	SEGMENT
__real@3fd99999a0000000 DQ 03fd99999a0000000r	; 0.4
CONST	ENDS
;	COMDAT __real@3fc99999a0000000
CONST	SEGMENT
__real@3fc99999a0000000 DQ 03fc99999a0000000r	; 0.2
CONST	ENDS
;	COMDAT __real@3fc00000
CONST	SEGMENT
__real@3fc00000 DD 03fc00000r			; 1.5
CONST	ENDS
;	COMDAT __real@3fb99999a0000000
CONST	SEGMENT
__real@3fb99999a0000000 DQ 03fb99999a0000000r	; 0.1
CONST	ENDS
;	COMDAT __real@3f8ccccd
CONST	SEGMENT
__real@3f8ccccd DD 03f8ccccdr			; 1.1
CONST	ENDS
;	COMDAT __real@3f800000
CONST	SEGMENT
__real@3f800000 DD 03f800000r			; 1
CONST	ENDS
;	COMDAT __real@3f666666
CONST	SEGMENT
__real@3f666666 DD 03f666666r			; 0.9
CONST	ENDS
;	COMDAT __real@3f4ccccd
CONST	SEGMENT
__real@3f4ccccd DD 03f4ccccdr			; 0.8
CONST	ENDS
;	COMDAT __real@3f333333
CONST	SEGMENT
__real@3f333333 DD 03f333333r			; 0.7
CONST	ENDS
;	COMDAT __real@3f19db23
CONST	SEGMENT
__real@3f19db23 DD 03f19db23r			; 0.601
CONST	ENDS
;	COMDAT __real@3f19999a
CONST	SEGMENT
__real@3f19999a DD 03f19999ar			; 0.6
CONST	ENDS
;	COMDAT __real@3f000000
CONST	SEGMENT
__real@3f000000 DD 03f000000r			; 0.5
CONST	ENDS
;	COMDAT __real@3ecccccd
CONST	SEGMENT
__real@3ecccccd DD 03ecccccdr			; 0.4
CONST	ENDS
;	COMDAT __real@3eb0c6f7a0000000
CONST	SEGMENT
__real@3eb0c6f7a0000000 DQ 03eb0c6f7a0000000r	; 1e-06
CONST	ENDS
;	COMDAT __real@3e99999a
CONST	SEGMENT
__real@3e99999a DD 03e99999ar			; 0.3
CONST	ENDS
;	COMDAT __real@3dcccccd
CONST	SEGMENT
__real@3dcccccd DD 03dcccccdr			; 0.1
CONST	ENDS
;	COMDAT __real@3c8efa35
CONST	SEGMENT
__real@3c8efa35 DD 03c8efa35r			; 0.0174533
CONST	ENDS
;	COMDAT __real@00000000
CONST	SEGMENT
__real@00000000 DD 000000000r			; 0
CONST	ENDS
;	COMDAT ??_R2CObj@@8
rdata$r	SEGMENT
??_R2CObj@@8 DD	FLAT:??_R1A@?0A@EA@CObj@@8		; CObj::`RTTI Base Class Array'
rdata$r	ENDS
;	COMDAT ??_R3CObj@@8
rdata$r	SEGMENT
??_R3CObj@@8 DD	00H					; CObj::`RTTI Class Hierarchy Descriptor'
	DD	00H
	DD	01H
	DD	FLAT:??_R2CObj@@8
rdata$r	ENDS
;	COMDAT ??_R0?AVCObj@@@8
data$rs	SEGMENT
??_R0?AVCObj@@@8 DD FLAT:??_7type_info@@6B@		; CObj `RTTI Type Descriptor'
	DD	00H
	DB	'.?AVCObj@@', 00H
data$rs	ENDS
;	COMDAT ??_R1A@?0A@EA@CObj@@8
rdata$r	SEGMENT
??_R1A@?0A@EA@CObj@@8 DD FLAT:??_R0?AVCObj@@@8		; CObj::`RTTI Base Class Descriptor at (0,-1,0,64)'
	DD	00H
	DD	00H
	DD	0ffffffffH
	DD	00H
	DD	040H
	DD	FLAT:??_R3CObj@@8
rdata$r	ENDS
;	COMDAT ??_R2CCtrl@@8
rdata$r	SEGMENT
??_R2CCtrl@@8 DD FLAT:??_R1A@?0A@EA@CCtrl@@8		; CCtrl::`RTTI Base Class Array'
	DD	FLAT:??_R1A@?0A@EA@CObj@@8
rdata$r	ENDS
;	COMDAT ??_R3CCtrl@@8
rdata$r	SEGMENT
??_R3CCtrl@@8 DD 00H					; CCtrl::`RTTI Class Hierarchy Descriptor'
	DD	00H
	DD	02H
	DD	FLAT:??_R2CCtrl@@8
rdata$r	ENDS
;	COMDAT ??_R0?AVCCtrl@@@8
data$rs	SEGMENT
??_R0?AVCCtrl@@@8 DD FLAT:??_7type_info@@6B@		; CCtrl `RTTI Type Descriptor'
	DD	00H
	DB	'.?AVCCtrl@@', 00H
data$rs	ENDS
;	COMDAT ??_R1A@?0A@EA@CCtrl@@8
rdata$r	SEGMENT
??_R1A@?0A@EA@CCtrl@@8 DD FLAT:??_R0?AVCCtrl@@@8	; CCtrl::`RTTI Base Class Descriptor at (0,-1,0,64)'
	DD	01H
	DD	00H
	DD	0ffffffffH
	DD	00H
	DD	040H
	DD	FLAT:??_R3CCtrl@@8
rdata$r	ENDS
;	COMDAT ??_R1A@?0A@EA@CMover@@8
rdata$r	SEGMENT
??_R1A@?0A@EA@CMover@@8 DD FLAT:??_R0?AVCMover@@@8	; CMover::`RTTI Base Class Descriptor at (0,-1,0,64)'
	DD	02H
	DD	00H
	DD	0ffffffffH
	DD	00H
	DD	040H
	DD	FLAT:??_R3CMover@@8
rdata$r	ENDS
;	COMDAT ??_R2CMover@@8
rdata$r	SEGMENT
??_R2CMover@@8 DD FLAT:??_R1A@?0A@EA@CMover@@8		; CMover::`RTTI Base Class Array'
	DD	FLAT:??_R1A@?0A@EA@CCtrl@@8
	DD	FLAT:??_R1A@?0A@EA@CObj@@8
rdata$r	ENDS
;	COMDAT ??_R3CMover@@8
rdata$r	SEGMENT
??_R3CMover@@8 DD 00H					; CMover::`RTTI Class Hierarchy Descriptor'
	DD	00H
	DD	03H
	DD	FLAT:??_R2CMover@@8
rdata$r	ENDS
;	COMDAT ??_R0?AVCMover@@@8
data$rs	SEGMENT
??_R0?AVCMover@@@8 DD FLAT:??_7type_info@@6B@		; CMover `RTTI Type Descriptor'
	DD	00H
	DB	'.?AVCMover@@', 00H
data$rs	ENDS
;	COMDAT ??_R4CMover@@6B@
rdata$r	SEGMENT
??_R4CMover@@6B@ DD 00H					; CMover::`RTTI Complete Object Locator'
	DD	00H
	DD	00H
	DD	FLAT:??_R0?AVCMover@@@8
	DD	FLAT:??_R3CMover@@8
rdata$r	ENDS
;	COMDAT ??_C@_0EK@GINEPMCL@template?5?$DMclass?5T?$DO?5BOOL?5CItemCo@
CONST	SEGMENT
??_C@_0EK@GINEPMCL@template?5?$DMclass?5T?$DO?5BOOL?5CItemCo@ DB 'templat'
	DB	'e <class T> BOOL CItemContainer<T>::Add( T* pElem... : nNumtm'
	DB	'p > 0', 00H					; `string'
CONST	ENDS
;	COMDAT ??_C@_0BF@OJMCJNHH@GETEQUIP?1?1?$CFd?0?5?$CFd?0?5?$CFd@
CONST	SEGMENT
??_C@_0BF@OJMCJNHH@GETEQUIP?1?1?$CFd?0?5?$CFd?0?5?$CFd@ DB 'GETEQUIP//%d,'
	DB	' %d, %d', 00H				; `string'
CONST	ENDS
;	COMDAT ??_C@_0N@GELFDHNG@CONTAINER?1?10@
CONST	SEGMENT
??_C@_0N@GELFDHNG@CONTAINER?1?10@ DB 'CONTAINER//0', 00H ; `string'
CONST	ENDS
;	COMDAT ??_C@_0BF@JCJEOMMC@Mada_Guildcombatshop@
CONST	SEGMENT
??_C@_0BF@JCJEOMMC@Mada_Guildcombatshop@ DB 'Mada_Guildcombatshop', 00H ; `string'
CONST	ENDS
;	COMDAT ??_C@_0BB@KDNJAMCD@MaFl_InstantBank@
CONST	SEGMENT
??_C@_0BB@KDNJAMCD@MaFl_InstantBank@ DB 'MaFl_InstantBank', 00H ; `string'
CONST	ENDS
;	COMDAT ??_C@_0CI@KNPKHBCH@CMover?4SetIndex?3?5property?5not?5f@
CONST	SEGMENT
??_C@_0CI@KNPKHBCH@CMover?4SetIndex?3?5property?5not?5f@ DB 'CMover.SetIn'
	DB	'dex: property not found: %d', 00H		; `string'
CONST	ENDS
;	COMDAT ?adwParts@?1??GetSetItemClient@CMover@@QAEHXZ@4PAKA
_DATA	SEGMENT
?adwParts@?1??GetSetItemClient@CMover@@QAEHXZ@4PAKA DD 02H ; `CMover::GetSetItemClient'::`2'::adwParts
	DD	04H
	DD	05H
	DD	06H
_DATA	ENDS
;	COMDAT ?adwParts@?1??GetSetItem@CMover@@QAEHPAVCItemElem@@@Z@4PAKA
_DATA	SEGMENT
?adwParts@?1??GetSetItem@CMover@@QAEHPAVCItemElem@@@Z@4PAKA DD 02H ; `CMover::GetSetItem'::`2'::adwParts
	DD	04H
	DD	05H
	DD	06H
_DATA	ENDS
;	COMDAT ??_C@_0DI@INFIKGCE@CMover?3?3ProcessRecovery?5?3?5?F?D?F?$LM?$LI@
CONST	SEGMENT
??_C@_0DI@INFIKGCE@CMover?3?3ProcessRecovery?5?3?5?F?D?F?$LM?$LI@ DB 'CMo'
	DB	'ver::ProcessRecovery : ', 0c6H, 0c4H, 0c6H, 0bcH, 0b8H, 0e2H, 0b9H
	DB	0f6H, ' %s', 0c0H, 0c7H, ' ', 0c1H, 0a4H, 0baH, 0b8H, 0c0H, 0ccH
	DB	0bbH, 0f3H, '. %d %d', 00H			; `string'
CONST	ENDS
;	COMDAT ??_C@_0BC@KLIJBLJI@Error?5Party?5PVP?52@
CONST	SEGMENT
??_C@_0BC@KLIJBLJI@Error?5Party?5PVP?52@ DB 'Error Party PVP 2', 00H ; `string'
CONST	ENDS
;	COMDAT ??_C@_0BC@GMPPNNKE@DropItem?3?54th?5?$CFs?6@
CONST	SEGMENT
??_C@_0BC@GMPPNNKE@DropItem?3?54th?5?$CFs?6@ DB 'DropItem: 4th %s', 0aH, 00H ; `string'
CONST	ENDS
;	COMDAT ??_C@_0BC@HCCICBPM@DropItem?3?53rd?5?$CFs?6@
CONST	SEGMENT
??_C@_0BC@HCCICBPM@DropItem?3?53rd?5?$CFs?6@ DB 'DropItem: 3rd %s', 0aH, 00H ; `string'
CONST	ENDS
;	COMDAT ??_C@_0BB@GKOBFBHJ@DropItem?32nd?5?$CFs?6@
CONST	SEGMENT
??_C@_0BB@GKOBFBHJ@DropItem?32nd?5?$CFs?6@ DB 'DropItem:2nd %s', 0aH, 00H ; `string'
CONST	ENDS
;	COMDAT ??_C@_05GFPLGFAD@QUEST@
CONST	SEGMENT
??_C@_05GFPLGFAD@QUEST@ DB 'QUEST', 00H			; `string'
CONST	ENDS
;	COMDAT ??_C@_01BNIGIBBF@Q@
CONST	SEGMENT
??_C@_01BNIGIBBF@Q@ DB 'Q', 00H				; `string'
CONST	ENDS
;	COMDAT ??_C@_0BB@OBLBKJAP@DropItem?31st?5?$CFs?6@
CONST	SEGMENT
??_C@_0BB@OBLBKJAP@DropItem?31st?5?$CFs?6@ DB 'DropItem:1st %s', 0aH, 00H ; `string'
CONST	ENDS
;	COMDAT ??_C@_0M@MLDFCOHI@?$CFs?0?5?$CFd?$AN?6?7?$CFs@
CONST	SEGMENT
??_C@_0M@MLDFCOHI@?$CFs?0?5?$CFd?$AN?6?7?$CFs@ DB '%s, %d', 0dH, 0aH, 09H
	DB	'%s', 00H					; `string'
CONST	ENDS
;	COMDAT ??_C@_0DO@NBLMDEFK@CMover?3?3DropItem?5?3?5?$CFs?$MA?G?5quest?5i@
CONST	SEGMENT
??_C@_0DO@NBLMDEFK@CMover?3?3DropItem?5?3?5?$CFs?$MA?G?5quest?5i@ DB 'CMo'
	DB	'ver::DropItem : %s', 0c0H, 0c7H, ' quest item drop %d', 0b9H, 0f8H
	DB	0c2H, 0b0H, 0c0H, 0c7H, ' dwNumber', 0b0H, 0a1H, ' 0', 00H ; `string'
CONST	ENDS
;	COMDAT ??_C@_04OEDFLLKD@?$CC?$CFs?$CC@
CONST	SEGMENT
??_C@_04OEDFLLKD@?$CC?$CFs?$CC@ DB '"%s"', 00H		; `string'
CONST	ENDS
;	COMDAT ??_C@_0DI@CPBNLHCB@CMover?3?3AddExperienceKillMember@
CONST	SEGMENT
??_C@_0DI@CPBNLHCB@CMover?3?3AddExperienceKillMember@ DB 'CMover::AddExpe'
	DB	'rienceKillMember - enemy size is too big', 00H ; `string'
CONST	ENDS
;	COMDAT ??_C@_0CM@DAIOHLBA@CMover?3?3SubAroundExp?5?$CFs?A?V?$MA?$KH?$LP?$KB?5?$MA@
CONST	SEGMENT
??_C@_0CM@DAIOHLBA@CMover?3?3SubAroundExp?5?$CFs?A?V?$MA?$KH?$LP?$KB?5?$MA@ DB 'C'
	DB	'Mover::SubAroundExp %s', 0c1H, 0d6H, 0c0H, 0a7H, 0bfH, 0a1H, ' '
	DB	0c0H, 0afH, 0c0H, 0faH, 0b0H, 0a1H, ' ', 0beH, 0f8H, 0b4H, 0d9H
	DB	'. ', 00H					; `string'
CONST	ENDS
;	COMDAT ??_C@_0DJ@JPAOJJCH@CMover?3?3DoDie?5?3?5?$CFs?5?A?W?$MA?$LK?5?H?D?55?C?J?$MA@
CONST	SEGMENT
??_C@_0DJ@JPAOJJCH@CMover?3?3DoDie?5?3?5?$CFs?5?A?W?$MA?$LK?5?H?D?55?C?J?$MA@ DB 'C'
	DB	'Mover::DoDie : %s ', 0c1H, 0d7H, 0c0H, 0baH, ' ', 0c8H, 0c4H, ' '
	DB	'5', 0c3H, 0caH, 0c0H, 0ccH, 0b3H, 0bbH, ' ', 0b6H, 0c7H, 0c1H
	DB	0d7H, 0beH, 0faH, 0b4H, 0d9H, '. ', 0b5H, 0ceH, 0b9H, 0f8H, 0c1H
	DB	0d7H, 0c0H, 0baH, 0b5H, 0edH, '?', 00H	; `string'
CONST	ENDS
;	COMDAT ??_C@_0BK@LHMHCJIN@VENDORITEM?1?1?$CFs?1?1?$CFd?9?$CFd?1?1?$CFd@
CONST	SEGMENT
??_C@_0BK@LHMHCJIN@VENDORITEM?1?1?$CFs?1?1?$CFd?9?$CFd?1?1?$CFd@ DB 'VEND'
	DB	'ORITEM//%s//%d-%d//%d', 00H			; `string'
CONST	ENDS
;	COMDAT ??_C@_04HIBGFPH@NULL@
CONST	SEGMENT
??_C@_04HIBGFPH@NULL@ DB 'NULL', 00H			; `string'
CONST	ENDS
;	COMDAT ??_C@_08DHHJCFN@?$CFs?5?9?$DO?5?$CFs@
CONST	SEGMENT
??_C@_08DHHJCFN@?$CFs?5?9?$DO?5?$CFs@ DB '%s -> %s', 00H ; `string'
CONST	ENDS
;	COMDAT ??_C@_0O@MHDAMNKL@?$CFs?5?9?$DO?5?$CFs?5?$CI?$CFd?$CJ@
CONST	SEGMENT
??_C@_0O@MHDAMNKL@?$CFs?5?9?$DO?5?$CFs?5?$CI?$CFd?$CJ@ DB '%s -> %s (%d)', 00H ; `string'
CONST	ENDS
;	COMDAT ??_C@_06GKBINIEJ@GROUND@
CONST	SEGMENT
??_C@_06GKBINIEJ@GROUND@ DB 'GROUND', 00H		; `string'
CONST	ENDS
;	COMDAT ??_C@_0BM@DJOBMMBA@_DropItemNPC?5SetIndex?3?5?$CFs?5?6@
CONST	SEGMENT
??_C@_0BM@DJOBMMBA@_DropItemNPC?5SetIndex?3?5?$CFs?5?6@ DB '_DropItemNPC '
	DB	'SetIndex: %s ', 0aH, 00H			; `string'
CONST	ENDS
;	COMDAT ??_C@_0BA@JHAHCNL@Layer?5not?5found@
CONST	SEGMENT
??_C@_0BA@JHAHCNL@Layer?5not?5found@ DB 'Layer not found', 00H ; `string'
CONST	ENDS
;	COMDAT ??_C@_0CN@PNJJIPNG@CMover?3?3InitProp?5?9?5GetProp?$CI?$CFd?$CJ?5@
CONST	SEGMENT
??_C@_0CN@PNJJIPNG@CMover?3?3InitProp?5?9?5GetProp?$CI?$CFd?$CJ?5@ DB 'CM'
	DB	'over::InitProp - GetProp(%d) return NULL ', 0aH, 00H ; `string'
CONST	ENDS
;	COMDAT ??_C@_0CE@BCHAFDDG@chip?5cost?5?$DM?51?5?3?5npc?5?$DN?5?$CFs?0?5item?5@
CONST	SEGMENT
??_C@_0CE@BCHAFDDG@chip?5cost?5?$DM?51?5?3?5npc?5?$DN?5?$CFs?0?5item?5@ DB 'c'
	DB	'hip cost < 1 : npc = %s, item = %d', 00H	; `string'
CONST	ENDS
;	COMDAT ??_C@_05IGCLJAHD@?$CDauto@
CONST	SEGMENT
??_C@_05IGCLJAHD@?$CDauto@ DB '#auto', 00H		; `string'
CONST	ENDS
;	COMDAT ??_C@_0DD@MGHDMDJO@?$CFs?0?5?$CFd?$AN?6?7No?5SMItem?5dwSMItemID?$FL?$CF@
CONST	SEGMENT
??_C@_0DD@MGHDMDJO@?$CFs?0?5?$CFd?$AN?6?7No?5SMItem?5dwSMItemID?$FL?$CF@ DB '%'
	DB	's, %d', 0dH, 0aH, 09H, 'No SMItem dwSMItemID[%d] : %d / Name '
	DB	': %s', 00H					; `string'
CONST	ENDS
;	COMDAT ??_C@_0DE@DNIPOEAF@C?3?2IAGOS?2server?2v18?2Source?2Sour@
CONST	SEGMENT
??_C@_0DE@DNIPOEAF@C?3?2IAGOS?2server?2v18?2Source?2Sour@ DB 'C:\IAGOS\se'
	DB	'rver\v18\Source\Source\_common\mover.cpp', 00H ; `string'
CONST	ENDS
;	COMDAT ??_C@_01FDFGLJHB@2@
CONST	SEGMENT
??_C@_01FDFGLJHB@2@ DB '2', 00H				; `string'
CONST	ENDS
;	COMDAT ??_R1A@?0A@EA@?$CItemContainer@VCItemElem@@@@8
rdata$r	SEGMENT
??_R1A@?0A@EA@?$CItemContainer@VCItemElem@@@@8 DD FLAT:??_R0?AV?$CItemContainer@VCItemElem@@@@@8 ; CItemContainer<CItemElem>::`RTTI Base Class Descriptor at (0,-1,0,64)'
	DD	00H
	DD	00H
	DD	0ffffffffH
	DD	00H
	DD	040H
	DD	FLAT:??_R3?$CItemContainer@VCItemElem@@@@8
rdata$r	ENDS
;	COMDAT ??_R2?$CItemContainer@VCItemElem@@@@8
rdata$r	SEGMENT
??_R2?$CItemContainer@VCItemElem@@@@8 DD FLAT:??_R1A@?0A@EA@?$CItemContainer@VCItemElem@@@@8 ; CItemContainer<CItemElem>::`RTTI Base Class Array'
rdata$r	ENDS
;	COMDAT ??_R3?$CItemContainer@VCItemElem@@@@8
rdata$r	SEGMENT
??_R3?$CItemContainer@VCItemElem@@@@8 DD 00H		; CItemContainer<CItemElem>::`RTTI Class Hierarchy Descriptor'
	DD	00H
	DD	01H
	DD	FLAT:??_R2?$CItemContainer@VCItemElem@@@@8
rdata$r	ENDS
;	COMDAT ??_R0?AV?$CItemContainer@VCItemElem@@@@@8
data$rs	SEGMENT
??_R0?AV?$CItemContainer@VCItemElem@@@@@8 DD FLAT:??_7type_info@@6B@ ; CItemContainer<CItemElem> `RTTI Type Descriptor'
	DD	00H
	DB	'.?AV?$CItemContainer@VCItemElem@@@@', 00H
data$rs	ENDS
;	COMDAT ??_R4?$CItemContainer@VCItemElem@@@@6B@
rdata$r	SEGMENT
??_R4?$CItemContainer@VCItemElem@@@@6B@ DD 00H		; CItemContainer<CItemElem>::`RTTI Complete Object Locator'
	DD	00H
	DD	00H
	DD	FLAT:??_R0?AV?$CItemContainer@VCItemElem@@@@@8
	DD	FLAT:??_R3?$CItemContainer@VCItemElem@@@@8
rdata$r	ENDS
;	COMDAT ??_R1A@?0A@EA@CTimer@@8
rdata$r	SEGMENT
??_R1A@?0A@EA@CTimer@@8 DD FLAT:??_R0?AVCTimer@@@8	; CTimer::`RTTI Base Class Descriptor at (0,-1,0,64)'
	DD	00H
	DD	00H
	DD	0ffffffffH
	DD	00H
	DD	040H
	DD	FLAT:??_R3CTimer@@8
rdata$r	ENDS
;	COMDAT ??_R2CTimer@@8
rdata$r	SEGMENT
??_R2CTimer@@8 DD FLAT:??_R1A@?0A@EA@CTimer@@8		; CTimer::`RTTI Base Class Array'
rdata$r	ENDS
;	COMDAT ??_R3CTimer@@8
rdata$r	SEGMENT
??_R3CTimer@@8 DD 00H					; CTimer::`RTTI Class Hierarchy Descriptor'
	DD	00H
	DD	01H
	DD	FLAT:??_R2CTimer@@8
rdata$r	ENDS
;	COMDAT ??_R0?AVCTimer@@@8
data$rs	SEGMENT
??_R0?AVCTimer@@@8 DD FLAT:??_7type_info@@6B@		; CTimer `RTTI Type Descriptor'
	DD	00H
	DB	'.?AVCTimer@@', 00H
data$rs	ENDS
;	COMDAT ??_R4CTimer@@6B@
rdata$r	SEGMENT
??_R4CTimer@@6B@ DD 00H					; CTimer::`RTTI Complete Object Locator'
	DD	00H
	DD	00H
	DD	FLAT:??_R0?AVCTimer@@@8
	DD	FLAT:??_R3CTimer@@8
rdata$r	ENDS
;	COMDAT ??_R4bad_alloc@std@@6B@
rdata$r	SEGMENT
??_R4bad_alloc@std@@6B@ DD 00H				; std::bad_alloc::`RTTI Complete Object Locator'
	DD	00H
	DD	00H
	DD	FLAT:??_R0?AVbad_alloc@std@@@8
	DD	FLAT:??_R3bad_alloc@std@@8
rdata$r	ENDS
;	COMDAT ??_R2bad_alloc@std@@8
rdata$r	SEGMENT
??_R2bad_alloc@std@@8 DD FLAT:??_R1A@?0A@EA@bad_alloc@std@@8 ; std::bad_alloc::`RTTI Base Class Array'
	DD	FLAT:??_R1A@?0A@EA@exception@std@@8
rdata$r	ENDS
;	COMDAT ??_R3bad_alloc@std@@8
rdata$r	SEGMENT
??_R3bad_alloc@std@@8 DD 00H				; std::bad_alloc::`RTTI Class Hierarchy Descriptor'
	DD	00H
	DD	02H
	DD	FLAT:??_R2bad_alloc@std@@8
rdata$r	ENDS
;	COMDAT ??_R1A@?0A@EA@bad_alloc@std@@8
rdata$r	SEGMENT
??_R1A@?0A@EA@bad_alloc@std@@8 DD FLAT:??_R0?AVbad_alloc@std@@@8 ; std::bad_alloc::`RTTI Base Class Descriptor at (0,-1,0,64)'
	DD	01H
	DD	00H
	DD	0ffffffffH
	DD	00H
	DD	040H
	DD	FLAT:??_R3bad_alloc@std@@8
rdata$r	ENDS
;	COMDAT ??_R1A@?0A@EA@bad_array_new_length@std@@8
rdata$r	SEGMENT
??_R1A@?0A@EA@bad_array_new_length@std@@8 DD FLAT:??_R0?AVbad_array_new_length@std@@@8 ; std::bad_array_new_length::`RTTI Base Class Descriptor at (0,-1,0,64)'
	DD	02H
	DD	00H
	DD	0ffffffffH
	DD	00H
	DD	040H
	DD	FLAT:??_R3bad_array_new_length@std@@8
rdata$r	ENDS
;	COMDAT ??_R2bad_array_new_length@std@@8
rdata$r	SEGMENT
??_R2bad_array_new_length@std@@8 DD FLAT:??_R1A@?0A@EA@bad_array_new_length@std@@8 ; std::bad_array_new_length::`RTTI Base Class Array'
	DD	FLAT:??_R1A@?0A@EA@bad_alloc@std@@8
	DD	FLAT:??_R1A@?0A@EA@exception@std@@8
rdata$r	ENDS
;	COMDAT ??_R3bad_array_new_length@std@@8
rdata$r	SEGMENT
??_R3bad_array_new_length@std@@8 DD 00H			; std::bad_array_new_length::`RTTI Class Hierarchy Descriptor'
	DD	00H
	DD	03H
	DD	FLAT:??_R2bad_array_new_length@std@@8
rdata$r	ENDS
;	COMDAT ??_R4bad_array_new_length@std@@6B@
rdata$r	SEGMENT
??_R4bad_array_new_length@std@@6B@ DD 00H		; std::bad_array_new_length::`RTTI Complete Object Locator'
	DD	00H
	DD	00H
	DD	FLAT:??_R0?AVbad_array_new_length@std@@@8
	DD	FLAT:??_R3bad_array_new_length@std@@8
rdata$r	ENDS
;	COMDAT ??_R1A@?0A@EA@exception@std@@8
rdata$r	SEGMENT
??_R1A@?0A@EA@exception@std@@8 DD FLAT:??_R0?AVexception@std@@@8 ; std::exception::`RTTI Base Class Descriptor at (0,-1,0,64)'
	DD	00H
	DD	00H
	DD	0ffffffffH
	DD	00H
	DD	040H
	DD	FLAT:??_R3exception@std@@8
rdata$r	ENDS
;	COMDAT ??_R2exception@std@@8
rdata$r	SEGMENT
??_R2exception@std@@8 DD FLAT:??_R1A@?0A@EA@exception@std@@8 ; std::exception::`RTTI Base Class Array'
rdata$r	ENDS
;	COMDAT ??_R3exception@std@@8
rdata$r	SEGMENT
??_R3exception@std@@8 DD 00H				; std::exception::`RTTI Class Hierarchy Descriptor'
	DD	00H
	DD	01H
	DD	FLAT:??_R2exception@std@@8
rdata$r	ENDS
;	COMDAT ??_R4exception@std@@6B@
rdata$r	SEGMENT
??_R4exception@std@@6B@ DD 00H				; std::exception::`RTTI Complete Object Locator'
	DD	00H
	DD	00H
	DD	FLAT:??_R0?AVexception@std@@@8
	DD	FLAT:??_R3exception@std@@8
rdata$r	ENDS
;	COMDAT ??_C@_0BA@FOIKENOD@vector?5too?5long@
CONST	SEGMENT
??_C@_0BA@FOIKENOD@vector?5too?5long@ DB 'vector too long', 00H ; `string'
CONST	ENDS
;	COMDAT ??_7CMover@@6B@
CONST	SEGMENT
??_7CMover@@6B@ DD FLAT:??_R4CMover@@6B@		; CMover::`vftable'
	DD	FLAT:??_ECMover@@UAEPAXI@Z
	DD	FLAT:?SetMotion@CMover@@UAEHKHK@Z
	DD	FLAT:?InitMotion@CMover@@UAEHK@Z
	DD	FLAT:?LoadModel@CMover@@UAEPAVCModel@@PAUIDirect3DDevice9@@KK@Z
	DD	FLAT:?InitProp@CMover@@UAEXH@Z
	DD	FLAT:?GetName@CObj@@UAEPBDXZ
	DD	FLAT:?Process@CMover@@UAEXXZ
	DD	FLAT:?Read@CMover@@UAEHPAVCFileIO@@@Z
	DD	FLAT:?Serialize@CMover@@UAEXAAVCAr@@@Z
	DD	FLAT:?Render@CCtrl@@UAEXPAUIDirect3DDevice9@@@Z
	DD	FLAT:?RenderName@CObj@@UAEXPAUIDirect3DDevice9@@PAVCD3DFont@@K@Z
	DD	FLAT:?SetIndex@CObj@@UAEHPAUIDirect3DDevice9@@KH@Z
	DD	FLAT:?GetSkillProp@CMover@@UAEHPAPAUItemProp@@PAPAUAddSkillProp@@HKPBD@Z
	DD	FLAT:?SendDamage@CMover@@UAEHKKHH@Z
	DD	FLAT:?SendDamageForce@CMover@@UAEHKKHH@Z
	DD	FLAT:?AddItToGlobalId@CCtrl@@UAEXXZ
	DD	FLAT:?RemoveItFromGlobalId@CCtrl@@UAEXXZ
	DD	FLAT:?ProcessCollecting@CMover@@UAEXXZ
	DD	FLAT:?StartCollecting@CMover@@UAEXXZ
	DD	FLAT:?StopCollecting@CMover@@UAEXXZ
	DD	FLAT:?SetIndex@CMover@@UAEHPAUIDirect3DDevice9@@KHH@Z
CONST	ENDS
;	COMDAT ??_7?$CItemContainer@VCItemElem@@@@6B@
CONST	SEGMENT
??_7?$CItemContainer@VCItemElem@@@@6B@ DD FLAT:??_R4?$CItemContainer@VCItemElem@@@@6B@ ; CItemContainer<CItemElem>::`vftable'
	DD	FLAT:??_E?$CItemContainer@VCItemElem@@@@UAEPAXI@Z
CONST	ENDS
;	COMDAT ??_C@_05KKCIMGE@error@
CONST	SEGMENT
??_C@_05KKCIMGE@error@ DB 'error', 00H			; `string'
CONST	ENDS
;	COMDAT ??_C@_0BE@OHDBLHOM@GetText?5range_error@
CONST	SEGMENT
??_C@_0BE@OHDBLHOM@GetText?5range_error@ DB 'GetText range_error', 00H ; `string'
CONST	ENDS
;	COMDAT ??_C@_0BJ@GKPOBPPI@GetMoverProp?5range_error@
CONST	SEGMENT
??_C@_0BJ@GKPOBPPI@GetMoverProp?5range_error@ DB 'GetMoverProp range_erro'
	DB	'r', 00H					; `string'
CONST	ENDS
;	COMDAT ??_C@_0BJ@GPNGCFMK@GetSkillProp?5range_error@
CONST	SEGMENT
??_C@_0BJ@GPNGCFMK@GetSkillProp?5range_error@ DB 'GetSkillProp range_erro'
	DB	'r', 00H					; `string'
CONST	ENDS
;	COMDAT ??_C@_0BI@BEIFNGEL@GetItemProp?5range_error@
CONST	SEGMENT
??_C@_0BI@BEIFNGEL@GetItemProp?5range_error@ DB 'GetItemProp range_error', 00H ; `string'
CONST	ENDS
;	COMDAT ??_C@_0BM@HMFGHCP@?$CFs?5min?3?$CFd?0?5max?3?$CFd?0?5index?3?$CFd@
CONST	SEGMENT
??_C@_0BM@HMFGHCP@?$CFs?5min?3?$CFd?0?5max?3?$CFd?0?5index?3?$CFd@ DB '%s'
	DB	' min:%d, max:%d, index:%d', 00H		; `string'
CONST	ENDS
;	COMDAT ??_C@_05CJBACGMB@hello@
CONST	SEGMENT
??_C@_05CJBACGMB@hello@ DB 'hello', 00H			; `string'
CONST	ENDS
;	COMDAT ??_7CTimer@@6B@
CONST	SEGMENT
??_7CTimer@@6B@ DD FLAT:??_R4CTimer@@6B@		; CTimer::`vftable'
	DD	FLAT:??_ECTimer@@UAEPAXI@Z
	DD	FLAT:?Reset@CTimer@@UAEXXZ
	DD	FLAT:?Over@CTimer@@UAEHXZ
CONST	ENDS
;	COMDAT ??_C@_0BB@GCADKGJO@map?1set?5too?5long@
CONST	SEGMENT
??_C@_0BB@GCADKGJO@map?1set?5too?5long@ DB 'map/set too long', 00H ; `string'
CONST	ENDS
;	COMDAT __CT??_R0?AVbad_alloc@std@@@8??0bad_alloc@std@@QAE@ABV01@@Z12
xdata$x	SEGMENT
__CT??_R0?AVbad_alloc@std@@@8??0bad_alloc@std@@QAE@ABV01@@Z12 DD 010H
	DD	FLAT:??_R0?AVbad_alloc@std@@@8
	DD	00H
	DD	0ffffffffH
	ORG $+4
	DD	0cH
	DD	FLAT:??0bad_alloc@std@@QAE@ABV01@@Z
xdata$x	ENDS
;	COMDAT ??_R0?AVbad_alloc@std@@@8
data$r	SEGMENT
??_R0?AVbad_alloc@std@@@8 DD FLAT:??_7type_info@@6B@	; std::bad_alloc `RTTI Type Descriptor'
	DD	00H
	DB	'.?AVbad_alloc@std@@', 00H
data$r	ENDS
;	COMDAT __CT??_R0?AVbad_array_new_length@std@@@8??0bad_array_new_length@std@@QAE@ABV01@@Z12
xdata$x	SEGMENT
__CT??_R0?AVbad_array_new_length@std@@@8??0bad_array_new_length@std@@QAE@ABV01@@Z12 DD 00H
	DD	FLAT:??_R0?AVbad_array_new_length@std@@@8
	DD	00H
	DD	0ffffffffH
	ORG $+4
	DD	0cH
	DD	FLAT:??0bad_array_new_length@std@@QAE@ABV01@@Z
xdata$x	ENDS
;	COMDAT ??_R0?AVbad_array_new_length@std@@@8
data$r	SEGMENT
??_R0?AVbad_array_new_length@std@@@8 DD FLAT:??_7type_info@@6B@ ; std::bad_array_new_length `RTTI Type Descriptor'
	DD	00H
	DB	'.?AVbad_array_new_length@std@@', 00H
data$r	ENDS
;	COMDAT __CTA3?AVbad_array_new_length@std@@
xdata$x	SEGMENT
__CTA3?AVbad_array_new_length@std@@ DD 03H
	DD	FLAT:__CT??_R0?AVbad_array_new_length@std@@@8??0bad_array_new_length@std@@QAE@ABV01@@Z12
	DD	FLAT:__CT??_R0?AVbad_alloc@std@@@8??0bad_alloc@std@@QAE@ABV01@@Z12
	DD	FLAT:__CT??_R0?AVexception@std@@@8??0exception@std@@QAE@ABV01@@Z12
xdata$x	ENDS
;	COMDAT __TI3?AVbad_array_new_length@std@@
xdata$x	SEGMENT
__TI3?AVbad_array_new_length@std@@ DD 00H
	DD	FLAT:??1bad_array_new_length@std@@UAE@XZ
	DD	00H
	DD	FLAT:__CTA3?AVbad_array_new_length@std@@
xdata$x	ENDS
;	COMDAT __CT??_R0?AVexception@std@@@8??0exception@std@@QAE@ABV01@@Z12
xdata$x	SEGMENT
__CT??_R0?AVexception@std@@@8??0exception@std@@QAE@ABV01@@Z12 DD 00H
	DD	FLAT:??_R0?AVexception@std@@@8
	DD	00H
	DD	0ffffffffH
	ORG $+4
	DD	0cH
	DD	FLAT:??0exception@std@@QAE@ABV01@@Z
xdata$x	ENDS
;	COMDAT ??_R0?AVexception@std@@@8
data$r	SEGMENT
??_R0?AVexception@std@@@8 DD FLAT:??_7type_info@@6B@	; std::exception `RTTI Type Descriptor'
	DD	00H
	DB	'.?AVexception@std@@', 00H
data$r	ENDS
;	COMDAT ??_C@_0BF@KINCDENJ@bad?5array?5new?5length@
CONST	SEGMENT
??_C@_0BF@KINCDENJ@bad?5array?5new?5length@ DB 'bad array new length', 00H ; `string'
CONST	ENDS
;	COMDAT ??_7bad_array_new_length@std@@6B@
CONST	SEGMENT
??_7bad_array_new_length@std@@6B@ DD FLAT:??_R4bad_array_new_length@std@@6B@ ; std::bad_array_new_length::`vftable'
	DD	FLAT:??_Ebad_array_new_length@std@@UAEPAXI@Z
	DD	FLAT:?what@exception@std@@UBEPBDXZ
CONST	ENDS
;	COMDAT ??_7bad_alloc@std@@6B@
CONST	SEGMENT
??_7bad_alloc@std@@6B@ DD FLAT:??_R4bad_alloc@std@@6B@	; std::bad_alloc::`vftable'
	DD	FLAT:??_Ebad_alloc@std@@UAEPAXI@Z
	DD	FLAT:?what@exception@std@@UBEPBDXZ
CONST	ENDS
;	COMDAT ??_C@_0BC@EOODALEL@Unknown?5exception@
CONST	SEGMENT
??_C@_0BC@EOODALEL@Unknown?5exception@ DB 'Unknown exception', 00H ; `string'
CONST	ENDS
;	COMDAT ??_7exception@std@@6B@
CONST	SEGMENT
??_7exception@std@@6B@ DD FLAT:??_R4exception@std@@6B@	; std::exception::`vftable'
	DD	FLAT:??_Eexception@std@@UAEPAXI@Z
	DD	FLAT:?what@exception@std@@UBEPBDXZ
CONST	ENDS
;	COMDAT ??_C@_00CNPNBAHC@@
CONST	SEGMENT
??_C@_00CNPNBAHC@@ DB 00H				; `string'
CONST	ENDS
;	COMDAT ??_C@_01CKDDGHAB@D@
CONST	SEGMENT
??_C@_01CKDDGHAB@D@ DB 'D', 00H				; `string'
CONST	ENDS
;	COMDAT xdata$x
xdata$x	SEGMENT
__unwindtable$??$?0U?$pair@KUHIT_INFO@@@std@@@?$_Tree_temp_node@V?$allocator@U?$_Tree_node@U?$pair@$$CBKUHIT_INFO@@@std@@PAX@std@@@std@@@std@@QAE@AAV?$allocator@U?$_Tree_node@U?$pair@$$CBKUHIT_INFO@@@std@@PAX@std@@@1@PAU?$_Tree_node@U?$pair@$$CBKUHIT_INFO@@@std@@PAX@1@$$QAU?$pair@KUHIT_INFO@@@1@@Z DD 0ffffffffH
	DD	FLAT:__unwindfunclet$??$?0U?$pair@KUHIT_INFO@@@std@@@?$_Tree_temp_node@V?$allocator@U?$_Tree_node@U?$pair@$$CBKUHIT_INFO@@@std@@PAX@std@@@std@@@std@@QAE@AAV?$allocator@U?$_Tree_node@U?$pair@$$CBKUHIT_INFO@@@std@@PAX@std@@@1@PAU?$_Tree_node@U?$pair@$$CBKUHIT_INFO@@@std@@PAX@1@$$QAU?$pair@KUHIT_INFO@@@1@@Z$1
__ehfuncinfo$??$?0U?$pair@KUHIT_INFO@@@std@@@?$_Tree_temp_node@V?$allocator@U?$_Tree_node@U?$pair@$$CBKUHIT_INFO@@@std@@PAX@std@@@std@@@std@@QAE@AAV?$allocator@U?$_Tree_node@U?$pair@$$CBKUHIT_INFO@@@std@@PAX@std@@@1@PAU?$_Tree_node@U?$pair@$$CBKUHIT_INFO@@@std@@PAX@1@$$QAU?$pair@KUHIT_INFO@@@1@@Z DD 019930522H
	DD	01H
	DD	FLAT:__unwindtable$??$?0U?$pair@KUHIT_INFO@@@std@@@?$_Tree_temp_node@V?$allocator@U?$_Tree_node@U?$pair@$$CBKUHIT_INFO@@@std@@PAX@std@@@std@@@std@@QAE@AAV?$allocator@U?$_Tree_node@U?$pair@$$CBKUHIT_INFO@@@std@@PAX@std@@@1@PAU?$_Tree_node@U?$pair@$$CBKUHIT_INFO@@@std@@PAX@1@$$QAU?$pair@KUHIT_INFO@@@1@@Z
	DD	2 DUP(00H)
	DD	2 DUP(00H)
	DD	00H
	DD	01H
xdata$x	ENDS
;	COMDAT xdata$x
xdata$x	SEGMENT
__unwindtable$??0?$_Tree_temp_node_alloc@V?$allocator@U?$_Tree_node@U?$pair@$$CBKUHIT_INFO@@@std@@PAX@std@@@std@@@std@@QAE@AAV?$allocator@U?$_Tree_node@U?$pair@$$CBKUHIT_INFO@@@std@@PAX@std@@@1@@Z DD 0ffffffffH
	DD	FLAT:__unwindfunclet$??0?$_Tree_temp_node_alloc@V?$allocator@U?$_Tree_node@U?$pair@$$CBKUHIT_INFO@@@std@@PAX@std@@@std@@@std@@QAE@AAV?$allocator@U?$_Tree_node@U?$pair@$$CBKUHIT_INFO@@@std@@PAX@std@@@1@@Z$0
__ehfuncinfo$??0?$_Tree_temp_node_alloc@V?$allocator@U?$_Tree_node@U?$pair@$$CBKUHIT_INFO@@@std@@PAX@std@@@std@@@std@@QAE@AAV?$allocator@U?$_Tree_node@U?$pair@$$CBKUHIT_INFO@@@std@@PAX@std@@@1@@Z DD 019930522H
	DD	01H
	DD	FLAT:__unwindtable$??0?$_Tree_temp_node_alloc@V?$allocator@U?$_Tree_node@U?$pair@$$CBKUHIT_INFO@@@std@@PAX@std@@@std@@@std@@QAE@AAV?$allocator@U?$_Tree_node@U?$pair@$$CBKUHIT_INFO@@@std@@PAX@std@@@1@@Z
	DD	2 DUP(00H)
	DD	2 DUP(00H)
	DD	00H
	DD	01H
xdata$x	ENDS
;	COMDAT xdata$x
xdata$x	SEGMENT
__unwindtable$??$?0U?$pair@QAVCSetItem@@H@std@@@?$_Tree_temp_node@V?$allocator@U?$_Tree_node@U?$pair@QAVCSetItem@@H@std@@PAX@std@@@std@@@std@@QAE@AAV?$allocator@U?$_Tree_node@U?$pair@QAVCSetItem@@H@std@@PAX@std@@@1@PAU?$_Tree_node@U?$pair@QAVCSetItem@@H@std@@PAX@1@$$QAU?$pair@QAVCSetItem@@H@1@@Z DD 0ffffffffH
	DD	FLAT:__unwindfunclet$??$?0U?$pair@QAVCSetItem@@H@std@@@?$_Tree_temp_node@V?$allocator@U?$_Tree_node@U?$pair@QAVCSetItem@@H@std@@PAX@std@@@std@@@std@@QAE@AAV?$allocator@U?$_Tree_node@U?$pair@QAVCSetItem@@H@std@@PAX@std@@@1@PAU?$_Tree_node@U?$pair@QAVCSetItem@@H@std@@PAX@1@$$QAU?$pair@QAVCSetItem@@H@1@@Z$1
__ehfuncinfo$??$?0U?$pair@QAVCSetItem@@H@std@@@?$_Tree_temp_node@V?$allocator@U?$_Tree_node@U?$pair@QAVCSetItem@@H@std@@PAX@std@@@std@@@std@@QAE@AAV?$allocator@U?$_Tree_node@U?$pair@QAVCSetItem@@H@std@@PAX@std@@@1@PAU?$_Tree_node@U?$pair@QAVCSetItem@@H@std@@PAX@1@$$QAU?$pair@QAVCSetItem@@H@1@@Z DD 019930522H
	DD	01H
	DD	FLAT:__unwindtable$??$?0U?$pair@QAVCSetItem@@H@std@@@?$_Tree_temp_node@V?$allocator@U?$_Tree_node@U?$pair@QAVCSetItem@@H@std@@PAX@std@@@std@@@std@@QAE@AAV?$allocator@U?$_Tree_node@U?$pair@QAVCSetItem@@H@std@@PAX@std@@@1@PAU?$_Tree_node@U?$pair@QAVCSetItem@@H@std@@PAX@1@$$QAU?$pair@QAVCSetItem@@H@1@@Z
	DD	2 DUP(00H)
	DD	2 DUP(00H)
	DD	00H
	DD	01H
xdata$x	ENDS
;	COMDAT xdata$x
xdata$x	SEGMENT
__unwindtable$??0?$_Tree_temp_node_alloc@V?$allocator@U?$_Tree_node@U?$pair@QAVCSetItem@@H@std@@PAX@std@@@std@@@std@@QAE@AAV?$allocator@U?$_Tree_node@U?$pair@QAVCSetItem@@H@std@@PAX@std@@@1@@Z DD 0ffffffffH
	DD	FLAT:__unwindfunclet$??0?$_Tree_temp_node_alloc@V?$allocator@U?$_Tree_node@U?$pair@QAVCSetItem@@H@std@@PAX@std@@@std@@@std@@QAE@AAV?$allocator@U?$_Tree_node@U?$pair@QAVCSetItem@@H@std@@PAX@std@@@1@@Z$0
__ehfuncinfo$??0?$_Tree_temp_node_alloc@V?$allocator@U?$_Tree_node@U?$pair@QAVCSetItem@@H@std@@PAX@std@@@std@@@std@@QAE@AAV?$allocator@U?$_Tree_node@U?$pair@QAVCSetItem@@H@std@@PAX@std@@@1@@Z DD 019930522H
	DD	01H
	DD	FLAT:__unwindtable$??0?$_Tree_temp_node_alloc@V?$allocator@U?$_Tree_node@U?$pair@QAVCSetItem@@H@std@@PAX@std@@@std@@@std@@QAE@AAV?$allocator@U?$_Tree_node@U?$pair@QAVCSetItem@@H@std@@PAX@std@@@1@@Z
	DD	2 DUP(00H)
	DD	2 DUP(00H)
	DD	00H
	DD	01H
xdata$x	ENDS
;	COMDAT xdata$x
xdata$x	SEGMENT
__unwindtable$??$_Emplace@U?$pair@KUHIT_INFO@@@std@@@?$_Tree@V?$_Tmap_traits@KUHIT_INFO@@U?$less@K@std@@V?$allocator@U?$pair@$$CBKUHIT_INFO@@@std@@@3@$0A@@std@@@std@@IAE?AU?$pair@PAU?$_Tree_node@U?$pair@$$CBKUHIT_INFO@@@std@@PAX@std@@_N@1@$$QAU?$pair@KUHIT_INFO@@@1@@Z DD 0ffffffffH
	DD	FLAT:__unwindfunclet$??$_Emplace@U?$pair@KUHIT_INFO@@@std@@@?$_Tree@V?$_Tmap_traits@KUHIT_INFO@@U?$less@K@std@@V?$allocator@U?$pair@$$CBKUHIT_INFO@@@std@@@3@$0A@@std@@@std@@IAE?AU?$pair@PAU?$_Tree_node@U?$pair@$$CBKUHIT_INFO@@@std@@PAX@std@@_N@1@$$QAU?$pair@KUHIT_INFO@@@1@@Z$2
__ehfuncinfo$??$_Emplace@U?$pair@KUHIT_INFO@@@std@@@?$_Tree@V?$_Tmap_traits@KUHIT_INFO@@U?$less@K@std@@V?$allocator@U?$pair@$$CBKUHIT_INFO@@@std@@@3@$0A@@std@@@std@@IAE?AU?$pair@PAU?$_Tree_node@U?$pair@$$CBKUHIT_INFO@@@std@@PAX@std@@_N@1@$$QAU?$pair@KUHIT_INFO@@@1@@Z DD 019930522H
	DD	01H
	DD	FLAT:__unwindtable$??$_Emplace@U?$pair@KUHIT_INFO@@@std@@@?$_Tree@V?$_Tmap_traits@KUHIT_INFO@@U?$less@K@std@@V?$allocator@U?$pair@$$CBKUHIT_INFO@@@std@@@3@$0A@@std@@@std@@IAE?AU?$pair@PAU?$_Tree_node@U?$pair@$$CBKUHIT_INFO@@@std@@PAX@std@@_N@1@$$QAU?$pair@KUHIT_INFO@@@1@@Z
	DD	2 DUP(00H)
	DD	2 DUP(00H)
	DD	00H
	DD	01H
xdata$x	ENDS
;	COMDAT xdata$x
xdata$x	SEGMENT
__unwindtable$??$_Emplace@U?$pair@QAVCSetItem@@H@std@@@?$_Tree@V?$_Tmap_traits@PAVCSetItem@@HU?$less@PAVCSetItem@@@std@@V?$allocator@U?$pair@QAVCSetItem@@H@std@@@3@$0A@@std@@@std@@IAE?AU?$pair@PAU?$_Tree_node@U?$pair@QAVCSetItem@@H@std@@PAX@std@@_N@1@$$QAU?$pair@QAVCSetItem@@H@1@@Z DD 0ffffffffH
	DD	FLAT:__unwindfunclet$??$_Emplace@U?$pair@QAVCSetItem@@H@std@@@?$_Tree@V?$_Tmap_traits@PAVCSetItem@@HU?$less@PAVCSetItem@@@std@@V?$allocator@U?$pair@QAVCSetItem@@H@std@@@3@$0A@@std@@@std@@IAE?AU?$pair@PAU?$_Tree_node@U?$pair@QAVCSetItem@@H@std@@PAX@std@@_N@1@$$QAU?$pair@QAVCSetItem@@H@1@@Z$2
__ehfuncinfo$??$_Emplace@U?$pair@QAVCSetItem@@H@std@@@?$_Tree@V?$_Tmap_traits@PAVCSetItem@@HU?$less@PAVCSetItem@@@std@@V?$allocator@U?$pair@QAVCSetItem@@H@std@@@3@$0A@@std@@@std@@IAE?AU?$pair@PAU?$_Tree_node@U?$pair@QAVCSetItem@@H@std@@PAX@std@@_N@1@$$QAU?$pair@QAVCSetItem@@H@1@@Z DD 019930522H
	DD	01H
	DD	FLAT:__unwindtable$??$_Emplace@U?$pair@QAVCSetItem@@H@std@@@?$_Tree@V?$_Tmap_traits@PAVCSetItem@@HU?$less@PAVCSetItem@@@std@@V?$allocator@U?$pair@QAVCSetItem@@H@std@@@3@$0A@@std@@@std@@IAE?AU?$pair@PAU?$_Tree_node@U?$pair@QAVCSetItem@@H@std@@PAX@std@@_N@1@$$QAU?$pair@QAVCSetItem@@H@1@@Z
	DD	2 DUP(00H)
	DD	2 DUP(00H)
	DD	00H
	DD	01H
xdata$x	ENDS
;	COMDAT xdata$x
xdata$x	SEGMENT
__unwindtable$??$emplace@U?$pair@KUHIT_INFO@@@std@@@?$_Tree@V?$_Tmap_traits@KUHIT_INFO@@U?$less@K@std@@V?$allocator@U?$pair@$$CBKUHIT_INFO@@@std@@@3@$0A@@std@@@std@@QAE?AU?$pair@V?$_Tree_iterator@V?$_Tree_val@U?$_Tree_simple_types@U?$pair@$$CBKUHIT_INFO@@@std@@@std@@@std@@@std@@_N@1@$$QAU?$pair@KUHIT_INFO@@@1@@Z DD 0ffffffffH
	DD	FLAT:__unwindfunclet$??$emplace@U?$pair@KUHIT_INFO@@@std@@@?$_Tree@V?$_Tmap_traits@KUHIT_INFO@@U?$less@K@std@@V?$allocator@U?$pair@$$CBKUHIT_INFO@@@std@@@3@$0A@@std@@@std@@QAE?AU?$pair@V?$_Tree_iterator@V?$_Tree_val@U?$_Tree_simple_types@U?$pair@$$CBKUHIT_INFO@@@std@@@std@@@std@@@std@@_N@1@$$QAU?$pair@KUHIT_INFO@@@1@@Z$2
__ehfuncinfo$??$emplace@U?$pair@KUHIT_INFO@@@std@@@?$_Tree@V?$_Tmap_traits@KUHIT_INFO@@U?$less@K@std@@V?$allocator@U?$pair@$$CBKUHIT_INFO@@@std@@@3@$0A@@std@@@std@@QAE?AU?$pair@V?$_Tree_iterator@V?$_Tree_val@U?$_Tree_simple_types@U?$pair@$$CBKUHIT_INFO@@@std@@@std@@@std@@@std@@_N@1@$$QAU?$pair@KUHIT_INFO@@@1@@Z DD 019930522H
	DD	01H
	DD	FLAT:__unwindtable$??$emplace@U?$pair@KUHIT_INFO@@@std@@@?$_Tree@V?$_Tmap_traits@KUHIT_INFO@@U?$less@K@std@@V?$allocator@U?$pair@$$CBKUHIT_INFO@@@std@@@3@$0A@@std@@@std@@QAE?AU?$pair@V?$_Tree_iterator@V?$_Tree_val@U?$_Tree_simple_types@U?$pair@$$CBKUHIT_INFO@@@std@@@std@@@std@@@std@@_N@1@$$QAU?$pair@KUHIT_INFO@@@1@@Z
	DD	2 DUP(00H)
	DD	2 DUP(00H)
	DD	00H
	DD	01H
xdata$x	ENDS
;	COMDAT xdata$x
xdata$x	SEGMENT
__unwindtable$??$insert@$0A@$0A@@?$_Tree@V?$_Tmap_traits@PAVCSetItem@@HU?$less@PAVCSetItem@@@std@@V?$allocator@U?$pair@QAVCSetItem@@H@std@@@3@$0A@@std@@@std@@QAE?AU?$pair@V?$_Tree_iterator@V?$_Tree_val@U?$_Tree_simple_types@U?$pair@QAVCSetItem@@H@std@@@std@@@std@@@std@@_N@1@$$QAU?$pair@QAVCSetItem@@H@1@@Z DD 0ffffffffH
	DD	FLAT:__unwindfunclet$??$insert@$0A@$0A@@?$_Tree@V?$_Tmap_traits@PAVCSetItem@@HU?$less@PAVCSetItem@@@std@@V?$allocator@U?$pair@QAVCSetItem@@H@std@@@3@$0A@@std@@@std@@QAE?AU?$pair@V?$_Tree_iterator@V?$_Tree_val@U?$_Tree_simple_types@U?$pair@QAVCSetItem@@H@std@@@std@@@std@@@std@@_N@1@$$QAU?$pair@QAVCSetItem@@H@1@@Z$2
__ehfuncinfo$??$insert@$0A@$0A@@?$_Tree@V?$_Tmap_traits@PAVCSetItem@@HU?$less@PAVCSetItem@@@std@@V?$allocator@U?$pair@QAVCSetItem@@H@std@@@3@$0A@@std@@@std@@QAE?AU?$pair@V?$_Tree_iterator@V?$_Tree_val@U?$_Tree_simple_types@U?$pair@QAVCSetItem@@H@std@@@std@@@std@@@std@@_N@1@$$QAU?$pair@QAVCSetItem@@H@1@@Z DD 019930522H
	DD	01H
	DD	FLAT:__unwindtable$??$insert@$0A@$0A@@?$_Tree@V?$_Tmap_traits@PAVCSetItem@@HU?$less@PAVCSetItem@@@std@@V?$allocator@U?$pair@QAVCSetItem@@H@std@@@3@$0A@@std@@@std@@QAE?AU?$pair@V?$_Tree_iterator@V?$_Tree_val@U?$_Tree_simple_types@U?$pair@QAVCSetItem@@H@std@@@std@@@std@@@std@@_N@1@$$QAU?$pair@QAVCSetItem@@H@1@@Z
	DD	2 DUP(00H)
	DD	2 DUP(00H)
	DD	00H
	DD	01H
xdata$x	ENDS
;	COMDAT xdata$x
xdata$x	SEGMENT
__unwindtable$??$insert@U?$pair@KUHIT_INFO@@@std@@$0A@@?$map@KUHIT_INFO@@U?$less@K@std@@V?$allocator@U?$pair@$$CBKUHIT_INFO@@@std@@@3@@std@@QAE?AU?$pair@V?$_Tree_iterator@V?$_Tree_val@U?$_Tree_simple_types@U?$pair@$$CBKUHIT_INFO@@@std@@@std@@@std@@@std@@_N@1@$$QAU?$pair@KUHIT_INFO@@@1@@Z DD 0ffffffffH
	DD	FLAT:__unwindfunclet$??$insert@U?$pair@KUHIT_INFO@@@std@@$0A@@?$map@KUHIT_INFO@@U?$less@K@std@@V?$allocator@U?$pair@$$CBKUHIT_INFO@@@std@@@3@@std@@QAE?AU?$pair@V?$_Tree_iterator@V?$_Tree_val@U?$_Tree_simple_types@U?$pair@$$CBKUHIT_INFO@@@std@@@std@@@std@@@std@@_N@1@$$QAU?$pair@KUHIT_INFO@@@1@@Z$2
__ehfuncinfo$??$insert@U?$pair@KUHIT_INFO@@@std@@$0A@@?$map@KUHIT_INFO@@U?$less@K@std@@V?$allocator@U?$pair@$$CBKUHIT_INFO@@@std@@@3@@std@@QAE?AU?$pair@V?$_Tree_iterator@V?$_Tree_val@U?$_Tree_simple_types@U?$pair@$$CBKUHIT_INFO@@@std@@@std@@@std@@@std@@_N@1@$$QAU?$pair@KUHIT_INFO@@@1@@Z DD 019930522H
	DD	01H
	DD	FLAT:__unwindtable$??$insert@U?$pair@KUHIT_INFO@@@std@@$0A@@?$map@KUHIT_INFO@@U?$less@K@std@@V?$allocator@U?$pair@$$CBKUHIT_INFO@@@std@@@3@@std@@QAE?AU?$pair@V?$_Tree_iterator@V?$_Tree_val@U?$_Tree_simple_types@U?$pair@$$CBKUHIT_INFO@@@std@@@std@@@std@@@std@@_N@1@$$QAU?$pair@KUHIT_INFO@@@1@@Z
	DD	2 DUP(00H)
	DD	2 DUP(00H)
	DD	00H
	DD	01H
xdata$x	ENDS
;	COMDAT xdata$x
xdata$x	SEGMENT
__ehfuncinfo$?DropItem@CMover@@AAEHPAV1@@Z DD 019930522H
	DD	015H
	DD	FLAT:__unwindtable$?DropItem@CMover@@AAEHPAV1@@Z
	DD	2 DUP(00H)
	DD	2 DUP(00H)
	DD	00H
	DD	01H
__unwindtable$?DropItem@CMover@@AAEHPAV1@@Z DD 0ffffffffH
	DD	FLAT:__unwindfunclet$?DropItem@CMover@@AAEHPAV1@@Z$0
	DD	0ffffffffH
	DD	FLAT:__unwindfunclet$?DropItem@CMover@@AAEHPAV1@@Z$1
	DD	0ffffffffH
	DD	FLAT:__unwindfunclet$?DropItem@CMover@@AAEHPAV1@@Z$2
	DD	0ffffffffH
	DD	FLAT:__unwindfunclet$?DropItem@CMover@@AAEHPAV1@@Z$3
	DD	03H
	DD	FLAT:__unwindfunclet$?DropItem@CMover@@AAEHPAV1@@Z$4
	DD	03H
	DD	FLAT:__unwindfunclet$?DropItem@CMover@@AAEHPAV1@@Z$5
	DD	03H
	DD	FLAT:__unwindfunclet$?DropItem@CMover@@AAEHPAV1@@Z$6
	DD	0ffffffffH
	DD	FLAT:__unwindfunclet$?DropItem@CMover@@AAEHPAV1@@Z$7
	DD	07H
	DD	FLAT:__unwindfunclet$?DropItem@CMover@@AAEHPAV1@@Z$8
	DD	07H
	DD	FLAT:__unwindfunclet$?DropItem@CMover@@AAEHPAV1@@Z$9
	DD	0ffffffffH
	DD	FLAT:__unwindfunclet$?DropItem@CMover@@AAEHPAV1@@Z$10
	DD	0aH
	DD	FLAT:__unwindfunclet$?DropItem@CMover@@AAEHPAV1@@Z$11
	DD	0aH
	DD	FLAT:__unwindfunclet$?DropItem@CMover@@AAEHPAV1@@Z$12
	DD	0ffffffffH
	DD	FLAT:__unwindfunclet$?DropItem@CMover@@AAEHPAV1@@Z$13
	DD	0ffffffffH
	DD	FLAT:__unwindfunclet$?DropItem@CMover@@AAEHPAV1@@Z$14
	DD	0ffffffffH
	DD	FLAT:__unwindfunclet$?DropItem@CMover@@AAEHPAV1@@Z$15
	DD	0ffffffffH
	DD	FLAT:__unwindfunclet$?DropItem@CMover@@AAEHPAV1@@Z$16
	DD	0ffffffffH
	DD	FLAT:__unwindfunclet$?DropItem@CMover@@AAEHPAV1@@Z$17
	DD	0ffffffffH
	DD	FLAT:__unwindfunclet$?DropItem@CMover@@AAEHPAV1@@Z$18
	DD	0ffffffffH
	DD	FLAT:__unwindfunclet$?DropItem@CMover@@AAEHPAV1@@Z$19
	DD	0ffffffffH
	DD	FLAT:__unwindfunclet$?DropItem@CMover@@AAEHPAV1@@Z$20
xdata$x	ENDS
;	COMDAT xdata$x
xdata$x	SEGMENT
__unwindtable$?ProcessRegenItem@CMover@@AAEXXZ DD 0ffffffffH
	DD	FLAT:__unwindfunclet$?ProcessRegenItem@CMover@@AAEXXZ$0
	DD	0ffffffffH
	DD	FLAT:__unwindfunclet$?ProcessRegenItem@CMover@@AAEXXZ$1
__ehfuncinfo$?ProcessRegenItem@CMover@@AAEXXZ DD 019930522H
	DD	02H
	DD	FLAT:__unwindtable$?ProcessRegenItem@CMover@@AAEXXZ
	DD	2 DUP(00H)
	DD	2 DUP(00H)
	DD	00H
	DD	01H
xdata$x	ENDS
;	COMDAT xdata$x
xdata$x	SEGMENT
__unwindtable$?CreateItem@CMover@@QAEHPAVCItemBase@@PAEPAFE@Z DD 0ffffffffH
	DD	FLAT:__unwindfunclet$?CreateItem@CMover@@QAEHPAVCItemBase@@PAEPAFE@Z$0
__ehfuncinfo$?CreateItem@CMover@@QAEHPAVCItemBase@@PAEPAFE@Z DD 019930522H
	DD	01H
	DD	FLAT:__unwindtable$?CreateItem@CMover@@QAEHPAVCItemBase@@PAEPAFE@Z
	DD	2 DUP(00H)
	DD	2 DUP(00H)
	DD	00H
	DD	01H
xdata$x	ENDS
;	COMDAT xdata$x
xdata$x	SEGMENT
__unwindtable$?AddExperienceKillMember@CMover@@QAEXPAV1@NPAUMoverProp@@M@Z DD 0ffffffffH
	DD	FLAT:__unwindfunclet$?AddExperienceKillMember@CMover@@QAEXPAV1@NPAUMoverProp@@M@Z$0
	DD	00H
	DD	FLAT:__unwindfunclet$?AddExperienceKillMember@CMover@@QAEXPAV1@NPAUMoverProp@@M@Z$1
__ehfuncinfo$?AddExperienceKillMember@CMover@@QAEXPAV1@NPAUMoverProp@@M@Z DD 019930522H
	DD	02H
	DD	FLAT:__unwindtable$?AddExperienceKillMember@CMover@@QAEXPAV1@NPAUMoverProp@@M@Z
	DD	2 DUP(00H)
	DD	2 DUP(00H)
	DD	00H
	DD	01H
xdata$x	ENDS
;	COMDAT xdata$x
xdata$x	SEGMENT
__unwindtable$?SubPK@CMover@@QAEHPAV1@H@Z DD 0ffffffffH
	DD	FLAT:__unwindfunclet$?SubPK@CMover@@QAEHPAV1@H@Z$0
__ehfuncinfo$?SubPK@CMover@@QAEHPAV1@H@Z DD 019930522H
	DD	01H
	DD	FLAT:__unwindtable$?SubPK@CMover@@QAEHPAV1@H@Z
	DD	2 DUP(00H)
	DD	2 DUP(00H)
	DD	00H
	DD	01H
xdata$x	ENDS
;	COMDAT xdata$x
xdata$x	SEGMENT
__unwindtable$?RemoveAllEnemies@CMover@@QAEXXZ DD 0ffffffffH
	DD	FLAT:__unwindfunclet$?RemoveAllEnemies@CMover@@QAEXXZ$0
__ehfuncinfo$?RemoveAllEnemies@CMover@@QAEXXZ DD 019930522H
	DD	01H
	DD	FLAT:__unwindtable$?RemoveAllEnemies@CMover@@QAEXXZ
	DD	2 DUP(00H)
	DD	2 DUP(00H)
	DD	00H
	DD	01H
xdata$x	ENDS
;	COMDAT xdata$x
xdata$x	SEGMENT
__unwindtable$?AddEnemy@CMover@@QAEKKH@Z DD 0ffffffffH
	DD	FLAT:__unwindfunclet$?AddEnemy@CMover@@QAEKKH@Z$2
__ehfuncinfo$?AddEnemy@CMover@@QAEKKH@Z DD 019930522H
	DD	01H
	DD	FLAT:__unwindtable$?AddEnemy@CMover@@QAEKKH@Z
	DD	2 DUP(00H)
	DD	2 DUP(00H)
	DD	00H
	DD	01H
xdata$x	ENDS
;	COMDAT xdata$x
xdata$x	SEGMENT
__unwindtable$?DropItem@CMover@@QAEPAVCItem@@KFABUD3DXVECTOR3@@H@Z DD 0ffffffffH
	DD	FLAT:__unwindfunclet$?DropItem@CMover@@QAEPAVCItem@@KFABUD3DXVECTOR3@@H@Z$0
	DD	0ffffffffH
	DD	FLAT:__unwindfunclet$?DropItem@CMover@@QAEPAVCItem@@KFABUD3DXVECTOR3@@H@Z$1
__ehfuncinfo$?DropItem@CMover@@QAEPAVCItem@@KFABUD3DXVECTOR3@@H@Z DD 019930522H
	DD	02H
	DD	FLAT:__unwindtable$?DropItem@CMover@@QAEPAVCItem@@KFABUD3DXVECTOR3@@H@Z
	DD	2 DUP(00H)
	DD	2 DUP(00H)
	DD	00H
	DD	01H
xdata$x	ENDS
;	COMDAT xdata$x
xdata$x	SEGMENT
__unwindtable$?_DropItemNPC@CMover@@QAEPAVCItem@@KKFABUD3DXVECTOR3@@@Z DD 0ffffffffH
	DD	FLAT:__unwindfunclet$?_DropItemNPC@CMover@@QAEPAVCItem@@KKFABUD3DXVECTOR3@@@Z$0
	DD	0ffffffffH
	DD	FLAT:__unwindfunclet$?_DropItemNPC@CMover@@QAEPAVCItem@@KKFABUD3DXVECTOR3@@@Z$1
__ehfuncinfo$?_DropItemNPC@CMover@@QAEPAVCItem@@KKFABUD3DXVECTOR3@@@Z DD 019930522H
	DD	02H
	DD	FLAT:__unwindtable$?_DropItemNPC@CMover@@QAEPAVCItem@@KKFABUD3DXVECTOR3@@@Z
	DD	2 DUP(00H)
	DD	2 DUP(00H)
	DD	00H
	DD	01H
xdata$x	ENDS
;	COMDAT xdata$x
xdata$x	SEGMENT
__unwindtable$?SetDestParamSetItem@CMover@@QAEXPAVCItemElem@@@Z DD 0ffffffffH
	DD	FLAT:__unwindfunclet$?SetDestParamSetItem@CMover@@QAEXPAVCItemElem@@@Z$0
	DD	00H
	DD	FLAT:__unwindfunclet$?SetDestParamSetItem@CMover@@QAEXPAVCItemElem@@@Z$5
__ehfuncinfo$?SetDestParamSetItem@CMover@@QAEXPAVCItemElem@@@Z DD 019930522H
	DD	02H
	DD	FLAT:__unwindtable$?SetDestParamSetItem@CMover@@QAEXPAVCItemElem@@@Z
	DD	2 DUP(00H)
	DD	2 DUP(00H)
	DD	00H
	DD	01H
xdata$x	ENDS
;	COMDAT xdata$x
xdata$x	SEGMENT
__unwindtable$?GetTransyItem@CMover@@QAEPAUItemProp@@PAU2@HPBD@Z DD 0ffffffffH
	DD	FLAT:__unwindfunclet$?GetTransyItem@CMover@@QAEPAUItemProp@@PAU2@HPBD@Z$0
__ehfuncinfo$?GetTransyItem@CMover@@QAEPAUItemProp@@PAU2@HPBD@Z DD 019930522H
	DD	01H
	DD	FLAT:__unwindtable$?GetTransyItem@CMover@@QAEPAUItemProp@@PAU2@HPBD@Z
	DD	2 DUP(00H)
	DD	2 DUP(00H)
	DD	00H
	DD	01H
xdata$x	ENDS
;	COMDAT xdata$x
xdata$x	SEGMENT
__unwindtable$?InitNPCProperty@CMover@@QAEXXZ DD 0ffffffffH
	DD	FLAT:__unwindfunclet$?InitNPCProperty@CMover@@QAEXXZ$0
__ehfuncinfo$?InitNPCProperty@CMover@@QAEXXZ DD 019930522H
	DD	01H
	DD	FLAT:__unwindtable$?InitNPCProperty@CMover@@QAEXXZ
	DD	2 DUP(00H)
	DD	2 DUP(00H)
	DD	00H
	DD	01H
xdata$x	ENDS
;	COMDAT xdata$x
xdata$x	SEGMENT
__unwindtable$?InitCharacter@CMover@@QAEXPAUtagCHARACTER@@@Z DD 0ffffffffH
	DD	FLAT:__unwindfunclet$?InitCharacter@CMover@@QAEXPAUtagCHARACTER@@@Z$0
__ehfuncinfo$?InitCharacter@CMover@@QAEXPAUtagCHARACTER@@@Z DD 019930522H
	DD	01H
	DD	FLAT:__unwindtable$?InitCharacter@CMover@@QAEXPAUtagCHARACTER@@@Z
	DD	2 DUP(00H)
	DD	2 DUP(00H)
	DD	00H
	DD	01H
xdata$x	ENDS
;	COMDAT xdata$x
xdata$x	SEGMENT
__unwindtable$?Init@CMover@@QAEXXZ DD 0ffffffffH
	DD	FLAT:__unwindfunclet$?Init@CMover@@QAEXXZ$0
__ehfuncinfo$?Init@CMover@@QAEXXZ DD 019930522H
	DD	01H
	DD	FLAT:__unwindtable$?Init@CMover@@QAEXXZ
	DD	2 DUP(00H)
	DD	2 DUP(00H)
	DD	00H
	DD	01H
xdata$x	ENDS
;	COMDAT xdata$x
xdata$x	SEGMENT
__ehfuncinfo$?Process@CMover@@UAEXXZ DD 019930522H
	DD	0bH
	DD	FLAT:__unwindtable$?Process@CMover@@UAEXXZ
	DD	2 DUP(00H)
	DD	2 DUP(00H)
	DD	00H
	DD	01H
__unwindtable$?Process@CMover@@UAEXXZ DD 0ffffffffH
	DD	FLAT:__unwindfunclet$?Process@CMover@@UAEXXZ$0
	DD	0ffffffffH
	DD	FLAT:__unwindfunclet$?Process@CMover@@UAEXXZ$1
	DD	0ffffffffH
	DD	FLAT:__unwindfunclet$?Process@CMover@@UAEXXZ$2
	DD	0ffffffffH
	DD	FLAT:__unwindfunclet$?Process@CMover@@UAEXXZ$3
	DD	0ffffffffH
	DD	FLAT:__unwindfunclet$?Process@CMover@@UAEXXZ$4
	DD	0ffffffffH
	DD	FLAT:__unwindfunclet$?Process@CMover@@UAEXXZ$5
	DD	0ffffffffH
	DD	FLAT:__unwindfunclet$?Process@CMover@@UAEXXZ$6
	DD	0ffffffffH
	DD	FLAT:__unwindfunclet$?Process@CMover@@UAEXXZ$7
	DD	0ffffffffH
	DD	FLAT:__unwindfunclet$?Process@CMover@@UAEXXZ$8
	DD	0ffffffffH
	DD	FLAT:__unwindfunclet$?Process@CMover@@UAEXXZ$9
	DD	0ffffffffH
	DD	FLAT:__unwindfunclet$?Process@CMover@@UAEXXZ$10
xdata$x	ENDS
;	COMDAT xdata$x
xdata$x	SEGMENT
__ehfuncinfo$??1CMover@@UAE@XZ DD 019930522H
	DD	00H
	DD	00H
	DD	2 DUP(00H)
	DD	2 DUP(00H)
	DD	00H
	DD	05H
xdata$x	ENDS
;	COMDAT xdata$x
xdata$x	SEGMENT
__ehfuncinfo$??0CMover@@QAE@XZ DD 019930522H
	DD	0dH
	DD	FLAT:__unwindtable$??0CMover@@QAE@XZ
	DD	2 DUP(00H)
	DD	2 DUP(00H)
	DD	00H
	DD	01H
__unwindtable$??0CMover@@QAE@XZ DD 0ffffffffH
	DD	FLAT:__unwindfunclet$??0CMover@@QAE@XZ$0
	DD	00H
	DD	FLAT:__unwindfunclet$??0CMover@@QAE@XZ$1
	DD	01H
	DD	FLAT:__unwindfunclet$??0CMover@@QAE@XZ$2
	DD	02H
	DD	FLAT:__unwindfunclet$??0CMover@@QAE@XZ$3
	DD	03H
	DD	FLAT:__unwindfunclet$??0CMover@@QAE@XZ$4
	DD	04H
	DD	FLAT:__unwindfunclet$??0CMover@@QAE@XZ$5
	DD	05H
	DD	FLAT:__unwindfunclet$??0CMover@@QAE@XZ$6
	DD	06H
	DD	FLAT:__unwindfunclet$??0CMover@@QAE@XZ$7
	DD	07H
	DD	FLAT:__unwindfunclet$??0CMover@@QAE@XZ$8
	DD	08H
	DD	FLAT:__unwindfunclet$??0CMover@@QAE@XZ$9
	DD	09H
	DD	FLAT:__unwindfunclet$??0CMover@@QAE@XZ$10
	DD	0aH
	DD	FLAT:__unwindfunclet$??0CMover@@QAE@XZ$11
	DD	0bH
	DD	FLAT:__unwindfunclet$??0CMover@@QAE@XZ$12
xdata$x	ENDS
;	COMDAT xdata$x
xdata$x	SEGMENT
__unwindtable$?SetItemContainer@?$CItemContainer@VCItemElem@@@@QAEXKKK@Z DD 0ffffffffH
	DD	FLAT:__unwindfunclet$?SetItemContainer@?$CItemContainer@VCItemElem@@@@QAEXKKK@Z$0
__ehfuncinfo$?SetItemContainer@?$CItemContainer@VCItemElem@@@@QAEXKKK@Z DD 019930522H
	DD	01H
	DD	FLAT:__unwindtable$?SetItemContainer@?$CItemContainer@VCItemElem@@@@QAEXKKK@Z
	DD	2 DUP(00H)
	DD	2 DUP(00H)
	DD	00H
	DD	01H
xdata$x	ENDS
;	COMDAT xdata$x
xdata$x	SEGMENT
__ehfuncinfo$??_ECItemElem@@UAEPAXI@Z DD 019930522H
	DD	00H
	DD	00H
	DD	2 DUP(00H)
	DD	2 DUP(00H)
	DD	00H
	DD	05H
xdata$x	ENDS
;	COMDAT xdata$x
xdata$x	SEGMENT
__unwindtable$?FormatV@?$CStringT@DV?$StrTraitMFC@DV?$ChTraitsCRT@D@ATL@@@@@ATL@@QAEXPBDPAD@Z DD 0ffffffffH
	DD	FLAT:__unwindfunclet$?FormatV@?$CStringT@DV?$StrTraitMFC@DV?$ChTraitsCRT@D@ATL@@@@@ATL@@QAEXPBDPAD@Z$0
__ehfuncinfo$?FormatV@?$CStringT@DV?$StrTraitMFC@DV?$ChTraitsCRT@D@ATL@@@@@ATL@@QAEXPBDPAD@Z DD 019930522H
	DD	01H
	DD	FLAT:__unwindtable$?FormatV@?$CStringT@DV?$StrTraitMFC@DV?$ChTraitsCRT@D@ATL@@@@@ATL@@QAEXPBDPAD@Z
	DD	2 DUP(00H)
	DD	2 DUP(00H)
	DD	00H
	DD	01H
xdata$x	ENDS
;	COMDAT xdata$x
xdata$x	SEGMENT
__unwindtable$?Format@?$CStringT@DV?$StrTraitMFC@DV?$ChTraitsCRT@D@ATL@@@@@ATL@@QAAXPBDZZ DD 0ffffffffH
	DD	FLAT:__unwindfunclet$?Format@?$CStringT@DV?$StrTraitMFC@DV?$ChTraitsCRT@D@ATL@@@@@ATL@@QAAXPBDZZ$0
__ehfuncinfo$?Format@?$CStringT@DV?$StrTraitMFC@DV?$ChTraitsCRT@D@ATL@@@@@ATL@@QAAXPBDZZ DD 019930522H
	DD	01H
	DD	FLAT:__unwindtable$?Format@?$CStringT@DV?$StrTraitMFC@DV?$ChTraitsCRT@D@ATL@@@@@ATL@@QAAXPBDZZ
	DD	2 DUP(00H)
	DD	2 DUP(00H)
	DD	00H
	DD	01H
xdata$x	ENDS
;	COMDAT xdata$x
xdata$x	SEGMENT
__unwindtable$??0?$CStringT@DV?$StrTraitMFC@DV?$ChTraitsCRT@D@ATL@@@@@ATL@@QAE@PBDPAUIAtlStringMgr@1@@Z DD 0ffffffffH
	DD	FLAT:__unwindfunclet$??0?$CStringT@DV?$StrTraitMFC@DV?$ChTraitsCRT@D@ATL@@@@@ATL@@QAE@PBDPAUIAtlStringMgr@1@@Z$0
__ehfuncinfo$??0?$CStringT@DV?$StrTraitMFC@DV?$ChTraitsCRT@D@ATL@@@@@ATL@@QAE@PBDPAUIAtlStringMgr@1@@Z DD 019930522H
	DD	01H
	DD	FLAT:__unwindtable$??0?$CStringT@DV?$StrTraitMFC@DV?$ChTraitsCRT@D@ATL@@@@@ATL@@QAE@PBDPAUIAtlStringMgr@1@@Z
	DD	2 DUP(00H)
	DD	2 DUP(00H)
	DD	00H
	DD	01H
xdata$x	ENDS
; Function compile flags: /Ogtp
; File C:\Program Files\Microsoft Visual Studio\2022\Professional\VC\Tools\MSVC\14.44.35207\include\xutility
;	COMDAT ??$_Copy_memmove_tail@PAK@std@@YAPAKQBDQAKII@Z
_TEXT	SEGMENT
__First_ch$ = 8						; size = 4
__Dest$ = 12						; size = 4
__Byte_count$ = 16					; size = 4
__Object_count$ = 20					; size = 4
??$_Copy_memmove_tail@PAK@std@@YAPAKQBDQAKII@Z PROC	; std::_Copy_memmove_tail<unsigned long *>, COMDAT

; 4747 :     const char* const _First_ch, const _OutCtgIt _Dest, const size_t _Byte_count, const size_t _Object_count) {

  00000	55		 push	 ebp
  00001	8b ec		 mov	 ebp, esp
  00003	56		 push	 esi

; 4748 :     _STL_INTERNAL_CHECK(_Byte_count == _Object_count * sizeof(*_Dest));
; 4749 :     const auto _Dest_ptr = _STD _To_address(_Dest);
; 4750 :     const auto _Dest_ch  = const_cast<char*>(reinterpret_cast<const volatile char*>(_Dest_ptr));
; 4751 :     _CSTD memmove(_Dest_ch, _First_ch, _Byte_count);

  00004	8b 75 0c	 mov	 esi, DWORD PTR __Dest$[ebp]
  00007	57		 push	 edi
  00008	8b 7d 10	 mov	 edi, DWORD PTR __Byte_count$[ebp]
  0000b	57		 push	 edi
  0000c	ff 75 08	 push	 DWORD PTR __First_ch$[ebp]
  0000f	56		 push	 esi
  00010	e8 00 00 00 00	 call	 _memmove
  00015	83 c4 0c	 add	 esp, 12			; 0000000cH

; 4752 :     if constexpr (is_pointer_v<_OutCtgIt>) {
; 4753 :         (void) _Object_count;
; 4754 :         // CodeQL [SM02986] This cast is correct: we're bypassing pointer arithmetic for performance.
; 4755 :         return reinterpret_cast<_OutCtgIt>(_Dest_ch + _Byte_count);

  00018	8d 04 3e	 lea	 eax, DWORD PTR [esi+edi]
  0001b	5f		 pop	 edi
  0001c	5e		 pop	 esi

; 4756 :     } else {
; 4757 :         return _Dest + static_cast<_Iter_diff_t<_OutCtgIt>>(_Object_count);
; 4758 :     }
; 4759 : }

  0001d	5d		 pop	 ebp
  0001e	c3		 ret	 0
??$_Copy_memmove_tail@PAK@std@@YAPAKQBDQAKII@Z ENDP	; std::_Copy_memmove_tail<unsigned long *>
_TEXT	ENDS
; Function compile flags: /Ogtp
; File C:\Program Files\Microsoft Visual Studio\2022\Professional\VC\Tools\MSVC\14.44.35207\include\xutility
;	COMDAT ??$_Copy_memmove_tail@PAH@std@@YAPAHQBDQAHII@Z
_TEXT	SEGMENT
__First_ch$ = 8						; size = 4
__Dest$ = 12						; size = 4
__Byte_count$ = 16					; size = 4
__Object_count$ = 20					; size = 4
??$_Copy_memmove_tail@PAH@std@@YAPAHQBDQAHII@Z PROC	; std::_Copy_memmove_tail<int *>, COMDAT

; 4747 :     const char* const _First_ch, const _OutCtgIt _Dest, const size_t _Byte_count, const size_t _Object_count) {

  00000	55		 push	 ebp
  00001	8b ec		 mov	 ebp, esp
  00003	56		 push	 esi

; 4748 :     _STL_INTERNAL_CHECK(_Byte_count == _Object_count * sizeof(*_Dest));
; 4749 :     const auto _Dest_ptr = _STD _To_address(_Dest);
; 4750 :     const auto _Dest_ch  = const_cast<char*>(reinterpret_cast<const volatile char*>(_Dest_ptr));
; 4751 :     _CSTD memmove(_Dest_ch, _First_ch, _Byte_count);

  00004	8b 75 0c	 mov	 esi, DWORD PTR __Dest$[ebp]
  00007	57		 push	 edi
  00008	8b 7d 10	 mov	 edi, DWORD PTR __Byte_count$[ebp]
  0000b	57		 push	 edi
  0000c	ff 75 08	 push	 DWORD PTR __First_ch$[ebp]
  0000f	56		 push	 esi
  00010	e8 00 00 00 00	 call	 _memmove
  00015	83 c4 0c	 add	 esp, 12			; 0000000cH

; 4752 :     if constexpr (is_pointer_v<_OutCtgIt>) {
; 4753 :         (void) _Object_count;
; 4754 :         // CodeQL [SM02986] This cast is correct: we're bypassing pointer arithmetic for performance.
; 4755 :         return reinterpret_cast<_OutCtgIt>(_Dest_ch + _Byte_count);

  00018	8d 04 3e	 lea	 eax, DWORD PTR [esi+edi]
  0001b	5f		 pop	 edi
  0001c	5e		 pop	 esi

; 4756 :     } else {
; 4757 :         return _Dest + static_cast<_Iter_diff_t<_OutCtgIt>>(_Object_count);
; 4758 :     }
; 4759 : }

  0001d	5d		 pop	 ebp
  0001e	c3		 ret	 0
??$_Copy_memmove_tail@PAH@std@@YAPAHQBDQAHII@Z ENDP	; std::_Copy_memmove_tail<int *>
_TEXT	ENDS
; Function compile flags: /Ogtp
; File C:\Program Files\Microsoft Visual Studio\2022\Professional\VC\Tools\MSVC\14.44.35207\include\xutility
;	COMDAT ??$_Copy_memmove@PAKPAK@std@@YAPAKPAK00@Z
_TEXT	SEGMENT
__First$ = 8						; size = 4
__Last$ = 12						; size = 4
__Dest$ = 16						; size = 4
??$_Copy_memmove@PAKPAK@std@@YAPAKPAK00@Z PROC		; std::_Copy_memmove<unsigned long *,unsigned long *>, COMDAT

; 4762 : _OutCtgIt _Copy_memmove(_CtgIt _First, _CtgIt _Last, _OutCtgIt _Dest) {

  00000	55		 push	 ebp
  00001	8b ec		 mov	 ebp, esp

; 4763 :     _STL_INTERNAL_CHECK(_First <= _Last);
; 4764 :     const auto _First_ptr    = _STD _To_address(_First);
; 4765 :     const auto _Last_ptr     = _STD _To_address(_Last);
; 4766 :     const auto _Object_count = static_cast<size_t>(_Last_ptr - _First_ptr);

  00003	8b 55 08	 mov	 edx, DWORD PTR __First$[ebp]
  00006	8b 4d 0c	 mov	 ecx, DWORD PTR __Last$[ebp]
  00009	2b ca		 sub	 ecx, edx
  0000b	8b c1		 mov	 eax, ecx
  0000d	c1 f8 02	 sar	 eax, 2

; 4767 :     const auto _First_ch     = const_cast<const char*>(reinterpret_cast<const volatile char*>(_First_ptr));
; 4768 :     const auto _Last_ch      = const_cast<const char*>(reinterpret_cast<const volatile char*>(_Last_ptr));
; 4769 :     const auto _Byte_count   = static_cast<size_t>(_Last_ch - _First_ch);
; 4770 :     return _STD _Copy_memmove_tail(_First_ch, _STD move(_Dest), _Byte_count, _Object_count);

  00010	50		 push	 eax
  00011	51		 push	 ecx
  00012	ff 75 10	 push	 DWORD PTR __Dest$[ebp]
  00015	52		 push	 edx
  00016	e8 00 00 00 00	 call	 ??$_Copy_memmove_tail@PAK@std@@YAPAKQBDQAKII@Z ; std::_Copy_memmove_tail<unsigned long *>
  0001b	83 c4 10	 add	 esp, 16			; 00000010H

; 4771 : }

  0001e	5d		 pop	 ebp
  0001f	c3		 ret	 0
??$_Copy_memmove@PAKPAK@std@@YAPAKPAK00@Z ENDP		; std::_Copy_memmove<unsigned long *,unsigned long *>
_TEXT	ENDS
; Function compile flags: /Ogtp
; File C:\Program Files\Microsoft Visual Studio\2022\Professional\VC\Tools\MSVC\14.44.35207\include\xutility
;	COMDAT ??$_Copy_memmove@PAHPAH@std@@YAPAHPAH00@Z
_TEXT	SEGMENT
__First$ = 8						; size = 4
__Last$ = 12						; size = 4
__Dest$ = 16						; size = 4
??$_Copy_memmove@PAHPAH@std@@YAPAHPAH00@Z PROC		; std::_Copy_memmove<int *,int *>, COMDAT

; 4762 : _OutCtgIt _Copy_memmove(_CtgIt _First, _CtgIt _Last, _OutCtgIt _Dest) {

  00000	55		 push	 ebp
  00001	8b ec		 mov	 ebp, esp

; 4763 :     _STL_INTERNAL_CHECK(_First <= _Last);
; 4764 :     const auto _First_ptr    = _STD _To_address(_First);
; 4765 :     const auto _Last_ptr     = _STD _To_address(_Last);
; 4766 :     const auto _Object_count = static_cast<size_t>(_Last_ptr - _First_ptr);

  00003	8b 55 08	 mov	 edx, DWORD PTR __First$[ebp]
  00006	8b 4d 0c	 mov	 ecx, DWORD PTR __Last$[ebp]
  00009	2b ca		 sub	 ecx, edx
  0000b	8b c1		 mov	 eax, ecx
  0000d	c1 f8 02	 sar	 eax, 2

; 4767 :     const auto _First_ch     = const_cast<const char*>(reinterpret_cast<const volatile char*>(_First_ptr));
; 4768 :     const auto _Last_ch      = const_cast<const char*>(reinterpret_cast<const volatile char*>(_Last_ptr));
; 4769 :     const auto _Byte_count   = static_cast<size_t>(_Last_ch - _First_ch);
; 4770 :     return _STD _Copy_memmove_tail(_First_ch, _STD move(_Dest), _Byte_count, _Object_count);

  00010	50		 push	 eax
  00011	51		 push	 ecx
  00012	ff 75 10	 push	 DWORD PTR __Dest$[ebp]
  00015	52		 push	 edx
  00016	e8 00 00 00 00	 call	 ??$_Copy_memmove_tail@PAH@std@@YAPAHQBDQAHII@Z ; std::_Copy_memmove_tail<int *>
  0001b	83 c4 10	 add	 esp, 16			; 00000010H

; 4771 : }

  0001e	5d		 pop	 ebp
  0001f	c3		 ret	 0
??$_Copy_memmove@PAHPAH@std@@YAPAHPAH00@Z ENDP		; std::_Copy_memmove<int *,int *>
_TEXT	ENDS
; Function compile flags: /Ogtp
; File C:\Program Files\Microsoft Visual Studio\2022\Professional\VC\Tools\MSVC\14.44.35207\include\xtree
; File C:\Program Files\Microsoft Visual Studio\2022\Professional\VC\Tools\MSVC\14.44.35207\include\deque
; File C:\Program Files\Microsoft Visual Studio\2022\Professional\VC\Tools\MSVC\14.44.35207\include\xmemory
; File C:\Program Files\Microsoft Visual Studio\2022\Professional\VC\Tools\MSVC\14.44.35207\include\deque
; File C:\Program Files\Microsoft Visual Studio\2022\Professional\VC\Tools\MSVC\14.44.35207\include\xmemory
; File C:\Program Files\Microsoft Visual Studio\2022\Professional\VC\Tools\MSVC\14.44.35207\include\deque
; File C:\Program Files\Microsoft Visual Studio\2022\Professional\VC\Tools\MSVC\14.44.35207\include\utility
; File C:\Program Files\Microsoft Visual Studio\2022\Professional\VC\Tools\MSVC\14.44.35207\include\xmemory
; File C:\Program Files\Microsoft Visual Studio\2022\Professional\VC\Tools\MSVC\14.44.35207\include\utility
; File C:\Program Files\Microsoft Visual Studio\2022\Professional\VC\Tools\MSVC\14.44.35207\include\xmemory
; File C:\Program Files\Microsoft Visual Studio\2022\Professional\VC\Tools\MSVC\14.44.35207\include\xtree
; File C:\Program Files\Microsoft Visual Studio\2022\Professional\VC\Tools\MSVC\14.44.35207\include\xmemory
; File C:\Program Files\Microsoft Visual Studio\2022\Professional\VC\Tools\MSVC\14.44.35207\include\xtree
;	COMDAT ??$_Freenode@V?$allocator@U?$_Tree_node@U?$pair@$$CBKV?$queue@USFXHIT_INFO@@V?$deque@USFXHIT_INFO@@V?$allocator@USFXHIT_INFO@@@std@@@std@@@std@@@std@@PAX@std@@@std@@@?$_Tree_node@U?$pair@$$CBKV?$queue@USFXHIT_INFO@@V?$deque@USFXHIT_INFO@@V?$allocator@USFXHIT_INFO@@@std@@@std@@@std@@@std@@PAX@std@@SAXAAV?$allocator@U?$_Tree_node@U?$pair@$$CBKV?$queue@USFXHIT_INFO@@V?$deque@USFXHIT_INFO@@V?$allocator@USFXHIT_INFO@@@std@@@std@@@std@@@std@@PAX@std@@@1@PAU01@@Z
_TEXT	SEGMENT
__Al$ = 8						; size = 4
__Ptr$ = 12						; size = 4
??$_Freenode@V?$allocator@U?$_Tree_node@U?$pair@$$CBKV?$queue@USFXHIT_INFO@@V?$deque@USFXHIT_INFO@@V?$allocator@USFXHIT_INFO@@@std@@@std@@@std@@@std@@PAX@std@@@std@@@?$_Tree_node@U?$pair@$$CBKV?$queue@USFXHIT_INFO@@V?$deque@USFXHIT_INFO@@V?$allocator@USFXHIT_INFO@@@std@@@std@@@std@@@std@@PAX@std@@SAXAAV?$allocator@U?$_Tree_node@U?$pair@$$CBKV?$queue@USFXHIT_INFO@@V?$deque@USFXHIT_INFO@@V?$allocator@USFXHIT_INFO@@@std@@@std@@@std@@@std@@PAX@std@@@1@PAU01@@Z PROC ; std::_Tree_node<std::pair<unsigned long const ,std::queue<SFXHIT_INFO,std::deque<SFXHIT_INFO,std::allocator<SFXHIT_INFO> > > >,void *>::_Freenode<std::allocator<std::_Tree_node<std::pair<unsigned long const ,std::queue<SFXHIT_INFO,std::deque<SFXHIT_INFO,std::allocator<SFXHIT_INFO> > > >,void *> > >, COMDAT

; 379  :     static void _Freenode(_Alloc& _Al, _Nodeptr _Ptr) noexcept {

  00000	55		 push	 ebp
  00001	8b ec		 mov	 ebp, esp
  00003	56		 push	 esi

; 380  :         static_assert(is_same_v<typename _Alloc::value_type, _Tree_node>, "Bad _Freenode call");
; 381  :         allocator_traits<_Alloc>::destroy(_Al, _STD addressof(_Ptr->_Myval));

  00004	8b 75 0c	 mov	 esi, DWORD PTR __Ptr$[ebp]
; File C:\Program Files\Microsoft Visual Studio\2022\Professional\VC\Tools\MSVC\14.44.35207\include\deque

; 971  :         return _Mysize() == 0;

  00007	8b 4e 24	 mov	 ecx, DWORD PTR [esi+36]
  0000a	85 c9		 test	 ecx, ecx

; 1673 :         while (!empty()) {

  0000c	74 11		 je	 SHORT $LN134@Freenode
  0000e	66 90		 npad	 2
$LL24@Freenode:

; 1513 :         if (--_Mysize() == 0) {

  00010	8d 41 ff	 lea	 eax, DWORD PTR [ecx-1]
  00013	89 46 24	 mov	 DWORD PTR [esi+36], eax
  00016	8b c8		 mov	 ecx, eax
  00018	85 c0		 test	 eax, eax
  0001a	75 f4		 jne	 SHORT $LL24@Freenode

; 1514 :             _Myoff() = 0;

  0001c	89 46 20	 mov	 DWORD PTR [esi+32], eax
$LN134@Freenode:

; 1677 :         if (_Map() != nullptr) {

  0001f	83 7e 18 00	 cmp	 DWORD PTR [esi+24], 0
  00023	74 61		 je	 SHORT $LN47@Freenode
  00025	57		 push	 edi

; 1654 :         for (auto _Block = _Map_distance(); _Block > 0;) { // free storage for a block and destroy pointer

  00026	8b 7e 1c	 mov	 edi, DWORD PTR [esi+28]
  00029	85 ff		 test	 edi, edi
  0002b	7e 1d		 jle	 SHORT $LN131@Freenode
  0002d	0f 1f 00	 npad	 3
$LL45@Freenode:

; 1655 :             --_Block;
; 1656 :             auto& _Block_ptr = _Map()[_Block];
; 1657 :             if (_Block_ptr) { // free block

  00030	8b 46 18	 mov	 eax, DWORD PTR [esi+24]
  00033	4f		 dec	 edi
  00034	8b 04 b8	 mov	 eax, DWORD PTR [eax+edi*4]
  00037	85 c0		 test	 eax, eax
  00039	74 0b		 je	 SHORT $LN43@Freenode
; File C:\Program Files\Microsoft Visual Studio\2022\Professional\VC\Tools\MSVC\14.44.35207\include\xmemory

; 289  :         ::operator delete(_Ptr, _Bytes);

  0003b	6a 24		 push	 36			; 00000024H
  0003d	50		 push	 eax
  0003e	e8 00 00 00 00	 call	 ??3@YAXPAXI@Z		; operator delete
  00043	83 c4 08	 add	 esp, 8
$LN43@Freenode:
; File C:\Program Files\Microsoft Visual Studio\2022\Professional\VC\Tools\MSVC\14.44.35207\include\deque

; 1654 :         for (auto _Block = _Map_distance(); _Block > 0;) { // free storage for a block and destroy pointer

  00046	85 ff		 test	 edi, edi
  00048	7f e6		 jg	 SHORT $LL45@Freenode
$LN131@Freenode:
; File C:\Program Files\Microsoft Visual Studio\2022\Professional\VC\Tools\MSVC\14.44.35207\include\xmemory

; 985  :         _STD _Deallocate<_New_alignof<_Ty>>(_Ptr, sizeof(_Ty) * _Count);

  0004a	8b 4e 1c	 mov	 ecx, DWORD PTR [esi+28]
  0004d	8b 46 18	 mov	 eax, DWORD PTR [esi+24]
  00050	c1 e1 02	 shl	 ecx, 2
  00053	5f		 pop	 edi

; 284  :         if (_Bytes >= _Big_allocation_threshold) {

  00054	81 f9 00 10 00
	00		 cmp	 ecx, 4096		; 00001000H
  0005a	72 12		 jb	 SHORT $LN73@Freenode

; 205  :     const uintptr_t _Ptr_container   = _Ptr_user[-1];

  0005c	8b 50 fc	 mov	 edx, DWORD PTR [eax-4]
  0005f	83 c1 23	 add	 ecx, 35			; 00000023H

; 206  : 
; 207  :     // If the following asserts, it likely means that we are performing
; 208  :     // an aligned delete on memory coming from an unaligned allocation.
; 209  :     _STL_ASSERT(_Ptr_user[-2] == _Big_allocation_sentinel, "invalid argument");
; 210  : 
; 211  :     // Extra paranoia on aligned allocation/deallocation; ensure _Ptr_container is
; 212  :     // in range [_Min_back_shift, _Non_user_size]
; 213  : #ifdef _DEBUG
; 214  :     constexpr uintptr_t _Min_back_shift = 2 * sizeof(void*);
; 215  : #else // ^^^ defined(_DEBUG) / !defined(_DEBUG) vvv
; 216  :     constexpr uintptr_t _Min_back_shift = sizeof(void*);
; 217  : #endif // ^^^ !defined(_DEBUG) ^^^
; 218  :     const uintptr_t _Back_shift = reinterpret_cast<uintptr_t>(_Ptr) - _Ptr_container;

  00062	2b c2		 sub	 eax, edx

; 219  :     _STL_VERIFY(_Back_shift >= _Min_back_shift && _Back_shift <= _Non_user_size, "invalid argument");

  00064	83 c0 fc	 add	 eax, -4			; fffffffcH
  00067	83 f8 1f	 cmp	 eax, 31			; 0000001fH
  0006a	77 3a		 ja	 SHORT $LN72@Freenode

; 220  :     _Ptr = reinterpret_cast<void*>(_Ptr_container);

  0006c	8b c2		 mov	 eax, edx
$LN73@Freenode:

; 289  :         ::operator delete(_Ptr, _Bytes);

  0006e	51		 push	 ecx
  0006f	50		 push	 eax
  00070	e8 00 00 00 00	 call	 ??3@YAXPAXI@Z		; operator delete
  00075	83 c4 08	 add	 esp, 8
; File C:\Program Files\Microsoft Visual Studio\2022\Professional\VC\Tools\MSVC\14.44.35207\include\deque

; 1666 :         _Map()     = nullptr;

  00078	c7 46 18 00 00
	00 00		 mov	 DWORD PTR [esi+24], 0

; 1667 :         _Mapsize() = 0;

  0007f	c7 46 1c 00 00
	00 00		 mov	 DWORD PTR [esi+28], 0
$LN47@Freenode:
; File C:\Program Files\Microsoft Visual Studio\2022\Professional\VC\Tools\MSVC\14.44.35207\include\utility

; 773  :     _Ty _Old_val = static_cast<_Ty&&>(_Val);

  00086	8b 46 14	 mov	 eax, DWORD PTR [esi+20]
; File C:\Program Files\Microsoft Visual Studio\2022\Professional\VC\Tools\MSVC\14.44.35207\include\xmemory

; 289  :         ::operator delete(_Ptr, _Bytes);

  00089	6a 08		 push	 8
  0008b	50		 push	 eax
; File C:\Program Files\Microsoft Visual Studio\2022\Professional\VC\Tools\MSVC\14.44.35207\include\utility

; 774  :     _Val         = static_cast<_Other&&>(_New_val);

  0008c	c7 46 14 00 00
	00 00		 mov	 DWORD PTR [esi+20], 0
; File C:\Program Files\Microsoft Visual Studio\2022\Professional\VC\Tools\MSVC\14.44.35207\include\xmemory

; 289  :         ::operator delete(_Ptr, _Bytes);

  00093	e8 00 00 00 00	 call	 ??3@YAXPAXI@Z		; operator delete
  00098	6a 28		 push	 40			; 00000028H
  0009a	56		 push	 esi
  0009b	e8 00 00 00 00	 call	 ??3@YAXPAXI@Z		; operator delete
  000a0	83 c4 10	 add	 esp, 16			; 00000010H
  000a3	5e		 pop	 esi
; File C:\Program Files\Microsoft Visual Studio\2022\Professional\VC\Tools\MSVC\14.44.35207\include\xtree

; 383  :     }

  000a4	5d		 pop	 ebp
  000a5	c3		 ret	 0
$LN72@Freenode:
; File C:\Program Files\Microsoft Visual Studio\2022\Professional\VC\Tools\MSVC\14.44.35207\include\xmemory

; 219  :     _STL_VERIFY(_Back_shift >= _Min_back_shift && _Back_shift <= _Non_user_size, "invalid argument");

  000a6	6a 00		 push	 0
  000a8	6a 00		 push	 0
  000aa	6a 00		 push	 0
  000ac	6a 00		 push	 0
  000ae	6a 00		 push	 0
  000b0	e8 00 00 00 00	 call	 __invoke_watson
$LN143@Freenode:
  000b5	cc		 int	 3
??$_Freenode@V?$allocator@U?$_Tree_node@U?$pair@$$CBKV?$queue@USFXHIT_INFO@@V?$deque@USFXHIT_INFO@@V?$allocator@USFXHIT_INFO@@@std@@@std@@@std@@@std@@PAX@std@@@std@@@?$_Tree_node@U?$pair@$$CBKV?$queue@USFXHIT_INFO@@V?$deque@USFXHIT_INFO@@V?$allocator@USFXHIT_INFO@@@std@@@std@@@std@@@std@@PAX@std@@SAXAAV?$allocator@U?$_Tree_node@U?$pair@$$CBKV?$queue@USFXHIT_INFO@@V?$deque@USFXHIT_INFO@@V?$allocator@USFXHIT_INFO@@@std@@@std@@@std@@@std@@PAX@std@@@1@PAU01@@Z ENDP ; std::_Tree_node<std::pair<unsigned long const ,std::queue<SFXHIT_INFO,std::deque<SFXHIT_INFO,std::allocator<SFXHIT_INFO> > > >,void *>::_Freenode<std::allocator<std::_Tree_node<std::pair<unsigned long const ,std::queue<SFXHIT_INFO,std::deque<SFXHIT_INFO,std::allocator<SFXHIT_INFO> > > >,void *> > >
_TEXT	ENDS
; Function compile flags: /Ogtp
; File C:\Program Files\Microsoft Visual Studio\2022\Professional\VC\Tools\MSVC\14.44.35207\include\xtree
; File C:\Program Files\Microsoft Visual Studio\2022\Professional\VC\Tools\MSVC\14.44.35207\include\deque
; File C:\Program Files\Microsoft Visual Studio\2022\Professional\VC\Tools\MSVC\14.44.35207\include\xmemory
; File C:\Program Files\Microsoft Visual Studio\2022\Professional\VC\Tools\MSVC\14.44.35207\include\deque
; File C:\Program Files\Microsoft Visual Studio\2022\Professional\VC\Tools\MSVC\14.44.35207\include\xmemory
; File C:\Program Files\Microsoft Visual Studio\2022\Professional\VC\Tools\MSVC\14.44.35207\include\deque
; File C:\Program Files\Microsoft Visual Studio\2022\Professional\VC\Tools\MSVC\14.44.35207\include\utility
; File C:\Program Files\Microsoft Visual Studio\2022\Professional\VC\Tools\MSVC\14.44.35207\include\xmemory
; File C:\Program Files\Microsoft Visual Studio\2022\Professional\VC\Tools\MSVC\14.44.35207\include\utility
; File C:\Program Files\Microsoft Visual Studio\2022\Professional\VC\Tools\MSVC\14.44.35207\include\xmemory
; File C:\Program Files\Microsoft Visual Studio\2022\Professional\VC\Tools\MSVC\14.44.35207\include\xtree
; File C:\Program Files\Microsoft Visual Studio\2022\Professional\VC\Tools\MSVC\14.44.35207\include\xmemory
; File C:\Program Files\Microsoft Visual Studio\2022\Professional\VC\Tools\MSVC\14.44.35207\include\xtree
;	COMDAT ??$_Freenode@V?$allocator@U?$_Tree_node@U?$pair@$$CBKV?$queue@USFXHIT_COUNT@@V?$deque@USFXHIT_COUNT@@V?$allocator@USFXHIT_COUNT@@@std@@@std@@@std@@@std@@PAX@std@@@std@@@?$_Tree_node@U?$pair@$$CBKV?$queue@USFXHIT_COUNT@@V?$deque@USFXHIT_COUNT@@V?$allocator@USFXHIT_COUNT@@@std@@@std@@@std@@@std@@PAX@std@@SAXAAV?$allocator@U?$_Tree_node@U?$pair@$$CBKV?$queue@USFXHIT_COUNT@@V?$deque@USFXHIT_COUNT@@V?$allocator@USFXHIT_COUNT@@@std@@@std@@@std@@@std@@PAX@std@@@1@PAU01@@Z
_TEXT	SEGMENT
__Al$ = 8						; size = 4
__Ptr$ = 12						; size = 4
??$_Freenode@V?$allocator@U?$_Tree_node@U?$pair@$$CBKV?$queue@USFXHIT_COUNT@@V?$deque@USFXHIT_COUNT@@V?$allocator@USFXHIT_COUNT@@@std@@@std@@@std@@@std@@PAX@std@@@std@@@?$_Tree_node@U?$pair@$$CBKV?$queue@USFXHIT_COUNT@@V?$deque@USFXHIT_COUNT@@V?$allocator@USFXHIT_COUNT@@@std@@@std@@@std@@@std@@PAX@std@@SAXAAV?$allocator@U?$_Tree_node@U?$pair@$$CBKV?$queue@USFXHIT_COUNT@@V?$deque@USFXHIT_COUNT@@V?$allocator@USFXHIT_COUNT@@@std@@@std@@@std@@@std@@PAX@std@@@1@PAU01@@Z PROC ; std::_Tree_node<std::pair<unsigned long const ,std::queue<SFXHIT_COUNT,std::deque<SFXHIT_COUNT,std::allocator<SFXHIT_COUNT> > > >,void *>::_Freenode<std::allocator<std::_Tree_node<std::pair<unsigned long const ,std::queue<SFXHIT_COUNT,std::deque<SFXHIT_COUNT,std::allocator<SFXHIT_COUNT> > > >,void *> > >, COMDAT

; 379  :     static void _Freenode(_Alloc& _Al, _Nodeptr _Ptr) noexcept {

  00000	55		 push	 ebp
  00001	8b ec		 mov	 ebp, esp
  00003	56		 push	 esi

; 380  :         static_assert(is_same_v<typename _Alloc::value_type, _Tree_node>, "Bad _Freenode call");
; 381  :         allocator_traits<_Alloc>::destroy(_Al, _STD addressof(_Ptr->_Myval));

  00004	8b 75 0c	 mov	 esi, DWORD PTR __Ptr$[ebp]
; File C:\Program Files\Microsoft Visual Studio\2022\Professional\VC\Tools\MSVC\14.44.35207\include\deque

; 971  :         return _Mysize() == 0;

  00007	8b 4e 24	 mov	 ecx, DWORD PTR [esi+36]
  0000a	85 c9		 test	 ecx, ecx

; 1673 :         while (!empty()) {

  0000c	74 11		 je	 SHORT $LN134@Freenode
  0000e	66 90		 npad	 2
$LL24@Freenode:

; 1513 :         if (--_Mysize() == 0) {

  00010	8d 41 ff	 lea	 eax, DWORD PTR [ecx-1]
  00013	89 46 24	 mov	 DWORD PTR [esi+36], eax
  00016	8b c8		 mov	 ecx, eax
  00018	85 c0		 test	 eax, eax
  0001a	75 f4		 jne	 SHORT $LL24@Freenode

; 1514 :             _Myoff() = 0;

  0001c	89 46 20	 mov	 DWORD PTR [esi+32], eax
$LN134@Freenode:

; 1677 :         if (_Map() != nullptr) {

  0001f	83 7e 18 00	 cmp	 DWORD PTR [esi+24], 0
  00023	74 61		 je	 SHORT $LN47@Freenode
  00025	57		 push	 edi

; 1654 :         for (auto _Block = _Map_distance(); _Block > 0;) { // free storage for a block and destroy pointer

  00026	8b 7e 1c	 mov	 edi, DWORD PTR [esi+28]
  00029	85 ff		 test	 edi, edi
  0002b	7e 1d		 jle	 SHORT $LN131@Freenode
  0002d	0f 1f 00	 npad	 3
$LL45@Freenode:

; 1655 :             --_Block;
; 1656 :             auto& _Block_ptr = _Map()[_Block];
; 1657 :             if (_Block_ptr) { // free block

  00030	8b 46 18	 mov	 eax, DWORD PTR [esi+24]
  00033	4f		 dec	 edi
  00034	8b 04 b8	 mov	 eax, DWORD PTR [eax+edi*4]
  00037	85 c0		 test	 eax, eax
  00039	74 0b		 je	 SHORT $LN43@Freenode
; File C:\Program Files\Microsoft Visual Studio\2022\Professional\VC\Tools\MSVC\14.44.35207\include\xmemory

; 289  :         ::operator delete(_Ptr, _Bytes);

  0003b	6a 10		 push	 16			; 00000010H
  0003d	50		 push	 eax
  0003e	e8 00 00 00 00	 call	 ??3@YAXPAXI@Z		; operator delete
  00043	83 c4 08	 add	 esp, 8
$LN43@Freenode:
; File C:\Program Files\Microsoft Visual Studio\2022\Professional\VC\Tools\MSVC\14.44.35207\include\deque

; 1654 :         for (auto _Block = _Map_distance(); _Block > 0;) { // free storage for a block and destroy pointer

  00046	85 ff		 test	 edi, edi
  00048	7f e6		 jg	 SHORT $LL45@Freenode
$LN131@Freenode:
; File C:\Program Files\Microsoft Visual Studio\2022\Professional\VC\Tools\MSVC\14.44.35207\include\xmemory

; 985  :         _STD _Deallocate<_New_alignof<_Ty>>(_Ptr, sizeof(_Ty) * _Count);

  0004a	8b 4e 1c	 mov	 ecx, DWORD PTR [esi+28]
  0004d	8b 46 18	 mov	 eax, DWORD PTR [esi+24]
  00050	c1 e1 02	 shl	 ecx, 2
  00053	5f		 pop	 edi

; 284  :         if (_Bytes >= _Big_allocation_threshold) {

  00054	81 f9 00 10 00
	00		 cmp	 ecx, 4096		; 00001000H
  0005a	72 12		 jb	 SHORT $LN73@Freenode

; 205  :     const uintptr_t _Ptr_container   = _Ptr_user[-1];

  0005c	8b 50 fc	 mov	 edx, DWORD PTR [eax-4]
  0005f	83 c1 23	 add	 ecx, 35			; 00000023H

; 206  : 
; 207  :     // If the following asserts, it likely means that we are performing
; 208  :     // an aligned delete on memory coming from an unaligned allocation.
; 209  :     _STL_ASSERT(_Ptr_user[-2] == _Big_allocation_sentinel, "invalid argument");
; 210  : 
; 211  :     // Extra paranoia on aligned allocation/deallocation; ensure _Ptr_container is
; 212  :     // in range [_Min_back_shift, _Non_user_size]
; 213  : #ifdef _DEBUG
; 214  :     constexpr uintptr_t _Min_back_shift = 2 * sizeof(void*);
; 215  : #else // ^^^ defined(_DEBUG) / !defined(_DEBUG) vvv
; 216  :     constexpr uintptr_t _Min_back_shift = sizeof(void*);
; 217  : #endif // ^^^ !defined(_DEBUG) ^^^
; 218  :     const uintptr_t _Back_shift = reinterpret_cast<uintptr_t>(_Ptr) - _Ptr_container;

  00062	2b c2		 sub	 eax, edx

; 219  :     _STL_VERIFY(_Back_shift >= _Min_back_shift && _Back_shift <= _Non_user_size, "invalid argument");

  00064	83 c0 fc	 add	 eax, -4			; fffffffcH
  00067	83 f8 1f	 cmp	 eax, 31			; 0000001fH
  0006a	77 3a		 ja	 SHORT $LN72@Freenode

; 220  :     _Ptr = reinterpret_cast<void*>(_Ptr_container);

  0006c	8b c2		 mov	 eax, edx
$LN73@Freenode:

; 289  :         ::operator delete(_Ptr, _Bytes);

  0006e	51		 push	 ecx
  0006f	50		 push	 eax
  00070	e8 00 00 00 00	 call	 ??3@YAXPAXI@Z		; operator delete
  00075	83 c4 08	 add	 esp, 8
; File C:\Program Files\Microsoft Visual Studio\2022\Professional\VC\Tools\MSVC\14.44.35207\include\deque

; 1666 :         _Map()     = nullptr;

  00078	c7 46 18 00 00
	00 00		 mov	 DWORD PTR [esi+24], 0

; 1667 :         _Mapsize() = 0;

  0007f	c7 46 1c 00 00
	00 00		 mov	 DWORD PTR [esi+28], 0
$LN47@Freenode:
; File C:\Program Files\Microsoft Visual Studio\2022\Professional\VC\Tools\MSVC\14.44.35207\include\utility

; 773  :     _Ty _Old_val = static_cast<_Ty&&>(_Val);

  00086	8b 46 14	 mov	 eax, DWORD PTR [esi+20]
; File C:\Program Files\Microsoft Visual Studio\2022\Professional\VC\Tools\MSVC\14.44.35207\include\xmemory

; 289  :         ::operator delete(_Ptr, _Bytes);

  00089	6a 08		 push	 8
  0008b	50		 push	 eax
; File C:\Program Files\Microsoft Visual Studio\2022\Professional\VC\Tools\MSVC\14.44.35207\include\utility

; 774  :     _Val         = static_cast<_Other&&>(_New_val);

  0008c	c7 46 14 00 00
	00 00		 mov	 DWORD PTR [esi+20], 0
; File C:\Program Files\Microsoft Visual Studio\2022\Professional\VC\Tools\MSVC\14.44.35207\include\xmemory

; 289  :         ::operator delete(_Ptr, _Bytes);

  00093	e8 00 00 00 00	 call	 ??3@YAXPAXI@Z		; operator delete
  00098	6a 28		 push	 40			; 00000028H
  0009a	56		 push	 esi
  0009b	e8 00 00 00 00	 call	 ??3@YAXPAXI@Z		; operator delete
  000a0	83 c4 10	 add	 esp, 16			; 00000010H
  000a3	5e		 pop	 esi
; File C:\Program Files\Microsoft Visual Studio\2022\Professional\VC\Tools\MSVC\14.44.35207\include\xtree

; 383  :     }

  000a4	5d		 pop	 ebp
  000a5	c3		 ret	 0
$LN72@Freenode:
; File C:\Program Files\Microsoft Visual Studio\2022\Professional\VC\Tools\MSVC\14.44.35207\include\xmemory

; 219  :     _STL_VERIFY(_Back_shift >= _Min_back_shift && _Back_shift <= _Non_user_size, "invalid argument");

  000a6	6a 00		 push	 0
  000a8	6a 00		 push	 0
  000aa	6a 00		 push	 0
  000ac	6a 00		 push	 0
  000ae	6a 00		 push	 0
  000b0	e8 00 00 00 00	 call	 __invoke_watson
$LN143@Freenode:
  000b5	cc		 int	 3
??$_Freenode@V?$allocator@U?$_Tree_node@U?$pair@$$CBKV?$queue@USFXHIT_COUNT@@V?$deque@USFXHIT_COUNT@@V?$allocator@USFXHIT_COUNT@@@std@@@std@@@std@@@std@@PAX@std@@@std@@@?$_Tree_node@U?$pair@$$CBKV?$queue@USFXHIT_COUNT@@V?$deque@USFXHIT_COUNT@@V?$allocator@USFXHIT_COUNT@@@std@@@std@@@std@@@std@@PAX@std@@SAXAAV?$allocator@U?$_Tree_node@U?$pair@$$CBKV?$queue@USFXHIT_COUNT@@V?$deque@USFXHIT_COUNT@@V?$allocator@USFXHIT_COUNT@@@std@@@std@@@std@@@std@@PAX@std@@@1@PAU01@@Z ENDP ; std::_Tree_node<std::pair<unsigned long const ,std::queue<SFXHIT_COUNT,std::deque<SFXHIT_COUNT,std::allocator<SFXHIT_COUNT> > > >,void *>::_Freenode<std::allocator<std::_Tree_node<std::pair<unsigned long const ,std::queue<SFXHIT_COUNT,std::deque<SFXHIT_COUNT,std::allocator<SFXHIT_COUNT> > > >,void *> > >
_TEXT	ENDS
; Function compile flags: /Ogtp
; File C:\Program Files\Microsoft Visual Studio\2022\Professional\VC\Tools\MSVC\14.44.35207\include\xmemory
;	COMDAT ??1?$_Alloc_construct_ptr@V?$allocator@U?$_Tree_node@U?$pair@$$CBKUHIT_INFO@@@std@@PAX@std@@@std@@@std@@QAE@XZ
_TEXT	SEGMENT
??1?$_Alloc_construct_ptr@V?$allocator@U?$_Tree_node@U?$pair@$$CBKUHIT_INFO@@@std@@PAX@std@@@std@@@std@@QAE@XZ PROC ; std::_Alloc_construct_ptr<std::allocator<std::_Tree_node<std::pair<unsigned long const ,HIT_INFO>,void *> > >::~_Alloc_construct_ptr<std::allocator<std::_Tree_node<std::pair<unsigned long const ,HIT_INFO>,void *> > >, COMDAT
; _this$ = ecx

; 1172 :         if (_Ptr) {

  00000	8b 41 04	 mov	 eax, DWORD PTR [ecx+4]
  00003	85 c0		 test	 eax, eax
  00005	74 0b		 je	 SHORT $LN10@Alloc_cons

; 289  :         ::operator delete(_Ptr, _Bytes);

  00007	6a 1c		 push	 28			; 0000001cH
  00009	50		 push	 eax
  0000a	e8 00 00 00 00	 call	 ??3@YAXPAXI@Z		; operator delete
  0000f	83 c4 08	 add	 esp, 8
$LN10@Alloc_cons:

; 1173 :             _Al.deallocate(_Ptr, 1);
; 1174 :         }
; 1175 :     }

  00012	c3		 ret	 0
??1?$_Alloc_construct_ptr@V?$allocator@U?$_Tree_node@U?$pair@$$CBKUHIT_INFO@@@std@@PAX@std@@@std@@@std@@QAE@XZ ENDP ; std::_Alloc_construct_ptr<std::allocator<std::_Tree_node<std::pair<unsigned long const ,HIT_INFO>,void *> > >::~_Alloc_construct_ptr<std::allocator<std::_Tree_node<std::pair<unsigned long const ,HIT_INFO>,void *> > >
_TEXT	ENDS
; Function compile flags: /Ogtp
; File C:\Program Files\Microsoft Visual Studio\2022\Professional\VC\Tools\MSVC\14.44.35207\include\vector
; File C:\Program Files\Microsoft Visual Studio\2022\Professional\VC\Tools\MSVC\14.44.35207\include\xmemory
; File C:\Program Files\Microsoft Visual Studio\2022\Professional\VC\Tools\MSVC\14.44.35207\include\vector
; File C:\Program Files\Microsoft Visual Studio\2022\Professional\VC\Tools\MSVC\14.44.35207\include\xmemory
; File C:\Program Files\Microsoft Visual Studio\2022\Professional\VC\Tools\MSVC\14.44.35207\include\vector
; File C:\Program Files\Microsoft Visual Studio\2022\Professional\VC\Tools\MSVC\14.44.35207\include\xmemory
; File C:\Program Files\Microsoft Visual Studio\2022\Professional\VC\Tools\MSVC\14.44.35207\include\vector
; File C:\Program Files\Microsoft Visual Studio\2022\Professional\VC\Tools\MSVC\14.44.35207\include\xmemory
; File C:\Program Files\Microsoft Visual Studio\2022\Professional\VC\Tools\MSVC\14.44.35207\include\vector
; File C:\Program Files\Microsoft Visual Studio\2022\Professional\VC\Tools\MSVC\14.44.35207\include\xmemory
; File C:\Program Files\Microsoft Visual Studio\2022\Professional\VC\Tools\MSVC\14.44.35207\include\vector
; File C:\Program Files\Microsoft Visual Studio\2022\Professional\VC\Tools\MSVC\14.44.35207\include\xmemory
; File C:\Program Files\Microsoft Visual Studio\2022\Professional\VC\Tools\MSVC\14.44.35207\include\vector
; File C:\Program Files\Microsoft Visual Studio\2022\Professional\VC\Tools\MSVC\14.44.35207\include\xmemory
; File C:\Program Files\Microsoft Visual Studio\2022\Professional\VC\Tools\MSVC\14.44.35207\include\vector
; File C:\Program Files\Microsoft Visual Studio\2022\Professional\VC\Tools\MSVC\14.44.35207\include\xmemory
; File C:\Program Files\Microsoft Visual Studio\2022\Professional\VC\Tools\MSVC\14.44.35207\include\vector
;	COMDAT ??$_Emplace_reallocate@ABK@?$vector@KV?$allocator@K@std@@@std@@AAEPAKQAKABK@Z
_TEXT	SEGMENT
__Newsize$1$ = -12					; size = 4
tv652 = -8						; size = 4
tv650 = -4						; size = 4
__Whereptr$ = 8						; size = 4
_<_Val_0>$ = 12						; size = 4
??$_Emplace_reallocate@ABK@?$vector@KV?$allocator@K@std@@@std@@AAEPAKQAKABK@Z PROC ; std::vector<unsigned long,std::allocator<unsigned long> >::_Emplace_reallocate<unsigned long const &>, COMDAT
; _this$ = ecx

; 875  :     _CONSTEXPR20 pointer _Emplace_reallocate(const pointer _Whereptr, _Valty&&... _Val) {

  00000	55		 push	 ebp
  00001	8b ec		 mov	 ebp, esp
  00003	83 ec 0c	 sub	 esp, 12			; 0000000cH
  00006	53		 push	 ebx

; 876  :         // reallocate and insert by perfectly forwarding _Val at _Whereptr
; 877  :         _Alty& _Al        = _Getal();
; 878  :         auto& _My_data    = _Mypair._Myval2;
; 879  :         pointer& _Myfirst = _My_data._Myfirst;
; 880  :         pointer& _Mylast  = _My_data._Mylast;
; 881  : 
; 882  :         _STL_INTERNAL_CHECK(_Mylast == _My_data._Myend); // check that we have no unused capacity
; 883  : 
; 884  :         const auto _Whereoff = static_cast<size_type>(_Whereptr - _Myfirst);

  00007	8b 5d 08	 mov	 ebx, DWORD PTR __Whereptr$[ebp]
  0000a	56		 push	 esi
  0000b	8b f1		 mov	 esi, ecx
  0000d	57		 push	 edi
  0000e	8b 0e		 mov	 ecx, DWORD PTR [esi]
  00010	2b d9		 sub	 ebx, ecx

; 885  :         const auto _Oldsize  = static_cast<size_type>(_Mylast - _Myfirst);

  00012	8b 46 04	 mov	 eax, DWORD PTR [esi+4]
  00015	2b c1		 sub	 eax, ecx
  00017	c1 fb 02	 sar	 ebx, 2
  0001a	c1 f8 02	 sar	 eax, 2

; 886  : 
; 887  :         if (_Oldsize == max_size()) {

  0001d	3d ff ff ff 3f	 cmp	 eax, 1073741823		; 3fffffffH
  00022	0f 84 13 01 00
	00		 je	 $LN111@Emplace_re

; 1924 :         return static_cast<size_type>(_My_data._Myend - _My_data._Myfirst);

  00028	8b 56 08	 mov	 edx, DWORD PTR [esi+8]

; 889  :         }
; 890  : 
; 891  :         const size_type _Newsize = _Oldsize + 1;

  0002b	8d 78 01	 lea	 edi, DWORD PTR [eax+1]

; 1924 :         return static_cast<size_type>(_My_data._Myend - _My_data._Myfirst);

  0002e	2b d1		 sub	 edx, ecx

; 889  :         }
; 890  : 
; 891  :         const size_type _Newsize = _Oldsize + 1;

  00030	89 7d f4	 mov	 DWORD PTR __Newsize$1$[ebp], edi

; 1924 :         return static_cast<size_type>(_My_data._Myend - _My_data._Myfirst);

  00033	c1 fa 02	 sar	 edx, 2

; 2011 :         if (_Oldcapacity > _Max - _Oldcapacity / 2) {

  00036	b8 ff ff ff 3f	 mov	 eax, 1073741823		; 3fffffffH
  0003b	8b ca		 mov	 ecx, edx
  0003d	d1 e9		 shr	 ecx, 1
  0003f	2b c1		 sub	 eax, ecx
  00041	3b d0		 cmp	 edx, eax
  00043	76 14		 jbe	 SHORT $LN8@Emplace_re

; 2012 :             return _Max; // geometric growth would overflow

  00045	b8 fc ff ff ff	 mov	 eax, -4			; fffffffcH
  0004a	c7 45 f8 fc ff
	ff ff		 mov	 DWORD PTR tv652[ebp], -4 ; fffffffcH
; File C:\Program Files\Microsoft Visual Studio\2022\Professional\VC\Tools\MSVC\14.44.35207\include\xmemory

; 253  :             return _Allocate_manually_vector_aligned<_Traits>(_Bytes);

  00051	50		 push	 eax
  00052	e8 00 00 00 00	 call	 ??$_Allocate_manually_vector_aligned@U_Default_allocate_traits@std@@@std@@YAPAXI@Z ; std::_Allocate_manually_vector_aligned<std::_Default_allocate_traits>
  00057	eb 3d		 jmp	 SHORT $LN109@Emplace_re
$LN8@Emplace_re:
; File C:\Program Files\Microsoft Visual Studio\2022\Professional\VC\Tools\MSVC\14.44.35207\include\vector

; 2015 :         const size_type _Geometric = _Oldcapacity + _Oldcapacity / 2;

  00059	8d 04 11	 lea	 eax, DWORD PTR [ecx+edx]
; File C:\Program Files\Microsoft Visual Studio\2022\Professional\VC\Tools\MSVC\14.44.35207\include\xmemory

; 117  :         if (_Count > _Max_possible) {

  0005c	8b cf		 mov	 ecx, edi
  0005e	3b c7		 cmp	 eax, edi
  00060	0f 43 c8	 cmovae	 ecx, eax
  00063	81 f9 ff ff ff
	3f		 cmp	 ecx, 1073741823		; 3fffffffH
  00069	0f 87 d1 00 00
	00		 ja	 $LN112@Emplace_re

; 119  :         }
; 120  :     }
; 121  : 
; 122  :     return _Count * _Ty_size;

  0006f	8d 04 8d 00 00
	00 00		 lea	 eax, DWORD PTR [ecx*4]
  00076	89 45 f8	 mov	 DWORD PTR tv652[ebp], eax

; 227  :     if (_Bytes == 0) {

  00079	85 c0		 test	 eax, eax
  0007b	75 04		 jne	 SHORT $LN23@Emplace_re

; 228  :         return nullptr;

  0007d	33 ff		 xor	 edi, edi
  0007f	eb 1a		 jmp	 SHORT $LN22@Emplace_re
$LN23@Emplace_re:

; 229  :     }
; 230  : 
; 231  : #if _HAS_CXX20 // TRANSITION, GH-1532
; 232  :     if (_STD is_constant_evaluated()) {
; 233  :         return _Traits::_Allocate(_Bytes);
; 234  :     }
; 235  : #endif // _HAS_CXX20
; 236  : 
; 237  : #ifdef __cpp_aligned_new
; 238  :     if constexpr (_Align > __STDCPP_DEFAULT_NEW_ALIGNMENT__) {
; 239  :         size_t _Passed_align = _Align;
; 240  : #if defined(_M_IX86) || defined(_M_X64)
; 241  :         if (_Bytes >= _Big_allocation_threshold) {
; 242  :             // boost the alignment of big allocations to help autovectorization
; 243  :             _Passed_align = (_STD max)(_Align, _Big_allocation_alignment);
; 244  :         }
; 245  : #endif // defined(_M_IX86) || defined(_M_X64)
; 246  :         return _Traits::_Allocate_aligned(_Bytes, _Passed_align);
; 247  :     } else
; 248  : #endif // defined(__cpp_aligned_new)
; 249  :     {
; 250  : #if defined(_M_IX86) || defined(_M_X64)
; 251  :         if (_Bytes >= _Big_allocation_threshold) {

  00081	3d 00 10 00 00	 cmp	 eax, 4096		; 00001000H
  00086	72 08		 jb	 SHORT $LN24@Emplace_re

; 253  :             return _Allocate_manually_vector_aligned<_Traits>(_Bytes);

  00088	50		 push	 eax
  00089	e8 00 00 00 00	 call	 ??$_Allocate_manually_vector_aligned@U_Default_allocate_traits@std@@@std@@YAPAXI@Z ; std::_Allocate_manually_vector_aligned<std::_Default_allocate_traits>
  0008e	eb 06		 jmp	 SHORT $LN109@Emplace_re
$LN24@Emplace_re:

; 136  :         return ::operator new(_Bytes);

  00090	50		 push	 eax
  00091	e8 00 00 00 00	 call	 ??2@YAPAXI@Z		; operator new
$LN109@Emplace_re:
; File C:\Program Files\Microsoft Visual Studio\2022\Professional\VC\Tools\MSVC\14.44.35207\include\vector

; 900  :         _Alty_traits::construct(_Al, _STD _Unfancy(_Newvec + _Whereoff), _STD forward<_Valty>(_Val)...);

  00096	8b f8		 mov	 edi, eax
  00098	83 c4 04	 add	 esp, 4
$LN22@Emplace_re:
  0009b	8b 45 0c	 mov	 eax, DWORD PTR _<_Val_0>$[ebp]
  0009e	8d 0c 9f	 lea	 ecx, DWORD PTR [edi+ebx*4]

; 901  :         _Constructed_first = _Newvec + _Whereoff;
; 902  : 
; 903  :         if (_Whereptr == _Mylast) { // at back, provide strong guarantee

  000a1	8b 5d 08	 mov	 ebx, DWORD PTR __Whereptr$[ebp]
  000a4	89 4d fc	 mov	 DWORD PTR tv650[ebp], ecx
  000a7	8b 00		 mov	 eax, DWORD PTR [eax]
  000a9	89 01		 mov	 DWORD PTR [ecx], eax
  000ab	8b 46 04	 mov	 eax, DWORD PTR [esi+4]
  000ae	8b 0e		 mov	 ecx, DWORD PTR [esi]
  000b0	3b d8		 cmp	 ebx, eax
  000b2	75 07		 jne	 SHORT $LN3@Emplace_re

; 909  :         } else { // provide basic guarantee

  000b4	8b 5d fc	 mov	 ebx, DWORD PTR tv650[ebp]
; File C:\Program Files\Microsoft Visual Studio\2022\Professional\VC\Tools\MSVC\14.44.35207\include\xmemory

; 1992 :             _STD _Copy_memmove(_UFirst, _ULast, _STD _Unfancy(_Dest));

  000b7	8b d7		 mov	 edx, edi
; File C:\Program Files\Microsoft Visual Studio\2022\Professional\VC\Tools\MSVC\14.44.35207\include\vector

; 909  :         } else { // provide basic guarantee

  000b9	eb 16		 jmp	 SHORT $LN52@Emplace_re
$LN3@Emplace_re:
; File C:\Program Files\Microsoft Visual Studio\2022\Professional\VC\Tools\MSVC\14.44.35207\include\xmemory

; 1992 :             _STD _Copy_memmove(_UFirst, _ULast, _STD _Unfancy(_Dest));

  000bb	57		 push	 edi
  000bc	53		 push	 ebx
  000bd	51		 push	 ecx
  000be	e8 00 00 00 00	 call	 ??$_Copy_memmove@PAKPAK@std@@YAPAKPAK00@Z ; std::_Copy_memmove<unsigned long *,unsigned long *>
  000c3	8b 46 04	 mov	 eax, DWORD PTR [esi+4]
  000c6	8b cb		 mov	 ecx, ebx
; File C:\Program Files\Microsoft Visual Studio\2022\Professional\VC\Tools\MSVC\14.44.35207\include\vector

; 912  :             _STD _Uninitialized_move(_Whereptr, _Mylast, _Newvec + _Whereoff + 1, _Al);

  000c8	8b 5d fc	 mov	 ebx, DWORD PTR tv650[ebp]
; File C:\Program Files\Microsoft Visual Studio\2022\Professional\VC\Tools\MSVC\14.44.35207\include\xmemory

; 1992 :             _STD _Copy_memmove(_UFirst, _ULast, _STD _Unfancy(_Dest));

  000cb	83 c4 0c	 add	 esp, 12			; 0000000cH
; File C:\Program Files\Microsoft Visual Studio\2022\Professional\VC\Tools\MSVC\14.44.35207\include\vector

; 912  :             _STD _Uninitialized_move(_Whereptr, _Mylast, _Newvec + _Whereoff + 1, _Al);

  000ce	8d 53 04	 lea	 edx, DWORD PTR [ebx+4]
$LN52@Emplace_re:

; 913  :         }
; 914  : 
; 915  :         _Guard._New_begin = nullptr;

  000d1	52		 push	 edx
  000d2	50		 push	 eax
  000d3	51		 push	 ecx
  000d4	e8 00 00 00 00	 call	 ??$_Copy_memmove@PAKPAK@std@@YAPAKPAK00@Z ; std::_Copy_memmove<unsigned long *,unsigned long *>

; 2069 :         if (_Myfirst) { // destroy and deallocate old array

  000d9	8b 06		 mov	 eax, DWORD PTR [esi]

; 913  :         }
; 914  : 
; 915  :         _Guard._New_begin = nullptr;

  000db	83 c4 0c	 add	 esp, 12			; 0000000cH

; 2069 :         if (_Myfirst) { // destroy and deallocate old array

  000de	85 c0		 test	 eax, eax
  000e0	74 2c		 je	 SHORT $LN72@Emplace_re

; 2070 :             _STD _Destroy_range(_Myfirst, _Mylast, _Al);
; 2071 :             _ASAN_VECTOR_REMOVE;
; 2072 :             _Al.deallocate(_Myfirst, static_cast<size_type>(_Myend - _Myfirst));

  000e2	8b 4e 08	 mov	 ecx, DWORD PTR [esi+8]
  000e5	2b c8		 sub	 ecx, eax
; File C:\Program Files\Microsoft Visual Studio\2022\Professional\VC\Tools\MSVC\14.44.35207\include\xmemory

; 985  :         _STD _Deallocate<_New_alignof<_Ty>>(_Ptr, sizeof(_Ty) * _Count);

  000e7	83 e1 fc	 and	 ecx, -4			; fffffffcH

; 284  :         if (_Bytes >= _Big_allocation_threshold) {

  000ea	81 f9 00 10 00
	00		 cmp	 ecx, 4096		; 00001000H
  000f0	72 12		 jb	 SHORT $LN77@Emplace_re

; 205  :     const uintptr_t _Ptr_container   = _Ptr_user[-1];

  000f2	8b 50 fc	 mov	 edx, DWORD PTR [eax-4]
  000f5	83 c1 23	 add	 ecx, 35			; 00000023H

; 206  : 
; 207  :     // If the following asserts, it likely means that we are performing
; 208  :     // an aligned delete on memory coming from an unaligned allocation.
; 209  :     _STL_ASSERT(_Ptr_user[-2] == _Big_allocation_sentinel, "invalid argument");
; 210  : 
; 211  :     // Extra paranoia on aligned allocation/deallocation; ensure _Ptr_container is
; 212  :     // in range [_Min_back_shift, _Non_user_size]
; 213  : #ifdef _DEBUG
; 214  :     constexpr uintptr_t _Min_back_shift = 2 * sizeof(void*);
; 215  : #else // ^^^ defined(_DEBUG) / !defined(_DEBUG) vvv
; 216  :     constexpr uintptr_t _Min_back_shift = sizeof(void*);
; 217  : #endif // ^^^ !defined(_DEBUG) ^^^
; 218  :     const uintptr_t _Back_shift = reinterpret_cast<uintptr_t>(_Ptr) - _Ptr_container;

  000f8	2b c2		 sub	 eax, edx

; 219  :     _STL_VERIFY(_Back_shift >= _Min_back_shift && _Back_shift <= _Non_user_size, "invalid argument");

  000fa	83 c0 fc	 add	 eax, -4			; fffffffcH
  000fd	83 f8 1f	 cmp	 eax, 31			; 0000001fH
  00100	77 2a		 ja	 SHORT $LN76@Emplace_re

; 220  :     _Ptr = reinterpret_cast<void*>(_Ptr_container);

  00102	8b c2		 mov	 eax, edx
$LN77@Emplace_re:

; 289  :         ::operator delete(_Ptr, _Bytes);

  00104	51		 push	 ecx
  00105	50		 push	 eax
  00106	e8 00 00 00 00	 call	 ??3@YAXPAXI@Z		; operator delete
  0010b	83 c4 08	 add	 esp, 8
$LN72@Emplace_re:
; File C:\Program Files\Microsoft Visual Studio\2022\Professional\VC\Tools\MSVC\14.44.35207\include\vector

; 2076 :         _Mylast  = _Newvec + _Newsize;

  0010e	8b 45 f4	 mov	 eax, DWORD PTR __Newsize$1$[ebp]
  00111	89 3e		 mov	 DWORD PTR [esi], edi
  00113	8d 0c 87	 lea	 ecx, DWORD PTR [edi+eax*4]

; 916  :         _Change_array(_Newvec, _Newsize, _Newcapacity);
; 917  :         return _Newvec + _Whereoff;

  00116	8b c3		 mov	 eax, ebx

; 2076 :         _Mylast  = _Newvec + _Newsize;

  00118	89 4e 04	 mov	 DWORD PTR [esi+4], ecx

; 2077 :         _Myend   = _Newvec + _Newcapacity;

  0011b	8b 4d f8	 mov	 ecx, DWORD PTR tv652[ebp]
  0011e	03 cf		 add	 ecx, edi

; 918  :     }

  00120	5f		 pop	 edi

; 2077 :         _Myend   = _Newvec + _Newcapacity;

  00121	89 4e 08	 mov	 DWORD PTR [esi+8], ecx

; 918  :     }

  00124	5e		 pop	 esi
  00125	5b		 pop	 ebx
  00126	8b e5		 mov	 esp, ebp
  00128	5d		 pop	 ebp
  00129	c2 08 00	 ret	 8
$LN76@Emplace_re:
; File C:\Program Files\Microsoft Visual Studio\2022\Professional\VC\Tools\MSVC\14.44.35207\include\xmemory

; 219  :     _STL_VERIFY(_Back_shift >= _Min_back_shift && _Back_shift <= _Non_user_size, "invalid argument");

  0012c	6a 00		 push	 0
  0012e	6a 00		 push	 0
  00130	6a 00		 push	 0
  00132	6a 00		 push	 0
  00134	6a 00		 push	 0
  00136	e8 00 00 00 00	 call	 __invoke_watson
$LN111@Emplace_re:
; File C:\Program Files\Microsoft Visual Studio\2022\Professional\VC\Tools\MSVC\14.44.35207\include\vector

; 888  :             _Xlength();

  0013b	e8 00 00 00 00	 call	 ?_Xlength@?$vector@KV?$allocator@K@std@@@std@@CAXXZ ; std::vector<unsigned long,std::allocator<unsigned long> >::_Xlength
$LN112@Emplace_re:
; File C:\Program Files\Microsoft Visual Studio\2022\Professional\VC\Tools\MSVC\14.44.35207\include\xmemory

; 118  :             _Throw_bad_array_new_length(); // multiply overflow

  00140	e8 00 00 00 00	 call	 ?_Throw_bad_array_new_length@std@@YAXXZ ; std::_Throw_bad_array_new_length
$LN108@Emplace_re:
  00145	cc		 int	 3
??$_Emplace_reallocate@ABK@?$vector@KV?$allocator@K@std@@@std@@AAEPAKQAKABK@Z ENDP ; std::vector<unsigned long,std::allocator<unsigned long> >::_Emplace_reallocate<unsigned long const &>
_TEXT	ENDS
; Function compile flags: /Ogtp
; File C:\Program Files\Microsoft Visual Studio\2022\Professional\VC\Tools\MSVC\14.44.35207\include\vector
; File C:\Program Files\Microsoft Visual Studio\2022\Professional\VC\Tools\MSVC\14.44.35207\include\xmemory
; File C:\Program Files\Microsoft Visual Studio\2022\Professional\VC\Tools\MSVC\14.44.35207\include\vector
; File C:\Program Files\Microsoft Visual Studio\2022\Professional\VC\Tools\MSVC\14.44.35207\include\xmemory
; File C:\Program Files\Microsoft Visual Studio\2022\Professional\VC\Tools\MSVC\14.44.35207\include\vector
; File C:\Program Files\Microsoft Visual Studio\2022\Professional\VC\Tools\MSVC\14.44.35207\include\xmemory
; File C:\Program Files\Microsoft Visual Studio\2022\Professional\VC\Tools\MSVC\14.44.35207\include\vector
; File C:\Program Files\Microsoft Visual Studio\2022\Professional\VC\Tools\MSVC\14.44.35207\include\xmemory
; File C:\Program Files\Microsoft Visual Studio\2022\Professional\VC\Tools\MSVC\14.44.35207\include\vector
; File C:\Program Files\Microsoft Visual Studio\2022\Professional\VC\Tools\MSVC\14.44.35207\include\xmemory
; File C:\Program Files\Microsoft Visual Studio\2022\Professional\VC\Tools\MSVC\14.44.35207\include\vector
; File C:\Program Files\Microsoft Visual Studio\2022\Professional\VC\Tools\MSVC\14.44.35207\include\xmemory
; File C:\Program Files\Microsoft Visual Studio\2022\Professional\VC\Tools\MSVC\14.44.35207\include\vector
; File C:\Program Files\Microsoft Visual Studio\2022\Professional\VC\Tools\MSVC\14.44.35207\include\xmemory
; File C:\Program Files\Microsoft Visual Studio\2022\Professional\VC\Tools\MSVC\14.44.35207\include\vector
; File C:\Program Files\Microsoft Visual Studio\2022\Professional\VC\Tools\MSVC\14.44.35207\include\xmemory
; File C:\Program Files\Microsoft Visual Studio\2022\Professional\VC\Tools\MSVC\14.44.35207\include\vector
;	COMDAT ??$_Emplace_reallocate@ABH@?$vector@HV?$allocator@H@std@@@std@@AAEPAHQAHABH@Z
_TEXT	SEGMENT
__Newsize$1$ = -12					; size = 4
tv652 = -8						; size = 4
tv650 = -4						; size = 4
__Whereptr$ = 8						; size = 4
_<_Val_0>$ = 12						; size = 4
??$_Emplace_reallocate@ABH@?$vector@HV?$allocator@H@std@@@std@@AAEPAHQAHABH@Z PROC ; std::vector<int,std::allocator<int> >::_Emplace_reallocate<int const &>, COMDAT
; _this$ = ecx

; 875  :     _CONSTEXPR20 pointer _Emplace_reallocate(const pointer _Whereptr, _Valty&&... _Val) {

  00000	55		 push	 ebp
  00001	8b ec		 mov	 ebp, esp
  00003	83 ec 0c	 sub	 esp, 12			; 0000000cH
  00006	53		 push	 ebx

; 876  :         // reallocate and insert by perfectly forwarding _Val at _Whereptr
; 877  :         _Alty& _Al        = _Getal();
; 878  :         auto& _My_data    = _Mypair._Myval2;
; 879  :         pointer& _Myfirst = _My_data._Myfirst;
; 880  :         pointer& _Mylast  = _My_data._Mylast;
; 881  : 
; 882  :         _STL_INTERNAL_CHECK(_Mylast == _My_data._Myend); // check that we have no unused capacity
; 883  : 
; 884  :         const auto _Whereoff = static_cast<size_type>(_Whereptr - _Myfirst);

  00007	8b 5d 08	 mov	 ebx, DWORD PTR __Whereptr$[ebp]
  0000a	56		 push	 esi
  0000b	8b f1		 mov	 esi, ecx
  0000d	57		 push	 edi
  0000e	8b 0e		 mov	 ecx, DWORD PTR [esi]
  00010	2b d9		 sub	 ebx, ecx

; 885  :         const auto _Oldsize  = static_cast<size_type>(_Mylast - _Myfirst);

  00012	8b 46 04	 mov	 eax, DWORD PTR [esi+4]
  00015	2b c1		 sub	 eax, ecx
  00017	c1 fb 02	 sar	 ebx, 2
  0001a	c1 f8 02	 sar	 eax, 2

; 886  : 
; 887  :         if (_Oldsize == max_size()) {

  0001d	3d ff ff ff 3f	 cmp	 eax, 1073741823		; 3fffffffH
  00022	0f 84 13 01 00
	00		 je	 $LN111@Emplace_re

; 1924 :         return static_cast<size_type>(_My_data._Myend - _My_data._Myfirst);

  00028	8b 56 08	 mov	 edx, DWORD PTR [esi+8]

; 889  :         }
; 890  : 
; 891  :         const size_type _Newsize = _Oldsize + 1;

  0002b	8d 78 01	 lea	 edi, DWORD PTR [eax+1]

; 1924 :         return static_cast<size_type>(_My_data._Myend - _My_data._Myfirst);

  0002e	2b d1		 sub	 edx, ecx

; 889  :         }
; 890  : 
; 891  :         const size_type _Newsize = _Oldsize + 1;

  00030	89 7d f4	 mov	 DWORD PTR __Newsize$1$[ebp], edi

; 1924 :         return static_cast<size_type>(_My_data._Myend - _My_data._Myfirst);

  00033	c1 fa 02	 sar	 edx, 2

; 2011 :         if (_Oldcapacity > _Max - _Oldcapacity / 2) {

  00036	b8 ff ff ff 3f	 mov	 eax, 1073741823		; 3fffffffH
  0003b	8b ca		 mov	 ecx, edx
  0003d	d1 e9		 shr	 ecx, 1
  0003f	2b c1		 sub	 eax, ecx
  00041	3b d0		 cmp	 edx, eax
  00043	76 14		 jbe	 SHORT $LN8@Emplace_re

; 2012 :             return _Max; // geometric growth would overflow

  00045	b8 fc ff ff ff	 mov	 eax, -4			; fffffffcH
  0004a	c7 45 f8 fc ff
	ff ff		 mov	 DWORD PTR tv652[ebp], -4 ; fffffffcH
; File C:\Program Files\Microsoft Visual Studio\2022\Professional\VC\Tools\MSVC\14.44.35207\include\xmemory

; 253  :             return _Allocate_manually_vector_aligned<_Traits>(_Bytes);

  00051	50		 push	 eax
  00052	e8 00 00 00 00	 call	 ??$_Allocate_manually_vector_aligned@U_Default_allocate_traits@std@@@std@@YAPAXI@Z ; std::_Allocate_manually_vector_aligned<std::_Default_allocate_traits>
  00057	eb 3d		 jmp	 SHORT $LN109@Emplace_re
$LN8@Emplace_re:
; File C:\Program Files\Microsoft Visual Studio\2022\Professional\VC\Tools\MSVC\14.44.35207\include\vector

; 2015 :         const size_type _Geometric = _Oldcapacity + _Oldcapacity / 2;

  00059	8d 04 11	 lea	 eax, DWORD PTR [ecx+edx]
; File C:\Program Files\Microsoft Visual Studio\2022\Professional\VC\Tools\MSVC\14.44.35207\include\xmemory

; 117  :         if (_Count > _Max_possible) {

  0005c	8b cf		 mov	 ecx, edi
  0005e	3b c7		 cmp	 eax, edi
  00060	0f 43 c8	 cmovae	 ecx, eax
  00063	81 f9 ff ff ff
	3f		 cmp	 ecx, 1073741823		; 3fffffffH
  00069	0f 87 d1 00 00
	00		 ja	 $LN112@Emplace_re

; 119  :         }
; 120  :     }
; 121  : 
; 122  :     return _Count * _Ty_size;

  0006f	8d 04 8d 00 00
	00 00		 lea	 eax, DWORD PTR [ecx*4]
  00076	89 45 f8	 mov	 DWORD PTR tv652[ebp], eax

; 227  :     if (_Bytes == 0) {

  00079	85 c0		 test	 eax, eax
  0007b	75 04		 jne	 SHORT $LN23@Emplace_re

; 228  :         return nullptr;

  0007d	33 ff		 xor	 edi, edi
  0007f	eb 1a		 jmp	 SHORT $LN22@Emplace_re
$LN23@Emplace_re:

; 229  :     }
; 230  : 
; 231  : #if _HAS_CXX20 // TRANSITION, GH-1532
; 232  :     if (_STD is_constant_evaluated()) {
; 233  :         return _Traits::_Allocate(_Bytes);
; 234  :     }
; 235  : #endif // _HAS_CXX20
; 236  : 
; 237  : #ifdef __cpp_aligned_new
; 238  :     if constexpr (_Align > __STDCPP_DEFAULT_NEW_ALIGNMENT__) {
; 239  :         size_t _Passed_align = _Align;
; 240  : #if defined(_M_IX86) || defined(_M_X64)
; 241  :         if (_Bytes >= _Big_allocation_threshold) {
; 242  :             // boost the alignment of big allocations to help autovectorization
; 243  :             _Passed_align = (_STD max)(_Align, _Big_allocation_alignment);
; 244  :         }
; 245  : #endif // defined(_M_IX86) || defined(_M_X64)
; 246  :         return _Traits::_Allocate_aligned(_Bytes, _Passed_align);
; 247  :     } else
; 248  : #endif // defined(__cpp_aligned_new)
; 249  :     {
; 250  : #if defined(_M_IX86) || defined(_M_X64)
; 251  :         if (_Bytes >= _Big_allocation_threshold) {

  00081	3d 00 10 00 00	 cmp	 eax, 4096		; 00001000H
  00086	72 08		 jb	 SHORT $LN24@Emplace_re

; 253  :             return _Allocate_manually_vector_aligned<_Traits>(_Bytes);

  00088	50		 push	 eax
  00089	e8 00 00 00 00	 call	 ??$_Allocate_manually_vector_aligned@U_Default_allocate_traits@std@@@std@@YAPAXI@Z ; std::_Allocate_manually_vector_aligned<std::_Default_allocate_traits>
  0008e	eb 06		 jmp	 SHORT $LN109@Emplace_re
$LN24@Emplace_re:

; 136  :         return ::operator new(_Bytes);

  00090	50		 push	 eax
  00091	e8 00 00 00 00	 call	 ??2@YAPAXI@Z		; operator new
$LN109@Emplace_re:
; File C:\Program Files\Microsoft Visual Studio\2022\Professional\VC\Tools\MSVC\14.44.35207\include\vector

; 900  :         _Alty_traits::construct(_Al, _STD _Unfancy(_Newvec + _Whereoff), _STD forward<_Valty>(_Val)...);

  00096	8b f8		 mov	 edi, eax
  00098	83 c4 04	 add	 esp, 4
$LN22@Emplace_re:
  0009b	8b 45 0c	 mov	 eax, DWORD PTR _<_Val_0>$[ebp]
  0009e	8d 0c 9f	 lea	 ecx, DWORD PTR [edi+ebx*4]

; 901  :         _Constructed_first = _Newvec + _Whereoff;
; 902  : 
; 903  :         if (_Whereptr == _Mylast) { // at back, provide strong guarantee

  000a1	8b 5d 08	 mov	 ebx, DWORD PTR __Whereptr$[ebp]
  000a4	89 4d fc	 mov	 DWORD PTR tv650[ebp], ecx
  000a7	8b 00		 mov	 eax, DWORD PTR [eax]
  000a9	89 01		 mov	 DWORD PTR [ecx], eax
  000ab	8b 46 04	 mov	 eax, DWORD PTR [esi+4]
  000ae	8b 0e		 mov	 ecx, DWORD PTR [esi]
  000b0	3b d8		 cmp	 ebx, eax
  000b2	75 07		 jne	 SHORT $LN3@Emplace_re

; 909  :         } else { // provide basic guarantee

  000b4	8b 5d fc	 mov	 ebx, DWORD PTR tv650[ebp]
; File C:\Program Files\Microsoft Visual Studio\2022\Professional\VC\Tools\MSVC\14.44.35207\include\xmemory

; 1992 :             _STD _Copy_memmove(_UFirst, _ULast, _STD _Unfancy(_Dest));

  000b7	8b d7		 mov	 edx, edi
; File C:\Program Files\Microsoft Visual Studio\2022\Professional\VC\Tools\MSVC\14.44.35207\include\vector

; 909  :         } else { // provide basic guarantee

  000b9	eb 16		 jmp	 SHORT $LN52@Emplace_re
$LN3@Emplace_re:
; File C:\Program Files\Microsoft Visual Studio\2022\Professional\VC\Tools\MSVC\14.44.35207\include\xmemory

; 1992 :             _STD _Copy_memmove(_UFirst, _ULast, _STD _Unfancy(_Dest));

  000bb	57		 push	 edi
  000bc	53		 push	 ebx
  000bd	51		 push	 ecx
  000be	e8 00 00 00 00	 call	 ??$_Copy_memmove@PAHPAH@std@@YAPAHPAH00@Z ; std::_Copy_memmove<int *,int *>
  000c3	8b 46 04	 mov	 eax, DWORD PTR [esi+4]
  000c6	8b cb		 mov	 ecx, ebx
; File C:\Program Files\Microsoft Visual Studio\2022\Professional\VC\Tools\MSVC\14.44.35207\include\vector

; 912  :             _STD _Uninitialized_move(_Whereptr, _Mylast, _Newvec + _Whereoff + 1, _Al);

  000c8	8b 5d fc	 mov	 ebx, DWORD PTR tv650[ebp]
; File C:\Program Files\Microsoft Visual Studio\2022\Professional\VC\Tools\MSVC\14.44.35207\include\xmemory

; 1992 :             _STD _Copy_memmove(_UFirst, _ULast, _STD _Unfancy(_Dest));

  000cb	83 c4 0c	 add	 esp, 12			; 0000000cH
; File C:\Program Files\Microsoft Visual Studio\2022\Professional\VC\Tools\MSVC\14.44.35207\include\vector

; 912  :             _STD _Uninitialized_move(_Whereptr, _Mylast, _Newvec + _Whereoff + 1, _Al);

  000ce	8d 53 04	 lea	 edx, DWORD PTR [ebx+4]
$LN52@Emplace_re:

; 913  :         }
; 914  : 
; 915  :         _Guard._New_begin = nullptr;

  000d1	52		 push	 edx
  000d2	50		 push	 eax
  000d3	51		 push	 ecx
  000d4	e8 00 00 00 00	 call	 ??$_Copy_memmove@PAHPAH@std@@YAPAHPAH00@Z ; std::_Copy_memmove<int *,int *>

; 2069 :         if (_Myfirst) { // destroy and deallocate old array

  000d9	8b 06		 mov	 eax, DWORD PTR [esi]

; 913  :         }
; 914  : 
; 915  :         _Guard._New_begin = nullptr;

  000db	83 c4 0c	 add	 esp, 12			; 0000000cH

; 2069 :         if (_Myfirst) { // destroy and deallocate old array

  000de	85 c0		 test	 eax, eax
  000e0	74 2c		 je	 SHORT $LN72@Emplace_re

; 2070 :             _STD _Destroy_range(_Myfirst, _Mylast, _Al);
; 2071 :             _ASAN_VECTOR_REMOVE;
; 2072 :             _Al.deallocate(_Myfirst, static_cast<size_type>(_Myend - _Myfirst));

  000e2	8b 4e 08	 mov	 ecx, DWORD PTR [esi+8]
  000e5	2b c8		 sub	 ecx, eax
; File C:\Program Files\Microsoft Visual Studio\2022\Professional\VC\Tools\MSVC\14.44.35207\include\xmemory

; 985  :         _STD _Deallocate<_New_alignof<_Ty>>(_Ptr, sizeof(_Ty) * _Count);

  000e7	83 e1 fc	 and	 ecx, -4			; fffffffcH

; 284  :         if (_Bytes >= _Big_allocation_threshold) {

  000ea	81 f9 00 10 00
	00		 cmp	 ecx, 4096		; 00001000H
  000f0	72 12		 jb	 SHORT $LN77@Emplace_re

; 205  :     const uintptr_t _Ptr_container   = _Ptr_user[-1];

  000f2	8b 50 fc	 mov	 edx, DWORD PTR [eax-4]
  000f5	83 c1 23	 add	 ecx, 35			; 00000023H

; 206  : 
; 207  :     // If the following asserts, it likely means that we are performing
; 208  :     // an aligned delete on memory coming from an unaligned allocation.
; 209  :     _STL_ASSERT(_Ptr_user[-2] == _Big_allocation_sentinel, "invalid argument");
; 210  : 
; 211  :     // Extra paranoia on aligned allocation/deallocation; ensure _Ptr_container is
; 212  :     // in range [_Min_back_shift, _Non_user_size]
; 213  : #ifdef _DEBUG
; 214  :     constexpr uintptr_t _Min_back_shift = 2 * sizeof(void*);
; 215  : #else // ^^^ defined(_DEBUG) / !defined(_DEBUG) vvv
; 216  :     constexpr uintptr_t _Min_back_shift = sizeof(void*);
; 217  : #endif // ^^^ !defined(_DEBUG) ^^^
; 218  :     const uintptr_t _Back_shift = reinterpret_cast<uintptr_t>(_Ptr) - _Ptr_container;

  000f8	2b c2		 sub	 eax, edx

; 219  :     _STL_VERIFY(_Back_shift >= _Min_back_shift && _Back_shift <= _Non_user_size, "invalid argument");

  000fa	83 c0 fc	 add	 eax, -4			; fffffffcH
  000fd	83 f8 1f	 cmp	 eax, 31			; 0000001fH
  00100	77 2a		 ja	 SHORT $LN76@Emplace_re

; 220  :     _Ptr = reinterpret_cast<void*>(_Ptr_container);

  00102	8b c2		 mov	 eax, edx
$LN77@Emplace_re:

; 289  :         ::operator delete(_Ptr, _Bytes);

  00104	51		 push	 ecx
  00105	50		 push	 eax
  00106	e8 00 00 00 00	 call	 ??3@YAXPAXI@Z		; operator delete
  0010b	83 c4 08	 add	 esp, 8
$LN72@Emplace_re:
; File C:\Program Files\Microsoft Visual Studio\2022\Professional\VC\Tools\MSVC\14.44.35207\include\vector

; 2076 :         _Mylast  = _Newvec + _Newsize;

  0010e	8b 45 f4	 mov	 eax, DWORD PTR __Newsize$1$[ebp]
  00111	89 3e		 mov	 DWORD PTR [esi], edi
  00113	8d 0c 87	 lea	 ecx, DWORD PTR [edi+eax*4]

; 916  :         _Change_array(_Newvec, _Newsize, _Newcapacity);
; 917  :         return _Newvec + _Whereoff;

  00116	8b c3		 mov	 eax, ebx

; 2076 :         _Mylast  = _Newvec + _Newsize;

  00118	89 4e 04	 mov	 DWORD PTR [esi+4], ecx

; 2077 :         _Myend   = _Newvec + _Newcapacity;

  0011b	8b 4d f8	 mov	 ecx, DWORD PTR tv652[ebp]
  0011e	03 cf		 add	 ecx, edi

; 918  :     }

  00120	5f		 pop	 edi

; 2077 :         _Myend   = _Newvec + _Newcapacity;

  00121	89 4e 08	 mov	 DWORD PTR [esi+8], ecx

; 918  :     }

  00124	5e		 pop	 esi
  00125	5b		 pop	 ebx
  00126	8b e5		 mov	 esp, ebp
  00128	5d		 pop	 ebp
  00129	c2 08 00	 ret	 8
$LN76@Emplace_re:
; File C:\Program Files\Microsoft Visual Studio\2022\Professional\VC\Tools\MSVC\14.44.35207\include\xmemory

; 219  :     _STL_VERIFY(_Back_shift >= _Min_back_shift && _Back_shift <= _Non_user_size, "invalid argument");

  0012c	6a 00		 push	 0
  0012e	6a 00		 push	 0
  00130	6a 00		 push	 0
  00132	6a 00		 push	 0
  00134	6a 00		 push	 0
  00136	e8 00 00 00 00	 call	 __invoke_watson
$LN111@Emplace_re:
; File C:\Program Files\Microsoft Visual Studio\2022\Professional\VC\Tools\MSVC\14.44.35207\include\vector

; 888  :             _Xlength();

  0013b	e8 00 00 00 00	 call	 ?_Xlength@?$vector@HV?$allocator@H@std@@@std@@CAXXZ ; std::vector<int,std::allocator<int> >::_Xlength
$LN112@Emplace_re:
; File C:\Program Files\Microsoft Visual Studio\2022\Professional\VC\Tools\MSVC\14.44.35207\include\xmemory

; 118  :             _Throw_bad_array_new_length(); // multiply overflow

  00140	e8 00 00 00 00	 call	 ?_Throw_bad_array_new_length@std@@YAXXZ ; std::_Throw_bad_array_new_length
$LN108@Emplace_re:
  00145	cc		 int	 3
??$_Emplace_reallocate@ABH@?$vector@HV?$allocator@H@std@@@std@@AAEPAHQAHABH@Z ENDP ; std::vector<int,std::allocator<int> >::_Emplace_reallocate<int const &>
_TEXT	ENDS
; Function compile flags: /Ogtp
; File C:\Program Files\Microsoft Visual Studio\2022\Professional\VC\Tools\MSVC\14.44.35207\include\xtree
; File C:\Program Files\Microsoft Visual Studio\2022\Professional\VC\Tools\MSVC\14.44.35207\include\utility
; File C:\Program Files\Microsoft Visual Studio\2022\Professional\VC\Tools\MSVC\14.44.35207\include\deque
; File C:\Program Files\Microsoft Visual Studio\2022\Professional\VC\Tools\MSVC\14.44.35207\include\xmemory
; File C:\Program Files\Microsoft Visual Studio\2022\Professional\VC\Tools\MSVC\14.44.35207\include\deque
; File C:\Program Files\Microsoft Visual Studio\2022\Professional\VC\Tools\MSVC\14.44.35207\include\xmemory
; File C:\Program Files\Microsoft Visual Studio\2022\Professional\VC\Tools\MSVC\14.44.35207\include\deque
; File C:\Program Files\Microsoft Visual Studio\2022\Professional\VC\Tools\MSVC\14.44.35207\include\utility
; File C:\Program Files\Microsoft Visual Studio\2022\Professional\VC\Tools\MSVC\14.44.35207\include\xmemory
; File C:\Program Files\Microsoft Visual Studio\2022\Professional\VC\Tools\MSVC\14.44.35207\include\utility
; File C:\Program Files\Microsoft Visual Studio\2022\Professional\VC\Tools\MSVC\14.44.35207\include\xmemory
; File C:\Program Files\Microsoft Visual Studio\2022\Professional\VC\Tools\MSVC\14.44.35207\include\xtree
; File C:\Program Files\Microsoft Visual Studio\2022\Professional\VC\Tools\MSVC\14.44.35207\include\xmemory
; File C:\Program Files\Microsoft Visual Studio\2022\Professional\VC\Tools\MSVC\14.44.35207\include\xtree
;	COMDAT ??$_Erase_tree@V?$allocator@U?$_Tree_node@U?$pair@$$CBKV?$queue@USFXHIT_INFO@@V?$deque@USFXHIT_INFO@@V?$allocator@USFXHIT_INFO@@@std@@@std@@@std@@@std@@PAX@std@@@std@@@?$_Tree_val@U?$_Tree_simple_types@U?$pair@$$CBKV?$queue@USFXHIT_INFO@@V?$deque@USFXHIT_INFO@@V?$allocator@USFXHIT_INFO@@@std@@@std@@@std@@@std@@@std@@@std@@QAEXAAV?$allocator@U?$_Tree_node@U?$pair@$$CBKV?$queue@USFXHIT_INFO@@V?$deque@USFXHIT_INFO@@V?$allocator@USFXHIT_INFO@@@std@@@std@@@std@@@std@@PAX@std@@@1@PAU?$_Tree_node@U?$pair@$$CBKV?$queue@USFXHIT_INFO@@V?$deque@USFXHIT_INFO@@V?$allocator@USFXHIT_INFO@@@std@@@std@@@std@@@std@@PAX@1@@Z
_TEXT	SEGMENT
_this$1$ = -4						; size = 4
__Al$ = 8						; size = 4
__Rootnode$ = 12					; size = 4
??$_Erase_tree@V?$allocator@U?$_Tree_node@U?$pair@$$CBKV?$queue@USFXHIT_INFO@@V?$deque@USFXHIT_INFO@@V?$allocator@USFXHIT_INFO@@@std@@@std@@@std@@@std@@PAX@std@@@std@@@?$_Tree_val@U?$_Tree_simple_types@U?$pair@$$CBKV?$queue@USFXHIT_INFO@@V?$deque@USFXHIT_INFO@@V?$allocator@USFXHIT_INFO@@@std@@@std@@@std@@@std@@@std@@@std@@QAEXAAV?$allocator@U?$_Tree_node@U?$pair@$$CBKV?$queue@USFXHIT_INFO@@V?$deque@USFXHIT_INFO@@V?$allocator@USFXHIT_INFO@@@std@@@std@@@std@@@std@@PAX@std@@@1@PAU?$_Tree_node@U?$pair@$$CBKV?$queue@USFXHIT_INFO@@V?$deque@USFXHIT_INFO@@V?$allocator@USFXHIT_INFO@@@std@@@std@@@std@@@std@@PAX@1@@Z PROC ; std::_Tree_val<std::_Tree_simple_types<std::pair<unsigned long const ,std::queue<SFXHIT_INFO,std::deque<SFXHIT_INFO,std::allocator<SFXHIT_INFO> > > > > >::_Erase_tree<std::allocator<std::_Tree_node<std::pair<unsigned long const ,std::queue<SFXHIT_INFO,std::deque<SFXHIT_INFO,std::allocator<SFXHIT_INFO> > > >,void *> > >, COMDAT
; _this$ = ecx

; 767  :     void _Erase_tree(_Alnode& _Al, _Nodeptr _Rootnode) noexcept {

  00000	55		 push	 ebp
  00001	8b ec		 mov	 ebp, esp
  00003	51		 push	 ecx
  00004	53		 push	 ebx

; 768  :         while (!_Rootnode->_Isnil) { // free subtrees, then node

  00005	8b 5d 0c	 mov	 ebx, DWORD PTR __Rootnode$[ebp]
  00008	8b c1		 mov	 eax, ecx
  0000a	89 45 fc	 mov	 DWORD PTR _this$1$[ebp], eax
  0000d	80 7b 0d 00	 cmp	 BYTE PTR [ebx+13], 0
  00011	0f 85 bf 00 00
	00		 jne	 $LN142@Erase_tree
  00017	56		 push	 esi
  00018	57		 push	 edi
  00019	0f 1f 80 00 00
	00 00		 npad	 7
$LL2@Erase_tree:

; 769  :             _Erase_tree(_Al, _Rootnode->_Right);

  00020	ff 73 08	 push	 DWORD PTR [ebx+8]
  00023	8b c8		 mov	 ecx, eax
  00025	ff 75 08	 push	 DWORD PTR __Al$[ebp]
  00028	e8 00 00 00 00	 call	 ??$_Erase_tree@V?$allocator@U?$_Tree_node@U?$pair@$$CBKV?$queue@USFXHIT_INFO@@V?$deque@USFXHIT_INFO@@V?$allocator@USFXHIT_INFO@@@std@@@std@@@std@@@std@@PAX@std@@@std@@@?$_Tree_val@U?$_Tree_simple_types@U?$pair@$$CBKV?$queue@USFXHIT_INFO@@V?$deque@USFXHIT_INFO@@V?$allocator@USFXHIT_INFO@@@std@@@std@@@std@@@std@@@std@@@std@@QAEXAAV?$allocator@U?$_Tree_node@U?$pair@$$CBKV?$queue@USFXHIT_INFO@@V?$deque@USFXHIT_INFO@@V?$allocator@USFXHIT_INFO@@@std@@@std@@@std@@@std@@PAX@std@@@1@PAU?$_Tree_node@U?$pair@$$CBKV?$queue@USFXHIT_INFO@@V?$deque@USFXHIT_INFO@@V?$allocator@USFXHIT_INFO@@@std@@@std@@@std@@@std@@PAX@1@@Z ; std::_Tree_val<std::_Tree_simple_types<std::pair<unsigned long const ,std::queue<SFXHIT_INFO,std::deque<SFXHIT_INFO,std::allocator<SFXHIT_INFO> > > > > >::_Erase_tree<std::allocator<std::_Tree_node<std::pair<unsigned long const ,std::queue<SFXHIT_INFO,std::deque<SFXHIT_INFO,std::allocator<SFXHIT_INFO> > > >,void *> > >
; File C:\Program Files\Microsoft Visual Studio\2022\Professional\VC\Tools\MSVC\14.44.35207\include\utility

; 773  :     _Ty _Old_val = static_cast<_Ty&&>(_Val);

  0002d	8b f3		 mov	 esi, ebx

; 774  :     _Val         = static_cast<_Other&&>(_New_val);

  0002f	8b 1b		 mov	 ebx, DWORD PTR [ebx]
; File C:\Program Files\Microsoft Visual Studio\2022\Professional\VC\Tools\MSVC\14.44.35207\include\deque

; 971  :         return _Mysize() == 0;

  00031	8b 4e 24	 mov	 ecx, DWORD PTR [esi+36]
  00034	85 c9		 test	 ecx, ecx

; 1673 :         while (!empty()) {

  00036	74 0f		 je	 SHORT $LN149@Erase_tree
$LL32@Erase_tree:

; 1513 :         if (--_Mysize() == 0) {

  00038	8d 41 ff	 lea	 eax, DWORD PTR [ecx-1]
  0003b	89 46 24	 mov	 DWORD PTR [esi+36], eax
  0003e	8b c8		 mov	 ecx, eax
  00040	85 c0		 test	 eax, eax
  00042	75 f4		 jne	 SHORT $LL32@Erase_tree

; 1514 :             _Myoff() = 0;

  00044	89 46 20	 mov	 DWORD PTR [esi+32], eax
$LN149@Erase_tree:

; 1677 :         if (_Map() != nullptr) {

  00047	83 7e 18 00	 cmp	 DWORD PTR [esi+24], 0
  0004b	74 5c		 je	 SHORT $LN55@Erase_tree

; 1654 :         for (auto _Block = _Map_distance(); _Block > 0;) { // free storage for a block and destroy pointer

  0004d	8b 7e 1c	 mov	 edi, DWORD PTR [esi+28]
  00050	85 ff		 test	 edi, edi
  00052	7e 1a		 jle	 SHORT $LN52@Erase_tree
$LL53@Erase_tree:

; 1655 :             --_Block;
; 1656 :             auto& _Block_ptr = _Map()[_Block];
; 1657 :             if (_Block_ptr) { // free block

  00054	8b 46 18	 mov	 eax, DWORD PTR [esi+24]
  00057	4f		 dec	 edi
  00058	8b 04 b8	 mov	 eax, DWORD PTR [eax+edi*4]
  0005b	85 c0		 test	 eax, eax
  0005d	74 0b		 je	 SHORT $LN51@Erase_tree
; File C:\Program Files\Microsoft Visual Studio\2022\Professional\VC\Tools\MSVC\14.44.35207\include\xmemory

; 289  :         ::operator delete(_Ptr, _Bytes);

  0005f	6a 24		 push	 36			; 00000024H
  00061	50		 push	 eax
  00062	e8 00 00 00 00	 call	 ??3@YAXPAXI@Z		; operator delete
  00067	83 c4 08	 add	 esp, 8
$LN51@Erase_tree:
; File C:\Program Files\Microsoft Visual Studio\2022\Professional\VC\Tools\MSVC\14.44.35207\include\deque

; 1654 :         for (auto _Block = _Map_distance(); _Block > 0;) { // free storage for a block and destroy pointer

  0006a	85 ff		 test	 edi, edi
  0006c	7f e6		 jg	 SHORT $LL53@Erase_tree
$LN52@Erase_tree:
; File C:\Program Files\Microsoft Visual Studio\2022\Professional\VC\Tools\MSVC\14.44.35207\include\xmemory

; 985  :         _STD _Deallocate<_New_alignof<_Ty>>(_Ptr, sizeof(_Ty) * _Count);

  0006e	8b 4e 1c	 mov	 ecx, DWORD PTR [esi+28]
  00071	8b 46 18	 mov	 eax, DWORD PTR [esi+24]
  00074	c1 e1 02	 shl	 ecx, 2

; 284  :         if (_Bytes >= _Big_allocation_threshold) {

  00077	81 f9 00 10 00
	00		 cmp	 ecx, 4096		; 00001000H
  0007d	72 12		 jb	 SHORT $LN81@Erase_tree

; 205  :     const uintptr_t _Ptr_container   = _Ptr_user[-1];

  0007f	8b 50 fc	 mov	 edx, DWORD PTR [eax-4]
  00082	83 c1 23	 add	 ecx, 35			; 00000023H

; 206  : 
; 207  :     // If the following asserts, it likely means that we are performing
; 208  :     // an aligned delete on memory coming from an unaligned allocation.
; 209  :     _STL_ASSERT(_Ptr_user[-2] == _Big_allocation_sentinel, "invalid argument");
; 210  : 
; 211  :     // Extra paranoia on aligned allocation/deallocation; ensure _Ptr_container is
; 212  :     // in range [_Min_back_shift, _Non_user_size]
; 213  : #ifdef _DEBUG
; 214  :     constexpr uintptr_t _Min_back_shift = 2 * sizeof(void*);
; 215  : #else // ^^^ defined(_DEBUG) / !defined(_DEBUG) vvv
; 216  :     constexpr uintptr_t _Min_back_shift = sizeof(void*);
; 217  : #endif // ^^^ !defined(_DEBUG) ^^^
; 218  :     const uintptr_t _Back_shift = reinterpret_cast<uintptr_t>(_Ptr) - _Ptr_container;

  00085	2b c2		 sub	 eax, edx

; 219  :     _STL_VERIFY(_Back_shift >= _Min_back_shift && _Back_shift <= _Non_user_size, "invalid argument");

  00087	83 c0 fc	 add	 eax, -4			; fffffffcH
  0008a	83 f8 1f	 cmp	 eax, 31			; 0000001fH
  0008d	77 4e		 ja	 SHORT $LN137@Erase_tree

; 220  :     _Ptr = reinterpret_cast<void*>(_Ptr_container);

  0008f	8b c2		 mov	 eax, edx
$LN81@Erase_tree:

; 289  :         ::operator delete(_Ptr, _Bytes);

  00091	51		 push	 ecx
  00092	50		 push	 eax
  00093	e8 00 00 00 00	 call	 ??3@YAXPAXI@Z		; operator delete
  00098	83 c4 08	 add	 esp, 8
; File C:\Program Files\Microsoft Visual Studio\2022\Professional\VC\Tools\MSVC\14.44.35207\include\deque

; 1666 :         _Map()     = nullptr;

  0009b	c7 46 18 00 00
	00 00		 mov	 DWORD PTR [esi+24], 0

; 1667 :         _Mapsize() = 0;

  000a2	c7 46 1c 00 00
	00 00		 mov	 DWORD PTR [esi+28], 0
$LN55@Erase_tree:
; File C:\Program Files\Microsoft Visual Studio\2022\Professional\VC\Tools\MSVC\14.44.35207\include\utility

; 773  :     _Ty _Old_val = static_cast<_Ty&&>(_Val);

  000a9	8b 46 14	 mov	 eax, DWORD PTR [esi+20]
; File C:\Program Files\Microsoft Visual Studio\2022\Professional\VC\Tools\MSVC\14.44.35207\include\xmemory

; 289  :         ::operator delete(_Ptr, _Bytes);

  000ac	6a 08		 push	 8
  000ae	50		 push	 eax
; File C:\Program Files\Microsoft Visual Studio\2022\Professional\VC\Tools\MSVC\14.44.35207\include\utility

; 774  :     _Val         = static_cast<_Other&&>(_New_val);

  000af	c7 46 14 00 00
	00 00		 mov	 DWORD PTR [esi+20], 0
; File C:\Program Files\Microsoft Visual Studio\2022\Professional\VC\Tools\MSVC\14.44.35207\include\xmemory

; 289  :         ::operator delete(_Ptr, _Bytes);

  000b6	e8 00 00 00 00	 call	 ??3@YAXPAXI@Z		; operator delete
  000bb	6a 28		 push	 40			; 00000028H
  000bd	56		 push	 esi
  000be	e8 00 00 00 00	 call	 ??3@YAXPAXI@Z		; operator delete
  000c3	83 c4 10	 add	 esp, 16			; 00000010H
; File C:\Program Files\Microsoft Visual Studio\2022\Professional\VC\Tools\MSVC\14.44.35207\include\xtree

; 768  :         while (!_Rootnode->_Isnil) { // free subtrees, then node

  000c6	80 7b 0d 00	 cmp	 BYTE PTR [ebx+13], 0
  000ca	75 08		 jne	 SHORT $LN160@Erase_tree
  000cc	8b 45 fc	 mov	 eax, DWORD PTR _this$1$[ebp]
  000cf	e9 4c ff ff ff	 jmp	 $LL2@Erase_tree
$LN160@Erase_tree:
  000d4	5f		 pop	 edi
  000d5	5e		 pop	 esi
$LN142@Erase_tree:
  000d6	5b		 pop	 ebx

; 772  :     }

  000d7	8b e5		 mov	 esp, ebp
  000d9	5d		 pop	 ebp
  000da	c2 08 00	 ret	 8
$LN137@Erase_tree:
; File C:\Program Files\Microsoft Visual Studio\2022\Professional\VC\Tools\MSVC\14.44.35207\include\xmemory

; 219  :     _STL_VERIFY(_Back_shift >= _Min_back_shift && _Back_shift <= _Non_user_size, "invalid argument");

  000dd	6a 00		 push	 0
  000df	6a 00		 push	 0
  000e1	6a 00		 push	 0
  000e3	6a 00		 push	 0
  000e5	6a 00		 push	 0
  000e7	e8 00 00 00 00	 call	 __invoke_watson
$LN162@Erase_tree:
  000ec	cc		 int	 3
??$_Erase_tree@V?$allocator@U?$_Tree_node@U?$pair@$$CBKV?$queue@USFXHIT_INFO@@V?$deque@USFXHIT_INFO@@V?$allocator@USFXHIT_INFO@@@std@@@std@@@std@@@std@@PAX@std@@@std@@@?$_Tree_val@U?$_Tree_simple_types@U?$pair@$$CBKV?$queue@USFXHIT_INFO@@V?$deque@USFXHIT_INFO@@V?$allocator@USFXHIT_INFO@@@std@@@std@@@std@@@std@@@std@@@std@@QAEXAAV?$allocator@U?$_Tree_node@U?$pair@$$CBKV?$queue@USFXHIT_INFO@@V?$deque@USFXHIT_INFO@@V?$allocator@USFXHIT_INFO@@@std@@@std@@@std@@@std@@PAX@std@@@1@PAU?$_Tree_node@U?$pair@$$CBKV?$queue@USFXHIT_INFO@@V?$deque@USFXHIT_INFO@@V?$allocator@USFXHIT_INFO@@@std@@@std@@@std@@@std@@PAX@1@@Z ENDP ; std::_Tree_val<std::_Tree_simple_types<std::pair<unsigned long const ,std::queue<SFXHIT_INFO,std::deque<SFXHIT_INFO,std::allocator<SFXHIT_INFO> > > > > >::_Erase_tree<std::allocator<std::_Tree_node<std::pair<unsigned long const ,std::queue<SFXHIT_INFO,std::deque<SFXHIT_INFO,std::allocator<SFXHIT_INFO> > > >,void *> > >
_TEXT	ENDS
; Function compile flags: /Ogtp
; File C:\Program Files\Microsoft Visual Studio\2022\Professional\VC\Tools\MSVC\14.44.35207\include\xtree
; File C:\Program Files\Microsoft Visual Studio\2022\Professional\VC\Tools\MSVC\14.44.35207\include\utility
; File C:\Program Files\Microsoft Visual Studio\2022\Professional\VC\Tools\MSVC\14.44.35207\include\deque
; File C:\Program Files\Microsoft Visual Studio\2022\Professional\VC\Tools\MSVC\14.44.35207\include\xmemory
; File C:\Program Files\Microsoft Visual Studio\2022\Professional\VC\Tools\MSVC\14.44.35207\include\deque
; File C:\Program Files\Microsoft Visual Studio\2022\Professional\VC\Tools\MSVC\14.44.35207\include\xmemory
; File C:\Program Files\Microsoft Visual Studio\2022\Professional\VC\Tools\MSVC\14.44.35207\include\deque
; File C:\Program Files\Microsoft Visual Studio\2022\Professional\VC\Tools\MSVC\14.44.35207\include\utility
; File C:\Program Files\Microsoft Visual Studio\2022\Professional\VC\Tools\MSVC\14.44.35207\include\xmemory
; File C:\Program Files\Microsoft Visual Studio\2022\Professional\VC\Tools\MSVC\14.44.35207\include\utility
; File C:\Program Files\Microsoft Visual Studio\2022\Professional\VC\Tools\MSVC\14.44.35207\include\xmemory
; File C:\Program Files\Microsoft Visual Studio\2022\Professional\VC\Tools\MSVC\14.44.35207\include\xtree
; File C:\Program Files\Microsoft Visual Studio\2022\Professional\VC\Tools\MSVC\14.44.35207\include\xmemory
; File C:\Program Files\Microsoft Visual Studio\2022\Professional\VC\Tools\MSVC\14.44.35207\include\xtree
;	COMDAT ??$_Erase_tree@V?$allocator@U?$_Tree_node@U?$pair@$$CBKV?$queue@USFXHIT_COUNT@@V?$deque@USFXHIT_COUNT@@V?$allocator@USFXHIT_COUNT@@@std@@@std@@@std@@@std@@PAX@std@@@std@@@?$_Tree_val@U?$_Tree_simple_types@U?$pair@$$CBKV?$queue@USFXHIT_COUNT@@V?$deque@USFXHIT_COUNT@@V?$allocator@USFXHIT_COUNT@@@std@@@std@@@std@@@std@@@std@@@std@@QAEXAAV?$allocator@U?$_Tree_node@U?$pair@$$CBKV?$queue@USFXHIT_COUNT@@V?$deque@USFXHIT_COUNT@@V?$allocator@USFXHIT_COUNT@@@std@@@std@@@std@@@std@@PAX@std@@@1@PAU?$_Tree_node@U?$pair@$$CBKV?$queue@USFXHIT_COUNT@@V?$deque@USFXHIT_COUNT@@V?$allocator@USFXHIT_COUNT@@@std@@@std@@@std@@@std@@PAX@1@@Z
_TEXT	SEGMENT
_this$1$ = -4						; size = 4
__Al$ = 8						; size = 4
__Rootnode$ = 12					; size = 4
??$_Erase_tree@V?$allocator@U?$_Tree_node@U?$pair@$$CBKV?$queue@USFXHIT_COUNT@@V?$deque@USFXHIT_COUNT@@V?$allocator@USFXHIT_COUNT@@@std@@@std@@@std@@@std@@PAX@std@@@std@@@?$_Tree_val@U?$_Tree_simple_types@U?$pair@$$CBKV?$queue@USFXHIT_COUNT@@V?$deque@USFXHIT_COUNT@@V?$allocator@USFXHIT_COUNT@@@std@@@std@@@std@@@std@@@std@@@std@@QAEXAAV?$allocator@U?$_Tree_node@U?$pair@$$CBKV?$queue@USFXHIT_COUNT@@V?$deque@USFXHIT_COUNT@@V?$allocator@USFXHIT_COUNT@@@std@@@std@@@std@@@std@@PAX@std@@@1@PAU?$_Tree_node@U?$pair@$$CBKV?$queue@USFXHIT_COUNT@@V?$deque@USFXHIT_COUNT@@V?$allocator@USFXHIT_COUNT@@@std@@@std@@@std@@@std@@PAX@1@@Z PROC ; std::_Tree_val<std::_Tree_simple_types<std::pair<unsigned long const ,std::queue<SFXHIT_COUNT,std::deque<SFXHIT_COUNT,std::allocator<SFXHIT_COUNT> > > > > >::_Erase_tree<std::allocator<std::_Tree_node<std::pair<unsigned long const ,std::queue<SFXHIT_COUNT,std::deque<SFXHIT_COUNT,std::allocator<SFXHIT_COUNT> > > >,void *> > >, COMDAT
; _this$ = ecx

; 767  :     void _Erase_tree(_Alnode& _Al, _Nodeptr _Rootnode) noexcept {

  00000	55		 push	 ebp
  00001	8b ec		 mov	 ebp, esp
  00003	51		 push	 ecx
  00004	53		 push	 ebx

; 768  :         while (!_Rootnode->_Isnil) { // free subtrees, then node

  00005	8b 5d 0c	 mov	 ebx, DWORD PTR __Rootnode$[ebp]
  00008	8b c1		 mov	 eax, ecx
  0000a	89 45 fc	 mov	 DWORD PTR _this$1$[ebp], eax
  0000d	80 7b 0d 00	 cmp	 BYTE PTR [ebx+13], 0
  00011	0f 85 bf 00 00
	00		 jne	 $LN142@Erase_tree
  00017	56		 push	 esi
  00018	57		 push	 edi
  00019	0f 1f 80 00 00
	00 00		 npad	 7
$LL2@Erase_tree:

; 769  :             _Erase_tree(_Al, _Rootnode->_Right);

  00020	ff 73 08	 push	 DWORD PTR [ebx+8]
  00023	8b c8		 mov	 ecx, eax
  00025	ff 75 08	 push	 DWORD PTR __Al$[ebp]
  00028	e8 00 00 00 00	 call	 ??$_Erase_tree@V?$allocator@U?$_Tree_node@U?$pair@$$CBKV?$queue@USFXHIT_COUNT@@V?$deque@USFXHIT_COUNT@@V?$allocator@USFXHIT_COUNT@@@std@@@std@@@std@@@std@@PAX@std@@@std@@@?$_Tree_val@U?$_Tree_simple_types@U?$pair@$$CBKV?$queue@USFXHIT_COUNT@@V?$deque@USFXHIT_COUNT@@V?$allocator@USFXHIT_COUNT@@@std@@@std@@@std@@@std@@@std@@@std@@QAEXAAV?$allocator@U?$_Tree_node@U?$pair@$$CBKV?$queue@USFXHIT_COUNT@@V?$deque@USFXHIT_COUNT@@V?$allocator@USFXHIT_COUNT@@@std@@@std@@@std@@@std@@PAX@std@@@1@PAU?$_Tree_node@U?$pair@$$CBKV?$queue@USFXHIT_COUNT@@V?$deque@USFXHIT_COUNT@@V?$allocator@USFXHIT_COUNT@@@std@@@std@@@std@@@std@@PAX@1@@Z ; std::_Tree_val<std::_Tree_simple_types<std::pair<unsigned long const ,std::queue<SFXHIT_COUNT,std::deque<SFXHIT_COUNT,std::allocator<SFXHIT_COUNT> > > > > >::_Erase_tree<std::allocator<std::_Tree_node<std::pair<unsigned long const ,std::queue<SFXHIT_COUNT,std::deque<SFXHIT_COUNT,std::allocator<SFXHIT_COUNT> > > >,void *> > >
; File C:\Program Files\Microsoft Visual Studio\2022\Professional\VC\Tools\MSVC\14.44.35207\include\utility

; 773  :     _Ty _Old_val = static_cast<_Ty&&>(_Val);

  0002d	8b f3		 mov	 esi, ebx

; 774  :     _Val         = static_cast<_Other&&>(_New_val);

  0002f	8b 1b		 mov	 ebx, DWORD PTR [ebx]
; File C:\Program Files\Microsoft Visual Studio\2022\Professional\VC\Tools\MSVC\14.44.35207\include\deque

; 971  :         return _Mysize() == 0;

  00031	8b 4e 24	 mov	 ecx, DWORD PTR [esi+36]
  00034	85 c9		 test	 ecx, ecx

; 1673 :         while (!empty()) {

  00036	74 0f		 je	 SHORT $LN149@Erase_tree
$LL32@Erase_tree:

; 1513 :         if (--_Mysize() == 0) {

  00038	8d 41 ff	 lea	 eax, DWORD PTR [ecx-1]
  0003b	89 46 24	 mov	 DWORD PTR [esi+36], eax
  0003e	8b c8		 mov	 ecx, eax
  00040	85 c0		 test	 eax, eax
  00042	75 f4		 jne	 SHORT $LL32@Erase_tree

; 1514 :             _Myoff() = 0;

  00044	89 46 20	 mov	 DWORD PTR [esi+32], eax
$LN149@Erase_tree:

; 1677 :         if (_Map() != nullptr) {

  00047	83 7e 18 00	 cmp	 DWORD PTR [esi+24], 0
  0004b	74 5c		 je	 SHORT $LN55@Erase_tree

; 1654 :         for (auto _Block = _Map_distance(); _Block > 0;) { // free storage for a block and destroy pointer

  0004d	8b 7e 1c	 mov	 edi, DWORD PTR [esi+28]
  00050	85 ff		 test	 edi, edi
  00052	7e 1a		 jle	 SHORT $LN52@Erase_tree
$LL53@Erase_tree:

; 1655 :             --_Block;
; 1656 :             auto& _Block_ptr = _Map()[_Block];
; 1657 :             if (_Block_ptr) { // free block

  00054	8b 46 18	 mov	 eax, DWORD PTR [esi+24]
  00057	4f		 dec	 edi
  00058	8b 04 b8	 mov	 eax, DWORD PTR [eax+edi*4]
  0005b	85 c0		 test	 eax, eax
  0005d	74 0b		 je	 SHORT $LN51@Erase_tree
; File C:\Program Files\Microsoft Visual Studio\2022\Professional\VC\Tools\MSVC\14.44.35207\include\xmemory

; 289  :         ::operator delete(_Ptr, _Bytes);

  0005f	6a 10		 push	 16			; 00000010H
  00061	50		 push	 eax
  00062	e8 00 00 00 00	 call	 ??3@YAXPAXI@Z		; operator delete
  00067	83 c4 08	 add	 esp, 8
$LN51@Erase_tree:
; File C:\Program Files\Microsoft Visual Studio\2022\Professional\VC\Tools\MSVC\14.44.35207\include\deque

; 1654 :         for (auto _Block = _Map_distance(); _Block > 0;) { // free storage for a block and destroy pointer

  0006a	85 ff		 test	 edi, edi
  0006c	7f e6		 jg	 SHORT $LL53@Erase_tree
$LN52@Erase_tree:
; File C:\Program Files\Microsoft Visual Studio\2022\Professional\VC\Tools\MSVC\14.44.35207\include\xmemory

; 985  :         _STD _Deallocate<_New_alignof<_Ty>>(_Ptr, sizeof(_Ty) * _Count);

  0006e	8b 4e 1c	 mov	 ecx, DWORD PTR [esi+28]
  00071	8b 46 18	 mov	 eax, DWORD PTR [esi+24]
  00074	c1 e1 02	 shl	 ecx, 2

; 284  :         if (_Bytes >= _Big_allocation_threshold) {

  00077	81 f9 00 10 00
	00		 cmp	 ecx, 4096		; 00001000H
  0007d	72 12		 jb	 SHORT $LN81@Erase_tree

; 205  :     const uintptr_t _Ptr_container   = _Ptr_user[-1];

  0007f	8b 50 fc	 mov	 edx, DWORD PTR [eax-4]
  00082	83 c1 23	 add	 ecx, 35			; 00000023H

; 206  : 
; 207  :     // If the following asserts, it likely means that we are performing
; 208  :     // an aligned delete on memory coming from an unaligned allocation.
; 209  :     _STL_ASSERT(_Ptr_user[-2] == _Big_allocation_sentinel, "invalid argument");
; 210  : 
; 211  :     // Extra paranoia on aligned allocation/deallocation; ensure _Ptr_container is
; 212  :     // in range [_Min_back_shift, _Non_user_size]
; 213  : #ifdef _DEBUG
; 214  :     constexpr uintptr_t _Min_back_shift = 2 * sizeof(void*);
; 215  : #else // ^^^ defined(_DEBUG) / !defined(_DEBUG) vvv
; 216  :     constexpr uintptr_t _Min_back_shift = sizeof(void*);
; 217  : #endif // ^^^ !defined(_DEBUG) ^^^
; 218  :     const uintptr_t _Back_shift = reinterpret_cast<uintptr_t>(_Ptr) - _Ptr_container;

  00085	2b c2		 sub	 eax, edx

; 219  :     _STL_VERIFY(_Back_shift >= _Min_back_shift && _Back_shift <= _Non_user_size, "invalid argument");

  00087	83 c0 fc	 add	 eax, -4			; fffffffcH
  0008a	83 f8 1f	 cmp	 eax, 31			; 0000001fH
  0008d	77 4e		 ja	 SHORT $LN137@Erase_tree

; 220  :     _Ptr = reinterpret_cast<void*>(_Ptr_container);

  0008f	8b c2		 mov	 eax, edx
$LN81@Erase_tree:

; 289  :         ::operator delete(_Ptr, _Bytes);

  00091	51		 push	 ecx
  00092	50		 push	 eax
  00093	e8 00 00 00 00	 call	 ??3@YAXPAXI@Z		; operator delete
  00098	83 c4 08	 add	 esp, 8
; File C:\Program Files\Microsoft Visual Studio\2022\Professional\VC\Tools\MSVC\14.44.35207\include\deque

; 1666 :         _Map()     = nullptr;

  0009b	c7 46 18 00 00
	00 00		 mov	 DWORD PTR [esi+24], 0

; 1667 :         _Mapsize() = 0;

  000a2	c7 46 1c 00 00
	00 00		 mov	 DWORD PTR [esi+28], 0
$LN55@Erase_tree:
; File C:\Program Files\Microsoft Visual Studio\2022\Professional\VC\Tools\MSVC\14.44.35207\include\utility

; 773  :     _Ty _Old_val = static_cast<_Ty&&>(_Val);

  000a9	8b 46 14	 mov	 eax, DWORD PTR [esi+20]
; File C:\Program Files\Microsoft Visual Studio\2022\Professional\VC\Tools\MSVC\14.44.35207\include\xmemory

; 289  :         ::operator delete(_Ptr, _Bytes);

  000ac	6a 08		 push	 8
  000ae	50		 push	 eax
; File C:\Program Files\Microsoft Visual Studio\2022\Professional\VC\Tools\MSVC\14.44.35207\include\utility

; 774  :     _Val         = static_cast<_Other&&>(_New_val);

  000af	c7 46 14 00 00
	00 00		 mov	 DWORD PTR [esi+20], 0
; File C:\Program Files\Microsoft Visual Studio\2022\Professional\VC\Tools\MSVC\14.44.35207\include\xmemory

; 289  :         ::operator delete(_Ptr, _Bytes);

  000b6	e8 00 00 00 00	 call	 ??3@YAXPAXI@Z		; operator delete
  000bb	6a 28		 push	 40			; 00000028H
  000bd	56		 push	 esi
  000be	e8 00 00 00 00	 call	 ??3@YAXPAXI@Z		; operator delete
  000c3	83 c4 10	 add	 esp, 16			; 00000010H
; File C:\Program Files\Microsoft Visual Studio\2022\Professional\VC\Tools\MSVC\14.44.35207\include\xtree

; 768  :         while (!_Rootnode->_Isnil) { // free subtrees, then node

  000c6	80 7b 0d 00	 cmp	 BYTE PTR [ebx+13], 0
  000ca	75 08		 jne	 SHORT $LN160@Erase_tree
  000cc	8b 45 fc	 mov	 eax, DWORD PTR _this$1$[ebp]
  000cf	e9 4c ff ff ff	 jmp	 $LL2@Erase_tree
$LN160@Erase_tree:
  000d4	5f		 pop	 edi
  000d5	5e		 pop	 esi
$LN142@Erase_tree:
  000d6	5b		 pop	 ebx

; 772  :     }

  000d7	8b e5		 mov	 esp, ebp
  000d9	5d		 pop	 ebp
  000da	c2 08 00	 ret	 8
$LN137@Erase_tree:
; File C:\Program Files\Microsoft Visual Studio\2022\Professional\VC\Tools\MSVC\14.44.35207\include\xmemory

; 219  :     _STL_VERIFY(_Back_shift >= _Min_back_shift && _Back_shift <= _Non_user_size, "invalid argument");

  000dd	6a 00		 push	 0
  000df	6a 00		 push	 0
  000e1	6a 00		 push	 0
  000e3	6a 00		 push	 0
  000e5	6a 00		 push	 0
  000e7	e8 00 00 00 00	 call	 __invoke_watson
$LN162@Erase_tree:
  000ec	cc		 int	 3
??$_Erase_tree@V?$allocator@U?$_Tree_node@U?$pair@$$CBKV?$queue@USFXHIT_COUNT@@V?$deque@USFXHIT_COUNT@@V?$allocator@USFXHIT_COUNT@@@std@@@std@@@std@@@std@@PAX@std@@@std@@@?$_Tree_val@U?$_Tree_simple_types@U?$pair@$$CBKV?$queue@USFXHIT_COUNT@@V?$deque@USFXHIT_COUNT@@V?$allocator@USFXHIT_COUNT@@@std@@@std@@@std@@@std@@@std@@@std@@QAEXAAV?$allocator@U?$_Tree_node@U?$pair@$$CBKV?$queue@USFXHIT_COUNT@@V?$deque@USFXHIT_COUNT@@V?$allocator@USFXHIT_COUNT@@@std@@@std@@@std@@@std@@PAX@std@@@1@PAU?$_Tree_node@U?$pair@$$CBKV?$queue@USFXHIT_COUNT@@V?$deque@USFXHIT_COUNT@@V?$allocator@USFXHIT_COUNT@@@std@@@std@@@std@@@std@@PAX@1@@Z ENDP ; std::_Tree_val<std::_Tree_simple_types<std::pair<unsigned long const ,std::queue<SFXHIT_COUNT,std::deque<SFXHIT_COUNT,std::allocator<SFXHIT_COUNT> > > > > >::_Erase_tree<std::allocator<std::_Tree_node<std::pair<unsigned long const ,std::queue<SFXHIT_COUNT,std::deque<SFXHIT_COUNT,std::allocator<SFXHIT_COUNT> > > >,void *> > >
_TEXT	ENDS
; Function compile flags: /Ogtp
; File C:\Program Files\Microsoft Visual Studio\2022\Professional\VC\Tools\MSVC\14.44.35207\include\xtree
; File C:\Program Files\Microsoft Visual Studio\2022\Professional\VC\Tools\MSVC\14.44.35207\include\type_traits
; File C:\Program Files\Microsoft Visual Studio\2022\Professional\VC\Tools\MSVC\14.44.35207\include\xtree
; File C:\Program Files\Microsoft Visual Studio\2022\Professional\VC\Tools\MSVC\14.44.35207\include\type_traits
; File C:\Program Files\Microsoft Visual Studio\2022\Professional\VC\Tools\MSVC\14.44.35207\include\xtree
;	COMDAT ??$_Find_lower_bound@K@?$_Tree@V?$_Tmap_traits@KUHIT_INFO@@U?$less@K@std@@V?$allocator@U?$pair@$$CBKUHIT_INFO@@@std@@@3@$0A@@std@@@std@@IBE?AU?$_Tree_find_result@PAU?$_Tree_node@U?$pair@$$CBKUHIT_INFO@@@std@@PAX@std@@@1@ABK@Z
_TEXT	SEGMENT
___$ReturnUdt$ = 8					; size = 4
__Keyval$ = 12						; size = 4
??$_Find_lower_bound@K@?$_Tree@V?$_Tmap_traits@KUHIT_INFO@@U?$less@K@std@@V?$allocator@U?$pair@$$CBKUHIT_INFO@@@std@@@3@$0A@@std@@@std@@IBE?AU?$_Tree_find_result@PAU?$_Tree_node@U?$pair@$$CBKUHIT_INFO@@@std@@PAX@std@@@1@ABK@Z PROC ; std::_Tree<std::_Tmap_traits<unsigned long,HIT_INFO,std::less<unsigned long>,std::allocator<std::pair<unsigned long const ,HIT_INFO> >,0> >::_Find_lower_bound<unsigned long>, COMDAT
; _this$ = ecx

; 1628 :     _Tree_find_result<_Nodeptr> _Find_lower_bound(const _Keyty& _Keyval) const {

  00000	55		 push	 ebp
  00001	8b ec		 mov	 ebp, esp

; 1629 :         const auto _Scary = _Get_scary();
; 1630 :         _Tree_find_result<_Nodeptr> _Result{{_Scary->_Myhead->_Parent, _Tree_child::_Right}, _Scary->_Myhead};

  00003	8b 09		 mov	 ecx, DWORD PTR [ecx]
  00005	8b 55 08	 mov	 edx, DWORD PTR ___$ReturnUdt$[ebp]
  00008	8b 41 04	 mov	 eax, DWORD PTR [ecx+4]
  0000b	89 02		 mov	 DWORD PTR [edx], eax
  0000d	c7 42 04 00 00
	00 00		 mov	 DWORD PTR [edx+4], 0
  00014	89 4a 08	 mov	 DWORD PTR [edx+8], ecx

; 1631 :         _Nodeptr _Trynode = _Result._Location._Parent;
; 1632 :         while (!_Trynode->_Isnil) {

  00017	80 78 0d 00	 cmp	 BYTE PTR [eax+13], 0
  0001b	75 28		 jne	 SHORT $LN13@Find_lower
; File C:\Program Files\Microsoft Visual Studio\2022\Professional\VC\Tools\MSVC\14.44.35207\include\type_traits

; 2380 :         return _Left < _Right;

  0001d	8b 4d 0c	 mov	 ecx, DWORD PTR __Keyval$[ebp]
  00020	56		 push	 esi
  00021	8b 31		 mov	 esi, DWORD PTR [ecx]
$LL2@Find_lower:
; File C:\Program Files\Microsoft Visual Studio\2022\Professional\VC\Tools\MSVC\14.44.35207\include\xtree

; 1633 :             _Result._Location._Parent = _Trynode;

  00023	89 02		 mov	 DWORD PTR [edx], eax
; File C:\Program Files\Microsoft Visual Studio\2022\Professional\VC\Tools\MSVC\14.44.35207\include\type_traits

; 2380 :         return _Left < _Right;

  00025	39 70 10	 cmp	 DWORD PTR [eax+16], esi
; File C:\Program Files\Microsoft Visual Studio\2022\Professional\VC\Tools\MSVC\14.44.35207\include\xtree

; 1634 :             if (_DEBUG_LT_PRED(_Getcomp(), _Traits::_Kfn(_Trynode->_Myval), _Keyval)) {

  00028	73 07		 jae	 SHORT $LN4@Find_lower

; 1635 :                 _Result._Location._Child = _Tree_child::_Right;
; 1636 :                 _Trynode                 = _Trynode->_Right;

  0002a	8b 40 08	 mov	 eax, DWORD PTR [eax+8]
  0002d	33 c9		 xor	 ecx, ecx

; 1637 :             } else {

  0002f	eb 0a		 jmp	 SHORT $LN5@Find_lower
$LN4@Find_lower:

; 1638 :                 _Result._Location._Child = _Tree_child::_Left;
; 1639 :                 _Result._Bound           = _Trynode;

  00031	89 42 08	 mov	 DWORD PTR [edx+8], eax

; 1640 :                 _Trynode                 = _Trynode->_Left;

  00034	b9 01 00 00 00	 mov	 ecx, 1
  00039	8b 00		 mov	 eax, DWORD PTR [eax]
$LN5@Find_lower:

; 1631 :         _Nodeptr _Trynode = _Result._Location._Parent;
; 1632 :         while (!_Trynode->_Isnil) {

  0003b	89 4a 04	 mov	 DWORD PTR [edx+4], ecx
  0003e	80 78 0d 00	 cmp	 BYTE PTR [eax+13], 0
  00042	74 df		 je	 SHORT $LL2@Find_lower
  00044	5e		 pop	 esi
$LN13@Find_lower:

; 1641 :             }
; 1642 :         }
; 1643 : 
; 1644 :         return _Result;
; 1645 :     }

  00045	8b c2		 mov	 eax, edx
  00047	5d		 pop	 ebp
  00048	c2 08 00	 ret	 8
??$_Find_lower_bound@K@?$_Tree@V?$_Tmap_traits@KUHIT_INFO@@U?$less@K@std@@V?$allocator@U?$pair@$$CBKUHIT_INFO@@@std@@@3@$0A@@std@@@std@@IBE?AU?$_Tree_find_result@PAU?$_Tree_node@U?$pair@$$CBKUHIT_INFO@@@std@@PAX@std@@@1@ABK@Z ENDP ; std::_Tree<std::_Tmap_traits<unsigned long,HIT_INFO,std::less<unsigned long>,std::allocator<std::pair<unsigned long const ,HIT_INFO> >,0> >::_Find_lower_bound<unsigned long>
_TEXT	ENDS
; Function compile flags: /Ogtp
; File C:\Program Files\Microsoft Visual Studio\2022\Professional\VC\Tools\MSVC\14.44.35207\include\xtree
; File C:\Program Files\Microsoft Visual Studio\2022\Professional\VC\Tools\MSVC\14.44.35207\include\utility
; File C:\Program Files\Microsoft Visual Studio\2022\Professional\VC\Tools\MSVC\14.44.35207\include\xmemory
; File C:\Program Files\Microsoft Visual Studio\2022\Professional\VC\Tools\MSVC\14.44.35207\include\xtree
;	COMDAT ??$_Erase_tree@V?$allocator@U?$_Tree_node@U?$pair@QAVCSetItem@@H@std@@PAX@std@@@std@@@?$_Tree_val@U?$_Tree_simple_types@U?$pair@QAVCSetItem@@H@std@@@std@@@std@@QAEXAAV?$allocator@U?$_Tree_node@U?$pair@QAVCSetItem@@H@std@@PAX@std@@@1@PAU?$_Tree_node@U?$pair@QAVCSetItem@@H@std@@PAX@1@@Z
_TEXT	SEGMENT
__Al$ = 8						; size = 4
__Rootnode$ = 12					; size = 4
??$_Erase_tree@V?$allocator@U?$_Tree_node@U?$pair@QAVCSetItem@@H@std@@PAX@std@@@std@@@?$_Tree_val@U?$_Tree_simple_types@U?$pair@QAVCSetItem@@H@std@@@std@@@std@@QAEXAAV?$allocator@U?$_Tree_node@U?$pair@QAVCSetItem@@H@std@@PAX@std@@@1@PAU?$_Tree_node@U?$pair@QAVCSetItem@@H@std@@PAX@1@@Z PROC ; std::_Tree_val<std::_Tree_simple_types<std::pair<CSetItem * const,int> > >::_Erase_tree<std::allocator<std::_Tree_node<std::pair<CSetItem * const,int>,void *> > >, COMDAT
; _this$ = ecx

; 767  :     void _Erase_tree(_Alnode& _Al, _Nodeptr _Rootnode) noexcept {

  00000	55		 push	 ebp
  00001	8b ec		 mov	 ebp, esp
  00003	53		 push	 ebx
  00004	56		 push	 esi

; 768  :         while (!_Rootnode->_Isnil) { // free subtrees, then node

  00005	8b 75 0c	 mov	 esi, DWORD PTR __Rootnode$[ebp]
  00008	8b d9		 mov	 ebx, ecx
  0000a	80 7e 0d 00	 cmp	 BYTE PTR [esi+13], 0
  0000e	75 25		 jne	 SHORT $LN34@Erase_tree
  00010	57		 push	 edi
  00011	8b 7d 08	 mov	 edi, DWORD PTR __Al$[ebp]
$LL2@Erase_tree:

; 769  :             _Erase_tree(_Al, _Rootnode->_Right);

  00014	ff 76 08	 push	 DWORD PTR [esi+8]
  00017	8b cb		 mov	 ecx, ebx
  00019	57		 push	 edi
  0001a	e8 00 00 00 00	 call	 ??$_Erase_tree@V?$allocator@U?$_Tree_node@U?$pair@QAVCSetItem@@H@std@@PAX@std@@@std@@@?$_Tree_val@U?$_Tree_simple_types@U?$pair@QAVCSetItem@@H@std@@@std@@@std@@QAEXAAV?$allocator@U?$_Tree_node@U?$pair@QAVCSetItem@@H@std@@PAX@std@@@1@PAU?$_Tree_node@U?$pair@QAVCSetItem@@H@std@@PAX@1@@Z ; std::_Tree_val<std::_Tree_simple_types<std::pair<CSetItem * const,int> > >::_Erase_tree<std::allocator<std::_Tree_node<std::pair<CSetItem * const,int>,void *> > >
; File C:\Program Files\Microsoft Visual Studio\2022\Professional\VC\Tools\MSVC\14.44.35207\include\utility

; 773  :     _Ty _Old_val = static_cast<_Ty&&>(_Val);

  0001f	8b c6		 mov	 eax, esi

; 774  :     _Val         = static_cast<_Other&&>(_New_val);

  00021	8b 36		 mov	 esi, DWORD PTR [esi]
; File C:\Program Files\Microsoft Visual Studio\2022\Professional\VC\Tools\MSVC\14.44.35207\include\xmemory

; 289  :         ::operator delete(_Ptr, _Bytes);

  00023	6a 18		 push	 24			; 00000018H
  00025	50		 push	 eax
  00026	e8 00 00 00 00	 call	 ??3@YAXPAXI@Z		; operator delete
  0002b	83 c4 08	 add	 esp, 8
; File C:\Program Files\Microsoft Visual Studio\2022\Professional\VC\Tools\MSVC\14.44.35207\include\xtree

; 768  :         while (!_Rootnode->_Isnil) { // free subtrees, then node

  0002e	80 7e 0d 00	 cmp	 BYTE PTR [esi+13], 0
  00032	74 e0		 je	 SHORT $LL2@Erase_tree
  00034	5f		 pop	 edi
$LN34@Erase_tree:
  00035	5e		 pop	 esi

; 770  :             _Alnode::value_type::_Freenode(_Al, _STD exchange(_Rootnode, _Rootnode->_Left));
; 771  :         }
; 772  :     }

  00036	5b		 pop	 ebx
  00037	5d		 pop	 ebp
  00038	c2 08 00	 ret	 8
??$_Erase_tree@V?$allocator@U?$_Tree_node@U?$pair@QAVCSetItem@@H@std@@PAX@std@@@std@@@?$_Tree_val@U?$_Tree_simple_types@U?$pair@QAVCSetItem@@H@std@@@std@@@std@@QAEXAAV?$allocator@U?$_Tree_node@U?$pair@QAVCSetItem@@H@std@@PAX@std@@@1@PAU?$_Tree_node@U?$pair@QAVCSetItem@@H@std@@PAX@1@@Z ENDP ; std::_Tree_val<std::_Tree_simple_types<std::pair<CSetItem * const,int> > >::_Erase_tree<std::allocator<std::_Tree_node<std::pair<CSetItem * const,int>,void *> > >
_TEXT	ENDS
; Function compile flags: /Ogtp
; File C:\Program Files\Microsoft Visual Studio\2022\Professional\VC\Tools\MSVC\14.44.35207\include\xmemory
;	COMDAT ??1?$_Alloc_construct_ptr@V?$allocator@U?$_Tree_node@U?$pair@QAVCSetItem@@H@std@@PAX@std@@@std@@@std@@QAE@XZ
_TEXT	SEGMENT
??1?$_Alloc_construct_ptr@V?$allocator@U?$_Tree_node@U?$pair@QAVCSetItem@@H@std@@PAX@std@@@std@@@std@@QAE@XZ PROC ; std::_Alloc_construct_ptr<std::allocator<std::_Tree_node<std::pair<CSetItem * const,int>,void *> > >::~_Alloc_construct_ptr<std::allocator<std::_Tree_node<std::pair<CSetItem * const,int>,void *> > >, COMDAT
; _this$ = ecx

; 1172 :         if (_Ptr) {

  00000	8b 41 04	 mov	 eax, DWORD PTR [ecx+4]
  00003	85 c0		 test	 eax, eax
  00005	74 0b		 je	 SHORT $LN10@Alloc_cons

; 289  :         ::operator delete(_Ptr, _Bytes);

  00007	6a 18		 push	 24			; 00000018H
  00009	50		 push	 eax
  0000a	e8 00 00 00 00	 call	 ??3@YAXPAXI@Z		; operator delete
  0000f	83 c4 08	 add	 esp, 8
$LN10@Alloc_cons:

; 1173 :             _Al.deallocate(_Ptr, 1);
; 1174 :         }
; 1175 :     }

  00012	c3		 ret	 0
??1?$_Alloc_construct_ptr@V?$allocator@U?$_Tree_node@U?$pair@QAVCSetItem@@H@std@@PAX@std@@@std@@@std@@QAE@XZ ENDP ; std::_Alloc_construct_ptr<std::allocator<std::_Tree_node<std::pair<CSetItem * const,int>,void *> > >::~_Alloc_construct_ptr<std::allocator<std::_Tree_node<std::pair<CSetItem * const,int>,void *> > >
_TEXT	ENDS
; Function compile flags: /Ogtp
; File C:\Program Files\Microsoft Visual Studio\2022\Professional\VC\Tools\MSVC\14.44.35207\include\xtree
; File C:\Program Files\Microsoft Visual Studio\2022\Professional\VC\Tools\MSVC\14.44.35207\include\type_traits
; File C:\Program Files\Microsoft Visual Studio\2022\Professional\VC\Tools\MSVC\14.44.35207\include\xtree
; File C:\Program Files\Microsoft Visual Studio\2022\Professional\VC\Tools\MSVC\14.44.35207\include\type_traits
; File C:\Program Files\Microsoft Visual Studio\2022\Professional\VC\Tools\MSVC\14.44.35207\include\xtree
;	COMDAT ??$_Find_lower_bound@PAVCSetItem@@@?$_Tree@V?$_Tmap_traits@PAVCSetItem@@HU?$less@PAVCSetItem@@@std@@V?$allocator@U?$pair@QAVCSetItem@@H@std@@@3@$0A@@std@@@std@@IBE?AU?$_Tree_find_result@PAU?$_Tree_node@U?$pair@QAVCSetItem@@H@std@@PAX@std@@@1@ABQAVCSetItem@@@Z
_TEXT	SEGMENT
___$ReturnUdt$ = 8					; size = 4
__Keyval$ = 12						; size = 4
??$_Find_lower_bound@PAVCSetItem@@@?$_Tree@V?$_Tmap_traits@PAVCSetItem@@HU?$less@PAVCSetItem@@@std@@V?$allocator@U?$pair@QAVCSetItem@@H@std@@@3@$0A@@std@@@std@@IBE?AU?$_Tree_find_result@PAU?$_Tree_node@U?$pair@QAVCSetItem@@H@std@@PAX@std@@@1@ABQAVCSetItem@@@Z PROC ; std::_Tree<std::_Tmap_traits<CSetItem *,int,std::less<CSetItem *>,std::allocator<std::pair<CSetItem * const,int> >,0> >::_Find_lower_bound<CSetItem *>, COMDAT
; _this$ = ecx

; 1628 :     _Tree_find_result<_Nodeptr> _Find_lower_bound(const _Keyty& _Keyval) const {

  00000	55		 push	 ebp
  00001	8b ec		 mov	 ebp, esp

; 1629 :         const auto _Scary = _Get_scary();
; 1630 :         _Tree_find_result<_Nodeptr> _Result{{_Scary->_Myhead->_Parent, _Tree_child::_Right}, _Scary->_Myhead};

  00003	8b 09		 mov	 ecx, DWORD PTR [ecx]
  00005	8b 55 08	 mov	 edx, DWORD PTR ___$ReturnUdt$[ebp]
  00008	8b 41 04	 mov	 eax, DWORD PTR [ecx+4]
  0000b	89 02		 mov	 DWORD PTR [edx], eax
  0000d	c7 42 04 00 00
	00 00		 mov	 DWORD PTR [edx+4], 0
  00014	89 4a 08	 mov	 DWORD PTR [edx+8], ecx

; 1631 :         _Nodeptr _Trynode = _Result._Location._Parent;
; 1632 :         while (!_Trynode->_Isnil) {

  00017	80 78 0d 00	 cmp	 BYTE PTR [eax+13], 0
  0001b	75 28		 jne	 SHORT $LN13@Find_lower
; File C:\Program Files\Microsoft Visual Studio\2022\Professional\VC\Tools\MSVC\14.44.35207\include\type_traits

; 2380 :         return _Left < _Right;

  0001d	8b 4d 0c	 mov	 ecx, DWORD PTR __Keyval$[ebp]
  00020	56		 push	 esi
  00021	8b 31		 mov	 esi, DWORD PTR [ecx]
$LL2@Find_lower:
; File C:\Program Files\Microsoft Visual Studio\2022\Professional\VC\Tools\MSVC\14.44.35207\include\xtree

; 1633 :             _Result._Location._Parent = _Trynode;

  00023	89 02		 mov	 DWORD PTR [edx], eax
; File C:\Program Files\Microsoft Visual Studio\2022\Professional\VC\Tools\MSVC\14.44.35207\include\type_traits

; 2380 :         return _Left < _Right;

  00025	39 70 10	 cmp	 DWORD PTR [eax+16], esi
; File C:\Program Files\Microsoft Visual Studio\2022\Professional\VC\Tools\MSVC\14.44.35207\include\xtree

; 1634 :             if (_DEBUG_LT_PRED(_Getcomp(), _Traits::_Kfn(_Trynode->_Myval), _Keyval)) {

  00028	73 07		 jae	 SHORT $LN4@Find_lower

; 1635 :                 _Result._Location._Child = _Tree_child::_Right;
; 1636 :                 _Trynode                 = _Trynode->_Right;

  0002a	8b 40 08	 mov	 eax, DWORD PTR [eax+8]
  0002d	33 c9		 xor	 ecx, ecx

; 1637 :             } else {

  0002f	eb 0a		 jmp	 SHORT $LN5@Find_lower
$LN4@Find_lower:

; 1638 :                 _Result._Location._Child = _Tree_child::_Left;
; 1639 :                 _Result._Bound           = _Trynode;

  00031	89 42 08	 mov	 DWORD PTR [edx+8], eax

; 1640 :                 _Trynode                 = _Trynode->_Left;

  00034	b9 01 00 00 00	 mov	 ecx, 1
  00039	8b 00		 mov	 eax, DWORD PTR [eax]
$LN5@Find_lower:

; 1631 :         _Nodeptr _Trynode = _Result._Location._Parent;
; 1632 :         while (!_Trynode->_Isnil) {

  0003b	89 4a 04	 mov	 DWORD PTR [edx+4], ecx
  0003e	80 78 0d 00	 cmp	 BYTE PTR [eax+13], 0
  00042	74 df		 je	 SHORT $LL2@Find_lower
  00044	5e		 pop	 esi
$LN13@Find_lower:

; 1641 :             }
; 1642 :         }
; 1643 : 
; 1644 :         return _Result;
; 1645 :     }

  00045	8b c2		 mov	 eax, edx
  00047	5d		 pop	 ebp
  00048	c2 08 00	 ret	 8
??$_Find_lower_bound@PAVCSetItem@@@?$_Tree@V?$_Tmap_traits@PAVCSetItem@@HU?$less@PAVCSetItem@@@std@@V?$allocator@U?$pair@QAVCSetItem@@H@std@@@3@$0A@@std@@@std@@IBE?AU?$_Tree_find_result@PAU?$_Tree_node@U?$pair@QAVCSetItem@@H@std@@PAX@std@@@1@ABQAVCSetItem@@@Z ENDP ; std::_Tree<std::_Tmap_traits<CSetItem *,int,std::less<CSetItem *>,std::allocator<std::pair<CSetItem * const,int> >,0> >::_Find_lower_bound<CSetItem *>
_TEXT	ENDS
; Function compile flags: /Ogtp
; File C:\Program Files\Microsoft Visual Studio\2022\Professional\VC\Tools\MSVC\14.44.35207\include\xtree
; File C:\Program Files\Microsoft Visual Studio\2022\Professional\VC\Tools\MSVC\14.44.35207\include\utility
; File C:\Program Files\Microsoft Visual Studio\2022\Professional\VC\Tools\MSVC\14.44.35207\include\xmemory
; File C:\Program Files\Microsoft Visual Studio\2022\Professional\VC\Tools\MSVC\14.44.35207\include\xtree
;	COMDAT ??$_Erase_tree@V?$allocator@U?$_Tree_node@U?$pair@$$CBKUHIT_INFO@@@std@@PAX@std@@@std@@@?$_Tree_val@U?$_Tree_simple_types@U?$pair@$$CBKUHIT_INFO@@@std@@@std@@@std@@QAEXAAV?$allocator@U?$_Tree_node@U?$pair@$$CBKUHIT_INFO@@@std@@PAX@std@@@1@PAU?$_Tree_node@U?$pair@$$CBKUHIT_INFO@@@std@@PAX@1@@Z
_TEXT	SEGMENT
__Al$ = 8						; size = 4
__Rootnode$ = 12					; size = 4
??$_Erase_tree@V?$allocator@U?$_Tree_node@U?$pair@$$CBKUHIT_INFO@@@std@@PAX@std@@@std@@@?$_Tree_val@U?$_Tree_simple_types@U?$pair@$$CBKUHIT_INFO@@@std@@@std@@@std@@QAEXAAV?$allocator@U?$_Tree_node@U?$pair@$$CBKUHIT_INFO@@@std@@PAX@std@@@1@PAU?$_Tree_node@U?$pair@$$CBKUHIT_INFO@@@std@@PAX@1@@Z PROC ; std::_Tree_val<std::_Tree_simple_types<std::pair<unsigned long const ,HIT_INFO> > >::_Erase_tree<std::allocator<std::_Tree_node<std::pair<unsigned long const ,HIT_INFO>,void *> > >, COMDAT
; _this$ = ecx

; 767  :     void _Erase_tree(_Alnode& _Al, _Nodeptr _Rootnode) noexcept {

  00000	55		 push	 ebp
  00001	8b ec		 mov	 ebp, esp
  00003	53		 push	 ebx
  00004	56		 push	 esi

; 768  :         while (!_Rootnode->_Isnil) { // free subtrees, then node

  00005	8b 75 0c	 mov	 esi, DWORD PTR __Rootnode$[ebp]
  00008	8b d9		 mov	 ebx, ecx
  0000a	80 7e 0d 00	 cmp	 BYTE PTR [esi+13], 0
  0000e	75 25		 jne	 SHORT $LN34@Erase_tree
  00010	57		 push	 edi
  00011	8b 7d 08	 mov	 edi, DWORD PTR __Al$[ebp]
$LL2@Erase_tree:

; 769  :             _Erase_tree(_Al, _Rootnode->_Right);

  00014	ff 76 08	 push	 DWORD PTR [esi+8]
  00017	8b cb		 mov	 ecx, ebx
  00019	57		 push	 edi
  0001a	e8 00 00 00 00	 call	 ??$_Erase_tree@V?$allocator@U?$_Tree_node@U?$pair@$$CBKUHIT_INFO@@@std@@PAX@std@@@std@@@?$_Tree_val@U?$_Tree_simple_types@U?$pair@$$CBKUHIT_INFO@@@std@@@std@@@std@@QAEXAAV?$allocator@U?$_Tree_node@U?$pair@$$CBKUHIT_INFO@@@std@@PAX@std@@@1@PAU?$_Tree_node@U?$pair@$$CBKUHIT_INFO@@@std@@PAX@1@@Z ; std::_Tree_val<std::_Tree_simple_types<std::pair<unsigned long const ,HIT_INFO> > >::_Erase_tree<std::allocator<std::_Tree_node<std::pair<unsigned long const ,HIT_INFO>,void *> > >
; File C:\Program Files\Microsoft Visual Studio\2022\Professional\VC\Tools\MSVC\14.44.35207\include\utility

; 773  :     _Ty _Old_val = static_cast<_Ty&&>(_Val);

  0001f	8b c6		 mov	 eax, esi

; 774  :     _Val         = static_cast<_Other&&>(_New_val);

  00021	8b 36		 mov	 esi, DWORD PTR [esi]
; File C:\Program Files\Microsoft Visual Studio\2022\Professional\VC\Tools\MSVC\14.44.35207\include\xmemory

; 289  :         ::operator delete(_Ptr, _Bytes);

  00023	6a 1c		 push	 28			; 0000001cH
  00025	50		 push	 eax
  00026	e8 00 00 00 00	 call	 ??3@YAXPAXI@Z		; operator delete
  0002b	83 c4 08	 add	 esp, 8
; File C:\Program Files\Microsoft Visual Studio\2022\Professional\VC\Tools\MSVC\14.44.35207\include\xtree

; 768  :         while (!_Rootnode->_Isnil) { // free subtrees, then node

  0002e	80 7e 0d 00	 cmp	 BYTE PTR [esi+13], 0
  00032	74 e0		 je	 SHORT $LL2@Erase_tree
  00034	5f		 pop	 edi
$LN34@Erase_tree:
  00035	5e		 pop	 esi

; 770  :             _Alnode::value_type::_Freenode(_Al, _STD exchange(_Rootnode, _Rootnode->_Left));
; 771  :         }
; 772  :     }

  00036	5b		 pop	 ebx
  00037	5d		 pop	 ebp
  00038	c2 08 00	 ret	 8
??$_Erase_tree@V?$allocator@U?$_Tree_node@U?$pair@$$CBKUHIT_INFO@@@std@@PAX@std@@@std@@@?$_Tree_val@U?$_Tree_simple_types@U?$pair@$$CBKUHIT_INFO@@@std@@@std@@@std@@QAEXAAV?$allocator@U?$_Tree_node@U?$pair@$$CBKUHIT_INFO@@@std@@PAX@std@@@1@PAU?$_Tree_node@U?$pair@$$CBKUHIT_INFO@@@std@@PAX@1@@Z ENDP ; std::_Tree_val<std::_Tree_simple_types<std::pair<unsigned long const ,HIT_INFO> > >::_Erase_tree<std::allocator<std::_Tree_node<std::pair<unsigned long const ,HIT_INFO>,void *> > >
_TEXT	ENDS
; Function compile flags: /Ogtp
; File C:\Program Files\Microsoft Visual Studio\2022\Professional\VC\Tools\MSVC\14.44.35207\include\xtree
;	COMDAT ??E?$_Tree_unchecked_const_iterator@V?$_Tree_val@U?$_Tree_simple_types@U?$pair@$$CBKV?$queue@USFXHIT_COUNT@@V?$deque@USFXHIT_COUNT@@V?$allocator@USFXHIT_COUNT@@@std@@@std@@@std@@@std@@@std@@@std@@U_Iterator_base0@2@@std@@QAEAAV01@XZ
_TEXT	SEGMENT
??E?$_Tree_unchecked_const_iterator@V?$_Tree_val@U?$_Tree_simple_types@U?$pair@$$CBKV?$queue@USFXHIT_COUNT@@V?$deque@USFXHIT_COUNT@@V?$allocator@USFXHIT_COUNT@@@std@@@std@@@std@@@std@@@std@@@std@@U_Iterator_base0@2@@std@@QAEAAV01@XZ PROC ; std::_Tree_unchecked_const_iterator<std::_Tree_val<std::_Tree_simple_types<std::pair<unsigned long const ,std::queue<SFXHIT_COUNT,std::deque<SFXHIT_COUNT,std::allocator<SFXHIT_COUNT> > > > > >,std::_Iterator_base0>::operator++, COMDAT
; _this$ = ecx

; 49   :     _Tree_unchecked_const_iterator& operator++() noexcept {

  00000	56		 push	 esi
  00001	8b f1		 mov	 esi, ecx
  00003	57		 push	 edi

; 50   :         if (_Ptr->_Right->_Isnil) { // climb looking for right subtree

  00004	8b 16		 mov	 edx, DWORD PTR [esi]
  00006	8b 7a 08	 mov	 edi, DWORD PTR [edx+8]
  00009	80 7f 0d 00	 cmp	 BYTE PTR [edi+13], 0
  0000d	74 22		 je	 SHORT $LN4@operator

; 51   :             _Nodeptr _Pnode;
; 52   :             while (!(_Pnode = _Ptr->_Parent)->_Isnil && _Ptr == _Pnode->_Right) {

  0000f	8b 42 04	 mov	 eax, DWORD PTR [edx+4]
  00012	80 78 0d 00	 cmp	 BYTE PTR [eax+13], 0
  00016	75 12		 jne	 SHORT $LN21@operator
$LL2@operator:
  00018	3b 50 08	 cmp	 edx, DWORD PTR [eax+8]
  0001b	75 0d		 jne	 SHORT $LN21@operator

; 53   :                 _Ptr = _Pnode; // ==> parent while right subtree

  0001d	89 06		 mov	 DWORD PTR [esi], eax
  0001f	8b d0		 mov	 edx, eax
  00021	8b 40 04	 mov	 eax, DWORD PTR [eax+4]
  00024	80 78 0d 00	 cmp	 BYTE PTR [eax+13], 0
  00028	74 ee		 je	 SHORT $LL2@operator
$LN21@operator:

; 54   :             }
; 55   : 
; 56   :             _Ptr = _Pnode; // ==> parent (head if end())
; 57   :         } else {
; 58   :             _Ptr = _Mytree::_Min(_Ptr->_Right); // ==> smallest of right subtree
; 59   :         }
; 60   : 
; 61   :         return *this;

  0002a	89 06		 mov	 DWORD PTR [esi], eax

; 62   :     }

  0002c	8b c6		 mov	 eax, esi
  0002e	5f		 pop	 edi
  0002f	5e		 pop	 esi
  00030	c3		 ret	 0
$LN4@operator:

; 476  :         while (!_Pnode->_Left->_Isnil) {

  00031	8b 0f		 mov	 ecx, DWORD PTR [edi]
  00033	80 79 0d 00	 cmp	 BYTE PTR [ecx+13], 0
  00037	75 13		 jne	 SHORT $LN10@operator
  00039	0f 1f 80 00 00
	00 00		 npad	 7
$LL9@operator:
  00040	8b 01		 mov	 eax, DWORD PTR [ecx]

; 477  :             _Pnode = _Pnode->_Left;

  00042	8b f9		 mov	 edi, ecx
  00044	8b c8		 mov	 ecx, eax
  00046	80 78 0d 00	 cmp	 BYTE PTR [eax+13], 0
  0004a	74 f4		 je	 SHORT $LL9@operator
$LN10@operator:

; 54   :             }
; 55   : 
; 56   :             _Ptr = _Pnode; // ==> parent (head if end())
; 57   :         } else {
; 58   :             _Ptr = _Mytree::_Min(_Ptr->_Right); // ==> smallest of right subtree
; 59   :         }
; 60   : 
; 61   :         return *this;

  0004c	89 3e		 mov	 DWORD PTR [esi], edi

; 62   :     }

  0004e	8b c6		 mov	 eax, esi
  00050	5f		 pop	 edi
  00051	5e		 pop	 esi
  00052	c3		 ret	 0
??E?$_Tree_unchecked_const_iterator@V?$_Tree_val@U?$_Tree_simple_types@U?$pair@$$CBKV?$queue@USFXHIT_COUNT@@V?$deque@USFXHIT_COUNT@@V?$allocator@USFXHIT_COUNT@@@std@@@std@@@std@@@std@@@std@@@std@@U_Iterator_base0@2@@std@@QAEAAV01@XZ ENDP ; std::_Tree_unchecked_const_iterator<std::_Tree_val<std::_Tree_simple_types<std::pair<unsigned long const ,std::queue<SFXHIT_COUNT,std::deque<SFXHIT_COUNT,std::allocator<SFXHIT_COUNT> > > > > >,std::_Iterator_base0>::operator++
_TEXT	ENDS
; Function compile flags: /Ogtp
; File C:\Program Files\Microsoft Visual Studio\2022\Professional\VC\Tools\MSVC\14.44.35207\include\xtree
;	COMDAT ??E?$_Tree_unchecked_const_iterator@V?$_Tree_val@U?$_Tree_simple_types@U?$pair@$$CBKV?$queue@USFXHIT_INFO@@V?$deque@USFXHIT_INFO@@V?$allocator@USFXHIT_INFO@@@std@@@std@@@std@@@std@@@std@@@std@@U_Iterator_base0@2@@std@@QAEAAV01@XZ
_TEXT	SEGMENT
??E?$_Tree_unchecked_const_iterator@V?$_Tree_val@U?$_Tree_simple_types@U?$pair@$$CBKV?$queue@USFXHIT_INFO@@V?$deque@USFXHIT_INFO@@V?$allocator@USFXHIT_INFO@@@std@@@std@@@std@@@std@@@std@@@std@@U_Iterator_base0@2@@std@@QAEAAV01@XZ PROC ; std::_Tree_unchecked_const_iterator<std::_Tree_val<std::_Tree_simple_types<std::pair<unsigned long const ,std::queue<SFXHIT_INFO,std::deque<SFXHIT_INFO,std::allocator<SFXHIT_INFO> > > > > >,std::_Iterator_base0>::operator++, COMDAT
; _this$ = ecx

; 49   :     _Tree_unchecked_const_iterator& operator++() noexcept {

  00000	56		 push	 esi
  00001	8b f1		 mov	 esi, ecx
  00003	57		 push	 edi

; 50   :         if (_Ptr->_Right->_Isnil) { // climb looking for right subtree

  00004	8b 16		 mov	 edx, DWORD PTR [esi]
  00006	8b 7a 08	 mov	 edi, DWORD PTR [edx+8]
  00009	80 7f 0d 00	 cmp	 BYTE PTR [edi+13], 0
  0000d	74 22		 je	 SHORT $LN4@operator

; 51   :             _Nodeptr _Pnode;
; 52   :             while (!(_Pnode = _Ptr->_Parent)->_Isnil && _Ptr == _Pnode->_Right) {

  0000f	8b 42 04	 mov	 eax, DWORD PTR [edx+4]
  00012	80 78 0d 00	 cmp	 BYTE PTR [eax+13], 0
  00016	75 12		 jne	 SHORT $LN21@operator
$LL2@operator:
  00018	3b 50 08	 cmp	 edx, DWORD PTR [eax+8]
  0001b	75 0d		 jne	 SHORT $LN21@operator

; 53   :                 _Ptr = _Pnode; // ==> parent while right subtree

  0001d	89 06		 mov	 DWORD PTR [esi], eax
  0001f	8b d0		 mov	 edx, eax
  00021	8b 40 04	 mov	 eax, DWORD PTR [eax+4]
  00024	80 78 0d 00	 cmp	 BYTE PTR [eax+13], 0
  00028	74 ee		 je	 SHORT $LL2@operator
$LN21@operator:

; 54   :             }
; 55   : 
; 56   :             _Ptr = _Pnode; // ==> parent (head if end())
; 57   :         } else {
; 58   :             _Ptr = _Mytree::_Min(_Ptr->_Right); // ==> smallest of right subtree
; 59   :         }
; 60   : 
; 61   :         return *this;

  0002a	89 06		 mov	 DWORD PTR [esi], eax

; 62   :     }

  0002c	8b c6		 mov	 eax, esi
  0002e	5f		 pop	 edi
  0002f	5e		 pop	 esi
  00030	c3		 ret	 0
$LN4@operator:

; 476  :         while (!_Pnode->_Left->_Isnil) {

  00031	8b 0f		 mov	 ecx, DWORD PTR [edi]
  00033	80 79 0d 00	 cmp	 BYTE PTR [ecx+13], 0
  00037	75 13		 jne	 SHORT $LN10@operator
  00039	0f 1f 80 00 00
	00 00		 npad	 7
$LL9@operator:
  00040	8b 01		 mov	 eax, DWORD PTR [ecx]

; 477  :             _Pnode = _Pnode->_Left;

  00042	8b f9		 mov	 edi, ecx
  00044	8b c8		 mov	 ecx, eax
  00046	80 78 0d 00	 cmp	 BYTE PTR [eax+13], 0
  0004a	74 f4		 je	 SHORT $LL9@operator
$LN10@operator:

; 54   :             }
; 55   : 
; 56   :             _Ptr = _Pnode; // ==> parent (head if end())
; 57   :         } else {
; 58   :             _Ptr = _Mytree::_Min(_Ptr->_Right); // ==> smallest of right subtree
; 59   :         }
; 60   : 
; 61   :         return *this;

  0004c	89 3e		 mov	 DWORD PTR [esi], edi

; 62   :     }

  0004e	8b c6		 mov	 eax, esi
  00050	5f		 pop	 edi
  00051	5e		 pop	 esi
  00052	c3		 ret	 0
??E?$_Tree_unchecked_const_iterator@V?$_Tree_val@U?$_Tree_simple_types@U?$pair@$$CBKV?$queue@USFXHIT_INFO@@V?$deque@USFXHIT_INFO@@V?$allocator@USFXHIT_INFO@@@std@@@std@@@std@@@std@@@std@@@std@@U_Iterator_base0@2@@std@@QAEAAV01@XZ ENDP ; std::_Tree_unchecked_const_iterator<std::_Tree_val<std::_Tree_simple_types<std::pair<unsigned long const ,std::queue<SFXHIT_INFO,std::deque<SFXHIT_INFO,std::allocator<SFXHIT_INFO> > > > > >,std::_Iterator_base0>::operator++
_TEXT	ENDS
; Function compile flags: /Ogtp
;	COMDAT ??1?$map@PAVCSetItem@@HU?$less@PAVCSetItem@@@std@@V?$allocator@U?$pair@QAVCSetItem@@H@std@@@3@@std@@QAE@XZ
_TEXT	SEGMENT
??1?$map@PAVCSetItem@@HU?$less@PAVCSetItem@@@std@@V?$allocator@U?$pair@QAVCSetItem@@H@std@@@3@@std@@QAE@XZ PROC ; std::map<CSetItem *,int,std::less<CSetItem *>,std::allocator<std::pair<CSetItem * const,int> > >::~map<CSetItem *,int,std::less<CSetItem *>,std::allocator<std::pair<CSetItem * const,int> > >, COMDAT
; _this$ = ecx
  00000	e9 00 00 00 00	 jmp	 ??1?$_Tree@V?$_Tmap_traits@PAVCSetItem@@HU?$less@PAVCSetItem@@@std@@V?$allocator@U?$pair@QAVCSetItem@@H@std@@@3@$0A@@std@@@std@@QAE@XZ ; std::_Tree<std::_Tmap_traits<CSetItem *,int,std::less<CSetItem *>,std::allocator<std::pair<CSetItem * const,int> >,0> >::~_Tree<std::_Tmap_traits<CSetItem *,int,std::less<CSetItem *>,std::allocator<std::pair<CSetItem * const,int> >,0> >
??1?$map@PAVCSetItem@@HU?$less@PAVCSetItem@@@std@@V?$allocator@U?$pair@QAVCSetItem@@H@std@@@3@@std@@QAE@XZ ENDP ; std::map<CSetItem *,int,std::less<CSetItem *>,std::allocator<std::pair<CSetItem * const,int> > >::~map<CSetItem *,int,std::less<CSetItem *>,std::allocator<std::pair<CSetItem * const,int> > >
_TEXT	ENDS
; Function compile flags: /Ogtp
; File C:\Program Files\Microsoft Visual Studio\2022\Professional\VC\Tools\MSVC\14.44.35207\include\xtree
;	COMDAT ?_Insert_node@?$_Tree_val@U?$_Tree_simple_types@U?$pair@QAVCSetItem@@H@std@@@std@@@std@@QAEPAU?$_Tree_node@U?$pair@QAVCSetItem@@H@std@@PAX@2@U?$_Tree_id@PAU?$_Tree_node@U?$pair@QAVCSetItem@@H@std@@PAX@std@@@2@QAU32@@Z
_TEXT	SEGMENT
__Head$1$ = -4						; size = 4
__Loc$ = 8						; size = 8
__Newnode$ = 16						; size = 4
?_Insert_node@?$_Tree_val@U?$_Tree_simple_types@U?$pair@QAVCSetItem@@H@std@@@std@@@std@@QAEPAU?$_Tree_node@U?$pair@QAVCSetItem@@H@std@@PAX@2@U?$_Tree_id@PAU?$_Tree_node@U?$pair@QAVCSetItem@@H@std@@PAX@std@@@2@QAU32@@Z PROC ; std::_Tree_val<std::_Tree_simple_types<std::pair<CSetItem * const,int> > >::_Insert_node, COMDAT
; _this$ = ecx

; 669  :     _Nodeptr _Insert_node(const _Tree_id<_Nodeptr> _Loc, const _Nodeptr _Newnode) noexcept {

  00000	55		 push	 ebp
  00001	8b ec		 mov	 ebp, esp
  00003	51		 push	 ecx

; 670  :         ++_Mysize;
; 671  :         const auto _Head  = _Myhead;
; 672  :         _Newnode->_Parent = _Loc._Parent;

  00004	8b 55 08	 mov	 edx, DWORD PTR __Loc$[ebp]
  00007	53		 push	 ebx
  00008	8b d9		 mov	 ebx, ecx
  0000a	57		 push	 edi
  0000b	8b 7d 10	 mov	 edi, DWORD PTR __Newnode$[ebp]
  0000e	8b 03		 mov	 eax, DWORD PTR [ebx]
  00010	ff 43 04	 inc	 DWORD PTR [ebx+4]
  00013	89 45 fc	 mov	 DWORD PTR __Head$1$[ebp], eax
  00016	89 57 04	 mov	 DWORD PTR [edi+4], edx

; 673  :         if (_Loc._Parent == _Head) { // first node in tree, just set head values

  00019	3b d0		 cmp	 edx, eax
  0001b	75 16		 jne	 SHORT $LN5@Insert_nod

; 674  :             _Head->_Left     = _Newnode;

  0001d	89 38		 mov	 DWORD PTR [eax], edi

; 675  :             _Head->_Parent   = _Newnode;

  0001f	89 78 04	 mov	 DWORD PTR [eax+4], edi

; 676  :             _Head->_Right    = _Newnode;

  00022	89 78 08	 mov	 DWORD PTR [eax+8], edi

; 735  :         return _Newnode;
; 736  :     }

  00025	8b c7		 mov	 eax, edi
  00027	c6 47 0c 01	 mov	 BYTE PTR [edi+12], 1
  0002b	5f		 pop	 edi
  0002c	5b		 pop	 ebx
  0002d	8b e5		 mov	 esp, ebp
  0002f	5d		 pop	 ebp
  00030	c2 0c 00	 ret	 12			; 0000000cH
$LN5@Insert_nod:

; 677  :             _Newnode->_Color = _Black; // the root is black
; 678  :             return _Newnode;
; 679  :         }
; 680  : 
; 681  :         _STL_INTERNAL_CHECK(_Loc._Child != _Tree_child::_Unused);
; 682  :         if (_Loc._Child == _Tree_child::_Right) { // add to right of _Loc._Parent

  00033	83 7d 0c 00	 cmp	 DWORD PTR __Loc$[ebp+4], 0
  00037	75 0d		 jne	 SHORT $LN6@Insert_nod

; 683  :             _STL_INTERNAL_CHECK(_Loc._Parent->_Right->_Isnil);
; 684  :             _Loc._Parent->_Right = _Newnode;

  00039	89 7a 08	 mov	 DWORD PTR [edx+8], edi

; 685  :             if (_Loc._Parent == _Head->_Right) { // remember rightmost node

  0003c	3b 50 08	 cmp	 edx, DWORD PTR [eax+8]
  0003f	75 0d		 jne	 SHORT $LN9@Insert_nod

; 686  :                 _Head->_Right = _Newnode;

  00041	89 78 08	 mov	 DWORD PTR [eax+8], edi

; 687  :             }
; 688  :         } else { // add to left of _Loc._Parent

  00044	eb 08		 jmp	 SHORT $LN9@Insert_nod
$LN6@Insert_nod:

; 689  :             _STL_INTERNAL_CHECK(_Loc._Parent->_Left->_Isnil);
; 690  :             _Loc._Parent->_Left = _Newnode;

  00046	89 3a		 mov	 DWORD PTR [edx], edi

; 691  :             if (_Loc._Parent == _Head->_Left) { // remember leftmost node

  00048	3b 10		 cmp	 edx, DWORD PTR [eax]
  0004a	75 02		 jne	 SHORT $LN9@Insert_nod

; 692  :                 _Head->_Left = _Newnode;

  0004c	89 38		 mov	 DWORD PTR [eax], edi
$LN9@Insert_nod:

; 693  :             }
; 694  :         }
; 695  : 
; 696  :         for (_Nodeptr _Pnode = _Newnode; _Pnode->_Parent->_Color == _Red;) {

  0004e	8b 4f 04	 mov	 ecx, DWORD PTR [edi+4]
  00051	8b c7		 mov	 eax, edi
  00053	80 79 0c 00	 cmp	 BYTE PTR [ecx+12], 0
  00057	0f 85 7d 01 00
	00		 jne	 $LN3@Insert_nod
  0005d	56		 push	 esi
  0005e	66 90		 npad	 2
$LL4@Insert_nod:

; 697  :             if (_Pnode->_Parent == _Pnode->_Parent->_Parent->_Left) { // fixup red-red in left subtree

  00060	8b 50 04	 mov	 edx, DWORD PTR [eax+4]
  00063	8b 72 04	 mov	 esi, DWORD PTR [edx+4]
  00066	8b 0e		 mov	 ecx, DWORD PTR [esi]
  00068	3b d1		 cmp	 edx, ecx
  0006a	0f 85 aa 00 00
	00		 jne	 $LN10@Insert_nod

; 698  :                 const auto _Parent_sibling = _Pnode->_Parent->_Parent->_Right;

  00070	8b 4e 08	 mov	 ecx, DWORD PTR [esi+8]

; 699  :                 if (_Parent_sibling->_Color == _Red) { // parent's sibling has two red children, blacken both

  00073	80 79 0c 00	 cmp	 BYTE PTR [ecx+12], 0
  00077	0f 84 a3 00 00
	00		 je	 $LN82@Insert_nod

; 700  :                     _Pnode->_Parent->_Color          = _Black;
; 701  :                     _Parent_sibling->_Color          = _Black;
; 702  :                     _Pnode->_Parent->_Parent->_Color = _Red;
; 703  :                     _Pnode                           = _Pnode->_Parent->_Parent;
; 704  :                 } else { // parent's sibling has red and black children
; 705  :                     if (_Pnode == _Pnode->_Parent->_Right) { // rotate right child to left

  0007d	8b 72 08	 mov	 esi, DWORD PTR [edx+8]
  00080	3b c6		 cmp	 eax, esi
  00082	75 37		 jne	 SHORT $LN57@Insert_nod

; 485  :         _Wherenode->_Right = _Pnode->_Left;

  00084	8b 0e		 mov	 ecx, DWORD PTR [esi]

; 706  :                         _Pnode = _Pnode->_Parent;

  00086	8b c2		 mov	 eax, edx

; 485  :         _Wherenode->_Right = _Pnode->_Left;

  00088	89 4a 08	 mov	 DWORD PTR [edx+8], ecx

; 486  : 
; 487  :         if (!_Pnode->_Left->_Isnil) {

  0008b	8b 0e		 mov	 ecx, DWORD PTR [esi]
  0008d	80 79 0d 00	 cmp	 BYTE PTR [ecx+13], 0
  00091	75 03		 jne	 SHORT $LN21@Insert_nod

; 488  :             _Pnode->_Left->_Parent = _Wherenode;

  00093	89 41 04	 mov	 DWORD PTR [ecx+4], eax
$LN21@Insert_nod:

; 489  :         }
; 490  : 
; 491  :         _Pnode->_Parent = _Wherenode->_Parent;

  00096	8b 4a 04	 mov	 ecx, DWORD PTR [edx+4]
  00099	89 4e 04	 mov	 DWORD PTR [esi+4], ecx

; 492  : 
; 493  :         if (_Wherenode == _Myhead->_Parent) {

  0009c	8b 0b		 mov	 ecx, DWORD PTR [ebx]
  0009e	3b 41 04	 cmp	 eax, DWORD PTR [ecx+4]
  000a1	75 05		 jne	 SHORT $LN22@Insert_nod

; 494  :             _Myhead->_Parent = _Pnode;

  000a3	89 71 04	 mov	 DWORD PTR [ecx+4], esi
  000a6	eb 0e		 jmp	 SHORT $LN25@Insert_nod
$LN22@Insert_nod:

; 495  :         } else if (_Wherenode == _Wherenode->_Parent->_Left) {

  000a8	8b 4a 04	 mov	 ecx, DWORD PTR [edx+4]
  000ab	3b 01		 cmp	 eax, DWORD PTR [ecx]
  000ad	75 04		 jne	 SHORT $LN24@Insert_nod

; 496  :             _Wherenode->_Parent->_Left = _Pnode;

  000af	89 31		 mov	 DWORD PTR [ecx], esi

; 497  :         } else {

  000b1	eb 03		 jmp	 SHORT $LN25@Insert_nod
$LN24@Insert_nod:

; 498  :             _Wherenode->_Parent->_Right = _Pnode;

  000b3	89 71 08	 mov	 DWORD PTR [ecx+8], esi
$LN25@Insert_nod:

; 499  :         }
; 500  : 
; 501  :         _Pnode->_Left       = _Wherenode;

  000b6	89 06		 mov	 DWORD PTR [esi], eax

; 502  :         _Wherenode->_Parent = _Pnode;

  000b8	89 70 04	 mov	 DWORD PTR [eax+4], esi
$LN57@Insert_nod:

; 707  :                         _Lrotate(_Pnode);
; 708  :                     }
; 709  : 
; 710  :                     _Pnode->_Parent->_Color          = _Black; // propagate red up

  000bb	8b 48 04	 mov	 ecx, DWORD PTR [eax+4]
  000be	c6 41 0c 01	 mov	 BYTE PTR [ecx+12], 1

; 711  :                     _Pnode->_Parent->_Parent->_Color = _Red;

  000c2	8b 48 04	 mov	 ecx, DWORD PTR [eax+4]
  000c5	8b 49 04	 mov	 ecx, DWORD PTR [ecx+4]
  000c8	c6 41 0c 00	 mov	 BYTE PTR [ecx+12], 0

; 712  :                     _Rrotate(_Pnode->_Parent->_Parent);

  000cc	8b 48 04	 mov	 ecx, DWORD PTR [eax+4]
  000cf	8b 51 04	 mov	 edx, DWORD PTR [ecx+4]

; 506  :         _Nodeptr _Pnode   = _Wherenode->_Left;

  000d2	8b 32		 mov	 esi, DWORD PTR [edx]

; 507  :         _Wherenode->_Left = _Pnode->_Right;

  000d4	8b 4e 08	 mov	 ecx, DWORD PTR [esi+8]
  000d7	89 0a		 mov	 DWORD PTR [edx], ecx

; 508  : 
; 509  :         if (!_Pnode->_Right->_Isnil) {

  000d9	8b 4e 08	 mov	 ecx, DWORD PTR [esi+8]
  000dc	80 79 0d 00	 cmp	 BYTE PTR [ecx+13], 0
  000e0	75 03		 jne	 SHORT $LN29@Insert_nod

; 510  :             _Pnode->_Right->_Parent = _Wherenode;

  000e2	89 51 04	 mov	 DWORD PTR [ecx+4], edx
$LN29@Insert_nod:

; 511  :         }
; 512  : 
; 513  :         _Pnode->_Parent = _Wherenode->_Parent;

  000e5	8b 4a 04	 mov	 ecx, DWORD PTR [edx+4]
  000e8	89 4e 04	 mov	 DWORD PTR [esi+4], ecx

; 514  : 
; 515  :         if (_Wherenode == _Myhead->_Parent) {

  000eb	8b 0b		 mov	 ecx, DWORD PTR [ebx]
  000ed	3b 51 04	 cmp	 edx, DWORD PTR [ecx+4]
  000f0	75 0b		 jne	 SHORT $LN30@Insert_nod

; 516  :             _Myhead->_Parent = _Pnode;

  000f2	89 71 04	 mov	 DWORD PTR [ecx+4], esi

; 521  :         }
; 522  : 
; 523  :         _Pnode->_Right      = _Wherenode;

  000f5	89 56 08	 mov	 DWORD PTR [esi+8], edx

; 713  :                 }
; 714  :             } else { // fixup red-red in right subtree

  000f8	e9 cc 00 00 00	 jmp	 $LN81@Insert_nod
$LN30@Insert_nod:

; 517  :         } else if (_Wherenode == _Wherenode->_Parent->_Right) {

  000fd	8b 4a 04	 mov	 ecx, DWORD PTR [edx+4]
  00100	3b 51 08	 cmp	 edx, DWORD PTR [ecx+8]
  00103	75 0b		 jne	 SHORT $LN32@Insert_nod

; 518  :             _Wherenode->_Parent->_Right = _Pnode;

  00105	89 71 08	 mov	 DWORD PTR [ecx+8], esi

; 521  :         }
; 522  : 
; 523  :         _Pnode->_Right      = _Wherenode;

  00108	89 56 08	 mov	 DWORD PTR [esi+8], edx

; 713  :                 }
; 714  :             } else { // fixup red-red in right subtree

  0010b	e9 b9 00 00 00	 jmp	 $LN81@Insert_nod
$LN32@Insert_nod:

; 520  :             _Wherenode->_Parent->_Left = _Pnode;

  00110	89 31		 mov	 DWORD PTR [ecx], esi

; 521  :         }
; 522  : 
; 523  :         _Pnode->_Right      = _Wherenode;

  00112	89 56 08	 mov	 DWORD PTR [esi+8], edx

; 713  :                 }
; 714  :             } else { // fixup red-red in right subtree

  00115	e9 af 00 00 00	 jmp	 $LN81@Insert_nod
$LN10@Insert_nod:

; 715  :                 const auto _Parent_sibling = _Pnode->_Parent->_Parent->_Left;
; 716  :                 if (_Parent_sibling->_Color == _Red) { // parent's sibling has two red children, blacken both

  0011a	80 79 0c 00	 cmp	 BYTE PTR [ecx+12], 0
  0011e	75 1d		 jne	 SHORT $LN15@Insert_nod
$LN82@Insert_nod:

; 693  :             }
; 694  :         }
; 695  : 
; 696  :         for (_Nodeptr _Pnode = _Newnode; _Pnode->_Parent->_Color == _Red;) {

  00120	c6 42 0c 01	 mov	 BYTE PTR [edx+12], 1
  00124	c6 41 0c 01	 mov	 BYTE PTR [ecx+12], 1
  00128	8b 48 04	 mov	 ecx, DWORD PTR [eax+4]
  0012b	8b 49 04	 mov	 ecx, DWORD PTR [ecx+4]
  0012e	c6 41 0c 00	 mov	 BYTE PTR [ecx+12], 0
  00132	8b 48 04	 mov	 ecx, DWORD PTR [eax+4]
  00135	8b 41 04	 mov	 eax, DWORD PTR [ecx+4]
  00138	e9 8f 00 00 00	 jmp	 $LN2@Insert_nod
$LN15@Insert_nod:

; 717  :                     _Pnode->_Parent->_Color          = _Black;
; 718  :                     _Parent_sibling->_Color          = _Black;
; 719  :                     _Pnode->_Parent->_Parent->_Color = _Red;
; 720  :                     _Pnode                           = _Pnode->_Parent->_Parent;
; 721  :                 } else { // parent's sibling has red and black children
; 722  :                     if (_Pnode == _Pnode->_Parent->_Left) { // rotate left child to right

  0013d	8b 32		 mov	 esi, DWORD PTR [edx]
  0013f	3b c6		 cmp	 eax, esi
  00141	75 3a		 jne	 SHORT $LN42@Insert_nod

; 507  :         _Wherenode->_Left = _Pnode->_Right;

  00143	8b 4e 08	 mov	 ecx, DWORD PTR [esi+8]

; 723  :                         _Pnode = _Pnode->_Parent;

  00146	8b c2		 mov	 eax, edx

; 507  :         _Wherenode->_Left = _Pnode->_Right;

  00148	89 08		 mov	 DWORD PTR [eax], ecx

; 508  : 
; 509  :         if (!_Pnode->_Right->_Isnil) {

  0014a	8b 4e 08	 mov	 ecx, DWORD PTR [esi+8]
  0014d	80 79 0d 00	 cmp	 BYTE PTR [ecx+13], 0
  00151	75 03		 jne	 SHORT $LN37@Insert_nod

; 510  :             _Pnode->_Right->_Parent = _Wherenode;

  00153	89 41 04	 mov	 DWORD PTR [ecx+4], eax
$LN37@Insert_nod:

; 511  :         }
; 512  : 
; 513  :         _Pnode->_Parent = _Wherenode->_Parent;

  00156	8b 4a 04	 mov	 ecx, DWORD PTR [edx+4]
  00159	89 4e 04	 mov	 DWORD PTR [esi+4], ecx

; 514  : 
; 515  :         if (_Wherenode == _Myhead->_Parent) {

  0015c	8b 0b		 mov	 ecx, DWORD PTR [ebx]
  0015e	3b 41 04	 cmp	 eax, DWORD PTR [ecx+4]
  00161	75 05		 jne	 SHORT $LN38@Insert_nod

; 516  :             _Myhead->_Parent = _Pnode;

  00163	89 71 04	 mov	 DWORD PTR [ecx+4], esi
  00166	eb 0f		 jmp	 SHORT $LN41@Insert_nod
$LN38@Insert_nod:

; 517  :         } else if (_Wherenode == _Wherenode->_Parent->_Right) {

  00168	8b 4a 04	 mov	 ecx, DWORD PTR [edx+4]
  0016b	3b 41 08	 cmp	 eax, DWORD PTR [ecx+8]
  0016e	75 05		 jne	 SHORT $LN40@Insert_nod

; 518  :             _Wherenode->_Parent->_Right = _Pnode;

  00170	89 71 08	 mov	 DWORD PTR [ecx+8], esi

; 519  :         } else {

  00173	eb 02		 jmp	 SHORT $LN41@Insert_nod
$LN40@Insert_nod:

; 520  :             _Wherenode->_Parent->_Left = _Pnode;

  00175	89 31		 mov	 DWORD PTR [ecx], esi
$LN41@Insert_nod:

