; Listing generated by Microsoft (R) Optimizing Compiler Version 19.44.35225.0 

	TITLE	C:\IAGOS\server\v18\Source\Output\WorldServer\Release\MoverMsg.obj
	.686P
	.XMM
	include listing.inc
	.model	flat

INCLUDELIB LIBCMT
INCLUDELIB OLDNAMES

CONST	SEGMENT
?piecewise_construct@std@@3Upiecewise_construct_t@1@B	ORG $+1 ; std::piecewise_construct
CONST	ENDS
PUBLIC	?__empty_global_delete@@YAXPAX@Z		; __empty_global_delete
PUBLIC	?__empty_global_delete@@YAXPAXI@Z		; __empty_global_delete
PUBLIC	?SetDestPos@CMover@@QAEXABUD3DXVECTOR3@@_NH@Z	; CMover::SetDestPos
PUBLIC	?IsDie@CMover@@QAEHXZ				; CMover::IsDie
PUBLIC	?ClearActParam@CMover@@QAEXXZ			; CMover::ClearActParam
PUBLIC	?GetAttackRange@CMover@@QAEMK@Z			; CMover::GetAttackRange
PUBLIC	?CMD_SetUseSkill@CMover@@QAEHKHW4SKILLUSETYPE@@@Z ; CMover::CMD_SetUseSkill
PUBLIC	?CMD_SetMeleeAttack@CMover@@QAEXKM@Z		; CMover::CMD_SetMeleeAttack
PUBLIC	?CMD_SetMagicAttack@CMover@@QAEXKH@Z		; CMover::CMD_SetMagicAttack
PUBLIC	?CMD_SetRangeAttack@CMover@@QAEXKH@Z		; CMover::CMD_SetRangeAttack
PUBLIC	?CMD_SetMoveToPos@CMover@@QAEXABUD3DXVECTOR3@@@Z ; CMover::CMD_SetMoveToPos
PUBLIC	?CMD_SetMoveToObj@CMover@@QAEXK@Z		; CMover::CMD_SetMoveToObj
PUBLIC	?CMD_SetUseItem@CMover@@QAEXPAVCCtrl@@@Z	; CMover::CMD_SetUseItem
PUBLIC	?SetDestObj@CMover@@QAEXKMH@Z			; CMover::SetDestObj
PUBLIC	?SetActParam@CMover@@AAEXW4OBJACT@@HHH@Z	; CMover::SetActParam
PUBLIC	?SetCmd@CMover@@AAEXW4OBJACT@@HHH@Z		; CMover::SetCmd
PUBLIC	??_C@_0BM@HMFGHCP@?$CFs?5min?3?$CFd?0?5max?3?$CFd?0?5index?3?$CFd@ ; `string'
PUBLIC	??_C@_0BJ@GPNGCFMK@GetSkillProp?5range_error@	; `string'
PUBLIC	??_C@_0CJ@PJHOGBAB@CMD_SetUseSkill?5?3?5?$CFs?5skill?$CI?$CFd?$CJ?5@ ; `string'
PUBLIC	??_C@_0DD@GGNLMBCC@CMD_SetUseSkill?5?3?5?$CFs?4?5skill?$CI?$CFd?$CJ@ ; `string'
PUBLIC	__real@40000000
PUBLIC	__real@40400000
PUBLIC	__real@40800000
PUBLIC	__real@40c00000
PUBLIC	__real@41200000
PUBLIC	__real@41700000
PUBLIC	__real@41900000
PUBLIC	__real@41a00000
PUBLIC	__real@42c80000
PUBLIC	__xmm@cdcdcdcdcdcdcdcdcdcdcdcdcdcdcdcd
EXTRN	?Error@@YAPBDPBDZZ:PROC				; Error
EXTRN	?GetMover@CProject@@QAEPAVCMover@@K@Z:PROC	; CProject::GetMover
EXTRN	?GetActiveHandItemProp@CMover@@QAEPAUItemProp@@H@Z:PROC ; CMover::GetActiveHandItemProp
EXTRN	?GetParam@CMover@@QAEHHH@Z:PROC			; CMover::GetParam
EXTRN	?GetSkill@CMover@@QAEPAUtagSkill@@HH@Z:PROC	; CMover::GetSkill
EXTRN	?IsAttackAble@CMover@@QAEHPAVCObj@@@Z:PROC	; CMover::IsAttackAble
EXTRN	?IsBullet@CMover@@QAEHPAUItemProp@@@Z:PROC	; CMover::IsBullet
EXTRN	?AddMoverSetDestObj@CUserMng@@QAEXPAVCMover@@KMH@Z:PROC ; CUserMng::AddMoverSetDestObj
EXTRN	?prj@@3VCProject@@A:BYTE			; prj
EXTRN	?g_UserMng@@3VCUserMng@@A:BYTE			; g_UserMng
EXTRN	__fltused:DWORD
;	COMDAT __xmm@cdcdcdcdcdcdcdcdcdcdcdcdcdcdcdcd
CONST	SEGMENT
__xmm@cdcdcdcdcdcdcdcdcdcdcdcdcdcdcdcd DB 0cdH, 0cdH, 0cdH, 0cdH, 0cdH, 0cdH
	DB	0cdH, 0cdH, 0cdH, 0cdH, 0cdH, 0cdH, 0cdH, 0cdH, 0cdH, 0cdH
CONST	ENDS
;	COMDAT __real@42c80000
CONST	SEGMENT
__real@42c80000 DD 042c80000r			; 100
CONST	ENDS
;	COMDAT __real@41a00000
CONST	SEGMENT
__real@41a00000 DD 041a00000r			; 20
CONST	ENDS
;	COMDAT __real@41900000
CONST	SEGMENT
__real@41900000 DD 041900000r			; 18
CONST	ENDS
;	COMDAT __real@41700000
CONST	SEGMENT
__real@41700000 DD 041700000r			; 15
CONST	ENDS
;	COMDAT __real@41200000
CONST	SEGMENT
__real@41200000 DD 041200000r			; 10
CONST	ENDS
;	COMDAT __real@40c00000
CONST	SEGMENT
__real@40c00000 DD 040c00000r			; 6
CONST	ENDS
;	COMDAT __real@40800000
CONST	SEGMENT
__real@40800000 DD 040800000r			; 4
CONST	ENDS
;	COMDAT __real@40400000
CONST	SEGMENT
__real@40400000 DD 040400000r			; 3
CONST	ENDS
;	COMDAT __real@40000000
CONST	SEGMENT
__real@40000000 DD 040000000r			; 2
CONST	ENDS
;	COMDAT ??_C@_0DD@GGNLMBCC@CMD_SetUseSkill?5?3?5?$CFs?4?5skill?$CI?$CFd?$CJ@
CONST	SEGMENT
??_C@_0DD@GGNLMBCC@CMD_SetUseSkill?5?3?5?$CFs?4?5skill?$CI?$CFd?$CJ@ DB 'C'
	DB	'MD_SetUseSkill : %s. skill(%d) property not found', 00H ; `string'
CONST	ENDS
;	COMDAT ??_C@_0CJ@PJHOGBAB@CMD_SetUseSkill?5?3?5?$CFs?5skill?$CI?$CFd?$CJ?5@
CONST	SEGMENT
??_C@_0CJ@PJHOGBAB@CMD_SetUseSkill?5?3?5?$CFs?5skill?$CI?$CFd?$CJ?5@ DB 'C'
	DB	'MD_SetUseSkill : %s skill(%d) not found', 00H ; `string'
CONST	ENDS
;	COMDAT ??_C@_0BJ@GPNGCFMK@GetSkillProp?5range_error@
CONST	SEGMENT
??_C@_0BJ@GPNGCFMK@GetSkillProp?5range_error@ DB 'GetSkillProp range_erro'
	DB	'r', 00H					; `string'
CONST	ENDS
;	COMDAT ??_C@_0BM@HMFGHCP@?$CFs?5min?3?$CFd?0?5max?3?$CFd?0?5index?3?$CFd@
CONST	SEGMENT
??_C@_0BM@HMFGHCP@?$CFs?5min?3?$CFd?0?5max?3?$CFd?0?5index?3?$CFd@ DB '%s'
	DB	' min:%d, max:%d, index:%d', 00H		; `string'
CONST	ENDS
; Function compile flags: /Ogtp
; File C:\IAGOS\server\v18\Source\Source\_Common\MoverMsg.cpp
;	COMDAT ?SetCmd@CMover@@AAEXW4OBJACT@@HHH@Z
_TEXT	SEGMENT
_cmd$ = 8						; size = 4
_nParam1$ = 12						; size = 4
_nParam2$ = 16						; size = 4
_nParam3$ = 20						; size = 4
?SetCmd@CMover@@AAEXW4OBJACT@@HHH@Z PROC		; CMover::SetCmd, COMDAT
; _this$ = ecx

; 38   : {

  00000	55		 push	 ebp
  00001	8b ec		 mov	 ebp, esp

; 39   : 	m_oaCmd = cmd;

  00003	8b 45 08	 mov	 eax, DWORD PTR _cmd$[ebp]
  00006	89 81 9c 11 00
	00		 mov	 DWORD PTR [ecx+4508], eax

; 40   : 	m_nCParam[0] = nParam1;		// 명령 파라메터.

  0000c	8b 45 0c	 mov	 eax, DWORD PTR _nParam1$[ebp]
  0000f	89 81 a0 11 00
	00		 mov	 DWORD PTR [ecx+4512], eax

; 41   : 	m_nCParam[1] = nParam2;

  00015	8b 45 10	 mov	 eax, DWORD PTR _nParam2$[ebp]
  00018	89 81 a4 11 00
	00		 mov	 DWORD PTR [ecx+4516], eax

; 42   : 	m_nCParam[2] = nParam3;

  0001e	8b 45 14	 mov	 eax, DWORD PTR _nParam3$[ebp]
  00021	89 81 a8 11 00
	00		 mov	 DWORD PTR [ecx+4520], eax

; 43   : }

  00027	5d		 pop	 ebp
  00028	c2 10 00	 ret	 16			; 00000010H
?SetCmd@CMover@@AAEXW4OBJACT@@HHH@Z ENDP		; CMover::SetCmd
_TEXT	ENDS
; Function compile flags: /Ogtp
; File C:\IAGOS\server\v18\Source\Source\_Common\MoverMsg.cpp
;	COMDAT ?SetActParam@CMover@@AAEXW4OBJACT@@HHH@Z
_TEXT	SEGMENT
_act$ = 8						; size = 4
_nParam1$ = 12						; size = 4
_nParam2$ = 16						; size = 4
_nParam3$ = 20						; size = 4
?SetActParam@CMover@@AAEXW4OBJACT@@HHH@Z PROC		; CMover::SetActParam, COMDAT
; _this$ = ecx

; 561  : {

  00000	55		 push	 ebp
  00001	8b ec		 mov	 ebp, esp

; 562  : 	m_oaAct = act;				

  00003	8b 45 08	 mov	 eax, DWORD PTR _act$[ebp]
  00006	89 81 ac 11 00
	00		 mov	 DWORD PTR [ecx+4524], eax

; 563  : 	m_nAParam[0] = nParam1;		// 명령 파라메터.

  0000c	8b 45 0c	 mov	 eax, DWORD PTR _nParam1$[ebp]
  0000f	89 81 b0 11 00
	00		 mov	 DWORD PTR [ecx+4528], eax

; 564  : 	m_nAParam[1] = nParam2;

  00015	8b 45 10	 mov	 eax, DWORD PTR _nParam2$[ebp]
  00018	89 81 b4 11 00
	00		 mov	 DWORD PTR [ecx+4532], eax

; 565  : 	m_nAParam[2] = nParam3;

  0001e	8b 45 14	 mov	 eax, DWORD PTR _nParam3$[ebp]
  00021	89 81 b8 11 00
	00		 mov	 DWORD PTR [ecx+4536], eax

; 566  : }

  00027	5d		 pop	 ebp
  00028	c2 10 00	 ret	 16			; 00000010H
?SetActParam@CMover@@AAEXW4OBJACT@@HHH@Z ENDP		; CMover::SetActParam
_TEXT	ENDS
; Function compile flags: /Ogtp
; File C:\IAGOS\server\v18\Source\Source\_Common\MoverMsg.cpp
; File C:\IAGOS\server\v18\Source\Source\_Common\Mover.h
; File C:\IAGOS\server\v18\Source\Source\_Common\MoverMsg.cpp
;	COMDAT ?SetDestObj@CMover@@QAEXKMH@Z
_TEXT	SEGMENT
_objid$ = 8						; size = 4
_fRange$ = 12						; size = 4
_bSend$ = 16						; size = 4
?SetDestObj@CMover@@QAEXKMH@Z PROC			; CMover::SetDestObj, COMDAT
; _this$ = ecx

; 48   : {

  00000	55		 push	 ebp
  00001	8b ec		 mov	 ebp, esp

; 49   : #ifdef __WORLDSERVER
; 50   : 	if( FALSE == IsPlayer() && m_idDest != objid )

  00003	83 b9 30 02 00
	00 00		 cmp	 DWORD PTR [ecx+560], 0
  0000a	8b 45 08	 mov	 eax, DWORD PTR _objid$[ebp]
  0000d	75 12		 jne	 SHORT $LN2@SetDestObj
  0000f	39 81 58 02 00
	00		 cmp	 DWORD PTR [ecx+600], eax
  00015	74 0a		 je	 SHORT $LN2@SetDestObj

; 51   : 		m_nCorr	= -1;

  00017	c7 81 74 02 00
	00 ff ff ff ff	 mov	 DWORD PTR [ecx+628], -1
$LN2@SetDestObj:

; 74   : 	if( bSend )

  00021	83 7d 10 00	 cmp	 DWORD PTR _bSend$[ebp], 0
  00025	f3 0f 10 4d 0c	 movss	 xmm1, DWORD PTR _fRange$[ebp]
  0002a	89 81 58 02 00
	00		 mov	 DWORD PTR [ecx+600], eax
  00030	f3 0f 11 89 54
	02 00 00	 movss	 DWORD PTR [ecx+596], xmm1
; File C:\IAGOS\server\v18\Source\Source\_Common\Mover.h

; 1031 : 	void			ClearDestPos()		{ m_vDestPos = D3DXVECTOR3( 0.0f, 0.0f, 0.0f ); }		

  00038	c7 81 5c 02 00
	00 00 00 00 00	 mov	 DWORD PTR [ecx+604], 0
  00042	c7 81 60 02 00
	00 00 00 00 00	 mov	 DWORD PTR [ecx+608], 0
  0004c	c7 81 64 02 00
	00 00 00 00 00	 mov	 DWORD PTR [ecx+612], 0
; File C:\IAGOS\server\v18\Source\Source\_Common\MoverMsg.cpp

; 74   : 	if( bSend )

  00056	74 14		 je	 SHORT $LN3@SetDestObj

; 75   : 		g_UserMng.AddMoverSetDestObj( this, objid, fRange, FALSE );

  00058	6a 00		 push	 0
  0005a	51		 push	 ecx
  0005b	f3 0f 11 0c 24	 movss	 DWORD PTR [esp], xmm1
  00060	50		 push	 eax
  00061	51		 push	 ecx
  00062	b9 00 00 00 00	 mov	 ecx, OFFSET ?g_UserMng@@3VCUserMng@@A ; g_UserMng
  00067	e8 00 00 00 00	 call	 ?AddMoverSetDestObj@CUserMng@@QAEXPAVCMover@@KMH@Z ; CUserMng::AddMoverSetDestObj
$LN3@SetDestObj:

; 76   : #endif	// __WORLDSERVER
; 77   : 
; 78   : #ifdef __CLIENT
; 79   : 	m_oaCmd = OBJACT_NONE;		// CMD_ 시리즈를 거치지 않고 이것만 호출되는 경우는 Cmd를 해제시키자.
; 80   : #endif // Client
; 81   : 
; 82   : //	if( IsPlayer() )
; 83   : //		TRACE( "SetDestObj %08x\n", objid );
; 84   : }

  0006c	5d		 pop	 ebp
  0006d	c2 0c 00	 ret	 12			; 0000000cH
?SetDestObj@CMover@@QAEXKMH@Z ENDP			; CMover::SetDestObj
_TEXT	ENDS
; Function compile flags: /Ogtp
; File C:\IAGOS\server\v18\Source\Source\_Common\MoverMsg.cpp
; File C:\IAGOS\server\v18\Source\Source\_Common\Mover.h
; File C:\IAGOS\server\v18\Source\Source\_Common\MoverMsg.cpp
; File C:\IAGOS\server\v18\Source\Source\_AIInterface\Action.h
; File C:\IAGOS\server\v18\Source\Source\_Common\Mover.h
; File C:\IAGOS\server\v18\Source\Source\_Common\MoverMsg.cpp
; File C:\IAGOS\server\v18\Source\Source\_Common\Mover.h
; File C:\IAGOS\server\v18\Source\Source\_Common\MoverMsg.cpp
;	COMDAT ?CMD_SetUseItem@CMover@@QAEXPAVCCtrl@@@Z
_TEXT	SEGMENT
_pCtrl$ = 8						; size = 4
?CMD_SetUseItem@CMover@@QAEXPAVCCtrl@@@Z PROC		; CMover::CMD_SetUseItem, COMDAT
; _this$ = ecx

; 541  : {

  00000	55		 push	 ebp
  00001	8b ec		 mov	 ebp, esp
; File C:\IAGOS\server\v18\Source\Source\_Common\Mover.h

; 1816 : 	memset( m_nAParam, 0xcd, sizeof(m_nAParam) );

  00003	0f 28 05 00 00
	00 00		 movaps	 xmm0, XMMWORD PTR __xmm@cdcdcdcdcdcdcdcdcdcdcdcdcdcdcdcd
; File C:\IAGOS\server\v18\Source\Source\_Common\MoverMsg.cpp

; 541  : {

  0000a	56		 push	 esi
  0000b	8b f1		 mov	 esi, ecx
; File C:\IAGOS\server\v18\Source\Source\_AIInterface\Action.h

; 309  : 	BOOL			IsFly() { return (m_dwStateFlag & OBJSTAF_FLY) ? TRUE : FALSE; }

  0000d	8b 4d 08	 mov	 ecx, DWORD PTR _pCtrl$[ebp]
; File C:\IAGOS\server\v18\Source\Source\_Common\Mover.h

; 1815 : 	m_oaAct = OBJACT_NONE; 

  00010	c7 86 ac 11 00
	00 00 00 00 00	 mov	 DWORD PTR [esi+4524], 0

; 1816 : 	memset( m_nAParam, 0xcd, sizeof(m_nAParam) );

  0001a	0f 11 86 b0 11
	00 00		 movups	 XMMWORD PTR [esi+4528], xmm0
  00021	c7 86 c0 11 00
	00 cd cd cd cd	 mov	 DWORD PTR [esi+4544], -842150451 ; cdcdcdcdH
; File C:\IAGOS\server\v18\Source\Source\_Common\MoverMsg.cpp

; 543  : 	if( m_pActMover->IsFly() )

  0002b	8b 86 38 02 00
	00		 mov	 eax, DWORD PTR [esi+568]
  00031	f6 40 08 08	 test	 BYTE PTR [eax+8], 8
  00035	74 0a		 je	 SHORT $LN2@CMD_SetUse
; File C:\IAGOS\server\v18\Source\Source\_Common\Mover.h

; 1025 : 	void			SetDestObj( CCtrl* pObj, float fRange = 0.0f )	{	SetDestObj( pObj->GetId(), fRange );	}

  00037	f3 0f 10 05 00
	00 00 00	 movss	 xmm0, DWORD PTR __real@41a00000
; File C:\IAGOS\server\v18\Source\Source\_Common\MoverMsg.cpp

; 544  : 		SetDestObj( pCtrl, 20.0f );

  0003f	eb 03		 jmp	 SHORT $LN3@CMD_SetUse
$LN2@CMD_SetUse:
  00041	0f 57 c0	 xorps	 xmm0, xmm0
$LN3@CMD_SetUse:

; 545  : 	else
; 546  : 		SetDestObj( pCtrl );
; 547  : 	SetCmd( OBJACT_USEITEM );		// 사정거리가 되었을때 실행할 명령 셋팅.

  00044	6a 00		 push	 0
  00046	51		 push	 ecx
  00047	f3 0f 11 04 24	 movss	 DWORD PTR [esp], xmm0
  0004c	ff b1 bc 01 00
	00		 push	 DWORD PTR [ecx+444]
  00052	8b ce		 mov	 ecx, esi
  00054	e8 00 00 00 00	 call	 ?SetDestObj@CMover@@QAEXKMH@Z ; CMover::SetDestObj
  00059	6a 00		 push	 0
  0005b	6a 00		 push	 0
  0005d	6a 00		 push	 0
  0005f	6a 06		 push	 6
  00061	8b ce		 mov	 ecx, esi
  00063	e8 00 00 00 00	 call	 ?SetCmd@CMover@@AAEXW4OBJACT@@HHH@Z ; CMover::SetCmd
  00068	5e		 pop	 esi

; 548  : }

  00069	5d		 pop	 ebp
  0006a	c2 04 00	 ret	 4
?CMD_SetUseItem@CMover@@QAEXPAVCCtrl@@@Z ENDP		; CMover::CMD_SetUseItem
_TEXT	ENDS
; Function compile flags: /Ogtp
; File C:\IAGOS\server\v18\Source\Source\_Common\MoverMsg.cpp
;	COMDAT ?CMD_SetMoveToObj@CMover@@QAEXK@Z
_TEXT	SEGMENT
_idObj$ = 8						; size = 4
?CMD_SetMoveToObj@CMover@@QAEXK@Z PROC			; CMover::CMD_SetMoveToObj, COMDAT
; _this$ = ecx

; 536  : {

  00000	55		 push	 ebp
  00001	8b ec		 mov	 ebp, esp

; 537  : 	SetDestObj( idObj );

  00003	6a 00		 push	 0
  00005	51		 push	 ecx
  00006	c7 04 24 00 00
	00 00		 mov	 DWORD PTR [esp], 0
  0000d	ff 75 08	 push	 DWORD PTR _idObj$[ebp]
  00010	e8 00 00 00 00	 call	 ?SetDestObj@CMover@@QAEXKMH@Z ; CMover::SetDestObj

; 538  : }

  00015	5d		 pop	 ebp
  00016	c2 04 00	 ret	 4
?CMD_SetMoveToObj@CMover@@QAEXK@Z ENDP			; CMover::CMD_SetMoveToObj
_TEXT	ENDS
; Function compile flags: /Ogtp
; File C:\IAGOS\server\v18\Source\Source\_Common\MoverMsg.cpp
;	COMDAT ?CMD_SetMoveToPos@CMover@@QAEXABUD3DXVECTOR3@@@Z
_TEXT	SEGMENT
_vPos$ = 8						; size = 4
?CMD_SetMoveToPos@CMover@@QAEXABUD3DXVECTOR3@@@Z PROC	; CMover::CMD_SetMoveToPos, COMDAT
; _this$ = ecx

; 530  : {

  00000	55		 push	 ebp
  00001	8b ec		 mov	 ebp, esp

; 531  : 	SetDestPos( vPos );

  00003	6a 01		 push	 1
  00005	6a 01		 push	 1
  00007	ff 75 08	 push	 DWORD PTR _vPos$[ebp]
  0000a	e8 00 00 00 00	 call	 ?SetDestPos@CMover@@QAEXABUD3DXVECTOR3@@_NH@Z ; CMover::SetDestPos

; 532  : }

  0000f	5d		 pop	 ebp
  00010	c2 04 00	 ret	 4
?CMD_SetMoveToPos@CMover@@QAEXABUD3DXVECTOR3@@@Z ENDP	; CMover::CMD_SetMoveToPos
_TEXT	ENDS
; Function compile flags: /Ogtp
; File C:\IAGOS\server\v18\Source\Source\_Common\MoverMsg.cpp
; File C:\IAGOS\server\v18\Source\Source\_AIInterface\Action.h
; File C:\IAGOS\server\v18\Source\Source\_Common\MoverMsg.cpp
; File C:\IAGOS\server\v18\Source\Source\_Common\Mover.h
; File C:\IAGOS\server\v18\Source\Source\_Common\MoverMsg.cpp
;	COMDAT ?CMD_SetRangeAttack@CMover@@QAEXKH@Z
_TEXT	SEGMENT
_idTarget$ = 8						; size = 4
_nPower$ = 12						; size = 4
?CMD_SetRangeAttack@CMover@@QAEXKH@Z PROC		; CMover::CMD_SetRangeAttack, COMDAT
; _this$ = ecx

; 476  : {

  00000	55		 push	 ebp
  00001	8b ec		 mov	 ebp, esp
  00003	57		 push	 edi
  00004	8b f9		 mov	 edi, ecx
; File C:\IAGOS\server\v18\Source\Source\_AIInterface\Action.h

; 322  : 	BOOL			IsActAttack()		{ return m_dwState & OBJSTA_ATK_ALL; }

  00006	8b 87 38 02 00
	00		 mov	 eax, DWORD PTR [edi+568]
  0000c	f7 40 04 00 00
	ff 08		 test	 DWORD PTR [eax+4], 150929408 ; 08ff0000H
; File C:\IAGOS\server\v18\Source\Source\_Common\MoverMsg.cpp

; 479  : 	if( m_pActMover->IsActAttack() )		// 이미 어택중이면 취소.

  00013	75 65		 jne	 SHORT $LN1@CMD_SetRan
; File C:\IAGOS\server\v18\Source\Source\_Common\Mover.h

; 1250 : 	BOOL			IsDie() { return m_pActMover->IsDie() || m_nHitPoint == 0; }

  00015	83 bf f8 05 00
	00 00		 cmp	 DWORD PTR [edi+1528], 0
  0001c	74 5c		 je	 SHORT $LN1@CMD_SetRan
; File C:\IAGOS\server\v18\Source\Source\_Common\MoverMsg.cpp

; 485  : 	ItemProp *pItemProp = GetActiveHandItemProp();

  0001e	56		 push	 esi
  0001f	6a 0a		 push	 10			; 0000000aH
  00021	e8 00 00 00 00	 call	 ?GetActiveHandItemProp@CMover@@QAEPAUItemProp@@H@Z ; CMover::GetActiveHandItemProp
  00026	8b f0		 mov	 esi, eax

; 486  : 	if( pItemProp == NULL )		

  00028	85 f6		 test	 esi, esi
  0002a	74 4d		 je	 SHORT $LN22@CMD_SetRan

; 487  : 		return;
; 488  : #ifdef __CROSSBOW	
; 489  : 	if( pItemProp->dwItemKind3 != IK3_BOW &&  pItemProp->dwItemKind3 != IK3_CROSSBOW )	// 들고있는 무기가 보우가 아니면 에러

  0002c	8b 46 78	 mov	 eax, DWORD PTR [esi+120]
  0002f	83 f8 0c	 cmp	 eax, 12			; 0000000cH
  00032	74 05		 je	 SHORT $LN5@CMD_SetRan
  00034	83 f8 0e	 cmp	 eax, 14			; 0000000eH
  00037	75 40		 jne	 SHORT $LN22@CMD_SetRan
$LN5@CMD_SetRan:

; 490  : 		return;
; 491  : #else // __CROSSBOW
; 492  : 	if( pItemProp->dwItemKind3 != IK3_BOW )
; 493  : 		return;
; 494  : #endif // __CROSSBOW
; 495  : 
; 496  : 	if( IsBullet( pItemProp ) == FALSE )

  00039	56		 push	 esi
  0003a	8b cf		 mov	 ecx, edi
  0003c	e8 00 00 00 00	 call	 ?IsBullet@CMover@@QAEHPAUItemProp@@@Z ; CMover::IsBullet
  00041	85 c0		 test	 eax, eax
  00043	74 34		 je	 SHORT $LN22@CMD_SetRan

; 497  : 		return;
; 498  : 	
; 499  : 	ClearActParam();

  00045	8b cf		 mov	 ecx, edi
  00047	e8 00 00 00 00	 call	 ?ClearActParam@CMover@@QAEXXZ ; CMover::ClearActParam

; 500  : 	SetDestObj( idTarget, GetAttackRange( pItemProp->dwAttackRange ), TRUE );		// 이동할 목표물(idTarget)과 그 거리를 설정 

  0004c	6a 01		 push	 1
  0004e	ff b6 38 01 00
	00		 push	 DWORD PTR [esi+312]
  00054	8b cf		 mov	 ecx, edi
  00056	e8 00 00 00 00	 call	 ?GetAttackRange@CMover@@QAEMK@Z ; CMover::GetAttackRange
  0005b	8b 75 08	 mov	 esi, DWORD PTR _idTarget$[ebp]
  0005e	51		 push	 ecx
  0005f	d9 1c 24	 fstp	 DWORD PTR [esp]
  00062	56		 push	 esi
  00063	8b cf		 mov	 ecx, edi
  00065	e8 00 00 00 00	 call	 ?SetDestObj@CMover@@QAEXKMH@Z ; CMover::SetDestObj

; 501  : 	SetCmd( OBJACT_RANGE_ATTACK, idTarget, nPower, 0 );		// 사정거리가 되었을때 실행할 명령 셋팅.

  0006a	6a 00		 push	 0
  0006c	ff 75 0c	 push	 DWORD PTR _nPower$[ebp]
  0006f	8b cf		 mov	 ecx, edi
  00071	56		 push	 esi
  00072	6a 03		 push	 3
  00074	e8 00 00 00 00	 call	 ?SetCmd@CMover@@AAEXW4OBJACT@@HHH@Z ; CMover::SetCmd
$LN22@CMD_SetRan:
  00079	5e		 pop	 esi
$LN1@CMD_SetRan:
  0007a	5f		 pop	 edi

; 502  : }

  0007b	5d		 pop	 ebp
  0007c	c2 08 00	 ret	 8
?CMD_SetRangeAttack@CMover@@QAEXKH@Z ENDP		; CMover::CMD_SetRangeAttack
_TEXT	ENDS
; Function compile flags: /Ogtp
; File C:\IAGOS\server\v18\Source\Source\_Common\MoverMsg.cpp
; File C:\IAGOS\server\v18\Source\Source\_AIInterface\Action.h
; File C:\IAGOS\server\v18\Source\Source\_Common\MoverMsg.cpp
; File C:\IAGOS\server\v18\Source\Source\_Common\Mover.h
; File C:\IAGOS\server\v18\Source\Source\_Common\MoverMsg.cpp
; File C:\IAGOS\server\v18\Source\Source\_Common\Mover.h
; File C:\IAGOS\server\v18\Source\Source\_Common\MoverMsg.cpp
; File C:\IAGOS\server\v18\Source\Source\_Common\Mover.h
; File C:\IAGOS\server\v18\Source\Source\_Common\MoverMsg.cpp
; File C:\IAGOS\server\v18\Source\Source\_Common\Mover.h
; File C:\IAGOS\server\v18\Source\Source\_Common\MoverMsg.cpp
;	COMDAT ?CMD_SetMagicAttack@CMover@@QAEXKH@Z
_TEXT	SEGMENT
_fArrivalRange$ = -4					; size = 4
_idTarget$ = 8						; size = 4
_nMagicPower$ = 12					; size = 4
?CMD_SetMagicAttack@CMover@@QAEXKH@Z PROC		; CMover::CMD_SetMagicAttack, COMDAT
; _this$ = ecx

; 505  : {

  00000	55		 push	 ebp
  00001	8b ec		 mov	 ebp, esp
  00003	51		 push	 ecx
  00004	57		 push	 edi
  00005	8b f9		 mov	 edi, ecx
; File C:\IAGOS\server\v18\Source\Source\_AIInterface\Action.h

; 322  : 	BOOL			IsActAttack()		{ return m_dwState & OBJSTA_ATK_ALL; }

  00007	8b 87 38 02 00
	00		 mov	 eax, DWORD PTR [edi+568]
  0000d	f7 40 04 00 00
	ff 08		 test	 DWORD PTR [eax+4], 150929408 ; 08ff0000H
; File C:\IAGOS\server\v18\Source\Source\_Common\MoverMsg.cpp

; 508  : 	if( m_pActMover->IsActAttack() )		// 이미 어택중이면 취소.

  00014	75 70		 jne	 SHORT $LN1@CMD_SetMag
; File C:\IAGOS\server\v18\Source\Source\_Common\Mover.h

; 1250 : 	BOOL			IsDie() { return m_pActMover->IsDie() || m_nHitPoint == 0; }

  00016	83 bf f8 05 00
	00 00		 cmp	 DWORD PTR [edi+1528], 0
  0001d	74 67		 je	 SHORT $LN1@CMD_SetMag
; File C:\IAGOS\server\v18\Source\Source\_Common\MoverMsg.cpp

; 514  : 	ItemProp *pItemProp = GetActiveHandItemProp();

  0001f	6a 0a		 push	 10			; 0000000aH
  00021	e8 00 00 00 00	 call	 ?GetActiveHandItemProp@CMover@@QAEPAUItemProp@@H@Z ; CMover::GetActiveHandItemProp

; 515  : 	if( pItemProp == NULL )		return;

  00026	85 c0		 test	 eax, eax
  00028	74 5c		 je	 SHORT $LN1@CMD_SetMag

; 516  : 
; 517  : 	if( pItemProp->dwItemKind3 != IK3_WAND /*&& pItemProp->dwItemKind3 != IK3_STAFF*/ )	//Staff->ata2k	// 들고있는 무기가 완드가 아니면 취소

  0002a	83 78 78 06	 cmp	 DWORD PTR [eax+120], 6
  0002e	75 56		 jne	 SHORT $LN1@CMD_SetMag

; 518  : 		return;
; 519  : 	
; 520  : 	// 도달범위 - 얼마나 가까이 근접해야하는가. 미터단위
; 521  : 	float	fArrivalRange = GetAttackRange( AR_WAND );

  00030	6a 05		 push	 5
  00032	8b cf		 mov	 ecx, edi
  00034	e8 00 00 00 00	 call	 ?GetAttackRange@CMover@@QAEMK@Z ; CMover::GetAttackRange
; File C:\IAGOS\server\v18\Source\Source\_Common\Mover.h

; 1816 : 	memset( m_nAParam, 0xcd, sizeof(m_nAParam) );

  00039	0f 28 05 00 00
	00 00		 movaps	 xmm0, XMMWORD PTR __xmm@cdcdcdcdcdcdcdcdcdcdcdcdcdcdcdcd
  00040	c7 87 ac 11 00
	00 00 00 00 00	 mov	 DWORD PTR [edi+4524], 0
; File C:\IAGOS\server\v18\Source\Source\_Common\MoverMsg.cpp

; 524  : 	SetDestObj( idTarget, fArrivalRange );		// 이동할 목표물을 idTarget으로 설정.

  0004a	6a 00		 push	 0
; File C:\IAGOS\server\v18\Source\Source\_Common\Mover.h

; 1816 : 	memset( m_nAParam, 0xcd, sizeof(m_nAParam) );

  0004c	0f 11 87 b0 11
	00 00		 movups	 XMMWORD PTR [edi+4528], xmm0
; File C:\IAGOS\server\v18\Source\Source\_Common\MoverMsg.cpp

; 524  : 	SetDestObj( idTarget, fArrivalRange );		// 이동할 목표물을 idTarget으로 설정.

  00053	51		 push	 ecx
  00054	d9 5d fc	 fstp	 DWORD PTR _fArrivalRange$[ebp]
  00057	f3 0f 10 45 fc	 movss	 xmm0, DWORD PTR _fArrivalRange$[ebp]
  0005c	8b cf		 mov	 ecx, edi
  0005e	f3 0f 11 04 24	 movss	 DWORD PTR [esp], xmm0
  00063	ff 75 08	 push	 DWORD PTR _idTarget$[ebp]
; File C:\IAGOS\server\v18\Source\Source\_Common\Mover.h

; 1816 : 	memset( m_nAParam, 0xcd, sizeof(m_nAParam) );

  00066	c7 87 c0 11 00
	00 cd cd cd cd	 mov	 DWORD PTR [edi+4544], -842150451 ; cdcdcdcdH
; File C:\IAGOS\server\v18\Source\Source\_Common\MoverMsg.cpp

; 524  : 	SetDestObj( idTarget, fArrivalRange );		// 이동할 목표물을 idTarget으로 설정.

  00070	e8 00 00 00 00	 call	 ?SetDestObj@CMover@@QAEXKMH@Z ; CMover::SetDestObj

; 525  : 	SetCmd( OBJACT_MAGIC_ATTACK, idTarget, nMagicPower );		// 사정거리가 되었을때 실행할 명령 셋팅.

  00075	6a 00		 push	 0
  00077	ff 75 0c	 push	 DWORD PTR _nMagicPower$[ebp]
  0007a	8b cf		 mov	 ecx, edi
  0007c	ff 75 08	 push	 DWORD PTR _idTarget$[ebp]
  0007f	6a 02		 push	 2
  00081	e8 00 00 00 00	 call	 ?SetCmd@CMover@@AAEXW4OBJACT@@HHH@Z ; CMover::SetCmd
$LN1@CMD_SetMag:
  00086	5f		 pop	 edi

; 526  : }

  00087	8b e5		 mov	 esp, ebp
  00089	5d		 pop	 ebp
  0008a	c2 08 00	 ret	 8
?CMD_SetMagicAttack@CMover@@QAEXKH@Z ENDP		; CMover::CMD_SetMagicAttack
_TEXT	ENDS
; Function compile flags: /Ogtp
; File C:\IAGOS\server\v18\Source\Source\_Common\MoverMsg.cpp
; File C:\IAGOS\server\v18\Source\Source\_AIInterface\Action.h
; File C:\IAGOS\server\v18\Source\Source\_Common\MoverMsg.cpp
; File C:\IAGOS\server\v18\Source\Source\_Common\Mover.h
; File C:\IAGOS\server\v18\Source\Source\_Common\MoverMsg.cpp
;	COMDAT ?CMD_SetMeleeAttack@CMover@@QAEXKM@Z
_TEXT	SEGMENT
_idTarget$ = 8						; size = 4
_fRange$ = 12						; size = 4
?CMD_SetMeleeAttack@CMover@@QAEXKM@Z PROC		; CMover::CMD_SetMeleeAttack, COMDAT
; _this$ = ecx

; 428  : {

  00000	55		 push	 ebp
  00001	8b ec		 mov	 ebp, esp
  00003	56		 push	 esi

; 429  : 	ItemProp *pProp = GetActiveHandItemProp();

  00004	6a 0a		 push	 10			; 0000000aH
  00006	8b f1		 mov	 esi, ecx
  00008	e8 00 00 00 00	 call	 ?GetActiveHandItemProp@CMover@@QAEPAUItemProp@@H@Z ; CMover::GetActiveHandItemProp

; 430  : 	if( pProp->dwItemKind2 == IK2_TOOLS )			// 툴을 들고선 공격못한다,.

  0000d	83 78 74 12	 cmp	 DWORD PTR [eax+116], 18	; 00000012H
  00011	74 69		 je	 SHORT $LN1@CMD_SetMel
; File C:\IAGOS\server\v18\Source\Source\_AIInterface\Action.h

; 322  : 	BOOL			IsActAttack()		{ return m_dwState & OBJSTA_ATK_ALL; }

  00013	8b 96 38 02 00
	00		 mov	 edx, DWORD PTR [esi+568]
  00019	f7 42 04 00 00
	ff 08		 test	 DWORD PTR [edx+4], 150929408 ; 08ff0000H
; File C:\IAGOS\server\v18\Source\Source\_Common\MoverMsg.cpp

; 433  : 	if( m_pActMover->IsActAttack() )	

  00020	75 5a		 jne	 SHORT $LN1@CMD_SetMel
; File C:\IAGOS\server\v18\Source\Source\_Common\Mover.h

; 1250 : 	BOOL			IsDie() { return m_pActMover->IsDie() || m_nHitPoint == 0; }

  00022	83 be f8 05 00
	00 00		 cmp	 DWORD PTR [esi+1528], 0
  00029	74 51		 je	 SHORT $LN1@CMD_SetMel
; File C:\IAGOS\server\v18\Source\Source\_Common\MoverMsg.cpp

; 439  : 	if( pProp->dwItemKind3 == IK3_YOYO )

  0002b	83 78 78 0b	 cmp	 DWORD PTR [eax+120], 11	; 0000000bH
  0002f	75 10		 jne	 SHORT $LN5@CMD_SetMel

; 440  : 		fRange = GetAttackRange( pProp->dwAttackRange );

  00031	ff b0 38 01 00
	00		 push	 DWORD PTR [eax+312]
  00037	8b ce		 mov	 ecx, esi
  00039	e8 00 00 00 00	 call	 ?GetAttackRange@CMover@@QAEMK@Z ; CMover::GetAttackRange
  0003e	d9 5d 0c	 fstp	 DWORD PTR _fRange$[ebp]
$LN5@CMD_SetMel:

; 441  : 	
; 442  : #ifdef __CLIENT
; 443  : 	ClearActParam();
; 444  : 	SetDestObj( idTarget, fRange );		// 이동할 목표물을 idTarget으로 설정.
; 445  : 	SetCmd( OBJACT_MELEE_ATTACK, idTarget );		// 사정거리가 되었을때 실행할 명령 셋팅.
; 446  : #elif defined(__WORLDSERVER)
; 447  : #ifdef __TRAFIC_1222
; 448  : 	if( GetDestId() == idTarget )

  00041	57		 push	 edi
  00042	8b 7d 08	 mov	 edi, DWORD PTR _idTarget$[ebp]
  00045	39 be 58 02 00
	00		 cmp	 DWORD PTR [esi+600], edi
  0004b	74 2e		 je	 SHORT $LN22@CMD_SetMel

; 449  : 		return;
; 450  : #endif	// __TRAFIC_1222
; 451  : 	SetDestObj( idTarget, fRange );		// 이동할 목표물을 idTarget으로 설정.

  0004d	f3 0f 10 45 0c	 movss	 xmm0, DWORD PTR _fRange$[ebp]
  00052	6a 00		 push	 0
  00054	51		 push	 ecx
  00055	f3 0f 11 04 24	 movss	 DWORD PTR [esp], xmm0
  0005a	8b ce		 mov	 ecx, esi
  0005c	57		 push	 edi
  0005d	e8 00 00 00 00	 call	 ?SetDestObj@CMover@@QAEXKMH@Z ; CMover::SetDestObj

; 452  : 	g_UserMng.AddMoverSetDestObj( this, idTarget, fRange );

  00062	f3 0f 10 45 0c	 movss	 xmm0, DWORD PTR _fRange$[ebp]
  00067	6a 00		 push	 0
  00069	51		 push	 ecx
  0006a	f3 0f 11 04 24	 movss	 DWORD PTR [esp], xmm0
  0006f	b9 00 00 00 00	 mov	 ecx, OFFSET ?g_UserMng@@3VCUserMng@@A ; g_UserMng
  00074	57		 push	 edi
  00075	56		 push	 esi
  00076	e8 00 00 00 00	 call	 ?AddMoverSetDestObj@CUserMng@@QAEXPAVCMover@@KMH@Z ; CUserMng::AddMoverSetDestObj
$LN22@CMD_SetMel:
  0007b	5f		 pop	 edi
$LN1@CMD_SetMel:
  0007c	5e		 pop	 esi

; 453  : #endif // WORLDSERVER
; 454  : }

  0007d	5d		 pop	 ebp
  0007e	c2 08 00	 ret	 8
?CMD_SetMeleeAttack@CMover@@QAEXKM@Z ENDP		; CMover::CMD_SetMeleeAttack
_TEXT	ENDS
; Function compile flags: /Ogtp
; File C:\IAGOS\server\v18\Source\Source\_Common\MoverMsg.cpp
; File C:\IAGOS\server\v18\Source\Source\_AIInterface\Action.h
; File C:\IAGOS\server\v18\Source\Source\_Common\MoverMsg.cpp
; File C:\IAGOS\server\v18\Source\Source\_AIInterface\Action.h
; File C:\IAGOS\server\v18\Source\Source\_Common\MoverMsg.cpp
; File C:\IAGOS\server\v18\Source\Source\_Common\Item.h
; File C:\IAGOS\server\v18\Source\Source\_Common\Project.h
; File C:\IAGOS\server\v18\Source\Source\_Common\data.h
; File C:\IAGOS\server\v18\Source\Source\_Common\MoverMsg.cpp
; File C:\IAGOS\server\v18\Source\Source\_Common\Obj.h
; File C:\IAGOS\server\v18\Source\Source\_Common\MoverMsg.cpp
; File C:\IAGOS\server\v18\Source\Source\_Common\Mover.h
; File C:\IAGOS\server\v18\Source\Source\_Common\MoverMsg.cpp
; File C:\IAGOS\server\v18\Source\Source\_Common\Project.h
; File C:\IAGOS\server\v18\Source\Source\_Common\MoverMsg.cpp
;	COMDAT ?CMD_SetUseSkill@CMover@@QAEHKHW4SKILLUSETYPE@@@Z
_TEXT	SEGMENT
tv158 = -8						; size = 4
_pSkill$1$ = -4						; size = 4
_idTarget$ = 8						; size = 4
_pTarget$1$ = 8						; size = 4
tv559 = 8						; size = 4
_nSkillIdx$ = 12					; size = 4
_sutType$ = 16						; size = 4
?CMD_SetUseSkill@CMover@@QAEHKHW4SKILLUSETYPE@@@Z PROC	; CMover::CMD_SetUseSkill, COMDAT
; _this$ = ecx

; 173  : {

  00000	55		 push	 ebp
  00001	8b ec		 mov	 ebp, esp
  00003	83 ec 08	 sub	 esp, 8
  00006	53		 push	 ebx
  00007	56		 push	 esi
  00008	8b f1		 mov	 esi, ecx
  0000a	57		 push	 edi
; File C:\IAGOS\server\v18\Source\Source\_AIInterface\Action.h

; 309  : 	BOOL			IsFly() { return (m_dwStateFlag & OBJSTAF_FLY) ? TRUE : FALSE; }

  0000b	8b 86 38 02 00
	00		 mov	 eax, DWORD PTR [esi+568]
; File C:\IAGOS\server\v18\Source\Source\_Common\MoverMsg.cpp

; 174  : 	m_oaCmd = OBJACT_NONE;

  00011	c7 86 9c 11 00
	00 00 00 00 00	 mov	 DWORD PTR [esi+4508], 0

; 175  : 	TRACE( "CMD_SetUseSkill( " );
; 176  : 	if( m_pActMover->IsFly() )	return 0;				// 비행중엔 스킬사용 금지.

  0001b	f6 40 08 08	 test	 BYTE PTR [eax+8], 8
  0001f	0f 85 f6 01 00
	00		 jne	 $LN70@CMD_SetUse
; File C:\IAGOS\server\v18\Source\Source\_AIInterface\Action.h

; 322  : 	BOOL			IsActAttack()		{ return m_dwState & OBJSTA_ATK_ALL; }

  00025	f7 40 04 00 f0
	ff 02		 test	 DWORD PTR [eax+4], 50327552 ; 02fff000H
; File C:\IAGOS\server\v18\Source\Source\_Common\MoverMsg.cpp

; 177  : 	if( m_pActMover->IsActAttack() )	return 0;

  0002c	0f 85 e9 01 00
	00		 jne	 $LN70@CMD_SetUse

; 178  : 	if( m_pActMover->IsActJump() )	return 0;			// 점프중엔 사용금지.
; 179  : 	if( m_pActMover->GetState() & OBJSTA_DMG_FLY_ALL )		return 0;	// 데미지 플라이중엔 스킬사용금지.
; 180  : 	if( IsDie() )	return 0;		// 죽었을때 사용금지.

  00032	e8 00 00 00 00	 call	 ?IsDie@CMover@@QAEHXZ	; CMover::IsDie
  00037	85 c0		 test	 eax, eax
  00039	0f 85 dc 01 00
	00		 jne	 $LN70@CMD_SetUse

; 181  : 
; 182  : 	LPSKILL pSkill	= GetSkill( 0, nSkillIdx );		// this가 가진 스킬중 nIdx에 해당하는 스킬을 꺼낸다.

  0003f	8b 5d 0c	 mov	 ebx, DWORD PTR _nSkillIdx$[ebp]
  00042	8b ce		 mov	 ecx, esi
  00044	53		 push	 ebx
  00045	50		 push	 eax
  00046	e8 00 00 00 00	 call	 ?GetSkill@CMover@@QAEPAUtagSkill@@HH@Z ; CMover::GetSkill
  0004b	8b f8		 mov	 edi, eax
  0004d	89 7d fc	 mov	 DWORD PTR _pSkill$1$[ebp], edi

; 183  : 	if( pSkill == NULL )

  00050	85 ff		 test	 edi, edi
  00052	75 20		 jne	 SHORT $LN11@CMD_SetUse

; 184  : 	{
; 185  : 		Error( "CMD_SetUseSkill : %s skill(%d) not found", m_szName, nSkillIdx );

  00054	53		 push	 ebx
  00055	8d 86 ec 14 00
	00		 lea	 eax, DWORD PTR [esi+5356]
  0005b	50		 push	 eax
  0005c	68 00 00 00 00	 push	 OFFSET ??_C@_0CJ@PJHOGBAB@CMD_SetUseSkill?5?3?5?$CFs?5skill?$CI?$CFd?$CJ?5@

; 420  : 	TRACE( "\n)CMD_SetUseSkill\n" );
; 421  : 
; 422  : 	return 1;
; 423  : }

  00061	e8 00 00 00 00	 call	 ?Error@@YAPBDPBDZZ	; Error
  00066	83 c4 0c	 add	 esp, 12			; 0000000cH
  00069	33 c0		 xor	 eax, eax
  0006b	5f		 pop	 edi
  0006c	5e		 pop	 esi
  0006d	5b		 pop	 ebx
  0006e	8b e5		 mov	 esp, ebp
  00070	5d		 pop	 ebp
  00071	c2 0c 00	 ret	 12			; 0000000cH
$LN11@CMD_SetUse:
; File C:\IAGOS\server\v18\Source\Source\_Common\Item.h

; 314  : 	ItemProp* GetProp()	{ return prj.GetSkillProp( dwSkill ); }

  00074	8b 0f		 mov	 ecx, DWORD PTR [edi]
; File C:\IAGOS\server\v18\Source\Source\_Common\Project.h

; 1395 : 	VERIFY_RANGE( nIndex, 0, m_aPropSkill.GetSize(), "GetSkillProp range_error", NULL );

  00076	a1 64 02 00 00	 mov	 eax, DWORD PTR ?prj@@3VCProject@@A+612
  0007b	85 c9		 test	 ecx, ecx
  0007d	0f 88 6c 01 00
	00		 js	 $LN51@CMD_SetUse
  00083	3b c8		 cmp	 ecx, eax
  00085	0f 8d 64 01 00
	00		 jge	 $LN51@CMD_SetUse
; File C:\IAGOS\server\v18\Source\Source\_Common\data.h

; 270  : 	if( dwIndex >= (DWORD)m_nMaxIndex )

  0008b	72 04		 jb	 SHORT $LN56@CMD_SetUse

; 271  : 		return NULL;

  0008d	33 db		 xor	 ebx, ebx
  0008f	eb 08		 jmp	 SHORT $LN55@CMD_SetUse
$LN56@CMD_SetUse:

; 272  : 	return (T*) m_apOffset[ dwIndex ];

  00091	a1 54 02 00 00	 mov	 eax, DWORD PTR ?prj@@3VCProject@@A+596
  00096	8b 1c 88	 mov	 ebx, DWORD PTR [eax+ecx*4]
$LN55@CMD_SetUse:
; File C:\IAGOS\server\v18\Source\Source\_Common\MoverMsg.cpp

; 190  : 	if( pSkillProp == NULL )		// JobSkill 리스트에서 꺼낸 스킬의 프로퍼티를 꺼냄.

  00099	85 db		 test	 ebx, ebx
  0009b	0f 84 64 01 00
	00		 je	 $LN69@CMD_SetUse

; 193  : 		return 0;	// 
; 194  : 	}
; 195  : 	
; 196  : 	if( IsPlayer() && IsStateMode( STATE_BASEMOTION_MODE ) )	// 시전중(준비시간)일땐 사용금지.

  000a1	83 be 30 02 00
	00 00		 cmp	 DWORD PTR [esi+560], 0
  000a8	74 0d		 je	 SHORT $LN13@CMD_SetUse
  000aa	f6 86 48 02 00
	00 04		 test	 BYTE PTR [esi+584], 4
  000b1	0f 85 64 01 00
	00		 jne	 $LN70@CMD_SetUse
$LN13@CMD_SetUse:

; 197  : 	{
; 198  : 	#ifdef __CLIENT
; 199  : 		g_DPlay.SendStateModeCancel( STATE_BASEMOTION_MODE, STATEMODE_BASEMOTION_CANCEL );
; 200  : 	#endif 
; 201  : 		return 0;		
; 202  : 	}
; 203  : 
; 204  : 	// 도달범위 - 얼마나 가까이 근접해야하는가. 미터단위
; 205  : 	float	fArrivalRange = 0.0f;		
; 206  : 	fArrivalRange = GetAttackRange( pSkillProp->dwAttackRange );

  000b7	ff b3 38 01 00
	00		 push	 DWORD PTR [ebx+312]
  000bd	8b ce		 mov	 ecx, esi
  000bf	e8 00 00 00 00	 call	 ?GetAttackRange@CMover@@QAEMK@Z ; CMover::GetAttackRange

; 207  : 	
; 208  : 	switch( pSkillProp->dwUseChance )

  000c4	8b 83 c8 01 00
	00		 mov	 eax, DWORD PTR [ebx+456]
  000ca	d9 5d f8	 fstp	 DWORD PTR tv158[ebp]
  000cd	83 e8 01	 sub	 eax, 1
  000d0	0f 84 ab 00 00
	00		 je	 $LN14@CMD_SetUse
  000d6	83 e8 03	 sub	 eax, 3
  000d9	75 10		 jne	 SHORT $LN82@CMD_SetUse

; 212  : 		break;
; 213  : 	case WUI_TARGETINGOBJ:	// 셀렉트 되어 있는 타겟에게 사용.
; 214  : 		{
; 215  : #ifdef __CLIENT
; 216  : 		CObj *pFocusObj = GetWorld()->GetObjFocus();
; 217  : 		if( pFocusObj && pFocusObj->GetType() == OT_MOVER )
; 218  : 			idTarget = ((CMover*)pFocusObj)->GetId();
; 219  : #else
; 220  : 		if( IsPlayer() )

  000db	39 86 30 02 00
	00		 cmp	 DWORD PTR [esi+560], eax
  000e1	74 08		 je	 SHORT $LN82@CMD_SetUse

; 221  : 			idTarget = ((CUser *)this)->m_idSetTarget;

  000e3	8b be 40 8e 00
	00		 mov	 edi, DWORD PTR [esi+36416]
  000e9	eb 03		 jmp	 SHORT $LN16@CMD_SetUse
$LN82@CMD_SetUse:

; 212  : 		break;
; 213  : 	case WUI_TARGETINGOBJ:	// 셀렉트 되어 있는 타겟에게 사용.
; 214  : 		{
; 215  : #ifdef __CLIENT
; 216  : 		CObj *pFocusObj = GetWorld()->GetObjFocus();
; 217  : 		if( pFocusObj && pFocusObj->GetType() == OT_MOVER )
; 218  : 			idTarget = ((CMover*)pFocusObj)->GetId();
; 219  : #else
; 220  : 		if( IsPlayer() )

  000eb	8b 7d 08	 mov	 edi, DWORD PTR _idTarget$[ebp]
$LN16@CMD_SetUse:

; 222  : #endif // __CLIENT
; 223  : 		}
; 224  : 
; 225  : 		break;
; 226  : #ifdef __CLIENT
; 227  : 	case WUI_TARGETCURSORPTZ:
; 228  : 		{
; 229  : 			idTarget = GetId();
; 230  : 			
; 231  : 			CRect rect;
; 232  : 			D3DXVECTOR3 vPos;
; 233  : 			CWndWorld* pWndWorld;
; 234  : 			
; 235  : 			pWndWorld = (CWndWorld*)g_WndMng.GetWndBase( APP_WORLD );
; 236  : 
; 237  : 			rect = pWndWorld->GetClientRect();
; 238  : 
; 239  : 			if( GetWorld()->ClientPointToVector( NULL, rect, pWndWorld->GetMousePoint(), &GetWorld()->m_matProj, &GetWorld()->GetCamera()->m_matView, &vPos, TRUE ) )
; 240  : 			{
; 241  : #ifdef __SKILL0517
; 242  : 				AddSkillProp* pAddSkillProp = prj.GetAddSkillProp( pSkillProp->dwSubDefine, GetSkillLevel( pSkill ) );		// UseSkill에서 사용한 스킬의 프로퍼티 꺼냄
; 243  : #else	// __SKILL0517
; 244  : 				AddSkillProp* pAddSkillProp = prj.GetAddSkillProp( pSkillProp->dwSubDefine, pSkill->dwLevel );		// UseSkill에서 사용한 스킬의 프로퍼티 꺼냄
; 245  : #endif	// __SKILL0517
; 246  : 				if( pAddSkillProp == NULL )
; 247  : 				{
; 248  : 					Error( "CMover::OnMagicSkill : %s. add스킬(%d)의 프로퍼티가 없다.", m_szName, nSkillIdx );
; 249  : 					return 0;	// property not found
; 250  : 				}
; 251  : 				
; 252  : 				FLOAT	fDist;
; 253  : 				FLOAT	fMaxDistSq;
; 254  : 				D3DXVECTOR3	vDist;
; 255  : 				fMaxDistSq  = (float)pAddSkillProp->dwSkillRange;
; 256  : 				fMaxDistSq *= fMaxDistSq;
; 257  : 				vDist = vPos - GetPos();
; 258  : 				fDist = D3DXVec3LengthSq( &vDist );	
; 259  : 
; 260  : 				SetAngle( GetDegree(vPos, GetPos()) );		// 목표쪽으로 몸을 돌림.
; 261  : 				
; 262  : 				// 텔레포트 할 위치가 멀경우 현제 스킬에 해당하는 거리로 바꿔준다
; 263  : 				if( fDist > fMaxDistSq )
; 264  : 				{
; 265  : 					FLOAT fLength;
; 266  : 					D3DXVECTOR3 vDirNor;
; 267  : 					D3DXVec3Normalize( &vDirNor, &vDist );
; 268  : 					fLength = (float)pAddSkillProp->dwSkillRange;
; 269  : 					float y = vPos.y;
; 270  : 					vPos = GetPos() + (vDirNor * fLength);
; 271  : 					vPos.y	= y;
; 272  : 
; 273  : 					// 스킬에 해당하는 거리로 바꾼곳이 못가는 지역이라면 갈수 있는 지역을 검사한다.
; 274  : 					int nAttr = GetWorld()->GetHeightAttribute( vPos.x, vPos.z );
; 275  : 
; 276  : 					if( nAttr != HATTR_NONE ) 
; 277  : 					{
; 278  : 						while( nAttr != HATTR_NONE )
; 279  : 						{
; 280  : 							if( nAttr == HATTR_NOFLY )
; 281  : 								break;
; 282  : 							
; 283  : 							fLength -= 1.0f; // 1미터씩 줄여가며 계산한다.
; 284  : 							vPos  = GetPos() + (vDirNor * fLength);
; 285  : 							nAttr = GetWorld()->GetHeightAttribute( vPos.x, vPos.z );
; 286  : 
; 287  : 							// 캐릭터의 앞 뒤로 이동불가 일 경우 뒷쪽이 이동불가 해제 될때 까지 계속 계산하여 이동시킴
; 288  : 							// 그러므로 텔레포트 스킬 범위를 넘어설 경우 원래 자리로 텔레포트 하도록 처리
; 289  : 							D3DXVECTOR3 vTemp = vPos - GetPos();
; 290  : 							float fTemp = D3DXVec3LengthSq( &vTemp );
; 291  : 							if(fTemp > fMaxDistSq)
; 292  : 							{
; 293  : 								vPos = GetPos();
; 294  : 								break;
; 295  : 							}
; 296  : 						}
; 297  : 						
; 298  : 						// 한번더 줄여줌
; 299  : 						fLength -= 1.0f; 
; 300  : 						vPos = GetPos() + (vDirNor * fLength);
; 301  : 
; 302  : 						// 줄인 곳이 이동불가 지역일 수 있다.
; 303  : 						nAttr = GetWorld()->GetHeightAttribute( vPos.x, vPos.z );
; 304  : 						if( nAttr != HATTR_NONE )
; 305  : 						{
; 306  : 							vPos = GetPos();
; 307  : 						}
; 308  : 					}
; 309  : 				}
; 310  : 				else // 텔레포트 할 위치가 해당스킬 거리보다 작을경우
; 311  : 				{
; 312  : 					int nAttr = GetWorld()->GetHeightAttribute( vPos.x, vPos.z );
; 313  : 
; 314  : 					FLOAT fLength;
; 315  : 					D3DXVECTOR3 vDirNor;
; 316  : 					D3DXVec3Normalize( &vDirNor, &vDist );
; 317  : 					fLength = 0.0f;
; 318  : 
; 319  : 					while( nAttr != HATTR_NONE )
; 320  : 					{
; 321  : 						if( nAttr == HATTR_NOFLY )
; 322  : 							break;
; 323  : 
; 324  : 						fLength -= 1.0f;
; 325  : 						vPos = GetPos() + (vDirNor * fLength);
; 326  : 						
; 327  : 						nAttr = GetWorld()->GetHeightAttribute( vPos.x, vPos.z );
; 328  : 
; 329  : 						// 캐릭터의 앞 뒤로 이동불가 일 경우 뒷쪽이 이동불가 해제 될때 까지 계속 계산하여 이동시킴
; 330  : 						// 그러므로 텔레포트 스킬 범위를 넘어설 경우 원래 자리로 텔레포트 하도록 처리
; 331  : 						D3DXVECTOR3 vTemp = vPos - GetPos();
; 332  : 						float fTemp = D3DXVec3LengthSq( &vTemp );
; 333  : 						if(fTemp > fMaxDistSq)
; 334  : 						{
; 335  : 							vPos = GetPos();
; 336  : 							break;
; 337  : 						}
; 338  : 					}
; 339  : 				}
; 340  : 
; 341  : 				if( IsActiveMover() && g_eLocal.GetState( EVE_SCHOOL ) )	// 학교이벤섭이면.
; 342  : 				{
; 343  : 					D3DXVECTOR3 v1, v2;
; 344  : 					v1 = GetPos();	v1.y += 0.1f;
; 345  : 					v2 = vPos;		v2.y += 0.1f;
; 346  : 					if( GetWorld()->IntersectObjLine( NULL, v1, v2, FALSE, FALSE ) )	// 텔레포트는 라인체크함.
; 347  : 					{
; 348  : 						g_WndMng.PutString( prj.GetText(TID_GAME_NOMOVING), NULL, prj.GetTextColor(TID_GAME_NOMOVING) );
; 349  : 						g_WndMng.m_pWndWorld->SetNextSkill( NEXTSKILL_NONE );
; 350  : 						return 0;
; 351  : 					}
; 352  : 				}
; 353  : 
; 354  : 				pWndWorld->m_vTelePos = vPos;
; 355  : 			}
; 356  : 			else
; 357  : 			{
; 358  : 				g_WndMng.m_pWndWorld->SetNextSkill( NEXTSKILL_NONE );
; 359  : 				g_WndMng.PutString( prj.GetText(TID_GAME_NOMOVING), NULL, prj.GetTextColor(TID_GAME_NOMOVING) );
; 360  : 				return 0;
; 361  : 			}
; 362  : 		}
; 363  : 		break;
; 364  : #endif // __CLIENT
; 365  : 	}
; 366  : 
; 367  : 	// 타인에게 쓰는경우에만 검사...
; 368  : 	if( idTarget != GetId() )		

  000ee	3b be bc 01 00
	00		 cmp	 edi, DWORD PTR [esi+444]
  000f4	8d 8e bc 01 00
	00		 lea	 ecx, DWORD PTR [esi+444]
  000fa	0f 84 8d 00 00
	00		 je	 $LN25@CMD_SetUse

; 369  : 	{
; 370  : 		CMover *pTarget = prj.GetMover( idTarget );

  00100	57		 push	 edi
  00101	b9 00 00 00 00	 mov	 ecx, OFFSET ?prj@@3VCProject@@A ; prj
  00106	e8 00 00 00 00	 call	 ?GetMover@CProject@@QAEPAVCMover@@K@Z ; CProject::GetMover
  0010b	8b c8		 mov	 ecx, eax
  0010d	89 4d 08	 mov	 DWORD PTR _pTarget$1$[ebp], ecx
; File C:\IAGOS\server\v18\Source\Source\_Common\Obj.h

; 327  : 	return pObj && ( pObj->IsDelete() == FALSE ); 

  00110	85 c9		 test	 ecx, ecx
  00112	74 73		 je	 SHORT $LN62@CMD_SetUse

; 180  : 	BOOL			IsDelete()	{ return (m_dwFlags & OBJ_FLAG_DELETE);  }

  00114	f6 41 04 01	 test	 BYTE PTR [ecx+4], 1

; 327  : 	return pObj && ( pObj->IsDelete() == FALSE ); 

  00118	75 6d		 jne	 SHORT $LN62@CMD_SetUse
; File C:\IAGOS\server\v18\Source\Source\_Common\MoverMsg.cpp

; 373  : 			if( pSkillProp->nEvildoing < 0 )	// 나쁜 스킬은 

  0011a	83 bb 04 02 00
	00 00		 cmp	 DWORD PTR [ebx+516], 0
  00121	7d 13		 jge	 SHORT $LN20@CMD_SetUse

; 374  : 				if( IsAttackAble(pTarget) == FALSE )	// 공격허용이 되지 않으면 사용할 수 없음.

  00123	51		 push	 ecx
  00124	8b ce		 mov	 ecx, esi
  00126	e8 00 00 00 00	 call	 ?IsAttackAble@CMover@@QAEHPAVCObj@@@Z ; CMover::IsAttackAble
  0012b	85 c0		 test	 eax, eax
  0012d	0f 84 e8 00 00
	00		 je	 $LN70@CMD_SetUse
  00133	8b 4d 08	 mov	 ecx, DWORD PTR _pTarget$1$[ebp]
$LN20@CMD_SetUse:

; 375  : 					return 0;
; 376  : 				
; 377  : 			if( pSkill->dwSkill == SI_ASS_HEAL_RESURRECTION )	// 부활을 사용했을때

  00136	8b 45 fc	 mov	 eax, DWORD PTR _pSkill$1$[ebp]
  00139	83 38 2d	 cmp	 DWORD PTR [eax], 45	; 0000002dH
  0013c	75 28		 jne	 SHORT $LN21@CMD_SetUse
; File C:\IAGOS\server\v18\Source\Source\_Common\Mover.h

; 1015 : 	BOOL			IsNPC()				{ return !m_bPlayer; }

  0013e	83 b9 30 02 00
	00 00		 cmp	 DWORD PTR [ecx+560], 0
; File C:\IAGOS\server\v18\Source\Source\_Common\MoverMsg.cpp

; 379  : 				if( pTarget->IsNPC() || pTarget->IsDie() == FALSE )		// 상대가 NPC거나 상대가 죽어있지 않다면 취소

  00145	0f 84 d0 00 00
	00		 je	 $LN70@CMD_SetUse
  0014b	8d 86 bc 01 00
	00		 lea	 eax, DWORD PTR [esi+444]
  00151	89 45 08	 mov	 DWORD PTR tv559[ebp], eax
  00154	e8 00 00 00 00	 call	 ?IsDie@CMover@@QAEHXZ	; CMover::IsDie
  00159	85 c0		 test	 eax, eax
  0015b	0f 84 ba 00 00
	00		 je	 $LN70@CMD_SetUse
  00161	8b 4d 08	 mov	 ecx, DWORD PTR tv559[ebp]
  00164	eb 27		 jmp	 SHORT $LN25@CMD_SetUse
$LN21@CMD_SetUse:

; 380  : 					return 0;
; 381  : 			} else
; 382  : 			{
; 383  : 				if( pTarget->IsDie() )		// 부활이 아닌 스킬을 사용했을때 상대가 죽어있으면 사용안됨.

  00166	8d 86 bc 01 00
	00		 lea	 eax, DWORD PTR [esi+444]
  0016c	89 45 08	 mov	 DWORD PTR tv559[ebp], eax
  0016f	e8 00 00 00 00	 call	 ?IsDie@CMover@@QAEHXZ	; CMover::IsDie
  00174	85 c0		 test	 eax, eax
  00176	0f 85 9f 00 00
	00		 jne	 $LN70@CMD_SetUse
  0017c	8b 4d 08	 mov	 ecx, DWORD PTR tv559[ebp]
  0017f	eb 0c		 jmp	 SHORT $LN25@CMD_SetUse
$LN14@CMD_SetUse:

; 209  : 	{
; 210  : 	case WUI_NOW:	// 타겟팅과 상관없이 자기자신에게 쓰는 방식.
; 211  : 		idTarget = GetId();

  00181	8b be bc 01 00
	00		 mov	 edi, DWORD PTR [esi+444]
$LN62@CMD_SetUse:

; 384  : 					return 0;
; 385  : 			}
; 386  : 		}
; 387  : 	}
; 388  : 
; 389  : 	// 타겟 근접 방식.
; 390  : 	switch( pSkillProp->dwExeTarget )

  00187	8d 8e bc 01 00
	00		 lea	 ecx, DWORD PTR [esi+444]
$LN25@CMD_SetUse:
  0018d	8b 83 c4 01 00
	00		 mov	 eax, DWORD PTR [ebx+452]
  00193	48		 dec	 eax
  00194	83 f8 0d	 cmp	 eax, 13			; 0000000dH
  00197	77 17		 ja	 SHORT $LN34@CMD_SetUse
  00199	0f b6 80 00 00
	00 00		 movzx	 eax, BYTE PTR $LN80@CMD_SetUse[eax]
  001a0	ff 24 85 00 00
	00 00		 jmp	 DWORD PTR $LN81@CMD_SetUse[eax*4]
$LN31@CMD_SetUse:

; 391  : 	{
; 392  : 	case EXT_SELFCHGPARAMET:	// 시전자 자신에게 사용하는 종류
; 393  : 		idTarget = GetId();		// 타겟을 자기자신으로 설정.
; 394  : 		SetDestObj( idTarget, fArrivalRange, TRUE );		// 이동할 목표물을 idTarget으로 설정. << 이게 왜 필요하지? ㅡ.ㅡ?
; 395  : 		break;
; 396  : 	case EXT_MAGICATKSHOT:
; 397  : 	case EXT_MAGICATK:			// 원거리에서 마법으로 타겟을 공격
; 398  : 	case EXT_MAGICSHOT:
; 399  : 		if( idTarget == NULL_ID )	return 0;			// 타겟이 없거나 유효하지 않으면 실패.
; 400  : 		SetDestObj( idTarget, fArrivalRange, TRUE );		// 이동할 목표물을 idTarget으로 설정. 다가가는 범위는 fArrivalRange값으로..
; 401  : 		break;
; 402  : 	case EXT_ANOTHERWITH:		// 나 혹은 다른사람에게 시전
; 403  : 		if( idTarget == NULL_ID )	// 타겟이 잡혀있지 않으면

  001a7	83 ff ff	 cmp	 edi, -1
  001aa	75 09		 jne	 SHORT $LN36@CMD_SetUse
$LN33@CMD_SetUse:

; 404  : 			idTarget = GetId();		// 자신을 타겟으로 잡음
; 405  : 		SetDestObj( idTarget, fArrivalRange, TRUE );		// 이동할 목표물을 idTarget으로 설정.
; 406  : 		break;
; 407  : 	case EXT_AROUNDATK:			// 내 주위적들을 대상.
; 408  : 		idTarget = GetId();		// 타겟을 자기자신으로 설정.
; 409  : 		SetDestObj( idTarget, fArrivalRange, TRUE );		// 이동할 목표물을 idTarget으로 설정.
; 410  : 		break;
; 411  : 	case EXT_OBJCHGPARAMET:		// 타인에게 사용
; 412  : 	default:	// 그외는 모두 근접하자.
; 413  : 		if( idTarget == NULL_ID )	return 0;			// 타겟이 없거나 유효하지 않으면 실패.
; 414  : 		SetDestObj( idTarget, fArrivalRange, TRUE );		// 이동할 목표물을 idTarget으로 설정.
; 415  : 		break;
; 416  : 	}
; 417  : 	
; 418  : 	ClearActParam();

  001ac	8b 39		 mov	 edi, DWORD PTR [ecx]
  001ae	eb 05		 jmp	 SHORT $LN36@CMD_SetUse
$LN34@CMD_SetUse:
  001b0	83 ff ff	 cmp	 edi, -1
  001b3	74 66		 je	 SHORT $LN70@CMD_SetUse
$LN36@CMD_SetUse:
  001b5	f3 0f 10 45 f8	 movss	 xmm0, DWORD PTR tv158[ebp]
  001ba	6a 01		 push	 1
  001bc	51		 push	 ecx
  001bd	f3 0f 11 04 24	 movss	 DWORD PTR [esp], xmm0
  001c2	8b ce		 mov	 ecx, esi
  001c4	57		 push	 edi
  001c5	e8 00 00 00 00	 call	 ?SetDestObj@CMover@@QAEXKMH@Z ; CMover::SetDestObj
  001ca	8b ce		 mov	 ecx, esi
  001cc	e8 00 00 00 00	 call	 ?ClearActParam@CMover@@QAEXXZ ; CMover::ClearActParam

; 419  : 	SetCmd( OBJACT_USESKILL, nSkillIdx, idTarget, sutType );		// 사정거리가 되었을때 실행할 명령 셋팅.

  001d1	ff 75 10	 push	 DWORD PTR _sutType$[ebp]
  001d4	8b ce		 mov	 ecx, esi
  001d6	57		 push	 edi
  001d7	ff 75 0c	 push	 DWORD PTR _nSkillIdx$[ebp]
  001da	6a 05		 push	 5
  001dc	e8 00 00 00 00	 call	 ?SetCmd@CMover@@AAEXW4OBJACT@@HHH@Z ; CMover::SetCmd
  001e1	5f		 pop	 edi

; 420  : 	TRACE( "\n)CMD_SetUseSkill\n" );
; 421  : 
; 422  : 	return 1;
; 423  : }

  001e2	5e		 pop	 esi
  001e3	b8 01 00 00 00	 mov	 eax, 1
  001e8	5b		 pop	 ebx
  001e9	8b e5		 mov	 esp, ebp
  001eb	5d		 pop	 ebp
  001ec	c2 0c 00	 ret	 12			; 0000000cH
$LN51@CMD_SetUse:
; File C:\IAGOS\server\v18\Source\Source\_Common\Project.h

; 579  : 	LPCTSTR szErr = Error( _T( "%s min:%d, max:%d, index:%d" ), szMsg, nMin, nMax, nIndex ); 

  001ef	51		 push	 ecx
  001f0	50		 push	 eax
  001f1	6a 00		 push	 0
  001f3	68 00 00 00 00	 push	 OFFSET ??_C@_0BJ@GPNGCFMK@GetSkillProp?5range_error@
  001f8	68 00 00 00 00	 push	 OFFSET ??_C@_0BM@HMFGHCP@?$CFs?5min?3?$CFd?0?5max?3?$CFd?0?5index?3?$CFd@
  001fd	e8 00 00 00 00	 call	 ?Error@@YAPBDPBDZZ	; Error
  00202	83 c4 14	 add	 esp, 20			; 00000014H
$LN69@CMD_SetUse:
; File C:\IAGOS\server\v18\Source\Source\_Common\MoverMsg.cpp

; 192  : 		Error( "CMD_SetUseSkill : %s. skill(%d) property not found", m_szName, pSkill->dwSkill );

  00205	ff 37		 push	 DWORD PTR [edi]
  00207	8d 86 ec 14 00
	00		 lea	 eax, DWORD PTR [esi+5356]
  0020d	50		 push	 eax
  0020e	68 00 00 00 00	 push	 OFFSET ??_C@_0DD@GGNLMBCC@CMD_SetUseSkill?5?3?5?$CFs?4?5skill?$CI?$CFd?$CJ@

; 420  : 	TRACE( "\n)CMD_SetUseSkill\n" );
; 421  : 
; 422  : 	return 1;
; 423  : }

  00213	e8 00 00 00 00	 call	 ?Error@@YAPBDPBDZZ	; Error
  00218	83 c4 0c	 add	 esp, 12			; 0000000cH
$LN70@CMD_SetUse:
  0021b	5f		 pop	 edi
  0021c	5e		 pop	 esi
  0021d	33 c0		 xor	 eax, eax
  0021f	5b		 pop	 ebx
  00220	8b e5		 mov	 esp, ebp
  00222	5d		 pop	 ebp
  00223	c2 0c 00	 ret	 12			; 0000000cH
  00226	66 90		 npad	 2
$LN81@CMD_SetUse:
  00228	00 00 00 00	 DD	 $LN33@CMD_SetUse
  0022c	00 00 00 00	 DD	 $LN34@CMD_SetUse
  00230	00 00 00 00	 DD	 $LN31@CMD_SetUse
  00234	00 00 00 00	 DD	 $LN34@CMD_SetUse
$LN80@CMD_SetUse:
  00238	00		 DB	 0
  00239	01		 DB	 1
  0023a	01		 DB	 1
  0023b	01		 DB	 1
  0023c	03		 DB	 3
  0023d	03		 DB	 3
  0023e	03		 DB	 3
  0023f	03		 DB	 3
  00240	02		 DB	 2
  00241	03		 DB	 3
  00242	00		 DB	 0
  00243	03		 DB	 3
  00244	03		 DB	 3
  00245	01		 DB	 1
?CMD_SetUseSkill@CMover@@QAEHKHW4SKILLUSETYPE@@@Z ENDP	; CMover::CMD_SetUseSkill
_TEXT	ENDS
; Function compile flags: /Ogtp
; File C:\IAGOS\server\v18\Source\Source\_Common\MoverMsg.cpp
;	COMDAT ?GetAttackRange@CMover@@QAEMK@Z
_TEXT	SEGMENT
_fAttRange$1$ = -4					; size = 4
_dwAttackRange$ = 8					; size = 4
_fAttRange$ = 8						; size = 4
?GetAttackRange@CMover@@QAEMK@Z PROC			; CMover::GetAttackRange, COMDAT
; _this$ = ecx

; 141  : {

  00000	55		 push	 ebp
  00001	8b ec		 mov	 ebp, esp
  00003	51		 push	 ecx

; 142  : 	float fAttRange = 0.0f;
; 143  : 	switch( dwAttackRange )

  00004	8b 45 08	 mov	 eax, DWORD PTR _dwAttackRange$[ebp]
  00007	48		 dec	 eax
  00008	83 f8 06	 cmp	 eax, 6
  0000b	77 4d		 ja	 SHORT $LN11@GetAttackR
  0000d	ff 24 85 00 00
	00 00		 jmp	 DWORD PTR $LN14@GetAttackR[eax*4]
$LN4@GetAttackR:

; 144  : 	{
; 145  : 	case AR_SHORT:	fAttRange = 2.0f;	break;

  00014	f3 0f 10 05 00
	00 00 00	 movss	 xmm0, DWORD PTR __real@40000000
  0001c	eb 3f		 jmp	 SHORT $LN16@GetAttackR
$LN5@GetAttackR:

; 146  : 	case AR_LONG:	fAttRange = 3.0f;		break;

  0001e	f3 0f 10 05 00
	00 00 00	 movss	 xmm0, DWORD PTR __real@40400000
  00026	eb 35		 jmp	 SHORT $LN16@GetAttackR
$LN6@GetAttackR:

; 147  : 	case AR_FAR:	fAttRange = 4.0f;		break;

  00028	f3 0f 10 05 00
	00 00 00	 movss	 xmm0, DWORD PTR __real@40800000
  00030	eb 2b		 jmp	 SHORT $LN16@GetAttackR
$LN7@GetAttackR:

; 148  : 	case AR_RANGE:	fAttRange = 10.0f;		break;

  00032	f3 0f 10 05 00
	00 00 00	 movss	 xmm0, DWORD PTR __real@41200000
  0003a	eb 21		 jmp	 SHORT $LN16@GetAttackR
$LN8@GetAttackR:

; 149  : 	case AR_WAND:	fAttRange = 15.0f;		break;

  0003c	f3 0f 10 05 00
	00 00 00	 movss	 xmm0, DWORD PTR __real@41700000
  00044	eb 17		 jmp	 SHORT $LN16@GetAttackR
$LN9@GetAttackR:

; 150  : 	case AR_HRANGE: fAttRange = 6.0f;	break;

  00046	f3 0f 10 05 00
	00 00 00	 movss	 xmm0, DWORD PTR __real@40c00000
  0004e	eb 0d		 jmp	 SHORT $LN16@GetAttackR
$LN10@GetAttackR:

; 151  : #if __VER >= 10 // __LEGEND		//10차 전승 마스터스킬
; 152  : 	case AR_HWAND:	fAttRange = 18.0f;		break;

  00050	f3 0f 10 05 00
	00 00 00	 movss	 xmm0, DWORD PTR __real@41900000
  00058	eb 03		 jmp	 SHORT $LN16@GetAttackR
$LN11@GetAttackR:
  0005a	0f 57 c0	 xorps	 xmm0, xmm0
$LN16@GetAttackR:

; 153  : #endif //__LEGEND		//10차 전승 마스터스킬
; 154  : 	default:		fAttRange = 0.0f;		break;
; 155  : 	}
; 156  : #if __VER >= 10 // __LEGEND		//10차 전승 마스터스킬
; 157  : 	int  nTmpATR = GetParam( DST_HAWKEYE_RATE, 0 );

  0005d	6a 00		 push	 0
  0005f	6a 5a		 push	 90			; 0000005aH
  00061	f3 0f 11 45 08	 movss	 DWORD PTR _fAttRange$[ebp], xmm0
  00066	f3 0f 11 45 fc	 movss	 DWORD PTR _fAttRange$1$[ebp], xmm0
  0006b	e8 00 00 00 00	 call	 ?GetParam@CMover@@QAEHHH@Z ; CMover::GetParam

; 158  : 	if( nTmpATR > 0 )

  00070	85 c0		 test	 eax, eax
  00072	7e 1c		 jle	 SHORT $LN15@GetAttackR

; 159  : 	{
; 160  : 		nTmpATR += 100;

  00074	83 c0 64	 add	 eax, 100		; 00000064H
  00077	66 0f 6e c0	 movd	 xmm0, eax

; 161  : 		fAttRange =  fAttRange * nTmpATR / 100;

  0007b	0f 5b c0	 cvtdq2ps xmm0, xmm0
  0007e	f3 0f 59 45 fc	 mulss	 xmm0, DWORD PTR _fAttRange$1$[ebp]
  00083	f3 0f 5e 05 00
	00 00 00	 divss	 xmm0, DWORD PTR __real@42c80000
  0008b	f3 0f 11 45 08	 movss	 DWORD PTR _fAttRange$[ebp], xmm0
$LN15@GetAttackR:

; 162  : 	}
; 163  : #endif //__LEGEND		//10차 전승 마스터스킬
; 164  : 
; 165  : 	return fAttRange;
; 166  : }

  00090	d9 45 08	 fld	 DWORD PTR _fAttRange$[ebp]
  00093	8b e5		 mov	 esp, ebp
  00095	5d		 pop	 ebp
  00096	c2 04 00	 ret	 4
  00099	0f 1f 00	 npad	 3
$LN14@GetAttackR:
  0009c	00 00 00 00	 DD	 $LN4@GetAttackR
  000a0	00 00 00 00	 DD	 $LN5@GetAttackR
  000a4	00 00 00 00	 DD	 $LN6@GetAttackR
  000a8	00 00 00 00	 DD	 $LN7@GetAttackR
  000ac	00 00 00 00	 DD	 $LN8@GetAttackR
  000b0	00 00 00 00	 DD	 $LN9@GetAttackR
  000b4	00 00 00 00	 DD	 $LN10@GetAttackR
?GetAttackRange@CMover@@QAEMK@Z ENDP			; CMover::GetAttackRange
_TEXT	ENDS
; Function compile flags: /Ogtp
; File C:\IAGOS\server\v18\Source\Source\_Common\Mover.h
;	COMDAT ?ClearActParam@CMover@@QAEXXZ
_TEXT	SEGMENT
?ClearActParam@CMover@@QAEXXZ PROC			; CMover::ClearActParam, COMDAT
; _this$ = ecx

; 1815 : 	m_oaAct = OBJACT_NONE; 
; 1816 : 	memset( m_nAParam, 0xcd, sizeof(m_nAParam) );

  00000	0f 28 05 00 00
	00 00		 movaps	 xmm0, XMMWORD PTR __xmm@cdcdcdcdcdcdcdcdcdcdcdcdcdcdcdcd
  00007	c7 81 ac 11 00
	00 00 00 00 00	 mov	 DWORD PTR [ecx+4524], 0
  00011	0f 11 81 b0 11
	00 00		 movups	 XMMWORD PTR [ecx+4528], xmm0
  00018	c7 81 c0 11 00
	00 cd cd cd cd	 mov	 DWORD PTR [ecx+4544], -842150451 ; cdcdcdcdH

; 1817 : }

  00022	c3		 ret	 0
?ClearActParam@CMover@@QAEXXZ ENDP			; CMover::ClearActParam
_TEXT	ENDS
; Function compile flags: /Ogtp
; File C:\IAGOS\server\v18\Source\Source\_Common\Mover.h
;	COMDAT ?IsDie@CMover@@QAEHXZ
_TEXT	SEGMENT
?IsDie@CMover@@QAEHXZ PROC				; CMover::IsDie, COMDAT
; _this$ = ecx

; 1250 : 	BOOL			IsDie() { return m_pActMover->IsDie() || m_nHitPoint == 0; }

  00000	8b 81 38 02 00
	00		 mov	 eax, DWORD PTR [ecx+568]
  00006	f7 40 04 00 00
	00 08		 test	 DWORD PTR [eax+4], 134217728 ; 08000000H
  0000d	75 0c		 jne	 SHORT $LN3@IsDie
  0000f	83 b9 f8 05 00
	00 00		 cmp	 DWORD PTR [ecx+1528], 0
  00016	74 03		 je	 SHORT $LN3@IsDie
  00018	33 c0		 xor	 eax, eax
  0001a	c3		 ret	 0
$LN3@IsDie:
  0001b	b8 01 00 00 00	 mov	 eax, 1
  00020	c3		 ret	 0
?IsDie@CMover@@QAEHXZ ENDP				; CMover::IsDie
_TEXT	ENDS
; Function compile flags: /Ogtp
; File C:\IAGOS\server\v18\Source\Source\_Common\MoverMsg.cpp
; File C:\IAGOS\server\v18\Source\Source\_Common\Obj.h
; File C:\IAGOS\server\v18\Source\Source\_Common\MoverMsg.cpp
; File C:\IAGOS\server\v18\Source\Source\_Common\Obj.h
; File C:\IAGOS\server\v18\Source\Source\DX_SDK\d3dx9math.inl
; File C:\IAGOS\server\v18\Source\Source\_Common\Obj.h
; File C:\IAGOS\server\v18\Source\Source\DX_SDK\d3dx9math.inl
; File C:\IAGOS\server\v18\Source\Source\_Common\Mover.h
; File C:\IAGOS\server\v18\Source\Source\DX_SDK\d3dx9math.inl
; File C:\IAGOS\server\v18\Source\Source\_Common\Mover.h
; File C:\IAGOS\server\v18\Source\Source\_Common\MoverMsg.cpp
;	COMDAT ?SetDestPos@CMover@@QAEXABUD3DXVECTOR3@@_NH@Z
_TEXT	SEGMENT
$T1 = -12						; size = 12
_vDestPos$ = 8						; size = 4
_bForward$ = 12						; size = 1
_fTransfer$ = 16					; size = 4
?SetDestPos@CMover@@QAEXABUD3DXVECTOR3@@_NH@Z PROC	; CMover::SetDestPos, COMDAT
; _this$ = ecx

; 89   : {

  00000	55		 push	 ebp
  00001	8b ec		 mov	 ebp, esp
  00003	83 ec 0c	 sub	 esp, 12			; 0000000cH

; 90   : 	m_vDestPos	= vDestPos;

  00006	8b 45 08	 mov	 eax, DWORD PTR _vDestPos$[ebp]
  00009	0f 57 c9	 xorps	 xmm1, xmm1
  0000c	f3 0f 7e 00	 movq	 xmm0, QWORD PTR [eax]
  00010	66 0f d6 81 5c
	02 00 00	 movq	 QWORD PTR [ecx+604], xmm0
  00018	8b 40 08	 mov	 eax, DWORD PTR [eax+8]
; File C:\IAGOS\server\v18\Source\Source\_Common\Obj.h

; 215  : 	D3DXVECTOR3		GetPos()	{ return m_vPos; }

  0001b	f3 0f 7e 81 60
	01 00 00	 movq	 xmm0, QWORD PTR [ecx+352]
; File C:\IAGOS\server\v18\Source\Source\_Common\MoverMsg.cpp

; 90   : 	m_vDestPos	= vDestPos;

  00023	89 81 64 02 00
	00		 mov	 DWORD PTR [ecx+612], eax

; 91   : 	
; 92   : #ifdef __BS_ADJUST_SYNC
; 93   : 	m_bForward	= true;				//sun
; 94   : #else
; 95   : 	m_bForward	= bForward;

  00029	8a 45 0c	 mov	 al, BYTE PTR _bForward$[ebp]
  0002c	88 81 cc 02 00
	00		 mov	 BYTE PTR [ecx+716], al
; File C:\IAGOS\server\v18\Source\Source\_Common\Obj.h

; 215  : 	D3DXVECTOR3		GetPos()	{ return m_vPos; }

  00032	8b 81 68 01 00
	00		 mov	 eax, DWORD PTR [ecx+360]
  00038	66 0f d6 45 f4	 movq	 QWORD PTR $T1[ebp], xmm0
; File C:\IAGOS\server\v18\Source\Source\DX_SDK\d3dx9math.inl

; 383  :     return D3DXVECTOR3(x - v.x, y - v.y, z - v.z);

  0003d	f3 0f 10 45 f4	 movss	 xmm0, DWORD PTR $T1[ebp]
  00042	f3 0f 5c 81 5c
	02 00 00	 subss	 xmm0, DWORD PTR [ecx+604]
; File C:\IAGOS\server\v18\Source\Source\_Common\Obj.h

; 215  : 	D3DXVECTOR3		GetPos()	{ return m_vPos; }

  0004a	89 45 fc	 mov	 DWORD PTR $T1[ebp+8], eax
; File C:\IAGOS\server\v18\Source\Source\DX_SDK\d3dx9math.inl

; 383  :     return D3DXVECTOR3(x - v.x, y - v.y, z - v.z);

  0004d	f3 0f 10 55 fc	 movss	 xmm2, DWORD PTR $T1[ebp+8]
  00052	f3 0f 5c 91 64
	02 00 00	 subss	 xmm2, DWORD PTR [ecx+612]
; File C:\IAGOS\server\v18\Source\Source\_Common\Mover.h

; 1030 : 	void			ClearDestObj()     	{ m_idDest = NULL_ID; m_fArrivalRange = 0.0f; }

  0005a	c7 81 58 02 00
	00 ff ff ff ff	 mov	 DWORD PTR [ecx+600], -1
; File C:\IAGOS\server\v18\Source\Source\DX_SDK\d3dx9math.inl

; 302  :     z = fz;

  00064	0f 2f c1	 comiss	 xmm0, xmm1
; File C:\IAGOS\server\v18\Source\Source\_Common\Mover.h

; 1030 : 	void			ClearDestObj()     	{ m_idDest = NULL_ID; m_fArrivalRange = 0.0f; }

  00067	c7 81 54 02 00
	00 00 00 00 00	 mov	 DWORD PTR [ecx+596], 0
; File C:\IAGOS\server\v18\Source\Source\_Common\MoverMsg.cpp

; 100  : 	m_bPositiveX = ( vDir.x > 0.0f );

  00071	0f 97 c0	 seta	 al
  00074	0f 2f d1	 comiss	 xmm2, xmm1
  00077	88 81 cd 02 00
	00		 mov	 BYTE PTR [ecx+717], al

; 101  : 	m_bPositiveZ = ( vDir.z > 0.0f );

  0007d	0f 97 c0	 seta	 al
  00080	88 81 ce 02 00
	00		 mov	 BYTE PTR [ecx+718], al

; 102  : 	
; 103  : 	ClearDestObj();
; 104  : 
; 105  : #ifdef __CLIENT
; 106  : 	if( IsActiveMover() && fTransfer ) 
; 107  : 	{
; 108  : 		g_DPlay.PutPlayerDestPos( vDestPos, bForward );
; 109  : 	}
; 110  : #endif
; 111  : }

  00086	8b e5		 mov	 esp, ebp
  00088	5d		 pop	 ebp
  00089	c2 0c 00	 ret	 12			; 0000000cH
?SetDestPos@CMover@@QAEXABUD3DXVECTOR3@@_NH@Z ENDP	; CMover::SetDestPos
_TEXT	ENDS
; Function compile flags: /Ogtp
; File C:\IAGOS\server\v18\Source\Source\_Common\MoverMsg.cpp
;	COMDAT ?__empty_global_delete@@YAXPAXI@Z
_TEXT	SEGMENT
___formal$ = 8						; size = 4
___formal$ = 12						; size = 4
?__empty_global_delete@@YAXPAXI@Z PROC			; __empty_global_delete, COMDAT

  00000	c2 00 00	 ret	 0
?__empty_global_delete@@YAXPAXI@Z ENDP			; __empty_global_delete
_TEXT	ENDS
; Function compile flags: /Ogtp
; File C:\IAGOS\server\v18\Source\Source\_Common\MoverMsg.cpp
;	COMDAT ?__empty_global_delete@@YAXPAX@Z
_TEXT	SEGMENT
___formal$ = 8						; size = 4
?__empty_global_delete@@YAXPAX@Z PROC			; __empty_global_delete, COMDAT

  00000	c2 00 00	 ret	 0
?__empty_global_delete@@YAXPAX@Z ENDP			; __empty_global_delete
_TEXT	ENDS
END
