; Listing generated by Microsoft (R) Optimizing Compiler Version 19.44.35225.0 

	TITLE	C:\IAGOS\server\v18\Source\Output\WorldServer\Release\MoverAttack.obj
	.686P
	.XMM
	include listing.inc
	.model	flat

INCLUDELIB LIBCMT
INCLUDELIB OLDNAMES

CONST	SEGMENT
?piecewise_construct@std@@3Upiecewise_construct_t@1@B	ORG $+1 ; std::piecewise_construct
CONST	ENDS
PUBLIC	?__empty_global_delete@@YAXPAX@Z		; __empty_global_delete
PUBLIC	?__empty_global_delete@@YAXPAXI@Z		; __empty_global_delete
PUBLIC	??0exception@std@@QAE@ABV01@@Z			; std::exception::exception
PUBLIC	??1exception@std@@UAE@XZ			; std::exception::~exception
PUBLIC	?what@exception@std@@UBEPBDXZ			; std::exception::what
PUBLIC	??_Gexception@std@@UAEPAXI@Z			; std::exception::`scalar deleting destructor'
PUBLIC	??0bad_alloc@std@@QAE@ABV01@@Z			; std::bad_alloc::bad_alloc
PUBLIC	??_Gbad_alloc@std@@UAEPAXI@Z			; std::bad_alloc::`scalar deleting destructor'
PUBLIC	??0bad_array_new_length@std@@QAE@XZ		; std::bad_array_new_length::bad_array_new_length
PUBLIC	??1bad_array_new_length@std@@UAE@XZ		; std::bad_array_new_length::~bad_array_new_length
PUBLIC	??0bad_array_new_length@std@@QAE@ABV01@@Z	; std::bad_array_new_length::bad_array_new_length
PUBLIC	??_Gbad_array_new_length@std@@UAEPAXI@Z		; std::bad_array_new_length::`scalar deleting destructor'
PUBLIC	?_Throw_bad_array_new_length@std@@YAXXZ		; std::_Throw_bad_array_new_length
PUBLIC	?_Throw_tree_length_error@std@@YAXXZ		; std::_Throw_tree_length_error
PUBLIC	??0D3DXVECTOR3@@QAE@XZ				; D3DXVECTOR3::D3DXVECTOR3
PUBLIC	?GetItemProp@CProject@@QAEPAUItemProp@@H@Z	; CProject::GetItemProp
PUBLIC	?GetPropA@CItemElem@@QAEPAUItemProp@@XZ		; CItemElem::GetPropA
PUBLIC	?erase@?$_Tree@V?$_Tmap_traits@KV?$queue@USFXHIT_INFO@@V?$deque@USFXHIT_INFO@@V?$allocator@USFXHIT_INFO@@@std@@@std@@@std@@U?$less@K@2@V?$allocator@U?$pair@$$CBKV?$queue@USFXHIT_INFO@@V?$deque@USFXHIT_INFO@@V?$allocator@USFXHIT_INFO@@@std@@@std@@@std@@@std@@@2@$0A@@std@@@std@@QAEIABK@Z ; std::_Tree<std::_Tmap_traits<unsigned long,std::queue<SFXHIT_INFO,std::deque<SFXHIT_INFO,std::allocator<SFXHIT_INFO> > >,std::less<unsigned long>,std::allocator<std::pair<unsigned long const ,std::queue<SFXHIT_INFO,std::deque<SFXHIT_INFO,std::allocator<SFXHIT_INFO> > > > >,0> >::erase
PUBLIC	?_Lrotate@?$_Tree_val@U?$_Tree_simple_types@U?$pair@$$CBKV?$queue@USFXHIT_INFO@@V?$deque@USFXHIT_INFO@@V?$allocator@USFXHIT_INFO@@@std@@@std@@@std@@@std@@@std@@@std@@QAEXPAU?$_Tree_node@U?$pair@$$CBKV?$queue@USFXHIT_INFO@@V?$deque@USFXHIT_INFO@@V?$allocator@USFXHIT_INFO@@@std@@@std@@@std@@@std@@PAX@2@@Z ; std::_Tree_val<std::_Tree_simple_types<std::pair<unsigned long const ,std::queue<SFXHIT_INFO,std::deque<SFXHIT_INFO,std::allocator<SFXHIT_INFO> > > > > >::_Lrotate
PUBLIC	?_Rrotate@?$_Tree_val@U?$_Tree_simple_types@U?$pair@$$CBKV?$queue@USFXHIT_INFO@@V?$deque@USFXHIT_INFO@@V?$allocator@USFXHIT_INFO@@@std@@@std@@@std@@@std@@@std@@@std@@QAEXPAU?$_Tree_node@U?$pair@$$CBKV?$queue@USFXHIT_INFO@@V?$deque@USFXHIT_INFO@@V?$allocator@USFXHIT_INFO@@@std@@@std@@@std@@@std@@PAX@2@@Z ; std::_Tree_val<std::_Tree_simple_types<std::pair<unsigned long const ,std::queue<SFXHIT_INFO,std::deque<SFXHIT_INFO,std::allocator<SFXHIT_INFO> > > > > >::_Rrotate
PUBLIC	?_Extract@?$_Tree_val@U?$_Tree_simple_types@U?$pair@$$CBKV?$queue@USFXHIT_INFO@@V?$deque@USFXHIT_INFO@@V?$allocator@USFXHIT_INFO@@@std@@@std@@@std@@@std@@@std@@@std@@QAEPAU?$_Tree_node@U?$pair@$$CBKV?$queue@USFXHIT_INFO@@V?$deque@USFXHIT_INFO@@V?$allocator@USFXHIT_INFO@@@std@@@std@@@std@@@std@@PAX@2@V?$_Tree_unchecked_const_iterator@V?$_Tree_val@U?$_Tree_simple_types@U?$pair@$$CBKV?$queue@USFXHIT_INFO@@V?$deque@USFXHIT_INFO@@V?$allocator@USFXHIT_INFO@@@std@@@std@@@std@@@std@@@std@@@std@@U_Iterator_base0@2@@2@@Z ; std::_Tree_val<std::_Tree_simple_types<std::pair<unsigned long const ,std::queue<SFXHIT_INFO,std::deque<SFXHIT_INFO,std::allocator<SFXHIT_INFO> > > > > >::_Extract
PUBLIC	?_Insert_node@?$_Tree_val@U?$_Tree_simple_types@U?$pair@$$CBKV?$queue@USFXHIT_INFO@@V?$deque@USFXHIT_INFO@@V?$allocator@USFXHIT_INFO@@@std@@@std@@@std@@@std@@@std@@@std@@QAEPAU?$_Tree_node@U?$pair@$$CBKV?$queue@USFXHIT_INFO@@V?$deque@USFXHIT_INFO@@V?$allocator@USFXHIT_INFO@@@std@@@std@@@std@@@std@@PAX@2@U?$_Tree_id@PAU?$_Tree_node@U?$pair@$$CBKV?$queue@USFXHIT_INFO@@V?$deque@USFXHIT_INFO@@V?$allocator@USFXHIT_INFO@@@std@@@std@@@std@@@std@@PAX@std@@@2@QAU32@@Z ; std::_Tree_val<std::_Tree_simple_types<std::pair<unsigned long const ,std::queue<SFXHIT_INFO,std::deque<SFXHIT_INFO,std::allocator<SFXHIT_INFO> > > > > >::_Insert_node
PUBLIC	?erase@?$_Tree@V?$_Tmap_traits@KV?$queue@USFXHIT_COUNT@@V?$deque@USFXHIT_COUNT@@V?$allocator@USFXHIT_COUNT@@@std@@@std@@@std@@U?$less@K@2@V?$allocator@U?$pair@$$CBKV?$queue@USFXHIT_COUNT@@V?$deque@USFXHIT_COUNT@@V?$allocator@USFXHIT_COUNT@@@std@@@std@@@std@@@std@@@2@$0A@@std@@@std@@QAEIABK@Z ; std::_Tree<std::_Tmap_traits<unsigned long,std::queue<SFXHIT_COUNT,std::deque<SFXHIT_COUNT,std::allocator<SFXHIT_COUNT> > >,std::less<unsigned long>,std::allocator<std::pair<unsigned long const ,std::queue<SFXHIT_COUNT,std::deque<SFXHIT_COUNT,std::allocator<SFXHIT_COUNT> > > > >,0> >::erase
PUBLIC	?_Lrotate@?$_Tree_val@U?$_Tree_simple_types@U?$pair@$$CBKV?$queue@USFXHIT_COUNT@@V?$deque@USFXHIT_COUNT@@V?$allocator@USFXHIT_COUNT@@@std@@@std@@@std@@@std@@@std@@@std@@QAEXPAU?$_Tree_node@U?$pair@$$CBKV?$queue@USFXHIT_COUNT@@V?$deque@USFXHIT_COUNT@@V?$allocator@USFXHIT_COUNT@@@std@@@std@@@std@@@std@@PAX@2@@Z ; std::_Tree_val<std::_Tree_simple_types<std::pair<unsigned long const ,std::queue<SFXHIT_COUNT,std::deque<SFXHIT_COUNT,std::allocator<SFXHIT_COUNT> > > > > >::_Lrotate
PUBLIC	?_Rrotate@?$_Tree_val@U?$_Tree_simple_types@U?$pair@$$CBKV?$queue@USFXHIT_COUNT@@V?$deque@USFXHIT_COUNT@@V?$allocator@USFXHIT_COUNT@@@std@@@std@@@std@@@std@@@std@@@std@@QAEXPAU?$_Tree_node@U?$pair@$$CBKV?$queue@USFXHIT_COUNT@@V?$deque@USFXHIT_COUNT@@V?$allocator@USFXHIT_COUNT@@@std@@@std@@@std@@@std@@PAX@2@@Z ; std::_Tree_val<std::_Tree_simple_types<std::pair<unsigned long const ,std::queue<SFXHIT_COUNT,std::deque<SFXHIT_COUNT,std::allocator<SFXHIT_COUNT> > > > > >::_Rrotate
PUBLIC	?_Extract@?$_Tree_val@U?$_Tree_simple_types@U?$pair@$$CBKV?$queue@USFXHIT_COUNT@@V?$deque@USFXHIT_COUNT@@V?$allocator@USFXHIT_COUNT@@@std@@@std@@@std@@@std@@@std@@@std@@QAEPAU?$_Tree_node@U?$pair@$$CBKV?$queue@USFXHIT_COUNT@@V?$deque@USFXHIT_COUNT@@V?$allocator@USFXHIT_COUNT@@@std@@@std@@@std@@@std@@PAX@2@V?$_Tree_unchecked_const_iterator@V?$_Tree_val@U?$_Tree_simple_types@U?$pair@$$CBKV?$queue@USFXHIT_COUNT@@V?$deque@USFXHIT_COUNT@@V?$allocator@USFXHIT_COUNT@@@std@@@std@@@std@@@std@@@std@@@std@@U_Iterator_base0@2@@2@@Z ; std::_Tree_val<std::_Tree_simple_types<std::pair<unsigned long const ,std::queue<SFXHIT_COUNT,std::deque<SFXHIT_COUNT,std::allocator<SFXHIT_COUNT> > > > > >::_Extract
PUBLIC	?_Insert_node@?$_Tree_val@U?$_Tree_simple_types@U?$pair@$$CBKV?$queue@USFXHIT_COUNT@@V?$deque@USFXHIT_COUNT@@V?$allocator@USFXHIT_COUNT@@@std@@@std@@@std@@@std@@@std@@@std@@QAEPAU?$_Tree_node@U?$pair@$$CBKV?$queue@USFXHIT_COUNT@@V?$deque@USFXHIT_COUNT@@V?$allocator@USFXHIT_COUNT@@@std@@@std@@@std@@@std@@PAX@2@U?$_Tree_id@PAU?$_Tree_node@U?$pair@$$CBKV?$queue@USFXHIT_COUNT@@V?$deque@USFXHIT_COUNT@@V?$allocator@USFXHIT_COUNT@@@std@@@std@@@std@@@std@@PAX@std@@@2@QAU32@@Z ; std::_Tree_val<std::_Tree_simple_types<std::pair<unsigned long const ,std::queue<SFXHIT_COUNT,std::deque<SFXHIT_COUNT,std::allocator<SFXHIT_COUNT> > > > > >::_Insert_node
PUBLIC	?GetPropA@CMover@@QAEPAUMoverProp@@XZ		; CMover::GetPropA
PUBLIC	?SetDamagedMotion@CMover@@QAEXPAV1@K@Z		; CMover::SetDamagedMotion
PUBLIC	?IsPVPTarget@CMover@@QAEHPAV1@@Z		; CMover::IsPVPTarget
PUBLIC	?IsWarTarget@CMover@@QAEHPAV1@@Z		; CMover::IsWarTarget
PUBLIC	?IsSchoolTarget@CMover@@QAEHPAV1@@Z		; CMover::IsSchoolTarget
PUBLIC	?GetHitType@CMover@@QAE?AW4HITTYPE@@PAV1@HH@Z	; CMover::GetHitType
PUBLIC	?IsArenaTarget@CMover@@QAEHPAV1@@Z		; CMover::IsArenaTarget
PUBLIC	?GetHitType2@CMover@@QAE?AW4HITTYPE@@PAV1@HH@Z	; CMover::GetHitType2
PUBLIC	?ReSetDuelTime@CMover@@QAEXPAV1@0@Z		; CMover::ReSetDuelTime
PUBLIC	?GetHR@CMover@@QAEHXZ				; CMover::GetHR
PUBLIC	?GetAttackSpeed@CMover@@QAEMXZ			; CMover::GetAttackSpeed
PUBLIC	?GetCastingAniSpeed@CMover@@QAEMXZ		; CMover::GetCastingAniSpeed
PUBLIC	?GetCastingTime@CMover@@QAEHH@Z			; CMover::GetCastingTime
PUBLIC	?GetDamageMultiplier@CMover@@QAEMPAUATTACK_INFO@@@Z ; CMover::GetDamageMultiplier
PUBLIC	?PostCalcMagicSkill@CMover@@QAEHHPAUATTACK_INFO@@@Z ; CMover::PostCalcMagicSkill
PUBLIC	?PostCalcGeneric@CMover@@QAEHHPAUATTACK_INFO@@@Z ; CMover::PostCalcGeneric
PUBLIC	?GetMagicSkillFactor@CMover@@QAEMPAV1@W4ePropType@SAI79@@@Z ; CMover::GetMagicSkillFactor
PUBLIC	?GetATKMultiplier@CMover@@QAEMPAV1@K@Z		; CMover::GetATKMultiplier
PUBLIC	?GetDEFMultiplier@CMover@@QAEMPAUATTACK_INFO@@@Z ; CMover::GetDEFMultiplier
PUBLIC	?GetBlockFactor@CMover@@QAEMPAV1@PAUATTACK_INFO@@@Z ; CMover::GetBlockFactor
PUBLIC	?GetWeaponATK@CMover@@QAEHK@Z			; CMover::GetWeaponATK
PUBLIC	?GetPlusWeaponATK@CMover@@QAEHK@Z		; CMover::GetPlusWeaponATK
PUBLIC	?GetWeaponPlusDamage@CMover@@QAEHHH@Z		; CMover::GetWeaponPlusDamage
PUBLIC	?GetDamagePropertyFactor@CMover@@QAEXPAV1@PAH1H@Z ; CMover::GetDamagePropertyFactor
PUBLIC	?GetPropATKPlus@CMover@@QAEHH@Z			; CMover::GetPropATKPlus
PUBLIC	?GetPropDEFPlus@CMover@@QAEHXZ			; CMover::GetPropDEFPlus
PUBLIC	?IsBlocking@CMover@@QAEHPAV1@@Z			; CMover::IsBlocking
PUBLIC	?CanFlyByAttack@CMover@@QAEHXZ			; CMover::CanFlyByAttack
PUBLIC	?IsCriticalAttack@CMover@@QAEHPAV1@K@Z		; CMover::IsCriticalAttack
PUBLIC	?GetCriticalProb@CMover@@QAEHXZ			; CMover::GetCriticalProb
PUBLIC	?GetReqMp@CMover@@QAEHH@Z			; CMover::GetReqMp
PUBLIC	?GetReqFp@CMover@@QAEHH@Z			; CMover::GetReqFp
PUBLIC	?GetAttackResult@CMover@@QAEHPAV1@K@Z		; CMover::GetAttackResult
PUBLIC	?GetHitPower@CMover@@QAEHPAUATTACK_INFO@@@Z	; CMover::GetHitPower
PUBLIC	?GetDefenseByItem@CMover@@QAEHH@Z		; CMover::GetDefenseByItem
PUBLIC	?GetShowDefense@CMover@@QAEHH@Z			; CMover::GetShowDefense
PUBLIC	?GetMeleeSkillPower@CMover@@QAEHPAUATTACK_INFO@@@Z ; CMover::GetMeleeSkillPower
PUBLIC	?GetMagicHitPower@CMover@@QAEHH@Z		; CMover::GetMagicHitPower
PUBLIC	?GetHitMinMax@CMover@@QAEXPAH0PAUATTACK_INFO@@@Z ; CMover::GetHitMinMax
PUBLIC	?SetPKPink@CMover@@QAEXK@Z			; CMover::SetPKPink
PUBLIC	?GetResist@CMover@@QAEMW4ePropType@SAI79@@@Z	; CMover::GetResist
PUBLIC	?GetItemATKPower@CMover@@QAEXPAH0PAUItemProp@@PAVCItemElem@@@Z ; CMover::GetItemATKPower
PUBLIC	?GetItemMultiplier@CMover@@QAEMPAVCItemElem@@@Z	; CMover::GetItemMultiplier
PUBLIC	?ChangeExpRatio@CMover@@QAEXPAV1@0@Z		; CMover::ChangeExpRatio
PUBLIC	?OnAttacked@CMover@@QAEXPAV1@HHH@Z		; CMover::OnAttacked
PUBLIC	?GetJobPropFactor@CMover@@QAEMW4JOB_PROP_TYPE@@@Z ; CMover::GetJobPropFactor
PUBLIC	?CalcDefense@CMover@@QAEHPAUATTACK_INFO@@H@Z	; CMover::CalcDefense
PUBLIC	?CalcDefenseCore@CMover@@QAEHPAV1@KH@Z		; CMover::CalcDefenseCore
PUBLIC	?CalcDefensePlayer@CMover@@QAEHPAV1@K@Z		; CMover::CalcDefensePlayer
PUBLIC	?CalcDefenseNPC@CMover@@QAEHPAV1@K@Z		; CMover::CalcDefenseNPC
PUBLIC	?OnAttackSFX@CMover@@QAEXKHKHMMKH@Z		; CMover::OnAttackSFX
PUBLIC	?IsGuildCombatTarget@CMover@@QAEHPAV1@@Z	; CMover::IsGuildCombatTarget
PUBLIC	?ApplyDPC@CMover@@QAEHHPAUATTACK_INFO@@@Z	; CMover::ApplyDPC
PUBLIC	?CalcLinkAttackDamage@CMover@@QAEHH@Z		; CMover::CalcLinkAttackDamage
PUBLIC	?CalcPropDamage@CMover@@QAEHPAV1@K@Z		; CMover::CalcPropDamage
PUBLIC	?GetMagicSkillPower@CMover@@QAEHPAUATTACK_INFO@@@Z ; CMover::GetMagicSkillPower
PUBLIC	?RemoveSFX@CMover@@QAEXKHHK@Z			; CMover::RemoveSFX
PUBLIC	?GetSFXCount@CMover@@QAEHK@Z			; CMover::GetSFXCount
PUBLIC	?IncSFXCount@CMover@@QAEXKK@Z			; CMover::IncSFXCount
PUBLIC	?AddSFXInfo@CMover@@QAEXKAAUSFXHIT_INFO@@@Z	; CMover::AddSFXInfo
PUBLIC	?ClearSFX@CMover@@QAEXK@Z			; CMover::ClearSFX
PUBLIC	?GetWeaponPlusDamage@@YAHHHPAUItemProp@@H@Z	; GetWeaponPlusDamage
PUBLIC	?AttackBySFX@@YAHPAVCMover@@AAUSFXHIT_INFO@@@Z	; AttackBySFX
PUBLIC	??$_Allocate_manually_vector_aligned@U_Default_allocate_traits@std@@@std@@YAPAXI@Z ; std::_Allocate_manually_vector_aligned<std::_Default_allocate_traits>
PUBLIC	?GetAttackSpeedPlusValue@@YAMH@Z		; GetAttackSpeedPlusValue
PUBLIC	?GetChargeMultiplier@@YAMH@Z			; GetChargeMultiplier
PUBLIC	?GetWandATKMultiplier@@YAMH@Z			; GetWandATKMultiplier
PUBLIC	??E?$_Tree_unchecked_const_iterator@V?$_Tree_val@U?$_Tree_simple_types@U?$pair@$$CBKV?$queue@USFXHIT_COUNT@@V?$deque@USFXHIT_COUNT@@V?$allocator@USFXHIT_COUNT@@@std@@@std@@@std@@@std@@@std@@@std@@U_Iterator_base0@2@@std@@QAEAAV01@XZ ; std::_Tree_unchecked_const_iterator<std::_Tree_val<std::_Tree_simple_types<std::pair<unsigned long const ,std::queue<SFXHIT_COUNT,std::deque<SFXHIT_COUNT,std::allocator<SFXHIT_COUNT> > > > > >,std::_Iterator_base0>::operator++
PUBLIC	?deallocate@?$allocator@PAUSFXHIT_COUNT@@@std@@QAEXQAPAUSFXHIT_COUNT@@I@Z ; std::allocator<SFXHIT_COUNT *>::deallocate
PUBLIC	??0?$deque@USFXHIT_COUNT@@V?$allocator@USFXHIT_COUNT@@@std@@@std@@QAE@ABV01@@Z ; std::deque<SFXHIT_COUNT,std::allocator<SFXHIT_COUNT> >::deque<SFXHIT_COUNT,std::allocator<SFXHIT_COUNT> >
PUBLIC	?_Xlen@?$deque@USFXHIT_COUNT@@V?$allocator@USFXHIT_COUNT@@@std@@@std@@CAXXZ ; std::deque<SFXHIT_COUNT,std::allocator<SFXHIT_COUNT> >::_Xlen
PUBLIC	?_Growmap@?$deque@USFXHIT_COUNT@@V?$allocator@USFXHIT_COUNT@@@std@@@std@@AAEXI@Z ; std::deque<SFXHIT_COUNT,std::allocator<SFXHIT_COUNT> >::_Growmap
PUBLIC	?_Tidy@?$deque@USFXHIT_COUNT@@V?$allocator@USFXHIT_COUNT@@@std@@@std@@AAEXXZ ; std::deque<SFXHIT_COUNT,std::allocator<SFXHIT_COUNT> >::_Tidy
PUBLIC	??1?$queue@USFXHIT_COUNT@@V?$deque@USFXHIT_COUNT@@V?$allocator@USFXHIT_COUNT@@@std@@@std@@@std@@QAE@XZ ; std::queue<SFXHIT_COUNT,std::deque<SFXHIT_COUNT,std::allocator<SFXHIT_COUNT> > >::~queue<SFXHIT_COUNT,std::deque<SFXHIT_COUNT,std::allocator<SFXHIT_COUNT> > >
PUBLIC	??1?$pair@$$CBKV?$queue@USFXHIT_COUNT@@V?$deque@USFXHIT_COUNT@@V?$allocator@USFXHIT_COUNT@@@std@@@std@@@std@@@std@@QAE@XZ ; std::pair<unsigned long const ,std::queue<SFXHIT_COUNT,std::deque<SFXHIT_COUNT,std::allocator<SFXHIT_COUNT> > > >::~pair<unsigned long const ,std::queue<SFXHIT_COUNT,std::deque<SFXHIT_COUNT,std::allocator<SFXHIT_COUNT> > > >
PUBLIC	??E?$_Tree_unchecked_const_iterator@V?$_Tree_val@U?$_Tree_simple_types@U?$pair@$$CBKV?$queue@USFXHIT_INFO@@V?$deque@USFXHIT_INFO@@V?$allocator@USFXHIT_INFO@@@std@@@std@@@std@@@std@@@std@@@std@@U_Iterator_base0@2@@std@@QAEAAV01@XZ ; std::_Tree_unchecked_const_iterator<std::_Tree_val<std::_Tree_simple_types<std::pair<unsigned long const ,std::queue<SFXHIT_INFO,std::deque<SFXHIT_INFO,std::allocator<SFXHIT_INFO> > > > > >,std::_Iterator_base0>::operator++
PUBLIC	?deallocate@?$allocator@PAUSFXHIT_INFO@@@std@@QAEXQAPAUSFXHIT_INFO@@I@Z ; std::allocator<SFXHIT_INFO *>::deallocate
PUBLIC	?_Xlen@?$deque@USFXHIT_INFO@@V?$allocator@USFXHIT_INFO@@@std@@@std@@CAXXZ ; std::deque<SFXHIT_INFO,std::allocator<SFXHIT_INFO> >::_Xlen
PUBLIC	?_Growmap@?$deque@USFXHIT_INFO@@V?$allocator@USFXHIT_INFO@@@std@@@std@@AAEXI@Z ; std::deque<SFXHIT_INFO,std::allocator<SFXHIT_INFO> >::_Growmap
PUBLIC	?_Tidy@?$deque@USFXHIT_INFO@@V?$allocator@USFXHIT_INFO@@@std@@@std@@AAEXXZ ; std::deque<SFXHIT_INFO,std::allocator<SFXHIT_INFO> >::_Tidy
PUBLIC	??1?$queue@USFXHIT_INFO@@V?$deque@USFXHIT_INFO@@V?$allocator@USFXHIT_INFO@@@std@@@std@@@std@@QAE@XZ ; std::queue<SFXHIT_INFO,std::deque<SFXHIT_INFO,std::allocator<SFXHIT_INFO> > >::~queue<SFXHIT_INFO,std::deque<SFXHIT_INFO,std::allocator<SFXHIT_INFO> > >
PUBLIC	??1?$pair@$$CBKV?$queue@USFXHIT_INFO@@V?$deque@USFXHIT_INFO@@V?$allocator@USFXHIT_INFO@@@std@@@std@@@std@@@std@@QAE@XZ ; std::pair<unsigned long const ,std::queue<SFXHIT_INFO,std::deque<SFXHIT_INFO,std::allocator<SFXHIT_INFO> > > >::~pair<unsigned long const ,std::queue<SFXHIT_INFO,std::deque<SFXHIT_INFO,std::allocator<SFXHIT_INFO> > > >
PUBLIC	??$_Find_lower_bound@K@?$_Tree@V?$_Tmap_traits@KV?$queue@USFXHIT_COUNT@@V?$deque@USFXHIT_COUNT@@V?$allocator@USFXHIT_COUNT@@@std@@@std@@@std@@U?$less@K@2@V?$allocator@U?$pair@$$CBKV?$queue@USFXHIT_COUNT@@V?$deque@USFXHIT_COUNT@@V?$allocator@USFXHIT_COUNT@@@std@@@std@@@std@@@std@@@2@$0A@@std@@@std@@IBE?AU?$_Tree_find_result@PAU?$_Tree_node@U?$pair@$$CBKV?$queue@USFXHIT_COUNT@@V?$deque@USFXHIT_COUNT@@V?$allocator@USFXHIT_COUNT@@@std@@@std@@@std@@@std@@PAX@std@@@1@ABK@Z ; std::_Tree<std::_Tmap_traits<unsigned long,std::queue<SFXHIT_COUNT,std::deque<SFXHIT_COUNT,std::allocator<SFXHIT_COUNT> > >,std::less<unsigned long>,std::allocator<std::pair<unsigned long const ,std::queue<SFXHIT_COUNT,std::deque<SFXHIT_COUNT,std::allocator<SFXHIT_COUNT> > > > >,0> >::_Find_lower_bound<unsigned long>
PUBLIC	??1?$_Alloc_construct_ptr@V?$allocator@U?$_Tree_node@U?$pair@$$CBKV?$queue@USFXHIT_COUNT@@V?$deque@USFXHIT_COUNT@@V?$allocator@USFXHIT_COUNT@@@std@@@std@@@std@@@std@@PAX@std@@@std@@@std@@QAE@XZ ; std::_Alloc_construct_ptr<std::allocator<std::_Tree_node<std::pair<unsigned long const ,std::queue<SFXHIT_COUNT,std::deque<SFXHIT_COUNT,std::allocator<SFXHIT_COUNT> > > >,void *> > >::~_Alloc_construct_ptr<std::allocator<std::_Tree_node<std::pair<unsigned long const ,std::queue<SFXHIT_COUNT,std::deque<SFXHIT_COUNT,std::allocator<SFXHIT_COUNT> > > >,void *> > >
PUBLIC	??1?$_Tree_temp_node_alloc@V?$allocator@U?$_Tree_node@U?$pair@$$CBKV?$queue@USFXHIT_COUNT@@V?$deque@USFXHIT_COUNT@@V?$allocator@USFXHIT_COUNT@@@std@@@std@@@std@@@std@@PAX@std@@@std@@@std@@QAE@XZ ; std::_Tree_temp_node_alloc<std::allocator<std::_Tree_node<std::pair<unsigned long const ,std::queue<SFXHIT_COUNT,std::deque<SFXHIT_COUNT,std::allocator<SFXHIT_COUNT> > > >,void *> > >::~_Tree_temp_node_alloc<std::allocator<std::_Tree_node<std::pair<unsigned long const ,std::queue<SFXHIT_COUNT,std::deque<SFXHIT_COUNT,std::allocator<SFXHIT_COUNT> > > >,void *> > >
PUBLIC	??$_Find_lower_bound@K@?$_Tree@V?$_Tmap_traits@KV?$queue@USFXHIT_INFO@@V?$deque@USFXHIT_INFO@@V?$allocator@USFXHIT_INFO@@@std@@@std@@@std@@U?$less@K@2@V?$allocator@U?$pair@$$CBKV?$queue@USFXHIT_INFO@@V?$deque@USFXHIT_INFO@@V?$allocator@USFXHIT_INFO@@@std@@@std@@@std@@@std@@@2@$0A@@std@@@std@@IBE?AU?$_Tree_find_result@PAU?$_Tree_node@U?$pair@$$CBKV?$queue@USFXHIT_INFO@@V?$deque@USFXHIT_INFO@@V?$allocator@USFXHIT_INFO@@@std@@@std@@@std@@@std@@PAX@std@@@1@ABK@Z ; std::_Tree<std::_Tmap_traits<unsigned long,std::queue<SFXHIT_INFO,std::deque<SFXHIT_INFO,std::allocator<SFXHIT_INFO> > >,std::less<unsigned long>,std::allocator<std::pair<unsigned long const ,std::queue<SFXHIT_INFO,std::deque<SFXHIT_INFO,std::allocator<SFXHIT_INFO> > > > >,0> >::_Find_lower_bound<unsigned long>
PUBLIC	??1?$_Alloc_construct_ptr@V?$allocator@U?$_Tree_node@U?$pair@$$CBKV?$queue@USFXHIT_INFO@@V?$deque@USFXHIT_INFO@@V?$allocator@USFXHIT_INFO@@@std@@@std@@@std@@@std@@PAX@std@@@std@@@std@@QAE@XZ ; std::_Alloc_construct_ptr<std::allocator<std::_Tree_node<std::pair<unsigned long const ,std::queue<SFXHIT_INFO,std::deque<SFXHIT_INFO,std::allocator<SFXHIT_INFO> > > >,void *> > >::~_Alloc_construct_ptr<std::allocator<std::_Tree_node<std::pair<unsigned long const ,std::queue<SFXHIT_INFO,std::deque<SFXHIT_INFO,std::allocator<SFXHIT_INFO> > > >,void *> > >
PUBLIC	??1?$_Tree_temp_node_alloc@V?$allocator@U?$_Tree_node@U?$pair@$$CBKV?$queue@USFXHIT_INFO@@V?$deque@USFXHIT_INFO@@V?$allocator@USFXHIT_INFO@@@std@@@std@@@std@@@std@@PAX@std@@@std@@@std@@QAE@XZ ; std::_Tree_temp_node_alloc<std::allocator<std::_Tree_node<std::pair<unsigned long const ,std::queue<SFXHIT_INFO,std::deque<SFXHIT_INFO,std::allocator<SFXHIT_INFO> > > >,void *> > >::~_Tree_temp_node_alloc<std::allocator<std::_Tree_node<std::pair<unsigned long const ,std::queue<SFXHIT_INFO,std::deque<SFXHIT_INFO,std::allocator<SFXHIT_INFO> > > >,void *> > >
PUBLIC	??$_Emplace_back_internal@ABUSFXHIT_COUNT@@@?$deque@USFXHIT_COUNT@@V?$allocator@USFXHIT_COUNT@@@std@@@std@@AAEXABUSFXHIT_COUNT@@@Z ; std::deque<SFXHIT_COUNT,std::allocator<SFXHIT_COUNT> >::_Emplace_back_internal<SFXHIT_COUNT const &>
PUBLIC	??$_Emplace_back_internal@ABUSFXHIT_INFO@@@?$deque@USFXHIT_INFO@@V?$allocator@USFXHIT_INFO@@@std@@@std@@AAEXABUSFXHIT_INFO@@@Z ; std::deque<SFXHIT_INFO,std::allocator<SFXHIT_INFO> >::_Emplace_back_internal<SFXHIT_INFO const &>
PUBLIC	??1?$_Container_proxy_ptr12@V?$allocator@U_Container_proxy@std@@@std@@@std@@QAE@XZ ; std::_Container_proxy_ptr12<std::allocator<std::_Container_proxy> >::~_Container_proxy_ptr12<std::allocator<std::_Container_proxy> >
PUBLIC	??1?$_Tidy_guard@V?$deque@USFXHIT_COUNT@@V?$allocator@USFXHIT_COUNT@@@std@@@std@@@std@@QAE@XZ ; std::_Tidy_guard<std::deque<SFXHIT_COUNT,std::allocator<SFXHIT_COUNT> > >::~_Tidy_guard<std::deque<SFXHIT_COUNT,std::allocator<SFXHIT_COUNT> > >
PUBLIC	??1?$_Tidy_guard@V?$deque@USFXHIT_INFO@@V?$allocator@USFXHIT_INFO@@@std@@@std@@@std@@QAE@XZ ; std::_Tidy_guard<std::deque<SFXHIT_INFO,std::allocator<SFXHIT_INFO> > >::~_Tidy_guard<std::deque<SFXHIT_INFO,std::allocator<SFXHIT_INFO> > >
PUBLIC	??$_Erase_tree@V?$allocator@U?$_Tree_node@U?$pair@$$CBKV?$queue@USFXHIT_COUNT@@V?$deque@USFXHIT_COUNT@@V?$allocator@USFXHIT_COUNT@@@std@@@std@@@std@@@std@@PAX@std@@@std@@@?$_Tree_val@U?$_Tree_simple_types@U?$pair@$$CBKV?$queue@USFXHIT_COUNT@@V?$deque@USFXHIT_COUNT@@V?$allocator@USFXHIT_COUNT@@@std@@@std@@@std@@@std@@@std@@@std@@QAEXAAV?$allocator@U?$_Tree_node@U?$pair@$$CBKV?$queue@USFXHIT_COUNT@@V?$deque@USFXHIT_COUNT@@V?$allocator@USFXHIT_COUNT@@@std@@@std@@@std@@@std@@PAX@std@@@1@PAU?$_Tree_node@U?$pair@$$CBKV?$queue@USFXHIT_COUNT@@V?$deque@USFXHIT_COUNT@@V?$allocator@USFXHIT_COUNT@@@std@@@std@@@std@@@std@@PAX@1@@Z ; std::_Tree_val<std::_Tree_simple_types<std::pair<unsigned long const ,std::queue<SFXHIT_COUNT,std::deque<SFXHIT_COUNT,std::allocator<SFXHIT_COUNT> > > > > >::_Erase_tree<std::allocator<std::_Tree_node<std::pair<unsigned long const ,std::queue<SFXHIT_COUNT,std::deque<SFXHIT_COUNT,std::allocator<SFXHIT_COUNT> > > >,void *> > >
PUBLIC	??$uninitialized_copy@PAPAUSFXHIT_COUNT@@PAPAU1@@std@@YAPAPAUSFXHIT_COUNT@@QAPAU1@0PAPAU1@@Z ; std::uninitialized_copy<SFXHIT_COUNT * *,SFXHIT_COUNT * *>
PUBLIC	??$_Uninitialized_value_construct_n_unchecked1@PAPAUSFXHIT_COUNT@@I@std@@YAPAPAUSFXHIT_COUNT@@PAPAU1@I@Z ; std::_Uninitialized_value_construct_n_unchecked1<SFXHIT_COUNT * *,unsigned int>
PUBLIC	??$_Erase_tree@V?$allocator@U?$_Tree_node@U?$pair@$$CBKV?$queue@USFXHIT_INFO@@V?$deque@USFXHIT_INFO@@V?$allocator@USFXHIT_INFO@@@std@@@std@@@std@@@std@@PAX@std@@@std@@@?$_Tree_val@U?$_Tree_simple_types@U?$pair@$$CBKV?$queue@USFXHIT_INFO@@V?$deque@USFXHIT_INFO@@V?$allocator@USFXHIT_INFO@@@std@@@std@@@std@@@std@@@std@@@std@@QAEXAAV?$allocator@U?$_Tree_node@U?$pair@$$CBKV?$queue@USFXHIT_INFO@@V?$deque@USFXHIT_INFO@@V?$allocator@USFXHIT_INFO@@@std@@@std@@@std@@@std@@PAX@std@@@1@PAU?$_Tree_node@U?$pair@$$CBKV?$queue@USFXHIT_INFO@@V?$deque@USFXHIT_INFO@@V?$allocator@USFXHIT_INFO@@@std@@@std@@@std@@@std@@PAX@1@@Z ; std::_Tree_val<std::_Tree_simple_types<std::pair<unsigned long const ,std::queue<SFXHIT_INFO,std::deque<SFXHIT_INFO,std::allocator<SFXHIT_INFO> > > > > >::_Erase_tree<std::allocator<std::_Tree_node<std::pair<unsigned long const ,std::queue<SFXHIT_INFO,std::deque<SFXHIT_INFO,std::allocator<SFXHIT_INFO> > > >,void *> > >
PUBLIC	??$uninitialized_copy@PAPAUSFXHIT_INFO@@PAPAU1@@std@@YAPAPAUSFXHIT_INFO@@QAPAU1@0PAPAU1@@Z ; std::uninitialized_copy<SFXHIT_INFO * *,SFXHIT_INFO * *>
PUBLIC	??$_Uninitialized_value_construct_n_unchecked1@PAPAUSFXHIT_INFO@@I@std@@YAPAPAUSFXHIT_INFO@@PAPAU1@I@Z ; std::_Uninitialized_value_construct_n_unchecked1<SFXHIT_INFO * *,unsigned int>
PUBLIC	??$_Uninitialized_copy_unchecked@PAPAUSFXHIT_COUNT@@PAPAU1@@std@@YAPAPAUSFXHIT_COUNT@@PAPAU1@QAPAU1@0@Z ; std::_Uninitialized_copy_unchecked<SFXHIT_COUNT * *,SFXHIT_COUNT * *>
PUBLIC	??$_Zero_range@PAPAUSFXHIT_COUNT@@@std@@YAPAPAUSFXHIT_COUNT@@QAPAU1@0@Z ; std::_Zero_range<SFXHIT_COUNT * *>
PUBLIC	??$_Uninitialized_copy_unchecked@PAPAUSFXHIT_INFO@@PAPAU1@@std@@YAPAPAUSFXHIT_INFO@@PAPAU1@QAPAU1@0@Z ; std::_Uninitialized_copy_unchecked<SFXHIT_INFO * *,SFXHIT_INFO * *>
PUBLIC	??$_Zero_range@PAPAUSFXHIT_INFO@@@std@@YAPAPAUSFXHIT_INFO@@QAPAU1@0@Z ; std::_Zero_range<SFXHIT_INFO * *>
PUBLIC	??$_Copy_memmove@PAPAUSFXHIT_COUNT@@PAPAU1@@std@@YAPAPAUSFXHIT_COUNT@@PAPAU1@00@Z ; std::_Copy_memmove<SFXHIT_COUNT * *,SFXHIT_COUNT * *>
PUBLIC	??$_Copy_memmove@PAPAUSFXHIT_INFO@@PAPAU1@@std@@YAPAPAUSFXHIT_INFO@@PAPAU1@00@Z ; std::_Copy_memmove<SFXHIT_INFO * *,SFXHIT_INFO * *>
PUBLIC	??$_Copy_memmove_tail@PAPAUSFXHIT_COUNT@@@std@@YAPAPAUSFXHIT_COUNT@@QBDQAPAU1@II@Z ; std::_Copy_memmove_tail<SFXHIT_COUNT * *>
PUBLIC	??$_Construct_in_place_by_deref@PAUSFXHIT_COUNT@@PAPAU1@@std@@YAXAAPAUSFXHIT_COUNT@@AAPAPAU1@@Z ; std::_Construct_in_place_by_deref<SFXHIT_COUNT *,SFXHIT_COUNT * *>
PUBLIC	??$_Copy_memmove_tail@PAPAUSFXHIT_INFO@@@std@@YAPAPAUSFXHIT_INFO@@QBDQAPAU1@II@Z ; std::_Copy_memmove_tail<SFXHIT_INFO * *>
PUBLIC	??$_Construct_in_place_by_deref@PAUSFXHIT_INFO@@PAPAU1@@std@@YAXAAPAUSFXHIT_INFO@@AAPAPAU1@@Z ; std::_Construct_in_place_by_deref<SFXHIT_INFO *,SFXHIT_INFO * *>
PUBLIC	??_7exception@std@@6B@				; std::exception::`vftable'
PUBLIC	??_C@_0BC@EOODALEL@Unknown?5exception@		; `string'
PUBLIC	??_7bad_alloc@std@@6B@				; std::bad_alloc::`vftable'
PUBLIC	??_7bad_array_new_length@std@@6B@		; std::bad_array_new_length::`vftable'
PUBLIC	??_C@_0BF@KINCDENJ@bad?5array?5new?5length@	; `string'
PUBLIC	??_R0?AVexception@std@@@8			; std::exception `RTTI Type Descriptor'
PUBLIC	__CT??_R0?AVexception@std@@@8??0exception@std@@QAE@ABV01@@Z12
PUBLIC	__TI3?AVbad_array_new_length@std@@
PUBLIC	__CTA3?AVbad_array_new_length@std@@
PUBLIC	??_R0?AVbad_array_new_length@std@@@8		; std::bad_array_new_length `RTTI Type Descriptor'
PUBLIC	__CT??_R0?AVbad_array_new_length@std@@@8??0bad_array_new_length@std@@QAE@ABV01@@Z12
PUBLIC	??_R0?AVbad_alloc@std@@@8			; std::bad_alloc `RTTI Type Descriptor'
PUBLIC	__CT??_R0?AVbad_alloc@std@@@8??0bad_alloc@std@@QAE@ABV01@@Z12
PUBLIC	??_C@_0BB@GCADKGJO@map?1set?5too?5long@		; `string'
PUBLIC	??_C@_0BM@HMFGHCP@?$CFs?5min?3?$CFd?0?5max?3?$CFd?0?5index?3?$CFd@ ; `string'
PUBLIC	??_C@_0BI@BEIFNGEL@GetItemProp?5range_error@	; `string'
PUBLIC	??_C@_0BJ@GPNGCFMK@GetSkillProp?5range_error@	; `string'
PUBLIC	??_C@_0BJ@GKPOBPPI@GetMoverProp?5range_error@	; `string'
PUBLIC	??_R4exception@std@@6B@				; std::exception::`RTTI Complete Object Locator'
PUBLIC	??_R3exception@std@@8				; std::exception::`RTTI Class Hierarchy Descriptor'
PUBLIC	??_R2exception@std@@8				; std::exception::`RTTI Base Class Array'
PUBLIC	??_R1A@?0A@EA@exception@std@@8			; std::exception::`RTTI Base Class Descriptor at (0,-1,0,64)'
PUBLIC	??_R4bad_array_new_length@std@@6B@		; std::bad_array_new_length::`RTTI Complete Object Locator'
PUBLIC	??_R3bad_array_new_length@std@@8		; std::bad_array_new_length::`RTTI Class Hierarchy Descriptor'
PUBLIC	??_R2bad_array_new_length@std@@8		; std::bad_array_new_length::`RTTI Base Class Array'
PUBLIC	??_R1A@?0A@EA@bad_array_new_length@std@@8	; std::bad_array_new_length::`RTTI Base Class Descriptor at (0,-1,0,64)'
PUBLIC	??_R1A@?0A@EA@bad_alloc@std@@8			; std::bad_alloc::`RTTI Base Class Descriptor at (0,-1,0,64)'
PUBLIC	??_R3bad_alloc@std@@8				; std::bad_alloc::`RTTI Class Hierarchy Descriptor'
PUBLIC	??_R2bad_alloc@std@@8				; std::bad_alloc::`RTTI Base Class Array'
PUBLIC	??_R4bad_alloc@std@@6B@				; std::bad_alloc::`RTTI Complete Object Locator'
PUBLIC	??_C@_03MNDEGCIG@xxx@				; `string'
PUBLIC	??_C@_0EB@EBLOEGFE@CMover?3?3GetMeleeSkillPower?$CI?$CJ?5?9?5@ ; `string'
PUBLIC	??_C@_08IKHLBNOC@OnSfxHit@			; `string'
PUBLIC	??_C@_0CC@OLPGPEPO@OnSfxHit?5?3?5skill?$DN?$CFd?$LI?$KG?5?$LA?$KB?A?v?A?v?5?$LO?J@ ; `string'
PUBLIC	??_C@_0BC@KBDMBKEH@deque?$DMT?$DO?5too?5long@	; `string'
PUBLIC	__real@00000000
PUBLIC	__real@3c23d70a
PUBLIC	__real@3c8efa35
PUBLIC	__real@3dcccccd
PUBLIC	__real@3e000000
PUBLIC	__real@3e4ccccd
PUBLIC	__real@3e99999a
PUBLIC	__real@3f000000
PUBLIC	__real@3f19999a
PUBLIC	__real@3f333333
PUBLIC	__real@3f400000
PUBLIC	__real@3f4ccccd
PUBLIC	__real@3f666666
PUBLIC	__real@3f800000
PUBLIC	__real@3f866666
PUBLIC	__real@3f8ccccd
PUBLIC	__real@3f99999a
PUBLIC	__real@3fa0000000000000
PUBLIC	__real@3fa66666
PUBLIC	__real@3fb33333
PUBLIC	__real@3fc00000
PUBLIC	__real@3fcccccd
PUBLIC	__real@3fe66666
PUBLIC	__real@3ff8000000000000
PUBLIC	__real@40000000
PUBLIC	__real@400921fb54411744
PUBLIC	__real@40133333
PUBLIC	__real@40266666
PUBLIC	__real@40333333
PUBLIC	__real@40400000
PUBLIC	__real@40600000
PUBLIC	__real@40800000
PUBLIC	__real@40e00000
PUBLIC	__real@4110a3d7
PUBLIC	__real@41200000
PUBLIC	__real@41700000
PUBLIC	__real@420feb85
PUBLIC	__real@42480000
PUBLIC	__real@42c80000
PUBLIC	__real@433b8000
PUBLIC	__real@43480000
PUBLIC	__real@43f50000
PUBLIC	__real@43fd8000
PUBLIC	__real@44480000
PUBLIC	__real@447a0000
PUBLIC	__real@477e0100
PUBLIC	__real@c2c80000
PUBLIC	__xmm@3ea3d70a3e75c28f3e23d70a3da3d70a
PUBLIC	__xmm@3f23d70a3f0f5c293ef5c28f3ecccccd
PUBLIC	__xmm@3f75c28f3f6147ae3f4ccccd3f3851ec
PUBLIC	__xmm@3fa666663f99999a3f8f5c293f851eb8
PUBLIC	__xmm@41f00000000000000000000000000000
PUBLIC	__xmm@80000000800000008000000080000000
EXTRN	??2@YAPAXI@Z:PROC				; operator new
EXTRN	??3@YAXPAXI@Z:PROC				; operator delete
EXTRN	__invoke_watson:PROC
EXTRN	__imp__GetTickCount@0:PROC
EXTRN	__imp__MulDiv@12:PROC
EXTRN	_rand:PROC
EXTRN	___std_exception_copy:PROC
EXTRN	___std_exception_destroy:PROC
EXTRN	??_Eexception@std@@UAEPAXI@Z:PROC		; std::exception::`vector deleting destructor'
EXTRN	??_Ebad_alloc@std@@UAEPAXI@Z:PROC		; std::bad_alloc::`vector deleting destructor'
EXTRN	??_Ebad_array_new_length@std@@UAEPAXI@Z:PROC	; std::bad_array_new_length::`vector deleting destructor'
EXTRN	?_Xlength_error@std@@YAXPBD@Z:PROC		; std::_Xlength_error
EXTRN	__imp__timeGetTime@0:PROC
EXTRN	?CanIgnoreDEF@ATTACK_INFO@@QBEHXZ:PROC		; ATTACK_INFO::CanIgnoreDEF
EXTRN	?GetChargeLevel@ATTACK_INFO@@QBEHXZ:PROC	; ATTACK_INFO::GetChargeLevel
EXTRN	?GetSkill@ATTACK_INFO@@QBEHXZ:PROC		; ATTACK_INFO::GetSkill
EXTRN	?IsRangeAttack@ATTACK_INFO@@QBEHXZ:PROC		; ATTACK_INFO::IsRangeAttack
EXTRN	?GetSkillLevel@ATTACK_INFO@@QBEHXZ:PROC		; ATTACK_INFO::GetSkillLevel
EXTRN	?xRandom@@YAKKK@Z:PROC				; xRandom
EXTRN	?Error@@YAPBDPBDZZ:PROC				; Error
EXTRN	?GetLanguage@@YAHXZ:PROC			; GetLanguage
EXTRN	?DoApplySkill@CCtrl@@QAEHPAV1@PAUItemProp@@PAUAddSkillProp@@_NHHH@Z:PROC ; CCtrl::DoApplySkill
EXTRN	?GetDefensePower@CEventLua@@QAEHH@Z:PROC	; CEventLua::GetDefensePower
EXTRN	?GetJobProp@CProject@@QAEPAUJobProp@@H@Z:PROC	; CProject::GetJobProp
EXTRN	?GetExpUpItem@CProject@@QAEHKH@Z:PROC		; CProject::GetExpUpItem
EXTRN	?GetAddSkillProp@CProject@@QAEPAUAddSkillProp@@KK@Z:PROC ; CProject::GetAddSkillProp
EXTRN	?GetMover@CProject@@QAEPAVCMover@@K@Z:PROC	; CProject::GetMover
EXTRN	?ClearState@CAction@@QAEXXZ:PROC		; CAction::ClearState
EXTRN	?ResetState@CAction@@QAEXK@Z:PROC		; CAction::ResetState
EXTRN	?DoDamageFly@CActionMover@@QAEXMMM@Z:PROC	; CActionMover::DoDamageFly
EXTRN	?HasBuff@CMover@@QAEHGG@Z:PROC			; CMover::HasBuff
EXTRN	?IsSteal@CMover@@QAEHPAV1@@Z:PROC		; CMover::IsSteal
EXTRN	?GetActiveHandItemProp@CMover@@QAEPAUItemProp@@H@Z:PROC ; CMover::GetActiveHandItemProp
EXTRN	?GetWeaponItem@CMover@@QAEPAVCItemElem@@H@Z:PROC ; CMover::GetWeaponItem
EXTRN	?GetEquipItem@CMover@@QAEPAVCItemElem@@H@Z:PROC	; CMover::GetEquipItem
EXTRN	?IsDualWeapon@CMover@@QAEHXZ:PROC		; CMover::IsDualWeapon
EXTRN	?GetParam@CMover@@QAEHHH@Z:PROC			; CMover::GetParam
EXTRN	?GetAdjParam@CMover@@QAEHH@Z:PROC		; CMover::GetAdjParam
EXTRN	?GetSkill@CMover@@QAEPAUtagSkill@@K@Z:PROC	; CMover::GetSkill
EXTRN	?GetName@CMover@@QAEPBDH@Z:PROC			; CMover::GetName
EXTRN	?IsBaseJob@CMover@@QAEHXZ:PROC			; CMover::IsBaseJob
EXTRN	?GetJob@CMover@@QAEHXZ:PROC			; CMover::GetJob
EXTRN	?GetStr@CMover@@QAEHXZ:PROC			; CMover::GetStr
EXTRN	?GetDex@CMover@@QAEHXZ:PROC			; CMover::GetDex
EXTRN	?GetInt@CMover@@QAEHXZ:PROC			; CMover::GetInt
EXTRN	?GetSta@CMover@@QAEHXZ:PROC			; CMover::GetSta
EXTRN	?GetHitPointPercent@CMover@@QAEHH@Z:PROC	; CMover::GetHitPointPercent
EXTRN	?GetManaPointPercent@CMover@@QAEHH@Z:PROC	; CMover::GetManaPointPercent
EXTRN	?GetHitPoint@CMover@@QAEHXZ:PROC		; CMover::GetHitPoint
EXTRN	?GetMaxHitPoint@CMover@@QAEHXZ:PROC		; CMover::GetMaxHitPoint
EXTRN	?GetAdjHitRate@CMover@@QAEHXZ:PROC		; CMover::GetAdjHitRate
EXTRN	?GetParrying@CMover@@QAEHXZ:PROC		; CMover::GetParrying
EXTRN	?GetResistMagic@CMover@@QAEHXZ:PROC		; CMover::GetResistMagic
EXTRN	?GetResistSpell@CMover@@QAEHH@Z:PROC		; CMover::GetResistSpell
EXTRN	?GetItemAbilityMin@CMover@@QAEHH@Z:PROC		; CMover::GetItemAbilityMin
EXTRN	?GetItemAbilityMax@CMover@@QAEHH@Z:PROC		; CMover::GetItemAbilityMax
EXTRN	?AddEnemy@CMover@@QAEKKH@Z:PROC			; CMover::AddEnemy
EXTRN	?IsAttackAbleNPC@CMover@@QAEHPAV1@@Z:PROC	; CMover::IsAttackAbleNPC
EXTRN	?GetPKPVPRegionAttr@CMover@@QAEKXZ:PROC		; CMover::GetPKPVPRegionAttr
EXTRN	?GetState@CFlyffEvent@@QAEEH@Z:PROC		; CFlyffEvent::GetState
EXTRN	?GetLeader@CParty@@QAEPAVCMover@@XZ:PROC	; CParty::GetLeader
EXTRN	?FindMember@CParty@@QAEHK@Z:PROC		; CParty::FindMember
EXTRN	?GetParty@CPartyMng@@QAEPAVCParty@@K@Z:PROC	; CPartyMng::GetParty
EXTRN	?AddCorrReq@CUser@@QAEXPAVCMover@@@Z:PROC	; CUser::AddCorrReq
EXTRN	?GetUserByPlayerID@CUserMng@@QAEPAVCUser@@K@Z:PROC ; CUserMng::GetUserByPlayerID
EXTRN	?AddPKPink@CUserMng@@QAEXPAVCMover@@E@Z:PROC	; CUserMng::AddPKPink
EXTRN	?GetInstance@CItemUpgrade@@SAPAV1@XZ:PROC	; CItemUpgrade::GetInstance
EXTRN	?GetAttributeDamageFactor@CItemUpgrade@@QAEHH@Z:PROC ; CItemUpgrade::GetAttributeDamageFactor
EXTRN	?GetAttributeDefenseFactor@CItemUpgrade@@QAEHH@Z:PROC ; CItemUpgrade::GetAttributeDefenseFactor
EXTRN	?GetAttributeAddAtkDmgFactor@CItemUpgrade@@QAEHH@Z:PROC ; CItemUpgrade::GetAttributeAddAtkDmgFactor
EXTRN	@__security_check_cookie@4:PROC
EXTRN	__CxxThrowException@8:PROC
EXTRN	___CxxFrameHandler3:PROC
EXTRN	__ftol3:PROC
EXTRN	__libm_sse2_cos_precise:PROC
EXTRN	__libm_sse2_pow_precise:PROC
EXTRN	__libm_sse2_sin_precise:PROC
EXTRN	_memmove:PROC
EXTRN	_memset:PROC
EXTRN	??_7type_info@@6B@:QWORD			; type_info::`vftable'
EXTRN	?g_next@@3KA:DWORD				; g_next
EXTRN	?m_fMonsterHitRate@CProject@@2MA:DWORD		; CProject::m_fMonsterHitRate
EXTRN	?prj@@3VCProject@@A:BYTE			; prj
EXTRN	?g_eLocal@@3VCFlyffEvent@@A:BYTE		; g_eLocal
EXTRN	?g_GuildCombat1to1Mng@@3VCGuildCombat1to1Mng@@A:BYTE ; g_GuildCombat1to1Mng
EXTRN	?g_UserMng@@3VCUserMng@@A:BYTE			; g_UserMng
EXTRN	?g_GuildCombatMng@@3VCGuildCombat@@A:BYTE	; g_GuildCombatMng
EXTRN	?g_PartyMng@@3VCPartyMng@@A:BYTE		; g_PartyMng
EXTRN	___security_cookie:DWORD
EXTRN	__fltused:DWORD
;	COMDAT __xmm@80000000800000008000000080000000
CONST	SEGMENT
__xmm@80000000800000008000000080000000 DB 00H, 00H, 00H, 080H, 00H, 00H, 00H
	DB	080H, 00H, 00H, 00H, 080H, 00H, 00H, 00H, 080H
CONST	ENDS
;	COMDAT __xmm@41f00000000000000000000000000000
CONST	SEGMENT
__xmm@41f00000000000000000000000000000 DB 00H, 00H, 00H, 00H, 00H, 00H, 00H
	DB	00H, 00H, 00H, 00H, 00H, 00H, 00H, 0f0H, 'A'
CONST	ENDS
;	COMDAT __xmm@3fa666663f99999a3f8f5c293f851eb8
CONST	SEGMENT
__xmm@3fa666663f99999a3f8f5c293f851eb8 DB 0b8H, 01eH, 085H, '?)\', 08fH, '?'
	DB	09aH, 099H, 099H, '?ff', 0a6H, '?'
CONST	ENDS
;	COMDAT __xmm@3f75c28f3f6147ae3f4ccccd3f3851ec
CONST	SEGMENT
__xmm@3f75c28f3f6147ae3f4ccccd3f3851ec DB 0ecH, 'Q8?', 0cdH, 0ccH, 'L?', 0aeH
	DB	'Ga?', 08fH, 0c2H, 'u?'
CONST	ENDS
;	COMDAT __xmm@3f23d70a3f0f5c293ef5c28f3ecccccd
CONST	SEGMENT
__xmm@3f23d70a3f0f5c293ef5c28f3ecccccd DB 0cdH, 0ccH, 0ccH, '>', 08fH, 0c2H
	DB	0f5H, '>)\', 0fH, '?', 0aH, 0d7H, '#?'
CONST	ENDS
;	COMDAT __xmm@3ea3d70a3e75c28f3e23d70a3da3d70a
CONST	SEGMENT
__xmm@3ea3d70a3e75c28f3e23d70a3da3d70a DB 0aH, 0d7H, 0a3H, '=', 0aH, 0d7H
	DB	'#>', 08fH, 0c2H, 'u>', 0aH, 0d7H, 0a3H, '>'
CONST	ENDS
;	COMDAT __real@c2c80000
CONST	SEGMENT
__real@c2c80000 DD 0c2c80000r			; -100
CONST	ENDS
;	COMDAT __real@477e0100
CONST	SEGMENT
__real@477e0100 DD 0477e0100r			; 65025
CONST	ENDS
;	COMDAT __real@447a0000
CONST	SEGMENT
__real@447a0000 DD 0447a0000r			; 1000
CONST	ENDS
;	COMDAT __real@44480000
CONST	SEGMENT
__real@44480000 DD 044480000r			; 800
CONST	ENDS
;	COMDAT __real@43fd8000
CONST	SEGMENT
__real@43fd8000 DD 043fd8000r			; 507
CONST	ENDS
;	COMDAT __real@43f50000
CONST	SEGMENT
__real@43f50000 DD 043f50000r			; 490
CONST	ENDS
;	COMDAT __real@43480000
CONST	SEGMENT
__real@43480000 DD 043480000r			; 200
CONST	ENDS
;	COMDAT __real@433b8000
CONST	SEGMENT
__real@433b8000 DD 0433b8000r			; 187.5
CONST	ENDS
;	COMDAT __real@42c80000
CONST	SEGMENT
__real@42c80000 DD 042c80000r			; 100
CONST	ENDS
;	COMDAT __real@42480000
CONST	SEGMENT
__real@42480000 DD 042480000r			; 50
CONST	ENDS
;	COMDAT __real@420feb85
CONST	SEGMENT
__real@420feb85 DD 0420feb85r			; 35.98
CONST	ENDS
;	COMDAT __real@41700000
CONST	SEGMENT
__real@41700000 DD 041700000r			; 15
CONST	ENDS
;	COMDAT __real@41200000
CONST	SEGMENT
__real@41200000 DD 041200000r			; 10
CONST	ENDS
;	COMDAT __real@4110a3d7
CONST	SEGMENT
__real@4110a3d7 DD 04110a3d7r			; 9.04
CONST	ENDS
;	COMDAT __real@40e00000
CONST	SEGMENT
__real@40e00000 DD 040e00000r			; 7
CONST	ENDS
;	COMDAT __real@40800000
CONST	SEGMENT
__real@40800000 DD 040800000r			; 4
CONST	ENDS
;	COMDAT __real@40600000
CONST	SEGMENT
__real@40600000 DD 040600000r			; 3.5
CONST	ENDS
;	COMDAT __real@40400000
CONST	SEGMENT
__real@40400000 DD 040400000r			; 3
CONST	ENDS
;	COMDAT __real@40333333
CONST	SEGMENT
__real@40333333 DD 040333333r			; 2.8
CONST	ENDS
;	COMDAT __real@40266666
CONST	SEGMENT
__real@40266666 DD 040266666r			; 2.6
CONST	ENDS
;	COMDAT __real@40133333
CONST	SEGMENT
__real@40133333 DD 040133333r			; 2.3
CONST	ENDS
;	COMDAT __real@400921fb54411744
CONST	SEGMENT
__real@400921fb54411744 DQ 0400921fb54411744r	; 3.14159
CONST	ENDS
;	COMDAT __real@40000000
CONST	SEGMENT
__real@40000000 DD 040000000r			; 2
CONST	ENDS
;	COMDAT __real@3ff8000000000000
CONST	SEGMENT
__real@3ff8000000000000 DQ 03ff8000000000000r	; 1.5
CONST	ENDS
;	COMDAT __real@3fe66666
CONST	SEGMENT
__real@3fe66666 DD 03fe66666r			; 1.8
CONST	ENDS
;	COMDAT __real@3fcccccd
CONST	SEGMENT
__real@3fcccccd DD 03fcccccdr			; 1.6
CONST	ENDS
;	COMDAT __real@3fc00000
CONST	SEGMENT
__real@3fc00000 DD 03fc00000r			; 1.5
CONST	ENDS
;	COMDAT __real@3fb33333
CONST	SEGMENT
__real@3fb33333 DD 03fb33333r			; 1.4
CONST	ENDS
;	COMDAT __real@3fa66666
CONST	SEGMENT
__real@3fa66666 DD 03fa66666r			; 1.3
CONST	ENDS
;	COMDAT __real@3fa0000000000000
CONST	SEGMENT
__real@3fa0000000000000 DQ 03fa0000000000000r	; 0.03125
CONST	ENDS
;	COMDAT __real@3f99999a
CONST	SEGMENT
__real@3f99999a DD 03f99999ar			; 1.2
CONST	ENDS
;	COMDAT __real@3f8ccccd
CONST	SEGMENT
__real@3f8ccccd DD 03f8ccccdr			; 1.1
CONST	ENDS
;	COMDAT __real@3f866666
CONST	SEGMENT
__real@3f866666 DD 03f866666r			; 1.05
CONST	ENDS
;	COMDAT __real@3f800000
CONST	SEGMENT
__real@3f800000 DD 03f800000r			; 1
CONST	ENDS
;	COMDAT __real@3f666666
CONST	SEGMENT
__real@3f666666 DD 03f666666r			; 0.9
CONST	ENDS
;	COMDAT __real@3f4ccccd
CONST	SEGMENT
__real@3f4ccccd DD 03f4ccccdr			; 0.8
CONST	ENDS
;	COMDAT __real@3f400000
CONST	SEGMENT
__real@3f400000 DD 03f400000r			; 0.75
CONST	ENDS
;	COMDAT __real@3f333333
CONST	SEGMENT
__real@3f333333 DD 03f333333r			; 0.7
CONST	ENDS
;	COMDAT __real@3f19999a
CONST	SEGMENT
__real@3f19999a DD 03f19999ar			; 0.6
CONST	ENDS
;	COMDAT __real@3f000000
CONST	SEGMENT
__real@3f000000 DD 03f000000r			; 0.5
CONST	ENDS
;	COMDAT __real@3e99999a
CONST	SEGMENT
__real@3e99999a DD 03e99999ar			; 0.3
CONST	ENDS
;	COMDAT __real@3e4ccccd
CONST	SEGMENT
__real@3e4ccccd DD 03e4ccccdr			; 0.2
CONST	ENDS
;	COMDAT __real@3e000000
CONST	SEGMENT
__real@3e000000 DD 03e000000r			; 0.125
CONST	ENDS
;	COMDAT __real@3dcccccd
CONST	SEGMENT
__real@3dcccccd DD 03dcccccdr			; 0.1
CONST	ENDS
;	COMDAT __real@3c8efa35
CONST	SEGMENT
__real@3c8efa35 DD 03c8efa35r			; 0.0174533
CONST	ENDS
;	COMDAT __real@3c23d70a
CONST	SEGMENT
__real@3c23d70a DD 03c23d70ar			; 0.01
CONST	ENDS
;	COMDAT __real@00000000
CONST	SEGMENT
__real@00000000 DD 000000000r			; 0
CONST	ENDS
;	COMDAT ??_C@_0BC@KBDMBKEH@deque?$DMT?$DO?5too?5long@
CONST	SEGMENT
??_C@_0BC@KBDMBKEH@deque?$DMT?$DO?5too?5long@ DB 'deque<T> too long', 00H ; `string'
CONST	ENDS
;	COMDAT ??_C@_0CC@OLPGPEPO@OnSfxHit?5?3?5skill?$DN?$CFd?$LI?$KG?5?$LA?$KB?A?v?A?v?5?$LO?J@
CONST	SEGMENT
??_C@_0CC@OLPGPEPO@OnSfxHit?5?3?5skill?$DN?$CFd?$LI?$KG?5?$LA?$KB?A?v?A?v?5?$LO?J@ DB 'O'
	DB	'nSfxHit : skill=%d', 0b8H, 0a6H, ' ', 0b0H, 0a1H, 0c1H, 0f6H, 0c1H
	DB	0f6H, ' ', 0beH, 0caH, 0c0H, 0bdH, 00H	; `string'
CONST	ENDS
;	COMDAT ??_C@_08IKHLBNOC@OnSfxHit@
CONST	SEGMENT
??_C@_08IKHLBNOC@OnSfxHit@ DB 'OnSfxHit', 00H		; `string'
CONST	ENDS
;	COMDAT ??_C@_0EB@EBLOEGFE@CMover?3?3GetMeleeSkillPower?$CI?$CJ?5?9?5@
CONST	SEGMENT
??_C@_0EB@EBLOEGFE@CMover?3?3GetMeleeSkillPower?$CI?$CJ?5?9?5@ DB 'CMover'
	DB	'::GetMeleeSkillPower() - nSkill : %d, Name : %s, Item : %d', 00H ; `string'
CONST	ENDS
;	COMDAT ??_C@_03MNDEGCIG@xxx@
CONST	SEGMENT
??_C@_03MNDEGCIG@xxx@ DB 'xxx', 00H			; `string'
CONST	ENDS
;	COMDAT ?table@?1??GetDamagePropertyFactor@CMover@@QAEXPAV2@PAH1H@Z@4PAY05HA
_DATA	SEGMENT
?table@?1??GetDamagePropertyFactor@CMover@@QAEXPAV2@PAH1H@Z@4PAY05HA DD 00H ; `CMover::GetDamagePropertyFactor'::`2'::table
	DD	00H
	DD	00H
	DD	00H
	DD	00H
	DD	00H
	DD	00H
	DD	01H
	DD	02H
	DD	00H
	DD	03H
	DD	00H
	DD	00H
	DD	03H
	DD	01H
	DD	02H
	DD	00H
	DD	00H
	DD	00H
	DD	00H
	DD	03H
	DD	01H
	DD	00H
	DD	02H
	DD	00H
	DD	02H
	DD	00H
	DD	00H
	DD	01H
	DD	03H
	DD	00H
	DD	00H
	DD	00H
	DD	03H
	DD	02H
	DD	01H
_DATA	ENDS
;	COMDAT ?factors@?1??GetChargeMultiplier@@YAMH@Z@4PAMA
_DATA	SEGMENT
?factors@?1??GetChargeMultiplier@@YAMH@Z@4PAMA DD 03f800000r ; 1 ; `GetChargeMultiplier'::`2'::factors
	DD	03f99999ar			; 1.2
	DD	03fc00000r			; 1.5
	DD	03fe66666r			; 1.8
	DD	0400ccccdr			; 2.2
_DATA	ENDS
;	COMDAT ??_R4bad_alloc@std@@6B@
rdata$r	SEGMENT
??_R4bad_alloc@std@@6B@ DD 00H				; std::bad_alloc::`RTTI Complete Object Locator'
	DD	00H
	DD	00H
	DD	FLAT:??_R0?AVbad_alloc@std@@@8
	DD	FLAT:??_R3bad_alloc@std@@8
rdata$r	ENDS
;	COMDAT ??_R2bad_alloc@std@@8
rdata$r	SEGMENT
??_R2bad_alloc@std@@8 DD FLAT:??_R1A@?0A@EA@bad_alloc@std@@8 ; std::bad_alloc::`RTTI Base Class Array'
	DD	FLAT:??_R1A@?0A@EA@exception@std@@8
rdata$r	ENDS
;	COMDAT ??_R3bad_alloc@std@@8
rdata$r	SEGMENT
??_R3bad_alloc@std@@8 DD 00H				; std::bad_alloc::`RTTI Class Hierarchy Descriptor'
	DD	00H
	DD	02H
	DD	FLAT:??_R2bad_alloc@std@@8
rdata$r	ENDS
;	COMDAT ??_R1A@?0A@EA@bad_alloc@std@@8
rdata$r	SEGMENT
??_R1A@?0A@EA@bad_alloc@std@@8 DD FLAT:??_R0?AVbad_alloc@std@@@8 ; std::bad_alloc::`RTTI Base Class Descriptor at (0,-1,0,64)'
	DD	01H
	DD	00H
	DD	0ffffffffH
	DD	00H
	DD	040H
	DD	FLAT:??_R3bad_alloc@std@@8
rdata$r	ENDS
;	COMDAT ??_R1A@?0A@EA@bad_array_new_length@std@@8
rdata$r	SEGMENT
??_R1A@?0A@EA@bad_array_new_length@std@@8 DD FLAT:??_R0?AVbad_array_new_length@std@@@8 ; std::bad_array_new_length::`RTTI Base Class Descriptor at (0,-1,0,64)'
	DD	02H
	DD	00H
	DD	0ffffffffH
	DD	00H
	DD	040H
	DD	FLAT:??_R3bad_array_new_length@std@@8
rdata$r	ENDS
;	COMDAT ??_R2bad_array_new_length@std@@8
rdata$r	SEGMENT
??_R2bad_array_new_length@std@@8 DD FLAT:??_R1A@?0A@EA@bad_array_new_length@std@@8 ; std::bad_array_new_length::`RTTI Base Class Array'
	DD	FLAT:??_R1A@?0A@EA@bad_alloc@std@@8
	DD	FLAT:??_R1A@?0A@EA@exception@std@@8
rdata$r	ENDS
;	COMDAT ??_R3bad_array_new_length@std@@8
rdata$r	SEGMENT
??_R3bad_array_new_length@std@@8 DD 00H			; std::bad_array_new_length::`RTTI Class Hierarchy Descriptor'
	DD	00H
	DD	03H
	DD	FLAT:??_R2bad_array_new_length@std@@8
rdata$r	ENDS
;	COMDAT ??_R4bad_array_new_length@std@@6B@
rdata$r	SEGMENT
??_R4bad_array_new_length@std@@6B@ DD 00H		; std::bad_array_new_length::`RTTI Complete Object Locator'
	DD	00H
	DD	00H
	DD	FLAT:??_R0?AVbad_array_new_length@std@@@8
	DD	FLAT:??_R3bad_array_new_length@std@@8
rdata$r	ENDS
;	COMDAT ??_R1A@?0A@EA@exception@std@@8
rdata$r	SEGMENT
??_R1A@?0A@EA@exception@std@@8 DD FLAT:??_R0?AVexception@std@@@8 ; std::exception::`RTTI Base Class Descriptor at (0,-1,0,64)'
	DD	00H
	DD	00H
	DD	0ffffffffH
	DD	00H
	DD	040H
	DD	FLAT:??_R3exception@std@@8
rdata$r	ENDS
;	COMDAT ??_R2exception@std@@8
rdata$r	SEGMENT
??_R2exception@std@@8 DD FLAT:??_R1A@?0A@EA@exception@std@@8 ; std::exception::`RTTI Base Class Array'
rdata$r	ENDS
;	COMDAT ??_R3exception@std@@8
rdata$r	SEGMENT
??_R3exception@std@@8 DD 00H				; std::exception::`RTTI Class Hierarchy Descriptor'
	DD	00H
	DD	01H
	DD	FLAT:??_R2exception@std@@8
rdata$r	ENDS
;	COMDAT ??_R4exception@std@@6B@
rdata$r	SEGMENT
??_R4exception@std@@6B@ DD 00H				; std::exception::`RTTI Complete Object Locator'
	DD	00H
	DD	00H
	DD	FLAT:??_R0?AVexception@std@@@8
	DD	FLAT:??_R3exception@std@@8
rdata$r	ENDS
;	COMDAT ??_C@_0BJ@GKPOBPPI@GetMoverProp?5range_error@
CONST	SEGMENT
??_C@_0BJ@GKPOBPPI@GetMoverProp?5range_error@ DB 'GetMoverProp range_erro'
	DB	'r', 00H					; `string'
CONST	ENDS
;	COMDAT ??_C@_0BJ@GPNGCFMK@GetSkillProp?5range_error@
CONST	SEGMENT
??_C@_0BJ@GPNGCFMK@GetSkillProp?5range_error@ DB 'GetSkillProp range_erro'
	DB	'r', 00H					; `string'
CONST	ENDS
;	COMDAT ??_C@_0BI@BEIFNGEL@GetItemProp?5range_error@
CONST	SEGMENT
??_C@_0BI@BEIFNGEL@GetItemProp?5range_error@ DB 'GetItemProp range_error', 00H ; `string'
CONST	ENDS
;	COMDAT ??_C@_0BM@HMFGHCP@?$CFs?5min?3?$CFd?0?5max?3?$CFd?0?5index?3?$CFd@
CONST	SEGMENT
??_C@_0BM@HMFGHCP@?$CFs?5min?3?$CFd?0?5max?3?$CFd?0?5index?3?$CFd@ DB '%s'
	DB	' min:%d, max:%d, index:%d', 00H		; `string'
CONST	ENDS
;	COMDAT ??_C@_0BB@GCADKGJO@map?1set?5too?5long@
CONST	SEGMENT
??_C@_0BB@GCADKGJO@map?1set?5too?5long@ DB 'map/set too long', 00H ; `string'
CONST	ENDS
;	COMDAT __CT??_R0?AVbad_alloc@std@@@8??0bad_alloc@std@@QAE@ABV01@@Z12
xdata$x	SEGMENT
__CT??_R0?AVbad_alloc@std@@@8??0bad_alloc@std@@QAE@ABV01@@Z12 DD 010H
	DD	FLAT:??_R0?AVbad_alloc@std@@@8
	DD	00H
	DD	0ffffffffH
	ORG $+4
	DD	0cH
	DD	FLAT:??0bad_alloc@std@@QAE@ABV01@@Z
xdata$x	ENDS
;	COMDAT ??_R0?AVbad_alloc@std@@@8
data$r	SEGMENT
??_R0?AVbad_alloc@std@@@8 DD FLAT:??_7type_info@@6B@	; std::bad_alloc `RTTI Type Descriptor'
	DD	00H
	DB	'.?AVbad_alloc@std@@', 00H
data$r	ENDS
;	COMDAT __CT??_R0?AVbad_array_new_length@std@@@8??0bad_array_new_length@std@@QAE@ABV01@@Z12
xdata$x	SEGMENT
__CT??_R0?AVbad_array_new_length@std@@@8??0bad_array_new_length@std@@QAE@ABV01@@Z12 DD 00H
	DD	FLAT:??_R0?AVbad_array_new_length@std@@@8
	DD	00H
	DD	0ffffffffH
	ORG $+4
	DD	0cH
	DD	FLAT:??0bad_array_new_length@std@@QAE@ABV01@@Z
xdata$x	ENDS
;	COMDAT ??_R0?AVbad_array_new_length@std@@@8
data$r	SEGMENT
??_R0?AVbad_array_new_length@std@@@8 DD FLAT:??_7type_info@@6B@ ; std::bad_array_new_length `RTTI Type Descriptor'
	DD	00H
	DB	'.?AVbad_array_new_length@std@@', 00H
data$r	ENDS
;	COMDAT __CTA3?AVbad_array_new_length@std@@
xdata$x	SEGMENT
__CTA3?AVbad_array_new_length@std@@ DD 03H
	DD	FLAT:__CT??_R0?AVbad_array_new_length@std@@@8??0bad_array_new_length@std@@QAE@ABV01@@Z12
	DD	FLAT:__CT??_R0?AVbad_alloc@std@@@8??0bad_alloc@std@@QAE@ABV01@@Z12
	DD	FLAT:__CT??_R0?AVexception@std@@@8??0exception@std@@QAE@ABV01@@Z12
xdata$x	ENDS
;	COMDAT __TI3?AVbad_array_new_length@std@@
xdata$x	SEGMENT
__TI3?AVbad_array_new_length@std@@ DD 00H
	DD	FLAT:??1bad_array_new_length@std@@UAE@XZ
	DD	00H
	DD	FLAT:__CTA3?AVbad_array_new_length@std@@
xdata$x	ENDS
;	COMDAT __CT??_R0?AVexception@std@@@8??0exception@std@@QAE@ABV01@@Z12
xdata$x	SEGMENT
__CT??_R0?AVexception@std@@@8??0exception@std@@QAE@ABV01@@Z12 DD 00H
	DD	FLAT:??_R0?AVexception@std@@@8
	DD	00H
	DD	0ffffffffH
	ORG $+4
	DD	0cH
	DD	FLAT:??0exception@std@@QAE@ABV01@@Z
xdata$x	ENDS
;	COMDAT ??_R0?AVexception@std@@@8
data$r	SEGMENT
??_R0?AVexception@std@@@8 DD FLAT:??_7type_info@@6B@	; std::exception `RTTI Type Descriptor'
	DD	00H
	DB	'.?AVexception@std@@', 00H
data$r	ENDS
;	COMDAT ??_C@_0BF@KINCDENJ@bad?5array?5new?5length@
CONST	SEGMENT
??_C@_0BF@KINCDENJ@bad?5array?5new?5length@ DB 'bad array new length', 00H ; `string'
CONST	ENDS
;	COMDAT ??_7bad_array_new_length@std@@6B@
CONST	SEGMENT
??_7bad_array_new_length@std@@6B@ DD FLAT:??_R4bad_array_new_length@std@@6B@ ; std::bad_array_new_length::`vftable'
	DD	FLAT:??_Ebad_array_new_length@std@@UAEPAXI@Z
	DD	FLAT:?what@exception@std@@UBEPBDXZ
CONST	ENDS
;	COMDAT ??_7bad_alloc@std@@6B@
CONST	SEGMENT
??_7bad_alloc@std@@6B@ DD FLAT:??_R4bad_alloc@std@@6B@	; std::bad_alloc::`vftable'
	DD	FLAT:??_Ebad_alloc@std@@UAEPAXI@Z
	DD	FLAT:?what@exception@std@@UBEPBDXZ
CONST	ENDS
;	COMDAT ??_C@_0BC@EOODALEL@Unknown?5exception@
CONST	SEGMENT
??_C@_0BC@EOODALEL@Unknown?5exception@ DB 'Unknown exception', 00H ; `string'
CONST	ENDS
;	COMDAT ??_7exception@std@@6B@
CONST	SEGMENT
??_7exception@std@@6B@ DD FLAT:??_R4exception@std@@6B@	; std::exception::`vftable'
	DD	FLAT:??_Eexception@std@@UAEPAXI@Z
	DD	FLAT:?what@exception@std@@UBEPBDXZ
CONST	ENDS
;	COMDAT xdata$x
xdata$x	SEGMENT
__unwindtable$??$_Construct@V?$_Deque_unchecked_const_iterator@V?$_Deque_val@U?$_Deque_simple_types@USFXHIT_INFO@@@std@@@std@@@std@@V12@@?$deque@USFXHIT_INFO@@V?$allocator@USFXHIT_INFO@@@std@@@std@@AAEXV?$_Deque_unchecked_const_iterator@V?$_Deque_val@U?$_Deque_simple_types@USFXHIT_INFO@@@std@@@std@@@1@V21@@Z DD 0ffffffffH
	DD	FLAT:__unwindfunclet$??$_Construct@V?$_Deque_unchecked_const_iterator@V?$_Deque_val@U?$_Deque_simple_types@USFXHIT_INFO@@@std@@@std@@@std@@V12@@?$deque@USFXHIT_INFO@@V?$allocator@USFXHIT_INFO@@@std@@@std@@AAEXV?$_Deque_unchecked_const_iterator@V?$_Deque_val@U?$_Deque_simple_types@USFXHIT_INFO@@@std@@@std@@@1@V21@@Z$0
	DD	00H
	DD	FLAT:__unwindfunclet$??$_Construct@V?$_Deque_unchecked_const_iterator@V?$_Deque_val@U?$_Deque_simple_types@USFXHIT_INFO@@@std@@@std@@@std@@V12@@?$deque@USFXHIT_INFO@@V?$allocator@USFXHIT_INFO@@@std@@@std@@AAEXV?$_Deque_unchecked_const_iterator@V?$_Deque_val@U?$_Deque_simple_types@USFXHIT_INFO@@@std@@@std@@@1@V21@@Z$1
__ehfuncinfo$??$_Construct@V?$_Deque_unchecked_const_iterator@V?$_Deque_val@U?$_Deque_simple_types@USFXHIT_INFO@@@std@@@std@@@std@@V12@@?$deque@USFXHIT_INFO@@V?$allocator@USFXHIT_INFO@@@std@@@std@@AAEXV?$_Deque_unchecked_const_iterator@V?$_Deque_val@U?$_Deque_simple_types@USFXHIT_INFO@@@std@@@std@@@1@V21@@Z DD 019930522H
	DD	02H
	DD	FLAT:__unwindtable$??$_Construct@V?$_Deque_unchecked_const_iterator@V?$_Deque_val@U?$_Deque_simple_types@USFXHIT_INFO@@@std@@@std@@@std@@V12@@?$deque@USFXHIT_INFO@@V?$allocator@USFXHIT_INFO@@@std@@@std@@AAEXV?$_Deque_unchecked_const_iterator@V?$_Deque_val@U?$_Deque_simple_types@USFXHIT_INFO@@@std@@@std@@@1@V21@@Z
	DD	2 DUP(00H)
	DD	2 DUP(00H)
	DD	00H
	DD	01H
xdata$x	ENDS
;	COMDAT xdata$x
xdata$x	SEGMENT
__unwindtable$??$_Construct@V?$_Deque_unchecked_const_iterator@V?$_Deque_val@U?$_Deque_simple_types@USFXHIT_COUNT@@@std@@@std@@@std@@V12@@?$deque@USFXHIT_COUNT@@V?$allocator@USFXHIT_COUNT@@@std@@@std@@AAEXV?$_Deque_unchecked_const_iterator@V?$_Deque_val@U?$_Deque_simple_types@USFXHIT_COUNT@@@std@@@std@@@1@V21@@Z DD 0ffffffffH
	DD	FLAT:__unwindfunclet$??$_Construct@V?$_Deque_unchecked_const_iterator@V?$_Deque_val@U?$_Deque_simple_types@USFXHIT_COUNT@@@std@@@std@@@std@@V12@@?$deque@USFXHIT_COUNT@@V?$allocator@USFXHIT_COUNT@@@std@@@std@@AAEXV?$_Deque_unchecked_const_iterator@V?$_Deque_val@U?$_Deque_simple_types@USFXHIT_COUNT@@@std@@@std@@@1@V21@@Z$0
	DD	00H
	DD	FLAT:__unwindfunclet$??$_Construct@V?$_Deque_unchecked_const_iterator@V?$_Deque_val@U?$_Deque_simple_types@USFXHIT_COUNT@@@std@@@std@@@std@@V12@@?$deque@USFXHIT_COUNT@@V?$allocator@USFXHIT_COUNT@@@std@@@std@@AAEXV?$_Deque_unchecked_const_iterator@V?$_Deque_val@U?$_Deque_simple_types@USFXHIT_COUNT@@@std@@@std@@@1@V21@@Z$1
__ehfuncinfo$??$_Construct@V?$_Deque_unchecked_const_iterator@V?$_Deque_val@U?$_Deque_simple_types@USFXHIT_COUNT@@@std@@@std@@@std@@V12@@?$deque@USFXHIT_COUNT@@V?$allocator@USFXHIT_COUNT@@@std@@@std@@AAEXV?$_Deque_unchecked_const_iterator@V?$_Deque_val@U?$_Deque_simple_types@USFXHIT_COUNT@@@std@@@std@@@1@V21@@Z DD 019930522H
	DD	02H
	DD	FLAT:__unwindtable$??$_Construct@V?$_Deque_unchecked_const_iterator@V?$_Deque_val@U?$_Deque_simple_types@USFXHIT_COUNT@@@std@@@std@@@std@@V12@@?$deque@USFXHIT_COUNT@@V?$allocator@USFXHIT_COUNT@@@std@@@std@@AAEXV?$_Deque_unchecked_const_iterator@V?$_Deque_val@U?$_Deque_simple_types@USFXHIT_COUNT@@@std@@@std@@@1@V21@@Z
	DD	2 DUP(00H)
	DD	2 DUP(00H)
	DD	00H
	DD	01H
xdata$x	ENDS
;	COMDAT xdata$x
xdata$x	SEGMENT
__unwindtable$??$?0U?$pair@$$CBKV?$queue@USFXHIT_INFO@@V?$deque@USFXHIT_INFO@@V?$allocator@USFXHIT_INFO@@@std@@@std@@@std@@@std@@@?$_Tree_temp_node@V?$allocator@U?$_Tree_node@U?$pair@$$CBKV?$queue@USFXHIT_INFO@@V?$deque@USFXHIT_INFO@@V?$allocator@USFXHIT_INFO@@@std@@@std@@@std@@@std@@PAX@std@@@std@@@std@@QAE@AAV?$allocator@U?$_Tree_node@U?$pair@$$CBKV?$queue@USFXHIT_INFO@@V?$deque@USFXHIT_INFO@@V?$allocator@USFXHIT_INFO@@@std@@@std@@@std@@@std@@PAX@std@@@1@PAU?$_Tree_node@U?$pair@$$CBKV?$queue@USFXHIT_INFO@@V?$deque@USFXHIT_INFO@@V?$allocator@USFXHIT_INFO@@@std@@@std@@@std@@@std@@PAX@1@$$QAU?$pair@$$CBKV?$queue@USFXHIT_INFO@@V?$deque@USFXHIT_INFO@@V?$allocator@USFXHIT_INFO@@@std@@@std@@@std@@@1@@Z DD 0ffffffffH
	DD	FLAT:__unwindfunclet$??$?0U?$pair@$$CBKV?$queue@USFXHIT_INFO@@V?$deque@USFXHIT_INFO@@V?$allocator@USFXHIT_INFO@@@std@@@std@@@std@@@std@@@?$_Tree_temp_node@V?$allocator@U?$_Tree_node@U?$pair@$$CBKV?$queue@USFXHIT_INFO@@V?$deque@USFXHIT_INFO@@V?$allocator@USFXHIT_INFO@@@std@@@std@@@std@@@std@@PAX@std@@@std@@@std@@QAE@AAV?$allocator@U?$_Tree_node@U?$pair@$$CBKV?$queue@USFXHIT_INFO@@V?$deque@USFXHIT_INFO@@V?$allocator@USFXHIT_INFO@@@std@@@std@@@std@@@std@@PAX@std@@@1@PAU?$_Tree_node@U?$pair@$$CBKV?$queue@USFXHIT_INFO@@V?$deque@USFXHIT_INFO@@V?$allocator@USFXHIT_INFO@@@std@@@std@@@std@@@std@@PAX@1@$$QAU?$pair@$$CBKV?$queue@USFXHIT_INFO@@V?$deque@USFXHIT_INFO@@V?$allocator@USFXHIT_INFO@@@std@@@std@@@std@@@1@@Z$1
	DD	0ffffffffH
	DD	FLAT:__unwindfunclet$??$?0U?$pair@$$CBKV?$queue@USFXHIT_INFO@@V?$deque@USFXHIT_INFO@@V?$allocator@USFXHIT_INFO@@@std@@@std@@@std@@@std@@@?$_Tree_temp_node@V?$allocator@U?$_Tree_node@U?$pair@$$CBKV?$queue@USFXHIT_INFO@@V?$deque@USFXHIT_INFO@@V?$allocator@USFXHIT_INFO@@@std@@@std@@@std@@@std@@PAX@std@@@std@@@std@@QAE@AAV?$allocator@U?$_Tree_node@U?$pair@$$CBKV?$queue@USFXHIT_INFO@@V?$deque@USFXHIT_INFO@@V?$allocator@USFXHIT_INFO@@@std@@@std@@@std@@@std@@PAX@std@@@1@PAU?$_Tree_node@U?$pair@$$CBKV?$queue@USFXHIT_INFO@@V?$deque@USFXHIT_INFO@@V?$allocator@USFXHIT_INFO@@@std@@@std@@@std@@@std@@PAX@1@$$QAU?$pair@$$CBKV?$queue@USFXHIT_INFO@@V?$deque@USFXHIT_INFO@@V?$allocator@USFXHIT_INFO@@@std@@@std@@@std@@@1@@Z$0
__ehfuncinfo$??$?0U?$pair@$$CBKV?$queue@USFXHIT_INFO@@V?$deque@USFXHIT_INFO@@V?$allocator@USFXHIT_INFO@@@std@@@std@@@std@@@std@@@?$_Tree_temp_node@V?$allocator@U?$_Tree_node@U?$pair@$$CBKV?$queue@USFXHIT_INFO@@V?$deque@USFXHIT_INFO@@V?$allocator@USFXHIT_INFO@@@std@@@std@@@std@@@std@@PAX@std@@@std@@@std@@QAE@AAV?$allocator@U?$_Tree_node@U?$pair@$$CBKV?$queue@USFXHIT_INFO@@V?$deque@USFXHIT_INFO@@V?$allocator@USFXHIT_INFO@@@std@@@std@@@std@@@std@@PAX@std@@@1@PAU?$_Tree_node@U?$pair@$$CBKV?$queue@USFXHIT_INFO@@V?$deque@USFXHIT_INFO@@V?$allocator@USFXHIT_INFO@@@std@@@std@@@std@@@std@@PAX@1@$$QAU?$pair@$$CBKV?$queue@USFXHIT_INFO@@V?$deque@USFXHIT_INFO@@V?$allocator@USFXHIT_INFO@@@std@@@std@@@std@@@1@@Z DD 019930522H
	DD	02H
	DD	FLAT:__unwindtable$??$?0U?$pair@$$CBKV?$queue@USFXHIT_INFO@@V?$deque@USFXHIT_INFO@@V?$allocator@USFXHIT_INFO@@@std@@@std@@@std@@@std@@@?$_Tree_temp_node@V?$allocator@U?$_Tree_node@U?$pair@$$CBKV?$queue@USFXHIT_INFO@@V?$deque@USFXHIT_INFO@@V?$allocator@USFXHIT_INFO@@@std@@@std@@@std@@@std@@PAX@std@@@std@@@std@@QAE@AAV?$allocator@U?$_Tree_node@U?$pair@$$CBKV?$queue@USFXHIT_INFO@@V?$deque@USFXHIT_INFO@@V?$allocator@USFXHIT_INFO@@@std@@@std@@@std@@@std@@PAX@std@@@1@PAU?$_Tree_node@U?$pair@$$CBKV?$queue@USFXHIT_INFO@@V?$deque@USFXHIT_INFO@@V?$allocator@USFXHIT_INFO@@@std@@@std@@@std@@@std@@PAX@1@$$QAU?$pair@$$CBKV?$queue@USFXHIT_INFO@@V?$deque@USFXHIT_INFO@@V?$allocator@USFXHIT_INFO@@@std@@@std@@@std@@@1@@Z
	DD	2 DUP(00H)
	DD	2 DUP(00H)
	DD	00H
	DD	01H
xdata$x	ENDS
;	COMDAT xdata$x
xdata$x	SEGMENT
__unwindtable$??0?$_Tree_temp_node_alloc@V?$allocator@U?$_Tree_node@U?$pair@$$CBKV?$queue@USFXHIT_INFO@@V?$deque@USFXHIT_INFO@@V?$allocator@USFXHIT_INFO@@@std@@@std@@@std@@@std@@PAX@std@@@std@@@std@@QAE@AAV?$allocator@U?$_Tree_node@U?$pair@$$CBKV?$queue@USFXHIT_INFO@@V?$deque@USFXHIT_INFO@@V?$allocator@USFXHIT_INFO@@@std@@@std@@@std@@@std@@PAX@std@@@1@@Z DD 0ffffffffH
	DD	FLAT:__unwindfunclet$??0?$_Tree_temp_node_alloc@V?$allocator@U?$_Tree_node@U?$pair@$$CBKV?$queue@USFXHIT_INFO@@V?$deque@USFXHIT_INFO@@V?$allocator@USFXHIT_INFO@@@std@@@std@@@std@@@std@@PAX@std@@@std@@@std@@QAE@AAV?$allocator@U?$_Tree_node@U?$pair@$$CBKV?$queue@USFXHIT_INFO@@V?$deque@USFXHIT_INFO@@V?$allocator@USFXHIT_INFO@@@std@@@std@@@std@@@std@@PAX@std@@@1@@Z$0
__ehfuncinfo$??0?$_Tree_temp_node_alloc@V?$allocator@U?$_Tree_node@U?$pair@$$CBKV?$queue@USFXHIT_INFO@@V?$deque@USFXHIT_INFO@@V?$allocator@USFXHIT_INFO@@@std@@@std@@@std@@@std@@PAX@std@@@std@@@std@@QAE@AAV?$allocator@U?$_Tree_node@U?$pair@$$CBKV?$queue@USFXHIT_INFO@@V?$deque@USFXHIT_INFO@@V?$allocator@USFXHIT_INFO@@@std@@@std@@@std@@@std@@PAX@std@@@1@@Z DD 019930522H
	DD	01H
	DD	FLAT:__unwindtable$??0?$_Tree_temp_node_alloc@V?$allocator@U?$_Tree_node@U?$pair@$$CBKV?$queue@USFXHIT_INFO@@V?$deque@USFXHIT_INFO@@V?$allocator@USFXHIT_INFO@@@std@@@std@@@std@@@std@@PAX@std@@@std@@@std@@QAE@AAV?$allocator@U?$_Tree_node@U?$pair@$$CBKV?$queue@USFXHIT_INFO@@V?$deque@USFXHIT_INFO@@V?$allocator@USFXHIT_INFO@@@std@@@std@@@std@@@std@@PAX@std@@@1@@Z
	DD	2 DUP(00H)
	DD	2 DUP(00H)
	DD	00H
	DD	01H
xdata$x	ENDS
;	COMDAT xdata$x
xdata$x	SEGMENT
__unwindtable$??$?0U?$pair@$$CBKV?$queue@USFXHIT_COUNT@@V?$deque@USFXHIT_COUNT@@V?$allocator@USFXHIT_COUNT@@@std@@@std@@@std@@@std@@@?$_Tree_temp_node@V?$allocator@U?$_Tree_node@U?$pair@$$CBKV?$queue@USFXHIT_COUNT@@V?$deque@USFXHIT_COUNT@@V?$allocator@USFXHIT_COUNT@@@std@@@std@@@std@@@std@@PAX@std@@@std@@@std@@QAE@AAV?$allocator@U?$_Tree_node@U?$pair@$$CBKV?$queue@USFXHIT_COUNT@@V?$deque@USFXHIT_COUNT@@V?$allocator@USFXHIT_COUNT@@@std@@@std@@@std@@@std@@PAX@std@@@1@PAU?$_Tree_node@U?$pair@$$CBKV?$queue@USFXHIT_COUNT@@V?$deque@USFXHIT_COUNT@@V?$allocator@USFXHIT_COUNT@@@std@@@std@@@std@@@std@@PAX@1@$$QAU?$pair@$$CBKV?$queue@USFXHIT_COUNT@@V?$deque@USFXHIT_COUNT@@V?$allocator@USFXHIT_COUNT@@@std@@@std@@@std@@@1@@Z DD 0ffffffffH
	DD	FLAT:__unwindfunclet$??$?0U?$pair@$$CBKV?$queue@USFXHIT_COUNT@@V?$deque@USFXHIT_COUNT@@V?$allocator@USFXHIT_COUNT@@@std@@@std@@@std@@@std@@@?$_Tree_temp_node@V?$allocator@U?$_Tree_node@U?$pair@$$CBKV?$queue@USFXHIT_COUNT@@V?$deque@USFXHIT_COUNT@@V?$allocator@USFXHIT_COUNT@@@std@@@std@@@std@@@std@@PAX@std@@@std@@@std@@QAE@AAV?$allocator@U?$_Tree_node@U?$pair@$$CBKV?$queue@USFXHIT_COUNT@@V?$deque@USFXHIT_COUNT@@V?$allocator@USFXHIT_COUNT@@@std@@@std@@@std@@@std@@PAX@std@@@1@PAU?$_Tree_node@U?$pair@$$CBKV?$queue@USFXHIT_COUNT@@V?$deque@USFXHIT_COUNT@@V?$allocator@USFXHIT_COUNT@@@std@@@std@@@std@@@std@@PAX@1@$$QAU?$pair@$$CBKV?$queue@USFXHIT_COUNT@@V?$deque@USFXHIT_COUNT@@V?$allocator@USFXHIT_COUNT@@@std@@@std@@@std@@@1@@Z$1
	DD	0ffffffffH
	DD	FLAT:__unwindfunclet$??$?0U?$pair@$$CBKV?$queue@USFXHIT_COUNT@@V?$deque@USFXHIT_COUNT@@V?$allocator@USFXHIT_COUNT@@@std@@@std@@@std@@@std@@@?$_Tree_temp_node@V?$allocator@U?$_Tree_node@U?$pair@$$CBKV?$queue@USFXHIT_COUNT@@V?$deque@USFXHIT_COUNT@@V?$allocator@USFXHIT_COUNT@@@std@@@std@@@std@@@std@@PAX@std@@@std@@@std@@QAE@AAV?$allocator@U?$_Tree_node@U?$pair@$$CBKV?$queue@USFXHIT_COUNT@@V?$deque@USFXHIT_COUNT@@V?$allocator@USFXHIT_COUNT@@@std@@@std@@@std@@@std@@PAX@std@@@1@PAU?$_Tree_node@U?$pair@$$CBKV?$queue@USFXHIT_COUNT@@V?$deque@USFXHIT_COUNT@@V?$allocator@USFXHIT_COUNT@@@std@@@std@@@std@@@std@@PAX@1@$$QAU?$pair@$$CBKV?$queue@USFXHIT_COUNT@@V?$deque@USFXHIT_COUNT@@V?$allocator@USFXHIT_COUNT@@@std@@@std@@@std@@@1@@Z$0
__ehfuncinfo$??$?0U?$pair@$$CBKV?$queue@USFXHIT_COUNT@@V?$deque@USFXHIT_COUNT@@V?$allocator@USFXHIT_COUNT@@@std@@@std@@@std@@@std@@@?$_Tree_temp_node@V?$allocator@U?$_Tree_node@U?$pair@$$CBKV?$queue@USFXHIT_COUNT@@V?$deque@USFXHIT_COUNT@@V?$allocator@USFXHIT_COUNT@@@std@@@std@@@std@@@std@@PAX@std@@@std@@@std@@QAE@AAV?$allocator@U?$_Tree_node@U?$pair@$$CBKV?$queue@USFXHIT_COUNT@@V?$deque@USFXHIT_COUNT@@V?$allocator@USFXHIT_COUNT@@@std@@@std@@@std@@@std@@PAX@std@@@1@PAU?$_Tree_node@U?$pair@$$CBKV?$queue@USFXHIT_COUNT@@V?$deque@USFXHIT_COUNT@@V?$allocator@USFXHIT_COUNT@@@std@@@std@@@std@@@std@@PAX@1@$$QAU?$pair@$$CBKV?$queue@USFXHIT_COUNT@@V?$deque@USFXHIT_COUNT@@V?$allocator@USFXHIT_COUNT@@@std@@@std@@@std@@@1@@Z DD 019930522H
	DD	02H
	DD	FLAT:__unwindtable$??$?0U?$pair@$$CBKV?$queue@USFXHIT_COUNT@@V?$deque@USFXHIT_COUNT@@V?$allocator@USFXHIT_COUNT@@@std@@@std@@@std@@@std@@@?$_Tree_temp_node@V?$allocator@U?$_Tree_node@U?$pair@$$CBKV?$queue@USFXHIT_COUNT@@V?$deque@USFXHIT_COUNT@@V?$allocator@USFXHIT_COUNT@@@std@@@std@@@std@@@std@@PAX@std@@@std@@@std@@QAE@AAV?$allocator@U?$_Tree_node@U?$pair@$$CBKV?$queue@USFXHIT_COUNT@@V?$deque@USFXHIT_COUNT@@V?$allocator@USFXHIT_COUNT@@@std@@@std@@@std@@@std@@PAX@std@@@1@PAU?$_Tree_node@U?$pair@$$CBKV?$queue@USFXHIT_COUNT@@V?$deque@USFXHIT_COUNT@@V?$allocator@USFXHIT_COUNT@@@std@@@std@@@std@@@std@@PAX@1@$$QAU?$pair@$$CBKV?$queue@USFXHIT_COUNT@@V?$deque@USFXHIT_COUNT@@V?$allocator@USFXHIT_COUNT@@@std@@@std@@@std@@@1@@Z
	DD	2 DUP(00H)
	DD	2 DUP(00H)
	DD	00H
	DD	01H
xdata$x	ENDS
;	COMDAT xdata$x
xdata$x	SEGMENT
__unwindtable$??0?$_Tree_temp_node_alloc@V?$allocator@U?$_Tree_node@U?$pair@$$CBKV?$queue@USFXHIT_COUNT@@V?$deque@USFXHIT_COUNT@@V?$allocator@USFXHIT_COUNT@@@std@@@std@@@std@@@std@@PAX@std@@@std@@@std@@QAE@AAV?$allocator@U?$_Tree_node@U?$pair@$$CBKV?$queue@USFXHIT_COUNT@@V?$deque@USFXHIT_COUNT@@V?$allocator@USFXHIT_COUNT@@@std@@@std@@@std@@@std@@PAX@std@@@1@@Z DD 0ffffffffH
	DD	FLAT:__unwindfunclet$??0?$_Tree_temp_node_alloc@V?$allocator@U?$_Tree_node@U?$pair@$$CBKV?$queue@USFXHIT_COUNT@@V?$deque@USFXHIT_COUNT@@V?$allocator@USFXHIT_COUNT@@@std@@@std@@@std@@@std@@PAX@std@@@std@@@std@@QAE@AAV?$allocator@U?$_Tree_node@U?$pair@$$CBKV?$queue@USFXHIT_COUNT@@V?$deque@USFXHIT_COUNT@@V?$allocator@USFXHIT_COUNT@@@std@@@std@@@std@@@std@@PAX@std@@@1@@Z$0
__ehfuncinfo$??0?$_Tree_temp_node_alloc@V?$allocator@U?$_Tree_node@U?$pair@$$CBKV?$queue@USFXHIT_COUNT@@V?$deque@USFXHIT_COUNT@@V?$allocator@USFXHIT_COUNT@@@std@@@std@@@std@@@std@@PAX@std@@@std@@@std@@QAE@AAV?$allocator@U?$_Tree_node@U?$pair@$$CBKV?$queue@USFXHIT_COUNT@@V?$deque@USFXHIT_COUNT@@V?$allocator@USFXHIT_COUNT@@@std@@@std@@@std@@@std@@PAX@std@@@1@@Z DD 019930522H
	DD	01H
	DD	FLAT:__unwindtable$??0?$_Tree_temp_node_alloc@V?$allocator@U?$_Tree_node@U?$pair@$$CBKV?$queue@USFXHIT_COUNT@@V?$deque@USFXHIT_COUNT@@V?$allocator@USFXHIT_COUNT@@@std@@@std@@@std@@@std@@PAX@std@@@std@@@std@@QAE@AAV?$allocator@U?$_Tree_node@U?$pair@$$CBKV?$queue@USFXHIT_COUNT@@V?$deque@USFXHIT_COUNT@@V?$allocator@USFXHIT_COUNT@@@std@@@std@@@std@@@std@@PAX@std@@@1@@Z
	DD	2 DUP(00H)
	DD	2 DUP(00H)
	DD	00H
	DD	01H
xdata$x	ENDS
;	COMDAT xdata$x
xdata$x	SEGMENT
__unwindtable$??$_Emplace@U?$pair@$$CBKV?$queue@USFXHIT_INFO@@V?$deque@USFXHIT_INFO@@V?$allocator@USFXHIT_INFO@@@std@@@std@@@std@@@std@@@?$_Tree@V?$_Tmap_traits@KV?$queue@USFXHIT_INFO@@V?$deque@USFXHIT_INFO@@V?$allocator@USFXHIT_INFO@@@std@@@std@@@std@@U?$less@K@2@V?$allocator@U?$pair@$$CBKV?$queue@USFXHIT_INFO@@V?$deque@USFXHIT_INFO@@V?$allocator@USFXHIT_INFO@@@std@@@std@@@std@@@std@@@2@$0A@@std@@@std@@IAE?AU?$pair@PAU?$_Tree_node@U?$pair@$$CBKV?$queue@USFXHIT_INFO@@V?$deque@USFXHIT_INFO@@V?$allocator@USFXHIT_INFO@@@std@@@std@@@std@@@std@@PAX@std@@_N@1@$$QAU?$pair@$$CBKV?$queue@USFXHIT_INFO@@V?$deque@USFXHIT_INFO@@V?$allocator@USFXHIT_INFO@@@std@@@std@@@std@@@1@@Z DD 0ffffffffH
	DD	FLAT:__unwindfunclet$??$_Emplace@U?$pair@$$CBKV?$queue@USFXHIT_INFO@@V?$deque@USFXHIT_INFO@@V?$allocator@USFXHIT_INFO@@@std@@@std@@@std@@@std@@@?$_Tree@V?$_Tmap_traits@KV?$queue@USFXHIT_INFO@@V?$deque@USFXHIT_INFO@@V?$allocator@USFXHIT_INFO@@@std@@@std@@@std@@U?$less@K@2@V?$allocator@U?$pair@$$CBKV?$queue@USFXHIT_INFO@@V?$deque@USFXHIT_INFO@@V?$allocator@USFXHIT_INFO@@@std@@@std@@@std@@@std@@@2@$0A@@std@@@std@@IAE?AU?$pair@PAU?$_Tree_node@U?$pair@$$CBKV?$queue@USFXHIT_INFO@@V?$deque@USFXHIT_INFO@@V?$allocator@USFXHIT_INFO@@@std@@@std@@@std@@@std@@PAX@std@@_N@1@$$QAU?$pair@$$CBKV?$queue@USFXHIT_INFO@@V?$deque@USFXHIT_INFO@@V?$allocator@USFXHIT_INFO@@@std@@@std@@@std@@@1@@Z$2
	DD	0ffffffffH
	DD	FLAT:__unwindfunclet$??$_Emplace@U?$pair@$$CBKV?$queue@USFXHIT_INFO@@V?$deque@USFXHIT_INFO@@V?$allocator@USFXHIT_INFO@@@std@@@std@@@std@@@std@@@?$_Tree@V?$_Tmap_traits@KV?$queue@USFXHIT_INFO@@V?$deque@USFXHIT_INFO@@V?$allocator@USFXHIT_INFO@@@std@@@std@@@std@@U?$less@K@2@V?$allocator@U?$pair@$$CBKV?$queue@USFXHIT_INFO@@V?$deque@USFXHIT_INFO@@V?$allocator@USFXHIT_INFO@@@std@@@std@@@std@@@std@@@2@$0A@@std@@@std@@IAE?AU?$pair@PAU?$_Tree_node@U?$pair@$$CBKV?$queue@USFXHIT_INFO@@V?$deque@USFXHIT_INFO@@V?$allocator@USFXHIT_INFO@@@std@@@std@@@std@@@std@@PAX@std@@_N@1@$$QAU?$pair@$$CBKV?$queue@USFXHIT_INFO@@V?$deque@USFXHIT_INFO@@V?$allocator@USFXHIT_INFO@@@std@@@std@@@std@@@1@@Z$1
__ehfuncinfo$??$_Emplace@U?$pair@$$CBKV?$queue@USFXHIT_INFO@@V?$deque@USFXHIT_INFO@@V?$allocator@USFXHIT_INFO@@@std@@@std@@@std@@@std@@@?$_Tree@V?$_Tmap_traits@KV?$queue@USFXHIT_INFO@@V?$deque@USFXHIT_INFO@@V?$allocator@USFXHIT_INFO@@@std@@@std@@@std@@U?$less@K@2@V?$allocator@U?$pair@$$CBKV?$queue@USFXHIT_INFO@@V?$deque@USFXHIT_INFO@@V?$allocator@USFXHIT_INFO@@@std@@@std@@@std@@@std@@@2@$0A@@std@@@std@@IAE?AU?$pair@PAU?$_Tree_node@U?$pair@$$CBKV?$queue@USFXHIT_INFO@@V?$deque@USFXHIT_INFO@@V?$allocator@USFXHIT_INFO@@@std@@@std@@@std@@@std@@PAX@std@@_N@1@$$QAU?$pair@$$CBKV?$queue@USFXHIT_INFO@@V?$deque@USFXHIT_INFO@@V?$allocator@USFXHIT_INFO@@@std@@@std@@@std@@@1@@Z DD 019930522H
	DD	02H
	DD	FLAT:__unwindtable$??$_Emplace@U?$pair@$$CBKV?$queue@USFXHIT_INFO@@V?$deque@USFXHIT_INFO@@V?$allocator@USFXHIT_INFO@@@std@@@std@@@std@@@std@@@?$_Tree@V?$_Tmap_traits@KV?$queue@USFXHIT_INFO@@V?$deque@USFXHIT_INFO@@V?$allocator@USFXHIT_INFO@@@std@@@std@@@std@@U?$less@K@2@V?$allocator@U?$pair@$$CBKV?$queue@USFXHIT_INFO@@V?$deque@USFXHIT_INFO@@V?$allocator@USFXHIT_INFO@@@std@@@std@@@std@@@std@@@2@$0A@@std@@@std@@IAE?AU?$pair@PAU?$_Tree_node@U?$pair@$$CBKV?$queue@USFXHIT_INFO@@V?$deque@USFXHIT_INFO@@V?$allocator@USFXHIT_INFO@@@std@@@std@@@std@@@std@@PAX@std@@_N@1@$$QAU?$pair@$$CBKV?$queue@USFXHIT_INFO@@V?$deque@USFXHIT_INFO@@V?$allocator@USFXHIT_INFO@@@std@@@std@@@std@@@1@@Z
	DD	2 DUP(00H)
	DD	2 DUP(00H)
	DD	00H
	DD	01H
xdata$x	ENDS
;	COMDAT xdata$x
xdata$x	SEGMENT
__unwindtable$??$_Emplace@U?$pair@$$CBKV?$queue@USFXHIT_COUNT@@V?$deque@USFXHIT_COUNT@@V?$allocator@USFXHIT_COUNT@@@std@@@std@@@std@@@std@@@?$_Tree@V?$_Tmap_traits@KV?$queue@USFXHIT_COUNT@@V?$deque@USFXHIT_COUNT@@V?$allocator@USFXHIT_COUNT@@@std@@@std@@@std@@U?$less@K@2@V?$allocator@U?$pair@$$CBKV?$queue@USFXHIT_COUNT@@V?$deque@USFXHIT_COUNT@@V?$allocator@USFXHIT_COUNT@@@std@@@std@@@std@@@std@@@2@$0A@@std@@@std@@IAE?AU?$pair@PAU?$_Tree_node@U?$pair@$$CBKV?$queue@USFXHIT_COUNT@@V?$deque@USFXHIT_COUNT@@V?$allocator@USFXHIT_COUNT@@@std@@@std@@@std@@@std@@PAX@std@@_N@1@$$QAU?$pair@$$CBKV?$queue@USFXHIT_COUNT@@V?$deque@USFXHIT_COUNT@@V?$allocator@USFXHIT_COUNT@@@std@@@std@@@std@@@1@@Z DD 0ffffffffH
	DD	FLAT:__unwindfunclet$??$_Emplace@U?$pair@$$CBKV?$queue@USFXHIT_COUNT@@V?$deque@USFXHIT_COUNT@@V?$allocator@USFXHIT_COUNT@@@std@@@std@@@std@@@std@@@?$_Tree@V?$_Tmap_traits@KV?$queue@USFXHIT_COUNT@@V?$deque@USFXHIT_COUNT@@V?$allocator@USFXHIT_COUNT@@@std@@@std@@@std@@U?$less@K@2@V?$allocator@U?$pair@$$CBKV?$queue@USFXHIT_COUNT@@V?$deque@USFXHIT_COUNT@@V?$allocator@USFXHIT_COUNT@@@std@@@std@@@std@@@std@@@2@$0A@@std@@@std@@IAE?AU?$pair@PAU?$_Tree_node@U?$pair@$$CBKV?$queue@USFXHIT_COUNT@@V?$deque@USFXHIT_COUNT@@V?$allocator@USFXHIT_COUNT@@@std@@@std@@@std@@@std@@PAX@std@@_N@1@$$QAU?$pair@$$CBKV?$queue@USFXHIT_COUNT@@V?$deque@USFXHIT_COUNT@@V?$allocator@USFXHIT_COUNT@@@std@@@std@@@std@@@1@@Z$2
	DD	0ffffffffH
	DD	FLAT:__unwindfunclet$??$_Emplace@U?$pair@$$CBKV?$queue@USFXHIT_COUNT@@V?$deque@USFXHIT_COUNT@@V?$allocator@USFXHIT_COUNT@@@std@@@std@@@std@@@std@@@?$_Tree@V?$_Tmap_traits@KV?$queue@USFXHIT_COUNT@@V?$deque@USFXHIT_COUNT@@V?$allocator@USFXHIT_COUNT@@@std@@@std@@@std@@U?$less@K@2@V?$allocator@U?$pair@$$CBKV?$queue@USFXHIT_COUNT@@V?$deque@USFXHIT_COUNT@@V?$allocator@USFXHIT_COUNT@@@std@@@std@@@std@@@std@@@2@$0A@@std@@@std@@IAE?AU?$pair@PAU?$_Tree_node@U?$pair@$$CBKV?$queue@USFXHIT_COUNT@@V?$deque@USFXHIT_COUNT@@V?$allocator@USFXHIT_COUNT@@@std@@@std@@@std@@@std@@PAX@std@@_N@1@$$QAU?$pair@$$CBKV?$queue@USFXHIT_COUNT@@V?$deque@USFXHIT_COUNT@@V?$allocator@USFXHIT_COUNT@@@std@@@std@@@std@@@1@@Z$1
__ehfuncinfo$??$_Emplace@U?$pair@$$CBKV?$queue@USFXHIT_COUNT@@V?$deque@USFXHIT_COUNT@@V?$allocator@USFXHIT_COUNT@@@std@@@std@@@std@@@std@@@?$_Tree@V?$_Tmap_traits@KV?$queue@USFXHIT_COUNT@@V?$deque@USFXHIT_COUNT@@V?$allocator@USFXHIT_COUNT@@@std@@@std@@@std@@U?$less@K@2@V?$allocator@U?$pair@$$CBKV?$queue@USFXHIT_COUNT@@V?$deque@USFXHIT_COUNT@@V?$allocator@USFXHIT_COUNT@@@std@@@std@@@std@@@std@@@2@$0A@@std@@@std@@IAE?AU?$pair@PAU?$_Tree_node@U?$pair@$$CBKV?$queue@USFXHIT_COUNT@@V?$deque@USFXHIT_COUNT@@V?$allocator@USFXHIT_COUNT@@@std@@@std@@@std@@@std@@PAX@std@@_N@1@$$QAU?$pair@$$CBKV?$queue@USFXHIT_COUNT@@V?$deque@USFXHIT_COUNT@@V?$allocator@USFXHIT_COUNT@@@std@@@std@@@std@@@1@@Z DD 019930522H
	DD	02H
	DD	FLAT:__unwindtable$??$_Emplace@U?$pair@$$CBKV?$queue@USFXHIT_COUNT@@V?$deque@USFXHIT_COUNT@@V?$allocator@USFXHIT_COUNT@@@std@@@std@@@std@@@std@@@?$_Tree@V?$_Tmap_traits@KV?$queue@USFXHIT_COUNT@@V?$deque@USFXHIT_COUNT@@V?$allocator@USFXHIT_COUNT@@@std@@@std@@@std@@U?$less@K@2@V?$allocator@U?$pair@$$CBKV?$queue@USFXHIT_COUNT@@V?$deque@USFXHIT_COUNT@@V?$allocator@USFXHIT_COUNT@@@std@@@std@@@std@@@std@@@2@$0A@@std@@@std@@IAE?AU?$pair@PAU?$_Tree_node@U?$pair@$$CBKV?$queue@USFXHIT_COUNT@@V?$deque@USFXHIT_COUNT@@V?$allocator@USFXHIT_COUNT@@@std@@@std@@@std@@@std@@PAX@std@@_N@1@$$QAU?$pair@$$CBKV?$queue@USFXHIT_COUNT@@V?$deque@USFXHIT_COUNT@@V?$allocator@USFXHIT_COUNT@@@std@@@std@@@std@@@1@@Z
	DD	2 DUP(00H)
	DD	2 DUP(00H)
	DD	00H
	DD	01H
xdata$x	ENDS
;	COMDAT xdata$x
xdata$x	SEGMENT
__unwindtable$??$insert@$0A@$0A@@?$_Tree@V?$_Tmap_traits@KV?$queue@USFXHIT_INFO@@V?$deque@USFXHIT_INFO@@V?$allocator@USFXHIT_INFO@@@std@@@std@@@std@@U?$less@K@2@V?$allocator@U?$pair@$$CBKV?$queue@USFXHIT_INFO@@V?$deque@USFXHIT_INFO@@V?$allocator@USFXHIT_INFO@@@std@@@std@@@std@@@std@@@2@$0A@@std@@@std@@QAE?AU?$pair@V?$_Tree_iterator@V?$_Tree_val@U?$_Tree_simple_types@U?$pair@$$CBKV?$queue@USFXHIT_INFO@@V?$deque@USFXHIT_INFO@@V?$allocator@USFXHIT_INFO@@@std@@@std@@@std@@@std@@@std@@@std@@@std@@_N@1@$$QAU?$pair@$$CBKV?$queue@USFXHIT_INFO@@V?$deque@USFXHIT_INFO@@V?$allocator@USFXHIT_INFO@@@std@@@std@@@std@@@1@@Z DD 0ffffffffH
	DD	FLAT:__unwindfunclet$??$insert@$0A@$0A@@?$_Tree@V?$_Tmap_traits@KV?$queue@USFXHIT_INFO@@V?$deque@USFXHIT_INFO@@V?$allocator@USFXHIT_INFO@@@std@@@std@@@std@@U?$less@K@2@V?$allocator@U?$pair@$$CBKV?$queue@USFXHIT_INFO@@V?$deque@USFXHIT_INFO@@V?$allocator@USFXHIT_INFO@@@std@@@std@@@std@@@std@@@2@$0A@@std@@@std@@QAE?AU?$pair@V?$_Tree_iterator@V?$_Tree_val@U?$_Tree_simple_types@U?$pair@$$CBKV?$queue@USFXHIT_INFO@@V?$deque@USFXHIT_INFO@@V?$allocator@USFXHIT_INFO@@@std@@@std@@@std@@@std@@@std@@@std@@@std@@_N@1@$$QAU?$pair@$$CBKV?$queue@USFXHIT_INFO@@V?$deque@USFXHIT_INFO@@V?$allocator@USFXHIT_INFO@@@std@@@std@@@std@@@1@@Z$2
	DD	0ffffffffH
	DD	FLAT:__unwindfunclet$??$insert@$0A@$0A@@?$_Tree@V?$_Tmap_traits@KV?$queue@USFXHIT_INFO@@V?$deque@USFXHIT_INFO@@V?$allocator@USFXHIT_INFO@@@std@@@std@@@std@@U?$less@K@2@V?$allocator@U?$pair@$$CBKV?$queue@USFXHIT_INFO@@V?$deque@USFXHIT_INFO@@V?$allocator@USFXHIT_INFO@@@std@@@std@@@std@@@std@@@2@$0A@@std@@@std@@QAE?AU?$pair@V?$_Tree_iterator@V?$_Tree_val@U?$_Tree_simple_types@U?$pair@$$CBKV?$queue@USFXHIT_INFO@@V?$deque@USFXHIT_INFO@@V?$allocator@USFXHIT_INFO@@@std@@@std@@@std@@@std@@@std@@@std@@@std@@_N@1@$$QAU?$pair@$$CBKV?$queue@USFXHIT_INFO@@V?$deque@USFXHIT_INFO@@V?$allocator@USFXHIT_INFO@@@std@@@std@@@std@@@1@@Z$1
__ehfuncinfo$??$insert@$0A@$0A@@?$_Tree@V?$_Tmap_traits@KV?$queue@USFXHIT_INFO@@V?$deque@USFXHIT_INFO@@V?$allocator@USFXHIT_INFO@@@std@@@std@@@std@@U?$less@K@2@V?$allocator@U?$pair@$$CBKV?$queue@USFXHIT_INFO@@V?$deque@USFXHIT_INFO@@V?$allocator@USFXHIT_INFO@@@std@@@std@@@std@@@std@@@2@$0A@@std@@@std@@QAE?AU?$pair@V?$_Tree_iterator@V?$_Tree_val@U?$_Tree_simple_types@U?$pair@$$CBKV?$queue@USFXHIT_INFO@@V?$deque@USFXHIT_INFO@@V?$allocator@USFXHIT_INFO@@@std@@@std@@@std@@@std@@@std@@@std@@@std@@_N@1@$$QAU?$pair@$$CBKV?$queue@USFXHIT_INFO@@V?$deque@USFXHIT_INFO@@V?$allocator@USFXHIT_INFO@@@std@@@std@@@std@@@1@@Z DD 019930522H
	DD	02H
	DD	FLAT:__unwindtable$??$insert@$0A@$0A@@?$_Tree@V?$_Tmap_traits@KV?$queue@USFXHIT_INFO@@V?$deque@USFXHIT_INFO@@V?$allocator@USFXHIT_INFO@@@std@@@std@@@std@@U?$less@K@2@V?$allocator@U?$pair@$$CBKV?$queue@USFXHIT_INFO@@V?$deque@USFXHIT_INFO@@V?$allocator@USFXHIT_INFO@@@std@@@std@@@std@@@std@@@2@$0A@@std@@@std@@QAE?AU?$pair@V?$_Tree_iterator@V?$_Tree_val@U?$_Tree_simple_types@U?$pair@$$CBKV?$queue@USFXHIT_INFO@@V?$deque@USFXHIT_INFO@@V?$allocator@USFXHIT_INFO@@@std@@@std@@@std@@@std@@@std@@@std@@@std@@_N@1@$$QAU?$pair@$$CBKV?$queue@USFXHIT_INFO@@V?$deque@USFXHIT_INFO@@V?$allocator@USFXHIT_INFO@@@std@@@std@@@std@@@1@@Z
	DD	2 DUP(00H)
	DD	2 DUP(00H)
	DD	00H
	DD	01H
xdata$x	ENDS
;	COMDAT xdata$x
xdata$x	SEGMENT
__unwindtable$??$?0AAKAAV?$queue@USFXHIT_INFO@@V?$deque@USFXHIT_INFO@@V?$allocator@USFXHIT_INFO@@@std@@@std@@@std@@$0A@@?$pair@$$CBKV?$queue@USFXHIT_INFO@@V?$deque@USFXHIT_INFO@@V?$allocator@USFXHIT_INFO@@@std@@@std@@@std@@@std@@QAE@AAKAAV?$queue@USFXHIT_INFO@@V?$deque@USFXHIT_INFO@@V?$allocator@USFXHIT_INFO@@@std@@@std@@@1@@Z DD 0ffffffffH
	DD	FLAT:__unwindfunclet$??$?0AAKAAV?$queue@USFXHIT_INFO@@V?$deque@USFXHIT_INFO@@V?$allocator@USFXHIT_INFO@@@std@@@std@@@std@@$0A@@?$pair@$$CBKV?$queue@USFXHIT_INFO@@V?$deque@USFXHIT_INFO@@V?$allocator@USFXHIT_INFO@@@std@@@std@@@std@@@std@@QAE@AAKAAV?$queue@USFXHIT_INFO@@V?$deque@USFXHIT_INFO@@V?$allocator@USFXHIT_INFO@@@std@@@std@@@1@@Z$2
	DD	00H
	DD	FLAT:__unwindfunclet$??$?0AAKAAV?$queue@USFXHIT_INFO@@V?$deque@USFXHIT_INFO@@V?$allocator@USFXHIT_INFO@@@std@@@std@@@std@@$0A@@?$pair@$$CBKV?$queue@USFXHIT_INFO@@V?$deque@USFXHIT_INFO@@V?$allocator@USFXHIT_INFO@@@std@@@std@@@std@@@std@@QAE@AAKAAV?$queue@USFXHIT_INFO@@V?$deque@USFXHIT_INFO@@V?$allocator@USFXHIT_INFO@@@std@@@std@@@1@@Z$3
__ehfuncinfo$??$?0AAKAAV?$queue@USFXHIT_INFO@@V?$deque@USFXHIT_INFO@@V?$allocator@USFXHIT_INFO@@@std@@@std@@@std@@$0A@@?$pair@$$CBKV?$queue@USFXHIT_INFO@@V?$deque@USFXHIT_INFO@@V?$allocator@USFXHIT_INFO@@@std@@@std@@@std@@@std@@QAE@AAKAAV?$queue@USFXHIT_INFO@@V?$deque@USFXHIT_INFO@@V?$allocator@USFXHIT_INFO@@@std@@@std@@@1@@Z DD 019930522H
	DD	02H
	DD	FLAT:__unwindtable$??$?0AAKAAV?$queue@USFXHIT_INFO@@V?$deque@USFXHIT_INFO@@V?$allocator@USFXHIT_INFO@@@std@@@std@@@std@@$0A@@?$pair@$$CBKV?$queue@USFXHIT_INFO@@V?$deque@USFXHIT_INFO@@V?$allocator@USFXHIT_INFO@@@std@@@std@@@std@@@std@@QAE@AAKAAV?$queue@USFXHIT_INFO@@V?$deque@USFXHIT_INFO@@V?$allocator@USFXHIT_INFO@@@std@@@std@@@1@@Z
	DD	2 DUP(00H)
	DD	2 DUP(00H)
	DD	00H
	DD	01H
xdata$x	ENDS
;	COMDAT xdata$x
xdata$x	SEGMENT
__unwindtable$??0?$queue@USFXHIT_INFO@@V?$deque@USFXHIT_INFO@@V?$allocator@USFXHIT_INFO@@@std@@@std@@@std@@QAE@ABV01@@Z DD 0ffffffffH
	DD	FLAT:__unwindfunclet$??0?$queue@USFXHIT_INFO@@V?$deque@USFXHIT_INFO@@V?$allocator@USFXHIT_INFO@@@std@@@std@@@std@@QAE@ABV01@@Z$1
	DD	00H
	DD	FLAT:__unwindfunclet$??0?$queue@USFXHIT_INFO@@V?$deque@USFXHIT_INFO@@V?$allocator@USFXHIT_INFO@@@std@@@std@@@std@@QAE@ABV01@@Z$2
__ehfuncinfo$??0?$queue@USFXHIT_INFO@@V?$deque@USFXHIT_INFO@@V?$allocator@USFXHIT_INFO@@@std@@@std@@@std@@QAE@ABV01@@Z DD 019930522H
	DD	02H
	DD	FLAT:__unwindtable$??0?$queue@USFXHIT_INFO@@V?$deque@USFXHIT_INFO@@V?$allocator@USFXHIT_INFO@@@std@@@std@@@std@@QAE@ABV01@@Z
	DD	2 DUP(00H)
	DD	2 DUP(00H)
	DD	00H
	DD	01H
xdata$x	ENDS
;	COMDAT xdata$x
xdata$x	SEGMENT
__unwindtable$??0?$deque@USFXHIT_INFO@@V?$allocator@USFXHIT_INFO@@@std@@@std@@QAE@ABV01@@Z DD 0ffffffffH
	DD	FLAT:__unwindfunclet$??0?$deque@USFXHIT_INFO@@V?$allocator@USFXHIT_INFO@@@std@@@std@@QAE@ABV01@@Z$0
	DD	00H
	DD	FLAT:__unwindfunclet$??0?$deque@USFXHIT_INFO@@V?$allocator@USFXHIT_INFO@@@std@@@std@@QAE@ABV01@@Z$1
__ehfuncinfo$??0?$deque@USFXHIT_INFO@@V?$allocator@USFXHIT_INFO@@@std@@@std@@QAE@ABV01@@Z DD 019930522H
	DD	02H
	DD	FLAT:__unwindtable$??0?$deque@USFXHIT_INFO@@V?$allocator@USFXHIT_INFO@@@std@@@std@@QAE@ABV01@@Z
	DD	2 DUP(00H)
	DD	2 DUP(00H)
	DD	00H
	DD	01H
xdata$x	ENDS
;	COMDAT xdata$x
xdata$x	SEGMENT
__unwindtable$??$insert@$0A@$0A@@?$_Tree@V?$_Tmap_traits@KV?$queue@USFXHIT_COUNT@@V?$deque@USFXHIT_COUNT@@V?$allocator@USFXHIT_COUNT@@@std@@@std@@@std@@U?$less@K@2@V?$allocator@U?$pair@$$CBKV?$queue@USFXHIT_COUNT@@V?$deque@USFXHIT_COUNT@@V?$allocator@USFXHIT_COUNT@@@std@@@std@@@std@@@std@@@2@$0A@@std@@@std@@QAE?AU?$pair@V?$_Tree_iterator@V?$_Tree_val@U?$_Tree_simple_types@U?$pair@$$CBKV?$queue@USFXHIT_COUNT@@V?$deque@USFXHIT_COUNT@@V?$allocator@USFXHIT_COUNT@@@std@@@std@@@std@@@std@@@std@@@std@@@std@@_N@1@$$QAU?$pair@$$CBKV?$queue@USFXHIT_COUNT@@V?$deque@USFXHIT_COUNT@@V?$allocator@USFXHIT_COUNT@@@std@@@std@@@std@@@1@@Z DD 0ffffffffH
	DD	FLAT:__unwindfunclet$??$insert@$0A@$0A@@?$_Tree@V?$_Tmap_traits@KV?$queue@USFXHIT_COUNT@@V?$deque@USFXHIT_COUNT@@V?$allocator@USFXHIT_COUNT@@@std@@@std@@@std@@U?$less@K@2@V?$allocator@U?$pair@$$CBKV?$queue@USFXHIT_COUNT@@V?$deque@USFXHIT_COUNT@@V?$allocator@USFXHIT_COUNT@@@std@@@std@@@std@@@std@@@2@$0A@@std@@@std@@QAE?AU?$pair@V?$_Tree_iterator@V?$_Tree_val@U?$_Tree_simple_types@U?$pair@$$CBKV?$queue@USFXHIT_COUNT@@V?$deque@USFXHIT_COUNT@@V?$allocator@USFXHIT_COUNT@@@std@@@std@@@std@@@std@@@std@@@std@@@std@@_N@1@$$QAU?$pair@$$CBKV?$queue@USFXHIT_COUNT@@V?$deque@USFXHIT_COUNT@@V?$allocator@USFXHIT_COUNT@@@std@@@std@@@std@@@1@@Z$2
	DD	0ffffffffH
	DD	FLAT:__unwindfunclet$??$insert@$0A@$0A@@?$_Tree@V?$_Tmap_traits@KV?$queue@USFXHIT_COUNT@@V?$deque@USFXHIT_COUNT@@V?$allocator@USFXHIT_COUNT@@@std@@@std@@@std@@U?$less@K@2@V?$allocator@U?$pair@$$CBKV?$queue@USFXHIT_COUNT@@V?$deque@USFXHIT_COUNT@@V?$allocator@USFXHIT_COUNT@@@std@@@std@@@std@@@std@@@2@$0A@@std@@@std@@QAE?AU?$pair@V?$_Tree_iterator@V?$_Tree_val@U?$_Tree_simple_types@U?$pair@$$CBKV?$queue@USFXHIT_COUNT@@V?$deque@USFXHIT_COUNT@@V?$allocator@USFXHIT_COUNT@@@std@@@std@@@std@@@std@@@std@@@std@@@std@@_N@1@$$QAU?$pair@$$CBKV?$queue@USFXHIT_COUNT@@V?$deque@USFXHIT_COUNT@@V?$allocator@USFXHIT_COUNT@@@std@@@std@@@std@@@1@@Z$1
__ehfuncinfo$??$insert@$0A@$0A@@?$_Tree@V?$_Tmap_traits@KV?$queue@USFXHIT_COUNT@@V?$deque@USFXHIT_COUNT@@V?$allocator@USFXHIT_COUNT@@@std@@@std@@@std@@U?$less@K@2@V?$allocator@U?$pair@$$CBKV?$queue@USFXHIT_COUNT@@V?$deque@USFXHIT_COUNT@@V?$allocator@USFXHIT_COUNT@@@std@@@std@@@std@@@std@@@2@$0A@@std@@@std@@QAE?AU?$pair@V?$_Tree_iterator@V?$_Tree_val@U?$_Tree_simple_types@U?$pair@$$CBKV?$queue@USFXHIT_COUNT@@V?$deque@USFXHIT_COUNT@@V?$allocator@USFXHIT_COUNT@@@std@@@std@@@std@@@std@@@std@@@std@@@std@@_N@1@$$QAU?$pair@$$CBKV?$queue@USFXHIT_COUNT@@V?$deque@USFXHIT_COUNT@@V?$allocator@USFXHIT_COUNT@@@std@@@std@@@std@@@1@@Z DD 019930522H
	DD	02H
	DD	FLAT:__unwindtable$??$insert@$0A@$0A@@?$_Tree@V?$_Tmap_traits@KV?$queue@USFXHIT_COUNT@@V?$deque@USFXHIT_COUNT@@V?$allocator@USFXHIT_COUNT@@@std@@@std@@@std@@U?$less@K@2@V?$allocator@U?$pair@$$CBKV?$queue@USFXHIT_COUNT@@V?$deque@USFXHIT_COUNT@@V?$allocator@USFXHIT_COUNT@@@std@@@std@@@std@@@std@@@2@$0A@@std@@@std@@QAE?AU?$pair@V?$_Tree_iterator@V?$_Tree_val@U?$_Tree_simple_types@U?$pair@$$CBKV?$queue@USFXHIT_COUNT@@V?$deque@USFXHIT_COUNT@@V?$allocator@USFXHIT_COUNT@@@std@@@std@@@std@@@std@@@std@@@std@@@std@@_N@1@$$QAU?$pair@$$CBKV?$queue@USFXHIT_COUNT@@V?$deque@USFXHIT_COUNT@@V?$allocator@USFXHIT_COUNT@@@std@@@std@@@std@@@1@@Z
	DD	2 DUP(00H)
	DD	2 DUP(00H)
	DD	00H
	DD	01H
xdata$x	ENDS
;	COMDAT xdata$x
xdata$x	SEGMENT
__unwindtable$??0?$deque@USFXHIT_COUNT@@V?$allocator@USFXHIT_COUNT@@@std@@@std@@QAE@ABV01@@Z DD 0ffffffffH
	DD	FLAT:__unwindfunclet$??0?$deque@USFXHIT_COUNT@@V?$allocator@USFXHIT_COUNT@@@std@@@std@@QAE@ABV01@@Z$0
	DD	00H
	DD	FLAT:__unwindfunclet$??0?$deque@USFXHIT_COUNT@@V?$allocator@USFXHIT_COUNT@@@std@@@std@@QAE@ABV01@@Z$1
__ehfuncinfo$??0?$deque@USFXHIT_COUNT@@V?$allocator@USFXHIT_COUNT@@@std@@@std@@QAE@ABV01@@Z DD 019930522H
	DD	02H
	DD	FLAT:__unwindtable$??0?$deque@USFXHIT_COUNT@@V?$allocator@USFXHIT_COUNT@@@std@@@std@@QAE@ABV01@@Z
	DD	2 DUP(00H)
	DD	2 DUP(00H)
	DD	00H
	DD	01H
xdata$x	ENDS
;	COMDAT xdata$x
xdata$x	SEGMENT
__ehfuncinfo$?AddSFXInfo@CMover@@QAEXKAAUSFXHIT_INFO@@@Z DD 019930522H
	DD	06H
	DD	FLAT:__unwindtable$?AddSFXInfo@CMover@@QAEXKAAUSFXHIT_INFO@@@Z
	DD	2 DUP(00H)
	DD	2 DUP(00H)
	DD	00H
	DD	01H
__unwindtable$?AddSFXInfo@CMover@@QAEXKAAUSFXHIT_INFO@@@Z DD 0ffffffffH
	DD	FLAT:__unwindfunclet$?AddSFXInfo@CMover@@QAEXKAAUSFXHIT_INFO@@@Z$0
	DD	00H
	DD	FLAT:__unwindfunclet$?AddSFXInfo@CMover@@QAEXKAAUSFXHIT_INFO@@@Z$5
	DD	01H
	DD	FLAT:__unwindfunclet$?AddSFXInfo@CMover@@QAEXKAAUSFXHIT_INFO@@@Z$6
	DD	00H
	DD	FLAT:__unwindfunclet$?AddSFXInfo@CMover@@QAEXKAAUSFXHIT_INFO@@@Z$1
	DD	03H
	DD	FLAT:__unwindfunclet$?AddSFXInfo@CMover@@QAEXKAAUSFXHIT_INFO@@@Z$9
	DD	03H
	DD	FLAT:__unwindfunclet$?AddSFXInfo@CMover@@QAEXKAAUSFXHIT_INFO@@@Z$8
xdata$x	ENDS
;	COMDAT xdata$x
xdata$x	SEGMENT
__unwindtable$?IncSFXCount@CMover@@QAEXKK@Z DD 0ffffffffH
	DD	FLAT:__unwindfunclet$?IncSFXCount@CMover@@QAEXKK@Z$0
	DD	00H
	DD	FLAT:__unwindfunclet$?IncSFXCount@CMover@@QAEXKK@Z$1
	DD	01H
	DD	FLAT:__unwindfunclet$?IncSFXCount@CMover@@QAEXKK@Z$7
	DD	01H
	DD	FLAT:__unwindfunclet$?IncSFXCount@CMover@@QAEXKK@Z$6
__ehfuncinfo$?IncSFXCount@CMover@@QAEXKK@Z DD 019930522H
	DD	04H
	DD	FLAT:__unwindtable$?IncSFXCount@CMover@@QAEXKK@Z
	DD	2 DUP(00H)
	DD	2 DUP(00H)
	DD	00H
	DD	01H
xdata$x	ENDS
; Function compile flags: /Ogtp
; File C:\Program Files\Microsoft Visual Studio\2022\Professional\VC\Tools\MSVC\14.44.35207\include\xmemory
;	COMDAT ??$_Construct_in_place_by_deref@PAUSFXHIT_INFO@@PAPAU1@@std@@YAXAAPAUSFXHIT_INFO@@AAPAPAU1@@Z
_TEXT	SEGMENT
__Val$ = 8						; size = 4
__Iter$ = 12						; size = 4
??$_Construct_in_place_by_deref@PAUSFXHIT_INFO@@PAPAU1@@std@@YAXAAPAUSFXHIT_INFO@@AAPAPAU1@@Z PROC ; std::_Construct_in_place_by_deref<SFXHIT_INFO *,SFXHIT_INFO * *>, COMDAT

; 1610 :     noexcept(noexcept(::new (static_cast<void*>(_STD addressof(_Val))) _Ty(*_Iter))) {

  00000	55		 push	 ebp
  00001	8b ec		 mov	 ebp, esp

; 1611 :     ::new (static_cast<void*>(_STD addressof(_Val))) _Ty(*_Iter);

  00003	8b 45 0c	 mov	 eax, DWORD PTR __Iter$[ebp]
  00006	8b 00		 mov	 eax, DWORD PTR [eax]
  00008	8b 08		 mov	 ecx, DWORD PTR [eax]
  0000a	8b 45 08	 mov	 eax, DWORD PTR __Val$[ebp]
  0000d	89 08		 mov	 DWORD PTR [eax], ecx

; 1612 : }

  0000f	5d		 pop	 ebp
  00010	c3		 ret	 0
??$_Construct_in_place_by_deref@PAUSFXHIT_INFO@@PAPAU1@@std@@YAXAAPAUSFXHIT_INFO@@AAPAPAU1@@Z ENDP ; std::_Construct_in_place_by_deref<SFXHIT_INFO *,SFXHIT_INFO * *>
_TEXT	ENDS
; Function compile flags: /Ogtp
; File C:\Program Files\Microsoft Visual Studio\2022\Professional\VC\Tools\MSVC\14.44.35207\include\xutility
;	COMDAT ??$_Copy_memmove_tail@PAPAUSFXHIT_INFO@@@std@@YAPAPAUSFXHIT_INFO@@QBDQAPAU1@II@Z
_TEXT	SEGMENT
__First_ch$ = 8						; size = 4
__Dest$ = 12						; size = 4
__Byte_count$ = 16					; size = 4
__Object_count$ = 20					; size = 4
??$_Copy_memmove_tail@PAPAUSFXHIT_INFO@@@std@@YAPAPAUSFXHIT_INFO@@QBDQAPAU1@II@Z PROC ; std::_Copy_memmove_tail<SFXHIT_INFO * *>, COMDAT

; 4747 :     const char* const _First_ch, const _OutCtgIt _Dest, const size_t _Byte_count, const size_t _Object_count) {

  00000	55		 push	 ebp
  00001	8b ec		 mov	 ebp, esp
  00003	56		 push	 esi

; 4748 :     _STL_INTERNAL_CHECK(_Byte_count == _Object_count * sizeof(*_Dest));
; 4749 :     const auto _Dest_ptr = _STD _To_address(_Dest);
; 4750 :     const auto _Dest_ch  = const_cast<char*>(reinterpret_cast<const volatile char*>(_Dest_ptr));
; 4751 :     _CSTD memmove(_Dest_ch, _First_ch, _Byte_count);

  00004	8b 75 0c	 mov	 esi, DWORD PTR __Dest$[ebp]
  00007	57		 push	 edi
  00008	8b 7d 10	 mov	 edi, DWORD PTR __Byte_count$[ebp]
  0000b	57		 push	 edi
  0000c	ff 75 08	 push	 DWORD PTR __First_ch$[ebp]
  0000f	56		 push	 esi
  00010	e8 00 00 00 00	 call	 _memmove
  00015	83 c4 0c	 add	 esp, 12			; 0000000cH

; 4752 :     if constexpr (is_pointer_v<_OutCtgIt>) {
; 4753 :         (void) _Object_count;
; 4754 :         // CodeQL [SM02986] This cast is correct: we're bypassing pointer arithmetic for performance.
; 4755 :         return reinterpret_cast<_OutCtgIt>(_Dest_ch + _Byte_count);

  00018	8d 04 3e	 lea	 eax, DWORD PTR [esi+edi]
  0001b	5f		 pop	 edi
  0001c	5e		 pop	 esi

; 4756 :     } else {
; 4757 :         return _Dest + static_cast<_Iter_diff_t<_OutCtgIt>>(_Object_count);
; 4758 :     }
; 4759 : }

  0001d	5d		 pop	 ebp
  0001e	c3		 ret	 0
??$_Copy_memmove_tail@PAPAUSFXHIT_INFO@@@std@@YAPAPAUSFXHIT_INFO@@QBDQAPAU1@II@Z ENDP ; std::_Copy_memmove_tail<SFXHIT_INFO * *>
_TEXT	ENDS
; Function compile flags: /Ogtp
; File C:\Program Files\Microsoft Visual Studio\2022\Professional\VC\Tools\MSVC\14.44.35207\include\xmemory
;	COMDAT ??$_Construct_in_place_by_deref@PAUSFXHIT_COUNT@@PAPAU1@@std@@YAXAAPAUSFXHIT_COUNT@@AAPAPAU1@@Z
_TEXT	SEGMENT
__Val$ = 8						; size = 4
__Iter$ = 12						; size = 4
??$_Construct_in_place_by_deref@PAUSFXHIT_COUNT@@PAPAU1@@std@@YAXAAPAUSFXHIT_COUNT@@AAPAPAU1@@Z PROC ; std::_Construct_in_place_by_deref<SFXHIT_COUNT *,SFXHIT_COUNT * *>, COMDAT

; 1610 :     noexcept(noexcept(::new (static_cast<void*>(_STD addressof(_Val))) _Ty(*_Iter))) {

  00000	55		 push	 ebp
  00001	8b ec		 mov	 ebp, esp

; 1611 :     ::new (static_cast<void*>(_STD addressof(_Val))) _Ty(*_Iter);

  00003	8b 45 0c	 mov	 eax, DWORD PTR __Iter$[ebp]
  00006	8b 00		 mov	 eax, DWORD PTR [eax]
  00008	8b 08		 mov	 ecx, DWORD PTR [eax]
  0000a	8b 45 08	 mov	 eax, DWORD PTR __Val$[ebp]
  0000d	89 08		 mov	 DWORD PTR [eax], ecx

; 1612 : }

  0000f	5d		 pop	 ebp
  00010	c3		 ret	 0
??$_Construct_in_place_by_deref@PAUSFXHIT_COUNT@@PAPAU1@@std@@YAXAAPAUSFXHIT_COUNT@@AAPAPAU1@@Z ENDP ; std::_Construct_in_place_by_deref<SFXHIT_COUNT *,SFXHIT_COUNT * *>
_TEXT	ENDS
; Function compile flags: /Ogtp
; File C:\Program Files\Microsoft Visual Studio\2022\Professional\VC\Tools\MSVC\14.44.35207\include\xutility
;	COMDAT ??$_Copy_memmove_tail@PAPAUSFXHIT_COUNT@@@std@@YAPAPAUSFXHIT_COUNT@@QBDQAPAU1@II@Z
_TEXT	SEGMENT
__First_ch$ = 8						; size = 4
__Dest$ = 12						; size = 4
__Byte_count$ = 16					; size = 4
__Object_count$ = 20					; size = 4
??$_Copy_memmove_tail@PAPAUSFXHIT_COUNT@@@std@@YAPAPAUSFXHIT_COUNT@@QBDQAPAU1@II@Z PROC ; std::_Copy_memmove_tail<SFXHIT_COUNT * *>, COMDAT

; 4747 :     const char* const _First_ch, const _OutCtgIt _Dest, const size_t _Byte_count, const size_t _Object_count) {

  00000	55		 push	 ebp
  00001	8b ec		 mov	 ebp, esp
  00003	56		 push	 esi

; 4748 :     _STL_INTERNAL_CHECK(_Byte_count == _Object_count * sizeof(*_Dest));
; 4749 :     const auto _Dest_ptr = _STD _To_address(_Dest);
; 4750 :     const auto _Dest_ch  = const_cast<char*>(reinterpret_cast<const volatile char*>(_Dest_ptr));
; 4751 :     _CSTD memmove(_Dest_ch, _First_ch, _Byte_count);

  00004	8b 75 0c	 mov	 esi, DWORD PTR __Dest$[ebp]
  00007	57		 push	 edi
  00008	8b 7d 10	 mov	 edi, DWORD PTR __Byte_count$[ebp]
  0000b	57		 push	 edi
  0000c	ff 75 08	 push	 DWORD PTR __First_ch$[ebp]
  0000f	56		 push	 esi
  00010	e8 00 00 00 00	 call	 _memmove
  00015	83 c4 0c	 add	 esp, 12			; 0000000cH

; 4752 :     if constexpr (is_pointer_v<_OutCtgIt>) {
; 4753 :         (void) _Object_count;
; 4754 :         // CodeQL [SM02986] This cast is correct: we're bypassing pointer arithmetic for performance.
; 4755 :         return reinterpret_cast<_OutCtgIt>(_Dest_ch + _Byte_count);

  00018	8d 04 3e	 lea	 eax, DWORD PTR [esi+edi]
  0001b	5f		 pop	 edi
  0001c	5e		 pop	 esi

; 4756 :     } else {
; 4757 :         return _Dest + static_cast<_Iter_diff_t<_OutCtgIt>>(_Object_count);
; 4758 :     }
; 4759 : }

  0001d	5d		 pop	 ebp
  0001e	c3		 ret	 0
??$_Copy_memmove_tail@PAPAUSFXHIT_COUNT@@@std@@YAPAPAUSFXHIT_COUNT@@QBDQAPAU1@II@Z ENDP ; std::_Copy_memmove_tail<SFXHIT_COUNT * *>
_TEXT	ENDS
; Function compile flags: /Ogtp
; File C:\Program Files\Microsoft Visual Studio\2022\Professional\VC\Tools\MSVC\14.44.35207\include\xutility
;	COMDAT ??$_Copy_memmove@PAPAUSFXHIT_INFO@@PAPAU1@@std@@YAPAPAUSFXHIT_INFO@@PAPAU1@00@Z
_TEXT	SEGMENT
__First$ = 8						; size = 4
__Last$ = 12						; size = 4
__Dest$ = 16						; size = 4
??$_Copy_memmove@PAPAUSFXHIT_INFO@@PAPAU1@@std@@YAPAPAUSFXHIT_INFO@@PAPAU1@00@Z PROC ; std::_Copy_memmove<SFXHIT_INFO * *,SFXHIT_INFO * *>, COMDAT

; 4762 : _OutCtgIt _Copy_memmove(_CtgIt _First, _CtgIt _Last, _OutCtgIt _Dest) {

  00000	55		 push	 ebp
  00001	8b ec		 mov	 ebp, esp

; 4763 :     _STL_INTERNAL_CHECK(_First <= _Last);
; 4764 :     const auto _First_ptr    = _STD _To_address(_First);
; 4765 :     const auto _Last_ptr     = _STD _To_address(_Last);
; 4766 :     const auto _Object_count = static_cast<size_t>(_Last_ptr - _First_ptr);

  00003	8b 55 08	 mov	 edx, DWORD PTR __First$[ebp]
  00006	8b 4d 0c	 mov	 ecx, DWORD PTR __Last$[ebp]
  00009	2b ca		 sub	 ecx, edx
  0000b	8b c1		 mov	 eax, ecx
  0000d	c1 f8 02	 sar	 eax, 2

; 4767 :     const auto _First_ch     = const_cast<const char*>(reinterpret_cast<const volatile char*>(_First_ptr));
; 4768 :     const auto _Last_ch      = const_cast<const char*>(reinterpret_cast<const volatile char*>(_Last_ptr));
; 4769 :     const auto _Byte_count   = static_cast<size_t>(_Last_ch - _First_ch);
; 4770 :     return _STD _Copy_memmove_tail(_First_ch, _STD move(_Dest), _Byte_count, _Object_count);

  00010	50		 push	 eax
  00011	51		 push	 ecx
  00012	ff 75 10	 push	 DWORD PTR __Dest$[ebp]
  00015	52		 push	 edx
  00016	e8 00 00 00 00	 call	 ??$_Copy_memmove_tail@PAPAUSFXHIT_INFO@@@std@@YAPAPAUSFXHIT_INFO@@QBDQAPAU1@II@Z ; std::_Copy_memmove_tail<SFXHIT_INFO * *>
  0001b	83 c4 10	 add	 esp, 16			; 00000010H

; 4771 : }

  0001e	5d		 pop	 ebp
  0001f	c3		 ret	 0
??$_Copy_memmove@PAPAUSFXHIT_INFO@@PAPAU1@@std@@YAPAPAUSFXHIT_INFO@@PAPAU1@00@Z ENDP ; std::_Copy_memmove<SFXHIT_INFO * *,SFXHIT_INFO * *>
_TEXT	ENDS
; Function compile flags: /Ogtp
; File C:\Program Files\Microsoft Visual Studio\2022\Professional\VC\Tools\MSVC\14.44.35207\include\xutility
;	COMDAT ??$_Copy_memmove@PAPAUSFXHIT_COUNT@@PAPAU1@@std@@YAPAPAUSFXHIT_COUNT@@PAPAU1@00@Z
_TEXT	SEGMENT
__First$ = 8						; size = 4
__Last$ = 12						; size = 4
__Dest$ = 16						; size = 4
??$_Copy_memmove@PAPAUSFXHIT_COUNT@@PAPAU1@@std@@YAPAPAUSFXHIT_COUNT@@PAPAU1@00@Z PROC ; std::_Copy_memmove<SFXHIT_COUNT * *,SFXHIT_COUNT * *>, COMDAT

; 4762 : _OutCtgIt _Copy_memmove(_CtgIt _First, _CtgIt _Last, _OutCtgIt _Dest) {

  00000	55		 push	 ebp
  00001	8b ec		 mov	 ebp, esp

; 4763 :     _STL_INTERNAL_CHECK(_First <= _Last);
; 4764 :     const auto _First_ptr    = _STD _To_address(_First);
; 4765 :     const auto _Last_ptr     = _STD _To_address(_Last);
; 4766 :     const auto _Object_count = static_cast<size_t>(_Last_ptr - _First_ptr);

  00003	8b 55 08	 mov	 edx, DWORD PTR __First$[ebp]
  00006	8b 4d 0c	 mov	 ecx, DWORD PTR __Last$[ebp]
  00009	2b ca		 sub	 ecx, edx
  0000b	8b c1		 mov	 eax, ecx
  0000d	c1 f8 02	 sar	 eax, 2

; 4767 :     const auto _First_ch     = const_cast<const char*>(reinterpret_cast<const volatile char*>(_First_ptr));
; 4768 :     const auto _Last_ch      = const_cast<const char*>(reinterpret_cast<const volatile char*>(_Last_ptr));
; 4769 :     const auto _Byte_count   = static_cast<size_t>(_Last_ch - _First_ch);
; 4770 :     return _STD _Copy_memmove_tail(_First_ch, _STD move(_Dest), _Byte_count, _Object_count);

  00010	50		 push	 eax
  00011	51		 push	 ecx
  00012	ff 75 10	 push	 DWORD PTR __Dest$[ebp]
  00015	52		 push	 edx
  00016	e8 00 00 00 00	 call	 ??$_Copy_memmove_tail@PAPAUSFXHIT_COUNT@@@std@@YAPAPAUSFXHIT_COUNT@@QBDQAPAU1@II@Z ; std::_Copy_memmove_tail<SFXHIT_COUNT * *>
  0001b	83 c4 10	 add	 esp, 16			; 00000010H

; 4771 : }

  0001e	5d		 pop	 ebp
  0001f	c3		 ret	 0
??$_Copy_memmove@PAPAUSFXHIT_COUNT@@PAPAU1@@std@@YAPAPAUSFXHIT_COUNT@@PAPAU1@00@Z ENDP ; std::_Copy_memmove<SFXHIT_COUNT * *,SFXHIT_COUNT * *>
_TEXT	ENDS
; Function compile flags: /Ogtp
; File C:\Program Files\Microsoft Visual Studio\2022\Professional\VC\Tools\MSVC\14.44.35207\include\xmemory
;	COMDAT ??$_Zero_range@PAPAUSFXHIT_INFO@@@std@@YAPAPAUSFXHIT_INFO@@QAPAU1@0@Z
_TEXT	SEGMENT
__First$ = 8						; size = 4
__Last$ = 12						; size = 4
??$_Zero_range@PAPAUSFXHIT_INFO@@@std@@YAPAPAUSFXHIT_INFO@@QAPAU1@0@Z PROC ; std::_Zero_range<SFXHIT_INFO * *>, COMDAT

; 2069 : _Ptr _Zero_range(const _Ptr _First, const _Ptr _Last) { // fill [_First, _Last) with zeroes

  00000	55		 push	 ebp
  00001	8b ec		 mov	 ebp, esp

; 2070 :     char* const _First_ch = reinterpret_cast<char*>(_STD _To_address(_First));
; 2071 :     char* const _Last_ch  = reinterpret_cast<char*>(_STD _To_address(_Last));
; 2072 :     _CSTD memset(_First_ch, 0, static_cast<size_t>(_Last_ch - _First_ch));

  00003	8b 55 08	 mov	 edx, DWORD PTR __First$[ebp]
  00006	8b 4d 0c	 mov	 ecx, DWORD PTR __Last$[ebp]
  00009	2b ca		 sub	 ecx, edx
  0000b	51		 push	 ecx
  0000c	6a 00		 push	 0
  0000e	52		 push	 edx
  0000f	e8 00 00 00 00	 call	 _memset

; 2073 :     return _Last;

  00014	8b 45 0c	 mov	 eax, DWORD PTR __Last$[ebp]
  00017	83 c4 0c	 add	 esp, 12			; 0000000cH

; 2074 : }

  0001a	5d		 pop	 ebp
  0001b	c3		 ret	 0
??$_Zero_range@PAPAUSFXHIT_INFO@@@std@@YAPAPAUSFXHIT_INFO@@QAPAU1@0@Z ENDP ; std::_Zero_range<SFXHIT_INFO * *>
_TEXT	ENDS
; Function compile flags: /Ogtp
; File C:\Program Files\Microsoft Visual Studio\2022\Professional\VC\Tools\MSVC\14.44.35207\include\xmemory
;	COMDAT ??$_Uninitialized_copy_unchecked@PAPAUSFXHIT_INFO@@PAPAU1@@std@@YAPAPAUSFXHIT_INFO@@PAPAU1@QAPAU1@0@Z
_TEXT	SEGMENT
__First$ = 8						; size = 4
__Last$ = 12						; size = 4
__Dest$ = 16						; size = 4
??$_Uninitialized_copy_unchecked@PAPAUSFXHIT_INFO@@PAPAU1@@std@@YAPAPAUSFXHIT_INFO@@PAPAU1@QAPAU1@0@Z PROC ; std::_Uninitialized_copy_unchecked<SFXHIT_INFO * *,SFXHIT_INFO * *>, COMDAT

; 1945 : _NoThrowFwdIt _Uninitialized_copy_unchecked(_InIt _First, const _InIt _Last, _NoThrowFwdIt _Dest) {

  00000	55		 push	 ebp
  00001	8b ec		 mov	 ebp, esp

; 1953 :         }
; 1954 :     }
; 1955 : 
; 1956 :     _Uninitialized_backout<_NoThrowFwdIt> _Backout{_Dest};
; 1957 :     for (; _First != _Last; ++_First) {
; 1958 :         _Backout._Emplace_back_deref(_First);
; 1959 :     }
; 1960 : 
; 1961 :     return _Backout._Release();
; 1962 : }

  00003	5d		 pop	 ebp

; 1946 :     // copy [_First, _Last) to raw [_Dest, ...)
; 1947 :     if constexpr (_Iter_copy_cat<_InIt, _NoThrowFwdIt>::_Bitcopy_constructible) {
; 1948 : #if 0 // TRANSITION, _HAS_CXX26
; 1949 :         if (!_STD is_constant_evaluated())
; 1950 : #endif // _HAS_CXX26
; 1951 :         {
; 1952 :             return _STD _Copy_memmove(_First, _Last, _Dest);

  00004	e9 00 00 00 00	 jmp	 ??$_Copy_memmove@PAPAUSFXHIT_INFO@@PAPAU1@@std@@YAPAPAUSFXHIT_INFO@@PAPAU1@00@Z ; std::_Copy_memmove<SFXHIT_INFO * *,SFXHIT_INFO * *>
??$_Uninitialized_copy_unchecked@PAPAUSFXHIT_INFO@@PAPAU1@@std@@YAPAPAUSFXHIT_INFO@@PAPAU1@QAPAU1@0@Z ENDP ; std::_Uninitialized_copy_unchecked<SFXHIT_INFO * *,SFXHIT_INFO * *>
_TEXT	ENDS
; Function compile flags: /Ogtp
; File C:\Program Files\Microsoft Visual Studio\2022\Professional\VC\Tools\MSVC\14.44.35207\include\xmemory
;	COMDAT ??$_Zero_range@PAPAUSFXHIT_COUNT@@@std@@YAPAPAUSFXHIT_COUNT@@QAPAU1@0@Z
_TEXT	SEGMENT
__First$ = 8						; size = 4
__Last$ = 12						; size = 4
??$_Zero_range@PAPAUSFXHIT_COUNT@@@std@@YAPAPAUSFXHIT_COUNT@@QAPAU1@0@Z PROC ; std::_Zero_range<SFXHIT_COUNT * *>, COMDAT

; 2069 : _Ptr _Zero_range(const _Ptr _First, const _Ptr _Last) { // fill [_First, _Last) with zeroes

  00000	55		 push	 ebp
  00001	8b ec		 mov	 ebp, esp

; 2070 :     char* const _First_ch = reinterpret_cast<char*>(_STD _To_address(_First));
; 2071 :     char* const _Last_ch  = reinterpret_cast<char*>(_STD _To_address(_Last));
; 2072 :     _CSTD memset(_First_ch, 0, static_cast<size_t>(_Last_ch - _First_ch));

  00003	8b 55 08	 mov	 edx, DWORD PTR __First$[ebp]
  00006	8b 4d 0c	 mov	 ecx, DWORD PTR __Last$[ebp]
  00009	2b ca		 sub	 ecx, edx
  0000b	51		 push	 ecx
  0000c	6a 00		 push	 0
  0000e	52		 push	 edx
  0000f	e8 00 00 00 00	 call	 _memset

; 2073 :     return _Last;

  00014	8b 45 0c	 mov	 eax, DWORD PTR __Last$[ebp]
  00017	83 c4 0c	 add	 esp, 12			; 0000000cH

; 2074 : }

  0001a	5d		 pop	 ebp
  0001b	c3		 ret	 0
??$_Zero_range@PAPAUSFXHIT_COUNT@@@std@@YAPAPAUSFXHIT_COUNT@@QAPAU1@0@Z ENDP ; std::_Zero_range<SFXHIT_COUNT * *>
_TEXT	ENDS
; Function compile flags: /Ogtp
; File C:\Program Files\Microsoft Visual Studio\2022\Professional\VC\Tools\MSVC\14.44.35207\include\xmemory
;	COMDAT ??$_Uninitialized_copy_unchecked@PAPAUSFXHIT_COUNT@@PAPAU1@@std@@YAPAPAUSFXHIT_COUNT@@PAPAU1@QAPAU1@0@Z
_TEXT	SEGMENT
__First$ = 8						; size = 4
__Last$ = 12						; size = 4
__Dest$ = 16						; size = 4
??$_Uninitialized_copy_unchecked@PAPAUSFXHIT_COUNT@@PAPAU1@@std@@YAPAPAUSFXHIT_COUNT@@PAPAU1@QAPAU1@0@Z PROC ; std::_Uninitialized_copy_unchecked<SFXHIT_COUNT * *,SFXHIT_COUNT * *>, COMDAT

; 1945 : _NoThrowFwdIt _Uninitialized_copy_unchecked(_InIt _First, const _InIt _Last, _NoThrowFwdIt _Dest) {

  00000	55		 push	 ebp
  00001	8b ec		 mov	 ebp, esp

; 1953 :         }
; 1954 :     }
; 1955 : 
; 1956 :     _Uninitialized_backout<_NoThrowFwdIt> _Backout{_Dest};
; 1957 :     for (; _First != _Last; ++_First) {
; 1958 :         _Backout._Emplace_back_deref(_First);
; 1959 :     }
; 1960 : 
; 1961 :     return _Backout._Release();
; 1962 : }

  00003	5d		 pop	 ebp

; 1946 :     // copy [_First, _Last) to raw [_Dest, ...)
; 1947 :     if constexpr (_Iter_copy_cat<_InIt, _NoThrowFwdIt>::_Bitcopy_constructible) {
; 1948 : #if 0 // TRANSITION, _HAS_CXX26
; 1949 :         if (!_STD is_constant_evaluated())
; 1950 : #endif // _HAS_CXX26
; 1951 :         {
; 1952 :             return _STD _Copy_memmove(_First, _Last, _Dest);

  00004	e9 00 00 00 00	 jmp	 ??$_Copy_memmove@PAPAUSFXHIT_COUNT@@PAPAU1@@std@@YAPAPAUSFXHIT_COUNT@@PAPAU1@00@Z ; std::_Copy_memmove<SFXHIT_COUNT * *,SFXHIT_COUNT * *>
??$_Uninitialized_copy_unchecked@PAPAUSFXHIT_COUNT@@PAPAU1@@std@@YAPAPAUSFXHIT_COUNT@@PAPAU1@QAPAU1@0@Z ENDP ; std::_Uninitialized_copy_unchecked<SFXHIT_COUNT * *,SFXHIT_COUNT * *>
_TEXT	ENDS
; Function compile flags: /Ogtp
; File C:\Program Files\Microsoft Visual Studio\2022\Professional\VC\Tools\MSVC\14.44.35207\include\xmemory
;	COMDAT ??$_Uninitialized_value_construct_n_unchecked1@PAPAUSFXHIT_INFO@@I@std@@YAPAPAUSFXHIT_INFO@@PAPAU1@I@Z
_TEXT	SEGMENT
__UFirst$ = 8						; size = 4
__Count$ = 12						; size = 4
??$_Uninitialized_value_construct_n_unchecked1@PAPAUSFXHIT_INFO@@I@std@@YAPAPAUSFXHIT_INFO@@PAPAU1@I@Z PROC ; std::_Uninitialized_value_construct_n_unchecked1<SFXHIT_INFO * *,unsigned int>, COMDAT

; 2101 : _NoThrowFwdIt _Uninitialized_value_construct_n_unchecked1(_NoThrowFwdIt _UFirst, _Diff _Count) {

  00000	55		 push	 ebp
  00001	8b ec		 mov	 ebp, esp

; 2102 :     // value-initialize all elements in [_UFirst, _UFirst + _Count)
; 2103 :     _STL_INTERNAL_CHECK(_Count >= 0);
; 2104 :     if constexpr (_Use_memset_value_construct_v<_NoThrowFwdIt>) {
; 2105 :         return _STD _Zero_range(_UFirst, _UFirst + _Count);

  00003	8b 4d 08	 mov	 ecx, DWORD PTR __UFirst$[ebp]
  00006	8b 45 0c	 mov	 eax, DWORD PTR __Count$[ebp]
  00009	8d 04 81	 lea	 eax, DWORD PTR [ecx+eax*4]
  0000c	89 45 0c	 mov	 DWORD PTR __Count$[ebp], eax
  0000f	89 4d 08	 mov	 DWORD PTR __UFirst$[ebp], ecx

; 2106 :     } else {
; 2107 :         _Uninitialized_backout<_NoThrowFwdIt> _Backout{_UFirst};
; 2108 :         for (; 0 < _Count; --_Count) {
; 2109 :             _Backout._Emplace_back();
; 2110 :         }
; 2111 : 
; 2112 :         return _Backout._Release();
; 2113 :     }
; 2114 : }

  00012	5d		 pop	 ebp

; 2102 :     // value-initialize all elements in [_UFirst, _UFirst + _Count)
; 2103 :     _STL_INTERNAL_CHECK(_Count >= 0);
; 2104 :     if constexpr (_Use_memset_value_construct_v<_NoThrowFwdIt>) {
; 2105 :         return _STD _Zero_range(_UFirst, _UFirst + _Count);

  00013	e9 00 00 00 00	 jmp	 ??$_Zero_range@PAPAUSFXHIT_INFO@@@std@@YAPAPAUSFXHIT_INFO@@QAPAU1@0@Z ; std::_Zero_range<SFXHIT_INFO * *>
??$_Uninitialized_value_construct_n_unchecked1@PAPAUSFXHIT_INFO@@I@std@@YAPAPAUSFXHIT_INFO@@PAPAU1@I@Z ENDP ; std::_Uninitialized_value_construct_n_unchecked1<SFXHIT_INFO * *,unsigned int>
_TEXT	ENDS
; Function compile flags: /Ogtp
; File C:\Program Files\Microsoft Visual Studio\2022\Professional\VC\Tools\MSVC\14.44.35207\include\xmemory
;	COMDAT ??$uninitialized_copy@PAPAUSFXHIT_INFO@@PAPAU1@@std@@YAPAPAUSFXHIT_INFO@@QAPAU1@0PAPAU1@@Z
_TEXT	SEGMENT
__First$ = 8						; size = 4
__Last$ = 12						; size = 4
__Dest$ = 16						; size = 4
??$uninitialized_copy@PAPAUSFXHIT_INFO@@PAPAU1@@std@@YAPAPAUSFXHIT_INFO@@QAPAU1@0PAPAU1@@Z PROC ; std::uninitialized_copy<SFXHIT_INFO * *,SFXHIT_INFO * *>, COMDAT

; 1965 : _NoThrowFwdIt uninitialized_copy(const _InIt _First, const _InIt _Last, _NoThrowFwdIt _Dest) {

  00000	55		 push	 ebp
  00001	8b ec		 mov	 ebp, esp

; 1972 :     return _Dest;
; 1973 : }

  00003	5d		 pop	 ebp

; 1966 :     // copy [_First, _Last) to raw [_Dest, ...)
; 1967 :     _STD _Adl_verify_range(_First, _Last);
; 1968 :     auto _UFirst      = _STD _Get_unwrapped(_First);
; 1969 :     const auto _ULast = _STD _Get_unwrapped(_Last);
; 1970 :     auto _UDest       = _STD _Get_unwrapped_n(_Dest, _STD _Idl_distance<_InIt>(_UFirst, _ULast));
; 1971 :     _STD _Seek_wrapped(_Dest, _STD _Uninitialized_copy_unchecked(_UFirst, _ULast, _UDest));

  00004	e9 00 00 00 00	 jmp	 ??$_Uninitialized_copy_unchecked@PAPAUSFXHIT_INFO@@PAPAU1@@std@@YAPAPAUSFXHIT_INFO@@PAPAU1@QAPAU1@0@Z ; std::_Uninitialized_copy_unchecked<SFXHIT_INFO * *,SFXHIT_INFO * *>
??$uninitialized_copy@PAPAUSFXHIT_INFO@@PAPAU1@@std@@YAPAPAUSFXHIT_INFO@@QAPAU1@0PAPAU1@@Z ENDP ; std::uninitialized_copy<SFXHIT_INFO * *,SFXHIT_INFO * *>
_TEXT	ENDS
; Function compile flags: /Ogtp
; File C:\Program Files\Microsoft Visual Studio\2022\Professional\VC\Tools\MSVC\14.44.35207\include\xtree
; File C:\Program Files\Microsoft Visual Studio\2022\Professional\VC\Tools\MSVC\14.44.35207\include\utility
; File C:\Program Files\Microsoft Visual Studio\2022\Professional\VC\Tools\MSVC\14.44.35207\include\deque
; File C:\Program Files\Microsoft Visual Studio\2022\Professional\VC\Tools\MSVC\14.44.35207\include\utility
; File C:\Program Files\Microsoft Visual Studio\2022\Professional\VC\Tools\MSVC\14.44.35207\include\xmemory
; File C:\Program Files\Microsoft Visual Studio\2022\Professional\VC\Tools\MSVC\14.44.35207\include\utility
; File C:\Program Files\Microsoft Visual Studio\2022\Professional\VC\Tools\MSVC\14.44.35207\include\xmemory
; File C:\Program Files\Microsoft Visual Studio\2022\Professional\VC\Tools\MSVC\14.44.35207\include\xtree
; File C:\Program Files\Microsoft Visual Studio\2022\Professional\VC\Tools\MSVC\14.44.35207\include\xmemory
; File C:\Program Files\Microsoft Visual Studio\2022\Professional\VC\Tools\MSVC\14.44.35207\include\xtree
;	COMDAT ??$_Erase_tree@V?$allocator@U?$_Tree_node@U?$pair@$$CBKV?$queue@USFXHIT_INFO@@V?$deque@USFXHIT_INFO@@V?$allocator@USFXHIT_INFO@@@std@@@std@@@std@@@std@@PAX@std@@@std@@@?$_Tree_val@U?$_Tree_simple_types@U?$pair@$$CBKV?$queue@USFXHIT_INFO@@V?$deque@USFXHIT_INFO@@V?$allocator@USFXHIT_INFO@@@std@@@std@@@std@@@std@@@std@@@std@@QAEXAAV?$allocator@U?$_Tree_node@U?$pair@$$CBKV?$queue@USFXHIT_INFO@@V?$deque@USFXHIT_INFO@@V?$allocator@USFXHIT_INFO@@@std@@@std@@@std@@@std@@PAX@std@@@1@PAU?$_Tree_node@U?$pair@$$CBKV?$queue@USFXHIT_INFO@@V?$deque@USFXHIT_INFO@@V?$allocator@USFXHIT_INFO@@@std@@@std@@@std@@@std@@PAX@1@@Z
_TEXT	SEGMENT
_this$1$ = -4						; size = 4
__Al$ = 8						; size = 4
__Rootnode$ = 12					; size = 4
??$_Erase_tree@V?$allocator@U?$_Tree_node@U?$pair@$$CBKV?$queue@USFXHIT_INFO@@V?$deque@USFXHIT_INFO@@V?$allocator@USFXHIT_INFO@@@std@@@std@@@std@@@std@@PAX@std@@@std@@@?$_Tree_val@U?$_Tree_simple_types@U?$pair@$$CBKV?$queue@USFXHIT_INFO@@V?$deque@USFXHIT_INFO@@V?$allocator@USFXHIT_INFO@@@std@@@std@@@std@@@std@@@std@@@std@@QAEXAAV?$allocator@U?$_Tree_node@U?$pair@$$CBKV?$queue@USFXHIT_INFO@@V?$deque@USFXHIT_INFO@@V?$allocator@USFXHIT_INFO@@@std@@@std@@@std@@@std@@PAX@std@@@1@PAU?$_Tree_node@U?$pair@$$CBKV?$queue@USFXHIT_INFO@@V?$deque@USFXHIT_INFO@@V?$allocator@USFXHIT_INFO@@@std@@@std@@@std@@@std@@PAX@1@@Z PROC ; std::_Tree_val<std::_Tree_simple_types<std::pair<unsigned long const ,std::queue<SFXHIT_INFO,std::deque<SFXHIT_INFO,std::allocator<SFXHIT_INFO> > > > > >::_Erase_tree<std::allocator<std::_Tree_node<std::pair<unsigned long const ,std::queue<SFXHIT_INFO,std::deque<SFXHIT_INFO,std::allocator<SFXHIT_INFO> > > >,void *> > >, COMDAT
; _this$ = ecx

; 767  :     void _Erase_tree(_Alnode& _Al, _Nodeptr _Rootnode) noexcept {

  00000	55		 push	 ebp
  00001	8b ec		 mov	 ebp, esp
  00003	51		 push	 ecx
  00004	56		 push	 esi

; 768  :         while (!_Rootnode->_Isnil) { // free subtrees, then node

  00005	8b 75 0c	 mov	 esi, DWORD PTR __Rootnode$[ebp]
  00008	8b c1		 mov	 eax, ecx
  0000a	89 45 fc	 mov	 DWORD PTR _this$1$[ebp], eax
  0000d	80 7e 0d 00	 cmp	 BYTE PTR [esi+13], 0
  00011	75 43		 jne	 SHORT $LN86@Erase_tree
  00013	53		 push	 ebx
  00014	57		 push	 edi
$LL2@Erase_tree:

; 769  :             _Erase_tree(_Al, _Rootnode->_Right);

  00015	ff 76 08	 push	 DWORD PTR [esi+8]
  00018	8b c8		 mov	 ecx, eax
  0001a	ff 75 08	 push	 DWORD PTR __Al$[ebp]
  0001d	e8 00 00 00 00	 call	 ??$_Erase_tree@V?$allocator@U?$_Tree_node@U?$pair@$$CBKV?$queue@USFXHIT_INFO@@V?$deque@USFXHIT_INFO@@V?$allocator@USFXHIT_INFO@@@std@@@std@@@std@@@std@@PAX@std@@@std@@@?$_Tree_val@U?$_Tree_simple_types@U?$pair@$$CBKV?$queue@USFXHIT_INFO@@V?$deque@USFXHIT_INFO@@V?$allocator@USFXHIT_INFO@@@std@@@std@@@std@@@std@@@std@@@std@@QAEXAAV?$allocator@U?$_Tree_node@U?$pair@$$CBKV?$queue@USFXHIT_INFO@@V?$deque@USFXHIT_INFO@@V?$allocator@USFXHIT_INFO@@@std@@@std@@@std@@@std@@PAX@std@@@1@PAU?$_Tree_node@U?$pair@$$CBKV?$queue@USFXHIT_INFO@@V?$deque@USFXHIT_INFO@@V?$allocator@USFXHIT_INFO@@@std@@@std@@@std@@@std@@PAX@1@@Z ; std::_Tree_val<std::_Tree_simple_types<std::pair<unsigned long const ,std::queue<SFXHIT_INFO,std::deque<SFXHIT_INFO,std::allocator<SFXHIT_INFO> > > > > >::_Erase_tree<std::allocator<std::_Tree_node<std::pair<unsigned long const ,std::queue<SFXHIT_INFO,std::deque<SFXHIT_INFO,std::allocator<SFXHIT_INFO> > > >,void *> > >
; File C:\Program Files\Microsoft Visual Studio\2022\Professional\VC\Tools\MSVC\14.44.35207\include\utility

; 773  :     _Ty _Old_val = static_cast<_Ty&&>(_Val);

  00022	8b de		 mov	 ebx, esi

; 774  :     _Val         = static_cast<_Other&&>(_New_val);

  00024	8b 36		 mov	 esi, DWORD PTR [esi]
; File C:\Program Files\Microsoft Visual Studio\2022\Professional\VC\Tools\MSVC\14.44.35207\include\deque

; 774  :         _Tidy();

  00026	8d 4b 14	 lea	 ecx, DWORD PTR [ebx+20]
  00029	e8 00 00 00 00	 call	 ?_Tidy@?$deque@USFXHIT_INFO@@V?$allocator@USFXHIT_INFO@@@std@@@std@@AAEXXZ ; std::deque<SFXHIT_INFO,std::allocator<SFXHIT_INFO> >::_Tidy
; File C:\Program Files\Microsoft Visual Studio\2022\Professional\VC\Tools\MSVC\14.44.35207\include\utility

; 773  :     _Ty _Old_val = static_cast<_Ty&&>(_Val);

  0002e	8b 43 14	 mov	 eax, DWORD PTR [ebx+20]
; File C:\Program Files\Microsoft Visual Studio\2022\Professional\VC\Tools\MSVC\14.44.35207\include\xmemory

; 289  :         ::operator delete(_Ptr, _Bytes);

  00031	6a 08		 push	 8
  00033	50		 push	 eax
; File C:\Program Files\Microsoft Visual Studio\2022\Professional\VC\Tools\MSVC\14.44.35207\include\utility

; 774  :     _Val         = static_cast<_Other&&>(_New_val);

  00034	c7 43 14 00 00
	00 00		 mov	 DWORD PTR [ebx+20], 0
; File C:\Program Files\Microsoft Visual Studio\2022\Professional\VC\Tools\MSVC\14.44.35207\include\xmemory

; 289  :         ::operator delete(_Ptr, _Bytes);

  0003b	e8 00 00 00 00	 call	 ??3@YAXPAXI@Z		; operator delete
  00040	6a 28		 push	 40			; 00000028H
  00042	53		 push	 ebx
  00043	e8 00 00 00 00	 call	 ??3@YAXPAXI@Z		; operator delete
; File C:\Program Files\Microsoft Visual Studio\2022\Professional\VC\Tools\MSVC\14.44.35207\include\xtree

; 768  :         while (!_Rootnode->_Isnil) { // free subtrees, then node

  00048	8b 45 fc	 mov	 eax, DWORD PTR _this$1$[ebp]
; File C:\Program Files\Microsoft Visual Studio\2022\Professional\VC\Tools\MSVC\14.44.35207\include\xmemory

; 289  :         ::operator delete(_Ptr, _Bytes);

  0004b	83 c4 10	 add	 esp, 16			; 00000010H
; File C:\Program Files\Microsoft Visual Studio\2022\Professional\VC\Tools\MSVC\14.44.35207\include\xtree

; 768  :         while (!_Rootnode->_Isnil) { // free subtrees, then node

  0004e	80 7e 0d 00	 cmp	 BYTE PTR [esi+13], 0
  00052	74 c1		 je	 SHORT $LL2@Erase_tree
  00054	5f		 pop	 edi
  00055	5b		 pop	 ebx
$LN86@Erase_tree:
  00056	5e		 pop	 esi

; 770  :             _Alnode::value_type::_Freenode(_Al, _STD exchange(_Rootnode, _Rootnode->_Left));
; 771  :         }
; 772  :     }

  00057	8b e5		 mov	 esp, ebp
  00059	5d		 pop	 ebp
  0005a	c2 08 00	 ret	 8
??$_Erase_tree@V?$allocator@U?$_Tree_node@U?$pair@$$CBKV?$queue@USFXHIT_INFO@@V?$deque@USFXHIT_INFO@@V?$allocator@USFXHIT_INFO@@@std@@@std@@@std@@@std@@PAX@std@@@std@@@?$_Tree_val@U?$_Tree_simple_types@U?$pair@$$CBKV?$queue@USFXHIT_INFO@@V?$deque@USFXHIT_INFO@@V?$allocator@USFXHIT_INFO@@@std@@@std@@@std@@@std@@@std@@@std@@QAEXAAV?$allocator@U?$_Tree_node@U?$pair@$$CBKV?$queue@USFXHIT_INFO@@V?$deque@USFXHIT_INFO@@V?$allocator@USFXHIT_INFO@@@std@@@std@@@std@@@std@@PAX@std@@@1@PAU?$_Tree_node@U?$pair@$$CBKV?$queue@USFXHIT_INFO@@V?$deque@USFXHIT_INFO@@V?$allocator@USFXHIT_INFO@@@std@@@std@@@std@@@std@@PAX@1@@Z ENDP ; std::_Tree_val<std::_Tree_simple_types<std::pair<unsigned long const ,std::queue<SFXHIT_INFO,std::deque<SFXHIT_INFO,std::allocator<SFXHIT_INFO> > > > > >::_Erase_tree<std::allocator<std::_Tree_node<std::pair<unsigned long const ,std::queue<SFXHIT_INFO,std::deque<SFXHIT_INFO,std::allocator<SFXHIT_INFO> > > >,void *> > >
_TEXT	ENDS
; Function compile flags: /Ogtp
; File C:\Program Files\Microsoft Visual Studio\2022\Professional\VC\Tools\MSVC\14.44.35207\include\xmemory
;	COMDAT ??$_Uninitialized_value_construct_n_unchecked1@PAPAUSFXHIT_COUNT@@I@std@@YAPAPAUSFXHIT_COUNT@@PAPAU1@I@Z
_TEXT	SEGMENT
__UFirst$ = 8						; size = 4
__Count$ = 12						; size = 4
??$_Uninitialized_value_construct_n_unchecked1@PAPAUSFXHIT_COUNT@@I@std@@YAPAPAUSFXHIT_COUNT@@PAPAU1@I@Z PROC ; std::_Uninitialized_value_construct_n_unchecked1<SFXHIT_COUNT * *,unsigned int>, COMDAT

; 2101 : _NoThrowFwdIt _Uninitialized_value_construct_n_unchecked1(_NoThrowFwdIt _UFirst, _Diff _Count) {

  00000	55		 push	 ebp
  00001	8b ec		 mov	 ebp, esp

; 2102 :     // value-initialize all elements in [_UFirst, _UFirst + _Count)
; 2103 :     _STL_INTERNAL_CHECK(_Count >= 0);
; 2104 :     if constexpr (_Use_memset_value_construct_v<_NoThrowFwdIt>) {
; 2105 :         return _STD _Zero_range(_UFirst, _UFirst + _Count);

  00003	8b 4d 08	 mov	 ecx, DWORD PTR __UFirst$[ebp]
  00006	8b 45 0c	 mov	 eax, DWORD PTR __Count$[ebp]
  00009	8d 04 81	 lea	 eax, DWORD PTR [ecx+eax*4]
  0000c	89 45 0c	 mov	 DWORD PTR __Count$[ebp], eax
  0000f	89 4d 08	 mov	 DWORD PTR __UFirst$[ebp], ecx

; 2106 :     } else {
; 2107 :         _Uninitialized_backout<_NoThrowFwdIt> _Backout{_UFirst};
; 2108 :         for (; 0 < _Count; --_Count) {
; 2109 :             _Backout._Emplace_back();
; 2110 :         }
; 2111 : 
; 2112 :         return _Backout._Release();
; 2113 :     }
; 2114 : }

  00012	5d		 pop	 ebp

; 2102 :     // value-initialize all elements in [_UFirst, _UFirst + _Count)
; 2103 :     _STL_INTERNAL_CHECK(_Count >= 0);
; 2104 :     if constexpr (_Use_memset_value_construct_v<_NoThrowFwdIt>) {
; 2105 :         return _STD _Zero_range(_UFirst, _UFirst + _Count);

  00013	e9 00 00 00 00	 jmp	 ??$_Zero_range@PAPAUSFXHIT_COUNT@@@std@@YAPAPAUSFXHIT_COUNT@@QAPAU1@0@Z ; std::_Zero_range<SFXHIT_COUNT * *>
??$_Uninitialized_value_construct_n_unchecked1@PAPAUSFXHIT_COUNT@@I@std@@YAPAPAUSFXHIT_COUNT@@PAPAU1@I@Z ENDP ; std::_Uninitialized_value_construct_n_unchecked1<SFXHIT_COUNT * *,unsigned int>
_TEXT	ENDS
; Function compile flags: /Ogtp
; File C:\Program Files\Microsoft Visual Studio\2022\Professional\VC\Tools\MSVC\14.44.35207\include\xmemory
;	COMDAT ??$uninitialized_copy@PAPAUSFXHIT_COUNT@@PAPAU1@@std@@YAPAPAUSFXHIT_COUNT@@QAPAU1@0PAPAU1@@Z
_TEXT	SEGMENT
__First$ = 8						; size = 4
__Last$ = 12						; size = 4
__Dest$ = 16						; size = 4
??$uninitialized_copy@PAPAUSFXHIT_COUNT@@PAPAU1@@std@@YAPAPAUSFXHIT_COUNT@@QAPAU1@0PAPAU1@@Z PROC ; std::uninitialized_copy<SFXHIT_COUNT * *,SFXHIT_COUNT * *>, COMDAT

; 1965 : _NoThrowFwdIt uninitialized_copy(const _InIt _First, const _InIt _Last, _NoThrowFwdIt _Dest) {

  00000	55		 push	 ebp
  00001	8b ec		 mov	 ebp, esp

; 1972 :     return _Dest;
; 1973 : }

  00003	5d		 pop	 ebp

; 1966 :     // copy [_First, _Last) to raw [_Dest, ...)
; 1967 :     _STD _Adl_verify_range(_First, _Last);
; 1968 :     auto _UFirst      = _STD _Get_unwrapped(_First);
; 1969 :     const auto _ULast = _STD _Get_unwrapped(_Last);
; 1970 :     auto _UDest       = _STD _Get_unwrapped_n(_Dest, _STD _Idl_distance<_InIt>(_UFirst, _ULast));
; 1971 :     _STD _Seek_wrapped(_Dest, _STD _Uninitialized_copy_unchecked(_UFirst, _ULast, _UDest));

  00004	e9 00 00 00 00	 jmp	 ??$_Uninitialized_copy_unchecked@PAPAUSFXHIT_COUNT@@PAPAU1@@std@@YAPAPAUSFXHIT_COUNT@@PAPAU1@QAPAU1@0@Z ; std::_Uninitialized_copy_unchecked<SFXHIT_COUNT * *,SFXHIT_COUNT * *>
??$uninitialized_copy@PAPAUSFXHIT_COUNT@@PAPAU1@@std@@YAPAPAUSFXHIT_COUNT@@QAPAU1@0PAPAU1@@Z ENDP ; std::uninitialized_copy<SFXHIT_COUNT * *,SFXHIT_COUNT * *>
_TEXT	ENDS
; Function compile flags: /Ogtp
; File C:\Program Files\Microsoft Visual Studio\2022\Professional\VC\Tools\MSVC\14.44.35207\include\xtree
; File C:\Program Files\Microsoft Visual Studio\2022\Professional\VC\Tools\MSVC\14.44.35207\include\utility
; File C:\Program Files\Microsoft Visual Studio\2022\Professional\VC\Tools\MSVC\14.44.35207\include\deque
; File C:\Program Files\Microsoft Visual Studio\2022\Professional\VC\Tools\MSVC\14.44.35207\include\utility
; File C:\Program Files\Microsoft Visual Studio\2022\Professional\VC\Tools\MSVC\14.44.35207\include\xmemory
; File C:\Program Files\Microsoft Visual Studio\2022\Professional\VC\Tools\MSVC\14.44.35207\include\utility
; File C:\Program Files\Microsoft Visual Studio\2022\Professional\VC\Tools\MSVC\14.44.35207\include\xmemory
; File C:\Program Files\Microsoft Visual Studio\2022\Professional\VC\Tools\MSVC\14.44.35207\include\xtree
; File C:\Program Files\Microsoft Visual Studio\2022\Professional\VC\Tools\MSVC\14.44.35207\include\xmemory
; File C:\Program Files\Microsoft Visual Studio\2022\Professional\VC\Tools\MSVC\14.44.35207\include\xtree
;	COMDAT ??$_Erase_tree@V?$allocator@U?$_Tree_node@U?$pair@$$CBKV?$queue@USFXHIT_COUNT@@V?$deque@USFXHIT_COUNT@@V?$allocator@USFXHIT_COUNT@@@std@@@std@@@std@@@std@@PAX@std@@@std@@@?$_Tree_val@U?$_Tree_simple_types@U?$pair@$$CBKV?$queue@USFXHIT_COUNT@@V?$deque@USFXHIT_COUNT@@V?$allocator@USFXHIT_COUNT@@@std@@@std@@@std@@@std@@@std@@@std@@QAEXAAV?$allocator@U?$_Tree_node@U?$pair@$$CBKV?$queue@USFXHIT_COUNT@@V?$deque@USFXHIT_COUNT@@V?$allocator@USFXHIT_COUNT@@@std@@@std@@@std@@@std@@PAX@std@@@1@PAU?$_Tree_node@U?$pair@$$CBKV?$queue@USFXHIT_COUNT@@V?$deque@USFXHIT_COUNT@@V?$allocator@USFXHIT_COUNT@@@std@@@std@@@std@@@std@@PAX@1@@Z
_TEXT	SEGMENT
_this$1$ = -4						; size = 4
__Al$ = 8						; size = 4
__Rootnode$ = 12					; size = 4
??$_Erase_tree@V?$allocator@U?$_Tree_node@U?$pair@$$CBKV?$queue@USFXHIT_COUNT@@V?$deque@USFXHIT_COUNT@@V?$allocator@USFXHIT_COUNT@@@std@@@std@@@std@@@std@@PAX@std@@@std@@@?$_Tree_val@U?$_Tree_simple_types@U?$pair@$$CBKV?$queue@USFXHIT_COUNT@@V?$deque@USFXHIT_COUNT@@V?$allocator@USFXHIT_COUNT@@@std@@@std@@@std@@@std@@@std@@@std@@QAEXAAV?$allocator@U?$_Tree_node@U?$pair@$$CBKV?$queue@USFXHIT_COUNT@@V?$deque@USFXHIT_COUNT@@V?$allocator@USFXHIT_COUNT@@@std@@@std@@@std@@@std@@PAX@std@@@1@PAU?$_Tree_node@U?$pair@$$CBKV?$queue@USFXHIT_COUNT@@V?$deque@USFXHIT_COUNT@@V?$allocator@USFXHIT_COUNT@@@std@@@std@@@std@@@std@@PAX@1@@Z PROC ; std::_Tree_val<std::_Tree_simple_types<std::pair<unsigned long const ,std::queue<SFXHIT_COUNT,std::deque<SFXHIT_COUNT,std::allocator<SFXHIT_COUNT> > > > > >::_Erase_tree<std::allocator<std::_Tree_node<std::pair<unsigned long const ,std::queue<SFXHIT_COUNT,std::deque<SFXHIT_COUNT,std::allocator<SFXHIT_COUNT> > > >,void *> > >, COMDAT
; _this$ = ecx

; 767  :     void _Erase_tree(_Alnode& _Al, _Nodeptr _Rootnode) noexcept {

  00000	55		 push	 ebp
  00001	8b ec		 mov	 ebp, esp
  00003	51		 push	 ecx
  00004	56		 push	 esi

; 768  :         while (!_Rootnode->_Isnil) { // free subtrees, then node

  00005	8b 75 0c	 mov	 esi, DWORD PTR __Rootnode$[ebp]
  00008	8b c1		 mov	 eax, ecx
  0000a	89 45 fc	 mov	 DWORD PTR _this$1$[ebp], eax
  0000d	80 7e 0d 00	 cmp	 BYTE PTR [esi+13], 0
  00011	75 43		 jne	 SHORT $LN86@Erase_tree
  00013	53		 push	 ebx
  00014	57		 push	 edi
$LL2@Erase_tree:

; 769  :             _Erase_tree(_Al, _Rootnode->_Right);

  00015	ff 76 08	 push	 DWORD PTR [esi+8]
  00018	8b c8		 mov	 ecx, eax
  0001a	ff 75 08	 push	 DWORD PTR __Al$[ebp]
  0001d	e8 00 00 00 00	 call	 ??$_Erase_tree@V?$allocator@U?$_Tree_node@U?$pair@$$CBKV?$queue@USFXHIT_COUNT@@V?$deque@USFXHIT_COUNT@@V?$allocator@USFXHIT_COUNT@@@std@@@std@@@std@@@std@@PAX@std@@@std@@@?$_Tree_val@U?$_Tree_simple_types@U?$pair@$$CBKV?$queue@USFXHIT_COUNT@@V?$deque@USFXHIT_COUNT@@V?$allocator@USFXHIT_COUNT@@@std@@@std@@@std@@@std@@@std@@@std@@QAEXAAV?$allocator@U?$_Tree_node@U?$pair@$$CBKV?$queue@USFXHIT_COUNT@@V?$deque@USFXHIT_COUNT@@V?$allocator@USFXHIT_COUNT@@@std@@@std@@@std@@@std@@PAX@std@@@1@PAU?$_Tree_node@U?$pair@$$CBKV?$queue@USFXHIT_COUNT@@V?$deque@USFXHIT_COUNT@@V?$allocator@USFXHIT_COUNT@@@std@@@std@@@std@@@std@@PAX@1@@Z ; std::_Tree_val<std::_Tree_simple_types<std::pair<unsigned long const ,std::queue<SFXHIT_COUNT,std::deque<SFXHIT_COUNT,std::allocator<SFXHIT_COUNT> > > > > >::_Erase_tree<std::allocator<std::_Tree_node<std::pair<unsigned long const ,std::queue<SFXHIT_COUNT,std::deque<SFXHIT_COUNT,std::allocator<SFXHIT_COUNT> > > >,void *> > >
; File C:\Program Files\Microsoft Visual Studio\2022\Professional\VC\Tools\MSVC\14.44.35207\include\utility

; 773  :     _Ty _Old_val = static_cast<_Ty&&>(_Val);

  00022	8b de		 mov	 ebx, esi

; 774  :     _Val         = static_cast<_Other&&>(_New_val);

  00024	8b 36		 mov	 esi, DWORD PTR [esi]
; File C:\Program Files\Microsoft Visual Studio\2022\Professional\VC\Tools\MSVC\14.44.35207\include\deque

; 774  :         _Tidy();

  00026	8d 4b 14	 lea	 ecx, DWORD PTR [ebx+20]
  00029	e8 00 00 00 00	 call	 ?_Tidy@?$deque@USFXHIT_COUNT@@V?$allocator@USFXHIT_COUNT@@@std@@@std@@AAEXXZ ; std::deque<SFXHIT_COUNT,std::allocator<SFXHIT_COUNT> >::_Tidy
; File C:\Program Files\Microsoft Visual Studio\2022\Professional\VC\Tools\MSVC\14.44.35207\include\utility

; 773  :     _Ty _Old_val = static_cast<_Ty&&>(_Val);

  0002e	8b 43 14	 mov	 eax, DWORD PTR [ebx+20]
; File C:\Program Files\Microsoft Visual Studio\2022\Professional\VC\Tools\MSVC\14.44.35207\include\xmemory

; 289  :         ::operator delete(_Ptr, _Bytes);

  00031	6a 08		 push	 8
  00033	50		 push	 eax
; File C:\Program Files\Microsoft Visual Studio\2022\Professional\VC\Tools\MSVC\14.44.35207\include\utility

; 774  :     _Val         = static_cast<_Other&&>(_New_val);

  00034	c7 43 14 00 00
	00 00		 mov	 DWORD PTR [ebx+20], 0
; File C:\Program Files\Microsoft Visual Studio\2022\Professional\VC\Tools\MSVC\14.44.35207\include\xmemory

; 289  :         ::operator delete(_Ptr, _Bytes);

  0003b	e8 00 00 00 00	 call	 ??3@YAXPAXI@Z		; operator delete
  00040	6a 28		 push	 40			; 00000028H
  00042	53		 push	 ebx
  00043	e8 00 00 00 00	 call	 ??3@YAXPAXI@Z		; operator delete
; File C:\Program Files\Microsoft Visual Studio\2022\Professional\VC\Tools\MSVC\14.44.35207\include\xtree

; 768  :         while (!_Rootnode->_Isnil) { // free subtrees, then node

  00048	8b 45 fc	 mov	 eax, DWORD PTR _this$1$[ebp]
; File C:\Program Files\Microsoft Visual Studio\2022\Professional\VC\Tools\MSVC\14.44.35207\include\xmemory

; 289  :         ::operator delete(_Ptr, _Bytes);

  0004b	83 c4 10	 add	 esp, 16			; 00000010H
; File C:\Program Files\Microsoft Visual Studio\2022\Professional\VC\Tools\MSVC\14.44.35207\include\xtree

; 768  :         while (!_Rootnode->_Isnil) { // free subtrees, then node

  0004e	80 7e 0d 00	 cmp	 BYTE PTR [esi+13], 0
  00052	74 c1		 je	 SHORT $LL2@Erase_tree
  00054	5f		 pop	 edi
  00055	5b		 pop	 ebx
$LN86@Erase_tree:
  00056	5e		 pop	 esi

; 770  :             _Alnode::value_type::_Freenode(_Al, _STD exchange(_Rootnode, _Rootnode->_Left));
; 771  :         }
; 772  :     }

  00057	8b e5		 mov	 esp, ebp
  00059	5d		 pop	 ebp
  0005a	c2 08 00	 ret	 8
??$_Erase_tree@V?$allocator@U?$_Tree_node@U?$pair@$$CBKV?$queue@USFXHIT_COUNT@@V?$deque@USFXHIT_COUNT@@V?$allocator@USFXHIT_COUNT@@@std@@@std@@@std@@@std@@PAX@std@@@std@@@?$_Tree_val@U?$_Tree_simple_types@U?$pair@$$CBKV?$queue@USFXHIT_COUNT@@V?$deque@USFXHIT_COUNT@@V?$allocator@USFXHIT_COUNT@@@std@@@std@@@std@@@std@@@std@@@std@@QAEXAAV?$allocator@U?$_Tree_node@U?$pair@$$CBKV?$queue@USFXHIT_COUNT@@V?$deque@USFXHIT_COUNT@@V?$allocator@USFXHIT_COUNT@@@std@@@std@@@std@@@std@@PAX@std@@@1@PAU?$_Tree_node@U?$pair@$$CBKV?$queue@USFXHIT_COUNT@@V?$deque@USFXHIT_COUNT@@V?$allocator@USFXHIT_COUNT@@@std@@@std@@@std@@@std@@PAX@1@@Z ENDP ; std::_Tree_val<std::_Tree_simple_types<std::pair<unsigned long const ,std::queue<SFXHIT_COUNT,std::deque<SFXHIT_COUNT,std::allocator<SFXHIT_COUNT> > > > > >::_Erase_tree<std::allocator<std::_Tree_node<std::pair<unsigned long const ,std::queue<SFXHIT_COUNT,std::deque<SFXHIT_COUNT,std::allocator<SFXHIT_COUNT> > > >,void *> > >
_TEXT	ENDS
; Function compile flags: /Ogtp
; File C:\Program Files\Microsoft Visual Studio\2022\Professional\VC\Tools\MSVC\14.44.35207\include\xmemory
;	COMDAT ??1?$_Tidy_guard@V?$deque@USFXHIT_INFO@@V?$allocator@USFXHIT_INFO@@@std@@@std@@@std@@QAE@XZ
_TEXT	SEGMENT
??1?$_Tidy_guard@V?$deque@USFXHIT_INFO@@V?$allocator@USFXHIT_INFO@@@std@@@std@@@std@@QAE@XZ PROC ; std::_Tidy_guard<std::deque<SFXHIT_INFO,std::allocator<SFXHIT_INFO> > >::~_Tidy_guard<std::deque<SFXHIT_INFO,std::allocator<SFXHIT_INFO> > >, COMDAT
; _this$ = ecx

; 87   :         if (_Target) {

  00000	8b 09		 mov	 ecx, DWORD PTR [ecx]
  00002	85 c9		 test	 ecx, ecx
  00004	0f 85 00 00 00
	00		 jne	 ?_Tidy@?$deque@USFXHIT_INFO@@V?$allocator@USFXHIT_INFO@@@std@@@std@@AAEXXZ ; std::deque<SFXHIT_INFO,std::allocator<SFXHIT_INFO> >::_Tidy

; 88   :             _Target->_Tidy();
; 89   :         }
; 90   :     }

  0000a	c3		 ret	 0
??1?$_Tidy_guard@V?$deque@USFXHIT_INFO@@V?$allocator@USFXHIT_INFO@@@std@@@std@@@std@@QAE@XZ ENDP ; std::_Tidy_guard<std::deque<SFXHIT_INFO,std::allocator<SFXHIT_INFO> > >::~_Tidy_guard<std::deque<SFXHIT_INFO,std::allocator<SFXHIT_INFO> > >
_TEXT	ENDS
; Function compile flags: /Ogtp
; File C:\Program Files\Microsoft Visual Studio\2022\Professional\VC\Tools\MSVC\14.44.35207\include\xmemory
;	COMDAT ??1?$_Tidy_guard@V?$deque@USFXHIT_COUNT@@V?$allocator@USFXHIT_COUNT@@@std@@@std@@@std@@QAE@XZ
_TEXT	SEGMENT
??1?$_Tidy_guard@V?$deque@USFXHIT_COUNT@@V?$allocator@USFXHIT_COUNT@@@std@@@std@@@std@@QAE@XZ PROC ; std::_Tidy_guard<std::deque<SFXHIT_COUNT,std::allocator<SFXHIT_COUNT> > >::~_Tidy_guard<std::deque<SFXHIT_COUNT,std::allocator<SFXHIT_COUNT> > >, COMDAT
; _this$ = ecx

; 87   :         if (_Target) {

  00000	8b 09		 mov	 ecx, DWORD PTR [ecx]
  00002	85 c9		 test	 ecx, ecx
  00004	0f 85 00 00 00
	00		 jne	 ?_Tidy@?$deque@USFXHIT_COUNT@@V?$allocator@USFXHIT_COUNT@@@std@@@std@@AAEXXZ ; std::deque<SFXHIT_COUNT,std::allocator<SFXHIT_COUNT> >::_Tidy

; 88   :             _Target->_Tidy();
; 89   :         }
; 90   :     }

  0000a	c3		 ret	 0
??1?$_Tidy_guard@V?$deque@USFXHIT_COUNT@@V?$allocator@USFXHIT_COUNT@@@std@@@std@@@std@@QAE@XZ ENDP ; std::_Tidy_guard<std::deque<SFXHIT_COUNT,std::allocator<SFXHIT_COUNT> > >::~_Tidy_guard<std::deque<SFXHIT_COUNT,std::allocator<SFXHIT_COUNT> > >
_TEXT	ENDS
; Function compile flags: /Ogtp
; File C:\Program Files\Microsoft Visual Studio\2022\Professional\VC\Tools\MSVC\14.44.35207\include\xmemory
;	COMDAT ??1?$_Container_proxy_ptr12@V?$allocator@U_Container_proxy@std@@@std@@@std@@QAE@XZ
_TEXT	SEGMENT
??1?$_Container_proxy_ptr12@V?$allocator@U_Container_proxy@std@@@std@@@std@@QAE@XZ PROC ; std::_Container_proxy_ptr12<std::allocator<std::_Container_proxy> >::~_Container_proxy_ptr12<std::allocator<std::_Container_proxy> >, COMDAT
; _this$ = ecx

; 1496 :         if (_Ptr) {

  00000	8b 01		 mov	 eax, DWORD PTR [ecx]
  00002	85 c0		 test	 eax, eax
  00004	74 0b		 je	 SHORT $LN16@Container_

; 289  :         ::operator delete(_Ptr, _Bytes);

  00006	6a 08		 push	 8
  00008	50		 push	 eax
  00009	e8 00 00 00 00	 call	 ??3@YAXPAXI@Z		; operator delete
  0000e	83 c4 08	 add	 esp, 8
$LN16@Container_:

; 1497 :             _Delete_plain_internal(_Al, _Ptr);
; 1498 :         }
; 1499 :     }

  00011	c3		 ret	 0
??1?$_Container_proxy_ptr12@V?$allocator@U_Container_proxy@std@@@std@@@std@@QAE@XZ ENDP ; std::_Container_proxy_ptr12<std::allocator<std::_Container_proxy> >::~_Container_proxy_ptr12<std::allocator<std::_Container_proxy> >
_TEXT	ENDS
; Function compile flags: /Ogtp
; File C:\Program Files\Microsoft Visual Studio\2022\Professional\VC\Tools\MSVC\14.44.35207\include\deque
; File C:\Program Files\Microsoft Visual Studio\2022\Professional\VC\Tools\MSVC\14.44.35207\include\xmemory
; File C:\Program Files\Microsoft Visual Studio\2022\Professional\VC\Tools\MSVC\14.44.35207\include\deque
; File C:\Program Files\Microsoft Visual Studio\2022\Professional\VC\Tools\MSVC\14.44.35207\include\xmemory
; File C:\Program Files\Microsoft Visual Studio\2022\Professional\VC\Tools\MSVC\14.44.35207\include\deque
; File C:\Program Files\Microsoft Visual Studio\2022\Professional\VC\Tools\MSVC\14.44.35207\include\xmemory
; File C:\Program Files\Microsoft Visual Studio\2022\Professional\VC\Tools\MSVC\14.44.35207\include\deque
;	COMDAT ??$_Emplace_back_internal@ABUSFXHIT_INFO@@@?$deque@USFXHIT_INFO@@V?$allocator@USFXHIT_INFO@@@std@@@std@@AAEXABUSFXHIT_INFO@@@Z
_TEXT	SEGMENT
_<_Vals_0>$ = 8						; size = 4
??$_Emplace_back_internal@ABUSFXHIT_INFO@@@?$deque@USFXHIT_INFO@@V?$allocator@USFXHIT_INFO@@@std@@@std@@AAEXABUSFXHIT_INFO@@@Z PROC ; std::deque<SFXHIT_INFO,std::allocator<SFXHIT_INFO> >::_Emplace_back_internal<SFXHIT_INFO const &>, COMDAT
; _this$ = ecx

; 1143 :     void _Emplace_back_internal(_Tys&&... _Vals) {

  00000	55		 push	 ebp
  00001	8b ec		 mov	 ebp, esp
  00003	53		 push	 ebx
  00004	56		 push	 esi
  00005	8b f1		 mov	 esi, ecx
  00007	57		 push	 edi

; 1144 :         if ((_Myoff() + _Mysize()) % _Block_size == 0 && _Mapsize() <= (_Mysize() + _Block_size) / _Block_size) {

  00008	8b 46 10	 mov	 eax, DWORD PTR [esi+16]
  0000b	40		 inc	 eax
  0000c	39 46 08	 cmp	 DWORD PTR [esi+8], eax
  0000f	77 07		 ja	 SHORT $LN2@Emplace_ba

; 1145 :             _Growmap(1);

  00011	6a 01		 push	 1
  00013	e8 00 00 00 00	 call	 ?_Growmap@?$deque@USFXHIT_INFO@@V?$allocator@USFXHIT_INFO@@@std@@@std@@AAEXI@Z ; std::deque<SFXHIT_INFO,std::allocator<SFXHIT_INFO> >::_Growmap
$LN2@Emplace_ba:

; 1146 :         }
; 1147 :         _Myoff() &= _Mapsize() * _Block_size - 1;

  00018	8b 4e 08	 mov	 ecx, DWORD PTR [esi+8]
  0001b	8d 41 ff	 lea	 eax, DWORD PTR [ecx-1]
  0001e	21 46 0c	 and	 DWORD PTR [esi+12], eax

; 572  :         return static_cast<_Map_difference_type>((_Off / _Block_size) & (_Mapsize - 1));

  00021	8d 41 ff	 lea	 eax, DWORD PTR [ecx-1]

; 1148 :         const auto _Newoff = static_cast<size_type>(_Myoff() + _Mysize());

  00024	8b 7e 10	 mov	 edi, DWORD PTR [esi+16]
  00027	03 7e 0c	 add	 edi, DWORD PTR [esi+12]

; 572  :         return static_cast<_Map_difference_type>((_Off / _Block_size) & (_Mapsize - 1));

  0002a	23 c7		 and	 eax, edi

; 1149 :         const auto _Block  = _Getblock(_Newoff);
; 1150 :         if (_Map()[_Block] == nullptr) {

  0002c	8d 1c 85 00 00
	00 00		 lea	 ebx, DWORD PTR [eax*4]
  00033	8b 46 04	 mov	 eax, DWORD PTR [esi+4]
  00036	83 3c 03 00	 cmp	 DWORD PTR [ebx+eax], 0
  0003a	75 10		 jne	 SHORT $LN3@Emplace_ba
; File C:\Program Files\Microsoft Visual Studio\2022\Professional\VC\Tools\MSVC\14.44.35207\include\xmemory

; 136  :         return ::operator new(_Bytes);

  0003c	6a 24		 push	 36			; 00000024H
  0003e	e8 00 00 00 00	 call	 ??2@YAPAXI@Z		; operator new
; File C:\Program Files\Microsoft Visual Studio\2022\Professional\VC\Tools\MSVC\14.44.35207\include\deque

; 1151 :             _Map()[_Block] = _Getal().allocate(_Block_size);

  00043	8b 4e 04	 mov	 ecx, DWORD PTR [esi+4]
; File C:\Program Files\Microsoft Visual Studio\2022\Professional\VC\Tools\MSVC\14.44.35207\include\xmemory

; 136  :         return ::operator new(_Bytes);

  00046	83 c4 04	 add	 esp, 4
; File C:\Program Files\Microsoft Visual Studio\2022\Professional\VC\Tools\MSVC\14.44.35207\include\deque

; 1151 :             _Map()[_Block] = _Getal().allocate(_Block_size);

  00049	89 04 0b	 mov	 DWORD PTR [ebx+ecx], eax
$LN3@Emplace_ba:

; 572  :         return static_cast<_Map_difference_type>((_Off / _Block_size) & (_Mapsize - 1));

  0004c	8b 4e 08	 mov	 ecx, DWORD PTR [esi+8]

; 590  :         return _STD _Unfancy(_Map[_Block] + _Block_off);

  0004f	8b 46 04	 mov	 eax, DWORD PTR [esi+4]

; 572  :         return static_cast<_Map_difference_type>((_Off / _Block_size) & (_Mapsize - 1));

  00052	49		 dec	 ecx
  00053	23 cf		 and	 ecx, edi

; 1156 :         ++_Mysize();

  00055	5f		 pop	 edi
; File C:\Program Files\Microsoft Visual Studio\2022\Professional\VC\Tools\MSVC\14.44.35207\include\xmemory

; 732  :         ::new (const_cast<void*>(static_cast<const volatile void*>(_Ptr))) _Objty(_STD forward<_Types>(_Args)...);

  00056	8b 0c 88	 mov	 ecx, DWORD PTR [eax+ecx*4]
  00059	8b 45 08	 mov	 eax, DWORD PTR _<_Vals_0>$[ebp]
  0005c	0f 10 00	 movups	 xmm0, XMMWORD PTR [eax]
  0005f	0f 11 01	 movups	 XMMWORD PTR [ecx], xmm0
  00062	0f 10 40 10	 movups	 xmm0, XMMWORD PTR [eax+16]
  00066	0f 11 41 10	 movups	 XMMWORD PTR [ecx+16], xmm0
  0006a	8b 40 20	 mov	 eax, DWORD PTR [eax+32]
  0006d	89 41 20	 mov	 DWORD PTR [ecx+32], eax
; File C:\Program Files\Microsoft Visual Studio\2022\Professional\VC\Tools\MSVC\14.44.35207\include\deque

; 1156 :         ++_Mysize();

  00070	ff 46 10	 inc	 DWORD PTR [esi+16]
  00073	5e		 pop	 esi
  00074	5b		 pop	 ebx

; 1157 :     }

  00075	5d		 pop	 ebp
  00076	c2 04 00	 ret	 4
??$_Emplace_back_internal@ABUSFXHIT_INFO@@@?$deque@USFXHIT_INFO@@V?$allocator@USFXHIT_INFO@@@std@@@std@@AAEXABUSFXHIT_INFO@@@Z ENDP ; std::deque<SFXHIT_INFO,std::allocator<SFXHIT_INFO> >::_Emplace_back_internal<SFXHIT_INFO const &>
_TEXT	ENDS
; Function compile flags: /Ogtp
; File C:\Program Files\Microsoft Visual Studio\2022\Professional\VC\Tools\MSVC\14.44.35207\include\deque
; File C:\Program Files\Microsoft Visual Studio\2022\Professional\VC\Tools\MSVC\14.44.35207\include\xmemory
; File C:\Program Files\Microsoft Visual Studio\2022\Professional\VC\Tools\MSVC\14.44.35207\include\deque
; File C:\Program Files\Microsoft Visual Studio\2022\Professional\VC\Tools\MSVC\14.44.35207\include\xmemory
; File C:\Program Files\Microsoft Visual Studio\2022\Professional\VC\Tools\MSVC\14.44.35207\include\deque
;	COMDAT ??$_Emplace_back_internal@ABUSFXHIT_COUNT@@@?$deque@USFXHIT_COUNT@@V?$allocator@USFXHIT_COUNT@@@std@@@std@@AAEXABUSFXHIT_COUNT@@@Z
_TEXT	SEGMENT
__Newoff$1$ = -4					; size = 4
_<_Vals_0>$ = 8						; size = 4
??$_Emplace_back_internal@ABUSFXHIT_COUNT@@@?$deque@USFXHIT_COUNT@@V?$allocator@USFXHIT_COUNT@@@std@@@std@@AAEXABUSFXHIT_COUNT@@@Z PROC ; std::deque<SFXHIT_COUNT,std::allocator<SFXHIT_COUNT> >::_Emplace_back_internal<SFXHIT_COUNT const &>, COMDAT
; _this$ = ecx

; 1143 :     void _Emplace_back_internal(_Tys&&... _Vals) {

  00000	55		 push	 ebp
  00001	8b ec		 mov	 ebp, esp
  00003	51		 push	 ecx
  00004	53		 push	 ebx
  00005	8b d9		 mov	 ebx, ecx
  00007	56		 push	 esi
  00008	57		 push	 edi

; 1144 :         if ((_Myoff() + _Mysize()) % _Block_size == 0 && _Mapsize() <= (_Mysize() + _Block_size) / _Block_size) {

  00009	8b 43 0c	 mov	 eax, DWORD PTR [ebx+12]
  0000c	8b 4b 10	 mov	 ecx, DWORD PTR [ebx+16]
  0000f	03 c1		 add	 eax, ecx
  00011	a8 01		 test	 al, 1
  00013	75 13		 jne	 SHORT $LN2@Emplace_ba
  00015	8d 41 02	 lea	 eax, DWORD PTR [ecx+2]
  00018	d1 e8		 shr	 eax, 1
  0001a	39 43 08	 cmp	 DWORD PTR [ebx+8], eax
  0001d	77 09		 ja	 SHORT $LN2@Emplace_ba

; 1145 :             _Growmap(1);

  0001f	6a 01		 push	 1
  00021	8b cb		 mov	 ecx, ebx
  00023	e8 00 00 00 00	 call	 ?_Growmap@?$deque@USFXHIT_COUNT@@V?$allocator@USFXHIT_COUNT@@@std@@@std@@AAEXI@Z ; std::deque<SFXHIT_COUNT,std::allocator<SFXHIT_COUNT> >::_Growmap
$LN2@Emplace_ba:

; 1146 :         }
; 1147 :         _Myoff() &= _Mapsize() * _Block_size - 1;

  00028	8b 4b 08	 mov	 ecx, DWORD PTR [ebx+8]
  0002b	8d 04 4d ff ff
	ff ff		 lea	 eax, DWORD PTR [ecx*2-1]
  00032	21 43 0c	 and	 DWORD PTR [ebx+12], eax

; 572  :         return static_cast<_Map_difference_type>((_Off / _Block_size) & (_Mapsize - 1));

  00035	8d 41 ff	 lea	 eax, DWORD PTR [ecx-1]

; 1148 :         const auto _Newoff = static_cast<size_type>(_Myoff() + _Mysize());

  00038	8b 53 10	 mov	 edx, DWORD PTR [ebx+16]
  0003b	03 53 0c	 add	 edx, DWORD PTR [ebx+12]

; 572  :         return static_cast<_Map_difference_type>((_Off / _Block_size) & (_Mapsize - 1));

  0003e	8b f2		 mov	 esi, edx

; 1148 :         const auto _Newoff = static_cast<size_type>(_Myoff() + _Mysize());

  00040	89 55 fc	 mov	 DWORD PTR __Newoff$1$[ebp], edx

; 572  :         return static_cast<_Map_difference_type>((_Off / _Block_size) & (_Mapsize - 1));

  00043	d1 ee		 shr	 esi, 1
  00045	23 c6		 and	 eax, esi

; 1149 :         const auto _Block  = _Getblock(_Newoff);
; 1150 :         if (_Map()[_Block] == nullptr) {

  00047	8d 3c 85 00 00
	00 00		 lea	 edi, DWORD PTR [eax*4]
  0004e	8b 43 04	 mov	 eax, DWORD PTR [ebx+4]
  00051	83 3c 07 00	 cmp	 DWORD PTR [edi+eax], 0
  00055	75 13		 jne	 SHORT $LN3@Emplace_ba
; File C:\Program Files\Microsoft Visual Studio\2022\Professional\VC\Tools\MSVC\14.44.35207\include\xmemory

; 136  :         return ::operator new(_Bytes);

  00057	6a 10		 push	 16			; 00000010H
  00059	e8 00 00 00 00	 call	 ??2@YAPAXI@Z		; operator new
; File C:\Program Files\Microsoft Visual Studio\2022\Professional\VC\Tools\MSVC\14.44.35207\include\deque

; 1151 :             _Map()[_Block] = _Getal().allocate(_Block_size);

  0005e	8b 4b 04	 mov	 ecx, DWORD PTR [ebx+4]
; File C:\Program Files\Microsoft Visual Studio\2022\Professional\VC\Tools\MSVC\14.44.35207\include\xmemory

; 136  :         return ::operator new(_Bytes);

  00061	83 c4 04	 add	 esp, 4
  00064	8b 55 fc	 mov	 edx, DWORD PTR __Newoff$1$[ebp]
; File C:\Program Files\Microsoft Visual Studio\2022\Professional\VC\Tools\MSVC\14.44.35207\include\deque

; 1151 :             _Map()[_Block] = _Getal().allocate(_Block_size);

  00067	89 04 0f	 mov	 DWORD PTR [edi+ecx], eax
$LN3@Emplace_ba:

; 572  :         return static_cast<_Map_difference_type>((_Off / _Block_size) & (_Mapsize - 1));

  0006a	8b 7b 08	 mov	 edi, DWORD PTR [ebx+8]

; 589  :         const auto _Block_off = static_cast<difference_type>(_Off % _Block_size);

  0006d	83 e2 01	 and	 edx, 1

; 1152 :         }
; 1153 : 
; 1154 :         _Alty_traits::construct(_Getal(), _Get_data()._Address_subscript(_Newoff), _STD forward<_Tys>(_Vals)...);

  00070	8b 45 08	 mov	 eax, DWORD PTR _<_Vals_0>$[ebp]

; 572  :         return static_cast<_Map_difference_type>((_Off / _Block_size) & (_Mapsize - 1));

  00073	4f		 dec	 edi
  00074	23 fe		 and	 edi, esi

; 589  :         const auto _Block_off = static_cast<difference_type>(_Off % _Block_size);

  00076	89 55 fc	 mov	 DWORD PTR __Newoff$1$[ebp], edx

; 1152 :         }
; 1153 : 
; 1154 :         _Alty_traits::construct(_Getal(), _Get_data()._Address_subscript(_Newoff), _STD forward<_Tys>(_Vals)...);

  00079	8b 73 04	 mov	 esi, DWORD PTR [ebx+4]
  0007c	8b 08		 mov	 ecx, DWORD PTR [eax]
  0007e	8b 50 04	 mov	 edx, DWORD PTR [eax+4]
  00081	8b 04 be	 mov	 eax, DWORD PTR [esi+edi*4]
  00084	8b 75 fc	 mov	 esi, DWORD PTR __Newoff$1$[ebp]

; 1155 : 
; 1156 :         ++_Mysize();

  00087	5f		 pop	 edi
  00088	89 0c f0	 mov	 DWORD PTR [eax+esi*8], ecx
  0008b	89 54 f0 04	 mov	 DWORD PTR [eax+esi*8+4], edx
  0008f	ff 43 10	 inc	 DWORD PTR [ebx+16]
  00092	5e		 pop	 esi
  00093	5b		 pop	 ebx

; 1157 :     }

  00094	8b e5		 mov	 esp, ebp
  00096	5d		 pop	 ebp
  00097	c2 04 00	 ret	 4
??$_Emplace_back_internal@ABUSFXHIT_COUNT@@@?$deque@USFXHIT_COUNT@@V?$allocator@USFXHIT_COUNT@@@std@@@std@@AAEXABUSFXHIT_COUNT@@@Z ENDP ; std::deque<SFXHIT_COUNT,std::allocator<SFXHIT_COUNT> >::_Emplace_back_internal<SFXHIT_COUNT const &>
_TEXT	ENDS
; Function compile flags: /Ogtp
; File C:\Program Files\Microsoft Visual Studio\2022\Professional\VC\Tools\MSVC\14.44.35207\include\xmemory
;	COMDAT ??1?$_Tree_temp_node_alloc@V?$allocator@U?$_Tree_node@U?$pair@$$CBKV?$queue@USFXHIT_INFO@@V?$deque@USFXHIT_INFO@@V?$allocator@USFXHIT_INFO@@@std@@@std@@@std@@@std@@PAX@std@@@std@@@std@@QAE@XZ
_TEXT	SEGMENT
??1?$_Tree_temp_node_alloc@V?$allocator@U?$_Tree_node@U?$pair@$$CBKV?$queue@USFXHIT_INFO@@V?$deque@USFXHIT_INFO@@V?$allocator@USFXHIT_INFO@@@std@@@std@@@std@@@std@@PAX@std@@@std@@@std@@QAE@XZ PROC ; std::_Tree_temp_node_alloc<std::allocator<std::_Tree_node<std::pair<unsigned long const ,std::queue<SFXHIT_INFO,std::deque<SFXHIT_INFO,std::allocator<SFXHIT_INFO> > > >,void *> > >::~_Tree_temp_node_alloc<std::allocator<std::_Tree_node<std::pair<unsigned long const ,std::queue<SFXHIT_INFO,std::deque<SFXHIT_INFO,std::allocator<SFXHIT_INFO> > > >,void *> > >, COMDAT
; _this$ = ecx

; 1172 :         if (_Ptr) {

  00000	8b 41 04	 mov	 eax, DWORD PTR [ecx+4]
  00003	85 c0		 test	 eax, eax
  00005	74 0b		 je	 SHORT $LN13@Tree_temp_

; 289  :         ::operator delete(_Ptr, _Bytes);

  00007	6a 28		 push	 40			; 00000028H
  00009	50		 push	 eax
  0000a	e8 00 00 00 00	 call	 ??3@YAXPAXI@Z		; operator delete
  0000f	83 c4 08	 add	 esp, 8
$LN13@Tree_temp_:
  00012	c3		 ret	 0
??1?$_Tree_temp_node_alloc@V?$allocator@U?$_Tree_node@U?$pair@$$CBKV?$queue@USFXHIT_INFO@@V?$deque@USFXHIT_INFO@@V?$allocator@USFXHIT_INFO@@@std@@@std@@@std@@@std@@PAX@std@@@std@@@std@@QAE@XZ ENDP ; std::_Tree_temp_node_alloc<std::allocator<std::_Tree_node<std::pair<unsigned long const ,std::queue<SFXHIT_INFO,std::deque<SFXHIT_INFO,std::allocator<SFXHIT_INFO> > > >,void *> > >::~_Tree_temp_node_alloc<std::allocator<std::_Tree_node<std::pair<unsigned long const ,std::queue<SFXHIT_INFO,std::deque<SFXHIT_INFO,std::allocator<SFXHIT_INFO> > > >,void *> > >
_TEXT	ENDS
; Function compile flags: /Ogtp
; File C:\Program Files\Microsoft Visual Studio\2022\Professional\VC\Tools\MSVC\14.44.35207\include\xmemory
;	COMDAT ??1?$_Alloc_construct_ptr@V?$allocator@U?$_Tree_node@U?$pair@$$CBKV?$queue@USFXHIT_INFO@@V?$deque@USFXHIT_INFO@@V?$allocator@USFXHIT_INFO@@@std@@@std@@@std@@@std@@PAX@std@@@std@@@std@@QAE@XZ
_TEXT	SEGMENT
??1?$_Alloc_construct_ptr@V?$allocator@U?$_Tree_node@U?$pair@$$CBKV?$queue@USFXHIT_INFO@@V?$deque@USFXHIT_INFO@@V?$allocator@USFXHIT_INFO@@@std@@@std@@@std@@@std@@PAX@std@@@std@@@std@@QAE@XZ PROC ; std::_Alloc_construct_ptr<std::allocator<std::_Tree_node<std::pair<unsigned long const ,std::queue<SFXHIT_INFO,std::deque<SFXHIT_INFO,std::allocator<SFXHIT_INFO> > > >,void *> > >::~_Alloc_construct_ptr<std::allocator<std::_Tree_node<std::pair<unsigned long const ,std::queue<SFXHIT_INFO,std::deque<SFXHIT_INFO,std::allocator<SFXHIT_INFO> > > >,void *> > >, COMDAT
; _this$ = ecx

; 1172 :         if (_Ptr) {

  00000	8b 41 04	 mov	 eax, DWORD PTR [ecx+4]
  00003	85 c0		 test	 eax, eax
  00005	74 0b		 je	 SHORT $LN10@Alloc_cons

; 289  :         ::operator delete(_Ptr, _Bytes);

  00007	6a 28		 push	 40			; 00000028H
  00009	50		 push	 eax
  0000a	e8 00 00 00 00	 call	 ??3@YAXPAXI@Z		; operator delete
  0000f	83 c4 08	 add	 esp, 8
$LN10@Alloc_cons:

; 1173 :             _Al.deallocate(_Ptr, 1);
; 1174 :         }
; 1175 :     }

  00012	c3		 ret	 0
??1?$_Alloc_construct_ptr@V?$allocator@U?$_Tree_node@U?$pair@$$CBKV?$queue@USFXHIT_INFO@@V?$deque@USFXHIT_INFO@@V?$allocator@USFXHIT_INFO@@@std@@@std@@@std@@@std@@PAX@std@@@std@@@std@@QAE@XZ ENDP ; std::_Alloc_construct_ptr<std::allocator<std::_Tree_node<std::pair<unsigned long const ,std::queue<SFXHIT_INFO,std::deque<SFXHIT_INFO,std::allocator<SFXHIT_INFO> > > >,void *> > >::~_Alloc_construct_ptr<std::allocator<std::_Tree_node<std::pair<unsigned long const ,std::queue<SFXHIT_INFO,std::deque<SFXHIT_INFO,std::allocator<SFXHIT_INFO> > > >,void *> > >
_TEXT	ENDS
; Function compile flags: /Ogtp
; File C:\Program Files\Microsoft Visual Studio\2022\Professional\VC\Tools\MSVC\14.44.35207\include\xtree
; File C:\Program Files\Microsoft Visual Studio\2022\Professional\VC\Tools\MSVC\14.44.35207\include\type_traits
; File C:\Program Files\Microsoft Visual Studio\2022\Professional\VC\Tools\MSVC\14.44.35207\include\xtree
; File C:\Program Files\Microsoft Visual Studio\2022\Professional\VC\Tools\MSVC\14.44.35207\include\type_traits
; File C:\Program Files\Microsoft Visual Studio\2022\Professional\VC\Tools\MSVC\14.44.35207\include\xtree
;	COMDAT ??$_Find_lower_bound@K@?$_Tree@V?$_Tmap_traits@KV?$queue@USFXHIT_INFO@@V?$deque@USFXHIT_INFO@@V?$allocator@USFXHIT_INFO@@@std@@@std@@@std@@U?$less@K@2@V?$allocator@U?$pair@$$CBKV?$queue@USFXHIT_INFO@@V?$deque@USFXHIT_INFO@@V?$allocator@USFXHIT_INFO@@@std@@@std@@@std@@@std@@@2@$0A@@std@@@std@@IBE?AU?$_Tree_find_result@PAU?$_Tree_node@U?$pair@$$CBKV?$queue@USFXHIT_INFO@@V?$deque@USFXHIT_INFO@@V?$allocator@USFXHIT_INFO@@@std@@@std@@@std@@@std@@PAX@std@@@1@ABK@Z
_TEXT	SEGMENT
___$ReturnUdt$ = 8					; size = 4
__Keyval$ = 12						; size = 4
??$_Find_lower_bound@K@?$_Tree@V?$_Tmap_traits@KV?$queue@USFXHIT_INFO@@V?$deque@USFXHIT_INFO@@V?$allocator@USFXHIT_INFO@@@std@@@std@@@std@@U?$less@K@2@V?$allocator@U?$pair@$$CBKV?$queue@USFXHIT_INFO@@V?$deque@USFXHIT_INFO@@V?$allocator@USFXHIT_INFO@@@std@@@std@@@std@@@std@@@2@$0A@@std@@@std@@IBE?AU?$_Tree_find_result@PAU?$_Tree_node@U?$pair@$$CBKV?$queue@USFXHIT_INFO@@V?$deque@USFXHIT_INFO@@V?$allocator@USFXHIT_INFO@@@std@@@std@@@std@@@std@@PAX@std@@@1@ABK@Z PROC ; std::_Tree<std::_Tmap_traits<unsigned long,std::queue<SFXHIT_INFO,std::deque<SFXHIT_INFO,std::allocator<SFXHIT_INFO> > >,std::less<unsigned long>,std::allocator<std::pair<unsigned long const ,std::queue<SFXHIT_INFO,std::deque<SFXHIT_INFO,std::allocator<SFXHIT_INFO> > > > >,0> >::_Find_lower_bound<unsigned long>, COMDAT
; _this$ = ecx

; 1628 :     _Tree_find_result<_Nodeptr> _Find_lower_bound(const _Keyty& _Keyval) const {

  00000	55		 push	 ebp
  00001	8b ec		 mov	 ebp, esp

; 1629 :         const auto _Scary = _Get_scary();
; 1630 :         _Tree_find_result<_Nodeptr> _Result{{_Scary->_Myhead->_Parent, _Tree_child::_Right}, _Scary->_Myhead};

  00003	8b 09		 mov	 ecx, DWORD PTR [ecx]
  00005	8b 55 08	 mov	 edx, DWORD PTR ___$ReturnUdt$[ebp]
  00008	8b 41 04	 mov	 eax, DWORD PTR [ecx+4]
  0000b	89 02		 mov	 DWORD PTR [edx], eax
  0000d	c7 42 04 00 00
	00 00		 mov	 DWORD PTR [edx+4], 0
  00014	89 4a 08	 mov	 DWORD PTR [edx+8], ecx

; 1631 :         _Nodeptr _Trynode = _Result._Location._Parent;
; 1632 :         while (!_Trynode->_Isnil) {

  00017	80 78 0d 00	 cmp	 BYTE PTR [eax+13], 0
  0001b	75 28		 jne	 SHORT $LN13@Find_lower
; File C:\Program Files\Microsoft Visual Studio\2022\Professional\VC\Tools\MSVC\14.44.35207\include\type_traits

; 2380 :         return _Left < _Right;

  0001d	8b 4d 0c	 mov	 ecx, DWORD PTR __Keyval$[ebp]
  00020	56		 push	 esi
  00021	8b 31		 mov	 esi, DWORD PTR [ecx]
$LL2@Find_lower:
; File C:\Program Files\Microsoft Visual Studio\2022\Professional\VC\Tools\MSVC\14.44.35207\include\xtree

; 1633 :             _Result._Location._Parent = _Trynode;

  00023	89 02		 mov	 DWORD PTR [edx], eax
; File C:\Program Files\Microsoft Visual Studio\2022\Professional\VC\Tools\MSVC\14.44.35207\include\type_traits

; 2380 :         return _Left < _Right;

  00025	39 70 10	 cmp	 DWORD PTR [eax+16], esi
; File C:\Program Files\Microsoft Visual Studio\2022\Professional\VC\Tools\MSVC\14.44.35207\include\xtree

; 1634 :             if (_DEBUG_LT_PRED(_Getcomp(), _Traits::_Kfn(_Trynode->_Myval), _Keyval)) {

  00028	73 07		 jae	 SHORT $LN4@Find_lower

; 1635 :                 _Result._Location._Child = _Tree_child::_Right;
; 1636 :                 _Trynode                 = _Trynode->_Right;

  0002a	8b 40 08	 mov	 eax, DWORD PTR [eax+8]
  0002d	33 c9		 xor	 ecx, ecx

; 1637 :             } else {

  0002f	eb 0a		 jmp	 SHORT $LN5@Find_lower
$LN4@Find_lower:

; 1638 :                 _Result._Location._Child = _Tree_child::_Left;
; 1639 :                 _Result._Bound           = _Trynode;

  00031	89 42 08	 mov	 DWORD PTR [edx+8], eax

; 1640 :                 _Trynode                 = _Trynode->_Left;

  00034	b9 01 00 00 00	 mov	 ecx, 1
  00039	8b 00		 mov	 eax, DWORD PTR [eax]
$LN5@Find_lower:

; 1631 :         _Nodeptr _Trynode = _Result._Location._Parent;
; 1632 :         while (!_Trynode->_Isnil) {

  0003b	89 4a 04	 mov	 DWORD PTR [edx+4], ecx
  0003e	80 78 0d 00	 cmp	 BYTE PTR [eax+13], 0
  00042	74 df		 je	 SHORT $LL2@Find_lower
  00044	5e		 pop	 esi
$LN13@Find_lower:

; 1641 :             }
; 1642 :         }
; 1643 : 
; 1644 :         return _Result;
; 1645 :     }

  00045	8b c2		 mov	 eax, edx
  00047	5d		 pop	 ebp
  00048	c2 08 00	 ret	 8
??$_Find_lower_bound@K@?$_Tree@V?$_Tmap_traits@KV?$queue@USFXHIT_INFO@@V?$deque@USFXHIT_INFO@@V?$allocator@USFXHIT_INFO@@@std@@@std@@@std@@U?$less@K@2@V?$allocator@U?$pair@$$CBKV?$queue@USFXHIT_INFO@@V?$deque@USFXHIT_INFO@@V?$allocator@USFXHIT_INFO@@@std@@@std@@@std@@@std@@@2@$0A@@std@@@std@@IBE?AU?$_Tree_find_result@PAU?$_Tree_node@U?$pair@$$CBKV?$queue@USFXHIT_INFO@@V?$deque@USFXHIT_INFO@@V?$allocator@USFXHIT_INFO@@@std@@@std@@@std@@@std@@PAX@std@@@1@ABK@Z ENDP ; std::_Tree<std::_Tmap_traits<unsigned long,std::queue<SFXHIT_INFO,std::deque<SFXHIT_INFO,std::allocator<SFXHIT_INFO> > >,std::less<unsigned long>,std::allocator<std::pair<unsigned long const ,std::queue<SFXHIT_INFO,std::deque<SFXHIT_INFO,std::allocator<SFXHIT_INFO> > > > >,0> >::_Find_lower_bound<unsigned long>
_TEXT	ENDS
; Function compile flags: /Ogtp
; File C:\Program Files\Microsoft Visual Studio\2022\Professional\VC\Tools\MSVC\14.44.35207\include\xmemory
;	COMDAT ??1?$_Tree_temp_node_alloc@V?$allocator@U?$_Tree_node@U?$pair@$$CBKV?$queue@USFXHIT_COUNT@@V?$deque@USFXHIT_COUNT@@V?$allocator@USFXHIT_COUNT@@@std@@@std@@@std@@@std@@PAX@std@@@std@@@std@@QAE@XZ
_TEXT	SEGMENT
??1?$_Tree_temp_node_alloc@V?$allocator@U?$_Tree_node@U?$pair@$$CBKV?$queue@USFXHIT_COUNT@@V?$deque@USFXHIT_COUNT@@V?$allocator@USFXHIT_COUNT@@@std@@@std@@@std@@@std@@PAX@std@@@std@@@std@@QAE@XZ PROC ; std::_Tree_temp_node_alloc<std::allocator<std::_Tree_node<std::pair<unsigned long const ,std::queue<SFXHIT_COUNT,std::deque<SFXHIT_COUNT,std::allocator<SFXHIT_COUNT> > > >,void *> > >::~_Tree_temp_node_alloc<std::allocator<std::_Tree_node<std::pair<unsigned long const ,std::queue<SFXHIT_COUNT,std::deque<SFXHIT_COUNT,std::allocator<SFXHIT_COUNT> > > >,void *> > >, COMDAT
; _this$ = ecx

; 1172 :         if (_Ptr) {

  00000	8b 41 04	 mov	 eax, DWORD PTR [ecx+4]
  00003	85 c0		 test	 eax, eax
  00005	74 0b		 je	 SHORT $LN13@Tree_temp_

; 289  :         ::operator delete(_Ptr, _Bytes);

  00007	6a 28		 push	 40			; 00000028H
  00009	50		 push	 eax
  0000a	e8 00 00 00 00	 call	 ??3@YAXPAXI@Z		; operator delete
  0000f	83 c4 08	 add	 esp, 8
$LN13@Tree_temp_:
  00012	c3		 ret	 0
??1?$_Tree_temp_node_alloc@V?$allocator@U?$_Tree_node@U?$pair@$$CBKV?$queue@USFXHIT_COUNT@@V?$deque@USFXHIT_COUNT@@V?$allocator@USFXHIT_COUNT@@@std@@@std@@@std@@@std@@PAX@std@@@std@@@std@@QAE@XZ ENDP ; std::_Tree_temp_node_alloc<std::allocator<std::_Tree_node<std::pair<unsigned long const ,std::queue<SFXHIT_COUNT,std::deque<SFXHIT_COUNT,std::allocator<SFXHIT_COUNT> > > >,void *> > >::~_Tree_temp_node_alloc<std::allocator<std::_Tree_node<std::pair<unsigned long const ,std::queue<SFXHIT_COUNT,std::deque<SFXHIT_COUNT,std::allocator<SFXHIT_COUNT> > > >,void *> > >
_TEXT	ENDS
; Function compile flags: /Ogtp
; File C:\Program Files\Microsoft Visual Studio\2022\Professional\VC\Tools\MSVC\14.44.35207\include\xmemory
;	COMDAT ??1?$_Alloc_construct_ptr@V?$allocator@U?$_Tree_node@U?$pair@$$CBKV?$queue@USFXHIT_COUNT@@V?$deque@USFXHIT_COUNT@@V?$allocator@USFXHIT_COUNT@@@std@@@std@@@std@@@std@@PAX@std@@@std@@@std@@QAE@XZ
_TEXT	SEGMENT
??1?$_Alloc_construct_ptr@V?$allocator@U?$_Tree_node@U?$pair@$$CBKV?$queue@USFXHIT_COUNT@@V?$deque@USFXHIT_COUNT@@V?$allocator@USFXHIT_COUNT@@@std@@@std@@@std@@@std@@PAX@std@@@std@@@std@@QAE@XZ PROC ; std::_Alloc_construct_ptr<std::allocator<std::_Tree_node<std::pair<unsigned long const ,std::queue<SFXHIT_COUNT,std::deque<SFXHIT_COUNT,std::allocator<SFXHIT_COUNT> > > >,void *> > >::~_Alloc_construct_ptr<std::allocator<std::_Tree_node<std::pair<unsigned long const ,std::queue<SFXHIT_COUNT,std::deque<SFXHIT_COUNT,std::allocator<SFXHIT_COUNT> > > >,void *> > >, COMDAT
; _this$ = ecx

; 1172 :         if (_Ptr) {

  00000	8b 41 04	 mov	 eax, DWORD PTR [ecx+4]
  00003	85 c0		 test	 eax, eax
  00005	74 0b		 je	 SHORT $LN10@Alloc_cons

; 289  :         ::operator delete(_Ptr, _Bytes);

  00007	6a 28		 push	 40			; 00000028H
  00009	50		 push	 eax
  0000a	e8 00 00 00 00	 call	 ??3@YAXPAXI@Z		; operator delete
  0000f	83 c4 08	 add	 esp, 8
$LN10@Alloc_cons:

; 1173 :             _Al.deallocate(_Ptr, 1);
; 1174 :         }
; 1175 :     }

  00012	c3		 ret	 0
??1?$_Alloc_construct_ptr@V?$allocator@U?$_Tree_node@U?$pair@$$CBKV?$queue@USFXHIT_COUNT@@V?$deque@USFXHIT_COUNT@@V?$allocator@USFXHIT_COUNT@@@std@@@std@@@std@@@std@@PAX@std@@@std@@@std@@QAE@XZ ENDP ; std::_Alloc_construct_ptr<std::allocator<std::_Tree_node<std::pair<unsigned long const ,std::queue<SFXHIT_COUNT,std::deque<SFXHIT_COUNT,std::allocator<SFXHIT_COUNT> > > >,void *> > >::~_Alloc_construct_ptr<std::allocator<std::_Tree_node<std::pair<unsigned long const ,std::queue<SFXHIT_COUNT,std::deque<SFXHIT_COUNT,std::allocator<SFXHIT_COUNT> > > >,void *> > >
_TEXT	ENDS
; Function compile flags: /Ogtp
; File C:\Program Files\Microsoft Visual Studio\2022\Professional\VC\Tools\MSVC\14.44.35207\include\xtree
; File C:\Program Files\Microsoft Visual Studio\2022\Professional\VC\Tools\MSVC\14.44.35207\include\type_traits
; File C:\Program Files\Microsoft Visual Studio\2022\Professional\VC\Tools\MSVC\14.44.35207\include\xtree
; File C:\Program Files\Microsoft Visual Studio\2022\Professional\VC\Tools\MSVC\14.44.35207\include\type_traits
; File C:\Program Files\Microsoft Visual Studio\2022\Professional\VC\Tools\MSVC\14.44.35207\include\xtree
;	COMDAT ??$_Find_lower_bound@K@?$_Tree@V?$_Tmap_traits@KV?$queue@USFXHIT_COUNT@@V?$deque@USFXHIT_COUNT@@V?$allocator@USFXHIT_COUNT@@@std@@@std@@@std@@U?$less@K@2@V?$allocator@U?$pair@$$CBKV?$queue@USFXHIT_COUNT@@V?$deque@USFXHIT_COUNT@@V?$allocator@USFXHIT_COUNT@@@std@@@std@@@std@@@std@@@2@$0A@@std@@@std@@IBE?AU?$_Tree_find_result@PAU?$_Tree_node@U?$pair@$$CBKV?$queue@USFXHIT_COUNT@@V?$deque@USFXHIT_COUNT@@V?$allocator@USFXHIT_COUNT@@@std@@@std@@@std@@@std@@PAX@std@@@1@ABK@Z
_TEXT	SEGMENT
___$ReturnUdt$ = 8					; size = 4
__Keyval$ = 12						; size = 4
??$_Find_lower_bound@K@?$_Tree@V?$_Tmap_traits@KV?$queue@USFXHIT_COUNT@@V?$deque@USFXHIT_COUNT@@V?$allocator@USFXHIT_COUNT@@@std@@@std@@@std@@U?$less@K@2@V?$allocator@U?$pair@$$CBKV?$queue@USFXHIT_COUNT@@V?$deque@USFXHIT_COUNT@@V?$allocator@USFXHIT_COUNT@@@std@@@std@@@std@@@std@@@2@$0A@@std@@@std@@IBE?AU?$_Tree_find_result@PAU?$_Tree_node@U?$pair@$$CBKV?$queue@USFXHIT_COUNT@@V?$deque@USFXHIT_COUNT@@V?$allocator@USFXHIT_COUNT@@@std@@@std@@@std@@@std@@PAX@std@@@1@ABK@Z PROC ; std::_Tree<std::_Tmap_traits<unsigned long,std::queue<SFXHIT_COUNT,std::deque<SFXHIT_COUNT,std::allocator<SFXHIT_COUNT> > >,std::less<unsigned long>,std::allocator<std::pair<unsigned long const ,std::queue<SFXHIT_COUNT,std::deque<SFXHIT_COUNT,std::allocator<SFXHIT_COUNT> > > > >,0> >::_Find_lower_bound<unsigned long>, COMDAT
; _this$ = ecx

; 1628 :     _Tree_find_result<_Nodeptr> _Find_lower_bound(const _Keyty& _Keyval) const {

  00000	55		 push	 ebp
  00001	8b ec		 mov	 ebp, esp

; 1629 :         const auto _Scary = _Get_scary();
; 1630 :         _Tree_find_result<_Nodeptr> _Result{{_Scary->_Myhead->_Parent, _Tree_child::_Right}, _Scary->_Myhead};

  00003	8b 09		 mov	 ecx, DWORD PTR [ecx]
  00005	8b 55 08	 mov	 edx, DWORD PTR ___$ReturnUdt$[ebp]
  00008	8b 41 04	 mov	 eax, DWORD PTR [ecx+4]
  0000b	89 02		 mov	 DWORD PTR [edx], eax
  0000d	c7 42 04 00 00
	00 00		 mov	 DWORD PTR [edx+4], 0
  00014	89 4a 08	 mov	 DWORD PTR [edx+8], ecx

; 1631 :         _Nodeptr _Trynode = _Result._Location._Parent;
; 1632 :         while (!_Trynode->_Isnil) {

  00017	80 78 0d 00	 cmp	 BYTE PTR [eax+13], 0
  0001b	75 28		 jne	 SHORT $LN13@Find_lower
; File C:\Program Files\Microsoft Visual Studio\2022\Professional\VC\Tools\MSVC\14.44.35207\include\type_traits

; 2380 :         return _Left < _Right;

  0001d	8b 4d 0c	 mov	 ecx, DWORD PTR __Keyval$[ebp]
  00020	56		 push	 esi
  00021	8b 31		 mov	 esi, DWORD PTR [ecx]
$LL2@Find_lower:
; File C:\Program Files\Microsoft Visual Studio\2022\Professional\VC\Tools\MSVC\14.44.35207\include\xtree

; 1633 :             _Result._Location._Parent = _Trynode;

  00023	89 02		 mov	 DWORD PTR [edx], eax
; File C:\Program Files\Microsoft Visual Studio\2022\Professional\VC\Tools\MSVC\14.44.35207\include\type_traits

; 2380 :         return _Left < _Right;

  00025	39 70 10	 cmp	 DWORD PTR [eax+16], esi
; File C:\Program Files\Microsoft Visual Studio\2022\Professional\VC\Tools\MSVC\14.44.35207\include\xtree

; 1634 :             if (_DEBUG_LT_PRED(_Getcomp(), _Traits::_Kfn(_Trynode->_Myval), _Keyval)) {

  00028	73 07		 jae	 SHORT $LN4@Find_lower

; 1635 :                 _Result._Location._Child = _Tree_child::_Right;
; 1636 :                 _Trynode                 = _Trynode->_Right;

  0002a	8b 40 08	 mov	 eax, DWORD PTR [eax+8]
  0002d	33 c9		 xor	 ecx, ecx

; 1637 :             } else {

  0002f	eb 0a		 jmp	 SHORT $LN5@Find_lower
$LN4@Find_lower:

; 1638 :                 _Result._Location._Child = _Tree_child::_Left;
; 1639 :                 _Result._Bound           = _Trynode;

  00031	89 42 08	 mov	 DWORD PTR [edx+8], eax

; 1640 :                 _Trynode                 = _Trynode->_Left;

  00034	b9 01 00 00 00	 mov	 ecx, 1
  00039	8b 00		 mov	 eax, DWORD PTR [eax]
$LN5@Find_lower:

; 1631 :         _Nodeptr _Trynode = _Result._Location._Parent;
; 1632 :         while (!_Trynode->_Isnil) {

  0003b	89 4a 04	 mov	 DWORD PTR [edx+4], ecx
  0003e	80 78 0d 00	 cmp	 BYTE PTR [eax+13], 0
  00042	74 df		 je	 SHORT $LL2@Find_lower
  00044	5e		 pop	 esi
$LN13@Find_lower:

; 1641 :             }
; 1642 :         }
; 1643 : 
; 1644 :         return _Result;
; 1645 :     }

  00045	8b c2		 mov	 eax, edx
  00047	5d		 pop	 ebp
  00048	c2 08 00	 ret	 8
??$_Find_lower_bound@K@?$_Tree@V?$_Tmap_traits@KV?$queue@USFXHIT_COUNT@@V?$deque@USFXHIT_COUNT@@V?$allocator@USFXHIT_COUNT@@@std@@@std@@@std@@U?$less@K@2@V?$allocator@U?$pair@$$CBKV?$queue@USFXHIT_COUNT@@V?$deque@USFXHIT_COUNT@@V?$allocator@USFXHIT_COUNT@@@std@@@std@@@std@@@std@@@2@$0A@@std@@@std@@IBE?AU?$_Tree_find_result@PAU?$_Tree_node@U?$pair@$$CBKV?$queue@USFXHIT_COUNT@@V?$deque@USFXHIT_COUNT@@V?$allocator@USFXHIT_COUNT@@@std@@@std@@@std@@@std@@PAX@std@@@1@ABK@Z ENDP ; std::_Tree<std::_Tmap_traits<unsigned long,std::queue<SFXHIT_COUNT,std::deque<SFXHIT_COUNT,std::allocator<SFXHIT_COUNT> > >,std::less<unsigned long>,std::allocator<std::pair<unsigned long const ,std::queue<SFXHIT_COUNT,std::deque<SFXHIT_COUNT,std::allocator<SFXHIT_COUNT> > > > >,0> >::_Find_lower_bound<unsigned long>
_TEXT	ENDS
; Function compile flags: /Ogtp
; File C:\Program Files\Microsoft Visual Studio\2022\Professional\VC\Tools\MSVC\14.44.35207\include\deque
; File C:\Program Files\Microsoft Visual Studio\2022\Professional\VC\Tools\MSVC\14.44.35207\include\utility
; File C:\Program Files\Microsoft Visual Studio\2022\Professional\VC\Tools\MSVC\14.44.35207\include\xmemory
; File C:\Program Files\Microsoft Visual Studio\2022\Professional\VC\Tools\MSVC\14.44.35207\include\utility
; File C:\Program Files\Microsoft Visual Studio\2022\Professional\VC\Tools\MSVC\14.44.35207\include\xmemory
;	COMDAT ??1?$pair@$$CBKV?$queue@USFXHIT_INFO@@V?$deque@USFXHIT_INFO@@V?$allocator@USFXHIT_INFO@@@std@@@std@@@std@@@std@@QAE@XZ
_TEXT	SEGMENT
??1?$pair@$$CBKV?$queue@USFXHIT_INFO@@V?$deque@USFXHIT_INFO@@V?$allocator@USFXHIT_INFO@@@std@@@std@@@std@@@std@@QAE@XZ PROC ; std::pair<unsigned long const ,std::queue<SFXHIT_INFO,std::deque<SFXHIT_INFO,std::allocator<SFXHIT_INFO> > > >::~pair<unsigned long const ,std::queue<SFXHIT_INFO,std::deque<SFXHIT_INFO,std::allocator<SFXHIT_INFO> > > >, COMDAT
; _this$ = ecx
; File C:\Program Files\Microsoft Visual Studio\2022\Professional\VC\Tools\MSVC\14.44.35207\include\deque

; 774  :         _Tidy();

  00000	56		 push	 esi
  00001	8d 71 04	 lea	 esi, DWORD PTR [ecx+4]
  00004	8b ce		 mov	 ecx, esi
  00006	e8 00 00 00 00	 call	 ?_Tidy@?$deque@USFXHIT_INFO@@V?$allocator@USFXHIT_INFO@@@std@@@std@@AAEXXZ ; std::deque<SFXHIT_INFO,std::allocator<SFXHIT_INFO> >::_Tidy
; File C:\Program Files\Microsoft Visual Studio\2022\Professional\VC\Tools\MSVC\14.44.35207\include\utility

; 773  :     _Ty _Old_val = static_cast<_Ty&&>(_Val);

  0000b	8b 06		 mov	 eax, DWORD PTR [esi]
; File C:\Program Files\Microsoft Visual Studio\2022\Professional\VC\Tools\MSVC\14.44.35207\include\xmemory

; 289  :         ::operator delete(_Ptr, _Bytes);

  0000d	6a 08		 push	 8
  0000f	50		 push	 eax
; File C:\Program Files\Microsoft Visual Studio\2022\Professional\VC\Tools\MSVC\14.44.35207\include\utility

; 774  :     _Val         = static_cast<_Other&&>(_New_val);

  00010	c7 06 00 00 00
	00		 mov	 DWORD PTR [esi], 0
; File C:\Program Files\Microsoft Visual Studio\2022\Professional\VC\Tools\MSVC\14.44.35207\include\xmemory

; 289  :         ::operator delete(_Ptr, _Bytes);

  00016	e8 00 00 00 00	 call	 ??3@YAXPAXI@Z		; operator delete
  0001b	83 c4 08	 add	 esp, 8
  0001e	5e		 pop	 esi
  0001f	c3		 ret	 0
??1?$pair@$$CBKV?$queue@USFXHIT_INFO@@V?$deque@USFXHIT_INFO@@V?$allocator@USFXHIT_INFO@@@std@@@std@@@std@@@std@@QAE@XZ ENDP ; std::pair<unsigned long const ,std::queue<SFXHIT_INFO,std::deque<SFXHIT_INFO,std::allocator<SFXHIT_INFO> > > >::~pair<unsigned long const ,std::queue<SFXHIT_INFO,std::deque<SFXHIT_INFO,std::allocator<SFXHIT_INFO> > > >
_TEXT	ENDS
; Function compile flags: /Ogtp
; File C:\Program Files\Microsoft Visual Studio\2022\Professional\VC\Tools\MSVC\14.44.35207\include\deque
; File C:\Program Files\Microsoft Visual Studio\2022\Professional\VC\Tools\MSVC\14.44.35207\include\utility
; File C:\Program Files\Microsoft Visual Studio\2022\Professional\VC\Tools\MSVC\14.44.35207\include\xmemory
; File C:\Program Files\Microsoft Visual Studio\2022\Professional\VC\Tools\MSVC\14.44.35207\include\utility
; File C:\Program Files\Microsoft Visual Studio\2022\Professional\VC\Tools\MSVC\14.44.35207\include\xmemory
;	COMDAT ??1?$queue@USFXHIT_INFO@@V?$deque@USFXHIT_INFO@@V?$allocator@USFXHIT_INFO@@@std@@@std@@@std@@QAE@XZ
_TEXT	SEGMENT
??1?$queue@USFXHIT_INFO@@V?$deque@USFXHIT_INFO@@V?$allocator@USFXHIT_INFO@@@std@@@std@@@std@@QAE@XZ PROC ; std::queue<SFXHIT_INFO,std::deque<SFXHIT_INFO,std::allocator<SFXHIT_INFO> > >::~queue<SFXHIT_INFO,std::deque<SFXHIT_INFO,std::allocator<SFXHIT_INFO> > >, COMDAT
; _this$ = ecx
; File C:\Program Files\Microsoft Visual Studio\2022\Professional\VC\Tools\MSVC\14.44.35207\include\deque

; 774  :         _Tidy();

  00000	56		 push	 esi
  00001	8b f1		 mov	 esi, ecx
  00003	e8 00 00 00 00	 call	 ?_Tidy@?$deque@USFXHIT_INFO@@V?$allocator@USFXHIT_INFO@@@std@@@std@@AAEXXZ ; std::deque<SFXHIT_INFO,std::allocator<SFXHIT_INFO> >::_Tidy
; File C:\Program Files\Microsoft Visual Studio\2022\Professional\VC\Tools\MSVC\14.44.35207\include\utility

; 773  :     _Ty _Old_val = static_cast<_Ty&&>(_Val);

  00008	8b 06		 mov	 eax, DWORD PTR [esi]
; File C:\Program Files\Microsoft Visual Studio\2022\Professional\VC\Tools\MSVC\14.44.35207\include\xmemory

; 289  :         ::operator delete(_Ptr, _Bytes);

  0000a	6a 08		 push	 8
  0000c	50		 push	 eax
; File C:\Program Files\Microsoft Visual Studio\2022\Professional\VC\Tools\MSVC\14.44.35207\include\utility

; 774  :     _Val         = static_cast<_Other&&>(_New_val);

  0000d	c7 06 00 00 00
	00		 mov	 DWORD PTR [esi], 0
; File C:\Program Files\Microsoft Visual Studio\2022\Professional\VC\Tools\MSVC\14.44.35207\include\xmemory

; 289  :         ::operator delete(_Ptr, _Bytes);

  00013	e8 00 00 00 00	 call	 ??3@YAXPAXI@Z		; operator delete
  00018	83 c4 08	 add	 esp, 8
  0001b	5e		 pop	 esi
  0001c	c3		 ret	 0
??1?$queue@USFXHIT_INFO@@V?$deque@USFXHIT_INFO@@V?$allocator@USFXHIT_INFO@@@std@@@std@@@std@@QAE@XZ ENDP ; std::queue<SFXHIT_INFO,std::deque<SFXHIT_INFO,std::allocator<SFXHIT_INFO> > >::~queue<SFXHIT_INFO,std::deque<SFXHIT_INFO,std::allocator<SFXHIT_INFO> > >
_TEXT	ENDS
; Function compile flags: /Ogtp
; File C:\Program Files\Microsoft Visual Studio\2022\Professional\VC\Tools\MSVC\14.44.35207\include\deque
; File C:\Program Files\Microsoft Visual Studio\2022\Professional\VC\Tools\MSVC\14.44.35207\include\xmemory
; File C:\Program Files\Microsoft Visual Studio\2022\Professional\VC\Tools\MSVC\14.44.35207\include\deque
; File C:\Program Files\Microsoft Visual Studio\2022\Professional\VC\Tools\MSVC\14.44.35207\include\xmemory
; File C:\Program Files\Microsoft Visual Studio\2022\Professional\VC\Tools\MSVC\14.44.35207\include\deque
; File C:\Program Files\Microsoft Visual Studio\2022\Professional\VC\Tools\MSVC\14.44.35207\include\xmemory
; File C:\Program Files\Microsoft Visual Studio\2022\Professional\VC\Tools\MSVC\14.44.35207\include\deque
;	COMDAT ?_Tidy@?$deque@USFXHIT_INFO@@V?$allocator@USFXHIT_INFO@@@std@@@std@@AAEXXZ
_TEXT	SEGMENT
?_Tidy@?$deque@USFXHIT_INFO@@V?$allocator@USFXHIT_INFO@@@std@@@std@@AAEXXZ PROC ; std::deque<SFXHIT_INFO,std::allocator<SFXHIT_INFO> >::_Tidy, COMDAT
; _this$ = ecx

; 1670 :     void _Tidy() noexcept { // free all storage

  00000	57		 push	 edi
  00001	8b f9		 mov	 edi, ecx

; 971  :         return _Mysize() == 0;

  00003	8b 4f 10	 mov	 ecx, DWORD PTR [edi+16]
  00006	85 c9		 test	 ecx, ecx

; 1671 :         _Orphan_all();
; 1672 : 
; 1673 :         while (!empty()) {

  00008	74 15		 je	 SHORT $LN65@Tidy
  0000a	66 0f 1f 44 00
	00		 npad	 6
$LL2@Tidy:

; 1513 :         if (--_Mysize() == 0) {

  00010	8d 41 ff	 lea	 eax, DWORD PTR [ecx-1]
  00013	89 47 10	 mov	 DWORD PTR [edi+16], eax
  00016	8b c8		 mov	 ecx, eax
  00018	85 c0		 test	 eax, eax
  0001a	75 f4		 jne	 SHORT $LL2@Tidy

; 1514 :             _Myoff() = 0;

  0001c	89 47 0c	 mov	 DWORD PTR [edi+12], eax
$LN65@Tidy:

; 1674 :             pop_back();
; 1675 :         }
; 1676 : 
; 1677 :         if (_Map() != nullptr) {

  0001f	83 7f 04 00	 cmp	 DWORD PTR [edi+4], 0
  00023	74 61		 je	 SHORT $LN25@Tidy
  00025	56		 push	 esi

; 1654 :         for (auto _Block = _Map_distance(); _Block > 0;) { // free storage for a block and destroy pointer

  00026	8b 77 08	 mov	 esi, DWORD PTR [edi+8]
  00029	85 f6		 test	 esi, esi
  0002b	7e 1d		 jle	 SHORT $LN62@Tidy
  0002d	0f 1f 00	 npad	 3
$LL23@Tidy:

; 1655 :             --_Block;
; 1656 :             auto& _Block_ptr = _Map()[_Block];
; 1657 :             if (_Block_ptr) { // free block

  00030	8b 47 04	 mov	 eax, DWORD PTR [edi+4]
  00033	4e		 dec	 esi
  00034	8b 04 b0	 mov	 eax, DWORD PTR [eax+esi*4]
  00037	85 c0		 test	 eax, eax
  00039	74 0b		 je	 SHORT $LN21@Tidy
; File C:\Program Files\Microsoft Visual Studio\2022\Professional\VC\Tools\MSVC\14.44.35207\include\xmemory

; 289  :         ::operator delete(_Ptr, _Bytes);

  0003b	6a 24		 push	 36			; 00000024H
  0003d	50		 push	 eax
  0003e	e8 00 00 00 00	 call	 ??3@YAXPAXI@Z		; operator delete
  00043	83 c4 08	 add	 esp, 8
$LN21@Tidy:
; File C:\Program Files\Microsoft Visual Studio\2022\Professional\VC\Tools\MSVC\14.44.35207\include\deque

; 1654 :         for (auto _Block = _Map_distance(); _Block > 0;) { // free storage for a block and destroy pointer

  00046	85 f6		 test	 esi, esi
  00048	7f e6		 jg	 SHORT $LL23@Tidy
$LN62@Tidy:
; File C:\Program Files\Microsoft Visual Studio\2022\Professional\VC\Tools\MSVC\14.44.35207\include\xmemory

; 985  :         _STD _Deallocate<_New_alignof<_Ty>>(_Ptr, sizeof(_Ty) * _Count);

  0004a	8b 4f 08	 mov	 ecx, DWORD PTR [edi+8]
  0004d	8b 47 04	 mov	 eax, DWORD PTR [edi+4]
  00050	c1 e1 02	 shl	 ecx, 2
  00053	5e		 pop	 esi

; 284  :         if (_Bytes >= _Big_allocation_threshold) {

  00054	81 f9 00 10 00
	00		 cmp	 ecx, 4096		; 00001000H
  0005a	72 12		 jb	 SHORT $LN51@Tidy

; 205  :     const uintptr_t _Ptr_container   = _Ptr_user[-1];

  0005c	8b 50 fc	 mov	 edx, DWORD PTR [eax-4]
  0005f	83 c1 23	 add	 ecx, 35			; 00000023H

; 206  : 
; 207  :     // If the following asserts, it likely means that we are performing
; 208  :     // an aligned delete on memory coming from an unaligned allocation.
; 209  :     _STL_ASSERT(_Ptr_user[-2] == _Big_allocation_sentinel, "invalid argument");
; 210  : 
; 211  :     // Extra paranoia on aligned allocation/deallocation; ensure _Ptr_container is
; 212  :     // in range [_Min_back_shift, _Non_user_size]
; 213  : #ifdef _DEBUG
; 214  :     constexpr uintptr_t _Min_back_shift = 2 * sizeof(void*);
; 215  : #else // ^^^ defined(_DEBUG) / !defined(_DEBUG) vvv
; 216  :     constexpr uintptr_t _Min_back_shift = sizeof(void*);
; 217  : #endif // ^^^ !defined(_DEBUG) ^^^
; 218  :     const uintptr_t _Back_shift = reinterpret_cast<uintptr_t>(_Ptr) - _Ptr_container;

  00062	2b c2		 sub	 eax, edx

; 219  :     _STL_VERIFY(_Back_shift >= _Min_back_shift && _Back_shift <= _Non_user_size, "invalid argument");

  00064	83 c0 fc	 add	 eax, -4			; fffffffcH
  00067	83 f8 1f	 cmp	 eax, 31			; 0000001fH
  0006a	77 1c		 ja	 SHORT $LN50@Tidy

; 220  :     _Ptr = reinterpret_cast<void*>(_Ptr_container);

  0006c	8b c2		 mov	 eax, edx
$LN51@Tidy:

; 289  :         ::operator delete(_Ptr, _Bytes);

  0006e	51		 push	 ecx
  0006f	50		 push	 eax
  00070	e8 00 00 00 00	 call	 ??3@YAXPAXI@Z		; operator delete
  00075	83 c4 08	 add	 esp, 8
; File C:\Program Files\Microsoft Visual Studio\2022\Professional\VC\Tools\MSVC\14.44.35207\include\deque

; 1666 :         _Map()     = nullptr;

  00078	c7 47 04 00 00
	00 00		 mov	 DWORD PTR [edi+4], 0

; 1667 :         _Mapsize() = 0;

  0007f	c7 47 08 00 00
	00 00		 mov	 DWORD PTR [edi+8], 0
$LN25@Tidy:
  00086	5f		 pop	 edi

; 1682 :     }

  00087	c3		 ret	 0
$LN50@Tidy:
; File C:\Program Files\Microsoft Visual Studio\2022\Professional\VC\Tools\MSVC\14.44.35207\include\xmemory

; 219  :     _STL_VERIFY(_Back_shift >= _Min_back_shift && _Back_shift <= _Non_user_size, "invalid argument");

  00088	6a 00		 push	 0
  0008a	6a 00		 push	 0
  0008c	6a 00		 push	 0
  0008e	6a 00		 push	 0
  00090	6a 00		 push	 0
  00092	e8 00 00 00 00	 call	 __invoke_watson
$LN74@Tidy:
  00097	cc		 int	 3
?_Tidy@?$deque@USFXHIT_INFO@@V?$allocator@USFXHIT_INFO@@@std@@@std@@AAEXXZ ENDP ; std::deque<SFXHIT_INFO,std::allocator<SFXHIT_INFO> >::_Tidy
_TEXT	ENDS
; Function compile flags: /Ogtp
; File C:\Program Files\Microsoft Visual Studio\2022\Professional\VC\Tools\MSVC\14.44.35207\include\deque
; File C:\Program Files\Microsoft Visual Studio\2022\Professional\VC\Tools\MSVC\14.44.35207\include\xmemory
; File C:\Program Files\Microsoft Visual Studio\2022\Professional\VC\Tools\MSVC\14.44.35207\include\deque
; File C:\Program Files\Microsoft Visual Studio\2022\Professional\VC\Tools\MSVC\14.44.35207\include\xmemory
; File C:\Program Files\Microsoft Visual Studio\2022\Professional\VC\Tools\MSVC\14.44.35207\include\deque
;	COMDAT ?_Growmap@?$deque@USFXHIT_INFO@@V?$allocator@USFXHIT_INFO@@@std@@@std@@AAEXI@Z
_TEXT	SEGMENT
__Myptr$1$ = -8						; size = 4
tv415 = -4						; size = 4
__Count$ = 8						; size = 4
$T1 = 8							; size = 4
__Almap$ = 11						; size = 1
?_Growmap@?$deque@USFXHIT_INFO@@V?$allocator@USFXHIT_INFO@@@std@@@std@@AAEXI@Z PROC ; std::deque<SFXHIT_INFO,std::allocator<SFXHIT_INFO> >::_Growmap, COMDAT
; _this$ = ecx

; 1602 :     void _Growmap(size_type _Count) { // grow map by at least _Count pointers, _Mapsize() a power of 2

  00000	55		 push	 ebp
  00001	8b ec		 mov	 ebp, esp

; 1603 :         static_assert(_Minimum_map_size > 1, "The _Xlen() test should always be performed.");
; 1604 : 
; 1605 :         _Alpty _Almap(_Getal());
; 1606 :         size_type _Newsize = _Mapsize() > 0 ? _Mapsize() : 1;

  00003	8b 55 08	 mov	 edx, DWORD PTR __Count$[ebp]
  00006	83 ec 08	 sub	 esp, 8
  00009	56		 push	 esi
  0000a	57		 push	 edi
  0000b	8b f9		 mov	 edi, ecx
  0000d	be 01 00 00 00	 mov	 esi, 1
  00012	8b 4f 08	 mov	 ecx, DWORD PTR [edi+8]
  00015	85 c9		 test	 ecx, ecx
  00017	0f 45 f1	 cmovne	 esi, ecx
  0001a	66 0f 1f 44 00
	00		 npad	 6
$LL2@Growmap:

; 1607 :         while (_Newsize - _Mapsize() < _Count || _Newsize < _Minimum_map_size) {

  00020	8b c6		 mov	 eax, esi
  00022	2b c1		 sub	 eax, ecx
  00024	3b c2		 cmp	 eax, edx
  00026	72 05		 jb	 SHORT $LN6@Growmap
  00028	83 fe 08	 cmp	 esi, 8
  0002b	73 13		 jae	 SHORT $LN3@Growmap
$LN6@Growmap:

; 1608 :             // scale _Newsize to 2^N >= _Mapsize() + _Count
; 1609 :             if (max_size() / _Block_size - _Newsize < _Newsize) {

  0002d	b8 c7 71 1c 07	 mov	 eax, 119304647		; 071c71c7H
  00032	2b c6		 sub	 eax, esi
  00034	3b c6		 cmp	 eax, esi
  00036	0f 82 f2 00 00
	00		 jb	 $LN36@Growmap

; 1611 :             }
; 1612 : 
; 1613 :             _Newsize *= 2;

  0003c	03 f6		 add	 esi, esi

; 1614 :         }

  0003e	eb e0		 jmp	 SHORT $LL2@Growmap
$LN3@Growmap:

; 1615 : 
; 1616 :         size_type _Allocsize = _Newsize;
; 1617 : 
; 1618 :         const auto _Myboff  = static_cast<size_type>(_Myoff() / _Block_size);

  00040	8b 47 0c	 mov	 eax, DWORD PTR [edi+12]
  00043	89 45 08	 mov	 DWORD PTR $T1[ebp], eax
; File C:\Program Files\Microsoft Visual Studio\2022\Professional\VC\Tools\MSVC\14.44.35207\include\xmemory

; 117  :         if (_Count > _Max_possible) {

  00046	81 fe ff ff ff
	3f		 cmp	 esi, 1073741823		; 3fffffffH
  0004c	0f 87 e1 00 00
	00		 ja	 $LN59@Growmap

; 119  :         }
; 120  :     }
; 121  : 
; 122  :     return _Count * _Ty_size;

  00052	8d 04 b5 00 00
	00 00		 lea	 eax, DWORD PTR [esi*4]
  00059	53		 push	 ebx

; 227  :     if (_Bytes == 0) {

  0005a	85 c0		 test	 eax, eax
  0005c	75 04		 jne	 SHORT $LN23@Growmap

; 228  :         return nullptr;

  0005e	33 db		 xor	 ebx, ebx
  00060	eb 19		 jmp	 SHORT $LN22@Growmap
$LN23@Growmap:

; 229  :     }
; 230  : 
; 231  : #if _HAS_CXX20 // TRANSITION, GH-1532
; 232  :     if (_STD is_constant_evaluated()) {
; 233  :         return _Traits::_Allocate(_Bytes);
; 234  :     }
; 235  : #endif // _HAS_CXX20
; 236  : 
; 237  : #ifdef __cpp_aligned_new
; 238  :     if constexpr (_Align > __STDCPP_DEFAULT_NEW_ALIGNMENT__) {
; 239  :         size_t _Passed_align = _Align;
; 240  : #if defined(_M_IX86) || defined(_M_X64)
; 241  :         if (_Bytes >= _Big_allocation_threshold) {
; 242  :             // boost the alignment of big allocations to help autovectorization
; 243  :             _Passed_align = (_STD max)(_Align, _Big_allocation_alignment);
; 244  :         }
; 245  : #endif // defined(_M_IX86) || defined(_M_X64)
; 246  :         return _Traits::_Allocate_aligned(_Bytes, _Passed_align);
; 247  :     } else
; 248  : #endif // defined(__cpp_aligned_new)
; 249  :     {
; 250  : #if defined(_M_IX86) || defined(_M_X64)
; 251  :         if (_Bytes >= _Big_allocation_threshold) {

  00062	50		 push	 eax
  00063	3d 00 10 00 00	 cmp	 eax, 4096		; 00001000H
  00068	72 07		 jb	 SHORT $LN24@Growmap

; 252  :             // boost the alignment of big allocations to help autovectorization
; 253  :             return _Allocate_manually_vector_aligned<_Traits>(_Bytes);

  0006a	e8 00 00 00 00	 call	 ??$_Allocate_manually_vector_aligned@U_Default_allocate_traits@std@@@std@@YAPAXI@Z ; std::_Allocate_manually_vector_aligned<std::_Default_allocate_traits>
  0006f	eb 05		 jmp	 SHORT $LN57@Growmap
$LN24@Growmap:

; 136  :         return ::operator new(_Bytes);

  00071	e8 00 00 00 00	 call	 ??2@YAPAXI@Z		; operator new
$LN57@Growmap:
; File C:\Program Files\Microsoft Visual Studio\2022\Professional\VC\Tools\MSVC\14.44.35207\include\deque

; 1621 :         _Mapptr _Myptr      = _Newmap + _Map_off;

  00076	8b d8		 mov	 ebx, eax
  00078	83 c4 04	 add	 esp, 4
$LN22@Growmap:
  0007b	8b 55 08	 mov	 edx, DWORD PTR $T1[ebp]
  0007e	c1 e2 02	 shl	 edx, 2
  00081	89 55 fc	 mov	 DWORD PTR tv415[ebp], edx
  00084	8d 04 1a	 lea	 eax, DWORD PTR [edx+ebx]
  00087	89 45 f8	 mov	 DWORD PTR __Myptr$1$[ebp], eax

; 1622 :         _STL_ASSERT(_Allocsize >= _Newsize, "_Allocsize >= _Newsize");
; 1623 :         while (_Newsize <= _Allocsize / 2) {

  0008a	8b c6		 mov	 eax, esi
  0008c	d1 e8		 shr	 eax, 1
  0008e	3b f0		 cmp	 esi, eax
  00090	77 06		 ja	 SHORT $LN5@Growmap
$LL4@Growmap:

; 1624 :             _Newsize *= 2;

  00092	03 f6		 add	 esi, esi
  00094	3b f0		 cmp	 esi, eax
  00096	76 fa		 jbe	 SHORT $LL4@Growmap
$LN5@Growmap:

; 1625 :         }
; 1626 : 
; 1627 :         _Count = _Newsize - _Mapsize();

  00098	8b 47 08	 mov	 eax, DWORD PTR [edi+8]
  0009b	2b f0		 sub	 esi, eax

; 1628 : 
; 1629 :         const auto _Map_count = static_cast<_Map_difference_type>(_Count);
; 1630 : 
; 1631 :         _Myptr = _STD uninitialized_copy(_Map() + _Map_off, _Map() + _Map_distance(), _Myptr); // copy initial to end

  0009d	8b 4f 04	 mov	 ecx, DWORD PTR [edi+4]
  000a0	ff 75 f8	 push	 DWORD PTR __Myptr$1$[ebp]
  000a3	8d 04 81	 lea	 eax, DWORD PTR [ecx+eax*4]
  000a6	50		 push	 eax
  000a7	8d 04 0a	 lea	 eax, DWORD PTR [edx+ecx]
  000aa	50		 push	 eax
  000ab	e8 00 00 00 00	 call	 ??$uninitialized_copy@PAPAUSFXHIT_INFO@@PAPAU1@@std@@YAPAPAUSFXHIT_INFO@@QAPAU1@0PAPAU1@@Z ; std::uninitialized_copy<SFXHIT_INFO * *,SFXHIT_INFO * *>
  000b0	8b 4f 04	 mov	 ecx, DWORD PTR [edi+4]
  000b3	83 c4 0c	 add	 esp, 12			; 0000000cH

; 1632 :         if (_Myboff <= _Count) { // increment greater than offset of initial block

  000b6	50		 push	 eax
  000b7	39 75 08	 cmp	 DWORD PTR $T1[ebp], esi
  000ba	77 22		 ja	 SHORT $LN8@Growmap

; 1633 :             _Myptr = _STD uninitialized_copy(_Map(), _Map() + _Map_off, _Myptr); // copy rest of old

  000bc	8b 45 fc	 mov	 eax, DWORD PTR tv415[ebp]
  000bf	03 c1		 add	 eax, ecx
  000c1	50		 push	 eax
  000c2	51		 push	 ecx
  000c3	e8 00 00 00 00	 call	 ??$uninitialized_copy@PAPAUSFXHIT_INFO@@PAPAU1@@std@@YAPAPAUSFXHIT_INFO@@QAPAU1@0PAPAU1@@Z ; std::uninitialized_copy<SFXHIT_INFO * *,SFXHIT_INFO * *>

; 1634 :             _Uninitialized_value_construct_n_unchecked1(_Myptr, _Count - _Myboff); // clear suffix of new

  000c8	8b ce		 mov	 ecx, esi
  000ca	2b 4d 08	 sub	 ecx, DWORD PTR $T1[ebp]
  000cd	51		 push	 ecx
  000ce	50		 push	 eax
  000cf	e8 00 00 00 00	 call	 ??$_Uninitialized_value_construct_n_unchecked1@PAPAUSFXHIT_INFO@@I@std@@YAPAPAUSFXHIT_INFO@@PAPAU1@I@Z ; std::_Uninitialized_value_construct_n_unchecked1<SFXHIT_INFO * *,unsigned int>

; 1635 :             _Uninitialized_value_construct_n_unchecked1(_Newmap, _Myboff); // clear prefix of new
; 1636 :         } else { // increment not greater than offset of initial block

  000d4	8b 45 08	 mov	 eax, DWORD PTR $T1[ebp]
  000d7	83 c4 14	 add	 esp, 20			; 00000014H
  000da	8b cb		 mov	 ecx, ebx
  000dc	eb 24		 jmp	 SHORT $LN9@Growmap
$LN8@Growmap:

; 1637 :             _STD uninitialized_copy(_Map(), _Map() + _Map_count, _Myptr); // copy more old

  000de	8d 04 b1	 lea	 eax, DWORD PTR [ecx+esi*4]
  000e1	50		 push	 eax
  000e2	51		 push	 ecx
  000e3	e8 00 00 00 00	 call	 ??$uninitialized_copy@PAPAUSFXHIT_INFO@@PAPAU1@@std@@YAPAPAUSFXHIT_INFO@@QAPAU1@0PAPAU1@@Z ; std::uninitialized_copy<SFXHIT_INFO * *,SFXHIT_INFO * *>

; 1638 :             _Myptr = _STD uninitialized_copy(_Map() + _Map_count, _Map() + _Map_off, _Newmap); // copy rest of old

  000e8	8b 4f 04	 mov	 ecx, DWORD PTR [edi+4]
  000eb	8b 45 fc	 mov	 eax, DWORD PTR tv415[ebp]
  000ee	03 c1		 add	 eax, ecx
  000f0	53		 push	 ebx
  000f1	50		 push	 eax
  000f2	8d 04 b1	 lea	 eax, DWORD PTR [ecx+esi*4]
  000f5	50		 push	 eax
  000f6	e8 00 00 00 00	 call	 ??$uninitialized_copy@PAPAUSFXHIT_INFO@@PAPAU1@@std@@YAPAPAUSFXHIT_INFO@@QAPAU1@0PAPAU1@@Z ; std::uninitialized_copy<SFXHIT_INFO * *,SFXHIT_INFO * *>

; 1639 :             _Uninitialized_value_construct_n_unchecked1(_Myptr, _Count); // clear rest to initial block

  000fb	8b c8		 mov	 ecx, eax
  000fd	83 c4 18	 add	 esp, 24			; 00000018H
  00100	8b c6		 mov	 eax, esi
$LN9@Growmap:

; 1640 :         }
; 1641 : 
; 1642 :         if (_Map() != nullptr) {

  00102	50		 push	 eax
  00103	51		 push	 ecx
  00104	e8 00 00 00 00	 call	 ??$_Uninitialized_value_construct_n_unchecked1@PAPAUSFXHIT_INFO@@I@std@@YAPAPAUSFXHIT_INFO@@PAPAU1@I@Z ; std::_Uninitialized_value_construct_n_unchecked1<SFXHIT_INFO * *,unsigned int>
  00109	8b 47 04	 mov	 eax, DWORD PTR [edi+4]
  0010c	83 c4 08	 add	 esp, 8
  0010f	85 c0		 test	 eax, eax
  00111	74 0c		 je	 SHORT $LN10@Growmap

; 1643 :             _Destroy_range(_Map(), _Map() + _Map_distance());
; 1644 :             _Almap.deallocate(_Map(), _Mapsize()); // free storage for old

  00113	ff 77 08	 push	 DWORD PTR [edi+8]
  00116	8d 4d 0b	 lea	 ecx, DWORD PTR __Almap$[ebp]
  00119	50		 push	 eax
  0011a	e8 00 00 00 00	 call	 ?deallocate@?$allocator@PAUSFXHIT_INFO@@@std@@QAEXQAPAUSFXHIT_INFO@@I@Z ; std::allocator<SFXHIT_INFO *>::deallocate
$LN10@Growmap:

; 1645 :         }
; 1646 : 
; 1647 :         _Map() = _Newmap; // point at new
; 1648 :         _Mapsize() += _Count;

  0011f	01 77 08	 add	 DWORD PTR [edi+8], esi
  00122	89 5f 04	 mov	 DWORD PTR [edi+4], ebx
  00125	5b		 pop	 ebx

; 1649 :     }

  00126	5f		 pop	 edi
  00127	5e		 pop	 esi
  00128	8b e5		 mov	 esp, ebp
  0012a	5d		 pop	 ebp
  0012b	c2 04 00	 ret	 4
$LN36@Growmap:

; 1610 :                 _Xlen(); // result too long

  0012e	e8 00 00 00 00	 call	 ?_Xlen@?$deque@USFXHIT_INFO@@V?$allocator@USFXHIT_INFO@@@std@@@std@@CAXXZ ; std::deque<SFXHIT_INFO,std::allocator<SFXHIT_INFO> >::_Xlen
$LN59@Growmap:
; File C:\Program Files\Microsoft Visual Studio\2022\Professional\VC\Tools\MSVC\14.44.35207\include\xmemory

; 118  :             _Throw_bad_array_new_length(); // multiply overflow

  00133	e8 00 00 00 00	 call	 ?_Throw_bad_array_new_length@std@@YAXXZ ; std::_Throw_bad_array_new_length
$LN56@Growmap:
  00138	cc		 int	 3
?_Growmap@?$deque@USFXHIT_INFO@@V?$allocator@USFXHIT_INFO@@@std@@@std@@AAEXI@Z ENDP ; std::deque<SFXHIT_INFO,std::allocator<SFXHIT_INFO> >::_Growmap
_TEXT	ENDS
; Function compile flags: /Ogtp
; File C:\Program Files\Microsoft Visual Studio\2022\Professional\VC\Tools\MSVC\14.44.35207\include\deque
;	COMDAT ?_Xlen@?$deque@USFXHIT_INFO@@V?$allocator@USFXHIT_INFO@@@std@@@std@@CAXXZ
_TEXT	SEGMENT
?_Xlen@?$deque@USFXHIT_INFO@@V?$allocator@USFXHIT_INFO@@@std@@@std@@CAXXZ PROC ; std::deque<SFXHIT_INFO,std::allocator<SFXHIT_INFO> >::_Xlen, COMDAT

; 1595 :         _Xlength_error("deque<T> too long");

  00000	68 00 00 00 00	 push	 OFFSET ??_C@_0BC@KBDMBKEH@deque?$DMT?$DO?5too?5long@
  00005	e8 00 00 00 00	 call	 ?_Xlength_error@std@@YAXPBD@Z ; std::_Xlength_error
$LN3@Xlen:
  0000a	cc		 int	 3
?_Xlen@?$deque@USFXHIT_INFO@@V?$allocator@USFXHIT_INFO@@@std@@@std@@CAXXZ ENDP ; std::deque<SFXHIT_INFO,std::allocator<SFXHIT_INFO> >::_Xlen
_TEXT	ENDS
; Function compile flags: /Ogtp
; File C:\Program Files\Microsoft Visual Studio\2022\Professional\VC\Tools\MSVC\14.44.35207\include\xmemory
;	COMDAT ?deallocate@?$allocator@PAUSFXHIT_INFO@@@std@@QAEXQAPAUSFXHIT_INFO@@I@Z
_TEXT	SEGMENT
__Ptr$ = 8						; size = 4
__Count$ = 12						; size = 4
?deallocate@?$allocator@PAUSFXHIT_INFO@@@std@@QAEXQAPAUSFXHIT_INFO@@I@Z PROC ; std::allocator<SFXHIT_INFO *>::deallocate, COMDAT
; _this$ = ecx

; 982  :     _CONSTEXPR20 void deallocate(_Ty* const _Ptr, const size_t _Count) noexcept /* strengthened */ {

  00000	55		 push	 ebp
  00001	8b ec		 mov	 ebp, esp

; 983  :         _STL_ASSERT(_Ptr != nullptr || _Count == 0, "null pointer cannot point to a block of non-zero size");
; 984  :         // no overflow check on the following multiply; we assume _Allocate did that check
; 985  :         _STD _Deallocate<_New_alignof<_Ty>>(_Ptr, sizeof(_Ty) * _Count);

  00003	8b 45 0c	 mov	 eax, DWORD PTR __Count$[ebp]
  00006	8d 0c 85 00 00
	00 00		 lea	 ecx, DWORD PTR [eax*4]
  0000d	8b 45 08	 mov	 eax, DWORD PTR __Ptr$[ebp]

; 284  :         if (_Bytes >= _Big_allocation_threshold) {

  00010	81 f9 00 10 00
	00		 cmp	 ecx, 4096		; 00001000H
  00016	72 12		 jb	 SHORT $LN11@deallocate

; 205  :     const uintptr_t _Ptr_container   = _Ptr_user[-1];

  00018	8b 50 fc	 mov	 edx, DWORD PTR [eax-4]
  0001b	83 c1 23	 add	 ecx, 35			; 00000023H

; 206  : 
; 207  :     // If the following asserts, it likely means that we are performing
; 208  :     // an aligned delete on memory coming from an unaligned allocation.
; 209  :     _STL_ASSERT(_Ptr_user[-2] == _Big_allocation_sentinel, "invalid argument");
; 210  : 
; 211  :     // Extra paranoia on aligned allocation/deallocation; ensure _Ptr_container is
; 212  :     // in range [_Min_back_shift, _Non_user_size]
; 213  : #ifdef _DEBUG
; 214  :     constexpr uintptr_t _Min_back_shift = 2 * sizeof(void*);
; 215  : #else // ^^^ defined(_DEBUG) / !defined(_DEBUG) vvv
; 216  :     constexpr uintptr_t _Min_back_shift = sizeof(void*);
; 217  : #endif // ^^^ !defined(_DEBUG) ^^^
; 218  :     const uintptr_t _Back_shift = reinterpret_cast<uintptr_t>(_Ptr) - _Ptr_container;

  0001e	2b c2		 sub	 eax, edx

; 219  :     _STL_VERIFY(_Back_shift >= _Min_back_shift && _Back_shift <= _Non_user_size, "invalid argument");

  00020	83 c0 fc	 add	 eax, -4			; fffffffcH
  00023	83 f8 1f	 cmp	 eax, 31			; 0000001fH
  00026	77 10		 ja	 SHORT $LN10@deallocate

; 220  :     _Ptr = reinterpret_cast<void*>(_Ptr_container);

  00028	8b c2		 mov	 eax, edx
$LN11@deallocate:

; 289  :         ::operator delete(_Ptr, _Bytes);

  0002a	51		 push	 ecx
  0002b	50		 push	 eax
  0002c	e8 00 00 00 00	 call	 ??3@YAXPAXI@Z		; operator delete
  00031	83 c4 08	 add	 esp, 8

; 986  :     }

  00034	5d		 pop	 ebp
  00035	c2 08 00	 ret	 8
$LN10@deallocate:

; 219  :     _STL_VERIFY(_Back_shift >= _Min_back_shift && _Back_shift <= _Non_user_size, "invalid argument");

  00038	6a 00		 push	 0
  0003a	6a 00		 push	 0
  0003c	6a 00		 push	 0
  0003e	6a 00		 push	 0
  00040	6a 00		 push	 0
  00042	e8 00 00 00 00	 call	 __invoke_watson
$LN14@deallocate:
  00047	cc		 int	 3
?deallocate@?$allocator@PAUSFXHIT_INFO@@@std@@QAEXQAPAUSFXHIT_INFO@@I@Z ENDP ; std::allocator<SFXHIT_INFO *>::deallocate
_TEXT	ENDS
; Function compile flags: /Ogtp
; File C:\Program Files\Microsoft Visual Studio\2022\Professional\VC\Tools\MSVC\14.44.35207\include\xtree
;	COMDAT ??E?$_Tree_unchecked_const_iterator@V?$_Tree_val@U?$_Tree_simple_types@U?$pair@$$CBKV?$queue@USFXHIT_INFO@@V?$deque@USFXHIT_INFO@@V?$allocator@USFXHIT_INFO@@@std@@@std@@@std@@@std@@@std@@@std@@U_Iterator_base0@2@@std@@QAEAAV01@XZ
_TEXT	SEGMENT
??E?$_Tree_unchecked_const_iterator@V?$_Tree_val@U?$_Tree_simple_types@U?$pair@$$CBKV?$queue@USFXHIT_INFO@@V?$deque@USFXHIT_INFO@@V?$allocator@USFXHIT_INFO@@@std@@@std@@@std@@@std@@@std@@@std@@U_Iterator_base0@2@@std@@QAEAAV01@XZ PROC ; std::_Tree_unchecked_const_iterator<std::_Tree_val<std::_Tree_simple_types<std::pair<unsigned long const ,std::queue<SFXHIT_INFO,std::deque<SFXHIT_INFO,std::allocator<SFXHIT_INFO> > > > > >,std::_Iterator_base0>::operator++, COMDAT
; _this$ = ecx

; 49   :     _Tree_unchecked_const_iterator& operator++() noexcept {

  00000	56		 push	 esi
  00001	8b f1		 mov	 esi, ecx
  00003	57		 push	 edi

; 50   :         if (_Ptr->_Right->_Isnil) { // climb looking for right subtree

  00004	8b 16		 mov	 edx, DWORD PTR [esi]
  00006	8b 7a 08	 mov	 edi, DWORD PTR [edx+8]
  00009	80 7f 0d 00	 cmp	 BYTE PTR [edi+13], 0
  0000d	74 22		 je	 SHORT $LN4@operator

; 51   :             _Nodeptr _Pnode;
; 52   :             while (!(_Pnode = _Ptr->_Parent)->_Isnil && _Ptr == _Pnode->_Right) {

  0000f	8b 42 04	 mov	 eax, DWORD PTR [edx+4]
  00012	80 78 0d 00	 cmp	 BYTE PTR [eax+13], 0
  00016	75 12		 jne	 SHORT $LN21@operator
$LL2@operator:
  00018	3b 50 08	 cmp	 edx, DWORD PTR [eax+8]
  0001b	75 0d		 jne	 SHORT $LN21@operator

; 53   :                 _Ptr = _Pnode; // ==> parent while right subtree

  0001d	89 06		 mov	 DWORD PTR [esi], eax
  0001f	8b d0		 mov	 edx, eax
  00021	8b 40 04	 mov	 eax, DWORD PTR [eax+4]
  00024	80 78 0d 00	 cmp	 BYTE PTR [eax+13], 0
  00028	74 ee		 je	 SHORT $LL2@operator
$LN21@operator:

; 54   :             }
; 55   : 
; 56   :             _Ptr = _Pnode; // ==> parent (head if end())
; 57   :         } else {
; 58   :             _Ptr = _Mytree::_Min(_Ptr->_Right); // ==> smallest of right subtree
; 59   :         }
; 60   : 
; 61   :         return *this;

  0002a	89 06		 mov	 DWORD PTR [esi], eax

; 62   :     }

  0002c	8b c6		 mov	 eax, esi
  0002e	5f		 pop	 edi
  0002f	5e		 pop	 esi
  00030	c3		 ret	 0
$LN4@operator:

; 476  :         while (!_Pnode->_Left->_Isnil) {

  00031	8b 0f		 mov	 ecx, DWORD PTR [edi]
  00033	80 79 0d 00	 cmp	 BYTE PTR [ecx+13], 0
  00037	75 13		 jne	 SHORT $LN10@operator
  00039	0f 1f 80 00 00
	00 00		 npad	 7
$LL9@operator:
  00040	8b 01		 mov	 eax, DWORD PTR [ecx]

; 477  :             _Pnode = _Pnode->_Left;

  00042	8b f9		 mov	 edi, ecx
  00044	8b c8		 mov	 ecx, eax
  00046	80 78 0d 00	 cmp	 BYTE PTR [eax+13], 0
  0004a	74 f4		 je	 SHORT $LL9@operator
$LN10@operator:

; 54   :             }
; 55   : 
; 56   :             _Ptr = _Pnode; // ==> parent (head if end())
; 57   :         } else {
; 58   :             _Ptr = _Mytree::_Min(_Ptr->_Right); // ==> smallest of right subtree
; 59   :         }
; 60   : 
; 61   :         return *this;

  0004c	89 3e		 mov	 DWORD PTR [esi], edi

; 62   :     }

  0004e	8b c6		 mov	 eax, esi
  00050	5f		 pop	 edi
  00051	5e		 pop	 esi
  00052	c3		 ret	 0
??E?$_Tree_unchecked_const_iterator@V?$_Tree_val@U?$_Tree_simple_types@U?$pair@$$CBKV?$queue@USFXHIT_INFO@@V?$deque@USFXHIT_INFO@@V?$allocator@USFXHIT_INFO@@@std@@@std@@@std@@@std@@@std@@@std@@U_Iterator_base0@2@@std@@QAEAAV01@XZ ENDP ; std::_Tree_unchecked_const_iterator<std::_Tree_val<std::_Tree_simple_types<std::pair<unsigned long const ,std::queue<SFXHIT_INFO,std::deque<SFXHIT_INFO,std::allocator<SFXHIT_INFO> > > > > >,std::_Iterator_base0>::operator++
_TEXT	ENDS
; Function compile flags: /Ogtp
; File C:\Program Files\Microsoft Visual Studio\2022\Professional\VC\Tools\MSVC\14.44.35207\include\deque
; File C:\Program Files\Microsoft Visual Studio\2022\Professional\VC\Tools\MSVC\14.44.35207\include\utility
; File C:\Program Files\Microsoft Visual Studio\2022\Professional\VC\Tools\MSVC\14.44.35207\include\xmemory
; File C:\Program Files\Microsoft Visual Studio\2022\Professional\VC\Tools\MSVC\14.44.35207\include\utility
; File C:\Program Files\Microsoft Visual Studio\2022\Professional\VC\Tools\MSVC\14.44.35207\include\xmemory
;	COMDAT ??1?$pair@$$CBKV?$queue@USFXHIT_COUNT@@V?$deque@USFXHIT_COUNT@@V?$allocator@USFXHIT_COUNT@@@std@@@std@@@std@@@std@@QAE@XZ
_TEXT	SEGMENT
??1?$pair@$$CBKV?$queue@USFXHIT_COUNT@@V?$deque@USFXHIT_COUNT@@V?$allocator@USFXHIT_COUNT@@@std@@@std@@@std@@@std@@QAE@XZ PROC ; std::pair<unsigned long const ,std::queue<SFXHIT_COUNT,std::deque<SFXHIT_COUNT,std::allocator<SFXHIT_COUNT> > > >::~pair<unsigned long const ,std::queue<SFXHIT_COUNT,std::deque<SFXHIT_COUNT,std::allocator<SFXHIT_COUNT> > > >, COMDAT
; _this$ = ecx
; File C:\Program Files\Microsoft Visual Studio\2022\Professional\VC\Tools\MSVC\14.44.35207\include\deque

; 774  :         _Tidy();

  00000	56		 push	 esi
  00001	8d 71 04	 lea	 esi, DWORD PTR [ecx+4]
  00004	8b ce		 mov	 ecx, esi
  00006	e8 00 00 00 00	 call	 ?_Tidy@?$deque@USFXHIT_COUNT@@V?$allocator@USFXHIT_COUNT@@@std@@@std@@AAEXXZ ; std::deque<SFXHIT_COUNT,std::allocator<SFXHIT_COUNT> >::_Tidy
; File C:\Program Files\Microsoft Visual Studio\2022\Professional\VC\Tools\MSVC\14.44.35207\include\utility

; 773  :     _Ty _Old_val = static_cast<_Ty&&>(_Val);

  0000b	8b 06		 mov	 eax, DWORD PTR [esi]
; File C:\Program Files\Microsoft Visual Studio\2022\Professional\VC\Tools\MSVC\14.44.35207\include\xmemory

; 289  :         ::operator delete(_Ptr, _Bytes);

  0000d	6a 08		 push	 8
  0000f	50		 push	 eax
; File C:\Program Files\Microsoft Visual Studio\2022\Professional\VC\Tools\MSVC\14.44.35207\include\utility

; 774  :     _Val         = static_cast<_Other&&>(_New_val);

  00010	c7 06 00 00 00
	00		 mov	 DWORD PTR [esi], 0
; File C:\Program Files\Microsoft Visual Studio\2022\Professional\VC\Tools\MSVC\14.44.35207\include\xmemory

; 289  :         ::operator delete(_Ptr, _Bytes);

  00016	e8 00 00 00 00	 call	 ??3@YAXPAXI@Z		; operator delete
  0001b	83 c4 08	 add	 esp, 8
  0001e	5e		 pop	 esi
  0001f	c3		 ret	 0
??1?$pair@$$CBKV?$queue@USFXHIT_COUNT@@V?$deque@USFXHIT_COUNT@@V?$allocator@USFXHIT_COUNT@@@std@@@std@@@std@@@std@@QAE@XZ ENDP ; std::pair<unsigned long const ,std::queue<SFXHIT_COUNT,std::deque<SFXHIT_COUNT,std::allocator<SFXHIT_COUNT> > > >::~pair<unsigned long const ,std::queue<SFXHIT_COUNT,std::deque<SFXHIT_COUNT,std::allocator<SFXHIT_COUNT> > > >
_TEXT	ENDS
; Function compile flags: /Ogtp
; File C:\Program Files\Microsoft Visual Studio\2022\Professional\VC\Tools\MSVC\14.44.35207\include\deque
; File C:\Program Files\Microsoft Visual Studio\2022\Professional\VC\Tools\MSVC\14.44.35207\include\utility
; File C:\Program Files\Microsoft Visual Studio\2022\Professional\VC\Tools\MSVC\14.44.35207\include\xmemory
; File C:\Program Files\Microsoft Visual Studio\2022\Professional\VC\Tools\MSVC\14.44.35207\include\utility
; File C:\Program Files\Microsoft Visual Studio\2022\Professional\VC\Tools\MSVC\14.44.35207\include\xmemory
;	COMDAT ??1?$queue@USFXHIT_COUNT@@V?$deque@USFXHIT_COUNT@@V?$allocator@USFXHIT_COUNT@@@std@@@std@@@std@@QAE@XZ
_TEXT	SEGMENT
??1?$queue@USFXHIT_COUNT@@V?$deque@USFXHIT_COUNT@@V?$allocator@USFXHIT_COUNT@@@std@@@std@@@std@@QAE@XZ PROC ; std::queue<SFXHIT_COUNT,std::deque<SFXHIT_COUNT,std::allocator<SFXHIT_COUNT> > >::~queue<SFXHIT_COUNT,std::deque<SFXHIT_COUNT,std::allocator<SFXHIT_COUNT> > >, COMDAT
; _this$ = ecx
; File C:\Program Files\Microsoft Visual Studio\2022\Professional\VC\Tools\MSVC\14.44.35207\include\deque

; 774  :         _Tidy();

  00000	56		 push	 esi
  00001	8b f1		 mov	 esi, ecx
  00003	e8 00 00 00 00	 call	 ?_Tidy@?$deque@USFXHIT_COUNT@@V?$allocator@USFXHIT_COUNT@@@std@@@std@@AAEXXZ ; std::deque<SFXHIT_COUNT,std::allocator<SFXHIT_COUNT> >::_Tidy
; File C:\Program Files\Microsoft Visual Studio\2022\Professional\VC\Tools\MSVC\14.44.35207\include\utility

; 773  :     _Ty _Old_val = static_cast<_Ty&&>(_Val);

  00008	8b 06		 mov	 eax, DWORD PTR [esi]
; File C:\Program Files\Microsoft Visual Studio\2022\Professional\VC\Tools\MSVC\14.44.35207\include\xmemory

; 289  :         ::operator delete(_Ptr, _Bytes);

  0000a	6a 08		 push	 8
  0000c	50		 push	 eax
; File C:\Program Files\Microsoft Visual Studio\2022\Professional\VC\Tools\MSVC\14.44.35207\include\utility

; 774  :     _Val         = static_cast<_Other&&>(_New_val);

  0000d	c7 06 00 00 00
	00		 mov	 DWORD PTR [esi], 0
; File C:\Program Files\Microsoft Visual Studio\2022\Professional\VC\Tools\MSVC\14.44.35207\include\xmemory

; 289  :         ::operator delete(_Ptr, _Bytes);

  00013	e8 00 00 00 00	 call	 ??3@YAXPAXI@Z		; operator delete
  00018	83 c4 08	 add	 esp, 8
  0001b	5e		 pop	 esi
  0001c	c3		 ret	 0
??1?$queue@USFXHIT_COUNT@@V?$deque@USFXHIT_COUNT@@V?$allocator@USFXHIT_COUNT@@@std@@@std@@@std@@QAE@XZ ENDP ; std::queue<SFXHIT_COUNT,std::deque<SFXHIT_COUNT,std::allocator<SFXHIT_COUNT> > >::~queue<SFXHIT_COUNT,std::deque<SFXHIT_COUNT,std::allocator<SFXHIT_COUNT> > >
_TEXT	ENDS
; Function compile flags: /Ogtp
; File C:\Program Files\Microsoft Visual Studio\2022\Professional\VC\Tools\MSVC\14.44.35207\include\deque
; File C:\Program Files\Microsoft Visual Studio\2022\Professional\VC\Tools\MSVC\14.44.35207\include\xmemory
; File C:\Program Files\Microsoft Visual Studio\2022\Professional\VC\Tools\MSVC\14.44.35207\include\deque
; File C:\Program Files\Microsoft Visual Studio\2022\Professional\VC\Tools\MSVC\14.44.35207\include\xmemory
; File C:\Program Files\Microsoft Visual Studio\2022\Professional\VC\Tools\MSVC\14.44.35207\include\deque
; File C:\Program Files\Microsoft Visual Studio\2022\Professional\VC\Tools\MSVC\14.44.35207\include\xmemory
; File C:\Program Files\Microsoft Visual Studio\2022\Professional\VC\Tools\MSVC\14.44.35207\include\deque
;	COMDAT ?_Tidy@?$deque@USFXHIT_COUNT@@V?$allocator@USFXHIT_COUNT@@@std@@@std@@AAEXXZ
_TEXT	SEGMENT
?_Tidy@?$deque@USFXHIT_COUNT@@V?$allocator@USFXHIT_COUNT@@@std@@@std@@AAEXXZ PROC ; std::deque<SFXHIT_COUNT,std::allocator<SFXHIT_COUNT> >::_Tidy, COMDAT
; _this$ = ecx

; 1670 :     void _Tidy() noexcept { // free all storage

  00000	57		 push	 edi
  00001	8b f9		 mov	 edi, ecx

; 971  :         return _Mysize() == 0;

  00003	8b 4f 10	 mov	 ecx, DWORD PTR [edi+16]
  00006	85 c9		 test	 ecx, ecx

; 1671 :         _Orphan_all();
; 1672 : 
; 1673 :         while (!empty()) {

  00008	74 15		 je	 SHORT $LN65@Tidy
  0000a	66 0f 1f 44 00
	00		 npad	 6
$LL2@Tidy:

; 1513 :         if (--_Mysize() == 0) {

  00010	8d 41 ff	 lea	 eax, DWORD PTR [ecx-1]
  00013	89 47 10	 mov	 DWORD PTR [edi+16], eax
  00016	8b c8		 mov	 ecx, eax
  00018	85 c0		 test	 eax, eax
  0001a	75 f4		 jne	 SHORT $LL2@Tidy

; 1514 :             _Myoff() = 0;

  0001c	89 47 0c	 mov	 DWORD PTR [edi+12], eax
$LN65@Tidy:

; 1674 :             pop_back();
; 1675 :         }
; 1676 : 
; 1677 :         if (_Map() != nullptr) {

  0001f	83 7f 04 00	 cmp	 DWORD PTR [edi+4], 0
  00023	74 61		 je	 SHORT $LN25@Tidy
  00025	56		 push	 esi

; 1654 :         for (auto _Block = _Map_distance(); _Block > 0;) { // free storage for a block and destroy pointer

  00026	8b 77 08	 mov	 esi, DWORD PTR [edi+8]
  00029	85 f6		 test	 esi, esi
  0002b	7e 1d		 jle	 SHORT $LN62@Tidy
  0002d	0f 1f 00	 npad	 3
$LL23@Tidy:

; 1655 :             --_Block;
; 1656 :             auto& _Block_ptr = _Map()[_Block];
; 1657 :             if (_Block_ptr) { // free block

  00030	8b 47 04	 mov	 eax, DWORD PTR [edi+4]
  00033	4e		 dec	 esi
  00034	8b 04 b0	 mov	 eax, DWORD PTR [eax+esi*4]
  00037	85 c0		 test	 eax, eax
  00039	74 0b		 je	 SHORT $LN21@Tidy
; File C:\Program Files\Microsoft Visual Studio\2022\Professional\VC\Tools\MSVC\14.44.35207\include\xmemory

; 289  :         ::operator delete(_Ptr, _Bytes);

  0003b	6a 10		 push	 16			; 00000010H
  0003d	50		 push	 eax
  0003e	e8 00 00 00 00	 call	 ??3@YAXPAXI@Z		; operator delete
  00043	83 c4 08	 add	 esp, 8
$LN21@Tidy:
; File C:\Program Files\Microsoft Visual Studio\2022\Professional\VC\Tools\MSVC\14.44.35207\include\deque

; 1654 :         for (auto _Block = _Map_distance(); _Block > 0;) { // free storage for a block and destroy pointer

  00046	85 f6		 test	 esi, esi
  00048	7f e6		 jg	 SHORT $LL23@Tidy
$LN62@Tidy:
; File C:\Program Files\Microsoft Visual Studio\2022\Professional\VC\Tools\MSVC\14.44.35207\include\xmemory

; 985  :         _STD _Deallocate<_New_alignof<_Ty>>(_Ptr, sizeof(_Ty) * _Count);

  0004a	8b 4f 08	 mov	 ecx, DWORD PTR [edi+8]
  0004d	8b 47 04	 mov	 eax, DWORD PTR [edi+4]
  00050	c1 e1 02	 shl	 ecx, 2
  00053	5e		 pop	 esi

; 284  :         if (_Bytes >= _Big_allocation_threshold) {

  00054	81 f9 00 10 00
	00		 cmp	 ecx, 4096		; 00001000H
  0005a	72 12		 jb	 SHORT $LN51@Tidy

; 205  :     const uintptr_t _Ptr_container   = _Ptr_user[-1];

  0005c	8b 50 fc	 mov	 edx, DWORD PTR [eax-4]
  0005f	83 c1 23	 add	 ecx, 35			; 00000023H

; 206  : 
; 207  :     // If the following asserts, it likely means that we are performing
; 208  :     // an aligned delete on memory coming from an unaligned allocation.
; 209  :     _STL_ASSERT(_Ptr_user[-2] == _Big_allocation_sentinel, "invalid argument");
; 210  : 
; 211  :     // Extra paranoia on aligned allocation/deallocation; ensure _Ptr_container is
; 212  :     // in range [_Min_back_shift, _Non_user_size]
; 213  : #ifdef _DEBUG
; 214  :     constexpr uintptr_t _Min_back_shift = 2 * sizeof(void*);
; 215  : #else // ^^^ defined(_DEBUG) / !defined(_DEBUG) vvv
; 216  :     constexpr uintptr_t _Min_back_shift = sizeof(void*);
; 217  : #endif // ^^^ !defined(_DEBUG) ^^^
; 218  :     const uintptr_t _Back_shift = reinterpret_cast<uintptr_t>(_Ptr) - _Ptr_container;

  00062	2b c2		 sub	 eax, edx

; 219  :     _STL_VERIFY(_Back_shift >= _Min_back_shift && _Back_shift <= _Non_user_size, "invalid argument");

  00064	83 c0 fc	 add	 eax, -4			; fffffffcH
  00067	83 f8 1f	 cmp	 eax, 31			; 0000001fH
  0006a	77 1c		 ja	 SHORT $LN50@Tidy

; 220  :     _Ptr = reinterpret_cast<void*>(_Ptr_container);

  0006c	8b c2		 mov	 eax, edx
$LN51@Tidy:

; 289  :         ::operator delete(_Ptr, _Bytes);

  0006e	51		 push	 ecx
  0006f	50		 push	 eax
  00070	e8 00 00 00 00	 call	 ??3@YAXPAXI@Z		; operator delete
  00075	83 c4 08	 add	 esp, 8
; File C:\Program Files\Microsoft Visual Studio\2022\Professional\VC\Tools\MSVC\14.44.35207\include\deque

; 1666 :         _Map()     = nullptr;

  00078	c7 47 04 00 00
	00 00		 mov	 DWORD PTR [edi+4], 0

; 1667 :         _Mapsize() = 0;

  0007f	c7 47 08 00 00
	00 00		 mov	 DWORD PTR [edi+8], 0
$LN25@Tidy:
  00086	5f		 pop	 edi

; 1682 :     }

  00087	c3		 ret	 0
$LN50@Tidy:
; File C:\Program Files\Microsoft Visual Studio\2022\Professional\VC\Tools\MSVC\14.44.35207\include\xmemory

; 219  :     _STL_VERIFY(_Back_shift >= _Min_back_shift && _Back_shift <= _Non_user_size, "invalid argument");

  00088	6a 00		 push	 0
  0008a	6a 00		 push	 0
  0008c	6a 00		 push	 0
  0008e	6a 00		 push	 0
  00090	6a 00		 push	 0
  00092	e8 00 00 00 00	 call	 __invoke_watson
$LN74@Tidy:
  00097	cc		 int	 3
?_Tidy@?$deque@USFXHIT_COUNT@@V?$allocator@USFXHIT_COUNT@@@std@@@std@@AAEXXZ ENDP ; std::deque<SFXHIT_COUNT,std::allocator<SFXHIT_COUNT> >::_Tidy
_TEXT	ENDS
; Function compile flags: /Ogtp
; File C:\Program Files\Microsoft Visual Studio\2022\Professional\VC\Tools\MSVC\14.44.35207\include\deque
; File C:\Program Files\Microsoft Visual Studio\2022\Professional\VC\Tools\MSVC\14.44.35207\include\xmemory
; File C:\Program Files\Microsoft Visual Studio\2022\Professional\VC\Tools\MSVC\14.44.35207\include\deque
; File C:\Program Files\Microsoft Visual Studio\2022\Professional\VC\Tools\MSVC\14.44.35207\include\xmemory
; File C:\Program Files\Microsoft Visual Studio\2022\Professional\VC\Tools\MSVC\14.44.35207\include\deque
;	COMDAT ?_Growmap@?$deque@USFXHIT_COUNT@@V?$allocator@USFXHIT_COUNT@@@std@@@std@@AAEXI@Z
_TEXT	SEGMENT
tv415 = -8						; size = 4
$T1 = -4						; size = 4
__Count$ = 8						; size = 4
__Myptr$1$ = 8						; size = 4
__Almap$ = 11						; size = 1
?_Growmap@?$deque@USFXHIT_COUNT@@V?$allocator@USFXHIT_COUNT@@@std@@@std@@AAEXI@Z PROC ; std::deque<SFXHIT_COUNT,std::allocator<SFXHIT_COUNT> >::_Growmap, COMDAT
; _this$ = ecx

; 1602 :     void _Growmap(size_type _Count) { // grow map by at least _Count pointers, _Mapsize() a power of 2

  00000	55		 push	 ebp
  00001	8b ec		 mov	 ebp, esp

; 1603 :         static_assert(_Minimum_map_size > 1, "The _Xlen() test should always be performed.");
; 1604 : 
; 1605 :         _Alpty _Almap(_Getal());
; 1606 :         size_type _Newsize = _Mapsize() > 0 ? _Mapsize() : 1;

  00003	8b 55 08	 mov	 edx, DWORD PTR __Count$[ebp]
  00006	83 ec 08	 sub	 esp, 8
  00009	56		 push	 esi
  0000a	57		 push	 edi
  0000b	8b f9		 mov	 edi, ecx
  0000d	be 01 00 00 00	 mov	 esi, 1
  00012	8b 4f 08	 mov	 ecx, DWORD PTR [edi+8]
  00015	85 c9		 test	 ecx, ecx
  00017	0f 45 f1	 cmovne	 esi, ecx
  0001a	66 0f 1f 44 00
	00		 npad	 6
$LL2@Growmap:

; 1607 :         while (_Newsize - _Mapsize() < _Count || _Newsize < _Minimum_map_size) {

  00020	8b c6		 mov	 eax, esi
  00022	2b c1		 sub	 eax, ecx
  00024	3b c2		 cmp	 eax, edx
  00026	72 05		 jb	 SHORT $LN6@Growmap
  00028	83 fe 08	 cmp	 esi, 8
  0002b	73 13		 jae	 SHORT $LN3@Growmap
$LN6@Growmap:

; 1608 :             // scale _Newsize to 2^N >= _Mapsize() + _Count
; 1609 :             if (max_size() / _Block_size - _Newsize < _Newsize) {

  0002d	b8 ff ff ff 0f	 mov	 eax, 268435455		; 0fffffffH
  00032	2b c6		 sub	 eax, esi
  00034	3b c6		 cmp	 eax, esi
  00036	0f 82 f3 00 00
	00		 jb	 $LN36@Growmap

; 1611 :             }
; 1612 : 
; 1613 :             _Newsize *= 2;

  0003c	03 f6		 add	 esi, esi

; 1614 :         }

  0003e	eb e0		 jmp	 SHORT $LL2@Growmap
$LN3@Growmap:
  00040	53		 push	 ebx

; 1615 : 
; 1616 :         size_type _Allocsize = _Newsize;
; 1617 : 
; 1618 :         const auto _Myboff  = static_cast<size_type>(_Myoff() / _Block_size);

  00041	8b 5f 0c	 mov	 ebx, DWORD PTR [edi+12]
  00044	d1 eb		 shr	 ebx, 1
; File C:\Program Files\Microsoft Visual Studio\2022\Professional\VC\Tools\MSVC\14.44.35207\include\xmemory

; 117  :         if (_Count > _Max_possible) {

  00046	81 fe ff ff ff
	3f		 cmp	 esi, 1073741823		; 3fffffffH
  0004c	0f 87 e2 00 00
	00		 ja	 $LN60@Growmap

; 119  :         }
; 120  :     }
; 121  : 
; 122  :     return _Count * _Ty_size;

  00052	8d 04 b5 00 00
	00 00		 lea	 eax, DWORD PTR [esi*4]

; 227  :     if (_Bytes == 0) {

  00059	85 c0		 test	 eax, eax
  0005b	74 17		 je	 SHORT $LN57@Growmap
$LN23@Growmap:

; 228  :         return nullptr;
; 229  :     }
; 230  : 
; 231  : #if _HAS_CXX20 // TRANSITION, GH-1532
; 232  :     if (_STD is_constant_evaluated()) {
; 233  :         return _Traits::_Allocate(_Bytes);
; 234  :     }
; 235  : #endif // _HAS_CXX20
; 236  : 
; 237  : #ifdef __cpp_aligned_new
; 238  :     if constexpr (_Align > __STDCPP_DEFAULT_NEW_ALIGNMENT__) {
; 239  :         size_t _Passed_align = _Align;
; 240  : #if defined(_M_IX86) || defined(_M_X64)
; 241  :         if (_Bytes >= _Big_allocation_threshold) {
; 242  :             // boost the alignment of big allocations to help autovectorization
; 243  :             _Passed_align = (_STD max)(_Align, _Big_allocation_alignment);
; 244  :         }
; 245  : #endif // defined(_M_IX86) || defined(_M_X64)
; 246  :         return _Traits::_Allocate_aligned(_Bytes, _Passed_align);
; 247  :     } else
; 248  : #endif // defined(__cpp_aligned_new)
; 249  :     {
; 250  : #if defined(_M_IX86) || defined(_M_X64)
; 251  :         if (_Bytes >= _Big_allocation_threshold) {

  0005d	50		 push	 eax
  0005e	3d 00 10 00 00	 cmp	 eax, 4096		; 00001000H
  00063	72 07		 jb	 SHORT $LN24@Growmap

; 252  :             // boost the alignment of big allocations to help autovectorization
; 253  :             return _Allocate_manually_vector_aligned<_Traits>(_Bytes);

  00065	e8 00 00 00 00	 call	 ??$_Allocate_manually_vector_aligned@U_Default_allocate_traits@std@@@std@@YAPAXI@Z ; std::_Allocate_manually_vector_aligned<std::_Default_allocate_traits>
  0006a	eb 05		 jmp	 SHORT $LN58@Growmap
$LN24@Growmap:

; 136  :         return ::operator new(_Bytes);

  0006c	e8 00 00 00 00	 call	 ??2@YAPAXI@Z		; operator new
$LN58@Growmap:
; File C:\Program Files\Microsoft Visual Studio\2022\Professional\VC\Tools\MSVC\14.44.35207\include\deque

; 1621 :         _Mapptr _Myptr      = _Newmap + _Map_off;

  00071	83 c4 04	 add	 esp, 4
$LN57@Growmap:
  00074	89 45 fc	 mov	 DWORD PTR $T1[ebp], eax
  00077	8d 14 9d 00 00
	00 00		 lea	 edx, DWORD PTR [ebx*4]
  0007e	03 c2		 add	 eax, edx
  00080	89 55 f8	 mov	 DWORD PTR tv415[ebp], edx
  00083	89 45 08	 mov	 DWORD PTR __Myptr$1$[ebp], eax

; 1622 :         _STL_ASSERT(_Allocsize >= _Newsize, "_Allocsize >= _Newsize");
; 1623 :         while (_Newsize <= _Allocsize / 2) {

  00086	8b c6		 mov	 eax, esi
  00088	d1 e8		 shr	 eax, 1
  0008a	3b f0		 cmp	 esi, eax
  0008c	77 08		 ja	 SHORT $LN5@Growmap
  0008e	66 90		 npad	 2
$LL4@Growmap:

; 1624 :             _Newsize *= 2;

  00090	03 f6		 add	 esi, esi
  00092	3b f0		 cmp	 esi, eax
  00094	76 fa		 jbe	 SHORT $LL4@Growmap
$LN5@Growmap:

; 1625 :         }
; 1626 : 
; 1627 :         _Count = _Newsize - _Mapsize();

  00096	8b 47 08	 mov	 eax, DWORD PTR [edi+8]
  00099	2b f0		 sub	 esi, eax

; 1628 : 
; 1629 :         const auto _Map_count = static_cast<_Map_difference_type>(_Count);
; 1630 : 
; 1631 :         _Myptr = _STD uninitialized_copy(_Map() + _Map_off, _Map() + _Map_distance(), _Myptr); // copy initial to end

  0009b	8b 4f 04	 mov	 ecx, DWORD PTR [edi+4]
  0009e	ff 75 08	 push	 DWORD PTR __Myptr$1$[ebp]
  000a1	8d 04 81	 lea	 eax, DWORD PTR [ecx+eax*4]
  000a4	50		 push	 eax
  000a5	8d 04 0a	 lea	 eax, DWORD PTR [edx+ecx]
  000a8	50		 push	 eax
  000a9	e8 00 00 00 00	 call	 ??$uninitialized_copy@PAPAUSFXHIT_COUNT@@PAPAU1@@std@@YAPAPAUSFXHIT_COUNT@@QAPAU1@0PAPAU1@@Z ; std::uninitialized_copy<SFXHIT_COUNT * *,SFXHIT_COUNT * *>
  000ae	8b 4f 04	 mov	 ecx, DWORD PTR [edi+4]
  000b1	83 c4 0c	 add	 esp, 12			; 0000000cH

; 1632 :         if (_Myboff <= _Count) { // increment greater than offset of initial block

  000b4	50		 push	 eax
  000b5	3b de		 cmp	 ebx, esi
  000b7	77 23		 ja	 SHORT $LN8@Growmap

; 1633 :             _Myptr = _STD uninitialized_copy(_Map(), _Map() + _Map_off, _Myptr); // copy rest of old

  000b9	8d 04 9d 00 00
	00 00		 lea	 eax, DWORD PTR [ebx*4]
  000c0	03 c1		 add	 eax, ecx
  000c2	50		 push	 eax
  000c3	51		 push	 ecx
  000c4	e8 00 00 00 00	 call	 ??$uninitialized_copy@PAPAUSFXHIT_COUNT@@PAPAU1@@std@@YAPAPAUSFXHIT_COUNT@@QAPAU1@0PAPAU1@@Z ; std::uninitialized_copy<SFXHIT_COUNT * *,SFXHIT_COUNT * *>

; 1634 :             _Uninitialized_value_construct_n_unchecked1(_Myptr, _Count - _Myboff); // clear suffix of new

  000c9	8b ce		 mov	 ecx, esi
  000cb	2b cb		 sub	 ecx, ebx
  000cd	51		 push	 ecx
  000ce	50		 push	 eax
  000cf	e8 00 00 00 00	 call	 ??$_Uninitialized_value_construct_n_unchecked1@PAPAUSFXHIT_COUNT@@I@std@@YAPAPAUSFXHIT_COUNT@@PAPAU1@I@Z ; std::_Uninitialized_value_construct_n_unchecked1<SFXHIT_COUNT * *,unsigned int>

; 1635 :             _Uninitialized_value_construct_n_unchecked1(_Newmap, _Myboff); // clear prefix of new

  000d4	8b 45 fc	 mov	 eax, DWORD PTR $T1[ebp]
  000d7	83 c4 14	 add	 esp, 20			; 00000014H

; 1636 :         } else { // increment not greater than offset of initial block

  000da	eb 24		 jmp	 SHORT $LN9@Growmap
$LN8@Growmap:

; 1637 :             _STD uninitialized_copy(_Map(), _Map() + _Map_count, _Myptr); // copy more old

  000dc	8d 04 b1	 lea	 eax, DWORD PTR [ecx+esi*4]
  000df	50		 push	 eax
  000e0	51		 push	 ecx
  000e1	e8 00 00 00 00	 call	 ??$uninitialized_copy@PAPAUSFXHIT_COUNT@@PAPAU1@@std@@YAPAPAUSFXHIT_COUNT@@QAPAU1@0PAPAU1@@Z ; std::uninitialized_copy<SFXHIT_COUNT * *,SFXHIT_COUNT * *>

; 1638 :             _Myptr = _STD uninitialized_copy(_Map() + _Map_count, _Map() + _Map_off, _Newmap); // copy rest of old

  000e6	8b 4f 04	 mov	 ecx, DWORD PTR [edi+4]
  000e9	ff 75 fc	 push	 DWORD PTR $T1[ebp]
  000ec	8b 45 f8	 mov	 eax, DWORD PTR tv415[ebp]
  000ef	03 c1		 add	 eax, ecx
  000f1	50		 push	 eax
  000f2	8d 04 b1	 lea	 eax, DWORD PTR [ecx+esi*4]
  000f5	50		 push	 eax
  000f6	e8 00 00 00 00	 call	 ??$uninitialized_copy@PAPAUSFXHIT_COUNT@@PAPAU1@@std@@YAPAPAUSFXHIT_COUNT@@QAPAU1@0PAPAU1@@Z ; std::uninitialized_copy<SFXHIT_COUNT * *,SFXHIT_COUNT * *>
  000fb	83 c4 18	 add	 esp, 24			; 00000018H

; 1639 :             _Uninitialized_value_construct_n_unchecked1(_Myptr, _Count); // clear rest to initial block

  000fe	8b de		 mov	 ebx, esi
$LN9@Growmap:

; 1640 :         }
; 1641 : 
; 1642 :         if (_Map() != nullptr) {

  00100	53		 push	 ebx
  00101	50		 push	 eax
  00102	e8 00 00 00 00	 call	 ??$_Uninitialized_value_construct_n_unchecked1@PAPAUSFXHIT_COUNT@@I@std@@YAPAPAUSFXHIT_COUNT@@PAPAU1@I@Z ; std::_Uninitialized_value_construct_n_unchecked1<SFXHIT_COUNT * *,unsigned int>
  00107	8b 47 04	 mov	 eax, DWORD PTR [edi+4]
  0010a	83 c4 08	 add	 esp, 8
  0010d	85 c0		 test	 eax, eax
  0010f	74 0c		 je	 SHORT $LN10@Growmap

; 1643 :             _Destroy_range(_Map(), _Map() + _Map_distance());
; 1644 :             _Almap.deallocate(_Map(), _Mapsize()); // free storage for old

  00111	ff 77 08	 push	 DWORD PTR [edi+8]
  00114	8d 4d 0b	 lea	 ecx, DWORD PTR __Almap$[ebp]
  00117	50		 push	 eax
  00118	e8 00 00 00 00	 call	 ?deallocate@?$allocator@PAUSFXHIT_COUNT@@@std@@QAEXQAPAUSFXHIT_COUNT@@I@Z ; std::allocator<SFXHIT_COUNT *>::deallocate
$LN10@Growmap:

; 1645 :         }
; 1646 : 
; 1647 :         _Map() = _Newmap; // point at new

  0011d	8b 45 fc	 mov	 eax, DWORD PTR $T1[ebp]

; 1648 :         _Mapsize() += _Count;

  00120	01 77 08	 add	 DWORD PTR [edi+8], esi
  00123	5b		 pop	 ebx
  00124	89 47 04	 mov	 DWORD PTR [edi+4], eax

; 1649 :     }

  00127	5f		 pop	 edi
  00128	5e		 pop	 esi
  00129	8b e5		 mov	 esp, ebp
  0012b	5d		 pop	 ebp
  0012c	c2 04 00	 ret	 4
$LN36@Growmap:

; 1610 :                 _Xlen(); // result too long

  0012f	e8 00 00 00 00	 call	 ?_Xlen@?$deque@USFXHIT_COUNT@@V?$allocator@USFXHIT_COUNT@@@std@@@std@@CAXXZ ; std::deque<SFXHIT_COUNT,std::allocator<SFXHIT_COUNT> >::_Xlen
$LN60@Growmap:
; File C:\Program Files\Microsoft Visual Studio\2022\Professional\VC\Tools\MSVC\14.44.35207\include\xmemory

; 118  :             _Throw_bad_array_new_length(); // multiply overflow

  00134	e8 00 00 00 00	 call	 ?_Throw_bad_array_new_length@std@@YAXXZ ; std::_Throw_bad_array_new_length
$LN56@Growmap:
  00139	cc		 int	 3
?_Growmap@?$deque@USFXHIT_COUNT@@V?$allocator@USFXHIT_COUNT@@@std@@@std@@AAEXI@Z ENDP ; std::deque<SFXHIT_COUNT,std::allocator<SFXHIT_COUNT> >::_Growmap
_TEXT	ENDS
; Function compile flags: /Ogtp
; File C:\Program Files\Microsoft Visual Studio\2022\Professional\VC\Tools\MSVC\14.44.35207\include\deque
;	COMDAT ?_Xlen@?$deque@USFXHIT_COUNT@@V?$allocator@USFXHIT_COUNT@@@std@@@std@@CAXXZ
_TEXT	SEGMENT
?_Xlen@?$deque@USFXHIT_COUNT@@V?$allocator@USFXHIT_COUNT@@@std@@@std@@CAXXZ PROC ; std::deque<SFXHIT_COUNT,std::allocator<SFXHIT_COUNT> >::_Xlen, COMDAT

; 1595 :         _Xlength_error("deque<T> too long");

  00000	68 00 00 00 00	 push	 OFFSET ??_C@_0BC@KBDMBKEH@deque?$DMT?$DO?5too?5long@
  00005	e8 00 00 00 00	 call	 ?_Xlength_error@std@@YAXPBD@Z ; std::_Xlength_error
$LN3@Xlen:
  0000a	cc		 int	 3
?_Xlen@?$deque@USFXHIT_COUNT@@V?$allocator@USFXHIT_COUNT@@@std@@@std@@CAXXZ ENDP ; std::deque<SFXHIT_COUNT,std::allocator<SFXHIT_COUNT> >::_Xlen
_TEXT	ENDS
; Function compile flags: /Ogtp
; File C:\Program Files\Microsoft Visual Studio\2022\Professional\VC\Tools\MSVC\14.44.35207\include\deque
; File C:\Program Files\Microsoft Visual Studio\2022\Professional\VC\Tools\MSVC\14.44.35207\include\xmemory
; File C:\Program Files\Microsoft Visual Studio\2022\Professional\VC\Tools\MSVC\14.44.35207\include\deque
; File C:\Program Files\Microsoft Visual Studio\2022\Professional\VC\Tools\MSVC\14.44.35207\include\xmemory
; File C:\Program Files\Microsoft Visual Studio\2022\Professional\VC\Tools\MSVC\14.44.35207\include\deque
; File C:\Program Files\Microsoft Visual Studio\2022\Professional\VC\Tools\MSVC\14.44.35207\include\xmemory
; File C:\Program Files\Microsoft Visual Studio\2022\Professional\VC\Tools\MSVC\14.44.35207\include\deque
; File C:\Program Files\Microsoft Visual Studio\2022\Professional\VC\Tools\MSVC\14.44.35207\include\xmemory
; File C:\Program Files\Microsoft Visual Studio\2022\Professional\VC\Tools\MSVC\14.44.35207\include\deque
; File C:\Program Files\Microsoft Visual Studio\2022\Professional\VC\Tools\MSVC\14.44.35207\include\xmemory
; File C:\Program Files\Microsoft Visual Studio\2022\Professional\VC\Tools\MSVC\14.44.35207\include\deque
;	COMDAT ??0?$deque@USFXHIT_COUNT@@V?$allocator@USFXHIT_COUNT@@@std@@@std@@QAE@ABV01@@Z
_TEXT	SEGMENT
$T2 = -48						; size = 8
__First$ = -48						; size = 8
__Proxy$3 = -48						; size = 8
$T4 = -40						; size = 8
$T5 = -40						; size = 8
__Guard$6 = -36						; size = 4
$T7 = -32						; size = 4
tv842 = -28						; size = 4
$T8 = -24						; size = 4
$T9 = -20						; size = 4
__Alproxy$10 = -13					; size = 1
__$EHRec$ = -12						; size = 12
__Right$ = 8						; size = 4
??0?$deque@USFXHIT_COUNT@@V?$allocator@USFXHIT_COUNT@@@std@@@std@@QAE@ABV01@@Z PROC ; std::deque<SFXHIT_COUNT,std::allocator<SFXHIT_COUNT> >::deque<SFXHIT_COUNT,std::allocator<SFXHIT_COUNT> >, COMDAT
; _this$ = ecx

; 696  :         : _Mypair(_One_then_variadic_args_t{}, _Alty_traits::select_on_container_copy_construction(_Right._Getal())) {

  00000	55		 push	 ebp
  00001	8b ec		 mov	 ebp, esp
  00003	6a ff		 push	 -1
  00005	68 00 00 00 00	 push	 __ehhandler$??0?$deque@USFXHIT_COUNT@@V?$allocator@USFXHIT_COUNT@@@std@@@std@@QAE@ABV01@@Z
  0000a	64 a1 00 00 00
	00		 mov	 eax, DWORD PTR fs:0
  00010	50		 push	 eax
  00011	83 ec 24	 sub	 esp, 36			; 00000024H
  00014	53		 push	 ebx
  00015	56		 push	 esi
  00016	57		 push	 edi
  00017	a1 00 00 00 00	 mov	 eax, DWORD PTR ___security_cookie
  0001c	33 c5		 xor	 eax, ebp
  0001e	50		 push	 eax
  0001f	8d 45 f4	 lea	 eax, DWORD PTR __$EHRec$[ebp]
  00022	64 a3 00 00 00
	00		 mov	 DWORD PTR fs:0, eax
  00028	8b f1		 mov	 esi, ecx

; 931  :         return _Unchecked_const_iterator(_Myoff() + _Mysize(), _STD addressof(_Get_data()));

  0002a	8b 7d 08	 mov	 edi, DWORD PTR __Right$[ebp]
; File C:\Program Files\Microsoft Visual Studio\2022\Professional\VC\Tools\MSVC\14.44.35207\include\xmemory

; 1235 :     _Container_proxy* _Myproxy = nullptr;

  0002d	c7 06 00 00 00
	00		 mov	 DWORD PTR [esi], 0
; File C:\Program Files\Microsoft Visual Studio\2022\Professional\VC\Tools\MSVC\14.44.35207\include\deque

; 556  :     _Deque_val() noexcept : _Map(), _Mapsize(0), _Myoff(0), _Mysize(0) {}

  00033	c7 46 04 00 00
	00 00		 mov	 DWORD PTR [esi+4], 0
  0003a	c7 46 08 00 00
	00 00		 mov	 DWORD PTR [esi+8], 0
  00041	c7 46 0c 00 00
	00 00		 mov	 DWORD PTR [esi+12], 0
  00048	c7 46 10 00 00
	00 00		 mov	 DWORD PTR [esi+16], 0

; 931  :         return _Unchecked_const_iterator(_Myoff() + _Mysize(), _STD addressof(_Get_data()));

  0004f	8b 5f 0c	 mov	 ebx, DWORD PTR [edi+12]
  00052	8b 47 10	 mov	 eax, DWORD PTR [edi+16]
  00055	03 c3		 add	 eax, ebx

; 42   :         : _Mycont(static_cast<const _Mydeque*>(_Pdeque)), _Myoff(_Off) {}

  00057	89 7d d0	 mov	 DWORD PTR $T2[ebp], edi

; 931  :         return _Unchecked_const_iterator(_Myoff() + _Mysize(), _STD addressof(_Get_data()));

  0005a	89 45 e8	 mov	 DWORD PTR $T8[ebp], eax
; File C:\Program Files\Microsoft Visual Studio\2022\Professional\VC\Tools\MSVC\14.44.35207\include\xmemory

; 1481 :     _CONSTEXPR20 _Container_proxy_ptr12(_Alloc& _Al_, _Container_base12& _Mycont) : _Al(_Al_) {

  0005d	8d 45 f3	 lea	 eax, DWORD PTR __Alproxy$10[ebp]

; 136  :         return ::operator new(_Bytes);

  00060	6a 08		 push	 8
; File C:\Program Files\Microsoft Visual Studio\2022\Professional\VC\Tools\MSVC\14.44.35207\include\deque

; 931  :         return _Unchecked_const_iterator(_Myoff() + _Mysize(), _STD addressof(_Get_data()));

  00062	89 5d ec	 mov	 DWORD PTR $T9[ebp], ebx

; 697  :         _Construct(_Right._Unchecked_begin(), _Right._Unchecked_end());

  00065	89 7d d0	 mov	 DWORD PTR __First$[ebp], edi
; File C:\Program Files\Microsoft Visual Studio\2022\Professional\VC\Tools\MSVC\14.44.35207\include\xmemory

; 1481 :     _CONSTEXPR20 _Container_proxy_ptr12(_Alloc& _Al_, _Container_base12& _Mycont) : _Al(_Al_) {

  00068	89 45 d4	 mov	 DWORD PTR __Proxy$3[ebp+4], eax

; 136  :         return ::operator new(_Bytes);

  0006b	e8 00 00 00 00	 call	 ??2@YAPAXI@Z		; operator new

; 256  :         return _Traits::_Allocate(_Bytes);

  00070	c7 45 dc 00 00
	00 00		 mov	 DWORD PTR $T5[ebp+4], 0

; 136  :         return ::operator new(_Bytes);

  00077	83 c4 04	 add	 esp, 4

; 256  :         return _Traits::_Allocate(_Bytes);

  0007a	c7 45 dc 00 00
	00 00		 mov	 DWORD PTR $T4[ebp+4], 0

; 1483 :         _Ptr = _Unfancy(_Al_.allocate(1));

  00081	89 45 d0	 mov	 DWORD PTR __Proxy$3[ebp], eax

; 1202 :     _CONSTEXPR20 _Container_proxy(_Container_base12* _Mycont_) noexcept : _Mycont(_Mycont_) {}

  00084	89 30		 mov	 DWORD PTR [eax], esi

; 1203 : 
; 1204 :     const _Container_base12* _Mycont       = nullptr;
; 1205 :     mutable _Iterator_base12* _Myfirstiter = nullptr;

  00086	c7 40 04 00 00
	00 00		 mov	 DWORD PTR [eax+4], 0

; 1485 :         _Mycont._Myproxy = _Ptr;

  0008d	89 06		 mov	 DWORD PTR [esi], eax
; File C:\Program Files\Microsoft Visual Studio\2022\Professional\VC\Tools\MSVC\14.44.35207\include\deque

; 731  :         _Container_proxy_ptr12<_Alproxy_ty> _Proxy(_Alproxy, _Get_data());

  0008f	c7 45 fc 00 00
	00 00		 mov	 DWORD PTR __$EHRec$[ebp+8], 0

; 732  : 
; 733  :         _Tidy_guard<deque> _Guard{this};

  00096	89 75 dc	 mov	 DWORD PTR __Guard$6[ebp], esi
  00099	c6 45 fc 01	 mov	 BYTE PTR __$EHRec$[ebp+8], 1

; 120  :         return !(*this == _Right);

  0009d	3b 5d e8	 cmp	 ebx, DWORD PTR $T8[ebp]

; 734  :         for (; _First != _Last; ++_First) {

  000a0	0f 84 b2 00 00
	00		 je	 $LN138@deque
  000a6	8b d3		 mov	 edx, ebx
$LL27@deque:

; 572  :         return static_cast<_Map_difference_type>((_Off / _Block_size) & (_Mapsize - 1));

  000a8	8b 47 08	 mov	 eax, DWORD PTR [edi+8]
  000ab	8b ca		 mov	 ecx, edx
  000ad	48		 dec	 eax
  000ae	d1 e9		 shr	 ecx, 1
  000b0	23 c8		 and	 ecx, eax

; 583  :         const auto _Block_off = static_cast<difference_type>(_Off % _Block_size);

  000b2	83 e2 01	 and	 edx, 1

; 584  :         return _Map[_Block][_Block_off];

  000b5	8b 47 04	 mov	 eax, DWORD PTR [edi+4]
  000b8	8b 04 88	 mov	 eax, DWORD PTR [eax+ecx*4]

; 1144 :         if ((_Myoff() + _Mysize()) % _Block_size == 0 && _Mapsize() <= (_Mysize() + _Block_size) / _Block_size) {

  000bb	8b 4e 10	 mov	 ecx, DWORD PTR [esi+16]

; 584  :         return _Map[_Block][_Block_off];

  000be	8d 04 d0	 lea	 eax, DWORD PTR [eax+edx*8]
  000c1	89 45 e0	 mov	 DWORD PTR $T7[ebp], eax

; 1144 :         if ((_Myoff() + _Mysize()) % _Block_size == 0 && _Mapsize() <= (_Mysize() + _Block_size) / _Block_size) {

  000c4	8b 46 0c	 mov	 eax, DWORD PTR [esi+12]
  000c7	03 c1		 add	 eax, ecx
  000c9	a8 01		 test	 al, 1
  000cb	75 13		 jne	 SHORT $LN75@deque
  000cd	8d 41 02	 lea	 eax, DWORD PTR [ecx+2]
  000d0	d1 e8		 shr	 eax, 1
  000d2	39 46 08	 cmp	 DWORD PTR [esi+8], eax
  000d5	77 09		 ja	 SHORT $LN75@deque

; 1145 :             _Growmap(1);

  000d7	6a 01		 push	 1
  000d9	8b ce		 mov	 ecx, esi
  000db	e8 00 00 00 00	 call	 ?_Growmap@?$deque@USFXHIT_COUNT@@V?$allocator@USFXHIT_COUNT@@@std@@@std@@AAEXI@Z ; std::deque<SFXHIT_COUNT,std::allocator<SFXHIT_COUNT> >::_Growmap
$LN75@deque:

; 1146 :         }
; 1147 :         _Myoff() &= _Mapsize() * _Block_size - 1;

  000e0	8b 4e 08	 mov	 ecx, DWORD PTR [esi+8]

; 1148 :         const auto _Newoff = static_cast<size_type>(_Myoff() + _Mysize());

  000e3	8b 5e 10	 mov	 ebx, DWORD PTR [esi+16]
  000e6	8d 04 4d ff ff
	ff ff		 lea	 eax, DWORD PTR [ecx*2-1]
  000ed	21 46 0c	 and	 DWORD PTR [esi+12], eax

; 572  :         return static_cast<_Map_difference_type>((_Off / _Block_size) & (_Mapsize - 1));

  000f0	8d 41 ff	 lea	 eax, DWORD PTR [ecx-1]

; 1148 :         const auto _Newoff = static_cast<size_type>(_Myoff() + _Mysize());

  000f3	03 5e 0c	 add	 ebx, DWORD PTR [esi+12]

; 572  :         return static_cast<_Map_difference_type>((_Off / _Block_size) & (_Mapsize - 1));

  000f6	8b d3		 mov	 edx, ebx
  000f8	d1 ea		 shr	 edx, 1
  000fa	23 c2		 and	 eax, edx
  000fc	89 55 e4	 mov	 DWORD PTR tv842[ebp], edx

; 1150 :         if (_Map()[_Block] == nullptr) {

  000ff	8d 3c 85 00 00
	00 00		 lea	 edi, DWORD PTR [eax*4]
  00106	8b 46 04	 mov	 eax, DWORD PTR [esi+4]
  00109	83 3c 07 00	 cmp	 DWORD PTR [edi+eax], 0
  0010d	75 13		 jne	 SHORT $LN76@deque
; File C:\Program Files\Microsoft Visual Studio\2022\Professional\VC\Tools\MSVC\14.44.35207\include\xmemory

; 136  :         return ::operator new(_Bytes);

  0010f	6a 10		 push	 16			; 00000010H
  00111	e8 00 00 00 00	 call	 ??2@YAPAXI@Z		; operator new
; File C:\Program Files\Microsoft Visual Studio\2022\Professional\VC\Tools\MSVC\14.44.35207\include\deque

; 1151 :             _Map()[_Block] = _Getal().allocate(_Block_size);

  00116	8b 4e 04	 mov	 ecx, DWORD PTR [esi+4]
; File C:\Program Files\Microsoft Visual Studio\2022\Professional\VC\Tools\MSVC\14.44.35207\include\xmemory

; 136  :         return ::operator new(_Bytes);

  00119	83 c4 04	 add	 esp, 4
  0011c	8b 55 e4	 mov	 edx, DWORD PTR tv842[ebp]
; File C:\Program Files\Microsoft Visual Studio\2022\Professional\VC\Tools\MSVC\14.44.35207\include\deque

; 1151 :             _Map()[_Block] = _Getal().allocate(_Block_size);

  0011f	89 04 0f	 mov	 DWORD PTR [edi+ecx], eax
$LN76@deque:

; 572  :         return static_cast<_Map_difference_type>((_Off / _Block_size) & (_Mapsize - 1));

  00122	8b 7e 08	 mov	 edi, DWORD PTR [esi+8]

; 589  :         const auto _Block_off = static_cast<difference_type>(_Off % _Block_size);

  00125	83 e3 01	 and	 ebx, 1

; 1154 :         _Alty_traits::construct(_Getal(), _Get_data()._Address_subscript(_Newoff), _STD forward<_Tys>(_Vals)...);

  00128	8b 46 04	 mov	 eax, DWORD PTR [esi+4]

; 572  :         return static_cast<_Map_difference_type>((_Off / _Block_size) & (_Mapsize - 1));

  0012b	4f		 dec	 edi
  0012c	23 fa		 and	 edi, edx

; 1154 :         _Alty_traits::construct(_Getal(), _Get_data()._Address_subscript(_Newoff), _STD forward<_Tys>(_Vals)...);

  0012e	8b 55 e0	 mov	 edx, DWORD PTR $T7[ebp]
  00131	8b 04 b8	 mov	 eax, DWORD PTR [eax+edi*4]
  00134	8b 0a		 mov	 ecx, DWORD PTR [edx]
  00136	8b 52 04	 mov	 edx, DWORD PTR [edx+4]

; 734  :         for (; _First != _Last; ++_First) {

  00139	8b 7d 08	 mov	 edi, DWORD PTR __Right$[ebp]

; 1154 :         _Alty_traits::construct(_Getal(), _Get_data()._Address_subscript(_Newoff), _STD forward<_Tys>(_Vals)...);

  0013c	89 0c d8	 mov	 DWORD PTR [eax+ebx*8], ecx
  0013f	89 54 d8 04	 mov	 DWORD PTR [eax+ebx*8+4], edx

; 53   :         ++_Myoff;

  00143	8b 5d ec	 mov	 ebx, DWORD PTR $T9[ebp]

; 1156 :         ++_Mysize();

  00146	ff 46 10	 inc	 DWORD PTR [esi+16]

; 53   :         ++_Myoff;

  00149	43		 inc	 ebx
  0014a	8b d3		 mov	 edx, ebx
  0014c	89 5d ec	 mov	 DWORD PTR $T9[ebp], ebx

; 120  :         return !(*this == _Right);

  0014f	3b 55 e8	 cmp	 edx, DWORD PTR $T8[ebp]

; 734  :         for (; _First != _Last; ++_First) {

  00152	0f 85 50 ff ff
	ff		 jne	 $LL27@deque
$LN138@deque:

; 698  :     }

  00158	8b c6		 mov	 eax, esi
  0015a	8b 4d f4	 mov	 ecx, DWORD PTR __$EHRec$[ebp]
  0015d	64 89 0d 00 00
	00 00		 mov	 DWORD PTR fs:0, ecx
  00164	59		 pop	 ecx
  00165	5f		 pop	 edi
  00166	5e		 pop	 esi
  00167	5b		 pop	 ebx
  00168	8b e5		 mov	 esp, ebp
  0016a	5d		 pop	 ebp
  0016b	c2 04 00	 ret	 4
_TEXT	ENDS
;	COMDAT text$x
text$x	SEGMENT
__unwindfunclet$??0?$deque@USFXHIT_COUNT@@V?$allocator@USFXHIT_COUNT@@@std@@@std@@QAE@ABV01@@Z$0:
  00000	8d 4d d0	 lea	 ecx, DWORD PTR __Proxy$3[ebp]
  00003	e9 00 00 00 00	 jmp	 ??1?$_Container_proxy_ptr12@V?$allocator@U_Container_proxy@std@@@std@@@std@@QAE@XZ ; std::_Container_proxy_ptr12<std::allocator<std::_Container_proxy> >::~_Container_proxy_ptr12<std::allocator<std::_Container_proxy> >
__unwindfunclet$??0?$deque@USFXHIT_COUNT@@V?$allocator@USFXHIT_COUNT@@@std@@@std@@QAE@ABV01@@Z$1:
  00008	8d 4d dc	 lea	 ecx, DWORD PTR __Guard$6[ebp]
  0000b	e9 00 00 00 00	 jmp	 ??1?$_Tidy_guard@V?$deque@USFXHIT_COUNT@@V?$allocator@USFXHIT_COUNT@@@std@@@std@@@std@@QAE@XZ ; std::_Tidy_guard<std::deque<SFXHIT_COUNT,std::allocator<SFXHIT_COUNT> > >::~_Tidy_guard<std::deque<SFXHIT_COUNT,std::allocator<SFXHIT_COUNT> > >
  00010	cc		 int	 3
  00011	cc		 int	 3
  00012	cc		 int	 3
  00013	cc		 int	 3
  00014	cc		 int	 3
__ehhandler$??0?$deque@USFXHIT_COUNT@@V?$allocator@USFXHIT_COUNT@@@std@@@std@@QAE@ABV01@@Z:
  00015	90		 npad	 1
  00016	90		 npad	 1
  00017	8b 54 24 08	 mov	 edx, DWORD PTR [esp+8]
  0001b	8d 42 0c	 lea	 eax, DWORD PTR [edx+12]
  0001e	8b 4a cc	 mov	 ecx, DWORD PTR [edx-52]
  00021	33 c8		 xor	 ecx, eax
  00023	e8 00 00 00 00	 call	 @__security_check_cookie@4
  00028	b8 00 00 00 00	 mov	 eax, OFFSET __ehfuncinfo$??0?$deque@USFXHIT_COUNT@@V?$allocator@USFXHIT_COUNT@@@std@@@std@@QAE@ABV01@@Z
  0002d	e9 00 00 00 00	 jmp	 ___CxxFrameHandler3
text$x	ENDS
??0?$deque@USFXHIT_COUNT@@V?$allocator@USFXHIT_COUNT@@@std@@@std@@QAE@ABV01@@Z ENDP ; std::deque<SFXHIT_COUNT,std::allocator<SFXHIT_COUNT> >::deque<SFXHIT_COUNT,std::allocator<SFXHIT_COUNT> >
; Function compile flags: /Ogtp
; File C:\Program Files\Microsoft Visual Studio\2022\Professional\VC\Tools\MSVC\14.44.35207\include\xmemory
;	COMDAT ?deallocate@?$allocator@PAUSFXHIT_COUNT@@@std@@QAEXQAPAUSFXHIT_COUNT@@I@Z
_TEXT	SEGMENT
__Ptr$ = 8						; size = 4
__Count$ = 12						; size = 4
?deallocate@?$allocator@PAUSFXHIT_COUNT@@@std@@QAEXQAPAUSFXHIT_COUNT@@I@Z PROC ; std::allocator<SFXHIT_COUNT *>::deallocate, COMDAT
; _this$ = ecx

; 982  :     _CONSTEXPR20 void deallocate(_Ty* const _Ptr, const size_t _Count) noexcept /* strengthened */ {

  00000	55		 push	 ebp
  00001	8b ec		 mov	 ebp, esp

; 983  :         _STL_ASSERT(_Ptr != nullptr || _Count == 0, "null pointer cannot point to a block of non-zero size");
; 984  :         // no overflow check on the following multiply; we assume _Allocate did that check
; 985  :         _STD _Deallocate<_New_alignof<_Ty>>(_Ptr, sizeof(_Ty) * _Count);

  00003	8b 45 0c	 mov	 eax, DWORD PTR __Count$[ebp]
  00006	8d 0c 85 00 00
	00 00		 lea	 ecx, DWORD PTR [eax*4]
  0000d	8b 45 08	 mov	 eax, DWORD PTR __Ptr$[ebp]

; 284  :         if (_Bytes >= _Big_allocation_threshold) {

  00010	81 f9 00 10 00
	00		 cmp	 ecx, 4096		; 00001000H
  00016	72 12		 jb	 SHORT $LN11@deallocate

; 205  :     const uintptr_t _Ptr_container   = _Ptr_user[-1];

  00018	8b 50 fc	 mov	 edx, DWORD PTR [eax-4]
  0001b	83 c1 23	 add	 ecx, 35			; 00000023H

; 206  : 
; 207  :     // If the following asserts, it likely means that we are performing
; 208  :     // an aligned delete on memory coming from an unaligned allocation.
; 209  :     _STL_ASSERT(_Ptr_user[-2] == _Big_allocation_sentinel, "invalid argument");
; 210  : 
; 211  :     // Extra paranoia on aligned allocation/deallocation; ensure _Ptr_container is
; 212  :     // in range [_Min_back_shift, _Non_user_size]
; 213  : #ifdef _DEBUG
; 214  :     constexpr uintptr_t _Min_back_shift = 2 * sizeof(void*);
; 215  : #else // ^^^ defined(_DEBUG) / !defined(_DEBUG) vvv
; 216  :     constexpr uintptr_t _Min_back_shift = sizeof(void*);
; 217  : #endif // ^^^ !defined(_DEBUG) ^^^
; 218  :     const uintptr_t _Back_shift = reinterpret_cast<uintptr_t>(_Ptr) - _Ptr_container;

  0001e	2b c2		 sub	 eax, edx

; 219  :     _STL_VERIFY(_Back_shift >= _Min_back_shift && _Back_shift <= _Non_user_size, "invalid argument");

  00020	83 c0 fc	 add	 eax, -4			; fffffffcH
  00023	83 f8 1f	 cmp	 eax, 31			; 0000001fH
  00026	77 10		 ja	 SHORT $LN10@deallocate

; 220  :     _Ptr = reinterpret_cast<void*>(_Ptr_container);

  00028	8b c2		 mov	 eax, edx
$LN11@deallocate:

; 289  :         ::operator delete(_Ptr, _Bytes);

  0002a	51		 push	 ecx
  0002b	50		 push	 eax
  0002c	e8 00 00 00 00	 call	 ??3@YAXPAXI@Z		; operator delete
  00031	83 c4 08	 add	 esp, 8

; 986  :     }

  00034	5d		 pop	 ebp
  00035	c2 08 00	 ret	 8
$LN10@deallocate:

; 219  :     _STL_VERIFY(_Back_shift >= _Min_back_shift && _Back_shift <= _Non_user_size, "invalid argument");

  00038	6a 00		 push	 0
  0003a	6a 00		 push	 0
  0003c	6a 00		 push	 0
  0003e	6a 00		 push	 0
  00040	6a 00		 push	 0
  00042	e8 00 00 00 00	 call	 __invoke_watson
$LN14@deallocate:
  00047	cc		 int	 3
?deallocate@?$allocator@PAUSFXHIT_COUNT@@@std@@QAEXQAPAUSFXHIT_COUNT@@I@Z ENDP ; std::allocator<SFXHIT_COUNT *>::deallocate
_TEXT	ENDS
; Function compile flags: /Ogtp
; File C:\Program Files\Microsoft Visual Studio\2022\Professional\VC\Tools\MSVC\14.44.35207\include\xtree
;	COMDAT ??E?$_Tree_unchecked_const_iterator@V?$_Tree_val@U?$_Tree_simple_types@U?$pair@$$CBKV?$queue@USFXHIT_COUNT@@V?$deque@USFXHIT_COUNT@@V?$allocator@USFXHIT_COUNT@@@std@@@std@@@std@@@std@@@std@@@std@@U_Iterator_base0@2@@std@@QAEAAV01@XZ
_TEXT	SEGMENT
??E?$_Tree_unchecked_const_iterator@V?$_Tree_val@U?$_Tree_simple_types@U?$pair@$$CBKV?$queue@USFXHIT_COUNT@@V?$deque@USFXHIT_COUNT@@V?$allocator@USFXHIT_COUNT@@@std@@@std@@@std@@@std@@@std@@@std@@U_Iterator_base0@2@@std@@QAEAAV01@XZ PROC ; std::_Tree_unchecked_const_iterator<std::_Tree_val<std::_Tree_simple_types<std::pair<unsigned long const ,std::queue<SFXHIT_COUNT,std::deque<SFXHIT_COUNT,std::allocator<SFXHIT_COUNT> > > > > >,std::_Iterator_base0>::operator++, COMDAT
; _this$ = ecx

; 49   :     _Tree_unchecked_const_iterator& operator++() noexcept {

  00000	56		 push	 esi
  00001	8b f1		 mov	 esi, ecx
  00003	57		 push	 edi

; 50   :         if (_Ptr->_Right->_Isnil) { // climb looking for right subtree

  00004	8b 16		 mov	 edx, DWORD PTR [esi]
  00006	8b 7a 08	 mov	 edi, DWORD PTR [edx+8]
  00009	80 7f 0d 00	 cmp	 BYTE PTR [edi+13], 0
  0000d	74 22		 je	 SHORT $LN4@operator

; 51   :             _Nodeptr _Pnode;
; 52   :             while (!(_Pnode = _Ptr->_Parent)->_Isnil && _Ptr == _Pnode->_Right) {

  0000f	8b 42 04	 mov	 eax, DWORD PTR [edx+4]
  00012	80 78 0d 00	 cmp	 BYTE PTR [eax+13], 0
  00016	75 12		 jne	 SHORT $LN21@operator
$LL2@operator:
  00018	3b 50 08	 cmp	 edx, DWORD PTR [eax+8]
  0001b	75 0d		 jne	 SHORT $LN21@operator

; 53   :                 _Ptr = _Pnode; // ==> parent while right subtree

  0001d	89 06		 mov	 DWORD PTR [esi], eax
  0001f	8b d0		 mov	 edx, eax
  00021	8b 40 04	 mov	 eax, DWORD PTR [eax+4]
  00024	80 78 0d 00	 cmp	 BYTE PTR [eax+13], 0
  00028	74 ee		 je	 SHORT $LL2@operator
$LN21@operator:

; 54   :             }
; 55   : 
; 56   :             _Ptr = _Pnode; // ==> parent (head if end())
; 57   :         } else {
; 58   :             _Ptr = _Mytree::_Min(_Ptr->_Right); // ==> smallest of right subtree
; 59   :         }
; 60   : 
; 61   :         return *this;

  0002a	89 06		 mov	 DWORD PTR [esi], eax

; 62   :     }

  0002c	8b c6		 mov	 eax, esi
  0002e	5f		 pop	 edi
  0002f	5e		 pop	 esi
  00030	c3		 ret	 0
$LN4@operator:

; 476  :         while (!_Pnode->_Left->_Isnil) {

  00031	8b 0f		 mov	 ecx, DWORD PTR [edi]
  00033	80 79 0d 00	 cmp	 BYTE PTR [ecx+13], 0
  00037	75 13		 jne	 SHORT $LN10@operator
  00039	0f 1f 80 00 00
	00 00		 npad	 7
$LL9@operator:
  00040	8b 01		 mov	 eax, DWORD PTR [ecx]

; 477  :             _Pnode = _Pnode->_Left;

  00042	8b f9		 mov	 edi, ecx
  00044	8b c8		 mov	 ecx, eax
  00046	80 78 0d 00	 cmp	 BYTE PTR [eax+13], 0
  0004a	74 f4		 je	 SHORT $LL9@operator
$LN10@operator:

; 54   :             }
; 55   : 
; 56   :             _Ptr = _Pnode; // ==> parent (head if end())
; 57   :         } else {
; 58   :             _Ptr = _Mytree::_Min(_Ptr->_Right); // ==> smallest of right subtree
; 59   :         }
; 60   : 
; 61   :         return *this;

  0004c	89 3e		 mov	 DWORD PTR [esi], edi

; 62   :     }

  0004e	8b c6		 mov	 eax, esi
  00050	5f		 pop	 edi
  00051	5e		 pop	 esi
  00052	c3		 ret	 0
??E?$_Tree_unchecked_const_iterator@V?$_Tree_val@U?$_Tree_simple_types@U?$pair@$$CBKV?$queue@USFXHIT_COUNT@@V?$deque@USFXHIT_COUNT@@V?$allocator@USFXHIT_COUNT@@@std@@@std@@@std@@@std@@@std@@@std@@U_Iterator_base0@2@@std@@QAEAAV01@XZ ENDP ; std::_Tree_unchecked_const_iterator<std::_Tree_val<std::_Tree_simple_types<std::pair<unsigned long const ,std::queue<SFXHIT_COUNT,std::deque<SFXHIT_COUNT,std::allocator<SFXHIT_COUNT> > > > > >,std::_Iterator_base0>::operator++
_TEXT	ENDS
; Function compile flags: /Ogtp
; File C:\IAGOS\server\v18\Source\Source\_Common\MoverAttack.cpp
;	COMDAT ?GetWandATKMultiplier@@YAMH@Z
_TEXT	SEGMENT
_nLevel$ = 8						; size = 4
?GetWandATKMultiplier@@YAMH@Z PROC			; GetWandATKMultiplier, COMDAT

; 102  : {

  00000	55		 push	 ebp
  00001	8b ec		 mov	 ebp, esp

; 103  : 	switch( nLevel )  

  00003	8b 45 08	 mov	 eax, DWORD PTR _nLevel$[ebp]
  00006	83 f8 04	 cmp	 eax, 4
  00009	77 2f		 ja	 SHORT $LN2@GetWandATK
  0000b	ff 24 85 00 00
	00 00		 jmp	 DWORD PTR $LN10@GetWandATK[eax*4]
$LN4@GetWandATK:

; 104  : 	{
; 105  : 	case 0:	return 0.6f;	

  00012	d9 05 00 00 00
	00		 fld	 DWORD PTR __real@3f19999a

; 112  : }

  00018	5d		 pop	 ebp
  00019	c3		 ret	 0
$LN5@GetWandATK:

; 106  : 	case 1:	return 0.8f;

  0001a	d9 05 00 00 00
	00		 fld	 DWORD PTR __real@3f4ccccd

; 112  : }

  00020	5d		 pop	 ebp
  00021	c3		 ret	 0
$LN6@GetWandATK:

; 107  : 	case 2: return 1.05f;

  00022	d9 05 00 00 00
	00		 fld	 DWORD PTR __real@3f866666

; 112  : }

  00028	5d		 pop	 ebp
  00029	c3		 ret	 0
$LN7@GetWandATK:

; 108  : 	case 3: return 1.1f;

  0002a	d9 05 00 00 00
	00		 fld	 DWORD PTR __real@3f8ccccd

; 112  : }

  00030	5d		 pop	 ebp
  00031	c3		 ret	 0
$LN8@GetWandATK:

; 109  : 	case 4: return 1.3f;

  00032	d9 05 00 00 00
	00		 fld	 DWORD PTR __real@3fa66666

; 112  : }

  00038	5d		 pop	 ebp
  00039	c3		 ret	 0
$LN2@GetWandATK:

; 110  : 	}
; 111  : 	return 1.0f;

  0003a	d9 e8		 fld1

; 112  : }

  0003c	5d		 pop	 ebp
  0003d	c3		 ret	 0
  0003e	66 90		 npad	 2
$LN10@GetWandATK:
  00040	00 00 00 00	 DD	 $LN4@GetWandATK
  00044	00 00 00 00	 DD	 $LN5@GetWandATK
  00048	00 00 00 00	 DD	 $LN6@GetWandATK
  0004c	00 00 00 00	 DD	 $LN7@GetWandATK
  00050	00 00 00 00	 DD	 $LN8@GetWandATK
?GetWandATKMultiplier@@YAMH@Z ENDP			; GetWandATKMultiplier
_TEXT	ENDS
; Function compile flags: /Ogtp
; File C:\IAGOS\server\v18\Source\Source\_Common\MoverAttack.cpp
;	COMDAT ?GetChargeMultiplier@@YAMH@Z
_TEXT	SEGMENT
_nLevel$ = 8						; size = 4
?GetChargeMultiplier@@YAMH@Z PROC			; GetChargeMultiplier, COMDAT

; 89   : {

  00000	55		 push	 ebp
  00001	8b ec		 mov	 ebp, esp

; 90   : 	//TRACE("GetChargeMultiplier(%d)\n", nLevel );
; 91   : 	ASSERT( nLevel <= 4 );
; 92   : 
; 93   : 	static float factors[5] = { 1.0f, 1.2f, 1.5f, 1.8f, 2.2f };
; 94   : 	if( 0 <= nLevel && nLevel <= 4 )

  00003	8b 45 08	 mov	 eax, DWORD PTR _nLevel$[ebp]
  00006	83 f8 04	 cmp	 eax, 4
  00009	77 09		 ja	 SHORT $LN2@GetChargeM

; 95   : 		return factors[ nLevel ];

  0000b	d9 04 85 00 00
	00 00		 fld	 DWORD PTR ?factors@?1??GetChargeMultiplier@@YAMH@Z@4PAMA[eax*4]

; 98   : }

  00012	5d		 pop	 ebp
  00013	c3		 ret	 0
$LN2@GetChargeM:

; 96   : 
; 97   : 	return 1.0f;

  00014	d9 e8		 fld1

; 98   : }

  00016	5d		 pop	 ebp
  00017	c3		 ret	 0
?GetChargeMultiplier@@YAMH@Z ENDP			; GetChargeMultiplier
_TEXT	ENDS
; Function compile flags: /Ogtp
; File C:\IAGOS\server\v18\Source\Source\_Common\MoverAttack.cpp
;	COMDAT ?GetAttackSpeedPlusValue@@YAMH@Z
_TEXT	SEGMENT
_fPlusValue$ = -72					; size = 72
_n$ = 8							; size = 4
?GetAttackSpeedPlusValue@@YAMH@Z PROC			; GetAttackSpeedPlusValue, COMDAT

; 70   : {

  00000	55		 push	 ebp
  00001	8b ec		 mov	 ebp, esp
  00003	83 ec 48	 sub	 esp, 72			; 00000048H

; 71   : 	const int MAX_ATTACK_SPEED_PLUSVALUE = 18;
; 72   : 
; 73   : 	int nIndex = n / 10;
; 74   : 	nIndex = max( nIndex, 0 );
; 75   : 	nIndex = min( nIndex, (MAX_ATTACK_SPEED_PLUSVALUE-1) );
; 76   : 
; 77   : 	float fPlusValue[MAX_ATTACK_SPEED_PLUSVALUE] = {
; 78   : 		0.08f, 0.16f, 0.24f, 0.32f,	0.40f,

  00006	0f 28 05 00 00
	00 00		 movaps	 xmm0, XMMWORD PTR __xmm@3ea3d70a3e75c28f3e23d70a3da3d70a
  0000d	b8 67 66 66 66	 mov	 eax, 1717986919		; 66666667H
  00012	f7 6d 08	 imul	 DWORD PTR _n$[ebp]
  00015	0f 11 45 b8	 movups	 XMMWORD PTR _fPlusValue$[ebp], xmm0
  00019	0f 28 05 00 00
	00 00		 movaps	 xmm0, XMMWORD PTR __xmm@3f23d70a3f0f5c293ef5c28f3ecccccd
  00020	0f 11 45 c8	 movups	 XMMWORD PTR _fPlusValue$[ebp+16], xmm0
  00024	33 c9		 xor	 ecx, ecx

; 79   : 		0.48f, 0.56f, 0.64f, 0.72f,	0.80f,
; 80   : 		0.88f, 0.96f, 1.04f, 1.12f,	1.20f,
; 81   : 		1.30f, 1.38f, 1.50f

  00026	c7 45 f8 d7 a3
	b0 3f		 mov	 DWORD PTR _fPlusValue$[ebp+64], 1068540887 ; 3fb0a3d7H
  0002d	0f 28 05 00 00
	00 00		 movaps	 xmm0, XMMWORD PTR __xmm@3f75c28f3f6147ae3f4ccccd3f3851ec
  00034	c1 fa 02	 sar	 edx, 2
  00037	8b c2		 mov	 eax, edx
  00039	c7 45 fc 00 00
	c0 3f		 mov	 DWORD PTR _fPlusValue$[ebp+68], 1069547520 ; 3fc00000H
  00040	c1 e8 1f	 shr	 eax, 31			; 0000001fH
  00043	03 c2		 add	 eax, edx
  00045	85 c0		 test	 eax, eax
  00047	0f 11 45 d8	 movups	 XMMWORD PTR _fPlusValue$[ebp+32], xmm0
  0004b	0f 4f c8	 cmovg	 ecx, eax
  0004e	b8 11 00 00 00	 mov	 eax, 17			; 00000011H
  00053	0f 28 05 00 00
	00 00		 movaps	 xmm0, XMMWORD PTR __xmm@3fa666663f99999a3f8f5c293f851eb8
  0005a	3b c8		 cmp	 ecx, eax
  0005c	0f 11 45 e8	 movups	 XMMWORD PTR _fPlusValue$[ebp+48], xmm0
  00060	0f 4c c1	 cmovl	 eax, ecx

; 82   : 	};
; 83   : 
; 84   : 	return fPlusValue[nIndex];

  00063	d9 44 85 b8	 fld	 DWORD PTR _fPlusValue$[ebp+eax*4]

; 85   : }

  00067	8b e5		 mov	 esp, ebp
  00069	5d		 pop	 ebp
  0006a	c3		 ret	 0
?GetAttackSpeedPlusValue@@YAMH@Z ENDP			; GetAttackSpeedPlusValue
_TEXT	ENDS
; Function compile flags: /Ogtp
; File C:\Program Files\Microsoft Visual Studio\2022\Professional\VC\Tools\MSVC\14.44.35207\include\xmemory
;	COMDAT ??$_Allocate_manually_vector_aligned@U_Default_allocate_traits@std@@@std@@YAPAXI@Z
_TEXT	SEGMENT
__Bytes$ = 8						; size = 4
??$_Allocate_manually_vector_aligned@U_Default_allocate_traits@std@@@std@@YAPAXI@Z PROC ; std::_Allocate_manually_vector_aligned<std::_Default_allocate_traits>, COMDAT

; 182  : __declspec(allocator) void* _Allocate_manually_vector_aligned(const size_t _Bytes) {

  00000	55		 push	 ebp
  00001	8b ec		 mov	 ebp, esp

; 183  :     // allocate _Bytes manually aligned to at least _Big_allocation_alignment
; 184  :     const size_t _Block_size = _Non_user_size + _Bytes;

  00003	8b 45 08	 mov	 eax, DWORD PTR __Bytes$[ebp]
  00006	8d 48 23	 lea	 ecx, DWORD PTR [eax+35]

; 185  :     if (_Block_size <= _Bytes) {

  00009	3b c8		 cmp	 ecx, eax
  0000b	0f 86 00 00 00
	00		 jbe	 ?_Throw_bad_array_new_length@std@@YAXXZ ; std::_Throw_bad_array_new_length

; 136  :         return ::operator new(_Bytes);

  00011	51		 push	 ecx
  00012	e8 00 00 00 00	 call	 ??2@YAPAXI@Z		; operator new

; 186  :         _Throw_bad_array_new_length(); // add overflow
; 187  :     }
; 188  : 
; 189  :     const uintptr_t _Ptr_container = reinterpret_cast<uintptr_t>(_Traits::_Allocate(_Block_size));

  00017	8b c8		 mov	 ecx, eax

; 136  :         return ::operator new(_Bytes);

  00019	83 c4 04	 add	 esp, 4

; 190  :     _STL_VERIFY(_Ptr_container != 0, "invalid argument"); // validate even in release since we're doing p[-1]

  0001c	85 c9		 test	 ecx, ecx
  0001e	74 0b		 je	 SHORT $LN9@Allocate_m

; 191  :     void* const _Ptr = reinterpret_cast<void*>((_Ptr_container + _Non_user_size) & ~(_Big_allocation_alignment - 1));

  00020	8d 41 23	 lea	 eax, DWORD PTR [ecx+35]
  00023	83 e0 e0	 and	 eax, -32		; ffffffe0H

; 192  :     static_cast<uintptr_t*>(_Ptr)[-1] = _Ptr_container;

  00026	89 48 fc	 mov	 DWORD PTR [eax-4], ecx

; 193  : 
; 194  : #ifdef _DEBUG
; 195  :     static_cast<uintptr_t*>(_Ptr)[-2] = _Big_allocation_sentinel;
; 196  : #endif // defined(_DEBUG)
; 197  :     return _Ptr;
; 198  : }

  00029	5d		 pop	 ebp
  0002a	c3		 ret	 0
$LN9@Allocate_m:

; 190  :     _STL_VERIFY(_Ptr_container != 0, "invalid argument"); // validate even in release since we're doing p[-1]

  0002b	6a 00		 push	 0
  0002d	6a 00		 push	 0
  0002f	6a 00		 push	 0
  00031	6a 00		 push	 0
  00033	6a 00		 push	 0
  00035	e8 00 00 00 00	 call	 __invoke_watson
$LN7@Allocate_m:
  0003a	cc		 int	 3
??$_Allocate_manually_vector_aligned@U_Default_allocate_traits@std@@@std@@YAPAXI@Z ENDP ; std::_Allocate_manually_vector_aligned<std::_Default_allocate_traits>
_TEXT	ENDS
; Function compile flags: /Ogtp
; File C:\IAGOS\server\v18\Source\Source\_Common\MoverAttack.cpp
; File C:\IAGOS\server\v18\Source\Source\_Common\Obj.h
; File C:\IAGOS\server\v18\Source\Source\_AIInterface\ActionMover.h
; File C:\IAGOS\server\v18\Source\Source\_Common\Mover.h
; File C:\IAGOS\server\v18\Source\Source\_Common\MoverAttack.cpp
; File C:\IAGOS\server\v18\Source\Source\_AIInterface\ActionMover.h
; File C:\IAGOS\server\v18\Source\Source\_Common\MoverAttack.cpp
; File C:\IAGOS\server\v18\Source\Source\_AIInterface\ActionMover.h
; File C:\IAGOS\server\v18\Source\Source\_Common\MoverAttack.cpp
; File C:\IAGOS\server\v18\Source\Source\_AIInterface\ActionMover.h
; File C:\IAGOS\server\v18\Source\Source\_Common\MoverAttack.cpp
; File C:\IAGOS\server\v18\Source\Source\_Common\XUtil3D.h
; File C:\IAGOS\server\v18\Source\Source\_Common\MoverAttack.cpp
; File C:\Program Files (x86)\Windows Kits\10\Include\10.0.26100.0\ucrt\corecrt_math.h
; File C:\IAGOS\server\v18\Source\Source\_Common\XUtil3D.h
; File C:\Program Files (x86)\Windows Kits\10\Include\10.0.26100.0\ucrt\corecrt_math.h
; File C:\IAGOS\server\v18\Source\Source\_Common\XUtil3D.h
; File C:\IAGOS\server\v18\Source\Source\_Common\Mover.h
; File C:\IAGOS\server\v18\Source\Source\_Common\MoverAttack.cpp
;	COMDAT ?AttackBySFX@@YAHPAVCMover@@AAUSFXHIT_INFO@@@Z
_TEXT	SEGMENT
_pTarget$1$ = -16					; size = 4
tv443 = -12						; size = 8
_pSkillProp$1 = -8					; size = 4
_pAddSkillProp$2 = -4					; size = 4
_pAttacker$ = 8						; size = 4
_info$ = 12						; size = 4
_nParam$1$ = 12						; size = 4
_fSpeed$1$ = 12						; size = 4
?AttackBySFX@@YAHPAVCMover@@AAUSFXHIT_INFO@@@Z PROC	; AttackBySFX, COMDAT

; 2248 : {

  00000	55		 push	 ebp
  00001	8b ec		 mov	 ebp, esp
  00003	83 ec 10	 sub	 esp, 16			; 00000010H
  00006	56		 push	 esi
  00007	57		 push	 edi

; 2249 : 	CMover* pTarget	= prj.GetMover( info.idTarget );

  00008	8b 7d 0c	 mov	 edi, DWORD PTR _info$[ebp]
  0000b	b9 00 00 00 00	 mov	 ecx, OFFSET ?prj@@3VCProject@@A ; prj
  00010	ff 37		 push	 DWORD PTR [edi]
  00012	e8 00 00 00 00	 call	 ?GetMover@CProject@@QAEPAVCMover@@K@Z ; CProject::GetMover
  00017	8b f0		 mov	 esi, eax
  00019	89 75 f0	 mov	 DWORD PTR _pTarget$1$[ebp], esi
; File C:\IAGOS\server\v18\Source\Source\_Common\Obj.h

; 327  : 	return pObj && ( pObj->IsDelete() == FALSE ); 

  0001c	85 f6		 test	 esi, esi
  0001e	0f 84 8d 01 00
	00		 je	 $LN49@AttackBySF

; 180  : 	BOOL			IsDelete()	{ return (m_dwFlags & OBJ_FLAG_DELETE);  }

  00024	f6 46 04 01	 test	 BYTE PTR [esi+4], 1

; 327  : 	return pObj && ( pObj->IsDelete() == FALSE ); 

  00028	0f 85 83 01 00
	00		 jne	 $LN49@AttackBySF
; File C:\IAGOS\server\v18\Source\Source\_AIInterface\ActionMover.h

; 189  : 	int nParam = nMagicPower;	// D0~D7

  0002e	8b 47 08	 mov	 eax, DWORD PTR [edi+8]
  00031	c1 e0 08	 shl	 eax, 8

; 190  : 	nParam |= (nDmgCnt << 8);	// D7~D15
; 191  : 	nParam |= (nSkill << 16);	// D16~D31

  00034	0b 47 0c	 or	 eax, DWORD PTR [edi+12]
  00037	c1 e0 08	 shl	 eax, 8
  0003a	0b 47 04	 or	 eax, DWORD PTR [edi+4]
  0003d	89 45 0c	 mov	 DWORD PTR _nParam$1$[ebp], eax
; File C:\IAGOS\server\v18\Source\Source\_Common\Mover.h

; 1251 : 	BOOL			IsLive() { return m_pActMover->IsDie() == FALSE || m_nHitPoint > 0; }		// && ¸¦  ||·Î ąŮ˛ĺŔ˝.  !=¸¦ >·Î ąŮ˛Ţ

  00040	8b 86 38 02 00
	00		 mov	 eax, DWORD PTR [esi+568]
  00046	f7 40 04 00 00
	00 08		 test	 DWORD PTR [eax+4], 134217728 ; 08000000H
  0004d	74 0d		 je	 SHORT $LN3@AttackBySF
  0004f	83 be f8 05 00
	00 00		 cmp	 DWORD PTR [esi+1528], 0
  00056	0f 8e 55 01 00
	00		 jle	 $LN49@AttackBySF
$LN3@AttackBySF:
; File C:\IAGOS\server\v18\Source\Source\_Common\MoverAttack.cpp

; 2258 : 	if( info.dwAtkFlags & AF_GENERIC )

  0005c	f6 47 18 01	 test	 BYTE PTR [edi+24], 1
  00060	74 16		 je	 SHORT $LN5@AttackBySF

; 2259 : 	{						
; 2260 : 		if( pAttacker->GetAttackResult( pTarget, 0 ) == FALSE )

  00062	8b 4d 08	 mov	 ecx, DWORD PTR _pAttacker$[ebp]
  00065	6a 00		 push	 0
  00067	56		 push	 esi
  00068	e8 00 00 00 00	 call	 ?GetAttackResult@CMover@@QAEHPAV1@K@Z ; CMover::GetAttackResult
  0006d	85 c0		 test	 eax, eax
  0006f	75 07		 jne	 SHORT $LN5@AttackBySF

; 2261 : 			info.dwAtkFlags = AF_MISS;

  00071	c7 47 18 02 00
	00 00		 mov	 DWORD PTR [edi+24], 2
$LN5@AttackBySF:

; 2262 : 	}
; 2263 : 
; 2264 : 	if( !g_eLocal.GetState( EVE_STEAL ) && pAttacker->IsSteal( pTarget ) )

  00078	6a 0d		 push	 13			; 0000000dH
  0007a	b9 00 00 00 00	 mov	 ecx, OFFSET ?g_eLocal@@3VCFlyffEvent@@A ; g_eLocal
  0007f	e8 00 00 00 00	 call	 ?GetState@CFlyffEvent@@QAEEH@Z ; CFlyffEvent::GetState
  00084	84 c0		 test	 al, al
  00086	75 11		 jne	 SHORT $LN6@AttackBySF
  00088	8b 4d 08	 mov	 ecx, DWORD PTR _pAttacker$[ebp]
  0008b	56		 push	 esi
  0008c	e8 00 00 00 00	 call	 ?IsSteal@CMover@@QAEHPAV1@@Z ; CMover::IsSteal
  00091	85 c0		 test	 eax, eax
  00093	0f 85 0d 01 00
	00		 jne	 $LN13@AttackBySF
$LN6@AttackBySF:
; File C:\IAGOS\server\v18\Source\Source\_AIInterface\ActionMover.h

; 49   : 	return (dwAtkFlags & (AF_MELEESKILL|AF_MAGICSKILL) );

  00099	f6 47 18 30	 test	 BYTE PTR [edi+24], 48	; 00000030H
; File C:\IAGOS\server\v18\Source\Source\_Common\MoverAttack.cpp

; 2267 : 	if( IsSkillAttack( info.dwAtkFlags ) )

  0009d	74 5f		 je	 SHORT $LN7@AttackBySF

; 2268 : 	{
; 2269 : 		// ˝şĹł Čż°ú¸¦ Ŕűżë.(ł»şÎżˇ µĄąĚÁöµµ Ć÷ÇÔµÇľî ŔÖ´Ů)
; 2270 : 		LPSKILL pSkill = pAttacker->GetSkill( info.dwSkill );		// °ř°ÝŔÚŔÇ ˝şĹł·ąş§Ŕ» ľË±â Ŕ§ÇŘ...

  0009f	ff 77 08	 push	 DWORD PTR [edi+8]
  000a2	8b 4d 08	 mov	 ecx, DWORD PTR _pAttacker$[ebp]
  000a5	e8 00 00 00 00	 call	 ?GetSkill@CMover@@QAEPAUtagSkill@@K@Z ; CMover::GetSkill
  000aa	8b d0		 mov	 edx, eax

; 2271 : 		if( pSkill )

  000ac	85 d2		 test	 edx, edx
  000ae	74 3c		 je	 SHORT $LN9@AttackBySF

; 2272 : 		{
; 2273 : 			ItemProp *pSkillProp;
; 2274 : 			AddSkillProp *pAddSkillProp;
; 2275 : 		#ifdef __SKILL0517
; 2276 : 			BOOL bSuccess	= pAttacker->GetSkillProp( &pSkillProp, &pAddSkillProp, info.dwSkill, pAttacker->GetSkillLevel( pSkill ), "OnSfxHit" );
; 2277 : 		#else	// __SKILL0517
; 2278 : 			BOOL bSuccess	= pAttacker->GetSkillProp( &pSkillProp, &pAddSkillProp, info.dwSkill, pSkill->dwLevel, "OnSfxHit" );

  000b0	8b 4d 08	 mov	 ecx, DWORD PTR _pAttacker$[ebp]
  000b3	68 00 00 00 00	 push	 OFFSET ??_C@_08IKHLBNOC@OnSfxHit@
  000b8	ff 72 04	 push	 DWORD PTR [edx+4]
  000bb	8d 55 fc	 lea	 edx, DWORD PTR _pAddSkillProp$2[ebp]
  000be	ff 77 08	 push	 DWORD PTR [edi+8]
  000c1	8b 01		 mov	 eax, DWORD PTR [ecx]
  000c3	52		 push	 edx
  000c4	8d 55 f8	 lea	 edx, DWORD PTR _pSkillProp$1[ebp]
  000c7	52		 push	 edx
  000c8	8b 40 30	 mov	 eax, DWORD PTR [eax+48]
  000cb	ff d0		 call	 eax

; 2279 : 		#endif	// __SKILL0517
; 2280 : 			if( bSuccess )

  000cd	85 c0		 test	 eax, eax
  000cf	74 4d		 je	 SHORT $LN8@AttackBySF

; 2281 : #if __VER >= 8 // __S8_PK
; 2282 : 				pAttacker->DoApplySkill( pTarget, pSkillProp, pAddSkillProp, false, nParam, FALSE, info.bControl );

  000d1	ff 77 1c	 push	 DWORD PTR [edi+28]
  000d4	8b 4d 08	 mov	 ecx, DWORD PTR _pAttacker$[ebp]
  000d7	6a 00		 push	 0
  000d9	ff 75 0c	 push	 DWORD PTR _nParam$1$[ebp]
  000dc	6a 00		 push	 0
  000de	ff 75 fc	 push	 DWORD PTR _pAddSkillProp$2[ebp]
  000e1	ff 75 f8	 push	 DWORD PTR _pSkillProp$1[ebp]
  000e4	56		 push	 esi
  000e5	e8 00 00 00 00	 call	 ?DoApplySkill@CCtrl@@QAEHPAV1@PAUItemProp@@PAUAddSkillProp@@_NHHH@Z ; CCtrl::DoApplySkill

; 2283 : #else // __VER >= 8 // __S8_PK
; 2284 : 				pAttacker->DoApplySkill( pTarget, pSkillProp, pAddSkillProp, false, nParam );
; 2285 : #endif // __VER >= 8 // __S8_PK
; 2286 : 		} 

  000ea	eb 32		 jmp	 SHORT $LN8@AttackBySF
$LN9@AttackBySF:

; 2287 : 		else
; 2288 : 			Error( "OnSfxHit : skill=%d¸¦ °ˇÁöÁö ľĘŔ˝", info.dwSkill );

  000ec	ff 77 08	 push	 DWORD PTR [edi+8]
  000ef	68 00 00 00 00	 push	 OFFSET ??_C@_0CC@OLPGPEPO@OnSfxHit?5?3?5skill?$DN?$CFd?$LI?$KG?5?$LA?$KB?A?v?A?v?5?$LO?J@
  000f4	e8 00 00 00 00	 call	 ?Error@@YAPBDPBDZZ	; Error
  000f9	83 c4 08	 add	 esp, 8

; 2289 : 	} 

  000fc	eb 20		 jmp	 SHORT $LN8@AttackBySF
$LN7@AttackBySF:
; File C:\IAGOS\server\v18\Source\Source\_AIInterface\ActionMover.h

; 134  : 	int				SendDamage( DWORD dwAtkFlags, OBJID idSender, int nParam = 0, BOOL bTarget = TRUE, int nReflect = 0 )	{	return SendActMsg( OBJMSG_DAMAGE, dwAtkFlags, idSender, nParam, bTarget, nReflect );	}

  000fe	8b 55 08	 mov	 edx, DWORD PTR _pAttacker$[ebp]
; File C:\IAGOS\server\v18\Source\Source\_Common\MoverAttack.cpp

; 2291 : 		pTarget->m_pActMover->SendDamage( info.dwAtkFlags, pAttacker->GetId(), nParam );

  00101	8b 8e 38 02 00
	00		 mov	 ecx, DWORD PTR [esi+568]
; File C:\IAGOS\server\v18\Source\Source\_AIInterface\ActionMover.h

; 134  : 	int				SendDamage( DWORD dwAtkFlags, OBJID idSender, int nParam = 0, BOOL bTarget = TRUE, int nReflect = 0 )	{	return SendActMsg( OBJMSG_DAMAGE, dwAtkFlags, idSender, nParam, bTarget, nReflect );	}

  00107	6a 00		 push	 0
  00109	6a 01		 push	 1
  0010b	ff 75 0c	 push	 DWORD PTR _nParam$1$[ebp]
  0010e	8b 01		 mov	 eax, DWORD PTR [ecx]
  00110	ff b2 bc 01 00
	00		 push	 DWORD PTR [edx+444]
  00116	ff 77 18	 push	 DWORD PTR [edi+24]
  00119	6a 29		 push	 41			; 00000029H
  0011b	ff 50 04	 call	 DWORD PTR [eax+4]
$LN8@AttackBySF:
; File C:\IAGOS\server\v18\Source\Source\_Common\MoverAttack.cpp

; 2293 : 	if( info.fDmgPower )	// ąĐ¸®´Â ĽÓĽşŔĚ ŔÖ´Â°Ĺ¸é.

  0011e	f3 0f 10 4f 14	 movss	 xmm1, DWORD PTR [edi+20]
  00123	0f 57 c0	 xorps	 xmm0, xmm0
  00126	0f 2e c8	 ucomiss xmm1, xmm0
  00129	f3 0f 11 4d 0c	 movss	 DWORD PTR _fSpeed$1$[ebp], xmm1
  0012e	9f		 lahf
  0012f	f6 c4 44	 test	 ah, 68			; 00000044H
  00132	7b 5a		 jnp	 SHORT $LN12@AttackBySF
; File C:\IAGOS\server\v18\Source\Source\_Common\XUtil3D.h

; 39   : 	fAngXZ = D3DXToRadian(fAngXZ);

  00134	f3 0f 10 47 10	 movss	 xmm0, DWORD PTR [edi+16]
  00139	f3 0f 59 05 00
	00 00 00	 mulss	 xmm0, DWORD PTR __real@3c8efa35
; File C:\IAGOS\server\v18\Source\Source\_Common\MoverAttack.cpp

; 2294 : 		AngleToVectorXZ( &pTarget->m_pActMover->m_vDeltaE, info.fDmgAngle, info.fDmgPower );   

  00141	8b b6 38 02 00
	00		 mov	 esi, DWORD PTR [esi+568]
; File C:\Program Files (x86)\Windows Kits\10\Include\10.0.26100.0\ucrt\corecrt_math.h

; 789  :             return (float)sin(_X);

  00147	0f 5a c0	 cvtps2pd xmm0, xmm0
  0014a	f2 0f 11 45 f4	 movsd	 QWORD PTR tv443[ebp], xmm0
